	.file	"IconFileBrowser.cpp"
	.section	".text"
.Ltext0:
	.section	.text._ZN7sigslot15single_threadedD2Ev,"axG",@progbits,_ZN7sigslot15single_threadedD5Ev,comdat
	.align 2
	.weak	_ZN7sigslot15single_threadedD2Ev
	.type	_ZN7sigslot15single_threadedD2Ev, @function
_ZN7sigslot15single_threadedD2Ev:
.LFB1148:
	.file 1 "d:/Projects/SaveGameManager/savegame-manager-gx/trunk/source/Files/../GUI/../sigslot.h"
	.loc 1 104 0
	.cfi_startproc
.LVL0:
.LBB5101:
	.loc 1 105 0
	lis 9,_ZTVN7sigslot15single_threadedE+8@ha
.LBE5101:
	.loc 1 107 0
.LBB5102:
	.loc 1 105 0
	la 0,_ZTVN7sigslot15single_threadedE+8@l(9)
	stw 0,0(3)
.LBE5102:
	.loc 1 107 0
	blr
	.cfi_endproc
.LFE1148:
	.size	_ZN7sigslot15single_threadedD2Ev, .-_ZN7sigslot15single_threadedD2Ev
	.section	.text._ZN7sigslot15single_threaded4lockEv,"axG",@progbits,_ZN7sigslot15single_threaded4lockEv,comdat
	.align 2
	.weak	_ZN7sigslot15single_threaded4lockEv
	.type	_ZN7sigslot15single_threaded4lockEv, @function
_ZN7sigslot15single_threaded4lockEv:
.LFB1151:
	.loc 1 109 0
	.cfi_startproc
.LVL1:
	.loc 1 112 0
	blr
	.cfi_endproc
.LFE1151:
	.size	_ZN7sigslot15single_threaded4lockEv, .-_ZN7sigslot15single_threaded4lockEv
	.section	.text._ZN7sigslot15single_threaded6unlockEv,"axG",@progbits,_ZN7sigslot15single_threaded6unlockEv,comdat
	.align 2
	.weak	_ZN7sigslot15single_threaded6unlockEv
	.type	_ZN7sigslot15single_threaded6unlockEv, @function
_ZN7sigslot15single_threaded6unlockEv:
.LFB1152:
	.loc 1 114 0
	.cfi_startproc
.LVL2:
	.loc 1 117 0
	blr
	.cfi_endproc
.LFE1152:
	.size	_ZN7sigslot15single_threaded6unlockEv, .-_ZN7sigslot15single_threaded6unlockEv
	.section	.text._ZN10GuiElement9SetParentEPS_,"axG",@progbits,_ZN10GuiElement9SetParentEPS_,comdat
	.align 2
	.weak	_ZN10GuiElement9SetParentEPS_
	.type	_ZN10GuiElement9SetParentEPS_, @function
_ZN10GuiElement9SetParentEPS_:
.LFB1384:
	.file 2 "d:/Projects/SaveGameManager/savegame-manager-gx/trunk/source/Files/../GUI/gui_element.h"
	.loc 2 92 0
	.cfi_startproc
.LVL3:
	.loc 2 92 0
	stw 4,96(3)
	blr
	.cfi_endproc
.LFE1384:
	.size	_ZN10GuiElement9SetParentEPS_, .-_ZN10GuiElement9SetParentEPS_
	.section	.text._ZN10GuiElement9GetParentEv,"axG",@progbits,_ZN10GuiElement9GetParentEv,comdat
	.align 2
	.weak	_ZN10GuiElement9GetParentEv
	.type	_ZN10GuiElement9GetParentEv, @function
_ZN10GuiElement9GetParentEv:
.LFB1385:
	.loc 2 95 0
	.cfi_startproc
.LVL4:
	.loc 2 95 0
	lwz 3,96(3)
.LVL5:
	blr
	.cfi_endproc
.LFE1385:
	.size	_ZN10GuiElement9GetParentEv, .-_ZN10GuiElement9GetParentEv
	.section	.text._ZN10GuiElement12GetZPositionEv,"axG",@progbits,_ZN10GuiElement12GetZPositionEv,comdat
	.align 2
	.weak	_ZN10GuiElement12GetZPositionEv
	.type	_ZN10GuiElement12GetZPositionEv, @function
_ZN10GuiElement12GetZPositionEv:
.LFB1386:
	.loc 2 106 0
	.cfi_startproc
.LVL6:
	mflr 0
	stwu 1,-16(1)
.LCFI0:
	.cfi_def_cfa_offset 16
	.cfi_register 65, 0
	stw 31,12(1)
	mr 31,3
	.cfi_offset 31, -4
	stw 0,20(1)
.LBB5103:
	.loc 2 110 0
	lwz 11,96(3)
	.loc 2 108 0
	li 3,0
.LVL7:
	.loc 2 110 0
	cmpwi 7,11,0
	beq- 7,.L8
	.cfi_offset 65, 4
	.loc 2 111 0
	lwz 9,0(11)
	mr 3,11
	lwz 0,24(9)
	mtctr 0
	bctrl
.LVL8:
.L8:
	.loc 2 113 0
	lwz 0,52(31)
.LBE5103:
	.loc 2 114 0
	lwz 31,12(1)
.LVL9:
	add 3,3,0
.LVL10:
	lwz 0,20(1)
	addi 1,1,16
.LCFI1:
	.cfi_def_cfa_offset 0
	.cfi_restore 31
	mtlr 0
	blr
	.cfi_endproc
.LFE1386:
	.size	_ZN10GuiElement12GetZPositionEv, .-_ZN10GuiElement12GetZPositionEv
	.section	.text._ZN10GuiElement10GetLeftPosEv,"axG",@progbits,_ZN10GuiElement10GetLeftPosEv,comdat
	.align 2
	.weak	_ZN10GuiElement10GetLeftPosEv
	.type	_ZN10GuiElement10GetLeftPosEv, @function
_ZN10GuiElement10GetLeftPosEv:
.LFB1387:
	.loc 2 116 0
	.cfi_startproc
.LVL11:
	.loc 2 116 0
	lwz 3,44(3)
.LVL12:
	blr
	.cfi_endproc
.LFE1387:
	.size	_ZN10GuiElement10GetLeftPosEv, .-_ZN10GuiElement10GetLeftPosEv
	.section	.text._ZN10GuiElement9GetTopPosEv,"axG",@progbits,_ZN10GuiElement9GetTopPosEv,comdat
	.align 2
	.weak	_ZN10GuiElement9GetTopPosEv
	.type	_ZN10GuiElement9GetTopPosEv, @function
_ZN10GuiElement9GetTopPosEv:
.LFB1388:
	.loc 2 118 0
	.cfi_startproc
.LVL13:
	.loc 2 118 0
	lwz 3,48(3)
.LVL14:
	blr
	.cfi_endproc
.LFE1388:
	.size	_ZN10GuiElement9GetTopPosEv, .-_ZN10GuiElement9GetTopPosEv
	.section	.text._ZN10GuiElement8GetWidthEv,"axG",@progbits,_ZN10GuiElement8GetWidthEv,comdat
	.align 2
	.weak	_ZN10GuiElement8GetWidthEv
	.type	_ZN10GuiElement8GetWidthEv, @function
_ZN10GuiElement8GetWidthEv:
.LFB1389:
	.loc 2 121 0
	.cfi_startproc
.LVL15:
	.loc 2 121 0
	lwz 3,36(3)
.LVL16:
	blr
	.cfi_endproc
.LFE1389:
	.size	_ZN10GuiElement8GetWidthEv, .-_ZN10GuiElement8GetWidthEv
	.section	.text._ZN10GuiElement9GetHeightEv,"axG",@progbits,_ZN10GuiElement9GetHeightEv,comdat
	.align 2
	.weak	_ZN10GuiElement9GetHeightEv
	.type	_ZN10GuiElement9GetHeightEv, @function
_ZN10GuiElement9GetHeightEv:
.LFB1390:
	.loc 2 124 0
	.cfi_startproc
.LVL17:
	.loc 2 124 0
	lwz 3,40(3)
.LVL18:
	blr
	.cfi_endproc
.LFE1390:
	.size	_ZN10GuiElement9GetHeightEv, .-_ZN10GuiElement9GetHeightEv
	.section	.text._ZN10GuiElement7SetSizeEii,"axG",@progbits,_ZN10GuiElement7SetSizeEii,comdat
	.align 2
	.weak	_ZN10GuiElement7SetSizeEii
	.type	_ZN10GuiElement7SetSizeEii, @function
_ZN10GuiElement7SetSizeEii:
.LFB1391:
	.loc 2 128 0
	.cfi_startproc
.LVL19:
	.loc 2 130 0
	stw 4,36(3)
	.loc 2 132 0
	.loc 2 131 0
	stw 5,40(3)
	.loc 2 132 0
	blr
	.cfi_endproc
.LFE1391:
	.size	_ZN10GuiElement7SetSizeEii, .-_ZN10GuiElement7SetSizeEii
	.section	.text._ZN10GuiElement10SetVisibleEb,"axG",@progbits,_ZN10GuiElement10SetVisibleEb,comdat
	.align 2
	.weak	_ZN10GuiElement10SetVisibleEb
	.type	_ZN10GuiElement10SetVisibleEb, @function
_ZN10GuiElement10SetVisibleEb:
.LFB1392:
	.loc 2 135 0
	.cfi_startproc
	.cfi_personality 0,__gxx_personality_v0
	.cfi_lsda 0,.LLSDA1392
.LVL20:
	mflr 0
	stwu 1,-32(1)
.LCFI2:
	.cfi_def_cfa_offset 32
	.cfi_register 65, 0
	stw 27,12(1)
.LBB5104:
.LBB5105:
	.loc 1 2270 0
	addi 27,3,4
	.cfi_offset 27, -20
.LBE5105:
.LBE5104:
	.loc 2 135 0
	stw 0,36(1)
	stw 30,24(1)
	mr 30,3
	.cfi_offset 30, -8
	.cfi_offset 65, 4
.LBB5128:
.LBB5122:
.LBB5106:
.LBB5107:
	.loc 1 338 0
	lwz 9,4(3)
	mr 3,27
.LVL21:
.LBE5107:
.LBE5106:
.LBE5122:
.LBE5128:
	.loc 2 135 0
	stw 28,16(1)
	mr 28,4
	.cfi_offset 28, -16
.LBB5129:
.LBB5123:
.LBB5111:
.LBB5108:
	.loc 1 338 0
	lwz 0,8(9)
.LBE5108:
.LBE5111:
.LBE5123:
.LBE5129:
	.loc 2 135 0
	stw 29,20(1)
.LBB5130:
	.file 3 "d:/Projects/SaveGameManager/savegame-manager-gx/trunk/source/Files/IconFileBrowser.cpp"
	.loc 3 522 0
	mr 29,30
	.cfi_offset 29, -12
.LBE5130:
	.loc 2 135 0
	stw 31,28(1)
.LBB5131:
.LBB5124:
.LBB5112:
.LBB5109:
	.loc 1 338 0
	mtctr 0
.LBE5109:
.LBE5112:
.LBE5124:
.LBE5131:
	.loc 2 137 0
	stb 4,29(30)
.LVL22:
.LEHB0:
.LBB5132:
.LBB5125:
.LBB5113:
.LBB5110:
	.loc 1 338 0
	.cfi_offset 31, -4
	bctrl
.LEHE0:
.LVL23:
.LBE5110:
.LBE5113:
.LBE5125:
	.loc 3 522 0
	lwzu 31,8(29)
.LVL24:
.LBB5126:
	.loc 1 2274 0
	cmpw 7,31,29
	beq- 7,.L17
.LVL25:
.L24:
	.loc 1 2279 0
	lwz 3,8(31)
	mr 4,30
	mr 5,28
.LBB5114:
.LBB5115:
	.file 4 "d:\\devkitpro\\devkitppc\\bin\\../lib/gcc/powerpc-eabi/4.6.3/../../../../powerpc-eabi/include/c++/4.6.3/bits/stl_list.h"
	.loc 4 234 0
	lwz 31,0(31)
.LVL26:
.LBE5115:
.LBE5114:
	.loc 1 2279 0
	lwz 9,0(3)
	lwz 0,12(9)
	mtctr 0
.LEHB1:
	bctrl
.LEHE1:
.LVL27:
	.loc 1 2274 0
	cmpw 7,29,31
	bne+ 7,.L24
.LVL28:
.L17:
.LBB5116:
.LBB5117:
.LBB5118:
	.loc 1 343 0
	lwz 9,4(30)
	mr 3,27
	lwz 0,12(9)
	mtctr 0
.LEHB2:
	bctrl
.LEHE2:
.LBE5118:
.LBE5117:
.LBE5116:
.LBE5126:
.LBE5132:
	.loc 2 139 0
	lwz 0,36(1)
	lwz 27,12(1)
.LVL29:
	mtlr 0
	lwz 28,16(1)
.LVL30:
	lwz 29,20(1)
	lwz 30,24(1)
.LVL31:
	lwz 31,28(1)
.LVL32:
	addi 1,1,32
	.cfi_remember_state
.LCFI3:
	.cfi_def_cfa_offset 0
	.cfi_restore 31
	.cfi_restore 30
	.cfi_restore 29
	.cfi_restore 28
	.cfi_restore 27
	blr
.LVL33:
.L23:
.LCFI4:
	.cfi_restore_state
.LBB5133:
.LBB5127:
.LBB5119:
.LBB5120:
.LBB5121:
	.loc 1 343 0
	lwz 9,4(30)
	mr 31,3
.LVL34:
	mr 3,27
	lwz 0,12(9)
	mtctr 0
	bctrl
	mr 3,31
.LEHB3:
	bl _Unwind_Resume
.LEHE3:
.LBE5121:
.LBE5120:
.LBE5119:
.LBE5127:
.LBE5133:
	.cfi_endproc
.LFE1392:
	.globl __gxx_personality_v0
	.section	.gcc_except_table,"a",@progbits
.LLSDA1392:
	.byte	0xff
	.byte	0xff
	.byte	0x1
	.uleb128 .LLSDACSE1392-.LLSDACSB1392
.LLSDACSB1392:
	.uleb128 .LEHB0-.LFB1392
	.uleb128 .LEHE0-.LEHB0
	.uleb128 0
	.uleb128 0
	.uleb128 .LEHB1-.LFB1392
	.uleb128 .LEHE1-.LEHB1
	.uleb128 .L23-.LFB1392
	.uleb128 0
	.uleb128 .LEHB2-.LFB1392
	.uleb128 .LEHE2-.LEHB2
	.uleb128 0
	.uleb128 0
	.uleb128 .LEHB3-.LFB1392
	.uleb128 .LEHE3-.LEHB3
	.uleb128 0
	.uleb128 0
.LLSDACSE1392:
	.section	.text._ZN10GuiElement10SetVisibleEb,"axG",@progbits,_ZN10GuiElement10SetVisibleEb,comdat
	.size	_ZN10GuiElement10SetVisibleEb, .-_ZN10GuiElement10SetVisibleEb
	.section	.text._ZN10GuiElement9IsVisibleEv,"axG",@progbits,_ZN10GuiElement9IsVisibleEv,comdat
	.align 2
	.weak	_ZN10GuiElement9IsVisibleEv
	.type	_ZN10GuiElement9IsVisibleEv, @function
_ZN10GuiElement9IsVisibleEv:
.LFB1393:
	.loc 2 142 0
	.cfi_startproc
.LVL35:
	.loc 2 142 0
	lbz 3,29(3)
.LVL36:
	blr
	.cfi_endproc
.LFE1393:
	.size	_ZN10GuiElement9IsVisibleEv, .-_ZN10GuiElement9IsVisibleEv
	.section	.text._ZN10GuiElement12IsSelectableEv,"axG",@progbits,_ZN10GuiElement12IsSelectableEv,comdat
	.align 2
	.weak	_ZN10GuiElement12IsSelectableEv
	.type	_ZN10GuiElement12IsSelectableEv, @function
_ZN10GuiElement12IsSelectableEv:
.LFB1394:
	.loc 2 145 0
	.cfi_startproc
.LVL37:
	.loc 2 149 0
	lwz 0,72(3)
	li 9,0
	cmpwi 7,0,4
	beq- 7,.L27
	.loc 2 149 0 is_stmt 0 discriminator 1
	cmpwi 7,0,2
	beq- 7,.L27
	.loc 2 149 0 discriminator 3
	lbz 9,30(3)
.L27:
	.loc 2 150 0 is_stmt 1 discriminator 5
	mr 3,9
.LVL38:
	blr
	.cfi_endproc
.LFE1394:
	.size	_ZN10GuiElement12IsSelectableEv, .-_ZN10GuiElement12IsSelectableEv
	.section	.text._ZN10GuiElement11IsClickableEv,"axG",@progbits,_ZN10GuiElement11IsClickableEv,comdat
	.align 2
	.weak	_ZN10GuiElement11IsClickableEv
	.type	_ZN10GuiElement11IsClickableEv, @function
_ZN10GuiElement11IsClickableEv:
.LFB1395:
	.loc 2 153 0
	.cfi_startproc
.LVL39:
	.loc 2 158 0
	lwz 0,72(3)
	li 9,0
	cmpwi 7,0,4
	beq- 7,.L31
	.loc 2 158 0 is_stmt 0 discriminator 1
	cmpwi 7,0,2
	beq- 7,.L31
	.loc 2 158 0 discriminator 3
	cmpwi 7,0,3
	beq- 7,.L31
	.loc 2 158 0 discriminator 4
	lbz 9,31(3)
.L31:
	.loc 2 159 0 is_stmt 1 discriminator 6
	mr 3,9
.LVL40:
	blr
	.cfi_endproc
.LFE1395:
	.size	_ZN10GuiElement11IsClickableEv, .-_ZN10GuiElement11IsClickableEv
	.section	.text._ZN10GuiElement10IsHoldableEv,"axG",@progbits,_ZN10GuiElement10IsHoldableEv,comdat
	.align 2
	.weak	_ZN10GuiElement10IsHoldableEv
	.type	_ZN10GuiElement10IsHoldableEv, @function
_ZN10GuiElement10IsHoldableEv:
.LFB1396:
	.loc 2 162 0
	.cfi_startproc
.LVL41:
	.loc 2 162 0
	lwz 9,72(3)
	li 0,0
	cmpwi 7,9,4
	beq- 7,.L36
	.loc 2 162 0 is_stmt 0 discriminator 1
	lbz 0,32(3)
.L36:
	.loc 2 162 0 discriminator 4
	mr 3,0
.LVL42:
	blr
	.cfi_endproc
.LFE1396:
	.size	_ZN10GuiElement10IsHoldableEv, .-_ZN10GuiElement10IsHoldableEv
	.section	.text._ZN10GuiElement13SetSelectableEb,"axG",@progbits,_ZN10GuiElement13SetSelectableEb,comdat
	.align 2
	.weak	_ZN10GuiElement13SetSelectableEb
	.type	_ZN10GuiElement13SetSelectableEb, @function
_ZN10GuiElement13SetSelectableEb:
.LFB1397:
	.loc 2 165 0 is_stmt 1
	.cfi_startproc
.LVL43:
	.loc 2 165 0
	stb 4,30(3)
	blr
	.cfi_endproc
.LFE1397:
	.size	_ZN10GuiElement13SetSelectableEb, .-_ZN10GuiElement13SetSelectableEb
	.section	.text._ZN10GuiElement12SetClickableEb,"axG",@progbits,_ZN10GuiElement12SetClickableEb,comdat
	.align 2
	.weak	_ZN10GuiElement12SetClickableEb
	.type	_ZN10GuiElement12SetClickableEb, @function
_ZN10GuiElement12SetClickableEb:
.LFB1398:
	.loc 2 168 0
	.cfi_startproc
.LVL44:
	.loc 2 168 0
	stb 4,31(3)
	blr
	.cfi_endproc
.LFE1398:
	.size	_ZN10GuiElement12SetClickableEb, .-_ZN10GuiElement12SetClickableEb
	.section	.text._ZN10GuiElement11SetHoldableEb,"axG",@progbits,_ZN10GuiElement11SetHoldableEb,comdat
	.align 2
	.weak	_ZN10GuiElement11SetHoldableEb
	.type	_ZN10GuiElement11SetHoldableEb, @function
_ZN10GuiElement11SetHoldableEb:
.LFB1399:
	.loc 2 171 0
	.cfi_startproc
.LVL45:
	.loc 2 171 0
	stb 4,32(3)
	blr
	.cfi_endproc
.LFE1399:
	.size	_ZN10GuiElement11SetHoldableEb, .-_ZN10GuiElement11SetHoldableEb
	.section	.text._ZN10GuiElement8GetStateEv,"axG",@progbits,_ZN10GuiElement8GetStateEv,comdat
	.align 2
	.weak	_ZN10GuiElement8GetStateEv
	.type	_ZN10GuiElement8GetStateEv, @function
_ZN10GuiElement8GetStateEv:
.LFB1400:
	.loc 2 178 0
	.cfi_startproc
.LVL46:
	.loc 2 178 0
	lwz 3,72(3)
.LVL47:
	blr
	.cfi_endproc
.LFE1400:
	.size	_ZN10GuiElement8GetStateEv, .-_ZN10GuiElement8GetStateEv
	.section	.text._ZN10GuiElement12GetStateChanEv,"axG",@progbits,_ZN10GuiElement12GetStateChanEv,comdat
	.align 2
	.weak	_ZN10GuiElement12GetStateChanEv
	.type	_ZN10GuiElement12GetStateChanEv, @function
_ZN10GuiElement12GetStateChanEv:
.LFB1401:
	.loc 2 181 0
	.cfi_startproc
.LVL48:
	.loc 2 181 0
	lwz 3,76(3)
.LVL49:
	blr
	.cfi_endproc
.LFE1401:
	.size	_ZN10GuiElement12GetStateChanEv, .-_ZN10GuiElement12GetStateChanEv
	.section	.text._ZN10GuiElement8SetAlphaEi,"axG",@progbits,_ZN10GuiElement8SetAlphaEi,comdat
	.align 2
	.weak	_ZN10GuiElement8SetAlphaEi
	.type	_ZN10GuiElement8SetAlphaEi, @function
_ZN10GuiElement8SetAlphaEi:
.LFB1403:
	.loc 2 190 0
	.cfi_startproc
.LVL50:
	.loc 2 190 0
	stw 4,56(3)
	blr
	.cfi_endproc
.LFE1403:
	.size	_ZN10GuiElement8SetAlphaEi, .-_ZN10GuiElement8SetAlphaEi
	.section	.text._ZN10GuiElement8GetAlphaEv,"axG",@progbits,_ZN10GuiElement8GetAlphaEv,comdat
	.align 2
	.weak	_ZN10GuiElement8GetAlphaEv
	.type	_ZN10GuiElement8GetAlphaEv, @function
_ZN10GuiElement8GetAlphaEv:
.LFB1404:
	.loc 2 194 0
	.cfi_startproc
.LVL51:
	mflr 0
	stwu 1,-40(1)
.LCFI5:
	.cfi_def_cfa_offset 40
	.cfi_register 65, 0
	stw 31,36(1)
	stw 0,44(1)
.LBB5134:
	.loc 2 198 0
	lwz 31,108(3)
	.cfi_offset 65, 4
	.cfi_offset 31, -4
	cmpwi 7,31,0
	blt- 7,.L47
.L45:
.LVL52:
	.loc 2 203 0
	lwz 3,96(3)
.LVL53:
	cmpwi 7,3,0
	beq- 7,.L46
	.loc 2 204 0
	lwz 9,0(3)
	xoris 31,31,0x8000
.LVL54:
	lwz 0,100(9)
	mtctr 0
	bctrl
	lis 0,0x4330
	xoris 3,3,0x8000
	stw 0,16(1)
	stw 3,20(1)
	lis 9,.LC1@ha
	lfs 0,.LC1@l(9)
	lis 9,.LC2@ha
	lfd 13,16(1)
	lfs 12,.LC2@l(9)
	addi 9,1,24
	fsub 13,13,0
	stw 31,12(1)
	stw 0,8(1)
	frsp 13,13
	fdivs 13,13,12
	lfd 12,8(1)
	fsub 0,12,0
	frsp 0,0
	fmuls 0,0,13
	fctiwz 0,0
	stfiwx 0,0,9
	lwz 31,24(1)
.LVL55:
.L46:
.LBE5134:
	.loc 2 207 0
	lwz 0,44(1)
	mr 3,31
	lwz 31,36(1)
.LVL56:
	mtlr 0
	addi 1,1,40
	.cfi_remember_state
.LCFI6:
	.cfi_def_cfa_offset 0
	.cfi_restore 31
	blr
.LVL57:
.L47:
.LCFI7:
	.cfi_restore_state
.LBB5135:
	.loc 2 201 0
	lwz 31,56(3)
.LVL58:
	b .L45
.LBE5135:
	.cfi_endproc
.LFE1404:
	.size	_ZN10GuiElement8GetAlphaEv, .-_ZN10GuiElement8GetAlphaEv
	.section	.text._ZN10GuiElement8SetScaleEf,"axG",@progbits,_ZN10GuiElement8SetScaleEf,comdat
	.align 2
	.weak	_ZN10GuiElement8SetScaleEf
	.type	_ZN10GuiElement8SetScaleEf, @function
_ZN10GuiElement8SetScaleEf:
.LFB1405:
	.loc 2 210 0
	.cfi_startproc
.LVL59:
	.loc 2 212 0
	stfs 1,60(3)
	.loc 2 214 0
	.loc 2 213 0
	stfs 1,64(3)
	.loc 2 214 0
	blr
	.cfi_endproc
.LFE1405:
	.size	_ZN10GuiElement8SetScaleEf, .-_ZN10GuiElement8SetScaleEf
	.section	.text._ZN10GuiElement9SetScaleXEf,"axG",@progbits,_ZN10GuiElement9SetScaleXEf,comdat
	.align 2
	.weak	_ZN10GuiElement9SetScaleXEf
	.type	_ZN10GuiElement9SetScaleXEf, @function
_ZN10GuiElement9SetScaleXEf:
.LFB1406:
	.loc 2 217 0
	.cfi_startproc
.LVL60:
	.loc 2 217 0
	stfs 1,60(3)
	blr
	.cfi_endproc
.LFE1406:
	.size	_ZN10GuiElement9SetScaleXEf, .-_ZN10GuiElement9SetScaleXEf
	.section	.text._ZN10GuiElement9SetScaleYEf,"axG",@progbits,_ZN10GuiElement9SetScaleYEf,comdat
	.align 2
	.weak	_ZN10GuiElement9SetScaleYEf
	.type	_ZN10GuiElement9SetScaleYEf, @function
_ZN10GuiElement9SetScaleYEf:
.LFB1407:
	.loc 2 220 0
	.cfi_startproc
.LVL61:
	.loc 2 220 0
	stfs 1,64(3)
	blr
	.cfi_endproc
.LFE1407:
	.size	_ZN10GuiElement9SetScaleYEf, .-_ZN10GuiElement9SetScaleYEf
	.section	.text._ZN10GuiElement8GetScaleEv,"axG",@progbits,_ZN10GuiElement8GetScaleEv,comdat
	.align 2
	.weak	_ZN10GuiElement8GetScaleEv
	.type	_ZN10GuiElement8GetScaleEv, @function
_ZN10GuiElement8GetScaleEv:
.LFB1408:
	.loc 2 223 0
	.cfi_startproc
.LVL62:
	mflr 0
	stwu 1,-16(1)
.LCFI8:
	.cfi_def_cfa_offset 16
	.cfi_register 65, 0
.LBB5136:
	.loc 2 225 0
	lis 9,.LC3@ha
.LBE5136:
	.loc 2 223 0
	stfd 31,8(1)
	stw 0,20(1)
.LBB5137:
	.loc 2 225 0
	lfs 0,64(3)
	lfs 31,60(3)
	.cfi_offset 65, 4
	.cfi_offset 63, -8
	.loc 2 227 0
	lwz 11,96(3)
	.loc 2 225 0
	fadds 31,31,0
	lfs 0,.LC3@l(9)
	.loc 2 227 0
	cmpwi 7,11,0
	.loc 2 225 0
	fmuls 31,31,0
	lfs 0,112(3)
	fmuls 31,31,0
.LVL63:
	.loc 2 227 0
	beq- 7,.L52
	.loc 2 228 0
	lwz 9,0(11)
	mr 3,11
.LVL64:
	lwz 0,116(9)
	mtctr 0
	bctrl
	fmuls 31,31,1
.LVL65:
.L52:
.LBE5137:
	.loc 2 231 0
	lwz 0,20(1)
	fmr 1,31
	lfd 31,8(1)
.LVL66:
	mtlr 0
	addi 1,1,16
.LCFI9:
	.cfi_def_cfa_offset 0
	.cfi_restore 63
	blr
	.cfi_endproc
.LFE1408:
	.size	_ZN10GuiElement8GetScaleEv, .-_ZN10GuiElement8GetScaleEv
	.section	.text._ZN10GuiElement9GetScaleXEv,"axG",@progbits,_ZN10GuiElement9GetScaleXEv,comdat
	.align 2
	.weak	_ZN10GuiElement9GetScaleXEv
	.type	_ZN10GuiElement9GetScaleXEv, @function
_ZN10GuiElement9GetScaleXEv:
.LFB1409:
	.loc 2 234 0
	.cfi_startproc
.LVL67:
	mflr 0
	stwu 1,-16(1)
.LCFI10:
	.cfi_def_cfa_offset 16
	.cfi_register 65, 0
	stfd 31,8(1)
	stw 0,20(1)
.LBB5138:
	.loc 2 238 0
	lwz 11,96(3)
	.loc 2 236 0
	lfs 31,60(3)
	.cfi_offset 65, 4
	.cfi_offset 63, -8
	.loc 2 238 0
	cmpwi 7,11,0
	.loc 2 236 0
	lfs 0,112(3)
	fmuls 31,31,0
.LVL68:
	.loc 2 238 0
	beq- 7,.L54
	.loc 2 239 0
	lwz 9,0(11)
	mr 3,11
.LVL69:
	lwz 0,120(9)
	mtctr 0
	bctrl
	fmuls 31,31,1
.LVL70:
.L54:
.LBE5138:
	.loc 2 242 0
	lwz 0,20(1)
	fmr 1,31
	lfd 31,8(1)
.LVL71:
	mtlr 0
	addi 1,1,16
.LCFI11:
	.cfi_def_cfa_offset 0
	.cfi_restore 63
	blr
	.cfi_endproc
.LFE1409:
	.size	_ZN10GuiElement9GetScaleXEv, .-_ZN10GuiElement9GetScaleXEv
	.section	.text._ZN10GuiElement9GetScaleYEv,"axG",@progbits,_ZN10GuiElement9GetScaleYEv,comdat
	.align 2
	.weak	_ZN10GuiElement9GetScaleYEv
	.type	_ZN10GuiElement9GetScaleYEv, @function
_ZN10GuiElement9GetScaleYEv:
.LFB1410:
	.loc 2 245 0
	.cfi_startproc
.LVL72:
	mflr 0
	stwu 1,-16(1)
.LCFI12:
	.cfi_def_cfa_offset 16
	.cfi_register 65, 0
	stfd 31,8(1)
	stw 0,20(1)
.LBB5139:
	.loc 2 249 0
	lwz 11,96(3)
	.loc 2 247 0
	lfs 31,64(3)
	.cfi_offset 65, 4
	.cfi_offset 63, -8
	.loc 2 249 0
	cmpwi 7,11,0
	.loc 2 247 0
	lfs 0,112(3)
	fmuls 31,31,0
.LVL73:
	.loc 2 249 0
	beq- 7,.L56
	.loc 2 250 0
	lwz 9,0(11)
	mr 3,11
.LVL74:
	lwz 0,124(9)
	mtctr 0
	bctrl
	fmuls 31,31,1
.LVL75:
.L56:
.LBE5139:
	.loc 2 253 0
	lwz 0,20(1)
	fmr 1,31
	lfd 31,8(1)
.LVL76:
	mtlr 0
	addi 1,1,16
.LCFI13:
	.cfi_def_cfa_offset 0
	.cfi_restore 63
	blr
	.cfi_endproc
.LFE1410:
	.size	_ZN10GuiElement9GetScaleYEv, .-_ZN10GuiElement9GetScaleYEv
	.section	.text._ZN10GuiElement6RumbleEv,"axG",@progbits,_ZN10GuiElement6RumbleEv,comdat
	.align 2
	.weak	_ZN10GuiElement6RumbleEv
	.type	_ZN10GuiElement6RumbleEv, @function
_ZN10GuiElement6RumbleEv:
.LFB1411:
	.loc 2 256 0
	.cfi_startproc
.LVL77:
	.loc 2 256 0
	lbz 3,28(3)
.LVL78:
	blr
	.cfi_endproc
.LFE1411:
	.size	_ZN10GuiElement6RumbleEv, .-_ZN10GuiElement6RumbleEv
	.section	.text._ZN10GuiElement9SetRumbleEb,"axG",@progbits,_ZN10GuiElement9SetRumbleEb,comdat
	.align 2
	.weak	_ZN10GuiElement9SetRumbleEb
	.type	_ZN10GuiElement9SetRumbleEb, @function
_ZN10GuiElement9SetRumbleEb:
.LFB1412:
	.loc 2 259 0
	.cfi_startproc
.LVL79:
	.loc 2 259 0
	stb 4,28(3)
	blr
	.cfi_endproc
.LFE1412:
	.size	_ZN10GuiElement9SetRumbleEb, .-_ZN10GuiElement9SetRumbleEb
	.section	.text._ZN10GuiElement13SetEffectGrowEv,"axG",@progbits,_ZN10GuiElement13SetEffectGrowEv,comdat
	.align 2
	.weak	_ZN10GuiElement13SetEffectGrowEv
	.type	_ZN10GuiElement13SetEffectGrowEv, @function
_ZN10GuiElement13SetEffectGrowEv:
.LFB1413:
	.loc 2 271 0
	.cfi_startproc
.LVL80:
	mflr 0
	stwu 1,-8(1)
.LCFI14:
	.cfi_def_cfa_offset 8
	.cfi_register 65, 0
	lwz 9,0(3)
	li 4,256
	li 5,4
	li 6,110
	stw 0,12(1)
	.loc 2 271 0
	lwz 0,140(9)
	.cfi_offset 65, 4
	mtctr 0
	bctrl
.LVL81:
	lwz 0,12(1)
	addi 1,1,8
.LCFI15:
	.cfi_def_cfa_offset 0
	mtlr 0
	blr
	.cfi_endproc
.LFE1413:
	.size	_ZN10GuiElement13SetEffectGrowEv, .-_ZN10GuiElement13SetEffectGrowEv
	.section	.text._ZNK10GuiElement9GetEffectEv,"axG",@progbits,_ZNK10GuiElement9GetEffectEv,comdat
	.align 2
	.weak	_ZNK10GuiElement9GetEffectEv
	.type	_ZNK10GuiElement9GetEffectEv, @function
_ZNK10GuiElement9GetEffectEv:
.LFB1414:
	.loc 2 276 0
	.cfi_startproc
.LVL82:
	.loc 2 276 0
	lwz 3,120(3)
.LVL83:
	blr
	.cfi_endproc
.LFE1414:
	.size	_ZNK10GuiElement9GetEffectEv, .-_ZNK10GuiElement9GetEffectEv
	.section	.text._ZNK10GuiElement10IsAnimatedEv,"axG",@progbits,_ZNK10GuiElement10IsAnimatedEv,comdat
	.align 2
	.weak	_ZNK10GuiElement10IsAnimatedEv
	.type	_ZNK10GuiElement10IsAnimatedEv, @function
_ZNK10GuiElement10IsAnimatedEv:
.LFB1415:
	.loc 2 278 0
	.cfi_startproc
.LVL84:
	mflr 0
	stwu 1,-8(1)
.LCFI16:
	.cfi_def_cfa_offset 8
	.cfi_register 65, 0
	stw 0,12(1)
	.loc 2 278 0
	lwz 9,0(3)
	lwz 0,152(9)
	.cfi_offset 65, 4
	mtctr 0
	bctrl
.LVL85:
	srawi 0,3,31
	subf 3,3,0
	lwz 0,12(1)
	srwi 3,3,31
	mtlr 0
	addi 1,1,8
.LCFI17:
	.cfi_def_cfa_offset 0
	blr
	.cfi_endproc
.LFE1415:
	.size	_ZNK10GuiElement10IsAnimatedEv, .-_ZNK10GuiElement10IsAnimatedEv
	.section	.text._ZN10GuiElement9SetBoundsE4RectIiE,"axG",@progbits,_ZN10GuiElement9SetBoundsE4RectIiE,comdat
	.align 2
	.weak	_ZN10GuiElement9SetBoundsE4RectIiE
	.type	_ZN10GuiElement9SetBoundsE4RectIiE, @function
_ZN10GuiElement9SetBoundsE4RectIiE:
.LFB1416:
	.loc 2 280 0
	.cfi_startproc
.LVL86:
.LBB5140:
.LBB5141:
	.file 5 "d:/Projects/SaveGameManager/savegame-manager-gx/trunk/source/Files/../GUI/../Tools/Rect.h"
	.loc 5 30 0
	lwz 10,0(4)
.LBE5141:
.LBE5140:
	.loc 2 280 0
.LBB5143:
.LBB5142:
	.loc 5 31 0
	lwz 11,8(4)
	.loc 5 32 0
	lwz 9,4(4)
	.loc 5 33 0
	lwz 0,12(4)
.LVL87:
	.loc 5 30 0
	stw 10,80(3)
	.loc 5 31 0
	stw 11,88(3)
	.loc 5 32 0
	stw 9,84(3)
	.loc 5 33 0
	stw 0,92(3)
.LBE5142:
.LBE5143:
	.loc 2 280 0
	blr
	.cfi_endproc
.LFE1416:
	.size	_ZN10GuiElement9SetBoundsE4RectIiE, .-_ZN10GuiElement9SetBoundsE4RectIiE
	.section	.text._ZN10GuiElement8IsInsideEii,"axG",@progbits,_ZN10GuiElement8IsInsideEii,comdat
	.align 2
	.weak	_ZN10GuiElement8IsInsideEii
	.type	_ZN10GuiElement8IsInsideEii, @function
_ZN10GuiElement8IsInsideEii:
.LFB1417:
	.loc 2 285 0
	.cfi_startproc
.LVL88:
	mflr 0
	stwu 1,-24(1)
.LCFI18:
	.cfi_def_cfa_offset 24
	.cfi_register 65, 0
	stw 28,8(1)
	mr 28,5
	.cfi_offset 28, -16
	stw 0,28(1)
	stw 29,12(1)
	.loc 2 290 0
	li 29,0
	.cfi_offset 29, -12
	.cfi_offset 65, 4
	.loc 2 287 0
	lwz 9,0(3)
	.loc 2 285 0
	stw 30,16(1)
	mr 30,4
	.cfi_offset 30, -8
	.loc 2 287 0
	lwz 0,16(9)
	.loc 2 285 0
	stw 31,20(1)
	.loc 2 285 0
	mr 31,3
	.cfi_offset 31, -4
	.loc 2 287 0
	mtctr 0
	bctrl
.LVL89:
	.loc 2 290 0
	cmpw 7,3,30
	blt- 7,.L68
.L64:
	.loc 2 291 0 discriminator 6
	lwz 0,28(1)
	mr 3,29
	lwz 28,8(1)
.LVL90:
	mtlr 0
	lwz 29,12(1)
	lwz 30,16(1)
.LVL91:
	lwz 31,20(1)
.LVL92:
	addi 1,1,24
	.cfi_remember_state
.LCFI19:
	.cfi_def_cfa_offset 0
	.cfi_restore 31
	.cfi_restore 30
	.cfi_restore 29
	.cfi_restore 28
	blr
.LVL93:
.L68:
.LCFI20:
	.cfi_restore_state
	.loc 2 288 0 discriminator 1
	lwz 9,0(31)
	mr 3,31
	lwz 0,16(9)
	mtctr 0
	bctrl
	.loc 2 290 0 discriminator 1
	lwz 0,36(31)
	add 0,3,0
	cmpw 7,30,0
	bge+ 7,.L64
	.loc 2 289 0 discriminator 3
	lwz 9,0(31)
	mr 3,31
	lwz 0,20(9)
	mtctr 0
	bctrl
	.loc 2 290 0 discriminator 3
	cmpw 7,3,28
	bge+ 7,.L64
	.loc 2 290 0 is_stmt 0 discriminator 4
	lwz 9,0(31)
	mr 3,31
	lwz 0,20(9)
	mtctr 0
	bctrl
	lwz 0,40(31)
	add 0,3,0
	.loc 2 285 0 is_stmt 1 discriminator 4
	cmpw 7,28,0
	mfcr 29
	rlwinm 29,29,29,1
	b .L64
	.cfi_endproc
.LFE1417:
	.size	_ZN10GuiElement8IsInsideEii, .-_ZN10GuiElement8IsInsideEii
	.section	.text._ZN10GuiElement11SetPositionEii,"axG",@progbits,_ZN10GuiElement11SetPositionEii,comdat
	.align 2
	.weak	_ZN10GuiElement11SetPositionEii
	.type	_ZN10GuiElement11SetPositionEii, @function
_ZN10GuiElement11SetPositionEii:
.LFB1418:
	.loc 2 295 0
	.cfi_startproc
.LVL94:
	.loc 2 297 0
	stw 4,44(3)
	.loc 2 299 0
	.loc 2 298 0
	stw 5,48(3)
	.loc 2 299 0
	blr
	.cfi_endproc
.LFE1418:
	.size	_ZN10GuiElement11SetPositionEii, .-_ZN10GuiElement11SetPositionEii
	.section	.text._ZN10GuiElement11SetPositionEiii,"axG",@progbits,_ZN10GuiElement11SetPositionEiii,comdat
	.align 2
	.weak	_ZN10GuiElement11SetPositionEiii
	.type	_ZN10GuiElement11SetPositionEiii, @function
_ZN10GuiElement11SetPositionEiii:
.LFB1419:
	.loc 2 304 0
	.cfi_startproc
.LVL95:
	.loc 2 306 0
	stw 4,44(3)
	.loc 2 309 0
	.loc 2 307 0
	stw 5,48(3)
	.loc 2 308 0
	stw 6,52(3)
	.loc 2 309 0
	blr
	.cfi_endproc
.LFE1419:
	.size	_ZN10GuiElement11SetPositionEiii, .-_ZN10GuiElement11SetPositionEiii
	.section	.text._ZN10GuiElement11GetSelectedEv,"axG",@progbits,_ZN10GuiElement11GetSelectedEv,comdat
	.align 2
	.weak	_ZN10GuiElement11GetSelectedEv
	.type	_ZN10GuiElement11GetSelectedEv, @function
_ZN10GuiElement11GetSelectedEv:
.LFB1420:
	.loc 2 312 0
	.cfi_startproc
.LVL96:
	.loc 2 312 0
	li 3,-1
.LVL97:
	blr
	.cfi_endproc
.LFE1420:
	.size	_ZN10GuiElement11GetSelectedEv, .-_ZN10GuiElement11GetSelectedEv
	.section	.text._ZN10GuiElement12SetAlignmentEi,"axG",@progbits,_ZN10GuiElement12SetAlignmentEi,comdat
	.align 2
	.weak	_ZN10GuiElement12SetAlignmentEi
	.type	_ZN10GuiElement12SetAlignmentEi, @function
_ZN10GuiElement12SetAlignmentEi:
.LFB1421:
	.loc 2 316 0
	.cfi_startproc
.LVL98:
	.loc 2 316 0
	stw 4,68(3)
	blr
	.cfi_endproc
.LFE1421:
	.size	_ZN10GuiElement12SetAlignmentEi, .-_ZN10GuiElement12SetAlignmentEi
	.section	.text._ZNK10GuiElement12GetAlignmentEv,"axG",@progbits,_ZNK10GuiElement12GetAlignmentEv,comdat
	.align 2
	.weak	_ZNK10GuiElement12GetAlignmentEv
	.type	_ZNK10GuiElement12GetAlignmentEv, @function
_ZNK10GuiElement12GetAlignmentEv:
.LFB1422:
	.loc 2 318 0
	.cfi_startproc
.LVL99:
	.loc 2 318 0
	lwz 3,68(3)
.LVL100:
	blr
	.cfi_endproc
.LFE1422:
	.size	_ZNK10GuiElement12GetAlignmentEv, .-_ZNK10GuiElement12GetAlignmentEv
	.section	.text._ZN10GuiElement6UpdateEP10GuiTrigger,"axG",@progbits,_ZN10GuiElement6UpdateEP10GuiTrigger,comdat
	.align 2
	.weak	_ZN10GuiElement6UpdateEP10GuiTrigger
	.type	_ZN10GuiElement6UpdateEP10GuiTrigger, @function
_ZN10GuiElement6UpdateEP10GuiTrigger:
.LFB1423:
	.loc 2 321 0
	.cfi_startproc
.LVL101:
	.loc 2 321 0
	blr
	.cfi_endproc
.LFE1423:
	.size	_ZN10GuiElement6UpdateEP10GuiTrigger, .-_ZN10GuiElement6UpdateEP10GuiTrigger
	.section	.text._ZN10GuiElement4DrawEv,"axG",@progbits,_ZN10GuiElement4DrawEv,comdat
	.align 2
	.weak	_ZN10GuiElement4DrawEv
	.type	_ZN10GuiElement4DrawEv, @function
_ZN10GuiElement4DrawEv:
.LFB1424:
	.loc 2 323 0
	.cfi_startproc
.LVL102:
	.loc 2 323 0
	blr
	.cfi_endproc
.LFE1424:
	.size	_ZN10GuiElement4DrawEv, .-_ZN10GuiElement4DrawEv
	.section	.text._ZN14GuiFileBrowser10SetBrowserEP7Browser,"axG",@progbits,_ZN14GuiFileBrowser10SetBrowserEP7Browser,comdat
	.align 2
	.weak	_ZN14GuiFileBrowser10SetBrowserEP7Browser
	.type	_ZN14GuiFileBrowser10SetBrowserEP7Browser, @function
_ZN14GuiFileBrowser10SetBrowserEP7Browser:
.LFB1467:
	.file 6 "d:/Projects/SaveGameManager/savegame-manager-gx/trunk/source/Files/GuiFileBrowser.hpp"
	.loc 6 38 0
	.cfi_startproc
.LVL103:
	mflr 0
	stwu 1,-8(1)
.LCFI21:
	.cfi_def_cfa_offset 8
	.cfi_register 65, 0
	stw 4,156(3)
	lwz 9,0(3)
	stw 0,12(1)
	.loc 6 38 0
	lwz 0,204(9)
	.cfi_offset 65, 4
	mtctr 0
	bctrl
.LVL104:
	lwz 0,12(1)
	addi 1,1,8
.LCFI22:
	.cfi_def_cfa_offset 0
	mtlr 0
	blr
	.cfi_endproc
.LFE1467:
	.size	_ZN14GuiFileBrowser10SetBrowserEP7Browser, .-_ZN14GuiFileBrowser10SetBrowserEP7Browser
	.section	.text._ZN14GuiFileBrowser7RefreshEv,"axG",@progbits,_ZN14GuiFileBrowser7RefreshEv,comdat
	.align 2
	.weak	_ZN14GuiFileBrowser7RefreshEv
	.type	_ZN14GuiFileBrowser7RefreshEv, @function
_ZN14GuiFileBrowser7RefreshEv:
.LFB1468:
	.loc 6 39 0
	.cfi_startproc
.LVL105:
	.loc 6 39 0
	blr
	.cfi_endproc
.LFE1468:
	.size	_ZN14GuiFileBrowser7RefreshEv, .-_ZN14GuiFileBrowser7RefreshEv
	.section	.text._ZN14GuiFileBrowser11SetSelectedEi,"axG",@progbits,_ZN14GuiFileBrowser11SetSelectedEi,comdat
	.align 2
	.weak	_ZN14GuiFileBrowser11SetSelectedEi
	.type	_ZN14GuiFileBrowser11SetSelectedEi, @function
_ZN14GuiFileBrowser11SetSelectedEi:
.LFB1469:
	.loc 6 40 0
	.cfi_startproc
.LVL106:
	.loc 6 40 0
	blr
	.cfi_endproc
.LFE1469:
	.size	_ZN14GuiFileBrowser11SetSelectedEi, .-_ZN14GuiFileBrowser11SetSelectedEi
	.section	".text"
	.align 2
	.globl _ZN15IconFileBrowser15OnButtonClickedEP9GuiButtoniRK6_POINT
	.type	_ZN15IconFileBrowser15OnButtonClickedEP9GuiButtoniRK6_POINT, @function
_ZN15IconFileBrowser15OnButtonClickedEP9GuiButtoniRK6_POINT:
.LFB1623:
	.loc 3 280 0
	.cfi_startproc
	.cfi_personality 0,__gxx_personality_v0
	.cfi_lsda 0,.LLSDA1623
.LVL107:
	mflr 0
	stwu 1,-32(1)
.LCFI23:
	.cfi_def_cfa_offset 32
	.cfi_register 65, 0
	stw 28,16(1)
	mr 28,3
	.cfi_offset 28, -16
	stw 0,36(1)
	stw 27,12(1)
.LBB5144:
	.loc 3 522 0
	lwz 9,248(3)
.LBB5145:
.LBB5146:
	.file 7 "d:\\devkitpro\\devkitppc\\bin\\../lib/gcc/powerpc-eabi/4.6.3/../../../../powerpc-eabi/include/c++/4.6.3/bits/stl_vector.h"
	.loc 7 571 0
	lwz 0,252(3)
	.cfi_offset 27, -20
	.cfi_offset 65, 4
.LBE5146:
.LBE5145:
.LBE5144:
	.loc 3 280 0
	stw 29,20(1)
.LBB5169:
.LBB5148:
.LBB5147:
	.loc 7 571 0
	subf 0,9,0
.LBE5147:
.LBE5148:
.LBE5169:
	.loc 3 280 0
	stw 30,24(1)
.LBB5170:
	.loc 3 281 0
	srawi. 0,0,2
.LBE5170:
	.loc 3 280 0
	stw 31,28(1)
.LBB5171:
	.loc 3 281 0
	beq- 0,.L79
	.cfi_offset 31, -4
	.cfi_offset 30, -8
	.cfi_offset 29, -12
.LVL108:
	.loc 3 283 0
	lwz 11,0(9)
	li 29,0
	.loc 3 281 0
	mtctr 0
	.loc 3 283 0
	cmpw 7,11,4
	bne+ 7,.L82
	b .L81
.LVL109:
.L87:
	slwi 0,29,2
	lwzx 0,9,0
	cmpw 7,0,4
	beq- 7,.L81
.LVL110:
.L82:
	.loc 3 281 0
	addi 29,29,1
.LVL111:
	bdnz .L87
.LVL112:
.L79:
.LBE5171:
	.loc 3 289 0
	lwz 0,36(1)
	lwz 27,12(1)
	mtlr 0
	lwz 28,16(1)
	lwz 29,20(1)
	lwz 30,24(1)
	lwz 31,28(1)
	addi 1,1,32
	.cfi_remember_state
.LCFI24:
	.cfi_def_cfa_offset 0
	.cfi_restore 31
	.cfi_restore 30
	.cfi_restore 29
	.cfi_restore 28
	.cfi_restore 27
	blr
.L81:
.LCFI25:
	.cfi_restore_state
.LVL113:
.LBB5172:
.LBB5149:
.LBB5150:
.LBB5151:
.LBB5152:
	.loc 1 338 0
	lwz 9,144(28)
.LBE5152:
.LBE5151:
	.loc 1 2203 0
	addi 27,28,144
.LVL114:
.LBB5155:
.LBB5153:
	.loc 1 338 0
	mr 3,27
.LVL115:
.LBE5153:
.LBE5155:
.LBE5150:
	.loc 3 522 0
	mr 30,28
.LBB5165:
.LBB5156:
.LBB5154:
	.loc 1 338 0
	lwz 0,8(9)
	mtctr 0
.LEHB4:
	bctrl
.LEHE4:
.LVL116:
.LBE5154:
.LBE5156:
.LBE5165:
	.loc 3 522 0
	lwzu 31,148(30)
.LVL117:
.LBB5166:
	.loc 1 2207 0
	cmpw 7,31,30
	beq- 7,.L83
.LVL118:
.L92:
	.loc 1 2212 0
	lwz 3,8(31)
	mr 4,29
.LBB5157:
.LBB5158:
	.loc 4 234 0
	lwz 31,0(31)
.LVL119:
.LBE5158:
.LBE5157:
	.loc 1 2212 0
	lwz 9,0(3)
	lwz 0,12(9)
	mtctr 0
.LEHB5:
	bctrl
.LEHE5:
.LVL120:
	.loc 1 2207 0
	cmpw 7,30,31
	bne+ 7,.L92
.LVL121:
.L83:
.LBB5159:
.LBB5160:
.LBB5161:
	.loc 1 343 0
	lwz 9,144(28)
	mr 3,27
	lwz 0,12(9)
	mtctr 0
.LEHB6:
	bctrl
.LEHE6:
.LBE5161:
.LBE5160:
.LBE5159:
.LBE5166:
.LBE5149:
.LBE5172:
	.loc 3 289 0
	lwz 0,36(1)
	lwz 27,12(1)
	mtlr 0
	lwz 28,16(1)
.LVL122:
	lwz 29,20(1)
.LVL123:
	lwz 30,24(1)
.LVL124:
	lwz 31,28(1)
.LVL125:
	addi 1,1,32
	.cfi_remember_state
	.cfi_restore 27
	.cfi_restore 28
	.cfi_restore 29
	.cfi_restore 30
	.cfi_restore 31
.LCFI26:
	.cfi_def_cfa_offset 0
	blr
.LVL126:
.L90:
.LCFI27:
	.cfi_restore_state
.LBB5173:
.LBB5168:
.LBB5167:
.LBB5162:
.LBB5163:
.LBB5164:
	.loc 1 343 0
	lwz 9,144(28)
	mr 31,3
.LVL127:
	mr 3,27
	lwz 0,12(9)
	mtctr 0
	bctrl
	mr 3,31
.LEHB7:
	bl _Unwind_Resume
.LEHE7:
.LBE5164:
.LBE5163:
.LBE5162:
.LBE5167:
.LBE5168:
.LBE5173:
	.cfi_endproc
.LFE1623:
	.section	.gcc_except_table
.LLSDA1623:
	.byte	0xff
	.byte	0xff
	.byte	0x1
	.uleb128 .LLSDACSE1623-.LLSDACSB1623
.LLSDACSB1623:
	.uleb128 .LEHB4-.LFB1623
	.uleb128 .LEHE4-.LEHB4
	.uleb128 0
	.uleb128 0
	.uleb128 .LEHB5-.LFB1623
	.uleb128 .LEHE5-.LEHB5
	.uleb128 .L90-.LFB1623
	.uleb128 0
	.uleb128 .LEHB6-.LFB1623
	.uleb128 .LEHE6-.LEHB6
	.uleb128 0
	.uleb128 0
	.uleb128 .LEHB7-.LFB1623
	.uleb128 .LEHE7-.LEHB7
	.uleb128 0
	.uleb128 0
.LLSDACSE1623:
	.section	".text"
	.size	_ZN15IconFileBrowser15OnButtonClickedEP9GuiButtoniRK6_POINT, .-_ZN15IconFileBrowser15OnButtonClickedEP9GuiButtoniRK6_POINT
	.align 2
	.globl _ZN15IconFileBrowser10ResetStateEv
	.type	_ZN15IconFileBrowser10ResetStateEv, @function
_ZN15IconFileBrowser10ResetStateEv:
.LFB1625:
	.loc 3 301 0
	.cfi_startproc
.LVL128:
	mflr 0
	stwu 1,-16(1)
.LCFI28:
	.cfi_def_cfa_offset 16
	.cfi_register 65, 0
	stw 30,8(1)
	mr 30,3
	.cfi_offset 30, -8
	stw 0,20(1)
.LBB5174:
	.loc 3 302 0
	li 0,0
	.cfi_offset 65, 4
.LBE5174:
	.loc 3 301 0
	stw 31,12(1)
.LBB5185:
	.loc 3 522 0
	lwz 9,248(3)
.LBB5175:
.LBB5176:
.LBB5177:
	.loc 7 571 0
	lwz 11,252(3)
.LBE5177:
.LBE5176:
.LBE5175:
	.loc 3 302 0
	stw 0,72(3)
.LBB5182:
.LBB5180:
.LBB5178:
	.loc 7 571 0
	subf 11,9,11
.LBE5178:
.LBE5180:
.LBE5182:
	.loc 3 304 0
	stw 0,192(3)
.LVL129:
.LBB5183:
	.loc 3 306 0
	srwi. 10,11,2
.LBE5183:
	.loc 3 303 0
	li 11,-1
	stw 11,76(3)
.LBB5184:
	.loc 3 306 0
	beq- 0,.L93
	.cfi_offset 31, -4
	li 31,0
.LVL130:
.L95:
	.loc 3 307 0 discriminator 2
	slwi 0,31,2
	.loc 3 306 0 discriminator 2
	addi 31,31,1
.LVL131:
	.loc 3 307 0 discriminator 2
	lwzx 3,9,0
	lwz 9,0(3)
	lwz 0,92(9)
	mtctr 0
	bctrl
.LVL132:
	.loc 3 522 0 discriminator 2
	lwz 9,248(30)
.LBB5181:
.LBB5179:
	.loc 7 571 0 discriminator 2
	lwz 0,252(30)
	subf 0,9,0
	srawi 0,0,2
.LBE5179:
.LBE5181:
	.loc 3 306 0 discriminator 2
	cmplw 7,31,0
	blt+ 7,.L95
.LVL133:
.L93:
.LBE5184:
.LBE5185:
	.loc 3 308 0
	lwz 0,20(1)
	lwz 30,8(1)
.LVL134:
	mtlr 0
	lwz 31,12(1)
	addi 1,1,16
.LCFI29:
	.cfi_def_cfa_offset 0
	.cfi_restore 31
	.cfi_restore 30
	blr
	.cfi_endproc
.LFE1625:
	.size	_ZN15IconFileBrowser10ResetStateEv, .-_ZN15IconFileBrowser10ResetStateEv
	.section	.text._ZN7sigslot12_signal_baseINS_15single_threadedEED2Ev,"axG",@progbits,_ZN7sigslot12_signal_baseINS_15single_threadedEED5Ev,comdat
	.align 2
	.weak	_ZN7sigslot12_signal_baseINS_15single_threadedEED2Ev
	.type	_ZN7sigslot12_signal_baseINS_15single_threadedEED2Ev, @function
_ZN7sigslot12_signal_baseINS_15single_threadedEED2Ev:
.LFB1757:
	.loc 1 466 0
	.cfi_startproc
.LVL135:
.LBB5186:
.LBB5187:
.LBB5188:
.LBB5189:
	.loc 1 105 0
	lis 9,_ZTVN7sigslot15single_threadedE+8@ha
.LBE5189:
.LBE5188:
.LBE5187:
.LBE5186:
	.loc 1 466 0
.LBB5193:
.LBB5192:
.LBB5191:
.LBB5190:
	.loc 1 105 0
	la 0,_ZTVN7sigslot15single_threadedE+8@l(9)
	stw 0,0(3)
.LBE5190:
.LBE5191:
.LBE5192:
.LBE5193:
	.loc 1 466 0
	blr
	.cfi_endproc
.LFE1757:
	.size	_ZN7sigslot12_signal_baseINS_15single_threadedEED2Ev, .-_ZN7sigslot12_signal_baseINS_15single_threadedEED2Ev
	.section	.text._ZN7sigslot17_connection_base2IiiNS_15single_threadedEED2Ev,"axG",@progbits,_ZN7sigslot17_connection_base2IiiNS_15single_threadedEED5Ev,comdat
	.align 2
	.weak	_ZN7sigslot17_connection_base2IiiNS_15single_threadedEED2Ev
	.type	_ZN7sigslot17_connection_base2IiiNS_15single_threadedEED2Ev, @function
_ZN7sigslot17_connection_base2IiiNS_15single_threadedEED2Ev:
.LFB2029:
	.loc 1 376 0
	.cfi_startproc
.LVL136:
.LBB5194:
	.loc 1 376 0
	lis 9,_ZTVN7sigslot17_connection_base2IiiNS_15single_threadedEEE+8@ha
.LBE5194:
.LBB5195:
	la 0,_ZTVN7sigslot17_connection_base2IiiNS_15single_threadedEEE+8@l(9)
	stw 0,0(3)
.LBE5195:
	blr
	.cfi_endproc
.LFE2029:
	.size	_ZN7sigslot17_connection_base2IiiNS_15single_threadedEED2Ev, .-_ZN7sigslot17_connection_base2IiiNS_15single_threadedEED2Ev
	.section	.text._ZN7sigslot17_connection_base2IP7TaskBariNS_15single_threadedEED2Ev,"axG",@progbits,_ZN7sigslot17_connection_base2IP7TaskBariNS_15single_threadedEED5Ev,comdat
	.align 2
	.weak	_ZN7sigslot17_connection_base2IP7TaskBariNS_15single_threadedEED2Ev
	.type	_ZN7sigslot17_connection_base2IP7TaskBariNS_15single_threadedEED2Ev, @function
_ZN7sigslot17_connection_base2IP7TaskBariNS_15single_threadedEED2Ev:
.LFB2036:
	.loc 1 376 0
	.cfi_startproc
.LVL137:
.LBB5196:
	.loc 1 376 0
	lis 9,_ZTVN7sigslot17_connection_base2IP7TaskBariNS_15single_threadedEEE+8@ha
.LBE5196:
.LBB5197:
	la 0,_ZTVN7sigslot17_connection_base2IP7TaskBariNS_15single_threadedEEE+8@l(9)
	stw 0,0(3)
.LBE5197:
	blr
	.cfi_endproc
.LFE2036:
	.size	_ZN7sigslot17_connection_base2IP7TaskBariNS_15single_threadedEED2Ev, .-_ZN7sigslot17_connection_base2IP7TaskBariNS_15single_threadedEED2Ev
	.section	.text._ZN7sigslot17_connection_base3IP9GuiButtoniRK6_POINTNS_15single_threadedEED2Ev,"axG",@progbits,_ZN7sigslot17_connection_base3IP9GuiButtoniRK6_POINTNS_15single_threadedEED5Ev,comdat
	.align 2
	.weak	_ZN7sigslot17_connection_base3IP9GuiButtoniRK6_POINTNS_15single_threadedEED2Ev
	.type	_ZN7sigslot17_connection_base3IP9GuiButtoniRK6_POINTNS_15single_threadedEED2Ev, @function
_ZN7sigslot17_connection_base3IP9GuiButtoniRK6_POINTNS_15single_threadedEED2Ev:
.LFB2072:
	.loc 1 387 0
	.cfi_startproc
.LVL138:
.LBB5198:
	.loc 1 387 0
	lis 9,_ZTVN7sigslot17_connection_base3IP9GuiButtoniRK6_POINTNS_15single_threadedEEE+8@ha
.LBE5198:
.LBB5199:
	la 0,_ZTVN7sigslot17_connection_base3IP9GuiButtoniRK6_POINTNS_15single_threadedEEE+8@l(9)
	stw 0,0(3)
.LBE5199:
	blr
	.cfi_endproc
.LFE2072:
	.size	_ZN7sigslot17_connection_base3IP9GuiButtoniRK6_POINTNS_15single_threadedEED2Ev, .-_ZN7sigslot17_connection_base3IP9GuiButtoniRK6_POINTNS_15single_threadedEED2Ev
	.section	.text._ZN7sigslot12_connection3I15IconFileBrowserP9GuiButtoniRK6_POINTNS_15single_threadedEED2Ev,"axG",@progbits,_ZN7sigslot12_connection3I15IconFileBrowserP9GuiButtoniRK6_POINTNS_15single_threadedEED5Ev,comdat
	.align 2
	.weak	_ZN7sigslot12_connection3I15IconFileBrowserP9GuiButtoniRK6_POINTNS_15single_threadedEED2Ev
	.type	_ZN7sigslot12_connection3I15IconFileBrowserP9GuiButtoniRK6_POINTNS_15single_threadedEED2Ev, @function
_ZN7sigslot12_connection3I15IconFileBrowserP9GuiButtoniRK6_POINTNS_15single_threadedEED2Ev:
.LFB2559:
	.loc 1 1783 0
	.cfi_startproc
.LVL139:
.LBB5200:
.LBB5201:
.LBB5202:
.LBB5203:
	.loc 1 387 0
	lis 9,_ZTVN7sigslot17_connection_base3IP9GuiButtoniRK6_POINTNS_15single_threadedEEE+8@ha
.LBE5203:
.LBE5202:
.LBE5201:
.LBE5200:
	.loc 1 1786 0
.LBB5207:
.LBB5206:
.LBB5205:
.LBB5204:
	.loc 1 387 0
	la 0,_ZTVN7sigslot17_connection_base3IP9GuiButtoniRK6_POINTNS_15single_threadedEEE+8@l(9)
	stw 0,0(3)
.LBE5204:
.LBE5205:
.LBE5206:
.LBE5207:
	.loc 1 1786 0
	blr
	.cfi_endproc
.LFE2559:
	.size	_ZN7sigslot12_connection3I15IconFileBrowserP9GuiButtoniRK6_POINTNS_15single_threadedEED2Ev, .-_ZN7sigslot12_connection3I15IconFileBrowserP9GuiButtoniRK6_POINTNS_15single_threadedEED2Ev
	.section	.text._ZNK7sigslot12_connection3I15IconFileBrowserP9GuiButtoniRK6_POINTNS_15single_threadedEE7getdestEv,"axG",@progbits,_ZNK7sigslot12_connection3I15IconFileBrowserP9GuiButtoniRK6_POINTNS_15single_threadedEE7getdestEv,comdat
	.align 2
	.weak	_ZNK7sigslot12_connection3I15IconFileBrowserP9GuiButtoniRK6_POINTNS_15single_threadedEE7getdestEv
	.type	_ZNK7sigslot12_connection3I15IconFileBrowserP9GuiButtoniRK6_POINTNS_15single_threadedEE7getdestEv, @function
_ZNK7sigslot12_connection3I15IconFileBrowserP9GuiButtoniRK6_POINTNS_15single_threadedEE7getdestEv:
.LFB2562:
	.loc 1 1804 0
	.cfi_startproc
.LVL140:
	.loc 1 1806 0
	lwz 9,4(3)
	li 3,0
.LVL141:
	cmpwi 7,9,0
	beqlr- 7
	.loc 1 1806 0 is_stmt 0 discriminator 1
	addi 3,9,160
	.loc 1 1807 0 is_stmt 1 discriminator 1
	blr
	.cfi_endproc
.LFE2562:
	.size	_ZNK7sigslot12_connection3I15IconFileBrowserP9GuiButtoniRK6_POINTNS_15single_threadedEE7getdestEv, .-_ZNK7sigslot12_connection3I15IconFileBrowserP9GuiButtoniRK6_POINTNS_15single_threadedEE7getdestEv
	.section	.text._ZN7sigslot12_connection3I15IconFileBrowserP9GuiButtoniRK6_POINTNS_15single_threadedEE4emitES3_iS6_,"axG",@progbits,_ZN7sigslot12_connection3I15IconFileBrowserP9GuiButtoniRK6_POINTNS_15single_threadedEE4emitES3_iS6_,comdat
	.align 2
	.weak	_ZN7sigslot12_connection3I15IconFileBrowserP9GuiButtoniRK6_POINTNS_15single_threadedEE4emitES3_iS6_
	.type	_ZN7sigslot12_connection3I15IconFileBrowserP9GuiButtoniRK6_POINTNS_15single_threadedEE4emitES3_iS6_, @function
_ZN7sigslot12_connection3I15IconFileBrowserP9GuiButtoniRK6_POINTNS_15single_threadedEE4emitES3_iS6_:
.LFB2563:
	.loc 1 1799 0
	.cfi_startproc
.LVL142:
	mflr 0
	stwu 1,-8(1)
.LCFI30:
	.cfi_def_cfa_offset 8
	.cfi_register 65, 0
	stw 0,12(1)
	.loc 1 1801 0
	lwz 0,8(3)
	.cfi_offset 65, 4
	lwz 11,4(3)
	andi. 9,0,1
	lwz 9,12(3)
	bne- 0,.L113
	mtctr 0
	add 3,11,9
.LVL143:
	bctrl
.LVL144:
	.loc 1 1802 0
	lwz 0,12(1)
	addi 1,1,8
	.cfi_remember_state
.LCFI31:
	.cfi_def_cfa_offset 0
	mtlr 0
	blr
.LVL145:
.L113:
.LCFI32:
	.cfi_restore_state
	.loc 1 1801 0 discriminator 1
	lwzx 10,11,9
	add 3,11,9
.LVL146:
	add 9,10,0
	lwz 0,-1(9)
	mtctr 0
	bctrl
.LVL147:
	.loc 1 1802 0 discriminator 1
	lwz 0,12(1)
	addi 1,1,8
.LCFI33:
	.cfi_def_cfa_offset 0
	mtlr 0
	blr
	.cfi_endproc
.LFE2563:
	.size	_ZN7sigslot12_connection3I15IconFileBrowserP9GuiButtoniRK6_POINTNS_15single_threadedEE4emitES3_iS6_, .-_ZN7sigslot12_connection3I15IconFileBrowserP9GuiButtoniRK6_POINTNS_15single_threadedEE4emitES3_iS6_
	.section	.text._ZN7sigslot12_connection2I15IconFileBrowserP7TaskBariNS_15single_threadedEED2Ev,"axG",@progbits,_ZN7sigslot12_connection2I15IconFileBrowserP7TaskBariNS_15single_threadedEED5Ev,comdat
	.align 2
	.weak	_ZN7sigslot12_connection2I15IconFileBrowserP7TaskBariNS_15single_threadedEED2Ev
	.type	_ZN7sigslot12_connection2I15IconFileBrowserP7TaskBariNS_15single_threadedEED2Ev, @function
_ZN7sigslot12_connection2I15IconFileBrowserP7TaskBariNS_15single_threadedEED2Ev:
.LFB2573:
	.loc 1 1735 0
	.cfi_startproc
.LVL148:
.LBB5208:
.LBB5209:
.LBB5210:
.LBB5211:
	.loc 1 376 0
	lis 9,_ZTVN7sigslot17_connection_base2IP7TaskBariNS_15single_threadedEEE+8@ha
.LBE5211:
.LBE5210:
.LBE5209:
.LBE5208:
	.loc 1 1738 0
.LBB5215:
.LBB5214:
.LBB5213:
.LBB5212:
	.loc 1 376 0
	la 0,_ZTVN7sigslot17_connection_base2IP7TaskBariNS_15single_threadedEEE+8@l(9)
	stw 0,0(3)
.LBE5212:
.LBE5213:
.LBE5214:
.LBE5215:
	.loc 1 1738 0
	blr
	.cfi_endproc
.LFE2573:
	.size	_ZN7sigslot12_connection2I15IconFileBrowserP7TaskBariNS_15single_threadedEED2Ev, .-_ZN7sigslot12_connection2I15IconFileBrowserP7TaskBariNS_15single_threadedEED2Ev
	.section	.text._ZNK7sigslot12_connection2I15IconFileBrowserP7TaskBariNS_15single_threadedEE7getdestEv,"axG",@progbits,_ZNK7sigslot12_connection2I15IconFileBrowserP7TaskBariNS_15single_threadedEE7getdestEv,comdat
	.align 2
	.weak	_ZNK7sigslot12_connection2I15IconFileBrowserP7TaskBariNS_15single_threadedEE7getdestEv
	.type	_ZNK7sigslot12_connection2I15IconFileBrowserP7TaskBariNS_15single_threadedEE7getdestEv, @function
_ZNK7sigslot12_connection2I15IconFileBrowserP7TaskBariNS_15single_threadedEE7getdestEv:
.LFB2576:
	.loc 1 1756 0
	.cfi_startproc
.LVL149:
	.loc 1 1758 0
	lwz 9,4(3)
	li 3,0
.LVL150:
	cmpwi 7,9,0
	beqlr- 7
	.loc 1 1758 0 is_stmt 0 discriminator 1
	addi 3,9,160
	.loc 1 1759 0 is_stmt 1 discriminator 1
	blr
	.cfi_endproc
.LFE2576:
	.size	_ZNK7sigslot12_connection2I15IconFileBrowserP7TaskBariNS_15single_threadedEE7getdestEv, .-_ZNK7sigslot12_connection2I15IconFileBrowserP7TaskBariNS_15single_threadedEE7getdestEv
	.section	.text._ZN7sigslot12_connection2I15IconFileBrowserP7TaskBariNS_15single_threadedEE4emitES3_i,"axG",@progbits,_ZN7sigslot12_connection2I15IconFileBrowserP7TaskBariNS_15single_threadedEE4emitES3_i,comdat
	.align 2
	.weak	_ZN7sigslot12_connection2I15IconFileBrowserP7TaskBariNS_15single_threadedEE4emitES3_i
	.type	_ZN7sigslot12_connection2I15IconFileBrowserP7TaskBariNS_15single_threadedEE4emitES3_i, @function
_ZN7sigslot12_connection2I15IconFileBrowserP7TaskBariNS_15single_threadedEE4emitES3_i:
.LFB2577:
	.loc 1 1751 0
	.cfi_startproc
.LVL151:
	mflr 0
	stwu 1,-8(1)
.LCFI34:
	.cfi_def_cfa_offset 8
	.cfi_register 65, 0
	stw 0,12(1)
	.loc 1 1753 0
	lwz 0,8(3)
	.cfi_offset 65, 4
	lwz 11,4(3)
	andi. 9,0,1
	lwz 9,12(3)
	bne- 0,.L122
	mtctr 0
	add 3,11,9
.LVL152:
	bctrl
.LVL153:
	.loc 1 1754 0
	lwz 0,12(1)
	addi 1,1,8
	.cfi_remember_state
.LCFI35:
	.cfi_def_cfa_offset 0
	mtlr 0
	blr
.LVL154:
.L122:
.LCFI36:
	.cfi_restore_state
	.loc 1 1753 0 discriminator 1
	lwzx 10,11,9
	add 3,11,9
.LVL155:
	add 9,10,0
	lwz 0,-1(9)
	mtctr 0
	bctrl
.LVL156:
	.loc 1 1754 0 discriminator 1
	lwz 0,12(1)
	addi 1,1,8
.LCFI37:
	.cfi_def_cfa_offset 0
	mtlr 0
	blr
	.cfi_endproc
.LFE2577:
	.size	_ZN7sigslot12_connection2I15IconFileBrowserP7TaskBariNS_15single_threadedEE4emitES3_i, .-_ZN7sigslot12_connection2I15IconFileBrowserP7TaskBariNS_15single_threadedEE4emitES3_i
	.section	.text._ZN7sigslot12_connection2I15IconFileBrowseriiNS_15single_threadedEED2Ev,"axG",@progbits,_ZN7sigslot12_connection2I15IconFileBrowseriiNS_15single_threadedEED5Ev,comdat
	.align 2
	.weak	_ZN7sigslot12_connection2I15IconFileBrowseriiNS_15single_threadedEED2Ev
	.type	_ZN7sigslot12_connection2I15IconFileBrowseriiNS_15single_threadedEED2Ev, @function
_ZN7sigslot12_connection2I15IconFileBrowseriiNS_15single_threadedEED2Ev:
.LFB2587:
	.loc 1 1735 0
	.cfi_startproc
.LVL157:
.LBB5216:
.LBB5217:
.LBB5218:
.LBB5219:
	.loc 1 376 0
	lis 9,_ZTVN7sigslot17_connection_base2IiiNS_15single_threadedEEE+8@ha
.LBE5219:
.LBE5218:
.LBE5217:
.LBE5216:
	.loc 1 1738 0
.LBB5223:
.LBB5222:
.LBB5221:
.LBB5220:
	.loc 1 376 0
	la 0,_ZTVN7sigslot17_connection_base2IiiNS_15single_threadedEEE+8@l(9)
	stw 0,0(3)
.LBE5220:
.LBE5221:
.LBE5222:
.LBE5223:
	.loc 1 1738 0
	blr
	.cfi_endproc
.LFE2587:
	.size	_ZN7sigslot12_connection2I15IconFileBrowseriiNS_15single_threadedEED2Ev, .-_ZN7sigslot12_connection2I15IconFileBrowseriiNS_15single_threadedEED2Ev
	.section	.text._ZNK7sigslot12_connection2I15IconFileBrowseriiNS_15single_threadedEE7getdestEv,"axG",@progbits,_ZNK7sigslot12_connection2I15IconFileBrowseriiNS_15single_threadedEE7getdestEv,comdat
	.align 2
	.weak	_ZNK7sigslot12_connection2I15IconFileBrowseriiNS_15single_threadedEE7getdestEv
	.type	_ZNK7sigslot12_connection2I15IconFileBrowseriiNS_15single_threadedEE7getdestEv, @function
_ZNK7sigslot12_connection2I15IconFileBrowseriiNS_15single_threadedEE7getdestEv:
.LFB2590:
	.loc 1 1756 0
	.cfi_startproc
.LVL158:
	.loc 1 1758 0
	lwz 9,4(3)
	li 3,0
.LVL159:
	cmpwi 7,9,0
	beqlr- 7
	.loc 1 1758 0 is_stmt 0 discriminator 1
	addi 3,9,160
	.loc 1 1759 0 is_stmt 1 discriminator 1
	blr
	.cfi_endproc
.LFE2590:
	.size	_ZNK7sigslot12_connection2I15IconFileBrowseriiNS_15single_threadedEE7getdestEv, .-_ZNK7sigslot12_connection2I15IconFileBrowseriiNS_15single_threadedEE7getdestEv
	.section	.text._ZN7sigslot12_connection2I15IconFileBrowseriiNS_15single_threadedEE4emitEii,"axG",@progbits,_ZN7sigslot12_connection2I15IconFileBrowseriiNS_15single_threadedEE4emitEii,comdat
	.align 2
	.weak	_ZN7sigslot12_connection2I15IconFileBrowseriiNS_15single_threadedEE4emitEii
	.type	_ZN7sigslot12_connection2I15IconFileBrowseriiNS_15single_threadedEE4emitEii, @function
_ZN7sigslot12_connection2I15IconFileBrowseriiNS_15single_threadedEE4emitEii:
.LFB2591:
	.loc 1 1751 0
	.cfi_startproc
.LVL160:
	mflr 0
	stwu 1,-8(1)
.LCFI38:
	.cfi_def_cfa_offset 8
	.cfi_register 65, 0
	stw 0,12(1)
	.loc 1 1753 0
	lwz 0,8(3)
	.cfi_offset 65, 4
	lwz 11,4(3)
	andi. 9,0,1
	lwz 9,12(3)
	bne- 0,.L131
	mtctr 0
	add 3,11,9
.LVL161:
	bctrl
.LVL162:
	.loc 1 1754 0
	lwz 0,12(1)
	addi 1,1,8
	.cfi_remember_state
.LCFI39:
	.cfi_def_cfa_offset 0
	mtlr 0
	blr
.LVL163:
.L131:
.LCFI40:
	.cfi_restore_state
	.loc 1 1753 0 discriminator 1
	lwzx 10,11,9
	add 3,11,9
.LVL164:
	add 9,10,0
	lwz 0,-1(9)
	mtctr 0
	bctrl
.LVL165:
	.loc 1 1754 0 discriminator 1
	lwz 0,12(1)
	addi 1,1,8
.LCFI41:
	.cfi_def_cfa_offset 0
	mtlr 0
	blr
	.cfi_endproc
.LFE2591:
	.size	_ZN7sigslot12_connection2I15IconFileBrowseriiNS_15single_threadedEE4emitEii, .-_ZN7sigslot12_connection2I15IconFileBrowseriiNS_15single_threadedEE4emitEii
	.section	.text._ZN7sigslot12_connection2I15IconFileBrowseriiNS_15single_threadedEE9duplicateEPNS_9has_slotsIS2_EE,"axG",@progbits,_ZN7sigslot12_connection2I15IconFileBrowseriiNS_15single_threadedEE9duplicateEPNS_9has_slotsIS2_EE,comdat
	.align 2
	.weak	_ZN7sigslot12_connection2I15IconFileBrowseriiNS_15single_threadedEE9duplicateEPNS_9has_slotsIS2_EE
	.type	_ZN7sigslot12_connection2I15IconFileBrowseriiNS_15single_threadedEE9duplicateEPNS_9has_slotsIS2_EE, @function
_ZN7sigslot12_connection2I15IconFileBrowseriiNS_15single_threadedEE9duplicateEPNS_9has_slotsIS2_EE:
.LFB2599:
	.loc 1 1746 0
	.cfi_startproc
.LVL166:
	stwu 1,-16(1)
.LCFI42:
	.cfi_def_cfa_offset 16
	mflr 0
	stw 30,8(1)
	mr 30,4
	.cfi_offset 30, -8
	.cfi_register 65, 0
	stw 31,12(1)
	mr 31,3
	.cfi_offset 31, -4
	.loc 1 1748 0
	li 3,16
.LVL167:
	.loc 1 1746 0
	stw 0,20(1)
	.loc 1 1748 0
	.cfi_offset 65, 4
	bl _Znwj
.LVL168:
	cmpwi 7,30,0
	li 0,0
	beq- 7,.L134
	.loc 1 1748 0 is_stmt 0 discriminator 1
	addi 0,30,-160
.L134:
.LVL169:
	.loc 1 1748 0 discriminator 3
	lwz 11,8(31)
.LVL170:
.LBB5224:
.LBB5225:
	.loc 1 1730 0 is_stmt 1 discriminator 3
	lis 10,_ZTVN7sigslot12_connection2I15IconFileBrowseriiNS_15single_threadedEEE+8@ha
.LBE5225:
.LBE5224:
	.loc 1 1748 0 discriminator 3
	lwz 9,12(31)
.LVL171:
.LBB5228:
.LBB5226:
	.loc 1 1730 0 discriminator 3
	la 10,_ZTVN7sigslot12_connection2I15IconFileBrowseriiNS_15single_threadedEEE+8@l(10)
	.loc 1 1732 0 discriminator 3
	stw 11,8(3)
	stw 9,12(3)
	.loc 1 1731 0 discriminator 3
	stw 0,4(3)
.LBE5226:
.LBE5228:
	.loc 1 1749 0 discriminator 3
	lwz 0,20(1)
.LVL172:
	lwz 30,8(1)
.LVL173:
	mtlr 0
	lwz 31,12(1)
.LVL174:
.LBB5229:
.LBB5227:
	.loc 1 1730 0 discriminator 3
	stw 10,0(3)
.LBE5227:
.LBE5229:
	.loc 1 1749 0 discriminator 3
	addi 1,1,16
.LCFI43:
	.cfi_def_cfa_offset 0
	.cfi_restore 31
	.cfi_restore 30
	blr
	.cfi_endproc
.LFE2599:
	.size	_ZN7sigslot12_connection2I15IconFileBrowseriiNS_15single_threadedEE9duplicateEPNS_9has_slotsIS2_EE, .-_ZN7sigslot12_connection2I15IconFileBrowseriiNS_15single_threadedEE9duplicateEPNS_9has_slotsIS2_EE
	.section	.text._ZN7sigslot12_connection2I15IconFileBrowserP7TaskBariNS_15single_threadedEE9duplicateEPNS_9has_slotsIS4_EE,"axG",@progbits,_ZN7sigslot12_connection2I15IconFileBrowserP7TaskBariNS_15single_threadedEE9duplicateEPNS_9has_slotsIS4_EE,comdat
	.align 2
	.weak	_ZN7sigslot12_connection2I15IconFileBrowserP7TaskBariNS_15single_threadedEE9duplicateEPNS_9has_slotsIS4_EE
	.type	_ZN7sigslot12_connection2I15IconFileBrowserP7TaskBariNS_15single_threadedEE9duplicateEPNS_9has_slotsIS4_EE, @function
_ZN7sigslot12_connection2I15IconFileBrowserP7TaskBariNS_15single_threadedEE9duplicateEPNS_9has_slotsIS4_EE:
.LFB2585:
	.loc 1 1746 0
	.cfi_startproc
.LVL175:
	stwu 1,-16(1)
.LCFI44:
	.cfi_def_cfa_offset 16
	mflr 0
	stw 30,8(1)
	mr 30,4
	.cfi_offset 30, -8
	.cfi_register 65, 0
	stw 31,12(1)
	mr 31,3
	.cfi_offset 31, -4
	.loc 1 1748 0
	li 3,16
.LVL176:
	.loc 1 1746 0
	stw 0,20(1)
	.loc 1 1748 0
	.cfi_offset 65, 4
	bl _Znwj
.LVL177:
	cmpwi 7,30,0
	li 0,0
	beq- 7,.L137
	.loc 1 1748 0 is_stmt 0 discriminator 1
	addi 0,30,-160
.L137:
.LVL178:
	.loc 1 1748 0 discriminator 3
	lwz 11,8(31)
.LVL179:
.LBB5230:
.LBB5231:
	.loc 1 1730 0 is_stmt 1 discriminator 3
	lis 10,_ZTVN7sigslot12_connection2I15IconFileBrowserP7TaskBariNS_15single_threadedEEE+8@ha
.LBE5231:
.LBE5230:
	.loc 1 1748 0 discriminator 3
	lwz 9,12(31)
.LVL180:
.LBB5234:
.LBB5232:
	.loc 1 1730 0 discriminator 3
	la 10,_ZTVN7sigslot12_connection2I15IconFileBrowserP7TaskBariNS_15single_threadedEEE+8@l(10)
	.loc 1 1732 0 discriminator 3
	stw 11,8(3)
	stw 9,12(3)
	.loc 1 1731 0 discriminator 3
	stw 0,4(3)
.LBE5232:
.LBE5234:
	.loc 1 1749 0 discriminator 3
	lwz 0,20(1)
.LVL181:
	lwz 30,8(1)
.LVL182:
	mtlr 0
	lwz 31,12(1)
.LVL183:
.LBB5235:
.LBB5233:
	.loc 1 1730 0 discriminator 3
	stw 10,0(3)
.LBE5233:
.LBE5235:
	.loc 1 1749 0 discriminator 3
	addi 1,1,16
.LCFI45:
	.cfi_def_cfa_offset 0
	.cfi_restore 31
	.cfi_restore 30
	blr
	.cfi_endproc
.LFE2585:
	.size	_ZN7sigslot12_connection2I15IconFileBrowserP7TaskBariNS_15single_threadedEE9duplicateEPNS_9has_slotsIS4_EE, .-_ZN7sigslot12_connection2I15IconFileBrowserP7TaskBariNS_15single_threadedEE9duplicateEPNS_9has_slotsIS4_EE
	.section	.text._ZN7sigslot12_connection3I15IconFileBrowserP9GuiButtoniRK6_POINTNS_15single_threadedEE9duplicateEPNS_9has_slotsIS7_EE,"axG",@progbits,_ZN7sigslot12_connection3I15IconFileBrowserP9GuiButtoniRK6_POINTNS_15single_threadedEE9duplicateEPNS_9has_slotsIS7_EE,comdat
	.align 2
	.weak	_ZN7sigslot12_connection3I15IconFileBrowserP9GuiButtoniRK6_POINTNS_15single_threadedEE9duplicateEPNS_9has_slotsIS7_EE
	.type	_ZN7sigslot12_connection3I15IconFileBrowserP9GuiButtoniRK6_POINTNS_15single_threadedEE9duplicateEPNS_9has_slotsIS7_EE, @function
_ZN7sigslot12_connection3I15IconFileBrowserP9GuiButtoniRK6_POINTNS_15single_threadedEE9duplicateEPNS_9has_slotsIS7_EE:
.LFB2571:
	.loc 1 1794 0
	.cfi_startproc
.LVL184:
	stwu 1,-16(1)
.LCFI46:
	.cfi_def_cfa_offset 16
	mflr 0
	stw 30,8(1)
	mr 30,4
	.cfi_offset 30, -8
	.cfi_register 65, 0
	stw 31,12(1)
	mr 31,3
	.cfi_offset 31, -4
	.loc 1 1796 0
	li 3,16
.LVL185:
	.loc 1 1794 0
	stw 0,20(1)
	.loc 1 1796 0
	.cfi_offset 65, 4
	bl _Znwj
.LVL186:
	cmpwi 7,30,0
	li 0,0
	beq- 7,.L140
	.loc 1 1796 0 is_stmt 0 discriminator 1
	addi 0,30,-160
.L140:
.LVL187:
	.loc 1 1796 0 discriminator 3
	lwz 11,8(31)
.LVL188:
.LBB5236:
.LBB5237:
	.loc 1 1778 0 is_stmt 1 discriminator 3
	lis 10,_ZTVN7sigslot12_connection3I15IconFileBrowserP9GuiButtoniRK6_POINTNS_15single_threadedEEE+8@ha
.LBE5237:
.LBE5236:
	.loc 1 1796 0 discriminator 3
	lwz 9,12(31)
.LVL189:
.LBB5240:
.LBB5238:
	.loc 1 1778 0 discriminator 3
	la 10,_ZTVN7sigslot12_connection3I15IconFileBrowserP9GuiButtoniRK6_POINTNS_15single_threadedEEE+8@l(10)
	.loc 1 1780 0 discriminator 3
	stw 11,8(3)
	stw 9,12(3)
	.loc 1 1779 0 discriminator 3
	stw 0,4(3)
.LBE5238:
.LBE5240:
	.loc 1 1797 0 discriminator 3
	lwz 0,20(1)
.LVL190:
	lwz 30,8(1)
.LVL191:
	mtlr 0
	lwz 31,12(1)
.LVL192:
.LBB5241:
.LBB5239:
	.loc 1 1778 0 discriminator 3
	stw 10,0(3)
.LBE5239:
.LBE5241:
	.loc 1 1797 0 discriminator 3
	addi 1,1,16
.LCFI47:
	.cfi_def_cfa_offset 0
	.cfi_restore 31
	.cfi_restore 30
	blr
	.cfi_endproc
.LFE2571:
	.size	_ZN7sigslot12_connection3I15IconFileBrowserP9GuiButtoniRK6_POINTNS_15single_threadedEE9duplicateEPNS_9has_slotsIS7_EE, .-_ZN7sigslot12_connection3I15IconFileBrowserP9GuiButtoniRK6_POINTNS_15single_threadedEE9duplicateEPNS_9has_slotsIS7_EE
	.section	.text._ZN7sigslot12_connection3I15IconFileBrowserP9GuiButtoniRK6_POINTNS_15single_threadedEE5cloneEv,"axG",@progbits,_ZN7sigslot12_connection3I15IconFileBrowserP9GuiButtoniRK6_POINTNS_15single_threadedEE5cloneEv,comdat
	.align 2
	.weak	_ZN7sigslot12_connection3I15IconFileBrowserP9GuiButtoniRK6_POINTNS_15single_threadedEE5cloneEv
	.type	_ZN7sigslot12_connection3I15IconFileBrowserP9GuiButtoniRK6_POINTNS_15single_threadedEE5cloneEv, @function
_ZN7sigslot12_connection3I15IconFileBrowserP9GuiButtoniRK6_POINTNS_15single_threadedEE5cloneEv:
.LFB2564:
	.loc 1 1789 0
	.cfi_startproc
.LVL193:
	stwu 1,-16(1)
.LCFI48:
	.cfi_def_cfa_offset 16
	mflr 0
	stw 31,12(1)
	mr 31,3
	.cfi_offset 31, -4
	.cfi_register 65, 0
	.loc 1 1791 0
	li 3,16
.LVL194:
	.loc 1 1789 0
	stw 0,20(1)
	.loc 1 1791 0
	.cfi_offset 65, 4
	bl _Znwj
	.loc 3 522 0
	lwz 0,4(31)
.LVL195:
.LBB5242:
.LBB5243:
	.loc 1 1767 0
	lis 11,_ZTVN7sigslot12_connection3I15IconFileBrowserP9GuiButtoniRK6_POINTNS_15single_threadedEEE+8@ha
	la 11,_ZTVN7sigslot12_connection3I15IconFileBrowserP9GuiButtoniRK6_POINTNS_15single_threadedEEE+8@l(11)
	stw 0,4(3)
	stw 11,0(3)
	lwz 10,8(31)
	lwz 11,12(31)
	stw 10,8(3)
	stw 11,12(3)
.LBE5243:
.LBE5242:
	.loc 1 1792 0
	lwz 0,20(1)
	lwz 31,12(1)
.LVL196:
	mtlr 0
	addi 1,1,16
.LCFI49:
	.cfi_def_cfa_offset 0
	.cfi_restore 31
	blr
	.cfi_endproc
.LFE2564:
	.size	_ZN7sigslot12_connection3I15IconFileBrowserP9GuiButtoniRK6_POINTNS_15single_threadedEE5cloneEv, .-_ZN7sigslot12_connection3I15IconFileBrowserP9GuiButtoniRK6_POINTNS_15single_threadedEE5cloneEv
	.section	.text._ZN7sigslot12_connection2I15IconFileBrowserP7TaskBariNS_15single_threadedEE5cloneEv,"axG",@progbits,_ZN7sigslot12_connection2I15IconFileBrowserP7TaskBariNS_15single_threadedEE5cloneEv,comdat
	.align 2
	.weak	_ZN7sigslot12_connection2I15IconFileBrowserP7TaskBariNS_15single_threadedEE5cloneEv
	.type	_ZN7sigslot12_connection2I15IconFileBrowserP7TaskBariNS_15single_threadedEE5cloneEv, @function
_ZN7sigslot12_connection2I15IconFileBrowserP7TaskBariNS_15single_threadedEE5cloneEv:
.LFB2578:
	.loc 1 1741 0
	.cfi_startproc
.LVL197:
	stwu 1,-16(1)
.LCFI50:
	.cfi_def_cfa_offset 16
	mflr 0
	stw 31,12(1)
	mr 31,3
	.cfi_offset 31, -4
	.cfi_register 65, 0
	.loc 1 1743 0
	li 3,16
.LVL198:
	.loc 1 1741 0
	stw 0,20(1)
	.loc 1 1743 0
	.cfi_offset 65, 4
	bl _Znwj
	.loc 3 522 0
	lwz 0,4(31)
.LVL199:
.LBB5244:
.LBB5245:
	.loc 1 1719 0
	lis 11,_ZTVN7sigslot12_connection2I15IconFileBrowserP7TaskBariNS_15single_threadedEEE+8@ha
	la 11,_ZTVN7sigslot12_connection2I15IconFileBrowserP7TaskBariNS_15single_threadedEEE+8@l(11)
	stw 0,4(3)
	stw 11,0(3)
	lwz 10,8(31)
	lwz 11,12(31)
	stw 10,8(3)
	stw 11,12(3)
.LBE5245:
.LBE5244:
	.loc 1 1744 0
	lwz 0,20(1)
	lwz 31,12(1)
.LVL200:
	mtlr 0
	addi 1,1,16
.LCFI51:
	.cfi_def_cfa_offset 0
	.cfi_restore 31
	blr
	.cfi_endproc
.LFE2578:
	.size	_ZN7sigslot12_connection2I15IconFileBrowserP7TaskBariNS_15single_threadedEE5cloneEv, .-_ZN7sigslot12_connection2I15IconFileBrowserP7TaskBariNS_15single_threadedEE5cloneEv
	.section	.text._ZN7sigslot12_connection2I15IconFileBrowseriiNS_15single_threadedEE5cloneEv,"axG",@progbits,_ZN7sigslot12_connection2I15IconFileBrowseriiNS_15single_threadedEE5cloneEv,comdat
	.align 2
	.weak	_ZN7sigslot12_connection2I15IconFileBrowseriiNS_15single_threadedEE5cloneEv
	.type	_ZN7sigslot12_connection2I15IconFileBrowseriiNS_15single_threadedEE5cloneEv, @function
_ZN7sigslot12_connection2I15IconFileBrowseriiNS_15single_threadedEE5cloneEv:
.LFB2592:
	.loc 1 1741 0
	.cfi_startproc
.LVL201:
	stwu 1,-16(1)
.LCFI52:
	.cfi_def_cfa_offset 16
	mflr 0
	stw 31,12(1)
	mr 31,3
	.cfi_offset 31, -4
	.cfi_register 65, 0
	.loc 1 1743 0
	li 3,16
.LVL202:
	.loc 1 1741 0
	stw 0,20(1)
	.loc 1 1743 0
	.cfi_offset 65, 4
	bl _Znwj
	.loc 3 522 0
	lwz 0,4(31)
.LVL203:
.LBB5246:
.LBB5247:
	.loc 1 1719 0
	lis 11,_ZTVN7sigslot12_connection2I15IconFileBrowseriiNS_15single_threadedEEE+8@ha
	la 11,_ZTVN7sigslot12_connection2I15IconFileBrowseriiNS_15single_threadedEEE+8@l(11)
	stw 0,4(3)
	stw 11,0(3)
	lwz 10,8(31)
	lwz 11,12(31)
	stw 10,8(3)
	stw 11,12(3)
.LBE5247:
.LBE5246:
	.loc 1 1744 0
	lwz 0,20(1)
	lwz 31,12(1)
.LVL204:
	mtlr 0
	addi 1,1,16
.LCFI53:
	.cfi_def_cfa_offset 0
	.cfi_restore 31
	blr
	.cfi_endproc
.LFE2592:
	.size	_ZN7sigslot12_connection2I15IconFileBrowseriiNS_15single_threadedEE5cloneEv, .-_ZN7sigslot12_connection2I15IconFileBrowseriiNS_15single_threadedEE5cloneEv
	.section	.text._ZN7sigslot13_signal_base1IiNS_15single_threadedEE14slot_duplicateEPKNS_9has_slotsIS1_EEPS4_,"axG",@progbits,_ZN7sigslot13_signal_base1IiNS_15single_threadedEE14slot_duplicateEPKNS_9has_slotsIS1_EEPS4_,comdat
	.align 2
	.weak	_ZN7sigslot13_signal_base1IiNS_15single_threadedEE14slot_duplicateEPKNS_9has_slotsIS1_EEPS4_
	.type	_ZN7sigslot13_signal_base1IiNS_15single_threadedEE14slot_duplicateEPKNS_9has_slotsIS1_EEPS4_, @function
_ZN7sigslot13_signal_base1IiNS_15single_threadedEE14slot_duplicateEPKNS_9has_slotsIS1_EEPS4_:
.LFB2601:
	.loc 1 685 0
	.cfi_startproc
	.cfi_personality 0,__gxx_personality_v0
	.cfi_lsda 0,.LLSDA2601
.LVL205:
	mflr 0
	stwu 1,-32(1)
.LCFI54:
	.cfi_def_cfa_offset 32
	.cfi_register 65, 0
	stw 26,8(1)
	mr 26,5
	.cfi_offset 26, -24
	stw 0,36(1)
	stw 27,12(1)
	mr 27,3
	.cfi_offset 27, -20
	.cfi_offset 65, 4
.LVL206:
.LBB5248:
.LBB5249:
.LBB5250:
	.loc 1 338 0
	lwz 9,0(3)
.LBE5250:
.LBE5249:
.LBE5248:
	.loc 1 685 0
	stw 29,20(1)
	mr 29,4
	.cfi_offset 29, -12
.LBB5279:
.LBB5255:
.LBB5251:
	.loc 1 338 0
	lwz 0,8(9)
.LBE5251:
.LBE5255:
.LBE5279:
	.loc 1 685 0
	stw 30,24(1)
.LBB5280:
.LBB5256:
.LBB5252:
	.loc 3 522 0
	mr 30,27
	.cfi_offset 30, -8
.LBE5252:
.LBE5256:
.LBE5280:
	.loc 1 685 0
	stw 31,28(1)
.LBB5281:
.LBB5257:
.LBB5253:
	.loc 1 338 0
	mtctr 0
.LBE5253:
.LBE5257:
.LBE5281:
	.loc 1 685 0
	stw 28,16(1)
.LEHB8:
.LBB5282:
.LBB5258:
.LBB5254:
	.loc 1 338 0
	.cfi_offset 28, -16
	.cfi_offset 31, -4
	bctrl
.LEHE8:
.LVL207:
	.loc 3 522 0
	lwzu 31,4(30)
.LVL208:
.LBE5254:
.LBE5258:
	.loc 1 691 0
	cmpw 7,31,30
	bne+ 7,.L155
	b .L146
.LVL209:
.L147:
.LBB5259:
.LBB5260:
	.loc 4 154 0
	lwz 31,0(31)
.LVL210:
.LBE5260:
.LBE5259:
	.loc 1 691 0
	cmpw 7,30,31
	beq- 7,.L146
.LVL211:
.L155:
	.loc 1 693 0
	lwz 3,8(31)
	lwz 9,0(3)
	lwz 0,8(9)
	mtctr 0
.LEHB9:
	bctrl
	cmpw 7,29,3
	bne+ 7,.L147
.LVL212:
	.loc 1 695 0
	lwz 3,8(31)
	mr 4,26
	lwz 9,0(3)
	lwz 0,20(9)
	mtctr 0
	bctrl
	mr 28,3
.LVL213:
.LBB5262:
.LBB5263:
.LBB5264:
.LBB5265:
.LBB5266:
.LBB5267:
.LBB5268:
.LBB5269:
	.file 8 "d:\\devkitpro\\devkitppc\\bin\\../lib/gcc/powerpc-eabi/4.6.3/../../../../powerpc-eabi/include/c++/4.6.3/ext/new_allocator.h"
	.loc 8 92 0
	li 3,12
	bl _Znwj
.LEHE9:
.LVL214:
.LBE5269:
.LBE5268:
.LBE5267:
.LBB5270:
.LBB5271:
	.loc 8 108 0 discriminator 1
	cmpwi 7,3,-8
	beq- 7,.L149
	.loc 8 108 0 is_stmt 0
	stw 28,8(3)
.L149:
.LVL215:
.LBE5271:
.LBE5270:
.LBE5266:
.LBE5265:
	.loc 4 1516 0 is_stmt 1
	mr 4,30
	bl _ZNSt8__detail15_List_node_base7_M_hookEPS0_
.LVL216:
.LBE5264:
.LBE5263:
.LBE5262:
.LBB5272:
.LBB5261:
	.loc 4 154 0
	lwz 31,0(31)
.LVL217:
.LBE5261:
.LBE5272:
	.loc 1 691 0
	cmpw 7,30,31
	bne+ 7,.L155
.LVL218:
.L146:
.LBB5273:
.LBB5274:
.LBB5275:
	.loc 1 343 0
	lwz 9,0(27)
	mr 3,27
	lwz 0,12(9)
	mtctr 0
.LEHB10:
	bctrl
.LEHE10:
.LBE5275:
.LBE5274:
.LBE5273:
.LBE5282:
	.loc 1 700 0
	lwz 0,36(1)
	lwz 26,8(1)
.LVL219:
	mtlr 0
	lwz 27,12(1)
.LVL220:
	lwz 28,16(1)
	lwz 29,20(1)
.LVL221:
	lwz 30,24(1)
.LVL222:
	lwz 31,28(1)
.LVL223:
	addi 1,1,32
	.cfi_remember_state
.LCFI55:
	.cfi_def_cfa_offset 0
	.cfi_restore 31
	.cfi_restore 30
	.cfi_restore 29
	.cfi_restore 28
	.cfi_restore 27
	.cfi_restore 26
	blr
.LVL224:
.L154:
.LCFI56:
	.cfi_restore_state
.LBB5283:
.LBB5276:
.LBB5277:
.LBB5278:
	.loc 1 343 0
	lwz 9,0(27)
	mr 31,3
.LVL225:
	mr 3,27
	lwz 0,12(9)
	mtctr 0
	bctrl
	mr 3,31
.LEHB11:
	bl _Unwind_Resume
.LEHE11:
.LBE5278:
.LBE5277:
.LBE5276:
.LBE5283:
	.cfi_endproc
.LFE2601:
	.section	.gcc_except_table
.LLSDA2601:
	.byte	0xff
	.byte	0xff
	.byte	0x1
	.uleb128 .LLSDACSE2601-.LLSDACSB2601
.LLSDACSB2601:
	.uleb128 .LEHB8-.LFB2601
	.uleb128 .LEHE8-.LEHB8
	.uleb128 0
	.uleb128 0
	.uleb128 .LEHB9-.LFB2601
	.uleb128 .LEHE9-.LEHB9
	.uleb128 .L154-.LFB2601
	.uleb128 0
	.uleb128 .LEHB10-.LFB2601
	.uleb128 .LEHE10-.LEHB10
	.uleb128 0
	.uleb128 0
	.uleb128 .LEHB11-.LFB2601
	.uleb128 .LEHE11-.LEHB11
	.uleb128 0
	.uleb128 0
.LLSDACSE2601:
	.section	.text._ZN7sigslot13_signal_base1IiNS_15single_threadedEE14slot_duplicateEPKNS_9has_slotsIS1_EEPS4_,"axG",@progbits,_ZN7sigslot13_signal_base1IiNS_15single_threadedEE14slot_duplicateEPKNS_9has_slotsIS1_EEPS4_,comdat
	.size	_ZN7sigslot13_signal_base1IiNS_15single_threadedEE14slot_duplicateEPKNS_9has_slotsIS1_EEPS4_, .-_ZN7sigslot13_signal_base1IiNS_15single_threadedEE14slot_duplicateEPKNS_9has_slotsIS1_EEPS4_
	.section	.text._ZN7sigslot13_signal_base3IP10GuiElementiiNS_15single_threadedEE14slot_duplicateEPKNS_9has_slotsIS3_EEPS6_,"axG",@progbits,_ZN7sigslot13_signal_base3IP10GuiElementiiNS_15single_threadedEE14slot_duplicateEPKNS_9has_slotsIS3_EEPS6_,comdat
	.align 2
	.weak	_ZN7sigslot13_signal_base3IP10GuiElementiiNS_15single_threadedEE14slot_duplicateEPKNS_9has_slotsIS3_EEPS6_
	.type	_ZN7sigslot13_signal_base3IP10GuiElementiiNS_15single_threadedEE14slot_duplicateEPKNS_9has_slotsIS3_EEPS6_, @function
_ZN7sigslot13_signal_base3IP10GuiElementiiNS_15single_threadedEE14slot_duplicateEPKNS_9has_slotsIS3_EEPS6_:
.LFB2603:
	.loc 1 926 0
	.cfi_startproc
	.cfi_personality 0,__gxx_personality_v0
	.cfi_lsda 0,.LLSDA2603
.LVL226:
	mflr 0
	stwu 1,-32(1)
.LCFI57:
	.cfi_def_cfa_offset 32
	.cfi_register 65, 0
	stw 26,8(1)
	mr 26,5
	.cfi_offset 26, -24
	stw 0,36(1)
	stw 27,12(1)
	mr 27,3
	.cfi_offset 27, -20
	.cfi_offset 65, 4
.LVL227:
.LBB5284:
.LBB5285:
.LBB5286:
	.loc 1 338 0
	lwz 9,0(3)
.LBE5286:
.LBE5285:
.LBE5284:
	.loc 1 926 0
	stw 29,20(1)
	mr 29,4
	.cfi_offset 29, -12
.LBB5315:
.LBB5291:
.LBB5287:
	.loc 1 338 0
	lwz 0,8(9)
.LBE5287:
.LBE5291:
.LBE5315:
	.loc 1 926 0
	stw 30,24(1)
.LBB5316:
.LBB5292:
.LBB5288:
	.loc 3 522 0
	mr 30,27
	.cfi_offset 30, -8
.LBE5288:
.LBE5292:
.LBE5316:
	.loc 1 926 0
	stw 31,28(1)
.LBB5317:
.LBB5293:
.LBB5289:
	.loc 1 338 0
	mtctr 0
.LBE5289:
.LBE5293:
.LBE5317:
	.loc 1 926 0
	stw 28,16(1)
.LEHB12:
.LBB5318:
.LBB5294:
.LBB5290:
	.loc 1 338 0
	.cfi_offset 28, -16
	.cfi_offset 31, -4
	bctrl
.LEHE12:
.LVL228:
	.loc 3 522 0
	lwzu 31,4(30)
.LVL229:
.LBE5290:
.LBE5294:
	.loc 1 932 0
	cmpw 7,31,30
	bne+ 7,.L167
	b .L158
.LVL230:
.L159:
.LBB5295:
.LBB5296:
	.loc 4 154 0
	lwz 31,0(31)
.LVL231:
.LBE5296:
.LBE5295:
	.loc 1 932 0
	cmpw 7,30,31
	beq- 7,.L158
.LVL232:
.L167:
	.loc 1 934 0
	lwz 3,8(31)
	lwz 9,0(3)
	lwz 0,8(9)
	mtctr 0
.LEHB13:
	bctrl
	cmpw 7,29,3
	bne+ 7,.L159
.LVL233:
	.loc 1 936 0
	lwz 3,8(31)
	mr 4,26
	lwz 9,0(3)
	lwz 0,20(9)
	mtctr 0
	bctrl
	mr 28,3
.LVL234:
.LBB5298:
.LBB5299:
.LBB5300:
.LBB5301:
.LBB5302:
.LBB5303:
.LBB5304:
.LBB5305:
	.loc 8 92 0
	li 3,12
	bl _Znwj
.LEHE13:
.LVL235:
.LBE5305:
.LBE5304:
.LBE5303:
.LBB5306:
.LBB5307:
	.loc 8 108 0 discriminator 1
	cmpwi 7,3,-8
	beq- 7,.L161
	.loc 8 108 0 is_stmt 0
	stw 28,8(3)
.L161:
.LVL236:
.LBE5307:
.LBE5306:
.LBE5302:
.LBE5301:
	.loc 4 1516 0 is_stmt 1
	mr 4,30
	bl _ZNSt8__detail15_List_node_base7_M_hookEPS0_
.LVL237:
.LBE5300:
.LBE5299:
.LBE5298:
.LBB5308:
.LBB5297:
	.loc 4 154 0
	lwz 31,0(31)
.LVL238:
.LBE5297:
.LBE5308:
	.loc 1 932 0
	cmpw 7,30,31
	bne+ 7,.L167
.LVL239:
.L158:
.LBB5309:
.LBB5310:
.LBB5311:
	.loc 1 343 0
	lwz 9,0(27)
	mr 3,27
	lwz 0,12(9)
	mtctr 0
.LEHB14:
	bctrl
.LEHE14:
.LBE5311:
.LBE5310:
.LBE5309:
.LBE5318:
	.loc 1 941 0
	lwz 0,36(1)
	lwz 26,8(1)
.LVL240:
	mtlr 0
	lwz 27,12(1)
.LVL241:
	lwz 28,16(1)
	lwz 29,20(1)
.LVL242:
	lwz 30,24(1)
.LVL243:
	lwz 31,28(1)
.LVL244:
	addi 1,1,32
	.cfi_remember_state
.LCFI58:
	.cfi_def_cfa_offset 0
	.cfi_restore 31
	.cfi_restore 30
	.cfi_restore 29
	.cfi_restore 28
	.cfi_restore 27
	.cfi_restore 26
	blr
.LVL245:
.L166:
.LCFI59:
	.cfi_restore_state
.LBB5319:
.LBB5312:
.LBB5313:
.LBB5314:
	.loc 1 343 0
	lwz 9,0(27)
	mr 31,3
.LVL246:
	mr 3,27
	lwz 0,12(9)
	mtctr 0
	bctrl
	mr 3,31
.LEHB15:
	bl _Unwind_Resume
.LEHE15:
.LBE5314:
.LBE5313:
.LBE5312:
.LBE5319:
	.cfi_endproc
.LFE2603:
	.section	.gcc_except_table
.LLSDA2603:
	.byte	0xff
	.byte	0xff
	.byte	0x1
	.uleb128 .LLSDACSE2603-.LLSDACSB2603
.LLSDACSB2603:
	.uleb128 .LEHB12-.LFB2603
	.uleb128 .LEHE12-.LEHB12
	.uleb128 0
	.uleb128 0
	.uleb128 .LEHB13-.LFB2603
	.uleb128 .LEHE13-.LEHB13
	.uleb128 .L166-.LFB2603
	.uleb128 0
	.uleb128 .LEHB14-.LFB2603
	.uleb128 .LEHE14-.LEHB14
	.uleb128 0
	.uleb128 0
	.uleb128 .LEHB15-.LFB2603
	.uleb128 .LEHE15-.LEHB15
	.uleb128 0
	.uleb128 0
.LLSDACSE2603:
	.section	.text._ZN7sigslot13_signal_base3IP10GuiElementiiNS_15single_threadedEE14slot_duplicateEPKNS_9has_slotsIS3_EEPS6_,"axG",@progbits,_ZN7sigslot13_signal_base3IP10GuiElementiiNS_15single_threadedEE14slot_duplicateEPKNS_9has_slotsIS3_EEPS6_,comdat
	.size	_ZN7sigslot13_signal_base3IP10GuiElementiiNS_15single_threadedEE14slot_duplicateEPKNS_9has_slotsIS3_EEPS6_, .-_ZN7sigslot13_signal_base3IP10GuiElementiiNS_15single_threadedEE14slot_duplicateEPKNS_9has_slotsIS3_EEPS6_
	.section	.text._ZN7sigslot13_signal_base2IP10GuiElementbNS_15single_threadedEE14slot_duplicateEPKNS_9has_slotsIS3_EEPS6_,"axG",@progbits,_ZN7sigslot13_signal_base2IP10GuiElementbNS_15single_threadedEE14slot_duplicateEPKNS_9has_slotsIS3_EEPS6_,comdat
	.align 2
	.weak	_ZN7sigslot13_signal_base2IP10GuiElementbNS_15single_threadedEE14slot_duplicateEPKNS_9has_slotsIS3_EEPS6_
	.type	_ZN7sigslot13_signal_base2IP10GuiElementbNS_15single_threadedEE14slot_duplicateEPKNS_9has_slotsIS3_EEPS6_, @function
_ZN7sigslot13_signal_base2IP10GuiElementbNS_15single_threadedEE14slot_duplicateEPKNS_9has_slotsIS3_EEPS6_:
.LFB2605:
	.loc 1 806 0
	.cfi_startproc
	.cfi_personality 0,__gxx_personality_v0
	.cfi_lsda 0,.LLSDA2605
.LVL247:
	mflr 0
	stwu 1,-32(1)
.LCFI60:
	.cfi_def_cfa_offset 32
	.cfi_register 65, 0
	stw 26,8(1)
	mr 26,5
	.cfi_offset 26, -24
	stw 0,36(1)
	stw 27,12(1)
	mr 27,3
	.cfi_offset 27, -20
	.cfi_offset 65, 4
.LVL248:
.LBB5320:
.LBB5321:
.LBB5322:
	.loc 1 338 0
	lwz 9,0(3)
.LBE5322:
.LBE5321:
.LBE5320:
	.loc 1 806 0
	stw 29,20(1)
	mr 29,4
	.cfi_offset 29, -12
.LBB5351:
.LBB5327:
.LBB5323:
	.loc 1 338 0
	lwz 0,8(9)
.LBE5323:
.LBE5327:
.LBE5351:
	.loc 1 806 0
	stw 30,24(1)
.LBB5352:
.LBB5328:
.LBB5324:
	.loc 3 522 0
	mr 30,27
	.cfi_offset 30, -8
.LBE5324:
.LBE5328:
.LBE5352:
	.loc 1 806 0
	stw 31,28(1)
.LBB5353:
.LBB5329:
.LBB5325:
	.loc 1 338 0
	mtctr 0
.LBE5325:
.LBE5329:
.LBE5353:
	.loc 1 806 0
	stw 28,16(1)
.LEHB16:
.LBB5354:
.LBB5330:
.LBB5326:
	.loc 1 338 0
	.cfi_offset 28, -16
	.cfi_offset 31, -4
	bctrl
.LEHE16:
.LVL249:
	.loc 3 522 0
	lwzu 31,4(30)
.LVL250:
.LBE5326:
.LBE5330:
	.loc 1 812 0
	cmpw 7,31,30
	bne+ 7,.L179
	b .L170
.LVL251:
.L171:
.LBB5331:
.LBB5332:
	.loc 4 154 0
	lwz 31,0(31)
.LVL252:
.LBE5332:
.LBE5331:
	.loc 1 812 0
	cmpw 7,30,31
	beq- 7,.L170
.LVL253:
.L179:
	.loc 1 814 0
	lwz 3,8(31)
	lwz 9,0(3)
	lwz 0,8(9)
	mtctr 0
.LEHB17:
	bctrl
	cmpw 7,29,3
	bne+ 7,.L171
.LVL254:
	.loc 1 816 0
	lwz 3,8(31)
	mr 4,26
	lwz 9,0(3)
	lwz 0,20(9)
	mtctr 0
	bctrl
	mr 28,3
.LVL255:
.LBB5334:
.LBB5335:
.LBB5336:
.LBB5337:
.LBB5338:
.LBB5339:
.LBB5340:
.LBB5341:
	.loc 8 92 0
	li 3,12
	bl _Znwj
.LEHE17:
.LVL256:
.LBE5341:
.LBE5340:
.LBE5339:
.LBB5342:
.LBB5343:
	.loc 8 108 0 discriminator 1
	cmpwi 7,3,-8
	beq- 7,.L173
	.loc 8 108 0 is_stmt 0
	stw 28,8(3)
.L173:
.LVL257:
.LBE5343:
.LBE5342:
.LBE5338:
.LBE5337:
	.loc 4 1516 0 is_stmt 1
	mr 4,30
	bl _ZNSt8__detail15_List_node_base7_M_hookEPS0_
.LVL258:
.LBE5336:
.LBE5335:
.LBE5334:
.LBB5344:
.LBB5333:
	.loc 4 154 0
	lwz 31,0(31)
.LVL259:
.LBE5333:
.LBE5344:
	.loc 1 812 0
	cmpw 7,30,31
	bne+ 7,.L179
.LVL260:
.L170:
.LBB5345:
.LBB5346:
.LBB5347:
	.loc 1 343 0
	lwz 9,0(27)
	mr 3,27
	lwz 0,12(9)
	mtctr 0
.LEHB18:
	bctrl
.LEHE18:
.LBE5347:
.LBE5346:
.LBE5345:
.LBE5354:
	.loc 1 821 0
	lwz 0,36(1)
	lwz 26,8(1)
.LVL261:
	mtlr 0
	lwz 27,12(1)
.LVL262:
	lwz 28,16(1)
	lwz 29,20(1)
.LVL263:
	lwz 30,24(1)
.LVL264:
	lwz 31,28(1)
.LVL265:
	addi 1,1,32
	.cfi_remember_state
.LCFI61:
	.cfi_def_cfa_offset 0
	.cfi_restore 31
	.cfi_restore 30
	.cfi_restore 29
	.cfi_restore 28
	.cfi_restore 27
	.cfi_restore 26
	blr
.LVL266:
.L178:
.LCFI62:
	.cfi_restore_state
.LBB5355:
.LBB5348:
.LBB5349:
.LBB5350:
	.loc 1 343 0
	lwz 9,0(27)
	mr 31,3
.LVL267:
	mr 3,27
	lwz 0,12(9)
	mtctr 0
	bctrl
	mr 3,31
.LEHB19:
	bl _Unwind_Resume
.LEHE19:
.LBE5350:
.LBE5349:
.LBE5348:
.LBE5355:
	.cfi_endproc
.LFE2605:
	.section	.gcc_except_table
.LLSDA2605:
	.byte	0xff
	.byte	0xff
	.byte	0x1
	.uleb128 .LLSDACSE2605-.LLSDACSB2605
.LLSDACSB2605:
	.uleb128 .LEHB16-.LFB2605
	.uleb128 .LEHE16-.LEHB16
	.uleb128 0
	.uleb128 0
	.uleb128 .LEHB17-.LFB2605
	.uleb128 .LEHE17-.LEHB17
	.uleb128 .L178-.LFB2605
	.uleb128 0
	.uleb128 .LEHB18-.LFB2605
	.uleb128 .LEHE18-.LEHB18
	.uleb128 0
	.uleb128 0
	.uleb128 .LEHB19-.LFB2605
	.uleb128 .LEHE19-.LEHB19
	.uleb128 0
	.uleb128 0
.LLSDACSE2605:
	.section	.text._ZN7sigslot13_signal_base2IP10GuiElementbNS_15single_threadedEE14slot_duplicateEPKNS_9has_slotsIS3_EEPS6_,"axG",@progbits,_ZN7sigslot13_signal_base2IP10GuiElementbNS_15single_threadedEE14slot_duplicateEPKNS_9has_slotsIS3_EEPS6_,comdat
	.size	_ZN7sigslot13_signal_base2IP10GuiElementbNS_15single_threadedEE14slot_duplicateEPKNS_9has_slotsIS3_EEPS6_, .-_ZN7sigslot13_signal_base2IP10GuiElementbNS_15single_threadedEE14slot_duplicateEPKNS_9has_slotsIS3_EEPS6_
	.section	.text._ZN7sigslot12_connection2I15IconFileBrowseriiNS_15single_threadedEED0Ev,"axG",@progbits,_ZN7sigslot12_connection2I15IconFileBrowseriiNS_15single_threadedEED5Ev,comdat
	.align 2
	.weak	_ZN7sigslot12_connection2I15IconFileBrowseriiNS_15single_threadedEED0Ev
	.type	_ZN7sigslot12_connection2I15IconFileBrowseriiNS_15single_threadedEED0Ev, @function
_ZN7sigslot12_connection2I15IconFileBrowseriiNS_15single_threadedEED0Ev:
.LFB2589:
	.loc 1 1735 0
	.cfi_startproc
.LVL268:
	mflr 0
	stwu 1,-8(1)
.LCFI63:
	.cfi_def_cfa_offset 8
	.cfi_register 65, 0
.LBB5356:
.LBB5357:
.LBB5358:
.LBB5359:
.LBB5360:
.LBB5361:
	.loc 1 376 0
	lis 9,_ZTVN7sigslot17_connection_base2IiiNS_15single_threadedEEE+8@ha
.LBE5361:
.LBE5360:
.LBE5359:
.LBE5358:
.LBE5357:
.LBE5356:
	.loc 1 1735 0
	stw 0,12(1)
.LBB5367:
.LBB5366:
.LBB5365:
.LBB5364:
.LBB5363:
.LBB5362:
	.loc 1 376 0
	la 0,_ZTVN7sigslot17_connection_base2IiiNS_15single_threadedEEE+8@l(9)
	.cfi_offset 65, 4
	stw 0,0(3)
.LBE5362:
.LBE5363:
.LBE5364:
.LBE5365:
.LBE5366:
.LBE5367:
	.loc 1 1738 0
	bl _ZdlPv
.LVL269:
	lwz 0,12(1)
	addi 1,1,8
.LCFI64:
	.cfi_def_cfa_offset 0
	mtlr 0
	blr
	.cfi_endproc
.LFE2589:
	.size	_ZN7sigslot12_connection2I15IconFileBrowseriiNS_15single_threadedEED0Ev, .-_ZN7sigslot12_connection2I15IconFileBrowseriiNS_15single_threadedEED0Ev
	.section	.text._ZN7sigslot12_connection2I15IconFileBrowserP7TaskBariNS_15single_threadedEED0Ev,"axG",@progbits,_ZN7sigslot12_connection2I15IconFileBrowserP7TaskBariNS_15single_threadedEED5Ev,comdat
	.align 2
	.weak	_ZN7sigslot12_connection2I15IconFileBrowserP7TaskBariNS_15single_threadedEED0Ev
	.type	_ZN7sigslot12_connection2I15IconFileBrowserP7TaskBariNS_15single_threadedEED0Ev, @function
_ZN7sigslot12_connection2I15IconFileBrowserP7TaskBariNS_15single_threadedEED0Ev:
.LFB2575:
	.loc 1 1735 0
	.cfi_startproc
.LVL270:
	mflr 0
	stwu 1,-8(1)
.LCFI65:
	.cfi_def_cfa_offset 8
	.cfi_register 65, 0
.LBB5368:
.LBB5369:
.LBB5370:
.LBB5371:
.LBB5372:
.LBB5373:
	.loc 1 376 0
	lis 9,_ZTVN7sigslot17_connection_base2IP7TaskBariNS_15single_threadedEEE+8@ha
.LBE5373:
.LBE5372:
.LBE5371:
.LBE5370:
.LBE5369:
.LBE5368:
	.loc 1 1735 0
	stw 0,12(1)
.LBB5379:
.LBB5378:
.LBB5377:
.LBB5376:
.LBB5375:
.LBB5374:
	.loc 1 376 0
	la 0,_ZTVN7sigslot17_connection_base2IP7TaskBariNS_15single_threadedEEE+8@l(9)
	.cfi_offset 65, 4
	stw 0,0(3)
.LBE5374:
.LBE5375:
.LBE5376:
.LBE5377:
.LBE5378:
.LBE5379:
	.loc 1 1738 0
	bl _ZdlPv
.LVL271:
	lwz 0,12(1)
	addi 1,1,8
.LCFI66:
	.cfi_def_cfa_offset 0
	mtlr 0
	blr
	.cfi_endproc
.LFE2575:
	.size	_ZN7sigslot12_connection2I15IconFileBrowserP7TaskBariNS_15single_threadedEED0Ev, .-_ZN7sigslot12_connection2I15IconFileBrowserP7TaskBariNS_15single_threadedEED0Ev
	.section	.text._ZN7sigslot12_connection3I15IconFileBrowserP9GuiButtoniRK6_POINTNS_15single_threadedEED0Ev,"axG",@progbits,_ZN7sigslot12_connection3I15IconFileBrowserP9GuiButtoniRK6_POINTNS_15single_threadedEED5Ev,comdat
	.align 2
	.weak	_ZN7sigslot12_connection3I15IconFileBrowserP9GuiButtoniRK6_POINTNS_15single_threadedEED0Ev
	.type	_ZN7sigslot12_connection3I15IconFileBrowserP9GuiButtoniRK6_POINTNS_15single_threadedEED0Ev, @function
_ZN7sigslot12_connection3I15IconFileBrowserP9GuiButtoniRK6_POINTNS_15single_threadedEED0Ev:
.LFB2561:
	.loc 1 1783 0
	.cfi_startproc
.LVL272:
	mflr 0
	stwu 1,-8(1)
.LCFI67:
	.cfi_def_cfa_offset 8
	.cfi_register 65, 0
.LBB5380:
.LBB5381:
.LBB5382:
.LBB5383:
.LBB5384:
.LBB5385:
	.loc 1 387 0
	lis 9,_ZTVN7sigslot17_connection_base3IP9GuiButtoniRK6_POINTNS_15single_threadedEEE+8@ha
.LBE5385:
.LBE5384:
.LBE5383:
.LBE5382:
.LBE5381:
.LBE5380:
	.loc 1 1783 0
	stw 0,12(1)
.LBB5391:
.LBB5390:
.LBB5389:
.LBB5388:
.LBB5387:
.LBB5386:
	.loc 1 387 0
	la 0,_ZTVN7sigslot17_connection_base3IP9GuiButtoniRK6_POINTNS_15single_threadedEEE+8@l(9)
	.cfi_offset 65, 4
	stw 0,0(3)
.LBE5386:
.LBE5387:
.LBE5388:
.LBE5389:
.LBE5390:
.LBE5391:
	.loc 1 1786 0
	bl _ZdlPv
.LVL273:
	lwz 0,12(1)
	addi 1,1,8
.LCFI68:
	.cfi_def_cfa_offset 0
	mtlr 0
	blr
	.cfi_endproc
.LFE2561:
	.size	_ZN7sigslot12_connection3I15IconFileBrowserP9GuiButtoniRK6_POINTNS_15single_threadedEED0Ev, .-_ZN7sigslot12_connection3I15IconFileBrowserP9GuiButtoniRK6_POINTNS_15single_threadedEED0Ev
	.section	.text._ZN7sigslot17_connection_base3IP9GuiButtoniRK6_POINTNS_15single_threadedEED0Ev,"axG",@progbits,_ZN7sigslot17_connection_base3IP9GuiButtoniRK6_POINTNS_15single_threadedEED5Ev,comdat
	.align 2
	.weak	_ZN7sigslot17_connection_base3IP9GuiButtoniRK6_POINTNS_15single_threadedEED0Ev
	.type	_ZN7sigslot17_connection_base3IP9GuiButtoniRK6_POINTNS_15single_threadedEED0Ev, @function
_ZN7sigslot17_connection_base3IP9GuiButtoniRK6_POINTNS_15single_threadedEED0Ev:
.LFB2074:
	.loc 1 387 0
	.cfi_startproc
.LVL274:
	mflr 0
	stwu 1,-8(1)
.LCFI69:
	.cfi_def_cfa_offset 8
	.cfi_register 65, 0
.LBB5392:
.LBB5393:
.LBB5394:
	lis 9,_ZTVN7sigslot17_connection_base3IP9GuiButtoniRK6_POINTNS_15single_threadedEEE+8@ha
.LBE5394:
.LBE5393:
.LBE5392:
	stw 0,12(1)
.LBB5397:
.LBB5396:
.LBB5395:
	.loc 1 387 0
	la 0,_ZTVN7sigslot17_connection_base3IP9GuiButtoniRK6_POINTNS_15single_threadedEEE+8@l(9)
	.cfi_offset 65, 4
	stw 0,0(3)
.LBE5395:
.LBE5396:
.LBE5397:
	bl _ZdlPv
.LVL275:
	lwz 0,12(1)
	addi 1,1,8
.LCFI70:
	.cfi_def_cfa_offset 0
	mtlr 0
	blr
	.cfi_endproc
.LFE2074:
	.size	_ZN7sigslot17_connection_base3IP9GuiButtoniRK6_POINTNS_15single_threadedEED0Ev, .-_ZN7sigslot17_connection_base3IP9GuiButtoniRK6_POINTNS_15single_threadedEED0Ev
	.section	.text._ZN7sigslot17_connection_base2IP7TaskBariNS_15single_threadedEED0Ev,"axG",@progbits,_ZN7sigslot17_connection_base2IP7TaskBariNS_15single_threadedEED5Ev,comdat
	.align 2
	.weak	_ZN7sigslot17_connection_base2IP7TaskBariNS_15single_threadedEED0Ev
	.type	_ZN7sigslot17_connection_base2IP7TaskBariNS_15single_threadedEED0Ev, @function
_ZN7sigslot17_connection_base2IP7TaskBariNS_15single_threadedEED0Ev:
.LFB2038:
	.loc 1 376 0
	.cfi_startproc
.LVL276:
	mflr 0
	stwu 1,-8(1)
.LCFI71:
	.cfi_def_cfa_offset 8
	.cfi_register 65, 0
.LBB5398:
.LBB5399:
.LBB5400:
	lis 9,_ZTVN7sigslot17_connection_base2IP7TaskBariNS_15single_threadedEEE+8@ha
.LBE5400:
.LBE5399:
.LBE5398:
	stw 0,12(1)
.LBB5403:
.LBB5402:
.LBB5401:
	.loc 1 376 0
	la 0,_ZTVN7sigslot17_connection_base2IP7TaskBariNS_15single_threadedEEE+8@l(9)
	.cfi_offset 65, 4
	stw 0,0(3)
.LBE5401:
.LBE5402:
.LBE5403:
	bl _ZdlPv
.LVL277:
	lwz 0,12(1)
	addi 1,1,8
.LCFI72:
	.cfi_def_cfa_offset 0
	mtlr 0
	blr
	.cfi_endproc
.LFE2038:
	.size	_ZN7sigslot17_connection_base2IP7TaskBariNS_15single_threadedEED0Ev, .-_ZN7sigslot17_connection_base2IP7TaskBariNS_15single_threadedEED0Ev
	.section	.text._ZN7sigslot17_connection_base2IiiNS_15single_threadedEED0Ev,"axG",@progbits,_ZN7sigslot17_connection_base2IiiNS_15single_threadedEED5Ev,comdat
	.align 2
	.weak	_ZN7sigslot17_connection_base2IiiNS_15single_threadedEED0Ev
	.type	_ZN7sigslot17_connection_base2IiiNS_15single_threadedEED0Ev, @function
_ZN7sigslot17_connection_base2IiiNS_15single_threadedEED0Ev:
.LFB2031:
	.loc 1 376 0
	.cfi_startproc
.LVL278:
	mflr 0
	stwu 1,-8(1)
.LCFI73:
	.cfi_def_cfa_offset 8
	.cfi_register 65, 0
.LBB5404:
.LBB5405:
.LBB5406:
	lis 9,_ZTVN7sigslot17_connection_base2IiiNS_15single_threadedEEE+8@ha
.LBE5406:
.LBE5405:
.LBE5404:
	stw 0,12(1)
.LBB5409:
.LBB5408:
.LBB5407:
	.loc 1 376 0
	la 0,_ZTVN7sigslot17_connection_base2IiiNS_15single_threadedEEE+8@l(9)
	.cfi_offset 65, 4
	stw 0,0(3)
.LBE5407:
.LBE5408:
.LBE5409:
	bl _ZdlPv
.LVL279:
	lwz 0,12(1)
	addi 1,1,8
.LCFI74:
	.cfi_def_cfa_offset 0
	mtlr 0
	blr
	.cfi_endproc
.LFE2031:
	.size	_ZN7sigslot17_connection_base2IiiNS_15single_threadedEED0Ev, .-_ZN7sigslot17_connection_base2IiiNS_15single_threadedEED0Ev
	.section	.text._ZN7sigslot12_signal_baseINS_15single_threadedEED0Ev,"axG",@progbits,_ZN7sigslot12_signal_baseINS_15single_threadedEED5Ev,comdat
	.align 2
	.weak	_ZN7sigslot12_signal_baseINS_15single_threadedEED0Ev
	.type	_ZN7sigslot12_signal_baseINS_15single_threadedEED0Ev, @function
_ZN7sigslot12_signal_baseINS_15single_threadedEED0Ev:
.LFB1759:
	.loc 1 466 0
	.cfi_startproc
.LVL280:
	mflr 0
	stwu 1,-8(1)
.LCFI75:
	.cfi_def_cfa_offset 8
	.cfi_register 65, 0
.LBB5410:
.LBB5411:
.LBB5412:
.LBB5413:
.LBB5414:
.LBB5415:
	.loc 1 105 0
	lis 9,_ZTVN7sigslot15single_threadedE+8@ha
.LBE5415:
.LBE5414:
.LBE5413:
.LBE5412:
.LBE5411:
.LBE5410:
	.loc 1 466 0
	stw 0,12(1)
.LBB5421:
.LBB5420:
.LBB5419:
.LBB5418:
.LBB5417:
.LBB5416:
	.loc 1 105 0
	la 0,_ZTVN7sigslot15single_threadedE+8@l(9)
	.cfi_offset 65, 4
	stw 0,0(3)
.LBE5416:
.LBE5417:
.LBE5418:
.LBE5419:
.LBE5420:
.LBE5421:
	.loc 1 466 0
	bl _ZdlPv
.LVL281:
	lwz 0,12(1)
	addi 1,1,8
.LCFI76:
	.cfi_def_cfa_offset 0
	mtlr 0
	blr
	.cfi_endproc
.LFE1759:
	.size	_ZN7sigslot12_signal_baseINS_15single_threadedEED0Ev, .-_ZN7sigslot12_signal_baseINS_15single_threadedEED0Ev
	.section	.text._ZN7sigslot15single_threadedD0Ev,"axG",@progbits,_ZN7sigslot15single_threadedD5Ev,comdat
	.align 2
	.weak	_ZN7sigslot15single_threadedD0Ev
	.type	_ZN7sigslot15single_threadedD0Ev, @function
_ZN7sigslot15single_threadedD0Ev:
.LFB1150:
	.loc 1 104 0
	.cfi_startproc
.LVL282:
	mflr 0
	stwu 1,-8(1)
.LCFI77:
	.cfi_def_cfa_offset 8
	.cfi_register 65, 0
.LBB5422:
.LBB5423:
.LBB5424:
	.loc 1 105 0
	lis 9,_ZTVN7sigslot15single_threadedE+8@ha
.LBE5424:
.LBE5423:
.LBE5422:
	.loc 1 104 0
	stw 0,12(1)
.LBB5427:
.LBB5426:
.LBB5425:
	.loc 1 105 0
	la 0,_ZTVN7sigslot15single_threadedE+8@l(9)
	.cfi_offset 65, 4
	stw 0,0(3)
.LBE5425:
.LBE5426:
.LBE5427:
	.loc 1 107 0
	bl _ZdlPv
.LVL283:
	lwz 0,12(1)
	addi 1,1,8
.LCFI78:
	.cfi_def_cfa_offset 0
	mtlr 0
	blr
	.cfi_endproc
.LFE1150:
	.size	_ZN7sigslot15single_threadedD0Ev, .-_ZN7sigslot15single_threadedD0Ev
	.section	.text._ZN7sigslot13_signal_base1IiNS_15single_threadedEE15slot_disconnectEPNS_9has_slotsIS1_EE,"axG",@progbits,_ZN7sigslot13_signal_base1IiNS_15single_threadedEE15slot_disconnectEPNS_9has_slotsIS1_EE,comdat
	.align 2
	.weak	_ZN7sigslot13_signal_base1IiNS_15single_threadedEE15slot_disconnectEPNS_9has_slotsIS1_EE
	.type	_ZN7sigslot13_signal_base1IiNS_15single_threadedEE15slot_disconnectEPNS_9has_slotsIS1_EE, @function
_ZN7sigslot13_signal_base1IiNS_15single_threadedEE15slot_disconnectEPNS_9has_slotsIS1_EE:
.LFB2600:
	.loc 1 749 0
	.cfi_startproc
	.cfi_personality 0,__gxx_personality_v0
	.cfi_lsda 0,.LLSDA2600
.LVL284:
	mflr 0
	stwu 1,-32(1)
.LCFI79:
	.cfi_def_cfa_offset 32
	.cfi_register 65, 0
	stw 27,12(1)
	mr 27,3
	.cfi_offset 27, -20
.LVL285:
	stw 0,36(1)
	stw 28,16(1)
	mr 28,4
	.cfi_offset 28, -16
	.cfi_offset 65, 4
.LBB5428:
.LBB5429:
.LBB5430:
	.loc 1 338 0
	lwz 9,0(3)
.LBE5430:
.LBE5429:
.LBE5428:
	.loc 1 749 0
	stw 29,20(1)
.LBB5451:
.LBB5433:
.LBB5431:
	.loc 3 522 0
	mr 29,27
	.cfi_offset 29, -12
	.loc 1 338 0
	lwz 0,8(9)
.LBE5431:
.LBE5433:
.LBE5451:
	.loc 1 749 0
	stw 31,28(1)
	stw 30,24(1)
.LBB5452:
.LBB5434:
.LBB5432:
	.loc 1 338 0
	mtctr 0
.LEHB20:
	.cfi_offset 30, -8
	.cfi_offset 31, -4
	bctrl
.LEHE20:
.LVL286:
	.loc 3 522 0
	lwzu 31,4(29)
.LVL287:
.LBE5432:
.LBE5434:
	.loc 1 755 0
	cmpw 7,31,29
	bne+ 7,.L221
	b .L210
.LVL288:
.L211:
	.loc 1 755 0 is_stmt 0 discriminator 1
	cmpw 7,29,30
	beq- 7,.L210
.L219:
	.loc 1 755 0
	mr 31,30
.LVL289:
.L221:
.LBB5435:
	.loc 1 760 0 is_stmt 1
	lwz 3,8(31)
.LBB5436:
.LBB5437:
	.loc 4 154 0
	lwz 30,0(31)
.LVL290:
.LBE5437:
.LBE5436:
	.loc 1 760 0
	lwz 9,0(3)
	lwz 0,8(9)
	mtctr 0
.LEHB21:
	bctrl
.LVL291:
	cmpw 7,28,3
	bne+ 7,.L211
.LVL292:
	.loc 1 762 0
	lwz 3,8(31)
	cmpwi 7,3,0
	beq- 7,.L212
	.loc 1 762 0 is_stmt 0 discriminator 1
	lwz 9,0(3)
	lwz 0,4(9)
	mtctr 0
	bctrl
.LEHE21:
.L212:
.LVL293:
.LBB5438:
.LBB5439:
.LBB5440:
.LBB5441:
	.loc 4 1532 0 is_stmt 1
	mr 3,31
	bl _ZNSt8__detail15_List_node_base9_M_unhookEv
.LVL294:
.LBB5442:
.LBB5443:
.LBB5444:
	.loc 8 98 0
	mr 3,31
	bl _ZdlPv
.LVL295:
.LBE5444:
.LBE5443:
.LBE5442:
.LBE5441:
.LBE5440:
.LBE5439:
.LBE5438:
.LBE5435:
	.loc 1 755 0
	cmpw 7,29,30
	bne+ 7,.L219
.LVL296:
.L210:
.LBB5445:
.LBB5446:
.LBB5447:
	.loc 1 343 0
	lwz 9,0(27)
	mr 3,27
	lwz 0,12(9)
	mtctr 0
.LEHB22:
	bctrl
.LEHE22:
.LBE5447:
.LBE5446:
.LBE5445:
.LBE5452:
	.loc 1 769 0
	lwz 0,36(1)
	lwz 27,12(1)
.LVL297:
	mtlr 0
	lwz 28,16(1)
.LVL298:
	lwz 29,20(1)
.LVL299:
	lwz 30,24(1)
	lwz 31,28(1)
	addi 1,1,32
	.cfi_remember_state
.LCFI80:
	.cfi_def_cfa_offset 0
	.cfi_restore 31
	.cfi_restore 30
	.cfi_restore 29
	.cfi_restore 28
	.cfi_restore 27
	blr
.LVL300:
.L220:
.LCFI81:
	.cfi_restore_state
.LBB5453:
.LBB5448:
.LBB5449:
.LBB5450:
	.loc 1 343 0
	lwz 9,0(27)
	mr 31,3
.LVL301:
	mr 3,27
	lwz 0,12(9)
	mtctr 0
	bctrl
	mr 3,31
.LEHB23:
	bl _Unwind_Resume
.LEHE23:
.LBE5450:
.LBE5449:
.LBE5448:
.LBE5453:
	.cfi_endproc
.LFE2600:
	.section	.gcc_except_table
.LLSDA2600:
	.byte	0xff
	.byte	0xff
	.byte	0x1
	.uleb128 .LLSDACSE2600-.LLSDACSB2600
.LLSDACSB2600:
	.uleb128 .LEHB20-.LFB2600
	.uleb128 .LEHE20-.LEHB20
	.uleb128 0
	.uleb128 0
	.uleb128 .LEHB21-.LFB2600
	.uleb128 .LEHE21-.LEHB21
	.uleb128 .L220-.LFB2600
	.uleb128 0
	.uleb128 .LEHB22-.LFB2600
	.uleb128 .LEHE22-.LEHB22
	.uleb128 0
	.uleb128 0
	.uleb128 .LEHB23-.LFB2600
	.uleb128 .LEHE23-.LEHB23
	.uleb128 0
	.uleb128 0
.LLSDACSE2600:
	.section	.text._ZN7sigslot13_signal_base1IiNS_15single_threadedEE15slot_disconnectEPNS_9has_slotsIS1_EE,"axG",@progbits,_ZN7sigslot13_signal_base1IiNS_15single_threadedEE15slot_disconnectEPNS_9has_slotsIS1_EE,comdat
	.size	_ZN7sigslot13_signal_base1IiNS_15single_threadedEE15slot_disconnectEPNS_9has_slotsIS1_EE, .-_ZN7sigslot13_signal_base1IiNS_15single_threadedEE15slot_disconnectEPNS_9has_slotsIS1_EE
	.section	.text._ZN7sigslot13_signal_base3IP10GuiElementiiNS_15single_threadedEE15slot_disconnectEPNS_9has_slotsIS3_EE,"axG",@progbits,_ZN7sigslot13_signal_base3IP10GuiElementiiNS_15single_threadedEE15slot_disconnectEPNS_9has_slotsIS3_EE,comdat
	.align 2
	.weak	_ZN7sigslot13_signal_base3IP10GuiElementiiNS_15single_threadedEE15slot_disconnectEPNS_9has_slotsIS3_EE
	.type	_ZN7sigslot13_signal_base3IP10GuiElementiiNS_15single_threadedEE15slot_disconnectEPNS_9has_slotsIS3_EE, @function
_ZN7sigslot13_signal_base3IP10GuiElementiiNS_15single_threadedEE15slot_disconnectEPNS_9has_slotsIS3_EE:
.LFB2602:
	.loc 1 990 0
	.cfi_startproc
	.cfi_personality 0,__gxx_personality_v0
	.cfi_lsda 0,.LLSDA2602
.LVL302:
	mflr 0
	stwu 1,-32(1)
.LCFI82:
	.cfi_def_cfa_offset 32
	.cfi_register 65, 0
	stw 27,12(1)
	mr 27,3
	.cfi_offset 27, -20
.LVL303:
	stw 0,36(1)
	stw 28,16(1)
	mr 28,4
	.cfi_offset 28, -16
	.cfi_offset 65, 4
.LBB5454:
.LBB5455:
.LBB5456:
	.loc 1 338 0
	lwz 9,0(3)
.LBE5456:
.LBE5455:
.LBE5454:
	.loc 1 990 0
	stw 29,20(1)
.LBB5477:
.LBB5459:
.LBB5457:
	.loc 3 522 0
	mr 29,27
	.cfi_offset 29, -12
	.loc 1 338 0
	lwz 0,8(9)
.LBE5457:
.LBE5459:
.LBE5477:
	.loc 1 990 0
	stw 31,28(1)
	stw 30,24(1)
.LBB5478:
.LBB5460:
.LBB5458:
	.loc 1 338 0
	mtctr 0
.LEHB24:
	.cfi_offset 30, -8
	.cfi_offset 31, -4
	bctrl
.LEHE24:
.LVL304:
	.loc 3 522 0
	lwzu 31,4(29)
.LVL305:
.LBE5458:
.LBE5460:
	.loc 1 996 0
	cmpw 7,31,29
	bne+ 7,.L234
	b .L223
.LVL306:
.L224:
	.loc 1 996 0 is_stmt 0 discriminator 1
	cmpw 7,29,30
	beq- 7,.L223
.L232:
	.loc 1 996 0
	mr 31,30
.LVL307:
.L234:
.LBB5461:
	.loc 1 1001 0 is_stmt 1
	lwz 3,8(31)
.LBB5462:
.LBB5463:
	.loc 4 154 0
	lwz 30,0(31)
.LVL308:
.LBE5463:
.LBE5462:
	.loc 1 1001 0
	lwz 9,0(3)
	lwz 0,8(9)
	mtctr 0
.LEHB25:
	bctrl
.LVL309:
	cmpw 7,28,3
	bne+ 7,.L224
.LVL310:
	.loc 1 1003 0
	lwz 3,8(31)
	cmpwi 7,3,0
	beq- 7,.L225
	.loc 1 1003 0 is_stmt 0 discriminator 1
	lwz 9,0(3)
	lwz 0,4(9)
	mtctr 0
	bctrl
.LEHE25:
.L225:
.LVL311:
.LBB5464:
.LBB5465:
.LBB5466:
.LBB5467:
	.loc 4 1532 0 is_stmt 1
	mr 3,31
	bl _ZNSt8__detail15_List_node_base9_M_unhookEv
.LVL312:
.LBB5468:
.LBB5469:
.LBB5470:
	.loc 8 98 0
	mr 3,31
	bl _ZdlPv
.LVL313:
.LBE5470:
.LBE5469:
.LBE5468:
.LBE5467:
.LBE5466:
.LBE5465:
.LBE5464:
.LBE5461:
	.loc 1 996 0
	cmpw 7,29,30
	bne+ 7,.L232
.LVL314:
.L223:
.LBB5471:
.LBB5472:
.LBB5473:
	.loc 1 343 0
	lwz 9,0(27)
	mr 3,27
	lwz 0,12(9)
	mtctr 0
.LEHB26:
	bctrl
.LEHE26:
.LBE5473:
.LBE5472:
.LBE5471:
.LBE5478:
	.loc 1 1010 0
	lwz 0,36(1)
	lwz 27,12(1)
.LVL315:
	mtlr 0
	lwz 28,16(1)
.LVL316:
	lwz 29,20(1)
.LVL317:
	lwz 30,24(1)
	lwz 31,28(1)
	addi 1,1,32
	.cfi_remember_state
.LCFI83:
	.cfi_def_cfa_offset 0
	.cfi_restore 31
	.cfi_restore 30
	.cfi_restore 29
	.cfi_restore 28
	.cfi_restore 27
	blr
.LVL318:
.L233:
.LCFI84:
	.cfi_restore_state
.LBB5479:
.LBB5474:
.LBB5475:
.LBB5476:
	.loc 1 343 0
	lwz 9,0(27)
	mr 31,3
.LVL319:
	mr 3,27
	lwz 0,12(9)
	mtctr 0
	bctrl
	mr 3,31
.LEHB27:
	bl _Unwind_Resume
.LEHE27:
.LBE5476:
.LBE5475:
.LBE5474:
.LBE5479:
	.cfi_endproc
.LFE2602:
	.section	.gcc_except_table
.LLSDA2602:
	.byte	0xff
	.byte	0xff
	.byte	0x1
	.uleb128 .LLSDACSE2602-.LLSDACSB2602
.LLSDACSB2602:
	.uleb128 .LEHB24-.LFB2602
	.uleb128 .LEHE24-.LEHB24
	.uleb128 0
	.uleb128 0
	.uleb128 .LEHB25-.LFB2602
	.uleb128 .LEHE25-.LEHB25
	.uleb128 .L233-.LFB2602
	.uleb128 0
	.uleb128 .LEHB26-.LFB2602
	.uleb128 .LEHE26-.LEHB26
	.uleb128 0
	.uleb128 0
	.uleb128 .LEHB27-.LFB2602
	.uleb128 .LEHE27-.LEHB27
	.uleb128 0
	.uleb128 0
.LLSDACSE2602:
	.section	.text._ZN7sigslot13_signal_base3IP10GuiElementiiNS_15single_threadedEE15slot_disconnectEPNS_9has_slotsIS3_EE,"axG",@progbits,_ZN7sigslot13_signal_base3IP10GuiElementiiNS_15single_threadedEE15slot_disconnectEPNS_9has_slotsIS3_EE,comdat
	.size	_ZN7sigslot13_signal_base3IP10GuiElementiiNS_15single_threadedEE15slot_disconnectEPNS_9has_slotsIS3_EE, .-_ZN7sigslot13_signal_base3IP10GuiElementiiNS_15single_threadedEE15slot_disconnectEPNS_9has_slotsIS3_EE
	.section	.text._ZN7sigslot13_signal_base2IP10GuiElementbNS_15single_threadedEE15slot_disconnectEPNS_9has_slotsIS3_EE,"axG",@progbits,_ZN7sigslot13_signal_base2IP10GuiElementbNS_15single_threadedEE15slot_disconnectEPNS_9has_slotsIS3_EE,comdat
	.align 2
	.weak	_ZN7sigslot13_signal_base2IP10GuiElementbNS_15single_threadedEE15slot_disconnectEPNS_9has_slotsIS3_EE
	.type	_ZN7sigslot13_signal_base2IP10GuiElementbNS_15single_threadedEE15slot_disconnectEPNS_9has_slotsIS3_EE, @function
_ZN7sigslot13_signal_base2IP10GuiElementbNS_15single_threadedEE15slot_disconnectEPNS_9has_slotsIS3_EE:
.LFB2604:
	.loc 1 870 0
	.cfi_startproc
	.cfi_personality 0,__gxx_personality_v0
	.cfi_lsda 0,.LLSDA2604
.LVL320:
	mflr 0
	stwu 1,-32(1)
.LCFI85:
	.cfi_def_cfa_offset 32
	.cfi_register 65, 0
	stw 27,12(1)
	mr 27,3
	.cfi_offset 27, -20
.LVL321:
	stw 0,36(1)
	stw 28,16(1)
	mr 28,4
	.cfi_offset 28, -16
	.cfi_offset 65, 4
.LBB5480:
.LBB5481:
.LBB5482:
	.loc 1 338 0
	lwz 9,0(3)
.LBE5482:
.LBE5481:
.LBE5480:
	.loc 1 870 0
	stw 29,20(1)
.LBB5503:
.LBB5485:
.LBB5483:
	.loc 3 522 0
	mr 29,27
	.cfi_offset 29, -12
	.loc 1 338 0
	lwz 0,8(9)
.LBE5483:
.LBE5485:
.LBE5503:
	.loc 1 870 0
	stw 31,28(1)
	stw 30,24(1)
.LBB5504:
.LBB5486:
.LBB5484:
	.loc 1 338 0
	mtctr 0
.LEHB28:
	.cfi_offset 30, -8
	.cfi_offset 31, -4
	bctrl
.LEHE28:
.LVL322:
	.loc 3 522 0
	lwzu 31,4(29)
.LVL323:
.LBE5484:
.LBE5486:
	.loc 1 876 0
	cmpw 7,31,29
	bne+ 7,.L247
	b .L236
.LVL324:
.L237:
	.loc 1 876 0 is_stmt 0 discriminator 1
	cmpw 7,29,30
	beq- 7,.L236
.L245:
	.loc 1 876 0
	mr 31,30
.LVL325:
.L247:
.LBB5487:
	.loc 1 881 0 is_stmt 1
	lwz 3,8(31)
.LBB5488:
.LBB5489:
	.loc 4 154 0
	lwz 30,0(31)
.LVL326:
.LBE5489:
.LBE5488:
	.loc 1 881 0
	lwz 9,0(3)
	lwz 0,8(9)
	mtctr 0
.LEHB29:
	bctrl
.LVL327:
	cmpw 7,28,3
	bne+ 7,.L237
.LVL328:
	.loc 1 883 0
	lwz 3,8(31)
	cmpwi 7,3,0
	beq- 7,.L238
	.loc 1 883 0 is_stmt 0 discriminator 1
	lwz 9,0(3)
	lwz 0,4(9)
	mtctr 0
	bctrl
.LEHE29:
.L238:
.LVL329:
.LBB5490:
.LBB5491:
.LBB5492:
.LBB5493:
	.loc 4 1532 0 is_stmt 1
	mr 3,31
	bl _ZNSt8__detail15_List_node_base9_M_unhookEv
.LVL330:
.LBB5494:
.LBB5495:
.LBB5496:
	.loc 8 98 0
	mr 3,31
	bl _ZdlPv
.LVL331:
.LBE5496:
.LBE5495:
.LBE5494:
.LBE5493:
.LBE5492:
.LBE5491:
.LBE5490:
.LBE5487:
	.loc 1 876 0
	cmpw 7,29,30
	bne+ 7,.L245
.LVL332:
.L236:
.LBB5497:
.LBB5498:
.LBB5499:
	.loc 1 343 0
	lwz 9,0(27)
	mr 3,27
	lwz 0,12(9)
	mtctr 0
.LEHB30:
	bctrl
.LEHE30:
.LBE5499:
.LBE5498:
.LBE5497:
.LBE5504:
	.loc 1 890 0
	lwz 0,36(1)
	lwz 27,12(1)
.LVL333:
	mtlr 0
	lwz 28,16(1)
.LVL334:
	lwz 29,20(1)
.LVL335:
	lwz 30,24(1)
	lwz 31,28(1)
	addi 1,1,32
	.cfi_remember_state
.LCFI86:
	.cfi_def_cfa_offset 0
	.cfi_restore 31
	.cfi_restore 30
	.cfi_restore 29
	.cfi_restore 28
	.cfi_restore 27
	blr
.LVL336:
.L246:
.LCFI87:
	.cfi_restore_state
.LBB5505:
.LBB5500:
.LBB5501:
.LBB5502:
	.loc 1 343 0
	lwz 9,0(27)
	mr 31,3
.LVL337:
	mr 3,27
	lwz 0,12(9)
	mtctr 0
	bctrl
	mr 3,31
.LEHB31:
	bl _Unwind_Resume
.LEHE31:
.LBE5502:
.LBE5501:
.LBE5500:
.LBE5505:
	.cfi_endproc
.LFE2604:
	.section	.gcc_except_table
.LLSDA2604:
	.byte	0xff
	.byte	0xff
	.byte	0x1
	.uleb128 .LLSDACSE2604-.LLSDACSB2604
.LLSDACSB2604:
	.uleb128 .LEHB28-.LFB2604
	.uleb128 .LEHE28-.LEHB28
	.uleb128 0
	.uleb128 0
	.uleb128 .LEHB29-.LFB2604
	.uleb128 .LEHE29-.LEHB29
	.uleb128 .L246-.LFB2604
	.uleb128 0
	.uleb128 .LEHB30-.LFB2604
	.uleb128 .LEHE30-.LEHB30
	.uleb128 0
	.uleb128 0
	.uleb128 .LEHB31-.LFB2604
	.uleb128 .LEHE31-.LEHB31
	.uleb128 0
	.uleb128 0
.LLSDACSE2604:
	.section	.text._ZN7sigslot13_signal_base2IP10GuiElementbNS_15single_threadedEE15slot_disconnectEPNS_9has_slotsIS3_EE,"axG",@progbits,_ZN7sigslot13_signal_base2IP10GuiElementbNS_15single_threadedEE15slot_disconnectEPNS_9has_slotsIS3_EE,comdat
	.size	_ZN7sigslot13_signal_base2IP10GuiElementbNS_15single_threadedEE15slot_disconnectEPNS_9has_slotsIS3_EE, .-_ZN7sigslot13_signal_base2IP10GuiElementbNS_15single_threadedEE15slot_disconnectEPNS_9has_slotsIS3_EE
	.section	.text._ZN10GuiElement10ResetStateEv,"axG",@progbits,_ZN10GuiElement10ResetStateEv,comdat
	.align 2
	.weak	_ZN10GuiElement10ResetStateEv
	.type	_ZN10GuiElement10ResetStateEv, @function
_ZN10GuiElement10ResetStateEv:
.LFB1402:
	.loc 2 183 0
	.cfi_startproc
.LVL338:
	mflr 0
	stwu 1,-8(1)
.LCFI88:
	.cfi_def_cfa_offset 8
	.cfi_register 65, 0
	stw 0,12(1)
	.loc 2 185 0
	lwz 0,72(3)
	.cfi_offset 65, 4
	cmpwi 7,0,4
	beq- 7,.L248
.LVL339:
.LBB5508:
.LBB5509:
	.loc 2 186 0
	lwz 9,0(3)
	li 4,0
	li 5,-1
	lwz 0,80(9)
	mtctr 0
	bctrl
.LVL340:
.L248:
.LBE5509:
.LBE5508:
	.loc 2 187 0
	lwz 0,12(1)
	addi 1,1,8
.LCFI89:
	.cfi_def_cfa_offset 0
	mtlr 0
	blr
	.cfi_endproc
.LFE1402:
	.size	_ZN10GuiElement10ResetStateEv, .-_ZN10GuiElement10ResetStateEv
	.section	".text"
	.align 2
	.globl _ZN15IconFileBrowser11SetSelectedEi
	.type	_ZN15IconFileBrowser11SetSelectedEi, @function
_ZN15IconFileBrowser11SetSelectedEi:
.LFB1624:
	.loc 3 292 0
	.cfi_startproc
.LVL341:
	.loc 3 293 0
	cmplwi 7,4,7
	.loc 3 292 0
	mflr 0
	stwu 1,-8(1)
.LCFI90:
	.cfi_def_cfa_offset 8
	.cfi_register 65, 0
	stw 0,12(1)
	.loc 3 293 0
	bgt+ 7,.L250
	.cfi_offset 65, 4
.LVL342:
.LBB5514:
.LBB5515:
	.loc 3 297 0
	lwz 9,248(3)
	slwi 0,4,2
	li 5,-1
	lwzx 11,9,0
	.loc 3 296 0
	stw 4,192(3)
.LVL343:
	.loc 3 297 0
	li 4,1
.LVL344:
	lwz 9,0(11)
	mr 3,11
.LVL345:
	lwz 0,80(9)
	mtctr 0
	bctrl
.L250:
.LBE5515:
.LBE5514:
	.loc 3 298 0
	lwz 0,12(1)
	addi 1,1,8
.LCFI91:
	.cfi_def_cfa_offset 0
	mtlr 0
	blr
	.cfi_endproc
.LFE1624:
	.size	_ZN15IconFileBrowser11SetSelectedEi, .-_ZN15IconFileBrowser11SetSelectedEi
	.align 2
	.globl _ZN15IconFileBrowser4DrawEv
	.type	_ZN15IconFileBrowser4DrawEv, @function
_ZN15IconFileBrowser4DrawEv:
.LFB1628:
	.loc 3 419 0
	.cfi_startproc
.LVL346:
	mflr 0
	stwu 1,-16(1)
.LCFI92:
	.cfi_def_cfa_offset 16
	.cfi_register 65, 0
	stw 31,12(1)
	mr 31,3
	.cfi_offset 31, -4
	stw 0,20(1)
	stw 30,8(1)
.LBB5530:
	.loc 3 420 0
	lwz 9,0(3)
	lwz 0,52(9)
	.cfi_offset 30, -8
	.cfi_offset 65, 4
	mtctr 0
	bctrl
.LVL347:
	cmpwi 7,3,0
	bne- 7,.L259
.LBE5530:
	.loc 3 433 0
	lwz 0,20(1)
	lwz 30,8(1)
	mtlr 0
	lwz 31,12(1)
.LVL348:
	addi 1,1,16
	.cfi_remember_state
.LCFI93:
	.cfi_def_cfa_offset 0
	.cfi_restore 31
	.cfi_restore 30
	blr
.LVL349:
.L259:
.LCFI94:
	.cfi_restore_state
.LBB5531:
.LBB5532:
	.loc 3 423 0
	lwz 3,272(31)
	lwz 9,0(3)
	lwz 0,192(9)
	mtctr 0
	bctrl
.LVL350:
.LBE5532:
	.loc 3 522 0
	lwz 9,248(31)
.LBB5542:
.LBB5533:
.LBB5534:
.LBB5535:
	.loc 7 571 0
	lwz 0,252(31)
	subf 0,9,0
.LBE5535:
.LBE5534:
	.loc 3 425 0
	srwi. 11,0,2
	beq- 0,.L254
	li 30,0
.LVL351:
.L255:
	.loc 3 426 0
	slwi 0,30,2
	.loc 3 425 0
	addi 30,30,1
.LVL352:
	.loc 3 426 0
	lwzx 3,9,0
	lwz 9,0(3)
	lwz 0,192(9)
	mtctr 0
	bctrl
.LVL353:
.LBE5533:
.LBE5542:
	.loc 3 522 0
	lwz 9,248(31)
.LBB5543:
.LBB5538:
.LBB5537:
.LBB5536:
	.loc 7 571 0
	lwz 0,252(31)
	subf 0,9,0
	srawi 0,0,2
.LBE5536:
.LBE5537:
	.loc 3 425 0
	cmplw 7,30,0
	blt+ 7,.L255
.LVL354:
.LBE5538:
.LBB5539:
	.loc 3 429 0
	cmpwi 7,0,0
	beq- 7,.L254
	li 30,0
.LVL355:
.L256:
	.loc 3 430 0
	lwz 9,260(31)
	slwi 0,30,2
	.loc 3 429 0
	addi 30,30,1
.LVL356:
	.loc 3 430 0
	lwzx 3,9,0
	lwz 9,0(3)
	lwz 0,192(9)
	mtctr 0
	bctrl
.LVL357:
.LBB5540:
.LBB5541:
	.loc 7 571 0
	lwz 9,252(31)
	lwz 0,248(31)
	subf 0,0,9
	srawi 0,0,2
.LBE5541:
.LBE5540:
	.loc 3 429 0
	cmplw 7,30,0
	blt+ 7,.L256
.LVL358:
.L254:
.LBE5539:
	.loc 3 432 0
	lwz 9,0(31)
	mr 3,31
	lwz 0,196(9)
	mtctr 0
	bctrl
.LBE5543:
.LBE5531:
	.loc 3 433 0
	lwz 0,20(1)
	lwz 30,8(1)
	mtlr 0
	lwz 31,12(1)
.LVL359:
	addi 1,1,16
	.cfi_restore 30
	.cfi_restore 31
.LCFI95:
	.cfi_def_cfa_offset 0
	blr
	.cfi_endproc
.LFE1628:
	.size	_ZN15IconFileBrowser4DrawEv, .-_ZN15IconFileBrowser4DrawEv
	.align 2
	.globl _ZN15IconFileBrowser20OnTaskbarStateChangeEP7TaskBari
	.type	_ZN15IconFileBrowser20OnTaskbarStateChangeEP7TaskBari, @function
_ZN15IconFileBrowser20OnTaskbarStateChangeEP7TaskBari:
.LFB1630:
	.loc 3 501 0
	.cfi_startproc
.LVL360:
	mflr 0
	stwu 1,-24(1)
.LCFI96:
	.cfi_def_cfa_offset 24
	.cfi_register 65, 0
.LBB5576:
	.loc 3 502 0
	cmpwi 7,5,1
.LBE5576:
	.loc 3 501 0
	stw 31,20(1)
	mr 31,3
	.cfi_offset 31, -4
	stw 0,28(1)
	stw 29,12(1)
	stw 30,16(1)
.LBB5602:
.LBB5603:
.LBB5604:
.LBB5605:
	.loc 3 505 0
	lhz 0,190(3)
	.cfi_offset 30, -8
	.cfi_offset 29, -12
	.cfi_offset 65, 4
.LBE5605:
.LBE5604:
.LBE5603:
.LBE5602:
.LBB5623:
	.loc 3 502 0
	beq- 7,.L261
.LVL361:
.LBB5577:
.LBB5578:
	.loc 3 510 0 discriminator 1
	cmpwi 7,0,0
	beq- 7,.L263
.LBE5578:
.LBE5577:
.LBE5623:
.LBB5624:
.LBB5619:
.LBB5615:
.LBB5610:
	.loc 3 522 0
	lwz 9,248(3)
.LBE5610:
.LBE5615:
.LBE5619:
.LBE5624:
.LBB5625:
.LBB5601:
.LBB5592:
	.loc 3 510 0
	li 30,0
.LBB5579:
.LBB5580:
	.loc 7 571 0
	lwz 0,252(3)
	subf 0,9,0
.LBE5580:
.LBE5579:
	.loc 3 510 0
	cmpwi 7,0,3
	ble- 7,.L263
.LVL362:
.L272:
	.loc 3 511 0 discriminator 5
	slwi 0,30,2
	.loc 3 510 0 discriminator 5
	addi 30,30,1
.LVL363:
	.loc 3 511 0 discriminator 5
	lwzx 29,9,0
.LVL364:
.LBB5582:
.LBB5583:
.LBB5584:
	.file 9 "d:/Projects/SaveGameManager/savegame-manager-gx/trunk/source/GUI/../ImageOperations/../Tools/timer.h"
	.loc 9 61 0 discriminator 5
	bl gettime
.LVL365:
.LBE5584:
.LBE5583:
.LBE5582:
	.loc 3 510 0 discriminator 5
	lhz 0,190(31)
.LBB5589:
.LBB5587:
.LBB5585:
	.loc 9 61 0 discriminator 5
	stw 3,280(29)
.LBE5585:
.LBE5587:
.LBE5589:
	.loc 3 510 0 discriminator 5
	cmpw 7,0,30
.LBB5590:
.LBB5588:
.LBB5586:
	.loc 9 61 0 discriminator 5
	stw 4,284(29)
.LBE5586:
.LBE5588:
.LBE5590:
	.loc 3 510 0 discriminator 5
	ble- 7,.L263
	.loc 3 522 0 discriminator 2
	lwz 9,248(31)
.LBB5591:
.LBB5581:
	.loc 7 571 0 discriminator 2
	lwz 0,252(31)
	subf 0,9,0
	srawi 0,0,2
.LBE5581:
.LBE5591:
	.loc 3 510 0 discriminator 2
	cmpw 7,30,0
	blt- 7,.L272
.LVL366:
.L263:
.LBE5592:
.LBB5593:
.LBB5594:
	.loc 3 520 0
	lis 9,.LC4@ha
	lwz 0,.LC4@l(9)
	stw 0,208(31)
.LVL367:
.LBB5595:
.LBB5596:
	.loc 9 61 0
	bl gettime
.LBE5596:
.LBE5595:
.LBE5594:
.LBE5593:
	.loc 3 514 0
	li 0,0
.LBB5600:
.LBB5599:
.LBB5598:
.LBB5597:
	.loc 9 61 0
	stw 3,200(31)
	stw 4,204(31)
.LBE5597:
.LBE5598:
.LBE5599:
.LBE5600:
	.loc 3 514 0
	stb 0,196(31)
.LVL368:
.L260:
.LBE5601:
.LBE5625:
	.loc 3 516 0
	lwz 0,28(1)
	lwz 29,12(1)
	mtlr 0
	lwz 30,16(1)
	lwz 31,20(1)
.LVL369:
	addi 1,1,24
	.cfi_remember_state
.LCFI97:
	.cfi_def_cfa_offset 0
	.cfi_restore 31
	.cfi_restore 30
	.cfi_restore 29
	blr
.LVL370:
.L261:
.LCFI98:
	.cfi_restore_state
.LBB5626:
.LBB5620:
.LBB5616:
.LBB5611:
	.loc 3 505 0
	cmpwi 7,0,0
.LBE5611:
	.loc 3 504 0
	stb 5,196(3)
.LVL371:
.LBB5612:
	.loc 3 505 0
	beq- 7,.L260
.LBE5612:
.LBE5616:
.LBE5620:
	.loc 3 522 0
	lwz 9,248(3)
.LBB5621:
.LBB5617:
.LBB5613:
	.loc 3 505 0
	li 30,0
.LBB5606:
.LBB5607:
	.loc 7 571 0
	lwz 0,252(3)
	subf 0,9,0
.LBE5607:
.LBE5606:
	.loc 3 505 0
	cmpwi 7,0,3
	ble- 7,.L260
.LVL372:
.L271:
	.loc 3 506 0
	slwi 0,30,2
	.loc 3 505 0
	addi 30,30,1
.LVL373:
	.loc 3 506 0
	lwzx 3,9,0
	lwz 9,0(3)
	lwz 0,92(9)
	mtctr 0
	bctrl
.LVL374:
	.loc 3 505 0
	lhz 0,190(31)
	cmpw 7,30,0
	bge- 7,.L260
.LBE5613:
.LBE5617:
.LBE5621:
	.loc 3 522 0
	lwz 9,248(31)
.LBB5622:
.LBB5618:
.LBB5614:
.LBB5609:
.LBB5608:
	.loc 7 571 0
	lwz 0,252(31)
	subf 0,9,0
	srawi 0,0,2
.LBE5608:
.LBE5609:
	.loc 3 505 0
	cmpw 7,30,0
	blt- 7,.L271
.LBE5614:
.LBE5618:
.LBE5622:
.LBE5626:
	.loc 3 516 0
	lwz 0,28(1)
	lwz 29,12(1)
	mtlr 0
	lwz 30,16(1)
.LVL375:
	lwz 31,20(1)
.LVL376:
	addi 1,1,24
	.cfi_restore 29
	.cfi_restore 30
	.cfi_restore 31
.LCFI99:
	.cfi_def_cfa_offset 0
	blr
	.cfi_endproc
.LFE1630:
	.size	_ZN15IconFileBrowser20OnTaskbarStateChangeEP7TaskBari, .-_ZN15IconFileBrowser20OnTaskbarStateChangeEP7TaskBari
	.align 2
	.type	_ZN15IconFileBrowser14GetIconFromExtESsb.constprop.273, @function
_ZN15IconFileBrowser14GetIconFromExtESsb.constprop.273:
.LFB2902:
	.loc 3 101 0
	.cfi_startproc
	.cfi_personality 0,__gxx_personality_v0
	.cfi_lsda 0,.LLSDA2902
.LVL377:
	.loc 3 103 0
	cmpwi 7,5,0
	.loc 3 101 0
	mflr 0
	stwu 1,-24(1)
.LCFI100:
	.cfi_def_cfa_offset 24
	.cfi_register 65, 0
	stw 30,16(1)
	mr 30,3
	.cfi_offset 30, -8
	stw 31,20(1)
	mr 31,4
	.cfi_offset 31, -4
	stw 0,28(1)
	stw 29,12(1)
	.loc 3 103 0
	bne- 7,.L311
	.cfi_offset 29, -12
	.cfi_offset 65, 4
.LVL378:
.LBB5627:
.LBB5628:
.LBB5629:
	.file 10 "d:\\devkitpro\\devkitppc\\bin\\../lib/gcc/powerpc-eabi/4.6.3/../../../../powerpc-eabi/include/c++/4.6.3/bits/basic_string.h"
	.loc 10 711 0
	lwz 9,0(4)
.LBE5629:
.LBE5628:
.LBE5627:
	.loc 3 106 0
	lwz 0,-12(9)
	cmpwi 7,0,0
	bne- 7,.L312
.LVL379:
.L277:
	.loc 3 147 0
	li 3,196
.LEHB32:
	bl _Znwj
.LEHE32:
	lwz 4,288(30)
	mr 31,3
.LVL380:
.LEHB33:
	bl _ZN8GuiImageC1EP12GuiImageData
.LEHE33:
.L276:
	.loc 3 148 0
	lwz 0,28(1)
	mr 3,31
	lwz 29,12(1)
	mtlr 0
	lwz 30,16(1)
.LVL381:
	lwz 31,20(1)
	addi 1,1,24
	.cfi_remember_state
.LCFI101:
	.cfi_def_cfa_offset 0
	.cfi_restore 31
	.cfi_restore 30
	.cfi_restore 29
	blr
.LVL382:
.L312:
.LCFI102:
	.cfi_restore_state
	.loc 3 108 0
	mr 3,4
.LVL383:
	lis 4,.LC5@ha
.LVL384:
	la 4,.LC5@l(4)
.LEHB34:
	bl _ZNKSs7compareEPKc
.LVL385:
	cmpwi 7,3,0
	beq- 7,.L313
.LVL386:
	.loc 3 112 0
	lis 29,Settings+2580@ha
	lwz 4,0(31)
	la 29,Settings+2580@l(29)
	mr 3,29
	bl _ZN16CFilesExtensions15CompareHomebrewEPKc
	cmpwi 7,3,0
	bne- 7,.L279
	.loc 3 114 0
	li 3,196
	bl _Znwj
.LEHE34:
	lwz 4,292(30)
	mr 31,3
.LVL387:
.LEHB35:
	bl _ZN8GuiImageC1EP12GuiImageData
.LEHE35:
	b .L276
.LVL388:
.L311:
	.loc 3 104 0
	li 3,196
.LEHB36:
	bl _Znwj
.LEHE36:
.LVL389:
	lwz 4,296(30)
	mr 31,3
.LVL390:
.LEHB37:
	bl _ZN8GuiImageC1EP12GuiImageData
.LEHE37:
	.loc 3 148 0
	lwz 0,28(1)
	mr 3,31
	lwz 29,12(1)
	mtlr 0
	lwz 30,16(1)
.LVL391:
	lwz 31,20(1)
	addi 1,1,24
	.cfi_remember_state
	.cfi_restore 29
	.cfi_restore 30
	.cfi_restore 31
.LCFI103:
	.cfi_def_cfa_offset 0
	blr
.LVL392:
.L313:
.LCFI104:
	.cfi_restore_state
	.loc 3 110 0
	li 3,196
.LEHB38:
	bl _Znwj
.LEHE38:
	lwz 4,280(30)
	mr 31,3
.LVL393:
.LEHB39:
	bl _ZN8GuiImageC1EP12GuiImageData
.LEHE39:
	.loc 3 148 0
	lwz 0,28(1)
	mr 3,31
	lwz 29,12(1)
	mtlr 0
	lwz 30,16(1)
.LVL394:
	lwz 31,20(1)
	addi 1,1,24
	.cfi_remember_state
	.cfi_restore 29
	.cfi_restore 30
	.cfi_restore 31
.LCFI105:
	.cfi_def_cfa_offset 0
	blr
.LVL395:
.L279:
.LCFI106:
	.cfi_restore_state
	.loc 3 116 0
	lwz 4,0(31)
	mr 3,29
.LEHB40:
	bl _ZN16CFilesExtensions11CompareFontEPKc
	cmpwi 7,3,0
	beq- 7,.L314
.LVL396:
	.loc 3 120 0
	lwz 4,0(31)
	mr 3,29
	bl _ZN16CFilesExtensions12CompareImageEPKc
	cmpwi 7,3,0
	bne- 7,.L281
	.loc 3 122 0
	li 3,196
	bl _Znwj
.LEHE40:
	lwz 4,304(30)
	mr 31,3
.LVL397:
.LEHB41:
	bl _ZN8GuiImageC1EP12GuiImageData
.LEHE41:
	b .L276
.LVL398:
.L314:
	.loc 3 118 0
	li 3,196
.LEHB42:
	bl _Znwj
.LEHE42:
	lwz 4,300(30)
	mr 31,3
.LVL399:
.LEHB43:
	bl _ZN8GuiImageC1EP12GuiImageData
.LEHE43:
	b .L276
.LVL400:
.L281:
	.loc 3 124 0
	lwz 4,0(31)
	mr 3,29
.LEHB44:
	bl _ZN16CFilesExtensions20CompareLanguageFilesEPKc
	cmpwi 7,3,0
	bne- 7,.L282
	.loc 3 126 0
	li 3,196
	bl _Znwj
.LEHE44:
	lwz 4,308(30)
	mr 31,3
.LVL401:
.LEHB45:
	bl _ZN8GuiImageC1EP12GuiImageData
.LEHE45:
	b .L276
.LVL402:
.L282:
	.loc 3 128 0
	lwz 4,0(31)
	mr 3,29
.LEHB46:
	bl _ZN16CFilesExtensions12CompareAudioEPKc
	cmpwi 7,3,0
	bne- 7,.L283
	.loc 3 130 0
	li 3,196
	bl _Znwj
.LEHE46:
	lwz 4,316(30)
	mr 31,3
.LVL403:
.LEHB47:
	bl _ZN8GuiImageC1EP12GuiImageData
.LEHE47:
	b .L276
.LVL404:
.L283:
	.loc 3 132 0
	lwz 4,0(31)
	mr 3,29
.LEHB48:
	bl _ZN16CFilesExtensions17CompareThemeFilesEPKc
	cmpwi 7,3,0
	bne- 7,.L284
	.loc 3 134 0
	li 3,196
	bl _Znwj
.LEHE48:
	lwz 4,320(30)
	mr 31,3
.LVL405:
.LEHB49:
	bl _ZN8GuiImageC1EP12GuiImageData
.LEHE49:
	b .L276
.LVL406:
.L284:
	.loc 3 136 0
	lis 4,.LC6@ha
	mr 3,31
	la 4,.LC6@l(4)
.LEHB50:
	bl _ZNKSs7compareEPKc
	cmpwi 7,3,0
	bne- 7,.L315
.L285:
	.loc 3 139 0
	li 3,196
	bl _Znwj
.LEHE50:
	lwz 4,324(30)
	mr 31,3
.LVL407:
.LEHB51:
	bl _ZN8GuiImageC1EP12GuiImageData
.LEHE51:
	b .L276
.LVL408:
.L315:
	.loc 3 137 0
	lis 4,.LC7@ha
	mr 3,31
	la 4,.LC7@l(4)
.LEHB52:
	bl _ZNKSs7compareEPKc
	.loc 3 136 0
	cmpwi 7,3,0
	beq- 7,.L285
	.loc 3 141 0
	lis 4,.LC8@ha
	mr 3,31
	la 4,.LC8@l(4)
	bl _ZNKSs7compareEPKc
	cmpwi 7,3,0
	bne+ 7,.L277
	.loc 3 143 0
	li 3,196
	bl _Znwj
.LEHE52:
	lwz 4,328(30)
	mr 31,3
.LVL409:
.LEHB53:
	bl _ZN8GuiImageC1EP12GuiImageData
.LEHE53:
	b .L276
.L302:
.L310:
	mr 30,3
.LVL410:
	.loc 3 110 0
	mr 3,31
	bl _ZdlPv
	mr 3,30
.LEHB54:
	bl _Unwind_Resume
.LEHE54:
.LVL411:
.L301:
	b .L310
.L300:
	b .L310
.L308:
	b .L310
.L307:
	b .L310
.L309:
	b .L310
.L299:
	b .L310
.L305:
	b .L310
.L306:
	b .L310
.L304:
	b .L310
.L303:
	b .L310
	.cfi_endproc
.LFE2902:
	.section	.gcc_except_table
.LLSDA2902:
	.byte	0xff
	.byte	0xff
	.byte	0x1
	.uleb128 .LLSDACSE2902-.LLSDACSB2902
.LLSDACSB2902:
	.uleb128 .LEHB32-.LFB2902
	.uleb128 .LEHE32-.LEHB32
	.uleb128 0
	.uleb128 0
	.uleb128 .LEHB33-.LFB2902
	.uleb128 .LEHE33-.LEHB33
	.uleb128 .L299-.LFB2902
	.uleb128 0
	.uleb128 .LEHB34-.LFB2902
	.uleb128 .LEHE34-.LEHB34
	.uleb128 0
	.uleb128 0
	.uleb128 .LEHB35-.LFB2902
	.uleb128 .LEHE35-.LEHB35
	.uleb128 .L307-.LFB2902
	.uleb128 0
	.uleb128 .LEHB36-.LFB2902
	.uleb128 .LEHE36-.LEHB36
	.uleb128 0
	.uleb128 0
	.uleb128 .LEHB37-.LFB2902
	.uleb128 .LEHE37-.LEHB37
	.uleb128 .L309-.LFB2902
	.uleb128 0
	.uleb128 .LEHB38-.LFB2902
	.uleb128 .LEHE38-.LEHB38
	.uleb128 0
	.uleb128 0
	.uleb128 .LEHB39-.LFB2902
	.uleb128 .LEHE39-.LEHB39
	.uleb128 .L308-.LFB2902
	.uleb128 0
	.uleb128 .LEHB40-.LFB2902
	.uleb128 .LEHE40-.LEHB40
	.uleb128 0
	.uleb128 0
	.uleb128 .LEHB41-.LFB2902
	.uleb128 .LEHE41-.LEHB41
	.uleb128 .L305-.LFB2902
	.uleb128 0
	.uleb128 .LEHB42-.LFB2902
	.uleb128 .LEHE42-.LEHB42
	.uleb128 0
	.uleb128 0
	.uleb128 .LEHB43-.LFB2902
	.uleb128 .LEHE43-.LEHB43
	.uleb128 .L306-.LFB2902
	.uleb128 0
	.uleb128 .LEHB44-.LFB2902
	.uleb128 .LEHE44-.LEHB44
	.uleb128 0
	.uleb128 0
	.uleb128 .LEHB45-.LFB2902
	.uleb128 .LEHE45-.LEHB45
	.uleb128 .L304-.LFB2902
	.uleb128 0
	.uleb128 .LEHB46-.LFB2902
	.uleb128 .LEHE46-.LEHB46
	.uleb128 0
	.uleb128 0
	.uleb128 .LEHB47-.LFB2902
	.uleb128 .LEHE47-.LEHB47
	.uleb128 .L303-.LFB2902
	.uleb128 0
	.uleb128 .LEHB48-.LFB2902
	.uleb128 .LEHE48-.LEHB48
	.uleb128 0
	.uleb128 0
	.uleb128 .LEHB49-.LFB2902
	.uleb128 .LEHE49-.LEHB49
	.uleb128 .L302-.LFB2902
	.uleb128 0
	.uleb128 .LEHB50-.LFB2902
	.uleb128 .LEHE50-.LEHB50
	.uleb128 0
	.uleb128 0
	.uleb128 .LEHB51-.LFB2902
	.uleb128 .LEHE51-.LEHB51
	.uleb128 .L301-.LFB2902
	.uleb128 0
	.uleb128 .LEHB52-.LFB2902
	.uleb128 .LEHE52-.LEHB52
	.uleb128 0
	.uleb128 0
	.uleb128 .LEHB53-.LFB2902
	.uleb128 .LEHE53-.LEHB53
	.uleb128 .L300-.LFB2902
	.uleb128 0
	.uleb128 .LEHB54-.LFB2902
	.uleb128 .LEHE54-.LEHB54
	.uleb128 0
	.uleb128 0
.LLSDACSE2902:
	.section	".text"
	.size	_ZN15IconFileBrowser14GetIconFromExtESsb.constprop.273, .-_ZN15IconFileBrowser14GetIconFromExtESsb.constprop.273
	.align 2
	.globl _ZN15IconFileBrowser14GetIconFromExtESsb
	.type	_ZN15IconFileBrowser14GetIconFromExtESsb, @function
_ZN15IconFileBrowser14GetIconFromExtESsb:
.LFB1619:
	.loc 3 102 0
	.cfi_startproc
	.cfi_personality 0,__gxx_personality_v0
	.cfi_lsda 0,.LLSDA1619
.LVL412:
	.loc 3 103 0
	cmpwi 7,5,0
	.loc 3 102 0
	mflr 0
	stwu 1,-24(1)
.LCFI107:
	.cfi_def_cfa_offset 24
	.cfi_register 65, 0
	stw 30,16(1)
	mr 30,3
	.cfi_offset 30, -8
	stw 31,20(1)
	mr 31,4
	.cfi_offset 31, -4
	stw 0,28(1)
	stw 29,12(1)
	.loc 3 103 0
	bne- 7,.L353
	.cfi_offset 29, -12
	.cfi_offset 65, 4
.LVL413:
.LBB5630:
.LBB5631:
.LBB5632:
	.loc 10 711 0
	lwz 9,0(4)
.LBE5632:
.LBE5631:
.LBE5630:
	.loc 3 106 0
	lwz 0,-12(9)
	cmpwi 7,0,0
	bne- 7,.L354
.LVL414:
.L319:
	.loc 3 147 0
	li 3,196
.LEHB55:
	bl _Znwj
.LEHE55:
	lwz 4,288(30)
	mr 31,3
.LVL415:
.LEHB56:
	bl _ZN8GuiImageC1EP12GuiImageData
.LEHE56:
.L318:
	.loc 3 148 0
	lwz 0,28(1)
	mr 3,31
	lwz 29,12(1)
	mtlr 0
	lwz 30,16(1)
.LVL416:
	lwz 31,20(1)
	addi 1,1,24
	.cfi_remember_state
.LCFI108:
	.cfi_def_cfa_offset 0
	.cfi_restore 31
	.cfi_restore 30
	.cfi_restore 29
	blr
.LVL417:
.L354:
.LCFI109:
	.cfi_restore_state
	.loc 3 108 0
	mr 3,4
.LVL418:
	lis 4,.LC5@ha
.LVL419:
	la 4,.LC5@l(4)
.LEHB57:
	bl _ZNKSs7compareEPKc
.LVL420:
	cmpwi 7,3,0
	beq- 7,.L355
.LVL421:
	.loc 3 112 0
	lis 29,Settings+2580@ha
	lwz 4,0(31)
	la 29,Settings+2580@l(29)
	mr 3,29
	bl _ZN16CFilesExtensions15CompareHomebrewEPKc
	cmpwi 7,3,0
	bne- 7,.L321
	.loc 3 114 0
	li 3,196
	bl _Znwj
.LEHE57:
	lwz 4,292(30)
	mr 31,3
.LVL422:
.LEHB58:
	bl _ZN8GuiImageC1EP12GuiImageData
.LEHE58:
	b .L318
.LVL423:
.L353:
	.loc 3 104 0
	li 3,196
.LEHB59:
	bl _Znwj
.LEHE59:
.LVL424:
	lwz 4,296(30)
	mr 31,3
.LVL425:
.LEHB60:
	bl _ZN8GuiImageC1EP12GuiImageData
.LEHE60:
	.loc 3 148 0
	lwz 0,28(1)
	mr 3,31
	lwz 29,12(1)
	mtlr 0
	lwz 30,16(1)
.LVL426:
	lwz 31,20(1)
	addi 1,1,24
	.cfi_remember_state
	.cfi_restore 29
	.cfi_restore 30
	.cfi_restore 31
.LCFI110:
	.cfi_def_cfa_offset 0
	blr
.LVL427:
.L355:
.LCFI111:
	.cfi_restore_state
	.loc 3 110 0
	li 3,196
.LEHB61:
	bl _Znwj
.LEHE61:
	lwz 4,280(30)
	mr 31,3
.LVL428:
.LEHB62:
	bl _ZN8GuiImageC1EP12GuiImageData
.LEHE62:
	.loc 3 148 0
	lwz 0,28(1)
	mr 3,31
	lwz 29,12(1)
	mtlr 0
	lwz 30,16(1)
.LVL429:
	lwz 31,20(1)
	addi 1,1,24
	.cfi_remember_state
	.cfi_restore 29
	.cfi_restore 30
	.cfi_restore 31
.LCFI112:
	.cfi_def_cfa_offset 0
	blr
.LVL430:
.L321:
.LCFI113:
	.cfi_restore_state
	.loc 3 116 0
	lwz 4,0(31)
	mr 3,29
.LEHB63:
	bl _ZN16CFilesExtensions11CompareFontEPKc
	cmpwi 7,3,0
	beq- 7,.L356
.LVL431:
	.loc 3 120 0
	lwz 4,0(31)
	mr 3,29
	bl _ZN16CFilesExtensions12CompareImageEPKc
	cmpwi 7,3,0
	bne- 7,.L323
	.loc 3 122 0
	li 3,196
	bl _Znwj
.LEHE63:
	lwz 4,304(30)
	mr 31,3
.LVL432:
.LEHB64:
	bl _ZN8GuiImageC1EP12GuiImageData
.LEHE64:
	b .L318
.LVL433:
.L356:
	.loc 3 118 0
	li 3,196
.LEHB65:
	bl _Znwj
.LEHE65:
	lwz 4,300(30)
	mr 31,3
.LVL434:
.LEHB66:
	bl _ZN8GuiImageC1EP12GuiImageData
.LEHE66:
	b .L318
.LVL435:
.L323:
	.loc 3 124 0
	lwz 4,0(31)
	mr 3,29
.LEHB67:
	bl _ZN16CFilesExtensions20CompareLanguageFilesEPKc
	cmpwi 7,3,0
	bne- 7,.L324
	.loc 3 126 0
	li 3,196
	bl _Znwj
.LEHE67:
	lwz 4,308(30)
	mr 31,3
.LVL436:
.LEHB68:
	bl _ZN8GuiImageC1EP12GuiImageData
.LEHE68:
	b .L318
.LVL437:
.L324:
	.loc 3 128 0
	lwz 4,0(31)
	mr 3,29
.LEHB69:
	bl _ZN16CFilesExtensions12CompareAudioEPKc
	cmpwi 7,3,0
	bne- 7,.L325
	.loc 3 130 0
	li 3,196
	bl _Znwj
.LEHE69:
	lwz 4,316(30)
	mr 31,3
.LVL438:
.LEHB70:
	bl _ZN8GuiImageC1EP12GuiImageData
.LEHE70:
	b .L318
.LVL439:
.L325:
	.loc 3 132 0
	lwz 4,0(31)
	mr 3,29
.LEHB71:
	bl _ZN16CFilesExtensions17CompareThemeFilesEPKc
	cmpwi 7,3,0
	bne- 7,.L326
	.loc 3 134 0
	li 3,196
	bl _Znwj
.LEHE71:
	lwz 4,320(30)
	mr 31,3
.LVL440:
.LEHB72:
	bl _ZN8GuiImageC1EP12GuiImageData
.LEHE72:
	b .L318
.LVL441:
.L326:
	.loc 3 136 0
	lis 4,.LC6@ha
	mr 3,31
	la 4,.LC6@l(4)
.LEHB73:
	bl _ZNKSs7compareEPKc
	cmpwi 7,3,0
	bne- 7,.L357
.L327:
	.loc 3 139 0 discriminator 4
	li 3,196
	bl _Znwj
.LEHE73:
	lwz 4,324(30)
	mr 31,3
.LVL442:
.LEHB74:
	bl _ZN8GuiImageC1EP12GuiImageData
.LEHE74:
	b .L318
.LVL443:
.L357:
	.loc 3 137 0 discriminator 2
	lis 4,.LC7@ha
	mr 3,31
	la 4,.LC7@l(4)
.LEHB75:
	bl _ZNKSs7compareEPKc
	.loc 3 136 0 discriminator 2
	cmpwi 7,3,0
	beq- 7,.L327
	.loc 3 141 0
	lis 4,.LC8@ha
	mr 3,31
	la 4,.LC8@l(4)
	bl _ZNKSs7compareEPKc
	cmpwi 7,3,0
	bne+ 7,.L319
	.loc 3 143 0
	li 3,196
	bl _Znwj
.LEHE75:
	lwz 4,328(30)
	mr 31,3
.LVL444:
.LEHB76:
	bl _ZN8GuiImageC1EP12GuiImageData
.LEHE76:
	b .L318
.L348:
.L352:
	mr 30,3
.LVL445:
	.loc 3 110 0
	mr 3,31
	bl _ZdlPv
	mr 3,30
.LEHB77:
	bl _Unwind_Resume
.LEHE77:
.LVL446:
.L349:
	b .L352
.L350:
	b .L352
.L342:
	b .L352
.L343:
	b .L352
.L341:
	b .L352
.L351:
	b .L352
.L345:
	b .L352
.L344:
	b .L352
.L346:
	b .L352
.L347:
	b .L352
	.cfi_endproc
.LFE1619:
	.section	.gcc_except_table
.LLSDA1619:
	.byte	0xff
	.byte	0xff
	.byte	0x1
	.uleb128 .LLSDACSE1619-.LLSDACSB1619
.LLSDACSB1619:
	.uleb128 .LEHB55-.LFB1619
	.uleb128 .LEHE55-.LEHB55
	.uleb128 0
	.uleb128 0
	.uleb128 .LEHB56-.LFB1619
	.uleb128 .LEHE56-.LEHB56
	.uleb128 .L351-.LFB1619
	.uleb128 0
	.uleb128 .LEHB57-.LFB1619
	.uleb128 .LEHE57-.LEHB57
	.uleb128 0
	.uleb128 0
	.uleb128 .LEHB58-.LFB1619
	.uleb128 .LEHE58-.LEHB58
	.uleb128 .L343-.LFB1619
	.uleb128 0
	.uleb128 .LEHB59-.LFB1619
	.uleb128 .LEHE59-.LEHB59
	.uleb128 0
	.uleb128 0
	.uleb128 .LEHB60-.LFB1619
	.uleb128 .LEHE60-.LEHB60
	.uleb128 .L341-.LFB1619
	.uleb128 0
	.uleb128 .LEHB61-.LFB1619
	.uleb128 .LEHE61-.LEHB61
	.uleb128 0
	.uleb128 0
	.uleb128 .LEHB62-.LFB1619
	.uleb128 .LEHE62-.LEHB62
	.uleb128 .L342-.LFB1619
	.uleb128 0
	.uleb128 .LEHB63-.LFB1619
	.uleb128 .LEHE63-.LEHB63
	.uleb128 0
	.uleb128 0
	.uleb128 .LEHB64-.LFB1619
	.uleb128 .LEHE64-.LEHB64
	.uleb128 .L345-.LFB1619
	.uleb128 0
	.uleb128 .LEHB65-.LFB1619
	.uleb128 .LEHE65-.LEHB65
	.uleb128 0
	.uleb128 0
	.uleb128 .LEHB66-.LFB1619
	.uleb128 .LEHE66-.LEHB66
	.uleb128 .L344-.LFB1619
	.uleb128 0
	.uleb128 .LEHB67-.LFB1619
	.uleb128 .LEHE67-.LEHB67
	.uleb128 0
	.uleb128 0
	.uleb128 .LEHB68-.LFB1619
	.uleb128 .LEHE68-.LEHB68
	.uleb128 .L346-.LFB1619
	.uleb128 0
	.uleb128 .LEHB69-.LFB1619
	.uleb128 .LEHE69-.LEHB69
	.uleb128 0
	.uleb128 0
	.uleb128 .LEHB70-.LFB1619
	.uleb128 .LEHE70-.LEHB70
	.uleb128 .L347-.LFB1619
	.uleb128 0
	.uleb128 .LEHB71-.LFB1619
	.uleb128 .LEHE71-.LEHB71
	.uleb128 0
	.uleb128 0
	.uleb128 .LEHB72-.LFB1619
	.uleb128 .LEHE72-.LEHB72
	.uleb128 .L348-.LFB1619
	.uleb128 0
	.uleb128 .LEHB73-.LFB1619
	.uleb128 .LEHE73-.LEHB73
	.uleb128 0
	.uleb128 0
	.uleb128 .LEHB74-.LFB1619
	.uleb128 .LEHE74-.LEHB74
	.uleb128 .L349-.LFB1619
	.uleb128 0
	.uleb128 .LEHB75-.LFB1619
	.uleb128 .LEHE75-.LEHB75
	.uleb128 0
	.uleb128 0
	.uleb128 .LEHB76-.LFB1619
	.uleb128 .LEHE76-.LEHB76
	.uleb128 .L350-.LFB1619
	.uleb128 0
	.uleb128 .LEHB77-.LFB1619
	.uleb128 .LEHE77-.LEHB77
	.uleb128 0
	.uleb128 0
.LLSDACSE1619:
	.section	".text"
	.size	_ZN15IconFileBrowser14GetIconFromExtESsb, .-_ZN15IconFileBrowser14GetIconFromExtESsb
	.align 2
	.globl _ZN15IconFileBrowser12RemoveButtonEi
	.type	_ZN15IconFileBrowser12RemoveButtonEi, @function
_ZN15IconFileBrowser12RemoveButtonEi:
.LFB1622:
	.loc 3 258 0
	.cfi_startproc
.LVL447:
	stwu 1,-24(1)
.LCFI114:
	.cfi_def_cfa_offset 24
	mflr 0
	stw 29,12(1)
	.loc 3 259 0
	mr. 29,4
	.cfi_offset 29, -12
	.cfi_register 65, 0
	.loc 3 258 0
	stw 31,20(1)
	mr 31,3
	.cfi_offset 31, -4
	stw 0,28(1)
	stw 30,16(1)
	.loc 3 259 0
	blt- 0,.L358
	.cfi_offset 30, -8
	.cfi_offset 65, 4
.LBB5771:
.LBB5772:
	.loc 7 571 0 discriminator 2
	lwz 9,252(3)
	lwz 0,248(3)
	subf 0,0,9
	srawi 0,0,2
.LBE5772:
.LBE5771:
	.loc 3 259 0 discriminator 2
	cmpw 7,0,29
	ble- 7,.L358
.LVL448:
.LBB5773:
.LBB5774:
	.loc 3 522 0
	lwz 9,236(3)
	lwz 11,240(3)
.LBB5775:
.LBB5776:
.LBB5777:
	.loc 7 571 0
	subf 0,9,11
	srawi 0,0,2
.LBE5777:
.LBE5776:
	.loc 7 718 0
	cmplw 7,29,0
	bge- 7,.L377
.LVL449:
.LBE5775:
.LBE5774:
.LBB5778:
.LBB5779:
	.loc 7 696 0
	slwi 30,29,2
.LBE5779:
.LBE5778:
.LBE5773:
	.loc 3 262 0
	lwzx 3,9,30
.LVL450:
.LBB5782:
.LBB5781:
.LBB5780:
	.loc 7 696 0
	add 9,9,30
.LBE5780:
.LBE5781:
.LBE5782:
	.loc 3 262 0
	cmpwi 7,3,0
	beq- 7,.L361
.LVL451:
	.loc 3 263 0
	lwz 9,0(3)
	lwz 0,4(9)
	mtctr 0
	bctrl
.LVL452:
	lwz 9,236(31)
	lwz 11,240(31)
	add 9,9,30
.LVL453:
.L361:
.LBB5783:
.LBB5784:
.LBB5785:
.LBB5786:
	.file 11 "d:\\devkitpro\\devkitppc\\bin\\../lib/gcc/powerpc-eabi/4.6.3/../../../../powerpc-eabi/include/c++/4.6.3/bits/stl_iterator.h"
	.loc 11 773 0
	addi 4,9,4
.LVL454:
.LBE5786:
.LBE5785:
	.file 12 "d:\\devkitpro\\devkitppc\\bin\\../lib/gcc/powerpc-eabi/4.6.3/../../../../powerpc-eabi/include/c++/4.6.3/bits/vector.tcc"
	.loc 12 138 0
	cmpw 7,4,11
	beq- 7,.L362
.LVL455:
.LBB5787:
.LBB5788:
.LBB5789:
.LBB5790:
.LBB5791:
.LBB5792:
	.file 13 "d:\\devkitpro\\devkitppc\\bin\\../lib/gcc/powerpc-eabi/4.6.3/../../../../powerpc-eabi/include/c++/4.6.3/bits/stl_algobase.h"
	.loc 13 364 0
	subf 5,4,11
.LVL456:
	.loc 13 365 0
	srawi. 5,5,2
.LVL457:
	bne- 0,.L378
.LVL458:
.L362:
.LBE5792:
.LBE5791:
.LBE5790:
.LBE5789:
.LBE5788:
.LBE5787:
.LBE5784:
.LBE5783:
.LBB5802:
.LBB5803:
	.loc 3 522 0
	lwz 10,212(31)
.LBE5803:
.LBE5802:
.LBB5811:
.LBB5799:
	.loc 12 140 0
	addi 11,11,-4
.LBE5799:
.LBE5811:
.LBB5812:
.LBB5807:
	.loc 3 522 0
	lwz 9,216(31)
.LBE5807:
.LBE5812:
.LBB5813:
.LBB5800:
	.loc 12 140 0
	stw 11,240(31)
.LVL459:
.LBE5800:
.LBE5813:
.LBB5814:
.LBB5808:
.LBB5804:
.LBB5805:
.LBB5806:
	.loc 7 571 0
	subf 0,10,9
	srawi 0,0,2
.LBE5806:
.LBE5805:
	.loc 7 718 0
	cmplw 7,29,0
	bge- 7,.L377
.LVL460:
.LBE5804:
.LBE5808:
.LBE5814:
	.loc 3 266 0
	lwzx 3,10,30
.LBB5815:
.LBB5809:
.LBB5810:
	.loc 7 696 0
	add 10,10,30
.LBE5810:
.LBE5809:
.LBE5815:
	.loc 3 266 0
	cmpwi 7,3,0
	beq- 7,.L364
.LVL461:
	.loc 3 267 0
	lwz 9,0(3)
	lwz 0,4(9)
	mtctr 0
	bctrl
	lwz 10,212(31)
	lwz 9,216(31)
	add 10,10,30
.LVL462:
.L364:
.LBB5816:
.LBB5817:
.LBB5818:
.LBB5819:
	.loc 11 773 0
	addi 4,10,4
.LVL463:
.LBE5819:
.LBE5818:
	.loc 12 138 0
	cmpw 7,9,4
	beq- 7,.L365
.LVL464:
.LBB5820:
.LBB5821:
.LBB5822:
.LBB5823:
.LBB5824:
.LBB5825:
	.loc 13 364 0
	subf 5,4,9
.LVL465:
	.loc 13 365 0
	srawi. 5,5,2
.LVL466:
	bne- 0,.L379
.LVL467:
.L365:
.LBE5825:
.LBE5824:
.LBE5823:
.LBE5822:
.LBE5821:
.LBE5820:
.LBE5817:
.LBE5816:
.LBB5835:
.LBB5836:
	.loc 3 522 0
	lwz 10,224(31)
.LBE5836:
.LBE5835:
.LBB5844:
.LBB5832:
	.loc 12 140 0
	addi 9,9,-4
.LBE5832:
.LBE5844:
.LBB5845:
.LBB5840:
	.loc 3 522 0
	lwz 11,228(31)
.LBE5840:
.LBE5845:
.LBB5846:
.LBB5833:
	.loc 12 140 0
	stw 9,216(31)
.LVL468:
.LBE5833:
.LBE5846:
.LBB5847:
.LBB5841:
.LBB5837:
.LBB5838:
.LBB5839:
	.loc 7 571 0
	subf 0,10,11
	srawi 0,0,2
.LBE5839:
.LBE5838:
	.loc 7 718 0
	cmplw 7,29,0
	bge- 7,.L377
.LBE5837:
.LBE5841:
.LBE5847:
	.loc 3 270 0
	lwzx 3,10,30
.LBB5848:
.LBB5842:
.LBB5843:
	.loc 7 696 0
	add 10,10,30
.LBE5843:
.LBE5842:
.LBE5848:
	.loc 3 270 0
	cmpwi 7,3,0
	beq- 7,.L367
.LVL469:
	.loc 3 271 0
	lwz 9,0(3)
	lwz 0,4(9)
	mtctr 0
	bctrl
	lwz 10,224(31)
	lwz 11,228(31)
	add 10,10,30
.LVL470:
.L367:
.LBB5849:
.LBB5850:
.LBB5851:
.LBB5852:
	.loc 11 773 0
	addi 4,10,4
.LVL471:
.LBE5852:
.LBE5851:
	.loc 12 138 0
	cmpw 7,11,4
	beq- 7,.L368
.LVL472:
.LBB5853:
.LBB5854:
.LBB5855:
.LBB5856:
.LBB5857:
.LBB5858:
	.loc 13 364 0
	subf 5,4,11
.LVL473:
	.loc 13 365 0
	srawi. 5,5,2
.LVL474:
	bne- 0,.L380
.LVL475:
.L368:
.LBE5858:
.LBE5857:
.LBE5856:
.LBE5855:
.LBE5854:
.LBE5853:
.LBE5850:
.LBE5849:
.LBB5868:
.LBB5869:
	.loc 3 522 0
	lwz 10,248(31)
.LBE5869:
.LBE5868:
.LBB5879:
.LBB5865:
	.loc 12 140 0
	addi 11,11,-4
.LBE5865:
.LBE5879:
.LBB5880:
.LBB5874:
	.loc 3 522 0
	lwz 9,252(31)
.LBE5874:
.LBE5880:
.LBB5881:
.LBB5866:
	.loc 12 140 0
	stw 11,228(31)
.LBE5866:
.LBE5881:
.LBB5882:
.LBB5875:
.LBB5870:
.LBB5871:
.LBB5872:
	.loc 7 571 0
	subf 0,10,9
	srawi 0,0,2
.LVL476:
.LBE5872:
.LBE5871:
	.loc 7 718 0
	cmplw 7,29,0
	bge- 7,.L377
.LBE5870:
.LBE5875:
.LBE5882:
	.loc 3 274 0
	lwzx 3,10,30
.LBB5883:
.LBB5876:
.LBB5877:
	.loc 7 696 0
	add 10,10,30
.LBE5877:
.LBE5876:
.LBE5883:
	.loc 3 274 0
	cmpwi 7,3,0
	beq- 7,.L370
.LVL477:
	.loc 3 275 0
	lwz 9,0(3)
	lwz 0,4(9)
	mtctr 0
	bctrl
	lwz 10,248(31)
	lwz 9,252(31)
	add 10,10,30
.LVL478:
.L370:
.LBB5884:
.LBB5885:
.LBB5886:
.LBB5887:
	.loc 11 773 0
	addi 4,10,4
.LVL479:
.LBE5887:
.LBE5886:
	.loc 12 138 0
	cmpw 7,4,9
	beq- 7,.L371
.LVL480:
.LBB5888:
.LBB5889:
.LBB5890:
.LBB5891:
.LBB5892:
.LBB5893:
	.loc 13 364 0
	subf 5,4,9
.LVL481:
	.loc 13 365 0
	srawi. 5,5,2
.LVL482:
	bne- 0,.L381
.LVL483:
.L371:
.LBE5893:
.LBE5892:
.LBE5891:
.LBE5890:
.LBE5889:
.LBE5888:
	.loc 12 140 0
	addi 9,9,-4
	stw 9,252(31)
.LVL484:
.L358:
.LBE5885:
.LBE5884:
	.loc 3 277 0
	lwz 0,28(1)
	lwz 29,12(1)
.LVL485:
	mtlr 0
	lwz 30,16(1)
	lwz 31,20(1)
.LVL486:
	addi 1,1,24
	.cfi_remember_state
.LCFI115:
	.cfi_def_cfa_offset 0
	.cfi_restore 31
	.cfi_restore 30
	.cfi_restore 29
	blr
.LVL487:
.L378:
.LCFI116:
	.cfi_restore_state
.LBB5901:
.LBB5801:
.LBB5798:
.LBB5797:
.LBB5796:
.LBB5795:
.LBB5794:
.LBB5793:
	.loc 13 366 0
	mr 3,9
	slwi 5,5,2
.LVL488:
	bl memmove
.LVL489:
	lwz 11,240(31)
	b .L362
.LVL490:
.L380:
.LBE5793:
.LBE5794:
.LBE5795:
.LBE5796:
.LBE5797:
.LBE5798:
.LBE5801:
.LBE5901:
.LBB5902:
.LBB5867:
.LBB5864:
.LBB5863:
.LBB5862:
.LBB5861:
.LBB5860:
.LBB5859:
	mr 3,10
	slwi 5,5,2
.LVL491:
	bl memmove
.LVL492:
	lwz 11,228(31)
	b .L368
.LVL493:
.L379:
.LBE5859:
.LBE5860:
.LBE5861:
.LBE5862:
.LBE5863:
.LBE5864:
.LBE5867:
.LBE5902:
.LBB5903:
.LBB5834:
.LBB5831:
.LBB5830:
.LBB5829:
.LBB5828:
.LBB5827:
.LBB5826:
	mr 3,10
	slwi 5,5,2
.LVL494:
	bl memmove
.LVL495:
	lwz 9,216(31)
	b .L365
.LVL496:
.L381:
.LBE5826:
.LBE5827:
.LBE5828:
.LBE5829:
.LBE5830:
.LBE5831:
.LBE5834:
.LBE5903:
.LBB5904:
.LBB5900:
.LBB5899:
.LBB5898:
.LBB5897:
.LBB5896:
.LBB5895:
.LBB5894:
	mr 3,10
	slwi 5,5,2
.LVL497:
	bl memmove
.LVL498:
	lwz 9,252(31)
.LBE5894:
.LBE5895:
.LBE5896:
.LBE5897:
.LBE5898:
.LBE5899:
	.loc 12 140 0
	addi 9,9,-4
	stw 9,252(31)
	b .L358
.LVL499:
.L377:
.LBE5900:
.LBE5904:
.LBB5905:
.LBB5878:
.LBB5873:
	.loc 7 719 0
	lis 3,.LC9@ha
	la 3,.LC9@l(3)
	bl _ZSt20__throw_out_of_rangePKc
.LBE5873:
.LBE5878:
.LBE5905:
	.cfi_endproc
.LFE1622:
	.size	_ZN15IconFileBrowser12RemoveButtonEi, .-_ZN15IconFileBrowser12RemoveButtonEi
	.align 2
	.globl _ZN15IconFileBrowser15CheckNavigationEP10GuiTrigger
	.type	_ZN15IconFileBrowser15CheckNavigationEP10GuiTrigger, @function
_ZN15IconFileBrowser15CheckNavigationEP10GuiTrigger:
.LFB1627:
	.loc 3 340 0
	.cfi_startproc
.LVL500:
	stwu 1,-24(1)
.LCFI117:
	.cfi_def_cfa_offset 24
	mflr 0
	stw 31,20(1)
	mr 31,3
	.cfi_offset 31, -4
	.cfi_register 65, 0
.LBB5906:
	.loc 3 341 0
	mr 3,4
.LVL501:
.LBE5906:
	.loc 3 340 0
	stw 30,16(1)
	stw 0,28(1)
	mr 30,4
	.cfi_offset 65, 4
	.cfi_offset 30, -8
	stw 28,8(1)
	stw 29,12(1)
.LBB5930:
	.loc 3 341 0
	.cfi_offset 29, -12
	.cfi_offset 28, -16
	bl _ZN10GuiTrigger5RightEv
.LVL502:
	cmpwi 7,3,0
	beq- 7,.L383
	.loc 3 343 0
	lwz 3,156(31)
	lwz 9,0(3)
	lwz 0,12(9)
	mtctr 0
	bctrl
	lwz 9,156(31)
	lwz 29,192(31)
	lwz 11,0(9)
	add 29,3,29
	mr 3,9
	lwz 0,28(11)
	addi 29,29,1
	mtctr 0
	bctrl
	cmpw 7,29,3
	bge- 7,.L382
	.loc 3 345 0
	lhz 11,190(31)
	lwz 9,192(31)
	addi 0,11,-1
	cmpw 7,9,0
	beq- 7,.L398
.LVL503:
	.loc 3 353 0
	lwz 11,248(31)
.LBB5907:
.LBB5908:
	.loc 7 696 0
	addi 9,9,1
.LBE5908:
.LBE5907:
	.loc 3 353 0
	slwi 9,9,2
	lwzx 3,11,9
	lwz 9,0(3)
	lwz 0,52(9)
	mtctr 0
	bctrl
.LVL504:
	cmpwi 7,3,0
	bne- 7,.L399
.L382:
.LBE5930:
	.loc 3 413 0
	lwz 0,28(1)
	lwz 28,8(1)
	mtlr 0
	lwz 29,12(1)
	lwz 30,16(1)
.LVL505:
	lwz 31,20(1)
.LVL506:
	addi 1,1,24
	.cfi_remember_state
.LCFI118:
	.cfi_def_cfa_offset 0
	.cfi_restore 31
	.cfi_restore 30
	.cfi_restore 29
	.cfi_restore 28
	blr
.LVL507:
.L383:
.LCFI119:
	.cfi_restore_state
.LBB5931:
.LBB5909:
	.loc 3 360 0
	mr 3,30
	bl _ZN10GuiTrigger4LeftEv
	cmpwi 7,3,0
	beq- 7,.L386
	.loc 3 362 0
	lwz 0,192(31)
	cmpwi 7,0,0
	beq- 7,.L400
.L387:
	.loc 3 370 0
	ble- 7,.L382
.LVL508:
	.loc 3 372 0
	lwz 9,248(31)
	slwi 0,0,2
.LVL509:
	lwzx 3,9,0
	lwz 9,0(3)
	lwz 0,92(9)
	mtctr 0
	bctrl
	.loc 3 373 0
	lwz 9,192(31)
	lwz 11,248(31)
	addi 0,9,-1
.L397:
.LBE5909:
	.loc 3 356 0
	slwi 9,0,2
	lwz 5,8(30)
	lwzx 3,11,9
	li 4,1
	stw 0,192(31)
.LVL510:
	lwz 9,0(3)
	lwz 0,80(9)
.LVL511:
	mtctr 0
	bctrl
.LVL512:
.LBE5931:
	.loc 3 413 0
	lwz 0,28(1)
	lwz 28,8(1)
	mtlr 0
	lwz 29,12(1)
	lwz 30,16(1)
.LVL513:
	lwz 31,20(1)
.LVL514:
	addi 1,1,24
	.cfi_remember_state
	.cfi_restore 28
	.cfi_restore 29
	.cfi_restore 30
	.cfi_restore 31
.LCFI120:
	.cfi_def_cfa_offset 0
	blr
.LVL515:
.L386:
.LCFI121:
	.cfi_restore_state
.LBB5932:
.LBB5923:
.LBB5910:
	.loc 3 376 0
	mr 3,30
	bl _ZN10GuiTrigger2UpEv
	cmpwi 7,3,0
	beq- 7,.L388
	.loc 3 378 0
	lwz 3,156(31)
	lwz 9,0(3)
	lwz 0,12(9)
	mtctr 0
	bctrl
	lwz 0,192(31)
	lhz 9,188(31)
	add 3,3,0
	subf. 11,9,3
	blt- 0,.L382
.LVL516:
	.loc 3 380 0
	lwz 9,248(31)
	slwi 0,0,2
	lwzx 3,9,0
	lwz 9,0(3)
	lwz 0,92(9)
	mtctr 0
	bctrl
.LVL517:
	.loc 3 381 0
	lwz 9,192(31)
	lhz 0,188(31)
	subf 0,0,9
	.loc 3 382 0
	cmpwi 7,0,0
	.loc 3 381 0
	stw 0,192(31)
	.loc 3 382 0
	blt- 7,.L401
.L392:
.LVL518:
.LBB5911:
.LBB5912:
	.loc 3 410 0
	lwz 9,248(31)
	slwi 0,0,2
.LVL519:
	li 4,1
	lwz 5,8(30)
	lwzx 3,9,0
	lwz 9,0(3)
	lwz 0,80(9)
	mtctr 0
	bctrl
	b .L382
.L400:
.LBE5912:
.LBE5911:
.LBE5910:
	.loc 3 362 0 discriminator 1
	lwz 3,156(31)
	lwz 9,0(3)
	lwz 0,12(9)
	mtctr 0
	bctrl
	lwz 0,192(31)
	add. 9,3,0
	cmpwi 7,0,0
	ble- 0,.L387
	.loc 3 365 0 discriminator 4
	lwz 29,156(31)
	lwz 9,0(29)
	mr 3,29
	lwz 0,12(9)
	lwz 28,20(9)
	mtctr 0
	bctrl
	lhz 4,188(31)
	mtctr 28
	subf 4,4,3
	mr 3,29
	bctrl
.LVL520:
.LBB5919:
.LBB5920:
	.loc 7 696 0 discriminator 4
	lwz 0,192(31)
.LBE5920:
.LBE5919:
	.loc 3 366 0 discriminator 4
	lwz 9,248(31)
	slwi 0,0,2
	lwzx 3,9,0
	lwz 9,0(3)
	lwz 0,92(9)
	mtctr 0
	bctrl
.LVL521:
	.loc 3 367 0 discriminator 4
	lhz 9,188(31)
	.loc 3 368 0 discriminator 4
	lwz 11,248(31)
	.loc 3 367 0 discriminator 4
	addi 0,9,-1
	b .L397
.L399:
.LVL522:
.LBE5923:
.LBB5924:
.LBB5925:
	.loc 7 696 0
	lwz 0,192(31)
.LBE5925:
.LBE5924:
	.loc 3 355 0
	lwz 9,248(31)
	slwi 0,0,2
	lwzx 3,9,0
	lwz 9,0(3)
	lwz 0,92(9)
	mtctr 0
	bctrl
.LVL523:
	.loc 3 356 0
	lwz 9,192(31)
	lwz 11,248(31)
	addi 0,9,1
	b .L397
.L388:
.LBB5926:
.LBB5921:
.LBB5917:
	.loc 3 391 0
	mr 3,30
	bl _ZN10GuiTrigger4DownEv
	cmpwi 7,3,0
	beq- 7,.L382
.LBB5915:
	.loc 3 393 0
	lhz 28,188(31)
.LVL524:
.L391:
	.loc 3 394 0 discriminator 1
	lwz 3,156(31)
	lwz 9,0(3)
	lwz 0,12(9)
	mtctr 0
	bctrl
	lwz 9,156(31)
	lwz 29,192(31)
	lwz 11,0(9)
	add 29,3,29
	mr 3,9
	lwz 0,28(11)
	lhz 9,188(31)
	mtctr 0
	add 29,29,9
	bctrl
	cmpwi 6,28,0
	cmpw 7,29,3
	blt- 7,.L390
	.loc 3 394 0 is_stmt 0 discriminator 2
	beq- 6,.L390
	.loc 3 394 0 discriminator 4
	lwz 0,192(31)
	cmpwi 7,0,0
	ble- 7,.L390
	.loc 3 395 0 is_stmt 1 discriminator 5
	lwz 3,156(31)
	.loc 3 397 0 discriminator 5
	addi 28,28,-1
.LVL525:
	.loc 3 394 0 discriminator 5
	lhz 29,188(31)
	.loc 3 395 0 discriminator 5
	lwz 9,0(3)
	lwz 0,28(9)
	mtctr 0
	bctrl
	.loc 3 394 0 discriminator 5
	cmpw 7,29,3
	bge- 7,.L390
.LVL526:
	.loc 3 398 0 discriminator 7
	lwz 9,192(31)
	addi 0,9,-1
	stw 0,192(31)
	b .L391
.LVL527:
.L398:
.LBE5915:
.LBE5917:
.LBE5921:
.LBE5926:
	.loc 3 348 0
	lwz 29,156(31)
	lwz 9,0(29)
	mr 3,29
	lwz 0,12(9)
	lwz 28,20(9)
	mtctr 0
	bctrl
	lhz 4,188(31)
	mtctr 28
	add 4,3,4
	mr 3,29
	bctrl
.LVL528:
.LBB5927:
.LBB5928:
	.loc 7 696 0
	lwz 0,192(31)
.LBE5928:
.LBE5927:
	.loc 3 349 0
	lwz 9,248(31)
	slwi 0,0,2
	lwzx 3,9,0
	lwz 9,0(3)
	lwz 0,92(9)
	mtctr 0
	bctrl
.LVL529:
	.loc 3 350 0
	lhz 9,190(31)
	lhz 0,188(31)
	.loc 3 351 0
	lwz 11,248(31)
	.loc 3 350 0
	subf 0,0,9
	b .L397
.L390:
.LBB5929:
.LBB5922:
.LBB5918:
.LBB5916:
	.loc 3 400 0
	lwz 3,156(31)
	lwz 9,0(3)
	lwz 0,12(9)
	mtctr 0
	bctrl
	lwz 9,156(31)
	lwz 29,192(31)
	lwz 11,0(9)
	add 29,3,29
	mr 3,9
	lwz 0,28(11)
	lhz 9,188(31)
	mtctr 0
	add 29,29,9
	bctrl
	cmpw 7,29,3
	bge+ 7,.L382
.LVL530:
.LBB5913:
.LBB5914:
	.loc 7 696 0
	lwz 0,192(31)
.LBE5914:
.LBE5913:
	.loc 3 402 0
	lwz 9,248(31)
	slwi 0,0,2
	lwzx 3,9,0
	lwz 9,0(3)
	lwz 0,92(9)
	mtctr 0
	bctrl
.LVL531:
	.loc 3 403 0
	lwz 0,192(31)
	lhz 11,188(31)
	.loc 3 404 0
	lhz 9,190(31)
	.loc 3 403 0
	add 0,11,0
	.loc 3 404 0
	cmpw 7,0,9
	.loc 3 403 0
	stw 0,192(31)
	.loc 3 404 0
	blt+ 7,.L392
	.loc 3 407 0
	lwz 29,156(31)
	lwz 9,0(29)
	mr 3,29
	lwz 0,12(9)
	lwz 28,20(9)
	mtctr 0
	bctrl
	lhz 0,188(31)
	mtctr 28
	add 4,3,0
	mr 3,29
	bctrl
	.loc 3 408 0
	lwz 9,192(31)
	lhz 0,188(31)
	subf 0,0,9
	stw 0,192(31)
	b .L392
.L401:
.LBE5916:
.LBE5918:
	.loc 3 385 0
	lwz 29,156(31)
	lwz 9,0(29)
	mr 3,29
	lwz 0,12(9)
	lwz 28,20(9)
	mtctr 0
	bctrl
	lhz 0,188(31)
	mtctr 28
	subf 4,0,3
	mr 3,29
	bctrl
	.loc 3 386 0
	lwz 0,192(31)
	lhz 9,188(31)
	add 0,9,0
	stw 0,192(31)
	b .L392
.LBE5922:
.LBE5929:
.LBE5932:
	.cfi_endproc
.LFE1627:
	.size	_ZN15IconFileBrowser15CheckNavigationEP10GuiTrigger, .-_ZN15IconFileBrowser15CheckNavigationEP10GuiTrigger
	.align 2
	.globl _ZN15IconFileBrowser10UpdateLockEf
	.type	_ZN15IconFileBrowser10UpdateLockEf, @function
_ZN15IconFileBrowser10UpdateLockEf:
.LFB1631:
	.loc 3 519 0
	.cfi_startproc
.LVL532:
	mflr 0
	stwu 1,-16(1)
.LCFI122:
	.cfi_def_cfa_offset 16
	.cfi_register 65, 0
	stw 31,12(1)
	mr 31,3
	.cfi_offset 31, -4
	stw 0,20(1)
	.loc 3 520 0
	stfs 1,208(3)
.LVL533:
.LBB5933:
.LBB5934:
	.loc 9 61 0
	.cfi_offset 65, 4
	bl gettime
.LVL534:
.LBE5934:
.LBE5933:
	.loc 3 522 0
	lwz 0,20(1)
.LBB5937:
.LBB5935:
	.loc 9 61 0
	stw 3,200(31)
.LBE5935:
.LBE5937:
	.loc 3 522 0
	mtlr 0
.LBB5938:
.LBB5936:
	.loc 9 61 0
	stw 4,204(31)
.LBE5936:
.LBE5938:
	.loc 3 522 0
	lwz 31,12(1)
.LVL535:
	addi 1,1,16
.LCFI123:
	.cfi_def_cfa_offset 0
	.cfi_restore 31
	blr
	.cfi_endproc
.LFE1631:
	.size	_ZN15IconFileBrowser10UpdateLockEf, .-_ZN15IconFileBrowser10UpdateLockEf
	.section	.text._ZNSt6vectorIP8GuiImageSaIS1_EED2Ev,"axG",@progbits,_ZNSt6vectorIP8GuiImageSaIS1_EED5Ev,comdat
	.align 2
	.weak	_ZNSt6vectorIP8GuiImageSaIS1_EED2Ev
	.type	_ZNSt6vectorIP8GuiImageSaIS1_EED2Ev, @function
_ZNSt6vectorIP8GuiImageSaIS1_EED2Ev:
.LFB1703:
	.loc 7 349 0
	.cfi_startproc
.LVL536:
	mflr 0
	stwu 1,-8(1)
.LCFI124:
	.cfi_def_cfa_offset 8
	.cfi_register 65, 0
	stw 0,12(1)
	.loc 3 522 0
	lwz 3,0(3)
.LVL537:
.LBB5951:
.LBB5952:
.LBB5953:
.LBB5954:
	.loc 7 155 0
	cmpwi 7,3,0
	beq- 7,.L403
	.cfi_offset 65, 4
.LVL538:
.LBB5955:
.LBB5956:
	.loc 8 98 0
	bl _ZdlPv
.LVL539:
.L403:
.LBE5956:
.LBE5955:
.LBE5954:
.LBE5953:
.LBE5952:
.LBE5951:
	.loc 7 351 0
	lwz 0,12(1)
	addi 1,1,8
.LCFI125:
	.cfi_def_cfa_offset 0
	mtlr 0
	blr
	.cfi_endproc
.LFE1703:
	.size	_ZNSt6vectorIP8GuiImageSaIS1_EED2Ev, .-_ZNSt6vectorIP8GuiImageSaIS1_EED2Ev
	.section	.text._ZNSt6vectorIP8GuiImageSaIS1_EE13_M_insert_auxEN9__gnu_cxx17__normal_iteratorIPS1_S3_EERKS1_,"axG",@progbits,_ZNSt6vectorIP8GuiImageSaIS1_EE13_M_insert_auxEN9__gnu_cxx17__normal_iteratorIPS1_S3_EERKS1_,comdat
	.align 2
	.weak	_ZNSt6vectorIP8GuiImageSaIS1_EE13_M_insert_auxEN9__gnu_cxx17__normal_iteratorIPS1_S3_EERKS1_
	.type	_ZNSt6vectorIP8GuiImageSaIS1_EE13_M_insert_auxEN9__gnu_cxx17__normal_iteratorIPS1_S3_EERKS1_, @function
_ZNSt6vectorIP8GuiImageSaIS1_EE13_M_insert_auxEN9__gnu_cxx17__normal_iteratorIPS1_S3_EERKS1_:
.LFB1894:
	.loc 12 300 0
	.cfi_startproc
.LVL540:
	mflr 0
	stwu 1,-40(1)
.LCFI126:
	.cfi_def_cfa_offset 40
	.cfi_register 65, 0
	stw 27,20(1)
	stw 0,44(1)
	stw 30,32(1)
.LBB6019:
	.loc 12 304 0
	lwz 27,4(3)
	.cfi_offset 30, -8
	.cfi_offset 65, 4
	.cfi_offset 27, -20
	lwz 0,8(3)
.LBE6019:
	.loc 12 300 0
	stw 31,36(1)
	mr 31,3
	.cfi_offset 31, -4
.LBB6144:
	.loc 12 304 0
	cmpw 7,27,0
.LBE6144:
	.loc 12 300 0
	stw 26,16(1)
	stw 28,24(1)
	stw 29,28(1)
	.loc 12 300 0
	lwz 30,0(4)
.LVL541:
.LBB6145:
	.loc 12 304 0
	beq- 7,.L410
	.cfi_offset 29, -12
	.cfi_offset 28, -16
	.cfi_offset 26, -24
.LVL542:
.LBB6020:
.LBB6021:
.LBB6022:
	.loc 8 108 0
	cmpwi 7,27,0
	li 3,0
.LVL543:
	beq- 7,.L411
	lwz 0,-4(27)
	stw 0,0(27)
	lwz 3,4(31)
.L411:
.LBE6022:
.LBE6021:
	.loc 12 313 0
	addi 0,3,-4
	.loc 12 309 0
	addi 9,3,4
.LBB6023:
.LBB6024:
.LBB6025:
.LBB6026:
.LBB6027:
.LBB6028:
	.loc 13 559 0
	subf 0,30,0
.LBE6028:
.LBE6027:
.LBE6026:
.LBE6025:
.LBE6024:
.LBE6023:
	.loc 12 309 0
	stw 9,4(31)
.LBB6044:
.LBB6041:
.LBB6038:
.LBB6035:
.LBB6032:
.LBB6029:
	.loc 13 560 0
	srawi. 0,0,2
.LBE6029:
.LBE6032:
.LBE6035:
.LBE6038:
.LBE6041:
.LBE6044:
	.loc 12 311 0
	lwz 31,0(5)
.LVL544:
.LBB6045:
.LBB6042:
.LBB6039:
.LBB6036:
.LBB6033:
.LBB6030:
	.loc 13 560 0
	bne- 0,.L426
.LVL545:
.L412:
.LBE6030:
.LBE6033:
.LBE6036:
.LBE6039:
.LBE6042:
.LBE6045:
.LBE6020:
.LBE6145:
	.loc 12 373 0
	lwz 0,44(1)
.LBB6146:
.LBB6047:
	.loc 12 317 0
	stw 31,0(30)
.LBE6047:
.LBE6146:
	.loc 12 373 0
	mtlr 0
	lwz 26,16(1)
	lwz 27,20(1)
.LVL546:
	lwz 28,24(1)
	lwz 29,28(1)
	lwz 30,32(1)
.LVL547:
	lwz 31,36(1)
.LVL548:
	addi 1,1,40
	.cfi_remember_state
.LCFI127:
	.cfi_def_cfa_offset 0
	.cfi_restore 31
	.cfi_restore 30
	.cfi_restore 29
	.cfi_restore 28
	.cfi_restore 27
	.cfi_restore 26
	blr
.LVL549:
.L426:
.LCFI128:
	.cfi_restore_state
.LBB6147:
.LBB6048:
.LBB6046:
.LBB6043:
.LBB6040:
.LBB6037:
.LBB6034:
.LBB6031:
	.loc 13 561 0
	slwi 5,0,2
.LVL550:
	mr 4,30
	subf 3,5,3
.LVL551:
	bl memmove
.LVL552:
	b .L412
.LVL553:
.L410:
.LBE6031:
.LBE6034:
.LBE6037:
.LBE6040:
.LBE6043:
.LBE6046:
.LBE6048:
.LBB6049:
.LBB6050:
.LBB6051:
.LBB6052:
.LBB6053:
	.loc 7 571 0
	lwz 28,0(3)
	subf 27,28,27
.LBE6053:
.LBE6052:
.LBB6054:
.LBB6055:
	.loc 13 215 0
	srawi. 27,27,2
	beq- 0,.L414
.LBE6055:
.LBE6054:
	.loc 7 1244 0
	slwi 0,27,1
.LVL554:
	.loc 7 1245 0
	cmplw 7,27,0
	ble- 7,.L427
.L415:
.LVL555:
.LBE6051:
.LBE6050:
.LBB6058:
.LBB6059:
	.loc 11 892 0
	subf 28,28,30
.LBE6059:
.LBE6058:
	.loc 12 326 0
	li 27,-4
.LBB6065:
.LBB6060:
	.loc 11 892 0
	srawi 28,28,2
.LVL556:
.L421:
.LBE6060:
.LBE6065:
.LBB6066:
.LBB6067:
.LBB6068:
.LBB6069:
	.loc 8 92 0
	mr 3,27
.LVL557:
	stw 5,8(1)
	bl _Znwj
.LVL558:
	lwz 5,8(1)
	mr 29,3
.L416:
.LVL559:
.LBE6069:
.LBE6068:
.LBE6067:
.LBE6066:
	.loc 12 335 0
	slwi 28,28,2
.LVL560:
	add 0,29,28
.LVL561:
.LBB6072:
.LBB6073:
	.loc 8 108 0
	cmpwi 7,0,0
	beq- 7,.L417
	lwz 0,0(5)
.LVL562:
	stwx 0,29,28
.L417:
.LVL563:
.LBE6073:
.LBE6072:
	.loc 12 343 0
	lwz 4,0(31)
.LVL564:
.LBB6074:
.LBB6075:
.LBB6076:
.LBB6077:
.LBB6078:
.LBB6079:
.LBB6080:
.LBB6081:
.LBB6082:
.LBB6083:
.LBB6084:
	.loc 13 365 0
	li 28,0
	.loc 13 364 0
	subf 0,4,30
.LVL565:
	.loc 13 365 0
	srawi. 0,0,2
.LVL566:
	beq+ 0,.L418
	.loc 13 366 0
	slwi 28,0,2
	mr 3,29
	mr 5,28
.LVL567:
	bl memmove
.LVL568:
.L418:
.LBE6084:
.LBE6083:
.LBE6082:
.LBE6081:
.LBE6080:
.LBE6079:
.LBE6078:
.LBE6077:
.LBE6076:
.LBE6075:
.LBE6074:
.LBB6095:
.LBB6096:
.LBB6097:
.LBB6098:
.LBB6099:
.LBB6100:
.LBB6101:
.LBB6102:
.LBB6103:
.LBB6104:
.LBB6105:
	.loc 13 364 0
	lwz 0,4(31)
.LBE6105:
.LBE6104:
.LBE6103:
.LBE6102:
.LBE6101:
.LBE6100:
.LBE6099:
.LBE6098:
.LBE6097:
.LBE6096:
.LBE6095:
.LBB6126:
.LBB6094:
.LBB6093:
.LBB6092:
.LBB6091:
.LBB6090:
.LBB6089:
.LBB6088:
.LBB6087:
.LBB6086:
.LBB6085:
	.loc 13 367 0
	add 28,29,28
.LVL569:
.LBE6085:
.LBE6086:
.LBE6087:
.LBE6088:
.LBE6089:
.LBE6090:
.LBE6091:
.LBE6092:
.LBE6093:
.LBE6094:
.LBE6126:
	.loc 12 347 0
	addi 26,28,4
.LBB6127:
.LBB6124:
.LBB6122:
.LBB6120:
.LBB6118:
.LBB6116:
.LBB6114:
.LBB6112:
.LBB6110:
.LBB6108:
.LBB6106:
	.loc 13 365 0
	li 28,0
	.loc 13 364 0
	subf 0,30,0
.LVL570:
	.loc 13 365 0
	srawi. 0,0,2
.LVL571:
	beq+ 0,.L419
	.loc 13 366 0
	slwi 28,0,2
	mr 3,26
	mr 4,30
	mr 5,28
	bl memmove
.LVL572:
.L419:
.LBE6106:
.LBE6108:
.LBE6110:
.LBE6112:
.LBE6114:
.LBE6116:
.LBE6118:
.LBE6120:
.LBE6122:
.LBE6124:
.LBE6127:
	.loc 12 366 0
	lwz 3,0(31)
.LBB6128:
.LBB6125:
.LBB6123:
.LBB6121:
.LBB6119:
.LBB6117:
.LBB6115:
.LBB6113:
.LBB6111:
.LBB6109:
.LBB6107:
	.loc 13 367 0
	add 28,26,28
.LVL573:
.LBE6107:
.LBE6109:
.LBE6111:
.LBE6113:
.LBE6115:
.LBE6117:
.LBE6119:
.LBE6121:
.LBE6123:
.LBE6125:
.LBE6128:
.LBB6129:
.LBB6130:
	.loc 7 155 0
	cmpwi 7,3,0
	beq- 7,.L420
.LVL574:
.LBB6131:
.LBB6132:
	.loc 8 98 0
	bl _ZdlPv
.LVL575:
.L420:
.LBE6132:
.LBE6131:
.LBE6130:
.LBE6129:
.LBE6049:
.LBE6147:
	.loc 12 373 0
	lwz 0,44(1)
.LBB6148:
.LBB6141:
	.loc 12 371 0
	add 27,29,27
	.loc 12 369 0
	stw 29,0(31)
.LBE6141:
.LBE6148:
	.loc 12 373 0
	mtlr 0
.LBB6149:
.LBB6142:
	.loc 12 370 0
	stw 28,4(31)
	.loc 12 371 0
	stw 27,8(31)
.LBE6142:
.LBE6149:
	.loc 12 373 0
	lwz 26,16(1)
.LVL576:
	lwz 27,20(1)
	lwz 28,24(1)
	lwz 29,28(1)
.LVL577:
	lwz 30,32(1)
.LVL578:
	lwz 31,36(1)
.LVL579:
	addi 1,1,40
	.cfi_remember_state
	.cfi_restore 26
	.cfi_restore 27
	.cfi_restore 28
	.cfi_restore 29
	.cfi_restore 30
	.cfi_restore 31
.LCFI129:
	.cfi_def_cfa_offset 0
	blr
.LVL580:
.L414:
.LCFI130:
	.cfi_restore_state
.LBB6150:
.LBB6143:
.LBB6133:
.LBB6061:
	.loc 11 892 0
	subf 28,28,30
.LBE6061:
.LBE6133:
	.loc 12 326 0
	li 27,4
.LBB6134:
.LBB6062:
	.loc 11 892 0
	srawi 28,28,2
.LVL581:
	b .L421
.LVL582:
.L427:
.LBE6062:
.LBE6134:
.LBB6135:
.LBB6056:
	.loc 7 1245 0
	lis 9,0x3fff
	ori 9,9,65535
	cmplw 7,0,9
	bgt+ 7,.L415
.LBE6056:
.LBE6135:
.LBB6136:
.LBB6070:
	.loc 7 150 0
	cmpwi 7,0,0
.LBE6070:
.LBE6136:
.LBB6137:
.LBB6063:
	.loc 11 892 0
	subf 28,28,30
.LBE6063:
.LBE6137:
.LBB6138:
.LBB6057:
	.loc 7 1245 0
	slwi 27,27,3
.LVL583:
.LBE6057:
.LBE6138:
.LBB6139:
.LBB6064:
	.loc 11 892 0
	srawi 28,28,2
.LVL584:
.LBE6064:
.LBE6139:
.LBB6140:
.LBB6071:
	.loc 7 150 0
	li 29,0
	beq+ 7,.L416
	b .L421
.LBE6071:
.LBE6140:
.LBE6143:
.LBE6150:
	.cfi_endproc
.LFE1894:
	.size	_ZNSt6vectorIP8GuiImageSaIS1_EE13_M_insert_auxEN9__gnu_cxx17__normal_iteratorIPS1_S3_EERKS1_, .-_ZNSt6vectorIP8GuiImageSaIS1_EE13_M_insert_auxEN9__gnu_cxx17__normal_iteratorIPS1_S3_EERKS1_
	.section	.text._ZNSt6vectorIP7GuiTextSaIS1_EE13_M_insert_auxEN9__gnu_cxx17__normal_iteratorIPS1_S3_EERKS1_,"axG",@progbits,_ZNSt6vectorIP7GuiTextSaIS1_EE13_M_insert_auxEN9__gnu_cxx17__normal_iteratorIPS1_S3_EERKS1_,comdat
	.align 2
	.weak	_ZNSt6vectorIP7GuiTextSaIS1_EE13_M_insert_auxEN9__gnu_cxx17__normal_iteratorIPS1_S3_EERKS1_
	.type	_ZNSt6vectorIP7GuiTextSaIS1_EE13_M_insert_auxEN9__gnu_cxx17__normal_iteratorIPS1_S3_EERKS1_, @function
_ZNSt6vectorIP7GuiTextSaIS1_EE13_M_insert_auxEN9__gnu_cxx17__normal_iteratorIPS1_S3_EERKS1_:
.LFB1897:
	.loc 12 300 0
	.cfi_startproc
.LVL585:
	mflr 0
	stwu 1,-40(1)
.LCFI131:
	.cfi_def_cfa_offset 40
	.cfi_register 65, 0
	stw 27,20(1)
	stw 0,44(1)
	stw 30,32(1)
.LBB6213:
	.loc 12 304 0
	lwz 27,4(3)
	.cfi_offset 30, -8
	.cfi_offset 65, 4
	.cfi_offset 27, -20
	lwz 0,8(3)
.LBE6213:
	.loc 12 300 0
	stw 31,36(1)
	mr 31,3
	.cfi_offset 31, -4
.LBB6338:
	.loc 12 304 0
	cmpw 7,27,0
.LBE6338:
	.loc 12 300 0
	stw 26,16(1)
	stw 28,24(1)
	stw 29,28(1)
	.loc 12 300 0
	lwz 30,0(4)
.LVL586:
.LBB6339:
	.loc 12 304 0
	beq- 7,.L429
	.cfi_offset 29, -12
	.cfi_offset 28, -16
	.cfi_offset 26, -24
.LVL587:
.LBB6214:
.LBB6215:
.LBB6216:
	.loc 8 108 0
	cmpwi 7,27,0
	li 3,0
.LVL588:
	beq- 7,.L430
	lwz 0,-4(27)
	stw 0,0(27)
	lwz 3,4(31)
.L430:
.LBE6216:
.LBE6215:
	.loc 12 313 0
	addi 0,3,-4
	.loc 12 309 0
	addi 9,3,4
.LBB6217:
.LBB6218:
.LBB6219:
.LBB6220:
.LBB6221:
.LBB6222:
	.loc 13 559 0
	subf 0,30,0
.LBE6222:
.LBE6221:
.LBE6220:
.LBE6219:
.LBE6218:
.LBE6217:
	.loc 12 309 0
	stw 9,4(31)
.LBB6238:
.LBB6235:
.LBB6232:
.LBB6229:
.LBB6226:
.LBB6223:
	.loc 13 560 0
	srawi. 0,0,2
.LBE6223:
.LBE6226:
.LBE6229:
.LBE6232:
.LBE6235:
.LBE6238:
	.loc 12 311 0
	lwz 31,0(5)
.LVL589:
.LBB6239:
.LBB6236:
.LBB6233:
.LBB6230:
.LBB6227:
.LBB6224:
	.loc 13 560 0
	bne- 0,.L445
.LVL590:
.L431:
.LBE6224:
.LBE6227:
.LBE6230:
.LBE6233:
.LBE6236:
.LBE6239:
.LBE6214:
.LBE6339:
	.loc 12 373 0
	lwz 0,44(1)
.LBB6340:
.LBB6241:
	.loc 12 317 0
	stw 31,0(30)
.LBE6241:
.LBE6340:
	.loc 12 373 0
	mtlr 0
	lwz 26,16(1)
	lwz 27,20(1)
.LVL591:
	lwz 28,24(1)
	lwz 29,28(1)
	lwz 30,32(1)
.LVL592:
	lwz 31,36(1)
.LVL593:
	addi 1,1,40
	.cfi_remember_state
.LCFI132:
	.cfi_def_cfa_offset 0
	.cfi_restore 31
	.cfi_restore 30
	.cfi_restore 29
	.cfi_restore 28
	.cfi_restore 27
	.cfi_restore 26
	blr
.LVL594:
.L445:
.LCFI133:
	.cfi_restore_state
.LBB6341:
.LBB6242:
.LBB6240:
.LBB6237:
.LBB6234:
.LBB6231:
.LBB6228:
.LBB6225:
	.loc 13 561 0
	slwi 5,0,2
.LVL595:
	mr 4,30
	subf 3,5,3
.LVL596:
	bl memmove
.LVL597:
	b .L431
.LVL598:
.L429:
.LBE6225:
.LBE6228:
.LBE6231:
.LBE6234:
.LBE6237:
.LBE6240:
.LBE6242:
.LBB6243:
.LBB6244:
.LBB6245:
.LBB6246:
.LBB6247:
	.loc 7 571 0
	lwz 28,0(3)
	subf 27,28,27
.LBE6247:
.LBE6246:
.LBB6248:
.LBB6249:
	.loc 13 215 0
	srawi. 27,27,2
	beq- 0,.L433
.LBE6249:
.LBE6248:
	.loc 7 1244 0
	slwi 0,27,1
.LVL599:
	.loc 7 1245 0
	cmplw 7,27,0
	ble- 7,.L446
.L434:
.LVL600:
.LBE6245:
.LBE6244:
.LBB6252:
.LBB6253:
	.loc 11 892 0
	subf 28,28,30
.LBE6253:
.LBE6252:
	.loc 12 326 0
	li 27,-4
.LBB6259:
.LBB6254:
	.loc 11 892 0
	srawi 28,28,2
.LVL601:
.L440:
.LBE6254:
.LBE6259:
.LBB6260:
.LBB6261:
.LBB6262:
.LBB6263:
	.loc 8 92 0
	mr 3,27
.LVL602:
	stw 5,8(1)
	bl _Znwj
.LVL603:
	lwz 5,8(1)
	mr 29,3
.L435:
.LVL604:
.LBE6263:
.LBE6262:
.LBE6261:
.LBE6260:
	.loc 12 335 0
	slwi 28,28,2
.LVL605:
	add 0,29,28
.LVL606:
.LBB6266:
.LBB6267:
	.loc 8 108 0
	cmpwi 7,0,0
	beq- 7,.L436
	lwz 0,0(5)
.LVL607:
	stwx 0,29,28
.L436:
.LVL608:
.LBE6267:
.LBE6266:
	.loc 12 343 0
	lwz 4,0(31)
.LVL609:
.LBB6268:
.LBB6269:
.LBB6270:
.LBB6271:
.LBB6272:
.LBB6273:
.LBB6274:
.LBB6275:
.LBB6276:
.LBB6277:
.LBB6278:
	.loc 13 365 0
	li 28,0
	.loc 13 364 0
	subf 0,4,30
.LVL610:
	.loc 13 365 0
	srawi. 0,0,2
.LVL611:
	beq+ 0,.L437
	.loc 13 366 0
	slwi 28,0,2
	mr 3,29
	mr 5,28
.LVL612:
	bl memmove
.LVL613:
.L437:
.LBE6278:
.LBE6277:
.LBE6276:
.LBE6275:
.LBE6274:
.LBE6273:
.LBE6272:
.LBE6271:
.LBE6270:
.LBE6269:
.LBE6268:
.LBB6289:
.LBB6290:
.LBB6291:
.LBB6292:
.LBB6293:
.LBB6294:
.LBB6295:
.LBB6296:
.LBB6297:
.LBB6298:
.LBB6299:
	.loc 13 364 0
	lwz 0,4(31)
.LBE6299:
.LBE6298:
.LBE6297:
.LBE6296:
.LBE6295:
.LBE6294:
.LBE6293:
.LBE6292:
.LBE6291:
.LBE6290:
.LBE6289:
.LBB6320:
.LBB6288:
.LBB6287:
.LBB6286:
.LBB6285:
.LBB6284:
.LBB6283:
.LBB6282:
.LBB6281:
.LBB6280:
.LBB6279:
	.loc 13 367 0
	add 28,29,28
.LVL614:
.LBE6279:
.LBE6280:
.LBE6281:
.LBE6282:
.LBE6283:
.LBE6284:
.LBE6285:
.LBE6286:
.LBE6287:
.LBE6288:
.LBE6320:
	.loc 12 347 0
	addi 26,28,4
.LBB6321:
.LBB6318:
.LBB6316:
.LBB6314:
.LBB6312:
.LBB6310:
.LBB6308:
.LBB6306:
.LBB6304:
.LBB6302:
.LBB6300:
	.loc 13 365 0
	li 28,0
	.loc 13 364 0
	subf 0,30,0
.LVL615:
	.loc 13 365 0
	srawi. 0,0,2
.LVL616:
	beq+ 0,.L438
	.loc 13 366 0
	slwi 28,0,2
	mr 3,26
	mr 4,30
	mr 5,28
	bl memmove
.LVL617:
.L438:
.LBE6300:
.LBE6302:
.LBE6304:
.LBE6306:
.LBE6308:
.LBE6310:
.LBE6312:
.LBE6314:
.LBE6316:
.LBE6318:
.LBE6321:
	.loc 12 366 0
	lwz 3,0(31)
.LBB6322:
.LBB6319:
.LBB6317:
.LBB6315:
.LBB6313:
.LBB6311:
.LBB6309:
.LBB6307:
.LBB6305:
.LBB6303:
.LBB6301:
	.loc 13 367 0
	add 28,26,28
.LVL618:
.LBE6301:
.LBE6303:
.LBE6305:
.LBE6307:
.LBE6309:
.LBE6311:
.LBE6313:
.LBE6315:
.LBE6317:
.LBE6319:
.LBE6322:
.LBB6323:
.LBB6324:
	.loc 7 155 0
	cmpwi 7,3,0
	beq- 7,.L439
.LVL619:
.LBB6325:
.LBB6326:
	.loc 8 98 0
	bl _ZdlPv
.LVL620:
.L439:
.LBE6326:
.LBE6325:
.LBE6324:
.LBE6323:
.LBE6243:
.LBE6341:
	.loc 12 373 0
	lwz 0,44(1)
.LBB6342:
.LBB6335:
	.loc 12 371 0
	add 27,29,27
	.loc 12 369 0
	stw 29,0(31)
.LBE6335:
.LBE6342:
	.loc 12 373 0
	mtlr 0
.LBB6343:
.LBB6336:
	.loc 12 370 0
	stw 28,4(31)
	.loc 12 371 0
	stw 27,8(31)
.LBE6336:
.LBE6343:
	.loc 12 373 0
	lwz 26,16(1)
.LVL621:
	lwz 27,20(1)
	lwz 28,24(1)
	lwz 29,28(1)
.LVL622:
	lwz 30,32(1)
.LVL623:
	lwz 31,36(1)
.LVL624:
	addi 1,1,40
	.cfi_remember_state
	.cfi_restore 26
	.cfi_restore 27
	.cfi_restore 28
	.cfi_restore 29
	.cfi_restore 30
	.cfi_restore 31
.LCFI134:
	.cfi_def_cfa_offset 0
	blr
.LVL625:
.L433:
.LCFI135:
	.cfi_restore_state
.LBB6344:
.LBB6337:
.LBB6327:
.LBB6255:
	.loc 11 892 0
	subf 28,28,30
.LBE6255:
.LBE6327:
	.loc 12 326 0
	li 27,4
.LBB6328:
.LBB6256:
	.loc 11 892 0
	srawi 28,28,2
.LVL626:
	b .L440
.LVL627:
.L446:
.LBE6256:
.LBE6328:
.LBB6329:
.LBB6250:
	.loc 7 1245 0
	lis 9,0x3fff
	ori 9,9,65535
	cmplw 7,0,9
	bgt+ 7,.L434
.LBE6250:
.LBE6329:
.LBB6330:
.LBB6264:
	.loc 7 150 0
	cmpwi 7,0,0
.LBE6264:
.LBE6330:
.LBB6331:
.LBB6257:
	.loc 11 892 0
	subf 28,28,30
.LBE6257:
.LBE6331:
.LBB6332:
.LBB6251:
	.loc 7 1245 0
	slwi 27,27,3
.LVL628:
.LBE6251:
.LBE6332:
.LBB6333:
.LBB6258:
	.loc 11 892 0
	srawi 28,28,2
.LVL629:
.LBE6258:
.LBE6333:
.LBB6334:
.LBB6265:
	.loc 7 150 0
	li 29,0
	beq+ 7,.L435
	b .L440
.LBE6265:
.LBE6334:
.LBE6337:
.LBE6344:
	.cfi_endproc
.LFE1897:
	.size	_ZNSt6vectorIP7GuiTextSaIS1_EE13_M_insert_auxEN9__gnu_cxx17__normal_iteratorIPS1_S3_EERKS1_, .-_ZNSt6vectorIP7GuiTextSaIS1_EE13_M_insert_auxEN9__gnu_cxx17__normal_iteratorIPS1_S3_EERKS1_
	.section	.text._ZNSt6vectorIP10GuiTooltipSaIS1_EE13_M_insert_auxEN9__gnu_cxx17__normal_iteratorIPS1_S3_EERKS1_,"axG",@progbits,_ZNSt6vectorIP10GuiTooltipSaIS1_EE13_M_insert_auxEN9__gnu_cxx17__normal_iteratorIPS1_S3_EERKS1_,comdat
	.align 2
	.weak	_ZNSt6vectorIP10GuiTooltipSaIS1_EE13_M_insert_auxEN9__gnu_cxx17__normal_iteratorIPS1_S3_EERKS1_
	.type	_ZNSt6vectorIP10GuiTooltipSaIS1_EE13_M_insert_auxEN9__gnu_cxx17__normal_iteratorIPS1_S3_EERKS1_, @function
_ZNSt6vectorIP10GuiTooltipSaIS1_EE13_M_insert_auxEN9__gnu_cxx17__normal_iteratorIPS1_S3_EERKS1_:
.LFB1900:
	.loc 12 300 0
	.cfi_startproc
.LVL630:
	mflr 0
	stwu 1,-40(1)
.LCFI136:
	.cfi_def_cfa_offset 40
	.cfi_register 65, 0
	stw 28,24(1)
	stw 0,44(1)
	stw 30,32(1)
.LBB6345:
	.loc 12 304 0
	lwz 28,4(3)
	.cfi_offset 30, -8
	.cfi_offset 65, 4
	.cfi_offset 28, -16
	lwz 0,8(3)
.LBE6345:
	.loc 12 300 0
	stw 31,36(1)
	mr 31,3
	.cfi_offset 31, -4
.LBB6492:
	.loc 12 304 0
	cmpw 7,28,0
.LBE6492:
	.loc 12 300 0
	stw 26,16(1)
	stw 27,20(1)
	stw 29,28(1)
	.loc 12 300 0
	lwz 30,0(4)
.LVL631:
.LBB6493:
	.loc 12 304 0
	beq- 7,.L448
	.cfi_offset 29, -12
	.cfi_offset 27, -20
	.cfi_offset 26, -24
.LVL632:
.LBB6346:
.LBB6347:
.LBB6348:
	.loc 8 108 0
	cmpwi 7,28,0
	li 3,0
.LVL633:
	beq- 7,.L449
	lwz 0,-4(28)
	stw 0,0(28)
	lwz 3,4(31)
.L449:
.LBE6348:
.LBE6347:
	.loc 12 313 0
	addi 0,3,-4
	.loc 12 309 0
	addi 9,3,4
.LBB6349:
.LBB6350:
.LBB6351:
.LBB6352:
.LBB6353:
.LBB6354:
	.loc 13 559 0
	subf 0,30,0
.LBE6354:
.LBE6353:
.LBE6352:
.LBE6351:
.LBE6350:
.LBE6349:
	.loc 12 309 0
	stw 9,4(31)
.LBB6370:
.LBB6367:
.LBB6364:
.LBB6361:
.LBB6358:
.LBB6355:
	.loc 13 560 0
	srawi. 0,0,2
.LBE6355:
.LBE6358:
.LBE6361:
.LBE6364:
.LBE6367:
.LBE6370:
	.loc 12 311 0
	lwz 31,0(5)
.LVL634:
.LBB6371:
.LBB6368:
.LBB6365:
.LBB6362:
.LBB6359:
.LBB6356:
	.loc 13 560 0
	bne- 0,.L464
.LVL635:
.L450:
.LBE6356:
.LBE6359:
.LBE6362:
.LBE6365:
.LBE6368:
.LBE6371:
.LBE6346:
.LBE6493:
	.loc 12 373 0
	lwz 0,44(1)
.LBB6494:
.LBB6373:
	.loc 12 317 0
	stw 31,0(30)
.LBE6373:
.LBE6494:
	.loc 12 373 0
	mtlr 0
	lwz 26,16(1)
	lwz 27,20(1)
	lwz 28,24(1)
.LVL636:
	lwz 29,28(1)
	lwz 30,32(1)
.LVL637:
	lwz 31,36(1)
.LVL638:
	addi 1,1,40
	.cfi_remember_state
.LCFI137:
	.cfi_def_cfa_offset 0
	.cfi_restore 31
	.cfi_restore 30
	.cfi_restore 29
	.cfi_restore 28
	.cfi_restore 27
	.cfi_restore 26
	blr
.LVL639:
.L464:
.LCFI138:
	.cfi_restore_state
.LBB6495:
.LBB6374:
.LBB6372:
.LBB6369:
.LBB6366:
.LBB6363:
.LBB6360:
.LBB6357:
	.loc 13 561 0
	slwi 5,0,2
.LVL640:
	mr 4,30
	subf 3,5,3
.LVL641:
	bl memmove
.LVL642:
	b .L450
.LVL643:
.L448:
.LBE6357:
.LBE6360:
.LBE6363:
.LBE6366:
.LBE6369:
.LBE6372:
.LBE6374:
.LBB6375:
.LBB6376:
.LBB6377:
.LBB6378:
.LBB6379:
	.loc 7 571 0
	lwz 27,0(3)
	subf 28,27,28
.LBE6379:
.LBE6378:
.LBB6380:
.LBB6381:
	.loc 13 215 0
	srawi. 28,28,2
	beq- 0,.L452
.LBE6381:
.LBE6380:
	.loc 7 1244 0
	slwi 0,28,1
.LVL644:
	.loc 7 1245 0
	cmplw 7,28,0
	ble- 7,.L465
.L453:
.LVL645:
.LBE6377:
.LBE6376:
.LBB6384:
.LBB6385:
	.loc 11 892 0
	subf 27,27,30
.LBE6385:
.LBE6384:
	.loc 12 326 0
	li 28,-4
.LBB6391:
.LBB6386:
	.loc 11 892 0
	srawi 27,27,2
.LVL646:
.L459:
.LBE6386:
.LBE6391:
.LBB6392:
.LBB6393:
.LBB6394:
.LBB6395:
	.loc 8 92 0
	mr 3,28
.LVL647:
	stw 5,8(1)
	bl _Znwj
.LVL648:
	lwz 5,8(1)
	mr 29,3
.L454:
.LVL649:
.LBE6395:
.LBE6394:
.LBE6393:
.LBE6392:
	.loc 12 335 0
	slwi 27,27,2
.LVL650:
	add 0,29,27
.LVL651:
.LBB6398:
.LBB6399:
	.loc 8 108 0
	cmpwi 7,0,0
	beq- 7,.L455
	lwz 0,0(5)
.LVL652:
	stwx 0,29,27
.L455:
.LVL653:
.LBE6399:
.LBE6398:
	.loc 12 343 0
	lwz 4,0(31)
.LVL654:
.LBB6400:
.LBB6401:
.LBB6402:
.LBB6403:
.LBB6404:
.LBB6405:
.LBB6406:
.LBB6407:
.LBB6408:
.LBB6409:
.LBB6410:
	.loc 13 365 0
	li 27,0
	.loc 13 364 0
	subf 0,4,30
.LVL655:
	.loc 13 365 0
	srawi. 0,0,2
.LVL656:
	bne- 0,.L466
.LVL657:
.L456:
.LBE6410:
.LBE6409:
.LBE6408:
.LBE6407:
.LBE6406:
.LBE6405:
.LBE6404:
.LBE6403:
.LBE6402:
.LBE6401:
.LBE6400:
.LBB6431:
.LBB6432:
.LBB6433:
.LBB6434:
.LBB6435:
.LBB6436:
.LBB6437:
.LBB6438:
.LBB6439:
.LBB6440:
.LBB6441:
	.loc 13 364 0
	lwz 0,4(31)
.LBE6441:
.LBE6440:
.LBE6439:
.LBE6438:
.LBE6437:
.LBE6436:
.LBE6435:
.LBE6434:
.LBE6433:
.LBE6432:
.LBE6431:
.LBB6472:
.LBB6429:
.LBB6427:
.LBB6425:
.LBB6423:
.LBB6421:
.LBB6419:
.LBB6417:
.LBB6415:
.LBB6413:
.LBB6411:
	.loc 13 367 0
	add 27,29,27
.LVL658:
.LBE6411:
.LBE6413:
.LBE6415:
.LBE6417:
.LBE6419:
.LBE6421:
.LBE6423:
.LBE6425:
.LBE6427:
.LBE6429:
.LBE6472:
	.loc 12 347 0
	addi 26,27,4
.LBB6473:
.LBB6469:
.LBB6466:
.LBB6463:
.LBB6460:
.LBB6457:
.LBB6454:
.LBB6451:
.LBB6448:
.LBB6445:
.LBB6442:
	.loc 13 365 0
	li 27,0
.LVL659:
	.loc 13 364 0
	subf 0,30,0
.LVL660:
	.loc 13 365 0
	srawi. 0,0,2
.LVL661:
	bne- 0,.L467
.LVL662:
.L457:
.LBE6442:
.LBE6445:
.LBE6448:
.LBE6451:
.LBE6454:
.LBE6457:
.LBE6460:
.LBE6463:
.LBE6466:
.LBE6469:
.LBE6473:
	.loc 12 366 0
	lwz 3,0(31)
.LBB6474:
.LBB6470:
.LBB6467:
.LBB6464:
.LBB6461:
.LBB6458:
.LBB6455:
.LBB6452:
.LBB6449:
.LBB6446:
.LBB6443:
	.loc 13 367 0
	add 27,26,27
.LVL663:
.LBE6443:
.LBE6446:
.LBE6449:
.LBE6452:
.LBE6455:
.LBE6458:
.LBE6461:
.LBE6464:
.LBE6467:
.LBE6470:
.LBE6474:
.LBB6475:
.LBB6476:
	.loc 7 155 0
	cmpwi 7,3,0
	beq- 7,.L458
.LVL664:
.LBB6477:
.LBB6478:
	.loc 8 98 0
	bl _ZdlPv
.LVL665:
.L458:
.LBE6478:
.LBE6477:
.LBE6476:
.LBE6475:
.LBE6375:
.LBE6495:
	.loc 12 373 0
	lwz 0,44(1)
.LBB6496:
.LBB6489:
	.loc 12 371 0
	add 28,29,28
	.loc 12 369 0
	stw 29,0(31)
.LBE6489:
.LBE6496:
	.loc 12 373 0
	mtlr 0
.LBB6497:
.LBB6490:
	.loc 12 370 0
	stw 27,4(31)
	.loc 12 371 0
	stw 28,8(31)
.LBE6490:
.LBE6497:
	.loc 12 373 0
	lwz 26,16(1)
.LVL666:
	lwz 27,20(1)
.LVL667:
	lwz 28,24(1)
	lwz 29,28(1)
.LVL668:
	lwz 30,32(1)
.LVL669:
	lwz 31,36(1)
.LVL670:
	addi 1,1,40
	.cfi_remember_state
	.cfi_restore 26
	.cfi_restore 27
	.cfi_restore 28
	.cfi_restore 29
	.cfi_restore 30
	.cfi_restore 31
.LCFI139:
	.cfi_def_cfa_offset 0
	blr
.LVL671:
.L452:
.LCFI140:
	.cfi_restore_state
.LBB6498:
.LBB6491:
.LBB6479:
.LBB6387:
	.loc 11 892 0
	subf 27,27,30
.LBE6387:
.LBE6479:
	.loc 12 326 0
	li 28,4
.LBB6480:
.LBB6388:
	.loc 11 892 0
	srawi 27,27,2
.LVL672:
	b .L459
.LVL673:
.L466:
.LBE6388:
.LBE6480:
.LBB6481:
.LBB6430:
.LBB6428:
.LBB6426:
.LBB6424:
.LBB6422:
.LBB6420:
.LBB6418:
.LBB6416:
.LBB6414:
.LBB6412:
	.loc 13 366 0
	slwi 27,0,2
	mr 3,29
	mr 5,27
.LVL674:
	bl memmove
.LVL675:
	b .L456
.LVL676:
.L467:
.LBE6412:
.LBE6414:
.LBE6416:
.LBE6418:
.LBE6420:
.LBE6422:
.LBE6424:
.LBE6426:
.LBE6428:
.LBE6430:
.LBE6481:
.LBB6482:
.LBB6471:
.LBB6468:
.LBB6465:
.LBB6462:
.LBB6459:
.LBB6456:
.LBB6453:
.LBB6450:
.LBB6447:
.LBB6444:
	slwi 27,0,2
	mr 3,26
	mr 4,30
	mr 5,27
	bl memmove
.LVL677:
	b .L457
.LVL678:
.L465:
.LBE6444:
.LBE6447:
.LBE6450:
.LBE6453:
.LBE6456:
.LBE6459:
.LBE6462:
.LBE6465:
.LBE6468:
.LBE6471:
.LBE6482:
.LBB6483:
.LBB6382:
	.loc 7 1245 0
	lis 9,0x3fff
	ori 9,9,65535
	cmplw 7,0,9
	bgt+ 7,.L453
.LBE6382:
.LBE6483:
.LBB6484:
.LBB6396:
	.loc 7 150 0
	cmpwi 7,0,0
.LBE6396:
.LBE6484:
.LBB6485:
.LBB6389:
	.loc 11 892 0
	subf 27,27,30
.LBE6389:
.LBE6485:
.LBB6486:
.LBB6383:
	.loc 7 1245 0
	slwi 28,28,3
.LVL679:
.LBE6383:
.LBE6486:
.LBB6487:
.LBB6390:
	.loc 11 892 0
	srawi 27,27,2
.LVL680:
.LBE6390:
.LBE6487:
.LBB6488:
.LBB6397:
	.loc 7 150 0
	li 29,0
	beq+ 7,.L454
	b .L459
.LBE6397:
.LBE6488:
.LBE6491:
.LBE6498:
	.cfi_endproc
.LFE1900:
	.size	_ZNSt6vectorIP10GuiTooltipSaIS1_EE13_M_insert_auxEN9__gnu_cxx17__normal_iteratorIPS1_S3_EERKS1_, .-_ZNSt6vectorIP10GuiTooltipSaIS1_EE13_M_insert_auxEN9__gnu_cxx17__normal_iteratorIPS1_S3_EERKS1_
	.section	.text._ZNSt6vectorIP9GuiButtonSaIS1_EE13_M_insert_auxEN9__gnu_cxx17__normal_iteratorIPS1_S3_EERKS1_,"axG",@progbits,_ZNSt6vectorIP9GuiButtonSaIS1_EE13_M_insert_auxEN9__gnu_cxx17__normal_iteratorIPS1_S3_EERKS1_,comdat
	.align 2
	.weak	_ZNSt6vectorIP9GuiButtonSaIS1_EE13_M_insert_auxEN9__gnu_cxx17__normal_iteratorIPS1_S3_EERKS1_
	.type	_ZNSt6vectorIP9GuiButtonSaIS1_EE13_M_insert_auxEN9__gnu_cxx17__normal_iteratorIPS1_S3_EERKS1_, @function
_ZNSt6vectorIP9GuiButtonSaIS1_EE13_M_insert_auxEN9__gnu_cxx17__normal_iteratorIPS1_S3_EERKS1_:
.LFB1910:
	.loc 12 300 0
	.cfi_startproc
.LVL681:
	mflr 0
	stwu 1,-40(1)
.LCFI141:
	.cfi_def_cfa_offset 40
	.cfi_register 65, 0
	stw 27,20(1)
	stw 0,44(1)
	stw 30,32(1)
.LBB6561:
	.loc 12 304 0
	lwz 27,4(3)
	.cfi_offset 30, -8
	.cfi_offset 65, 4
	.cfi_offset 27, -20
	lwz 0,8(3)
.LBE6561:
	.loc 12 300 0
	stw 31,36(1)
	mr 31,3
	.cfi_offset 31, -4
.LBB6686:
	.loc 12 304 0
	cmpw 7,27,0
.LBE6686:
	.loc 12 300 0
	stw 26,16(1)
	stw 28,24(1)
	stw 29,28(1)
	.loc 12 300 0
	lwz 30,0(4)
.LVL682:
.LBB6687:
	.loc 12 304 0
	beq- 7,.L469
	.cfi_offset 29, -12
	.cfi_offset 28, -16
	.cfi_offset 26, -24
.LVL683:
.LBB6562:
.LBB6563:
.LBB6564:
	.loc 8 108 0
	cmpwi 7,27,0
	li 3,0
.LVL684:
	beq- 7,.L470
	lwz 0,-4(27)
	stw 0,0(27)
	lwz 3,4(31)
.L470:
.LBE6564:
.LBE6563:
	.loc 12 313 0
	addi 0,3,-4
	.loc 12 309 0
	addi 9,3,4
.LBB6565:
.LBB6566:
.LBB6567:
.LBB6568:
.LBB6569:
.LBB6570:
	.loc 13 559 0
	subf 0,30,0
.LBE6570:
.LBE6569:
.LBE6568:
.LBE6567:
.LBE6566:
.LBE6565:
	.loc 12 309 0
	stw 9,4(31)
.LBB6586:
.LBB6583:
.LBB6580:
.LBB6577:
.LBB6574:
.LBB6571:
	.loc 13 560 0
	srawi. 0,0,2
.LBE6571:
.LBE6574:
.LBE6577:
.LBE6580:
.LBE6583:
.LBE6586:
	.loc 12 311 0
	lwz 31,0(5)
.LVL685:
.LBB6587:
.LBB6584:
.LBB6581:
.LBB6578:
.LBB6575:
.LBB6572:
	.loc 13 560 0
	bne- 0,.L485
.LVL686:
.L471:
.LBE6572:
.LBE6575:
.LBE6578:
.LBE6581:
.LBE6584:
.LBE6587:
.LBE6562:
.LBE6687:
	.loc 12 373 0
	lwz 0,44(1)
.LBB6688:
.LBB6589:
	.loc 12 317 0
	stw 31,0(30)
.LBE6589:
.LBE6688:
	.loc 12 373 0
	mtlr 0
	lwz 26,16(1)
	lwz 27,20(1)
.LVL687:
	lwz 28,24(1)
	lwz 29,28(1)
	lwz 30,32(1)
.LVL688:
	lwz 31,36(1)
.LVL689:
	addi 1,1,40
	.cfi_remember_state
.LCFI142:
	.cfi_def_cfa_offset 0
	.cfi_restore 31
	.cfi_restore 30
	.cfi_restore 29
	.cfi_restore 28
	.cfi_restore 27
	.cfi_restore 26
	blr
.LVL690:
.L485:
.LCFI143:
	.cfi_restore_state
.LBB6689:
.LBB6590:
.LBB6588:
.LBB6585:
.LBB6582:
.LBB6579:
.LBB6576:
.LBB6573:
	.loc 13 561 0
	slwi 5,0,2
.LVL691:
	mr 4,30
	subf 3,5,3
.LVL692:
	bl memmove
.LVL693:
	b .L471
.LVL694:
.L469:
.LBE6573:
.LBE6576:
.LBE6579:
.LBE6582:
.LBE6585:
.LBE6588:
.LBE6590:
.LBB6591:
.LBB6592:
.LBB6593:
.LBB6594:
.LBB6595:
	.loc 7 571 0
	lwz 28,0(3)
	subf 27,28,27
.LBE6595:
.LBE6594:
.LBB6596:
.LBB6597:
	.loc 13 215 0
	srawi. 27,27,2
	beq- 0,.L473
.LBE6597:
.LBE6596:
	.loc 7 1244 0
	slwi 0,27,1
.LVL695:
	.loc 7 1245 0
	cmplw 7,27,0
	ble- 7,.L486
.L474:
.LVL696:
.LBE6593:
.LBE6592:
.LBB6600:
.LBB6601:
	.loc 11 892 0
	subf 28,28,30
.LBE6601:
.LBE6600:
	.loc 12 326 0
	li 27,-4
.LBB6607:
.LBB6602:
	.loc 11 892 0
	srawi 28,28,2
.LVL697:
.L480:
.LBE6602:
.LBE6607:
.LBB6608:
.LBB6609:
.LBB6610:
.LBB6611:
	.loc 8 92 0
	mr 3,27
.LVL698:
	stw 5,8(1)
	bl _Znwj
.LVL699:
	lwz 5,8(1)
	mr 29,3
.L475:
.LVL700:
.LBE6611:
.LBE6610:
.LBE6609:
.LBE6608:
	.loc 12 335 0
	slwi 28,28,2
.LVL701:
	add 0,29,28
.LVL702:
.LBB6614:
.LBB6615:
	.loc 8 108 0
	cmpwi 7,0,0
	beq- 7,.L476
	lwz 0,0(5)
.LVL703:
	stwx 0,29,28
.L476:
.LVL704:
.LBE6615:
.LBE6614:
	.loc 12 343 0
	lwz 4,0(31)
.LVL705:
.LBB6616:
.LBB6617:
.LBB6618:
.LBB6619:
.LBB6620:
.LBB6621:
.LBB6622:
.LBB6623:
.LBB6624:
.LBB6625:
.LBB6626:
	.loc 13 365 0
	li 28,0
	.loc 13 364 0
	subf 0,4,30
.LVL706:
	.loc 13 365 0
	srawi. 0,0,2
.LVL707:
	beq+ 0,.L477
	.loc 13 366 0
	slwi 28,0,2
	mr 3,29
	mr 5,28
.LVL708:
	bl memmove
.LVL709:
.L477:
.LBE6626:
.LBE6625:
.LBE6624:
.LBE6623:
.LBE6622:
.LBE6621:
.LBE6620:
.LBE6619:
.LBE6618:
.LBE6617:
.LBE6616:
.LBB6637:
.LBB6638:
.LBB6639:
.LBB6640:
.LBB6641:
.LBB6642:
.LBB6643:
.LBB6644:
.LBB6645:
.LBB6646:
.LBB6647:
	.loc 13 364 0
	lwz 0,4(31)
.LBE6647:
.LBE6646:
.LBE6645:
.LBE6644:
.LBE6643:
.LBE6642:
.LBE6641:
.LBE6640:
.LBE6639:
.LBE6638:
.LBE6637:
.LBB6668:
.LBB6636:
.LBB6635:
.LBB6634:
.LBB6633:
.LBB6632:
.LBB6631:
.LBB6630:
.LBB6629:
.LBB6628:
.LBB6627:
	.loc 13 367 0
	add 28,29,28
.LVL710:
.LBE6627:
.LBE6628:
.LBE6629:
.LBE6630:
.LBE6631:
.LBE6632:
.LBE6633:
.LBE6634:
.LBE6635:
.LBE6636:
.LBE6668:
	.loc 12 347 0
	addi 26,28,4
.LBB6669:
.LBB6666:
.LBB6664:
.LBB6662:
.LBB6660:
.LBB6658:
.LBB6656:
.LBB6654:
.LBB6652:
.LBB6650:
.LBB6648:
	.loc 13 365 0
	li 28,0
	.loc 13 364 0
	subf 0,30,0
.LVL711:
	.loc 13 365 0
	srawi. 0,0,2
.LVL712:
	beq+ 0,.L478
	.loc 13 366 0
	slwi 28,0,2
	mr 3,26
	mr 4,30
	mr 5,28
	bl memmove
.LVL713:
.L478:
.LBE6648:
.LBE6650:
.LBE6652:
.LBE6654:
.LBE6656:
.LBE6658:
.LBE6660:
.LBE6662:
.LBE6664:
.LBE6666:
.LBE6669:
	.loc 12 366 0
	lwz 3,0(31)
.LBB6670:
.LBB6667:
.LBB6665:
.LBB6663:
.LBB6661:
.LBB6659:
.LBB6657:
.LBB6655:
.LBB6653:
.LBB6651:
.LBB6649:
	.loc 13 367 0
	add 28,26,28
.LVL714:
.LBE6649:
.LBE6651:
.LBE6653:
.LBE6655:
.LBE6657:
.LBE6659:
.LBE6661:
.LBE6663:
.LBE6665:
.LBE6667:
.LBE6670:
.LBB6671:
.LBB6672:
	.loc 7 155 0
	cmpwi 7,3,0
	beq- 7,.L479
.LVL715:
.LBB6673:
.LBB6674:
	.loc 8 98 0
	bl _ZdlPv
.LVL716:
.L479:
.LBE6674:
.LBE6673:
.LBE6672:
.LBE6671:
.LBE6591:
.LBE6689:
	.loc 12 373 0
	lwz 0,44(1)
.LBB6690:
.LBB6683:
	.loc 12 371 0
	add 27,29,27
	.loc 12 369 0
	stw 29,0(31)
.LBE6683:
.LBE6690:
	.loc 12 373 0
	mtlr 0
.LBB6691:
.LBB6684:
	.loc 12 370 0
	stw 28,4(31)
	.loc 12 371 0
	stw 27,8(31)
.LBE6684:
.LBE6691:
	.loc 12 373 0
	lwz 26,16(1)
.LVL717:
	lwz 27,20(1)
	lwz 28,24(1)
	lwz 29,28(1)
.LVL718:
	lwz 30,32(1)
.LVL719:
	lwz 31,36(1)
.LVL720:
	addi 1,1,40
	.cfi_remember_state
	.cfi_restore 26
	.cfi_restore 27
	.cfi_restore 28
	.cfi_restore 29
	.cfi_restore 30
	.cfi_restore 31
.LCFI144:
	.cfi_def_cfa_offset 0
	blr
.LVL721:
.L473:
.LCFI145:
	.cfi_restore_state
.LBB6692:
.LBB6685:
.LBB6675:
.LBB6603:
	.loc 11 892 0
	subf 28,28,30
.LBE6603:
.LBE6675:
	.loc 12 326 0
	li 27,4
.LBB6676:
.LBB6604:
	.loc 11 892 0
	srawi 28,28,2
.LVL722:
	b .L480
.LVL723:
.L486:
.LBE6604:
.LBE6676:
.LBB6677:
.LBB6598:
	.loc 7 1245 0
	lis 9,0x3fff
	ori 9,9,65535
	cmplw 7,0,9
	bgt+ 7,.L474
.LBE6598:
.LBE6677:
.LBB6678:
.LBB6612:
	.loc 7 150 0
	cmpwi 7,0,0
.LBE6612:
.LBE6678:
.LBB6679:
.LBB6605:
	.loc 11 892 0
	subf 28,28,30
.LBE6605:
.LBE6679:
.LBB6680:
.LBB6599:
	.loc 7 1245 0
	slwi 27,27,3
.LVL724:
.LBE6599:
.LBE6680:
.LBB6681:
.LBB6606:
	.loc 11 892 0
	srawi 28,28,2
.LVL725:
.LBE6606:
.LBE6681:
.LBB6682:
.LBB6613:
	.loc 7 150 0
	li 29,0
	beq+ 7,.L475
	b .L480
.LBE6613:
.LBE6682:
.LBE6685:
.LBE6692:
	.cfi_endproc
.LFE1910:
	.size	_ZNSt6vectorIP9GuiButtonSaIS1_EE13_M_insert_auxEN9__gnu_cxx17__normal_iteratorIPS1_S3_EERKS1_, .-_ZNSt6vectorIP9GuiButtonSaIS1_EE13_M_insert_auxEN9__gnu_cxx17__normal_iteratorIPS1_S3_EERKS1_
	.section	.text._ZNSt8_Rb_treeIPN7sigslot12_signal_baseINS0_15single_threadedEEES4_St9_IdentityIS4_ESt4lessIS4_ESaIS4_EE8_M_eraseEPSt13_Rb_tree_nodeIS4_E,"axG",@progbits,_ZNSt8_Rb_treeIPN7sigslot12_signal_baseINS0_15single_threadedEEES4_St9_IdentityIS4_ESt4lessIS4_ESaIS4_EE8_M_eraseEPSt13_Rb_tree_nodeIS4_E,comdat
	.align 2
	.weak	_ZNSt8_Rb_treeIPN7sigslot12_signal_baseINS0_15single_threadedEEES4_St9_IdentityIS4_ESt4lessIS4_ESaIS4_EE8_M_eraseEPSt13_Rb_tree_nodeIS4_E
	.type	_ZNSt8_Rb_treeIPN7sigslot12_signal_baseINS0_15single_threadedEEES4_St9_IdentityIS4_ESt4lessIS4_ESaIS4_EE8_M_eraseEPSt13_Rb_tree_nodeIS4_E, @function
_ZNSt8_Rb_treeIPN7sigslot12_signal_baseINS0_15single_threadedEEES4_St9_IdentityIS4_ESt4lessIS4_ESaIS4_EE8_M_eraseEPSt13_Rb_tree_nodeIS4_E:
.LFB1988:
	.file 14 "d:\\devkitpro\\devkitppc\\bin\\../lib/gcc/powerpc-eabi/4.6.3/../../../../powerpc-eabi/include/c++/4.6.3/bits/stl_tree.h"
	.loc 14 1068 0
	.cfi_startproc
.LVL726:
	stwu 1,-56(1)
.LCFI146:
	.cfi_def_cfa_offset 56
	mflr 0
	stw 22,16(1)
.LBB6809:
	.loc 14 1072 0
	mr. 22,4
	.cfi_offset 22, -40
	.cfi_register 65, 0
.LBE6809:
	.loc 14 1068 0
	stw 30,48(1)
	mr 30,3
	.cfi_offset 30, -8
	stw 0,60(1)
	stw 21,12(1)
	stw 23,20(1)
	stw 24,24(1)
	stw 25,28(1)
	stw 26,32(1)
	stw 27,36(1)
	stw 28,40(1)
	stw 29,44(1)
	stw 31,52(1)
.LBB6894:
	.loc 14 1072 0
	beq- 0,.L487
	.cfi_offset 31, -4
	.cfi_offset 29, -12
	.cfi_offset 28, -16
	.cfi_offset 27, -20
	.cfi_offset 26, -24
	.cfi_offset 25, -28
	.cfi_offset 24, -32
	.cfi_offset 23, -36
	.cfi_offset 21, -44
	.cfi_offset 65, 4
.LVL727:
.L533:
	.loc 3 522 0
	lwz 27,12(22)
.LVL728:
.LBB6810:
.LBB6811:
.LBB6812:
	.loc 14 1072 0
	cmpwi 7,27,0
	beq- 7,.L489
.LVL729:
.L534:
.LBE6812:
	.loc 3 522 0
	lwz 26,12(27)
.LVL730:
.LBB6888:
.LBB6813:
.LBB6814:
.LBB6815:
	.loc 14 1072 0
	cmpwi 7,26,0
	beq- 7,.L490
.LVL731:
.L535:
.LBE6815:
	.loc 3 522 0
	lwz 25,12(26)
.LVL732:
.LBB6881:
.LBB6816:
.LBB6817:
.LBB6818:
	.loc 14 1072 0
	cmpwi 7,25,0
	beq- 7,.L491
.LVL733:
.L536:
.LBE6818:
	.loc 3 522 0
	lwz 24,12(25)
.LVL734:
.LBB6874:
.LBB6819:
.LBB6820:
.LBB6821:
	.loc 14 1072 0
	cmpwi 7,24,0
	beq- 7,.L492
.LVL735:
.L537:
.LBE6821:
	.loc 3 522 0
	lwz 23,12(24)
.LVL736:
.LBB6867:
.LBB6822:
.LBB6823:
.LBB6824:
	.loc 14 1072 0
	cmpwi 7,23,0
	beq- 7,.L493
.LVL737:
.L538:
.LBE6824:
	.loc 3 522 0
	lwz 28,12(23)
.LVL738:
.LBB6860:
.LBB6825:
.LBB6826:
.LBB6827:
	.loc 14 1072 0
	cmpwi 7,28,0
	beq- 7,.L494
.LVL739:
.L539:
.LBE6827:
	.loc 3 522 0
	lwz 29,12(28)
.LVL740:
.LBB6853:
.LBB6828:
.LBB6829:
.LBB6830:
	.loc 14 1072 0
	cmpwi 7,29,0
	beq- 7,.L495
.LVL741:
.L540:
.LBE6830:
	.loc 3 522 0
	lwz 31,12(29)
.LVL742:
.LBB6846:
.LBB6831:
.LBB6832:
.LBB6833:
	.loc 14 1072 0
	cmpwi 7,31,0
	beq- 7,.L496
.LVL743:
.L541:
.LBB6834:
	.loc 14 1074 0
	lwz 4,12(31)
	mr 3,30
	bl _ZNSt8_Rb_treeIPN7sigslot12_signal_baseINS0_15single_threadedEEES4_St9_IdentityIS4_ESt4lessIS4_ESaIS4_EE8_M_eraseEPSt13_Rb_tree_nodeIS4_E
.LBE6834:
.LBE6833:
	.loc 3 522 0
	lwz 21,8(31)
.LVL744:
.LBB6840:
.LBB6839:
.LBB6835:
.LBB6836:
.LBB6837:
.LBB6838:
	.loc 8 98 0
	mr 3,31
	bl _ZdlPv
.LVL745:
.LBE6838:
.LBE6837:
.LBE6836:
.LBE6835:
.LBE6839:
	.loc 14 1072 0
	cmpwi 7,21,0
	.loc 14 1077 0
	mr 31,21
.LVL746:
	.loc 14 1072 0
	bne+ 7,.L541
.LVL747:
.L496:
.LBE6840:
.LBE6832:
.LBE6831:
.LBE6846:
	.loc 3 522 0
	lwz 31,8(29)
.LVL748:
.LBB6847:
.LBB6845:
.LBB6841:
.LBB6842:
.LBB6843:
.LBB6844:
	.loc 8 98 0
	mr 3,29
	bl _ZdlPv
.LVL749:
.LBE6844:
.LBE6843:
.LBE6842:
.LBE6841:
.LBE6845:
	.loc 14 1072 0
	cmpwi 7,31,0
	beq- 7,.L495
	.loc 14 1077 0
	mr 29,31
.LVL750:
	b .L540
.LVL751:
.L495:
.LBE6847:
.LBE6829:
.LBE6828:
.LBE6853:
	.loc 3 522 0
	lwz 31,8(28)
.LVL752:
.LBB6854:
.LBB6852:
.LBB6848:
.LBB6849:
.LBB6850:
.LBB6851:
	.loc 8 98 0
	mr 3,28
	bl _ZdlPv
.LVL753:
.LBE6851:
.LBE6850:
.LBE6849:
.LBE6848:
.LBE6852:
	.loc 14 1072 0
	cmpwi 7,31,0
	beq- 7,.L494
	.loc 14 1077 0
	mr 28,31
.LVL754:
	b .L539
.LVL755:
.L494:
.LBE6854:
.LBE6826:
.LBE6825:
.LBE6860:
	.loc 3 522 0
	lwz 31,8(23)
.LVL756:
.LBB6861:
.LBB6859:
.LBB6855:
.LBB6856:
.LBB6857:
.LBB6858:
	.loc 8 98 0
	mr 3,23
	bl _ZdlPv
.LVL757:
.LBE6858:
.LBE6857:
.LBE6856:
.LBE6855:
.LBE6859:
	.loc 14 1072 0
	cmpwi 7,31,0
	beq- 7,.L493
	.loc 14 1077 0
	mr 23,31
.LVL758:
	b .L538
.LVL759:
.L493:
.LBE6861:
.LBE6823:
.LBE6822:
.LBE6867:
	.loc 3 522 0
	lwz 31,8(24)
.LVL760:
.LBB6868:
.LBB6866:
.LBB6862:
.LBB6863:
.LBB6864:
.LBB6865:
	.loc 8 98 0
	mr 3,24
	bl _ZdlPv
.LVL761:
.LBE6865:
.LBE6864:
.LBE6863:
.LBE6862:
.LBE6866:
	.loc 14 1072 0
	cmpwi 7,31,0
	beq- 7,.L492
	.loc 14 1077 0
	mr 24,31
.LVL762:
	b .L537
.LVL763:
.L492:
.LBE6868:
.LBE6820:
.LBE6819:
.LBE6874:
	.loc 3 522 0
	lwz 31,8(25)
.LVL764:
.LBB6875:
.LBB6873:
.LBB6869:
.LBB6870:
.LBB6871:
.LBB6872:
	.loc 8 98 0
	mr 3,25
	bl _ZdlPv
.LVL765:
.LBE6872:
.LBE6871:
.LBE6870:
.LBE6869:
.LBE6873:
	.loc 14 1072 0
	cmpwi 7,31,0
	beq- 7,.L491
	.loc 14 1077 0
	mr 25,31
.LVL766:
	b .L536
.LVL767:
.L491:
.LBE6875:
.LBE6817:
.LBE6816:
.LBE6881:
	.loc 3 522 0
	lwz 31,8(26)
.LVL768:
.LBB6882:
.LBB6880:
.LBB6876:
.LBB6877:
.LBB6878:
.LBB6879:
	.loc 8 98 0
	mr 3,26
	bl _ZdlPv
.LVL769:
.LBE6879:
.LBE6878:
.LBE6877:
.LBE6876:
.LBE6880:
	.loc 14 1072 0
	cmpwi 7,31,0
	beq- 7,.L490
	.loc 14 1077 0
	mr 26,31
.LVL770:
	b .L535
.LVL771:
.L490:
.LBE6882:
.LBE6814:
.LBE6813:
.LBE6888:
	.loc 3 522 0
	lwz 31,8(27)
.LVL772:
.LBB6889:
.LBB6887:
.LBB6883:
.LBB6884:
.LBB6885:
.LBB6886:
	.loc 8 98 0
	mr 3,27
	bl _ZdlPv
.LVL773:
.LBE6886:
.LBE6885:
.LBE6884:
.LBE6883:
.LBE6887:
	.loc 14 1072 0
	cmpwi 7,31,0
	beq- 7,.L489
	.loc 14 1077 0
	mr 27,31
.LVL774:
	b .L534
.LVL775:
.L489:
	.loc 3 522 0
	lwz 31,8(22)
.LVL776:
.LBE6889:
.LBE6811:
.LBB6890:
.LBB6891:
.LBB6892:
.LBB6893:
	.loc 8 98 0
	mr 3,22
	bl _ZdlPv
.LVL777:
.LBE6893:
.LBE6892:
.LBE6891:
.LBE6890:
.LBE6810:
	.loc 14 1072 0
	cmpwi 7,31,0
	beq- 7,.L487
	.loc 14 1077 0
	mr 22,31
.LVL778:
	b .L533
.LVL779:
.L487:
.LBE6894:
	.loc 14 1079 0
	lwz 0,60(1)
	lwz 21,12(1)
	mtlr 0
	lwz 22,16(1)
	lwz 23,20(1)
	lwz 24,24(1)
	lwz 25,28(1)
	lwz 26,32(1)
	lwz 27,36(1)
	lwz 28,40(1)
	lwz 29,44(1)
	lwz 30,48(1)
.LVL780:
	lwz 31,52(1)
	addi 1,1,56
.LCFI147:
	.cfi_def_cfa_offset 0
	.cfi_restore 31
	.cfi_restore 30
	.cfi_restore 29
	.cfi_restore 28
	.cfi_restore 27
	.cfi_restore 26
	.cfi_restore 25
	.cfi_restore 24
	.cfi_restore 23
	.cfi_restore 22
	.cfi_restore 21
	blr
	.cfi_endproc
.LFE1988:
	.size	_ZNSt8_Rb_treeIPN7sigslot12_signal_baseINS0_15single_threadedEEES4_St9_IdentityIS4_ESt4lessIS4_ESaIS4_EE8_M_eraseEPSt13_Rb_tree_nodeIS4_E, .-_ZNSt8_Rb_treeIPN7sigslot12_signal_baseINS0_15single_threadedEEES4_St9_IdentityIS4_ESt4lessIS4_ESaIS4_EE8_M_eraseEPSt13_Rb_tree_nodeIS4_E
	.section	.text._ZN7sigslot9has_slotsINS_15single_threadedEED2Ev,"axG",@progbits,_ZN7sigslot9has_slotsINS_15single_threadedEED5Ev,comdat
	.align 2
	.weak	_ZN7sigslot9has_slotsINS_15single_threadedEED2Ev
	.type	_ZN7sigslot9has_slotsINS_15single_threadedEED2Ev, @function
_ZN7sigslot9has_slotsINS_15single_threadedEED2Ev:
.LFB1690:
	.loc 1 513 0
	.cfi_startproc
	.cfi_personality 0,__gxx_personality_v0
	.cfi_lsda 0,.LLSDA1690
.LVL781:
	mflr 0
	stwu 1,-32(1)
.LCFI148:
	.cfi_def_cfa_offset 32
	.cfi_register 65, 0
.LBB7041:
	.loc 1 516 0
	lis 9,_ZTVN7sigslot9has_slotsINS_15single_threadedEEE+8@ha
.LBE7041:
	.loc 1 513 0
	stw 28,16(1)
	addi 28,3,4
	.cfi_offset 28, -16
	stw 0,36(1)
.LBB7117:
	.loc 1 516 0
	la 0,_ZTVN7sigslot9has_slotsINS_15single_threadedEEE+8@l(9)
	.cfi_offset 65, 4
.LBE7117:
	.loc 1 513 0
	stw 29,20(1)
	mr 29,3
	.cfi_offset 29, -12
	stw 26,8(1)
	stw 27,12(1)
	stw 30,24(1)
	stw 31,28(1)
.LBB7118:
	.loc 1 516 0
	stw 0,0(3)
.LVL782:
.LEHB78:
.LBB7042:
.LBB7043:
.LBB7044:
.LBB7045:
	.loc 1 338 0
	.cfi_offset 31, -4
	.cfi_offset 30, -8
	.cfi_offset 27, -20
	.cfi_offset 26, -24
	bl _ZN7sigslot15single_threaded4lockEv
.LEHE78:
.LVL783:
.LBE7045:
.LBE7044:
.LBB7046:
	.loc 3 522 0
	lwz 31,16(29)
.LVL784:
.LBE7046:
.LBB7047:
.LBB7048:
.LBB7049:
	.loc 14 671 0
	addi 30,28,4
.LVL785:
.LBE7049:
.LBE7048:
.LBE7047:
	.loc 1 524 0
	cmpw 7,31,30
	beq- 7,.L543
.LVL786:
.L570:
	.loc 1 526 0
	lwz 3,16(31)
	mr 4,29
	lwz 9,0(3)
	lwz 0,16(9)
	mtctr 0
.LEHB79:
	bctrl
.LEHE79:
.LVL787:
.LBB7050:
.LBB7051:
	.loc 14 269 0
	mr 3,31
	bl _ZSt18_Rb_tree_incrementPKSt18_Rb_tree_node_base
.LBE7051:
.LBE7050:
	.loc 1 524 0
	cmpw 7,30,3
.LBB7053:
.LBB7052:
	.loc 14 269 0
	mr 31,3
.LVL788:
.LBE7052:
.LBE7053:
	.loc 1 524 0
	bne+ 7,.L570
	lwz 31,16(29)
.LVL789:
.L543:
.LBB7054:
.LBB7055:
.LBB7056:
.LBB7057:
.LBB7058:
.LBB7059:
.LBB7060:
	.loc 14 665 0
	addi 26,28,4
.LBE7060:
.LBE7059:
	.loc 14 1500 0
	cmpw 7,30,26
	beq- 7,.L545
.LVL790:
	.loc 14 1503 0
	cmpw 7,30,31
	bne+ 7,.L572
	b .L546
.LVL791:
.L567:
	.loc 14 277 0
	mr 31,27
.LVL792:
.L572:
.LBB7061:
.LBB7062:
	mr 3,31
	bl _ZSt18_Rb_tree_incrementPKSt18_Rb_tree_node_base
.LBE7062:
.LBE7061:
.LBB7064:
.LBB7065:
.LBB7066:
	.loc 14 1489 0
	mr 4,26
.LBE7066:
.LBE7065:
.LBE7064:
.LBB7075:
.LBB7063:
	.loc 14 277 0
	mr 27,3
.LVL793:
.LBE7063:
.LBE7075:
.LBB7076:
.LBB7073:
.LBB7071:
	.loc 14 1489 0
	mr 3,31
.LVL794:
	bl _ZSt28_Rb_tree_rebalance_for_erasePSt18_Rb_tree_node_baseRS_
.LBB7067:
.LBB7068:
.LBB7069:
.LBB7070:
	.loc 8 98 0
	bl _ZdlPv
.LBE7070:
.LBE7069:
.LBE7068:
.LBE7067:
.LBE7071:
.LBE7073:
.LBE7076:
	.loc 14 1503 0
	cmpw 7,30,27
.LBB7077:
.LBB7074:
.LBB7072:
	.loc 14 1491 0
	lwz 9,20(28)
	addi 0,9,-1
	stw 0,20(28)
.LBE7072:
.LBE7074:
.LBE7077:
	.loc 14 1503 0
	bne+ 7,.L567
.LVL795:
.L546:
.LBE7058:
.LBE7057:
.LBE7056:
.LBE7055:
.LBE7054:
.LBB7086:
.LBB7087:
.LBB7088:
	.loc 1 343 0
	lwz 9,0(29)
	mr 3,29
	lwz 0,12(9)
	mtctr 0
.LEHB80:
	bctrl
.LEHE80:
.LVL796:
.LBE7088:
.LBE7087:
.LBE7086:
.LBE7043:
.LBE7042:
.LBB7095:
.LBB7096:
.LBB7097:
.LBB7098:
.LBB7099:
	.loc 14 639 0
	lwz 4,12(29)
	mr 3,28
	bl _ZNSt8_Rb_treeIPN7sigslot12_signal_baseINS0_15single_threadedEEES4_St9_IdentityIS4_ESt4lessIS4_ESaIS4_EE8_M_eraseEPSt13_Rb_tree_nodeIS4_E
.LVL797:
.LBE7099:
.LBE7098:
.LBE7097:
.LBE7096:
.LBE7095:
.LBB7100:
.LBB7101:
.LBB7102:
	.loc 1 105 0
	lis 9,_ZTVN7sigslot15single_threadedE+8@ha
	la 0,_ZTVN7sigslot15single_threadedE+8@l(9)
.LBE7102:
.LBE7101:
.LBE7100:
.LBE7118:
	.loc 1 516 0
	lwz 26,8(1)
.LBB7119:
.LBB7105:
.LBB7104:
.LBB7103:
	.loc 1 105 0
	stw 0,0(29)
.LBE7103:
.LBE7104:
.LBE7105:
.LBE7119:
	.loc 1 516 0
	lwz 0,36(1)
	lwz 27,12(1)
	mtlr 0
	lwz 28,16(1)
.LVL798:
	lwz 29,20(1)
.LVL799:
	lwz 30,24(1)
.LVL800:
	lwz 31,28(1)
	addi 1,1,32
	.cfi_remember_state
.LCFI149:
	.cfi_def_cfa_offset 0
	.cfi_restore 31
	.cfi_restore 30
	.cfi_restore 29
	.cfi_restore 28
	.cfi_restore 27
	.cfi_restore 26
	blr
.LVL801:
.L545:
.LCFI150:
	.cfi_restore_state
.LBB7120:
.LBB7106:
.LBB7093:
.LBB7089:
.LBB7085:
.LBB7084:
.LBB7083:
.LBB7082:
.LBB7078:
.LBB7079:
.LBB7080:
.LBB7081:
	.loc 14 809 0
	lwz 4,12(29)
	mr 3,28
	bl _ZNSt8_Rb_treeIPN7sigslot12_signal_baseINS0_15single_threadedEEES4_St9_IdentityIS4_ESt4lessIS4_ESaIS4_EE8_M_eraseEPSt13_Rb_tree_nodeIS4_E
.LVL802:
	.loc 14 811 0
	li 0,0
	.loc 14 810 0
	stw 30,16(29)
.LVL803:
	.loc 14 811 0
	stw 0,12(29)
.LVL804:
	.loc 14 812 0
	stw 30,20(29)
	.loc 14 813 0
	stw 0,24(29)
	b .L546
.LVL805:
.L568:
	mr 31,3
.L553:
.LVL806:
.LBE7081:
.LBE7080:
.LBE7079:
.LBE7078:
.LBE7082:
.LBE7083:
.LBE7084:
.LBE7085:
.LBE7089:
.LBE7093:
.LBE7106:
.LBB7107:
.LBB7108:
.LBB7109:
.LBB7110:
.LBB7111:
.LBB7112:
	.loc 14 639 0
	lwz 4,12(29)
	mr 3,28
	bl _ZNSt8_Rb_treeIPN7sigslot12_signal_baseINS0_15single_threadedEEES4_St9_IdentityIS4_ESt4lessIS4_ESaIS4_EE8_M_eraseEPSt13_Rb_tree_nodeIS4_E
.LVL807:
.LBE7112:
.LBE7111:
.LBE7110:
.LBE7109:
.LBE7108:
.LBE7107:
.LBB7113:
.LBB7114:
.LBB7115:
	.loc 1 105 0
	lis 9,_ZTVN7sigslot15single_threadedE+8@ha
	la 0,_ZTVN7sigslot15single_threadedE+8@l(9)
	mr 3,31
	stw 0,0(29)
.LEHB81:
	bl _Unwind_Resume
.LEHE81:
.LVL808:
.L569:
.LBE7115:
.LBE7114:
.LBE7113:
.LBB7116:
.LBB7094:
.LBB7090:
.LBB7091:
.LBB7092:
	.loc 1 343 0
	lwz 9,0(29)
	mr 31,3
.LVL809:
	mr 3,29
	lwz 0,12(9)
	mtctr 0
	bctrl
	b .L553
.LBE7092:
.LBE7091:
.LBE7090:
.LBE7094:
.LBE7116:
.LBE7120:
	.cfi_endproc
.LFE1690:
	.section	.gcc_except_table
.LLSDA1690:
	.byte	0xff
	.byte	0xff
	.byte	0x1
	.uleb128 .LLSDACSE1690-.LLSDACSB1690
.LLSDACSB1690:
	.uleb128 .LEHB78-.LFB1690
	.uleb128 .LEHE78-.LEHB78
	.uleb128 .L568-.LFB1690
	.uleb128 0
	.uleb128 .LEHB79-.LFB1690
	.uleb128 .LEHE79-.LEHB79
	.uleb128 .L569-.LFB1690
	.uleb128 0
	.uleb128 .LEHB80-.LFB1690
	.uleb128 .LEHE80-.LEHB80
	.uleb128 .L568-.LFB1690
	.uleb128 0
	.uleb128 .LEHB81-.LFB1690
	.uleb128 .LEHE81-.LEHB81
	.uleb128 0
	.uleb128 0
.LLSDACSE1690:
	.section	.text._ZN7sigslot9has_slotsINS_15single_threadedEED2Ev,"axG",@progbits,_ZN7sigslot9has_slotsINS_15single_threadedEED5Ev,comdat
	.size	_ZN7sigslot9has_slotsINS_15single_threadedEED2Ev, .-_ZN7sigslot9has_slotsINS_15single_threadedEED2Ev
	.section	.text._ZN7sigslot9has_slotsINS_15single_threadedEED0Ev,"axG",@progbits,_ZN7sigslot9has_slotsINS_15single_threadedEED5Ev,comdat
	.align 2
	.weak	_ZN7sigslot9has_slotsINS_15single_threadedEED0Ev
	.type	_ZN7sigslot9has_slotsINS_15single_threadedEED0Ev, @function
_ZN7sigslot9has_slotsINS_15single_threadedEED0Ev:
.LFB1692:
	.loc 1 513 0
	.cfi_startproc
	.cfi_personality 0,__gxx_personality_v0
	.cfi_lsda 0,.LLSDA1692
.LVL810:
	mflr 0
	stwu 1,-32(1)
.LCFI151:
	.cfi_def_cfa_offset 32
	.cfi_register 65, 0
.LBB7214:
.LBB7215:
.LBB7216:
	.loc 1 516 0
	lis 9,_ZTVN7sigslot9has_slotsINS_15single_threadedEEE+8@ha
.LBE7216:
.LBE7215:
.LBE7214:
	.loc 1 513 0
	stw 28,16(1)
	addi 28,3,4
	.cfi_offset 28, -16
	stw 0,36(1)
.LBB7300:
.LBB7296:
.LBB7292:
	.loc 1 516 0
	la 0,_ZTVN7sigslot9has_slotsINS_15single_threadedEEE+8@l(9)
	.cfi_offset 65, 4
.LBE7292:
.LBE7296:
.LBE7300:
	.loc 1 513 0
	stw 29,20(1)
	mr 29,3
	.cfi_offset 29, -12
.LVL811:
	stw 26,8(1)
	stw 27,12(1)
	stw 30,24(1)
	stw 31,28(1)
.LBB7301:
.LBB7297:
.LBB7293:
	.loc 1 516 0
	stw 0,0(3)
.LVL812:
.LEHB82:
.LBB7217:
.LBB7218:
.LBB7219:
.LBB7220:
	.loc 1 338 0
	.cfi_offset 31, -4
	.cfi_offset 30, -8
	.cfi_offset 27, -20
	.cfi_offset 26, -24
	bl _ZN7sigslot15single_threaded4lockEv
.LEHE82:
.LVL813:
.LBE7220:
.LBE7219:
.LBB7221:
	.loc 3 522 0
	lwz 31,16(29)
.LVL814:
.LBE7221:
.LBB7222:
.LBB7223:
.LBB7224:
	.loc 14 671 0
	addi 30,28,4
.LVL815:
.LBE7224:
.LBE7223:
.LBE7222:
	.loc 1 524 0
	cmpw 7,31,30
	beq- 7,.L575
.LVL816:
.L603:
	.loc 1 526 0
	lwz 3,16(31)
	mr 4,29
	lwz 9,0(3)
	lwz 0,16(9)
	mtctr 0
.LEHB83:
	bctrl
.LEHE83:
.LVL817:
.LBB7225:
.LBB7226:
	.loc 14 269 0
	mr 3,31
	bl _ZSt18_Rb_tree_incrementPKSt18_Rb_tree_node_base
.LBE7226:
.LBE7225:
	.loc 1 524 0
	cmpw 7,30,3
.LBB7228:
.LBB7227:
	.loc 14 269 0
	mr 31,3
.LVL818:
.LBE7227:
.LBE7228:
	.loc 1 524 0
	bne+ 7,.L603
	lwz 31,16(29)
.LVL819:
.L575:
.LBB7229:
.LBB7230:
.LBB7231:
.LBB7232:
.LBB7233:
.LBB7234:
.LBB7235:
	.loc 14 665 0
	addi 26,28,4
.LBE7235:
.LBE7234:
	.loc 14 1500 0
	cmpw 7,30,26
	beq- 7,.L577
.LVL820:
	.loc 14 1503 0
	cmpw 7,30,31
	bne+ 7,.L605
	b .L578
.LVL821:
.L600:
	.loc 14 277 0
	mr 31,27
.LVL822:
.L605:
.LBB7236:
.LBB7237:
	mr 3,31
	bl _ZSt18_Rb_tree_incrementPKSt18_Rb_tree_node_base
.LBE7237:
.LBE7236:
.LBB7239:
.LBB7240:
.LBB7241:
	.loc 14 1489 0
	mr 4,26
.LBE7241:
.LBE7240:
.LBE7239:
.LBB7250:
.LBB7238:
	.loc 14 277 0
	mr 27,3
.LVL823:
.LBE7238:
.LBE7250:
.LBB7251:
.LBB7248:
.LBB7246:
	.loc 14 1489 0
	mr 3,31
.LVL824:
	bl _ZSt28_Rb_tree_rebalance_for_erasePSt18_Rb_tree_node_baseRS_
.LBB7242:
.LBB7243:
.LBB7244:
.LBB7245:
	.loc 8 98 0
	bl _ZdlPv
.LBE7245:
.LBE7244:
.LBE7243:
.LBE7242:
.LBE7246:
.LBE7248:
.LBE7251:
	.loc 14 1503 0
	cmpw 7,30,27
.LBB7252:
.LBB7249:
.LBB7247:
	.loc 14 1491 0
	lwz 9,20(28)
	addi 0,9,-1
	stw 0,20(28)
.LBE7247:
.LBE7249:
.LBE7252:
	.loc 14 1503 0
	bne+ 7,.L600
.LVL825:
.L578:
.LBE7233:
.LBE7232:
.LBE7231:
.LBE7230:
.LBE7229:
.LBB7261:
.LBB7262:
.LBB7263:
	.loc 1 343 0
	lwz 9,0(29)
	mr 3,29
	lwz 0,12(9)
	mtctr 0
.LEHB84:
	bctrl
.LEHE84:
.LVL826:
.LBE7263:
.LBE7262:
.LBE7261:
.LBE7218:
.LBE7217:
.LBB7270:
.LBB7271:
.LBB7272:
.LBB7273:
.LBB7274:
	.loc 14 639 0
	lwz 4,12(29)
	mr 3,28
	bl _ZNSt8_Rb_treeIPN7sigslot12_signal_baseINS0_15single_threadedEEES4_St9_IdentityIS4_ESt4lessIS4_ESaIS4_EE8_M_eraseEPSt13_Rb_tree_nodeIS4_E
.LVL827:
.LBE7274:
.LBE7273:
.LBE7272:
.LBE7271:
.LBE7270:
.LBB7275:
.LBB7276:
.LBB7277:
	.loc 1 105 0
	lis 9,_ZTVN7sigslot15single_threadedE+8@ha
	la 0,_ZTVN7sigslot15single_threadedE+8@l(9)
.LBE7277:
.LBE7276:
.LBE7275:
.LBE7293:
.LBE7297:
.LBE7301:
	.loc 1 516 0
	mr 3,29
.LBB7302:
.LBB7298:
.LBB7294:
.LBB7280:
.LBB7279:
.LBB7278:
	.loc 1 105 0
	stw 0,0(29)
.LBE7278:
.LBE7279:
.LBE7280:
.LBE7294:
.LBE7298:
.LBE7302:
	.loc 1 516 0
	bl _ZdlPv
	lwz 0,36(1)
	lwz 26,8(1)
	mtlr 0
	lwz 27,12(1)
	lwz 28,16(1)
.LVL828:
	lwz 29,20(1)
.LVL829:
	lwz 30,24(1)
.LVL830:
	lwz 31,28(1)
	addi 1,1,32
	.cfi_remember_state
.LCFI152:
	.cfi_def_cfa_offset 0
	.cfi_restore 31
	.cfi_restore 30
	.cfi_restore 29
	.cfi_restore 28
	.cfi_restore 27
	.cfi_restore 26
	blr
.LVL831:
.L577:
.LCFI153:
	.cfi_restore_state
.LBB7303:
.LBB7299:
.LBB7295:
.LBB7281:
.LBB7268:
.LBB7264:
.LBB7260:
.LBB7259:
.LBB7258:
.LBB7257:
.LBB7253:
.LBB7254:
.LBB7255:
.LBB7256:
	.loc 14 809 0
	lwz 4,12(29)
	mr 3,28
	bl _ZNSt8_Rb_treeIPN7sigslot12_signal_baseINS0_15single_threadedEEES4_St9_IdentityIS4_ESt4lessIS4_ESaIS4_EE8_M_eraseEPSt13_Rb_tree_nodeIS4_E
.LVL832:
	.loc 14 811 0
	li 0,0
	.loc 14 810 0
	stw 30,16(29)
.LVL833:
	.loc 14 811 0
	stw 0,12(29)
.LVL834:
	.loc 14 812 0
	stw 30,20(29)
	.loc 14 813 0
	stw 0,24(29)
	b .L578
.LVL835:
.L601:
	mr 31,3
.L585:
.LVL836:
.LBE7256:
.LBE7255:
.LBE7254:
.LBE7253:
.LBE7257:
.LBE7258:
.LBE7259:
.LBE7260:
.LBE7264:
.LBE7268:
.LBE7281:
.LBB7282:
.LBB7283:
.LBB7284:
.LBB7285:
.LBB7286:
.LBB7287:
	.loc 14 639 0
	lwz 4,12(29)
	mr 3,28
	bl _ZNSt8_Rb_treeIPN7sigslot12_signal_baseINS0_15single_threadedEEES4_St9_IdentityIS4_ESt4lessIS4_ESaIS4_EE8_M_eraseEPSt13_Rb_tree_nodeIS4_E
.LVL837:
.LBE7287:
.LBE7286:
.LBE7285:
.LBE7284:
.LBE7283:
.LBE7282:
.LBB7288:
.LBB7289:
.LBB7290:
	.loc 1 105 0
	lis 9,_ZTVN7sigslot15single_threadedE+8@ha
	la 0,_ZTVN7sigslot15single_threadedE+8@l(9)
	mr 3,31
	stw 0,0(29)
.LEHB85:
	bl _Unwind_Resume
.LEHE85:
.LVL838:
.L602:
.LBE7290:
.LBE7289:
.LBE7288:
.LBB7291:
.LBB7269:
.LBB7265:
.LBB7266:
.LBB7267:
	.loc 1 343 0
	lwz 9,0(29)
	mr 31,3
.LVL839:
	mr 3,29
	lwz 0,12(9)
	mtctr 0
	bctrl
	b .L585
.LBE7267:
.LBE7266:
.LBE7265:
.LBE7269:
.LBE7291:
.LBE7295:
.LBE7299:
.LBE7303:
	.cfi_endproc
.LFE1692:
	.section	.gcc_except_table
.LLSDA1692:
	.byte	0xff
	.byte	0xff
	.byte	0x1
	.uleb128 .LLSDACSE1692-.LLSDACSB1692
.LLSDACSB1692:
	.uleb128 .LEHB82-.LFB1692
	.uleb128 .LEHE82-.LEHB82
	.uleb128 .L601-.LFB1692
	.uleb128 0
	.uleb128 .LEHB83-.LFB1692
	.uleb128 .LEHE83-.LEHB83
	.uleb128 .L602-.LFB1692
	.uleb128 0
	.uleb128 .LEHB84-.LFB1692
	.uleb128 .LEHE84-.LEHB84
	.uleb128 .L601-.LFB1692
	.uleb128 0
	.uleb128 .LEHB85-.LFB1692
	.uleb128 .LEHE85-.LEHB85
	.uleb128 0
	.uleb128 0
.LLSDACSE1692:
	.section	.text._ZN7sigslot9has_slotsINS_15single_threadedEED0Ev,"axG",@progbits,_ZN7sigslot9has_slotsINS_15single_threadedEED5Ev,comdat
	.size	_ZN7sigslot9has_slotsINS_15single_threadedEED0Ev, .-_ZN7sigslot9has_slotsINS_15single_threadedEED0Ev
	.section	.text._ZNSt8_Rb_treeIPN7sigslot12_signal_baseINS0_15single_threadedEEES4_St9_IdentityIS4_ESt4lessIS4_ESaIS4_EE16_M_insert_uniqueERKS4_,"axG",@progbits,_ZNSt8_Rb_treeIPN7sigslot12_signal_baseINS0_15single_threadedEEES4_St9_IdentityIS4_ESt4lessIS4_ESaIS4_EE16_M_insert_uniqueERKS4_,comdat
	.align 2
	.weak	_ZNSt8_Rb_treeIPN7sigslot12_signal_baseINS0_15single_threadedEEES4_St9_IdentityIS4_ESt4lessIS4_ESaIS4_EE16_M_insert_uniqueERKS4_
	.type	_ZNSt8_Rb_treeIPN7sigslot12_signal_baseINS0_15single_threadedEEES4_St9_IdentityIS4_ESt4lessIS4_ESaIS4_EE16_M_insert_uniqueERKS4_, @function
_ZNSt8_Rb_treeIPN7sigslot12_signal_baseINS0_15single_threadedEEES4_St9_IdentityIS4_ESt4lessIS4_ESaIS4_EE16_M_insert_uniqueERKS4_:
.LFB2188:
	.loc 14 1264 0
	.cfi_startproc
.LVL840:
	mflr 0
	stwu 1,-32(1)
.LCFI154:
	.cfi_def_cfa_offset 32
	.cfi_register 65, 0
	stw 28,16(1)
	stw 0,36(1)
	stw 27,12(1)
	mr 27,4
	.cfi_offset 27, -20
	.cfi_offset 65, 4
	.cfi_offset 28, -16
.LBB7343:
.LBB7344:
.LBB7345:
	.loc 3 522 0
	lwz 28,8(3)
.LVL841:
.LBE7345:
.LBE7344:
.LBE7343:
	.loc 14 1264 0
	stw 29,20(1)
.LBB7370:
.LBB7362:
.LBB7358:
	.loc 14 1272 0
	addi 29,3,4
	.cfi_offset 29, -12
.LVL842:
.LBE7358:
.LBE7362:
	.loc 14 1274 0
	cmpwi 7,28,0
.LBE7370:
	.loc 14 1264 0
	stw 31,28(1)
	stw 26,8(1)
	mr 31,3
	.cfi_offset 26, -24
	.cfi_offset 31, -4
	stw 30,24(1)
.LBB7371:
	.loc 14 1274 0
	beq- 7,.L622
	.cfi_offset 30, -8
	lwz 10,0(4)
	b .L611
.LVL843:
.L630:
	.loc 3 522 0 discriminator 1
	lwz 0,8(28)
.LVL844:
	.loc 14 1274 0 discriminator 1
	cmpwi 7,0,0
	beq- 7,.L629
.LVL845:
.L623:
	.loc 14 1274 0 is_stmt 0
	mr 28,0
.LVL846:
.L611:
	.loc 3 522 0 is_stmt 1
	lwz 9,16(28)
	li 11,1
	.loc 14 1278 0
	cmplw 7,9,10
	bgt- 7,.L630
.LVL847:
	.loc 3 522 0 discriminator 2
	lwz 0,12(28)
	li 11,0
.LVL848:
	.loc 14 1274 0 discriminator 2
	cmpwi 7,0,0
	bne+ 7,.L623
.LVL849:
.L629:
	.loc 14 1281 0
	cmpwi 7,11,0
	mr 3,28
.LVL850:
	bne- 7,.L608
.LVL851:
	.loc 14 1289 0
	cmplw 7,10,9
	bgt- 7,.L631
.LVL852:
.L618:
	.loc 14 1292 0
	li 0,0
	li 4,0
	rlwimi 4,0,24,0,7
.LBE7371:
	.loc 14 1293 0
	lwz 0,36(1)
	lwz 26,8(1)
	mtlr 0
	lwz 27,12(1)
.LVL853:
	lwz 28,16(1)
	lwz 29,20(1)
	lwz 30,24(1)
	lwz 31,28(1)
.LVL854:
	addi 1,1,32
	.cfi_remember_state
.LCFI155:
	.cfi_def_cfa_offset 0
	.cfi_restore 31
	.cfi_restore 30
	.cfi_restore 29
	.cfi_restore 28
	.cfi_restore 27
	.cfi_restore 26
	blr
.LVL855:
.L622:
.LCFI156:
	.cfi_restore_state
.LBB7372:
	.loc 14 1272 0
	mr 28,29
.LVL856:
.L608:
	.loc 14 1283 0
	lwz 0,12(31)
	cmpw 7,28,0
	beq- 7,.L632
.LVL857:
.LBB7363:
.LBB7364:
	.loc 14 203 0
	mr 3,28
	bl _ZSt18_Rb_tree_decrementPSt18_Rb_tree_node_base
.LVL858:
	lwz 10,0(27)
	lwz 9,16(3)
.LVL859:
.LBE7364:
.LBE7363:
	.loc 14 1289 0
	cmplw 7,10,9
	ble+ 7,.L618
.LVL860:
.L631:
.LBB7365:
.LBB7359:
	.loc 14 969 0
	cmpw 7,28,29
	li 26,1
	beq- 7,.L619
.LVL861:
	.loc 14 1264 0
	lwz 26,16(28)
	subfc 26,26,10
	subfe 26,26,26
	neg 26,26
	b .L619
.LVL862:
.L632:
.LBE7359:
.LBE7365:
.LBB7366:
.LBB7367:
	.loc 14 969 0
	cmpw 7,28,29
	li 26,1
	beq- 7,.L619
.LVL863:
	.loc 14 1264 0
	lwz 26,0(27)
	lwz 0,16(28)
.LVL864:
	subfc 26,0,26
	subfe 26,26,26
	neg 26,26
.LVL865:
.L619:
.LBE7367:
.LBE7366:
.LBB7368:
.LBB7360:
.LBB7346:
.LBB7347:
.LBB7348:
.LBB7349:
.LBB7350:
	.loc 8 92 0
	li 3,20
	bl _Znwj
.LBE7350:
.LBE7349:
.LBE7348:
.LBB7353:
.LBB7354:
	.loc 8 108 0
	cmpwi 7,3,-16
.LBE7354:
.LBE7353:
.LBB7356:
.LBB7352:
.LBB7351:
	.loc 8 92 0
	mr 30,3
.LVL866:
.LBE7351:
.LBE7352:
.LBE7356:
.LBB7357:
.LBB7355:
	.loc 8 108 0
	beq- 7,.L621
	lwz 0,0(27)
	stw 0,16(3)
.L621:
.LVL867:
.LBE7355:
.LBE7357:
.LBE7347:
.LBE7346:
	.loc 14 973 0
	mr 3,26
.LVL868:
	mr 4,30
	mr 5,28
	mr 6,29
	bl _ZSt29_Rb_tree_insert_and_rebalancebPSt18_Rb_tree_node_baseS0_RS_
	.loc 14 976 0
	lwz 9,20(31)
	.loc 14 1291 0
	li 4,0
	mr 3,30
	.loc 14 976 0
	addi 0,9,1
.LBE7360:
.LBE7368:
.LBE7372:
	.loc 14 1293 0
	lwz 26,8(1)
.LVL869:
.LBB7373:
.LBB7369:
.LBB7361:
	.loc 14 976 0
	stw 0,20(31)
.LVL870:
	.loc 14 1291 0
	li 0,1
	rlwimi 4,0,24,0,7
.LBE7361:
.LBE7369:
.LBE7373:
	.loc 14 1293 0
	lwz 0,36(1)
	lwz 27,12(1)
.LVL871:
	mtlr 0
	lwz 28,16(1)
	lwz 29,20(1)
	lwz 30,24(1)
.LVL872:
	lwz 31,28(1)
.LVL873:
	addi 1,1,32
	.cfi_restore 26
	.cfi_restore 27
	.cfi_restore 28
	.cfi_restore 29
	.cfi_restore 30
	.cfi_restore 31
.LCFI157:
	.cfi_def_cfa_offset 0
	blr
	.cfi_endproc
.LFE2188:
	.size	_ZNSt8_Rb_treeIPN7sigslot12_signal_baseINS0_15single_threadedEEES4_St9_IdentityIS4_ESt4lessIS4_ESaIS4_EE16_M_insert_uniqueERKS4_, .-_ZNSt8_Rb_treeIPN7sigslot12_signal_baseINS0_15single_threadedEEES4_St9_IdentityIS4_ESt4lessIS4_ESaIS4_EE16_M_insert_uniqueERKS4_
	.section	.text._ZN7sigslot7signal3IP9GuiButtoniRK6_POINTNS_15single_threadedEE7connectI15IconFileBrowserEEvPT_MSA_FvS2_iS5_E,"axG",@progbits,_ZN7sigslot7signal3IP9GuiButtoniRK6_POINTNS_15single_threadedEE7connectI15IconFileBrowserEEvPT_MSA_FvS2_iS5_E,comdat
	.align 2
	.weak	_ZN7sigslot7signal3IP9GuiButtoniRK6_POINTNS_15single_threadedEE7connectI15IconFileBrowserEEvPT_MSA_FvS2_iS5_E
	.type	_ZN7sigslot7signal3IP9GuiButtoniRK6_POINTNS_15single_threadedEE7connectI15IconFileBrowserEEvPT_MSA_FvS2_iS5_E, @function
_ZN7sigslot7signal3IP9GuiButtoniRK6_POINTNS_15single_threadedEE7connectI15IconFileBrowserEEvPT_MSA_FvS2_iS5_E:
.LFB1724:
	.loc 1 2308 0
	.cfi_startproc
	.cfi_personality 0,__gxx_personality_v0
	.cfi_lsda 0,.LLSDA1724
.LVL874:
	mflr 0
	stwu 1,-48(1)
.LCFI158:
	.cfi_def_cfa_offset 48
	.cfi_register 65, 0
	stw 27,28(1)
	stw 0,52(1)
	stw 30,40(1)
	mr 30,4
	.cfi_offset 30, -8
	.cfi_offset 65, 4
	.cfi_offset 27, -20
.LBB7416:
.LBB7417:
.LBB7418:
	.loc 1 338 0
	lwz 9,0(3)
.LBE7418:
.LBE7417:
.LBE7416:
	.loc 1 2308 0
	stw 31,44(1)
	mr 31,3
	.cfi_offset 31, -4
.LVL875:
.LBB7471:
.LBB7422:
.LBB7419:
	.loc 1 338 0
	lwz 0,8(9)
.LBE7419:
.LBE7422:
.LBE7471:
	.loc 1 2308 0
	stw 28,32(1)
	stw 29,36(1)
.LBB7472:
.LBB7423:
.LBB7420:
	.loc 1 338 0
	mtctr 0
.LBE7420:
.LBE7423:
.LBE7472:
	.loc 1 2308 0
	lwz 27,0(5)
	lwz 28,4(5)
	.cfi_offset 29, -12
	.cfi_offset 28, -16
.LEHB86:
.LBB7473:
.LBB7424:
.LBB7421:
	.loc 1 338 0
	bctrl
.LEHE86:
.LVL876:
.LBE7421:
.LBE7424:
	.loc 1 2314 0
	li 3,16
.LEHB87:
	bl _Znwj
.LBB7425:
.LBB7426:
	.loc 1 1778 0
	lis 9,_ZTVN7sigslot12_connection3I15IconFileBrowserP9GuiButtoniRK6_POINTNS_15single_threadedEEE+8@ha
	.loc 1 1779 0
	stw 30,4(3)
	.loc 1 1778 0
	la 0,_ZTVN7sigslot12_connection3I15IconFileBrowserP9GuiButtoniRK6_POINTNS_15single_threadedEEE+8@l(9)
	.loc 1 1780 0
	stw 27,8(3)
	.loc 1 1778 0
	stw 0,0(3)
.LBE7426:
.LBE7425:
	.loc 1 2314 0
	mr 29,3
.LVL877:
.LBB7428:
.LBB7427:
	.loc 1 1780 0
	stw 28,12(3)
.LVL878:
.LBE7427:
.LBE7428:
.LBB7429:
.LBB7430:
.LBB7431:
.LBB7432:
.LBB7433:
.LBB7434:
.LBB7435:
.LBB7436:
	.loc 8 92 0
	li 3,12
.LVL879:
	bl _Znwj
.LVL880:
.LBE7436:
.LBE7435:
.LBE7434:
.LBB7437:
.LBB7438:
	.loc 8 108 0 discriminator 1
	cmpwi 7,3,-8
	beq- 7,.L635
	.loc 8 108 0 is_stmt 0
	stw 29,8(3)
.LVL881:
.L635:
.LBE7438:
.LBE7437:
.LBE7433:
.LBE7432:
	.loc 4 1516 0 is_stmt 1
	addi 4,31,4
.LBE7431:
.LBE7430:
.LBE7429:
.LBB7443:
.LBB7444:
	.loc 1 503 0
	addi 29,30,160
.LVL882:
.LBE7444:
.LBE7443:
.LBB7460:
.LBB7441:
.LBB7439:
	.loc 4 1516 0
	bl _ZNSt8__detail15_List_node_base7_M_hookEPS0_
.LVL883:
.LBE7439:
.LBE7441:
.LBE7460:
.LBB7461:
.LBB7457:
.LBB7445:
.LBB7446:
	.loc 1 338 0
	lwz 9,160(30)
.LBE7446:
.LBE7445:
.LBE7457:
.LBE7461:
.LBB7462:
.LBB7442:
.LBB7440:
	.loc 4 1516 0
	stw 31,8(1)
.LVL884:
.LBE7440:
.LBE7442:
.LBE7462:
.LBB7463:
.LBB7458:
.LBB7448:
.LBB7447:
	.loc 1 338 0
	mr 3,29
	lwz 0,8(9)
	mtctr 0
	bctrl
.LEHE87:
.LVL885:
.LBE7447:
.LBE7448:
.LBB7449:
.LBB7450:
	.file 15 "d:\\devkitpro\\devkitppc\\bin\\../lib/gcc/powerpc-eabi/4.6.3/../../../../powerpc-eabi/include/c++/4.6.3/bits/stl_set.h"
	.loc 15 410 0
	addi 3,30,164
	addi 4,1,8
.LEHB88:
	bl _ZNSt8_Rb_treeIPN7sigslot12_signal_baseINS0_15single_threadedEEES4_St9_IdentityIS4_ESt4lessIS4_ESaIS4_EE16_M_insert_uniqueERKS4_
.LEHE88:
.LVL886:
.LBE7450:
.LBE7449:
.LBB7451:
.LBB7452:
.LBB7453:
	.loc 1 343 0
	lwz 9,160(30)
	mr 3,29
	lwz 0,12(9)
	mtctr 0
.LEHB89:
	bctrl
.LEHE89:
.LVL887:
.LBE7453:
.LBE7452:
.LBE7451:
.LBE7458:
.LBE7463:
.LBB7464:
.LBB7465:
.LBB7466:
	lwz 9,0(31)
	mr 3,31
	lwz 0,12(9)
	mtctr 0
.LEHB90:
	bctrl
.LEHE90:
.LBE7466:
.LBE7465:
.LBE7464:
.LBE7473:
	.loc 1 2317 0
	lwz 0,52(1)
	lwz 27,28(1)
.LVL888:
	mtlr 0
	lwz 28,32(1)
.LVL889:
	lwz 29,36(1)
.LVL890:
	lwz 30,40(1)
.LVL891:
	lwz 31,44(1)
.LVL892:
	addi 1,1,48
	.cfi_remember_state
.LCFI159:
	.cfi_def_cfa_offset 0
	.cfi_restore 31
	.cfi_restore 30
	.cfi_restore 29
	.cfi_restore 28
	.cfi_restore 27
	blr
.LVL893:
.L642:
.LCFI160:
	.cfi_restore_state
	mr 30,3
.LVL894:
.L639:
.LBB7474:
.LBB7467:
.LBB7468:
.LBB7469:
	.loc 1 343 0
	lwz 9,0(31)
	mr 3,31
	lwz 0,12(9)
	mtctr 0
	bctrl
	mr 3,30
.LEHB91:
	bl _Unwind_Resume
.LEHE91:
.LVL895:
.L643:
.LBE7469:
.LBE7468:
.LBE7467:
.LBB7470:
.LBB7459:
.LBB7454:
.LBB7455:
.LBB7456:
	lwz 9,160(30)
	mr 30,3
.LVL896:
	mr 3,29
	lwz 0,12(9)
	mtctr 0
	bctrl
	b .L639
.LBE7456:
.LBE7455:
.LBE7454:
.LBE7459:
.LBE7470:
.LBE7474:
	.cfi_endproc
.LFE1724:
	.section	.gcc_except_table
.LLSDA1724:
	.byte	0xff
	.byte	0xff
	.byte	0x1
	.uleb128 .LLSDACSE1724-.LLSDACSB1724
.LLSDACSB1724:
	.uleb128 .LEHB86-.LFB1724
	.uleb128 .LEHE86-.LEHB86
	.uleb128 0
	.uleb128 0
	.uleb128 .LEHB87-.LFB1724
	.uleb128 .LEHE87-.LEHB87
	.uleb128 .L642-.LFB1724
	.uleb128 0
	.uleb128 .LEHB88-.LFB1724
	.uleb128 .LEHE88-.LEHB88
	.uleb128 .L643-.LFB1724
	.uleb128 0
	.uleb128 .LEHB89-.LFB1724
	.uleb128 .LEHE89-.LEHB89
	.uleb128 .L642-.LFB1724
	.uleb128 0
	.uleb128 .LEHB90-.LFB1724
	.uleb128 .LEHE90-.LEHB90
	.uleb128 0
	.uleb128 0
	.uleb128 .LEHB91-.LFB1724
	.uleb128 .LEHE91-.LEHB91
	.uleb128 0
	.uleb128 0
.LLSDACSE1724:
	.section	.text._ZN7sigslot7signal3IP9GuiButtoniRK6_POINTNS_15single_threadedEE7connectI15IconFileBrowserEEvPT_MSA_FvS2_iS5_E,"axG",@progbits,_ZN7sigslot7signal3IP9GuiButtoniRK6_POINTNS_15single_threadedEE7connectI15IconFileBrowserEEvPT_MSA_FvS2_iS5_E,comdat
	.size	_ZN7sigslot7signal3IP9GuiButtoniRK6_POINTNS_15single_threadedEE7connectI15IconFileBrowserEEvPT_MSA_FvS2_iS5_E, .-_ZN7sigslot7signal3IP9GuiButtoniRK6_POINTNS_15single_threadedEE7connectI15IconFileBrowserEEvPT_MSA_FvS2_iS5_E
	.section	".text"
	.align 2
	.globl _ZN15IconFileBrowser9AddButtonEv
	.type	_ZN15IconFileBrowser9AddButtonEv, @function
_ZN15IconFileBrowser9AddButtonEv:
.LFB1620:
	.loc 3 151 0
	.cfi_startproc
	.cfi_personality 0,__gxx_personality_v0
	.cfi_lsda 0,.LLSDA1620
.LVL897:
	mflr 0
	stwu 1,-88(1)
.LCFI161:
	.cfi_def_cfa_offset 88
	.cfi_register 65, 0
	stw 31,84(1)
	mr 31,3
	.cfi_offset 31, -4
	stw 0,92(1)
	stw 29,76(1)
.LBB7513:
.LBB7514:
.LBB7515:
	.loc 7 828 0
	lwz 0,244(3)
	.cfi_offset 29, -12
	.cfi_offset 65, 4
	lwz 9,240(3)
.LBE7515:
.LBE7514:
.LBE7513:
	.loc 3 151 0
	stw 30,80(1)
.LBB7558:
.LBB7523:
.LBB7520:
	.loc 7 828 0
	cmpw 7,9,0
.LBE7520:
.LBE7523:
	.loc 3 152 0
	li 0,0
	stw 0,24(1)
.LVL898:
.LBB7524:
.LBB7521:
	.loc 7 828 0
	beq- 7,.L646
	.cfi_offset 30, -8
.LVL899:
.LBB7516:
.LBB7517:
	.loc 8 108 0
	cmpwi 7,9,0
	li 11,0
	beq- 7,.L647
	stw 11,0(9)
	lwz 11,240(3)
.L647:
.LBE7517:
.LBE7516:
	.loc 7 831 0
	addi 11,11,4
	stw 11,240(31)
.LVL900:
.L648:
.LBE7521:
.LBE7524:
	.loc 3 155 0
	lis 3,.LC10@ha
	la 3,.LC10@l(3)
.LEHB92:
	bl getThemeColor
	mr 29,3
	li 3,208
	bl _Znwj
.LEHE92:
	mr 6,1
	stwu 29,44(6)
	li 4,0
	li 5,14
	mr 30,3
.LVL901:
.LEHB93:
	bl _ZN7GuiTextC1EPKci9_gx_color
.LEHE93:
	.loc 3 156 0 discriminator 1
	lwz 9,0(30)
.LVL902:
	mr 3,30
	li 4,66
	.loc 3 155 0 discriminator 1
	stw 30,20(1)
	.loc 3 156 0 discriminator 1
	lwz 0,180(9)
	mtctr 0
.LEHB94:
	bctrl
	.loc 3 157 0 discriminator 1
	lwz 3,20(1)
	li 4,0
	li 5,-20
	lwz 9,0(3)
	lwz 0,168(9)
	mtctr 0
	bctrl
	.loc 3 158 0 discriminator 1
	lwz 3,20(1)
.LVL903:
.LBB7525:
.LBB7526:
	.file 16 "d:/Projects/SaveGameManager/savegame-manager-gx/trunk/source/GUI/gui_text.h"
	.loc 16 89 0 discriminator 1
	li 0,2
.LBE7526:
.LBE7525:
	.loc 3 522 0 discriminator 1
	lwz 9,288(31)
.LBB7528:
.LBB7527:
	.loc 16 89 0 discriminator 1
	stw 0,200(3)
.LBE7527:
.LBE7528:
	.loc 3 159 0 discriminator 1
	li 5,0
	lwz 4,12(9)
	addi 4,4,33
	bl _ZN7GuiText11SetMaxWidthEii
.LVL904:
.LBB7529:
.LBB7530:
	.loc 7 828 0 discriminator 1
	lwz 9,216(31)
	lwz 0,220(31)
	cmpw 7,9,0
	beq- 7,.L649
.LVL905:
.LBB7531:
.LBB7532:
	.loc 8 108 0
	cmpwi 7,9,0
	li 11,0
	beq- 7,.L650
	lwz 0,20(1)
	stw 0,0(9)
	lwz 11,216(31)
.L650:
.LBE7532:
.LBE7531:
	.loc 7 831 0
	addi 11,11,4
	stw 11,216(31)
.LVL906:
.L651:
.LBE7530:
.LBE7529:
.LBB7534:
.LBB7535:
	.loc 7 828 0 discriminator 1
	lwz 0,232(31)
	lwz 9,228(31)
	cmpw 7,9,0
.LBE7535:
.LBE7534:
	.loc 3 168 0 discriminator 1
	li 0,0
	stw 0,16(1)
.LVL907:
.LBB7542:
.LBB7540:
	.loc 7 828 0 discriminator 1
	beq- 7,.L652
.LVL908:
.LBB7536:
.LBB7537:
	.loc 8 108 0
	cmpwi 7,9,0
	li 11,0
	beq- 7,.L653
	stw 11,0(9)
	lwz 11,228(31)
.L653:
.LBE7537:
.LBE7536:
	.loc 7 831 0
	addi 11,11,4
	stw 11,228(31)
.LVL909:
.L654:
.LBE7540:
.LBE7542:
	.loc 3 174 0 discriminator 1
	li 3,184
	bl _Znwj
.LEHE94:
	li 4,0
	mr 30,3
.LVL910:
.LEHB95:
	bl _ZN10GuiTooltipC1EPKc
.LEHE95:
	.loc 3 175 0 discriminator 1
	lwz 9,0(30)
.LVL911:
	mr 3,30
	.loc 3 174 0 discriminator 1
	stw 30,12(1)
	.loc 3 175 0 discriminator 1
	li 4,0
	lwz 0,168(9)
	li 5,0
	mtctr 0
.LEHB96:
	bctrl
.LVL912:
.LBB7543:
.LBB7544:
	.loc 7 828 0 discriminator 1
	lwz 9,264(31)
	lwz 0,268(31)
	cmpw 7,9,0
	beq- 7,.L655
.LVL913:
.LBB7545:
.LBB7546:
	.loc 8 108 0
	cmpwi 7,9,0
	li 11,0
	beq- 7,.L656
	lwz 0,12(1)
	stw 0,0(9)
	lwz 11,264(31)
.L656:
.LBE7546:
.LBE7545:
	.loc 7 831 0
	addi 11,11,4
	stw 11,264(31)
.LVL914:
.L657:
.LBE7544:
.LBE7543:
	.loc 3 178 0 discriminator 1
	li 3,312
	bl _Znwj
.LEHE96:
	li 4,90
	li 5,90
	mr 30,3
.LVL915:
.LEHB97:
	bl _ZN9GuiButtonC1Eii
.LEHE97:
	.loc 3 179 0 discriminator 1
	lwz 9,0(30)
.LVL916:
	mr 3,30
	mr 4,31
	.loc 3 178 0 discriminator 1
	stw 30,8(1)
	.loc 3 179 0 discriminator 1
	lwz 0,8(9)
	mtctr 0
.LEHB98:
	bctrl
	.loc 3 180 0 discriminator 1
	lwz 3,8(1)
	lwz 4,20(1)
	li 5,0
	bl _ZN9GuiButton8SetLabelEP7GuiTexti
	.loc 3 181 0 discriminator 1
	lwz 3,8(1)
	lwz 4,24(1)
	bl _ZN9GuiButton7SetIconEP8GuiImage
	.loc 3 182 0 discriminator 1
	lwz 3,8(1)
	lwz 4,16(1)
	bl _ZN9GuiButton12SetImageOverEP8GuiImage
	.loc 3 183 0 discriminator 1
	lwz 3,8(1)
	lwz 4,340(31)
	bl _ZN9GuiButton10SetTriggerEP10GuiTrigger
	.loc 3 184 0 discriminator 1
	lwz 3,8(1)
	lwz 4,336(31)
	bl _ZN9GuiButton13SetSoundClickEP8GuiSound
	.loc 3 185 0 discriminator 1
	lwz 3,8(1)
	lwz 4,12(1)
	bl _ZN9GuiButton10SetTooltipEP10GuiTooltip
	.loc 3 186 0 discriminator 1
	lis 9,_ZN15IconFileBrowser15OnButtonClickedEP9GuiButtoniRK6_POINT@ha
	lwz 3,8(1)
	la 0,_ZN15IconFileBrowser15OnButtonClickedEP9GuiButtoniRK6_POINT@l(9)
	stw 0,56(1)
	mr 4,31
	li 0,0
	addi 3,3,144
	addi 5,1,56
	stw 0,60(1)
	bl _ZN7sigslot7signal3IP9GuiButtoniRK6_POINTNS_15single_threadedEE7connectI15IconFileBrowserEEvPT_MSA_FvS2_iS5_E
.LVL917:
.LBB7548:
.LBB7549:
	.loc 7 828 0 discriminator 1
	lwz 9,252(31)
	lwz 0,256(31)
	cmpw 7,9,0
	beq- 7,.L658
.LVL918:
.LBB7550:
.LBB7551:
	.loc 8 108 0
	cmpwi 7,9,0
	li 11,0
	beq- 7,.L659
	lwz 0,8(1)
	stw 0,0(9)
	lwz 11,252(31)
.L659:
.LBE7551:
.LBE7550:
	.loc 7 831 0
	addi 11,11,4
	stw 11,252(31)
.LVL919:
.L645:
.LBE7549:
.LBE7548:
.LBE7558:
	.loc 3 188 0
	lwz 0,92(1)
	lwz 29,76(1)
	mtlr 0
	lwz 30,80(1)
.LVL920:
	lwz 31,84(1)
.LVL921:
	addi 1,1,88
	.cfi_remember_state
.LCFI162:
	.cfi_def_cfa_offset 0
	.cfi_restore 31
	.cfi_restore 30
	.cfi_restore 29
	blr
.LVL922:
.L646:
.LCFI163:
	.cfi_restore_state
.LBB7559:
.LBB7553:
.LBB7522:
.LBB7518:
.LBB7519:
	.loc 7 834 0
	mr 4,1
	addi 3,3,236
.LVL923:
	stwu 9,40(4)
	addi 5,1,24
	bl _ZNSt6vectorIP8GuiImageSaIS1_EE13_M_insert_auxEN9__gnu_cxx17__normal_iteratorIPS1_S3_EERKS1_
	b .L648
.LVL924:
.L649:
.LBE7519:
.LBE7518:
.LBE7522:
.LBE7553:
.LBB7554:
.LBB7533:
	mr 4,1
	addi 3,31,212
	stwu 9,48(4)
	addi 5,1,20
	bl _ZNSt6vectorIP7GuiTextSaIS1_EE13_M_insert_auxEN9__gnu_cxx17__normal_iteratorIPS1_S3_EERKS1_
	b .L651
.LVL925:
.L652:
.LBE7533:
.LBE7554:
.LBB7555:
.LBB7541:
.LBB7538:
.LBB7539:
	mr 4,1
	addi 3,31,224
	stwu 9,40(4)
	addi 5,1,16
	bl _ZNSt6vectorIP8GuiImageSaIS1_EE13_M_insert_auxEN9__gnu_cxx17__normal_iteratorIPS1_S3_EERKS1_
	b .L654
.LVL926:
.L655:
.LBE7539:
.LBE7538:
.LBE7541:
.LBE7555:
.LBB7556:
.LBB7547:
	mr 4,1
	addi 3,31,260
	stwu 9,52(4)
	addi 5,1,12
	bl _ZNSt6vectorIP10GuiTooltipSaIS1_EE13_M_insert_auxEN9__gnu_cxx17__normal_iteratorIPS1_S3_EERKS1_
	b .L657
.LVL927:
.L658:
.LBE7547:
.LBE7556:
.LBB7557:
.LBB7552:
	mr 4,1
	addi 3,31,248
	stwu 9,64(4)
	addi 5,1,8
	bl _ZNSt6vectorIP9GuiButtonSaIS1_EE13_M_insert_auxEN9__gnu_cxx17__normal_iteratorIPS1_S3_EERKS1_
	b .L645
.LVL928:
.L670:
.L672:
	mr 31,3
.LVL929:
.LBE7552:
.LBE7557:
	.loc 3 174 0
	mr 3,30
	bl _ZdlPv
	mr 3,31
	bl _Unwind_Resume
.LEHE98:
.LVL930:
.L669:
	b .L672
.LVL931:
.L671:
	b .L672
.LBE7559:
	.cfi_endproc
.LFE1620:
	.section	.gcc_except_table
.LLSDA1620:
	.byte	0xff
	.byte	0xff
	.byte	0x1
	.uleb128 .LLSDACSE1620-.LLSDACSB1620
.LLSDACSB1620:
	.uleb128 .LEHB92-.LFB1620
	.uleb128 .LEHE92-.LEHB92
	.uleb128 0
	.uleb128 0
	.uleb128 .LEHB93-.LFB1620
	.uleb128 .LEHE93-.LEHB93
	.uleb128 .L669-.LFB1620
	.uleb128 0
	.uleb128 .LEHB94-.LFB1620
	.uleb128 .LEHE94-.LEHB94
	.uleb128 0
	.uleb128 0
	.uleb128 .LEHB95-.LFB1620
	.uleb128 .LEHE95-.LEHB95
	.uleb128 .L670-.LFB1620
	.uleb128 0
	.uleb128 .LEHB96-.LFB1620
	.uleb128 .LEHE96-.LEHB96
	.uleb128 0
	.uleb128 0
	.uleb128 .LEHB97-.LFB1620
	.uleb128 .LEHE97-.LEHB97
	.uleb128 .L671-.LFB1620
	.uleb128 0
	.uleb128 .LEHB98-.LFB1620
	.uleb128 .LEHE98-.LEHB98
	.uleb128 0
	.uleb128 0
.LLSDACSE1620:
	.section	".text"
	.size	_ZN15IconFileBrowser9AddButtonEv, .-_ZN15IconFileBrowser9AddButtonEv
	.align 2
	.globl _ZN15IconFileBrowser9SetButtonEiSbIwSt11char_traitsIwESaIwEEbbii
	.type	_ZN15IconFileBrowser9SetButtonEiSbIwSt11char_traitsIwESaIwEEbbii, @function
_ZN15IconFileBrowser9SetButtonEiSbIwSt11char_traitsIwESaIwEEbbii:
.LFB1621:
	.loc 3 191 0
	.cfi_startproc
	.cfi_personality 0,__gxx_personality_v0
	.cfi_lsda 0,.LLSDA1621
.LVL932:
	stwu 1,-72(1)
.LCFI164:
	.cfi_def_cfa_offset 72
	mflr 0
	stw 30,64(1)
.LBB7734:
	.loc 3 192 0
	mr. 30,4
	.cfi_offset 30, -8
	.cfi_register 65, 0
.LBE7734:
	.loc 3 191 0
	stw 25,44(1)
	mr 25,7
	.cfi_offset 25, -28
	stw 26,48(1)
	mr 26,5
	.cfi_offset 26, -24
	stw 27,52(1)
	mr 27,9
	.cfi_offset 27, -20
	stw 28,56(1)
	mr 28,6
	.cfi_offset 28, -16
	stw 29,60(1)
	mr 29,8
	.cfi_offset 29, -12
	stw 31,68(1)
	mr 31,3
	.cfi_offset 31, -4
	stw 0,76(1)
	stw 24,40(1)
.LBB7843:
	.loc 3 192 0
	bge+ 0,.L722
	.cfi_offset 24, -32
	.cfi_offset 65, 4
	b .L673
.LVL933:
.L724:
	.loc 3 196 0
	mr 3,31
.LEHB99:
	bl _ZN15IconFileBrowser9AddButtonEv
.L722:
	.loc 3 522 0 discriminator 1
	lwz 9,248(31)
.LBB7735:
.LBB7736:
	.loc 7 571 0 discriminator 1
	lwz 0,252(31)
	subf 0,9,0
	srawi 0,0,2
.LBE7736:
.LBE7735:
	.loc 3 195 0 discriminator 1
	cmpw 7,30,0
	bge+ 7,.L724
	.loc 3 198 0
	cmpwi 7,25,0
	beq- 7,.L725
.LVL934:
	.loc 3 205 0
	lwz 9,236(31)
.LBB7737:
.LBB7738:
	.loc 7 696 0
	slwi 30,30,2
.LVL935:
.LBE7738:
.LBE7737:
	.loc 3 205 0
	lwzx 3,9,30
	cmpwi 7,3,0
	beq- 7,.L678
	.loc 3 206 0
	lwz 9,0(3)
	lwz 0,4(9)
	mtctr 0
	bctrl
.LVL936:
.L678:
	.loc 3 207 0
	lwz 9,224(31)
	lwzx 3,9,30
	cmpwi 7,3,0
	beq- 7,.L679
	.loc 3 208 0
	lwz 9,0(3)
	lwz 0,4(9)
	mtctr 0
	bctrl
.LVL937:
.L679:
	.loc 3 210 0
	addi 3,1,20
	mr 4,26
	bl _ZNSbIwSt11char_traitsIwESaIwEEC1ERKS2_
.LEHE99:
	addi 3,1,24
	addi 4,1,20
.LEHB100:
	bl _Z8wstr2strSbIwSt11char_traitsIwESaIwEE
.LEHE100:
.LVL938:
.LBB7739:
.LBB7740:
.LBB7741:
.LBB7742:
.LBB7743:
.LBB7744:
	.loc 10 288 0
	lwz 9,20(1)
.LBE7744:
.LBE7743:
.LBE7742:
.LBB7745:
.LBB7746:
	.loc 10 235 0
	lis 11,_ZNSbIwSt11char_traitsIwESaIwEE4_Rep20_S_empty_rep_storageE@ha
	la 0,_ZNSbIwSt11char_traitsIwESaIwEE4_Rep20_S_empty_rep_storageE@l(11)
.LBE7746:
.LBE7745:
	.loc 10 534 0
	addi 3,9,-12
.LVL939:
.LBB7755:
.LBB7753:
	.loc 10 235 0
	cmpw 7,3,0
	bne- 7,.L726
.LVL940:
.L685:
.LBE7753:
.LBE7755:
.LBE7741:
.LBE7740:
.LBE7739:
.LBB7759:
.LBB7760:
	.loc 10 2022 0 discriminator 1
	addi 3,1,24
.LVL941:
	li 4,46
	li 5,-1
.LEHB101:
	bl _ZNKSs5rfindEcj
.LVL942:
.LBE7760:
.LBE7759:
	.loc 3 212 0 discriminator 1
	mr. 5,3
	ble- 0,.L686
.LVL943:
.LBB7761:
.LBB7762:
.LBB7763:
.LBB7764:
.LBB7765:
.LBB7766:
	.loc 10 711 0
	lwz 9,24(1)
.LBE7766:
.LBE7765:
	.loc 10 318 0
	lwz 0,-12(9)
	cmplw 7,5,0
	bgt- 7,.L727
.LBE7764:
.LBE7763:
	.loc 10 2157 0
	addi 3,1,16
.LVL944:
	addi 4,1,24
.LVL945:
	li 6,-1
	bl _ZNSsC1ERKSsjj
.LEHE101:
.LVL946:
.LBE7762:
.LBE7761:
.LBB7770:
.LBB7771:
	.loc 10 542 0
	addi 3,1,24
.LVL947:
	addi 4,1,16
.LVL948:
.LEHB102:
	bl _ZNSs6assignERKSs
.LEHE102:
.LVL949:
.LBE7771:
.LBE7770:
.LBB7772:
.LBB7773:
.LBB7774:
.LBB7775:
.LBB7776:
.LBB7777:
	.loc 10 288 0
	lwz 9,16(1)
.LBE7777:
.LBE7776:
.LBE7775:
.LBB7778:
.LBB7779:
	.loc 10 235 0
	lis 11,_ZNSs4_Rep20_S_empty_rep_storageE@ha
	la 0,_ZNSs4_Rep20_S_empty_rep_storageE@l(11)
.LBE7779:
.LBE7778:
	.loc 10 534 0
	addi 3,9,-12
.LVL950:
.LBB7788:
.LBB7786:
	.loc 10 235 0
	cmpw 7,3,0
	bne- 7,.L728
.LVL951:
.L693:
.LBE7786:
.LBE7788:
.LBE7774:
.LBE7773:
.LBE7772:
	.loc 3 215 0
	lis 4,.LC12@ha
	addi 3,1,24
.LVL952:
	la 4,.LC12@l(4)
.LEHB103:
	bl _ZNKSs7compareEPKc
.LVL953:
	cmpwi 7,3,0
	beq- 7,.L686
.LVL954:
.L694:
	.loc 3 221 0
	addi 3,1,12
	addi 4,1,24
.LVL955:
.LBB7792:
.LBB7793:
.LBB7794:
	.loc 3 522 0
	lwz 25,236(31)
.LBE7794:
.LBE7793:
.LBE7792:
	.loc 3 221 0
	bl _ZNSsC1ERKSs
.LEHE103:
.LVL956:
	.loc 3 221 0 is_stmt 0 discriminator 1
	mr 3,31
	addi 4,1,12
	mr 5,28
.LEHB104:
	bl _ZN15IconFileBrowser14GetIconFromExtESsb.constprop.273
.LEHE104:
	stwx 3,25,30
.LVL957:
.LBB7797:
.LBB7798:
.LBB7799:
.LBB7800:
.LBB7801:
	.loc 10 235 0 is_stmt 1 discriminator 1
	lis 28,_ZNSs4_Rep20_S_empty_rep_storageE@ha
	la 28,_ZNSs4_Rep20_S_empty_rep_storageE@l(28)
.LBE7801:
.LBE7800:
.LBB7810:
.LBB7811:
.LBB7812:
	.loc 10 288 0 discriminator 1
	lwz 9,12(1)
.LBE7812:
.LBE7811:
.LBE7810:
	.loc 10 534 0 discriminator 1
	addi 3,9,-12
.LVL958:
.LBB7813:
.LBB7808:
	.loc 10 235 0 discriminator 1
	cmpw 7,3,28
	bne- 7,.L729
.LVL959:
.L700:
.LBE7808:
.LBE7813:
.LBE7799:
.LBE7798:
.LBE7797:
	.loc 3 222 0 discriminator 2
	lwz 9,236(31)
	li 4,18
	lwzx 3,9,30
	lwz 9,0(3)
	lwz 0,180(9)
	mtctr 0
.LEHB105:
	bctrl
	.loc 3 223 0
	lwz 9,236(31)
	li 4,0
	li 5,10
	lwzx 3,9,30
	lwz 9,0(3)
	lwz 0,168(9)
	mtctr 0
	bctrl
	.loc 3 225 0
	li 3,196
	bl _Znwj
.LEHE105:
	lwz 4,276(31)
	mr 25,3
.LEHB106:
	bl _ZN8GuiImageC1EP12GuiImageData
.LEHE106:
	.loc 3 225 0 is_stmt 0 discriminator 1
	lwz 9,224(31)
	.loc 3 226 0 is_stmt 1 discriminator 1
	li 4,18
	.loc 3 225 0 discriminator 1
	stwx 25,9,30
	.loc 3 226 0 discriminator 1
	lwz 9,224(31)
	lwzx 3,9,30
	lwz 9,0(3)
	lwz 0,180(9)
	mtctr 0
.LEHB107:
	bctrl
	.loc 3 227 0
	lwz 9,224(31)
	li 4,0
	li 5,-7
	lwzx 3,9,30
	lwz 9,0(3)
	lwz 0,168(9)
	mtctr 0
	bctrl
	.loc 3 228 0
	lwz 11,248(31)
	lwz 9,224(31)
	lwzx 3,11,30
	lwzx 4,9,30
	bl _ZN9GuiButton12SetImageOverEP8GuiImage
	.loc 3 232 0
	lwz 9,212(31)
	lwz 4,0(26)
	lwzx 3,9,30
.LVL960:
	lwz 9,0(3)
	lwz 0,208(9)
	mtctr 0
	bctrl
.LVL961:
	.loc 3 234 0
	lwz 9,260(31)
	lwz 4,0(26)
	lwzx 3,9,30
	bl _ZN10GuiTooltip7SetTextEPKw
	.loc 3 235 0
	lwz 9,260(31)
	lwzx 3,9,30
	lwz 9,0(3)
	lwz 0,36(9)
	mtctr 0
	bctrl
	lwz 26,36(31)
.LVL962:
	addi 0,29,40
	add 0,0,3
	.loc 3 237 0
	lwz 9,260(31)
	.loc 3 235 0
	cmpw 7,0,26
	ble- 7,.L701
	.loc 3 237 0
	lwzx 25,9,30
	lwz 9,0(25)
	mr 3,25
	lwz 0,36(9)
	lwz 24,168(9)
	mtctr 0
	bctrl
	subfic 0,29,-40
	li 5,-30
	subf 0,3,0
	mtctr 24
	add 4,26,0
	mr 3,25
	bctrl
.LVL963:
.L702:
	.loc 3 244 0
	lwz 9,260(31)
	lwzx 3,9,30
	lwz 9,0(3)
	lwz 0,16(9)
	mtctr 0
	bctrl
	cmpwi 7,3,0
	blt- 7,.L730
.L703:
	.loc 3 249 0
	lwz 11,248(31)
	lwz 9,236(31)
	lwzx 3,11,30
	lwzx 4,9,30
	bl _ZN9GuiButton7SetIconEP8GuiImage
	.loc 3 250 0
	lwz 9,248(31)
	li 4,1
	lwzx 3,9,30
	lwz 9,0(3)
	lwz 0,48(9)
	mtctr 0
	bctrl
	.loc 3 251 0
	lwz 9,248(31)
	mr 4,29
	mr 5,27
	lwzx 3,9,30
	lwz 9,0(3)
	lwz 0,168(9)
	mtctr 0
	bctrl
	.loc 3 253 0
	lwz 9,248(31)
	lwzx 3,9,30
	lwz 9,0(3)
	lwz 0,84(9)
	mtctr 0
	bctrl
	cmpwi 7,3,4
	beq- 7,.L731
.L704:
.LVL964:
.LBB7817:
.LBB7818:
.LBB7819:
.LBB7820:
.LBB7821:
.LBB7822:
	.loc 10 288 0
	lwz 9,24(1)
.LBE7822:
.LBE7821:
.LBE7820:
	.loc 10 534 0
	addi 3,9,-12
.LVL965:
.LBB7823:
.LBB7824:
	.loc 10 235 0
	cmpw 7,3,28
	bne- 7,.L732
.LVL966:
.L673:
.LBE7824:
.LBE7823:
.LBE7819:
.LBE7818:
.LBE7817:
.LBE7843:
	.loc 3 255 0
	lwz 0,76(1)
	lwz 24,40(1)
	mtlr 0
	lwz 25,44(1)
	lwz 26,48(1)
	lwz 27,52(1)
.LVL967:
	lwz 28,56(1)
	lwz 29,60(1)
.LVL968:
	lwz 30,64(1)
	lwz 31,68(1)
.LVL969:
	addi 1,1,72
	.cfi_remember_state
.LCFI165:
	.cfi_def_cfa_offset 0
	.cfi_restore 31
	.cfi_restore 30
	.cfi_restore 29
	.cfi_restore 28
	.cfi_restore 27
	.cfi_restore 26
	.cfi_restore 25
	.cfi_restore 24
	blr
.LVL970:
.L686:
.LCFI166:
	.cfi_restore_state
.LBB7844:
.LBB7835:
.LBB7796:
.LBB7795:
	.loc 10 1121 0
	lis 4,.LC13@ha
	addi 3,1,24
.LVL971:
	la 4,.LC13@l(4)
	li 5,0
	bl _ZNSs6assignEPKcj
.LVL972:
	b .L694
.LVL973:
.L701:
.LBE7795:
.LBE7796:
.LBE7835:
	.loc 3 241 0
	lwzx 3,9,30
	li 4,40
	li 5,-30
	lwz 9,0(3)
	lwz 0,168(9)
	mtctr 0
	bctrl
	b .L702
.LVL974:
.L731:
	.loc 3 254 0
	lwz 9,248(31)
	li 4,0
	li 5,-1
	lwzx 3,9,30
	lwz 9,0(3)
	lwz 0,80(9)
	mtctr 0
	bctrl
	b .L704
.LVL975:
.L730:
	.loc 3 246 0
	lwz 9,0(31)
	mr 3,31
	lwz 11,260(31)
	lwz 0,16(9)
	lwzx 26,11,30
	mtctr 0
	lwz 9,0(26)
	lwz 25,168(9)
	bctrl
	subfic 4,29,10
	li 5,-30
	subf 4,3,4
	mtctr 25
	mr 3,26
	bctrl
.LEHE107:
	b .L703
.LVL976:
.L725:
.LBB7836:
.LBB7837:
	.loc 7 696 0
	slwi 30,30,2
.LVL977:
.LBE7837:
.LBE7836:
	.loc 3 200 0
	li 4,0
	lwzx 3,9,30
	lwz 9,0(3)
	lwz 0,48(9)
	mtctr 0
.LEHB108:
	bctrl
	.loc 3 201 0
	lwz 9,248(31)
	li 4,4
	li 5,-1
	lwzx 3,9,30
	lwz 9,0(3)
	lwz 0,80(9)
	mtctr 0
	bctrl
.LBE7844:
	.loc 3 255 0
	lwz 0,76(1)
	lwz 24,40(1)
	mtlr 0
	lwz 25,44(1)
	lwz 26,48(1)
.LVL978:
	lwz 27,52(1)
.LVL979:
	lwz 28,56(1)
	lwz 29,60(1)
.LVL980:
	lwz 30,64(1)
	lwz 31,68(1)
.LVL981:
	addi 1,1,72
	.cfi_remember_state
	.cfi_restore 24
	.cfi_restore 25
	.cfi_restore 26
	.cfi_restore 27
	.cfi_restore 28
	.cfi_restore 29
	.cfi_restore 30
	.cfi_restore 31
.LCFI167:
	.cfi_def_cfa_offset 0
	blr
.LVL982:
.L729:
.LCFI168:
	.cfi_restore_state
.LBB7845:
.LBB7838:
.LBB7816:
.LBB7815:
.LBB7814:
.LBB7809:
.LBB7802:
.LBB7803:
.LBB7804:
	.file 17 "d:\\devkitpro\\devkitppc\\bin\\../lib/gcc/powerpc-eabi/4.6.3/../../../../powerpc-eabi/include/c++/4.6.3/ext/atomicity.h"
	.loc 17 66 0
	lwz 11,-4(9)
.LVL983:
.LBE7804:
.LBE7803:
.LBE7802:
	.loc 10 240 0
	cmpwi 7,11,0
.LBB7807:
.LBB7806:
.LBB7805:
	.loc 17 67 0
	addi 11,11,-1
	stw 11,-4(9)
.LBE7805:
.LBE7806:
.LBE7807:
	.loc 10 240 0
	bgt+ 7,.L700
	.loc 10 244 0
	addi 4,1,9
	bl _ZNSs4_Rep10_M_destroyERKSaIcE
.LVL984:
	b .L700
.LVL985:
.L715:
	mr 31,3
.LVL986:
.LBE7809:
.LBE7814:
.LBE7815:
.LBE7816:
.LBE7838:
	.loc 3 210 0
	addi 3,1,20
	bl _ZNSbIwSt11char_traitsIwESaIwEED1Ev
	mr 3,31
	bl _Unwind_Resume
.LEHE108:
.LVL987:
.L727:
.LBB7839:
.LBB7769:
.LBB7768:
.LBB7767:
	.loc 10 319 0
	lis 3,.LC11@ha
.LVL988:
	la 3,.LC11@l(3)
.LEHB109:
	bl _ZSt20__throw_out_of_rangePKc
.LEHE109:
.LVL989:
.L717:
	mr 31,3
.LVL990:
.LBE7767:
.LBE7768:
.LBE7769:
.LBE7839:
	.loc 3 214 0
	addi 3,1,16
.LVL991:
	bl _ZNSsD1Ev
.LVL992:
.L712:
	.loc 3 254 0
	addi 3,1,24
.LVL993:
	bl _ZNSsD1Ev
.LVL994:
	mr 3,31
.LEHB110:
	bl _Unwind_Resume
.LEHE110:
.LVL995:
.L728:
.LBB7840:
.LBB7791:
.LBB7790:
.LBB7789:
.LBB7787:
.LBB7780:
.LBB7781:
.LBB7782:
	.loc 17 66 0
	lwz 11,-4(9)
.LVL996:
.LBE7782:
.LBE7781:
.LBE7780:
	.loc 10 240 0
	cmpwi 7,11,0
.LBB7785:
.LBB7784:
.LBB7783:
	.loc 17 67 0
	addi 11,11,-1
	stw 11,-4(9)
.LBE7783:
.LBE7784:
.LBE7785:
	.loc 10 240 0
	bgt+ 7,.L693
	.loc 10 244 0
	addi 4,1,10
	bl _ZNSs4_Rep10_M_destroyERKSaIcE
.LVL997:
	b .L693
.LVL998:
.L716:
	mr 31,3
.LVL999:
	b .L712
.LVL1000:
.L726:
.LBE7787:
.LBE7789:
.LBE7790:
.LBE7791:
.LBE7840:
.LBB7841:
.LBB7758:
.LBB7757:
.LBB7756:
.LBB7754:
.LBB7747:
.LBB7748:
.LBB7749:
	.loc 17 66 0
	lwz 11,-4(9)
.LVL1001:
.LBE7749:
.LBE7748:
.LBE7747:
	.loc 10 240 0
	cmpwi 7,11,0
.LBB7752:
.LBB7751:
.LBB7750:
	.loc 17 67 0
	addi 11,11,-1
	stw 11,-4(9)
.LBE7750:
.LBE7751:
.LBE7752:
	.loc 10 240 0
	bgt+ 7,.L685
	.loc 10 244 0
	addi 4,1,11
	bl _ZNSbIwSt11char_traitsIwESaIwEE4_Rep10_M_destroyERKS1_
.LVL1002:
	b .L685
.LVL1003:
.L732:
.LBE7754:
.LBE7756:
.LBE7757:
.LBE7758:
.LBE7841:
.LBB7842:
.LBB7834:
.LBB7833:
.LBB7832:
.LBB7831:
.LBB7825:
.LBB7826:
.LBB7827:
	.loc 17 66 0
	lwz 11,-4(9)
.LVL1004:
.LBE7827:
.LBE7826:
.LBE7825:
	.loc 10 240 0
	cmpwi 7,11,0
.LBB7830:
.LBB7829:
.LBB7828:
	.loc 17 67 0
	addi 11,11,-1
	stw 11,-4(9)
.LBE7828:
.LBE7829:
.LBE7830:
	.loc 10 240 0
	bgt+ 7,.L673
	.loc 10 244 0
	addi 4,1,8
	bl _ZNSs4_Rep10_M_destroyERKSaIcE
.LVL1005:
	b .L673
.LVL1006:
.L719:
	mr 31,3
.LVL1007:
.LBE7831:
.LBE7832:
.LBE7833:
.LBE7834:
.LBE7842:
	.loc 3 225 0
	mr 3,25
	bl _ZdlPv
	b .L712
.LVL1008:
.L718:
	mr 31,3
.LVL1009:
	.loc 3 221 0
	addi 3,1,12
	bl _ZNSsD1Ev
	b .L712
.LBE7845:
	.cfi_endproc
.LFE1621:
	.section	.gcc_except_table
.LLSDA1621:
	.byte	0xff
	.byte	0xff
	.byte	0x1
	.uleb128 .LLSDACSE1621-.LLSDACSB1621
.LLSDACSB1621:
	.uleb128 .LEHB99-.LFB1621
	.uleb128 .LEHE99-.LEHB99
	.uleb128 0
	.uleb128 0
	.uleb128 .LEHB100-.LFB1621
	.uleb128 .LEHE100-.LEHB100
	.uleb128 .L715-.LFB1621
	.uleb128 0
	.uleb128 .LEHB101-.LFB1621
	.uleb128 .LEHE101-.LEHB101
	.uleb128 .L716-.LFB1621
	.uleb128 0
	.uleb128 .LEHB102-.LFB1621
	.uleb128 .LEHE102-.LEHB102
	.uleb128 .L717-.LFB1621
	.uleb128 0
	.uleb128 .LEHB103-.LFB1621
	.uleb128 .LEHE103-.LEHB103
	.uleb128 .L716-.LFB1621
	.uleb128 0
	.uleb128 .LEHB104-.LFB1621
	.uleb128 .LEHE104-.LEHB104
	.uleb128 .L718-.LFB1621
	.uleb128 0
	.uleb128 .LEHB105-.LFB1621
	.uleb128 .LEHE105-.LEHB105
	.uleb128 .L716-.LFB1621
	.uleb128 0
	.uleb128 .LEHB106-.LFB1621
	.uleb128 .LEHE106-.LEHB106
	.uleb128 .L719-.LFB1621
	.uleb128 0
	.uleb128 .LEHB107-.LFB1621
	.uleb128 .LEHE107-.LEHB107
	.uleb128 .L716-.LFB1621
	.uleb128 0
	.uleb128 .LEHB108-.LFB1621
	.uleb128 .LEHE108-.LEHB108
	.uleb128 0
	.uleb128 0
	.uleb128 .LEHB109-.LFB1621
	.uleb128 .LEHE109-.LEHB109
	.uleb128 .L716-.LFB1621
	.uleb128 0
	.uleb128 .LEHB110-.LFB1621
	.uleb128 .LEHE110-.LEHB110
	.uleb128 0
	.uleb128 0
.LLSDACSE1621:
	.section	".text"
	.size	_ZN15IconFileBrowser9SetButtonEiSbIwSt11char_traitsIwESaIwEEbbii, .-_ZN15IconFileBrowser9SetButtonEiSbIwSt11char_traitsIwESaIwEEbbii
	.align 2
	.type	_ZN15IconFileBrowser9SetButtonEiSbIwSt11char_traitsIwESaIwEEbbii.constprop.269, @function
_ZN15IconFileBrowser9SetButtonEiSbIwSt11char_traitsIwESaIwEEbbii.constprop.269:
.LFB2906:
	.loc 3 190 0
	.cfi_startproc
	.cfi_personality 0,__gxx_personality_v0
	.cfi_lsda 0,.LLSDA2906
.LVL1010:
	stwu 1,-72(1)
.LCFI169:
	.cfi_def_cfa_offset 72
	mflr 0
	stw 30,64(1)
.LBB8020:
	.loc 3 192 0
	mr. 30,4
	.cfi_offset 30, -8
	.cfi_register 65, 0
.LBE8020:
	.loc 3 190 0
	stw 25,44(1)
	mr 25,7
	.cfi_offset 25, -28
	stw 26,48(1)
	mr 26,5
	.cfi_offset 26, -24
	stw 27,52(1)
	mr 27,9
	.cfi_offset 27, -20
	stw 28,56(1)
	mr 28,6
	.cfi_offset 28, -16
	stw 29,60(1)
	mr 29,8
	.cfi_offset 29, -12
	stw 31,68(1)
	mr 31,3
	.cfi_offset 31, -4
	stw 0,76(1)
	stw 24,40(1)
.LBB8129:
	.loc 3 192 0
	bge+ 0,.L782
	.cfi_offset 24, -32
	.cfi_offset 65, 4
	b .L733
.LVL1011:
.L784:
	.loc 3 196 0
	mr 3,31
.LEHB111:
	bl _ZN15IconFileBrowser9AddButtonEv
.L782:
	.loc 3 522 0
	lwz 9,248(31)
.LBB8021:
.LBB8022:
	.loc 7 571 0
	lwz 0,252(31)
	subf 0,9,0
	srawi 0,0,2
.LBE8022:
.LBE8021:
	.loc 3 195 0
	cmpw 7,30,0
	bge+ 7,.L784
	.loc 3 198 0
	cmpwi 7,25,0
	beq- 7,.L785
.LVL1012:
	.loc 3 205 0
	lwz 9,236(31)
.LBB8023:
.LBB8024:
	.loc 7 696 0
	slwi 30,30,2
.LVL1013:
.LBE8024:
.LBE8023:
	.loc 3 205 0
	lwzx 3,9,30
	cmpwi 7,3,0
	beq- 7,.L738
	.loc 3 206 0
	lwz 9,0(3)
	lwz 0,4(9)
	mtctr 0
	bctrl
.LVL1014:
.L738:
	.loc 3 207 0
	lwz 9,224(31)
	lwzx 3,9,30
	cmpwi 7,3,0
	beq- 7,.L739
	.loc 3 208 0
	lwz 9,0(3)
	lwz 0,4(9)
	mtctr 0
	bctrl
.LVL1015:
.L739:
	.loc 3 210 0
	addi 3,1,12
	mr 4,26
	bl _ZNSbIwSt11char_traitsIwESaIwEEC1ERKS2_
.LEHE111:
	addi 3,1,24
	addi 4,1,12
.LEHB112:
	bl _Z8wstr2strSbIwSt11char_traitsIwESaIwEE
.LEHE112:
.LVL1016:
.LBB8025:
.LBB8026:
.LBB8027:
.LBB8028:
.LBB8029:
.LBB8030:
	.loc 10 288 0
	lwz 9,12(1)
.LBE8030:
.LBE8029:
.LBE8028:
.LBB8031:
.LBB8032:
	.loc 10 235 0
	lis 11,_ZNSbIwSt11char_traitsIwESaIwEE4_Rep20_S_empty_rep_storageE@ha
	la 0,_ZNSbIwSt11char_traitsIwESaIwEE4_Rep20_S_empty_rep_storageE@l(11)
.LBE8032:
.LBE8031:
	.loc 10 534 0
	addi 3,9,-12
.LVL1017:
.LBB8041:
.LBB8039:
	.loc 10 235 0
	cmpw 7,3,0
	bne- 7,.L786
.LVL1018:
.L745:
.LBE8039:
.LBE8041:
.LBE8027:
.LBE8026:
.LBE8025:
.LBB8045:
.LBB8046:
	.loc 10 2022 0
	addi 3,1,24
.LVL1019:
	li 4,46
	li 5,-1
.LEHB113:
	bl _ZNKSs5rfindEcj
.LVL1020:
.LBE8046:
.LBE8045:
	.loc 3 212 0
	mr. 5,3
	ble- 0,.L746
.LVL1021:
.LBB8047:
.LBB8048:
.LBB8049:
.LBB8050:
.LBB8051:
.LBB8052:
	.loc 10 711 0
	lwz 9,24(1)
.LBE8052:
.LBE8051:
	.loc 10 318 0
	lwz 0,-12(9)
	cmplw 7,5,0
	bgt- 7,.L787
.LBE8050:
.LBE8049:
	.loc 10 2157 0
	addi 3,1,16
.LVL1022:
	addi 4,1,24
.LVL1023:
	li 6,-1
	bl _ZNSsC1ERKSsjj
.LEHE113:
.LVL1024:
.LBE8048:
.LBE8047:
.LBB8056:
.LBB8057:
	.loc 10 542 0
	addi 3,1,24
.LVL1025:
	addi 4,1,16
.LVL1026:
.LEHB114:
	bl _ZNSs6assignERKSs
.LEHE114:
.LVL1027:
.LBE8057:
.LBE8056:
.LBB8058:
.LBB8059:
.LBB8060:
.LBB8061:
.LBB8062:
.LBB8063:
	.loc 10 288 0
	lwz 9,16(1)
.LBE8063:
.LBE8062:
.LBE8061:
.LBB8064:
.LBB8065:
	.loc 10 235 0
	lis 11,_ZNSs4_Rep20_S_empty_rep_storageE@ha
	la 0,_ZNSs4_Rep20_S_empty_rep_storageE@l(11)
.LBE8065:
.LBE8064:
	.loc 10 534 0
	addi 3,9,-12
.LVL1028:
.LBB8074:
.LBB8072:
	.loc 10 235 0
	cmpw 7,3,0
	bne- 7,.L788
.LVL1029:
.L753:
.LBE8072:
.LBE8074:
.LBE8060:
.LBE8059:
.LBE8058:
	.loc 3 215 0
	lis 4,.LC12@ha
	addi 3,1,24
.LVL1030:
	la 4,.LC12@l(4)
.LEHB115:
	bl _ZNKSs7compareEPKc
.LVL1031:
	cmpwi 7,3,0
	beq- 7,.L746
.LVL1032:
.L754:
	.loc 3 221 0
	addi 3,1,20
	addi 4,1,24
.LVL1033:
.LBB8078:
.LBB8079:
.LBB8080:
	.loc 3 522 0
	lwz 25,236(31)
.LBE8080:
.LBE8079:
.LBE8078:
	.loc 3 221 0
	bl _ZNSsC1ERKSs
.LEHE115:
.LVL1034:
	mr 3,31
	addi 4,1,20
	mr 5,28
.LEHB116:
	bl _ZN15IconFileBrowser14GetIconFromExtESsb.constprop.273
.LEHE116:
	stwx 3,25,30
.LVL1035:
.LBB8083:
.LBB8084:
.LBB8085:
.LBB8086:
.LBB8087:
	.loc 10 235 0
	lis 28,_ZNSs4_Rep20_S_empty_rep_storageE@ha
	la 28,_ZNSs4_Rep20_S_empty_rep_storageE@l(28)
.LBE8087:
.LBE8086:
.LBB8096:
.LBB8097:
.LBB8098:
	.loc 10 288 0
	lwz 9,20(1)
.LBE8098:
.LBE8097:
.LBE8096:
	.loc 10 534 0
	addi 3,9,-12
.LVL1036:
.LBB8099:
.LBB8094:
	.loc 10 235 0
	cmpw 7,3,28
	bne- 7,.L789
.LVL1037:
.L760:
.LBE8094:
.LBE8099:
.LBE8085:
.LBE8084:
.LBE8083:
	.loc 3 222 0
	lwz 9,236(31)
	li 4,18
	lwzx 3,9,30
	lwz 9,0(3)
	lwz 0,180(9)
	mtctr 0
.LEHB117:
	bctrl
	.loc 3 223 0
	lwz 9,236(31)
	li 4,0
	li 5,10
	lwzx 3,9,30
	lwz 9,0(3)
	lwz 0,168(9)
	mtctr 0
	bctrl
	.loc 3 225 0
	li 3,196
	bl _Znwj
.LEHE117:
	lwz 4,276(31)
	mr 25,3
.LEHB118:
	bl _ZN8GuiImageC1EP12GuiImageData
.LEHE118:
	lwz 9,224(31)
	.loc 3 226 0
	li 4,18
	.loc 3 225 0
	stwx 25,9,30
	.loc 3 226 0
	lwz 9,224(31)
	lwzx 3,9,30
	lwz 9,0(3)
	lwz 0,180(9)
	mtctr 0
.LEHB119:
	bctrl
	.loc 3 227 0
	lwz 9,224(31)
	li 4,0
	li 5,-7
	lwzx 3,9,30
	lwz 9,0(3)
	lwz 0,168(9)
	mtctr 0
	bctrl
	.loc 3 228 0
	lwz 11,248(31)
	lwz 9,224(31)
	lwzx 3,11,30
	lwzx 4,9,30
	bl _ZN9GuiButton12SetImageOverEP8GuiImage
	.loc 3 232 0
	lwz 9,212(31)
	lwz 4,0(26)
	lwzx 3,9,30
.LVL1038:
	lwz 9,0(3)
	lwz 0,208(9)
	mtctr 0
	bctrl
.LVL1039:
	.loc 3 234 0
	lwz 9,260(31)
	lwz 4,0(26)
	lwzx 3,9,30
	bl _ZN10GuiTooltip7SetTextEPKw
	.loc 3 235 0
	lwz 9,260(31)
	lwzx 3,9,30
	lwz 9,0(3)
	lwz 0,36(9)
	mtctr 0
	bctrl
	lwz 26,36(31)
.LVL1040:
	addi 0,29,40
	add 0,0,3
	.loc 3 237 0
	lwz 9,260(31)
	.loc 3 235 0
	cmpw 7,0,26
	ble- 7,.L761
	.loc 3 237 0
	lwzx 25,9,30
	lwz 9,0(25)
	mr 3,25
	lwz 0,36(9)
	lwz 24,168(9)
	mtctr 0
	bctrl
	subfic 0,29,-40
	li 5,-30
	subf 0,3,0
	mtctr 24
	add 4,26,0
	mr 3,25
	bctrl
.LVL1041:
.L762:
	.loc 3 244 0
	lwz 9,260(31)
	lwzx 3,9,30
	lwz 9,0(3)
	lwz 0,16(9)
	mtctr 0
	bctrl
	cmpwi 7,3,0
	blt- 7,.L790
.L763:
	.loc 3 249 0
	lwz 11,248(31)
	lwz 9,236(31)
	lwzx 3,11,30
	lwzx 4,9,30
	bl _ZN9GuiButton7SetIconEP8GuiImage
	.loc 3 250 0
	lwz 9,248(31)
	li 4,1
	lwzx 3,9,30
	lwz 9,0(3)
	lwz 0,48(9)
	mtctr 0
	bctrl
	.loc 3 251 0
	lwz 9,248(31)
	mr 4,29
	mr 5,27
	lwzx 3,9,30
	lwz 9,0(3)
	lwz 0,168(9)
	mtctr 0
	bctrl
	.loc 3 253 0
	lwz 9,248(31)
	lwzx 3,9,30
	lwz 9,0(3)
	lwz 0,84(9)
	mtctr 0
	bctrl
	cmpwi 7,3,4
	beq- 7,.L791
.L764:
.LVL1042:
.LBB8103:
.LBB8104:
.LBB8105:
.LBB8106:
.LBB8107:
.LBB8108:
	.loc 10 288 0
	lwz 9,24(1)
.LBE8108:
.LBE8107:
.LBE8106:
	.loc 10 534 0
	addi 3,9,-12
.LVL1043:
.LBB8109:
.LBB8110:
	.loc 10 235 0
	cmpw 7,3,28
	bne- 7,.L792
.LVL1044:
.L733:
.LBE8110:
.LBE8109:
.LBE8105:
.LBE8104:
.LBE8103:
.LBE8129:
	.loc 3 255 0
	lwz 0,76(1)
	lwz 24,40(1)
	mtlr 0
	lwz 25,44(1)
	lwz 26,48(1)
	lwz 27,52(1)
.LVL1045:
	lwz 28,56(1)
	lwz 29,60(1)
.LVL1046:
	lwz 30,64(1)
	lwz 31,68(1)
.LVL1047:
	addi 1,1,72
	.cfi_remember_state
.LCFI170:
	.cfi_def_cfa_offset 0
	.cfi_restore 31
	.cfi_restore 30
	.cfi_restore 29
	.cfi_restore 28
	.cfi_restore 27
	.cfi_restore 26
	.cfi_restore 25
	.cfi_restore 24
	blr
.LVL1048:
.L746:
.LCFI171:
	.cfi_restore_state
.LBB8130:
.LBB8121:
.LBB8082:
.LBB8081:
	.loc 10 1121 0
	lis 4,.LC13@ha
	addi 3,1,24
.LVL1049:
	la 4,.LC13@l(4)
	li 5,0
	bl _ZNSs6assignEPKcj
.LVL1050:
	b .L754
.LVL1051:
.L761:
.LBE8081:
.LBE8082:
.LBE8121:
	.loc 3 241 0
	lwzx 3,9,30
	li 4,40
	li 5,-30
	lwz 9,0(3)
	lwz 0,168(9)
	mtctr 0
	bctrl
	b .L762
.LVL1052:
.L791:
	.loc 3 254 0
	lwz 9,248(31)
	li 4,0
	li 5,-1
	lwzx 3,9,30
	lwz 9,0(3)
	lwz 0,80(9)
	mtctr 0
	bctrl
	b .L764
.LVL1053:
.L790:
	.loc 3 246 0
	lwz 9,0(31)
	mr 3,31
	lwz 11,260(31)
	lwz 0,16(9)
	lwzx 26,11,30
	mtctr 0
	lwz 9,0(26)
	lwz 25,168(9)
	bctrl
	subfic 4,29,10
	li 5,-30
	subf 4,3,4
	mtctr 25
	mr 3,26
	bctrl
.LEHE119:
	b .L763
.LVL1054:
.L785:
.LBB8122:
.LBB8123:
	.loc 7 696 0
	slwi 30,30,2
.LVL1055:
.LBE8123:
.LBE8122:
	.loc 3 200 0
	li 4,0
	lwzx 3,9,30
	lwz 9,0(3)
	lwz 0,48(9)
	mtctr 0
.LEHB120:
	bctrl
	.loc 3 201 0
	lwz 9,248(31)
	li 4,4
	li 5,-1
	lwzx 3,9,30
	lwz 9,0(3)
	lwz 0,80(9)
	mtctr 0
	bctrl
.LBE8130:
	.loc 3 255 0
	lwz 0,76(1)
	lwz 24,40(1)
	mtlr 0
	lwz 25,44(1)
	lwz 26,48(1)
.LVL1056:
	lwz 27,52(1)
.LVL1057:
	lwz 28,56(1)
	lwz 29,60(1)
.LVL1058:
	lwz 30,64(1)
	lwz 31,68(1)
.LVL1059:
	addi 1,1,72
	.cfi_remember_state
	.cfi_restore 24
	.cfi_restore 25
	.cfi_restore 26
	.cfi_restore 27
	.cfi_restore 28
	.cfi_restore 29
	.cfi_restore 30
	.cfi_restore 31
.LCFI172:
	.cfi_def_cfa_offset 0
	blr
.LVL1060:
.L789:
.LCFI173:
	.cfi_restore_state
.LBB8131:
.LBB8124:
.LBB8102:
.LBB8101:
.LBB8100:
.LBB8095:
.LBB8088:
.LBB8089:
.LBB8090:
	.loc 17 66 0
	lwz 11,-4(9)
.LVL1061:
.LBE8090:
.LBE8089:
.LBE8088:
	.loc 10 240 0
	cmpwi 7,11,0
.LBB8093:
.LBB8092:
.LBB8091:
	.loc 17 67 0
	addi 11,11,-1
	stw 11,-4(9)
.LBE8091:
.LBE8092:
.LBE8093:
	.loc 10 240 0
	bgt+ 7,.L760
	.loc 10 244 0
	addi 4,1,9
	bl _ZNSs4_Rep10_M_destroyERKSaIcE
.LVL1062:
	b .L760
.LVL1063:
.L779:
	mr 31,3
.LVL1064:
.LBE8095:
.LBE8100:
.LBE8101:
.LBE8102:
.LBE8124:
	.loc 3 210 0
	addi 3,1,12
	bl _ZNSbIwSt11char_traitsIwESaIwEED1Ev
	mr 3,31
	bl _Unwind_Resume
.LEHE120:
.LVL1065:
.L787:
.LBB8125:
.LBB8055:
.LBB8054:
.LBB8053:
	.loc 10 319 0
	lis 3,.LC11@ha
.LVL1066:
	la 3,.LC11@l(3)
.LEHB121:
	bl _ZSt20__throw_out_of_rangePKc
.LEHE121:
.LVL1067:
.L778:
	mr 31,3
.LVL1068:
.LBE8053:
.LBE8054:
.LBE8055:
.LBE8125:
	.loc 3 214 0
	addi 3,1,16
.LVL1069:
	bl _ZNSsD1Ev
.LVL1070:
.L772:
	.loc 3 254 0
	addi 3,1,24
.LVL1071:
	bl _ZNSsD1Ev
.LVL1072:
	mr 3,31
.LEHB122:
	bl _Unwind_Resume
.LEHE122:
.LVL1073:
.L788:
.LBB8126:
.LBB8077:
.LBB8076:
.LBB8075:
.LBB8073:
.LBB8066:
.LBB8067:
.LBB8068:
	.loc 17 66 0
	lwz 11,-4(9)
.LVL1074:
.LBE8068:
.LBE8067:
.LBE8066:
	.loc 10 240 0
	cmpwi 7,11,0
.LBB8071:
.LBB8070:
.LBB8069:
	.loc 17 67 0
	addi 11,11,-1
	stw 11,-4(9)
.LBE8069:
.LBE8070:
.LBE8071:
	.loc 10 240 0
	bgt+ 7,.L753
	.loc 10 244 0
	addi 4,1,10
	bl _ZNSs4_Rep10_M_destroyERKSaIcE
.LVL1075:
	b .L753
.LVL1076:
.L775:
	mr 31,3
.LVL1077:
	b .L772
.LVL1078:
.L786:
.LBE8073:
.LBE8075:
.LBE8076:
.LBE8077:
.LBE8126:
.LBB8127:
.LBB8044:
.LBB8043:
.LBB8042:
.LBB8040:
.LBB8033:
.LBB8034:
.LBB8035:
	.loc 17 66 0
	lwz 11,-4(9)
.LVL1079:
.LBE8035:
.LBE8034:
.LBE8033:
	.loc 10 240 0
	cmpwi 7,11,0
.LBB8038:
.LBB8037:
.LBB8036:
	.loc 17 67 0
	addi 11,11,-1
	stw 11,-4(9)
.LBE8036:
.LBE8037:
.LBE8038:
	.loc 10 240 0
	bgt+ 7,.L745
	.loc 10 244 0
	addi 4,1,11
	bl _ZNSbIwSt11char_traitsIwESaIwEE4_Rep10_M_destroyERKS1_
.LVL1080:
	b .L745
.LVL1081:
.L792:
.LBE8040:
.LBE8042:
.LBE8043:
.LBE8044:
.LBE8127:
.LBB8128:
.LBB8120:
.LBB8119:
.LBB8118:
.LBB8117:
.LBB8111:
.LBB8112:
.LBB8113:
	.loc 17 66 0
	lwz 11,-4(9)
.LVL1082:
.LBE8113:
.LBE8112:
.LBE8111:
	.loc 10 240 0
	cmpwi 7,11,0
.LBB8116:
.LBB8115:
.LBB8114:
	.loc 17 67 0
	addi 11,11,-1
	stw 11,-4(9)
.LBE8114:
.LBE8115:
.LBE8116:
	.loc 10 240 0
	bgt+ 7,.L733
	.loc 10 244 0
	addi 4,1,8
	bl _ZNSs4_Rep10_M_destroyERKSaIcE
.LVL1083:
	b .L733
.LVL1084:
.L776:
	mr 31,3
.LVL1085:
.LBE8117:
.LBE8118:
.LBE8119:
.LBE8120:
.LBE8128:
	.loc 3 225 0
	mr 3,25
	bl _ZdlPv
	b .L772
.LVL1086:
.L777:
	mr 31,3
.LVL1087:
	.loc 3 221 0
	addi 3,1,20
	bl _ZNSsD1Ev
	b .L772
.LBE8131:
	.cfi_endproc
.LFE2906:
	.section	.gcc_except_table
.LLSDA2906:
	.byte	0xff
	.byte	0xff
	.byte	0x1
	.uleb128 .LLSDACSE2906-.LLSDACSB2906
.LLSDACSB2906:
	.uleb128 .LEHB111-.LFB2906
	.uleb128 .LEHE111-.LEHB111
	.uleb128 0
	.uleb128 0
	.uleb128 .LEHB112-.LFB2906
	.uleb128 .LEHE112-.LEHB112
	.uleb128 .L779-.LFB2906
	.uleb128 0
	.uleb128 .LEHB113-.LFB2906
	.uleb128 .LEHE113-.LEHB113
	.uleb128 .L775-.LFB2906
	.uleb128 0
	.uleb128 .LEHB114-.LFB2906
	.uleb128 .LEHE114-.LEHB114
	.uleb128 .L778-.LFB2906
	.uleb128 0
	.uleb128 .LEHB115-.LFB2906
	.uleb128 .LEHE115-.LEHB115
	.uleb128 .L775-.LFB2906
	.uleb128 0
	.uleb128 .LEHB116-.LFB2906
	.uleb128 .LEHE116-.LEHB116
	.uleb128 .L777-.LFB2906
	.uleb128 0
	.uleb128 .LEHB117-.LFB2906
	.uleb128 .LEHE117-.LEHB117
	.uleb128 .L775-.LFB2906
	.uleb128 0
	.uleb128 .LEHB118-.LFB2906
	.uleb128 .LEHE118-.LEHB118
	.uleb128 .L776-.LFB2906
	.uleb128 0
	.uleb128 .LEHB119-.LFB2906
	.uleb128 .LEHE119-.LEHB119
	.uleb128 .L775-.LFB2906
	.uleb128 0
	.uleb128 .LEHB120-.LFB2906
	.uleb128 .LEHE120-.LEHB120
	.uleb128 0
	.uleb128 0
	.uleb128 .LEHB121-.LFB2906
	.uleb128 .LEHE121-.LEHB121
	.uleb128 .L775-.LFB2906
	.uleb128 0
	.uleb128 .LEHB122-.LFB2906
	.uleb128 .LEHE122-.LEHB122
	.uleb128 0
	.uleb128 0
.LLSDACSE2906:
	.section	".text"
	.size	_ZN15IconFileBrowser9SetButtonEiSbIwSt11char_traitsIwESaIwEEbbii.constprop.269, .-_ZN15IconFileBrowser9SetButtonEiSbIwSt11char_traitsIwESaIwEEbbii.constprop.269
	.align 2
	.globl _ZN15IconFileBrowser12OnListChangeEii
	.type	_ZN15IconFileBrowser12OnListChangeEii, @function
_ZN15IconFileBrowser12OnListChangeEii:
.LFB1626:
	.loc 3 311 0
	.cfi_startproc
	.cfi_personality 0,__gxx_personality_v0
	.cfi_lsda 0,.LLSDA1626
.LVL1088:
	mflr 0
	stwu 1,-48(1)
.LCFI174:
	.cfi_def_cfa_offset 48
	.cfi_register 65, 0
	stw 31,44(1)
	mr 31,3
	.cfi_offset 31, -4
	stw 0,52(1)
	stw 27,28(1)
	mr 27,5
	.cfi_offset 27, -20
	.cfi_offset 65, 4
.LBB8204:
	.loc 3 312 0
	lwz 3,272(3)
.LVL1089:
.LBE8204:
	.loc 3 311 0
	stw 30,40(1)
	mr 30,4
	.cfi_offset 30, -8
	stw 26,24(1)
	stw 28,32(1)
	stw 29,36(1)
.LEHB123:
.LBB8274:
	.loc 3 312 0
	.cfi_offset 29, -12
	.cfi_offset 28, -16
	.cfi_offset 26, -24
	bl _ZN9Scrollbar11SetSelectedEii
.LVL1090:
	.loc 3 314 0
	lwz 3,156(31)
	mr 4,27
	.loc 3 313 0
	stw 30,192(31)
	.loc 3 314 0
	lwz 9,0(3)
	lwz 0,20(9)
	mtctr 0
	bctrl
.LVL1091:
.LBB8205:
	.loc 3 318 0
	lhz 0,190(31)
	cmpwi 7,0,0
	beq- 7,.L793
	li 30,0
.LVL1092:
	li 28,0
	li 29,12
	b .L817
.LVL1093:
.L827:
.LBB8206:
.LBB8207:
.LBB8208:
	.loc 3 322 0
	lwz 4,156(31)
	addi 3,1,20
	mr 5,26
	lwz 9,0(4)
	lwz 0,68(9)
	mtctr 0
	bctrl
.LEHE123:
	.loc 3 323 0
	lwz 3,156(31)
	mr 4,26
	lwz 9,0(3)
	lwz 0,44(9)
	mtctr 0
.LEHB124:
	bctrl
	mr 26,3
.LVL1094:
	.loc 3 325 0
	addi 4,1,20
	addi 3,1,16
.LVL1095:
	bl _ZNSbIwSt11char_traitsIwESaIwEEC1ERKS2_
.LEHE124:
	.loc 3 325 0 is_stmt 0 discriminator 1
	mr 3,31
	mr 4,30
	addi 5,1,16
	mr 6,26
	li 7,1
	mr 8,29
	mr 9,28
.LEHB125:
	bl _ZN15IconFileBrowser9SetButtonEiSbIwSt11char_traitsIwESaIwEEbbii.constprop.269
.LEHE125:
.LVL1096:
.LBB8209:
.LBB8210:
.LBB8211:
.LBB8212:
.LBB8213:
.LBB8214:
	.loc 10 288 0 is_stmt 1
	lwz 9,16(1)
.LBE8214:
.LBE8213:
.LBE8212:
.LBB8215:
.LBB8216:
	.loc 10 235 0
	lis 26,_ZNSbIwSt11char_traitsIwESaIwEE4_Rep20_S_empty_rep_storageE@ha
.LVL1097:
	la 26,_ZNSbIwSt11char_traitsIwESaIwEE4_Rep20_S_empty_rep_storageE@l(26)
.LBE8216:
.LBE8215:
	.loc 10 534 0
	addi 3,9,-12
.LVL1098:
.LBB8225:
.LBB8223:
	.loc 10 235 0
	cmpw 7,3,26
	bne- 7,.L825
.LVL1099:
.L801:
.LBE8223:
.LBE8225:
.LBE8211:
.LBE8210:
.LBE8209:
.LBB8229:
.LBB8230:
.LBB8231:
.LBB8232:
.LBB8233:
.LBB8234:
	.loc 10 288 0
	lwz 9,20(1)
.LBE8234:
.LBE8233:
.LBE8232:
	.loc 10 534 0
	addi 3,9,-12
.LVL1100:
.LBB8235:
.LBB8236:
	.loc 10 235 0
	cmpw 7,3,26
	bne- 7,.L826
.LVL1101:
.L815:
.LBE8236:
.LBE8235:
.LBE8231:
.LBE8230:
.LBE8229:
.LBE8208:
.LBE8207:
	.loc 3 331 0
	lwz 9,36(31)
	.loc 3 330 0
	addi 29,29,90
	rlwinm 29,29,0,0xffff
.LVL1102:
	.loc 3 331 0
	addi 0,9,-80
	cmplw 7,29,0
	blt- 7,.L816
.LVL1103:
	.loc 3 334 0
	addi 28,28,90
	.loc 3 333 0
	li 29,12
	.loc 3 334 0
	rlwinm 28,28,0,0xffff
.LVL1104:
.L816:
.LBE8206:
	.loc 3 318 0
	lhz 0,190(31)
	addi 30,30,1
.LVL1105:
	cmpw 7,0,30
	ble- 7,.L793
.LVL1106:
.L817:
.LBB8270:
.LBB8267:
	.loc 3 320 0
	lwz 3,156(31)
.LBE8267:
.LBE8270:
	.loc 3 310 0
	add 26,30,27
.LBB8271:
.LBB8268:
	.loc 3 320 0
	lwz 9,0(3)
	lwz 0,28(9)
	mtctr 0
.LEHB126:
	bctrl
	cmpw 7,3,26
	bgt- 7,.L827
	.loc 3 328 0
	lis 4,.LC14@ha
	addi 3,1,12
	la 4,.LC14@l(4)
	addi 5,1,11
	bl _ZNSbIwSt11char_traitsIwESaIwEEC1EPKwRKS1_
.LEHE126:
	mr 3,31
	mr 4,30
	addi 5,1,12
	li 6,0
	li 7,0
	li 8,0
	li 9,0
.LEHB127:
	bl _ZN15IconFileBrowser9SetButtonEiSbIwSt11char_traitsIwESaIwEEbbii.constprop.269
.LEHE127:
.LVL1107:
.LBB8249:
.LBB8250:
.LBB8251:
.LBB8252:
.LBB8253:
.LBB8254:
	.loc 10 288 0
	lwz 9,12(1)
.LBE8254:
.LBE8253:
.LBE8252:
.LBB8255:
.LBB8256:
	.loc 10 235 0
	lis 11,_ZNSbIwSt11char_traitsIwESaIwEE4_Rep20_S_empty_rep_storageE@ha
	la 0,_ZNSbIwSt11char_traitsIwESaIwEE4_Rep20_S_empty_rep_storageE@l(11)
.LBE8256:
.LBE8255:
	.loc 10 534 0
	addi 3,9,-12
.LVL1108:
.LBB8264:
.LBB8263:
	.loc 10 235 0
	cmpw 7,3,0
	beq+ 7,.L815
.LVL1109:
.LBB8257:
.LBB8258:
.LBB8259:
	.loc 17 66 0
	lwz 11,-4(9)
.LVL1110:
.LBE8259:
.LBE8258:
.LBE8257:
	.loc 10 240 0
	cmpwi 7,11,0
.LBB8262:
.LBB8261:
.LBB8260:
	.loc 17 67 0
	addi 11,11,-1
	stw 11,-4(9)
.LBE8260:
.LBE8261:
.LBE8262:
	.loc 10 240 0
	bgt+ 7,.L815
	.loc 10 244 0
	addi 4,1,8
	bl _ZNSbIwSt11char_traitsIwESaIwEE4_Rep10_M_destroyERKS1_
.LVL1111:
	b .L815
.LVL1112:
.L793:
.LBE8263:
.LBE8264:
.LBE8251:
.LBE8250:
.LBE8249:
.LBE8268:
.LBE8271:
.LBE8205:
.LBE8274:
	.loc 3 337 0
	lwz 0,52(1)
	lwz 26,24(1)
	mtlr 0
	lwz 27,28(1)
.LVL1113:
	lwz 28,32(1)
	lwz 29,36(1)
	lwz 30,40(1)
	lwz 31,44(1)
.LVL1114:
	addi 1,1,48
	.cfi_remember_state
.LCFI175:
	.cfi_def_cfa_offset 0
	.cfi_restore 31
	.cfi_restore 30
	.cfi_restore 29
	.cfi_restore 28
	.cfi_restore 27
	.cfi_restore 26
	blr
.LVL1115:
.L826:
.LCFI176:
	.cfi_restore_state
.LBB8275:
.LBB8273:
.LBB8272:
.LBB8269:
.LBB8265:
.LBB8247:
.LBB8246:
.LBB8245:
.LBB8244:
.LBB8243:
.LBB8237:
.LBB8238:
.LBB8239:
	.loc 17 66 0
	lwz 11,-4(9)
.LVL1116:
.LBE8239:
.LBE8238:
.LBE8237:
	.loc 10 240 0
	cmpwi 7,11,0
.LBB8242:
.LBB8241:
.LBB8240:
	.loc 17 67 0
	addi 11,11,-1
	stw 11,-4(9)
.LBE8240:
.LBE8241:
.LBE8242:
	.loc 10 240 0
	bgt+ 7,.L815
	.loc 10 244 0
	addi 4,1,9
	bl _ZNSbIwSt11char_traitsIwESaIwEE4_Rep10_M_destroyERKS1_
.LVL1117:
	b .L815
.LVL1118:
.L825:
.LBE8243:
.LBE8244:
.LBE8245:
.LBE8246:
.LBE8247:
.LBB8248:
.LBB8228:
.LBB8227:
.LBB8226:
.LBB8224:
.LBB8217:
.LBB8218:
.LBB8219:
	.loc 17 66 0
	lwz 11,-4(9)
.LVL1119:
.LBE8219:
.LBE8218:
.LBE8217:
	.loc 10 240 0
	cmpwi 7,11,0
.LBB8222:
.LBB8221:
.LBB8220:
	.loc 17 67 0
	addi 11,11,-1
	stw 11,-4(9)
.LBE8220:
.LBE8221:
.LBE8222:
	.loc 10 240 0
	bgt+ 7,.L801
	.loc 10 244 0
	addi 4,1,10
	bl _ZNSbIwSt11char_traitsIwESaIwEE4_Rep10_M_destroyERKS1_
.LVL1120:
	b .L801
.LVL1121:
.L823:
	mr 31,3
.LVL1122:
.LBE8224:
.LBE8226:
.LBE8227:
.LBE8228:
.LBE8248:
.LBE8265:
	.loc 3 328 0
	addi 3,1,12
	bl _ZNSbIwSt11char_traitsIwESaIwEED1Ev
	mr 3,31
.LEHB128:
	bl _Unwind_Resume
.LVL1123:
.L822:
	mr 31,3
.LVL1124:
.LBB8266:
	.loc 3 325 0
	addi 3,1,16
	bl _ZNSbIwSt11char_traitsIwESaIwEED1Ev
.LVL1125:
.L819:
	addi 3,1,20
	bl _ZNSbIwSt11char_traitsIwESaIwEED1Ev
	mr 3,31
	bl _Unwind_Resume
.LEHE128:
.LVL1126:
.L821:
	mr 31,3
.LVL1127:
	b .L819
.LBE8266:
.LBE8269:
.LBE8272:
.LBE8273:
.LBE8275:
	.cfi_endproc
.LFE1626:
	.section	.gcc_except_table
.LLSDA1626:
	.byte	0xff
	.byte	0xff
	.byte	0x1
	.uleb128 .LLSDACSE1626-.LLSDACSB1626
.LLSDACSB1626:
	.uleb128 .LEHB123-.LFB1626
	.uleb128 .LEHE123-.LEHB123
	.uleb128 0
	.uleb128 0
	.uleb128 .LEHB124-.LFB1626
	.uleb128 .LEHE124-.LEHB124
	.uleb128 .L821-.LFB1626
	.uleb128 0
	.uleb128 .LEHB125-.LFB1626
	.uleb128 .LEHE125-.LEHB125
	.uleb128 .L822-.LFB1626
	.uleb128 0
	.uleb128 .LEHB126-.LFB1626
	.uleb128 .LEHE126-.LEHB126
	.uleb128 0
	.uleb128 0
	.uleb128 .LEHB127-.LFB1626
	.uleb128 .LEHE127-.LEHB127
	.uleb128 .L823-.LFB1626
	.uleb128 0
	.uleb128 .LEHB128-.LFB1626
	.uleb128 .LEHE128-.LEHB128
	.uleb128 0
	.uleb128 0
.LLSDACSE1626:
	.section	".text"
	.size	_ZN15IconFileBrowser12OnListChangeEii, .-_ZN15IconFileBrowser12OnListChangeEii
	.globl __floatundisf
	.align 2
	.globl _ZN15IconFileBrowser6UpdateEP10GuiTrigger
	.type	_ZN15IconFileBrowser6UpdateEP10GuiTrigger, @function
_ZN15IconFileBrowser6UpdateEP10GuiTrigger:
.LFB1629:
	.loc 3 436 0
	.cfi_startproc
.LVL1128:
	stwu 1,-40(1)
.LCFI177:
	.cfi_def_cfa_offset 40
	mflr 0
	stw 31,36(1)
	mr 31,3
	.cfi_offset 31, -4
	.cfi_register 65, 0
.LVL1129:
	stw 0,44(1)
	stw 30,32(1)
	mr 30,4
	.cfi_offset 30, -8
	.cfi_offset 65, 4
	stw 26,16(1)
	stw 27,20(1)
	stw 28,24(1)
	stw 29,28(1)
.LBB8306:
.LBB8307:
.LBB8308:
	.loc 9 59 0
	.cfi_offset 29, -12
	.cfi_offset 28, -16
	.cfi_offset 27, -20
	.cfi_offset 26, -24
	bl gettime
.LVL1130:
	lwz 10,200(31)
	lwz 11,204(31)
	subfc 4,11,4
	subfe 3,10,3
	bl __floatundisf
	lis 9,.LC15@ha
	lfs 13,.LC15@l(9)
.LBE8308:
.LBE8307:
	.loc 3 437 0
	lfs 0,208(31)
.LBB8310:
.LBB8309:
	.loc 9 59 0
	fdivs 13,1,13
.LBE8309:
.LBE8310:
	.loc 3 437 0
	fcmpu 7,0,13
	bgt- 7,.L828
	.loc 3 437 0 is_stmt 0 discriminator 2
	lbz 0,196(31)
	cmpwi 7,0,0
	beq- 7,.L855
.L828:
.LBE8306:
	.loc 3 498 0 is_stmt 1
	lwz 0,44(1)
	lwz 26,16(1)
	mtlr 0
	lwz 27,20(1)
	lwz 28,24(1)
	lwz 29,28(1)
	lwz 30,32(1)
.LVL1131:
	lwz 31,36(1)
.LVL1132:
	addi 1,1,40
	.cfi_remember_state
.LCFI178:
	.cfi_def_cfa_offset 0
	.cfi_restore 31
	.cfi_restore 30
	.cfi_restore 29
	.cfi_restore 28
	.cfi_restore 27
	.cfi_restore 26
	blr
.LVL1133:
.L855:
.LCFI179:
	.cfi_restore_state
.LBB8311:
	.loc 3 442 0
	lwz 0,72(31)
	cmpwi 7,0,4
	.loc 3 440 0
	li 0,0
	stw 0,208(31)
	.loc 3 442 0
	beq- 7,.L828
	.loc 3 442 0 is_stmt 0 discriminator 2
	cmpwi 7,30,0
	beq- 7,.L828
	.loc 3 442 0 discriminator 3
	lwz 3,156(31)
	lwz 9,0(3)
	lwz 0,32(9)
	mtctr 0
	bctrl
	cmpwi 7,3,0
	bne- 7,.L828
.LVL1134:
.LBE8311:
.LBB8312:
.LBB8313:
	.loc 3 445 0 is_stmt 1
	mr 3,31
	mr 4,30
	bl _ZN15IconFileBrowser15CheckNavigationEP10GuiTrigger
	.loc 3 446 0
	lwz 3,272(31)
	mr 4,30
	lwz 9,0(3)
	lwz 0,188(9)
	mtctr 0
	bctrl
	.loc 3 449 0
	lwz 3,156(31)
	cmpwi 7,3,0
	beq- 7,.L828
	.loc 3 452 0
	lwz 9,0(3)
	lwz 0,36(9)
	mtctr 0
	bctrl
	cmpwi 7,3,0
	bne- 7,.L856
.L832:
.LVL1135:
.LBB8314:
	.loc 3 457 0
	lhz 0,190(31)
	cmpwi 7,0,0
	beq- 7,.L833
.LBE8314:
.LBE8313:
	.loc 3 522 0
	lwz 9,248(31)
.LBB8328:
.LBB8326:
	.loc 3 457 0
	li 29,0
.LBB8315:
.LBB8316:
	.loc 7 571 0
	lwz 0,252(31)
.LBE8316:
.LBE8315:
	.loc 3 457 0
	li 28,0
.LBB8319:
.LBB8317:
	.loc 7 571 0
	subf 0,9,0
.LBE8317:
.LBE8319:
	.loc 3 457 0
	cmpwi 7,0,3
	bgt- 7,.L849
.LVL1136:
.L833:
.LBE8326:
	.loc 3 494 0
	lwz 3,156(31)
	lwz 30,272(31)
.LVL1137:
	lwz 9,0(3)
	lwz 0,28(9)
	mtctr 0
	bctrl
	mr 4,3
	mr 3,30
	bl _ZN9Scrollbar14SetEntrieCountEi
	.loc 3 495 0
	lwz 3,272(31)
	lhz 4,190(31)
	bl _ZN9Scrollbar11SetPageSizeEi
	.loc 3 496 0
	lhz 4,188(31)
	lwz 3,272(31)
	bl _ZN9Scrollbar10SetRowSizeEi
	.loc 3 497 0
	lwz 3,156(31)
	lwz 30,272(31)
	lwz 9,0(3)
	lwz 31,192(31)
.LVL1138:
	lwz 0,12(9)
	mtctr 0
	bctrl
	mr 4,31
	mr 5,3
	mr 3,30
	bl _ZN9Scrollbar11SetSelectedEii
.LBE8328:
.LBE8312:
	.loc 3 498 0
	lwz 0,44(1)
	lwz 26,16(1)
	mtlr 0
	lwz 27,20(1)
	lwz 28,24(1)
	lwz 29,28(1)
	lwz 30,32(1)
	lwz 31,36(1)
	addi 1,1,40
	.cfi_remember_state
	.cfi_restore 26
	.cfi_restore 27
	.cfi_restore 28
	.cfi_restore 29
	.cfi_restore 30
	.cfi_restore 31
.LCFI180:
	.cfi_def_cfa_offset 0
	blr
.LVL1139:
.L860:
.LCFI181:
	.cfi_restore_state
.LBB8330:
	.loc 3 522 0
	lwz 9,248(31)
	addi 29,29,4
.LBB8329:
.LBB8327:
.LBB8320:
.LBB8318:
	.loc 7 571 0
	lwz 0,252(31)
	subf 0,9,0
	srawi 0,0,2
.LBE8318:
.LBE8320:
	.loc 3 457 0
	cmpw 7,28,0
	bge- 7,.L833
.LVL1140:
.L849:
.LBB8321:
	.loc 3 459 0
	lwz 0,192(31)
	cmpw 7,0,28
	bne- 7,.L842
.L843:
.LVL1141:
	.loc 3 461 0
	lwzx 3,9,29
	lwz 9,0(3)
	lwz 0,84(9)
	mtctr 0
	bctrl
	cmpwi 7,3,0
	bne- 7,.L846
.LVL1142:
.LBB8322:
.LBB8323:
	.loc 7 696 0
	lwz 0,192(31)
.LBE8323:
.LBE8322:
	.loc 3 462 0
	li 4,1
	lwz 9,248(31)
	slwi 0,0,2
	lwz 5,8(30)
	lwzx 3,9,0
	lwz 9,0(3)
	lwz 0,80(9)
	mtctr 0
	bctrl
.LVL1143:
.L846:
	.loc 3 466 0
	lwz 9,12(30)
	.loc 3 464 0
	lwz 27,8(30)
.LVL1144:
	.loc 3 466 0
	lwz 0,172(9)
	cmpwi 7,0,0
	bne- 7,.L857
.LVL1145:
.L847:
	.loc 3 469 0
	lwz 9,248(31)
	mr 4,30
	lwzx 3,9,29
	lwz 9,0(3)
	lwz 0,188(9)
	mtctr 0
	bctrl
	.loc 3 472 0
	lwz 9,248(31)
	.loc 3 470 0
	stw 27,8(30)
	.loc 3 472 0
	lwzx 3,9,29
	lwz 9,0(3)
	lwz 0,84(9)
	mtctr 0
	bctrl
	cmpwi 7,3,1
	beq- 7,.L858
.L840:
	.loc 3 479 0
	lwz 9,260(31)
	li 4,4
.LVL1146:
.L854:
	lwzx 3,9,29
	li 5,-1
.LBE8321:
	.loc 3 457 0
	addi 28,28,1
.LBB8324:
	.loc 3 479 0
	lwz 9,0(3)
	lwz 0,80(9)
	mtctr 0
	bctrl
.LVL1147:
.LBE8324:
	.loc 3 457 0
	lhz 0,190(31)
	cmpw 7,28,0
	bge- 7,.L833
	b .L860
.LVL1148:
.L842:
.LBB8325:
	.loc 3 459 0
	lwzx 3,9,29
	lwz 9,0(3)
	lwz 0,84(9)
	mtctr 0
	bctrl
	cmpwi 7,3,1
	beq- 7,.L835
	.loc 3 461 0
	lwz 0,192(31)
	cmpw 7,28,0
	bne+ 7,.L846
	lwz 9,248(31)
	b .L843
.LVL1149:
.L857:
	.loc 3 466 0
	lwz 11,248(31)
	lfs 13,176(9)
	lwzx 3,11,29
	lfs 0,180(9)
	fctiwz 13,13
	lwz 9,0(3)
	fctiwz 0,0
	lwz 0,164(9)
	addi 9,1,8
	stfiwx 13,0,9
	addi 9,1,12
	stfiwx 0,0,9
	mtctr 0
	lwz 4,8(1)
	lwz 5,12(1)
	bctrl
	cmpwi 7,3,0
	bne- 7,.L847
	.loc 3 469 0
	lwz 9,248(31)
	.loc 3 467 0
	li 0,-1
	stw 0,8(30)
	.loc 3 469 0
	mr 4,30
	lwzx 3,9,29
	lwz 9,0(3)
	lwz 0,188(9)
	mtctr 0
	bctrl
	.loc 3 472 0
	lwz 9,248(31)
	.loc 3 470 0
	stw 27,8(30)
	.loc 3 472 0
	lwzx 3,9,29
	lwz 9,0(3)
	lwz 0,84(9)
	mtctr 0
	bctrl
	cmpwi 7,3,1
	bne+ 7,.L840
.L858:
	.loc 3 475 0
	lwz 27,156(31)
.LVL1150:
	.loc 3 474 0
	stw 28,192(31)
	.loc 3 475 0
	lwz 9,0(27)
	mr 3,27
	lwz 0,12(9)
	lwz 26,24(9)
	mtctr 0
	bctrl
	mtctr 26
	add 4,28,3
	mr 3,27
	bctrl
	.loc 3 476 0
	lwz 9,260(31)
	li 4,0
	b .L854
.LVL1151:
.L835:
	.loc 3 460 0
	lwz 9,248(31)
	lwzx 3,9,29
	lwz 9,0(3)
	lwz 0,92(9)
	mtctr 0
	bctrl
	b .L846
.LVL1152:
.L856:
.LBE8325:
.LBE8327:
	.loc 3 453 0
	lwz 3,156(31)
	lwz 9,0(3)
	lwz 0,16(9)
	mtctr 0
	bctrl
	mr 29,3
	lwz 3,156(31)
	lwz 9,0(3)
	lwz 0,12(9)
	mtctr 0
	bctrl
	mr 4,29
	mr 5,3
	mr 3,31
	bl _ZN15IconFileBrowser12OnListChangeEii
	b .L832
.LBE8329:
.LBE8330:
	.cfi_endproc
.LFE1629:
	.size	_ZN15IconFileBrowser6UpdateEP10GuiTrigger, .-_ZN15IconFileBrowser6UpdateEP10GuiTrigger
	.section	.text._ZN15IconFileBrowser7RefreshEv,"axG",@progbits,_ZN15IconFileBrowser7RefreshEv,comdat
	.align 2
	.weak	_ZN15IconFileBrowser7RefreshEv
	.type	_ZN15IconFileBrowser7RefreshEv, @function
_ZN15IconFileBrowser7RefreshEv:
.LFB1516:
	.file 18 "d:/Projects/SaveGameManager/savegame-manager-gx/trunk/source/Files/IconFileBrowser.hpp"
	.loc 18 32 0
	.cfi_startproc
.LVL1153:
	mflr 0
	stwu 1,-16(1)
.LCFI182:
	.cfi_def_cfa_offset 16
	.cfi_register 65, 0
	stw 31,12(1)
	mr 31,3
	.cfi_offset 31, -4
	stw 0,20(1)
	.loc 18 32 0
	lwz 3,156(3)
.LVL1154:
	cmpwi 7,3,0
	beq- 7,.L862
	.cfi_offset 65, 4
	.loc 18 32 0 is_stmt 0 discriminator 1
	lwz 9,0(3)
	lwz 0,40(9)
	mtctr 0
	bctrl
.L862:
	.loc 18 32 0 discriminator 2
	lwz 0,20(1)
	mr 3,31
	lwz 31,12(1)
.LVL1155:
	li 4,0
	mtlr 0
	li 5,0
	addi 1,1,16
.LCFI183:
	.cfi_def_cfa_offset 0
	.cfi_restore 31
	b _ZN15IconFileBrowser12OnListChangeEii
.LVL1156:
	.cfi_endproc
.LFE1516:
	.size	_ZN15IconFileBrowser7RefreshEv, .-_ZN15IconFileBrowser7RefreshEv
	.section	.text._ZNSt8_Rb_treeIPN7sigslot12_signal_baseINS0_15single_threadedEEES4_St9_IdentityIS4_ESt4lessIS4_ESaIS4_EE5eraseERKS4_,"axG",@progbits,_ZNSt8_Rb_treeIPN7sigslot12_signal_baseINS0_15single_threadedEEES4_St9_IdentityIS4_ESt4lessIS4_ESaIS4_EE5eraseERKS4_,comdat
	.align 2
	.weak	_ZNSt8_Rb_treeIPN7sigslot12_signal_baseINS0_15single_threadedEEES4_St9_IdentityIS4_ESt4lessIS4_ESaIS4_EE5eraseERKS4_
	.type	_ZNSt8_Rb_treeIPN7sigslot12_signal_baseINS0_15single_threadedEEES4_St9_IdentityIS4_ESt4lessIS4_ESaIS4_EE5eraseERKS4_, @function
_ZNSt8_Rb_treeIPN7sigslot12_signal_baseINS0_15single_threadedEEES4_St9_IdentityIS4_ESt4lessIS4_ESaIS4_EE5eraseERKS4_:
.LFB2385:
	.loc 14 1510 0 is_stmt 1
	.cfi_startproc
.LVL1157:
	mflr 0
	stwu 1,-32(1)
.LCFI184:
	.cfi_def_cfa_offset 32
	.cfi_register 65, 0
	stw 28,16(1)
.LBB8383:
.LBB8384:
	.loc 14 1155 0
	addi 28,3,4
	.cfi_offset 28, -16
.LBE8384:
.LBE8383:
	.loc 14 1510 0
	stw 0,36(1)
	stw 26,8(1)
.LBB8443:
.LBB8405:
.LBB8385:
	.loc 14 1155 0
	mr 26,28
	.cfi_offset 26, -24
	.cfi_offset 65, 4
.LBE8385:
	.loc 3 522 0
	lwz 0,8(3)
.LBE8405:
.LBE8443:
	.loc 14 1510 0
	stw 29,20(1)
.LBB8444:
.LBB8406:
.LBB8398:
	.loc 14 1155 0
	mr 29,28
	.cfi_offset 29, -12
	.loc 14 1156 0
	cmpwi 7,0,0
.LBE8398:
.LBE8406:
.LBE8444:
	.loc 14 1510 0
	stw 30,24(1)
	stw 27,12(1)
	mr 30,3
	.cfi_offset 27, -20
	.cfi_offset 30, -8
.LVL1158:
	stw 31,28(1)
.LBB8445:
.LBB8407:
.LBB8399:
	.loc 14 1156 0
	beq- 7,.L864
	.cfi_offset 31, -4
.LVL1159:
	lwz 11,0(4)
	mr 26,0
	b .L875
.LVL1160:
.L893:
.LBE8399:
	.loc 3 522 0
	lwz 26,12(26)
.LVL1161:
.LBB8400:
	.loc 14 1156 0
	cmpwi 7,26,0
	beq- 7,.L892
.L875:
.LVL1162:
.LBE8400:
	.loc 3 522 0
	lwz 9,16(26)
.LBB8401:
.LBB8386:
	.loc 14 1158 0
	cmplw 7,9,11
	blt- 7,.L893
.LVL1163:
.LBB8387:
	.loc 14 1160 0
	ble- 7,.L867
.LVL1164:
.LBE8387:
.LBE8386:
.LBE8401:
	.loc 3 522 0
	mr 29,26
	.loc 14 1161 0
	lwz 26,8(26)
.LVL1165:
.LBB8402:
	.loc 14 1156 0
	cmpwi 7,26,0
	bne+ 7,.L875
.LVL1166:
.L892:
	mr 26,29
.LVL1167:
.L864:
.LBE8402:
.LBE8407:
.LBB8408:
.LBB8409:
.LBB8410:
	.loc 14 1500 0
	lwz 9,12(30)
.LBE8410:
.LBE8409:
.LBE8408:
.LBB8439:
.LBB8403:
	.loc 3 522 0
	lwz 27,20(30)
.LVL1168:
.LBE8403:
.LBE8439:
.LBB8440:
.LBB8437:
.LBB8435:
	.loc 14 1500 0
	cmpw 7,26,9
	beq- 7,.L894
.L876:
.LVL1169:
	.loc 14 1503 0
	cmpw 7,29,26
	beq- 7,.L883
.LVL1170:
.L890:
.LBB8411:
.LBB8412:
	.loc 14 277 0
	mr 3,26
	bl _ZSt18_Rb_tree_incrementPKSt18_Rb_tree_node_base
.LBE8412:
.LBE8411:
.LBB8414:
.LBB8415:
.LBB8416:
	.loc 14 1489 0
	mr 4,28
.LBE8416:
.LBE8415:
.LBE8414:
.LBB8427:
.LBB8413:
	.loc 14 277 0
	mr 31,3
.LVL1171:
.LBE8413:
.LBE8427:
.LBB8428:
.LBB8424:
.LBB8421:
	.loc 14 1489 0
	mr 3,26
.LVL1172:
	bl _ZSt28_Rb_tree_rebalance_for_erasePSt18_Rb_tree_node_baseRS_
.LBE8421:
.LBE8424:
.LBE8428:
	.loc 14 277 0
	mr 26,31
.LVL1173:
.LBB8429:
.LBB8425:
.LBB8422:
.LBB8417:
.LBB8418:
.LBB8419:
.LBB8420:
	.loc 8 98 0
	bl _ZdlPv
.LBE8420:
.LBE8419:
.LBE8418:
.LBE8417:
.LBE8422:
.LBE8425:
.LBE8429:
	.loc 14 1503 0
	cmpw 7,29,31
.LBB8430:
.LBB8426:
.LBB8423:
	.loc 14 1491 0
	lwz 9,20(30)
	addi 0,9,-1
	stw 0,20(30)
.LBE8423:
.LBE8426:
.LBE8430:
	.loc 14 1503 0
	bne+ 7,.L890
	subf 27,0,27
.LVL1174:
.L878:
.LBE8435:
.LBE8437:
.LBE8440:
.LBE8445:
	.loc 14 1517 0
	lwz 0,36(1)
	mr 3,27
	lwz 26,8(1)
	mtlr 0
	lwz 27,12(1)
	lwz 28,16(1)
	lwz 29,20(1)
.LVL1175:
	lwz 30,24(1)
.LVL1176:
	lwz 31,28(1)
	addi 1,1,32
	.cfi_remember_state
.LCFI185:
	.cfi_def_cfa_offset 0
	.cfi_restore 31
	.cfi_restore 30
	.cfi_restore 29
	.cfi_restore 28
	.cfi_restore 27
	.cfi_restore 26
	blr
.LVL1177:
.L867:
.LCFI186:
	.cfi_restore_state
.LBB8446:
.LBB8441:
	.loc 3 522 0
	lwz 10,8(26)
.LVL1178:
	lwz 9,12(26)
.LVL1179:
.L891:
.LBB8404:
.LBB8397:
.LBB8396:
.LBB8388:
.LBB8389:
.LBB8390:
	.loc 14 1089 0
	cmpwi 7,10,0
	beq- 7,.L868
.L895:
.LVL1180:
	.loc 14 1090 0
	lwz 8,16(10)
	cmplw 7,8,11
	blt- 7,.L869
.LVL1181:
.LBE8390:
	.loc 3 522 0
	mr 26,10
	.loc 14 1091 0
	lwz 10,8(10)
.LVL1182:
.LBB8391:
	.loc 14 1089 0
	cmpwi 7,10,0
	bne+ 7,.L895
.LVL1183:
.L868:
.LBE8391:
.LBE8389:
.LBB8392:
.LBB8393:
	.loc 14 1121 0
	cmpwi 7,9,0
	beq- 7,.L864
.LVL1184:
	.loc 14 1122 0
	lwz 10,16(9)
	cmplw 7,10,11
	ble- 7,.L872
.LVL1185:
.L896:
.LBE8393:
	.loc 3 522 0
	mr 29,9
	.loc 14 1123 0
	lwz 9,8(9)
.LVL1186:
.LBB8394:
	.loc 14 1121 0
	cmpwi 7,9,0
	beq- 7,.L864
.LVL1187:
	.loc 14 1122 0
	lwz 10,16(9)
	cmplw 7,10,11
	bgt- 7,.L896
.LVL1188:
.L872:
.LBE8394:
	.loc 3 522 0
	lwz 9,12(9)
.LVL1189:
	b .L868
.LVL1190:
.L869:
.LBE8392:
.LBB8395:
	lwz 10,12(10)
.LVL1191:
	b .L891
.LVL1192:
.L894:
.LBE8395:
.LBE8388:
.LBE8396:
.LBE8397:
.LBE8404:
.LBE8441:
.LBB8442:
.LBB8438:
.LBB8436:
	.loc 14 1500 0
	cmpw 7,28,29
	bne+ 7,.L876
.LVL1193:
.LBB8431:
.LBB8432:
.LBB8433:
.LBB8434:
	.loc 14 809 0
	mr 4,0
.LVL1194:
	mr 3,30
.LVL1195:
	bl _ZNSt8_Rb_treeIPN7sigslot12_signal_baseINS0_15single_threadedEEES4_St9_IdentityIS4_ESt4lessIS4_ESaIS4_EE8_M_eraseEPSt13_Rb_tree_nodeIS4_E
.LVL1196:
	.loc 14 811 0
	li 0,0
	.loc 14 810 0
	stw 28,12(30)
.LVL1197:
	.loc 14 811 0
	stw 0,8(30)
.LVL1198:
	.loc 14 812 0
	stw 28,16(30)
	.loc 14 813 0
	stw 0,20(30)
	b .L878
.LVL1199:
.L883:
.LBE8434:
.LBE8433:
.LBE8432:
.LBE8431:
	.loc 14 1503 0
	li 27,0
	b .L878
.LBE8436:
.LBE8438:
.LBE8442:
.LBE8446:
	.cfi_endproc
.LFE2385:
	.size	_ZNSt8_Rb_treeIPN7sigslot12_signal_baseINS0_15single_threadedEEES4_St9_IdentityIS4_ESt4lessIS4_ESaIS4_EE5eraseERKS4_, .-_ZNSt8_Rb_treeIPN7sigslot12_signal_baseINS0_15single_threadedEEES4_St9_IdentityIS4_ESt4lessIS4_ESaIS4_EE5eraseERKS4_
	.section	.text._ZN7sigslot13_signal_base1IiNS_15single_threadedEED2Ev,"axG",@progbits,_ZN7sigslot13_signal_base1IiNS_15single_threadedEED5Ev,comdat
	.align 2
	.weak	_ZN7sigslot13_signal_base1IiNS_15single_threadedEED2Ev
	.type	_ZN7sigslot13_signal_base1IiNS_15single_threadedEED2Ev, @function
_ZN7sigslot13_signal_base1IiNS_15single_threadedEED2Ev:
.LFB1817:
	.loc 1 702 0
	.cfi_startproc
	.cfi_personality 0,__gxx_personality_v0
	.cfi_lsda 0,.LLSDA1817
.LVL1200:
	mflr 0
	stwu 1,-40(1)
.LCFI187:
	.cfi_def_cfa_offset 40
	.cfi_register 65, 0
.LBB8593:
	.loc 1 705 0
	lis 9,_ZTVN7sigslot13_signal_base1IiNS_15single_threadedEEE+8@ha
.LBE8593:
	.loc 1 702 0
	stw 28,24(1)
	mr 28,3
	.cfi_offset 28, -16
	stw 0,44(1)
.LBB8676:
	.loc 1 705 0
	la 0,_ZTVN7sigslot13_signal_base1IiNS_15single_threadedEEE+8@l(9)
	.cfi_offset 65, 4
.LBE8676:
	.loc 1 702 0
	stw 29,28(1)
	addi 29,3,4
	.cfi_offset 29, -12
	stw 30,32(1)
	stw 31,36(1)
.LBB8677:
	.loc 1 705 0
	stw 0,0(3)
.LVL1201:
.LEHB129:
.LBB8594:
.LBB8595:
.LBB8596:
.LBB8597:
	.loc 1 338 0
	.cfi_offset 31, -4
	.cfi_offset 30, -8
	bl _ZN7sigslot15single_threaded4lockEv
.LEHE129:
.LVL1202:
.LBE8597:
.LBE8596:
.LBE8595:
	.loc 3 522 0
	mr 29,28
	lwzu 31,4(29)
.LVL1203:
.LBB8628:
	.loc 1 713 0
	cmpw 7,31,29
	beq- 7,.L898
.LVL1204:
.L935:
	.loc 1 715 0
	lwz 3,8(31)
	lwz 9,0(3)
	lwz 0,8(9)
	mtctr 0
.LEHB130:
	bctrl
.LBB8598:
.LBB8599:
.LBB8600:
.LBB8601:
	.loc 1 338 0
	lwz 9,0(3)
.LBE8601:
.LBE8600:
.LBE8599:
.LBE8598:
	.loc 1 715 0
	mr 30,3
.LVL1205:
	stw 28,8(1)
.LVL1206:
.LBB8610:
.LBB8609:
.LBB8603:
.LBB8602:
	.loc 1 338 0
	lwz 0,8(9)
	mtctr 0
	bctrl
.LVL1207:
.LBE8602:
.LBE8603:
.LBB8604:
.LBB8605:
	.loc 15 528 0
	addi 3,30,4
	addi 4,1,8
	bl _ZNSt8_Rb_treeIPN7sigslot12_signal_baseINS0_15single_threadedEEES4_St9_IdentityIS4_ESt4lessIS4_ESaIS4_EE5eraseERKS4_
.LVL1208:
.LBE8605:
.LBE8604:
.LBB8606:
.LBB8607:
.LBB8608:
	.loc 1 343 0
	lwz 9,0(30)
	mr 3,30
	lwz 0,12(9)
	mtctr 0
	bctrl
.LVL1209:
.LBE8608:
.LBE8607:
.LBE8606:
.LBE8609:
.LBE8610:
	.loc 1 716 0
	lwz 3,8(31)
	cmpwi 7,3,0
	beq- 7,.L900
	lwz 9,0(3)
	lwz 0,4(9)
	mtctr 0
	bctrl
.LEHE130:
.L900:
.LVL1210:
.LBB8611:
.LBB8612:
	.loc 4 234 0
	lwz 31,0(31)
.LVL1211:
.LBE8612:
.LBE8611:
	.loc 1 713 0
	cmpw 7,29,31
	bne+ 7,.L935
.LBE8628:
	.loc 3 522 0
	lwz 31,4(28)
.LVL1212:
.LBB8629:
.LBB8613:
.LBB8614:
	.loc 4 1162 0
	cmpw 7,29,31
	bne+ 7,.L937
	b .L898
.LVL1213:
.L930:
	.loc 4 1163 0
	mr 31,30
.LVL1214:
.L937:
.LBB8615:
.LBB8616:
	.file 19 "d:\\devkitpro\\devkitppc\\bin\\../lib/gcc/powerpc-eabi/4.6.3/../../../../powerpc-eabi/include/c++/4.6.3/bits/list.tcc"
	.loc 19 112 0
	lwz 30,0(31)
.LVL1215:
.LBB8617:
.LBB8618:
	.loc 4 1532 0
	mr 3,31
	bl _ZNSt8__detail15_List_node_base9_M_unhookEv
.LVL1216:
.LBB8619:
.LBB8620:
.LBB8621:
	.loc 8 98 0
	mr 3,31
	bl _ZdlPv
.LVL1217:
.LBE8621:
.LBE8620:
.LBE8619:
.LBE8618:
.LBE8617:
.LBE8616:
.LBE8615:
	.loc 4 1162 0
	cmpw 7,29,30
	bne+ 7,.L930
.LVL1218:
.L898:
.LBE8614:
.LBE8613:
.LBB8622:
.LBB8623:
.LBB8624:
	.loc 1 343 0
	lwz 9,0(28)
	mr 3,28
	lwz 0,12(9)
	mtctr 0
.LEHB131:
	bctrl
.LEHE131:
.LVL1219:
.LBE8624:
.LBE8623:
.LBE8622:
.LBE8629:
.LBE8594:
.LBB8631:
.LBB8632:
.LBB8633:
.LBB8634:
.LBB8635:
.LBB8636:
	.loc 19 70 0
	lwz 3,4(28)
.LVL1220:
	.loc 19 71 0
	cmpw 7,3,29
	bne+ 7,.L939
	b .L916
.LVL1221:
.L931:
	.loc 19 74 0
	mr 3,31
.LVL1222:
.L939:
.LBB8637:
	lwz 31,0(3)
.LVL1223:
.LBB8638:
.LBB8639:
.LBB8640:
	.loc 8 98 0
	bl _ZdlPv
.LVL1224:
.LBE8640:
.LBE8639:
.LBE8638:
.LBE8637:
	.loc 19 71 0
	cmpw 7,31,29
	bne+ 7,.L931
.LVL1225:
.L916:
.LBE8636:
.LBE8635:
.LBE8634:
.LBE8633:
.LBE8632:
.LBE8631:
.LBB8641:
.LBB8642:
.LBB8643:
.LBB8644:
.LBB8645:
.LBB8646:
	.loc 1 105 0
	lis 9,_ZTVN7sigslot15single_threadedE+8@ha
.LBE8646:
.LBE8645:
.LBE8644:
.LBE8643:
.LBE8642:
.LBE8641:
.LBE8677:
	.loc 1 705 0
	lwz 29,28(1)
.LVL1226:
.LBB8678:
.LBB8657:
.LBB8655:
.LBB8653:
.LBB8651:
.LBB8649:
.LBB8647:
	.loc 1 105 0
	la 0,_ZTVN7sigslot15single_threadedE+8@l(9)
.LBE8647:
.LBE8649:
.LBE8651:
.LBE8653:
.LBE8655:
.LBE8657:
.LBE8678:
	.loc 1 705 0
	lwz 30,32(1)
.LBB8679:
.LBB8658:
.LBB8656:
.LBB8654:
.LBB8652:
.LBB8650:
.LBB8648:
	.loc 1 105 0
	stw 0,0(28)
.LBE8648:
.LBE8650:
.LBE8652:
.LBE8654:
.LBE8656:
.LBE8658:
.LBE8679:
	.loc 1 705 0
	lwz 0,44(1)
	lwz 28,24(1)
.LVL1227:
	mtlr 0
	lwz 31,36(1)
	addi 1,1,40
	.cfi_remember_state
.LCFI188:
	.cfi_def_cfa_offset 0
	.cfi_restore 31
	.cfi_restore 30
	.cfi_restore 29
	.cfi_restore 28
	blr
.LVL1228:
.L933:
.LCFI189:
	.cfi_restore_state
	mr 31,3
.L908:
.LVL1229:
.LBB8680:
.LBB8659:
.LBB8660:
.LBB8661:
.LBB8662:
.LBB8663:
.LBB8664:
	.loc 19 70 0
	lwz 3,4(28)
.LVL1230:
	.loc 19 71 0
	cmpw 7,3,29
	beq- 7,.L927
.LVL1231:
.L940:
.LBB8665:
	.loc 19 74 0
	lwz 30,0(3)
.LVL1232:
.LBB8666:
.LBB8667:
.LBB8668:
	.loc 8 98 0
	bl _ZdlPv
.LVL1233:
.LBE8668:
.LBE8667:
.LBE8666:
.LBE8665:
	.loc 19 71 0
	cmpw 7,30,29
	beq- 7,.L927
	.loc 19 74 0
	mr 3,30
	b .L940
.LVL1234:
.L934:
.LBE8664:
.LBE8663:
.LBE8662:
.LBE8661:
.LBE8660:
.LBE8659:
.LBB8669:
.LBB8630:
.LBB8625:
.LBB8626:
.LBB8627:
	.loc 1 343 0
	lwz 9,0(28)
	mr 31,3
.LVL1235:
	mr 3,28
	lwz 0,12(9)
	mtctr 0
	bctrl
	b .L908
.LVL1236:
.L927:
.LBE8627:
.LBE8626:
.LBE8625:
.LBE8630:
.LBE8669:
.LBB8670:
.LBB8671:
.LBB8672:
.LBB8673:
.LBB8674:
.LBB8675:
	.loc 1 105 0
	lis 9,_ZTVN7sigslot15single_threadedE+8@ha
	mr 3,31
	la 0,_ZTVN7sigslot15single_threadedE+8@l(9)
	stw 0,0(28)
.LEHB132:
	bl _Unwind_Resume
.LEHE132:
.LBE8675:
.LBE8674:
.LBE8673:
.LBE8672:
.LBE8671:
.LBE8670:
.LBE8680:
	.cfi_endproc
.LFE1817:
	.section	.gcc_except_table
.LLSDA1817:
	.byte	0xff
	.byte	0xff
	.byte	0x1
	.uleb128 .LLSDACSE1817-.LLSDACSB1817
.LLSDACSB1817:
	.uleb128 .LEHB129-.LFB1817
	.uleb128 .LEHE129-.LEHB129
	.uleb128 .L933-.LFB1817
	.uleb128 0
	.uleb128 .LEHB130-.LFB1817
	.uleb128 .LEHE130-.LEHB130
	.uleb128 .L934-.LFB1817
	.uleb128 0
	.uleb128 .LEHB131-.LFB1817
	.uleb128 .LEHE131-.LEHB131
	.uleb128 .L933-.LFB1817
	.uleb128 0
	.uleb128 .LEHB132-.LFB1817
	.uleb128 .LEHE132-.LEHB132
	.uleb128 0
	.uleb128 0
.LLSDACSE1817:
	.section	.text._ZN7sigslot13_signal_base1IiNS_15single_threadedEED2Ev,"axG",@progbits,_ZN7sigslot13_signal_base1IiNS_15single_threadedEED5Ev,comdat
	.size	_ZN7sigslot13_signal_base1IiNS_15single_threadedEED2Ev, .-_ZN7sigslot13_signal_base1IiNS_15single_threadedEED2Ev
	.section	.text._ZN7sigslot7signal1IiNS_15single_threadedEED0Ev,"axG",@progbits,_ZN7sigslot7signal1IiNS_15single_threadedEED5Ev,comdat
	.align 2
	.weak	_ZN7sigslot7signal1IiNS_15single_threadedEED0Ev
	.type	_ZN7sigslot7signal1IiNS_15single_threadedEED0Ev, @function
_ZN7sigslot7signal1IiNS_15single_threadedEED0Ev:
.LFB1679:
	.loc 1 2169 0
	.cfi_startproc
	.cfi_personality 0,__gxx_personality_v0
	.cfi_lsda 0,.LLSDA1679
.LVL1237:
	mflr 0
	stwu 1,-40(1)
.LCFI190:
	.cfi_def_cfa_offset 40
	.cfi_register 65, 0
.LBB8779:
.LBB8780:
.LBB8781:
.LBB8782:
.LBB8783:
.LBB8784:
	.loc 1 705 0
	lis 9,_ZTVN7sigslot13_signal_base1IiNS_15single_threadedEEE+8@ha
.LBE8784:
.LBE8783:
.LBE8782:
.LBE8781:
.LBE8780:
.LBE8779:
	.loc 1 2169 0
	stw 28,24(1)
	mr 28,3
	.cfi_offset 28, -16
.LVL1238:
	stw 0,44(1)
.LBB8881:
.LBB8877:
.LBB8873:
.LBB8869:
.LBB8865:
.LBB8861:
	.loc 1 705 0
	la 0,_ZTVN7sigslot13_signal_base1IiNS_15single_threadedEEE+8@l(9)
	.cfi_offset 65, 4
.LBE8861:
.LBE8865:
.LBE8869:
.LBE8873:
.LBE8877:
.LBE8881:
	.loc 1 2169 0
	stw 29,28(1)
	addi 29,3,4
	.cfi_offset 29, -12
	stw 30,32(1)
	stw 31,36(1)
.LBB8882:
.LBB8878:
.LBB8874:
.LBB8870:
.LBB8866:
.LBB8862:
	.loc 1 705 0
	stw 0,0(3)
.LVL1239:
.LEHB133:
.LBB8785:
.LBB8786:
.LBB8787:
.LBB8788:
	.loc 1 338 0
	.cfi_offset 31, -4
	.cfi_offset 30, -8
	bl _ZN7sigslot15single_threaded4lockEv
.LEHE133:
.LVL1240:
.LBE8788:
.LBE8787:
.LBE8786:
	.loc 3 522 0
	mr 29,28
.LVL1241:
	lwzu 31,4(29)
.LVL1242:
.LBB8819:
	.loc 1 713 0
	cmpw 7,31,29
	beq- 7,.L942
.LVL1243:
.L981:
	.loc 1 715 0
	lwz 3,8(31)
	lwz 9,0(3)
	lwz 0,8(9)
	mtctr 0
.LEHB134:
	bctrl
.LBB8789:
.LBB8790:
.LBB8791:
.LBB8792:
	.loc 1 338 0
	lwz 9,0(3)
.LBE8792:
.LBE8791:
.LBE8790:
.LBE8789:
	.loc 1 715 0
	mr 30,3
.LVL1244:
	stw 28,8(1)
.LVL1245:
.LBB8801:
.LBB8800:
.LBB8794:
.LBB8793:
	.loc 1 338 0
	lwz 0,8(9)
	mtctr 0
	bctrl
.LVL1246:
.LBE8793:
.LBE8794:
.LBB8795:
.LBB8796:
	.loc 15 528 0
	addi 3,30,4
	addi 4,1,8
	bl _ZNSt8_Rb_treeIPN7sigslot12_signal_baseINS0_15single_threadedEEES4_St9_IdentityIS4_ESt4lessIS4_ESaIS4_EE5eraseERKS4_
.LVL1247:
.LBE8796:
.LBE8795:
.LBB8797:
.LBB8798:
.LBB8799:
	.loc 1 343 0
	lwz 9,0(30)
	mr 3,30
	lwz 0,12(9)
	mtctr 0
	bctrl
.LVL1248:
.LBE8799:
.LBE8798:
.LBE8797:
.LBE8800:
.LBE8801:
	.loc 1 716 0
	lwz 3,8(31)
	cmpwi 7,3,0
	beq- 7,.L944
	lwz 9,0(3)
	lwz 0,4(9)
	mtctr 0
	bctrl
.LEHE134:
.L944:
.LVL1249:
.LBB8802:
.LBB8803:
	.loc 4 234 0
	lwz 31,0(31)
.LVL1250:
.LBE8803:
.LBE8802:
	.loc 1 713 0
	cmpw 7,29,31
	bne+ 7,.L981
.LBE8819:
	.loc 3 522 0
	lwz 31,4(28)
.LVL1251:
.LBB8820:
.LBB8804:
.LBB8805:
	.loc 4 1162 0
	cmpw 7,29,31
	bne+ 7,.L983
	b .L942
.LVL1252:
.L976:
	.loc 4 1163 0
	mr 31,30
.LVL1253:
.L983:
.LBB8806:
.LBB8807:
	.loc 19 112 0
	lwz 30,0(31)
.LVL1254:
.LBB8808:
.LBB8809:
	.loc 4 1532 0
	mr 3,31
	bl _ZNSt8__detail15_List_node_base9_M_unhookEv
.LVL1255:
.LBB8810:
.LBB8811:
.LBB8812:
	.loc 8 98 0
	mr 3,31
	bl _ZdlPv
.LVL1256:
.LBE8812:
.LBE8811:
.LBE8810:
.LBE8809:
.LBE8808:
.LBE8807:
.LBE8806:
	.loc 4 1162 0
	cmpw 7,29,30
	bne+ 7,.L976
.LVL1257:
.L942:
.LBE8805:
.LBE8804:
.LBB8813:
.LBB8814:
.LBB8815:
	.loc 1 343 0
	lwz 9,0(28)
	mr 3,28
	lwz 0,12(9)
	mtctr 0
.LEHB135:
	bctrl
.LEHE135:
.LBE8815:
.LBE8814:
.LBE8813:
.LBE8820:
.LBE8785:
.LBB8822:
.LBB8823:
.LBB8824:
.LBB8825:
.LBB8826:
.LBB8827:
	.loc 19 70 0
	lwz 3,4(28)
.LVL1258:
	.loc 19 71 0
	cmpw 7,3,29
	bne+ 7,.L985
	b .L960
.LVL1259:
.L977:
	.loc 19 74 0
	mr 3,31
.LVL1260:
.L985:
.LBB8828:
	lwz 31,0(3)
.LVL1261:
.LBB8829:
.LBB8830:
.LBB8831:
	.loc 8 98 0
	bl _ZdlPv
.LVL1262:
.LBE8831:
.LBE8830:
.LBE8829:
.LBE8828:
	.loc 19 71 0
	cmpw 7,31,29
	bne+ 7,.L977
.LVL1263:
.L960:
.LBE8827:
.LBE8826:
.LBE8825:
.LBE8824:
.LBE8823:
.LBE8822:
.LBB8832:
.LBB8833:
.LBB8834:
.LBB8835:
.LBB8836:
.LBB8837:
	.loc 1 105 0
	lis 9,_ZTVN7sigslot15single_threadedE+8@ha
.LBE8837:
.LBE8836:
.LBE8835:
.LBE8834:
.LBE8833:
.LBE8832:
.LBE8862:
.LBE8866:
.LBE8870:
.LBE8874:
.LBE8878:
.LBE8882:
	.loc 1 2172 0
	mr 3,28
.LBB8883:
.LBB8879:
.LBB8875:
.LBB8871:
.LBB8867:
.LBB8863:
.LBB8843:
.LBB8842:
.LBB8841:
.LBB8840:
.LBB8839:
.LBB8838:
	.loc 1 105 0
	la 0,_ZTVN7sigslot15single_threadedE+8@l(9)
	stw 0,0(28)
.LBE8838:
.LBE8839:
.LBE8840:
.LBE8841:
.LBE8842:
.LBE8843:
.LBE8863:
.LBE8867:
.LBE8871:
.LBE8875:
.LBE8879:
.LBE8883:
	.loc 1 2172 0
	bl _ZdlPv
	lwz 0,44(1)
	lwz 28,24(1)
.LVL1264:
	mtlr 0
	lwz 29,28(1)
.LVL1265:
	lwz 30,32(1)
	lwz 31,36(1)
	addi 1,1,40
	.cfi_remember_state
.LCFI191:
	.cfi_def_cfa_offset 0
	.cfi_restore 31
	.cfi_restore 30
	.cfi_restore 29
	.cfi_restore 28
	blr
.LVL1266:
.L979:
.LCFI192:
	.cfi_restore_state
	mr 31,3
.L952:
.LBB8884:
.LBB8880:
.LBB8876:
.LBB8872:
.LBB8868:
.LBB8864:
.LBB8844:
.LBB8845:
.LBB8846:
.LBB8847:
.LBB8848:
.LBB8849:
	.loc 19 70 0
	lwz 3,4(28)
.LVL1267:
	.loc 19 71 0
	cmpw 7,3,29
	beq- 7,.L969
.LVL1268:
.L986:
.LBB8850:
	.loc 19 74 0
	lwz 30,0(3)
.LVL1269:
.LBB8851:
.LBB8852:
.LBB8853:
	.loc 8 98 0
	bl _ZdlPv
.LVL1270:
.LBE8853:
.LBE8852:
.LBE8851:
.LBE8850:
	.loc 19 71 0
	cmpw 7,30,29
	beq- 7,.L969
	.loc 19 74 0
	mr 3,30
	b .L986
.LVL1271:
.L980:
.LBE8849:
.LBE8848:
.LBE8847:
.LBE8846:
.LBE8845:
.LBE8844:
.LBB8854:
.LBB8821:
.LBB8816:
.LBB8817:
.LBB8818:
	.loc 1 343 0
	lwz 9,0(28)
	mr 31,3
.LVL1272:
	mr 3,28
	lwz 0,12(9)
	mtctr 0
	bctrl
	b .L952
.LVL1273:
.L969:
.LBE8818:
.LBE8817:
.LBE8816:
.LBE8821:
.LBE8854:
.LBB8855:
.LBB8856:
.LBB8857:
.LBB8858:
.LBB8859:
.LBB8860:
