   1              		.file	"IosLoader.cpp"
   2              		.section	".text"
   3              	.Ltext0:
   4              		.align 2
   5              		.globl _ZN9IosLoader11IsHermesIOSEi
   6              		.type	_ZN9IosLoader11IsHermesIOSEi, @function
   7              	_ZN9IosLoader11IsHermesIOSEi:
   8              	.LFB1108:
   9              		.file 1 "d:/Projects/SaveGameManager/savegame-manager-gx/trunk/source/System/IosLoader.cpp"
  10              		.loc 1 34 0
  11              		.cfi_startproc
  12              	.LVL0:
  13              		.loc 1 35 0
  14 0000 3803FF22 		addi 0,3,-222
  15 0004 2B800003 		cmplwi 7,0,3
  16 0008 38000001 		li 0,1
  17 000c 409D0010 		ble- 7,.L2
  18              		.loc 1 33 0 discriminator 2
  19 0010 686000CA 		xori 0,3,202
  20 0014 7C000034 		cntlzw 0,0
  21 0018 5400D97E 		srwi 0,0,5
  22              	.L2:
  23              		.loc 1 36 0 discriminator 4
  24 001c 7C030378 		mr 3,0
  25              	.LVL1:
  26 0020 4E800020 		blr
  27              		.cfi_endproc
  28              	.LFE1108:
  29              		.size	_ZN9IosLoader11IsHermesIOSEi, .-_ZN9IosLoader11IsHermesIOSEi
  30              		.align 2
  31              		.globl _ZN9IosLoader14IsWaninkokoIOSEi
  32              		.type	_ZN9IosLoader14IsWaninkokoIOSEi, @function
  33              	_ZN9IosLoader14IsWaninkokoIOSEi:
  34              	.LFB1109:
  35              		.loc 1 42 0
  36              		.cfi_startproc
  37              	.LVL2:
  38              		.loc 1 43 0
  39 0024 3803FF38 		addi 0,3,-200
  40              		.loc 1 42 0
  41 0028 7C691B78 		mr 9,3
  42              		.loc 1 43 0
  43 002c 2B800037 		cmplwi 7,0,55
  44              		.loc 1 44 0
  45 0030 38600000 		li 3,0
  46              	.LVL3:
  47              		.loc 1 43 0
  48 0034 4D9D0020 		bgtlr- 7
  49              	.LVL4:
  50              	.LBB94:
  51              	.LBB95:
  52              	.LBB96:
  53              		.loc 1 35 0
  54 0038 3809FF22 		addi 0,9,-222
  55 003c 2B800003 		cmplwi 7,0,3
  56 0040 4C9D0020 		blelr- 7
  57              		.loc 1 41 0
  58 0044 692900CA 		xori 9,9,202
  59              	.LVL5:
  60 0048 7D290034 		cntlzw 9,9
  61              	.LVL6:
  62 004c 5529D97E 		srwi 9,9,5
  63              		.loc 1 35 0
  64 0050 69230001 		xori 3,9,1
  65              	.LBE96:
  66              	.LBE95:
  67              	.LBE94:
  68              		.loc 1 47 0
  69 0054 4E800020 		blr
  70              		.cfi_endproc
  71              	.LFE1109:
  72              		.size	_ZN9IosLoader14IsWaninkokoIOSEi, .-_ZN9IosLoader14IsWaninkokoIOSEi
  73              		.align 2
  74              		.globl _ZN9IosLoader22ReloadIosKeepingRightsEi
  75              		.type	_ZN9IosLoader22ReloadIosKeepingRightsEi, @function
  76              	_ZN9IosLoader22ReloadIosKeepingRightsEi:
  77              	.LFB1113:
  78              		.loc 1 138 0
  79              		.cfi_startproc
  80              	.LVL7:
  81 0058 7C0802A6 		mflr 0
  82 005c 9421FFE8 		stwu 1,-24(1)
  83              	.LCFI0:
  84              		.cfi_def_cfa_offset 24
  85              		.cfi_register 65, 0
  86              	.LBB105:
  87              	.LBB106:
  88              	.LBB107:
  89              	.LBB108:
  90              		.file 2 "d:/devkitPro/libogc/include/ogc/machine/processor.h"
  91              		.loc 2 204 0
  92 0060 3D20CD80 		lis 9,0xcd80
  93              	.LBE108:
  94              	.LBE107:
  95              	.LBE106:
  96              	.LBE105:
  97              		.loc 1 138 0
  98 0064 93A1000C 		stw 29,12(1)
  99              	.LBB120:
 100              	.LBB117:
 101              	.LBB111:
 102              	.LBB109:
 103              		.loc 2 204 0
 104 0068 61290064 		ori 9,9,100
 105              	.LBE109:
 106              	.LBE111:
 107              	.LBE117:
 108              	.LBE120:
 109              		.loc 1 138 0
 110 006c 9001001C 		stw 0,28(1)
 111 0070 7C7D1B78 		mr 29,3
 112              		.cfi_offset 65, 4
 113              		.cfi_offset 29, -12
 114 0074 93C10010 		stw 30,16(1)
 115 0078 93E10014 		stw 31,20(1)
 116              	.LBB121:
 117              	.LBB118:
 118              	.LBB112:
 119              	.LBB110:
 120              		.loc 2 204 0
 121              	 # 204 "d:/devkitPro/libogc/include/ogc/machine/processor.h" 1
 122 007c 80090000 		lwz 0,0(9) ; sync
 122      7C0004AC 
 123              	 # 0 "" 2
 124              	.LVL8:
 125              	.LBE110:
 126              	.LBE112:
 127              		.loc 1 139 0
 128 0084 2F80FFFF 		cmpwi 7,0,-1
 129 0088 419E0028 		beq- 7,.L15
 130              		.cfi_offset 31, -4
 131              		.cfi_offset 30, -8
 132              	.LVL9:
 133              	.L11:
 134              	.LBE118:
 135              		.loc 1 170 0
 136 008c 7FA3EB78 		mr 3,29
 137 0090 48000001 		bl IOS_ReloadIOS
 138              	.LBE121:
 139              		.loc 1 171 0
 140 0094 8001001C 		lwz 0,28(1)
 141 0098 83A1000C 		lwz 29,12(1)
 142              	.LVL10:
 143 009c 7C0803A6 		mtlr 0
 144 00a0 83C10010 		lwz 30,16(1)
 145 00a4 83E10014 		lwz 31,20(1)
 146 00a8 38210018 		addi 1,1,24
 147              		.cfi_remember_state
 148              	.LCFI1:
 149              		.cfi_def_cfa_offset 0
 150              		.cfi_restore 31
 151              		.cfi_restore 30
 152              		.cfi_restore 29
 153 00ac 4E800020 		blr
 154              	.LVL11:
 155              	.L15:
 156              	.LCFI2:
 157              		.cfi_restore_state
 158              	.LBB122:
 159              	.LBB119:
 160              	.LBB113:
 161              	.LBB114:
 162              	.LBB115:
 163              		.loc 2 227 0
 164 00b0 3D20CD8B 		lis 9,0xcd8b
 165 00b4 38000002 		li 0,2
 166              	.LVL12:
 167 00b8 6129420A 		ori 9,9,16906
 168              	 # 227 "d:/devkitPro/libogc/include/ogc/machine/processor.h" 1
 169 00bc B0090000 		sth 0,0(9) ; eieio
 169      7C0006AC 
 170              	 # 0 "" 2
 171              	.LVL13:
 172 00c4 3FC00000 		lis 30,.LANCHOR0@ha
 173              		.loc 1 153 0
 174 00c8 3FE0939F 		lis 31,0x939f
 175 00cc 3BDE0000 		la 30,.LANCHOR0@l(30)
 176 00d0 48000014 		b .L13
 177              	.LVL14:
 178              	.L12:
 179              	.LBE115:
 180              	.LBE114:
 181              	.LBB116:
 182 00d4 3BFF0002 		addi 31,31,2
 183              	.LVL15:
 184 00d8 6FE06C60 		xoris 0,31,0x6c60
 185 00dc 2F808000 		cmpwi 7,0,-32768
 186 00e0 419EFFAC 		beq 7,.L11
 187              	.LVL16:
 188              	.L13:
 189              		.loc 1 155 0
 190 00e4 7FE3FB78 		mr 3,31
 191 00e8 7FC4F378 		mr 4,30
 192 00ec 38A0000E 		li 5,14
 193 00f0 48000001 		bl memcmp
 194 00f4 2F830000 		cmpwi 7,3,0
 195 00f8 409EFFDC 		bne+ 7,.L12
 196              		.loc 1 157 0
 197 00fc 3C600000 		lis 3,.LC0@ha
 198 0100 7FE4FB78 		mr 4,31
 199 0104 38630000 		la 3,.LC0@l(3)
 200 0108 4CC63182 		crxor 6,6,6
 201 010c 48000001 		bl gprintf
 202              		.loc 1 160 0
 203 0110 7FE3FB78 		mr 3,31
 204 0114 380023FF 		li 0,9215
 205              		.loc 1 163 0
 206 0118 38800002 		li 4,2
 207              		.loc 1 160 0
 208 011c B4030008 		sthu 0,8(3)
 209              		.loc 1 163 0
 210 0120 48000001 		bl DCFlushRange
 211              	.LBE116:
 212              	.LBE113:
 213              	.LBE119:
 214              		.loc 1 170 0
 215 0124 7FA3EB78 		mr 3,29
 216 0128 48000001 		bl IOS_ReloadIOS
 217              	.LBE122:
 218              		.loc 1 171 0
 219 012c 8001001C 		lwz 0,28(1)
 220 0130 83A1000C 		lwz 29,12(1)
 221              	.LVL17:
 222 0134 7C0803A6 		mtlr 0
 223 0138 83C10010 		lwz 30,16(1)
 224 013c 83E10014 		lwz 31,20(1)
 225 0140 38210018 		addi 1,1,24
 226              		.cfi_restore 29
 227              		.cfi_restore 30
 228              		.cfi_restore 31
 229              	.LCFI3:
 230              		.cfi_def_cfa_offset 0
 231 0144 4E800020 		blr
 232              		.cfi_endproc
 233              	.LFE1113:
 234              		.size	_ZN9IosLoader22ReloadIosKeepingRightsEi, .-_ZN9IosLoader22ReloadIosKeepingRightsEi
 235              		.align 2
 236              		.globl _ZN9IosLoader10GetIOSInfoEi
 237              		.type	_ZN9IosLoader10GetIOSInfoEi, @function
 238              	_ZN9IosLoader10GetIOSInfoEi:
 239              	.LFB1115:
 240              		.loc 1 226 0
 241              		.cfi_startproc
 242              		.cfi_personality 0,__gxx_personality_v0
 243              		.cfi_lsda 0,.LLSDA1115
 244              	.LVL18:
 245 0148 9421FFC0 		stwu 1,-64(1)
 246              	.LCFI4:
 247              		.cfi_def_cfa_offset 64
 248 014c 7C0802A6 		mflr 0
 249 0150 93A10034 		stw 29,52(1)
 250              	.LBB149:
 251              		.loc 1 227 0
 252 0154 3FA00000 		lis 29,.LANCHOR1@ha
 253              		.cfi_offset 29, -12
 254              		.cfi_register 65, 0
 255              	.LBE149:
 256              		.loc 1 226 0
 257 0158 90010044 		stw 0,68(1)
 258              	.LBB171:
 259              		.loc 1 227 0
 260 015c 801D0000 		lwz 0,.LANCHOR1@l(29)
 261              		.cfi_offset 65, 4
 262              	.LBE171:
 263              		.loc 1 226 0
 264 0160 81210000 		lwz 9,0(1)
 265              	.LBB172:
 266              		.loc 1 227 0
 267 0164 7F801800 		cmpw 7,0,3
 268              	.LBE172:
 269              		.loc 1 226 0
 270 0168 9361002C 		stw 27,44(1)
 271 016c 93810030 		stw 28,48(1)
 272 0170 7C7B1B78 		mr 27,3
 273              		.cfi_offset 28, -16
 274              		.cfi_offset 27, -20
 275 0174 93C10038 		stw 30,56(1)
 276              	.LBB173:
 277              		.loc 1 227 0
 278 0178 3FC00000 		lis 30,.LANCHOR2@ha
 279              		.cfi_offset 30, -8
 280              	.LBE173:
 281              		.loc 1 226 0
 282 017c 93E1003C 		stw 31,60(1)
 283 0180 7C3F0B78 		mr 31,1
 284              		.cfi_offset 31, -4
 285              	.LCFI5:
 286              		.cfi_def_cfa_register 31
 287 0184 93410028 		stw 26,40(1)
 288              		.loc 1 226 0
 289 0188 9521FFA0 		stwu 9,-96(1)
 290              	.LBB174:
 291              		.loc 1 227 0
 292 018c 807E0000 		lwz 3,.LANCHOR2@l(30)
 293              	.LVL19:
 294              	.LBE174:
 295              		.loc 1 226 0
 296 0190 3B810027 		addi 28,1,39
 297 0194 579C0034 		rlwinm 28,28,0,0,26
 298              	.LBB175:
 299              		.loc 1 227 0
 300 0198 419E018C 		beq- 7,.L38
 301              		.cfi_offset 26, -24
 302              		.loc 1 230 0
 303 019c 2F830000 		cmpwi 7,3,0
 304 01a0 419E0010 		beq- 7,.L19
 305              		.loc 1 232 0
 306 01a4 48000001 		bl free
 307              		.loc 1 233 0
 308 01a8 38000000 		li 0,0
 309 01ac 901E0000 		stw 0,.LANCHOR2@l(30)
 310              	.L19:
 311              		.loc 1 238 0
 312 01b0 7F7AFE70 		srawi 26,27,31
 313              		.loc 1 241 0
 314 01b4 7F64DB78 		mr 4,27
 315              		.loc 1 238 0
 316 01b8 635A0001 		ori 26,26,1
 317              	.LVL20:
 318              		.loc 1 241 0
 319 01bc 38BF0018 		addi 5,31,24
 320 01c0 7F43D378 		mr 3,26
 321              		.loc 1 236 0
 322 01c4 937D0000 		stw 27,.LANCHOR1@l(29)
 323              	.LEHB0:
 324              		.loc 1 241 0
 325 01c8 48000001 		bl ES_GetStoredTMDSize
 326              	.LVL21:
 327              		.loc 1 242 0
 328 01cc 2F830000 		cmpwi 7,3,0
 329 01d0 419C0194 		blt- 7,.L34
 330              	.LVL22:
 331              		.loc 1 245 0
 332 01d4 809F0018 		lwz 4,24(31)
 333 01d8 38600020 		li 3,32
 334              	.LVL23:
 335 01dc 3884001F 		addi 4,4,31
 336 01e0 54840034 		rlwinm 4,4,0,0,26
 337 01e4 48000001 		bl memalign
 338              	.LVL24:
 339              		.loc 1 246 0
 340 01e8 7C7D1B79 		mr. 29,3
 341 01ec 41820178 		beq- 0,.L34
 342              		.loc 1 249 0
 343 01f0 80DF0018 		lwz 6,24(31)
 344 01f4 7F43D378 		mr 3,26
 345              	.LVL25:
 346 01f8 7F64DB78 		mr 4,27
 347 01fc 7FA5EB78 		mr 5,29
 348 0200 48000001 		bl ES_GetStoredTMD
 349              	.LVL26:
 350              		.loc 1 250 0
 351 0204 2F830000 		cmpwi 7,3,0
 352 0208 419C018C 		blt- 7,.L39
 353              		.loc 1 256 0
 354 020c 891D01E7 		lbz 8,487(29)
 355 0210 3CA00000 		lis 5,.LC1@ha
 356 0214 38800040 		li 4,64
 357 0218 38A50030 		la 5,.LC1@l(5)
 358 021c 38C00001 		li 6,1
 359 0220 7F67DB78 		mr 7,27
 360 0224 7F83E378 		mr 3,28
 361              	.LVL27:
 362 0228 4CC63182 		crxor 6,6,6
 363 022c 48000001 		bl snprintf
 364              		.loc 1 258 0
 365 0230 7FA3EB78 		mr 3,29
 366 0234 48000001 		bl free
 367              		.loc 1 260 0
 368 0238 38000000 		li 0,0
 369              		.loc 1 263 0
 370 023c 7F84E378 		mr 4,28
 371 0240 38BF0009 		addi 5,31,9
 372 0244 387F000C 		addi 3,31,12
 373              		.loc 1 260 0
 374 0248 901F0014 		stw 0,20(31)
 375              	.LVL28:
 376              		.loc 1 261 0
 377 024c 901F0010 		stw 0,16(31)
 378              	.LVL29:
 379              		.loc 1 263 0
 380 0250 48000001 		bl _ZNSsC1EPKcRKSaIcE
 381              	.LEHE0:
 382 0254 387F000C 		addi 3,31,12
 383 0258 389F0014 		addi 4,31,20
 384 025c 38BF0010 		addi 5,31,16
 385              	.LEHB1:
 386 0260 48000001 		bl _ZN4Nand8LoadFileESsPPhPj
 387              	.LEHE1:
 388              	.LVL30:
 389              	.LBB150:
 390              	.LBB151:
 391              	.LBB152:
 392              	.LBB153:
 393              	.LBB154:
 394              	.LBB155:
 395              		.file 3 "d:\\devkitpro\\devkitppc\\bin\\../lib/gcc/powerpc-eabi/4.6.3/../../../../powerpc-eabi/inc
 396              		.loc 3 288 0
 397 0264 813F000C 		lwz 9,12(31)
 398              	.LBE155:
 399              	.LBE154:
 400              	.LBE153:
 401              	.LBB156:
 402              	.LBB157:
 403              		.loc 3 235 0
 404 0268 3D600000 		lis 11,_ZNSs4_Rep20_S_empty_rep_storageE@ha
 405 026c 380B0000 		la 0,_ZNSs4_Rep20_S_empty_rep_storageE@l(11)
 406              	.LBE157:
 407              	.LBE156:
 408              		.loc 3 534 0
 409 0270 3869FFF4 		addi 3,9,-12
 410              	.LVL31:
 411              	.LBB166:
 412              	.LBB164:
 413              		.loc 3 235 0
 414 0274 7F830000 		cmpw 7,3,0
 415 0278 409E012C 		bne- 7,.L40
 416              	.LVL32:
 417              	.L28:
 418              	.LBE164:
 419              	.LBE166:
 420              	.LBE152:
 421              	.LBE151:
 422              	.LBE150:
 423              		.loc 1 265 0 discriminator 1
 424 027c 813F0014 		lwz 9,20(31)
 425              		.loc 1 266 0 discriminator 1
 426 0280 38600000 		li 3,0
 427              		.loc 1 265 0 discriminator 1
 428 0284 2F890000 		cmpwi 7,9,0
 429 0288 419E003C 		beq- 7,.L18
 430              	.LVL33:
 431              		.loc 1 270 0
 432 028c 81690000 		lwz 11,0(9)
 433 0290 3C001EE7 		lis 0,0x1ee7
 434 0294 6000C105 		ori 0,0,49413
 435              		.loc 1 272 0
 436 0298 7D234B78 		mr 3,9
 437              		.loc 1 270 0
 438 029c 7F8B0000 		cmpw 7,11,0
 439 02a0 409E0050 		bne- 7,.L29
 440              		.loc 1 270 0 is_stmt 0 discriminator 1
 441 02a4 80090004 		lwz 0,4(9)
 442 02a8 2F800001 		cmpwi 7,0,1
 443 02ac 409E0044 		bne- 7,.L29
 444              		.loc 1 276 0 is_stmt 1
 445 02b0 38800030 		li 4,48
 446 02b4 48000001 		bl realloc
 447              	.LVL34:
 448              		.loc 1 277 0
 449 02b8 2C030000 		cmpwi 0,3,0
 450 02bc 4182009C 		beq- 0,.L41
 451              		.loc 1 280 0
 452 02c0 907E0000 		stw 3,.LANCHOR2@l(30)
 453              	.LVL35:
 454              	.L18:
 455              	.LBE175:
 456              		.loc 1 283 0
 457 02c4 397F0040 		addi 11,31,64
 458 02c8 800B0004 		lwz 0,4(11)
 459 02cc 834BFFE8 		lwz 26,-24(11)
 460              	.LVL36:
 461 02d0 7C0803A6 		mtlr 0
 462 02d4 836BFFEC 		lwz 27,-20(11)
 463              	.LVL37:
 464 02d8 838BFFF0 		lwz 28,-16(11)
 465 02dc 83ABFFF4 		lwz 29,-12(11)
 466              	.LVL38:
 467 02e0 83CBFFF8 		lwz 30,-8(11)
 468 02e4 83EBFFFC 		lwz 31,-4(11)
 469              		.cfi_remember_state
 470              	.LCFI6:
 471              		.cfi_def_cfa 11, 0
 472 02e8 7D615B78 		mr 1,11
 473              	.LCFI7:
 474              		.cfi_def_cfa_register 1
 475              		.cfi_restore 31
 476              		.cfi_restore 30
 477              		.cfi_restore 29
 478              		.cfi_restore 28
 479              		.cfi_restore 27
 480              		.cfi_restore 26
 481 02ec 4E800020 		blr
 482              	.LVL39:
 483              	.L29:
 484              	.LCFI8:
 485              		.cfi_restore_state
 486              	.LBB176:
 487              		.loc 1 272 0
 488 02f0 48000001 		bl free
 489              	.LVL40:
 490              	.LBE176:
 491              		.loc 1 283 0
 492 02f4 397F0040 		addi 11,31,64
 493 02f8 800B0004 		lwz 0,4(11)
 494              	.LBB177:
 495              		.loc 1 273 0
 496 02fc 38600000 		li 3,0
 497              	.LBE177:
 498              		.loc 1 283 0
 499 0300 834BFFE8 		lwz 26,-24(11)
 500              	.LVL41:
 501 0304 7C0803A6 		mtlr 0
 502 0308 836BFFEC 		lwz 27,-20(11)
 503              	.LVL42:
 504 030c 838BFFF0 		lwz 28,-16(11)
 505 0310 83ABFFF4 		lwz 29,-12(11)
 506              	.LVL43:
 507 0314 83CBFFF8 		lwz 30,-8(11)
 508 0318 83EBFFFC 		lwz 31,-4(11)
 509              		.cfi_remember_state
 510              	.LCFI9:
 511              		.cfi_def_cfa 11, 0
 512 031c 7D615B78 		mr 1,11
 513              		.cfi_restore 26
 514              		.cfi_restore 27
 515              		.cfi_restore 28
 516              		.cfi_restore 29
 517              		.cfi_restore 30
 518              		.cfi_restore 31
 519              	.LCFI10:
 520              		.cfi_def_cfa_register 1
 521 0320 4E800020 		blr
 522              	.LVL44:
 523              	.L38:
 524              	.LCFI11:
 525              		.cfi_restore_state
 526              	.LBB178:
 527              		.loc 1 227 0 discriminator 1
 528 0324 2F830000 		cmpwi 7,3,0
 529 0328 41BEFE88 		beq- 7,.L19
 530              	.LBE178:
 531              		.loc 1 283 0
 532 032c 397F0040 		addi 11,31,64
 533 0330 800B0004 		lwz 0,4(11)
 534 0334 834BFFE8 		lwz 26,-24(11)
 535 0338 7C0803A6 		mtlr 0
 536 033c 836BFFEC 		lwz 27,-20(11)
 537              	.LVL45:
 538 0340 838BFFF0 		lwz 28,-16(11)
 539 0344 83ABFFF4 		lwz 29,-12(11)
 540 0348 83CBFFF8 		lwz 30,-8(11)
 541 034c 83EBFFFC 		lwz 31,-4(11)
 542              		.cfi_remember_state
 543              	.LCFI12:
 544              		.cfi_def_cfa 11, 0
 545 0350 7D615B78 		mr 1,11
 546              		.cfi_restore 26
 547              		.cfi_restore 27
 548              		.cfi_restore 28
 549              		.cfi_restore 29
 550              		.cfi_restore 30
 551              		.cfi_restore 31
 552              	.LCFI13:
 553              		.cfi_def_cfa_register 1
 554 0354 4E800020 		blr
 555              	.LVL46:
 556              	.L41:
 557              	.LCFI14:
 558              		.cfi_restore_state
 559              	.LBB179:
 560              		.loc 1 278 0
 561 0358 807F0014 		lwz 3,20(31)
 562              	.LVL47:
 563              		.loc 1 280 0
 564 035c 907E0000 		stw 3,.LANCHOR2@l(30)
 565 0360 4BFFFF64 		b .L18
 566              	.LVL48:
 567              	.L34:
 568              	.LBE179:
 569              		.loc 1 283 0
 570 0364 397F0040 		addi 11,31,64
 571              	.LBB180:
 572              		.loc 1 247 0
 573 0368 38600000 		li 3,0
 574              	.LBE180:
 575              		.loc 1 283 0
 576 036c 800B0004 		lwz 0,4(11)
 577 0370 834BFFE8 		lwz 26,-24(11)
 578              	.LVL49:
 579 0374 7C0803A6 		mtlr 0
 580 0378 836BFFEC 		lwz 27,-20(11)
 581              	.LVL50:
 582 037c 838BFFF0 		lwz 28,-16(11)
 583 0380 83ABFFF4 		lwz 29,-12(11)
 584 0384 83CBFFF8 		lwz 30,-8(11)
 585 0388 83EBFFFC 		lwz 31,-4(11)
 586              		.cfi_remember_state
 587              	.LCFI15:
 588              		.cfi_def_cfa 11, 0
 589 038c 7D615B78 		mr 1,11
 590              		.cfi_restore 26
 591              		.cfi_restore 27
 592              		.cfi_restore 28
 593              		.cfi_restore 29
 594              		.cfi_restore 30
 595              		.cfi_restore 31
 596              	.LCFI16:
 597              		.cfi_def_cfa_register 1
 598 0390 4E800020 		blr
 599              	.LVL51:
 600              	.L39:
 601              	.LCFI17:
 602              		.cfi_restore_state
 603              	.LBB181:
 604              		.loc 1 252 0
 605 0394 7FA3EB78 		mr 3,29
 606              	.LVL52:
 607 0398 48000001 		bl free
 608              		.loc 1 253 0
 609 039c 38600000 		li 3,0
 610 03a0 4BFFFF24 		b .L18
 611              	.LVL53:
 612              	.L40:
 613              	.LBB170:
 614              	.LBB169:
 615              	.LBB168:
 616              	.LBB167:
 617              	.LBB165:
 618              	.LBB158:
 619              	.LBB159:
 620              	.LBB160:
 621              		.file 4 "d:\\devkitpro\\devkitppc\\bin\\../lib/gcc/powerpc-eabi/4.6.3/../../../../powerpc-eabi/inc
 622              		.loc 4 66 0
 623 03a4 8169FFFC 		lwz 11,-4(9)
 624              	.LVL54:
 625              	.LBE160:
 626              	.LBE159:
 627              	.LBE158:
 628              		.loc 3 240 0
 629 03a8 2F8B0000 		cmpwi 7,11,0
 630              	.LBB163:
 631              	.LBB162:
 632              	.LBB161:
 633              		.loc 4 67 0
 634 03ac 396BFFFF 		addi 11,11,-1
 635 03b0 9169FFFC 		stw 11,-4(9)
 636              	.LBE161:
 637              	.LBE162:
 638              	.LBE163:
 639              		.loc 3 240 0
 640 03b4 419DFEC8 		bgt+ 7,.L28
 641              		.loc 3 244 0
 642 03b8 389F0008 		addi 4,31,8
 643 03bc 48000001 		bl _ZNSs4_Rep10_M_destroyERKSaIcE
 644              	.LVL55:
 645 03c0 4BFFFEBC 		b .L28
 646              	.LVL56:
 647              	.L36:
 648 03c4 7C7E1B78 		mr 30,3
 649              	.LBE165:
 650              	.LBE167:
 651              	.LBE168:
 652              	.LBE169:
 653              	.LBE170:
 654              		.loc 1 263 0
 655 03c8 387F000C 		addi 3,31,12
 656 03cc 48000001 		bl _ZNSsD1Ev
 657 03d0 7FC3F378 		mr 3,30
 658              	.LEHB2:
 659 03d4 48000001 		bl _Unwind_Resume
 660              	.LEHE2:
 661              	.LBE181:
 662              		.cfi_endproc
 663              	.LFE1115:
 664              		.globl __gxx_personality_v0
 665              		.section	.gcc_except_table,"a",@progbits
 666              	.LLSDA1115:
 667 0000 FF       		.byte	0xff
 668 0001 FF       		.byte	0xff
 669 0002 01       		.byte	0x1
 670 0003 11       		.uleb128 .LLSDACSE1115-.LLSDACSB1115
 671              	.LLSDACSB1115:
 672 0004 8001     		.uleb128 .LEHB0-.LFB1115
 673 0006 8C01     		.uleb128 .LEHE0-.LEHB0
 674 0008 00       		.uleb128 0
 675 0009 00       		.uleb128 0
 676 000a 9802     		.uleb128 .LEHB1-.LFB1115
 677 000c 04       		.uleb128 .LEHE1-.LEHB1
 678 000d FC04     		.uleb128 .L36-.LFB1115
 679 000f 00       		.uleb128 0
 680 0010 8C05     		.uleb128 .LEHB2-.LFB1115
 681 0012 04       		.uleb128 .LEHE2-.LEHB2
 682 0013 00       		.uleb128 0
 683 0014 00       		.uleb128 0
 684              	.LLSDACSE1115:
 685              		.section	".text"
 686              		.size	_ZN9IosLoader10GetIOSInfoEi, .-_ZN9IosLoader10GetIOSInfoEi
 687              		.align 2
 688              		.globl _ZN9IosLoader14LoadIOSModulesEii
 689              		.type	_ZN9IosLoader14LoadIOSModulesEii, @function
 690              	_ZN9IosLoader14LoadIOSModulesEii:
 691              	.LFB1114:
 692              		.loc 1 177 0
 693              		.cfi_startproc
 694              	.LVL57:
 695 03d8 7C0802A6 		mflr 0
 696 03dc 9421FFE8 		stwu 1,-24(1)
 697              	.LCFI18:
 698              		.cfi_def_cfa_offset 24
 699              		.cfi_register 65, 0
 700 03e0 93E10014 		stw 31,20(1)
 701 03e4 7C7F1B78 		mr 31,3
 702              		.cfi_offset 31, -4
 703              	.LVL58:
 704 03e8 9001001C 		stw 0,28(1)
 705              	.LBB194:
 706              	.LBB195:
 707              		.loc 1 35 0
 708 03ec 3803FF22 		addi 0,3,-222
 709              		.cfi_offset 65, 4
 710 03f0 2B800003 		cmplwi 7,0,3
 711 03f4 409D007C 		ble- 7,.L43
 712              	.LVL59:
 713 03f8 2F8300CA 		cmpwi 7,3,202
 714 03fc 419E0074 		beq- 7,.L43
 715              	.LVL60:
 716              	.LBE195:
 717              	.LBE194:
 718              	.LBB196:
 719              	.LBB197:
 720              		.loc 1 43 0
 721 0400 3803FF38 		addi 0,3,-200
 722              	.LVL61:
 723 0404 2B800037 		cmplwi 7,0,55
 724 0408 419D00C4 		bgt- 7,.L42
 725              	.LVL62:
 726              	.LBE197:
 727              	.LBE196:
 728              	.LBB198:
 729              		.loc 1 206 0
 730 040c 90810008 		stw 4,8(1)
 731 0410 48000001 		bl _ZN4Nand7StartupEv
 732              	.LVL63:
 733              		.loc 1 208 0
 734 0414 7FE3FB78 		mr 3,31
 735 0418 48000001 		bl _ZN9IosLoader10GetIOSInfoEi
 736              	.LVL64:
 737              		.loc 1 209 0
 738 041c 80810008 		lwz 4,8(1)
 739 0420 2F840011 		cmpwi 7,4,17
 740 0424 409D00A8 		ble- 7,.L42
 741              		.loc 1 209 0 is_stmt 0 discriminator 1
 742 0428 2F830000 		cmpwi 7,3,0
 743 042c 419E0010 		beq- 7,.L47
 744              		.loc 1 209 0 discriminator 2
 745 0430 80030008 		lwz 0,8(3)
 746 0434 2B800005 		cmplwi 7,0,5
 747 0438 419D0094 		bgt- 7,.L42
 748              	.L47:
 749              		.loc 1 211 0 is_stmt 1
 750 043c 48000001 		bl mload_init
 751              	.LVL65:
 752 0440 2F830000 		cmpwi 7,3,0
 753 0444 419C0088 		blt- 7,.L42
 754              		.loc 1 213 0
 755 0448 3C600000 		lis 3,.LC4@ha
 756 044c 386300A0 		la 3,.LC4@l(3)
 757 0450 4CC63182 		crxor 6,6,6
 758 0454 48000001 		bl gprintf
 759              		.loc 1 214 0
 760 0458 3C600000 		lis 3,dip_plugin_249@ha
 761 045c 388014DC 		li 4,5340
 762 0460 38630000 		la 3,dip_plugin_249@l(3)
 763 0464 48000001 		bl mload_module
 764              		.loc 1 215 0
 765 0468 48000001 		bl mload_close
 766 046c 48000060 		b .L42
 767              	.LVL66:
 768              	.L43:
 769              	.LBE198:
 770              	.LBB199:
 771              		.loc 1 190 0
 772 0470 3C600000 		lis 3,.LC2@ha
 773              		.loc 1 192 0
 774 0474 3FE00000 		lis 31,ehcmodule_5@ha
 775              	.LVL67:
 776              		.loc 1 190 0
 777 0478 38630054 		la 3,.LC2@l(3)
 778              		.loc 1 192 0
 779 047c 3BFF0000 		la 31,ehcmodule_5@l(31)
 780              		.loc 1 190 0
 781 0480 4CC63182 		crxor 6,6,6
 782 0484 48000001 		bl gprintf
 783              	.LVL68:
 784              		.loc 1 192 0
 785 0488 7FE3FB78 		mr 3,31
 786 048c 388069FE 		li 4,27134
 787 0490 48000001 		bl search_for_ehcmodule_cfg
 788              	.LVL69:
 789              		.loc 1 193 0
 790 0494 2C030000 		cmpwi 0,3,0
 791 0498 4182001C 		beq- 0,.L45
 792              	.LVL70:
 793              		.loc 1 196 0
 794 049c 38000000 		li 0,0
 795 04a0 9803000C 		stb 0,12(3)
 796              		.loc 1 197 0
 797 04a4 3C600000 		lis 3,.LC3@ha
 798              	.LVL71:
 799 04a8 38630078 		la 3,.LC3@l(3)
 800 04ac 4CC63182 		crxor 6,6,6
 801 04b0 48000001 		bl gprintf
 802              	.L45:
 803              		.loc 1 200 0
 804 04b4 3CA00000 		lis 5,odip_frag@ha
 805 04b8 7FE3FB78 		mr 3,31
 806 04bc 388069FE 		li 4,27134
 807 04c0 38A50000 		la 5,odip_frag@l(5)
 808 04c4 38C023A0 		li 6,9120
 809 04c8 48000001 		bl load_modules
 810              	.LVL72:
 811              	.L42:
 812              	.LBE199:
 813              		.loc 1 219 0
 814 04cc 8001001C 		lwz 0,28(1)
 815 04d0 83E10014 		lwz 31,20(1)
 816 04d4 7C0803A6 		mtlr 0
 817 04d8 38210018 		addi 1,1,24
 818              	.LCFI19:
 819              		.cfi_def_cfa_offset 0
 820              		.cfi_restore 31
 821 04dc 4E800020 		blr
 822              		.cfi_endproc
 823              	.LFE1114:
 824              		.size	_ZN9IosLoader14LoadIOSModulesEii, .-_ZN9IosLoader14LoadIOSModulesEii
 825              		.align 2
 826              		.globl _ZN9IosLoader13ReloadIosSafeEi
 827              		.type	_ZN9IosLoader13ReloadIosSafeEi, @function
 828              	_ZN9IosLoader13ReloadIosSafeEi:
 829              	.LFB1112:
 830              		.loc 1 105 0
 831              		.cfi_startproc
 832              	.LVL73:
 833 04e0 9421FFE8 		stwu 1,-24(1)
 834              	.LCFI20:
 835              		.cfi_def_cfa_offset 24
 836 04e4 7C0802A6 		mflr 0
 837 04e8 93A1000C 		stw 29,12(1)
 838              	.LBB223:
 839              		.loc 1 106 0
 840 04ec 3FA00000 		lis 29,NandTitles@ha
 841              		.cfi_offset 29, -12
 842              		.cfi_register 65, 0
 843 04f0 3BBD0000 		la 29,NandTitles@l(29)
 844              	.LBE223:
 845              		.loc 1 105 0
 846 04f4 93E10014 		stw 31,20(1)
 847 04f8 7C7F1B78 		mr 31,3
 848              		.cfi_offset 31, -4
 849              	.LBB245:
 850              		.loc 1 106 0
 851 04fc 7FA3EB78 		mr 3,29
 852              	.LVL74:
 853              	.LBE245:
 854              		.loc 1 105 0
 855 0500 9001001C 		stw 0,28(1)
 856 0504 93C10010 		stw 30,16(1)
 857              	.LBB246:
 858              		.loc 1 106 0
 859              		.cfi_offset 30, -8
 860              		.cfi_offset 65, 4
 861 0508 48000001 		bl _ZN9NandTitle3GetEv
 862              	.LVL75:
 863              	.LBB224:
 864              	.LBB225:
 865              		.loc 1 35 0
 866 050c 381FFF22 		addi 0,31,-222
 867 0510 2B800003 		cmplwi 7,0,3
 868 0514 409D00A0 		ble- 7,.L51
 869 0518 2F9F00CA 		cmpwi 7,31,202
 870 051c 419E0098 		beq- 7,.L51
 871              	.LVL76:
 872              	.LBE225:
 873              	.LBE224:
 874              	.LBB226:
 875              	.LBB227:
 876              		.loc 1 43 0
 877 0520 381FFF38 		addi 0,31,-200
 878              		.loc 1 122 0
 879 0524 3BC0FFDF 		li 30,-33
 880              		.loc 1 43 0
 881 0528 2B800037 		cmplwi 7,0,55
 882 052c 419D0068 		bgt- 7,.L54
 883              	.LVL77:
 884              	.LBE227:
 885              	.LBE226:
 886              	.LBB228:
 887              		.loc 1 116 0
 888 0530 7FE5FE70 		srawi 5,31,31
 889 0534 7FA3EB78 		mr 3,29
 890 0538 60A50001 		ori 5,5,1
 891 053c 7FE6FB78 		mr 6,31
 892 0540 48000001 		bl _ZN9NandTitle9VersionOfEy
 893              	.LVL78:
 894              		.loc 1 117 0
 895 0544 3803FFF7 		addi 0,3,-9
 896 0548 2B807527 		cmplwi 7,0,29991
 897 054c 419D012C 		bgt- 7,.L66
 898              	.LVL79:
 899              	.L53:
 900              	.LBE228:
 901              	.LBB229:
 902              	.LBB230:
 903              	.LBB231:
 904              	.LBB232:
 905              	.LBB233:
 906              		.loc 2 204 0
 907 0550 3D20CD80 		lis 9,0xcd80
 908 0554 61290064 		ori 9,9,100
 909              	 # 204 "d:/devkitPro/libogc/include/ogc/machine/processor.h" 1
 910 0558 80090000 		lwz 0,0(9) ; sync
 910      7C0004AC 
 911              	 # 0 "" 2
 912              	.LVL80:
 913              	.LBE233:
 914              	.LBE232:
 915              		.loc 1 139 0
 916 0560 2F80FFFF 		cmpwi 7,0,-1
 917 0564 419E009C 		beq- 7,.L67
 918              	.LVL81:
 919              	.L55:
 920              	.LBE231:
 921              		.loc 1 170 0
 922 0568 7FE3FB78 		mr 3,31
 923 056c 48000001 		bl IOS_ReloadIOS
 924              	.LBE230:
 925              	.LBE229:
 926              		.loc 1 126 0
 927 0570 7C7E1B79 		mr. 30,3
 928 0574 41800008 		blt- 0,.L58
 929              		.loc 1 127 0
 930 0578 48000001 		bl WII_Initialize
 931              	.L58:
 932              		.loc 1 129 0
 933 057c 48000001 		bl IOS_GetVersion
 934 0580 7C7F1B78 		mr 31,3
 935              	.LVL82:
 936 0584 48000001 		bl IOS_GetRevision
 937 0588 7C641B78 		mr 4,3
 938 058c 7FE3FB78 		mr 3,31
 939 0590 48000001 		bl _ZN9IosLoader14LoadIOSModulesEii
 940              	.LVL83:
 941              	.L54:
 942              	.LBE246:
 943              		.loc 1 132 0
 944 0594 8001001C 		lwz 0,28(1)
 945 0598 7FC3F378 		mr 3,30
 946 059c 83A1000C 		lwz 29,12(1)
 947 05a0 7C0803A6 		mtlr 0
 948 05a4 83C10010 		lwz 30,16(1)
 949 05a8 83E10014 		lwz 31,20(1)
 950 05ac 38210018 		addi 1,1,24
 951              		.cfi_remember_state
 952              	.LCFI21:
 953              		.cfi_def_cfa_offset 0
 954              		.cfi_restore 31
 955              		.cfi_restore 30
 956              		.cfi_restore 29
 957 05b0 4E800020 		blr
 958              	.LVL84:
 959              	.L51:
 960              	.LCFI22:
 961              		.cfi_restore_state
 962              	.LBB247:
 963              	.LBB242:
 964              		.loc 1 110 0
 965 05b4 7FE5FE70 		srawi 5,31,31
 966 05b8 7FA3EB78 		mr 3,29
 967 05bc 60A50001 		ori 5,5,1
 968 05c0 7FE6FB78 		mr 6,31
 969 05c4 48000001 		bl _ZN9NandTitle9VersionOfEy
 970              	.LVL85:
 971              		.loc 1 111 0
 972 05c8 3803FFFC 		addi 0,3,-4
 973 05cc 2B800002 		cmplwi 7,0,2
 974 05d0 40BDFF80 		ble- 7,.L53
 975              		.loc 1 111 0 is_stmt 0 discriminator 1
 976 05d4 38000000 		li 0,0
 977              		.loc 1 112 0 is_stmt 1 discriminator 1
 978 05d8 3BC0FFF5 		li 30,-11
 979              		.loc 1 111 0 discriminator 1
 980 05dc 6000FFFF 		ori 0,0,65535
 981 05e0 7F830000 		cmpw 7,3,0
 982 05e4 40BEFFB0 		bne- 7,.L54
 983              	.LVL86:
 984              	.LBE242:
 985              	.LBB243:
 986              	.LBB241:
 987              	.LBB240:
 988              	.LBB235:
 989              	.LBB234:
 990              		.loc 2 204 0
 991 05e8 3D20CD80 		lis 9,0xcd80
 992 05ec 61290064 		ori 9,9,100
 993              	 # 204 "d:/devkitPro/libogc/include/ogc/machine/processor.h" 1
 994 05f0 80090000 		lwz 0,0(9) ; sync
 994      7C0004AC 
 995              	 # 0 "" 2
 996              	.LVL87:
 997              	.LBE234:
 998              	.LBE235:
 999              		.loc 1 139 0
 1000 05f8 2F80FFFF 		cmpwi 7,0,-1
 1001 05fc 409EFF6C 		bne+ 7,.L55
 1002              	.LVL88:
 1003              	.L67:
 1004              	.LBB236:
 1005              	.LBB237:
 1006              	.LBB238:
 1007              		.loc 2 227 0
 1008 0600 3D20CD8B 		lis 9,0xcd8b
 1009 0604 38000002 		li 0,2
 1010              	.LVL89:
 1011 0608 6129420A 		ori 9,9,16906
 1012              	 # 227 "d:/devkitPro/libogc/include/ogc/machine/processor.h" 1
 1013 060c B0090000 		sth 0,0(9) ; eieio
 1013      7C0006AC 
 1014              	 # 0 "" 2
 1015              	.LVL90:
 1016 0614 3FA00000 		lis 29,.LANCHOR0@ha
 1017              		.loc 1 153 0
 1018 0618 3FC0939F 		lis 30,0x939f
 1019 061c 3BBD0000 		la 29,.LANCHOR0@l(29)
 1020 0620 48000014 		b .L57
 1021              	.LVL91:
 1022              	.L56:
 1023              	.LBE238:
 1024              	.LBE237:
 1025              	.LBB239:
 1026 0624 3BDE0002 		addi 30,30,2
 1027              	.LVL92:
 1028 0628 6FC06C60 		xoris 0,30,0x6c60
 1029 062c 2F808000 		cmpwi 7,0,-32768
 1030 0630 419EFF38 		beq 7,.L55
 1031              	.LVL93:
 1032              	.L57:
 1033              		.loc 1 155 0
 1034 0634 7FC3F378 		mr 3,30
 1035 0638 7FA4EB78 		mr 4,29
 1036 063c 38A0000E 		li 5,14
 1037 0640 48000001 		bl memcmp
 1038 0644 2F830000 		cmpwi 7,3,0
 1039 0648 409EFFDC 		bne+ 7,.L56
 1040              		.loc 1 157 0
 1041 064c 3C600000 		lis 3,.LC0@ha
 1042 0650 7FC4F378 		mr 4,30
 1043 0654 38630000 		la 3,.LC0@l(3)
 1044 0658 4CC63182 		crxor 6,6,6
 1045 065c 48000001 		bl gprintf
 1046              		.loc 1 160 0
 1047 0660 7FC3F378 		mr 3,30
 1048 0664 380023FF 		li 0,9215
 1049              		.loc 1 163 0
 1050 0668 38800002 		li 4,2
 1051              		.loc 1 160 0
 1052 066c B4030008 		sthu 0,8(3)
 1053              		.loc 1 163 0
 1054 0670 48000001 		bl DCFlushRange
 1055 0674 4BFFFEF4 		b .L55
 1056              	.LVL94:
 1057              	.L66:
 1058              	.LBE239:
 1059              	.LBE236:
 1060              	.LBE240:
 1061              	.LBE241:
 1062              	.LBE243:
 1063              	.LBB244:
 1064              		.loc 1 117 0 discriminator 1
 1065 0678 38000000 		li 0,0
 1066              		.loc 1 118 0 discriminator 1
 1067 067c 3BC0FFEA 		li 30,-22
 1068              		.loc 1 117 0 discriminator 1
 1069 0680 6000FFFF 		ori 0,0,65535
 1070 0684 7F830000 		cmpw 7,3,0
 1071 0688 419EFEC8 		beq+ 7,.L53
 1072 068c 4BFFFF08 		b .L54
 1073              	.LBE244:
 1074              	.LBE247:
 1075              		.cfi_endproc
 1076              	.LFE1112:
 1077              		.size	_ZN9IosLoader13ReloadIosSafeEi, .-_ZN9IosLoader13ReloadIosSafeEi
 1078              		.align 2
 1079              		.globl _ZN9IosLoader11LoadAppCiosEv
 1080              		.type	_ZN9IosLoader11LoadAppCiosEv, @function
 1081              	_ZN9IosLoader11LoadAppCiosEv:
 1082              	.LFB1111:
 1083              		.loc 1 68 0
 1084              		.cfi_startproc
 1085 0690 9421FFC8 		stwu 1,-56(1)
 1086              	.LCFI23:
 1087              		.cfi_def_cfa_offset 56
 1088 0694 7C0802A6 		mflr 0
 1089 0698 93A1002C 		stw 29,44(1)
 1090              	.LBB248:
 1091              		.loc 1 73 0
 1092 069c 3FA00000 		lis 29,Settings@ha
 1093              		.cfi_offset 29, -12
 1094              		.cfi_register 65, 0
 1095 06a0 3BBD0000 		la 29,Settings@l(29)
 1096              	.LBE248:
 1097              		.loc 1 68 0
 1098 06a4 93C10030 		stw 30,48(1)
 1099 06a8 93E10034 		stw 31,52(1)
 1100 06ac 9001003C 		stw 0,60(1)
 1101              	.LBB255:
 1102              		.loc 1 69 0
 1103              		.cfi_offset 65, 4
 1104              		.cfi_offset 31, -4
 1105              		.cfi_offset 30, -8
 1106 06b0 48000001 		bl IOS_GetVersion
 1107              		.loc 1 73 0
 1108 06b4 ABFD0A0A 		lha 31,2570(29)
 1109              		.loc 1 69 0
 1110 06b8 7C7E1B78 		mr 30,3
 1111              	.LVL95:
 1112              		.loc 1 74 0
 1113 06bc 38600000 		li 3,0
 1114              	.LVL96:
 1115              		.loc 1 73 0
 1116 06c0 7F9EF800 		cmpw 7,30,31
 1117 06c4 419E00B4 		beq- 7,.L69
 1118              		.loc 1 76 0
 1119 06c8 380000F9 		li 0,249
 1120              	.LBB249:
 1121              	.LBB250:
 1122              		.loc 1 89 0
 1123 06cc 7FE3FB78 		mr 3,31
 1124              	.LBE250:
 1125              	.LBE249:
 1126              		.loc 1 76 0
 1127 06d0 9001000C 		stw 0,12(1)
 1128 06d4 380000FA 		li 0,250
 1129 06d8 90010010 		stw 0,16(1)
 1130 06dc 380000F7 		li 0,247
 1131 06e0 90010014 		stw 0,20(1)
 1132 06e4 380000F8 		li 0,248
 1133 06e8 90010018 		stw 0,24(1)
 1134              	.LVL97:
 1135              	.LBB253:
 1136              	.LBB251:
 1137              		.loc 1 89 0
 1138 06ec 48000001 		bl _ZN9IosLoader13ReloadIosSafeEi
 1139              	.LVL98:
 1140 06f0 2C030000 		cmpwi 0,3,0
 1141 06f4 408000A0 		bge- 0,.L70
 1142              	.LVL99:
 1143              		.loc 1 81 0
 1144 06f8 83E1000C 		lwz 31,12(1)
 1145              	.LVL100:
 1146              		.loc 1 85 0
 1147 06fc 38600000 		li 3,0
 1148              		.loc 1 83 0
 1149 0700 7F9EF800 		cmpw 7,30,31
 1150 0704 419E0074 		beq- 7,.L69
 1151              		.loc 1 89 0
 1152 0708 7FE3FB78 		mr 3,31
 1153 070c 48000001 		bl _ZN9IosLoader13ReloadIosSafeEi
 1154              	.LVL101:
 1155 0710 2C030000 		cmpwi 0,3,0
 1156 0714 40800080 		bge- 0,.L70
 1157              	.LVL102:
 1158              		.loc 1 81 0
 1159 0718 83E10010 		lwz 31,16(1)
 1160              	.LVL103:
 1161              		.loc 1 85 0
 1162 071c 38600000 		li 3,0
 1163              		.loc 1 83 0
 1164 0720 7F9EF800 		cmpw 7,30,31
 1165 0724 419E0054 		beq- 7,.L69
 1166              		.loc 1 89 0
 1167 0728 7FE3FB78 		mr 3,31
 1168 072c 48000001 		bl _ZN9IosLoader13ReloadIosSafeEi
 1169              	.LVL104:
 1170 0730 2C030000 		cmpwi 0,3,0
 1171 0734 40800060 		bge- 0,.L70
 1172              	.LVL105:
 1173              		.loc 1 81 0
 1174 0738 83E10014 		lwz 31,20(1)
 1175              	.LVL106:
 1176              		.loc 1 85 0
 1177 073c 38600000 		li 3,0
 1178              		.loc 1 83 0
 1179 0740 7F9EF800 		cmpw 7,30,31
 1180 0744 419E0034 		beq- 7,.L69
 1181              		.loc 1 89 0
 1182 0748 7FE3FB78 		mr 3,31
 1183 074c 48000001 		bl _ZN9IosLoader13ReloadIosSafeEi
 1184              	.LVL107:
 1185 0750 2C030000 		cmpwi 0,3,0
 1186 0754 40800040 		bge- 0,.L70
 1187              	.LVL108:
 1188              		.loc 1 81 0
 1189 0758 83E10018 		lwz 31,24(1)
 1190              	.LVL109:
 1191              		.loc 1 85 0
 1192 075c 38600000 		li 3,0
 1193              		.loc 1 83 0
 1194 0760 7F9EF800 		cmpw 7,30,31
 1195 0764 419E0014 		beq- 7,.L69
 1196              		.loc 1 89 0
 1197 0768 7FE3FB78 		mr 3,31
 1198 076c 48000001 		bl _ZN9IosLoader13ReloadIosSafeEi
 1199              	.LVL110:
 1200 0770 2C030000 		cmpwi 0,3,0
 1201 0774 40800020 		bge- 0,.L70
 1202              	.LVL111:
 1203              	.L69:
 1204              	.LBE251:
 1205              	.LBE253:
 1206              	.LBE255:
 1207              		.loc 1 98 0
 1208 0778 8001003C 		lwz 0,60(1)
 1209 077c 83A1002C 		lwz 29,44(1)
 1210 0780 7C0803A6 		mtlr 0
 1211 0784 83C10030 		lwz 30,48(1)
 1212              	.LVL112:
 1213 0788 83E10034 		lwz 31,52(1)
 1214 078c 38210038 		addi 1,1,56
 1215              		.cfi_remember_state
 1216              	.LCFI24:
 1217              		.cfi_def_cfa_offset 0
 1218              		.cfi_restore 31
 1219              		.cfi_restore 30
 1220              		.cfi_restore 29
 1221 0790 4E800020 		blr
 1222              	.LVL113:
 1223              	.L70:
 1224              	.LCFI25:
 1225              		.cfi_restore_state
 1226              	.LBB256:
 1227              	.LBB254:
 1228              	.LBB252:
 1229              		.loc 1 92 0
 1230 0794 B3FD0A0A 		sth 31,2570(29)
 1231              		.loc 1 93 0
 1232 0798 4BFFFFE0 		b .L69
 1233              	.LBE252:
 1234              	.LBE254:
 1235              	.LBE256:
 1236              		.cfi_endproc
 1237              	.LFE1111:
 1238              		.size	_ZN9IosLoader11LoadAppCiosEv, .-_ZN9IosLoader11LoadAppCiosEv
 1239              		.align 2
 1240              		.globl _ZN9IosLoader5IsD2XEi
 1241              		.type	_ZN9IosLoader5IsD2XEi, @function
 1242              	_ZN9IosLoader5IsD2XEi:
 1243              	.LFB1110:
 1244              		.loc 1 53 0
 1245              		.cfi_startproc
 1246              	.LVL114:
 1247 079c 7C0802A6 		mflr 0
 1248 07a0 9421FFF8 		stwu 1,-8(1)
 1249              	.LCFI26:
 1250              		.cfi_def_cfa_offset 8
 1251              		.cfi_register 65, 0
 1252 07a4 9001000C 		stw 0,12(1)
 1253              	.LBB257:
 1254              		.loc 1 54 0
 1255              		.cfi_offset 65, 4
 1256 07a8 48000001 		bl _ZN9IosLoader10GetIOSInfoEi
 1257              	.LVL115:
 1258              		.loc 1 55 0
 1259 07ac 7C691B79 		mr. 9,3
 1260              		.loc 1 56 0
 1261 07b0 38600000 		li 3,0
 1262              	.LVL116:
 1263              		.loc 1 55 0
 1264 07b4 41820020 		beq- 0,.L78
 1265              		.loc 1 58 0
 1266 07b8 3C800000 		lis 4,.LC5@ha
 1267 07bc 38690010 		addi 3,9,16
 1268 07c0 388400CC 		la 4,.LC5@l(4)
 1269 07c4 38A00003 		li 5,3
 1270 07c8 48000001 		bl strncasecmp
 1271              	.LVL117:
 1272 07cc 7C630034 		cntlzw 3,3
 1273 07d0 5463D97E 		srwi 3,3,5
 1274              	.LVL118:
 1275              	.L78:
 1276              	.LBE257:
 1277              		.loc 1 61 0
 1278 07d4 8001000C 		lwz 0,12(1)
 1279 07d8 38210008 		addi 1,1,8
 1280              	.LCFI27:
 1281              		.cfi_def_cfa_offset 0
 1282 07dc 7C0803A6 		mtlr 0
 1283 07e0 4E800020 		blr
 1284              		.cfi_endproc
 1285              	.LFE1110:
 1286              		.size	_ZN9IosLoader5IsD2XEi, .-_ZN9IosLoader5IsD2XEi
 1287              		.section	.rodata
 1288              		.align 2
 1289              		.set	.LANCHOR0,. + 0
 1290              		.type	_ZZN9IosLoader22ReloadIosKeepingRightsEiE12ticket_check, @object
 1291              		.size	_ZZN9IosLoader22ReloadIosKeepingRightsEiE12ticket_check, 14
 1292              	_ZZN9IosLoader22ReloadIosKeepingRightsEiE12ticket_check:
 1293 0000 685B     		.short	26715
 1294 0002 22EC     		.short	8940
 1295 0004 0052     		.short	82
 1296 0006 189B     		.short	6299
 1297 0008 681B     		.short	26651
 1298 000a 4698     		.short	18072
 1299 000c 07DB     		.short	2011
 1300              		.section	".data"
 1301              		.align 2
 1302              		.set	.LANCHOR1,. + 0
 1303              		.type	_ZL10currentIOS, @object
 1304              		.size	_ZL10currentIOS, 4
 1305              	_ZL10currentIOS:
 1306 0000 FFFFFFFF 		.long	-1
 1307              		.section	.rodata.str1.4,"aMS",@progbits,1
 1308              		.align 2
 1309              	.LC0:
 1310 0000 52656C6F 		.string	"ReloadIos: Found TMD access rights check at %p\n"
 1310      6164496F 
 1310      733A2046 
 1310      6F756E64 
 1310      20544D44 
 1311              	.LC1:
 1312 0030 2F746974 		.string	"/title/%08x/%08x/content/%08x.app"
 1312      6C652F25 
 1312      3038782F 
 1312      25303878 
 1312      2F636F6E 
 1313 0052 0000     		.zero	2
 1314              	.LC2:
 1315 0054 4C6F6164 		.string	"Loading ehc v5 and opendip module\n"
 1315      696E6720 
 1315      65686320 
 1315      76352061 
 1315      6E64206F 
 1316 0077 00       		.zero	1
 1317              	.LC3:
 1318 0078 50617463 		.string	"Patched ehc module to use usb port 0.\n"
 1318      68656420 
 1318      65686320 
 1318      6D6F6475 
 1318      6C652074 
 1319 009f 00       		.zero	1
 1320              	.LC4:
 1321 00a0 4C6F6164 		.string	"Loading dip module for Waninkoko's cios\n"
 1321      696E6720 
 1321      64697020 
 1321      6D6F6475 
 1321      6C652066 
 1322 00c9 000000   		.zero	3
 1323              	.LC5:
 1324 00cc 64327800 		.string	"d2x"
 1325              		.section	".bss"
 1326              		.align 2
 1327              		.set	.LANCHOR2,. + 0
 1328              		.type	_ZL14currentIOSInfo, @object
 1329              		.size	_ZL14currentIOSInfo, 4
 1330              	_ZL14currentIOSInfo:
 1331 0000 00000000 		.zero	4
 1332              		.section	".text"
 1333              	.Letext0:
 1334              		.file 5 "d:\\devkitpro\\devkitppc\\bin\\../lib/gcc/powerpc-eabi/4.6.3/../../../../powerpc-eabi/inc
 1335              		.file 6 "d:/devkitPro/libogc/include/gctypes.h"
 1336              		.file 7 "d:/devkitPro/libogc/include/ogc/gx.h"
 1337              		.file 8 "d:\\devkitpro\\devkitppc\\bin\\../lib/gcc/powerpc-eabi/4.6.3/../../../../powerpc-eabi/inc
 1338              		.file 9 "d:\\devkitpro\\devkitppc\\bin\\../lib/gcc/powerpc-eabi/4.6.3/../../../../powerpc-eabi/inc
 1339              		.file 10 "d:\\devkitpro\\devkitppc\\bin\\../lib/gcc/powerpc-eabi/4.6.3/include/stddef.h"
 1340              		.file 11 "d:\\devkitpro\\devkitppc\\bin\\../lib/gcc/powerpc-eabi/4.6.3/../../../../powerpc-eabi/in
 1341              		.file 12 "d:\\devkitpro\\devkitppc\\bin\\../lib/gcc/powerpc-eabi/4.6.3/../../../../powerpc-eabi/in
 1342              		.file 13 "d:\\devkitpro\\devkitppc\\bin\\../lib/gcc/powerpc-eabi/4.6.3/../../../../powerpc-eabi/in
 1343              		.file 14 "d:/devkitPro/libogc/include/ogc/es.h"
 1344              		.file 15 "d:/Projects/SaveGameManager/savegame-manager-gx/trunk/source/System/IosLoader.h"
 1345              		.file 16 "d:\\devkitpro\\devkitppc\\bin\\../lib/gcc/powerpc-eabi/4.6.3/../../../../powerpc-eabi/in
 1346              		.file 17 "d:\\devkitpro\\devkitppc\\bin\\../lib/gcc/powerpc-eabi/4.6.3/../../../../powerpc-eabi/in
 1347              		.file 18 "d:\\devkitpro\\devkitppc\\bin\\../lib/gcc/powerpc-eabi/4.6.3/../../../../powerpc-eabi/in
 1348              		.file 19 "d:\\devkitpro\\devkitppc\\bin\\../lib/gcc/powerpc-eabi/4.6.3/../../../../powerpc-eabi/in
 1349              		.file 20 "d:\\devkitpro\\devkitppc\\bin\\../lib/gcc/powerpc-eabi/4.6.3/../../../../powerpc-eabi/in
 1350              		.file 21 "d:\\devkitpro\\devkitppc\\bin\\../lib/gcc/powerpc-eabi/4.6.3/../../../../powerpc-eabi/in
 1351              		.file 22 "d:\\devkitpro\\devkitppc\\bin\\../lib/gcc/powerpc-eabi/4.6.3/../../../../powerpc-eabi/in
 1352              		.file 23 "d:\\devkitpro\\devkitppc\\bin\\../lib/gcc/powerpc-eabi/4.6.3/../../../../powerpc-eabi/in
 1353              		.file 24 "d:\\devkitpro\\devkitppc\\bin\\../lib/gcc/powerpc-eabi/4.6.3/../../../../powerpc-eabi/in
 1354              		.file 25 "d:\\devkitpro\\devkitppc\\bin\\../lib/gcc/powerpc-eabi/4.6.3/../../../../powerpc-eabi/in
 1355              		.file 26 "d:\\devkitpro\\devkitppc\\bin\\../lib/gcc/powerpc-eabi/4.6.3/../../../../powerpc-eabi/in
 1356              		.file 27 "<built-in>"
 1357              		.file 28 "d:\\devkitpro\\devkitppc\\bin\\../lib/gcc/powerpc-eabi/4.6.3/../../../../powerpc-eabi/in
 1358              		.file 29 "d:\\devkitpro\\devkitppc\\bin\\../lib/gcc/powerpc-eabi/4.6.3/../../../../powerpc-eabi/in
 1359              		.file 30 "d:\\devkitpro\\devkitppc\\bin\\../lib/gcc/powerpc-eabi/4.6.3/../../../../powerpc-eabi/in
 1360              		.file 31 "d:\\devkitpro\\devkitppc\\bin\\../lib/gcc/powerpc-eabi/4.6.3/../../../../powerpc-eabi/in
 1361              		.file 32 "d:\\devkitpro\\devkitppc\\bin\\../lib/gcc/powerpc-eabi/4.6.3/../../../../powerpc-eabi/in
 1362              		.file 33 "d:\\devkitpro\\devkitppc\\bin\\../lib/gcc/powerpc-eabi/4.6.3/../../../../powerpc-eabi/in
 1363              		.file 34 "d:/Projects/SaveGameManager/savegame-manager-gx/trunk/source/System/../Settings/../FileO
 1364              		.file 35 "d:/Projects/SaveGameManager/savegame-manager-gx/trunk/source/System/../Settings/../Contr
 1365              		.file 36 "d:/Projects/SaveGameManager/savegame-manager-gx/trunk/source/System/../Settings/CSetting
 1366              		.file 37 "d:\\devkitpro\\devkitppc\\bin\\../lib/gcc/powerpc-eabi/4.6.3/../../../../powerpc-eabi/in
 1367              		.file 38 "d:\\devkitpro\\devkitppc\\bin\\../lib/gcc/powerpc-eabi/4.6.3/../../../../powerpc-eabi/in
 1368              		.file 39 "d:\\devkitpro\\devkitppc\\bin\\../lib/gcc/powerpc-eabi/4.6.3/../../../../powerpc-eabi/in
 1369              		.file 40 "d:/Projects/SaveGameManager/savegame-manager-gx/trunk/source/System/nandtitle.h"
 1370              		.file 41 "d:/Projects/SaveGameManager/savegame-manager-gx/trunk/source/System/../DeviceControls/De
 1371              		.file 42 "d:/Projects/SaveGameManager/savegame-manager-gx/trunk/source/System/../Mload/modules/ehc
 1372              		.file 43 "d:/Projects/SaveGameManager/savegame-manager-gx/trunk/source/System/../Mload/modules/dip
 1373              		.file 44 "d:/Projects/SaveGameManager/savegame-manager-gx/trunk/source/System/../Mload/modules/odi