   1              		.file	"KeyboardWindow.cpp"
   2              		.section	".text"
   3              	.Ltext0:
   4              		.section	.text._ZN7sigslot15single_threadedD2Ev,"axG",@progbits,_ZN7sigslot15single_threadedD5Ev,c
   5              		.align 2
   6              		.weak	_ZN7sigslot15single_threadedD2Ev
   7              		.type	_ZN7sigslot15single_threadedD2Ev, @function
   8              	_ZN7sigslot15single_threadedD2Ev:
   9              	.LFB1148:
  10              		.file 1 "d:/Projects/SaveGameManager/savegame-manager-gx/trunk/source/Prompts/../GUI/../sigslot.h"
  11              		.loc 1 104 0
  12              		.cfi_startproc
  13              	.LVL0:
  14              	.LBB2287:
  15              		.loc 1 105 0
  16 0000 3D200000 		lis 9,_ZTVN7sigslot15single_threadedE+8@ha
  17              	.LBE2287:
  18              		.loc 1 107 0
  19              	.LBB2288:
  20              		.loc 1 105 0
  21 0004 38090008 		la 0,_ZTVN7sigslot15single_threadedE+8@l(9)
  22 0008 90030000 		stw 0,0(3)
  23              	.LBE2288:
  24              		.loc 1 107 0
  25 000c 4E800020 		blr
  26              		.cfi_endproc
  27              	.LFE1148:
  28              		.size	_ZN7sigslot15single_threadedD2Ev, .-_ZN7sigslot15single_threadedD2Ev
  29              		.section	.text._ZN7sigslot15single_threaded4lockEv,"axG",@progbits,_ZN7sigslot15single_threaded4lo
  30              		.align 2
  31              		.weak	_ZN7sigslot15single_threaded4lockEv
  32              		.type	_ZN7sigslot15single_threaded4lockEv, @function
  33              	_ZN7sigslot15single_threaded4lockEv:
  34              	.LFB1151:
  35              		.loc 1 109 0
  36              		.cfi_startproc
  37              	.LVL1:
  38              		.loc 1 112 0
  39 0000 4E800020 		blr
  40              		.cfi_endproc
  41              	.LFE1151:
  42              		.size	_ZN7sigslot15single_threaded4lockEv, .-_ZN7sigslot15single_threaded4lockEv
  43              		.section	.text._ZN7sigslot15single_threaded6unlockEv,"axG",@progbits,_ZN7sigslot15single_threaded6
  44              		.align 2
  45              		.weak	_ZN7sigslot15single_threaded6unlockEv
  46              		.type	_ZN7sigslot15single_threaded6unlockEv, @function
  47              	_ZN7sigslot15single_threaded6unlockEv:
  48              	.LFB1152:
  49              		.loc 1 114 0
  50              		.cfi_startproc
  51              	.LVL2:
  52              		.loc 1 117 0
  53 0000 4E800020 		blr
  54              		.cfi_endproc
  55              	.LFE1152:
  56              		.size	_ZN7sigslot15single_threaded6unlockEv, .-_ZN7sigslot15single_threaded6unlockEv
  57              		.section	.text._ZN10GuiElement9SetParentEPS_,"axG",@progbits,_ZN10GuiElement9SetParentEPS_,comdat
  58              		.align 2
  59              		.weak	_ZN10GuiElement9SetParentEPS_
  60              		.type	_ZN10GuiElement9SetParentEPS_, @function
  61              	_ZN10GuiElement9SetParentEPS_:
  62              	.LFB1384:
  63              		.file 2 "d:/Projects/SaveGameManager/savegame-manager-gx/trunk/source/Prompts/../GUI/gui_element.h
  64              		.loc 2 92 0
  65              		.cfi_startproc
  66              	.LVL3:
  67              		.loc 2 92 0
  68 0000 90830060 		stw 4,96(3)
  69 0004 4E800020 		blr
  70              		.cfi_endproc
  71              	.LFE1384:
  72              		.size	_ZN10GuiElement9SetParentEPS_, .-_ZN10GuiElement9SetParentEPS_
  73              		.section	.text._ZN10GuiElement9GetParentEv,"axG",@progbits,_ZN10GuiElement9GetParentEv,comdat
  74              		.align 2
  75              		.weak	_ZN10GuiElement9GetParentEv
  76              		.type	_ZN10GuiElement9GetParentEv, @function
  77              	_ZN10GuiElement9GetParentEv:
  78              	.LFB1385:
  79              		.loc 2 95 0
  80              		.cfi_startproc
  81              	.LVL4:
  82              		.loc 2 95 0
  83 0000 80630060 		lwz 3,96(3)
  84              	.LVL5:
  85 0004 4E800020 		blr
  86              		.cfi_endproc
  87              	.LFE1385:
  88              		.size	_ZN10GuiElement9GetParentEv, .-_ZN10GuiElement9GetParentEv
  89              		.section	.text._ZN10GuiElement12GetZPositionEv,"axG",@progbits,_ZN10GuiElement12GetZPositionEv,com
  90              		.align 2
  91              		.weak	_ZN10GuiElement12GetZPositionEv
  92              		.type	_ZN10GuiElement12GetZPositionEv, @function
  93              	_ZN10GuiElement12GetZPositionEv:
  94              	.LFB1386:
  95              		.loc 2 106 0
  96              		.cfi_startproc
  97              	.LVL6:
  98 0000 7C0802A6 		mflr 0
  99 0004 9421FFF0 		stwu 1,-16(1)
 100              	.LCFI0:
 101              		.cfi_def_cfa_offset 16
 102              		.cfi_register 65, 0
 103 0008 93E1000C 		stw 31,12(1)
 104 000c 7C7F1B78 		mr 31,3
 105              		.cfi_offset 31, -4
 106 0010 90010014 		stw 0,20(1)
 107              	.LBB2289:
 108              		.loc 2 110 0
 109 0014 81630060 		lwz 11,96(3)
 110              		.loc 2 108 0
 111 0018 38600000 		li 3,0
 112              	.LVL7:
 113              		.loc 2 110 0
 114 001c 2F8B0000 		cmpwi 7,11,0
 115 0020 419E0018 		beq- 7,.L8
 116              		.cfi_offset 65, 4
 117              		.loc 2 111 0
 118 0024 812B0000 		lwz 9,0(11)
 119 0028 7D635B78 		mr 3,11
 120 002c 80090018 		lwz 0,24(9)
 121 0030 7C0903A6 		mtctr 0
 122 0034 4E800421 		bctrl
 123              	.LVL8:
 124              	.L8:
 125              		.loc 2 113 0
 126 0038 801F0034 		lwz 0,52(31)
 127              	.LBE2289:
 128              		.loc 2 114 0
 129 003c 83E1000C 		lwz 31,12(1)
 130              	.LVL9:
 131 0040 7C630214 		add 3,3,0
 132              	.LVL10:
 133 0044 80010014 		lwz 0,20(1)
 134 0048 38210010 		addi 1,1,16
 135              	.LCFI1:
 136              		.cfi_def_cfa_offset 0
 137              		.cfi_restore 31
 138 004c 7C0803A6 		mtlr 0
 139 0050 4E800020 		blr
 140              		.cfi_endproc
 141              	.LFE1386:
 142              		.size	_ZN10GuiElement12GetZPositionEv, .-_ZN10GuiElement12GetZPositionEv
 143              		.section	.text._ZN10GuiElement10GetLeftPosEv,"axG",@progbits,_ZN10GuiElement10GetLeftPosEv,comdat
 144              		.align 2
 145              		.weak	_ZN10GuiElement10GetLeftPosEv
 146              		.type	_ZN10GuiElement10GetLeftPosEv, @function
 147              	_ZN10GuiElement10GetLeftPosEv:
 148              	.LFB1387:
 149              		.loc 2 116 0
 150              		.cfi_startproc
 151              	.LVL11:
 152              		.loc 2 116 0
 153 0000 8063002C 		lwz 3,44(3)
 154              	.LVL12:
 155 0004 4E800020 		blr
 156              		.cfi_endproc
 157              	.LFE1387:
 158              		.size	_ZN10GuiElement10GetLeftPosEv, .-_ZN10GuiElement10GetLeftPosEv
 159              		.section	.text._ZN10GuiElement9GetTopPosEv,"axG",@progbits,_ZN10GuiElement9GetTopPosEv,comdat
 160              		.align 2
 161              		.weak	_ZN10GuiElement9GetTopPosEv
 162              		.type	_ZN10GuiElement9GetTopPosEv, @function
 163              	_ZN10GuiElement9GetTopPosEv:
 164              	.LFB1388:
 165              		.loc 2 118 0
 166              		.cfi_startproc
 167              	.LVL13:
 168              		.loc 2 118 0
 169 0000 80630030 		lwz 3,48(3)
 170              	.LVL14:
 171 0004 4E800020 		blr
 172              		.cfi_endproc
 173              	.LFE1388:
 174              		.size	_ZN10GuiElement9GetTopPosEv, .-_ZN10GuiElement9GetTopPosEv
 175              		.section	.text._ZN10GuiElement8GetWidthEv,"axG",@progbits,_ZN10GuiElement8GetWidthEv,comdat
 176              		.align 2
 177              		.weak	_ZN10GuiElement8GetWidthEv
 178              		.type	_ZN10GuiElement8GetWidthEv, @function
 179              	_ZN10GuiElement8GetWidthEv:
 180              	.LFB1389:
 181              		.loc 2 121 0
 182              		.cfi_startproc
 183              	.LVL15:
 184              		.loc 2 121 0
 185 0000 80630024 		lwz 3,36(3)
 186              	.LVL16:
 187 0004 4E800020 		blr
 188              		.cfi_endproc
 189              	.LFE1389:
 190              		.size	_ZN10GuiElement8GetWidthEv, .-_ZN10GuiElement8GetWidthEv
 191              		.section	.text._ZN10GuiElement9GetHeightEv,"axG",@progbits,_ZN10GuiElement9GetHeightEv,comdat
 192              		.align 2
 193              		.weak	_ZN10GuiElement9GetHeightEv
 194              		.type	_ZN10GuiElement9GetHeightEv, @function
 195              	_ZN10GuiElement9GetHeightEv:
 196              	.LFB1390:
 197              		.loc 2 124 0
 198              		.cfi_startproc
 199              	.LVL17:
 200              		.loc 2 124 0
 201 0000 80630028 		lwz 3,40(3)
 202              	.LVL18:
 203 0004 4E800020 		blr
 204              		.cfi_endproc
 205              	.LFE1390:
 206              		.size	_ZN10GuiElement9GetHeightEv, .-_ZN10GuiElement9GetHeightEv
 207              		.section	.text._ZN10GuiElement7SetSizeEii,"axG",@progbits,_ZN10GuiElement7SetSizeEii,comdat
 208              		.align 2
 209              		.weak	_ZN10GuiElement7SetSizeEii
 210              		.type	_ZN10GuiElement7SetSizeEii, @function
 211              	_ZN10GuiElement7SetSizeEii:
 212              	.LFB1391:
 213              		.loc 2 128 0
 214              		.cfi_startproc
 215              	.LVL19:
 216              		.loc 2 130 0
 217 0000 90830024 		stw 4,36(3)
 218              		.loc 2 132 0
 219              		.loc 2 131 0
 220 0004 90A30028 		stw 5,40(3)
 221              		.loc 2 132 0
 222 0008 4E800020 		blr
 223              		.cfi_endproc
 224              	.LFE1391:
 225              		.size	_ZN10GuiElement7SetSizeEii, .-_ZN10GuiElement7SetSizeEii
 226              		.section	.text._ZN10GuiElement9IsVisibleEv,"axG",@progbits,_ZN10GuiElement9IsVisibleEv,comdat
 227              		.align 2
 228              		.weak	_ZN10GuiElement9IsVisibleEv
 229              		.type	_ZN10GuiElement9IsVisibleEv, @function
 230              	_ZN10GuiElement9IsVisibleEv:
 231              	.LFB1393:
 232              		.loc 2 142 0
 233              		.cfi_startproc
 234              	.LVL20:
 235              		.loc 2 142 0
 236 0000 8863001D 		lbz 3,29(3)
 237              	.LVL21:
 238 0004 4E800020 		blr
 239              		.cfi_endproc
 240              	.LFE1393:
 241              		.size	_ZN10GuiElement9IsVisibleEv, .-_ZN10GuiElement9IsVisibleEv
 242              		.section	.text._ZN10GuiElement12IsSelectableEv,"axG",@progbits,_ZN10GuiElement12IsSelectableEv,com
 243              		.align 2
 244              		.weak	_ZN10GuiElement12IsSelectableEv
 245              		.type	_ZN10GuiElement12IsSelectableEv, @function
 246              	_ZN10GuiElement12IsSelectableEv:
 247              	.LFB1394:
 248              		.loc 2 145 0
 249              		.cfi_startproc
 250              	.LVL22:
 251              		.loc 2 149 0
 252 0000 80030048 		lwz 0,72(3)
 253 0004 39200000 		li 9,0
 254 0008 2F800004 		cmpwi 7,0,4
 255 000c 419E0010 		beq- 7,.L18
 256              		.loc 2 149 0 is_stmt 0 discriminator 1
 257 0010 2F800002 		cmpwi 7,0,2
 258 0014 419E0008 		beq- 7,.L18
 259              		.loc 2 149 0 discriminator 3
 260 0018 8923001E 		lbz 9,30(3)
 261              	.L18:
 262              		.loc 2 150 0 is_stmt 1 discriminator 5
 263 001c 7D234B78 		mr 3,9
 264              	.LVL23:
 265 0020 4E800020 		blr
 266              		.cfi_endproc
 267              	.LFE1394:
 268              		.size	_ZN10GuiElement12IsSelectableEv, .-_ZN10GuiElement12IsSelectableEv
 269              		.section	.text._ZN10GuiElement11IsClickableEv,"axG",@progbits,_ZN10GuiElement11IsClickableEv,comda
 270              		.align 2
 271              		.weak	_ZN10GuiElement11IsClickableEv
 272              		.type	_ZN10GuiElement11IsClickableEv, @function
 273              	_ZN10GuiElement11IsClickableEv:
 274              	.LFB1395:
 275              		.loc 2 153 0
 276              		.cfi_startproc
 277              	.LVL24:
 278              		.loc 2 158 0
 279 0000 80030048 		lwz 0,72(3)
 280 0004 39200000 		li 9,0
 281 0008 2F800004 		cmpwi 7,0,4
 282 000c 419E0018 		beq- 7,.L22
 283              		.loc 2 158 0 is_stmt 0 discriminator 1
 284 0010 2F800002 		cmpwi 7,0,2
 285 0014 419E0010 		beq- 7,.L22
 286              		.loc 2 158 0 discriminator 3
 287 0018 2F800003 		cmpwi 7,0,3
 288 001c 419E0008 		beq- 7,.L22
 289              		.loc 2 158 0 discriminator 4
 290 0020 8923001F 		lbz 9,31(3)
 291              	.L22:
 292              		.loc 2 159 0 is_stmt 1 discriminator 6
 293 0024 7D234B78 		mr 3,9
 294              	.LVL25:
 295 0028 4E800020 		blr
 296              		.cfi_endproc
 297              	.LFE1395:
 298              		.size	_ZN10GuiElement11IsClickableEv, .-_ZN10GuiElement11IsClickableEv
 299              		.section	.text._ZN10GuiElement10IsHoldableEv,"axG",@progbits,_ZN10GuiElement10IsHoldableEv,comdat
 300              		.align 2
 301              		.weak	_ZN10GuiElement10IsHoldableEv
 302              		.type	_ZN10GuiElement10IsHoldableEv, @function
 303              	_ZN10GuiElement10IsHoldableEv:
 304              	.LFB1396:
 305              		.loc 2 162 0
 306              		.cfi_startproc
 307              	.LVL26:
 308              		.loc 2 162 0
 309 0000 81230048 		lwz 9,72(3)
 310 0004 38000000 		li 0,0
 311 0008 2F890004 		cmpwi 7,9,4
 312 000c 419E0008 		beq- 7,.L27
 313              		.loc 2 162 0 is_stmt 0 discriminator 1
 314 0010 88030020 		lbz 0,32(3)
 315              	.L27:
 316              		.loc 2 162 0 discriminator 4
 317 0014 7C030378 		mr 3,0
 318              	.LVL27:
 319 0018 4E800020 		blr
 320              		.cfi_endproc
 321              	.LFE1396:
 322              		.size	_ZN10GuiElement10IsHoldableEv, .-_ZN10GuiElement10IsHoldableEv
 323              		.section	.text._ZN10GuiElement13SetSelectableEb,"axG",@progbits,_ZN10GuiElement13SetSelectableEb,c
 324              		.align 2
 325              		.weak	_ZN10GuiElement13SetSelectableEb
 326              		.type	_ZN10GuiElement13SetSelectableEb, @function
 327              	_ZN10GuiElement13SetSelectableEb:
 328              	.LFB1397:
 329              		.loc 2 165 0 is_stmt 1
 330              		.cfi_startproc
 331              	.LVL28:
 332              		.loc 2 165 0
 333 0000 9883001E 		stb 4,30(3)
 334 0004 4E800020 		blr
 335              		.cfi_endproc
 336              	.LFE1397:
 337              		.size	_ZN10GuiElement13SetSelectableEb, .-_ZN10GuiElement13SetSelectableEb
 338              		.section	.text._ZN10GuiElement12SetClickableEb,"axG",@progbits,_ZN10GuiElement12SetClickableEb,com
 339              		.align 2
 340              		.weak	_ZN10GuiElement12SetClickableEb
 341              		.type	_ZN10GuiElement12SetClickableEb, @function
 342              	_ZN10GuiElement12SetClickableEb:
 343              	.LFB1398:
 344              		.loc 2 168 0
 345              		.cfi_startproc
 346              	.LVL29:
 347              		.loc 2 168 0
 348 0000 9883001F 		stb 4,31(3)
 349 0004 4E800020 		blr
 350              		.cfi_endproc
 351              	.LFE1398:
 352              		.size	_ZN10GuiElement12SetClickableEb, .-_ZN10GuiElement12SetClickableEb
 353              		.section	.text._ZN10GuiElement11SetHoldableEb,"axG",@progbits,_ZN10GuiElement11SetHoldableEb,comda
 354              		.align 2
 355              		.weak	_ZN10GuiElement11SetHoldableEb
 356              		.type	_ZN10GuiElement11SetHoldableEb, @function
 357              	_ZN10GuiElement11SetHoldableEb:
 358              	.LFB1399:
 359              		.loc 2 171 0
 360              		.cfi_startproc
 361              	.LVL30:
 362              		.loc 2 171 0
 363 0000 98830020 		stb 4,32(3)
 364 0004 4E800020 		blr
 365              		.cfi_endproc
 366              	.LFE1399:
 367              		.size	_ZN10GuiElement11SetHoldableEb, .-_ZN10GuiElement11SetHoldableEb
 368              		.section	.text._ZN10GuiElement8GetStateEv,"axG",@progbits,_ZN10GuiElement8GetStateEv,comdat
 369              		.align 2
 370              		.weak	_ZN10GuiElement8GetStateEv
 371              		.type	_ZN10GuiElement8GetStateEv, @function
 372              	_ZN10GuiElement8GetStateEv:
 373              	.LFB1400:
 374              		.loc 2 178 0
 375              		.cfi_startproc
 376              	.LVL31:
 377              		.loc 2 178 0
 378 0000 80630048 		lwz 3,72(3)
 379              	.LVL32:
 380 0004 4E800020 		blr
 381              		.cfi_endproc
 382              	.LFE1400:
 383              		.size	_ZN10GuiElement8GetStateEv, .-_ZN10GuiElement8GetStateEv
 384              		.section	.text._ZN10GuiElement12GetStateChanEv,"axG",@progbits,_ZN10GuiElement12GetStateChanEv,com
 385              		.align 2
 386              		.weak	_ZN10GuiElement12GetStateChanEv
 387              		.type	_ZN10GuiElement12GetStateChanEv, @function
 388              	_ZN10GuiElement12GetStateChanEv:
 389              	.LFB1401:
 390              		.loc 2 181 0
 391              		.cfi_startproc
 392              	.LVL33:
 393              		.loc 2 181 0
 394 0000 8063004C 		lwz 3,76(3)
 395              	.LVL34:
 396 0004 4E800020 		blr
 397              		.cfi_endproc
 398              	.LFE1401:
 399              		.size	_ZN10GuiElement12GetStateChanEv, .-_ZN10GuiElement12GetStateChanEv
 400              		.section	.text._ZN10GuiElement8SetAlphaEi,"axG",@progbits,_ZN10GuiElement8SetAlphaEi,comdat
 401              		.align 2
 402              		.weak	_ZN10GuiElement8SetAlphaEi
 403              		.type	_ZN10GuiElement8SetAlphaEi, @function
 404              	_ZN10GuiElement8SetAlphaEi:
 405              	.LFB1403:
 406              		.loc 2 190 0
 407              		.cfi_startproc
 408              	.LVL35:
 409              		.loc 2 190 0
 410 0000 90830038 		stw 4,56(3)
 411 0004 4E800020 		blr
 412              		.cfi_endproc
 413              	.LFE1403:
 414              		.size	_ZN10GuiElement8SetAlphaEi, .-_ZN10GuiElement8SetAlphaEi
 415              		.section	.text._ZN10GuiElement8GetAlphaEv,"axG",@progbits,_ZN10GuiElement8GetAlphaEv,comdat
 416              		.align 2
 417              		.weak	_ZN10GuiElement8GetAlphaEv
 418              		.type	_ZN10GuiElement8GetAlphaEv, @function
 419              	_ZN10GuiElement8GetAlphaEv:
 420              	.LFB1404:
 421              		.loc 2 194 0
 422              		.cfi_startproc
 423              	.LVL36:
 424 0000 7C0802A6 		mflr 0
 425 0004 9421FFD8 		stwu 1,-40(1)
 426              	.LCFI2:
 427              		.cfi_def_cfa_offset 40
 428              		.cfi_register 65, 0
 429 0008 93E10024 		stw 31,36(1)
 430 000c 9001002C 		stw 0,44(1)
 431              	.LBB2290:
 432              		.loc 2 198 0
 433 0010 83E3006C 		lwz 31,108(3)
 434              		.cfi_offset 65, 4
 435              		.cfi_offset 31, -4
 436 0014 2F9F0000 		cmpwi 7,31,0
 437 0018 419C0094 		blt- 7,.L38
 438              	.L36:
 439              	.LVL37:
 440              		.loc 2 203 0
 441 001c 80630060 		lwz 3,96(3)
 442              	.LVL38:
 443 0020 2F830000 		cmpwi 7,3,0
 444 0024 419E0070 		beq- 7,.L37
 445              		.loc 2 204 0
 446 0028 81230000 		lwz 9,0(3)
 447 002c 6FFF8000 		xoris 31,31,0x8000
 448              	.LVL39:
 449 0030 80090064 		lwz 0,100(9)
 450 0034 7C0903A6 		mtctr 0
 451 0038 4E800421 		bctrl
 452 003c 3C004330 		lis 0,0x4330
 453 0040 6C638000 		xoris 3,3,0x8000
 454 0044 90010010 		stw 0,16(1)
 455 0048 90610014 		stw 3,20(1)
 456 004c 3D200000 		lis 9,.LC1@ha
 457 0050 C0090000 		lfs 0,.LC1@l(9)
 458 0054 3D200000 		lis 9,.LC2@ha
 459 0058 C9A10010 		lfd 13,16(1)
 460 005c C1890004 		lfs 12,.LC2@l(9)
 461 0060 39210018 		addi 9,1,24
 462 0064 FDAD0028 		fsub 13,13,0
 463 0068 93E1000C 		stw 31,12(1)
 464 006c 90010008 		stw 0,8(1)
 465 0070 FDA06818 		frsp 13,13
 466 0074 EDAD6024 		fdivs 13,13,12
 467 0078 C9810008 		lfd 12,8(1)
 468 007c FC0C0028 		fsub 0,12,0
 469 0080 FC000018 		frsp 0,0
 470 0084 EC000372 		fmuls 0,0,13
 471 0088 FC00001E 		fctiwz 0,0
 472 008c 7C004FAE 		stfiwx 0,0,9
 473 0090 83E10018 		lwz 31,24(1)
 474              	.LVL40:
 475              	.L37:
 476              	.LBE2290:
 477              		.loc 2 207 0
 478 0094 8001002C 		lwz 0,44(1)
 479 0098 7FE3FB78 		mr 3,31
 480 009c 83E10024 		lwz 31,36(1)
 481              	.LVL41:
 482 00a0 7C0803A6 		mtlr 0
 483 00a4 38210028 		addi 1,1,40
 484              		.cfi_remember_state
 485              	.LCFI3:
 486              		.cfi_def_cfa_offset 0
 487              		.cfi_restore 31
 488 00a8 4E800020 		blr
 489              	.LVL42:
 490              	.L38:
 491              	.LCFI4:
 492              		.cfi_restore_state
 493              	.LBB2291:
 494              		.loc 2 201 0
 495 00ac 83E30038 		lwz 31,56(3)
 496              	.LVL43:
 497 00b0 4BFFFF6C 		b .L36
 498              	.LBE2291:
 499              		.cfi_endproc
 500              	.LFE1404:
 501              		.size	_ZN10GuiElement8GetAlphaEv, .-_ZN10GuiElement8GetAlphaEv
 502              		.section	.text._ZN10GuiElement8SetScaleEf,"axG",@progbits,_ZN10GuiElement8SetScaleEf,comdat
 503              		.align 2
 504              		.weak	_ZN10GuiElement8SetScaleEf
 505              		.type	_ZN10GuiElement8SetScaleEf, @function
 506              	_ZN10GuiElement8SetScaleEf:
 507              	.LFB1405:
 508              		.loc 2 210 0
 509              		.cfi_startproc
 510              	.LVL44:
 511              		.loc 2 212 0
 512 0000 D023003C 		stfs 1,60(3)
 513              		.loc 2 214 0
 514              		.loc 2 213 0
 515 0004 D0230040 		stfs 1,64(3)
 516              		.loc 2 214 0
 517 0008 4E800020 		blr
 518              		.cfi_endproc
 519              	.LFE1405:
 520              		.size	_ZN10GuiElement8SetScaleEf, .-_ZN10GuiElement8SetScaleEf
 521              		.section	.text._ZN10GuiElement9SetScaleXEf,"axG",@progbits,_ZN10GuiElement9SetScaleXEf,comdat
 522              		.align 2
 523              		.weak	_ZN10GuiElement9SetScaleXEf
 524              		.type	_ZN10GuiElement9SetScaleXEf, @function
 525              	_ZN10GuiElement9SetScaleXEf:
 526              	.LFB1406:
 527              		.loc 2 217 0
 528              		.cfi_startproc
 529              	.LVL45:
 530              		.loc 2 217 0
 531 0000 D023003C 		stfs 1,60(3)
 532 0004 4E800020 		blr
 533              		.cfi_endproc
 534              	.LFE1406:
 535              		.size	_ZN10GuiElement9SetScaleXEf, .-_ZN10GuiElement9SetScaleXEf
 536              		.section	.text._ZN10GuiElement9SetScaleYEf,"axG",@progbits,_ZN10GuiElement9SetScaleYEf,comdat
 537              		.align 2
 538              		.weak	_ZN10GuiElement9SetScaleYEf
 539              		.type	_ZN10GuiElement9SetScaleYEf, @function
 540              	_ZN10GuiElement9SetScaleYEf:
 541              	.LFB1407:
 542              		.loc 2 220 0
 543              		.cfi_startproc
 544              	.LVL46:
 545              		.loc 2 220 0
 546 0000 D0230040 		stfs 1,64(3)
 547 0004 4E800020 		blr
 548              		.cfi_endproc
 549              	.LFE1407:
 550              		.size	_ZN10GuiElement9SetScaleYEf, .-_ZN10GuiElement9SetScaleYEf
 551              		.section	.text._ZN10GuiElement8GetScaleEv,"axG",@progbits,_ZN10GuiElement8GetScaleEv,comdat
 552              		.align 2
 553              		.weak	_ZN10GuiElement8GetScaleEv
 554              		.type	_ZN10GuiElement8GetScaleEv, @function
 555              	_ZN10GuiElement8GetScaleEv:
 556              	.LFB1408:
 557              		.loc 2 223 0
 558              		.cfi_startproc
 559              	.LVL47:
 560 0000 7C0802A6 		mflr 0
 561 0004 9421FFF0 		stwu 1,-16(1)
 562              	.LCFI5:
 563              		.cfi_def_cfa_offset 16
 564              		.cfi_register 65, 0
 565              	.LBB2292:
 566              		.loc 2 225 0
 567 0008 3D200000 		lis 9,.LC3@ha
 568              	.LBE2292:
 569              		.loc 2 223 0
 570 000c DBE10008 		stfd 31,8(1)
 571 0010 90010014 		stw 0,20(1)
 572              	.LBB2293:
 573              		.loc 2 225 0
 574 0014 C0030040 		lfs 0,64(3)
 575 0018 C3E3003C 		lfs 31,60(3)
 576              		.cfi_offset 65, 4
 577              		.cfi_offset 63, -8
 578              		.loc 2 227 0
 579 001c 81630060 		lwz 11,96(3)
 580              		.loc 2 225 0
 581 0020 EFFF002A 		fadds 31,31,0
 582 0024 C0090008 		lfs 0,.LC3@l(9)
 583              		.loc 2 227 0
 584 0028 2F8B0000 		cmpwi 7,11,0
 585              		.loc 2 225 0
 586 002c EFFF0032 		fmuls 31,31,0
 587 0030 C0030070 		lfs 0,112(3)
 588 0034 EFFF0032 		fmuls 31,31,0
 589              	.LVL48:
 590              		.loc 2 227 0
 591 0038 419E001C 		beq- 7,.L43
 592              		.loc 2 228 0
 593 003c 812B0000 		lwz 9,0(11)
 594 0040 7D635B78 		mr 3,11
 595              	.LVL49:
 596 0044 80090074 		lwz 0,116(9)
 597 0048 7C0903A6 		mtctr 0
 598 004c 4E800421 		bctrl
 599 0050 EFFF0072 		fmuls 31,31,1
 600              	.LVL50:
 601              	.L43:
 602              	.LBE2293:
 603              		.loc 2 231 0
 604 0054 80010014 		lwz 0,20(1)
 605 0058 FC20F890 		fmr 1,31
 606 005c CBE10008 		lfd 31,8(1)
 607              	.LVL51:
 608 0060 7C0803A6 		mtlr 0
 609 0064 38210010 		addi 1,1,16
 610              	.LCFI6:
 611              		.cfi_def_cfa_offset 0
 612              		.cfi_restore 63
 613 0068 4E800020 		blr
 614              		.cfi_endproc
 615              	.LFE1408:
 616              		.size	_ZN10GuiElement8GetScaleEv, .-_ZN10GuiElement8GetScaleEv
 617              		.section	.text._ZN10GuiElement9GetScaleXEv,"axG",@progbits,_ZN10GuiElement9GetScaleXEv,comdat
 618              		.align 2
 619              		.weak	_ZN10GuiElement9GetScaleXEv
 620              		.type	_ZN10GuiElement9GetScaleXEv, @function
 621              	_ZN10GuiElement9GetScaleXEv:
 622              	.LFB1409:
 623              		.loc 2 234 0
 624              		.cfi_startproc
 625              	.LVL52:
 626 0000 7C0802A6 		mflr 0
 627 0004 9421FFF0 		stwu 1,-16(1)
 628              	.LCFI7:
 629              		.cfi_def_cfa_offset 16
 630              		.cfi_register 65, 0
 631 0008 DBE10008 		stfd 31,8(1)
 632 000c 90010014 		stw 0,20(1)
 633              	.LBB2294:
 634              		.loc 2 238 0
 635 0010 81630060 		lwz 11,96(3)
 636              		.loc 2 236 0
 637 0014 C3E3003C 		lfs 31,60(3)
 638              		.cfi_offset 65, 4
 639              		.cfi_offset 63, -8
 640              		.loc 2 238 0
 641 0018 2F8B0000 		cmpwi 7,11,0
 642              		.loc 2 236 0
 643 001c C0030070 		lfs 0,112(3)
 644 0020 EFFF0032 		fmuls 31,31,0
 645              	.LVL53:
 646              		.loc 2 238 0
 647 0024 419E001C 		beq- 7,.L45
 648              		.loc 2 239 0
 649 0028 812B0000 		lwz 9,0(11)
 650 002c 7D635B78 		mr 3,11
 651              	.LVL54:
 652 0030 80090078 		lwz 0,120(9)
 653 0034 7C0903A6 		mtctr 0
 654 0038 4E800421 		bctrl
 655 003c EFFF0072 		fmuls 31,31,1
 656              	.LVL55:
 657              	.L45:
 658              	.LBE2294:
 659              		.loc 2 242 0
 660 0040 80010014 		lwz 0,20(1)
 661 0044 FC20F890 		fmr 1,31
 662 0048 CBE10008 		lfd 31,8(1)
 663              	.LVL56:
 664 004c 7C0803A6 		mtlr 0
 665 0050 38210010 		addi 1,1,16
 666              	.LCFI8:
 667              		.cfi_def_cfa_offset 0
 668              		.cfi_restore 63
 669 0054 4E800020 		blr
 670              		.cfi_endproc
 671              	.LFE1409:
 672              		.size	_ZN10GuiElement9GetScaleXEv, .-_ZN10GuiElement9GetScaleXEv
 673              		.section	.text._ZN10GuiElement9GetScaleYEv,"axG",@progbits,_ZN10GuiElement9GetScaleYEv,comdat
 674              		.align 2
 675              		.weak	_ZN10GuiElement9GetScaleYEv
 676              		.type	_ZN10GuiElement9GetScaleYEv, @function
 677              	_ZN10GuiElement9GetScaleYEv:
 678              	.LFB1410:
 679              		.loc 2 245 0
 680              		.cfi_startproc
 681              	.LVL57:
 682 0000 7C0802A6 		mflr 0
 683 0004 9421FFF0 		stwu 1,-16(1)
 684              	.LCFI9:
 685              		.cfi_def_cfa_offset 16
 686              		.cfi_register 65, 0
 687 0008 DBE10008 		stfd 31,8(1)
 688 000c 90010014 		stw 0,20(1)
 689              	.LBB2295:
 690              		.loc 2 249 0
 691 0010 81630060 		lwz 11,96(3)
 692              		.loc 2 247 0
 693 0014 C3E30040 		lfs 31,64(3)
 694              		.cfi_offset 65, 4
 695              		.cfi_offset 63, -8
 696              		.loc 2 249 0
 697 0018 2F8B0000 		cmpwi 7,11,0
 698              		.loc 2 247 0
 699 001c C0030070 		lfs 0,112(3)
 700 0020 EFFF0032 		fmuls 31,31,0
 701              	.LVL58:
 702              		.loc 2 249 0
 703 0024 419E001C 		beq- 7,.L47
 704              		.loc 2 250 0
 705 0028 812B0000 		lwz 9,0(11)
 706 002c 7D635B78 		mr 3,11
 707              	.LVL59:
 708 0030 8009007C 		lwz 0,124(9)
 709 0034 7C0903A6 		mtctr 0
 710 0038 4E800421 		bctrl
 711 003c EFFF0072 		fmuls 31,31,1
 712              	.LVL60:
 713              	.L47:
 714              	.LBE2295:
 715              		.loc 2 253 0
 716 0040 80010014 		lwz 0,20(1)
 717 0044 FC20F890 		fmr 1,31
 718 0048 CBE10008 		lfd 31,8(1)
 719              	.LVL61:
 720 004c 7C0803A6 		mtlr 0
 721 0050 38210010 		addi 1,1,16
 722              	.LCFI10:
 723              		.cfi_def_cfa_offset 0
 724              		.cfi_restore 63
 725 0054 4E800020 		blr
 726              		.cfi_endproc
 727              	.LFE1410:
 728              		.size	_ZN10GuiElement9GetScaleYEv, .-_ZN10GuiElement9GetScaleYEv
 729              		.section	.text._ZN10GuiElement6RumbleEv,"axG",@progbits,_ZN10GuiElement6RumbleEv,comdat
 730              		.align 2
 731              		.weak	_ZN10GuiElement6RumbleEv
 732              		.type	_ZN10GuiElement6RumbleEv, @function
 733              	_ZN10GuiElement6RumbleEv:
 734              	.LFB1411:
 735              		.loc 2 256 0
 736              		.cfi_startproc
 737              	.LVL62:
 738              		.loc 2 256 0
 739 0000 8863001C 		lbz 3,28(3)
 740              	.LVL63:
 741 0004 4E800020 		blr
 742              		.cfi_endproc
 743              	.LFE1411:
 744              		.size	_ZN10GuiElement6RumbleEv, .-_ZN10GuiElement6RumbleEv
 745              		.section	.text._ZN10GuiElement9SetRumbleEb,"axG",@progbits,_ZN10GuiElement9SetRumbleEb,comdat
 746              		.align 2
 747              		.weak	_ZN10GuiElement9SetRumbleEb
 748              		.type	_ZN10GuiElement9SetRumbleEb, @function
 749              	_ZN10GuiElement9SetRumbleEb:
 750              	.LFB1412:
 751              		.loc 2 259 0
 752              		.cfi_startproc
 753              	.LVL64:
 754              		.loc 2 259 0
 755 0000 9883001C 		stb 4,28(3)
 756 0004 4E800020 		blr
 757              		.cfi_endproc
 758              	.LFE1412:
 759              		.size	_ZN10GuiElement9SetRumbleEb, .-_ZN10GuiElement9SetRumbleEb
 760              		.section	.text._ZN10GuiElement13SetEffectGrowEv,"axG",@progbits,_ZN10GuiElement13SetEffectGrowEv,c
 761              		.align 2
 762              		.weak	_ZN10GuiElement13SetEffectGrowEv
 763              		.type	_ZN10GuiElement13SetEffectGrowEv, @function
 764              	_ZN10GuiElement13SetEffectGrowEv:
 765              	.LFB1413:
 766              		.loc 2 271 0
 767              		.cfi_startproc
 768              	.LVL65:
 769 0000 7C0802A6 		mflr 0
 770 0004 9421FFF8 		stwu 1,-8(1)
 771              	.LCFI11:
 772              		.cfi_def_cfa_offset 8
 773              		.cfi_register 65, 0
 774 0008 81230000 		lwz 9,0(3)
 775 000c 38800100 		li 4,256
 776 0010 38A00004 		li 5,4
 777 0014 38C0006E 		li 6,110
 778 0018 9001000C 		stw 0,12(1)
 779              		.loc 2 271 0
 780 001c 8009008C 		lwz 0,140(9)
 781              		.cfi_offset 65, 4
 782 0020 7C0903A6 		mtctr 0
 783 0024 4E800421 		bctrl
 784              	.LVL66:
 785 0028 8001000C 		lwz 0,12(1)
 786 002c 38210008 		addi 1,1,8
 787              	.LCFI12:
 788              		.cfi_def_cfa_offset 0
 789 0030 7C0803A6 		mtlr 0
 790 0034 4E800020 		blr
 791              		.cfi_endproc
 792              	.LFE1413:
 793              		.size	_ZN10GuiElement13SetEffectGrowEv, .-_ZN10GuiElement13SetEffectGrowEv
 794              		.section	.text._ZNK10GuiElement9GetEffectEv,"axG",@progbits,_ZNK10GuiElement9GetEffectEv,comdat
 795              		.align 2
 796              		.weak	_ZNK10GuiElement9GetEffectEv
 797              		.type	_ZNK10GuiElement9GetEffectEv, @function
 798              	_ZNK10GuiElement9GetEffectEv:
 799              	.LFB1414:
 800              		.loc 2 276 0
 801              		.cfi_startproc
 802              	.LVL67:
 803              		.loc 2 276 0
 804 0000 80630078 		lwz 3,120(3)
 805              	.LVL68:
 806 0004 4E800020 		blr
 807              		.cfi_endproc
 808              	.LFE1414:
 809              		.size	_ZNK10GuiElement9GetEffectEv, .-_ZNK10GuiElement9GetEffectEv
 810              		.section	.text._ZNK10GuiElement10IsAnimatedEv,"axG",@progbits,_ZNK10GuiElement10IsAnimatedEv,comda
 811              		.align 2
 812              		.weak	_ZNK10GuiElement10IsAnimatedEv
 813              		.type	_ZNK10GuiElement10IsAnimatedEv, @function
 814              	_ZNK10GuiElement10IsAnimatedEv:
 815              	.LFB1415:
 816              		.loc 2 278 0
 817              		.cfi_startproc
 818              	.LVL69:
 819 0000 7C0802A6 		mflr 0
 820 0004 9421FFF8 		stwu 1,-8(1)
 821              	.LCFI13:
 822              		.cfi_def_cfa_offset 8
 823              		.cfi_register 65, 0
 824 0008 9001000C 		stw 0,12(1)
 825              		.loc 2 278 0
 826 000c 81230000 		lwz 9,0(3)
 827 0010 80090098 		lwz 0,152(9)
 828              		.cfi_offset 65, 4
 829 0014 7C0903A6 		mtctr 0
 830 0018 4E800421 		bctrl
 831              	.LVL70:
 832 001c 7C60FE70 		srawi 0,3,31
 833 0020 7C630050 		subf 3,3,0
 834 0024 8001000C 		lwz 0,12(1)
 835 0028 54630FFE 		srwi 3,3,31
 836 002c 7C0803A6 		mtlr 0
 837 0030 38210008 		addi 1,1,8
 838              	.LCFI14:
 839              		.cfi_def_cfa_offset 0
 840 0034 4E800020 		blr
 841              		.cfi_endproc
 842              	.LFE1415:
 843              		.size	_ZNK10GuiElement10IsAnimatedEv, .-_ZNK10GuiElement10IsAnimatedEv
 844              		.section	.text._ZN10GuiElement8IsInsideEii,"axG",@progbits,_ZN10GuiElement8IsInsideEii,comdat
 845              		.align 2
 846              		.weak	_ZN10GuiElement8IsInsideEii
 847              		.type	_ZN10GuiElement8IsInsideEii, @function
 848              	_ZN10GuiElement8IsInsideEii:
 849              	.LFB1417:
 850              		.loc 2 285 0
 851              		.cfi_startproc
 852              	.LVL71:
 853 0000 7C0802A6 		mflr 0
 854 0004 9421FFE8 		stwu 1,-24(1)
 855              	.LCFI15:
 856              		.cfi_def_cfa_offset 24
 857              		.cfi_register 65, 0
 858 0008 93810008 		stw 28,8(1)
 859 000c 7CBC2B78 		mr 28,5
 860              		.cfi_offset 28, -16
 861 0010 9001001C 		stw 0,28(1)
 862 0014 93A1000C 		stw 29,12(1)
 863              		.loc 2 290 0
 864 0018 3BA00000 		li 29,0
 865              		.cfi_offset 29, -12
 866              		.cfi_offset 65, 4
 867              		.loc 2 287 0
 868 001c 81230000 		lwz 9,0(3)
 869              		.loc 2 285 0
 870 0020 93C10010 		stw 30,16(1)
 871 0024 7C9E2378 		mr 30,4
 872              		.cfi_offset 30, -8
 873              		.loc 2 287 0
 874 0028 80090010 		lwz 0,16(9)
 875              		.loc 2 285 0
 876 002c 93E10014 		stw 31,20(1)
 877              		.loc 2 285 0
 878 0030 7C7F1B78 		mr 31,3
 879              		.cfi_offset 31, -4
 880              		.loc 2 287 0
 881 0034 7C0903A6 		mtctr 0
 882 0038 4E800421 		bctrl
 883              	.LVL72:
 884              		.loc 2 290 0
 885 003c 7F83F000 		cmpw 7,3,30
 886 0040 419C0028 		blt- 7,.L58
 887              	.L54:
 888              		.loc 2 291 0 discriminator 6
 889 0044 8001001C 		lwz 0,28(1)
 890 0048 7FA3EB78 		mr 3,29
 891 004c 83810008 		lwz 28,8(1)
 892              	.LVL73:
 893 0050 7C0803A6 		mtlr 0
 894 0054 83A1000C 		lwz 29,12(1)
 895 0058 83C10010 		lwz 30,16(1)
 896              	.LVL74:
 897 005c 83E10014 		lwz 31,20(1)
 898              	.LVL75:
 899 0060 38210018 		addi 1,1,24
 900              		.cfi_remember_state
 901              	.LCFI16:
 902              		.cfi_def_cfa_offset 0
 903              		.cfi_restore 31
 904              		.cfi_restore 30
 905              		.cfi_restore 29
 906              		.cfi_restore 28
 907 0064 4E800020 		blr
 908              	.LVL76:
 909              	.L58:
 910              	.LCFI17:
 911              		.cfi_restore_state
 912              		.loc 2 288 0 discriminator 1
 913 0068 813F0000 		lwz 9,0(31)
 914 006c 7FE3FB78 		mr 3,31
 915 0070 80090010 		lwz 0,16(9)
 916 0074 7C0903A6 		mtctr 0
 917 0078 4E800421 		bctrl
 918              		.loc 2 290 0 discriminator 1
 919 007c 801F0024 		lwz 0,36(31)
 920 0080 7C030214 		add 0,3,0
 921 0084 7F9E0000 		cmpw 7,30,0
 922 0088 409CFFBC 		bge+ 7,.L54
 923              		.loc 2 289 0 discriminator 3
 924 008c 813F0000 		lwz 9,0(31)
 925 0090 7FE3FB78 		mr 3,31
 926 0094 80090014 		lwz 0,20(9)
 927 0098 7C0903A6 		mtctr 0
 928 009c 4E800421 		bctrl
 929              		.loc 2 290 0 discriminator 3
 930 00a0 7F83E000 		cmpw 7,3,28
 931 00a4 409CFFA0 		bge+ 7,.L54
 932              		.loc 2 290 0 is_stmt 0 discriminator 4
 933 00a8 813F0000 		lwz 9,0(31)
 934 00ac 7FE3FB78 		mr 3,31
 935 00b0 80090014 		lwz 0,20(9)
 936 00b4 7C0903A6 		mtctr 0
 937 00b8 4E800421 		bctrl
 938 00bc 801F0028 		lwz 0,40(31)
 939 00c0 7C030214 		add 0,3,0
 940              		.loc 2 285 0 is_stmt 1 discriminator 4
 941 00c4 7F9C0000 		cmpw 7,28,0
 942 00c8 7FA00026 		mfcr 29
 943 00cc 57BDEFFE 		rlwinm 29,29,29,1
 944 00d0 4BFFFF74 		b .L54
 945              		.cfi_endproc
 946              	.LFE1417:
 947              		.size	_ZN10GuiElement8IsInsideEii, .-_ZN10GuiElement8IsInsideEii
 948              		.section	.text._ZN10GuiElement11SetPositionEii,"axG",@progbits,_ZN10GuiElement11SetPositionEii,com
 949              		.align 2
 950              		.weak	_ZN10GuiElement11SetPositionEii
 951              		.type	_ZN10GuiElement11SetPositionEii, @function
 952              	_ZN10GuiElement11SetPositionEii:
 953              	.LFB1418:
 954              		.loc 2 295 0
 955              		.cfi_startproc
 956              	.LVL77:
 957              		.loc 2 297 0
 958 0000 9083002C 		stw 4,44(3)
 959              		.loc 2 299 0
 960              		.loc 2 298 0
 961 0004 90A30030 		stw 5,48(3)
 962              		.loc 2 299 0
 963 0008 4E800020 		blr
 964              		.cfi_endproc
 965              	.LFE1418:
 966              		.size	_ZN10GuiElement11SetPositionEii, .-_ZN10GuiElement11SetPositionEii
 967              		.section	.text._ZN10GuiElement11SetPositionEiii,"axG",@progbits,_ZN10GuiElement11SetPositionEiii,c
 968              		.align 2
 969              		.weak	_ZN10GuiElement11SetPositionEiii
 970              		.type	_ZN10GuiElement11SetPositionEiii, @function
 971              	_ZN10GuiElement11SetPositionEiii:
 972              	.LFB1419:
 973              		.loc 2 304 0
 974              		.cfi_startproc
 975              	.LVL78:
 976              		.loc 2 306 0
 977 0000 9083002C 		stw 4,44(3)
 978              		.loc 2 309 0
 979              		.loc 2 307 0
 980 0004 90A30030 		stw 5,48(3)
 981              		.loc 2 308 0
 982 0008 90C30034 		stw 6,52(3)
 983              		.loc 2 309 0
 984 000c 4E800020 		blr
 985              		.cfi_endproc
 986              	.LFE1419:
 987              		.size	_ZN10GuiElement11SetPositionEiii, .-_ZN10GuiElement11SetPositionEiii
 988              		.section	.text._ZN10GuiElement12SetAlignmentEi,"axG",@progbits,_ZN10GuiElement12SetAlignmentEi,com
 989              		.align 2
 990              		.weak	_ZN10GuiElement12SetAlignmentEi
 991              		.type	_ZN10GuiElement12SetAlignmentEi, @function
 992              	_ZN10GuiElement12SetAlignmentEi:
 993              	.LFB1421:
 994              		.loc 2 316 0
 995              		.cfi_startproc
 996              	.LVL79:
 997              		.loc 2 316 0
 998 0000 90830044 		stw 4,68(3)
 999 0004 4E800020 		blr
 1000              		.cfi_endproc
 1001              	.LFE1421:
 1002              		.size	_ZN10GuiElement12SetAlignmentEi, .-_ZN10GuiElement12SetAlignmentEi
 1003              		.section	.text._ZNK10GuiElement12GetAlignmentEv,"axG",@progbits,_ZNK10GuiElement12GetAlignmentEv,c
 1004              		.align 2
 1005              		.weak	_ZNK10GuiElement12GetAlignmentEv
 1006              		.type	_ZNK10GuiElement12GetAlignmentEv, @function
 1007              	_ZNK10GuiElement12GetAlignmentEv:
 1008              	.LFB1422:
 1009              		.loc 2 318 0
 1010              		.cfi_startproc
 1011              	.LVL80:
 1012              		.loc 2 318 0
 1013 0000 80630044 		lwz 3,68(3)
 1014              	.LVL81:
 1015 0004 4E800020 		blr
 1016              		.cfi_endproc
 1017              	.LFE1422:
 1018              		.size	_ZNK10GuiElement12GetAlignmentEv, .-_ZNK10GuiElement12GetAlignmentEv
 1019              		.section	.text._ZN8GuiFrame4showEv,"axG",@progbits,_ZN8GuiFrame4showEv,comdat
 1020              		.align 2
 1021              		.weak	_ZN8GuiFrame4showEv
 1022              		.type	_ZN8GuiFrame4showEv, @function
 1023              	_ZN8GuiFrame4showEv:
 1024              	.LFB1431:
 1025              		.file 3 "d:/Projects/SaveGameManager/savegame-manager-gx/trunk/source/Prompts/../GUI/gui_frame.h"
 1026              		.loc 3 79 0
 1027              		.cfi_startproc
 1028              	.LVL82:
 1029              		.loc 3 79 0
 1030 0000 4E800020 		blr
 1031              		.cfi_endproc
 1032              	.LFE1431:
 1033              		.size	_ZN8GuiFrame4showEv, .-_ZN8GuiFrame4showEv
 1034              		.section	.text._ZN8GuiFrame4hideEv,"axG",@progbits,_ZN8GuiFrame4hideEv,comdat
 1035              		.align 2
 1036              		.weak	_ZN8GuiFrame4hideEv
 1037              		.type	_ZN8GuiFrame4hideEv, @function
 1038              	_ZN8GuiFrame4hideEv:
 1039              	.LFB1432:
 1040              		.loc 3 81 0
 1041              		.cfi_startproc
 1042              	.LVL83:
 1043              		.loc 3 81 0
 1044 0000 4E800020 		blr
 1045              		.cfi_endproc
 1046              	.LFE1432:
 1047              		.size	_ZN8GuiFrame4hideEv, .-_ZN8GuiFrame4hideEv
 1048              		.section	.text._ZN8GuiFrame4execEv,"axG",@progbits,_ZN8GuiFrame4execEv,comdat
 1049              		.align 2
 1050              		.weak	_ZN8GuiFrame4execEv
 1051              		.type	_ZN8GuiFrame4execEv, @function
 1052              	_ZN8GuiFrame4execEv:
 1053              	.LFB1433:
 1054              		.loc 3 83 0
 1055              		.cfi_startproc
 1056              	.LVL84:
 1057              		.loc 3 83 0
 1058 0000 4E800020 		blr
 1059              		.cfi_endproc
 1060              	.LFE1433:
 1061              		.size	_ZN8GuiFrame4execEv, .-_ZN8GuiFrame4execEv
 1062              		.section	.text._ZN8GuiFrame12updateEventsEv,"axG",@progbits,_ZN8GuiFrame12updateEventsEv,comdat
 1063              		.align 2
 1064              		.weak	_ZN8GuiFrame12updateEventsEv
 1065              		.type	_ZN8GuiFrame12updateEventsEv, @function
 1066              	_ZN8GuiFrame12updateEventsEv:
 1067              	.LFB1434:
 1068              		.loc 3 85 0
 1069              		.cfi_startproc
 1070              	.LVL85:
 1071              		.loc 3 85 0
 1072 0000 4E800020 		blr
 1073              		.cfi_endproc
 1074              	.LFE1434:
 1075              		.size	_ZN8GuiFrame12updateEventsEv, .-_ZN8GuiFrame12updateEventsEv
 1076              		.section	".text"
 1077              		.align 2
 1078              		.globl _ZN14KeyboardWindow19OnCancelButtonClickEP9GuiButtoniRK6_POINT
 1079              		.type	_ZN14KeyboardWindow19OnCancelButtonClickEP9GuiButtoniRK6_POINT, @function
 1080              	_ZN14KeyboardWindow19OnCancelButtonClickEP9GuiButtoniRK6_POINT:
 1081              	.LFB1576:
 1082              		.file 4 "d:/Projects/SaveGameManager/savegame-manager-gx/trunk/source/Prompts/KeyboardWindow.cpp"
 1083              		.loc 4 85 0
 1084              		.cfi_startproc
 1085              	.LVL86:
 1086              		.loc 4 86 0
 1087 0000 38000000 		li 0,0
 1088              		.loc 4 87 0
 1089              		.loc 4 86 0
 1090 0004 900300DC 		stw 0,220(3)
 1091              		.loc 4 87 0
 1092 0008 4E800020 		blr
 1093              		.cfi_endproc
 1094              	.LFE1576:
 1095              		.size	_ZN14KeyboardWindow19OnCancelButtonClickEP9GuiButtoniRK6_POINT, .-_ZN14KeyboardWindow19OnCan
 1096              		.section	.text._ZN7sigslot12_signal_baseINS_15single_threadedEED2Ev,"axG",@progbits,_ZN7sigslot12_
 1097              		.align 2
 1098              		.weak	_ZN7sigslot12_signal_baseINS_15single_threadedEED2Ev
 1099              		.type	_ZN7sigslot12_signal_baseINS_15single_threadedEED2Ev, @function
 1100              	_ZN7sigslot12_signal_baseINS_15single_threadedEED2Ev:
 1101              	.LFB1634:
 1102              		.loc 1 466 0
 1103              		.cfi_startproc
 1104              	.LVL87:
 1105              	.LBB2296:
 1106              	.LBB2297:
 1107              	.LBB2298:
 1108              	.LBB2299:
 1109              		.loc 1 105 0
 1110 0000 3D200000 		lis 9,_ZTVN7sigslot15single_threadedE+8@ha
 1111              	.LBE2299:
 1112              	.LBE2298:
 1113              	.LBE2297:
 1114              	.LBE2296:
 1115              		.loc 1 466 0
 1116              	.LBB2303:
 1117              	.LBB2302:
 1118              	.LBB2301:
 1119              	.LBB2300:
 1120              		.loc 1 105 0
 1121 0004 38090008 		la 0,_ZTVN7sigslot15single_threadedE+8@l(9)
 1122 0008 90030000 		stw 0,0(3)
 1123              	.LBE2300:
 1124              	.LBE2301:
 1125              	.LBE2302:
 1126              	.LBE2303:
 1127              		.loc 1 466 0
 1128 000c 4E800020 		blr
 1129              		.cfi_endproc
 1130              	.LFE1634:
 1131              		.size	_ZN7sigslot12_signal_baseINS_15single_threadedEED2Ev, .-_ZN7sigslot12_signal_baseINS_15singl
 1132              		.section	.text._ZN7sigslot17_connection_base3IP9GuiButtoniRK6_POINTNS_15single_threadedEED2Ev,"axG
 1133              		.align 2
 1134              		.weak	_ZN7sigslot17_connection_base3IP9GuiButtoniRK6_POINTNS_15single_threadedEED2Ev
 1135              		.type	_ZN7sigslot17_connection_base3IP9GuiButtoniRK6_POINTNS_15single_threadedEED2Ev, @function
 1136              	_ZN7sigslot17_connection_base3IP9GuiButtoniRK6_POINTNS_15single_threadedEED2Ev:
 1137              	.LFB1778:
 1138              		.loc 1 387 0
 1139              		.cfi_startproc
 1140              	.LVL88:
 1141              	.LBB2304:
 1142              		.loc 1 387 0
 1143 0000 3D200000 		lis 9,_ZTVN7sigslot17_connection_base3IP9GuiButtoniRK6_POINTNS_15single_threadedEEE+8@ha
 1144              	.LBE2304:
 1145              	.LBB2305:
 1146 0004 38090008 		la 0,_ZTVN7sigslot17_connection_base3IP9GuiButtoniRK6_POINTNS_15single_threadedEEE+8@l(9)
 1147 0008 90030000 		stw 0,0(3)
 1148              	.LBE2305:
 1149 000c 4E800020 		blr
 1150              		.cfi_endproc
 1151              	.LFE1778:
 1152              		.size	_ZN7sigslot17_connection_base3IP9GuiButtoniRK6_POINTNS_15single_threadedEED2Ev, .-_ZN7sigslo
 1153              		.section	.text._ZN7sigslot12_connection3I14KeyboardWindowP9GuiButtoniRK6_POINTNS_15single_threaded
 1154              		.align 2
 1155              		.weak	_ZN7sigslot12_connection3I14KeyboardWindowP9GuiButtoniRK6_POINTNS_15single_threadedEED2Ev
 1156              		.type	_ZN7sigslot12_connection3I14KeyboardWindowP9GuiButtoniRK6_POINTNS_15single_threadedEED2Ev, @
 1157              	_ZN7sigslot12_connection3I14KeyboardWindowP9GuiButtoniRK6_POINTNS_15single_threadedEED2Ev:
 1158              	.LFB2063:
 1159              		.loc 1 1783 0
 1160              		.cfi_startproc
 1161              	.LVL89:
 1162              	.LBB2306:
 1163              	.LBB2307:
 1164              	.LBB2308:
 1165              	.LBB2309:
 1166              		.loc 1 387 0
 1167 0000 3D200000 		lis 9,_ZTVN7sigslot17_connection_base3IP9GuiButtoniRK6_POINTNS_15single_threadedEEE+8@ha
 1168              	.LBE2309:
 1169              	.LBE2308:
 1170              	.LBE2307:
 1171              	.LBE2306:
 1172              		.loc 1 1786 0
 1173              	.LBB2313:
 1174              	.LBB2312:
 1175              	.LBB2311:
 1176              	.LBB2310:
 1177              		.loc 1 387 0
 1178 0004 38090008 		la 0,_ZTVN7sigslot17_connection_base3IP9GuiButtoniRK6_POINTNS_15single_threadedEEE+8@l(9)
 1179 0008 90030000 		stw 0,0(3)
 1180              	.LBE2310:
 1181              	.LBE2311:
 1182              	.LBE2312:
 1183              	.LBE2313:
 1184              		.loc 1 1786 0
 1185 000c 4E800020 		blr
 1186              		.cfi_endproc
 1187              	.LFE2063:
 1188              		.size	_ZN7sigslot12_connection3I14KeyboardWindowP9GuiButtoniRK6_POINTNS_15single_threadedEED2Ev, .
 1189              		.section	.text._ZNK7sigslot12_connection3I14KeyboardWindowP9GuiButtoniRK6_POINTNS_15single_threade
 1190              		.align 2
 1191              		.weak	_ZNK7sigslot12_connection3I14KeyboardWindowP9GuiButtoniRK6_POINTNS_15single_threadedEE7getde
 1192              		.type	_ZNK7sigslot12_connection3I14KeyboardWindowP9GuiButtoniRK6_POINTNS_15single_threadedEE7getde
 1193              	_ZNK7sigslot12_connection3I14KeyboardWindowP9GuiButtoniRK6_POINTNS_15single_threadedEE7getdestEv:
 1194              	.LFB2066:
 1195              		.loc 1 1804 0
 1196              		.cfi_startproc
 1197              	.LVL90:
 1198              		.loc 1 1806 0
 1199 0000 81230004 		lwz 9,4(3)
 1200 0004 38600000 		li 3,0
 1201              	.LVL91:
 1202 0008 2F890000 		cmpwi 7,9,0
 1203 000c 4D9E0020 		beqlr- 7
 1204              		.loc 1 1806 0 is_stmt 0 discriminator 1
 1205 0010 386900B0 		addi 3,9,176
 1206              		.loc 1 1807 0 is_stmt 1 discriminator 1
 1207 0014 4E800020 		blr
 1208              		.cfi_endproc
 1209              	.LFE2066:
 1210              		.size	_ZNK7sigslot12_connection3I14KeyboardWindowP9GuiButtoniRK6_POINTNS_15single_threadedEE7getde
 1211              		.section	.text._ZN7sigslot12_connection3I14KeyboardWindowP9GuiButtoniRK6_POINTNS_15single_threaded
 1212              		.align 2
 1213              		.weak	_ZN7sigslot12_connection3I14KeyboardWindowP9GuiButtoniRK6_POINTNS_15single_threadedEE4emitES
 1214              		.type	_ZN7sigslot12_connection3I14KeyboardWindowP9GuiButtoniRK6_POINTNS_15single_threadedEE4emitES
 1215              	_ZN7sigslot12_connection3I14KeyboardWindowP9GuiButtoniRK6_POINTNS_15single_threadedEE4emitES3_iS6_:
 1216              	.LFB2067:
 1217              		.loc 1 1799 0
 1218              		.cfi_startproc
 1219              	.LVL92:
 1220 0000 7C0802A6 		mflr 0
 1221 0004 9421FFF8 		stwu 1,-8(1)
 1222              	.LCFI18:
 1223              		.cfi_def_cfa_offset 8
 1224              		.cfi_register 65, 0
 1225 0008 9001000C 		stw 0,12(1)
 1226              		.loc 1 1801 0
 1227 000c 80030008 		lwz 0,8(3)
 1228              		.cfi_offset 65, 4
 1229 0010 81630004 		lwz 11,4(3)
 1230 0014 70090001 		andi. 9,0,1
 1231 0018 8123000C 		lwz 9,12(3)
 1232 001c 40820020 		bne- 0,.L80
 1233 0020 7C0903A6 		mtctr 0
 1234 0024 7C6B4A14 		add 3,11,9
 1235              	.LVL93:
 1236 0028 4E800421 		bctrl
 1237              	.LVL94:
 1238              		.loc 1 1802 0
 1239 002c 8001000C 		lwz 0,12(1)
 1240 0030 38210008 		addi 1,1,8
 1241              		.cfi_remember_state
 1242              	.LCFI19:
 1243              		.cfi_def_cfa_offset 0
 1244 0034 7C0803A6 		mtlr 0
 1245 0038 4E800020 		blr
 1246              	.LVL95:
 1247              	.L80:
 1248              	.LCFI20:
 1249              		.cfi_restore_state
 1250              		.loc 1 1801 0 discriminator 1
 1251 003c 7D4B482E 		lwzx 10,11,9
 1252 0040 7C6B4A14 		add 3,11,9
 1253              	.LVL96:
 1254 0044 7D2A0214 		add 9,10,0
 1255 0048 8009FFFF 		lwz 0,-1(9)
 1256 004c 7C0903A6 		mtctr 0
 1257 0050 4E800421 		bctrl
 1258              	.LVL97:
 1259              		.loc 1 1802 0 discriminator 1
 1260 0054 8001000C 		lwz 0,12(1)
 1261 0058 38210008 		addi 1,1,8
 1262              	.LCFI21:
 1263              		.cfi_def_cfa_offset 0
 1264 005c 7C0803A6 		mtlr 0
 1265 0060 4E800020 		blr
 1266              		.cfi_endproc
 1267              	.LFE2067:
 1268              		.size	_ZN7sigslot12_connection3I14KeyboardWindowP9GuiButtoniRK6_POINTNS_15single_threadedEE4emitES
 1269              		.section	.text._ZN7sigslot12_connection3I14KeyboardWindowP9GuiButtoniRK6_POINTNS_15single_threaded
 1270              		.align 2
 1271              		.weak	_ZN7sigslot12_connection3I14KeyboardWindowP9GuiButtoniRK6_POINTNS_15single_threadedEE9duplic
 1272              		.type	_ZN7sigslot12_connection3I14KeyboardWindowP9GuiButtoniRK6_POINTNS_15single_threadedEE9duplic
 1273              	_ZN7sigslot12_connection3I14KeyboardWindowP9GuiButtoniRK6_POINTNS_15single_threadedEE9duplicateEPNS
 1274              	.LFB2075:
 1275              		.loc 1 1794 0
 1276              		.cfi_startproc
 1277              	.LVL98:
 1278 0000 9421FFF0 		stwu 1,-16(1)
 1279              	.LCFI22:
 1280              		.cfi_def_cfa_offset 16
 1281 0004 7C0802A6 		mflr 0
 1282 0008 93C10008 		stw 30,8(1)
 1283 000c 7C9E2378 		mr 30,4
 1284              		.cfi_offset 30, -8
 1285              		.cfi_register 65, 0
 1286 0010 93E1000C 		stw 31,12(1)
 1287 0014 7C7F1B78 		mr 31,3
 1288              		.cfi_offset 31, -4
 1289              		.loc 1 1796 0
 1290 0018 38600010 		li 3,16
 1291              	.LVL99:
 1292              		.loc 1 1794 0
 1293 001c 90010014 		stw 0,20(1)
 1294              		.loc 1 1796 0
 1295              		.cfi_offset 65, 4
 1296 0020 48000001 		bl _Znwj
 1297              	.LVL100:
 1298 0024 2F9E0000 		cmpwi 7,30,0
 1299 0028 38000000 		li 0,0
 1300 002c 419E0008 		beq- 7,.L83
 1301              		.loc 1 1796 0 is_stmt 0 discriminator 1
 1302 0030 381EFF50 		addi 0,30,-176
 1303              	.L83:
 1304              	.LVL101:
 1305              		.loc 1 1796 0 discriminator 3
 1306 0034 817F0008 		lwz 11,8(31)
 1307              	.LVL102:
 1308              	.LBB2314:
 1309              	.LBB2315:
 1310              		.loc 1 1778 0 is_stmt 1 discriminator 3
 1311 0038 3D400000 		lis 10,_ZTVN7sigslot12_connection3I14KeyboardWindowP9GuiButtoniRK6_POINTNS_15single_threadedEEE+8@
 1312              	.LBE2315:
 1313              	.LBE2314:
 1314              		.loc 1 1796 0 discriminator 3
 1315 003c 813F000C 		lwz 9,12(31)
 1316              	.LVL103:
 1317              	.LBB2318:
 1318              	.LBB2316:
 1319              		.loc 1 1778 0 discriminator 3
 1320 0040 394A0008 		la 10,_ZTVN7sigslot12_connection3I14KeyboardWindowP9GuiButtoniRK6_POINTNS_15single_threadedEEE+8@l
 1321              		.loc 1 1780 0 discriminator 3
 1322 0044 91630008 		stw 11,8(3)
 1323 0048 9123000C 		stw 9,12(3)
 1324              		.loc 1 1779 0 discriminator 3
 1325 004c 90030004 		stw 0,4(3)
 1326              	.LBE2316:
 1327              	.LBE2318:
 1328              		.loc 1 1797 0 discriminator 3
 1329 0050 80010014 		lwz 0,20(1)
 1330              	.LVL104:
 1331 0054 83C10008 		lwz 30,8(1)
 1332              	.LVL105:
 1333 0058 7C0803A6 		mtlr 0
 1334 005c 83E1000C 		lwz 31,12(1)
 1335              	.LVL106:
 1336              	.LBB2319:
 1337              	.LBB2317:
 1338              		.loc 1 1778 0 discriminator 3
 1339 0060 91430000 		stw 10,0(3)
 1340              	.LBE2317:
 1341              	.LBE2319:
 1342              		.loc 1 1797 0 discriminator 3
 1343 0064 38210010 		addi 1,1,16
 1344              	.LCFI23:
 1345              		.cfi_def_cfa_offset 0
 1346              		.cfi_restore 31
 1347              		.cfi_restore 30
 1348 0068 4E800020 		blr
 1349              		.cfi_endproc
 1350              	.LFE2075:
 1351              		.size	_ZN7sigslot12_connection3I14KeyboardWindowP9GuiButtoniRK6_POINTNS_15single_threadedEE9duplic
 1352              		.section	.text._ZN7sigslot12_connection3I14KeyboardWindowP9GuiButtoniRK6_POINTNS_15single_threaded
 1353              		.align 2
 1354              		.weak	_ZN7sigslot12_connection3I14KeyboardWindowP9GuiButtoniRK6_POINTNS_15single_threadedEE5cloneE
 1355              		.type	_ZN7sigslot12_connection3I14KeyboardWindowP9GuiButtoniRK6_POINTNS_15single_threadedEE5cloneE
 1356              	_ZN7sigslot12_connection3I14KeyboardWindowP9GuiButtoniRK6_POINTNS_15single_threadedEE5cloneEv:
 1357              	.LFB2068:
 1358              		.loc 1 1789 0
 1359              		.cfi_startproc
 1360              	.LVL107:
 1361 0000 9421FFF0 		stwu 1,-16(1)
 1362              	.LCFI24:
 1363              		.cfi_def_cfa_offset 16
 1364 0004 7C0802A6 		mflr 0
 1365 0008 93E1000C 		stw 31,12(1)
 1366 000c 7C7F1B78 		mr 31,3
 1367              		.cfi_offset 31, -4
 1368              		.cfi_register 65, 0
 1369              		.loc 1 1791 0
 1370 0010 38600010 		li 3,16
 1371              	.LVL108:
 1372              		.loc 1 1789 0
 1373 0014 90010014 		stw 0,20(1)
 1374              		.loc 1 1791 0
 1375              		.cfi_offset 65, 4
 1376 0018 48000001 		bl _Znwj
 1377              		.loc 4 87 0
 1378 001c 801F0004 		lwz 0,4(31)
 1379              	.LVL109:
 1380              	.LBB2320:
 1381              	.LBB2321:
 1382              		.loc 1 1767 0
 1383 0020 3D600000 		lis 11,_ZTVN7sigslot12_connection3I14KeyboardWindowP9GuiButtoniRK6_POINTNS_15single_threadedEEE+8@
 1384 0024 396B0008 		la 11,_ZTVN7sigslot12_connection3I14KeyboardWindowP9GuiButtoniRK6_POINTNS_15single_threadedEEE+8@l
 1385 0028 90030004 		stw 0,4(3)
 1386 002c 91630000 		stw 11,0(3)
 1387 0030 815F0008 		lwz 10,8(31)
 1388 0034 817F000C 		lwz 11,12(31)
 1389 0038 91430008 		stw 10,8(3)
 1390 003c 9163000C 		stw 11,12(3)
 1391              	.LBE2321:
 1392              	.LBE2320:
 1393              		.loc 1 1792 0
 1394 0040 80010014 		lwz 0,20(1)
 1395 0044 83E1000C 		lwz 31,12(1)
 1396              	.LVL110:
 1397 0048 7C0803A6 		mtlr 0
 1398 004c 38210010 		addi 1,1,16
 1399              	.LCFI25:
 1400              		.cfi_def_cfa_offset 0
 1401              		.cfi_restore 31
 1402 0050 4E800020 		blr
 1403              		.cfi_endproc
 1404              	.LFE2068:
 1405              		.size	_ZN7sigslot12_connection3I14KeyboardWindowP9GuiButtoniRK6_POINTNS_15single_threadedEE5cloneE
 1406              		.section	.text._ZN7sigslot13_signal_base2IP14KeyboardWindowPwNS_15single_threadedEE14slot_duplicat
 1407              		.align 2
 1408              		.weak	_ZN7sigslot13_signal_base2IP14KeyboardWindowPwNS_15single_threadedEE14slot_duplicateEPKNS_9h
 1409              		.type	_ZN7sigslot13_signal_base2IP14KeyboardWindowPwNS_15single_threadedEE14slot_duplicateEPKNS_9h
 1410              	_ZN7sigslot13_signal_base2IP14KeyboardWindowPwNS_15single_threadedEE14slot_duplicateEPKNS_9has_slot
 1411              	.LFB2077:
 1412              		.loc 1 806 0
 1413              		.cfi_startproc
 1414              		.cfi_personality 0,__gxx_personality_v0
 1415              		.cfi_lsda 0,.LLSDA2077
 1416              	.LVL111:
 1417 0000 7C0802A6 		mflr 0
 1418 0004 9421FFE0 		stwu 1,-32(1)
 1419              	.LCFI26:
 1420              		.cfi_def_cfa_offset 32
 1421              		.cfi_register 65, 0
 1422 0008 93410008 		stw 26,8(1)
 1423 000c 7CBA2B78 		mr 26,5
 1424              		.cfi_offset 26, -24
 1425 0010 90010024 		stw 0,36(1)
 1426 0014 9361000C 		stw 27,12(1)
 1427 0018 7C7B1B78 		mr 27,3
 1428              		.cfi_offset 27, -20
 1429              		.cfi_offset 65, 4
 1430              	.LVL112:
 1431              	.LBB2322:
 1432              	.LBB2323:
 1433              	.LBB2324:
 1434              		.loc 1 338 0
 1435 001c 81230000 		lwz 9,0(3)
 1436              	.LBE2324:
 1437              	.LBE2323:
 1438              	.LBE2322:
 1439              		.loc 1 806 0
 1440 0020 93A10014 		stw 29,20(1)
 1441 0024 7C9D2378 		mr 29,4
 1442              		.cfi_offset 29, -12
 1443              	.LBB2353:
 1444              	.LBB2329:
 1445              	.LBB2325:
 1446              		.loc 1 338 0
 1447 0028 80090008 		lwz 0,8(9)
 1448              	.LBE2325:
 1449              	.LBE2329:
 1450              	.LBE2353:
 1451              		.loc 1 806 0
 1452 002c 93C10018 		stw 30,24(1)
 1453              	.LBB2354:
 1454              	.LBB2330:
 1455              	.LBB2326:
 1456              		.loc 4 87 0
 1457 0030 7F7EDB78 		mr 30,27
 1458              		.cfi_offset 30, -8
 1459              	.LBE2326:
 1460              	.LBE2330:
 1461              	.LBE2354:
 1462              		.loc 1 806 0
 1463 0034 93E1001C 		stw 31,28(1)
 1464              	.LBB2355:
 1465              	.LBB2331:
 1466              	.LBB2327:
 1467              		.loc 1 338 0
 1468 0038 7C0903A6 		mtctr 0
 1469              	.LBE2327:
 1470              	.LBE2331:
 1471              	.LBE2355:
 1472              		.loc 1 806 0
 1473 003c 93810010 		stw 28,16(1)
 1474              	.LEHB0:
 1475              	.LBB2356:
 1476              	.LBB2332:
 1477              	.LBB2328:
 1478              		.loc 1 338 0
 1479              		.cfi_offset 28, -16
 1480              		.cfi_offset 31, -4
 1481 0040 4E800421 		bctrl
 1482              	.LEHE0:
 1483              	.LVL113:
 1484              		.loc 4 87 0
 1485 0044 87FE0004 		lwzu 31,4(30)
 1486              	.LVL114:
 1487              	.LBE2328:
 1488              	.LBE2332:
 1489              		.loc 1 812 0
 1490 0048 7F9FF000 		cmpw 7,31,30
 1491 004c 40BE0014 		bne+ 7,.L96
 1492 0050 48000070 		b .L87
 1493              	.LVL115:
 1494              	.L88:
 1495              	.LBB2333:
 1496              	.LBB2334:
 1497              		.file 5 "d:\\devkitpro\\devkitppc\\bin\\../lib/gcc/powerpc-eabi/4.6.3/../../../../powerpc-eabi/inc
 1498              		.loc 5 154 0
 1499 0054 83FF0000 		lwz 31,0(31)
 1500              	.LVL116:
 1501              	.LBE2334:
 1502              	.LBE2333:
 1503              		.loc 1 812 0
 1504 0058 7F9EF800 		cmpw 7,30,31
 1505 005c 419E0064 		beq- 7,.L87
 1506              	.LVL117:
 1507              	.L96:
 1508              		.loc 1 814 0
 1509 0060 807F0008 		lwz 3,8(31)
 1510 0064 81230000 		lwz 9,0(3)
 1511 0068 80090008 		lwz 0,8(9)
 1512 006c 7C0903A6 		mtctr 0
 1513              	.LEHB1:
 1514 0070 4E800421 		bctrl
 1515 0074 7F9D1800 		cmpw 7,29,3
 1516 0078 409EFFDC 		bne+ 7,.L88
 1517              	.LVL118:
 1518              		.loc 1 816 0
 1519 007c 807F0008 		lwz 3,8(31)
 1520 0080 7F44D378 		mr 4,26
 1521 0084 81230000 		lwz 9,0(3)
 1522 0088 80090014 		lwz 0,20(9)
 1523 008c 7C0903A6 		mtctr 0
 1524 0090 4E800421 		bctrl
 1525 0094 7C7C1B78 		mr 28,3
 1526              	.LVL119:
 1527              	.LBB2336:
 1528              	.LBB2337:
 1529              	.LBB2338:
 1530              	.LBB2339:
 1531              	.LBB2340:
 1532              	.LBB2341:
 1533              	.LBB2342:
 1534              	.LBB2343:
 1535              		.file 6 "d:\\devkitpro\\devkitppc\\bin\\../lib/gcc/powerpc-eabi/4.6.3/../../../../powerpc-eabi/inc
 1536              		.loc 6 92 0
 1537 0098 3860000C 		li 3,12
 1538 009c 48000001 		bl _Znwj
 1539              	.LEHE1:
 1540              	.LVL120:
 1541              	.LBE2343:
 1542              	.LBE2342:
 1543              	.LBE2341:
 1544              	.LBB2344:
 1545              	.LBB2345:
 1546              		.loc 6 108 0 discriminator 1
 1547 00a0 2F83FFF8 		cmpwi 7,3,-8
 1548 00a4 419E0008 		beq- 7,.L90
 1549              		.loc 6 108 0 is_stmt 0
 1550 00a8 93830008 		stw 28,8(3)
 1551              	.L90:
 1552              	.LVL121:
 1553              	.LBE2345:
 1554              	.LBE2344:
 1555              	.LBE2340:
 1556              	.LBE2339:
 1557              		.loc 5 1516 0 is_stmt 1
 1558 00ac 7FC4F378 		mr 4,30
 1559 00b0 48000001 		bl _ZNSt8__detail15_List_node_base7_M_hookEPS0_
 1560              	.LVL122:
 1561              	.LBE2338:
 1562              	.LBE2337:
 1563              	.LBE2336:
 1564              	.LBB2346:
 1565              	.LBB2335:
 1566              		.loc 5 154 0
 1567 00b4 83FF0000 		lwz 31,0(31)
 1568              	.LVL123:
 1569              	.LBE2335:
 1570              	.LBE2346:
 1571              		.loc 1 812 0
 1572 00b8 7F9EF800 		cmpw 7,30,31
 1573 00bc 409EFFA4 		bne+ 7,.L96
 1574              	.LVL124:
 1575              	.L87:
 1576              	.LBB2347:
 1577              	.LBB2348:
 1578              	.LBB2349:
 1579              		.loc 1 343 0
 1580 00c0 813B0000 		lwz 9,0(27)
 1581 00c4 7F63DB78 		mr 3,27
 1582 00c8 8009000C 		lwz 0,12(9)
 1583 00cc 7C0903A6 		mtctr 0
 1584              	.LEHB2:
 1585 00d0 4E800421 		bctrl
 1586              	.LEHE2:
 1587              	.LBE2349:
 1588              	.LBE2348:
 1589              	.LBE2347:
 1590              	.LBE2356:
 1591              		.loc 1 821 0
 1592 00d4 80010024 		lwz 0,36(1)
 1593 00d8 83410008 		lwz 26,8(1)
 1594              	.LVL125:
 1595 00dc 7C0803A6 		mtlr 0
 1596 00e0 8361000C 		lwz 27,12(1)
 1597              	.LVL126:
 1598 00e4 83810010 		lwz 28,16(1)
 1599 00e8 83A10014 		lwz 29,20(1)
 1600              	.LVL127:
 1601 00ec 83C10018 		lwz 30,24(1)
 1602              	.LVL128:
 1603 00f0 83E1001C 		lwz 31,28(1)
 1604              	.LVL129:
 1605 00f4 38210020 		addi 1,1,32
 1606              		.cfi_remember_state
 1607              	.LCFI27:
 1608              		.cfi_def_cfa_offset 0
 1609              		.cfi_restore 31
 1610              		.cfi_restore 30
 1611              		.cfi_restore 29
 1612              		.cfi_restore 28
 1613              		.cfi_restore 27
 1614              		.cfi_restore 26
 1615 00f8 4E800020 		blr
 1616              	.LVL130:
 1617              	.L95:
 1618              	.LCFI28:
 1619              		.cfi_restore_state
 1620              	.LBB2357:
 1621              	.LBB2350:
 1622              	.LBB2351:
 1623              	.LBB2352:
 1624              		.loc 1 343 0
 1625 00fc 813B0000 		lwz 9,0(27)
 1626 0100 7C7F1B78 		mr 31,3
 1627              	.LVL131:
 1628 0104 7F63DB78 		mr 3,27
 1629 0108 8009000C 		lwz 0,12(9)
 1630 010c 7C0903A6 		mtctr 0
 1631 0110 4E800421 		bctrl
 1632 0114 7FE3FB78 		mr 3,31
 1633              	.LEHB3:
 1634 0118 48000001 		bl _Unwind_Resume
 1635              	.LEHE3:
 1636              	.LBE2352:
 1637              	.LBE2351:
 1638              	.LBE2350:
 1639              	.LBE2357:
 1640              		.cfi_endproc
 1641              	.LFE2077:
 1642              		.globl __gxx_personality_v0
 1643              		.section	.gcc_except_table,"a",@progbits
 1644              	.LLSDA2077:
 1645 0000 FF       		.byte	0xff
 1646 0001 FF       		.byte	0xff
 1647 0002 01       		.byte	0x1
 1648 0003 13       		.uleb128 .LLSDACSE2077-.LLSDACSB2077
 1649              	.LLSDACSB2077:
 1650 0004 40       		.uleb128 .LEHB0-.LFB2077
 1651 0005 04       		.uleb128 .LEHE0-.LEHB0
 1652 0006 00       		.uleb128 0
 1653 0007 00       		.uleb128 0
 1654 0008 70       		.uleb128 .LEHB1-.LFB2077
 1655 0009 30       		.uleb128 .LEHE1-.LEHB1
 1656 000a FC01     		.uleb128 .L95-.LFB2077
 1657 000c 00       		.uleb128 0
 1658 000d D001     		.uleb128 .LEHB2-.LFB2077
 1659 000f 04       		.uleb128 .LEHE2-.LEHB2
 1660 0010 00       		.uleb128 0
 1661 0011 00       		.uleb128 0
 1662 0012 9802     		.uleb128 .LEHB3-.LFB2077
 1663 0014 04       		.uleb128 .LEHE3-.LEHB3
 1664 0015 00       		.uleb128 0
 1665 0016 00       		.uleb128 0
 1666              	.LLSDACSE2077:
 1667              		.section	.text._ZN7sigslot13_signal_base2IP14KeyboardWindowPwNS_15single_threadedEE14slot_duplicat
 1668              		.size	_ZN7sigslot13_signal_base2IP14KeyboardWindowPwNS_15single_threadedEE14slot_duplicateEPKNS_9h
 1669              		.section	.text._ZN7sigslot12_connection3I14KeyboardWindowP9GuiButtoniRK6_POINTNS_15single_threaded
 1670              		.align 2
 1671              		.weak	_ZN7sigslot12_connection3I14KeyboardWindowP9GuiButtoniRK6_POINTNS_15single_threadedEED0Ev
 1672              		.type	_ZN7sigslot12_connection3I14KeyboardWindowP9GuiButtoniRK6_POINTNS_15single_threadedEED0Ev, @
 1673              	_ZN7sigslot12_connection3I14KeyboardWindowP9GuiButtoniRK6_POINTNS_15single_threadedEED0Ev:
 1674              	.LFB2065:
 1675              		.loc 1 1783 0
 1676              		.cfi_startproc
 1677              	.LVL132:
 1678 0000 7C0802A6 		mflr 0
 1679 0004 9421FFF8 		stwu 1,-8(1)
 1680              	.LCFI29:
 1681              		.cfi_def_cfa_offset 8
 1682              		.cfi_register 65, 0
 1683              	.LBB2358:
 1684              	.LBB2359:
 1685              	.LBB2360:
 1686              	.LBB2361:
 1687              	.LBB2362:
 1688              	.LBB2363:
 1689              		.loc 1 387 0
 1690 0008 3D200000 		lis 9,_ZTVN7sigslot17_connection_base3IP9GuiButtoniRK6_POINTNS_15single_threadedEEE+8@ha
 1691              	.LBE2363:
 1692              	.LBE2362:
 1693              	.LBE2361:
 1694              	.LBE2360:
 1695              	.LBE2359:
 1696              	.LBE2358:
 1697              		.loc 1 1783 0
 1698 000c 9001000C 		stw 0,12(1)
 1699              	.LBB2369:
 1700              	.LBB2368:
 1701              	.LBB2367:
 1702              	.LBB2366:
 1703              	.LBB2365:
 1704              	.LBB2364:
 1705              		.loc 1 387 0
 1706 0010 38090008 		la 0,_ZTVN7sigslot17_connection_base3IP9GuiButtoniRK6_POINTNS_15single_threadedEEE+8@l(9)
 1707              		.cfi_offset 65, 4
 1708 0014 90030000 		stw 0,0(3)
 1709              	.LBE2364:
 1710              	.LBE2365:
 1711              	.LBE2366:
 1712              	.LBE2367:
 1713              	.LBE2368:
 1714              	.LBE2369:
 1715              		.loc 1 1786 0
 1716 0018 48000001 		bl _ZdlPv
 1717              	.LVL133:
 1718 001c 8001000C 		lwz 0,12(1)
 1719 0020 38210008 		addi 1,1,8
 1720              	.LCFI30:
 1721              		.cfi_def_cfa_offset 0
 1722 0024 7C0803A6 		mtlr 0
 1723 0028 4E800020 		blr
 1724              		.cfi_endproc
 1725              	.LFE2065:
 1726              		.size	_ZN7sigslot12_connection3I14KeyboardWindowP9GuiButtoniRK6_POINTNS_15single_threadedEED0Ev, .
 1727              		.section	.text._ZN7sigslot17_connection_base3IP9GuiButtoniRK6_POINTNS_15single_threadedEED0Ev,"axG
 1728              		.align 2
 1729              		.weak	_ZN7sigslot17_connection_base3IP9GuiButtoniRK6_POINTNS_15single_threadedEED0Ev
 1730              		.type	_ZN7sigslot17_connection_base3IP9GuiButtoniRK6_POINTNS_15single_threadedEED0Ev, @function
 1731              	_ZN7sigslot17_connection_base3IP9GuiButtoniRK6_POINTNS_15single_threadedEED0Ev:
 1732              	.LFB1780:
 1733              		.loc 1 387 0
 1734              		.cfi_startproc
 1735              	.LVL134:
 1736 0000 7C0802A6 		mflr 0
 1737 0004 9421FFF8 		stwu 1,-8(1)
 1738              	.LCFI31:
 1739              		.cfi_def_cfa_offset 8
 1740              		.cfi_register 65, 0
 1741              	.LBB2370:
 1742              	.LBB2371:
 1743              	.LBB2372:
 1744 0008 3D200000 		lis 9,_ZTVN7sigslot17_connection_base3IP9GuiButtoniRK6_POINTNS_15single_threadedEEE+8@ha
 1745              	.LBE2372:
 1746              	.LBE2371:
 1747              	.LBE2370:
 1748 000c 9001000C 		stw 0,12(1)
 1749              	.LBB2375:
 1750              	.LBB2374:
 1751              	.LBB2373:
 1752              		.loc 1 387 0
 1753 0010 38090008 		la 0,_ZTVN7sigslot17_connection_base3IP9GuiButtoniRK6_POINTNS_15single_threadedEEE+8@l(9)
 1754              		.cfi_offset 65, 4
 1755 0014 90030000 		stw 0,0(3)
 1756              	.LBE2373:
 1757              	.LBE2374:
 1758              	.LBE2375:
 1759 0018 48000001 		bl _ZdlPv
 1760              	.LVL135:
 1761 001c 8001000C 		lwz 0,12(1)
 1762 0020 38210008 		addi 1,1,8
 1763              	.LCFI32:
 1764              		.cfi_def_cfa_offset 0
 1765 0024 7C0803A6 		mtlr 0
 1766 0028 4E800020 		blr
 1767              		.cfi_endproc
 1768              	.LFE1780:
 1769              		.size	_ZN7sigslot17_connection_base3IP9GuiButtoniRK6_POINTNS_15single_threadedEED0Ev, .-_ZN7sigslo
 1770              		.section	.text._ZN7sigslot12_signal_baseINS_15single_threadedEED0Ev,"axG",@progbits,_ZN7sigslot12_
 1771              		.align 2
 1772              		.weak	_ZN7sigslot12_signal_baseINS_15single_threadedEED0Ev
 1773              		.type	_ZN7sigslot12_signal_baseINS_15single_threadedEED0Ev, @function
 1774              	_ZN7sigslot12_signal_baseINS_15single_threadedEED0Ev:
 1775              	.LFB1636:
 1776              		.loc 1 466 0
 1777              		.cfi_startproc
 1778              	.LVL136:
 1779 0000 7C0802A6 		mflr 0
 1780 0004 9421FFF8 		stwu 1,-8(1)
 1781              	.LCFI33:
 1782              		.cfi_def_cfa_offset 8
 1783              		.cfi_register 65, 0
 1784              	.LBB2376:
 1785              	.LBB2377:
 1786              	.LBB2378:
 1787              	.LBB2379:
 1788              	.LBB2380:
 1789              	.LBB2381:
 1790              		.loc 1 105 0
 1791 0008 3D200000 		lis 9,_ZTVN7sigslot15single_threadedE+8@ha
 1792              	.LBE2381:
 1793              	.LBE2380:
 1794              	.LBE2379:
 1795              	.LBE2378:
 1796              	.LBE2377:
 1797              	.LBE2376:
 1798              		.loc 1 466 0
 1799 000c 9001000C 		stw 0,12(1)
 1800              	.LBB2387:
 1801              	.LBB2386:
 1802              	.LBB2385:
 1803              	.LBB2384:
 1804              	.LBB2383:
 1805              	.LBB2382:
 1806              		.loc 1 105 0
 1807 0010 38090008 		la 0,_ZTVN7sigslot15single_threadedE+8@l(9)
 1808              		.cfi_offset 65, 4
 1809 0014 90030000 		stw 0,0(3)
 1810              	.LBE2382:
 1811              	.LBE2383:
 1812              	.LBE2384:
 1813              	.LBE2385:
 1814              	.LBE2386:
 1815              	.LBE2387:
 1816              		.loc 1 466 0
 1817 0018 48000001 		bl _ZdlPv
 1818              	.LVL137:
 1819 001c 8001000C 		lwz 0,12(1)
 1820 0020 38210008 		addi 1,1,8
 1821              	.LCFI34:
 1822              		.cfi_def_cfa_offset 0
 1823 0024 7C0803A6 		mtlr 0
 1824 0028 4E800020 		blr
 1825              		.cfi_endproc
 1826              	.LFE1636:
 1827              		.size	_ZN7sigslot12_signal_baseINS_15single_threadedEED0Ev, .-_ZN7sigslot12_signal_baseINS_15singl
 1828              		.section	.text._ZN7sigslot15single_threadedD0Ev,"axG",@progbits,_ZN7sigslot15single_threadedD5Ev,c
 1829              		.align 2
 1830              		.weak	_ZN7sigslot15single_threadedD0Ev
 1831              		.type	_ZN7sigslot15single_threadedD0Ev, @function
 1832              	_ZN7sigslot15single_threadedD0Ev:
 1833              	.LFB1150:
 1834              		.loc 1 104 0
 1835              		.cfi_startproc
 1836              	.LVL138:
 1837 0000 7C0802A6 		mflr 0
 1838 0004 9421FFF8 		stwu 1,-8(1)
 1839              	.LCFI35:
 1840              		.cfi_def_cfa_offset 8
 1841              		.cfi_register 65, 0
 1842              	.LBB2388:
 1843              	.LBB2389:
 1844              	.LBB2390:
 1845              		.loc 1 105 0
 1846 0008 3D200000 		lis 9,_ZTVN7sigslot15single_threadedE+8@ha
 1847              	.LBE2390:
 1848              	.LBE2389:
 1849              	.LBE2388:
 1850              		.loc 1 104 0
 1851 000c 9001000C 		stw 0,12(1)
 1852              	.LBB2393:
 1853              	.LBB2392:
 1854              	.LBB2391:
 1855              		.loc 1 105 0
 1856 0010 38090008 		la 0,_ZTVN7sigslot15single_threadedE+8@l(9)
 1857              		.cfi_offset 65, 4
 1858 0014 90030000 		stw 0,0(3)
 1859              	.LBE2391:
 1860              	.LBE2392:
 1861              	.LBE2393:
 1862              		.loc 1 107 0
 1863 0018 48000001 		bl _ZdlPv
 1864              	.LVL139:
 1865 001c 8001000C 		lwz 0,12(1)
 1866 0020 38210008 		addi 1,1,8
 1867              	.LCFI36:
 1868              		.cfi_def_cfa_offset 0
 1869 0024 7C0803A6 		mtlr 0
 1870 0028 4E800020 		blr
 1871              		.cfi_endproc
 1872              	.LFE1150:
 1873              		.size	_ZN7sigslot15single_threadedD0Ev, .-_ZN7sigslot15single_threadedD0Ev
 1874              		.section	.text._ZN7sigslot13_signal_base2IP14KeyboardWindowPwNS_15single_threadedEE15slot_disconne
 1875              		.align 2
 1876              		.weak	_ZN7sigslot13_signal_base2IP14KeyboardWindowPwNS_15single_threadedEE15slot_disconnectEPNS_9h
 1877              		.type	_ZN7sigslot13_signal_base2IP14KeyboardWindowPwNS_15single_threadedEE15slot_disconnectEPNS_9h
 1878              	_ZN7sigslot13_signal_base2IP14KeyboardWindowPwNS_15single_threadedEE15slot_disconnectEPNS_9has_slot
 1879              	.LFB2076:
 1880              		.loc 1 870 0
 1881              		.cfi_startproc
 1882              		.cfi_personality 0,__gxx_personality_v0
 1883              		.cfi_lsda 0,.LLSDA2076
 1884              	.LVL140:
 1885 0000 7C0802A6 		mflr 0
 1886 0004 9421FFE0 		stwu 1,-32(1)
 1887              	.LCFI37:
 1888              		.cfi_def_cfa_offset 32
 1889              		.cfi_register 65, 0
 1890 0008 9361000C 		stw 27,12(1)
 1891 000c 7C7B1B78 		mr 27,3
 1892              		.cfi_offset 27, -20
 1893              	.LVL141:
 1894 0010 90010024 		stw 0,36(1)
 1895 0014 93810010 		stw 28,16(1)
 1896 0018 7C9C2378 		mr 28,4
 1897              		.cfi_offset 28, -16
 1898              		.cfi_offset 65, 4
 1899              	.LBB2394:
 1900              	.LBB2395:
 1901              	.LBB2396:
 1902              		.loc 1 338 0
 1903 001c 81230000 		lwz 9,0(3)
 1904              	.LBE2396:
 1905              	.LBE2395:
 1906              	.LBE2394:
 1907              		.loc 1 870 0
 1908 0020 93A10014 		stw 29,20(1)
 1909              	.LBB2417:
 1910              	.LBB2399:
 1911              	.LBB2397:
 1912              		.loc 4 87 0
 1913 0024 7F7DDB78 		mr 29,27
 1914              		.cfi_offset 29, -12
 1915              		.loc 1 338 0
 1916 0028 80090008 		lwz 0,8(9)
 1917              	.LBE2397:
 1918              	.LBE2399:
 1919              	.LBE2417:
 1920              		.loc 1 870 0
 1921 002c 93E1001C 		stw 31,28(1)
 1922 0030 93C10018 		stw 30,24(1)
 1923              	.LBB2418:
 1924              	.LBB2400:
 1925              	.LBB2398:
 1926              		.loc 1 338 0
 1927 0034 7C0903A6 		mtctr 0
 1928              	.LEHB4:
 1929              		.cfi_offset 30, -8
 1930              		.cfi_offset 31, -4
 1931 0038 4E800421 		bctrl
 1932              	.LEHE4:
 1933              	.LVL142:
 1934              		.loc 4 87 0
 1935 003c 87FD0004 		lwzu 31,4(29)
 1936              	.LVL143:
 1937              	.LBE2398:
 1938              	.LBE2400:
 1939              		.loc 1 876 0
 1940 0040 7F9FE800 		cmpw 7,31,29
 1941 0044 40BE0014 		bne+ 7,.L124
 1942 0048 48000064 		b .L113
 1943              	.LVL144:
 1944              	.L114:
 1945              		.loc 1 876 0 is_stmt 0 discriminator 1
 1946 004c 7F9DF000 		cmpw 7,29,30
 1947 0050 419E005C 		beq- 7,.L113
 1948              	.L122:
 1949              		.loc 1 876 0
 1950 0054 7FDFF378 		mr 31,30
 1951              	.LVL145:
 1952              	.L124:
 1953              	.LBB2401:
 1954              		.loc 1 881 0 is_stmt 1
 1955 0058 807F0008 		lwz 3,8(31)
 1956              	.LBB2402:
 1957              	.LBB2403:
 1958              		.loc 5 154 0
 1959 005c 83DF0000 		lwz 30,0(31)
 1960              	.LVL146:
 1961              	.LBE2403:
 1962              	.LBE2402:
 1963              		.loc 1 881 0
 1964 0060 81230000 		lwz 9,0(3)
 1965 0064 80090008 		lwz 0,8(9)
 1966 0068 7C0903A6 		mtctr 0
 1967              	.LEHB5:
 1968 006c 4E800421 		bctrl
 1969              	.LVL147:
 1970 0070 7F9C1800 		cmpw 7,28,3
 1971 0074 409EFFD8 		bne+ 7,.L114
 1972              	.LVL148:
 1973              		.loc 1 883 0
 1974 0078 807F0008 		lwz 3,8(31)
 1975 007c 2F830000 		cmpwi 7,3,0
 1976 0080 419E0014 		beq- 7,.L115
 1977              		.loc 1 883 0 is_stmt 0 discriminator 1
 1978 0084 81230000 		lwz 9,0(3)
 1979 0088 80090004 		lwz 0,4(9)
 1980 008c 7C0903A6 		mtctr 0
 1981 0090 4E800421 		bctrl
 1982              	.LEHE5:
 1983              	.L115:
 1984              	.LVL149:
 1985              	.LBB2404:
 1986              	.LBB2405:
 1987              	.LBB2406:
 1988              	.LBB2407:
 1989              		.loc 5 1532 0 is_stmt 1
 1990 0094 7FE3FB78 		mr 3,31
 1991 0098 48000001 		bl _ZNSt8__detail15_List_node_base9_M_unhookEv
 1992              	.LVL150:
 1993              	.LBB2408:
 1994              	.LBB2409:
 1995              	.LBB2410:
 1996              		.loc 6 98 0
 1997 009c 7FE3FB78 		mr 3,31
 1998 00a0 48000001 		bl _ZdlPv
 1999              	.LVL151:
 2000              	.LBE2410:
 2001              	.LBE2409:
 2002              	.LBE2408:
 2003              	.LBE2407:
 2004              	.LBE2406:
 2005              	.LBE2405:
 2006              	.LBE2404:
 2007              	.LBE2401:
 2008              		.loc 1 876 0
 2009 00a4 7F9DF000 		cmpw 7,29,30
 2010 00a8 409EFFAC 		bne+ 7,.L122
 2011              	.LVL152:
 2012              	.L113:
 2013              	.LBB2411:
 2014              	.LBB2412:
 2015              	.LBB2413:
 2016              		.loc 1 343 0
 2017 00ac 813B0000 		lwz 9,0(27)
 2018 00b0 7F63DB78 		mr 3,27
 2019 00b4 8009000C 		lwz 0,12(9)
 2020 00b8 7C0903A6 		mtctr 0
 2021              	.LEHB6:
 2022 00bc 4E800421 		bctrl
 2023              	.LEHE6:
 2024              	.LBE2413:
 2025              	.LBE2412:
 2026              	.LBE2411:
 2027              	.LBE2418:
 2028              		.loc 1 890 0
 2029 00c0 80010024 		lwz 0,36(1)
 2030 00c4 8361000C 		lwz 27,12(1)
 2031              	.LVL153:
 2032 00c8 7C0803A6 		mtlr 0
 2033 00cc 83810010 		lwz 28,16(1)
 2034              	.LVL154:
 2035 00d0 83A10014 		lwz 29,20(1)
 2036              	.LVL155:
 2037 00d4 83C10018 		lwz 30,24(1)
 2038 00d8 83E1001C 		lwz 31,28(1)
 2039 00dc 38210020 		addi 1,1,32
 2040              		.cfi_remember_state
 2041              	.LCFI38:
 2042              		.cfi_def_cfa_offset 0
 2043              		.cfi_restore 31
 2044              		.cfi_restore 30
 2045              		.cfi_restore 29
 2046              		.cfi_restore 28
 2047              		.cfi_restore 27
 2048 00e0 4E800020 		blr
 2049              	.LVL156:
 2050              	.L123:
 2051              	.LCFI39:
 2052              		.cfi_restore_state
 2053              	.LBB2419:
 2054              	.LBB2414:
 2055              	.LBB2415:
 2056              	.LBB2416:
 2057              		.loc 1 343 0
 2058 00e4 813B0000 		lwz 9,0(27)
 2059 00e8 7C7F1B78 		mr 31,3
 2060              	.LVL157:
 2061 00ec 7F63DB78 		mr 3,27
 2062 00f0 8009000C 		lwz 0,12(9)
 2063 00f4 7C0903A6 		mtctr 0
 2064 00f8 4E800421 		bctrl
 2065 00fc 7FE3FB78 		mr 3,31
 2066              	.LEHB7:
 2067 0100 48000001 		bl _Unwind_Resume
 2068              	.LEHE7:
 2069              	.LBE2416:
 2070              	.LBE2415:
 2071              	.LBE2414:
 2072              	.LBE2419:
 2073              		.cfi_endproc
 2074              	.LFE2076:
 2075              		.section	.gcc_except_table
 2076              	.LLSDA2076:
 2077 0017 FF       		.byte	0xff
 2078 0018 FF       		.byte	0xff
 2079 0019 01       		.byte	0x1
 2080 001a 13       		.uleb128 .LLSDACSE2076-.LLSDACSB2076
 2081              	.LLSDACSB2076:
 2082 001b 38       		.uleb128 .LEHB4-.LFB2076
 2083 001c 04       		.uleb128 .LEHE4-.LEHB4
 2084 001d 00       		.uleb128 0
 2085 001e 00       		.uleb128 0
 2086 001f 6C       		.uleb128 .LEHB5-.LFB2076
 2087 0020 28       		.uleb128 .LEHE5-.LEHB5
 2088 0021 E401     		.uleb128 .L123-.LFB2076
 2089 0023 00       		.uleb128 0
 2090 0024 BC01     		.uleb128 .LEHB6-.LFB2076
 2091 0026 04       		.uleb128 .LEHE6-.LEHB6
 2092 0027 00       		.uleb128 0
 2093 0028 00       		.uleb128 0
 2094 0029 8002     		.uleb128 .LEHB7-.LFB2076
 2095 002b 04       		.uleb128 .LEHE7-.LEHB7
 2096 002c 00       		.uleb128 0
 2097 002d 00       		.uleb128 0
 2098              	.LLSDACSE2076:
 2099              		.section	.text._ZN7sigslot13_signal_base2IP14KeyboardWindowPwNS_15single_threadedEE15slot_disconne
 2100              		.size	_ZN7sigslot13_signal_base2IP14KeyboardWindowPwNS_15single_threadedEE15slot_disconnectEPNS_9h
 2101              		.section	".text"
 2102              		.align 2
 2103              		.globl _ZN14KeyboardWindow15OnOkButtonClickEP9GuiButtoniRK6_POINT
 2104              		.type	_ZN14KeyboardWindow15OnOkButtonClickEP9GuiButtoniRK6_POINT, @function
 2105              	_ZN14KeyboardWindow15OnOkButtonClickEP9GuiButtoniRK6_POINT:
 2106              	.LFB1575:
 2107              		.loc 4 76 0
 2108              		.cfi_startproc
 2109              		.cfi_personality 0,__gxx_personality_v0
 2110              		.cfi_lsda 0,.LLSDA1575
 2111              	.LVL158:
 2112 000c 7C0802A6 		mflr 0
 2113 0010 9421FFE0 		stwu 1,-32(1)
 2114              	.LCFI40:
 2115              		.cfi_def_cfa_offset 32
 2116              		.cfi_register 65, 0
 2117 0014 9361000C 		stw 27,12(1)
 2118 0018 90010024 		stw 0,36(1)
 2119              		.loc 4 77 0
 2120 001c 38000001 		li 0,1
 2121              		.cfi_offset 65, 4
 2122              		.cfi_offset 27, -20
 2123              		.loc 4 76 0
 2124 0020 93810010 		stw 28,16(1)
 2125 0024 93A10014 		stw 29,20(1)
 2126 0028 93C10018 		stw 30,24(1)
 2127 002c 7C7E1B78 		mr 30,3
 2128              		.cfi_offset 30, -8
 2129              		.cfi_offset 29, -12
 2130              		.cfi_offset 28, -16
 2131 0030 93E1001C 		stw 31,28(1)
 2132              	.LBB2420:
 2133              	.LBB2421:
 2134              		.loc 1 2270 0
 2135 0034 3B7E00CC 		addi 27,30,204
 2136              	.LBE2421:
 2137              	.LBE2420:
 2138              		.loc 4 78 0
 2139 0038 83E300E0 		lwz 31,224(3)
 2140              		.cfi_offset 31, -4
 2141              	.LBB2441:
 2142              		.loc 4 87 0
 2143 003c 7FDDF378 		mr 29,30
 2144              	.LBE2441:
 2145              		.loc 4 77 0
 2146 0040 900300DC 		stw 0,220(3)
 2147              		.loc 4 78 0
 2148 0044 806300F8 		lwz 3,248(3)
 2149              	.LVL159:
 2150              	.LEHB8:
 2151 0048 48000001 		bl _ZN11GuiKeyboard9GetStringEv
 2152              	.LVL160:
 2153 004c 80BE00D8 		lwz 5,216(30)
 2154 0050 7C641B78 		mr 4,3
 2155 0054 7FE3FB78 		mr 3,31
 2156 0058 48000001 		bl wcsncpy
 2157              		.loc 4 79 0
 2158 005c 813E00D8 		lwz 9,216(30)
 2159 0060 839E00E0 		lwz 28,224(30)
 2160 0064 39600000 		li 11,0
 2161 0068 3809FFFF 		addi 0,9,-1
 2162              	.LBB2442:
 2163              	.LBB2436:
 2164              	.LBB2422:
 2165              	.LBB2423:
 2166              		.loc 1 338 0
 2167 006c 813E00CC 		lwz 9,204(30)
 2168              	.LBE2423:
 2169              	.LBE2422:
 2170              	.LBE2436:
 2171              	.LBE2442:
 2172              		.loc 4 79 0
 2173 0070 5400103A 		slwi 0,0,2
 2174              	.LBB2443:
 2175              	.LBB2437:
 2176              	.LBB2426:
 2177              	.LBB2424:
 2178              		.loc 1 338 0
 2179 0074 7F63DB78 		mr 3,27
 2180              	.LBE2424:
 2181              	.LBE2426:
 2182              	.LBE2437:
 2183              	.LBE2443:
 2184              		.loc 4 79 0
 2185 0078 7D7C012E 		stwx 11,28,0
 2186              	.LVL161:
 2187              	.LBB2444:
 2188              	.LBB2438:
 2189              	.LBB2427:
 2190              	.LBB2425:
 2191              		.loc 1 338 0
 2192 007c 80090008 		lwz 0,8(9)
 2193 0080 7C0903A6 		mtctr 0
 2194 0084 4E800421 		bctrl
 2195              	.LEHE8:
 2196              	.LVL162:
 2197              	.LBE2425:
 2198              	.LBE2427:
 2199              	.LBE2438:
 2200              		.loc 4 87 0
 2201 0088 87FD00D0 		lwzu 31,208(29)
 2202              	.LVL163:
 2203              	.LBB2439:
 2204              		.loc 1 2274 0
 2205 008c 7F9FE800 		cmpw 7,31,29
 2206 0090 419E002C 		beq- 7,.L126
 2207              	.LVL164:
 2208              	.L133:
 2209              		.loc 1 2279 0
 2210 0094 807F0008 		lwz 3,8(31)
 2211 0098 7FC4F378 		mr 4,30
 2212 009c 7F85E378 		mr 5,28
 2213              	.LBB2428:
 2214              	.LBB2429:
 2215              		.loc 5 234 0
 2216 00a0 83FF0000 		lwz 31,0(31)
 2217              	.LVL165:
 2218              	.LBE2429:
 2219              	.LBE2428:
 2220              		.loc 1 2279 0
 2221 00a4 81230000 		lwz 9,0(3)
 2222 00a8 8009000C 		lwz 0,12(9)
 2223 00ac 7C0903A6 		mtctr 0
 2224              	.LEHB9:
 2225 00b0 4E800421 		bctrl
 2226              	.LEHE9:
 2227              	.LVL166:
 2228              		.loc 1 2274 0
 2229 00b4 7F9DF800 		cmpw 7,29,31
 2230 00b8 409EFFDC 		bne+ 7,.L133
 2231              	.LVL167:
 2232              	.L126:
 2233              	.LBB2430:
 2234              	.LBB2431:
 2235              	.LBB2432:
 2236              		.loc 1 343 0
 2237 00bc 813E00CC 		lwz 9,204(30)
 2238 00c0 7F63DB78 		mr 3,27
 2239 00c4 8009000C 		lwz 0,12(9)
 2240 00c8 7C0903A6 		mtctr 0
 2241              	.LEHB10:
 2242 00cc 4E800421 		bctrl
 2243              	.LEHE10:
 2244              	.LBE2432:
 2245              	.LBE2431:
 2246              	.LBE2430:
 2247              	.LBE2439:
 2248              	.LBE2444:
 2249              		.loc 4 82 0
 2250 00d0 80010024 		lwz 0,36(1)
 2251 00d4 8361000C 		lwz 27,12(1)
 2252              	.LVL168:
 2253 00d8 7C0803A6 		mtlr 0
 2254 00dc 83810010 		lwz 28,16(1)
 2255              	.LVL169:
 2256 00e0 83A10014 		lwz 29,20(1)
 2257 00e4 83C10018 		lwz 30,24(1)
 2258              	.LVL170:
 2259 00e8 83E1001C 		lwz 31,28(1)
 2260              	.LVL171:
 2261 00ec 38210020 		addi 1,1,32
 2262              		.cfi_remember_state
 2263              	.LCFI41:
 2264              		.cfi_def_cfa_offset 0
 2265              		.cfi_restore 31
 2266              		.cfi_restore 30
 2267              		.cfi_restore 29
 2268              		.cfi_restore 28
 2269              		.cfi_restore 27
 2270 00f0 4E800020 		blr
 2271              	.LVL172:
 2272              	.L132:
 2273              	.LCFI42:
 2274              		.cfi_restore_state
 2275              	.LBB2445:
 2276              	.LBB2440:
 2277              	.LBB2433:
 2278              	.LBB2434:
 2279              	.LBB2435:
 2280              		.loc 1 343 0
 2281 00f4 813E00CC 		lwz 9,204(30)
 2282 00f8 7C7F1B78 		mr 31,3
 2283              	.LVL173:
 2284 00fc 7F63DB78 		mr 3,27
 2285 0100 8009000C 		lwz 0,12(9)
 2286 0104 7C0903A6 		mtctr 0
 2287 0108 4E800421 		bctrl
 2288 010c 7FE3FB78 		mr 3,31
 2289              	.LEHB11:
 2290 0110 48000001 		bl _Unwind_Resume
 2291              	.LEHE11:
 2292              	.LBE2435:
 2293              	.LBE2434:
 2294              	.LBE2433:
 2295              	.LBE2440:
 2296              	.LBE2445:
 2297              		.cfi_endproc
 2298              	.LFE1575:
 2299              		.section	.gcc_except_table
 2300              	.LLSDA1575:
 2301 002e FF       		.byte	0xff
 2302 002f FF       		.byte	0xff
 2303 0030 01       		.byte	0x1
 2304 0031 14       		.uleb128 .LLSDACSE1575-.LLSDACSB1575
 2305              	.LLSDACSB1575:
 2306 0032 3C       		.uleb128 .LEHB8-.LFB1575
 2307 0033 40       		.uleb128 .LEHE8-.LEHB8
 2308 0034 00       		.uleb128 0
 2309 0035 00       		.uleb128 0
 2310 0036 A401     		.uleb128 .LEHB9-.LFB1575
 2311 0038 04       		.uleb128 .LEHE9-.LEHB9
 2312 0039 E801     		.uleb128 .L132-.LFB1575
 2313 003b 00       		.uleb128 0
 2314 003c C001     		.uleb128 .LEHB10-.LFB1575
 2315 003e 04       		.uleb128 .LEHE10-.LEHB10
 2316 003f 00       		.uleb128 0
 2317 0040 00       		.uleb128 0
 2318 0041 8402     		.uleb128 .LEHB11-.LFB1575
 2319 0043 04       		.uleb128 .LEHE11-.LEHB11
 2320 0044 00       		.uleb128 0
 2321 0045 00       		.uleb128 0
 2322              	.LLSDACSE1575:
 2323              		.section	".text"
 2324              		.size	_ZN14KeyboardWindow15OnOkButtonClickEP9GuiButtoniRK6_POINT, .-_ZN14KeyboardWindow15OnOkButto
 2325              		.section	.text._ZNSt8_Rb_treeIPN7sigslot12_signal_baseINS0_15single_threadedEEES4_St9_IdentityIS4_
 2326              		.align 2
 2327              		.weak	_ZNSt8_Rb_treeIPN7sigslot12_signal_baseINS0_15single_threadedEEES4_St9_IdentityIS4_ESt4lessI
 2328              		.type	_ZNSt8_Rb_treeIPN7sigslot12_signal_baseINS0_15single_threadedEEES4_St9_IdentityIS4_ESt4lessI
 2329              	_ZNSt8_Rb_treeIPN7sigslot12_signal_baseINS0_15single_threadedEEES4_St9_IdentityIS4_ESt4lessIS4_ESaI
 2330              	.LFB1759:
 2331              		.file 7 "d:\\devkitpro\\devkitppc\\bin\\../lib/gcc/powerpc-eabi/4.6.3/../../../../powerpc-eabi/inc
 2332              		.loc 7 1068 0
 2333              		.cfi_startproc
 2334              	.LVL174:
 2335 0000 9421FFC8 		stwu 1,-56(1)
 2336              	.LCFI43:
 2337              		.cfi_def_cfa_offset 56
 2338 0004 7C0802A6 		mflr 0
 2339 0008 92C10010 		stw 22,16(1)
 2340              	.LBB2562:
 2341              		.loc 7 1072 0
 2342 000c 7C962379 		mr. 22,4
 2343              		.cfi_offset 22, -40
 2344              		.cfi_register 65, 0
 2345              	.LBE2562:
 2346              		.loc 7 1068 0
 2347 0010 93C10030 		stw 30,48(1)
 2348 0014 7C7E1B78 		mr 30,3
 2349              		.cfi_offset 30, -8
 2350 0018 9001003C 		stw 0,60(1)
 2351 001c 92A1000C 		stw 21,12(1)
 2352 0020 92E10014 		stw 23,20(1)
 2353 0024 93010018 		stw 24,24(1)
 2354 0028 9321001C 		stw 25,28(1)
 2355 002c 93410020 		stw 26,32(1)
 2356 0030 93610024 		stw 27,36(1)
 2357 0034 93810028 		stw 28,40(1)
 2358 0038 93A1002C 		stw 29,44(1)
 2359 003c 93E10034 		stw 31,52(1)
 2360              	.LBB2647:
 2361              		.loc 7 1072 0
 2362 0040 41820168 		beq- 0,.L134
 2363              		.cfi_offset 31, -4
 2364              		.cfi_offset 29, -12
 2365              		.cfi_offset 28, -16
 2366              		.cfi_offset 27, -20
 2367              		.cfi_offset 26, -24
 2368              		.cfi_offset 25, -28
 2369              		.cfi_offset 24, -32
 2370              		.cfi_offset 23, -36
 2371              		.cfi_offset 21, -44
 2372              		.cfi_offset 65, 4
 2373              	.LVL175:
 2374              	.L180:
 2375              		.loc 4 87 0
 2376 0044 8376000C 		lwz 27,12(22)
 2377              	.LVL176:
 2378              	.LBB2563:
 2379              	.LBB2564:
 2380              	.LBB2565:
 2381              		.loc 7 1072 0
 2382 0048 2F9B0000 		cmpwi 7,27,0
 2383 004c 419E0140 		beq- 7,.L136
 2384              	.LVL177:
 2385              	.L181:
 2386              	.LBE2565:
 2387              		.loc 4 87 0
 2388 0050 835B000C 		lwz 26,12(27)
 2389              	.LVL178:
 2390              	.LBB2641:
 2391              	.LBB2566:
 2392              	.LBB2567:
 2393              	.LBB2568:
 2394              		.loc 7 1072 0
 2395 0054 2F9A0000 		cmpwi 7,26,0
 2396 0058 419E0118 		beq- 7,.L137
 2397              	.LVL179:
 2398              	.L182:
 2399              	.LBE2568:
 2400              		.loc 4 87 0
 2401 005c 833A000C 		lwz 25,12(26)
 2402              	.LVL180:
 2403              	.LBB2634:
 2404              	.LBB2569:
 2405              	.LBB2570:
 2406              	.LBB2571:
 2407              		.loc 7 1072 0
 2408 0060 2F990000 		cmpwi 7,25,0
 2409 0064 419E00F0 		beq- 7,.L138
 2410              	.LVL181:
 2411              	.L183:
 2412              	.LBE2571:
 2413              		.loc 4 87 0
 2414 0068 8319000C 		lwz 24,12(25)
 2415              	.LVL182:
 2416              	.LBB2627:
 2417              	.LBB2572:
 2418              	.LBB2573:
 2419              	.LBB2574:
 2420              		.loc 7 1072 0
 2421 006c 2F980000 		cmpwi 7,24,0
 2422 0070 419E00C8 		beq- 7,.L139
 2423              	.LVL183:
 2424              	.L184:
 2425              	.LBE2574:
 2426              		.loc 4 87 0
 2427 0074 82F8000C 		lwz 23,12(24)
 2428              	.LVL184:
 2429              	.LBB2620:
 2430              	.LBB2575:
 2431              	.LBB2576:
 2432              	.LBB2577:
 2433              		.loc 7 1072 0
 2434 0078 2F970000 		cmpwi 7,23,0
 2435 007c 419E00A0 		beq- 7,.L140
 2436              	.LVL185:
 2437              	.L185:
 2438              	.LBE2577:
 2439              		.loc 4 87 0
 2440 0080 8397000C 		lwz 28,12(23)
 2441              	.LVL186:
 2442              	.LBB2613:
 2443              	.LBB2578:
 2444              	.LBB2579:
 2445              	.LBB2580:
 2446              		.loc 7 1072 0
 2447 0084 2F9C0000 		cmpwi 7,28,0
 2448 0088 419E0078 		beq- 7,.L141
 2449              	.LVL187:
 2450              	.L186:
 2451              	.LBE2580:
 2452              		.loc 4 87 0
 2453 008c 83BC000C 		lwz 29,12(28)
 2454              	.LVL188:
 2455              	.LBB2606:
 2456              	.LBB2581:
 2457              	.LBB2582:
 2458              	.LBB2583:
 2459              		.loc 7 1072 0
 2460 0090 2F9D0000 		cmpwi 7,29,0
 2461 0094 419E0050 		beq- 7,.L142
 2462              	.LVL189:
 2463              	.L187:
 2464              	.LBE2583:
 2465              		.loc 4 87 0
 2466 0098 83FD000C 		lwz 31,12(29)
 2467              	.LVL190:
 2468              	.LBB2599:
 2469              	.LBB2584:
 2470              	.LBB2585:
 2471              	.LBB2586:
 2472              		.loc 7 1072 0
 2473 009c 2F9F0000 		cmpwi 7,31,0
 2474 00a0 419E0028 		beq- 7,.L143
 2475              	.LVL191:
 2476              	.L188:
 2477              	.LBB2587:
 2478              		.loc 7 1074 0
 2479 00a4 809F000C 		lwz 4,12(31)
 2480 00a8 7FC3F378 		mr 3,30
 2481 00ac 48000001 		bl _ZNSt8_Rb_treeIPN7sigslot12_signal_baseINS0_15single_threadedEEES4_St9_IdentityIS4_ESt4lessIS4_
 2482              	.LBE2587:
 2483              	.LBE2586:
 2484              		.loc 4 87 0
 2485 00b0 82BF0008 		lwz 21,8(31)
 2486              	.LVL192:
 2487              	.LBB2593:
 2488              	.LBB2592:
 2489              	.LBB2588:
 2490              	.LBB2589:
 2491              	.LBB2590:
 2492              	.LBB2591:
 2493              		.loc 6 98 0
 2494 00b4 7FE3FB78 		mr 3,31
 2495 00b8 48000001 		bl _ZdlPv
 2496              	.LVL193:
 2497              	.LBE2591:
 2498              	.LBE2590:
 2499              	.LBE2589:
 2500              	.LBE2588:
 2501              	.LBE2592:
 2502              		.loc 7 1072 0
 2503 00bc 2F950000 		cmpwi 7,21,0
 2504              		.loc 7 1077 0
 2505 00c0 7EBFAB78 		mr 31,21
 2506              	.LVL194:
 2507              		.loc 7 1072 0
 2508 00c4 409EFFE0 		bne+ 7,.L188
 2509              	.LVL195:
 2510              	.L143:
 2511              	.LBE2593:
 2512              	.LBE2585:
 2513              	.LBE2584:
 2514              	.LBE2599:
 2515              		.loc 4 87 0
 2516 00c8 83FD0008 		lwz 31,8(29)
 2517              	.LVL196:
 2518              	.LBB2600:
 2519              	.LBB2598:
 2520              	.LBB2594:
 2521              	.LBB2595:
 2522              	.LBB2596:
 2523              	.LBB2597:
 2524              		.loc 6 98 0
 2525 00cc 7FA3EB78 		mr 3,29
 2526 00d0 48000001 		bl _ZdlPv
 2527              	.LVL197:
 2528              	.LBE2597:
 2529              	.LBE2596:
 2530              	.LBE2595:
 2531              	.LBE2594:
 2532              	.LBE2598:
 2533              		.loc 7 1072 0
 2534 00d4 2F9F0000 		cmpwi 7,31,0
 2535 00d8 419E000C 		beq- 7,.L142
 2536              		.loc 7 1077 0
 2537 00dc 7FFDFB78 		mr 29,31
 2538              	.LVL198:
 2539 00e0 4BFFFFB8 		b .L187
 2540              	.LVL199:
 2541              	.L142:
 2542              	.LBE2600:
 2543              	.LBE2582:
 2544              	.LBE2581:
 2545              	.LBE2606:
 2546              		.loc 4 87 0
 2547 00e4 83FC0008 		lwz 31,8(28)
 2548              	.LVL200:
 2549              	.LBB2607:
 2550              	.LBB2605:
 2551              	.LBB2601:
 2552              	.LBB2602:
 2553              	.LBB2603:
 2554              	.LBB2604:
 2555              		.loc 6 98 0
 2556 00e8 7F83E378 		mr 3,28
 2557 00ec 48000001 		bl _ZdlPv
 2558              	.LVL201:
 2559              	.LBE2604:
 2560              	.LBE2603:
 2561              	.LBE2602:
 2562              	.LBE2601:
 2563              	.LBE2605:
 2564              		.loc 7 1072 0
 2565 00f0 2F9F0000 		cmpwi 7,31,0
 2566 00f4 419E000C 		beq- 7,.L141
 2567              		.loc 7 1077 0
 2568 00f8 7FFCFB78 		mr 28,31
 2569              	.LVL202:
 2570 00fc 4BFFFF90 		b .L186
 2571              	.LVL203:
 2572              	.L141:
 2573              	.LBE2607:
 2574              	.LBE2579:
 2575              	.LBE2578:
 2576              	.LBE2613:
 2577              		.loc 4 87 0
 2578 0100 83F70008 		lwz 31,8(23)
 2579              	.LVL204:
 2580              	.LBB2614:
 2581              	.LBB2612:
 2582              	.LBB2608:
 2583              	.LBB2609:
 2584              	.LBB2610:
 2585              	.LBB2611:
 2586              		.loc 6 98 0
 2587 0104 7EE3BB78 		mr 3,23
 2588 0108 48000001 		bl _ZdlPv
 2589              	.LVL205:
 2590              	.LBE2611:
 2591              	.LBE2610:
 2592              	.LBE2609:
 2593              	.LBE2608:
 2594              	.LBE2612:
 2595              		.loc 7 1072 0
 2596 010c 2F9F0000 		cmpwi 7,31,0
 2597 0110 419E000C 		beq- 7,.L140
 2598              		.loc 7 1077 0
 2599 0114 7FF7FB78 		mr 23,31
 2600              	.LVL206:
 2601 0118 4BFFFF68 		b .L185
 2602              	.LVL207:
 2603              	.L140:
 2604              	.LBE2614:
 2605              	.LBE2576:
 2606              	.LBE2575:
 2607              	.LBE2620:
 2608              		.loc 4 87 0
 2609 011c 83F80008 		lwz 31,8(24)
 2610              	.LVL208:
 2611              	.LBB2621:
 2612              	.LBB2619:
 2613              	.LBB2615:
 2614              	.LBB2616:
 2615              	.LBB2617:
 2616              	.LBB2618:
 2617              		.loc 6 98 0
 2618 0120 7F03C378 		mr 3,24
 2619 0124 48000001 		bl _ZdlPv
 2620              	.LVL209:
 2621              	.LBE2618:
 2622              	.LBE2617:
 2623              	.LBE2616:
 2624              	.LBE2615:
 2625              	.LBE2619:
 2626              		.loc 7 1072 0
 2627 0128 2F9F0000 		cmpwi 7,31,0
 2628 012c 419E000C 		beq- 7,.L139
 2629              		.loc 7 1077 0
 2630 0130 7FF8FB78 		mr 24,31
 2631              	.LVL210:
 2632 0134 4BFFFF40 		b .L184
 2633              	.LVL211:
 2634              	.L139:
 2635              	.LBE2621:
 2636              	.LBE2573:
 2637              	.LBE2572:
 2638              	.LBE2627:
 2639              		.loc 4 87 0
 2640 0138 83F90008 		lwz 31,8(25)
 2641              	.LVL212:
 2642              	.LBB2628:
 2643              	.LBB2626:
 2644              	.LBB2622:
 2645              	.LBB2623:
 2646              	.LBB2624:
 2647              	.LBB2625:
 2648              		.loc 6 98 0
 2649 013c 7F23CB78 		mr 3,25
 2650 0140 48000001 		bl _ZdlPv
 2651              	.LVL213:
 2652              	.LBE2625:
 2653              	.LBE2624:
 2654              	.LBE2623:
 2655              	.LBE2622:
 2656              	.LBE2626:
 2657              		.loc 7 1072 0
 2658 0144 2F9F0000 		cmpwi 7,31,0
 2659 0148 419E000C 		beq- 7,.L138
 2660              		.loc 7 1077 0
 2661 014c 7FF9FB78 		mr 25,31
 2662              	.LVL214:
 2663 0150 4BFFFF18 		b .L183
 2664              	.LVL215:
 2665              	.L138:
 2666              	.LBE2628:
 2667              	.LBE2570:
 2668              	.LBE2569:
 2669              	.LBE2634:
 2670              		.loc 4 87 0
 2671 0154 83FA0008 		lwz 31,8(26)
 2672              	.LVL216:
 2673              	.LBB2635:
 2674              	.LBB2633:
 2675              	.LBB2629:
 2676              	.LBB2630:
 2677              	.LBB2631:
 2678              	.LBB2632:
 2679              		.loc 6 98 0
 2680 0158 7F43D378 		mr 3,26
 2681 015c 48000001 		bl _ZdlPv
 2682              	.LVL217:
 2683              	.LBE2632:
 2684              	.LBE2631:
 2685              	.LBE2630:
 2686              	.LBE2629:
 2687              	.LBE2633:
 2688              		.loc 7 1072 0
 2689 0160 2F9F0000 		cmpwi 7,31,0
 2690 0164 419E000C 		beq- 7,.L137
 2691              		.loc 7 1077 0
 2692 0168 7FFAFB78 		mr 26,31
 2693              	.LVL218:
 2694 016c 4BFFFEF0 		b .L182
 2695              	.LVL219:
 2696              	.L137:
 2697              	.LBE2635:
 2698              	.LBE2567:
 2699              	.LBE2566:
 2700              	.LBE2641:
 2701              		.loc 4 87 0
 2702 0170 83FB0008 		lwz 31,8(27)
 2703              	.LVL220:
 2704              	.LBB2642:
 2705              	.LBB2640:
 2706              	.LBB2636:
 2707              	.LBB2637:
 2708              	.LBB2638:
 2709              	.LBB2639:
 2710              		.loc 6 98 0
 2711 0174 7F63DB78 		mr 3,27
 2712 0178 48000001 		bl _ZdlPv
 2713              	.LVL221:
 2714              	.LBE2639:
 2715              	.LBE2638:
 2716              	.LBE2637:
 2717              	.LBE2636:
 2718              	.LBE2640:
 2719              		.loc 7 1072 0
 2720 017c 2F9F0000 		cmpwi 7,31,0
 2721 0180 419E000C 		beq- 7,.L136
 2722              		.loc 7 1077 0
 2723 0184 7FFBFB78 		mr 27,31
 2724              	.LVL222:
 2725 0188 4BFFFEC8 		b .L181
 2726              	.LVL223:
 2727              	.L136:
 2728              		.loc 4 87 0
 2729 018c 83F60008 		lwz 31,8(22)
 2730              	.LVL224:
 2731              	.LBE2642:
 2732              	.LBE2564:
 2733              	.LBB2643:
 2734              	.LBB2644:
 2735              	.LBB2645:
 2736              	.LBB2646:
 2737              		.loc 6 98 0
 2738 0190 7EC3B378 		mr 3,22
 2739 0194 48000001 		bl _ZdlPv
 2740              	.LVL225:
 2741              	.LBE2646:
 2742              	.LBE2645:
 2743              	.LBE2644:
 2744              	.LBE2643:
 2745              	.LBE2563:
 2746              		.loc 7 1072 0
 2747 0198 2F9F0000 		cmpwi 7,31,0
 2748 019c 419E000C 		beq- 7,.L134
 2749              		.loc 7 1077 0
 2750 01a0 7FF6FB78 		mr 22,31
 2751              	.LVL226:
 2752 01a4 4BFFFEA0 		b .L180
 2753              	.LVL227:
 2754              	.L134:
 2755              	.LBE2647:
 2756              		.loc 7 1079 0
 2757 01a8 8001003C 		lwz 0,60(1)
 2758 01ac 82A1000C 		lwz 21,12(1)
 2759 01b0 7C0803A6 		mtlr 0
 2760 01b4 82C10010 		lwz 22,16(1)
 2761 01b8 82E10014 		lwz 23,20(1)
 2762 01bc 83010018 		lwz 24,24(1)
 2763 01c0 8321001C 		lwz 25,28(1)
 2764 01c4 83410020 		lwz 26,32(1)
 2765 01c8 83610024 		lwz 27,36(1)
 2766 01cc 83810028 		lwz 28,40(1)
 2767 01d0 83A1002C 		lwz 29,44(1)
 2768 01d4 83C10030 		lwz 30,48(1)
 2769              	.LVL228:
 2770 01d8 83E10034 		lwz 31,52(1)
 2771 01dc 38210038 		addi 1,1,56
 2772              	.LCFI44:
 2773              		.cfi_def_cfa_offset 0
 2774              		.cfi_restore 31
 2775              		.cfi_restore 30
 2776              		.cfi_restore 29
 2777              		.cfi_restore 28
 2778              		.cfi_restore 27
 2779              		.cfi_restore 26
 2780              		.cfi_restore 25
 2781              		.cfi_restore 24
 2782              		.cfi_restore 23
 2783              		.cfi_restore 22
 2784              		.cfi_restore 21
 2785 01e0 4E800020 		blr
 2786              		.cfi_endproc
 2787              	.LFE1759:
 2788              		.size	_ZNSt8_Rb_treeIPN7sigslot12_signal_baseINS0_15single_threadedEEES4_St9_IdentityIS4_ESt4lessI
 2789              		.section	.text._ZN7sigslot9has_slotsINS_15single_threadedEED2Ev,"axG",@progbits,_ZN7sigslot9has_sl
 2790              		.align 2
 2791              		.weak	_ZN7sigslot9has_slotsINS_15single_threadedEED2Ev
 2792              		.type	_ZN7sigslot9has_slotsINS_15single_threadedEED2Ev, @function
 2793              	_ZN7sigslot9has_slotsINS_15single_threadedEED2Ev:
 2794              	.LFB1613:
 2795              		.loc 1 513 0
 2796              		.cfi_startproc
 2797              		.cfi_personality 0,__gxx_personality_v0
 2798              		.cfi_lsda 0,.LLSDA1613
 2799              	.LVL229:
 2800 0000 7C0802A6 		mflr 0
 2801 0004 9421FFE0 		stwu 1,-32(1)
 2802              	.LCFI45:
 2803              		.cfi_def_cfa_offset 32
 2804              		.cfi_register 65, 0
 2805              	.LBB2794:
 2806              		.loc 1 516 0
 2807 0008 3D200000 		lis 9,_ZTVN7sigslot9has_slotsINS_15single_threadedEEE+8@ha
 2808              	.LBE2794:
 2809              		.loc 1 513 0
 2810 000c 93810010 		stw 28,16(1)
 2811 0010 3B830004 		addi 28,3,4
 2812              		.cfi_offset 28, -16
 2813 0014 90010024 		stw 0,36(1)
 2814              	.LBB2870:
 2815              		.loc 1 516 0
 2816 0018 38090008 		la 0,_ZTVN7sigslot9has_slotsINS_15single_threadedEEE+8@l(9)
 2817              		.cfi_offset 65, 4
 2818              	.LBE2870:
 2819              		.loc 1 513 0
 2820 001c 93A10014 		stw 29,20(1)
 2821 0020 7C7D1B78 		mr 29,3
 2822              		.cfi_offset 29, -12
 2823 0024 93410008 		stw 26,8(1)
 2824 0028 9361000C 		stw 27,12(1)
 2825 002c 93C10018 		stw 30,24(1)
 2826 0030 93E1001C 		stw 31,28(1)
 2827              	.LBB2871:
 2828              		.loc 1 516 0
 2829 0034 90030000 		stw 0,0(3)
 2830              	.LVL230:
 2831              	.LEHB12:
 2832              	.LBB2795:
 2833              	.LBB2796:
 2834              	.LBB2797:
 2835              	.LBB2798:
 2836              		.loc 1 338 0
 2837              		.cfi_offset 31, -4
 2838              		.cfi_offset 30, -8
 2839              		.cfi_offset 27, -20
 2840              		.cfi_offset 26, -24
 2841 0038 48000001 		bl _ZN7sigslot15single_threaded4lockEv
 2842              	.LEHE12:
 2843              	.LVL231:
 2844              	.LBE2798:
 2845              	.LBE2797:
 2846              	.LBB2799:
 2847              		.loc 4 87 0
 2848 003c 83FD0010 		lwz 31,16(29)
 2849              	.LVL232:
 2850              	.LBE2799:
 2851              	.LBB2800:
 2852              	.LBB2801:
 2853              	.LBB2802:
 2854              		.loc 7 671 0
 2855 0040 3BDC0004 		addi 30,28,4
 2856              	.LVL233:
 2857              	.LBE2802:
 2858              	.LBE2801:
 2859              	.LBE2800:
 2860              		.loc 1 524 0
 2861 0044 7F9FF000 		cmpw 7,31,30
 2862 0048 419E0034 		beq- 7,.L190
 2863              	.LVL234:
 2864              	.L217:
 2865              		.loc 1 526 0
 2866 004c 807F0010 		lwz 3,16(31)
 2867 0050 7FA4EB78 		mr 4,29
 2868 0054 81230000 		lwz 9,0(3)
 2869 0058 80090010 		lwz 0,16(9)
 2870 005c 7C0903A6 		mtctr 0
 2871              	.LEHB13:
 2872 0060 4E800421 		bctrl
 2873              	.LEHE13:
 2874              	.LVL235:
 2875              	.LBB2803:
 2876              	.LBB2804:
 2877              		.loc 7 269 0
 2878 0064 7FE3FB78 		mr 3,31
 2879 0068 48000001 		bl _ZSt18_Rb_tree_incrementPKSt18_Rb_tree_node_base
 2880              	.LBE2804:
 2881              	.LBE2803:
 2882              		.loc 1 524 0
 2883 006c 7F9E1800 		cmpw 7,30,3
 2884              	.LBB2806:
 2885              	.LBB2805:
 2886              		.loc 7 269 0
 2887 0070 7C7F1B78 		mr 31,3
 2888              	.LVL236:
 2889              	.LBE2805:
 2890              	.LBE2806:
 2891              		.loc 1 524 0
 2892 0074 409EFFD8 		bne+ 7,.L217
 2893 0078 83FD0010 		lwz 31,16(29)
 2894              	.LVL237:
 2895              	.L190:
 2896              	.LBB2807:
 2897              	.LBB2808:
 2898              	.LBB2809:
 2899              	.LBB2810:
 2900              	.LBB2811:
 2901              	.LBB2812:
 2902              	.LBB2813:
 2903              		.loc 7 665 0
 2904 007c 3B5C0004 		addi 26,28,4
 2905              	.LBE2813:
 2906              	.LBE2812:
 2907              		.loc 7 1500 0
 2908 0080 7F9ED000 		cmpw 7,30,26
 2909 0084 419E0098 		beq- 7,.L192
 2910              	.LVL238:
 2911              		.loc 7 1503 0
 2912 0088 7F9EF800 		cmpw 7,30,31
 2913 008c 40BE000C 		bne+ 7,.L219
 2914 0090 48000038 		b .L193
 2915              	.LVL239:
 2916              	.L214:
 2917              		.loc 7 277 0
 2918 0094 7F7FDB78 		mr 31,27
 2919              	.LVL240:
 2920              	.L219:
 2921              	.LBB2814:
 2922              	.LBB2815:
 2923 0098 7FE3FB78 		mr 3,31
 2924 009c 48000001 		bl _ZSt18_Rb_tree_incrementPKSt18_Rb_tree_node_base
 2925              	.LBE2815:
 2926              	.LBE2814:
 2927              	.LBB2817:
 2928              	.LBB2818:
 2929              	.LBB2819:
 2930              		.loc 7 1489 0
 2931 00a0 7F44D378 		mr 4,26
 2932              	.LBE2819:
 2933              	.LBE2818:
 2934              	.LBE2817:
 2935              	.LBB2828:
 2936              	.LBB2816:
 2937              		.loc 7 277 0
 2938 00a4 7C7B1B78 		mr 27,3
 2939              	.LVL241:
 2940              	.LBE2816:
 2941              	.LBE2828:
 2942              	.LBB2829:
 2943              	.LBB2826:
 2944              	.LBB2824:
 2945              		.loc 7 1489 0
 2946 00a8 7FE3FB78 		mr 3,31
 2947              	.LVL242:
 2948 00ac 48000001 		bl _ZSt28_Rb_tree_rebalance_for_erasePSt18_Rb_tree_node_baseRS_
 2949              	.LBB2820:
 2950              	.LBB2821:
 2951              	.LBB2822:
 2952              	.LBB2823:
 2953              		.loc 6 98 0
 2954 00b0 48000001 		bl _ZdlPv
 2955              	.LBE2823:
 2956              	.LBE2822:
 2957              	.LBE2821:
 2958              	.LBE2820:
 2959              	.LBE2824:
 2960              	.LBE2826:
 2961              	.LBE2829:
 2962              		.loc 7 1503 0
 2963 00b4 7F9ED800 		cmpw 7,30,27
 2964              	.LBB2830:
 2965              	.LBB2827:
 2966              	.LBB2825:
 2967              		.loc 7 1491 0
 2968 00b8 813C0014 		lwz 9,20(28)
 2969 00bc 3809FFFF 		addi 0,9,-1
 2970 00c0 901C0014 		stw 0,20(28)
 2971              	.LBE2825:
 2972              	.LBE2827:
 2973              	.LBE2830:
 2974              		.loc 7 1503 0
 2975 00c4 409EFFD0 		bne+ 7,.L214
 2976              	.LVL243:
 2977              	.L193:
 2978              	.LBE2811:
 2979              	.LBE2810:
 2980              	.LBE2809:
 2981              	.LBE2808:
 2982              	.LBE2807:
 2983              	.LBB2839:
 2984              	.LBB2840:
 2985              	.LBB2841:
 2986              		.loc 1 343 0
 2987 00c8 813D0000 		lwz 9,0(29)
 2988 00cc 7FA3EB78 		mr 3,29
 2989 00d0 8009000C 		lwz 0,12(9)
 2990 00d4 7C0903A6 		mtctr 0
 2991              	.LEHB14:
 2992 00d8 4E800421 		bctrl
 2993              	.LEHE14:
 2994              	.LVL244:
 2995              	.LBE2841:
 2996              	.LBE2840:
 2997              	.LBE2839:
 2998              	.LBE2796:
 2999              	.LBE2795:
 3000              	.LBB2848:
 3001              	.LBB2849:
 3002              	.LBB2850:
 3003              	.LBB2851:
 3004              	.LBB2852:
 3005              		.loc 7 639 0
 3006 00dc 809D000C 		lwz 4,12(29)
 3007 00e0 7F83E378 		mr 3,28
 3008 00e4 48000001 		bl _ZNSt8_Rb_treeIPN7sigslot12_signal_baseINS0_15single_threadedEEES4_St9_IdentityIS4_ESt4lessIS4_
 3009              	.LVL245:
 3010              	.LBE2852:
 3011              	.LBE2851:
 3012              	.LBE2850:
 3013              	.LBE2849:
 3014              	.LBE2848:
 3015              	.LBB2853:
 3016              	.LBB2854:
 3017              	.LBB2855:
 3018              		.loc 1 105 0
 3019 00e8 3D200000 		lis 9,_ZTVN7sigslot15single_threadedE+8@ha
 3020 00ec 38090008 		la 0,_ZTVN7sigslot15single_threadedE+8@l(9)
 3021              	.LBE2855:
 3022              	.LBE2854:
 3023              	.LBE2853:
 3024              	.LBE2871:
 3025              		.loc 1 516 0
 3026 00f0 83410008 		lwz 26,8(1)
 3027              	.LBB2872:
 3028              	.LBB2858:
 3029              	.LBB2857:
 3030              	.LBB2856:
 3031              		.loc 1 105 0
 3032 00f4 901D0000 		stw 0,0(29)
 3033              	.LBE2856:
 3034              	.LBE2857:
 3035              	.LBE2858:
 3036              	.LBE2872:
 3037              		.loc 1 516 0
 3038 00f8 80010024 		lwz 0,36(1)
 3039 00fc 8361000C 		lwz 27,12(1)
 3040 0100 7C0803A6 		mtlr 0
 3041 0104 83810010 		lwz 28,16(1)
 3042              	.LVL246:
 3043 0108 83A10014 		lwz 29,20(1)
 3044              	.LVL247:
 3045 010c 83C10018 		lwz 30,24(1)
 3046              	.LVL248:
 3047 0110 83E1001C 		lwz 31,28(1)
 3048 0114 38210020 		addi 1,1,32
 3049              		.cfi_remember_state
 3050              	.LCFI46:
 3051              		.cfi_def_cfa_offset 0
 3052              		.cfi_restore 31
 3053              		.cfi_restore 30
 3054              		.cfi_restore 29
 3055              		.cfi_restore 28
 3056              		.cfi_restore 27
 3057              		.cfi_restore 26
 3058 0118 4E800020 		blr
 3059              	.LVL249:
 3060              	.L192:
 3061              	.LCFI47:
 3062              		.cfi_restore_state
 3063              	.LBB2873:
 3064              	.LBB2859:
 3065              	.LBB2846:
 3066              	.LBB2842:
 3067              	.LBB2838:
 3068              	.LBB2837:
 3069              	.LBB2836:
 3070              	.LBB2835:
 3071              	.LBB2831:
 3072              	.LBB2832:
 3073              	.LBB2833:
 3074              	.LBB2834:
 3075              		.loc 7 809 0
 3076 011c 809D000C 		lwz 4,12(29)
 3077 0120 7F83E378 		mr 3,28
 3078 0124 48000001 		bl _ZNSt8_Rb_treeIPN7sigslot12_signal_baseINS0_15single_threadedEEES4_St9_IdentityIS4_ESt4lessIS4_
 3079              	.LVL250:
 3080              		.loc 7 811 0
 3081 0128 38000000 		li 0,0
 3082              		.loc 7 810 0
 3083 012c 93DD0010 		stw 30,16(29)
 3084              	.LVL251:
 3085              		.loc 7 811 0
 3086 0130 901D000C 		stw 0,12(29)
 3087              	.LVL252:
 3088              		.loc 7 812 0
 3089 0134 93DD0014 		stw 30,20(29)
 3090              		.loc 7 813 0
 3091 0138 901D0018 		stw 0,24(29)
 3092 013c 4BFFFF8C 		b .L193
 3093              	.LVL253:
 3094              	.L215:
 3095 0140 7C7F1B78 		mr 31,3
 3096              	.L200:
 3097              	.LVL254:
 3098              	.LBE2834:
 3099              	.LBE2833:
 3100              	.LBE2832:
 3101              	.LBE2831:
 3102              	.LBE2835:
 3103              	.LBE2836:
 3104              	.LBE2837:
 3105              	.LBE2838:
 3106              	.LBE2842:
 3107              	.LBE2846:
 3108              	.LBE2859:
 3109              	.LBB2860:
 3110              	.LBB2861:
 3111              	.LBB2862:
 3112              	.LBB2863:
 3113              	.LBB2864:
 3114              	.LBB2865:
 3115              		.loc 7 639 0
 3116 0144 809D000C 		lwz 4,12(29)
 3117 0148 7F83E378 		mr 3,28
 3118 014c 48000001 		bl _ZNSt8_Rb_treeIPN7sigslot12_signal_baseINS0_15single_threadedEEES4_St9_IdentityIS4_ESt4lessIS4_
 3119              	.LVL255:
 3120              	.LBE2865:
 3121              	.LBE2864:
 3122              	.LBE2863:
 3123              	.LBE2862:
 3124              	.LBE2861:
 3125              	.LBE2860:
 3126              	.LBB2866:
 3127              	.LBB2867:
 3128              	.LBB2868:
 3129              		.loc 1 105 0
 3130 0150 3D200000 		lis 9,_ZTVN7sigslot15single_threadedE+8@ha
 3131 0154 38090008 		la 0,_ZTVN7sigslot15single_threadedE+8@l(9)
 3132 0158 7FE3FB78 		mr 3,31
 3133 015c 901D0000 		stw 0,0(29)
 3134              	.LEHB15:
 3135 0160 48000001 		bl _Unwind_Resume
 3136              	.LEHE15:
 3137              	.LVL256:
 3138              	.L216:
 3139              	.LBE2868:
 3140              	.LBE2867:
 3141              	.LBE2866:
 3142              	.LBB2869:
 3143              	.LBB2847:
 3144              	.LBB2843:
 3145              	.LBB2844:
 3146              	.LBB2845:
 3147              		.loc 1 343 0
 3148 0164 813D0000 		lwz 9,0(29)
 3149 0168 7C7F1B78 		mr 31,3
 3150              	.LVL257:
 3151 016c 7FA3EB78 		mr 3,29
 3152 0170 8009000C 		lwz 0,12(9)
 3153 0174 7C0903A6 		mtctr 0
 3154 0178 4E800421 		bctrl
 3155 017c 4BFFFFC8 		b .L200
 3156              	.LBE2845:
 3157              	.LBE2844:
 3158              	.LBE2843:
 3159              	.LBE2847:
 3160              	.LBE2869:
 3161              	.LBE2873:
 3162              		.cfi_endproc
 3163              	.LFE1613:
 3164              		.section	.gcc_except_table
 3165              	.LLSDA1613:
 3166 0046 FF       		.byte	0xff
 3167 0047 FF       		.byte	0xff
 3168 0048 01       		.byte	0x1
 3169 0049 15       		.uleb128 .LLSDACSE1613-.LLSDACSB1613
 3170              	.LLSDACSB1613:
 3171 004a 38       		.uleb128 .LEHB12-.LFB1613
 3172 004b 04       		.uleb128 .LEHE12-.LEHB12
 3173 004c C002     		.uleb128 .L215-.LFB1613
 3174 004e 00       		.uleb128 0
 3175 004f 60       		.uleb128 .LEHB13-.LFB1613
 3176 0050 04       		.uleb128 .LEHE13-.LEHB13
 3177 0051 E402     		.uleb128 .L216-.LFB1613
 3178 0053 00       		.uleb128 0
 3179 0054 D801     		.uleb128 .LEHB14-.LFB1613
 3180 0056 04       		.uleb128 .LEHE14-.LEHB14
 3181 0057 C002     		.uleb128 .L215-.LFB1613
 3182 0059 00       		.uleb128 0
 3183 005a E002     		.uleb128 .LEHB15-.LFB1613
 3184 005c 04       		.uleb128 .LEHE15-.LEHB15
 3185 005d 00       		.uleb128 0
 3186 005e 00       		.uleb128 0
 3187              	.LLSDACSE1613:
 3188              		.section	.text._ZN7sigslot9has_slotsINS_15single_threadedEED2Ev,"axG",@progbits,_ZN7sigslot9has_sl
 3189              		.size	_ZN7sigslot9has_slotsINS_15single_threadedEED2Ev, .-_ZN7sigslot9has_slotsINS_15single_thread
 3190              		.section	.text._ZN7sigslot9has_slotsINS_15single_threadedEED0Ev,"axG",@progbits,_ZN7sigslot9has_sl
 3191              		.align 2
 3192              		.weak	_ZN7sigslot9has_slotsINS_15single_threadedEED0Ev
 3193              		.type	_ZN7sigslot9has_slotsINS_15single_threadedEED0Ev, @function
 3194              	_ZN7sigslot9has_slotsINS_15single_threadedEED0Ev:
 3195              	.LFB1615:
 3196              		.loc 1 513 0
 3197              		.cfi_startproc
 3198              		.cfi_personality 0,__gxx_personality_v0
 3199              		.cfi_lsda 0,.LLSDA1615
 3200              	.LVL258:
 3201 0000 7C0802A6 		mflr 0
 3202 0004 9421FFE0 		stwu 1,-32(1)
 3203              	.LCFI48:
 3204              		.cfi_def_cfa_offset 32
 3205              		.cfi_register 65, 0
 3206              	.LBB2967:
 3207              	.LBB2968:
 3208              	.LBB2969:
 3209              		.loc 1 516 0
 3210 0008 3D200000 		lis 9,_ZTVN7sigslot9has_slotsINS_15single_threadedEEE+8@ha
 3211              	.LBE2969:
 3212              	.LBE2968:
 3213              	.LBE2967:
 3214              		.loc 1 513 0
 3215 000c 93810010 		stw 28,16(1)
 3216 0010 3B830004 		addi 28,3,4
 3217              		.cfi_offset 28, -16
 3218 0014 90010024 		stw 0,36(1)
 3219              	.LBB3053:
 3220              	.LBB3049:
 3221              	.LBB3045:
 3222              		.loc 1 516 0
 3223 0018 38090008 		la 0,_ZTVN7sigslot9has_slotsINS_15single_threadedEEE+8@l(9)
 3224              		.cfi_offset 65, 4
 3225              	.LBE3045:
 3226              	.LBE3049:
 3227              	.LBE3053:
 3228              		.loc 1 513 0
 3229 001c 93A10014 		stw 29,20(1)
 3230 0020 7C7D1B78 		mr 29,3
 3231              		.cfi_offset 29, -12
 3232              	.LVL259:
 3233 0024 93410008 		stw 26,8(1)
 3234 0028 9361000C 		stw 27,12(1)
 3235 002c 93C10018 		stw 30,24(1)
 3236 0030 93E1001C 		stw 31,28(1)
 3237              	.LBB3054:
 3238              	.LBB3050:
 3239              	.LBB3046:
 3240              		.loc 1 516 0
 3241 0034 90030000 		stw 0,0(3)
 3242              	.LVL260:
 3243              	.LEHB16:
 3244              	.LBB2970:
 3245              	.LBB2971:
 3246              	.LBB2972:
 3247              	.LBB2973:
 3248              		.loc 1 338 0
 3249              		.cfi_offset 31, -4
 3250              		.cfi_offset 30, -8
 3251              		.cfi_offset 27, -20
 3252              		.cfi_offset 26, -24
 3253 0038 48000001 		bl _ZN7sigslot15single_threaded4lockEv
 3254              	.LEHE16:
 3255              	.LVL261:
 3256              	.LBE2973:
 3257              	.LBE2972:
 3258              	.LBB2974:
 3259              		.loc 4 87 0
 3260 003c 83FD0010 		lwz 31,16(29)
 3261              	.LVL262:
 3262              	.LBE2974:
 3263              	.LBB2975:
 3264              	.LBB2976:
 3265              	.LBB2977:
 3266              		.loc 7 671 0
 3267 0040 3BDC0004 		addi 30,28,4
 3268              	.LVL263:
 3269              	.LBE2977:
 3270              	.LBE2976:
 3271              	.LBE2975:
 3272              		.loc 1 524 0
 3273 0044 7F9FF000 		cmpw 7,31,30
 3274 0048 419E0034 		beq- 7,.L222
 3275              	.LVL264:
 3276              	.L250:
 3277              		.loc 1 526 0
 3278 004c 807F0010 		lwz 3,16(31)
 3279 0050 7FA4EB78 		mr 4,29
 3280 0054 81230000 		lwz 9,0(3)
 3281 0058 80090010 		lwz 0,16(9)
 3282 005c 7C0903A6 		mtctr 0
 3283              	.LEHB17:
 3284 0060 4E800421 		bctrl
 3285              	.LEHE17:
 3286              	.LVL265:
 3287              	.LBB2978:
 3288              	.LBB2979:
 3289              		.loc 7 269 0
 3290 0064 7FE3FB78 		mr 3,31
 3291 0068 48000001 		bl _ZSt18_Rb_tree_incrementPKSt18_Rb_tree_node_base
 3292              	.LBE2979:
 3293              	.LBE2978:
 3294              		.loc 1 524 0
 3295 006c 7F9E1800 		cmpw 7,30,3
 3296              	.LBB2981:
 3297              	.LBB2980:
 3298              		.loc 7 269 0
 3299 0070 7C7F1B78 		mr 31,3
 3300              	.LVL266:
 3301              	.LBE2980:
 3302              	.LBE2981:
 3303              		.loc 1 524 0
 3304 0074 409EFFD8 		bne+ 7,.L250
 3305 0078 83FD0010 		lwz 31,16(29)
 3306              	.LVL267:
 3307              	.L222:
 3308              	.LBB2982:
 3309              	.LBB2983:
 3310              	.LBB2984:
 3311              	.LBB2985:
 3312              	.LBB2986:
 3313              	.LBB2987:
 3314              	.LBB2988:
 3315              		.loc 7 665 0
 3316 007c 3B5C0004 		addi 26,28,4
 3317              	.LBE2988:
 3318              	.LBE2987:
 3319              		.loc 7 1500 0
 3320 0080 7F9ED000 		cmpw 7,30,26
 3321 0084 419E00A0 		beq- 7,.L224
 3322              	.LVL268:
 3323              		.loc 7 1503 0
 3324 0088 7F9EF800 		cmpw 7,30,31
 3325 008c 40BE000C 		bne+ 7,.L252
 3326 0090 48000038 		b .L225
 3327              	.LVL269:
 3328              	.L247:
 3329              		.loc 7 277 0
 3330 0094 7F7FDB78 		mr 31,27
 3331              	.LVL270:
 3332              	.L252:
 3333              	.LBB2989:
 3334              	.LBB2990:
 3335 0098 7FE3FB78 		mr 3,31
 3336 009c 48000001 		bl _ZSt18_Rb_tree_incrementPKSt18_Rb_tree_node_base
 3337              	.LBE2990:
 3338              	.LBE2989:
 3339              	.LBB2992:
 3340              	.LBB2993:
 3341              	.LBB2994:
 3342              		.loc 7 1489 0
 3343 00a0 7F44D378 		mr 4,26
 3344              	.LBE2994:
 3345              	.LBE2993:
 3346              	.LBE2992:
 3347              	.LBB3003:
 3348              	.LBB2991:
 3349              		.loc 7 277 0
 3350 00a4 7C7B1B78 		mr 27,3
 3351              	.LVL271:
 3352              	.LBE2991:
 3353              	.LBE3003:
 3354              	.LBB3004:
 3355              	.LBB3001:
 3356              	.LBB2999:
 3357              		.loc 7 1489 0
 3358 00a8 7FE3FB78 		mr 3,31
 3359              	.LVL272:
 3360 00ac 48000001 		bl _ZSt28_Rb_tree_rebalance_for_erasePSt18_Rb_tree_node_baseRS_
 3361              	.LBB2995:
 3362              	.LBB2996:
 3363              	.LBB2997:
 3364              	.LBB2998:
 3365              		.loc 6 98 0
 3366 00b0 48000001 		bl _ZdlPv
 3367              	.LBE2998:
 3368              	.LBE2997:
 3369              	.LBE2996:
 3370              	.LBE2995:
 3371              	.LBE2999:
 3372              	.LBE3001:
 3373              	.LBE3004:
 3374              		.loc 7 1503 0
 3375 00b4 7F9ED800 		cmpw 7,30,27
 3376              	.LBB3005:
 3377              	.LBB3002:
 3378              	.LBB3000:
 3379              		.loc 7 1491 0
 3380 00b8 813C0014 		lwz 9,20(28)
 3381 00bc 3809FFFF 		addi 0,9,-1
 3382 00c0 901C0014 		stw 0,20(28)
 3383              	.LBE3000:
 3384              	.LBE3002:
 3385              	.LBE3005:
 3386              		.loc 7 1503 0
 3387 00c4 409EFFD0 		bne+ 7,.L247
 3388              	.LVL273:
 3389              	.L225:
 3390              	.LBE2986:
 3391              	.LBE2985:
 3392              	.LBE2984:
 3393              	.LBE2983:
 3394              	.LBE2982:
 3395              	.LBB3014:
 3396              	.LBB3015:
 3397              	.LBB3016:
 3398              		.loc 1 343 0
 3399 00c8 813D0000 		lwz 9,0(29)
 3400 00cc 7FA3EB78 		mr 3,29
 3401 00d0 8009000C 		lwz 0,12(9)
 3402 00d4 7C0903A6 		mtctr 0
 3403              	.LEHB18:
 3404 00d8 4E800421 		bctrl
 3405              	.LEHE18:
 3406              	.LVL274:
 3407              	.LBE3016:
 3408              	.LBE3015:
 3409              	.LBE3014:
 3410              	.LBE2971:
 3411              	.LBE2970:
 3412              	.LBB3023:
 3413              	.LBB3024:
 3414              	.LBB3025:
 3415              	.LBB3026:
 3416              	.LBB3027:
 3417              		.loc 7 639 0
 3418 00dc 809D000C 		lwz 4,12(29)
 3419 00e0 7F83E378 		mr 3,28
 3420 00e4 48000001 		bl _ZNSt8_Rb_treeIPN7sigslot12_signal_baseINS0_15single_threadedEEES4_St9_IdentityIS4_ESt4lessIS4_
 3421              	.LVL275:
 3422              	.LBE3027:
 3423              	.LBE3026:
 3424              	.LBE3025:
 3425              	.LBE3024:
 3426              	.LBE3023:
 3427              	.LBB3028:
 3428              	.LBB3029:
 3429              	.LBB3030:
 3430              		.loc 1 105 0
 3431 00e8 3D200000 		lis 9,_ZTVN7sigslot15single_threadedE+8@ha
 3432 00ec 38090008 		la 0,_ZTVN7sigslot15single_threadedE+8@l(9)
 3433              	.LBE3030:
 3434              	.LBE3029:
 3435              	.LBE3028:
 3436              	.LBE3046:
 3437              	.LBE3050:
 3438              	.LBE3054:
 3439              		.loc 1 516 0
 3440 00f0 7FA3EB78 		mr 3,29
 3441              	.LBB3055:
 3442              	.LBB3051:
 3443              	.LBB3047:
 3444              	.LBB3033:
 3445              	.LBB3032:
 3446              	.LBB3031:
 3447              		.loc 1 105 0
 3448 00f4 901D0000 		stw 0,0(29)
 3449              	.LBE3031:
 3450              	.LBE3032:
 3451              	.LBE3033:
 3452              	.LBE3047:
 3453              	.LBE3051:
 3454              	.LBE3055:
 3455              		.loc 1 516 0
 3456 00f8 48000001 		bl _ZdlPv
 3457 00fc 80010024 		lwz 0,36(1)
 3458 0100 83410008 		lwz 26,8(1)
 3459 0104 7C0803A6 		mtlr 0
 3460 0108 8361000C 		lwz 27,12(1)
 3461 010c 83810010 		lwz 28,16(1)
 3462              	.LVL276:
 3463 0110 83A10014 		lwz 29,20(1)
 3464              	.LVL277:
 3465 0114 83C10018 		lwz 30,24(1)
 3466              	.LVL278:
 3467 0118 83E1001C 		lwz 31,28(1)
 3468 011c 38210020 		addi 1,1,32
 3469              		.cfi_remember_state
 3470              	.LCFI49:
 3471              		.cfi_def_cfa_offset 0
 3472              		.cfi_restore 31
 3473              		.cfi_restore 30
 3474              		.cfi_restore 29
 3475              		.cfi_restore 28
 3476              		.cfi_restore 27
 3477              		.cfi_restore 26
 3478 0120 4E800020 		blr
 3479              	.LVL279:
 3480              	.L224:
 3481              	.LCFI50:
 3482              		.cfi_restore_state
 3483              	.LBB3056:
 3484              	.LBB3052:
 3485              	.LBB3048:
 3486              	.LBB3034:
 3487              	.LBB3021:
 3488              	.LBB3017:
 3489              	.LBB3013:
 3490              	.LBB3012:
 3491              	.LBB3011:
 3492              	.LBB3010:
 3493              	.LBB3006:
 3494              	.LBB3007:
 3495              	.LBB3008:
 3496              	.LBB3009:
 3497              		.loc 7 809 0
 3498 0124 809D000C 		lwz 4,12(29)
 3499 0128 7F83E378 		mr 3,28
 3500 012c 48000001 		bl _ZNSt8_Rb_treeIPN7sigslot12_signal_baseINS0_15single_threadedEEES4_St9_IdentityIS4_ESt4lessIS4_
 3501              	.LVL280:
 3502              		.loc 7 811 0
 3503 0130 38000000 		li 0,0
 3504              		.loc 7 810 0
 3505 0134 93DD0010 		stw 30,16(29)
 3506              	.LVL281:
 3507              		.loc 7 811 0
 3508 0138 901D000C 		stw 0,12(29)
 3509              	.LVL282:
 3510              		.loc 7 812 0
 3511 013c 93DD0014 		stw 30,20(29)
 3512              		.loc 7 813 0
 3513 0140 901D0018 		stw 0,24(29)
 3514 0144 4BFFFF84 		b .L225
 3515              	.LVL283:
 3516              	.L248:
 3517 0148 7C7F1B78 		mr 31,3
 3518              	.L232:
 3519              	.LVL284:
 3520              	.LBE3009:
 3521              	.LBE3008:
 3522              	.LBE3007:
 3523              	.LBE3006:
 3524              	.LBE3010:
 3525              	.LBE3011:
 3526              	.LBE3012:
 3527              	.LBE3013:
 3528              	.LBE3017:
 3529              	.LBE3021:
 3530              	.LBE3034:
 3531              	.LBB3035:
 3532              	.LBB3036:
 3533              	.LBB3037:
 3534              	.LBB3038:
 3535              	.LBB3039:
 3536              	.LBB3040:
 3537              		.loc 7 639 0
 3538 014c 809D000C 		lwz 4,12(29)
 3539 0150 7F83E378 		mr 3,28
 3540 0154 48000001 		bl _ZNSt8_Rb_treeIPN7sigslot12_signal_baseINS0_15single_threadedEEES4_St9_IdentityIS4_ESt4lessIS4_
 3541              	.LVL285:
 3542              	.LBE3040:
 3543              	.LBE3039:
 3544              	.LBE3038:
 3545              	.LBE3037:
 3546              	.LBE3036:
 3547              	.LBE3035:
 3548              	.LBB3041:
 3549              	.LBB3042:
 3550              	.LBB3043:
 3551              		.loc 1 105 0
 3552 0158 3D200000 		lis 9,_ZTVN7sigslot15single_threadedE+8@ha
 3553 015c 38090008 		la 0,_ZTVN7sigslot15single_threadedE+8@l(9)
 3554 0160 7FE3FB78 		mr 3,31
 3555 0164 901D0000 		stw 0,0(29)
 3556              	.LEHB19:
 3557 0168 48000001 		bl _Unwind_Resume
 3558              	.LEHE19:
 3559              	.LVL286:
 3560              	.L249:
 3561              	.LBE3043:
 3562              	.LBE3042:
 3563              	.LBE3041:
 3564              	.LBB3044:
 3565              	.LBB3022:
 3566              	.LBB3018:
 3567              	.LBB3019:
 3568              	.LBB3020:
 3569              		.loc 1 343 0
 3570 016c 813D0000 		lwz 9,0(29)
 3571 0170 7C7F1B78 		mr 31,3
 3572              	.LVL287:
 3573 0174 7FA3EB78 		mr 3,29
 3574 0178 8009000C 		lwz 0,12(9)
 3575 017c 7C0903A6 		mtctr 0
 3576 0180 4E800421 		bctrl
 3577 0184 4BFFFFC8 		b .L232
 3578              	.LBE3020:
 3579              	.LBE3019:
 3580              	.LBE3018:
 3581              	.LBE3022:
 3582              	.LBE3044:
 3583              	.LBE3048:
 3584              	.LBE3052:
 3585              	.LBE3056:
 3586              		.cfi_endproc
 3587              	.LFE1615:
 3588              		.section	.gcc_except_table
 3589              	.LLSDA1615:
 3590 005f FF       		.byte	0xff
 3591 0060 FF       		.byte	0xff
 3592 0061 01       		.byte	0x1
 3593 0062 15       		.uleb128 .LLSDACSE1615-.LLSDACSB1615
 3594              	.LLSDACSB1615:
 3595 0063 38       		.uleb128 .LEHB16-.LFB1615
 3596 0064 04       		.uleb128 .LEHE16-.LEHB16
 3597 0065 C802     		.uleb128 .L248-.LFB1615
 3598 0067 00       		.uleb128 0
 3599 0068 60       		.uleb128 .LEHB17-.LFB1615
 3600 0069 04       		.uleb128 .LEHE17-.LEHB17
 3601 006a EC02     		.uleb128 .L249-.LFB1615
 3602 006c 00       		.uleb128 0
 3603 006d D801     		.uleb128 .LEHB18-.LFB1615
 3604 006f 04       		.uleb128 .LEHE18-.LEHB18
 3605 0070 C802     		.uleb128 .L248-.LFB1615
 3606 0072 00       		.uleb128 0
 3607 0073 E802     		.uleb128 .LEHB19-.LFB1615
 3608 0075 04       		.uleb128 .LEHE19-.LEHB19
 3609 0076 00       		.uleb128 0
 3610 0077 00       		.uleb128 0
 3611              	.LLSDACSE1615:
 3612              		.section	.text._ZN7sigslot9has_slotsINS_15single_threadedEED0Ev,"axG",@progbits,_ZN7sigslot9has_sl
 3613              		.size	_ZN7sigslot9has_slotsINS_15single_threadedEED0Ev, .-_ZN7sigslot9has_slotsINS_15single_thread
 3614              		.section	.text._ZNSt8_Rb_treeIPN7sigslot12_signal_baseINS0_15single_threadedEEES4_St9_IdentityIS4_
 3615              		.align 2
 3616              		.weak	_ZNSt8_Rb_treeIPN7sigslot12_signal_baseINS0_15single_threadedEEES4_St9_IdentityIS4_ESt4lessI
 3617              		.type	_ZNSt8_Rb_treeIPN7sigslot12_signal_baseINS0_15single_threadedEEES4_St9_IdentityIS4_ESt4lessI
 3618              	_ZNSt8_Rb_treeIPN7sigslot12_signal_baseINS0_15single_threadedEEES4_St9_IdentityIS4_ESt4lessIS4_ESaI
 3619              	.LFB1845:
 3620              		.loc 7 1264 0
 3621              		.cfi_startproc
 3622              	.LVL288:
 3623 0000 7C0802A6 		mflr 0
 3624 0004 9421FFE0 		stwu 1,-32(1)
 3625              	.LCFI51:
 3626              		.cfi_def_cfa_offset 32
 3627              		.cfi_register 65, 0
 3628 0008 93810010 		stw 28,16(1)
 3629 000c 90010024 		stw 0,36(1)
 3630 0010 9361000C 		stw 27,12(1)
 3631 0014 7C9B2378 		mr 27,4
 3632              		.cfi_offset 27, -20
 3633              		.cfi_offset 65, 4
 3634              		.cfi_offset 28, -16
 3635              	.LBB3096:
 3636              	.LBB3097:
 3637              	.LBB3098:
 3638              		.loc 4 87 0
 3639 0018 83830008 		lwz 28,8(3)
 3640              	.LVL289:
 3641              	.LBE3098:
 3642              	.LBE3097:
 3643              	.LBE3096:
 3644              		.loc 7 1264 0
 3645 001c 93A10014 		stw 29,20(1)
 3646              	.LBB3123:
 3647              	.LBB3115:
 3648              	.LBB3111:
 3649              		.loc 7 1272 0
 3650 0020 3BA30004 		addi 29,3,4
 3651              		.cfi_offset 29, -12
 3652              	.LVL290:
 3653              	.LBE3111:
 3654              	.LBE3115:
 3655              		.loc 7 1274 0
 3656 0024 2F9C0000 		cmpwi 7,28,0
 3657              	.LBE3123:
 3658              		.loc 7 1264 0
 3659 0028 93E1001C 		stw 31,28(1)
 3660 002c 93410008 		stw 26,8(1)
 3661 0030 7C7F1B78 		mr 31,3
 3662              		.cfi_offset 26, -24
 3663              		.cfi_offset 31, -4
 3664 0034 93C10018 		stw 30,24(1)
 3665              	.LBB3124:
 3666              		.loc 7 1274 0
 3667 0038 419E0084 		beq- 7,.L269
 3668              		.cfi_offset 30, -8
 3669              	.LVL291:
 3670 003c 81440000 		lwz 10,0(4)
 3671 0040 48000014 		b .L258
 3672              	.LVL292:
 3673              	.L277:
 3674              		.loc 4 87 0 discriminator 1
 3675 0044 801C0008 		lwz 0,8(28)
 3676              	.LVL293:
 3677              		.loc 7 1274 0 discriminator 1
 3678 0048 2F800000 		cmpwi 7,0,0
 3679 004c 419E0028 		beq- 7,.L276
 3680              	.LVL294:
 3681              	.L270:
 3682              		.loc 7 1274 0 is_stmt 0
 3683 0050 7C1C0378 		mr 28,0
 3684              	.LVL295:
 3685              	.L258:
 3686              		.loc 4 87 0 is_stmt 1
 3687 0054 813C0010 		lwz 9,16(28)
 3688 0058 39600001 		li 11,1
 3689              		.loc 7 1278 0
 3690 005c 7F895040 		cmplw 7,9,10
 3691 0060 41BDFFE4 		bgt- 7,.L277
 3692              	.LVL296:
 3693              		.loc 4 87 0 discriminator 2
 3694 0064 801C000C 		lwz 0,12(28)
 3695 0068 39600000 		li 11,0
 3696              	.LVL297:
 3697              		.loc 7 1274 0 discriminator 2
 3698 006c 2F800000 		cmpwi 7,0,0
 3699 0070 409EFFE0 		bne+ 7,.L270
 3700              	.LVL298:
 3701              	.L276:
 3702              		.loc 7 1281 0
 3703 0074 2F8B0000 		cmpwi 7,11,0
 3704 0078 7F83E378 		mr 3,28
 3705              	.LVL299:
 3706 007c 409E0044 		bne- 7,.L255
 3707              	.LVL300:
 3708              		.loc 7 1289 0
 3709 0080 7F8A4840 		cmplw 7,10,9
 3710 0084 419D0060 		bgt- 7,.L278
 3711              	.LVL301:
 3712              	.L265:
 3713              		.loc 7 1292 0
 3714 0088 38000000 		li 0,0
 3715 008c 38800000 		li 4,0
 3716 0090 5004C00E 		rlwimi 4,0,24,0,7
 3717              	.LBE3124:
 3718              		.loc 7 1293 0
 3719 0094 80010024 		lwz 0,36(1)
 3720 0098 83410008 		lwz 26,8(1)
 3721 009c 7C0803A6 		mtlr 0
 3722 00a0 8361000C 		lwz 27,12(1)
 3723              	.LVL302:
 3724 00a4 83810010 		lwz 28,16(1)
 3725 00a8 83A10014 		lwz 29,20(1)
 3726 00ac 83C10018 		lwz 30,24(1)
 3727 00b0 83E1001C 		lwz 31,28(1)
 3728              	.LVL303:
 3729 00b4 38210020 		addi 1,1,32
 3730              		.cfi_remember_state
 3731              	.LCFI52:
 3732              		.cfi_def_cfa_offset 0
 3733              		.cfi_restore 31
 3734              		.cfi_restore 30
 3735              		.cfi_restore 29
 3736              		.cfi_restore 28
 3737              		.cfi_restore 27
 3738              		.cfi_restore 26
 3739 00b8 4E800020 		blr
 3740              	.LVL304:
 3741              	.L269:
 3742              	.LCFI53:
 3743              		.cfi_restore_state
 3744              	.LBB3125:
 3745              		.loc 7 1272 0
 3746 00bc 7FBCEB78 		mr 28,29
 3747              	.LVL305:
 3748              	.L255:
 3749              		.loc 7 1283 0
 3750 00c0 801F000C 		lwz 0,12(31)
 3751 00c4 7F9C0000 		cmpw 7,28,0
 3752 00c8 419E003C 		beq- 7,.L279
 3753              	.LVL306:
 3754              	.LBB3116:
 3755              	.LBB3117:
 3756              		.loc 7 203 0
 3757 00cc 7F83E378 		mr 3,28
 3758 00d0 48000001 		bl _ZSt18_Rb_tree_decrementPSt18_Rb_tree_node_base
 3759              	.LVL307:
 3760 00d4 815B0000 		lwz 10,0(27)
 3761 00d8 81230010 		lwz 9,16(3)
 3762              	.LVL308:
 3763              	.LBE3117:
 3764              	.LBE3116:
 3765              		.loc 7 1289 0
 3766 00dc 7F8A4840 		cmplw 7,10,9
 3767 00e0 409DFFA8 		ble+ 7,.L265
 3768              	.LVL309:
 3769              	.L278:
 3770              	.LBB3118:
 3771              	.LBB3112:
 3772              		.loc 7 969 0
 3773 00e4 7F9CE800 		cmpw 7,28,29
 3774 00e8 3B400001 		li 26,1
 3775 00ec 419E0038 		beq- 7,.L266
 3776              	.LVL310:
 3777              		.loc 7 1264 0
 3778 00f0 835C0010 		lwz 26,16(28)
 3779 00f4 7F5A5010 		subfc 26,26,10
 3780 00f8 7F5AD110 		subfe 26,26,26
 3781 00fc 7F5A00D0 		neg 26,26
 3782 0100 48000024 		b .L266
 3783              	.LVL311:
 3784              	.L279:
 3785              	.LBE3112:
 3786              	.LBE3118:
 3787              	.LBB3119:
 3788              	.LBB3120:
 3789              		.loc 7 969 0
 3790 0104 7F9CE800 		cmpw 7,28,29
 3791 0108 3B400001 		li 26,1
 3792 010c 419E0018 		beq- 7,.L266
 3793              	.LVL312:
 3794              		.loc 7 1264 0
 3795 0110 835B0000 		lwz 26,0(27)
 3796 0114 801C0010 		lwz 0,16(28)
 3797              	.LVL313:
 3798 0118 7F40D010 		subfc 26,0,26
 3799 011c 7F5AD110 		subfe 26,26,26
 3800 0120 7F5A00D0 		neg 26,26
 3801              	.LVL314:
 3802              	.L266:
 3803              	.LBE3120:
 3804              	.LBE3119:
 3805              	.LBB3121:
 3806              	.LBB3113:
 3807              	.LBB3099:
 3808              	.LBB3100:
 3809              	.LBB3101:
 3810              	.LBB3102:
 3811              	.LBB3103:
 3812              		.loc 6 92 0
 3813 0124 38600014 		li 3,20
 3814 0128 48000001 		bl _Znwj
 3815              	.LBE3103:
 3816              	.LBE3102:
 3817              	.LBE3101:
 3818              	.LBB3106:
 3819              	.LBB3107:
 3820              		.loc 6 108 0
 3821 012c 2F83FFF0 		cmpwi 7,3,-16
 3822              	.LBE3107:
 3823              	.LBE3106:
 3824              	.LBB3109:
 3825              	.LBB3105:
 3826              	.LBB3104:
 3827              		.loc 6 92 0
 3828 0130 7C7E1B78 		mr 30,3
 3829              	.LVL315:
 3830              	.LBE3104:
 3831              	.LBE3105:
 3832              	.LBE3109:
 3833              	.LBB3110:
 3834              	.LBB3108:
 3835              		.loc 6 108 0
 3836 0134 419E000C 		beq- 7,.L268
 3837 0138 801B0000 		lwz 0,0(27)
 3838 013c 90030010 		stw 0,16(3)
 3839              	.L268:
 3840              	.LVL316:
 3841              	.LBE3108:
 3842              	.LBE3110:
 3843              	.LBE3100:
 3844              	.LBE3099:
 3845              		.loc 7 973 0
 3846 0140 7F43D378 		mr 3,26
 3847              	.LVL317:
 3848 0144 7FC4F378 		mr 4,30
 3849 0148 7F85E378 		mr 5,28
 3850 014c 7FA6EB78 		mr 6,29
 3851 0150 48000001 		bl _ZSt29_Rb_tree_insert_and_rebalancebPSt18_Rb_tree_node_baseS0_RS_
 3852              		.loc 7 976 0
 3853 0154 813F0014 		lwz 9,20(31)
 3854              		.loc 7 1291 0
 3855 0158 38800000 		li 4,0
 3856 015c 7FC3F378 		mr 3,30
 3857              		.loc 7 976 0
 3858 0160 38090001 		addi 0,9,1
 3859              	.LBE3113:
 3860              	.LBE3121:
 3861              	.LBE3125:
 3862              		.loc 7 1293 0
 3863 0164 83410008 		lwz 26,8(1)
 3864              	.LVL318:
 3865              	.LBB3126:
 3866              	.LBB3122:
 3867              	.LBB3114:
 3868              		.loc 7 976 0
 3869 0168 901F0014 		stw 0,20(31)
 3870              	.LVL319:
 3871              		.loc 7 1291 0
 3872 016c 38000001 		li 0,1
 3873 0170 5004C00E 		rlwimi 4,0,24,0,7
 3874              	.LBE3114:
 3875              	.LBE3122:
 3876              	.LBE3126:
 3877              		.loc 7 1293 0
 3878 0174 80010024 		lwz 0,36(1)
 3879 0178 8361000C 		lwz 27,12(1)
 3880              	.LVL320:
 3881 017c 7C0803A6 		mtlr 0
 3882 0180 83810010 		lwz 28,16(1)
 3883 0184 83A10014 		lwz 29,20(1)
 3884 0188 83C10018 		lwz 30,24(1)
 3885              	.LVL321:
 3886 018c 83E1001C 		lwz 31,28(1)
 3887              	.LVL322:
 3888 0190 38210020 		addi 1,1,32
 3889              		.cfi_restore 26
 3890              		.cfi_restore 27
 3891              		.cfi_restore 28
 3892              		.cfi_restore 29
 3893              		.cfi_restore 30
 3894              		.cfi_restore 31
 3895              	.LCFI54:
 3896              		.cfi_def_cfa_offset 0
 3897 0194 4E800020 		blr
 3898              		.cfi_endproc
 3899              	.LFE1845:
 3900              		.size	_ZNSt8_Rb_treeIPN7sigslot12_signal_baseINS0_15single_threadedEEES4_St9_IdentityIS4_ESt4lessI
 3901              		.section	.text._ZN7sigslot7signal3IP9GuiButtoniRK6_POINTNS_15single_threadedEE7connectI14KeyboardW
 3902              		.align 2
 3903              		.weak	_ZN7sigslot7signal3IP9GuiButtoniRK6_POINTNS_15single_threadedEE7connectI14KeyboardWindowEEvP
 3904              		.type	_ZN7sigslot7signal3IP9GuiButtoniRK6_POINTNS_15single_threadedEE7connectI14KeyboardWindowEEvP
 3905              	_ZN7sigslot7signal3IP9GuiButtoniRK6_POINTNS_15single_threadedEE7connectI14KeyboardWindowEEvPT_MSA_F
 3906              	.LFB1623:
 3907              		.loc 1 2308 0
 3908              		.cfi_startproc
 3909              		.cfi_personality 0,__gxx_personality_v0
 3910              		.cfi_lsda 0,.LLSDA1623
 3911              	.LVL323:
 3912 0000 7C0802A6 		mflr 0
 3913 0004 9421FFD0 		stwu 1,-48(1)
 3914              	.LCFI55:
 3915              		.cfi_def_cfa_offset 48
 3916              		.cfi_register 65, 0
 3917 0008 9361001C 		stw 27,28(1)
 3918 000c 90010034 		stw 0,52(1)
 3919 0010 93C10028 		stw 30,40(1)
 3920 0014 7C9E2378 		mr 30,4
 3921              		.cfi_offset 30, -8
 3922              		.cfi_offset 65, 4
 3923              		.cfi_offset 27, -20
 3924              	.LBB3127:
 3925              	.LBB3128:
 3926              	.LBB3129:
 3927              		.loc 1 338 0
 3928 0018 81230000 		lwz 9,0(3)
 3929              	.LBE3129:
 3930              	.LBE3128:
 3931              	.LBE3127:
 3932              		.loc 1 2308 0
 3933 001c 93E1002C 		stw 31,44(1)
 3934 0020 7C7F1B78 		mr 31,3
 3935              		.cfi_offset 31, -4
 3936              	.LVL324:
 3937              	.LBB3182:
 3938              	.LBB3133:
 3939              	.LBB3130:
 3940              		.loc 1 338 0
 3941 0024 80090008 		lwz 0,8(9)
 3942              	.LBE3130:
 3943              	.LBE3133:
 3944              	.LBE3182:
 3945              		.loc 1 2308 0
 3946 0028 93810020 		stw 28,32(1)
 3947 002c 93A10024 		stw 29,36(1)
 3948              	.LBB3183:
 3949              	.LBB3134:
 3950              	.LBB3131:
 3951              		.loc 1 338 0
 3952 0030 7C0903A6 		mtctr 0
 3953              	.LBE3131:
 3954              	.LBE3134:
 3955              	.LBE3183:
 3956              		.loc 1 2308 0
 3957 0034 83650000 		lwz 27,0(5)
 3958 0038 83850004 		lwz 28,4(5)
 3959              		.cfi_offset 29, -12
 3960              		.cfi_offset 28, -16
 3961              	.LEHB20:
 3962              	.LBB3184:
 3963              	.LBB3135:
 3964              	.LBB3132:
 3965              		.loc 1 338 0
 3966 003c 4E800421 		bctrl
 3967              	.LEHE20:
 3968              	.LVL325:
 3969              	.LBE3132:
 3970              	.LBE3135:
 3971              		.loc 1 2314 0
 3972 0040 38600010 		li 3,16
 3973              	.LEHB21:
 3974 0044 48000001 		bl _Znwj
 3975              	.LBB3136:
 3976              	.LBB3137:
 3977              		.loc 1 1778 0
 3978 0048 3D200000 		lis 9,_ZTVN7sigslot12_connection3I14KeyboardWindowP9GuiButtoniRK6_POINTNS_15single_threadedEEE+8@h
 3979              		.loc 1 1779 0
 3980 004c 93C30004 		stw 30,4(3)
 3981              		.loc 1 1778 0
 3982 0050 38090008 		la 0,_ZTVN7sigslot12_connection3I14KeyboardWindowP9GuiButtoniRK6_POINTNS_15single_threadedEEE+8@l(
 3983              		.loc 1 1780 0
 3984 0054 93630008 		stw 27,8(3)
 3985              		.loc 1 1778 0
 3986 0058 90030000 		stw 0,0(3)
 3987              	.LBE3137:
 3988              	.LBE3136:
 3989              		.loc 1 2314 0
 3990 005c 7C7D1B78 		mr 29,3
 3991              	.LVL326:
 3992              	.LBB3139:
 3993              	.LBB3138:
 3994              		.loc 1 1780 0
 3995 0060 9383000C 		stw 28,12(3)
 3996              	.LVL327:
 3997              	.LBE3138:
 3998              	.LBE3139:
 3999              	.LBB3140:
 4000              	.LBB3141:
 4001              	.LBB3142:
 4002              	.LBB3143:
 4003              	.LBB3144:
 4004              	.LBB3145:
 4005              	.LBB3146:
 4006              	.LBB3147:
 4007              		.loc 6 92 0
 4008 0064 3860000C 		li 3,12
 4009              	.LVL328:
 4010 0068 48000001 		bl _Znwj
 4011              	.LVL329:
 4012              	.LBE3147:
 4013              	.LBE3146:
 4014              	.LBE3145:
 4015              	.LBB3148:
 4016              	.LBB3149:
 4017              		.loc 6 108 0 discriminator 1
 4018 006c 2F83FFF8 		cmpwi 7,3,-8
 4019 0070 419E0008 		beq- 7,.L282
 4020              		.loc 6 108 0 is_stmt 0
 4021 0074 93A30008 		stw 29,8(3)
 4022              	.LVL330:
 4023              	.L282:
 4024              	.LBE3149:
 4025              	.LBE3148:
 4026              	.LBE3144:
 4027              	.LBE3143:
 4028              		.loc 5 1516 0 is_stmt 1
 4029 0078 389F0004 		addi 4,31,4
 4030              	.LBE3142:
 4031              	.LBE3141:
 4032              	.LBE3140:
 4033              	.LBB3154:
 4034              	.LBB3155:
 4035              		.loc 1 503 0
 4036 007c 3BBE00B0 		addi 29,30,176
 4037              	.LVL331:
 4038              	.LBE3155:
 4039              	.LBE3154:
 4040              	.LBB3171:
 4041              	.LBB3152:
 4042              	.LBB3150:
 4043              		.loc 5 1516 0
 4044 0080 48000001 		bl _ZNSt8__detail15_List_node_base7_M_hookEPS0_
 4045              	.LVL332:
 4046              	.LBE3150:
 4047              	.LBE3152:
 4048              	.LBE3171:
 4049              	.LBB3172:
 4050              	.LBB3168:
 4051              	.LBB3156:
 4052              	.LBB3157:
 4053              		.loc 1 338 0
 4054 0084 813E00B0 		lwz 9,176(30)
 4055              	.LBE3157:
 4056              	.LBE3156:
 4057              	.LBE3168:
 4058              	.LBE3172:
 4059              	.LBB3173:
 4060              	.LBB3153:
 4061              	.LBB3151:
 4062              		.loc 5 1516 0
 4063 0088 93E10008 		stw 31,8(1)
 4064              	.LVL333:
 4065              	.LBE3151:
 4066              	.LBE3153:
 4067              	.LBE3173:
 4068              	.LBB3174:
 4069              	.LBB3169:
 4070              	.LBB3159:
 4071              	.LBB3158:
 4072              		.loc 1 338 0
 4073 008c 7FA3EB78 		mr 3,29
 4074 0090 80090008 		lwz 0,8(9)
 4075 0094 7C0903A6 		mtctr 0
 4076 0098 4E800421 		bctrl
 4077              	.LEHE21:
 4078              	.LVL334:
 4079              	.LBE3158:
 4080              	.LBE3159:
 4081              	.LBB3160:
 4082              	.LBB3161:
 4083              		.file 8 "d:\\devkitpro\\devkitppc\\bin\\../lib/gcc/powerpc-eabi/4.6.3/../../../../powerpc-eabi/inc
 4084              		.loc 8 410 0
 4085 009c 387E00B4 		addi 3,30,180
 4086 00a0 38810008 		addi 4,1,8
 4087              	.LEHB22:
 4088 00a4 48000001 		bl _ZNSt8_Rb_treeIPN7sigslot12_signal_baseINS0_15single_threadedEEES4_St9_IdentityIS4_ESt4lessIS4_
 4089              	.LEHE22:
 4090              	.LVL335:
 4091              	.LBE3161:
 4092              	.LBE3160:
 4093              	.LBB3162:
 4094              	.LBB3163:
 4095              	.LBB3164:
 4096              		.loc 1 343 0
 4097 00a8 813E00B0 		lwz 9,176(30)
 4098 00ac 7FA3EB78 		mr 3,29
 4099 00b0 8009000C 		lwz 0,12(9)
 4100 00b4 7C0903A6 		mtctr 0
 4101              	.LEHB23:
 4102 00b8 4E800421 		bctrl
 4103              	.LEHE23:
 4104              	.LVL336:
 4105              	.LBE3164:
 4106              	.LBE3163:
 4107              	.LBE3162:
 4108              	.LBE3169:
 4109              	.LBE3174:
 4110              	.LBB3175:
 4111              	.LBB3176:
 4112              	.LBB3177:
 4113 00bc 813F0000 		lwz 9,0(31)
 4114 00c0 7FE3FB78 		mr 3,31
 4115 00c4 8009000C 		lwz 0,12(9)
 4116 00c8 7C0903A6 		mtctr 0
 4117              	.LEHB24:
 4118 00cc 4E800421 		bctrl
 4119              	.LEHE24:
 4120              	.LBE3177:
 4121              	.LBE3176:
 4122              	.LBE3175:
 4123              	.LBE3184:
 4124              		.loc 1 2317 0
 4125 00d0 80010034 		lwz 0,52(1)
 4126 00d4 8361001C 		lwz 27,28(1)
 4127              	.LVL337:
 4128 00d8 7C0803A6 		mtlr 0
 4129 00dc 83810020 		lwz 28,32(1)
 4130              	.LVL338:
 4131 00e0 83A10024 		lwz 29,36(1)
 4132              	.LVL339:
 4133 00e4 83C10028 		lwz 30,40(1)
 4134              	.LVL340:
 4135 00e8 83E1002C 		lwz 31,44(1)
 4136              	.LVL341:
 4137 00ec 38210030 		addi 1,1,48
 4138              		.cfi_remember_state
 4139              	.LCFI56:
 4140              		.cfi_def_cfa_offset 0
 4141              		.cfi_restore 31
 4142              		.cfi_restore 30
 4143              		.cfi_restore 29
 4144              		.cfi_restore 28
 4145              		.cfi_restore 27
 4146 00f0 4E800020 		blr
 4147              	.LVL342:
 4148              	.L289:
 4149              	.LCFI57:
 4150              		.cfi_restore_state
 4151 00f4 7C7E1B78 		mr 30,3
 4152              	.LVL343:
 4153              	.L286:
 4154              	.LBB3185:
 4155              	.LBB3178:
 4156              	.LBB3179:
 4157              	.LBB3180:
 4158              		.loc 1 343 0
 4159 00f8 813F0000 		lwz 9,0(31)
 4160 00fc 7FE3FB78 		mr 3,31
 4161 0100 8009000C 		lwz 0,12(9)
 4162 0104 7C0903A6 		mtctr 0
 4163 0108 4E800421 		bctrl
 4164 010c 7FC3F378 		mr 3,30
 4165              	.LEHB25:
 4166 0110 48000001 		bl _Unwind_Resume
 4167              	.LEHE25:
 4168              	.LVL344:
 4169              	.L290:
 4170              	.LBE3180:
 4171              	.LBE3179:
 4172              	.LBE3178:
 4173              	.LBB3181:
 4174              	.LBB3170:
 4175              	.LBB3165:
 4176              	.LBB3166:
 4177              	.LBB3167:
 4178 0114 813E00B0 		lwz 9,176(30)
 4179 0118 7C7E1B78 		mr 30,3
 4180              	.LVL345:
 4181 011c 7FA3EB78 		mr 3,29
 4182 0120 8009000C 		lwz 0,12(9)
 4183 0124 7C0903A6 		mtctr 0
 4184 0128 4E800421 		bctrl
 4185 012c 4BFFFFCC 		b .L286
 4186              	.LBE3167:
 4187              	.LBE3166:
 4188              	.LBE3165:
 4189              	.LBE3170:
 4190              	.LBE3181:
 4191              	.LBE3185:
 4192              		.cfi_endproc
 4193              	.LFE1623:
 4194              		.section	.gcc_except_table
 4195              	.LLSDA1623:
 4196 0078 FF       		.byte	0xff
 4197 0079 FF       		.byte	0xff
 4198 007a 01       		.byte	0x1
 4199 007b 1F       		.uleb128 .LLSDACSE1623-.LLSDACSB1623
 4200              	.LLSDACSB1623:
 4201 007c 3C       		.uleb128 .LEHB20-.LFB1623
 4202 007d 04       		.uleb128 .LEHE20-.LEHB20
 4203 007e 00       		.uleb128 0
 4204 007f 00       		.uleb128 0
 4205 0080 44       		.uleb128 .LEHB21-.LFB1623
 4206 0081 58       		.uleb128 .LEHE21-.LEHB21
 4207 0082 F401     		.uleb128 .L289-.LFB1623
 4208 0084 00       		.uleb128 0
 4209 0085 A401     		.uleb128 .LEHB22-.LFB1623
 4210 0087 04       		.uleb128 .LEHE22-.LEHB22
 4211 0088 9402     		.uleb128 .L290-.LFB1623
 4212 008a 00       		.uleb128 0
 4213 008b B801     		.uleb128 .LEHB23-.LFB1623
 4214 008d 04       		.uleb128 .LEHE23-.LEHB23
 4215 008e F401     		.uleb128 .L289-.LFB1623
 4216 0090 00       		.uleb128 0
 4217 0091 CC01     		.uleb128 .LEHB24-.LFB1623
 4218 0093 04       		.uleb128 .LEHE24-.LEHB24
 4219 0094 00       		.uleb128 0
 4220 0095 00       		.uleb128 0
 4221 0096 9002     		.uleb128 .LEHB25-.LFB1623
 4222 0098 04       		.uleb128 .LEHE25-.LEHB25
 4223 0099 00       		.uleb128 0
 4224 009a 00       		.uleb128 0
 4225              	.LLSDACSE1623:
 4226              		.section	.text._ZN7sigslot7signal3IP9GuiButtoniRK6_POINTNS_15single_threadedEE7connectI14KeyboardW
 4227              		.size	_ZN7sigslot7signal3IP9GuiButtoniRK6_POINTNS_15single_threadedEE7connectI14KeyboardWindowEEvP
 4228              		.section	.text._ZNSt8_Rb_treeIPN7sigslot12_signal_baseINS0_15single_threadedEEES4_St9_IdentityIS4_
 4229              		.align 2
 4230              		.weak	_ZNSt8_Rb_treeIPN7sigslot12_signal_baseINS0_15single_threadedEEES4_St9_IdentityIS4_ESt4lessI
 4231              		.type	_ZNSt8_Rb_treeIPN7sigslot12_signal_baseINS0_15single_threadedEEES4_St9_IdentityIS4_ESt4lessI
 4232              	_ZNSt8_Rb_treeIPN7sigslot12_signal_baseINS0_15single_threadedEEES4_St9_IdentityIS4_ESt4lessIS4_ESaI
 4233              	.LFB1945:
 4234              		.loc 7 1510 0
 4235              		.cfi_startproc
 4236              	.LVL346:
 4237 0000 7C0802A6 		mflr 0
 4238 0004 9421FFE0 		stwu 1,-32(1)
 4239              	.LCFI58:
 4240              		.cfi_def_cfa_offset 32
 4241              		.cfi_register 65, 0
 4242 0008 93810010 		stw 28,16(1)
 4243              	.LBB3238:
 4244              	.LBB3239:
 4245              		.loc 7 1155 0
 4246 000c 3B830004 		addi 28,3,4
 4247              		.cfi_offset 28, -16
 4248              	.LBE3239:
 4249              	.LBE3238:
 4250              		.loc 7 1510 0
 4251 0010 90010024 		stw 0,36(1)
 4252 0014 93410008 		stw 26,8(1)
 4253              	.LBB3298:
 4254              	.LBB3260:
 4255              	.LBB3240:
 4256              		.loc 7 1155 0
 4257 0018 7F9AE378 		mr 26,28
 4258              		.cfi_offset 26, -24
 4259              		.cfi_offset 65, 4
 4260              	.LBE3240:
 4261              		.loc 4 87 0
 4262 001c 80030008 		lwz 0,8(3)
 4263              	.LBE3260:
 4264              	.LBE3298:
 4265              		.loc 7 1510 0
 4266 0020 93A10014 		stw 29,20(1)
 4267              	.LBB3299:
 4268              	.LBB3261:
 4269              	.LBB3253:
 4270              		.loc 7 1155 0
 4271 0024 7F9DE378 		mr 29,28
 4272              		.cfi_offset 29, -12
 4273              		.loc 7 1156 0
 4274 0028 2F800000 		cmpwi 7,0,0
 4275              	.LBE3253:
 4276              	.LBE3261:
 4277              	.LBE3299:
 4278              		.loc 7 1510 0
 4279 002c 93C10018 		stw 30,24(1)
 4280 0030 9361000C 		stw 27,12(1)
 4281 0034 7C7E1B78 		mr 30,3
 4282              		.cfi_offset 27, -20
 4283              		.cfi_offset 30, -8
 4284              	.LVL347:
 4285 0038 93E1001C 		stw 31,28(1)
 4286              	.LBB3300:
 4287              	.LBB3262:
 4288              	.LBB3254:
 4289              		.loc 7 1156 0
 4290 003c 419E0040 		beq- 7,.L293
 4291              		.cfi_offset 31, -4
 4292              	.LVL348:
 4293 0040 81640000 		lwz 11,0(4)
 4294 0044 7C1A0378 		mr 26,0
 4295 0048 48000010 		b .L304
 4296              	.LVL349:
 4297              	.L322:
 4298              	.LBE3254:
 4299              		.loc 4 87 0
 4300 004c 835A000C 		lwz 26,12(26)
 4301              	.LVL350:
 4302              	.LBB3255:
 4303              		.loc 7 1156 0
 4304 0050 2F9A0000 		cmpwi 7,26,0
 4305 0054 419E0024 		beq- 7,.L321
 4306              	.L304:
 4307              	.LVL351:
 4308              	.LBE3255:
 4309              		.loc 4 87 0
 4310 0058 813A0010 		lwz 9,16(26)
 4311              	.LBB3256:
 4312              	.LBB3241:
 4313              		.loc 7 1158 0
 4314 005c 7F895840 		cmplw 7,9,11
 4315 0060 41BCFFEC 		blt- 7,.L322
 4316              	.LVL352:
 4317              	.LBB3242:
 4318              		.loc 7 1160 0
 4319 0064 409D0094 		ble- 7,.L296
 4320              	.LVL353:
 4321              	.LBE3242:
 4322              	.LBE3241:
 4323              	.LBE3256:
 4324              		.loc 4 87 0
 4325 0068 7F5DD378 		mr 29,26
 4326              		.loc 7 1161 0
 4327 006c 835A0008 		lwz 26,8(26)
 4328              	.LVL354:
 4329              	.LBB3257:
 4330              		.loc 7 1156 0
 4331 0070 2F9A0000 		cmpwi 7,26,0
 4332 0074 409EFFE4 		bne+ 7,.L304
 4333              	.LVL355:
 4334              	.L321:
 4335 0078 7FBAEB78 		mr 26,29
 4336              	.LVL356:
 4337              	.L293:
 4338              	.LBE3257:
 4339              	.LBE3262:
 4340              	.LBB3263:
 4341              	.LBB3264:
 4342              	.LBB3265:
 4343              		.loc 7 1500 0
 4344 007c 813E000C 		lwz 9,12(30)
 4345              	.LBE3265:
 4346              	.LBE3264:
 4347              	.LBE3263:
 4348              	.LBB3294:
 4349              	.LBB3258:
 4350              		.loc 4 87 0
 4351 0080 837E0014 		lwz 27,20(30)
 4352              	.LVL357:
 4353              	.LBE3258:
 4354              	.LBE3294:
 4355              	.LBB3295:
 4356              	.LBB3292:
 4357              	.LBB3290:
 4358              		.loc 7 1500 0
 4359 0084 7F9A4800 		cmpw 7,26,9
 4360 0088 419E00DC 		beq- 7,.L323
 4361              	.L305:
 4362              	.LVL358:
 4363              		.loc 7 1503 0
 4364 008c 7F9DD000 		cmpw 7,29,26
 4365 0090 419E0100 		beq- 7,.L312
 4366              	.LVL359:
 4367              	.L319:
 4368              	.LBB3266:
 4369              	.LBB3267:
 4370              		.loc 7 277 0
 4371 0094 7F43D378 		mr 3,26
 4372 0098 48000001 		bl _ZSt18_Rb_tree_incrementPKSt18_Rb_tree_node_base
 4373              	.LBE3267:
 4374              	.LBE3266:
 4375              	.LBB3269:
 4376              	.LBB3270:
 4377              	.LBB3271:
 4378              		.loc 7 1489 0
 4379 009c 7F84E378 		mr 4,28
 4380              	.LBE3271:
 4381              	.LBE3270:
 4382              	.LBE3269:
 4383              	.LBB3282:
 4384              	.LBB3268:
 4385              		.loc 7 277 0
 4386 00a0 7C7F1B78 		mr 31,3
 4387              	.LVL360:
 4388              	.LBE3268:
 4389              	.LBE3282:
 4390              	.LBB3283:
 4391              	.LBB3279:
 4392              	.LBB3276:
 4393              		.loc 7 1489 0
 4394 00a4 7F43D378 		mr 3,26
 4395              	.LVL361:
 4396 00a8 48000001 		bl _ZSt28_Rb_tree_rebalance_for_erasePSt18_Rb_tree_node_baseRS_
 4397              	.LBE3276:
 4398              	.LBE3279:
 4399              	.LBE3283:
 4400              		.loc 7 277 0
 4401 00ac 7FFAFB78 		mr 26,31
 4402              	.LVL362:
 4403              	.LBB3284:
 4404              	.LBB3280:
 4405              	.LBB3277:
 4406              	.LBB3272:
 4407              	.LBB3273:
 4408              	.LBB3274:
 4409              	.LBB3275:
 4410              		.loc 6 98 0
 4411 00b0 48000001 		bl _ZdlPv
 4412              	.LBE3275:
 4413              	.LBE3274:
 4414              	.LBE3273:
 4415              	.LBE3272:
 4416              	.LBE3277:
 4417              	.LBE3280:
 4418              	.LBE3284:
 4419              		.loc 7 1503 0
 4420 00b4 7F9DF800 		cmpw 7,29,31
 4421              	.LBB3285:
 4422              	.LBB3281:
 4423              	.LBB3278:
 4424              		.loc 7 1491 0
 4425 00b8 813E0014 		lwz 9,20(30)
 4426 00bc 3809FFFF 		addi 0,9,-1
 4427 00c0 901E0014 		stw 0,20(30)
 4428              	.LBE3278:
 4429              	.LBE3281:
 4430              	.LBE3285:
 4431              		.loc 7 1503 0
 4432 00c4 409EFFD0 		bne+ 7,.L319
 4433 00c8 7F60D850 		subf 27,0,27
 4434              	.LVL363:
 4435              	.L307:
 4436              	.LBE3290:
 4437              	.LBE3292:
 4438              	.LBE3295:
 4439              	.LBE3300:
 4440              		.loc 7 1517 0
 4441 00cc 80010024 		lwz 0,36(1)
 4442 00d0 7F63DB78 		mr 3,27
 4443 00d4 83410008 		lwz 26,8(1)
 4444 00d8 7C0803A6 		mtlr 0
 4445 00dc 8361000C 		lwz 27,12(1)
 4446 00e0 83810010 		lwz 28,16(1)
 4447 00e4 83A10014 		lwz 29,20(1)
 4448              	.LVL364:
 4449 00e8 83C10018 		lwz 30,24(1)
 4450              	.LVL365:
 4451 00ec 83E1001C 		lwz 31,28(1)
 4452 00f0 38210020 		addi 1,1,32
 4453              		.cfi_remember_state
 4454              	.LCFI59:
 4455              		.cfi_def_cfa_offset 0
 4456              		.cfi_restore 31
 4457              		.cfi_restore 30
 4458              		.cfi_restore 29
 4459              		.cfi_restore 28
 4460              		.cfi_restore 27
 4461              		.cfi_restore 26
 4462 00f4 4E800020 		blr
 4463              	.LVL366:
 4464              	.L296:
 4465              	.LCFI60:
 4466              		.cfi_restore_state
 4467              	.LBB3301:
 4468              	.LBB3296:
 4469              		.loc 4 87 0
 4470 00f8 815A0008 		lwz 10,8(26)
 4471              	.LVL367:
 4472 00fc 813A000C 		lwz 9,12(26)
 4473              	.LVL368:
 4474              	.L320:
 4475              	.LBB3259:
 4476              	.LBB3252:
 4477              	.LBB3251:
 4478              	.LBB3243:
 4479              	.LBB3244:
 4480              	.LBB3245:
 4481              		.loc 7 1089 0
 4482 0100 2F8A0000 		cmpwi 7,10,0
 4483 0104 419E0020 		beq- 7,.L297
 4484              	.L324:
 4485              	.LVL369:
 4486              		.loc 7 1090 0
 4487 0108 810A0010 		lwz 8,16(10)
 4488 010c 7F885840 		cmplw 7,8,11
 4489 0110 419C004C 		blt- 7,.L298
 4490              	.LVL370:
 4491              	.LBE3245:
 4492              		.loc 4 87 0
 4493 0114 7D5A5378 		mr 26,10
 4494              		.loc 7 1091 0
 4495 0118 814A0008 		lwz 10,8(10)
 4496              	.LVL371:
 4497              	.LBB3246:
 4498              		.loc 7 1089 0
 4499 011c 2F8A0000 		cmpwi 7,10,0
 4500 0120 409EFFE8 		bne+ 7,.L324
 4501              	.LVL372:
 4502              	.L297:
 4503              	.LBE3246:
 4504              	.LBE3244:
 4505              	.LBB3247:
 4506              	.LBB3248:
 4507              		.loc 7 1121 0
 4508 0124 2F890000 		cmpwi 7,9,0
 4509 0128 41BEFF54 		beq- 7,.L293
 4510              	.LVL373:
 4511              		.loc 7 1122 0
 4512 012c 81490010 		lwz 10,16(9)
 4513 0130 7F8A5840 		cmplw 7,10,11
 4514 0134 409D0020 		ble- 7,.L301
 4515              	.LVL374:
 4516              	.L325:
 4517              	.LBE3248:
 4518              		.loc 4 87 0
 4519 0138 7D3D4B78 		mr 29,9
 4520              		.loc 7 1123 0
 4521 013c 81290008 		lwz 9,8(9)
 4522              	.LVL375:
 4523              	.LBB3249:
 4524              		.loc 7 1121 0
 4525 0140 2F890000 		cmpwi 7,9,0
 4526 0144 41BEFF38 		beq- 7,.L293
 4527              	.LVL376:
 4528              		.loc 7 1122 0
 4529 0148 81490010 		lwz 10,16(9)
 4530 014c 7F8A5840 		cmplw 7,10,11
 4531 0150 41BDFFE8 		bgt- 7,.L325
 4532              	.LVL377:
 4533              	.L301:
 4534              	.LBE3249:
 4535              		.loc 4 87 0
 4536 0154 8129000C 		lwz 9,12(9)
 4537              	.LVL378:
 4538 0158 4BFFFFCC 		b .L297
 4539              	.LVL379:
 4540              	.L298:
 4541              	.LBE3247:
 4542              	.LBB3250:
 4543 015c 814A000C 		lwz 10,12(10)
 4544              	.LVL380:
 4545 0160 4BFFFFA0 		b .L320
 4546              	.LVL381:
 4547              	.L323:
 4548              	.LBE3250:
 4549              	.LBE3243:
 4550              	.LBE3251:
 4551              	.LBE3252:
 4552              	.LBE3259:
 4553              	.LBE3296:
 4554              	.LBB3297:
 4555              	.LBB3293:
 4556              	.LBB3291:
 4557              		.loc 7 1500 0
 4558 0164 7F9CE800 		cmpw 7,28,29
 4559 0168 409EFF24 		bne+ 7,.L305
 4560              	.LVL382:
 4561              	.LBB3286:
 4562              	.LBB3287:
 4563              	.LBB3288:
 4564              	.LBB3289:
 4565              		.loc 7 809 0
 4566 016c 7C040378 		mr 4,0
 4567              	.LVL383:
 4568 0170 7FC3F378 		mr 3,30
 4569              	.LVL384:
 4570 0174 48000001 		bl _ZNSt8_Rb_treeIPN7sigslot12_signal_baseINS0_15single_threadedEEES4_St9_IdentityIS4_ESt4lessIS4_
 4571              	.LVL385:
 4572              		.loc 7 811 0
 4573 0178 38000000 		li 0,0
 4574              		.loc 7 810 0
 4575 017c 939E000C 		stw 28,12(30)
 4576              	.LVL386:
 4577              		.loc 7 811 0
 4578 0180 901E0008 		stw 0,8(30)
 4579              	.LVL387:
 4580              		.loc 7 812 0
 4581 0184 939E0010 		stw 28,16(30)
 4582              		.loc 7 813 0
 4583 0188 901E0014 		stw 0,20(30)
 4584 018c 4BFFFF40 		b .L307
 4585              	.LVL388:
 4586              	.L312:
 4587              	.LBE3289:
 4588              	.LBE3288:
 4589              	.LBE3287:
 4590              	.LBE3286:
 4591              		.loc 7 1503 0
 4592 0190 3B600000 		li 27,0
 4593 0194 4BFFFF38 		b .L307
 4594              	.LBE3291:
 4595              	.LBE3293:
 4596              	.LBE3297:
 4597              	.LBE3301:
 4598              		.cfi_endproc
 4599              	.LFE1945:
 4600              		.size	_ZNSt8_Rb_treeIPN7sigslot12_signal_baseINS0_15single_threadedEEES4_St9_IdentityIS4_ESt4lessI
 4601              		.section	.text._ZN7sigslot13_signal_base2IP14KeyboardWindowPwNS_15single_threadedEED0Ev,"axG",@pro
 4602              		.align 2
 4603              		.weak	_ZN7sigslot13_signal_base2IP14KeyboardWindowPwNS_15single_threadedEED0Ev
 4604              		.type	_ZN7sigslot13_signal_base2IP14KeyboardWindowPwNS_15single_threadedEED0Ev, @function
 4605              	_ZN7sigslot13_signal_base2IP14KeyboardWindowPwNS_15single_threadedEED0Ev:
 4606              	.LFB1704:
 4607              		.loc 1 823 0
 4608              		.cfi_startproc
 4609              		.cfi_personality 0,__gxx_personality_v0
 4610              		.cfi_lsda 0,.LLSDA1704
 4611              	.LVL389:
 4612 0000 7C0802A6 		mflr 0
 4613 0004 9421FFD8 		stwu 1,-40(1)
 4614              	.LCFI61:
 4615              		.cfi_def_cfa_offset 40
 4616              		.cfi_register 65, 0
 4617              	.LBB3397:
 4618              	.LBB3398:
 4619              	.LBB3399:
 4620              		.loc 1 826 0
 4621 0008 3D200000 		lis 9,_ZTVN7sigslot13_signal_base2IP14KeyboardWindowPwNS_15single_threadedEEE+8@ha
 4622              	.LBE3399:
 4623              	.LBE3398:
 4624              	.LBE3397:
 4625              		.loc 1 823 0
 4626 000c 93810018 		stw 28,24(1)
 4627 0010 7C7C1B78 		mr 28,3
 4628              		.cfi_offset 28, -16
 4629              	.LVL390:
 4630 0014 9001002C 		stw 0,44(1)
 4631              	.LBB3484:
 4632              	.LBB3480:
 4633              	.LBB3476:
 4634              		.loc 1 826 0
 4635 0018 38090008 		la 0,_ZTVN7sigslot13_signal_base2IP14KeyboardWindowPwNS_15single_threadedEEE+8@l(9)
 4636              		.cfi_offset 65, 4
 4637              	.LBE3476:
 4638              	.LBE3480:
 4639              	.LBE3484:
 4640              		.loc 1 823 0
 4641 001c 93A1001C 		stw 29,28(1)
 4642 0020 3BA30004 		addi 29,3,4
 4643              		.cfi_offset 29, -12
 4644 0024 93C10020 		stw 30,32(1)
 4645 0028 93E10024 		stw 31,36(1)
 4646              	.LBB3485:
 4647              	.LBB3481:
 4648              	.LBB3477:
 4649              		.loc 1 826 0
 4650 002c 90030000 		stw 0,0(3)
 4651              	.LVL391:
 4652              	.LEHB26:
 4653              	.LBB3400:
 4654              	.LBB3401:
 4655              	.LBB3402:
 4656              	.LBB3403:
 4657              		.loc 1 338 0
 4658              		.cfi_offset 31, -4
 4659              		.cfi_offset 30, -8
 4660 0030 48000001 		bl _ZN7sigslot15single_threaded4lockEv
 4661              	.LEHE26:
 4662              	.LVL392:
 4663              	.LBE3403:
 4664              	.LBE3402:
 4665              	.LBE3401:
 4666              		.loc 4 87 0
 4667 0034 7F9DE378 		mr 29,28
 4668              	.LVL393:
 4669 0038 87FD0004 		lwzu 31,4(29)
 4670              	.LVL394:
 4671              	.LBB3434:
 4672              		.loc 1 834 0
 4673 003c 7F9FE800 		cmpw 7,31,29
 4674 0040 419E00A8 		beq- 7,.L327
 4675              	.LVL395:
 4676              	.L365:
 4677              		.loc 1 836 0
 4678 0044 807F0008 		lwz 3,8(31)
 4679 0048 81230000 		lwz 9,0(3)
 4680 004c 80090008 		lwz 0,8(9)
 4681 0050 7C0903A6 		mtctr 0
 4682              	.LEHB27:
 4683 0054 4E800421 		bctrl
 4684              	.LBB3404:
 4685              	.LBB3405:
 4686              	.LBB3406:
 4687              	.LBB3407:
 4688              		.loc 1 338 0
 4689 0058 81230000 		lwz 9,0(3)
 4690              	.LBE3407:
 4691              	.LBE3406:
 4692              	.LBE3405:
 4693              	.LBE3404:
 4694              		.loc 1 836 0
 4695 005c 7C7E1B78 		mr 30,3
 4696              	.LVL396:
 4697 0060 93810008 		stw 28,8(1)
 4698              	.LVL397:
 4699              	.LBB3416:
 4700              	.LBB3415:
 4701              	.LBB3409:
 4702              	.LBB3408:
 4703              		.loc 1 338 0
 4704 0064 80090008 		lwz 0,8(9)
 4705 0068 7C0903A6 		mtctr 0
 4706 006c 4E800421 		bctrl
 4707              	.LVL398:
 4708              	.LBE3408:
 4709              	.LBE3409:
 4710              	.LBB3410:
 4711              	.LBB3411:
 4712              		.loc 8 528 0
 4713 0070 387E0004 		addi 3,30,4
 4714 0074 38810008 		addi 4,1,8
 4715 0078 48000001 		bl _ZNSt8_Rb_treeIPN7sigslot12_signal_baseINS0_15single_threadedEEES4_St9_IdentityIS4_ESt4lessIS4_
 4716              	.LVL399:
 4717              	.LBE3411:
 4718              	.LBE3410:
 4719              	.LBB3412:
 4720              	.LBB3413:
 4721              	.LBB3414:
 4722              		.loc 1 343 0
 4723 007c 813E0000 		lwz 9,0(30)
 4724 0080 7FC3F378 		mr 3,30
 4725 0084 8009000C 		lwz 0,12(9)
 4726 0088 7C0903A6 		mtctr 0
 4727 008c 4E800421 		bctrl
 4728              	.LVL400:
 4729              	.LBE3414:
 4730              	.LBE3413:
 4731              	.LBE3412:
 4732              	.LBE3415:
 4733              	.LBE3416:
 4734              		.loc 1 837 0
 4735 0090 807F0008 		lwz 3,8(31)
 4736 0094 2F830000 		cmpwi 7,3,0
 4737 0098 419E0014 		beq- 7,.L329
 4738 009c 81230000 		lwz 9,0(3)
 4739 00a0 80090004 		lwz 0,4(9)
 4740 00a4 7C0903A6 		mtctr 0
 4741 00a8 4E800421 		bctrl
 4742              	.LEHE27:
 4743              	.L329:
 4744              	.LVL401:
 4745              	.LBB3417:
 4746              	.LBB3418:
 4747              		.loc 5 234 0
 4748 00ac 83FF0000 		lwz 31,0(31)
 4749              	.LVL402:
 4750              	.LBE3418:
 4751              	.LBE3417:
 4752              		.loc 1 834 0
 4753 00b0 7F9DF800 		cmpw 7,29,31
 4754 00b4 409EFF90 		bne+ 7,.L365
 4755              	.LBE3434:
 4756              		.loc 4 87 0
 4757 00b8 83FC0004 		lwz 31,4(28)
 4758              	.LVL403:
 4759              	.LBB3435:
 4760              	.LBB3419:
 4761              	.LBB3420:
 4762              		.loc 5 1162 0
 4763 00bc 7F9DF800 		cmpw 7,29,31
 4764 00c0 40BE000C 		bne+ 7,.L367
 4765 00c4 48000024 		b .L327
 4766              	.LVL404:
 4767              	.L360:
 4768              		.loc 5 1163 0
 4769 00c8 7FDFF378 		mr 31,30
 4770              	.LVL405:
 4771              	.L367:
 4772              	.LBB3421:
 4773              	.LBB3422:
 4774              		.file 9 "d:\\devkitpro\\devkitppc\\bin\\../lib/gcc/powerpc-eabi/4.6.3/../../../../powerpc-eabi/inc
 4775              		.loc 9 112 0
 4776 00cc 83DF0000 		lwz 30,0(31)
 4777              	.LVL406:
 4778              	.LBB3423:
 4779              	.LBB3424:
 4780              		.loc 5 1532 0
 4781 00d0 7FE3FB78 		mr 3,31
 4782 00d4 48000001 		bl _ZNSt8__detail15_List_node_base9_M_unhookEv
 4783              	.LVL407:
 4784              	.LBB3425:
 4785              	.LBB3426:
 4786              	.LBB3427:
 4787              		.loc 6 98 0
 4788 00d8 7FE3FB78 		mr 3,31
 4789 00dc 48000001 		bl _ZdlPv
 4790              	.LVL408:
 4791              	.LBE3427:
 4792              	.LBE3426:
 4793              	.LBE3425:
 4794              	.LBE3424:
 4795              	.LBE3423:
 4796              	.LBE3422:
 4797              	.LBE3421:
 4798              		.loc 5 1162 0
 4799 00e0 7F9DF000 		cmpw 7,29,30
 4800 00e4 409EFFE4 		bne+ 7,.L360
 4801              	.LVL409:
 4802              	.L327:
 4803              	.LBE3420:
 4804              	.LBE3419:
 4805              	.LBB3428:
 4806              	.LBB3429:
 4807              	.LBB3430:
 4808              		.loc 1 343 0
 4809 00e8 813C0000 		lwz 9,0(28)
 4810 00ec 7F83E378 		mr 3,28
 4811 00f0 8009000C 		lwz 0,12(9)
 4812 00f4 7C0903A6 		mtctr 0
 4813              	.LEHB28:
 4814 00f8 4E800421 		bctrl
 4815              	.LEHE28:
 4816              	.LVL410:
 4817              	.LBE3430:
 4818              	.LBE3429:
 4819              	.LBE3428:
 4820              	.LBE3435:
 4821              	.LBE3400:
 4822              	.LBB3437:
 4823              	.LBB3438:
 4824              	.LBB3439:
 4825              	.LBB3440:
 4826              	.LBB3441:
 4827              	.LBB3442:
 4828              		.loc 9 70 0
 4829 00fc 807C0004 		lwz 3,4(28)
 4830              	.LVL411:
 4831              		.loc 9 71 0
 4832 0100 7F83E800 		cmpw 7,3,29
 4833 0104 40BE000C 		bne+ 7,.L369
 4834 0108 48000018 		b .L345
 4835              	.LVL412:
 4836              	.L361:
 4837              		.loc 9 74 0
 4838 010c 7FE3FB78 		mr 3,31
 4839              	.LVL413:
 4840              	.L369:
 4841              	.LBB3443:
 4842 0110 83E30000 		lwz 31,0(3)
 4843              	.LVL414:
 4844              	.LBB3444:
 4845              	.LBB3445:
 4846              	.LBB3446:
 4847              		.loc 6 98 0
 4848 0114 48000001 		bl _ZdlPv
 4849              	.LVL415:
 4850              	.LBE3446:
 4851              	.LBE3445:
 4852              	.LBE3444:
 4853              	.LBE3443:
 4854              		.loc 9 71 0
 4855 0118 7F9FE800 		cmpw 7,31,29
 4856 011c 409EFFF0 		bne+ 7,.L361
 4857              	.LVL416:
 4858              	.L345:
 4859              	.LBE3442:
 4860              	.LBE3441:
 4861              	.LBE3440:
 4862              	.LBE3439:
 4863              	.LBE3438:
 4864              	.LBE3437:
 4865              	.LBB3447:
 4866              	.LBB3448:
 4867              	.LBB3449:
 4868              	.LBB3450:
 4869              	.LBB3451:
 4870              	.LBB3452:
 4871              		.loc 1 105 0
 4872 0120 3D200000 		lis 9,_ZTVN7sigslot15single_threadedE+8@ha
 4873              	.LBE3452:
 4874              	.LBE3451:
 4875              	.LBE3450:
 4876              	.LBE3449:
 4877              	.LBE3448:
 4878              	.LBE3447:
 4879              	.LBE3477:
 4880              	.LBE3481:
 4881              	.LBE3485:
 4882              		.loc 1 826 0
 4883 0124 7F83E378 		mr 3,28
 4884              	.LBB3486:
 4885              	.LBB3482:
 4886              	.LBB3478:
 4887              	.LBB3458:
 4888              	.LBB3457:
 4889              	.LBB3456:
 4890              	.LBB3455:
 4891              	.LBB3454:
 4892              	.LBB3453:
 4893              		.loc 1 105 0
 4894 0128 38090008 		la 0,_ZTVN7sigslot15single_threadedE+8@l(9)
 4895 012c 901C0000 		stw 0,0(28)
 4896              	.LBE3453:
 4897              	.LBE3454:
 4898              	.LBE3455:
 4899              	.LBE3456:
 4900              	.LBE3457:
 4901              	.LBE3458:
 4902              	.LBE3478:
 4903              	.LBE3482:
 4904              	.LBE3486:
 4905              		.loc 1 826 0
 4906 0130 48000001 		bl _ZdlPv
 4907 0134 8001002C 		lwz 0,44(1)
 4908 0138 83810018 		lwz 28,24(1)
 4909              	.LVL417:
 4910 013c 7C0803A6 		mtlr 0
 4911 0140 83A1001C 		lwz 29,28(1)
 4912              	.LVL418:
 4913 0144 83C10020 		lwz 30,32(1)
 4914 0148 83E10024 		lwz 31,36(1)
 4915 014c 38210028 		addi 1,1,40
 4916              		.cfi_remember_state
 4917              	.LCFI62:
 4918              		.cfi_def_cfa_offset 0
 4919              		.cfi_restore 31
 4920              		.cfi_restore 30
 4921              		.cfi_restore 29
 4922              		.cfi_restore 28
 4923 0150 4E800020 		blr
 4924              	.LVL419:
 4925              	.L363:
 4926              	.LCFI63:
 4927              		.cfi_restore_state
 4928 0154 7C7F1B78 		mr 31,3
 4929              	.L337:
 4930              	.LVL420:
 4931              	.LBB3487:
 4932              	.LBB3483:
 4933              	.LBB3479:
 4934              	.LBB3459:
 4935              	.LBB3460:
 4936              	.LBB3461:
 4937              	.LBB3462:
 4938              	.LBB3463:
 4939              	.LBB3464:
 4940              		.loc 9 70 0
 4941 0158 807C0004 		lwz 3,4(28)
 4942              	.LVL421:
 4943              		.loc 9 71 0
 4944 015c 7F83E800 		cmpw 7,3,29
 4945 0160 419E0038 		beq- 7,.L354
 4946              	.LVL422:
 4947              	.L370:
 4948              	.LBB3465:
 4949              		.loc 9 74 0
 4950 0164 83C30000 		lwz 30,0(3)
 4951              	.LVL423:
 4952              	.LBB3466:
 4953              	.LBB3467:
 4954              	.LBB3468:
 4955              		.loc 6 98 0
 4956 0168 48000001 		bl _ZdlPv
 4957              	.LVL424:
 4958              	.LBE3468:
 4959              	.LBE3467:
 4960              	.LBE3466:
 4961              	.LBE3465:
 4962              		.loc 9 71 0
 4963 016c 7F9EE800 		cmpw 7,30,29
 4964 0170 419E0028 		beq- 7,.L354
 4965              		.loc 9 74 0
 4966 0174 7FC3F378 		mr 3,30
 4967 0178 4BFFFFEC 		b .L370
 4968              	.LVL425:
 4969              	.L364:
 4970              	.LBE3464:
 4971              	.LBE3463:
 4972              	.LBE3462:
 4973              	.LBE3461:
 4974              	.LBE3460:
 4975              	.LBE3459:
 4976              	.LBB3469:
 4977              	.LBB3436:
 4978              	.LBB3431:
 4979              	.LBB3432:
 4980              	.LBB3433:
 4981              		.loc 1 343 0
 4982 017c 813C0000 		lwz 9,0(28)
 4983 0180 7C7F1B78 		mr 31,3
 4984              	.LVL426:
 4985 0184 7F83E378 		mr 3,28
 4986 0188 8009000C 		lwz 0,12(9)
 4987 018c 7C0903A6 		mtctr 0
 4988 0190 4E800421 		bctrl
 4989 0194 4BFFFFC4 		b .L337
 4990              	.LVL427:
 4991              	.L354:
 4992              	.LBE3433:
 4993              	.LBE3432:
 4994              	.LBE3431:
 4995              	.LBE3436:
 4996              	.LBE3469:
 4997              	.LBB3470:
 4998              	.LBB3471:
 4999              	.LBB3472:
 5000              	.LBB3473:
 5001              	.LBB3474:
 5002              	.LBB3475:
 5003              		.loc 1 105 0
 5004 0198 3D200000 		lis 9,_ZTVN7sigslot15single_threadedE+8@ha
 5005 019c 7FE3FB78 		mr 3,31
 5006 01a0 38090008 		la 0,_ZTVN7sigslot15single_threadedE+8@l(9)
 5007 01a4 901C0000 		stw 0,0(28)
 5008              	.LEHB29:
 5009 01a8 48000001 		bl _Unwind_Resume
 5010              	.LEHE29:
 5011              	.LBE3475:
 5012              	.LBE3474:
 5013              	.LBE3473:
 5014              	.LBE3472:
 5015              	.LBE3471:
 5016              	.LBE3470:
 5017              	.LBE3479:
 5018              	.LBE3483:
 5019              	.LBE3487:
 5020              		.cfi_endproc
 5021              	.LFE1704:
 5022              		.section	.gcc_except_table
 5023              	.LLSDA1704:
 5024 009b FF       		.byte	0xff
 5025 009c FF       		.byte	0xff
 5026 009d 01       		.byte	0x1
 5027 009e 15       		.uleb128 .LLSDACSE1704-.LLSDACSB1704
 5028              	.LLSDACSB1704:
 5029 009f 30       		.uleb128 .LEHB26-.LFB1704
 5030 00a0 04       		.uleb128 .LEHE26-.LEHB26
 5031 00a1 D402     		.uleb128 .L363-.LFB1704
 5032 00a3 00       		.uleb128 0
 5033 00a4 54       		.uleb128 .LEHB27-.LFB1704
 5034 00a5 58       		.uleb128 .LEHE27-.LEHB27
 5035 00a6 FC02     		.uleb128 .L364-.LFB1704
 5036 00a8 00       		.uleb128 0
 5037 00a9 F801     		.uleb128 .LEHB28-.LFB1704
 5038 00ab 04       		.uleb128 .LEHE28-.LEHB28
 5039 00ac D402     		.uleb128 .L363-.LFB1704
 5040 00ae 00       		.uleb128 0
 5041 00af A803     		.uleb128 .LEHB29-.LFB1704
 5042 00b1 04       		.uleb128 .LEHE29-.LEHB29
 5043 00b2 00       		.uleb128 0
 5044 00b3 00       		.uleb128 0
 5045              	.LLSDACSE1704:
 5046              		.section	.text._ZN7sigslot13_signal_base2IP14KeyboardWindowPwNS_15single_threadedEED0Ev,"axG",@pro
 5047              		.size	_ZN7sigslot13_signal_base2IP14KeyboardWindowPwNS_15single_threadedEED0Ev, .-_ZN7sigslot13_si
 5048              		.section	.text._ZN7sigslot7signal2IP14KeyboardWindowPwNS_15single_threadedEED2Ev,"axG",@progbits,_
 5049              		.align 2
 5050              		.weak	_ZN7sigslot7signal2IP14KeyboardWindowPwNS_15single_threadedEED2Ev
 5051              		.type	_ZN7sigslot7signal2IP14KeyboardWindowPwNS_15single_threadedEED2Ev, @function
 5052              	_ZN7sigslot7signal2IP14KeyboardWindowPwNS_15single_threadedEED2Ev:
 5053              	.LFB1620:
 5054              		.loc 1 2235 0
 5055              		.cfi_startproc
 5056              		.cfi_personality 0,__gxx_personality_v0
 5057              		.cfi_lsda 0,.LLSDA1620
 5058              	.LVL428:
 5059 0000 7C0802A6 		mflr 0
 5060 0004 9421FFD8 		stwu 1,-40(1)
 5061              	.LCFI64:
 5062              		.cfi_def_cfa_offset 40
 5063              		.cfi_register 65, 0
 5064              	.LBB3585:
 5065              	.LBB3586:
 5066              	.LBB3587:
 5067              	.LBB3588:
 5068              		.loc 1 826 0
 5069 0008 3D200000 		lis 9,_ZTVN7sigslot13_signal_base2IP14KeyboardWindowPwNS_15single_threadedEEE+8@ha
 5070              	.LBE3588:
 5071              	.LBE3587:
 5072              	.LBE3586:
 5073              	.LBE3585:
 5074              		.loc 1 2235 0
 5075 000c 93810018 		stw 28,24(1)
 5076 0010 7C7C1B78 		mr 28,3
 5077              		.cfi_offset 28, -16
 5078              	.LVL429:
 5079 0014 9001002C 		stw 0,44(1)
 5080              	.LBB3686:
 5081              	.LBB3681:
 5082              	.LBB3676:
 5083              	.LBB3671:
 5084              		.loc 1 826 0
 5085 0018 38090008 		la 0,_ZTVN7sigslot13_signal_base2IP14KeyboardWindowPwNS_15single_threadedEEE+8@l(9)
 5086              		.cfi_offset 65, 4
 5087              	.LBE3671:
 5088              	.LBE3676:
 5089              	.LBE3681:
 5090              	.LBE3686:
 5091              		.loc 1 2235 0
 5092 001c 93A1001C 		stw 29,28(1)
 5093 0020 3BA30004 		addi 29,3,4
 5094              		.cfi_offset 29, -12
 5095 0024 93C10020 		stw 30,32(1)
 5096 0028 93E10024 		stw 31,36(1)
 5097              	.LBB3687:
 5098              	.LBB3682:
 5099              	.LBB3677:
 5100              	.LBB3672:
 5101              		.loc 1 826 0
 5102 002c 90030000 		stw 0,0(3)
 5103              	.LVL430:
 5104              	.LEHB30:
 5105              	.LBB3589:
 5106              	.LBB3590:
 5107              	.LBB3591:
 5108              	.LBB3592:
 5109              		.loc 1 338 0
 5110              		.cfi_offset 31, -4
 5111              		.cfi_offset 30, -8
 5112 0030 48000001 		bl _ZN7sigslot15single_threaded4lockEv
 5113              	.LEHE30:
 5114              	.LVL431:
 5115              	.LBE3592:
 5116              	.LBE3591:
 5117              	.LBE3590:
 5118              		.loc 4 87 0
 5119 0034 7F9DE378 		mr 29,28
 5120              	.LVL432:
 5121 0038 87FD0004 		lwzu 31,4(29)
 5122              	.LVL433:
 5123              	.LBB3623:
 5124              		.loc 1 834 0
 5125 003c 7F9FE800 		cmpw 7,31,29
 5126 0040 419E00A8 		beq- 7,.L372
 5127              	.LVL434:
 5128              	.L410:
 5129              		.loc 1 836 0
 5130 0044 807F0008 		lwz 3,8(31)
 5131 0048 81230000 		lwz 9,0(3)
 5132 004c 80090008 		lwz 0,8(9)
 5133 0050 7C0903A6 		mtctr 0
 5134              	.LEHB31:
 5135 0054 4E800421 		bctrl
 5136              	.LBB3593:
 5137              	.LBB3594:
 5138              	.LBB3595:
 5139              	.LBB3596:
 5140              		.loc 1 338 0
 5141 0058 81230000 		lwz 9,0(3)
 5142              	.LBE3596:
 5143              	.LBE3595:
 5144              	.LBE3594:
 5145              	.LBE3593:
 5146              		.loc 1 836 0
 5147 005c 7C7E1B78 		mr 30,3
 5148              	.LVL435:
 5149 0060 93810008 		stw 28,8(1)
 5150              	.LVL436:
 5151              	.LBB3605:
 5152              	.LBB3604:
 5153              	.LBB3598:
 5154              	.LBB3597:
 5155              		.loc 1 338 0
 5156 0064 80090008 		lwz 0,8(9)
 5157 0068 7C0903A6 		mtctr 0
 5158 006c 4E800421 		bctrl
 5159              	.LVL437:
 5160              	.LBE3597:
 5161              	.LBE3598:
 5162              	.LBB3599:
 5163              	.LBB3600:
 5164              		.loc 8 528 0
 5165 0070 387E0004 		addi 3,30,4
 5166 0074 38810008 		addi 4,1,8
 5167 0078 48000001 		bl _ZNSt8_Rb_treeIPN7sigslot12_signal_baseINS0_15single_threadedEEES4_St9_IdentityIS4_ESt4lessIS4_
 5168              	.LVL438:
 5169              	.LBE3600:
 5170              	.LBE3599:
 5171              	.LBB3601:
 5172              	.LBB3602:
 5173              	.LBB3603:
 5174              		.loc 1 343 0
 5175 007c 813E0000 		lwz 9,0(30)
 5176 0080 7FC3F378 		mr 3,30
 5177 0084 8009000C 		lwz 0,12(9)
 5178 0088 7C0903A6 		mtctr 0
 5179 008c 4E800421 		bctrl
 5180              	.LVL439:
 5181              	.LBE3603:
 5182              	.LBE3602:
 5183              	.LBE3601:
 5184              	.LBE3604:
 5185              	.LBE3605:
 5186              		.loc 1 837 0
 5187 0090 807F0008 		lwz 3,8(31)
 5188 0094 2F830000 		cmpwi 7,3,0
 5189 0098 419E0014 		beq- 7,.L374
 5190 009c 81230000 		lwz 9,0(3)
 5191 00a0 80090004 		lwz 0,4(9)
 5192 00a4 7C0903A6 		mtctr 0
 5193 00a8 4E800421 		bctrl
 5194              	.LEHE31:
 5195              	.L374:
 5196              	.LVL440:
 5197              	.LBB3606:
 5198              	.LBB3607:
 5199              		.loc 5 234 0
 5200 00ac 83FF0000 		lwz 31,0(31)
 5201              	.LVL441:
 5202              	.LBE3607:
 5203              	.LBE3606:
 5204              		.loc 1 834 0
 5205 00b0 7F9DF800 		cmpw 7,29,31
 5206 00b4 409EFF90 		bne+ 7,.L410
 5207              	.LBE3623:
 5208              		.loc 4 87 0
 5209 00b8 83FC0004 		lwz 31,4(28)
 5210              	.LVL442:
 5211              	.LBB3624:
 5212              	.LBB3608:
 5213              	.LBB3609:
 5214              		.loc 5 1162 0
 5215 00bc 7F9DF800 		cmpw 7,29,31
 5216 00c0 40BE000C 		bne+ 7,.L412
 5217 00c4 48000024 		b .L372
 5218              	.LVL443:
 5219              	.L405:
 5220              		.loc 5 1163 0
 5221 00c8 7FDFF378 		mr 31,30
 5222              	.LVL444:
 5223              	.L412:
 5224              	.LBB3610:
 5225              	.LBB3611:
 5226              		.loc 9 112 0
 5227 00cc 83DF0000 		lwz 30,0(31)
 5228              	.LVL445:
 5229              	.LBB3612:
 5230              	.LBB3613:
 5231              		.loc 5 1532 0
 5232 00d0 7FE3FB78 		mr 3,31
 5233 00d4 48000001 		bl _ZNSt8__detail15_List_node_base9_M_unhookEv
 5234              	.LVL446:
 5235              	.LBB3614:
 5236              	.LBB3615:
 5237              	.LBB3616:
 5238              		.loc 6 98 0
 5239 00d8 7FE3FB78 		mr 3,31
 5240 00dc 48000001 		bl _ZdlPv
 5241              	.LVL447:
 5242              	.LBE3616:
 5243              	.LBE3615:
 5244              	.LBE3614:
 5245              	.LBE3613:
 5246              	.LBE3612:
 5247              	.LBE3611:
 5248              	.LBE3610:
 5249              		.loc 5 1162 0
 5250 00e0 7F9DF000 		cmpw 7,29,30
 5251 00e4 409EFFE4 		bne+ 7,.L405
 5252              	.LVL448:
 5253              	.L372:
 5254              	.LBE3609:
 5255              	.LBE3608:
 5256              	.LBB3617:
 5257              	.LBB3618:
 5258              	.LBB3619:
 5259              		.loc 1 343 0
 5260 00e8 813C0000 		lwz 9,0(28)
 5261 00ec 7F83E378 		mr 3,28
 5262 00f0 8009000C 		lwz 0,12(9)
 5263 00f4 7C0903A6 		mtctr 0
 5264              	.LEHB32:
 5265 00f8 4E800421 		bctrl
 5266              	.LEHE32:
 5267              	.LBE3619:
 5268              	.LBE3618:
 5269              	.LBE3617:
 5270              	.LBE3624:
 5271              	.LBE3589:
 5272              	.LBB3626:
 5273              	.LBB3627:
 5274              	.LBB3628:
 5275              	.LBB3629:
 5276              	.LBB3630:
 5277              	.LBB3631:
 5278              		.loc 9 70 0
 5279 00fc 807C0004 		lwz 3,4(28)
 5280              	.LVL449:
 5281              		.loc 9 71 0
 5282 0100 7F83E800 		cmpw 7,3,29
 5283 0104 40BE000C 		bne+ 7,.L414
 5284 0108 48000018 		b .L390
 5285              	.LVL450:
 5286              	.L406:
 5287              		.loc 9 74 0
 5288 010c 7FE3FB78 		mr 3,31
 5289              	.LVL451:
 5290              	.L414:
 5291              	.LBB3632:
 5292 0110 83E30000 		lwz 31,0(3)
 5293              	.LVL452:
 5294              	.LBB3633:
 5295              	.LBB3634:
 5296              	.LBB3635:
 5297              		.loc 6 98 0
 5298 0114 48000001 		bl _ZdlPv
 5299              	.LVL453:
 5300              	.LBE3635:
 5301              	.LBE3634:
 5302              	.LBE3633:
 5303              	.LBE3632:
 5304              		.loc 9 71 0
 5305 0118 7F9FE800 		cmpw 7,31,29
 5306 011c 409EFFF0 		bne+ 7,.L406
 5307              	.LVL454:
 5308              	.L390:
 5309              	.LBE3631:
 5310              	.LBE3630:
 5311              	.LBE3629:
 5312              	.LBE3628:
 5313              	.LBE3627:
 5314              	.LBE3626:
 5315              	.LBB3636:
 5316              	.LBB3637:
 5317              	.LBB3638:
 5318              	.LBB3639:
 5319              	.LBB3640:
 5320              	.LBB3641:
 5321              		.loc 1 105 0
 5322 0120 3D200000 		lis 9,_ZTVN7sigslot15single_threadedE+8@ha
 5323              	.LBE3641:
 5324              	.LBE3640:
 5325              	.LBE3639:
 5326              	.LBE3638:
 5327              	.LBE3637:
 5328              	.LBE3636:
 5329              	.LBE3672:
 5330              	.LBE3677:
 5331              	.LBE3682:
 5332              	.LBE3687:
 5333              		.loc 1 2238 0
 5334 0124 83A1001C 		lwz 29,28(1)
 5335              	.LVL455:
 5336              	.LBB3688:
 5337              	.LBB3683:
 5338              	.LBB3678:
 5339              	.LBB3673:
 5340              	.LBB3652:
 5341              	.LBB3650:
 5342              	.LBB3648:
 5343              	.LBB3646:
 5344              	.LBB3644:
 5345              	.LBB3642:
 5346              		.loc 1 105 0
 5347 0128 38090008 		la 0,_ZTVN7sigslot15single_threadedE+8@l(9)
 5348              	.LBE3642:
 5349              	.LBE3644:
 5350              	.LBE3646:
 5351              	.LBE3648:
 5352              	.LBE3650:
 5353              	.LBE3652:
 5354              	.LBE3673:
 5355              	.LBE3678:
 5356              	.LBE3683:
 5357              	.LBE3688:
 5358              		.loc 1 2238 0
 5359 012c 83C10020 		lwz 30,32(1)
 5360              	.LBB3689:
 5361              	.LBB3684:
 5362              	.LBB3679:
 5363              	.LBB3674:
 5364              	.LBB3653:
 5365              	.LBB3651:
 5366              	.LBB3649:
 5367              	.LBB3647:
 5368              	.LBB3645:
 5369              	.LBB3643:
 5370              		.loc 1 105 0
 5371 0130 901C0000 		stw 0,0(28)
 5372              	.LBE3643:
 5373              	.LBE3645:
 5374              	.LBE3647:
 5375              	.LBE3649:
 5376              	.LBE3651:
 5377              	.LBE3653:
 5378              	.LBE3674:
 5379              	.LBE3679:
 5380              	.LBE3684:
 5381              	.LBE3689:
 5382              		.loc 1 2238 0
 5383 0134 8001002C 		lwz 0,44(1)
 5384 0138 83810018 		lwz 28,24(1)
 5385              	.LVL456:
 5386 013c 7C0803A6 		mtlr 0
 5387 0140 83E10024 		lwz 31,36(1)
 5388 0144 38210028 		addi 1,1,40
 5389              		.cfi_remember_state
 5390              	.LCFI65:
 5391              		.cfi_def_cfa_offset 0
 5392              		.cfi_restore 31
 5393              		.cfi_restore 30
 5394              		.cfi_restore 29
 5395              		.cfi_restore 28
 5396 0148 4E800020 		blr
 5397              	.LVL457:
 5398              	.L408:
 5399              	.LCFI66:
 5400              		.cfi_restore_state
 5401 014c 7C7F1B78 		mr 31,3
 5402              	.L382:
 5403              	.LBB3690:
 5404              	.LBB3685:
 5405              	.LBB3680:
 5406              	.LBB3675:
 5407              	.LBB3654:
 5408              	.LBB3655:
 5409              	.LBB3656:
 5410              	.LBB3657:
 5411              	.LBB3658:
 5412              	.LBB3659:
 5413              		.loc 9 70 0
 5414 0150 807C0004 		lwz 3,4(28)
 5415              	.LVL458:
 5416              		.loc 9 71 0
 5417 0154 7F83E800 		cmpw 7,3,29
 5418 0158 419E0038 		beq- 7,.L399
 5419              	.LVL459:
 5420              	.L415:
 5421              	.LBB3660:
 5422              		.loc 9 74 0
 5423 015c 83C30000 		lwz 30,0(3)
 5424              	.LVL460:
 5425              	.LBB3661:
 5426              	.LBB3662:
 5427              	.LBB3663:
 5428              		.loc 6 98 0
 5429 0160 48000001 		bl _ZdlPv
 5430              	.LVL461:
 5431              	.LBE3663:
 5432              	.LBE3662:
 5433              	.LBE3661:
 5434              	.LBE3660:
 5435              		.loc 9 71 0
 5436 0164 7F9EE800 		cmpw 7,30,29
 5437 0168 419E0028 		beq- 7,.L399
 5438              		.loc 9 74 0
 5439 016c 7FC3F378 		mr 3,30
 5440 0170 4BFFFFEC 		b .L415
 5441              	.LVL462:
 5442              	.L409:
 5443              	.LBE3659:
 5444              	.LBE3658:
 5445              	.LBE3657:
 5446              	.LBE3656:
 5447              	.LBE3655:
 5448              	.LBE3654:
 5449              	.LBB3664:
 5450              	.LBB3625:
 5451              	.LBB3620:
 5452              	.LBB3621:
 5453              	.LBB3622:
 5454              		.loc 1 343 0
 5455 0174 813C0000 		lwz 9,0(28)
 5456 0178 7C7F1B78 		mr 31,3
 5457              	.LVL463:
 5458 017c 7F83E378 		mr 3,28
 5459 0180 8009000C 		lwz 0,12(9)
 5460 0184 7C0903A6 		mtctr 0
 5461 0188 4E800421 		bctrl
 5462 018c 4BFFFFC4 		b .L382
 5463              	.LVL464:
 5464              	.L399:
 5465              	.LBE3622:
 5466              	.LBE3621:
 5467              	.LBE3620:
 5468              	.LBE3625:
 5469              	.LBE3664:
 5470              	.LBB3665:
 5471              	.LBB3666:
 5472              	.LBB3667:
 5473              	.LBB3668:
 5474              	.LBB3669:
 5475              	.LBB3670:
 5476              		.loc 1 105 0
 5477 0190 3D200000 		lis 9,_ZTVN7sigslot15single_threadedE+8@ha
 5478 0194 7FE3FB78 		mr 3,31
 5479 0198 38090008 		la 0,_ZTVN7sigslot15single_threadedE+8@l(9)
 5480 019c 901C0000 		stw 0,0(28)
 5481              	.LEHB33:
 5482 01a0 48000001 		bl _Unwind_Resume
 5483              	.LEHE33:
 5484              	.LBE3670:
 5485              	.LBE3669:
 5486              	.LBE3668:
 5487              	.LBE3667:
 5488              	.LBE3666:
 5489              	.LBE3665:
 5490              	.LBE3675:
 5491              	.LBE3680:
 5492              	.LBE3685:
 5493              	.LBE3690:
 5494              		.cfi_endproc
 5495              	.LFE1620:
 5496              		.section	.gcc_except_table
 5497              	.LLSDA1620:
 5498 00b4 FF       		.byte	0xff
 5499 00b5 FF       		.byte	0xff
 5500 00b6 01       		.byte	0x1
 5501 00b7 15       		.uleb128 .LLSDACSE1620-.LLSDACSB1620
 5502              	.LLSDACSB1620:
 5503 00b8 30       		.uleb128 .LEHB30-.LFB1620
 5504 00b9 04       		.uleb128 .LEHE30-.LEHB30
 5505 00ba CC02     		.uleb128 .L408-.LFB1620
 5506 00bc 00       		.uleb128 0
 5507 00bd 54       		.uleb128 .LEHB31-.LFB1620
 5508 00be 58       		.uleb128 .LEHE31-.LEHB31
 5509 00bf F402     		.uleb128 .L409-.LFB1620
 5510 00c1 00       		.uleb128 0
 5511 00c2 F801     		.uleb128 .LEHB32-.LFB1620
 5512 00c4 04       		.uleb128 .LEHE32-.LEHB32
 5513 00c5 CC02     		.uleb128 .L408-.LFB1620
 5514 00c7 00       		.uleb128 0
 5515 00c8 A003     		.uleb128 .LEHB33-.LFB1620
 5516 00ca 04       		.uleb128 .LEHE33-.LEHB33
 5517 00cb 00       		.uleb128 0
 5518 00cc 00       		.uleb128 0
 5519              	.LLSDACSE1620:
 5520              		.section	.text._ZN7sigslot7signal2IP14KeyboardWindowPwNS_15single_threadedEED2Ev,"axG",@progbits,_
 5521              		.size	_ZN7sigslot7signal2IP14KeyboardWindowPwNS_15single_threadedEED2Ev, .-_ZN7sigslot7signal2IP14
 5522              		.section	".text"
 5523              		.align 2
 5524              		.globl _ZN14KeyboardWindowC2EPwi
 5525              		.type	_ZN14KeyboardWindowC2EPwi, @function
 5526              	_ZN14KeyboardWindowC2EPwi:
 5527              	.LFB1569:
 5528              		.loc 4 20 0
 5529              		.cfi_startproc
 5530              		.cfi_personality 0,__gxx_personality_v0
 5531              		.cfi_lsda 0,.LLSDA1569
 5532              	.LVL465:
 5533 0114 9421FFC8 		stwu 1,-56(1)
 5534              	.LCFI67:
 5535              		.cfi_def_cfa_offset 56
 5536 0118 7C0802A6 		mflr 0
 5537              	.LBB3691:
 5538              		.loc 4 21 0
 5539 011c 38C00000 		li 6,0
 5540              	.LBE3691:
 5541              		.loc 4 20 0
 5542 0120 93810028 		stw 28,40(1)
 5543 0124 7C9C2378 		mr 28,4
 5544              		.cfi_offset 28, -16
 5545              		.cfi_register 65, 0
 5546 0128 93A1002C 		stw 29,44(1)
 5547              	.LBB3758:
 5548              		.loc 4 21 0
 5549 012c 38800000 		li 4,0
 5550              	.LVL466:
 5551              	.LBE3758:
 5552              		.loc 4 20 0
 5553 0130 93E10034 		stw 31,52(1)
 5554 0134 7CBD2B78 		mr 29,5
 5555              		.cfi_offset 31, -4
 5556              		.cfi_offset 29, -12
 5557 0138 7C7F1B78 		mr 31,3
 5558              	.LBB3759:
 5559              		.loc 4 21 0
 5560 013c 38A00000 		li 5,0
 5561              	.LVL467:
 5562              	.LBE3759:
 5563              		.loc 4 20 0
 5564 0140 9001003C 		stw 0,60(1)
 5565 0144 93C10030 		stw 30,48(1)
 5566              	.LBB3760:
 5567              		.loc 4 21 0
 5568 0148 3BDF00FC 		addi 30,31,252
 5569              		.cfi_offset 30, -8
 5570              		.cfi_offset 65, 4
 5571              	.LBE3760:
 5572              		.loc 4 20 0
 5573 014c 93010018 		stw 24,24(1)
 5574 0150 9321001C 		stw 25,28(1)
 5575 0154 93410020 		stw 26,32(1)
 5576 0158 93610024 		stw 27,36(1)
 5577              	.LEHB34:
 5578              	.LBB3761:
 5579              		.loc 4 21 0
 5580              		.cfi_offset 27, -20
 5581              		.cfi_offset 26, -24
 5582              		.cfi_offset 25, -28
 5583              		.cfi_offset 24, -32
 5584 015c 48000001 		bl _ZN8GuiFrameC2EiiPS_
 5585              	.LEHE34:
 5586              	.LVL468:
 5587              	.LBB3692:
 5588              	.LBB3693:
 5589              	.LBB3694:
 5590              	.LBB3695:
 5591              	.LBB3696:
 5592              	.LBB3697:
 5593              	.LBB3698:
 5594              	.LBB3699:
 5595              		.loc 5 380 0
 5596 0160 393F00D0 		addi 9,31,208
 5597              	.LBE3699:
 5598              	.LBE3698:
 5599              	.LBE3697:
 5600              	.LBE3696:
 5601              	.LBE3695:
 5602              	.LBE3694:
 5603              	.LBE3693:
 5604              	.LBE3692:
 5605              		.loc 4 21 0
 5606 0164 3D600000 		lis 11,_ZTV14KeyboardWindow+8@ha
 5607              	.LBB3716:
 5608              	.LBB3717:
 5609              	.LBB3718:
 5610              	.LBB3719:
 5611              	.LBB3720:
 5612              	.LBB3721:
 5613              		.loc 7 445 0
 5614 0168 38000000 		li 0,0
 5615              	.LBE3721:
 5616              	.LBE3720:
 5617              	.LBE3719:
 5618              	.LBE3718:
 5619              	.LBE3717:
 5620              	.LBE3716:
 5621              		.loc 4 21 0
 5622 016c 396B0008 		la 11,_ZTV14KeyboardWindow+8@l(11)
 5623              	.LBB3746:
 5624              	.LBB3712:
 5625              	.LBB3710:
 5626              	.LBB3708:
 5627              	.LBB3706:
 5628              	.LBB3704:
 5629              	.LBB3702:
 5630              	.LBB3700:
 5631              		.loc 5 380 0
 5632 0170 913F00D0 		stw 9,208(31)
 5633              	.LBE3700:
 5634              	.LBE3702:
 5635              	.LBE3704:
 5636              	.LBE3706:
 5637              	.LBE3708:
 5638              	.LBE3710:
 5639              	.LBE3712:
 5640              	.LBE3746:
 5641              	.LBB3747:
 5642              	.LBB3742:
 5643              	.LBB3738:
 5644              	.LBB3734:
 5645              	.LBB3730:
 5646              	.LBB3726:
 5647              	.LBB3722:
 5648              	.LBB3723:
 5649              		.loc 7 459 0
 5650 0174 395F00B8 		addi 10,31,184
 5651              	.LBE3723:
 5652              	.LBE3722:
 5653              	.LBE3726:
 5654              	.LBE3730:
 5655              	.LBE3734:
 5656              	.LBE3738:
 5657              	.LBE3742:
 5658              	.LBE3747:
 5659              	.LBB3748:
 5660              	.LBB3713:
 5661              	.LBB3711:
 5662              	.LBB3709:
 5663              	.LBB3707:
 5664              	.LBB3705:
 5665              	.LBB3703:
 5666              	.LBB3701:
 5667              		.loc 5 381 0
 5668 0178 913F00D4 		stw 9,212(31)
 5669              	.LBE3701:
 5670              	.LBE3703:
 5671              	.LBE3705:
 5672              	.LBE3707:
 5673              	.LBE3709:
 5674              	.LBE3711:
 5675              		.loc 1 2225 0
 5676 017c 3D200000 		lis 9,_ZTVN7sigslot7signal2IP14KeyboardWindowPwNS_15single_threadedEEE+8@ha
 5677              	.LBE3713:
 5678              	.LBE3748:
 5679              		.loc 4 21 0
 5680 0180 390B00E4 		addi 8,11,228
 5681              	.LBB3749:
 5682              	.LBB3743:
 5683              	.LBB3739:
 5684              	.LBB3735:
 5685              	.LBB3731:
 5686              	.LBB3727:
 5687              		.loc 7 445 0
 5688 0184 901F00B8 		stw 0,184(31)
 5689 0188 901F00BC 		stw 0,188(31)
 5690              	.LBE3727:
 5691              	.LBE3731:
 5692              	.LBE3735:
 5693              	.LBE3739:
 5694              	.LBE3743:
 5695              	.LBE3749:
 5696              		.loc 4 21 0
 5697 018c 7FC3F378 		mr 3,30
 5698              	.LBB3750:
 5699              	.LBB3744:
 5700              	.LBB3740:
 5701              	.LBB3736:
 5702              	.LBB3732:
 5703              	.LBB3728:
 5704              		.loc 7 445 0
 5705 0190 901F00C8 		stw 0,200(31)
 5706              	.LVL469:
 5707              	.LBE3728:
 5708              	.LBE3732:
 5709              	.LBE3736:
 5710              	.LBE3740:
 5711              	.LBE3744:
 5712              	.LBE3750:
 5713              	.LBB3751:
 5714              	.LBB3714:
 5715              		.loc 1 2225 0
 5716 0194 38090008 		la 0,_ZTVN7sigslot7signal2IP14KeyboardWindowPwNS_15single_threadedEEE+8@l(9)
 5717              	.LBE3714:
 5718              	.LBE3751:
 5719              	.LBB3752:
 5720              	.LBB3745:
 5721              	.LBB3741:
 5722              	.LBB3737:
 5723              	.LBB3733:
 5724              	.LBB3729:
 5725              	.LBB3725:
 5726              	.LBB3724:
 5727              		.loc 7 459 0
 5728 0198 915F00C0 		stw 10,192(31)
 5729              		.loc 7 460 0
 5730 019c 915F00C4 		stw 10,196(31)
 5731              	.LBE3724:
 5732              	.LBE3725:
 5733              	.LBE3729:
 5734              	.LBE3733:
 5735              	.LBE3737:
 5736              	.LBE3741:
 5737              	.LBE3745:
 5738              	.LBE3752:
 5739              		.loc 4 21 0
 5740 01a0 917F0000 		stw 11,0(31)
 5741 01a4 911F00B0 		stw 8,176(31)
 5742              	.LVL470:
 5743              	.LBB3753:
 5744              	.LBB3715:
 5745              		.loc 1 2225 0
 5746 01a8 901F00CC 		stw 0,204(31)
 5747              	.LEHB35:
 5748              	.LBE3715:
 5749              	.LBE3753:
 5750              		.loc 4 21 0
 5751 01ac 48000001 		bl _ZN10GuiTriggerC1Ev
 5752              	.LEHE35:
 5753              		.loc 4 27 0
 5754 01b0 2F9D0000 		cmpwi 7,29,0
 5755              		.loc 4 23 0
 5756 01b4 3800FFFF 		li 0,-1
 5757              		.loc 4 27 0
 5758 01b8 7FBBEB78 		mr 27,29
 5759              		.loc 4 23 0
 5760 01bc 901F00DC 		stw 0,220(31)
 5761              		.loc 4 24 0
 5762 01c0 939F00E0 		stw 28,224(31)
 5763              		.loc 4 25 0
 5764 01c4 93BF00D8 		stw 29,216(31)
 5765              		.loc 4 27 0
 5766 01c8 419E02C4 		beq- 7,.L434
 5767              	.L418:
 5768              		.loc 4 27 0 is_stmt 0 discriminator 3
 5769 01cc 38600718 		li 3,1816
 5770              	.LEHB36:
 5771 01d0 48000001 		bl _Znwj
 5772              	.LEHE36:
 5773 01d4 7F84E378 		mr 4,28
 5774 01d8 7F65DB78 		mr 5,27
 5775 01dc 7C7D1B78 		mr 29,3
 5776              	.LVL471:
 5777              	.LEHB37:
 5778 01e0 48000001 		bl _ZN11GuiKeyboardC1EPKwj
 5779              	.LEHE37:
 5780              		.loc 4 27 0 discriminator 1
 5781 01e4 93BF00F8 		stw 29,248(31)
 5782              		.loc 4 29 0 is_stmt 1 discriminator 1
 5783 01e8 7FA3EB78 		mr 3,29
 5784 01ec 813D0000 		lwz 9,0(29)
 5785 01f0 80090024 		lwz 0,36(9)
 5786 01f4 7C0903A6 		mtctr 0
 5787              	.LEHB38:
 5788 01f8 4E800421 		bctrl
 5789              		.loc 4 30 0 discriminator 1
 5790 01fc 813F00F8 		lwz 9,248(31)
 5791              		.loc 4 29 0 discriminator 1
 5792 0200 907F0024 		stw 3,36(31)
 5793              		.loc 4 30 0 discriminator 1
 5794 0204 81690000 		lwz 11,0(9)
 5795 0208 7D234B78 		mr 3,9
 5796 020c 800B0028 		lwz 0,40(11)
 5797 0210 7C0903A6 		mtctr 0
 5798 0214 4E800421 		bctrl
 5799 0218 907F0028 		stw 3,40(31)
 5800              		.loc 4 32 0 discriminator 1
 5801 021c 3C600000 		lis 3,.LC4@ha
 5802 0220 38630000 		la 3,.LC4@l(3)
 5803 0224 48000001 		bl _ZN9Resources8GetSoundEPKc
 5804              		.loc 4 33 0 discriminator 1
 5805 0228 3FA00000 		lis 29,Settings@ha
 5806              		.loc 4 32 0 discriminator 1
 5807 022c 907F00F4 		stw 3,244(31)
 5808              		.loc 4 33 0 discriminator 1
 5809 0230 3BBD0000 		la 29,Settings@l(29)
 5810 0234 809D04E0 		lwz 4,1248(29)
 5811 0238 48000001 		bl _ZN8GuiSound9SetVolumeEi
 5812              		.loc 4 35 0
 5813 023c A0BD0A54 		lhz 5,2644(29)
 5814 0240 7FC3F378 		mr 3,30
 5815 0244 A01D0A38 		lhz 0,2616(29)
 5816 0248 3880FFFF 		li 4,-1
 5817 024c 54A5801E 		slwi 5,5,16
 5818 0250 A0DD0A70 		lhz 6,2672(29)
 5819 0254 7CA50378 		or 5,5,0
 5820 0258 48000001 		bl _ZN10GuiTrigger16SetSimpleTriggerEijt
 5821              		.loc 4 37 0
 5822 025c 3C600000 		lis 3,.LC5@ha
 5823 0260 38630010 		la 3,.LC5@l(3)
 5824 0264 48000001 		bl gettext
 5825 0268 3F400000 		lis 26,.LC6@ha
 5826 026c 7C7B1B78 		mr 27,3
 5827 0270 3B5A0014 		la 26,.LC6@l(26)
 5828 0274 7F43D378 		mr 3,26
 5829 0278 48000001 		bl getThemeColor
 5830              		.loc 4 37 0 is_stmt 0 discriminator 1
 5831 027c 7C791B78 		mr 25,3
 5832 0280 386000D0 		li 3,208
 5833 0284 48000001 		bl _Znwj
 5834              	.LEHE38:
 5835              		.loc 4 37 0 discriminator 2
 5836 0288 7C3D0B78 		mr 29,1
 5837 028c 7F64DB78 		mr 4,27
 5838 0290 973D0008 		stwu 25,8(29)
 5839 0294 38A00016 		li 5,22
 5840 0298 7C7C1B78 		mr 28,3
 5841              	.LVL472:
 5842 029c 7FA6EB78 		mr 6,29
 5843              	.LEHB39:
 5844 02a0 48000001 		bl _ZN7GuiTextC1EPKci9_gx_color
 5845              	.LEHE39:
 5846              		.loc 4 37 0 discriminator 1
 5847 02a4 939F00EC 		stw 28,236(31)
 5848              		.loc 4 38 0 is_stmt 1 discriminator 1
 5849 02a8 38600140 		li 3,320
 5850              	.LEHB40:
 5851 02ac 48000001 		bl _Znwj
 5852              	.LEHE40:
 5853 02b0 3F600000 		lis 27,.LC7@ha
 5854 02b4 3F800000 		lis 28,.LC8@ha
 5855 02b8 3B7B0044 		la 27,.LC7@l(27)
 5856 02bc 3B9C0050 		la 28,.LC8@l(28)
 5857 02c0 80FF00F4 		lwz 7,244(31)
 5858 02c4 7F64DB78 		mr 4,27
 5859 02c8 7F85E378 		mr 5,28
 5860 02cc 38C00000 		li 6,0
 5861 02d0 7C791B78 		mr 25,3
 5862              	.LEHB41:
 5863 02d4 48000001 		bl _ZN13PictureButtonC1EPKcS1_P8GuiSoundS3_
 5864              	.LEHE41:
 5865 02d8 933F00E4 		stw 25,228(31)
 5866              		.loc 4 39 0 discriminator 1
 5867 02dc 7F23CB78 		mr 3,25
 5868 02e0 81390000 		lwz 9,0(25)
 5869 02e4 38800041 		li 4,65
 5870 02e8 800900B4 		lwz 0,180(9)
 5871 02ec 7C0903A6 		mtctr 0
 5872              	.LEHB42:
 5873 02f0 4E800421 		bctrl
 5874              		.loc 4 40 0
 5875 02f4 807F00E4 		lwz 3,228(31)
 5876 02f8 38800019 		li 4,25
 5877 02fc 38A0FFE7 		li 5,-25
 5878 0300 81230000 		lwz 9,0(3)
 5879 0304 800900A8 		lwz 0,168(9)
 5880 0308 7C0903A6 		mtctr 0
 5881 030c 4E800421 		bctrl
 5882              		.loc 4 41 0
 5883 0310 807F00E4 		lwz 3,228(31)
 5884 0314 38A00000 		li 5,0
 5885 0318 809F00EC 		lwz 4,236(31)
 5886 031c 48000001 		bl _ZN9GuiButton8SetLabelEP7GuiTexti
 5887              		.loc 4 42 0
 5888 0320 807F00E4 		lwz 3,228(31)
 5889 0324 7FC4F378 		mr 4,30
 5890 0328 48000001 		bl _ZN9GuiButton10SetTriggerEP10GuiTrigger
 5891              		.loc 4 43 0
 5892 032c 807F00E4 		lwz 3,228(31)
 5893 0330 3D200000 		lis 9,_ZN14KeyboardWindow15OnOkButtonClickEP9GuiButtoniRK6_POINT@ha
 5894 0334 38090000 		la 0,_ZN14KeyboardWindow15OnOkButtonClickEP9GuiButtoniRK6_POINT@l(9)
 5895 0338 7FE4FB78 		mr 4,31
 5896 033c 90010010 		stw 0,16(1)
 5897 0340 38630090 		addi 3,3,144
 5898 0344 38000000 		li 0,0
 5899 0348 38A10010 		addi 5,1,16
 5900 034c 90010014 		stw 0,20(1)
 5901 0350 48000001 		bl _ZN7sigslot7signal3IP9GuiButtoniRK6_POINTNS_15single_threadedEE7connectI14KeyboardWindowEEvPT_M
 5902              		.loc 4 45 0
 5903 0354 3C600000 		lis 3,.LC9@ha
 5904 0358 38630060 		la 3,.LC9@l(3)
 5905 035c 48000001 		bl gettext
 5906 0360 7C791B78 		mr 25,3
 5907 0364 7F43D378 		mr 3,26
 5908 0368 48000001 		bl getThemeColor
 5909              		.loc 4 45 0 is_stmt 0 discriminator 1
 5910 036c 7C781B78 		mr 24,3
 5911 0370 386000D0 		li 3,208
 5912 0374 48000001 		bl _Znwj
 5913              	.LEHE42:
 5914              		.loc 4 45 0 discriminator 2
 5915 0378 7F24CB78 		mr 4,25
 5916 037c 38A00016 		li 5,22
 5917 0380 7FA6EB78 		mr 6,29
 5918 0384 7C7A1B78 		mr 26,3
 5919 0388 93010008 		stw 24,8(1)
 5920              	.LEHB43:
 5921 038c 48000001 		bl _ZN7GuiTextC1EPKci9_gx_color
 5922              	.LEHE43:
 5923              		.loc 4 45 0 discriminator 1
 5924 0390 935F00F0 		stw 26,240(31)
 5925              		.loc 4 46 0 is_stmt 1 discriminator 1
 5926 0394 38600140 		li 3,320
 5927              	.LEHB44:
 5928 0398 48000001 		bl _Znwj
 5929              	.LEHE44:
 5930 039c 80FF00F4 		lwz 7,244(31)
 5931 03a0 7F64DB78 		mr 4,27
 5932 03a4 7F85E378 		mr 5,28
 5933 03a8 38C00000 		li 6,0
 5934 03ac 7C7D1B78 		mr 29,3
 5935              	.LEHB45:
 5936 03b0 48000001 		bl _ZN13PictureButtonC1EPKcS1_P8GuiSoundS3_
 5937              	.LEHE45:
 5938 03b4 93BF00E8 		stw 29,232(31)
 5939              		.loc 4 47 0 discriminator 1
 5940 03b8 7FA3EB78 		mr 3,29
 5941 03bc 813D0000 		lwz 9,0(29)
 5942 03c0 38800044 		li 4,68
 5943 03c4 800900B4 		lwz 0,180(9)
 5944 03c8 7C0903A6 		mtctr 0
 5945              	.LEHB46:
 5946 03cc 4E800421 		bctrl
 5947              		.loc 4 48 0
 5948 03d0 807F00E8 		lwz 3,232(31)
 5949 03d4 3880FFE7 		li 4,-25
 5950 03d8 38A0FFE7 		li 5,-25
 5951 03dc 81230000 		lwz 9,0(3)
 5952 03e0 800900A8 		lwz 0,168(9)
 5953 03e4 7C0903A6 		mtctr 0
 5954 03e8 4E800421 		bctrl
 5955              		.loc 4 49 0
 5956 03ec 807F00E8 		lwz 3,232(31)
 5957 03f0 38A00000 		li 5,0
 5958 03f4 809F00F0 		lwz 4,240(31)
 5959 03f8 48000001 		bl _ZN9GuiButton8SetLabelEP7GuiTexti
 5960              		.loc 4 50 0
 5961 03fc 807F00E8 		lwz 3,232(31)
 5962 0400 7FC4F378 		mr 4,30
 5963 0404 48000001 		bl _ZN9GuiButton10SetTriggerEP10GuiTrigger
 5964              		.loc 4 51 0
 5965 0408 807F00E8 		lwz 3,232(31)
 5966 040c 3D200000 		lis 9,_ZN14KeyboardWindow19OnCancelButtonClickEP9GuiButtoniRK6_POINT@ha
 5967 0410 38090000 		la 0,_ZN14KeyboardWindow19OnCancelButtonClickEP9GuiButtoniRK6_POINT@l(9)
 5968 0414 7FE4FB78 		mr 4,31
 5969 0418 90010010 		stw 0,16(1)
 5970 041c 38630090 		addi 3,3,144
 5971 0420 38000000 		li 0,0
 5972 0424 38A10010 		addi 5,1,16
 5973 0428 90010014 		stw 0,20(1)
 5974 042c 48000001 		bl _ZN7sigslot7signal3IP9GuiButtoniRK6_POINTNS_15single_threadedEE7connectI14KeyboardWindowEEvPT_M
 5975              		.loc 4 53 0
 5976 0430 809F00F8 		lwz 4,248(31)
 5977 0434 7FE3FB78 		mr 3,31
 5978 0438 48000001 		bl _ZN8GuiFrame6AppendEP10GuiElement
 5979              		.loc 4 54 0
 5980 043c 809F00E4 		lwz 4,228(31)
 5981 0440 7FE3FB78 		mr 3,31
 5982 0444 48000001 		bl _ZN8GuiFrame6AppendEP10GuiElement
 5983              		.loc 4 55 0
 5984 0448 809F00E8 		lwz 4,232(31)
 5985 044c 7FE3FB78 		mr 3,31
 5986 0450 48000001 		bl _ZN8GuiFrame6AppendEP10GuiElement
 5987              	.LEHE46:
 5988              	.LVL473:
 5989              	.LBB3754:
 5990              	.LBB3755:
 5991              		.loc 2 316 0
 5992 0454 38000022 		li 0,34
 5993              	.LBE3755:
 5994              	.LBE3754:
 5995              	.LBE3761:
 5996              		.loc 4 58 0
 5997 0458 83010018 		lwz 24,24(1)
 5998              	.LBB3762:
 5999              	.LBB3757:
 6000              	.LBB3756:
 6001              		.loc 2 316 0
 6002 045c 901F0044 		stw 0,68(31)
 6003              	.LBE3756:
 6004              	.LBE3757:
 6005              	.LBE3762:
 6006              		.loc 4 58 0
 6007 0460 8001003C 		lwz 0,60(1)
 6008 0464 8321001C 		lwz 25,28(1)
 6009 0468 7C0803A6 		mtlr 0
 6010 046c 83410020 		lwz 26,32(1)
 6011 0470 83610024 		lwz 27,36(1)
 6012 0474 83810028 		lwz 28,40(1)
 6013 0478 83A1002C 		lwz 29,44(1)
 6014 047c 83C10030 		lwz 30,48(1)
 6015 0480 83E10034 		lwz 31,52(1)
 6016              	.LVL474:
 6017 0484 38210038 		addi 1,1,56
 6018              		.cfi_remember_state
 6019              	.LCFI68:
 6020              		.cfi_def_cfa_offset 0
 6021              		.cfi_restore 31
 6022              		.cfi_restore 30
 6023              		.cfi_restore 29
 6024              		.cfi_restore 28
 6025              		.cfi_restore 27
 6026              		.cfi_restore 26
 6027              		.cfi_restore 25
 6028              		.cfi_restore 24
 6029 0488 4E800020 		blr
 6030              	.LVL475:
 6031              	.L434:
 6032              	.LCFI69:
 6033              		.cfi_restore_state
 6034              	.LBB3763:
 6035              		.loc 4 27 0 discriminator 2
 6036 048c 7F83E378 		mr 3,28
 6037 0490 48000001 		bl wcslen
 6038 0494 3B630001 		addi 27,3,1
 6039              	.LVL476:
 6040 0498 4BFFFD34 		b .L418
 6041              	.L426:
 6042 049c 7C7D1B78 		mr 29,3
 6043              	.LVL477:
 6044              	.L425:
 6045              		.loc 4 21 0
 6046 04a0 387F00CC 		addi 3,31,204
 6047 04a4 48000001 		bl _ZN7sigslot7signal2IP14KeyboardWindowPwNS_15single_threadedEED1Ev
 6048 04a8 387F00B0 		addi 3,31,176
 6049 04ac 48000001 		bl _ZN7sigslot9has_slotsINS_15single_threadedEED2Ev
 6050 04b0 7FE3FB78 		mr 3,31
 6051 04b4 48000001 		bl _ZN8GuiFrameD2Ev
 6052 04b8 7FA3EB78 		mr 3,29
 6053              	.LEHB47:
 6054 04bc 48000001 		bl _Unwind_Resume
 6055              	.LEHE47:
 6056              	.L432:
 6057              	.L433:
 6058 04c0 7C7C1B78 		mr 28,3
 6059              		.loc 4 46 0
 6060 04c4 7FA3EB78 		mr 3,29
 6061 04c8 48000001 		bl _ZdlPv
 6062 04cc 7F9DE378 		mr 29,28
 6063              	.L420:
 6064              		.loc 4 21 0
 6065 04d0 7FC3F378 		mr 3,30
 6066 04d4 48000001 		bl _ZN10GuiTriggerD1Ev
 6067 04d8 4BFFFFC8 		b .L425
 6068              	.L431:
 6069 04dc 7C7D1B78 		mr 29,3
 6070              		.loc 4 45 0
 6071 04e0 7F43D378 		mr 3,26
 6072 04e4 48000001 		bl _ZdlPv
 6073 04e8 4BFFFFE8 		b .L420
 6074              	.L430:
 6075 04ec 7C7D1B78 		mr 29,3
 6076              		.loc 4 38 0
 6077 04f0 7F23CB78 		mr 3,25
 6078 04f4 48000001 		bl _ZdlPv
 6079 04f8 4BFFFFD8 		b .L420
 6080              	.L429:
 6081 04fc 7C7D1B78 		mr 29,3
 6082              		.loc 4 37 0
 6083 0500 7F83E378 		mr 3,28
 6084 0504 48000001 		bl _ZdlPv
 6085 0508 4BFFFFC8 		b .L420
 6086              	.LVL478:
 6087              	.L428:
 6088 050c 4BFFFFB4 		b .L433
 6089              	.LVL479:
 6090              	.L427:
 6091 0510 7C7D1B78 		mr 29,3
 6092 0514 4BFFFFBC 		b .L420
 6093              	.LBE3763:
 6094              		.cfi_endproc
 6095              	.LFE1569:
 6096              		.section	.gcc_except_table
 6097              	.LLSDA1569:
 6098 00cd FF       		.byte	0xff
 6099 00ce FF       		.byte	0xff
 6100 00cf 01       		.byte	0x1
 6101 00d0 54       		.uleb128 .LLSDACSE1569-.LLSDACSB1569
 6102              	.LLSDACSB1569:
 6103 00d1 48       		.uleb128 .LEHB34-.LFB1569
 6104 00d2 04       		.uleb128 .LEHE34-.LEHB34
 6105 00d3 00       		.uleb128 0
 6106 00d4 00       		.uleb128 0
 6107 00d5 9801     		.uleb128 .LEHB35-.LFB1569
 6108 00d7 04       		.uleb128 .LEHE35-.LEHB35
 6109 00d8 8807     		.uleb128 .L426-.LFB1569
 6110 00da 00       		.uleb128 0
 6111 00db BC01     		.uleb128 .LEHB36-.LFB1569
 6112 00dd 04       		.uleb128 .LEHE36-.LEHB36
 6113 00de FC07     		.uleb128 .L427-.LFB1569
 6114 00e0 00       		.uleb128 0
 6115 00e1 CC01     		.uleb128 .LEHB37-.LFB1569
 6116 00e3 04       		.uleb128 .LEHE37-.LEHB37
 6117 00e4 F807     		.uleb128 .L428-.LFB1569
 6118 00e6 00       		.uleb128 0
 6119 00e7 E401     		.uleb128 .LEHB38-.LFB1569
 6120 00e9 9001     		.uleb128 .LEHE38-.LEHB38
 6121 00eb FC07     		.uleb128 .L427-.LFB1569
 6122 00ed 00       		.uleb128 0
 6123 00ee 8C03     		.uleb128 .LEHB39-.LFB1569
 6124 00f0 04       		.uleb128 .LEHE39-.LEHB39
 6125 00f1 E807     		.uleb128 .L429-.LFB1569
 6126 00f3 00       		.uleb128 0
 6127 00f4 9803     		.uleb128 .LEHB40-.LFB1569
 6128 00f6 04       		.uleb128 .LEHE40-.LEHB40
 6129 00f7 FC07     		.uleb128 .L427-.LFB1569
 6130 00f9 00       		.uleb128 0
 6131 00fa C003     		.uleb128 .LEHB41-.LFB1569
 6132 00fc 04       		.uleb128 .LEHE41-.LEHB41
 6133 00fd D807     		.uleb128 .L430-.LFB1569
 6134 00ff 00       		.uleb128 0
 6135 0100 DC03     		.uleb128 .LEHB42-.LFB1569
 6136 0102 8801     		.uleb128 .LEHE42-.LEHB42
 6137 0104 FC07     		.uleb128 .L427-.LFB1569
 6138 0106 00       		.uleb128 0
 6139 0107 F804     		.uleb128 .LEHB43-.LFB1569
 6140 0109 04       		.uleb128 .LEHE43-.LEHB43
 6141 010a C807     		.uleb128 .L431-.LFB1569
 6142 010c 00       		.uleb128 0
 6143 010d 8405     		.uleb128 .LEHB44-.LFB1569
 6144 010f 04       		.uleb128 .LEHE44-.LEHB44
 6145 0110 FC07     		.uleb128 .L427-.LFB1569
 6146 0112 00       		.uleb128 0
 6147 0113 9C05     		.uleb128 .LEHB45-.LFB1569
 6148 0115 04       		.uleb128 .LEHE45-.LEHB45
 6149 0116 AC07     		.uleb128 .L432-.LFB1569
 6150 0118 00       		.uleb128 0
 6151 0119 B805     		.uleb128 .LEHB46-.LFB1569
 6152 011b 8801     		.uleb128 .LEHE46-.LEHB46
 6153 011d FC07     		.uleb128 .L427-.LFB1569
 6154 011f 00       		.uleb128 0
 6155 0120 A807     		.uleb128 .LEHB47-.LFB1569
 6156 0122 04       		.uleb128 .LEHE47-.LEHB47
 6157 0123 00       		.uleb128 0
 6158 0124 00       		.uleb128 0
 6159              	.LLSDACSE1569:
 6160              		.section	".text"
 6161              		.size	_ZN14KeyboardWindowC2EPwi, .-_ZN14KeyboardWindowC2EPwi
 6162              		.align 2
 6163              		.globl _ZThn176_N14KeyboardWindowD1Ev
 6164              		.type	_ZThn176_N14KeyboardWindowD1Ev, @function
 6165              	_ZThn176_N14KeyboardWindowD1Ev:
 6166              	.LFB2227:
 6167              		.cfi_startproc
 6168 0518 3863FF50 		addi 3,3,-176
 6169 051c 48000004 		b .LTHUNK0
 6170              		.cfi_endproc
 6171              	.LFE2227:
 6172              		.size	_ZThn176_N14KeyboardWindowD1Ev, .-_ZThn176_N14KeyboardWindowD1Ev
 6173              		.align 2
 6174              		.globl _ZN14KeyboardWindowD2Ev
 6175              		.type	_ZN14KeyboardWindowD2Ev, @function
 6176              	_ZN14KeyboardWindowD2Ev:
 6177              	.LFB1572:
 6178              		.loc 4 60 0
 6179              		.cfi_startproc
 6180              		.cfi_personality 0,__gxx_personality_v0
 6181              		.cfi_lsda 0,.LLSDA1572
 6182              	.LVL480:
 6183 0520 7C0802A6 		mflr 0
 6184 0524 9421FFD0 		stwu 1,-48(1)
 6185              	.LCFI70:
 6186              		.cfi_def_cfa_offset 48
 6187              		.cfi_register 65, 0
 6188              	.LBB3956:
 6189 0528 3D200000 		lis 9,_ZTV14KeyboardWindow+8@ha
 6190 052c 39290008 		la 9,_ZTV14KeyboardWindow+8@l(9)
 6191              	.LBE3956:
 6192 0530 9361001C 		stw 27,28(1)
 6193 0534 90010034 		stw 0,52(1)
 6194              	.LBB4169:
 6195 0538 380900E4 		addi 0,9,228
 6196              		.cfi_offset 65, 4
 6197              		.cfi_offset 27, -20
 6198              	.LBE4169:
 6199 053c 93810020 		stw 28,32(1)
 6200 0540 7C7B1B78 		mr 27,3
 6201 0544 93A10024 		stw 29,36(1)
 6202 0548 93C10028 		stw 30,40(1)
 6203 054c 93E1002C 		stw 31,44(1)
 6204              	.LBB4170:
 6205              		.loc 4 60 0
 6206 0550 91230000 		stw 9,0(3)
 6207 0554 900300B0 		stw 0,176(3)
 6208              	.LEHB48:
 6209              		.loc 4 62 0
 6210              		.cfi_offset 31, -4
 6211              		.cfi_offset 30, -8
 6212              		.cfi_offset 29, -12
 6213              		.cfi_offset 28, -16
 6214 0558 48000001 		bl _ZN8GuiFrame9RemoveAllEv
 6215              	.LVL481:
 6216              		.loc 4 64 0
 6217 055c 807B00F4 		lwz 3,244(27)
 6218 0560 48000001 		bl _ZN9Resources6RemoveEP8GuiSound
 6219              		.loc 4 66 0
 6220 0564 807B00E4 		lwz 3,228(27)
 6221 0568 2F830000 		cmpwi 7,3,0
 6222 056c 419E0014 		beq- 7,.L436
 6223              		.loc 4 66 0 is_stmt 0 discriminator 1
 6224 0570 81230000 		lwz 9,0(3)
 6225 0574 80090004 		lwz 0,4(9)
 6226 0578 7C0903A6 		mtctr 0
 6227 057c 4E800421 		bctrl
 6228              	.L436:
 6229              		.loc 4 67 0 is_stmt 1
 6230 0580 807B00E8 		lwz 3,232(27)
 6231 0584 2F830000 		cmpwi 7,3,0
 6232 0588 419E0014 		beq- 7,.L437
 6233              		.loc 4 67 0 is_stmt 0 discriminator 1
 6234 058c 81230000 		lwz 9,0(3)
 6235 0590 80090004 		lwz 0,4(9)
 6236 0594 7C0903A6 		mtctr 0
 6237 0598 4E800421 		bctrl
 6238              	.L437:
 6239              		.loc 4 69 0 is_stmt 1
 6240 059c 807B00EC 		lwz 3,236(27)
 6241 05a0 2F830000 		cmpwi 7,3,0
 6242 05a4 419E0014 		beq- 7,.L438
 6243              		.loc 4 69 0 is_stmt 0 discriminator 1
 6244 05a8 81230000 		lwz 9,0(3)
 6245 05ac 80090004 		lwz 0,4(9)
 6246 05b0 7C0903A6 		mtctr 0
 6247 05b4 4E800421 		bctrl
 6248              	.L438:
 6249              		.loc 4 70 0 is_stmt 1
 6250 05b8 807B00F0 		lwz 3,240(27)
 6251 05bc 2F830000 		cmpwi 7,3,0
 6252 05c0 419E0014 		beq- 7,.L439
 6253              		.loc 4 70 0 is_stmt 0 discriminator 1
 6254 05c4 81230000 		lwz 9,0(3)
 6255 05c8 80090004 		lwz 0,4(9)
 6256 05cc 7C0903A6 		mtctr 0
 6257 05d0 4E800421 		bctrl
 6258              	.L439:
 6259              		.loc 4 72 0 is_stmt 1
 6260 05d4 807B00F8 		lwz 3,248(27)
 6261 05d8 2F830000 		cmpwi 7,3,0
 6262 05dc 419E0014 		beq- 7,.L440
 6263              		.loc 4 72 0 is_stmt 0 discriminator 1
 6264 05e0 81230000 		lwz 9,0(3)
 6265 05e4 80090004 		lwz 0,4(9)
 6266 05e8 7C0903A6 		mtctr 0
 6267 05ec 4E800421 		bctrl
 6268              	.LEHE48:
 6269              	.L440:
 6270              		.loc 4 60 0 is_stmt 1
 6271 05f0 387B00FC 		addi 3,27,252
 6272              	.LEHB49:
 6273 05f4 48000001 		bl _ZN10GuiTriggerD1Ev
 6274              	.LEHE49:
 6275              	.LVL482:
 6276              	.LBB3957:
 6277              	.LBB3958:
 6278              	.LBB3959:
 6279              	.LBB3960:
 6280              	.LBB3961:
 6281              	.LBB3962:
 6282              		.loc 1 826 0 discriminator 1
 6283 05f8 3D200000 		lis 9,_ZTVN7sigslot13_signal_base2IP14KeyboardWindowPwNS_15single_threadedEEE+8@ha
 6284              	.LBE3962:
 6285              	.LBE3961:
 6286              	.LBE3960:
 6287              		.loc 1 2238 0 discriminator 1
 6288 05fc 3B9B00CC 		addi 28,27,204
 6289              	.LVL483:
 6290              	.LBB4059:
 6291              	.LBB4054:
 6292              	.LBB4049:
 6293              		.loc 1 826 0 discriminator 1
 6294 0600 38090008 		la 0,_ZTVN7sigslot13_signal_base2IP14KeyboardWindowPwNS_15single_threadedEEE+8@l(9)
 6295              	.LBB3963:
 6296              	.LBB3964:
 6297              	.LBB3965:
 6298              	.LBB3966:
 6299              		.loc 1 338 0 discriminator 1
 6300 0604 3D200000 		lis 9,_ZN7sigslot15single_threaded4lockEv@ha
 6301 0608 39290000 		la 9,_ZN7sigslot15single_threaded4lockEv@l(9)
 6302              	.LBE3966:
 6303              	.LBE3965:
 6304              	.LBE3964:
 6305              	.LBE3963:
 6306              		.loc 1 826 0 discriminator 1
 6307 060c 901B00CC 		stw 0,204(27)
 6308              	.LVL484:
 6309              	.LBB4003:
 6310              	.LBB3999:
 6311              	.LBB3968:
 6312              	.LBB3967:
 6313              		.loc 1 338 0 discriminator 1
 6314 0610 7F83E378 		mr 3,28
 6315 0614 7D2903A6 		mtctr 9
 6316 0618 3BBB00D0 		addi 29,27,208
 6317              	.LEHB50:
 6318 061c 4E800421 		bctrl
 6319              	.LEHE50:
 6320              	.LBE3967:
 6321              	.LBE3968:
 6322              	.LBE3999:
 6323              		.loc 4 87 0
 6324 0620 7F7DDB78 		mr 29,27
 6325 0624 87FD00D0 		lwzu 31,208(29)
 6326              	.LVL485:
 6327              	.LBB4000:
 6328              		.loc 1 834 0
 6329 0628 7F9FE800 		cmpw 7,31,29
 6330 062c 419E00A8 		beq- 7,.L441
 6331              	.LVL486:
 6332              	.L514:
 6333              		.loc 1 836 0
 6334 0630 807F0008 		lwz 3,8(31)
 6335 0634 81230000 		lwz 9,0(3)
 6336 0638 80090008 		lwz 0,8(9)
 6337 063c 7C0903A6 		mtctr 0
 6338              	.LEHB51:
 6339 0640 4E800421 		bctrl
 6340              	.LBB3969:
 6341              	.LBB3970:
 6342              	.LBB3971:
 6343              	.LBB3972:
 6344              		.loc 1 338 0
 6345 0644 81230000 		lwz 9,0(3)
 6346              	.LBE3972:
 6347              	.LBE3971:
 6348              	.LBE3970:
 6349              	.LBE3969:
 6350              		.loc 1 836 0
 6351 0648 7C7E1B78 		mr 30,3
 6352              	.LVL487:
 6353 064c 93810008 		stw 28,8(1)
 6354              	.LVL488:
 6355              	.LBB3981:
 6356              	.LBB3980:
 6357              	.LBB3974:
 6358              	.LBB3973:
 6359              		.loc 1 338 0
 6360 0650 80090008 		lwz 0,8(9)
 6361 0654 7C0903A6 		mtctr 0
 6362 0658 4E800421 		bctrl
 6363              	.LVL489:
 6364              	.LBE3973:
 6365              	.LBE3974:
 6366              	.LBB3975:
 6367              	.LBB3976:
 6368              		.loc 8 528 0
 6369 065c 387E0004 		addi 3,30,4
 6370 0660 38810008 		addi 4,1,8
 6371 0664 48000001 		bl _ZNSt8_Rb_treeIPN7sigslot12_signal_baseINS0_15single_threadedEEES4_St9_IdentityIS4_ESt4lessIS4_
 6372              	.LVL490:
 6373              	.LBE3976:
 6374              	.LBE3975:
 6375              	.LBB3977:
 6376              	.LBB3978:
 6377              	.LBB3979:
 6378              		.loc 1 343 0
 6379 0668 813E0000 		lwz 9,0(30)
 6380 066c 7FC3F378 		mr 3,30
 6381 0670 8009000C 		lwz 0,12(9)
 6382 0674 7C0903A6 		mtctr 0
 6383 0678 4E800421 		bctrl
 6384              	.LVL491:
 6385              	.LBE3979:
 6386              	.LBE3978:
 6387              	.LBE3977:
 6388              	.LBE3980:
 6389              	.LBE3981:
 6390              		.loc 1 837 0
 6391 067c 807F0008 		lwz 3,8(31)
 6392 0680 2F830000 		cmpwi 7,3,0
 6393 0684 419E0014 		beq- 7,.L443
 6394 0688 81230000 		lwz 9,0(3)
 6395 068c 80090004 		lwz 0,4(9)
 6396 0690 7C0903A6 		mtctr 0
 6397 0694 4E800421 		bctrl
 6398              	.LEHE51:
 6399              	.L443:
 6400              	.LVL492:
 6401              	.LBB3982:
 6402              	.LBB3983:
 6403              		.loc 5 234 0
 6404 0698 83FF0000 		lwz 31,0(31)
 6405              	.LVL493:
 6406              	.LBE3983:
 6407              	.LBE3982:
 6408              		.loc 1 834 0
 6409 069c 7F9DF800 		cmpw 7,29,31
 6410 06a0 409EFF90 		bne+ 7,.L514
 6411              	.LBE4000:
 6412              		.loc 4 87 0
 6413 06a4 83FB00D0 		lwz 31,208(27)
 6414              	.LVL494:
 6415              	.LBB4001:
 6416              	.LBB3984:
 6417              	.LBB3985:
 6418              		.loc 5 1162 0
 6419 06a8 7F9DF800 		cmpw 7,29,31
 6420 06ac 40BE000C 		bne+ 7,.L517
 6421 06b0 48000024 		b .L441
 6422              	.LVL495:
 6423              	.L503:
 6424              		.loc 5 1163 0
 6425 06b4 7FDFF378 		mr 31,30
 6426              	.LVL496:
 6427              	.L517:
 6428              	.LBB3986:
 6429              	.LBB3987:
 6430              		.loc 9 112 0
 6431 06b8 83DF0000 		lwz 30,0(31)
 6432              	.LVL497:
 6433              	.LBB3988:
 6434              	.LBB3989:
 6435              		.loc 5 1532 0
 6436 06bc 7FE3FB78 		mr 3,31
 6437 06c0 48000001 		bl _ZNSt8__detail15_List_node_base9_M_unhookEv
 6438              	.LVL498:
 6439              	.LBB3990:
 6440              	.LBB3991:
 6441              	.LBB3992:
 6442              		.loc 6 98 0
 6443 06c4 7FE3FB78 		mr 3,31
 6444 06c8 48000001 		bl _ZdlPv
 6445              	.LVL499:
 6446              	.LBE3992:
 6447              	.LBE3991:
 6448              	.LBE3990:
 6449              	.LBE3989:
 6450              	.LBE3988:
 6451              	.LBE3987:
 6452              	.LBE3986:
 6453              		.loc 5 1162 0
 6454 06cc 7F9DF000 		cmpw 7,29,30
 6455 06d0 409EFFE4 		bne+ 7,.L503
 6456              	.LVL500:
 6457              	.L441:
 6458              	.LBE3985:
 6459              	.LBE3984:
 6460              	.LBB3993:
 6461              	.LBB3994:
 6462              	.LBB3995:
 6463              		.loc 1 343 0
 6464 06d4 813B00CC 		lwz 9,204(27)
 6465 06d8 7F83E378 		mr 3,28
 6466 06dc 8009000C 		lwz 0,12(9)
 6467 06e0 7C0903A6 		mtctr 0
 6468              	.LEHB52:
 6469 06e4 4E800421 		bctrl
 6470              	.LEHE52:
 6471              	.LBE3995:
 6472              	.LBE3994:
 6473              	.LBE3993:
 6474              	.LBE4001:
 6475              	.LBE4003:
 6476              	.LBB4004:
 6477              	.LBB4005:
 6478              	.LBB4006:
 6479              	.LBB4007:
 6480              	.LBB4008:
 6481              	.LBB4009:
 6482              		.loc 9 70 0
 6483 06e8 807B00D0 		lwz 3,208(27)
 6484              	.LVL501:
 6485              		.loc 9 71 0
 6486 06ec 7F83E800 		cmpw 7,3,29
 6487 06f0 40BE000C 		bne+ 7,.L519
 6488 06f4 48000018 		b .L459
 6489              	.LVL502:
 6490              	.L504:
 6491              		.loc 9 74 0
 6492 06f8 7FE3FB78 		mr 3,31
 6493              	.LVL503:
 6494              	.L519:
 6495              	.LBB4010:
 6496 06fc 83E30000 		lwz 31,0(3)
 6497              	.LVL504:
 6498              	.LBB4011:
 6499              	.LBB4012:
 6500              	.LBB4013:
 6501              		.loc 6 98 0
 6502 0700 48000001 		bl _ZdlPv
 6503              	.LVL505:
 6504              	.LBE4013:
 6505              	.LBE4012:
 6506              	.LBE4011:
 6507              	.LBE4010:
 6508              		.loc 9 71 0
 6509 0704 7F9FE800 		cmpw 7,31,29
 6510 0708 409EFFF0 		bne+ 7,.L504
 6511              	.LVL506:
 6512              	.L459:
 6513              	.LBE4009:
 6514              	.LBE4008:
 6515              	.LBE4007:
 6516              	.LBE4006:
 6517              	.LBE4005:
 6518              	.LBE4004:
 6519              	.LBE4049:
 6520              	.LBE4054:
 6521              	.LBE4059:
 6522              	.LBE3959:
 6523              	.LBE3958:
 6524              	.LBE3957:
 6525              	.LBB4072:
 6526              	.LBB4073:
 6527              	.LBB4074:
 6528              		.loc 1 516 0
 6529 070c 3D200000 		lis 9,_ZTVN7sigslot9has_slotsINS_15single_threadedEEE+8@ha
 6530              	.LBE4074:
 6531              	.LBE4073:
 6532              	.LBE4072:
 6533              	.LBB4161:
 6534              	.LBB4068:
 6535              	.LBB4064:
 6536              	.LBB4060:
 6537              	.LBB4055:
 6538              	.LBB4050:
 6539              	.LBB4014:
 6540              	.LBB4015:
 6541              	.LBB4016:
 6542              	.LBB4017:
 6543              	.LBB4018:
 6544              	.LBB4019:
 6545              		.loc 1 105 0
 6546 0710 3F800000 		lis 28,_ZTVN7sigslot15single_threadedE+8@ha
 6547              	.LBE4019:
 6548              	.LBE4018:
 6549              	.LBE4017:
 6550              	.LBE4016:
 6551              	.LBE4015:
 6552              	.LBE4014:
 6553              	.LBE4050:
 6554              	.LBE4055:
 6555              	.LBE4060:
 6556              	.LBE4064:
 6557              	.LBE4068:
 6558              	.LBE4161:
 6559              	.LBB4162:
 6560              	.LBB4157:
 6561              	.LBB4153:
 6562              		.loc 1 516 0
 6563 0714 38090008 		la 0,_ZTVN7sigslot9has_slotsINS_15single_threadedEEE+8@l(9)
 6564              	.LBB4075:
 6565              	.LBB4076:
 6566              	.LBB4077:
 6567              	.LBB4078:
 6568              		.loc 1 338 0
 6569 0718 3D200000 		lis 9,_ZN7sigslot15single_threaded4lockEv@ha
 6570              	.LBE4078:
 6571              	.LBE4077:
 6572              	.LBE4076:
 6573              	.LBE4075:
 6574              	.LBE4153:
 6575              	.LBE4157:
 6576              	.LBE4162:
 6577              	.LBB4163:
 6578              	.LBB4069:
 6579              	.LBB4065:
 6580              	.LBB4061:
 6581              	.LBB4056:
 6582              	.LBB4051:
 6583              	.LBB4030:
 6584              	.LBB4028:
 6585              	.LBB4026:
 6586              	.LBB4024:
 6587              	.LBB4022:
 6588              	.LBB4020:
 6589              		.loc 1 105 0
 6590 071c 3B9C0008 		la 28,_ZTVN7sigslot15single_threadedE+8@l(28)
 6591              	.LBE4020:
 6592              	.LBE4022:
 6593              	.LBE4024:
 6594              	.LBE4026:
 6595              	.LBE4028:
 6596              	.LBE4030:
 6597              	.LBE4051:
 6598              	.LBE4056:
 6599              	.LBE4061:
 6600              	.LBE4065:
 6601              	.LBE4069:
 6602              	.LBE4163:
 6603              		.loc 4 60 0
 6604 0720 3BBB00B0 		addi 29,27,176
 6605              	.LVL507:
 6606              	.LBB4164:
 6607              	.LBB4158:
 6608              	.LBB4154:
 6609              	.LBB4133:
 6610              	.LBB4130:
 6611              	.LBB4081:
 6612              	.LBB4079:
 6613              		.loc 1 338 0
 6614 0724 39290000 		la 9,_ZN7sigslot15single_threaded4lockEv@l(9)
 6615              	.LBE4079:
 6616              	.LBE4081:
 6617              	.LBE4130:
 6618              	.LBE4133:
 6619              	.LBE4154:
 6620              	.LBE4158:
 6621              	.LBE4164:
 6622              	.LBB4165:
 6623              	.LBB4070:
 6624              	.LBB4066:
 6625              	.LBB4062:
 6626              	.LBB4057:
 6627              	.LBB4052:
 6628              	.LBB4031:
 6629              	.LBB4029:
 6630              	.LBB4027:
 6631              	.LBB4025:
 6632              	.LBB4023:
 6633              	.LBB4021:
 6634              		.loc 1 105 0
 6635 0728 939B00CC 		stw 28,204(27)
 6636              	.LBE4021:
 6637              	.LBE4023:
 6638              	.LBE4025:
 6639              	.LBE4027:
 6640              	.LBE4029:
 6641              	.LBE4031:
 6642              	.LBE4052:
 6643              	.LBE4057:
 6644              	.LBE4062:
 6645              	.LBE4066:
 6646              	.LBE4070:
 6647              	.LBE4165:
 6648              	.LBB4166:
 6649              	.LBB4159:
 6650              	.LBB4155:
 6651              		.loc 1 516 0
 6652 072c 901B00B0 		stw 0,176(27)
 6653              	.LVL508:
 6654              	.LBB4134:
 6655              	.LBB4131:
 6656              	.LBB4082:
 6657              	.LBB4080:
 6658              		.loc 1 338 0
 6659 0730 7FA3EB78 		mr 3,29
 6660 0734 7D2903A6 		mtctr 9
 6661 0738 3BFB00B4 		addi 31,27,180
 6662              	.LEHB53:
 6663 073c 4E800421 		bctrl
 6664              	.LEHE53:
 6665              	.LVL509:
 6666              	.LBE4080:
 6667              	.LBE4082:
 6668              	.LBB4083:
 6669              		.loc 4 87 0
 6670 0740 83FB00C0 		lwz 31,192(27)
 6671              	.LVL510:
 6672              	.LBE4083:
 6673              	.LBB4084:
 6674              	.LBB4085:
 6675              	.LBB4086:
 6676              		.loc 7 671 0
 6677 0744 3BDB00B8 		addi 30,27,184
 6678              	.LVL511:
 6679              	.LBE4086:
 6680              	.LBE4085:
 6681              	.LBE4084:
 6682              		.loc 1 524 0
 6683 0748 7F9FF000 		cmpw 7,31,30
 6684 074c 419E0030 		beq- 7,.L475
 6685              	.LVL512:
 6686              	.L513:
 6687              		.loc 1 526 0
 6688 0750 807F0010 		lwz 3,16(31)
 6689 0754 7FA4EB78 		mr 4,29
 6690 0758 81230000 		lwz 9,0(3)
 6691 075c 80090010 		lwz 0,16(9)
 6692 0760 7C0903A6 		mtctr 0
 6693              	.LEHB54:
 6694 0764 4E800421 		bctrl
 6695              	.LEHE54:
 6696              	.LVL513:
 6697              	.LBB4087:
 6698              	.LBB4088:
 6699              		.loc 7 269 0
 6700 0768 7FE3FB78 		mr 3,31
 6701 076c 48000001 		bl _ZSt18_Rb_tree_incrementPKSt18_Rb_tree_node_base
 6702              	.LBE4088:
 6703              	.LBE4087:
 6704              		.loc 1 524 0
 6705 0770 7F9E1800 		cmpw 7,30,3
 6706              	.LBB4090:
 6707              	.LBB4089:
 6708              		.loc 7 269 0
 6709 0774 7C7F1B78 		mr 31,3
 6710              	.LVL514:
 6711              	.LBE4089:
 6712              	.LBE4090:
 6713              		.loc 1 524 0
 6714 0778 409EFFD8 		bne+ 7,.L513
 6715              	.LVL515:
 6716              	.L475:
 6717              	.LBB4091:
 6718              	.LBB4092:
 6719              		.loc 8 562 0
 6720 077c 3BFB00B4 		addi 31,27,180
 6721              	.LVL516:
 6722              	.LBB4093:
 6723              	.LBB4094:
 6724              	.LBB4095:
 6725              	.LBB4096:
 6726              	.LBB4097:
 6727              	.LBB4098:
 6728              	.LBB4099:
 6729              		.loc 7 809 0
 6730 0780 809B00BC 		lwz 4,188(27)
 6731 0784 7FE3FB78 		mr 3,31
 6732 0788 48000001 		bl _ZNSt8_Rb_treeIPN7sigslot12_signal_baseINS0_15single_threadedEEES4_St9_IdentityIS4_ESt4lessIS4_
 6733              	.LVL517:
 6734              		.loc 7 811 0
 6735 078c 38000000 		li 0,0
 6736              		.loc 7 810 0
 6737 0790 93DB00C0 		stw 30,192(27)
 6738              	.LVL518:
 6739              	.LBE4099:
 6740              	.LBE4098:
 6741              	.LBE4097:
 6742              	.LBE4096:
 6743              	.LBE4095:
 6744              	.LBE4094:
 6745              	.LBE4093:
 6746              	.LBE4092:
 6747              	.LBE4091:
 6748              	.LBB4116:
 6749              	.LBB4117:
 6750              	.LBB4118:
 6751              		.loc 1 343 0
 6752 0794 7FA3EB78 		mr 3,29
 6753              	.LBE4118:
 6754              	.LBE4117:
 6755              	.LBE4116:
 6756              	.LBB4123:
 6757              	.LBB4114:
 6758              	.LBB4112:
 6759              	.LBB4110:
 6760              	.LBB4108:
 6761              	.LBB4106:
 6762              	.LBB4104:
 6763              	.LBB4102:
 6764              	.LBB4100:
 6765              		.loc 7 811 0
 6766 0798 901B00BC 		stw 0,188(27)
 6767              	.LVL519:
 6768              		.loc 7 812 0
 6769 079c 93DB00C4 		stw 30,196(27)
 6770              	.LBE4100:
 6771              	.LBE4102:
 6772              	.LBE4104:
 6773              	.LBE4106:
 6774              	.LBE4108:
 6775              	.LBE4110:
 6776              	.LBE4112:
 6777              	.LBE4114:
 6778              	.LBE4123:
 6779              	.LBB4124:
 6780              	.LBB4121:
 6781              	.LBB4119:
 6782              		.loc 1 343 0
 6783 07a0 813B00B0 		lwz 9,176(27)
 6784              	.LBE4119:
 6785              	.LBE4121:
 6786              	.LBE4124:
 6787              	.LBB4125:
 6788              	.LBB4115:
 6789              	.LBB4113:
 6790              	.LBB4111:
 6791              	.LBB4109:
 6792              	.LBB4107:
 6793              	.LBB4105:
 6794              	.LBB4103:
 6795              	.LBB4101:
 6796              		.loc 7 813 0
 6797 07a4 901B00C8 		stw 0,200(27)
 6798              	.LVL520:
 6799              	.LBE4101:
 6800              	.LBE4103:
 6801              	.LBE4105:
 6802              	.LBE4107:
 6803              	.LBE4109:
 6804              	.LBE4111:
 6805              	.LBE4113:
 6806              	.LBE4115:
 6807              	.LBE4125:
 6808              	.LBB4126:
 6809              	.LBB4122:
 6810              	.LBB4120:
 6811              		.loc 1 343 0
 6812 07a8 8009000C 		lwz 0,12(9)
 6813 07ac 7C0903A6 		mtctr 0
 6814              	.LEHB55:
 6815 07b0 4E800421 		bctrl
 6816              	.LEHE55:
 6817              	.LVL521:
 6818              	.LBE4120:
 6819              	.LBE4122:
 6820              	.LBE4126:
 6821              	.LBE4131:
 6822              	.LBE4134:
 6823              	.LBB4135:
 6824              	.LBB4136:
 6825              	.LBB4137:
 6826              	.LBB4138:
 6827              	.LBB4139:
 6828              		.loc 7 639 0
 6829 07b4 809B00BC 		lwz 4,188(27)
 6830 07b8 7FE3FB78 		mr 3,31
 6831 07bc 48000001 		bl _ZNSt8_Rb_treeIPN7sigslot12_signal_baseINS0_15single_threadedEEES4_St9_IdentityIS4_ESt4lessIS4_
 6832              	.LBE4139:
 6833              	.LBE4138:
 6834              	.LBE4137:
 6835              	.LBE4136:
 6836              	.LBE4135:
 6837              	.LBB4140:
 6838              	.LBB4141:
 6839              	.LBB4142:
 6840              		.loc 1 105 0
 6841 07c0 939B00B0 		stw 28,176(27)
 6842              	.LBE4142:
 6843              	.LBE4141:
 6844              	.LBE4140:
 6845              	.LBE4155:
 6846              	.LBE4159:
 6847              	.LBE4166:
 6848              		.loc 4 60 0
 6849 07c4 7F63DB78 		mr 3,27
 6850              	.LEHB56:
 6851 07c8 48000001 		bl _ZN8GuiFrameD2Ev
 6852              	.LEHE56:
 6853              	.LBE4170:
 6854              		.loc 4 73 0
 6855 07cc 80010034 		lwz 0,52(1)
 6856 07d0 8361001C 		lwz 27,28(1)
 6857              	.LVL522:
 6858 07d4 7C0803A6 		mtlr 0
 6859 07d8 83810020 		lwz 28,32(1)
 6860 07dc 83A10024 		lwz 29,36(1)
 6861              	.LVL523:
 6862 07e0 83C10028 		lwz 30,40(1)
 6863              	.LVL524:
 6864 07e4 83E1002C 		lwz 31,44(1)
 6865              	.LVL525:
 6866 07e8 38210030 		addi 1,1,48
 6867              		.cfi_remember_state
 6868              	.LCFI71:
 6869              		.cfi_def_cfa_offset 0
 6870              		.cfi_restore 31
 6871              		.cfi_restore 30
 6872              		.cfi_restore 29
 6873              		.cfi_restore 28
 6874              		.cfi_restore 27
 6875 07ec 4E800020 		blr
 6876              	.LVL526:
 6877              	.L507:
 6878              	.LCFI72:
 6879              		.cfi_restore_state
 6880 07f0 7C7E1B78 		mr 30,3
 6881              	.LBB4171:
 6882              		.loc 4 60 0
 6883 07f4 387B00FC 		addi 3,27,252
 6884 07f8 48000001 		bl _ZN10GuiTriggerD1Ev
 6885              	.L502:
 6886 07fc 387B00CC 		addi 3,27,204
 6887 0800 48000001 		bl _ZN7sigslot7signal2IP14KeyboardWindowPwNS_15single_threadedEED1Ev
 6888              	.LVL527:
 6889              	.L471:
 6890 0804 387B00B0 		addi 3,27,176
 6891 0808 48000001 		bl _ZN7sigslot9has_slotsINS_15single_threadedEED2Ev
 6892              	.L498:
 6893 080c 7F63DB78 		mr 3,27
 6894 0810 48000001 		bl _ZN8GuiFrameD2Ev
 6895 0814 7FC3F378 		mr 3,30
 6896              	.LEHB57:
 6897 0818 48000001 		bl _Unwind_Resume
 6898              	.LEHE57:
 6899              	.LVL528:
 6900              	.L512:
 6901              	.LBB4167:
 6902              	.LBB4160:
 6903              	.LBB4156:
 6904              	.LBB4143:
 6905              	.LBB4132:
 6906              	.LBB4127:
 6907              	.LBB4128:
 6908              	.LBB4129:
 6909              		.loc 1 343 0
 6910 081c 813B00B0 		lwz 9,176(27)
 6911 0820 7C7E1B78 		mr 30,3
 6912              	.LVL529:
 6913 0824 7FA3EB78 		mr 3,29
 6914 0828 3BFB00B4 		addi 31,27,180
 6915              	.LVL530:
 6916 082c 8009000C 		lwz 0,12(9)
 6917 0830 7C0903A6 		mtctr 0
 6918 0834 4E800421 		bctrl
 6919              	.LVL531:
 6920              	.L485:
 6921              	.LBE4129:
 6922              	.LBE4128:
 6923              	.LBE4127:
 6924              	.LBE4132:
 6925              	.LBE4143:
 6926              	.LBB4144:
 6927              	.LBB4145:
 6928              	.LBB4146:
 6929              	.LBB4147:
 6930              	.LBB4148:
 6931              	.LBB4149:
 6932              		.loc 7 639 0
 6933 0838 809B00BC 		lwz 4,188(27)
 6934 083c 7FE3FB78 		mr 3,31
 6935 0840 48000001 		bl _ZNSt8_Rb_treeIPN7sigslot12_signal_baseINS0_15single_threadedEEES4_St9_IdentityIS4_ESt4lessIS4_
 6936              	.LBE4149:
 6937              	.LBE4148:
