	.file	"LanguagesSelectBrowser.cpp"
	.section	".text"
.Ltext0:
	.section	.text._ZN7sigslot15single_threadedD2Ev,"axG",@progbits,_ZN7sigslot15single_threadedD5Ev,comdat
	.align 2
	.weak	_ZN7sigslot15single_threadedD2Ev
	.type	_ZN7sigslot15single_threadedD2Ev, @function
_ZN7sigslot15single_threadedD2Ev:
.LFB1148:
	.file 1 "d:/Projects/SaveGameManager/savegame-manager-gx/trunk/source/Language/../Gui/../sigslot.h"
	.loc 1 104 0
	.cfi_startproc
.LVL0:
.LBB4941:
	.loc 1 105 0
	lis 9,_ZTVN7sigslot15single_threadedE+8@ha
.LBE4941:
	.loc 1 107 0
.LBB4942:
	.loc 1 105 0
	la 0,_ZTVN7sigslot15single_threadedE+8@l(9)
	stw 0,0(3)
.LBE4942:
	.loc 1 107 0
	blr
	.cfi_endproc
.LFE1148:
	.size	_ZN7sigslot15single_threadedD2Ev, .-_ZN7sigslot15single_threadedD2Ev
	.section	.text._ZN7sigslot15single_threaded4lockEv,"axG",@progbits,_ZN7sigslot15single_threaded4lockEv,comdat
	.align 2
	.weak	_ZN7sigslot15single_threaded4lockEv
	.type	_ZN7sigslot15single_threaded4lockEv, @function
_ZN7sigslot15single_threaded4lockEv:
.LFB1151:
	.loc 1 109 0
	.cfi_startproc
.LVL1:
	.loc 1 112 0
	blr
	.cfi_endproc
.LFE1151:
	.size	_ZN7sigslot15single_threaded4lockEv, .-_ZN7sigslot15single_threaded4lockEv
	.section	.text._ZN7sigslot15single_threaded6unlockEv,"axG",@progbits,_ZN7sigslot15single_threaded6unlockEv,comdat
	.align 2
	.weak	_ZN7sigslot15single_threaded6unlockEv
	.type	_ZN7sigslot15single_threaded6unlockEv, @function
_ZN7sigslot15single_threaded6unlockEv:
.LFB1152:
	.loc 1 114 0
	.cfi_startproc
.LVL2:
	.loc 1 117 0
	blr
	.cfi_endproc
.LFE1152:
	.size	_ZN7sigslot15single_threaded6unlockEv, .-_ZN7sigslot15single_threaded6unlockEv
	.section	.text._ZN10GuiElement9SetParentEPS_,"axG",@progbits,_ZN10GuiElement9SetParentEPS_,comdat
	.align 2
	.weak	_ZN10GuiElement9SetParentEPS_
	.type	_ZN10GuiElement9SetParentEPS_, @function
_ZN10GuiElement9SetParentEPS_:
.LFB1384:
	.file 2 "d:/Projects/SaveGameManager/savegame-manager-gx/trunk/source/Language/../Gui/gui_element.h"
	.loc 2 92 0
	.cfi_startproc
.LVL3:
	.loc 2 92 0
	stw 4,96(3)
	blr
	.cfi_endproc
.LFE1384:
	.size	_ZN10GuiElement9SetParentEPS_, .-_ZN10GuiElement9SetParentEPS_
	.section	.text._ZN10GuiElement9GetParentEv,"axG",@progbits,_ZN10GuiElement9GetParentEv,comdat
	.align 2
	.weak	_ZN10GuiElement9GetParentEv
	.type	_ZN10GuiElement9GetParentEv, @function
_ZN10GuiElement9GetParentEv:
.LFB1385:
	.loc 2 95 0
	.cfi_startproc
.LVL4:
	.loc 2 95 0
	lwz 3,96(3)
.LVL5:
	blr
	.cfi_endproc
.LFE1385:
	.size	_ZN10GuiElement9GetParentEv, .-_ZN10GuiElement9GetParentEv
	.section	.text._ZN10GuiElement12GetZPositionEv,"axG",@progbits,_ZN10GuiElement12GetZPositionEv,comdat
	.align 2
	.weak	_ZN10GuiElement12GetZPositionEv
	.type	_ZN10GuiElement12GetZPositionEv, @function
_ZN10GuiElement12GetZPositionEv:
.LFB1386:
	.loc 2 106 0
	.cfi_startproc
.LVL6:
	mflr 0
	stwu 1,-16(1)
.LCFI0:
	.cfi_def_cfa_offset 16
	.cfi_register 65, 0
	stw 31,12(1)
	mr 31,3
	.cfi_offset 31, -4
	stw 0,20(1)
.LBB4943:
	.loc 2 110 0
	lwz 11,96(3)
	.loc 2 108 0
	li 3,0
.LVL7:
	.loc 2 110 0
	cmpwi 7,11,0
	beq- 7,.L8
	.cfi_offset 65, 4
	.loc 2 111 0
	lwz 9,0(11)
	mr 3,11
	lwz 0,24(9)
	mtctr 0
	bctrl
.LVL8:
.L8:
	.loc 2 113 0
	lwz 0,52(31)
.LBE4943:
	.loc 2 114 0
	lwz 31,12(1)
.LVL9:
	add 3,3,0
.LVL10:
	lwz 0,20(1)
	addi 1,1,16
.LCFI1:
	.cfi_def_cfa_offset 0
	.cfi_restore 31
	mtlr 0
	blr
	.cfi_endproc
.LFE1386:
	.size	_ZN10GuiElement12GetZPositionEv, .-_ZN10GuiElement12GetZPositionEv
	.section	.text._ZN10GuiElement10GetLeftPosEv,"axG",@progbits,_ZN10GuiElement10GetLeftPosEv,comdat
	.align 2
	.weak	_ZN10GuiElement10GetLeftPosEv
	.type	_ZN10GuiElement10GetLeftPosEv, @function
_ZN10GuiElement10GetLeftPosEv:
.LFB1387:
	.loc 2 116 0
	.cfi_startproc
.LVL11:
	.loc 2 116 0
	lwz 3,44(3)
.LVL12:
	blr
	.cfi_endproc
.LFE1387:
	.size	_ZN10GuiElement10GetLeftPosEv, .-_ZN10GuiElement10GetLeftPosEv
	.section	.text._ZN10GuiElement9GetTopPosEv,"axG",@progbits,_ZN10GuiElement9GetTopPosEv,comdat
	.align 2
	.weak	_ZN10GuiElement9GetTopPosEv
	.type	_ZN10GuiElement9GetTopPosEv, @function
_ZN10GuiElement9GetTopPosEv:
.LFB1388:
	.loc 2 118 0
	.cfi_startproc
.LVL13:
	.loc 2 118 0
	lwz 3,48(3)
.LVL14:
	blr
	.cfi_endproc
.LFE1388:
	.size	_ZN10GuiElement9GetTopPosEv, .-_ZN10GuiElement9GetTopPosEv
	.section	.text._ZN10GuiElement8GetWidthEv,"axG",@progbits,_ZN10GuiElement8GetWidthEv,comdat
	.align 2
	.weak	_ZN10GuiElement8GetWidthEv
	.type	_ZN10GuiElement8GetWidthEv, @function
_ZN10GuiElement8GetWidthEv:
.LFB1389:
	.loc 2 121 0
	.cfi_startproc
.LVL15:
	.loc 2 121 0
	lwz 3,36(3)
.LVL16:
	blr
	.cfi_endproc
.LFE1389:
	.size	_ZN10GuiElement8GetWidthEv, .-_ZN10GuiElement8GetWidthEv
	.section	.text._ZN10GuiElement9GetHeightEv,"axG",@progbits,_ZN10GuiElement9GetHeightEv,comdat
	.align 2
	.weak	_ZN10GuiElement9GetHeightEv
	.type	_ZN10GuiElement9GetHeightEv, @function
_ZN10GuiElement9GetHeightEv:
.LFB1390:
	.loc 2 124 0
	.cfi_startproc
.LVL17:
	.loc 2 124 0
	lwz 3,40(3)
.LVL18:
	blr
	.cfi_endproc
.LFE1390:
	.size	_ZN10GuiElement9GetHeightEv, .-_ZN10GuiElement9GetHeightEv
	.section	.text._ZN10GuiElement7SetSizeEii,"axG",@progbits,_ZN10GuiElement7SetSizeEii,comdat
	.align 2
	.weak	_ZN10GuiElement7SetSizeEii
	.type	_ZN10GuiElement7SetSizeEii, @function
_ZN10GuiElement7SetSizeEii:
.LFB1391:
	.loc 2 128 0
	.cfi_startproc
.LVL19:
	.loc 2 130 0
	stw 4,36(3)
	.loc 2 132 0
	.loc 2 131 0
	stw 5,40(3)
	.loc 2 132 0
	blr
	.cfi_endproc
.LFE1391:
	.size	_ZN10GuiElement7SetSizeEii, .-_ZN10GuiElement7SetSizeEii
	.section	.text._ZN10GuiElement9IsVisibleEv,"axG",@progbits,_ZN10GuiElement9IsVisibleEv,comdat
	.align 2
	.weak	_ZN10GuiElement9IsVisibleEv
	.type	_ZN10GuiElement9IsVisibleEv, @function
_ZN10GuiElement9IsVisibleEv:
.LFB1393:
	.loc 2 142 0
	.cfi_startproc
.LVL20:
	.loc 2 142 0
	lbz 3,29(3)
.LVL21:
	blr
	.cfi_endproc
.LFE1393:
	.size	_ZN10GuiElement9IsVisibleEv, .-_ZN10GuiElement9IsVisibleEv
	.section	.text._ZN10GuiElement12IsSelectableEv,"axG",@progbits,_ZN10GuiElement12IsSelectableEv,comdat
	.align 2
	.weak	_ZN10GuiElement12IsSelectableEv
	.type	_ZN10GuiElement12IsSelectableEv, @function
_ZN10GuiElement12IsSelectableEv:
.LFB1394:
	.loc 2 145 0
	.cfi_startproc
.LVL22:
	.loc 2 149 0
	lwz 0,72(3)
	li 9,0
	cmpwi 7,0,4
	beq- 7,.L18
	.loc 2 149 0 is_stmt 0 discriminator 1
	cmpwi 7,0,2
	beq- 7,.L18
	.loc 2 149 0 discriminator 3
	lbz 9,30(3)
.L18:
	.loc 2 150 0 is_stmt 1 discriminator 5
	mr 3,9
.LVL23:
	blr
	.cfi_endproc
.LFE1394:
	.size	_ZN10GuiElement12IsSelectableEv, .-_ZN10GuiElement12IsSelectableEv
	.section	.text._ZN10GuiElement11IsClickableEv,"axG",@progbits,_ZN10GuiElement11IsClickableEv,comdat
	.align 2
	.weak	_ZN10GuiElement11IsClickableEv
	.type	_ZN10GuiElement11IsClickableEv, @function
_ZN10GuiElement11IsClickableEv:
.LFB1395:
	.loc 2 153 0
	.cfi_startproc
.LVL24:
	.loc 2 158 0
	lwz 0,72(3)
	li 9,0
	cmpwi 7,0,4
	beq- 7,.L22
	.loc 2 158 0 is_stmt 0 discriminator 1
	cmpwi 7,0,2
	beq- 7,.L22
	.loc 2 158 0 discriminator 3
	cmpwi 7,0,3
	beq- 7,.L22
	.loc 2 158 0 discriminator 4
	lbz 9,31(3)
.L22:
	.loc 2 159 0 is_stmt 1 discriminator 6
	mr 3,9
.LVL25:
	blr
	.cfi_endproc
.LFE1395:
	.size	_ZN10GuiElement11IsClickableEv, .-_ZN10GuiElement11IsClickableEv
	.section	.text._ZN10GuiElement10IsHoldableEv,"axG",@progbits,_ZN10GuiElement10IsHoldableEv,comdat
	.align 2
	.weak	_ZN10GuiElement10IsHoldableEv
	.type	_ZN10GuiElement10IsHoldableEv, @function
_ZN10GuiElement10IsHoldableEv:
.LFB1396:
	.loc 2 162 0
	.cfi_startproc
.LVL26:
	.loc 2 162 0
	lwz 9,72(3)
	li 0,0
	cmpwi 7,9,4
	beq- 7,.L27
	.loc 2 162 0 is_stmt 0 discriminator 1
	lbz 0,32(3)
.L27:
	.loc 2 162 0 discriminator 4
	mr 3,0
.LVL27:
	blr
	.cfi_endproc
.LFE1396:
	.size	_ZN10GuiElement10IsHoldableEv, .-_ZN10GuiElement10IsHoldableEv
	.section	.text._ZN10GuiElement13SetSelectableEb,"axG",@progbits,_ZN10GuiElement13SetSelectableEb,comdat
	.align 2
	.weak	_ZN10GuiElement13SetSelectableEb
	.type	_ZN10GuiElement13SetSelectableEb, @function
_ZN10GuiElement13SetSelectableEb:
.LFB1397:
	.loc 2 165 0 is_stmt 1
	.cfi_startproc
.LVL28:
	.loc 2 165 0
	stb 4,30(3)
	blr
	.cfi_endproc
.LFE1397:
	.size	_ZN10GuiElement13SetSelectableEb, .-_ZN10GuiElement13SetSelectableEb
	.section	.text._ZN10GuiElement12SetClickableEb,"axG",@progbits,_ZN10GuiElement12SetClickableEb,comdat
	.align 2
	.weak	_ZN10GuiElement12SetClickableEb
	.type	_ZN10GuiElement12SetClickableEb, @function
_ZN10GuiElement12SetClickableEb:
.LFB1398:
	.loc 2 168 0
	.cfi_startproc
.LVL29:
	.loc 2 168 0
	stb 4,31(3)
	blr
	.cfi_endproc
.LFE1398:
	.size	_ZN10GuiElement12SetClickableEb, .-_ZN10GuiElement12SetClickableEb
	.section	.text._ZN10GuiElement11SetHoldableEb,"axG",@progbits,_ZN10GuiElement11SetHoldableEb,comdat
	.align 2
	.weak	_ZN10GuiElement11SetHoldableEb
	.type	_ZN10GuiElement11SetHoldableEb, @function
_ZN10GuiElement11SetHoldableEb:
.LFB1399:
	.loc 2 171 0
	.cfi_startproc
.LVL30:
	.loc 2 171 0
	stb 4,32(3)
	blr
	.cfi_endproc
.LFE1399:
	.size	_ZN10GuiElement11SetHoldableEb, .-_ZN10GuiElement11SetHoldableEb
	.section	.text._ZN10GuiElement8GetStateEv,"axG",@progbits,_ZN10GuiElement8GetStateEv,comdat
	.align 2
	.weak	_ZN10GuiElement8GetStateEv
	.type	_ZN10GuiElement8GetStateEv, @function
_ZN10GuiElement8GetStateEv:
.LFB1400:
	.loc 2 178 0
	.cfi_startproc
.LVL31:
	.loc 2 178 0
	lwz 3,72(3)
.LVL32:
	blr
	.cfi_endproc
.LFE1400:
	.size	_ZN10GuiElement8GetStateEv, .-_ZN10GuiElement8GetStateEv
	.section	.text._ZN10GuiElement12GetStateChanEv,"axG",@progbits,_ZN10GuiElement12GetStateChanEv,comdat
	.align 2
	.weak	_ZN10GuiElement12GetStateChanEv
	.type	_ZN10GuiElement12GetStateChanEv, @function
_ZN10GuiElement12GetStateChanEv:
.LFB1401:
	.loc 2 181 0
	.cfi_startproc
.LVL33:
	.loc 2 181 0
	lwz 3,76(3)
.LVL34:
	blr
	.cfi_endproc
.LFE1401:
	.size	_ZN10GuiElement12GetStateChanEv, .-_ZN10GuiElement12GetStateChanEv
	.section	.text._ZN10GuiElement8SetAlphaEi,"axG",@progbits,_ZN10GuiElement8SetAlphaEi,comdat
	.align 2
	.weak	_ZN10GuiElement8SetAlphaEi
	.type	_ZN10GuiElement8SetAlphaEi, @function
_ZN10GuiElement8SetAlphaEi:
.LFB1403:
	.loc 2 190 0
	.cfi_startproc
.LVL35:
	.loc 2 190 0
	stw 4,56(3)
	blr
	.cfi_endproc
.LFE1403:
	.size	_ZN10GuiElement8SetAlphaEi, .-_ZN10GuiElement8SetAlphaEi
	.section	.text._ZN10GuiElement8GetAlphaEv,"axG",@progbits,_ZN10GuiElement8GetAlphaEv,comdat
	.align 2
	.weak	_ZN10GuiElement8GetAlphaEv
	.type	_ZN10GuiElement8GetAlphaEv, @function
_ZN10GuiElement8GetAlphaEv:
.LFB1404:
	.loc 2 194 0
	.cfi_startproc
.LVL36:
	mflr 0
	stwu 1,-40(1)
.LCFI2:
	.cfi_def_cfa_offset 40
	.cfi_register 65, 0
	stw 31,36(1)
	stw 0,44(1)
.LBB4944:
	.loc 2 198 0
	lwz 31,108(3)
	.cfi_offset 65, 4
	.cfi_offset 31, -4
	cmpwi 7,31,0
	blt- 7,.L38
.L36:
.LVL37:
	.loc 2 203 0
	lwz 3,96(3)
.LVL38:
	cmpwi 7,3,0
	beq- 7,.L37
	.loc 2 204 0
	lwz 9,0(3)
	xoris 31,31,0x8000
.LVL39:
	lwz 0,100(9)
	mtctr 0
	bctrl
	lis 0,0x4330
	xoris 3,3,0x8000
	stw 0,16(1)
	stw 3,20(1)
	lis 9,.LC1@ha
	lfs 0,.LC1@l(9)
	lis 9,.LC2@ha
	lfd 13,16(1)
	lfs 12,.LC2@l(9)
	addi 9,1,24
	fsub 13,13,0
	stw 31,12(1)
	stw 0,8(1)
	frsp 13,13
	fdivs 13,13,12
	lfd 12,8(1)
	fsub 0,12,0
	frsp 0,0
	fmuls 0,0,13
	fctiwz 0,0
	stfiwx 0,0,9
	lwz 31,24(1)
.LVL40:
.L37:
.LBE4944:
	.loc 2 207 0
	lwz 0,44(1)
	mr 3,31
	lwz 31,36(1)
.LVL41:
	mtlr 0
	addi 1,1,40
	.cfi_remember_state
.LCFI3:
	.cfi_def_cfa_offset 0
	.cfi_restore 31
	blr
.LVL42:
.L38:
.LCFI4:
	.cfi_restore_state
.LBB4945:
	.loc 2 201 0
	lwz 31,56(3)
.LVL43:
	b .L36
.LBE4945:
	.cfi_endproc
.LFE1404:
	.size	_ZN10GuiElement8GetAlphaEv, .-_ZN10GuiElement8GetAlphaEv
	.section	.text._ZN10GuiElement8SetScaleEf,"axG",@progbits,_ZN10GuiElement8SetScaleEf,comdat
	.align 2
	.weak	_ZN10GuiElement8SetScaleEf
	.type	_ZN10GuiElement8SetScaleEf, @function
_ZN10GuiElement8SetScaleEf:
.LFB1405:
	.loc 2 210 0
	.cfi_startproc
.LVL44:
	.loc 2 212 0
	stfs 1,60(3)
	.loc 2 214 0
	.loc 2 213 0
	stfs 1,64(3)
	.loc 2 214 0
	blr
	.cfi_endproc
.LFE1405:
	.size	_ZN10GuiElement8SetScaleEf, .-_ZN10GuiElement8SetScaleEf
	.section	.text._ZN10GuiElement9SetScaleXEf,"axG",@progbits,_ZN10GuiElement9SetScaleXEf,comdat
	.align 2
	.weak	_ZN10GuiElement9SetScaleXEf
	.type	_ZN10GuiElement9SetScaleXEf, @function
_ZN10GuiElement9SetScaleXEf:
.LFB1406:
	.loc 2 217 0
	.cfi_startproc
.LVL45:
	.loc 2 217 0
	stfs 1,60(3)
	blr
	.cfi_endproc
.LFE1406:
	.size	_ZN10GuiElement9SetScaleXEf, .-_ZN10GuiElement9SetScaleXEf
	.section	.text._ZN10GuiElement9SetScaleYEf,"axG",@progbits,_ZN10GuiElement9SetScaleYEf,comdat
	.align 2
	.weak	_ZN10GuiElement9SetScaleYEf
	.type	_ZN10GuiElement9SetScaleYEf, @function
_ZN10GuiElement9SetScaleYEf:
.LFB1407:
	.loc 2 220 0
	.cfi_startproc
.LVL46:
	.loc 2 220 0
	stfs 1,64(3)
	blr
	.cfi_endproc
.LFE1407:
	.size	_ZN10GuiElement9SetScaleYEf, .-_ZN10GuiElement9SetScaleYEf
	.section	.text._ZN10GuiElement8GetScaleEv,"axG",@progbits,_ZN10GuiElement8GetScaleEv,comdat
	.align 2
	.weak	_ZN10GuiElement8GetScaleEv
	.type	_ZN10GuiElement8GetScaleEv, @function
_ZN10GuiElement8GetScaleEv:
.LFB1408:
	.loc 2 223 0
	.cfi_startproc
.LVL47:
	mflr 0
	stwu 1,-16(1)
.LCFI5:
	.cfi_def_cfa_offset 16
	.cfi_register 65, 0
.LBB4946:
	.loc 2 225 0
	lis 9,.LC3@ha
.LBE4946:
	.loc 2 223 0
	stfd 31,8(1)
	stw 0,20(1)
.LBB4947:
	.loc 2 225 0
	lfs 0,64(3)
	lfs 31,60(3)
	.cfi_offset 65, 4
	.cfi_offset 63, -8
	.loc 2 227 0
	lwz 11,96(3)
	.loc 2 225 0
	fadds 31,31,0
	lfs 0,.LC3@l(9)
	.loc 2 227 0
	cmpwi 7,11,0
	.loc 2 225 0
	fmuls 31,31,0
	lfs 0,112(3)
	fmuls 31,31,0
.LVL48:
	.loc 2 227 0
	beq- 7,.L43
	.loc 2 228 0
	lwz 9,0(11)
	mr 3,11
.LVL49:
	lwz 0,116(9)
	mtctr 0
	bctrl
	fmuls 31,31,1
.LVL50:
.L43:
.LBE4947:
	.loc 2 231 0
	lwz 0,20(1)
	fmr 1,31
	lfd 31,8(1)
.LVL51:
	mtlr 0
	addi 1,1,16
.LCFI6:
	.cfi_def_cfa_offset 0
	.cfi_restore 63
	blr
	.cfi_endproc
.LFE1408:
	.size	_ZN10GuiElement8GetScaleEv, .-_ZN10GuiElement8GetScaleEv
	.section	.text._ZN10GuiElement9GetScaleXEv,"axG",@progbits,_ZN10GuiElement9GetScaleXEv,comdat
	.align 2
	.weak	_ZN10GuiElement9GetScaleXEv
	.type	_ZN10GuiElement9GetScaleXEv, @function
_ZN10GuiElement9GetScaleXEv:
.LFB1409:
	.loc 2 234 0
	.cfi_startproc
.LVL52:
	mflr 0
	stwu 1,-16(1)
.LCFI7:
	.cfi_def_cfa_offset 16
	.cfi_register 65, 0
	stfd 31,8(1)
	stw 0,20(1)
.LBB4948:
	.loc 2 238 0
	lwz 11,96(3)
	.loc 2 236 0
	lfs 31,60(3)
	.cfi_offset 65, 4
	.cfi_offset 63, -8
	.loc 2 238 0
	cmpwi 7,11,0
	.loc 2 236 0
	lfs 0,112(3)
	fmuls 31,31,0
.LVL53:
	.loc 2 238 0
	beq- 7,.L45
	.loc 2 239 0
	lwz 9,0(11)
	mr 3,11
.LVL54:
	lwz 0,120(9)
	mtctr 0
	bctrl
	fmuls 31,31,1
.LVL55:
.L45:
.LBE4948:
	.loc 2 242 0
	lwz 0,20(1)
	fmr 1,31
	lfd 31,8(1)
.LVL56:
	mtlr 0
	addi 1,1,16
.LCFI8:
	.cfi_def_cfa_offset 0
	.cfi_restore 63
	blr
	.cfi_endproc
.LFE1409:
	.size	_ZN10GuiElement9GetScaleXEv, .-_ZN10GuiElement9GetScaleXEv
	.section	.text._ZN10GuiElement9GetScaleYEv,"axG",@progbits,_ZN10GuiElement9GetScaleYEv,comdat
	.align 2
	.weak	_ZN10GuiElement9GetScaleYEv
	.type	_ZN10GuiElement9GetScaleYEv, @function
_ZN10GuiElement9GetScaleYEv:
.LFB1410:
	.loc 2 245 0
	.cfi_startproc
.LVL57:
	mflr 0
	stwu 1,-16(1)
.LCFI9:
	.cfi_def_cfa_offset 16
	.cfi_register 65, 0
	stfd 31,8(1)
	stw 0,20(1)
.LBB4949:
	.loc 2 249 0
	lwz 11,96(3)
	.loc 2 247 0
	lfs 31,64(3)
	.cfi_offset 65, 4
	.cfi_offset 63, -8
	.loc 2 249 0
	cmpwi 7,11,0
	.loc 2 247 0
	lfs 0,112(3)
	fmuls 31,31,0
.LVL58:
	.loc 2 249 0
	beq- 7,.L47
	.loc 2 250 0
	lwz 9,0(11)
	mr 3,11
.LVL59:
	lwz 0,124(9)
	mtctr 0
	bctrl
	fmuls 31,31,1
.LVL60:
.L47:
.LBE4949:
	.loc 2 253 0
	lwz 0,20(1)
	fmr 1,31
	lfd 31,8(1)
.LVL61:
	mtlr 0
	addi 1,1,16
.LCFI10:
	.cfi_def_cfa_offset 0
	.cfi_restore 63
	blr
	.cfi_endproc
.LFE1410:
	.size	_ZN10GuiElement9GetScaleYEv, .-_ZN10GuiElement9GetScaleYEv
	.section	.text._ZN10GuiElement6RumbleEv,"axG",@progbits,_ZN10GuiElement6RumbleEv,comdat
	.align 2
	.weak	_ZN10GuiElement6RumbleEv
	.type	_ZN10GuiElement6RumbleEv, @function
_ZN10GuiElement6RumbleEv:
.LFB1411:
	.loc 2 256 0
	.cfi_startproc
.LVL62:
	.loc 2 256 0
	lbz 3,28(3)
.LVL63:
	blr
	.cfi_endproc
.LFE1411:
	.size	_ZN10GuiElement6RumbleEv, .-_ZN10GuiElement6RumbleEv
	.section	.text._ZN10GuiElement9SetRumbleEb,"axG",@progbits,_ZN10GuiElement9SetRumbleEb,comdat
	.align 2
	.weak	_ZN10GuiElement9SetRumbleEb
	.type	_ZN10GuiElement9SetRumbleEb, @function
_ZN10GuiElement9SetRumbleEb:
.LFB1412:
	.loc 2 259 0
	.cfi_startproc
.LVL64:
	.loc 2 259 0
	stb 4,28(3)
	blr
	.cfi_endproc
.LFE1412:
	.size	_ZN10GuiElement9SetRumbleEb, .-_ZN10GuiElement9SetRumbleEb
	.section	.text._ZN10GuiElement13SetEffectGrowEv,"axG",@progbits,_ZN10GuiElement13SetEffectGrowEv,comdat
	.align 2
	.weak	_ZN10GuiElement13SetEffectGrowEv
	.type	_ZN10GuiElement13SetEffectGrowEv, @function
_ZN10GuiElement13SetEffectGrowEv:
.LFB1413:
	.loc 2 271 0
	.cfi_startproc
.LVL65:
	mflr 0
	stwu 1,-8(1)
.LCFI11:
	.cfi_def_cfa_offset 8
	.cfi_register 65, 0
	lwz 9,0(3)
	li 4,256
	li 5,4
	li 6,110
	stw 0,12(1)
	.loc 2 271 0
	lwz 0,140(9)
	.cfi_offset 65, 4
	mtctr 0
	bctrl
.LVL66:
	lwz 0,12(1)
	addi 1,1,8
.LCFI12:
	.cfi_def_cfa_offset 0
	mtlr 0
	blr
	.cfi_endproc
.LFE1413:
	.size	_ZN10GuiElement13SetEffectGrowEv, .-_ZN10GuiElement13SetEffectGrowEv
	.section	.text._ZNK10GuiElement9GetEffectEv,"axG",@progbits,_ZNK10GuiElement9GetEffectEv,comdat
	.align 2
	.weak	_ZNK10GuiElement9GetEffectEv
	.type	_ZNK10GuiElement9GetEffectEv, @function
_ZNK10GuiElement9GetEffectEv:
.LFB1414:
	.loc 2 276 0
	.cfi_startproc
.LVL67:
	.loc 2 276 0
	lwz 3,120(3)
.LVL68:
	blr
	.cfi_endproc
.LFE1414:
	.size	_ZNK10GuiElement9GetEffectEv, .-_ZNK10GuiElement9GetEffectEv
	.section	.text._ZNK10GuiElement10IsAnimatedEv,"axG",@progbits,_ZNK10GuiElement10IsAnimatedEv,comdat
	.align 2
	.weak	_ZNK10GuiElement10IsAnimatedEv
	.type	_ZNK10GuiElement10IsAnimatedEv, @function
_ZNK10GuiElement10IsAnimatedEv:
.LFB1415:
	.loc 2 278 0
	.cfi_startproc
.LVL69:
	mflr 0
	stwu 1,-8(1)
.LCFI13:
	.cfi_def_cfa_offset 8
	.cfi_register 65, 0
	stw 0,12(1)
	.loc 2 278 0
	lwz 9,0(3)
	lwz 0,152(9)
	.cfi_offset 65, 4
	mtctr 0
	bctrl
.LVL70:
	srawi 0,3,31
	subf 3,3,0
	lwz 0,12(1)
	srwi 3,3,31
	mtlr 0
	addi 1,1,8
.LCFI14:
	.cfi_def_cfa_offset 0
	blr
	.cfi_endproc
.LFE1415:
	.size	_ZNK10GuiElement10IsAnimatedEv, .-_ZNK10GuiElement10IsAnimatedEv
	.section	.text._ZN10GuiElement8IsInsideEii,"axG",@progbits,_ZN10GuiElement8IsInsideEii,comdat
	.align 2
	.weak	_ZN10GuiElement8IsInsideEii
	.type	_ZN10GuiElement8IsInsideEii, @function
_ZN10GuiElement8IsInsideEii:
.LFB1417:
	.loc 2 285 0
	.cfi_startproc
.LVL71:
	mflr 0
	stwu 1,-24(1)
.LCFI15:
	.cfi_def_cfa_offset 24
	.cfi_register 65, 0
	stw 28,8(1)
	mr 28,5
	.cfi_offset 28, -16
	stw 0,28(1)
	stw 29,12(1)
	.loc 2 290 0
	li 29,0
	.cfi_offset 29, -12
	.cfi_offset 65, 4
	.loc 2 287 0
	lwz 9,0(3)
	.loc 2 285 0
	stw 30,16(1)
	mr 30,4
	.cfi_offset 30, -8
	.loc 2 287 0
	lwz 0,16(9)
	.loc 2 285 0
	stw 31,20(1)
	.loc 2 285 0
	mr 31,3
	.cfi_offset 31, -4
	.loc 2 287 0
	mtctr 0
	bctrl
.LVL72:
	.loc 2 290 0
	cmpw 7,3,30
	blt- 7,.L58
.L54:
	.loc 2 291 0 discriminator 6
	lwz 0,28(1)
	mr 3,29
	lwz 28,8(1)
.LVL73:
	mtlr 0
	lwz 29,12(1)
	lwz 30,16(1)
.LVL74:
	lwz 31,20(1)
.LVL75:
	addi 1,1,24
	.cfi_remember_state
.LCFI16:
	.cfi_def_cfa_offset 0
	.cfi_restore 31
	.cfi_restore 30
	.cfi_restore 29
	.cfi_restore 28
	blr
.LVL76:
.L58:
.LCFI17:
	.cfi_restore_state
	.loc 2 288 0 discriminator 1
	lwz 9,0(31)
	mr 3,31
	lwz 0,16(9)
	mtctr 0
	bctrl
	.loc 2 290 0 discriminator 1
	lwz 0,36(31)
	add 0,3,0
	cmpw 7,30,0
	bge+ 7,.L54
	.loc 2 289 0 discriminator 3
	lwz 9,0(31)
	mr 3,31
	lwz 0,20(9)
	mtctr 0
	bctrl
	.loc 2 290 0 discriminator 3
	cmpw 7,3,28
	bge+ 7,.L54
	.loc 2 290 0 is_stmt 0 discriminator 4
	lwz 9,0(31)
	mr 3,31
	lwz 0,20(9)
	mtctr 0
	bctrl
	lwz 0,40(31)
	add 0,3,0
	.loc 2 285 0 is_stmt 1 discriminator 4
	cmpw 7,28,0
	mfcr 29
	rlwinm 29,29,29,1
	b .L54
	.cfi_endproc
.LFE1417:
	.size	_ZN10GuiElement8IsInsideEii, .-_ZN10GuiElement8IsInsideEii
	.section	.text._ZN10GuiElement11SetPositionEii,"axG",@progbits,_ZN10GuiElement11SetPositionEii,comdat
	.align 2
	.weak	_ZN10GuiElement11SetPositionEii
	.type	_ZN10GuiElement11SetPositionEii, @function
_ZN10GuiElement11SetPositionEii:
.LFB1418:
	.loc 2 295 0
	.cfi_startproc
.LVL77:
	.loc 2 297 0
	stw 4,44(3)
	.loc 2 299 0
	.loc 2 298 0
	stw 5,48(3)
	.loc 2 299 0
	blr
	.cfi_endproc
.LFE1418:
	.size	_ZN10GuiElement11SetPositionEii, .-_ZN10GuiElement11SetPositionEii
	.section	.text._ZN10GuiElement11SetPositionEiii,"axG",@progbits,_ZN10GuiElement11SetPositionEiii,comdat
	.align 2
	.weak	_ZN10GuiElement11SetPositionEiii
	.type	_ZN10GuiElement11SetPositionEiii, @function
_ZN10GuiElement11SetPositionEiii:
.LFB1419:
	.loc 2 304 0
	.cfi_startproc
.LVL78:
	.loc 2 306 0
	stw 4,44(3)
	.loc 2 309 0
	.loc 2 307 0
	stw 5,48(3)
	.loc 2 308 0
	stw 6,52(3)
	.loc 2 309 0
	blr
	.cfi_endproc
.LFE1419:
	.size	_ZN10GuiElement11SetPositionEiii, .-_ZN10GuiElement11SetPositionEiii
	.section	.text._ZN10GuiElement12SetAlignmentEi,"axG",@progbits,_ZN10GuiElement12SetAlignmentEi,comdat
	.align 2
	.weak	_ZN10GuiElement12SetAlignmentEi
	.type	_ZN10GuiElement12SetAlignmentEi, @function
_ZN10GuiElement12SetAlignmentEi:
.LFB1421:
	.loc 2 316 0
	.cfi_startproc
.LVL79:
	.loc 2 316 0
	stw 4,68(3)
	blr
	.cfi_endproc
.LFE1421:
	.size	_ZN10GuiElement12SetAlignmentEi, .-_ZN10GuiElement12SetAlignmentEi
	.section	.text._ZNK10GuiElement12GetAlignmentEv,"axG",@progbits,_ZNK10GuiElement12GetAlignmentEv,comdat
	.align 2
	.weak	_ZNK10GuiElement12GetAlignmentEv
	.type	_ZNK10GuiElement12GetAlignmentEv, @function
_ZNK10GuiElement12GetAlignmentEv:
.LFB1422:
	.loc 2 318 0
	.cfi_startproc
.LVL80:
	.loc 2 318 0
	lwz 3,68(3)
.LVL81:
	blr
	.cfi_endproc
.LFE1422:
	.size	_ZNK10GuiElement12GetAlignmentEv, .-_ZNK10GuiElement12GetAlignmentEv
	.section	.text._ZN8GuiFrame4showEv,"axG",@progbits,_ZN8GuiFrame4showEv,comdat
	.align 2
	.weak	_ZN8GuiFrame4showEv
	.type	_ZN8GuiFrame4showEv, @function
_ZN8GuiFrame4showEv:
.LFB1431:
	.file 3 "d:/Projects/SaveGameManager/savegame-manager-gx/trunk/source/Language/../Gui/gui_frame.h"
	.loc 3 79 0
	.cfi_startproc
.LVL82:
	.loc 3 79 0
	blr
	.cfi_endproc
.LFE1431:
	.size	_ZN8GuiFrame4showEv, .-_ZN8GuiFrame4showEv
	.section	.text._ZN8GuiFrame4hideEv,"axG",@progbits,_ZN8GuiFrame4hideEv,comdat
	.align 2
	.weak	_ZN8GuiFrame4hideEv
	.type	_ZN8GuiFrame4hideEv, @function
_ZN8GuiFrame4hideEv:
.LFB1432:
	.loc 3 81 0
	.cfi_startproc
.LVL83:
	.loc 3 81 0
	blr
	.cfi_endproc
.LFE1432:
	.size	_ZN8GuiFrame4hideEv, .-_ZN8GuiFrame4hideEv
	.section	.text._ZN8GuiFrame4execEv,"axG",@progbits,_ZN8GuiFrame4execEv,comdat
	.align 2
	.weak	_ZN8GuiFrame4execEv
	.type	_ZN8GuiFrame4execEv, @function
_ZN8GuiFrame4execEv:
.LFB1433:
	.loc 3 83 0
	.cfi_startproc
.LVL84:
	.loc 3 83 0
	blr
	.cfi_endproc
.LFE1433:
	.size	_ZN8GuiFrame4execEv, .-_ZN8GuiFrame4execEv
	.section	.text._ZN8GuiFrame12updateEventsEv,"axG",@progbits,_ZN8GuiFrame12updateEventsEv,comdat
	.align 2
	.weak	_ZN8GuiFrame12updateEventsEv
	.type	_ZN8GuiFrame12updateEventsEv, @function
_ZN8GuiFrame12updateEventsEv:
.LFB1434:
	.loc 3 85 0
	.cfi_startproc
.LVL85:
	.loc 3 85 0
	blr
	.cfi_endproc
.LFE1434:
	.size	_ZN8GuiFrame12updateEventsEv, .-_ZN8GuiFrame12updateEventsEv
	.section	.text._ZN7sigslot17_connection_base3IP9GuiButtoniRK6_POINTNS_15single_threadedEED2Ev,"axG",@progbits,_ZN7sigslot17_connection_base3IP9GuiButtoniRK6_POINTNS_15single_threadedEED5Ev,comdat
	.align 2
	.weak	_ZN7sigslot17_connection_base3IP9GuiButtoniRK6_POINTNS_15single_threadedEED2Ev
	.type	_ZN7sigslot17_connection_base3IP9GuiButtoniRK6_POINTNS_15single_threadedEED2Ev, @function
_ZN7sigslot17_connection_base3IP9GuiButtoniRK6_POINTNS_15single_threadedEED2Ev:
.LFB1992:
	.loc 1 387 0
	.cfi_startproc
.LVL86:
.LBB4950:
	.loc 1 387 0
	lis 9,_ZTVN7sigslot17_connection_base3IP9GuiButtoniRK6_POINTNS_15single_threadedEEE+8@ha
.LBE4950:
.LBB4951:
	la 0,_ZTVN7sigslot17_connection_base3IP9GuiButtoniRK6_POINTNS_15single_threadedEEE+8@l(9)
	stw 0,0(3)
.LBE4951:
	blr
	.cfi_endproc
.LFE1992:
	.size	_ZN7sigslot17_connection_base3IP9GuiButtoniRK6_POINTNS_15single_threadedEED2Ev, .-_ZN7sigslot17_connection_base3IP9GuiButtoniRK6_POINTNS_15single_threadedEED2Ev
	.section	.text._ZN7sigslot17_connection_base2IiiNS_15single_threadedEED2Ev,"axG",@progbits,_ZN7sigslot17_connection_base2IiiNS_15single_threadedEED5Ev,comdat
	.align 2
	.weak	_ZN7sigslot17_connection_base2IiiNS_15single_threadedEED2Ev
	.type	_ZN7sigslot17_connection_base2IiiNS_15single_threadedEED2Ev, @function
_ZN7sigslot17_connection_base2IiiNS_15single_threadedEED2Ev:
.LFB1999:
	.loc 1 376 0
	.cfi_startproc
.LVL87:
.LBB4952:
	.loc 1 376 0
	lis 9,_ZTVN7sigslot17_connection_base2IiiNS_15single_threadedEEE+8@ha
.LBE4952:
.LBB4953:
	la 0,_ZTVN7sigslot17_connection_base2IiiNS_15single_threadedEEE+8@l(9)
	stw 0,0(3)
.LBE4953:
	blr
	.cfi_endproc
.LFE1999:
	.size	_ZN7sigslot17_connection_base2IiiNS_15single_threadedEED2Ev, .-_ZN7sigslot17_connection_base2IiiNS_15single_threadedEED2Ev
	.section	.text._ZN7sigslot12_connection2I22LanguagesSelectBrowseriiNS_15single_threadedEED2Ev,"axG",@progbits,_ZN7sigslot12_connection2I22LanguagesSelectBrowseriiNS_15single_threadedEED5Ev,comdat
	.align 2
	.weak	_ZN7sigslot12_connection2I22LanguagesSelectBrowseriiNS_15single_threadedEED2Ev
	.type	_ZN7sigslot12_connection2I22LanguagesSelectBrowseriiNS_15single_threadedEED2Ev, @function
_ZN7sigslot12_connection2I22LanguagesSelectBrowseriiNS_15single_threadedEED2Ev:
.LFB2479:
	.loc 1 1735 0
	.cfi_startproc
.LVL88:
.LBB4954:
.LBB4955:
.LBB4956:
.LBB4957:
	.loc 1 376 0
	lis 9,_ZTVN7sigslot17_connection_base2IiiNS_15single_threadedEEE+8@ha
.LBE4957:
.LBE4956:
.LBE4955:
.LBE4954:
	.loc 1 1738 0
.LBB4961:
.LBB4960:
.LBB4959:
.LBB4958:
	.loc 1 376 0
	la 0,_ZTVN7sigslot17_connection_base2IiiNS_15single_threadedEEE+8@l(9)
	stw 0,0(3)
.LBE4958:
.LBE4959:
.LBE4960:
.LBE4961:
	.loc 1 1738 0
	blr
	.cfi_endproc
.LFE2479:
	.size	_ZN7sigslot12_connection2I22LanguagesSelectBrowseriiNS_15single_threadedEED2Ev, .-_ZN7sigslot12_connection2I22LanguagesSelectBrowseriiNS_15single_threadedEED2Ev
	.section	.text._ZNK7sigslot12_connection2I22LanguagesSelectBrowseriiNS_15single_threadedEE7getdestEv,"axG",@progbits,_ZNK7sigslot12_connection2I22LanguagesSelectBrowseriiNS_15single_threadedEE7getdestEv,comdat
	.align 2
	.weak	_ZNK7sigslot12_connection2I22LanguagesSelectBrowseriiNS_15single_threadedEE7getdestEv
	.type	_ZNK7sigslot12_connection2I22LanguagesSelectBrowseriiNS_15single_threadedEE7getdestEv, @function
_ZNK7sigslot12_connection2I22LanguagesSelectBrowseriiNS_15single_threadedEE7getdestEv:
.LFB2482:
	.loc 1 1756 0
	.cfi_startproc
.LVL89:
	.loc 1 1758 0
	lwz 9,4(3)
	li 3,0
.LVL90:
	cmpwi 7,9,0
	beqlr- 7
	.loc 1 1758 0 is_stmt 0 discriminator 1
	addi 3,9,176
	.loc 1 1759 0 is_stmt 1 discriminator 1
	blr
	.cfi_endproc
.LFE2482:
	.size	_ZNK7sigslot12_connection2I22LanguagesSelectBrowseriiNS_15single_threadedEE7getdestEv, .-_ZNK7sigslot12_connection2I22LanguagesSelectBrowseriiNS_15single_threadedEE7getdestEv
	.section	.text._ZN7sigslot12_connection2I22LanguagesSelectBrowseriiNS_15single_threadedEE4emitEii,"axG",@progbits,_ZN7sigslot12_connection2I22LanguagesSelectBrowseriiNS_15single_threadedEE4emitEii,comdat
	.align 2
	.weak	_ZN7sigslot12_connection2I22LanguagesSelectBrowseriiNS_15single_threadedEE4emitEii
	.type	_ZN7sigslot12_connection2I22LanguagesSelectBrowseriiNS_15single_threadedEE4emitEii, @function
_ZN7sigslot12_connection2I22LanguagesSelectBrowseriiNS_15single_threadedEE4emitEii:
.LFB2483:
	.loc 1 1751 0
	.cfi_startproc
.LVL91:
	mflr 0
	stwu 1,-8(1)
.LCFI18:
	.cfi_def_cfa_offset 8
	.cfi_register 65, 0
	stw 0,12(1)
	.loc 1 1753 0
	lwz 0,8(3)
	.cfi_offset 65, 4
	lwz 11,4(3)
	andi. 9,0,1
	lwz 9,12(3)
	bne- 0,.L78
	mtctr 0
	add 3,11,9
.LVL92:
	bctrl
.LVL93:
	.loc 1 1754 0
	lwz 0,12(1)
	addi 1,1,8
	.cfi_remember_state
.LCFI19:
	.cfi_def_cfa_offset 0
	mtlr 0
	blr
.LVL94:
.L78:
.LCFI20:
	.cfi_restore_state
	.loc 1 1753 0 discriminator 1
	lwzx 10,11,9
	add 3,11,9
.LVL95:
	add 9,10,0
	lwz 0,-1(9)
	mtctr 0
	bctrl
.LVL96:
	.loc 1 1754 0 discriminator 1
	lwz 0,12(1)
	addi 1,1,8
.LCFI21:
	.cfi_def_cfa_offset 0
	mtlr 0
	blr
	.cfi_endproc
.LFE2483:
	.size	_ZN7sigslot12_connection2I22LanguagesSelectBrowseriiNS_15single_threadedEE4emitEii, .-_ZN7sigslot12_connection2I22LanguagesSelectBrowseriiNS_15single_threadedEE4emitEii
	.section	.text._ZN7sigslot12_connection3I22LanguagesSelectBrowserP9GuiButtoniRK6_POINTNS_15single_threadedEED2Ev,"axG",@progbits,_ZN7sigslot12_connection3I22LanguagesSelectBrowserP9GuiButtoniRK6_POINTNS_15single_threadedEED5Ev,comdat
	.align 2
	.weak	_ZN7sigslot12_connection3I22LanguagesSelectBrowserP9GuiButtoniRK6_POINTNS_15single_threadedEED2Ev
	.type	_ZN7sigslot12_connection3I22LanguagesSelectBrowserP9GuiButtoniRK6_POINTNS_15single_threadedEED2Ev, @function
_ZN7sigslot12_connection3I22LanguagesSelectBrowserP9GuiButtoniRK6_POINTNS_15single_threadedEED2Ev:
.LFB2493:
	.loc 1 1783 0
	.cfi_startproc
.LVL97:
.LBB4962:
.LBB4963:
.LBB4964:
.LBB4965:
	.loc 1 387 0
	lis 9,_ZTVN7sigslot17_connection_base3IP9GuiButtoniRK6_POINTNS_15single_threadedEEE+8@ha
.LBE4965:
.LBE4964:
.LBE4963:
.LBE4962:
	.loc 1 1786 0
.LBB4969:
.LBB4968:
.LBB4967:
.LBB4966:
	.loc 1 387 0
	la 0,_ZTVN7sigslot17_connection_base3IP9GuiButtoniRK6_POINTNS_15single_threadedEEE+8@l(9)
	stw 0,0(3)
.LBE4966:
.LBE4967:
.LBE4968:
.LBE4969:
	.loc 1 1786 0
	blr
	.cfi_endproc
.LFE2493:
	.size	_ZN7sigslot12_connection3I22LanguagesSelectBrowserP9GuiButtoniRK6_POINTNS_15single_threadedEED2Ev, .-_ZN7sigslot12_connection3I22LanguagesSelectBrowserP9GuiButtoniRK6_POINTNS_15single_threadedEED2Ev
	.section	.text._ZNK7sigslot12_connection3I22LanguagesSelectBrowserP9GuiButtoniRK6_POINTNS_15single_threadedEE7getdestEv,"axG",@progbits,_ZNK7sigslot12_connection3I22LanguagesSelectBrowserP9GuiButtoniRK6_POINTNS_15single_threadedEE7getdestEv,comdat
	.align 2
	.weak	_ZNK7sigslot12_connection3I22LanguagesSelectBrowserP9GuiButtoniRK6_POINTNS_15single_threadedEE7getdestEv
	.type	_ZNK7sigslot12_connection3I22LanguagesSelectBrowserP9GuiButtoniRK6_POINTNS_15single_threadedEE7getdestEv, @function
_ZNK7sigslot12_connection3I22LanguagesSelectBrowserP9GuiButtoniRK6_POINTNS_15single_threadedEE7getdestEv:
.LFB2496:
	.loc 1 1804 0
	.cfi_startproc
.LVL98:
	.loc 1 1806 0
	lwz 9,4(3)
	li 3,0
.LVL99:
	cmpwi 7,9,0
	beqlr- 7
	.loc 1 1806 0 is_stmt 0 discriminator 1
	addi 3,9,176
	.loc 1 1807 0 is_stmt 1 discriminator 1
	blr
	.cfi_endproc
.LFE2496:
	.size	_ZNK7sigslot12_connection3I22LanguagesSelectBrowserP9GuiButtoniRK6_POINTNS_15single_threadedEE7getdestEv, .-_ZNK7sigslot12_connection3I22LanguagesSelectBrowserP9GuiButtoniRK6_POINTNS_15single_threadedEE7getdestEv
	.section	.text._ZN7sigslot12_connection3I22LanguagesSelectBrowserP9GuiButtoniRK6_POINTNS_15single_threadedEE4emitES3_iS6_,"axG",@progbits,_ZN7sigslot12_connection3I22LanguagesSelectBrowserP9GuiButtoniRK6_POINTNS_15single_threadedEE4emitES3_iS6_,comdat
	.align 2
	.weak	_ZN7sigslot12_connection3I22LanguagesSelectBrowserP9GuiButtoniRK6_POINTNS_15single_threadedEE4emitES3_iS6_
	.type	_ZN7sigslot12_connection3I22LanguagesSelectBrowserP9GuiButtoniRK6_POINTNS_15single_threadedEE4emitES3_iS6_, @function
_ZN7sigslot12_connection3I22LanguagesSelectBrowserP9GuiButtoniRK6_POINTNS_15single_threadedEE4emitES3_iS6_:
.LFB2497:
	.loc 1 1799 0
	.cfi_startproc
.LVL100:
	mflr 0
	stwu 1,-8(1)
.LCFI22:
	.cfi_def_cfa_offset 8
	.cfi_register 65, 0
	stw 0,12(1)
	.loc 1 1801 0
	lwz 0,8(3)
	.cfi_offset 65, 4
	lwz 11,4(3)
	andi. 9,0,1
	lwz 9,12(3)
	bne- 0,.L87
	mtctr 0
	add 3,11,9
.LVL101:
	bctrl
.LVL102:
	.loc 1 1802 0
	lwz 0,12(1)
	addi 1,1,8
	.cfi_remember_state
.LCFI23:
	.cfi_def_cfa_offset 0
	mtlr 0
	blr
.LVL103:
.L87:
.LCFI24:
	.cfi_restore_state
	.loc 1 1801 0 discriminator 1
	lwzx 10,11,9
	add 3,11,9
.LVL104:
	add 9,10,0
	lwz 0,-1(9)
	mtctr 0
	bctrl
.LVL105:
	.loc 1 1802 0 discriminator 1
	lwz 0,12(1)
	addi 1,1,8
.LCFI25:
	.cfi_def_cfa_offset 0
	mtlr 0
	blr
	.cfi_endproc
.LFE2497:
	.size	_ZN7sigslot12_connection3I22LanguagesSelectBrowserP9GuiButtoniRK6_POINTNS_15single_threadedEE4emitES3_iS6_, .-_ZN7sigslot12_connection3I22LanguagesSelectBrowserP9GuiButtoniRK6_POINTNS_15single_threadedEE4emitES3_iS6_
	.section	.text._ZN7sigslot12_connection3I22LanguagesSelectBrowserP9GuiButtoniRK6_POINTNS_15single_threadedEE9duplicateEPNS_9has_slotsIS7_EE,"axG",@progbits,_ZN7sigslot12_connection3I22LanguagesSelectBrowserP9GuiButtoniRK6_POINTNS_15single_threadedEE9duplicateEPNS_9has_slotsIS7_EE,comdat
	.align 2
	.weak	_ZN7sigslot12_connection3I22LanguagesSelectBrowserP9GuiButtoniRK6_POINTNS_15single_threadedEE9duplicateEPNS_9has_slotsIS7_EE
	.type	_ZN7sigslot12_connection3I22LanguagesSelectBrowserP9GuiButtoniRK6_POINTNS_15single_threadedEE9duplicateEPNS_9has_slotsIS7_EE, @function
_ZN7sigslot12_connection3I22LanguagesSelectBrowserP9GuiButtoniRK6_POINTNS_15single_threadedEE9duplicateEPNS_9has_slotsIS7_EE:
.LFB2505:
	.loc 1 1794 0
	.cfi_startproc
.LVL106:
	stwu 1,-16(1)
.LCFI26:
	.cfi_def_cfa_offset 16
	mflr 0
	stw 30,8(1)
	mr 30,4
	.cfi_offset 30, -8
	.cfi_register 65, 0
	stw 31,12(1)
	mr 31,3
	.cfi_offset 31, -4
	.loc 1 1796 0
	li 3,16
.LVL107:
	.loc 1 1794 0
	stw 0,20(1)
	.loc 1 1796 0
	.cfi_offset 65, 4
	bl _Znwj
.LVL108:
	cmpwi 7,30,0
	li 0,0
	beq- 7,.L90
	.loc 1 1796 0 is_stmt 0 discriminator 1
	addi 0,30,-176
.L90:
.LVL109:
	.loc 1 1796 0 discriminator 3
	lwz 11,8(31)
.LVL110:
.LBB4970:
.LBB4971:
	.loc 1 1778 0 is_stmt 1 discriminator 3
	lis 10,_ZTVN7sigslot12_connection3I22LanguagesSelectBrowserP9GuiButtoniRK6_POINTNS_15single_threadedEEE+8@ha
.LBE4971:
.LBE4970:
	.loc 1 1796 0 discriminator 3
	lwz 9,12(31)
.LVL111:
.LBB4974:
.LBB4972:
	.loc 1 1778 0 discriminator 3
	la 10,_ZTVN7sigslot12_connection3I22LanguagesSelectBrowserP9GuiButtoniRK6_POINTNS_15single_threadedEEE+8@l(10)
	.loc 1 1780 0 discriminator 3
	stw 11,8(3)
	stw 9,12(3)
	.loc 1 1779 0 discriminator 3
	stw 0,4(3)
.LBE4972:
.LBE4974:
	.loc 1 1797 0 discriminator 3
	lwz 0,20(1)
.LVL112:
	lwz 30,8(1)
.LVL113:
	mtlr 0
	lwz 31,12(1)
.LVL114:
.LBB4975:
.LBB4973:
	.loc 1 1778 0 discriminator 3
	stw 10,0(3)
.LBE4973:
.LBE4975:
	.loc 1 1797 0 discriminator 3
	addi 1,1,16
.LCFI27:
	.cfi_def_cfa_offset 0
	.cfi_restore 31
	.cfi_restore 30
	blr
	.cfi_endproc
.LFE2505:
	.size	_ZN7sigslot12_connection3I22LanguagesSelectBrowserP9GuiButtoniRK6_POINTNS_15single_threadedEE9duplicateEPNS_9has_slotsIS7_EE, .-_ZN7sigslot12_connection3I22LanguagesSelectBrowserP9GuiButtoniRK6_POINTNS_15single_threadedEE9duplicateEPNS_9has_slotsIS7_EE
	.section	.text._ZN7sigslot12_connection2I22LanguagesSelectBrowseriiNS_15single_threadedEE9duplicateEPNS_9has_slotsIS2_EE,"axG",@progbits,_ZN7sigslot12_connection2I22LanguagesSelectBrowseriiNS_15single_threadedEE9duplicateEPNS_9has_slotsIS2_EE,comdat
	.align 2
	.weak	_ZN7sigslot12_connection2I22LanguagesSelectBrowseriiNS_15single_threadedEE9duplicateEPNS_9has_slotsIS2_EE
	.type	_ZN7sigslot12_connection2I22LanguagesSelectBrowseriiNS_15single_threadedEE9duplicateEPNS_9has_slotsIS2_EE, @function
_ZN7sigslot12_connection2I22LanguagesSelectBrowseriiNS_15single_threadedEE9duplicateEPNS_9has_slotsIS2_EE:
.LFB2491:
	.loc 1 1746 0
	.cfi_startproc
.LVL115:
	stwu 1,-16(1)
.LCFI28:
	.cfi_def_cfa_offset 16
	mflr 0
	stw 30,8(1)
	mr 30,4
	.cfi_offset 30, -8
	.cfi_register 65, 0
	stw 31,12(1)
	mr 31,3
	.cfi_offset 31, -4
	.loc 1 1748 0
	li 3,16
.LVL116:
	.loc 1 1746 0
	stw 0,20(1)
	.loc 1 1748 0
	.cfi_offset 65, 4
	bl _Znwj
.LVL117:
	cmpwi 7,30,0
	li 0,0
	beq- 7,.L93
	.loc 1 1748 0 is_stmt 0 discriminator 1
	addi 0,30,-176
.L93:
.LVL118:
	.loc 1 1748 0 discriminator 3
	lwz 11,8(31)
.LVL119:
.LBB4976:
.LBB4977:
	.loc 1 1730 0 is_stmt 1 discriminator 3
	lis 10,_ZTVN7sigslot12_connection2I22LanguagesSelectBrowseriiNS_15single_threadedEEE+8@ha
.LBE4977:
.LBE4976:
	.loc 1 1748 0 discriminator 3
	lwz 9,12(31)
.LVL120:
.LBB4980:
.LBB4978:
	.loc 1 1730 0 discriminator 3
	la 10,_ZTVN7sigslot12_connection2I22LanguagesSelectBrowseriiNS_15single_threadedEEE+8@l(10)
	.loc 1 1732 0 discriminator 3
	stw 11,8(3)
	stw 9,12(3)
	.loc 1 1731 0 discriminator 3
	stw 0,4(3)
.LBE4978:
.LBE4980:
	.loc 1 1749 0 discriminator 3
	lwz 0,20(1)
.LVL121:
	lwz 30,8(1)
.LVL122:
	mtlr 0
	lwz 31,12(1)
.LVL123:
.LBB4981:
.LBB4979:
	.loc 1 1730 0 discriminator 3
	stw 10,0(3)
.LBE4979:
.LBE4981:
	.loc 1 1749 0 discriminator 3
	addi 1,1,16
.LCFI29:
	.cfi_def_cfa_offset 0
	.cfi_restore 31
	.cfi_restore 30
	blr
	.cfi_endproc
.LFE2491:
	.size	_ZN7sigslot12_connection2I22LanguagesSelectBrowseriiNS_15single_threadedEE9duplicateEPNS_9has_slotsIS2_EE, .-_ZN7sigslot12_connection2I22LanguagesSelectBrowseriiNS_15single_threadedEE9duplicateEPNS_9has_slotsIS2_EE
	.section	.text._ZN7sigslot12_connection2I22LanguagesSelectBrowseriiNS_15single_threadedEE5cloneEv,"axG",@progbits,_ZN7sigslot12_connection2I22LanguagesSelectBrowseriiNS_15single_threadedEE5cloneEv,comdat
	.align 2
	.weak	_ZN7sigslot12_connection2I22LanguagesSelectBrowseriiNS_15single_threadedEE5cloneEv
	.type	_ZN7sigslot12_connection2I22LanguagesSelectBrowseriiNS_15single_threadedEE5cloneEv, @function
_ZN7sigslot12_connection2I22LanguagesSelectBrowseriiNS_15single_threadedEE5cloneEv:
.LFB2484:
	.loc 1 1741 0
	.cfi_startproc
.LVL124:
	stwu 1,-16(1)
.LCFI30:
	.cfi_def_cfa_offset 16
	mflr 0
	stw 31,12(1)
	mr 31,3
	.cfi_offset 31, -4
	.cfi_register 65, 0
	.loc 1 1743 0
	li 3,16
.LVL125:
	.loc 1 1741 0
	stw 0,20(1)
	.loc 1 1743 0
	.cfi_offset 65, 4
	bl _Znwj
	.file 4 "d:/Projects/SaveGameManager/savegame-manager-gx/trunk/source/Language/LanguagesSelectBrowser.cpp"
	.loc 4 373 0
	lwz 0,4(31)
.LVL126:
.LBB4982:
.LBB4983:
	.loc 1 1719 0
	lis 11,_ZTVN7sigslot12_connection2I22LanguagesSelectBrowseriiNS_15single_threadedEEE+8@ha
	la 11,_ZTVN7sigslot12_connection2I22LanguagesSelectBrowseriiNS_15single_threadedEEE+8@l(11)
	stw 0,4(3)
	stw 11,0(3)
	lwz 10,8(31)
	lwz 11,12(31)
	stw 10,8(3)
	stw 11,12(3)
.LBE4983:
.LBE4982:
	.loc 1 1744 0
	lwz 0,20(1)
	lwz 31,12(1)
.LVL127:
	mtlr 0
	addi 1,1,16
.LCFI31:
	.cfi_def_cfa_offset 0
	.cfi_restore 31
	blr
	.cfi_endproc
.LFE2484:
	.size	_ZN7sigslot12_connection2I22LanguagesSelectBrowseriiNS_15single_threadedEE5cloneEv, .-_ZN7sigslot12_connection2I22LanguagesSelectBrowseriiNS_15single_threadedEE5cloneEv
	.section	.text._ZN7sigslot12_connection3I22LanguagesSelectBrowserP9GuiButtoniRK6_POINTNS_15single_threadedEE5cloneEv,"axG",@progbits,_ZN7sigslot12_connection3I22LanguagesSelectBrowserP9GuiButtoniRK6_POINTNS_15single_threadedEE5cloneEv,comdat
	.align 2
	.weak	_ZN7sigslot12_connection3I22LanguagesSelectBrowserP9GuiButtoniRK6_POINTNS_15single_threadedEE5cloneEv
	.type	_ZN7sigslot12_connection3I22LanguagesSelectBrowserP9GuiButtoniRK6_POINTNS_15single_threadedEE5cloneEv, @function
_ZN7sigslot12_connection3I22LanguagesSelectBrowserP9GuiButtoniRK6_POINTNS_15single_threadedEE5cloneEv:
.LFB2498:
	.loc 1 1789 0
	.cfi_startproc
.LVL128:
	stwu 1,-16(1)
.LCFI32:
	.cfi_def_cfa_offset 16
	mflr 0
	stw 31,12(1)
	mr 31,3
	.cfi_offset 31, -4
	.cfi_register 65, 0
	.loc 1 1791 0
	li 3,16
.LVL129:
	.loc 1 1789 0
	stw 0,20(1)
	.loc 1 1791 0
	.cfi_offset 65, 4
	bl _Znwj
	.loc 4 373 0
	lwz 0,4(31)
.LVL130:
.LBB4984:
.LBB4985:
	.loc 1 1767 0
	lis 11,_ZTVN7sigslot12_connection3I22LanguagesSelectBrowserP9GuiButtoniRK6_POINTNS_15single_threadedEEE+8@ha
	la 11,_ZTVN7sigslot12_connection3I22LanguagesSelectBrowserP9GuiButtoniRK6_POINTNS_15single_threadedEEE+8@l(11)
	stw 0,4(3)
	stw 11,0(3)
	lwz 10,8(31)
	lwz 11,12(31)
	stw 10,8(3)
	stw 11,12(3)
.LBE4985:
.LBE4984:
	.loc 1 1792 0
	lwz 0,20(1)
	lwz 31,12(1)
.LVL131:
	mtlr 0
	addi 1,1,16
.LCFI33:
	.cfi_def_cfa_offset 0
	.cfi_restore 31
	blr
	.cfi_endproc
.LFE2498:
	.size	_ZN7sigslot12_connection3I22LanguagesSelectBrowserP9GuiButtoniRK6_POINTNS_15single_threadedEE5cloneEv, .-_ZN7sigslot12_connection3I22LanguagesSelectBrowserP9GuiButtoniRK6_POINTNS_15single_threadedEE5cloneEv
	.section	.text._ZN7sigslot12_connection3I22LanguagesSelectBrowserP9GuiButtoniRK6_POINTNS_15single_threadedEED0Ev,"axG",@progbits,_ZN7sigslot12_connection3I22LanguagesSelectBrowserP9GuiButtoniRK6_POINTNS_15single_threadedEED5Ev,comdat
	.align 2
	.weak	_ZN7sigslot12_connection3I22LanguagesSelectBrowserP9GuiButtoniRK6_POINTNS_15single_threadedEED0Ev
	.type	_ZN7sigslot12_connection3I22LanguagesSelectBrowserP9GuiButtoniRK6_POINTNS_15single_threadedEED0Ev, @function
_ZN7sigslot12_connection3I22LanguagesSelectBrowserP9GuiButtoniRK6_POINTNS_15single_threadedEED0Ev:
.LFB2495:
	.loc 1 1783 0
	.cfi_startproc
.LVL132:
	mflr 0
	stwu 1,-8(1)
.LCFI34:
	.cfi_def_cfa_offset 8
	.cfi_register 65, 0
.LBB4986:
.LBB4987:
.LBB4988:
.LBB4989:
.LBB4990:
.LBB4991:
	.loc 1 387 0
	lis 9,_ZTVN7sigslot17_connection_base3IP9GuiButtoniRK6_POINTNS_15single_threadedEEE+8@ha
.LBE4991:
.LBE4990:
.LBE4989:
.LBE4988:
.LBE4987:
.LBE4986:
	.loc 1 1783 0
	stw 0,12(1)
.LBB4997:
.LBB4996:
.LBB4995:
.LBB4994:
.LBB4993:
.LBB4992:
	.loc 1 387 0
	la 0,_ZTVN7sigslot17_connection_base3IP9GuiButtoniRK6_POINTNS_15single_threadedEEE+8@l(9)
	.cfi_offset 65, 4
	stw 0,0(3)
.LBE4992:
.LBE4993:
.LBE4994:
.LBE4995:
.LBE4996:
.LBE4997:
	.loc 1 1786 0
	bl _ZdlPv
.LVL133:
	lwz 0,12(1)
	addi 1,1,8
.LCFI35:
	.cfi_def_cfa_offset 0
	mtlr 0
	blr
	.cfi_endproc
.LFE2495:
	.size	_ZN7sigslot12_connection3I22LanguagesSelectBrowserP9GuiButtoniRK6_POINTNS_15single_threadedEED0Ev, .-_ZN7sigslot12_connection3I22LanguagesSelectBrowserP9GuiButtoniRK6_POINTNS_15single_threadedEED0Ev
	.section	.text._ZN7sigslot12_connection2I22LanguagesSelectBrowseriiNS_15single_threadedEED0Ev,"axG",@progbits,_ZN7sigslot12_connection2I22LanguagesSelectBrowseriiNS_15single_threadedEED5Ev,comdat
	.align 2
	.weak	_ZN7sigslot12_connection2I22LanguagesSelectBrowseriiNS_15single_threadedEED0Ev
	.type	_ZN7sigslot12_connection2I22LanguagesSelectBrowseriiNS_15single_threadedEED0Ev, @function
_ZN7sigslot12_connection2I22LanguagesSelectBrowseriiNS_15single_threadedEED0Ev:
.LFB2481:
	.loc 1 1735 0
	.cfi_startproc
.LVL134:
	mflr 0
	stwu 1,-8(1)
.LCFI36:
	.cfi_def_cfa_offset 8
	.cfi_register 65, 0
.LBB4998:
.LBB4999:
.LBB5000:
.LBB5001:
.LBB5002:
.LBB5003:
	.loc 1 376 0
	lis 9,_ZTVN7sigslot17_connection_base2IiiNS_15single_threadedEEE+8@ha
.LBE5003:
.LBE5002:
.LBE5001:
.LBE5000:
.LBE4999:
.LBE4998:
	.loc 1 1735 0
	stw 0,12(1)
.LBB5009:
.LBB5008:
.LBB5007:
.LBB5006:
.LBB5005:
.LBB5004:
	.loc 1 376 0
	la 0,_ZTVN7sigslot17_connection_base2IiiNS_15single_threadedEEE+8@l(9)
	.cfi_offset 65, 4
	stw 0,0(3)
.LBE5004:
.LBE5005:
.LBE5006:
.LBE5007:
.LBE5008:
.LBE5009:
	.loc 1 1738 0
	bl _ZdlPv
.LVL135:
	lwz 0,12(1)
	addi 1,1,8
.LCFI37:
	.cfi_def_cfa_offset 0
	mtlr 0
	blr
	.cfi_endproc
.LFE2481:
	.size	_ZN7sigslot12_connection2I22LanguagesSelectBrowseriiNS_15single_threadedEED0Ev, .-_ZN7sigslot12_connection2I22LanguagesSelectBrowseriiNS_15single_threadedEED0Ev
	.section	.text._ZN7sigslot17_connection_base2IiiNS_15single_threadedEED0Ev,"axG",@progbits,_ZN7sigslot17_connection_base2IiiNS_15single_threadedEED5Ev,comdat
	.align 2
	.weak	_ZN7sigslot17_connection_base2IiiNS_15single_threadedEED0Ev
	.type	_ZN7sigslot17_connection_base2IiiNS_15single_threadedEED0Ev, @function
_ZN7sigslot17_connection_base2IiiNS_15single_threadedEED0Ev:
.LFB2001:
	.loc 1 376 0
	.cfi_startproc
.LVL136:
	mflr 0
	stwu 1,-8(1)
.LCFI38:
	.cfi_def_cfa_offset 8
	.cfi_register 65, 0
.LBB5010:
.LBB5011:
.LBB5012:
	lis 9,_ZTVN7sigslot17_connection_base2IiiNS_15single_threadedEEE+8@ha
.LBE5012:
.LBE5011:
.LBE5010:
	stw 0,12(1)
.LBB5015:
.LBB5014:
.LBB5013:
	.loc 1 376 0
	la 0,_ZTVN7sigslot17_connection_base2IiiNS_15single_threadedEEE+8@l(9)
	.cfi_offset 65, 4
	stw 0,0(3)
.LBE5013:
.LBE5014:
.LBE5015:
	bl _ZdlPv
.LVL137:
	lwz 0,12(1)
	addi 1,1,8
.LCFI39:
	.cfi_def_cfa_offset 0
	mtlr 0
	blr
	.cfi_endproc
.LFE2001:
	.size	_ZN7sigslot17_connection_base2IiiNS_15single_threadedEED0Ev, .-_ZN7sigslot17_connection_base2IiiNS_15single_threadedEED0Ev
	.section	.text._ZN7sigslot17_connection_base3IP9GuiButtoniRK6_POINTNS_15single_threadedEED0Ev,"axG",@progbits,_ZN7sigslot17_connection_base3IP9GuiButtoniRK6_POINTNS_15single_threadedEED5Ev,comdat
	.align 2
	.weak	_ZN7sigslot17_connection_base3IP9GuiButtoniRK6_POINTNS_15single_threadedEED0Ev
	.type	_ZN7sigslot17_connection_base3IP9GuiButtoniRK6_POINTNS_15single_threadedEED0Ev, @function
_ZN7sigslot17_connection_base3IP9GuiButtoniRK6_POINTNS_15single_threadedEED0Ev:
.LFB1994:
	.loc 1 387 0
	.cfi_startproc
.LVL138:
	mflr 0
	stwu 1,-8(1)
.LCFI40:
	.cfi_def_cfa_offset 8
	.cfi_register 65, 0
.LBB5016:
.LBB5017:
.LBB5018:
	lis 9,_ZTVN7sigslot17_connection_base3IP9GuiButtoniRK6_POINTNS_15single_threadedEEE+8@ha
.LBE5018:
.LBE5017:
.LBE5016:
	stw 0,12(1)
.LBB5021:
.LBB5020:
.LBB5019:
	.loc 1 387 0
	la 0,_ZTVN7sigslot17_connection_base3IP9GuiButtoniRK6_POINTNS_15single_threadedEEE+8@l(9)
	.cfi_offset 65, 4
	stw 0,0(3)
.LBE5019:
.LBE5020:
.LBE5021:
	bl _ZdlPv
.LVL139:
	lwz 0,12(1)
	addi 1,1,8
.LCFI41:
	.cfi_def_cfa_offset 0
	mtlr 0
	blr
	.cfi_endproc
.LFE1994:
	.size	_ZN7sigslot17_connection_base3IP9GuiButtoniRK6_POINTNS_15single_threadedEED0Ev, .-_ZN7sigslot17_connection_base3IP9GuiButtoniRK6_POINTNS_15single_threadedEED0Ev
	.section	.text._ZN7sigslot15single_threadedD0Ev,"axG",@progbits,_ZN7sigslot15single_threadedD5Ev,comdat
	.align 2
	.weak	_ZN7sigslot15single_threadedD0Ev
	.type	_ZN7sigslot15single_threadedD0Ev, @function
_ZN7sigslot15single_threadedD0Ev:
.LFB1150:
	.loc 1 104 0
	.cfi_startproc
.LVL140:
	mflr 0
	stwu 1,-8(1)
.LCFI42:
	.cfi_def_cfa_offset 8
	.cfi_register 65, 0
.LBB5022:
.LBB5023:
.LBB5024:
	.loc 1 105 0
	lis 9,_ZTVN7sigslot15single_threadedE+8@ha
.LBE5024:
.LBE5023:
.LBE5022:
	.loc 1 104 0
	stw 0,12(1)
.LBB5027:
.LBB5026:
.LBB5025:
	.loc 1 105 0
	la 0,_ZTVN7sigslot15single_threadedE+8@l(9)
	.cfi_offset 65, 4
	stw 0,0(3)
.LBE5025:
.LBE5026:
.LBE5027:
	.loc 1 107 0
	bl _ZdlPv
.LVL141:
	lwz 0,12(1)
	addi 1,1,8
.LCFI43:
	.cfi_def_cfa_offset 0
	mtlr 0
	blr
	.cfi_endproc
.LFE1150:
	.size	_ZN7sigslot15single_threadedD0Ev, .-_ZN7sigslot15single_threadedD0Ev
	.section	".text"
	.align 2
	.globl _ZN22LanguagesSelectBrowser13OnButtonClickEP9GuiButtoniRK6_POINT
	.type	_ZN22LanguagesSelectBrowser13OnButtonClickEP9GuiButtoniRK6_POINT, @function
_ZN22LanguagesSelectBrowser13OnButtonClickEP9GuiButtoniRK6_POINT:
.LFB1639:
	.loc 4 238 0
	.cfi_startproc
.LVL142:
	mflr 0
	stwu 1,-24(1)
.LCFI44:
	.cfi_def_cfa_offset 24
	.cfi_register 65, 0
	stw 28,8(1)
	mr 28,3
	.cfi_offset 28, -16
	stw 0,28(1)
	stw 29,12(1)
.LBB5028:
	.loc 4 239 0
	lwz 0,324(3)
	.cfi_offset 29, -12
	.cfi_offset 65, 4
.LBE5028:
	.loc 4 238 0
	stw 30,16(1)
.LBB5045:
	.loc 4 239 0
	cmpw 7,0,4
.LBE5045:
	.loc 4 238 0
	stw 31,20(1)
.LBB5046:
	.loc 4 239 0
	beq- 7,.L115
	.cfi_offset 31, -4
	.cfi_offset 30, -8
.LVL143:
.LBB5029:
.LBB5030:
.LBB5031:
	.loc 4 373 0 discriminator 1
	lis 9,LangList@ha
.LBE5031:
	.loc 4 247 0 discriminator 1
	li 31,0
.LBB5040:
	.loc 4 373 0 discriminator 1
	la 30,LangList@l(9)
.LBB5032:
.LBB5033:
	.file 5 "d:\\devkitpro\\devkitppc\\bin\\../lib/gcc/powerpc-eabi/4.6.3/../../../../powerpc-eabi/include/c++/4.6.3/bits/stl_vector.h"
	.loc 5 571 0 discriminator 1
	lwz 0,LangList@l(9)
	lwz 11,4(30)
.LBE5033:
.LBE5032:
.LBE5040:
	.loc 4 247 0 discriminator 1
	li 29,0
.LBB5041:
.LBB5037:
.LBB5034:
	.loc 5 571 0 discriminator 1
	subf 0,0,11
.LBE5034:
.LBE5037:
.LBE5041:
	.loc 4 247 0 discriminator 1
	cmpwi 7,0,3
	ble- 7,.L117
.LVL144:
.L121:
	.loc 4 249 0
	mr 4,31
	mr 3,30
	bl _ZN9CLangList6NeededEi
	.loc 4 247 0
	addi 31,31,1
	.loc 4 249 0
	cmpwi 7,3,0
.LBB5042:
.LBB5038:
.LBB5035:
	.loc 5 571 0
	lwz 0,0(30)
.LBE5035:
.LBE5038:
.LBE5042:
	.loc 4 249 0
	beq- 7,.L119
	.loc 4 250 0
	addi 29,29,1
.LVL145:
.L119:
.LBB5043:
.LBB5039:
.LBB5036:
	.loc 5 571 0
	lwz 9,4(30)
	subf 0,0,9
	srawi 0,0,2
.LBE5036:
.LBE5039:
.LBE5043:
	.loc 4 247 0
	cmpw 7,31,0
	blt+ 7,.L121
.LVL146:
.L117:
.LBE5030:
.LBE5029:
.LBE5046:
	.loc 4 255 0
	lwz 0,28(1)
.LBB5047:
.LBB5044:
	.loc 4 253 0
	stw 29,216(28)
.LBE5044:
.LBE5047:
	.loc 4 255 0
	mtlr 0
	lwz 28,8(1)
.LVL147:
	lwz 29,12(1)
	lwz 30,16(1)
	lwz 31,20(1)
	addi 1,1,24
	.cfi_remember_state
.LCFI45:
	.cfi_def_cfa_offset 0
	.cfi_restore 31
	.cfi_restore 30
	.cfi_restore 29
	.cfi_restore 28
	blr
.LVL148:
.L115:
.LCFI46:
	.cfi_restore_state
.LBB5048:
	.loc 4 241 0
	li 0,0
.LBE5048:
	.loc 4 255 0
	lwz 28,8(1)
.LBB5049:
	.loc 4 241 0
	stw 0,216(3)
.LBE5049:
	.loc 4 255 0
	lwz 0,28(1)
	lwz 29,12(1)
	mtlr 0
	lwz 30,16(1)
	lwz 31,20(1)
	addi 1,1,24
	.cfi_restore 28
	.cfi_restore 29
	.cfi_restore 30
	.cfi_restore 31
.LCFI47:
	.cfi_def_cfa_offset 0
	blr
	.cfi_endproc
.LFE1639:
	.size	_ZN22LanguagesSelectBrowser13OnButtonClickEP9GuiButtoniRK6_POINT, .-_ZN22LanguagesSelectBrowser13OnButtonClickEP9GuiButtoniRK6_POINT
	.align 2
	.globl _ZN22LanguagesSelectBrowser11OnListClickEP9GuiButtoniRK6_POINT
	.type	_ZN22LanguagesSelectBrowser11OnListClickEP9GuiButtoniRK6_POINT, @function
_ZN22LanguagesSelectBrowser11OnListClickEP9GuiButtoniRK6_POINT:
.LFB1640:
	.loc 4 258 0
	.cfi_startproc
.LVL149:
	mflr 0
	stwu 1,-32(1)
.LCFI48:
	.cfi_def_cfa_offset 32
	.cfi_register 65, 0
	stw 29,20(1)
	mr 29,3
	.cfi_offset 29, -12
	stw 0,36(1)
	stw 27,12(1)
.LBB5050:
	.loc 4 373 0
	lwz 9,256(3)
.LBB5051:
.LBB5052:
	.loc 5 571 0
	lwz 0,260(3)
	.cfi_offset 27, -20
	.cfi_offset 65, 4
.LBE5052:
.LBE5051:
.LBE5050:
	.loc 4 258 0
	stw 28,16(1)
.LBB5057:
.LBB5054:
.LBB5053:
	.loc 5 571 0
	subf 0,9,0
.LBE5053:
.LBE5054:
.LBE5057:
	.loc 4 258 0
	stw 30,24(1)
.LBB5058:
	.loc 4 259 0
	srawi. 0,0,2
.LBE5058:
	.loc 4 258 0
	stw 31,28(1)
.LBB5059:
	.loc 4 259 0
	beq- 0,.L123
	.cfi_offset 31, -4
	.cfi_offset 30, -8
	.cfi_offset 28, -16
.LVL150:
	.loc 4 261 0
	lwz 11,0(9)
	.loc 4 259 0
	li 31,0
	mtctr 0
	.loc 4 261 0
	cmpw 7,11,4
	bne+ 7,.L126
	b .L131
.LVL151:
.L127:
	lwzx 0,9,30
	cmpw 7,0,4
	beq- 7,.L125
.LVL152:
.L126:
	.loc 4 259 0
	addi 31,31,1
.LVL153:
	.loc 4 257 0
	slwi 30,31,2
	.loc 4 259 0
	bdnz .L127
.LVL154:
.L123:
.LBE5059:
	.loc 4 268 0
	lwz 0,36(1)
	lwz 27,12(1)
	mtlr 0
	lwz 28,16(1)
	lwz 29,20(1)
	lwz 30,24(1)
	lwz 31,28(1)
	addi 1,1,32
	.cfi_remember_state
.LCFI49:
	.cfi_def_cfa_offset 0
	.cfi_restore 31
	.cfi_restore 30
	.cfi_restore 29
	.cfi_restore 28
	.cfi_restore 27
	blr
.LVL155:
.L131:
.LCFI50:
	.cfi_restore_state
.LBB5060:
	.loc 5 696 0
	li 30,0
	.loc 4 259 0
	li 31,0
.LVL156:
.L125:
	.loc 4 263 0
	lwz 27,212(29)
	lis 28,LangList@ha
	la 28,LangList@l(28)
	add 27,31,27
	mr 3,28
.LVL157:
	mr 4,27
.LVL158:
	bl _ZN9CLangList6NeededEi
.LVL159:
	mr 4,27
	xori 5,3,1
	mr 3,28
	rlwinm 5,5,0,0xff
	bl _ZN9CLangList9SetNeededEib
.LVL160:
	.loc 4 264 0
	lwz 4,212(29)
	lwz 9,268(29)
	mr 3,28
	add 4,31,4
	lwzx 30,9,30
	bl _ZN9CLangList6NeededEi
.LVL161:
.LBE5060:
	.loc 4 268 0
	lwz 0,36(1)
.LBB5061:
.LBB5055:
.LBB5056:
	.file 6 "d:/Projects/SaveGameManager/savegame-manager-gx/trunk/source/Language/../Gui/gui_checkbox.hpp"
	.loc 6 41 0
	stb 3,948(30)
.LBE5056:
.LBE5055:
.LBE5061:
	.loc 4 268 0
	mtlr 0
	lwz 27,12(1)
	lwz 28,16(1)
	lwz 29,20(1)
.LVL162:
	lwz 30,24(1)
	lwz 31,28(1)
.LVL163:
	addi 1,1,32
	.cfi_restore 27
	.cfi_restore 28
	.cfi_restore 29
	.cfi_restore 30
	.cfi_restore 31
.LCFI51:
	.cfi_def_cfa_offset 0
	blr
	.cfi_endproc
.LFE1640:
	.size	_ZN22LanguagesSelectBrowser11OnListClickEP9GuiButtoniRK6_POINT, .-_ZN22LanguagesSelectBrowser11OnListClickEP9GuiButtoniRK6_POINT
	.align 2
	.globl _ZN22LanguagesSelectBrowser6UpdateEP10GuiTrigger
	.type	_ZN22LanguagesSelectBrowser6UpdateEP10GuiTrigger, @function
_ZN22LanguagesSelectBrowser6UpdateEP10GuiTrigger:
.LFB1643:
	.loc 4 315 0
	.cfi_startproc
.LVL164:
	mflr 0
	stwu 1,-40(1)
.LCFI52:
	.cfi_def_cfa_offset 40
	.cfi_register 65, 0
	stw 29,28(1)
	mr 29,4
	.cfi_offset 29, -12
	stw 0,44(1)
	stw 31,36(1)
	mr 31,3
	.cfi_offset 31, -4
	.cfi_offset 65, 4
.LBB5094:
	.loc 4 316 0
	lwz 0,72(3)
.LBE5094:
	.loc 4 315 0
	stw 27,20(1)
.LBB5095:
	.loc 4 316 0
	cmpwi 7,0,4
.LBE5095:
	.loc 4 315 0
	stw 28,24(1)
	stw 30,32(1)
.LBB5096:
	.loc 4 316 0
	beq- 7,.L132
	.cfi_offset 30, -8
	.cfi_offset 28, -16
	.cfi_offset 27, -20
	.loc 4 316 0 is_stmt 0 discriminator 1
	cmpwi 7,4,0
	beq- 7,.L132
.LVL165:
.LBE5096:
.LBB5097:
.LBB5098:
	.loc 4 319 0 is_stmt 1
	lwz 3,316(3)
.LVL166:
	lwz 9,0(3)
	lwz 0,188(9)
	mtctr 0
	bctrl
.LVL167:
	.loc 4 320 0
	lwz 3,324(31)
	mr 4,29
	lwz 9,0(3)
	lwz 0,188(9)
	mtctr 0
	bctrl
	.loc 4 321 0
	lwz 3,320(31)
	mr 4,29
	lwz 9,0(3)
	lwz 0,188(9)
	mtctr 0
	bctrl
.LVL168:
.LBB5099:
	.loc 4 373 0
	lis 9,LangList@ha
	la 11,LangList@l(9)
.LBB5100:
.LBB5101:
	.loc 5 571 0
	lwz 9,LangList@l(9)
	lwz 4,4(11)
.LBE5101:
.LBE5100:
.LBE5099:
	.loc 4 323 0
	lwz 0,204(31)
.LBB5104:
.LBB5103:
.LBB5102:
	.loc 5 571 0
	subf 4,9,4
	srawi 4,4,2
.LBE5102:
.LBE5103:
.LBE5104:
	.loc 4 323 0
	cmpw 7,0,4
	beq- 7,.L134
.LVL169:
	.loc 4 325 0
	stw 4,204(31)
	.loc 4 326 0
	lwz 3,316(31)
	bl _ZN9Scrollbar14SetEntrieCountEi
.LVL170:
.L134:
.LBE5098:
	.loc 4 373 0
	lwz 9,256(31)
.LBB5125:
.LBB5105:
.LBB5106:
.LBB5107:
	.loc 5 571 0
	lwz 4,260(31)
	subf 4,9,4
	srawi 4,4,2
.LBE5107:
.LBE5106:
	.loc 4 329 0
	cmpwi 7,4,0
	ble- 7,.L135
.LBB5111:
	.loc 4 331 0
	lwz 0,208(31)
.LBE5111:
	.loc 4 329 0
	li 28,0
	mr 11,9
	li 30,0
.LBB5114:
	.loc 4 331 0
	cmpw 7,0,28
	bne- 7,.L147
.LVL171:
.L136:
	.loc 4 333 0
	lwzx 3,11,30
	lwz 9,0(3)
	lwz 0,84(9)
	mtctr 0
	bctrl
	cmpwi 7,3,0
	beq- 7,.L139
.LVL172:
.L144:
	.loc 4 338 0
	lwz 9,12(29)
	.loc 4 336 0
	lwz 27,8(29)
.LVL173:
	.loc 4 338 0
	lwz 0,172(9)
	cmpwi 7,0,0
	bne- 7,.L148
.LVL174:
.L145:
	.loc 4 341 0
	lwz 9,256(31)
	mr 4,29
	lwzx 3,9,30
	lwz 9,0(3)
	lwz 0,188(9)
	mtctr 0
	bctrl
	.loc 4 344 0
	lwz 9,256(31)
	.loc 4 342 0
	stw 27,8(29)
	.loc 4 344 0
	lwzx 3,9,30
	lwz 9,0(3)
	lwz 0,84(9)
	mtctr 0
	bctrl
	cmpwi 7,3,1
	beq- 7,.L149
.L142:
.LBE5114:
.LBE5105:
.LBE5125:
	.loc 4 373 0
	lwz 9,256(31)
.LBB5126:
.LBB5122:
	.loc 4 329 0
	addi 28,28,1
.LVL175:
.LBB5115:
.LBB5108:
	.loc 5 571 0
	lwz 4,260(31)
	addi 30,30,4
	subf 4,9,4
	srawi 4,4,2
.LBE5108:
.LBE5115:
	.loc 4 329 0
	cmpw 7,28,4
	bge- 7,.L135
.L146:
.LBB5116:
	.loc 4 331 0
	lwz 0,208(31)
.LBE5116:
	.loc 4 329 0
	mr 11,9
.LBB5117:
	.loc 4 331 0
	cmpw 7,0,28
	beq- 7,.L136
.LVL176:
.L147:
	lwzx 3,9,30
	lwz 9,0(3)
	lwz 0,84(9)
	mtctr 0
	bctrl
	cmpwi 7,3,1
	beq- 7,.L137
	.loc 4 333 0
	lwz 0,208(31)
	cmpw 7,28,0
	bne+ 7,.L144
	lwz 11,256(31)
	b .L136
.LVL177:
.L148:
	.loc 4 338 0
	lwz 11,256(31)
	lfs 13,176(9)
	lwzx 3,11,30
	lfs 0,180(9)
	fctiwz 13,13
	lwz 9,0(3)
	fctiwz 0,0
	lwz 0,164(9)
	addi 9,1,8
	stfiwx 13,0,9
	addi 9,1,12
	stfiwx 0,0,9
	mtctr 0
	lwz 4,8(1)
	lwz 5,12(1)
	bctrl
	cmpwi 7,3,0
	bne- 7,.L145
	.loc 4 341 0
	lwz 9,256(31)
	.loc 4 339 0
	li 0,-1
	stw 0,8(29)
	.loc 4 341 0
	mr 4,29
	lwzx 3,9,30
	lwz 9,0(3)
	lwz 0,188(9)
	mtctr 0
	bctrl
	.loc 4 344 0
	lwz 9,256(31)
	.loc 4 342 0
	stw 27,8(29)
	.loc 4 344 0
	lwzx 3,9,30
	lwz 9,0(3)
	lwz 0,84(9)
	mtctr 0
	bctrl
	cmpwi 7,3,1
	bne+ 7,.L142
.L149:
.LBE5117:
.LBE5122:
.LBE5126:
	.loc 4 373 0
	lwz 9,256(31)
.LBB5127:
.LBB5123:
.LBB5118:
.LBB5109:
	.loc 5 571 0
	addi 30,30,4
	lwz 4,260(31)
.LBE5109:
.LBE5118:
.LBB5119:
	.loc 4 345 0
	stw 28,208(31)
.LBE5119:
	.loc 4 329 0
	addi 28,28,1
.LVL178:
.LBB5120:
.LBB5110:
	.loc 5 571 0
	subf 4,9,4
	srawi 4,4,2
.LBE5110:
.LBE5120:
	.loc 4 329 0
	cmpw 7,28,4
	blt+ 7,.L146
.LVL179:
.L135:
.LBE5123:
	.loc 4 348 0
	lwz 3,316(31)
	bl _ZN9Scrollbar11SetPageSizeEi
	.loc 4 349 0
	lwz 3,316(31)
	li 4,0
	bl _ZN9Scrollbar10SetRowSizeEi
	.loc 4 350 0
	lwz 3,316(31)
	lwz 4,208(31)
	lwz 5,212(31)
	bl _ZN9Scrollbar11SetSelectedEii
.LVL180:
.L132:
.LBE5127:
.LBE5097:
	.loc 4 351 0
	lwz 0,44(1)
	lwz 27,20(1)
	mtlr 0
	lwz 28,24(1)
	lwz 29,28(1)
.LVL181:
	lwz 30,32(1)
	lwz 31,36(1)
.LVL182:
	addi 1,1,40
	.cfi_remember_state
.LCFI53:
	.cfi_def_cfa_offset 0
	.cfi_restore 31
	.cfi_restore 30
	.cfi_restore 29
	.cfi_restore 28
	.cfi_restore 27
	blr
.LVL183:
.L137:
.LCFI54:
	.cfi_restore_state
.LBB5129:
.LBB5128:
.LBB5124:
.LBB5121:
	.loc 4 332 0
	lwz 9,256(31)
	lwzx 3,9,30
	lwz 9,0(3)
	lwz 0,92(9)
	mtctr 0
	bctrl
	b .L144
.LVL184:
.L139:
.LBB5112:
.LBB5113:
	.loc 5 696 0
	lwz 0,208(31)
.LBE5113:
.LBE5112:
	.loc 4 334 0
	li 4,1
	lwz 9,256(31)
	slwi 0,0,2
	lwz 5,8(29)
	lwzx 3,9,0
	lwz 9,0(3)
	lwz 0,80(9)
	mtctr 0
	bctrl
.LVL185:
	b .L144
.LBE5121:
.LBE5124:
.LBE5128:
.LBE5129:
	.cfi_endproc
.LFE1643:
	.size	_ZN22LanguagesSelectBrowser6UpdateEP10GuiTrigger, .-_ZN22LanguagesSelectBrowser6UpdateEP10GuiTrigger
	.align 2
	.globl _ZN22LanguagesSelectBrowser4DrawEv
	.type	_ZN22LanguagesSelectBrowser4DrawEv, @function
_ZN22LanguagesSelectBrowser4DrawEv:
.LFB1642:
	.loc 4 291 0
	.cfi_startproc
.LVL186:
	mflr 0
	stwu 1,-24(1)
.LCFI55:
	.cfi_def_cfa_offset 24
	.cfi_register 65, 0
	stw 31,20(1)
	mr 31,3
	.cfi_offset 31, -4
	stw 0,28(1)
	stw 29,12(1)
.LBB5141:
	.loc 4 292 0
	lwz 9,0(3)
.LBE5141:
	.loc 4 291 0
	stw 30,16(1)
.LBB5142:
	.loc 4 292 0
	lwz 0,52(9)
	.cfi_offset 30, -8
	.cfi_offset 29, -12
	.cfi_offset 65, 4
	mtctr 0
	bctrl
.LVL187:
	cmpwi 7,3,0
	bne- 7,.L155
.LBE5142:
	.loc 4 312 0
	lwz 0,28(1)
	lwz 29,12(1)
	mtlr 0
	lwz 30,16(1)
	lwz 31,20(1)
.LVL188:
	addi 1,1,24
	.cfi_remember_state
.LCFI56:
	.cfi_def_cfa_offset 0
	.cfi_restore 31
	.cfi_restore 30
	.cfi_restore 29
	blr
.LVL189:
.L155:
.LCFI57:
	.cfi_restore_state
.LBB5143:
.LBB5144:
	.loc 4 295 0
	lwz 3,280(31)
	lwz 9,0(3)
	lwz 0,192(9)
	mtctr 0
	bctrl
	.loc 4 296 0
	lwz 3,284(31)
	lwz 9,0(3)
	lwz 0,192(9)
	mtctr 0
	bctrl
	.loc 4 297 0
	lwz 3,312(31)
	lwz 9,0(3)
	lwz 0,192(9)
	mtctr 0
	bctrl
	.loc 4 298 0
	lwz 3,288(31)
	lwz 9,0(3)
	lwz 0,192(9)
	mtctr 0
	bctrl
	.loc 4 299 0
	lwz 3,292(31)
	lwz 9,0(3)
	lwz 0,192(9)
	mtctr 0
	bctrl
	.loc 4 300 0
	lwz 3,324(31)
	lwz 9,0(3)
	lwz 0,192(9)
	mtctr 0
	bctrl
	.loc 4 301 0
	lwz 3,320(31)
	lwz 9,0(3)
	lwz 0,192(9)
	mtctr 0
	bctrl
.LVL190:
.LBE5144:
	.loc 4 373 0
	lwz 9,256(31)
.LBB5151:
.LBB5145:
.LBB5146:
.LBB5147:
	.loc 5 571 0
	lwz 0,260(31)
	subf 0,9,0
.LBE5147:
.LBE5146:
	.loc 4 303 0
	srwi. 11,0,2
	beq- 0,.L152
	li 30,0
.LVL191:
.L153:
	.loc 4 290 0
	slwi 29,30,2
	.loc 4 303 0
	addi 30,30,1
.LVL192:
	.loc 4 305 0
	lwzx 3,9,29
	lwz 9,0(3)
	lwz 0,192(9)
	mtctr 0
	bctrl
	.loc 4 306 0
	lwz 9,268(31)
	lwzx 3,9,29
	lwz 9,0(3)
	lwz 0,192(9)
	mtctr 0
	bctrl
.LVL193:
.LBE5145:
.LBE5151:
	.loc 4 373 0
	lwz 9,256(31)
.LBB5152:
.LBB5150:
.LBB5149:
.LBB5148:
	.loc 5 571 0
	lwz 0,260(31)
	subf 0,9,0
	srawi 0,0,2
.LBE5148:
.LBE5149:
	.loc 4 303 0
	cmplw 7,30,0
	blt+ 7,.L153
.LVL194:
.L152:
.LBE5150:
	.loc 4 309 0
	lwz 3,316(31)
	lwz 9,0(3)
	lwz 0,192(9)
	mtctr 0
	bctrl
	.loc 4 311 0
	lwz 9,0(31)
	mr 3,31
	lwz 0,196(9)
	mtctr 0
	bctrl
.LBE5152:
.LBE5143:
	.loc 4 312 0
	lwz 0,28(1)
	lwz 29,12(1)
	mtlr 0
	lwz 30,16(1)
	lwz 31,20(1)
.LVL195:
	addi 1,1,24
	.cfi_restore 29
	.cfi_restore 30
	.cfi_restore 31
.LCFI58:
	.cfi_def_cfa_offset 0
	blr
	.cfi_endproc
.LFE1642:
	.size	_ZN22LanguagesSelectBrowser4DrawEv, .-_ZN22LanguagesSelectBrowser4DrawEv
	.align 2
	.globl _ZN22LanguagesSelectBrowser12RemoveButtonEi
	.type	_ZN22LanguagesSelectBrowser12RemoveButtonEi, @function
_ZN22LanguagesSelectBrowser12RemoveButtonEi:
.LFB1621:
	.loc 4 180 0
	.cfi_startproc
.LVL196:
	.loc 4 181 0
	cmpwi 0,4,0
	.loc 4 180 0
	mflr 0
	stwu 1,-16(1)
.LCFI59:
	.cfi_def_cfa_offset 16
	.cfi_register 65, 0
	stw 31,12(1)
	mr 31,3
	.cfi_offset 31, -4
	stw 0,20(1)
	stw 30,8(1)
	.loc 4 181 0
	blt- 0,.L156
	.cfi_offset 30, -8
	.cfi_offset 65, 4
.LBB5270:
.LBB5271:
	.loc 5 571 0 discriminator 2
	lwz 9,260(3)
	lwz 0,256(3)
	subf 0,0,9
	srawi 0,0,2
.LBE5271:
.LBE5270:
	.loc 4 181 0 discriminator 2
	cmpw 7,0,4
	ble- 7,.L156
.LVL197:
	.loc 4 184 0
	lwz 9,220(3)
.LBB5272:
.LBB5273:
	.loc 5 696 0
	slwi 30,4,2
.LBE5273:
.LBE5272:
	.loc 4 184 0
	lwzx 3,9,30
.LVL198:
	cmpwi 7,3,0
	beq- 7,.L169
	.loc 4 185 0
	lwz 9,0(3)
	lwz 0,4(9)
	mtctr 0
	bctrl
.LVL199:
.L169:
	.loc 4 186 0
	lwz 9,232(31)
	lwzx 3,9,30
	cmpwi 7,3,0
	beq- 7,.L159
	.loc 4 187 0
	lwz 9,0(3)
	lwz 0,4(9)
	mtctr 0
	bctrl
.L159:
	.loc 4 188 0
	lwz 9,244(31)
	lwzx 3,9,30
	cmpwi 7,3,0
	beq- 7,.L160
	.loc 4 189 0
	lwz 9,0(3)
	lwz 0,4(9)
	mtctr 0
	bctrl
.L160:
	.loc 4 190 0
	lwz 9,268(31)
	lwzx 3,9,30
	cmpwi 7,3,0
	beq- 7,.L161
	.loc 4 191 0
	lwz 9,0(3)
	lwz 0,4(9)
	mtctr 0
	bctrl
.L161:
	.loc 4 192 0
	lwz 9,256(31)
	lwzx 3,9,30
	cmpwi 7,3,0
	beq- 7,.L162
	.loc 4 193 0
	lwz 9,0(3)
	lwz 0,4(9)
	mtctr 0
	bctrl
.L162:
.LVL200:
.LBB5274:
.LBB5275:
	.file 7 "d:\\devkitpro\\devkitppc\\bin\\../lib/gcc/powerpc-eabi/4.6.3/../../../../powerpc-eabi/include/c++/4.6.3/bits/stl_iterator.h"
	.loc 7 773 0
	lwz 3,220(31)
.LBE5275:
.LBE5274:
.LBB5277:
.LBB5278:
.LBB5279:
	.loc 4 373 0
	lwz 11,224(31)
.LBE5279:
.LBE5278:
.LBE5277:
.LBB5291:
.LBB5276:
	.loc 7 773 0
	add 3,3,30
.LVL201:
.LBE5276:
.LBE5291:
.LBB5292:
.LBB5288:
.LBB5280:
.LBB5281:
	addi 4,3,4
.LVL202:
.LBE5281:
.LBE5280:
	.file 8 "d:\\devkitpro\\devkitppc\\bin\\../lib/gcc/powerpc-eabi/4.6.3/../../../../powerpc-eabi/include/c++/4.6.3/bits/vector.tcc"
	.loc 8 138 0
	cmpw 7,4,11
	beq- 7,.L163
.LVL203:
.LBB5282:
.LBB5283:
.LBB5284:
.LBB5285:
.LBB5286:
.LBB5287:
	.file 9 "d:\\devkitpro\\devkitppc\\bin\\../lib/gcc/powerpc-eabi/4.6.3/../../../../powerpc-eabi/include/c++/4.6.3/bits/stl_algobase.h"
	.loc 9 364 0
	subf 5,4,11
.LVL204:
	.loc 9 365 0
	srawi. 5,5,2
.LVL205:
	beq+ 0,.L163
	.loc 9 366 0
	slwi 5,5,2
.LVL206:
	bl memmove
.LVL207:
	lwz 11,224(31)
.LVL208:
.L163:
.LBE5287:
.LBE5286:
.LBE5285:
.LBE5284:
.LBE5283:
.LBE5282:
.LBE5288:
.LBE5292:
.LBB5293:
.LBB5294:
	.loc 7 773 0
	lwz 3,232(31)
.LBE5294:
.LBE5293:
.LBB5296:
.LBB5289:
	.loc 8 140 0
	addi 11,11,-4
.LBE5289:
.LBE5296:
.LBB5297:
.LBB5298:
.LBB5299:
	.loc 4 373 0
	lwz 9,236(31)
.LBE5299:
.LBE5298:
.LBE5297:
.LBB5311:
.LBB5295:
	.loc 7 773 0
	add 3,3,30
.LBE5295:
.LBE5311:
.LBB5312:
.LBB5290:
	.loc 8 140 0
	stw 11,224(31)
.LVL209:
.LBE5290:
.LBE5312:
.LBB5313:
.LBB5308:
.LBB5300:
.LBB5301:
	.loc 7 773 0
	addi 4,3,4
.LBE5301:
.LBE5300:
	.loc 8 138 0
	cmpw 7,4,9
	beq- 7,.L164
.LVL210:
.LBB5302:
.LBB5303:
.LBB5304:
.LBB5305:
.LBB5306:
.LBB5307:
	.loc 9 364 0
	subf 5,4,9
.LVL211:
	.loc 9 365 0
	srawi. 5,5,2
.LVL212:
	beq+ 0,.L164
	.loc 9 366 0
	slwi 5,5,2
.LVL213:
	bl memmove
.LVL214:
	lwz 9,236(31)
.LVL215:
.L164:
.LBE5307:
.LBE5306:
.LBE5305:
.LBE5304:
.LBE5303:
.LBE5302:
.LBE5308:
.LBE5313:
.LBB5314:
.LBB5315:
	.loc 7 773 0
	lwz 3,244(31)
.LBE5315:
.LBE5314:
.LBB5317:
.LBB5309:
	.loc 8 140 0
	addi 9,9,-4
.LBE5309:
.LBE5317:
.LBB5318:
.LBB5319:
.LBB5320:
	.loc 4 373 0
	lwz 10,248(31)
.LBE5320:
.LBE5319:
.LBE5318:
.LBB5332:
.LBB5316:
	.loc 7 773 0
	add 3,3,30
.LBE5316:
.LBE5332:
.LBB5333:
.LBB5310:
	.loc 8 140 0
	stw 9,236(31)
.LVL216:
.LBE5310:
.LBE5333:
.LBB5334:
.LBB5329:
.LBB5321:
.LBB5322:
	.loc 7 773 0
	addi 4,3,4
.LBE5322:
.LBE5321:
	.loc 8 138 0
	cmpw 7,4,10
	beq- 7,.L165
.LVL217:
.LBB5323:
.LBB5324:
.LBB5325:
.LBB5326:
.LBB5327:
.LBB5328:
	.loc 9 364 0
	subf 5,4,10
.LVL218:
	.loc 9 365 0
	srawi. 5,5,2
.LVL219:
	beq+ 0,.L165
	.loc 9 366 0
	slwi 5,5,2
.LVL220:
	bl memmove
.LVL221:
	lwz 10,248(31)
.LVL222:
.L165:
.LBE5328:
.LBE5327:
.LBE5326:
.LBE5325:
.LBE5324:
.LBE5323:
.LBE5329:
.LBE5334:
.LBB5335:
.LBB5336:
	.loc 7 773 0
	lwz 3,268(31)
.LBE5336:
.LBE5335:
.LBB5338:
.LBB5330:
	.loc 8 140 0
	addi 10,10,-4
.LBE5330:
.LBE5338:
.LBB5339:
.LBB5340:
.LBB5341:
	.loc 4 373 0
	lwz 11,272(31)
.LBE5341:
.LBE5340:
.LBE5339:
.LBB5353:
.LBB5337:
	.loc 7 773 0
	add 3,3,30
.LBE5337:
.LBE5353:
.LBB5354:
.LBB5331:
	.loc 8 140 0
	stw 10,248(31)
.LVL223:
.LBE5331:
.LBE5354:
.LBB5355:
.LBB5350:
.LBB5342:
.LBB5343:
	.loc 7 773 0
	addi 4,3,4
.LBE5343:
.LBE5342:
	.loc 8 138 0
	cmpw 7,4,11
	beq- 7,.L166
.LVL224:
.LBB5344:
.LBB5345:
.LBB5346:
.LBB5347:
.LBB5348:
.LBB5349:
	.loc 9 364 0
	subf 5,4,11
.LVL225:
	.loc 9 365 0
	srawi. 5,5,2
.LVL226:
	beq+ 0,.L166
	.loc 9 366 0
	slwi 5,5,2
.LVL227:
	bl memmove
.LVL228:
	lwz 11,272(31)
.LVL229:
.L166:
.LBE5349:
.LBE5348:
.LBE5347:
.LBE5346:
.LBE5345:
.LBE5344:
.LBE5350:
.LBE5355:
.LBB5356:
.LBB5357:
	.loc 7 773 0
	lwz 3,256(31)
.LBE5357:
.LBE5356:
.LBB5359:
.LBB5351:
	.loc 8 140 0
	addi 11,11,-4
.LBE5351:
.LBE5359:
.LBB5360:
.LBB5361:
.LBB5362:
	.loc 4 373 0
	lwz 9,260(31)
.LBE5362:
.LBE5361:
.LBE5360:
.LBB5372:
.LBB5358:
	.loc 7 773 0
	add 3,3,30
.LBE5358:
.LBE5372:
.LBB5373:
.LBB5352:
	.loc 8 140 0
	stw 11,272(31)
.LVL230:
.LBE5352:
.LBE5373:
.LBB5374:
.LBB5371:
.LBB5363:
.LBB5364:
	.loc 7 773 0
	addi 4,3,4
.LBE5364:
.LBE5363:
	.loc 8 138 0
	cmpw 7,4,9
	beq- 7,.L167
.LVL231:
.LBB5365:
.LBB5366:
.LBB5367:
.LBB5368:
.LBB5369:
.LBB5370:
	.loc 9 364 0
	subf 5,4,9
.LVL232:
	.loc 9 365 0
	srawi. 5,5,2
.LVL233:
	beq+ 0,.L167
	.loc 9 366 0
	slwi 5,5,2
.LVL234:
	bl memmove
.LVL235:
	lwz 9,260(31)
.LVL236:
.L167:
.LBE5370:
.LBE5369:
.LBE5368:
.LBE5367:
.LBE5366:
.LBE5365:
	.loc 8 140 0
	addi 9,9,-4
	stw 9,260(31)
.LVL237:
.L156:
.LBE5371:
.LBE5374:
	.loc 4 200 0
	lwz 0,20(1)
	lwz 30,8(1)
	mtlr 0
	lwz 31,12(1)
.LVL238:
	addi 1,1,16
.LCFI60:
	.cfi_def_cfa_offset 0
	.cfi_restore 31
	.cfi_restore 30
	blr
	.cfi_endproc
.LFE1621:
	.size	_ZN22LanguagesSelectBrowser12RemoveButtonEi, .-_ZN22LanguagesSelectBrowser12RemoveButtonEi
	.section	.text._ZNSt6vectorIP7GuiTextSaIS1_EED2Ev,"axG",@progbits,_ZNSt6vectorIP7GuiTextSaIS1_EED5Ev,comdat
	.align 2
	.weak	_ZNSt6vectorIP7GuiTextSaIS1_EED2Ev
	.type	_ZNSt6vectorIP7GuiTextSaIS1_EED2Ev, @function
_ZNSt6vectorIP7GuiTextSaIS1_EED2Ev:
.LFB1692:
	.loc 5 349 0
	.cfi_startproc
.LVL239:
	mflr 0
	stwu 1,-8(1)
.LCFI61:
	.cfi_def_cfa_offset 8
	.cfi_register 65, 0
	stw 0,12(1)
	.loc 4 373 0
	lwz 3,0(3)
.LVL240:
.LBB5387:
.LBB5388:
.LBB5389:
.LBB5390:
	.loc 5 155 0
	cmpwi 7,3,0
	beq- 7,.L171
	.cfi_offset 65, 4
.LVL241:
.LBB5391:
.LBB5392:
	.file 10 "d:\\devkitpro\\devkitppc\\bin\\../lib/gcc/powerpc-eabi/4.6.3/../../../../powerpc-eabi/include/c++/4.6.3/ext/new_allocator.h"
	.loc 10 98 0
	bl _ZdlPv
.LVL242:
.L171:
.LBE5392:
.LBE5391:
.LBE5390:
.LBE5389:
.LBE5388:
.LBE5387:
	.loc 5 351 0
	lwz 0,12(1)
	addi 1,1,8
.LCFI62:
	.cfi_def_cfa_offset 0
	mtlr 0
	blr
	.cfi_endproc
.LFE1692:
	.size	_ZNSt6vectorIP7GuiTextSaIS1_EED2Ev, .-_ZNSt6vectorIP7GuiTextSaIS1_EED2Ev
	.section	.text._ZNSt6vectorIP10GuiElementSaIS1_EE13_M_insert_auxEN9__gnu_cxx17__normal_iteratorIPS1_S3_EERKS1_,"axG",@progbits,_ZNSt6vectorIP10GuiElementSaIS1_EE13_M_insert_auxEN9__gnu_cxx17__normal_iteratorIPS1_S3_EERKS1_,comdat
	.align 2
	.weak	_ZNSt6vectorIP10GuiElementSaIS1_EE13_M_insert_auxEN9__gnu_cxx17__normal_iteratorIPS1_S3_EERKS1_
	.type	_ZNSt6vectorIP10GuiElementSaIS1_EE13_M_insert_auxEN9__gnu_cxx17__normal_iteratorIPS1_S3_EERKS1_, @function
_ZNSt6vectorIP10GuiElementSaIS1_EE13_M_insert_auxEN9__gnu_cxx17__normal_iteratorIPS1_S3_EERKS1_:
.LFB1779:
	.loc 8 300 0
	.cfi_startproc
.LVL243:
	mflr 0
	stwu 1,-40(1)
.LCFI63:
	.cfi_def_cfa_offset 40
	.cfi_register 65, 0
	stw 27,20(1)
	stw 0,44(1)
	stw 30,32(1)
.LBB5455:
	.loc 8 304 0
	lwz 27,4(3)
	.cfi_offset 30, -8
	.cfi_offset 65, 4
	.cfi_offset 27, -20
	lwz 0,8(3)
.LBE5455:
	.loc 8 300 0
	stw 31,36(1)
	mr 31,3
	.cfi_offset 31, -4
.LBB5580:
	.loc 8 304 0
	cmpw 7,27,0
.LBE5580:
	.loc 8 300 0
	stw 26,16(1)
	stw 28,24(1)
	stw 29,28(1)
	.loc 8 300 0
	lwz 30,0(4)
.LVL244:
.LBB5581:
	.loc 8 304 0
	beq- 7,.L178
	.cfi_offset 29, -12
	.cfi_offset 28, -16
	.cfi_offset 26, -24
.LVL245:
.LBB5456:
.LBB5457:
.LBB5458:
	.loc 10 108 0
	cmpwi 7,27,0
	li 3,0
.LVL246:
	beq- 7,.L179
	lwz 0,-4(27)
	stw 0,0(27)
	lwz 3,4(31)
.L179:
.LBE5458:
.LBE5457:
	.loc 8 313 0
	addi 0,3,-4
	.loc 8 309 0
	addi 9,3,4
.LBB5459:
.LBB5460:
.LBB5461:
.LBB5462:
.LBB5463:
.LBB5464:
	.loc 9 559 0
	subf 0,30,0
.LBE5464:
.LBE5463:
.LBE5462:
.LBE5461:
.LBE5460:
.LBE5459:
	.loc 8 309 0
	stw 9,4(31)
.LBB5480:
.LBB5477:
.LBB5474:
.LBB5471:
.LBB5468:
.LBB5465:
	.loc 9 560 0
	srawi. 0,0,2
.LBE5465:
.LBE5468:
.LBE5471:
.LBE5474:
.LBE5477:
.LBE5480:
	.loc 8 311 0
	lwz 31,0(5)
.LVL247:
.LBB5481:
.LBB5478:
.LBB5475:
.LBB5472:
.LBB5469:
.LBB5466:
	.loc 9 560 0
	bne- 0,.L194
.LVL248:
.L180:
.LBE5466:
.LBE5469:
.LBE5472:
.LBE5475:
.LBE5478:
.LBE5481:
.LBE5456:
.LBE5581:
	.loc 8 373 0
	lwz 0,44(1)
.LBB5582:
.LBB5483:
	.loc 8 317 0
	stw 31,0(30)
.LBE5483:
.LBE5582:
	.loc 8 373 0
	mtlr 0
	lwz 26,16(1)
	lwz 27,20(1)
.LVL249:
	lwz 28,24(1)
	lwz 29,28(1)
	lwz 30,32(1)
.LVL250:
	lwz 31,36(1)
.LVL251:
	addi 1,1,40
	.cfi_remember_state
.LCFI64:
	.cfi_def_cfa_offset 0
	.cfi_restore 31
	.cfi_restore 30
	.cfi_restore 29
	.cfi_restore 28
	.cfi_restore 27
	.cfi_restore 26
	blr
.LVL252:
.L194:
.LCFI65:
	.cfi_restore_state
.LBB5583:
.LBB5484:
.LBB5482:
.LBB5479:
.LBB5476:
.LBB5473:
.LBB5470:
.LBB5467:
	.loc 9 561 0
	slwi 5,0,2
.LVL253:
	mr 4,30
	subf 3,5,3
.LVL254:
	bl memmove
.LVL255:
	b .L180
.LVL256:
.L178:
.LBE5467:
.LBE5470:
.LBE5473:
.LBE5476:
.LBE5479:
.LBE5482:
.LBE5484:
.LBB5485:
.LBB5486:
.LBB5487:
.LBB5488:
.LBB5489:
	.loc 5 571 0
	lwz 28,0(3)
	subf 27,28,27
.LBE5489:
.LBE5488:
.LBB5490:
.LBB5491:
	.loc 9 215 0
	srawi. 27,27,2
	beq- 0,.L182
.LBE5491:
.LBE5490:
	.loc 5 1244 0
	slwi 0,27,1
.LVL257:
	.loc 5 1245 0
	cmplw 7,27,0
	ble- 7,.L195
.L183:
.LVL258:
.LBE5487:
.LBE5486:
.LBB5494:
.LBB5495:
	.loc 7 892 0
	subf 28,28,30
.LBE5495:
.LBE5494:
	.loc 8 326 0
	li 27,-4
.LBB5501:
.LBB5496:
	.loc 7 892 0
	srawi 28,28,2
.LVL259:
.L189:
.LBE5496:
.LBE5501:
.LBB5502:
.LBB5503:
.LBB5504:
.LBB5505:
	.loc 10 92 0
	mr 3,27
.LVL260:
	stw 5,8(1)
	bl _Znwj
.LVL261:
	lwz 5,8(1)
	mr 29,3
.L184:
.LVL262:
.LBE5505:
.LBE5504:
.LBE5503:
.LBE5502:
	.loc 8 335 0
	slwi 28,28,2
.LVL263:
	add 0,29,28
.LVL264:
.LBB5508:
.LBB5509:
	.loc 10 108 0
	cmpwi 7,0,0
	beq- 7,.L185
	lwz 0,0(5)
.LVL265:
	stwx 0,29,28
.L185:
.LVL266:
.LBE5509:
.LBE5508:
	.loc 8 343 0
	lwz 4,0(31)
.LVL267:
.LBB5510:
.LBB5511:
.LBB5512:
.LBB5513:
.LBB5514:
.LBB5515:
.LBB5516:
.LBB5517:
.LBB5518:
.LBB5519:
.LBB5520:
	.loc 9 365 0
	li 28,0
	.loc 9 364 0
	subf 0,4,30
.LVL268:
	.loc 9 365 0
	srawi. 0,0,2
.LVL269:
	beq+ 0,.L186
	.loc 9 366 0
	slwi 28,0,2
	mr 3,29
	mr 5,28
.LVL270:
	bl memmove
.LVL271:
.L186:
.LBE5520:
.LBE5519:
.LBE5518:
.LBE5517:
.LBE5516:
.LBE5515:
.LBE5514:
.LBE5513:
.LBE5512:
.LBE5511:
.LBE5510:
.LBB5531:
.LBB5532:
.LBB5533:
.LBB5534:
.LBB5535:
.LBB5536:
.LBB5537:
.LBB5538:
.LBB5539:
.LBB5540:
.LBB5541:
	.loc 9 364 0
	lwz 0,4(31)
.LBE5541:
.LBE5540:
.LBE5539:
.LBE5538:
.LBE5537:
.LBE5536:
.LBE5535:
.LBE5534:
.LBE5533:
.LBE5532:
.LBE5531:
.LBB5562:
.LBB5530:
.LBB5529:
.LBB5528:
.LBB5527:
.LBB5526:
.LBB5525:
.LBB5524:
.LBB5523:
.LBB5522:
.LBB5521:
	.loc 9 367 0
	add 28,29,28
.LVL272:
.LBE5521:
.LBE5522:
.LBE5523:
.LBE5524:
.LBE5525:
.LBE5526:
.LBE5527:
.LBE5528:
.LBE5529:
.LBE5530:
.LBE5562:
	.loc 8 347 0
	addi 26,28,4
.LBB5563:
.LBB5560:
.LBB5558:
.LBB5556:
.LBB5554:
.LBB5552:
.LBB5550:
.LBB5548:
.LBB5546:
.LBB5544:
.LBB5542:
	.loc 9 365 0
	li 28,0
	.loc 9 364 0
	subf 0,30,0
.LVL273:
	.loc 9 365 0
	srawi. 0,0,2
.LVL274:
	beq+ 0,.L187
	.loc 9 366 0
	slwi 28,0,2
	mr 3,26
	mr 4,30
	mr 5,28
	bl memmove
.LVL275:
.L187:
.LBE5542:
.LBE5544:
.LBE5546:
.LBE5548:
.LBE5550:
.LBE5552:
.LBE5554:
.LBE5556:
.LBE5558:
.LBE5560:
.LBE5563:
	.loc 8 366 0
	lwz 3,0(31)
.LBB5564:
.LBB5561:
.LBB5559:
.LBB5557:
.LBB5555:
.LBB5553:
.LBB5551:
.LBB5549:
.LBB5547:
.LBB5545:
.LBB5543:
	.loc 9 367 0
	add 28,26,28
.LVL276:
.LBE5543:
.LBE5545:
.LBE5547:
.LBE5549:
.LBE5551:
.LBE5553:
.LBE5555:
.LBE5557:
.LBE5559:
.LBE5561:
.LBE5564:
.LBB5565:
.LBB5566:
	.loc 5 155 0
	cmpwi 7,3,0
	beq- 7,.L188
.LVL277:
.LBB5567:
.LBB5568:
	.loc 10 98 0
	bl _ZdlPv
.LVL278:
.L188:
.LBE5568:
.LBE5567:
.LBE5566:
.LBE5565:
.LBE5485:
.LBE5583:
	.loc 8 373 0
	lwz 0,44(1)
.LBB5584:
.LBB5577:
	.loc 8 371 0
	add 27,29,27
	.loc 8 369 0
	stw 29,0(31)
.LBE5577:
.LBE5584:
	.loc 8 373 0
	mtlr 0
.LBB5585:
.LBB5578:
	.loc 8 370 0
	stw 28,4(31)
	.loc 8 371 0
	stw 27,8(31)
.LBE5578:
.LBE5585:
	.loc 8 373 0
	lwz 26,16(1)
.LVL279:
	lwz 27,20(1)
	lwz 28,24(1)
	lwz 29,28(1)
.LVL280:
	lwz 30,32(1)
.LVL281:
	lwz 31,36(1)
.LVL282:
	addi 1,1,40
	.cfi_remember_state
	.cfi_restore 26
	.cfi_restore 27
	.cfi_restore 28
	.cfi_restore 29
	.cfi_restore 30
	.cfi_restore 31
.LCFI66:
	.cfi_def_cfa_offset 0
	blr
.LVL283:
.L182:
.LCFI67:
	.cfi_restore_state
.LBB5586:
.LBB5579:
.LBB5569:
.LBB5497:
	.loc 7 892 0
	subf 28,28,30
.LBE5497:
.LBE5569:
	.loc 8 326 0
	li 27,4
.LBB5570:
.LBB5498:
	.loc 7 892 0
	srawi 28,28,2
.LVL284:
	b .L189
.LVL285:
.L195:
.LBE5498:
.LBE5570:
.LBB5571:
.LBB5492:
	.loc 5 1245 0
	lis 9,0x3fff
	ori 9,9,65535
	cmplw 7,0,9
	bgt+ 7,.L183
.LBE5492:
.LBE5571:
.LBB5572:
.LBB5506:
	.loc 5 150 0
	cmpwi 7,0,0
.LBE5506:
.LBE5572:
.LBB5573:
.LBB5499:
	.loc 7 892 0
	subf 28,28,30
.LBE5499:
.LBE5573:
.LBB5574:
.LBB5493:
	.loc 5 1245 0
	slwi 27,27,3
.LVL286:
.LBE5493:
.LBE5574:
.LBB5575:
.LBB5500:
	.loc 7 892 0
	srawi 28,28,2
.LVL287:
.LBE5500:
.LBE5575:
.LBB5576:
.LBB5507:
	.loc 5 150 0
	li 29,0
	beq+ 7,.L184
	b .L189
.LBE5507:
.LBE5576:
.LBE5579:
.LBE5586:
	.cfi_endproc
.LFE1779:
	.size	_ZNSt6vectorIP10GuiElementSaIS1_EE13_M_insert_auxEN9__gnu_cxx17__normal_iteratorIPS1_S3_EERKS1_, .-_ZNSt6vectorIP10GuiElementSaIS1_EE13_M_insert_auxEN9__gnu_cxx17__normal_iteratorIPS1_S3_EERKS1_
	.section	.text._ZNSt8_Rb_treeIPN7sigslot12_signal_baseINS0_15single_threadedEEES4_St9_IdentityIS4_ESt4lessIS4_ESaIS4_EE8_M_eraseEPSt13_Rb_tree_nodeIS4_E,"axG",@progbits,_ZNSt8_Rb_treeIPN7sigslot12_signal_baseINS0_15single_threadedEEES4_St9_IdentityIS4_ESt4lessIS4_ESaIS4_EE8_M_eraseEPSt13_Rb_tree_nodeIS4_E,comdat
	.align 2
	.weak	_ZNSt8_Rb_treeIPN7sigslot12_signal_baseINS0_15single_threadedEEES4_St9_IdentityIS4_ESt4lessIS4_ESaIS4_EE8_M_eraseEPSt13_Rb_tree_nodeIS4_E
	.type	_ZNSt8_Rb_treeIPN7sigslot12_signal_baseINS0_15single_threadedEEES4_St9_IdentityIS4_ESt4lessIS4_ESaIS4_EE8_M_eraseEPSt13_Rb_tree_nodeIS4_E, @function
_ZNSt8_Rb_treeIPN7sigslot12_signal_baseINS0_15single_threadedEEES4_St9_IdentityIS4_ESt4lessIS4_ESaIS4_EE8_M_eraseEPSt13_Rb_tree_nodeIS4_E:
.LFB1951:
	.file 11 "d:\\devkitpro\\devkitppc\\bin\\../lib/gcc/powerpc-eabi/4.6.3/../../../../powerpc-eabi/include/c++/4.6.3/bits/stl_tree.h"
	.loc 11 1068 0
	.cfi_startproc
.LVL288:
	stwu 1,-56(1)
.LCFI68:
	.cfi_def_cfa_offset 56
	mflr 0
	stw 22,16(1)
.LBB5703:
	.loc 11 1072 0
	mr. 22,4
	.cfi_offset 22, -40
	.cfi_register 65, 0
.LBE5703:
	.loc 11 1068 0
	stw 30,48(1)
	mr 30,3
	.cfi_offset 30, -8
	stw 0,60(1)
	stw 21,12(1)
	stw 23,20(1)
	stw 24,24(1)
	stw 25,28(1)
	stw 26,32(1)
	stw 27,36(1)
	stw 28,40(1)
	stw 29,44(1)
	stw 31,52(1)
.LBB5788:
	.loc 11 1072 0
	beq- 0,.L196
	.cfi_offset 31, -4
	.cfi_offset 29, -12
	.cfi_offset 28, -16
	.cfi_offset 27, -20
	.cfi_offset 26, -24
	.cfi_offset 25, -28
	.cfi_offset 24, -32
	.cfi_offset 23, -36
	.cfi_offset 21, -44
	.cfi_offset 65, 4
.LVL289:
.L242:
	.loc 4 373 0
	lwz 27,12(22)
.LVL290:
.LBB5704:
.LBB5705:
.LBB5706:
	.loc 11 1072 0
	cmpwi 7,27,0
	beq- 7,.L198
.LVL291:
.L243:
.LBE5706:
	.loc 4 373 0
	lwz 26,12(27)
.LVL292:
.LBB5782:
.LBB5707:
.LBB5708:
.LBB5709:
	.loc 11 1072 0
	cmpwi 7,26,0
	beq- 7,.L199
.LVL293:
.L244:
.LBE5709:
	.loc 4 373 0
	lwz 25,12(26)
.LVL294:
.LBB5775:
.LBB5710:
.LBB5711:
.LBB5712:
	.loc 11 1072 0
	cmpwi 7,25,0
	beq- 7,.L200
.LVL295:
.L245:
.LBE5712:
	.loc 4 373 0
	lwz 24,12(25)
.LVL296:
.LBB5768:
.LBB5713:
.LBB5714:
.LBB5715:
	.loc 11 1072 0
	cmpwi 7,24,0
	beq- 7,.L201
.LVL297:
.L246:
.LBE5715:
	.loc 4 373 0
	lwz 23,12(24)
.LVL298:
.LBB5761:
.LBB5716:
.LBB5717:
.LBB5718:
	.loc 11 1072 0
	cmpwi 7,23,0
	beq- 7,.L202
.LVL299:
.L247:
.LBE5718:
	.loc 4 373 0
	lwz 28,12(23)
.LVL300:
.LBB5754:
.LBB5719:
.LBB5720:
.LBB5721:
	.loc 11 1072 0
	cmpwi 7,28,0
	beq- 7,.L203
.LVL301:
.L248:
.LBE5721:
	.loc 4 373 0
	lwz 29,12(28)
.LVL302:
.LBB5747:
.LBB5722:
.LBB5723:
.LBB5724:
	.loc 11 1072 0
	cmpwi 7,29,0
	beq- 7,.L204
.LVL303:
.L249:
.LBE5724:
	.loc 4 373 0
	lwz 31,12(29)
.LVL304:
.LBB5740:
.LBB5725:
.LBB5726:
.LBB5727:
	.loc 11 1072 0
	cmpwi 7,31,0
	beq- 7,.L205
.LVL305:
.L250:
.LBB5728:
	.loc 11 1074 0
	lwz 4,12(31)
	mr 3,30
	bl _ZNSt8_Rb_treeIPN7sigslot12_signal_baseINS0_15single_threadedEEES4_St9_IdentityIS4_ESt4lessIS4_ESaIS4_EE8_M_eraseEPSt13_Rb_tree_nodeIS4_E
.LBE5728:
.LBE5727:
	.loc 4 373 0
	lwz 21,8(31)
.LVL306:
.LBB5734:
.LBB5733:
.LBB5729:
.LBB5730:
.LBB5731:
.LBB5732:
	.loc 10 98 0
	mr 3,31
	bl _ZdlPv
.LVL307:
.LBE5732:
.LBE5731:
.LBE5730:
.LBE5729:
.LBE5733:
	.loc 11 1072 0
	cmpwi 7,21,0
	.loc 11 1077 0
	mr 31,21
.LVL308:
	.loc 11 1072 0
	bne+ 7,.L250
.LVL309:
.L205:
.LBE5734:
.LBE5726:
.LBE5725:
.LBE5740:
	.loc 4 373 0
	lwz 31,8(29)
.LVL310:
.LBB5741:
.LBB5739:
.LBB5735:
.LBB5736:
.LBB5737:
.LBB5738:
	.loc 10 98 0
	mr 3,29
	bl _ZdlPv
.LVL311:
.LBE5738:
.LBE5737:
.LBE5736:
.LBE5735:
.LBE5739:
	.loc 11 1072 0
	cmpwi 7,31,0
	beq- 7,.L204
	.loc 11 1077 0
	mr 29,31
.LVL312:
	b .L249
.LVL313:
.L204:
.LBE5741:
.LBE5723:
.LBE5722:
.LBE5747:
	.loc 4 373 0
	lwz 31,8(28)
.LVL314:
.LBB5748:
.LBB5746:
.LBB5742:
.LBB5743:
.LBB5744:
.LBB5745:
	.loc 10 98 0
	mr 3,28
	bl _ZdlPv
.LVL315:
.LBE5745:
.LBE5744:
.LBE5743:
.LBE5742:
.LBE5746:
	.loc 11 1072 0
	cmpwi 7,31,0
	beq- 7,.L203
	.loc 11 1077 0
	mr 28,31
.LVL316:
	b .L248
.LVL317:
.L203:
.LBE5748:
.LBE5720:
.LBE5719:
.LBE5754:
	.loc 4 373 0
	lwz 31,8(23)
.LVL318:
.LBB5755:
.LBB5753:
.LBB5749:
.LBB5750:
.LBB5751:
.LBB5752:
	.loc 10 98 0
	mr 3,23
	bl _ZdlPv
.LVL319:
.LBE5752:
.LBE5751:
.LBE5750:
.LBE5749:
.LBE5753:
	.loc 11 1072 0
	cmpwi 7,31,0
	beq- 7,.L202
	.loc 11 1077 0
	mr 23,31
.LVL320:
	b .L247
.LVL321:
.L202:
.LBE5755:
.LBE5717:
.LBE5716:
.LBE5761:
	.loc 4 373 0
	lwz 31,8(24)
.LVL322:
.LBB5762:
.LBB5760:
.LBB5756:
.LBB5757:
.LBB5758:
.LBB5759:
	.loc 10 98 0
	mr 3,24
	bl _ZdlPv
.LVL323:
.LBE5759:
.LBE5758:
.LBE5757:
.LBE5756:
.LBE5760:
	.loc 11 1072 0
	cmpwi 7,31,0
	beq- 7,.L201
	.loc 11 1077 0
	mr 24,31
.LVL324:
	b .L246
.LVL325:
.L201:
.LBE5762:
.LBE5714:
.LBE5713:
.LBE5768:
	.loc 4 373 0
	lwz 31,8(25)
.LVL326:
.LBB5769:
.LBB5767:
.LBB5763:
.LBB5764:
.LBB5765:
.LBB5766:
	.loc 10 98 0
	mr 3,25
	bl _ZdlPv
.LVL327:
.LBE5766:
.LBE5765:
.LBE5764:
.LBE5763:
.LBE5767:
	.loc 11 1072 0
	cmpwi 7,31,0
	beq- 7,.L200
	.loc 11 1077 0
	mr 25,31
.LVL328:
	b .L245
.LVL329:
.L200:
.LBE5769:
.LBE5711:
.LBE5710:
.LBE5775:
	.loc 4 373 0
	lwz 31,8(26)
.LVL330:
.LBB5776:
.LBB5774:
.LBB5770:
.LBB5771:
.LBB5772:
.LBB5773:
	.loc 10 98 0
	mr 3,26
	bl _ZdlPv
.LVL331:
.LBE5773:
.LBE5772:
.LBE5771:
.LBE5770:
.LBE5774:
	.loc 11 1072 0
	cmpwi 7,31,0
	beq- 7,.L199
	.loc 11 1077 0
	mr 26,31
.LVL332:
	b .L244
.LVL333:
.L199:
.LBE5776:
.LBE5708:
.LBE5707:
.LBE5782:
	.loc 4 373 0
	lwz 31,8(27)
.LVL334:
.LBB5783:
.LBB5781:
.LBB5777:
.LBB5778:
.LBB5779:
.LBB5780:
	.loc 10 98 0
	mr 3,27
	bl _ZdlPv
.LVL335:
.LBE5780:
.LBE5779:
.LBE5778:
.LBE5777:
.LBE5781:
	.loc 11 1072 0
	cmpwi 7,31,0
	beq- 7,.L198
	.loc 11 1077 0
	mr 27,31
.LVL336:
	b .L243
.LVL337:
.L198:
	.loc 4 373 0
	lwz 31,8(22)
.LVL338:
.LBE5783:
.LBE5705:
.LBB5784:
.LBB5785:
.LBB5786:
.LBB5787:
	.loc 10 98 0
	mr 3,22
	bl _ZdlPv
.LVL339:
.LBE5787:
.LBE5786:
.LBE5785:
.LBE5784:
.LBE5704:
	.loc 11 1072 0
	cmpwi 7,31,0
	beq- 7,.L196
	.loc 11 1077 0
	mr 22,31
.LVL340:
	b .L242
.LVL341:
.L196:
.LBE5788:
	.loc 11 1079 0
	lwz 0,60(1)
	lwz 21,12(1)
	mtlr 0
	lwz 22,16(1)
	lwz 23,20(1)
	lwz 24,24(1)
	lwz 25,28(1)
	lwz 26,32(1)
	lwz 27,36(1)
	lwz 28,40(1)
	lwz 29,44(1)
	lwz 30,48(1)
.LVL342:
	lwz 31,52(1)
	addi 1,1,56
.LCFI69:
	.cfi_def_cfa_offset 0
	.cfi_restore 31
	.cfi_restore 30
	.cfi_restore 29
	.cfi_restore 28
	.cfi_restore 27
	.cfi_restore 26
	.cfi_restore 25
	.cfi_restore 24
	.cfi_restore 23
	.cfi_restore 22
	.cfi_restore 21
	blr
	.cfi_endproc
.LFE1951:
	.size	_ZNSt8_Rb_treeIPN7sigslot12_signal_baseINS0_15single_threadedEEES4_St9_IdentityIS4_ESt4lessIS4_ESaIS4_EE8_M_eraseEPSt13_Rb_tree_nodeIS4_E, .-_ZNSt8_Rb_treeIPN7sigslot12_signal_baseINS0_15single_threadedEEES4_St9_IdentityIS4_ESt4lessIS4_ESaIS4_EE8_M_eraseEPSt13_Rb_tree_nodeIS4_E
	.section	.text._ZN7sigslot9has_slotsINS_15single_threadedEED2Ev,"axG",@progbits,_ZN7sigslot9has_slotsINS_15single_threadedEED5Ev,comdat
	.align 2
	.weak	_ZN7sigslot9has_slotsINS_15single_threadedEED2Ev
	.type	_ZN7sigslot9has_slotsINS_15single_threadedEED2Ev, @function
_ZN7sigslot9has_slotsINS_15single_threadedEED2Ev:
.LFB1685:
	.loc 1 513 0
	.cfi_startproc
	.cfi_personality 0,__gxx_personality_v0
	.cfi_lsda 0,.LLSDA1685
.LVL343:
	mflr 0
	stwu 1,-32(1)
.LCFI70:
	.cfi_def_cfa_offset 32
	.cfi_register 65, 0
.LBB5935:
	.loc 1 516 0
	lis 9,_ZTVN7sigslot9has_slotsINS_15single_threadedEEE+8@ha
.LBE5935:
	.loc 1 513 0
	stw 28,16(1)
	addi 28,3,4
	.cfi_offset 28, -16
	stw 0,36(1)
.LBB6011:
	.loc 1 516 0
	la 0,_ZTVN7sigslot9has_slotsINS_15single_threadedEEE+8@l(9)
	.cfi_offset 65, 4
.LBE6011:
	.loc 1 513 0
	stw 29,20(1)
	mr 29,3
	.cfi_offset 29, -12
	stw 26,8(1)
	stw 27,12(1)
	stw 30,24(1)
	stw 31,28(1)
.LBB6012:
	.loc 1 516 0
	stw 0,0(3)
.LVL344:
.LEHB0:
.LBB5936:
.LBB5937:
.LBB5938:
.LBB5939:
	.loc 1 338 0
	.cfi_offset 31, -4
	.cfi_offset 30, -8
	.cfi_offset 27, -20
	.cfi_offset 26, -24
	bl _ZN7sigslot15single_threaded4lockEv
.LEHE0:
.LVL345:
.LBE5939:
.LBE5938:
.LBB5940:
	.loc 4 373 0
	lwz 31,16(29)
.LVL346:
.LBE5940:
.LBB5941:
.LBB5942:
.LBB5943:
	.loc 11 671 0
	addi 30,28,4
.LVL347:
.LBE5943:
.LBE5942:
.LBE5941:
	.loc 1 524 0
	cmpw 7,31,30
	beq- 7,.L252
.LVL348:
.L279:
	.loc 1 526 0
	lwz 3,16(31)
	mr 4,29
	lwz 9,0(3)
	lwz 0,16(9)
	mtctr 0
.LEHB1:
	bctrl
.LEHE1:
.LVL349:
.LBB5944:
.LBB5945:
	.loc 11 269 0
	mr 3,31
	bl _ZSt18_Rb_tree_incrementPKSt18_Rb_tree_node_base
.LBE5945:
.LBE5944:
	.loc 1 524 0
	cmpw 7,30,3
.LBB5947:
.LBB5946:
	.loc 11 269 0
	mr 31,3
.LVL350:
.LBE5946:
.LBE5947:
	.loc 1 524 0
	bne+ 7,.L279
	lwz 31,16(29)
.LVL351:
.L252:
.LBB5948:
.LBB5949:
.LBB5950:
.LBB5951:
.LBB5952:
.LBB5953:
.LBB5954:
	.loc 11 665 0
	addi 26,28,4
.LBE5954:
.LBE5953:
	.loc 11 1500 0
	cmpw 7,30,26
	beq- 7,.L254
.LVL352:
	.loc 11 1503 0
	cmpw 7,30,31
	bne+ 7,.L281
	b .L255
.LVL353:
.L276:
	.loc 11 277 0
	mr 31,27
.LVL354:
.L281:
.LBB5955:
.LBB5956:
	mr 3,31
	bl _ZSt18_Rb_tree_incrementPKSt18_Rb_tree_node_base
.LBE5956:
.LBE5955:
.LBB5958:
.LBB5959:
.LBB5960:
	.loc 11 1489 0
	mr 4,26
.LBE5960:
.LBE5959:
.LBE5958:
.LBB5969:
.LBB5957:
	.loc 11 277 0
	mr 27,3
.LVL355:
.LBE5957:
.LBE5969:
.LBB5970:
.LBB5967:
.LBB5965:
	.loc 11 1489 0
	mr 3,31
.LVL356:
	bl _ZSt28_Rb_tree_rebalance_for_erasePSt18_Rb_tree_node_baseRS_
.LBB5961:
.LBB5962:
.LBB5963:
.LBB5964:
	.loc 10 98 0
	bl _ZdlPv
.LBE5964:
.LBE5963:
.LBE5962:
.LBE5961:
.LBE5965:
.LBE5967:
.LBE5970:
	.loc 11 1503 0
	cmpw 7,30,27
.LBB5971:
.LBB5968:
.LBB5966:
	.loc 11 1491 0
	lwz 9,20(28)
	addi 0,9,-1
	stw 0,20(28)
.LBE5966:
.LBE5968:
.LBE5971:
	.loc 11 1503 0
	bne+ 7,.L276
.LVL357:
.L255:
.LBE5952:
.LBE5951:
.LBE5950:
.LBE5949:
.LBE5948:
.LBB5980:
.LBB5981:
.LBB5982:
	.loc 1 343 0
	lwz 9,0(29)
	mr 3,29
	lwz 0,12(9)
	mtctr 0
.LEHB2:
	bctrl
.LEHE2:
.LVL358:
.LBE5982:
.LBE5981:
.LBE5980:
.LBE5937:
.LBE5936:
.LBB5989:
.LBB5990:
.LBB5991:
.LBB5992:
.LBB5993:
	.loc 11 639 0
	lwz 4,12(29)
	mr 3,28
	bl _ZNSt8_Rb_treeIPN7sigslot12_signal_baseINS0_15single_threadedEEES4_St9_IdentityIS4_ESt4lessIS4_ESaIS4_EE8_M_eraseEPSt13_Rb_tree_nodeIS4_E
.LVL359:
.LBE5993:
.LBE5992:
.LBE5991:
.LBE5990:
.LBE5989:
.LBB5994:
.LBB5995:
.LBB5996:
	.loc 1 105 0
	lis 9,_ZTVN7sigslot15single_threadedE+8@ha
	la 0,_ZTVN7sigslot15single_threadedE+8@l(9)
.LBE5996:
.LBE5995:
.LBE5994:
.LBE6012:
	.loc 1 516 0
	lwz 26,8(1)
.LBB6013:
.LBB5999:
.LBB5998:
.LBB5997:
	.loc 1 105 0
	stw 0,0(29)
.LBE5997:
.LBE5998:
.LBE5999:
.LBE6013:
	.loc 1 516 0
	lwz 0,36(1)
	lwz 27,12(1)
	mtlr 0
	lwz 28,16(1)
.LVL360:
	lwz 29,20(1)
.LVL361:
	lwz 30,24(1)
.LVL362:
	lwz 31,28(1)
	addi 1,1,32
	.cfi_remember_state
.LCFI71:
	.cfi_def_cfa_offset 0
	.cfi_restore 31
	.cfi_restore 30
	.cfi_restore 29
	.cfi_restore 28
	.cfi_restore 27
	.cfi_restore 26
	blr
.LVL363:
.L254:
.LCFI72:
	.cfi_restore_state
.LBB6014:
.LBB6000:
.LBB5987:
.LBB5983:
.LBB5979:
.LBB5978:
.LBB5977:
.LBB5976:
.LBB5972:
.LBB5973:
.LBB5974:
.LBB5975:
	.loc 11 809 0
	lwz 4,12(29)
	mr 3,28
	bl _ZNSt8_Rb_treeIPN7sigslot12_signal_baseINS0_15single_threadedEEES4_St9_IdentityIS4_ESt4lessIS4_ESaIS4_EE8_M_eraseEPSt13_Rb_tree_nodeIS4_E
.LVL364:
	.loc 11 811 0
	li 0,0
	.loc 11 810 0
	stw 30,16(29)
.LVL365:
	.loc 11 811 0
	stw 0,12(29)
.LVL366:
	.loc 11 812 0
	stw 30,20(29)
	.loc 11 813 0
	stw 0,24(29)
	b .L255
.LVL367:
.L277:
	mr 31,3
.L262:
.LVL368:
.LBE5975:
.LBE5974:
.LBE5973:
.LBE5972:
.LBE5976:
.LBE5977:
.LBE5978:
.LBE5979:
.LBE5983:
.LBE5987:
.LBE6000:
.LBB6001:
.LBB6002:
.LBB6003:
.LBB6004:
.LBB6005:
.LBB6006:
	.loc 11 639 0
	lwz 4,12(29)
	mr 3,28
	bl _ZNSt8_Rb_treeIPN7sigslot12_signal_baseINS0_15single_threadedEEES4_St9_IdentityIS4_ESt4lessIS4_ESaIS4_EE8_M_eraseEPSt13_Rb_tree_nodeIS4_E
.LVL369:
.LBE6006:
.LBE6005:
.LBE6004:
.LBE6003:
.LBE6002:
.LBE6001:
.LBB6007:
.LBB6008:
.LBB6009:
	.loc 1 105 0
	lis 9,_ZTVN7sigslot15single_threadedE+8@ha
	la 0,_ZTVN7sigslot15single_threadedE+8@l(9)
	mr 3,31
	stw 0,0(29)
.LEHB3:
	bl _Unwind_Resume
.LEHE3:
.LVL370:
.L278:
.LBE6009:
.LBE6008:
.LBE6007:
.LBB6010:
.LBB5988:
.LBB5984:
.LBB5985:
.LBB5986:
	.loc 1 343 0
	lwz 9,0(29)
	mr 31,3
.LVL371:
	mr 3,29
	lwz 0,12(9)
	mtctr 0
	bctrl
	b .L262
.LBE5986:
.LBE5985:
.LBE5984:
.LBE5988:
.LBE6010:
.LBE6014:
	.cfi_endproc
.LFE1685:
	.globl __gxx_personality_v0
	.section	.gcc_except_table,"a",@progbits
.LLSDA1685:
	.byte	0xff
	.byte	0xff
	.byte	0x1
	.uleb128 .LLSDACSE1685-.LLSDACSB1685
.LLSDACSB1685:
	.uleb128 .LEHB0-.LFB1685
	.uleb128 .LEHE0-.LEHB0
	.uleb128 .L277-.LFB1685
	.uleb128 0
	.uleb128 .LEHB1-.LFB1685
	.uleb128 .LEHE1-.LEHB1
	.uleb128 .L278-.LFB1685
	.uleb128 0
	.uleb128 .LEHB2-.LFB1685
	.uleb128 .LEHE2-.LEHB2
	.uleb128 .L277-.LFB1685
	.uleb128 0
	.uleb128 .LEHB3-.LFB1685
	.uleb128 .LEHE3-.LEHB3
	.uleb128 0
	.uleb128 0
.LLSDACSE1685:
	.section	.text._ZN7sigslot9has_slotsINS_15single_threadedEED2Ev,"axG",@progbits,_ZN7sigslot9has_slotsINS_15single_threadedEED5Ev,comdat
	.size	_ZN7sigslot9has_slotsINS_15single_threadedEED2Ev, .-_ZN7sigslot9has_slotsINS_15single_threadedEED2Ev
	.section	".text"
	.align 2
	.globl _ZThn176_N22LanguagesSelectBrowserD1Ev
	.type	_ZThn176_N22LanguagesSelectBrowserD1Ev, @function
_ZThn176_N22LanguagesSelectBrowserD1Ev:
.LFB2784:
	.cfi_startproc
	addi 3,3,-176
	b .LTHUNK0
	.cfi_endproc
.LFE2784:
	.size	_ZThn176_N22LanguagesSelectBrowserD1Ev, .-_ZThn176_N22LanguagesSelectBrowserD1Ev
	.align 2
	.globl _ZN22LanguagesSelectBrowserD2Ev
	.type	_ZN22LanguagesSelectBrowserD2Ev, @function
_ZN22LanguagesSelectBrowserD2Ev:
.LFB1616:
	.loc 4 41 0
	.cfi_startproc
	.cfi_personality 0,__gxx_personality_v0
	.cfi_lsda 0,.LLSDA1616
.LVL372:
	mflr 0
	stwu 1,-24(1)
.LCFI73:
	.cfi_def_cfa_offset 24
	.cfi_register 65, 0
.LBB6342:
	lis 9,_ZTV22LanguagesSelectBrowser+8@ha
	la 9,_ZTV22LanguagesSelectBrowser+8@l(9)
.LBE6342:
	stw 31,20(1)
	stw 0,28(1)
.LBB6584:
	addi 0,9,228
	.cfi_offset 65, 4
	.cfi_offset 31, -4
.LBE6584:
	stw 28,8(1)
	mr 31,3
	stw 29,12(1)
	stw 30,16(1)
.LBB6585:
	.loc 4 41 0
	stw 9,0(3)
	stw 0,176(3)
.LEHB4:
	.loc 4 43 0
	.cfi_offset 30, -8
	.cfi_offset 29, -12
	.cfi_offset 28, -16
	bl _ZN8GuiFrame9RemoveAllEv
.LVL373:
	.loc 4 45 0
	lwz 3,280(31)
	cmpwi 7,3,0
	beq- 7,.L284
	.loc 4 45 0 is_stmt 0 discriminator 1
	lwz 9,0(3)
	lwz 0,4(9)
	mtctr 0
	bctrl
.L284:
	.loc 4 46 0 is_stmt 1
	lwz 3,284(31)
	cmpwi 7,3,0
	beq- 7,.L285
	.loc 4 46 0 is_stmt 0 discriminator 1
	lwz 9,0(3)
	lwz 0,4(9)
	mtctr 0
	bctrl
.L285:
	.loc 4 47 0 is_stmt 1
	lwz 3,288(31)
	cmpwi 7,3,0
	beq- 7,.L286
	.loc 4 47 0 is_stmt 0 discriminator 1
	lwz 9,0(3)
	lwz 0,4(9)
	mtctr 0
	bctrl
.L286:
	.loc 4 48 0 is_stmt 1
	lwz 3,292(31)
	cmpwi 7,3,0
	beq- 7,.L287
	.loc 4 48 0 is_stmt 0 discriminator 1
	lwz 9,0(3)
	lwz 0,4(9)
	mtctr 0
	bctrl
.L287:
	.loc 4 50 0 is_stmt 1
	lwz 3,296(31)
	bl _ZN9Resources6RemoveEP12GuiImageData
	.loc 4 51 0
	lwz 3,300(31)
	bl _ZN9Resources6RemoveEP12GuiImageData
	.loc 4 52 0
	lwz 3,304(31)
	bl _ZN9Resources6RemoveEP12GuiImageData
	.loc 4 53 0
	lwz 3,308(31)
	bl _ZN9Resources6RemoveEP12GuiImageData
	.loc 4 55 0
	lwz 3,328(31)
	bl _ZN9Resources6RemoveEP8GuiSound
	.loc 4 56 0
	lwz 3,332(31)
	bl _ZN9Resources6RemoveEP8GuiSound
	.loc 4 58 0
	lwz 3,312(31)
	cmpwi 7,3,0
	beq- 7,.L288
	.loc 4 58 0 is_stmt 0 discriminator 1
	lwz 9,0(3)
	lwz 0,4(9)
	mtctr 0
	bctrl
.L288:
	.loc 4 60 0 is_stmt 1
	lwz 3,316(31)
	cmpwi 7,3,0
	beq- 7,.L289
	.loc 4 60 0 is_stmt 0 discriminator 1
	lwz 9,0(3)
	lwz 0,4(9)
	mtctr 0
	bctrl
.L289:
	.loc 4 62 0 is_stmt 1
	lwz 3,320(31)
	cmpwi 7,3,0
	beq- 7,.L290
	.loc 4 62 0 is_stmt 0 discriminator 1
	lwz 9,0(3)
	lwz 0,4(9)
	mtctr 0
	bctrl
.L290:
	.loc 4 63 0 is_stmt 1
	lwz 3,324(31)
	cmpwi 7,3,0
	beq- 7,.L293
	.loc 4 63 0 is_stmt 0 discriminator 1
	lwz 9,0(3)
	lwz 0,4(9)
	mtctr 0
	bctrl
.L293:
	lwz 9,260(31)
	lwz 3,256(31)
.LBB6343:
.LBB6344:
.LBB6345:
.LBB6346:
	.loc 8 140 0 is_stmt 1 discriminator 1
	subf 9,3,9
	srawi. 0,9,2
	beq- 0,.L304
.L384:
	.loc 8 140 0 is_stmt 0
	ble- 0,.L382
.LVL374:
.LBE6346:
.LBE6345:
	.loc 4 184 0 is_stmt 1
	lwz 9,220(31)
	lwz 3,0(9)
	cmpwi 7,3,0
	beq- 7,.L294
.LVL375:
	.loc 4 185 0
	lwz 9,0(3)
	lwz 0,4(9)
	mtctr 0
	bctrl
.LVL376:
.L294:
	.loc 4 186 0
	lwz 9,232(31)
	lwz 3,0(9)
	cmpwi 7,3,0
	beq- 7,.L295
.LVL377:
	.loc 4 187 0
	lwz 9,0(3)
	lwz 0,4(9)
	mtctr 0
	bctrl
.LVL378:
.L295:
	.loc 4 188 0
	lwz 9,244(31)
	lwz 3,0(9)
	cmpwi 7,3,0
	beq- 7,.L296
.LVL379:
	.loc 4 189 0
	lwz 9,0(3)
	lwz 0,4(9)
	mtctr 0
	bctrl
.LVL380:
.L296:
	.loc 4 190 0
	lwz 9,268(31)
	lwz 3,0(9)
	cmpwi 7,3,0
	beq- 7,.L297
.LVL381:
	.loc 4 191 0
	lwz 9,0(3)
	lwz 0,4(9)
	mtctr 0
	bctrl
.LVL382:
.L297:
	.loc 4 192 0
	lwz 9,256(31)
	lwz 3,0(9)
	cmpwi 7,3,0
	beq- 7,.L298
.LVL383:
	.loc 4 193 0
	lwz 9,0(3)
	lwz 0,4(9)
	mtctr 0
	bctrl
.LEHE4:
.LVL384:
.L298:
.LBB6358:
	.loc 4 373 0
	lwz 3,220(31)
.LVL385:
.LBE6358:
.LBB6359:
.LBB6360:
.LBB6361:
	lwz 11,224(31)
.LBE6361:
.LBB6362:
.LBB6363:
	.loc 7 773 0
	addi 4,3,4
.LVL386:
.LBE6363:
.LBE6362:
	.loc 8 138 0
	cmpw 7,4,11
	beq- 7,.L299
.LVL387:
.LBB6364:
.LBB6365:
.LBB6366:
.LBB6367:
.LBB6368:
.LBB6369:
	.loc 9 364 0
	subf 5,4,11
.LVL388:
	.loc 9 365 0
	srawi. 5,5,2
.LVL389:
	beq+ 0,.L299
	.loc 9 366 0
	slwi 5,5,2
.LVL390:
	bl memmove
.LVL391:
	lwz 11,224(31)
.LVL392:
.L299:
.LBE6369:
.LBE6368:
.LBE6367:
.LBE6366:
.LBE6365:
.LBE6364:
.LBE6360:
.LBE6359:
.LBB6372:
	.loc 4 373 0
	lwz 3,232(31)
.LBE6372:
.LBB6373:
.LBB6370:
	.loc 8 140 0
	addi 11,11,-4
.LBE6370:
.LBE6373:
.LBB6374:
.LBB6375:
.LBB6376:
	.loc 4 373 0
	lwz 9,236(31)
.LBE6376:
.LBB6377:
.LBB6378:
	.loc 7 773 0
	addi 4,3,4
.LBE6378:
.LBE6377:
.LBE6375:
.LBE6374:
.LBB6388:
.LBB6371:
	.loc 8 140 0
	stw 11,224(31)
.LVL393:
.LBE6371:
.LBE6388:
.LBB6389:
.LBB6385:
	.loc 8 138 0
	cmpw 7,4,9
	beq- 7,.L300
.LVL394:
.LBB6379:
.LBB6380:
.LBB6381:
.LBB6382:
.LBB6383:
.LBB6384:
	.loc 9 364 0
	subf 5,4,9
.LVL395:
	.loc 9 365 0
	srawi. 5,5,2
.LVL396:
	beq+ 0,.L300
	.loc 9 366 0
	slwi 5,5,2
.LVL397:
	bl memmove
.LVL398:
	lwz 9,236(31)
.LVL399:
.L300:
.LBE6384:
.LBE6383:
.LBE6382:
.LBE6381:
.LBE6380:
.LBE6379:
.LBE6385:
.LBE6389:
.LBB6390:
	.loc 4 373 0
	lwz 3,244(31)
.LBE6390:
.LBB6391:
.LBB6386:
	.loc 8 140 0
	addi 9,9,-4
.LBE6386:
.LBE6391:
.LBB6392:
.LBB6393:
.LBB6394:
	.loc 4 373 0
	lwz 10,248(31)
.LBE6394:
.LBB6395:
.LBB6396:
	.loc 7 773 0
	addi 4,3,4
.LBE6396:
.LBE6395:
.LBE6393:
.LBE6392:
.LBB6406:
.LBB6387:
	.loc 8 140 0
	stw 9,236(31)
.LVL400:
.LBE6387:
.LBE6406:
.LBB6407:
.LBB6403:
	.loc 8 138 0
	cmpw 7,4,10
	beq- 7,.L301
.LVL401:
.LBB6397:
.LBB6398:
.LBB6399:
.LBB6400:
.LBB6401:
.LBB6402:
	.loc 9 364 0
	subf 5,4,10
.LVL402:
	.loc 9 365 0
	srawi. 5,5,2
.LVL403:
	beq+ 0,.L301
	.loc 9 366 0
	slwi 5,5,2
.LVL404:
	bl memmove
.LVL405:
	lwz 10,248(31)
.LVL406:
.L301:
.LBE6402:
.LBE6401:
.LBE6400:
.LBE6399:
.LBE6398:
.LBE6397:
.LBE6403:
.LBE6407:
.LBB6408:
	.loc 4 373 0
	lwz 3,268(31)
.LBE6408:
.LBB6409:
.LBB6404:
	.loc 8 140 0
	addi 10,10,-4
.LBE6404:
.LBE6409:
.LBB6410:
.LBB6411:
.LBB6412:
	.loc 4 373 0
	lwz 11,272(31)
.LBE6412:
.LBB6413:
.LBB6414:
	.loc 7 773 0
	addi 4,3,4
.LBE6414:
.LBE6413:
.LBE6411:
.LBE6410:
.LBB6424:
.LBB6405:
	.loc 8 140 0
	stw 10,248(31)
.LVL407:
.LBE6405:
.LBE6424:
.LBB6425:
.LBB6421:
	.loc 8 138 0
	cmpw 7,4,11
	beq- 7,.L302
.LVL408:
.LBB6415:
.LBB6416:
.LBB6417:
.LBB6418:
.LBB6419:
.LBB6420:
	.loc 9 364 0
	subf 5,4,11
.LVL409:
	.loc 9 365 0
	srawi. 5,5,2
.LVL410:
	beq+ 0,.L302
	.loc 9 366 0
	slwi 5,5,2
.LVL411:
	bl memmove
.LVL412:
	lwz 11,272(31)
.LVL413:
.L302:
.LBE6420:
.LBE6419:
.LBE6418:
.LBE6417:
.LBE6416:
.LBE6415:
.LBE6421:
.LBE6425:
.LBB6426:
	.loc 4 373 0
	lwz 3,256(31)
.LBE6426:
.LBB6427:
.LBB6422:
	.loc 8 140 0
	addi 11,11,-4
.LBE6422:
.LBE6427:
.LBB6428:
.LBB6356:
.LBB6347:
	.loc 4 373 0
	lwz 9,260(31)
.LBE6347:
.LBB6348:
.LBB6349:
	.loc 7 773 0
	addi 4,3,4
.LBE6349:
.LBE6348:
.LBE6356:
.LBE6428:
.LBB6429:
.LBB6423:
	.loc 8 140 0
	stw 11,272(31)
.LVL414:
.LBE6423:
.LBE6429:
.LBB6430:
.LBB6357:
	.loc 8 138 0
	cmpw 7,4,9
	beq- 7,.L303
.LVL415:
.LBB6350:
.LBB6351:
.LBB6352:
.LBB6353:
.LBB6354:
.LBB6355:
	.loc 9 364 0
	subf 5,4,9
.LVL416:
	.loc 9 365 0
	srawi. 5,5,2
.LVL417:
	beq+ 0,.L303
	.loc 9 366 0
	slwi 5,5,2
.LVL418:
	bl memmove
.LVL419:
	lwz 9,260(31)
	lwz 3,256(31)
.LVL420:
.L303:
.LBE6355:
.LBE6354:
.LBE6353:
.LBE6352:
.LBE6351:
.LBE6350:
	.loc 8 140 0
	addi 9,9,-4
	stw 9,260(31)
	subf 9,3,9
	srawi. 0,9,2
	bne+ 0,.L384
.LVL421:
.L304:
.LBE6357:
.LBE6430:
.LBE6344:
.LBE6343:
	.loc 4 41 0
	addi 3,31,336
.LEHB5:
	bl _ZN10GuiTriggerD1Ev
.LEHE5:
.LVL422:
.LBB6431:
	.loc 4 373 0 discriminator 1
	lwz 3,268(31)
.LVL423:
.LBB6432:
.LBB6433:
.LBB6434:
.LBB6435:
.LBB6436:
	.loc 5 155 0 discriminator 1
	cmpwi 7,3,0
	beq- 7,.L311
.LVL424:
.LBB6437:
.LBB6438:
	.loc 10 98 0
	bl _ZdlPv
.LVL425:
.L311:
.LBE6438:
.LBE6437:
.LBE6436:
.LBE6435:
.LBE6434:
.LBE6433:
.LBE6432:
.LBE6431:
.LBB6439:
	.loc 4 373 0 discriminator 1
	lwz 3,256(31)
.LVL426:
.LBB6440:
.LBB6441:
.LBB6442:
.LBB6443:
.LBB6444:
	.loc 5 155 0 discriminator 1
	cmpwi 7,3,0
	beq- 7,.L316
.LVL427:
.LBB6445:
.LBB6446:
	.loc 10 98 0
	bl _ZdlPv
.LVL428:
.L316:
.LBE6446:
.LBE6445:
.LBE6444:
.LBE6443:
.LBE6442:
.LBE6441:
.LBE6440:
.LBE6439:
.LBB6447:
	.loc 4 373 0 discriminator 1
	lwz 3,244(31)
.LVL429:
.LBB6448:
.LBB6449:
.LBB6450:
.LBB6451:
.LBB6452:
	.loc 5 155 0 discriminator 1
	cmpwi 7,3,0
	beq- 7,.L321
.LVL430:
.LBB6453:
.LBB6454:
	.loc 10 98 0
	bl _ZdlPv
.LVL431:
.L321:
.LBE6454:
.LBE6453:
.LBE6452:
.LBE6451:
.LBE6450:
.LBE6449:
.LBE6448:
.LBE6447:
.LBB6455:
	.loc 4 373 0 discriminator 1
	lwz 3,232(31)
.LVL432:
.LBB6456:
.LBB6457:
.LBB6458:
.LBB6459:
.LBB6460:
	.loc 5 155 0 discriminator 1
	cmpwi 7,3,0
	beq- 7,.L326
.LVL433:
.LBB6461:
.LBB6462:
	.loc 10 98 0
	bl _ZdlPv
.LVL434:
.L326:
.LBE6462:
.LBE6461:
.LBE6460:
.LBE6459:
.LBE6458:
.LBE6457:
.LBE6456:
.LBE6455:
.LBB6463:
	.loc 4 373 0 discriminator 1
	lwz 3,220(31)
.LVL435:
.LBB6464:
.LBB6465:
.LBB6466:
.LBB6467:
.LBB6468:
	.loc 5 155 0 discriminator 1
	cmpwi 7,3,0
	beq- 7,.L331
.LVL436:
.LBB6469:
.LBB6470:
	.loc 10 98 0
	bl _ZdlPv
.LVL437:
.L331:
.LBE6470:
.LBE6469:
.LBE6468:
.LBE6467:
.LBE6466:
.LBE6465:
.LBE6464:
.LBE6463:
.LBB6471:
.LBB6472:
.LBB6473:
	.loc 1 516 0 discriminator 1
	lis 9,_ZTVN7sigslot9has_slotsINS_15single_threadedEEE+8@ha
.LBE6473:
.LBE6472:
.LBE6471:
	.loc 4 41 0 discriminator 1
	addi 28,31,176
.LVL438:
.LBB6557:
.LBB6554:
.LBB6551:
	.loc 1 516 0 discriminator 1
	la 0,_ZTVN7sigslot9has_slotsINS_15single_threadedEEE+8@l(9)
.LBB6474:
.LBB6475:
.LBB6476:
.LBB6477:
	.loc 1 338 0 discriminator 1
	mr 3,28
.LBE6477:
.LBE6476:
.LBE6475:
.LBE6474:
	.loc 1 516 0 discriminator 1
	stw 0,176(31)
.LVL439:
	addi 30,31,180
.LEHB6:
.LBB6529:
.LBB6527:
.LBB6479:
.LBB6478:
	.loc 1 338 0 discriminator 1
	bl _ZN7sigslot15single_threaded4lockEv
.LEHE6:
.LVL440:
.LBE6478:
.LBE6479:
.LBB6480:
	.loc 4 373 0
	lwz 30,192(31)
.LVL441:
.LBE6480:
.LBB6481:
.LBB6482:
.LBB6483:
	.loc 11 671 0
	addi 29,31,184
.LVL442:
.LBE6483:
.LBE6482:
.LBE6481:
	.loc 1 524 0
	cmpw 7,30,29
	beq- 7,.L332
.LVL443:
.L380:
	.loc 1 526 0
	lwz 3,16(30)
	mr 4,28
	lwz 9,0(3)
	lwz 0,16(9)
	mtctr 0
.LEHB7:
	bctrl
.LEHE7:
.LVL444:
.LBB6484:
.LBB6485:
	.loc 11 269 0
	mr 3,30
	bl _ZSt18_Rb_tree_incrementPKSt18_Rb_tree_node_base
.LBE6485:
.LBE6484:
	.loc 1 524 0
	cmpw 7,29,3
.LBB6487:
.LBB6486:
	.loc 11 269 0
	mr 30,3
.LVL445:
.LBE6486:
.LBE6487:
	.loc 1 524 0
	bne+ 7,.L380
.LVL446:
.L332:
.LBB6488:
.LBB6489:
	.file 12 "d:\\devkitpro\\devkitppc\\bin\\../lib/gcc/powerpc-eabi/4.6.3/../../../../powerpc-eabi/include/c++/4.6.3/bits/stl_set.h"
	.loc 12 562 0
	addi 30,31,180
.LVL447:
.LBB6490:
.LBB6491:
.LBB6492:
.LBB6493:
.LBB6494:
.LBB6495:
.LBB6496:
	.loc 11 809 0
	lwz 4,188(31)
	mr 3,30
	bl _ZNSt8_Rb_treeIPN7sigslot12_signal_baseINS0_15single_threadedEEES4_St9_IdentityIS4_ESt4lessIS4_ESaIS4_EE8_M_eraseEPSt13_Rb_tree_nodeIS4_E
.LVL448:
	.loc 11 811 0
	li 0,0
	.loc 11 810 0
	stw 29,192(31)
.LVL449:
.LBE6496:
.LBE6495:
.LBE6494:
.LBE6493:
.LBE6492:
.LBE6491:
.LBE6490:
.LBE6489:
.LBE6488:
.LBB6513:
.LBB6514:
.LBB6515:
	.loc 1 343 0
	mr 3,28
.LBE6515:
.LBE6514:
.LBE6513:
.LBB6520:
.LBB6511:
.LBB6509:
.LBB6507:
.LBB6505:
.LBB6503:
.LBB6501:
.LBB6499:
.LBB6497:
	.loc 11 811 0
	stw 0,188(31)
.LVL450:
	.loc 11 812 0
	stw 29,196(31)
.LBE6497:
.LBE6499:
.LBE6501:
.LBE6503:
.LBE6505:
.LBE6507:
.LBE6509:
.LBE6511:
.LBE6520:
.LBB6521:
.LBB6518:
.LBB6516:
	.loc 1 343 0
	lwz 9,176(31)
.LBE6516:
.LBE6518:
.LBE6521:
.LBB6522:
.LBB6512:
.LBB6510:
.LBB6508:
.LBB6506:
.LBB6504:
.LBB6502:
.LBB6500:
.LBB6498:
	.loc 11 813 0
	stw 0,200(31)
.LVL451:
.LBE6498:
.LBE6500:
.LBE6502:
.LBE6504:
.LBE6506:
.LBE6508:
.LBE6510:
.LBE6512:
.LBE6522:
.LBB6523:
.LBB6519:
.LBB6517:
	.loc 1 343 0
	lwz 0,12(9)
	mtctr 0
.LEHB8:
	bctrl
.LEHE8:
.LVL452:
.LBE6517:
.LBE6519:
.LBE6523:
.LBE6527:
.LBE6529:
.LBB6530:
.LBB6531:
.LBB6532:
.LBB6533:
.LBB6534:
	.loc 11 639 0
	lwz 4,188(31)
	mr 3,30
	bl _ZNSt8_Rb_treeIPN7sigslot12_signal_baseINS0_15single_threadedEEES4_St9_IdentityIS4_ESt4lessIS4_ESaIS4_EE8_M_eraseEPSt13_Rb_tree_nodeIS4_E
.LBE6534:
.LBE6533:
.LBE6532:
.LBE6531:
.LBE6530:
.LBB6535:
.LBB6536:
.LBB6537:
	.loc 1 105 0
	lis 9,_ZTVN7sigslot15single_threadedE+8@ha
	la 0,_ZTVN7sigslot15single_threadedE+8@l(9)
.LBE6537:
.LBE6536:
.LBE6535:
.LBE6551:
.LBE6554:
.LBE6557:
	.loc 4 41 0
	mr 3,31
.LBB6558:
.LBB6555:
.LBB6552:
.LBB6540:
.LBB6539:
.LBB6538:
	.loc 1 105 0
	stw 0,176(31)
.LEHB9:
.LBE6538:
.LBE6539:
.LBE6540:
.LBE6552:
.LBE6555:
.LBE6558:
	.loc 4 41 0
	bl _ZN8GuiFrameD2Ev
.LEHE9:
.LBE6585:
	.loc 4 67 0
	lwz 0,28(1)
	lwz 28,8(1)
.LVL453:
	mtlr 0
	lwz 29,12(1)
.LVL454:
	lwz 30,16(1)
.LVL455:
	lwz 31,20(1)
.LVL456:
	addi 1,1,24
	.cfi_remember_state
.LCFI74:
	.cfi_def_cfa_offset 0
	.cfi_restore 31
	.cfi_restore 30
	.cfi_restore 29
	.cfi_restore 28
	blr
.LVL457:
.L382:
.LCFI75:
	.cfi_restore_state
	b .L382
.L376:
	mr 29,3
.LBB6586:
	.loc 4 41 0
	addi 3,31,336
	bl _ZN10GuiTriggerD1Ev
.L359:
.LVL458:
.LBB6559:
	.loc 4 373 0
	lwz 3,268(31)
.LVL459:
.LBB6560:
.LBB6561:
.LBB6562:
.LBB6563:
.LBB6564:
	.loc 5 155 0
	cmpwi 7,3,0
	beq- 7,.L364
.LVL460:
.LBB6565:
.LBB6566:
	.loc 10 98 0
	bl _ZdlPv
.LVL461:
.L364:
.LBE6566:
.LBE6565:
.LBE6564:
.LBE6563:
.LBE6562:
.LBE6561:
.LBE6560:
.LBE6559:
.LBB6567:
	.loc 4 373 0
	lwz 3,256(31)
.LVL462:
.LBB6568:
.LBB6569:
.LBB6570:
.LBB6571:
.LBB6572:
	.loc 5 155 0
	cmpwi 7,3,0
	beq- 7,.L369
.LVL463:
.LBB6573:
.LBB6574:
	.loc 10 98 0
	bl _ZdlPv
.LVL464:
.L369:
.LBE6574:
.LBE6573:
.LBE6572:
.LBE6571:
.LBE6570:
.LBE6569:
.LBE6568:
.LBE6567:
.LBB6575:
	.loc 4 373 0
	lwz 3,244(31)
.LVL465:
.LBB6576:
.LBB6577:
.LBB6578:
.LBB6579:
.LBB6580:
	.loc 5 155 0
	cmpwi 7,3,0
	beq- 7,.L374
.LVL466:
.LBB6581:
.LBB6582:
	.loc 10 98 0
	bl _ZdlPv
.LVL467:
.L374:
.LBE6582:
.LBE6581:
.LBE6580:
.LBE6579:
.LBE6578:
.LBE6577:
.LBE6576:
.LBE6575:
	.loc 4 41 0
	addi 3,31,232
	bl _ZNSt6vectorIP7GuiTextSaIS1_EED1Ev
	addi 3,31,220
	bl _ZNSt6vectorIP7GuiTextSaIS1_EED1Ev
	addi 3,31,176
	bl _ZN7sigslot9has_slotsINS_15single_threadedEED2Ev
.LVL468:
.L355:
	mr 3,31
	bl _ZN8GuiFrameD2Ev
	mr 3,29
.LEHB10:
	bl _Unwind_Resume
.LEHE10:
.LVL469:
.L379:
.LBB6583:
.LBB6556:
.LBB6553:
.LBB6541:
.LBB6528:
.LBB6524:
.LBB6525:
.LBB6526:
	.loc 1 343 0
	lwz 9,176(31)
	mr 29,3
.LVL470:
	mr 3,28
	addi 30,31,180
.LVL471:
	lwz 0,12(9)
	mtctr 0
	bctrl
.LVL472:
.L342:
.LBE6526:
.LBE6525:
.LBE6524:
.LBE6528:
.LBE6541:
.LBB6542:
.LBB6543:
.LBB6544:
.LBB6545:
.LBB6546:
.LBB6547:
	.loc 11 639 0
	lwz 4,188(31)
	mr 3,30
	bl _ZNSt8_Rb_treeIPN7sigslot12_signal_baseINS0_15single_threadedEEES4_St9_IdentityIS4_ESt4lessIS4_ESaIS4_EE8_M_eraseEPSt13_Rb_tree_nodeIS4_E
.LBE6547:
.LBE6546:
.LBE6545:
.LBE6544:
.LBE6543:
.LBE6542:
.LBB6548:
.LBB6549:
.LBB6550:
	.loc 1 105 0
	lis 9,_ZTVN7sigslot15single_threadedE+8@ha
	la 0,_ZTVN7sigslot15single_threadedE+8@l(9)
	stw 0,176(31)
	b .L355
.LVL473:
.L378:
	mr 29,3
	b .L342
.LVL474:
.L377:
	mr 29,3
	b .L359
.LBE6550:
.LBE6549:
.LBE6548:
.LBE6553:
.LBE6556:
.LBE6583:
.LBE6586:
	.cfi_endproc
.LFE1616:
	.section	.gcc_except_table
.LLSDA1616:
	.byte	0xff
	.byte	0xff
	.byte	0x1
	.uleb128 .LLSDACSE1616-.LLSDACSB1616
.LLSDACSB1616:
	.uleb128 .LEHB4-.LFB1616
	.uleb128 .LEHE4-.LEHB4
	.uleb128 .L376-.LFB1616
	.uleb128 0
	.uleb128 .LEHB5-.LFB1616
	.uleb128 .LEHE5-.LEHB5
	.uleb128 .L377-.LFB1616
	.uleb128 0
	.uleb128 .LEHB6-.LFB1616
	.uleb128 .LEHE6-.LEHB6
	.uleb128 .L378-.LFB1616
	.uleb128 0
	.uleb128 .LEHB7-.LFB1616
	.uleb128 .LEHE7-.LEHB7
	.uleb128 .L379-.LFB1616
	.uleb128 0
	.uleb128 .LEHB8-.LFB1616
	.uleb128 .LEHE8-.LEHB8
	.uleb128 .L378-.LFB1616
	.uleb128 0
	.uleb128 .LEHB9-.LFB1616
	.uleb128 .LEHE9-.LEHB9
	.uleb128 0
	.uleb128 0
	.uleb128 .LEHB10-.LFB1616
	.uleb128 .LEHE10-.LEHB10
	.uleb128 0
	.uleb128 0
.LLSDACSE1616:
	.section	".text"
	.size	_ZN22LanguagesSelectBrowserD2Ev, .-_ZN22LanguagesSelectBrowserD2Ev
	.align 2
	.globl _ZThn176_N22LanguagesSelectBrowserD0Ev
	.type	_ZThn176_N22LanguagesSelectBrowserD0Ev, @function
_ZThn176_N22LanguagesSelectBrowserD0Ev:
.LFB2785:
	.cfi_startproc
	addi 3,3,-176
	b .LTHUNK1
	.cfi_endproc
.LFE2785:
	.size	_ZThn176_N22LanguagesSelectBrowserD0Ev, .-_ZThn176_N22LanguagesSelectBrowserD0Ev
	.align 2
	.globl _ZN22LanguagesSelectBrowserD0Ev
	.type	_ZN22LanguagesSelectBrowserD0Ev, @function
_ZN22LanguagesSelectBrowserD0Ev:
.LFB1618:
	.loc 4 41 0
	.cfi_startproc
.LVL475:
	stwu 1,-16(1)
.LCFI76:
	.cfi_def_cfa_offset 16
	mflr 0
	stw 31,12(1)
	mr 31,3
	.cfi_offset 31, -4
	.cfi_register 65, 0
	stw 0,20(1)
	.loc 4 67 0
	.cfi_offset 65, 4
	bl _ZN22LanguagesSelectBrowserD1Ev
.LVL476:
	mr 3,31
	bl _ZdlPv
	lwz 0,20(1)
	lwz 31,12(1)
.LVL477:
	mtlr 0
	addi 1,1,16
.LCFI77:
	.cfi_def_cfa_offset 0
	.cfi_restore 31
	blr
	.cfi_endproc
.LFE1618:
	.size	_ZN22LanguagesSelectBrowserD0Ev, .-_ZN22LanguagesSelectBrowserD0Ev
	.section	.text._ZN7sigslot9has_slotsINS_15single_threadedEED0Ev,"axG",@progbits,_ZN7sigslot9has_slotsINS_15single_threadedEED5Ev,comdat
	.align 2
	.weak	_ZN7sigslot9has_slotsINS_15single_threadedEED0Ev
	.type	_ZN7sigslot9has_slotsINS_15single_threadedEED0Ev, @function
_ZN7sigslot9has_slotsINS_15single_threadedEED0Ev:
.LFB1687:
	.loc 1 513 0
	.cfi_startproc
	.cfi_personality 0,__gxx_personality_v0
	.cfi_lsda 0,.LLSDA1687
.LVL478:
	mflr 0
	stwu 1,-32(1)
.LCFI78:
	.cfi_def_cfa_offset 32
	.cfi_register 65, 0
.LBB6680:
.LBB6681:
.LBB6682:
	.loc 1 516 0
	lis 9,_ZTVN7sigslot9has_slotsINS_15single_threadedEEE+8@ha
.LBE6682:
.LBE6681:
.LBE6680:
	.loc 1 513 0
	stw 28,16(1)
	addi 28,3,4
	.cfi_offset 28, -16
	stw 0,36(1)
.LBB6766:
.LBB6762:
.LBB6758:
	.loc 1 516 0
	la 0,_ZTVN7sigslot9has_slotsINS_15single_threadedEEE+8@l(9)
	.cfi_offset 65, 4
.LBE6758:
.LBE6762:
.LBE6766:
	.loc 1 513 0
	stw 29,20(1)
	mr 29,3
	.cfi_offset 29, -12
.LVL479:
	stw 26,8(1)
	stw 27,12(1)
	stw 30,24(1)
	stw 31,28(1)
.LBB6767:
.LBB6763:
.LBB6759:
	.loc 1 516 0
	stw 0,0(3)
.LVL480:
.LEHB11:
.LBB6683:
.LBB6684:
.LBB6685:
.LBB6686:
	.loc 1 338 0
	.cfi_offset 31, -4
	.cfi_offset 30, -8
	.cfi_offset 27, -20
	.cfi_offset 26, -24
	bl _ZN7sigslot15single_threaded4lockEv
.LEHE11:
.LVL481:
.LBE6686:
.LBE6685:
.LBB6687:
	.loc 4 373 0
	lwz 31,16(29)
.LVL482:
.LBE6687:
.LBB6688:
.LBB6689:
.LBB6690:
	.loc 11 671 0
	addi 30,28,4
.LVL483:
.LBE6690:
.LBE6689:
.LBE6688:
	.loc 1 524 0
	cmpw 7,31,30
	beq- 7,.L388
.LVL484:
.L416:
	.loc 1 526 0
	lwz 3,16(31)
	mr 4,29
	lwz 9,0(3)
	lwz 0,16(9)
	mtctr 0
.LEHB12:
	bctrl
.LEHE12:
.LVL485:
.LBB6691:
.LBB6692:
	.loc 11 269 0
	mr 3,31
	bl _ZSt18_Rb_tree_incrementPKSt18_Rb_tree_node_base
.LBE6692:
.LBE6691:
	.loc 1 524 0
	cmpw 7,30,3
.LBB6694:
.LBB6693:
	.loc 11 269 0
	mr 31,3
.LVL486:
.LBE6693:
.LBE6694:
	.loc 1 524 0
	bne+ 7,.L416
	lwz 31,16(29)
.LVL487:
.L388:
.LBB6695:
.LBB6696:
.LBB6697:
.LBB6698:
.LBB6699:
.LBB6700:
.LBB6701:
	.loc 11 665 0
	addi 26,28,4
.LBE6701:
.LBE6700:
	.loc 11 1500 0
	cmpw 7,30,26
	beq- 7,.L390
.LVL488:
	.loc 11 1503 0
	cmpw 7,30,31
	bne+ 7,.L418
	b .L391
.LVL489:
.L413:
	.loc 11 277 0
	mr 31,27
.LVL490:
.L418:
.LBB6702:
.LBB6703:
	mr 3,31
	bl _ZSt18_Rb_tree_incrementPKSt18_Rb_tree_node_base
.LBE6703:
.LBE6702:
.LBB6705:
.LBB6706:
.LBB6707:
	.loc 11 1489 0
	mr 4,26
.LBE6707:
.LBE6706:
.LBE6705:
.LBB6716:
.LBB6704:
	.loc 11 277 0
	mr 27,3
.LVL491:
.LBE6704:
.LBE6716:
.LBB6717:
.LBB6714:
.LBB6712:
	.loc 11 1489 0
	mr 3,31
.LVL492:
	bl _ZSt28_Rb_tree_rebalance_for_erasePSt18_Rb_tree_node_baseRS_
.LBB6708:
.LBB6709:
.LBB6710:
.LBB6711:
	.loc 10 98 0
	bl _ZdlPv
.LBE6711:
.LBE6710:
.LBE6709:
.LBE6708:
.LBE6712:
.LBE6714:
.LBE6717:
	.loc 11 1503 0
	cmpw 7,30,27
.LBB6718:
.LBB6715:
.LBB6713:
	.loc 11 1491 0
	lwz 9,20(28)
	addi 0,9,-1
	stw 0,20(28)
.LBE6713:
.LBE6715:
.LBE6718:
	.loc 11 1503 0
	bne+ 7,.L413
.LVL493:
.L391:
.LBE6699:
.LBE6698:
.LBE6697:
.LBE6696:
.LBE6695:
.LBB6727:
.LBB6728:
.LBB6729:
	.loc 1 343 0
	lwz 9,0(29)
	mr 3,29
	lwz 0,12(9)
	mtctr 0
.LEHB13:
	bctrl
.LEHE13:
.LVL494:
.LBE6729:
.LBE6728:
.LBE6727:
.LBE6684:
.LBE6683:
.LBB6736:
.LBB6737:
.LBB6738:
.LBB6739:
.LBB6740:
	.loc 11 639 0
	lwz 4,12(29)
	mr 3,28
	bl _ZNSt8_Rb_treeIPN7sigslot12_signal_baseINS0_15single_threadedEEES4_St9_IdentityIS4_ESt4lessIS4_ESaIS4_EE8_M_eraseEPSt13_Rb_tree_nodeIS4_E
.LVL495:
.LBE6740:
.LBE6739:
.LBE6738:
.LBE6737:
.LBE6736:
.LBB6741:
.LBB6742:
.LBB6743:
	.loc 1 105 0
	lis 9,_ZTVN7sigslot15single_threadedE+8@ha
	la 0,_ZTVN7sigslot15single_threadedE+8@l(9)
.LBE6743:
.LBE6742:
.LBE6741:
.LBE6759:
.LBE6763:
.LBE6767:
	.loc 1 516 0
	mr 3,29
.LBB6768:
.LBB6764:
.LBB6760:
.LBB6746:
.LBB6745:
.LBB6744:
	.loc 1 105 0
	stw 0,0(29)
.LBE6744:
.LBE6745:
.LBE6746:
.LBE6760:
.LBE6764:
.LBE6768:
	.loc 1 516 0
	bl _ZdlPv
	lwz 0,36(1)
	lwz 26,8(1)
	mtlr 0
	lwz 27,12(1)
	lwz 28,16(1)
.LVL496:
	lwz 29,20(1)
.LVL497:
	lwz 30,24(1)
.LVL498:
	lwz 31,28(1)
	addi 1,1,32
	.cfi_remember_state
.LCFI79:
	.cfi_def_cfa_offset 0
	.cfi_restore 31
	.cfi_restore 30
	.cfi_restore 29
	.cfi_restore 28
	.cfi_restore 27
	.cfi_restore 26
	blr
.LVL499:
.L390:
.LCFI80:
	.cfi_restore_state
.LBB6769:
.LBB6765:
.LBB6761:
.LBB6747:
.LBB6734:
.LBB6730:
.LBB6726:
.LBB6725:
.LBB6724:
.LBB6723:
.LBB6719:
.LBB6720:
.LBB6721:
.LBB6722:
	.loc 11 809 0
	lwz 4,12(29)
	mr 3,28
	bl _ZNSt8_Rb_treeIPN7sigslot12_signal_baseINS0_15single_threadedEEES4_St9_IdentityIS4_ESt4lessIS4_ESaIS4_EE8_M_eraseEPSt13_Rb_tree_nodeIS4_E
.LVL500:
	.loc 11 811 0
	li 0,0
	.loc 11 810 0
	stw 30,16(29)
.LVL501:
	.loc 11 811 0
	stw 0,12(29)
.LVL502:
	.loc 11 812 0
	stw 30,20(29)
	.loc 11 813 0
	stw 0,24(29)
	b .L391
.LVL503:
.L414:
	mr 31,3
.L398:
.LVL504:
.LBE6722:
.LBE6721:
.LBE6720:
.LBE6719:
.LBE6723:
.LBE6724:
.LBE6725:
.LBE6726:
.LBE6730:
.LBE6734:
.LBE6747:
.LBB6748:
.LBB6749:
.LBB6750:
.LBB6751:
.LBB6752:
.LBB6753:
	.loc 11 639 0
	lwz 4,12(29)
	mr 3,28
	bl _ZNSt8_Rb_treeIPN7sigslot12_signal_baseINS0_15single_threadedEEES4_St9_IdentityIS4_ESt4lessIS4_ESaIS4_EE8_M_eraseEPSt13_Rb_tree_nodeIS4_E
.LVL505:
.LBE6753:
.LBE6752:
.LBE6751:
.LBE6750:
.LBE6749:
.LBE6748:
.LBB6754:
.LBB6755:
.LBB6756:
	.loc 1 105 0
	lis 9,_ZTVN7sigslot15single_threadedE+8@ha
	la 0,_ZTVN7sigslot15single_threadedE+8@l(9)
	mr 3,31
	stw 0,0(29)
.LEHB14:
	bl _Unwind_Resume
.LEHE14:
.LVL506:
.L415:
.LBE6756:
.LBE6755:
.LBE6754:
.LBB6757:
.LBB6735:
.LBB6731:
.LBB6732:
.LBB6733:
	.loc 1 343 0
	lwz 9,0(29)
	mr 31,3
.LVL507:
	mr 3,29
	lwz 0,12(9)
	mtctr 0
	bctrl
	b .L398
.LBE6733:
.LBE6732:
.LBE6731:
.LBE6735:
.LBE6757:
.LBE6761:
.LBE6765:
.LBE6769:
	.cfi_endproc
.LFE1687:
	.section	.gcc_except_table
.LLSDA1687:
	.byte	0xff
	.byte	0xff
	.byte	0x1
	.uleb128 .LLSDACSE1687-.LLSDACSB1687
.LLSDACSB1687:
	.uleb128 .LEHB11-.LFB1687
	.uleb128 .LEHE11-.LEHB11
	.uleb128 .L414-.LFB1687
	.uleb128 0
	.uleb128 .LEHB12-.LFB1687
	.uleb128 .LEHE12-.LEHB12
	.uleb128 .L415-.LFB1687
	.uleb128 0
	.uleb128 .LEHB13-.LFB1687
	.uleb128 .LEHE13-.LEHB13
	.uleb128 .L414-.LFB1687
	.uleb128 0
	.uleb128 .LEHB14-.LFB1687
	.uleb128 .LEHE14-.LEHB14
	.uleb128 0
	.uleb128 0
.LLSDACSE1687:
	.section	.text._ZN7sigslot9has_slotsINS_15single_threadedEED0Ev,"axG",@progbits,_ZN7sigslot9has_slotsINS_15single_threadedEED5Ev,comdat
	.size	_ZN7sigslot9has_slotsINS_15single_threadedEED0Ev, .-_ZN7sigslot9has_slotsINS_15single_threadedEED0Ev
	.section	.text._ZNSt6vectorIP7GuiTextSaIS1_EE14_M_fill_insertEN9__gnu_cxx17__normal_iteratorIPS1_S3_EEjRKS1_,"axG",@progbits,_ZNSt6vectorIP7GuiTextSaIS1_EE14_M_fill_insertEN9__gnu_cxx17__normal_iteratorIPS1_S3_EEjRKS1_,comdat
	.align 2
	.weak	_ZNSt6vectorIP7GuiTextSaIS1_EE14_M_fill_insertEN9__gnu_cxx17__normal_iteratorIPS1_S3_EEjRKS1_
	.type	_ZNSt6vectorIP7GuiTextSaIS1_EE14_M_fill_insertEN9__gnu_cxx17__normal_iteratorIPS1_S3_EEjRKS1_, @function
_ZNSt6vectorIP7GuiTextSaIS1_EE14_M_fill_insertEN9__gnu_cxx17__normal_iteratorIPS1_S3_EEjRKS1_:
.LFB2004:
	.loc 8 377 0
	.cfi_startproc
.LVL508:
	stwu 1,-40(1)
.LCFI81:
	.cfi_def_cfa_offset 40
	mflr 0
	stw 30,32(1)
.LBB6880:
	.loc 8 380 0
	mr. 30,5
	.cfi_offset 30, -8
	.cfi_register 65, 0
.LBE6880:
	.loc 8 377 0
	stw 0,44(1)
	stw 29,28(1)
	stw 31,36(1)
	mr 31,3
	.cfi_offset 31, -4
	.cfi_offset 29, -12
	.cfi_offset 65, 4
	stw 26,16(1)
	stw 27,20(1)
	stw 28,24(1)
	.loc 8 377 0
	lwz 29,0(4)
.LBB7177:
	.loc 8 380 0
	beq- 0,.L420
	.cfi_offset 28, -16
	.cfi_offset 27, -20
	.cfi_offset 26, -24
.LBB6881:
	.loc 8 382 0
	lwz 27,4(3)
	lwz 0,8(3)
	subf 0,27,0
	srawi 0,0,2
	cmplw 7,30,0
	bgt- 7,.L422
.LBB6882:
.LBB6883:
.LBB6884:
	.loc 7 892 0
	subf 0,29,27
.LBE6884:
.LBE6883:
	.loc 8 385 0
	lwz 28,0(6)
.LVL509:
.LBB6886:
.LBB6885:
	.loc 7 892 0
	srawi 0,0,2
.LVL510:
.LBE6885:
.LBE6886:
	.loc 8 388 0
	cmplw 7,30,0
	blt- 7,.L450
.LVL511:
.LBB6887:
.LBB6888:
.LBB6889:
.LBB6890:
.LBB6891:
.LBB6892:
.LBB6893:
.LBB6894:
	.loc 9 743 0
	subf. 30,0,30
	.loc 8 382 0
	mr 9,27
	.loc 9 743 0
	beq- 0,.L427
.LBE6894:
.LBE6893:
.LBE6892:
.LBE6891:
.LBE6890:
.LBE6889:
.LBE6888:
.LBE6887:
.LBB6902:
.LBB6903:
.LBB6904:
.LBB6905:
.LBB6906:
.LBB6907:
.LBB6908:
.LBB6909:
.LBB6910:
.LBB6911:
.LBB6912:
	.loc 8 377 0
	mtctr 30
.LBE6912:
.LBE6911:
.LBE6910:
.LBE6909:
.LBE6908:
.LBE6907:
.LBE6906:
.LBE6905:
.LBE6904:
.LBE6903:
.LBE6902:
.LBB6923:
.LBB6901:
.LBB6900:
.LBB6899:
.LBB6898:
.LBB6897:
.LBB6896:
.LBB6895:
	addi 9,27,-4
.LVL512:
.L428:
	.loc 9 745 0
	stwu 28,4(9)
	.loc 9 743 0
	bdnz .L428
	lwz 9,4(31)
.L427:
.LBE6895:
.LBE6896:
.LBE6897:
.LBE6898:
.LBE6899:
.LBE6900:
.LBE6901:
.LBE6923:
.LBB6924:
.LBB6925:
.LBB6926:
.LBB6927:
.LBB6928:
.LBB6929:
.LBB6930:
.LBB6931:
.LBB6932:
.LBB6933:
.LBB6934:
	.loc 9 365 0
	cmpwi 7,0,0
.LBE6934:
.LBE6933:
.LBE6932:
.LBE6931:
.LBE6930:
.LBE6929:
.LBE6928:
.LBE6927:
.LBE6926:
.LBE6925:
.LBE6924:
	.loc 8 406 0
	slwi 30,30,2
	add 3,9,30
.LVL513:
	stw 3,4(31)
.LVL514:
.LBB6955:
.LBB6953:
.LBB6951:
.LBB6949:
.LBB6947:
.LBB6945:
.LBB6943:
.LBB6941:
.LBB6939:
.LBB6937:
.LBB6935:
	.loc 9 365 0
	bne- 7,.L429
	li 30,0
.LVL515:
.L430:
.LBE6935:
.LBE6937:
.LBE6939:
.LBE6941:
.LBE6943:
.LBE6945:
.LBE6947:
.LBE6949:
.LBE6951:
.LBE6953:
.LBE6955:
.LBB6956:
.LBB6957:
.LBB6958:
	.loc 9 686 0
	cmpw 7,27,29
.LBE6958:
.LBE6957:
.LBE6956:
	.loc 8 410 0
	add 3,3,30
	stw 3,4(31)
.LVL516:
.LBB6961:
.LBB6960:
.LBB6959:
	.loc 9 686 0
	beq- 7,.L420
.LVL517:
.L431:
	.loc 9 687 0
	stw 28,0(29)
	addi 29,29,4
	.loc 9 686 0
	cmpw 7,27,29
	bne+ 7,.L431
.LVL518:
.L420:
.LBE6959:
.LBE6960:
.LBE6961:
.LBE6882:
.LBE6881:
.LBE7177:
	.loc 8 464 0
	lwz 0,44(1)
	lwz 26,16(1)
	mtlr 0
	lwz 27,20(1)
	lwz 28,24(1)
	lwz 29,28(1)
	lwz 30,32(1)
	lwz 31,36(1)
.LVL519:
	addi 1,1,40
	.cfi_remember_state
.LCFI82:
	.cfi_def_cfa_offset 0
	.cfi_restore 31
	.cfi_restore 30
	.cfi_restore 29
	.cfi_restore 28
	.cfi_restore 27
	.cfi_restore 26
	blr
.LVL520:
.L422:
.LCFI83:
	.cfi_restore_state
.LBB7178:
.LBB7173:
.LBB6991:
.LBB6992:
.LBB6993:
.LBB6994:
.LBB6995:
	.loc 5 571 0
	lwz 9,0(3)
.LBE6995:
.LBE6994:
	.loc 5 1241 0
	lis 11,0x3fff
	ori 11,11,65535
.LBB6997:
.LBB6996:
	.loc 5 571 0
	subf 27,9,27
	srawi 0,27,2
.LBE6996:
.LBE6997:
	.loc 5 1241 0
	subf 11,0,11
	cmplw 7,30,11
	bgt- 7,.L451
.LVL521:
	.loc 5 1244 0
	cmplw 7,0,30
	mr 11,0
	blt- 7,.L452
	add 11,11,0
.LVL522:
	.loc 5 1245 0
	cmplw 7,0,11
	ble- 7,.L453
.L434:
.LVL523:
.LBE6993:
.LBE6992:
.LBB7000:
.LBB7001:
	.loc 7 892 0
	subf 27,9,29
.LBE7001:
.LBE7000:
	.loc 8 418 0
	li 26,-4
.LBB7004:
.LBB7002:
	.loc 7 892 0
	srawi 27,27,2
.LVL524:
.L440:
.LBE7002:
.LBE7004:
.LBB7005:
.LBB7006:
.LBB7007:
.LBB7008:
	.loc 10 92 0
	mr 3,26
.LVL525:
	stw 6,8(1)
	bl _Znwj
.LVL526:
	lwz 6,8(1)
	mr 28,3
.L435:
.LVL527:
.LBE7008:
.LBE7007:
.LBE7006:
.LBE7005:
	.loc 8 424 0
	slwi 27,27,2
.LVL528:
.LBB7017:
.LBB7013:
.LBB7011:
.LBB7009:
	.loc 4 373 0
	lwz 0,0(6)
.LVL529:
.LBE7009:
.LBE7011:
.LBE7013:
.LBE7017:
	.loc 8 424 0
	add 27,28,27
.LBB7018:
.LBB7014:
	.loc 8 377 0
	mtctr 30
.LBB7012:
.LBB7010:
	addi 27,27,-4
.LVL530:
.L436:
.LBE7010:
.LBE7012:
.LBE7014:
.LBE7018:
.LBB7019:
.LBB7020:
.LBB7021:
.LBB7022:
.LBB7023:
.LBB7024:
.LBB7025:
.LBB7026:
	.loc 9 745 0
	stwu 0,4(27)
	.loc 9 743 0
	bdnz .L436
.LVL531:
.LBE7026:
.LBE7025:
.LBE7024:
.LBE7023:
.LBE7022:
.LBE7021:
.LBE7020:
.LBE7019:
	.loc 8 429 0
	lwz 4,0(31)
.LVL532:
.LBB7027:
.LBB7028:
.LBB7029:
.LBB7030:
.LBB7031:
.LBB7032:
.LBB7033:
.LBB7034:
.LBB7035:
.LBB7036:
.LBB7037:
	.loc 9 365 0
	li 27,0
	.loc 9 364 0
	subf 0,4,29
.LVL533:
	.loc 9 365 0
	srawi. 0,0,2
.LVL534:
	bne- 0,.L454
.LBE7037:
.LBE7036:
.LBE7035:
.LBE7034:
.LBE7033:
.LBE7032:
.LBE7031:
.LBE7030:
.LBE7029:
.LBE7028:
.LBE7027:
.LBB7078:
.LBB7079:
.LBB7080:
.LBB7081:
.LBB7082:
.LBB7083:
.LBB7084:
.LBB7085:
.LBB7086:
.LBB7087:
.LBB7088:
	.loc 9 364 0
	lwz 0,4(31)
.LVL535:
.LBE7088:
.LBE7087:
.LBE7086:
.LBE7085:
.LBE7084:
.LBE7083:
.LBE7082:
.LBE7081:
.LBE7080:
.LBE7079:
.LBE7078:
.LBB7149:
.LBB7074:
.LBB7070:
.LBB7066:
.LBB7062:
.LBB7058:
.LBB7054:
.LBB7050:
.LBB7046:
.LBB7042:
.LBB7038:
	.loc 9 367 0
	add 27,28,27
.LVL536:
.LBE7038:
.LBE7042:
.LBE7046:
.LBE7050:
.LBE7054:
.LBE7058:
.LBE7062:
.LBE7066:
.LBE7070:
.LBE7074:
.LBE7149:
	.loc 8 434 0
	slwi 30,30,2
.LVL537:
.LBB7150:
.LBB7143:
.LBB7137:
.LBB7131:
.LBB7125:
.LBB7119:
.LBB7113:
.LBB7107:
.LBB7101:
.LBB7095:
.LBB7089:
	.loc 9 364 0
	subf 0,29,0
.LBE7089:
.LBE7095:
.LBE7101:
.LBE7107:
.LBE7113:
.LBE7119:
.LBE7125:
.LBE7131:
.LBE7137:
.LBE7143:
.LBE7150:
	.loc 8 434 0
	add 30,27,30
.LVL538:
.LBB7151:
.LBB7144:
.LBB7138:
.LBB7132:
.LBB7126:
.LBB7120:
.LBB7114:
.LBB7108:
.LBB7102:
.LBB7096:
.LBB7090:
	.loc 9 365 0
	srawi. 0,0,2
.LVL539:
	li 27,0
	bne- 0,.L455
.LVL540:
.L438:
.LBE7090:
.LBE7096:
.LBE7102:
.LBE7108:
.LBE7114:
.LBE7120:
.LBE7126:
.LBE7132:
.LBE7138:
.LBE7144:
.LBE7151:
	.loc 8 456 0
	lwz 3,0(31)
.LBB7152:
.LBB7145:
.LBB7139:
.LBB7133:
.LBB7127:
.LBB7121:
.LBB7115:
.LBB7109:
.LBB7103:
.LBB7097:
.LBB7091:
	.loc 9 367 0
	add 27,30,27
.LVL541:
.LBE7091:
.LBE7097:
.LBE7103:
.LBE7109:
.LBE7115:
.LBE7121:
.LBE7127:
.LBE7133:
.LBE7139:
.LBE7145:
.LBE7152:
.LBB7153:
.LBB7154:
	.loc 5 155 0
	cmpwi 7,3,0
	beq- 7,.L439
.LVL542:
.LBB7155:
.LBB7156:
	.loc 10 98 0
	bl _ZdlPv
.LVL543:
.L439:
.LBE7156:
.LBE7155:
.LBE7154:
.LBE7153:
.LBE6991:
.LBE7173:
.LBE7178:
	.loc 8 464 0
	lwz 0,44(1)
.LBB7179:
.LBB7174:
.LBB7168:
	.loc 8 461 0
	add 26,28,26
	.loc 8 459 0
	stw 28,0(31)
.LBE7168:
.LBE7174:
.LBE7179:
	.loc 8 464 0
	mtlr 0
.LBB7180:
.LBB7175:
.LBB7169:
	.loc 8 460 0
	stw 27,4(31)
	.loc 8 461 0
	stw 26,8(31)
.LBE7169:
.LBE7175:
.LBE7180:
	.loc 8 464 0
	lwz 27,20(1)
	lwz 26,16(1)
	lwz 28,24(1)
.LVL544:
	lwz 29,28(1)
.LVL545:
	lwz 30,32(1)
.LVL546:
	lwz 31,36(1)
.LVL547:
	addi 1,1,40
	.cfi_remember_state
	.cfi_restore 26
	.cfi_restore 27
	.cfi_restore 28
	.cfi_restore 29
	.cfi_restore 30
	.cfi_restore 31
.LCFI84:
	.cfi_def_cfa_offset 0
	blr
.LVL548:
.L452:
.LCFI85:
	.cfi_restore_state
.LBB7181:
.LBB7176:
.LBB7170:
.LBB7157:
.LBB6998:
	.loc 5 1244 0
	mr 11,30
	add 11,11,0
.LVL549:
	.loc 5 1245 0
	cmplw 7,0,11
	bgt- 7,.L434
.L453:
.LVL550:
	lis 0,0x3fff
	ori 0,0,65535
	cmplw 7,11,0
	bgt- 7,.L434
.LVL551:
.LBE6998:
.LBE7157:
.LBB7158:
.LBB7015:
	.loc 5 150 0
	cmpwi 7,11,0
.LBE7015:
.LBE7158:
.LBB7159:
.LBB7003:
	.loc 7 892 0
	subf 9,9,29
	srawi 27,9,2
.LVL552:
.LBE7003:
.LBE7159:
.LBB7160:
.LBB7016:
	.loc 5 150 0
	li 26,0
	li 28,0
	beq+ 7,.L435
	slwi 26,11,2
	b .L440
.LVL553:
.L454:
.LBE7016:
.LBE7160:
.LBB7161:
.LBB7075:
.LBB7071:
.LBB7067:
.LBB7063:
.LBB7059:
.LBB7055:
.LBB7051:
.LBB7047:
.LBB7043:
.LBB7039:
	.loc 9 366 0
	slwi 27,0,2
	mr 3,28
	mr 5,27
.LBE7039:
.LBE7043:
.LBE7047:
.LBE7051:
.LBE7055:
.LBE7059:
.LBE7063:
.LBE7067:
.LBE7071:
.LBE7075:
.LBE7161:
	.loc 8 434 0
	slwi 30,30,2
.LVL554:
.LBB7162:
.LBB7076:
.LBB7072:
.LBB7068:
.LBB7064:
.LBB7060:
.LBB7056:
.LBB7052:
.LBB7048:
.LBB7044:
.LBB7040:
	.loc 9 366 0
	bl memmove
.LVL555:
.LBE7040:
.LBE7044:
.LBE7048:
.LBE7052:
.LBE7056:
.LBE7060:
.LBE7064:
.LBE7068:
.LBE7072:
.LBE7076:
.LBE7162:
.LBB7163:
.LBB7146:
.LBB7140:
.LBB7134:
.LBB7128:
.LBB7122:
.LBB7116:
.LBB7110:
.LBB7104:
.LBB7098:
.LBB7092:
	.loc 9 364 0
	lwz 0,4(31)
.LBE7092:
.LBE7098:
.LBE7104:
.LBE7110:
.LBE7116:
.LBE7122:
.LBE7128:
.LBE7134:
.LBE7140:
.LBE7146:
.LBE7163:
.LBB7164:
.LBB7077:
.LBB7073:
.LBB7069:
.LBB7065:
.LBB7061:
.LBB7057:
.LBB7053:
.LBB7049:
.LBB7045:
.LBB7041:
	.loc 9 367 0
	add 27,28,27
.LVL556:
.LBE7041:
.LBE7045:
.LBE7049:
.LBE7053:
.LBE7057:
.LBE7061:
.LBE7065:
.LBE7069:
.LBE7073:
.LBE7077:
.LBE7164:
.LBB7165:
.LBB7147:
.LBB7141:
.LBB7135:
.LBB7129:
.LBB7123:
.LBB7117:
.LBB7111:
.LBB7105:
.LBB7099:
.LBB7093:
	.loc 9 364 0
	subf 0,29,0
.LBE7093:
.LBE7099:
.LBE7105:
.LBE7111:
.LBE7117:
.LBE7123:
.LBE7129:
.LBE7135:
.LBE7141:
.LBE7147:
.LBE7165:
	.loc 8 434 0
	add 30,27,30
.LVL557:
.LBB7166:
.LBB7148:
.LBB7142:
.LBB7136:
.LBB7130:
.LBB7124:
.LBB7118:
.LBB7112:
.LBB7106:
.LBB7100:
.LBB7094:
	.loc 9 365 0
	srawi. 0,0,2
.LVL558:
	li 27,0
	beq+ 0,.L438
.LVL559:
.L455:
	.loc 9 366 0
	slwi 27,0,2
	mr 3,30
	mr 4,29
	mr 5,27
	bl memmove
	b .L438
.LVL560:
.L429:
.LBE7094:
.LBE7100:
.LBE7106:
.LBE7112:
.LBE7118:
.LBE7124:
.LBE7130:
.LBE7136:
.LBE7142:
.LBE7148:
.LBE7166:
.LBE7170:
.LBB7171:
.LBB6962:
.LBB6954:
.LBB6952:
.LBB6950:
.LBB6948:
.LBB6946:
.LBB6944:
.LBB6942:
.LBB6940:
.LBB6938:
.LBB6936:
	slwi 30,0,2
	mr 4,29
	mr 5,30
.LVL561:
	bl memmove
.LVL562:
	lwz 3,4(31)
	b .L430
.LVL563:
.L450:
.LBE6936:
.LBE6938:
.LBE6940:
.LBE6942:
.LBE6944:
.LBE6946:
.LBE6948:
.LBE6950:
.LBE6952:
.LBE6954:
.LBE6962:
	.loc 8 390 0
	slwi 30,30,2
.LVL564:
.LBB6963:
.LBB6922:
.LBB6921:
.LBB6920:
.LBB6919:
.LBB6918:
.LBB6917:
.LBB6916:
.LBB6915:
.LBB6914:
.LBB6913:
	.loc 8 382 0
	mr 0,27
.LVL565:
	.loc 9 365 0
	srawi. 5,30,2
.LVL566:
	.loc 9 364 0
	subf 26,30,27
	.loc 9 365 0
	beq+ 0,.L424
	.loc 9 366 0
	mr 3,27
	mr 4,26
	slwi 5,5,2
	bl memmove
.LVL567:
	lwz 0,4(31)
.L424:
.LBE6913:
.LBE6914:
.LBE6915:
.LBE6916:
.LBE6917:
.LBE6918:
.LBE6919:
.LBE6920:
.LBE6921:
.LBE6922:
.LBE6963:
.LBB6964:
.LBB6965:
.LBB6966:
.LBB6967:
.LBB6968:
.LBB6969:
	.loc 9 559 0
	subf 26,29,26
.LBE6969:
.LBE6968:
.LBE6967:
.LBE6966:
.LBE6965:
.LBE6964:
	.loc 8 394 0
	add 0,0,30
.LBB6985:
.LBB6982:
.LBB6979:
.LBB6976:
.LBB6973:
.LBB6970:
	.loc 9 560 0
	srawi. 26,26,2
.LBE6970:
.LBE6973:
.LBE6976:
.LBE6979:
.LBE6982:
.LBE6985:
	.loc 8 394 0
	stw 0,4(31)
.LVL568:
.LBB6986:
.LBB6983:
.LBB6980:
.LBB6977:
.LBB6974:
.LBB6971:
	.loc 9 560 0
	bne- 0,.L456
.L425:
.LVL569:
.LBE6971:
.LBE6974:
.LBE6977:
.LBE6980:
.LBE6983:
.LBE6986:
	.loc 8 397 0
	add 30,29,30
.LVL570:
.LBB6987:
.LBB6988:
.LBB6989:
	.loc 9 686 0
	cmpw 7,30,29
	beq- 7,.L420
.LVL571:
.L426:
	.loc 9 687 0
	stw 28,0(29)
	addi 29,29,4
	.loc 9 686 0
	cmpw 7,30,29
	bne+ 7,.L426
	b .L420
.LVL572:
.L456:
.LBE6989:
.LBE6988:
.LBE6987:
.LBB6990:
.LBB6984:
.LBB6981:
.LBB6978:
.LBB6975:
.LBB6972:
	.loc 9 561 0
	slwi 5,26,2
	mr 4,29
	subf 3,5,27
	bl memmove
	b .L425
.LVL573:
.L451:
.LBE6972:
.LBE6975:
.LBE6978:
.LBE6981:
.LBE6984:
.LBE6990:
.LBE7171:
.LBB7172:
.LBB7167:
.LBB6999:
	.loc 5 1242 0
	lis 3,.LC4@ha
	la 3,.LC4@l(3)
	bl _ZSt20__throw_length_errorPKc
.LVL574:
.LVL575:
.LVL576:
.LBE6999:
.LBE7167:
.LBE7172:
.LBE7176:
.LBE7181:
	.cfi_endproc
.LFE2004:
	.size	_ZNSt6vectorIP7GuiTextSaIS1_EE14_M_fill_insertEN9__gnu_cxx17__normal_iteratorIPS1_S3_EEjRKS1_, .-_ZNSt6vectorIP7GuiTextSaIS1_EE14_M_fill_insertEN9__gnu_cxx17__normal_iteratorIPS1_S3_EEjRKS1_
	.section	.text._ZNSt6vectorIP8GuiImageSaIS1_EE14_M_fill_insertEN9__gnu_cxx17__normal_iteratorIPS1_S3_EEjRKS1_,"axG",@progbits,_ZNSt6vectorIP8GuiImageSaIS1_EE14_M_fill_insertEN9__gnu_cxx17__normal_iteratorIPS1_S3_EEjRKS1_,comdat
	.align 2
	.weak	_ZNSt6vectorIP8GuiImageSaIS1_EE14_M_fill_insertEN9__gnu_cxx17__normal_iteratorIPS1_S3_EEjRKS1_
	.type	_ZNSt6vectorIP8GuiImageSaIS1_EE14_M_fill_insertEN9__gnu_cxx17__normal_iteratorIPS1_S3_EEjRKS1_, @function
_ZNSt6vectorIP8GuiImageSaIS1_EE14_M_fill_insertEN9__gnu_cxx17__normal_iteratorIPS1_S3_EEjRKS1_:
.LFB2005:
	.loc 8 377 0
	.cfi_startproc
.LVL577:
	stwu 1,-40(1)
.LCFI86:
	.cfi_def_cfa_offset 40
	mflr 0
	stw 30,32(1)
.LBB7292:
	.loc 8 380 0
	mr. 30,5
	.cfi_offset 30, -8
	.cfi_register 65, 0
.LBE7292:
	.loc 8 377 0
	stw 0,44(1)
	stw 29,28(1)
	stw 31,36(1)
	mr 31,3
	.cfi_offset 31, -4
	.cfi_offset 29, -12
	.cfi_offset 65, 4
	stw 26,16(1)
	stw 27,20(1)
	stw 28,24(1)
	.loc 8 377 0
	lwz 29,0(4)
.LBB7589:
	.loc 8 380 0
	beq- 0,.L457
	.cfi_offset 28, -16
	.cfi_offset 27, -20
	.cfi_offset 26, -24
.LBB7293:
	.loc 8 382 0
	lwz 27,4(3)
	lwz 0,8(3)
	subf 0,27,0
	srawi 0,0,2
	cmplw 7,30,0
	bgt- 7,.L459
.LBB7294:
.LBB7295:
.LBB7296:
	.loc 7 892 0
	subf 0,29,27
.LBE7296:
.LBE7295:
	.loc 8 385 0
	lwz 28,0(6)
.LVL578:
.LBB7298:
.LBB7297:
	.loc 7 892 0
	srawi 0,0,2
.LVL579:
.LBE7297:
.LBE7298:
	.loc 8 388 0
	cmplw 7,30,0
	blt- 7,.L487
.LVL580:
.LBB7299:
.LBB7300:
.LBB7301:
.LBB7302:
.LBB7303:
.LBB7304:
.LBB7305:
.LBB7306:
	.loc 9 743 0
	subf. 30,0,30
	.loc 8 382 0
	mr 9,27
	.loc 9 743 0
	beq- 0,.L464
.LBE7306:
.LBE7305:
.LBE7304:
.LBE7303:
.LBE7302:
.LBE7301:
.LBE7300:
.LBE7299:
.LBB7314:
.LBB7315:
.LBB7316:
.LBB7317:
.LBB7318:
.LBB7319:
.LBB7320:
.LBB7321:
.LBB7322:
.LBB7323:
.LBB7324:
	.loc 8 377 0
	mtctr 30
.LBE7324:
.LBE7323:
.LBE7322:
.LBE7321:
.LBE7320:
.LBE7319:
.LBE7318:
.LBE7317:
.LBE7316:
.LBE7315:
.LBE7314:
.LBB7335:
.LBB7313:
.LBB7312:
.LBB7311:
.LBB7310:
.LBB7309:
.LBB7308:
.LBB7307:
	addi 9,27,-4
.LVL581:
.L465:
	.loc 9 745 0
	stwu 28,4(9)
	.loc 9 743 0
	bdnz .L465
	lwz 9,4(31)
.L464:
.LBE7307:
.LBE7308:
.LBE7309:
.LBE7310:
.LBE7311:
.LBE7312:
.LBE7313:
.LBE7335:
.LBB7336:
.LBB7337:
.LBB7338:
.LBB7339:
.LBB7340:
.LBB7341:
.LBB7342:
.LBB7343:
.LBB7344:
.LBB7345:
.LBB7346:
	.loc 9 365 0
	cmpwi 7,0,0
.LBE7346:
.LBE7345:
.LBE7344:
.LBE7343:
.LBE7342:
.LBE7341:
.LBE7340:
.LBE7339:
.LBE7338:
.LBE7337:
.LBE7336:
	.loc 8 406 0
	slwi 30,30,2
	add 3,9,30
.LVL582:
	stw 3,4(31)
.LVL583:
.LBB7367:
.LBB7365:
.LBB7363:
.LBB7361:
.LBB7359:
.LBB7357:
.LBB7355:
.LBB7353:
.LBB7351:
.LBB7349:
.LBB7347:
	.loc 9 365 0
	bne- 7,.L466
	li 30,0
.LVL584:
.L467:
.LBE7347:
.LBE7349:
.LBE7351:
.LBE7353:
.LBE7355:
.LBE7357:
.LBE7359:
.LBE7361:
.LBE7363:
.LBE7365:
.LBE7367:
.LBB7368:
.LBB7369:
.LBB7370:
	.loc 9 686 0
	cmpw 7,27,29
.LBE7370:
.LBE7369:
.LBE7368:
	.loc 8 410 0
	add 3,3,30
	stw 3,4(31)
.LVL585:
.LBB7373:
.LBB7372:
.LBB7371:
	.loc 9 686 0
	beq- 7,.L457
.LVL586:
.L468:
	.loc 9 687 0
	stw 28,0(29)
	addi 29,29,4
	.loc 9 686 0
	cmpw 7,27,29
	bne+ 7,.L468
.LVL587:
.L457:
.LBE7371:
.LBE7372:
.LBE7373:
.LBE7294:
.LBE7293:
.LBE7589:
	.loc 8 464 0
	lwz 0,44(1)
	lwz 26,16(1)
	mtlr 0
	lwz 27,20(1)
	lwz 28,24(1)
	lwz 29,28(1)
	lwz 30,32(1)
	lwz 31,36(1)
.LVL588:
	addi 1,1,40
	.cfi_remember_state
.LCFI87:
	.cfi_def_cfa_offset 0
	.cfi_restore 31
	.cfi_restore 30
	.cfi_restore 29
	.cfi_restore 28
	.cfi_restore 27
	.cfi_restore 26
	blr
.LVL589:
.L459:
.LCFI88:
	.cfi_restore_state
.LBB7590:
.LBB7585:
.LBB7403:
.LBB7404:
.LBB7405:
.LBB7406:
.LBB7407:
	.loc 5 571 0
	lwz 9,0(3)
.LBE7407:
.LBE7406:
	.loc 5 1241 0
	lis 11,0x3fff
	ori 11,11,65535
.LBB7409:
.LBB7408:
	.loc 5 571 0
	subf 27,9,27
	srawi 0,27,2
.LBE7408:
.LBE7409:
	.loc 5 1241 0
	subf 11,0,11
	cmplw 7,30,11
	bgt- 7,.L488
.LVL590:
	.loc 5 1244 0
	cmplw 7,0,30
	mr 11,0
	blt- 7,.L489
	add 11,11,0
.LVL591:
	.loc 5 1245 0
	cmplw 7,0,11
	ble- 7,.L490
.L471:
.LVL592:
.LBE7405:
.LBE7404:
.LBB7412:
.LBB7413:
	.loc 7 892 0
	subf 27,9,29
.LBE7413:
.LBE7412:
	.loc 8 418 0
	li 26,-4
.LBB7416:
.LBB7414:
	.loc 7 892 0
	srawi 27,27,2
.LVL593:
.L477:
.LBE7414:
.LBE7416:
.LBB7417:
.LBB7418:
.LBB7419:
.LBB7420:
	.loc 10 92 0
	mr 3,26
.LVL594:
	stw 6,8(1)
	bl _Znwj
.LVL595:
	lwz 6,8(1)
	mr 28,3
.L472:
.LVL596:
.LBE7420:
.LBE7419:
.LBE7418:
.LBE7417:
	.loc 8 424 0
	slwi 27,27,2
.LVL597:
.LBB7429:
.LBB7425:
.LBB7423:
.LBB7421:
	.loc 4 373 0
	lwz 0,0(6)
.LVL598:
.LBE7421:
.LBE7423:
.LBE7425:
.LBE7429:
	.loc 8 424 0
	add 27,28,27
.LBB7430:
.LBB7426:
	.loc 8 377 0
	mtctr 30
.LBB7424:
.LBB7422:
	addi 27,27,-4
.LVL599:
.L473:
.LBE7422:
.LBE7424:
.LBE7426:
.LBE7430:
.LBB7431:
.LBB7432:
.LBB7433:
.LBB7434:
.LBB7435:
.LBB7436:
.LBB7437:
.LBB7438:
	.loc 9 745 0
	stwu 0,4(27)
	.loc 9 743 0
	bdnz .L473
.LVL600:
.LBE7438:
.LBE7437:
.LBE7436:
.LBE7435:
.LBE7434:
.LBE7433:
.LBE7432:
.LBE7431:
	.loc 8 429 0
	lwz 4,0(31)
.LVL601:
.LBB7439:
.LBB7440:
.LBB7441:
.LBB7442:
.LBB7443:
.LBB7444:
.LBB7445:
.LBB7446:
.LBB7447:
.LBB7448:
.LBB7449:
	.loc 9 365 0
	li 27,0
	.loc 9 364 0
	subf 0,4,29
.LVL602:
	.loc 9 365 0
	srawi. 0,0,2
.LVL603:
	bne- 0,.L491
.LBE7449:
.LBE7448:
.LBE7447:
.LBE7446:
.LBE7445:
.LBE7444:
.LBE7443:
.LBE7442:
.LBE7441:
.LBE7440:
.LBE7439:
.LBB7490:
.LBB7491:
.LBB7492:
.LBB7493:
.LBB7494:
.LBB7495:
.LBB7496:
.LBB7497:
.LBB7498:
.LBB7499:
.LBB7500:
	.loc 9 364 0
	lwz 0,4(31)
.LVL604:
.LBE7500:
.LBE7499:
.LBE7498:
.LBE7497:
.LBE7496:
.LBE7495:
.LBE7494:
.LBE7493:
.LBE7492:
.LBE7491:
.LBE7490:
.LBB7561:
.LBB7486:
.LBB7482:
.LBB7478:
.LBB7474:
.LBB7470:
.LBB7466:
.LBB7462:
.LBB7458:
.LBB7454:
.LBB7450:
	.loc 9 367 0
	add 27,28,27
.LVL605:
.LBE7450:
.LBE7454:
.LBE7458:
.LBE7462:
.LBE7466:
.LBE7470:
.LBE7474:
.LBE7478:
.LBE7482:
.LBE7486:
.LBE7561:
	.loc 8 434 0
	slwi 30,30,2
.LVL606:
.LBB7562:
.LBB7555:
.LBB7549:
.LBB7543:
.LBB7537:
.LBB7531:
.LBB7525:
.LBB7519:
.LBB7513:
.LBB7507:
.LBB7501:
	.loc 9 364 0
	subf 0,29,0
.LBE7501:
.LBE7507:
.LBE7513:
.LBE7519:
.LBE7525:
.LBE7531:
.LBE7537:
.LBE7543:
.LBE7549:
.LBE7555:
.LBE7562:
	.loc 8 434 0
	add 30,27,30
.LVL607:
.LBB7563:
.LBB7556:
.LBB7550:
.LBB7544:
.LBB7538:
.LBB7532:
.LBB7526:
.LBB7520:
.LBB7514:
.LBB7508:
.LBB7502:
	.loc 9 365 0
	srawi. 0,0,2
.LVL608:
	li 27,0
	bne- 0,.L492
.LVL609:
.L475:
.LBE7502:
.LBE7508:
.LBE7514:
.LBE7520:
.LBE7526:
.LBE7532:
.LBE7538:
.LBE7544:
.LBE7550:
.LBE7556:
.LBE7563:
	.loc 8 456 0
	lwz 3,0(31)
.LBB7564:
.LBB7557:
.LBB7551:
.LBB7545:
.LBB7539:
.LBB7533:
.LBB7527:
.LBB7521:
.LBB7515:
.LBB7509:
.LBB7503:
	.loc 9 367 0
	add 27,30,27
.LVL610:
.LBE7503:
.LBE7509:
.LBE7515:
.LBE7521:
.LBE7527:
.LBE7533:
.LBE7539:
.LBE7545:
.LBE7551:
.LBE7557:
.LBE7564:
.LBB7565:
.LBB7566:
	.loc 5 155 0
	cmpwi 7,3,0
	beq- 7,.L476
.LVL611:
.LBB7567:
.LBB7568:
	.loc 10 98 0
	bl _ZdlPv
.LVL612:
.L476:
.LBE7568:
.LBE7567:
.LBE7566:
.LBE7565:
.LBE7403:
.LBE7585:
.LBE7590:
	.loc 8 464 0
	lwz 0,44(1)
.LBB7591:
.LBB7586:
.LBB7580:
	.loc 8 461 0
	add 26,28,26
	.loc 8 459 0
	stw 28,0(31)
.LBE7580:
.LBE7586:
.LBE7591:
	.loc 8 464 0
	mtlr 0
.LBB7592:
.LBB7587:
.LBB7581:
	.loc 8 460 0
	stw 27,4(31)
	.loc 8 461 0
	stw 26,8(31)
.LBE7581:
.LBE7587:
.LBE7592:
	.loc 8 464 0
	lwz 27,20(1)
	lwz 26,16(1)
	lwz 28,24(1)
.LVL613:
	lwz 29,28(1)
.LVL614:
	lwz 30,32(1)
.LVL615:
	lwz 31,36(1)
.LVL616:
	addi 1,1,40
	.cfi_remember_state
	.cfi_restore 26
	.cfi_restore 27
	.cfi_restore 28
	.cfi_restore 29
	.cfi_restore 30
	.cfi_restore 31
.LCFI89:
	.cfi_def_cfa_offset 0
	blr
.LVL617:
.L489:
.LCFI90:
	.cfi_restore_state
.LBB7593:
.LBB7588:
.LBB7582:
.LBB7569:
.LBB7410:
	.loc 5 1244 0
	mr 11,30
	add 11,11,0
.LVL618:
	.loc 5 1245 0
	cmplw 7,0,11
	bgt- 7,.L471
.L490:
.LVL619:
	lis 0,0x3fff
	ori 0,0,65535
	cmplw 7,11,0
	bgt- 7,.L471
.LVL620:
.LBE7410:
.LBE7569:
.LBB7570:
.LBB7427:
	.loc 5 150 0
	cmpwi 7,11,0
.LBE7427:
.LBE7570:
.LBB7571:
.LBB7415:
	.loc 7 892 0
	subf 9,9,29
	srawi 27,9,2
.LVL621:
.LBE7415:
.LBE7571:
.LBB7572:
.LBB7428:
	.loc 5 150 0
	li 26,0
	li 28,0
	beq+ 7,.L472
	slwi 26,11,2
	b .L477
.LVL622:
.L491:
.LBE7428:
.LBE7572:
.LBB7573:
.LBB7487:
.LBB7483:
.LBB7479:
.LBB7475:
.LBB7471:
.LBB7467:
.LBB7463:
.LBB7459:
.LBB7455:
.LBB7451:
	.loc 9 366 0
	slwi 27,0,2
	mr 3,28
	mr 5,27
.LBE7451:
.LBE7455:
.LBE7459:
.LBE7463:
.LBE7467:
.LBE7471:
.LBE7475:
.LBE7479:
.LBE7483:
.LBE7487:
.LBE7573:
	.loc 8 434 0
	slwi 30,30,2
.LVL623:
.LBB7574:
.LBB7488:
.LBB7484:
.LBB7480:
.LBB7476:
.LBB7472:
.LBB7468:
.LBB7464:
.LBB7460:
.LBB7456:
.LBB7452:
	.loc 9 366 0
	bl memmove
.LVL624:
.LBE7452:
.LBE7456:
.LBE7460:
.LBE7464:
.LBE7468:
.LBE7472:
.LBE7476:
.LBE7480:
.LBE7484:
.LBE7488:
.LBE7574:
.LBB7575:
.LBB7558:
.LBB7552:
.LBB7546:
.LBB7540:
.LBB7534:
.LBB7528:
.LBB7522:
.LBB7516:
.LBB7510:
.LBB7504:
	.loc 9 364 0
	lwz 0,4(31)
.LBE7504:
.LBE7510:
.LBE7516:
.LBE7522:
.LBE7528:
.LBE7534:
.LBE7540:
.LBE7546:
.LBE7552:
.LBE7558:
.LBE7575:
.LBB7576:
.LBB7489:
.LBB7485:
.LBB7481:
.LBB7477:
.LBB7473:
.LBB7469:
.LBB7465:
.LBB7461:
.LBB7457:
.LBB7453:
	.loc 9 367 0
	add 27,28,27
.LVL625:
.LBE7453:
.LBE7457:
.LBE7461:
.LBE7465:
.LBE7469:
.LBE7473:
.LBE7477:
.LBE7481:
.LBE7485:
.LBE7489:
.LBE7576:
.LBB7577:
.LBB7559:
.LBB7553:
.LBB7547:
.LBB7541:
.LBB7535:
.LBB7529:
.LBB7523:
.LBB7517:
.LBB7511:
.LBB7505:
	.loc 9 364 0
	subf 0,29,0
.LBE7505:
.LBE7511:
.LBE7517:
.LBE7523:
.LBE7529:
.LBE7535:
.LBE7541:
.LBE7547:
.LBE7553:
.LBE7559:
.LBE7577:
	.loc 8 434 0
	add 30,27,30
.LVL626:
.LBB7578:
.LBB7560:
.LBB7554:
.LBB7548:
.LBB7542:
.LBB7536:
.LBB7530:
.LBB7524:
.LBB7518:
.LBB7512:
.LBB7506:
	.loc 9 365 0
	srawi. 0,0,2
.LVL627:
	li 27,0
	beq+ 0,.L475
.LVL628:
.L492:
	.loc 9 366 0
	slwi 27,0,2
	mr 3,30
	mr 4,29
	mr 5,27
	bl memmove
	b .L475
.LVL629:
.L466:
.LBE7506:
.LBE7512:
.LBE7518:
.LBE7524:
.LBE7530:
.LBE7536:
.LBE7542:
.LBE7548:
.LBE7554:
.LBE7560:
.LBE7578:
.LBE7582:
.LBB7583:
.LBB7374:
.LBB7366:
.LBB7364:
.LBB7362:
.LBB7360:
.LBB7358:
.LBB7356:
.LBB7354:
.LBB7352:
.LBB7350:
.LBB7348:
	slwi 30,0,2
	mr 4,29
	mr 5,30
.LVL630:
	bl memmove
.LVL631:
	lwz 3,4(31)
	b .L467
.LVL632:
.L487:
.LBE7348:
.LBE7350:
.LBE7352:
.LBE7354:
.LBE7356:
.LBE7358:
.LBE7360:
.LBE7362:
.LBE7364:
.LBE7366:
.LBE7374:
	.loc 8 390 0
	slwi 30,30,2
.LVL633:
.LBB7375:
.LBB7334:
.LBB7333:
.LBB7332:
.LBB7331:
.LBB7330:
.LBB7329:
.LBB7328:
.LBB7327:
.LBB7326:
.LBB7325:
	.loc 8 382 0
	mr 0,27
.LVL634:
	.loc 9 365 0
	srawi. 5,30,2
.LVL635:
	.loc 9 364 0
	subf 26,30,27
	.loc 9 365 0
	beq+ 0,.L461
	.loc 9 366 0
	mr 3,27
	mr 4,26
	slwi 5,5,2
	bl memmove
.LVL636:
	lwz 0,4(31)
.L461:
.LBE7325:
.LBE7326:
.LBE7327:
.LBE7328:
.LBE7329:
.LBE7330:
.LBE7331:
.LBE7332:
.LBE7333:
.LBE7334:
.LBE7375:
.LBB7376:
.LBB7377:
.LBB7378:
.LBB7379:
.LBB7380:
.LBB7381:
	.loc 9 559 0
	subf 26,29,26
.LBE7381:
.LBE7380:
.LBE7379:
.LBE7378:
.LBE7377:
.LBE7376:
	.loc 8 394 0
	add 0,0,30
.LBB7397:
.LBB7394:
.LBB7391:
.LBB7388:
.LBB7385:
.LBB7382:
	.loc 9 560 0
	srawi. 26,26,2
.LBE7382:
.LBE7385:
.LBE7388:
.LBE7391:
.LBE7394:
.LBE7397:
	.loc 8 394 0
	stw 0,4(31)
.LVL637:
.LBB7398:
.LBB7395:
.LBB7392:
.LBB7389:
.LBB7386:
.LBB7383:
	.loc 9 560 0
	bne- 0,.L493
.L462:
.LVL638:
.LBE7383:
.LBE7386:
.LBE7389:
.LBE7392:
.LBE7395:
.LBE7398:
	.loc 8 397 0
	add 30,29,30
.LVL639:
.LBB7399:
.LBB7400:
.LBB7401:
	.loc 9 686 0
	cmpw 7,30,29
	beq- 7,.L457
.LVL640:
.L463:
	.loc 9 687 0
	stw 28,0(29)
	addi 29,29,4
	.loc 9 686 0
	cmpw 7,30,29
	bne+ 7,.L463
	b .L457
.LVL641:
.L493:
.LBE7401:
.LBE7400:
.LBE7399:
.LBB7402:
.LBB7396:
.LBB7393:
.LBB7390:
.LBB7387:
.LBB7384:
	.loc 9 561 0
	slwi 5,26,2
	mr 4,29
	subf 3,5,27
	bl memmove
	b .L462
.LVL642:
.L488:
.LBE7384:
.LBE7387:
.LBE7390:
.LBE7393:
.LBE7396:
.LBE7402:
.LBE7583:
.LBB7584:
.LBB7579:
.LBB7411:
	.loc 5 1242 0
	lis 3,.LC4@ha
	la 3,.LC4@l(3)
	bl _ZSt20__throw_length_errorPKc
.LVL643:
.LVL644:
.LVL645:
.LBE7411:
.LBE7579:
.LBE7584:
.LBE7588:
.LBE7593:
	.cfi_endproc
.LFE2005:
	.size	_ZNSt6vectorIP8GuiImageSaIS1_EE14_M_fill_insertEN9__gnu_cxx17__normal_iteratorIPS1_S3_EEjRKS1_, .-_ZNSt6vectorIP8GuiImageSaIS1_EE14_M_fill_insertEN9__gnu_cxx17__normal_iteratorIPS1_S3_EEjRKS1_
	.section	.text._ZNSt6vectorIP11GuiCheckboxSaIS1_EE14_M_fill_insertEN9__gnu_cxx17__normal_iteratorIPS1_S3_EEjRKS1_,"axG",@progbits,_ZNSt6vectorIP11GuiCheckboxSaIS1_EE14_M_fill_insertEN9__gnu_cxx17__normal_iteratorIPS1_S3_EEjRKS1_,comdat
	.align 2
	.weak	_ZNSt6vectorIP11GuiCheckboxSaIS1_EE14_M_fill_insertEN9__gnu_cxx17__normal_iteratorIPS1_S3_EEjRKS1_
	.type	_ZNSt6vectorIP11GuiCheckboxSaIS1_EE14_M_fill_insertEN9__gnu_cxx17__normal_iteratorIPS1_S3_EEjRKS1_, @function
_ZNSt6vectorIP11GuiCheckboxSaIS1_EE14_M_fill_insertEN9__gnu_cxx17__normal_iteratorIPS1_S3_EEjRKS1_:
.LFB2006:
	.loc 8 377 0
	.cfi_startproc
.LVL646:
	stwu 1,-40(1)
.LCFI91:
	.cfi_def_cfa_offset 40
	mflr 0
	stw 30,32(1)
.LBB7704:
	.loc 8 380 0
	mr. 30,5
	.cfi_offset 30, -8
	.cfi_register 65, 0
.LBE7704:
	.loc 8 377 0
	stw 0,44(1)
	stw 29,28(1)
	stw 31,36(1)
	mr 31,3
	.cfi_offset 31, -4
	.cfi_offset 29, -12
	.cfi_offset 65, 4
	stw 26,16(1)
	stw 27,20(1)
	stw 28,24(1)
	.loc 8 377 0
	lwz 29,0(4)
.LBB8001:
	.loc 8 380 0
	beq- 0,.L494
	.cfi_offset 28, -16
	.cfi_offset 27, -20
	.cfi_offset 26, -24
.LBB7705:
	.loc 8 382 0
	lwz 27,4(3)
	lwz 0,8(3)
	subf 0,27,0
	srawi 0,0,2
	cmplw 7,30,0
	bgt- 7,.L496
.LBB7706:
.LBB7707:
.LBB7708:
	.loc 7 892 0
	subf 0,29,27
.LBE7708:
.LBE7707:
	.loc 8 385 0
	lwz 28,0(6)
.LVL647:
.LBB7710:
.LBB7709:
	.loc 7 892 0
	srawi 0,0,2
.LVL648:
.LBE7709:
.LBE7710:
	.loc 8 388 0
	cmplw 7,30,0
	blt- 7,.L524
.LVL649:
.LBB7711:
.LBB7712:
.LBB7713:
.LBB7714:
.LBB7715:
.LBB7716:
.LBB7717:
.LBB7718:
	.loc 9 743 0
	subf. 30,0,30
	.loc 8 382 0
	mr 9,27
	.loc 9 743 0
	beq- 0,.L501
.LBE7718:
.LBE7717:
.LBE7716:
.LBE7715:
.LBE7714:
.LBE7713:
.LBE7712:
.LBE7711:
.LBB7726:
.LBB7727:
.LBB7728:
.LBB7729:
.LBB7730:
.LBB7731:
.LBB7732:
.LBB7733:
.LBB7734:
.LBB7735:
.LBB7736:
	.loc 8 377 0
	mtctr 30
.LBE7736:
.LBE7735:
.LBE7734:
.LBE7733:
.LBE7732:
.LBE7731:
.LBE7730:
.LBE7729:
.LBE7728:
.LBE7727:
.LBE7726:
.LBB7747:
.LBB7725:
.LBB7724:
.LBB7723:
.LBB7722:
.LBB7721:
.LBB7720:
.LBB7719:
	addi 9,27,-4
.LVL650:
.L502:
	.loc 9 745 0
	stwu 28,4(9)
	.loc 9 743 0
	bdnz .L502
	lwz 9,4(31)
.L501:
.LBE7719:
.LBE7720:
.LBE7721:
.LBE7722:
.LBE7723:
.LBE7724:
.LBE7725:
.LBE7747:
.LBB7748:
.LBB7749:
.LBB7750:
.LBB7751:
.LBB7752:
.LBB7753:
.LBB7754:
.LBB7755:
.LBB7756:
.LBB7757:
.LBB7758:
	.loc 9 365 0
	cmpwi 7,0,0
.LBE7758:
.LBE7757:
.LBE7756:
.LBE7755:
.LBE7754:
.LBE7753:
.LBE7752:
.LBE7751:
.LBE7750:
.LBE7749:
.LBE7748:
	.loc 8 406 0
	slwi 30,30,2
	add 3,9,30
.LVL651:
	stw 3,4(31)
.LVL652:
.LBB7779:
.LBB7777:
.LBB7775:
.LBB7773:
.LBB7771:
.LBB7769:
.LBB7767:
.LBB7765:
.LBB7763:
.LBB7761:
.LBB7759:
	.loc 9 365 0
	bne- 7,.L503
	li 30,0
.LVL653:
.L504:
.LBE7759:
.LBE7761:
.LBE7763:
.LBE7765:
.LBE7767:
.LBE7769:
.LBE7771:
.LBE7773:
.LBE7775:
.LBE7777:
.LBE7779:
.LBB7780:
.LBB7781:
.LBB7782:
	.loc 9 686 0
	cmpw 7,27,29
.LBE7782:
.LBE7781:
.LBE7780:
	.loc 8 410 0
	add 3,3,30
	stw 3,4(31)
.LVL654:
.LBB7785:
.LBB7784:
.LBB7783:
	.loc 9 686 0
	beq- 7,.L494
.LVL655:
.L505:
	.loc 9 687 0
	stw 28,0(29)
	addi 29,29,4
	.loc 9 686 0
	cmpw 7,27,29
	bne+ 7,.L505
.LVL656:
.L494:
.LBE7783:
.LBE7784:
.LBE7785:
.LBE7706:
.LBE7705:
.LBE8001:
	.loc 8 464 0
	lwz 0,44(1)
	lwz 26,16(1)
	mtlr 0
	lwz 27,20(1)
	lwz 28,24(1)
	lwz 29,28(1)
	lwz 30,32(1)
	lwz 31,36(1)
.LVL657:
	addi 1,1,40
	.cfi_remember_state
.LCFI92:
	.cfi_def_cfa_offset 0
	.cfi_restore 31
	.cfi_restore 30
	.cfi_restore 29
	.cfi_restore 28
	.cfi_restore 27
	.cfi_restore 26
	blr
.LVL658:
.L496:
.LCFI93:
	.cfi_restore_state
.LBB8002:
.LBB7997:
.LBB7815:
.LBB7816:
.LBB7817:
.LBB7818:
.LBB7819:
	.loc 5 571 0
	lwz 9,0(3)
.LBE7819:
.LBE7818:
	.loc 5 1241 0
	lis 11,0x3fff
	ori 11,11,65535
.LBB7821:
.LBB7820:
	.loc 5 571 0
	subf 27,9,27
	srawi 0,27,2
.LBE7820:
.LBE7821:
	.loc 5 1241 0
	subf 11,0,11
	cmplw 7,30,11
	bgt- 7,.L525
.LVL659:
	.loc 5 1244 0
	cmplw 7,0,30
	mr 11,0
	blt- 7,.L526
	add 11,11,0
.LVL660:
	.loc 5 1245 0
	cmplw 7,0,11
	ble- 7,.L527
.L508:
.LVL661:
.LBE7817:
.LBE7816:
.LBB7824:
.LBB7825:
	.loc 7 892 0
	subf 27,9,29
.LBE7825:
.LBE7824:
	.loc 8 418 0
	li 26,-4
.LBB7828:
.LBB7826:
	.loc 7 892 0
	srawi 27,27,2
.LVL662:
.L514:
.LBE7826:
.LBE7828:
.LBB7829:
.LBB7830:
.LBB7831:
.LBB7832:
	.loc 10 92 0
	mr 3,26
.LVL663:
	stw 6,8(1)
	bl _Znwj
.LVL664:
	lwz 6,8(1)
	mr 28,3
.L509:
.LVL665:
.LBE7832:
.LBE7831:
.LBE7830:
.LBE7829:
	.loc 8 424 0
	slwi 27,27,2
.LVL666:
.LBB7841:
.LBB7837:
.LBB7835:
.LBB7833:
	.loc 4 373 0
	lwz 0,0(6)
.LVL667:
.LBE7833:
.LBE7835:
.LBE7837:
.LBE7841:
	.loc 8 424 0
	add 27,28,27
.LBB7842:
.LBB7838:
	.loc 8 377 0
	mtctr 30
.LBB7836:
.LBB7834:
	addi 27,27,-4
.LVL668:
.L510:
.LBE7834:
.LBE7836:
.LBE7838:
.LBE7842:
.LBB7843:
.LBB7844:
.LBB7845:
.LBB7846:
.LBB7847:
.LBB7848:
.LBB7849:
.LBB7850:
	.loc 9 745 0
	stwu 0,4(27)
	.loc 9 743 0
	bdnz .L510
.LVL669:
.LBE7850:
.LBE7849:
.LBE7848:
.LBE7847:
.LBE7846:
.LBE7845:
.LBE7844:
.LBE7843:
	.loc 8 429 0
	lwz 4,0(31)
.LVL670:
.LBB7851:
.LBB7852:
.LBB7853:
.LBB7854:
.LBB7855:
.LBB7856:
.LBB7857:
.LBB7858:
.LBB7859:
.LBB7860:
.LBB7861:
	.loc 9 365 0
	li 27,0
	.loc 9 364 0
	subf 0,4,29
.LVL671:
	.loc 9 365 0
	srawi. 0,0,2
.LVL672:
	bne- 0,.L528
.LBE7861:
.LBE7860:
.LBE7859:
.LBE7858:
.LBE7857:
.LBE7856:
.LBE7855:
.LBE7854:
.LBE7853:
.LBE7852:
.LBE7851:
.LBB7902:
.LBB7903:
.LBB7904:
.LBB7905:
.LBB7906:
.LBB7907:
.LBB7908:
.LBB7909:
.LBB7910:
.LBB7911:
.LBB7912:
	.loc 9 364 0
	lwz 0,4(31)
.LVL673:
.LBE7912:
.LBE7911:
.LBE7910:
.LBE7909:
.LBE7908:
.LBE7907:
.LBE7906:
.LBE7905:
.LBE7904:
.LBE7903:
.LBE7902:
.LBB7973:
.LBB7898:
.LBB7894:
.LBB7890:
.LBB7886:
.LBB7882:
.LBB7878:
.LBB7874:
.LBB7870:
.LBB7866:
.LBB7862:
	.loc 9 367 0
	add 27,28,27
.LVL674:
.LBE7862:
.LBE7866:
.LBE7870:
.LBE7874:
.LBE7878:
.LBE7882:
.LBE7886:
.LBE7890:
.LBE7894:
.LBE7898:
.LBE7973:
	.loc 8 434 0
	slwi 30,30,2
.LVL675:
.LBB7974:
.LBB7967:
.LBB7961:
.LBB7955:
.LBB7949:
.LBB7943:
.LBB7937:
.LBB7931:
.LBB7925:
.LBB7919:
.LBB7913:
	.loc 9 364 0
	subf 0,29,0
.LBE7913:
.LBE7919:
.LBE7925:
.LBE7931:
.LBE7937:
.LBE7943:
.LBE7949:
.LBE7955:
.LBE7961:
.LBE7967:
.LBE7974:
	.loc 8 434 0
	add 30,27,30
.LVL676:
.LBB7975:
.LBB7968:
.LBB7962:
.LBB7956:
.LBB7950:
.LBB7944:
.LBB7938:
.LBB7932:
.LBB7926:
.LBB7920:
.LBB7914:
	.loc 9 365 0
	srawi. 0,0,2
.LVL677:
	li 27,0
	bne- 0,.L529
.LVL678:
.L512:
.LBE7914:
.LBE7920:
.LBE7926:
.LBE7932:
.LBE7938:
.LBE7944:
.LBE7950:
.LBE7956:
.LBE7962:
.LBE7968:
.LBE7975:
	.loc 8 456 0
	lwz 3,0(31)
.LBB7976:
.LBB7969:
.LBB7963:
.LBB7957:
.LBB7951:
.LBB7945:
.LBB7939:
.LBB7933:
.LBB7927:
.LBB7921:
.LBB7915:
	.loc 9 367 0
	add 27,30,27
.LVL679:
.LBE7915:
.LBE7921:
.LBE7927:
.LBE7933:
.LBE7939:
.LBE7945:
.LBE7951:
.LBE7957:
.LBE7963:
.LBE7969:
.LBE7976:
.LBB7977:
.LBB7978:
	.loc 5 155 0
	cmpwi 7,3,0
	beq- 7,.L513
.LVL680:
.LBB7979:
.LBB7980:
	.loc 10 98 0
	bl _ZdlPv
.LVL681:
.L513:
.LBE7980:
.LBE7979:
.LBE7978:
.LBE7977:
.LBE7815:
.LBE7997:
.LBE8002:
	.loc 8 464 0
	lwz 0,44(1)
.LBB8003:
.LBB7998:
.LBB7992:
	.loc 8 461 0
	add 26,28,26
	.loc 8 459 0
	stw 28,0(31)
.LBE7992:
.LBE7998:
.LBE8003:
	.loc 8 464 0
	mtlr 0
.LBB8004:
.LBB7999:
.LBB7993:
	.loc 8 460 0
	stw 27,4(31)
	.loc 8 461 0
	stw 26,8(31)
.LBE7993:
.LBE7999:
.LBE8004:
	.loc 8 464 0
	lwz 27,20(1)
	lwz 26,16(1)
	lwz 28,24(1)
.LVL682:
	lwz 29,28(1)
.LVL683:
	lwz 30,32(1)
.LVL684:
	lwz 31,36(1)
.LVL685:
	addi 1,1,40
	.cfi_remember_state
	.cfi_restore 26
	.cfi_restore 27
	.cfi_restore 28
	.cfi_restore 29
	.cfi_restore 30
	.cfi_restore 31
.LCFI94:
	.cfi_def_cfa_offset 0
	blr
.LVL686:
.L526:
.LCFI95:
	.cfi_restore_state
.LBB8005:
.LBB8000:
.LBB7994:
.LBB7981:
.LBB7822:
	.loc 5 1244 0
	mr 11,30
	add 11,11,0
.LVL687:
	.loc 5 1245 0
	cmplw 7,0,11
	bgt- 7,.L508
.L527:
.LVL688:
	lis 0,0x3fff
	ori 0,0,65535
	cmplw 7,11,0
	bgt- 7,.L508
.LVL689:
.LBE7822:
.LBE7981:
.LBB7982:
.LBB7839:
	.loc 5 150 0
	cmpwi 7,11,0
.LBE7839:
.LBE7982:
.LBB7983:
.LBB7827:
	.loc 7 892 0
	subf 9,9,29
	srawi 27,9,2
.LVL690:
.LBE7827:
.LBE7983:
.LBB7984:
.LBB7840:
	.loc 5 150 0
	li 26,0
	li 28,0
	beq+ 7,.L509
	slwi 26,11,2
	b .L514
.LVL691:
.L528:
.LBE7840:
.LBE7984:
.LBB7985:
.LBB7899:
.LBB7895:
.LBB7891:
.LBB7887:
.LBB7883:
.LBB7879:
.LBB7875:
.LBB7871:
.LBB7867:
.LBB7863:
	.loc 9 366 0
	slwi 27,0,2
	mr 3,28
	mr 5,27
.LBE7863:
.LBE7867:
.LBE7871:
.LBE7875:
.LBE7879:
.LBE7883:
.LBE7887:
.LBE7891:
.LBE7895:
.LBE7899:
.LBE7985:
	.loc 8 434 0
	slwi 30,30,2
.LVL692:
.LBB7986:
.LBB7900:
.LBB7896:
.LBB7892:
.LBB7888:
.LBB7884:
.LBB7880:
.LBB7876:
.LBB7872:
.LBB7868:
.LBB7864:
	.loc 9 366 0
	bl memmove
.LVL693:
.LBE7864:
.LBE7868:
.LBE7872:
.LBE7876:
.LBE7880:
.LBE7884:
.LBE7888:
.LBE7892:
.LBE7896:
.LBE7900:
.LBE7986:
.LBB7987:
.LBB7970:
.LBB7964:
.LBB7958:
.LBB7952:
.LBB7946:
.LBB7940:
.LBB7934:
.LBB7928:
.LBB7922:
.LBB7916:
	.loc 9 364 0
	lwz 0,4(31)
.LBE7916:
.LBE7922:
.LBE7928:
.LBE7934:
.LBE7940:
.LBE7946:
.LBE7952:
.LBE7958:
.LBE7964:
.LBE7970:
.LBE7987:
.LBB7988:
.LBB7901:
.LBB7897:
.LBB7893:
.LBB7889:
.LBB7885:
.LBB7881:
.LBB7877:
.LBB7873:
.LBB7869:
.LBB7865:
	.loc 9 367 0
	add 27,28,27
.LVL694:
.LBE7865:
.LBE7869:
.LBE7873:
.LBE7877:
.LBE7881:
.LBE7885:
.LBE7889:
.LBE7893:
.LBE7897:
.LBE7901:
.LBE7988:
.LBB7989:
.LBB7971:
.LBB7965:
.LBB7959:
.LBB7953:
.LBB7947:
.LBB7941:
.LBB7935:
.LBB7929:
.LBB7923:
.LBB7917:
	.loc 9 364 0
	subf 0,29,0
.LBE7917:
.LBE7923:
.LBE7929:
.LBE7935:
.LBE7941:
.LBE7947:
.LBE7953:
.LBE7959:
.LBE7965:
.LBE7971:
.LBE7989:
	.loc 8 434 0
	add 30,27,30
.LVL695:
.LBB7990:
.LBB7972:
.LBB7966:
.LBB7960:
.LBB7954:
.LBB7948:
.LBB7942:
.LBB7936:
.LBB7930:
.LBB7924:
.LBB7918:
	.loc 9 365 0
	srawi. 0,0,2
.LVL696:
	li 27,0
	beq+ 0,.L512
.LVL697:
.L529:
	.loc 9 366 0
	slwi 27,0,2
	mr 3,30
	mr 4,29
	mr 5,27
	bl memmove
	b .L512
.LVL698:
.L503:
.LBE7918:
.LBE7924:
.LBE7930:
.LBE7936:
.LBE7942:
.LBE7948:
.LBE7954:
.LBE7960:
.LBE7966:
.LBE7972:
.LBE7990:
.LBE7994:
.LBB7995:
.LBB7786:
.LBB7778:
.LBB7776:
.LBB7774:
.LBB7772:
.LBB7770:
.LBB7768:
.LBB7766:
.LBB7764:
.LBB7762:
.LBB7760:
	slwi 30,0,2
	mr 4,29
	mr 5,30
.LVL699:
	bl memmove
.LVL700:
	lwz 3,4(31)
	b .L504
.LVL701:
.L524:
.LBE7760:
.LBE7762:
.LBE7764:
.LBE7766:
.LBE7768:
.LBE7770:
.LBE7772:
.LBE7774:
.LBE7776:
.LBE7778:
.LBE7786:
	.loc 8 390 0
	slwi 30,30,2
.LVL702:
.LBB7787:
.LBB7746:
.LBB7745:
.LBB7744:
.LBB7743:
.LBB7742:
.LBB7741:
.LBB7740:
.LBB7739:
.LBB7738:
.LBB7737:
	.loc 8 382 0
	mr 0,27
.LVL703:
	.loc 9 365 0
	srawi. 5,30,2
.LVL704:
	.loc 9 364 0
	subf 26,30,27
	.loc 9 365 0
	beq+ 0,.L498
	.loc 9 366 0
	mr 3,27
	mr 4,26
	slwi 5,5,2
	bl memmove
.LVL705:
	lwz 0,4(31)
.L498:
.LBE7737:
.LBE7738:
.LBE7739:
.LBE7740:
.LBE7741:
.LBE7742:
.LBE7743:
.LBE7744:
.LBE7745:
.LBE7746:
.LBE7787:
.LBB7788:
.LBB7789:
.LBB7790:
.LBB7791:
.LBB7792:
.LBB7793:
	.loc 9 559 0
	subf 26,29,26
.LBE7793:
.LBE7792:
.LBE7791:
.LBE7790:
.LBE7789:
.LBE7788:
	.loc 8 394 0
	add 0,0,30
.LBB7809:
.LBB7806:
.LBB7803:
.LBB7800:
.LBB7797:
.LBB7794:
	.loc 9 560 0
	srawi. 26,26,2
.LBE7794:
.LBE7797:
.LBE7800:
.LBE7803:
.LBE7806:
.LBE7809:
	.loc 8 394 0
	stw 0,4(31)
.LVL706:
.LBB7810:
.LBB7807:
.LBB7804:
.LBB7801:
.LBB7798:
.LBB7795:
	.loc 9 560 0
	bne- 0,.L530
.L499:
.LVL707:
.LBE7795:
.LBE7798:
.LBE7801:
.LBE7804:
.LBE7807:
.LBE7810:
	.loc 8 397 0
	add 30,29,30
.LVL708:
.LBB7811:
.LBB7812:
.LBB7813:
	.loc 9 686 0
	cmpw 7,30,29
	beq- 7,.L494
.LVL709:
.L500:
	.loc 9 687 0
	stw 28,0(29)
	addi 29,29,4
	.loc 9 686 0
	cmpw 7,30,29
	bne+ 7,.L500
	b .L494
.LVL710:
.L530:
.LBE7813:
.LBE7812:
.LBE7811:
.LBB7814:
.LBB7808:
.LBB7805:
.LBB7802:
.LBB7799:
.LBB7796:
	.loc 9 561 0
	slwi 5,26,2
	mr 4,29
	subf 3,5,27
	bl memmove
	b .L499
.LVL711:
.L525:
.LBE7796:
.LBE7799:
.LBE7802:
.LBE7805:
.LBE7808:
.LBE7814:
.LBE7995:
.LBB7996:
.LBB7991:
.LBB7823:
	.loc 5 1242 0
	lis 3,.LC4@ha
	la 3,.LC4@l(3)
	bl _ZSt20__throw_length_errorPKc
.LVL712:
.LVL713:
.LVL714:
.LBE7823:
.LBE7991:
.LBE7996:
.LBE8000:
.LBE8005:
	.cfi_endproc
.LFE2006:
	.size	_ZNSt6vectorIP11GuiCheckboxSaIS1_EE14_M_fill_insertEN9__gnu_cxx17__normal_iteratorIPS1_S3_EEjRKS1_, .-_ZNSt6vectorIP11GuiCheckboxSaIS1_EE14_M_fill_insertEN9__gnu_cxx17__normal_iteratorIPS1_S3_EEjRKS1_
	.section	.text._ZNSt6vectorIP9GuiButtonSaIS1_EE14_M_fill_insertEN9__gnu_cxx17__normal_iteratorIPS1_S3_EEjRKS1_,"axG",@progbits,_ZNSt6vectorIP9GuiButtonSaIS1_EE14_M_fill_insertEN9__gnu_cxx17__normal_iteratorIPS1_S3_EEjRKS1_,comdat
	.align 2
	.weak	_ZNSt6vectorIP9GuiButtonSaIS1_EE14_M_fill_insertEN9__gnu_cxx17__normal_iteratorIPS1_S3_EEjRKS1_
	.type	_ZNSt6vectorIP9GuiButtonSaIS1_EE14_M_fill_insertEN9__gnu_cxx17__normal_iteratorIPS1_S3_EEjRKS1_, @function
_ZNSt6vectorIP9GuiButtonSaIS1_EE14_M_fill_insertEN9__gnu_cxx17__normal_iteratorIPS1_S3_EEjRKS1_:
.LFB2007:
	.loc 8 377 0
	.cfi_startproc
.LVL715:
	stwu 1,-40(1)
.LCFI96:
	.cfi_def_cfa_offset 40
	mflr 0
	stw 30,32(1)
.LBB8116:
	.loc 8 380 0
	mr. 30,5
	.cfi_offset 30, -8
	.cfi_register 65, 0
.LBE8116:
	.loc 8 377 0
	stw 0,44(1)
	stw 29,28(1)
	stw 31,36(1)
	mr 31,3
	.cfi_offset 31, -4
	.cfi_offset 29, -12
	.cfi_offset 65, 4
	stw 26,16(1)
	stw 27,20(1)
	stw 28,24(1)
	.loc 8 377 0
	lwz 29,0(4)
.LBB8413:
	.loc 8 380 0
	beq- 0,.L531
	.cfi_offset 28, -16
	.cfi_offset 27, -20
	.cfi_offset 26, -24
.LBB8117:
	.loc 8 382 0
	lwz 27,4(3)
	lwz 0,8(3)
	subf 0,27,0
	srawi 0,0,2
	cmplw 7,30,0
	bgt- 7,.L533
.LBB8118:
.LBB8119:
.LBB8120:
	.loc 7 892 0
	subf 0,29,27
.LBE8120:
.LBE8119:
	.loc 8 385 0
	lwz 28,0(6)
.LVL716:
.LBB8122:
.LBB8121:
	.loc 7 892 0
	srawi 0,0,2
.LVL717:
.LBE8121:
.LBE8122:
	.loc 8 388 0
	cmplw 7,30,0
	blt- 7,.L561
.LVL718:
.LBB8123:
.LBB8124:
.LBB8125:
.LBB8126:
.LBB8127:
.LBB8128:
.LBB8129:
.LBB8130:
	.loc 9 743 0
	subf. 30,0,30
	.loc 8 382 0
	mr 9,27
	.loc 9 743 0
	beq- 0,.L538
.LBE8130:
.LBE8129:
.LBE8128:
.LBE8127:
.LBE8126:
.LBE8125:
.LBE8124:
.LBE8123:
.LBB8138:
.LBB8139:
.LBB8140:
.LBB8141:
.LBB8142:
.LBB8143:
.LBB8144:
.LBB8145:
.LBB8146:
.LBB8147:
.LBB8148:
	.loc 8 377 0
	mtctr 30
.LBE8148:
.LBE8147:
.LBE8146:
.LBE8145:
.LBE8144:
.LBE8143:
.LBE8142:
.LBE8141:
.LBE8140:
.LBE8139:
.LBE8138:
.LBB8159:
.LBB8137:
.LBB8136:
.LBB8135:
.LBB8134:
.LBB8133:
.LBB8132:
.LBB8131:
	addi 9,27,-4
.LVL719:
.L539:
	.loc 9 745 0
	stwu 28,4(9)
	.loc 9 743 0
	bdnz .L539
	lwz 9,4(31)
.L538:
.LBE8131:
.LBE8132:
.LBE8133:
.LBE8134:
.LBE8135:
.LBE8136:
.LBE8137:
.LBE8159:
.LBB8160:
.LBB8161:
.LBB8162:
.LBB8163:
.LBB8164:
.LBB8165:
.LBB8166:
.LBB8167:
.LBB8168:
.LBB8169:
.LBB8170:
	.loc 9 365 0
	cmpwi 7,0,0
.LBE8170:
.LBE8169:
.LBE8168:
.LBE8167:
.LBE8166:
.LBE8165:
.LBE8164:
.LBE8163:
.LBE8162:
.LBE8161:
.LBE8160:
	.loc 8 406 0
	slwi 30,30,2
	add 3,9,30
.LVL720:
	stw 3,4(31)
.LVL721:
.LBB8191:
.LBB8189:
.LBB8187:
.LBB8185:
.LBB8183:
.LBB8181:
.LBB8179:
.LBB8177:
.LBB8175:
.LBB8173:
.LBB8171:
	.loc 9 365 0
	bne- 7,.L540
	li 30,0
.LVL722:
.L541:
.LBE8171:
.LBE8173:
.LBE8175:
.LBE8177:
.LBE8179:
.LBE8181:
.LBE8183:
.LBE8185:
.LBE8187:
.LBE8189:
.LBE8191:
.LBB8192:
.LBB8193:
.LBB8194:
	.loc 9 686 0
	cmpw 7,27,29
.LBE8194:
.LBE8193:
.LBE8192:
	.loc 8 410 0
	add 3,3,30
	stw 3,4(31)
.LVL723:
.LBB8197:
.LBB8196:
.LBB8195:
	.loc 9 686 0
	beq- 7,.L531
.LVL724:
.L542:
	.loc 9 687 0
	stw 28,0(29)
	addi 29,29,4
	.loc 9 686 0
	cmpw 7,27,29
	bne+ 7,.L542
.LVL725:
.L531:
.LBE8195:
.LBE8196:
.LBE8197:
.LBE8118:
.LBE8117:
.LBE8413:
	.loc 8 464 0
	lwz 0,44(1)
	lwz 26,16(1)
	mtlr 0
	lwz 27,20(1)
	lwz 28,24(1)
	lwz 29,28(1)
	lwz 30,32(1)
	lwz 31,36(1)
.LVL726:
	addi 1,1,40
	.cfi_remember_state
.LCFI97:
	.cfi_def_cfa_offset 0
	.cfi_restore 31
	.cfi_restore 30
	.cfi_restore 29
	.cfi_restore 28
	.cfi_restore 27
	.cfi_restore 26
	blr
.LVL727:
.L533:
.LCFI98:
	.cfi_restore_state
.LBB8414:
.LBB8409:
.LBB8227:
.LBB8228:
.LBB8229:
.LBB8230:
.LBB8231:
	.loc 5 571 0
	lwz 9,0(3)
.LBE8231:
.LBE8230:
	.loc 5 1241 0
	lis 11,0x3fff
	ori 11,11,65535
.LBB8233:
.LBB8232:
	.loc 5 571 0
	subf 27,9,27
	srawi 0,27,2
.LBE8232:
.LBE8233:
	.loc 5 1241 0
	subf 11,0,11
	cmplw 7,30,11
	bgt- 7,.L562
.LVL728:
	.loc 5 1244 0
	cmplw 7,0,30
	mr 11,0
	blt- 7,.L563
	add 11,11,0
.LVL729:
	.loc 5 1245 0
	cmplw 7,0,11
	ble- 7,.L564
.L545:
.LVL730:
.LBE8229:
.LBE8228:
.LBB8236:
.LBB8237:
	.loc 7 892 0
	subf 27,9,29
.LBE8237:
.LBE8236:
	.loc 8 418 0
	li 26,-4
.LBB8240:
.LBB8238:
	.loc 7 892 0
	srawi 27,27,2
.LVL731:
.L551:
.LBE8238:
.LBE8240:
.LBB8241:
.LBB8242:
.LBB8243:
.LBB8244:
	.loc 10 92 0
	mr 3,26
.LVL732:
	stw 6,8(1)
	bl _Znwj
.LVL733:
	lwz 6,8(1)
	mr 28,3
.L546:
.LVL734:
.LBE8244:
.LBE8243:
.LBE8242:
.LBE8241:
	.loc 8 424 0
	slwi 27,27,2
.LVL735:
.LBB8253:
.LBB8249:
.LBB8247:
.LBB8245:
	.loc 4 373 0
	lwz 0,0(6)
.LVL736:
.LBE8245:
.LBE8247:
.LBE8249:
.LBE8253:
	.loc 8 424 0
	add 27,28,27
.LBB8254:
.LBB8250:
	.loc 8 377 0
	mtctr 30
.LBB8248:
.LBB8246:
	addi 27,27,-4
.LVL737:
.L547:
.LBE8246:
.LBE8248:
.LBE8250:
.LBE8254:
.LBB8255:
.LBB8256:
.LBB8257:
.LBB8258:
.LBB8259:
.LBB8260:
.LBB8261:
.LBB8262:
	.loc 9 745 0
	stwu 0,4(27)
	.loc 9 743 0
	bdnz .L547
.LVL738:
.LBE8262:
.LBE8261:
.LBE8260:
.LBE8259:
.LBE8258:
.LBE8257:
.LBE8256:
.LBE8255:
	.loc 8 429 0
	lwz 4,0(31)
.LVL739:
.LBB8263:
.LBB8264:
.LBB8265:
.LBB8266:
.LBB8267:
.LBB8268:
.LBB8269:
.LBB8270:
.LBB8271:
.LBB8272:
.LBB8273:
	.loc 9 365 0
	li 27,0
	.loc 9 364 0
	subf 0,4,29
.LVL740:
	.loc 9 365 0
	srawi. 0,0,2
.LVL741:
	bne- 0,.L565
.LBE8273:
.LBE8272:
.LBE8271:
.LBE8270:
.LBE8269:
.LBE8268:
.LBE8267:
.LBE8266:
.LBE8265:
.LBE8264:
.LBE8263:
.LBB8314:
.LBB8315:
.LBB8316:
.LBB8317:
.LBB8318:
.LBB8319:
.LBB8320:
.LBB8321:
.LBB8322:
.LBB8323:
.LBB8324:
	.loc 9 364 0
	lwz 0,4(31)
.LVL742:
.LBE8324:
.LBE8323:
.LBE8322:
.LBE8321:
.LBE8320:
.LBE8319:
.LBE8318:
.LBE8317:
.LBE8316:
.LBE8315:
.LBE8314:
.LBB8385:
.LBB8310:
.LBB8306:
.LBB8302:
.LBB8298:
.LBB8294:
.LBB8290:
.LBB8286:
.LBB8282:
.LBB8278:
.LBB8274:
	.loc 9 367 0
	add 27,28,27
.LVL743:
.LBE8274:
.LBE8278:
.LBE8282:
.LBE8286:
.LBE8290:
.LBE8294:
.LBE8298:
.LBE8302:
.LBE8306:
.LBE8310:
.LBE8385:
	.loc 8 434 0
	slwi 30,30,2
.LVL744:
.LBB8386:
.LBB8379:
.LBB8373:
.LBB8367:
.LBB8361:
.LBB8355:
.LBB8349:
.LBB8343:
.LBB8337:
.LBB8331:
.LBB8325:
	.loc 9 364 0
	subf 0,29,0
.LBE8325:
.LBE8331:
.LBE8337:
.LBE8343:
.LBE8349:
.LBE8355:
.LBE8361:
.LBE8367:
.LBE8373:
.LBE8379:
.LBE8386:
	.loc 8 434 0
	add 30,27,30
.LVL745:
.LBB8387:
.LBB8380:
.LBB8374:
.LBB8368:
.LBB8362:
.LBB8356:
.LBB8350:
.LBB8344:
.LBB8338:
.LBB8332:
.LBB8326:
	.loc 9 365 0
	srawi. 0,0,2
.LVL746:
	li 27,0
	bne- 0,.L566
.LVL747:
.L549:
.LBE8326:
.LBE8332:
.LBE8338:
.LBE8344:
.LBE8350:
.LBE8356:
.LBE8362:
.LBE8368:
.LBE8374:
.LBE8380:
.LBE8387:
	.loc 8 456 0
	lwz 3,0(31)
.LBB8388:
.LBB8381:
.LBB8375:
.LBB8369:
.LBB8363:
.LBB8357:
.LBB8351:
.LBB8345:
.LBB8339:
.LBB8333:
.LBB8327:
	.loc 9 367 0
	add 27,30,27
.LVL748:
.LBE8327:
.LBE8333:
.LBE8339:
.LBE8345:
.LBE8351:
.LBE8357:
.LBE8363:
.LBE8369:
.LBE8375:
.LBE8381:
.LBE8388:
.LBB8389:
.LBB8390:
	.loc 5 155 0
	cmpwi 7,3,0
	beq- 7,.L550
.LVL749:
.LBB8391:
.LBB8392:
	.loc 10 98 0
	bl _ZdlPv
.LVL750:
.L550:
.LBE8392:
.LBE8391:
.LBE8390:
.LBE8389:
.LBE8227:
.LBE8409:
.LBE8414:
	.loc 8 464 0
	lwz 0,44(1)
.LBB8415:
.LBB8410:
.LBB8404:
	.loc 8 461 0
	add 26,28,26
	.loc 8 459 0
	stw 28,0(31)
.LBE8404:
.LBE8410:
.LBE8415:
	.loc 8 464 0
	mtlr 0
.LBB8416:
.LBB8411:
.LBB8405:
	.loc 8 460 0
	stw 27,4(31)
	.loc 8 461 0
	stw 26,8(31)
.LBE8405:
.LBE8411:
.LBE8416:
	.loc 8 464 0
	lwz 27,20(1)
	lwz 26,16(1)
	lwz 28,24(1)
.LVL751:
	lwz 29,28(1)
.LVL752:
	lwz 30,32(1)
.LVL753:
	lwz 31,36(1)
.LVL754:
	addi 1,1,40
	.cfi_remember_state
	.cfi_restore 26
	.cfi_restore 27
	.cfi_restore 28
	.cfi_restore 29
	.cfi_restore 30
	.cfi_restore 31
.LCFI99:
	.cfi_def_cfa_offset 0
	blr
.LVL755:
.L563:
.LCFI100:
	.cfi_restore_state
.LBB8417:
.LBB8412:
.LBB8406:
.LBB8393:
.LBB8234:
	.loc 5 1244 0
	mr 11,30
	add 11,11,0
.LVL756:
	.loc 5 1245 0
	cmplw 7,0,11
	bgt- 7,.L545
.L564:
.LVL757:
	lis 0,0x3fff
	ori 0,0,65535
	cmplw 7,11,0
	bgt- 7,.L545
.LVL758:
.LBE8234:
.LBE8393:
.LBB8394:
.LBB8251:
	.loc 5 150 0
	cmpwi 7,11,0
.LBE8251:
.LBE8394:
.LBB8395:
.LBB8239:
	.loc 7 892 0
	subf 9,9,29
	srawi 27,9,2
.LVL759:
.LBE8239:
.LBE8395:
.LBB8396:
.LBB8252:
	.loc 5 150 0
	li 26,0
	li 28,0
	beq+ 7,.L546
	slwi 26,11,2
	b .L551
.LVL760:
.L565:
.LBE8252:
.LBE8396:
.LBB8397:
.LBB8311:
.LBB8307:
.LBB8303:
.LBB8299:
.LBB8295:
.LBB8291:
.LBB8287:
.LBB8283:
.LBB8279:
.LBB8275:
	.loc 9 366 0
	slwi 27,0,2
	mr 3,28
	mr 5,27
.LBE8275:
.LBE8279:
.LBE8283:
.LBE8287:
.LBE8291:
.LBE8295:
.LBE8299:
.LBE8303:
.LBE8307:
.LBE8311:
.LBE8397:
	.loc 8 434 0
	slwi 30,30,2
.LVL761:
.LBB8398:
.LBB8312:
.LBB8308:
.LBB8304:
.LBB8300:
.LBB8296:
.LBB8292:
.LBB8288:
.LBB8284:
.LBB8280:
.LBB8276:
	.loc 9 366 0
	bl memmove
.LVL762:
.LBE8276:
.LBE8280:
.LBE8284:
.LBE8288:
.LBE8292:
.LBE8296:
.LBE8300:
.LBE8304:
.LBE8308:
.LBE8312:
.LBE8398:
.LBB8399:
.LBB8382:
.LBB8376:
.LBB8370:
.LBB8364:
.LBB8358:
.LBB8352:
.LBB8346:
.LBB8340:
.LBB8334:
.LBB8328:
	.loc 9 364 0
	lwz 0,4(31)
.LBE8328:
.LBE8334:
.LBE8340:
.LBE8346:
.LBE8352:
.LBE8358:
.LBE8364:
.LBE8370:
.LBE8376:
.LBE8382:
.LBE8399:
.LBB8400:
.LBB8313:
.LBB8309:
.LBB8305:
.LBB8301:
.LBB8297:
.LBB8293:
.LBB8289:
.LBB8285:
.LBB8281:
.LBB8277:
	.loc 9 367 0
	add 27,28,27
.LVL763:
.LBE8277:
.LBE8281:
.LBE8285:
.LBE8289:
.LBE8293:
.LBE8297:
.LBE8301:
.LBE8305:
.LBE8309:
.LBE8313:
.LBE8400:
.LBB8401:
.LBB8383:
.LBB8377:
.LBB8371:
.LBB8365:
.LBB8359:
.LBB8353:
.LBB8347:
.LBB8341:
.LBB8335:
.LBB8329:
	.loc 9 364 0
	subf 0,29,0
.LBE8329:
.LBE8335:
.LBE8341:
.LBE8347:
.LBE8353:
.LBE8359:
.LBE8365:
.LBE8371:
.LBE8377:
.LBE8383:
.LBE8401:
	.loc 8 434 0
	add 30,27,30
.LVL764:
.LBB8402:
.LBB8384:
.LBB8378:
.LBB8372:
.LBB8366:
.LBB8360:
.LBB8354:
.LBB8348:
.LBB8342:
.LBB8336:
.LBB8330:
	.loc 9 365 0
	srawi. 0,0,2
.LVL765:
	li 27,0
	beq+ 0,.L549
.LVL766:
.L566:
	.loc 9 366 0
	slwi 27,0,2
	mr 3,30
	mr 4,29
	mr 5,27
	bl memmove
	b .L549
.LVL767:
.L540:
.LBE8330:
.LBE8336:
.LBE8342:
.LBE8348:
.LBE8354:
.LBE8360:
.LBE8366:
.LBE8372:
.LBE8378:
.LBE8384:
.LBE8402:
.LBE8406:
.LBB8407:
.LBB8198:
.LBB8190:
.LBB8188:
.LBB8186:
.LBB8184:
.LBB8182:
.LBB8180:
.LBB8178:
.LBB8176:
.LBB8174:
.LBB8172:
	slwi 30,0,2
	mr 4,29
	mr 5,30
.LVL768:
	bl memmove
.LVL769:
	lwz 3,4(31)
	b .L541
.LVL770:
.L561:
.LBE8172:
.LBE8174:
.LBE8176:
.LBE8178:
.LBE8180:
.LBE8182:
.LBE8184:
.LBE8186:
.LBE8188:
.LBE8190:
.LBE8198:
	.loc 8 390 0
	slwi 30,30,2
.LVL771:
.LBB8199:
.LBB8158:
.LBB8157:
.LBB8156:
.LBB8155:
.LBB8154:
.LBB8153:
.LBB8152:
.LBB8151:
.LBB8150:
.LBB8149:
	.loc 8 382 0
	mr 0,27
.LVL772:
	.loc 9 365 0
	srawi. 5,30,2
.LVL773:
	.loc 9 364 0
	subf 26,30,27
	.loc 9 365 0
	beq+ 0,.L535
	.loc 9 366 0
	mr 3,27
	mr 4,26
	slwi 5,5,2
	bl memmove
.LVL774:
	lwz 0,4(31)
.L535:
.LBE8149:
.LBE8150:
.LBE8151:
.LBE8152:
.LBE8153:
.LBE8154:
.LBE8155:
.LBE8156:
.LBE8157:
.LBE8158:
.LBE8199:
.LBB8200:
.LBB8201:
.LBB8202:
.LBB8203:
.LBB8204:
.LBB8205:
	.loc 9 559 0
	subf 26,29,26
.LBE8205:
.LBE8204:
.LBE8203:
.LBE8202:
.LBE8201:
.LBE8200:
	.loc 8 394 0
	add 0,0,30
.LBB8221:
.LBB8218:
.LBB8215:
.LBB8212:
.LBB8209:
.LBB8206:
	.loc 9 560 0
	srawi. 26,26,2
.LBE8206:
.LBE8209:
.LBE8212:
.LBE8215:
.LBE8218:
.LBE8221:
	.loc 8 394 0
	stw 0,4(31)
.LVL775:
.LBB8222:
.LBB8219:
.LBB8216:
.LBB8213:
.LBB8210:
.LBB8207:
	.loc 9 560 0
	bne- 0,.L567
.L536:
.LVL776:
.LBE8207:
.LBE8210:
.LBE8213:
.LBE8216:
.LBE8219:
.LBE8222:
	.loc 8 397 0
	add 30,29,30
.LVL777:
.LBB8223:
.LBB8224:
.LBB8225:
	.loc 9 686 0
	cmpw 7,30,29
	beq- 7,.L531
.LVL778:
.L537:
	.loc 9 687 0
	stw 28,0(29)
	addi 29,29,4
	.loc 9 686 0
	cmpw 7,30,29
	bne+ 7,.L537
	b .L531
.LVL779:
.L567:
.LBE8225:
.LBE8224:
.LBE8223:
.LBB8226:
.LBB8220:
.LBB8217:
.LBB8214:
.LBB8211:
.LBB8208:
	.loc 9 561 0
	slwi 5,26,2
	mr 4,29
	subf 3,5,27
	bl memmove
	b .L536
.LVL780:
.L562:
.LBE8208:
.LBE8211:
.LBE8214:
.LBE8217:
.LBE8220:
.LBE8226:
.LBE8407:
.LBB8408:
.LBB8403:
.LBB8235:
	.loc 5 1242 0
	lis 3,.LC4@ha
	la 3,.LC4@l(3)
	bl _ZSt20__throw_length_errorPKc
.LVL781:
.LVL782:
.LVL783:
.LBE8235:
.LBE8403:
.LBE8408:
.LBE8412:
.LBE8417:
	.cfi_endproc
.LFE2007:
	.size	_ZNSt6vectorIP9GuiButtonSaIS1_EE14_M_fill_insertEN9__gnu_cxx17__normal_iteratorIPS1_S3_EEjRKS1_, .-_ZNSt6vectorIP9GuiButtonSaIS1_EE14_M_fill_insertEN9__gnu_cxx17__normal_iteratorIPS1_S3_EEjRKS1_
	.section	.text._ZNSt8_Rb_treeIPN7sigslot12_signal_baseINS0_15single_threadedEEES4_St9_IdentityIS4_ESt4lessIS4_ESaIS4_EE16_M_insert_uniqueERKS4_,"axG",@progbits,_ZNSt8_Rb_treeIPN7sigslot12_signal_baseINS0_15single_threadedEEES4_St9_IdentityIS4_ESt4lessIS4_ESaIS4_EE16_M_insert_uniqueERKS4_,comdat
	.align 2
	.weak	_ZNSt8_Rb_treeIPN7sigslot12_signal_baseINS0_15single_threadedEEES4_St9_IdentityIS4_ESt4lessIS4_ESaIS4_EE16_M_insert_uniqueERKS4_
	.type	_ZNSt8_Rb_treeIPN7sigslot12_signal_baseINS0_15single_threadedEEES4_St9_IdentityIS4_ESt4lessIS4_ESaIS4_EE16_M_insert_uniqueERKS4_, @function
_ZNSt8_Rb_treeIPN7sigslot12_signal_baseINS0_15single_threadedEEES4_St9_IdentityIS4_ESt4lessIS4_ESaIS4_EE16_M_insert_uniqueERKS4_:
.LFB2114:
	.loc 11 1264 0
	.cfi_startproc
.LVL784:
	mflr 0
	stwu 1,-32(1)
.LCFI101:
	.cfi_def_cfa_offset 32
	.cfi_register 65, 0
	stw 28,16(1)
	stw 0,36(1)
	stw 27,12(1)
	mr 27,4
	.cfi_offset 27, -20
	.cfi_offset 65, 4
	.cfi_offset 28, -16
.LBB8457:
.LBB8458:
.LBB8459:
	.loc 4 373 0
	lwz 28,8(3)
.LVL785:
.LBE8459:
.LBE8458:
.LBE8457:
	.loc 11 1264 0
	stw 29,20(1)
.LBB8484:
.LBB8476:
.LBB8472:
	.loc 11 1272 0
	addi 29,3,4
	.cfi_offset 29, -12
.LVL786:
.LBE8472:
.LBE8476:
	.loc 11 1274 0
	cmpwi 7,28,0
.LBE8484:
	.loc 11 1264 0
	stw 31,28(1)
	stw 26,8(1)
	mr 31,3
	.cfi_offset 26, -24
	.cfi_offset 31, -4
	stw 30,24(1)
.LBB8485:
	.loc 11 1274 0
	beq- 7,.L583
	.cfi_offset 30, -8
.LVL787:
	lwz 10,0(4)
	b .L572
.LVL788:
.L591:
	.loc 4 373 0 discriminator 1
	lwz 0,8(28)
.LVL789:
	.loc 11 1274 0 discriminator 1
	cmpwi 7,0,0
	beq- 7,.L590
.LVL790:
.L584:
	.loc 11 1274 0 is_stmt 0
	mr 28,0
.LVL791:
.L572:
	.loc 4 373 0 is_stmt 1
	lwz 9,16(28)
	li 11,1
	.loc 11 1278 0
	cmplw 7,9,10
	bgt- 7,.L591
.LVL792:
	.loc 4 373 0 discriminator 2
	lwz 0,12(28)
	li 11,0
.LVL793:
	.loc 11 1274 0 discriminator 2
	cmpwi 7,0,0
	bne+ 7,.L584
.LVL794:
.L590:
	.loc 11 1281 0
	cmpwi 7,11,0
	mr 3,28
.LVL795:
	bne- 7,.L569
.LVL796:
	.loc 11 1289 0
	cmplw 7,10,9
	bgt- 7,.L592
.LVL797:
.L579:
	.loc 11 1292 0
	li 0,0
	li 4,0
	rlwimi 4,0,24,0,7
.LBE8485:
	.loc 11 1293 0
	lwz 0,36(1)
	lwz 26,8(1)
	mtlr 0
	lwz 27,12(1)
.LVL798:
	lwz 28,16(1)
	lwz 29,20(1)
	lwz 30,24(1)
	lwz 31,28(1)
.LVL799:
	addi 1,1,32
	.cfi_remember_state
.LCFI102:
	.cfi_def_cfa_offset 0
	.cfi_restore 31
	.cfi_restore 30
	.cfi_restore 29
	.cfi_restore 28
	.cfi_restore 27
	.cfi_restore 26
	blr
.LVL800:
.L583:
.LCFI103:
	.cfi_restore_state
.LBB8486:
	.loc 11 1272 0
	mr 28,29
.LVL801:
.L569:
	.loc 11 1283 0
	lwz 0,12(31)
	cmpw 7,28,0
	beq- 7,.L593
.LVL802:
.LBB8477:
.LBB8478:
	.loc 11 203 0
	mr 3,28
	bl _ZSt18_Rb_tree_decrementPSt18_Rb_tree_node_base
.LVL803:
	lwz 10,0(27)
	lwz 9,16(3)
.LVL804:
.LBE8478:
.LBE8477:
	.loc 11 1289 0
	cmplw 7,10,9
	ble+ 7,.L579
.LVL805:
.L592:
.LBB8479:
.LBB8473:
	.loc 11 969 0
	cmpw 7,28,29
	li 26,1
	beq- 7,.L580
.LVL806:
	.loc 11 1264 0
	lwz 26,16(28)
	subfc 26,26,10
	subfe 26,26,26
	neg 26,26
	b .L580
.LVL807:
.L593:
.LBE8473:
.LBE8479:
.LBB8480:
.LBB8481:
	.loc 11 969 0
	cmpw 7,28,29
	li 26,1
	beq- 7,.L580
.LVL808:
	.loc 11 1264 0
	lwz 26,0(27)
	lwz 0,16(28)
.LVL809:
	subfc 26,0,26
	subfe 26,26,26
	neg 26,26
.LVL810:
.L580:
.LBE8481:
.LBE8480:
.LBB8482:
.LBB8474:
.LBB8460:
.LBB8461:
.LBB8462:
.LBB8463:
.LBB8464:
	.loc 10 92 0
	li 3,20
	bl _Znwj
.LBE8464:
.LBE8463:
.LBE8462:
.LBB8467:
.LBB8468:
	.loc 10 108 0
	cmpwi 7,3,-16
.LBE8468:
.LBE8467:
.LBB8470:
.LBB8466:
.LBB8465:
	.loc 10 92 0
	mr 30,3
.LVL811:
.LBE8465:
.LBE8466:
.LBE8470:
.LBB8471:
.LBB8469:
	.loc 10 108 0
	beq- 7,.L582
	lwz 0,0(27)
	stw 0,16(3)
.L582:
.LVL812:
.LBE8469:
.LBE8471:
.LBE8461:
.LBE8460:
	.loc 11 973 0
	mr 3,26
.LVL813:
	mr 4,30
	mr 5,28
	mr 6,29
	bl _ZSt29_Rb_tree_insert_and_rebalancebPSt18_Rb_tree_node_baseS0_RS_
	.loc 11 976 0
	lwz 9,20(31)
	.loc 11 1291 0
	li 4,0
	mr 3,30
	.loc 11 976 0
	addi 0,9,1
.LBE8474:
.LBE8482:
.LBE8486:
	.loc 11 1293 0
	lwz 26,8(1)
.LVL814:
.LBB8487:
.LBB8483:
.LBB8475:
	.loc 11 976 0
	stw 0,20(31)
.LVL815:
	.loc 11 1291 0
	li 0,1
	rlwimi 4,0,24,0,7
.LBE8475:
.LBE8483:
.LBE8487:
	.loc 11 1293 0
	lwz 0,36(1)
	lwz 27,12(1)
.LVL816:
	mtlr 0
	lwz 28,16(1)
	lwz 29,20(1)
	lwz 30,24(1)
.LVL817:
	lwz 31,28(1)
.LVL818:
	addi 1,1,32
	.cfi_restore 26
	.cfi_restore 27
	.cfi_restore 28
	.cfi_restore 29
	.cfi_restore 30
	.cfi_restore 31
.LCFI104:
	.cfi_def_cfa_offset 0
	blr
	.cfi_endproc
.LFE2114:
	.size	_ZNSt8_Rb_treeIPN7sigslot12_signal_baseINS0_15single_threadedEEES4_St9_IdentityIS4_ESt4lessIS4_ESaIS4_EE16_M_insert_uniqueERKS4_, .-_ZNSt8_Rb_treeIPN7sigslot12_signal_baseINS0_15single_threadedEEES4_St9_IdentityIS4_ESt4lessIS4_ESaIS4_EE16_M_insert_uniqueERKS4_
	.section	.text._ZN7sigslot7signal3IP9GuiButtoniRK6_POINTNS_15single_threadedEE7connectI22LanguagesSelectBrowserEEvPT_MSA_FvS2_iS5_E,"axG",@progbits,_ZN7sigslot7signal3IP9GuiButtoniRK6_POINTNS_15single_threadedEE7connectI22LanguagesSelectBrowserEEvPT_MSA_FvS2_iS5_E,comdat
	.align 2
	.weak	_ZN7sigslot7signal3IP9GuiButtoniRK6_POINTNS_15single_threadedEE7connectI22LanguagesSelectBrowserEEvPT_MSA_FvS2_iS5_E
	.type	_ZN7sigslot7signal3IP9GuiButtoniRK6_POINTNS_15single_threadedEE7connectI22LanguagesSelectBrowserEEvPT_MSA_FvS2_iS5_E, @function
_ZN7sigslot7signal3IP9GuiButtoniRK6_POINTNS_15single_threadedEE7connectI22LanguagesSelectBrowserEEvPT_MSA_FvS2_iS5_E:
.LFB1713:
	.loc 1 2308 0
	.cfi_startproc
	.cfi_personality 0,__gxx_personality_v0
	.cfi_lsda 0,.LLSDA1713
.LVL819:
	mflr 0
	stwu 1,-48(1)
.LCFI105:
	.cfi_def_cfa_offset 48
	.cfi_register 65, 0
	stw 27,28(1)
	stw 0,52(1)
	stw 30,40(1)
	mr 30,4
	.cfi_offset 30, -8
	.cfi_offset 65, 4
	.cfi_offset 27, -20
.LBB8530:
.LBB8531:
.LBB8532:
	.loc 1 338 0
	lwz 9,0(3)
.LBE8532:
.LBE8531:
.LBE8530:
	.loc 1 2308 0
	stw 31,44(1)
	mr 31,3
	.cfi_offset 31, -4
.LVL820:
.LBB8585:
.LBB8536:
.LBB8533:
	.loc 1 338 0
	lwz 0,8(9)
.LBE8533:
.LBE8536:
.LBE8585:
	.loc 1 2308 0
	stw 28,32(1)
	stw 29,36(1)
.LBB8586:
.LBB8537:
.LBB8534:
	.loc 1 338 0
	mtctr 0
.LBE8534:
.LBE8537:
.LBE8586:
	.loc 1 2308 0
	lwz 27,0(5)
	lwz 28,4(5)
	.cfi_offset 29, -12
	.cfi_offset 28, -16
.LEHB15:
.LBB8587:
.LBB8538:
.LBB8535:
	.loc 1 338 0
	bctrl
.LEHE15:
.LVL821:
.LBE8535:
.LBE8538:
	.loc 1 2314 0
	li 3,16
.LEHB16:
	bl _Znwj
.LBB8539:
.LBB8540:
	.loc 1 1778 0
	lis 9,_ZTVN7sigslot12_connection3I22LanguagesSelectBrowserP9GuiButtoniRK6_POINTNS_15single_threadedEEE+8@ha
	.loc 1 1779 0
	stw 30,4(3)
	.loc 1 1778 0
	la 0,_ZTVN7sigslot12_connection3I22LanguagesSelectBrowserP9GuiButtoniRK6_POINTNS_15single_threadedEEE+8@l(9)
	.loc 1 1780 0
	stw 27,8(3)
	.loc 1 1778 0
	stw 0,0(3)
.LBE8540:
.LBE8539:
	.loc 1 2314 0
	mr 29,3
.LVL822:
.LBB8542:
.LBB8541:
	.loc 1 1780 0
	stw 28,12(3)
.LVL823:
.LBE8541:
.LBE8542:
.LBB8543:
.LBB8544:
.LBB8545:
.LBB8546:
.LBB8547:
.LBB8548:
.LBB8549:
.LBB8550:
	.loc 10 92 0
	li 3,12
.LVL824:
	bl _Znwj
.LVL825:
.LBE8550:
.LBE8549:
.LBE8548:
.LBB8551:
.LBB8552:
	.loc 10 108 0 discriminator 1
	cmpwi 7,3,-8
	beq- 7,.L596
	.loc 10 108 0 is_stmt 0
	stw 29,8(3)
.LVL826:
.L596:
.LBE8552:
.LBE8551:
.LBE8547:
.LBE8546:
	.file 13 "d:\\devkitpro\\devkitppc\\bin\\../lib/gcc/powerpc-eabi/4.6.3/../../../../powerpc-eabi/include/c++/4.6.3/bits/stl_list.h"
	.loc 13 1516 0 is_stmt 1
	addi 4,31,4
.LBE8545:
.LBE8544:
.LBE8543:
.LBB8557:
.LBB8558:
	.loc 1 503 0
	addi 29,30,176
.LVL827:
.LBE8558:
.LBE8557:
.LBB8574:
.LBB8555:
.LBB8553:
	.loc 13 1516 0
	bl _ZNSt8__detail15_List_node_base7_M_hookEPS0_
.LVL828:
.LBE8553:
.LBE8555:
.LBE8574:
.LBB8575:
.LBB8571:
.LBB8559:
.LBB8560:
	.loc 1 338 0
	lwz 9,176(30)
.LBE8560:
.LBE8559:
.LBE8571:
.LBE8575:
.LBB8576:
.LBB8556:
.LBB8554:
	.loc 13 1516 0
	stw 31,8(1)
.LVL829:
.LBE8554:
.LBE8556:
.LBE8576:
.LBB8577:
.LBB8572:
.LBB8562:
.LBB8561:
	.loc 1 338 0
	mr 3,29
	lwz 0,8(9)
	mtctr 0
	bctrl
.LEHE16:
.LVL830:
.LBE8561:
.LBE8562:
.LBB8563:
.LBB8564:
	.loc 12 410 0
	addi 3,30,180
	addi 4,1,8
.LEHB17:
	bl _ZNSt8_Rb_treeIPN7sigslot12_signal_baseINS0_15single_threadedEEES4_St9_IdentityIS4_ESt4lessIS4_ESaIS4_EE16_M_insert_uniqueERKS4_
.LEHE17:
.LVL831:
.LBE8564:
.LBE8563:
.LBB8565:
.LBB8566:
.LBB8567:
	.loc 1 343 0
	lwz 9,176(30)
	mr 3,29
	lwz 0,12(9)
	mtctr 0
.LEHB18:
	bctrl
.LEHE18:
.LVL832:
.LBE8567:
.LBE8566:
.LBE8565:
.LBE8572:
.LBE8577:
.LBB8578:
.LBB8579:
.LBB8580:
	lwz 9,0(31)
	mr 3,31
	lwz 0,12(9)
	mtctr 0
.LEHB19:
	bctrl
.LEHE19:
.LBE8580:
.LBE8579:
.LBE8578:
.LBE8587:
	.loc 1 2317 0
	lwz 0,52(1)
	lwz 27,28(1)
.LVL833:
	mtlr 0
	lwz 28,32(1)
.LVL834:
	lwz 29,36(1)
.LVL835:
	lwz 30,40(1)
.LVL836:
	lwz 31,44(1)
.LVL837:
	addi 1,1,48
	.cfi_remember_state
.LCFI106:
	.cfi_def_cfa_offset 0
	.cfi_restore 31
	.cfi_restore 30
	.cfi_restore 29
	.cfi_restore 28
	.cfi_restore 27
	blr
.LVL838:
.L603:
.LCFI107:
	.cfi_restore_state
	mr 30,3
.LVL839:
.L600:
.LBB8588:
.LBB8581:
.LBB8582:
.LBB8583:
	.loc 1 343 0
	lwz 9,0(31)
	mr 3,31
	lwz 0,12(9)
	mtctr 0
	bctrl
	mr 3,30
.LEHB20:
	bl _Unwind_Resume
.LEHE20:
.LVL840:
.L604:
.LBE8583:
.LBE8582:
.LBE8581:
.LBB8584:
.LBB8573:
.LBB8568:
.LBB8569:
.LBB8570:
	lwz 9,176(30)
	mr 30,3
.LVL841:
	mr 3,29
	lwz 0,12(9)
	mtctr 0
	bctrl
	b .L600
.LBE8570:
.LBE8569:
.LBE8568:
.LBE8573:
.LBE8584:
.LBE8588:
	.cfi_endproc
.LFE1713:
	.section	.gcc_except_table
.LLSDA1713:
	.byte	0xff
	.byte	0xff
	.byte	0x1
	.uleb128 .LLSDACSE1713-.LLSDACSB1713
.LLSDACSB1713:
	.uleb128 .LEHB15-.LFB1713
	.uleb128 .LEHE15-.LEHB15
	.uleb128 0
	.uleb128 0
	.uleb128 .LEHB16-.LFB1713
	.uleb128 .LEHE16-.LEHB16
	.uleb128 .L603-.LFB1713
	.uleb128 0
	.uleb128 .LEHB17-.LFB1713
	.uleb128 .LEHE17-.LEHB17
	.uleb128 .L604-.LFB1713
	.uleb128 0
	.uleb128 .LEHB18-.LFB1713
	.uleb128 .LEHE18-.LEHB18
	.uleb128 .L603-.LFB1713
	.uleb128 0
	.uleb128 .LEHB19-.LFB1713
	.uleb128 .LEHE19-.LEHB19
	.uleb128 0
	.uleb128 0
	.uleb128 .LEHB20-.LFB1713
	.uleb128 .LEHE20-.LEHB20
	.uleb128 0
	.uleb128 0
.LLSDACSE1713:
	.section	.text._ZN7sigslot7signal3IP9GuiButtoniRK6_POINTNS_15single_threadedEE7connectI22LanguagesSelectBrowserEEvPT_MSA_FvS2_iS5_E,"axG",@progbits,_ZN7sigslot7signal3IP9GuiButtoniRK6_POINTNS_15single_threadedEE7connectI22LanguagesSelectBrowserEEvPT_MSA_FvS2_iS5_E,comdat
	.size	_ZN7sigslot7signal3IP9GuiButtoniRK6_POINTNS_15single_threadedEE7connectI22LanguagesSelectBrowserEEvPT_MSA_FvS2_iS5_E, .-_ZN7sigslot7signal3IP9GuiButtoniRK6_POINTNS_15single_threadedEE7connectI22LanguagesSelectBrowserEEvPT_MSA_FvS2_iS5_E
	.section	".text"
	.align 2
	.globl _ZN22LanguagesSelectBrowser5SetupEv
	.type	_ZN22LanguagesSelectBrowser5SetupEv, @function
_ZN22LanguagesSelectBrowser5SetupEv:
.LFB1619:
	.loc 4 70 0
	.cfi_startproc
	.cfi_personality 0,__gxx_personality_v0
	.cfi_lsda 0,.LLSDA1619
.LVL842:
	mflr 0
	stwu 1,-64(1)
.LCFI108:
	.cfi_def_cfa_offset 64
	.cfi_register 65, 0
	stw 28,48(1)
	stw 0,68(1)
	.loc 4 71 0
	li 0,0
	.cfi_offset 65, 4
	.cfi_offset 28, -16
	.loc 4 70 0
	stw 29,52(1)
	stw 30,56(1)
	.loc 4 78 0
	lis 30,Settings@ha
	.cfi_offset 30, -8
	.cfi_offset 29, -12
	.loc 4 70 0
	stw 31,60(1)
	mr 31,3
	.cfi_offset 31, -4
	stw 26,40(1)
	.loc 4 78 0
	la 30,Settings@l(30)
	.loc 4 70 0
	stw 27,44(1)
	.loc 4 81 0
	addi 28,31,336
	.loc 4 71 0
	stw 0,204(3)
	.loc 4 72 0
	stw 0,208(3)
	.loc 4 73 0
	stw 0,212(3)
	.loc 4 74 0
	li 0,-1
	stw 0,216(3)
	.loc 4 76 0
	lis 3,.LC5@ha
.LVL843:
	la 3,.LC5@l(3)
.LEHB21:
	.cfi_offset 27, -20
	.cfi_offset 26, -24
	bl _ZN9Resources8GetSoundEPKc
	stw 3,328(31)
	.loc 4 77 0
	lis 3,.LC6@ha
	la 3,.LC6@l(3)
	bl _ZN9Resources8GetSoundEPKc
	.loc 4 78 0
	lwz 4,1248(30)
	.loc 4 77 0
	stw 3,332(31)
	.loc 4 78 0
	lwz 3,328(31)
	bl _ZN8GuiSound9SetVolumeEi
	.loc 4 79 0
	lwz 3,332(31)
	lwz 4,1248(30)
	bl _ZN8GuiSound9SetVolumeEi
	.loc 4 81 0
	lhz 5,2644(30)
	lhz 0,2616(30)
	li 4,-1
	lhz 6,2672(30)
	slwi 5,5,16
	or 5,5,0
	mr 3,28
	bl _ZN10GuiTrigger16SetSimpleTriggerEijt
	.loc 4 83 0
	lis 3,.LC7@ha
	la 3,.LC7@l(3)
	bl _ZN9Resources12GetImageDataEPKc
	stw 3,296(31)
	.loc 4 84 0
	lis 3,.LC8@ha
	la 3,.LC8@l(3)
	bl _ZN9Resources12GetImageDataEPKc
	stw 3,300(31)
	.loc 4 85 0
	lis 3,.LC9@ha
	la 3,.LC9@l(3)
	bl _ZN9Resources12GetImageDataEPKc
	stw 3,304(31)
	.loc 4 86 0
	lis 3,.LC10@ha
	la 3,.LC10@l(3)
	bl _ZN9Resources12GetImageDataEPKc
	.loc 4 88 0
	lwz 9,0(31)
	.loc 4 86 0
	stw 3,308(31)
	.loc 4 88 0
	li 4,472
	mr 3,31
	li 5,436
	lwz 0,44(9)
	mtctr 0
	bctrl
	.loc 4 90 0
	li 3,196
	bl _Znwj
.LEHE21:
	lwz 4,296(31)
	mr 29,3
.LEHB22:
	bl _ZN8GuiImageC1EP12GuiImageData
.LEHE22:
	.loc 4 91 0 discriminator 1
	lwz 9,0(29)
	mr 4,31
	.loc 4 90 0 discriminator 1
	stw 29,280(31)
	.loc 4 91 0 discriminator 1
	mr 3,29
	lwz 0,8(9)
	mtctr 0
.LEHB23:
	bctrl
	.loc 4 92 0 discriminator 1
	lwz 3,280(31)
	lwz 9,0(3)
	lwz 0,112(9)
	lis 9,.LC11@ha
	lfs 1,.LC11@l(9)
	mtctr 0
	bctrl
	.loc 4 94 0 discriminator 1
	li 3,196
	bl _Znwj
.LEHE23:
	lwz 4,300(31)
	mr 29,3
.LEHB24:
	bl _ZN8GuiImageC1EP12GuiImageData
.LEHE24:
	.loc 4 95 0 discriminator 1
	lwz 9,0(29)
	mr 3,29
	.loc 4 94 0 discriminator 1
	stw 29,284(31)
	.loc 4 95 0 discriminator 1
	mr 4,31
	lwz 0,8(9)
	mtctr 0
.LEHB25:
	bctrl
	.loc 4 96 0 discriminator 1
	lwz 3,284(31)
	li 5,28
	li 4,-22
	lwz 9,0(3)
	lwz 0,168(9)
	mtctr 0
	bctrl
	.loc 4 97 0 discriminator 1
	lwz 3,284(31)
	li 4,18
	lwz 9,0(3)
	lwz 0,180(9)
	mtctr 0
	bctrl
	.loc 4 98 0 discriminator 1
	lwz 3,284(31)
	lwz 9,0(3)
	lwz 0,108(9)
	lis 9,.LC12@ha
	lfs 1,.LC12@l(9)
	mtctr 0
	bctrl
	.loc 4 99 0 discriminator 1
	lwz 3,284(31)
	lwz 9,0(3)
	lwz 0,112(9)
	lis 9,.LC13@ha
	lfs 1,.LC13@l(9)
	mtctr 0
	bctrl
	.loc 4 101 0 discriminator 1
	li 3,196
	bl _Znwj
.LEHE25:
	lwz 4,304(31)
	mr 29,3
.LEHB26:
	bl _ZN8GuiImageC1EP12GuiImageData
.LEHE26:
	.loc 4 102 0 discriminator 1
	lwz 9,0(29)
	mr 3,29
	.loc 4 101 0 discriminator 1
	stw 29,288(31)
	.loc 4 102 0 discriminator 1
	mr 4,31
	lwz 0,8(9)
	mtctr 0
.LEHB27:
	bctrl
	.loc 4 103 0 discriminator 1
	lwz 3,288(31)
	li 4,20
	lwz 9,0(3)
	lwz 0,180(9)
	mtctr 0
	bctrl
	.loc 4 104 0 discriminator 1
	lwz 3,288(31)
	li 4,-25
	li 5,-26
	lwz 9,0(3)
	lwz 0,168(9)
	mtctr 0
	bctrl
	.loc 4 105 0 discriminator 1
	li 3,196
	bl _Znwj
.LEHE27:
	lwz 4,304(31)
	mr 29,3
.LEHB28:
	bl _ZN8GuiImageC1EP12GuiImageData
.LEHE28:
	.loc 4 106 0 discriminator 1
	lwz 9,0(29)
	mr 3,29
	.loc 4 105 0 discriminator 1
	stw 29,292(31)
	.loc 4 106 0 discriminator 1
	mr 4,31
	lwz 0,8(9)
	mtctr 0
.LEHB29:
	bctrl
	.loc 4 107 0 discriminator 1
	lwz 3,292(31)
	li 4,20
	lwz 9,0(3)
	lwz 0,180(9)
	mtctr 0
	bctrl
	.loc 4 108 0 discriminator 1
	lwz 3,292(31)
	li 4,-70
	li 5,-26
	lwz 9,0(3)
	lwz 0,168(9)
	mtctr 0
	bctrl
	.loc 4 110 0 discriminator 1
	lis 3,.LC14@ha
	la 3,.LC14@l(3)
	bl gettext
	mr 27,3
	lis 3,.LC15@ha
	la 3,.LC15@l(3)
	bl getThemeColor
	mr 26,3
	li 3,208
	bl _Znwj
.LEHE29:
	mr 6,1
	stwu 26,24(6)
	mr 4,27
	li 5,22
	mr 29,3
.LEHB30:
	bl _ZN7GuiTextC1EPKci9_gx_color
.LEHE30:
	.loc 4 111 0 discriminator 1
	lwz 9,0(29)
	mr 3,29
	.loc 4 110 0 discriminator 1
	stw 29,312(31)
	.loc 4 111 0 discriminator 1
	mr 4,31
	lwz 0,8(9)
	mtctr 0
.LEHB31:
	bctrl
	.loc 4 112 0 discriminator 1
	lwz 3,312(31)
	li 4,18
	lwz 9,0(3)
	lwz 0,180(9)
	mtctr 0
	bctrl
	.loc 4 113 0 discriminator 1
	lwz 3,312(31)
	li 4,-20
	li 5,-28
	lwz 9,0(3)
	lwz 0,168(9)
	mtctr 0
	bctrl
	.loc 4 114 0 discriminator 1
	lwz 3,312(31)
	li 4,255
	li 5,2
	bl _ZN7GuiText11SetMaxWidthEii
	.loc 4 116 0 discriminator 1
	li 3,320
	bl _Znwj
.LEHE31:
	lis 4,.LC16@ha
	lis 5,.LC17@ha
	lwz 6,328(31)
	lwz 7,332(31)
	la 4,.LC16@l(4)
	la 5,.LC17@l(5)
	mr 29,3
.LEHB32:
	bl _ZN13PictureButtonC1EPKcS1_P8GuiSoundS3_
.LEHE32:
	.loc 4 117 0 discriminator 1
	lwz 9,0(29)
	mr 3,29
	.loc 4 116 0 discriminator 1
	stw 29,324(31)
	.loc 4 117 0 discriminator 1
	mr 4,31
	.loc 4 121 0 discriminator 1
	lis 27,_ZN22LanguagesSelectBrowser13OnButtonClickEP9GuiButtoniRK6_POINT@ha
	.loc 4 117 0 discriminator 1
	lwz 0,8(9)
	.loc 4 121 0 discriminator 1
	la 27,_ZN22LanguagesSelectBrowser13OnButtonClickEP9GuiButtoniRK6_POINT@l(27)
	.loc 4 117 0 discriminator 1
	mtctr 0
.LEHB33:
	bctrl
	.loc 4 118 0 discriminator 1
	lwz 3,324(31)
	li 4,20
	lwz 9,0(3)
	lwz 0,180(9)
	mtctr 0
	bctrl
	.loc 4 119 0 discriminator 1
	lwz 3,324(31)
	li 5,-24
	li 4,-28
	lwz 9,0(3)
	lwz 0,168(9)
	mtctr 0
	bctrl
	.loc 4 120 0 discriminator 1
	lwz 3,324(31)
	mr 4,28
	bl _ZN9GuiButton10SetTriggerEP10GuiTrigger
	.loc 4 121 0 discriminator 1
	lwz 3,324(31)
	mr 4,31
	addi 5,1,32
	li 0,0
	addi 3,3,144
	stw 0,36(1)
	stw 27,32(1)
	bl _ZN7sigslot7signal3IP9GuiButtoniRK6_POINTNS_15single_threadedEE7connectI22LanguagesSelectBrowserEEvPT_MSA_FvS2_iS5_E
	.loc 4 123 0 discriminator 1
	li 3,320
	bl _Znwj
.LEHE33:
	lis 4,.LC18@ha
	lis 5,.LC19@ha
	lwz 6,328(31)
	lwz 7,332(31)
	la 4,.LC18@l(4)
	la 5,.LC19@l(5)
	mr 29,3
.LEHB34:
	bl _ZN13PictureButtonC1EPKcS1_P8GuiSoundS3_
.LEHE34:
	.loc 4 124 0 discriminator 1
	lwz 9,0(29)
	mr 3,29
	.loc 4 123 0 discriminator 1
	stw 29,320(31)
	.loc 4 124 0 discriminator 1
	mr 4,31
	lwz 0,8(9)
	mtctr 0
.LEHB35:
	bctrl
	.loc 4 125 0 discriminator 1
	lwz 3,320(31)
	li 4,20
	lwz 9,0(3)
	lwz 0,180(9)
	mtctr 0
	bctrl
	.loc 4 126 0 discriminator 1
	lwz 3,320(31)
	li 5,-24
	li 4,-73
	lwz 9,0(3)
	lwz 0,168(9)
	mtctr 0
	bctrl
	.loc 4 127 0 discriminator 1
	lwz 3,320(31)
	mr 4,28
	bl _ZN9GuiButton10SetTriggerEP10GuiTrigger
	.loc 4 128 0 discriminator 1
	lwz 3,320(31)
	mr 4,31
	addi 5,1,32
	li 0,0
	addi 3,3,144
	stw 0,36(1)
	stw 27,32(1)
	bl _ZN7sigslot7signal3IP9GuiButtoniRK6_POINTNS_15single_threadedEE7connectI22LanguagesSelectBrowserEEvPT_MSA_FvS2_iS5_E
	.loc 4 130 0 discriminator 1
	li 3,300
	bl _Znwj
.LEHE35:
	li 4,288
	li 5,2
	mr 29,3
.LEHB36:
	bl _ZN9ScrollbarC1Eih
.LEHE36:
	.loc 4 131 0 discriminator 1
	lwz 9,0(29)
	mr 3,29
	.loc 4 130 0 discriminator 1
	stw 29,316(31)
	.loc 4 131 0 discriminator 1
	mr 4,31
	lwz 0,8(9)
	mtctr 0
.LEHB37:
	bctrl
	.loc 4 132 0 discriminator 1
	lwz 3,316(31)
	li 4,20
	lwz 9,0(3)
	lwz 0,180(9)
	mtctr 0
	bctrl
	.loc 4 133 0 discriminator 1
	lwz 3,316(31)
	li 4,-32
	li 5,22
	lwz 9,0(3)
	lwz 0,168(9)
	mtctr 0
	bctrl
	.loc 4 134 0 discriminator 1
	lwz 29,316(31)
.LVL844:
.LBB8636:
.LBB8637:
	.file 14 "d:/Projects/SaveGameManager/savegame-manager-gx/trunk/source/Language/../Controls/Scrollbar.hpp"
	.loc 14 43 0 discriminator 1
	lhz 0,124(30)
.LBE8637:
.LBE8636:
.LBB8639:
.LBB8640:
.LBB8641:
.LBB8642:
	.loc 1 338 0 discriminator 1
	lwz 9,172(29)
.LBE8642:
.LBE8641:
	.loc 1 2244 0 discriminator 1
	addi 27,29,172
.LBE8640:
.LBE8639:
.LBB8695:
.LBB8638:
	.loc 14 43 0 discriminator 1
	sth 0,192(29)
.LVL845:
.LBE8638:
.LBE8695:
.LBB8696:
.LBB8691:
.LBB8644:
.LBB8643:
	.loc 1 338 0 discriminator 1
	mr 3,27
	lwz 0,8(9)
	mtctr 0
	bctrl
.LEHE37:
.LVL846:
.LBE8643:
.LBE8644:
	.loc 1 2246 0 discriminator 1
	li 3,16
.LEHB38:
	bl _Znwj
.LBB8645:
.LBB8646:
	.loc 1 1730 0 discriminator 1
	lis 9,_ZTVN7sigslot12_connection2I22LanguagesSelectBrowseriiNS_15single_threadedEEE+8@ha
	.loc 1 1731 0 discriminator 1
	stw 31,4(3)
	.loc 1 1730 0 discriminator 1
	la 0,_ZTVN7sigslot12_connection2I22LanguagesSelectBrowseriiNS_15single_threadedEEE+8@l(9)
.LBE8646:
.LBE8645:
.LBE8691:
	.loc 1 1732 0 discriminator 1
	lis 9,_ZN22LanguagesSelectBrowser12OnListChangeEii@ha
.LBB8692:
.LBB8648:
.LBB8647:
	.loc 1 1730 0 discriminator 1
	stw 0,0(3)
.LBE8647:
.LBE8648:
.LBE8692:
	.loc 1 1732 0 discriminator 1
	la 0,_ZN22LanguagesSelectBrowser12OnListChangeEii@l(9)
	stw 0,8(3)
	li 0,0
	stw 0,12(3)
.LBB8693:
	.loc 1 2246 0 discriminator 1
	mr 28,3
.LVL847:
.LBB8649:
.LBB8650:
.LBB8651:
.LBB8652:
.LBB8653:
.LBB8654:
.LBB8655:
.LBB8656:
	.loc 10 92 0 discriminator 1
	li 3,12
.LVL848:
	bl _Znwj
.LVL849:
.LBE8656:
.LBE8655:
.LBE8654:
.LBB8657:
.LBB8658:
	.loc 10 108 0
	cmpwi 7,3,-8
	beq- 7,.L608
	stw 28,8(3)
.L608:
.LVL850:
.LBE8658:
.LBE8657:
.LBE8653:
.LBE8652:
	.loc 13 1516 0
	addi 4,29,176
.LBE8651:
.LBE8650:
.LBE8649:
.LBB8663:
.LBB8664:
	.loc 1 503 0
	addi 28,31,176
.LVL851:
.LBE8664:
.LBE8663:
.LBB8680:
.LBB8661:
.LBB8659:
	.loc 13 1516 0
	bl _ZNSt8__detail15_List_node_base7_M_hookEPS0_
.LVL852:
.LBE8659:
.LBE8661:
.LBE8680:
.LBB8681:
.LBB8677:
.LBB8665:
.LBB8666:
	.loc 1 338 0
	lwz 9,176(31)
.LBE8666:
.LBE8665:
.LBE8677:
.LBE8681:
.LBB8682:
.LBB8662:
.LBB8660:
	.loc 13 1516 0
	stw 27,8(1)
.LVL853:
.LBE8660:
.LBE8662:
.LBE8682:
.LBB8683:
.LBB8678:
.LBB8668:
.LBB8667:
	.loc 1 338 0
	mr 3,28
	lwz 0,8(9)
	mtctr 0
	bctrl
.LEHE38:
.LVL854:
.LBE8667:
.LBE8668:
.LBB8669:
.LBB8670:
	.loc 12 410 0
	addi 3,31,180
	addi 4,1,8
.LEHB39:
	bl _ZNSt8_Rb_treeIPN7sigslot12_signal_baseINS0_15single_threadedEEES4_St9_IdentityIS4_ESt4lessIS4_ESaIS4_EE16_M_insert_uniqueERKS4_
.LEHE39:
.LVL855:
.LBE8670:
.LBE8669:
.LBB8671:
.LBB8672:
.LBB8673:
	.loc 1 343 0
	lwz 9,176(31)
	mr 3,28
	lwz 0,12(9)
	mtctr 0
.LEHB40:
	bctrl
.LEHE40:
.LVL856:
.LBE8673:
.LBE8672:
.LBE8671:
.LBE8678:
.LBE8683:
.LBB8684:
.LBB8685:
.LBB8686:
	lwz 9,172(29)
	mr 3,27
	lwz 0,12(9)
	mtctr 0
.LEHB41:
	bctrl
.LBE8686:
.LBE8685:
.LBE8684:
.LBE8693:
.LBE8696:
	.loc 4 136 0
	lhz 10,2668(30)
	.loc 4 138 0
	lwz 8,0(31)
	mr 3,31
	.loc 4 136 0
	lhz 0,2640(30)
	slwi 10,10,16
	lhz 11,2696(30)
.LVL857:
	.loc 4 138 0
	li 4,34
	.loc 4 136 0
	lwz 9,316(31)
	or 10,10,0
	.loc 4 138 0
	lwz 0,180(8)
.LBB8697:
.LBB8698:
	.loc 14 38 0
	stw 10,196(9)
	sth 11,200(9)
.LBE8698:
.LBE8697:
	.loc 4 138 0
	mtctr 0
	bctrl
.LVL858:
	.loc 4 139 0
	lwz 9,0(31)
	mr 3,31
	li 4,0
	lwz 0,168(9)
	li 5,38
	mtctr 0
	bctrl
	.loc 4 140 0
	lwz 9,0(31)
	mr 3,31
	li 4,128
	lwz 0,136(9)
	li 5,20
	li 6,0
	mtctr 0
	bctrl
	.loc 4 141 0
	lwz 0,68(1)
	lwz 26,40(1)
	mtlr 0
	lwz 27,44(1)
	lwz 28,48(1)
.LVL859:
	lwz 29,52(1)
.LVL860:
	lwz 30,56(1)
	lwz 31,60(1)
.LVL861:
	addi 1,1,64
	.cfi_remember_state
.LCFI109:
	.cfi_def_cfa_offset 0
	.cfi_restore 31
	.cfi_restore 30
	.cfi_restore 29
	.cfi_restore 28
	.cfi_restore 27
	.cfi_restore 26
	blr
.LVL862:
.L623:
.L634:
.LCFI110:
	.cfi_restore_state
	mr 31,3
.LVL863:
	.loc 4 94 0
	mr 3,29
	bl _ZdlPv
	mr 3,31
	bl _Unwind_Resume
.LEHE41:
.LVL864:
.L632:
.LBB8699:
.LBB8694:
.LBB8687:
.LBB8679:
.LBB8674:
.LBB8675:
.LBB8676:
	.loc 1 343 0
	lwz 9,176(31)
	mr 31,3
.LVL865:
	mr 3,28
	lwz 0,12(9)
	mtctr 0
	bctrl
.LVL866:
.L612:
.LBE8676:
.LBE8675:
.LBE8674:
.LBE8679:
.LBE8687:
.LBB8688:
.LBB8689:
.LBB8690:
	lwz 9,172(29)
	mr 3,27
	lwz 0,12(9)
	mtctr 0
	bctrl
	mr 3,31
.LEHB42:
	bl _Unwind_Resume
.LEHE42:
.LVL867:
.L631:
	mr 31,3
.LVL868:
	b .L612
.LVL869:
.L630:
	b .L634
.L629:
	b .L634
.L628:
	b .L634
.L627:
	b .L634
.L626:
	b .L634
.L625:
	b .L634
.L624:
	b .L634
.LBE8690:
.LBE8689:
.LBE8688:
.LBE8694:
.LBE8699:
	.cfi_endproc
.LFE1619:
	.section	.gcc_except_table
.LLSDA1619:
	.byte	0xff
	.byte	0xff
	.byte	0x1
	.uleb128 .LLSDACSE1619-.LLSDACSB1619
.LLSDACSB1619:
	.uleb128 .LEHB21-.LFB1619
	.uleb128 .LEHE21-.LEHB21
	.uleb128 0
	.uleb128 0
	.uleb128 .LEHB22-.LFB1619
	.uleb128 .LEHE22-.LEHB22
	.uleb128 .L623-.LFB1619
	.uleb128 0
	.uleb128 .LEHB23-.LFB1619
	.uleb128 .LEHE23-.LEHB23
	.uleb128 0
	.uleb128 0
	.uleb128 .LEHB24-.LFB1619
	.uleb128 .LEHE24-.LEHB24
	.uleb128 .L624-.LFB1619
	.uleb128 0
	.uleb128 .LEHB25-.LFB1619
	.uleb128 .LEHE25-.LEHB25
	.uleb128 0
	.uleb128 0
	.uleb128 .LEHB26-.LFB1619
	.uleb128 .LEHE26-.LEHB26
	.uleb128 .L625-.LFB1619
	.uleb128 0
	.uleb128 .LEHB27-.LFB1619
	.uleb128 .LEHE27-.LEHB27
	.uleb128 0
	.uleb128 0
	.uleb128 .LEHB28-.LFB1619
	.uleb128 .LEHE28-.LEHB28
	.uleb128 .L626-.LFB1619
	.uleb128 0
	.uleb128 .LEHB29-.LFB1619
	.uleb128 .LEHE29-.LEHB29
	.uleb128 0
	.uleb128 0
	.uleb128 .LEHB30-.LFB1619
	.uleb128 .LEHE30-.LEHB30
	.uleb128 .L627-.LFB1619
	.uleb128 0
	.uleb128 .LEHB31-.LFB1619
	.uleb128 .LEHE31-.LEHB31
	.uleb128 0
	.uleb128 0
	.uleb128 .LEHB32-.LFB1619
	.uleb128 .LEHE32-.LEHB32
	.uleb128 .L628-.LFB1619
	.uleb128 0
	.uleb128 .LEHB33-.LFB1619
	.uleb128 .LEHE33-.LEHB33
	.uleb128 0
	.uleb128 0
	.uleb128 .LEHB34-.LFB1619
	.uleb128 .LEHE34-.LEHB34
	.uleb128 .L629-.LFB1619
	.uleb128 0
	.uleb128 .LEHB35-.LFB1619
	.uleb128 .LEHE35-.LEHB35
	.uleb128 0
	.uleb128 0
	.uleb128 .LEHB36-.LFB1619
	.uleb128 .LEHE36-.LEHB36
	.uleb128 .L630-.LFB1619
	.uleb128 0
	.uleb128 .LEHB37-.LFB1619
	.uleb128 .LEHE37-.LEHB37
	.uleb128 0
	.uleb128 0
	.uleb128 .LEHB38-.LFB1619
	.uleb128 .LEHE38-.LEHB38
	.uleb128 .L631-.LFB1619
	.uleb128 0
	.uleb128 .LEHB39-.LFB1619
	.uleb128 .LEHE39-.LEHB39
	.uleb128 .L632-.LFB1619
	.uleb128 0
	.uleb128 .LEHB40-.LFB1619
	.uleb128 .LEHE40-.LEHB40
	.uleb128 .L631-.LFB1619
	.uleb128 0
	.uleb128 .LEHB41-.LFB1619
	.uleb128 .LEHE41-.LEHB41
	.uleb128 0
	.uleb128 0
	.uleb128 .LEHB42-.LFB1619
	.uleb128 .LEHE42-.LEHB42
	.uleb128 0
	.uleb128 0
.LLSDACSE1619:
	.section	".text"
	.size	_ZN22LanguagesSelectBrowser5SetupEv, .-_ZN22LanguagesSelectBrowser5SetupEv
	.align 2
	.globl _ZN22LanguagesSelectBrowserC2Ev
	.type	_ZN22LanguagesSelectBrowserC2Ev, @function
_ZN22LanguagesSelectBrowserC2Ev:
.LFB1613:
	.loc 4 35 0
	.cfi_startproc
	.cfi_personality 0,__gxx_personality_v0
	.cfi_lsda 0,.LLSDA1613
.LVL870:
	mflr 0
	stwu 1,-24(1)
.LCFI111:
	.cfi_def_cfa_offset 24
	.cfi_register 65, 0
.LBB8700:
	.loc 4 36 0
	li 4,0
	li 5,0
	li 6,0
.LBE8700:
	.loc 4 35 0
	stw 30,16(1)
	stw 0,28(1)
	stw 31,20(1)
	mr 31,3
	.cfi_offset 31, -4
	.cfi_offset 65, 4
	.cfi_offset 30, -8
	stw 29,12(1)
.LEHB43:
.LBB8773:
	.loc 4 36 0
	.cfi_offset 29, -12
	bl _ZN8GuiFrameC2EiiPS_
.LEHE43:
.LVL871:
	lis 9,_ZTV22LanguagesSelectBrowser+8@ha
.LBB8701:
.LBB8702:
.LBB8703:
.LBB8704:
.LBB8705:
.LBB8706:
	.loc 11 445 0
	li 0,0
.LBE8706:
.LBE8705:
.LBE8704:
.LBE8703:
.LBE8702:
.LBE8701:
	.loc 4 36 0
	la 9,_ZTV22LanguagesSelectBrowser+8@l(9)
.LBB8726:
.LBB8723:
.LBB8720:
.LBB8717:
.LBB8714:
.LBB8711:
.LBB8707:
.LBB8708:
	.loc 11 459 0
	addi 11,31,184
.LBE8708:
.LBE8707:
.LBE8711:
.LBE8714:
.LBE8717:
.LBE8720:
.LBE8723:
.LBE8726:
	.loc 4 36 0
	addi 10,9,228
	addi 30,31,336
.LBB8727:
.LBB8724:
.LBB8721:
.LBB8718:
.LBB8715:
.LBB8712:
	.loc 11 445 0
	stw 0,184(31)
.LBE8712:
.LBE8715:
.LBE8718:
.LBE8721:
.LBE8724:
.LBE8727:
	.loc 4 36 0
	mr 3,30
.LBB8728:
.LBB8725:
.LBB8722:
.LBB8719:
.LBB8716:
.LBB8713:
	.loc 11 445 0
	stw 0,188(31)
	stw 0,200(31)
.LVL872:
.LBB8710:
.LBB8709:
	.loc 11 459 0
	stw 11,192(31)
	.loc 11 460 0
	stw 11,196(31)
.LBE8709:
.LBE8710:
.LBE8713:
.LBE8716:
.LBE8719:
.LBE8722:
.LBE8725:
.LBE8728:
	.loc 4 36 0
	stw 9,0(31)
	stw 10,176(31)
.LVL873:
.LBB8729:
.LBB8730:
.LBB8731:
.LBB8732:
	.loc 5 83 0
	stw 0,220(31)
	stw 0,224(31)
	stw 0,228(31)
.LVL874:
.LBE8732:
.LBE8731:
.LBE8730:
.LBE8729:
.LBB8733:
.LBB8734:
.LBB8735:
.LBB8736:
	stw 0,232(31)
	stw 0,236(31)
	stw 0,240(31)
.LVL875:
.LBE8736:
.LBE8735:
.LBE8734:
.LBE8733:
.LBB8737:
.LBB8738:
.LBB8739:
.LBB8740:
	stw 0,244(31)
	stw 0,248(31)
	stw 0,252(31)
.LVL876:
.LBE8740:
.LBE8739:
.LBE8738:
.LBE8737:
.LBB8741:
.LBB8742:
.LBB8743:
.LBB8744:
	stw 0,256(31)
	stw 0,260(31)
	stw 0,264(31)
.LVL877:
.LBE8744:
.LBE8743:
.LBE8742:
.LBE8741:
.LBB8745:
.LBB8746:
.LBB8747:
.LBB8748:
	stw 0,268(31)
	stw 0,272(31)
	stw 0,276(31)
.LEHB44:
.LBE8748:
.LBE8747:
.LBE8746:
.LBE8745:
	.loc 4 36 0
	bl _ZN10GuiTriggerC1Ev
.LEHE44:
	.loc 4 38 0
	mr 3,31
.LEHB45:
	bl _ZN22LanguagesSelectBrowser5SetupEv
.LEHE45:
.LBE8773:
	.loc 4 39 0
	lwz 0,28(1)
	lwz 29,12(1)
	mtlr 0
	lwz 30,16(1)
	lwz 31,20(1)
.LVL878:
	addi 1,1,24
	.cfi_remember_state
.LCFI112:
	.cfi_def_cfa_offset 0
	.cfi_restore 31
	.cfi_restore 30
	.cfi_restore 29
	blr
.LVL879:
.L653:
.LCFI113:
	.cfi_restore_state
	mr 30,3
.L637:
.LVL880:
.LBB8774:
.LBB8749:
	.loc 4 373 0
	lwz 3,268(31)
.LVL881:
.LBB8750:
.LBB8751:
.LBB8752:
.LBB8753:
.LBB8754:
	.loc 5 155 0
	cmpwi 7,3,0
	beq- 7,.L642
.LVL882:
.LBB8755:
.LBB8756:
	.loc 10 98 0
	bl _ZdlPv
.LVL883:
.L642:
.LBE8756:
.LBE8755:
.LBE8754:
.LBE8753:
.LBE8752:
.LBE8751:
.LBE8750:
.LBE8749:
.LBB8757:
	.loc 4 373 0
	lwz 3,256(31)
.LVL884:
.LBB8758:
.LBB8759:
.LBB8760:
.LBB8761:
.LBB8762:
	.loc 5 155 0
	cmpwi 7,3,0
	beq- 7,.L647
.LVL885:
.LBB8763:
.LBB8764:
	.loc 10 98 0
	bl _ZdlPv
.LVL886:
.L647:
.LBE8764:
.LBE8763:
.LBE8762:
.LBE8761:
.LBE8760:
.LBE8759:
.LBE8758:
.LBE8757:
.LBB8765:
	.loc 4 373 0
	lwz 3,244(31)
.LVL887:
.LBB8766:
.LBB8767:
.LBB8768:
.LBB8769:
.LBB8770:
	.loc 5 155 0
	cmpwi 7,3,0
	beq- 7,.L652
.LVL888:
.LBB8771:
.LBB8772:
	.loc 10 98 0
	bl _ZdlPv
.LVL889:
.L652:
.LBE8772:
.LBE8771:
.LBE8770:
.LBE8769:
.LBE8768:
.LBE8767:
.LBE8766:
.LBE8765:
	.loc 4 36 0
	addi 3,31,232
	bl _ZNSt6vectorIP7GuiTextSaIS1_EED1Ev
	addi 3,31,220
	bl _ZNSt6vectorIP7GuiTextSaIS1_EED1Ev
	addi 3,31,176
	bl _ZN7sigslot9has_slotsINS_15single_threadedEED2Ev
	mr 3,31
	bl _ZN8GuiFrameD2Ev
	mr 3,30
.LEHB46:
	bl _Unwind_Resume
.LEHE46:
.LVL890:
.L654:
	mr 29,3
	mr 3,30
	bl _ZN10GuiTriggerD1Ev
	mr 30,29
	b .L637
.LBE8774:
	.cfi_endproc
.LFE1613:
	.section	.gcc_except_table
.LLSDA1613:
	.byte	0xff
	.byte	0xff
	.byte	0x1
	.uleb128 .LLSDACSE1613-.LLSDACSB1613
.LLSDACSB1613:
	.uleb128 .LEHB43-.LFB1613
	.uleb128 .LEHE43-.LEHB43
	.uleb128 0
	.uleb128 0
	.uleb128 .LEHB44-.LFB1613
	.uleb128 .LEHE44-.LEHB44
	.uleb128 .L653-.LFB1613
	.uleb128 0
	.uleb128 .LEHB45-.LFB1613
	.uleb128 .LEHE45-.LEHB45
	.uleb128 .L654-.LFB1613
	.uleb128 0
	.uleb128 .LEHB46-.LFB1613
	.uleb128 .LEHE46-.LEHB46
	.uleb128 0
	.uleb128 0
.LLSDACSE1613:
	.section	".text"
	.size	_ZN22LanguagesSelectBrowserC2Ev, .-_ZN22LanguagesSelectBrowserC2Ev
	.align 2
	.globl _Z22languagesSelectBrowserv
	.type	_Z22languagesSelectBrowserv, @function
_Z22languagesSelectBrowserv:
.LFB1644:
	.loc 4 354 0
	.cfi_startproc
	.cfi_personality 0,__gxx_personality_v0
	.cfi_lsda 0,.LLSDA1644
.LVL891:
	mflr 0
	stwu 1,-56(1)
.LCFI114:
	.cfi_def_cfa_offset 56
	.cfi_register 65, 0
.LBB8820:
	.loc 4 356 0
	li 3,704
.LBE8820:
	.loc 4 354 0
	stw 31,52(1)
	stw 0,60(1)
	stw 27,36(1)
	stw 28,40(1)
	stw 29,44(1)
	stw 30,48(1)
.LEHB47:
.LBB8918:
	.loc 4 356 0
	.cfi_offset 30, -8
	.cfi_offset 29, -12
	.cfi_offset 28, -16
	.cfi_offset 27, -20
	.cfi_offset 65, 4
	.cfi_offset 31, -4
	bl _Znwj
.LEHE47:
	mr 31,3
.LEHB48:
	bl _ZN22LanguagesSelectBrowserC1Ev
.LEHE48:
.LVL892:
	.loc 4 357 0 discriminator 1
	mr 3,31
	li 4,1
.LBB8821:
.LBB8822:
	.file 15 "d:/Projects/SaveGameManager/savegame-manager-gx/trunk/source/Language/../Controls/Application.h"
	.loc 15 27 0 discriminator 1
	lis 28,_ZN11Application8instanceE@ha
.LEHB49:
.LBE8822:
.LBE8821:
	.loc 4 357 0 discriminator 1
	bl _ZN8GuiFrame13DimBackgroundEb
.LBB8826:
.LBB8823:
	.loc 15 27 0 discriminator 1
	lwz 30,_ZN11Application8instanceE@l(28)
	cmpwi 7,30,0
	beq- 7,.L692
.LVL893:
.LBE8823:
.LBE8826:
.LBB8827:
.LBB8828:
	.loc 15 51 0
	lwz 3,628(30)
	bl LWP_MutexLock
	.loc 15 52 0
	mr 3,30
	mr 4,31
	bl _ZN8GuiFrame6AppendEP10GuiElement
	.loc 15 53 0
	lwz 3,628(30)
	bl LWP_MutexUnlock
.LBE8828:
.LBE8827:
.LBB8831:
.LBB8832:
	.loc 15 27 0
	lwz 30,_ZN11Application8instanceE@l(28)
	cmpwi 7,30,0
	beq- 7,.L693
.L659:
.LBE8832:
.LBE8831:
.LBB8837:
.LBB8838:
.LBB8839:
	.loc 4 373 0
	lwz 9,604(30)
.LBB8840:
	.loc 15 69 0
	li 29,0
.LBE8840:
	.loc 4 373 0
	lwz 11,608(30)
.LBE8839:
.LBE8838:
.LBE8837:
.LBB8892:
.LBB8833:
	.loc 15 27 0
	stw 31,8(1)
.LVL894:
.LBE8833:
.LBE8892:
.LBB8893:
.LBB8888:
.LBB8879:
.LBB8876:
.LBB8841:
.LBB8842:
	.loc 5 571 0
	subf 0,9,11
.LBE8842:
.LBE8841:
	.loc 15 69 0
	srwi. 10,0,2
	mr 0,9
	bne+ 0,.L690
	b .L662
.LVL895:
.L681:
	.loc 4 373 0
	mr 9,0
.LVL896:
.L690:
.LBE8876:
.LBE8879:
.LBE8888:
.LBE8893:
.LBB8894:
.LBB8834:
	.loc 4 353 0
	slwi 27,29,2
.LBE8834:
.LBE8894:
.LBB8895:
.LBB8889:
.LBB8880:
.LBB8877:
	.loc 15 70 0
	lwzx 9,9,27
	cmpw 7,31,9
	beq- 7,.L694
.L664:
.LBB8845:
.LBB8843:
	.loc 5 571 0
	subf 9,0,11
.LBE8843:
.LBE8845:
	.loc 15 69 0
	addi 29,29,1
.LVL897:
.LBB8846:
.LBB8844:
	.loc 5 571 0
	srawi 9,9,2
.LBE8844:
.LBE8846:
	.loc 15 69 0
	cmplw 7,29,9
	blt+ 7,.L681
.LVL898:
.L662:
.LBE8877:
.LBE8880:
	.loc 15 62 0
	lwz 3,628(30)
	bl LWP_MutexLock
.LVL899:
.LBB8881:
.LBB8882:
	.loc 5 828 0
	lwz 9,608(30)
	lwz 0,612(30)
	cmpw 7,9,0
	beq- 7,.L666
.LVL900:
.LBB8883:
.LBB8884:
	.loc 10 108 0
	cmpwi 7,9,0
	li 11,0
	beq- 7,.L667
	lwz 0,8(1)
	stw 0,0(9)
	lwz 11,608(30)
.L667:
.LBE8884:
.LBE8883:
	.loc 5 831 0
	addi 11,11,4
	stw 11,608(30)
.LVL901:
.L668:
.LBE8882:
.LBE8881:
	.loc 15 64 0
	lwz 3,628(30)
	bl LWP_MutexUnlock
	.loc 4 373 0
	lwz 29,216(31)
.LVL902:
.LBE8889:
.LBE8895:
	.loc 4 361 0
	cmpwi 7,29,0
	bge- 7,.L669
	lis 27,_ZN11Application8instanceE@ha
	la 27,_ZN11Application8instanceE@l(27)
	b .L671
.LVL903:
.L670:
	.loc 4 363 0
	lwz 9,0(30)
	mr 3,30
	lwz 0,216(9)
	mtctr 0
	bctrl
	.loc 4 373 0
	lwz 29,216(31)
	.loc 4 361 0
	cmpwi 7,29,0
	bge- 7,.L669
.L671:
.LBB8896:
.LBB8897:
	.loc 15 27 0
	lwz 30,0(27)
	cmpwi 7,30,0
	bne+ 7,.L670
	li 3,632
	bl _Znwj
.LEHE49:
	mr 30,3
.LEHB50:
	bl _ZN11ApplicationC1Ev
.LEHE50:
.LBE8897:
.LBE8896:
	.loc 4 363 0
	lwz 9,0(30)
	mr 3,30
.LBB8899:
.LBB8898:
	.loc 15 27 0
	stw 30,0(27)
.LBE8898:
.LBE8899:
	.loc 4 363 0
	lwz 0,216(9)
	mtctr 0
.LEHB51:
	bctrl
	.loc 4 373 0
	lwz 29,216(31)
	.loc 4 361 0
	cmpwi 7,29,0
	blt+ 7,.L671
.L669:
	.loc 4 366 0
	lwz 9,0(31)
	mr 3,31
	li 4,128
	li 5,-20
	lwz 0,136(9)
	li 6,0
	mtctr 0
	bctrl
	.loc 4 367 0
	b .L673
.L674:
	.loc 4 368 0
	lwz 9,0(30)
	mr 3,30
	lwz 0,216(9)
	mtctr 0
	bctrl
.L673:
	.loc 4 367 0 discriminator 1
	lwz 9,0(31)
	mr 3,31
	lwz 0,156(9)
	mtctr 0
	bctrl
.LBB8900:
.LBB8901:
	.loc 15 27 0 discriminator 1
	lwz 30,_ZN11Application8instanceE@l(28)
.LBE8901:
.LBE8900:
	.loc 4 367 0 discriminator 1
	cmpwi 7,3,0
	beq- 7,.L695
.LBB8903:
.LBB8902:
	.loc 15 27 0
	cmpwi 7,30,0
	bne+ 7,.L674
	li 3,632
	bl _Znwj
.LEHE51:
	mr 30,3
.LEHB52:
	bl _ZN11ApplicationC1Ev
.LEHE52:
	stw 30,_ZN11Application8instanceE@l(28)
	b .L674
.L695:
.LBE8902:
.LBE8903:
.LBB8904:
.LBB8905:
	cmpwi 7,30,0
	beq- 7,.L696
.LBE8905:
.LBE8904:
	.loc 4 370 0
	mr 3,30
	mr 4,31
.LEHB53:
	bl _ZN11Application13PushForDeleteEP10GuiElement
.LBE8918:
	.loc 4 373 0
	lwz 0,60(1)
	mr 3,29
	lwz 27,36(1)
	mtlr 0
	lwz 28,40(1)
	lwz 29,44(1)
	lwz 30,48(1)
	lwz 31,52(1)
.LVL904:
	addi 1,1,56
	.cfi_remember_state
.LCFI115:
	.cfi_def_cfa_offset 0
	.cfi_restore 31
	.cfi_restore 30
	.cfi_restore 29
	.cfi_restore 28
	.cfi_restore 27
	blr
.LVL905:
.L694:
.LCFI116:
	.cfi_restore_state
.LBB8919:
.LBB8908:
.LBB8890:
.LBB8886:
.LBB8878:
	.loc 15 71 0
	lwz 3,628(30)
	bl LWP_MutexLock
.LBB8847:
.LBB8848:
	.loc 7 773 0
	lwz 3,604(30)
.LBE8848:
.LBE8847:
.LBB8850:
.LBB8851:
.LBB8852:
	.loc 4 373 0
	lwz 9,608(30)
.LBE8852:
.LBE8851:
.LBE8850:
.LBB8871:
.LBB8849:
	.loc 7 773 0
	add 3,3,27
.LVL906:
.LBE8849:
.LBE8871:
.LBB8872:
.LBB8867:
.LBB8853:
.LBB8854:
	addi 4,3,4
.LBE8854:
.LBE8853:
	.loc 8 138 0
	cmpw 7,4,9
	beq- 7,.L665
.LVL907:
.LBB8855:
.LBB8856:
.LBB8857:
.LBB8858:
.LBB8859:
.LBB8860:
	.loc 9 364 0
	subf 5,4,9
.LVL908:
	.loc 9 365 0
	srawi. 5,5,2
.LVL909:
	bne- 0,.L697
.LVL910:
.L665:
.LBE8860:
.LBE8859:
.LBE8858:
.LBE8857:
.LBE8856:
.LBE8855:
	.loc 8 140 0
	addi 9,9,-4
.LBE8867:
.LBE8872:
	.loc 15 73 0
	lwz 3,628(30)
.LVL911:
.LBB8873:
.LBB8868:
	.loc 8 140 0
	stw 9,608(30)
.LBE8868:
.LBE8873:
	.loc 15 73 0
	bl LWP_MutexUnlock
.LVL912:
	lwz 0,604(30)
	lwz 11,608(30)
	b .L664
.LVL913:
.L697:
.LBB8874:
.LBB8869:
.LBB8866:
.LBB8865:
.LBB8864:
.LBB8863:
.LBB8862:
.LBB8861:
	.loc 9 366 0
	slwi 5,5,2
.LVL914:
	bl memmove
.LVL915:
	lwz 9,608(30)
.LBE8861:
.LBE8862:
.LBE8863:
.LBE8864:
.LBE8865:
.LBE8866:
.LBE8869:
.LBE8874:
	.loc 15 73 0
	lwz 3,628(30)
.LBB8875:
.LBB8870:
	.loc 8 140 0
	addi 9,9,-4
	stw 9,608(30)
.LBE8870:
.LBE8875:
	.loc 15 73 0
	bl LWP_MutexUnlock
	lwz 0,604(30)
	lwz 11,608(30)
	b .L664
.LVL916:
.L692:
.LBE8878:
.LBE8886:
.LBE8890:
.LBE8908:
.LBB8909:
.LBB8824:
	.loc 15 27 0
	li 3,632
	bl _Znwj
.LEHE53:
	mr 30,3
.LEHB54:
	bl _ZN11ApplicationC1Ev
.LEHE54:
.LBE8824:
.LBE8909:
.LBB8910:
.LBB8829:
	.loc 15 51 0
	lwz 3,628(30)
.LBE8829:
.LBE8910:
.LBB8911:
.LBB8825:
	.loc 15 27 0
	stw 30,_ZN11Application8instanceE@l(28)
.LVL917:
.LEHB55:
.LBE8825:
.LBE8911:
.LBB8912:
.LBB8830:
	.loc 15 51 0
	bl LWP_MutexLock
	.loc 15 52 0
	mr 3,30
	mr 4,31
	bl _ZN8GuiFrame6AppendEP10GuiElement
	.loc 15 53 0
	lwz 3,628(30)
	bl LWP_MutexUnlock
.LBE8830:
.LBE8912:
.LBB8913:
.LBB8835:
	.loc 15 27 0
	lwz 30,_ZN11Application8instanceE@l(28)
	cmpwi 7,30,0
	bne+ 7,.L659
.L693:
	li 3,632
	bl _Znwj
.LEHE55:
	mr 30,3
.LEHB56:
	bl _ZN11ApplicationC1Ev
.LEHE56:
	stw 30,_ZN11Application8instanceE@l(28)
	b .L659
.LVL918:
.L696:
.LBE8835:
.LBE8913:
.LBB8914:
.LBB8906:
	li 3,632
.LEHB57:
	bl _Znwj
.LEHE57:
	mr 30,3
.LEHB58:
	bl _ZN11ApplicationC1Ev
.LEHE58:
.LBE8906:
.LBE8914:
	.loc 4 370 0
	mr 3,30
	mr 4,31
.LBB8915:
.LBB8907:
	.loc 15 27 0
	stw 30,_ZN11Application8instanceE@l(28)
.LEHB59:
.LBE8907:
.LBE8915:
	.loc 4 370 0
	bl _ZN11Application13PushForDeleteEP10GuiElement
.LBE8919:
	.loc 4 373 0
	lwz 0,60(1)
	mr 3,29
	lwz 27,36(1)
	mtlr 0
	lwz 28,40(1)
	lwz 29,44(1)
	lwz 30,48(1)
	lwz 31,52(1)
.LVL919:
	addi 1,1,56
	.cfi_remember_state
	.cfi_restore 27
	.cfi_restore 28
	.cfi_restore 29
	.cfi_restore 30
	.cfi_restore 31
.LCFI117:
	.cfi_def_cfa_offset 0
	blr
.LVL920:
.L666:
.LCFI118:
	.cfi_restore_state
.LBB8920:
.LBB8916:
.LBB8891:
.LBB8887:
.LBB8885:
	.loc 5 834 0
	mr 4,1
	addi 3,30,604
	stwu 9,24(4)
	addi 5,1,8
	bl _ZNSt6vectorIP10GuiElementSaIS1_EE13_M_insert_auxEN9__gnu_cxx17__normal_iteratorIPS1_S3_EERKS1_
	b .L668
.LVL921:
.L684:
.L691:
	mr 31,3
.LVL922:
.LBE8885:
.LBE8887:
.LBE8891:
.LBE8916:
.LBB8917:
.LBB8836:
	.loc 15 27 0
	mr 3,30
	bl _ZdlPv
	mr 3,31
	bl _Unwind_Resume
.LVL923:
.L683:
	mr 30,3
.LBE8836:
.LBE8917:
	.loc 4 356 0
	mr 3,31
	bl _ZdlPv
	mr 3,30
	bl _Unwind_Resume
.LEHE59:
.LVL924:
.L687:
	b .L691
.L686:
	b .L691
.L688:
	b .L691
.LVL925:
.L685:
	b .L691
.LBE8920:
	.cfi_endproc
.LFE1644:
	.section	.gcc_except_table
.LLSDA1644:
	.byte	0xff
	.byte	0xff
	.byte	0x1
	.uleb128 .LLSDACSE1644-.LLSDACSB1644
.LLSDACSB1644:
	.uleb128 .LEHB47-.LFB1644
	.uleb128 .LEHE47-.LEHB47
	.uleb128 0
	.uleb128 0
	.uleb128 .LEHB48-.LFB1644
	.uleb128 .LEHE48-.LEHB48
	.uleb128 .L683-.LFB1644
	.uleb128 0
	.uleb128 .LEHB49-.LFB1644
	.uleb128 .LEHE49-.LEHB49
	.uleb128 0
	.uleb128 0
	.uleb128 .LEHB50-.LFB1644
	.uleb128 .LEHE50-.LEHB50
	.uleb128 .L686-.LFB1644
	.uleb128 0
	.uleb128 .LEHB51-.LFB1644
	.uleb128 .LEHE51-.LEHB51
	.uleb128 0
	.uleb128 0
	.uleb128 .LEHB52-.LFB1644
	.uleb128 .LEHE52-.LEHB52
	.uleb128 .L687-.LFB1644
	.uleb128 0
	.uleb128 .LEHB53-.LFB1644
	.uleb128 .LEHE53-.LEHB53
	.uleb128 0
	.uleb128 0
	.uleb128 .LEHB54-.LFB1644
	.uleb128 .LEHE54-.LEHB54
	.uleb128 .L684-.LFB1644
	.uleb128 0
	.uleb128 .LEHB55-.LFB1644
	.uleb128 .LEHE55-.LEHB55
	.uleb128 0
	.uleb128 0
	.uleb128 .LEHB56-.LFB1644
	.uleb128 .LEHE56-.LEHB56
	.uleb128 .L685-.LFB1644
	.uleb128 0
	.uleb128 .LEHB57-.LFB1644
	.uleb128 .LEHE57-.LEHB57
	.uleb128 0
	.uleb128 0
	.uleb128 .LEHB58-.LFB1644
	.uleb128 .LEHE58-.LEHB58
	.uleb128 .L688-.LFB1644
	.uleb128 0
	.uleb128 .LEHB59-.LFB1644
	.uleb128 .LEHE59-.LEHB59
	.uleb128 0
	.uleb128 0
.LLSDACSE1644:
	.section	".text"
	.size	_Z22languagesSelectBrowserv, .-_Z22languagesSelectBrowserv
	.align 2
	.globl _ZN22LanguagesSelectBrowser9AddButtonEv
	.type	_ZN22LanguagesSelectBrowser9AddButtonEv, @function
_ZN22LanguagesSelectBrowser9AddButtonEv:
.LFB1620:
	.loc 4 144 0
	.cfi_startproc
	.cfi_personality 0,__gxx_personality_v0
	.cfi_lsda 0,.LLSDA1620
.LVL926:
	mflr 0
	stwu 1,-88(1)
.LCFI119:
	.cfi_def_cfa_offset 88
	.cfi_register 65, 0
	stw 27,68(1)
	stw 0,92(1)
	stw 29,76(1)
.LBB9039:
.LBB9040:
.LBB9041:
	.loc 5 571 0
	lwz 11,256(3)
	lwz 27,260(3)
	.cfi_offset 29, -12
	.cfi_offset 65, 4
	.cfi_offset 27, -20
.LBE9041:
.LBE9040:
.LBB9043:
	.loc 4 373 0
	lwz 0,220(3)
	lwz 9,224(3)
.LBE9043:
.LBB9057:
.LBB9042:
	.loc 5 571 0
	subf 27,11,27
	srawi 27,27,2
.LVL927:
.LBE9042:
.LBE9057:
	.loc 4 147 0
	li 11,0
.LBB9058:
.LBB9044:
.LBB9045:
.LBB9046:
	.loc 5 571 0
	subf 5,0,9
.LBE9046:
.LBE9045:
.LBE9044:
.LBE9058:
	.loc 4 147 0
	addi 29,27,1
.LVL928:
.LBB9059:
.LBB9053:
.LBB9048:
.LBB9047:
	.loc 5 571 0
	srawi 5,5,2
.LBE9047:
.LBE9048:
.LBE9053:
.LBE9059:
.LBE9039:
	.loc 4 144 0
	stw 31,84(1)
.LBB9116:
.LBB9060:
.LBB9054:
	.loc 5 631 0
	cmplw 7,29,5
.LBE9054:
.LBE9060:
.LBE9116:
	.loc 4 144 0
	stw 25,60(1)
	stw 26,64(1)
	mr 31,3
	.cfi_offset 26, -24
	.cfi_offset 25, -28
	.cfi_offset 31, -4
	stw 28,72(1)
	stw 30,80(1)
.LBB9117:
	.loc 4 147 0
	stw 11,8(1)
.LVL929:
.LBB9061:
.LBB9055:
	.loc 5 631 0
	bgt- 7,.L717
	.cfi_offset 30, -8
	.cfi_offset 28, -16
	.loc 5 633 0
	bge- 7,.L700
.LVL930:
	.loc 5 634 0
	slwi 9,29,2
	add 0,0,9
.LBB9049:
.LBB9050:
	.loc 5 1256 0
	stw 0,224(3)
.LVL931:
.L700:
.LBE9050:
.LBE9049:
.LBE9055:
.LBE9061:
	.loc 4 148 0
	lis 26,.LC20@ha
	mr 28,1
	la 26,.LC20@l(26)
	mr 3,26
.LEHB60:
	bl getThemeColor
	mr 30,3
	li 3,208
	bl _Znwj
.LEHE60:
	stwu 30,28(28)
	li 4,0
	li 5,20
	mr 6,28
	mr 25,3
.LEHB61:
	bl _ZN7GuiTextC1EPKci9_gx_color
.LEHE61:
.LVL932:
	.loc 4 148 0 is_stmt 0 discriminator 1
	lwz 9,220(31)
.LBB9062:
.LBB9063:
	.loc 5 696 0 is_stmt 1 discriminator 1
	slwi 30,27,2
.LBE9063:
.LBE9062:
	.loc 4 149 0 discriminator 1
	li 4,33
	.loc 4 148 0 discriminator 1
	stwx 25,9,30
.LVL933:
	.loc 4 149 0 discriminator 1
	lwz 9,220(31)
	lwzx 3,9,30
	lwz 9,0(3)
	lwz 0,180(9)
	mtctr 0
.LEHB62:
	bctrl
.LVL934:
	.loc 4 150 0 discriminator 1
	lwz 9,220(31)
	li 4,53
	li 5,0
	lwzx 3,9,30
	lwz 9,0(3)
	lwz 0,168(9)
	mtctr 0
	bctrl
.LVL935:
	.loc 4 151 0 discriminator 1
	lwz 9,220(31)
	li 5,1
	li 4,307
	lwzx 3,9,30
	bl _ZN7GuiText11SetMaxWidthEii
.LVL936:
.LBB9064:
	.loc 4 373 0 discriminator 1
	lwz 0,232(31)
	lwz 9,236(31)
.LBE9064:
	.loc 4 151 0 discriminator 1
	li 11,0
	stw 11,8(1)
.LVL937:
.LBB9073:
.LBB9065:
.LBB9066:
.LBB9067:
	.loc 5 571 0 discriminator 1
	subf 5,0,9
	srawi 5,5,2
.LBE9067:
.LBE9066:
	.loc 5 631 0 discriminator 1
	cmplw 7,29,5
	bgt- 7,.L718
	.loc 5 633 0
	bge- 7,.L702
.LVL938:
	.loc 5 634 0
	slwi 9,29,2
	add 0,0,9
.LBB9068:
.LBB9069:
	.loc 5 1256 0
	stw 0,236(31)
.LVL939:
.L702:
.LBE9069:
.LBE9068:
.LBE9065:
.LBE9073:
	.loc 4 154 0 discriminator 1
	mr 3,26
	bl getThemeColor
	mr 25,3
	li 3,208
	bl _Znwj
.LEHE62:
	li 4,0
	li 5,20
	mr 6,28
	mr 26,3
	stw 25,28(1)
.LEHB63:
	bl _ZN7GuiTextC1EPKci9_gx_color
.LEHE63:
.LVL940:
	lwz 9,232(31)
	.loc 4 155 0 discriminator 1
	li 4,33
	.loc 4 154 0 discriminator 1
	stwx 26,9,30
.LVL941:
	.loc 4 155 0 discriminator 1
	lwz 9,232(31)
	lwzx 3,9,30
	lwz 9,0(3)
	lwz 0,180(9)
	mtctr 0
.LEHB64:
	bctrl
.LVL942:
	.loc 4 156 0 discriminator 1
	lwz 9,232(31)
	li 4,53
	li 5,0
	lwzx 3,9,30
	lwz 9,0(3)
	lwz 0,168(9)
	mtctr 0
	bctrl
.LVL943:
	.loc 4 157 0 discriminator 1
	lwz 9,232(31)
	li 5,2
	li 4,307
	lwzx 3,9,30
	bl _ZN7GuiText11SetMaxWidthEii
.LVL944:
.LBB9074:
	.loc 4 373 0 discriminator 1
	lwz 0,244(31)
	lwz 9,248(31)
.LBE9074:
	.loc 4 157 0 discriminator 1
	li 11,0
	stw 11,8(1)
.LVL945:
.LBB9084:
.LBB9075:
.LBB9076:
.LBB9077:
	.loc 5 571 0 discriminator 1
	subf 5,0,9
	srawi 5,5,2
.LBE9077:
.LBE9076:
	.loc 5 631 0 discriminator 1
	cmplw 7,29,5
	bgt- 7,.L719
	.loc 5 633 0
	blt- 7,.L720
.L704:
.LBE9075:
.LBE9084:
	.loc 4 160 0 discriminator 1
	li 3,196
	bl _Znwj
.LEHE64:
	lwz 4,308(31)
	mr 28,3
.LEHB65:
	bl _ZN8GuiImageC1EP12GuiImageData
.LEHE65:
.LVL946:
	lwz 9,244(31)
	stwx 28,9,30
.LVL947:
	.loc 4 161 0 discriminator 1
	lis 9,.LC21@ha
	lfs 1,.LC21@l(9)
	lwz 9,244(31)
	lwzx 3,9,30
	lwz 9,0(3)
	lwz 0,108(9)
	mtctr 0
.LEHB66:
	bctrl
.LVL948:
.LBB9085:
	.loc 4 373 0 discriminator 1
	lwz 9,268(31)
	lwz 0,272(31)
.LBE9085:
	.loc 4 161 0 discriminator 1
	li 11,0
	stw 11,8(1)
.LVL949:
.LBB9095:
.LBB9086:
.LBB9087:
.LBB9088:
	.loc 5 571 0 discriminator 1
	subf 5,9,0
	srawi 5,5,2
.LBE9088:
.LBE9087:
	.loc 5 631 0 discriminator 1
	cmplw 7,29,5
	bgt- 7,.L721
	.loc 5 633 0
	blt- 7,.L722
.L706:
.LVL950:
.LBE9086:
.LBE9095:
	.loc 4 164 0 discriminator 1
	li 0,0
	stwx 0,9,30
.LVL951:
	stw 0,8(1)
.LVL952:
.LBB9096:
	.loc 4 373 0 discriminator 1
	lwz 9,260(31)
	lwz 0,256(31)
.LBB9097:
.LBB9098:
.LBB9099:
	.loc 5 571 0 discriminator 1
	subf 5,0,9
	srawi 5,5,2
.LBE9099:
.LBE9098:
	.loc 5 631 0 discriminator 1
	cmplw 7,29,5
	bgt- 7,.L723
.LVL953:
.L707:
	.loc 5 633 0
	blt- 7,.L724
.LVL954:
.L708:
.LBE9097:
.LBE9096:
	.loc 4 167 0 discriminator 1
	li 3,312
	bl _Znwj
.LEHE66:
	li 4,364
	li 5,28
	mr 29,3
.LEHB67:
	bl _ZN9GuiButtonC1Eii
.LEHE67:
.LVL955:
	lwz 9,256(31)
	.loc 4 168 0 discriminator 1
	mr 4,31
	.loc 4 167 0 discriminator 1
	stwx 29,9,30
.LVL956:
	.loc 4 168 0 discriminator 1
	lwz 9,256(31)
	lwzx 3,9,30
	lwz 9,0(3)
	lwz 0,8(9)
	mtctr 0
.LEHB68:
	bctrl
.LVL957:
	.loc 4 169 0 discriminator 1
	lwz 11,256(31)
	lwz 9,220(31)
	li 5,0
	lwzx 3,11,30
	lwzx 4,9,30
	bl _ZN9GuiButton8SetLabelEP7GuiTexti
.LVL958:
	.loc 4 170 0 discriminator 1
	lwz 11,256(31)
	lwz 9,232(31)
	li 5,0
	lwzx 3,11,30
	lwzx 4,9,30
	bl _ZN9GuiButton12SetLabelOverEP7GuiTexti
.LVL959:
	.loc 4 171 0 discriminator 1
	lwz 11,256(31)
	lwz 9,244(31)
	lwzx 3,11,30
	lwzx 4,9,30
	bl _ZN9GuiButton12SetImageOverEP8GuiImage
.LVL960:
	.loc 4 172 0 discriminator 1
	lwz 9,256(31)
	li 4,18
	lwzx 3,9,30
	lwz 9,0(3)
	lwz 0,180(9)
	mtctr 0
	bctrl
.LVL961:
	.loc 4 173 0 discriminator 1
	lwz 9,256(31)
	mulli 5,27,28
	li 4,-40
	lwzx 3,9,30
	addi 5,5,26
	lwz 9,0(3)
	lwz 0,168(9)
	mtctr 0
	bctrl
.LVL962:
	.loc 4 174 0 discriminator 1
	lwz 9,256(31)
	addi 4,31,336
	lwzx 3,9,30
	bl _ZN9GuiButton10SetTriggerEP10GuiTrigger
.LVL963:
	.loc 4 175 0 discriminator 1
	lwz 9,256(31)
	lwz 4,328(31)
	lwzx 3,9,30
	bl _ZN9GuiButton13SetSoundClickEP8GuiSound
.LVL964:
	.loc 4 176 0 discriminator 1
	lwz 9,256(31)
	mr 4,31
	addi 5,1,48
	lwzx 3,9,30
	lis 9,_ZN22LanguagesSelectBrowser11OnListClickEP9GuiButtoniRK6_POINT@ha
	la 0,_ZN22LanguagesSelectBrowser11OnListClickEP9GuiButtoniRK6_POINT@l(9)
	stw 0,48(1)
	addi 3,3,144
	li 0,0
	stw 0,52(1)
	bl _ZN7sigslot7signal3IP9GuiButtoniRK6_POINTNS_15single_threadedEE7connectI22LanguagesSelectBrowserEEvPT_MSA_FvS2_iS5_E
.LBE9117:
	.loc 4 177 0 discriminator 1
	lwz 0,92(1)
	lwz 25,60(1)
	mtlr 0
	lwz 26,64(1)
	lwz 27,68(1)
.LVL965:
	lwz 28,72(1)
	lwz 29,76(1)
	lwz 30,80(1)
	lwz 31,84(1)
.LVL966:
	addi 1,1,88
	.cfi_remember_state
.LCFI120:
	.cfi_def_cfa_offset 0
	.cfi_restore 31
	.cfi_restore 30
	.cfi_restore 29
	.cfi_restore 28
	.cfi_restore 27
	.cfi_restore 26
	.cfi_restore 25
	blr
.LVL967:
.L724:
.LCFI121:
	.cfi_restore_state
.LBB9118:
.LBB9108:
.LBB9106:
	.loc 5 634 0
	slwi 29,29,2
.LVL968:
	add 0,0,29
.LBB9101:
.LBB9102:
	.loc 5 1256 0
	stw 0,260(31)
	b .L708
.LVL969:
.L722:
.LBE9102:
.LBE9101:
.LBE9106:
.LBE9108:
.LBB9109:
.LBB9093:
	.loc 5 634 0
	slwi 0,29,2
	add 0,9,0
.LBB9089:
.LBB9090:
	.loc 5 1256 0
	stw 0,272(31)
.LVL970:
.LBE9090:
.LBE9089:
.LBE9093:
.LBE9109:
	.loc 4 164 0
	li 0,0
	stwx 0,9,30
.LVL971:
	stw 0,8(1)
.LVL972:
.LBB9110:
	.loc 4 373 0
	lwz 9,260(31)
.LVL973:
	lwz 0,256(31)
.LBB9107:
.LBB9103:
.LBB9100:
	.loc 5 571 0
	subf 5,0,9
	srawi 5,5,2
.LBE9100:
.LBE9103:
	.loc 5 631 0
	cmplw 7,29,5
	ble+ 7,.L707
.LVL974:
.L723:
.LBB9104:
.LBB9105:
	.loc 5 944 0
	mr 4,1
	addi 3,31,256
	stwu 9,40(4)
	subf 5,5,29
.LVL975:
	addi 6,1,8
	bl _ZNSt6vectorIP9GuiButtonSaIS1_EE14_M_fill_insertEN9__gnu_cxx17__normal_iteratorIPS1_S3_EEjRKS1_
.LVL976:
	b .L708
.LVL977:
.L720:
.LBE9105:
.LBE9104:
.LBE9107:
.LBE9110:
.LBB9111:
.LBB9082:
	.loc 5 634 0
	slwi 9,29,2
	add 0,0,9
.LVL978:
.LBB9078:
.LBB9079:
	.loc 5 1256 0
	stw 0,248(31)
	b .L704
.LVL979:
.L721:
.LBE9079:
.LBE9078:
.LBE9082:
.LBE9111:
.LBB9112:
.LBB9094:
.LBB9091:
.LBB9092:
	.loc 5 944 0
	mr 4,1
	addi 3,31,268
	stwu 0,36(4)
	subf 5,5,29
.LVL980:
	addi 6,1,8
.LVL981:
	bl _ZNSt6vectorIP11GuiCheckboxSaIS1_EE14_M_fill_insertEN9__gnu_cxx17__normal_iteratorIPS1_S3_EEjRKS1_
.LVL982:
	lwz 9,268(31)
	b .L706
.LVL983:
.L719:
.LBE9092:
.LBE9091:
.LBE9094:
.LBE9112:
.LBB9113:
.LBB9083:
.LBB9080:
.LBB9081:
	mr 4,1
	addi 3,31,244
	stwu 9,32(4)
	subf 5,5,29
.LVL984:
	addi 6,1,8
.LVL985:
	bl _ZNSt6vectorIP8GuiImageSaIS1_EE14_M_fill_insertEN9__gnu_cxx17__normal_iteratorIPS1_S3_EEjRKS1_
.LVL986:
	b .L704
.LVL987:
.L718:
.LBE9081:
.LBE9080:
.LBE9083:
.LBE9113:
.LBB9114:
.LBB9072:
.LBB9070:
.LBB9071:
	mr 4,1
	addi 3,31,232
	stwu 9,24(4)
	subf 5,5,29
.LVL988:
	addi 6,1,8
.LVL989:
	bl _ZNSt6vectorIP7GuiTextSaIS1_EE14_M_fill_insertEN9__gnu_cxx17__normal_iteratorIPS1_S3_EEjRKS1_
.LVL990:
	b .L702
.LVL991:
.L717:
.LBE9071:
.LBE9070:
.LBE9072:
.LBE9114:
.LBB9115:
.LBB9056:
.LBB9051:
.LBB9052:
	mr 4,1
	addi 3,3,220
	stwu 9,24(4)
	subf 5,5,29
.LVL992:
	addi 6,1,8
.LVL993:
	bl _ZNSt6vectorIP7GuiTextSaIS1_EE14_M_fill_insertEN9__gnu_cxx17__normal_iteratorIPS1_S3_EEjRKS1_
.LVL994:
	b .L700
.LVL995:
.L713:
	mr 31,3
.LVL996:
.LBE9052:
.LBE9051:
.LBE9056:
.LBE9115:
	.loc 4 148 0
	mr 3,25
	bl _ZdlPv
	mr 3,31
	bl _Unwind_Resume
.LVL997:
.L716:
	mr 31,3
.LVL998:
	.loc 4 167 0
	mr 3,29
	bl _ZdlPv
	mr 3,31
	bl _Unwind_Resume
.LVL999:
.L715:
	mr 31,3
.LVL1000:
	.loc 4 160 0
	mr 3,28
	bl _ZdlPv
	mr 3,31
	bl _Unwind_Resume
.LVL1001:
.L714:
	mr 31,3
.LVL1002:
	.loc 4 154 0
	mr 3,26
	bl _ZdlPv
	mr 3,31
	bl _Unwind_Resume
.LEHE68:
.LBE9118:
	.cfi_endproc
.LFE1620:
	.section	.gcc_except_table
.LLSDA1620:
	.byte	0xff
	.byte	0xff
	.byte	0x1
	.uleb128 .LLSDACSE1620-.LLSDACSB1620
.LLSDACSB1620:
	.uleb128 .LEHB60-.LFB1620
	.uleb128 .LEHE60-.LEHB60
	.uleb128 0
	.uleb128 0
	.uleb128 .LEHB61-.LFB1620
	.uleb128 .LEHE61-.LEHB61
	.uleb128 .L713-.LFB1620
	.uleb128 0
	.uleb128 .LEHB62-.LFB1620
	.uleb128 .LEHE62-.LEHB62
	.uleb128 0
	.uleb128 0
	.uleb128 .LEHB63-.LFB1620
	.uleb128 .LEHE63-.LEHB63
	.uleb128 .L714-.LFB1620
	.uleb128 0
	.uleb128 .LEHB64-.LFB1620
	.uleb128 .LEHE64-.LEHB64
	.uleb128 0
	.uleb128 0
	.uleb128 .LEHB65-.LFB1620
	.uleb128 .LEHE65-.LEHB65
	.uleb128 .L715-.LFB1620
	.uleb128 0
	.uleb128 .LEHB66-.LFB1620
	.uleb128 .LEHE66-.LEHB66
	.uleb128 0
	.uleb128 0
	.uleb128 .LEHB67-.LFB1620
	.uleb128 .LEHE67-.LEHB67
	.uleb128 .L716-.LFB1620
	.uleb128 0
	.uleb128 .LEHB68-.LFB1620
	.uleb128 .LEHE68-.LEHB68
	.uleb128 0
	.uleb128 0
.LLSDACSE1620:
	.section	".text"
	.size	_ZN22LanguagesSelectBrowser9AddButtonEv, .-_ZN22LanguagesSelectBrowser9AddButtonEv
	.align 2
	.globl _ZN22LanguagesSelectBrowser9SetButtonEiPKcbb
	.type	_ZN22LanguagesSelectBrowser9SetButtonEiPKcbb, @function
_ZN22LanguagesSelectBrowser9SetButtonEiPKcbb:
.LFB1638:
	.loc 4 203 0
	.cfi_startproc
	.cfi_personality 0,__gxx_personality_v0
	.cfi_lsda 0,.LLSDA1638
.LVL1003:
	stwu 1,-40(1)
.LCFI122:
	.cfi_def_cfa_offset 40
	mflr 0
	stw 30,32(1)
	.loc 4 204 0
	mr. 30,4
	.cfi_offset 30, -8
	.cfi_register 65, 0
	.loc 4 203 0
	stw 28,24(1)
	mr 28,6
	.cfi_offset 28, -16
	stw 29,28(1)
	mr 29,5
	.cfi_offset 29, -12
	stw 31,36(1)
	mr 31,3
	.cfi_offset 31, -4
	stw 0,44(1)
	stw 27,20(1)
	.loc 4 204 0
	blt- 0,.L725
	.cfi_offset 27, -20
	.cfi_offset 65, 4
.LBB9119:
.LBB9120:
	.loc 5 571 0
	lwz 9,260(3)
	lwz 0,256(3)
	subf 0,0,9
	srawi 0,0,2
.LBE9120:
.LBE9119:
	.loc 4 207 0
	cmpw 7,30,0
	bge- 7,.L733
	.loc 4 212 0
	cmpwi 7,7,0
	beq- 7,.L734
.LVL1004:
.L728:
	.loc 4 219 0
	lwz 9,268(31)
.LBB9121:
.LBB9122:
	.loc 5 696 0
	slwi 30,30,2
.LVL1005:
.LBE9122:
.LBE9121:
	.loc 4 219 0
	lwzx 3,9,30
	cmpwi 7,3,0
	beq- 7,.L729
	.loc 4 220 0
	lwz 9,0(3)
	lwz 0,4(9)
	mtctr 0
.LEHB69:
	bctrl
.LVL1006:
.L729:
	.loc 4 222 0
	li 3,952
	bl _Znwj
.LEHE69:
	li 4,20
	li 5,20
	li 6,0
	mr 27,3
.LEHB70:
	bl _ZN11GuiCheckboxC1Eiii
.LEHE70:
	.loc 4 222 0 is_stmt 0 discriminator 1
	lwz 9,268(31)
	stwx 27,9,30
	.loc 4 223 0 is_stmt 1 discriminator 1
	lwz 11,268(31)
	lwz 9,256(31)
	lwzx 3,11,30
	lwzx 4,9,30
	lwz 9,0(3)
	lwz 0,8(9)
	mtctr 0
.LEHB71:
	bctrl
	.loc 4 224 0 discriminator 1
	lwz 9,268(31)
	li 5,0
	li 4,25
	lwzx 3,9,30
	lwz 9,0(3)
	lwz 0,168(9)
	mtctr 0
	bctrl
	.loc 4 225 0 discriminator 1
	lwz 9,268(31)
	li 4,33
	lwzx 3,9,30
	lwz 9,0(3)
	lwz 0,180(9)
	mtctr 0
	bctrl
.LVL1007:
	.loc 4 228 0 discriminator 1
	lwz 11,220(31)
	.loc 4 226 0 discriminator 1
	lwz 9,268(31)
	.loc 4 228 0 discriminator 1
	mr 4,29
	lwzx 3,11,30
.LBB9123:
.LBB9124:
	.loc 6 41 0 discriminator 1
	lwzx 9,9,30
.LBE9124:
.LBE9123:
	.loc 4 228 0 discriminator 1
	lwz 11,0(3)
	lwz 0,200(11)
.LBB9126:
.LBB9125:
	.loc 6 41 0 discriminator 1
	stb 28,948(9)
.LBE9125:
.LBE9126:
	.loc 4 228 0 discriminator 1
	mtctr 0
	bctrl
	.loc 4 229 0 discriminator 1
	lwz 9,232(31)
	mr 4,29
	lwzx 3,9,30
	lwz 9,0(3)
	lwz 0,200(9)
	mtctr 0
	bctrl
	.loc 4 231 0 discriminator 1
	lwz 9,256(31)
	li 4,1
	lwzx 3,9,30
	lwz 9,0(3)
	lwz 0,48(9)
	mtctr 0
	bctrl
	.loc 4 233 0 discriminator 1
	lwz 9,256(31)
	lwzx 3,9,30
	lwz 9,0(3)
	lwz 0,84(9)
	mtctr 0
	bctrl
	cmpwi 7,3,4
	beq- 7,.L735
.LVL1008:
.L725:
	.loc 4 235 0
	lwz 0,44(1)
	lwz 27,20(1)
	mtlr 0
	lwz 28,24(1)
	lwz 29,28(1)
.LVL1009:
	lwz 30,32(1)
	lwz 31,36(1)
.LVL1010:
	addi 1,1,40
	.cfi_remember_state
.LCFI123:
	.cfi_def_cfa_offset 0
	.cfi_restore 31
	.cfi_restore 30
	.cfi_restore 29
	.cfi_restore 28
	.cfi_restore 27
	blr
.LVL1011:
.L733:
.LCFI124:
	.cfi_restore_state
	.loc 4 209 0
	stw 7,8(1)
	bl _ZN22LanguagesSelectBrowser9AddButtonEv
.LVL1012:
	lwz 7,8(1)
	.loc 4 212 0
	cmpwi 7,7,0
	bne+ 7,.L728
.L734:
.LVL1013:
	.loc 4 214 0
	lwz 9,256(31)
.LBB9127:
.LBB9128:
	.loc 5 696 0
	slwi 30,30,2
.LVL1014:
.LBE9128:
.LBE9127:
	.loc 4 214 0
	li 4,0
	lwzx 3,9,30
	lwz 9,0(3)
	lwz 0,48(9)
	mtctr 0
	bctrl
	.loc 4 215 0
	lwz 9,256(31)
	li 4,4
.LVL1015:
.L732:
	.loc 4 234 0
	lwzx 3,9,30
	li 5,-1
	lwz 9,0(3)
	lwz 0,80(9)
	mtctr 0
	bctrl
	.loc 4 235 0
	lwz 0,44(1)
	lwz 27,20(1)
	mtlr 0
	lwz 28,24(1)
	lwz 29,28(1)
.LVL1016:
	lwz 30,32(1)
	lwz 31,36(1)
.LVL1017:
	addi 1,1,40
	.cfi_remember_state
	.cfi_restore 27
	.cfi_restore 28
	.cfi_restore 29
	.cfi_restore 30
	.cfi_restore 31
.LCFI125:
	.cfi_def_cfa_offset 0
	blr
.LVL1018:
.L735:
.LCFI126:
	.cfi_restore_state
	.loc 4 234 0
	lwz 9,256(31)
	li 4,0
	b .L732
.LVL1019:
.L731:
	mr 31,3
.LVL1020:
	.loc 4 222 0
	mr 3,27
	bl _ZdlPv
	mr 3,31
	bl _Unwind_Resume
.LEHE71:
	.cfi_endproc
.LFE1638:
	.section	.gcc_except_table
.LLSDA1638:
	.byte	0xff
	.byte	0xff
	.byte	0x1
	.uleb128 .LLSDACSE1638-.LLSDACSB1638
.LLSDACSB1638:
	.uleb128 .LEHB69-.LFB1638
	.uleb128 .LEHE69-.LEHB69
	.uleb128 0
	.uleb128 0
	.uleb128 .LEHB70-.LFB1638
	.uleb128 .LEHE70-.LEHB70
	.uleb128 .L731-.LFB1638
	.uleb128 0
	.uleb128 .LEHB71-.LFB1638
	.uleb128 .LEHE71-.LEHB71
	.uleb128 0
	.uleb128 0
.LLSDACSE1638:
	.section	".text"
	.size	_ZN22LanguagesSelectBrowser9SetButtonEiPKcbb, .-_ZN22LanguagesSelectBrowser9SetButtonEiPKcbb
	.align 2
	.globl _ZN22LanguagesSelectBrowser12OnListChangeEii
	.type	_ZN22LanguagesSelectBrowser12OnListChangeEii, @function
_ZN22LanguagesSelectBrowser12OnListChangeEii:
.LFB1641:
	.loc 4 271 0
	.cfi_startproc
.LVL1021:
	mflr 0
	stwu 1,-32(1)
.LCFI127:
	.cfi_def_cfa_offset 32
	.cfi_register 65, 0
	stw 29,20(1)
.LBB9129:
.LBB9130:
.LBB9131:
.LBB9132:
	.loc 4 373 0
	lis 29,LangList@ha
	.cfi_offset 29, -12
.LBE9132:
.LBE9131:
.LBE9130:
.LBE9129:
	.loc 4 271 0
	stw 0,36(1)
	stw 31,28(1)
	mr 31,3
	.cfi_offset 31, -4
	.cfi_offset 65, 4
.LBB9352:
	.loc 4 272 0
	lwz 3,316(3)
.LVL1022:
.LBE9352:
	.loc 4 271 0
	stw 30,24(1)
.LBB9353:
.LBB9336:
.LBB9320:
.LBB9247:
	.loc 4 373 0
	la 30,LangList@l(29)
	.cfi_offset 30, -8
.LBE9247:
.LBE9320:
.LBE9336:
.LBE9353:
	.loc 4 271 0
	stw 27,12(1)
	mr 27,4
	.cfi_offset 27, -20
	stw 28,16(1)
	.loc 4 271 0
	mr 28,5
	.cfi_offset 28, -16
.LBB9354:
	.loc 4 272 0
	bl _ZN9Scrollbar11SetSelectedEii
.LVL1023:
.LBB9337:
.LBB9321:
.LBB9248:
.LBB9133:
.LBB9134:
	.loc 5 571 0
	lwz 9,4(30)
	lwz 0,LangList@l(29)
.LBE9134:
.LBE9133:
.LBE9248:
.LBE9321:
.LBE9337:
	.loc 4 273 0
	stw 27,208(31)
.LBB9338:
.LBB9322:
.LBB9249:
.LBB9191:
.LBB9135:
	.loc 5 571 0
	subf 0,0,9
.LBE9135:
.LBE9191:
.LBE9249:
.LBE9322:
.LBE9338:
	.loc 4 274 0
	stw 28,212(31)
.LVL1024:
.LBB9339:
.LBB9323:
.LBB9250:
.LBB9192:
.LBB9136:
	.loc 5 571 0
	srawi 0,0,2
.LBE9136:
.LBE9192:
.LBE9250:
	.loc 4 278 0
	cmpw 7,28,0
	blt- 7,.L737
	.loc 4 286 0
	li 4,0
	mr 3,31
	li 5,0
	li 6,0
	li 7,0
	bl _ZN22LanguagesSelectBrowser9SetButtonEiPKcbb
.LVL1025:
.LBB9251:
.LBB9193:
.LBB9137:
	.loc 5 571 0
	lwz 9,4(30)
	lwz 0,LangList@l(29)
.LBE9137:
.LBE9193:
.LBE9251:
	.loc 4 278 0
	lwz 4,212(31)
.LBB9252:
.LBB9194:
.LBB9138:
	.loc 5 571 0
	subf 0,0,9
.LBE9138:
.LBE9194:
.LBE9252:
	.loc 4 278 0
	addi 4,4,1
.LBB9253:
.LBB9195:
.LBB9139:
	.loc 5 571 0
	srawi 0,0,2
.LBE9139:
.LBE9195:
.LBE9253:
	.loc 4 278 0
	cmpw 7,4,0
	blt- 7,.L739
.LVL1026:
.L757:
	.loc 4 286 0
	li 4,1
	mr 3,31
	li 5,0
	li 6,0
	li 7,0
	bl _ZN22LanguagesSelectBrowser9SetButtonEiPKcbb
.LVL1027:
.LBB9254:
.LBB9196:
.LBB9140:
	.loc 5 571 0
	lwz 9,4(30)
	lwz 0,LangList@l(29)
.LBE9140:
.LBE9196:
.LBE9254:
	.loc 4 278 0
	lwz 4,212(31)
.LBB9255:
.LBB9197:
.LBB9141:
	.loc 5 571 0
	subf 0,0,9
.LBE9141:
.LBE9197:
.LBE9255:
	.loc 4 278 0
	addi 4,4,2
.LBB9256:
.LBB9198:
.LBB9142:
	.loc 5 571 0
	srawi 0,0,2
.LBE9142:
.LBE9198:
.LBE9256:
	.loc 4 278 0
	cmpw 7,4,0
	blt- 7,.L741
.L758:
	.loc 4 286 0
	li 4,2
	mr 3,31
	li 5,0
	li 6,0
	li 7,0
	bl _ZN22LanguagesSelectBrowser9SetButtonEiPKcbb
.LVL1028:
.LBB9257:
.LBB9199:
.LBB9143:
	.loc 5 571 0
	lwz 9,4(30)
	lwz 0,LangList@l(29)
.LBE9143:
.LBE9199:
.LBE9257:
	.loc 4 278 0
	lwz 4,212(31)
.LBB9258:
.LBB9200:
.LBB9144:
	.loc 5 571 0
	subf 0,0,9
.LBE9144:
.LBE9200:
.LBE9258:
	.loc 4 278 0
	addi 4,4,3
.LBB9259:
.LBB9201:
.LBB9145:
	.loc 5 571 0
	srawi 0,0,2
.LBE9145:
.LBE9201:
.LBE9259:
	.loc 4 278 0
	cmpw 7,4,0
	blt- 7,.L743
.L759:
	.loc 4 286 0
	li 4,3
	mr 3,31
	li 5,0
	li 6,0
	li 7,0
	bl _ZN22LanguagesSelectBrowser9SetButtonEiPKcbb
.LVL1029:
.LBB9260:
.LBB9202:
.LBB9146:
	.loc 5 571 0
	lwz 9,4(30)
	lwz 0,LangList@l(29)
.LBE9146:
.LBE9202:
.LBE9260:
	.loc 4 278 0
	lwz 4,212(31)
.LBB9261:
.LBB9203:
.LBB9147:
	.loc 5 571 0
	subf 0,0,9
.LBE9147:
.LBE9203:
.LBE9261:
	.loc 4 278 0
	addi 4,4,4
.LBB9262:
.LBB9204:
.LBB9148:
	.loc 5 571 0
	srawi 0,0,2
.LBE9148:
.LBE9204:
.LBE9262:
	.loc 4 278 0
	cmpw 7,4,0
	blt- 7,.L745
.L760:
	.loc 4 286 0
	li 4,4
	mr 3,31
	li 5,0
	li 6,0
	li 7,0
	bl _ZN22LanguagesSelectBrowser9SetButtonEiPKcbb
.LVL1030:
.LBB9263:
.LBB9205:
.LBB9149:
	.loc 5 571 0
	lwz 9,4(30)
	lwz 0,LangList@l(29)
.LBE9149:
.LBE9205:
.LBE9263:
	.loc 4 278 0
	lwz 4,212(31)
.LBB9264:
.LBB9206:
.LBB9150:
	.loc 5 571 0
	subf 0,0,9
.LBE9150:
.LBE9206:
.LBE9264:
	.loc 4 278 0
	addi 4,4,5
.LBB9265:
.LBB9207:
.LBB9151:
	.loc 5 571 0
	srawi 0,0,2
.LBE9151:
.LBE9207:
.LBE9265:
	.loc 4 278 0
	cmpw 7,4,0
	blt- 7,.L747
.L761:
	.loc 4 286 0
	li 4,5
	mr 3,31
	li 5,0
	li 6,0
	li 7,0
	bl _ZN22LanguagesSelectBrowser9SetButtonEiPKcbb
.LVL1031:
.LBB9266:
.LBB9208:
.LBB9152:
	.loc 5 571 0
	lwz 9,4(30)
	lwz 0,LangList@l(29)
.LBE9152:
.LBE9208:
.LBE9266:
	.loc 4 278 0
	lwz 4,212(31)
.LBB9267:
.LBB9209:
.LBB9153:
	.loc 5 571 0
	subf 0,0,9
.LBE9153:
.LBE9209:
.LBE9267:
	.loc 4 278 0
	addi 4,4,6
.LBB9268:
.LBB9210:
.LBB9154:
	.loc 5 571 0
	srawi 0,0,2
.LBE9154:
.LBE9210:
.LBE9268:
	.loc 4 278 0
	cmpw 7,4,0
	blt- 7,.L749
.L762:
	.loc 4 286 0
	li 4,6
	mr 3,31
	li 5,0
	li 6,0
	li 7,0
	bl _ZN22LanguagesSelectBrowser9SetButtonEiPKcbb
.LVL1032:
.LBB9269:
.LBB9211:
.LBB9155:
	.loc 5 571 0
	lwz 9,4(30)
	lwz 0,LangList@l(29)
.LBE9155:
.LBE9211:
.LBE9269:
	.loc 4 278 0
	lwz 4,212(31)
.LBB9270:
.LBB9212:
.LBB9156:
	.loc 5 571 0
	subf 0,0,9
.LBE9156:
.LBE9212:
.LBE9270:
	.loc 4 278 0
	addi 4,4,7
.LBB9271:
.LBB9213:
.LBB9157:
	.loc 5 571 0
	srawi 0,0,2
.LBE9157:
.LBE9213:
.LBE9271:
	.loc 4 278 0
	cmpw 7,4,0
	blt- 7,.L751
.L763:
	.loc 4 286 0
	li 4,7
	mr 3,31
	li 5,0
	li 6,0
	li 7,0
	bl _ZN22LanguagesSelectBrowser9SetButtonEiPKcbb
.LVL1033:
.LBB9272:
.LBB9214:
.LBB9158:
	.loc 5 571 0
	lwz 9,4(30)
	lwz 0,LangList@l(29)
.LBE9158:
.LBE9214:
.LBE9272:
	.loc 4 278 0
	lwz 4,212(31)
.LBB9273:
.LBB9215:
.LBB9159:
	.loc 5 571 0
	subf 0,0,9
.LBE9159:
.LBE9215:
.LBE9273:
	.loc 4 278 0
	addi 4,4,8
.LBB9274:
.LBB9216:
.LBB9160:
	.loc 5 571 0
	srawi 0,0,2
.LBE9160:
.LBE9216:
.LBE9274:
	.loc 4 278 0
	cmpw 7,4,0
	blt- 7,.L753
.L764:
	.loc 4 286 0
	li 4,8
	mr 3,31
	li 5,0
	li 6,0
	li 7,0
	bl _ZN22LanguagesSelectBrowser9SetButtonEiPKcbb
.LVL1034:
.LBB9275:
.LBB9217:
.LBB9161:
	.loc 5 571 0
	lwz 9,4(30)
	lwz 0,LangList@l(29)
.LBE9161:
.LBE9217:
.LBE9275:
	.loc 4 278 0
	lwz 4,212(31)
.LBB9276:
.LBB9218:
.LBB9162:
	.loc 5 571 0
	subf 0,0,9
.LBE9162:
.LBE9218:
.LBE9276:
	.loc 4 278 0
	addi 4,4,9
.LBB9277:
.LBB9219:
.LBB9163:
	.loc 5 571 0
	srawi 0,0,2
.LBE9163:
.LBE9219:
.LBE9277:
	.loc 4 278 0
	cmpw 7,4,0
	bge- 7,.L755
.L765:
.LBB9278:
	.loc 4 280 0
	mr 3,30
	bl _ZN9CLangList11GetFilenameEi
	.loc 4 281 0
	lwz 4,212(31)
	.loc 4 280 0
	mr 29,3
.LVL1035:
	.loc 4 281 0
	mr 3,30
.LVL1036:
	addi 4,4,9
	bl _ZN9CLangList6NeededEi
.LBE9278:
.LBE9323:
.LBE9339:
.LBE9354:
	.loc 4 288 0
	lwz 0,36(1)
	lwz 27,12(1)
.LVL1037:
.LBB9355:
.LBB9340:
.LBB9324:
.LBB9279:
	.loc 4 281 0
	mr 6,3
.LVL1038:
.LBE9279:
.LBE9324:
.LBE9340:
.LBE9355:
	.loc 4 288 0
	lwz 28,16(1)
.LBB9356:
.LBB9341:
.LBB9325:
.LBB9280:
	.loc 4 283 0
	mr 3,31
.LVL1039:
.LBE9280:
.LBE9325:
.LBE9341:
.LBE9356:
	.loc 4 288 0
	lwz 30,24(1)
.LBB9357:
.LBB9342:
.LBB9326:
.LBB9281:
	.loc 4 283 0
	mr 5,29
.LBE9281:
.LBE9326:
.LBE9342:
.LBE9357:
	.loc 4 288 0
	lwz 31,28(1)
.LVL1040:
	mtlr 0
	lwz 29,20(1)
.LVL1041:
.LBB9358:
.LBB9343:
.LBB9327:
.LBB9282:
	.loc 4 283 0
	li 4,9
.LBE9282:
.LBE9327:
.LBE9343:
.LBE9358:
	.loc 4 288 0
.LBB9359:
.LBB9344:
.LBB9328:
.LBB9283:
	.loc 4 283 0
	li 7,1
.LBE9283:
.LBE9328:
.LBE9344:
.LBE9359:
	.loc 4 288 0
	addi 1,1,32
	.cfi_remember_state
.LCFI128:
	.cfi_def_cfa_offset 0
	.cfi_restore 31
	.cfi_restore 30
	.cfi_restore 29
	.cfi_restore 28
	.cfi_restore 27
.LBB9360:
.LBB9345:
.LBB9329:
	.loc 4 286 0
	b _ZN22LanguagesSelectBrowser9SetButtonEiPKcbb
.LVL1042:
.L737:
.LCFI129:
	.cfi_restore_state
.LBB9284:
	.loc 4 280 0
	mr 4,28
	mr 3,30
	bl _ZN9CLangList11GetFilenameEi
	.loc 4 281 0
	lwz 4,212(31)
	.loc 4 280 0
	mr 28,3
.LVL1043:
	.loc 4 281 0
	mr 3,30
.LVL1044:
	bl _ZN9CLangList6NeededEi
	.loc 4 283 0
	li 4,0
	.loc 4 281 0
	mr 6,3
.LVL1045:
	.loc 4 283 0
	mr 5,28
	mr 3,31
.LVL1046:
	li 7,1
	bl _ZN22LanguagesSelectBrowser9SetButtonEiPKcbb
.LVL1047:
.LBE9284:
.LBB9285:
.LBB9220:
.LBB9164:
	.loc 5 571 0
	lwz 9,4(30)
	lwz 0,LangList@l(29)
.LBE9164:
.LBE9220:
.LBE9285:
	.loc 4 278 0
	lwz 4,212(31)
.LBB9286:
.LBB9221:
.LBB9165:
	.loc 5 571 0
	subf 0,0,9
.LBE9165:
.LBE9221:
.LBE9286:
	.loc 4 278 0
	addi 4,4,1
.LBB9287:
.LBB9222:
.LBB9166:
	.loc 5 571 0
	srawi 0,0,2
.LBE9166:
.LBE9222:
.LBE9287:
	.loc 4 278 0
	cmpw 7,4,0
	bge- 7,.L757
.LVL1048:
.L739:
.LBB9288:
	.loc 4 280 0
	mr 3,30
	bl _ZN9CLangList11GetFilenameEi
	.loc 4 281 0
	lwz 4,212(31)
	.loc 4 280 0
	mr 28,3
.LVL1049:
	.loc 4 281 0
	mr 3,30
.LVL1050:
	addi 4,4,1
	bl _ZN9CLangList6NeededEi
	.loc 4 283 0
	li 4,1
	.loc 4 281 0
	mr 6,3
.LVL1051:
	.loc 4 283 0
	mr 5,28
	mr 3,31
.LVL1052:
	li 7,1
	bl _ZN22LanguagesSelectBrowser9SetButtonEiPKcbb
.LVL1053:
.LBE9288:
.LBB9289:
.LBB9223:
.LBB9167:
	.loc 5 571 0
	lwz 9,4(30)
	lwz 0,LangList@l(29)
.LBE9167:
.LBE9223:
.LBE9289:
	.loc 4 278 0
	lwz 4,212(31)
.LBB9290:
.LBB9224:
.LBB9168:
	.loc 5 571 0
	subf 0,0,9
.LBE9168:
.LBE9224:
.LBE9290:
	.loc 4 278 0
	addi 4,4,2
.LBB9291:
.LBB9225:
.LBB9169:
	.loc 5 571 0
	srawi 0,0,2
.LBE9169:
.LBE9225:
.LBE9291:
	.loc 4 278 0
	cmpw 7,4,0
	bge- 7,.L758
.LVL1054:
.L741:
.LBB9292:
	.loc 4 280 0
	mr 3,30
	bl _ZN9CLangList11GetFilenameEi
	.loc 4 281 0
	lwz 4,212(31)
	.loc 4 280 0
	mr 28,3
.LVL1055:
	.loc 4 281 0
	mr 3,30
.LVL1056:
	addi 4,4,2
	bl _ZN9CLangList6NeededEi
	.loc 4 283 0
	li 4,2
	.loc 4 281 0
	mr 6,3
.LVL1057:
	.loc 4 283 0
	mr 5,28
	mr 3,31
.LVL1058:
	li 7,1
	bl _ZN22LanguagesSelectBrowser9SetButtonEiPKcbb
.LVL1059:
.LBE9292:
.LBB9293:
.LBB9226:
.LBB9170:
	.loc 5 571 0
	lwz 9,4(30)
	lwz 0,LangList@l(29)
.LBE9170:
.LBE9226:
.LBE9293:
	.loc 4 278 0
	lwz 4,212(31)
.LBB9294:
.LBB9227:
.LBB9171:
	.loc 5 571 0
	subf 0,0,9
.LBE9171:
.LBE9227:
.LBE9294:
	.loc 4 278 0
	addi 4,4,3
.LBB9295:
.LBB9228:
.LBB9172:
	.loc 5 571 0
	srawi 0,0,2
.LBE9172:
.LBE9228:
.LBE9295:
	.loc 4 278 0
	cmpw 7,4,0
	bge- 7,.L759
.LVL1060:
.L743:
.LBB9296:
	.loc 4 280 0
	mr 3,30
	bl _ZN9CLangList11GetFilenameEi
	.loc 4 281 0
	lwz 4,212(31)
	.loc 4 280 0
	mr 28,3
.LVL1061:
	.loc 4 281 0
	mr 3,30
.LVL1062:
	addi 4,4,3
	bl _ZN9CLangList6NeededEi
	.loc 4 283 0
	li 4,3
	.loc 4 281 0
	mr 6,3
.LVL1063:
	.loc 4 283 0
	mr 5,28
	mr 3,31
.LVL1064:
	li 7,1
	bl _ZN22LanguagesSelectBrowser9SetButtonEiPKcbb
.LVL1065:
.LBE9296:
.LBB9297:
.LBB9229:
.LBB9173:
	.loc 5 571 0
	lwz 9,4(30)
	lwz 0,LangList@l(29)
.LBE9173:
.LBE9229:
.LBE9297:
	.loc 4 278 0
	lwz 4,212(31)
.LBB9298:
.LBB9230:
.LBB9174:
	.loc 5 571 0
	subf 0,0,9
.LBE9174:
.LBE9230:
.LBE9298:
	.loc 4 278 0
	addi 4,4,4
.LBB9299:
.LBB9231:
.LBB9175:
	.loc 5 571 0
	srawi 0,0,2
.LBE9175:
.LBE9231:
.LBE9299:
	.loc 4 278 0
	cmpw 7,4,0
	bge- 7,.L760
.LVL1066:
.L745:
.LBB9300:
	.loc 4 280 0
	mr 3,30
	bl _ZN9CLangList11GetFilenameEi
	.loc 4 281 0
	lwz 4,212(31)
	.loc 4 280 0
	mr 28,3
.LVL1067:
	.loc 4 281 0
	mr 3,30
.LVL1068:
	addi 4,4,4
	bl _ZN9CLangList6NeededEi
	.loc 4 283 0
	li 4,4
	.loc 4 281 0
	mr 6,3
.LVL1069:
	.loc 4 283 0
	mr 5,28
	mr 3,31
.LVL1070:
	li 7,1
	bl _ZN22LanguagesSelectBrowser9SetButtonEiPKcbb
.LVL1071:
.LBE9300:
.LBB9301:
.LBB9232:
.LBB9176:
	.loc 5 571 0
	lwz 9,4(30)
	lwz 0,LangList@l(29)
.LBE9176:
.LBE9232:
.LBE9301:
	.loc 4 278 0
	lwz 4,212(31)
.LBB9302:
.LBB9233:
.LBB9177:
	.loc 5 571 0
	subf 0,0,9
.LBE9177:
.LBE9233:
.LBE9302:
	.loc 4 278 0
	addi 4,4,5
.LBB9303:
.LBB9234:
.LBB9178:
	.loc 5 571 0
	srawi 0,0,2
.LBE9178:
.LBE9234:
.LBE9303:
	.loc 4 278 0
	cmpw 7,4,0
	bge- 7,.L761
.LVL1072:
.L747:
.LBB9304:
	.loc 4 280 0
	mr 3,30
	bl _ZN9CLangList11GetFilenameEi
	.loc 4 281 0
	lwz 4,212(31)
	.loc 4 280 0
	mr 28,3
.LVL1073:
	.loc 4 281 0
	mr 3,30
.LVL1074:
	addi 4,4,5
	bl _ZN9CLangList6NeededEi
	.loc 4 283 0
	li 4,5
	.loc 4 281 0
	mr 6,3
.LVL1075:
	.loc 4 283 0
	mr 5,28
	mr 3,31
.LVL1076:
	li 7,1
	bl _ZN22LanguagesSelectBrowser9SetButtonEiPKcbb
.LVL1077:
.LBE9304:
.LBB9305:
.LBB9235:
.LBB9179:
	.loc 5 571 0
	lwz 9,4(30)
	lwz 0,LangList@l(29)
.LBE9179:
.LBE9235:
.LBE9305:
	.loc 4 278 0
	lwz 4,212(31)
.LBB9306:
.LBB9236:
.LBB9180:
	.loc 5 571 0
	subf 0,0,9
.LBE9180:
.LBE9236:
.LBE9306:
	.loc 4 278 0
	addi 4,4,6
.LBB9307:
.LBB9237:
.LBB9181:
	.loc 5 571 0
	srawi 0,0,2
.LBE9181:
.LBE9237:
.LBE9307:
	.loc 4 278 0
	cmpw 7,4,0
	bge- 7,.L762
.LVL1078:
.L749:
.LBB9308:
	.loc 4 280 0
	mr 3,30
	bl _ZN9CLangList11GetFilenameEi
	.loc 4 281 0
	lwz 4,212(31)
	.loc 4 280 0
	mr 28,3
.LVL1079:
	.loc 4 281 0
	mr 3,30
.LVL1080:
	addi 4,4,6
	bl _ZN9CLangList6NeededEi
	.loc 4 283 0
	li 4,6
	.loc 4 281 0
	mr 6,3
.LVL1081:
	.loc 4 283 0
	mr 5,28
	mr 3,31
.LVL1082:
	li 7,1
	bl _ZN22LanguagesSelectBrowser9SetButtonEiPKcbb
.LVL1083:
.LBE9308:
.LBB9309:
.LBB9238:
.LBB9182:
	.loc 5 571 0
	lwz 9,4(30)
	lwz 0,LangList@l(29)
.LBE9182:
.LBE9238:
.LBE9309:
	.loc 4 278 0
	lwz 4,212(31)
.LBB9310:
.LBB9239:
.LBB9183:
	.loc 5 571 0
	subf 0,0,9
.LBE9183:
.LBE9239:
.LBE9310:
	.loc 4 278 0
	addi 4,4,7
.LBB9311:
.LBB9240:
.LBB9184:
	.loc 5 571 0
	srawi 0,0,2
.LBE9184:
.LBE9240:
.LBE9311:
	.loc 4 278 0
	cmpw 7,4,0
	bge- 7,.L763
.LVL1084:
.L751:
.LBB9312:
	.loc 4 280 0
	mr 3,30
	bl _ZN9CLangList11GetFilenameEi
	.loc 4 281 0
	lwz 4,212(31)
	.loc 4 280 0
	mr 28,3
.LVL1085:
	.loc 4 281 0
	mr 3,30
.LVL1086:
	addi 4,4,7
	bl _ZN9CLangList6NeededEi
	.loc 4 283 0
	li 4,7
	.loc 4 281 0
	mr 6,3
.LVL1087:
	.loc 4 283 0
	mr 5,28
	mr 3,31
.LVL1088:
	li 7,1
	bl _ZN22LanguagesSelectBrowser9SetButtonEiPKcbb
.LVL1089:
.LBE9312:
.LBB9313:
.LBB9241:
.LBB9185:
	.loc 5 571 0
	lwz 9,4(30)
	lwz 0,LangList@l(29)
.LBE9185:
.LBE9241:
.LBE9313:
	.loc 4 278 0
	lwz 4,212(31)
.LBB9314:
.LBB9242:
.LBB9186:
	.loc 5 571 0
	subf 0,0,9
.LBE9186:
.LBE9242:
.LBE9314:
	.loc 4 278 0
	addi 4,4,8
.LBB9315:
.LBB9243:
.LBB9187:
	.loc 5 571 0
	srawi 0,0,2
.LBE9187:
.LBE9243:
.LBE9315:
	.loc 4 278 0
	cmpw 7,4,0
	bge- 7,.L764
.LVL1090:
.L753:
.LBB9316:
	.loc 4 280 0
	mr 3,30
	bl _ZN9CLangList11GetFilenameEi
	.loc 4 281 0
	lwz 4,212(31)
	.loc 4 280 0
	mr 28,3
.LVL1091:
	.loc 4 281 0
	mr 3,30
.LVL1092:
	addi 4,4,8
	bl _ZN9CLangList6NeededEi
	.loc 4 283 0
	li 4,8
	.loc 4 281 0
	mr 6,3
.LVL1093:
	.loc 4 283 0
	mr 5,28
	mr 3,31
.LVL1094:
	li 7,1
	bl _ZN22LanguagesSelectBrowser9SetButtonEiPKcbb
.LVL1095:
.LBE9316:
.LBB9317:
.LBB9244:
.LBB9188:
	.loc 5 571 0
	lwz 9,4(30)
	lwz 0,LangList@l(29)
.LBE9188:
.LBE9244:
.LBE9317:
	.loc 4 278 0
	lwz 4,212(31)
.LBB9318:
.LBB9245:
.LBB9189:
	.loc 5 571 0
	subf 0,0,9
.LBE9189:
.LBE9245:
.LBE9318:
	.loc 4 278 0
	addi 4,4,9
.LBB9319:
.LBB9246:
.LBB9190:
	.loc 5 571 0
	srawi 0,0,2
.LBE9190:
.LBE9246:
.LBE9319:
	.loc 4 278 0
	cmpw 7,4,0
	blt- 7,.L765
.LVL1096:
.L755:
.LBE9329:
.LBE9345:
.LBE9360:
	.loc 4 288 0
	lwz 0,36(1)
.LBB9361:
.LBB9346:
.LBB9330:
	.loc 4 286 0
	mr 3,31
.LBE9330:
.LBE9346:
.LBE9361:
	.loc 4 288 0
	lwz 27,12(1)
.LVL1097:
.LBB9362:
.LBB9347:
.LBB9331:
	.loc 4 286 0
	li 4,9
.LBE9331:
.LBE9347:
.LBE9362:
	.loc 4 288 0
	lwz 28,16(1)
	mtlr 0
	lwz 29,20(1)
.LBB9363:
.LBB9348:
.LBB9332:
	.loc 4 286 0
	li 5,0
.LBE9332:
.LBE9348:
.LBE9363:
	.loc 4 288 0
	lwz 30,24(1)
.LBB9364:
.LBB9349:
.LBB9333:
	.loc 4 286 0
	li 6,0
.LBE9333:
.LBE9349:
.LBE9364:
	.loc 4 288 0
	lwz 31,28(1)
.LVL1098:
.LBB9365:
.LBB9350:
.LBB9334:
	.loc 4 286 0
	li 7,0
.LBE9334:
.LBE9350:
.LBE9365:
	.loc 4 288 0
	addi 1,1,32
	.cfi_restore 27
	.cfi_restore 28
	.cfi_restore 29
	.cfi_restore 30
	.cfi_restore 31
.LCFI130:
	.cfi_def_cfa_offset 0
.LBB9366:
.LBB9351:
.LBB9335:
	.loc 4 286 0
	b _ZN22LanguagesSelectBrowser9SetButtonEiPKcbb
.LVL1099:
.LBE9335:
.LBE9351:
.LBE9366:
	.cfi_endproc
.LFE1641:
	.size	_ZN22LanguagesSelectBrowser12OnListChangeEii, .-_ZN22LanguagesSelectBrowser12OnListChangeEii
	.weak	_ZTS22LanguagesSelectBrowser
	.section	.rodata._ZTS22LanguagesSelectBrowser,"aG",@progbits,_ZTS22LanguagesSelectBrowser,comdat
	.align 2
	.type	_ZTS22LanguagesSelectBrowser, @object
	.size	_ZTS22LanguagesSelectBrowser, 25
_ZTS22LanguagesSelectBrowser:
	.string	"22LanguagesSelectBrowser"
	.weak	_ZTI22LanguagesSelectBrowser
	.section	.rodata._ZTI22LanguagesSelectBrowser,"aG",@progbits,_ZTI22LanguagesSelectBrowser,comdat
	.align 2
	.type	_ZTI22LanguagesSelectBrowser, @object
	.size	_ZTI22LanguagesSelectBrowser, 32
_ZTI22LanguagesSelectBrowser:
	.long	_ZTVN10__cxxabiv121__vmi_class_type_infoE+8
	.long	_ZTS22LanguagesSelectBrowser
	.long	0
	.long	2
	.long	_ZTI8GuiFrame
	.long	2
	.long	_ZTIN7sigslot9has_slotsINS_15single_threadedEEE
	.long	45058
	.weak	_ZTV22LanguagesSelectBrowser
	.section	.rodata._ZTV22LanguagesSelectBrowser,"aG",@progbits,_ZTV22LanguagesSelectBrowser,comdat
	.align 3
	.type	_ZTV22LanguagesSelectBrowser, @object
	.size	_ZTV22LanguagesSelectBrowser, 252
_ZTV22LanguagesSelectBrowser:
	.long	0
	.long	_ZTI22LanguagesSelectBrowser
	.long	_ZN22LanguagesSelectBrowserD1Ev
	.long	_ZN22LanguagesSelectBrowserD0Ev
	.long	_ZN10GuiElement9SetParentEPS_
	.long	_ZN10GuiElement9GetParentEv
	.long	_ZN10GuiElement7GetLeftEv
	.long	_ZN10GuiElement6GetTopEv
	.long	_ZN10GuiElement12GetZPositionEv
	.long	_ZN10GuiElement10GetLeftPosEv
	.long	_ZN10GuiElement9GetTopPosEv
	.long	_ZN10GuiElement8GetWidthEv
	.long	_ZN10GuiElement9GetHeightEv
	.long	_ZN10GuiElement7SetSizeEii
	.long	_ZN8GuiFrame10SetVisibleEb
	.long	_ZN10GuiElement9IsVisibleEv
	.long	_ZN10GuiElement12IsSelectableEv
	.long	_ZN10GuiElement11IsClickableEv
	.long	_ZN10GuiElement10IsHoldableEv
	.long	_ZN10GuiElement13SetSelectableEb
	.long	_ZN10GuiElement12SetClickableEb
	.long	_ZN10GuiElement11SetHoldableEb
	.long	_ZN10GuiElement8SetStateEii
	.long	_ZN10GuiElement8GetStateEv
	.long	_ZN10GuiElement12GetStateChanEv
	.long	_ZN8GuiFrame10ResetStateEv
	.long	_ZN10GuiElement8SetAlphaEi
	.long	_ZN10GuiElement8GetAlphaEv
	.long	_ZN10GuiElement8SetScaleEf
	.long	_ZN10GuiElement9SetScaleXEf
	.long	_ZN10GuiElement9SetScaleYEf
	.long	_ZN10GuiElement8GetScaleEv
	.long	_ZN10GuiElement9GetScaleXEv
	.long	_ZN10GuiElement9GetScaleYEv
	.long	_ZN10GuiElement6RumbleEv
	.long	_ZN10GuiElement9SetRumbleEb
	.long	_ZN10GuiElement9SetEffectEiii
	.long	_ZN10GuiElement15SetEffectOnOverEiii
	.long	_ZN10GuiElement13SetEffectGrowEv
	.long	_ZN10GuiElement12ResetEffectsEv
	.long	_ZNK10GuiElement9GetEffectEv
	.long	_ZNK10GuiElement10IsAnimatedEv
	.long	_ZN8GuiFrame9SetBoundsE4RectIiE
	.long	_ZN10GuiElement8IsInsideEii
	.long	_ZN10GuiElement11SetPositionEii
	.long	_ZN10GuiElement11SetPositionEiii
	.long	_ZN8GuiFrame11GetSelectedEv
	.long	_ZN10GuiElement12SetAlignmentEi
	.long	_ZNK10GuiElement12GetAlignmentEv
	.long	_ZN22LanguagesSelectBrowser6UpdateEP10GuiTrigger
	.long	_ZN22LanguagesSelectBrowser4DrawEv
	.long	_ZN10GuiElement13UpdateEffectsEv
	.long	_ZN8GuiFrame5CloseEv
	.long	_ZN8GuiFrame4showEv
	.long	_ZN8GuiFrame4hideEv
	.long	_ZN8GuiFrame4execEv
	.long	_ZN8GuiFrame12updateEventsEv
	.long	-176
	.long	_ZTI22LanguagesSelectBrowser
	.long	_ZThn176_N22LanguagesSelectBrowserD1Ev
	.long	_ZThn176_N22LanguagesSelectBrowserD0Ev
	.long	_ZN7sigslot15single_threaded4lockEv
	.long	_ZN7sigslot15single_threaded6unlockEv
	.weak	_ZTVN7sigslot15single_threadedE
	.section	.rodata._ZTVN7sigslot15single_threadedE,"aG",@progbits,_ZTVN7sigslot15single_threadedE,comdat
	.align 3
	.type	_ZTVN7sigslot15single_threadedE, @object
	.size	_ZTVN7sigslot15single_threadedE, 24
_ZTVN7sigslot15single_threadedE:
	.long	0
	.long	_ZTIN7sigslot15single_threadedE
	.long	_ZN7sigslot15single_threadedD1Ev
	.long	_ZN7sigslot15single_threadedD0Ev
	.long	_ZN7sigslot15single_threaded4lockEv
	.long	_ZN7sigslot15single_threaded6unlockEv
	.weak	_ZTVN7sigslot9has_slotsINS_15single_threadedEEE
	.section	.rodata._ZTVN7sigslot9has_slotsINS_15single_threadedEEE,"aG",@progbits,_ZTVN7sigslot9has_slotsINS_15single_threadedEEE,comdat
	.align 3
	.type	_ZTVN7sigslot9has_slotsINS_15single_threadedEEE, @object
	.size	_ZTVN7sigslot9has_slotsINS_15single_threadedEEE, 24
_ZTVN7sigslot9has_slotsINS_15single_threadedEEE:
	.long	0
	.long	_ZTIN7sigslot9has_slotsINS_15single_threadedEEE
	.long	_ZN7sigslot9has_slotsINS_15single_threadedEED1Ev
	.long	_ZN7sigslot9has_slotsINS_15single_threadedEED0Ev
	.long	_ZN7sigslot15single_threaded4lockEv
	.long	_ZN7sigslot15single_threaded6unlockEv
	.weak	_ZTVN7sigslot17_connection_base2IiiNS_15single_threadedEEE
	.section	.rodata._ZTVN7sigslot17_connection_base2IiiNS_15single_threadedEEE,"aG",@progbits,_ZTVN7sigslot17_connection_base2IiiNS_15single_threadedEEE,comdat
	.align 3
	.type	_ZTVN7sigslot17_connection_base2IiiNS_15single_threadedEEE, @object
	.size	_ZTVN7sigslot17_connection_base2IiiNS_15single_threadedEEE, 32
_ZTVN7sigslot17_connection_base2IiiNS_15single_threadedEEE:
	.long	0
	.long	_ZTIN7sigslot17_connection_base2IiiNS_15single_threadedEEE
	.long	_ZN7sigslot17_connection_base2IiiNS_15single_threadedEED1Ev
	.long	_ZN7sigslot17_connection_base2IiiNS_15single_threadedEED0Ev
	.long	__cxa_pure_virtual
	.long	__cxa_pure_virtual
	.long	__cxa_pure_virtual
	.long	__cxa_pure_virtual
	.weak	_ZTVN7sigslot12_connection2I22LanguagesSelectBrowseriiNS_15single_threadedEEE
	.section	.rodata._ZTVN7sigslot12_connection2I22LanguagesSelectBrowseriiNS_15single_threadedEEE,"aG",@progbits,_ZTVN7sigslot12_connection2I22LanguagesSelectBrowseriiNS_15single_threadedEEE,comdat
	.align 3
	.type	_ZTVN7sigslot12_connection2I22LanguagesSelectBrowseriiNS_15single_threadedEEE, @object
	.size	_ZTVN7sigslot12_connection2I22LanguagesSelectBrowseriiNS_15single_threadedEEE, 32
_ZTVN7sigslot12_connection2I22LanguagesSelectBrowseriiNS_15single_threadedEEE:
	.long	0
	.long	_ZTIN7sigslot12_connection2I22LanguagesSelectBrowseriiNS_15single_threadedEEE
	.long	_ZN7sigslot12_connection2I22LanguagesSelectBrowseriiNS_15single_threadedEED1Ev
	.long	_ZN7sigslot12_connection2I22LanguagesSelectBrowseriiNS_15single_threadedEED0Ev
	.long	_ZNK7sigslot12_connection2I22LanguagesSelectBrowseriiNS_15single_threadedEE7getdestEv
	.long	_ZN7sigslot12_connection2I22LanguagesSelectBrowseriiNS_15single_threadedEE4emitEii
	.long	_ZN7sigslot12_connection2I22LanguagesSelectBrowseriiNS_15single_threadedEE5cloneEv
	.long	_ZN7sigslot12_connection2I22LanguagesSelectBrowseriiNS_15single_threadedEE9duplicateEPNS_9has_slotsIS2_EE
	.weak	_ZTVN7sigslot17_connection_base3IP9GuiButtoniRK6_POINTNS_15single_threadedEEE
	.section	.rodata._ZTVN7sigslot17_connection_base3IP9GuiButtoniRK6_POINTNS_15single_threadedEEE,"aG",@progbits,_ZTVN7sigslot17_connection_base3IP9GuiButtoniRK6_POINTNS_15single_threadedEEE,comdat
	.align 3
	.type	_ZTVN7sigslot17_connection_base3IP9GuiButtoniRK6_POINTNS_15single_threadedEEE, @object
	.size	_ZTVN7sigslot17_connection_base3IP9GuiButtoniRK6_POINTNS_15single_threadedEEE, 32
_ZTVN7sigslot17_connection_base3IP9GuiButtoniRK6_POINTNS_15single_threadedEEE:
	.long	0
	.long	_ZTIN7sigslot17_connection_base3IP9GuiButtoniRK6_POINTNS_15single_threadedEEE
	.long	_ZN7sigslot17_connection_base3IP9GuiButtoniRK6_POINTNS_15single_threadedEED1Ev
	.long	_ZN7sigslot17_connection_base3IP9GuiButtoniRK6_POINTNS_15single_threadedEED0Ev
	.long	__cxa_pure_virtual
	.long	__cxa_pure_virtual
	.long	__cxa_pure_virtual
	.long	__cxa_pure_virtual
	.weak	_ZTVN7sigslot12_connection3I22LanguagesSelectBrowserP9GuiButtoniRK6_POINTNS_15single_threadedEEE
	.section	.rodata._ZTVN7sigslot12_connection3I22LanguagesSelectBrowserP9GuiButtoniRK6_POINTNS_15single_threadedEEE,"aG",@progbits,_ZTVN7sigslot12_connection3I22LanguagesSelectBrowserP9GuiButtoniRK6_POINTNS_15single_threadedEEE,comdat
	.align 3
	.type	_ZTVN7sigslot12_connection3I22LanguagesSelectBrowserP9GuiButtoniRK6_POINTNS_15single_threadedEEE, @object
	.size	_ZTVN7sigslot12_connection3I22LanguagesSelectBrowserP9GuiButtoniRK6_POINTNS_15single_threadedEEE, 32
_ZTVN7sigslot12_connection3I22LanguagesSelectBrowserP9GuiButtoniRK6_POINTNS_15single_threadedEEE:
	.long	0
	.long	_ZTIN7sigslot12_connection3I22LanguagesSelectBrowserP9GuiButtoniRK6_POINTNS_15single_threadedEEE
	.long	_ZN7sigslot12_connection3I22LanguagesSelectBrowserP9GuiButtoniRK6_POINTNS_15single_threadedEED1Ev
	.long	_ZN7sigslot12_connection3I22LanguagesSelectBrowserP9GuiButtoniRK6_POINTNS_15single_threadedEED0Ev
	.long	_ZNK7sigslot12_connection3I22LanguagesSelectBrowserP9GuiButtoniRK6_POINTNS_15single_threadedEE7getdestEv
	.long	_ZN7sigslot12_connection3I22LanguagesSelectBrowserP9GuiButtoniRK6_POINTNS_15single_threadedEE4emitES3_iS6_
	.long	_ZN7sigslot12_connection3I22LanguagesSelectBrowserP9GuiButtoniRK6_POINTNS_15single_threadedEE5cloneEv
	.long	_ZN7sigslot12_connection3I22LanguagesSelectBrowserP9GuiButtoniRK6_POINTNS_15single_threadedEE9duplicateEPNS_9has_slotsIS7_EE
	.weak	_ZTIN7sigslot9has_slotsINS_15single_threadedEEE
	.section	.rodata._ZTIN7sigslot9has_slotsINS_15single_threadedEEE,"aG",@progbits,_ZTIN7sigslot9has_slotsINS_15single_threadedEEE,comdat
	.align 2
	.type	_ZTIN7sigslot9has_slotsINS_15single_threadedEEE, @object
	.size	_ZTIN7sigslot9has_slotsINS_15single_threadedEEE, 12
_ZTIN7sigslot9has_slotsINS_15single_threadedEEE:
	.long	_ZTVN10__cxxabiv120__si_class_type_infoE+8
	.long	_ZTSN7sigslot9has_slotsINS_15single_threadedEEE
	.long	_ZTIN7sigslot15single_threadedE
	.weak	_ZTIN7sigslot15single_threadedE
	.section	.sdata._ZTIN7sigslot15single_threadedE,"awG",@progbits,_ZTIN7sigslot15single_threadedE,comdat
	.align 2
	.type	_ZTIN7sigslot15single_threadedE, @object
	.size	_ZTIN7sigslot15single_threadedE, 8
_ZTIN7sigslot15single_threadedE:
	.long	_ZTVN10__cxxabiv117__class_type_infoE+8
	.long	_ZTSN7sigslot15single_threadedE
	.weak	_ZTIN7sigslot17_connection_base2IiiNS_15single_threadedEEE
	.section	.sdata._ZTIN7sigslot17_connection_base2IiiNS_15single_threadedEEE,"awG",@progbits,_ZTIN7sigslot17_connection_base2IiiNS_15single_threadedEEE,comdat
	.align 2
	.type	_ZTIN7sigslot17_connection_base2IiiNS_15single_threadedEEE, @object
	.size	_ZTIN7sigslot17_connection_base2IiiNS_15single_threadedEEE, 8
_ZTIN7sigslot17_connection_base2IiiNS_15single_threadedEEE:
	.long	_ZTVN10__cxxabiv117__class_type_infoE+8
	.long	_ZTSN7sigslot17_connection_base2IiiNS_15single_threadedEEE
	.weak	_ZTIN7sigslot12_connection2I22LanguagesSelectBrowseriiNS_15single_threadedEEE
	.section	.rodata._ZTIN7sigslot12_connection2I22LanguagesSelectBrowseriiNS_15single_threadedEEE,"aG",@progbits,_ZTIN7sigslot12_connection2I22LanguagesSelectBrowseriiNS_15single_threadedEEE,comdat
	.align 2
	.type	_ZTIN7sigslot12_connection2I22LanguagesSelectBrowseriiNS_15single_threadedEEE, @object
	.size	_ZTIN7sigslot12_connection2I22LanguagesSelectBrowseriiNS_15single_threadedEEE, 12
_ZTIN7sigslot12_connection2I22LanguagesSelectBrowseriiNS_15single_threadedEEE:
	.long	_ZTVN10__cxxabiv120__si_class_type_infoE+8
	.long	_ZTSN7sigslot12_connection2I22LanguagesSelectBrowseriiNS_15single_threadedEEE
	.long	_ZTIN7sigslot17_connection_base2IiiNS_15single_threadedEEE
	.weak	_ZTIN7sigslot17_connection_base3IP9GuiButtoniRK6_POINTNS_15single_threadedEEE
	.section	.sdata._ZTIN7sigslot17_connection_base3IP9GuiButtoniRK6_POINTNS_15single_threadedEEE,"awG",@progbits,_ZTIN7sigslot17_connection_base3IP9GuiButtoniRK6_POINTNS_15single_threadedEEE,comdat
	.align 2
	.type	_ZTIN7sigslot17_connection_base3IP9GuiButtoniRK6_POINTNS_15single_threadedEEE, @object
	.size	_ZTIN7sigslot17_connection_base3IP9GuiButtoniRK6_POINTNS_15single_threadedEEE, 8
_ZTIN7sigslot17_connection_base3IP9GuiButtoniRK6_POINTNS_15single_threadedEEE:
	.long	_ZTVN10__cxxabiv117__class_type_infoE+8
	.long	_ZTSN7sigslot17_connection_base3IP9GuiButtoniRK6_POINTNS_15single_threadedEEE
	.weak	_ZTIN7sigslot12_connection3I22LanguagesSelectBrowserP9GuiButtoniRK6_POINTNS_15single_threadedEEE
	.section	.rodata._ZTIN7sigslot12_connection3I22LanguagesSelectBrowserP9GuiButtoniRK6_POINTNS_15single_threadedEEE,"aG",@progbits,_ZTIN7sigslot12_connection3I22LanguagesSelectBrowserP9GuiButtoniRK6_POINTNS_15single_threadedEEE,comdat
	.align 2
	.type	_ZTIN7sigslot12_connection3I22LanguagesSelectBrowserP9GuiButtoniRK6_POINTNS_15single_threadedEEE, @object
	.size	_ZTIN7sigslot12_connection3I22LanguagesSelectBrowserP9GuiButtoniRK6_POINTNS_15single_threadedEEE, 12
_ZTIN7sigslot12_connection3I22LanguagesSelectBrowserP9GuiButtoniRK6_POINTNS_15single_threadedEEE:
	.long	_ZTVN10__cxxabiv120__si_class_type_infoE+8
	.long	_ZTSN7sigslot12_connection3I22LanguagesSelectBrowserP9GuiButtoniRK6_POINTNS_15single_threadedEEE
	.long	_ZTIN7sigslot17_connection_base3IP9GuiButtoniRK6_POINTNS_15single_threadedEEE
	.weak	_ZTSN7sigslot9has_slotsINS_15single_threadedEEE
	.section	.rodata._ZTSN7sigslot9has_slotsINS_15single_threadedEEE,"aG",@progbits,_ZTSN7sigslot9has_slotsINS_15single_threadedEEE,comdat
	.align 2
	.type	_ZTSN7sigslot9has_slotsINS_15single_threadedEEE, @object
	.size	_ZTSN7sigslot9has_slotsINS_15single_threadedEEE, 44
_ZTSN7sigslot9has_slotsINS_15single_threadedEEE:
	.string	"N7sigslot9has_slotsINS_15single_threadedEEE"
	.weak	_ZTSN7sigslot15single_threadedE
	.section	.rodata._ZTSN7sigslot15single_threadedE,"aG",@progbits,_ZTSN7sigslot15single_threadedE,comdat
	.align 2
	.type	_ZTSN7sigslot15single_threadedE, @object
	.size	_ZTSN7sigslot15single_threadedE, 28
_ZTSN7sigslot15single_threadedE:
	.string	"N7sigslot15single_threadedE"
	.weak	_ZTSN7sigslot17_connection_base2IiiNS_15single_threadedEEE
	.section	.rodata._ZTSN7sigslot17_connection_base2IiiNS_15single_threadedEEE,"aG",@progbits,_ZTSN7sigslot17_connection_base2IiiNS_15single_threadedEEE,comdat
	.align 2
	.type	_ZTSN7sigslot17_connection_base2IiiNS_15single_threadedEEE, @object
	.size	_ZTSN7sigslot17_connection_base2IiiNS_15single_threadedEEE, 55
_ZTSN7sigslot17_connection_base2IiiNS_15single_threadedEEE:
	.string	"N7sigslot17_connection_base2IiiNS_15single_threadedEEE"
	.weak	_ZTSN7sigslot12_connection2I22LanguagesSelectBrowseriiNS_15single_threadedEEE
	.section	.rodata._ZTSN7sigslot12_connection2I22LanguagesSelectBrowseriiNS_15single_threadedEEE,"aG",@progbits,_ZTSN7sigslot12_connection2I22LanguagesSelectBrowseriiNS_15single_threadedEEE,comdat
	.align 2
	.type	_ZTSN7sigslot12_connection2I22LanguagesSelectBrowseriiNS_15single_threadedEEE, @object
	.size	_ZTSN7sigslot12_connection2I22LanguagesSelectBrowseriiNS_15single_threadedEEE, 74
_ZTSN7sigslot12_connection2I22LanguagesSelectBrowseriiNS_15single_threadedEEE:
	.string	"N7sigslot12_connection2I22LanguagesSelectBrowseriiNS_15single_threadedEEE"
	.weak	_ZTSN7sigslot17_connection_base3IP9GuiButtoniRK6_POINTNS_15single_threadedEEE
	.section	.rodata._ZTSN7sigslot17_connection_base3IP9GuiButtoniRK6_POINTNS_15single_threadedEEE,"aG",@progbits,_ZTSN7sigslot17_connection_base3IP9GuiButtoniRK6_POINTNS_15single_threadedEEE,comdat
	.align 2
	.type	_ZTSN7sigslot17_connection_base3IP9GuiButtoniRK6_POINTNS_15single_threadedEEE, @object
	.size	_ZTSN7sigslot17_connection_base3IP9GuiButtoniRK6_POINTNS_15single_threadedEEE, 74
_ZTSN7sigslot17_connection_base3IP9GuiButtoniRK6_POINTNS_15single_threadedEEE:
	.string	"N7sigslot17_connection_base3IP9GuiButtoniRK6_POINTNS_15single_threadedEEE"
	.weak	_ZTSN7sigslot12_connection3I22LanguagesSelectBrowserP9GuiButtoniRK6_POINTNS_15single_threadedEEE
	.section	.rodata._ZTSN7sigslot12_connection3I22LanguagesSelectBrowserP9GuiButtoniRK6_POINTNS_15single_threadedEEE,"aG",@progbits,_ZTSN7sigslot12_connection3I22LanguagesSelectBrowserP9GuiButtoniRK6_POINTNS_15single_threadedEEE,comdat
	.align 2
	.type	_ZTSN7sigslot12_connection3I22LanguagesSelectBrowserP9GuiButtoniRK6_POINTNS_15single_threadedEEE, @object
	.size	_ZTSN7sigslot12_connection3I22LanguagesSelectBrowserP9GuiButtoniRK6_POINTNS_15single_threadedEEE, 93
_ZTSN7sigslot12_connection3I22LanguagesSelectBrowserP9GuiButtoniRK6_POINTNS_15single_threadedEEE:
	.string	"N7sigslot12_connection3I22LanguagesSelectBrowserP9GuiButtoniRK6_POINTNS_15single_threadedEEE"
	.weak	_ZN7sigslot15single_threadedD1Ev
	.set	_ZN7sigslot15single_threadedD1Ev,_ZN7sigslot15single_threadedD2Ev
	.weak	_ZN7sigslot17_connection_base3IP9GuiButtoniRK6_POINTNS_15single_threadedEED1Ev
	.set	_ZN7sigslot17_connection_base3IP9GuiButtoniRK6_POINTNS_15single_threadedEED1Ev,_ZN7sigslot17_connection_base3IP9GuiButtoniRK6_POINTNS_15single_threadedEED2Ev
	.weak	_ZN7sigslot17_connection_base2IiiNS_15single_threadedEED1Ev
	.set	_ZN7sigslot17_connection_base2IiiNS_15single_threadedEED1Ev,_ZN7sigslot17_connection_base2IiiNS_15single_threadedEED2Ev
	.weak	_ZN7sigslot12_connection2I22LanguagesSelectBrowseriiNS_15single_threadedEED1Ev
	.set	_ZN7sigslot12_connection2I22LanguagesSelectBrowseriiNS_15single_threadedEED1Ev,_ZN7sigslot12_connection2I22LanguagesSelectBrowseriiNS_15single_threadedEED2Ev
	.weak	_ZN7sigslot12_connection3I22LanguagesSelectBrowserP9GuiButtoniRK6_POINTNS_15single_threadedEED1Ev
	.set	_ZN7sigslot12_connection3I22LanguagesSelectBrowserP9GuiButtoniRK6_POINTNS_15single_threadedEED1Ev,_ZN7sigslot12_connection3I22LanguagesSelectBrowserP9GuiButtoniRK6_POINTNS_15single_threadedEED2Ev
	.weak	_ZNSt6vectorIP7GuiTextSaIS1_EED1Ev
	.set	_ZNSt6vectorIP7GuiTextSaIS1_EED1Ev,_ZNSt6vectorIP7GuiTextSaIS1_EED2Ev
	.weak	_ZN7sigslot9has_slotsINS_15single_threadedEED1Ev
	.set	_ZN7sigslot9has_slotsINS_15single_threadedEED1Ev,_ZN7sigslot9has_slotsINS_15single_threadedEED2Ev
	.globl _ZN22LanguagesSelectBrowserD1Ev
	.set	_ZN22LanguagesSelectBrowserD1Ev,_ZN22LanguagesSelectBrowserD2Ev
	.set	.LTHUNK0,_ZN22LanguagesSelectBrowserD1Ev
	.set	.LTHUNK1,_ZN22LanguagesSelectBrowserD0Ev
	.globl _ZN22LanguagesSelectBrowserC1Ev
	.set	_ZN22LanguagesSelectBrowserC1Ev,_ZN22LanguagesSelectBrowserC2Ev
	.section	.rodata.cst4,"aM",@progbits,4
	.align 2
.LC1:
	.4byte	1501560836
.LC2:
	.4byte	1132396544
.LC3:
	.4byte	1056964608
.LC11:
	.4byte	1068394086
.LC12:
	.4byte	1059033239
.LC13:
	.4byte	1065718120
.LC21:
	.4byte	1061997773
	.section	.rodata.str1.4,"aMS",@progbits,1
	.align 2
.LC4:
	.string	"vector::_M_fill_insert"
	.zero	1
.LC5:
	.string	"button_click.wav"
	.zero	3
.LC6:
	.string	"button_over.wav"
.LC7:
	.string	"dialogue_box.png"
	.zero	3
.LC8:
	.string	"browser.png"
.LC9:
	.string	"browser_select_button_box.png"
	.zero	2
.LC10:
	.string	"browser_bg_selection.png"
	.zero	3
.LC14:
	.string	"Select Languages"
	.zero	3
.LC15:
	.string	"r=0 g=0 b=0 a=255 - prompt windows text color"
	.zero	2
.LC16:
	.string	"button_close.png"
	.zero	3
.LC17:
	.string	"button_close_over.png"
	.zero	2
.LC18:
	.string	"button_valid.png"
	.zero	3
.LC19:
	.string	"button_valid_over.png"
	.zero	2
.LC20:
	.string	"r=0 g=0 b=0 a=255 - prompt languageSelect list text color"
	.section	".text"
.Letext0:
	.file 16 "d:\\devkitpro\\devkitppc\\bin\\../lib/gcc/powerpc-eabi/4.6.3/../../../../powerpc-eabi/include/stdint.h"
	.file 17 "d:/devkitPro/libogc/include/gctypes.h"
	.file 18 "d:/devkitPro/libogc/include/ogc/gx.h"
	.file 19 "d:\\devkitpro\\devkitppc\\bin\\../lib/gcc/powerpc-eabi/4.6.3/../../../../powerpc-eabi/include/machine/_types.h"
	.file 20 "d:\\devkitpro\\devkitppc\\bin\\../lib/gcc/powerpc-eabi/4.6.3/../../../../powerpc-eabi/include/sys/lock.h"
	.file 21 "d:\\devkitpro\\devkitppc\\bin\\../lib/gcc/powerpc-eabi/4.6.3/include/stddef.h"
	.file 22 "d:\\devkitpro\\devkitppc\\bin\\../lib/gcc/powerpc-eabi/4.6.3/../../../../powerpc-eabi/include/sys/_types.h"
	.file 23 "d:\\devkitpro\\devkitppc\\bin\\../lib/gcc/powerpc-eabi/4.6.3/../../../../powerpc-eabi/include/sys/reent.h"
	.file 24 "d:\\devkitpro\\devkitppc\\bin\\../lib/gcc/powerpc-eabi/4.6.3/../../../../powerpc-eabi/include/time.h"
	.file 25 "<built-in>"
	.file 26 "d:\\devkitpro\\devkitppc\\bin\\../lib/gcc/powerpc-eabi/4.6.3/../../../../powerpc-eabi/include/stdio.h"
	.file 27 "d:\\devkitpro\\devkitppc\\bin\\../lib/gcc/powerpc-eabi/4.6.3/../../../../powerpc-eabi/include/wchar.h"
	.file 28 "d:\\devkitpro\\devkitppc\\bin\\../lib/gcc/powerpc-eabi/4.6.3/../../../../powerpc-eabi/include/c++/4.6.3/cwchar"
	.file 29 "d:\\devkitpro\\devkitppc\\bin\\../lib/gcc/powerpc-eabi/4.6.3/../../../../powerpc-eabi/include/c++/4.6.3/powerpc-eabi/bits/c++config.h"
	.file 30 "d:\\devkitpro\\devkitppc\\bin\\../lib/gcc/powerpc-eabi/4.6.3/../../../../powerpc-eabi/include/c++/4.6.3/clocale"
	.file 31 "d:\\devkitpro\\devkitppc\\bin\\../lib/gcc/powerpc-eabi/4.6.3/../../../../powerpc-eabi/include/c++/4.6.3/bits/basic_string.h"
	.file 32 "d:\\devkitpro\\devkitppc\\bin\\../lib/gcc/powerpc-eabi/4.6.3/../../../../powerpc-eabi/include/c++/4.6.3/bits/stringfwd.h"
	.file 33 "d:\\devkitpro\\devkitppc\\bin\\../lib/gcc/powerpc-eabi/4.6.3/../../../../powerpc-eabi/include/c++/4.6.3/bits/stl_construct.h"
	.file 34 "d:\\devkitpro\\devkitppc\\bin\\../lib/gcc/powerpc-eabi/4.6.3/../../../../powerpc-eabi/include/c++/4.6.3/bits/move.h"
	.file 35 "d:\\devkitpro\\devkitppc\\bin\\../lib/gcc/powerpc-eabi/4.6.3/../../../../powerpc-eabi/include/c++/4.6.3/bits/stl_uninitialized.h"
	.file 36 "d:\\devkitpro\\devkitppc\\bin\\../lib/gcc/powerpc-eabi/4.6.3/../../../../powerpc-eabi/include/c++/4.6.3/bits/cpp_type_traits.h"
	.file 37 "d:\\devkitpro\\devkitppc\\bin\\../lib/gcc/powerpc-eabi/4.6.3/../../../../powerpc-eabi/include/c++/4.6.3/debug/debug.h"
	.file 38 "d:\\devkitpro\\devkitppc\\bin\\../lib/gcc/powerpc-eabi/4.6.3/../../../../powerpc-eabi/include/c++/4.6.3/bits/char_traits.h"
	.file 39 "d:\\devkitpro\\devkitppc\\bin\\../lib/gcc/powerpc-eabi/4.6.3/../../../../powerpc-eabi/include/c++/4.6.3/bits/allocator.h"
	.file 40 "d:\\devkitpro\\devkitppc\\bin\\../lib/gcc/powerpc-eabi/4.6.3/../../../../powerpc-eabi/include/locale.h"
	.file 41 "d:\\devkitpro\\devkitppc\\bin\\../lib/gcc/powerpc-eabi/4.6.3/../../../../powerpc-eabi/include/c++/4.6.3/powerpc-eabi/bits/atomic_word.h"
	.file 42 "d:\\devkitpro\\devkitppc\\bin\\../lib/gcc/powerpc-eabi/4.6.3/../../../../powerpc-eabi/include/c++/4.6.3/ext/numeric_traits.h"
	.file 43 "d:\\devkitpro\\devkitppc\\bin\\../lib/gcc/powerpc-eabi/4.6.3/../../../../powerpc-eabi/include/c++/4.6.3/bits/basic_string.tcc"
	.file 44 "d:\\devkitpro\\devkitppc\\bin\\../lib/gcc/powerpc-eabi/4.6.3/../../../../powerpc-eabi/include/c++/4.6.3/bits/stl_iterator_base_types.h"
	.file 45 "d:/Projects/SaveGameManager/savegame-manager-gx/trunk/source/Language/../Gui/../Settings/../FileOperations/FileExtensions.h"
	.file 46 "d:/Projects/SaveGameManager/savegame-manager-gx/trunk/source/Language/../Gui/../Settings/../Controls/AppControls.hpp"
	.file 47 "d:/Projects/SaveGameManager/savegame-manager-gx/trunk/source/Language/../Gui/../Settings/CSettings.h"
	.file 48 "d:/Projects/SaveGameManager/savegame-manager-gx/trunk/source/Language/../Gui/../Tools/Rect.h"
	.file 49 "d:\\devkitpro\\devkitppc\\bin\\../lib/gcc/powerpc-eabi/4.6.3/../../../../powerpc-eabi/include/c++/4.6.3/bits/list.tcc"
	.file 50 "d:\\devkitpro\\devkitppc\\bin\\../lib/gcc/powerpc-eabi/4.6.3/../../../../powerpc-eabi/include/c++/4.6.3/bits/stl_function.h"
	.file 51 "d:/Projects/SaveGameManager/savegame-manager-gx/trunk/source/Language/../Network/URL_List.h"
	.file 52 "d:/Projects/SaveGameManager/savegame-manager-gx/trunk/source/Language/CLangList.hpp"
	.file 53 "d:\\devkitpro\\devkitppc\\bin\\../lib/gcc/powerpc-eabi/4.6.3/../../../../powerpc-eabi/include/c++/4.6.3/bits/stl_pair.h"
	.file 54 "d:\\devkitpro\\devkitppc\\bin\\../lib/gcc/powerpc-eabi/4.6.3/../../../../powerpc-eabi/include/c++/4.6.3/ext/type_traits.h"
	.file 55 "d:/Projects/SaveGameManager/savegame-manager-gx/trunk/source/Language/LanguagesSelectBrowser.hpp"
	.file 56 "d:\\devkitpro\\devkitppc\\bin\\../lib/gcc/powerpc-eabi/4.6.3/../../../../powerpc-eabi/include/c++/4.6.3/new"
	.file 57 "d:/Projects/SaveGameManager/savegame-manager-gx/trunk/source/Language/../Gui/gui_box.hpp"
	.file 58 "d:/Projects/SaveGameManager/savegame-manager-gx/trunk/source/Language/../Gui/gui_cross.hpp"
	.file 59 "d:/Projects/SaveGameManager/savegame-manager-gx/trunk/source/Language/../Gui/gui_checksign.hpp"