   1              		.file	"LanguagesSelectBrowser.cpp"
   2              		.section	".text"
   3              	.Ltext0:
   4              		.section	.text._ZN7sigslot15single_threadedD2Ev,"axG",@progbits,_ZN7sigslot15single_threadedD5Ev,c
   5              		.align 2
   6              		.weak	_ZN7sigslot15single_threadedD2Ev
   7              		.type	_ZN7sigslot15single_threadedD2Ev, @function
   8              	_ZN7sigslot15single_threadedD2Ev:
   9              	.LFB1148:
  10              		.file 1 "d:/Projects/SaveGameManager/savegame-manager-gx/trunk/source/Language/../Gui/../sigslot.h
  11              		.loc 1 104 0
  12              		.cfi_startproc
  13              	.LVL0:
  14              	.LBB4941:
  15              		.loc 1 105 0
  16 0000 3D200000 		lis 9,_ZTVN7sigslot15single_threadedE+8@ha
  17              	.LBE4941:
  18              		.loc 1 107 0
  19              	.LBB4942:
  20              		.loc 1 105 0
  21 0004 38090008 		la 0,_ZTVN7sigslot15single_threadedE+8@l(9)
  22 0008 90030000 		stw 0,0(3)
  23              	.LBE4942:
  24              		.loc 1 107 0
  25 000c 4E800020 		blr
  26              		.cfi_endproc
  27              	.LFE1148:
  28              		.size	_ZN7sigslot15single_threadedD2Ev, .-_ZN7sigslot15single_threadedD2Ev
  29              		.section	.text._ZN7sigslot15single_threaded4lockEv,"axG",@progbits,_ZN7sigslot15single_threaded4lo
  30              		.align 2
  31              		.weak	_ZN7sigslot15single_threaded4lockEv
  32              		.type	_ZN7sigslot15single_threaded4lockEv, @function
  33              	_ZN7sigslot15single_threaded4lockEv:
  34              	.LFB1151:
  35              		.loc 1 109 0
  36              		.cfi_startproc
  37              	.LVL1:
  38              		.loc 1 112 0
  39 0000 4E800020 		blr
  40              		.cfi_endproc
  41              	.LFE1151:
  42              		.size	_ZN7sigslot15single_threaded4lockEv, .-_ZN7sigslot15single_threaded4lockEv
  43              		.section	.text._ZN7sigslot15single_threaded6unlockEv,"axG",@progbits,_ZN7sigslot15single_threaded6
  44              		.align 2
  45              		.weak	_ZN7sigslot15single_threaded6unlockEv
  46              		.type	_ZN7sigslot15single_threaded6unlockEv, @function
  47              	_ZN7sigslot15single_threaded6unlockEv:
  48              	.LFB1152:
  49              		.loc 1 114 0
  50              		.cfi_startproc
  51              	.LVL2:
  52              		.loc 1 117 0
  53 0000 4E800020 		blr
  54              		.cfi_endproc
  55              	.LFE1152:
  56              		.size	_ZN7sigslot15single_threaded6unlockEv, .-_ZN7sigslot15single_threaded6unlockEv
  57              		.section	.text._ZN10GuiElement9SetParentEPS_,"axG",@progbits,_ZN10GuiElement9SetParentEPS_,comdat
  58              		.align 2
  59              		.weak	_ZN10GuiElement9SetParentEPS_
  60              		.type	_ZN10GuiElement9SetParentEPS_, @function
  61              	_ZN10GuiElement9SetParentEPS_:
  62              	.LFB1384:
  63              		.file 2 "d:/Projects/SaveGameManager/savegame-manager-gx/trunk/source/Language/../Gui/gui_element.
  64              		.loc 2 92 0
  65              		.cfi_startproc
  66              	.LVL3:
  67              		.loc 2 92 0
  68 0000 90830060 		stw 4,96(3)
  69 0004 4E800020 		blr
  70              		.cfi_endproc
  71              	.LFE1384:
  72              		.size	_ZN10GuiElement9SetParentEPS_, .-_ZN10GuiElement9SetParentEPS_
  73              		.section	.text._ZN10GuiElement9GetParentEv,"axG",@progbits,_ZN10GuiElement9GetParentEv,comdat
  74              		.align 2
  75              		.weak	_ZN10GuiElement9GetParentEv
  76              		.type	_ZN10GuiElement9GetParentEv, @function
  77              	_ZN10GuiElement9GetParentEv:
  78              	.LFB1385:
  79              		.loc 2 95 0
  80              		.cfi_startproc
  81              	.LVL4:
  82              		.loc 2 95 0
  83 0000 80630060 		lwz 3,96(3)
  84              	.LVL5:
  85 0004 4E800020 		blr
  86              		.cfi_endproc
  87              	.LFE1385:
  88              		.size	_ZN10GuiElement9GetParentEv, .-_ZN10GuiElement9GetParentEv
  89              		.section	.text._ZN10GuiElement12GetZPositionEv,"axG",@progbits,_ZN10GuiElement12GetZPositionEv,com
  90              		.align 2
  91              		.weak	_ZN10GuiElement12GetZPositionEv
  92              		.type	_ZN10GuiElement12GetZPositionEv, @function
  93              	_ZN10GuiElement12GetZPositionEv:
  94              	.LFB1386:
  95              		.loc 2 106 0
  96              		.cfi_startproc
  97              	.LVL6:
  98 0000 7C0802A6 		mflr 0
  99 0004 9421FFF0 		stwu 1,-16(1)
 100              	.LCFI0:
 101              		.cfi_def_cfa_offset 16
 102              		.cfi_register 65, 0
 103 0008 93E1000C 		stw 31,12(1)
 104 000c 7C7F1B78 		mr 31,3
 105              		.cfi_offset 31, -4
 106 0010 90010014 		stw 0,20(1)
 107              	.LBB4943:
 108              		.loc 2 110 0
 109 0014 81630060 		lwz 11,96(3)
 110              		.loc 2 108 0
 111 0018 38600000 		li 3,0
 112              	.LVL7:
 113              		.loc 2 110 0
 114 001c 2F8B0000 		cmpwi 7,11,0
 115 0020 419E0018 		beq- 7,.L8
 116              		.cfi_offset 65, 4
 117              		.loc 2 111 0
 118 0024 812B0000 		lwz 9,0(11)
 119 0028 7D635B78 		mr 3,11
 120 002c 80090018 		lwz 0,24(9)
 121 0030 7C0903A6 		mtctr 0
 122 0034 4E800421 		bctrl
 123              	.LVL8:
 124              	.L8:
 125              		.loc 2 113 0
 126 0038 801F0034 		lwz 0,52(31)
 127              	.LBE4943:
 128              		.loc 2 114 0
 129 003c 83E1000C 		lwz 31,12(1)
 130              	.LVL9:
 131 0040 7C630214 		add 3,3,0
 132              	.LVL10:
 133 0044 80010014 		lwz 0,20(1)
 134 0048 38210010 		addi 1,1,16
 135              	.LCFI1:
 136              		.cfi_def_cfa_offset 0
 137              		.cfi_restore 31
 138 004c 7C0803A6 		mtlr 0
 139 0050 4E800020 		blr
 140              		.cfi_endproc
 141              	.LFE1386:
 142              		.size	_ZN10GuiElement12GetZPositionEv, .-_ZN10GuiElement12GetZPositionEv
 143              		.section	.text._ZN10GuiElement10GetLeftPosEv,"axG",@progbits,_ZN10GuiElement10GetLeftPosEv,comdat
 144              		.align 2
 145              		.weak	_ZN10GuiElement10GetLeftPosEv
 146              		.type	_ZN10GuiElement10GetLeftPosEv, @function
 147              	_ZN10GuiElement10GetLeftPosEv:
 148              	.LFB1387:
 149              		.loc 2 116 0
 150              		.cfi_startproc
 151              	.LVL11:
 152              		.loc 2 116 0
 153 0000 8063002C 		lwz 3,44(3)
 154              	.LVL12:
 155 0004 4E800020 		blr
 156              		.cfi_endproc
 157              	.LFE1387:
 158              		.size	_ZN10GuiElement10GetLeftPosEv, .-_ZN10GuiElement10GetLeftPosEv
 159              		.section	.text._ZN10GuiElement9GetTopPosEv,"axG",@progbits,_ZN10GuiElement9GetTopPosEv,comdat
 160              		.align 2
 161              		.weak	_ZN10GuiElement9GetTopPosEv
 162              		.type	_ZN10GuiElement9GetTopPosEv, @function
 163              	_ZN10GuiElement9GetTopPosEv:
 164              	.LFB1388:
 165              		.loc 2 118 0
 166              		.cfi_startproc
 167              	.LVL13:
 168              		.loc 2 118 0
 169 0000 80630030 		lwz 3,48(3)
 170              	.LVL14:
 171 0004 4E800020 		blr
 172              		.cfi_endproc
 173              	.LFE1388:
 174              		.size	_ZN10GuiElement9GetTopPosEv, .-_ZN10GuiElement9GetTopPosEv
 175              		.section	.text._ZN10GuiElement8GetWidthEv,"axG",@progbits,_ZN10GuiElement8GetWidthEv,comdat
 176              		.align 2
 177              		.weak	_ZN10GuiElement8GetWidthEv
 178              		.type	_ZN10GuiElement8GetWidthEv, @function
 179              	_ZN10GuiElement8GetWidthEv:
 180              	.LFB1389:
 181              		.loc 2 121 0
 182              		.cfi_startproc
 183              	.LVL15:
 184              		.loc 2 121 0
 185 0000 80630024 		lwz 3,36(3)
 186              	.LVL16:
 187 0004 4E800020 		blr
 188              		.cfi_endproc
 189              	.LFE1389:
 190              		.size	_ZN10GuiElement8GetWidthEv, .-_ZN10GuiElement8GetWidthEv
 191              		.section	.text._ZN10GuiElement9GetHeightEv,"axG",@progbits,_ZN10GuiElement9GetHeightEv,comdat
 192              		.align 2
 193              		.weak	_ZN10GuiElement9GetHeightEv
 194              		.type	_ZN10GuiElement9GetHeightEv, @function
 195              	_ZN10GuiElement9GetHeightEv:
 196              	.LFB1390:
 197              		.loc 2 124 0
 198              		.cfi_startproc
 199              	.LVL17:
 200              		.loc 2 124 0
 201 0000 80630028 		lwz 3,40(3)
 202              	.LVL18:
 203 0004 4E800020 		blr
 204              		.cfi_endproc
 205              	.LFE1390:
 206              		.size	_ZN10GuiElement9GetHeightEv, .-_ZN10GuiElement9GetHeightEv
 207              		.section	.text._ZN10GuiElement7SetSizeEii,"axG",@progbits,_ZN10GuiElement7SetSizeEii,comdat
 208              		.align 2
 209              		.weak	_ZN10GuiElement7SetSizeEii
 210              		.type	_ZN10GuiElement7SetSizeEii, @function
 211              	_ZN10GuiElement7SetSizeEii:
 212              	.LFB1391:
 213              		.loc 2 128 0
 214              		.cfi_startproc
 215              	.LVL19:
 216              		.loc 2 130 0
 217 0000 90830024 		stw 4,36(3)
 218              		.loc 2 132 0
 219              		.loc 2 131 0
 220 0004 90A30028 		stw 5,40(3)
 221              		.loc 2 132 0
 222 0008 4E800020 		blr
 223              		.cfi_endproc
 224              	.LFE1391:
 225              		.size	_ZN10GuiElement7SetSizeEii, .-_ZN10GuiElement7SetSizeEii
 226              		.section	.text._ZN10GuiElement9IsVisibleEv,"axG",@progbits,_ZN10GuiElement9IsVisibleEv,comdat
 227              		.align 2
 228              		.weak	_ZN10GuiElement9IsVisibleEv
 229              		.type	_ZN10GuiElement9IsVisibleEv, @function
 230              	_ZN10GuiElement9IsVisibleEv:
 231              	.LFB1393:
 232              		.loc 2 142 0
 233              		.cfi_startproc
 234              	.LVL20:
 235              		.loc 2 142 0
 236 0000 8863001D 		lbz 3,29(3)
 237              	.LVL21:
 238 0004 4E800020 		blr
 239              		.cfi_endproc
 240              	.LFE1393:
 241              		.size	_ZN10GuiElement9IsVisibleEv, .-_ZN10GuiElement9IsVisibleEv
 242              		.section	.text._ZN10GuiElement12IsSelectableEv,"axG",@progbits,_ZN10GuiElement12IsSelectableEv,com
 243              		.align 2
 244              		.weak	_ZN10GuiElement12IsSelectableEv
 245              		.type	_ZN10GuiElement12IsSelectableEv, @function
 246              	_ZN10GuiElement12IsSelectableEv:
 247              	.LFB1394:
 248              		.loc 2 145 0
 249              		.cfi_startproc
 250              	.LVL22:
 251              		.loc 2 149 0
 252 0000 80030048 		lwz 0,72(3)
 253 0004 39200000 		li 9,0
 254 0008 2F800004 		cmpwi 7,0,4
 255 000c 419E0010 		beq- 7,.L18
 256              		.loc 2 149 0 is_stmt 0 discriminator 1
 257 0010 2F800002 		cmpwi 7,0,2
 258 0014 419E0008 		beq- 7,.L18
 259              		.loc 2 149 0 discriminator 3
 260 0018 8923001E 		lbz 9,30(3)
 261              	.L18:
 262              		.loc 2 150 0 is_stmt 1 discriminator 5
 263 001c 7D234B78 		mr 3,9
 264              	.LVL23:
 265 0020 4E800020 		blr
 266              		.cfi_endproc
 267              	.LFE1394:
 268              		.size	_ZN10GuiElement12IsSelectableEv, .-_ZN10GuiElement12IsSelectableEv
 269              		.section	.text._ZN10GuiElement11IsClickableEv,"axG",@progbits,_ZN10GuiElement11IsClickableEv,comda
 270              		.align 2
 271              		.weak	_ZN10GuiElement11IsClickableEv
 272              		.type	_ZN10GuiElement11IsClickableEv, @function
 273              	_ZN10GuiElement11IsClickableEv:
 274              	.LFB1395:
 275              		.loc 2 153 0
 276              		.cfi_startproc
 277              	.LVL24:
 278              		.loc 2 158 0
 279 0000 80030048 		lwz 0,72(3)
 280 0004 39200000 		li 9,0
 281 0008 2F800004 		cmpwi 7,0,4
 282 000c 419E0018 		beq- 7,.L22
 283              		.loc 2 158 0 is_stmt 0 discriminator 1
 284 0010 2F800002 		cmpwi 7,0,2
 285 0014 419E0010 		beq- 7,.L22
 286              		.loc 2 158 0 discriminator 3
 287 0018 2F800003 		cmpwi 7,0,3
 288 001c 419E0008 		beq- 7,.L22
 289              		.loc 2 158 0 discriminator 4
 290 0020 8923001F 		lbz 9,31(3)
 291              	.L22:
 292              		.loc 2 159 0 is_stmt 1 discriminator 6
 293 0024 7D234B78 		mr 3,9
 294              	.LVL25:
 295 0028 4E800020 		blr
 296              		.cfi_endproc
 297              	.LFE1395:
 298              		.size	_ZN10GuiElement11IsClickableEv, .-_ZN10GuiElement11IsClickableEv
 299              		.section	.text._ZN10GuiElement10IsHoldableEv,"axG",@progbits,_ZN10GuiElement10IsHoldableEv,comdat
 300              		.align 2
 301              		.weak	_ZN10GuiElement10IsHoldableEv
 302              		.type	_ZN10GuiElement10IsHoldableEv, @function
 303              	_ZN10GuiElement10IsHoldableEv:
 304              	.LFB1396:
 305              		.loc 2 162 0
 306              		.cfi_startproc
 307              	.LVL26:
 308              		.loc 2 162 0
 309 0000 81230048 		lwz 9,72(3)
 310 0004 38000000 		li 0,0
 311 0008 2F890004 		cmpwi 7,9,4
 312 000c 419E0008 		beq- 7,.L27
 313              		.loc 2 162 0 is_stmt 0 discriminator 1
 314 0010 88030020 		lbz 0,32(3)
 315              	.L27:
 316              		.loc 2 162 0 discriminator 4
 317 0014 7C030378 		mr 3,0
 318              	.LVL27:
 319 0018 4E800020 		blr
 320              		.cfi_endproc
 321              	.LFE1396:
 322              		.size	_ZN10GuiElement10IsHoldableEv, .-_ZN10GuiElement10IsHoldableEv
 323              		.section	.text._ZN10GuiElement13SetSelectableEb,"axG",@progbits,_ZN10GuiElement13SetSelectableEb,c
 324              		.align 2
 325              		.weak	_ZN10GuiElement13SetSelectableEb
 326              		.type	_ZN10GuiElement13SetSelectableEb, @function
 327              	_ZN10GuiElement13SetSelectableEb:
 328              	.LFB1397:
 329              		.loc 2 165 0 is_stmt 1
 330              		.cfi_startproc
 331              	.LVL28:
 332              		.loc 2 165 0
 333 0000 9883001E 		stb 4,30(3)
 334 0004 4E800020 		blr
 335              		.cfi_endproc
 336              	.LFE1397:
 337              		.size	_ZN10GuiElement13SetSelectableEb, .-_ZN10GuiElement13SetSelectableEb
 338              		.section	.text._ZN10GuiElement12SetClickableEb,"axG",@progbits,_ZN10GuiElement12SetClickableEb,com
 339              		.align 2
 340              		.weak	_ZN10GuiElement12SetClickableEb
 341              		.type	_ZN10GuiElement12SetClickableEb, @function
 342              	_ZN10GuiElement12SetClickableEb:
 343              	.LFB1398:
 344              		.loc 2 168 0
 345              		.cfi_startproc
 346              	.LVL29:
 347              		.loc 2 168 0
 348 0000 9883001F 		stb 4,31(3)
 349 0004 4E800020 		blr
 350              		.cfi_endproc
 351              	.LFE1398:
 352              		.size	_ZN10GuiElement12SetClickableEb, .-_ZN10GuiElement12SetClickableEb
 353              		.section	.text._ZN10GuiElement11SetHoldableEb,"axG",@progbits,_ZN10GuiElement11SetHoldableEb,comda
 354              		.align 2
 355              		.weak	_ZN10GuiElement11SetHoldableEb
 356              		.type	_ZN10GuiElement11SetHoldableEb, @function
 357              	_ZN10GuiElement11SetHoldableEb:
 358              	.LFB1399:
 359              		.loc 2 171 0
 360              		.cfi_startproc
 361              	.LVL30:
 362              		.loc 2 171 0
 363 0000 98830020 		stb 4,32(3)
 364 0004 4E800020 		blr
 365              		.cfi_endproc
 366              	.LFE1399:
 367              		.size	_ZN10GuiElement11SetHoldableEb, .-_ZN10GuiElement11SetHoldableEb
 368              		.section	.text._ZN10GuiElement8GetStateEv,"axG",@progbits,_ZN10GuiElement8GetStateEv,comdat
 369              		.align 2
 370              		.weak	_ZN10GuiElement8GetStateEv
 371              		.type	_ZN10GuiElement8GetStateEv, @function
 372              	_ZN10GuiElement8GetStateEv:
 373              	.LFB1400:
 374              		.loc 2 178 0
 375              		.cfi_startproc
 376              	.LVL31:
 377              		.loc 2 178 0
 378 0000 80630048 		lwz 3,72(3)
 379              	.LVL32:
 380 0004 4E800020 		blr
 381              		.cfi_endproc
 382              	.LFE1400:
 383              		.size	_ZN10GuiElement8GetStateEv, .-_ZN10GuiElement8GetStateEv
 384              		.section	.text._ZN10GuiElement12GetStateChanEv,"axG",@progbits,_ZN10GuiElement12GetStateChanEv,com
 385              		.align 2
 386              		.weak	_ZN10GuiElement12GetStateChanEv
 387              		.type	_ZN10GuiElement12GetStateChanEv, @function
 388              	_ZN10GuiElement12GetStateChanEv:
 389              	.LFB1401:
 390              		.loc 2 181 0
 391              		.cfi_startproc
 392              	.LVL33:
 393              		.loc 2 181 0
 394 0000 8063004C 		lwz 3,76(3)
 395              	.LVL34:
 396 0004 4E800020 		blr
 397              		.cfi_endproc
 398              	.LFE1401:
 399              		.size	_ZN10GuiElement12GetStateChanEv, .-_ZN10GuiElement12GetStateChanEv
 400              		.section	.text._ZN10GuiElement8SetAlphaEi,"axG",@progbits,_ZN10GuiElement8SetAlphaEi,comdat
 401              		.align 2
 402              		.weak	_ZN10GuiElement8SetAlphaEi
 403              		.type	_ZN10GuiElement8SetAlphaEi, @function
 404              	_ZN10GuiElement8SetAlphaEi:
 405              	.LFB1403:
 406              		.loc 2 190 0
 407              		.cfi_startproc
 408              	.LVL35:
 409              		.loc 2 190 0
 410 0000 90830038 		stw 4,56(3)
 411 0004 4E800020 		blr
 412              		.cfi_endproc
 413              	.LFE1403:
 414              		.size	_ZN10GuiElement8SetAlphaEi, .-_ZN10GuiElement8SetAlphaEi
 415              		.section	.text._ZN10GuiElement8GetAlphaEv,"axG",@progbits,_ZN10GuiElement8GetAlphaEv,comdat
 416              		.align 2
 417              		.weak	_ZN10GuiElement8GetAlphaEv
 418              		.type	_ZN10GuiElement8GetAlphaEv, @function
 419              	_ZN10GuiElement8GetAlphaEv:
 420              	.LFB1404:
 421              		.loc 2 194 0
 422              		.cfi_startproc
 423              	.LVL36:
 424 0000 7C0802A6 		mflr 0
 425 0004 9421FFD8 		stwu 1,-40(1)
 426              	.LCFI2:
 427              		.cfi_def_cfa_offset 40
 428              		.cfi_register 65, 0
 429 0008 93E10024 		stw 31,36(1)
 430 000c 9001002C 		stw 0,44(1)
 431              	.LBB4944:
 432              		.loc 2 198 0
 433 0010 83E3006C 		lwz 31,108(3)
 434              		.cfi_offset 65, 4
 435              		.cfi_offset 31, -4
 436 0014 2F9F0000 		cmpwi 7,31,0
 437 0018 419C0094 		blt- 7,.L38
 438              	.L36:
 439              	.LVL37:
 440              		.loc 2 203 0
 441 001c 80630060 		lwz 3,96(3)
 442              	.LVL38:
 443 0020 2F830000 		cmpwi 7,3,0
 444 0024 419E0070 		beq- 7,.L37
 445              		.loc 2 204 0
 446 0028 81230000 		lwz 9,0(3)
 447 002c 6FFF8000 		xoris 31,31,0x8000
 448              	.LVL39:
 449 0030 80090064 		lwz 0,100(9)
 450 0034 7C0903A6 		mtctr 0
 451 0038 4E800421 		bctrl
 452 003c 3C004330 		lis 0,0x4330
 453 0040 6C638000 		xoris 3,3,0x8000
 454 0044 90010010 		stw 0,16(1)
 455 0048 90610014 		stw 3,20(1)
 456 004c 3D200000 		lis 9,.LC1@ha
 457 0050 C0090000 		lfs 0,.LC1@l(9)
 458 0054 3D200000 		lis 9,.LC2@ha
 459 0058 C9A10010 		lfd 13,16(1)
 460 005c C1890004 		lfs 12,.LC2@l(9)
 461 0060 39210018 		addi 9,1,24
 462 0064 FDAD0028 		fsub 13,13,0
 463 0068 93E1000C 		stw 31,12(1)
 464 006c 90010008 		stw 0,8(1)
 465 0070 FDA06818 		frsp 13,13
 466 0074 EDAD6024 		fdivs 13,13,12
 467 0078 C9810008 		lfd 12,8(1)
 468 007c FC0C0028 		fsub 0,12,0
 469 0080 FC000018 		frsp 0,0
 470 0084 EC000372 		fmuls 0,0,13
 471 0088 FC00001E 		fctiwz 0,0
 472 008c 7C004FAE 		stfiwx 0,0,9
 473 0090 83E10018 		lwz 31,24(1)
 474              	.LVL40:
 475              	.L37:
 476              	.LBE4944:
 477              		.loc 2 207 0
 478 0094 8001002C 		lwz 0,44(1)
 479 0098 7FE3FB78 		mr 3,31
 480 009c 83E10024 		lwz 31,36(1)
 481              	.LVL41:
 482 00a0 7C0803A6 		mtlr 0
 483 00a4 38210028 		addi 1,1,40
 484              		.cfi_remember_state
 485              	.LCFI3:
 486              		.cfi_def_cfa_offset 0
 487              		.cfi_restore 31
 488 00a8 4E800020 		blr
 489              	.LVL42:
 490              	.L38:
 491              	.LCFI4:
 492              		.cfi_restore_state
 493              	.LBB4945:
 494              		.loc 2 201 0
 495 00ac 83E30038 		lwz 31,56(3)
 496              	.LVL43:
 497 00b0 4BFFFF6C 		b .L36
 498              	.LBE4945:
 499              		.cfi_endproc
 500              	.LFE1404:
 501              		.size	_ZN10GuiElement8GetAlphaEv, .-_ZN10GuiElement8GetAlphaEv
 502              		.section	.text._ZN10GuiElement8SetScaleEf,"axG",@progbits,_ZN10GuiElement8SetScaleEf,comdat
 503              		.align 2
 504              		.weak	_ZN10GuiElement8SetScaleEf
 505              		.type	_ZN10GuiElement8SetScaleEf, @function
 506              	_ZN10GuiElement8SetScaleEf:
 507              	.LFB1405:
 508              		.loc 2 210 0
 509              		.cfi_startproc
 510              	.LVL44:
 511              		.loc 2 212 0
 512 0000 D023003C 		stfs 1,60(3)
 513              		.loc 2 214 0
 514              		.loc 2 213 0
 515 0004 D0230040 		stfs 1,64(3)
 516              		.loc 2 214 0
 517 0008 4E800020 		blr
 518              		.cfi_endproc
 519              	.LFE1405:
 520              		.size	_ZN10GuiElement8SetScaleEf, .-_ZN10GuiElement8SetScaleEf
 521              		.section	.text._ZN10GuiElement9SetScaleXEf,"axG",@progbits,_ZN10GuiElement9SetScaleXEf,comdat
 522              		.align 2
 523              		.weak	_ZN10GuiElement9SetScaleXEf
 524              		.type	_ZN10GuiElement9SetScaleXEf, @function
 525              	_ZN10GuiElement9SetScaleXEf:
 526              	.LFB1406:
 527              		.loc 2 217 0
 528              		.cfi_startproc
 529              	.LVL45:
 530              		.loc 2 217 0
 531 0000 D023003C 		stfs 1,60(3)
 532 0004 4E800020 		blr
 533              		.cfi_endproc
 534              	.LFE1406:
 535              		.size	_ZN10GuiElement9SetScaleXEf, .-_ZN10GuiElement9SetScaleXEf
 536              		.section	.text._ZN10GuiElement9SetScaleYEf,"axG",@progbits,_ZN10GuiElement9SetScaleYEf,comdat
 537              		.align 2
 538              		.weak	_ZN10GuiElement9SetScaleYEf
 539              		.type	_ZN10GuiElement9SetScaleYEf, @function
 540              	_ZN10GuiElement9SetScaleYEf:
 541              	.LFB1407:
 542              		.loc 2 220 0
 543              		.cfi_startproc
 544              	.LVL46:
 545              		.loc 2 220 0
 546 0000 D0230040 		stfs 1,64(3)
 547 0004 4E800020 		blr
 548              		.cfi_endproc
 549              	.LFE1407:
 550              		.size	_ZN10GuiElement9SetScaleYEf, .-_ZN10GuiElement9SetScaleYEf
 551              		.section	.text._ZN10GuiElement8GetScaleEv,"axG",@progbits,_ZN10GuiElement8GetScaleEv,comdat
 552              		.align 2
 553              		.weak	_ZN10GuiElement8GetScaleEv
 554              		.type	_ZN10GuiElement8GetScaleEv, @function
 555              	_ZN10GuiElement8GetScaleEv:
 556              	.LFB1408:
 557              		.loc 2 223 0
 558              		.cfi_startproc
 559              	.LVL47:
 560 0000 7C0802A6 		mflr 0
 561 0004 9421FFF0 		stwu 1,-16(1)
 562              	.LCFI5:
 563              		.cfi_def_cfa_offset 16
 564              		.cfi_register 65, 0
 565              	.LBB4946:
 566              		.loc 2 225 0
 567 0008 3D200000 		lis 9,.LC3@ha
 568              	.LBE4946:
 569              		.loc 2 223 0
 570 000c DBE10008 		stfd 31,8(1)
 571 0010 90010014 		stw 0,20(1)
 572              	.LBB4947:
 573              		.loc 2 225 0
 574 0014 C0030040 		lfs 0,64(3)
 575 0018 C3E3003C 		lfs 31,60(3)
 576              		.cfi_offset 65, 4
 577              		.cfi_offset 63, -8
 578              		.loc 2 227 0
 579 001c 81630060 		lwz 11,96(3)
 580              		.loc 2 225 0
 581 0020 EFFF002A 		fadds 31,31,0
 582 0024 C0090008 		lfs 0,.LC3@l(9)
 583              		.loc 2 227 0
 584 0028 2F8B0000 		cmpwi 7,11,0
 585              		.loc 2 225 0
 586 002c EFFF0032 		fmuls 31,31,0
 587 0030 C0030070 		lfs 0,112(3)
 588 0034 EFFF0032 		fmuls 31,31,0
 589              	.LVL48:
 590              		.loc 2 227 0
 591 0038 419E001C 		beq- 7,.L43
 592              		.loc 2 228 0
 593 003c 812B0000 		lwz 9,0(11)
 594 0040 7D635B78 		mr 3,11
 595              	.LVL49:
 596 0044 80090074 		lwz 0,116(9)
 597 0048 7C0903A6 		mtctr 0
 598 004c 4E800421 		bctrl
 599 0050 EFFF0072 		fmuls 31,31,1
 600              	.LVL50:
 601              	.L43:
 602              	.LBE4947:
 603              		.loc 2 231 0
 604 0054 80010014 		lwz 0,20(1)
 605 0058 FC20F890 		fmr 1,31
 606 005c CBE10008 		lfd 31,8(1)
 607              	.LVL51:
 608 0060 7C0803A6 		mtlr 0
 609 0064 38210010 		addi 1,1,16
 610              	.LCFI6:
 611              		.cfi_def_cfa_offset 0
 612              		.cfi_restore 63
 613 0068 4E800020 		blr
 614              		.cfi_endproc
 615              	.LFE1408:
 616              		.size	_ZN10GuiElement8GetScaleEv, .-_ZN10GuiElement8GetScaleEv
 617              		.section	.text._ZN10GuiElement9GetScaleXEv,"axG",@progbits,_ZN10GuiElement9GetScaleXEv,comdat
 618              		.align 2
 619              		.weak	_ZN10GuiElement9GetScaleXEv
 620              		.type	_ZN10GuiElement9GetScaleXEv, @function
 621              	_ZN10GuiElement9GetScaleXEv:
 622              	.LFB1409:
 623              		.loc 2 234 0
 624              		.cfi_startproc
 625              	.LVL52:
 626 0000 7C0802A6 		mflr 0
 627 0004 9421FFF0 		stwu 1,-16(1)
 628              	.LCFI7:
 629              		.cfi_def_cfa_offset 16
 630              		.cfi_register 65, 0
 631 0008 DBE10008 		stfd 31,8(1)
 632 000c 90010014 		stw 0,20(1)
 633              	.LBB4948:
 634              		.loc 2 238 0
 635 0010 81630060 		lwz 11,96(3)
 636              		.loc 2 236 0
 637 0014 C3E3003C 		lfs 31,60(3)
 638              		.cfi_offset 65, 4
 639              		.cfi_offset 63, -8
 640              		.loc 2 238 0
 641 0018 2F8B0000 		cmpwi 7,11,0
 642              		.loc 2 236 0
 643 001c C0030070 		lfs 0,112(3)
 644 0020 EFFF0032 		fmuls 31,31,0
 645              	.LVL53:
 646              		.loc 2 238 0
 647 0024 419E001C 		beq- 7,.L45
 648              		.loc 2 239 0
 649 0028 812B0000 		lwz 9,0(11)
 650 002c 7D635B78 		mr 3,11
 651              	.LVL54:
 652 0030 80090078 		lwz 0,120(9)
 653 0034 7C0903A6 		mtctr 0
 654 0038 4E800421 		bctrl
 655 003c EFFF0072 		fmuls 31,31,1
 656              	.LVL55:
 657              	.L45:
 658              	.LBE4948:
 659              		.loc 2 242 0
 660 0040 80010014 		lwz 0,20(1)
 661 0044 FC20F890 		fmr 1,31
 662 0048 CBE10008 		lfd 31,8(1)
 663              	.LVL56:
 664 004c 7C0803A6 		mtlr 0
 665 0050 38210010 		addi 1,1,16
 666              	.LCFI8:
 667              		.cfi_def_cfa_offset 0
 668              		.cfi_restore 63
 669 0054 4E800020 		blr
 670              		.cfi_endproc
 671              	.LFE1409:
 672              		.size	_ZN10GuiElement9GetScaleXEv, .-_ZN10GuiElement9GetScaleXEv
 673              		.section	.text._ZN10GuiElement9GetScaleYEv,"axG",@progbits,_ZN10GuiElement9GetScaleYEv,comdat
 674              		.align 2
 675              		.weak	_ZN10GuiElement9GetScaleYEv
 676              		.type	_ZN10GuiElement9GetScaleYEv, @function
 677              	_ZN10GuiElement9GetScaleYEv:
 678              	.LFB1410:
 679              		.loc 2 245 0
 680              		.cfi_startproc
 681              	.LVL57:
 682 0000 7C0802A6 		mflr 0
 683 0004 9421FFF0 		stwu 1,-16(1)
 684              	.LCFI9:
 685              		.cfi_def_cfa_offset 16
 686              		.cfi_register 65, 0
 687 0008 DBE10008 		stfd 31,8(1)
 688 000c 90010014 		stw 0,20(1)
 689              	.LBB4949:
 690              		.loc 2 249 0
 691 0010 81630060 		lwz 11,96(3)
 692              		.loc 2 247 0
 693 0014 C3E30040 		lfs 31,64(3)
 694              		.cfi_offset 65, 4
 695              		.cfi_offset 63, -8
 696              		.loc 2 249 0
 697 0018 2F8B0000 		cmpwi 7,11,0
 698              		.loc 2 247 0
 699 001c C0030070 		lfs 0,112(3)
 700 0020 EFFF0032 		fmuls 31,31,0
 701              	.LVL58:
 702              		.loc 2 249 0
 703 0024 419E001C 		beq- 7,.L47
 704              		.loc 2 250 0
 705 0028 812B0000 		lwz 9,0(11)
 706 002c 7D635B78 		mr 3,11
 707              	.LVL59:
 708 0030 8009007C 		lwz 0,124(9)
 709 0034 7C0903A6 		mtctr 0
 710 0038 4E800421 		bctrl
 711 003c EFFF0072 		fmuls 31,31,1
 712              	.LVL60:
 713              	.L47:
 714              	.LBE4949:
 715              		.loc 2 253 0
 716 0040 80010014 		lwz 0,20(1)
 717 0044 FC20F890 		fmr 1,31
 718 0048 CBE10008 		lfd 31,8(1)
 719              	.LVL61:
 720 004c 7C0803A6 		mtlr 0
 721 0050 38210010 		addi 1,1,16
 722              	.LCFI10:
 723              		.cfi_def_cfa_offset 0
 724              		.cfi_restore 63
 725 0054 4E800020 		blr
 726              		.cfi_endproc
 727              	.LFE1410:
 728              		.size	_ZN10GuiElement9GetScaleYEv, .-_ZN10GuiElement9GetScaleYEv
 729              		.section	.text._ZN10GuiElement6RumbleEv,"axG",@progbits,_ZN10GuiElement6RumbleEv,comdat
 730              		.align 2
 731              		.weak	_ZN10GuiElement6RumbleEv
 732              		.type	_ZN10GuiElement6RumbleEv, @function
 733              	_ZN10GuiElement6RumbleEv:
 734              	.LFB1411:
 735              		.loc 2 256 0
 736              		.cfi_startproc
 737              	.LVL62:
 738              		.loc 2 256 0
 739 0000 8863001C 		lbz 3,28(3)
 740              	.LVL63:
 741 0004 4E800020 		blr
 742              		.cfi_endproc
 743              	.LFE1411:
 744              		.size	_ZN10GuiElement6RumbleEv, .-_ZN10GuiElement6RumbleEv
 745              		.section	.text._ZN10GuiElement9SetRumbleEb,"axG",@progbits,_ZN10GuiElement9SetRumbleEb,comdat
 746              		.align 2
 747              		.weak	_ZN10GuiElement9SetRumbleEb
 748              		.type	_ZN10GuiElement9SetRumbleEb, @function
 749              	_ZN10GuiElement9SetRumbleEb:
 750              	.LFB1412:
 751              		.loc 2 259 0
 752              		.cfi_startproc
 753              	.LVL64:
 754              		.loc 2 259 0
 755 0000 9883001C 		stb 4,28(3)
 756 0004 4E800020 		blr
 757              		.cfi_endproc
 758              	.LFE1412:
 759              		.size	_ZN10GuiElement9SetRumbleEb, .-_ZN10GuiElement9SetRumbleEb
 760              		.section	.text._ZN10GuiElement13SetEffectGrowEv,"axG",@progbits,_ZN10GuiElement13SetEffectGrowEv,c
 761              		.align 2
 762              		.weak	_ZN10GuiElement13SetEffectGrowEv
 763              		.type	_ZN10GuiElement13SetEffectGrowEv, @function
 764              	_ZN10GuiElement13SetEffectGrowEv:
 765              	.LFB1413:
 766              		.loc 2 271 0
 767              		.cfi_startproc
 768              	.LVL65:
 769 0000 7C0802A6 		mflr 0
 770 0004 9421FFF8 		stwu 1,-8(1)
 771              	.LCFI11:
 772              		.cfi_def_cfa_offset 8
 773              		.cfi_register 65, 0
 774 0008 81230000 		lwz 9,0(3)
 775 000c 38800100 		li 4,256
 776 0010 38A00004 		li 5,4
 777 0014 38C0006E 		li 6,110
 778 0018 9001000C 		stw 0,12(1)
 779              		.loc 2 271 0
 780 001c 8009008C 		lwz 0,140(9)
 781              		.cfi_offset 65, 4
 782 0020 7C0903A6 		mtctr 0
 783 0024 4E800421 		bctrl
 784              	.LVL66:
 785 0028 8001000C 		lwz 0,12(1)
 786 002c 38210008 		addi 1,1,8
 787              	.LCFI12:
 788              		.cfi_def_cfa_offset 0
 789 0030 7C0803A6 		mtlr 0
 790 0034 4E800020 		blr
 791              		.cfi_endproc
 792              	.LFE1413:
 793              		.size	_ZN10GuiElement13SetEffectGrowEv, .-_ZN10GuiElement13SetEffectGrowEv
 794              		.section	.text._ZNK10GuiElement9GetEffectEv,"axG",@progbits,_ZNK10GuiElement9GetEffectEv,comdat
 795              		.align 2
 796              		.weak	_ZNK10GuiElement9GetEffectEv
 797              		.type	_ZNK10GuiElement9GetEffectEv, @function
 798              	_ZNK10GuiElement9GetEffectEv:
 799              	.LFB1414:
 800              		.loc 2 276 0
 801              		.cfi_startproc
 802              	.LVL67:
 803              		.loc 2 276 0
 804 0000 80630078 		lwz 3,120(3)
 805              	.LVL68:
 806 0004 4E800020 		blr
 807              		.cfi_endproc
 808              	.LFE1414:
 809              		.size	_ZNK10GuiElement9GetEffectEv, .-_ZNK10GuiElement9GetEffectEv
 810              		.section	.text._ZNK10GuiElement10IsAnimatedEv,"axG",@progbits,_ZNK10GuiElement10IsAnimatedEv,comda
 811              		.align 2
 812              		.weak	_ZNK10GuiElement10IsAnimatedEv
 813              		.type	_ZNK10GuiElement10IsAnimatedEv, @function
 814              	_ZNK10GuiElement10IsAnimatedEv:
 815              	.LFB1415:
 816              		.loc 2 278 0
 817              		.cfi_startproc
 818              	.LVL69:
 819 0000 7C0802A6 		mflr 0
 820 0004 9421FFF8 		stwu 1,-8(1)
 821              	.LCFI13:
 822              		.cfi_def_cfa_offset 8
 823              		.cfi_register 65, 0
 824 0008 9001000C 		stw 0,12(1)
 825              		.loc 2 278 0
 826 000c 81230000 		lwz 9,0(3)
 827 0010 80090098 		lwz 0,152(9)
 828              		.cfi_offset 65, 4
 829 0014 7C0903A6 		mtctr 0
 830 0018 4E800421 		bctrl
 831              	.LVL70:
 832 001c 7C60FE70 		srawi 0,3,31
 833 0020 7C630050 		subf 3,3,0
 834 0024 8001000C 		lwz 0,12(1)
 835 0028 54630FFE 		srwi 3,3,31
 836 002c 7C0803A6 		mtlr 0
 837 0030 38210008 		addi 1,1,8
 838              	.LCFI14:
 839              		.cfi_def_cfa_offset 0
 840 0034 4E800020 		blr
 841              		.cfi_endproc
 842              	.LFE1415:
 843              		.size	_ZNK10GuiElement10IsAnimatedEv, .-_ZNK10GuiElement10IsAnimatedEv
 844              		.section	.text._ZN10GuiElement8IsInsideEii,"axG",@progbits,_ZN10GuiElement8IsInsideEii,comdat
 845              		.align 2
 846              		.weak	_ZN10GuiElement8IsInsideEii
 847              		.type	_ZN10GuiElement8IsInsideEii, @function
 848              	_ZN10GuiElement8IsInsideEii:
 849              	.LFB1417:
 850              		.loc 2 285 0
 851              		.cfi_startproc
 852              	.LVL71:
 853 0000 7C0802A6 		mflr 0
 854 0004 9421FFE8 		stwu 1,-24(1)
 855              	.LCFI15:
 856              		.cfi_def_cfa_offset 24
 857              		.cfi_register 65, 0
 858 0008 93810008 		stw 28,8(1)
 859 000c 7CBC2B78 		mr 28,5
 860              		.cfi_offset 28, -16
 861 0010 9001001C 		stw 0,28(1)
 862 0014 93A1000C 		stw 29,12(1)
 863              		.loc 2 290 0
 864 0018 3BA00000 		li 29,0
 865              		.cfi_offset 29, -12
 866              		.cfi_offset 65, 4
 867              		.loc 2 287 0
 868 001c 81230000 		lwz 9,0(3)
 869              		.loc 2 285 0
 870 0020 93C10010 		stw 30,16(1)
 871 0024 7C9E2378 		mr 30,4
 872              		.cfi_offset 30, -8
 873              		.loc 2 287 0
 874 0028 80090010 		lwz 0,16(9)
 875              		.loc 2 285 0
 876 002c 93E10014 		stw 31,20(1)
 877              		.loc 2 285 0
 878 0030 7C7F1B78 		mr 31,3
 879              		.cfi_offset 31, -4
 880              		.loc 2 287 0
 881 0034 7C0903A6 		mtctr 0
 882 0038 4E800421 		bctrl
 883              	.LVL72:
 884              		.loc 2 290 0
 885 003c 7F83F000 		cmpw 7,3,30
 886 0040 419C0028 		blt- 7,.L58
 887              	.L54:
 888              		.loc 2 291 0 discriminator 6
 889 0044 8001001C 		lwz 0,28(1)
 890 0048 7FA3EB78 		mr 3,29
 891 004c 83810008 		lwz 28,8(1)
 892              	.LVL73:
 893 0050 7C0803A6 		mtlr 0
 894 0054 83A1000C 		lwz 29,12(1)
 895 0058 83C10010 		lwz 30,16(1)
 896              	.LVL74:
 897 005c 83E10014 		lwz 31,20(1)
 898              	.LVL75:
 899 0060 38210018 		addi 1,1,24
 900              		.cfi_remember_state
 901              	.LCFI16:
 902              		.cfi_def_cfa_offset 0
 903              		.cfi_restore 31
 904              		.cfi_restore 30
 905              		.cfi_restore 29
 906              		.cfi_restore 28
 907 0064 4E800020 		blr
 908              	.LVL76:
 909              	.L58:
 910              	.LCFI17:
 911              		.cfi_restore_state
 912              		.loc 2 288 0 discriminator 1
 913 0068 813F0000 		lwz 9,0(31)
 914 006c 7FE3FB78 		mr 3,31
 915 0070 80090010 		lwz 0,16(9)
 916 0074 7C0903A6 		mtctr 0
 917 0078 4E800421 		bctrl
 918              		.loc 2 290 0 discriminator 1
 919 007c 801F0024 		lwz 0,36(31)
 920 0080 7C030214 		add 0,3,0
 921 0084 7F9E0000 		cmpw 7,30,0
 922 0088 409CFFBC 		bge+ 7,.L54
 923              		.loc 2 289 0 discriminator 3
 924 008c 813F0000 		lwz 9,0(31)
 925 0090 7FE3FB78 		mr 3,31
 926 0094 80090014 		lwz 0,20(9)
 927 0098 7C0903A6 		mtctr 0
 928 009c 4E800421 		bctrl
 929              		.loc 2 290 0 discriminator 3
 930 00a0 7F83E000 		cmpw 7,3,28
 931 00a4 409CFFA0 		bge+ 7,.L54
 932              		.loc 2 290 0 is_stmt 0 discriminator 4
 933 00a8 813F0000 		lwz 9,0(31)
 934 00ac 7FE3FB78 		mr 3,31
 935 00b0 80090014 		lwz 0,20(9)
 936 00b4 7C0903A6 		mtctr 0
 937 00b8 4E800421 		bctrl
 938 00bc 801F0028 		lwz 0,40(31)
 939 00c0 7C030214 		add 0,3,0
 940              		.loc 2 285 0 is_stmt 1 discriminator 4
 941 00c4 7F9C0000 		cmpw 7,28,0
 942 00c8 7FA00026 		mfcr 29
 943 00cc 57BDEFFE 		rlwinm 29,29,29,1
 944 00d0 4BFFFF74 		b .L54
 945              		.cfi_endproc
 946              	.LFE1417:
 947              		.size	_ZN10GuiElement8IsInsideEii, .-_ZN10GuiElement8IsInsideEii
 948              		.section	.text._ZN10GuiElement11SetPositionEii,"axG",@progbits,_ZN10GuiElement11SetPositionEii,com
 949              		.align 2
 950              		.weak	_ZN10GuiElement11SetPositionEii
 951              		.type	_ZN10GuiElement11SetPositionEii, @function
 952              	_ZN10GuiElement11SetPositionEii:
 953              	.LFB1418:
 954              		.loc 2 295 0
 955              		.cfi_startproc
 956              	.LVL77:
 957              		.loc 2 297 0
 958 0000 9083002C 		stw 4,44(3)
 959              		.loc 2 299 0
 960              		.loc 2 298 0
 961 0004 90A30030 		stw 5,48(3)
 962              		.loc 2 299 0
 963 0008 4E800020 		blr
 964              		.cfi_endproc
 965              	.LFE1418:
 966              		.size	_ZN10GuiElement11SetPositionEii, .-_ZN10GuiElement11SetPositionEii
 967              		.section	.text._ZN10GuiElement11SetPositionEiii,"axG",@progbits,_ZN10GuiElement11SetPositionEiii,c
 968              		.align 2
 969              		.weak	_ZN10GuiElement11SetPositionEiii
 970              		.type	_ZN10GuiElement11SetPositionEiii, @function
 971              	_ZN10GuiElement11SetPositionEiii:
 972              	.LFB1419:
 973              		.loc 2 304 0
 974              		.cfi_startproc
 975              	.LVL78:
 976              		.loc 2 306 0
 977 0000 9083002C 		stw 4,44(3)
 978              		.loc 2 309 0
 979              		.loc 2 307 0
 980 0004 90A30030 		stw 5,48(3)
 981              		.loc 2 308 0
 982 0008 90C30034 		stw 6,52(3)
 983              		.loc 2 309 0
 984 000c 4E800020 		blr
 985              		.cfi_endproc
 986              	.LFE1419:
 987              		.size	_ZN10GuiElement11SetPositionEiii, .-_ZN10GuiElement11SetPositionEiii
 988              		.section	.text._ZN10GuiElement12SetAlignmentEi,"axG",@progbits,_ZN10GuiElement12SetAlignmentEi,com
 989              		.align 2
 990              		.weak	_ZN10GuiElement12SetAlignmentEi
 991              		.type	_ZN10GuiElement12SetAlignmentEi, @function
 992              	_ZN10GuiElement12SetAlignmentEi:
 993              	.LFB1421:
 994              		.loc 2 316 0
 995              		.cfi_startproc
 996              	.LVL79:
 997              		.loc 2 316 0
 998 0000 90830044 		stw 4,68(3)
 999 0004 4E800020 		blr
 1000              		.cfi_endproc
 1001              	.LFE1421:
 1002              		.size	_ZN10GuiElement12SetAlignmentEi, .-_ZN10GuiElement12SetAlignmentEi
 1003              		.section	.text._ZNK10GuiElement12GetAlignmentEv,"axG",@progbits,_ZNK10GuiElement12GetAlignmentEv,c
 1004              		.align 2
 1005              		.weak	_ZNK10GuiElement12GetAlignmentEv
 1006              		.type	_ZNK10GuiElement12GetAlignmentEv, @function
 1007              	_ZNK10GuiElement12GetAlignmentEv:
 1008              	.LFB1422:
 1009              		.loc 2 318 0
 1010              		.cfi_startproc
 1011              	.LVL80:
 1012              		.loc 2 318 0
 1013 0000 80630044 		lwz 3,68(3)
 1014              	.LVL81:
 1015 0004 4E800020 		blr
 1016              		.cfi_endproc
 1017              	.LFE1422:
 1018              		.size	_ZNK10GuiElement12GetAlignmentEv, .-_ZNK10GuiElement12GetAlignmentEv
 1019              		.section	.text._ZN8GuiFrame4showEv,"axG",@progbits,_ZN8GuiFrame4showEv,comdat
 1020              		.align 2
 1021              		.weak	_ZN8GuiFrame4showEv
 1022              		.type	_ZN8GuiFrame4showEv, @function
 1023              	_ZN8GuiFrame4showEv:
 1024              	.LFB1431:
 1025              		.file 3 "d:/Projects/SaveGameManager/savegame-manager-gx/trunk/source/Language/../Gui/gui_frame.h"
 1026              		.loc 3 79 0
 1027              		.cfi_startproc
 1028              	.LVL82:
 1029              		.loc 3 79 0
 1030 0000 4E800020 		blr
 1031              		.cfi_endproc
 1032              	.LFE1431:
 1033              		.size	_ZN8GuiFrame4showEv, .-_ZN8GuiFrame4showEv
 1034              		.section	.text._ZN8GuiFrame4hideEv,"axG",@progbits,_ZN8GuiFrame4hideEv,comdat
 1035              		.align 2
 1036              		.weak	_ZN8GuiFrame4hideEv
 1037              		.type	_ZN8GuiFrame4hideEv, @function
 1038              	_ZN8GuiFrame4hideEv:
 1039              	.LFB1432:
 1040              		.loc 3 81 0
 1041              		.cfi_startproc
 1042              	.LVL83:
 1043              		.loc 3 81 0
 1044 0000 4E800020 		blr
 1045              		.cfi_endproc
 1046              	.LFE1432:
 1047              		.size	_ZN8GuiFrame4hideEv, .-_ZN8GuiFrame4hideEv
 1048              		.section	.text._ZN8GuiFrame4execEv,"axG",@progbits,_ZN8GuiFrame4execEv,comdat
 1049              		.align 2
 1050              		.weak	_ZN8GuiFrame4execEv
 1051              		.type	_ZN8GuiFrame4execEv, @function
 1052              	_ZN8GuiFrame4execEv:
 1053              	.LFB1433:
 1054              		.loc 3 83 0
 1055              		.cfi_startproc
 1056              	.LVL84:
 1057              		.loc 3 83 0
 1058 0000 4E800020 		blr
 1059              		.cfi_endproc
 1060              	.LFE1433:
 1061              		.size	_ZN8GuiFrame4execEv, .-_ZN8GuiFrame4execEv
 1062              		.section	.text._ZN8GuiFrame12updateEventsEv,"axG",@progbits,_ZN8GuiFrame12updateEventsEv,comdat
 1063              		.align 2
 1064              		.weak	_ZN8GuiFrame12updateEventsEv
 1065              		.type	_ZN8GuiFrame12updateEventsEv, @function
 1066              	_ZN8GuiFrame12updateEventsEv:
 1067              	.LFB1434:
 1068              		.loc 3 85 0
 1069              		.cfi_startproc
 1070              	.LVL85:
 1071              		.loc 3 85 0
 1072 0000 4E800020 		blr
 1073              		.cfi_endproc
 1074              	.LFE1434:
 1075              		.size	_ZN8GuiFrame12updateEventsEv, .-_ZN8GuiFrame12updateEventsEv
 1076              		.section	.text._ZN7sigslot17_connection_base3IP9GuiButtoniRK6_POINTNS_15single_threadedEED2Ev,"axG
 1077              		.align 2
 1078              		.weak	_ZN7sigslot17_connection_base3IP9GuiButtoniRK6_POINTNS_15single_threadedEED2Ev
 1079              		.type	_ZN7sigslot17_connection_base3IP9GuiButtoniRK6_POINTNS_15single_threadedEED2Ev, @function
 1080              	_ZN7sigslot17_connection_base3IP9GuiButtoniRK6_POINTNS_15single_threadedEED2Ev:
 1081              	.LFB1992:
 1082              		.loc 1 387 0
 1083              		.cfi_startproc
 1084              	.LVL86:
 1085              	.LBB4950:
 1086              		.loc 1 387 0
 1087 0000 3D200000 		lis 9,_ZTVN7sigslot17_connection_base3IP9GuiButtoniRK6_POINTNS_15single_threadedEEE+8@ha
 1088              	.LBE4950:
 1089              	.LBB4951:
 1090 0004 38090008 		la 0,_ZTVN7sigslot17_connection_base3IP9GuiButtoniRK6_POINTNS_15single_threadedEEE+8@l(9)
 1091 0008 90030000 		stw 0,0(3)
 1092              	.LBE4951:
 1093 000c 4E800020 		blr
 1094              		.cfi_endproc
 1095              	.LFE1992:
 1096              		.size	_ZN7sigslot17_connection_base3IP9GuiButtoniRK6_POINTNS_15single_threadedEED2Ev, .-_ZN7sigslo
 1097              		.section	.text._ZN7sigslot17_connection_base2IiiNS_15single_threadedEED2Ev,"axG",@progbits,_ZN7sig
 1098              		.align 2
 1099              		.weak	_ZN7sigslot17_connection_base2IiiNS_15single_threadedEED2Ev
 1100              		.type	_ZN7sigslot17_connection_base2IiiNS_15single_threadedEED2Ev, @function
 1101              	_ZN7sigslot17_connection_base2IiiNS_15single_threadedEED2Ev:
 1102              	.LFB1999:
 1103              		.loc 1 376 0
 1104              		.cfi_startproc
 1105              	.LVL87:
 1106              	.LBB4952:
 1107              		.loc 1 376 0
 1108 0000 3D200000 		lis 9,_ZTVN7sigslot17_connection_base2IiiNS_15single_threadedEEE+8@ha
 1109              	.LBE4952:
 1110              	.LBB4953:
 1111 0004 38090008 		la 0,_ZTVN7sigslot17_connection_base2IiiNS_15single_threadedEEE+8@l(9)
 1112 0008 90030000 		stw 0,0(3)
 1113              	.LBE4953:
 1114 000c 4E800020 		blr
 1115              		.cfi_endproc
 1116              	.LFE1999:
 1117              		.size	_ZN7sigslot17_connection_base2IiiNS_15single_threadedEED2Ev, .-_ZN7sigslot17_connection_base
 1118              		.section	.text._ZN7sigslot12_connection2I22LanguagesSelectBrowseriiNS_15single_threadedEED2Ev,"axG
 1119              		.align 2
 1120              		.weak	_ZN7sigslot12_connection2I22LanguagesSelectBrowseriiNS_15single_threadedEED2Ev
 1121              		.type	_ZN7sigslot12_connection2I22LanguagesSelectBrowseriiNS_15single_threadedEED2Ev, @function
 1122              	_ZN7sigslot12_connection2I22LanguagesSelectBrowseriiNS_15single_threadedEED2Ev:
 1123              	.LFB2479:
 1124              		.loc 1 1735 0
 1125              		.cfi_startproc
 1126              	.LVL88:
 1127              	.LBB4954:
 1128              	.LBB4955:
 1129              	.LBB4956:
 1130              	.LBB4957:
 1131              		.loc 1 376 0
 1132 0000 3D200000 		lis 9,_ZTVN7sigslot17_connection_base2IiiNS_15single_threadedEEE+8@ha
 1133              	.LBE4957:
 1134              	.LBE4956:
 1135              	.LBE4955:
 1136              	.LBE4954:
 1137              		.loc 1 1738 0
 1138              	.LBB4961:
 1139              	.LBB4960:
 1140              	.LBB4959:
 1141              	.LBB4958:
 1142              		.loc 1 376 0
 1143 0004 38090008 		la 0,_ZTVN7sigslot17_connection_base2IiiNS_15single_threadedEEE+8@l(9)
 1144 0008 90030000 		stw 0,0(3)
 1145              	.LBE4958:
 1146              	.LBE4959:
 1147              	.LBE4960:
 1148              	.LBE4961:
 1149              		.loc 1 1738 0
 1150 000c 4E800020 		blr
 1151              		.cfi_endproc
 1152              	.LFE2479:
 1153              		.size	_ZN7sigslot12_connection2I22LanguagesSelectBrowseriiNS_15single_threadedEED2Ev, .-_ZN7sigslo
 1154              		.section	.text._ZNK7sigslot12_connection2I22LanguagesSelectBrowseriiNS_15single_threadedEE7getdest
 1155              		.align 2
 1156              		.weak	_ZNK7sigslot12_connection2I22LanguagesSelectBrowseriiNS_15single_threadedEE7getdestEv
 1157              		.type	_ZNK7sigslot12_connection2I22LanguagesSelectBrowseriiNS_15single_threadedEE7getdestEv, @func
 1158              	_ZNK7sigslot12_connection2I22LanguagesSelectBrowseriiNS_15single_threadedEE7getdestEv:
 1159              	.LFB2482:
 1160              		.loc 1 1756 0
 1161              		.cfi_startproc
 1162              	.LVL89:
 1163              		.loc 1 1758 0
 1164 0000 81230004 		lwz 9,4(3)
 1165 0004 38600000 		li 3,0
 1166              	.LVL90:
 1167 0008 2F890000 		cmpwi 7,9,0
 1168 000c 4D9E0020 		beqlr- 7
 1169              		.loc 1 1758 0 is_stmt 0 discriminator 1
 1170 0010 386900B0 		addi 3,9,176
 1171              		.loc 1 1759 0 is_stmt 1 discriminator 1
 1172 0014 4E800020 		blr
 1173              		.cfi_endproc
 1174              	.LFE2482:
 1175              		.size	_ZNK7sigslot12_connection2I22LanguagesSelectBrowseriiNS_15single_threadedEE7getdestEv, .-_ZN
 1176              		.section	.text._ZN7sigslot12_connection2I22LanguagesSelectBrowseriiNS_15single_threadedEE4emitEii,
 1177              		.align 2
 1178              		.weak	_ZN7sigslot12_connection2I22LanguagesSelectBrowseriiNS_15single_threadedEE4emitEii
 1179              		.type	_ZN7sigslot12_connection2I22LanguagesSelectBrowseriiNS_15single_threadedEE4emitEii, @functio
 1180              	_ZN7sigslot12_connection2I22LanguagesSelectBrowseriiNS_15single_threadedEE4emitEii:
 1181              	.LFB2483:
 1182              		.loc 1 1751 0
 1183              		.cfi_startproc
 1184              	.LVL91:
 1185 0000 7C0802A6 		mflr 0
 1186 0004 9421FFF8 		stwu 1,-8(1)
 1187              	.LCFI18:
 1188              		.cfi_def_cfa_offset 8
 1189              		.cfi_register 65, 0
 1190 0008 9001000C 		stw 0,12(1)
 1191              		.loc 1 1753 0
 1192 000c 80030008 		lwz 0,8(3)
 1193              		.cfi_offset 65, 4
 1194 0010 81630004 		lwz 11,4(3)
 1195 0014 70090001 		andi. 9,0,1
 1196 0018 8123000C 		lwz 9,12(3)
 1197 001c 40820020 		bne- 0,.L78
 1198 0020 7C0903A6 		mtctr 0
 1199 0024 7C6B4A14 		add 3,11,9
 1200              	.LVL92:
 1201 0028 4E800421 		bctrl
 1202              	.LVL93:
 1203              		.loc 1 1754 0
 1204 002c 8001000C 		lwz 0,12(1)
 1205 0030 38210008 		addi 1,1,8
 1206              		.cfi_remember_state
 1207              	.LCFI19:
 1208              		.cfi_def_cfa_offset 0
 1209 0034 7C0803A6 		mtlr 0
 1210 0038 4E800020 		blr
 1211              	.LVL94:
 1212              	.L78:
 1213              	.LCFI20:
 1214              		.cfi_restore_state
 1215              		.loc 1 1753 0 discriminator 1
 1216 003c 7D4B482E 		lwzx 10,11,9
 1217 0040 7C6B4A14 		add 3,11,9
 1218              	.LVL95:
 1219 0044 7D2A0214 		add 9,10,0
 1220 0048 8009FFFF 		lwz 0,-1(9)
 1221 004c 7C0903A6 		mtctr 0
 1222 0050 4E800421 		bctrl
 1223              	.LVL96:
 1224              		.loc 1 1754 0 discriminator 1
 1225 0054 8001000C 		lwz 0,12(1)
 1226 0058 38210008 		addi 1,1,8
 1227              	.LCFI21:
 1228              		.cfi_def_cfa_offset 0
 1229 005c 7C0803A6 		mtlr 0
 1230 0060 4E800020 		blr
 1231              		.cfi_endproc
 1232              	.LFE2483:
 1233              		.size	_ZN7sigslot12_connection2I22LanguagesSelectBrowseriiNS_15single_threadedEE4emitEii, .-_ZN7si
 1234              		.section	.text._ZN7sigslot12_connection3I22LanguagesSelectBrowserP9GuiButtoniRK6_POINTNS_15single_
 1235              		.align 2
 1236              		.weak	_ZN7sigslot12_connection3I22LanguagesSelectBrowserP9GuiButtoniRK6_POINTNS_15single_threadedE
 1237              		.type	_ZN7sigslot12_connection3I22LanguagesSelectBrowserP9GuiButtoniRK6_POINTNS_15single_threadedE
 1238              	_ZN7sigslot12_connection3I22LanguagesSelectBrowserP9GuiButtoniRK6_POINTNS_15single_threadedEED2Ev:
 1239              	.LFB2493:
 1240              		.loc 1 1783 0
 1241              		.cfi_startproc
 1242              	.LVL97:
 1243              	.LBB4962:
 1244              	.LBB4963:
 1245              	.LBB4964:
 1246              	.LBB4965:
 1247              		.loc 1 387 0
 1248 0000 3D200000 		lis 9,_ZTVN7sigslot17_connection_base3IP9GuiButtoniRK6_POINTNS_15single_threadedEEE+8@ha
 1249              	.LBE4965:
 1250              	.LBE4964:
 1251              	.LBE4963:
 1252              	.LBE4962:
 1253              		.loc 1 1786 0
 1254              	.LBB4969:
 1255              	.LBB4968:
 1256              	.LBB4967:
 1257              	.LBB4966:
 1258              		.loc 1 387 0
 1259 0004 38090008 		la 0,_ZTVN7sigslot17_connection_base3IP9GuiButtoniRK6_POINTNS_15single_threadedEEE+8@l(9)
 1260 0008 90030000 		stw 0,0(3)
 1261              	.LBE4966:
 1262              	.LBE4967:
 1263              	.LBE4968:
 1264              	.LBE4969:
 1265              		.loc 1 1786 0
 1266 000c 4E800020 		blr
 1267              		.cfi_endproc
 1268              	.LFE2493:
 1269              		.size	_ZN7sigslot12_connection3I22LanguagesSelectBrowserP9GuiButtoniRK6_POINTNS_15single_threadedE
 1270              		.section	.text._ZNK7sigslot12_connection3I22LanguagesSelectBrowserP9GuiButtoniRK6_POINTNS_15single
 1271              		.align 2
 1272              		.weak	_ZNK7sigslot12_connection3I22LanguagesSelectBrowserP9GuiButtoniRK6_POINTNS_15single_threaded
 1273              		.type	_ZNK7sigslot12_connection3I22LanguagesSelectBrowserP9GuiButtoniRK6_POINTNS_15single_threaded
 1274              	_ZNK7sigslot12_connection3I22LanguagesSelectBrowserP9GuiButtoniRK6_POINTNS_15single_threadedEE7getd
 1275              	.LFB2496:
 1276              		.loc 1 1804 0
 1277              		.cfi_startproc
 1278              	.LVL98:
 1279              		.loc 1 1806 0
 1280 0000 81230004 		lwz 9,4(3)
 1281 0004 38600000 		li 3,0
 1282              	.LVL99:
 1283 0008 2F890000 		cmpwi 7,9,0
 1284 000c 4D9E0020 		beqlr- 7
 1285              		.loc 1 1806 0 is_stmt 0 discriminator 1
 1286 0010 386900B0 		addi 3,9,176
 1287              		.loc 1 1807 0 is_stmt 1 discriminator 1
 1288 0014 4E800020 		blr
 1289              		.cfi_endproc
 1290              	.LFE2496:
 1291              		.size	_ZNK7sigslot12_connection3I22LanguagesSelectBrowserP9GuiButtoniRK6_POINTNS_15single_threaded
 1292              		.section	.text._ZN7sigslot12_connection3I22LanguagesSelectBrowserP9GuiButtoniRK6_POINTNS_15single_
 1293              		.align 2
 1294              		.weak	_ZN7sigslot12_connection3I22LanguagesSelectBrowserP9GuiButtoniRK6_POINTNS_15single_threadedE
 1295              		.type	_ZN7sigslot12_connection3I22LanguagesSelectBrowserP9GuiButtoniRK6_POINTNS_15single_threadedE
 1296              	_ZN7sigslot12_connection3I22LanguagesSelectBrowserP9GuiButtoniRK6_POINTNS_15single_threadedEE4emitE
 1297              	.LFB2497:
 1298              		.loc 1 1799 0
 1299              		.cfi_startproc
 1300              	.LVL100:
 1301 0000 7C0802A6 		mflr 0
 1302 0004 9421FFF8 		stwu 1,-8(1)
 1303              	.LCFI22:
 1304              		.cfi_def_cfa_offset 8
 1305              		.cfi_register 65, 0
 1306 0008 9001000C 		stw 0,12(1)
 1307              		.loc 1 1801 0
 1308 000c 80030008 		lwz 0,8(3)
 1309              		.cfi_offset 65, 4
 1310 0010 81630004 		lwz 11,4(3)
 1311 0014 70090001 		andi. 9,0,1
 1312 0018 8123000C 		lwz 9,12(3)
 1313 001c 40820020 		bne- 0,.L87
 1314 0020 7C0903A6 		mtctr 0
 1315 0024 7C6B4A14 		add 3,11,9
 1316              	.LVL101:
 1317 0028 4E800421 		bctrl
 1318              	.LVL102:
 1319              		.loc 1 1802 0
 1320 002c 8001000C 		lwz 0,12(1)
 1321 0030 38210008 		addi 1,1,8
 1322              		.cfi_remember_state
 1323              	.LCFI23:
 1324              		.cfi_def_cfa_offset 0
 1325 0034 7C0803A6 		mtlr 0
 1326 0038 4E800020 		blr
 1327              	.LVL103:
 1328              	.L87:
 1329              	.LCFI24:
 1330              		.cfi_restore_state
 1331              		.loc 1 1801 0 discriminator 1
 1332 003c 7D4B482E 		lwzx 10,11,9
 1333 0040 7C6B4A14 		add 3,11,9
 1334              	.LVL104:
 1335 0044 7D2A0214 		add 9,10,0
 1336 0048 8009FFFF 		lwz 0,-1(9)
 1337 004c 7C0903A6 		mtctr 0
 1338 0050 4E800421 		bctrl
 1339              	.LVL105:
 1340              		.loc 1 1802 0 discriminator 1
 1341 0054 8001000C 		lwz 0,12(1)
 1342 0058 38210008 		addi 1,1,8
 1343              	.LCFI25:
 1344              		.cfi_def_cfa_offset 0
 1345 005c 7C0803A6 		mtlr 0
 1346 0060 4E800020 		blr
 1347              		.cfi_endproc
 1348              	.LFE2497:
 1349              		.size	_ZN7sigslot12_connection3I22LanguagesSelectBrowserP9GuiButtoniRK6_POINTNS_15single_threadedE
 1350              		.section	.text._ZN7sigslot12_connection3I22LanguagesSelectBrowserP9GuiButtoniRK6_POINTNS_15single_
 1351              		.align 2
 1352              		.weak	_ZN7sigslot12_connection3I22LanguagesSelectBrowserP9GuiButtoniRK6_POINTNS_15single_threadedE
 1353              		.type	_ZN7sigslot12_connection3I22LanguagesSelectBrowserP9GuiButtoniRK6_POINTNS_15single_threadedE
 1354              	_ZN7sigslot12_connection3I22LanguagesSelectBrowserP9GuiButtoniRK6_POINTNS_15single_threadedEE9dupli
 1355              	.LFB2505:
 1356              		.loc 1 1794 0
 1357              		.cfi_startproc
 1358              	.LVL106:
 1359 0000 9421FFF0 		stwu 1,-16(1)
 1360              	.LCFI26:
 1361              		.cfi_def_cfa_offset 16
 1362 0004 7C0802A6 		mflr 0
 1363 0008 93C10008 		stw 30,8(1)
 1364 000c 7C9E2378 		mr 30,4
 1365              		.cfi_offset 30, -8
 1366              		.cfi_register 65, 0
 1367 0010 93E1000C 		stw 31,12(1)
 1368 0014 7C7F1B78 		mr 31,3
 1369              		.cfi_offset 31, -4
 1370              		.loc 1 1796 0
 1371 0018 38600010 		li 3,16
 1372              	.LVL107:
 1373              		.loc 1 1794 0
 1374 001c 90010014 		stw 0,20(1)
 1375              		.loc 1 1796 0
 1376              		.cfi_offset 65, 4
 1377 0020 48000001 		bl _Znwj
 1378              	.LVL108:
 1379 0024 2F9E0000 		cmpwi 7,30,0
 1380 0028 38000000 		li 0,0
 1381 002c 419E0008 		beq- 7,.L90
 1382              		.loc 1 1796 0 is_stmt 0 discriminator 1
 1383 0030 381EFF50 		addi 0,30,-176
 1384              	.L90:
 1385              	.LVL109:
 1386              		.loc 1 1796 0 discriminator 3
 1387 0034 817F0008 		lwz 11,8(31)
 1388              	.LVL110:
 1389              	.LBB4970:
 1390              	.LBB4971:
 1391              		.loc 1 1778 0 is_stmt 1 discriminator 3
 1392 0038 3D400000 		lis 10,_ZTVN7sigslot12_connection3I22LanguagesSelectBrowserP9GuiButtoniRK6_POINTNS_15single_thread
 1393              	.LBE4971:
 1394              	.LBE4970:
 1395              		.loc 1 1796 0 discriminator 3
 1396 003c 813F000C 		lwz 9,12(31)
 1397              	.LVL111:
 1398              	.LBB4974:
 1399              	.LBB4972:
 1400              		.loc 1 1778 0 discriminator 3
 1401 0040 394A0008 		la 10,_ZTVN7sigslot12_connection3I22LanguagesSelectBrowserP9GuiButtoniRK6_POINTNS_15single_threade
 1402              		.loc 1 1780 0 discriminator 3
 1403 0044 91630008 		stw 11,8(3)
 1404 0048 9123000C 		stw 9,12(3)
 1405              		.loc 1 1779 0 discriminator 3
 1406 004c 90030004 		stw 0,4(3)
 1407              	.LBE4972:
 1408              	.LBE4974:
 1409              		.loc 1 1797 0 discriminator 3
 1410 0050 80010014 		lwz 0,20(1)
 1411              	.LVL112:
 1412 0054 83C10008 		lwz 30,8(1)
 1413              	.LVL113:
 1414 0058 7C0803A6 		mtlr 0
 1415 005c 83E1000C 		lwz 31,12(1)
 1416              	.LVL114:
 1417              	.LBB4975:
 1418              	.LBB4973:
 1419              		.loc 1 1778 0 discriminator 3
 1420 0060 91430000 		stw 10,0(3)
 1421              	.LBE4973:
 1422              	.LBE4975:
 1423              		.loc 1 1797 0 discriminator 3
 1424 0064 38210010 		addi 1,1,16
 1425              	.LCFI27:
 1426              		.cfi_def_cfa_offset 0
 1427              		.cfi_restore 31
 1428              		.cfi_restore 30
 1429 0068 4E800020 		blr
 1430              		.cfi_endproc
 1431              	.LFE2505:
 1432              		.size	_ZN7sigslot12_connection3I22LanguagesSelectBrowserP9GuiButtoniRK6_POINTNS_15single_threadedE
 1433              		.section	.text._ZN7sigslot12_connection2I22LanguagesSelectBrowseriiNS_15single_threadedEE9duplicat
 1434              		.align 2
 1435              		.weak	_ZN7sigslot12_connection2I22LanguagesSelectBrowseriiNS_15single_threadedEE9duplicateEPNS_9ha
 1436              		.type	_ZN7sigslot12_connection2I22LanguagesSelectBrowseriiNS_15single_threadedEE9duplicateEPNS_9ha
 1437              	_ZN7sigslot12_connection2I22LanguagesSelectBrowseriiNS_15single_threadedEE9duplicateEPNS_9has_slots
 1438              	.LFB2491:
 1439              		.loc 1 1746 0
 1440              		.cfi_startproc
 1441              	.LVL115:
 1442 0000 9421FFF0 		stwu 1,-16(1)
 1443              	.LCFI28:
 1444              		.cfi_def_cfa_offset 16
 1445 0004 7C0802A6 		mflr 0
 1446 0008 93C10008 		stw 30,8(1)
 1447 000c 7C9E2378 		mr 30,4
 1448              		.cfi_offset 30, -8
 1449              		.cfi_register 65, 0
 1450 0010 93E1000C 		stw 31,12(1)
 1451 0014 7C7F1B78 		mr 31,3
 1452              		.cfi_offset 31, -4
 1453              		.loc 1 1748 0
 1454 0018 38600010 		li 3,16
 1455              	.LVL116:
 1456              		.loc 1 1746 0
 1457 001c 90010014 		stw 0,20(1)
 1458              		.loc 1 1748 0
 1459              		.cfi_offset 65, 4
 1460 0020 48000001 		bl _Znwj
 1461              	.LVL117:
 1462 0024 2F9E0000 		cmpwi 7,30,0
 1463 0028 38000000 		li 0,0
 1464 002c 419E0008 		beq- 7,.L93
 1465              		.loc 1 1748 0 is_stmt 0 discriminator 1
 1466 0030 381EFF50 		addi 0,30,-176
 1467              	.L93:
 1468              	.LVL118:
 1469              		.loc 1 1748 0 discriminator 3
 1470 0034 817F0008 		lwz 11,8(31)
 1471              	.LVL119:
 1472              	.LBB4976:
 1473              	.LBB4977:
 1474              		.loc 1 1730 0 is_stmt 1 discriminator 3
 1475 0038 3D400000 		lis 10,_ZTVN7sigslot12_connection2I22LanguagesSelectBrowseriiNS_15single_threadedEEE+8@ha
 1476              	.LBE4977:
 1477              	.LBE4976:
 1478              		.loc 1 1748 0 discriminator 3
 1479 003c 813F000C 		lwz 9,12(31)
 1480              	.LVL120:
 1481              	.LBB4980:
 1482              	.LBB4978:
 1483              		.loc 1 1730 0 discriminator 3
 1484 0040 394A0008 		la 10,_ZTVN7sigslot12_connection2I22LanguagesSelectBrowseriiNS_15single_threadedEEE+8@l(10)
 1485              		.loc 1 1732 0 discriminator 3
 1486 0044 91630008 		stw 11,8(3)
 1487 0048 9123000C 		stw 9,12(3)
 1488              		.loc 1 1731 0 discriminator 3
 1489 004c 90030004 		stw 0,4(3)
 1490              	.LBE4978:
 1491              	.LBE4980:
 1492              		.loc 1 1749 0 discriminator 3
 1493 0050 80010014 		lwz 0,20(1)
 1494              	.LVL121:
 1495 0054 83C10008 		lwz 30,8(1)
 1496              	.LVL122:
 1497 0058 7C0803A6 		mtlr 0
 1498 005c 83E1000C 		lwz 31,12(1)
 1499              	.LVL123:
 1500              	.LBB4981:
 1501              	.LBB4979:
 1502              		.loc 1 1730 0 discriminator 3
 1503 0060 91430000 		stw 10,0(3)
 1504              	.LBE4979:
 1505              	.LBE4981:
 1506              		.loc 1 1749 0 discriminator 3
 1507 0064 38210010 		addi 1,1,16
 1508              	.LCFI29:
 1509              		.cfi_def_cfa_offset 0
 1510              		.cfi_restore 31
 1511              		.cfi_restore 30
 1512 0068 4E800020 		blr
 1513              		.cfi_endproc
 1514              	.LFE2491:
 1515              		.size	_ZN7sigslot12_connection2I22LanguagesSelectBrowseriiNS_15single_threadedEE9duplicateEPNS_9ha
 1516              		.section	.text._ZN7sigslot12_connection2I22LanguagesSelectBrowseriiNS_15single_threadedEE5cloneEv,
 1517              		.align 2
 1518              		.weak	_ZN7sigslot12_connection2I22LanguagesSelectBrowseriiNS_15single_threadedEE5cloneEv
 1519              		.type	_ZN7sigslot12_connection2I22LanguagesSelectBrowseriiNS_15single_threadedEE5cloneEv, @functio
 1520              	_ZN7sigslot12_connection2I22LanguagesSelectBrowseriiNS_15single_threadedEE5cloneEv:
 1521              	.LFB2484:
 1522              		.loc 1 1741 0
 1523              		.cfi_startproc
 1524              	.LVL124:
 1525 0000 9421FFF0 		stwu 1,-16(1)
 1526              	.LCFI30:
 1527              		.cfi_def_cfa_offset 16
 1528 0004 7C0802A6 		mflr 0
 1529 0008 93E1000C 		stw 31,12(1)
 1530 000c 7C7F1B78 		mr 31,3
 1531              		.cfi_offset 31, -4
 1532              		.cfi_register 65, 0
 1533              		.loc 1 1743 0
 1534 0010 38600010 		li 3,16
 1535              	.LVL125:
 1536              		.loc 1 1741 0
 1537 0014 90010014 		stw 0,20(1)
 1538              		.loc 1 1743 0
 1539              		.cfi_offset 65, 4
 1540 0018 48000001 		bl _Znwj
 1541              		.file 4 "d:/Projects/SaveGameManager/savegame-manager-gx/trunk/source/Language/LanguagesSelectBrow
 1542              		.loc 4 373 0
 1543 001c 801F0004 		lwz 0,4(31)
 1544              	.LVL126:
 1545              	.LBB4982:
 1546              	.LBB4983:
 1547              		.loc 1 1719 0
 1548 0020 3D600000 		lis 11,_ZTVN7sigslot12_connection2I22LanguagesSelectBrowseriiNS_15single_threadedEEE+8@ha
 1549 0024 396B0008 		la 11,_ZTVN7sigslot12_connection2I22LanguagesSelectBrowseriiNS_15single_threadedEEE+8@l(11)
 1550 0028 90030004 		stw 0,4(3)
 1551 002c 91630000 		stw 11,0(3)
 1552 0030 815F0008 		lwz 10,8(31)
 1553 0034 817F000C 		lwz 11,12(31)
 1554 0038 91430008 		stw 10,8(3)
 1555 003c 9163000C 		stw 11,12(3)
 1556              	.LBE4983:
 1557              	.LBE4982:
 1558              		.loc 1 1744 0
 1559 0040 80010014 		lwz 0,20(1)
 1560 0044 83E1000C 		lwz 31,12(1)
 1561              	.LVL127:
 1562 0048 7C0803A6 		mtlr 0
 1563 004c 38210010 		addi 1,1,16
 1564              	.LCFI31:
 1565              		.cfi_def_cfa_offset 0
 1566              		.cfi_restore 31
 1567 0050 4E800020 		blr
 1568              		.cfi_endproc
 1569              	.LFE2484:
 1570              		.size	_ZN7sigslot12_connection2I22LanguagesSelectBrowseriiNS_15single_threadedEE5cloneEv, .-_ZN7si
 1571              		.section	.text._ZN7sigslot12_connection3I22LanguagesSelectBrowserP9GuiButtoniRK6_POINTNS_15single_
 1572              		.align 2
 1573              		.weak	_ZN7sigslot12_connection3I22LanguagesSelectBrowserP9GuiButtoniRK6_POINTNS_15single_threadedE
 1574              		.type	_ZN7sigslot12_connection3I22LanguagesSelectBrowserP9GuiButtoniRK6_POINTNS_15single_threadedE
 1575              	_ZN7sigslot12_connection3I22LanguagesSelectBrowserP9GuiButtoniRK6_POINTNS_15single_threadedEE5clone
 1576              	.LFB2498:
 1577              		.loc 1 1789 0
 1578              		.cfi_startproc
 1579              	.LVL128:
 1580 0000 9421FFF0 		stwu 1,-16(1)
 1581              	.LCFI32:
 1582              		.cfi_def_cfa_offset 16
 1583 0004 7C0802A6 		mflr 0
 1584 0008 93E1000C 		stw 31,12(1)
 1585 000c 7C7F1B78 		mr 31,3
 1586              		.cfi_offset 31, -4
 1587              		.cfi_register 65, 0
 1588              		.loc 1 1791 0
 1589 0010 38600010 		li 3,16
 1590              	.LVL129:
 1591              		.loc 1 1789 0
 1592 0014 90010014 		stw 0,20(1)
 1593              		.loc 1 1791 0
 1594              		.cfi_offset 65, 4
 1595 0018 48000001 		bl _Znwj
 1596              		.loc 4 373 0
 1597 001c 801F0004 		lwz 0,4(31)
 1598              	.LVL130:
 1599              	.LBB4984:
 1600              	.LBB4985:
 1601              		.loc 1 1767 0
 1602 0020 3D600000 		lis 11,_ZTVN7sigslot12_connection3I22LanguagesSelectBrowserP9GuiButtoniRK6_POINTNS_15single_thread
 1603 0024 396B0008 		la 11,_ZTVN7sigslot12_connection3I22LanguagesSelectBrowserP9GuiButtoniRK6_POINTNS_15single_threade
 1604 0028 90030004 		stw 0,4(3)
 1605 002c 91630000 		stw 11,0(3)
 1606 0030 815F0008 		lwz 10,8(31)
 1607 0034 817F000C 		lwz 11,12(31)
 1608 0038 91430008 		stw 10,8(3)
 1609 003c 9163000C 		stw 11,12(3)
 1610              	.LBE4985:
 1611              	.LBE4984:
 1612              		.loc 1 1792 0
 1613 0040 80010014 		lwz 0,20(1)
 1614 0044 83E1000C 		lwz 31,12(1)
 1615              	.LVL131:
 1616 0048 7C0803A6 		mtlr 0
 1617 004c 38210010 		addi 1,1,16
 1618              	.LCFI33:
 1619              		.cfi_def_cfa_offset 0
 1620              		.cfi_restore 31
 1621 0050 4E800020 		blr
 1622              		.cfi_endproc
 1623              	.LFE2498:
 1624              		.size	_ZN7sigslot12_connection3I22LanguagesSelectBrowserP9GuiButtoniRK6_POINTNS_15single_threadedE
 1625              		.section	.text._ZN7sigslot12_connection3I22LanguagesSelectBrowserP9GuiButtoniRK6_POINTNS_15single_
 1626              		.align 2
 1627              		.weak	_ZN7sigslot12_connection3I22LanguagesSelectBrowserP9GuiButtoniRK6_POINTNS_15single_threadedE
 1628              		.type	_ZN7sigslot12_connection3I22LanguagesSelectBrowserP9GuiButtoniRK6_POINTNS_15single_threadedE
 1629              	_ZN7sigslot12_connection3I22LanguagesSelectBrowserP9GuiButtoniRK6_POINTNS_15single_threadedEED0Ev:
 1630              	.LFB2495:
 1631              		.loc 1 1783 0
 1632              		.cfi_startproc
 1633              	.LVL132:
 1634 0000 7C0802A6 		mflr 0
 1635 0004 9421FFF8 		stwu 1,-8(1)
 1636              	.LCFI34:
 1637              		.cfi_def_cfa_offset 8
 1638              		.cfi_register 65, 0
 1639              	.LBB4986:
 1640              	.LBB4987:
 1641              	.LBB4988:
 1642              	.LBB4989:
 1643              	.LBB4990:
 1644              	.LBB4991:
 1645              		.loc 1 387 0
 1646 0008 3D200000 		lis 9,_ZTVN7sigslot17_connection_base3IP9GuiButtoniRK6_POINTNS_15single_threadedEEE+8@ha
 1647              	.LBE4991:
 1648              	.LBE4990:
 1649              	.LBE4989:
 1650              	.LBE4988:
 1651              	.LBE4987:
 1652              	.LBE4986:
 1653              		.loc 1 1783 0
 1654 000c 9001000C 		stw 0,12(1)
 1655              	.LBB4997:
 1656              	.LBB4996:
 1657              	.LBB4995:
 1658              	.LBB4994:
 1659              	.LBB4993:
 1660              	.LBB4992:
 1661              		.loc 1 387 0
 1662 0010 38090008 		la 0,_ZTVN7sigslot17_connection_base3IP9GuiButtoniRK6_POINTNS_15single_threadedEEE+8@l(9)
 1663              		.cfi_offset 65, 4
 1664 0014 90030000 		stw 0,0(3)
 1665              	.LBE4992:
 1666              	.LBE4993:
 1667              	.LBE4994:
 1668              	.LBE4995:
 1669              	.LBE4996:
 1670              	.LBE4997:
 1671              		.loc 1 1786 0
 1672 0018 48000001 		bl _ZdlPv
 1673              	.LVL133:
 1674 001c 8001000C 		lwz 0,12(1)
 1675 0020 38210008 		addi 1,1,8
 1676              	.LCFI35:
 1677              		.cfi_def_cfa_offset 0
 1678 0024 7C0803A6 		mtlr 0
 1679 0028 4E800020 		blr
 1680              		.cfi_endproc
 1681              	.LFE2495:
 1682              		.size	_ZN7sigslot12_connection3I22LanguagesSelectBrowserP9GuiButtoniRK6_POINTNS_15single_threadedE
 1683              		.section	.text._ZN7sigslot12_connection2I22LanguagesSelectBrowseriiNS_15single_threadedEED0Ev,"axG
 1684              		.align 2
 1685              		.weak	_ZN7sigslot12_connection2I22LanguagesSelectBrowseriiNS_15single_threadedEED0Ev
 1686              		.type	_ZN7sigslot12_connection2I22LanguagesSelectBrowseriiNS_15single_threadedEED0Ev, @function
 1687              	_ZN7sigslot12_connection2I22LanguagesSelectBrowseriiNS_15single_threadedEED0Ev:
 1688              	.LFB2481:
 1689              		.loc 1 1735 0
 1690              		.cfi_startproc
 1691              	.LVL134:
 1692 0000 7C0802A6 		mflr 0
 1693 0004 9421FFF8 		stwu 1,-8(1)
 1694              	.LCFI36:
 1695              		.cfi_def_cfa_offset 8
 1696              		.cfi_register 65, 0
 1697              	.LBB4998:
 1698              	.LBB4999:
 1699              	.LBB5000:
 1700              	.LBB5001:
 1701              	.LBB5002:
 1702              	.LBB5003:
 1703              		.loc 1 376 0
 1704 0008 3D200000 		lis 9,_ZTVN7sigslot17_connection_base2IiiNS_15single_threadedEEE+8@ha
 1705              	.LBE5003:
 1706              	.LBE5002:
 1707              	.LBE5001:
 1708              	.LBE5000:
 1709              	.LBE4999:
 1710              	.LBE4998:
 1711              		.loc 1 1735 0
 1712 000c 9001000C 		stw 0,12(1)
 1713              	.LBB5009:
 1714              	.LBB5008:
 1715              	.LBB5007:
 1716              	.LBB5006:
 1717              	.LBB5005:
 1718              	.LBB5004:
 1719              		.loc 1 376 0
 1720 0010 38090008 		la 0,_ZTVN7sigslot17_connection_base2IiiNS_15single_threadedEEE+8@l(9)
 1721              		.cfi_offset 65, 4
 1722 0014 90030000 		stw 0,0(3)
 1723              	.LBE5004:
 1724              	.LBE5005:
 1725              	.LBE5006:
 1726              	.LBE5007:
 1727              	.LBE5008:
 1728              	.LBE5009:
 1729              		.loc 1 1738 0
 1730 0018 48000001 		bl _ZdlPv
 1731              	.LVL135:
 1732 001c 8001000C 		lwz 0,12(1)
 1733 0020 38210008 		addi 1,1,8
 1734              	.LCFI37:
 1735              		.cfi_def_cfa_offset 0
 1736 0024 7C0803A6 		mtlr 0
 1737 0028 4E800020 		blr
 1738              		.cfi_endproc
 1739              	.LFE2481:
 1740              		.size	_ZN7sigslot12_connection2I22LanguagesSelectBrowseriiNS_15single_threadedEED0Ev, .-_ZN7sigslo
 1741              		.section	.text._ZN7sigslot17_connection_base2IiiNS_15single_threadedEED0Ev,"axG",@progbits,_ZN7sig
 1742              		.align 2
 1743              		.weak	_ZN7sigslot17_connection_base2IiiNS_15single_threadedEED0Ev
 1744              		.type	_ZN7sigslot17_connection_base2IiiNS_15single_threadedEED0Ev, @function
 1745              	_ZN7sigslot17_connection_base2IiiNS_15single_threadedEED0Ev:
 1746              	.LFB2001:
 1747              		.loc 1 376 0
 1748              		.cfi_startproc
 1749              	.LVL136:
 1750 0000 7C0802A6 		mflr 0
 1751 0004 9421FFF8 		stwu 1,-8(1)
 1752              	.LCFI38:
 1753              		.cfi_def_cfa_offset 8
 1754              		.cfi_register 65, 0
 1755              	.LBB5010:
 1756              	.LBB5011:
 1757              	.LBB5012:
 1758 0008 3D200000 		lis 9,_ZTVN7sigslot17_connection_base2IiiNS_15single_threadedEEE+8@ha
 1759              	.LBE5012:
 1760              	.LBE5011:
 1761              	.LBE5010:
 1762 000c 9001000C 		stw 0,12(1)
 1763              	.LBB5015:
 1764              	.LBB5014:
 1765              	.LBB5013:
 1766              		.loc 1 376 0
 1767 0010 38090008 		la 0,_ZTVN7sigslot17_connection_base2IiiNS_15single_threadedEEE+8@l(9)
 1768              		.cfi_offset 65, 4
 1769 0014 90030000 		stw 0,0(3)
 1770              	.LBE5013:
 1771              	.LBE5014:
 1772              	.LBE5015:
 1773 0018 48000001 		bl _ZdlPv
 1774              	.LVL137:
 1775 001c 8001000C 		lwz 0,12(1)
 1776 0020 38210008 		addi 1,1,8
 1777              	.LCFI39:
 1778              		.cfi_def_cfa_offset 0
 1779 0024 7C0803A6 		mtlr 0
 1780 0028 4E800020 		blr
 1781              		.cfi_endproc
 1782              	.LFE2001:
 1783              		.size	_ZN7sigslot17_connection_base2IiiNS_15single_threadedEED0Ev, .-_ZN7sigslot17_connection_base
 1784              		.section	.text._ZN7sigslot17_connection_base3IP9GuiButtoniRK6_POINTNS_15single_threadedEED0Ev,"axG
 1785              		.align 2
 1786              		.weak	_ZN7sigslot17_connection_base3IP9GuiButtoniRK6_POINTNS_15single_threadedEED0Ev
 1787              		.type	_ZN7sigslot17_connection_base3IP9GuiButtoniRK6_POINTNS_15single_threadedEED0Ev, @function
 1788              	_ZN7sigslot17_connection_base3IP9GuiButtoniRK6_POINTNS_15single_threadedEED0Ev:
 1789              	.LFB1994:
 1790              		.loc 1 387 0
 1791              		.cfi_startproc
 1792              	.LVL138:
 1793 0000 7C0802A6 		mflr 0
 1794 0004 9421FFF8 		stwu 1,-8(1)
 1795              	.LCFI40:
 1796              		.cfi_def_cfa_offset 8
 1797              		.cfi_register 65, 0
 1798              	.LBB5016:
 1799              	.LBB5017:
 1800              	.LBB5018:
 1801 0008 3D200000 		lis 9,_ZTVN7sigslot17_connection_base3IP9GuiButtoniRK6_POINTNS_15single_threadedEEE+8@ha
 1802              	.LBE5018:
 1803              	.LBE5017:
 1804              	.LBE5016:
 1805 000c 9001000C 		stw 0,12(1)
 1806              	.LBB5021:
 1807              	.LBB5020:
 1808              	.LBB5019:
 1809              		.loc 1 387 0
 1810 0010 38090008 		la 0,_ZTVN7sigslot17_connection_base3IP9GuiButtoniRK6_POINTNS_15single_threadedEEE+8@l(9)
 1811              		.cfi_offset 65, 4
 1812 0014 90030000 		stw 0,0(3)
 1813              	.LBE5019:
 1814              	.LBE5020:
 1815              	.LBE5021:
 1816 0018 48000001 		bl _ZdlPv
 1817              	.LVL139:
 1818 001c 8001000C 		lwz 0,12(1)
 1819 0020 38210008 		addi 1,1,8
 1820              	.LCFI41:
 1821              		.cfi_def_cfa_offset 0
 1822 0024 7C0803A6 		mtlr 0
 1823 0028 4E800020 		blr
 1824              		.cfi_endproc
 1825              	.LFE1994:
 1826              		.size	_ZN7sigslot17_connection_base3IP9GuiButtoniRK6_POINTNS_15single_threadedEED0Ev, .-_ZN7sigslo
 1827              		.section	.text._ZN7sigslot15single_threadedD0Ev,"axG",@progbits,_ZN7sigslot15single_threadedD5Ev,c
 1828              		.align 2
 1829              		.weak	_ZN7sigslot15single_threadedD0Ev
 1830              		.type	_ZN7sigslot15single_threadedD0Ev, @function
 1831              	_ZN7sigslot15single_threadedD0Ev:
 1832              	.LFB1150:
 1833              		.loc 1 104 0
 1834              		.cfi_startproc
 1835              	.LVL140:
 1836 0000 7C0802A6 		mflr 0
 1837 0004 9421FFF8 		stwu 1,-8(1)
 1838              	.LCFI42:
 1839              		.cfi_def_cfa_offset 8
 1840              		.cfi_register 65, 0
 1841              	.LBB5022:
 1842              	.LBB5023:
 1843              	.LBB5024:
 1844              		.loc 1 105 0
 1845 0008 3D200000 		lis 9,_ZTVN7sigslot15single_threadedE+8@ha
 1846              	.LBE5024:
 1847              	.LBE5023:
 1848              	.LBE5022:
 1849              		.loc 1 104 0
 1850 000c 9001000C 		stw 0,12(1)
 1851              	.LBB5027:
 1852              	.LBB5026:
 1853              	.LBB5025:
 1854              		.loc 1 105 0
 1855 0010 38090008 		la 0,_ZTVN7sigslot15single_threadedE+8@l(9)
 1856              		.cfi_offset 65, 4
 1857 0014 90030000 		stw 0,0(3)
 1858              	.LBE5025:
 1859              	.LBE5026:
 1860              	.LBE5027:
 1861              		.loc 1 107 0
 1862 0018 48000001 		bl _ZdlPv
 1863              	.LVL141:
 1864 001c 8001000C 		lwz 0,12(1)
 1865 0020 38210008 		addi 1,1,8
 1866              	.LCFI43:
 1867              		.cfi_def_cfa_offset 0
 1868 0024 7C0803A6 		mtlr 0
 1869 0028 4E800020 		blr
 1870              		.cfi_endproc
 1871              	.LFE1150:
 1872              		.size	_ZN7sigslot15single_threadedD0Ev, .-_ZN7sigslot15single_threadedD0Ev
 1873              		.section	".text"
 1874              		.align 2
 1875              		.globl _ZN22LanguagesSelectBrowser13OnButtonClickEP9GuiButtoniRK6_POINT
 1876              		.type	_ZN22LanguagesSelectBrowser13OnButtonClickEP9GuiButtoniRK6_POINT, @function
 1877              	_ZN22LanguagesSelectBrowser13OnButtonClickEP9GuiButtoniRK6_POINT:
 1878              	.LFB1639:
 1879              		.loc 4 238 0
 1880              		.cfi_startproc
 1881              	.LVL142:
 1882 0000 7C0802A6 		mflr 0
 1883 0004 9421FFE8 		stwu 1,-24(1)
 1884              	.LCFI44:
 1885              		.cfi_def_cfa_offset 24
 1886              		.cfi_register 65, 0
 1887 0008 93810008 		stw 28,8(1)
 1888 000c 7C7C1B78 		mr 28,3
 1889              		.cfi_offset 28, -16
 1890 0010 9001001C 		stw 0,28(1)
 1891 0014 93A1000C 		stw 29,12(1)
 1892              	.LBB5028:
 1893              		.loc 4 239 0
 1894 0018 80030144 		lwz 0,324(3)
 1895              		.cfi_offset 29, -12
 1896              		.cfi_offset 65, 4
 1897              	.LBE5028:
 1898              		.loc 4 238 0
 1899 001c 93C10010 		stw 30,16(1)
 1900              	.LBB5045:
 1901              		.loc 4 239 0
 1902 0020 7F802000 		cmpw 7,0,4
 1903              	.LBE5045:
 1904              		.loc 4 238 0
 1905 0024 93E10014 		stw 31,20(1)
 1906              	.LBB5046:
 1907              		.loc 4 239 0
 1908 0028 419E0080 		beq- 7,.L115
 1909              		.cfi_offset 31, -4
 1910              		.cfi_offset 30, -8
 1911              	.LVL143:
 1912              	.LBB5029:
 1913              	.LBB5030:
 1914              	.LBB5031:
 1915              		.loc 4 373 0 discriminator 1
 1916 002c 3D200000 		lis 9,LangList@ha
 1917              	.LBE5031:
 1918              		.loc 4 247 0 discriminator 1
 1919 0030 3BE00000 		li 31,0
 1920              	.LBB5040:
 1921              		.loc 4 373 0 discriminator 1
 1922 0034 3BC90000 		la 30,LangList@l(9)
 1923              	.LBB5032:
 1924              	.LBB5033:
 1925              		.file 5 "d:\\devkitpro\\devkitppc\\bin\\../lib/gcc/powerpc-eabi/4.6.3/../../../../powerpc-eabi/inc
 1926              		.loc 5 571 0 discriminator 1
 1927 0038 80090000 		lwz 0,LangList@l(9)
 1928 003c 817E0004 		lwz 11,4(30)
 1929              	.LBE5033:
 1930              	.LBE5032:
 1931              	.LBE5040:
 1932              		.loc 4 247 0 discriminator 1
 1933 0040 3BA00000 		li 29,0
 1934              	.LBB5041:
 1935              	.LBB5037:
 1936              	.LBB5034:
 1937              		.loc 5 571 0 discriminator 1
 1938 0044 7C005850 		subf 0,0,11
 1939              	.LBE5034:
 1940              	.LBE5037:
 1941              	.LBE5041:
 1942              		.loc 4 247 0 discriminator 1
 1943 0048 2F800003 		cmpwi 7,0,3
 1944 004c 409D0038 		ble- 7,.L117
 1945              	.LVL144:
 1946              	.L121:
 1947              		.loc 4 249 0
 1948 0050 7FE4FB78 		mr 4,31
 1949 0054 7FC3F378 		mr 3,30
 1950 0058 48000001 		bl _ZN9CLangList6NeededEi
 1951              		.loc 4 247 0
 1952 005c 3BFF0001 		addi 31,31,1
 1953              		.loc 4 249 0
 1954 0060 2F830000 		cmpwi 7,3,0
 1955              	.LBB5042:
 1956              	.LBB5038:
 1957              	.LBB5035:
 1958              		.loc 5 571 0
 1959 0064 801E0000 		lwz 0,0(30)
 1960              	.LBE5035:
 1961              	.LBE5038:
 1962              	.LBE5042:
 1963              		.loc 4 249 0
 1964 0068 419E0008 		beq- 7,.L119
 1965              		.loc 4 250 0
 1966 006c 3BBD0001 		addi 29,29,1
 1967              	.LVL145:
 1968              	.L119:
 1969              	.LBB5043:
 1970              	.LBB5039:
 1971              	.LBB5036:
 1972              		.loc 5 571 0
 1973 0070 813E0004 		lwz 9,4(30)
 1974 0074 7C004850 		subf 0,0,9
 1975 0078 7C001670 		srawi 0,0,2
 1976              	.LBE5036:
 1977              	.LBE5039:
 1978              	.LBE5043:
 1979              		.loc 4 247 0
 1980 007c 7F9F0000 		cmpw 7,31,0
 1981 0080 419CFFD0 		blt+ 7,.L121
 1982              	.LVL146:
 1983              	.L117:
 1984              	.LBE5030:
 1985              	.LBE5029:
 1986              	.LBE5046:
 1987              		.loc 4 255 0
 1988 0084 8001001C 		lwz 0,28(1)
 1989              	.LBB5047:
 1990              	.LBB5044:
 1991              		.loc 4 253 0
 1992 0088 93BC00D8 		stw 29,216(28)
 1993              	.LBE5044:
 1994              	.LBE5047:
 1995              		.loc 4 255 0
 1996 008c 7C0803A6 		mtlr 0
 1997 0090 83810008 		lwz 28,8(1)
 1998              	.LVL147:
 1999 0094 83A1000C 		lwz 29,12(1)
 2000 0098 83C10010 		lwz 30,16(1)
 2001 009c 83E10014 		lwz 31,20(1)
 2002 00a0 38210018 		addi 1,1,24
 2003              		.cfi_remember_state
 2004              	.LCFI45:
 2005              		.cfi_def_cfa_offset 0
 2006              		.cfi_restore 31
 2007              		.cfi_restore 30
 2008              		.cfi_restore 29
 2009              		.cfi_restore 28
 2010 00a4 4E800020 		blr
 2011              	.LVL148:
 2012              	.L115:
 2013              	.LCFI46:
 2014              		.cfi_restore_state
 2015              	.LBB5048:
 2016              		.loc 4 241 0
 2017 00a8 38000000 		li 0,0
 2018              	.LBE5048:
 2019              		.loc 4 255 0
 2020 00ac 83810008 		lwz 28,8(1)
 2021              	.LBB5049:
 2022              		.loc 4 241 0
 2023 00b0 900300D8 		stw 0,216(3)
 2024              	.LBE5049:
 2025              		.loc 4 255 0
 2026 00b4 8001001C 		lwz 0,28(1)
 2027 00b8 83A1000C 		lwz 29,12(1)
 2028 00bc 7C0803A6 		mtlr 0
 2029 00c0 83C10010 		lwz 30,16(1)
 2030 00c4 83E10014 		lwz 31,20(1)
 2031 00c8 38210018 		addi 1,1,24
 2032              		.cfi_restore 28
 2033              		.cfi_restore 29
 2034              		.cfi_restore 30
 2035              		.cfi_restore 31
 2036              	.LCFI47:
 2037              		.cfi_def_cfa_offset 0
 2038 00cc 4E800020 		blr
 2039              		.cfi_endproc
 2040              	.LFE1639:
 2041              		.size	_ZN22LanguagesSelectBrowser13OnButtonClickEP9GuiButtoniRK6_POINT, .-_ZN22LanguagesSelectBrow
 2042              		.align 2
 2043              		.globl _ZN22LanguagesSelectBrowser11OnListClickEP9GuiButtoniRK6_POINT
 2044              		.type	_ZN22LanguagesSelectBrowser11OnListClickEP9GuiButtoniRK6_POINT, @function
 2045              	_ZN22LanguagesSelectBrowser11OnListClickEP9GuiButtoniRK6_POINT:
 2046              	.LFB1640:
 2047              		.loc 4 258 0
 2048              		.cfi_startproc
 2049              	.LVL149:
 2050 00d0 7C0802A6 		mflr 0
 2051 00d4 9421FFE0 		stwu 1,-32(1)
 2052              	.LCFI48:
 2053              		.cfi_def_cfa_offset 32
 2054              		.cfi_register 65, 0
 2055 00d8 93A10014 		stw 29,20(1)
 2056 00dc 7C7D1B78 		mr 29,3
 2057              		.cfi_offset 29, -12
 2058 00e0 90010024 		stw 0,36(1)
 2059 00e4 9361000C 		stw 27,12(1)
 2060              	.LBB5050:
 2061              		.loc 4 373 0
 2062 00e8 81230100 		lwz 9,256(3)
 2063              	.LBB5051:
 2064              	.LBB5052:
 2065              		.loc 5 571 0
 2066 00ec 80030104 		lwz 0,260(3)
 2067              		.cfi_offset 27, -20
 2068              		.cfi_offset 65, 4
 2069              	.LBE5052:
 2070              	.LBE5051:
 2071              	.LBE5050:
 2072              		.loc 4 258 0
 2073 00f0 93810010 		stw 28,16(1)
 2074              	.LBB5057:
 2075              	.LBB5054:
 2076              	.LBB5053:
 2077              		.loc 5 571 0
 2078 00f4 7C090050 		subf 0,9,0
 2079              	.LBE5053:
 2080              	.LBE5054:
 2081              	.LBE5057:
 2082              		.loc 4 258 0
 2083 00f8 93C10018 		stw 30,24(1)
 2084              	.LBB5058:
 2085              		.loc 4 259 0
 2086 00fc 7C001671 		srawi. 0,0,2
 2087              	.LBE5058:
 2088              		.loc 4 258 0
 2089 0100 93E1001C 		stw 31,28(1)
 2090              	.LBB5059:
 2091              		.loc 4 259 0
 2092 0104 41820034 		beq- 0,.L123
 2093              		.cfi_offset 31, -4
 2094              		.cfi_offset 30, -8
 2095              		.cfi_offset 28, -16
 2096              	.LVL150:
 2097              		.loc 4 261 0
 2098 0108 81690000 		lwz 11,0(9)
 2099              		.loc 4 259 0
 2100 010c 3BE00000 		li 31,0
 2101 0110 7C0903A6 		mtctr 0
 2102              		.loc 4 261 0
 2103 0114 7F8B2000 		cmpw 7,11,4
 2104 0118 40BE0014 		bne+ 7,.L126
 2105 011c 48000040 		b .L131
 2106              	.LVL151:
 2107              	.L127:
 2108 0120 7C09F02E 		lwzx 0,9,30
 2109 0124 7F802000 		cmpw 7,0,4
 2110 0128 419E003C 		beq- 7,.L125
 2111              	.LVL152:
 2112              	.L126:
 2113              		.loc 4 259 0
 2114 012c 3BFF0001 		addi 31,31,1
 2115              	.LVL153:
 2116              		.loc 4 257 0
 2117 0130 57FE103A 		slwi 30,31,2
 2118              		.loc 4 259 0
 2119 0134 4200FFEC 		bdnz .L127
 2120              	.LVL154:
 2121              	.L123:
 2122              	.LBE5059:
 2123              		.loc 4 268 0
 2124 0138 80010024 		lwz 0,36(1)
 2125 013c 8361000C 		lwz 27,12(1)
 2126 0140 7C0803A6 		mtlr 0
 2127 0144 83810010 		lwz 28,16(1)
 2128 0148 83A10014 		lwz 29,20(1)
 2129 014c 83C10018 		lwz 30,24(1)
 2130 0150 83E1001C 		lwz 31,28(1)
 2131 0154 38210020 		addi 1,1,32
 2132              		.cfi_remember_state
 2133              	.LCFI49:
 2134              		.cfi_def_cfa_offset 0
 2135              		.cfi_restore 31
 2136              		.cfi_restore 30
 2137              		.cfi_restore 29
 2138              		.cfi_restore 28
 2139              		.cfi_restore 27
 2140 0158 4E800020 		blr
 2141              	.LVL155:
 2142              	.L131:
 2143              	.LCFI50:
 2144              		.cfi_restore_state
 2145              	.LBB5060:
 2146              		.loc 5 696 0
 2147 015c 3BC00000 		li 30,0
 2148              		.loc 4 259 0
 2149 0160 3BE00000 		li 31,0
 2150              	.LVL156:
 2151              	.L125:
 2152              		.loc 4 263 0
 2153 0164 837D00D4 		lwz 27,212(29)
 2154 0168 3F800000 		lis 28,LangList@ha
 2155 016c 3B9C0000 		la 28,LangList@l(28)
 2156 0170 7F7FDA14 		add 27,31,27
 2157 0174 7F83E378 		mr 3,28
 2158              	.LVL157:
 2159 0178 7F64DB78 		mr 4,27
 2160              	.LVL158:
 2161 017c 48000001 		bl _ZN9CLangList6NeededEi
 2162              	.LVL159:
 2163 0180 7F64DB78 		mr 4,27
 2164 0184 68650001 		xori 5,3,1
 2165 0188 7F83E378 		mr 3,28
 2166 018c 54A5063E 		rlwinm 5,5,0,0xff
 2167 0190 48000001 		bl _ZN9CLangList9SetNeededEib
 2168              	.LVL160:
 2169              		.loc 4 264 0
 2170 0194 809D00D4 		lwz 4,212(29)
 2171 0198 813D010C 		lwz 9,268(29)
 2172 019c 7F83E378 		mr 3,28
 2173 01a0 7C9F2214 		add 4,31,4
 2174 01a4 7FC9F02E 		lwzx 30,9,30
 2175 01a8 48000001 		bl _ZN9CLangList6NeededEi
 2176              	.LVL161:
 2177              	.LBE5060:
 2178              		.loc 4 268 0
 2179 01ac 80010024 		lwz 0,36(1)
 2180              	.LBB5061:
 2181              	.LBB5055:
 2182              	.LBB5056:
 2183              		.file 6 "d:/Projects/SaveGameManager/savegame-manager-gx/trunk/source/Language/../Gui/gui_checkbox
 2184              		.loc 6 41 0
 2185 01b0 987E03B4 		stb 3,948(30)
 2186              	.LBE5056:
 2187              	.LBE5055:
 2188              	.LBE5061:
 2189              		.loc 4 268 0
 2190 01b4 7C0803A6 		mtlr 0
 2191 01b8 8361000C 		lwz 27,12(1)
 2192 01bc 83810010 		lwz 28,16(1)
 2193 01c0 83A10014 		lwz 29,20(1)
 2194              	.LVL162:
 2195 01c4 83C10018 		lwz 30,24(1)
 2196 01c8 83E1001C 		lwz 31,28(1)
 2197              	.LVL163:
 2198 01cc 38210020 		addi 1,1,32
 2199              		.cfi_restore 27
 2200              		.cfi_restore 28
 2201              		.cfi_restore 29
 2202              		.cfi_restore 30
 2203              		.cfi_restore 31
 2204              	.LCFI51:
 2205              		.cfi_def_cfa_offset 0
 2206 01d0 4E800020 		blr
 2207              		.cfi_endproc
 2208              	.LFE1640:
 2209              		.size	_ZN22LanguagesSelectBrowser11OnListClickEP9GuiButtoniRK6_POINT, .-_ZN22LanguagesSelectBrowse
 2210              		.align 2
 2211              		.globl _ZN22LanguagesSelectBrowser6UpdateEP10GuiTrigger
 2212              		.type	_ZN22LanguagesSelectBrowser6UpdateEP10GuiTrigger, @function
 2213              	_ZN22LanguagesSelectBrowser6UpdateEP10GuiTrigger:
 2214              	.LFB1643:
 2215              		.loc 4 315 0
 2216              		.cfi_startproc
 2217              	.LVL164:
 2218 01d4 7C0802A6 		mflr 0
 2219 01d8 9421FFD8 		stwu 1,-40(1)
 2220              	.LCFI52:
 2221              		.cfi_def_cfa_offset 40
 2222              		.cfi_register 65, 0
 2223 01dc 93A1001C 		stw 29,28(1)
 2224 01e0 7C9D2378 		mr 29,4
 2225              		.cfi_offset 29, -12
 2226 01e4 9001002C 		stw 0,44(1)
 2227 01e8 93E10024 		stw 31,36(1)
 2228 01ec 7C7F1B78 		mr 31,3
 2229              		.cfi_offset 31, -4
 2230              		.cfi_offset 65, 4
 2231              	.LBB5094:
 2232              		.loc 4 316 0
 2233 01f0 80030048 		lwz 0,72(3)
 2234              	.LBE5094:
 2235              		.loc 4 315 0
 2236 01f4 93610014 		stw 27,20(1)
 2237              	.LBB5095:
 2238              		.loc 4 316 0
 2239 01f8 2F800004 		cmpwi 7,0,4
 2240              	.LBE5095:
 2241              		.loc 4 315 0
 2242 01fc 93810018 		stw 28,24(1)
 2243 0200 93C10020 		stw 30,32(1)
 2244              	.LBB5096:
 2245              		.loc 4 316 0
 2246 0204 419E0258 		beq- 7,.L132
 2247              		.cfi_offset 30, -8
 2248              		.cfi_offset 28, -16
 2249              		.cfi_offset 27, -20
 2250              		.loc 4 316 0 is_stmt 0 discriminator 1
 2251 0208 2F840000 		cmpwi 7,4,0
 2252 020c 419E0250 		beq- 7,.L132
 2253              	.LVL165:
 2254              	.LBE5096:
 2255              	.LBB5097:
 2256              	.LBB5098:
 2257              		.loc 4 319 0 is_stmt 1
 2258 0210 8063013C 		lwz 3,316(3)
 2259              	.LVL166:
 2260 0214 81230000 		lwz 9,0(3)
 2261 0218 800900BC 		lwz 0,188(9)
 2262 021c 7C0903A6 		mtctr 0
 2263 0220 4E800421 		bctrl
 2264              	.LVL167:
 2265              		.loc 4 320 0
 2266 0224 807F0144 		lwz 3,324(31)
 2267 0228 7FA4EB78 		mr 4,29
 2268 022c 81230000 		lwz 9,0(3)
 2269 0230 800900BC 		lwz 0,188(9)
 2270 0234 7C0903A6 		mtctr 0
 2271 0238 4E800421 		bctrl
 2272              		.loc 4 321 0
 2273 023c 807F0140 		lwz 3,320(31)
 2274 0240 7FA4EB78 		mr 4,29
 2275 0244 81230000 		lwz 9,0(3)
 2276 0248 800900BC 		lwz 0,188(9)
 2277 024c 7C0903A6 		mtctr 0
 2278 0250 4E800421 		bctrl
 2279              	.LVL168:
 2280              	.LBB5099:
 2281              		.loc 4 373 0
 2282 0254 3D200000 		lis 9,LangList@ha
 2283 0258 39690000 		la 11,LangList@l(9)
 2284              	.LBB5100:
 2285              	.LBB5101:
 2286              		.loc 5 571 0
 2287 025c 81290000 		lwz 9,LangList@l(9)
 2288 0260 808B0004 		lwz 4,4(11)
 2289              	.LBE5101:
 2290              	.LBE5100:
 2291              	.LBE5099:
 2292              		.loc 4 323 0
 2293 0264 801F00CC 		lwz 0,204(31)
 2294              	.LBB5104:
 2295              	.LBB5103:
 2296              	.LBB5102:
 2297              		.loc 5 571 0
 2298 0268 7C892050 		subf 4,9,4
 2299 026c 7C841670 		srawi 4,4,2
 2300              	.LBE5102:
 2301              	.LBE5103:
 2302              	.LBE5104:
 2303              		.loc 4 323 0
 2304 0270 7F802000 		cmpw 7,0,4
 2305 0274 419E0010 		beq- 7,.L134
 2306              	.LVL169:
 2307              		.loc 4 325 0
 2308 0278 909F00CC 		stw 4,204(31)
 2309              		.loc 4 326 0
 2310 027c 807F013C 		lwz 3,316(31)
 2311 0280 48000001 		bl _ZN9Scrollbar14SetEntrieCountEi
 2312              	.LVL170:
 2313              	.L134:
 2314              	.LBE5098:
 2315              		.loc 4 373 0
 2316 0284 813F0100 		lwz 9,256(31)
 2317              	.LBB5125:
 2318              	.LBB5105:
 2319              	.LBB5106:
 2320              	.LBB5107:
 2321              		.loc 5 571 0
 2322 0288 809F0104 		lwz 4,260(31)
 2323 028c 7C892050 		subf 4,9,4
 2324 0290 7C841670 		srawi 4,4,2
 2325              	.LBE5107:
 2326              	.LBE5106:
 2327              		.loc 4 329 0
 2328 0294 2F840000 		cmpwi 7,4,0
 2329 0298 409D01A0 		ble- 7,.L135
 2330              	.LBB5111:
 2331              		.loc 4 331 0
 2332 029c 801F00D0 		lwz 0,208(31)
 2333              	.LBE5111:
 2334              		.loc 4 329 0
 2335 02a0 3B800000 		li 28,0
 2336 02a4 7D2B4B78 		mr 11,9
 2337 02a8 3BC00000 		li 30,0
 2338              	.LBB5114:
 2339              		.loc 4 331 0
 2340 02ac 7F80E000 		cmpw 7,0,28
 2341 02b0 409E00A4 		bne- 7,.L147
 2342              	.LVL171:
 2343              	.L136:
 2344              		.loc 4 333 0
 2345 02b4 7C6BF02E 		lwzx 3,11,30
 2346 02b8 81230000 		lwz 9,0(3)
 2347 02bc 80090054 		lwz 0,84(9)
 2348 02c0 7C0903A6 		mtctr 0
 2349 02c4 4E800421 		bctrl
 2350 02c8 2F830000 		cmpwi 7,3,0
 2351 02cc 419E01D0 		beq- 7,.L139
 2352              	.LVL172:
 2353              	.L144:
 2354              		.loc 4 338 0
 2355 02d0 813D000C 		lwz 9,12(29)
 2356              		.loc 4 336 0
 2357 02d4 837D0008 		lwz 27,8(29)
 2358              	.LVL173:
 2359              		.loc 4 338 0
 2360 02d8 800900AC 		lwz 0,172(9)
 2361 02dc 2F800000 		cmpwi 7,0,0
 2362 02e0 409E00A4 		bne- 7,.L148
 2363              	.LVL174:
 2364              	.L145:
 2365              		.loc 4 341 0
 2366 02e4 813F0100 		lwz 9,256(31)
 2367 02e8 7FA4EB78 		mr 4,29
 2368 02ec 7C69F02E 		lwzx 3,9,30
 2369 02f0 81230000 		lwz 9,0(3)
 2370 02f4 800900BC 		lwz 0,188(9)
 2371 02f8 7C0903A6 		mtctr 0
 2372 02fc 4E800421 		bctrl
 2373              		.loc 4 344 0
 2374 0300 813F0100 		lwz 9,256(31)
 2375              		.loc 4 342 0
 2376 0304 937D0008 		stw 27,8(29)
 2377              		.loc 4 344 0
 2378 0308 7C69F02E 		lwzx 3,9,30
 2379 030c 81230000 		lwz 9,0(3)
 2380 0310 80090054 		lwz 0,84(9)
 2381 0314 7C0903A6 		mtctr 0
 2382 0318 4E800421 		bctrl
 2383 031c 2F830001 		cmpwi 7,3,1
 2384 0320 419E00F4 		beq- 7,.L149
 2385              	.L142:
 2386              	.LBE5114:
 2387              	.LBE5105:
 2388              	.LBE5125:
 2389              		.loc 4 373 0
 2390 0324 813F0100 		lwz 9,256(31)
 2391              	.LBB5126:
 2392              	.LBB5122:
 2393              		.loc 4 329 0
 2394 0328 3B9C0001 		addi 28,28,1
 2395              	.LVL175:
 2396              	.LBB5115:
 2397              	.LBB5108:
 2398              		.loc 5 571 0
 2399 032c 809F0104 		lwz 4,260(31)
 2400 0330 3BDE0004 		addi 30,30,4
 2401 0334 7C892050 		subf 4,9,4
 2402 0338 7C841670 		srawi 4,4,2
 2403              	.LBE5108:
 2404              	.LBE5115:
 2405              		.loc 4 329 0
 2406 033c 7F9C2000 		cmpw 7,28,4
 2407 0340 409C00F8 		bge- 7,.L135
 2408              	.L146:
 2409              	.LBB5116:
 2410              		.loc 4 331 0
 2411 0344 801F00D0 		lwz 0,208(31)
 2412              	.LBE5116:
 2413              		.loc 4 329 0
 2414 0348 7D2B4B78 		mr 11,9
 2415              	.LBB5117:
 2416              		.loc 4 331 0
 2417 034c 7F80E000 		cmpw 7,0,28
 2418 0350 41BEFF64 		beq- 7,.L136
 2419              	.LVL176:
 2420              	.L147:
 2421 0354 7C69F02E 		lwzx 3,9,30
 2422 0358 81230000 		lwz 9,0(3)
 2423 035c 80090054 		lwz 0,84(9)
 2424 0360 7C0903A6 		mtctr 0
 2425 0364 4E800421 		bctrl
 2426 0368 2F830001 		cmpwi 7,3,1
 2427 036c 419E0114 		beq- 7,.L137
 2428              		.loc 4 333 0
 2429 0370 801F00D0 		lwz 0,208(31)
 2430 0374 7F9C0000 		cmpw 7,28,0
 2431 0378 409EFF58 		bne+ 7,.L144
 2432 037c 817F0100 		lwz 11,256(31)
 2433 0380 4BFFFF34 		b .L136
 2434              	.LVL177:
 2435              	.L148:
 2436              		.loc 4 338 0
 2437 0384 817F0100 		lwz 11,256(31)
 2438 0388 C1A900B0 		lfs 13,176(9)
 2439 038c 7C6BF02E 		lwzx 3,11,30
 2440 0390 C00900B4 		lfs 0,180(9)
 2441 0394 FDA0681E 		fctiwz 13,13
 2442 0398 81230000 		lwz 9,0(3)
 2443 039c FC00001E 		fctiwz 0,0
 2444 03a0 800900A4 		lwz 0,164(9)
 2445 03a4 39210008 		addi 9,1,8
 2446 03a8 7DA04FAE 		stfiwx 13,0,9
 2447 03ac 3921000C 		addi 9,1,12
 2448 03b0 7C004FAE 		stfiwx 0,0,9
 2449 03b4 7C0903A6 		mtctr 0
 2450 03b8 80810008 		lwz 4,8(1)
 2451 03bc 80A1000C 		lwz 5,12(1)
 2452 03c0 4E800421 		bctrl
 2453 03c4 2F830000 		cmpwi 7,3,0
 2454 03c8 40BEFF1C 		bne- 7,.L145
 2455              		.loc 4 341 0
 2456 03cc 813F0100 		lwz 9,256(31)
 2457              		.loc 4 339 0
 2458 03d0 3800FFFF 		li 0,-1
 2459 03d4 901D0008 		stw 0,8(29)
 2460              		.loc 4 341 0
 2461 03d8 7FA4EB78 		mr 4,29
 2462 03dc 7C69F02E 		lwzx 3,9,30
 2463 03e0 81230000 		lwz 9,0(3)
 2464 03e4 800900BC 		lwz 0,188(9)
 2465 03e8 7C0903A6 		mtctr 0
 2466 03ec 4E800421 		bctrl
 2467              		.loc 4 344 0
 2468 03f0 813F0100 		lwz 9,256(31)
 2469              		.loc 4 342 0
 2470 03f4 937D0008 		stw 27,8(29)
 2471              		.loc 4 344 0
 2472 03f8 7C69F02E 		lwzx 3,9,30
 2473 03fc 81230000 		lwz 9,0(3)
 2474 0400 80090054 		lwz 0,84(9)
 2475 0404 7C0903A6 		mtctr 0
 2476 0408 4E800421 		bctrl
 2477 040c 2F830001 		cmpwi 7,3,1
 2478 0410 409EFF14 		bne+ 7,.L142
 2479              	.L149:
 2480              	.LBE5117:
 2481              	.LBE5122:
 2482              	.LBE5126:
 2483              		.loc 4 373 0
 2484 0414 813F0100 		lwz 9,256(31)
 2485              	.LBB5127:
 2486              	.LBB5123:
 2487              	.LBB5118:
 2488              	.LBB5109:
 2489              		.loc 5 571 0
 2490 0418 3BDE0004 		addi 30,30,4
 2491 041c 809F0104 		lwz 4,260(31)
 2492              	.LBE5109:
 2493              	.LBE5118:
 2494              	.LBB5119:
 2495              		.loc 4 345 0
 2496 0420 939F00D0 		stw 28,208(31)
 2497              	.LBE5119:
 2498              		.loc 4 329 0
 2499 0424 3B9C0001 		addi 28,28,1
 2500              	.LVL178:
 2501              	.LBB5120:
 2502              	.LBB5110:
 2503              		.loc 5 571 0
 2504 0428 7C892050 		subf 4,9,4
 2505 042c 7C841670 		srawi 4,4,2
 2506              	.LBE5110:
 2507              	.LBE5120:
 2508              		.loc 4 329 0
 2509 0430 7F9C2000 		cmpw 7,28,4
 2510 0434 419CFF10 		blt+ 7,.L146
 2511              	.LVL179:
 2512              	.L135:
 2513              	.LBE5123:
 2514              		.loc 4 348 0
 2515 0438 807F013C 		lwz 3,316(31)
 2516 043c 48000001 		bl _ZN9Scrollbar11SetPageSizeEi
 2517              		.loc 4 349 0
 2518 0440 807F013C 		lwz 3,316(31)
 2519 0444 38800000 		li 4,0
 2520 0448 48000001 		bl _ZN9Scrollbar10SetRowSizeEi
 2521              		.loc 4 350 0
 2522 044c 807F013C 		lwz 3,316(31)
 2523 0450 809F00D0 		lwz 4,208(31)
 2524 0454 80BF00D4 		lwz 5,212(31)
 2525 0458 48000001 		bl _ZN9Scrollbar11SetSelectedEii
 2526              	.LVL180:
 2527              	.L132:
 2528              	.LBE5127:
 2529              	.LBE5097:
 2530              		.loc 4 351 0
 2531 045c 8001002C 		lwz 0,44(1)
 2532 0460 83610014 		lwz 27,20(1)
 2533 0464 7C0803A6 		mtlr 0
 2534 0468 83810018 		lwz 28,24(1)
 2535 046c 83A1001C 		lwz 29,28(1)
 2536              	.LVL181:
 2537 0470 83C10020 		lwz 30,32(1)
 2538 0474 83E10024 		lwz 31,36(1)
 2539              	.LVL182:
 2540 0478 38210028 		addi 1,1,40
 2541              		.cfi_remember_state
 2542              	.LCFI53:
 2543              		.cfi_def_cfa_offset 0
 2544              		.cfi_restore 31
 2545              		.cfi_restore 30
 2546              		.cfi_restore 29
 2547              		.cfi_restore 28
 2548              		.cfi_restore 27
 2549 047c 4E800020 		blr
 2550              	.LVL183:
 2551              	.L137:
 2552              	.LCFI54:
 2553              		.cfi_restore_state
 2554              	.LBB5129:
 2555              	.LBB5128:
 2556              	.LBB5124:
 2557              	.LBB5121:
 2558              		.loc 4 332 0
 2559 0480 813F0100 		lwz 9,256(31)
 2560 0484 7C69F02E 		lwzx 3,9,30
 2561 0488 81230000 		lwz 9,0(3)
 2562 048c 8009005C 		lwz 0,92(9)
 2563 0490 7C0903A6 		mtctr 0
 2564 0494 4E800421 		bctrl
 2565 0498 4BFFFE38 		b .L144
 2566              	.LVL184:
 2567              	.L139:
 2568              	.LBB5112:
 2569              	.LBB5113:
 2570              		.loc 5 696 0
 2571 049c 801F00D0 		lwz 0,208(31)
 2572              	.LBE5113:
 2573              	.LBE5112:
 2574              		.loc 4 334 0
 2575 04a0 38800001 		li 4,1
 2576 04a4 813F0100 		lwz 9,256(31)
 2577 04a8 5400103A 		slwi 0,0,2
 2578 04ac 80BD0008 		lwz 5,8(29)
 2579 04b0 7C69002E 		lwzx 3,9,0
 2580 04b4 81230000 		lwz 9,0(3)
 2581 04b8 80090050 		lwz 0,80(9)
 2582 04bc 7C0903A6 		mtctr 0
 2583 04c0 4E800421 		bctrl
 2584              	.LVL185:
 2585 04c4 4BFFFE0C 		b .L144
 2586              	.LBE5121:
 2587              	.LBE5124:
 2588              	.LBE5128:
 2589              	.LBE5129:
 2590              		.cfi_endproc
 2591              	.LFE1643:
 2592              		.size	_ZN22LanguagesSelectBrowser6UpdateEP10GuiTrigger, .-_ZN22LanguagesSelectBrowser6UpdateEP10Gu
 2593              		.align 2
 2594              		.globl _ZN22LanguagesSelectBrowser4DrawEv
 2595              		.type	_ZN22LanguagesSelectBrowser4DrawEv, @function
 2596              	_ZN22LanguagesSelectBrowser4DrawEv:
 2597              	.LFB1642:
 2598              		.loc 4 291 0
 2599              		.cfi_startproc
 2600              	.LVL186:
 2601 04c8 7C0802A6 		mflr 0
 2602 04cc 9421FFE8 		stwu 1,-24(1)
 2603              	.LCFI55:
 2604              		.cfi_def_cfa_offset 24
 2605              		.cfi_register 65, 0
 2606 04d0 93E10014 		stw 31,20(1)
 2607 04d4 7C7F1B78 		mr 31,3
 2608              		.cfi_offset 31, -4
 2609 04d8 9001001C 		stw 0,28(1)
 2610 04dc 93A1000C 		stw 29,12(1)
 2611              	.LBB5141:
 2612              		.loc 4 292 0
 2613 04e0 81230000 		lwz 9,0(3)
 2614              	.LBE5141:
 2615              		.loc 4 291 0
 2616 04e4 93C10010 		stw 30,16(1)
 2617              	.LBB5142:
 2618              		.loc 4 292 0
 2619 04e8 80090034 		lwz 0,52(9)
 2620              		.cfi_offset 30, -8
 2621              		.cfi_offset 29, -12
 2622              		.cfi_offset 65, 4
 2623 04ec 7C0903A6 		mtctr 0
 2624 04f0 4E800421 		bctrl
 2625              	.LVL187:
 2626 04f4 2F830000 		cmpwi 7,3,0
 2627 04f8 409E0020 		bne- 7,.L155
 2628              	.LBE5142:
 2629              		.loc 4 312 0
 2630 04fc 8001001C 		lwz 0,28(1)
 2631 0500 83A1000C 		lwz 29,12(1)
 2632 0504 7C0803A6 		mtlr 0
 2633 0508 83C10010 		lwz 30,16(1)
 2634 050c 83E10014 		lwz 31,20(1)
 2635              	.LVL188:
 2636 0510 38210018 		addi 1,1,24
 2637              		.cfi_remember_state
 2638              	.LCFI56:
 2639              		.cfi_def_cfa_offset 0
 2640              		.cfi_restore 31
 2641              		.cfi_restore 30
 2642              		.cfi_restore 29
 2643 0514 4E800020 		blr
 2644              	.LVL189:
 2645              	.L155:
 2646              	.LCFI57:
 2647              		.cfi_restore_state
 2648              	.LBB5143:
 2649              	.LBB5144:
 2650              		.loc 4 295 0
 2651 0518 807F0118 		lwz 3,280(31)
 2652 051c 81230000 		lwz 9,0(3)
 2653 0520 800900C0 		lwz 0,192(9)
 2654 0524 7C0903A6 		mtctr 0
 2655 0528 4E800421 		bctrl
 2656              		.loc 4 296 0
 2657 052c 807F011C 		lwz 3,284(31)
 2658 0530 81230000 		lwz 9,0(3)
 2659 0534 800900C0 		lwz 0,192(9)
 2660 0538 7C0903A6 		mtctr 0
 2661 053c 4E800421 		bctrl
 2662              		.loc 4 297 0
 2663 0540 807F0138 		lwz 3,312(31)
 2664 0544 81230000 		lwz 9,0(3)
 2665 0548 800900C0 		lwz 0,192(9)
 2666 054c 7C0903A6 		mtctr 0
 2667 0550 4E800421 		bctrl
 2668              		.loc 4 298 0
 2669 0554 807F0120 		lwz 3,288(31)
 2670 0558 81230000 		lwz 9,0(3)
 2671 055c 800900C0 		lwz 0,192(9)
 2672 0560 7C0903A6 		mtctr 0
 2673 0564 4E800421 		bctrl
 2674              		.loc 4 299 0
 2675 0568 807F0124 		lwz 3,292(31)
 2676 056c 81230000 		lwz 9,0(3)
 2677 0570 800900C0 		lwz 0,192(9)
 2678 0574 7C0903A6 		mtctr 0
 2679 0578 4E800421 		bctrl
 2680              		.loc 4 300 0
 2681 057c 807F0144 		lwz 3,324(31)
 2682 0580 81230000 		lwz 9,0(3)
 2683 0584 800900C0 		lwz 0,192(9)
 2684 0588 7C0903A6 		mtctr 0
 2685 058c 4E800421 		bctrl
 2686              		.loc 4 301 0
 2687 0590 807F0140 		lwz 3,320(31)
 2688 0594 81230000 		lwz 9,0(3)
 2689 0598 800900C0 		lwz 0,192(9)
 2690 059c 7C0903A6 		mtctr 0
 2691 05a0 4E800421 		bctrl
 2692              	.LVL190:
 2693              	.LBE5144:
 2694              		.loc 4 373 0
 2695 05a4 813F0100 		lwz 9,256(31)
 2696              	.LBB5151:
 2697              	.LBB5145:
 2698              	.LBB5146:
 2699              	.LBB5147:
 2700              		.loc 5 571 0
 2701 05a8 801F0104 		lwz 0,260(31)
 2702 05ac 7C090050 		subf 0,9,0
 2703              	.LBE5147:
 2704              	.LBE5146:
 2705              		.loc 4 303 0
 2706 05b0 540BF0BF 		srwi. 11,0,2
 2707 05b4 41820054 		beq- 0,.L152
 2708 05b8 3BC00000 		li 30,0
 2709              	.LVL191:
 2710              	.L153:
 2711              		.loc 4 290 0
 2712 05bc 57DD103A 		slwi 29,30,2
 2713              		.loc 4 303 0
 2714 05c0 3BDE0001 		addi 30,30,1
 2715              	.LVL192:
 2716              		.loc 4 305 0
 2717 05c4 7C69E82E 		lwzx 3,9,29
 2718 05c8 81230000 		lwz 9,0(3)
 2719 05cc 800900C0 		lwz 0,192(9)
 2720 05d0 7C0903A6 		mtctr 0
 2721 05d4 4E800421 		bctrl
 2722              		.loc 4 306 0
 2723 05d8 813F010C 		lwz 9,268(31)
 2724 05dc 7C69E82E 		lwzx 3,9,29
 2725 05e0 81230000 		lwz 9,0(3)
 2726 05e4 800900C0 		lwz 0,192(9)
 2727 05e8 7C0903A6 		mtctr 0
 2728 05ec 4E800421 		bctrl
 2729              	.LVL193:
 2730              	.LBE5145:
 2731              	.LBE5151:
 2732              		.loc 4 373 0
 2733 05f0 813F0100 		lwz 9,256(31)
 2734              	.LBB5152:
 2735              	.LBB5150:
 2736              	.LBB5149:
 2737              	.LBB5148:
 2738              		.loc 5 571 0
 2739 05f4 801F0104 		lwz 0,260(31)
 2740 05f8 7C090050 		subf 0,9,0
 2741 05fc 7C001670 		srawi 0,0,2
 2742              	.LBE5148:
 2743              	.LBE5149:
 2744              		.loc 4 303 0
 2745 0600 7F9E0040 		cmplw 7,30,0
 2746 0604 419CFFB8 		blt+ 7,.L153
 2747              	.LVL194:
 2748              	.L152:
 2749              	.LBE5150:
 2750              		.loc 4 309 0
 2751 0608 807F013C 		lwz 3,316(31)
 2752 060c 81230000 		lwz 9,0(3)
 2753 0610 800900C0 		lwz 0,192(9)
 2754 0614 7C0903A6 		mtctr 0
 2755 0618 4E800421 		bctrl
 2756              		.loc 4 311 0
 2757 061c 813F0000 		lwz 9,0(31)
 2758 0620 7FE3FB78 		mr 3,31
 2759 0624 800900C4 		lwz 0,196(9)
 2760 0628 7C0903A6 		mtctr 0
 2761 062c 4E800421 		bctrl
 2762              	.LBE5152:
 2763              	.LBE5143:
 2764              		.loc 4 312 0
 2765 0630 8001001C 		lwz 0,28(1)
 2766 0634 83A1000C 		lwz 29,12(1)
 2767 0638 7C0803A6 		mtlr 0
 2768 063c 83C10010 		lwz 30,16(1)
 2769 0640 83E10014 		lwz 31,20(1)
 2770              	.LVL195:
 2771 0644 38210018 		addi 1,1,24
 2772              		.cfi_restore 29
 2773              		.cfi_restore 30
 2774              		.cfi_restore 31
 2775              	.LCFI58:
 2776              		.cfi_def_cfa_offset 0
 2777 0648 4E800020 		blr
 2778              		.cfi_endproc
 2779              	.LFE1642:
 2780              		.size	_ZN22LanguagesSelectBrowser4DrawEv, .-_ZN22LanguagesSelectBrowser4DrawEv
 2781              		.align 2
 2782              		.globl _ZN22LanguagesSelectBrowser12RemoveButtonEi
 2783              		.type	_ZN22LanguagesSelectBrowser12RemoveButtonEi, @function
 2784              	_ZN22LanguagesSelectBrowser12RemoveButtonEi:
 2785              	.LFB1621:
 2786              		.loc 4 180 0
 2787              		.cfi_startproc
 2788              	.LVL196:
 2789              		.loc 4 181 0
 2790 064c 2C040000 		cmpwi 0,4,0
 2791              		.loc 4 180 0
 2792 0650 7C0802A6 		mflr 0
 2793 0654 9421FFF0 		stwu 1,-16(1)
 2794              	.LCFI59:
 2795              		.cfi_def_cfa_offset 16
 2796              		.cfi_register 65, 0
 2797 0658 93E1000C 		stw 31,12(1)
 2798 065c 7C7F1B78 		mr 31,3
 2799              		.cfi_offset 31, -4
 2800 0660 90010014 		stw 0,20(1)
 2801 0664 93C10008 		stw 30,8(1)
 2802              		.loc 4 181 0
 2803 0668 418001D8 		blt- 0,.L156
 2804              		.cfi_offset 30, -8
 2805              		.cfi_offset 65, 4
 2806              	.LBB5270:
 2807              	.LBB5271:
 2808              		.loc 5 571 0 discriminator 2
 2809 066c 81230104 		lwz 9,260(3)
 2810 0670 80030100 		lwz 0,256(3)
 2811 0674 7C004850 		subf 0,0,9
 2812 0678 7C001670 		srawi 0,0,2
 2813              	.LBE5271:
 2814              	.LBE5270:
 2815              		.loc 4 181 0 discriminator 2
 2816 067c 7F802000 		cmpw 7,0,4
 2817 0680 409D01C0 		ble- 7,.L156
 2818              	.LVL197:
 2819              		.loc 4 184 0
 2820 0684 812300DC 		lwz 9,220(3)
 2821              	.LBB5272:
 2822              	.LBB5273:
 2823              		.loc 5 696 0
 2824 0688 549E103A 		slwi 30,4,2
 2825              	.LBE5273:
 2826              	.LBE5272:
 2827              		.loc 4 184 0
 2828 068c 7C69F02E 		lwzx 3,9,30
 2829              	.LVL198:
 2830 0690 2F830000 		cmpwi 7,3,0
 2831 0694 419E0014 		beq- 7,.L169
 2832              		.loc 4 185 0
 2833 0698 81230000 		lwz 9,0(3)
 2834 069c 80090004 		lwz 0,4(9)
 2835 06a0 7C0903A6 		mtctr 0
 2836 06a4 4E800421 		bctrl
 2837              	.LVL199:
 2838              	.L169:
 2839              		.loc 4 186 0
 2840 06a8 813F00E8 		lwz 9,232(31)
 2841 06ac 7C69F02E 		lwzx 3,9,30
 2842 06b0 2F830000 		cmpwi 7,3,0
 2843 06b4 419E0014 		beq- 7,.L159
 2844              		.loc 4 187 0
 2845 06b8 81230000 		lwz 9,0(3)
 2846 06bc 80090004 		lwz 0,4(9)
 2847 06c0 7C0903A6 		mtctr 0
 2848 06c4 4E800421 		bctrl
 2849              	.L159:
 2850              		.loc 4 188 0
 2851 06c8 813F00F4 		lwz 9,244(31)
 2852 06cc 7C69F02E 		lwzx 3,9,30
 2853 06d0 2F830000 		cmpwi 7,3,0
 2854 06d4 419E0014 		beq- 7,.L160
 2855              		.loc 4 189 0
 2856 06d8 81230000 		lwz 9,0(3)
 2857 06dc 80090004 		lwz 0,4(9)
 2858 06e0 7C0903A6 		mtctr 0
 2859 06e4 4E800421 		bctrl
 2860              	.L160:
 2861              		.loc 4 190 0
 2862 06e8 813F010C 		lwz 9,268(31)
 2863 06ec 7C69F02E 		lwzx 3,9,30
 2864 06f0 2F830000 		cmpwi 7,3,0
 2865 06f4 419E0014 		beq- 7,.L161
 2866              		.loc 4 191 0
 2867 06f8 81230000 		lwz 9,0(3)
 2868 06fc 80090004 		lwz 0,4(9)
 2869 0700 7C0903A6 		mtctr 0
 2870 0704 4E800421 		bctrl
 2871              	.L161:
 2872              		.loc 4 192 0
 2873 0708 813F0100 		lwz 9,256(31)
 2874 070c 7C69F02E 		lwzx 3,9,30
 2875 0710 2F830000 		cmpwi 7,3,0
 2876 0714 419E0014 		beq- 7,.L162
 2877              		.loc 4 193 0
 2878 0718 81230000 		lwz 9,0(3)
 2879 071c 80090004 		lwz 0,4(9)
 2880 0720 7C0903A6 		mtctr 0
 2881 0724 4E800421 		bctrl
 2882              	.L162:
 2883              	.LVL200:
 2884              	.LBB5274:
 2885              	.LBB5275:
 2886              		.file 7 "d:\\devkitpro\\devkitppc\\bin\\../lib/gcc/powerpc-eabi/4.6.3/../../../../powerpc-eabi/inc
 2887              		.loc 7 773 0
 2888 0728 807F00DC 		lwz 3,220(31)
 2889              	.LBE5275:
 2890              	.LBE5274:
 2891              	.LBB5277:
 2892              	.LBB5278:
 2893              	.LBB5279:
 2894              		.loc 4 373 0
 2895 072c 817F00E0 		lwz 11,224(31)
 2896              	.LBE5279:
 2897              	.LBE5278:
 2898              	.LBE5277:
 2899              	.LBB5291:
 2900              	.LBB5276:
 2901              		.loc 7 773 0
 2902 0730 7C63F214 		add 3,3,30
 2903              	.LVL201:
 2904              	.LBE5276:
 2905              	.LBE5291:
 2906              	.LBB5292:
 2907              	.LBB5288:
 2908              	.LBB5280:
 2909              	.LBB5281:
 2910 0734 38830004 		addi 4,3,4
 2911              	.LVL202:
 2912              	.LBE5281:
 2913              	.LBE5280:
 2914              		.file 8 "d:\\devkitpro\\devkitppc\\bin\\../lib/gcc/powerpc-eabi/4.6.3/../../../../powerpc-eabi/inc
 2915              		.loc 8 138 0
 2916 0738 7F845800 		cmpw 7,4,11
 2917 073c 419E001C 		beq- 7,.L163
 2918              	.LVL203:
 2919              	.LBB5282:
 2920              	.LBB5283:
 2921              	.LBB5284:
 2922              	.LBB5285:
 2923              	.LBB5286:
 2924              	.LBB5287:
 2925              		.file 9 "d:\\devkitpro\\devkitppc\\bin\\../lib/gcc/powerpc-eabi/4.6.3/../../../../powerpc-eabi/inc
 2926              		.loc 9 364 0
 2927 0740 7CA45850 		subf 5,4,11
 2928              	.LVL204:
 2929              		.loc 9 365 0
 2930 0744 7CA51671 		srawi. 5,5,2
 2931              	.LVL205:
 2932 0748 41A20010 		beq+ 0,.L163
 2933              		.loc 9 366 0
 2934 074c 54A5103A 		slwi 5,5,2
 2935              	.LVL206:
 2936 0750 48000001 		bl memmove
 2937              	.LVL207:
 2938 0754 817F00E0 		lwz 11,224(31)
 2939              	.LVL208:
 2940              	.L163:
 2941              	.LBE5287:
 2942              	.LBE5286:
 2943              	.LBE5285:
 2944              	.LBE5284:
 2945              	.LBE5283:
 2946              	.LBE5282:
 2947              	.LBE5288:
 2948              	.LBE5292:
 2949              	.LBB5293:
 2950              	.LBB5294:
 2951              		.loc 7 773 0
 2952 0758 807F00E8 		lwz 3,232(31)
 2953              	.LBE5294:
 2954              	.LBE5293:
 2955              	.LBB5296:
 2956              	.LBB5289:
 2957              		.loc 8 140 0
 2958 075c 396BFFFC 		addi 11,11,-4
 2959              	.LBE5289:
 2960              	.LBE5296:
 2961              	.LBB5297:
 2962              	.LBB5298:
 2963              	.LBB5299:
 2964              		.loc 4 373 0
 2965 0760 813F00EC 		lwz 9,236(31)
 2966              	.LBE5299:
 2967              	.LBE5298:
 2968              	.LBE5297:
 2969              	.LBB5311:
 2970              	.LBB5295:
 2971              		.loc 7 773 0
 2972 0764 7C63F214 		add 3,3,30
 2973              	.LBE5295:
 2974              	.LBE5311:
 2975              	.LBB5312:
 2976              	.LBB5290:
 2977              		.loc 8 140 0
 2978 0768 917F00E0 		stw 11,224(31)
 2979              	.LVL209:
 2980              	.LBE5290:
 2981              	.LBE5312:
 2982              	.LBB5313:
 2983              	.LBB5308:
 2984              	.LBB5300:
 2985              	.LBB5301:
 2986              		.loc 7 773 0
 2987 076c 38830004 		addi 4,3,4
 2988              	.LBE5301:
 2989              	.LBE5300:
 2990              		.loc 8 138 0
 2991 0770 7F844800 		cmpw 7,4,9
 2992 0774 419E001C 		beq- 7,.L164
 2993              	.LVL210:
 2994              	.LBB5302:
 2995              	.LBB5303:
 2996              	.LBB5304:
 2997              	.LBB5305:
 2998              	.LBB5306:
 2999              	.LBB5307:
 3000              		.loc 9 364 0
 3001 0778 7CA44850 		subf 5,4,9
 3002              	.LVL211:
 3003              		.loc 9 365 0
 3004 077c 7CA51671 		srawi. 5,5,2
 3005              	.LVL212:
 3006 0780 41A20010 		beq+ 0,.L164
 3007              		.loc 9 366 0
 3008 0784 54A5103A 		slwi 5,5,2
 3009              	.LVL213:
 3010 0788 48000001 		bl memmove
 3011              	.LVL214:
 3012 078c 813F00EC 		lwz 9,236(31)
 3013              	.LVL215:
 3014              	.L164:
 3015              	.LBE5307:
 3016              	.LBE5306:
 3017              	.LBE5305:
 3018              	.LBE5304:
 3019              	.LBE5303:
 3020              	.LBE5302:
 3021              	.LBE5308:
 3022              	.LBE5313:
 3023              	.LBB5314:
 3024              	.LBB5315:
 3025              		.loc 7 773 0
 3026 0790 807F00F4 		lwz 3,244(31)
 3027              	.LBE5315:
 3028              	.LBE5314:
 3029              	.LBB5317:
 3030              	.LBB5309:
 3031              		.loc 8 140 0
 3032 0794 3929FFFC 		addi 9,9,-4
 3033              	.LBE5309:
 3034              	.LBE5317:
 3035              	.LBB5318:
 3036              	.LBB5319:
 3037              	.LBB5320:
 3038              		.loc 4 373 0
 3039 0798 815F00F8 		lwz 10,248(31)
 3040              	.LBE5320:
 3041              	.LBE5319:
 3042              	.LBE5318:
 3043              	.LBB5332:
 3044              	.LBB5316:
 3045              		.loc 7 773 0
 3046 079c 7C63F214 		add 3,3,30
 3047              	.LBE5316:
 3048              	.LBE5332:
 3049              	.LBB5333:
 3050              	.LBB5310:
 3051              		.loc 8 140 0
 3052 07a0 913F00EC 		stw 9,236(31)
 3053              	.LVL216:
 3054              	.LBE5310:
 3055              	.LBE5333:
 3056              	.LBB5334:
 3057              	.LBB5329:
 3058              	.LBB5321:
 3059              	.LBB5322:
 3060              		.loc 7 773 0
 3061 07a4 38830004 		addi 4,3,4
 3062              	.LBE5322:
 3063              	.LBE5321:
 3064              		.loc 8 138 0
 3065 07a8 7F845000 		cmpw 7,4,10
 3066 07ac 419E001C 		beq- 7,.L165
 3067              	.LVL217:
 3068              	.LBB5323:
 3069              	.LBB5324:
 3070              	.LBB5325:
 3071              	.LBB5326:
 3072              	.LBB5327:
 3073              	.LBB5328:
 3074              		.loc 9 364 0
 3075 07b0 7CA45050 		subf 5,4,10
 3076              	.LVL218:
 3077              		.loc 9 365 0
 3078 07b4 7CA51671 		srawi. 5,5,2
 3079              	.LVL219:
 3080 07b8 41A20010 		beq+ 0,.L165
 3081              		.loc 9 366 0
 3082 07bc 54A5103A 		slwi 5,5,2
 3083              	.LVL220:
 3084 07c0 48000001 		bl memmove
 3085              	.LVL221:
 3086 07c4 815F00F8 		lwz 10,248(31)
 3087              	.LVL222:
 3088              	.L165:
 3089              	.LBE5328:
 3090              	.LBE5327:
 3091              	.LBE5326:
 3092              	.LBE5325:
 3093              	.LBE5324:
 3094              	.LBE5323:
 3095              	.LBE5329:
 3096              	.LBE5334:
 3097              	.LBB5335:
 3098              	.LBB5336:
 3099              		.loc 7 773 0
 3100 07c8 807F010C 		lwz 3,268(31)
 3101              	.LBE5336:
 3102              	.LBE5335:
 3103              	.LBB5338:
 3104              	.LBB5330:
 3105              		.loc 8 140 0
 3106 07cc 394AFFFC 		addi 10,10,-4
 3107              	.LBE5330:
 3108              	.LBE5338:
 3109              	.LBB5339:
 3110              	.LBB5340:
 3111              	.LBB5341:
 3112              		.loc 4 373 0
 3113 07d0 817F0110 		lwz 11,272(31)
 3114              	.LBE5341:
 3115              	.LBE5340:
 3116              	.LBE5339:
 3117              	.LBB5353:
 3118              	.LBB5337:
 3119              		.loc 7 773 0
 3120 07d4 7C63F214 		add 3,3,30
 3121              	.LBE5337:
 3122              	.LBE5353:
 3123              	.LBB5354:
 3124              	.LBB5331:
 3125              		.loc 8 140 0
 3126 07d8 915F00F8 		stw 10,248(31)
 3127              	.LVL223:
 3128              	.LBE5331:
 3129              	.LBE5354:
 3130              	.LBB5355:
 3131              	.LBB5350:
 3132              	.LBB5342:
 3133              	.LBB5343:
 3134              		.loc 7 773 0
 3135 07dc 38830004 		addi 4,3,4
 3136              	.LBE5343:
 3137              	.LBE5342:
 3138              		.loc 8 138 0
 3139 07e0 7F845800 		cmpw 7,4,11
 3140 07e4 419E001C 		beq- 7,.L166
 3141              	.LVL224:
 3142              	.LBB5344:
 3143              	.LBB5345:
 3144              	.LBB5346:
 3145              	.LBB5347:
 3146              	.LBB5348:
 3147              	.LBB5349:
 3148              		.loc 9 364 0
 3149 07e8 7CA45850 		subf 5,4,11
 3150              	.LVL225:
 3151              		.loc 9 365 0
 3152 07ec 7CA51671 		srawi. 5,5,2
 3153              	.LVL226:
 3154 07f0 41A20010 		beq+ 0,.L166
 3155              		.loc 9 366 0
 3156 07f4 54A5103A 		slwi 5,5,2
 3157              	.LVL227:
 3158 07f8 48000001 		bl memmove
 3159              	.LVL228:
 3160 07fc 817F0110 		lwz 11,272(31)
 3161              	.LVL229:
 3162              	.L166:
 3163              	.LBE5349:
 3164              	.LBE5348:
 3165              	.LBE5347:
 3166              	.LBE5346:
 3167              	.LBE5345:
 3168              	.LBE5344:
 3169              	.LBE5350:
 3170              	.LBE5355:
 3171              	.LBB5356:
 3172              	.LBB5357:
 3173              		.loc 7 773 0
 3174 0800 807F0100 		lwz 3,256(31)
 3175              	.LBE5357:
 3176              	.LBE5356:
 3177              	.LBB5359:
 3178              	.LBB5351:
 3179              		.loc 8 140 0
 3180 0804 396BFFFC 		addi 11,11,-4
 3181              	.LBE5351:
 3182              	.LBE5359:
 3183              	.LBB5360:
 3184              	.LBB5361:
 3185              	.LBB5362:
 3186              		.loc 4 373 0
 3187 0808 813F0104 		lwz 9,260(31)
 3188              	.LBE5362:
 3189              	.LBE5361:
 3190              	.LBE5360:
 3191              	.LBB5372:
 3192              	.LBB5358:
 3193              		.loc 7 773 0
 3194 080c 7C63F214 		add 3,3,30
 3195              	.LBE5358:
 3196              	.LBE5372:
 3197              	.LBB5373:
 3198              	.LBB5352:
 3199              		.loc 8 140 0
 3200 0810 917F0110 		stw 11,272(31)
 3201              	.LVL230:
 3202              	.LBE5352:
 3203              	.LBE5373:
 3204              	.LBB5374:
 3205              	.LBB5371:
 3206              	.LBB5363:
 3207              	.LBB5364:
 3208              		.loc 7 773 0
 3209 0814 38830004 		addi 4,3,4
 3210              	.LBE5364:
 3211              	.LBE5363:
 3212              		.loc 8 138 0
 3213 0818 7F844800 		cmpw 7,4,9
 3214 081c 419E001C 		beq- 7,.L167
 3215              	.LVL231:
 3216              	.LBB5365:
 3217              	.LBB5366:
 3218              	.LBB5367:
 3219              	.LBB5368:
 3220              	.LBB5369:
 3221              	.LBB5370:
 3222              		.loc 9 364 0
 3223 0820 7CA44850 		subf 5,4,9
 3224              	.LVL232:
 3225              		.loc 9 365 0
 3226 0824 7CA51671 		srawi. 5,5,2
 3227              	.LVL233:
 3228 0828 41A20010 		beq+ 0,.L167
 3229              		.loc 9 366 0
 3230 082c 54A5103A 		slwi 5,5,2
 3231              	.LVL234:
 3232 0830 48000001 		bl memmove
 3233              	.LVL235:
 3234 0834 813F0104 		lwz 9,260(31)
 3235              	.LVL236:
 3236              	.L167:
 3237              	.LBE5370:
 3238              	.LBE5369:
 3239              	.LBE5368:
 3240              	.LBE5367:
 3241              	.LBE5366:
 3242              	.LBE5365:
 3243              		.loc 8 140 0
 3244 0838 3929FFFC 		addi 9,9,-4
 3245 083c 913F0104 		stw 9,260(31)
 3246              	.LVL237:
 3247              	.L156:
 3248              	.LBE5371:
 3249              	.LBE5374:
 3250              		.loc 4 200 0
 3251 0840 80010014 		lwz 0,20(1)
 3252 0844 83C10008 		lwz 30,8(1)
 3253 0848 7C0803A6 		mtlr 0
 3254 084c 83E1000C 		lwz 31,12(1)
 3255              	.LVL238:
 3256 0850 38210010 		addi 1,1,16
 3257              	.LCFI60:
 3258              		.cfi_def_cfa_offset 0
 3259              		.cfi_restore 31
 3260              		.cfi_restore 30
 3261 0854 4E800020 		blr
 3262              		.cfi_endproc
 3263              	.LFE1621:
 3264              		.size	_ZN22LanguagesSelectBrowser12RemoveButtonEi, .-_ZN22LanguagesSelectBrowser12RemoveButtonEi
 3265              		.section	.text._ZNSt6vectorIP7GuiTextSaIS1_EED2Ev,"axG",@progbits,_ZNSt6vectorIP7GuiTextSaIS1_EED5
 3266              		.align 2
 3267              		.weak	_ZNSt6vectorIP7GuiTextSaIS1_EED2Ev
 3268              		.type	_ZNSt6vectorIP7GuiTextSaIS1_EED2Ev, @function
 3269              	_ZNSt6vectorIP7GuiTextSaIS1_EED2Ev:
 3270              	.LFB1692:
 3271              		.loc 5 349 0
 3272              		.cfi_startproc
 3273              	.LVL239:
 3274 0000 7C0802A6 		mflr 0
 3275 0004 9421FFF8 		stwu 1,-8(1)
 3276              	.LCFI61:
 3277              		.cfi_def_cfa_offset 8
 3278              		.cfi_register 65, 0
 3279 0008 9001000C 		stw 0,12(1)
 3280              		.loc 4 373 0
 3281 000c 80630000 		lwz 3,0(3)
 3282              	.LVL240:
 3283              	.LBB5387:
 3284              	.LBB5388:
 3285              	.LBB5389:
 3286              	.LBB5390:
 3287              		.loc 5 155 0
 3288 0010 2F830000 		cmpwi 7,3,0
 3289 0014 419E0008 		beq- 7,.L171
 3290              		.cfi_offset 65, 4
 3291              	.LVL241:
 3292              	.LBB5391:
 3293              	.LBB5392:
 3294              		.file 10 "d:\\devkitpro\\devkitppc\\bin\\../lib/gcc/powerpc-eabi/4.6.3/../../../../powerpc-eabi/in
 3295              		.loc 10 98 0
 3296 0018 48000001 		bl _ZdlPv
 3297              	.LVL242:
 3298              	.L171:
 3299              	.LBE5392:
 3300              	.LBE5391:
 3301              	.LBE5390:
 3302              	.LBE5389:
 3303              	.LBE5388:
 3304              	.LBE5387:
 3305              		.loc 5 351 0
 3306 001c 8001000C 		lwz 0,12(1)
 3307 0020 38210008 		addi 1,1,8
 3308              	.LCFI62:
 3309              		.cfi_def_cfa_offset 0
 3310 0024 7C0803A6 		mtlr 0
 3311 0028 4E800020 		blr
 3312              		.cfi_endproc
 3313              	.LFE1692:
 3314              		.size	_ZNSt6vectorIP7GuiTextSaIS1_EED2Ev, .-_ZNSt6vectorIP7GuiTextSaIS1_EED2Ev
 3315              		.section	.text._ZNSt6vectorIP10GuiElementSaIS1_EE13_M_insert_auxEN9__gnu_cxx17__normal_iteratorIPS
 3316              		.align 2
 3317              		.weak	_ZNSt6vectorIP10GuiElementSaIS1_EE13_M_insert_auxEN9__gnu_cxx17__normal_iteratorIPS1_S3_EERK
 3318              		.type	_ZNSt6vectorIP10GuiElementSaIS1_EE13_M_insert_auxEN9__gnu_cxx17__normal_iteratorIPS1_S3_EERK
 3319              	_ZNSt6vectorIP10GuiElementSaIS1_EE13_M_insert_auxEN9__gnu_cxx17__normal_iteratorIPS1_S3_EERKS1_:
 3320              	.LFB1779:
 3321              		.loc 8 300 0
 3322              		.cfi_startproc
 3323              	.LVL243:
 3324 0000 7C0802A6 		mflr 0
 3325 0004 9421FFD8 		stwu 1,-40(1)
 3326              	.LCFI63:
 3327              		.cfi_def_cfa_offset 40
 3328              		.cfi_register 65, 0
 3329 0008 93610014 		stw 27,20(1)
 3330 000c 9001002C 		stw 0,44(1)
 3331 0010 93C10020 		stw 30,32(1)
 3332              	.LBB5455:
 3333              		.loc 8 304 0
 3334 0014 83630004 		lwz 27,4(3)
 3335              		.cfi_offset 30, -8
 3336              		.cfi_offset 65, 4
 3337              		.cfi_offset 27, -20
 3338 0018 80030008 		lwz 0,8(3)
 3339              	.LBE5455:
 3340              		.loc 8 300 0
 3341 001c 93E10024 		stw 31,36(1)
 3342 0020 7C7F1B78 		mr 31,3
 3343              		.cfi_offset 31, -4
 3344              	.LBB5580:
 3345              		.loc 8 304 0
 3346 0024 7F9B0000 		cmpw 7,27,0
 3347              	.LBE5580:
 3348              		.loc 8 300 0
 3349 0028 93410010 		stw 26,16(1)
 3350 002c 93810018 		stw 28,24(1)
 3351 0030 93A1001C 		stw 29,28(1)
 3352              		.loc 8 300 0
 3353 0034 83C40000 		lwz 30,0(4)
 3354              	.LVL244:
 3355              	.LBB5581:
 3356              		.loc 8 304 0
 3357 0038 419E0078 		beq- 7,.L178
 3358              		.cfi_offset 29, -12
 3359              		.cfi_offset 28, -16
 3360              		.cfi_offset 26, -24
 3361              	.LVL245:
 3362              	.LBB5456:
 3363              	.LBB5457:
 3364              	.LBB5458:
 3365              		.loc 10 108 0
 3366 003c 2F9B0000 		cmpwi 7,27,0
 3367 0040 38600000 		li 3,0
 3368              	.LVL246:
 3369 0044 419E0010 		beq- 7,.L179
 3370 0048 801BFFFC 		lwz 0,-4(27)
 3371 004c 901B0000 		stw 0,0(27)
 3372 0050 807F0004 		lwz 3,4(31)
 3373              	.L179:
 3374              	.LBE5458:
 3375              	.LBE5457:
 3376              		.loc 8 313 0
 3377 0054 3803FFFC 		addi 0,3,-4
 3378              		.loc 8 309 0
 3379 0058 39230004 		addi 9,3,4
 3380              	.LBB5459:
 3381              	.LBB5460:
 3382              	.LBB5461:
 3383              	.LBB5462:
 3384              	.LBB5463:
 3385              	.LBB5464:
 3386              		.loc 9 559 0
 3387 005c 7C1E0050 		subf 0,30,0
 3388              	.LBE5464:
 3389              	.LBE5463:
 3390              	.LBE5462:
 3391              	.LBE5461:
 3392              	.LBE5460:
 3393              	.LBE5459:
 3394              		.loc 8 309 0
 3395 0060 913F0004 		stw 9,4(31)
 3396              	.LBB5480:
 3397              	.LBB5477:
 3398              	.LBB5474:
 3399              	.LBB5471:
 3400              	.LBB5468:
 3401              	.LBB5465:
 3402              		.loc 9 560 0
 3403 0064 7C001671 		srawi. 0,0,2
 3404              	.LBE5465:
 3405              	.LBE5468:
 3406              	.LBE5471:
 3407              	.LBE5474:
 3408              	.LBE5477:
 3409              	.LBE5480:
 3410              		.loc 8 311 0
 3411 0068 83E50000 		lwz 31,0(5)
 3412              	.LVL247:
 3413              	.LBB5481:
 3414              	.LBB5478:
 3415              	.LBB5475:
 3416              	.LBB5472:
 3417              	.LBB5469:
 3418              	.LBB5466:
 3419              		.loc 9 560 0
 3420 006c 40820030 		bne- 0,.L194
 3421              	.LVL248:
 3422              	.L180:
 3423              	.LBE5466:
 3424              	.LBE5469:
 3425              	.LBE5472:
 3426              	.LBE5475:
 3427              	.LBE5478:
 3428              	.LBE5481:
 3429              	.LBE5456:
 3430              	.LBE5581:
 3431              		.loc 8 373 0
 3432 0070 8001002C 		lwz 0,44(1)
 3433              	.LBB5582:
 3434              	.LBB5483:
 3435              		.loc 8 317 0
 3436 0074 93FE0000 		stw 31,0(30)
 3437              	.LBE5483:
 3438              	.LBE5582:
 3439              		.loc 8 373 0
 3440 0078 7C0803A6 		mtlr 0
 3441 007c 83410010 		lwz 26,16(1)
 3442 0080 83610014 		lwz 27,20(1)
 3443              	.LVL249:
 3444 0084 83810018 		lwz 28,24(1)
 3445 0088 83A1001C 		lwz 29,28(1)
 3446 008c 83C10020 		lwz 30,32(1)
 3447              	.LVL250:
 3448 0090 83E10024 		lwz 31,36(1)
 3449              	.LVL251:
 3450 0094 38210028 		addi 1,1,40
 3451              		.cfi_remember_state
 3452              	.LCFI64:
 3453              		.cfi_def_cfa_offset 0
 3454              		.cfi_restore 31
 3455              		.cfi_restore 30
 3456              		.cfi_restore 29
 3457              		.cfi_restore 28
 3458              		.cfi_restore 27
 3459              		.cfi_restore 26
 3460 0098 4E800020 		blr
 3461              	.LVL252:
 3462              	.L194:
 3463              	.LCFI65:
 3464              		.cfi_restore_state
 3465              	.LBB5583:
 3466              	.LBB5484:
 3467              	.LBB5482:
 3468              	.LBB5479:
 3469              	.LBB5476:
 3470              	.LBB5473:
 3471              	.LBB5470:
 3472              	.LBB5467:
 3473              		.loc 9 561 0
 3474 009c 5405103A 		slwi 5,0,2
 3475              	.LVL253:
 3476 00a0 7FC4F378 		mr 4,30
 3477 00a4 7C651850 		subf 3,5,3
 3478              	.LVL254:
 3479 00a8 48000001 		bl memmove
 3480              	.LVL255:
 3481 00ac 4BFFFFC4 		b .L180
 3482              	.LVL256:
 3483              	.L178:
 3484              	.LBE5467:
 3485              	.LBE5470:
 3486              	.LBE5473:
 3487              	.LBE5476:
 3488              	.LBE5479:
 3489              	.LBE5482:
 3490              	.LBE5484:
 3491              	.LBB5485:
 3492              	.LBB5486:
 3493              	.LBB5487:
 3494              	.LBB5488:
 3495              	.LBB5489:
 3496              		.loc 5 571 0
 3497 00b0 83830000 		lwz 28,0(3)
 3498 00b4 7F7CD850 		subf 27,28,27
 3499              	.LBE5489:
 3500              	.LBE5488:
 3501              	.LBB5490:
 3502              	.LBB5491:
 3503              		.loc 9 215 0
 3504 00b8 7F7B1671 		srawi. 27,27,2
 3505 00bc 418200E8 		beq- 0,.L182
 3506              	.LBE5491:
 3507              	.LBE5490:
 3508              		.loc 5 1244 0
 3509 00c0 5760083C 		slwi 0,27,1
 3510              	.LVL257:
 3511              		.loc 5 1245 0
 3512 00c4 7F9B0040 		cmplw 7,27,0
 3513 00c8 409D00EC 		ble- 7,.L195
 3514              	.L183:
 3515              	.LVL258:
 3516              	.LBE5487:
 3517              	.LBE5486:
 3518              	.LBB5494:
 3519              	.LBB5495:
 3520              		.loc 7 892 0
 3521 00cc 7F9CF050 		subf 28,28,30
 3522              	.LBE5495:
 3523              	.LBE5494:
 3524              		.loc 8 326 0
 3525 00d0 3B60FFFC 		li 27,-4
 3526              	.LBB5501:
 3527              	.LBB5496:
 3528              		.loc 7 892 0
 3529 00d4 7F9C1670 		srawi 28,28,2
 3530              	.LVL259:
 3531              	.L189:
 3532              	.LBE5496:
 3533              	.LBE5501:
 3534              	.LBB5502:
 3535              	.LBB5503:
 3536              	.LBB5504:
 3537              	.LBB5505:
 3538              		.loc 10 92 0
 3539 00d8 7F63DB78 		mr 3,27
 3540              	.LVL260:
 3541 00dc 90A10008 		stw 5,8(1)
 3542 00e0 48000001 		bl _Znwj
 3543              	.LVL261:
 3544 00e4 80A10008 		lwz 5,8(1)
 3545 00e8 7C7D1B78 		mr 29,3
 3546              	.L184:
 3547              	.LVL262:
 3548              	.LBE5505:
 3549              	.LBE5504:
 3550              	.LBE5503:
 3551              	.LBE5502:
 3552              		.loc 8 335 0
 3553 00ec 579C103A 		slwi 28,28,2
 3554              	.LVL263:
 3555 00f0 7C1DE214 		add 0,29,28
 3556              	.LVL264:
 3557              	.LBB5508:
 3558              	.LBB5509:
 3559              		.loc 10 108 0
 3560 00f4 2F800000 		cmpwi 7,0,0
 3561 00f8 419E000C 		beq- 7,.L185
 3562 00fc 80050000 		lwz 0,0(5)
 3563              	.LVL265:
 3564 0100 7C1DE12E 		stwx 0,29,28
 3565              	.L185:
 3566              	.LVL266:
 3567              	.LBE5509:
 3568              	.LBE5508:
 3569              		.loc 8 343 0
 3570 0104 809F0000 		lwz 4,0(31)
 3571              	.LVL267:
 3572              	.LBB5510:
 3573              	.LBB5511:
 3574              	.LBB5512:
 3575              	.LBB5513:
 3576              	.LBB5514:
 3577              	.LBB5515:
 3578              	.LBB5516:
 3579              	.LBB5517:
 3580              	.LBB5518:
 3581              	.LBB5519:
 3582              	.LBB5520:
 3583              		.loc 9 365 0
 3584 0108 3B800000 		li 28,0
 3585              		.loc 9 364 0
 3586 010c 7C04F050 		subf 0,4,30
 3587              	.LVL268:
 3588              		.loc 9 365 0
 3589 0110 7C001671 		srawi. 0,0,2
 3590              	.LVL269:
 3591 0114 41A20014 		beq+ 0,.L186
 3592              		.loc 9 366 0
 3593 0118 541C103A 		slwi 28,0,2
 3594 011c 7FA3EB78 		mr 3,29
 3595 0120 7F85E378 		mr 5,28
 3596              	.LVL270:
 3597 0124 48000001 		bl memmove
 3598              	.LVL271:
 3599              	.L186:
 3600              	.LBE5520:
 3601              	.LBE5519:
 3602              	.LBE5518:
 3603              	.LBE5517:
 3604              	.LBE5516:
 3605              	.LBE5515:
 3606              	.LBE5514:
 3607              	.LBE5513:
 3608              	.LBE5512:
 3609              	.LBE5511:
 3610              	.LBE5510:
 3611              	.LBB5531:
 3612              	.LBB5532:
 3613              	.LBB5533:
 3614              	.LBB5534:
 3615              	.LBB5535:
 3616              	.LBB5536:
 3617              	.LBB5537:
 3618              	.LBB5538:
 3619              	.LBB5539:
 3620              	.LBB5540:
 3621              	.LBB5541:
 3622              		.loc 9 364 0
 3623 0128 801F0004 		lwz 0,4(31)
 3624              	.LBE5541:
 3625              	.LBE5540:
 3626              	.LBE5539:
 3627              	.LBE5538:
 3628              	.LBE5537:
 3629              	.LBE5536:
 3630              	.LBE5535:
 3631              	.LBE5534:
 3632              	.LBE5533:
 3633              	.LBE5532:
 3634              	.LBE5531:
 3635              	.LBB5562:
 3636              	.LBB5530:
 3637              	.LBB5529:
 3638              	.LBB5528:
 3639              	.LBB5527:
 3640              	.LBB5526:
 3641              	.LBB5525:
 3642              	.LBB5524:
 3643              	.LBB5523:
 3644              	.LBB5522:
 3645              	.LBB5521:
 3646              		.loc 9 367 0
 3647 012c 7F9DE214 		add 28,29,28
 3648              	.LVL272:
 3649              	.LBE5521:
 3650              	.LBE5522:
 3651              	.LBE5523:
 3652              	.LBE5524:
 3653              	.LBE5525:
 3654              	.LBE5526:
 3655              	.LBE5527:
 3656              	.LBE5528:
 3657              	.LBE5529:
 3658              	.LBE5530:
 3659              	.LBE5562:
 3660              		.loc 8 347 0
 3661 0130 3B5C0004 		addi 26,28,4
 3662              	.LBB5563:
 3663              	.LBB5560:
 3664              	.LBB5558:
 3665              	.LBB5556:
 3666              	.LBB5554:
 3667              	.LBB5552:
 3668              	.LBB5550:
 3669              	.LBB5548:
 3670              	.LBB5546:
 3671              	.LBB5544:
 3672              	.LBB5542:
 3673              		.loc 9 365 0
 3674 0134 3B800000 		li 28,0
 3675              		.loc 9 364 0
 3676 0138 7C1E0050 		subf 0,30,0
 3677              	.LVL273:
 3678              		.loc 9 365 0
 3679 013c 7C001671 		srawi. 0,0,2
 3680              	.LVL274:
 3681 0140 41A20018 		beq+ 0,.L187
 3682              		.loc 9 366 0
 3683 0144 541C103A 		slwi 28,0,2
 3684 0148 7F43D378 		mr 3,26
 3685 014c 7FC4F378 		mr 4,30
 3686 0150 7F85E378 		mr 5,28
 3687 0154 48000001 		bl memmove
 3688              	.LVL275:
 3689              	.L187:
 3690              	.LBE5542:
 3691              	.LBE5544:
 3692              	.LBE5546:
 3693              	.LBE5548:
 3694              	.LBE5550:
 3695              	.LBE5552:
 3696              	.LBE5554:
 3697              	.LBE5556:
 3698              	.LBE5558:
 3699              	.LBE5560:
 3700              	.LBE5563:
 3701              		.loc 8 366 0
 3702 0158 807F0000 		lwz 3,0(31)
 3703              	.LBB5564:
 3704              	.LBB5561:
 3705              	.LBB5559:
 3706              	.LBB5557:
 3707              	.LBB5555:
 3708              	.LBB5553:
 3709              	.LBB5551:
 3710              	.LBB5549:
 3711              	.LBB5547:
 3712              	.LBB5545:
 3713              	.LBB5543:
 3714              		.loc 9 367 0
 3715 015c 7F9AE214 		add 28,26,28
 3716              	.LVL276:
 3717              	.LBE5543:
 3718              	.LBE5545:
 3719              	.LBE5547:
 3720              	.LBE5549:
 3721              	.LBE5551:
 3722              	.LBE5553:
 3723              	.LBE5555:
 3724              	.LBE5557:
 3725              	.LBE5559:
 3726              	.LBE5561:
 3727              	.LBE5564:
 3728              	.LBB5565:
 3729              	.LBB5566:
 3730              		.loc 5 155 0
 3731 0160 2F830000 		cmpwi 7,3,0
 3732 0164 419E0008 		beq- 7,.L188
 3733              	.LVL277:
 3734              	.LBB5567:
 3735              	.LBB5568:
 3736              		.loc 10 98 0
 3737 0168 48000001 		bl _ZdlPv
 3738              	.LVL278:
 3739              	.L188:
 3740              	.LBE5568:
 3741              	.LBE5567:
 3742              	.LBE5566:
 3743              	.LBE5565:
 3744              	.LBE5485:
 3745              	.LBE5583:
 3746              		.loc 8 373 0
 3747 016c 8001002C 		lwz 0,44(1)
 3748              	.LBB5584:
 3749              	.LBB5577:
 3750              		.loc 8 371 0
 3751 0170 7F7DDA14 		add 27,29,27
 3752              		.loc 8 369 0
 3753 0174 93BF0000 		stw 29,0(31)
 3754              	.LBE5577:
 3755              	.LBE5584:
 3756              		.loc 8 373 0
 3757 0178 7C0803A6 		mtlr 0
 3758              	.LBB5585:
 3759              	.LBB5578:
 3760              		.loc 8 370 0
 3761 017c 939F0004 		stw 28,4(31)
 3762              		.loc 8 371 0
 3763 0180 937F0008 		stw 27,8(31)
 3764              	.LBE5578:
 3765              	.LBE5585:
 3766              		.loc 8 373 0
 3767 0184 83410010 		lwz 26,16(1)
 3768              	.LVL279:
 3769 0188 83610014 		lwz 27,20(1)
 3770 018c 83810018 		lwz 28,24(1)
 3771 0190 83A1001C 		lwz 29,28(1)
 3772              	.LVL280:
 3773 0194 83C10020 		lwz 30,32(1)
 3774              	.LVL281:
 3775 0198 83E10024 		lwz 31,36(1)
 3776              	.LVL282:
 3777 019c 38210028 		addi 1,1,40
 3778              		.cfi_remember_state
 3779              		.cfi_restore 26
 3780              		.cfi_restore 27
 3781              		.cfi_restore 28
 3782              		.cfi_restore 29
 3783              		.cfi_restore 30
 3784              		.cfi_restore 31
 3785              	.LCFI66:
 3786              		.cfi_def_cfa_offset 0
 3787 01a0 4E800020 		blr
 3788              	.LVL283:
 3789              	.L182:
 3790              	.LCFI67:
 3791              		.cfi_restore_state
 3792              	.LBB5586:
 3793              	.LBB5579:
 3794              	.LBB5569:
 3795              	.LBB5497:
 3796              		.loc 7 892 0
 3797 01a4 7F9CF050 		subf 28,28,30
 3798              	.LBE5497:
 3799              	.LBE5569:
 3800              		.loc 8 326 0
 3801 01a8 3B600004 		li 27,4
 3802              	.LBB5570:
 3803              	.LBB5498:
 3804              		.loc 7 892 0
 3805 01ac 7F9C1670 		srawi 28,28,2
 3806              	.LVL284:
 3807 01b0 4BFFFF28 		b .L189
 3808              	.LVL285:
 3809              	.L195:
 3810              	.LBE5498:
 3811              	.LBE5570:
 3812              	.LBB5571:
 3813              	.LBB5492:
 3814              		.loc 5 1245 0
 3815 01b4 3D203FFF 		lis 9,0x3fff
 3816 01b8 6129FFFF 		ori 9,9,65535
 3817 01bc 7F804840 		cmplw 7,0,9
 3818 01c0 419DFF0C 		bgt+ 7,.L183
 3819              	.LBE5492:
 3820              	.LBE5571:
 3821              	.LBB5572:
 3822              	.LBB5506:
 3823              		.loc 5 150 0
 3824 01c4 2F800000 		cmpwi 7,0,0
 3825              	.LBE5506:
 3826              	.LBE5572:
 3827              	.LBB5573:
 3828              	.LBB5499:
 3829              		.loc 7 892 0
 3830 01c8 7F9CF050 		subf 28,28,30
 3831              	.LBE5499:
 3832              	.LBE5573:
 3833              	.LBB5574:
 3834              	.LBB5493:
 3835              		.loc 5 1245 0
 3836 01cc 577B1838 		slwi 27,27,3
 3837              	.LVL286:
 3838              	.LBE5493:
 3839              	.LBE5574:
 3840              	.LBB5575:
 3841              	.LBB5500:
 3842              		.loc 7 892 0
 3843 01d0 7F9C1670 		srawi 28,28,2
 3844              	.LVL287:
 3845              	.LBE5500:
 3846              	.LBE5575:
 3847              	.LBB5576:
 3848              	.LBB5507:
 3849              		.loc 5 150 0
 3850 01d4 3BA00000 		li 29,0
 3851 01d8 419EFF14 		beq+ 7,.L184
 3852 01dc 4BFFFEFC 		b .L189
 3853              	.LBE5507:
 3854              	.LBE5576:
 3855              	.LBE5579:
 3856              	.LBE5586:
 3857              		.cfi_endproc
 3858              	.LFE1779:
 3859              		.size	_ZNSt6vectorIP10GuiElementSaIS1_EE13_M_insert_auxEN9__gnu_cxx17__normal_iteratorIPS1_S3_EERK
 3860              		.section	.text._ZNSt8_Rb_treeIPN7sigslot12_signal_baseINS0_15single_threadedEEES4_St9_IdentityIS4_
 3861              		.align 2
 3862              		.weak	_ZNSt8_Rb_treeIPN7sigslot12_signal_baseINS0_15single_threadedEEES4_St9_IdentityIS4_ESt4lessI
 3863              		.type	_ZNSt8_Rb_treeIPN7sigslot12_signal_baseINS0_15single_threadedEEES4_St9_IdentityIS4_ESt4lessI
 3864              	_ZNSt8_Rb_treeIPN7sigslot12_signal_baseINS0_15single_threadedEEES4_St9_IdentityIS4_ESt4lessIS4_ESaI
 3865              	.LFB1951:
 3866              		.file 11 "d:\\devkitpro\\devkitppc\\bin\\../lib/gcc/powerpc-eabi/4.6.3/../../../../powerpc-eabi/in
 3867              		.loc 11 1068 0
 3868              		.cfi_startproc
 3869              	.LVL288:
 3870 0000 9421FFC8 		stwu 1,-56(1)
 3871              	.LCFI68:
 3872              		.cfi_def_cfa_offset 56
 3873 0004 7C0802A6 		mflr 0
 3874 0008 92C10010 		stw 22,16(1)
 3875              	.LBB5703:
 3876              		.loc 11 1072 0
 3877 000c 7C962379 		mr. 22,4
 3878              		.cfi_offset 22, -40
 3879              		.cfi_register 65, 0
 3880              	.LBE5703:
 3881              		.loc 11 1068 0
 3882 0010 93C10030 		stw 30,48(1)
 3883 0014 7C7E1B78 		mr 30,3
 3884              		.cfi_offset 30, -8
 3885 0018 9001003C 		stw 0,60(1)
 3886 001c 92A1000C 		stw 21,12(1)
 3887 0020 92E10014 		stw 23,20(1)
 3888 0024 93010018 		stw 24,24(1)
 3889 0028 9321001C 		stw 25,28(1)
 3890 002c 93410020 		stw 26,32(1)
 3891 0030 93610024 		stw 27,36(1)
 3892 0034 93810028 		stw 28,40(1)
 3893 0038 93A1002C 		stw 29,44(1)
 3894 003c 93E10034 		stw 31,52(1)
 3895              	.LBB5788:
 3896              		.loc 11 1072 0
 3897 0040 41820168 		beq- 0,.L196
 3898              		.cfi_offset 31, -4
 3899              		.cfi_offset 29, -12
 3900              		.cfi_offset 28, -16
 3901              		.cfi_offset 27, -20
 3902              		.cfi_offset 26, -24
 3903              		.cfi_offset 25, -28
 3904              		.cfi_offset 24, -32
 3905              		.cfi_offset 23, -36
 3906              		.cfi_offset 21, -44
 3907              		.cfi_offset 65, 4
 3908              	.LVL289:
 3909              	.L242:
 3910              		.loc 4 373 0
 3911 0044 8376000C 		lwz 27,12(22)
 3912              	.LVL290:
 3913              	.LBB5704:
 3914              	.LBB5705:
 3915              	.LBB5706:
 3916              		.loc 11 1072 0
 3917 0048 2F9B0000 		cmpwi 7,27,0
 3918 004c 419E0140 		beq- 7,.L198
 3919              	.LVL291:
 3920              	.L243:
 3921              	.LBE5706:
 3922              		.loc 4 373 0
 3923 0050 835B000C 		lwz 26,12(27)
 3924              	.LVL292:
 3925              	.LBB5782:
 3926              	.LBB5707:
 3927              	.LBB5708:
 3928              	.LBB5709:
 3929              		.loc 11 1072 0
 3930 0054 2F9A0000 		cmpwi 7,26,0
 3931 0058 419E0118 		beq- 7,.L199
 3932              	.LVL293:
 3933              	.L244:
 3934              	.LBE5709:
 3935              		.loc 4 373 0
 3936 005c 833A000C 		lwz 25,12(26)
 3937              	.LVL294:
 3938              	.LBB5775:
 3939              	.LBB5710:
 3940              	.LBB5711:
 3941              	.LBB5712:
 3942              		.loc 11 1072 0
 3943 0060 2F990000 		cmpwi 7,25,0
 3944 0064 419E00F0 		beq- 7,.L200
 3945              	.LVL295:
 3946              	.L245:
 3947              	.LBE5712:
 3948              		.loc 4 373 0
 3949 0068 8319000C 		lwz 24,12(25)
 3950              	.LVL296:
 3951              	.LBB5768:
 3952              	.LBB5713:
 3953              	.LBB5714:
 3954              	.LBB5715:
 3955              		.loc 11 1072 0
 3956 006c 2F980000 		cmpwi 7,24,0
 3957 0070 419E00C8 		beq- 7,.L201
 3958              	.LVL297:
 3959              	.L246:
 3960              	.LBE5715:
 3961              		.loc 4 373 0
 3962 0074 82F8000C 		lwz 23,12(24)
 3963              	.LVL298:
 3964              	.LBB5761:
 3965              	.LBB5716:
 3966              	.LBB5717:
 3967              	.LBB5718:
 3968              		.loc 11 1072 0
 3969 0078 2F970000 		cmpwi 7,23,0
 3970 007c 419E00A0 		beq- 7,.L202
 3971              	.LVL299:
 3972              	.L247:
 3973              	.LBE5718:
 3974              		.loc 4 373 0
 3975 0080 8397000C 		lwz 28,12(23)
 3976              	.LVL300:
 3977              	.LBB5754:
 3978              	.LBB5719:
 3979              	.LBB5720:
 3980              	.LBB5721:
 3981              		.loc 11 1072 0
 3982 0084 2F9C0000 		cmpwi 7,28,0
 3983 0088 419E0078 		beq- 7,.L203
 3984              	.LVL301:
 3985              	.L248:
 3986              	.LBE5721:
 3987              		.loc 4 373 0
 3988 008c 83BC000C 		lwz 29,12(28)
 3989              	.LVL302:
 3990              	.LBB5747:
 3991              	.LBB5722:
 3992              	.LBB5723:
 3993              	.LBB5724:
 3994              		.loc 11 1072 0
 3995 0090 2F9D0000 		cmpwi 7,29,0
 3996 0094 419E0050 		beq- 7,.L204
 3997              	.LVL303:
 3998              	.L249:
 3999              	.LBE5724:
 4000              		.loc 4 373 0
 4001 0098 83FD000C 		lwz 31,12(29)
 4002              	.LVL304:
 4003              	.LBB5740:
 4004              	.LBB5725:
 4005              	.LBB5726:
 4006              	.LBB5727:
 4007              		.loc 11 1072 0
 4008 009c 2F9F0000 		cmpwi 7,31,0
 4009 00a0 419E0028 		beq- 7,.L205
 4010              	.LVL305:
 4011              	.L250:
 4012              	.LBB5728:
 4013              		.loc 11 1074 0
 4014 00a4 809F000C 		lwz 4,12(31)
 4015 00a8 7FC3F378 		mr 3,30
 4016 00ac 48000001 		bl _ZNSt8_Rb_treeIPN7sigslot12_signal_baseINS0_15single_threadedEEES4_St9_IdentityIS4_ESt4lessIS4_
 4017              	.LBE5728:
 4018              	.LBE5727:
 4019              		.loc 4 373 0
 4020 00b0 82BF0008 		lwz 21,8(31)
 4021              	.LVL306:
 4022              	.LBB5734:
 4023              	.LBB5733:
 4024              	.LBB5729:
 4025              	.LBB5730:
 4026              	.LBB5731:
 4027              	.LBB5732:
 4028              		.loc 10 98 0
 4029 00b4 7FE3FB78 		mr 3,31
 4030 00b8 48000001 		bl _ZdlPv
 4031              	.LVL307:
 4032              	.LBE5732:
 4033              	.LBE5731:
 4034              	.LBE5730:
 4035              	.LBE5729:
 4036              	.LBE5733:
 4037              		.loc 11 1072 0
 4038 00bc 2F950000 		cmpwi 7,21,0
 4039              		.loc 11 1077 0
 4040 00c0 7EBFAB78 		mr 31,21
 4041              	.LVL308:
 4042              		.loc 11 1072 0
 4043 00c4 409EFFE0 		bne+ 7,.L250
 4044              	.LVL309:
 4045              	.L205:
 4046              	.LBE5734:
 4047              	.LBE5726:
 4048              	.LBE5725:
 4049              	.LBE5740:
 4050              		.loc 4 373 0
 4051 00c8 83FD0008 		lwz 31,8(29)
 4052              	.LVL310:
 4053              	.LBB5741:
 4054              	.LBB5739:
 4055              	.LBB5735:
 4056              	.LBB5736:
 4057              	.LBB5737:
 4058              	.LBB5738:
 4059              		.loc 10 98 0
 4060 00cc 7FA3EB78 		mr 3,29
 4061 00d0 48000001 		bl _ZdlPv
 4062              	.LVL311:
 4063              	.LBE5738:
 4064              	.LBE5737:
 4065              	.LBE5736:
 4066              	.LBE5735:
 4067              	.LBE5739:
 4068              		.loc 11 1072 0
 4069 00d4 2F9F0000 		cmpwi 7,31,0
 4070 00d8 419E000C 		beq- 7,.L204
 4071              		.loc 11 1077 0
 4072 00dc 7FFDFB78 		mr 29,31
 4073              	.LVL312:
 4074 00e0 4BFFFFB8 		b .L249
 4075              	.LVL313:
 4076              	.L204:
 4077              	.LBE5741:
 4078              	.LBE5723:
 4079              	.LBE5722:
 4080              	.LBE5747:
 4081              		.loc 4 373 0
 4082 00e4 83FC0008 		lwz 31,8(28)
 4083              	.LVL314:
 4084              	.LBB5748:
 4085              	.LBB5746:
 4086              	.LBB5742:
 4087              	.LBB5743:
 4088              	.LBB5744:
 4089              	.LBB5745:
 4090              		.loc 10 98 0
 4091 00e8 7F83E378 		mr 3,28
 4092 00ec 48000001 		bl _ZdlPv
 4093              	.LVL315:
 4094              	.LBE5745:
 4095              	.LBE5744:
 4096              	.LBE5743:
 4097              	.LBE5742:
 4098              	.LBE5746:
 4099              		.loc 11 1072 0
 4100 00f0 2F9F0000 		cmpwi 7,31,0
 4101 00f4 419E000C 		beq- 7,.L203
 4102              		.loc 11 1077 0
 4103 00f8 7FFCFB78 		mr 28,31
 4104              	.LVL316:
 4105 00fc 4BFFFF90 		b .L248
 4106              	.LVL317:
 4107              	.L203:
 4108              	.LBE5748:
 4109              	.LBE5720:
 4110              	.LBE5719:
 4111              	.LBE5754:
 4112              		.loc 4 373 0
 4113 0100 83F70008 		lwz 31,8(23)
 4114              	.LVL318:
 4115              	.LBB5755:
 4116              	.LBB5753:
 4117              	.LBB5749:
 4118              	.LBB5750:
 4119              	.LBB5751:
 4120              	.LBB5752:
 4121              		.loc 10 98 0
 4122 0104 7EE3BB78 		mr 3,23
 4123 0108 48000001 		bl _ZdlPv
 4124              	.LVL319:
 4125              	.LBE5752:
 4126              	.LBE5751:
 4127              	.LBE5750:
 4128              	.LBE5749:
 4129              	.LBE5753:
 4130              		.loc 11 1072 0
 4131 010c 2F9F0000 		cmpwi 7,31,0
 4132 0110 419E000C 		beq- 7,.L202
 4133              		.loc 11 1077 0
 4134 0114 7FF7FB78 		mr 23,31
 4135              	.LVL320:
 4136 0118 4BFFFF68 		b .L247
 4137              	.LVL321:
 4138              	.L202:
 4139              	.LBE5755:
 4140              	.LBE5717:
 4141              	.LBE5716:
 4142              	.LBE5761:
 4143              		.loc 4 373 0
 4144 011c 83F80008 		lwz 31,8(24)
 4145              	.LVL322:
 4146              	.LBB5762:
 4147              	.LBB5760:
 4148              	.LBB5756:
 4149              	.LBB5757:
 4150              	.LBB5758:
 4151              	.LBB5759:
 4152              		.loc 10 98 0
 4153 0120 7F03C378 		mr 3,24
 4154 0124 48000001 		bl _ZdlPv
 4155              	.LVL323:
 4156              	.LBE5759:
 4157              	.LBE5758:
 4158              	.LBE5757:
 4159              	.LBE5756:
 4160              	.LBE5760:
 4161              		.loc 11 1072 0
 4162 0128 2F9F0000 		cmpwi 7,31,0
 4163 012c 419E000C 		beq- 7,.L201
 4164              		.loc 11 1077 0
 4165 0130 7FF8FB78 		mr 24,31
 4166              	.LVL324:
 4167 0134 4BFFFF40 		b .L246
 4168              	.LVL325:
 4169              	.L201:
 4170              	.LBE5762:
 4171              	.LBE5714:
 4172              	.LBE5713:
 4173              	.LBE5768:
 4174              		.loc 4 373 0
 4175 0138 83F90008 		lwz 31,8(25)
 4176              	.LVL326:
 4177              	.LBB5769:
 4178              	.LBB5767:
 4179              	.LBB5763:
 4180              	.LBB5764:
 4181              	.LBB5765:
 4182              	.LBB5766:
 4183              		.loc 10 98 0
 4184 013c 7F23CB78 		mr 3,25
 4185 0140 48000001 		bl _ZdlPv
 4186              	.LVL327:
 4187              	.LBE5766:
 4188              	.LBE5765:
 4189              	.LBE5764:
 4190              	.LBE5763:
 4191              	.LBE5767:
 4192              		.loc 11 1072 0
 4193 0144 2F9F0000 		cmpwi 7,31,0
 4194 0148 419E000C 		beq- 7,.L200
 4195              		.loc 11 1077 0
 4196 014c 7FF9FB78 		mr 25,31
 4197              	.LVL328:
 4198 0150 4BFFFF18 		b .L245
 4199              	.LVL329:
 4200              	.L200:
 4201              	.LBE5769:
 4202              	.LBE5711:
 4203              	.LBE5710:
 4204              	.LBE5775:
 4205              		.loc 4 373 0
 4206 0154 83FA0008 		lwz 31,8(26)
 4207              	.LVL330:
 4208              	.LBB5776:
 4209              	.LBB5774:
 4210              	.LBB5770:
 4211              	.LBB5771:
 4212              	.LBB5772:
 4213              	.LBB5773:
 4214              		.loc 10 98 0
 4215 0158 7F43D378 		mr 3,26
 4216 015c 48000001 		bl _ZdlPv
 4217              	.LVL331:
 4218              	.LBE5773:
 4219              	.LBE5772:
 4220              	.LBE5771:
 4221              	.LBE5770:
 4222              	.LBE5774:
 4223              		.loc 11 1072 0
 4224 0160 2F9F0000 		cmpwi 7,31,0
 4225 0164 419E000C 		beq- 7,.L199
 4226              		.loc 11 1077 0
 4227 0168 7FFAFB78 		mr 26,31
 4228              	.LVL332:
 4229 016c 4BFFFEF0 		b .L244
 4230              	.LVL333:
 4231              	.L199:
 4232              	.LBE5776:
 4233              	.LBE5708:
 4234              	.LBE5707:
 4235              	.LBE5782:
 4236              		.loc 4 373 0
 4237 0170 83FB0008 		lwz 31,8(27)
 4238              	.LVL334:
 4239              	.LBB5783:
 4240              	.LBB5781:
 4241              	.LBB5777:
 4242              	.LBB5778:
 4243              	.LBB5779:
 4244              	.LBB5780:
 4245              		.loc 10 98 0
 4246 0174 7F63DB78 		mr 3,27
 4247 0178 48000001 		bl _ZdlPv
 4248              	.LVL335:
 4249              	.LBE5780:
 4250              	.LBE5779:
 4251              	.LBE5778:
 4252              	.LBE5777:
 4253              	.LBE5781:
 4254              		.loc 11 1072 0
 4255 017c 2F9F0000 		cmpwi 7,31,0
 4256 0180 419E000C 		beq- 7,.L198
 4257              		.loc 11 1077 0
 4258 0184 7FFBFB78 		mr 27,31
 4259              	.LVL336:
 4260 0188 4BFFFEC8 		b .L243
 4261              	.LVL337:
 4262              	.L198:
 4263              		.loc 4 373 0
 4264 018c 83F60008 		lwz 31,8(22)
 4265              	.LVL338:
 4266              	.LBE5783:
 4267              	.LBE5705:
 4268              	.LBB5784:
 4269              	.LBB5785:
 4270              	.LBB5786:
 4271              	.LBB5787:
 4272              		.loc 10 98 0
 4273 0190 7EC3B378 		mr 3,22
 4274 0194 48000001 		bl _ZdlPv
 4275              	.LVL339:
 4276              	.LBE5787:
 4277              	.LBE5786:
 4278              	.LBE5785:
 4279              	.LBE5784:
 4280              	.LBE5704:
 4281              		.loc 11 1072 0
 4282 0198 2F9F0000 		cmpwi 7,31,0
 4283 019c 419E000C 		beq- 7,.L196
 4284              		.loc 11 1077 0
 4285 01a0 7FF6FB78 		mr 22,31
 4286              	.LVL340:
 4287 01a4 4BFFFEA0 		b .L242
 4288              	.LVL341:
 4289              	.L196:
 4290              	.LBE5788:
 4291              		.loc 11 1079 0
 4292 01a8 8001003C 		lwz 0,60(1)
 4293 01ac 82A1000C 		lwz 21,12(1)
 4294 01b0 7C0803A6 		mtlr 0
 4295 01b4 82C10010 		lwz 22,16(1)
 4296 01b8 82E10014 		lwz 23,20(1)
 4297 01bc 83010018 		lwz 24,24(1)
 4298 01c0 8321001C 		lwz 25,28(1)
 4299 01c4 83410020 		lwz 26,32(1)
 4300 01c8 83610024 		lwz 27,36(1)
 4301 01cc 83810028 		lwz 28,40(1)
 4302 01d0 83A1002C 		lwz 29,44(1)
 4303 01d4 83C10030 		lwz 30,48(1)
 4304              	.LVL342:
 4305 01d8 83E10034 		lwz 31,52(1)
 4306 01dc 38210038 		addi 1,1,56
 4307              	.LCFI69:
 4308              		.cfi_def_cfa_offset 0
 4309              		.cfi_restore 31
 4310              		.cfi_restore 30
 4311              		.cfi_restore 29
 4312              		.cfi_restore 28
 4313              		.cfi_restore 27
 4314              		.cfi_restore 26
 4315              		.cfi_restore 25
 4316              		.cfi_restore 24
 4317              		.cfi_restore 23
 4318              		.cfi_restore 22
 4319              		.cfi_restore 21
 4320 01e0 4E800020 		blr
 4321              		.cfi_endproc
 4322              	.LFE1951:
 4323              		.size	_ZNSt8_Rb_treeIPN7sigslot12_signal_baseINS0_15single_threadedEEES4_St9_IdentityIS4_ESt4lessI
 4324              		.section	.text._ZN7sigslot9has_slotsINS_15single_threadedEED2Ev,"axG",@progbits,_ZN7sigslot9has_sl
 4325              		.align 2
 4326              		.weak	_ZN7sigslot9has_slotsINS_15single_threadedEED2Ev
 4327              		.type	_ZN7sigslot9has_slotsINS_15single_threadedEED2Ev, @function
 4328              	_ZN7sigslot9has_slotsINS_15single_threadedEED2Ev:
 4329              	.LFB1685:
 4330              		.loc 1 513 0
 4331              		.cfi_startproc
 4332              		.cfi_personality 0,__gxx_personality_v0
 4333              		.cfi_lsda 0,.LLSDA1685
 4334              	.LVL343:
 4335 0000 7C0802A6 		mflr 0
 4336 0004 9421FFE0 		stwu 1,-32(1)
 4337              	.LCFI70:
 4338              		.cfi_def_cfa_offset 32
 4339              		.cfi_register 65, 0
 4340              	.LBB5935:
 4341              		.loc 1 516 0
 4342 0008 3D200000 		lis 9,_ZTVN7sigslot9has_slotsINS_15single_threadedEEE+8@ha
 4343              	.LBE5935:
 4344              		.loc 1 513 0
 4345 000c 93810010 		stw 28,16(1)
 4346 0010 3B830004 		addi 28,3,4
 4347              		.cfi_offset 28, -16
 4348 0014 90010024 		stw 0,36(1)
 4349              	.LBB6011:
 4350              		.loc 1 516 0
 4351 0018 38090008 		la 0,_ZTVN7sigslot9has_slotsINS_15single_threadedEEE+8@l(9)
 4352              		.cfi_offset 65, 4
 4353              	.LBE6011:
 4354              		.loc 1 513 0
 4355 001c 93A10014 		stw 29,20(1)
 4356 0020 7C7D1B78 		mr 29,3
 4357              		.cfi_offset 29, -12
 4358 0024 93410008 		stw 26,8(1)
 4359 0028 9361000C 		stw 27,12(1)
 4360 002c 93C10018 		stw 30,24(1)
 4361 0030 93E1001C 		stw 31,28(1)
 4362              	.LBB6012:
 4363              		.loc 1 516 0
 4364 0034 90030000 		stw 0,0(3)
 4365              	.LVL344:
 4366              	.LEHB0:
 4367              	.LBB5936:
 4368              	.LBB5937:
 4369              	.LBB5938:
 4370              	.LBB5939:
 4371              		.loc 1 338 0
 4372              		.cfi_offset 31, -4
 4373              		.cfi_offset 30, -8
 4374              		.cfi_offset 27, -20
 4375              		.cfi_offset 26, -24
 4376 0038 48000001 		bl _ZN7sigslot15single_threaded4lockEv
 4377              	.LEHE0:
 4378              	.LVL345:
 4379              	.LBE5939:
 4380              	.LBE5938:
 4381              	.LBB5940:
 4382              		.loc 4 373 0
 4383 003c 83FD0010 		lwz 31,16(29)
 4384              	.LVL346:
 4385              	.LBE5940:
 4386              	.LBB5941:
 4387              	.LBB5942:
 4388              	.LBB5943:
 4389              		.loc 11 671 0
 4390 0040 3BDC0004 		addi 30,28,4
 4391              	.LVL347:
 4392              	.LBE5943:
 4393              	.LBE5942:
 4394              	.LBE5941:
 4395              		.loc 1 524 0
 4396 0044 7F9FF000 		cmpw 7,31,30
 4397 0048 419E0034 		beq- 7,.L252
 4398              	.LVL348:
 4399              	.L279:
 4400              		.loc 1 526 0
 4401 004c 807F0010 		lwz 3,16(31)
 4402 0050 7FA4EB78 		mr 4,29
 4403 0054 81230000 		lwz 9,0(3)
 4404 0058 80090010 		lwz 0,16(9)
 4405 005c 7C0903A6 		mtctr 0
 4406              	.LEHB1:
 4407 0060 4E800421 		bctrl
 4408              	.LEHE1:
 4409              	.LVL349:
 4410              	.LBB5944:
 4411              	.LBB5945:
 4412              		.loc 11 269 0
 4413 0064 7FE3FB78 		mr 3,31
 4414 0068 48000001 		bl _ZSt18_Rb_tree_incrementPKSt18_Rb_tree_node_base
 4415              	.LBE5945:
 4416              	.LBE5944:
 4417              		.loc 1 524 0
 4418 006c 7F9E1800 		cmpw 7,30,3
 4419              	.LBB5947:
 4420              	.LBB5946:
 4421              		.loc 11 269 0
 4422 0070 7C7F1B78 		mr 31,3
 4423              	.LVL350:
 4424              	.LBE5946:
 4425              	.LBE5947:
 4426              		.loc 1 524 0
 4427 0074 409EFFD8 		bne+ 7,.L279
 4428 0078 83FD0010 		lwz 31,16(29)
 4429              	.LVL351:
 4430              	.L252:
 4431              	.LBB5948:
 4432              	.LBB5949:
 4433              	.LBB5950:
 4434              	.LBB5951:
 4435              	.LBB5952:
 4436              	.LBB5953:
 4437              	.LBB5954:
 4438              		.loc 11 665 0
 4439 007c 3B5C0004 		addi 26,28,4
 4440              	.LBE5954:
 4441              	.LBE5953:
 4442              		.loc 11 1500 0
 4443 0080 7F9ED000 		cmpw 7,30,26
 4444 0084 419E0098 		beq- 7,.L254
 4445              	.LVL352:
 4446              		.loc 11 1503 0
 4447 0088 7F9EF800 		cmpw 7,30,31
 4448 008c 40BE000C 		bne+ 7,.L281
 4449 0090 48000038 		b .L255
 4450              	.LVL353:
 4451              	.L276:
 4452              		.loc 11 277 0
 4453 0094 7F7FDB78 		mr 31,27
 4454              	.LVL354:
 4455              	.L281:
 4456              	.LBB5955:
 4457              	.LBB5956:
 4458 0098 7FE3FB78 		mr 3,31
 4459 009c 48000001 		bl _ZSt18_Rb_tree_incrementPKSt18_Rb_tree_node_base
 4460              	.LBE5956:
 4461              	.LBE5955:
 4462              	.LBB5958:
 4463              	.LBB5959:
 4464              	.LBB5960:
 4465              		.loc 11 1489 0
 4466 00a0 7F44D378 		mr 4,26
 4467              	.LBE5960:
 4468              	.LBE5959:
 4469              	.LBE5958:
 4470              	.LBB5969:
 4471              	.LBB5957:
 4472              		.loc 11 277 0
 4473 00a4 7C7B1B78 		mr 27,3
 4474              	.LVL355:
 4475              	.LBE5957:
 4476              	.LBE5969:
 4477              	.LBB5970:
 4478              	.LBB5967:
 4479              	.LBB5965:
 4480              		.loc 11 1489 0
 4481 00a8 7FE3FB78 		mr 3,31
 4482              	.LVL356:
 4483 00ac 48000001 		bl _ZSt28_Rb_tree_rebalance_for_erasePSt18_Rb_tree_node_baseRS_
 4484              	.LBB5961:
 4485              	.LBB5962:
 4486              	.LBB5963:
 4487              	.LBB5964:
 4488              		.loc 10 98 0
 4489 00b0 48000001 		bl _ZdlPv
 4490              	.LBE5964:
 4491              	.LBE5963:
 4492              	.LBE5962:
 4493              	.LBE5961:
 4494              	.LBE5965:
 4495              	.LBE5967:
 4496              	.LBE5970:
 4497              		.loc 11 1503 0
 4498 00b4 7F9ED800 		cmpw 7,30,27
 4499              	.LBB5971:
 4500              	.LBB5968:
 4501              	.LBB5966:
 4502              		.loc 11 1491 0
 4503 00b8 813C0014 		lwz 9,20(28)
 4504 00bc 3809FFFF 		addi 0,9,-1
 4505 00c0 901C0014 		stw 0,20(28)
 4506              	.LBE5966:
 4507              	.LBE5968:
 4508              	.LBE5971:
 4509              		.loc 11 1503 0
 4510 00c4 409EFFD0 		bne+ 7,.L276
 4511              	.LVL357:
 4512              	.L255:
 4513              	.LBE5952:
 4514              	.LBE5951:
 4515              	.LBE5950:
 4516              	.LBE5949:
 4517              	.LBE5948:
 4518              	.LBB5980:
 4519              	.LBB5981:
 4520              	.LBB5982:
 4521              		.loc 1 343 0
 4522 00c8 813D0000 		lwz 9,0(29)
 4523 00cc 7FA3EB78 		mr 3,29
 4524 00d0 8009000C 		lwz 0,12(9)
 4525 00d4 7C0903A6 		mtctr 0
 4526              	.LEHB2:
 4527 00d8 4E800421 		bctrl
 4528              	.LEHE2:
 4529              	.LVL358:
 4530              	.LBE5982:
 4531              	.LBE5981:
 4532              	.LBE5980:
 4533              	.LBE5937:
 4534              	.LBE5936:
 4535              	.LBB5989:
 4536              	.LBB5990:
 4537              	.LBB5991:
 4538              	.LBB5992:
 4539              	.LBB5993:
 4540              		.loc 11 639 0
 4541 00dc 809D000C 		lwz 4,12(29)
 4542 00e0 7F83E378 		mr 3,28
 4543 00e4 48000001 		bl _ZNSt8_Rb_treeIPN7sigslot12_signal_baseINS0_15single_threadedEEES4_St9_IdentityIS4_ESt4lessIS4_
 4544              	.LVL359:
 4545              	.LBE5993:
 4546              	.LBE5992:
 4547              	.LBE5991:
 4548              	.LBE5990:
 4549              	.LBE5989:
 4550              	.LBB5994:
 4551              	.LBB5995:
 4552              	.LBB5996:
 4553              		.loc 1 105 0
 4554 00e8 3D200000 		lis 9,_ZTVN7sigslot15single_threadedE+8@ha
 4555 00ec 38090008 		la 0,_ZTVN7sigslot15single_threadedE+8@l(9)
 4556              	.LBE5996:
 4557              	.LBE5995:
 4558              	.LBE5994:
 4559              	.LBE6012:
 4560              		.loc 1 516 0
 4561 00f0 83410008 		lwz 26,8(1)
 4562              	.LBB6013:
 4563              	.LBB5999:
 4564              	.LBB5998:
 4565              	.LBB5997:
 4566              		.loc 1 105 0
 4567 00f4 901D0000 		stw 0,0(29)
 4568              	.LBE5997:
 4569              	.LBE5998:
 4570              	.LBE5999:
 4571              	.LBE6013:
 4572              		.loc 1 516 0
 4573 00f8 80010024 		lwz 0,36(1)
 4574 00fc 8361000C 		lwz 27,12(1)
 4575 0100 7C0803A6 		mtlr 0
 4576 0104 83810010 		lwz 28,16(1)
 4577              	.LVL360:
 4578 0108 83A10014 		lwz 29,20(1)
 4579              	.LVL361:
 4580 010c 83C10018 		lwz 30,24(1)
 4581              	.LVL362:
 4582 0110 83E1001C 		lwz 31,28(1)
 4583 0114 38210020 		addi 1,1,32
 4584              		.cfi_remember_state
 4585              	.LCFI71:
 4586              		.cfi_def_cfa_offset 0
 4587              		.cfi_restore 31
 4588              		.cfi_restore 30
 4589              		.cfi_restore 29
 4590              		.cfi_restore 28
 4591              		.cfi_restore 27
 4592              		.cfi_restore 26
 4593 0118 4E800020 		blr
 4594              	.LVL363:
 4595              	.L254:
 4596              	.LCFI72:
 4597              		.cfi_restore_state
 4598              	.LBB6014:
 4599              	.LBB6000:
 4600              	.LBB5987:
 4601              	.LBB5983:
 4602              	.LBB5979:
 4603              	.LBB5978:
 4604              	.LBB5977:
 4605              	.LBB5976:
 4606              	.LBB5972:
 4607              	.LBB5973:
 4608              	.LBB5974:
 4609              	.LBB5975:
 4610              		.loc 11 809 0
 4611 011c 809D000C 		lwz 4,12(29)
 4612 0120 7F83E378 		mr 3,28
 4613 0124 48000001 		bl _ZNSt8_Rb_treeIPN7sigslot12_signal_baseINS0_15single_threadedEEES4_St9_IdentityIS4_ESt4lessIS4_
 4614              	.LVL364:
 4615              		.loc 11 811 0
 4616 0128 38000000 		li 0,0
 4617              		.loc 11 810 0
 4618 012c 93DD0010 		stw 30,16(29)
 4619              	.LVL365:
 4620              		.loc 11 811 0
 4621 0130 901D000C 		stw 0,12(29)
 4622              	.LVL366:
 4623              		.loc 11 812 0
 4624 0134 93DD0014 		stw 30,20(29)
 4625              		.loc 11 813 0
 4626 0138 901D0018 		stw 0,24(29)
 4627 013c 4BFFFF8C 		b .L255
 4628              	.LVL367:
 4629              	.L277:
 4630 0140 7C7F1B78 		mr 31,3
 4631              	.L262:
 4632              	.LVL368:
 4633              	.LBE5975:
 4634              	.LBE5974:
 4635              	.LBE5973:
 4636              	.LBE5972:
 4637              	.LBE5976:
 4638              	.LBE5977:
 4639              	.LBE5978:
 4640              	.LBE5979:
 4641              	.LBE5983:
 4642              	.LBE5987:
 4643              	.LBE6000:
 4644              	.LBB6001:
 4645              	.LBB6002:
 4646              	.LBB6003:
 4647              	.LBB6004:
 4648              	.LBB6005:
 4649              	.LBB6006:
 4650              		.loc 11 639 0
 4651 0144 809D000C 		lwz 4,12(29)
 4652 0148 7F83E378 		mr 3,28
 4653 014c 48000001 		bl _ZNSt8_Rb_treeIPN7sigslot12_signal_baseINS0_15single_threadedEEES4_St9_IdentityIS4_ESt4lessIS4_
 4654              	.LVL369:
 4655              	.LBE6006:
 4656              	.LBE6005:
 4657              	.LBE6004:
 4658              	.LBE6003:
 4659              	.LBE6002:
 4660              	.LBE6001:
 4661              	.LBB6007:
 4662              	.LBB6008:
 4663              	.LBB6009:
 4664              		.loc 1 105 0
 4665 0150 3D200000 		lis 9,_ZTVN7sigslot15single_threadedE+8@ha
 4666 0154 38090008 		la 0,_ZTVN7sigslot15single_threadedE+8@l(9)
 4667 0158 7FE3FB78 		mr 3,31
 4668 015c 901D0000 		stw 0,0(29)
 4669              	.LEHB3:
 4670 0160 48000001 		bl _Unwind_Resume
 4671              	.LEHE3:
 4672              	.LVL370:
 4673              	.L278:
 4674              	.LBE6009:
 4675              	.LBE6008:
 4676              	.LBE6007:
 4677              	.LBB6010:
 4678              	.LBB5988:
 4679              	.LBB5984:
 4680              	.LBB5985:
 4681              	.LBB5986:
 4682              		.loc 1 343 0
 4683 0164 813D0000 		lwz 9,0(29)
 4684 0168 7C7F1B78 		mr 31,3
 4685              	.LVL371:
 4686 016c 7FA3EB78 		mr 3,29
 4687 0170 8009000C 		lwz 0,12(9)
 4688 0174 7C0903A6 		mtctr 0
 4689 0178 4E800421 		bctrl
 4690 017c 4BFFFFC8 		b .L262
 4691              	.LBE5986:
 4692              	.LBE5985:
 4693              	.LBE5984:
 4694              	.LBE5988:
 4695              	.LBE6010:
 4696              	.LBE6014:
 4697              		.cfi_endproc
 4698              	.LFE1685:
 4699              		.globl __gxx_personality_v0
 4700              		.section	.gcc_except_table,"a",@progbits
 4701              	.LLSDA1685:
 4702 0000 FF       		.byte	0xff
 4703 0001 FF       		.byte	0xff
 4704 0002 01       		.byte	0x1
 4705 0003 15       		.uleb128 .LLSDACSE1685-.LLSDACSB1685
 4706              	.LLSDACSB1685:
 4707 0004 38       		.uleb128 .LEHB0-.LFB1685
 4708 0005 04       		.uleb128 .LEHE0-.LEHB0
 4709 0006 C002     		.uleb128 .L277-.LFB1685
 4710 0008 00       		.uleb128 0
 4711 0009 60       		.uleb128 .LEHB1-.LFB1685
 4712 000a 04       		.uleb128 .LEHE1-.LEHB1
 4713 000b E402     		.uleb128 .L278-.LFB1685
 4714 000d 00       		.uleb128 0
 4715 000e D801     		.uleb128 .LEHB2-.LFB1685
 4716 0010 04       		.uleb128 .LEHE2-.LEHB2
 4717 0011 C002     		.uleb128 .L277-.LFB1685
 4718 0013 00       		.uleb128 0
 4719 0014 E002     		.uleb128 .LEHB3-.LFB1685
 4720 0016 04       		.uleb128 .LEHE3-.LEHB3
 4721 0017 00       		.uleb128 0
 4722 0018 00       		.uleb128 0
 4723              	.LLSDACSE1685:
 4724              		.section	.text._ZN7sigslot9has_slotsINS_15single_threadedEED2Ev,"axG",@progbits,_ZN7sigslot9has_sl
 4725              		.size	_ZN7sigslot9has_slotsINS_15single_threadedEED2Ev, .-_ZN7sigslot9has_slotsINS_15single_thread
 4726              		.section	".text"
 4727              		.align 2
 4728              		.globl _ZThn176_N22LanguagesSelectBrowserD1Ev
 4729              		.type	_ZThn176_N22LanguagesSelectBrowserD1Ev, @function
 4730              	_ZThn176_N22LanguagesSelectBrowserD1Ev:
 4731              	.LFB2784:
 4732              		.cfi_startproc
 4733 0858 3863FF50 		addi 3,3,-176
 4734 085c 48000004 		b .LTHUNK0
 4735              		.cfi_endproc
 4736              	.LFE2784:
 4737              		.size	_ZThn176_N22LanguagesSelectBrowserD1Ev, .-_ZThn176_N22LanguagesSelectBrowserD1Ev
 4738              		.align 2
 4739              		.globl _ZN22LanguagesSelectBrowserD2Ev
 4740              		.type	_ZN22LanguagesSelectBrowserD2Ev, @function
 4741              	_ZN22LanguagesSelectBrowserD2Ev:
 4742              	.LFB1616:
 4743              		.loc 4 41 0
 4744              		.cfi_startproc
 4745              		.cfi_personality 0,__gxx_personality_v0
 4746              		.cfi_lsda 0,.LLSDA1616
 4747              	.LVL372:
 4748 0860 7C0802A6 		mflr 0
 4749 0864 9421FFE8 		stwu 1,-24(1)
 4750              	.LCFI73:
 4751              		.cfi_def_cfa_offset 24
 4752              		.cfi_register 65, 0
 4753              	.LBB6342:
 4754 0868 3D200000 		lis 9,_ZTV22LanguagesSelectBrowser+8@ha
 4755 086c 39290008 		la 9,_ZTV22LanguagesSelectBrowser+8@l(9)
 4756              	.LBE6342:
 4757 0870 93E10014 		stw 31,20(1)
 4758 0874 9001001C 		stw 0,28(1)
 4759              	.LBB6584:
 4760 0878 380900E4 		addi 0,9,228
 4761              		.cfi_offset 65, 4
 4762              		.cfi_offset 31, -4
 4763              	.LBE6584:
 4764 087c 93810008 		stw 28,8(1)
 4765 0880 7C7F1B78 		mr 31,3
 4766 0884 93A1000C 		stw 29,12(1)
 4767 0888 93C10010 		stw 30,16(1)
 4768              	.LBB6585:
 4769              		.loc 4 41 0
 4770 088c 91230000 		stw 9,0(3)
 4771 0890 900300B0 		stw 0,176(3)
 4772              	.LEHB4:
 4773              		.loc 4 43 0
 4774              		.cfi_offset 30, -8
 4775              		.cfi_offset 29, -12
 4776              		.cfi_offset 28, -16
 4777 0894 48000001 		bl _ZN8GuiFrame9RemoveAllEv
 4778              	.LVL373:
 4779              		.loc 4 45 0
 4780 0898 807F0118 		lwz 3,280(31)
 4781 089c 2F830000 		cmpwi 7,3,0
 4782 08a0 419E0014 		beq- 7,.L284
 4783              		.loc 4 45 0 is_stmt 0 discriminator 1
 4784 08a4 81230000 		lwz 9,0(3)
 4785 08a8 80090004 		lwz 0,4(9)
 4786 08ac 7C0903A6 		mtctr 0
 4787 08b0 4E800421 		bctrl
 4788              	.L284:
 4789              		.loc 4 46 0 is_stmt 1
 4790 08b4 807F011C 		lwz 3,284(31)
 4791 08b8 2F830000 		cmpwi 7,3,0
 4792 08bc 419E0014 		beq- 7,.L285
 4793              		.loc 4 46 0 is_stmt 0 discriminator 1
 4794 08c0 81230000 		lwz 9,0(3)
 4795 08c4 80090004 		lwz 0,4(9)
 4796 08c8 7C0903A6 		mtctr 0
 4797 08cc 4E800421 		bctrl
 4798              	.L285:
 4799              		.loc 4 47 0 is_stmt 1
 4800 08d0 807F0120 		lwz 3,288(31)
 4801 08d4 2F830000 		cmpwi 7,3,0
 4802 08d8 419E0014 		beq- 7,.L286
 4803              		.loc 4 47 0 is_stmt 0 discriminator 1
 4804 08dc 81230000 		lwz 9,0(3)
 4805 08e0 80090004 		lwz 0,4(9)
 4806 08e4 7C0903A6 		mtctr 0
 4807 08e8 4E800421 		bctrl
 4808              	.L286:
 4809              		.loc 4 48 0 is_stmt 1
 4810 08ec 807F0124 		lwz 3,292(31)
 4811 08f0 2F830000 		cmpwi 7,3,0
 4812 08f4 419E0014 		beq- 7,.L287
 4813              		.loc 4 48 0 is_stmt 0 discriminator 1
 4814 08f8 81230000 		lwz 9,0(3)
 4815 08fc 80090004 		lwz 0,4(9)
 4816 0900 7C0903A6 		mtctr 0
 4817 0904 4E800421 		bctrl
 4818              	.L287:
 4819              		.loc 4 50 0 is_stmt 1
 4820 0908 807F0128 		lwz 3,296(31)
 4821 090c 48000001 		bl _ZN9Resources6RemoveEP12GuiImageData
 4822              		.loc 4 51 0
 4823 0910 807F012C 		lwz 3,300(31)
 4824 0914 48000001 		bl _ZN9Resources6RemoveEP12GuiImageData
 4825              		.loc 4 52 0
 4826 0918 807F0130 		lwz 3,304(31)
 4827 091c 48000001 		bl _ZN9Resources6RemoveEP12GuiImageData
 4828              		.loc 4 53 0
 4829 0920 807F0134 		lwz 3,308(31)
 4830 0924 48000001 		bl _ZN9Resources6RemoveEP12GuiImageData
 4831              		.loc 4 55 0
 4832 0928 807F0148 		lwz 3,328(31)
 4833 092c 48000001 		bl _ZN9Resources6RemoveEP8GuiSound
 4834              		.loc 4 56 0
 4835 0930 807F014C 		lwz 3,332(31)
 4836 0934 48000001 		bl _ZN9Resources6RemoveEP8GuiSound
 4837              		.loc 4 58 0
 4838 0938 807F0138 		lwz 3,312(31)
 4839 093c 2F830000 		cmpwi 7,3,0
 4840 0940 419E0014 		beq- 7,.L288
 4841              		.loc 4 58 0 is_stmt 0 discriminator 1
 4842 0944 81230000 		lwz 9,0(3)
 4843 0948 80090004 		lwz 0,4(9)
 4844 094c 7C0903A6 		mtctr 0
 4845 0950 4E800421 		bctrl
 4846              	.L288:
 4847              		.loc 4 60 0 is_stmt 1
 4848 0954 807F013C 		lwz 3,316(31)
 4849 0958 2F830000 		cmpwi 7,3,0
 4850 095c 419E0014 		beq- 7,.L289
 4851              		.loc 4 60 0 is_stmt 0 discriminator 1
 4852 0960 81230000 		lwz 9,0(3)
 4853 0964 80090004 		lwz 0,4(9)
 4854 0968 7C0903A6 		mtctr 0
 4855 096c 4E800421 		bctrl
 4856              	.L289:
 4857              		.loc 4 62 0 is_stmt 1
 4858 0970 807F0140 		lwz 3,320(31)
 4859 0974 2F830000 		cmpwi 7,3,0
 4860 0978 419E0014 		beq- 7,.L290
 4861              		.loc 4 62 0 is_stmt 0 discriminator 1
 4862 097c 81230000 		lwz 9,0(3)
 4863 0980 80090004 		lwz 0,4(9)
 4864 0984 7C0903A6 		mtctr 0
 4865 0988 4E800421 		bctrl
 4866              	.L290:
 4867              		.loc 4 63 0 is_stmt 1
 4868 098c 807F0144 		lwz 3,324(31)
 4869 0990 2F830000 		cmpwi 7,3,0
 4870 0994 419E0014 		beq- 7,.L293
 4871              		.loc 4 63 0 is_stmt 0 discriminator 1
 4872 0998 81230000 		lwz 9,0(3)
 4873 099c 80090004 		lwz 0,4(9)
 4874 09a0 7C0903A6 		mtctr 0
 4875 09a4 4E800421 		bctrl
 4876              	.L293:
 4877 09a8 813F0104 		lwz 9,260(31)
 4878 09ac 807F0100 		lwz 3,256(31)
 4879              	.LBB6343:
 4880              	.LBB6344:
 4881              	.LBB6345:
 4882              	.LBB6346:
 4883              		.loc 8 140 0 is_stmt 1 discriminator 1
 4884 09b0 7D234850 		subf 9,3,9
 4885 09b4 7D201671 		srawi. 0,9,2
 4886 09b8 418201BC 		beq- 0,.L304
 4887              	.L384:
 4888              		.loc 8 140 0 is_stmt 0
 4889 09bc 408102E0 		ble- 0,.L382
 4890              	.LVL374:
 4891              	.LBE6346:
 4892              	.LBE6345:
 4893              		.loc 4 184 0 is_stmt 1
 4894 09c0 813F00DC 		lwz 9,220(31)
 4895 09c4 80690000 		lwz 3,0(9)
 4896 09c8 2F830000 		cmpwi 7,3,0
 4897 09cc 419E0014 		beq- 7,.L294
 4898              	.LVL375:
 4899              		.loc 4 185 0
 4900 09d0 81230000 		lwz 9,0(3)
 4901 09d4 80090004 		lwz 0,4(9)
 4902 09d8 7C0903A6 		mtctr 0
 4903 09dc 4E800421 		bctrl
 4904              	.LVL376:
 4905              	.L294:
 4906              		.loc 4 186 0
 4907 09e0 813F00E8 		lwz 9,232(31)
 4908 09e4 80690000 		lwz 3,0(9)
 4909 09e8 2F830000 		cmpwi 7,3,0
 4910 09ec 419E0014 		beq- 7,.L295
 4911              	.LVL377:
 4912              		.loc 4 187 0
 4913 09f0 81230000 		lwz 9,0(3)
 4914 09f4 80090004 		lwz 0,4(9)
 4915 09f8 7C0903A6 		mtctr 0
 4916 09fc 4E800421 		bctrl
 4917              	.LVL378:
 4918              	.L295:
 4919              		.loc 4 188 0
 4920 0a00 813F00F4 		lwz 9,244(31)
 4921 0a04 80690000 		lwz 3,0(9)
 4922 0a08 2F830000 		cmpwi 7,3,0
 4923 0a0c 419E0014 		beq- 7,.L296
 4924              	.LVL379:
 4925              		.loc 4 189 0
 4926 0a10 81230000 		lwz 9,0(3)
 4927 0a14 80090004 		lwz 0,4(9)
 4928 0a18 7C0903A6 		mtctr 0
 4929 0a1c 4E800421 		bctrl
 4930              	.LVL380:
 4931              	.L296:
 4932              		.loc 4 190 0
 4933 0a20 813F010C 		lwz 9,268(31)
 4934 0a24 80690000 		lwz 3,0(9)
 4935 0a28 2F830000 		cmpwi 7,3,0
 4936 0a2c 419E0014 		beq- 7,.L297
 4937              	.LVL381:
 4938              		.loc 4 191 0
 4939 0a30 81230000 		lwz 9,0(3)
 4940 0a34 80090004 		lwz 0,4(9)
 4941 0a38 7C0903A6 		mtctr 0
 4942 0a3c 4E800421 		bctrl
 4943              	.LVL382:
 4944              	.L297:
 4945              		.loc 4 192 0
 4946 0a40 813F0100 		lwz 9,256(31)
 4947 0a44 80690000 		lwz 3,0(9)
 4948 0a48 2F830000 		cmpwi 7,3,0
 4949 0a4c 419E0014 		beq- 7,.L298
 4950              	.LVL383:
 4951              		.loc 4 193 0
 4952 0a50 81230000 		lwz 9,0(3)
 4953 0a54 80090004 		lwz 0,4(9)
 4954 0a58 7C0903A6 		mtctr 0
 4955 0a5c 4E800421 		bctrl
 4956              	.LEHE4:
 4957              	.LVL384:
 4958              	.L298:
 4959              	.LBB6358:
 4960              		.loc 4 373 0
 4961 0a60 807F00DC 		lwz 3,220(31)
 4962              	.LVL385:
 4963              	.LBE6358:
 4964              	.LBB6359:
 4965              	.LBB6360:
 4966              	.LBB6361:
 4967 0a64 817F00E0 		lwz 11,224(31)
 4968              	.LBE6361:
 4969              	.LBB6362:
 4970              	.LBB6363:
 4971              		.loc 7 773 0
 4972 0a68 38830004 		addi 4,3,4
 4973              	.LVL386:
 4974              	.LBE6363:
 4975              	.LBE6362:
 4976              		.loc 8 138 0
 4977 0a6c 7F845800 		cmpw 7,4,11
 4978 0a70 419E001C 		beq- 7,.L299
 4979              	.LVL387:
 4980              	.LBB6364:
 4981              	.LBB6365:
 4982              	.LBB6366:
 4983              	.LBB6367:
 4984              	.LBB6368:
 4985              	.LBB6369:
 4986              		.loc 9 364 0
 4987 0a74 7CA45850 		subf 5,4,11
 4988              	.LVL388:
 4989              		.loc 9 365 0
 4990 0a78 7CA51671 		srawi. 5,5,2
 4991              	.LVL389:
 4992 0a7c 41A20010 		beq+ 0,.L299
 4993              		.loc 9 366 0
 4994 0a80 54A5103A 		slwi 5,5,2
 4995              	.LVL390:
 4996 0a84 48000001 		bl memmove
 4997              	.LVL391:
 4998 0a88 817F00E0 		lwz 11,224(31)
 4999              	.LVL392:
 5000              	.L299:
 5001              	.LBE6369:
 5002              	.LBE6368:
 5003              	.LBE6367:
 5004              	.LBE6366:
 5005              	.LBE6365:
 5006              	.LBE6364:
 5007              	.LBE6360:
 5008              	.LBE6359:
 5009              	.LBB6372:
 5010              		.loc 4 373 0
 5011 0a8c 807F00E8 		lwz 3,232(31)
 5012              	.LBE6372:
 5013              	.LBB6373:
 5014              	.LBB6370:
 5015              		.loc 8 140 0
 5016 0a90 396BFFFC 		addi 11,11,-4
 5017              	.LBE6370:
 5018              	.LBE6373:
 5019              	.LBB6374:
 5020              	.LBB6375:
 5021              	.LBB6376:
 5022              		.loc 4 373 0
 5023 0a94 813F00EC 		lwz 9,236(31)
 5024              	.LBE6376:
 5025              	.LBB6377:
 5026              	.LBB6378:
 5027              		.loc 7 773 0
 5028 0a98 38830004 		addi 4,3,4
 5029              	.LBE6378:
 5030              	.LBE6377:
 5031              	.LBE6375:
 5032              	.LBE6374:
 5033              	.LBB6388:
 5034              	.LBB6371:
 5035              		.loc 8 140 0
 5036 0a9c 917F00E0 		stw 11,224(31)
 5037              	.LVL393:
 5038              	.LBE6371:
 5039              	.LBE6388:
 5040              	.LBB6389:
 5041              	.LBB6385:
 5042              		.loc 8 138 0
 5043 0aa0 7F844800 		cmpw 7,4,9
 5044 0aa4 419E001C 		beq- 7,.L300
 5045              	.LVL394:
 5046              	.LBB6379:
 5047              	.LBB6380:
 5048              	.LBB6381:
 5049              	.LBB6382:
 5050              	.LBB6383:
 5051              	.LBB6384:
 5052              		.loc 9 364 0
 5053 0aa8 7CA44850 		subf 5,4,9
 5054              	.LVL395:
 5055              		.loc 9 365 0
 5056 0aac 7CA51671 		srawi. 5,5,2
 5057              	.LVL396:
 5058 0ab0 41A20010 		beq+ 0,.L300
 5059              		.loc 9 366 0
 5060 0ab4 54A5103A 		slwi 5,5,2
 5061              	.LVL397:
 5062 0ab8 48000001 		bl memmove
 5063              	.LVL398:
 5064 0abc 813F00EC 		lwz 9,236(31)
 5065              	.LVL399:
 5066              	.L300:
 5067              	.LBE6384:
 5068              	.LBE6383:
 5069              	.LBE6382:
 5070              	.LBE6381:
 5071              	.LBE6380:
 5072              	.LBE6379:
 5073              	.LBE6385:
 5074              	.LBE6389:
 5075              	.LBB6390:
 5076              		.loc 4 373 0
 5077 0ac0 807F00F4 		lwz 3,244(31)
 5078              	.LBE6390:
 5079              	.LBB6391:
 5080              	.LBB6386:
 5081              		.loc 8 140 0
 5082 0ac4 3929FFFC 		addi 9,9,-4
 5083              	.LBE6386:
 5084              	.LBE6391:
 5085              	.LBB6392:
 5086              	.LBB6393:
 5087              	.LBB6394:
 5088              		.loc 4 373 0
 5089 0ac8 815F00F8 		lwz 10,248(31)
 5090              	.LBE6394:
 5091              	.LBB6395:
 5092              	.LBB6396:
 5093              		.loc 7 773 0
 5094 0acc 38830004 		addi 4,3,4
 5095              	.LBE6396:
 5096              	.LBE6395:
 5097              	.LBE6393:
 5098              	.LBE6392:
 5099              	.LBB6406:
 5100              	.LBB6387:
 5101              		.loc 8 140 0
 5102 0ad0 913F00EC 		stw 9,236(31)
 5103              	.LVL400:
 5104              	.LBE6387:
 5105              	.LBE6406:
 5106              	.LBB6407:
 5107              	.LBB6403:
 5108              		.loc 8 138 0
 5109 0ad4 7F845000 		cmpw 7,4,10
 5110 0ad8 419E001C 		beq- 7,.L301
 5111              	.LVL401:
 5112              	.LBB6397:
 5113              	.LBB6398:
 5114              	.LBB6399:
 5115              	.LBB6400:
 5116              	.LBB6401:
 5117              	.LBB6402:
 5118              		.loc 9 364 0
 5119 0adc 7CA45050 		subf 5,4,10
 5120              	.LVL402:
 5121              		.loc 9 365 0
 5122 0ae0 7CA51671 		srawi. 5,5,2
 5123              	.LVL403:
 5124 0ae4 41A20010 		beq+ 0,.L301
 5125              		.loc 9 366 0
 5126 0ae8 54A5103A 		slwi 5,5,2
 5127              	.LVL404:
 5128 0aec 48000001 		bl memmove
 5129              	.LVL405:
 5130 0af0 815F00F8 		lwz 10,248(31)
 5131              	.LVL406:
 5132              	.L301:
 5133              	.LBE6402:
 5134              	.LBE6401:
 5135              	.LBE6400:
 5136              	.LBE6399:
 5137              	.LBE6398:
 5138              	.LBE6397:
 5139              	.LBE6403:
 5140              	.LBE6407:
 5141              	.LBB6408:
 5142              		.loc 4 373 0
 5143 0af4 807F010C 		lwz 3,268(31)
 5144              	.LBE6408:
 5145              	.LBB6409:
 5146              	.LBB6404:
 5147              		.loc 8 140 0
 5148 0af8 394AFFFC 		addi 10,10,-4
 5149              	.LBE6404:
 5150              	.LBE6409:
 5151              	.LBB6410:
 5152              	.LBB6411:
 5153              	.LBB6412:
 5154              		.loc 4 373 0
 5155 0afc 817F0110 		lwz 11,272(31)
 5156              	.LBE6412:
 5157              	.LBB6413:
 5158              	.LBB6414:
 5159              		.loc 7 773 0
 5160 0b00 38830004 		addi 4,3,4
 5161              	.LBE6414:
 5162              	.LBE6413:
 5163              	.LBE6411:
 5164              	.LBE6410:
 5165              	.LBB6424:
 5166              	.LBB6405:
 5167              		.loc 8 140 0
 5168 0b04 915F00F8 		stw 10,248(31)
 5169              	.LVL407:
 5170              	.LBE6405:
 5171              	.LBE6424:
 5172              	.LBB6425:
 5173              	.LBB6421:
 5174              		.loc 8 138 0
 5175 0b08 7F845800 		cmpw 7,4,11
 5176 0b0c 419E001C 		beq- 7,.L302
 5177              	.LVL408:
 5178              	.LBB6415:
 5179              	.LBB6416:
 5180              	.LBB6417:
 5181              	.LBB6418:
 5182              	.LBB6419:
 5183              	.LBB6420:
 5184              		.loc 9 364 0
 5185 0b10 7CA45850 		subf 5,4,11
 5186              	.LVL409:
 5187              		.loc 9 365 0
 5188 0b14 7CA51671 		srawi. 5,5,2
 5189              	.LVL410:
 5190 0b18 41A20010 		beq+ 0,.L302
 5191              		.loc 9 366 0
 5192 0b1c 54A5103A 		slwi 5,5,2
 5193              	.LVL411:
 5194 0b20 48000001 		bl memmove
 5195              	.LVL412:
 5196 0b24 817F0110 		lwz 11,272(31)
 5197              	.LVL413:
 5198              	.L302:
 5199              	.LBE6420:
 5200              	.LBE6419:
 5201              	.LBE6418:
 5202              	.LBE6417:
 5203              	.LBE6416:
 5204              	.LBE6415:
 5205              	.LBE6421:
 5206              	.LBE6425:
 5207              	.LBB6426:
 5208              		.loc 4 373 0
 5209 0b28 807F0100 		lwz 3,256(31)
 5210              	.LBE6426:
 5211              	.LBB6427:
 5212              	.LBB6422:
 5213              		.loc 8 140 0
 5214 0b2c 396BFFFC 		addi 11,11,-4
 5215              	.LBE6422:
 5216              	.LBE6427:
 5217              	.LBB6428:
 5218              	.LBB6356:
 5219              	.LBB6347:
 5220              		.loc 4 373 0
 5221 0b30 813F0104 		lwz 9,260(31)
 5222              	.LBE6347:
 5223              	.LBB6348:
 5224              	.LBB6349:
 5225              		.loc 7 773 0
 5226 0b34 38830004 		addi 4,3,4
 5227              	.LBE6349:
 5228              	.LBE6348:
 5229              	.LBE6356:
 5230              	.LBE6428:
 5231              	.LBB6429:
 5232              	.LBB6423:
 5233              		.loc 8 140 0
 5234 0b38 917F0110 		stw 11,272(31)
 5235              	.LVL414:
 5236              	.LBE6423:
 5237              	.LBE6429:
 5238              	.LBB6430:
 5239              	.LBB6357:
 5240              		.loc 8 138 0
 5241 0b3c 7F844800 		cmpw 7,4,9
 5242 0b40 419E0020 		beq- 7,.L303
 5243              	.LVL415:
 5244              	.LBB6350:
 5245              	.LBB6351:
 5246              	.LBB6352:
 5247              	.LBB6353:
 5248              	.LBB6354:
 5249              	.LBB6355:
 5250              		.loc 9 364 0
 5251 0b44 7CA44850 		subf 5,4,9
 5252              	.LVL416:
 5253              		.loc 9 365 0
 5254 0b48 7CA51671 		srawi. 5,5,2
 5255              	.LVL417:
 5256 0b4c 41A20014 		beq+ 0,.L303
 5257              		.loc 9 366 0
 5258 0b50 54A5103A 		slwi 5,5,2
 5259              	.LVL418:
 5260 0b54 48000001 		bl memmove
 5261              	.LVL419:
 5262 0b58 813F0104 		lwz 9,260(31)
 5263 0b5c 807F0100 		lwz 3,256(31)
 5264              	.LVL420:
 5265              	.L303:
 5266              	.LBE6355:
 5267              	.LBE6354:
 5268              	.LBE6353:
 5269              	.LBE6352:
 5270              	.LBE6351:
 5271              	.LBE6350:
 5272              		.loc 8 140 0
 5273 0b60 3929FFFC 		addi 9,9,-4
 5274 0b64 913F0104 		stw 9,260(31)
 5275 0b68 7D234850 		subf 9,3,9
 5276 0b6c 7D201671 		srawi. 0,9,2
 5277 0b70 4082FE4C 		bne+ 0,.L384
 5278              	.LVL421:
 5279              	.L304:
 5280              	.LBE6357:
 5281              	.LBE6430:
 5282              	.LBE6344:
 5283              	.LBE6343:
 5284              		.loc 4 41 0
 5285 0b74 387F0150 		addi 3,31,336
 5286              	.LEHB5:
 5287 0b78 48000001 		bl _ZN10GuiTriggerD1Ev
 5288              	.LEHE5:
 5289              	.LVL422:
 5290              	.LBB6431:
 5291              		.loc 4 373 0 discriminator 1
 5292 0b7c 807F010C 		lwz 3,268(31)
 5293              	.LVL423:
 5294              	.LBB6432:
 5295              	.LBB6433:
 5296              	.LBB6434:
 5297              	.LBB6435:
 5298              	.LBB6436:
 5299              		.loc 5 155 0 discriminator 1
 5300 0b80 2F830000 		cmpwi 7,3,0
 5301 0b84 419E0008 		beq- 7,.L311
 5302              	.LVL424:
 5303              	.LBB6437:
 5304              	.LBB6438:
 5305              		.loc 10 98 0
 5306 0b88 48000001 		bl _ZdlPv
 5307              	.LVL425:
 5308              	.L311:
 5309              	.LBE6438:
 5310              	.LBE6437:
 5311              	.LBE6436:
 5312              	.LBE6435:
 5313              	.LBE6434:
 5314              	.LBE6433:
 5315              	.LBE6432:
 5316              	.LBE6431:
 5317              	.LBB6439:
 5318              		.loc 4 373 0 discriminator 1
 5319 0b8c 807F0100 		lwz 3,256(31)
 5320              	.LVL426:
 5321              	.LBB6440:
 5322              	.LBB6441:
 5323              	.LBB6442:
 5324              	.LBB6443:
 5325              	.LBB6444:
 5326              		.loc 5 155 0 discriminator 1
 5327 0b90 2F830000 		cmpwi 7,3,0
 5328 0b94 419E0008 		beq- 7,.L316
 5329              	.LVL427:
 5330              	.LBB6445:
 5331              	.LBB6446:
 5332              		.loc 10 98 0
 5333 0b98 48000001 		bl _ZdlPv
 5334              	.LVL428:
 5335              	.L316:
 5336              	.LBE6446:
 5337              	.LBE6445:
 5338              	.LBE6444:
 5339              	.LBE6443:
 5340              	.LBE6442:
 5341              	.LBE6441:
 5342              	.LBE6440:
 5343              	.LBE6439:
 5344              	.LBB6447:
 5345              		.loc 4 373 0 discriminator 1
 5346 0b9c 807F00F4 		lwz 3,244(31)
 5347              	.LVL429:
 5348              	.LBB6448:
 5349              	.LBB6449:
 5350              	.LBB6450:
 5351              	.LBB6451:
 5352              	.LBB6452:
 5353              		.loc 5 155 0 discriminator 1
 5354 0ba0 2F830000 		cmpwi 7,3,0
 5355 0ba4 419E0008 		beq- 7,.L321
 5356              	.LVL430:
 5357              	.LBB6453:
 5358              	.LBB6454:
 5359              		.loc 10 98 0
 5360 0ba8 48000001 		bl _ZdlPv
 5361              	.LVL431:
 5362              	.L321:
 5363              	.LBE6454:
 5364              	.LBE6453:
 5365              	.LBE6452:
 5366              	.LBE6451:
 5367              	.LBE6450:
 5368              	.LBE6449:
 5369              	.LBE6448:
 5370              	.LBE6447:
 5371              	.LBB6455:
 5372              		.loc 4 373 0 discriminator 1
 5373 0bac 807F00E8 		lwz 3,232(31)
 5374              	.LVL432:
 5375              	.LBB6456:
 5376              	.LBB6457:
 5377              	.LBB6458:
 5378              	.LBB6459:
 5379              	.LBB6460:
 5380              		.loc 5 155 0 discriminator 1
 5381 0bb0 2F830000 		cmpwi 7,3,0
 5382 0bb4 419E0008 		beq- 7,.L326
 5383              	.LVL433:
 5384              	.LBB6461:
 5385              	.LBB6462:
 5386              		.loc 10 98 0
 5387 0bb8 48000001 		bl _ZdlPv
 5388              	.LVL434:
 5389              	.L326:
 5390              	.LBE6462:
 5391              	.LBE6461:
 5392              	.LBE6460:
 5393              	.LBE6459:
 5394              	.LBE6458:
 5395              	.LBE6457:
 5396              	.LBE6456:
 5397              	.LBE6455:
 5398              	.LBB6463:
 5399              		.loc 4 373 0 discriminator 1
 5400 0bbc 807F00DC 		lwz 3,220(31)
 5401              	.LVL435:
 5402              	.LBB6464:
 5403              	.LBB6465:
 5404              	.LBB6466:
 5405              	.LBB6467:
 5406              	.LBB6468:
 5407              		.loc 5 155 0 discriminator 1
 5408 0bc0 2F830000 		cmpwi 7,3,0
 5409 0bc4 419E0008 		beq- 7,.L331
 5410              	.LVL436:
 5411              	.LBB6469:
 5412              	.LBB6470:
 5413              		.loc 10 98 0
 5414 0bc8 48000001 		bl _ZdlPv
 5415              	.LVL437:
 5416              	.L331:
 5417              	.LBE6470:
 5418              	.LBE6469:
 5419              	.LBE6468:
 5420              	.LBE6467:
 5421              	.LBE6466:
 5422              	.LBE6465:
 5423              	.LBE6464:
 5424              	.LBE6463:
 5425              	.LBB6471:
 5426              	.LBB6472:
 5427              	.LBB6473:
 5428              		.loc 1 516 0 discriminator 1
 5429 0bcc 3D200000 		lis 9,_ZTVN7sigslot9has_slotsINS_15single_threadedEEE+8@ha
 5430              	.LBE6473:
 5431              	.LBE6472:
 5432              	.LBE6471:
 5433              		.loc 4 41 0 discriminator 1
 5434 0bd0 3B9F00B0 		addi 28,31,176
 5435              	.LVL438:
 5436              	.LBB6557:
 5437              	.LBB6554:
 5438              	.LBB6551:
 5439              		.loc 1 516 0 discriminator 1
 5440 0bd4 38090008 		la 0,_ZTVN7sigslot9has_slotsINS_15single_threadedEEE+8@l(9)
 5441              	.LBB6474:
 5442              	.LBB6475:
 5443              	.LBB6476:
 5444              	.LBB6477:
 5445              		.loc 1 338 0 discriminator 1
 5446 0bd8 7F83E378 		mr 3,28
 5447              	.LBE6477:
 5448              	.LBE6476:
 5449              	.LBE6475:
 5450              	.LBE6474:
 5451              		.loc 1 516 0 discriminator 1
 5452 0bdc 901F00B0 		stw 0,176(31)
 5453              	.LVL439:
 5454 0be0 3BDF00B4 		addi 30,31,180
 5455              	.LEHB6:
 5456              	.LBB6529:
 5457              	.LBB6527:
 5458              	.LBB6479:
 5459              	.LBB6478:
 5460              		.loc 1 338 0 discriminator 1
 5461 0be4 48000001 		bl _ZN7sigslot15single_threaded4lockEv
 5462              	.LEHE6:
 5463              	.LVL440:
 5464              	.LBE6478:
 5465              	.LBE6479:
 5466              	.LBB6480:
 5467              		.loc 4 373 0
 5468 0be8 83DF00C0 		lwz 30,192(31)
 5469              	.LVL441:
 5470              	.LBE6480:
 5471              	.LBB6481:
 5472              	.LBB6482:
 5473              	.LBB6483:
 5474              		.loc 11 671 0
 5475 0bec 3BBF00B8 		addi 29,31,184
 5476              	.LVL442:
 5477              	.LBE6483:
 5478              	.LBE6482:
 5479              	.LBE6481:
 5480              		.loc 1 524 0
 5481 0bf0 7F9EE800 		cmpw 7,30,29
 5482 0bf4 419E0030 		beq- 7,.L332
 5483              	.LVL443:
 5484              	.L380:
 5485              		.loc 1 526 0
 5486 0bf8 807E0010 		lwz 3,16(30)
 5487 0bfc 7F84E378 		mr 4,28
 5488 0c00 81230000 		lwz 9,0(3)
 5489 0c04 80090010 		lwz 0,16(9)
 5490 0c08 7C0903A6 		mtctr 0
 5491              	.LEHB7:
 5492 0c0c 4E800421 		bctrl
 5493              	.LEHE7:
 5494              	.LVL444:
 5495              	.LBB6484:
 5496              	.LBB6485:
 5497              		.loc 11 269 0
 5498 0c10 7FC3F378 		mr 3,30
 5499 0c14 48000001 		bl _ZSt18_Rb_tree_incrementPKSt18_Rb_tree_node_base
 5500              	.LBE6485:
 5501              	.LBE6484:
 5502              		.loc 1 524 0
 5503 0c18 7F9D1800 		cmpw 7,29,3
 5504              	.LBB6487:
 5505              	.LBB6486:
 5506              		.loc 11 269 0
 5507 0c1c 7C7E1B78 		mr 30,3
 5508              	.LVL445:
 5509              	.LBE6486:
 5510              	.LBE6487:
 5511              		.loc 1 524 0
 5512 0c20 409EFFD8 		bne+ 7,.L380
 5513              	.LVL446:
 5514              	.L332:
 5515              	.LBB6488:
 5516              	.LBB6489:
 5517              		.file 12 "d:\\devkitpro\\devkitppc\\bin\\../lib/gcc/powerpc-eabi/4.6.3/../../../../powerpc-eabi/in
 5518              		.loc 12 562 0
 5519 0c24 3BDF00B4 		addi 30,31,180
 5520              	.LVL447:
 5521              	.LBB6490:
 5522              	.LBB6491:
 5523              	.LBB6492:
 5524              	.LBB6493:
 5525              	.LBB6494:
 5526              	.LBB6495:
 5527              	.LBB6496:
 5528              		.loc 11 809 0
 5529 0c28 809F00BC 		lwz 4,188(31)
 5530 0c2c 7FC3F378 		mr 3,30
 5531 0c30 48000001 		bl _ZNSt8_Rb_treeIPN7sigslot12_signal_baseINS0_15single_threadedEEES4_St9_IdentityIS4_ESt4lessIS4_
 5532              	.LVL448:
 5533              		.loc 11 811 0
 5534 0c34 38000000 		li 0,0
 5535              		.loc 11 810 0
 5536 0c38 93BF00C0 		stw 29,192(31)
 5537              	.LVL449:
 5538              	.LBE6496:
 5539              	.LBE6495:
 5540              	.LBE6494:
 5541              	.LBE6493:
 5542              	.LBE6492:
 5543              	.LBE6491:
 5544              	.LBE6490:
 5545              	.LBE6489:
 5546              	.LBE6488:
 5547              	.LBB6513:
 5548              	.LBB6514:
 5549              	.LBB6515:
 5550              		.loc 1 343 0
 5551 0c3c 7F83E378 		mr 3,28
 5552              	.LBE6515:
 5553              	.LBE6514:
 5554              	.LBE6513:
 5555              	.LBB6520:
 5556              	.LBB6511:
 5557              	.LBB6509:
 5558              	.LBB6507:
 5559              	.LBB6505:
 5560              	.LBB6503:
 5561              	.LBB6501:
 5562              	.LBB6499:
 5563              	.LBB6497:
 5564              		.loc 11 811 0
 5565 0c40 901F00BC 		stw 0,188(31)
 5566              	.LVL450:
 5567              		.loc 11 812 0
 5568 0c44 93BF00C4 		stw 29,196(31)
 5569              	.LBE6497:
 5570              	.LBE6499:
 5571              	.LBE6501:
 5572              	.LBE6503:
 5573              	.LBE6505:
 5574              	.LBE6507:
 5575              	.LBE6509:
 5576              	.LBE6511:
 5577              	.LBE6520:
 5578              	.LBB6521:
 5579              	.LBB6518:
 5580              	.LBB6516:
 5581              		.loc 1 343 0
 5582 0c48 813F00B0 		lwz 9,176(31)
 5583              	.LBE6516:
 5584              	.LBE6518:
 5585              	.LBE6521:
 5586              	.LBB6522:
 5587              	.LBB6512:
 5588              	.LBB6510:
 5589              	.LBB6508:
 5590              	.LBB6506:
 5591              	.LBB6504:
 5592              	.LBB6502:
 5593              	.LBB6500:
 5594              	.LBB6498:
 5595              		.loc 11 813 0
 5596 0c4c 901F00C8 		stw 0,200(31)
 5597              	.LVL451:
 5598              	.LBE6498:
 5599              	.LBE6500:
 5600              	.LBE6502:
 5601              	.LBE6504:
 5602              	.LBE6506:
 5603              	.LBE6508:
 5604              	.LBE6510:
 5605              	.LBE6512:
 5606              	.LBE6522:
 5607              	.LBB6523:
 5608              	.LBB6519:
 5609              	.LBB6517:
 5610              		.loc 1 343 0
 5611 0c50 8009000C 		lwz 0,12(9)
 5612 0c54 7C0903A6 		mtctr 0
 5613              	.LEHB8:
 5614 0c58 4E800421 		bctrl
 5615              	.LEHE8:
 5616              	.LVL452:
 5617              	.LBE6517:
 5618              	.LBE6519:
 5619              	.LBE6523:
 5620              	.LBE6527:
 5621              	.LBE6529:
 5622              	.LBB6530:
 5623              	.LBB6531:
 5624              	.LBB6532:
 5625              	.LBB6533:
 5626              	.LBB6534:
 5627              		.loc 11 639 0
 5628 0c5c 809F00BC 		lwz 4,188(31)
 5629 0c60 7FC3F378 		mr 3,30
 5630 0c64 48000001 		bl _ZNSt8_Rb_treeIPN7sigslot12_signal_baseINS0_15single_threadedEEES4_St9_IdentityIS4_ESt4lessIS4_
 5631              	.LBE6534:
 5632              	.LBE6533:
 5633              	.LBE6532:
 5634              	.LBE6531:
 5635              	.LBE6530:
 5636              	.LBB6535:
 5637              	.LBB6536:
 5638              	.LBB6537:
 5639              		.loc 1 105 0
 5640 0c68 3D200000 		lis 9,_ZTVN7sigslot15single_threadedE+8@ha
 5641 0c6c 38090008 		la 0,_ZTVN7sigslot15single_threadedE+8@l(9)
 5642              	.LBE6537:
 5643              	.LBE6536:
 5644              	.LBE6535:
 5645              	.LBE6551:
 5646              	.LBE6554:
 5647              	.LBE6557:
 5648              		.loc 4 41 0
 5649 0c70 7FE3FB78 		mr 3,31
 5650              	.LBB6558:
 5651              	.LBB6555:
 5652              	.LBB6552:
 5653              	.LBB6540:
 5654              	.LBB6539:
 5655              	.LBB6538:
 5656              		.loc 1 105 0
 5657 0c74 901F00B0 		stw 0,176(31)
 5658              	.LEHB9:
 5659              	.LBE6538:
 5660              	.LBE6539:
 5661              	.LBE6540:
 5662              	.LBE6552:
 5663              	.LBE6555:
 5664              	.LBE6558:
 5665              		.loc 4 41 0
 5666 0c78 48000001 		bl _ZN8GuiFrameD2Ev
 5667              	.LEHE9:
 5668              	.LBE6585:
 5669              		.loc 4 67 0
 5670 0c7c 8001001C 		lwz 0,28(1)
 5671 0c80 83810008 		lwz 28,8(1)
 5672              	.LVL453:
 5673 0c84 7C0803A6 		mtlr 0
 5674 0c88 83A1000C 		lwz 29,12(1)
 5675              	.LVL454:
 5676 0c8c 83C10010 		lwz 30,16(1)
 5677              	.LVL455:
 5678 0c90 83E10014 		lwz 31,20(1)
 5679              	.LVL456:
 5680 0c94 38210018 		addi 1,1,24
 5681              		.cfi_remember_state
 5682              	.LCFI74:
 5683              		.cfi_def_cfa_offset 0
 5684              		.cfi_restore 31
 5685              		.cfi_restore 30
 5686              		.cfi_restore 29
 5687              		.cfi_restore 28
 5688 0c98 4E800020 		blr
 5689              	.LVL457:
 5690              	.L382:
 5691              	.LCFI75:
 5692              		.cfi_restore_state
 5693 0c9c 48000000 		b .L382
 5694              	.L376:
 5695 0ca0 7C7D1B78 		mr 29,3
 5696              	.LBB6586:
 5697              		.loc 4 41 0
 5698 0ca4 387F0150 		addi 3,31,336
 5699 0ca8 48000001 		bl _ZN10GuiTriggerD1Ev
 5700              	.L359:
 5701              	.LVL458:
 5702              	.LBB6559:
 5703              		.loc 4 373 0
 5704 0cac 807F010C 		lwz 3,268(31)
 5705              	.LVL459:
 5706              	.LBB6560:
 5707              	.LBB6561:
 5708              	.LBB6562:
 5709              	.LBB6563:
 5710              	.LBB6564:
 5711              		.loc 5 155 0
 5712 0cb0 2F830000 		cmpwi 7,3,0
 5713 0cb4 419E0008 		beq- 7,.L364
 5714              	.LVL460:
 5715              	.LBB6565:
 5716              	.LBB6566:
 5717              		.loc 10 98 0
 5718 0cb8 48000001 		bl _ZdlPv
 5719              	.LVL461:
 5720              	.L364:
 5721              	.LBE6566:
 5722              	.LBE6565:
 5723              	.LBE6564:
 5724              	.LBE6563:
 5725              	.LBE6562:
 5726              	.LBE6561:
 5727              	.LBE6560:
 5728              	.LBE6559:
 5729              	.LBB6567:
 5730              		.loc 4 373 0
 5731 0cbc 807F0100 		lwz 3,256(31)
 5732              	.LVL462:
 5733              	.LBB6568:
 5734              	.LBB6569:
 5735              	.LBB6570:
 5736              	.LBB6571:
 5737              	.LBB6572:
 5738              		.loc 5 155 0
 5739 0cc0 2F830000 		cmpwi 7,3,0
 5740 0cc4 419E0008 		beq- 7,.L369
 5741              	.LVL463:
 5742              	.LBB6573:
 5743              	.LBB6574:
 5744              		.loc 10 98 0
 5745 0cc8 48000001 		bl _ZdlPv
 5746              	.LVL464:
 5747              	.L369:
 5748              	.LBE6574:
 5749              	.LBE6573:
 5750              	.LBE6572:
 5751              	.LBE6571:
 5752              	.LBE6570:
 5753              	.LBE6569:
 5754              	.LBE6568:
 5755              	.LBE6567:
 5756              	.LBB6575:
 5757              		.loc 4 373 0
 5758 0ccc 807F00F4 		lwz 3,244(31)
 5759              	.LVL465:
 5760              	.LBB6576:
 5761              	.LBB6577:
 5762              	.LBB6578:
 5763              	.LBB6579:
 5764              	.LBB6580:
 5765              		.loc 5 155 0
 5766 0cd0 2F830000 		cmpwi 7,3,0
 5767 0cd4 419E0008 		beq- 7,.L374
 5768              	.LVL466:
 5769              	.LBB6581:
 5770              	.LBB6582:
 5771              		.loc 10 98 0
 5772 0cd8 48000001 		bl _ZdlPv
 5773              	.LVL467:
 5774              	.L374:
 5775              	.LBE6582:
 5776              	.LBE6581:
 5777              	.LBE6580:
 5778              	.LBE6579:
 5779              	.LBE6578:
 5780              	.LBE6577:
 5781              	.LBE6576:
 5782              	.LBE6575:
 5783              		.loc 4 41 0
 5784 0cdc 387F00E8 		addi 3,31,232
 5785 0ce0 48000001 		bl _ZNSt6vectorIP7GuiTextSaIS1_EED1Ev
 5786 0ce4 387F00DC 		addi 3,31,220
 5787 0ce8 48000001 		bl _ZNSt6vectorIP7GuiTextSaIS1_EED1Ev
 5788 0cec 387F00B0 		addi 3,31,176
 5789 0cf0 48000001 		bl _ZN7sigslot9has_slotsINS_15single_threadedEED2Ev
 5790              	.LVL468:
 5791              	.L355:
 5792 0cf4 7FE3FB78 		mr 3,31
 5793 0cf8 48000001 		bl _ZN8GuiFrameD2Ev
 5794 0cfc 7FA3EB78 		mr 3,29
 5795              	.LEHB10:
 5796 0d00 48000001 		bl _Unwind_Resume
 5797              	.LEHE10:
 5798              	.LVL469:
 5799              	.L379:
 5800              	.LBB6583:
 5801              	.LBB6556:
 5802              	.LBB6553:
 5803              	.LBB6541:
 5804              	.LBB6528:
 5805              	.LBB6524:
 5806              	.LBB6525:
 5807              	.LBB6526:
 5808              		.loc 1 343 0
 5809 0d04 813F00B0 		lwz 9,176(31)
 5810 0d08 7C7D1B78 		mr 29,3
 5811              	.LVL470:
 5812 0d0c 7F83E378 		mr 3,28
 5813 0d10 3BDF00B4 		addi 30,31,180
 5814              	.LVL471:
 5815 0d14 8009000C 		lwz 0,12(9)
 5816 0d18 7C0903A6 		mtctr 0
 5817 0d1c 4E800421 		bctrl
 5818              	.LVL472:
 5819              	.L342:
 5820              	.LBE6526:
 5821              	.LBE6525:
 5822              	.LBE6524:
 5823              	.LBE6528:
 5824              	.LBE6541:
 5825              	.LBB6542:
 5826              	.LBB6543:
 5827              	.LBB6544:
 5828              	.LBB6545:
 5829              	.LBB6546:
 5830              	.LBB6547:
 5831              		.loc 11 639 0
 5832 0d20 809F00BC 		lwz 4,188(31)
 5833 0d24 7FC3F378 		mr 3,30
 5834 0d28 48000001 		bl _ZNSt8_Rb_treeIPN7sigslot12_signal_baseINS0_15single_threadedEEES4_St9_IdentityIS4_ESt4lessIS4_
 5835              	.LBE6547:
 5836              	.LBE6546:
 5837              	.LBE6545:
 5838              	.LBE6544:
 5839              	.LBE6543:
 5840              	.LBE6542:
 5841              	.LBB6548:
 5842              	.LBB6549:
 5843              	.LBB6550:
 5844              		.loc 1 105 0
 5845 0d2c 3D200000 		lis 9,_ZTVN7sigslot15single_threadedE+8@ha
 5846 0d30 38090008 		la 0,_ZTVN7sigslot15single_threadedE+8@l(9)
 5847 0d34 901F00B0 		stw 0,176(31)
 5848 0d38 4BFFFFBC 		b .L355
 5849              	.LVL473:
 5850              	.L378:
 5851 0d3c 7C7D1B78 		mr 29,3
 5852 0d40 4BFFFFE0 		b .L342
 5853              	.LVL474:
 5854              	.L377:
 5855 0d44 7C7D1B78 		mr 29,3
 5856 0d48 4BFFFF64 		b .L359
 5857              	.LBE6550:
 5858              	.LBE6549:
 5859              	.LBE6548:
 5860              	.LBE6553:
 5861              	.LBE6556:
 5862              	.LBE6583:
 5863              	.LBE6586:
 5864              		.cfi_endproc
 5865              	.LFE1616:
 5866              		.section	.gcc_except_table
 5867              	.LLSDA1616:
 5868 0019 FF       		.byte	0xff
 5869 001a FF       		.byte	0xff
 5870 001b 01       		.byte	0x1
 5871 001c 28       		.uleb128 .LLSDACSE1616-.LLSDACSB1616
 5872              	.LLSDACSB1616:
 5873 001d 34       		.uleb128 .LEHB4-.LFB1616
 5874 001e CC03     		.uleb128 .LEHE4-.LEHB4
 5875 0020 C008     		.uleb128 .L376-.LFB1616
 5876 0022 00       		.uleb128 0
 5877 0023 9806     		.uleb128 .LEHB5-.LFB1616
 5878 0025 04       		.uleb128 .LEHE5-.LEHB5
 5879 0026 E409     		.uleb128 .L377-.LFB1616
 5880 0028 00       		.uleb128 0
 5881 0029 8407     		.uleb128 .LEHB6-.LFB1616
 5882 002b 04       		.uleb128 .LEHE6-.LEHB6
 5883 002c DC09     		.uleb128 .L378-.LFB1616
 5884 002e 00       		.uleb128 0
 5885 002f AC07     		.uleb128 .LEHB7-.LFB1616
 5886 0031 04       		.uleb128 .LEHE7-.LEHB7
 5887 0032 A409     		.uleb128 .L379-.LFB1616
 5888 0034 00       		.uleb128 0
 5889 0035 F807     		.uleb128 .LEHB8-.LFB1616
 5890 0037 04       		.uleb128 .LEHE8-.LEHB8
 5891 0038 DC09     		.uleb128 .L378-.LFB1616
 5892 003a 00       		.uleb128 0
 5893 003b 9808     		.uleb128 .LEHB9-.LFB1616
 5894 003d 04       		.uleb128 .LEHE9-.LEHB9
 5895 003e 00       		.uleb128 0
 5896 003f 00       		.uleb128 0
 5897 0040 A009     		.uleb128 .LEHB10-.LFB1616
 5898 0042 04       		.uleb128 .LEHE10-.LEHB10
 5899 0043 00       		.uleb128 0
 5900 0044 00       		.uleb128 0
 5901              	.LLSDACSE1616:
 5902              		.section	".text"
 5903              		.size	_ZN22LanguagesSelectBrowserD2Ev, .-_ZN22LanguagesSelectBrowserD2Ev
 5904              		.align 2
 5905              		.globl _ZThn176_N22LanguagesSelectBrowserD0Ev
 5906              		.type	_ZThn176_N22LanguagesSelectBrowserD0Ev, @function
 5907              	_ZThn176_N22LanguagesSelectBrowserD0Ev:
 5908              	.LFB2785:
 5909              		.cfi_startproc
 5910 0d4c 3863FF50 		addi 3,3,-176
 5911 0d50 48000004 		b .LTHUNK1
 5912              		.cfi_endproc
 5913              	.LFE2785:
 5914              		.size	_ZThn176_N22LanguagesSelectBrowserD0Ev, .-_ZThn176_N22LanguagesSelectBrowserD0Ev
 5915              		.align 2
 5916              		.globl _ZN22LanguagesSelectBrowserD0Ev
 5917              		.type	_ZN22LanguagesSelectBrowserD0Ev, @function
 5918              	_ZN22LanguagesSelectBrowserD0Ev:
 5919              	.LFB1618:
 5920              		.loc 4 41 0
 5921              		.cfi_startproc
 5922              	.LVL475:
 5923 0d54 9421FFF0 		stwu 1,-16(1)
 5924              	.LCFI76:
 5925              		.cfi_def_cfa_offset 16
 5926 0d58 7C0802A6 		mflr 0
 5927 0d5c 93E1000C 		stw 31,12(1)
 5928 0d60 7C7F1B78 		mr 31,3
 5929              		.cfi_offset 31, -4
 5930              		.cfi_register 65, 0
 5931 0d64 90010014 		stw 0,20(1)
 5932              		.loc 4 67 0
 5933              		.cfi_offset 65, 4
 5934 0d68 48000001 		bl _ZN22LanguagesSelectBrowserD1Ev
 5935              	.LVL476:
 5936 0d6c 7FE3FB78 		mr 3,31
 5937 0d70 48000001 		bl _ZdlPv
 5938 0d74 80010014 		lwz 0,20(1)
 5939 0d78 83E1000C 		lwz 31,12(1)
 5940              	.LVL477:
 5941 0d7c 7C0803A6 		mtlr 0
 5942 0d80 38210010 		addi 1,1,16
 5943              	.LCFI77:
 5944              		.cfi_def_cfa_offset 0
 5945              		.cfi_restore 31
 5946 0d84 4E800020 		blr
 5947              		.cfi_endproc
 5948              	.LFE1618:
 5949              		.size	_ZN22LanguagesSelectBrowserD0Ev, .-_ZN22LanguagesSelectBrowserD0Ev
 5950              		.section	.text._ZN7sigslot9has_slotsINS_15single_threadedEED0Ev,"axG",@progbits,_ZN7sigslot9has_sl
 5951              		.align 2
 5952              		.weak	_ZN7sigslot9has_slotsINS_15single_threadedEED0Ev
 5953              		.type	_ZN7sigslot9has_slotsINS_15single_threadedEED0Ev, @function
 5954              	_ZN7sigslot9has_slotsINS_15single_threadedEED0Ev:
 5955              	.LFB1687:
 5956              		.loc 1 513 0
 5957              		.cfi_startproc
 5958              		.cfi_personality 0,__gxx_personality_v0
 5959              		.cfi_lsda 0,.LLSDA1687
 5960              	.LVL478:
 5961 0000 7C0802A6 		mflr 0
 5962 0004 9421FFE0 		stwu 1,-32(1)
 5963              	.LCFI78:
 5964              		.cfi_def_cfa_offset 32
 5965              		.cfi_register 65, 0
 5966              	.LBB6680:
 5967              	.LBB6681:
 5968              	.LBB6682:
 5969              		.loc 1 516 0
 5970 0008 3D200000 		lis 9,_ZTVN7sigslot9has_slotsINS_15single_threadedEEE+8@ha
 5971              	.LBE6682:
 5972              	.LBE6681:
 5973              	.LBE6680:
 5974              		.loc 1 513 0
 5975 000c 93810010 		stw 28,16(1)
 5976 0010 3B830004 		addi 28,3,4
 5977              		.cfi_offset 28, -16
 5978 0014 90010024 		stw 0,36(1)
 5979              	.LBB6766:
 5980              	.LBB6762:
 5981              	.LBB6758:
 5982              		.loc 1 516 0
 5983 0018 38090008 		la 0,_ZTVN7sigslot9has_slotsINS_15single_threadedEEE+8@l(9)
 5984              		.cfi_offset 65, 4
 5985              	.LBE6758:
 5986              	.LBE6762:
 5987              	.LBE6766:
 5988              		.loc 1 513 0
 5989 001c 93A10014 		stw 29,20(1)
 5990 0020 7C7D1B78 		mr 29,3
 5991              		.cfi_offset 29, -12
 5992              	.LVL479:
 5993 0024 93410008 		stw 26,8(1)
 5994 0028 9361000C 		stw 27,12(1)
 5995 002c 93C10018 		stw 30,24(1)
 5996 0030 93E1001C 		stw 31,28(1)
 5997              	.LBB6767:
 5998              	.LBB6763:
 5999              	.LBB6759:
 6000              		.loc 1 516 0
 6001 0034 90030000 		stw 0,0(3)
 6002              	.LVL480:
 6003              	.LEHB11:
 6004              	.LBB6683:
 6005              	.LBB6684:
 6006              	.LBB6685:
 6007              	.LBB6686:
 6008              		.loc 1 338 0
 6009              		.cfi_offset 31, -4
 6010              		.cfi_offset 30, -8
 6011              		.cfi_offset 27, -20
 6012              		.cfi_offset 26, -24
 6013 0038 48000001 		bl _ZN7sigslot15single_threaded4lockEv
 6014              	.LEHE11:
 6015              	.LVL481:
 6016              	.LBE6686:
 6017              	.LBE6685:
 6018              	.LBB6687:
 6019              		.loc 4 373 0
 6020 003c 83FD0010 		lwz 31,16(29)
 6021              	.LVL482:
 6022              	.LBE6687:
 6023              	.LBB6688:
 6024              	.LBB6689:
 6025              	.LBB6690:
 6026              		.loc 11 671 0
 6027 0040 3BDC0004 		addi 30,28,4
 6028              	.LVL483:
 6029              	.LBE6690:
 6030              	.LBE6689:
 6031              	.LBE6688:
 6032              		.loc 1 524 0
 6033 0044 7F9FF000 		cmpw 7,31,30
 6034 0048 419E0034 		beq- 7,.L388
 6035              	.LVL484:
 6036              	.L416:
 6037              		.loc 1 526 0
 6038 004c 807F0010 		lwz 3,16(31)
 6039 0050 7FA4EB78 		mr 4,29
 6040 0054 81230000 		lwz 9,0(3)
 6041 0058 80090010 		lwz 0,16(9)
 6042 005c 7C0903A6 		mtctr 0
 6043              	.LEHB12:
 6044 0060 4E800421 		bctrl
 6045              	.LEHE12:
 6046              	.LVL485:
 6047              	.LBB6691:
 6048              	.LBB6692:
 6049              		.loc 11 269 0
 6050 0064 7FE3FB78 		mr 3,31
 6051 0068 48000001 		bl _ZSt18_Rb_tree_incrementPKSt18_Rb_tree_node_base
 6052              	.LBE6692:
 6053              	.LBE6691:
 6054              		.loc 1 524 0
 6055 006c 7F9E1800 		cmpw 7,30,3
 6056              	.LBB6694:
 6057              	.LBB6693:
 6058              		.loc 11 269 0
 6059 0070 7C7F1B78 		mr 31,3
 6060              	.LVL486:
 6061              	.LBE6693:
 6062              	.LBE6694:
 6063              		.loc 1 524 0
 6064 0074 409EFFD8 		bne+ 7,.L416
 6065 0078 83FD0010 		lwz 31,16(29)
 6066              	.LVL487:
 6067              	.L388:
 6068              	.LBB6695:
 6069              	.LBB6696:
 6070              	.LBB6697:
 6071              	.LBB6698:
 6072              	.LBB6699:
 6073              	.LBB6700:
 6074              	.LBB6701:
 6075              		.loc 11 665 0
 6076 007c 3B5C0004 		addi 26,28,4
 6077              	.LBE6701:
 6078              	.LBE6700:
 6079              		.loc 11 1500 0
 6080 0080 7F9ED000 		cmpw 7,30,26
 6081 0084 419E00A0 		beq- 7,.L390
 6082              	.LVL488:
 6083              		.loc 11 1503 0
 6084 0088 7F9EF800 		cmpw 7,30,31
 6085 008c 40BE000C 		bne+ 7,.L418
 6086 0090 48000038 		b .L391
 6087              	.LVL489:
 6088              	.L413:
 6089              		.loc 11 277 0
 6090 0094 7F7FDB78 		mr 31,27
 6091              	.LVL490:
 6092              	.L418:
 6093              	.LBB6702:
 6094              	.LBB6703:
 6095 0098 7FE3FB78 		mr 3,31
 6096 009c 48000001 		bl _ZSt18_Rb_tree_incrementPKSt18_Rb_tree_node_base
 6097              	.LBE6703:
 6098              	.LBE6702:
 6099              	.LBB6705:
 6100              	.LBB6706:
 6101              	.LBB6707:
 6102              		.loc 11 1489 0
 6103 00a0 7F44D378 		mr 4,26
 6104              	.LBE6707:
 6105              	.LBE6706:
 6106              	.LBE6705:
 6107              	.LBB6716:
 6108              	.LBB6704:
 6109              		.loc 11 277 0
 6110 00a4 7C7B1B78 		mr 27,3
 6111              	.LVL491:
 6112              	.LBE6704:
 6113              	.LBE6716:
 6114              	.LBB6717:
 6115              	.LBB6714:
 6116              	.LBB6712:
 6117              		.loc 11 1489 0
 6118 00a8 7FE3FB78 		mr 3,31
 6119              	.LVL492:
 6120 00ac 48000001 		bl _ZSt28_Rb_tree_rebalance_for_erasePSt18_Rb_tree_node_baseRS_
 6121              	.LBB6708:
 6122              	.LBB6709:
 6123              	.LBB6710:
 6124              	.LBB6711:
 6125              		.loc 10 98 0
 6126 00b0 48000001 		bl _ZdlPv
 6127              	.LBE6711:
 6128              	.LBE6710:
 6129              	.LBE6709:
 6130              	.LBE6708:
 6131              	.LBE6712:
 6132              	.LBE6714:
 6133              	.LBE6717:
 6134              		.loc 11 1503 0
 6135 00b4 7F9ED800 		cmpw 7,30,27
 6136              	.LBB6718:
 6137              	.LBB6715:
 6138              	.LBB6713:
 6139              		.loc 11 1491 0
 6140 00b8 813C0014 		lwz 9,20(28)
 6141 00bc 3809FFFF 		addi 0,9,-1
 6142 00c0 901C0014 		stw 0,20(28)
 6143              	.LBE6713:
 6144              	.LBE6715:
 6145              	.LBE6718:
 6146              		.loc 11 1503 0
 6147 00c4 409EFFD0 		bne+ 7,.L413
 6148              	.LVL493:
 6149              	.L391:
 6150              	.LBE6699:
 6151              	.LBE6698:
 6152              	.LBE6697:
 6153              	.LBE6696:
 6154              	.LBE6695:
 6155              	.LBB6727:
 6156              	.LBB6728:
 6157              	.LBB6729:
 6158              		.loc 1 343 0
 6159 00c8 813D0000 		lwz 9,0(29)
 6160 00cc 7FA3EB78 		mr 3,29
 6161 00d0 8009000C 		lwz 0,12(9)
 6162 00d4 7C0903A6 		mtctr 0
 6163              	.LEHB13:
 6164 00d8 4E800421 		bctrl
 6165              	.LEHE13:
 6166              	.LVL494:
 6167              	.LBE6729:
 6168              	.LBE6728:
 6169              	.LBE6727:
 6170              	.LBE6684:
 6171              	.LBE6683:
 6172              	.LBB6736:
 6173              	.LBB6737:
 6174              	.LBB6738:
 6175              	.LBB6739:
 6176              	.LBB6740:
 6177              		.loc 11 639 0
 6178 00dc 809D000C 		lwz 4,12(29)
 6179 00e0 7F83E378 		mr 3,28
 6180 00e4 48000001 		bl _ZNSt8_Rb_treeIPN7sigslot12_signal_baseINS0_15single_threadedEEES4_St9_IdentityIS4_ESt4lessIS4_
 6181              	.LVL495:
 6182              	.LBE6740:
 6183              	.LBE6739:
 6184              	.LBE6738:
 6185              	.LBE6737:
 6186              	.LBE6736:
 6187              	.LBB6741:
 6188              	.LBB6742:
 6189              	.LBB6743:
 6190              		.loc 1 105 0
 6191 00e8 3D200000 		lis 9,_ZTVN7sigslot15single_threadedE+8@ha
 6192 00ec 38090008 		la 0,_ZTVN7sigslot15single_threadedE+8@l(9)
 6193              	.LBE6743:
 6194              	.LBE6742:
 6195              	.LBE6741:
 6196              	.LBE6759:
 6197              	.LBE6763:
 6198              	.LBE6767:
 6199              		.loc 1 516 0
 6200 00f0 7FA3EB78 		mr 3,29
 6201              	.LBB6768:
 6202              	.LBB6764:
 6203              	.LBB6760:
 6204              	.LBB6746:
 6205              	.LBB6745:
 6206              	.LBB6744:
 6207              		.loc 1 105 0
 6208 00f4 901D0000 		stw 0,0(29)
 6209              	.LBE6744:
 6210              	.LBE6745:
 6211              	.LBE6746:
 6212              	.LBE6760:
 6213              	.LBE6764:
 6214              	.LBE6768:
 6215              		.loc 1 516 0
 6216 00f8 48000001 		bl _ZdlPv
 6217 00fc 80010024 		lwz 0,36(1)
 6218 0100 83410008 		lwz 26,8(1)
 6219 0104 7C0803A6 		mtlr 0
 6220 0108 8361000C 		lwz 27,12(1)
 6221 010c 83810010 		lwz 28,16(1)
 6222              	.LVL496:
 6223 0110 83A10014 		lwz 29,20(1)
 6224              	.LVL497:
 6225 0114 83C10018 		lwz 30,24(1)
 6226              	.LVL498:
 6227 0118 83E1001C 		lwz 31,28(1)
 6228 011c 38210020 		addi 1,1,32
 6229              		.cfi_remember_state
 6230              	.LCFI79:
 6231              		.cfi_def_cfa_offset 0
 6232              		.cfi_restore 31
 6233              		.cfi_restore 30
 6234              		.cfi_restore 29
 6235              		.cfi_restore 28
 6236              		.cfi_restore 27
 6237              		.cfi_restore 26
 6238 0120 4E800020 		blr
 6239              	.LVL499:
 6240              	.L390:
 6241              	.LCFI80:
 6242              		.cfi_restore_state
 6243              	.LBB6769:
 6244              	.LBB6765:
 6245              	.LBB6761:
 6246              	.LBB6747:
 6247              	.LBB6734:
 6248              	.LBB6730:
 6249              	.LBB6726:
 6250              	.LBB6725:
 6251              	.LBB6724:
 6252              	.LBB6723:
 6253              	.LBB6719:
 6254              	.LBB6720:
 6255              	.LBB6721:
 6256              	.LBB6722:
 6257              		.loc 11 809 0
 6258 0124 809D000C 		lwz 4,12(29)
 6259 0128 7F83E378 		mr 3,28
 6260 012c 48000001 		bl _ZNSt8_Rb_treeIPN7sigslot12_signal_baseINS0_15single_threadedEEES4_St9_IdentityIS4_ESt4lessIS4_
 6261              	.LVL500:
 6262              		.loc 11 811 0
 6263 0130 38000000 		li 0,0
 6264              		.loc 11 810 0
 6265 0134 93DD0010 		stw 30,16(29)
 6266              	.LVL501:
 6267              		.loc 11 811 0
 6268 0138 901D000C 		stw 0,12(29)
 6269              	.LVL502:
 6270              		.loc 11 812 0
 6271 013c 93DD0014 		stw 30,20(29)
 6272              		.loc 11 813 0
 6273 0140 901D0018 		stw 0,24(29)
 6274 0144 4BFFFF84 		b .L391
 6275              	.LVL503:
 6276              	.L414:
 6277 0148 7C7F1B78 		mr 31,3
 6278              	.L398:
 6279              	.LVL504:
 6280              	.LBE6722:
 6281              	.LBE6721:
 6282              	.LBE6720:
 6283              	.LBE6719:
 6284              	.LBE6723:
 6285              	.LBE6724:
 6286              	.LBE6725:
 6287              	.LBE6726:
 6288              	.LBE6730:
 6289              	.LBE6734:
 6290              	.LBE6747:
 6291              	.LBB6748:
 6292              	.LBB6749:
 6293              	.LBB6750:
 6294              	.LBB6751:
 6295              	.LBB6752:
 6296              	.LBB6753:
 6297              		.loc 11 639 0
 6298 014c 809D000C 		lwz 4,12(29)
 6299 0150 7F83E378 		mr 3,28
 6300 0154 48000001 		bl _ZNSt8_Rb_treeIPN7sigslot12_signal_baseINS0_15single_threadedEEES4_St9_IdentityIS4_ESt4lessIS4_
 6301              	.LVL505:
 6302              	.LBE6753:
 6303              	.LBE6752:
 6304              	.LBE6751:
 6305              	.LBE6750:
 6306              	.LBE6749:
 6307              	.LBE6748:
 6308              	.LBB6754:
 6309              	.LBB6755:
 6310              	.LBB6756:
 6311              		.loc 1 105 0
 6312 0158 3D200000 		lis 9,_ZTVN7sigslot15single_threadedE+8@ha
 6313 015c 38090008 		la 0,_ZTVN7sigslot15single_threadedE+8@l(9)
 6314 0160 7FE3FB78 		mr 3,31
 6315 0164 901D0000 		stw 0,0(29)
 6316              	.LEHB14:
 6317 0168 48000001 		bl _Unwind_Resume
 6318              	.LEHE14:
 6319              	.LVL506:
 6320              	.L415:
 6321              	.LBE6756:
 6322              	.LBE6755:
 6323              	.LBE6754:
 6324              	.LBB6757:
 6325              	.LBB6735:
 6326              	.LBB6731:
 6327              	.LBB6732:
 6328              	.LBB6733:
 6329              		.loc 1 343 0
 6330 016c 813D0000 		lwz 9,0(29)
 6331 0170 7C7F1B78 		mr 31,3
 6332              	.LVL507:
 6333 0174 7FA3EB78 		mr 3,29
 6334 0178 8009000C 		lwz 0,12(9)
 6335 017c 7C0903A6 		mtctr 0
 6336 0180 4E800421 		bctrl
 6337 0184 4BFFFFC8 		b .L398
 6338              	.LBE6733:
 6339              	.LBE6732:
 6340              	.LBE6731:
 6341              	.LBE6735:
 6342              	.LBE6757:
 6343              	.LBE6761:
 6344              	.LBE6765:
 6345              	.LBE6769:
 6346              		.cfi_endproc
 6347              	.LFE1687:
 6348              		.section	.gcc_except_table
 6349              	.LLSDA1687:
 6350 0045 FF       		.byte	0xff
 6351 0046 FF       		.byte	0xff
 6352 0047 01       		.byte	0x1
 6353 0048 15       		.uleb128 .LLSDACSE1687-.LLSDACSB1687
 6354              	.LLSDACSB1687:
 6355 0049 38       		.uleb128 .LEHB11-.LFB1687
 6356 004a 04       		.uleb128 .LEHE11-.LEHB11
 6357 004b C802     		.uleb128 .L414-.LFB1687
 6358 004d 00       		.uleb128 0
 6359 004e 60       		.uleb128 .LEHB12-.LFB1687
 6360 004f 04       		.uleb128 .LEHE12-.LEHB12
 6361 0050 EC02     		.uleb128 .L415-.LFB1687
 6362 0052 00       		.uleb128 0
 6363 0053 D801     		.uleb128 .LEHB13-.LFB1687
 6364 0055 04       		.uleb128 .LEHE13-.LEHB13
 6365 0056 C802     		.uleb128 .L414-.LFB1687
 6366 0058 00       		.uleb128 0
 6367 0059 E802     		.uleb128 .LEHB14-.LFB1687
 6368 005b 04       		.uleb128 .LEHE14-.LEHB14
 6369 005c 00       		.uleb128 0
 6370 005d 00       		.uleb128 0
 6371              	.LLSDACSE1687:
 6372              		.section	.text._ZN7sigslot9has_slotsINS_15single_threadedEED0Ev,"axG",@progbits,_ZN7sigslot9has_sl
 6373              		.size	_ZN7sigslot9has_slotsINS_15single_threadedEED0Ev, .-_ZN7sigslot9has_slotsINS_15single_thread
 6374              		.section	.text._ZNSt6vectorIP7GuiTextSaIS1_EE14_M_fill_insertEN9__gnu_cxx17__normal_iteratorIPS1_S
 6375              		.align 2
 6376              		.weak	_ZNSt6vectorIP7GuiTextSaIS1_EE14_M_fill_insertEN9__gnu_cxx17__normal_iteratorIPS1_S3_EEjRKS1
 6377              		.type	_ZNSt6vectorIP7GuiTextSaIS1_EE14_M_fill_insertEN9__gnu_cxx17__normal_iteratorIPS1_S3_EEjRKS1
 6378              	_ZNSt6vectorIP7GuiTextSaIS1_EE14_M_fill_insertEN9__gnu_cxx17__normal_iteratorIPS1_S3_EEjRKS1_:
 6379              	.LFB2004:
 6380              		.loc 8 377 0
 6381              		.cfi_startproc
 6382              	.LVL508:
 6383 0000 9421FFD8 		stwu 1,-40(1)
 6384              	.LCFI81:
 6385              		.cfi_def_cfa_offset 40
 6386 0004 7C0802A6 		mflr 0
 6387 0008 93C10020 		stw 30,32(1)
 6388              	.LBB6880:
 6389              		.loc 8 380 0
 6390 000c 7CBE2B79 		mr. 30,5
 6391              		.cfi_offset 30, -8
 6392              		.cfi_register 65, 0
 6393              	.LBE6880:
 6394              		.loc 8 377 0
 6395 0010 9001002C 		stw 0,44(1)
 6396 0014 93A1001C 		stw 29,28(1)
 6397 0018 93E10024 		stw 31,36(1)
 6398 001c 7C7F1B78 		mr 31,3
 6399              		.cfi_offset 31, -4
 6400              		.cfi_offset 29, -12
 6401              		.cfi_offset 65, 4
 6402 0020 93410010 		stw 26,16(1)
 6403 0024 93610014 		stw 27,20(1)
 6404 0028 93810018 		stw 28,24(1)
 6405              		.loc 8 377 0
 6406 002c 83A40000 		lwz 29,0(4)
 6407              	.LBB7177:
 6408              		.loc 8 380 0
 6409 0030 41820088 		beq- 0,.L420
 6410              		.cfi_offset 28, -16
 6411              		.cfi_offset 27, -20
 6412              		.cfi_offset 26, -24
 6413              	.LBB6881:
 6414              		.loc 8 382 0
 6415 0034 83630004 		lwz 27,4(3)
 6416 0038 80030008 		lwz 0,8(3)
 6417 003c 7C1B0050 		subf 0,27,0
 6418 0040 7C001670 		srawi 0,0,2
 6419 0044 7F9E0040 		cmplw 7,30,0
 6420 0048 419D0098 		bgt- 7,.L422
 6421              	.LBB6882:
 6422              	.LBB6883:
 6423              	.LBB6884:
 6424              		.loc 7 892 0
 6425 004c 7C1DD850 		subf 0,29,27
 6426              	.LBE6884:
 6427              	.LBE6883:
 6428              		.loc 8 385 0
 6429 0050 83860000 		lwz 28,0(6)
 6430              	.LVL509:
 6431              	.LBB6886:
 6432              	.LBB6885:
 6433              		.loc 7 892 0
 6434 0054 7C001670 		srawi 0,0,2
 6435              	.LVL510:
 6436              	.LBE6885:
 6437              	.LBE6886:
 6438              		.loc 8 388 0
 6439 0058 7F9E0040 		cmplw 7,30,0
 6440 005c 419C0218 		blt- 7,.L450
 6441              	.LVL511:
 6442              	.LBB6887:
 6443              	.LBB6888:
 6444              	.LBB6889:
 6445              	.LBB6890:
 6446              	.LBB6891:
 6447              	.LBB6892:
 6448              	.LBB6893:
 6449              	.LBB6894:
 6450              		.loc 9 743 0
 6451 0060 7FC0F051 		subf. 30,0,30
 6452              		.loc 8 382 0
 6453 0064 7F69DB78 		mr 9,27
 6454              		.loc 9 743 0
 6455 0068 41820018 		beq- 0,.L427
 6456              	.LBE6894:
 6457              	.LBE6893:
 6458              	.LBE6892:
 6459              	.LBE6891:
 6460              	.LBE6890:
 6461              	.LBE6889:
 6462              	.LBE6888:
 6463              	.LBE6887:
 6464              	.LBB6902:
 6465              	.LBB6903:
 6466              	.LBB6904:
 6467              	.LBB6905:
 6468              	.LBB6906:
 6469              	.LBB6907:
 6470              	.LBB6908:
 6471              	.LBB6909:
 6472              	.LBB6910:
 6473              	.LBB6911:
 6474              	.LBB6912:
 6475              		.loc 8 377 0
 6476 006c 7FC903A6 		mtctr 30
 6477              	.LBE6912:
 6478              	.LBE6911:
 6479              	.LBE6910:
 6480              	.LBE6909:
 6481              	.LBE6908:
 6482              	.LBE6907:
 6483              	.LBE6906:
 6484              	.LBE6905:
 6485              	.LBE6904:
 6486              	.LBE6903:
 6487              	.LBE6902:
 6488              	.LBB6923:
 6489              	.LBB6901:
 6490              	.LBB6900:
 6491              	.LBB6899:
 6492              	.LBB6898:
 6493              	.LBB6897:
 6494              	.LBB6896:
 6495              	.LBB6895:
 6496 0070 393BFFFC 		addi 9,27,-4
 6497              	.LVL512:
 6498              	.L428:
 6499              		.loc 9 745 0
 6500 0074 97890004 		stwu 28,4(9)
 6501              		.loc 9 743 0
 6502 0078 4200FFFC 		bdnz .L428
 6503 007c 813F0004 		lwz 9,4(31)
 6504              	.L427:
 6505              	.LBE6895:
 6506              	.LBE6896:
 6507              	.LBE6897:
 6508              	.LBE6898:
 6509              	.LBE6899:
 6510              	.LBE6900:
 6511              	.LBE6901:
 6512              	.LBE6923:
 6513              	.LBB6924:
 6514              	.LBB6925:
 6515              	.LBB6926:
 6516              	.LBB6927:
 6517              	.LBB6928:
 6518              	.LBB6929:
 6519              	.LBB6930:
 6520              	.LBB6931:
 6521              	.LBB6932:
 6522              	.LBB6933:
 6523              	.LBB6934:
 6524              		.loc 9 365 0
 6525 0080 2F800000 		cmpwi 7,0,0
 6526              	.LBE6934:
 6527              	.LBE6933:
 6528              	.LBE6932:
 6529              	.LBE6931:
 6530              	.LBE6930:
 6531              	.LBE6929:
 6532              	.LBE6928:
 6533              	.LBE6927:
 6534              	.LBE6926:
 6535              	.LBE6925:
 6536              	.LBE6924:
 6537              		.loc 8 406 0
 6538 0084 57DE103A 		slwi 30,30,2
 6539 0088 7C69F214 		add 3,9,30
 6540              	.LVL513:
 6541 008c 907F0004 		stw 3,4(31)
 6542              	.LVL514:
 6543              	.LBB6955:
 6544              	.LBB6953:
 6545              	.LBB6951:
 6546              	.LBB6949:
 6547              	.LBB6947:
 6548              	.LBB6945:
 6549              	.LBB6943:
 6550              	.LBB6941:
 6551              	.LBB6939:
 6552              	.LBB6937:
 6553              	.LBB6935:
 6554              		.loc 9 365 0
 6555 0090 409E01CC 		bne- 7,.L429
 6556 0094 3BC00000 		li 30,0
 6557              	.LVL515:
 6558              	.L430:
 6559              	.LBE6935:
 6560              	.LBE6937:
 6561              	.LBE6939:
 6562              	.LBE6941:
 6563              	.LBE6943:
 6564              	.LBE6945:
 6565              	.LBE6947:
 6566              	.LBE6949:
 6567              	.LBE6951:
 6568              	.LBE6953:
 6569              	.LBE6955:
 6570              	.LBB6956:
 6571              	.LBB6957:
 6572              	.LBB6958:
 6573              		.loc 9 686 0
 6574 0098 7F9BE800 		cmpw 7,27,29
 6575              	.LBE6958:
 6576              	.LBE6957:
 6577              	.LBE6956:
 6578              		.loc 8 410 0
 6579 009c 7C63F214 		add 3,3,30
 6580 00a0 907F0004 		stw 3,4(31)
 6581              	.LVL516:
 6582              	.LBB6961:
 6583              	.LBB6960:
 6584              	.LBB6959:
 6585              		.loc 9 686 0
 6586 00a4 419E0014 		beq- 7,.L420
 6587              	.LVL517:
 6588              	.L431:
 6589              		.loc 9 687 0
 6590 00a8 939D0000 		stw 28,0(29)
 6591 00ac 3BBD0004 		addi 29,29,4
 6592              		.loc 9 686 0
 6593 00b0 7F9BE800 		cmpw 7,27,29
 6594 00b4 409EFFF4 		bne+ 7,.L431
 6595              	.LVL518:
 6596              	.L420:
 6597              	.LBE6959:
 6598              	.LBE6960:
 6599              	.LBE6961:
 6600              	.LBE6882:
 6601              	.LBE6881:
 6602              	.LBE7177:
 6603              		.loc 8 464 0
 6604 00b8 8001002C 		lwz 0,44(1)
 6605 00bc 83410010 		lwz 26,16(1)
 6606 00c0 7C0803A6 		mtlr 0
 6607 00c4 83610014 		lwz 27,20(1)
 6608 00c8 83810018 		lwz 28,24(1)
 6609 00cc 83A1001C 		lwz 29,28(1)
 6610 00d0 83C10020 		lwz 30,32(1)
 6611 00d4 83E10024 		lwz 31,36(1)
 6612              	.LVL519:
 6613 00d8 38210028 		addi 1,1,40
 6614              		.cfi_remember_state
 6615              	.LCFI82:
 6616              		.cfi_def_cfa_offset 0
 6617              		.cfi_restore 31
 6618              		.cfi_restore 30
 6619              		.cfi_restore 29
 6620              		.cfi_restore 28
 6621              		.cfi_restore 27
 6622              		.cfi_restore 26
 6623 00dc 4E800020 		blr
 6624              	.LVL520:
 6625              	.L422:
 6626              	.LCFI83:
 6627              		.cfi_restore_state
 6628              	.LBB7178:
 6629              	.LBB7173:
 6630              	.LBB6991:
 6631              	.LBB6992:
 6632              	.LBB6993:
 6633              	.LBB6994:
 6634              	.LBB6995:
 6635              		.loc 5 571 0
 6636 00e0 81230000 		lwz 9,0(3)
 6637              	.LBE6995:
 6638              	.LBE6994:
 6639              		.loc 5 1241 0
 6640 00e4 3D603FFF 		lis 11,0x3fff
 6641 00e8 616BFFFF 		ori 11,11,65535
 6642              	.LBB6997:
 6643              	.LBB6996:
 6644              		.loc 5 571 0
 6645 00ec 7F69D850 		subf 27,9,27
 6646 00f0 7F601670 		srawi 0,27,2
 6647              	.LBE6996:
 6648              	.LBE6997:
 6649              		.loc 5 1241 0
 6650 00f4 7D605850 		subf 11,0,11
 6651 00f8 7F9E5840 		cmplw 7,30,11
 6652 00fc 419D01E8 		bgt- 7,.L451
 6653              	.LVL521:
 6654              		.loc 5 1244 0
 6655 0100 7F80F040 		cmplw 7,0,30
 6656 0104 7C0B0378 		mr 11,0
 6657 0108 419C00CC 		blt- 7,.L452
 6658 010c 7D6B0214 		add 11,11,0
 6659              	.LVL522:
 6660              		.loc 5 1245 0
 6661 0110 7F805840 		cmplw 7,0,11
 6662 0114 409D00D0 		ble- 7,.L453
 6663              	.L434:
 6664              	.LVL523:
 6665              	.LBE6993:
 6666              	.LBE6992:
 6667              	.LBB7000:
 6668              	.LBB7001:
 6669              		.loc 7 892 0
 6670 0118 7F69E850 		subf 27,9,29
 6671              	.LBE7001:
 6672              	.LBE7000:
 6673              		.loc 8 418 0
 6674 011c 3B40FFFC 		li 26,-4
 6675              	.LBB7004:
 6676              	.LBB7002:
 6677              		.loc 7 892 0
 6678 0120 7F7B1670 		srawi 27,27,2
 6679              	.LVL524:
 6680              	.L440:
 6681              	.LBE7002:
 6682              	.LBE7004:
 6683              	.LBB7005:
 6684              	.LBB7006:
 6685              	.LBB7007:
 6686              	.LBB7008:
 6687              		.loc 10 92 0
 6688 0124 7F43D378 		mr 3,26
 6689              	.LVL525:
 6690 0128 90C10008 		stw 6,8(1)
 6691 012c 48000001 		bl _Znwj
 6692              	.LVL526:
 6693 0130 80C10008 		lwz 6,8(1)
 6694 0134 7C7C1B78 		mr 28,3
 6695              	.L435:
 6696              	.LVL527:
 6697              	.LBE7008:
 6698              	.LBE7007:
 6699              	.LBE7006:
 6700              	.LBE7005:
 6701              		.loc 8 424 0
 6702 0138 577B103A 		slwi 27,27,2
 6703              	.LVL528:
 6704              	.LBB7017:
 6705              	.LBB7013:
 6706              	.LBB7011:
 6707              	.LBB7009:
 6708              		.loc 4 373 0
 6709 013c 80060000 		lwz 0,0(6)
 6710              	.LVL529:
 6711              	.LBE7009:
 6712              	.LBE7011:
 6713              	.LBE7013:
 6714              	.LBE7017:
 6715              		.loc 8 424 0
 6716 0140 7F7CDA14 		add 27,28,27
 6717              	.LBB7018:
 6718              	.LBB7014:
 6719              		.loc 8 377 0
 6720 0144 7FC903A6 		mtctr 30
 6721              	.LBB7012:
 6722              	.LBB7010:
 6723 0148 3B7BFFFC 		addi 27,27,-4
 6724              	.LVL530:
 6725              	.L436:
 6726              	.LBE7010:
 6727              	.LBE7012:
 6728              	.LBE7014:
 6729              	.LBE7018:
 6730              	.LBB7019:
 6731              	.LBB7020:
 6732              	.LBB7021:
 6733              	.LBB7022:
 6734              	.LBB7023:
 6735              	.LBB7024:
 6736              	.LBB7025:
 6737              	.LBB7026:
 6738              		.loc 9 745 0
 6739 014c 941B0004 		stwu 0,4(27)
 6740              		.loc 9 743 0
 6741 0150 4200FFFC 		bdnz .L436
 6742              	.LVL531:
 6743              	.LBE7026:
 6744              	.LBE7025:
 6745              	.LBE7024:
 6746              	.LBE7023:
 6747              	.LBE7022:
 6748              	.LBE7021:
 6749              	.LBE7020:
 6750              	.LBE7019:
 6751              		.loc 8 429 0
 6752 0154 809F0000 		lwz 4,0(31)
 6753              	.LVL532:
 6754              	.LBB7027:
 6755              	.LBB7028:
 6756              	.LBB7029:
 6757              	.LBB7030:
 6758              	.LBB7031:
 6759              	.LBB7032:
 6760              	.LBB7033:
 6761              	.LBB7034:
 6762              	.LBB7035:
 6763              	.LBB7036:
 6764              	.LBB7037:
 6765              		.loc 9 365 0
 6766 0158 3B600000 		li 27,0
 6767              		.loc 9 364 0
 6768 015c 7C04E850 		subf 0,4,29
 6769              	.LVL533:
 6770              		.loc 9 365 0
 6771 0160 7C001671 		srawi. 0,0,2
 6772              	.LVL534:
 6773 0164 408200B0 		bne- 0,.L454
 6774              	.LBE7037:
 6775              	.LBE7036:
 6776              	.LBE7035:
 6777              	.LBE7034:
 6778              	.LBE7033:
 6779              	.LBE7032:
 6780              	.LBE7031:
 6781              	.LBE7030:
 6782              	.LBE7029:
 6783              	.LBE7028:
 6784              	.LBE7027:
 6785              	.LBB7078:
 6786              	.LBB7079:
 6787              	.LBB7080:
 6788              	.LBB7081:
 6789              	.LBB7082:
 6790              	.LBB7083:
 6791              	.LBB7084:
 6792              	.LBB7085:
 6793              	.LBB7086:
 6794              	.LBB7087:
 6795              	.LBB7088:
 6796              		.loc 9 364 0
 6797 0168 801F0004 		lwz 0,4(31)
 6798              	.LVL535:
 6799              	.LBE7088:
 6800              	.LBE7087:
 6801              	.LBE7086:
 6802              	.LBE7085:
 6803              	.LBE7084:
 6804              	.LBE7083:
 6805              	.LBE7082:
 6806              	.LBE7081:
 6807              	.LBE7080:
 6808              	.LBE7079:
 6809              	.LBE7078:
 6810              	.LBB7149:
 6811              	.LBB7074:
 6812              	.LBB7070:
 6813              	.LBB7066:
 6814              	.LBB7062:
 6815              	.LBB7058:
 6816              	.LBB7054:
 6817              	.LBB7050:
 6818              	.LBB7046:
 6819              	.LBB7042:
 6820              	.LBB7038:
 6821              		.loc 9 367 0
 6822 016c 7F7CDA14 		add 27,28,27
 6823              	.LVL536:
 6824              	.LBE7038:
 6825              	.LBE7042:
 6826              	.LBE7046:
 6827              	.LBE7050:
 6828              	.LBE7054:
 6829              	.LBE7058:
 6830              	.LBE7062:
 6831              	.LBE7066:
 6832              	.LBE7070:
 6833              	.LBE7074:
 6834              	.LBE7149:
 6835              		.loc 8 434 0
 6836 0170 57DE103A 		slwi 30,30,2
 6837              	.LVL537:
 6838              	.LBB7150:
 6839              	.LBB7143:
 6840              	.LBB7137:
 6841              	.LBB7131:
 6842              	.LBB7125:
 6843              	.LBB7119:
 6844              	.LBB7113:
 6845              	.LBB7107:
 6846              	.LBB7101:
 6847              	.LBB7095:
 6848              	.LBB7089:
 6849              		.loc 9 364 0
 6850 0174 7C1D0050 		subf 0,29,0
 6851              	.LBE7089:
 6852              	.LBE7095:
 6853              	.LBE7101:
 6854              	.LBE7107:
 6855              	.LBE7113:
 6856              	.LBE7119:
 6857              	.LBE7125:
 6858              	.LBE7131:
 6859              	.LBE7137:
 6860              	.LBE7143:
 6861              	.LBE7150:
 6862              		.loc 8 434 0
 6863 0178 7FDBF214 		add 30,27,30
 6864              	.LVL538:
 6865              	.LBB7151:
 6866              	.LBB7144:
 6867              	.LBB7138:
 6868              	.LBB7132:
 6869              	.LBB7126:
 6870              	.LBB7120:
 6871              	.LBB7114:
 6872              	.LBB7108:
 6873              	.LBB7102:
 6874              	.LBB7096:
 6875              	.LBB7090:
 6876              		.loc 9 365 0
 6877 017c 7C001671 		srawi. 0,0,2
 6878              	.LVL539:
 6879 0180 3B600000 		li 27,0
 6880 0184 408200C0 		bne- 0,.L455
 6881              	.LVL540:
 6882              	.L438:
 6883              	.LBE7090:
 6884              	.LBE7096:
 6885              	.LBE7102:
 6886              	.LBE7108:
 6887              	.LBE7114:
 6888              	.LBE7120:
 6889              	.LBE7126:
 6890              	.LBE7132:
 6891              	.LBE7138:
 6892              	.LBE7144:
 6893              	.LBE7151:
 6894              		.loc 8 456 0
 6895 0188 807F0000 		lwz 3,0(31)
 6896              	.LBB7152:
 6897              	.LBB7145:
 6898              	.LBB7139:
 6899              	.LBB7133:
 6900              	.LBB7127:
 6901              	.LBB7121:
 6902              	.LBB7115:
 6903              	.LBB7109:
 6904              	.LBB7103:
 6905              	.LBB7097:
 6906              	.LBB7091:
 6907              		.loc 9 367 0
 6908 018c 7F7EDA14 		add 27,30,27
 6909              	.LVL541:
 6910              	.LBE7091:
 6911              	.LBE7097:
 6912              	.LBE7103:
 6913              	.LBE7109:
 6914              	.LBE7115:
 6915              	.LBE7121:
 6916              	.LBE7127:
 6917              	.LBE7133:
 6918              	.LBE7139:
 6919              	.LBE7145:
 6920              	.LBE7152:
 6921              	.LBB7153:
 6922              	.LBB7154:
 6923              		.loc 5 155 0
 6924 0190 2F830000 		cmpwi 7,3,0
 6925 0194 419E0008 		beq- 7,.L439
 6926              	.LVL542:
 6927              	.LBB7155:
 6928              	.LBB7156:
 6929              		.loc 10 98 0
 6930 0198 48000001 		bl _ZdlPv
 6931              	.LVL543:
 6932              	.L439:
 6933              	.LBE7156:
 6934              	.LBE7155:
 6935              	.LBE7154:
 6936              	.LBE7153:
 6937              	.LBE6991:
 6938              	.LBE7173:
 6939              	.LBE7178:
 6940              		.loc 8 464 0
 6941 019c 8001002C 		lwz 0,44(1)
 6942              	.LBB7179:
 6943              	.LBB7174:
 6944              	.LBB7168:
 6945              		.loc 8 461 0
 6946 01a0 7F5CD214 		add 26,28,26
 6947              		.loc 8 459 0
 6948 01a4 939F0000 		stw 28,0(31)
 6949              	.LBE7168:
 6950              	.LBE7174:
 6951              	.LBE7179:
 6952              		.loc 8 464 0
 6953 01a8 7C0803A6 		mtlr 0
 6954              	.LBB7180:
 6955              	.LBB7175:
 6956              	.LBB7169:
 6957              		.loc 8 460 0
 6958 01ac 937F0004 		stw 27,4(31)
 6959              		.loc 8 461 0
 6960 01b0 935F0008 		stw 26,8(31)
 6961              	.LBE7169:
 6962              	.LBE7175:
 6963              	.LBE7180:
 6964              		.loc 8 464 0
 6965 01b4 83610014 		lwz 27,20(1)
 6966 01b8 83410010 		lwz 26,16(1)
 6967 01bc 83810018 		lwz 28,24(1)
 6968              	.LVL544:
 6969 01c0 83A1001C 		lwz 29,28(1)
 6970              	.LVL545:
 6971 01c4 83C10020 		lwz 30,32(1)
 6972              	.LVL546:
 6973 01c8 83E10024 		lwz 31,36(1)
 6974              	.LVL547:
 6975 01cc 38210028 		addi 1,1,40
 6976              		.cfi_remember_state
 6977              		.cfi_restore 26
 6978              		.cfi_restore 27
 6979              		.cfi_restore 28
