	.file	"ListFileBrowser.cpp"
	.section	".text"
.Ltext0:
	.section	.text._ZN7sigslot15single_threadedD2Ev,"axG",@progbits,_ZN7sigslot15single_threadedD5Ev,comdat
	.align 2
	.weak	_ZN7sigslot15single_threadedD2Ev
	.type	_ZN7sigslot15single_threadedD2Ev, @function
_ZN7sigslot15single_threadedD2Ev:
.LFB1148:
	.file 1 "d:/Projects/SaveGameManager/savegame-manager-gx/trunk/source/Files/../GUI/../sigslot.h"
	.loc 1 104 0
	.cfi_startproc
.LVL0:
.LBB4733:
	.loc 1 105 0
	lis 9,_ZTVN7sigslot15single_threadedE+8@ha
.LBE4733:
	.loc 1 107 0
.LBB4734:
	.loc 1 105 0
	la 0,_ZTVN7sigslot15single_threadedE+8@l(9)
	stw 0,0(3)
.LBE4734:
	.loc 1 107 0
	blr
	.cfi_endproc
.LFE1148:
	.size	_ZN7sigslot15single_threadedD2Ev, .-_ZN7sigslot15single_threadedD2Ev
	.section	.text._ZN7sigslot15single_threaded4lockEv,"axG",@progbits,_ZN7sigslot15single_threaded4lockEv,comdat
	.align 2
	.weak	_ZN7sigslot15single_threaded4lockEv
	.type	_ZN7sigslot15single_threaded4lockEv, @function
_ZN7sigslot15single_threaded4lockEv:
.LFB1151:
	.loc 1 109 0
	.cfi_startproc
.LVL1:
	.loc 1 112 0
	blr
	.cfi_endproc
.LFE1151:
	.size	_ZN7sigslot15single_threaded4lockEv, .-_ZN7sigslot15single_threaded4lockEv
	.section	.text._ZN7sigslot15single_threaded6unlockEv,"axG",@progbits,_ZN7sigslot15single_threaded6unlockEv,comdat
	.align 2
	.weak	_ZN7sigslot15single_threaded6unlockEv
	.type	_ZN7sigslot15single_threaded6unlockEv, @function
_ZN7sigslot15single_threaded6unlockEv:
.LFB1152:
	.loc 1 114 0
	.cfi_startproc
.LVL2:
	.loc 1 117 0
	blr
	.cfi_endproc
.LFE1152:
	.size	_ZN7sigslot15single_threaded6unlockEv, .-_ZN7sigslot15single_threaded6unlockEv
	.section	.text._ZN10GuiElement9SetParentEPS_,"axG",@progbits,_ZN10GuiElement9SetParentEPS_,comdat
	.align 2
	.weak	_ZN10GuiElement9SetParentEPS_
	.type	_ZN10GuiElement9SetParentEPS_, @function
_ZN10GuiElement9SetParentEPS_:
.LFB1384:
	.file 2 "d:/Projects/SaveGameManager/savegame-manager-gx/trunk/source/Files/../GUI/gui_element.h"
	.loc 2 92 0
	.cfi_startproc
.LVL3:
	.loc 2 92 0
	stw 4,96(3)
	blr
	.cfi_endproc
.LFE1384:
	.size	_ZN10GuiElement9SetParentEPS_, .-_ZN10GuiElement9SetParentEPS_
	.section	.text._ZN10GuiElement9GetParentEv,"axG",@progbits,_ZN10GuiElement9GetParentEv,comdat
	.align 2
	.weak	_ZN10GuiElement9GetParentEv
	.type	_ZN10GuiElement9GetParentEv, @function
_ZN10GuiElement9GetParentEv:
.LFB1385:
	.loc 2 95 0
	.cfi_startproc
.LVL4:
	.loc 2 95 0
	lwz 3,96(3)
.LVL5:
	blr
	.cfi_endproc
.LFE1385:
	.size	_ZN10GuiElement9GetParentEv, .-_ZN10GuiElement9GetParentEv
	.section	.text._ZN10GuiElement12GetZPositionEv,"axG",@progbits,_ZN10GuiElement12GetZPositionEv,comdat
	.align 2
	.weak	_ZN10GuiElement12GetZPositionEv
	.type	_ZN10GuiElement12GetZPositionEv, @function
_ZN10GuiElement12GetZPositionEv:
.LFB1386:
	.loc 2 106 0
	.cfi_startproc
.LVL6:
	mflr 0
	stwu 1,-16(1)
.LCFI0:
	.cfi_def_cfa_offset 16
	.cfi_register 65, 0
	stw 31,12(1)
	mr 31,3
	.cfi_offset 31, -4
	stw 0,20(1)
.LBB4735:
	.loc 2 110 0
	lwz 11,96(3)
	.loc 2 108 0
	li 3,0
.LVL7:
	.loc 2 110 0
	cmpwi 7,11,0
	beq- 7,.L8
	.cfi_offset 65, 4
	.loc 2 111 0
	lwz 9,0(11)
	mr 3,11
	lwz 0,24(9)
	mtctr 0
	bctrl
.LVL8:
.L8:
	.loc 2 113 0
	lwz 0,52(31)
.LBE4735:
	.loc 2 114 0
	lwz 31,12(1)
.LVL9:
	add 3,3,0
.LVL10:
	lwz 0,20(1)
	addi 1,1,16
.LCFI1:
	.cfi_def_cfa_offset 0
	.cfi_restore 31
	mtlr 0
	blr
	.cfi_endproc
.LFE1386:
	.size	_ZN10GuiElement12GetZPositionEv, .-_ZN10GuiElement12GetZPositionEv
	.section	.text._ZN10GuiElement10GetLeftPosEv,"axG",@progbits,_ZN10GuiElement10GetLeftPosEv,comdat
	.align 2
	.weak	_ZN10GuiElement10GetLeftPosEv
	.type	_ZN10GuiElement10GetLeftPosEv, @function
_ZN10GuiElement10GetLeftPosEv:
.LFB1387:
	.loc 2 116 0
	.cfi_startproc
.LVL11:
	.loc 2 116 0
	lwz 3,44(3)
.LVL12:
	blr
	.cfi_endproc
.LFE1387:
	.size	_ZN10GuiElement10GetLeftPosEv, .-_ZN10GuiElement10GetLeftPosEv
	.section	.text._ZN10GuiElement9GetTopPosEv,"axG",@progbits,_ZN10GuiElement9GetTopPosEv,comdat
	.align 2
	.weak	_ZN10GuiElement9GetTopPosEv
	.type	_ZN10GuiElement9GetTopPosEv, @function
_ZN10GuiElement9GetTopPosEv:
.LFB1388:
	.loc 2 118 0
	.cfi_startproc
.LVL13:
	.loc 2 118 0
	lwz 3,48(3)
.LVL14:
	blr
	.cfi_endproc
.LFE1388:
	.size	_ZN10GuiElement9GetTopPosEv, .-_ZN10GuiElement9GetTopPosEv
	.section	.text._ZN10GuiElement8GetWidthEv,"axG",@progbits,_ZN10GuiElement8GetWidthEv,comdat
	.align 2
	.weak	_ZN10GuiElement8GetWidthEv
	.type	_ZN10GuiElement8GetWidthEv, @function
_ZN10GuiElement8GetWidthEv:
.LFB1389:
	.loc 2 121 0
	.cfi_startproc
.LVL15:
	.loc 2 121 0
	lwz 3,36(3)
.LVL16:
	blr
	.cfi_endproc
.LFE1389:
	.size	_ZN10GuiElement8GetWidthEv, .-_ZN10GuiElement8GetWidthEv
	.section	.text._ZN10GuiElement9GetHeightEv,"axG",@progbits,_ZN10GuiElement9GetHeightEv,comdat
	.align 2
	.weak	_ZN10GuiElement9GetHeightEv
	.type	_ZN10GuiElement9GetHeightEv, @function
_ZN10GuiElement9GetHeightEv:
.LFB1390:
	.loc 2 124 0
	.cfi_startproc
.LVL17:
	.loc 2 124 0
	lwz 3,40(3)
.LVL18:
	blr
	.cfi_endproc
.LFE1390:
	.size	_ZN10GuiElement9GetHeightEv, .-_ZN10GuiElement9GetHeightEv
	.section	.text._ZN10GuiElement7SetSizeEii,"axG",@progbits,_ZN10GuiElement7SetSizeEii,comdat
	.align 2
	.weak	_ZN10GuiElement7SetSizeEii
	.type	_ZN10GuiElement7SetSizeEii, @function
_ZN10GuiElement7SetSizeEii:
.LFB1391:
	.loc 2 128 0
	.cfi_startproc
.LVL19:
	.loc 2 130 0
	stw 4,36(3)
	.loc 2 132 0
	.loc 2 131 0
	stw 5,40(3)
	.loc 2 132 0
	blr
	.cfi_endproc
.LFE1391:
	.size	_ZN10GuiElement7SetSizeEii, .-_ZN10GuiElement7SetSizeEii
	.section	.text._ZN10GuiElement10SetVisibleEb,"axG",@progbits,_ZN10GuiElement10SetVisibleEb,comdat
	.align 2
	.weak	_ZN10GuiElement10SetVisibleEb
	.type	_ZN10GuiElement10SetVisibleEb, @function
_ZN10GuiElement10SetVisibleEb:
.LFB1392:
	.loc 2 135 0
	.cfi_startproc
	.cfi_personality 0,__gxx_personality_v0
	.cfi_lsda 0,.LLSDA1392
.LVL20:
	mflr 0
	stwu 1,-32(1)
.LCFI2:
	.cfi_def_cfa_offset 32
	.cfi_register 65, 0
	stw 27,12(1)
.LBB4736:
.LBB4737:
	.loc 1 2270 0
	addi 27,3,4
	.cfi_offset 27, -20
.LBE4737:
.LBE4736:
	.loc 2 135 0
	stw 0,36(1)
	stw 30,24(1)
	mr 30,3
	.cfi_offset 30, -8
	.cfi_offset 65, 4
.LBB4760:
.LBB4754:
.LBB4738:
.LBB4739:
	.loc 1 338 0
	lwz 9,4(3)
	mr 3,27
.LVL21:
.LBE4739:
.LBE4738:
.LBE4754:
.LBE4760:
	.loc 2 135 0
	stw 28,16(1)
	mr 28,4
	.cfi_offset 28, -16
.LBB4761:
.LBB4755:
.LBB4743:
.LBB4740:
	.loc 1 338 0
	lwz 0,8(9)
.LBE4740:
.LBE4743:
.LBE4755:
.LBE4761:
	.loc 2 135 0
	stw 29,20(1)
.LBB4762:
	.file 3 "d:/Projects/SaveGameManager/savegame-manager-gx/trunk/source/Files/ListFileBrowser.cpp"
	.loc 3 412 0
	mr 29,30
	.cfi_offset 29, -12
.LBE4762:
	.loc 2 135 0
	stw 31,28(1)
.LBB4763:
.LBB4756:
.LBB4744:
.LBB4741:
	.loc 1 338 0
	mtctr 0
.LBE4741:
.LBE4744:
.LBE4756:
.LBE4763:
	.loc 2 137 0
	stb 4,29(30)
.LVL22:
.LEHB0:
.LBB4764:
.LBB4757:
.LBB4745:
.LBB4742:
	.loc 1 338 0
	.cfi_offset 31, -4
	bctrl
.LEHE0:
.LVL23:
.LBE4742:
.LBE4745:
.LBE4757:
	.loc 3 412 0
	lwzu 31,8(29)
.LVL24:
.LBB4758:
	.loc 1 2274 0
	cmpw 7,31,29
	beq- 7,.L17
.LVL25:
.L24:
	.loc 1 2279 0
	lwz 3,8(31)
	mr 4,30
	mr 5,28
.LBB4746:
.LBB4747:
	.file 4 "d:\\devkitpro\\devkitppc\\bin\\../lib/gcc/powerpc-eabi/4.6.3/../../../../powerpc-eabi/include/c++/4.6.3/bits/stl_list.h"
	.loc 4 234 0
	lwz 31,0(31)
.LVL26:
.LBE4747:
.LBE4746:
	.loc 1 2279 0
	lwz 9,0(3)
	lwz 0,12(9)
	mtctr 0
.LEHB1:
	bctrl
.LEHE1:
.LVL27:
	.loc 1 2274 0
	cmpw 7,29,31
	bne+ 7,.L24
.LVL28:
.L17:
.LBB4748:
.LBB4749:
.LBB4750:
	.loc 1 343 0
	lwz 9,4(30)
	mr 3,27
	lwz 0,12(9)
	mtctr 0
.LEHB2:
	bctrl
.LEHE2:
.LBE4750:
.LBE4749:
.LBE4748:
.LBE4758:
.LBE4764:
	.loc 2 139 0
	lwz 0,36(1)
	lwz 27,12(1)
.LVL29:
	mtlr 0
	lwz 28,16(1)
.LVL30:
	lwz 29,20(1)
	lwz 30,24(1)
.LVL31:
	lwz 31,28(1)
.LVL32:
	addi 1,1,32
	.cfi_remember_state
.LCFI3:
	.cfi_def_cfa_offset 0
	.cfi_restore 31
	.cfi_restore 30
	.cfi_restore 29
	.cfi_restore 28
	.cfi_restore 27
	blr
.LVL33:
.L23:
.LCFI4:
	.cfi_restore_state
.LBB4765:
.LBB4759:
.LBB4751:
.LBB4752:
.LBB4753:
	.loc 1 343 0
	lwz 9,4(30)
	mr 31,3
.LVL34:
	mr 3,27
	lwz 0,12(9)
	mtctr 0
	bctrl
	mr 3,31
.LEHB3:
	bl _Unwind_Resume
.LEHE3:
.LBE4753:
.LBE4752:
.LBE4751:
.LBE4759:
.LBE4765:
	.cfi_endproc
.LFE1392:
	.globl __gxx_personality_v0
	.section	.gcc_except_table,"a",@progbits
.LLSDA1392:
	.byte	0xff
	.byte	0xff
	.byte	0x1
	.uleb128 .LLSDACSE1392-.LLSDACSB1392
.LLSDACSB1392:
	.uleb128 .LEHB0-.LFB1392
	.uleb128 .LEHE0-.LEHB0
	.uleb128 0
	.uleb128 0
	.uleb128 .LEHB1-.LFB1392
	.uleb128 .LEHE1-.LEHB1
	.uleb128 .L23-.LFB1392
	.uleb128 0
	.uleb128 .LEHB2-.LFB1392
	.uleb128 .LEHE2-.LEHB2
	.uleb128 0
	.uleb128 0
	.uleb128 .LEHB3-.LFB1392
	.uleb128 .LEHE3-.LEHB3
	.uleb128 0
	.uleb128 0
.LLSDACSE1392:
	.section	.text._ZN10GuiElement10SetVisibleEb,"axG",@progbits,_ZN10GuiElement10SetVisibleEb,comdat
	.size	_ZN10GuiElement10SetVisibleEb, .-_ZN10GuiElement10SetVisibleEb
	.section	.text._ZN10GuiElement9IsVisibleEv,"axG",@progbits,_ZN10GuiElement9IsVisibleEv,comdat
	.align 2
	.weak	_ZN10GuiElement9IsVisibleEv
	.type	_ZN10GuiElement9IsVisibleEv, @function
_ZN10GuiElement9IsVisibleEv:
.LFB1393:
	.loc 2 142 0
	.cfi_startproc
.LVL35:
	.loc 2 142 0
	lbz 3,29(3)
.LVL36:
	blr
	.cfi_endproc
.LFE1393:
	.size	_ZN10GuiElement9IsVisibleEv, .-_ZN10GuiElement9IsVisibleEv
	.section	.text._ZN10GuiElement12IsSelectableEv,"axG",@progbits,_ZN10GuiElement12IsSelectableEv,comdat
	.align 2
	.weak	_ZN10GuiElement12IsSelectableEv
	.type	_ZN10GuiElement12IsSelectableEv, @function
_ZN10GuiElement12IsSelectableEv:
.LFB1394:
	.loc 2 145 0
	.cfi_startproc
.LVL37:
	.loc 2 149 0
	lwz 0,72(3)
	li 9,0
	cmpwi 7,0,4
	beq- 7,.L27
	.loc 2 149 0 is_stmt 0 discriminator 1
	cmpwi 7,0,2
	beq- 7,.L27
	.loc 2 149 0 discriminator 3
	lbz 9,30(3)
.L27:
	.loc 2 150 0 is_stmt 1 discriminator 5
	mr 3,9
.LVL38:
	blr
	.cfi_endproc
.LFE1394:
	.size	_ZN10GuiElement12IsSelectableEv, .-_ZN10GuiElement12IsSelectableEv
	.section	.text._ZN10GuiElement11IsClickableEv,"axG",@progbits,_ZN10GuiElement11IsClickableEv,comdat
	.align 2
	.weak	_ZN10GuiElement11IsClickableEv
	.type	_ZN10GuiElement11IsClickableEv, @function
_ZN10GuiElement11IsClickableEv:
.LFB1395:
	.loc 2 153 0
	.cfi_startproc
.LVL39:
	.loc 2 158 0
	lwz 0,72(3)
	li 9,0
	cmpwi 7,0,4
	beq- 7,.L31
	.loc 2 158 0 is_stmt 0 discriminator 1
	cmpwi 7,0,2
	beq- 7,.L31
	.loc 2 158 0 discriminator 3
	cmpwi 7,0,3
	beq- 7,.L31
	.loc 2 158 0 discriminator 4
	lbz 9,31(3)
.L31:
	.loc 2 159 0 is_stmt 1 discriminator 6
	mr 3,9
.LVL40:
	blr
	.cfi_endproc
.LFE1395:
	.size	_ZN10GuiElement11IsClickableEv, .-_ZN10GuiElement11IsClickableEv
	.section	.text._ZN10GuiElement10IsHoldableEv,"axG",@progbits,_ZN10GuiElement10IsHoldableEv,comdat
	.align 2
	.weak	_ZN10GuiElement10IsHoldableEv
	.type	_ZN10GuiElement10IsHoldableEv, @function
_ZN10GuiElement10IsHoldableEv:
.LFB1396:
	.loc 2 162 0
	.cfi_startproc
.LVL41:
	.loc 2 162 0
	lwz 9,72(3)
	li 0,0
	cmpwi 7,9,4
	beq- 7,.L36
	.loc 2 162 0 is_stmt 0 discriminator 1
	lbz 0,32(3)
.L36:
	.loc 2 162 0 discriminator 4
	mr 3,0
.LVL42:
	blr
	.cfi_endproc
.LFE1396:
	.size	_ZN10GuiElement10IsHoldableEv, .-_ZN10GuiElement10IsHoldableEv
	.section	.text._ZN10GuiElement13SetSelectableEb,"axG",@progbits,_ZN10GuiElement13SetSelectableEb,comdat
	.align 2
	.weak	_ZN10GuiElement13SetSelectableEb
	.type	_ZN10GuiElement13SetSelectableEb, @function
_ZN10GuiElement13SetSelectableEb:
.LFB1397:
	.loc 2 165 0 is_stmt 1
	.cfi_startproc
.LVL43:
	.loc 2 165 0
	stb 4,30(3)
	blr
	.cfi_endproc
.LFE1397:
	.size	_ZN10GuiElement13SetSelectableEb, .-_ZN10GuiElement13SetSelectableEb
	.section	.text._ZN10GuiElement12SetClickableEb,"axG",@progbits,_ZN10GuiElement12SetClickableEb,comdat
	.align 2
	.weak	_ZN10GuiElement12SetClickableEb
	.type	_ZN10GuiElement12SetClickableEb, @function
_ZN10GuiElement12SetClickableEb:
.LFB1398:
	.loc 2 168 0
	.cfi_startproc
.LVL44:
	.loc 2 168 0
	stb 4,31(3)
	blr
	.cfi_endproc
.LFE1398:
	.size	_ZN10GuiElement12SetClickableEb, .-_ZN10GuiElement12SetClickableEb
	.section	.text._ZN10GuiElement11SetHoldableEb,"axG",@progbits,_ZN10GuiElement11SetHoldableEb,comdat
	.align 2
	.weak	_ZN10GuiElement11SetHoldableEb
	.type	_ZN10GuiElement11SetHoldableEb, @function
_ZN10GuiElement11SetHoldableEb:
.LFB1399:
	.loc 2 171 0
	.cfi_startproc
.LVL45:
	.loc 2 171 0
	stb 4,32(3)
	blr
	.cfi_endproc
.LFE1399:
	.size	_ZN10GuiElement11SetHoldableEb, .-_ZN10GuiElement11SetHoldableEb
	.section	.text._ZN10GuiElement8GetStateEv,"axG",@progbits,_ZN10GuiElement8GetStateEv,comdat
	.align 2
	.weak	_ZN10GuiElement8GetStateEv
	.type	_ZN10GuiElement8GetStateEv, @function
_ZN10GuiElement8GetStateEv:
.LFB1400:
	.loc 2 178 0
	.cfi_startproc
.LVL46:
	.loc 2 178 0
	lwz 3,72(3)
.LVL47:
	blr
	.cfi_endproc
.LFE1400:
	.size	_ZN10GuiElement8GetStateEv, .-_ZN10GuiElement8GetStateEv
	.section	.text._ZN10GuiElement12GetStateChanEv,"axG",@progbits,_ZN10GuiElement12GetStateChanEv,comdat
	.align 2
	.weak	_ZN10GuiElement12GetStateChanEv
	.type	_ZN10GuiElement12GetStateChanEv, @function
_ZN10GuiElement12GetStateChanEv:
.LFB1401:
	.loc 2 181 0
	.cfi_startproc
.LVL48:
	.loc 2 181 0
	lwz 3,76(3)
.LVL49:
	blr
	.cfi_endproc
.LFE1401:
	.size	_ZN10GuiElement12GetStateChanEv, .-_ZN10GuiElement12GetStateChanEv
	.section	.text._ZN10GuiElement8SetAlphaEi,"axG",@progbits,_ZN10GuiElement8SetAlphaEi,comdat
	.align 2
	.weak	_ZN10GuiElement8SetAlphaEi
	.type	_ZN10GuiElement8SetAlphaEi, @function
_ZN10GuiElement8SetAlphaEi:
.LFB1403:
	.loc 2 190 0
	.cfi_startproc
.LVL50:
	.loc 2 190 0
	stw 4,56(3)
	blr
	.cfi_endproc
.LFE1403:
	.size	_ZN10GuiElement8SetAlphaEi, .-_ZN10GuiElement8SetAlphaEi
	.section	.text._ZN10GuiElement8GetAlphaEv,"axG",@progbits,_ZN10GuiElement8GetAlphaEv,comdat
	.align 2
	.weak	_ZN10GuiElement8GetAlphaEv
	.type	_ZN10GuiElement8GetAlphaEv, @function
_ZN10GuiElement8GetAlphaEv:
.LFB1404:
	.loc 2 194 0
	.cfi_startproc
.LVL51:
	mflr 0
	stwu 1,-40(1)
.LCFI5:
	.cfi_def_cfa_offset 40
	.cfi_register 65, 0
	stw 31,36(1)
	stw 0,44(1)
.LBB4766:
	.loc 2 198 0
	lwz 31,108(3)
	.cfi_offset 65, 4
	.cfi_offset 31, -4
	cmpwi 7,31,0
	blt- 7,.L47
.L45:
.LVL52:
	.loc 2 203 0
	lwz 3,96(3)
.LVL53:
	cmpwi 7,3,0
	beq- 7,.L46
	.loc 2 204 0
	lwz 9,0(3)
	xoris 31,31,0x8000
.LVL54:
	lwz 0,100(9)
	mtctr 0
	bctrl
	lis 0,0x4330
	xoris 3,3,0x8000
	stw 0,16(1)
	stw 3,20(1)
	lis 9,.LC1@ha
	lfs 0,.LC1@l(9)
	lis 9,.LC2@ha
	lfd 13,16(1)
	lfs 12,.LC2@l(9)
	addi 9,1,24
	fsub 13,13,0
	stw 31,12(1)
	stw 0,8(1)
	frsp 13,13
	fdivs 13,13,12
	lfd 12,8(1)
	fsub 0,12,0
	frsp 0,0
	fmuls 0,0,13
	fctiwz 0,0
	stfiwx 0,0,9
	lwz 31,24(1)
.LVL55:
.L46:
.LBE4766:
	.loc 2 207 0
	lwz 0,44(1)
	mr 3,31
	lwz 31,36(1)
.LVL56:
	mtlr 0
	addi 1,1,40
	.cfi_remember_state
.LCFI6:
	.cfi_def_cfa_offset 0
	.cfi_restore 31
	blr
.LVL57:
.L47:
.LCFI7:
	.cfi_restore_state
.LBB4767:
	.loc 2 201 0
	lwz 31,56(3)
.LVL58:
	b .L45
.LBE4767:
	.cfi_endproc
.LFE1404:
	.size	_ZN10GuiElement8GetAlphaEv, .-_ZN10GuiElement8GetAlphaEv
	.section	.text._ZN10GuiElement8SetScaleEf,"axG",@progbits,_ZN10GuiElement8SetScaleEf,comdat
	.align 2
	.weak	_ZN10GuiElement8SetScaleEf
	.type	_ZN10GuiElement8SetScaleEf, @function
_ZN10GuiElement8SetScaleEf:
.LFB1405:
	.loc 2 210 0
	.cfi_startproc
.LVL59:
	.loc 2 212 0
	stfs 1,60(3)
	.loc 2 214 0
	.loc 2 213 0
	stfs 1,64(3)
	.loc 2 214 0
	blr
	.cfi_endproc
.LFE1405:
	.size	_ZN10GuiElement8SetScaleEf, .-_ZN10GuiElement8SetScaleEf
	.section	.text._ZN10GuiElement9SetScaleXEf,"axG",@progbits,_ZN10GuiElement9SetScaleXEf,comdat
	.align 2
	.weak	_ZN10GuiElement9SetScaleXEf
	.type	_ZN10GuiElement9SetScaleXEf, @function
_ZN10GuiElement9SetScaleXEf:
.LFB1406:
	.loc 2 217 0
	.cfi_startproc
.LVL60:
	.loc 2 217 0
	stfs 1,60(3)
	blr
	.cfi_endproc
.LFE1406:
	.size	_ZN10GuiElement9SetScaleXEf, .-_ZN10GuiElement9SetScaleXEf
	.section	.text._ZN10GuiElement9SetScaleYEf,"axG",@progbits,_ZN10GuiElement9SetScaleYEf,comdat
	.align 2
	.weak	_ZN10GuiElement9SetScaleYEf
	.type	_ZN10GuiElement9SetScaleYEf, @function
_ZN10GuiElement9SetScaleYEf:
.LFB1407:
	.loc 2 220 0
	.cfi_startproc
.LVL61:
	.loc 2 220 0
	stfs 1,64(3)
	blr
	.cfi_endproc
.LFE1407:
	.size	_ZN10GuiElement9SetScaleYEf, .-_ZN10GuiElement9SetScaleYEf
	.section	.text._ZN10GuiElement8GetScaleEv,"axG",@progbits,_ZN10GuiElement8GetScaleEv,comdat
	.align 2
	.weak	_ZN10GuiElement8GetScaleEv
	.type	_ZN10GuiElement8GetScaleEv, @function
_ZN10GuiElement8GetScaleEv:
.LFB1408:
	.loc 2 223 0
	.cfi_startproc
.LVL62:
	mflr 0
	stwu 1,-16(1)
.LCFI8:
	.cfi_def_cfa_offset 16
	.cfi_register 65, 0
.LBB4768:
	.loc 2 225 0
	lis 9,.LC3@ha
.LBE4768:
	.loc 2 223 0
	stfd 31,8(1)
	stw 0,20(1)
.LBB4769:
	.loc 2 225 0
	lfs 0,64(3)
	lfs 31,60(3)
	.cfi_offset 65, 4
	.cfi_offset 63, -8
	.loc 2 227 0
	lwz 11,96(3)
	.loc 2 225 0
	fadds 31,31,0
	lfs 0,.LC3@l(9)
	.loc 2 227 0
	cmpwi 7,11,0
	.loc 2 225 0
	fmuls 31,31,0
	lfs 0,112(3)
	fmuls 31,31,0
.LVL63:
	.loc 2 227 0
	beq- 7,.L52
	.loc 2 228 0
	lwz 9,0(11)
	mr 3,11
.LVL64:
	lwz 0,116(9)
	mtctr 0
	bctrl
	fmuls 31,31,1
.LVL65:
.L52:
.LBE4769:
	.loc 2 231 0
	lwz 0,20(1)
	fmr 1,31
	lfd 31,8(1)
.LVL66:
	mtlr 0
	addi 1,1,16
.LCFI9:
	.cfi_def_cfa_offset 0
	.cfi_restore 63
	blr
	.cfi_endproc
.LFE1408:
	.size	_ZN10GuiElement8GetScaleEv, .-_ZN10GuiElement8GetScaleEv
	.section	.text._ZN10GuiElement9GetScaleXEv,"axG",@progbits,_ZN10GuiElement9GetScaleXEv,comdat
	.align 2
	.weak	_ZN10GuiElement9GetScaleXEv
	.type	_ZN10GuiElement9GetScaleXEv, @function
_ZN10GuiElement9GetScaleXEv:
.LFB1409:
	.loc 2 234 0
	.cfi_startproc
.LVL67:
	mflr 0
	stwu 1,-16(1)
.LCFI10:
	.cfi_def_cfa_offset 16
	.cfi_register 65, 0
	stfd 31,8(1)
	stw 0,20(1)
.LBB4770:
	.loc 2 238 0
	lwz 11,96(3)
	.loc 2 236 0
	lfs 31,60(3)
	.cfi_offset 65, 4
	.cfi_offset 63, -8
	.loc 2 238 0
	cmpwi 7,11,0
	.loc 2 236 0
	lfs 0,112(3)
	fmuls 31,31,0
.LVL68:
	.loc 2 238 0
	beq- 7,.L54
	.loc 2 239 0
	lwz 9,0(11)
	mr 3,11
.LVL69:
	lwz 0,120(9)
	mtctr 0
	bctrl
	fmuls 31,31,1
.LVL70:
.L54:
.LBE4770:
	.loc 2 242 0
	lwz 0,20(1)
	fmr 1,31
	lfd 31,8(1)
.LVL71:
	mtlr 0
	addi 1,1,16
.LCFI11:
	.cfi_def_cfa_offset 0
	.cfi_restore 63
	blr
	.cfi_endproc
.LFE1409:
	.size	_ZN10GuiElement9GetScaleXEv, .-_ZN10GuiElement9GetScaleXEv
	.section	.text._ZN10GuiElement9GetScaleYEv,"axG",@progbits,_ZN10GuiElement9GetScaleYEv,comdat
	.align 2
	.weak	_ZN10GuiElement9GetScaleYEv
	.type	_ZN10GuiElement9GetScaleYEv, @function
_ZN10GuiElement9GetScaleYEv:
.LFB1410:
	.loc 2 245 0
	.cfi_startproc
.LVL72:
	mflr 0
	stwu 1,-16(1)
.LCFI12:
	.cfi_def_cfa_offset 16
	.cfi_register 65, 0
	stfd 31,8(1)
	stw 0,20(1)
.LBB4771:
	.loc 2 249 0
	lwz 11,96(3)
	.loc 2 247 0
	lfs 31,64(3)
	.cfi_offset 65, 4
	.cfi_offset 63, -8
	.loc 2 249 0
	cmpwi 7,11,0
	.loc 2 247 0
	lfs 0,112(3)
	fmuls 31,31,0
.LVL73:
	.loc 2 249 0
	beq- 7,.L56
	.loc 2 250 0
	lwz 9,0(11)
	mr 3,11
.LVL74:
	lwz 0,124(9)
	mtctr 0
	bctrl
	fmuls 31,31,1
.LVL75:
.L56:
.LBE4771:
	.loc 2 253 0
	lwz 0,20(1)
	fmr 1,31
	lfd 31,8(1)
.LVL76:
	mtlr 0
	addi 1,1,16
.LCFI13:
	.cfi_def_cfa_offset 0
	.cfi_restore 63
	blr
	.cfi_endproc
.LFE1410:
	.size	_ZN10GuiElement9GetScaleYEv, .-_ZN10GuiElement9GetScaleYEv
	.section	.text._ZN10GuiElement6RumbleEv,"axG",@progbits,_ZN10GuiElement6RumbleEv,comdat
	.align 2
	.weak	_ZN10GuiElement6RumbleEv
	.type	_ZN10GuiElement6RumbleEv, @function
_ZN10GuiElement6RumbleEv:
.LFB1411:
	.loc 2 256 0
	.cfi_startproc
.LVL77:
	.loc 2 256 0
	lbz 3,28(3)
.LVL78:
	blr
	.cfi_endproc
.LFE1411:
	.size	_ZN10GuiElement6RumbleEv, .-_ZN10GuiElement6RumbleEv
	.section	.text._ZN10GuiElement9SetRumbleEb,"axG",@progbits,_ZN10GuiElement9SetRumbleEb,comdat
	.align 2
	.weak	_ZN10GuiElement9SetRumbleEb
	.type	_ZN10GuiElement9SetRumbleEb, @function
_ZN10GuiElement9SetRumbleEb:
.LFB1412:
	.loc 2 259 0
	.cfi_startproc
.LVL79:
	.loc 2 259 0
	stb 4,28(3)
	blr
	.cfi_endproc
.LFE1412:
	.size	_ZN10GuiElement9SetRumbleEb, .-_ZN10GuiElement9SetRumbleEb
	.section	.text._ZN10GuiElement13SetEffectGrowEv,"axG",@progbits,_ZN10GuiElement13SetEffectGrowEv,comdat
	.align 2
	.weak	_ZN10GuiElement13SetEffectGrowEv
	.type	_ZN10GuiElement13SetEffectGrowEv, @function
_ZN10GuiElement13SetEffectGrowEv:
.LFB1413:
	.loc 2 271 0
	.cfi_startproc
.LVL80:
	mflr 0
	stwu 1,-8(1)
.LCFI14:
	.cfi_def_cfa_offset 8
	.cfi_register 65, 0
	lwz 9,0(3)
	li 4,256
	li 5,4
	li 6,110
	stw 0,12(1)
	.loc 2 271 0
	lwz 0,140(9)
	.cfi_offset 65, 4
	mtctr 0
	bctrl
.LVL81:
	lwz 0,12(1)
	addi 1,1,8
.LCFI15:
	.cfi_def_cfa_offset 0
	mtlr 0
	blr
	.cfi_endproc
.LFE1413:
	.size	_ZN10GuiElement13SetEffectGrowEv, .-_ZN10GuiElement13SetEffectGrowEv
	.section	.text._ZNK10GuiElement9GetEffectEv,"axG",@progbits,_ZNK10GuiElement9GetEffectEv,comdat
	.align 2
	.weak	_ZNK10GuiElement9GetEffectEv
	.type	_ZNK10GuiElement9GetEffectEv, @function
_ZNK10GuiElement9GetEffectEv:
.LFB1414:
	.loc 2 276 0
	.cfi_startproc
.LVL82:
	.loc 2 276 0
	lwz 3,120(3)
.LVL83:
	blr
	.cfi_endproc
.LFE1414:
	.size	_ZNK10GuiElement9GetEffectEv, .-_ZNK10GuiElement9GetEffectEv
	.section	.text._ZNK10GuiElement10IsAnimatedEv,"axG",@progbits,_ZNK10GuiElement10IsAnimatedEv,comdat
	.align 2
	.weak	_ZNK10GuiElement10IsAnimatedEv
	.type	_ZNK10GuiElement10IsAnimatedEv, @function
_ZNK10GuiElement10IsAnimatedEv:
.LFB1415:
	.loc 2 278 0
	.cfi_startproc
.LVL84:
	mflr 0
	stwu 1,-8(1)
.LCFI16:
	.cfi_def_cfa_offset 8
	.cfi_register 65, 0
	stw 0,12(1)
	.loc 2 278 0
	lwz 9,0(3)
	lwz 0,152(9)
	.cfi_offset 65, 4
	mtctr 0
	bctrl
.LVL85:
	srawi 0,3,31
	subf 3,3,0
	lwz 0,12(1)
	srwi 3,3,31
	mtlr 0
	addi 1,1,8
.LCFI17:
	.cfi_def_cfa_offset 0
	blr
	.cfi_endproc
.LFE1415:
	.size	_ZNK10GuiElement10IsAnimatedEv, .-_ZNK10GuiElement10IsAnimatedEv
	.section	.text._ZN10GuiElement9SetBoundsE4RectIiE,"axG",@progbits,_ZN10GuiElement9SetBoundsE4RectIiE,comdat
	.align 2
	.weak	_ZN10GuiElement9SetBoundsE4RectIiE
	.type	_ZN10GuiElement9SetBoundsE4RectIiE, @function
_ZN10GuiElement9SetBoundsE4RectIiE:
.LFB1416:
	.loc 2 280 0
	.cfi_startproc
.LVL86:
.LBB4772:
.LBB4773:
	.file 5 "d:/Projects/SaveGameManager/savegame-manager-gx/trunk/source/Files/../GUI/../Tools/Rect.h"
	.loc 5 30 0
	lwz 10,0(4)
.LBE4773:
.LBE4772:
	.loc 2 280 0
.LBB4775:
.LBB4774:
	.loc 5 31 0
	lwz 11,8(4)
	.loc 5 32 0
	lwz 9,4(4)
	.loc 5 33 0
	lwz 0,12(4)
.LVL87:
	.loc 5 30 0
	stw 10,80(3)
	.loc 5 31 0
	stw 11,88(3)
	.loc 5 32 0
	stw 9,84(3)
	.loc 5 33 0
	stw 0,92(3)
.LBE4774:
.LBE4775:
	.loc 2 280 0
	blr
	.cfi_endproc
.LFE1416:
	.size	_ZN10GuiElement9SetBoundsE4RectIiE, .-_ZN10GuiElement9SetBoundsE4RectIiE
	.section	.text._ZN10GuiElement8IsInsideEii,"axG",@progbits,_ZN10GuiElement8IsInsideEii,comdat
	.align 2
	.weak	_ZN10GuiElement8IsInsideEii
	.type	_ZN10GuiElement8IsInsideEii, @function
_ZN10GuiElement8IsInsideEii:
.LFB1417:
	.loc 2 285 0
	.cfi_startproc
.LVL88:
	mflr 0
	stwu 1,-24(1)
.LCFI18:
	.cfi_def_cfa_offset 24
	.cfi_register 65, 0
	stw 28,8(1)
	mr 28,5
	.cfi_offset 28, -16
	stw 0,28(1)
	stw 29,12(1)
	.loc 2 290 0
	li 29,0
	.cfi_offset 29, -12
	.cfi_offset 65, 4
	.loc 2 287 0
	lwz 9,0(3)
	.loc 2 285 0
	stw 30,16(1)
	mr 30,4
	.cfi_offset 30, -8
	.loc 2 287 0
	lwz 0,16(9)
	.loc 2 285 0
	stw 31,20(1)
	.loc 2 285 0
	mr 31,3
	.cfi_offset 31, -4
	.loc 2 287 0
	mtctr 0
	bctrl
.LVL89:
	.loc 2 290 0
	cmpw 7,3,30
	blt- 7,.L68
.L64:
	.loc 2 291 0 discriminator 6
	lwz 0,28(1)
	mr 3,29
	lwz 28,8(1)
.LVL90:
	mtlr 0
	lwz 29,12(1)
	lwz 30,16(1)
.LVL91:
	lwz 31,20(1)
.LVL92:
	addi 1,1,24
	.cfi_remember_state
.LCFI19:
	.cfi_def_cfa_offset 0
	.cfi_restore 31
	.cfi_restore 30
	.cfi_restore 29
	.cfi_restore 28
	blr
.LVL93:
.L68:
.LCFI20:
	.cfi_restore_state
	.loc 2 288 0 discriminator 1
	lwz 9,0(31)
	mr 3,31
	lwz 0,16(9)
	mtctr 0
	bctrl
	.loc 2 290 0 discriminator 1
	lwz 0,36(31)
	add 0,3,0
	cmpw 7,30,0
	bge+ 7,.L64
	.loc 2 289 0 discriminator 3
	lwz 9,0(31)
	mr 3,31
	lwz 0,20(9)
	mtctr 0
	bctrl
	.loc 2 290 0 discriminator 3
	cmpw 7,3,28
	bge+ 7,.L64
	.loc 2 290 0 is_stmt 0 discriminator 4
	lwz 9,0(31)
	mr 3,31
	lwz 0,20(9)
	mtctr 0
	bctrl
	lwz 0,40(31)
	add 0,3,0
	.loc 2 285 0 is_stmt 1 discriminator 4
	cmpw 7,28,0
	mfcr 29
	rlwinm 29,29,29,1
	b .L64
	.cfi_endproc
.LFE1417:
	.size	_ZN10GuiElement8IsInsideEii, .-_ZN10GuiElement8IsInsideEii
	.section	.text._ZN10GuiElement11SetPositionEii,"axG",@progbits,_ZN10GuiElement11SetPositionEii,comdat
	.align 2
	.weak	_ZN10GuiElement11SetPositionEii
	.type	_ZN10GuiElement11SetPositionEii, @function
_ZN10GuiElement11SetPositionEii:
.LFB1418:
	.loc 2 295 0
	.cfi_startproc
.LVL94:
	.loc 2 297 0
	stw 4,44(3)
	.loc 2 299 0
	.loc 2 298 0
	stw 5,48(3)
	.loc 2 299 0
	blr
	.cfi_endproc
.LFE1418:
	.size	_ZN10GuiElement11SetPositionEii, .-_ZN10GuiElement11SetPositionEii
	.section	.text._ZN10GuiElement11SetPositionEiii,"axG",@progbits,_ZN10GuiElement11SetPositionEiii,comdat
	.align 2
	.weak	_ZN10GuiElement11SetPositionEiii
	.type	_ZN10GuiElement11SetPositionEiii, @function
_ZN10GuiElement11SetPositionEiii:
.LFB1419:
	.loc 2 304 0
	.cfi_startproc
.LVL95:
	.loc 2 306 0
	stw 4,44(3)
	.loc 2 309 0
	.loc 2 307 0
	stw 5,48(3)
	.loc 2 308 0
	stw 6,52(3)
	.loc 2 309 0
	blr
	.cfi_endproc
.LFE1419:
	.size	_ZN10GuiElement11SetPositionEiii, .-_ZN10GuiElement11SetPositionEiii
	.section	.text._ZN10GuiElement11GetSelectedEv,"axG",@progbits,_ZN10GuiElement11GetSelectedEv,comdat
	.align 2
	.weak	_ZN10GuiElement11GetSelectedEv
	.type	_ZN10GuiElement11GetSelectedEv, @function
_ZN10GuiElement11GetSelectedEv:
.LFB1420:
	.loc 2 312 0
	.cfi_startproc
.LVL96:
	.loc 2 312 0
	li 3,-1
.LVL97:
	blr
	.cfi_endproc
.LFE1420:
	.size	_ZN10GuiElement11GetSelectedEv, .-_ZN10GuiElement11GetSelectedEv
	.section	.text._ZN10GuiElement12SetAlignmentEi,"axG",@progbits,_ZN10GuiElement12SetAlignmentEi,comdat
	.align 2
	.weak	_ZN10GuiElement12SetAlignmentEi
	.type	_ZN10GuiElement12SetAlignmentEi, @function
_ZN10GuiElement12SetAlignmentEi:
.LFB1421:
	.loc 2 316 0
	.cfi_startproc
.LVL98:
	.loc 2 316 0
	stw 4,68(3)
	blr
	.cfi_endproc
.LFE1421:
	.size	_ZN10GuiElement12SetAlignmentEi, .-_ZN10GuiElement12SetAlignmentEi
	.section	.text._ZNK10GuiElement12GetAlignmentEv,"axG",@progbits,_ZNK10GuiElement12GetAlignmentEv,comdat
	.align 2
	.weak	_ZNK10GuiElement12GetAlignmentEv
	.type	_ZNK10GuiElement12GetAlignmentEv, @function
_ZNK10GuiElement12GetAlignmentEv:
.LFB1422:
	.loc 2 318 0
	.cfi_startproc
.LVL99:
	.loc 2 318 0
	lwz 3,68(3)
.LVL100:
	blr
	.cfi_endproc
.LFE1422:
	.size	_ZNK10GuiElement12GetAlignmentEv, .-_ZNK10GuiElement12GetAlignmentEv
	.section	.text._ZN10GuiElement6UpdateEP10GuiTrigger,"axG",@progbits,_ZN10GuiElement6UpdateEP10GuiTrigger,comdat
	.align 2
	.weak	_ZN10GuiElement6UpdateEP10GuiTrigger
	.type	_ZN10GuiElement6UpdateEP10GuiTrigger, @function
_ZN10GuiElement6UpdateEP10GuiTrigger:
.LFB1423:
	.loc 2 321 0
	.cfi_startproc
.LVL101:
	.loc 2 321 0
	blr
	.cfi_endproc
.LFE1423:
	.size	_ZN10GuiElement6UpdateEP10GuiTrigger, .-_ZN10GuiElement6UpdateEP10GuiTrigger
	.section	.text._ZN10GuiElement4DrawEv,"axG",@progbits,_ZN10GuiElement4DrawEv,comdat
	.align 2
	.weak	_ZN10GuiElement4DrawEv
	.type	_ZN10GuiElement4DrawEv, @function
_ZN10GuiElement4DrawEv:
.LFB1424:
	.loc 2 323 0
	.cfi_startproc
.LVL102:
	.loc 2 323 0
	blr
	.cfi_endproc
.LFE1424:
	.size	_ZN10GuiElement4DrawEv, .-_ZN10GuiElement4DrawEv
	.section	.text._ZN14GuiFileBrowser10SetBrowserEP7Browser,"axG",@progbits,_ZN14GuiFileBrowser10SetBrowserEP7Browser,comdat
	.align 2
	.weak	_ZN14GuiFileBrowser10SetBrowserEP7Browser
	.type	_ZN14GuiFileBrowser10SetBrowserEP7Browser, @function
_ZN14GuiFileBrowser10SetBrowserEP7Browser:
.LFB1467:
	.file 6 "d:/Projects/SaveGameManager/savegame-manager-gx/trunk/source/Files/GuiFileBrowser.hpp"
	.loc 6 38 0
	.cfi_startproc
.LVL103:
	mflr 0
	stwu 1,-8(1)
.LCFI21:
	.cfi_def_cfa_offset 8
	.cfi_register 65, 0
	stw 4,156(3)
	lwz 9,0(3)
	stw 0,12(1)
	.loc 6 38 0
	lwz 0,204(9)
	.cfi_offset 65, 4
	mtctr 0
	bctrl
.LVL104:
	lwz 0,12(1)
	addi 1,1,8
.LCFI22:
	.cfi_def_cfa_offset 0
	mtlr 0
	blr
	.cfi_endproc
.LFE1467:
	.size	_ZN14GuiFileBrowser10SetBrowserEP7Browser, .-_ZN14GuiFileBrowser10SetBrowserEP7Browser
	.section	.text._ZN14GuiFileBrowser7RefreshEv,"axG",@progbits,_ZN14GuiFileBrowser7RefreshEv,comdat
	.align 2
	.weak	_ZN14GuiFileBrowser7RefreshEv
	.type	_ZN14GuiFileBrowser7RefreshEv, @function
_ZN14GuiFileBrowser7RefreshEv:
.LFB1468:
	.loc 6 39 0
	.cfi_startproc
.LVL105:
	.loc 6 39 0
	blr
	.cfi_endproc
.LFE1468:
	.size	_ZN14GuiFileBrowser7RefreshEv, .-_ZN14GuiFileBrowser7RefreshEv
	.section	.text._ZN14GuiFileBrowser11SetSelectedEi,"axG",@progbits,_ZN14GuiFileBrowser11SetSelectedEi,comdat
	.align 2
	.weak	_ZN14GuiFileBrowser11SetSelectedEi
	.type	_ZN14GuiFileBrowser11SetSelectedEi, @function
_ZN14GuiFileBrowser11SetSelectedEi:
.LFB1469:
	.loc 6 40 0
	.cfi_startproc
.LVL106:
	.loc 6 40 0
	blr
	.cfi_endproc
.LFE1469:
	.size	_ZN14GuiFileBrowser11SetSelectedEi, .-_ZN14GuiFileBrowser11SetSelectedEi
	.section	".text"
	.align 2
	.globl _ZN15ListFileBrowser9OnClickedEP9GuiButtoniRK6_POINT
	.type	_ZN15ListFileBrowser9OnClickedEP9GuiButtoniRK6_POINT, @function
_ZN15ListFileBrowser9OnClickedEP9GuiButtoniRK6_POINT:
.LFB1620:
	.loc 3 276 0
	.cfi_startproc
	.cfi_personality 0,__gxx_personality_v0
	.cfi_lsda 0,.LLSDA1620
.LVL107:
	mflr 0
	stwu 1,-32(1)
.LCFI23:
	.cfi_def_cfa_offset 32
	.cfi_register 65, 0
	stw 28,16(1)
	mr 28,3
	.cfi_offset 28, -16
	stw 0,36(1)
	stw 27,12(1)
.LBB4776:
	.loc 3 412 0
	lwz 9,248(3)
.LBB4777:
.LBB4778:
	.file 7 "d:\\devkitpro\\devkitppc\\bin\\../lib/gcc/powerpc-eabi/4.6.3/../../../../powerpc-eabi/include/c++/4.6.3/bits/stl_vector.h"
	.loc 7 571 0
	lwz 0,252(3)
	.cfi_offset 27, -20
	.cfi_offset 65, 4
.LBE4778:
.LBE4777:
.LBE4776:
	.loc 3 276 0
	stw 29,20(1)
.LBB4801:
.LBB4780:
.LBB4779:
	.loc 7 571 0
	subf 0,9,0
.LBE4779:
.LBE4780:
.LBE4801:
	.loc 3 276 0
	stw 30,24(1)
.LBB4802:
	.loc 3 277 0
	srawi. 0,0,2
.LBE4802:
	.loc 3 276 0
	stw 31,28(1)
.LBB4803:
	.loc 3 277 0
	beq- 0,.L79
	.cfi_offset 31, -4
	.cfi_offset 30, -8
	.cfi_offset 29, -12
.LVL108:
	.loc 3 279 0
	lwz 11,0(9)
	li 29,0
	.loc 3 277 0
	mtctr 0
	.loc 3 279 0
	cmpw 7,11,4
	bne+ 7,.L82
	b .L81
.LVL109:
.L87:
	slwi 0,29,2
	lwzx 0,9,0
	cmpw 7,0,4
	beq- 7,.L81
.LVL110:
.L82:
	.loc 3 277 0
	addi 29,29,1
.LVL111:
	bdnz .L87
.LVL112:
.L79:
.LBE4803:
	.loc 3 285 0
	lwz 0,36(1)
	lwz 27,12(1)
	mtlr 0
	lwz 28,16(1)
	lwz 29,20(1)
	lwz 30,24(1)
	lwz 31,28(1)
	addi 1,1,32
	.cfi_remember_state
.LCFI24:
	.cfi_def_cfa_offset 0
	.cfi_restore 31
	.cfi_restore 30
	.cfi_restore 29
	.cfi_restore 28
	.cfi_restore 27
	blr
.L81:
.LCFI25:
	.cfi_restore_state
.LVL113:
.LBB4804:
.LBB4781:
.LBB4782:
.LBB4783:
.LBB4784:
	.loc 1 338 0
	lwz 9,144(28)
.LBE4784:
.LBE4783:
	.loc 1 2203 0
	addi 27,28,144
.LVL114:
.LBB4787:
.LBB4785:
	.loc 1 338 0
	mr 3,27
.LVL115:
.LBE4785:
.LBE4787:
.LBE4782:
	.loc 3 412 0
	mr 30,28
.LBB4797:
.LBB4788:
.LBB4786:
	.loc 1 338 0
	lwz 0,8(9)
	mtctr 0
.LEHB4:
	bctrl
.LEHE4:
.LVL116:
.LBE4786:
.LBE4788:
.LBE4797:
	.loc 3 412 0
	lwzu 31,148(30)
.LVL117:
.LBB4798:
	.loc 1 2207 0
	cmpw 7,31,30
	beq- 7,.L83
.LVL118:
.L92:
	.loc 1 2212 0
	lwz 3,8(31)
	mr 4,29
.LBB4789:
.LBB4790:
	.loc 4 234 0
	lwz 31,0(31)
.LVL119:
.LBE4790:
.LBE4789:
	.loc 1 2212 0
	lwz 9,0(3)
	lwz 0,12(9)
	mtctr 0
.LEHB5:
	bctrl
.LEHE5:
.LVL120:
	.loc 1 2207 0
	cmpw 7,30,31
	bne+ 7,.L92
.LVL121:
.L83:
.LBB4791:
.LBB4792:
.LBB4793:
	.loc 1 343 0
	lwz 9,144(28)
	mr 3,27
	lwz 0,12(9)
	mtctr 0
.LEHB6:
	bctrl
.LEHE6:
.LBE4793:
.LBE4792:
.LBE4791:
.LBE4798:
.LBE4781:
.LBE4804:
	.loc 3 285 0
	lwz 0,36(1)
	lwz 27,12(1)
	mtlr 0
	lwz 28,16(1)
.LVL122:
	lwz 29,20(1)
.LVL123:
	lwz 30,24(1)
.LVL124:
	lwz 31,28(1)
.LVL125:
	addi 1,1,32
	.cfi_remember_state
	.cfi_restore 27
	.cfi_restore 28
	.cfi_restore 29
	.cfi_restore 30
	.cfi_restore 31
.LCFI26:
	.cfi_def_cfa_offset 0
	blr
.LVL126:
.L90:
.LCFI27:
	.cfi_restore_state
.LBB4805:
.LBB4800:
.LBB4799:
.LBB4794:
.LBB4795:
.LBB4796:
	.loc 1 343 0
	lwz 9,144(28)
	mr 31,3
.LVL127:
	mr 3,27
	lwz 0,12(9)
	mtctr 0
	bctrl
	mr 3,31
.LEHB7:
	bl _Unwind_Resume
.LEHE7:
.LBE4796:
.LBE4795:
.LBE4794:
.LBE4799:
.LBE4800:
.LBE4805:
	.cfi_endproc
.LFE1620:
	.section	.gcc_except_table
.LLSDA1620:
	.byte	0xff
	.byte	0xff
	.byte	0x1
	.uleb128 .LLSDACSE1620-.LLSDACSB1620
.LLSDACSB1620:
	.uleb128 .LEHB4-.LFB1620
	.uleb128 .LEHE4-.LEHB4
	.uleb128 0
	.uleb128 0
	.uleb128 .LEHB5-.LFB1620
	.uleb128 .LEHE5-.LEHB5
	.uleb128 .L90-.LFB1620
	.uleb128 0
	.uleb128 .LEHB6-.LFB1620
	.uleb128 .LEHE6-.LEHB6
	.uleb128 0
	.uleb128 0
	.uleb128 .LEHB7-.LFB1620
	.uleb128 .LEHE7-.LEHB7
	.uleb128 0
	.uleb128 0
.LLSDACSE1620:
	.section	".text"
	.size	_ZN15ListFileBrowser9OnClickedEP9GuiButtoniRK6_POINT, .-_ZN15ListFileBrowser9OnClickedEP9GuiButtoniRK6_POINT
	.align 2
	.globl _ZN15ListFileBrowser10ResetStateEv
	.type	_ZN15ListFileBrowser10ResetStateEv, @function
_ZN15ListFileBrowser10ResetStateEv:
.LFB1622:
	.loc 3 297 0
	.cfi_startproc
.LVL128:
	mflr 0
	stwu 1,-16(1)
.LCFI28:
	.cfi_def_cfa_offset 16
	.cfi_register 65, 0
	stw 30,8(1)
	mr 30,3
	.cfi_offset 30, -8
	stw 0,20(1)
.LBB4806:
	.loc 3 298 0
	li 0,0
	.cfi_offset 65, 4
.LBE4806:
	.loc 3 297 0
	stw 31,12(1)
.LBB4817:
	.loc 3 412 0
	lwz 9,248(3)
.LBB4807:
.LBB4808:
.LBB4809:
	.loc 7 571 0
	lwz 11,252(3)
.LBE4809:
.LBE4808:
.LBE4807:
	.loc 3 298 0
	stw 0,72(3)
.LBB4814:
.LBB4812:
.LBB4810:
	.loc 7 571 0
	subf 11,9,11
.LBE4810:
.LBE4812:
.LBE4814:
	.loc 3 300 0
	stw 0,188(3)
.LVL129:
.LBB4815:
	.loc 3 302 0
	srwi. 10,11,2
.LBE4815:
	.loc 3 299 0
	li 11,-1
	stw 11,76(3)
.LBB4816:
	.loc 3 302 0
	beq- 0,.L93
	.cfi_offset 31, -4
	li 31,0
.LVL130:
.L95:
	.loc 3 304 0 discriminator 2
	slwi 0,31,2
	.loc 3 302 0 discriminator 2
	addi 31,31,1
.LVL131:
	.loc 3 304 0 discriminator 2
	lwzx 3,9,0
	lwz 9,0(3)
	lwz 0,92(9)
	mtctr 0
	bctrl
.LVL132:
	.loc 3 412 0 discriminator 2
	lwz 9,248(30)
.LBB4813:
.LBB4811:
	.loc 7 571 0 discriminator 2
	lwz 0,252(30)
	subf 0,9,0
	srawi 0,0,2
.LBE4811:
.LBE4813:
	.loc 3 302 0 discriminator 2
	cmplw 7,31,0
	blt+ 7,.L95
.LVL133:
.L93:
.LBE4816:
.LBE4817:
	.loc 3 306 0
	lwz 0,20(1)
	lwz 30,8(1)
.LVL134:
	mtlr 0
	lwz 31,12(1)
	addi 1,1,16
.LCFI29:
	.cfi_def_cfa_offset 0
	.cfi_restore 31
	.cfi_restore 30
	blr
	.cfi_endproc
.LFE1622:
	.size	_ZN15ListFileBrowser10ResetStateEv, .-_ZN15ListFileBrowser10ResetStateEv
	.section	.text._ZN7sigslot12_signal_baseINS_15single_threadedEED2Ev,"axG",@progbits,_ZN7sigslot12_signal_baseINS_15single_threadedEED5Ev,comdat
	.align 2
	.weak	_ZN7sigslot12_signal_baseINS_15single_threadedEED2Ev
	.type	_ZN7sigslot12_signal_baseINS_15single_threadedEED2Ev, @function
_ZN7sigslot12_signal_baseINS_15single_threadedEED2Ev:
.LFB1739:
	.loc 1 466 0
	.cfi_startproc
.LVL135:
.LBB4818:
.LBB4819:
.LBB4820:
.LBB4821:
	.loc 1 105 0
	lis 9,_ZTVN7sigslot15single_threadedE+8@ha
.LBE4821:
.LBE4820:
.LBE4819:
.LBE4818:
	.loc 1 466 0
.LBB4825:
.LBB4824:
.LBB4823:
.LBB4822:
	.loc 1 105 0
	la 0,_ZTVN7sigslot15single_threadedE+8@l(9)
	stw 0,0(3)
.LBE4822:
.LBE4823:
.LBE4824:
.LBE4825:
	.loc 1 466 0
	blr
	.cfi_endproc
.LFE1739:
	.size	_ZN7sigslot12_signal_baseINS_15single_threadedEED2Ev, .-_ZN7sigslot12_signal_baseINS_15single_threadedEED2Ev
	.section	.text._ZN7sigslot17_connection_base2IiiNS_15single_threadedEED2Ev,"axG",@progbits,_ZN7sigslot17_connection_base2IiiNS_15single_threadedEED5Ev,comdat
	.align 2
	.weak	_ZN7sigslot17_connection_base2IiiNS_15single_threadedEED2Ev
	.type	_ZN7sigslot17_connection_base2IiiNS_15single_threadedEED2Ev, @function
_ZN7sigslot17_connection_base2IiiNS_15single_threadedEED2Ev:
.LFB1981:
	.loc 1 376 0
	.cfi_startproc
.LVL136:
.LBB4826:
	.loc 1 376 0
	lis 9,_ZTVN7sigslot17_connection_base2IiiNS_15single_threadedEEE+8@ha
.LBE4826:
.LBB4827:
	la 0,_ZTVN7sigslot17_connection_base2IiiNS_15single_threadedEEE+8@l(9)
	stw 0,0(3)
.LBE4827:
	blr
	.cfi_endproc
.LFE1981:
	.size	_ZN7sigslot17_connection_base2IiiNS_15single_threadedEED2Ev, .-_ZN7sigslot17_connection_base2IiiNS_15single_threadedEED2Ev
	.section	.text._ZN7sigslot17_connection_base3IP9GuiButtoniRK6_POINTNS_15single_threadedEED2Ev,"axG",@progbits,_ZN7sigslot17_connection_base3IP9GuiButtoniRK6_POINTNS_15single_threadedEED5Ev,comdat
	.align 2
	.weak	_ZN7sigslot17_connection_base3IP9GuiButtoniRK6_POINTNS_15single_threadedEED2Ev
	.type	_ZN7sigslot17_connection_base3IP9GuiButtoniRK6_POINTNS_15single_threadedEED2Ev, @function
_ZN7sigslot17_connection_base3IP9GuiButtoniRK6_POINTNS_15single_threadedEED2Ev:
.LFB1995:
	.loc 1 387 0
	.cfi_startproc
.LVL137:
.LBB4828:
	.loc 1 387 0
	lis 9,_ZTVN7sigslot17_connection_base3IP9GuiButtoniRK6_POINTNS_15single_threadedEEE+8@ha
.LBE4828:
.LBB4829:
	la 0,_ZTVN7sigslot17_connection_base3IP9GuiButtoniRK6_POINTNS_15single_threadedEEE+8@l(9)
	stw 0,0(3)
.LBE4829:
	blr
	.cfi_endproc
.LFE1995:
	.size	_ZN7sigslot17_connection_base3IP9GuiButtoniRK6_POINTNS_15single_threadedEED2Ev, .-_ZN7sigslot17_connection_base3IP9GuiButtoniRK6_POINTNS_15single_threadedEED2Ev
	.section	.text._ZN7sigslot12_connection3I15ListFileBrowserP9GuiButtoniRK6_POINTNS_15single_threadedEED2Ev,"axG",@progbits,_ZN7sigslot12_connection3I15ListFileBrowserP9GuiButtoniRK6_POINTNS_15single_threadedEED5Ev,comdat
	.align 2
	.weak	_ZN7sigslot12_connection3I15ListFileBrowserP9GuiButtoniRK6_POINTNS_15single_threadedEED2Ev
	.type	_ZN7sigslot12_connection3I15ListFileBrowserP9GuiButtoniRK6_POINTNS_15single_threadedEED2Ev, @function
_ZN7sigslot12_connection3I15ListFileBrowserP9GuiButtoniRK6_POINTNS_15single_threadedEED2Ev:
.LFB2452:
	.loc 1 1783 0
	.cfi_startproc
.LVL138:
.LBB4830:
.LBB4831:
.LBB4832:
.LBB4833:
	.loc 1 387 0
	lis 9,_ZTVN7sigslot17_connection_base3IP9GuiButtoniRK6_POINTNS_15single_threadedEEE+8@ha
.LBE4833:
.LBE4832:
.LBE4831:
.LBE4830:
	.loc 1 1786 0
.LBB4837:
.LBB4836:
.LBB4835:
.LBB4834:
	.loc 1 387 0
	la 0,_ZTVN7sigslot17_connection_base3IP9GuiButtoniRK6_POINTNS_15single_threadedEEE+8@l(9)
	stw 0,0(3)
.LBE4834:
.LBE4835:
.LBE4836:
.LBE4837:
	.loc 1 1786 0
	blr
	.cfi_endproc
.LFE2452:
	.size	_ZN7sigslot12_connection3I15ListFileBrowserP9GuiButtoniRK6_POINTNS_15single_threadedEED2Ev, .-_ZN7sigslot12_connection3I15ListFileBrowserP9GuiButtoniRK6_POINTNS_15single_threadedEED2Ev
	.section	.text._ZNK7sigslot12_connection3I15ListFileBrowserP9GuiButtoniRK6_POINTNS_15single_threadedEE7getdestEv,"axG",@progbits,_ZNK7sigslot12_connection3I15ListFileBrowserP9GuiButtoniRK6_POINTNS_15single_threadedEE7getdestEv,comdat
	.align 2
	.weak	_ZNK7sigslot12_connection3I15ListFileBrowserP9GuiButtoniRK6_POINTNS_15single_threadedEE7getdestEv
	.type	_ZNK7sigslot12_connection3I15ListFileBrowserP9GuiButtoniRK6_POINTNS_15single_threadedEE7getdestEv, @function
_ZNK7sigslot12_connection3I15ListFileBrowserP9GuiButtoniRK6_POINTNS_15single_threadedEE7getdestEv:
.LFB2455:
	.loc 1 1804 0
	.cfi_startproc
.LVL139:
	.loc 1 1806 0
	lwz 9,4(3)
	li 3,0
.LVL140:
	cmpwi 7,9,0
	beqlr- 7
	.loc 1 1806 0 is_stmt 0 discriminator 1
	addi 3,9,160
	.loc 1 1807 0 is_stmt 1 discriminator 1
	blr
	.cfi_endproc
.LFE2455:
	.size	_ZNK7sigslot12_connection3I15ListFileBrowserP9GuiButtoniRK6_POINTNS_15single_threadedEE7getdestEv, .-_ZNK7sigslot12_connection3I15ListFileBrowserP9GuiButtoniRK6_POINTNS_15single_threadedEE7getdestEv
	.section	.text._ZN7sigslot12_connection3I15ListFileBrowserP9GuiButtoniRK6_POINTNS_15single_threadedEE4emitES3_iS6_,"axG",@progbits,_ZN7sigslot12_connection3I15ListFileBrowserP9GuiButtoniRK6_POINTNS_15single_threadedEE4emitES3_iS6_,comdat
	.align 2
	.weak	_ZN7sigslot12_connection3I15ListFileBrowserP9GuiButtoniRK6_POINTNS_15single_threadedEE4emitES3_iS6_
	.type	_ZN7sigslot12_connection3I15ListFileBrowserP9GuiButtoniRK6_POINTNS_15single_threadedEE4emitES3_iS6_, @function
_ZN7sigslot12_connection3I15ListFileBrowserP9GuiButtoniRK6_POINTNS_15single_threadedEE4emitES3_iS6_:
.LFB2456:
	.loc 1 1799 0
	.cfi_startproc
.LVL141:
	mflr 0
	stwu 1,-8(1)
.LCFI30:
	.cfi_def_cfa_offset 8
	.cfi_register 65, 0
	stw 0,12(1)
	.loc 1 1801 0
	lwz 0,8(3)
	.cfi_offset 65, 4
	lwz 11,4(3)
	andi. 9,0,1
	lwz 9,12(3)
	bne- 0,.L111
	mtctr 0
	add 3,11,9
.LVL142:
	bctrl
.LVL143:
	.loc 1 1802 0
	lwz 0,12(1)
	addi 1,1,8
	.cfi_remember_state
.LCFI31:
	.cfi_def_cfa_offset 0
	mtlr 0
	blr
.LVL144:
.L111:
.LCFI32:
	.cfi_restore_state
	.loc 1 1801 0 discriminator 1
	lwzx 10,11,9
	add 3,11,9
.LVL145:
	add 9,10,0
	lwz 0,-1(9)
	mtctr 0
	bctrl
.LVL146:
	.loc 1 1802 0 discriminator 1
	lwz 0,12(1)
	addi 1,1,8
.LCFI33:
	.cfi_def_cfa_offset 0
	mtlr 0
	blr
	.cfi_endproc
.LFE2456:
	.size	_ZN7sigslot12_connection3I15ListFileBrowserP9GuiButtoniRK6_POINTNS_15single_threadedEE4emitES3_iS6_, .-_ZN7sigslot12_connection3I15ListFileBrowserP9GuiButtoniRK6_POINTNS_15single_threadedEE4emitES3_iS6_
	.section	.text._ZN7sigslot12_connection2I15ListFileBrowseriiNS_15single_threadedEED2Ev,"axG",@progbits,_ZN7sigslot12_connection2I15ListFileBrowseriiNS_15single_threadedEED5Ev,comdat
	.align 2
	.weak	_ZN7sigslot12_connection2I15ListFileBrowseriiNS_15single_threadedEED2Ev
	.type	_ZN7sigslot12_connection2I15ListFileBrowseriiNS_15single_threadedEED2Ev, @function
_ZN7sigslot12_connection2I15ListFileBrowseriiNS_15single_threadedEED2Ev:
.LFB2466:
	.loc 1 1735 0
	.cfi_startproc
.LVL147:
.LBB4838:
.LBB4839:
.LBB4840:
.LBB4841:
	.loc 1 376 0
	lis 9,_ZTVN7sigslot17_connection_base2IiiNS_15single_threadedEEE+8@ha
.LBE4841:
.LBE4840:
.LBE4839:
.LBE4838:
	.loc 1 1738 0
.LBB4845:
.LBB4844:
.LBB4843:
.LBB4842:
	.loc 1 376 0
	la 0,_ZTVN7sigslot17_connection_base2IiiNS_15single_threadedEEE+8@l(9)
	stw 0,0(3)
.LBE4842:
.LBE4843:
.LBE4844:
.LBE4845:
	.loc 1 1738 0
	blr
	.cfi_endproc
.LFE2466:
	.size	_ZN7sigslot12_connection2I15ListFileBrowseriiNS_15single_threadedEED2Ev, .-_ZN7sigslot12_connection2I15ListFileBrowseriiNS_15single_threadedEED2Ev
	.section	.text._ZNK7sigslot12_connection2I15ListFileBrowseriiNS_15single_threadedEE7getdestEv,"axG",@progbits,_ZNK7sigslot12_connection2I15ListFileBrowseriiNS_15single_threadedEE7getdestEv,comdat
	.align 2
	.weak	_ZNK7sigslot12_connection2I15ListFileBrowseriiNS_15single_threadedEE7getdestEv
	.type	_ZNK7sigslot12_connection2I15ListFileBrowseriiNS_15single_threadedEE7getdestEv, @function
_ZNK7sigslot12_connection2I15ListFileBrowseriiNS_15single_threadedEE7getdestEv:
.LFB2469:
	.loc 1 1756 0
	.cfi_startproc
.LVL148:
	.loc 1 1758 0
	lwz 9,4(3)
	li 3,0
.LVL149:
	cmpwi 7,9,0
	beqlr- 7
	.loc 1 1758 0 is_stmt 0 discriminator 1
	addi 3,9,160
	.loc 1 1759 0 is_stmt 1 discriminator 1
	blr
	.cfi_endproc
.LFE2469:
	.size	_ZNK7sigslot12_connection2I15ListFileBrowseriiNS_15single_threadedEE7getdestEv, .-_ZNK7sigslot12_connection2I15ListFileBrowseriiNS_15single_threadedEE7getdestEv
	.section	.text._ZN7sigslot12_connection2I15ListFileBrowseriiNS_15single_threadedEE4emitEii,"axG",@progbits,_ZN7sigslot12_connection2I15ListFileBrowseriiNS_15single_threadedEE4emitEii,comdat
	.align 2
	.weak	_ZN7sigslot12_connection2I15ListFileBrowseriiNS_15single_threadedEE4emitEii
	.type	_ZN7sigslot12_connection2I15ListFileBrowseriiNS_15single_threadedEE4emitEii, @function
_ZN7sigslot12_connection2I15ListFileBrowseriiNS_15single_threadedEE4emitEii:
.LFB2470:
	.loc 1 1751 0
	.cfi_startproc
.LVL150:
	mflr 0
	stwu 1,-8(1)
.LCFI34:
	.cfi_def_cfa_offset 8
	.cfi_register 65, 0
	stw 0,12(1)
	.loc 1 1753 0
	lwz 0,8(3)
	.cfi_offset 65, 4
	lwz 11,4(3)
	andi. 9,0,1
	lwz 9,12(3)
	bne- 0,.L120
	mtctr 0
	add 3,11,9
.LVL151:
	bctrl
.LVL152:
	.loc 1 1754 0
	lwz 0,12(1)
	addi 1,1,8
	.cfi_remember_state
.LCFI35:
	.cfi_def_cfa_offset 0
	mtlr 0
	blr
.LVL153:
.L120:
.LCFI36:
	.cfi_restore_state
	.loc 1 1753 0 discriminator 1
	lwzx 10,11,9
	add 3,11,9
.LVL154:
	add 9,10,0
	lwz 0,-1(9)
	mtctr 0
	bctrl
.LVL155:
	.loc 1 1754 0 discriminator 1
	lwz 0,12(1)
	addi 1,1,8
.LCFI37:
	.cfi_def_cfa_offset 0
	mtlr 0
	blr
	.cfi_endproc
.LFE2470:
	.size	_ZN7sigslot12_connection2I15ListFileBrowseriiNS_15single_threadedEE4emitEii, .-_ZN7sigslot12_connection2I15ListFileBrowseriiNS_15single_threadedEE4emitEii
	.section	.text._ZN7sigslot12_connection2I15ListFileBrowseriiNS_15single_threadedEE9duplicateEPNS_9has_slotsIS2_EE,"axG",@progbits,_ZN7sigslot12_connection2I15ListFileBrowseriiNS_15single_threadedEE9duplicateEPNS_9has_slotsIS2_EE,comdat
	.align 2
	.weak	_ZN7sigslot12_connection2I15ListFileBrowseriiNS_15single_threadedEE9duplicateEPNS_9has_slotsIS2_EE
	.type	_ZN7sigslot12_connection2I15ListFileBrowseriiNS_15single_threadedEE9duplicateEPNS_9has_slotsIS2_EE, @function
_ZN7sigslot12_connection2I15ListFileBrowseriiNS_15single_threadedEE9duplicateEPNS_9has_slotsIS2_EE:
.LFB2478:
	.loc 1 1746 0
	.cfi_startproc
.LVL156:
	stwu 1,-16(1)
.LCFI38:
	.cfi_def_cfa_offset 16
	mflr 0
	stw 30,8(1)
	mr 30,4
	.cfi_offset 30, -8
	.cfi_register 65, 0
	stw 31,12(1)
	mr 31,3
	.cfi_offset 31, -4
	.loc 1 1748 0
	li 3,16
.LVL157:
	.loc 1 1746 0
	stw 0,20(1)
	.loc 1 1748 0
	.cfi_offset 65, 4
	bl _Znwj
.LVL158:
	cmpwi 7,30,0
	li 0,0
	beq- 7,.L123
	.loc 1 1748 0 is_stmt 0 discriminator 1
	addi 0,30,-160
.L123:
.LVL159:
	.loc 1 1748 0 discriminator 3
	lwz 11,8(31)
.LVL160:
.LBB4846:
.LBB4847:
	.loc 1 1730 0 is_stmt 1 discriminator 3
	lis 10,_ZTVN7sigslot12_connection2I15ListFileBrowseriiNS_15single_threadedEEE+8@ha
.LBE4847:
.LBE4846:
	.loc 1 1748 0 discriminator 3
	lwz 9,12(31)
.LVL161:
.LBB4850:
.LBB4848:
	.loc 1 1730 0 discriminator 3
	la 10,_ZTVN7sigslot12_connection2I15ListFileBrowseriiNS_15single_threadedEEE+8@l(10)
	.loc 1 1732 0 discriminator 3
	stw 11,8(3)
	stw 9,12(3)
	.loc 1 1731 0 discriminator 3
	stw 0,4(3)
.LBE4848:
.LBE4850:
	.loc 1 1749 0 discriminator 3
	lwz 0,20(1)
.LVL162:
	lwz 30,8(1)
.LVL163:
	mtlr 0
	lwz 31,12(1)
.LVL164:
.LBB4851:
.LBB4849:
	.loc 1 1730 0 discriminator 3
	stw 10,0(3)
.LBE4849:
.LBE4851:
	.loc 1 1749 0 discriminator 3
	addi 1,1,16
.LCFI39:
	.cfi_def_cfa_offset 0
	.cfi_restore 31
	.cfi_restore 30
	blr
	.cfi_endproc
.LFE2478:
	.size	_ZN7sigslot12_connection2I15ListFileBrowseriiNS_15single_threadedEE9duplicateEPNS_9has_slotsIS2_EE, .-_ZN7sigslot12_connection2I15ListFileBrowseriiNS_15single_threadedEE9duplicateEPNS_9has_slotsIS2_EE
	.section	.text._ZN7sigslot12_connection3I15ListFileBrowserP9GuiButtoniRK6_POINTNS_15single_threadedEE9duplicateEPNS_9has_slotsIS7_EE,"axG",@progbits,_ZN7sigslot12_connection3I15ListFileBrowserP9GuiButtoniRK6_POINTNS_15single_threadedEE9duplicateEPNS_9has_slotsIS7_EE,comdat
	.align 2
	.weak	_ZN7sigslot12_connection3I15ListFileBrowserP9GuiButtoniRK6_POINTNS_15single_threadedEE9duplicateEPNS_9has_slotsIS7_EE
	.type	_ZN7sigslot12_connection3I15ListFileBrowserP9GuiButtoniRK6_POINTNS_15single_threadedEE9duplicateEPNS_9has_slotsIS7_EE, @function
_ZN7sigslot12_connection3I15ListFileBrowserP9GuiButtoniRK6_POINTNS_15single_threadedEE9duplicateEPNS_9has_slotsIS7_EE:
.LFB2464:
	.loc 1 1794 0
	.cfi_startproc
.LVL165:
	stwu 1,-16(1)
.LCFI40:
	.cfi_def_cfa_offset 16
	mflr 0
	stw 30,8(1)
	mr 30,4
	.cfi_offset 30, -8
	.cfi_register 65, 0
	stw 31,12(1)
	mr 31,3
	.cfi_offset 31, -4
	.loc 1 1796 0
	li 3,16
.LVL166:
	.loc 1 1794 0
	stw 0,20(1)
	.loc 1 1796 0
	.cfi_offset 65, 4
	bl _Znwj
.LVL167:
	cmpwi 7,30,0
	li 0,0
	beq- 7,.L126
	.loc 1 1796 0 is_stmt 0 discriminator 1
	addi 0,30,-160
.L126:
.LVL168:
	.loc 1 1796 0 discriminator 3
	lwz 11,8(31)
.LVL169:
.LBB4852:
.LBB4853:
	.loc 1 1778 0 is_stmt 1 discriminator 3
	lis 10,_ZTVN7sigslot12_connection3I15ListFileBrowserP9GuiButtoniRK6_POINTNS_15single_threadedEEE+8@ha
.LBE4853:
.LBE4852:
	.loc 1 1796 0 discriminator 3
	lwz 9,12(31)
.LVL170:
.LBB4856:
.LBB4854:
	.loc 1 1778 0 discriminator 3
	la 10,_ZTVN7sigslot12_connection3I15ListFileBrowserP9GuiButtoniRK6_POINTNS_15single_threadedEEE+8@l(10)
	.loc 1 1780 0 discriminator 3
	stw 11,8(3)
	stw 9,12(3)
	.loc 1 1779 0 discriminator 3
	stw 0,4(3)
.LBE4854:
.LBE4856:
	.loc 1 1797 0 discriminator 3
	lwz 0,20(1)
.LVL171:
	lwz 30,8(1)
.LVL172:
	mtlr 0
	lwz 31,12(1)
.LVL173:
.LBB4857:
.LBB4855:
	.loc 1 1778 0 discriminator 3
	stw 10,0(3)
.LBE4855:
.LBE4857:
	.loc 1 1797 0 discriminator 3
	addi 1,1,16
.LCFI41:
	.cfi_def_cfa_offset 0
	.cfi_restore 31
	.cfi_restore 30
	blr
	.cfi_endproc
.LFE2464:
	.size	_ZN7sigslot12_connection3I15ListFileBrowserP9GuiButtoniRK6_POINTNS_15single_threadedEE9duplicateEPNS_9has_slotsIS7_EE, .-_ZN7sigslot12_connection3I15ListFileBrowserP9GuiButtoniRK6_POINTNS_15single_threadedEE9duplicateEPNS_9has_slotsIS7_EE
	.section	.text._ZN7sigslot12_connection3I15ListFileBrowserP9GuiButtoniRK6_POINTNS_15single_threadedEE5cloneEv,"axG",@progbits,_ZN7sigslot12_connection3I15ListFileBrowserP9GuiButtoniRK6_POINTNS_15single_threadedEE5cloneEv,comdat
	.align 2
	.weak	_ZN7sigslot12_connection3I15ListFileBrowserP9GuiButtoniRK6_POINTNS_15single_threadedEE5cloneEv
	.type	_ZN7sigslot12_connection3I15ListFileBrowserP9GuiButtoniRK6_POINTNS_15single_threadedEE5cloneEv, @function
_ZN7sigslot12_connection3I15ListFileBrowserP9GuiButtoniRK6_POINTNS_15single_threadedEE5cloneEv:
.LFB2457:
	.loc 1 1789 0
	.cfi_startproc
.LVL174:
	stwu 1,-16(1)
.LCFI42:
	.cfi_def_cfa_offset 16
	mflr 0
	stw 31,12(1)
	mr 31,3
	.cfi_offset 31, -4
	.cfi_register 65, 0
	.loc 1 1791 0
	li 3,16
.LVL175:
	.loc 1 1789 0
	stw 0,20(1)
	.loc 1 1791 0
	.cfi_offset 65, 4
	bl _Znwj
	.loc 3 412 0
	lwz 0,4(31)
.LVL176:
.LBB4858:
.LBB4859:
	.loc 1 1767 0
	lis 11,_ZTVN7sigslot12_connection3I15ListFileBrowserP9GuiButtoniRK6_POINTNS_15single_threadedEEE+8@ha
	la 11,_ZTVN7sigslot12_connection3I15ListFileBrowserP9GuiButtoniRK6_POINTNS_15single_threadedEEE+8@l(11)
	stw 0,4(3)
	stw 11,0(3)
	lwz 10,8(31)
	lwz 11,12(31)
	stw 10,8(3)
	stw 11,12(3)
.LBE4859:
.LBE4858:
	.loc 1 1792 0
	lwz 0,20(1)
	lwz 31,12(1)
.LVL177:
	mtlr 0
	addi 1,1,16
.LCFI43:
	.cfi_def_cfa_offset 0
	.cfi_restore 31
	blr
	.cfi_endproc
.LFE2457:
	.size	_ZN7sigslot12_connection3I15ListFileBrowserP9GuiButtoniRK6_POINTNS_15single_threadedEE5cloneEv, .-_ZN7sigslot12_connection3I15ListFileBrowserP9GuiButtoniRK6_POINTNS_15single_threadedEE5cloneEv
	.section	.text._ZN7sigslot12_connection2I15ListFileBrowseriiNS_15single_threadedEE5cloneEv,"axG",@progbits,_ZN7sigslot12_connection2I15ListFileBrowseriiNS_15single_threadedEE5cloneEv,comdat
	.align 2
	.weak	_ZN7sigslot12_connection2I15ListFileBrowseriiNS_15single_threadedEE5cloneEv
	.type	_ZN7sigslot12_connection2I15ListFileBrowseriiNS_15single_threadedEE5cloneEv, @function
_ZN7sigslot12_connection2I15ListFileBrowseriiNS_15single_threadedEE5cloneEv:
.LFB2471:
	.loc 1 1741 0
	.cfi_startproc
.LVL178:
	stwu 1,-16(1)
.LCFI44:
	.cfi_def_cfa_offset 16
	mflr 0
	stw 31,12(1)
	mr 31,3
	.cfi_offset 31, -4
	.cfi_register 65, 0
	.loc 1 1743 0
	li 3,16
.LVL179:
	.loc 1 1741 0
	stw 0,20(1)
	.loc 1 1743 0
	.cfi_offset 65, 4
	bl _Znwj
	.loc 3 412 0
	lwz 0,4(31)
.LVL180:
.LBB4860:
.LBB4861:
	.loc 1 1719 0
	lis 11,_ZTVN7sigslot12_connection2I15ListFileBrowseriiNS_15single_threadedEEE+8@ha
	la 11,_ZTVN7sigslot12_connection2I15ListFileBrowseriiNS_15single_threadedEEE+8@l(11)
	stw 0,4(3)
	stw 11,0(3)
	lwz 10,8(31)
	lwz 11,12(31)
	stw 10,8(3)
	stw 11,12(3)
.LBE4861:
.LBE4860:
	.loc 1 1744 0
	lwz 0,20(1)
	lwz 31,12(1)
.LVL181:
	mtlr 0
	addi 1,1,16
.LCFI45:
	.cfi_def_cfa_offset 0
	.cfi_restore 31
	blr
	.cfi_endproc
.LFE2471:
	.size	_ZN7sigslot12_connection2I15ListFileBrowseriiNS_15single_threadedEE5cloneEv, .-_ZN7sigslot12_connection2I15ListFileBrowseriiNS_15single_threadedEE5cloneEv
	.section	.text._ZN7sigslot13_signal_base1IiNS_15single_threadedEE14slot_duplicateEPKNS_9has_slotsIS1_EEPS4_,"axG",@progbits,_ZN7sigslot13_signal_base1IiNS_15single_threadedEE14slot_duplicateEPKNS_9has_slotsIS1_EEPS4_,comdat
	.align 2
	.weak	_ZN7sigslot13_signal_base1IiNS_15single_threadedEE14slot_duplicateEPKNS_9has_slotsIS1_EEPS4_
	.type	_ZN7sigslot13_signal_base1IiNS_15single_threadedEE14slot_duplicateEPKNS_9has_slotsIS1_EEPS4_, @function
_ZN7sigslot13_signal_base1IiNS_15single_threadedEE14slot_duplicateEPKNS_9has_slotsIS1_EEPS4_:
.LFB2480:
	.loc 1 685 0
	.cfi_startproc
	.cfi_personality 0,__gxx_personality_v0
	.cfi_lsda 0,.LLSDA2480
.LVL182:
	mflr 0
	stwu 1,-32(1)
.LCFI46:
	.cfi_def_cfa_offset 32
	.cfi_register 65, 0
	stw 26,8(1)
	mr 26,5
	.cfi_offset 26, -24
	stw 0,36(1)
	stw 27,12(1)
	mr 27,3
	.cfi_offset 27, -20
	.cfi_offset 65, 4
.LVL183:
.LBB4862:
.LBB4863:
.LBB4864:
	.loc 1 338 0
	lwz 9,0(3)
.LBE4864:
.LBE4863:
.LBE4862:
	.loc 1 685 0
	stw 29,20(1)
	mr 29,4
	.cfi_offset 29, -12
.LBB4893:
.LBB4869:
.LBB4865:
	.loc 1 338 0
	lwz 0,8(9)
.LBE4865:
.LBE4869:
.LBE4893:
	.loc 1 685 0
	stw 30,24(1)
.LBB4894:
.LBB4870:
.LBB4866:
	.loc 3 412 0
	mr 30,27
	.cfi_offset 30, -8
.LBE4866:
.LBE4870:
.LBE4894:
	.loc 1 685 0
	stw 31,28(1)
.LBB4895:
.LBB4871:
.LBB4867:
	.loc 1 338 0
	mtctr 0
.LBE4867:
.LBE4871:
.LBE4895:
	.loc 1 685 0
	stw 28,16(1)
.LEHB8:
.LBB4896:
.LBB4872:
.LBB4868:
	.loc 1 338 0
	.cfi_offset 28, -16
	.cfi_offset 31, -4
	bctrl
.LEHE8:
.LVL184:
	.loc 3 412 0
	lwzu 31,4(30)
.LVL185:
.LBE4868:
.LBE4872:
	.loc 1 691 0
	cmpw 7,31,30
	bne+ 7,.L140
	b .L131
.LVL186:
.L132:
.LBB4873:
.LBB4874:
	.loc 4 154 0
	lwz 31,0(31)
.LVL187:
.LBE4874:
.LBE4873:
	.loc 1 691 0
	cmpw 7,30,31
	beq- 7,.L131
.LVL188:
.L140:
	.loc 1 693 0
	lwz 3,8(31)
	lwz 9,0(3)
	lwz 0,8(9)
	mtctr 0
.LEHB9:
	bctrl
	cmpw 7,29,3
	bne+ 7,.L132
.LVL189:
	.loc 1 695 0
	lwz 3,8(31)
	mr 4,26
	lwz 9,0(3)
	lwz 0,20(9)
	mtctr 0
	bctrl
	mr 28,3
.LVL190:
.LBB4876:
.LBB4877:
.LBB4878:
.LBB4879:
.LBB4880:
.LBB4881:
.LBB4882:
.LBB4883:
	.file 8 "d:\\devkitpro\\devkitppc\\bin\\../lib/gcc/powerpc-eabi/4.6.3/../../../../powerpc-eabi/include/c++/4.6.3/ext/new_allocator.h"
	.loc 8 92 0
	li 3,12
	bl _Znwj
.LEHE9:
.LVL191:
.LBE4883:
.LBE4882:
.LBE4881:
.LBB4884:
.LBB4885:
	.loc 8 108 0 discriminator 1
	cmpwi 7,3,-8
	beq- 7,.L134
	.loc 8 108 0 is_stmt 0
	stw 28,8(3)
.L134:
.LVL192:
.LBE4885:
.LBE4884:
.LBE4880:
.LBE4879:
	.loc 4 1516 0 is_stmt 1
	mr 4,30
	bl _ZNSt8__detail15_List_node_base7_M_hookEPS0_
.LVL193:
.LBE4878:
.LBE4877:
.LBE4876:
.LBB4886:
.LBB4875:
	.loc 4 154 0
	lwz 31,0(31)
.LVL194:
.LBE4875:
.LBE4886:
	.loc 1 691 0
	cmpw 7,30,31
	bne+ 7,.L140
.LVL195:
.L131:
.LBB4887:
.LBB4888:
.LBB4889:
	.loc 1 343 0
	lwz 9,0(27)
	mr 3,27
	lwz 0,12(9)
	mtctr 0
.LEHB10:
	bctrl
.LEHE10:
.LBE4889:
.LBE4888:
.LBE4887:
.LBE4896:
	.loc 1 700 0
	lwz 0,36(1)
	lwz 26,8(1)
.LVL196:
	mtlr 0
	lwz 27,12(1)
.LVL197:
	lwz 28,16(1)
	lwz 29,20(1)
.LVL198:
	lwz 30,24(1)
.LVL199:
	lwz 31,28(1)
.LVL200:
	addi 1,1,32
	.cfi_remember_state
.LCFI47:
	.cfi_def_cfa_offset 0
	.cfi_restore 31
	.cfi_restore 30
	.cfi_restore 29
	.cfi_restore 28
	.cfi_restore 27
	.cfi_restore 26
	blr
.LVL201:
.L139:
.LCFI48:
	.cfi_restore_state
.LBB4897:
.LBB4890:
.LBB4891:
.LBB4892:
	.loc 1 343 0
	lwz 9,0(27)
	mr 31,3
.LVL202:
	mr 3,27
	lwz 0,12(9)
	mtctr 0
	bctrl
	mr 3,31
.LEHB11:
	bl _Unwind_Resume
.LEHE11:
.LBE4892:
.LBE4891:
.LBE4890:
.LBE4897:
	.cfi_endproc
.LFE2480:
	.section	.gcc_except_table
.LLSDA2480:
	.byte	0xff
	.byte	0xff
	.byte	0x1
	.uleb128 .LLSDACSE2480-.LLSDACSB2480
.LLSDACSB2480:
	.uleb128 .LEHB8-.LFB2480
	.uleb128 .LEHE8-.LEHB8
	.uleb128 0
	.uleb128 0
	.uleb128 .LEHB9-.LFB2480
	.uleb128 .LEHE9-.LEHB9
	.uleb128 .L139-.LFB2480
	.uleb128 0
	.uleb128 .LEHB10-.LFB2480
	.uleb128 .LEHE10-.LEHB10
	.uleb128 0
	.uleb128 0
	.uleb128 .LEHB11-.LFB2480
	.uleb128 .LEHE11-.LEHB11
	.uleb128 0
	.uleb128 0
.LLSDACSE2480:
	.section	.text._ZN7sigslot13_signal_base1IiNS_15single_threadedEE14slot_duplicateEPKNS_9has_slotsIS1_EEPS4_,"axG",@progbits,_ZN7sigslot13_signal_base1IiNS_15single_threadedEE14slot_duplicateEPKNS_9has_slotsIS1_EEPS4_,comdat
	.size	_ZN7sigslot13_signal_base1IiNS_15single_threadedEE14slot_duplicateEPKNS_9has_slotsIS1_EEPS4_, .-_ZN7sigslot13_signal_base1IiNS_15single_threadedEE14slot_duplicateEPKNS_9has_slotsIS1_EEPS4_
	.section	.text._ZN7sigslot13_signal_base3IP10GuiElementiiNS_15single_threadedEE14slot_duplicateEPKNS_9has_slotsIS3_EEPS6_,"axG",@progbits,_ZN7sigslot13_signal_base3IP10GuiElementiiNS_15single_threadedEE14slot_duplicateEPKNS_9has_slotsIS3_EEPS6_,comdat
	.align 2
	.weak	_ZN7sigslot13_signal_base3IP10GuiElementiiNS_15single_threadedEE14slot_duplicateEPKNS_9has_slotsIS3_EEPS6_
	.type	_ZN7sigslot13_signal_base3IP10GuiElementiiNS_15single_threadedEE14slot_duplicateEPKNS_9has_slotsIS3_EEPS6_, @function
_ZN7sigslot13_signal_base3IP10GuiElementiiNS_15single_threadedEE14slot_duplicateEPKNS_9has_slotsIS3_EEPS6_:
.LFB2482:
	.loc 1 926 0
	.cfi_startproc
	.cfi_personality 0,__gxx_personality_v0
	.cfi_lsda 0,.LLSDA2482
.LVL203:
	mflr 0
	stwu 1,-32(1)
.LCFI49:
	.cfi_def_cfa_offset 32
	.cfi_register 65, 0
	stw 26,8(1)
	mr 26,5
	.cfi_offset 26, -24
	stw 0,36(1)
	stw 27,12(1)
	mr 27,3
	.cfi_offset 27, -20
	.cfi_offset 65, 4
.LVL204:
.LBB4898:
.LBB4899:
.LBB4900:
	.loc 1 338 0
	lwz 9,0(3)
.LBE4900:
.LBE4899:
.LBE4898:
	.loc 1 926 0
	stw 29,20(1)
	mr 29,4
	.cfi_offset 29, -12
.LBB4929:
.LBB4905:
.LBB4901:
	.loc 1 338 0
	lwz 0,8(9)
.LBE4901:
.LBE4905:
.LBE4929:
	.loc 1 926 0
	stw 30,24(1)
.LBB4930:
.LBB4906:
.LBB4902:
	.loc 3 412 0
	mr 30,27
	.cfi_offset 30, -8
.LBE4902:
.LBE4906:
.LBE4930:
	.loc 1 926 0
	stw 31,28(1)
.LBB4931:
.LBB4907:
.LBB4903:
	.loc 1 338 0
	mtctr 0
.LBE4903:
.LBE4907:
.LBE4931:
	.loc 1 926 0
	stw 28,16(1)
.LEHB12:
.LBB4932:
.LBB4908:
.LBB4904:
	.loc 1 338 0
	.cfi_offset 28, -16
	.cfi_offset 31, -4
	bctrl
.LEHE12:
.LVL205:
	.loc 3 412 0
	lwzu 31,4(30)
.LVL206:
.LBE4904:
.LBE4908:
	.loc 1 932 0
	cmpw 7,31,30
	bne+ 7,.L152
	b .L143
.LVL207:
.L144:
.LBB4909:
.LBB4910:
	.loc 4 154 0
	lwz 31,0(31)
.LVL208:
.LBE4910:
.LBE4909:
	.loc 1 932 0
	cmpw 7,30,31
	beq- 7,.L143
.LVL209:
.L152:
	.loc 1 934 0
	lwz 3,8(31)
	lwz 9,0(3)
	lwz 0,8(9)
	mtctr 0
.LEHB13:
	bctrl
	cmpw 7,29,3
	bne+ 7,.L144
.LVL210:
	.loc 1 936 0
	lwz 3,8(31)
	mr 4,26
	lwz 9,0(3)
	lwz 0,20(9)
	mtctr 0
	bctrl
	mr 28,3
.LVL211:
.LBB4912:
.LBB4913:
.LBB4914:
.LBB4915:
.LBB4916:
.LBB4917:
.LBB4918:
.LBB4919:
	.loc 8 92 0
	li 3,12
	bl _Znwj
.LEHE13:
.LVL212:
.LBE4919:
.LBE4918:
.LBE4917:
.LBB4920:
.LBB4921:
	.loc 8 108 0 discriminator 1
	cmpwi 7,3,-8
	beq- 7,.L146
	.loc 8 108 0 is_stmt 0
	stw 28,8(3)
.L146:
.LVL213:
.LBE4921:
.LBE4920:
.LBE4916:
.LBE4915:
	.loc 4 1516 0 is_stmt 1
	mr 4,30
	bl _ZNSt8__detail15_List_node_base7_M_hookEPS0_
.LVL214:
.LBE4914:
.LBE4913:
.LBE4912:
.LBB4922:
.LBB4911:
	.loc 4 154 0
	lwz 31,0(31)
.LVL215:
.LBE4911:
.LBE4922:
	.loc 1 932 0
	cmpw 7,30,31
	bne+ 7,.L152
.LVL216:
.L143:
.LBB4923:
.LBB4924:
.LBB4925:
	.loc 1 343 0
	lwz 9,0(27)
	mr 3,27
	lwz 0,12(9)
	mtctr 0
.LEHB14:
	bctrl
.LEHE14:
.LBE4925:
.LBE4924:
.LBE4923:
.LBE4932:
	.loc 1 941 0
	lwz 0,36(1)
	lwz 26,8(1)
.LVL217:
	mtlr 0
	lwz 27,12(1)
.LVL218:
	lwz 28,16(1)
	lwz 29,20(1)
.LVL219:
	lwz 30,24(1)
.LVL220:
	lwz 31,28(1)
.LVL221:
	addi 1,1,32
	.cfi_remember_state
.LCFI50:
	.cfi_def_cfa_offset 0
	.cfi_restore 31
	.cfi_restore 30
	.cfi_restore 29
	.cfi_restore 28
	.cfi_restore 27
	.cfi_restore 26
	blr
.LVL222:
.L151:
.LCFI51:
	.cfi_restore_state
.LBB4933:
.LBB4926:
.LBB4927:
.LBB4928:
	.loc 1 343 0
	lwz 9,0(27)
	mr 31,3
.LVL223:
	mr 3,27
	lwz 0,12(9)
	mtctr 0
	bctrl
	mr 3,31
.LEHB15:
	bl _Unwind_Resume
.LEHE15:
.LBE4928:
.LBE4927:
.LBE4926:
.LBE4933:
	.cfi_endproc
.LFE2482:
	.section	.gcc_except_table
.LLSDA2482:
	.byte	0xff
	.byte	0xff
	.byte	0x1
	.uleb128 .LLSDACSE2482-.LLSDACSB2482
.LLSDACSB2482:
	.uleb128 .LEHB12-.LFB2482
	.uleb128 .LEHE12-.LEHB12
	.uleb128 0
	.uleb128 0
	.uleb128 .LEHB13-.LFB2482
	.uleb128 .LEHE13-.LEHB13
	.uleb128 .L151-.LFB2482
	.uleb128 0
	.uleb128 .LEHB14-.LFB2482
	.uleb128 .LEHE14-.LEHB14
	.uleb128 0
	.uleb128 0
	.uleb128 .LEHB15-.LFB2482
	.uleb128 .LEHE15-.LEHB15
	.uleb128 0
	.uleb128 0
.LLSDACSE2482:
	.section	.text._ZN7sigslot13_signal_base3IP10GuiElementiiNS_15single_threadedEE14slot_duplicateEPKNS_9has_slotsIS3_EEPS6_,"axG",@progbits,_ZN7sigslot13_signal_base3IP10GuiElementiiNS_15single_threadedEE14slot_duplicateEPKNS_9has_slotsIS3_EEPS6_,comdat
	.size	_ZN7sigslot13_signal_base3IP10GuiElementiiNS_15single_threadedEE14slot_duplicateEPKNS_9has_slotsIS3_EEPS6_, .-_ZN7sigslot13_signal_base3IP10GuiElementiiNS_15single_threadedEE14slot_duplicateEPKNS_9has_slotsIS3_EEPS6_
	.section	.text._ZN7sigslot13_signal_base2IP10GuiElementbNS_15single_threadedEE14slot_duplicateEPKNS_9has_slotsIS3_EEPS6_,"axG",@progbits,_ZN7sigslot13_signal_base2IP10GuiElementbNS_15single_threadedEE14slot_duplicateEPKNS_9has_slotsIS3_EEPS6_,comdat
	.align 2
	.weak	_ZN7sigslot13_signal_base2IP10GuiElementbNS_15single_threadedEE14slot_duplicateEPKNS_9has_slotsIS3_EEPS6_
	.type	_ZN7sigslot13_signal_base2IP10GuiElementbNS_15single_threadedEE14slot_duplicateEPKNS_9has_slotsIS3_EEPS6_, @function
_ZN7sigslot13_signal_base2IP10GuiElementbNS_15single_threadedEE14slot_duplicateEPKNS_9has_slotsIS3_EEPS6_:
.LFB2484:
	.loc 1 806 0
	.cfi_startproc
	.cfi_personality 0,__gxx_personality_v0
	.cfi_lsda 0,.LLSDA2484
.LVL224:
	mflr 0
	stwu 1,-32(1)
.LCFI52:
	.cfi_def_cfa_offset 32
	.cfi_register 65, 0
	stw 26,8(1)
	mr 26,5
	.cfi_offset 26, -24
	stw 0,36(1)
	stw 27,12(1)
	mr 27,3
	.cfi_offset 27, -20
	.cfi_offset 65, 4
.LVL225:
.LBB4934:
.LBB4935:
.LBB4936:
	.loc 1 338 0
	lwz 9,0(3)
.LBE4936:
.LBE4935:
.LBE4934:
	.loc 1 806 0
	stw 29,20(1)
	mr 29,4
	.cfi_offset 29, -12
.LBB4965:
.LBB4941:
.LBB4937:
	.loc 1 338 0
	lwz 0,8(9)
.LBE4937:
.LBE4941:
.LBE4965:
	.loc 1 806 0
	stw 30,24(1)
.LBB4966:
.LBB4942:
.LBB4938:
	.loc 3 412 0
	mr 30,27
	.cfi_offset 30, -8
.LBE4938:
.LBE4942:
.LBE4966:
	.loc 1 806 0
	stw 31,28(1)
.LBB4967:
.LBB4943:
.LBB4939:
	.loc 1 338 0
	mtctr 0
.LBE4939:
.LBE4943:
.LBE4967:
	.loc 1 806 0
	stw 28,16(1)
.LEHB16:
.LBB4968:
.LBB4944:
.LBB4940:
	.loc 1 338 0
	.cfi_offset 28, -16
	.cfi_offset 31, -4
	bctrl
.LEHE16:
.LVL226:
	.loc 3 412 0
	lwzu 31,4(30)
.LVL227:
.LBE4940:
.LBE4944:
	.loc 1 812 0
	cmpw 7,31,30
	bne+ 7,.L164
	b .L155
.LVL228:
.L156:
.LBB4945:
.LBB4946:
	.loc 4 154 0
	lwz 31,0(31)
.LVL229:
.LBE4946:
.LBE4945:
	.loc 1 812 0
	cmpw 7,30,31
	beq- 7,.L155
.LVL230:
.L164:
	.loc 1 814 0
	lwz 3,8(31)
	lwz 9,0(3)
	lwz 0,8(9)
	mtctr 0
.LEHB17:
	bctrl
	cmpw 7,29,3
	bne+ 7,.L156
.LVL231:
	.loc 1 816 0
	lwz 3,8(31)
	mr 4,26
	lwz 9,0(3)
	lwz 0,20(9)
	mtctr 0
	bctrl
	mr 28,3
.LVL232:
.LBB4948:
.LBB4949:
.LBB4950:
.LBB4951:
.LBB4952:
.LBB4953:
.LBB4954:
.LBB4955:
	.loc 8 92 0
	li 3,12
	bl _Znwj
.LEHE17:
.LVL233:
.LBE4955:
.LBE4954:
.LBE4953:
.LBB4956:
.LBB4957:
	.loc 8 108 0 discriminator 1
	cmpwi 7,3,-8
	beq- 7,.L158
	.loc 8 108 0 is_stmt 0
	stw 28,8(3)
.L158:
.LVL234:
.LBE4957:
.LBE4956:
.LBE4952:
.LBE4951:
	.loc 4 1516 0 is_stmt 1
	mr 4,30
	bl _ZNSt8__detail15_List_node_base7_M_hookEPS0_
.LVL235:
.LBE4950:
.LBE4949:
.LBE4948:
.LBB4958:
.LBB4947:
	.loc 4 154 0
	lwz 31,0(31)
.LVL236:
.LBE4947:
.LBE4958:
	.loc 1 812 0
	cmpw 7,30,31
	bne+ 7,.L164
.LVL237:
.L155:
.LBB4959:
.LBB4960:
.LBB4961:
	.loc 1 343 0
	lwz 9,0(27)
	mr 3,27
	lwz 0,12(9)
	mtctr 0
.LEHB18:
	bctrl
.LEHE18:
.LBE4961:
.LBE4960:
.LBE4959:
.LBE4968:
	.loc 1 821 0
	lwz 0,36(1)
	lwz 26,8(1)
.LVL238:
	mtlr 0
	lwz 27,12(1)
.LVL239:
	lwz 28,16(1)
	lwz 29,20(1)
.LVL240:
	lwz 30,24(1)
.LVL241:
	lwz 31,28(1)
.LVL242:
	addi 1,1,32
	.cfi_remember_state
.LCFI53:
	.cfi_def_cfa_offset 0
	.cfi_restore 31
	.cfi_restore 30
	.cfi_restore 29
	.cfi_restore 28
	.cfi_restore 27
	.cfi_restore 26
	blr
.LVL243:
.L163:
.LCFI54:
	.cfi_restore_state
.LBB4969:
.LBB4962:
.LBB4963:
.LBB4964:
	.loc 1 343 0
	lwz 9,0(27)
	mr 31,3
.LVL244:
	mr 3,27
	lwz 0,12(9)
	mtctr 0
	bctrl
	mr 3,31
.LEHB19:
	bl _Unwind_Resume
.LEHE19:
.LBE4964:
.LBE4963:
.LBE4962:
.LBE4969:
	.cfi_endproc
.LFE2484:
	.section	.gcc_except_table
.LLSDA2484:
	.byte	0xff
	.byte	0xff
	.byte	0x1
	.uleb128 .LLSDACSE2484-.LLSDACSB2484
.LLSDACSB2484:
	.uleb128 .LEHB16-.LFB2484
	.uleb128 .LEHE16-.LEHB16
	.uleb128 0
	.uleb128 0
	.uleb128 .LEHB17-.LFB2484
	.uleb128 .LEHE17-.LEHB17
	.uleb128 .L163-.LFB2484
	.uleb128 0
	.uleb128 .LEHB18-.LFB2484
	.uleb128 .LEHE18-.LEHB18
	.uleb128 0
	.uleb128 0
	.uleb128 .LEHB19-.LFB2484
	.uleb128 .LEHE19-.LEHB19
	.uleb128 0
	.uleb128 0
.LLSDACSE2484:
	.section	.text._ZN7sigslot13_signal_base2IP10GuiElementbNS_15single_threadedEE14slot_duplicateEPKNS_9has_slotsIS3_EEPS6_,"axG",@progbits,_ZN7sigslot13_signal_base2IP10GuiElementbNS_15single_threadedEE14slot_duplicateEPKNS_9has_slotsIS3_EEPS6_,comdat
	.size	_ZN7sigslot13_signal_base2IP10GuiElementbNS_15single_threadedEE14slot_duplicateEPKNS_9has_slotsIS3_EEPS6_, .-_ZN7sigslot13_signal_base2IP10GuiElementbNS_15single_threadedEE14slot_duplicateEPKNS_9has_slotsIS3_EEPS6_
	.section	.text._ZN7sigslot12_connection2I15ListFileBrowseriiNS_15single_threadedEED0Ev,"axG",@progbits,_ZN7sigslot12_connection2I15ListFileBrowseriiNS_15single_threadedEED5Ev,comdat
	.align 2
	.weak	_ZN7sigslot12_connection2I15ListFileBrowseriiNS_15single_threadedEED0Ev
	.type	_ZN7sigslot12_connection2I15ListFileBrowseriiNS_15single_threadedEED0Ev, @function
_ZN7sigslot12_connection2I15ListFileBrowseriiNS_15single_threadedEED0Ev:
.LFB2468:
	.loc 1 1735 0
	.cfi_startproc
.LVL245:
	mflr 0
	stwu 1,-8(1)
.LCFI55:
	.cfi_def_cfa_offset 8
	.cfi_register 65, 0
.LBB4970:
.LBB4971:
.LBB4972:
.LBB4973:
.LBB4974:
.LBB4975:
	.loc 1 376 0
	lis 9,_ZTVN7sigslot17_connection_base2IiiNS_15single_threadedEEE+8@ha
.LBE4975:
.LBE4974:
.LBE4973:
.LBE4972:
.LBE4971:
.LBE4970:
	.loc 1 1735 0
	stw 0,12(1)
.LBB4981:
.LBB4980:
.LBB4979:
.LBB4978:
.LBB4977:
.LBB4976:
	.loc 1 376 0
	la 0,_ZTVN7sigslot17_connection_base2IiiNS_15single_threadedEEE+8@l(9)
	.cfi_offset 65, 4
	stw 0,0(3)
.LBE4976:
.LBE4977:
.LBE4978:
.LBE4979:
.LBE4980:
.LBE4981:
	.loc 1 1738 0
	bl _ZdlPv
.LVL246:
	lwz 0,12(1)
	addi 1,1,8
.LCFI56:
	.cfi_def_cfa_offset 0
	mtlr 0
	blr
	.cfi_endproc
.LFE2468:
	.size	_ZN7sigslot12_connection2I15ListFileBrowseriiNS_15single_threadedEED0Ev, .-_ZN7sigslot12_connection2I15ListFileBrowseriiNS_15single_threadedEED0Ev
	.section	.text._ZN7sigslot12_connection3I15ListFileBrowserP9GuiButtoniRK6_POINTNS_15single_threadedEED0Ev,"axG",@progbits,_ZN7sigslot12_connection3I15ListFileBrowserP9GuiButtoniRK6_POINTNS_15single_threadedEED5Ev,comdat
	.align 2
	.weak	_ZN7sigslot12_connection3I15ListFileBrowserP9GuiButtoniRK6_POINTNS_15single_threadedEED0Ev
	.type	_ZN7sigslot12_connection3I15ListFileBrowserP9GuiButtoniRK6_POINTNS_15single_threadedEED0Ev, @function
_ZN7sigslot12_connection3I15ListFileBrowserP9GuiButtoniRK6_POINTNS_15single_threadedEED0Ev:
.LFB2454:
	.loc 1 1783 0
	.cfi_startproc
.LVL247:
	mflr 0
	stwu 1,-8(1)
.LCFI57:
	.cfi_def_cfa_offset 8
	.cfi_register 65, 0
.LBB4982:
.LBB4983:
.LBB4984:
.LBB4985:
.LBB4986:
.LBB4987:
	.loc 1 387 0
	lis 9,_ZTVN7sigslot17_connection_base3IP9GuiButtoniRK6_POINTNS_15single_threadedEEE+8@ha
.LBE4987:
.LBE4986:
.LBE4985:
.LBE4984:
.LBE4983:
.LBE4982:
	.loc 1 1783 0
	stw 0,12(1)
.LBB4993:
.LBB4992:
.LBB4991:
.LBB4990:
.LBB4989:
.LBB4988:
	.loc 1 387 0
	la 0,_ZTVN7sigslot17_connection_base3IP9GuiButtoniRK6_POINTNS_15single_threadedEEE+8@l(9)
	.cfi_offset 65, 4
	stw 0,0(3)
.LBE4988:
.LBE4989:
.LBE4990:
.LBE4991:
.LBE4992:
.LBE4993:
	.loc 1 1786 0
	bl _ZdlPv
.LVL248:
	lwz 0,12(1)
	addi 1,1,8
.LCFI58:
	.cfi_def_cfa_offset 0
	mtlr 0
	blr
	.cfi_endproc
.LFE2454:
	.size	_ZN7sigslot12_connection3I15ListFileBrowserP9GuiButtoniRK6_POINTNS_15single_threadedEED0Ev, .-_ZN7sigslot12_connection3I15ListFileBrowserP9GuiButtoniRK6_POINTNS_15single_threadedEED0Ev
	.section	.text._ZN7sigslot17_connection_base3IP9GuiButtoniRK6_POINTNS_15single_threadedEED0Ev,"axG",@progbits,_ZN7sigslot17_connection_base3IP9GuiButtoniRK6_POINTNS_15single_threadedEED5Ev,comdat
	.align 2
	.weak	_ZN7sigslot17_connection_base3IP9GuiButtoniRK6_POINTNS_15single_threadedEED0Ev
	.type	_ZN7sigslot17_connection_base3IP9GuiButtoniRK6_POINTNS_15single_threadedEED0Ev, @function
_ZN7sigslot17_connection_base3IP9GuiButtoniRK6_POINTNS_15single_threadedEED0Ev:
.LFB1997:
	.loc 1 387 0
	.cfi_startproc
.LVL249:
	mflr 0
	stwu 1,-8(1)
.LCFI59:
	.cfi_def_cfa_offset 8
	.cfi_register 65, 0
.LBB4994:
.LBB4995:
.LBB4996:
	lis 9,_ZTVN7sigslot17_connection_base3IP9GuiButtoniRK6_POINTNS_15single_threadedEEE+8@ha
.LBE4996:
.LBE4995:
.LBE4994:
	stw 0,12(1)
.LBB4999:
.LBB4998:
.LBB4997:
	.loc 1 387 0
	la 0,_ZTVN7sigslot17_connection_base3IP9GuiButtoniRK6_POINTNS_15single_threadedEEE+8@l(9)
	.cfi_offset 65, 4
	stw 0,0(3)
.LBE4997:
.LBE4998:
.LBE4999:
	bl _ZdlPv
.LVL250:
	lwz 0,12(1)
	addi 1,1,8
.LCFI60:
	.cfi_def_cfa_offset 0
	mtlr 0
	blr
	.cfi_endproc
.LFE1997:
	.size	_ZN7sigslot17_connection_base3IP9GuiButtoniRK6_POINTNS_15single_threadedEED0Ev, .-_ZN7sigslot17_connection_base3IP9GuiButtoniRK6_POINTNS_15single_threadedEED0Ev
	.section	.text._ZN7sigslot17_connection_base2IiiNS_15single_threadedEED0Ev,"axG",@progbits,_ZN7sigslot17_connection_base2IiiNS_15single_threadedEED5Ev,comdat
	.align 2
	.weak	_ZN7sigslot17_connection_base2IiiNS_15single_threadedEED0Ev
	.type	_ZN7sigslot17_connection_base2IiiNS_15single_threadedEED0Ev, @function
_ZN7sigslot17_connection_base2IiiNS_15single_threadedEED0Ev:
.LFB1983:
	.loc 1 376 0
	.cfi_startproc
.LVL251:
	mflr 0
	stwu 1,-8(1)
.LCFI61:
	.cfi_def_cfa_offset 8
	.cfi_register 65, 0
.LBB5000:
.LBB5001:
.LBB5002:
	lis 9,_ZTVN7sigslot17_connection_base2IiiNS_15single_threadedEEE+8@ha
.LBE5002:
.LBE5001:
.LBE5000:
	stw 0,12(1)
.LBB5005:
.LBB5004:
.LBB5003:
	.loc 1 376 0
	la 0,_ZTVN7sigslot17_connection_base2IiiNS_15single_threadedEEE+8@l(9)
	.cfi_offset 65, 4
	stw 0,0(3)
.LBE5003:
.LBE5004:
.LBE5005:
	bl _ZdlPv
.LVL252:
	lwz 0,12(1)
	addi 1,1,8
.LCFI62:
	.cfi_def_cfa_offset 0
	mtlr 0
	blr
	.cfi_endproc
.LFE1983:
	.size	_ZN7sigslot17_connection_base2IiiNS_15single_threadedEED0Ev, .-_ZN7sigslot17_connection_base2IiiNS_15single_threadedEED0Ev
	.section	.text._ZN7sigslot12_signal_baseINS_15single_threadedEED0Ev,"axG",@progbits,_ZN7sigslot12_signal_baseINS_15single_threadedEED5Ev,comdat
	.align 2
	.weak	_ZN7sigslot12_signal_baseINS_15single_threadedEED0Ev
	.type	_ZN7sigslot12_signal_baseINS_15single_threadedEED0Ev, @function
_ZN7sigslot12_signal_baseINS_15single_threadedEED0Ev:
.LFB1741:
	.loc 1 466 0
	.cfi_startproc
.LVL253:
	mflr 0
	stwu 1,-8(1)
.LCFI63:
	.cfi_def_cfa_offset 8
	.cfi_register 65, 0
.LBB5006:
.LBB5007:
.LBB5008:
.LBB5009:
.LBB5010:
.LBB5011:
	.loc 1 105 0
	lis 9,_ZTVN7sigslot15single_threadedE+8@ha
.LBE5011:
.LBE5010:
.LBE5009:
.LBE5008:
.LBE5007:
.LBE5006:
	.loc 1 466 0
	stw 0,12(1)
.LBB5017:
.LBB5016:
.LBB5015:
.LBB5014:
.LBB5013:
.LBB5012:
	.loc 1 105 0
	la 0,_ZTVN7sigslot15single_threadedE+8@l(9)
	.cfi_offset 65, 4
	stw 0,0(3)
.LBE5012:
.LBE5013:
.LBE5014:
.LBE5015:
.LBE5016:
.LBE5017:
	.loc 1 466 0
	bl _ZdlPv
.LVL254:
	lwz 0,12(1)
	addi 1,1,8
.LCFI64:
	.cfi_def_cfa_offset 0
	mtlr 0
	blr
	.cfi_endproc
.LFE1741:
	.size	_ZN7sigslot12_signal_baseINS_15single_threadedEED0Ev, .-_ZN7sigslot12_signal_baseINS_15single_threadedEED0Ev
	.section	.text._ZN7sigslot15single_threadedD0Ev,"axG",@progbits,_ZN7sigslot15single_threadedD5Ev,comdat
	.align 2
	.weak	_ZN7sigslot15single_threadedD0Ev
	.type	_ZN7sigslot15single_threadedD0Ev, @function
_ZN7sigslot15single_threadedD0Ev:
.LFB1150:
	.loc 1 104 0
	.cfi_startproc
.LVL255:
	mflr 0
	stwu 1,-8(1)
.LCFI65:
	.cfi_def_cfa_offset 8
	.cfi_register 65, 0
.LBB5018:
.LBB5019:
.LBB5020:
	.loc 1 105 0
	lis 9,_ZTVN7sigslot15single_threadedE+8@ha
.LBE5020:
.LBE5019:
.LBE5018:
	.loc 1 104 0
	stw 0,12(1)
.LBB5023:
.LBB5022:
.LBB5021:
	.loc 1 105 0
	la 0,_ZTVN7sigslot15single_threadedE+8@l(9)
	.cfi_offset 65, 4
	stw 0,0(3)
.LBE5021:
.LBE5022:
.LBE5023:
	.loc 1 107 0
	bl _ZdlPv
.LVL256:
	lwz 0,12(1)
	addi 1,1,8
.LCFI66:
	.cfi_def_cfa_offset 0
	mtlr 0
	blr
	.cfi_endproc
.LFE1150:
	.size	_ZN7sigslot15single_threadedD0Ev, .-_ZN7sigslot15single_threadedD0Ev
	.section	.text._ZN7sigslot13_signal_base1IiNS_15single_threadedEE15slot_disconnectEPNS_9has_slotsIS1_EE,"axG",@progbits,_ZN7sigslot13_signal_base1IiNS_15single_threadedEE15slot_disconnectEPNS_9has_slotsIS1_EE,comdat
	.align 2
	.weak	_ZN7sigslot13_signal_base1IiNS_15single_threadedEE15slot_disconnectEPNS_9has_slotsIS1_EE
	.type	_ZN7sigslot13_signal_base1IiNS_15single_threadedEE15slot_disconnectEPNS_9has_slotsIS1_EE, @function
_ZN7sigslot13_signal_base1IiNS_15single_threadedEE15slot_disconnectEPNS_9has_slotsIS1_EE:
.LFB2479:
	.loc 1 749 0
	.cfi_startproc
	.cfi_personality 0,__gxx_personality_v0
	.cfi_lsda 0,.LLSDA2479
.LVL257:
	mflr 0
	stwu 1,-32(1)
.LCFI67:
	.cfi_def_cfa_offset 32
	.cfi_register 65, 0
	stw 27,12(1)
	mr 27,3
	.cfi_offset 27, -20
.LVL258:
	stw 0,36(1)
	stw 28,16(1)
	mr 28,4
	.cfi_offset 28, -16
	.cfi_offset 65, 4
.LBB5024:
.LBB5025:
.LBB5026:
	.loc 1 338 0
	lwz 9,0(3)
.LBE5026:
.LBE5025:
.LBE5024:
	.loc 1 749 0
	stw 29,20(1)
.LBB5047:
.LBB5029:
.LBB5027:
	.loc 3 412 0
	mr 29,27
	.cfi_offset 29, -12
	.loc 1 338 0
	lwz 0,8(9)
.LBE5027:
.LBE5029:
.LBE5047:
	.loc 1 749 0
	stw 31,28(1)
	stw 30,24(1)
.LBB5048:
.LBB5030:
.LBB5028:
	.loc 1 338 0
	mtctr 0
.LEHB20:
	.cfi_offset 30, -8
	.cfi_offset 31, -4
	bctrl
.LEHE20:
.LVL259:
	.loc 3 412 0
	lwzu 31,4(29)
.LVL260:
.LBE5028:
.LBE5030:
	.loc 1 755 0
	cmpw 7,31,29
	bne+ 7,.L199
	b .L188
.LVL261:
.L189:
	.loc 1 755 0 is_stmt 0 discriminator 1
	cmpw 7,29,30
	beq- 7,.L188
.L197:
	.loc 1 755 0
	mr 31,30
.LVL262:
.L199:
.LBB5031:
	.loc 1 760 0 is_stmt 1
	lwz 3,8(31)
.LBB5032:
.LBB5033:
	.loc 4 154 0
	lwz 30,0(31)
.LVL263:
.LBE5033:
.LBE5032:
	.loc 1 760 0
	lwz 9,0(3)
	lwz 0,8(9)
	mtctr 0
.LEHB21:
	bctrl
.LVL264:
	cmpw 7,28,3
	bne+ 7,.L189
.LVL265:
	.loc 1 762 0
	lwz 3,8(31)
	cmpwi 7,3,0
	beq- 7,.L190
	.loc 1 762 0 is_stmt 0 discriminator 1
	lwz 9,0(3)
	lwz 0,4(9)
	mtctr 0
	bctrl
.LEHE21:
.L190:
.LVL266:
.LBB5034:
.LBB5035:
.LBB5036:
.LBB5037:
	.loc 4 1532 0 is_stmt 1
	mr 3,31
	bl _ZNSt8__detail15_List_node_base9_M_unhookEv
.LVL267:
.LBB5038:
.LBB5039:
.LBB5040:
	.loc 8 98 0
	mr 3,31
	bl _ZdlPv
.LVL268:
.LBE5040:
.LBE5039:
.LBE5038:
.LBE5037:
.LBE5036:
.LBE5035:
.LBE5034:
.LBE5031:
	.loc 1 755 0
	cmpw 7,29,30
	bne+ 7,.L197
.LVL269:
.L188:
.LBB5041:
.LBB5042:
.LBB5043:
	.loc 1 343 0
	lwz 9,0(27)
	mr 3,27
	lwz 0,12(9)
	mtctr 0
.LEHB22:
	bctrl
.LEHE22:
.LBE5043:
.LBE5042:
.LBE5041:
.LBE5048:
	.loc 1 769 0
	lwz 0,36(1)
	lwz 27,12(1)
.LVL270:
	mtlr 0
	lwz 28,16(1)
.LVL271:
	lwz 29,20(1)
.LVL272:
	lwz 30,24(1)
	lwz 31,28(1)
	addi 1,1,32
	.cfi_remember_state
.LCFI68:
	.cfi_def_cfa_offset 0
	.cfi_restore 31
	.cfi_restore 30
	.cfi_restore 29
	.cfi_restore 28
	.cfi_restore 27
	blr
.LVL273:
.L198:
.LCFI69:
	.cfi_restore_state
.LBB5049:
.LBB5044:
.LBB5045:
.LBB5046:
	.loc 1 343 0
	lwz 9,0(27)
	mr 31,3
.LVL274:
	mr 3,27
	lwz 0,12(9)
	mtctr 0
	bctrl
	mr 3,31
.LEHB23:
	bl _Unwind_Resume
.LEHE23:
.LBE5046:
.LBE5045:
.LBE5044:
.LBE5049:
	.cfi_endproc
.LFE2479:
	.section	.gcc_except_table
.LLSDA2479:
	.byte	0xff
	.byte	0xff
	.byte	0x1
	.uleb128 .LLSDACSE2479-.LLSDACSB2479
.LLSDACSB2479:
	.uleb128 .LEHB20-.LFB2479
	.uleb128 .LEHE20-.LEHB20
	.uleb128 0
	.uleb128 0
	.uleb128 .LEHB21-.LFB2479
	.uleb128 .LEHE21-.LEHB21
	.uleb128 .L198-.LFB2479
	.uleb128 0
	.uleb128 .LEHB22-.LFB2479
	.uleb128 .LEHE22-.LEHB22
	.uleb128 0
	.uleb128 0
	.uleb128 .LEHB23-.LFB2479
	.uleb128 .LEHE23-.LEHB23
	.uleb128 0
	.uleb128 0
.LLSDACSE2479:
	.section	.text._ZN7sigslot13_signal_base1IiNS_15single_threadedEE15slot_disconnectEPNS_9has_slotsIS1_EE,"axG",@progbits,_ZN7sigslot13_signal_base1IiNS_15single_threadedEE15slot_disconnectEPNS_9has_slotsIS1_EE,comdat
	.size	_ZN7sigslot13_signal_base1IiNS_15single_threadedEE15slot_disconnectEPNS_9has_slotsIS1_EE, .-_ZN7sigslot13_signal_base1IiNS_15single_threadedEE15slot_disconnectEPNS_9has_slotsIS1_EE
	.section	.text._ZN7sigslot13_signal_base3IP10GuiElementiiNS_15single_threadedEE15slot_disconnectEPNS_9has_slotsIS3_EE,"axG",@progbits,_ZN7sigslot13_signal_base3IP10GuiElementiiNS_15single_threadedEE15slot_disconnectEPNS_9has_slotsIS3_EE,comdat
	.align 2
	.weak	_ZN7sigslot13_signal_base3IP10GuiElementiiNS_15single_threadedEE15slot_disconnectEPNS_9has_slotsIS3_EE
	.type	_ZN7sigslot13_signal_base3IP10GuiElementiiNS_15single_threadedEE15slot_disconnectEPNS_9has_slotsIS3_EE, @function
_ZN7sigslot13_signal_base3IP10GuiElementiiNS_15single_threadedEE15slot_disconnectEPNS_9has_slotsIS3_EE:
.LFB2481:
	.loc 1 990 0
	.cfi_startproc
	.cfi_personality 0,__gxx_personality_v0
	.cfi_lsda 0,.LLSDA2481
.LVL275:
	mflr 0
	stwu 1,-32(1)
.LCFI70:
	.cfi_def_cfa_offset 32
	.cfi_register 65, 0
	stw 27,12(1)
	mr 27,3
	.cfi_offset 27, -20
.LVL276:
	stw 0,36(1)
	stw 28,16(1)
	mr 28,4
	.cfi_offset 28, -16
	.cfi_offset 65, 4
.LBB5050:
.LBB5051:
.LBB5052:
	.loc 1 338 0
	lwz 9,0(3)
.LBE5052:
.LBE5051:
.LBE5050:
	.loc 1 990 0
	stw 29,20(1)
.LBB5073:
.LBB5055:
.LBB5053:
	.loc 3 412 0
	mr 29,27
	.cfi_offset 29, -12
	.loc 1 338 0
	lwz 0,8(9)
.LBE5053:
.LBE5055:
.LBE5073:
	.loc 1 990 0
	stw 31,28(1)
	stw 30,24(1)
.LBB5074:
.LBB5056:
.LBB5054:
	.loc 1 338 0
	mtctr 0
.LEHB24:
	.cfi_offset 30, -8
	.cfi_offset 31, -4
	bctrl
.LEHE24:
.LVL277:
	.loc 3 412 0
	lwzu 31,4(29)
.LVL278:
.LBE5054:
.LBE5056:
	.loc 1 996 0
	cmpw 7,31,29
	bne+ 7,.L212
	b .L201
.LVL279:
.L202:
	.loc 1 996 0 is_stmt 0 discriminator 1
	cmpw 7,29,30
	beq- 7,.L201
.L210:
	.loc 1 996 0
	mr 31,30
.LVL280:
.L212:
.LBB5057:
	.loc 1 1001 0 is_stmt 1
	lwz 3,8(31)
.LBB5058:
.LBB5059:
	.loc 4 154 0
	lwz 30,0(31)
.LVL281:
.LBE5059:
.LBE5058:
	.loc 1 1001 0
	lwz 9,0(3)
	lwz 0,8(9)
	mtctr 0
.LEHB25:
	bctrl
.LVL282:
	cmpw 7,28,3
	bne+ 7,.L202
.LVL283:
	.loc 1 1003 0
	lwz 3,8(31)
	cmpwi 7,3,0
	beq- 7,.L203
	.loc 1 1003 0 is_stmt 0 discriminator 1
	lwz 9,0(3)
	lwz 0,4(9)
	mtctr 0
	bctrl
.LEHE25:
.L203:
.LVL284:
.LBB5060:
.LBB5061:
.LBB5062:
.LBB5063:
	.loc 4 1532 0 is_stmt 1
	mr 3,31
	bl _ZNSt8__detail15_List_node_base9_M_unhookEv
.LVL285:
.LBB5064:
.LBB5065:
.LBB5066:
	.loc 8 98 0
	mr 3,31
	bl _ZdlPv
.LVL286:
.LBE5066:
.LBE5065:
.LBE5064:
.LBE5063:
.LBE5062:
.LBE5061:
.LBE5060:
.LBE5057:
	.loc 1 996 0
	cmpw 7,29,30
	bne+ 7,.L210
.LVL287:
.L201:
.LBB5067:
.LBB5068:
.LBB5069:
	.loc 1 343 0
	lwz 9,0(27)
	mr 3,27
	lwz 0,12(9)
	mtctr 0
.LEHB26:
	bctrl
.LEHE26:
.LBE5069:
.LBE5068:
.LBE5067:
.LBE5074:
	.loc 1 1010 0
	lwz 0,36(1)
	lwz 27,12(1)
.LVL288:
	mtlr 0
	lwz 28,16(1)
.LVL289:
	lwz 29,20(1)
.LVL290:
	lwz 30,24(1)
	lwz 31,28(1)
	addi 1,1,32
	.cfi_remember_state
.LCFI71:
	.cfi_def_cfa_offset 0
	.cfi_restore 31
	.cfi_restore 30
	.cfi_restore 29
	.cfi_restore 28
	.cfi_restore 27
	blr
.LVL291:
.L211:
.LCFI72:
	.cfi_restore_state
.LBB5075:
.LBB5070:
.LBB5071:
.LBB5072:
	.loc 1 343 0
	lwz 9,0(27)
	mr 31,3
.LVL292:
	mr 3,27
	lwz 0,12(9)
	mtctr 0
	bctrl
	mr 3,31
.LEHB27:
	bl _Unwind_Resume
.LEHE27:
.LBE5072:
.LBE5071:
.LBE5070:
.LBE5075:
	.cfi_endproc
.LFE2481:
	.section	.gcc_except_table
.LLSDA2481:
	.byte	0xff
	.byte	0xff
	.byte	0x1
	.uleb128 .LLSDACSE2481-.LLSDACSB2481
.LLSDACSB2481:
	.uleb128 .LEHB24-.LFB2481
	.uleb128 .LEHE24-.LEHB24
	.uleb128 0
	.uleb128 0
	.uleb128 .LEHB25-.LFB2481
	.uleb128 .LEHE25-.LEHB25
	.uleb128 .L211-.LFB2481
	.uleb128 0
	.uleb128 .LEHB26-.LFB2481
	.uleb128 .LEHE26-.LEHB26
	.uleb128 0
	.uleb128 0
	.uleb128 .LEHB27-.LFB2481
	.uleb128 .LEHE27-.LEHB27
	.uleb128 0
	.uleb128 0
.LLSDACSE2481:
	.section	.text._ZN7sigslot13_signal_base3IP10GuiElementiiNS_15single_threadedEE15slot_disconnectEPNS_9has_slotsIS3_EE,"axG",@progbits,_ZN7sigslot13_signal_base3IP10GuiElementiiNS_15single_threadedEE15slot_disconnectEPNS_9has_slotsIS3_EE,comdat
	.size	_ZN7sigslot13_signal_base3IP10GuiElementiiNS_15single_threadedEE15slot_disconnectEPNS_9has_slotsIS3_EE, .-_ZN7sigslot13_signal_base3IP10GuiElementiiNS_15single_threadedEE15slot_disconnectEPNS_9has_slotsIS3_EE
	.section	.text._ZN7sigslot13_signal_base2IP10GuiElementbNS_15single_threadedEE15slot_disconnectEPNS_9has_slotsIS3_EE,"axG",@progbits,_ZN7sigslot13_signal_base2IP10GuiElementbNS_15single_threadedEE15slot_disconnectEPNS_9has_slotsIS3_EE,comdat
	.align 2
	.weak	_ZN7sigslot13_signal_base2IP10GuiElementbNS_15single_threadedEE15slot_disconnectEPNS_9has_slotsIS3_EE
	.type	_ZN7sigslot13_signal_base2IP10GuiElementbNS_15single_threadedEE15slot_disconnectEPNS_9has_slotsIS3_EE, @function
_ZN7sigslot13_signal_base2IP10GuiElementbNS_15single_threadedEE15slot_disconnectEPNS_9has_slotsIS3_EE:
.LFB2483:
	.loc 1 870 0
	.cfi_startproc
	.cfi_personality 0,__gxx_personality_v0
	.cfi_lsda 0,.LLSDA2483
.LVL293:
	mflr 0
	stwu 1,-32(1)
.LCFI73:
	.cfi_def_cfa_offset 32
	.cfi_register 65, 0
	stw 27,12(1)
	mr 27,3
	.cfi_offset 27, -20
.LVL294:
	stw 0,36(1)
	stw 28,16(1)
	mr 28,4
	.cfi_offset 28, -16
	.cfi_offset 65, 4
.LBB5076:
.LBB5077:
.LBB5078:
	.loc 1 338 0
	lwz 9,0(3)
.LBE5078:
.LBE5077:
.LBE5076:
	.loc 1 870 0
	stw 29,20(1)
.LBB5099:
.LBB5081:
.LBB5079:
	.loc 3 412 0
	mr 29,27
	.cfi_offset 29, -12
	.loc 1 338 0
	lwz 0,8(9)
.LBE5079:
.LBE5081:
.LBE5099:
	.loc 1 870 0
	stw 31,28(1)
	stw 30,24(1)
.LBB5100:
.LBB5082:
.LBB5080:
	.loc 1 338 0
	mtctr 0
.LEHB28:
	.cfi_offset 30, -8
	.cfi_offset 31, -4
	bctrl
.LEHE28:
.LVL295:
	.loc 3 412 0
	lwzu 31,4(29)
.LVL296:
.LBE5080:
.LBE5082:
	.loc 1 876 0
	cmpw 7,31,29
	bne+ 7,.L225
	b .L214
.LVL297:
.L215:
	.loc 1 876 0 is_stmt 0 discriminator 1
	cmpw 7,29,30
	beq- 7,.L214
.L223:
	.loc 1 876 0
	mr 31,30
.LVL298:
.L225:
.LBB5083:
	.loc 1 881 0 is_stmt 1
	lwz 3,8(31)
.LBB5084:
.LBB5085:
	.loc 4 154 0
	lwz 30,0(31)
.LVL299:
.LBE5085:
.LBE5084:
	.loc 1 881 0
	lwz 9,0(3)
	lwz 0,8(9)
	mtctr 0
.LEHB29:
	bctrl
.LVL300:
	cmpw 7,28,3
	bne+ 7,.L215
.LVL301:
	.loc 1 883 0
	lwz 3,8(31)
	cmpwi 7,3,0
	beq- 7,.L216
	.loc 1 883 0 is_stmt 0 discriminator 1
	lwz 9,0(3)
	lwz 0,4(9)
	mtctr 0
	bctrl
.LEHE29:
.L216:
.LVL302:
.LBB5086:
.LBB5087:
.LBB5088:
.LBB5089:
	.loc 4 1532 0 is_stmt 1
	mr 3,31
	bl _ZNSt8__detail15_List_node_base9_M_unhookEv
.LVL303:
.LBB5090:
.LBB5091:
.LBB5092:
	.loc 8 98 0
	mr 3,31
	bl _ZdlPv
.LVL304:
.LBE5092:
.LBE5091:
.LBE5090:
.LBE5089:
.LBE5088:
.LBE5087:
.LBE5086:
.LBE5083:
	.loc 1 876 0
	cmpw 7,29,30
	bne+ 7,.L223
.LVL305:
.L214:
.LBB5093:
.LBB5094:
.LBB5095:
	.loc 1 343 0
	lwz 9,0(27)
	mr 3,27
	lwz 0,12(9)
	mtctr 0
.LEHB30:
	bctrl
.LEHE30:
.LBE5095:
.LBE5094:
.LBE5093:
.LBE5100:
	.loc 1 890 0
	lwz 0,36(1)
	lwz 27,12(1)
.LVL306:
	mtlr 0
	lwz 28,16(1)
.LVL307:
	lwz 29,20(1)
.LVL308:
	lwz 30,24(1)
	lwz 31,28(1)
	addi 1,1,32
	.cfi_remember_state
.LCFI74:
	.cfi_def_cfa_offset 0
	.cfi_restore 31
	.cfi_restore 30
	.cfi_restore 29
	.cfi_restore 28
	.cfi_restore 27
	blr
.LVL309:
.L224:
.LCFI75:
	.cfi_restore_state
.LBB5101:
.LBB5096:
.LBB5097:
.LBB5098:
	.loc 1 343 0
	lwz 9,0(27)
	mr 31,3
.LVL310:
	mr 3,27
	lwz 0,12(9)
	mtctr 0
	bctrl
	mr 3,31
.LEHB31:
	bl _Unwind_Resume
.LEHE31:
.LBE5098:
.LBE5097:
.LBE5096:
.LBE5101:
	.cfi_endproc
.LFE2483:
	.section	.gcc_except_table
.LLSDA2483:
	.byte	0xff
	.byte	0xff
	.byte	0x1
	.uleb128 .LLSDACSE2483-.LLSDACSB2483
.LLSDACSB2483:
	.uleb128 .LEHB28-.LFB2483
	.uleb128 .LEHE28-.LEHB28
	.uleb128 0
	.uleb128 0
	.uleb128 .LEHB29-.LFB2483
	.uleb128 .LEHE29-.LEHB29
	.uleb128 .L224-.LFB2483
	.uleb128 0
	.uleb128 .LEHB30-.LFB2483
	.uleb128 .LEHE30-.LEHB30
	.uleb128 0
	.uleb128 0
	.uleb128 .LEHB31-.LFB2483
	.uleb128 .LEHE31-.LEHB31
	.uleb128 0
	.uleb128 0
.LLSDACSE2483:
	.section	.text._ZN7sigslot13_signal_base2IP10GuiElementbNS_15single_threadedEE15slot_disconnectEPNS_9has_slotsIS3_EE,"axG",@progbits,_ZN7sigslot13_signal_base2IP10GuiElementbNS_15single_threadedEE15slot_disconnectEPNS_9has_slotsIS3_EE,comdat
	.size	_ZN7sigslot13_signal_base2IP10GuiElementbNS_15single_threadedEE15slot_disconnectEPNS_9has_slotsIS3_EE, .-_ZN7sigslot13_signal_base2IP10GuiElementbNS_15single_threadedEE15slot_disconnectEPNS_9has_slotsIS3_EE
	.section	.text._ZN10GuiElement10ResetStateEv,"axG",@progbits,_ZN10GuiElement10ResetStateEv,comdat
	.align 2
	.weak	_ZN10GuiElement10ResetStateEv
	.type	_ZN10GuiElement10ResetStateEv, @function
_ZN10GuiElement10ResetStateEv:
.LFB1402:
	.loc 2 183 0
	.cfi_startproc
.LVL311:
	mflr 0
	stwu 1,-8(1)
.LCFI76:
	.cfi_def_cfa_offset 8
	.cfi_register 65, 0
	stw 0,12(1)
	.loc 2 185 0
	lwz 0,72(3)
	.cfi_offset 65, 4
	cmpwi 7,0,4
	beq- 7,.L226
.LVL312:
.LBB5104:
.LBB5105:
	.loc 2 186 0
	lwz 9,0(3)
	li 4,0
	li 5,-1
	lwz 0,80(9)
	mtctr 0
	bctrl
.LVL313:
.L226:
.LBE5105:
.LBE5104:
	.loc 2 187 0
	lwz 0,12(1)
	addi 1,1,8
.LCFI77:
	.cfi_def_cfa_offset 0
	mtlr 0
	blr
	.cfi_endproc
.LFE1402:
	.size	_ZN10GuiElement10ResetStateEv, .-_ZN10GuiElement10ResetStateEv
	.section	".text"
	.align 2
	.globl _ZN15ListFileBrowser4DrawEv
	.type	_ZN15ListFileBrowser4DrawEv, @function
_ZN15ListFileBrowser4DrawEv:
.LFB1624:
	.loc 3 339 0
	.cfi_startproc
.LVL314:
	mflr 0
	stwu 1,-16(1)
.LCFI78:
	.cfi_def_cfa_offset 16
	.cfi_register 65, 0
	stw 30,8(1)
	mr 30,3
	.cfi_offset 30, -8
	stw 0,20(1)
	stw 31,12(1)
.LBB5115:
	.loc 3 340 0
	lwz 9,0(3)
	lwz 0,52(9)
	.cfi_offset 31, -4
	.cfi_offset 65, 4
	mtctr 0
	bctrl
.LVL315:
	cmpwi 7,3,0
	bne- 7,.L233
.LBE5115:
	.loc 3 351 0
	lwz 0,20(1)
	lwz 30,8(1)
.LVL316:
	mtlr 0
	lwz 31,12(1)
	addi 1,1,16
	.cfi_remember_state
.LCFI79:
	.cfi_def_cfa_offset 0
	.cfi_restore 31
	.cfi_restore 30
	blr
.LVL317:
.L233:
.LCFI80:
	.cfi_restore_state
.LBB5116:
.LBB5117:
	.loc 3 343 0
	lwz 3,260(30)
	lwz 9,0(3)
	lwz 0,192(9)
	mtctr 0
	bctrl
	.loc 3 344 0
	lwz 3,328(30)
	lwz 9,0(3)
	lwz 0,192(9)
	mtctr 0
	bctrl
	.loc 3 345 0
	lwz 3,264(30)
	lwz 9,0(3)
	lwz 0,192(9)
	mtctr 0
	bctrl
.LVL318:
.LBE5117:
	.loc 3 412 0
	lwz 9,248(30)
.LBB5124:
.LBB5118:
.LBB5119:
.LBB5120:
	.loc 7 571 0
	lwz 0,252(30)
	subf 0,9,0
.LBE5120:
.LBE5119:
	.loc 3 347 0
	srwi. 11,0,2
	beq- 0,.L230
	li 31,0
.LVL319:
.L231:
	.loc 3 348 0
	slwi 0,31,2
	.loc 3 347 0
	addi 31,31,1
.LVL320:
	.loc 3 348 0
	lwzx 3,9,0
	lwz 9,0(3)
	lwz 0,192(9)
	mtctr 0
	bctrl
.LVL321:
.LBE5118:
.LBE5124:
	.loc 3 412 0
	lwz 9,248(30)
.LBB5125:
.LBB5123:
.LBB5122:
.LBB5121:
	.loc 7 571 0
	lwz 0,252(30)
	subf 0,9,0
	srawi 0,0,2
.LBE5121:
.LBE5122:
	.loc 3 347 0
	cmplw 7,31,0
	blt+ 7,.L231
.LVL322:
.L230:
.LBE5123:
	.loc 3 350 0
	lwz 9,0(30)
	mr 3,30
	lwz 0,196(9)
	mtctr 0
	bctrl
.LBE5125:
.LBE5116:
	.loc 3 351 0
	lwz 0,20(1)
	lwz 30,8(1)
.LVL323:
	mtlr 0
	lwz 31,12(1)
	addi 1,1,16
	.cfi_restore 30
	.cfi_restore 31
.LCFI81:
	.cfi_def_cfa_offset 0
	blr
	.cfi_endproc
.LFE1624:
	.size	_ZN15ListFileBrowser4DrawEv, .-_ZN15ListFileBrowser4DrawEv
	.align 2
	.globl _ZN15ListFileBrowser11SetSelectedEi
	.type	_ZN15ListFileBrowser11SetSelectedEi, @function
_ZN15ListFileBrowser11SetSelectedEi:
.LFB1621:
	.loc 3 288 0
	.cfi_startproc
.LVL324:
	.loc 3 289 0
	cmpwi 0,4,0
	.loc 3 288 0
	mflr 0
	stwu 1,-8(1)
.LCFI82:
	.cfi_def_cfa_offset 8
	.cfi_register 65, 0
	stw 0,12(1)
	.loc 3 289 0
	blt- 0,.L234
	.cfi_offset 65, 4
	.loc 3 412 0 discriminator 2
	lwz 9,248(3)
.LBB5134:
.LBB5135:
	.loc 7 571 0 discriminator 2
	lwz 0,252(3)
	subf 0,9,0
	srawi 0,0,2
.LBE5135:
.LBE5134:
	.loc 3 289 0 discriminator 2
	cmpw 7,4,0
	blt- 7,.L237
.L234:
	.loc 3 294 0
	lwz 0,12(1)
	addi 1,1,8
	.cfi_remember_state
.LCFI83:
	.cfi_def_cfa_offset 0
	mtlr 0
	blr
.L237:
.LCFI84:
	.cfi_restore_state
.LVL325:
.LBB5136:
.LBB5137:
	.loc 3 293 0
	slwi 0,4,2
	li 5,-1
	lwzx 11,9,0
	.loc 3 292 0
	stw 4,188(3)
.LVL326:
	.loc 3 293 0
	li 4,1
.LVL327:
	lwz 9,0(11)
	mr 3,11
.LVL328:
	lwz 0,80(9)
	mtctr 0
	bctrl
.LBE5137:
.LBE5136:
	.loc 3 294 0
	lwz 0,12(1)
	addi 1,1,8
.LCFI85:
	.cfi_def_cfa_offset 0
	mtlr 0
	blr
	.cfi_endproc
.LFE1621:
	.size	_ZN15ListFileBrowser11SetSelectedEi, .-_ZN15ListFileBrowser11SetSelectedEi
	.align 2
	.type	_ZN15ListFileBrowser14GetIconFromExtESsb.constprop.251, @function
_ZN15ListFileBrowser14GetIconFromExtESsb.constprop.251:
.LFB2759:
	.loc 3 226 0
	.cfi_startproc
	.cfi_personality 0,__gxx_personality_v0
	.cfi_lsda 0,.LLSDA2759
.LVL329:
	.loc 3 228 0
	cmpwi 7,5,0
	.loc 3 226 0
	mflr 0
	stwu 1,-24(1)
.LCFI86:
	.cfi_def_cfa_offset 24
	.cfi_register 65, 0
	stw 30,16(1)
	mr 30,3
	.cfi_offset 30, -8
	stw 31,20(1)
	mr 31,4
	.cfi_offset 31, -4
	stw 0,28(1)
	stw 29,12(1)
	.loc 3 228 0
	bne- 7,.L275
	.cfi_offset 29, -12
	.cfi_offset 65, 4
.LVL330:
.LBB5138:
.LBB5139:
.LBB5140:
	.file 9 "d:\\devkitpro\\devkitppc\\bin\\../lib/gcc/powerpc-eabi/4.6.3/../../../../powerpc-eabi/include/c++/4.6.3/bits/basic_string.h"
	.loc 9 711 0
	lwz 9,0(4)
.LBE5140:
.LBE5139:
.LBE5138:
	.loc 3 231 0
	lwz 0,-12(9)
	cmpwi 7,0,0
	bne- 7,.L276
.LVL331:
.L241:
	.loc 3 272 0
	li 3,196
.LEHB32:
	bl _Znwj
.LEHE32:
	lwz 4,284(30)
	mr 31,3
.LVL332:
.LEHB33:
	bl _ZN8GuiImageC1EP12GuiImageData
.LEHE33:
.L240:
	.loc 3 273 0
	lwz 0,28(1)
	mr 3,31
	lwz 29,12(1)
	mtlr 0
	lwz 30,16(1)
.LVL333:
	lwz 31,20(1)
	addi 1,1,24
	.cfi_remember_state
.LCFI87:
	.cfi_def_cfa_offset 0
	.cfi_restore 31
	.cfi_restore 30
	.cfi_restore 29
	blr
.LVL334:
.L276:
.LCFI88:
	.cfi_restore_state
	.loc 3 233 0
	mr 3,4
.LVL335:
	lis 4,.LC4@ha
.LVL336:
	la 4,.LC4@l(4)
.LEHB34:
	bl _ZNKSs7compareEPKc
.LVL337:
	cmpwi 7,3,0
	beq- 7,.L277
.LVL338:
	.loc 3 237 0
	lis 29,Settings+2580@ha
	lwz 4,0(31)
	la 29,Settings+2580@l(29)
	mr 3,29
	bl _ZN16CFilesExtensions15CompareHomebrewEPKc
	cmpwi 7,3,0
	bne- 7,.L243
	.loc 3 239 0
	li 3,196
	bl _Znwj
.LEHE34:
	lwz 4,288(30)
	mr 31,3
.LVL339:
.LEHB35:
	bl _ZN8GuiImageC1EP12GuiImageData
.LEHE35:
	b .L240
.LVL340:
.L275:
	.loc 3 229 0
	li 3,196
.LEHB36:
	bl _Znwj
.LEHE36:
.LVL341:
	lwz 4,292(30)
	mr 31,3
.LVL342:
.LEHB37:
	bl _ZN8GuiImageC1EP12GuiImageData
.LEHE37:
	.loc 3 273 0
	lwz 0,28(1)
	mr 3,31
	lwz 29,12(1)
	mtlr 0
	lwz 30,16(1)
.LVL343:
	lwz 31,20(1)
	addi 1,1,24
	.cfi_remember_state
	.cfi_restore 29
	.cfi_restore 30
	.cfi_restore 31
.LCFI89:
	.cfi_def_cfa_offset 0
	blr
.LVL344:
.L277:
.LCFI90:
	.cfi_restore_state
	.loc 3 235 0
	li 3,196
.LEHB38:
	bl _Znwj
.LEHE38:
	lwz 4,276(30)
	mr 31,3
.LVL345:
.LEHB39:
	bl _ZN8GuiImageC1EP12GuiImageData
.LEHE39:
	.loc 3 273 0
	lwz 0,28(1)
	mr 3,31
	lwz 29,12(1)
	mtlr 0
	lwz 30,16(1)
.LVL346:
	lwz 31,20(1)
	addi 1,1,24
	.cfi_remember_state
	.cfi_restore 29
	.cfi_restore 30
	.cfi_restore 31
.LCFI91:
	.cfi_def_cfa_offset 0
	blr
.LVL347:
.L243:
.LCFI92:
	.cfi_restore_state
	.loc 3 241 0
	lwz 4,0(31)
	mr 3,29
.LEHB40:
	bl _ZN16CFilesExtensions11CompareFontEPKc
	cmpwi 7,3,0
	beq- 7,.L278
.LVL348:
	.loc 3 245 0
	lwz 4,0(31)
	mr 3,29
	bl _ZN16CFilesExtensions12CompareImageEPKc
	cmpwi 7,3,0
	bne- 7,.L245
	.loc 3 247 0
	li 3,196
	bl _Znwj
.LEHE40:
	lwz 4,300(30)
	mr 31,3
.LVL349:
.LEHB41:
	bl _ZN8GuiImageC1EP12GuiImageData
.LEHE41:
	b .L240
.LVL350:
.L278:
	.loc 3 243 0
	li 3,196
.LEHB42:
	bl _Znwj
.LEHE42:
	lwz 4,296(30)
	mr 31,3
.LVL351:
.LEHB43:
	bl _ZN8GuiImageC1EP12GuiImageData
.LEHE43:
	b .L240
.LVL352:
.L245:
	.loc 3 249 0
	lwz 4,0(31)
	mr 3,29
.LEHB44:
	bl _ZN16CFilesExtensions20CompareLanguageFilesEPKc
	cmpwi 7,3,0
	bne- 7,.L246
	.loc 3 251 0
	li 3,196
	bl _Znwj
.LEHE44:
	lwz 4,304(30)
	mr 31,3
.LVL353:
.LEHB45:
	bl _ZN8GuiImageC1EP12GuiImageData
.LEHE45:
	b .L240
.LVL354:
.L246:
	.loc 3 253 0
	lwz 4,0(31)
	mr 3,29
.LEHB46:
	bl _ZN16CFilesExtensions12CompareAudioEPKc
	cmpwi 7,3,0
	bne- 7,.L247
	.loc 3 255 0
	li 3,196
	bl _Znwj
.LEHE46:
	lwz 4,312(30)
	mr 31,3
.LVL355:
.LEHB47:
	bl _ZN8GuiImageC1EP12GuiImageData
.LEHE47:
	b .L240
.LVL356:
.L247:
	.loc 3 257 0
	lwz 4,0(31)
	mr 3,29
.LEHB48:
	bl _ZN16CFilesExtensions17CompareThemeFilesEPKc
	cmpwi 7,3,0
	bne- 7,.L248
	.loc 3 259 0
	li 3,196
	bl _Znwj
.LEHE48:
	lwz 4,316(30)
	mr 31,3
.LVL357:
.LEHB49:
	bl _ZN8GuiImageC1EP12GuiImageData
.LEHE49:
	b .L240
.LVL358:
.L248:
	.loc 3 261 0
	lis 4,.LC5@ha
	mr 3,31
	la 4,.LC5@l(4)
.LEHB50:
	bl _ZNKSs7compareEPKc
	cmpwi 7,3,0
	bne- 7,.L279
.L249:
	.loc 3 264 0
	li 3,196
	bl _Znwj
.LEHE50:
	lwz 4,320(30)
	mr 31,3
.LVL359:
.LEHB51:
	bl _ZN8GuiImageC1EP12GuiImageData
.LEHE51:
	b .L240
.LVL360:
.L279:
	.loc 3 262 0
	lis 4,.LC6@ha
	mr 3,31
	la 4,.LC6@l(4)
.LEHB52:
	bl _ZNKSs7compareEPKc
	.loc 3 261 0
	cmpwi 7,3,0
	beq- 7,.L249
	.loc 3 266 0
	lis 4,.LC7@ha
	mr 3,31
	la 4,.LC7@l(4)
	bl _ZNKSs7compareEPKc
	cmpwi 7,3,0
	bne+ 7,.L241
	.loc 3 268 0
	li 3,196
	bl _Znwj
.LEHE52:
	lwz 4,324(30)
	mr 31,3
.LVL361:
.LEHB53:
	bl _ZN8GuiImageC1EP12GuiImageData
.LEHE53:
	b .L240
.L266:
.L274:
	mr 30,3
.LVL362:
	.loc 3 235 0
	mr 3,31
	bl _ZdlPv
	mr 3,30
.LEHB54:
	bl _Unwind_Resume
.LEHE54:
.LVL363:
.L265:
	b .L274
.L264:
	b .L274
.L272:
	b .L274
.L271:
	b .L274
.L273:
	b .L274
.L263:
	b .L274
.L269:
	b .L274
.L270:
	b .L274
.L268:
	b .L274
.L267:
	b .L274
	.cfi_endproc
.LFE2759:
	.section	.gcc_except_table
.LLSDA2759:
	.byte	0xff
	.byte	0xff
	.byte	0x1
	.uleb128 .LLSDACSE2759-.LLSDACSB2759
.LLSDACSB2759:
	.uleb128 .LEHB32-.LFB2759
	.uleb128 .LEHE32-.LEHB32
	.uleb128 0
	.uleb128 0
	.uleb128 .LEHB33-.LFB2759
	.uleb128 .LEHE33-.LEHB33
	.uleb128 .L263-.LFB2759
	.uleb128 0
	.uleb128 .LEHB34-.LFB2759
	.uleb128 .LEHE34-.LEHB34
	.uleb128 0
	.uleb128 0
	.uleb128 .LEHB35-.LFB2759
	.uleb128 .LEHE35-.LEHB35
	.uleb128 .L271-.LFB2759
	.uleb128 0
	.uleb128 .LEHB36-.LFB2759
	.uleb128 .LEHE36-.LEHB36
	.uleb128 0
	.uleb128 0
	.uleb128 .LEHB37-.LFB2759
	.uleb128 .LEHE37-.LEHB37
	.uleb128 .L273-.LFB2759
	.uleb128 0
	.uleb128 .LEHB38-.LFB2759
	.uleb128 .LEHE38-.LEHB38
	.uleb128 0
	.uleb128 0
	.uleb128 .LEHB39-.LFB2759
	.uleb128 .LEHE39-.LEHB39
	.uleb128 .L272-.LFB2759
	.uleb128 0
	.uleb128 .LEHB40-.LFB2759
	.uleb128 .LEHE40-.LEHB40
	.uleb128 0
	.uleb128 0
	.uleb128 .LEHB41-.LFB2759
	.uleb128 .LEHE41-.LEHB41
	.uleb128 .L269-.LFB2759
	.uleb128 0
	.uleb128 .LEHB42-.LFB2759
	.uleb128 .LEHE42-.LEHB42
	.uleb128 0
	.uleb128 0
	.uleb128 .LEHB43-.LFB2759
	.uleb128 .LEHE43-.LEHB43
	.uleb128 .L270-.LFB2759
	.uleb128 0
	.uleb128 .LEHB44-.LFB2759
	.uleb128 .LEHE44-.LEHB44
	.uleb128 0
	.uleb128 0
	.uleb128 .LEHB45-.LFB2759
	.uleb128 .LEHE45-.LEHB45
	.uleb128 .L268-.LFB2759
	.uleb128 0
	.uleb128 .LEHB46-.LFB2759
	.uleb128 .LEHE46-.LEHB46
	.uleb128 0
	.uleb128 0
	.uleb128 .LEHB47-.LFB2759
	.uleb128 .LEHE47-.LEHB47
	.uleb128 .L267-.LFB2759
	.uleb128 0
	.uleb128 .LEHB48-.LFB2759
	.uleb128 .LEHE48-.LEHB48
	.uleb128 0
	.uleb128 0
	.uleb128 .LEHB49-.LFB2759
	.uleb128 .LEHE49-.LEHB49
	.uleb128 .L266-.LFB2759
	.uleb128 0
	.uleb128 .LEHB50-.LFB2759
	.uleb128 .LEHE50-.LEHB50
	.uleb128 0
	.uleb128 0
	.uleb128 .LEHB51-.LFB2759
	.uleb128 .LEHE51-.LEHB51
	.uleb128 .L265-.LFB2759
	.uleb128 0
	.uleb128 .LEHB52-.LFB2759
	.uleb128 .LEHE52-.LEHB52
	.uleb128 0
	.uleb128 0
	.uleb128 .LEHB53-.LFB2759
	.uleb128 .LEHE53-.LEHB53
	.uleb128 .L264-.LFB2759
	.uleb128 0
	.uleb128 .LEHB54-.LFB2759
	.uleb128 .LEHE54-.LEHB54
	.uleb128 0
	.uleb128 0
.LLSDACSE2759:
	.section	".text"
	.size	_ZN15ListFileBrowser14GetIconFromExtESsb.constprop.251, .-_ZN15ListFileBrowser14GetIconFromExtESsb.constprop.251
	.align 2
	.globl _ZN15ListFileBrowser12RemoveButtonEi
	.type	_ZN15ListFileBrowser12RemoveButtonEi, @function
_ZN15ListFileBrowser12RemoveButtonEi:
.LFB1617:
	.loc 3 159 0
	.cfi_startproc
.LVL364:
	.loc 3 160 0
	cmpwi 0,4,0
	.loc 3 159 0
	mflr 0
	stwu 1,-16(1)
.LCFI93:
	.cfi_def_cfa_offset 16
	.cfi_register 65, 0
	stw 31,12(1)
	mr 31,3
	.cfi_offset 31, -4
	stw 0,20(1)
	stw 30,8(1)
	.loc 3 160 0
	blt- 0,.L280
	.cfi_offset 30, -8
	.cfi_offset 65, 4
.LBB5258:
.LBB5259:
	.loc 7 571 0 discriminator 2
	lwz 9,252(3)
	lwz 0,248(3)
	subf 0,0,9
	srawi 0,0,2
.LBE5259:
.LBE5258:
	.loc 3 160 0 discriminator 2
	cmpw 7,0,4
	ble- 7,.L280
.LVL365:
	.loc 3 163 0
	lwz 9,200(3)
.LBB5260:
.LBB5261:
	.loc 7 696 0
	slwi 30,4,2
.LBE5261:
.LBE5260:
	.loc 3 163 0
	lwzx 3,9,30
.LVL366:
	cmpwi 7,3,0
	beq- 7,.L293
	.loc 3 164 0
	lwz 9,0(3)
	lwz 0,4(9)
	mtctr 0
	bctrl
.LVL367:
.L293:
	.loc 3 165 0
	lwz 9,212(31)
	lwzx 3,9,30
	cmpwi 7,3,0
	beq- 7,.L283
	.loc 3 166 0
	lwz 9,0(3)
	lwz 0,4(9)
	mtctr 0
	bctrl
.L283:
	.loc 3 167 0
	lwz 9,224(31)
	lwzx 3,9,30
	cmpwi 7,3,0
	beq- 7,.L284
	.loc 3 168 0
	lwz 9,0(3)
	lwz 0,4(9)
	mtctr 0
	bctrl
.L284:
	.loc 3 169 0
	lwz 9,236(31)
	lwzx 3,9,30
	cmpwi 7,3,0
	beq- 7,.L285
	.loc 3 170 0
	lwz 9,0(3)
	lwz 0,4(9)
	mtctr 0
	bctrl
.L285:
	.loc 3 171 0
	lwz 9,248(31)
	lwzx 3,9,30
	cmpwi 7,3,0
	beq- 7,.L286
	.loc 3 172 0
	lwz 9,0(3)
	lwz 0,4(9)
	mtctr 0
	bctrl
.L286:
.LVL368:
.LBB5262:
.LBB5263:
	.file 10 "d:\\devkitpro\\devkitppc\\bin\\../lib/gcc/powerpc-eabi/4.6.3/../../../../powerpc-eabi/include/c++/4.6.3/bits/stl_iterator.h"
	.loc 10 773 0
	lwz 3,200(31)
.LBE5263:
.LBE5262:
.LBB5265:
.LBB5266:
.LBB5267:
	.loc 3 412 0
	lwz 11,204(31)
.LBE5267:
.LBE5266:
.LBE5265:
.LBB5279:
.LBB5264:
	.loc 10 773 0
	add 3,3,30
.LVL369:
.LBE5264:
.LBE5279:
.LBB5280:
.LBB5276:
.LBB5268:
.LBB5269:
	addi 4,3,4
.LVL370:
.LBE5269:
.LBE5268:
	.file 11 "d:\\devkitpro\\devkitppc\\bin\\../lib/gcc/powerpc-eabi/4.6.3/../../../../powerpc-eabi/include/c++/4.6.3/bits/vector.tcc"
	.loc 11 138 0
	cmpw 7,4,11
	beq- 7,.L287
.LVL371:
.LBB5270:
.LBB5271:
.LBB5272:
.LBB5273:
.LBB5274:
.LBB5275:
	.file 12 "d:\\devkitpro\\devkitppc\\bin\\../lib/gcc/powerpc-eabi/4.6.3/../../../../powerpc-eabi/include/c++/4.6.3/bits/stl_algobase.h"
	.loc 12 364 0
	subf 5,4,11
.LVL372:
	.loc 12 365 0
	srawi. 5,5,2
.LVL373:
	beq+ 0,.L287
	.loc 12 366 0
	slwi 5,5,2
.LVL374:
	bl memmove
.LVL375:
	lwz 11,204(31)
.LVL376:
.L287:
.LBE5275:
.LBE5274:
.LBE5273:
.LBE5272:
.LBE5271:
.LBE5270:
.LBE5276:
.LBE5280:
.LBB5281:
.LBB5282:
	.loc 10 773 0
	lwz 3,212(31)
.LBE5282:
.LBE5281:
.LBB5284:
.LBB5277:
	.loc 11 140 0
	addi 11,11,-4
.LBE5277:
.LBE5284:
.LBB5285:
.LBB5286:
.LBB5287:
	.loc 3 412 0
	lwz 9,216(31)
.LBE5287:
.LBE5286:
.LBE5285:
.LBB5299:
.LBB5283:
	.loc 10 773 0
	add 3,3,30
.LBE5283:
.LBE5299:
.LBB5300:
.LBB5278:
	.loc 11 140 0
	stw 11,204(31)
.LVL377:
.LBE5278:
.LBE5300:
.LBB5301:
.LBB5296:
.LBB5288:
.LBB5289:
	.loc 10 773 0
	addi 4,3,4
.LBE5289:
.LBE5288:
	.loc 11 138 0
	cmpw 7,4,9
	beq- 7,.L288
.LVL378:
.LBB5290:
.LBB5291:
.LBB5292:
.LBB5293:
.LBB5294:
.LBB5295:
	.loc 12 364 0
	subf 5,4,9
.LVL379:
	.loc 12 365 0
	srawi. 5,5,2
.LVL380:
	beq+ 0,.L288
	.loc 12 366 0
	slwi 5,5,2
.LVL381:
	bl memmove
.LVL382:
	lwz 9,216(31)
.LVL383:
.L288:
.LBE5295:
.LBE5294:
.LBE5293:
.LBE5292:
.LBE5291:
.LBE5290:
.LBE5296:
.LBE5301:
.LBB5302:
.LBB5303:
	.loc 10 773 0
	lwz 3,224(31)
.LBE5303:
.LBE5302:
.LBB5305:
.LBB5297:
	.loc 11 140 0
	addi 9,9,-4
.LBE5297:
.LBE5305:
.LBB5306:
.LBB5307:
.LBB5308:
	.loc 3 412 0
	lwz 11,228(31)
.LBE5308:
.LBE5307:
.LBE5306:
.LBB5320:
.LBB5304:
	.loc 10 773 0
	add 3,3,30
.LBE5304:
.LBE5320:
.LBB5321:
.LBB5298:
	.loc 11 140 0
	stw 9,216(31)
.LVL384:
.LBE5298:
.LBE5321:
.LBB5322:
.LBB5317:
.LBB5309:
.LBB5310:
	.loc 10 773 0
	addi 4,3,4
.LBE5310:
.LBE5309:
	.loc 11 138 0
	cmpw 7,4,11
	beq- 7,.L289
.LVL385:
.LBB5311:
.LBB5312:
.LBB5313:
.LBB5314:
.LBB5315:
.LBB5316:
	.loc 12 364 0
	subf 5,4,11
.LVL386:
	.loc 12 365 0
	srawi. 5,5,2
.LVL387:
	beq+ 0,.L289
	.loc 12 366 0
	slwi 5,5,2
.LVL388:
	bl memmove
.LVL389:
	lwz 11,228(31)
.LVL390:
.L289:
.LBE5316:
.LBE5315:
.LBE5314:
.LBE5313:
.LBE5312:
.LBE5311:
.LBE5317:
.LBE5322:
.LBB5323:
.LBB5324:
	.loc 10 773 0
	lwz 3,236(31)
.LBE5324:
.LBE5323:
.LBB5326:
.LBB5318:
	.loc 11 140 0
	addi 11,11,-4
.LBE5318:
.LBE5326:
.LBB5327:
.LBB5328:
.LBB5329:
	.loc 3 412 0
	lwz 9,240(31)
.LBE5329:
.LBE5328:
.LBE5327:
.LBB5341:
.LBB5325:
	.loc 10 773 0
	add 3,3,30
.LBE5325:
.LBE5341:
.LBB5342:
.LBB5319:
	.loc 11 140 0
	stw 11,228(31)
.LVL391:
.LBE5319:
.LBE5342:
.LBB5343:
.LBB5338:
.LBB5330:
.LBB5331:
	.loc 10 773 0
	addi 4,3,4
.LBE5331:
.LBE5330:
	.loc 11 138 0
	cmpw 7,4,9
	beq- 7,.L290
.LVL392:
.LBB5332:
.LBB5333:
.LBB5334:
.LBB5335:
.LBB5336:
.LBB5337:
	.loc 12 364 0
	subf 5,4,9
.LVL393:
	.loc 12 365 0
	srawi. 5,5,2
.LVL394:
	beq+ 0,.L290
	.loc 12 366 0
	slwi 5,5,2
.LVL395:
	bl memmove
.LVL396:
	lwz 9,240(31)
.LVL397:
.L290:
.LBE5337:
.LBE5336:
.LBE5335:
.LBE5334:
.LBE5333:
.LBE5332:
.LBE5338:
.LBE5343:
.LBB5344:
.LBB5345:
	.loc 10 773 0
	lwz 3,248(31)
.LBE5345:
.LBE5344:
.LBB5347:
.LBB5339:
	.loc 11 140 0
	addi 9,9,-4
.LBE5339:
.LBE5347:
.LBB5348:
.LBB5349:
.LBB5350:
	.loc 3 412 0
	lwz 11,252(31)
.LBE5350:
.LBE5349:
.LBE5348:
.LBB5360:
.LBB5346:
	.loc 10 773 0
	add 3,3,30
.LBE5346:
.LBE5360:
.LBB5361:
.LBB5340:
	.loc 11 140 0
	stw 9,240(31)
.LVL398:
.LBE5340:
.LBE5361:
.LBB5362:
.LBB5359:
.LBB5351:
.LBB5352:
	.loc 10 773 0
	addi 4,3,4
.LBE5352:
.LBE5351:
	.loc 11 138 0
	cmpw 7,4,11
	beq- 7,.L291
.LVL399:
.LBB5353:
.LBB5354:
.LBB5355:
.LBB5356:
.LBB5357:
.LBB5358:
	.loc 12 364 0
	subf 5,4,11
.LVL400:
	.loc 12 365 0
	srawi. 5,5,2
.LVL401:
	beq+ 0,.L291
	.loc 12 366 0
	slwi 5,5,2
.LVL402:
	bl memmove
.LVL403:
	lwz 11,252(31)
.LVL404:
.L291:
.LBE5358:
.LBE5357:
.LBE5356:
.LBE5355:
.LBE5354:
.LBE5353:
	.loc 11 140 0
	addi 11,11,-4
	stw 11,252(31)
.LVL405:
.L280:
.LBE5359:
.LBE5362:
	.loc 3 179 0
	lwz 0,20(1)
	lwz 30,8(1)
	mtlr 0
	lwz 31,12(1)
.LVL406:
	addi 1,1,16
.LCFI94:
	.cfi_def_cfa_offset 0
	.cfi_restore 31
	.cfi_restore 30
	blr
	.cfi_endproc
.LFE1617:
	.size	_ZN15ListFileBrowser12RemoveButtonEi, .-_ZN15ListFileBrowser12RemoveButtonEi
	.align 2
	.globl _ZN15ListFileBrowser14GetIconFromExtESsb
	.type	_ZN15ListFileBrowser14GetIconFromExtESsb, @function
_ZN15ListFileBrowser14GetIconFromExtESsb:
.LFB1619:
	.loc 3 227 0
	.cfi_startproc
	.cfi_personality 0,__gxx_personality_v0
	.cfi_lsda 0,.LLSDA1619
.LVL407:
	.loc 3 228 0
	cmpwi 7,5,0
	.loc 3 227 0
	mflr 0
	stwu 1,-24(1)
.LCFI95:
	.cfi_def_cfa_offset 24
	.cfi_register 65, 0
	stw 30,16(1)
	mr 30,3
	.cfi_offset 30, -8
	stw 31,20(1)
	mr 31,4
	.cfi_offset 31, -4
	stw 0,28(1)
	stw 29,12(1)
	.loc 3 228 0
	bne- 7,.L332
	.cfi_offset 29, -12
	.cfi_offset 65, 4
.LVL408:
.LBB5363:
.LBB5364:
.LBB5365:
	.loc 9 711 0
	lwz 9,0(4)
.LBE5365:
.LBE5364:
.LBE5363:
	.loc 3 231 0
	lwz 0,-12(9)
	cmpwi 7,0,0
	bne- 7,.L333
.LVL409:
.L298:
	.loc 3 272 0
	li 3,196
.LEHB55:
	bl _Znwj
.LEHE55:
	lwz 4,284(30)
	mr 31,3
.LVL410:
.LEHB56:
	bl _ZN8GuiImageC1EP12GuiImageData
.LEHE56:
.L297:
	.loc 3 273 0
	lwz 0,28(1)
	mr 3,31
	lwz 29,12(1)
	mtlr 0
	lwz 30,16(1)
.LVL411:
	lwz 31,20(1)
	addi 1,1,24
	.cfi_remember_state
.LCFI96:
	.cfi_def_cfa_offset 0
	.cfi_restore 31
	.cfi_restore 30
	.cfi_restore 29
	blr
.LVL412:
.L333:
.LCFI97:
	.cfi_restore_state
	.loc 3 233 0
	mr 3,4
.LVL413:
	lis 4,.LC4@ha
.LVL414:
	la 4,.LC4@l(4)
.LEHB57:
	bl _ZNKSs7compareEPKc
.LVL415:
	cmpwi 7,3,0
	beq- 7,.L334
.LVL416:
	.loc 3 237 0
	lis 29,Settings+2580@ha
	lwz 4,0(31)
	la 29,Settings+2580@l(29)
	mr 3,29
	bl _ZN16CFilesExtensions15CompareHomebrewEPKc
	cmpwi 7,3,0
	bne- 7,.L300
	.loc 3 239 0
	li 3,196
	bl _Znwj
.LEHE57:
	lwz 4,288(30)
	mr 31,3
.LVL417:
.LEHB58:
	bl _ZN8GuiImageC1EP12GuiImageData
.LEHE58:
	b .L297
.LVL418:
.L332:
	.loc 3 229 0
	li 3,196
.LEHB59:
	bl _Znwj
.LEHE59:
.LVL419:
	lwz 4,292(30)
	mr 31,3
.LVL420:
.LEHB60:
	bl _ZN8GuiImageC1EP12GuiImageData
.LEHE60:
	.loc 3 273 0
	lwz 0,28(1)
	mr 3,31
	lwz 29,12(1)
	mtlr 0
	lwz 30,16(1)
.LVL421:
	lwz 31,20(1)
	addi 1,1,24
	.cfi_remember_state
	.cfi_restore 29
	.cfi_restore 30
	.cfi_restore 31
.LCFI98:
	.cfi_def_cfa_offset 0
	blr
.LVL422:
.L334:
.LCFI99:
	.cfi_restore_state
	.loc 3 235 0
	li 3,196
.LEHB61:
	bl _Znwj
.LEHE61:
	lwz 4,276(30)
	mr 31,3
.LVL423:
.LEHB62:
	bl _ZN8GuiImageC1EP12GuiImageData
.LEHE62:
	.loc 3 273 0
	lwz 0,28(1)
	mr 3,31
	lwz 29,12(1)
	mtlr 0
	lwz 30,16(1)
.LVL424:
	lwz 31,20(1)
	addi 1,1,24
	.cfi_remember_state
	.cfi_restore 29
	.cfi_restore 30
	.cfi_restore 31
.LCFI100:
	.cfi_def_cfa_offset 0
	blr
.LVL425:
.L300:
.LCFI101:
	.cfi_restore_state
	.loc 3 241 0
	lwz 4,0(31)
	mr 3,29
.LEHB63:
	bl _ZN16CFilesExtensions11CompareFontEPKc
	cmpwi 7,3,0
	beq- 7,.L335
.LVL426:
	.loc 3 245 0
	lwz 4,0(31)
	mr 3,29
	bl _ZN16CFilesExtensions12CompareImageEPKc
	cmpwi 7,3,0
	bne- 7,.L302
	.loc 3 247 0
	li 3,196
	bl _Znwj
.LEHE63:
	lwz 4,300(30)
	mr 31,3
.LVL427:
.LEHB64:
	bl _ZN8GuiImageC1EP12GuiImageData
.LEHE64:
	b .L297
.LVL428:
.L335:
	.loc 3 243 0
	li 3,196
.LEHB65:
	bl _Znwj
.LEHE65:
	lwz 4,296(30)
	mr 31,3
.LVL429:
.LEHB66:
	bl _ZN8GuiImageC1EP12GuiImageData
.LEHE66:
	b .L297
.LVL430:
.L302:
	.loc 3 249 0
	lwz 4,0(31)
	mr 3,29
.LEHB67:
	bl _ZN16CFilesExtensions20CompareLanguageFilesEPKc
	cmpwi 7,3,0
	bne- 7,.L303
	.loc 3 251 0
	li 3,196
	bl _Znwj
.LEHE67:
	lwz 4,304(30)
	mr 31,3
.LVL431:
.LEHB68:
	bl _ZN8GuiImageC1EP12GuiImageData
.LEHE68:
	b .L297
.LVL432:
.L303:
	.loc 3 253 0
	lwz 4,0(31)
	mr 3,29
.LEHB69:
	bl _ZN16CFilesExtensions12CompareAudioEPKc
	cmpwi 7,3,0
	bne- 7,.L304
	.loc 3 255 0
	li 3,196
	bl _Znwj
.LEHE69:
	lwz 4,312(30)
	mr 31,3
.LVL433:
.LEHB70:
	bl _ZN8GuiImageC1EP12GuiImageData
.LEHE70:
	b .L297
.LVL434:
.L304:
	.loc 3 257 0
	lwz 4,0(31)
	mr 3,29
.LEHB71:
	bl _ZN16CFilesExtensions17CompareThemeFilesEPKc
	cmpwi 7,3,0
	bne- 7,.L305
	.loc 3 259 0
	li 3,196
	bl _Znwj
.LEHE71:
	lwz 4,316(30)
	mr 31,3
.LVL435:
.LEHB72:
	bl _ZN8GuiImageC1EP12GuiImageData
.LEHE72:
	b .L297
.LVL436:
.L305:
	.loc 3 261 0
	lis 4,.LC5@ha
	mr 3,31
	la 4,.LC5@l(4)
.LEHB73:
	bl _ZNKSs7compareEPKc
	cmpwi 7,3,0
	bne- 7,.L336
.L306:
	.loc 3 264 0 discriminator 4
	li 3,196
	bl _Znwj
.LEHE73:
	lwz 4,320(30)
	mr 31,3
.LVL437:
.LEHB74:
	bl _ZN8GuiImageC1EP12GuiImageData
.LEHE74:
	b .L297
.LVL438:
.L336:
	.loc 3 262 0 discriminator 2
	lis 4,.LC6@ha
	mr 3,31
	la 4,.LC6@l(4)
.LEHB75:
	bl _ZNKSs7compareEPKc
	.loc 3 261 0 discriminator 2
	cmpwi 7,3,0
	beq- 7,.L306
	.loc 3 266 0
	lis 4,.LC7@ha
	mr 3,31
	la 4,.LC7@l(4)
	bl _ZNKSs7compareEPKc
	cmpwi 7,3,0
	bne+ 7,.L298
	.loc 3 268 0
	li 3,196
	bl _Znwj
.LEHE75:
	lwz 4,324(30)
	mr 31,3
.LVL439:
.LEHB76:
	bl _ZN8GuiImageC1EP12GuiImageData
.LEHE76:
	b .L297
.L327:
.L331:
	mr 30,3
.LVL440:
	.loc 3 235 0
	mr 3,31
	bl _ZdlPv
	mr 3,30
.LEHB77:
	bl _Unwind_Resume
.LEHE77:
.LVL441:
.L328:
	b .L331
.L329:
	b .L331
.L321:
	b .L331
.L322:
	b .L331
.L320:
	b .L331
.L330:
	b .L331
.L324:
	b .L331
.L323:
	b .L331
.L325:
	b .L331
.L326:
	b .L331
	.cfi_endproc
.LFE1619:
	.section	.gcc_except_table
.LLSDA1619:
	.byte	0xff
	.byte	0xff
	.byte	0x1
	.uleb128 .LLSDACSE1619-.LLSDACSB1619
.LLSDACSB1619:
	.uleb128 .LEHB55-.LFB1619
	.uleb128 .LEHE55-.LEHB55
	.uleb128 0
	.uleb128 0
	.uleb128 .LEHB56-.LFB1619
	.uleb128 .LEHE56-.LEHB56
	.uleb128 .L330-.LFB1619
	.uleb128 0
	.uleb128 .LEHB57-.LFB1619
	.uleb128 .LEHE57-.LEHB57
	.uleb128 0
	.uleb128 0
	.uleb128 .LEHB58-.LFB1619
	.uleb128 .LEHE58-.LEHB58
	.uleb128 .L322-.LFB1619
	.uleb128 0
	.uleb128 .LEHB59-.LFB1619
	.uleb128 .LEHE59-.LEHB59
	.uleb128 0
	.uleb128 0
	.uleb128 .LEHB60-.LFB1619
	.uleb128 .LEHE60-.LEHB60
	.uleb128 .L320-.LFB1619
	.uleb128 0
	.uleb128 .LEHB61-.LFB1619
	.uleb128 .LEHE61-.LEHB61
	.uleb128 0
	.uleb128 0
	.uleb128 .LEHB62-.LFB1619
	.uleb128 .LEHE62-.LEHB62
	.uleb128 .L321-.LFB1619
	.uleb128 0
	.uleb128 .LEHB63-.LFB1619
	.uleb128 .LEHE63-.LEHB63
	.uleb128 0
	.uleb128 0
	.uleb128 .LEHB64-.LFB1619
	.uleb128 .LEHE64-.LEHB64
	.uleb128 .L324-.LFB1619
	.uleb128 0
	.uleb128 .LEHB65-.LFB1619
	.uleb128 .LEHE65-.LEHB65
	.uleb128 0
	.uleb128 0
	.uleb128 .LEHB66-.LFB1619
	.uleb128 .LEHE66-.LEHB66
	.uleb128 .L323-.LFB1619
	.uleb128 0
	.uleb128 .LEHB67-.LFB1619
	.uleb128 .LEHE67-.LEHB67
	.uleb128 0
	.uleb128 0
	.uleb128 .LEHB68-.LFB1619
	.uleb128 .LEHE68-.LEHB68
	.uleb128 .L325-.LFB1619
	.uleb128 0
	.uleb128 .LEHB69-.LFB1619
	.uleb128 .LEHE69-.LEHB69
	.uleb128 0
	.uleb128 0
	.uleb128 .LEHB70-.LFB1619
	.uleb128 .LEHE70-.LEHB70
	.uleb128 .L326-.LFB1619
	.uleb128 0
	.uleb128 .LEHB71-.LFB1619
	.uleb128 .LEHE71-.LEHB71
	.uleb128 0
	.uleb128 0
	.uleb128 .LEHB72-.LFB1619
	.uleb128 .LEHE72-.LEHB72
	.uleb128 .L327-.LFB1619
	.uleb128 0
	.uleb128 .LEHB73-.LFB1619
	.uleb128 .LEHE73-.LEHB73
	.uleb128 0
	.uleb128 0
	.uleb128 .LEHB74-.LFB1619
	.uleb128 .LEHE74-.LEHB74
	.uleb128 .L328-.LFB1619
	.uleb128 0
	.uleb128 .LEHB75-.LFB1619
	.uleb128 .LEHE75-.LEHB75
	.uleb128 0
	.uleb128 0
	.uleb128 .LEHB76-.LFB1619
	.uleb128 .LEHE76-.LEHB76
	.uleb128 .L329-.LFB1619
	.uleb128 0
	.uleb128 .LEHB77-.LFB1619
	.uleb128 .LEHE77-.LEHB77
	.uleb128 0
	.uleb128 0
.LLSDACSE1619:
	.section	".text"
	.size	_ZN15ListFileBrowser14GetIconFromExtESsb, .-_ZN15ListFileBrowser14GetIconFromExtESsb
	.section	.text._ZNSt6vectorIP7GuiTextSaIS1_EED2Ev,"axG",@progbits,_ZNSt6vectorIP7GuiTextSaIS1_EED5Ev,comdat
	.align 2
	.weak	_ZNSt6vectorIP7GuiTextSaIS1_EED2Ev
	.type	_ZNSt6vectorIP7GuiTextSaIS1_EED2Ev, @function
_ZNSt6vectorIP7GuiTextSaIS1_EED2Ev:
.LFB1691:
	.loc 7 349 0
	.cfi_startproc
.LVL442:
	mflr 0
	stwu 1,-8(1)
.LCFI102:
	.cfi_def_cfa_offset 8
	.cfi_register 65, 0
	stw 0,12(1)
	.loc 3 412 0
	lwz 3,0(3)
.LVL443:
.LBB5378:
.LBB5379:
.LBB5380:
.LBB5381:
	.loc 7 155 0
	cmpwi 7,3,0
	beq- 7,.L337
	.cfi_offset 65, 4
.LVL444:
.LBB5382:
.LBB5383:
	.loc 8 98 0
	bl _ZdlPv
.LVL445:
.L337:
.LBE5383:
.LBE5382:
.LBE5381:
.LBE5380:
.LBE5379:
.LBE5378:
	.loc 7 351 0
	lwz 0,12(1)
	addi 1,1,8
.LCFI103:
	.cfi_def_cfa_offset 0
	mtlr 0
	blr
	.cfi_endproc
.LFE1691:
	.size	_ZNSt6vectorIP7GuiTextSaIS1_EED2Ev, .-_ZNSt6vectorIP7GuiTextSaIS1_EED2Ev
	.section	.text._ZNSt6vectorIP8GuiImageSaIS1_EED2Ev,"axG",@progbits,_ZNSt6vectorIP8GuiImageSaIS1_EED5Ev,comdat
	.align 2
	.weak	_ZNSt6vectorIP8GuiImageSaIS1_EED2Ev
	.type	_ZNSt6vectorIP8GuiImageSaIS1_EED2Ev, @function
_ZNSt6vectorIP8GuiImageSaIS1_EED2Ev:
.LFB1697:
	.loc 7 349 0
	.cfi_startproc
.LVL446:
	mflr 0
	stwu 1,-8(1)
.LCFI104:
	.cfi_def_cfa_offset 8
	.cfi_register 65, 0
	stw 0,12(1)
	.loc 3 412 0
	lwz 3,0(3)
.LVL447:
.LBB5396:
.LBB5397:
.LBB5398:
.LBB5399:
	.loc 7 155 0
	cmpwi 7,3,0
	beq- 7,.L343
	.cfi_offset 65, 4
.LVL448:
.LBB5400:
.LBB5401:
	.loc 8 98 0
	bl _ZdlPv
.LVL449:
.L343:
.LBE5401:
.LBE5400:
.LBE5399:
.LBE5398:
.LBE5397:
.LBE5396:
	.loc 7 351 0
	lwz 0,12(1)
	addi 1,1,8
.LCFI105:
	.cfi_def_cfa_offset 0
	mtlr 0
	blr
	.cfi_endproc
.LFE1697:
	.size	_ZNSt6vectorIP8GuiImageSaIS1_EED2Ev, .-_ZNSt6vectorIP8GuiImageSaIS1_EED2Ev
	.section	.text._ZNSt8_Rb_treeIPN7sigslot12_signal_baseINS0_15single_threadedEEES4_St9_IdentityIS4_ESt4lessIS4_ESaIS4_EE8_M_eraseEPSt13_Rb_tree_nodeIS4_E,"axG",@progbits,_ZNSt8_Rb_treeIPN7sigslot12_signal_baseINS0_15single_threadedEEES4_St9_IdentityIS4_ESt4lessIS4_ESaIS4_EE8_M_eraseEPSt13_Rb_tree_nodeIS4_E,comdat
	.align 2
	.weak	_ZNSt8_Rb_treeIPN7sigslot12_signal_baseINS0_15single_threadedEEES4_St9_IdentityIS4_ESt4lessIS4_ESaIS4_EE8_M_eraseEPSt13_Rb_tree_nodeIS4_E
	.type	_ZNSt8_Rb_treeIPN7sigslot12_signal_baseINS0_15single_threadedEEES4_St9_IdentityIS4_ESt4lessIS4_ESaIS4_EE8_M_eraseEPSt13_Rb_tree_nodeIS4_E, @function
_ZNSt8_Rb_treeIPN7sigslot12_signal_baseINS0_15single_threadedEEES4_St9_IdentityIS4_ESt4lessIS4_ESaIS4_EE8_M_eraseEPSt13_Rb_tree_nodeIS4_E:
.LFB1948:
	.file 13 "d:\\devkitpro\\devkitppc\\bin\\../lib/gcc/powerpc-eabi/4.6.3/../../../../powerpc-eabi/include/c++/4.6.3/bits/stl_tree.h"
	.loc 13 1068 0
	.cfi_startproc
.LVL450:
	stwu 1,-56(1)
.LCFI106:
	.cfi_def_cfa_offset 56
	mflr 0
	stw 22,16(1)
.LBB5518:
	.loc 13 1072 0
	mr. 22,4
	.cfi_offset 22, -40
	.cfi_register 65, 0
.LBE5518:
	.loc 13 1068 0
	stw 30,48(1)
	mr 30,3
	.cfi_offset 30, -8
	stw 0,60(1)
	stw 21,12(1)
	stw 23,20(1)
	stw 24,24(1)
	stw 25,28(1)
	stw 26,32(1)
	stw 27,36(1)
	stw 28,40(1)
	stw 29,44(1)
	stw 31,52(1)
.LBB5603:
	.loc 13 1072 0
	beq- 0,.L349
	.cfi_offset 31, -4
	.cfi_offset 29, -12
	.cfi_offset 28, -16
	.cfi_offset 27, -20
	.cfi_offset 26, -24
	.cfi_offset 25, -28
	.cfi_offset 24, -32
	.cfi_offset 23, -36
	.cfi_offset 21, -44
	.cfi_offset 65, 4
.LVL451:
.L395:
	.loc 3 412 0
	lwz 27,12(22)
.LVL452:
.LBB5519:
.LBB5520:
.LBB5521:
	.loc 13 1072 0
	cmpwi 7,27,0
	beq- 7,.L351
.LVL453:
.L396:
.LBE5521:
	.loc 3 412 0
	lwz 26,12(27)
.LVL454:
.LBB5597:
.LBB5522:
.LBB5523:
.LBB5524:
	.loc 13 1072 0
	cmpwi 7,26,0
	beq- 7,.L352
.LVL455:
.L397:
.LBE5524:
	.loc 3 412 0
	lwz 25,12(26)
.LVL456:
.LBB5590:
.LBB5525:
.LBB5526:
.LBB5527:
	.loc 13 1072 0
	cmpwi 7,25,0
	beq- 7,.L353
.LVL457:
.L398:
.LBE5527:
	.loc 3 412 0
	lwz 24,12(25)
.LVL458:
.LBB5583:
.LBB5528:
.LBB5529:
.LBB5530:
	.loc 13 1072 0
	cmpwi 7,24,0
	beq- 7,.L354
.LVL459:
.L399:
.LBE5530:
	.loc 3 412 0
	lwz 23,12(24)
.LVL460:
.LBB5576:
.LBB5531:
.LBB5532:
.LBB5533:
	.loc 13 1072 0
	cmpwi 7,23,0
	beq- 7,.L355
.LVL461:
.L400:
.LBE5533:
	.loc 3 412 0
	lwz 28,12(23)
.LVL462:
.LBB5569:
.LBB5534:
.LBB5535:
.LBB5536:
	.loc 13 1072 0
	cmpwi 7,28,0
	beq- 7,.L356
.LVL463:
.L401:
.LBE5536:
	.loc 3 412 0
	lwz 29,12(28)
.LVL464:
.LBB5562:
.LBB5537:
.LBB5538:
.LBB5539:
	.loc 13 1072 0
	cmpwi 7,29,0
	beq- 7,.L357
.LVL465:
.L402:
.LBE5539:
	.loc 3 412 0
	lwz 31,12(29)
.LVL466:
.LBB5555:
.LBB5540:
.LBB5541:
.LBB5542:
	.loc 13 1072 0
	cmpwi 7,31,0
	beq- 7,.L358
.LVL467:
.L403:
.LBB5543:
	.loc 13 1074 0
	lwz 4,12(31)
	mr 3,30
	bl _ZNSt8_Rb_treeIPN7sigslot12_signal_baseINS0_15single_threadedEEES4_St9_IdentityIS4_ESt4lessIS4_ESaIS4_EE8_M_eraseEPSt13_Rb_tree_nodeIS4_E
.LBE5543:
.LBE5542:
	.loc 3 412 0
	lwz 21,8(31)
.LVL468:
.LBB5549:
.LBB5548:
.LBB5544:
.LBB5545:
.LBB5546:
.LBB5547:
	.loc 8 98 0
	mr 3,31
	bl _ZdlPv
.LVL469:
.LBE5547:
.LBE5546:
.LBE5545:
.LBE5544:
.LBE5548:
	.loc 13 1072 0
	cmpwi 7,21,0
	.loc 13 1077 0
	mr 31,21
.LVL470:
	.loc 13 1072 0
	bne+ 7,.L403
.LVL471:
.L358:
.LBE5549:
.LBE5541:
.LBE5540:
.LBE5555:
	.loc 3 412 0
	lwz 31,8(29)
.LVL472:
.LBB5556:
.LBB5554:
.LBB5550:
.LBB5551:
.LBB5552:
.LBB5553:
	.loc 8 98 0
	mr 3,29
	bl _ZdlPv
.LVL473:
.LBE5553:
.LBE5552:
.LBE5551:
.LBE5550:
.LBE5554:
	.loc 13 1072 0
	cmpwi 7,31,0
	beq- 7,.L357
	.loc 13 1077 0
	mr 29,31
.LVL474:
	b .L402
.LVL475:
.L357:
.LBE5556:
.LBE5538:
.LBE5537:
.LBE5562:
	.loc 3 412 0
	lwz 31,8(28)
.LVL476:
.LBB5563:
.LBB5561:
.LBB5557:
.LBB5558:
.LBB5559:
.LBB5560:
	.loc 8 98 0
	mr 3,28
	bl _ZdlPv
.LVL477:
.LBE5560:
.LBE5559:
.LBE5558:
.LBE5557:
.LBE5561:
	.loc 13 1072 0
	cmpwi 7,31,0
	beq- 7,.L356
	.loc 13 1077 0
	mr 28,31
.LVL478:
	b .L401
.LVL479:
.L356:
.LBE5563:
.LBE5535:
.LBE5534:
.LBE5569:
	.loc 3 412 0
	lwz 31,8(23)
.LVL480:
.LBB5570:
.LBB5568:
.LBB5564:
.LBB5565:
.LBB5566:
.LBB5567:
	.loc 8 98 0
	mr 3,23
	bl _ZdlPv
.LVL481:
.LBE5567:
.LBE5566:
.LBE5565:
.LBE5564:
.LBE5568:
	.loc 13 1072 0
	cmpwi 7,31,0
	beq- 7,.L355
	.loc 13 1077 0
	mr 23,31
.LVL482:
	b .L400
.LVL483:
.L355:
.LBE5570:
.LBE5532:
.LBE5531:
.LBE5576:
	.loc 3 412 0
	lwz 31,8(24)
.LVL484:
.LBB5577:
.LBB5575:
.LBB5571:
.LBB5572:
.LBB5573:
.LBB5574:
	.loc 8 98 0
	mr 3,24
	bl _ZdlPv
.LVL485:
.LBE5574:
.LBE5573:
.LBE5572:
.LBE5571:
.LBE5575:
	.loc 13 1072 0
	cmpwi 7,31,0
	beq- 7,.L354
	.loc 13 1077 0
	mr 24,31
.LVL486:
	b .L399
.LVL487:
.L354:
.LBE5577:
.LBE5529:
.LBE5528:
.LBE5583:
	.loc 3 412 0
	lwz 31,8(25)
.LVL488:
.LBB5584:
.LBB5582:
.LBB5578:
.LBB5579:
.LBB5580:
.LBB5581:
	.loc 8 98 0
	mr 3,25
	bl _ZdlPv
.LVL489:
.LBE5581:
.LBE5580:
.LBE5579:
.LBE5578:
.LBE5582:
	.loc 13 1072 0
	cmpwi 7,31,0
	beq- 7,.L353
	.loc 13 1077 0
	mr 25,31
.LVL490:
	b .L398
.LVL491:
.L353:
.LBE5584:
.LBE5526:
.LBE5525:
.LBE5590:
	.loc 3 412 0
	lwz 31,8(26)
.LVL492:
.LBB5591:
.LBB5589:
.LBB5585:
.LBB5586:
.LBB5587:
.LBB5588:
	.loc 8 98 0
	mr 3,26
	bl _ZdlPv
.LVL493:
.LBE5588:
.LBE5587:
.LBE5586:
.LBE5585:
.LBE5589:
	.loc 13 1072 0
	cmpwi 7,31,0
	beq- 7,.L352
	.loc 13 1077 0
	mr 26,31
.LVL494:
	b .L397
.LVL495:
.L352:
.LBE5591:
.LBE5523:
.LBE5522:
.LBE5597:
	.loc 3 412 0
	lwz 31,8(27)
.LVL496:
.LBB5598:
.LBB5596:
.LBB5592:
.LBB5593:
.LBB5594:
.LBB5595:
	.loc 8 98 0
	mr 3,27
	bl _ZdlPv
.LVL497:
.LBE5595:
.LBE5594:
.LBE5593:
.LBE5592:
.LBE5596:
	.loc 13 1072 0
	cmpwi 7,31,0
	beq- 7,.L351
	.loc 13 1077 0
	mr 27,31
.LVL498:
	b .L396
.LVL499:
.L351:
	.loc 3 412 0
	lwz 31,8(22)
.LVL500:
.LBE5598:
.LBE5520:
.LBB5599:
.LBB5600:
.LBB5601:
.LBB5602:
	.loc 8 98 0
	mr 3,22
	bl _ZdlPv
.LVL501:
.LBE5602:
.LBE5601:
.LBE5600:
.LBE5599:
.LBE5519:
	.loc 13 1072 0
	cmpwi 7,31,0
	beq- 7,.L349
	.loc 13 1077 0
	mr 22,31
.LVL502:
	b .L395
.LVL503:
.L349:
.LBE5603:
	.loc 13 1079 0
	lwz 0,60(1)
	lwz 21,12(1)
	mtlr 0
	lwz 22,16(1)
	lwz 23,20(1)
	lwz 24,24(1)
	lwz 25,28(1)
	lwz 26,32(1)
	lwz 27,36(1)
	lwz 28,40(1)
	lwz 29,44(1)
	lwz 30,48(1)
.LVL504:
	lwz 31,52(1)
	addi 1,1,56
.LCFI107:
	.cfi_def_cfa_offset 0
	.cfi_restore 31
	.cfi_restore 30
	.cfi_restore 29
	.cfi_restore 28
	.cfi_restore 27
	.cfi_restore 26
	.cfi_restore 25
	.cfi_restore 24
	.cfi_restore 23
	.cfi_restore 22
	.cfi_restore 21
	blr
	.cfi_endproc
.LFE1948:
	.size	_ZNSt8_Rb_treeIPN7sigslot12_signal_baseINS0_15single_threadedEEES4_St9_IdentityIS4_ESt4lessIS4_ESaIS4_EE8_M_eraseEPSt13_Rb_tree_nodeIS4_E, .-_ZNSt8_Rb_treeIPN7sigslot12_signal_baseINS0_15single_threadedEEES4_St9_IdentityIS4_ESt4lessIS4_ESaIS4_EE8_M_eraseEPSt13_Rb_tree_nodeIS4_E
	.section	.text._ZN7sigslot9has_slotsINS_15single_threadedEED2Ev,"axG",@progbits,_ZN7sigslot9has_slotsINS_15single_threadedEED5Ev,comdat
	.align 2
	.weak	_ZN7sigslot9has_slotsINS_15single_threadedEED2Ev
	.type	_ZN7sigslot9has_slotsINS_15single_threadedEED2Ev, @function
_ZN7sigslot9has_slotsINS_15single_threadedEED2Ev:
.LFB1684:
	.loc 1 513 0
	.cfi_startproc
	.cfi_personality 0,__gxx_personality_v0
	.cfi_lsda 0,.LLSDA1684
.LVL505:
	mflr 0
	stwu 1,-32(1)
.LCFI108:
	.cfi_def_cfa_offset 32
	.cfi_register 65, 0
.LBB5750:
	.loc 1 516 0
	lis 9,_ZTVN7sigslot9has_slotsINS_15single_threadedEEE+8@ha
.LBE5750:
	.loc 1 513 0
	stw 28,16(1)
	addi 28,3,4
	.cfi_offset 28, -16
	stw 0,36(1)
.LBB5826:
	.loc 1 516 0
	la 0,_ZTVN7sigslot9has_slotsINS_15single_threadedEEE+8@l(9)
	.cfi_offset 65, 4
.LBE5826:
	.loc 1 513 0
	stw 29,20(1)
	mr 29,3
	.cfi_offset 29, -12
	stw 26,8(1)
	stw 27,12(1)
	stw 30,24(1)
	stw 31,28(1)
.LBB5827:
	.loc 1 516 0
	stw 0,0(3)
.LVL506:
.LEHB78:
.LBB5751:
.LBB5752:
.LBB5753:
.LBB5754:
	.loc 1 338 0
	.cfi_offset 31, -4
	.cfi_offset 30, -8
	.cfi_offset 27, -20
	.cfi_offset 26, -24
	bl _ZN7sigslot15single_threaded4lockEv
.LEHE78:
.LVL507:
.LBE5754:
.LBE5753:
.LBB5755:
	.loc 3 412 0
	lwz 31,16(29)
.LVL508:
.LBE5755:
.LBB5756:
.LBB5757:
.LBB5758:
	.loc 13 671 0
	addi 30,28,4
.LVL509:
.LBE5758:
.LBE5757:
.LBE5756:
	.loc 1 524 0
	cmpw 7,31,30
	beq- 7,.L405
.LVL510:
.L432:
	.loc 1 526 0
	lwz 3,16(31)
	mr 4,29
	lwz 9,0(3)
	lwz 0,16(9)
	mtctr 0
.LEHB79:
	bctrl
.LEHE79:
.LVL511:
.LBB5759:
.LBB5760:
	.loc 13 269 0
	mr 3,31
	bl _ZSt18_Rb_tree_incrementPKSt18_Rb_tree_node_base
.LBE5760:
.LBE5759:
	.loc 1 524 0
	cmpw 7,30,3
.LBB5762:
.LBB5761:
	.loc 13 269 0
	mr 31,3
.LVL512:
.LBE5761:
.LBE5762:
	.loc 1 524 0
	bne+ 7,.L432
	lwz 31,16(29)
.LVL513:
.L405:
.LBB5763:
.LBB5764:
.LBB5765:
.LBB5766:
.LBB5767:
.LBB5768:
.LBB5769:
	.loc 13 665 0
	addi 26,28,4
.LBE5769:
.LBE5768:
	.loc 13 1500 0
	cmpw 7,30,26
	beq- 7,.L407
.LVL514:
	.loc 13 1503 0
	cmpw 7,30,31
	bne+ 7,.L434
	b .L408
.LVL515:
.L429:
	.loc 13 277 0
	mr 31,27
.LVL516:
.L434:
.LBB5770:
.LBB5771:
	mr 3,31
	bl _ZSt18_Rb_tree_incrementPKSt18_Rb_tree_node_base
.LBE5771:
.LBE5770:
.LBB5773:
.LBB5774:
.LBB5775:
	.loc 13 1489 0
	mr 4,26
.LBE5775:
.LBE5774:
.LBE5773:
.LBB5784:
.LBB5772:
	.loc 13 277 0
	mr 27,3
.LVL517:
.LBE5772:
.LBE5784:
.LBB5785:
.LBB5782:
.LBB5780:
	.loc 13 1489 0
	mr 3,31
.LVL518:
	bl _ZSt28_Rb_tree_rebalance_for_erasePSt18_Rb_tree_node_baseRS_
.LBB5776:
.LBB5777:
.LBB5778:
.LBB5779:
	.loc 8 98 0
	bl _ZdlPv
.LBE5779:
.LBE5778:
.LBE5777:
.LBE5776:
.LBE5780:
.LBE5782:
.LBE5785:
	.loc 13 1503 0
	cmpw 7,30,27
.LBB5786:
.LBB5783:
.LBB5781:
	.loc 13 1491 0
	lwz 9,20(28)
	addi 0,9,-1
	stw 0,20(28)
.LBE5781:
.LBE5783:
.LBE5786:
	.loc 13 1503 0
	bne+ 7,.L429
.LVL519:
.L408:
.LBE5767:
.LBE5766:
.LBE5765:
.LBE5764:
.LBE5763:
.LBB5795:
.LBB5796:
.LBB5797:
	.loc 1 343 0
	lwz 9,0(29)
	mr 3,29
	lwz 0,12(9)
	mtctr 0
.LEHB80:
	bctrl
.LEHE80:
.LVL520:
.LBE5797:
.LBE5796:
.LBE5795:
.LBE5752:
.LBE5751:
.LBB5804:
.LBB5805:
.LBB5806:
.LBB5807:
.LBB5808:
	.loc 13 639 0
	lwz 4,12(29)
	mr 3,28
	bl _ZNSt8_Rb_treeIPN7sigslot12_signal_baseINS0_15single_threadedEEES4_St9_IdentityIS4_ESt4lessIS4_ESaIS4_EE8_M_eraseEPSt13_Rb_tree_nodeIS4_E
.LVL521:
.LBE5808:
.LBE5807:
.LBE5806:
.LBE5805:
.LBE5804:
.LBB5809:
.LBB5810:
.LBB5811:
	.loc 1 105 0
	lis 9,_ZTVN7sigslot15single_threadedE+8@ha
	la 0,_ZTVN7sigslot15single_threadedE+8@l(9)
.LBE5811:
.LBE5810:
.LBE5809:
.LBE5827:
	.loc 1 516 0
	lwz 26,8(1)
.LBB5828:
.LBB5814:
.LBB5813:
.LBB5812:
	.loc 1 105 0
	stw 0,0(29)
.LBE5812:
.LBE5813:
.LBE5814:
.LBE5828:
	.loc 1 516 0
	lwz 0,36(1)
	lwz 27,12(1)
	mtlr 0
	lwz 28,16(1)
.LVL522:
	lwz 29,20(1)
.LVL523:
	lwz 30,24(1)
.LVL524:
	lwz 31,28(1)
	addi 1,1,32
	.cfi_remember_state
.LCFI109:
	.cfi_def_cfa_offset 0
	.cfi_restore 31
	.cfi_restore 30
	.cfi_restore 29
	.cfi_restore 28
	.cfi_restore 27
	.cfi_restore 26
	blr
.LVL525:
.L407:
.LCFI110:
	.cfi_restore_state
.LBB5829:
.LBB5815:
.LBB5802:
.LBB5798:
.LBB5794:
.LBB5793:
.LBB5792:
.LBB5791:
.LBB5787:
.LBB5788:
.LBB5789:
.LBB5790:
	.loc 13 809 0
	lwz 4,12(29)
	mr 3,28
	bl _ZNSt8_Rb_treeIPN7sigslot12_signal_baseINS0_15single_threadedEEES4_St9_IdentityIS4_ESt4lessIS4_ESaIS4_EE8_M_eraseEPSt13_Rb_tree_nodeIS4_E
.LVL526:
	.loc 13 811 0
	li 0,0
	.loc 13 810 0
	stw 30,16(29)
.LVL527:
	.loc 13 811 0
	stw 0,12(29)
.LVL528:
	.loc 13 812 0
	stw 30,20(29)
	.loc 13 813 0
	stw 0,24(29)
	b .L408
.LVL529:
.L430:
	mr 31,3
.L415:
.LVL530:
.LBE5790:
.LBE5789:
.LBE5788:
.LBE5787:
.LBE5791:
.LBE5792:
.LBE5793:
.LBE5794:
.LBE5798:
.LBE5802:
.LBE5815:
.LBB5816:
.LBB5817:
.LBB5818:
.LBB5819:
.LBB5820:
.LBB5821:
	.loc 13 639 0
	lwz 4,12(29)
	mr 3,28
	bl _ZNSt8_Rb_treeIPN7sigslot12_signal_baseINS0_15single_threadedEEES4_St9_IdentityIS4_ESt4lessIS4_ESaIS4_EE8_M_eraseEPSt13_Rb_tree_nodeIS4_E
.LVL531:
.LBE5821:
.LBE5820:
.LBE5819:
.LBE5818:
.LBE5817:
.LBE5816:
.LBB5822:
.LBB5823:
.LBB5824:
	.loc 1 105 0
	lis 9,_ZTVN7sigslot15single_threadedE+8@ha
	la 0,_ZTVN7sigslot15single_threadedE+8@l(9)
	mr 3,31
	stw 0,0(29)
.LEHB81:
	bl _Unwind_Resume
.LEHE81:
.LVL532:
.L431:
.LBE5824:
.LBE5823:
.LBE5822:
.LBB5825:
.LBB5803:
.LBB5799:
.LBB5800:
.LBB5801:
	.loc 1 343 0
	lwz 9,0(29)
	mr 31,3
.LVL533:
	mr 3,29
	lwz 0,12(9)
	mtctr 0
	bctrl
	b .L415
.LBE5801:
.LBE5800:
.LBE5799:
.LBE5803:
.LBE5825:
.LBE5829:
	.cfi_endproc
.LFE1684:
	.section	.gcc_except_table
.LLSDA1684:
	.byte	0xff
	.byte	0xff
	.byte	0x1
	.uleb128 .LLSDACSE1684-.LLSDACSB1684
.LLSDACSB1684:
	.uleb128 .LEHB78-.LFB1684
	.uleb128 .LEHE78-.LEHB78
	.uleb128 .L430-.LFB1684
	.uleb128 0
	.uleb128 .LEHB79-.LFB1684
	.uleb128 .LEHE79-.LEHB79
	.uleb128 .L431-.LFB1684
	.uleb128 0
	.uleb128 .LEHB80-.LFB1684
	.uleb128 .LEHE80-.LEHB80
	.uleb128 .L430-.LFB1684
	.uleb128 0
	.uleb128 .LEHB81-.LFB1684
	.uleb128 .LEHE81-.LEHB81
	.uleb128 0
	.uleb128 0
.LLSDACSE1684:
	.section	.text._ZN7sigslot9has_slotsINS_15single_threadedEED2Ev,"axG",@progbits,_ZN7sigslot9has_slotsINS_15single_threadedEED5Ev,comdat
	.size	_ZN7sigslot9has_slotsINS_15single_threadedEED2Ev, .-_ZN7sigslot9has_slotsINS_15single_threadedEED2Ev
	.section	.text._ZN7sigslot9has_slotsINS_15single_threadedEED0Ev,"axG",@progbits,_ZN7sigslot9has_slotsINS_15single_threadedEED5Ev,comdat
	.align 2
	.weak	_ZN7sigslot9has_slotsINS_15single_threadedEED0Ev
	.type	_ZN7sigslot9has_slotsINS_15single_threadedEED0Ev, @function
_ZN7sigslot9has_slotsINS_15single_threadedEED0Ev:
.LFB1686:
	.loc 1 513 0
	.cfi_startproc
	.cfi_personality 0,__gxx_personality_v0
	.cfi_lsda 0,.LLSDA1686
.LVL534:
	mflr 0
	stwu 1,-32(1)
.LCFI111:
	.cfi_def_cfa_offset 32
	.cfi_register 65, 0
.LBB5923:
.LBB5924:
.LBB5925:
	.loc 1 516 0
	lis 9,_ZTVN7sigslot9has_slotsINS_15single_threadedEEE+8@ha
.LBE5925:
.LBE5924:
.LBE5923:
	.loc 1 513 0
	stw 28,16(1)
	addi 28,3,4
	.cfi_offset 28, -16
	stw 0,36(1)
.LBB6009:
.LBB6005:
.LBB6001:
	.loc 1 516 0
	la 0,_ZTVN7sigslot9has_slotsINS_15single_threadedEEE+8@l(9)
	.cfi_offset 65, 4
.LBE6001:
.LBE6005:
.LBE6009:
	.loc 1 513 0
	stw 29,20(1)
	mr 29,3
	.cfi_offset 29, -12
.LVL535:
	stw 26,8(1)
	stw 27,12(1)
	stw 30,24(1)
	stw 31,28(1)
.LBB6010:
.LBB6006:
.LBB6002:
	.loc 1 516 0
	stw 0,0(3)
.LVL536:
.LEHB82:
.LBB5926:
.LBB5927:
.LBB5928:
.LBB5929:
	.loc 1 338 0
	.cfi_offset 31, -4
	.cfi_offset 30, -8
	.cfi_offset 27, -20
	.cfi_offset 26, -24
	bl _ZN7sigslot15single_threaded4lockEv
.LEHE82:
.LVL537:
.LBE5929:
.LBE5928:
.LBB5930:
	.loc 3 412 0
	lwz 31,16(29)
.LVL538:
.LBE5930:
.LBB5931:
.LBB5932:
.LBB5933:
	.loc 13 671 0
	addi 30,28,4
.LVL539:
.LBE5933:
.LBE5932:
.LBE5931:
	.loc 1 524 0
	cmpw 7,31,30
	beq- 7,.L437
.LVL540:
.L465:
	.loc 1 526 0
	lwz 3,16(31)
	mr 4,29
	lwz 9,0(3)
	lwz 0,16(9)
	mtctr 0
.LEHB83:
	bctrl
.LEHE83:
.LVL541:
.LBB5934:
.LBB5935:
	.loc 13 269 0
	mr 3,31
	bl _ZSt18_Rb_tree_incrementPKSt18_Rb_tree_node_base
.LBE5935:
.LBE5934:
	.loc 1 524 0
	cmpw 7,30,3
.LBB5937:
.LBB5936:
	.loc 13 269 0
	mr 31,3
.LVL542:
.LBE5936:
.LBE5937:
	.loc 1 524 0
	bne+ 7,.L465
	lwz 31,16(29)
.LVL543:
.L437:
.LBB5938:
.LBB5939:
.LBB5940:
.LBB5941:
.LBB5942:
.LBB5943:
.LBB5944:
	.loc 13 665 0
	addi 26,28,4
.LBE5944:
.LBE5943:
	.loc 13 1500 0
	cmpw 7,30,26
	beq- 7,.L439
.LVL544:
	.loc 13 1503 0
	cmpw 7,30,31
	bne+ 7,.L467
	b .L440
.LVL545:
.L462:
	.loc 13 277 0
	mr 31,27
.LVL546:
.L467:
.LBB5945:
.LBB5946:
	mr 3,31
	bl _ZSt18_Rb_tree_incrementPKSt18_Rb_tree_node_base
.LBE5946:
.LBE5945:
.LBB5948:
.LBB5949:
.LBB5950:
	.loc 13 1489 0
	mr 4,26
.LBE5950:
.LBE5949:
.LBE5948:
.LBB5959:
.LBB5947:
	.loc 13 277 0
	mr 27,3
.LVL547:
.LBE5947:
.LBE5959:
.LBB5960:
.LBB5957:
.LBB5955:
	.loc 13 1489 0
	mr 3,31
.LVL548:
	bl _ZSt28_Rb_tree_rebalance_for_erasePSt18_Rb_tree_node_baseRS_
.LBB5951:
.LBB5952:
.LBB5953:
.LBB5954:
	.loc 8 98 0
	bl _ZdlPv
.LBE5954:
.LBE5953:
.LBE5952:
.LBE5951:
.LBE5955:
.LBE5957:
.LBE5960:
	.loc 13 1503 0
	cmpw 7,30,27
.LBB5961:
.LBB5958:
.LBB5956:
	.loc 13 1491 0
	lwz 9,20(28)
	addi 0,9,-1
	stw 0,20(28)
.LBE5956:
.LBE5958:
.LBE5961:
	.loc 13 1503 0
	bne+ 7,.L462
.LVL549:
.L440:
.LBE5942:
.LBE5941:
.LBE5940:
.LBE5939:
.LBE5938:
.LBB5970:
.LBB5971:
.LBB5972:
	.loc 1 343 0
	lwz 9,0(29)
	mr 3,29
	lwz 0,12(9)
	mtctr 0
.LEHB84:
	bctrl
.LEHE84:
.LVL550:
.LBE5972:
.LBE5971:
.LBE5970:
.LBE5927:
.LBE5926:
.LBB5979:
.LBB5980:
.LBB5981:
.LBB5982:
.LBB5983:
	.loc 13 639 0
	lwz 4,12(29)
	mr 3,28
	bl _ZNSt8_Rb_treeIPN7sigslot12_signal_baseINS0_15single_threadedEEES4_St9_IdentityIS4_ESt4lessIS4_ESaIS4_EE8_M_eraseEPSt13_Rb_tree_nodeIS4_E
.LVL551:
.LBE5983:
.LBE5982:
.LBE5981:
.LBE5980:
.LBE5979:
.LBB5984:
.LBB5985:
.LBB5986:
	.loc 1 105 0
	lis 9,_ZTVN7sigslot15single_threadedE+8@ha
	la 0,_ZTVN7sigslot15single_threadedE+8@l(9)
.LBE5986:
.LBE5985:
.LBE5984:
.LBE6002:
.LBE6006:
.LBE6010:
	.loc 1 516 0
	mr 3,29
.LBB6011:
.LBB6007:
.LBB6003:
.LBB5989:
.LBB5988:
.LBB5987:
	.loc 1 105 0
	stw 0,0(29)
.LBE5987:
.LBE5988:
.LBE5989:
.LBE6003:
.LBE6007:
.LBE6011:
	.loc 1 516 0
	bl _ZdlPv
	lwz 0,36(1)
	lwz 26,8(1)
	mtlr 0
	lwz 27,12(1)
	lwz 28,16(1)
.LVL552:
	lwz 29,20(1)
.LVL553:
	lwz 30,24(1)
.LVL554:
	lwz 31,28(1)
	addi 1,1,32
	.cfi_remember_state
.LCFI112:
	.cfi_def_cfa_offset 0
	.cfi_restore 31
	.cfi_restore 30
	.cfi_restore 29
	.cfi_restore 28
	.cfi_restore 27
	.cfi_restore 26
	blr
.LVL555:
.L439:
.LCFI113:
	.cfi_restore_state
.LBB6012:
.LBB6008:
.LBB6004:
.LBB5990:
.LBB5977:
.LBB5973:
.LBB5969:
.LBB5968:
.LBB5967:
.LBB5966:
.LBB5962:
.LBB5963:
.LBB5964:
.LBB5965:
	.loc 13 809 0
	lwz 4,12(29)
	mr 3,28
	bl _ZNSt8_Rb_treeIPN7sigslot12_signal_baseINS0_15single_threadedEEES4_St9_IdentityIS4_ESt4lessIS4_ESaIS4_EE8_M_eraseEPSt13_Rb_tree_nodeIS4_E
.LVL556:
	.loc 13 811 0
	li 0,0
	.loc 13 810 0
	stw 30,16(29)
.LVL557:
	.loc 13 811 0
	stw 0,12(29)
.LVL558:
	.loc 13 812 0
	stw 30,20(29)
	.loc 13 813 0
	stw 0,24(29)
	b .L440
.LVL559:
.L463:
	mr 31,3
.L447:
.LVL560:
.LBE5965:
.LBE5964:
.LBE5963:
.LBE5962:
.LBE5966:
.LBE5967:
.LBE5968:
.LBE5969:
.LBE5973:
.LBE5977:
.LBE5990:
.LBB5991:
.LBB5992:
.LBB5993:
.LBB5994:
.LBB5995:
.LBB5996:
	.loc 13 639 0
	lwz 4,12(29)
	mr 3,28
	bl _ZNSt8_Rb_treeIPN7sigslot12_signal_baseINS0_15single_threadedEEES4_St9_IdentityIS4_ESt4lessIS4_ESaIS4_EE8_M_eraseEPSt13_Rb_tree_nodeIS4_E
.LVL561:
.LBE5996:
.LBE5995:
.LBE5994:
.LBE5993:
.LBE5992:
.LBE5991:
.LBB5997:
.LBB5998:
.LBB5999:
	.loc 1 105 0
	lis 9,_ZTVN7sigslot15single_threadedE+8@ha
	la 0,_ZTVN7sigslot15single_threadedE+8@l(9)
	mr 3,31
	stw 0,0(29)
.LEHB85:
	bl _Unwind_Resume
.LEHE85:
.LVL562:
.L464:
.LBE5999:
.LBE5998:
.LBE5997:
.LBB6000:
.LBB5978:
.LBB5974:
.LBB5975:
.LBB5976:
	.loc 1 343 0
	lwz 9,0(29)
	mr 31,3
.LVL563:
	mr 3,29
	lwz 0,12(9)
	mtctr 0
	bctrl
	b .L447
.LBE5976:
.LBE5975:
.LBE5974:
.LBE5978:
.LBE6000:
.LBE6004:
.LBE6008:
.LBE6012:
	.cfi_endproc
.LFE1686:
	.section	.gcc_except_table
.LLSDA1686:
	.byte	0xff
	.byte	0xff
	.byte	0x1
	.uleb128 .LLSDACSE1686-.LLSDACSB1686
.LLSDACSB1686:
	.uleb128 .LEHB82-.LFB1686
	.uleb128 .LEHE82-.LEHB82
	.uleb128 .L463-.LFB1686
	.uleb128 0
	.uleb128 .LEHB83-.LFB1686
	.uleb128 .LEHE83-.LEHB83
	.uleb128 .L464-.LFB1686
	.uleb128 0
	.uleb128 .LEHB84-.LFB1686
	.uleb128 .LEHE84-.LEHB84
	.uleb128 .L463-.LFB1686
	.uleb128 0
	.uleb128 .LEHB85-.LFB1686
	.uleb128 .LEHE85-.LEHB85
	.uleb128 0
	.uleb128 0
.LLSDACSE1686:
	.section	.text._ZN7sigslot9has_slotsINS_15single_threadedEED0Ev,"axG",@progbits,_ZN7sigslot9has_slotsINS_15single_threadedEED5Ev,comdat
	.size	_ZN7sigslot9has_slotsINS_15single_threadedEED0Ev, .-_ZN7sigslot9has_slotsINS_15single_threadedEED0Ev
	.section	.text._ZNSt6vectorIP8GuiImageSaIS1_EE14_M_fill_insertEN9__gnu_cxx17__normal_iteratorIPS1_S3_EEjRKS1_,"axG",@progbits,_ZNSt6vectorIP8GuiImageSaIS1_EE14_M_fill_insertEN9__gnu_cxx17__normal_iteratorIPS1_S3_EEjRKS1_,comdat
	.align 2
	.weak	_ZNSt6vectorIP8GuiImageSaIS1_EE14_M_fill_insertEN9__gnu_cxx17__normal_iteratorIPS1_S3_EEjRKS1_
	.type	_ZNSt6vectorIP8GuiImageSaIS1_EE14_M_fill_insertEN9__gnu_cxx17__normal_iteratorIPS1_S3_EEjRKS1_, @function
_ZNSt6vectorIP8GuiImageSaIS1_EE14_M_fill_insertEN9__gnu_cxx17__normal_iteratorIPS1_S3_EEjRKS1_:
.LFB1991:
	.loc 11 377 0
	.cfi_startproc
.LVL564:
	stwu 1,-40(1)
.LCFI114:
	.cfi_def_cfa_offset 40
	mflr 0
	stw 30,32(1)
.LBB6123:
	.loc 11 380 0
	mr. 30,5
	.cfi_offset 30, -8
	.cfi_register 65, 0
.LBE6123:
	.loc 11 377 0
	stw 0,44(1)
	stw 29,28(1)
	stw 31,36(1)
	mr 31,3
	.cfi_offset 31, -4
	.cfi_offset 29, -12
	.cfi_offset 65, 4
	stw 26,16(1)
	stw 27,20(1)
	stw 28,24(1)
	.loc 11 377 0
	lwz 29,0(4)
.LBB6420:
	.loc 11 380 0
	beq- 0,.L469
	.cfi_offset 28, -16
	.cfi_offset 27, -20
	.cfi_offset 26, -24
.LBB6124:
	.loc 11 382 0
	lwz 27,4(3)
	lwz 0,8(3)
	subf 0,27,0
	srawi 0,0,2
	cmplw 7,30,0
	bgt- 7,.L471
.LBB6125:
.LBB6126:
.LBB6127:
	.loc 10 892 0
	subf 0,29,27
.LBE6127:
.LBE6126:
	.loc 11 385 0
	lwz 28,0(6)
.LVL565:
.LBB6129:
.LBB6128:
	.loc 10 892 0
	srawi 0,0,2
.LVL566:
.LBE6128:
.LBE6129:
	.loc 11 388 0
	cmplw 7,30,0
	blt- 7,.L499
.LVL567:
.LBB6130:
.LBB6131:
.LBB6132:
.LBB6133:
.LBB6134:
.LBB6135:
.LBB6136:
.LBB6137:
	.loc 12 743 0
	subf. 30,0,30
	.loc 11 382 0
	mr 9,27
	.loc 12 743 0
	beq- 0,.L476
.LBE6137:
.LBE6136:
.LBE6135:
.LBE6134:
.LBE6133:
.LBE6132:
.LBE6131:
.LBE6130:
.LBB6145:
.LBB6146:
.LBB6147:
.LBB6148:
.LBB6149:
.LBB6150:
.LBB6151:
.LBB6152:
.LBB6153:
.LBB6154:
.LBB6155:
	.loc 11 377 0
	mtctr 30
.LBE6155:
.LBE6154:
.LBE6153:
.LBE6152:
.LBE6151:
.LBE6150:
.LBE6149:
.LBE6148:
.LBE6147:
.LBE6146:
.LBE6145:
.LBB6166:
.LBB6144:
.LBB6143:
.LBB6142:
.LBB6141:
.LBB6140:
.LBB6139:
.LBB6138:
	addi 9,27,-4
.LVL568:
.L477:
	.loc 12 745 0
	stwu 28,4(9)
	.loc 12 743 0
	bdnz .L477
	lwz 9,4(31)
.L476:
.LBE6138:
.LBE6139:
.LBE6140:
.LBE6141:
.LBE6142:
.LBE6143:
.LBE6144:
.LBE6166:
.LBB6167:
.LBB6168:
.LBB6169:
.LBB6170:
.LBB6171:
.LBB6172:
.LBB6173:
.LBB6174:
.LBB6175:
.LBB6176:
.LBB6177:
	.loc 12 365 0
	cmpwi 7,0,0
.LBE6177:
.LBE6176:
.LBE6175:
.LBE6174:
.LBE6173:
.LBE6172:
.LBE6171:
.LBE6170:
.LBE6169:
.LBE6168:
.LBE6167:
	.loc 11 406 0
	slwi 30,30,2
	add 3,9,30
.LVL569:
	stw 3,4(31)
.LVL570:
.LBB6198:
.LBB6196:
.LBB6194:
.LBB6192:
.LBB6190:
.LBB6188:
.LBB6186:
.LBB6184:
.LBB6182:
.LBB6180:
.LBB6178:
	.loc 12 365 0
	bne- 7,.L478
	li 30,0
.LVL571:
.L479:
.LBE6178:
.LBE6180:
.LBE6182:
.LBE6184:
.LBE6186:
.LBE6188:
.LBE6190:
.LBE6192:
.LBE6194:
.LBE6196:
.LBE6198:
.LBB6199:
.LBB6200:
.LBB6201:
	.loc 12 686 0
	cmpw 7,27,29
.LBE6201:
.LBE6200:
.LBE6199:
	.loc 11 410 0
	add 3,3,30
	stw 3,4(31)
.LVL572:
.LBB6204:
.LBB6203:
.LBB6202:
	.loc 12 686 0
	beq- 7,.L469
.LVL573:
.L480:
	.loc 12 687 0
	stw 28,0(29)
	addi 29,29,4
	.loc 12 686 0
	cmpw 7,27,29
	bne+ 7,.L480
.LVL574:
.L469:
.LBE6202:
.LBE6203:
.LBE6204:
.LBE6125:
.LBE6124:
.LBE6420:
	.loc 11 464 0
	lwz 0,44(1)
	lwz 26,16(1)
	mtlr 0
	lwz 27,20(1)
	lwz 28,24(1)
	lwz 29,28(1)
	lwz 30,32(1)
	lwz 31,36(1)
.LVL575:
	addi 1,1,40
	.cfi_remember_state
.LCFI115:
	.cfi_def_cfa_offset 0
	.cfi_restore 31
	.cfi_restore 30
	.cfi_restore 29
	.cfi_restore 28
	.cfi_restore 27
	.cfi_restore 26
	blr
.LVL576:
.L471:
.LCFI116:
	.cfi_restore_state
.LBB6421:
.LBB6416:
.LBB6234:
.LBB6235:
.LBB6236:
.LBB6237:
.LBB6238:
	.loc 7 571 0
	lwz 9,0(3)
.LBE6238:
.LBE6237:
	.loc 7 1241 0
	lis 11,0x3fff
	ori 11,11,65535
.LBB6240:
.LBB6239:
	.loc 7 571 0
	subf 27,9,27
	srawi 0,27,2
.LBE6239:
.LBE6240:
	.loc 7 1241 0
	subf 11,0,11
	cmplw 7,30,11
	bgt- 7,.L500
.LVL577:
	.loc 7 1244 0
	cmplw 7,0,30
	mr 11,0
	blt- 7,.L501
	add 11,11,0
.LVL578:
	.loc 7 1245 0
	cmplw 7,0,11
	ble- 7,.L502
.L483:
.LVL579:
.LBE6236:
.LBE6235:
.LBB6243:
.LBB6244:
	.loc 10 892 0
	subf 27,9,29
.LBE6244:
.LBE6243:
	.loc 11 418 0
	li 26,-4
.LBB6247:
.LBB6245:
	.loc 10 892 0
	srawi 27,27,2
.LVL580:
.L489:
.LBE6245:
.LBE6247:
.LBB6248:
.LBB6249:
.LBB6250:
.LBB6251:
	.loc 8 92 0
	mr 3,26
.LVL581:
	stw 6,8(1)
	bl _Znwj
.LVL582:
	lwz 6,8(1)
	mr 28,3
.L484:
.LVL583:
.LBE6251:
.LBE6250:
.LBE6249:
.LBE6248:
	.loc 11 424 0
	slwi 27,27,2
.LVL584:
.LBB6260:
.LBB6256:
.LBB6254:
.LBB6252:
	.loc 3 412 0
	lwz 0,0(6)
.LVL585:
.LBE6252:
.LBE6254:
.LBE6256:
.LBE6260:
	.loc 11 424 0
	add 27,28,27
.LBB6261:
.LBB6257:
	.loc 11 377 0
	mtctr 30
.LBB6255:
.LBB6253:
	addi 27,27,-4
.LVL586:
.L485:
.LBE6253:
.LBE6255:
.LBE6257:
.LBE6261:
.LBB6262:
.LBB6263:
.LBB6264:
.LBB6265:
.LBB6266:
.LBB6267:
.LBB6268:
.LBB6269:
	.loc 12 745 0
	stwu 0,4(27)
	.loc 12 743 0
	bdnz .L485
.LVL587:
.LBE6269:
.LBE6268:
.LBE6267:
.LBE6266:
.LBE6265:
.LBE6264:
.LBE6263:
.LBE6262:
	.loc 11 429 0
	lwz 4,0(31)
.LVL588:
.LBB6270:
.LBB6271:
.LBB6272:
.LBB6273:
.LBB6274:
.LBB6275:
.LBB6276:
.LBB6277:
.LBB6278:
.LBB6279:
.LBB6280:
	.loc 12 365 0
	li 27,0
	.loc 12 364 0
	subf 0,4,29
.LVL589:
	.loc 12 365 0
	srawi. 0,0,2
.LVL590:
	bne- 0,.L503
.LBE6280:
.LBE6279:
.LBE6278:
.LBE6277:
.LBE6276:
.LBE6275:
.LBE6274:
.LBE6273:
.LBE6272:
.LBE6271:
.LBE6270:
.LBB6321:
.LBB6322:
.LBB6323:
.LBB6324:
.LBB6325:
.LBB6326:
.LBB6327:
.LBB6328:
.LBB6329:
.LBB6330:
.LBB6331:
	.loc 12 364 0
	lwz 0,4(31)
.LVL591:
.LBE6331:
.LBE6330:
.LBE6329:
.LBE6328:
.LBE6327:
.LBE6326:
.LBE6325:
.LBE6324:
.LBE6323:
.LBE6322:
.LBE6321:
.LBB6392:
.LBB6317:
.LBB6313:
.LBB6309:
.LBB6305:
.LBB6301:
.LBB6297:
.LBB6293:
.LBB6289:
.LBB6285:
.LBB6281:
	.loc 12 367 0
	add 27,28,27
.LVL592:
.LBE6281:
.LBE6285:
.LBE6289:
.LBE6293:
.LBE6297:
.LBE6301:
.LBE6305:
.LBE6309:
.LBE6313:
.LBE6317:
.LBE6392:
	.loc 11 434 0
	slwi 30,30,2
.LVL593:
.LBB6393:
.LBB6386:
.LBB6380:
.LBB6374:
.LBB6368:
.LBB6362:
.LBB6356:
.LBB6350:
.LBB6344:
.LBB6338:
.LBB6332:
	.loc 12 364 0
	subf 0,29,0
.LBE6332:
.LBE6338:
.LBE6344:
.LBE6350:
.LBE6356:
.LBE6362:
.LBE6368:
.LBE6374:
.LBE6380:
.LBE6386:
.LBE6393:
	.loc 11 434 0
	add 30,27,30
.LVL594:
.LBB6394:
.LBB6387:
.LBB6381:
.LBB6375:
.LBB6369:
.LBB6363:
.LBB6357:
.LBB6351:
.LBB6345:
.LBB6339:
.LBB6333:
	.loc 12 365 0
	srawi. 0,0,2
.LVL595:
	li 27,0
	bne- 0,.L504
.LVL596:
.L487:
.LBE6333:
.LBE6339:
.LBE6345:
.LBE6351:
.LBE6357:
.LBE6363:
.LBE6369:
.LBE6375:
.LBE6381:
.LBE6387:
.LBE6394:
	.loc 11 456 0
	lwz 3,0(31)
.LBB6395:
.LBB6388:
.LBB6382:
.LBB6376:
.LBB6370:
.LBB6364:
.LBB6358:
.LBB6352:
.LBB6346:
.LBB6340:
.LBB6334:
	.loc 12 367 0
	add 27,30,27
.LVL597:
.LBE6334:
.LBE6340:
.LBE6346:
.LBE6352:
.LBE6358:
.LBE6364:
.LBE6370:
.LBE6376:
.LBE6382:
.LBE6388:
.LBE6395:
.LBB6396:
.LBB6397:
	.loc 7 155 0
	cmpwi 7,3,0
	beq- 7,.L488
.LVL598:
.LBB6398:
.LBB6399:
	.loc 8 98 0
	bl _ZdlPv
.LVL599:
.L488:
.LBE6399:
.LBE6398:
.LBE6397:
.LBE6396:
.LBE6234:
.LBE6416:
.LBE6421:
	.loc 11 464 0
	lwz 0,44(1)
.LBB6422:
.LBB6417:
.LBB6411:
	.loc 11 461 0
	add 26,28,26
	.loc 11 459 0
	stw 28,0(31)
.LBE6411:
.LBE6417:
.LBE6422:
	.loc 11 464 0
	mtlr 0
.LBB6423:
.LBB6418:
.LBB6412:
	.loc 11 460 0
	stw 27,4(31)
	.loc 11 461 0
	stw 26,8(31)
.LBE6412:
.LBE6418:
.LBE6423:
	.loc 11 464 0
	lwz 27,20(1)
	lwz 26,16(1)
	lwz 28,24(1)
.LVL600:
	lwz 29,28(1)
.LVL601:
	lwz 30,32(1)
.LVL602:
	lwz 31,36(1)
.LVL603:
	addi 1,1,40
	.cfi_remember_state
	.cfi_restore 26
	.cfi_restore 27
	.cfi_restore 28
	.cfi_restore 29
	.cfi_restore 30
	.cfi_restore 31
.LCFI117:
	.cfi_def_cfa_offset 0
	blr
.LVL604:
.L501:
.LCFI118:
	.cfi_restore_state
.LBB6424:
.LBB6419:
.LBB6413:
.LBB6400:
.LBB6241:
	.loc 7 1244 0
	mr 11,30
	add 11,11,0
.LVL605:
	.loc 7 1245 0
	cmplw 7,0,11
	bgt- 7,.L483
.L502:
.LVL606:
	lis 0,0x3fff
	ori 0,0,65535
	cmplw 7,11,0
	bgt- 7,.L483
.LVL607:
.LBE6241:
.LBE6400:
.LBB6401:
.LBB6258:
	.loc 7 150 0
	cmpwi 7,11,0
.LBE6258:
.LBE6401:
.LBB6402:
.LBB6246:
	.loc 10 892 0
	subf 9,9,29
	srawi 27,9,2
.LVL608:
.LBE6246:
.LBE6402:
.LBB6403:
.LBB6259:
	.loc 7 150 0
	li 26,0
	li 28,0
	beq+ 7,.L484
	slwi 26,11,2
	b .L489
.LVL609:
.L503:
.LBE6259:
.LBE6403:
.LBB6404:
.LBB6318:
.LBB6314:
.LBB6310:
.LBB6306:
.LBB6302:
.LBB6298:
.LBB6294:
.LBB6290:
.LBB6286:
.LBB6282:
	.loc 12 366 0
	slwi 27,0,2
	mr 3,28
	mr 5,27
.LBE6282:
.LBE6286:
.LBE6290:
.LBE6294:
.LBE6298:
.LBE6302:
.LBE6306:
.LBE6310:
.LBE6314:
.LBE6318:
.LBE6404:
	.loc 11 434 0
	slwi 30,30,2
.LVL610:
.LBB6405:
.LBB6319:
.LBB6315:
.LBB6311:
.LBB6307:
.LBB6303:
.LBB6299:
.LBB6295:
.LBB6291:
.LBB6287:
.LBB6283:
	.loc 12 366 0
	bl memmove
.LVL611:
.LBE6283:
.LBE6287:
.LBE6291:
.LBE6295:
.LBE6299:
.LBE6303:
.LBE6307:
.LBE6311:
.LBE6315:
.LBE6319:
.LBE6405:
.LBB6406:
.LBB6389:
.LBB6383:
.LBB6377:
.LBB6371:
.LBB6365:
.LBB6359:
.LBB6353:
.LBB6347:
.LBB6341:
.LBB6335:
	.loc 12 364 0
	lwz 0,4(31)
.LBE6335:
.LBE6341:
.LBE6347:
.LBE6353:
.LBE6359:
.LBE6365:
.LBE6371:
.LBE6377:
.LBE6383:
.LBE6389:
.LBE6406:
.LBB6407:
.LBB6320:
.LBB6316:
.LBB6312:
.LBB6308:
.LBB6304:
.LBB6300:
.LBB6296:
.LBB6292:
.LBB6288:
.LBB6284:
	.loc 12 367 0
	add 27,28,27
.LVL612:
.LBE6284:
.LBE6288:
.LBE6292:
.LBE6296:
.LBE6300:
.LBE6304:
.LBE6308:
.LBE6312:
.LBE6316:
.LBE6320:
.LBE6407:
.LBB6408:
.LBB6390:
.LBB6384:
.LBB6378:
.LBB6372:
.LBB6366:
.LBB6360:
.LBB6354:
.LBB6348:
.LBB6342:
.LBB6336:
	.loc 12 364 0
	subf 0,29,0
.LBE6336:
.LBE6342:
.LBE6348:
.LBE6354:
.LBE6360:
.LBE6366:
.LBE6372:
.LBE6378:
.LBE6384:
.LBE6390:
.LBE6408:
	.loc 11 434 0
	add 30,27,30
.LVL613:
.LBB6409:
.LBB6391:
.LBB6385:
.LBB6379:
.LBB6373:
.LBB6367:
.LBB6361:
.LBB6355:
.LBB6349:
.LBB6343:
.LBB6337:
	.loc 12 365 0
	srawi. 0,0,2
.LVL614:
	li 27,0
	beq+ 0,.L487
.LVL615:
.L504:
	.loc 12 366 0
	slwi 27,0,2
	mr 3,30
	mr 4,29
	mr 5,27
	bl memmove
	b .L487
.LVL616:
.L478:
.LBE6337:
.LBE6343:
.LBE6349:
.LBE6355:
.LBE6361:
.LBE6367:
.LBE6373:
.LBE6379:
.LBE6385:
.LBE6391:
.LBE6409:
.LBE6413:
.LBB6414:
.LBB6205:
.LBB6197:
.LBB6195:
.LBB6193:
.LBB6191:
.LBB6189:
.LBB6187:
.LBB6185:
.LBB6183:
.LBB6181:
.LBB6179:
	slwi 30,0,2
	mr 4,29
	mr 5,30
.LVL617:
	bl memmove
.LVL618:
	lwz 3,4(31)
	b .L479
.LVL619:
.L499:
.LBE6179:
.LBE6181:
.LBE6183:
.LBE6185:
.LBE6187:
.LBE6189:
.LBE6191:
.LBE6193:
.LBE6195:
.LBE6197:
.LBE6205:
	.loc 11 390 0
	slwi 30,30,2
.LVL620:
.LBB6206:
.LBB6165:
.LBB6164:
.LBB6163:
.LBB6162:
.LBB6161:
.LBB6160:
.LBB6159:
.LBB6158:
.LBB6157:
.LBB6156:
	.loc 11 382 0
	mr 0,27
.LVL621:
	.loc 12 365 0
	srawi. 5,30,2
.LVL622:
	.loc 12 364 0
	subf 26,30,27
	.loc 12 365 0
	beq+ 0,.L473
	.loc 12 366 0
	mr 3,27
	mr 4,26
	slwi 5,5,2
	bl memmove
.LVL623:
	lwz 0,4(31)
.L473:
.LBE6156:
.LBE6157:
.LBE6158:
.LBE6159:
.LBE6160:
.LBE6161:
.LBE6162:
.LBE6163:
.LBE6164:
.LBE6165:
.LBE6206:
.LBB6207:
.LBB6208:
.LBB6209:
.LBB6210:
.LBB6211:
.LBB6212:
	.loc 12 559 0
	subf 26,29,26
.LBE6212:
.LBE6211:
.LBE6210:
.LBE6209:
.LBE6208:
.LBE6207:
	.loc 11 394 0
	add 0,0,30
.LBB6228:
.LBB6225:
.LBB6222:
.LBB6219:
.LBB6216:
.LBB6213:
	.loc 12 560 0
	srawi. 26,26,2
.LBE6213:
.LBE6216:
.LBE6219:
.LBE6222:
.LBE6225:
.LBE6228:
	.loc 11 394 0
	stw 0,4(31)
.LVL624:
.LBB6229:
.LBB6226:
.LBB6223:
.LBB6220:
.LBB6217:
.LBB6214:
	.loc 12 560 0
	bne- 0,.L505
.L474:
.LVL625:
.LBE6214:
.LBE6217:
.LBE6220:
.LBE6223:
.LBE6226:
.LBE6229:
	.loc 11 397 0
	add 30,29,30
.LVL626:
.LBB6230:
.LBB6231:
.LBB6232:
	.loc 12 686 0
	cmpw 7,30,29
	beq- 7,.L469
.LVL627:
.L475:
	.loc 12 687 0
	stw 28,0(29)
	addi 29,29,4
	.loc 12 686 0
	cmpw 7,30,29
	bne+ 7,.L475
	b .L469
.LVL628:
.L505:
.LBE6232:
.LBE6231:
.LBE6230:
.LBB6233:
.LBB6227:
.LBB6224:
.LBB6221:
.LBB6218:
.LBB6215:
	.loc 12 561 0
	slwi 5,26,2
	mr 4,29
	subf 3,5,27
	bl memmove
	b .L474
.LVL629:
.L500:
.LBE6215:
.LBE6218:
.LBE6221:
.LBE6224:
.LBE6227:
.LBE6233:
.LBE6414:
.LBB6415:
.LBB6410:
.LBB6242:
	.loc 7 1242 0
	lis 3,.LC8@ha
	la 3,.LC8@l(3)
	bl _ZSt20__throw_length_errorPKc
.LVL630:
.LVL631:
.LVL632:
.LBE6242:
.LBE6410:
.LBE6415:
.LBE6419:
.LBE6424:
	.cfi_endproc
.LFE1991:
	.size	_ZNSt6vectorIP8GuiImageSaIS1_EE14_M_fill_insertEN9__gnu_cxx17__normal_iteratorIPS1_S3_EEjRKS1_, .-_ZNSt6vectorIP8GuiImageSaIS1_EE14_M_fill_insertEN9__gnu_cxx17__normal_iteratorIPS1_S3_EEjRKS1_
	.section	.text._ZNSt6vectorIP7GuiTextSaIS1_EE14_M_fill_insertEN9__gnu_cxx17__normal_iteratorIPS1_S3_EEjRKS1_,"axG",@progbits,_ZNSt6vectorIP7GuiTextSaIS1_EE14_M_fill_insertEN9__gnu_cxx17__normal_iteratorIPS1_S3_EEjRKS1_,comdat
	.align 2
	.weak	_ZNSt6vectorIP7GuiTextSaIS1_EE14_M_fill_insertEN9__gnu_cxx17__normal_iteratorIPS1_S3_EEjRKS1_
	.type	_ZNSt6vectorIP7GuiTextSaIS1_EE14_M_fill_insertEN9__gnu_cxx17__normal_iteratorIPS1_S3_EEjRKS1_, @function
_ZNSt6vectorIP7GuiTextSaIS1_EE14_M_fill_insertEN9__gnu_cxx17__normal_iteratorIPS1_S3_EEjRKS1_:
.LFB1992:
	.loc 11 377 0
	.cfi_startproc
.LVL633:
	stwu 1,-40(1)
.LCFI119:
	.cfi_def_cfa_offset 40
	mflr 0
	stw 30,32(1)
.LBB6535:
	.loc 11 380 0
	mr. 30,5
	.cfi_offset 30, -8
	.cfi_register 65, 0
.LBE6535:
	.loc 11 377 0
	stw 0,44(1)
	stw 29,28(1)
	stw 31,36(1)
	mr 31,3
	.cfi_offset 31, -4
	.cfi_offset 29, -12
	.cfi_offset 65, 4
	stw 26,16(1)
	stw 27,20(1)
	stw 28,24(1)
	.loc 11 377 0
	lwz 29,0(4)
.LBB6832:
	.loc 11 380 0
	beq- 0,.L506
	.cfi_offset 28, -16
	.cfi_offset 27, -20
	.cfi_offset 26, -24
.LBB6536:
	.loc 11 382 0
	lwz 27,4(3)
	lwz 0,8(3)
	subf 0,27,0
	srawi 0,0,2
	cmplw 7,30,0
	bgt- 7,.L508
.LBB6537:
.LBB6538:
.LBB6539:
	.loc 10 892 0
	subf 0,29,27
.LBE6539:
.LBE6538:
	.loc 11 385 0
	lwz 28,0(6)
.LVL634:
.LBB6541:
.LBB6540:
	.loc 10 892 0
	srawi 0,0,2
.LVL635:
.LBE6540:
.LBE6541:
	.loc 11 388 0
	cmplw 7,30,0
	blt- 7,.L536
.LVL636:
.LBB6542:
.LBB6543:
.LBB6544:
.LBB6545:
.LBB6546:
.LBB6547:
.LBB6548:
.LBB6549:
	.loc 12 743 0
	subf. 30,0,30
	.loc 11 382 0
	mr 9,27
	.loc 12 743 0
	beq- 0,.L513
.LBE6549:
.LBE6548:
.LBE6547:
.LBE6546:
.LBE6545:
.LBE6544:
.LBE6543:
.LBE6542:
.LBB6557:
.LBB6558:
.LBB6559:
.LBB6560:
.LBB6561:
.LBB6562:
.LBB6563:
.LBB6564:
.LBB6565:
.LBB6566:
.LBB6567:
	.loc 11 377 0
	mtctr 30
.LBE6567:
.LBE6566:
.LBE6565:
.LBE6564:
.LBE6563:
.LBE6562:
.LBE6561:
.LBE6560:
.LBE6559:
.LBE6558:
.LBE6557:
.LBB6578:
.LBB6556:
.LBB6555:
.LBB6554:
.LBB6553:
.LBB6552:
.LBB6551:
.LBB6550:
	addi 9,27,-4
.LVL637:
.L514:
	.loc 12 745 0
	stwu 28,4(9)
	.loc 12 743 0
	bdnz .L514
	lwz 9,4(31)
.L513:
.LBE6550:
.LBE6551:
.LBE6552:
.LBE6553:
.LBE6554:
.LBE6555:
.LBE6556:
.LBE6578:
.LBB6579:
.LBB6580:
.LBB6581:
.LBB6582:
.LBB6583:
.LBB6584:
.LBB6585:
.LBB6586:
.LBB6587:
.LBB6588:
.LBB6589:
	.loc 12 365 0
	cmpwi 7,0,0
.LBE6589:
.LBE6588:
.LBE6587:
.LBE6586:
.LBE6585:
.LBE6584:
.LBE6583:
.LBE6582:
.LBE6581:
.LBE6580:
.LBE6579:
	.loc 11 406 0
	slwi 30,30,2
	add 3,9,30
.LVL638:
	stw 3,4(31)
.LVL639:
.LBB6610:
.LBB6608:
.LBB6606:
.LBB6604:
.LBB6602:
.LBB6600:
.LBB6598:
.LBB6596:
.LBB6594:
.LBB6592:
.LBB6590:
	.loc 12 365 0
	bne- 7,.L515
	li 30,0
.LVL640:
.L516:
.LBE6590:
.LBE6592:
.LBE6594:
.LBE6596:
.LBE6598:
.LBE6600:
.LBE6602:
.LBE6604:
.LBE6606:
.LBE6608:
.LBE6610:
.LBB6611:
.LBB6612:
.LBB6613:
	.loc 12 686 0
	cmpw 7,27,29
.LBE6613:
.LBE6612:
.LBE6611:
	.loc 11 410 0
	add 3,3,30
	stw 3,4(31)
.LVL641:
.LBB6616:
.LBB6615:
.LBB6614:
	.loc 12 686 0
	beq- 7,.L506
.LVL642:
.L517:
	.loc 12 687 0
	stw 28,0(29)
	addi 29,29,4
	.loc 12 686 0
	cmpw 7,27,29
	bne+ 7,.L517
.LVL643:
.L506:
.LBE6614:
.LBE6615:
.LBE6616:
.LBE6537:
.LBE6536:
.LBE6832:
	.loc 11 464 0
	lwz 0,44(1)
	lwz 26,16(1)
	mtlr 0
	lwz 27,20(1)
	lwz 28,24(1)
	lwz 29,28(1)
	lwz 30,32(1)
	lwz 31,36(1)
.LVL644:
	addi 1,1,40
	.cfi_remember_state
.LCFI120:
	.cfi_def_cfa_offset 0
	.cfi_restore 31
	.cfi_restore 30
	.cfi_restore 29
	.cfi_restore 28
	.cfi_restore 27
	.cfi_restore 26
	blr
.LVL645:
.L508:
.LCFI121:
	.cfi_restore_state
.LBB6833:
.LBB6828:
.LBB6646:
.LBB6647:
.LBB6648:
.LBB6649:
.LBB6650:
	.loc 7 571 0
	lwz 9,0(3)
.LBE6650:
.LBE6649:
	.loc 7 1241 0
	lis 11,0x3fff
	ori 11,11,65535
.LBB6652:
.LBB6651:
	.loc 7 571 0
	subf 27,9,27
	srawi 0,27,2
.LBE6651:
.LBE6652:
	.loc 7 1241 0
	subf 11,0,11
	cmplw 7,30,11
	bgt- 7,.L537
.LVL646:
	.loc 7 1244 0
	cmplw 7,0,30
	mr 11,0
	blt- 7,.L538
	add 11,11,0
.LVL647:
	.loc 7 1245 0
	cmplw 7,0,11
	ble- 7,.L539
.L520:
.LVL648:
.LBE6648:
.LBE6647:
.LBB6655:
.LBB6656:
	.loc 10 892 0
	subf 27,9,29
.LBE6656:
.LBE6655:
	.loc 11 418 0
	li 26,-4
.LBB6659:
.LBB6657:
	.loc 10 892 0
	srawi 27,27,2
.LVL649:
.L526:
.LBE6657:
.LBE6659:
.LBB6660:
.LBB6661:
.LBB6662:
.LBB6663:
	.loc 8 92 0
	mr 3,26
.LVL650:
	stw 6,8(1)
	bl _Znwj
.LVL651:
	lwz 6,8(1)
	mr 28,3
.L521:
.LVL652:
.LBE6663:
.LBE6662:
.LBE6661:
.LBE6660:
	.loc 11 424 0
	slwi 27,27,2
.LVL653:
.LBB6672:
.LBB6668:
.LBB6666:
.LBB6664:
	.loc 3 412 0
	lwz 0,0(6)
.LVL654:
.LBE6664:
.LBE6666:
.LBE6668:
.LBE6672:
	.loc 11 424 0
	add 27,28,27
.LBB6673:
.LBB6669:
	.loc 11 377 0
	mtctr 30
.LBB6667:
.LBB6665:
	addi 27,27,-4
.LVL655:
.L522:
.LBE6665:
.LBE6667:
.LBE6669:
.LBE6673:
.LBB6674:
.LBB6675:
.LBB6676:
.LBB6677:
.LBB6678:
.LBB6679:
.LBB6680:
.LBB6681:
	.loc 12 745 0
	stwu 0,4(27)
	.loc 12 743 0
	bdnz .L522
.LVL656:
.LBE6681:
.LBE6680:
.LBE6679:
.LBE6678:
.LBE6677:
.LBE6676:
.LBE6675:
.LBE6674:
	.loc 11 429 0
	lwz 4,0(31)
.LVL657:
.LBB6682:
.LBB6683:
.LBB6684:
.LBB6685:
.LBB6686:
.LBB6687:
.LBB6688:
.LBB6689:
.LBB6690:
.LBB6691:
.LBB6692:
	.loc 12 365 0
	li 27,0
	.loc 12 364 0
	subf 0,4,29
.LVL658:
	.loc 12 365 0
	srawi. 0,0,2
.LVL659:
	bne- 0,.L540
.LBE6692:
.LBE6691:
.LBE6690:
.LBE6689:
.LBE6688:
.LBE6687:
.LBE6686:
.LBE6685:
.LBE6684:
.LBE6683:
.LBE6682:
.LBB6733:
.LBB6734:
.LBB6735:
.LBB6736:
.LBB6737:
.LBB6738:
.LBB6739:
.LBB6740:
.LBB6741:
.LBB6742:
.LBB6743:
	.loc 12 364 0
	lwz 0,4(31)
.LVL660:
.LBE6743:
.LBE6742:
.LBE6741:
.LBE6740:
.LBE6739:
.LBE6738:
.LBE6737:
.LBE6736:
.LBE6735:
.LBE6734:
.LBE6733:
.LBB6804:
.LBB6729:
.LBB6725:
.LBB6721:
.LBB6717:
.LBB6713:
.LBB6709:
.LBB6705:
.LBB6701:
.LBB6697:
.LBB6693:
	.loc 12 367 0
	add 27,28,27
.LVL661:
.LBE6693:
.LBE6697:
.LBE6701:
.LBE6705:
.LBE6709:
.LBE6713:
.LBE6717:
.LBE6721:
.LBE6725:
.LBE6729:
.LBE6804:
	.loc 11 434 0
	slwi 30,30,2
.LVL662:
.LBB6805:
.LBB6798:
.LBB6792:
.LBB6786:
.LBB6780:
.LBB6774:
.LBB6768:
.LBB6762:
.LBB6756:
.LBB6750:
.LBB6744:
	.loc 12 364 0
	subf 0,29,0
.LBE6744:
.LBE6750:
.LBE6756:
.LBE6762:
.LBE6768:
.LBE6774:
.LBE6780:
.LBE6786:
.LBE6792:
.LBE6798:
.LBE6805:
	.loc 11 434 0
	add 30,27,30
.LVL663:
.LBB6806:
.LBB6799:
.LBB6793:
.LBB6787:
.LBB6781:
.LBB6775:
.LBB6769:
.LBB6763:
.LBB6757:
.LBB6751:
.LBB6745:
	.loc 12 365 0
	srawi. 0,0,2
.LVL664:
	li 27,0
	bne- 0,.L541
.LVL665:
.L524:
.LBE6745:
.LBE6751:
.LBE6757:
.LBE6763:
.LBE6769:
.LBE6775:
.LBE6781:
.LBE6787:
.LBE6793:
.LBE6799:
.LBE6806:
	.loc 11 456 0
	lwz 3,0(31)
.LBB6807:
.LBB6800:
.LBB6794:
.LBB6788:
.LBB6782:
.LBB6776:
.LBB6770:
.LBB6764:
.LBB6758:
.LBB6752:
.LBB6746:
	.loc 12 367 0
	add 27,30,27
.LVL666:
.LBE6746:
.LBE6752:
.LBE6758:
.LBE6764:
.LBE6770:
.LBE6776:
.LBE6782:
.LBE6788:
.LBE6794:
.LBE6800:
.LBE6807:
.LBB6808:
.LBB6809:
	.loc 7 155 0
	cmpwi 7,3,0
	beq- 7,.L525
.LVL667:
.LBB6810:
.LBB6811:
	.loc 8 98 0
	bl _ZdlPv
.LVL668:
.L525:
.LBE6811:
.LBE6810:
.LBE6809:
.LBE6808:
.LBE6646:
.LBE6828:
.LBE6833:
	.loc 11 464 0
	lwz 0,44(1)
.LBB6834:
.LBB6829:
.LBB6823:
	.loc 11 461 0
	add 26,28,26
	.loc 11 459 0
	stw 28,0(31)
.LBE6823:
.LBE6829:
.LBE6834:
	.loc 11 464 0
	mtlr 0
.LBB6835:
.LBB6830:
.LBB6824:
	.loc 11 460 0
	stw 27,4(31)
	.loc 11 461 0
	stw 26,8(31)
.LBE6824:
.LBE6830:
.LBE6835:
	.loc 11 464 0
	lwz 27,20(1)
	lwz 26,16(1)
	lwz 28,24(1)
.LVL669:
	lwz 29,28(1)
.LVL670:
	lwz 30,32(1)
.LVL671:
	lwz 31,36(1)
.LVL672:
	addi 1,1,40
	.cfi_remember_state
	.cfi_restore 26
	.cfi_restore 27
	.cfi_restore 28
	.cfi_restore 29
	.cfi_restore 30
	.cfi_restore 31
.LCFI122:
	.cfi_def_cfa_offset 0
	blr
.LVL673:
.L538:
.LCFI123:
	.cfi_restore_state
.LBB6836:
.LBB6831:
.LBB6825:
.LBB6812:
.LBB6653:
	.loc 7 1244 0
	mr 11,30
	add 11,11,0
.LVL674:
	.loc 7 1245 0
	cmplw 7,0,11
	bgt- 7,.L520
.L539:
.LVL675:
	lis 0,0x3fff
	ori 0,0,65535
	cmplw 7,11,0
	bgt- 7,.L520
.LVL676:
.LBE6653:
.LBE6812:
.LBB6813:
.LBB6670:
	.loc 7 150 0
	cmpwi 7,11,0
.LBE6670:
.LBE6813:
.LBB6814:
.LBB6658:
	.loc 10 892 0
	subf 9,9,29
	srawi 27,9,2
.LVL677:
.LBE6658:
.LBE6814:
.LBB6815:
.LBB6671:
	.loc 7 150 0
	li 26,0
	li 28,0
	beq+ 7,.L521
	slwi 26,11,2
	b .L526
.LVL678:
.L540:
.LBE6671:
.LBE6815:
.LBB6816:
.LBB6730:
.LBB6726:
.LBB6722:
.LBB6718:
.LBB6714:
.LBB6710:
.LBB6706:
.LBB6702:
.LBB6698:
.LBB6694:
	.loc 12 366 0
	slwi 27,0,2
	mr 3,28
	mr 5,27
.LBE6694:
.LBE6698:
.LBE6702:
.LBE6706:
.LBE6710:
.LBE6714:
.LBE6718:
.LBE6722:
.LBE6726:
.LBE6730:
.LBE6816:
	.loc 11 434 0
	slwi 30,30,2
.LVL679:
.LBB6817:
.LBB6731:
.LBB6727:
.LBB6723:
.LBB6719:
.LBB6715:
.LBB6711:
.LBB6707:
.LBB6703:
.LBB6699:
.LBB6695:
	.loc 12 366 0
	bl memmove
.LVL680:
.LBE6695:
.LBE6699:
.LBE6703:
.LBE6707:
.LBE6711:
.LBE6715:
.LBE6719:
.LBE6723:
.LBE6727:
.LBE6731:
.LBE6817:
.LBB6818:
.LBB6801:
.LBB6795:
.LBB6789:
.LBB6783:
.LBB6777:
.LBB6771:
.LBB6765:
.LBB6759:
.LBB6753:
.LBB6747:
	.loc 12 364 0
	lwz 0,4(31)
.LBE6747:
.LBE6753:
.LBE6759:
.LBE6765:
.LBE6771:
.LBE6777:
.LBE6783:
.LBE6789:
.LBE6795:
.LBE6801:
.LBE6818:
.LBB6819:
.LBB6732:
.LBB6728:
.LBB6724:
.LBB6720:
.LBB6716:
.LBB6712:
.LBB6708:
.LBB6704:
.LBB6700:
.LBB6696:
	.loc 12 367 0
	add 27,28,27
.LVL681:
.LBE6696:
.LBE6700:
.LBE6704:
.LBE6708:
.LBE6712:
.LBE6716:
.LBE6720:
.LBE6724:
.LBE6728:
.LBE6732:
.LBE6819:
.LBB6820:
.LBB6802:
.LBB6796:
.LBB6790:
.LBB6784:
.LBB6778:
.LBB6772:
.LBB6766:
.LBB6760:
.LBB6754:
.LBB6748:
	.loc 12 364 0
	subf 0,29,0
.LBE6748:
.LBE6754:
.LBE6760:
.LBE6766:
.LBE6772:
.LBE6778:
.LBE6784:
.LBE6790:
.LBE6796:
.LBE6802:
.LBE6820:
	.loc 11 434 0
	add 30,27,30
.LVL682:
.LBB6821:
.LBB6803:
.LBB6797:
.LBB6791:
.LBB6785:
.LBB6779:
.LBB6773:
.LBB6767:
.LBB6761:
.LBB6755:
.LBB6749:
	.loc 12 365 0
	srawi. 0,0,2
.LVL683:
	li 27,0
	beq+ 0,.L524
.LVL684:
.L541:
	.loc 12 366 0
	slwi 27,0,2
	mr 3,30
	mr 4,29
	mr 5,27
	bl memmove
	b .L524
.LVL685:
.L515:
.LBE6749:
.LBE6755:
.LBE6761:
.LBE6767:
.LBE6773:
.LBE6779:
.LBE6785:
.LBE6791:
.LBE6797:
.LBE6803:
.LBE6821:
.LBE6825:
.LBB6826:
.LBB6617:
.LBB6609:
.LBB6607:
.LBB6605:
.LBB6603:
.LBB6601:
.LBB6599:
.LBB6597:
.LBB6595:
.LBB6593:
.LBB6591:
	slwi 30,0,2
	mr 4,29
	mr 5,30
.LVL686:
	bl memmove
.LVL687:
	lwz 3,4(31)
	b .L516
.LVL688:
.L536:
.LBE6591:
.LBE6593:
.LBE6595:
.LBE6597:
.LBE6599:
.LBE6601:
.LBE6603:
.LBE6605:
.LBE6607:
.LBE6609:
.LBE6617:
	.loc 11 390 0
	slwi 30,30,2
.LVL689:
.LBB6618:
.LBB6577:
.LBB6576:
.LBB6575:
.LBB6574:
.LBB6573:
.LBB6572:
.LBB6571:
.LBB6570:
.LBB6569:
.LBB6568:
	.loc 11 382 0
	mr 0,27
.LVL690:
	.loc 12 365 0
	srawi. 5,30,2
.LVL691:
	.loc 12 364 0
	subf 26,30,27
	.loc 12 365 0
	beq+ 0,.L510
	.loc 12 366 0
	mr 3,27
	mr 4,26
	slwi 5,5,2
	bl memmove
.LVL692:
	lwz 0,4(31)
.L510:
.LBE6568:
.LBE6569:
.LBE6570:
.LBE6571:
.LBE6572:
.LBE6573:
.LBE6574:
.LBE6575:
.LBE6576:
.LBE6577:
.LBE6618:
.LBB6619:
.LBB6620:
.LBB6621:
.LBB6622:
.LBB6623:
.LBB6624:
	.loc 12 559 0
	subf 26,29,26
.LBE6624:
.LBE6623:
.LBE6622:
.LBE6621:
.LBE6620:
.LBE6619:
	.loc 11 394 0
	add 0,0,30
.LBB6640:
.LBB6637:
.LBB6634:
.LBB6631:
.LBB6628:
.LBB6625:
	.loc 12 560 0
	srawi. 26,26,2
.LBE6625:
.LBE6628:
.LBE6631:
.LBE6634:
.LBE6637:
.LBE6640:
	.loc 11 394 0
	stw 0,4(31)
.LVL693:
.LBB6641:
.LBB6638:
.LBB6635:
.LBB6632:
.LBB6629:
.LBB6626:
	.loc 12 560 0
	bne- 0,.L542
.L511:
.LVL694:
.LBE6626:
.LBE6629:
.LBE6632:
.LBE6635:
.LBE6638:
.LBE6641:
	.loc 11 397 0
	add 30,29,30
.LVL695:
.LBB6642:
.LBB6643:
.LBB6644:
	.loc 12 686 0
	cmpw 7,30,29
	beq- 7,.L506
.LVL696:
.L512:
	.loc 12 687 0
	stw 28,0(29)
	addi 29,29,4
	.loc 12 686 0
	cmpw 7,30,29
	bne+ 7,.L512
	b .L506
.LVL697:
.L542:
.LBE6644:
.LBE6643:
.LBE6642:
.LBB6645:
.LBB6639:
.LBB6636:
.LBB6633:
.LBB6630:
.LBB6627:
	.loc 12 561 0
	slwi 5,26,2
	mr 4,29
	subf 3,5,27
	bl memmove
	b .L511
.LVL698:
.L537:
.LBE6627:
.LBE6630:
.LBE6633:
.LBE6636:
.LBE6639:
.LBE6645:
.LBE6826:
.LBB6827:
.LBB6822:
.LBB6654:
	.loc 7 1242 0
	lis 3,.LC8@ha
	la 3,.LC8@l(3)
	bl _ZSt20__throw_length_errorPKc
.LVL699:
.LVL700:
.LVL701:
.LBE6654:
.LBE6822:
.LBE6827:
.LBE6831:
.LBE6836:
	.cfi_endproc
.LFE1992:
	.size	_ZNSt6vectorIP7GuiTextSaIS1_EE14_M_fill_insertEN9__gnu_cxx17__normal_iteratorIPS1_S3_EEjRKS1_, .-_ZNSt6vectorIP7GuiTextSaIS1_EE14_M_fill_insertEN9__gnu_cxx17__normal_iteratorIPS1_S3_EEjRKS1_
	.section	.text._ZNSt6vectorIP9GuiButtonSaIS1_EE14_M_fill_insertEN9__gnu_cxx17__normal_iteratorIPS1_S3_EEjRKS1_,"axG",@progbits,_ZNSt6vectorIP9GuiButtonSaIS1_EE14_M_fill_insertEN9__gnu_cxx17__normal_iteratorIPS1_S3_EEjRKS1_,comdat
	.align 2
	.weak	_ZNSt6vectorIP9GuiButtonSaIS1_EE14_M_fill_insertEN9__gnu_cxx17__normal_iteratorIPS1_S3_EEjRKS1_
	.type	_ZNSt6vectorIP9GuiButtonSaIS1_EE14_M_fill_insertEN9__gnu_cxx17__normal_iteratorIPS1_S3_EEjRKS1_, @function
_ZNSt6vectorIP9GuiButtonSaIS1_EE14_M_fill_insertEN9__gnu_cxx17__normal_iteratorIPS1_S3_EEjRKS1_:
.LFB1993:
	.loc 11 377 0
	.cfi_startproc
.LVL702:
	stwu 1,-40(1)
.LCFI124:
	.cfi_def_cfa_offset 40
	mflr 0
	stw 30,32(1)
.LBB6947:
	.loc 11 380 0
	mr. 30,5
	.cfi_offset 30, -8
	.cfi_register 65, 0
.LBE6947:
	.loc 11 377 0
	stw 0,44(1)
	stw 29,28(1)
	stw 31,36(1)
	mr 31,3
	.cfi_offset 31, -4
	.cfi_offset 29, -12
	.cfi_offset 65, 4
	stw 26,16(1)
	stw 27,20(1)
	stw 28,24(1)
	.loc 11 377 0
	lwz 29,0(4)
.LBB7244:
	.loc 11 380 0
	beq- 0,.L543
	.cfi_offset 28, -16
	.cfi_offset 27, -20
	.cfi_offset 26, -24
.LBB6948:
	.loc 11 382 0
	lwz 27,4(3)
	lwz 0,8(3)
	subf 0,27,0
	srawi 0,0,2
	cmplw 7,30,0
	bgt- 7,.L545
.LBB6949:
.LBB6950:
.LBB6951:
	.loc 10 892 0
	subf 0,29,27
.LBE6951:
.LBE6950:
	.loc 11 385 0
	lwz 28,0(6)
.LVL703:
.LBB6953:
.LBB6952:
	.loc 10 892 0
	srawi 0,0,2
.LVL704:
.LBE6952:
.LBE6953:
	.loc 11 388 0
	cmplw 7,30,0
	blt- 7,.L573
.LVL705:
.LBB6954:
.LBB6955:
.LBB6956:
.LBB6957:
.LBB6958:
.LBB6959:
.LBB6960:
.LBB6961:
	.loc 12 743 0
	subf. 30,0,30
	.loc 11 382 0
	mr 9,27
	.loc 12 743 0
	beq- 0,.L550
.LBE6961:
.LBE6960:
.LBE6959:
.LBE6958:
.LBE6957:
.LBE6956:
.LBE6955:
.LBE6954:
.LBB6969:
.LBB6970:
.LBB6971:
.LBB6972:
.LBB6973:
.LBB6974:
.LBB6975:
.LBB6976:
.LBB6977:
.LBB6978:
.LBB6979:
	.loc 11 377 0
	mtctr 30
.LBE6979:
.LBE6978:
.LBE6977:
.LBE6976:
.LBE6975:
.LBE6974:
.LBE6973:
.LBE6972:
.LBE6971:
.LBE6970:
.LBE6969:
.LBB6990:
.LBB6968:
.LBB6967:
.LBB6966:
.LBB6965:
.LBB6964:
.LBB6963:
.LBB6962:
	addi 9,27,-4
.LVL706:
.L551:
	.loc 12 745 0
	stwu 28,4(9)
	.loc 12 743 0
	bdnz .L551
	lwz 9,4(31)
.L550:
.LBE6962:
.LBE6963:
.LBE6964:
.LBE6965:
.LBE6966:
.LBE6967:
.LBE6968:
.LBE6990:
.LBB6991:
.LBB6992:
.LBB6993:
.LBB6994:
.LBB6995:
.LBB6996:
.LBB6997:
.LBB6998:
.LBB6999:
.LBB7000:
.LBB7001:
	.loc 12 365 0
	cmpwi 7,0,0
.LBE7001:
.LBE7000:
.LBE6999:
.LBE6998:
.LBE6997:
.LBE6996:
.LBE6995:
.LBE6994:
.LBE6993:
.LBE6992:
.LBE6991:
	.loc 11 406 0
	slwi 30,30,2
	add 3,9,30
.LVL707:
	stw 3,4(31)
.LVL708:
.LBB7022:
.LBB7020:
.LBB7018:
.LBB7016:
.LBB7014:
.LBB7012:
.LBB7010:
.LBB7008:
.LBB7006:
.LBB7004:
.LBB7002:
	.loc 12 365 0
	bne- 7,.L552
	li 30,0
.LVL709:
.L553:
.LBE7002:
.LBE7004:
.LBE7006:
.LBE7008:
.LBE7010:
.LBE7012:
.LBE7014:
.LBE7016:
.LBE7018:
.LBE7020:
.LBE7022:
.LBB7023:
.LBB7024:
.LBB7025:
	.loc 12 686 0
	cmpw 7,27,29
.LBE7025:
.LBE7024:
.LBE7023:
	.loc 11 410 0
	add 3,3,30
	stw 3,4(31)
.LVL710:
.LBB7028:
.LBB7027:
.LBB7026:
	.loc 12 686 0
	beq- 7,.L543
.LVL711:
.L554:
	.loc 12 687 0
	stw 28,0(29)
	addi 29,29,4
	.loc 12 686 0
	cmpw 7,27,29
	bne+ 7,.L554
.LVL712:
.L543:
.LBE7026:
.LBE7027:
.LBE7028:
.LBE6949:
.LBE6948:
.LBE7244:
	.loc 11 464 0
	lwz 0,44(1)
	lwz 26,16(1)
	mtlr 0
	lwz 27,20(1)
	lwz 28,24(1)
	lwz 29,28(1)
	lwz 30,32(1)
	lwz 31,36(1)
.LVL713:
	addi 1,1,40
	.cfi_remember_state
.LCFI125:
	.cfi_def_cfa_offset 0
	.cfi_restore 31
	.cfi_restore 30
	.cfi_restore 29
	.cfi_restore 28
	.cfi_restore 27
	.cfi_restore 26
	blr
.LVL714:
.L545:
.LCFI126:
	.cfi_restore_state
.LBB7245:
.LBB7240:
.LBB7058:
.LBB7059:
.LBB7060:
.LBB7061:
.LBB7062:
	.loc 7 571 0
	lwz 9,0(3)
.LBE7062:
.LBE7061:
	.loc 7 1241 0
	lis 11,0x3fff
	ori 11,11,65535
.LBB7064:
.LBB7063:
	.loc 7 571 0
	subf 27,9,27
	srawi 0,27,2
.LBE7063:
.LBE7064:
	.loc 7 1241 0
	subf 11,0,11
	cmplw 7,30,11
	bgt- 7,.L574
.LVL715:
	.loc 7 1244 0
	cmplw 7,0,30
	mr 11,0
	blt- 7,.L575
	add 11,11,0
.LVL716:
	.loc 7 1245 0
	cmplw 7,0,11
	ble- 7,.L576
.L557:
.LVL717:
.LBE7060:
.LBE7059:
.LBB7067:
.LBB7068:
	.loc 10 892 0
	subf 27,9,29
.LBE7068:
.LBE7067:
	.loc 11 418 0
	li 26,-4
.LBB7071:
.LBB7069:
	.loc 10 892 0
	srawi 27,27,2
.LVL718:
.L563:
.LBE7069:
.LBE7071:
.LBB7072:
.LBB7073:
.LBB7074:
.LBB7075:
	.loc 8 92 0
	mr 3,26
.LVL719:
	stw 6,8(1)
	bl _Znwj
.LVL720:
	lwz 6,8(1)
	mr 28,3
.L558:
.LVL721:
.LBE7075:
.LBE7074:
.LBE7073:
.LBE7072:
	.loc 11 424 0
	slwi 27,27,2
.LVL722:
.LBB7084:
.LBB7080:
.LBB7078:
.LBB7076:
	.loc 3 412 0
	lwz 0,0(6)
.LVL723:
.LBE7076:
.LBE7078:
.LBE7080:
.LBE7084:
	.loc 11 424 0
	add 27,28,27
.LBB7085:
.LBB7081:
	.loc 11 377 0
	mtctr 30
.LBB7079:
.LBB7077:
	addi 27,27,-4
.LVL724:
.L559:
.LBE7077:
.LBE7079:
.LBE7081:
.LBE7085:
.LBB7086:
.LBB7087:
.LBB7088:
.LBB7089:
.LBB7090:
.LBB7091:
.LBB7092:
.LBB7093:
	.loc 12 745 0
	stwu 0,4(27)
	.loc 12 743 0
	bdnz .L559
.LVL725:
.LBE7093:
.LBE7092:
.LBE7091:
.LBE7090:
.LBE7089:
.LBE7088:
.LBE7087:
.LBE7086:
	.loc 11 429 0
	lwz 4,0(31)
.LVL726:
.LBB7094:
.LBB7095:
.LBB7096:
.LBB7097:
.LBB7098:
.LBB7099:
.LBB7100:
.LBB7101:
.LBB7102:
.LBB7103:
.LBB7104:
	.loc 12 365 0
	li 27,0
	.loc 12 364 0
	subf 0,4,29
.LVL727:
	.loc 12 365 0
	srawi. 0,0,2
.LVL728:
	bne- 0,.L577
.LBE7104:
.LBE7103:
.LBE7102:
.LBE7101:
.LBE7100:
.LBE7099:
.LBE7098:
.LBE7097:
.LBE7096:
.LBE7095:
.LBE7094:
.LBB7145:
.LBB7146:
.LBB7147:
.LBB7148:
.LBB7149:
.LBB7150:
.LBB7151:
.LBB7152:
.LBB7153:
.LBB7154:
.LBB7155:
	.loc 12 364 0
	lwz 0,4(31)
.LVL729:
.LBE7155:
.LBE7154:
.LBE7153:
.LBE7152:
.LBE7151:
.LBE7150:
.LBE7149:
.LBE7148:
.LBE7147:
.LBE7146:
.LBE7145:
.LBB7216:
.LBB7141:
.LBB7137:
.LBB7133:
.LBB7129:
.LBB7125:
.LBB7121:
.LBB7117:
.LBB7113:
.LBB7109:
.LBB7105:
	.loc 12 367 0
	add 27,28,27
.LVL730:
.LBE7105:
.LBE7109:
.LBE7113:
.LBE7117:
.LBE7121:
.LBE7125:
.LBE7129:
.LBE7133:
.LBE7137:
.LBE7141:
.LBE7216:
	.loc 11 434 0
	slwi 30,30,2
.LVL731:
.LBB7217:
.LBB7210:
.LBB7204:
.LBB7198:
.LBB7192:
.LBB7186:
.LBB7180:
.LBB7174:
.LBB7168:
.LBB7162:
.LBB7156:
	.loc 12 364 0
	subf 0,29,0
.LBE7156:
.LBE7162:
.LBE7168:
.LBE7174:
.LBE7180:
.LBE7186:
.LBE7192:
.LBE7198:
.LBE7204:
.LBE7210:
.LBE7217:
	.loc 11 434 0
	add 30,27,30
.LVL732:
.LBB7218:
.LBB7211:
.LBB7205:
.LBB7199:
.LBB7193:
.LBB7187:
.LBB7181:
.LBB7175:
.LBB7169:
.LBB7163:
.LBB7157:
	.loc 12 365 0
	srawi. 0,0,2
.LVL733:
	li 27,0
	bne- 0,.L578
.LVL734:
.L561:
.LBE7157:
.LBE7163:
.LBE7169:
.LBE7175:
.LBE7181:
.LBE7187:
.LBE7193:
.LBE7199:
.LBE7205:
.LBE7211:
.LBE7218:
	.loc 11 456 0
	lwz 3,0(31)
.LBB7219:
.LBB7212:
.LBB7206:
.LBB7200:
.LBB7194:
.LBB7188:
.LBB7182:
.LBB7176:
.LBB7170:
.LBB7164:
.LBB7158:
	.loc 12 367 0
	add 27,30,27
.LVL735:
.LBE7158:
.LBE7164:
.LBE7170:
.LBE7176:
.LBE7182:
.LBE7188:
.LBE7194:
.LBE7200:
.LBE7206:
.LBE7212:
.LBE7219:
.LBB7220:
.LBB7221:
	.loc 7 155 0
	cmpwi 7,3,0
	beq- 7,.L562
.LVL736:
.LBB7222:
.LBB7223:
	.loc 8 98 0
	bl _ZdlPv
.LVL737:
.L562:
.LBE7223:
.LBE7222:
.LBE7221:
.LBE7220:
.LBE7058:
.LBE7240:
.LBE7245:
	.loc 11 464 0
	lwz 0,44(1)
.LBB7246:
.LBB7241:
.LBB7235:
	.loc 11 461 0
	add 26,28,26
	.loc 11 459 0
	stw 28,0(31)
.LBE7235:
.LBE7241:
.LBE7246:
	.loc 11 464 0
	mtlr 0
.LBB7247:
.LBB7242:
.LBB7236:
	.loc 11 460 0
	stw 27,4(31)
	.loc 11 461 0
	stw 26,8(31)
.LBE7236:
.LBE7242:
.LBE7247:
	.loc 11 464 0
	lwz 27,20(1)
	lwz 26,16(1)
	lwz 28,24(1)
.LVL738:
	lwz 29,28(1)
.LVL739:
	lwz 30,32(1)
.LVL740:
	lwz 31,36(1)
.LVL741:
	addi 1,1,40
	.cfi_remember_state
	.cfi_restore 26
	.cfi_restore 27
	.cfi_restore 28
	.cfi_restore 29
	.cfi_restore 30
	.cfi_restore 31
.LCFI127:
	.cfi_def_cfa_offset 0
	blr
.LVL742:
.L575:
.LCFI128:
	.cfi_restore_state
.LBB7248:
.LBB7243:
.LBB7237:
.LBB7224:
.LBB7065:
	.loc 7 1244 0
	mr 11,30
	add 11,11,0
.LVL743:
	.loc 7 1245 0
	cmplw 7,0,11
	bgt- 7,.L557
.L576:
.LVL744:
	lis 0,0x3fff
	ori 0,0,65535
	cmplw 7,11,0
	bgt- 7,.L557
.LVL745:
.LBE7065:
.LBE7224:
.LBB7225:
.LBB7082:
	.loc 7 150 0
	cmpwi 7,11,0
.LBE7082:
.LBE7225:
.LBB7226:
.LBB7070:
	.loc 10 892 0
	subf 9,9,29
	srawi 27,9,2
.LVL746:
.LBE7070:
.LBE7226:
.LBB7227:
.LBB7083:
	.loc 7 150 0
	li 26,0
	li 28,0
	beq+ 7,.L558
	slwi 26,11,2
	b .L563
.LVL747:
.L577:
.LBE7083:
.LBE7227:
.LBB7228:
.LBB7142:
.LBB7138:
.LBB7134:
.LBB7130:
.LBB7126:
.LBB7122:
.LBB7118:
.LBB7114:
.LBB7110:
.LBB7106:
	.loc 12 366 0
	slwi 27,0,2
	mr 3,28
	mr 5,27
.LBE7106:
.LBE7110:
.LBE7114:
.LBE7118:
.LBE7122:
.LBE7126:
.LBE7130:
.LBE7134:
.LBE7138:
.LBE7142:
.LBE7228:
	.loc 11 434 0
	slwi 30,30,2
.LVL748:
.LBB7229:
.LBB7143:
.LBB7139:
.LBB7135:
.LBB7131:
.LBB7127:
.LBB7123:
.LBB7119:
.LBB7115:
.LBB7111:
.LBB7107:
	.loc 12 366 0
	bl memmove
.LVL749:
.LBE7107:
.LBE7111:
.LBE7115:
.LBE7119:
.LBE7123:
.LBE7127:
.LBE7131:
.LBE7135:
.LBE7139:
.LBE7143:
.LBE7229:
.LBB7230:
.LBB7213:
.LBB7207:
.LBB7201:
.LBB7195:
.LBB7189:
.LBB7183:
.LBB7177:
.LBB7171:
.LBB7165:
.LBB7159:
	.loc 12 364 0
	lwz 0,4(31)
.LBE7159:
.LBE7165:
.LBE7171:
.LBE7177:
.LBE7183:
.LBE7189:
.LBE7195:
.LBE7201:
.LBE7207:
.LBE7213:
.LBE7230:
.LBB7231:
.LBB7144:
.LBB7140:
.LBB7136:
.LBB7132:
.LBB7128:
.LBB7124:
.LBB7120:
.LBB7116:
.LBB7112:
.LBB7108:
	.loc 12 367 0
	add 27,28,27
.LVL750:
.LBE7108:
.LBE7112:
.LBE7116:
.LBE7120:
.LBE7124:
.LBE7128:
.LBE7132:
.LBE7136:
.LBE7140:
.LBE7144:
.LBE7231:
.LBB7232:
.LBB7214:
.LBB7208:
.LBB7202:
.LBB7196:
.LBB7190:
.LBB7184:
.LBB7178:
.LBB7172:
.LBB7166:
.LBB7160:
	.loc 12 364 0
	subf 0,29,0
.LBE7160:
.LBE7166:
.LBE7172:
.LBE7178:
.LBE7184:
.LBE7190:
.LBE7196:
.LBE7202:
.LBE7208:
.LBE7214:
.LBE7232:
	.loc 11 434 0
	add 30,27,30
.LVL751:
.LBB7233:
.LBB7215:
.LBB7209:
.LBB7203:
.LBB7197:
.LBB7191:
.LBB7185:
.LBB7179:
.LBB7173:
.LBB7167:
.LBB7161:
	.loc 12 365 0
	srawi. 0,0,2
.LVL752:
	li 27,0
	beq+ 0,.L561
.LVL753:
.L578:
	.loc 12 366 0
	slwi 27,0,2
	mr 3,30
	mr 4,29
	mr 5,27
	bl memmove
	b .L561
.LVL754:
.L552:
.LBE7161:
.LBE7167:
.LBE7173:
.LBE7179:
.LBE7185:
.LBE7191:
.LBE7197:
.LBE7203:
.LBE7209:
.LBE7215:
.LBE7233:
.LBE7237:
.LBB7238:
.LBB7029:
.LBB7021:
.LBB7019:
.LBB7017:
.LBB7015:
.LBB7013:
.LBB7011:
.LBB7009:
.LBB7007:
.LBB7005:
.LBB7003:
	slwi 30,0,2
	mr 4,29
	mr 5,30
.LVL755:
	bl memmove
.LVL756:
	lwz 3,4(31)
	b .L553
.LVL757:
.L573:
.LBE7003:
.LBE7005:
.LBE7007:
.LBE7009:
.LBE7011:
.LBE7013:
.LBE7015:
.LBE7017:
.LBE7019:
.LBE7021:
.LBE7029:
	.loc 11 390 0
	slwi 30,30,2
.LVL758:
.LBB7030:
.LBB6989:
.LBB6988:
.LBB6987:
.LBB6986:
.LBB6985:
.LBB6984:
.LBB6983:
.LBB6982:
.LBB6981:
.LBB6980:
	.loc 11 382 0
	mr 0,27
.LVL759:
	.loc 12 365 0
	srawi. 5,30,2
.LVL760:
	.loc 12 364 0
	subf 26,30,27
	.loc 12 365 0
	beq+ 0,.L547
	.loc 12 366 0
	mr 3,27
	mr 4,26
	slwi 5,5,2
	bl memmove
.LVL761:
	lwz 0,4(31)
.L547:
.LBE6980:
.LBE6981:
.LBE6982:
.LBE6983:
.LBE6984:
.LBE6985:
.LBE6986:
.LBE6987:
.LBE6988:
.LBE6989:
.LBE7030:
.LBB7031:
.LBB7032:
.LBB7033:
.LBB7034:
.LBB7035:
.LBB7036:
	.loc 12 559 0
	subf 26,29,26
.LBE7036:
.LBE7035:
.LBE7034:
.LBE7033:
.LBE7032:
.LBE7031:
	.loc 11 394 0
	add 0,0,30
.LBB7052:
.LBB7049:
.LBB7046:
.LBB7043:
.LBB7040:
.LBB7037:
	.loc 12 560 0
	srawi. 26,26,2
.LBE7037:
.LBE7040:
.LBE7043:
.LBE7046:
.LBE7049:
.LBE7052:
	.loc 11 394 0
	stw 0,4(31)
.LVL762:
.LBB7053:
.LBB7050:
.LBB7047:
.LBB7044:
.LBB7041:
.LBB7038:
	.loc 12 560 0
	bne- 0,.L579
.L548:
.LVL763:
.LBE7038:
.LBE7041:
.LBE7044:
.LBE7047:
.LBE7050:
.LBE7053:
	.loc 11 397 0
	add 30,29,30
.LVL764:
.LBB7054:
.LBB7055:
.LBB7056:
	.loc 12 686 0
	cmpw 7,30,29
	beq- 7,.L543
.LVL765:
.L549:
	.loc 12 687 0
	stw 28,0(29)
	addi 29,29,4
	.loc 12 686 0
	cmpw 7,30,29
	bne+ 7,.L549
	b .L543
.LVL766:
.L579:
.LBE7056:
.LBE7055:
.LBE7054:
.LBB7057:
.LBB7051:
.LBB7048:
.LBB7045:
.LBB7042:
.LBB7039:
	.loc 12 561 0
	slwi 5,26,2
	mr 4,29
	subf 3,5,27
	bl memmove
	b .L548
.LVL767:
.L574:
.LBE7039:
.LBE7042:
.LBE7045:
.LBE7048:
.LBE7051:
.LBE7057:
.LBE7238:
.LBB7239:
.LBB7234:
.LBB7066:
	.loc 7 1242 0
	lis 3,.LC8@ha
	la 3,.LC8@l(3)
	bl _ZSt20__throw_length_errorPKc
.LVL768:
.LVL769:
.LVL770:
.LBE7066:
.LBE7234:
.LBE7239:
.LBE7243:
.LBE7248:
	.cfi_endproc
.LFE1993:
	.size	_ZNSt6vectorIP9GuiButtonSaIS1_EE14_M_fill_insertEN9__gnu_cxx17__normal_iteratorIPS1_S3_EEjRKS1_, .-_ZNSt6vectorIP9GuiButtonSaIS1_EE14_M_fill_insertEN9__gnu_cxx17__normal_iteratorIPS1_S3_EEjRKS1_
	.section	.text._ZNSt8_Rb_treeIPN7sigslot12_signal_baseINS0_15single_threadedEEES4_St9_IdentityIS4_ESt4lessIS4_ESaIS4_EE16_M_insert_uniqueERKS4_,"axG",@progbits,_ZNSt8_Rb_treeIPN7sigslot12_signal_baseINS0_15single_threadedEEES4_St9_IdentityIS4_ESt4lessIS4_ESaIS4_EE16_M_insert_uniqueERKS4_,comdat
	.align 2
	.weak	_ZNSt8_Rb_treeIPN7sigslot12_signal_baseINS0_15single_threadedEEES4_St9_IdentityIS4_ESt4lessIS4_ESaIS4_EE16_M_insert_uniqueERKS4_
	.type	_ZNSt8_Rb_treeIPN7sigslot12_signal_baseINS0_15single_threadedEEES4_St9_IdentityIS4_ESt4lessIS4_ESaIS4_EE16_M_insert_uniqueERKS4_, @function
_ZNSt8_Rb_treeIPN7sigslot12_signal_baseINS0_15single_threadedEEES4_St9_IdentityIS4_ESt4lessIS4_ESaIS4_EE16_M_insert_uniqueERKS4_:
.LFB2097:
	.loc 13 1264 0
	.cfi_startproc
.LVL771:
	mflr 0
	stwu 1,-32(1)
.LCFI129:
	.cfi_def_cfa_offset 32
	.cfi_register 65, 0
	stw 28,16(1)
	stw 0,36(1)
	stw 27,12(1)
	mr 27,4
	.cfi_offset 27, -20
	.cfi_offset 65, 4
	.cfi_offset 28, -16
.LBB7288:
.LBB7289:
.LBB7290:
	.loc 3 412 0
	lwz 28,8(3)
.LVL772:
.LBE7290:
.LBE7289:
.LBE7288:
	.loc 13 1264 0
	stw 29,20(1)
.LBB7315:
.LBB7307:
.LBB7303:
	.loc 13 1272 0
	addi 29,3,4
	.cfi_offset 29, -12
.LVL773:
.LBE7303:
.LBE7307:
	.loc 13 1274 0
	cmpwi 7,28,0
.LBE7315:
	.loc 13 1264 0
	stw 31,28(1)
	stw 26,8(1)
	mr 31,3
	.cfi_offset 26, -24
	.cfi_offset 31, -4
	stw 30,24(1)
.LBB7316:
	.loc 13 1274 0
	beq- 7,.L595
	.cfi_offset 30, -8
	lwz 10,0(4)
	b .L584
.LVL774:
.L603:
	.loc 3 412 0 discriminator 1
	lwz 0,8(28)
.LVL775:
	.loc 13 1274 0 discriminator 1
	cmpwi 7,0,0
	beq- 7,.L602
.LVL776:
.L596:
	.loc 13 1274 0 is_stmt 0
	mr 28,0
.LVL777:
.L584:
	.loc 3 412 0 is_stmt 1
	lwz 9,16(28)
	li 11,1
	.loc 13 1278 0
	cmplw 7,9,10
	bgt- 7,.L603
	.loc 3 412 0 discriminator 2
	lwz 0,12(28)
	li 11,0
.LVL778:
	.loc 13 1274 0 discriminator 2
	cmpwi 7,0,0
	bne+ 7,.L596
.LVL779:
.L602:
	.loc 13 1281 0
	cmpwi 7,11,0
	mr 3,28
.LVL780:
	bne- 7,.L581
.LVL781:
	.loc 13 1289 0
	cmplw 7,10,9
	bgt- 7,.L604
.LVL782:
.L591:
	.loc 13 1292 0
	li 0,0
	li 4,0
	rlwimi 4,0,24,0,7
.LBE7316:
	.loc 13 1293 0
	lwz 0,36(1)
	lwz 26,8(1)
	mtlr 0
	lwz 27,12(1)
.LVL783:
	lwz 28,16(1)
	lwz 29,20(1)
	lwz 30,24(1)
	lwz 31,28(1)
.LVL784:
	addi 1,1,32
	.cfi_remember_state
.LCFI130:
	.cfi_def_cfa_offset 0
	.cfi_restore 31
	.cfi_restore 30
	.cfi_restore 29
	.cfi_restore 28
	.cfi_restore 27
	.cfi_restore 26
	blr
.LVL785:
.L595:
.LCFI131:
	.cfi_restore_state
.LBB7317:
	.loc 13 1272 0
	mr 28,29
.LVL786:
.L581:
	.loc 13 1283 0
	lwz 0,12(31)
	cmpw 7,28,0
	beq- 7,.L605
.LVL787:
.LBB7308:
.LBB7309:
	.loc 13 203 0
	mr 3,28
	bl _ZSt18_Rb_tree_decrementPSt18_Rb_tree_node_base
.LVL788:
	lwz 10,0(27)
	lwz 9,16(3)
.LVL789:
.LBE7309:
.LBE7308:
	.loc 13 1289 0
	cmplw 7,10,9
	ble+ 7,.L591
.LVL790:
.L604:
.LBB7310:
.LBB7304:
	.loc 13 969 0
	cmpw 7,28,29
	li 26,1
	beq- 7,.L592
.LVL791:
	.loc 13 1264 0
	lwz 26,16(28)
	subfc 26,26,10
	subfe 26,26,26
	neg 26,26
	b .L592
.LVL792:
.L605:
.LBE7304:
.LBE7310:
.LBB7311:
.LBB7312:
	.loc 13 969 0
	cmpw 7,28,29
	li 26,1
	beq- 7,.L592
.LVL793:
	.loc 13 1264 0
	lwz 26,0(27)
	lwz 0,16(28)
.LVL794:
	subfc 26,0,26
	subfe 26,26,26
	neg 26,26
.LVL795:
.L592:
.LBE7312:
.LBE7311:
.LBB7313:
.LBB7305:
.LBB7291:
.LBB7292:
.LBB7293:
.LBB7294:
.LBB7295:
	.loc 8 92 0
	li 3,20
	bl _Znwj
.LBE7295:
.LBE7294:
.LBE7293:
.LBB7298:
.LBB7299:
	.loc 8 108 0
	cmpwi 7,3,-16
.LBE7299:
.LBE7298:
.LBB7301:
.LBB7297:
.LBB7296:
	.loc 8 92 0
	mr 30,3
.LVL796:
.LBE7296:
.LBE7297:
.LBE7301:
.LBB7302:
.LBB7300:
	.loc 8 108 0
	beq- 7,.L594
	lwz 0,0(27)
	stw 0,16(3)
.L594:
.LVL797:
.LBE7300:
.LBE7302:
.LBE7292:
.LBE7291:
	.loc 13 973 0
	mr 3,26
.LVL798:
	mr 4,30
	mr 5,28
	mr 6,29
	bl _ZSt29_Rb_tree_insert_and_rebalancebPSt18_Rb_tree_node_baseS0_RS_
	.loc 13 976 0
	lwz 9,20(31)
	.loc 13 1291 0
	li 4,0
	mr 3,30
	.loc 13 976 0
	addi 0,9,1
.LBE7305:
.LBE7313:
.LBE7317:
	.loc 13 1293 0
	lwz 26,8(1)
.LVL799:
.LBB7318:
.LBB7314:
.LBB7306:
	.loc 13 976 0
	stw 0,20(31)
.LVL800:
	.loc 13 1291 0
	li 0,1
	rlwimi 4,0,24,0,7
.LBE7306:
.LBE7314:
.LBE7318:
	.loc 13 1293 0
	lwz 0,36(1)
	lwz 27,12(1)
.LVL801:
	mtlr 0
	lwz 28,16(1)
	lwz 29,20(1)
	lwz 30,24(1)
.LVL802:
	lwz 31,28(1)
.LVL803:
	addi 1,1,32
	.cfi_restore 26
	.cfi_restore 27
	.cfi_restore 28
	.cfi_restore 29
	.cfi_restore 30
	.cfi_restore 31
.LCFI132:
	.cfi_def_cfa_offset 0
	blr
	.cfi_endproc
.LFE2097:
	.size	_ZNSt8_Rb_treeIPN7sigslot12_signal_baseINS0_15single_threadedEEES4_St9_IdentityIS4_ESt4lessIS4_ESaIS4_EE16_M_insert_uniqueERKS4_, .-_ZNSt8_Rb_treeIPN7sigslot12_signal_baseINS0_15single_threadedEEES4_St9_IdentityIS4_ESt4lessIS4_ESaIS4_EE16_M_insert_uniqueERKS4_
	.section	.text._ZN7sigslot7signal3IP9GuiButtoniRK6_POINTNS_15single_threadedEE7connectI15ListFileBrowserEEvPT_MSA_FvS2_iS5_E,"axG",@progbits,_ZN7sigslot7signal3IP9GuiButtoniRK6_POINTNS_15single_threadedEE7connectI15ListFileBrowserEEvPT_MSA_FvS2_iS5_E,comdat
	.align 2
	.weak	_ZN7sigslot7signal3IP9GuiButtoniRK6_POINTNS_15single_threadedEE7connectI15ListFileBrowserEEvPT_MSA_FvS2_iS5_E
	.type	_ZN7sigslot7signal3IP9GuiButtoniRK6_POINTNS_15single_threadedEE7connectI15ListFileBrowserEEvPT_MSA_FvS2_iS5_E, @function
_ZN7sigslot7signal3IP9GuiButtoniRK6_POINTNS_15single_threadedEE7connectI15ListFileBrowserEEvPT_MSA_FvS2_iS5_E:
.LFB1714:
	.loc 1 2308 0
	.cfi_startproc
	.cfi_personality 0,__gxx_personality_v0
	.cfi_lsda 0,.LLSDA1714
.LVL804:
	mflr 0
	stwu 1,-48(1)
.LCFI133:
	.cfi_def_cfa_offset 48
	.cfi_register 65, 0
	stw 27,28(1)
	stw 0,52(1)
	stw 30,40(1)
	mr 30,4
	.cfi_offset 30, -8
	.cfi_offset 65, 4
	.cfi_offset 27, -20
.LBB7361:
.LBB7362:
.LBB7363:
	.loc 1 338 0
	lwz 9,0(3)
.LBE7363:
.LBE7362:
.LBE7361:
	.loc 1 2308 0
	stw 31,44(1)
	mr 31,3
	.cfi_offset 31, -4
.LVL805:
.LBB7416:
.LBB7367:
.LBB7364:
	.loc 1 338 0
	lwz 0,8(9)
.LBE7364:
.LBE7367:
.LBE7416:
	.loc 1 2308 0
	stw 28,32(1)
	stw 29,36(1)
.LBB7417:
.LBB7368:
.LBB7365:
	.loc 1 338 0
	mtctr 0
.LBE7365:
.LBE7368:
.LBE7417:
	.loc 1 2308 0
	lwz 27,0(5)
	lwz 28,4(5)
	.cfi_offset 29, -12
	.cfi_offset 28, -16
.LEHB86:
.LBB7418:
.LBB7369:
.LBB7366:
	.loc 1 338 0
	bctrl
.LEHE86:
.LVL806:
.LBE7366:
.LBE7369:
	.loc 1 2314 0
	li 3,16
.LEHB87:
	bl _Znwj
.LBB7370:
.LBB7371:
	.loc 1 1778 0
	lis 9,_ZTVN7sigslot12_connection3I15ListFileBrowserP9GuiButtoniRK6_POINTNS_15single_threadedEEE+8@ha
	.loc 1 1779 0
	stw 30,4(3)
	.loc 1 1778 0
	la 0,_ZTVN7sigslot12_connection3I15ListFileBrowserP9GuiButtoniRK6_POINTNS_15single_threadedEEE+8@l(9)
	.loc 1 1780 0
	stw 27,8(3)
	.loc 1 1778 0
	stw 0,0(3)
.LBE7371:
.LBE7370:
	.loc 1 2314 0
	mr 29,3
.LVL807:
.LBB7373:
.LBB7372:
	.loc 1 1780 0
	stw 28,12(3)
.LVL808:
.LBE7372:
.LBE7373:
.LBB7374:
.LBB7375:
.LBB7376:
.LBB7377:
.LBB7378:
.LBB7379:
.LBB7380:
.LBB7381:
	.loc 8 92 0
	li 3,12
.LVL809:
	bl _Znwj
.LVL810:
.LBE7381:
.LBE7380:
.LBE7379:
.LBB7382:
.LBB7383:
	.loc 8 108 0 discriminator 1
	cmpwi 7,3,-8
	beq- 7,.L608
	.loc 8 108 0 is_stmt 0
	stw 29,8(3)
.LVL811:
.L608:
.LBE7383:
.LBE7382:
.LBE7378:
.LBE7377:
	.loc 4 1516 0 is_stmt 1
	addi 4,31,4
.LBE7376:
.LBE7375:
.LBE7374:
.LBB7388:
.LBB7389:
	.loc 1 503 0
	addi 29,30,160
.LVL812:
.LBE7389:
.LBE7388:
.LBB7405:
.LBB7386:
.LBB7384:
	.loc 4 1516 0
	bl _ZNSt8__detail15_List_node_base7_M_hookEPS0_
.LVL813:
.LBE7384:
.LBE7386:
.LBE7405:
.LBB7406:
.LBB7402:
.LBB7390:
.LBB7391:
	.loc 1 338 0
	lwz 9,160(30)
.LBE7391:
.LBE7390:
.LBE7402:
.LBE7406:
.LBB7407:
.LBB7387:
.LBB7385:
	.loc 4 1516 0
	stw 31,8(1)
.LVL814:
.LBE7385:
.LBE7387:
.LBE7407:
.LBB7408:
.LBB7403:
.LBB7393:
.LBB7392:
	.loc 1 338 0
	mr 3,29
	lwz 0,8(9)
	mtctr 0
	bctrl
.LEHE87:
.LVL815:
.LBE7392:
.LBE7393:
.LBB7394:
.LBB7395:
	.file 14 "d:\\devkitpro\\devkitppc\\bin\\../lib/gcc/powerpc-eabi/4.6.3/../../../../powerpc-eabi/include/c++/4.6.3/bits/stl_set.h"
	.loc 14 410 0
	addi 3,30,164
	addi 4,1,8
.LEHB88:
	bl _ZNSt8_Rb_treeIPN7sigslot12_signal_baseINS0_15single_threadedEEES4_St9_IdentityIS4_ESt4lessIS4_ESaIS4_EE16_M_insert_uniqueERKS4_
.LEHE88:
.LVL816:
.LBE7395:
.LBE7394:
.LBB7396:
.LBB7397:
.LBB7398:
	.loc 1 343 0
	lwz 9,160(30)
	mr 3,29
	lwz 0,12(9)
	mtctr 0
.LEHB89:
	bctrl
.LEHE89:
.LVL817:
.LBE7398:
.LBE7397:
.LBE7396:
.LBE7403:
.LBE7408:
.LBB7409:
.LBB7410:
.LBB7411:
	lwz 9,0(31)
	mr 3,31
	lwz 0,12(9)
	mtctr 0
.LEHB90:
	bctrl
.LEHE90:
.LBE7411:
.LBE7410:
.LBE7409:
.LBE7418:
	.loc 1 2317 0
	lwz 0,52(1)
	lwz 27,28(1)
.LVL818:
	mtlr 0
	lwz 28,32(1)
.LVL819:
	lwz 29,36(1)
.LVL820:
	lwz 30,40(1)
.LVL821:
	lwz 31,44(1)
.LVL822:
	addi 1,1,48
	.cfi_remember_state
.LCFI134:
	.cfi_def_cfa_offset 0
	.cfi_restore 31
	.cfi_restore 30
	.cfi_restore 29
	.cfi_restore 28
	.cfi_restore 27
	blr
.LVL823:
.L615:
.LCFI135:
	.cfi_restore_state
	mr 30,3
.LVL824:
.L612:
.LBB7419:
.LBB7412:
.LBB7413:
.LBB7414:
	.loc 1 343 0
	lwz 9,0(31)
	mr 3,31
	lwz 0,12(9)
	mtctr 0
	bctrl
	mr 3,30
.LEHB91:
	bl _Unwind_Resume
.LEHE91:
.LVL825:
.L616:
.LBE7414:
.LBE7413:
.LBE7412:
.LBB7415:
.LBB7404:
.LBB7399:
.LBB7400:
.LBB7401:
	lwz 9,160(30)
	mr 30,3
.LVL826:
	mr 3,29
	lwz 0,12(9)
	mtctr 0
	bctrl
	b .L612
.LBE7401:
.LBE7400:
.LBE7399:
.LBE7404:
.LBE7415:
.LBE7419:
	.cfi_endproc
.LFE1714:
	.section	.gcc_except_table
.LLSDA1714:
	.byte	0xff
	.byte	0xff
	.byte	0x1
	.uleb128 .LLSDACSE1714-.LLSDACSB1714
.LLSDACSB1714:
	.uleb128 .LEHB86-.LFB1714
	.uleb128 .LEHE86-.LEHB86
	.uleb128 0
	.uleb128 0
	.uleb128 .LEHB87-.LFB1714
	.uleb128 .LEHE87-.LEHB87
	.uleb128 .L615-.LFB1714
	.uleb128 0
	.uleb128 .LEHB88-.LFB1714
	.uleb128 .LEHE88-.LEHB88
	.uleb128 .L616-.LFB1714
	.uleb128 0
	.uleb128 .LEHB89-.LFB1714
	.uleb128 .LEHE89-.LEHB89
	.uleb128 .L615-.LFB1714
	.uleb128 0
	.uleb128 .LEHB90-.LFB1714
	.uleb128 .LEHE90-.LEHB90
	.uleb128 0
	.uleb128 0
	.uleb128 .LEHB91-.LFB1714
	.uleb128 .LEHE91-.LEHB91
	.uleb128 0
	.uleb128 0
.LLSDACSE1714:
	.section	.text._ZN7sigslot7signal3IP9GuiButtoniRK6_POINTNS_15single_threadedEE7connectI15ListFileBrowserEEvPT_MSA_FvS2_iS5_E,"axG",@progbits,_ZN7sigslot7signal3IP9GuiButtoniRK6_POINTNS_15single_threadedEE7connectI15ListFileBrowserEEvPT_MSA_FvS2_iS5_E,comdat
	.size	_ZN7sigslot7signal3IP9GuiButtoniRK6_POINTNS_15single_threadedEE7connectI15ListFileBrowserEEvPT_MSA_FvS2_iS5_E, .-_ZN7sigslot7signal3IP9GuiButtoniRK6_POINTNS_15single_threadedEE7connectI15ListFileBrowserEEvPT_MSA_FvS2_iS5_E
	.section	".text"
	.align 2
	.globl _ZN15ListFileBrowser9AddButtonEv
	.type	_ZN15ListFileBrowser9AddButtonEv, @function
_ZN15ListFileBrowser9AddButtonEv:
.LFB1616:
	.loc 3 125 0
	.cfi_startproc
	.cfi_personality 0,__gxx_personality_v0
	.cfi_lsda 0,.LLSDA1616
.LVL827:
	mflr 0
	stwu 1,-80(1)
.LCFI136:
	.cfi_def_cfa_offset 80
	.cfi_register 65, 0
	stw 27,60(1)
	stw 0,84(1)
	stw 29,68(1)
.LBB7536:
.LBB7537:
.LBB7538:
	.loc 7 571 0
	lwz 11,248(3)
	lwz 27,252(3)
	.cfi_offset 29, -12
	.cfi_offset 65, 4
	.cfi_offset 27, -20
.LBE7538:
.LBE7537:
.LBB7540:
	.loc 3 412 0
	lwz 0,224(3)
	lwz 9,228(3)
.LBE7540:
.LBB7554:
.LBB7539:
	.loc 7 571 0
	subf 27,11,27
	srawi 27,27,2
.LVL828:
.LBE7539:
.LBE7554:
	.loc 3 128 0
	li 11,0
.LBB7555:
.LBB7541:
.LBB7542:
.LBB7543:
	.loc 7 571 0
	subf 5,0,9
.LBE7543:
.LBE7542:
.LBE7541:
.LBE7555:
	.loc 3 128 0
	addi 29,27,1
.LVL829:
.LBB7556:
.LBB7550:
.LBB7545:
.LBB7544:
	.loc 7 571 0
	srawi 5,5,2
.LBE7544:
.LBE7545:
.LBE7550:
.LBE7556:
.LBE7536:
	.loc 3 125 0
	stw 31,76(1)
.LBB7604:
.LBB7557:
.LBB7551:
	.loc 7 631 0
	cmplw 7,29,5
.LBE7551:
.LBE7557:
.LBE7604:
	.loc 3 125 0
	stw 24,48(1)
	stw 25,52(1)
	mr 31,3
	.cfi_offset 25, -28
	.cfi_offset 24, -32
	.cfi_offset 31, -4
	stw 26,56(1)
	stw 28,64(1)
	stw 30,72(1)
.LBB7605:
	.loc 3 128 0
	stw 11,8(1)
.LVL830:
.LBB7558:
.LBB7552:
	.loc 7 631 0
	bgt- 7,.L637
	.cfi_offset 30, -8
	.cfi_offset 28, -16
	.cfi_offset 26, -24
.LVL831:
	.loc 7 633 0
	bge- 7,.L620
.LVL832:
	.loc 7 634 0
	slwi 9,29,2
	add 0,0,9
.LBB7546:
.LBB7547:
	.loc 7 1256 0
	stw 0,228(3)
.LVL833:
.L620:
.LBE7547:
.LBE7546:
.LBE7552:
.LBE7558:
	.loc 3 129 0
	li 3,196
.LEHB92:
	bl _Znwj
.LEHE92:
	lwz 4,268(31)
	mr 28,3
.LEHB93:
	bl _ZN8GuiImageC1EP12GuiImageData
.LEHE93:
.LVL834:
	.loc 3 129 0 is_stmt 0 discriminator 1
	lwz 9,224(31)
.LBB7559:
.LBB7560:
	.loc 7 696 0 is_stmt 1 discriminator 1
	slwi 30,27,2
.LBE7560:
.LBE7559:
	.loc 3 129 0 discriminator 1
	li 11,0
	stwx 28,9,30
.LVL835:
	stw 11,8(1)
.LVL836:
.LBB7561:
	.loc 3 412 0 discriminator 1
	lwz 0,200(31)
	lwz 9,204(31)
.LBB7562:
.LBB7563:
.LBB7564:
	.loc 7 571 0 discriminator 1
	subf 5,0,9
	srawi 5,5,2
.LBE7564:
.LBE7563:
	.loc 7 631 0 discriminator 1
	cmplw 7,29,5
	bgt- 7,.L638
	.loc 7 633 0
	bge- 7,.L622
.LVL837:
	.loc 7 634 0
	slwi 9,29,2
	add 0,0,9
.LBB7565:
.LBB7566:
	.loc 7 1256 0
	stw 0,204(31)
.LVL838:
.L622:
.LBE7566:
.LBE7565:
.LBE7562:
.LBE7561:
	.loc 3 132 0 discriminator 1
	lis 25,.LC9@ha
	mr 28,1
	la 25,.LC9@l(25)
	mr 3,25
.LEHB94:
	bl getThemeColor
	mr 24,3
	li 3,208
	bl _Znwj
.LEHE94:
	stwu 24,32(28)
	li 4,0
	li 5,20
	mr 6,28
	mr 26,3
.LEHB95:
	bl _ZN7GuiTextC1EPKci9_gx_color
.LEHE95:
.LVL839:
	lwz 9,200(31)
	.loc 3 133 0 discriminator 1
	li 4,33
	.loc 3 132 0 discriminator 1
	stwx 26,9,30
.LVL840:
	.loc 3 135 0 discriminator 1
	lis 26,.LC10@ha
	la 26,.LC10@l(26)
	.loc 3 133 0 discriminator 1
	lwz 9,200(31)
	lwzx 3,9,30
	lwz 9,0(3)
	lwz 0,180(9)
	mtctr 0
.LEHB96:
	bctrl
.LVL841:
	.loc 3 134 0 discriminator 1
	lwz 9,200(31)
	li 4,38
	li 5,0
	lwzx 3,9,30
	lwz 9,0(3)
	lwz 0,168(9)
	mtctr 0
	bctrl
.LVL842:
	.loc 3 135 0 discriminator 1
	lwz 9,200(31)
	mr 3,26
	lwzx 24,9,30
	bl getThemeInt
	addi 4,3,-38
	li 5,1
	mr 3,24
	bl _ZN7GuiText11SetMaxWidthEii
.LVL843:
.LBB7570:
	.loc 3 412 0 discriminator 1
	lwz 0,212(31)
	lwz 9,216(31)
.LBE7570:
	.loc 3 135 0 discriminator 1
	li 11,0
	stw 11,8(1)
.LVL844:
.LBB7579:
.LBB7571:
.LBB7572:
.LBB7573:
	.loc 7 571 0 discriminator 1
	subf 5,0,9
	srawi 5,5,2
.LBE7573:
.LBE7572:
	.loc 7 631 0 discriminator 1
	cmplw 7,29,5
	bgt- 7,.L639
	.loc 7 633 0
	bge- 7,.L624
.LVL845:
	.loc 7 634 0
	slwi 9,29,2
	add 0,0,9
.LBB7574:
.LBB7575:
	.loc 7 1256 0
	stw 0,216(31)
.LVL846:
.L624:
.LBE7575:
.LBE7574:
.LBE7571:
.LBE7579:
	.loc 3 138 0 discriminator 1
	mr 3,25
	bl getThemeColor
	mr 24,3
	li 3,208
	bl _Znwj
.LEHE96:
	li 4,0
	li 5,20
	mr 6,28
	mr 25,3
	stw 24,32(1)
.LEHB97:
	bl _ZN7GuiTextC1EPKci9_gx_color
.LEHE97:
.LVL847:
	lwz 9,212(31)
	.loc 3 139 0 discriminator 1
	li 4,33
	.loc 3 138 0 discriminator 1
	stwx 25,9,30
.LVL848:
	.loc 3 139 0 discriminator 1
	lwz 9,212(31)
	lwzx 3,9,30
	lwz 9,0(3)
	lwz 0,180(9)
	mtctr 0
.LEHB98:
	bctrl
.LVL849:
	.loc 3 140 0 discriminator 1
	lwz 9,212(31)
	li 4,38
	li 5,0
	lwzx 3,9,30
	lwz 9,0(3)
	lwz 0,168(9)
	mtctr 0
	bctrl
.LVL850:
	.loc 3 141 0 discriminator 1
	lwz 9,212(31)
	mr 3,26
	lwzx 28,9,30
	bl getThemeInt
	addi 4,3,-52
	li 5,2
	mr 3,28
	bl _ZN7GuiText11SetMaxWidthEii
.LVL851:
.LBB7580:
	.loc 3 412 0 discriminator 1
	lwz 9,236(31)
	lwz 0,240(31)
.LBE7580:
	.loc 3 141 0 discriminator 1
	li 11,0
	stw 11,8(1)
.LVL852:
.LBB7589:
.LBB7581:
.LBB7582:
.LBB7583:
	.loc 7 571 0 discriminator 1
	subf 5,9,0
	srawi 5,5,2
.LBE7583:
.LBE7582:
	.loc 7 631 0 discriminator 1
	cmplw 7,29,5
	bgt- 7,.L640
	.loc 7 633 0
	bge- 7,.L626
.LVL853:
	.loc 7 634 0
	slwi 0,29,2
	add 0,9,0
.LBB7584:
.LBB7585:
	.loc 7 1256 0
	stw 0,240(31)
.LVL854:
.L626:
.LBE7585:
.LBE7584:
.LBE7581:
.LBE7589:
	.loc 3 144 0 discriminator 1
	li 0,0
	stwx 0,9,30
.LVL855:
	stw 0,8(1)
.LVL856:
.LBB7590:
	.loc 3 412 0 discriminator 1
	lwz 9,252(31)
	lwz 0,248(31)
.LBB7591:
.LBB7592:
.LBB7593:
	.loc 7 571 0 discriminator 1
	subf 5,0,9
	srawi 5,5,2
.LBE7593:
.LBE7592:
	.loc 7 631 0 discriminator 1
	cmplw 7,29,5
	bgt- 7,.L641
	.loc 7 633 0
	blt- 7,.L642
.LVL857:
.L628:
.LBE7591:
.LBE7590:
	.loc 3 147 0 discriminator 1
	mr 3,26
	bl getThemeInt
	mr 28,3
	li 3,312
	bl _Znwj
.LEHE98:
	addi 4,28,-2
	li 5,30
	mr 29,3
.LEHB99:
	bl _ZN9GuiButtonC1Eii
.LEHE99:
.LVL858:
	lwz 9,248(31)
	.loc 3 148 0 discriminator 1
	mr 4,31
	.loc 3 147 0 discriminator 1
	stwx 29,9,30
.LVL859:
	.loc 3 148 0 discriminator 1
	lwz 9,248(31)
	lwzx 3,9,30
	lwz 9,0(3)
	lwz 0,8(9)
	mtctr 0
.LEHB100:
	bctrl
.LVL860:
	.loc 3 149 0 discriminator 1
	lwz 11,248(31)
	lwz 9,200(31)
	li 5,0
	lwzx 3,11,30
	lwzx 4,9,30
	bl _ZN9GuiButton8SetLabelEP7GuiTexti
.LVL861:
	.loc 3 150 0 discriminator 1
	lwz 11,248(31)
	lwz 9,212(31)
	li 5,0
	lwzx 3,11,30
	lwzx 4,9,30
	bl _ZN9GuiButton12SetLabelOverEP7GuiTexti
.LVL862:
	.loc 3 151 0 discriminator 1
	lwz 11,248(31)
	lwz 9,224(31)
	lwzx 3,11,30
	lwzx 4,9,30
	bl _ZN9GuiButton12SetImageOverEP8GuiImage
.LVL863:
	.loc 3 152 0 discriminator 1
	lwz 9,248(31)
	mulli 5,27,30
	li 4,2
	lwzx 3,9,30
	addi 5,5,3
	lwz 9,0(3)
	lwz 0,168(9)
	mtctr 0
	bctrl
.LVL864:
	.loc 3 153 0 discriminator 1
	lwz 9,248(31)
	lwz 4,340(31)
	lwzx 3,9,30
	bl _ZN9GuiButton10SetTriggerEP10GuiTrigger
.LVL865:
	.loc 3 154 0 discriminator 1
	lwz 9,248(31)
	lwz 4,336(31)
	lwzx 3,9,30
	bl _ZN9GuiButton13SetSoundClickEP8GuiSound
.LVL866:
	.loc 3 155 0 discriminator 1
	lwz 9,248(31)
	mr 4,31
	addi 5,1,40
	lwzx 3,9,30
	lis 9,_ZN15ListFileBrowser9OnClickedEP9GuiButtoniRK6_POINT@ha
	la 0,_ZN15ListFileBrowser9OnClickedEP9GuiButtoniRK6_POINT@l(9)
	stw 0,40(1)
	addi 3,3,144
	li 0,0
	stw 0,44(1)
	bl _ZN7sigslot7signal3IP9GuiButtoniRK6_POINTNS_15single_threadedEE7connectI15ListFileBrowserEEvPT_MSA_FvS2_iS5_E
.LBE7605:
	.loc 3 156 0 discriminator 1
	lwz 0,84(1)
	lwz 24,48(1)
	mtlr 0
	lwz 25,52(1)
	lwz 26,56(1)
	lwz 27,60(1)
.LVL867:
	lwz 28,64(1)
	lwz 29,68(1)
	lwz 30,72(1)
	lwz 31,76(1)
.LVL868:
	addi 1,1,80
	.cfi_remember_state
.LCFI137:
	.cfi_def_cfa_offset 0
	.cfi_restore 31
	.cfi_restore 30
	.cfi_restore 29
	.cfi_restore 28
	.cfi_restore 27
	.cfi_restore 26
	.cfi_restore 25
	.cfi_restore 24
	blr
.LVL869:
.L642:
.LCFI138:
	.cfi_restore_state
.LBB7606:
.LBB7599:
.LBB7598:
	.loc 7 634 0
	slwi 29,29,2
.LVL870:
	add 0,0,29
.LBB7594:
.LBB7595:
	.loc 7 1256 0
	stw 0,252(31)
	b .L628
.LVL871:
.L641:
.LBE7595:
.LBE7594:
.LBB7596:
.LBB7597:
	.loc 7 944 0
	mr 4,1
	addi 3,31,248
	stwu 9,36(4)
	subf 5,5,29
.LVL872:
	addi 6,1,8
	bl _ZNSt6vectorIP9GuiButtonSaIS1_EE14_M_fill_insertEN9__gnu_cxx17__normal_iteratorIPS1_S3_EEjRKS1_
.LVL873:
	b .L628
.LVL874:
.L638:
.LBE7597:
.LBE7596:
.LBE7598:
.LBE7599:
.LBB7600:
.LBB7569:
.LBB7567:
.LBB7568:
	mr 4,1
	addi 3,31,200
	stwu 9,28(4)
	subf 5,5,29
.LVL875:
	addi 6,1,8
.LVL876:
	bl _ZNSt6vectorIP7GuiTextSaIS1_EE14_M_fill_insertEN9__gnu_cxx17__normal_iteratorIPS1_S3_EEjRKS1_
.LVL877:
	b .L622
.LVL878:
.L637:
.LBE7568:
.LBE7567:
.LBE7569:
.LBE7600:
.LBB7601:
.LBB7553:
.LBB7548:
.LBB7549:
	mr 4,1
	addi 3,3,224
	stwu 9,24(4)
	subf 5,5,29
.LVL879:
	addi 6,1,8
.LVL880:
	bl _ZNSt6vectorIP8GuiImageSaIS1_EE14_M_fill_insertEN9__gnu_cxx17__normal_iteratorIPS1_S3_EEjRKS1_
.LVL881:
	b .L620
.LVL882:
.L640:
.LBE7549:
.LBE7548:
.LBE7553:
.LBE7601:
.LBB7602:
.LBB7588:
.LBB7586:
.LBB7587:
	mr 4,1
	addi 3,31,236
	stwu 0,24(4)
	subf 5,5,29
.LVL883:
	addi 6,1,8
.LVL884:
	bl _ZNSt6vectorIP8GuiImageSaIS1_EE14_M_fill_insertEN9__gnu_cxx17__normal_iteratorIPS1_S3_EEjRKS1_
.LVL885:
	lwz 9,236(31)
	b .L626
.LVL886:
.L639:
.LBE7587:
.LBE7586:
.LBE7588:
.LBE7602:
.LBB7603:
.LBB7578:
.LBB7576:
.LBB7577:
	mr 4,1
	addi 3,31,212
	stwu 9,28(4)
	subf 5,5,29
.LVL887:
	addi 6,1,8
.LVL888:
	bl _ZNSt6vectorIP7GuiTextSaIS1_EE14_M_fill_insertEN9__gnu_cxx17__normal_iteratorIPS1_S3_EEjRKS1_
.LVL889:
	b .L624
.LVL890:
.L635:
	mr 31,3
.LVL891:
.LBE7577:
.LBE7576:
.LBE7578:
.LBE7603:
	.loc 3 138 0
	mr 3,25
	bl _ZdlPv
	mr 3,31
	bl _Unwind_Resume
.LVL892:
.L634:
	mr 31,3
.LVL893:
	.loc 3 132 0
	mr 3,26
	bl _ZdlPv
	mr 3,31
	bl _Unwind_Resume
.LVL894:
.L633:
	mr 31,3
.LVL895:
	.loc 3 129 0
	mr 3,28
	bl _ZdlPv
	mr 3,31
	bl _Unwind_Resume
.LVL896:
.L636:
	mr 31,3
.LVL897:
	.loc 3 147 0
	mr 3,29
	bl _ZdlPv
	mr 3,31
	bl _Unwind_Resume
.LEHE100:
.LBE7606:
	.cfi_endproc
.LFE1616:
	.section	.gcc_except_table
.LLSDA1616:
	.byte	0xff
	.byte	0xff
	.byte	0x1
	.uleb128 .LLSDACSE1616-.LLSDACSB1616
.LLSDACSB1616:
	.uleb128 .LEHB92-.LFB1616
	.uleb128 .LEHE92-.LEHB92
	.uleb128 0
	.uleb128 0
	.uleb128 .LEHB93-.LFB1616
	.uleb128 .LEHE93-.LEHB93
	.uleb128 .L633-.LFB1616
	.uleb128 0
	.uleb128 .LEHB94-.LFB1616
	.uleb128 .LEHE94-.LEHB94
	.uleb128 0
	.uleb128 0
	.uleb128 .LEHB95-.LFB1616
	.uleb128 .LEHE95-.LEHB95
	.uleb128 .L634-.LFB1616
	.uleb128 0
	.uleb128 .LEHB96-.LFB1616
	.uleb128 .LEHE96-.LEHB96
	.uleb128 0
	.uleb128 0
	.uleb128 .LEHB97-.LFB1616
	.uleb128 .LEHE97-.LEHB97
	.uleb128 .L635-.LFB1616
	.uleb128 0
	.uleb128 .LEHB98-.LFB1616
	.uleb128 .LEHE98-.LEHB98
	.uleb128 0
	.uleb128 0
	.uleb128 .LEHB99-.LFB1616
	.uleb128 .LEHE99-.LEHB99
	.uleb128 .L636-.LFB1616
	.uleb128 0
	.uleb128 .LEHB100-.LFB1616
	.uleb128 .LEHE100-.LEHB100
	.uleb128 0
	.uleb128 0
.LLSDACSE1616:
	.section	".text"
	.size	_ZN15ListFileBrowser9AddButtonEv, .-_ZN15ListFileBrowser9AddButtonEv
	.align 2
	.globl _ZN15ListFileBrowser9SetButtonEiSbIwSt11char_traitsIwESaIwEEbb
	.type	_ZN15ListFileBrowser9SetButtonEiSbIwSt11char_traitsIwESaIwEEbb, @function
_ZN15ListFileBrowser9SetButtonEiSbIwSt11char_traitsIwESaIwEEbb:
.LFB1618:
	.loc 3 182 0
	.cfi_startproc
	.cfi_personality 0,__gxx_personality_v0
	.cfi_lsda 0,.LLSDA1618
.LVL898:
	stwu 1,-80(1)
.LCFI139:
	.cfi_def_cfa_offset 80
	mflr 0
	stw 30,72(1)
.LBB7789:
	.loc 3 183 0
	mr. 30,4
	.cfi_offset 30, -8
	.cfi_register 65, 0
.LBE7789:
	.loc 3 182 0
	stw 27,60(1)
	mr 27,6
	.cfi_offset 27, -20
	stw 29,68(1)
	mr 29,5
	.cfi_offset 29, -12
	stw 31,76(1)
	mr 31,3
	.cfi_offset 31, -4
	stw 0,84(1)
	stw 25,52(1)
	stw 26,56(1)
	stw 28,64(1)
.LBB7936:
	.loc 3 183 0
	blt- 0,.L643
	.cfi_offset 28, -16
	.cfi_offset 26, -24
	.cfi_offset 25, -28
	.cfi_offset 65, 4
.LBB7790:
.LBB7791:
	.loc 7 571 0
	lwz 9,252(3)
	lwz 0,248(3)
	subf 0,0,9
	srawi 0,0,2
.LBE7791:
.LBE7790:
	.loc 3 186 0
	cmpw 7,30,0
	bge- 7,.L700
	.loc 3 191 0
	cmpwi 7,7,0
	beq- 7,.L701
.LVL899:
.L646:
	.loc 3 198 0
	lwz 9,236(31)
.LBB7792:
.LBB7793:
	.loc 7 696 0
	slwi 30,30,2
.LVL900:
.LBE7793:
.LBE7792:
	.loc 3 198 0
	lwzx 3,9,30
	cmpwi 7,3,0
	beq- 7,.L647
	.loc 3 199 0
	lwz 9,0(3)
	lwz 0,4(9)
	mtctr 0
.LEHB101:
	bctrl
.LVL901:
.L647:
	.loc 3 201 0
	addi 3,1,32
	mr 4,29
	bl _ZNSbIwSt11char_traitsIwESaIwEEC1ERKS2_
.LEHE101:
	addi 3,1,36
	addi 4,1,32
.LEHB102:
	bl _Z8wstr2strSbIwSt11char_traitsIwESaIwEE
.LEHE102:
.LVL902:
.LBB7794:
.LBB7795:
.LBB7796:
.LBB7797:
.LBB7798:
.LBB7799:
	.loc 9 288 0
	lwz 9,32(1)
.LBE7799:
.LBE7798:
.LBE7797:
.LBB7800:
.LBB7801:
	.loc 9 235 0
	lis 28,_ZNSbIwSt11char_traitsIwESaIwEE4_Rep20_S_empty_rep_storageE@ha
	la 28,_ZNSbIwSt11char_traitsIwESaIwEE4_Rep20_S_empty_rep_storageE@l(28)
.LBE7801:
.LBE7800:
	.loc 9 534 0
	addi 3,9,-12
.LVL903:
.LBB7810:
.LBB7808:
	.loc 9 235 0
	cmpw 7,3,28
	bne- 7,.L702
.LVL904:
.L653:
.LBE7808:
.LBE7810:
.LBE7796:
.LBE7795:
.LBE7794:
.LBB7814:
.LBB7815:
	.loc 9 2022 0 discriminator 1
	addi 3,1,36
.LVL905:
	li 4,46
	li 5,-1
.LEHB103:
	bl _ZNKSs5rfindEcj
.LVL906:
.LBE7815:
.LBE7814:
	.loc 3 203 0 discriminator 1
	mr. 5,3
	ble- 0,.L654
.LVL907:
.LBB7816:
.LBB7817:
.LBB7818:
.LBB7819:
.LBB7820:
.LBB7821:
	.loc 9 711 0
	lwz 9,36(1)
.LBE7821:
.LBE7820:
	.loc 9 318 0
	lwz 0,-12(9)
	cmplw 7,5,0
	bgt- 7,.L703
.LBE7819:
.LBE7818:
	.loc 9 2157 0
	addi 3,1,28
.LVL908:
	addi 4,1,36
.LVL909:
	li 6,-1
	bl _ZNSsC1ERKSsjj
.LEHE103:
.LVL910:
.LBE7817:
.LBE7816:
.LBB7825:
.LBB7826:
	.loc 9 542 0
	addi 3,1,36
.LVL911:
	addi 4,1,28
.LVL912:
.LEHB104:
	bl _ZNSs6assignERKSs
.LEHE104:
.LVL913:
.LBE7826:
.LBE7825:
.LBB7827:
.LBB7828:
.LBB7829:
.LBB7830:
.LBB7831:
.LBB7832:
	.loc 9 288 0
	lwz 9,28(1)
.LBE7832:
.LBE7831:
.LBE7830:
.LBB7833:
.LBB7834:
	.loc 9 235 0
	lis 11,_ZNSs4_Rep20_S_empty_rep_storageE@ha
	la 0,_ZNSs4_Rep20_S_empty_rep_storageE@l(11)
.LBE7834:
.LBE7833:
	.loc 9 534 0
	addi 3,9,-12
.LVL914:
.LBB7843:
.LBB7841:
	.loc 9 235 0
	cmpw 7,3,0
	bne- 7,.L704
.LVL915:
.L661:
.LBE7841:
.LBE7843:
.LBE7829:
.LBE7828:
.LBE7827:
	.loc 3 206 0
	lis 4,.LC12@ha
	addi 3,1,36
.LVL916:
	la 4,.LC12@l(4)
.LEHB105:
	bl _ZNKSs7compareEPKc
.LVL917:
	cmpwi 7,3,0
	beq- 7,.L654
.LVL918:
.L662:
	.loc 3 212 0
	addi 3,1,24
	addi 4,1,36
.LVL919:
.LBB7847:
.LBB7848:
.LBB7849:
	.loc 3 412 0
	lwz 26,236(31)
.LBE7849:
.LBE7848:
.LBE7847:
	.loc 3 212 0
	bl _ZNSsC1ERKSs
.LEHE105:
.LVL920:
	.loc 3 212 0 is_stmt 0 discriminator 1
	mr 3,31
	addi 4,1,24
	mr 5,27
.LEHB106:
	bl _ZN15ListFileBrowser14GetIconFromExtESsb.constprop.251
.LEHE106:
	stwx 3,26,30
.LVL921:
.LBB7852:
.LBB7853:
.LBB7854:
.LBB7855:
.LBB7856:
	.loc 9 235 0 is_stmt 1 discriminator 1
	lis 27,_ZNSs4_Rep20_S_empty_rep_storageE@ha
	la 27,_ZNSs4_Rep20_S_empty_rep_storageE@l(27)
.LBE7856:
.LBE7855:
.LBB7865:
.LBB7866:
.LBB7867:
	.loc 9 288 0 discriminator 1
	lwz 9,24(1)
.LBE7867:
.LBE7866:
.LBE7865:
	.loc 9 534 0 discriminator 1
	addi 3,9,-12
.LVL922:
.LBB7868:
.LBB7863:
	.loc 9 235 0 discriminator 1
	cmpw 7,3,27
	bne- 7,.L705
.LVL923:
.L668:
.LBE7863:
.LBE7868:
.LBE7854:
.LBE7853:
.LBE7852:
	.loc 3 213 0 discriminator 2
	lwz 9,236(31)
	lwzx 3,9,30
	lis 9,.LC14@ha
	lfs 1,.LC14@l(9)
	lwz 9,0(3)
	lwz 0,104(9)
	mtctr 0
.LEHB107:
	bctrl
	.loc 3 214 0
	lwz 9,236(31)
	li 4,0
	li 5,-7
	lwzx 3,9,30
	lwz 9,0(3)
	lwz 0,168(9)
	mtctr 0
	bctrl
	.loc 3 216 0
	lwz 9,200(31)
	addi 3,1,20
	mr 4,29
	lwzx 26,9,30
	lwz 9,0(26)
	lwz 25,212(9)
	bl _ZNSbIwSt11char_traitsIwESaIwEEC1ERKS2_
.LEHE107:
	.loc 3 216 0 is_stmt 0 discriminator 1
	mr 3,26
	addi 4,1,20
	mtctr 25
.LEHB108:
	bctrl
.LEHE108:
.LVL924:
.LBB7872:
.LBB7873:
.LBB7874:
.LBB7875:
.LBB7876:
.LBB7877:
	.loc 9 288 0 is_stmt 1
	lwz 9,20(1)
.LBE7877:
.LBE7876:
.LBE7875:
	.loc 9 534 0
	addi 3,9,-12
.LVL925:
.LBB7878:
.LBB7879:
	.loc 9 235 0
	cmpw 7,3,28
	bne- 7,.L706
.LVL926:
.L674:
.LBE7879:
.LBE7878:
.LBE7874:
.LBE7873:
.LBE7872:
	.loc 3 217 0 discriminator 1
	lwz 9,212(31)
	mr 4,29
	addi 3,1,16
	lwzx 26,9,30
	lwz 9,0(26)
	lwz 29,212(9)
.LVL927:
.LEHB109:
	bl _ZNSbIwSt11char_traitsIwESaIwEEC1ERKS2_
.LEHE109:
.LVL928:
	mr 3,26
	addi 4,1,16
	mtctr 29
.LEHB110:
	bctrl
.LEHE110:
.LVL929:
.LBB7890:
.LBB7891:
.LBB7892:
.LBB7893:
.LBB7894:
.LBB7895:
	.loc 9 288 0
	lwz 9,16(1)
.LBE7895:
.LBE7894:
.LBE7893:
	.loc 9 534 0
	addi 3,9,-12
.LVL930:
.LBB7896:
.LBB7897:
	.loc 9 235 0
	cmpw 7,3,28
	bne- 7,.L707
.LVL931:
.L680:
.LBE7897:
.LBE7896:
.LBE7892:
.LBE7891:
.LBE7890:
	.loc 3 219 0 discriminator 1
	lwz 11,248(31)
	lwz 9,236(31)
	lwzx 3,11,30
	lwzx 4,9,30
.LEHB111:
	bl _ZN9GuiButton7SetIconEP8GuiImage
	.loc 3 220 0
	lwz 9,248(31)
	li 4,1
	lwzx 3,9,30
	lwz 9,0(3)
	lwz 0,48(9)
	mtctr 0
	bctrl
	.loc 3 222 0
	lwz 9,248(31)
	lwzx 3,9,30
	lwz 9,0(3)
	lwz 0,84(9)
	mtctr 0
	bctrl
	cmpwi 7,3,4
	beq- 7,.L708
.L681:
.LVL932:
.LBB7908:
.LBB7909:
.LBB7910:
.LBB7911:
.LBB7912:
.LBB7913:
	.loc 9 288 0
	lwz 9,36(1)
.LBE7913:
.LBE7912:
.LBE7911:
	.loc 9 534 0
	addi 3,9,-12
.LVL933:
.LBB7914:
.LBB7915:
	.loc 9 235 0
	cmpw 7,3,27
	bne- 7,.L709
.LVL934:
.L643:
.LBE7915:
.LBE7914:
.LBE7910:
.LBE7909:
.LBE7908:
.LBE7936:
	.loc 3 224 0
	lwz 0,84(1)
	lwz 25,52(1)
	mtlr 0
	lwz 26,56(1)
	lwz 27,60(1)
	lwz 28,64(1)
	lwz 29,68(1)
	lwz 30,72(1)
	lwz 31,76(1)
.LVL935:
	addi 1,1,80
	.cfi_remember_state
.LCFI140:
	.cfi_def_cfa_offset 0
	.cfi_restore 31
	.cfi_restore 30
	.cfi_restore 29
	.cfi_restore 28
	.cfi_restore 27
	.cfi_restore 26
	.cfi_restore 25
	blr
.LVL936:
.L654:
.LCFI141:
	.cfi_restore_state
.LBB7937:
.LBB7926:
.LBB7851:
.LBB7850:
	.loc 9 1121 0
	lis 4,.LC13@ha
	addi 3,1,36
.LVL937:
	la 4,.LC13@l(4)
	li 5,0
	bl _ZNSs6assignEPKcj
.LEHE111:
.LVL938:
	b .L662
.LVL939:
.L700:
.LBE7850:
.LBE7851:
.LBE7926:
	.loc 3 188 0
	stw 7,40(1)
.LEHB112:
	bl _ZN15ListFileBrowser9AddButtonEv
.LVL940:
	lwz 7,40(1)
	.loc 3 191 0
	cmpwi 7,7,0
	bne+ 7,.L646
.L701:
.LVL941:
	.loc 3 193 0
	lwz 9,248(31)
.LBB7927:
.LBB7928:
	.loc 7 696 0
	slwi 30,30,2
.LVL942:
.LBE7928:
.LBE7927:
	.loc 3 193 0
	li 4,0
	lwzx 3,9,30
	lwz 9,0(3)
	lwz 0,48(9)
	mtctr 0
	bctrl
	.loc 3 194 0
	lwz 9,248(31)
	li 4,4
	li 5,-1
	lwzx 3,9,30
	lwz 9,0(3)
	lwz 0,80(9)
	mtctr 0
	bctrl
.LEHE112:
.LBE7937:
	.loc 3 224 0
	lwz 0,84(1)
	lwz 25,52(1)
	mtlr 0
	lwz 26,56(1)
	lwz 27,60(1)
	lwz 28,64(1)
	lwz 29,68(1)
.LVL943:
	lwz 30,72(1)
	lwz 31,76(1)
.LVL944:
	addi 1,1,80
	.cfi_remember_state
	.cfi_restore 25
	.cfi_restore 26
	.cfi_restore 27
	.cfi_restore 28
	.cfi_restore 29
	.cfi_restore 30
	.cfi_restore 31
.LCFI142:
	.cfi_def_cfa_offset 0
	blr
.LVL945:
.L708:
.LCFI143:
	.cfi_restore_state
.LBB7938:
	.loc 3 223 0
	lwz 9,248(31)
	li 4,0
	li 5,-1
	lwzx 3,9,30
	lwz 9,0(3)
	lwz 0,80(9)
	mtctr 0
.LEHB113:
	bctrl
	b .L681
.LVL946:
.L709:
.LBB7929:
.LBB7925:
.LBB7924:
.LBB7923:
.LBB7922:
.LBB7916:
.LBB7917:
.LBB7918:
	.file 15 "d:\\devkitpro\\devkitppc\\bin\\../lib/gcc/powerpc-eabi/4.6.3/../../../../powerpc-eabi/include/c++/4.6.3/ext/atomicity.h"
	.loc 15 66 0
	lwz 11,-4(9)
.LVL947:
.LBE7918:
.LBE7917:
.LBE7916:
	.loc 9 240 0
	cmpwi 7,11,0
.LBB7921:
.LBB7920:
.LBB7919:
	.loc 15 67 0
	addi 11,11,-1
	stw 11,-4(9)
.LBE7919:
.LBE7920:
.LBE7921:
	.loc 9 240 0
	bgt+ 7,.L643
	.loc 9 244 0
	addi 4,1,8
	bl _ZNSs4_Rep10_M_destroyERKSaIcE
.LVL948:
	b .L643
.LVL949:
.L702:
.LBE7922:
.LBE7923:
.LBE7924:
.LBE7925:
.LBE7929:
.LBB7930:
.LBB7813:
.LBB7812:
.LBB7811:
.LBB7809:
.LBB7802:
.LBB7803:
.LBB7804:
	.loc 15 66 0
	lwz 11,-4(9)
.LVL950:
.LBE7804:
.LBE7803:
.LBE7802:
	.loc 9 240 0
	cmpwi 7,11,0
.LBB7807:
.LBB7806:
.LBB7805:
	.loc 15 67 0
	addi 11,11,-1
	stw 11,-4(9)
.LBE7805:
.LBE7806:
.LBE7807:
	.loc 9 240 0
	bgt+ 7,.L653
	.loc 9 244 0
	addi 4,1,13
	bl _ZNSbIwSt11char_traitsIwESaIwEE4_Rep10_M_destroyERKS1_
.LVL951:
	b .L653
.LVL952:
.L707:
.LBE7809:
.LBE7811:
.LBE7812:
.LBE7813:
.LBE7930:
.LBB7931:
.LBB7907:
.LBB7906:
.LBB7905:
.LBB7904:
.LBB7898:
.LBB7899:
.LBB7900:
	.loc 15 66 0
	lwz 11,-4(9)
.LVL953:
.LBE7900:
.LBE7899:
.LBE7898:
	.loc 9 240 0
	cmpwi 7,11,0
.LBB7903:
.LBB7902:
.LBB7901:
	.loc 15 67 0
	addi 11,11,-1
	stw 11,-4(9)
.LBE7901:
.LBE7902:
.LBE7903:
	.loc 9 240 0
	bgt+ 7,.L680
	.loc 9 244 0
	addi 4,1,9
	bl _ZNSbIwSt11char_traitsIwESaIwEE4_Rep10_M_destroyERKS1_
.LVL954:
	b .L680
.LVL955:
.L705:
.LBE7904:
.LBE7905:
.LBE7906:
.LBE7907:
.LBE7931:
.LBB7932:
.LBB7871:
.LBB7870:
.LBB7869:
.LBB7864:
.LBB7857:
.LBB7858:
.LBB7859:
	.loc 15 66 0
	lwz 11,-4(9)
.LVL956:
.LBE7859:
.LBE7858:
.LBE7857:
	.loc 9 240 0
	cmpwi 7,11,0
.LBB7862:
.LBB7861:
.LBB7860:
	.loc 15 67 0
	addi 11,11,-1
	stw 11,-4(9)
.LBE7860:
.LBE7861:
.LBE7862:
	.loc 9 240 0
	bgt+ 7,.L668
	.loc 9 244 0
	addi 4,1,11
	bl _ZNSs4_Rep10_M_destroyERKSaIcE
.LVL957:
	b .L668
.LVL958:
.L706:
.LBE7864:
.LBE7869:
.LBE7870:
.LBE7871:
.LBE7932:
.LBB7933:
.LBB7889:
.LBB7888:
.LBB7887:
.LBB7886:
.LBB7880:
.LBB7881:
.LBB7882:
	.loc 15 66 0
	lwz 11,-4(9)
.LVL959:
.LBE7882:
.LBE7881:
.LBE7880:
	.loc 9 240 0
	cmpwi 7,11,0
.LBB7885:
.LBB7884:
.LBB7883:
	.loc 15 67 0
	addi 11,11,-1
	stw 11,-4(9)
.LBE7883:
.LBE7884:
.LBE7885:
	.loc 9 240 0
	bgt+ 7,.L674
	.loc 9 244 0
	addi 4,1,10
	bl _ZNSbIwSt11char_traitsIwESaIwEE4_Rep10_M_destroyERKS1_
.LVL960:
	b .L674
.LVL961:
.L703:
.LBE7886:
.LBE7887:
.LBE7888:
.LBE7889:
.LBE7933:
.LBB7934:
.LBB7824:
.LBB7823:
.LBB7822:
	.loc 9 319 0
	lis 3,.LC11@ha
.LVL962:
	la 3,.LC11@l(3)
	bl _ZSt20__throw_out_of_rangePKc
.LEHE113:
.LVL963:
.L694:
	mr 31,3
.LVL964:
.L689:
.LBE7822:
.LBE7823:
.LBE7824:
.LBE7934:
	.loc 3 223 0
	addi 3,1,36
.LVL965:
	bl _ZNSsD1Ev
.LVL966:
	mr 3,31
.LEHB114:
	bl _Unwind_Resume
.LVL967:
.L704:
.LBB7935:
.LBB7846:
.LBB7845:
.LBB7844:
.LBB7842:
.LBB7835:
.LBB7836:
.LBB7837:
	.loc 15 66 0
	lwz 11,-4(9)
.LVL968:
.LBE7837:
.LBE7836:
.LBE7835:
	.loc 9 240 0
	cmpwi 7,11,0
.LBB7840:
.LBB7839:
.LBB7838:
	.loc 15 67 0
	addi 11,11,-1
	stw 11,-4(9)
.LBE7838:
.LBE7839:
.LBE7840:
	.loc 9 240 0
	bgt+ 7,.L661
	.loc 9 244 0
	addi 4,1,12
	bl _ZNSs4_Rep10_M_destroyERKSaIcE
.LVL969:
	b .L661
.LVL970:
.L693:
	mr 31,3
.LVL971:
.LBE7842:
.LBE7844:
.LBE7845:
.LBE7846:
.LBE7935:
	.loc 3 201 0
	addi 3,1,32
	bl _ZNSbIwSt11char_traitsIwESaIwEED1Ev
	mr 3,31
	bl _Unwind_Resume
.LEHE114:
.LVL972:
.L695:
	mr 31,3
.LVL973:
	.loc 3 205 0
	addi 3,1,28
.LVL974:
	bl _ZNSsD1Ev
.LVL975:
	b .L689
.LVL976:
.L696:
	mr 31,3
.LVL977:
	.loc 3 212 0
	addi 3,1,24
	bl _ZNSsD1Ev
	b .L689
.LVL978:
.L697:
	mr 31,3
.LVL979:
	.loc 3 216 0
	addi 3,1,20
	bl _ZNSbIwSt11char_traitsIwESaIwEED1Ev
	b .L689
.LVL980:
.L698:
	mr 31,3
.LVL981:
	.loc 3 217 0
	addi 3,1,16
	bl _ZNSbIwSt11char_traitsIwESaIwEED1Ev
	b .L689
.LBE7938:
	.cfi_endproc
.LFE1618:
	.section	.gcc_except_table
.LLSDA1618:
	.byte	0xff
	.byte	0xff
	.byte	0x1
	.uleb128 .LLSDACSE1618-.LLSDACSB1618
.LLSDACSB1618:
	.uleb128 .LEHB101-.LFB1618
	.uleb128 .LEHE101-.LEHB101
	.uleb128 0
	.uleb128 0
	.uleb128 .LEHB102-.LFB1618
	.uleb128 .LEHE102-.LEHB102
	.uleb128 .L693-.LFB1618
	.uleb128 0
	.uleb128 .LEHB103-.LFB1618
	.uleb128 .LEHE103-.LEHB103
	.uleb128 .L694-.LFB1618
	.uleb128 0
	.uleb128 .LEHB104-.LFB1618
	.uleb128 .LEHE104-.LEHB104
	.uleb128 .L695-.LFB1618
	.uleb128 0
	.uleb128 .LEHB105-.LFB1618
	.uleb128 .LEHE105-.LEHB105
	.uleb128 .L694-.LFB1618
	.uleb128 0
	.uleb128 .LEHB106-.LFB1618
	.uleb128 .LEHE106-.LEHB106
	.uleb128 .L696-.LFB1618
	.uleb128 0
	.uleb128 .LEHB107-.LFB1618
	.uleb128 .LEHE107-.LEHB107
	.uleb128 .L694-.LFB1618
	.uleb128 0
	.uleb128 .LEHB108-.LFB1618
	.uleb128 .LEHE108-.LEHB108
	.uleb128 .L697-.LFB1618
	.uleb128 0
	.uleb128 .LEHB109-.LFB1618
	.uleb128 .LEHE109-.LEHB109
	.uleb128 .L694-.LFB1618
	.uleb128 0
	.uleb128 .LEHB110-.LFB1618
	.uleb128 .LEHE110-.LEHB110
	.uleb128 .L698-.LFB1618
	.uleb128 0
	.uleb128 .LEHB111-.LFB1618
	.uleb128 .LEHE111-.LEHB111
	.uleb128 .L694-.LFB1618
	.uleb128 0
	.uleb128 .LEHB112-.LFB1618
	.uleb128 .LEHE112-.LEHB112
	.uleb128 0
	.uleb128 0
	.uleb128 .LEHB113-.LFB1618
	.uleb128 .LEHE113-.LEHB113
	.uleb128 .L694-.LFB1618
	.uleb128 0
	.uleb128 .LEHB114-.LFB1618
	.uleb128 .LEHE114-.LEHB114
	.uleb128 0
	.uleb128 0
.LLSDACSE1618:
	.section	".text"
	.size	_ZN15ListFileBrowser9SetButtonEiSbIwSt11char_traitsIwESaIwEEbb, .-_ZN15ListFileBrowser9SetButtonEiSbIwSt11char_traitsIwESaIwEEbb
	.align 2
	.type	_ZN15ListFileBrowser9SetButtonEiSbIwSt11char_traitsIwESaIwEEbb.constprop.247, @function
_ZN15ListFileBrowser9SetButtonEiSbIwSt11char_traitsIwESaIwEEbb.constprop.247:
.LFB2763:
	.loc 3 181 0
	.cfi_startproc
	.cfi_personality 0,__gxx_personality_v0
	.cfi_lsda 0,.LLSDA2763
.LVL982:
	stwu 1,-80(1)
.LCFI144:
	.cfi_def_cfa_offset 80
	mflr 0
	stw 30,72(1)
.LBB8121:
	.loc 3 183 0
	mr. 30,4
	.cfi_offset 30, -8
	.cfi_register 65, 0
.LBE8121:
	.loc 3 181 0
	stw 27,60(1)
	mr 27,6
	.cfi_offset 27, -20
	stw 29,68(1)
	mr 29,5
	.cfi_offset 29, -12
	stw 31,76(1)
	mr 31,3
	.cfi_offset 31, -4
	stw 0,84(1)
	stw 25,52(1)
	stw 26,56(1)
	stw 28,64(1)
.LBB8268:
	.loc 3 183 0
	blt- 0,.L710
	.cfi_offset 28, -16
	.cfi_offset 26, -24
	.cfi_offset 25, -28
	.cfi_offset 65, 4
.LBB8122:
.LBB8123:
	.loc 7 571 0
	lwz 9,252(3)
	lwz 0,248(3)
	subf 0,0,9
	srawi 0,0,2
.LBE8123:
.LBE8122:
	.loc 3 186 0
	cmpw 7,30,0
	bge- 7,.L767
	.loc 3 191 0
	cmpwi 7,7,0
	beq- 7,.L768
.LVL983:
.L713:
	.loc 3 198 0
	lwz 9,236(31)
.LBB8124:
.LBB8125:
	.loc 7 696 0
	slwi 30,30,2
.LVL984:
.LBE8125:
.LBE8124:
	.loc 3 198 0
	lwzx 3,9,30
	cmpwi 7,3,0
	beq- 7,.L714
	.loc 3 199 0
	lwz 9,0(3)
	lwz 0,4(9)
	mtctr 0
.LEHB115:
	bctrl
.LVL985:
.L714:
	.loc 3 201 0
	addi 3,1,16
	mr 4,29
	bl _ZNSbIwSt11char_traitsIwESaIwEEC1ERKS2_
.LEHE115:
	addi 3,1,36
	addi 4,1,16
.LEHB116:
	bl _Z8wstr2strSbIwSt11char_traitsIwESaIwEE
.LEHE116:
.LVL986:
.LBB8126:
.LBB8127:
.LBB8128:
.LBB8129:
.LBB8130:
.LBB8131:
	.loc 9 288 0
	lwz 9,16(1)
.LBE8131:
.LBE8130:
.LBE8129:
.LBB8132:
.LBB8133:
	.loc 9 235 0
	lis 28,_ZNSbIwSt11char_traitsIwESaIwEE4_Rep20_S_empty_rep_storageE@ha
	la 28,_ZNSbIwSt11char_traitsIwESaIwEE4_Rep20_S_empty_rep_storageE@l(28)
.LBE8133:
.LBE8132:
	.loc 9 534 0
	addi 3,9,-12
.LVL987:
.LBB8142:
.LBB8140:
	.loc 9 235 0
	cmpw 7,3,28
	bne- 7,.L769
.LVL988:
.L720:
.LBE8140:
.LBE8142:
.LBE8128:
.LBE8127:
.LBE8126:
.LBB8146:
.LBB8147:
	.loc 9 2022 0
	addi 3,1,36
.LVL989:
	li 4,46
	li 5,-1
.LEHB117:
	bl _ZNKSs5rfindEcj
.LVL990:
.LBE8147:
.LBE8146:
	.loc 3 203 0
	mr. 5,3
	ble- 0,.L721
.LVL991:
.LBB8148:
.LBB8149:
.LBB8150:
.LBB8151:
.LBB8152:
.LBB8153:
	.loc 9 711 0
	lwz 9,36(1)
.LBE8153:
.LBE8152:
	.loc 9 318 0
	lwz 0,-12(9)
	cmplw 7,5,0
	bgt- 7,.L770
.LBE8151:
.LBE8150:
	.loc 9 2157 0
	addi 3,1,20
.LVL992:
	addi 4,1,36
.LVL993:
	li 6,-1
	bl _ZNSsC1ERKSsjj
.LEHE117:
.LVL994:
.LBE8149:
.LBE8148:
.LBB8157:
.LBB8158:
	.loc 9 542 0
	addi 3,1,36
.LVL995:
	addi 4,1,20
.LVL996:
.LEHB118:
	bl _ZNSs6assignERKSs
.LEHE118:
.LVL997:
.LBE8158:
.LBE8157:
.LBB8159:
.LBB8160:
.LBB8161:
.LBB8162:
.LBB8163:
.LBB8164:
	.loc 9 288 0
	lwz 9,20(1)
.LBE8164:
.LBE8163:
.LBE8162:
.LBB8165:
.LBB8166:
	.loc 9 235 0
	lis 11,_ZNSs4_Rep20_S_empty_rep_storageE@ha
	la 0,_ZNSs4_Rep20_S_empty_rep_storageE@l(11)
.LBE8166:
.LBE8165:
	.loc 9 534 0
	addi 3,9,-12
.LVL998:
.LBB8175:
.LBB8173:
	.loc 9 235 0
	cmpw 7,3,0
	bne- 7,.L771
.LVL999:
.L728:
.LBE8173:
.LBE8175:
.LBE8161:
.LBE8160:
.LBE8159:
	.loc 3 206 0
	lis 4,.LC12@ha
	addi 3,1,36
.LVL1000:
	la 4,.LC12@l(4)
.LEHB119:
	bl _ZNKSs7compareEPKc
.LVL1001:
	cmpwi 7,3,0
	beq- 7,.L721
.LVL1002:
.L729:
	.loc 3 212 0
	addi 3,1,24
	addi 4,1,36
.LVL1003:
.LBB8179:
.LBB8180:
.LBB8181:
	.loc 3 412 0
	lwz 26,236(31)
.LBE8181:
.LBE8180:
.LBE8179:
	.loc 3 212 0
	bl _ZNSsC1ERKSs
.LEHE119:
.LVL1004:
	mr 3,31
	addi 4,1,24
	mr 5,27
.LEHB120:
	bl _ZN15ListFileBrowser14GetIconFromExtESsb.constprop.251
.LEHE120:
	stwx 3,26,30
.LVL1005:
.LBB8184:
.LBB8185:
.LBB8186:
.LBB8187:
.LBB8188:
	.loc 9 235 0
	lis 27,_ZNSs4_Rep20_S_empty_rep_storageE@ha
	la 27,_ZNSs4_Rep20_S_empty_rep_storageE@l(27)
.LBE8188:
.LBE8187:
.LBB8197:
.LBB8198:
.LBB8199:
	.loc 9 288 0
	lwz 9,24(1)
.LBE8199:
.LBE8198:
.LBE8197:
	.loc 9 534 0
	addi 3,9,-12
.LVL1006:
.LBB8200:
.LBB8195:
	.loc 9 235 0
	cmpw 7,3,27
	bne- 7,.L772
.LVL1007:
.L735:
.LBE8195:
.LBE8200:
.LBE8186:
.LBE8185:
.LBE8184:
	.loc 3 213 0
	lwz 9,236(31)
	lwzx 3,9,30
	lis 9,.LC14@ha
	lfs 1,.LC14@l(9)
	lwz 9,0(3)
	lwz 0,104(9)
	mtctr 0
.LEHB121:
	bctrl
	.loc 3 214 0
	lwz 9,236(31)
	li 4,0
	li 5,-7
	lwzx 3,9,30
	lwz 9,0(3)
	lwz 0,168(9)
	mtctr 0
	bctrl
	.loc 3 216 0
	lwz 9,200(31)
	addi 3,1,28
	mr 4,29
	lwzx 26,9,30
	lwz 9,0(26)
	lwz 25,212(9)
	bl _ZNSbIwSt11char_traitsIwESaIwEEC1ERKS2_
.LEHE121:
	mr 3,26
	addi 4,1,28
	mtctr 25
.LEHB122:
	bctrl
.LEHE122:
.LVL1008:
.LBB8204:
.LBB8205:
.LBB8206:
.LBB8207:
.LBB8208:
.LBB8209:
	.loc 9 288 0
	lwz 9,28(1)
.LBE8209:
.LBE8208:
.LBE8207:
	.loc 9 534 0
	addi 3,9,-12
.LVL1009:
.LBB8210:
.LBB8211:
	.loc 9 235 0
	cmpw 7,3,28
	bne- 7,.L773
.LVL1010:
.L741:
.LBE8211:
.LBE8210:
.LBE8206:
.LBE8205:
.LBE8204:
	.loc 3 217 0
	lwz 9,212(31)
	mr 4,29
	addi 3,1,32
	lwzx 26,9,30
	lwz 9,0(26)
	lwz 29,212(9)
.LVL1011:
.LEHB123:
	bl _ZNSbIwSt11char_traitsIwESaIwEEC1ERKS2_
.LEHE123:
.LVL1012:
	mr 3,26
	addi 4,1,32
	mtctr 29
.LEHB124:
	bctrl
.LEHE124:
.LVL1013:
.LBB8222:
.LBB8223:
.LBB8224:
.LBB8225:
.LBB8226:
.LBB8227:
	.loc 9 288 0
	lwz 9,32(1)
.LBE8227:
.LBE8226:
.LBE8225:
	.loc 9 534 0
	addi 3,9,-12
.LVL1014:
.LBB8228:
.LBB8229:
	.loc 9 235 0
	cmpw 7,3,28
	bne- 7,.L774
.LVL1015:
.L747:
.LBE8229:
.LBE8228:
.LBE8224:
.LBE8223:
.LBE8222:
	.loc 3 219 0
	lwz 11,248(31)
	lwz 9,236(31)
	lwzx 3,11,30
	lwzx 4,9,30
.LEHB125:
	bl _ZN9GuiButton7SetIconEP8GuiImage
	.loc 3 220 0
	lwz 9,248(31)
	li 4,1
	lwzx 3,9,30
	lwz 9,0(3)
	lwz 0,48(9)
	mtctr 0
	bctrl
	.loc 3 222 0
	lwz 9,248(31)
	lwzx 3,9,30
	lwz 9,0(3)
	lwz 0,84(9)
	mtctr 0
	bctrl
	cmpwi 7,3,4
	beq- 7,.L775
.L748:
.LVL1016:
.LBB8240:
.LBB8241:
.LBB8242:
.LBB8243:
.LBB8244:
.LBB8245:
	.loc 9 288 0
	lwz 9,36(1)
.LBE8245:
.LBE8244:
.LBE8243:
	.loc 9 534 0
	addi 3,9,-12
.LVL1017:
.LBB8246:
.LBB8247:
	.loc 9 235 0
	cmpw 7,3,27
	bne- 7,.L776
.LVL1018:
.L710:
.LBE8247:
.LBE8246:
.LBE8242:
.LBE8241:
.LBE8240:
.LBE8268:
	.loc 3 224 0
	lwz 0,84(1)
	lwz 25,52(1)
	mtlr 0
	lwz 26,56(1)
	lwz 27,60(1)
	lwz 28,64(1)
	lwz 29,68(1)
	lwz 30,72(1)
	lwz 31,76(1)
.LVL1019:
	addi 1,1,80
	.cfi_remember_state
.LCFI145:
	.cfi_def_cfa_offset 0
	.cfi_restore 31
	.cfi_restore 30
	.cfi_restore 29
	.cfi_restore 28
	.cfi_restore 27
	.cfi_restore 26
	.cfi_restore 25
	blr
.LVL1020:
.L721:
.LCFI146:
	.cfi_restore_state
.LBB8269:
.LBB8258:
.LBB8183:
.LBB8182:
	.loc 9 1121 0
	lis 4,.LC13@ha
	addi 3,1,36
.LVL1021:
	la 4,.LC13@l(4)
	li 5,0
	bl _ZNSs6assignEPKcj
.LEHE125:
.LVL1022:
	b .L729
.LVL1023:
.L767:
.LBE8182:
.LBE8183:
.LBE8258:
	.loc 3 188 0
	stw 7,40(1)
.LEHB126:
	bl _ZN15ListFileBrowser9AddButtonEv
.LVL1024:
	lwz 7,40(1)
	.loc 3 191 0
	cmpwi 7,7,0
	bne+ 7,.L713
.L768:
.LVL1025:
	.loc 3 193 0
	lwz 9,248(31)
.LBB8259:
.LBB8260:
	.loc 7 696 0
	slwi 30,30,2
.LVL1026:
.LBE8260:
.LBE8259:
	.loc 3 193 0
	li 4,0
	lwzx 3,9,30
	lwz 9,0(3)
	lwz 0,48(9)
	mtctr 0
	bctrl
	.loc 3 194 0
	lwz 9,248(31)
	li 4,4
	li 5,-1
	lwzx 3,9,30
	lwz 9,0(3)
	lwz 0,80(9)
	mtctr 0
	bctrl
.LEHE126:
.LBE8269:
	.loc 3 224 0
	lwz 0,84(1)
	lwz 25,52(1)
	mtlr 0
	lwz 26,56(1)
	lwz 27,60(1)
	lwz 28,64(1)
	lwz 29,68(1)
.LVL1027:
	lwz 30,72(1)
	lwz 31,76(1)
.LVL1028:
	addi 1,1,80
	.cfi_remember_state
	.cfi_restore 25
	.cfi_restore 26
	.cfi_restore 27
	.cfi_restore 28
	.cfi_restore 29
	.cfi_restore 30
	.cfi_restore 31
.LCFI147:
	.cfi_def_cfa_offset 0
	blr
.LVL1029:
.L775:
.LCFI148:
	.cfi_restore_state
.LBB8270:
	.loc 3 223 0
	lwz 9,248(31)
	li 4,0
	li 5,-1
	lwzx 3,9,30
	lwz 9,0(3)
	lwz 0,80(9)
	mtctr 0
.LEHB127:
	bctrl
	b .L748
.LVL1030:
.L776:
.LBB8261:
.LBB8257:
.LBB8256:
.LBB8255:
.LBB8254:
.LBB8248:
.LBB8249:
.LBB8250:
	.loc 15 66 0
	lwz 11,-4(9)
.LVL1031:
.LBE8250:
.LBE8249:
.LBE8248:
	.loc 9 240 0
	cmpwi 7,11,0
.LBB8253:
.LBB8252:
.LBB8251:
	.loc 15 67 0
	addi 11,11,-1
	stw 11,-4(9)
.LBE8251:
.LBE8252:
.LBE8253:
	.loc 9 240 0
	bgt+ 7,.L710
	.loc 9 244 0
	addi 4,1,8
	bl _ZNSs4_Rep10_M_destroyERKSaIcE
.LVL1032:
	b .L710
.LVL1033:
.L769:
.LBE8254:
.LBE8255:
.LBE8256:
.LBE8257:
.LBE8261:
.LBB8262:
.LBB8145:
.LBB8144:
.LBB8143:
.LBB8141:
.LBB8134:
.LBB8135:
.LBB8136:
	.loc 15 66 0
	lwz 11,-4(9)
.LVL1034:
.LBE8136:
.LBE8135:
.LBE8134:
	.loc 9 240 0
	cmpwi 7,11,0
.LBB8139:
.LBB8138:
.LBB8137:
	.loc 15 67 0
	addi 11,11,-1
	stw 11,-4(9)
.LBE8137:
.LBE8138:
.LBE8139:
	.loc 9 240 0
	bgt+ 7,.L720
	.loc 9 244 0
	addi 4,1,13
	bl _ZNSbIwSt11char_traitsIwESaIwEE4_Rep10_M_destroyERKS1_
.LVL1035:
	b .L720
.LVL1036:
.L774:
.LBE8141:
.LBE8143:
.LBE8144:
.LBE8145:
.LBE8262:
.LBB8263:
.LBB8239:
.LBB8238:
.LBB8237:
.LBB8236:
.LBB8230:
.LBB8231:
.LBB8232:
	.loc 15 66 0
	lwz 11,-4(9)
.LVL1037:
.LBE8232:
.LBE8231:
.LBE8230:
	.loc 9 240 0
	cmpwi 7,11,0
.LBB8235:
.LBB8234:
.LBB8233:
	.loc 15 67 0
	addi 11,11,-1
	stw 11,-4(9)
.LBE8233:
.LBE8234:
.LBE8235:
	.loc 9 240 0
	bgt+ 7,.L747
	.loc 9 244 0
	addi 4,1,9
	bl _ZNSbIwSt11char_traitsIwESaIwEE4_Rep10_M_destroyERKS1_
.LVL1038:
	b .L747
.LVL1039:
.L772:
.LBE8236:
.LBE8237:
.LBE8238:
.LBE8239:
.LBE8263:
.LBB8264:
.LBB8203:
.LBB8202:
.LBB8201:
.LBB8196:
.LBB8189:
.LBB8190:
.LBB8191:
	.loc 15 66 0
	lwz 11,-4(9)
.LVL1040:
.LBE8191:
.LBE8190:
.LBE8189:
	.loc 9 240 0
	cmpwi 7,11,0
.LBB8194:
.LBB8193:
.LBB8192:
	.loc 15 67 0
	addi 11,11,-1
	stw 11,-4(9)
.LBE8192:
.LBE8193:
.LBE8194:
	.loc 9 240 0
	bgt+ 7,.L735
	.loc 9 244 0
	addi 4,1,11
	bl _ZNSs4_Rep10_M_destroyERKSaIcE
.LVL1041:
	b .L735
.LVL1042:
.L773:
.LBE8196:
.LBE8201:
.LBE8202:
.LBE8203:
.LBE8264:
.LBB8265:
.LBB8221:
.LBB8220:
.LBB8219:
.LBB8218:
.LBB8212:
.LBB8213:
.LBB8214:
	.loc 15 66 0
	lwz 11,-4(9)
.LVL1043:
.LBE8214:
.LBE8213:
.LBE8212:
	.loc 9 240 0
	cmpwi 7,11,0
.LBB8217:
.LBB8216:
.LBB8215:
	.loc 15 67 0
	addi 11,11,-1
	stw 11,-4(9)
.LBE8215:
.LBE8216:
.LBE8217:
	.loc 9 240 0
	bgt+ 7,.L741
	.loc 9 244 0
	addi 4,1,10
	bl _ZNSbIwSt11char_traitsIwESaIwEE4_Rep10_M_destroyERKS1_
.LVL1044:
	b .L741
.LVL1045:
.L770:
.LBE8218:
.LBE8219:
.LBE8220:
.LBE8221:
.LBE8265:
.LBB8266:
.LBB8156:
.LBB8155:
.LBB8154:
	.loc 9 319 0
	lis 3,.LC11@ha
.LVL1046:
	la 3,.LC11@l(3)
	bl _ZSt20__throw_out_of_rangePKc
.LEHE127:
.LVL1047:
.L760:
	mr 31,3
.LVL1048:
.L756:
.LBE8154:
.LBE8155:
.LBE8156:
.LBE8266:
	.loc 3 223 0
	addi 3,1,36
.LVL1049:
	bl _ZNSsD1Ev
.LVL1050:
	mr 3,31
.LEHB128:
	bl _Unwind_Resume
.LVL1051:
.L771:
.LBB8267:
.LBB8178:
.LBB8177:
.LBB8176:
.LBB8174:
.LBB8167:
.LBB8168:
.LBB8169:
	.loc 15 66 0
	lwz 11,-4(9)
.LVL1052:
.LBE8169:
.LBE8168:
.LBE8167:
	.loc 9 240 0
	cmpwi 7,11,0
.LBB8172:
.LBB8171:
.LBB8170:
	.loc 15 67 0
	addi 11,11,-1
	stw 11,-4(9)
.LBE8170:
.LBE8171:
.LBE8172:
	.loc 9 240 0
	bgt+ 7,.L728
	.loc 9 244 0
	addi 4,1,12
	bl _ZNSs4_Rep10_M_destroyERKSaIcE
.LVL1053:
	b .L728
.LVL1054:
.L765:
	mr 31,3
.LVL1055:
.LBE8174:
.LBE8176:
.LBE8177:
.LBE8178:
.LBE8267:
	.loc 3 201 0
	addi 3,1,16
	bl _ZNSbIwSt11char_traitsIwESaIwEED1Ev
	mr 3,31
	bl _Unwind_Resume
.LEHE128:
.LVL1056:
.L764:
	mr 31,3
.LVL1057:
	.loc 3 205 0
	addi 3,1,20
.LVL1058:
	bl _ZNSsD1Ev
.LVL1059:
	b .L756
.LVL1060:
.L763:
	mr 31,3
.LVL1061:
	.loc 3 212 0
	addi 3,1,24
	bl _ZNSsD1Ev
	b .L756
.LVL1062:
.L762:
	mr 31,3
.LVL1063:
	.loc 3 216 0
	addi 3,1,28
	bl _ZNSbIwSt11char_traitsIwESaIwEED1Ev
	b .L756
.LVL1064:
.L761:
	mr 31,3
.LVL1065:
	.loc 3 217 0
	addi 3,1,32
	bl _ZNSbIwSt11char_traitsIwESaIwEED1Ev
	b .L756
.LBE8270:
	.cfi_endproc
.LFE2763:
	.section	.gcc_except_table
.LLSDA2763:
	.byte	0xff
	.byte	0xff
	.byte	0x1
	.uleb128 .LLSDACSE2763-.LLSDACSB2763
.LLSDACSB2763:
	.uleb128 .LEHB115-.LFB2763
	.uleb128 .LEHE115-.LEHB115
	.uleb128 0
	.uleb128 0
	.uleb128 .LEHB116-.LFB2763
	.uleb128 .LEHE116-.LEHB116
	.uleb128 .L765-.LFB2763
	.uleb128 0
	.uleb128 .LEHB117-.LFB2763
	.uleb128 .LEHE117-.LEHB117
	.uleb128 .L760-.LFB2763
	.uleb128 0
	.uleb128 .LEHB118-.LFB2763
	.uleb128 .LEHE118-.LEHB118
	.uleb128 .L764-.LFB2763
	.uleb128 0
	.uleb128 .LEHB119-.LFB2763
	.uleb128 .LEHE119-.LEHB119
	.uleb128 .L760-.LFB2763
	.uleb128 0
	.uleb128 .LEHB120-.LFB2763
	.uleb128 .LEHE120-.LEHB120
	.uleb128 .L763-.LFB2763
	.uleb128 0
	.uleb128 .LEHB121-.LFB2763
	.uleb128 .LEHE121-.LEHB121
	.uleb128 .L760-.LFB2763
	.uleb128 0
	.uleb128 .LEHB122-.LFB2763
	.uleb128 .LEHE122-.LEHB122
	.uleb128 .L762-.LFB2763
	.uleb128 0
	.uleb128 .LEHB123-.LFB2763
	.uleb128 .LEHE123-.LEHB123
	.uleb128 .L760-.LFB2763
	.uleb128 0
	.uleb128 .LEHB124-.LFB2763
	.uleb128 .LEHE124-.LEHB124
	.uleb128 .L761-.LFB2763
	.uleb128 0
	.uleb128 .LEHB125-.LFB2763
	.uleb128 .LEHE125-.LEHB125
	.uleb128 .L760-.LFB2763
	.uleb128 0
	.uleb128 .LEHB126-.LFB2763
	.uleb128 .LEHE126-.LEHB126
	.uleb128 0
	.uleb128 0
	.uleb128 .LEHB127-.LFB2763
	.uleb128 .LEHE127-.LEHB127
	.uleb128 .L760-.LFB2763
	.uleb128 0
	.uleb128 .LEHB128-.LFB2763
	.uleb128 .LEHE128-.LEHB128
	.uleb128 0
	.uleb128 0
.LLSDACSE2763:
	.section	".text"
	.size	_ZN15ListFileBrowser9SetButtonEiSbIwSt11char_traitsIwESaIwEEbb.constprop.247, .-_ZN15ListFileBrowser9SetButtonEiSbIwSt11char_traitsIwESaIwEEbb.constprop.247
	.align 2
	.globl _ZN15ListFileBrowser12OnListChangeEii
	.type	_ZN15ListFileBrowser12OnListChangeEii, @function
_ZN15ListFileBrowser12OnListChangeEii:
.LFB1623:
	.loc 3 309 0
	.cfi_startproc
	.cfi_personality 0,__gxx_personality_v0
	.cfi_lsda 0,.LLSDA1623
.LVL1066:
	mflr 0
	stwu 1,-64(1)
.LCFI149:
	.cfi_def_cfa_offset 64
	.cfi_register 65, 0
	stw 30,56(1)
	mr 30,3
	.cfi_offset 30, -8
	stw 0,68(1)
	stw 27,44(1)
	mr 27,4
	.cfi_offset 27, -20
	.cfi_offset 65, 4
.LBB8384:
	.loc 3 310 0
	lwz 3,264(3)
.LVL1067:
.LBE8384:
	.loc 3 309 0
	stw 29,52(1)
	mr 29,5
	.cfi_offset 29, -12
	stw 26,40(1)
	stw 28,48(1)
	stw 31,60(1)
.LEHB129:
.LBB8493:
	.loc 3 310 0
	.cfi_offset 31, -4
	.cfi_offset 28, -16
	.cfi_offset 26, -24
	bl _ZN9Scrollbar11SetSelectedEii
.LVL1068:
	.loc 3 312 0
	lwz 3,156(30)
	mr 4,29
	.loc 3 311 0
	stw 27,188(30)
	.loc 3 312 0
	lwz 9,0(3)
	lwz 0,20(9)
	mtctr 0
	bctrl
.LVL1069:
.LBB8385:
	.loc 3 314 0
	lwz 0,196(30)
	cmpwi 7,0,0
	ble- 7,.L778
	li 31,0
	b .L800
.LVL1070:
.L826:
.LBB8386:
.LBB8387:
	.loc 3 318 0
	lwz 4,156(30)
	addi 3,1,32
	mr 5,28
	lwz 9,0(4)
	lwz 0,68(9)
	mtctr 0
	bctrl
.LEHE129:
	.loc 3 319 0
	lwz 3,156(30)
	mr 4,28
	lwz 9,0(3)
	lwz 0,44(9)
	mtctr 0
.LEHB130:
	bctrl
	mr 28,3
.LVL1071:
	.loc 3 321 0
	addi 4,1,32
	addi 3,1,28
.LVL1072:
	bl _ZNSbIwSt11char_traitsIwESaIwEEC1ERKS2_
.LEHE130:
	.loc 3 321 0 is_stmt 0 discriminator 1
	mr 3,30
	mr 4,31
	addi 5,1,28
	mr 6,28
	li 7,1
.LEHB131:
	bl _ZN15ListFileBrowser9SetButtonEiSbIwSt11char_traitsIwESaIwEEbb.constprop.247
.LEHE131:
.LVL1073:
.LBB8388:
.LBB8389:
.LBB8390:
.LBB8391:
.LBB8392:
.LBB8393:
	.loc 9 288 0 is_stmt 1
	lwz 9,28(1)
.LBE8393:
.LBE8392:
.LBE8391:
.LBB8394:
.LBB8395:
	.loc 9 235 0
	lis 28,_ZNSbIwSt11char_traitsIwESaIwEE4_Rep20_S_empty_rep_storageE@ha
.LVL1074:
	la 28,_ZNSbIwSt11char_traitsIwESaIwEE4_Rep20_S_empty_rep_storageE@l(28)
.LBE8395:
.LBE8394:
	.loc 9 534 0
	addi 3,9,-12
.LVL1075:
.LBB8404:
.LBB8402:
	.loc 9 235 0
	cmpw 7,3,28
	bne- 7,.L824
.LVL1076:
.L785:
.LBE8402:
.LBE8404:
.LBE8390:
.LBE8389:
.LBE8388:
.LBB8408:
.LBB8409:
.LBB8410:
.LBB8411:
.LBB8412:
.LBB8413:
	.loc 9 288 0
	lwz 9,32(1)
.LBE8413:
.LBE8412:
.LBE8411:
	.loc 9 534 0
	addi 3,9,-12
.LVL1077:
.LBB8414:
.LBB8415:
	.loc 9 235 0
	cmpw 7,3,28
	bne- 7,.L825
.LVL1078:
.L799:
.LBE8415:
.LBE8414:
.LBE8410:
.LBE8409:
.LBE8408:
.LBE8387:
.LBE8386:
	.loc 3 314 0
	lwz 0,196(30)
	addi 31,31,1
.LVL1079:
	cmpw 7,0,31
	ble- 7,.L778
.LVL1080:
.L800:
.LBB8445:
	.loc 3 316 0
	lwz 3,156(30)
.LBE8445:
	.loc 3 308 0
	add 28,31,29
.LBB8446:
	.loc 3 316 0
	lwz 9,0(3)
	lwz 0,28(9)
	mtctr 0
.LEHB132:
	bctrl
	cmpw 7,3,28
	bgt- 7,.L826
	.loc 3 324 0
	lis 4,.LC15@ha
	addi 3,1,24
	la 4,.LC15@l(4)
	addi 5,1,13
	bl _ZNSbIwSt11char_traitsIwESaIwEEC1EPKwRKS1_
.LEHE132:
	mr 3,30
	mr 4,31
	addi 5,1,24
	li 6,0
	li 7,0
.LEHB133:
	bl _ZN15ListFileBrowser9SetButtonEiSbIwSt11char_traitsIwESaIwEEbb.constprop.247
.LEHE133:
.LVL1081:
.LBB8428:
.LBB8429:
.LBB8430:
.LBB8431:
.LBB8432:
.LBB8433:
	.loc 9 288 0
	lwz 9,24(1)
.LBE8433:
.LBE8432:
.LBE8431:
.LBB8434:
.LBB8435:
	.loc 9 235 0
	lis 11,_ZNSbIwSt11char_traitsIwESaIwEE4_Rep20_S_empty_rep_storageE@ha
	la 0,_ZNSbIwSt11char_traitsIwESaIwEE4_Rep20_S_empty_rep_storageE@l(11)
.LBE8435:
.LBE8434:
	.loc 9 534 0
	addi 3,9,-12
.LVL1082:
.LBB8443:
.LBB8442:
	.loc 9 235 0
	cmpw 7,3,0
	beq+ 7,.L799
.LVL1083:
.LBB8436:
.LBB8437:
.LBB8438:
	.loc 15 66 0
	lwz 11,-4(9)
.LVL1084:
.LBE8438:
.LBE8437:
.LBE8436:
	.loc 9 240 0
	cmpwi 7,11,0
.LBB8441:
.LBB8440:
.LBB8439:
	.loc 15 67 0
	addi 11,11,-1
	stw 11,-4(9)
.LBE8439:
.LBE8440:
.LBE8441:
	.loc 9 240 0
	bgt+ 7,.L799
	.loc 9 244 0
	addi 4,1,10
	bl _ZNSbIwSt11char_traitsIwESaIwEE4_Rep10_M_destroyERKS1_
.LVL1085:
	b .L799
.LVL1086:
.L778:
.LBE8442:
.LBE8443:
.LBE8430:
.LBE8429:
.LBE8428:
.LBE8446:
.LBE8385:
	.loc 3 327 0
	lwz 4,156(30)
	.loc 3 332 0
	add 29,29,27
.LVL1087:
	addi 3,1,20
	mr 5,29
	.loc 3 327 0
	lwz 9,0(4)
	.loc 3 332 0
	lwz 26,260(30)
	lwz 0,68(9)
	mtctr 0
.LEHB134:
	bctrl
.LEHE134:
	.loc 3 328 0
	lwz 4,156(30)
	.loc 3 332 0
	addi 3,1,16
	.loc 3 328 0
	lwz 9,0(4)
	.loc 3 332 0
	lwz 0,76(9)
	mtctr 0
.LEHB135:
	bctrl
.LEHE135:
	.loc 3 329 0 discriminator 1
	lwz 3,156(30)
	.loc 3 332 0 discriminator 1
	mr 4,29
	.loc 3 329 0 discriminator 1
	lwz 9,0(3)
	.loc 3 332 0 discriminator 1
	lwz 0,44(9)
	mtctr 0
.LEHB136:
	bctrl
	mr 27,3
.LVL1088:
	.loc 3 330 0 discriminator 1
	lwz 3,156(30)
	.loc 3 332 0 discriminator 1
	mr 4,29
	.loc 3 330 0 discriminator 1
	lwz 9,0(3)
	.loc 3 332 0 discriminator 1
	lwz 0,48(9)
	mtctr 0
	bctrl
	.loc 3 332 0 is_stmt 0 discriminator 2
	mr 28,3
	.loc 3 331 0 is_stmt 1 discriminator 2
	lwz 3,156(30)
	.loc 3 332 0 discriminator 2
	mr 4,29
	.loc 3 331 0 discriminator 2
	lwz 9,0(3)
	.loc 3 332 0 discriminator 2
	lwz 0,52(9)
	mtctr 0
	bctrl
	.loc 3 332 0 is_stmt 0 discriminator 3
	mr 31,3
	lwz 3,156(30)
	mr 4,29
	lwz 9,0(3)
	lwz 0,56(9)
	mtctr 0
	bctrl
	.loc 3 332 0 discriminator 4
	mr 9,3
	addi 4,1,20
	mr 3,26
	addi 5,1,16
	mr 6,27
	mr 7,28
	mr 8,31
	bl _ZN11InfosWindow8SetInfosESbIwSt11char_traitsIwESaIwEESsbbbb
.LEHE136:
.LVL1089:
.LBB8449:
.LBB8450:
.LBB8451:
.LBB8452:
.LBB8453:
.LBB8454:
	.loc 9 288 0 is_stmt 1
	lwz 9,16(1)
.LBE8454:
.LBE8453:
.LBE8452:
.LBB8455:
.LBB8456:
	.loc 9 235 0
	lis 11,_ZNSs4_Rep20_S_empty_rep_storageE@ha
	la 0,_ZNSs4_Rep20_S_empty_rep_storageE@l(11)
.LBE8456:
.LBE8455:
	.loc 9 534 0
	addi 3,9,-12
.LVL1090:
.LBB8465:
.LBB8463:
	.loc 9 235 0
	cmpw 7,3,0
	bne- 7,.L827
.LVL1091:
.L806:
.LBE8463:
.LBE8465:
.LBE8451:
.LBE8450:
.LBE8449:
.LBB8469:
.LBB8470:
.LBB8471:
.LBB8472:
.LBB8473:
.LBB8474:
	.loc 9 288 0
	lwz 9,20(1)
.LBE8474:
.LBE8473:
.LBE8472:
.LBB8475:
.LBB8476:
	.loc 9 235 0
	lis 11,_ZNSbIwSt11char_traitsIwESaIwEE4_Rep20_S_empty_rep_storageE@ha
	la 0,_ZNSbIwSt11char_traitsIwESaIwEE4_Rep20_S_empty_rep_storageE@l(11)
.LBE8476:
.LBE8475:
	.loc 9 534 0
	addi 3,9,-12
.LVL1092:
.LBB8485:
.LBB8483:
	.loc 9 235 0
	cmpw 7,3,0
	bne- 7,.L828
.LVL1093:
.L777:
.LBE8483:
.LBE8485:
.LBE8471:
.LBE8470:
.LBE8469:
.LBE8493:
	.loc 3 333 0
	lwz 0,68(1)
	lwz 26,40(1)
	mtlr 0
	lwz 27,44(1)
	lwz 28,48(1)
	lwz 29,52(1)
	lwz 30,56(1)
.LVL1094:
	lwz 31,60(1)
	addi 1,1,64
	.cfi_remember_state
.LCFI150:
	.cfi_def_cfa_offset 0
	.cfi_restore 31
	.cfi_restore 30
	.cfi_restore 29
	.cfi_restore 28
	.cfi_restore 27
	.cfi_restore 26
	blr
.LVL1095:
.L825:
.LCFI151:
	.cfi_restore_state
.LBB8494:
.LBB8489:
.LBB8447:
.LBB8444:
.LBB8426:
.LBB8425:
.LBB8424:
.LBB8423:
.LBB8422:
.LBB8416:
.LBB8417:
.LBB8418:
	.loc 15 66 0
	lwz 11,-4(9)
.LVL1096:
.LBE8418:
.LBE8417:
.LBE8416:
	.loc 9 240 0
	cmpwi 7,11,0
.LBB8421:
.LBB8420:
.LBB8419:
	.loc 15 67 0
	addi 11,11,-1
	stw 11,-4(9)
.LBE8419:
.LBE8420:
.LBE8421:
	.loc 9 240 0
	bgt+ 7,.L799
	.loc 9 244 0
	addi 4,1,11
	bl _ZNSbIwSt11char_traitsIwESaIwEE4_Rep10_M_destroyERKS1_
.LVL1097:
	b .L799
.LVL1098:
.L824:
.LBE8422:
.LBE8423:
.LBE8424:
.LBE8425:
.LBE8426:
.LBB8427:
.LBB8407:
.LBB8406:
.LBB8405:
.LBB8403:
.LBB8396:
.LBB8397:
.LBB8398:
	.loc 15 66 0
	lwz 11,-4(9)
.LVL1099:
.LBE8398:
.LBE8397:
.LBE8396:
	.loc 9 240 0
	cmpwi 7,11,0
.LBB8401:
.LBB8400:
.LBB8399:
	.loc 15 67 0
	addi 11,11,-1
	stw 11,-4(9)
.LBE8399:
.LBE8400:
.LBE8401:
	.loc 9 240 0
	bgt+ 7,.L785
	.loc 9 244 0
	addi 4,1,12
	bl _ZNSbIwSt11char_traitsIwESaIwEE4_Rep10_M_destroyERKS1_
.LVL1100:
	b .L785
.LVL1101:
.L818:
	mr 31,3
.L814:
.LBE8403:
.LBE8405:
.LBE8406:
.LBE8407:
.LBE8427:
	.loc 3 321 0
	addi 3,1,32
	bl _ZNSbIwSt11char_traitsIwESaIwEED1Ev
	mr 3,31
.LEHB137:
	bl _Unwind_Resume
.LVL1102:
.L819:
	mr 31,3
	addi 3,1,28
	bl _ZNSbIwSt11char_traitsIwESaIwEED1Ev
	b .L814
.LVL1103:
.L821:
	mr 31,3
.LVL1104:
.L817:
.LBE8444:
.LBE8447:
.LBE8489:
	.loc 3 332 0
	addi 3,1,20
	bl _ZNSbIwSt11char_traitsIwESaIwEED1Ev
	mr 3,31
	bl _Unwind_Resume
.LVL1105:
.L828:
.LBB8490:
.LBB8488:
.LBB8487:
.LBB8486:
.LBB8484:
.LBB8477:
.LBB8478:
.LBB8479:
	.loc 15 66 0
	lwz 11,-4(9)
.LVL1106:
.LBE8479:
.LBE8478:
.LBE8477:
	.loc 9 240 0
	cmpwi 7,11,0
.LBB8482:
.LBB8481:
.LBB8480:
	.loc 15 67 0
	addi 11,11,-1
	stw 11,-4(9)
.LBE8480:
.LBE8481:
.LBE8482:
	.loc 9 240 0
	bgt+ 7,.L777
	.loc 9 244 0
	addi 4,1,8
	bl _ZNSbIwSt11char_traitsIwESaIwEE4_Rep10_M_destroyERKS1_
.LVL1107:
	b .L777
.LVL1108:
.L827:
.LBE8484:
.LBE8486:
.LBE8487:
.LBE8488:
.LBE8490:
.LBB8491:
.LBB8468:
.LBB8467:
.LBB8466:
.LBB8464:
.LBB8457:
.LBB8458:
.LBB8459:
	.loc 15 66 0
	lwz 11,-4(9)
.LVL1109:
.LBE8459:
.LBE8458:
.LBE8457:
	.loc 9 240 0
	cmpwi 7,11,0
.LBB8462:
.LBB8461:
.LBB8460:
	.loc 15 67 0
	addi 11,11,-1
	stw 11,-4(9)
.LBE8460:
.LBE8461:
.LBE8462:
	.loc 9 240 0
	bgt+ 7,.L806
	.loc 9 244 0
	addi 4,1,9
	bl _ZNSs4_Rep10_M_destroyERKSaIcE
.LVL1110:
	b .L806
.LVL1111:
.L822:
	mr 31,3
.LBE8464:
.LBE8466:
.LBE8467:
.LBE8468:
.LBE8491:
	.loc 3 332 0
	addi 3,1,16
	bl _ZNSsD1Ev
	b .L817
.LVL1112:
.L820:
	mr 31,3
.LBB8492:
.LBB8448:
	.loc 3 324 0
	addi 3,1,24
	bl _ZNSbIwSt11char_traitsIwESaIwEED1Ev
	mr 3,31
	bl _Unwind_Resume
.LEHE137:
.LBE8448:
.LBE8492:
.LBE8494:
	.cfi_endproc
.LFE1623:
	.section	.gcc_except_table
.LLSDA1623:
	.byte	0xff
	.byte	0xff
	.byte	0x1
	.uleb128 .LLSDACSE1623-.LLSDACSB1623
.LLSDACSB1623:
	.uleb128 .LEHB129-.LFB1623
	.uleb128 .LEHE129-.LEHB129
	.uleb128 0
	.uleb128 0
	.uleb128 .LEHB130-.LFB1623
	.uleb128 .LEHE130-.LEHB130
	.uleb128 .L818-.LFB1623
	.uleb128 0
	.uleb128 .LEHB131-.LFB1623
	.uleb128 .LEHE131-.LEHB131
	.uleb128 .L819-.LFB1623
	.uleb128 0
	.uleb128 .LEHB132-.LFB1623
	.uleb128 .LEHE132-.LEHB132
	.uleb128 0
	.uleb128 0
	.uleb128 .LEHB133-.LFB1623
	.uleb128 .LEHE133-.LEHB133
	.uleb128 .L820-.LFB1623
	.uleb128 0
	.uleb128 .LEHB134-.LFB1623
	.uleb128 .LEHE134-.LEHB134
	.uleb128 0
	.uleb128 0
	.uleb128 .LEHB135-.LFB1623
	.uleb128 .LEHE135-.LEHB135
	.uleb128 .L821-.LFB1623
	.uleb128 0
	.uleb128 .LEHB136-.LFB1623
	.uleb128 .LEHE136-.LEHB136
	.uleb128 .L822-.LFB1623
	.uleb128 0
	.uleb128 .LEHB137-.LFB1623
	.uleb128 .LEHE137-.LEHB137
	.uleb128 0
	.uleb128 0
.LLSDACSE1623:
	.section	".text"
	.size	_ZN15ListFileBrowser12OnListChangeEii, .-_ZN15ListFileBrowser12OnListChangeEii
	.align 2
	.globl _ZN15ListFileBrowser6UpdateEP10GuiTrigger
	.type	_ZN15ListFileBrowser6UpdateEP10GuiTrigger, @function
_ZN15ListFileBrowser6UpdateEP10GuiTrigger:
.LFB1625:
	.loc 3 354 0
	.cfi_startproc
.LVL1113:
	mflr 0
	stwu 1,-40(1)
.LCFI152:
	.cfi_def_cfa_offset 40
	.cfi_register 65, 0
	stw 29,28(1)
	mr 29,4
	.cfi_offset 29, -12
	stw 0,44(1)
	stw 31,36(1)
	mr 31,3
	.cfi_offset 31, -4
	.cfi_offset 65, 4
.LBB8519:
	.loc 3 355 0
	lwz 0,72(3)
.LBE8519:
	.loc 3 354 0
	stw 26,16(1)
.LBB8520:
	.loc 3 355 0
	cmpwi 7,0,4
.LBE8520:
	.loc 3 354 0
	stw 27,20(1)
	stw 28,24(1)
	stw 30,32(1)
.LBB8521:
	.loc 3 355 0
	beq- 7,.L829
	.cfi_offset 30, -8
	.cfi_offset 28, -16
	.cfi_offset 27, -20
	.cfi_offset 26, -24
	.loc 3 355 0 is_stmt 0 discriminator 2
	cmpwi 7,4,0
	beq- 7,.L829
	.loc 3 355 0 discriminator 3
	lwz 3,156(3)
.LVL1114:
	lwz 9,0(3)
	lwz 0,32(9)
	mtctr 0
	bctrl
.LVL1115:
	cmpwi 7,3,0
	beq- 7,.L849
.L829:
.LBE8521:
	.loc 3 412 0 is_stmt 1
	lwz 0,44(1)
	lwz 26,16(1)
	mtlr 0
	lwz 27,20(1)
	lwz 28,24(1)
	lwz 29,28(1)
.LVL1116:
	lwz 30,32(1)
	lwz 31,36(1)
.LVL1117:
	addi 1,1,40
	.cfi_remember_state
.LCFI153:
	.cfi_def_cfa_offset 0
	.cfi_restore 31
	.cfi_restore 30
	.cfi_restore 29
	.cfi_restore 28
	.cfi_restore 27
	.cfi_restore 26
	blr
.LVL1118:
.L849:
.LCFI154:
	.cfi_restore_state
.LBB8522:
	.loc 3 358 0
	lwz 3,264(31)
	mr 4,29
	lwz 9,0(3)
	lwz 0,188(9)
	mtctr 0
	bctrl
	.loc 3 361 0
	lwz 3,156(31)
	cmpwi 7,3,0
	beq- 7,.L829
.LVL1119:
.LBE8522:
.LBB8523:
.LBB8524:
	.loc 3 366 0
	lwz 9,0(3)
	lwz 30,192(31)
	lwz 0,28(9)
	mtctr 0
	bctrl
	cmpw 7,30,3
	beq- 7,.L832
	.loc 3 368 0
	lwz 3,156(31)
	lwz 9,0(3)
	lwz 0,28(9)
	mtctr 0
	bctrl
	mr 4,3
	stw 3,192(31)
	.loc 3 369 0
	lwz 3,264(31)
	bl _ZN9Scrollbar14SetEntrieCountEi
.L832:
	.loc 3 372 0
	lwz 3,156(31)
	lwz 9,0(3)
	lwz 0,36(9)
	mtctr 0
	bctrl
	cmpwi 7,3,0
	bne- 7,.L850
.L833:
.LVL1120:
.LBE8524:
	.loc 3 412 0
	lwz 9,248(31)
.LBB8546:
.LBB8525:
.LBB8526:
.LBB8527:
	.loc 7 571 0
	lwz 4,252(31)
	subf 4,9,4
	srawi 4,4,2
.LBE8527:
.LBE8526:
	.loc 3 376 0
	cmpwi 7,4,0
	ble- 7,.L834
.LBB8531:
	.loc 3 378 0
	lwz 0,188(31)
.LBE8531:
	.loc 3 376 0
	li 28,0
	mr 11,9
	li 30,0
.LBB8534:
	.loc 3 378 0
	cmpw 7,0,28
	bne- 7,.L851
.LVL1121:
.L835:
	.loc 3 380 0
	lwzx 3,11,30
	lwz 9,0(3)
	lwz 0,84(9)
	mtctr 0
	bctrl
	cmpwi 7,3,0
	beq- 7,.L838
.LVL1122:
.L844:
	.loc 3 385 0
	lwz 9,12(29)
	.loc 3 383 0
	lwz 27,8(29)
.LVL1123:
	.loc 3 385 0
	lwz 0,172(9)
	cmpwi 7,0,0
	bne- 7,.L852
.LVL1124:
.L845:
	.loc 3 388 0
	lwz 9,248(31)
	mr 4,29
	lwzx 3,9,30
	lwz 9,0(3)
	lwz 0,188(9)
	mtctr 0
	bctrl
	.loc 3 391 0
	lwz 9,248(31)
	.loc 3 389 0
	stw 27,8(29)
	.loc 3 391 0
	lwzx 3,9,30
	lwz 9,0(3)
	lwz 0,84(9)
	mtctr 0
	bctrl
	cmpwi 7,3,1
	beq- 7,.L853
.L841:
.LBE8534:
.LBE8525:
.LBE8546:
	.loc 3 412 0
	lwz 9,248(31)
.LBB8547:
.LBB8543:
	.loc 3 376 0
	addi 28,28,1
.LVL1125:
.LBB8535:
.LBB8528:
	.loc 7 571 0
	lwz 4,252(31)
	addi 30,30,4
	subf 4,9,4
	srawi 4,4,2
.LBE8528:
.LBE8535:
	.loc 3 376 0
	cmpw 7,28,4
	bge- 7,.L834
.LVL1126:
.L846:
.LBB8536:
	.loc 3 378 0
	lwz 0,188(31)
.LBE8536:
	.loc 3 376 0
	mr 11,9
.LBB8537:
	.loc 3 378 0
	cmpw 7,0,28
	beq- 7,.L835
.LVL1127:
.L851:
	lwzx 3,9,30
	lwz 9,0(3)
	lwz 0,84(9)
	mtctr 0
	bctrl
	cmpwi 7,3,1
	beq- 7,.L836
	.loc 3 380 0
	lwz 0,188(31)
	cmpw 7,28,0
	bne+ 7,.L844
	lwz 11,248(31)
	b .L835
.LVL1128:
.L852:
	.loc 3 385 0
	lwz 11,248(31)
	lfs 13,176(9)
	lwzx 3,11,30
	lfs 0,180(9)
	fctiwz 13,13
	lwz 9,0(3)
	fctiwz 0,0
	lwz 0,164(9)
	addi 9,1,8
	stfiwx 13,0,9
	addi 9,1,12
	stfiwx 0,0,9
	mtctr 0
	lwz 4,8(1)
	lwz 5,12(1)
	bctrl
	cmpwi 7,3,0
	bne- 7,.L845
	.loc 3 388 0
	lwz 9,248(31)
	.loc 3 386 0
	li 0,-1
	stw 0,8(29)
	.loc 3 388 0
	mr 4,29
	lwzx 3,9,30
	lwz 9,0(3)
	lwz 0,188(9)
	mtctr 0
	bctrl
	.loc 3 391 0
	lwz 9,248(31)
	.loc 3 389 0
	stw 27,8(29)
	.loc 3 391 0
	lwzx 3,9,30
	lwz 9,0(3)
	lwz 0,84(9)
	mtctr 0
	bctrl
	cmpwi 7,3,1
	bne+ 7,.L841
.L853:
	.loc 3 394 0
	lwz 27,156(31)
.LVL1129:
.LBE8537:
.LBB8538:
.LBB8529:
	.loc 7 571 0
	addi 30,30,4
.LBE8529:
.LBE8538:
.LBB8539:
	.loc 3 393 0
	stw 28,188(31)
	.loc 3 394 0
	lwz 9,0(27)
	mr 3,27
	lwz 0,12(9)
	lwz 26,24(9)
	mtctr 0
	bctrl
	mtctr 26
	add 4,28,3
	mr 3,27
.LBE8539:
	.loc 3 376 0
	addi 28,28,1
.LBB8540:
	.loc 3 394 0
	bctrl
.LVL1130:
.LBE8540:
.LBE8543:
.LBE8547:
	.loc 3 412 0
	lwz 9,248(31)
.LBB8548:
.LBB8544:
.LBB8541:
.LBB8530:
	.loc 7 571 0
	lwz 4,252(31)
	subf 4,9,4
	srawi 4,4,2
.LBE8530:
.LBE8541:
	.loc 3 376 0
	cmpw 7,28,4
	blt+ 7,.L846
.LVL1131:
.L834:
.LBE8544:
	.loc 3 409 0
	lwz 3,264(31)
	bl _ZN9Scrollbar11SetPageSizeEi
	.loc 3 410 0
	lwz 3,264(31)
	li 4,0
	bl _ZN9Scrollbar10SetRowSizeEi
	.loc 3 411 0
	lwz 3,156(31)
	lwz 30,264(31)
	lwz 9,0(3)
	lwz 31,188(31)
.LVL1132:
	lwz 0,12(9)
	mtctr 0
	bctrl
	mr 4,31
	mr 5,3
	mr 3,30
	bl _ZN9Scrollbar11SetSelectedEii
.LBE8548:
.LBE8523:
	.loc 3 412 0
	lwz 0,44(1)
	lwz 26,16(1)
	mtlr 0
	lwz 27,20(1)
	lwz 28,24(1)
	lwz 29,28(1)
.LVL1133:
	lwz 30,32(1)
	lwz 31,36(1)
	addi 1,1,40
	.cfi_remember_state
	.cfi_restore 26
	.cfi_restore 27
	.cfi_restore 28
	.cfi_restore 29
	.cfi_restore 30
	.cfi_restore 31
.LCFI155:
	.cfi_def_cfa_offset 0
	blr
.LVL1134:
.L836:
.LCFI156:
	.cfi_restore_state
.LBB8550:
.LBB8549:
.LBB8545:
.LBB8542:
	.loc 3 379 0
	lwz 9,248(31)
	lwzx 3,9,30
	lwz 9,0(3)
	lwz 0,92(9)
	mtctr 0
	bctrl
	b .L844
.LVL1135:
.L838:
.LBB8532:
.LBB8533:
	.loc 7 696 0
	lwz 0,188(31)
.LBE8533:
.LBE8532:
	.loc 3 381 0
	li 4,1
	lwz 9,248(31)
	slwi 0,0,2
	lwz 5,8(29)
	lwzx 3,9,0
	lwz 9,0(3)
	lwz 0,80(9)
	mtctr 0
	bctrl
.LVL1136:
	b .L844
.LVL1137:
.L850:
.LBE8542:
.LBE8545:
	.loc 3 374 0
	lwz 3,156(31)
	lwz 9,0(3)
	lwz 0,16(9)
	mtctr 0
	bctrl
	mr 30,3
	lwz 3,156(31)
	lwz 9,0(3)
	lwz 0,12(9)
	mtctr 0
	bctrl
	mr 4,30
	mr 5,3
	mr 3,31
	bl _ZN15ListFileBrowser12OnListChangeEii
	b .L833
.LBE8549:
.LBE8550:
	.cfi_endproc
.LFE1625:
	.size	_ZN15ListFileBrowser6UpdateEP10GuiTrigger, .-_ZN15ListFileBrowser6UpdateEP10GuiTrigger
	.section	.text._ZN15ListFileBrowser7RefreshEv,"axG",@progbits,_ZN15ListFileBrowser7RefreshEv,comdat
	.align 2
	.weak	_ZN15ListFileBrowser7RefreshEv
	.type	_ZN15ListFileBrowser7RefreshEv, @function
_ZN15ListFileBrowser7RefreshEv:
.LFB1513:
	.file 16 "d:/Projects/SaveGameManager/savegame-manager-gx/trunk/source/Files/ListFileBrowser.hpp"
	.loc 16 44 0
	.cfi_startproc
.LVL1138:
	mflr 0
	stwu 1,-16(1)
.LCFI157:
	.cfi_def_cfa_offset 16
	.cfi_register 65, 0
	stw 31,12(1)
	mr 31,3
	.cfi_offset 31, -4
	stw 0,20(1)
	.loc 16 44 0
	lwz 3,156(3)
.LVL1139:
	cmpwi 7,3,0
	beq- 7,.L855
	.cfi_offset 65, 4
	.loc 16 44 0 is_stmt 0 discriminator 1
	lwz 9,0(3)
	lwz 0,40(9)
	mtctr 0
	bctrl
.L855:
	.loc 16 44 0 discriminator 2
	lwz 0,20(1)
	mr 3,31
	lwz 31,12(1)
.LVL1140:
	li 4,0
	mtlr 0
	li 5,0
	addi 1,1,16
.LCFI158:
	.cfi_def_cfa_offset 0
	.cfi_restore 31
	b _ZN15ListFileBrowser12OnListChangeEii
.LVL1141:
	.cfi_endproc
.LFE1513:
	.size	_ZN15ListFileBrowser7RefreshEv, .-_ZN15ListFileBrowser7RefreshEv
	.section	.text._ZNSt8_Rb_treeIPN7sigslot12_signal_baseINS0_15single_threadedEEES4_St9_IdentityIS4_ESt4lessIS4_ESaIS4_EE5eraseERKS4_,"axG",@progbits,_ZNSt8_Rb_treeIPN7sigslot12_signal_baseINS0_15single_threadedEEES4_St9_IdentityIS4_ESt4lessIS4_ESaIS4_EE5eraseERKS4_,comdat
	.align 2
	.weak	_ZNSt8_Rb_treeIPN7sigslot12_signal_baseINS0_15single_threadedEEES4_St9_IdentityIS4_ESt4lessIS4_ESaIS4_EE5eraseERKS4_
	.type	_ZNSt8_Rb_treeIPN7sigslot12_signal_baseINS0_15single_threadedEEES4_St9_IdentityIS4_ESt4lessIS4_ESaIS4_EE5eraseERKS4_, @function
_ZNSt8_Rb_treeIPN7sigslot12_signal_baseINS0_15single_threadedEEES4_St9_IdentityIS4_ESt4lessIS4_ESaIS4_EE5eraseERKS4_:
.LFB2279:
	.loc 13 1510 0 is_stmt 1
	.cfi_startproc
.LVL1142:
	mflr 0
	stwu 1,-32(1)
.LCFI159:
	.cfi_def_cfa_offset 32
	.cfi_register 65, 0
	stw 28,16(1)
.LBB8603:
.LBB8604:
	.loc 13 1155 0
	addi 28,3,4
	.cfi_offset 28, -16
.LBE8604:
.LBE8603:
	.loc 13 1510 0
	stw 0,36(1)
	stw 26,8(1)
.LBB8663:
.LBB8625:
.LBB8605:
	.loc 13 1155 0
	mr 26,28
	.cfi_offset 26, -24
	.cfi_offset 65, 4
.LBE8605:
	.loc 3 412 0
	lwz 0,8(3)
.LBE8625:
.LBE8663:
	.loc 13 1510 0
	stw 29,20(1)
.LBB8664:
.LBB8626:
.LBB8618:
	.loc 13 1155 0
	mr 29,28
	.cfi_offset 29, -12
	.loc 13 1156 0
	cmpwi 7,0,0
.LBE8618:
.LBE8626:
.LBE8664:
	.loc 13 1510 0
	stw 30,24(1)
	stw 27,12(1)
	mr 30,3
	.cfi_offset 27, -20
	.cfi_offset 30, -8
.LVL1143:
	stw 31,28(1)
.LBB8665:
.LBB8627:
.LBB8619:
	.loc 13 1156 0
	beq- 7,.L857
	.cfi_offset 31, -4
.LVL1144:
	lwz 11,0(4)
	mr 26,0
	b .L868
.LVL1145:
.L886:
.LBE8619:
	.loc 3 412 0
	lwz 26,12(26)
.LVL1146:
.LBB8620:
	.loc 13 1156 0
	cmpwi 7,26,0
	beq- 7,.L885
.L868:
.LVL1147:
.LBE8620:
	.loc 3 412 0
	lwz 9,16(26)
.LBB8621:
.LBB8606:
	.loc 13 1158 0
	cmplw 7,9,11
	blt- 7,.L886
.LVL1148:
.LBB8607:
	.loc 13 1160 0
	ble- 7,.L860
.LVL1149:
.LBE8607:
.LBE8606:
.LBE8621:
	.loc 3 412 0
	mr 29,26
	.loc 13 1161 0
	lwz 26,8(26)
.LVL1150:
.LBB8622:
	.loc 13 1156 0
	cmpwi 7,26,0
	bne+ 7,.L868
.LVL1151:
.L885:
	mr 26,29
.LVL1152:
.L857:
.LBE8622:
.LBE8627:
.LBB8628:
.LBB8629:
.LBB8630:
	.loc 13 1500 0
	lwz 9,12(30)
.LBE8630:
.LBE8629:
.LBE8628:
.LBB8659:
.LBB8623:
	.loc 3 412 0
	lwz 27,20(30)
.LVL1153:
.LBE8623:
.LBE8659:
.LBB8660:
.LBB8657:
.LBB8655:
	.loc 13 1500 0
	cmpw 7,26,9
	beq- 7,.L887
.L869:
.LVL1154:
	.loc 13 1503 0
	cmpw 7,29,26
	beq- 7,.L876
.LVL1155:
.L883:
.LBB8631:
.LBB8632:
	.loc 13 277 0
	mr 3,26
	bl _ZSt18_Rb_tree_incrementPKSt18_Rb_tree_node_base
.LBE8632:
.LBE8631:
.LBB8634:
.LBB8635:
.LBB8636:
	.loc 13 1489 0
	mr 4,28
.LBE8636:
.LBE8635:
.LBE8634:
.LBB8647:
.LBB8633:
	.loc 13 277 0
	mr 31,3
.LVL1156:
.LBE8633:
.LBE8647:
.LBB8648:
.LBB8644:
.LBB8641:
	.loc 13 1489 0
	mr 3,26
.LVL1157:
	bl _ZSt28_Rb_tree_rebalance_for_erasePSt18_Rb_tree_node_baseRS_
.LBE8641:
.LBE8644:
.LBE8648:
	.loc 13 277 0
	mr 26,31
.LVL1158:
.LBB8649:
.LBB8645:
.LBB8642:
.LBB8637:
.LBB8638:
.LBB8639:
.LBB8640:
	.loc 8 98 0
	bl _ZdlPv
.LBE8640:
.LBE8639:
.LBE8638:
.LBE8637:
.LBE8642:
.LBE8645:
.LBE8649:
	.loc 13 1503 0
	cmpw 7,29,31
.LBB8650:
.LBB8646:
.LBB8643:
	.loc 13 1491 0
	lwz 9,20(30)
	addi 0,9,-1
	stw 0,20(30)
.LBE8643:
.LBE8646:
.LBE8650:
	.loc 13 1503 0
	bne+ 7,.L883
	subf 27,0,27
.LVL1159:
.L871:
.LBE8655:
.LBE8657:
.LBE8660:
.LBE8665:
	.loc 13 1517 0
	lwz 0,36(1)
	mr 3,27
	lwz 26,8(1)
	mtlr 0
	lwz 27,12(1)
	lwz 28,16(1)
	lwz 29,20(1)
.LVL1160:
	lwz 30,24(1)
.LVL1161:
	lwz 31,28(1)
	addi 1,1,32
	.cfi_remember_state
.LCFI160:
	.cfi_def_cfa_offset 0
	.cfi_restore 31
	.cfi_restore 30
	.cfi_restore 29
	.cfi_restore 28
	.cfi_restore 27
	.cfi_restore 26
	blr
.LVL1162:
.L860:
.LCFI161:
	.cfi_restore_state
.LBB8666:
.LBB8661:
	.loc 3 412 0
	lwz 10,8(26)
.LVL1163:
	lwz 9,12(26)
.LVL1164:
.L884:
.LBB8624:
.LBB8617:
.LBB8616:
.LBB8608:
.LBB8609:
.LBB8610:
	.loc 13 1089 0
	cmpwi 7,10,0
	beq- 7,.L861
.L888:
.LVL1165:
	.loc 13 1090 0
	lwz 8,16(10)
	cmplw 7,8,11
	blt- 7,.L862
.LVL1166:
.LBE8610:
	.loc 3 412 0
	mr 26,10
	.loc 13 1091 0
	lwz 10,8(10)
.LVL1167:
.LBB8611:
	.loc 13 1089 0
	cmpwi 7,10,0
	bne+ 7,.L888
.LVL1168:
.L861:
.LBE8611:
.LBE8609:
.LBB8612:
.LBB8613:
	.loc 13 1121 0
	cmpwi 7,9,0
	beq- 7,.L857
.LVL1169:
	.loc 13 1122 0
	lwz 10,16(9)
	cmplw 7,10,11
	ble- 7,.L865
.LVL1170:
.L889:
.LBE8613:
	.loc 3 412 0
	mr 29,9
	.loc 13 1123 0
	lwz 9,8(9)
.LVL1171:
.LBB8614:
	.loc 13 1121 0
	cmpwi 7,9,0
	beq- 7,.L857
.LVL1172:
	.loc 13 1122 0
	lwz 10,16(9)
	cmplw 7,10,11
	bgt- 7,.L889
.LVL1173:
.L865:
.LBE8614:
	.loc 3 412 0
	lwz 9,12(9)
.LVL1174:
	b .L861
.LVL1175:
.L862:
.LBE8612:
.LBB8615:
	lwz 10,12(10)
.LVL1176:
	b .L884
.LVL1177:
.L887:
.LBE8615:
.LBE8608:
.LBE8616:
.LBE8617:
.LBE8624:
.LBE8661:
.LBB8662:
.LBB8658:
.LBB8656:
	.loc 13 1500 0
	cmpw 7,28,29
	bne+ 7,.L869
.LVL1178:
.LBB8651:
.LBB8652:
.LBB8653:
.LBB8654:
	.loc 13 809 0
	mr 4,0
.LVL1179:
	mr 3,30
.LVL1180:
	bl _ZNSt8_Rb_treeIPN7sigslot12_signal_baseINS0_15single_threadedEEES4_St9_IdentityIS4_ESt4lessIS4_ESaIS4_EE8_M_eraseEPSt13_Rb_tree_nodeIS4_E
.LVL1181:
	.loc 13 811 0
	li 0,0
	.loc 13 810 0
	stw 28,12(30)
.LVL1182:
	.loc 13 811 0
	stw 0,8(30)
.LVL1183:
	.loc 13 812 0
	stw 28,16(30)
	.loc 13 813 0
	stw 0,20(30)
	b .L871
.LVL1184:
.L876:
.LBE8654:
.LBE8653:
.LBE8652:
.LBE8651:
	.loc 13 1503 0
	li 27,0
	b .L871
.LBE8656:
.LBE8658:
.LBE8662:
.LBE8666:
	.cfi_endproc
.LFE2279:
	.size	_ZNSt8_Rb_treeIPN7sigslot12_signal_baseINS0_15single_threadedEEES4_St9_IdentityIS4_ESt4lessIS4_ESaIS4_EE5eraseERKS4_, .-_ZNSt8_Rb_treeIPN7sigslot12_signal_baseINS0_15single_threadedEEES4_St9_IdentityIS4_ESt4lessIS4_ESaIS4_EE5eraseERKS4_
	.section	.text._ZN7sigslot7signal3IP10GuiElementiiNS_15single_threadedEED2Ev,"axG",@progbits,_ZN7sigslot7signal3IP10GuiElementiiNS_15single_threadedEED5Ev,comdat
	.align 2
	.weak	_ZN7sigslot7signal3IP10GuiElementiiNS_15single_threadedEED2Ev
	.type	_ZN7sigslot7signal3IP10GuiElementiiNS_15single_threadedEED2Ev, @function
_ZN7sigslot7signal3IP10GuiElementiiNS_15single_threadedEED2Ev:
.LFB1635:
	.loc 1 2302 0
	.cfi_startproc
	.cfi_personality 0,__gxx_personality_v0
	.cfi_lsda 0,.LLSDA1635
.LVL1185:
	mflr 0
	stwu 1,-40(1)
.LCFI162:
	.cfi_def_cfa_offset 40
	.cfi_register 65, 0
.LBB8764:
.LBB8765:
.LBB8766:
.LBB8767:
	.loc 1 946 0
	lis 9,_ZTVN7sigslot13_signal_base3IP10GuiElementiiNS_15single_threadedEEE+8@ha
.LBE8767:
.LBE8766:
.LBE8765:
.LBE8764:
	.loc 1 2302 0
	stw 28,24(1)
	mr 28,3
	.cfi_offset 28, -16
.LVL1186:
	stw 0,44(1)
.LBB8865:
.LBB8860:
.LBB8855:
.LBB8850:
	.loc 1 946 0
	la 0,_ZTVN7sigslot13_signal_base3IP10GuiElementiiNS_15single_threadedEEE+8@l(9)
	.cfi_offset 65, 4
.LBE8850:
.LBE8855:
.LBE8860:
.LBE8865:
	.loc 1 2302 0
	stw 29,28(1)
	addi 29,3,4
	.cfi_offset 29, -12
	stw 30,32(1)
	stw 31,36(1)
.LBB8866:
.LBB8861:
.LBB8856:
.LBB8851:
	.loc 1 946 0
	stw 0,0(3)
.LVL1187:
.LEHB138:
.LBB8768:
.LBB8769:
.LBB8770:
.LBB8771:
	.loc 1 338 0
	.cfi_offset 31, -4
	.cfi_offset 30, -8
	bl _ZN7sigslot15single_threaded4lockEv
.LEHE138:
.LVL1188:
.LBE8771:
.LBE8770:
.LBE8769:
	.loc 3 412 0
	mr 29,28
.LVL1189:
	lwzu 31,4(29)
.LVL1190:
.LBB8802:
	.loc 1 954 0
	cmpw 7,31,29
	beq- 7,.L891
.LVL1191:
.L929:
	.loc 1 956 0
	lwz 3,8(31)
	lwz 9,0(3)
	lwz 0,8(9)
	mtctr 0
.LEHB139:
	bctrl
.LBB8772:
.LBB8773:
.LBB8774:
.LBB8775:
	.loc 1 338 0
	lwz 9,0(3)
.LBE8775:
.LBE8774:
.LBE8773:
.LBE8772:
	.loc 1 956 0
	mr 30,3
.LVL1192:
	stw 28,8(1)
.LVL1193:
.LBB8784:
.LBB8783:
.LBB8777:
.LBB8776:
	.loc 1 338 0
	lwz 0,8(9)
	mtctr 0
	bctrl
.LVL1194:
.LBE8776:
.LBE8777:
.LBB8778:
.LBB8779:
	.loc 14 528 0
	addi 3,30,4
	addi 4,1,8
	bl _ZNSt8_Rb_treeIPN7sigslot12_signal_baseINS0_15single_threadedEEES4_St9_IdentityIS4_ESt4lessIS4_ESaIS4_EE5eraseERKS4_
.LVL1195:
.LBE8779:
.LBE8778:
.LBB8780:
.LBB8781:
.LBB8782:
	.loc 1 343 0
	lwz 9,0(30)
	mr 3,30
	lwz 0,12(9)
	mtctr 0
	bctrl
.LVL1196:
.LBE8782:
.LBE8781:
.LBE8780:
.LBE8783:
.LBE8784:
	.loc 1 957 0
	lwz 3,8(31)
	cmpwi 7,3,0
	beq- 7,.L893
	lwz 9,0(3)
	lwz 0,4(9)
	mtctr 0
	bctrl
.LEHE139:
.L893:
.LVL1197:
.LBB8785:
.LBB8786:
	.loc 4 234 0
	lwz 31,0(31)
.LVL1198:
.LBE8786:
.LBE8785:
	.loc 1 954 0
	cmpw 7,29,31
	bne+ 7,.L929
.LBE8802:
	.loc 3 412 0
	lwz 31,4(28)
.LVL1199:
.LBB8803:
.LBB8787:
.LBB8788:
	.loc 4 1162 0
	cmpw 7,29,31
	bne+ 7,.L931
	b .L891
.LVL1200:
.L924:
	.loc 4 1163 0
	mr 31,30
.LVL1201:
.L931:
.LBB8789:
.LBB8790:
	.file 17 "d:\\devkitpro\\devkitppc\\bin\\../lib/gcc/powerpc-eabi/4.6.3/../../../../powerpc-eabi/include/c++/4.6.3/bits/list.tcc"
	.loc 17 112 0
	lwz 30,0(31)
.LVL1202:
.LBB8791:
.LBB8792:
	.loc 4 1532 0
	mr 3,31
	bl _ZNSt8__detail15_List_node_base9_M_unhookEv
.LVL1203:
.LBB8793:
.LBB8794:
.LBB8795:
	.loc 8 98 0
	mr 3,31
	bl _ZdlPv
.LVL1204:
.LBE8795:
.LBE8794:
.LBE8793:
.LBE8792:
.LBE8791:
.LBE8790:
.LBE8789:
	.loc 4 1162 0
	cmpw 7,29,30
	bne+ 7,.L924
.LVL1205:
.L891:
.LBE8788:
.LBE8787:
.LBB8796:
.LBB8797:
.LBB8798:
	.loc 1 343 0
	lwz 9,0(28)
	mr 3,28
	lwz 0,12(9)
	mtctr 0
.LEHB140:
	bctrl
.LEHE140:
.LBE8798:
.LBE8797:
.LBE8796:
.LBE8803:
.LBE8768:
.LBB8805:
.LBB8806:
.LBB8807:
.LBB8808:
.LBB8809:
.LBB8810:
	.loc 17 70 0
	lwz 3,4(28)
.LVL1206:
	.loc 17 71 0
	cmpw 7,3,29
	bne+ 7,.L933
	b .L909
.LVL1207:
.L925:
	.loc 17 74 0
	mr 3,31
.LVL1208:
.L933:
.LBB8811:
	lwz 31,0(3)
.LVL1209:
.LBB8812:
.LBB8813:
.LBB8814:
	.loc 8 98 0
	bl _ZdlPv
.LVL1210:
.LBE8814:
.LBE8813:
.LBE8812:
.LBE8811:
	.loc 17 71 0
	cmpw 7,31,29
	bne+ 7,.L925
.LVL1211:
.L909:
.LBE8810:
.LBE8809:
.LBE8808:
.LBE8807:
.LBE8806:
.LBE8805:
.LBB8815:
.LBB8816:
.LBB8817:
.LBB8818:
.LBB8819:
.LBB8820:
	.loc 1 105 0
	lis 9,_ZTVN7sigslot15single_threadedE+8@ha
.LBE8820:
.LBE8819:
.LBE8818:
.LBE8817:
.LBE8816:
.LBE8815:
.LBE8851:
.LBE8856:
.LBE8861:
.LBE8866:
	.loc 1 2305 0
	lwz 29,28(1)
.LVL1212:
.LBB8867:
.LBB8862:
.LBB8857:
.LBB8852:
.LBB8831:
.LBB8829:
.LBB8827:
.LBB8825:
.LBB8823:
.LBB8821:
	.loc 1 105 0
	la 0,_ZTVN7sigslot15single_threadedE+8@l(9)
.LBE8821:
.LBE8823:
.LBE8825:
.LBE8827:
.LBE8829:
.LBE8831:
.LBE8852:
.LBE8857:
.LBE8862:
.LBE8867:
	.loc 1 2305 0
	lwz 30,32(1)
.LBB8868:
.LBB8863:
.LBB8858:
.LBB8853:
.LBB8832:
.LBB8830:
.LBB8828:
.LBB8826:
.LBB8824:
.LBB8822:
	.loc 1 105 0
	stw 0,0(28)
.LBE8822:
.LBE8824:
.LBE8826:
.LBE8828:
.LBE8830:
.LBE8832:
.LBE8853:
.LBE8858:
.LBE8863:
.LBE8868:
	.loc 1 2305 0
	lwz 0,44(1)
	lwz 28,24(1)
.LVL1213:
	mtlr 0
	lwz 31,36(1)
	addi 1,1,40
	.cfi_remember_state
.LCFI163:
	.cfi_def_cfa_offset 0
	.cfi_restore 31
	.cfi_restore 30
	.cfi_restore 29
	.cfi_restore 28
	blr
.LVL1214:
.L927:
.LCFI164:
	.cfi_restore_state
	mr 31,3
.L901:
.LBB8869:
.LBB8864:
.LBB8859:
.LBB8854:
.LBB8833:
.LBB8834:
.LBB8835:
.LBB8836:
.LBB8837:
.LBB8838:
	.loc 17 70 0
	lwz 3,4(28)
.LVL1215:
	.loc 17 71 0
	cmpw 7,3,29
	beq- 7,.L918
.LVL1216:
.L934:
.LBB8839:
	.loc 17 74 0
	lwz 30,0(3)
.LVL1217:
.LBB8840:
.LBB8841:
.LBB8842:
	.loc 8 98 0
	bl _ZdlPv
.LVL1218:
.LBE8842:
.LBE8841:
.LBE8840:
.LBE8839:
	.loc 17 71 0
	cmpw 7,30,29
	beq- 7,.L918
	.loc 17 74 0
	mr 3,30
	b .L934
.LVL1219:
.L928:
.LBE8838:
.LBE8837:
.LBE8836:
.LBE8835:
.LBE8834:
.LBE8833:
.LBB8843:
.LBB8804:
.LBB8799:
.LBB8800:
.LBB8801:
	.loc 1 343 0
	lwz 9,0(28)
	mr 31,3
.LVL1220:
	mr 3,28
	lwz 0,12(9)
	mtctr 0
	bctrl
	b .L901
.LVL1221:
.L918:
.LBE8801:
.LBE8800:
.LBE8799:
.LBE8804:
.LBE8843:
.LBB8844:
.LBB8845:
.LBB8846:
.LBB8847:
.LBB8848:
.LBB8849:
	.loc 1 105 0
	lis 9,_ZTVN7sigslot15single_threadedE+8@ha
	mr 3,31
	la 0,_ZTVN7sigslot15single_threadedE+8@l(9)
	stw 0,0(28)
.LEHB141:
	bl _Unwind_Resume
.LEHE141:
.LBE8849:
.LBE8848:
.LBE8847:
.LBE8846:
.LBE8845:
.LBE8844:
.LBE8854:
.LBE8859:
.LBE8864:
.LBE8869:
	.cfi_endproc
.LFE1635:
	.section	.gcc_except_table
.LLSDA1635:
	.byte	0xff
	.byte	0xff
	.byte	0x1
	.uleb128 .LLSDACSE1635-.LLSDACSB1635
.LLSDACSB1635:
	.uleb128 .LEHB138-.LFB1635
	.uleb128 .LEHE138-.LEHB138
	.uleb128 .L927-.LFB1635
	.uleb128 0
	.uleb128 .LEHB139-.LFB1635
	.uleb128 .LEHE139-.LEHB139
	.uleb128 .L928-.LFB1635
	.uleb128 0
	.uleb128 .LEHB140-.LFB1635
	.uleb128 .LEHE140-.LEHB140
	.uleb128 .L927-.LFB1635
	.uleb128 0
	.uleb128 .LEHB141-.LFB1635
	.uleb128 .LEHE141-.LEHB141
	.uleb128 0
	.uleb128 0
.LLSDACSE1635:
	.section	.text._ZN7sigslot7signal3IP10GuiElementiiNS_15single_threadedEED2Ev,"axG",@progbits,_ZN7sigslot7signal3IP10GuiElementiiNS_15single_threadedEED5Ev,comdat
	.size	_ZN7sigslot7signal3IP10GuiElementiiNS_15single_threadedEED2Ev, .-_ZN7sigslot7signal3IP10GuiElementiiNS_15single_threadedEED2Ev
	.section	.text._ZN7sigslot13_signal_base1IiNS_15single_threadedEED2Ev,"axG",@progbits,_ZN7sigslot13_signal_base1IiNS_15single_threadedEED5Ev,comdat
	.align 2
	.weak	_ZN7sigslot13_signal_base1IiNS_15single_threadedEED2Ev
	.type	_ZN7sigslot13_signal_base1IiNS_15single_threadedEED2Ev, @function
_ZN7sigslot13_signal_base1IiNS_15single_threadedEED2Ev:
.LFB1799:
	.loc 1 702 0
	.cfi_startproc
	.cfi_personality 0,__gxx_personality_v0
	.cfi_lsda 0,.LLSDA1799
.LVL1222:
	mflr 0
	stwu 1,-40(1)
.LCFI165:
	.cfi_def_cfa_offset 40
	.cfi_register 65, 0
.LBB9016:
	.loc 1 705 0
	lis 9,_ZTVN7sigslot13_signal_base1IiNS_15single_threadedEEE+8@ha
.LBE9016:
	.loc 1 702 0
	stw 28,24(1)
	mr 28,3
	.cfi_offset 28, -16
	stw 0,44(1)
.LBB9099:
	.loc 1 705 0
	la 0,_ZTVN7sigslot13_signal_base1IiNS_15single_threadedEEE+8@l(9)
	.cfi_offset 65, 4
.LBE9099:
	.loc 1 702 0
	stw 29,28(1)
	addi 29,3,4
	.cfi_offset 29, -12
	stw 30,32(1)
	stw 31,36(1)
.LBB9100:
	.loc 1 705 0
	stw 0,0(3)
.LVL1223:
.LEHB142:
.LBB9017:
.LBB9018:
.LBB9019:
.LBB9020:
	.loc 1 338 0
	.cfi_offset 31, -4
	.cfi_offset 30, -8
	bl _ZN7sigslot15single_threaded4lockEv
.LEHE142:
.LVL1224:
.LBE9020:
.LBE9019:
.LBE9018:
	.loc 3 412 0
	mr 29,28
	lwzu 31,4(29)
.LVL1225:
.LBB9051:
	.loc 1 713 0
	cmpw 7,31,29
	beq- 7,.L936
.LVL1226:
.L973:
	.loc 1 715 0
	lwz 3,8(31)
	lwz 9,0(3)
	lwz 0,8(9)
	mtctr 0
.LEHB143:
	bctrl
.LBB9021:
.LBB9022:
.LBB9023:
.LBB9024:
	.loc 1 338 0
	lwz 9,0(3)
.LBE9024:
.LBE9023:
.LBE9022:
.LBE9021:
	.loc 1 715 0
	mr 30,3
.LVL1227:
	stw 28,8(1)
.LVL1228:
.LBB9033:
.LBB9032:
.LBB9026:
.LBB9025:
	.loc 1 338 0
	lwz 0,8(9)
	mtctr 0
	bctrl
.LVL1229:
.LBE9025:
.LBE9026:
.LBB9027:
.LBB9028:
	.loc 14 528 0
	addi 3,30,4
	addi 4,1,8
	bl _ZNSt8_Rb_treeIPN7sigslot12_signal_baseINS0_15single_threadedEEES4_St9_IdentityIS4_ESt4lessIS4_ESaIS4_EE5eraseERKS4_
.LVL1230:
.LBE9028:
.LBE9027:
.LBB9029:
.LBB9030:
.LBB9031:
	.loc 1 343 0
	lwz 9,0(30)
	mr 3,30
	lwz 0,12(9)
	mtctr 0
	bctrl
.LVL1231:
.LBE9031:
.LBE9030:
.LBE9029:
.LBE9032:
.LBE9033:
	.loc 1 716 0
	lwz 3,8(31)
	cmpwi 7,3,0
	beq- 7,.L938
	lwz 9,0(3)
	lwz 0,4(9)
	mtctr 0
	bctrl
.LEHE143:
.L938:
.LVL1232:
.LBB9034:
.LBB9035:
	.loc 4 234 0
	lwz 31,0(31)
.LVL1233:
.LBE9035:
.LBE9034:
	.loc 1 713 0
	cmpw 7,29,31
	bne+ 7,.L973
.LBE9051:
	.loc 3 412 0
	lwz 31,4(28)
.LVL1234:
.LBB9052:
.LBB9036:
.LBB9037:
	.loc 4 1162 0
	cmpw 7,29,31
	bne+ 7,.L975
	b .L936
.LVL1235:
.L968:
	.loc 4 1163 0
	mr 31,30
.LVL1236:
.L975:
.LBB9038:
.LBB9039:
	.loc 17 112 0
	lwz 30,0(31)
.LVL1237:
.LBB9040:
.LBB9041:
	.loc 4 1532 0
	mr 3,31
	bl _ZNSt8__detail15_List_node_base9_M_unhookEv
.LVL1238:
.LBB9042:
.LBB9043:
.LBB9044:
	.loc 8 98 0
	mr 3,31
	bl _ZdlPv
.LVL1239:
.LBE9044:
.LBE9043:
.LBE9042:
.LBE9041:
.LBE9040:
.LBE9039:
.LBE9038:
	.loc 4 1162 0
	cmpw 7,29,30
	bne+ 7,.L968
.LVL1240:
.L936:
.LBE9037:
.LBE9036:
.LBB9045:
.LBB9046:
.LBB9047:
	.loc 1 343 0
	lwz 9,0(28)
	mr 3,28
	lwz 0,12(9)
	mtctr 0
.LEHB144:
	bctrl
.LEHE144:
.LVL1241:
.LBE9047:
.LBE9046:
.LBE9045:
.LBE9052:
.LBE9017:
.LBB9054:
.LBB9055:
.LBB9056:
.LBB9057:
.LBB9058:
.LBB9059:
	.loc 17 70 0
	lwz 3,4(28)
.LVL1242:
	.loc 17 71 0
	cmpw 7,3,29
	bne+ 7,.L977
	b .L954
.LVL1243:
.L969:
	.loc 17 74 0
	mr 3,31
.LVL1244:
.L977:
.LBB9060:
	lwz 31,0(3)
.LVL1245:
.LBB9061:
.LBB9062:
.LBB9063:
	.loc 8 98 0
	bl _ZdlPv
.LVL1246:
.LBE9063:
.LBE9062:
.LBE9061:
.LBE9060:
	.loc 17 71 0
	cmpw 7,31,29
	bne+ 7,.L969
.LVL1247:
.L954:
.LBE9059:
.LBE9058:
.LBE9057:
.LBE9056:
.LBE9055:
.LBE9054:
.LBB9064:
.LBB9065:
.LBB9066:
.LBB9067:
.LBB9068:
.LBB9069:
	.loc 1 105 0
	lis 9,_ZTVN7sigslot15single_threadedE+8@ha
.LBE9069:
.LBE9068:
.LBE9067:
.LBE9066:
.LBE9065:
.LBE9064:
.LBE9100:
	.loc 1 705 0
	lwz 29,28(1)
.LVL1248:
.LBB9101:
.LBB9080:
.LBB9078:
.LBB9076:
.LBB9074:
.LBB9072:
.LBB9070:
	.loc 1 105 0
	la 0,_ZTVN7sigslot15single_threadedE+8@l(9)
.LBE9070:
.LBE9072:
.LBE9074:
.LBE9076:
.LBE9078:
.LBE9080:
.LBE9101:
	.loc 1 705 0
	lwz 30,32(1)
.LBB9102:
.LBB9081:
.LBB9079:
.LBB9077:
.LBB9075:
.LBB9073:
.LBB9071:
	.loc 1 105 0
	stw 0,0(28)
.LBE9071:
.LBE9073:
.LBE9075:
.LBE9077:
.LBE9079:
.LBE9081:
.LBE9102:
	.loc 1 705 0
	lwz 0,44(1)
	lwz 28,24(1)
.LVL1249:
	mtlr 0
	lwz 31,36(1)
	addi 1,1,40
	.cfi_remember_state
.LCFI166:
	.cfi_def_cfa_offset 0
	.cfi_restore 31
	.cfi_restore 30
	.cfi_restore 29
	.cfi_restore 28
	blr
.LVL1250:
.L971:
.LCFI167:
	.cfi_restore_state
	mr 31,3
.L946:
.LVL1251:
.LBB9103:
.LBB9082:
.LBB9083:
.LBB9084:
.LBB9085:
.LBB9086:
.LBB9087:
	.loc 17 70 0
	lwz 3,4(28)
.LVL1252:
	.loc 17 71 0
	cmpw 7,3,29
	beq- 7,.L965
.LVL1253:
.L978:
.LBB9088:
	.loc 17 74 0
	lwz 30,0(3)
.LVL1254:
.LBB9089:
.LBB9090:
.LBB9091:
	.loc 8 98 0
	bl _ZdlPv
.LVL1255:
.LBE9091:
.LBE9090:
.LBE9089:
.LBE9088:
	.loc 17 71 0
	cmpw 7,30,29
	beq- 7,.L965
	.loc 17 74 0
	mr 3,30
	b .L978
.LVL1256:
.L972:
.LBE9087:
.LBE9086:
.LBE9085:
.LBE9084:
.LBE9083:
.LBE9082:
.LBB9092:
.LBB9053:
.LBB9048:
.LBB9049:
.LBB9050:
	.loc 1 343 0
	lwz 9,0(28)
	mr 31,3
.LVL1257:
	mr 3,28
	lwz 0,12(9)
	mtctr 0
	bctrl
	b .L946
.LVL1258:
.L965:
.LBE9050:
.LBE9049:
.LBE9048:
.LBE9053:
.LBE9092:
.LBB9093:
.LBB9094:
.LBB9095:
.LBB9096:
.LBB9097:
.LBB9098:
	.loc 1 105 0
	lis 9,_ZTVN7sigslot15single_threadedE+8@ha
	mr 3,31
	la 0,_ZTVN7sigslot15single_threadedE+8@l(9)
	stw 0,0(28)
.LEHB145:
	bl _Unwind_Resume
.LEHE145:
.LBE9098:
.LBE9097:
.LBE9096:
.LBE9095:
.LBE9094:
.LBE9093:
.LBE9103:
	.cfi_endproc
.LFE1799:
	.section	.gcc_except_table
.LLSDA1799:
	.byte	0xff
	.byte	0xff
	.byte	0x1
	.uleb128 .LLSDACSE1799-.LLSDACSB1799
.LLSDACSB1799:
	.uleb128 .LEHB142-.LFB1799
	.uleb128 .LEHE142-.LEHB142
	.uleb128 .L971-.LFB1799
	.uleb128 0
	.uleb128 .LEHB143-.LFB1799
	.uleb128 .LEHE143-.LEHB143
	.uleb128 .L972-.LFB1799
	.uleb128 0
	.uleb128 .LEHB144-.LFB1799
	.uleb128 .LEHE144-.LEHB144
	.uleb128 .L971-.LFB1799
	.uleb128 0
	.uleb128 .LEHB145-.LFB1799
	.uleb128 .LEHE145-.LEHB145
	.uleb128 0
	.uleb128 0
.LLSDACSE1799:
	.section	.text._ZN7sigslot13_signal_base1IiNS_15single_threadedEED2Ev,"axG",@progbits,_ZN7sigslot13_signal_base1IiNS_15single_threadedEED5Ev,comdat
	.size	_ZN7sigslot13_signal_base1IiNS_15single_threadedEED2Ev, .-_ZN7sigslot13_signal_base1IiNS_15single_threadedEED2Ev
	.section	.text._ZN7sigslot7signal1IiNS_15single_threadedEED0Ev,"axG",@progbits,_ZN7sigslot7signal1IiNS_15single_threadedEED5Ev,comdat
	.align 2
	.weak	_ZN7sigslot7signal1IiNS_15single_threadedEED0Ev
	.type	_ZN7sigslot7signal1IiNS_15single_threadedEED0Ev, @function
_ZN7sigslot7signal1IiNS_15single_threadedEED0Ev:
.LFB1673:
	.loc 1 2169 0
	.cfi_startproc
	.cfi_personality 0,__gxx_personality_v0
	.cfi_lsda 0,.LLSDA1673
.LVL1259:
	mflr 0
	stwu 1,-40(1)
.LCFI168:
	.cfi_def_cfa_offset 40
	.cfi_register 65, 0
.LBB9202:
.LBB9203:
.LBB9204:
.LBB9205:
.LBB9206:
.LBB9207:
	.loc 1 705 0
	lis 9,_ZTVN7sigslot13_signal_base1IiNS_15single_threadedEEE+8@ha
.LBE9207:
.LBE9206:
.LBE9205:
.LBE9204:
.LBE9203:
.LBE9202:
	.loc 1 2169 0
	stw 28,24(1)
	mr 28,3
	.cfi_offset 28, -16
.LVL1260:
	stw 0,44(1)
.LBB9304:
.LBB9300:
.LBB9296:
.LBB9292:
.LBB9288:
.LBB9284:
	.loc 1 705 0
	la 0,_ZTVN7sigslot13_signal_base1IiNS_15single_threadedEEE+8@l(9)
	.cfi_offset 65, 4
.LBE9284:
.LBE9288:
.LBE9292:
.LBE9296:
.LBE9300:
.LBE9304:
	.loc 1 2169 0
	stw 29,28(1)
	addi 29,3,4
	.cfi_offset 29, -12
	stw 30,32(1)
	stw 31,36(1)
.LBB9305:
.LBB9301:
.LBB9297:
.LBB9293:
.LBB9289:
.LBB9285:
	.loc 1 705 0
	stw 0,0(3)
.LVL1261:
.LEHB146:
.LBB9208:
.LBB9209:
.LBB9210:
.LBB9211:
	.loc 1 338 0
	.cfi_offset 31, -4
	.cfi_offset 30, -8
	bl _ZN7sigslot15single_threaded4lockEv
.LEHE146:
.LVL1262:
.LBE9211:
.LBE9210:
.LBE9209:
	.loc 3 412 0
	mr 29,28
.LVL1263:
	lwzu 31,4(29)
.LVL1264:
.LBB9242:
	.loc 1 713 0
	cmpw 7,31,29
	beq- 7,.L980
.LVL1265:
.L1019:
	.loc 1 715 0
	lwz 3,8(31)
	lwz 9,0(3)
	lwz 0,8(9)
	mtctr 0
.LEHB147:
	bctrl
.LBB9212:
.LBB9213:
.LBB9214:
.LBB9215:
	.loc 1 338 0
	lwz 9,0(3)
.LBE9215:
.LBE9214:
.LBE9213:
.LBE9212:
	.loc 1 715 0
	mr 30,3
.LVL1266:
	stw 28,8(1)
.LVL1267:
.LBB9224:
.LBB9223:
.LBB9217:
.LBB9216:
	.loc 1 338 0
	lwz 0,8(9)
	mtctr 0
	bctrl
.LVL1268:
.LBE9216:
.LBE9217:
.LBB9218:
.LBB9219:
	.loc 14 528 0
	addi 3,30,4
	addi 4,1,8
	bl _ZNSt8_Rb_treeIPN7sigslot12_signal_baseINS0_15single_threadedEEES4_St9_IdentityIS4_ESt4lessIS4_ESaIS4_EE5eraseERKS4_
.LVL1269:
.LBE9219:
.LBE9218:
.LBB9220:
.LBB9221:
.LBB9222:
	.loc 1 343 0
	lwz 9,0(30)
	mr 3,30
	lwz 0,12(9)
	mtctr 0
	bctrl
.LVL1270:
.LBE9222:
.LBE9221:
.LBE9220:
.LBE9223:
.LBE9224:
	.loc 1 716 0
	lwz 3,8(31)
	cmpwi 7,3,0
	beq- 7,.L982
	lwz 9,0(3)
	lwz 0,4(9)
	mtctr 0
	bctrl
.LEHE147:
.L982:
.LVL1271:
.LBB9225:
.LBB9226:
	.loc 4 234 0
	lwz 31,0(31)
.LVL1272:
.LBE9226:
.LBE9225:
	.loc 1 713 0
	cmpw 7,29,31
	bne+ 7,.L1019
.LBE9242:
	.loc 3 412 0
	lwz 31,4(28)
.LVL1273:
.LBB9243:
.LBB9227:
.LBB9228:
	.loc 4 1162 0
	cmpw 7,29,31
	bne+ 7,.L1021
	b .L980
.LVL1274:
.L1014:
	.loc 4 1163 0
	mr 31,30
.LVL1275:
.L1021:
.LBB9229:
.LBB9230:
	.loc 17 112 0
	lwz 30,0(31)
.LVL1276:
.LBB9231:
.LBB9232:
	.loc 4 1532 0
	mr 3,31
	bl _ZNSt8__detail15_List_node_base9_M_unhookEv
.LVL1277:
.LBB9233:
.LBB9234:
.LBB9235:
	.loc 8 98 0
	mr 3,31
	bl _ZdlPv
.LVL1278:
.LBE9235:
.LBE9234:
.LBE9233:
.LBE9232:
.LBE9231:
.LBE9230:
.LBE9229:
	.loc 4 1162 0
	cmpw 7,29,30
	bne+ 7,.L1014
.LVL1279:
.L980:
.LBE9228:
.LBE9227:
.LBB9236:
.LBB9237:
.LBB9238:
	.loc 1 343 0
	lwz 9,0(28)
	mr 3,28
	lwz 0,12(9)
	mtctr 0
.LEHB148:
	bctrl
.LEHE148:
.LBE9238:
.LBE9237:
.LBE9236:
.LBE9243:
.LBE9208:
.LBB9245:
.LBB9246:
.LBB9247:
.LBB9248:
.LBB9249:
.LBB9250:
	.loc 17 70 0
	lwz 3,4(28)
.LVL1280:
	.loc 17 71 0
	cmpw 7,3,29
	bne+ 7,.L1023
	b .L998
.LVL1281:
.L1015:
	.loc 17 74 0
	mr 3,31
.LVL1282:
.L1023:
.LBB9251:
	lwz 31,0(3)
.LVL1283:
.LBB9252:
.LBB9253:
.LBB9254:
	.loc 8 98 0
	bl _ZdlPv
.LVL1284:
.LBE9254:
.LBE9253:
.LBE9252:
.LBE9251:
	.loc 17 71 0
	cmpw 7,31,29
	bne+ 7,.L1015
.LVL1285:
.L998:
.LBE9250:
.LBE9249:
.LBE9248:
.LBE9247:
.LBE9246:
.LBE9245:
.LBB9255:
.LBB9256:
.LBB9257:
.LBB9258:
.LBB9259:
.LBB9260:
	.loc 1 105 0
	lis 9,_ZTVN7sigslot15single_threadedE+8@ha
.LBE9260:
.LBE9259:
.LBE9258:
.LBE9257:
.LBE9256:
.LBE9255:
.LBE9285:
.LBE9289:
.LBE9293:
.LBE9297:
.LBE9301:
.LBE9305:
	.loc 1 2172 0
	mr 3,28
.LBB9306:
.LBB9302:
.LBB9298:
.LBB9294:
.LBB9290:
.LBB9286:
.LBB9266:
.LBB9265:
.LBB9264:
.LBB9263:
.LBB9262:
.LBB9261:
	.loc 1 105 0
	la 0,_ZTVN7sigslot15single_threadedE+8@l(9)
	stw 0,0(28)
.LBE9261:
.LBE9262:
.LBE9263:
.LBE9264:
.LBE9265:
.LBE9266:
.LBE9286:
.LBE9290:
.LBE9294:
.LBE9298:
.LBE9302:
.LBE9306:
	.loc 1 2172 0
	bl _ZdlPv
	lwz 0,44(1)
	lwz 28,24(1)
.LVL1286:
	mtlr 0
	lwz 29,28(1)
.LVL1287:
	lwz 30,32(1)
	lwz 31,36(1)
	addi 1,1,40
	.cfi_remember_state
.LCFI169:
	.cfi_def_cfa_offset 0
	.cfi_restore 31
	.cfi_restore 30
	.cfi_restore 29
	.cfi_restore 28
	blr
.LVL1288:
.L1017:
.LCFI170:
	.cfi_restore_state
	mr 31,3
.L990:
.LBB9307:
.LBB9303:
.LBB9299:
.LBB9295:
.LBB9291:
.LBB9287:
.LBB9267:
.LBB9268:
.LBB9269:
.LBB9270:
.LBB9271:
.LBB9272:
	.loc 17 70 0
	lwz 3,4(28)
.LVL1289:
	.loc 17 71 0
	cmpw 7,3,29
	beq- 7,.L1007
.LVL1290:
.L1024:
.LBB9273:
	.loc 17 74 0
	lwz 30,0(3)
.LVL1291:
.LBB9274:
.LBB9275:
.LBB9276:
	.loc 8 98 0
	bl _ZdlPv
.LVL1292:
.LBE9276:
.LBE9275:
.LBE9274:
.LBE9273:
	.loc 17 71 0
	cmpw 7,30,29
	beq- 7,.L1007
	.loc 17 74 0
	mr 3,30
	b .L1024
.LVL1293:
.L1018:
.LBE9272:
.LBE9271:
.LBE9270:
.LBE9269:
.LBE9268:
.LBE9267:
.LBB9277:
.LBB9244:
.LBB9239:
.LBB9240:
.LBB9241:
	.loc 1 343 0
	lwz 9,0(28)
	mr 31,3
.LVL1294:
	mr 3,28
	lwz 0,12(9)
	mtctr 0
	bctrl
	b .L990
.LVL1295:
.L1007:
.LBE9241:
.LBE9240:
.LBE9239:
.LBE9244:
.LBE9277:
.LBB9278:
.LBB9279:
.LBB9280:
.LBB9281:
.LBB9282:
.LBB9283:
	.loc 1 105 0
	lis 9,_ZTVN7sigslot15single_threadedE+8@ha
	mr 3,31
	la 0,_ZTVN7sigslot15single_threadedE+8@l(9)
	stw 0,0(28)
.LEHB149:
	bl _Unwind_Resume
.LEHE149:
.LBE9283:
.LBE9282:
.LBE9281:
.LBE9280:
.LBE9279:
.LBE9278:
.LBE9287:
.LBE9291:
.LBE9295:
.LBE9299:
.LBE9303:
.LBE9307:
	.cfi_endproc
.LFE1673:
	.section	.gcc_except_table
.LLSDA1673:
	.byte	0xff
	.byte	0xff
	.byte	0x1
	.uleb128 .LLSDACSE1673-.LLSDACSB1673
.LLSDACSB1673:
	.uleb128 .LEHB146-.LFB1673
	.uleb128 .LEHE146-.LEHB146
	.uleb128 .L1017-.LFB1673
	.uleb128 0
	.uleb128 .LEHB147-.LFB1673
	.uleb128 .LEHE147-.LEHB147
	.uleb128 .L1018-.LFB1673
	.uleb128 0
	.uleb128 .LEHB148-.LFB1673
	.uleb128 .LEHE148-.LEHB148
	.uleb128 .L1017-.LFB1673
	.uleb128 0
	.uleb128 .LEHB149-.LFB1673
	.uleb128 .LEHE149-.LEHB149
	.uleb128 0
	.uleb128 0
.LLSDACSE1673:
