	.file	"ListInfosWindow.cpp"
	.section	".text"
.Ltext0:
	.section	.text._ZN10GuiElement9SetParentEPS_,"axG",@progbits,_ZN10GuiElement9SetParentEPS_,comdat
	.align 2
	.weak	_ZN10GuiElement9SetParentEPS_
	.type	_ZN10GuiElement9SetParentEPS_, @function
_ZN10GuiElement9SetParentEPS_:
.LFB1384:
	.file 1 "d:/Projects/SaveGameManager/savegame-manager-gx/trunk/source/Files/../GUI/gui_element.h"
	.loc 1 92 0
	.cfi_startproc
.LVL0:
	.loc 1 92 0
	stw 4,96(3)
	blr
	.cfi_endproc
.LFE1384:
	.size	_ZN10GuiElement9SetParentEPS_, .-_ZN10GuiElement9SetParentEPS_
	.section	.text._ZN10GuiElement9GetParentEv,"axG",@progbits,_ZN10GuiElement9GetParentEv,comdat
	.align 2
	.weak	_ZN10GuiElement9GetParentEv
	.type	_ZN10GuiElement9GetParentEv, @function
_ZN10GuiElement9GetParentEv:
.LFB1385:
	.loc 1 95 0
	.cfi_startproc
.LVL1:
	.loc 1 95 0
	lwz 3,96(3)
.LVL2:
	blr
	.cfi_endproc
.LFE1385:
	.size	_ZN10GuiElement9GetParentEv, .-_ZN10GuiElement9GetParentEv
	.section	.text._ZN10GuiElement12GetZPositionEv,"axG",@progbits,_ZN10GuiElement12GetZPositionEv,comdat
	.align 2
	.weak	_ZN10GuiElement12GetZPositionEv
	.type	_ZN10GuiElement12GetZPositionEv, @function
_ZN10GuiElement12GetZPositionEv:
.LFB1386:
	.loc 1 106 0
	.cfi_startproc
.LVL3:
	mflr 0
	stwu 1,-16(1)
.LCFI0:
	.cfi_def_cfa_offset 16
	.cfi_register 65, 0
	stw 31,12(1)
	mr 31,3
	.cfi_offset 31, -4
	stw 0,20(1)
.LBB1673:
	.loc 1 110 0
	lwz 11,96(3)
	.loc 1 108 0
	li 3,0
.LVL4:
	.loc 1 110 0
	cmpwi 7,11,0
	beq- 7,.L4
	.cfi_offset 65, 4
	.loc 1 111 0
	lwz 9,0(11)
	mr 3,11
	lwz 0,24(9)
	mtctr 0
	bctrl
.LVL5:
.L4:
	.loc 1 113 0
	lwz 0,52(31)
.LBE1673:
	.loc 1 114 0
	lwz 31,12(1)
.LVL6:
	add 3,3,0
.LVL7:
	lwz 0,20(1)
	addi 1,1,16
.LCFI1:
	.cfi_def_cfa_offset 0
	.cfi_restore 31
	mtlr 0
	blr
	.cfi_endproc
.LFE1386:
	.size	_ZN10GuiElement12GetZPositionEv, .-_ZN10GuiElement12GetZPositionEv
	.section	.text._ZN10GuiElement10GetLeftPosEv,"axG",@progbits,_ZN10GuiElement10GetLeftPosEv,comdat
	.align 2
	.weak	_ZN10GuiElement10GetLeftPosEv
	.type	_ZN10GuiElement10GetLeftPosEv, @function
_ZN10GuiElement10GetLeftPosEv:
.LFB1387:
	.loc 1 116 0
	.cfi_startproc
.LVL8:
	.loc 1 116 0
	lwz 3,44(3)
.LVL9:
	blr
	.cfi_endproc
.LFE1387:
	.size	_ZN10GuiElement10GetLeftPosEv, .-_ZN10GuiElement10GetLeftPosEv
	.section	.text._ZN10GuiElement9GetTopPosEv,"axG",@progbits,_ZN10GuiElement9GetTopPosEv,comdat
	.align 2
	.weak	_ZN10GuiElement9GetTopPosEv
	.type	_ZN10GuiElement9GetTopPosEv, @function
_ZN10GuiElement9GetTopPosEv:
.LFB1388:
	.loc 1 118 0
	.cfi_startproc
.LVL10:
	.loc 1 118 0
	lwz 3,48(3)
.LVL11:
	blr
	.cfi_endproc
.LFE1388:
	.size	_ZN10GuiElement9GetTopPosEv, .-_ZN10GuiElement9GetTopPosEv
	.section	.text._ZN10GuiElement8GetWidthEv,"axG",@progbits,_ZN10GuiElement8GetWidthEv,comdat
	.align 2
	.weak	_ZN10GuiElement8GetWidthEv
	.type	_ZN10GuiElement8GetWidthEv, @function
_ZN10GuiElement8GetWidthEv:
.LFB1389:
	.loc 1 121 0
	.cfi_startproc
.LVL12:
	.loc 1 121 0
	lwz 3,36(3)
.LVL13:
	blr
	.cfi_endproc
.LFE1389:
	.size	_ZN10GuiElement8GetWidthEv, .-_ZN10GuiElement8GetWidthEv
	.section	.text._ZN10GuiElement9GetHeightEv,"axG",@progbits,_ZN10GuiElement9GetHeightEv,comdat
	.align 2
	.weak	_ZN10GuiElement9GetHeightEv
	.type	_ZN10GuiElement9GetHeightEv, @function
_ZN10GuiElement9GetHeightEv:
.LFB1390:
	.loc 1 124 0
	.cfi_startproc
.LVL14:
	.loc 1 124 0
	lwz 3,40(3)
.LVL15:
	blr
	.cfi_endproc
.LFE1390:
	.size	_ZN10GuiElement9GetHeightEv, .-_ZN10GuiElement9GetHeightEv
	.section	.text._ZN10GuiElement7SetSizeEii,"axG",@progbits,_ZN10GuiElement7SetSizeEii,comdat
	.align 2
	.weak	_ZN10GuiElement7SetSizeEii
	.type	_ZN10GuiElement7SetSizeEii, @function
_ZN10GuiElement7SetSizeEii:
.LFB1391:
	.loc 1 128 0
	.cfi_startproc
.LVL16:
	.loc 1 130 0
	stw 4,36(3)
	.loc 1 132 0
	.loc 1 131 0
	stw 5,40(3)
	.loc 1 132 0
	blr
	.cfi_endproc
.LFE1391:
	.size	_ZN10GuiElement7SetSizeEii, .-_ZN10GuiElement7SetSizeEii
	.section	.text._ZN10GuiElement9IsVisibleEv,"axG",@progbits,_ZN10GuiElement9IsVisibleEv,comdat
	.align 2
	.weak	_ZN10GuiElement9IsVisibleEv
	.type	_ZN10GuiElement9IsVisibleEv, @function
_ZN10GuiElement9IsVisibleEv:
.LFB1393:
	.loc 1 142 0
	.cfi_startproc
.LVL17:
	.loc 1 142 0
	lbz 3,29(3)
.LVL18:
	blr
	.cfi_endproc
.LFE1393:
	.size	_ZN10GuiElement9IsVisibleEv, .-_ZN10GuiElement9IsVisibleEv
	.section	.text._ZN10GuiElement12IsSelectableEv,"axG",@progbits,_ZN10GuiElement12IsSelectableEv,comdat
	.align 2
	.weak	_ZN10GuiElement12IsSelectableEv
	.type	_ZN10GuiElement12IsSelectableEv, @function
_ZN10GuiElement12IsSelectableEv:
.LFB1394:
	.loc 1 145 0
	.cfi_startproc
.LVL19:
	.loc 1 149 0
	lwz 0,72(3)
	li 9,0
	cmpwi 7,0,4
	beq- 7,.L14
	.loc 1 149 0 is_stmt 0 discriminator 1
	cmpwi 7,0,2
	beq- 7,.L14
	.loc 1 149 0 discriminator 3
	lbz 9,30(3)
.L14:
	.loc 1 150 0 is_stmt 1 discriminator 5
	mr 3,9
.LVL20:
	blr
	.cfi_endproc
.LFE1394:
	.size	_ZN10GuiElement12IsSelectableEv, .-_ZN10GuiElement12IsSelectableEv
	.section	.text._ZN10GuiElement11IsClickableEv,"axG",@progbits,_ZN10GuiElement11IsClickableEv,comdat
	.align 2
	.weak	_ZN10GuiElement11IsClickableEv
	.type	_ZN10GuiElement11IsClickableEv, @function
_ZN10GuiElement11IsClickableEv:
.LFB1395:
	.loc 1 153 0
	.cfi_startproc
.LVL21:
	.loc 1 158 0
	lwz 0,72(3)
	li 9,0
	cmpwi 7,0,4
	beq- 7,.L18
	.loc 1 158 0 is_stmt 0 discriminator 1
	cmpwi 7,0,2
	beq- 7,.L18
	.loc 1 158 0 discriminator 3
	cmpwi 7,0,3
	beq- 7,.L18
	.loc 1 158 0 discriminator 4
	lbz 9,31(3)
.L18:
	.loc 1 159 0 is_stmt 1 discriminator 6
	mr 3,9
.LVL22:
	blr
	.cfi_endproc
.LFE1395:
	.size	_ZN10GuiElement11IsClickableEv, .-_ZN10GuiElement11IsClickableEv
	.section	.text._ZN10GuiElement10IsHoldableEv,"axG",@progbits,_ZN10GuiElement10IsHoldableEv,comdat
	.align 2
	.weak	_ZN10GuiElement10IsHoldableEv
	.type	_ZN10GuiElement10IsHoldableEv, @function
_ZN10GuiElement10IsHoldableEv:
.LFB1396:
	.loc 1 162 0
	.cfi_startproc
.LVL23:
	.loc 1 162 0
	lwz 9,72(3)
	li 0,0
	cmpwi 7,9,4
	beq- 7,.L23
	.loc 1 162 0 is_stmt 0 discriminator 1
	lbz 0,32(3)
.L23:
	.loc 1 162 0 discriminator 4
	mr 3,0
.LVL24:
	blr
	.cfi_endproc
.LFE1396:
	.size	_ZN10GuiElement10IsHoldableEv, .-_ZN10GuiElement10IsHoldableEv
	.section	.text._ZN10GuiElement13SetSelectableEb,"axG",@progbits,_ZN10GuiElement13SetSelectableEb,comdat
	.align 2
	.weak	_ZN10GuiElement13SetSelectableEb
	.type	_ZN10GuiElement13SetSelectableEb, @function
_ZN10GuiElement13SetSelectableEb:
.LFB1397:
	.loc 1 165 0 is_stmt 1
	.cfi_startproc
.LVL25:
	.loc 1 165 0
	stb 4,30(3)
	blr
	.cfi_endproc
.LFE1397:
	.size	_ZN10GuiElement13SetSelectableEb, .-_ZN10GuiElement13SetSelectableEb
	.section	.text._ZN10GuiElement12SetClickableEb,"axG",@progbits,_ZN10GuiElement12SetClickableEb,comdat
	.align 2
	.weak	_ZN10GuiElement12SetClickableEb
	.type	_ZN10GuiElement12SetClickableEb, @function
_ZN10GuiElement12SetClickableEb:
.LFB1398:
	.loc 1 168 0
	.cfi_startproc
.LVL26:
	.loc 1 168 0
	stb 4,31(3)
	blr
	.cfi_endproc
.LFE1398:
	.size	_ZN10GuiElement12SetClickableEb, .-_ZN10GuiElement12SetClickableEb
	.section	.text._ZN10GuiElement11SetHoldableEb,"axG",@progbits,_ZN10GuiElement11SetHoldableEb,comdat
	.align 2
	.weak	_ZN10GuiElement11SetHoldableEb
	.type	_ZN10GuiElement11SetHoldableEb, @function
_ZN10GuiElement11SetHoldableEb:
.LFB1399:
	.loc 1 171 0
	.cfi_startproc
.LVL27:
	.loc 1 171 0
	stb 4,32(3)
	blr
	.cfi_endproc
.LFE1399:
	.size	_ZN10GuiElement11SetHoldableEb, .-_ZN10GuiElement11SetHoldableEb
	.section	.text._ZN10GuiElement8GetStateEv,"axG",@progbits,_ZN10GuiElement8GetStateEv,comdat
	.align 2
	.weak	_ZN10GuiElement8GetStateEv
	.type	_ZN10GuiElement8GetStateEv, @function
_ZN10GuiElement8GetStateEv:
.LFB1400:
	.loc 1 178 0
	.cfi_startproc
.LVL28:
	.loc 1 178 0
	lwz 3,72(3)
.LVL29:
	blr
	.cfi_endproc
.LFE1400:
	.size	_ZN10GuiElement8GetStateEv, .-_ZN10GuiElement8GetStateEv
	.section	.text._ZN10GuiElement12GetStateChanEv,"axG",@progbits,_ZN10GuiElement12GetStateChanEv,comdat
	.align 2
	.weak	_ZN10GuiElement12GetStateChanEv
	.type	_ZN10GuiElement12GetStateChanEv, @function
_ZN10GuiElement12GetStateChanEv:
.LFB1401:
	.loc 1 181 0
	.cfi_startproc
.LVL30:
	.loc 1 181 0
	lwz 3,76(3)
.LVL31:
	blr
	.cfi_endproc
.LFE1401:
	.size	_ZN10GuiElement12GetStateChanEv, .-_ZN10GuiElement12GetStateChanEv
	.section	.text._ZN10GuiElement8SetAlphaEi,"axG",@progbits,_ZN10GuiElement8SetAlphaEi,comdat
	.align 2
	.weak	_ZN10GuiElement8SetAlphaEi
	.type	_ZN10GuiElement8SetAlphaEi, @function
_ZN10GuiElement8SetAlphaEi:
.LFB1403:
	.loc 1 190 0
	.cfi_startproc
.LVL32:
	.loc 1 190 0
	stw 4,56(3)
	blr
	.cfi_endproc
.LFE1403:
	.size	_ZN10GuiElement8SetAlphaEi, .-_ZN10GuiElement8SetAlphaEi
	.section	.text._ZN10GuiElement8GetAlphaEv,"axG",@progbits,_ZN10GuiElement8GetAlphaEv,comdat
	.align 2
	.weak	_ZN10GuiElement8GetAlphaEv
	.type	_ZN10GuiElement8GetAlphaEv, @function
_ZN10GuiElement8GetAlphaEv:
.LFB1404:
	.loc 1 194 0
	.cfi_startproc
.LVL33:
	mflr 0
	stwu 1,-40(1)
.LCFI2:
	.cfi_def_cfa_offset 40
	.cfi_register 65, 0
	stw 31,36(1)
	stw 0,44(1)
.LBB1674:
	.loc 1 198 0
	lwz 31,108(3)
	.cfi_offset 65, 4
	.cfi_offset 31, -4
	cmpwi 7,31,0
	blt- 7,.L34
.L32:
.LVL34:
	.loc 1 203 0
	lwz 3,96(3)
.LVL35:
	cmpwi 7,3,0
	beq- 7,.L33
	.loc 1 204 0
	lwz 9,0(3)
	xoris 31,31,0x8000
.LVL36:
	lwz 0,100(9)
	mtctr 0
	bctrl
	lis 0,0x4330
	xoris 3,3,0x8000
	stw 0,16(1)
	stw 3,20(1)
	lis 9,.LC1@ha
	lfs 0,.LC1@l(9)
	lis 9,.LC2@ha
	lfd 13,16(1)
	lfs 12,.LC2@l(9)
	addi 9,1,24
	fsub 13,13,0
	stw 31,12(1)
	stw 0,8(1)
	frsp 13,13
	fdivs 13,13,12
	lfd 12,8(1)
	fsub 0,12,0
	frsp 0,0
	fmuls 0,0,13
	fctiwz 0,0
	stfiwx 0,0,9
	lwz 31,24(1)
.LVL37:
.L33:
.LBE1674:
	.loc 1 207 0
	lwz 0,44(1)
	mr 3,31
	lwz 31,36(1)
.LVL38:
	mtlr 0
	addi 1,1,40
	.cfi_remember_state
.LCFI3:
	.cfi_def_cfa_offset 0
	.cfi_restore 31
	blr
.LVL39:
.L34:
.LCFI4:
	.cfi_restore_state
.LBB1675:
	.loc 1 201 0
	lwz 31,56(3)
.LVL40:
	b .L32
.LBE1675:
	.cfi_endproc
.LFE1404:
	.size	_ZN10GuiElement8GetAlphaEv, .-_ZN10GuiElement8GetAlphaEv
	.section	.text._ZN10GuiElement8SetScaleEf,"axG",@progbits,_ZN10GuiElement8SetScaleEf,comdat
	.align 2
	.weak	_ZN10GuiElement8SetScaleEf
	.type	_ZN10GuiElement8SetScaleEf, @function
_ZN10GuiElement8SetScaleEf:
.LFB1405:
	.loc 1 210 0
	.cfi_startproc
.LVL41:
	.loc 1 212 0
	stfs 1,60(3)
	.loc 1 214 0
	.loc 1 213 0
	stfs 1,64(3)
	.loc 1 214 0
	blr
	.cfi_endproc
.LFE1405:
	.size	_ZN10GuiElement8SetScaleEf, .-_ZN10GuiElement8SetScaleEf
	.section	.text._ZN10GuiElement9SetScaleXEf,"axG",@progbits,_ZN10GuiElement9SetScaleXEf,comdat
	.align 2
	.weak	_ZN10GuiElement9SetScaleXEf
	.type	_ZN10GuiElement9SetScaleXEf, @function
_ZN10GuiElement9SetScaleXEf:
.LFB1406:
	.loc 1 217 0
	.cfi_startproc
.LVL42:
	.loc 1 217 0
	stfs 1,60(3)
	blr
	.cfi_endproc
.LFE1406:
	.size	_ZN10GuiElement9SetScaleXEf, .-_ZN10GuiElement9SetScaleXEf
	.section	.text._ZN10GuiElement9SetScaleYEf,"axG",@progbits,_ZN10GuiElement9SetScaleYEf,comdat
	.align 2
	.weak	_ZN10GuiElement9SetScaleYEf
	.type	_ZN10GuiElement9SetScaleYEf, @function
_ZN10GuiElement9SetScaleYEf:
.LFB1407:
	.loc 1 220 0
	.cfi_startproc
.LVL43:
	.loc 1 220 0
	stfs 1,64(3)
	blr
	.cfi_endproc
.LFE1407:
	.size	_ZN10GuiElement9SetScaleYEf, .-_ZN10GuiElement9SetScaleYEf
	.section	.text._ZN10GuiElement8GetScaleEv,"axG",@progbits,_ZN10GuiElement8GetScaleEv,comdat
	.align 2
	.weak	_ZN10GuiElement8GetScaleEv
	.type	_ZN10GuiElement8GetScaleEv, @function
_ZN10GuiElement8GetScaleEv:
.LFB1408:
	.loc 1 223 0
	.cfi_startproc
.LVL44:
	mflr 0
	stwu 1,-16(1)
.LCFI5:
	.cfi_def_cfa_offset 16
	.cfi_register 65, 0
.LBB1676:
	.loc 1 225 0
	lis 9,.LC3@ha
.LBE1676:
	.loc 1 223 0
	stfd 31,8(1)
	stw 0,20(1)
.LBB1677:
	.loc 1 225 0
	lfs 0,64(3)
	lfs 31,60(3)
	.cfi_offset 65, 4
	.cfi_offset 63, -8
	.loc 1 227 0
	lwz 11,96(3)
	.loc 1 225 0
	fadds 31,31,0
	lfs 0,.LC3@l(9)
	.loc 1 227 0
	cmpwi 7,11,0
	.loc 1 225 0
	fmuls 31,31,0
	lfs 0,112(3)
	fmuls 31,31,0
.LVL45:
	.loc 1 227 0
	beq- 7,.L39
	.loc 1 228 0
	lwz 9,0(11)
	mr 3,11
.LVL46:
	lwz 0,116(9)
	mtctr 0
	bctrl
	fmuls 31,31,1
.LVL47:
.L39:
.LBE1677:
	.loc 1 231 0
	lwz 0,20(1)
	fmr 1,31
	lfd 31,8(1)
.LVL48:
	mtlr 0
	addi 1,1,16
.LCFI6:
	.cfi_def_cfa_offset 0
	.cfi_restore 63
	blr
	.cfi_endproc
.LFE1408:
	.size	_ZN10GuiElement8GetScaleEv, .-_ZN10GuiElement8GetScaleEv
	.section	.text._ZN10GuiElement9GetScaleXEv,"axG",@progbits,_ZN10GuiElement9GetScaleXEv,comdat
	.align 2
	.weak	_ZN10GuiElement9GetScaleXEv
	.type	_ZN10GuiElement9GetScaleXEv, @function
_ZN10GuiElement9GetScaleXEv:
.LFB1409:
	.loc 1 234 0
	.cfi_startproc
.LVL49:
	mflr 0
	stwu 1,-16(1)
.LCFI7:
	.cfi_def_cfa_offset 16
	.cfi_register 65, 0
	stfd 31,8(1)
	stw 0,20(1)
.LBB1678:
	.loc 1 238 0
	lwz 11,96(3)
	.loc 1 236 0
	lfs 31,60(3)
	.cfi_offset 65, 4
	.cfi_offset 63, -8
	.loc 1 238 0
	cmpwi 7,11,0
	.loc 1 236 0
	lfs 0,112(3)
	fmuls 31,31,0
.LVL50:
	.loc 1 238 0
	beq- 7,.L41
	.loc 1 239 0
	lwz 9,0(11)
	mr 3,11
.LVL51:
	lwz 0,120(9)
	mtctr 0
	bctrl
	fmuls 31,31,1
.LVL52:
.L41:
.LBE1678:
	.loc 1 242 0
	lwz 0,20(1)
	fmr 1,31
	lfd 31,8(1)
.LVL53:
	mtlr 0
	addi 1,1,16
.LCFI8:
	.cfi_def_cfa_offset 0
	.cfi_restore 63
	blr
	.cfi_endproc
.LFE1409:
	.size	_ZN10GuiElement9GetScaleXEv, .-_ZN10GuiElement9GetScaleXEv
	.section	.text._ZN10GuiElement9GetScaleYEv,"axG",@progbits,_ZN10GuiElement9GetScaleYEv,comdat
	.align 2
	.weak	_ZN10GuiElement9GetScaleYEv
	.type	_ZN10GuiElement9GetScaleYEv, @function
_ZN10GuiElement9GetScaleYEv:
.LFB1410:
	.loc 1 245 0
	.cfi_startproc
.LVL54:
	mflr 0
	stwu 1,-16(1)
.LCFI9:
	.cfi_def_cfa_offset 16
	.cfi_register 65, 0
	stfd 31,8(1)
	stw 0,20(1)
.LBB1679:
	.loc 1 249 0
	lwz 11,96(3)
	.loc 1 247 0
	lfs 31,64(3)
	.cfi_offset 65, 4
	.cfi_offset 63, -8
	.loc 1 249 0
	cmpwi 7,11,0
	.loc 1 247 0
	lfs 0,112(3)
	fmuls 31,31,0
.LVL55:
	.loc 1 249 0
	beq- 7,.L43
	.loc 1 250 0
	lwz 9,0(11)
	mr 3,11
.LVL56:
	lwz 0,124(9)
	mtctr 0
	bctrl
	fmuls 31,31,1
.LVL57:
.L43:
.LBE1679:
	.loc 1 253 0
	lwz 0,20(1)
	fmr 1,31
	lfd 31,8(1)
.LVL58:
	mtlr 0
	addi 1,1,16
.LCFI10:
	.cfi_def_cfa_offset 0
	.cfi_restore 63
	blr
	.cfi_endproc
.LFE1410:
	.size	_ZN10GuiElement9GetScaleYEv, .-_ZN10GuiElement9GetScaleYEv
	.section	.text._ZN10GuiElement6RumbleEv,"axG",@progbits,_ZN10GuiElement6RumbleEv,comdat
	.align 2
	.weak	_ZN10GuiElement6RumbleEv
	.type	_ZN10GuiElement6RumbleEv, @function
_ZN10GuiElement6RumbleEv:
.LFB1411:
	.loc 1 256 0
	.cfi_startproc
.LVL59:
	.loc 1 256 0
	lbz 3,28(3)
.LVL60:
	blr
	.cfi_endproc
.LFE1411:
	.size	_ZN10GuiElement6RumbleEv, .-_ZN10GuiElement6RumbleEv
	.section	.text._ZN10GuiElement9SetRumbleEb,"axG",@progbits,_ZN10GuiElement9SetRumbleEb,comdat
	.align 2
	.weak	_ZN10GuiElement9SetRumbleEb
	.type	_ZN10GuiElement9SetRumbleEb, @function
_ZN10GuiElement9SetRumbleEb:
.LFB1412:
	.loc 1 259 0
	.cfi_startproc
.LVL61:
	.loc 1 259 0
	stb 4,28(3)
	blr
	.cfi_endproc
.LFE1412:
	.size	_ZN10GuiElement9SetRumbleEb, .-_ZN10GuiElement9SetRumbleEb
	.section	.text._ZN10GuiElement13SetEffectGrowEv,"axG",@progbits,_ZN10GuiElement13SetEffectGrowEv,comdat
	.align 2
	.weak	_ZN10GuiElement13SetEffectGrowEv
	.type	_ZN10GuiElement13SetEffectGrowEv, @function
_ZN10GuiElement13SetEffectGrowEv:
.LFB1413:
	.loc 1 271 0
	.cfi_startproc
.LVL62:
	mflr 0
	stwu 1,-8(1)
.LCFI11:
	.cfi_def_cfa_offset 8
	.cfi_register 65, 0
	lwz 9,0(3)
	li 4,256
	li 5,4
	li 6,110
	stw 0,12(1)
	.loc 1 271 0
	lwz 0,140(9)
	.cfi_offset 65, 4
	mtctr 0
	bctrl
.LVL63:
	lwz 0,12(1)
	addi 1,1,8
.LCFI12:
	.cfi_def_cfa_offset 0
	mtlr 0
	blr
	.cfi_endproc
.LFE1413:
	.size	_ZN10GuiElement13SetEffectGrowEv, .-_ZN10GuiElement13SetEffectGrowEv
	.section	.text._ZNK10GuiElement9GetEffectEv,"axG",@progbits,_ZNK10GuiElement9GetEffectEv,comdat
	.align 2
	.weak	_ZNK10GuiElement9GetEffectEv
	.type	_ZNK10GuiElement9GetEffectEv, @function
_ZNK10GuiElement9GetEffectEv:
.LFB1414:
	.loc 1 276 0
	.cfi_startproc
.LVL64:
	.loc 1 276 0
	lwz 3,120(3)
.LVL65:
	blr
	.cfi_endproc
.LFE1414:
	.size	_ZNK10GuiElement9GetEffectEv, .-_ZNK10GuiElement9GetEffectEv
	.section	.text._ZNK10GuiElement10IsAnimatedEv,"axG",@progbits,_ZNK10GuiElement10IsAnimatedEv,comdat
	.align 2
	.weak	_ZNK10GuiElement10IsAnimatedEv
	.type	_ZNK10GuiElement10IsAnimatedEv, @function
_ZNK10GuiElement10IsAnimatedEv:
.LFB1415:
	.loc 1 278 0
	.cfi_startproc
.LVL66:
	mflr 0
	stwu 1,-8(1)
.LCFI13:
	.cfi_def_cfa_offset 8
	.cfi_register 65, 0
	stw 0,12(1)
	.loc 1 278 0
	lwz 9,0(3)
	lwz 0,152(9)
	.cfi_offset 65, 4
	mtctr 0
	bctrl
.LVL67:
	srawi 0,3,31
	subf 3,3,0
	lwz 0,12(1)
	srwi 3,3,31
	mtlr 0
	addi 1,1,8
.LCFI14:
	.cfi_def_cfa_offset 0
	blr
	.cfi_endproc
.LFE1415:
	.size	_ZNK10GuiElement10IsAnimatedEv, .-_ZNK10GuiElement10IsAnimatedEv
	.section	.text._ZN10GuiElement8IsInsideEii,"axG",@progbits,_ZN10GuiElement8IsInsideEii,comdat
	.align 2
	.weak	_ZN10GuiElement8IsInsideEii
	.type	_ZN10GuiElement8IsInsideEii, @function
_ZN10GuiElement8IsInsideEii:
.LFB1417:
	.loc 1 285 0
	.cfi_startproc
.LVL68:
	mflr 0
	stwu 1,-24(1)
.LCFI15:
	.cfi_def_cfa_offset 24
	.cfi_register 65, 0
	stw 28,8(1)
	mr 28,5
	.cfi_offset 28, -16
	stw 0,28(1)
	stw 29,12(1)
	.loc 1 290 0
	li 29,0
	.cfi_offset 29, -12
	.cfi_offset 65, 4
	.loc 1 287 0
	lwz 9,0(3)
	.loc 1 285 0
	stw 30,16(1)
	mr 30,4
	.cfi_offset 30, -8
	.loc 1 287 0
	lwz 0,16(9)
	.loc 1 285 0
	stw 31,20(1)
	.loc 1 285 0
	mr 31,3
	.cfi_offset 31, -4
	.loc 1 287 0
	mtctr 0
	bctrl
.LVL69:
	.loc 1 290 0
	cmpw 7,3,30
	blt- 7,.L54
.L50:
	.loc 1 291 0 discriminator 6
	lwz 0,28(1)
	mr 3,29
	lwz 28,8(1)
.LVL70:
	mtlr 0
	lwz 29,12(1)
	lwz 30,16(1)
.LVL71:
	lwz 31,20(1)
.LVL72:
	addi 1,1,24
	.cfi_remember_state
.LCFI16:
	.cfi_def_cfa_offset 0
	.cfi_restore 31
	.cfi_restore 30
	.cfi_restore 29
	.cfi_restore 28
	blr
.LVL73:
.L54:
.LCFI17:
	.cfi_restore_state
	.loc 1 288 0 discriminator 1
	lwz 9,0(31)
	mr 3,31
	lwz 0,16(9)
	mtctr 0
	bctrl
	.loc 1 290 0 discriminator 1
	lwz 0,36(31)
	add 0,3,0
	cmpw 7,30,0
	bge+ 7,.L50
	.loc 1 289 0 discriminator 3
	lwz 9,0(31)
	mr 3,31
	lwz 0,20(9)
	mtctr 0
	bctrl
	.loc 1 290 0 discriminator 3
	cmpw 7,3,28
	bge+ 7,.L50
	.loc 1 290 0 is_stmt 0 discriminator 4
	lwz 9,0(31)
	mr 3,31
	lwz 0,20(9)
	mtctr 0
	bctrl
	lwz 0,40(31)
	add 0,3,0
	.loc 1 285 0 is_stmt 1 discriminator 4
	cmpw 7,28,0
	mfcr 29
	rlwinm 29,29,29,1
	b .L50
	.cfi_endproc
.LFE1417:
	.size	_ZN10GuiElement8IsInsideEii, .-_ZN10GuiElement8IsInsideEii
	.section	.text._ZN10GuiElement11SetPositionEii,"axG",@progbits,_ZN10GuiElement11SetPositionEii,comdat
	.align 2
	.weak	_ZN10GuiElement11SetPositionEii
	.type	_ZN10GuiElement11SetPositionEii, @function
_ZN10GuiElement11SetPositionEii:
.LFB1418:
	.loc 1 295 0
	.cfi_startproc
.LVL74:
	.loc 1 297 0
	stw 4,44(3)
	.loc 1 299 0
	.loc 1 298 0
	stw 5,48(3)
	.loc 1 299 0
	blr
	.cfi_endproc
.LFE1418:
	.size	_ZN10GuiElement11SetPositionEii, .-_ZN10GuiElement11SetPositionEii
	.section	.text._ZN10GuiElement11SetPositionEiii,"axG",@progbits,_ZN10GuiElement11SetPositionEiii,comdat
	.align 2
	.weak	_ZN10GuiElement11SetPositionEiii
	.type	_ZN10GuiElement11SetPositionEiii, @function
_ZN10GuiElement11SetPositionEiii:
.LFB1419:
	.loc 1 304 0
	.cfi_startproc
.LVL75:
	.loc 1 306 0
	stw 4,44(3)
	.loc 1 309 0
	.loc 1 307 0
	stw 5,48(3)
	.loc 1 308 0
	stw 6,52(3)
	.loc 1 309 0
	blr
	.cfi_endproc
.LFE1419:
	.size	_ZN10GuiElement11SetPositionEiii, .-_ZN10GuiElement11SetPositionEiii
	.section	.text._ZN10GuiElement12SetAlignmentEi,"axG",@progbits,_ZN10GuiElement12SetAlignmentEi,comdat
	.align 2
	.weak	_ZN10GuiElement12SetAlignmentEi
	.type	_ZN10GuiElement12SetAlignmentEi, @function
_ZN10GuiElement12SetAlignmentEi:
.LFB1421:
	.loc 1 316 0
	.cfi_startproc
.LVL76:
	.loc 1 316 0
	stw 4,68(3)
	blr
	.cfi_endproc
.LFE1421:
	.size	_ZN10GuiElement12SetAlignmentEi, .-_ZN10GuiElement12SetAlignmentEi
	.section	.text._ZNK10GuiElement12GetAlignmentEv,"axG",@progbits,_ZNK10GuiElement12GetAlignmentEv,comdat
	.align 2
	.weak	_ZNK10GuiElement12GetAlignmentEv
	.type	_ZNK10GuiElement12GetAlignmentEv, @function
_ZNK10GuiElement12GetAlignmentEv:
.LFB1422:
	.loc 1 318 0
	.cfi_startproc
.LVL77:
	.loc 1 318 0
	lwz 3,68(3)
.LVL78:
	blr
	.cfi_endproc
.LFE1422:
	.size	_ZNK10GuiElement12GetAlignmentEv, .-_ZNK10GuiElement12GetAlignmentEv
	.section	.text._ZN8GuiFrame4showEv,"axG",@progbits,_ZN8GuiFrame4showEv,comdat
	.align 2
	.weak	_ZN8GuiFrame4showEv
	.type	_ZN8GuiFrame4showEv, @function
_ZN8GuiFrame4showEv:
.LFB1431:
	.file 2 "d:/Projects/SaveGameManager/savegame-manager-gx/trunk/source/Files/../GUI/gui_frame.h"
	.loc 2 79 0
	.cfi_startproc
.LVL79:
	.loc 2 79 0
	blr
	.cfi_endproc
.LFE1431:
	.size	_ZN8GuiFrame4showEv, .-_ZN8GuiFrame4showEv
	.section	.text._ZN8GuiFrame4hideEv,"axG",@progbits,_ZN8GuiFrame4hideEv,comdat
	.align 2
	.weak	_ZN8GuiFrame4hideEv
	.type	_ZN8GuiFrame4hideEv, @function
_ZN8GuiFrame4hideEv:
.LFB1432:
	.loc 2 81 0
	.cfi_startproc
.LVL80:
	.loc 2 81 0
	blr
	.cfi_endproc
.LFE1432:
	.size	_ZN8GuiFrame4hideEv, .-_ZN8GuiFrame4hideEv
	.section	.text._ZN8GuiFrame4execEv,"axG",@progbits,_ZN8GuiFrame4execEv,comdat
	.align 2
	.weak	_ZN8GuiFrame4execEv
	.type	_ZN8GuiFrame4execEv, @function
_ZN8GuiFrame4execEv:
.LFB1433:
	.loc 2 83 0
	.cfi_startproc
.LVL81:
	.loc 2 83 0
	blr
	.cfi_endproc
.LFE1433:
	.size	_ZN8GuiFrame4execEv, .-_ZN8GuiFrame4execEv
	.section	.text._ZN8GuiFrame12updateEventsEv,"axG",@progbits,_ZN8GuiFrame12updateEventsEv,comdat
	.align 2
	.weak	_ZN8GuiFrame12updateEventsEv
	.type	_ZN8GuiFrame12updateEventsEv, @function
_ZN8GuiFrame12updateEventsEv:
.LFB1434:
	.loc 2 85 0
	.cfi_startproc
.LVL82:
	.loc 2 85 0
	blr
	.cfi_endproc
.LFE1434:
	.size	_ZN8GuiFrame12updateEventsEv, .-_ZN8GuiFrame12updateEventsEv
	.section	".text"
	.align 2
	.globl _ZN11InfosWindowD2Ev
	.type	_ZN11InfosWindowD2Ev, @function
_ZN11InfosWindowD2Ev:
.LFB1566:
	.file 3 "d:/Projects/SaveGameManager/savegame-manager-gx/trunk/source/Files/ListInfosWindow.cpp"
	.loc 3 66 0
	.cfi_startproc
	.cfi_personality 0,__gxx_personality_v0
	.cfi_lsda 0,.LLSDA1566
.LVL83:
	mflr 0
	stwu 1,-32(1)
.LCFI18:
	.cfi_def_cfa_offset 32
	.cfi_register 65, 0
.LBB1723:
	lis 9,_ZTV11InfosWindow+8@ha
.LBE1723:
	stw 31,28(1)
	mr 31,3
	.cfi_offset 31, -4
	stw 0,36(1)
.LBB1764:
	la 0,_ZTV11InfosWindow+8@l(9)
	.cfi_offset 65, 4
.LBE1764:
	stw 30,24(1)
.LBB1765:
	.loc 3 66 0
	stw 0,0(3)
.LEHB0:
	.loc 3 68 0
	.cfi_offset 30, -8
	bl _ZN8GuiFrame9RemoveAllEv
.LVL84:
	.loc 3 70 0
	lwz 3,192(31)
	cmpwi 7,3,0
	beq- 7,.L64
	.loc 3 70 0 is_stmt 0 discriminator 1
	lwz 9,0(3)
	lwz 0,4(9)
	mtctr 0
	bctrl
.L64:
	.loc 3 71 0 is_stmt 1
	lwz 3,196(31)
	cmpwi 7,3,0
	beq- 7,.L65
	.loc 3 71 0 is_stmt 0 discriminator 1
	lwz 9,0(3)
	lwz 0,4(9)
	mtctr 0
	bctrl
.L65:
	.loc 3 72 0 is_stmt 1
	lwz 3,200(31)
	cmpwi 7,3,0
	beq- 7,.L66
	.loc 3 72 0 is_stmt 0 discriminator 1
	lwz 9,0(3)
	lwz 0,4(9)
	mtctr 0
	bctrl
.L66:
	.loc 3 73 0 is_stmt 1
	lwz 3,204(31)
	cmpwi 7,3,0
	beq- 7,.L67
	.loc 3 73 0 is_stmt 0 discriminator 1
	lwz 9,0(3)
	lwz 0,4(9)
	mtctr 0
	bctrl
.L67:
	.loc 3 74 0 is_stmt 1
	lwz 3,208(31)
	cmpwi 7,3,0
	beq- 7,.L68
	.loc 3 74 0 is_stmt 0 discriminator 1
	lwz 9,0(3)
	lwz 0,4(9)
	mtctr 0
	bctrl
.L68:
	.loc 3 75 0 is_stmt 1
	lwz 3,212(31)
	cmpwi 7,3,0
	beq- 7,.L69
	.loc 3 75 0 is_stmt 0 discriminator 1
	lwz 9,0(3)
	lwz 0,4(9)
	mtctr 0
	bctrl
.L69:
	.loc 3 76 0 is_stmt 1
	lwz 3,216(31)
	cmpwi 7,3,0
	beq- 7,.L70
	.loc 3 76 0 is_stmt 0 discriminator 1
	lwz 9,0(3)
	lwz 0,4(9)
	mtctr 0
	bctrl
.L70:
	.loc 3 78 0 is_stmt 1
	lwz 3,220(31)
	bl _ZN9Resources6RemoveEP12GuiImageData
	.loc 3 79 0
	lwz 3,224(31)
	bl _ZN9Resources6RemoveEP12GuiImageData
	.loc 3 80 0
	lwz 3,228(31)
	bl _ZN9Resources6RemoveEP12GuiImageData
	.loc 3 81 0
	lwz 3,232(31)
	bl _ZN9Resources6RemoveEP12GuiImageData
	.loc 3 82 0
	lwz 3,236(31)
	bl _ZN9Resources6RemoveEP12GuiImageData
	.loc 3 83 0
	lwz 3,240(31)
	bl _ZN9Resources6RemoveEP12GuiImageData
	.loc 3 84 0
	lwz 3,244(31)
	bl _ZN9Resources6RemoveEP12GuiImageData
	.loc 3 85 0
	lwz 3,248(31)
	bl _ZN9Resources6RemoveEP12GuiImageData
	.loc 3 86 0
	lwz 3,252(31)
	bl _ZN9Resources6RemoveEP12GuiImageData
	.loc 3 87 0
	lwz 3,256(31)
	bl _ZN9Resources6RemoveEP12GuiImageData
	.loc 3 88 0
	lwz 3,260(31)
	bl _ZN9Resources6RemoveEP12GuiImageData
	.loc 3 89 0
	lwz 3,264(31)
	bl _ZN9Resources6RemoveEP12GuiImageData
	.loc 3 90 0
	lwz 3,268(31)
	bl _ZN9Resources6RemoveEP12GuiImageData
	.loc 3 91 0
	lwz 3,272(31)
	bl _ZN9Resources6RemoveEP12GuiImageData
	.loc 3 93 0
	lwz 3,276(31)
	bl _ZN9Resources6RemoveEP12GuiImageData
	.loc 3 94 0
	lwz 3,280(31)
	bl _ZN9Resources6RemoveEP12GuiImageData
	.loc 3 95 0
	lwz 3,284(31)
	bl _ZN9Resources6RemoveEP12GuiImageData
	.loc 3 96 0
	lwz 3,288(31)
	bl _ZN9Resources6RemoveEP12GuiImageData
	.loc 3 97 0
	lwz 3,292(31)
	bl _ZN9Resources6RemoveEP12GuiImageData
	.loc 3 98 0
	lwz 3,296(31)
	bl _ZN9Resources6RemoveEP12GuiImageData
	.loc 3 99 0
	lwz 3,300(31)
	bl _ZN9Resources6RemoveEP12GuiImageData
	.loc 3 100 0
	lwz 3,304(31)
	bl _ZN9Resources6RemoveEP12GuiImageData
	.loc 3 101 0
	lwz 3,308(31)
	bl _ZN9Resources6RemoveEP12GuiImageData
	.loc 3 102 0
	lwz 3,312(31)
	bl _ZN9Resources6RemoveEP12GuiImageData
	.loc 3 103 0
	lwz 3,316(31)
	bl _ZN9Resources6RemoveEP12GuiImageData
	.loc 3 104 0
	lwz 3,320(31)
	bl _ZN9Resources6RemoveEP12GuiImageData
	.loc 3 105 0
	lwz 3,324(31)
	bl _ZN9Resources6RemoveEP12GuiImageData
	.loc 3 106 0
	lwz 3,328(31)
	bl _ZN9Resources6RemoveEP12GuiImageData
.LEHE0:
.LVL85:
.LBB1724:
.LBB1725:
.LBB1726:
.LBB1727:
.LBB1728:
.LBB1729:
	.file 4 "d:\\devkitpro\\devkitppc\\bin\\../lib/gcc/powerpc-eabi/4.6.3/../../../../powerpc-eabi/include/c++/4.6.3/bits/basic_string.h"
	.loc 4 288 0
	lwz 9,188(31)
.LBE1729:
.LBE1728:
.LBE1727:
.LBB1730:
.LBB1731:
	.loc 4 235 0
	lis 30,_ZNSs4_Rep20_S_empty_rep_storageE@ha
	la 30,_ZNSs4_Rep20_S_empty_rep_storageE@l(30)
.LBE1731:
.LBE1730:
	.loc 4 534 0
	addi 3,9,-12
.LVL86:
.LBB1740:
.LBB1738:
	.loc 4 235 0
	cmpw 7,3,30
	bne- 7,.L86
.LVL87:
.L76:
.LBE1738:
.LBE1740:
.LBE1726:
.LBE1725:
.LBE1724:
.LBB1744:
.LBB1745:
.LBB1746:
.LBB1747:
.LBB1748:
.LBB1749:
	.loc 4 288 0
	lwz 9,184(31)
.LBE1749:
.LBE1748:
.LBE1747:
	.loc 4 534 0
	addi 3,9,-12
.LVL88:
.LBB1750:
.LBB1751:
	.loc 4 235 0
	cmpw 7,3,30
	bne- 7,.L87
.LVL89:
.L82:
.LBE1751:
.LBE1750:
.LBE1746:
.LBE1745:
.LBE1744:
	.loc 3 66 0
	mr 3,31
.LEHB1:
	bl _ZN8GuiFrameD2Ev
.LEHE1:
.LBE1765:
	.loc 3 107 0
	lwz 0,36(1)
	lwz 30,24(1)
	mtlr 0
	lwz 31,28(1)
.LVL90:
	addi 1,1,32
	.cfi_remember_state
.LCFI19:
	.cfi_def_cfa_offset 0
	.cfi_restore 31
	.cfi_restore 30
	blr
.LVL91:
.L86:
.LCFI20:
	.cfi_restore_state
.LBB1766:
.LBB1762:
.LBB1743:
.LBB1742:
.LBB1741:
.LBB1739:
.LBB1732:
.LBB1733:
.LBB1734:
	.file 5 "d:\\devkitpro\\devkitppc\\bin\\../lib/gcc/powerpc-eabi/4.6.3/../../../../powerpc-eabi/include/c++/4.6.3/ext/atomicity.h"
	.loc 5 66 0
	lwz 11,-4(9)
.LVL92:
.LBE1734:
.LBE1733:
.LBE1732:
	.loc 4 240 0
	cmpwi 7,11,0
.LBB1737:
.LBB1736:
.LBB1735:
	.loc 5 67 0
	addi 11,11,-1
	stw 11,-4(9)
.LBE1735:
.LBE1736:
.LBE1737:
	.loc 4 240 0
	bgt+ 7,.L76
	.loc 4 244 0
	addi 4,1,9
	bl _ZNSs4_Rep10_M_destroyERKSaIcE
.LVL93:
	b .L76
.LVL94:
.L87:
.LBE1739:
.LBE1741:
.LBE1742:
.LBE1743:
.LBE1762:
.LBB1763:
.LBB1761:
.LBB1760:
.LBB1759:
.LBB1758:
.LBB1752:
.LBB1753:
.LBB1754:
	.loc 5 66 0
	lwz 11,-4(9)
.LVL95:
.LBE1754:
.LBE1753:
.LBE1752:
	.loc 4 240 0
	cmpwi 7,11,0
.LBB1757:
.LBB1756:
.LBB1755:
	.loc 5 67 0
	addi 11,11,-1
	stw 11,-4(9)
.LBE1755:
.LBE1756:
.LBE1757:
	.loc 4 240 0
	bgt+ 7,.L82
	.loc 4 244 0
	addi 4,1,8
	bl _ZNSs4_Rep10_M_destroyERKSaIcE
.LVL96:
	b .L82
.LVL97:
.L85:
	mr 30,3
.LBE1758:
.LBE1759:
.LBE1760:
.LBE1761:
.LBE1763:
	.loc 3 66 0
	addi 3,31,188
	bl _ZNSsD1Ev
	addi 3,31,184
	bl _ZNSsD1Ev
	mr 3,31
	bl _ZN8GuiFrameD2Ev
	mr 3,30
.LEHB2:
	bl _Unwind_Resume
.LEHE2:
.LBE1766:
	.cfi_endproc
.LFE1566:
	.globl __gxx_personality_v0
	.section	.gcc_except_table,"a",@progbits
.LLSDA1566:
	.byte	0xff
	.byte	0xff
	.byte	0x1
	.uleb128 .LLSDACSE1566-.LLSDACSB1566
.LLSDACSB1566:
	.uleb128 .LEHB0-.LFB1566
	.uleb128 .LEHE0-.LEHB0
	.uleb128 .L85-.LFB1566
	.uleb128 0
	.uleb128 .LEHB1-.LFB1566
	.uleb128 .LEHE1-.LEHB1
	.uleb128 0
	.uleb128 0
	.uleb128 .LEHB2-.LFB1566
	.uleb128 .LEHE2-.LEHB2
	.uleb128 0
	.uleb128 0
.LLSDACSE1566:
	.section	".text"
	.size	_ZN11InfosWindowD2Ev, .-_ZN11InfosWindowD2Ev
	.align 2
	.globl _ZN11InfosWindowD0Ev
	.type	_ZN11InfosWindowD0Ev, @function
_ZN11InfosWindowD0Ev:
.LFB1568:
	.loc 3 66 0
	.cfi_startproc
.LVL98:
	stwu 1,-16(1)
.LCFI21:
	.cfi_def_cfa_offset 16
	mflr 0
	stw 31,12(1)
	mr 31,3
	.cfi_offset 31, -4
	.cfi_register 65, 0
	stw 0,20(1)
	.loc 3 107 0
	.cfi_offset 65, 4
	bl _ZN11InfosWindowD1Ev
.LVL99:
	mr 3,31
	bl _ZdlPv
	lwz 0,20(1)
	lwz 31,12(1)
.LVL100:
	mtlr 0
	addi 1,1,16
.LCFI22:
	.cfi_def_cfa_offset 0
	.cfi_restore 31
	blr
	.cfi_endproc
.LFE1568:
	.size	_ZN11InfosWindowD0Ev, .-_ZN11InfosWindowD0Ev
	.align 2
	.globl _ZN11InfosWindowC2Eii
	.type	_ZN11InfosWindowC2Eii, @function
_ZN11InfosWindowC2Eii:
.LFB1563:
	.loc 3 22 0
	.cfi_startproc
	.cfi_personality 0,__gxx_personality_v0
	.cfi_lsda 0,.LLSDA1563
.LVL101:
	mflr 0
	stwu 1,-16(1)
.LCFI23:
	.cfi_def_cfa_offset 16
	.cfi_register 65, 0
.LBB1767:
	.loc 3 23 0
	li 6,0
.LBE1767:
	.loc 3 22 0
	stw 31,12(1)
	mr 31,3
	.cfi_offset 31, -4
	stw 0,20(1)
	stw 30,8(1)
.LEHB3:
.LBB1780:
	.loc 3 23 0
	.cfi_offset 30, -8
	.cfi_offset 65, 4
	bl _ZN8GuiFrameC2EiiPS_
.LEHE3:
.LVL102:
.LBB1768:
.LBB1769:
.LBB1770:
	.loc 4 270 0
	lis 9,_ZNSs4_Rep20_S_empty_rep_storageE+12@ha
.LBE1770:
.LBE1769:
.LBE1768:
	.loc 3 27 0
	lis 3,.LC4@ha
.LBB1775:
.LBB1773:
.LBB1771:
	.loc 4 270 0
	la 0,_ZNSs4_Rep20_S_empty_rep_storageE+12@l(9)
.LBE1771:
.LBE1773:
.LBE1775:
	.loc 3 23 0
	lis 9,_ZTV11InfosWindow+8@ha
	la 9,_ZTV11InfosWindow+8@l(9)
.LBB1776:
.LBB1774:
.LBB1772:
	.loc 4 270 0
	stw 0,184(31)
.LBE1772:
.LBE1774:
.LBE1776:
.LBB1777:
.LBB1778:
.LBB1779:
	stw 0,188(31)
.LBE1779:
.LBE1778:
.LBE1777:
	.loc 3 25 0
	li 0,13
	.loc 3 23 0
	stw 9,0(31)
.LVL103:
	.loc 3 27 0
	la 3,.LC4@l(3)
	.loc 3 25 0
	stw 0,180(31)
.LEHB4:
	.loc 3 27 0
	bl _ZN9Resources12GetImageDataEPKc
	stw 3,220(31)
	.loc 3 28 0
	lis 3,.LC5@ha
	la 3,.LC5@l(3)
	bl _ZN9Resources12GetImageDataEPKc
	.loc 3 28 0 is_stmt 0 discriminator 1
	stw 3,224(31)
	.loc 3 29 0 is_stmt 1 discriminator 1
	lis 3,.LC6@ha
	la 3,.LC6@l(3)
	bl _ZN9Resources12GetImageDataEPKc
	stw 3,228(31)
	.loc 3 30 0 discriminator 1
	lis 3,.LC7@ha
	la 3,.LC7@l(3)
	bl _ZN9Resources12GetImageDataEPKc
	stw 3,232(31)
	.loc 3 31 0 discriminator 1
	lis 3,.LC8@ha
	la 3,.LC8@l(3)
	bl _ZN9Resources12GetImageDataEPKc
	stw 3,236(31)
	.loc 3 32 0 discriminator 1
	lis 3,.LC9@ha
	la 3,.LC9@l(3)
	bl _ZN9Resources12GetImageDataEPKc
	stw 3,240(31)
	.loc 3 33 0 discriminator 1
	lis 3,.LC10@ha
	la 3,.LC10@l(3)
	bl _ZN9Resources12GetImageDataEPKc
	stw 3,244(31)
	.loc 3 34 0 discriminator 1
	lis 3,.LC11@ha
	la 3,.LC11@l(3)
	bl _ZN9Resources12GetImageDataEPKc
	stw 3,248(31)
	.loc 3 35 0 discriminator 1
	lis 3,.LC12@ha
	la 3,.LC12@l(3)
	bl _ZN9Resources12GetImageDataEPKc
	stw 3,252(31)
	.loc 3 36 0 discriminator 1
	lis 3,.LC13@ha
	la 3,.LC13@l(3)
	bl _ZN9Resources12GetImageDataEPKc
	stw 3,256(31)
	.loc 3 37 0 discriminator 1
	lis 3,.LC14@ha
	la 3,.LC14@l(3)
	bl _ZN9Resources12GetImageDataEPKc
	stw 3,260(31)
	.loc 3 38 0 discriminator 1
	lis 3,.LC15@ha
	la 3,.LC15@l(3)
	bl _ZN9Resources12GetImageDataEPKc
	stw 3,264(31)
	.loc 3 39 0 discriminator 1
	lis 3,.LC16@ha
	la 3,.LC16@l(3)
	bl _ZN9Resources12GetImageDataEPKc
	stw 3,268(31)
	.loc 3 40 0 discriminator 1
	lis 3,.LC17@ha
	la 3,.LC17@l(3)
	bl _ZN9Resources12GetImageDataEPKc
	stw 3,272(31)
	.loc 3 42 0 discriminator 1
	lis 3,.LC18@ha
	la 3,.LC18@l(3)
	bl _ZN9Resources12GetImageDataEPKc
	stw 3,276(31)
	.loc 3 43 0 discriminator 1
	lis 3,.LC19@ha
	la 3,.LC19@l(3)
	bl _ZN9Resources12GetImageDataEPKc
	stw 3,280(31)
	.loc 3 44 0 discriminator 1
	lis 3,.LC20@ha
	la 3,.LC20@l(3)
	bl _ZN9Resources12GetImageDataEPKc
	stw 3,284(31)
	.loc 3 45 0 discriminator 1
	lis 3,.LC21@ha
	la 3,.LC21@l(3)
	bl _ZN9Resources12GetImageDataEPKc
	stw 3,288(31)
	.loc 3 46 0 discriminator 1
	lis 3,.LC22@ha
	la 3,.LC22@l(3)
	bl _ZN9Resources12GetImageDataEPKc
	stw 3,292(31)
	.loc 3 47 0 discriminator 1
	lis 3,.LC23@ha
	la 3,.LC23@l(3)
	bl _ZN9Resources12GetImageDataEPKc
	stw 3,296(31)
	.loc 3 48 0 discriminator 1
	lis 3,.LC24@ha
	la 3,.LC24@l(3)
	bl _ZN9Resources12GetImageDataEPKc
	stw 3,300(31)
	.loc 3 49 0 discriminator 1
	lis 3,.LC25@ha
	la 3,.LC25@l(3)
	bl _ZN9Resources12GetImageDataEPKc
	stw 3,304(31)
	.loc 3 50 0 discriminator 1
	lis 3,.LC26@ha
	la 3,.LC26@l(3)
	bl _ZN9Resources12GetImageDataEPKc
	stw 3,308(31)
	.loc 3 51 0 discriminator 1
	lis 3,.LC27@ha
	la 3,.LC27@l(3)
	bl _ZN9Resources12GetImageDataEPKc
	stw 3,312(31)
	.loc 3 52 0 discriminator 1
	lis 3,.LC28@ha
	la 3,.LC28@l(3)
	bl _ZN9Resources12GetImageDataEPKc
	stw 3,316(31)
	.loc 3 53 0 discriminator 1
	lis 3,.LC29@ha
	la 3,.LC29@l(3)
	bl _ZN9Resources12GetImageDataEPKc
	stw 3,320(31)
	.loc 3 54 0 discriminator 1
	lis 3,.LC30@ha
	la 3,.LC30@l(3)
	bl _ZN9Resources12GetImageDataEPKc
	stw 3,324(31)
	.loc 3 55 0 discriminator 1
	lis 3,.LC31@ha
	la 3,.LC31@l(3)
	bl _ZN9Resources12GetImageDataEPKc
.LEHE4:
	.loc 3 57 0 discriminator 1
	li 0,0
	.loc 3 55 0 discriminator 1
	stw 3,328(31)
	.loc 3 57 0 discriminator 1
	stw 0,192(31)
	.loc 3 58 0 discriminator 1
	stw 0,196(31)
	.loc 3 59 0 discriminator 1
	stw 0,200(31)
	.loc 3 60 0 discriminator 1
	stw 0,204(31)
	.loc 3 61 0 discriminator 1
	stw 0,208(31)
	.loc 3 62 0 discriminator 1
	stw 0,212(31)
	.loc 3 63 0 discriminator 1
	stw 0,216(31)
.LBE1780:
	.loc 3 64 0 discriminator 1
	lwz 0,20(1)
	lwz 30,8(1)
	mtlr 0
	lwz 31,12(1)
.LVL104:
	addi 1,1,16
	.cfi_remember_state
.LCFI24:
	.cfi_def_cfa_offset 0
	.cfi_restore 31
	.cfi_restore 30
	blr
.LVL105:
.L96:
.LCFI25:
	.cfi_restore_state
	mr 30,3
.LBB1781:
	.loc 3 23 0
	addi 3,31,188
	bl _ZNSsD1Ev
	addi 3,31,184
	bl _ZNSsD1Ev
	mr 3,31
	bl _ZN8GuiFrameD2Ev
	mr 3,30
.LEHB5:
	bl _Unwind_Resume
.LEHE5:
.LBE1781:
	.cfi_endproc
.LFE1563:
	.section	.gcc_except_table
.LLSDA1563:
	.byte	0xff
	.byte	0xff
	.byte	0x1
	.uleb128 .LLSDACSE1563-.LLSDACSB1563
.LLSDACSB1563:
	.uleb128 .LEHB3-.LFB1563
	.uleb128 .LEHE3-.LEHB3
	.uleb128 0
	.uleb128 0
	.uleb128 .LEHB4-.LFB1563
	.uleb128 .LEHE4-.LEHB4
	.uleb128 .L96-.LFB1563
	.uleb128 0
	.uleb128 .LEHB5-.LFB1563
	.uleb128 .LEHE5-.LEHB5
	.uleb128 0
	.uleb128 0
.LLSDACSE1563:
	.section	".text"
	.size	_ZN11InfosWindowC2Eii, .-_ZN11InfosWindowC2Eii
	.align 2
	.globl _ZN11InfosWindow14GetIconFromExtEv
	.type	_ZN11InfosWindow14GetIconFromExtEv, @function
_ZN11InfosWindow14GetIconFromExtEv:
.LFB1570:
	.loc 3 235 0
	.cfi_startproc
	.cfi_personality 0,__gxx_personality_v0
	.cfi_lsda 0,.LLSDA1570
.LVL106:
	mflr 0
	stwu 1,-24(1)
.LCFI26:
	.cfi_def_cfa_offset 24
	.cfi_register 65, 0
	stw 30,16(1)
	mr 30,3
	.cfi_offset 30, -8
	stw 0,28(1)
	stw 29,12(1)
	.loc 3 236 0
	lbz 0,176(3)
	.cfi_offset 29, -12
	.cfi_offset 65, 4
	.loc 3 235 0
	stw 31,20(1)
	.loc 3 236 0
	cmpwi 7,0,0
	bne- 7,.L144
	.cfi_offset 31, -4
	.loc 3 239 0
	lbz 0,177(3)
	cmpwi 7,0,0
	bne- 7,.L145
	.loc 3 242 0
	lbz 0,178(3)
	cmpwi 7,0,0
	bne- 7,.L146
	.loc 3 245 0
	lbz 0,179(3)
	cmpwi 7,0,0
	bne- 7,.L147
	.loc 3 248 0
	addi 31,3,188
	lis 4,.LC32@ha
	mr 3,31
.LVL107:
	la 4,.LC32@l(4)
.LEHB6:
	bl _ZNKSs7compareEPKc
	cmpwi 7,3,0
	bne- 7,.L103
	.loc 3 249 0
	li 3,196
	bl _Znwj
.LEHE6:
	lwz 4,220(30)
	mr 31,3
.LEHB7:
	bl _ZN8GuiImageC1EP12GuiImageData
.LEHE7:
	b .L99
.L144:
	.loc 3 237 0
	li 3,196
.LEHB8:
	bl _Znwj
.LEHE8:
	lwz 4,236(30)
	mr 31,3
.LEHB9:
	bl _ZN8GuiImageC1EP12GuiImageData
.LEHE9:
.L99:
	.loc 3 269 0
	lwz 0,28(1)
	mr 3,31
	lwz 29,12(1)
	mtlr 0
	lwz 30,16(1)
.LVL108:
	lwz 31,20(1)
	addi 1,1,24
	.cfi_remember_state
.LCFI27:
	.cfi_def_cfa_offset 0
	.cfi_restore 31
	.cfi_restore 30
	.cfi_restore 29
	blr
.LVL109:
.L145:
.LCFI28:
	.cfi_restore_state
	.loc 3 240 0
	li 3,196
.LVL110:
.LEHB10:
	bl _Znwj
.LEHE10:
	lwz 4,256(30)
	mr 31,3
.LEHB11:
	bl _ZN8GuiImageC1EP12GuiImageData
.LEHE11:
	.loc 3 269 0
	lwz 0,28(1)
	mr 3,31
	lwz 29,12(1)
	mtlr 0
	lwz 30,16(1)
.LVL111:
	lwz 31,20(1)
	addi 1,1,24
	.cfi_remember_state
	.cfi_restore 29
	.cfi_restore 30
	.cfi_restore 31
.LCFI29:
	.cfi_def_cfa_offset 0
	blr
.LVL112:
.L147:
.LCFI30:
	.cfi_restore_state
	.loc 3 246 0
	li 3,196
.LVL113:
.LEHB12:
	bl _Znwj
.LEHE12:
	lwz 4,252(30)
	mr 31,3
.LEHB13:
	bl _ZN8GuiImageC1EP12GuiImageData
.LEHE13:
	.loc 3 269 0
	lwz 0,28(1)
	mr 3,31
	lwz 29,12(1)
	mtlr 0
	lwz 30,16(1)
.LVL114:
	lwz 31,20(1)
	addi 1,1,24
	.cfi_remember_state
	.cfi_restore 29
	.cfi_restore 30
	.cfi_restore 31
.LCFI31:
	.cfi_def_cfa_offset 0
	blr
.LVL115:
.L146:
.LCFI32:
	.cfi_restore_state
	.loc 3 243 0
	li 3,196
.LVL116:
.LEHB14:
	bl _Znwj
.LEHE14:
	lwz 4,224(30)
	mr 31,3
.LEHB15:
	bl _ZN8GuiImageC1EP12GuiImageData
.LEHE15:
	.loc 3 269 0
	lwz 0,28(1)
	mr 3,31
	lwz 29,12(1)
	mtlr 0
	lwz 30,16(1)
.LVL117:
	lwz 31,20(1)
	addi 1,1,24
	.cfi_remember_state
	.cfi_restore 29
	.cfi_restore 30
	.cfi_restore 31
.LCFI33:
	.cfi_def_cfa_offset 0
	blr
.LVL118:
.L103:
.LCFI34:
	.cfi_restore_state
	.loc 3 250 0
	lis 29,Settings+2580@ha
	lwz 4,188(30)
	la 29,Settings+2580@l(29)
	mr 3,29
.LEHB16:
	bl _ZN16CFilesExtensions15CompareHomebrewEPKc
	cmpwi 7,3,0
	beq- 7,.L148
.LVL119:
	.loc 3 252 0
	lwz 4,188(30)
	mr 3,29
	bl _ZN16CFilesExtensions11CompareFontEPKc
	cmpwi 7,3,0
	bne- 7,.L105
	.loc 3 253 0
	li 3,196
	bl _Znwj
.LEHE16:
	lwz 4,240(30)
	mr 31,3
.LEHB17:
	bl _ZN8GuiImageC1EP12GuiImageData
.LEHE17:
	b .L99
.LVL120:
.L148:
	.loc 3 251 0
	li 3,196
.LEHB18:
	bl _Znwj
.LEHE18:
	lwz 4,232(30)
	mr 31,3
.LEHB19:
	bl _ZN8GuiImageC1EP12GuiImageData
.LEHE19:
	b .L99
.LVL121:
.L105:
	.loc 3 254 0
	lwz 4,188(30)
	mr 3,29
.LEHB20:
	bl _ZN16CFilesExtensions12CompareImageEPKc
	cmpwi 7,3,0
	bne- 7,.L106
	.loc 3 255 0
	li 3,196
	bl _Znwj
.LEHE20:
	lwz 4,244(30)
	mr 31,3
.LEHB21:
	bl _ZN8GuiImageC1EP12GuiImageData
.LEHE21:
	b .L99
.L106:
.LVL122:
	.loc 3 256 0
	lwz 4,188(30)
	mr 3,29
.LEHB22:
	bl _ZN16CFilesExtensions20CompareLanguageFilesEPKc
	cmpwi 7,3,0
	bne- 7,.L107
	.loc 3 257 0
	li 3,196
	bl _Znwj
.LEHE22:
	lwz 4,248(30)
	mr 31,3
.LEHB23:
	bl _ZN8GuiImageC1EP12GuiImageData
.LEHE23:
	b .L99
.L107:
.LVL123:
	.loc 3 258 0
	lwz 4,188(30)
	mr 3,29
.LEHB24:
	bl _ZN16CFilesExtensions12CompareAudioEPKc
	cmpwi 7,3,0
	bne- 7,.L108
	.loc 3 259 0
	li 3,196
	bl _Znwj
.LEHE24:
	lwz 4,260(30)
	mr 31,3
.LEHB25:
	bl _ZN8GuiImageC1EP12GuiImageData
.LEHE25:
	b .L99
.L108:
.LVL124:
	.loc 3 260 0
	lwz 4,188(30)
	mr 3,29
.LEHB26:
	bl _ZN16CFilesExtensions17CompareThemeFilesEPKc
	cmpwi 7,3,0
	bne- 7,.L109
	.loc 3 261 0
	li 3,196
	bl _Znwj
.LEHE26:
	lwz 4,264(30)
	mr 31,3
.LEHB27:
	bl _ZN8GuiImageC1EP12GuiImageData
.LEHE27:
	b .L99
.L109:
	.loc 3 262 0
	lis 4,.LC33@ha
	mr 3,31
	la 4,.LC33@l(4)
.LEHB28:
	bl _ZNKSs7compareEPKc
	cmpwi 7,3,0
	bne- 7,.L149
.L110:
	.loc 3 264 0 discriminator 4
	li 3,196
	bl _Znwj
.LEHE28:
	lwz 4,268(30)
	mr 31,3
.LEHB29:
	bl _ZN8GuiImageC1EP12GuiImageData
.LEHE29:
	b .L99
.L149:
	.loc 3 263 0 discriminator 2
	lis 4,.LC34@ha
	mr 3,31
	la 4,.LC34@l(4)
.LEHB30:
	bl _ZNKSs7compareEPKc
	.loc 3 262 0 discriminator 2
	cmpwi 7,3,0
	beq- 7,.L110
	.loc 3 265 0
	lis 4,.LC35@ha
	mr 3,31
	la 4,.LC35@l(4)
	bl _ZNKSs7compareEPKc
	cmpwi 7,3,0
	bne- 7,.L150
	.loc 3 266 0
	li 3,196
	bl _Znwj
.LEHE30:
	lwz 4,272(30)
	mr 31,3
.LEHB31:
	bl _ZN8GuiImageC1EP12GuiImageData
.LEHE31:
	b .L99
.L150:
	.loc 3 268 0
	li 3,196
.LEHB32:
	bl _Znwj
.LEHE32:
	lwz 4,228(30)
	mr 31,3
.LEHB33:
	bl _ZN8GuiImageC1EP12GuiImageData
.LEHE33:
	b .L99
.L140:
.LVL125:
.L143:
	mr 30,3
.LVL126:
	.loc 3 240 0
	mr 3,31
	bl _ZdlPv
	mr 3,30
.LEHB34:
	bl _Unwind_Resume
.LEHE34:
.LVL127:
.L141:
	b .L143
.LVL128:
.L136:
	b .L143
.LVL129:
.L137:
	b .L143
.LVL130:
.L138:
	b .L143
.L139:
	b .L143
.LVL131:
.L131:
	b .L143
.L132:
	b .L143
.L129:
	b .L143
.L128:
	b .L143
.LVL132:
.L134:
	b .L143
.LVL133:
.L133:
	b .L143
.LVL134:
.L130:
	b .L143
.LVL135:
.L135:
	b .L143
	.cfi_endproc
.LFE1570:
	.section	.gcc_except_table
.LLSDA1570:
	.byte	0xff
	.byte	0xff
	.byte	0x1
	.uleb128 .LLSDACSE1570-.LLSDACSB1570
.LLSDACSB1570:
	.uleb128 .LEHB6-.LFB1570
	.uleb128 .LEHE6-.LEHB6
	.uleb128 0
	.uleb128 0
	.uleb128 .LEHB7-.LFB1570
	.uleb128 .LEHE7-.LEHB7
	.uleb128 .L132-.LFB1570
	.uleb128 0
	.uleb128 .LEHB8-.LFB1570
	.uleb128 .LEHE8-.LEHB8
	.uleb128 0
	.uleb128 0
	.uleb128 .LEHB9-.LFB1570
	.uleb128 .LEHE9-.LEHB9
	.uleb128 .L128-.LFB1570
	.uleb128 0
	.uleb128 .LEHB10-.LFB1570
	.uleb128 .LEHE10-.LEHB10
	.uleb128 0
	.uleb128 0
	.uleb128 .LEHB11-.LFB1570
	.uleb128 .LEHE11-.LEHB11
	.uleb128 .L129-.LFB1570
	.uleb128 0
	.uleb128 .LEHB12-.LFB1570
	.uleb128 .LEHE12-.LEHB12
	.uleb128 0
	.uleb128 0
	.uleb128 .LEHB13-.LFB1570
	.uleb128 .LEHE13-.LEHB13
	.uleb128 .L131-.LFB1570
	.uleb128 0
	.uleb128 .LEHB14-.LFB1570
	.uleb128 .LEHE14-.LEHB14
	.uleb128 0
	.uleb128 0
	.uleb128 .LEHB15-.LFB1570
	.uleb128 .LEHE15-.LEHB15
	.uleb128 .L130-.LFB1570
	.uleb128 0
	.uleb128 .LEHB16-.LFB1570
	.uleb128 .LEHE16-.LEHB16
	.uleb128 0
	.uleb128 0
	.uleb128 .LEHB17-.LFB1570
	.uleb128 .LEHE17-.LEHB17
	.uleb128 .L134-.LFB1570
	.uleb128 0
	.uleb128 .LEHB18-.LFB1570
	.uleb128 .LEHE18-.LEHB18
	.uleb128 0
	.uleb128 0
	.uleb128 .LEHB19-.LFB1570
	.uleb128 .LEHE19-.LEHB19
	.uleb128 .L133-.LFB1570
	.uleb128 0
	.uleb128 .LEHB20-.LFB1570
	.uleb128 .LEHE20-.LEHB20
	.uleb128 0
	.uleb128 0
	.uleb128 .LEHB21-.LFB1570
	.uleb128 .LEHE21-.LEHB21
	.uleb128 .L135-.LFB1570
	.uleb128 0
	.uleb128 .LEHB22-.LFB1570
	.uleb128 .LEHE22-.LEHB22
	.uleb128 0
	.uleb128 0
	.uleb128 .LEHB23-.LFB1570
	.uleb128 .LEHE23-.LEHB23
	.uleb128 .L136-.LFB1570
	.uleb128 0
	.uleb128 .LEHB24-.LFB1570
	.uleb128 .LEHE24-.LEHB24
	.uleb128 0
	.uleb128 0
	.uleb128 .LEHB25-.LFB1570
	.uleb128 .LEHE25-.LEHB25
	.uleb128 .L137-.LFB1570
	.uleb128 0
	.uleb128 .LEHB26-.LFB1570
	.uleb128 .LEHE26-.LEHB26
	.uleb128 0
	.uleb128 0
	.uleb128 .LEHB27-.LFB1570
	.uleb128 .LEHE27-.LEHB27
	.uleb128 .L138-.LFB1570
	.uleb128 0
	.uleb128 .LEHB28-.LFB1570
	.uleb128 .LEHE28-.LEHB28
	.uleb128 0
	.uleb128 0
	.uleb128 .LEHB29-.LFB1570
	.uleb128 .LEHE29-.LEHB29
	.uleb128 .L139-.LFB1570
	.uleb128 0
	.uleb128 .LEHB30-.LFB1570
	.uleb128 .LEHE30-.LEHB30
	.uleb128 0
	.uleb128 0
	.uleb128 .LEHB31-.LFB1570
	.uleb128 .LEHE31-.LEHB31
	.uleb128 .L140-.LFB1570
	.uleb128 0
	.uleb128 .LEHB32-.LFB1570
	.uleb128 .LEHE32-.LEHB32
	.uleb128 0
	.uleb128 0
	.uleb128 .LEHB33-.LFB1570
	.uleb128 .LEHE33-.LEHB33
	.uleb128 .L141-.LFB1570
	.uleb128 0
	.uleb128 .LEHB34-.LFB1570
	.uleb128 .LEHE34-.LEHB34
	.uleb128 0
	.uleb128 0
.LLSDACSE1570:
	.section	".text"
	.size	_ZN11InfosWindow14GetIconFromExtEv, .-_ZN11InfosWindow14GetIconFromExtEv
	.align 2
	.globl _ZN11InfosWindow14GetTypeFromExtEv
	.type	_ZN11InfosWindow14GetTypeFromExtEv, @function
_ZN11InfosWindow14GetTypeFromExtEv:
.LFB1571:
	.loc 3 272 0
	.cfi_startproc
.LVL136:
	mflr 0
	stwu 1,-40(1)
.LCFI35:
	.cfi_def_cfa_offset 40
	.cfi_register 65, 0
	stw 30,32(1)
	mr 30,4
	.cfi_offset 30, -8
	stw 0,44(1)
	stw 31,36(1)
	mr 31,3
	.cfi_offset 31, -4
	.cfi_offset 65, 4
	.loc 3 273 0
	lbz 0,176(4)
	.loc 3 272 0
	stw 28,24(1)
	.loc 3 273 0
	cmpwi 7,0,0
	.loc 3 272 0
	stw 29,28(1)
	.loc 3 273 0
	bne- 7,.L196
	.cfi_offset 29, -12
	.cfi_offset 28, -16
	.loc 3 276 0
	lbz 0,177(4)
	cmpwi 7,0,0
	bne- 7,.L197
	.loc 3 279 0
	lbz 0,178(4)
	cmpwi 7,0,0
	bne- 7,.L198
	.loc 3 282 0
	lbz 0,179(4)
	cmpwi 7,0,0
	bne- 7,.L199
	.loc 3 285 0
	addi 28,4,188
	lis 4,.LC32@ha
.LVL137:
	mr 3,28
.LVL138:
	la 4,.LC32@l(4)
	bl _ZNKSs7compareEPKc
	cmpwi 7,3,0
	beq- 7,.L200
.LVL139:
	.loc 3 287 0
	lis 29,Settings+2580@ha
	lwz 4,188(30)
	la 29,Settings+2580@l(29)
	mr 3,29
	bl _ZN16CFilesExtensions15CompareHomebrewEPKc
	cmpwi 7,3,0
	beq- 7,.L201
.LVL140:
	.loc 3 289 0
	lwz 4,188(30)
	mr 3,29
	bl _ZN16CFilesExtensions11CompareFontEPKc
	cmpwi 7,3,0
	beq- 7,.L202
.LVL141:
	.loc 3 291 0
	lwz 4,188(30)
	mr 3,29
	bl _ZN16CFilesExtensions12CompareImageEPKc
	cmpwi 7,3,0
	beq- 7,.L203
.LVL142:
	.loc 3 293 0
	lwz 4,188(30)
	mr 3,29
	bl _ZN16CFilesExtensions20CompareLanguageFilesEPKc
	cmpwi 7,3,0
	beq- 7,.L204
.LVL143:
	.loc 3 295 0
	lwz 4,188(30)
	mr 3,29
	bl _ZN16CFilesExtensions12CompareAudioEPKc
	cmpwi 7,3,0
	beq- 7,.L205
.LVL144:
	.loc 3 297 0
	lwz 4,188(30)
	mr 3,29
	bl _ZN16CFilesExtensions17CompareThemeFilesEPKc
	cmpwi 7,3,0
	beq- 7,.L206
	.loc 3 299 0
	lis 4,.LC33@ha
	mr 3,28
	la 4,.LC33@l(4)
	bl _ZNKSs7compareEPKc
	cmpwi 7,3,0
	bne- 7,.L207
.L164:
	.loc 3 300 0 discriminator 4
	lis 3,.LC47@ha
	la 3,.LC47@l(3)
	bl gettext
	addi 5,1,10
	mr 4,3
	mr 3,31
	bl _ZNSsC1EPKcRKSaIcE
	b .L151
.LVL145:
.L196:
	.loc 3 274 0
	lis 3,.LC36@ha
	la 3,.LC36@l(3)
	bl gettext
	addi 5,1,21
	mr 4,3
	mr 3,31
	bl _ZNSsC1EPKcRKSaIcE
.L151:
	.loc 3 305 0
	lwz 0,44(1)
	mr 3,31
	lwz 28,24(1)
	mtlr 0
	lwz 29,28(1)
	lwz 30,32(1)
.LVL146:
	lwz 31,36(1)
.LVL147:
	addi 1,1,40
	.cfi_remember_state
.LCFI36:
	.cfi_def_cfa_offset 0
	.cfi_restore 31
	.cfi_restore 30
	.cfi_restore 29
	.cfi_restore 28
	blr
.LVL148:
.L198:
.LCFI37:
	.cfi_restore_state
	.loc 3 280 0
	lis 3,.LC38@ha
.LVL149:
	la 3,.LC38@l(3)
	bl gettext
.LVL150:
	addi 5,1,19
	mr 4,3
	mr 3,31
	bl _ZNSsC1EPKcRKSaIcE
	.loc 3 305 0
	lwz 0,44(1)
	mr 3,31
	lwz 28,24(1)
	mtlr 0
	lwz 29,28(1)
	lwz 30,32(1)
.LVL151:
	lwz 31,36(1)
.LVL152:
	addi 1,1,40
	.cfi_remember_state
	.cfi_restore 28
	.cfi_restore 29
	.cfi_restore 30
	.cfi_restore 31
.LCFI38:
	.cfi_def_cfa_offset 0
	blr
.LVL153:
.L200:
.LCFI39:
	.cfi_restore_state
	.loc 3 286 0
	lis 3,.LC40@ha
	la 3,.LC40@l(3)
	bl gettext
	addi 5,1,17
	mr 4,3
	mr 3,31
	bl _ZNSsC1EPKcRKSaIcE
	.loc 3 305 0
	lwz 0,44(1)
	mr 3,31
	lwz 28,24(1)
	mtlr 0
	lwz 29,28(1)
	lwz 30,32(1)
.LVL154:
	lwz 31,36(1)
.LVL155:
	addi 1,1,40
	.cfi_remember_state
	.cfi_restore 28
	.cfi_restore 29
	.cfi_restore 30
	.cfi_restore 31
.LCFI40:
	.cfi_def_cfa_offset 0
	blr
.LVL156:
.L199:
.LCFI41:
	.cfi_restore_state
	.loc 3 283 0
	lis 3,.LC39@ha
.LVL157:
	la 3,.LC39@l(3)
	bl gettext
.LVL158:
	addi 5,1,18
	mr 4,3
	mr 3,31
	bl _ZNSsC1EPKcRKSaIcE
	.loc 3 305 0
	lwz 0,44(1)
	mr 3,31
	lwz 28,24(1)
	mtlr 0
	lwz 29,28(1)
	lwz 30,32(1)
.LVL159:
	lwz 31,36(1)
.LVL160:
	addi 1,1,40
	.cfi_remember_state
	.cfi_restore 28
	.cfi_restore 29
	.cfi_restore 30
	.cfi_restore 31
.LCFI42:
	.cfi_def_cfa_offset 0
	blr
.LVL161:
.L197:
.LCFI43:
	.cfi_restore_state
	.loc 3 277 0
	lis 3,.LC37@ha
.LVL162:
	la 3,.LC37@l(3)
	bl gettext
.LVL163:
	addi 5,1,20
	mr 4,3
	mr 3,31
	bl _ZNSsC1EPKcRKSaIcE
	.loc 3 305 0
	lwz 0,44(1)
	mr 3,31
	lwz 28,24(1)
	mtlr 0
	lwz 29,28(1)
	lwz 30,32(1)
.LVL164:
	lwz 31,36(1)
.LVL165:
	addi 1,1,40
	.cfi_remember_state
	.cfi_restore 28
	.cfi_restore 29
	.cfi_restore 30
	.cfi_restore 31
.LCFI44:
	.cfi_def_cfa_offset 0
	blr
.LVL166:
.L201:
.LCFI45:
	.cfi_restore_state
	.loc 3 288 0
	lis 3,.LC41@ha
	la 3,.LC41@l(3)
	bl gettext
	addi 5,1,16
	mr 4,3
	mr 3,31
	bl _ZNSsC1EPKcRKSaIcE
	b .L151
.LVL167:
.L203:
	.loc 3 292 0
	lis 3,.LC43@ha
	la 3,.LC43@l(3)
	bl gettext
	addi 5,1,14
	mr 4,3
	mr 3,31
	bl _ZNSsC1EPKcRKSaIcE
	b .L151
.LVL168:
.L202:
	.loc 3 290 0
	lis 3,.LC42@ha
	la 3,.LC42@l(3)
	bl gettext
	addi 5,1,15
	mr 4,3
	mr 3,31
	bl _ZNSsC1EPKcRKSaIcE
	b .L151
.LVL169:
.L204:
	.loc 3 294 0
	lis 3,.LC44@ha
	la 3,.LC44@l(3)
	bl gettext
	addi 5,1,13
	mr 4,3
	mr 3,31
	bl _ZNSsC1EPKcRKSaIcE
	b .L151
.LVL170:
.L205:
	.loc 3 296 0
	lis 3,.LC45@ha
	la 3,.LC45@l(3)
	bl gettext
	addi 5,1,12
	mr 4,3
	mr 3,31
	bl _ZNSsC1EPKcRKSaIcE
	b .L151
.LVL171:
.L206:
	.loc 3 298 0
	lis 3,.LC46@ha
	la 3,.LC46@l(3)
	bl gettext
	addi 5,1,11
	mr 4,3
	mr 3,31
	bl _ZNSsC1EPKcRKSaIcE
	b .L151
.L207:
	.loc 3 299 0 discriminator 2
	lis 4,.LC34@ha
	mr 3,28
	la 4,.LC34@l(4)
	bl _ZNKSs7compareEPKc
	cmpwi 7,3,0
	beq- 7,.L164
	.loc 3 301 0
	lis 4,.LC35@ha
	mr 3,28
	la 4,.LC35@l(4)
	bl _ZNKSs7compareEPKc
	cmpwi 7,3,0
	beq- 7,.L208
	.loc 3 304 0
	lis 3,.LC49@ha
	la 3,.LC49@l(3)
	bl gettext
	addi 5,1,8
	mr 4,3
	mr 3,31
	bl _ZNSsC1EPKcRKSaIcE
	b .L151
.L208:
	.loc 3 302 0
	lis 3,.LC48@ha
	la 3,.LC48@l(3)
	bl gettext
	addi 5,1,9
	mr 4,3
	mr 3,31
	bl _ZNSsC1EPKcRKSaIcE
	b .L151
	.cfi_endproc
.LFE1571:
	.size	_ZN11InfosWindow14GetTypeFromExtEv, .-_ZN11InfosWindow14GetTypeFromExtEv
	.align 2
	.globl _ZN11InfosWindow11GetTypeIconEv
	.type	_ZN11InfosWindow11GetTypeIconEv, @function
_ZN11InfosWindow11GetTypeIconEv:
.LFB1572:
	.loc 3 308 0
	.cfi_startproc
.LVL172:
	.loc 3 309 0
	lwz 0,180(3)
	cmplwi 7,0,12
	ble- 7,.L226
	.loc 3 339 0
	lwz 3,328(3)
.LVL173:
	.loc 3 343 0
	blr
.LVL174:
.L226:
	.loc 3 309 0
	lis 9,.L224@ha
	slwi 0,0,2
	la 9,.L224@l(9)
	lwzx 0,9,0
	add 9,0,9
	mtctr 9
	bctr
	.section	.rodata
	.align 2
	.align 2
.L224:
	.long .L211-.L224
	.long .L212-.L224
	.long .L213-.L224
	.long .L214-.L224
	.long .L215-.L224
	.long .L216-.L224
	.long .L217-.L224
	.long .L218-.L224
	.long .L219-.L224
	.long .L220-.L224
	.long .L221-.L224
	.long .L222-.L224
	.long .L223-.L224
	.section	".text"
.L222:
	.loc 3 334 0
	lwz 3,320(3)
.LVL175:
	blr
.LVL176:
.L223:
	.loc 3 336 0
	lwz 3,324(3)
.LVL177:
	blr
.LVL178:
.L211:
	.loc 3 312 0
	lwz 3,276(3)
.LVL179:
	blr
.LVL180:
.L212:
	.loc 3 314 0
	lwz 3,280(3)
.LVL181:
	blr
.LVL182:
.L213:
	.loc 3 316 0
	lwz 3,284(3)
.LVL183:
	blr
.LVL184:
.L214:
	.loc 3 318 0
	lwz 3,288(3)
.LVL185:
	blr
.LVL186:
.L215:
	.loc 3 320 0
	lwz 3,292(3)
.LVL187:
	blr
.LVL188:
.L216:
	.loc 3 322 0
	lwz 3,296(3)
.LVL189:
	blr
.LVL190:
.L217:
	.loc 3 324 0
	lwz 3,300(3)
.LVL191:
	blr
.LVL192:
.L218:
	.loc 3 326 0
	lwz 3,304(3)
.LVL193:
	blr
.LVL194:
.L219:
	.loc 3 328 0
	lwz 3,308(3)
.LVL195:
	blr
.LVL196:
.L220:
	.loc 3 330 0
	lwz 3,312(3)
.LVL197:
	blr
.LVL198:
.L221:
	.loc 3 332 0
	lwz 3,316(3)
.LVL199:
	blr
	.cfi_endproc
.LFE1572:
	.size	_ZN11InfosWindow11GetTypeIconEv, .-_ZN11InfosWindow11GetTypeIconEv
	.align 2
	.globl _ZN11InfosWindow13FoundSaveTypeEv
	.type	_ZN11InfosWindow13FoundSaveTypeEv, @function
_ZN11InfosWindow13FoundSaveTypeEv:
.LFB1573:
	.loc 3 346 0
	.cfi_startproc
	.cfi_personality 0,__gxx_personality_v0
	.cfi_lsda 0,.LLSDA1573
.LVL200:
	mflr 0
	stwu 1,-56(1)
.LCFI46:
	.cfi_def_cfa_offset 56
	.cfi_register 65, 0
	stw 31,52(1)
	mr 31,3
	.cfi_offset 31, -4
	stw 0,60(1)
	stw 29,44(1)
.LBB1926:
	.loc 3 350 0
	lbz 0,177(3)
	.cfi_offset 29, -12
	.cfi_offset 65, 4
.LBE1926:
	.loc 3 346 0
	stw 30,48(1)
.LBB2020:
	.loc 3 350 0
	cmpwi 7,0,0
	.loc 3 347 0
	li 0,13
	stw 0,180(3)
.LVL201:
	.loc 3 350 0
	bne- 7,.L285
	.cfi_offset 30, -8
.LVL202:
.L227:
.LBE2020:
	.loc 3 395 0
	lwz 0,60(1)
	lwz 29,44(1)
	mtlr 0
	lwz 30,48(1)
	lwz 31,52(1)
	addi 1,1,56
	.cfi_remember_state
.LCFI47:
	.cfi_def_cfa_offset 0
	.cfi_restore 31
	.cfi_restore 30
	.cfi_restore 29
	blr
.LVL203:
.L285:
.LCFI48:
	.cfi_restore_state
.LBB2021:
	.loc 3 351 0
	lwz 3,184(3)
.LVL204:
.LEHB35:
	bl _Z10StrToHex64PKc
.LVL205:
	.loc 3 354 0
	or. 0,3,4
	beq- 0,.L227
	.loc 3 357 0
	bl _Z9titleTextjj
.LVL206:
	addi 5,1,12
	mr 4,3
	addi 3,1,24
	bl _ZNSsC1EPKcRKSaIcE
.LEHE35:
.LVL207:
.LBB1927:
.LBB1928:
.LBB1929:
.LBB1930:
.LBB1931:
.LBB1932:
	.loc 4 288 0
	lwz 9,24(1)
.LBE1932:
.LBE1931:
.LBE1930:
.LBE1929:
.LBE1928:
.LBE1927:
	.loc 3 358 0
	lwz 0,-12(9)
	cmpwi 7,0,0
	beq- 7,.L232
	.loc 3 361 0
	addi 3,1,20
	addi 4,1,24
.LVL208:
.LEHB36:
	bl _ZNSsC1ERKSs
.LEHE36:
.LVL209:
	.loc 3 362 0
	addi 3,1,16
	addi 4,1,24
.LVL210:
.LEHB37:
	bl _ZNSsC1ERKSs
.LEHE37:
.LVL211:
.LBB1933:
.LBB1934:
.LBB1935:
.LBB1936:
.LBB1937:
.LBB1938:
	.loc 4 711 0
	lwz 9,20(1)
	lwz 5,-12(9)
.LBE1938:
.LBE1937:
	.loc 4 318 0
	cmpwi 7,5,0
	beq- 7,.L286
.LVL212:
.LBE1936:
.LBE1935:
	.loc 4 1349 0
	addi 3,1,20
.LVL213:
	li 4,1
	addi 5,5,-1
	li 6,0
.LEHB38:
	bl _ZNSs9_M_mutateEjjj
.LVL214:
.LBE1934:
.LBE1933:
.LBB1942:
.LBB1943:
.LBB1944:
.LBB1945:
.LBB1946:
.LBB1947:
	.loc 4 711 0
	lwz 9,16(1)
	lwz 5,-12(9)
.LBE1947:
.LBE1946:
	.loc 4 318 0
	cmplwi 7,5,1
	ble- 7,.L287
.LVL215:
.LBE1945:
.LBE1944:
	.loc 4 1349 0
	addi 3,1,16
.LVL216:
	li 4,2
	addi 5,5,-2
	li 6,0
	bl _ZNSs9_M_mutateEjjj
.LVL217:
.LBE1943:
.LBE1942:
	.loc 3 366 0
	lis 4,.LC51@ha
	addi 3,1,20
.LVL218:
	la 4,.LC51@l(4)
	bl _ZNKSs7compareEPKc
.LVL219:
	cmpwi 7,3,0
	bne- 7,.L288
.L235:
	.loc 3 367 0 discriminator 5
	li 0,0
	stw 0,180(31)
.L237:
.LVL220:
.LBB1951:
.LBB1952:
.LBB1953:
.LBB1954:
.LBB1955:
.LBB1956:
	.loc 4 288 0
	lwz 9,16(1)
.LBE1956:
.LBE1955:
.LBE1954:
.LBB1957:
.LBB1958:
	.loc 4 235 0
	lis 31,_ZNSs4_Rep20_S_empty_rep_storageE@ha
.LVL221:
	la 31,_ZNSs4_Rep20_S_empty_rep_storageE@l(31)
.LBE1958:
.LBE1957:
	.loc 4 534 0
	addi 3,9,-12
.LVL222:
.LBB1967:
.LBB1965:
	.loc 4 235 0
	cmpw 7,3,31
	bne- 7,.L289
.LVL223:
.L257:
.LBE1965:
.LBE1967:
.LBE1953:
.LBE1952:
.LBE1951:
.LBB1971:
.LBB1972:
.LBB1973:
.LBB1974:
.LBB1975:
.LBB1976:
	.loc 4 288 0
	lwz 9,20(1)
.LBE1976:
.LBE1975:
.LBE1974:
	.loc 4 534 0
	addi 3,9,-12
.LVL224:
.LBB1977:
.LBB1978:
	.loc 4 235 0
	cmpw 7,3,31
	bne- 7,.L290
.LVL225:
.L263:
.LBE1978:
.LBE1977:
.LBE1973:
.LBE1972:
.LBE1971:
.LBB1989:
.LBB1990:
.LBB1991:
.LBB1992:
.LBB1993:
.LBB1994:
	.loc 4 288 0
	lwz 9,24(1)
.LBE1994:
.LBE1993:
.LBE1992:
	.loc 4 534 0
	addi 3,9,-12
.LVL226:
.LBB1995:
.LBB1996:
	.loc 4 235 0
	cmpw 7,3,31
	beq+ 7,.L227
.LVL227:
.LBB1997:
.LBB1998:
.LBB1999:
	.loc 5 66 0
	lwz 11,-4(9)
.LVL228:
.LBE1999:
.LBE1998:
.LBE1997:
	.loc 4 240 0
	cmpwi 7,11,0
.LBB2002:
.LBB2001:
.LBB2000:
	.loc 5 67 0
	addi 11,11,-1
	stw 11,-4(9)
.LBE2000:
.LBE2001:
.LBE2002:
	.loc 4 240 0
	bgt+ 7,.L227
	.loc 4 244 0
	addi 4,1,9
	bl _ZNSs4_Rep10_M_destroyERKSaIcE
.LVL229:
	b .L227
.LVL230:
.L232:
.LBE1996:
.LBE1995:
.LBE1991:
.LBE1990:
.LBE1989:
.LBB2003:
.LBB2004:
.LBB2005:
.LBB2006:
.LBB2007:
	.loc 4 235 0
	lis 11,_ZNSs4_Rep20_S_empty_rep_storageE@ha
.LBE2007:
.LBE2006:
	.loc 4 534 0
	addi 3,9,-12
.LVL231:
.LBB2015:
.LBB2014:
	.loc 4 235 0
	la 0,_ZNSs4_Rep20_S_empty_rep_storageE@l(11)
	cmpw 7,3,0
	beq+ 7,.L227
.LVL232:
.LBB2008:
.LBB2009:
.LBB2010:
	.loc 5 66 0
	lwz 11,-4(9)
.LVL233:
.LBE2010:
.LBE2009:
.LBE2008:
	.loc 4 240 0
	cmpwi 7,11,0
.LBB2013:
.LBB2012:
.LBB2011:
	.loc 5 67 0
	addi 11,11,-1
	stw 11,-4(9)
.LBE2011:
.LBE2012:
.LBE2013:
	.loc 4 240 0
	bgt+ 7,.L227
	.loc 4 244 0
	addi 4,1,8
	bl _ZNSs4_Rep10_M_destroyERKSaIcE
.LVL234:
	b .L227
.LVL235:
.L288:
.LBE2014:
.LBE2015:
.LBE2005:
.LBE2004:
.LBE2003:
	.loc 3 366 0 discriminator 2
	lis 4,.LC52@ha
	addi 3,1,20
.LVL236:
	la 4,.LC52@l(4)
	bl _ZNKSs7compareEPKc
.LVL237:
	cmpwi 7,3,0
	beq+ 7,.L235
	.loc 3 366 0 is_stmt 0 discriminator 3
	lis 30,.LC53@ha
	addi 3,1,20
.LVL238:
	la 30,.LC53@l(30)
	mr 4,30
	bl _ZNKSs7compareEPKc
.LVL239:
	cmpwi 7,3,0
	beq- 7,.L235
	.loc 3 368 0 is_stmt 1
	lis 4,.LC67@ha
	addi 3,1,20
.LVL240:
	la 4,.LC67@l(4)
	bl _ZNKSs7compareEPKc
.LVL241:
	cmpwi 7,3,0
	bne- 7,.L291
	.loc 3 369 0
	li 0,1
	stw 0,180(31)
	b .L237
.L291:
	.loc 3 370 0
	lis 4,.LC54@ha
	addi 3,1,20
.LVL242:
	la 4,.LC54@l(4)
	bl _ZNKSs7compareEPKc
.LVL243:
	cmpwi 7,3,0
	bne- 7,.L292
.L239:
	.loc 3 371 0 discriminator 6
	li 0,2
	stw 0,180(31)
	b .L237
.L292:
	.loc 3 370 0 discriminator 2
	lis 29,.LC55@ha
	addi 3,1,20
.LVL244:
	la 29,.LC55@l(29)
	mr 4,29
	bl _ZNKSs7compareEPKc
.LVL245:
	cmpwi 7,3,0
	beq+ 7,.L239
	.loc 3 370 0 is_stmt 0 discriminator 3
	addi 3,1,20
.LVL246:
	mr 4,30
	bl _ZNKSs7compareEPKc
.LVL247:
	cmpwi 7,3,0
	beq+ 7,.L239
	.loc 3 370 0 discriminator 4
	lis 4,.LC56@ha
	addi 3,1,20
.LVL248:
	la 4,.LC56@l(4)
	bl _ZNKSs7compareEPKc
.LVL249:
	cmpwi 7,3,0
	beq- 7,.L239
	.loc 3 372 0 is_stmt 1
	lis 4,.LC68@ha
	addi 3,1,20
.LVL250:
	la 4,.LC68@l(4)
	bl _ZNKSs7compareEPKc
.LVL251:
	cmpwi 7,3,0
	bne- 7,.L293
	.loc 3 373 0
	li 0,3
	stw 0,180(31)
	b .L237
.L293:
	.loc 3 374 0
	lis 4,.LC57@ha
	addi 3,1,20
.LVL252:
	la 4,.LC57@l(4)
	bl _ZNKSs7compareEPKc
.LVL253:
	cmpwi 7,3,0
	bne- 7,.L242
	.loc 3 375 0
	li 0,4
	stw 0,180(31)
	b .L237
.L242:
	.loc 3 376 0
	lis 4,.LC58@ha
	addi 3,1,20
.LVL254:
	la 4,.LC58@l(4)
	bl _ZNKSs7compareEPKc
.LVL255:
	cmpwi 7,3,0
	bne- 7,.L243
	.loc 3 377 0
	li 0,5
	stw 0,180(31)
	b .L237
.LVL256:
.L287:
.LBB2016:
.LBB1950:
.LBB1949:
.LBB1948:
	.loc 4 319 0
	lis 3,.LC50@ha
	la 3,.LC50@l(3)
	bl _ZSt20__throw_out_of_rangePKc
.LEHE38:
.LVL257:
.L282:
	mr 31,3
.LVL258:
.LBE1948:
.LBE1949:
.LBE1950:
.LBE2016:
	.loc 3 394 0
	addi 3,1,16
	bl _ZNSsD1Ev
.LVL259:
.L276:
	addi 3,1,20
	bl _ZNSsD1Ev
.L277:
	addi 3,1,24
.LVL260:
	bl _ZNSsD1Ev
.LVL261:
	mr 3,31
.LEHB39:
	bl _Unwind_Resume
.LEHE39:
.LVL262:
.L243:
	.loc 3 378 0
	lis 4,.LC59@ha
	addi 3,1,20
.LVL263:
	la 4,.LC59@l(4)
.LEHB40:
	bl _ZNKSs7compareEPKc
.LVL264:
	cmpwi 7,3,0
	bne- 7,.L244
	.loc 3 379 0
	li 0,6
	stw 0,180(31)
	b .L237
.LVL265:
.L286:
.LBB2017:
.LBB1941:
.LBB1940:
.LBB1939:
	.loc 4 319 0
	lis 3,.LC50@ha
	la 3,.LC50@l(3)
	bl _ZSt20__throw_out_of_rangePKc
.LVL266:
.L290:
.LBE1939:
.LBE1940:
.LBE1941:
.LBE2017:
.LBB2018:
.LBB1988:
.LBB1987:
.LBB1986:
.LBB1985:
.LBB1979:
.LBB1980:
.LBB1981:
	.loc 5 66 0
	lwz 11,-4(9)
.LVL267:
.LBE1981:
.LBE1980:
.LBE1979:
	.loc 4 240 0
	cmpwi 7,11,0
.LBB1984:
.LBB1983:
.LBB1982:
	.loc 5 67 0
	addi 11,11,-1
	stw 11,-4(9)
.LBE1982:
.LBE1983:
.LBE1984:
	.loc 4 240 0
	bgt+ 7,.L263
	.loc 4 244 0
	addi 4,1,10
	bl _ZNSs4_Rep10_M_destroyERKSaIcE
.LVL268:
	b .L263
.LVL269:
.L289:
.LBE1985:
.LBE1986:
.LBE1987:
.LBE1988:
.LBE2018:
.LBB2019:
.LBB1970:
.LBB1969:
.LBB1968:
.LBB1966:
.LBB1959:
.LBB1960:
.LBB1961:
	.loc 5 66 0
	lwz 11,-4(9)
.LVL270:
.LBE1961:
.LBE1960:
.LBE1959:
	.loc 4 240 0
	cmpwi 7,11,0
.LBB1964:
.LBB1963:
.LBB1962:
	.loc 5 67 0
	addi 11,11,-1
	stw 11,-4(9)
.LBE1962:
.LBE1963:
.LBE1964:
	.loc 4 240 0
	bgt+ 7,.L257
	.loc 4 244 0
	addi 4,1,11
	bl _ZNSs4_Rep10_M_destroyERKSaIcE
.LVL271:
	b .L257
.LVL272:
.L244:
.LBE1966:
.LBE1968:
.LBE1969:
.LBE1970:
.LBE2019:
	.loc 3 380 0
	lis 4,.LC60@ha
	addi 3,1,20
.LVL273:
	la 4,.LC60@l(4)
	bl _ZNKSs7compareEPKc
.LVL274:
	cmpwi 7,3,0
	bne- 7,.L245
	.loc 3 381 0
	li 0,7
	stw 0,180(31)
	b .L237
.LVL275:
.L281:
	mr 31,3
.LVL276:
	b .L276
.LVL277:
.L280:
	mr 31,3
.LVL278:
	b .L277
.LVL279:
.L245:
	.loc 3 382 0
	addi 3,1,20
.LVL280:
	mr 4,29
	bl _ZNKSs7compareEPKc
.LVL281:
	cmpwi 7,3,0
	bne- 7,.L246
	.loc 3 383 0
	li 0,8
	stw 0,180(31)
	b .L237
.L246:
	.loc 3 384 0
	lis 4,.LC61@ha
	addi 3,1,20
.LVL282:
	la 4,.LC61@l(4)
	bl _ZNKSs7compareEPKc
.LVL283:
	cmpwi 7,3,0
	bne- 7,.L247
	.loc 3 386 0
	lis 4,.LC62@ha
	addi 3,1,16
.LVL284:
	la 4,.LC62@l(4)
	bl _ZNKSs7compareEPKc
.LVL285:
	cmpwi 7,3,0
	bne- 7,.L294
.L248:
	.loc 3 387 0 discriminator 4
	li 0,9
	stw 0,180(31)
	b .L237
.L247:
	.loc 3 391 0
	lis 4,.LC64@ha
	addi 3,1,20
.LVL286:
	la 4,.LC64@l(4)
	bl _ZNKSs7compareEPKc
.LVL287:
	cmpwi 7,3,0
	bne- 7,.L250
	.loc 3 392 0
	li 0,11
	stw 0,180(31)
	b .L237
.L294:
	.loc 3 386 0 discriminator 2
	lis 4,.LC63@ha
	addi 3,1,16
.LVL288:
	la 4,.LC63@l(4)
	bl _ZNKSs7compareEPKc
.LVL289:
	cmpwi 7,3,0
	beq- 7,.L248
	.loc 3 389 0
	li 0,10
	stw 0,180(31)
	b .L237
.L250:
	.loc 3 393 0
	lis 4,.LC65@ha
	addi 3,1,20
.LVL290:
	la 4,.LC65@l(4)
	bl _ZNKSs7compareEPKc
.LVL291:
	cmpwi 7,3,0
	bne- 7,.L295
.L251:
	.loc 3 394 0 discriminator 4
	li 0,12
	stw 0,180(31)
	b .L237
.L295:
	.loc 3 393 0 discriminator 2
	lis 4,.LC66@ha
	addi 3,1,16
.LVL292:
	la 4,.LC66@l(4)
	bl _ZNKSs7compareEPKc
.LEHE40:
.LVL293:
	cmpwi 7,3,0
	bne- 7,.L237
	b .L251
.LBE2021:
	.cfi_endproc
.LFE1573:
	.section	.gcc_except_table
.LLSDA1573:
	.byte	0xff
	.byte	0xff
	.byte	0x1
	.uleb128 .LLSDACSE1573-.LLSDACSB1573
.LLSDACSB1573:
	.uleb128 .LEHB35-.LFB1573
	.uleb128 .LEHE35-.LEHB35
	.uleb128 0
	.uleb128 0
	.uleb128 .LEHB36-.LFB1573
	.uleb128 .LEHE36-.LEHB36
	.uleb128 .L280-.LFB1573
	.uleb128 0
	.uleb128 .LEHB37-.LFB1573
	.uleb128 .LEHE37-.LEHB37
	.uleb128 .L281-.LFB1573
	.uleb128 0
	.uleb128 .LEHB38-.LFB1573
	.uleb128 .LEHE38-.LEHB38
	.uleb128 .L282-.LFB1573
	.uleb128 0
	.uleb128 .LEHB39-.LFB1573
	.uleb128 .LEHE39-.LEHB39
	.uleb128 0
	.uleb128 0
	.uleb128 .LEHB40-.LFB1573
	.uleb128 .LEHE40-.LEHB40
	.uleb128 .L282-.LFB1573
	.uleb128 0
.LLSDACSE1573:
	.section	".text"
	.size	_ZN11InfosWindow13FoundSaveTypeEv, .-_ZN11InfosWindow13FoundSaveTypeEv
	.globl __floatundisf
	.align 2
	.globl _ZN11InfosWindow8SetInfosESbIwSt11char_traitsIwESaIwEESsbbbb
	.type	_ZN11InfosWindow8SetInfosESbIwSt11char_traitsIwESaIwEESsbbbb, @function
_ZN11InfosWindow8SetInfosESbIwSt11char_traitsIwESaIwEESsbbbb:
.LFB1569:
	.loc 3 110 0
	.cfi_startproc
	.cfi_personality 0,__gxx_personality_v0
	.cfi_lsda 0,.LLSDA1569
.LVL294:
	stwu 1,-128(1)
.LCFI49:
	.cfi_def_cfa_offset 128
	mflr 0
	stw 31,124(1)
	mr 31,3
	.cfi_offset 31, -4
	.cfi_register 65, 0
	stw 23,92(1)
	mr 23,5
	.cfi_offset 23, -36
	stw 26,104(1)
	mr 26,9
	.cfi_offset 26, -24
	stw 27,108(1)
	mr 27,8
	.cfi_offset 27, -20
	stw 28,112(1)
	mr 28,7
	.cfi_offset 28, -16
	stw 29,116(1)
	mr 29,6
	.cfi_offset 29, -12
	stw 30,120(1)
	mr 30,4
	.cfi_offset 30, -8
	stw 0,132(1)
	stw 20,80(1)
	stw 21,84(1)
	stw 22,88(1)
	stw 24,96(1)
	stw 25,100(1)
.LEHB41:
.LBB2315:
	.loc 3 111 0
	.cfi_offset 25, -28
	.cfi_offset 24, -32
	.cfi_offset 22, -40
	.cfi_offset 21, -44
	.cfi_offset 20, -48
	.cfi_offset 65, 4
	bl _ZN8GuiFrame9RemoveAllEv
.LVL295:
	.loc 3 113 0
	lwz 3,192(31)
	cmpwi 7,3,0
	beq- 7,.L297
	.loc 3 114 0 discriminator 1
	lwz 9,0(3)
	lwz 0,4(9)
	mtctr 0
	bctrl
.L297:
	.loc 3 115 0
	lwz 3,196(31)
	cmpwi 7,3,0
	beq- 7,.L298
	.loc 3 116 0 discriminator 1
	lwz 9,0(3)
	lwz 0,4(9)
	mtctr 0
	bctrl
.L298:
	.loc 3 117 0
	lwz 3,200(31)
	cmpwi 7,3,0
	beq- 7,.L299
	.loc 3 118 0 discriminator 1
	lwz 9,0(3)
	lwz 0,4(9)
	mtctr 0
	bctrl
.L299:
	.loc 3 119 0
	lwz 3,204(31)
	cmpwi 7,3,0
	beq- 7,.L300
	.loc 3 120 0 discriminator 1
	lwz 9,0(3)
	lwz 0,4(9)
	mtctr 0
	bctrl
.L300:
	.loc 3 121 0
	lwz 3,208(31)
	cmpwi 7,3,0
	beq- 7,.L301
	.loc 3 122 0 discriminator 1
	lwz 9,0(3)
	lwz 0,4(9)
	mtctr 0
	bctrl
.L301:
	.loc 3 123 0
	lwz 3,212(31)
	cmpwi 7,3,0
	beq- 7,.L302
	.loc 3 124 0 discriminator 1
	lwz 9,0(3)
	lwz 0,4(9)
	mtctr 0
	bctrl
.L302:
	.loc 3 125 0
	lwz 3,216(31)
	cmpwi 7,3,0
	beq- 7,.L303
	.loc 3 126 0 discriminator 1
	lwz 9,0(3)
	lwz 0,4(9)
	mtctr 0
	bctrl
.L303:
	.loc 3 127 0
	li 0,0
	.loc 3 135 0
	stb 29,176(31)
	.loc 3 127 0
	stw 0,192(31)
.LBB2316:
.LBB2317:
.LBB2318:
	.loc 4 1121 0
	lis 4,.LC69@ha
.LBE2318:
.LBE2317:
.LBE2316:
	.loc 3 128 0
	stw 0,196(31)
.LBB2327:
.LBB2323:
.LBB2319:
	.loc 4 1121 0
	li 5,0
.LBE2319:
.LBE2323:
.LBE2327:
	.loc 3 129 0
	stw 0,200(31)
.LBB2328:
.LBB2324:
.LBB2320:
	.loc 4 1121 0
	la 4,.LC69@l(4)
.LBE2320:
.LBE2324:
.LBE2328:
	.loc 3 130 0
	stw 0,204(31)
	.loc 3 140 0
	addi 29,31,184
	.loc 3 131 0
	stw 0,208(31)
.LBB2329:
.LBB2330:
	.loc 4 2005 0
	lis 22,.LC70@ha
.LBE2330:
.LBE2329:
	.loc 3 132 0
	stw 0,212(31)
.LBB2333:
.LBB2331:
	.loc 4 2005 0
	la 22,.LC70@l(22)
.LBE2331:
.LBE2333:
	.loc 3 133 0
	stw 0,216(31)
	.loc 3 136 0
	stb 28,177(31)
	.loc 3 139 0
	addi 28,31,188
.LVL296:
	.loc 3 137 0
	stb 27,178(31)
.LBB2334:
.LBB2325:
.LBB2321:
	.loc 4 1121 0
	mr 3,28
.LBE2321:
.LBE2325:
.LBE2334:
	.loc 3 138 0
	stb 26,179(31)
.LBB2335:
.LBB2326:
.LBB2322:
	.loc 4 1121 0
	bl _ZNSs6assignEPKcj
.LVL297:
.LBE2322:
.LBE2326:
.LBE2335:
.LBB2336:
.LBB2337:
	.loc 4 542 0
	mr 4,23
	mr 3,29
	bl _ZNSs6assignERKSs
.LVL298:
.LBE2337:
.LBE2336:
.LBB2338:
.LBB2332:
	.loc 4 2005 0
	li 5,-1
	mr 3,29
	mr 4,22
	li 6,1
	bl _ZNKSs12find_last_ofEPKcjj
.LVL299:
.LBE2332:
.LBE2338:
.LBB2339:
.LBB2340:
.LBB2341:
.LBB2342:
.LBB2343:
.LBB2344:
	.loc 4 711 0
	lwz 9,184(31)
.LBE2344:
.LBE2343:
.LBE2342:
.LBE2341:
	.loc 4 1349 0
	addi 5,3,1
	lwz 0,-12(9)
	cmplw 7,5,0
	ble- 7,.L304
	mr 5,0
.L304:
	mr 3,29
.LVL300:
	li 4,0
	li 6,0
	bl _ZNSs9_M_mutateEjjj
.LBE2340:
.LBE2339:
.LBB2345:
	.loc 3 143 0
	lbz 0,177(31)
	cmpwi 7,0,0
	bne- 7,.L311
	.loc 3 143 0 is_stmt 0 discriminator 1
	lbz 0,179(31)
	cmpwi 7,0,0
	beq- 7,.L409
.LVL301:
.L311:
.LBE2345:
	.loc 3 152 0 is_stmt 1
	lwz 9,0(31)
	mr 3,31
	lwz 0,36(9)
	mtctr 0
	bctrl
	mr 27,3
.LVL302:
	.loc 3 154 0
	li 3,196
.LVL303:
	bl _Znwj
.LEHE41:
	mr 29,3
.LVL304:
.LEHB42:
	bl _ZN8GuiImageC1Ev
.LEHE42:
	.loc 3 154 0 is_stmt 0 discriminator 1
	stw 29,192(31)
	.loc 3 157 0 is_stmt 1 discriminator 1
	mr 3,31
.LEHB43:
	bl _ZN11InfosWindow14GetIconFromExtEv
	.loc 3 158 0 discriminator 1
	li 4,17
	lwz 9,0(3)
	.loc 3 157 0 discriminator 1
	stw 3,192(31)
	.loc 3 158 0 discriminator 1
	lwz 0,180(9)
	mtctr 0
	bctrl
	.loc 3 159 0 discriminator 1
	lbz 0,177(31)
	lwz 3,192(31)
	li 4,10
	cmpwi 7,0,0
	lwz 9,0(3)
	lwz 0,168(9)
	bne- 7,.L312
	.loc 3 159 0 is_stmt 0 discriminator 2
	lbz 4,178(31)
	addic 4,4,-1
	subfe 4,4,4
	nor 4,4,4
	andi. 4,4,10
.L312:
	.loc 3 159 0 discriminator 4
	mtctr 0
	li 5,0
	bctrl
	.loc 3 160 0 is_stmt 1 discriminator 4
	lbz 0,177(31)
	cmpwi 7,0,0
	bne- 7,.L313
	.loc 3 160 0 is_stmt 0 discriminator 1
	lbz 0,178(31)
	cmpwi 7,0,0
	beq- 7,.L410
.L313:
	.loc 3 161 0 is_stmt 1
	lwz 3,192(31)
	lwz 9,0(3)
	lwz 0,40(9)
	mtctr 0
	bctrl
	.loc 3 163 0
	lbz 0,177(31)
	.loc 3 161 0
	mr 26,3
.LVL305:
	.loc 3 163 0
	cmpwi 7,0,0
	bne- 7,.L314
	.loc 3 163 0 is_stmt 0 discriminator 2
	lbz 0,178(31)
	cmpwi 7,0,0
	bne- 7,.L314
.LVL306:
.L315:
	.loc 3 164 0 is_stmt 1
	mr 3,31
	bl _ZN11InfosWindow11GetTypeIconEv
	mr 28,3
.LVL307:
	li 3,196
	bl _Znwj
.LEHE43:
	mr 4,28
	mr 29,3
.LEHB44:
	bl _ZN8GuiImageC1EP12GuiImageData
.LEHE44:
	.loc 3 165 0 discriminator 1
	lwz 9,0(29)
	mr 3,29
	.loc 3 164 0 discriminator 1
	stw 29,196(31)
	.loc 3 165 0 discriminator 1
	li 4,20
	.loc 3 168 0 discriminator 1
	lis 29,.LC73@ha
	.loc 3 165 0 discriminator 1
	lwz 0,180(9)
	.loc 3 168 0 discriminator 1
	la 29,.LC73@l(29)
	.loc 3 165 0 discriminator 1
	mtctr 0
.LEHB45:
	bctrl
	.loc 3 166 0 discriminator 1
	lwz 3,196(31)
	li 4,-20
	li 5,18
	lwz 9,0(3)
	lwz 0,168(9)
	mtctr 0
	bctrl
.LVL308:
	.loc 3 168 0 discriminator 1
	mr 3,29
.LBB2380:
.LBB2381:
.LBB2382:
	.loc 4 288 0 discriminator 1
	lwz 25,0(30)
.LBE2382:
.LBE2381:
.LBE2380:
	.loc 3 168 0 discriminator 1
	bl getThemeColor
	mr 24,3
	mr 30,1
.LVL309:
	li 3,208
	bl _Znwj
.LEHE45:
	stwu 24,72(30)
	mr 4,25
	li 5,16
	mr 6,30
	mr 28,3
.LEHB46:
	bl _ZN7GuiTextC1EPKwi9_gx_color
.LEHE46:
	.loc 3 169 0 discriminator 1
	lwz 9,0(28)
	mr 3,28
	.loc 3 168 0 discriminator 1
	stw 28,200(31)
	.loc 3 169 0 discriminator 1
	li 4,17
.LBB2383:
.LBB2384:
.LBB2385:
	.loc 4 1000 0 discriminator 1
	lis 24,.LC75@ha
.LBE2385:
.LBE2384:
.LBE2383:
	.loc 3 169 0 discriminator 1
	lwz 0,180(9)
.LBB2390:
.LBB2388:
.LBB2386:
	.loc 4 1000 0 discriminator 1
	la 24,.LC75@l(24)
.LBE2386:
.LBE2388:
.LBE2390:
	.loc 3 169 0 discriminator 1
	mtctr 0
.LEHB47:
	bctrl
	.loc 3 170 0 discriminator 1
	lwz 3,200(31)
	li 4,0
	addi 5,26,10
	lwz 9,0(3)
	lwz 0,168(9)
	mtctr 0
	bctrl
	.loc 3 171 0 discriminator 1
	lwz 3,200(31)
	mr 4,27
	li 5,2
	bl _ZN7GuiText11SetMaxWidthEii
.LVL310:
	.loc 3 174 0 discriminator 1
	lis 3,.LC74@ha
	la 3,.LC74@l(3)
	bl gettext
	addi 5,1,16
	mr 4,3
	addi 3,1,44
	bl _ZNSsC1EPKcRKSaIcE
.LEHE47:
.LVL311:
.LBB2391:
.LBB2389:
.LBB2387:
	.loc 4 1000 0 discriminator 1
	addi 3,1,44
.LVL312:
	mr 4,24
	li 5,1
.LEHB48:
	bl _ZNSs6appendEPKcj
.LVL313:
.LBE2387:
.LBE2389:
.LBE2391:
	.loc 3 176 0
	addi 3,1,40
	mr 4,31
	bl _ZN11InfosWindow14GetTypeFromExtEv
.LEHE48:
.LVL314:
.LBB2392:
.LBB2393:
	.loc 4 925 0
	addi 3,1,44
.LVL315:
	addi 4,1,40
.LVL316:
.LEHB49:
	bl _ZNSs6appendERKSs
.LEHE49:
.LVL317:
.LBE2393:
.LBE2392:
.LBB2394:
.LBB2395:
.LBB2396:
.LBB2397:
.LBB2398:
.LBB2399:
	.loc 4 288 0
	lwz 9,40(1)
.LBE2399:
.LBE2398:
.LBE2397:
.LBB2400:
.LBB2401:
	.loc 4 235 0
	lis 28,_ZNSs4_Rep20_S_empty_rep_storageE@ha
	la 28,_ZNSs4_Rep20_S_empty_rep_storageE@l(28)
.LBE2401:
.LBE2400:
	.loc 4 534 0
	addi 3,9,-12
.LVL318:
.LBB2410:
.LBB2408:
	.loc 4 235 0
	cmpw 7,3,28
	bne- 7,.L411
.LVL319:
.L323:
.LBE2408:
.LBE2410:
.LBE2396:
.LBE2395:
.LBE2394:
	.loc 3 177 0
	mr 3,29
.LBB2414:
.LBB2415:
.LBB2416:
	.loc 4 288 0
	lwz 21,44(1)
.LEHB50:
.LBE2416:
.LBE2415:
.LBE2414:
	.loc 3 177 0
	bl getThemeColor
	mr 20,3
	li 3,208
	bl _Znwj
.LEHE50:
	.loc 3 177 0 is_stmt 0 discriminator 2
	mr 4,21
	li 5,16
	mr 6,30
	mr 25,3
	stw 20,72(1)
.LEHB51:
	bl _ZN7GuiTextC1EPKci9_gx_color
.LEHE51:
	.loc 3 177 0 discriminator 1
	stw 25,204(31)
	.loc 3 178 0 is_stmt 1 discriminator 1
	mr 3,25
	lwz 9,0(25)
	li 4,17
	lwz 0,180(9)
	mtctr 0
.LEHB52:
	bctrl
	.loc 3 179 0
	lwz 3,204(31)
	li 4,0
	addi 5,26,40
	lwz 9,0(3)
	lwz 0,168(9)
	mtctr 0
	bctrl
	.loc 3 180 0
	lwz 3,204(31)
	mr 4,27
	li 5,1
	bl _ZN7GuiText11SetMaxWidthEii
.LVL320:
	.loc 3 183 0
	lis 3,.LC76@ha
	la 3,.LC76@l(3)
	bl gettext
	mr 4,3
	addi 5,1,15
	addi 3,1,36
	bl _ZNSsC1EPKcRKSaIcE
.LEHE52:
.LVL321:
.LBB2417:
.LBB2418:
.LBB2419:
	.loc 4 1000 0
	addi 3,1,36
.LVL322:
	mr 4,24
	li 5,1
.LEHB53:
	bl _ZNSs6appendEPKcj
.LVL323:
.LBE2419:
.LBE2418:
.LBE2417:
.LBB2420:
	.loc 3 185 0
	lbz 0,176(31)
	cmpwi 7,0,0
	bne- 7,.L326
.LBB2421:
	.loc 3 189 0
	lbz 9,177(31)
	.loc 3 187 0
	li 10,0
	li 11,0
	stw 10,56(1)
.LVL324:
	.loc 3 189 0
	cmpwi 7,9,0
	.loc 3 187 0
	stw 11,60(1)
.LVL325:
	.loc 3 188 0
	stw 0,32(1)
.LVL326:
	.loc 3 189 0
	bne- 7,.L412
	.loc 3 192 0
	addi 3,1,24
	mr 4,23
	bl _ZNSsC1ERKSs
.LEHE53:
	.loc 3 192 0 is_stmt 0 discriminator 1
	addi 3,1,24
.LEHB54:
	bl _Z8FileSizeSs
.LEHE54:
.LBB2422:
.LBB2423:
.LBB2424:
.LBB2425:
.LBB2426:
.LBB2427:
	.loc 4 288 0 is_stmt 1 discriminator 1
	lwz 9,24(1)
.LBE2427:
.LBE2426:
.LBE2425:
.LBE2424:
.LBE2423:
.LBE2422:
	.loc 3 192 0 discriminator 1
	stw 3,56(1)
.LBB2448:
.LBB2444:
.LBB2440:
	.loc 4 534 0 discriminator 1
	addi 0,9,-12
.LBE2440:
.LBE2444:
.LBE2448:
	.loc 3 192 0 discriminator 1
	stw 4,60(1)
.LVL327:
.LBB2449:
.LBB2445:
.LBB2441:
.LBB2428:
.LBB2429:
	.loc 4 235 0 discriminator 1
	cmpw 7,0,28
	bne- 7,.L413
.LVL328:
.L341:
.LBE2429:
.LBE2428:
.LBE2441:
.LBE2445:
.LBE2449:
	.loc 3 194 0
	bl __floatundisf
	lis 9,.LC77@ha
	lfs 0,.LC77@l(9)
	fcmpu 7,1,0
	blt- 7,.L414
.L402:
	.loc 3 196 0
	bng- 7,.L345
	.loc 3 196 0 is_stmt 0 discriminator 1
	lis 9,.LC80@ha
	lfs 0,.LC80@l(9)
	fcmpu 7,1,0
	blt- 7,.L415
.L345:
	.loc 3 199 0 is_stmt 1
	lis 9,.LC84@ha
	lis 3,.LC83@ha
	lfs 0,.LC84@l(9)
	la 3,.LC83@l(3)
	fmuls 1,1,0
.LEHB55:
	creqv 6,6,6
	bl _Z3fmtPKcz
.L405:
.LBE2421:
	.loc 3 202 0
	mr 25,3
.LVL329:
.LBB2471:
.LBB2472:
.LBB2473:
.LBB2474:
.LBB2475:
	.file 6 "d:\\devkitpro\\devkitppc\\bin\\../lib/gcc/powerpc-eabi/4.6.3/../../../../powerpc-eabi/include/c++/4.6.3/bits/char_traits.h"
	.loc 6 261 0
	bl strlen
.LVL330:
	mr 5,3
.LBE2475:
.LBE2474:
	.loc 4 1000 0
	mr 4,25
	addi 3,1,36
.LVL331:
	bl _ZNSs6appendEPKcj
.LVL332:
.LBE2473:
.LBE2472:
.LBE2471:
.LBE2420:
	.loc 3 204 0
	mr 3,29
.LBB2480:
.LBB2481:
.LBB2482:
	.loc 4 288 0
	lwz 24,36(1)
.LBE2482:
.LBE2481:
.LBE2480:
	.loc 3 204 0
	bl getThemeColor
	mr 21,3
	li 3,208
	bl _Znwj
.LEHE55:
	.loc 3 204 0 is_stmt 0 discriminator 2
	mr 4,24
	li 5,16
	mr 6,30
	mr 25,3
.LVL333:
	stw 21,72(1)
.LEHB56:
	bl _ZN7GuiTextC1EPKci9_gx_color
.LEHE56:
	.loc 3 204 0 discriminator 1
	stw 25,208(31)
	.loc 3 205 0 is_stmt 1 discriminator 1
	mr 3,25
	lwz 9,0(25)
	li 4,17
	lwz 0,180(9)
	mtctr 0
.LEHB57:
	bctrl
	.loc 3 206 0
	lwz 3,208(31)
	li 4,0
	addi 5,26,62
	lwz 9,0(3)
	lwz 0,168(9)
	mtctr 0
	bctrl
	.loc 3 207 0
	lwz 3,208(31)
	mr 4,27
	li 5,1
	bl _ZN7GuiText11SetMaxWidthEii
.LVL334:
	.loc 3 211 0
	addi 3,1,20
	mr 4,23
	bl _ZNSsC1ERKSs
.LEHE57:
.LVL335:
.LBB2483:
.LBB2484:
	.loc 4 2005 0
	addi 3,1,20
.LVL336:
	mr 4,22
	li 5,-1
	li 6,1
.LEHB58:
	bl _ZNKSs12find_last_ofEPKcjj
.LVL337:
.LBE2484:
.LBE2483:
.LBB2485:
.LBB2486:
.LBB2487:
.LBB2488:
.LBB2489:
.LBB2490:
	.loc 4 711 0
	lwz 9,20(1)
.LBE2490:
.LBE2489:
.LBE2488:
.LBE2487:
.LBE2486:
.LBE2485:
	.loc 3 212 0
	addi 4,3,1
.LVL338:
.LBB2499:
.LBB2497:
.LBB2495:
.LBB2493:
.LBB2492:
.LBB2491:
	.loc 4 711 0
	lwz 5,-12(9)
.LBE2491:
.LBE2492:
	.loc 4 318 0
	cmplw 7,4,5
	bgt- 7,.L416
.LVL339:
.LBE2493:
.LBE2495:
	.loc 4 1349 0
	addi 3,1,20
.LVL340:
	subf 5,4,5
	li 6,0
	bl _ZNSs9_M_mutateEjjj
.LVL341:
.LBE2497:
.LBE2499:
	.loc 3 214 0
	mr 3,29
.LBB2500:
.LBB2501:
.LBB2502:
	.loc 4 288 0
	lwz 25,20(1)
.LBE2502:
.LBE2501:
.LBE2500:
	.loc 3 214 0
	bl getThemeColor
	mr 24,3
	li 3,208
	bl _Znwj
.LEHE58:
	.loc 3 214 0 is_stmt 0 discriminator 2
	mr 4,25
	li 5,16
	mr 6,30
	mr 26,3
.LVL342:
	stw 24,72(1)
.LEHB59:
	bl _ZN7GuiTextC1EPKci9_gx_color
.LEHE59:
	.loc 3 214 0 discriminator 1
	stw 26,216(31)
	.loc 3 215 0 is_stmt 1 discriminator 1
	mr 3,26
	lwz 9,0(26)
	li 4,65
	lwz 0,180(9)
	mtctr 0
.LEHB60:
	bctrl
	.loc 3 216 0
	lwz 3,216(31)
	li 4,0
	li 5,-40
	lwz 9,0(3)
	lwz 0,168(9)
	mtctr 0
	bctrl
	.loc 3 217 0
	lwz 3,216(31)
.LVL343:
.LBB2503:
.LBB2504:
	.file 7 "d:/Projects/SaveGameManager/savegame-manager-gx/trunk/source/Files/../GUI/gui_text.h"
	.loc 7 89 0
	li 0,3
.LBE2504:
.LBE2503:
	.loc 3 218 0
	mr 4,27
	li 5,0
.LBB2506:
.LBB2505:
	.loc 7 89 0
	stw 0,200(3)
.LBE2505:
.LBE2506:
	.loc 3 218 0
	bl _ZN7GuiText11SetMaxWidthEii
.LVL344:
	.loc 3 221 0
	lis 3,.LC86@ha
	la 3,.LC86@l(3)
	bl gettext
	mr 26,3
	mr 3,29
	bl getThemeColor
	.loc 3 221 0 is_stmt 0 discriminator 1
	mr 27,3
.LVL345:
	li 3,208
	bl _Znwj
.LEHE60:
	.loc 3 221 0 discriminator 2
	mr 4,26
	li 5,16
	mr 6,30
	mr 29,3
	stw 27,72(1)
.LEHB61:
	bl _ZN7GuiTextC1EPKci9_gx_color
.LEHE61:
	.loc 3 221 0 discriminator 1
	stw 29,212(31)
	.loc 3 222 0 is_stmt 1 discriminator 1
	mr 3,29
	lwz 9,0(29)
	li 4,65
	lwz 0,180(9)
	mtctr 0
.LEHB62:
	bctrl
	.loc 3 223 0
	lwz 3,212(31)
	li 4,0
	li 5,-58
	lwz 9,0(3)
	lwz 0,168(9)
	mtctr 0
	bctrl
	.loc 3 225 0
	lwz 4,192(31)
	mr 3,31
	bl _ZN8GuiFrame6AppendEP10GuiElement
	.loc 3 226 0
	lbz 0,177(31)
	cmpwi 7,0,0
	bne- 7,.L349
	.loc 3 226 0 is_stmt 0 discriminator 2
	lbz 0,178(31)
	cmpwi 7,0,0
	beq- 7,.L350
.L349:
	.loc 3 226 0 discriminator 1
	lwz 4,196(31)
	mr 3,31
	bl _ZN8GuiFrame6AppendEP10GuiElement
.L350:
	.loc 3 227 0 is_stmt 1
	lwz 4,200(31)
	mr 3,31
	bl _ZN8GuiFrame6AppendEP10GuiElement
	.loc 3 228 0
	lwz 4,204(31)
	mr 3,31
	bl _ZN8GuiFrame6AppendEP10GuiElement
	.loc 3 229 0
	lwz 4,208(31)
	mr 3,31
	bl _ZN8GuiFrame6AppendEP10GuiElement
	.loc 3 230 0
	lwz 4,212(31)
	mr 3,31
	bl _ZN8GuiFrame6AppendEP10GuiElement
	.loc 3 231 0
	lwz 4,216(31)
	mr 3,31
	bl _ZN8GuiFrame6AppendEP10GuiElement
.LEHE62:
.LVL346:
.LBB2507:
.LBB2508:
.LBB2509:
.LBB2510:
.LBB2511:
.LBB2512:
	.loc 4 288 0
	lwz 9,20(1)
.LBE2512:
.LBE2511:
.LBE2510:
	.loc 4 534 0
	addi 3,9,-12
.LVL347:
.LBB2513:
.LBB2514:
	.loc 4 235 0
	cmpw 7,3,28
	bne- 7,.L417
.LVL348:
.L356:
.LBE2514:
.LBE2513:
.LBE2509:
.LBE2508:
.LBE2507:
.LBB2525:
.LBB2526:
.LBB2527:
.LBB2528:
.LBB2529:
.LBB2530:
	.loc 4 288 0
	lwz 9,36(1)
.LBE2530:
.LBE2529:
.LBE2528:
	.loc 4 534 0
	addi 3,9,-12
.LVL349:
.LBB2531:
.LBB2532:
	.loc 4 235 0
	cmpw 7,3,28
	bne- 7,.L418
.LVL350:
.L362:
.LBE2532:
.LBE2531:
.LBE2527:
.LBE2526:
.LBE2525:
.LBB2543:
.LBB2544:
.LBB2545:
.LBB2546:
.LBB2547:
.LBB2548:
	.loc 4 288 0
	lwz 9,44(1)
.LBE2548:
.LBE2547:
.LBE2546:
	.loc 4 534 0
	addi 3,9,-12
.LVL351:
.LBB2549:
.LBB2550:
	.loc 4 235 0
	cmpw 7,3,28
	bne- 7,.L419
.LVL352:
.L296:
.LBE2550:
.LBE2549:
.LBE2545:
.LBE2544:
.LBE2543:
.LBE2315:
	.loc 3 232 0
	lwz 0,132(1)
	lwz 20,80(1)
	mtlr 0
	lwz 21,84(1)
	lwz 22,88(1)
	lwz 23,92(1)
.LVL353:
	lwz 24,96(1)
	lwz 25,100(1)
	lwz 26,104(1)
	lwz 27,108(1)
	lwz 28,112(1)
	lwz 29,116(1)
	lwz 30,120(1)
	lwz 31,124(1)
.LVL354:
	addi 1,1,128
	.cfi_remember_state
.LCFI50:
	.cfi_def_cfa_offset 0
	.cfi_restore 31
	.cfi_restore 30
	.cfi_restore 29
	.cfi_restore 28
	.cfi_restore 27
	.cfi_restore 26
	.cfi_restore 25
	.cfi_restore 24
	.cfi_restore 23
	.cfi_restore 22
	.cfi_restore 21
	.cfi_restore 20
	blr
.LVL355:
.L314:
.LCFI51:
	.cfi_restore_state
.LBB2573:
	.loc 3 163 0 discriminator 1
	mr 3,31
.LVL356:
.LEHB63:
	bl _ZN11InfosWindow13FoundSaveTypeEv
.LEHE63:
	b .L315
.LVL357:
.L412:
.LBB2561:
.LBB2476:
	.loc 3 190 0
	addi 3,1,28
	mr 4,23
.LEHB64:
	bl _ZNSsC1ERKSs
.LEHE64:
	.loc 3 190 0 is_stmt 0 discriminator 1
	addi 3,1,28
	addi 4,1,56
	addi 5,1,32
.LEHB65:
	bl _Z13GetFolderSizeSsPyPj
.LEHE65:
.LVL358:
.LBB2450:
.LBB2451:
.LBB2452:
.LBB2453:
.LBB2454:
.LBB2455:
	.loc 4 288 0 is_stmt 1
	lwz 9,28(1)
.LBE2455:
.LBE2454:
.LBE2453:
	.loc 4 534 0
	addi 3,9,-12
.LVL359:
.LBB2456:
.LBB2457:
	.loc 4 235 0
	cmpw 7,3,28
	bne- 7,.L328
.LVL360:
.L403:
.LBE2457:
.LBE2456:
.LBE2452:
.LBE2451:
.LBE2450:
.LBB2468:
.LBB2446:
.LBB2442:
.LBB2438:
.LBB2436:
	.loc 4 244 0
	lwz 3,56(1)
	lwz 4,60(1)
.LBE2436:
.LBE2438:
.LBE2442:
.LBE2446:
.LBE2468:
	.loc 3 194 0
	bl __floatundisf
	lis 9,.LC77@ha
	lfs 0,.LC77@l(9)
	fcmpu 7,1,0
	bnl+ 7,.L402
.L414:
	.loc 3 195 0
	lis 9,.LC79@ha
	lis 3,.LC78@ha
	lfs 0,.LC79@l(9)
	la 3,.LC78@l(3)
	fmuls 1,1,0
.LEHB66:
	creqv 6,6,6
	bl _Z3fmtPKcz
.LEHE66:
	b .L405
.LVL361:
.L409:
.LBE2476:
.LBE2561:
.LBB2562:
	.loc 3 143 0 discriminator 2
	lbz 0,176(31)
	cmpwi 7,0,0
	bne- 7,.L311
	.loc 3 143 0 is_stmt 0 discriminator 3
	lbz 0,178(31)
	cmpwi 7,0,0
	bne+ 7,.L311
.LVL362:
.LBB2346:
.LBB2347:
.LBB2348:
	.loc 4 542 0 is_stmt 1
	mr 4,29
	mr 3,28
.LEHB67:
	bl _ZNSs6assignERKSs
.LVL363:
.LBE2348:
.LBE2347:
.LBB2349:
.LBB2350:
	.loc 4 2022 0
	li 5,-1
	mr 3,28
	li 4,46
	bl _ZNKSs5rfindEcj
.LVL364:
.LBE2350:
.LBE2349:
	.loc 3 147 0
	mr. 5,3
	ble- 0,.L311
.LVL365:
.LBB2351:
.LBB2352:
.LBB2353:
.LBB2354:
.LBB2355:
.LBB2356:
	.loc 4 711 0
	lwz 9,188(31)
.LBE2356:
.LBE2355:
	.loc 4 318 0
	lwz 0,-12(9)
	cmplw 7,5,0
	bgt- 7,.L420
.LBE2354:
.LBE2353:
	.loc 4 2157 0
	addi 3,1,48
.LVL366:
	mr 4,28
	li 6,-1
	bl _ZNSsC1ERKSsjj
.LEHE67:
.LVL367:
.LBE2352:
.LBE2351:
.LBB2360:
.LBB2361:
	.loc 4 542 0
	mr 3,28
	addi 4,1,48
.LVL368:
.LEHB68:
	bl _ZNSs6assignERKSs
.LEHE68:
.LVL369:
.LBE2361:
.LBE2360:
.LBB2362:
.LBB2363:
.LBB2364:
.LBB2365:
.LBB2366:
.LBB2367:
	.loc 4 288 0
	lwz 9,48(1)
.LBE2367:
.LBE2366:
.LBE2365:
.LBB2368:
.LBB2369:
	.loc 4 235 0
	lis 11,_ZNSs4_Rep20_S_empty_rep_storageE@ha
	la 0,_ZNSs4_Rep20_S_empty_rep_storageE@l(11)
.LBE2369:
.LBE2368:
	.loc 4 534 0
	addi 3,9,-12
.LVL370:
.LBB2377:
.LBB2376:
	.loc 4 235 0
	cmpw 7,3,0
	beq+ 7,.L311
.LVL371:
.LBB2370:
.LBB2371:
.LBB2372:
	.loc 5 66 0
	lwz 11,-4(9)
.LVL372:
.LBE2372:
.LBE2371:
.LBE2370:
	.loc 4 240 0
	cmpwi 7,11,0
.LBB2375:
.LBB2374:
.LBB2373:
	.loc 5 67 0
	addi 11,11,-1
	stw 11,-4(9)
.LBE2373:
.LBE2374:
.LBE2375:
	.loc 4 240 0
	bgt+ 7,.L311
	.loc 4 244 0
	addi 4,1,14
	bl _ZNSs4_Rep10_M_destroyERKSaIcE
.LVL373:
	b .L311
.LVL374:
.L326:
.LBE2376:
.LBE2377:
.LBE2364:
.LBE2363:
.LBE2362:
.LBE2346:
.LBE2562:
.LBB2563:
	.loc 3 202 0
	lis 3,.LC85@ha
	la 3,.LC85@l(3)
.LEHB69:
	bl gettext
.LEHE69:
	b .L405
.LVL375:
.L410:
.LBE2563:
	.loc 3 160 0 discriminator 2
	lwz 3,192(31)
	lwz 9,0(3)
	lwz 0,104(9)
	lis 9,.LC72@ha
	lfs 1,.LC72@l(9)
	mtctr 0
.LEHB70:
	bctrl
.LEHE70:
	b .L313
.LVL376:
.L415:
.LBB2564:
.LBB2477:
	.loc 3 197 0
	lis 9,.LC82@ha
	lis 3,.LC81@ha
	lfs 0,.LC82@l(9)
	la 3,.LC81@l(3)
	fmuls 1,1,0
.LEHB71:
	creqv 6,6,6
	bl _Z3fmtPKcz
.LEHE71:
	b .L405
.LVL377:
.L416:
.LBE2477:
.LBE2564:
.LBB2565:
.LBB2498:
.LBB2496:
.LBB2494:
	.loc 4 319 0
	lis 3,.LC50@ha
	la 3,.LC50@l(3)
.LEHB72:
	bl _ZSt20__throw_out_of_rangePKc
.LEHE72:
.LVL378:
.L396:
	mr 31,3
.LVL379:
.L381:
.LBE2494:
.LBE2496:
.LBE2498:
.LBE2565:
	.loc 3 231 0
	addi 3,1,20
.LVL380:
	bl _ZNSsD1Ev
.LVL381:
.L377:
	addi 3,1,36
.LVL382:
	bl _ZNSsD1Ev
.LVL383:
.L374:
	addi 3,1,44
.LVL384:
	bl _ZNSsD1Ev
.LVL385:
	mr 3,31
.LEHB73:
	bl _Unwind_Resume
.LVL386:
.L411:
.LBB2566:
.LBB2413:
.LBB2412:
.LBB2411:
.LBB2409:
.LBB2402:
.LBB2403:
.LBB2404:
	.loc 5 66 0
	lwz 11,-4(9)
.LVL387:
.LBE2404:
.LBE2403:
.LBE2402:
	.loc 4 240 0
	cmpwi 7,11,0
.LBB2407:
.LBB2406:
.LBB2405:
	.loc 5 67 0
	addi 11,11,-1
	stw 11,-4(9)
.LBE2405:
.LBE2406:
.LBE2407:
	.loc 4 240 0
	bgt+ 7,.L323
	.loc 4 244 0
	addi 4,1,13
	bl _ZNSs4_Rep10_M_destroyERKSaIcE
.LVL388:
	b .L323
.LVL389:
.L417:
.LBE2409:
.LBE2411:
.LBE2412:
.LBE2413:
.LBE2566:
.LBB2567:
.LBB2524:
.LBB2523:
.LBB2522:
.LBB2521:
.LBB2515:
.LBB2516:
.LBB2517:
	.loc 5 66 0
	lwz 11,-4(9)
.LVL390:
.LBE2517:
.LBE2516:
.LBE2515:
	.loc 4 240 0
	cmpwi 7,11,0
.LBB2520:
.LBB2519:
.LBB2518:
	.loc 5 67 0
	addi 11,11,-1
	stw 11,-4(9)
.LBE2518:
.LBE2519:
.LBE2520:
	.loc 4 240 0
	bgt+ 7,.L356
	.loc 4 244 0
	addi 4,1,10
	bl _ZNSs4_Rep10_M_destroyERKSaIcE
.LVL391:
	b .L356
.LVL392:
.L418:
.LBE2521:
.LBE2522:
.LBE2523:
.LBE2524:
.LBE2567:
.LBB2568:
.LBB2542:
.LBB2541:
.LBB2540:
.LBB2539:
.LBB2533:
.LBB2534:
.LBB2535:
	.loc 5 66 0
	lwz 11,-4(9)
.LVL393:
.LBE2535:
.LBE2534:
.LBE2533:
	.loc 4 240 0
	cmpwi 7,11,0
.LBB2538:
.LBB2537:
.LBB2536:
	.loc 5 67 0
	addi 11,11,-1
	stw 11,-4(9)
.LBE2536:
.LBE2537:
.LBE2538:
	.loc 4 240 0
	bgt+ 7,.L362
	.loc 4 244 0
	addi 4,1,9
	bl _ZNSs4_Rep10_M_destroyERKSaIcE
.LVL394:
	b .L362
.LVL395:
.L419:
.LBE2539:
.LBE2540:
.LBE2541:
.LBE2542:
.LBE2568:
.LBB2569:
.LBB2560:
.LBB2559:
.LBB2558:
.LBB2557:
.LBB2551:
.LBB2552:
.LBB2553:
	.loc 5 66 0
	lwz 11,-4(9)
.LVL396:
.LBE2553:
.LBE2552:
.LBE2551:
	.loc 4 240 0
	cmpwi 7,11,0
.LBB2556:
.LBB2555:
.LBB2554:
	.loc 5 67 0
	addi 11,11,-1
	stw 11,-4(9)
.LBE2554:
.LBE2555:
.LBE2556:
	.loc 4 240 0
	bgt+ 7,.L296
	.loc 4 244 0
	addi 4,1,8
	bl _ZNSs4_Rep10_M_destroyERKSaIcE
.LVL397:
	b .L296
.LVL398:
.L413:
.LBE2557:
.LBE2558:
.LBE2559:
.LBE2560:
.LBE2569:
.LBB2570:
.LBB2478:
.LBB2469:
.LBB2447:
.LBB2443:
.LBB2439:
.LBB2437:
.LBB2430:
.LBB2431:
.LBB2432:
	.loc 5 66 0
	lwz 11,-4(9)
.LVL399:
.LBE2432:
.LBE2431:
.LBE2430:
	.loc 4 240 0
	cmpwi 7,11,0
.LBB2435:
.LBB2434:
.LBB2433:
	.loc 5 67 0
	addi 11,11,-1
	stw 11,-4(9)
.LBE2433:
.LBE2434:
.LBE2435:
	.loc 4 240 0
	bgt+ 7,.L341
	.loc 4 244 0
	mr 3,0
	addi 4,1,11
	bl _ZNSs4_Rep10_M_destroyERKSaIcE
.LVL400:
	b .L403
.LVL401:
.L328:
.LBE2437:
.LBE2439:
.LBE2443:
.LBE2447:
.LBE2469:
.LBB2470:
.LBB2467:
.LBB2466:
.LBB2465:
.LBB2464:
.LBB2458:
.LBB2459:
.LBB2460:
	.loc 5 66 0
	lwz 11,-4(9)
.LVL402:
.LBE2460:
.LBE2459:
.LBE2458:
	.loc 4 240 0
	cmpwi 7,11,0
.LBB2463:
.LBB2462:
.LBB2461:
	.loc 5 67 0
	addi 11,11,-1
	stw 11,-4(9)
.LBE2461:
.LBE2462:
.LBE2463:
	.loc 4 240 0
	bgt+ 7,.L403
	.loc 4 244 0
	addi 4,1,12
	bl _ZNSs4_Rep10_M_destroyERKSaIcE
.LVL403:
	lwz 3,56(1)
	lwz 4,60(1)
	b .L341
.LVL404:
.L393:
	mr 31,3
.LVL405:
.LBE2464:
.LBE2465:
.LBE2466:
.LBE2467:
.LBE2470:
	.loc 3 190 0
	addi 3,1,28
	bl _ZNSsD1Ev
	b .L377
.LVL406:
.L385:
	mr 31,3
.LVL407:
.LBE2478:
.LBE2570:
.LBB2571:
.LBB2379:
	.loc 3 148 0
	addi 3,1,48
.LVL408:
	bl _ZNSsD1Ev
.LVL409:
	mr 3,31
	bl _Unwind_Resume
.LVL410:
.L420:
.LBB2378:
.LBB2359:
.LBB2358:
.LBB2357:
	.loc 4 319 0
	lis 3,.LC71@ha
.LVL411:
	la 3,.LC71@l(3)
	bl _ZSt20__throw_out_of_rangePKc
.LVL412:
.L388:
	mr 31,3
.LVL413:
.LBE2357:
.LBE2358:
.LBE2359:
.LBE2378:
.LBE2379:
.LBE2571:
	.loc 3 168 0
	mr 3,28
	bl _ZdlPv
	mr 3,31
	bl _Unwind_Resume
.LVL414:
.L386:
.L408:
	mr 31,3
.LVL415:
	.loc 3 164 0
	mr 3,29
	bl _ZdlPv
	mr 3,31
	bl _Unwind_Resume
.LEHE73:
.LVL416:
.L387:
	b .L408
.LVL417:
.L392:
	mr 31,3
.LVL418:
	b .L377
.LVL419:
.L390:
	mr 31,3
.LVL420:
	.loc 3 176 0
	addi 3,1,40
.LVL421:
	bl _ZNSsD1Ev
.LVL422:
	b .L374
.LVL423:
.L395:
	mr 31,3
.LVL424:
	.loc 3 204 0
	mr 3,25
	bl _ZdlPv
	b .L377
.LVL425:
.L389:
	mr 31,3
.LVL426:
	b .L374
.LVL427:
.L391:
	mr 31,3
.LVL428:
	.loc 3 177 0
	mr 3,25
	bl _ZdlPv
	b .L374
.LVL429:
.L394:
	mr 31,3
.LVL430:
.LBB2572:
.LBB2479:
	.loc 3 192 0
	addi 3,1,24
	bl _ZNSsD1Ev
	b .L377
.LVL431:
.L398:
	mr 31,3
.LVL432:
.LBE2479:
.LBE2572:
	.loc 3 221 0
	mr 3,29
	bl _ZdlPv
	b .L381
.LVL433:
.L397:
	mr 31,3
.LVL434:
	.loc 3 214 0
	mr 3,26
	bl _ZdlPv
	b .L381
.LBE2573:
	.cfi_endproc
.LFE1569:
	.section	.gcc_except_table
.LLSDA1569:
	.byte	0xff
	.byte	0xff
	.byte	0x1
	.uleb128 .LLSDACSE1569-.LLSDACSB1569
.LLSDACSB1569:
	.uleb128 .LEHB41-.LFB1569
	.uleb128 .LEHE41-.LEHB41
	.uleb128 0
	.uleb128 0
	.uleb128 .LEHB42-.LFB1569
	.uleb128 .LEHE42-.LEHB42
	.uleb128 .L386-.LFB1569
	.uleb128 0
	.uleb128 .LEHB43-.LFB1569
	.uleb128 .LEHE43-.LEHB43
	.uleb128 0
	.uleb128 0
	.uleb128 .LEHB44-.LFB1569
	.uleb128 .LEHE44-.LEHB44
	.uleb128 .L387-.LFB1569
	.uleb128 0
	.uleb128 .LEHB45-.LFB1569
	.uleb128 .LEHE45-.LEHB45
	.uleb128 0
	.uleb128 0
	.uleb128 .LEHB46-.LFB1569
	.uleb128 .LEHE46-.LEHB46
	.uleb128 .L388-.LFB1569
	.uleb128 0
	.uleb128 .LEHB47-.LFB1569
	.uleb128 .LEHE47-.LEHB47
	.uleb128 0
	.uleb128 0
	.uleb128 .LEHB48-.LFB1569
	.uleb128 .LEHE48-.LEHB48
	.uleb128 .L389-.LFB1569
	.uleb128 0
	.uleb128 .LEHB49-.LFB1569
	.uleb128 .LEHE49-.LEHB49
	.uleb128 .L390-.LFB1569
	.uleb128 0
	.uleb128 .LEHB50-.LFB1569
	.uleb128 .LEHE50-.LEHB50
	.uleb128 .L389-.LFB1569
	.uleb128 0
	.uleb128 .LEHB51-.LFB1569
	.uleb128 .LEHE51-.LEHB51
	.uleb128 .L391-.LFB1569
	.uleb128 0
	.uleb128 .LEHB52-.LFB1569
	.uleb128 .LEHE52-.LEHB52
	.uleb128 .L389-.LFB1569
	.uleb128 0
	.uleb128 .LEHB53-.LFB1569
	.uleb128 .LEHE53-.LEHB53
	.uleb128 .L392-.LFB1569
	.uleb128 0
	.uleb128 .LEHB54-.LFB1569
	.uleb128 .LEHE54-.LEHB54
	.uleb128 .L394-.LFB1569
	.uleb128 0
	.uleb128 .LEHB55-.LFB1569
	.uleb128 .LEHE55-.LEHB55
	.uleb128 .L392-.LFB1569
	.uleb128 0
	.uleb128 .LEHB56-.LFB1569
	.uleb128 .LEHE56-.LEHB56
	.uleb128 .L395-.LFB1569
	.uleb128 0
	.uleb128 .LEHB57-.LFB1569
	.uleb128 .LEHE57-.LEHB57
	.uleb128 .L392-.LFB1569
	.uleb128 0
	.uleb128 .LEHB58-.LFB1569
	.uleb128 .LEHE58-.LEHB58
	.uleb128 .L396-.LFB1569
	.uleb128 0
	.uleb128 .LEHB59-.LFB1569
	.uleb128 .LEHE59-.LEHB59
	.uleb128 .L397-.LFB1569
	.uleb128 0
	.uleb128 .LEHB60-.LFB1569
	.uleb128 .LEHE60-.LEHB60
	.uleb128 .L396-.LFB1569
	.uleb128 0
	.uleb128 .LEHB61-.LFB1569
	.uleb128 .LEHE61-.LEHB61
	.uleb128 .L398-.LFB1569
	.uleb128 0
	.uleb128 .LEHB62-.LFB1569
	.uleb128 .LEHE62-.LEHB62
	.uleb128 .L396-.LFB1569
	.uleb128 0
	.uleb128 .LEHB63-.LFB1569
	.uleb128 .LEHE63-.LEHB63
	.uleb128 0
	.uleb128 0
	.uleb128 .LEHB64-.LFB1569
	.uleb128 .LEHE64-.LEHB64
	.uleb128 .L392-.LFB1569
	.uleb128 0
	.uleb128 .LEHB65-.LFB1569
	.uleb128 .LEHE65-.LEHB65
	.uleb128 .L393-.LFB1569
	.uleb128 0
	.uleb128 .LEHB66-.LFB1569
	.uleb128 .LEHE66-.LEHB66
	.uleb128 .L392-.LFB1569
	.uleb128 0
	.uleb128 .LEHB67-.LFB1569
	.uleb128 .LEHE67-.LEHB67
	.uleb128 0
	.uleb128 0
	.uleb128 .LEHB68-.LFB1569
	.uleb128 .LEHE68-.LEHB68
	.uleb128 .L385-.LFB1569
	.uleb128 0
	.uleb128 .LEHB69-.LFB1569
	.uleb128 .LEHE69-.LEHB69
	.uleb128 .L392-.LFB1569
	.uleb128 0
	.uleb128 .LEHB70-.LFB1569
	.uleb128 .LEHE70-.LEHB70
	.uleb128 0
	.uleb128 0
	.uleb128 .LEHB71-.LFB1569
	.uleb128 .LEHE71-.LEHB71
	.uleb128 .L392-.LFB1569
	.uleb128 0
	.uleb128 .LEHB72-.LFB1569
	.uleb128 .LEHE72-.LEHB72
	.uleb128 .L396-.LFB1569
	.uleb128 0
	.uleb128 .LEHB73-.LFB1569
	.uleb128 .LEHE73-.LEHB73
	.uleb128 0
	.uleb128 0
.LLSDACSE1569:
	.section	".text"
	.size	_ZN11InfosWindow8SetInfosESbIwSt11char_traitsIwESaIwEESsbbbb, .-_ZN11InfosWindow8SetInfosESbIwSt11char_traitsIwESaIwEESsbbbb
	.weak	_ZTS11InfosWindow
	.section	.rodata._ZTS11InfosWindow,"aG",@progbits,_ZTS11InfosWindow,comdat
	.align 2
	.type	_ZTS11InfosWindow, @object
	.size	_ZTS11InfosWindow, 14
_ZTS11InfosWindow:
	.string	"11InfosWindow"
	.weak	_ZTI11InfosWindow
	.section	.rodata._ZTI11InfosWindow,"aG",@progbits,_ZTI11InfosWindow,comdat
	.align 2
	.type	_ZTI11InfosWindow, @object
	.size	_ZTI11InfosWindow, 12
_ZTI11InfosWindow:
	.long	_ZTVN10__cxxabiv120__si_class_type_infoE+8
	.long	_ZTS11InfosWindow
	.long	_ZTI8GuiFrame
	.weak	_ZTV11InfosWindow
	.section	.rodata._ZTV11InfosWindow,"aG",@progbits,_ZTV11InfosWindow,comdat
	.align 3
	.type	_ZTV11InfosWindow, @object
	.size	_ZTV11InfosWindow, 228
_ZTV11InfosWindow:
	.long	0
	.long	_ZTI11InfosWindow
	.long	_ZN11InfosWindowD1Ev
	.long	_ZN11InfosWindowD0Ev
	.long	_ZN10GuiElement9SetParentEPS_
	.long	_ZN10GuiElement9GetParentEv
	.long	_ZN10GuiElement7GetLeftEv
	.long	_ZN10GuiElement6GetTopEv
	.long	_ZN10GuiElement12GetZPositionEv
	.long	_ZN10GuiElement10GetLeftPosEv
	.long	_ZN10GuiElement9GetTopPosEv
	.long	_ZN10GuiElement8GetWidthEv
	.long	_ZN10GuiElement9GetHeightEv
	.long	_ZN10GuiElement7SetSizeEii
	.long	_ZN8GuiFrame10SetVisibleEb
	.long	_ZN10GuiElement9IsVisibleEv
	.long	_ZN10GuiElement12IsSelectableEv
	.long	_ZN10GuiElement11IsClickableEv
	.long	_ZN10GuiElement10IsHoldableEv
	.long	_ZN10GuiElement13SetSelectableEb
	.long	_ZN10GuiElement12SetClickableEb
	.long	_ZN10GuiElement11SetHoldableEb
	.long	_ZN10GuiElement8SetStateEii
	.long	_ZN10GuiElement8GetStateEv
	.long	_ZN10GuiElement12GetStateChanEv
	.long	_ZN8GuiFrame10ResetStateEv
	.long	_ZN10GuiElement8SetAlphaEi
	.long	_ZN10GuiElement8GetAlphaEv
	.long	_ZN10GuiElement8SetScaleEf
	.long	_ZN10GuiElement9SetScaleXEf
	.long	_ZN10GuiElement9SetScaleYEf
	.long	_ZN10GuiElement8GetScaleEv
	.long	_ZN10GuiElement9GetScaleXEv
	.long	_ZN10GuiElement9GetScaleYEv
	.long	_ZN10GuiElement6RumbleEv
	.long	_ZN10GuiElement9SetRumbleEb
	.long	_ZN10GuiElement9SetEffectEiii
	.long	_ZN10GuiElement15SetEffectOnOverEiii
	.long	_ZN10GuiElement13SetEffectGrowEv
	.long	_ZN10GuiElement12ResetEffectsEv
	.long	_ZNK10GuiElement9GetEffectEv
	.long	_ZNK10GuiElement10IsAnimatedEv
	.long	_ZN8GuiFrame9SetBoundsE4RectIiE
	.long	_ZN10GuiElement8IsInsideEii
	.long	_ZN10GuiElement11SetPositionEii
	.long	_ZN10GuiElement11SetPositionEiii
	.long	_ZN8GuiFrame11GetSelectedEv
	.long	_ZN10GuiElement12SetAlignmentEi
	.long	_ZNK10GuiElement12GetAlignmentEv
	.long	_ZN8GuiFrame6UpdateEP10GuiTrigger
	.long	_ZN8GuiFrame4DrawEv
	.long	_ZN10GuiElement13UpdateEffectsEv
	.long	_ZN8GuiFrame5CloseEv
	.long	_ZN8GuiFrame4showEv
	.long	_ZN8GuiFrame4hideEv
	.long	_ZN8GuiFrame4execEv
	.long	_ZN8GuiFrame12updateEventsEv
	.globl _ZN11InfosWindowD1Ev
	.set	_ZN11InfosWindowD1Ev,_ZN11InfosWindowD2Ev
	.globl _ZN11InfosWindowC1Eii
	.set	_ZN11InfosWindowC1Eii,_ZN11InfosWindowC2Eii
	.section	.rodata.cst4,"aM",@progbits,4
	.align 2
.LC1:
	.4byte	1501560836
.LC2:
	.4byte	1132396544
.LC3:
	.4byte	1056964608
.LC72:
	.4byte	1069547520
.LC77:
	.4byte	1233125376
.LC79:
	.4byte	981467136
.LC80:
	.4byte	1317011456
.LC82:
	.4byte	897581056
.LC84:
	.4byte	813694976
	.section	.rodata.str1.4,"aMS",@progbits,1
	.align 2
.LC4:
	.string	"icon_brows_cfg.png"
	.zero	1
.LC5:
	.string	"icon_brows_databin.png"
	.zero	1
.LC6:
	.string	"icon_brows_default.png"
	.zero	1
.LC7:
	.string	"icon_brows_exe.png"
	.zero	1
.LC8:
	.string	"icon_brows_folder.png"
	.zero	2
.LC9:
	.string	"icon_brows_font.png"
.LC10:
	.string	"icon_brows_img.png"
	.zero	1
.LC11:
	.string	"icon_brows_lang.png"
.LC12:
	.string	"icon_brows_mii.png"
	.zero	1
.LC13:
	.string	"icon_brows_save.png"
.LC14:
	.string	"icon_brows_sound.png"
	.zero	3
.LC15:
	.string	"icon_brows_theme.png"
	.zero	3
.LC16:
	.string	"icon_brows_txt.png"
	.zero	1
.LC17:
	.string	"icon_brows_xml.png"
	.zero	1
.LC18:
	.string	"icon_type_wii.png"
	.zero	2
.LC19:
	.string	"icon_type_wiiware.png"
	.zero	2
.LC20:
	.string	"icon_type_gamecube.png"
	.zero	1
.LC21:
	.string	"icon_type_vc_nes.png"
	.zero	3
.LC22:
	.string	"icon_type_vc_snes.png"
	.zero	2
.LC23:
	.string	"icon_type_vc_n64.png"
	.zero	3
.LC24:
	.string	"icon_type_vc_sms.png"
	.zero	3
.LC25:
	.string	"icon_type_vc_md.png"
.LC26:
	.string	"icon_type_vc_pce.png"
	.zero	3
.LC27:
	.string	"icon_type_vc_neogeo.png"
.LC28:
	.string	"icon_type_vc_arcade.png"
.LC29:
	.string	"icon_type_vc_c64.png"
	.zero	3
.LC30:
	.string	"icon_type_channel.png"
	.zero	2
.LC31:
	.string	"icon_type_unknow.png"
	.zero	3
.LC32:
	.string	".cfg"
	.zero	3
.LC33:
	.string	".log"
	.zero	3
.LC34:
	.string	".txt"
	.zero	3
.LC35:
	.string	".xml"
	.zero	3
.LC36:
	.string	"Folder"
	.zero	1
.LC37:
	.string	"SaveGame"
	.zero	3
.LC38:
	.string	"Data.bin"
	.zero	3
.LC39:
	.string	"Mii"
.LC40:
	.string	"Config"
	.zero	1
.LC41:
	.string	"Homebrew"
	.zero	3
.LC42:
	.string	"Font"
	.zero	3
.LC43:
	.string	"Picture"
.LC44:
	.string	"Language"
	.zero	3
.LC45:
	.string	"Audio"
	.zero	2
.LC46:
	.string	"Theme"
	.zero	2
.LC47:
	.string	"Text"
	.zero	3
.LC48:
	.string	"XML"
.LC49:
	.string	"File"
	.zero	3
.LC50:
	.string	"basic_string::erase"
.LC51:
	.string	"R"
	.zero	2
.LC52:
	.string	"S"
	.zero	2
.LC53:
	.string	"D"
	.zero	2
.LC54:
	.string	"G"
	.zero	2
.LC55:
	.string	"P"
	.zero	2
.LC56:
	.string	"U"
	.zero	2
.LC57:
	.string	"J"
	.zero	2
.LC58:
	.string	"N"
	.zero	2
.LC59:
	.string	"L"
	.zero	2
.LC60:
	.string	"M"
	.zero	2
.LC61:
	.string	"E"
	.zero	2
.LC62:
	.string	"EA"
	.zero	1
.LC63:
	.string	"EB"
	.zero	1
.LC64:
	.string	"C"
	.zero	2
.LC65:
	.string	"H"
	.zero	2
.LC66:
	.string	"JO"
	.zero	1
.LC67:
	.string	"W"
	.zero	2
.LC68:
	.string	"F"
	.zero	2
.LC69:
	.string	""
	.zero	3
.LC70:
	.string	"/"
	.zero	2
.LC71:
	.string	"basic_string::substr"
	.zero	3
.LC73:
	.string	"r=0 g=0 b=0 a=255 - mainbrowser entry text color"
	.zero	3
.LC74:
	.string	"Type:"
	.zero	2
.LC75:
	.string	" "
	.zero	2
.LC76:
	.string	"Size:"
	.zero	2
.LC78:
	.string	"%0.2fKB"
.LC81:
	.string	"%0.2fMB"
.LC83:
	.string	"%0.2fGB"
.LC85:
	.string	"Unknown"
.LC86:
	.string	"Path:"
	.section	".text"
.Letext0:
	.file 8 "d:\\devkitpro\\devkitppc\\bin\\../lib/gcc/powerpc-eabi/4.6.3/../../../../powerpc-eabi/include/stdint.h"
	.file 9 "d:/devkitPro/libogc/include/gctypes.h"
	.file 10 "d:/devkitPro/libogc/include/ogc/gx.h"
	.file 11 "d:\\devkitpro\\devkitppc\\bin\\../lib/gcc/powerpc-eabi/4.6.3/../../../../powerpc-eabi/include/machine/_types.h"
	.file 12 "d:\\devkitpro\\devkitppc\\bin\\../lib/gcc/powerpc-eabi/4.6.3/../../../../powerpc-eabi/include/sys/lock.h"
	.file 13 "d:\\devkitpro\\devkitppc\\bin\\../lib/gcc/powerpc-eabi/4.6.3/include/stddef.h"
	.file 14 "d:\\devkitpro\\devkitppc\\bin\\../lib/gcc/powerpc-eabi/4.6.3/../../../../powerpc-eabi/include/sys/_types.h"
	.file 15 "d:\\devkitpro\\devkitppc\\bin\\../lib/gcc/powerpc-eabi/4.6.3/../../../../powerpc-eabi/include/sys/reent.h"
	.file 16 "d:\\devkitpro\\devkitppc\\bin\\../lib/gcc/powerpc-eabi/4.6.3/../../../../powerpc-eabi/include/time.h"
	.file 17 "<built-in>"
	.file 18 "d:\\devkitpro\\devkitppc\\bin\\../lib/gcc/powerpc-eabi/4.6.3/../../../../powerpc-eabi/include/stdio.h"
	.file 19 "d:\\devkitpro\\devkitppc\\bin\\../lib/gcc/powerpc-eabi/4.6.3/../../../../powerpc-eabi/include/wchar.h"
	.file 20 "d:\\devkitpro\\devkitppc\\bin\\../lib/gcc/powerpc-eabi/4.6.3/../../../../powerpc-eabi/include/c++/4.6.3/cwchar"
	.file 21 "d:\\devkitpro\\devkitppc\\bin\\../lib/gcc/powerpc-eabi/4.6.3/../../../../powerpc-eabi/include/c++/4.6.3/powerpc-eabi/bits/c++config.h"
	.file 22 "d:\\devkitpro\\devkitppc\\bin\\../lib/gcc/powerpc-eabi/4.6.3/../../../../powerpc-eabi/include/c++/4.6.3/clocale"
	.file 23 "d:\\devkitpro\\devkitppc\\bin\\../lib/gcc/powerpc-eabi/4.6.3/../../../../powerpc-eabi/include/c++/4.6.3/bits/stringfwd.h"
	.file 24 "d:\\devkitpro\\devkitppc\\bin\\../lib/gcc/powerpc-eabi/4.6.3/../../../../powerpc-eabi/include/c++/4.6.3/bits/stl_list.h"
	.file 25 "d:\\devkitpro\\devkitppc\\bin\\../lib/gcc/powerpc-eabi/4.6.3/../../../../powerpc-eabi/include/c++/4.6.3/bits/stl_tree.h"
	.file 26 "d:\\devkitpro\\devkitppc\\bin\\../lib/gcc/powerpc-eabi/4.6.3/../../../../powerpc-eabi/include/c++/4.6.3/bits/move.h"
	.file 27 "d:\\devkitpro\\devkitppc\\bin\\../lib/gcc/powerpc-eabi/4.6.3/../../../../powerpc-eabi/include/c++/4.6.3/bits/cpp_type_traits.h"
	.file 28 "d:\\devkitpro\\devkitppc\\bin\\../lib/gcc/powerpc-eabi/4.6.3/../../../../powerpc-eabi/include/c++/4.6.3/ext/new_allocator.h"
	.file 29 "d:\\devkitpro\\devkitppc\\bin\\../lib/gcc/powerpc-eabi/4.6.3/../../../../powerpc-eabi/include/c++/4.6.3/debug/debug.h"
	.file 30 "d:\\devkitpro\\devkitppc\\bin\\../lib/gcc/powerpc-eabi/4.6.3/../../../../powerpc-eabi/include/c++/4.6.3/bits/allocator.h"
	.file 31 "d:\\devkitpro\\devkitppc\\bin\\../lib/gcc/powerpc-eabi/4.6.3/../../../../powerpc-eabi/include/locale.h"
	.file 32 "d:\\devkitpro\\devkitppc\\bin\\../lib/gcc/powerpc-eabi/4.6.3/../../../../powerpc-eabi/include/c++/4.6.3/powerpc-eabi/bits/atomic_word.h"
	.file 33 "d:\\devkitpro\\devkitppc\\bin\\../lib/gcc/powerpc-eabi/4.6.3/../../../../powerpc-eabi/include/c++/4.6.3/ext/numeric_traits.h"
	.file 34 "d:\\devkitpro\\devkitppc\\bin\\../lib/gcc/powerpc-eabi/4.6.3/../../../../powerpc-eabi/include/c++/4.6.3/bits/basic_string.tcc"
	.file 35 "d:\\devkitpro\\devkitppc\\bin\\../lib/gcc/powerpc-eabi/4.6.3/../../../../powerpc-eabi/include/c++/4.6.3/bits/stl_iterator_base_types.h"
	.file 36 "d:\\devkitpro\\devkitppc\\bin\\../lib/gcc/powerpc-eabi/4.6.3/../../../../powerpc-eabi/include/c++/4.6.3/bits/stl_iterator.h"
	.file 37 "d:/Projects/SaveGameManager/savegame-manager-gx/trunk/source/Files/../GUI/../Settings/../FileOperations/FileExtensions.h"
	.file 38 "d:/Projects/SaveGameManager/savegame-manager-gx/trunk/source/Files/../GUI/../Settings/../Controls/AppControls.hpp"
	.file 39 "d:/Projects/SaveGameManager/savegame-manager-gx/trunk/source/Files/../GUI/../Settings/CSettings.h"
	.file 40 "d:/Projects/SaveGameManager/savegame-manager-gx/trunk/source/Files/../GUI/../Tools/Rect.h"
	.file 41 "d:/Projects/SaveGameManager/savegame-manager-gx/trunk/source/Files/../GUI/../Settings/SettingsEnums.h"
	.file 42 "d:/Projects/SaveGameManager/savegame-manager-gx/trunk/source/Files/../GUI/../sigslot.h"
	.file 43 "d:\\devkitpro\\devkitppc\\bin\\../lib/gcc/powerpc-eabi/4.6.3/../../../../powerpc-eabi/include/c++/4.6.3/bits/list.tcc"
	.file 44 "d:\\devkitpro\\devkitppc\\bin\\../lib/gcc/powerpc-eabi/4.6.3/../../../../powerpc-eabi/include/c++/4.6.3/bits/stl_function.h"
	.file 45 "d:\\devkitpro\\devkitppc\\bin\\../lib/gcc/powerpc-eabi/4.6.3/../../../../powerpc-eabi/include/c++/4.6.3/bits/stl_set.h"
	.file 46 "d:\\devkitpro\\devkitppc\\bin\\../lib/gcc/powerpc-eabi/4.6.3/../../../../powerpc-eabi/include/c++/4.6.3/bits/stl_pair.h"
	.file 47 "d:/Projects/SaveGameManager/savegame-manager-gx/trunk/source/Files/ListInfosWindow.h"
	.file 48 "d:\\devkitpro\\devkitppc\\bin\\../lib/gcc/powerpc-eabi/4.6.3/../../../../powerpc-eabi/include/c++/4.6.3/new"