   1              		.file	"main.cpp"
   2              		.section	".text"
   3              	.Ltext0:
   4              		.section	.text._ZN11Application8InstanceEv,"axG",@progbits,_ZN11Application8InstanceEv,comdat
   5              		.align 2
   6              		.weak	_ZN11Application8InstanceEv
   7              		.type	_ZN11Application8InstanceEv, @function
   8              	_ZN11Application8InstanceEv:
   9              	.LFB1468:
  10              		.file 1 "d:/Projects/SaveGameManager/savegame-manager-gx/trunk/source/Controls/Application.h"
  11              		.loc 1 27 0
  12              		.cfi_startproc
  13              		.cfi_personality 0,__gxx_personality_v0
  14              		.cfi_lsda 0,.LLSDA1468
  15 0000 9421FFF0 		stwu 1,-16(1)
  16              	.LCFI0:
  17              		.cfi_def_cfa_offset 16
  18 0004 7C0802A6 		mflr 0
  19 0008 93C10008 		stw 30,8(1)
  20 000c 3FC00000 		lis 30,_ZN11Application8instanceE@ha
  21              		.cfi_offset 30, -8
  22              		.cfi_register 65, 0
  23 0010 93E1000C 		stw 31,12(1)
  24 0014 83FE0000 		lwz 31,_ZN11Application8instanceE@l(30)
  25              		.cfi_offset 31, -4
  26 0018 90010014 		stw 0,20(1)
  27              		.loc 1 27 0
  28 001c 2F9F0000 		cmpwi 7,31,0
  29 0020 419E0020 		beq- 7,.L6
  30              		.cfi_offset 65, 4
  31              		.loc 1 27 0 is_stmt 0 discriminator 2
  32 0024 80010014 		lwz 0,20(1)
  33 0028 7FE3FB78 		mr 3,31
  34 002c 83C10008 		lwz 30,8(1)
  35 0030 7C0803A6 		mtlr 0
  36 0034 83E1000C 		lwz 31,12(1)
  37 0038 38210010 		addi 1,1,16
  38              		.cfi_remember_state
  39              	.LCFI1:
  40              		.cfi_def_cfa_offset 0
  41              		.cfi_restore 31
  42              		.cfi_restore 30
  43 003c 4E800020 		blr
  44              	.L6:
  45              	.LCFI2:
  46              		.cfi_restore_state
  47              		.loc 1 27 0 discriminator 1
  48 0040 38600278 		li 3,632
  49              	.LEHB0:
  50 0044 48000001 		bl _Znwj
  51              	.LEHE0:
  52 0048 7C7F1B78 		mr 31,3
  53              	.LEHB1:
  54 004c 48000001 		bl _ZN11ApplicationC1Ev
  55              	.LEHE1:
  56 0050 80010014 		lwz 0,20(1)
  57 0054 7FE3FB78 		mr 3,31
  58 0058 93FE0000 		stw 31,_ZN11Application8instanceE@l(30)
  59 005c 7C0803A6 		mtlr 0
  60 0060 83C10008 		lwz 30,8(1)
  61 0064 83E1000C 		lwz 31,12(1)
  62 0068 38210010 		addi 1,1,16
  63              		.cfi_remember_state
  64              		.cfi_restore 30
  65              		.cfi_restore 31
  66              	.LCFI3:
  67              		.cfi_def_cfa_offset 0
  68 006c 4E800020 		blr
  69              	.L4:
  70              	.LCFI4:
  71              		.cfi_restore_state
  72 0070 7C7E1B78 		mr 30,3
  73              		.loc 1 27 0
  74 0074 7FE3FB78 		mr 3,31
  75 0078 48000001 		bl _ZdlPv
  76 007c 7FC3F378 		mr 3,30
  77              	.LEHB2:
  78 0080 48000001 		bl _Unwind_Resume
  79              	.LEHE2:
  80              		.cfi_endproc
  81              	.LFE1468:
  82              		.globl __gxx_personality_v0
  83              		.section	.gcc_except_table,"a",@progbits
  84              	.LLSDA1468:
  85 0000 FF       		.byte	0xff
  86 0001 FF       		.byte	0xff
  87 0002 01       		.byte	0x1
  88 0003 0D       		.uleb128 .LLSDACSE1468-.LLSDACSB1468
  89              	.LLSDACSB1468:
  90 0004 44       		.uleb128 .LEHB0-.LFB1468
  91 0005 04       		.uleb128 .LEHE0-.LEHB0
  92 0006 00       		.uleb128 0
  93 0007 00       		.uleb128 0
  94 0008 4C       		.uleb128 .LEHB1-.LFB1468
  95 0009 04       		.uleb128 .LEHE1-.LEHB1
  96 000a 70       		.uleb128 .L4-.LFB1468
  97 000b 00       		.uleb128 0
  98 000c 8001     		.uleb128 .LEHB2-.LFB1468
  99 000e 04       		.uleb128 .LEHE2-.LEHB2
 100 000f 00       		.uleb128 0
 101 0010 00       		.uleb128 0
 102              	.LLSDACSE1468:
 103              		.section	.text._ZN11Application8InstanceEv,"axG",@progbits,_ZN11Application8InstanceEv,comdat
 104              		.size	_ZN11Application8InstanceEv, .-_ZN11Application8InstanceEv
 105              		.globl __eabi
 106              		.section	.text.startup,"ax",@progbits
 107              		.align 2
 108              		.globl main
 109              		.type	main, @function
 110              	main:
 111              	.LFB1479:
 112              		.file 2 "d:/Projects/SaveGameManager/savegame-manager-gx/trunk/source/main.cpp"
 113              		.loc 2 39 0 is_stmt 1
 114              		.cfi_startproc
 115              	.LVL0:
 116 0000 7C0802A6 		mflr 0
 117 0004 9421FFF0 		stwu 1,-16(1)
 118              	.LCFI5:
 119              		.cfi_def_cfa_offset 16
 120              		.cfi_register 65, 0
 121 0008 93C10008 		stw 30,8(1)
 122 000c 7C7E1B78 		mr 30,3
 123              		.cfi_offset 30, -8
 124 0010 90010014 		stw 0,20(1)
 125 0014 93E1000C 		stw 31,12(1)
 126              		.loc 2 39 0
 127 0018 7C9F2378 		mr 31,4
 128              		.cfi_offset 31, -4
 129              		.cfi_offset 65, 4
 130 001c 48000001 		bl __eabi
 131              	.LVL1:
 132              		.loc 2 40 0
 133 0020 38600014 		li 3,20
 134 0024 48000001 		bl __exception_setreload
 135              		.loc 2 43 0
 136 0028 38600000 		li 3,0
 137 002c 38800001 		li 4,1
 138 0030 48000001 		bl DEBUG_Init
 139              		.loc 2 44 0
 140 0034 48000001 		bl _break
 141              		.loc 2 47 0
 142 0038 48000001 		bl _Z9InitVideov
 143              		.loc 2 49 0
 144 003c 7FC3F378 		mr 3,30
 145 0040 7FE4FB78 		mr 4,31
 146 0044 48000001 		bl _ZN14StartUpProcess3RunEiPPc
 147 0048 2F830000 		cmpwi 7,3,0
 148 004c 409E003C 		bne- 7,.L10
 149              	.L8:
 150              		.loc 2 57 0
 151 0050 48000001 		bl IsFromHBC
 152 0054 2F830000 		cmpwi 7,3,0
 153 0058 40BE0014 		bne+ 7,.L9
 154              		.loc 2 58 0
 155 005c 38600003 		li 3,3
 156 0060 38800000 		li 4,0
 157 0064 38A00000 		li 5,0
 158 0068 48000001 		bl SYS_ResetSystem
 159              	.L9:
 160              		.loc 2 61 0
 161 006c 80010014 		lwz 0,20(1)
 162 0070 38600000 		li 3,0
 163 0074 83C10008 		lwz 30,8(1)
 164              	.LVL2:
 165 0078 7C0803A6 		mtlr 0
 166 007c 83E1000C 		lwz 31,12(1)
 167              	.LVL3:
 168 0080 38210010 		addi 1,1,16
 169              		.cfi_remember_state
 170              	.LCFI6:
 171              		.cfi_def_cfa_offset 0
 172              		.cfi_restore 31
 173              		.cfi_restore 30
 174 0084 4E800020 		blr
 175              	.LVL4:
 176              	.L10:
 177              	.LCFI7:
 178              		.cfi_restore_state
 179              		.loc 2 51 0
 180 0088 48000001 		bl _ZN11Application8InstanceEv
 181 008c 48000001 		bl _ZN11Application4initEv
 182              		.loc 2 52 0
 183 0090 48000001 		bl _ZN11Application8InstanceEv
 184 0094 81230000 		lwz 9,0(3)
 185 0098 800900CC 		lwz 0,204(9)
 186 009c 7C0903A6 		mtctr 0
 187 00a0 4E800421 		bctrl
 188              		.loc 2 53 0
 189 00a4 48000001 		bl _ZN11Application8InstanceEv
 190 00a8 81230000 		lwz 9,0(3)
 191 00ac 800900D4 		lwz 0,212(9)
 192 00b0 7C0903A6 		mtctr 0
 193 00b4 4E800421 		bctrl
 194 00b8 4BFFFF98 		b .L8
 195              		.cfi_endproc
 196              	.LFE1479:
 197              		.size	main, .-main
 198              		.section	".text"
 199              	.Letext0:
 200              		.file 3 "d:\\devkitpro\\devkitppc\\bin\\../lib/gcc/powerpc-eabi/4.6.3/../../../../powerpc-eabi/inc
 201              		.file 4 "d:/devkitPro/libogc/include/gctypes.h"
 202              		.file 5 "d:/devkitPro/libogc/include/ogc/gx.h"
 203              		.file 6 "d:\\devkitpro\\devkitppc\\bin\\../lib/gcc/powerpc-eabi/4.6.3/../../../../powerpc-eabi/inc
 204              		.file 7 "d:\\devkitpro\\devkitppc\\bin\\../lib/gcc/powerpc-eabi/4.6.3/../../../../powerpc-eabi/inc
 205              		.file 8 "d:\\devkitpro\\devkitppc\\bin\\../lib/gcc/powerpc-eabi/4.6.3/include/stddef.h"
 206              		.file 9 "d:\\devkitpro\\devkitppc\\bin\\../lib/gcc/powerpc-eabi/4.6.3/../../../../powerpc-eabi/inc
 207              		.file 10 "d:\\devkitpro\\devkitppc\\bin\\../lib/gcc/powerpc-eabi/4.6.3/../../../../powerpc-eabi/in
 208              		.file 11 "d:\\devkitpro\\devkitppc\\bin\\../lib/gcc/powerpc-eabi/4.6.3/../../../../powerpc-eabi/in
 209              		.file 12 "<built-in>"
 210              		.file 13 "d:\\devkitpro\\devkitppc\\bin\\../lib/gcc/powerpc-eabi/4.6.3/../../../../powerpc-eabi/in
 211              		.file 14 "d:\\devkitpro\\devkitppc\\bin\\../lib/gcc/powerpc-eabi/4.6.3/../../../../powerpc-eabi/in
 212              		.file 15 "d:\\devkitpro\\devkitppc\\bin\\../lib/gcc/powerpc-eabi/4.6.3/../../../../powerpc-eabi/in
 213              		.file 16 "d:\\devkitpro\\devkitppc\\bin\\../lib/gcc/powerpc-eabi/4.6.3/../../../../powerpc-eabi/in
 214              		.file 17 "d:\\devkitpro\\devkitppc\\bin\\../lib/gcc/powerpc-eabi/4.6.3/../../../../powerpc-eabi/in
 215              		.file 18 "d:\\devkitpro\\devkitppc\\bin\\../lib/gcc/powerpc-eabi/4.6.3/../../../../powerpc-eabi/in
 216              		.file 19 "d:\\devkitpro\\devkitppc\\bin\\../lib/gcc/powerpc-eabi/4.6.3/../../../../powerpc-eabi/in
 217              		.file 20 "d:\\devkitpro\\devkitppc\\bin\\../lib/gcc/powerpc-eabi/4.6.3/../../../../powerpc-eabi/in
 218              		.file 21 "d:\\devkitpro\\devkitppc\\bin\\../lib/gcc/powerpc-eabi/4.6.3/../../../../powerpc-eabi/in
 219              		.file 22 "d:\\devkitpro\\devkitppc\\bin\\../lib/gcc/powerpc-eabi/4.6.3/../../../../powerpc-eabi/in
 220              		.file 23 "d:\\devkitpro\\devkitppc\\bin\\../lib/gcc/powerpc-eabi/4.6.3/../../../../powerpc-eabi/in
 221              		.file 24 "d:\\devkitpro\\devkitppc\\bin\\../lib/gcc/powerpc-eabi/4.6.3/../../../../powerpc-eabi/in
 222              		.file 25 "d:\\devkitpro\\devkitppc\\bin\\../lib/gcc/powerpc-eabi/4.6.3/../../../../powerpc-eabi/in
 223              		.file 26 "d:\\devkitpro\\devkitppc\\bin\\../lib/gcc/powerpc-eabi/4.6.3/../../../../powerpc-eabi/in
 224              		.file 27 "d:\\devkitpro\\devkitppc\\bin\\../lib/gcc/powerpc-eabi/4.6.3/../../../../powerpc-eabi/in
 225              		.file 28 "d:\\devkitpro\\devkitppc\\bin\\../lib/gcc/powerpc-eabi/4.6.3/../../../../powerpc-eabi/in
 226              		.file 29 "d:\\devkitpro\\devkitppc\\bin\\../lib/gcc/powerpc-eabi/4.6.3/../../../../powerpc-eabi/in
 227              		.file 30 "d:\\devkitpro\\devkitppc\\bin\\../lib/gcc/powerpc-eabi/4.6.3/../../../../powerpc-eabi/in
 228              		.file 31 "d:\\devkitpro\\devkitppc\\bin\\../lib/gcc/powerpc-eabi/4.6.3/../../../../powerpc-eabi/in
 229              		.file 32 "d:/Projects/SaveGameManager/savegame-manager-gx/trunk/source/Controls/../GUI/../Tools/Re
 230              		.file 33 "d:/Projects/SaveGameManager/savegame-manager-gx/trunk/source/Controls/../GUI/../sigslot.
 231              		.file 34 "d:\\devkitpro\\devkitppc\\bin\\../lib/gcc/powerpc-eabi/4.6.3/../../../../powerpc-eabi/in
 232              		.file 35 "d:/Projects/SaveGameManager/savegame-manager-gx/trunk/source/Controls/../GUI/gui_element
 233              		.file 36 "d:\\devkitpro\\devkitppc\\bin\\../lib/gcc/powerpc-eabi/4.6.3/../../../../powerpc-eabi/in
 234              		.file 37 "d:\\devkitpro\\devkitppc\\bin\\../lib/gcc/powerpc-eabi/4.6.3/../../../../powerpc-eabi/in
 235              		.file 38 "d:\\devkitpro\\devkitppc\\bin\\../lib/gcc/powerpc-eabi/4.6.3/../../../../powerpc-eabi/in
 236              		.file 39 "d:\\devkitpro\\devkitppc\\bin\\../lib/gcc/powerpc-eabi/4.6.3/../../../../powerpc-eabi/in