	.file	"mem2alloc.cpp"
	.section	".text"
.Ltext0:
	.align 2
	.globl _ZN10CMEM2Alloc4initEj
	.type	_ZN10CMEM2Alloc4initEj, @function
_ZN10CMEM2Alloc4initEj:
.LFB371:
	.file 1 "d:/Projects/SaveGameManager/savegame-manager-gx/trunk/source/Memory/mem2alloc.cpp"
	.loc 1 18 0
	.cfi_startproc
.LVL0:
	mflr 0
	stwu 1,-24(1)
.LCFI0:
	.cfi_def_cfa_offset 24
	.cfi_register 65, 0
	stw 29,12(1)
	mr 29,4
	.cfi_offset 29, -12
	stw 0,28(1)
	.loc 1 20 0
	slwi 29,29,20
	.loc 1 18 0
	stw 30,16(1)
	stw 31,20(1)
	.loc 1 18 0
	mr 31,3
	.cfi_offset 31, -4
	.cfi_offset 30, -8
	.cfi_offset 65, 4
	.loc 1 19 0
	bl SYS_GetArena2Lo
.LVL1:
	addi 3,3,31
	rlwinm 30,3,0,0,26
	stw 30,0(31)
	.loc 1 20 0
	bl SYS_GetArena2Size
.LVL2:
	rlwinm 3,3,0,0,26
	cmplw 7,3,29
	ble- 7,.L2
	mr 3,29
.L2:
	add 3,30,3
	.loc 1 21 0
	lis 0,0x9330
	cmplw 7,3,0
	.loc 1 20 0
	stw 3,4(31)
	.loc 1 21 0
	ble- 7,.L3
	.loc 1 22 0
	stw 0,4(31)
	lis 3,0x9330
.L3:
	.loc 1 23 0
	bl SYS_SetArena2Lo
	.loc 1 24 0
	addi 3,31,12
	li 4,0
	bl LWP_MutexInit
	.loc 1 25 0
	lwz 0,28(1)
	lwz 29,12(1)
	mtlr 0
	lwz 30,16(1)
	lwz 31,20(1)
.LVL3:
	addi 1,1,24
.LCFI1:
	.cfi_def_cfa_offset 0
	.cfi_restore 31
	.cfi_restore 30
	.cfi_restore 29
	blr
	.cfi_endproc
.LFE371:
	.size	_ZN10CMEM2Alloc4initEj, .-_ZN10CMEM2Alloc4initEj
	.align 2
	.globl _ZN10CMEM2Alloc4initEPvS0_
	.type	_ZN10CMEM2Alloc4initEPvS0_, @function
_ZN10CMEM2Alloc4initEPvS0_:
.LFB372:
	.loc 1 28 0
	.cfi_startproc
.LVL4:
	mflr 0
	stwu 1,-8(1)
.LCFI2:
	.cfi_def_cfa_offset 8
	.cfi_register 65, 0
	.loc 1 29 0
	addi 4,4,31
.LVL5:
	.loc 1 30 0
	rlwinm 5,5,0,0,26
.LVL6:
	.loc 1 29 0
	rlwinm 4,4,0,0,26
.LVL7:
	.loc 1 28 0
	stw 0,12(1)
	.loc 1 29 0
	stw 4,0(3)
	.loc 1 31 0
	li 4,0
	.loc 1 30 0
	stw 5,4(3)
	.loc 1 31 0
	addi 3,3,12
.LVL8:
	.cfi_offset 65, 4
	bl LWP_MutexInit
.LVL9:
	.loc 1 32 0
	lwz 0,12(1)
	addi 1,1,8
.LCFI3:
	.cfi_def_cfa_offset 0
	mtlr 0
	blr
	.cfi_endproc
.LFE372:
	.size	_ZN10CMEM2Alloc4initEPvS0_, .-_ZN10CMEM2Alloc4initEPvS0_
	.align 2
	.globl _ZN10CMEM2Alloc7cleanupEv
	.type	_ZN10CMEM2Alloc7cleanupEv, @function
_ZN10CMEM2Alloc7cleanupEv:
.LFB373:
	.loc 1 35 0
	.cfi_startproc
.LVL10:
	mflr 0
	stwu 1,-16(1)
.LCFI4:
	.cfi_def_cfa_offset 16
	.cfi_register 65, 0
	stw 31,12(1)
	mr 31,3
	.cfi_offset 31, -4
	stw 0,20(1)
	.loc 1 36 0
	lwz 3,12(3)
.LVL11:
	.cfi_offset 65, 4
	bl LWP_MutexDestroy
	.loc 1 37 0
	li 0,0
	stw 0,12(31)
	.loc 1 38 0
	stw 0,8(31)
	.loc 1 40 0
	bl SYS_GetArena2Lo
	lwz 0,4(31)
	cmpw 7,0,3
	beq- 7,.L8
	.loc 1 42 0
	li 0,0
	stw 0,0(31)
	.loc 1 43 0
	stw 0,4(31)
	.loc 1 44 0
	lwz 0,20(1)
	lwz 31,12(1)
.LVL12:
	mtlr 0
	addi 1,1,16
	.cfi_remember_state
.LCFI5:
	.cfi_def_cfa_offset 0
	.cfi_restore 31
	blr
.LVL13:
.L8:
.LCFI6:
	.cfi_restore_state
	.loc 1 41 0
	lwz 3,0(31)
	bl SYS_SetArena2Lo
	.loc 1 42 0
	li 0,0
	stw 0,0(31)
	.loc 1 43 0
	stw 0,4(31)
	.loc 1 44 0
	lwz 0,20(1)
	lwz 31,12(1)
.LVL14:
	mtlr 0
	addi 1,1,16
	.cfi_restore 31
.LCFI7:
	.cfi_def_cfa_offset 0
	blr
	.cfi_endproc
.LFE373:
	.size	_ZN10CMEM2Alloc7cleanupEv, .-_ZN10CMEM2Alloc7cleanupEv
	.align 2
	.globl _ZN10CMEM2Alloc5clearEv
	.type	_ZN10CMEM2Alloc5clearEv, @function
_ZN10CMEM2Alloc5clearEv:
.LFB374:
	.loc 1 47 0
	.cfi_startproc
.LVL15:
	.loc 1 48 0
	li 0,0
	.loc 1 50 0
	.loc 1 48 0
	stw 0,8(3)
	.loc 1 50 0
	blr
	.cfi_endproc
.LFE374:
	.size	_ZN10CMEM2Alloc5clearEv, .-_ZN10CMEM2Alloc5clearEv
	.align 2
	.globl _ZN10CMEM2Alloc10usableSizeEPv
	.type	_ZN10CMEM2Alloc10usableSizeEPv, @function
_ZN10CMEM2Alloc10usableSizeEPv:
.LFB375:
	.loc 1 53 0
	.cfi_startproc
.LVL16:
	.loc 1 54 0
	mr. 9,3
	li 3,0
.LVL17:
	beqlr- 0
	.loc 1 54 0 is_stmt 0 discriminator 1
	lwz 3,-32(9)
	slwi 3,3,5
	.loc 1 55 0 is_stmt 1 discriminator 1
	blr
	.cfi_endproc
.LFE375:
	.size	_ZN10CMEM2Alloc10usableSizeEPv, .-_ZN10CMEM2Alloc10usableSizeEPv
	.align 2
	.globl _ZN10CMEM2Alloc8allocateEj
	.type	_ZN10CMEM2Alloc8allocateEj, @function
_ZN10CMEM2Alloc8allocateEj:
.LFB376:
	.loc 1 58 0
	.cfi_startproc
.LVL18:
.LBB13:
	.loc 1 59 0
	cmpwi 0,4,0
.LBE13:
	.loc 1 58 0
	mflr 0
	stwu 1,-24(1)
.LCFI8:
	.cfi_def_cfa_offset 24
	.cfi_register 65, 0
	stw 29,12(1)
.LBB28:
	.loc 1 59 0
	li 29,2
	.cfi_offset 29, -12
.LBE28:
	.loc 1 58 0
	stw 30,16(1)
	mr 30,3
	.cfi_offset 30, -8
	stw 31,20(1)
.LBB29:
	.loc 1 59 0
	li 31,1
	.cfi_offset 31, -4
.LBE29:
	.loc 1 58 0
	stw 0,28(1)
.LBB30:
	.loc 1 59 0
	beq- 0,.L14
	.cfi_offset 65, 4
	addi 29,4,-1
	srwi 29,29,5
	addi 31,29,1
	addi 29,29,2
.L14:
.LVL19:
.LBB14:
.LBB15:
	.loc 1 13 0
	lwz 3,12(30)
.LVL20:
	bl LWP_MutexLock
.LVL21:
.LBE15:
.LBE14:
	.loc 1 66 0
	lwz 9,8(30)
	cmpwi 7,9,0
	bne+ 7,.L29
	b .L33
.LVL22:
.L27:
	.loc 1 80 0
	mr 9,0
.LVL23:
.L29:
	.loc 1 82 0
	lbz 0,12(9)
	cmpwi 7,0,0
	beq- 7,.L17
	.loc 1 82 0 is_stmt 0 discriminator 1
	lwz 0,0(9)
	cmplw 7,31,0
	ble- 7,.L18
.L17:
.LVL24:
	.loc 1 80 0 is_stmt 1
	lwz 0,4(9)
.LVL25:
	cmpwi 7,0,0
	bne+ 7,.L27
	.loc 1 89 0
	lwz 11,0(9)
	.loc 1 90 0
	slwi 29,29,5
	lwz 10,4(30)
	.loc 1 89 0
	addi 0,11,1
	slwi 0,0,5
	add 11,9,0
.LVL26:
	.loc 1 90 0
	add 29,11,29
	cmplw 7,10,29
	.loc 1 91 0
	li 29,0
	.loc 1 90 0
	ble- 7,.L16
	.loc 1 93 0
	stw 9,8(11)
	.loc 1 95 0
	stwx 31,9,0
	.loc 1 92 0
	stw 11,4(9)
	.loc 1 96 0
	stb 29,12(11)
	.loc 1 94 0
	stw 29,4(11)
	.loc 1 97 0
	addi 29,11,32
.LVL27:
.L16:
.LBB16:
.LBB17:
.LBB18:
	.loc 1 14 0
	lwz 3,12(30)
	bl LWP_MutexUnlock
.LBE18:
.LBE17:
.LBE16:
.LBE30:
	.loc 1 115 0
	lwz 0,28(1)
	mr 3,29
	lwz 30,16(1)
.LVL28:
	mtlr 0
	lwz 29,12(1)
	lwz 31,20(1)
.LVL29:
	addi 1,1,24
	.cfi_remember_state
.LCFI9:
	.cfi_def_cfa_offset 0
	.cfi_restore 31
	.cfi_restore 30
	.cfi_restore 29
	blr
.LVL30:
.L18:
.LCFI10:
	.cfi_restore_state
.LBB31:
	.loc 1 102 0
	cmplw 7,29,0
	.loc 1 100 0
	li 11,0
	stb 11,12(9)
	.loc 1 102 0
	bge- 7,.L22
	.loc 1 108 0
	lwz 10,4(9)
	.loc 1 104 0
	slwi 29,29,5
	add 11,9,29
.LVL31:
	.loc 1 106 0
	nor 8,31,31
	.loc 1 108 0
	stw 10,4(11)
	.loc 1 106 0
	add 0,8,0
	.loc 1 110 0
	stw 11,4(9)
	.loc 1 106 0
	stwx 0,9,29
	.loc 1 105 0
	li 0,1
	.loc 1 111 0
	lwz 10,4(11)
	.loc 1 105 0
	stb 0,12(11)
	.loc 1 111 0
	cmpwi 7,10,0
	.loc 1 107 0
	stw 31,0(9)
	.loc 1 109 0
	stw 9,8(11)
	.loc 1 111 0
	beq- 7,.L22
	.loc 1 112 0
	stw 11,8(10)
.LVL32:
.L22:
.LBB25:
.LBB22:
.LBB19:
	.loc 1 14 0
	lwz 3,12(30)
.LBE19:
.LBE22:
.LBE25:
	.loc 1 114 0
	addi 29,9,32
.LVL33:
.LBB26:
.LBB23:
.LBB20:
	.loc 1 14 0
	bl LWP_MutexUnlock
.LBE20:
.LBE23:
.LBE26:
.LBE31:
	.loc 1 115 0
	lwz 0,28(1)
	mr 3,29
	lwz 30,16(1)
.LVL34:
	mtlr 0
	lwz 29,12(1)
	lwz 31,20(1)
.LVL35:
	addi 1,1,24
	.cfi_remember_state
	.cfi_restore 29
	.cfi_restore 30
	.cfi_restore 31
.LCFI11:
	.cfi_def_cfa_offset 0
	blr
.LVL36:
.L33:
.LCFI12:
	.cfi_restore_state
.LBB32:
	.loc 1 68 0
	lwz 9,0(30)
	slwi 0,29,5
	lwz 11,4(30)
	.loc 1 69 0
	li 29,0
	.loc 1 68 0
	add 0,9,0
	cmplw 7,11,0
	ble- 7,.L16
	.loc 1 70 0
	stw 9,8(30)
	.loc 1 73 0
	stw 31,0(9)
	.loc 1 71 0
	stw 29,4(9)
	.loc 1 72 0
	stw 29,8(9)
	.loc 1 74 0
	stb 29,12(9)
	.loc 1 75 0
	addi 29,9,32
.LVL37:
.LBB27:
.LBB24:
.LBB21:
	.loc 1 14 0
	lwz 3,12(30)
	bl LWP_MutexUnlock
.LBE21:
.LBE24:
.LBE27:
.LBE32:
	.loc 1 115 0
	lwz 0,28(1)
	mr 3,29
	lwz 30,16(1)
.LVL38:
	mtlr 0
	lwz 29,12(1)
	lwz 31,20(1)
.LVL39:
	addi 1,1,24
	.cfi_restore 29
	.cfi_restore 30
	.cfi_restore 31
.LCFI13:
	.cfi_def_cfa_offset 0
	blr
	.cfi_endproc
.LFE376:
	.size	_ZN10CMEM2Alloc8allocateEj, .-_ZN10CMEM2Alloc8allocateEj
	.align 2
	.globl _ZN10CMEM2Alloc7releaseEPv
	.type	_ZN10CMEM2Alloc7releaseEPv, @function
_ZN10CMEM2Alloc7releaseEPv:
.LFB377:
	.loc 1 118 0
	.cfi_startproc
.LVL40:
	stwu 1,-16(1)
.LCFI14:
	.cfi_def_cfa_offset 16
	mflr 0
	stw 31,12(1)
.LBB40:
	.loc 1 119 0
	mr. 31,4
	.cfi_offset 31, -4
	.cfi_register 65, 0
.LBE40:
	.loc 1 118 0
	stw 30,8(1)
	mr 30,3
	.cfi_offset 30, -8
	stw 0,20(1)
.LBB46:
	.loc 1 119 0
	beq- 0,.L34
	.cfi_offset 65, 4
.LVL41:
.LBB41:
.LBB42:
	.loc 1 13 0
	lwz 3,12(3)
.LVL42:
	bl LWP_MutexLock
.LVL43:
.LBE42:
.LBE41:
	.loc 1 128 0
	lwz 9,-28(31)
	.loc 1 124 0
	li 0,1
	.loc 1 123 0
	addi 10,31,-32
.LVL44:
	.loc 1 128 0
	cmpwi 7,9,0
	.loc 1 124 0
	stb 0,-20(31)
	.loc 1 128 0
	beq- 7,.L40
.L36:
	.loc 1 132 0
	lwz 11,-24(31)
	cmpwi 6,11,0
	beq- 6,.L37
	.loc 1 132 0 is_stmt 0 discriminator 1
	lbz 0,12(11)
	cmpwi 6,0,0
	bne- 6,.L41
.L37:
	.loc 1 141 0 is_stmt 1
	beq- 7,.L38
.L39:
	.loc 1 141 0 is_stmt 0 discriminator 1
	lbz 0,12(9)
	cmpwi 7,0,0
	beq- 7,.L38
	.loc 1 144 0 is_stmt 1
	lwz 11,4(9)
	.loc 1 143 0
	lwz 0,0(9)
	lwz 8,0(10)
	.loc 1 145 0
	cmpwi 7,11,0
	.loc 1 144 0
	stw 11,4(10)
	.loc 1 143 0
	add 9,8,0
	addi 0,9,1
	stw 0,0(10)
	.loc 1 145 0
	beq- 7,.L38
	.loc 1 146 0
	stw 10,8(11)
.LVL45:
.L38:
.LBB43:
.LBB44:
.LBB45:
	.loc 1 14 0
	lwz 3,12(30)
	bl LWP_MutexUnlock
.LVL46:
.L34:
.LBE45:
.LBE44:
.LBE43:
.LBE46:
	.loc 1 148 0
	lwz 0,20(1)
	lwz 30,8(1)
.LVL47:
	mtlr 0
	lwz 31,12(1)
.LVL48:
	addi 1,1,16
	.cfi_remember_state
.LCFI15:
	.cfi_def_cfa_offset 0
	.cfi_restore 31
	.cfi_restore 30
	blr
.LVL49:
.L41:
.LCFI16:
	.cfi_restore_state
.LBB47:
	.loc 1 135 0
	lwz 10,4(11)
	lwz 8,0(11)
	.loc 1 136 0
	lwz 9,4(10)
	.loc 1 135 0
	lwz 0,0(10)
	.loc 1 137 0
	cmpwi 7,9,0
	.loc 1 136 0
	stw 9,4(11)
	.loc 1 135 0
	add 10,8,0
	addi 0,10,1
	stw 0,0(11)
	.loc 1 137 0
	beq- 7,.L38
	.loc 1 138 0
	stw 11,8(9)
	mr 10,11
	b .L39
.LVL50:
.L40:
	.loc 1 129 0
	lwz 11,4(30)
	subf 11,10,11
	srawi 11,11,5
	addi 0,11,-1
	stw 0,-32(31)
	b .L36
.LBE47:
	.cfi_endproc
.LFE377:
	.size	_ZN10CMEM2Alloc7releaseEPv, .-_ZN10CMEM2Alloc7releaseEPv
	.align 2
	.globl _ZN10CMEM2Alloc10reallocateEPvj
	.type	_ZN10CMEM2Alloc10reallocateEPvj, @function
_ZN10CMEM2Alloc10reallocateEPvj:
.LFB378:
	.loc 1 151 0
	.cfi_startproc
.LVL51:
.LBB59:
	.loc 1 156 0
	cmpwi 0,5,0
.LBE59:
	.loc 1 151 0
	mflr 0
	stwu 1,-24(1)
.LCFI17:
	.cfi_def_cfa_offset 24
	.cfi_register 65, 0
	stw 30,16(1)
	mr 30,3
	.cfi_offset 30, -8
	stw 31,20(1)
	mr 31,4
	.cfi_offset 31, -4
	stw 0,28(1)
	stw 28,8(1)
	stw 29,12(1)
.LBB77:
	.loc 1 156 0
	bne- 0,.L43
	.cfi_offset 29, -12
	.cfi_offset 28, -16
	.cfi_offset 65, 4
	.loc 1 157 0
	li 5,1
.LVL52:
.L43:
	.loc 1 158 0
	cmpwi 7,31,0
	beq- 7,.L57
	.loc 1 162 0
	addi 5,5,-1
.LVL53:
.LBB60:
.LBB61:
.LBB62:
	.loc 1 13 0
	lwz 3,12(30)
.LVL54:
.LBE62:
.LBE61:
.LBE60:
	.loc 1 162 0
	srwi 29,5,5
.LBB71:
.LBB64:
.LBB63:
	.loc 1 13 0
	bl LWP_MutexLock
.LVL55:
.LBE63:
.LBE64:
	.loc 1 167 0
	addi 10,29,2
.LBE71:
	.loc 1 161 0
	addi 11,31,-32
.LVL56:
.LBB72:
	.loc 1 167 0
	slwi 8,10,5
	lwz 0,4(30)
	add 9,11,8
	cmplw 7,9,0
	bge- 7,.L54
	.loc 1 173 0
	lwz 7,-28(31)
.LBE72:
	.loc 1 162 0
	addi 28,29,1
.LBB73:
	.loc 1 173 0
	cmpwi 7,7,0
	beq- 7,.L58
	.loc 1 179 0 discriminator 1
	lwz 0,-32(31)
	cmplw 7,28,0
	bgt- 7,.L59
.L47:
	.loc 1 191 0
	cmplw 7,10,0
	bge- 7,.L45
.LVL57:
	.loc 1 197 0
	lwz 10,-28(31)
	.loc 1 195 0
	subfic 29,29,-2
.LVL58:
	add 0,29,0
	.loc 1 198 0
	stw 11,8(9)
	.loc 1 197 0
	stw 10,4(9)
	.loc 1 199 0
	stw 9,-28(31)
	.loc 1 195 0
	stwx 0,11,8
	.loc 1 194 0
	li 0,1
	.loc 1 200 0
	lwz 10,4(9)
	.loc 1 194 0
	stb 0,12(9)
	.loc 1 200 0
	cmpwi 7,10,0
	.loc 1 196 0
	stw 28,-32(31)
	.loc 1 200 0
	beq- 7,.L45
	.loc 1 201 0
	stw 9,8(10)
.LVL59:
.L45:
.LBB65:
.LBB66:
.LBB67:
	.loc 1 14 0
	lwz 3,12(30)
	bl LWP_MutexUnlock
.LVL60:
.L51:
.LBE67:
.LBE66:
.LBE65:
.LBE73:
.LBE77:
	.loc 1 213 0
	lwz 0,28(1)
	mr 3,31
	lwz 28,8(1)
	mtlr 0
	lwz 29,12(1)
	lwz 30,16(1)
.LVL61:
	lwz 31,20(1)
	addi 1,1,24
	.cfi_remember_state
.LCFI18:
	.cfi_def_cfa_offset 0
	.cfi_restore 31
	.cfi_restore 30
	.cfi_restore 29
	.cfi_restore 28
	blr
.LVL62:
.L59:
.LCFI19:
	.cfi_restore_state
.LBB78:
.LBB74:
	.loc 1 179 0 discriminator 2
	lbz 6,12(7)
	cmpwi 7,6,0
	beq- 7,.L48
	.loc 1 179 0 is_stmt 0 discriminator 3
	lwz 6,0(7)
	add 6,0,6
	addi 0,6,1
	cmplw 7,28,0
	bgt- 7,.L48
	.loc 1 183 0 is_stmt 1
	lwz 7,4(7)
	.loc 1 182 0
	stw 0,-32(31)
	.loc 1 184 0
	cmpwi 7,7,0
	.loc 1 183 0
	stw 7,-28(31)
	.loc 1 184 0
	beq- 7,.L47
	.loc 1 185 0
	stw 11,8(7)
	b .L47
.L48:
.LVL63:
.LBB68:
.LBB69:
.LBB70:
	.loc 1 14 0
	lwz 3,12(30)
	bl LWP_MutexUnlock
.LVL64:
.LBE70:
.LBE69:
.LBE68:
.LBE74:
	.loc 1 207 0
	mr 3,30
	slwi 4,28,5
	bl _ZN10CMEM2Alloc8allocateEj
.LVL65:
	.loc 1 208 0
	mr. 29,3
	beq- 0,.L60
	.loc 1 210 0
	lwz 5,-32(31)
	mr 4,31
	slwi 5,5,5
	bl memcpy
.LVL66:
	.loc 1 211 0
	mr 3,30
	mr 4,31
	.loc 1 212 0
	mr 31,29
.LVL67:
	.loc 1 211 0
	bl _ZN10CMEM2Alloc7releaseEPv
.LVL68:
.LBE78:
	.loc 1 213 0
	lwz 0,28(1)
	mr 3,31
	lwz 28,8(1)
.LVL69:
	mtlr 0
	lwz 29,12(1)
.LVL70:
	lwz 30,16(1)
.LVL71:
	lwz 31,20(1)
	addi 1,1,24
	.cfi_remember_state
	.cfi_restore 28
	.cfi_restore 29
	.cfi_restore 30
	.cfi_restore 31
.LCFI20:
	.cfi_def_cfa_offset 0
	blr
.LVL72:
.L54:
.LCFI21:
	.cfi_restore_state
.LBB79:
.LBB75:
	.loc 1 169 0
	li 31,0
.LVL73:
	b .L45
.LVL74:
.L57:
.LBE75:
.LBE79:
	.loc 1 213 0
	lwz 0,28(1)
.LBB80:
	.loc 1 159 0
	mr 3,30
.LBE80:
	.loc 1 213 0
	lwz 28,8(1)
.LBB81:
	.loc 1 159 0
	mr 4,5
.LVL75:
.LBE81:
	.loc 1 213 0
	lwz 29,12(1)
	mtlr 0
	lwz 30,16(1)
.LVL76:
	lwz 31,20(1)
.LVL77:
	addi 1,1,24
	.cfi_remember_state
.LCFI22:
	.cfi_def_cfa_offset 0
	.cfi_restore 31
	.cfi_restore 30
	.cfi_restore 29
	.cfi_restore 28
.LBB82:
	.loc 1 159 0
	b _ZN10CMEM2Alloc8allocateEj
.LVL78:
.L58:
.LCFI23:
	.cfi_restore_state
.LBB76:
	.loc 1 175 0
	stw 28,-32(31)
	b .L45
.LVL79:
.L60:
.LBE76:
	.loc 1 209 0
	li 31,0
.LVL80:
	b .L51
.LBE82:
	.cfi_endproc
.LFE378:
	.size	_ZN10CMEM2Alloc10reallocateEPvj, .-_ZN10CMEM2Alloc10reallocateEPvj
	.align 2
	.globl _ZN10CMEM2Alloc8FreeSizeEv
	.type	_ZN10CMEM2Alloc8FreeSizeEv, @function
_ZN10CMEM2Alloc8FreeSizeEv:
.LFB379:
	.loc 1 216 0
	.cfi_startproc
.LVL81:
	mflr 0
	stwu 1,-16(1)
.LCFI24:
	.cfi_def_cfa_offset 16
	.cfi_register 65, 0
	stw 31,12(1)
	mr 31,3
	.cfi_offset 31, -4
.LVL82:
	stw 0,20(1)
	stw 30,8(1)
.LBB90:
	.loc 1 219 0
	li 30,0
	.cfi_offset 30, -8
	.cfi_offset 65, 4
.LBB91:
.LBB92:
	.loc 1 13 0
	lwz 3,12(3)
.LVL83:
	bl LWP_MutexLock
.LBE92:
.LBE91:
	.loc 1 219 0
	lwz 9,8(31)
	cmpwi 7,9,0
	beq- 7,.L71
	.loc 1 227 0
	lbz 0,12(9)
	cmpwi 7,0,0
	lwz 0,4(9)
	bne- 7,.L72
.LVL84:
.L64:
	.loc 1 233 0 discriminator 1
	cmpwi 7,0,0
	beq- 7,.L73
.LVL85:
	.loc 1 225 0
	mr 9,0
.L74:
	.loc 1 227 0
	lbz 0,12(9)
.LVL86:
	cmpwi 7,0,0
	lwz 0,4(9)
	beq- 7,.L64
.LVL87:
.L72:
	.loc 1 227 0 is_stmt 0 discriminator 1
	cmpwi 7,0,0
	beq- 7,.L65
	.loc 1 228 0 is_stmt 1
	lwz 9,0(9)
	add 30,30,9
.LVL88:
	.loc 1 225 0
	mr 9,0
	b .L74
.LVL89:
.L65:
	.loc 1 231 0 discriminator 1
	lwz 0,4(31)
	addi 30,30,-1
	subf 9,9,0
	srawi 9,9,5
	add 30,30,9
.LVL90:
.L67:
.LBB93:
.LBB94:
.LBB95:
	.loc 1 14 0
	lwz 3,12(31)
.LBE95:
.LBE94:
.LBE93:
	.loc 1 237 0
	slwi 30,30,5
.LVL91:
.LBB102:
.LBB99:
.LBB96:
	.loc 1 14 0
	bl LWP_MutexUnlock
.LBE96:
.LBE99:
.LBE102:
.LBE90:
	.loc 1 238 0
	lwz 0,20(1)
	mr 3,30
	lwz 31,12(1)
.LVL92:
	mtlr 0
	lwz 30,8(1)
	addi 1,1,16
	.cfi_remember_state
.LCFI25:
	.cfi_def_cfa_offset 0
	.cfi_restore 31
	.cfi_restore 30
	blr
.LVL93:
.L73:
.LCFI26:
	.cfi_restore_state
.LBB105:
	.loc 1 234 0
	lwz 0,0(9)
	lwz 11,4(31)
	nor 0,0,0
	subf 9,9,11
	add 30,0,30
	srawi 9,9,5
	add 30,30,9
.LVL94:
	b .L67
.LVL95:
.L71:
	.loc 1 220 0
	lwz 0,0(31)
	lwz 30,4(31)
.LBB103:
.LBB100:
.LBB97:
	.loc 1 14 0
	lwz 3,12(31)
.LBE97:
.LBE100:
.LBE103:
	.loc 1 220 0
	subf 30,0,30
.LVL96:
.LBB104:
.LBB101:
.LBB98:
	.loc 1 14 0
	bl LWP_MutexUnlock
.LBE98:
.LBE101:
.LBE104:
.LBE105:
	.loc 1 238 0
	lwz 0,20(1)
	mr 3,30
	lwz 31,12(1)
.LVL97:
	mtlr 0
	lwz 30,8(1)
	addi 1,1,16
	.cfi_restore 30
	.cfi_restore 31
.LCFI27:
	.cfi_def_cfa_offset 0
	blr
	.cfi_endproc
.LFE379:
	.size	_ZN10CMEM2Alloc8FreeSizeEv, .-_ZN10CMEM2Alloc8FreeSizeEv
.Letext0:
	.file 2 "d:\\devkitpro\\devkitppc\\bin\\../lib/gcc/powerpc-eabi/4.6.3/../../../../powerpc-eabi/include/stdint.h"
	.file 3 "d:/devkitPro/libogc/include/gctypes.h"
	.file 4 "d:/devkitPro/libogc/include/ogc/mutex.h"
	.file 5 "d:/Projects/SaveGameManager/savegame-manager-gx/trunk/source/Memory/mem2alloc.hpp"
	.file 6 "d:\\devkitpro\\devkitppc\\bin\\../lib/gcc/powerpc-eabi/4.6.3/include/stddef.h"
	.file 7 "d:\\devkitpro\\devkitppc\\bin\\../lib/gcc/powerpc-eabi/4.6.3/../../../../powerpc-eabi/include/c++/4.6.3/cstdlib"
	.file 8 "d:\\devkitpro\\devkitppc\\bin\\../lib/gcc/powerpc-eabi/4.6.3/../../../../powerpc-eabi/include/c++/4.6.3/bits/stl_algobase.h"
	.file 9 "d:\\devkitpro\\devkitppc\\bin\\../lib/gcc/powerpc-eabi/4.6.3/../../../../powerpc-eabi/include/c++/4.6.3/bits/cpp_type_traits.h"
	.file 10 "d:\\devkitpro\\devkitppc\\bin\\../lib/gcc/powerpc-eabi/4.6.3/../../../../powerpc-eabi/include/c++/4.6.3/debug/debug.h"
	.file 11 "d:\\devkitpro\\devkitppc\\bin\\../lib/gcc/powerpc-eabi/4.6.3/../../../../powerpc-eabi/include/stdlib.h"
	.file 12 "d:\\devkitpro\\devkitppc\\bin\\../lib/gcc/powerpc-eabi/4.6.3/../../../../powerpc-eabi/include/c++/4.6.3/ext/numeric_traits.h"
	.file 13 "<built-in>"
	.file 14 "d:\\devkitpro\\devkitppc\\bin\\../lib/gcc/powerpc-eabi/4.6.3/../../../../powerpc-eabi/include/c++/4.6.3/new"