	.file	"mem2.cpp"
	.section	".text"
.Ltext0:
	.align 2
	.globl MEM2_takeBigOnes
	.type	MEM2_takeBigOnes, @function
MEM2_takeBigOnes:
.LFB6:
	.file 1 "d:/Projects/SaveGameManager/savegame-manager-gx/trunk/source/Memory/mem2.cpp"
	.loc 1 31 0
	.cfi_startproc
.LVL0:
	.loc 1 32 0
	lis 9,.LANCHOR0@ha
	.loc 1 33 0
	.loc 1 32 0
	stb 3,.LANCHOR0@l(9)
	.loc 1 33 0
	blr
	.cfi_endproc
.LFE6:
	.size	MEM2_takeBigOnes, .-MEM2_takeBigOnes
	.align 2
	.globl MEM2_init
	.type	MEM2_init, @function
MEM2_init:
.LFB7:
	.loc 1 36 0
	.cfi_startproc
.LVL1:
	mflr 0
	mr 4,3
	.loc 1 37 0
	lis 3,.LANCHOR0@ha
.LVL2:
	.loc 1 36 0
	stwu 1,-8(1)
.LCFI0:
	.cfi_def_cfa_offset 8
	.cfi_register 65, 0
	.loc 1 37 0
	la 3,.LANCHOR0@l(3)
	addi 3,3,4
	.loc 1 36 0
	stw 0,12(1)
	.loc 1 37 0
	.cfi_offset 65, 4
	bl _ZN10CMEM2Alloc4initEj
.LVL3:
	.loc 1 38 0
	lwz 0,12(1)
	addi 1,1,8
.LCFI1:
	.cfi_def_cfa_offset 0
	mtlr 0
	blr
	.cfi_endproc
.LFE7:
	.size	MEM2_init, .-MEM2_init
	.align 2
	.globl MEM2_cleanup
	.type	MEM2_cleanup, @function
MEM2_cleanup:
.LFB8:
	.loc 1 41 0
	.cfi_startproc
	mflr 0
	.loc 1 42 0
	lis 3,.LANCHOR0@ha
	.loc 1 41 0
	stwu 1,-8(1)
.LCFI2:
	.cfi_def_cfa_offset 8
	.cfi_register 65, 0
	.loc 1 42 0
	la 3,.LANCHOR0@l(3)
	addi 3,3,4
	.loc 1 41 0
	stw 0,12(1)
	.loc 1 42 0
	.cfi_offset 65, 4
	bl _ZN10CMEM2Alloc7cleanupEv
	.loc 1 43 0
	lwz 0,12(1)
	addi 1,1,8
.LCFI3:
	.cfi_def_cfa_offset 0
	mtlr 0
	blr
	.cfi_endproc
.LFE8:
	.size	MEM2_cleanup, .-MEM2_cleanup
	.align 2
	.globl MEM2_alloc
	.type	MEM2_alloc, @function
MEM2_alloc:
.LFB9:
	.loc 1 46 0
	.cfi_startproc
.LVL4:
	mflr 0
	mr 4,3
	.loc 1 47 0
	lis 3,.LANCHOR0@ha
.LVL5:
	.loc 1 46 0
	stwu 1,-8(1)
.LCFI4:
	.cfi_def_cfa_offset 8
	.cfi_register 65, 0
	.loc 1 47 0
	la 3,.LANCHOR0@l(3)
	addi 3,3,4
	.loc 1 46 0
	stw 0,12(1)
	.loc 1 47 0
	.cfi_offset 65, 4
	bl _ZN10CMEM2Alloc8allocateEj
.LVL6:
	.loc 1 48 0
	lwz 0,12(1)
	addi 1,1,8
.LCFI5:
	.cfi_def_cfa_offset 0
	mtlr 0
	blr
	.cfi_endproc
.LFE9:
	.size	MEM2_alloc, .-MEM2_alloc
	.align 2
	.globl MEM2_free
	.type	MEM2_free, @function
MEM2_free:
.LFB10:
	.loc 1 51 0
	.cfi_startproc
.LVL7:
	mflr 0
	mr 4,3
	.loc 1 52 0
	lis 3,.LANCHOR0@ha
.LVL8:
	.loc 1 51 0
	stwu 1,-8(1)
.LCFI6:
	.cfi_def_cfa_offset 8
	.cfi_register 65, 0
	.loc 1 52 0
	la 3,.LANCHOR0@l(3)
	addi 3,3,4
	.loc 1 51 0
	stw 0,12(1)
	.loc 1 52 0
	.cfi_offset 65, 4
	bl _ZN10CMEM2Alloc7releaseEPv
.LVL9:
	.loc 1 53 0
	lwz 0,12(1)
	addi 1,1,8
.LCFI7:
	.cfi_def_cfa_offset 0
	mtlr 0
	blr
	.cfi_endproc
.LFE10:
	.size	MEM2_free, .-MEM2_free
	.align 2
	.globl MEM2_realloc
	.type	MEM2_realloc, @function
MEM2_realloc:
.LFB11:
	.loc 1 56 0
	.cfi_startproc
.LVL10:
	mflr 0
	stwu 1,-8(1)
.LCFI8:
	.cfi_def_cfa_offset 8
	.cfi_register 65, 0
	mr 5,4
	stw 0,12(1)
	.loc 1 56 0
	mr 0,3
	.cfi_offset 65, 4
	.loc 1 57 0
	lis 3,.LANCHOR0@ha
.LVL11:
	mr 4,0
.LVL12:
	la 3,.LANCHOR0@l(3)
	addi 3,3,4
	bl _ZN10CMEM2Alloc10reallocateEPvj
.LVL13:
	.loc 1 58 0
	lwz 0,12(1)
	addi 1,1,8
.LCFI9:
	.cfi_def_cfa_offset 0
	mtlr 0
	blr
	.cfi_endproc
.LFE11:
	.size	MEM2_realloc, .-MEM2_realloc
	.align 2
	.globl MEM2_usableSize
	.type	MEM2_usableSize, @function
MEM2_usableSize:
.LFB12:
	.loc 1 61 0
	.cfi_startproc
.LVL14:
	mflr 0
	stwu 1,-8(1)
.LCFI10:
	.cfi_def_cfa_offset 8
	.cfi_register 65, 0
	stw 0,12(1)
	.loc 1 62 0
	.cfi_offset 65, 4
	bl _ZN10CMEM2Alloc10usableSizeEPv
.LVL15:
	.loc 1 63 0
	lwz 0,12(1)
	addi 1,1,8
.LCFI11:
	.cfi_def_cfa_offset 0
	mtlr 0
	blr
	.cfi_endproc
.LFE12:
	.size	MEM2_usableSize, .-MEM2_usableSize
	.align 2
	.globl MEM2_freesize
	.type	MEM2_freesize, @function
MEM2_freesize:
.LFB13:
	.loc 1 66 0
	.cfi_startproc
	mflr 0
	.loc 1 67 0
	lis 3,.LANCHOR0@ha
	.loc 1 66 0
	stwu 1,-8(1)
.LCFI12:
	.cfi_def_cfa_offset 8
	.cfi_register 65, 0
	.loc 1 67 0
	la 3,.LANCHOR0@l(3)
	addi 3,3,4
	.loc 1 66 0
	stw 0,12(1)
	.loc 1 67 0
	.cfi_offset 65, 4
	bl _ZN10CMEM2Alloc8FreeSizeEv
	.loc 1 68 0
	lwz 0,12(1)
	addi 1,1,8
.LCFI13:
	.cfi_def_cfa_offset 0
	mtlr 0
	blr
	.cfi_endproc
.LFE13:
	.size	MEM2_freesize, .-MEM2_freesize
	.align 2
	.globl MEM1_alloc
	.type	MEM1_alloc, @function
MEM1_alloc:
.LFB14:
	.loc 1 71 0
	.cfi_startproc
.LVL16:
	mflr 0
	stwu 1,-8(1)
.LCFI14:
	.cfi_def_cfa_offset 8
	.cfi_register 65, 0
	stw 0,12(1)
	.loc 1 72 0
	.cfi_offset 65, 4
	bl __real_malloc
.LVL17:
	.loc 1 73 0
	lwz 0,12(1)
	addi 1,1,8
.LCFI15:
	.cfi_def_cfa_offset 0
	mtlr 0
	blr
	.cfi_endproc
.LFE14:
	.size	MEM1_alloc, .-MEM1_alloc
	.align 2
	.globl MEM1_memalign
	.type	MEM1_memalign, @function
MEM1_memalign:
.LFB15:
	.loc 1 76 0
	.cfi_startproc
.LVL18:
	mflr 0
	stwu 1,-8(1)
.LCFI16:
	.cfi_def_cfa_offset 8
	.cfi_register 65, 0
	stw 0,12(1)
	.loc 1 77 0
	.cfi_offset 65, 4
	bl __real_memalign
.LVL19:
	.loc 1 78 0
	lwz 0,12(1)
	addi 1,1,8
.LCFI17:
	.cfi_def_cfa_offset 0
	mtlr 0
	blr
	.cfi_endproc
.LFE15:
	.size	MEM1_memalign, .-MEM1_memalign
	.align 2
	.globl MEM1_free
	.type	MEM1_free, @function
MEM1_free:
.LFB16:
	.loc 1 81 0
	.cfi_startproc
.LVL20:
	mflr 0
	stwu 1,-8(1)
.LCFI18:
	.cfi_def_cfa_offset 8
	.cfi_register 65, 0
	stw 0,12(1)
	.loc 1 82 0
	.cfi_offset 65, 4
	bl __real_free
.LVL21:
	.loc 1 83 0
	lwz 0,12(1)
	addi 1,1,8
.LCFI19:
	.cfi_def_cfa_offset 0
	mtlr 0
	blr
	.cfi_endproc
.LFE16:
	.size	MEM1_free, .-MEM1_free
	.align 2
	.globl MEM1_realloc
	.type	MEM1_realloc, @function
MEM1_realloc:
.LFB17:
	.loc 1 86 0
	.cfi_startproc
.LVL22:
	mflr 0
	stwu 1,-8(1)
.LCFI20:
	.cfi_def_cfa_offset 8
	.cfi_register 65, 0
	stw 0,12(1)
	.loc 1 87 0
	.cfi_offset 65, 4
	bl __real_realloc
.LVL23:
	.loc 1 88 0
	lwz 0,12(1)
	addi 1,1,8
.LCFI21:
	.cfi_def_cfa_offset 0
	mtlr 0
	blr
	.cfi_endproc
.LFE17:
	.size	MEM1_realloc, .-MEM1_realloc
	.align 2
	.globl __wrap_malloc
	.type	__wrap_malloc, @function
__wrap_malloc:
.LFB18:
	.loc 1 91 0
	.cfi_startproc
.LVL24:
	mflr 0
	stwu 1,-16(1)
.LCFI22:
	.cfi_def_cfa_offset 16
	.cfi_register 65, 0
	stw 30,8(1)
	lis 30,.LANCHOR0@ha
	.cfi_offset 30, -8
	stw 0,20(1)
	stw 31,12(1)
	.loc 1 91 0
	mr 31,3
	.cfi_offset 31, -4
	.cfi_offset 65, 4
.LBB14:
	.loc 1 93 0
	bl SYS_GetArena1Lo
.LVL25:
	lis 0,0x8170
	subf 0,31,0
	cmplw 7,3,0
	ble- 7,.L21
.L14:
	.loc 1 95 0 discriminator 5
	la 3,.LANCHOR0@l(30)
	mr 4,31
	addi 3,3,4
	bl _ZN10CMEM2Alloc8allocateEj
.LVL26:
	.loc 1 96 0 discriminator 5
	cmpwi 0,3,0
	beq- 0,.L22
.LVL27:
.L16:
.LBE14:
	.loc 1 106 0
	lwz 0,20(1)
	lwz 30,8(1)
	mtlr 0
	lwz 31,12(1)
.LVL28:
	addi 1,1,16
	.cfi_remember_state
.LCFI23:
	.cfi_def_cfa_offset 0
	.cfi_restore 31
	.cfi_restore 30
	blr
.LVL29:
.L21:
.LCFI24:
	.cfi_restore_state
.LBB15:
	.loc 1 93 0 discriminator 2
	lbz 0,.LANCHOR0@l(30)
	cmpwi 7,0,0
	beq- 7,.L15
	.loc 1 93 0 is_stmt 0 discriminator 3
	cmplwi 7,31,30720
	bgt- 7,.L14
.L15:
	.loc 1 101 0 is_stmt 1
	mr 3,31
	bl __real_malloc
.LVL30:
	.loc 1 102 0
	cmpwi 0,3,0
	bne+ 0,.L16
	.loc 1 105 0
	la 3,.LANCHOR0@l(30)
.LVL31:
	mr 4,31
	addi 3,3,4
	bl _ZN10CMEM2Alloc8allocateEj
	b .L16
.LVL32:
.L22:
	.loc 1 99 0
	mr 3,31
.LVL33:
	bl __real_malloc
	b .L16
.LBE15:
	.cfi_endproc
.LFE18:
	.size	__wrap_malloc, .-__wrap_malloc
	.align 2
	.globl __wrap_calloc
	.type	__wrap_calloc, @function
__wrap_calloc:
.LFB19:
	.loc 1 109 0
	.cfi_startproc
.LVL34:
	mflr 0
	stwu 1,-32(1)
.LCFI25:
	.cfi_def_cfa_offset 32
	.cfi_register 65, 0
	stw 28,16(1)
	mr 28,3
	.cfi_offset 28, -16
	stw 0,36(1)
	stw 29,20(1)
	lis 29,.LANCHOR0@ha
	.cfi_offset 29, -12
	.cfi_offset 65, 4
	stw 30,24(1)
	mr 30,4
	.cfi_offset 30, -8
	stw 31,28(1)
.LBB16:
	.loc 1 111 0
	.cfi_offset 31, -4
	bl SYS_GetArena1Lo
.LVL35:
	lis 0,0x8170
	subf 0,30,0
	cmplw 7,3,0
	ble- 7,.L31
.L24:
	.loc 1 113 0 discriminator 5
	mullw 5,30,28
	la 3,.LANCHOR0@l(29)
	addi 3,3,4
	mr 4,5
	stw 5,8(1)
	bl _ZN10CMEM2Alloc8allocateEj
.LVL36:
	.loc 1 114 0 discriminator 5
	lwz 5,8(1)
	mr. 31,3
	beq- 0,.L26
	.loc 1 116 0
	li 4,0
	bl memset
.LVL37:
.LBE16:
	.loc 1 130 0
	lwz 0,36(1)
	mr 3,31
	lwz 28,16(1)
.LVL38:
	mtlr 0
	lwz 29,20(1)
	lwz 30,24(1)
.LVL39:
	lwz 31,28(1)
.LVL40:
	addi 1,1,32
	.cfi_remember_state
	.cfi_restore 28
	.cfi_restore 29
	.cfi_restore 30
	.cfi_restore 31
.LCFI26:
	.cfi_def_cfa_offset 0
	blr
.LVL41:
.L31:
.LCFI27:
	.cfi_restore_state
.LBB17:
	.loc 1 111 0 discriminator 2
	lbz 0,.LANCHOR0@l(29)
	cmpwi 7,0,0
	bne- 7,.L32
.L25:
	.loc 1 121 0
	mr 3,28
	mr 4,30
	bl __real_calloc
.LVL42:
	.loc 1 122 0
	mr. 31,3
	beq- 0,.L33
.LVL43:
.L27:
.LBE17:
	.loc 1 130 0
	lwz 0,36(1)
	mr 3,31
	lwz 28,16(1)
.LVL44:
	mtlr 0
	lwz 29,20(1)
	lwz 30,24(1)
	lwz 31,28(1)
	addi 1,1,32
	.cfi_remember_state
.LCFI28:
	.cfi_def_cfa_offset 0
	.cfi_restore 31
	.cfi_restore 30
	.cfi_restore 29
	.cfi_restore 28
	blr
.LVL45:
.L32:
.LCFI29:
	.cfi_restore_state
.LBB18:
	.loc 1 111 0 discriminator 3
	cmplwi 7,30,30720
	ble- 7,.L25
	b .L24
.LVL46:
.L26:
	.loc 1 119 0
	mr 3,28
.LVL47:
	mr 4,30
	bl __real_calloc
	mr 31,3
.LVL48:
	b .L27
.LVL49:
.L33:
	.loc 1 125 0
	mullw 30,30,28
.LVL50:
	la 3,.LANCHOR0@l(29)
.LVL51:
	addi 3,3,4
	mr 4,30
	bl _ZN10CMEM2Alloc8allocateEj
.LVL52:
	.loc 1 126 0
	mr. 31,3
	beq- 0,.L27
	.loc 1 127 0
	li 4,0
	mr 5,30
	bl memset
.LVL53:
	b .L27
.LBE18:
	.cfi_endproc
.LFE19:
	.size	__wrap_calloc, .-__wrap_calloc
	.align 2
	.globl __wrap_memalign
	.type	__wrap_memalign, @function
__wrap_memalign:
.LFB20:
	.loc 1 133 0
	.cfi_startproc
.LVL54:
	mflr 0
	stwu 1,-24(1)
.LCFI30:
	.cfi_def_cfa_offset 24
	.cfi_register 65, 0
	stw 30,16(1)
	mr 30,3
	.cfi_offset 30, -8
	stw 0,28(1)
	stw 31,20(1)
	mr 31,4
	.cfi_offset 31, -4
	.cfi_offset 65, 4
	stw 29,12(1)
.LBB19:
	.loc 1 135 0
	.cfi_offset 29, -12
	bl SYS_GetArena1Lo
.LVL55:
	lis 0,0x8170
	subf 0,31,0
	cmplw 7,3,0
	ble- 7,.L42
.L35:
	.loc 1 137 0 discriminator 5
	cmplwi 7,30,32
	bgt- 7,.L37
	.loc 1 137 0 is_stmt 0 discriminator 1
	li 0,32
	divwu 0,0,30
	mullw 0,0,30
	cmpwi 7,0,32
	beq- 7,.L43
.L37:
	.loc 1 144 0 is_stmt 1
	mr 3,30
	mr 4,31
	bl __real_memalign
.LVL56:
.L38:
.LBE19:
	.loc 1 152 0
	lwz 0,28(1)
	lwz 29,12(1)
	mtlr 0
	lwz 30,16(1)
	lwz 31,20(1)
.LVL57:
	addi 1,1,24
	.cfi_remember_state
.LCFI31:
	.cfi_def_cfa_offset 0
	.cfi_restore 31
	.cfi_restore 30
	.cfi_restore 29
	blr
.LVL58:
.L42:
.LCFI32:
	.cfi_restore_state
.LBB20:
	.loc 1 135 0 discriminator 2
	lis 29,.LANCHOR0@ha
	lbz 0,.LANCHOR0@l(29)
	cmpwi 7,0,0
	beq- 7,.L36
	.loc 1 135 0 is_stmt 0 discriminator 3
	cmplwi 7,31,30720
	bgt- 7,.L35
.L36:
	.loc 1 146 0 is_stmt 1
	mr 3,30
	mr 4,31
	bl __real_memalign
.LVL59:
	.loc 1 147 0
	cmpwi 0,3,0
	bne+ 0,.L38
	.loc 1 147 0 is_stmt 0 discriminator 1
	cmplwi 7,30,32
	bgt- 7,.L38
	.loc 1 147 0 discriminator 2
	li 0,32
	divwu 0,0,30
	mullw 30,0,30
.LVL60:
	cmpwi 7,30,32
	bne+ 7,.L38
	.loc 1 151 0 is_stmt 1
	la 3,.LANCHOR0@l(29)
.LVL61:
	mr 4,31
	addi 3,3,4
	bl _ZN10CMEM2Alloc8allocateEj
	b .L38
.LVL62:
.L43:
	.loc 1 139 0
	lis 3,.LANCHOR0@ha
	mr 4,31
	la 3,.LANCHOR0@l(3)
	addi 3,3,4
	bl _ZN10CMEM2Alloc8allocateEj
.LVL63:
	.loc 1 140 0
	cmpwi 0,3,0
	beq- 0,.L37
.LBE20:
	.loc 1 152 0
	lwz 0,28(1)
	lwz 29,12(1)
	mtlr 0
	lwz 30,16(1)
.LVL64:
	lwz 31,20(1)
.LVL65:
	addi 1,1,24
	.cfi_restore 29
	.cfi_restore 30
	.cfi_restore 31
.LCFI33:
	.cfi_def_cfa_offset 0
	blr
	.cfi_endproc
.LFE20:
	.size	__wrap_memalign, .-__wrap_memalign
	.align 2
	.globl __wrap_free
	.type	__wrap_free, @function
__wrap_free:
.LFB21:
	.loc 1 155 0
	.cfi_startproc
.LVL66:
	.loc 1 156 0
	mr. 4,3
	.loc 1 155 0
	mflr 0
	stwu 1,-8(1)
.LCFI34:
	.cfi_def_cfa_offset 8
	.cfi_register 65, 0
	stw 0,12(1)
	.loc 1 156 0
	beq- 0,.L44
	.cfi_offset 65, 4
	.loc 1 159 0
	andis. 0,4,4096
	bne- 0,.L47
	.loc 1 165 0
	bl __real_free
.LVL67:
.L44:
	.loc 1 167 0
	lwz 0,12(1)
	addi 1,1,8
	.cfi_remember_state
.LCFI35:
	.cfi_def_cfa_offset 0
	mtlr 0
	blr
.LVL68:
.L47:
.LCFI36:
	.cfi_restore_state
	.loc 1 161 0
	lis 3,.LANCHOR0@ha
.LVL69:
	la 3,.LANCHOR0@l(3)
	addi 3,3,4
	bl _ZN10CMEM2Alloc7releaseEPv
.LVL70:
	.loc 1 167 0
	lwz 0,12(1)
	addi 1,1,8
.LCFI37:
	.cfi_def_cfa_offset 0
	mtlr 0
	blr
	.cfi_endproc
.LFE21:
	.size	__wrap_free, .-__wrap_free
	.align 2
	.globl __wrap_realloc
	.type	__wrap_realloc, @function
__wrap_realloc:
.LFB22:
	.loc 1 170 0
	.cfi_startproc
.LVL71:
	mflr 0
	stwu 1,-32(1)
.LCFI38:
	.cfi_def_cfa_offset 32
	.cfi_register 65, 0
	mfcr 12
	stw 28,16(1)
	lis 28,.LANCHOR0@ha
	.cfi_offset 28, -16
	.cfi_register 70, 12
	stw 0,36(1)
.LBB21:
	.loc 1 173 0
	andis. 0,3,4096
	.cfi_offset 65, 4
.LBE21:
	.loc 1 170 0
	stw 30,24(1)
	mr 30,4
	.cfi_offset 30, -8
	stw 31,28(1)
	mr 31,3
	.cfi_offset 31, -4
	stw 29,20(1)
	stw 12,12(1)
.LBB26:
	.loc 1 173 0
	bne- 0,.L49
	.cfi_offset 70, -20
	.cfi_offset 29, -12
	.loc 1 173 0 is_stmt 0 discriminator 1
	cmpwi 4,3,0
	beq- 4,.L56
.L50:
	.loc 1 191 0 is_stmt 1
	mr 3,31
.LVL72:
	mr 4,30
.LVL73:
	bl __real_realloc
.LVL74:
	.loc 1 192 0
	mr. 29,3
	beq- 0,.L57
.LVL75:
.L51:
.LBE26:
	.loc 1 205 0
	lwz 0,36(1)
	mr 3,29
	lwz 12,12(1)
	mtlr 0
	lwz 28,16(1)
	lwz 29,20(1)
.LVL76:
	mtcrf 8,12
	lwz 30,24(1)
	lwz 31,28(1)
.LVL77:
	addi 1,1,32
	.cfi_remember_state
.LCFI39:
	.cfi_def_cfa_offset 0
	.cfi_restore 70
	.cfi_restore 31
	.cfi_restore 30
	.cfi_restore 29
	.cfi_restore 28
	blr
.LVL78:
.L56:
.LCFI40:
	.cfi_restore_state
.LBB27:
	.loc 1 173 0 discriminator 2
	lis 28,.LANCHOR0@ha
	lbz 0,.LANCHOR0@l(28)
	cmpwi 7,0,0
	beq- 7,.L50
	.loc 1 173 0 is_stmt 0 discriminator 3
	cmplwi 7,4,30720
	ble- 7,.L50
.L49:
	.loc 1 175 0 is_stmt 1
	la 28,.LANCHOR0@l(28)
	mr 4,31
.LVL79:
	addi 28,28,4
	mr 5,30
	mr 3,28
.LVL80:
	bl _ZN10CMEM2Alloc10reallocateEPvj
.LVL81:
	.loc 1 176 0
	mr. 29,3
	bne+ 0,.L51
	.loc 1 179 0
	mr 3,30
.LVL82:
	bl __real_malloc
.LVL83:
	.loc 1 180 0
	mr. 29,3
	beq- 0,.L51
	.loc 1 183 0
	cmpwi 7,31,0
	beq- 7,.L51
.LVL84:
.LBB22:
.LBB23:
	.loc 1 62 0
	mr 3,31
.LVL85:
	bl _ZN10CMEM2Alloc10usableSizeEPv
.LBE23:
.LBE22:
	.loc 1 185 0
	cmplw 7,30,3
	ble+ 7,.L52
.LVL86:
.LBB24:
.LBB25:
	.loc 1 62 0
	mr 3,31
	bl _ZN10CMEM2Alloc10usableSizeEPv
	mr 30,3
.LVL87:
.L52:
.LBE25:
.LBE24:
	.loc 1 185 0 discriminator 3
	mr 4,31
	mr 3,29
	mr 5,30
	bl memcpy
	.loc 1 186 0 discriminator 3
	mr 3,28
	mr 4,31
	bl _ZN10CMEM2Alloc7releaseEPv
	b .L51
.LVL88:
.L57:
	.loc 1 195 0
	lis 3,.LANCHOR0@ha
.LVL89:
	mr 4,30
	la 3,.LANCHOR0@l(3)
	addi 3,3,4
	bl _ZN10CMEM2Alloc8allocateEj
.LVL90:
	.loc 1 196 0
	mr. 29,3
	beq- 0,.L51
	.loc 1 199 0
	beq- 4,.L51
	.loc 1 201 0
	mr 3,31
.LVL91:
	bl __real_malloc_usable_size
	cmplw 7,30,3
	bgt- 7,.L58
.LVL92:
.L53:
	.loc 1 201 0 is_stmt 0 discriminator 3
	mr 3,29
	mr 4,31
	mr 5,30
	bl memcpy
	.loc 1 202 0 is_stmt 1 discriminator 3
	mr 3,31
	bl __real_free
	b .L51
.LVL93:
.L58:
	.loc 1 201 0 discriminator 1
	mr 3,31
	bl __real_malloc_usable_size
	mr 30,3
.LVL94:
	b .L53
.LBE27:
	.cfi_endproc
.LFE22:
	.size	__wrap_realloc, .-__wrap_realloc
	.align 2
	.globl __wrap_malloc_usable_size
	.type	__wrap_malloc_usable_size, @function
__wrap_malloc_usable_size:
.LFB23:
	.loc 1 208 0
	.cfi_startproc
.LVL95:
	mflr 0
	stwu 1,-8(1)
.LCFI41:
	.cfi_def_cfa_offset 8
	.cfi_register 65, 0
	stw 0,12(1)
	.loc 1 209 0
	andis. 0,3,4096
	.cfi_offset 65, 4
	bne- 0,.L62
	.loc 1 211 0
	bl __real_malloc_usable_size
.LVL96:
	.loc 1 212 0
	lwz 0,12(1)
	addi 1,1,8
	.cfi_remember_state
.LCFI42:
	.cfi_def_cfa_offset 0
	mtlr 0
	blr
.LVL97:
.L62:
.LCFI43:
	.cfi_restore_state
	.loc 1 210 0
	bl _ZN10CMEM2Alloc10usableSizeEPv
.LVL98:
	.loc 1 212 0
	lwz 0,12(1)
	addi 1,1,8
.LCFI44:
	.cfi_def_cfa_offset 0
	mtlr 0
	blr
	.cfi_endproc
.LFE23:
	.size	__wrap_malloc_usable_size, .-__wrap_malloc_usable_size
	.section	.text.startup,"ax",@progbits
	.align 2
	.type	_GLOBAL__sub_I_MALLOC_MEM2, @function
_GLOBAL__sub_I_MALLOC_MEM2:
.LFB25:
	.loc 1 214 0
	.cfi_startproc
.LVL99:
.LBB28:
.LBB29:
.LBB30:
	.file 2 "d:/Projects/SaveGameManager/savegame-manager-gx/trunk/source/Memory/mem2alloc.hpp"
	.loc 2 25 0
	lis 9,.LANCHOR0@ha
	li 0,0
	la 9,.LANCHOR0@l(9)
	stw 0,4(9)
	stw 0,8(9)
	stw 0,12(9)
	stw 0,16(9)
.LBE30:
.LBE29:
.LBE28:
	.loc 1 214 0
	blr
	.cfi_endproc
.LFE25:
	.size	_GLOBAL__sub_I_MALLOC_MEM2, .-_GLOBAL__sub_I_MALLOC_MEM2
	.section	.ctors,"aw",@progbits
	.align 2
	.long	_GLOBAL__sub_I_MALLOC_MEM2
	.globl MALLOC_MEM2
	.section	.sbss,"aw",@nobits
	.align 2
	.type	MALLOC_MEM2, @object
	.size	MALLOC_MEM2, 4
MALLOC_MEM2:
	.zero	4
	.section	".bss"
	.align 2
	.set	.LANCHOR0,. + 0
	.type	_ZL15g_bigGoesToMem2, @object
	.size	_ZL15g_bigGoesToMem2, 1
_ZL15g_bigGoesToMem2:
	.zero	1
	.zero	3
	.type	_ZL8g_mem2gp, @object
	.size	_ZL8g_mem2gp, 16
_ZL8g_mem2gp:
	.zero	16
	.section	".text"
.Letext0:
	.file 3 "d:\\devkitpro\\devkitppc\\bin\\../lib/gcc/powerpc-eabi/4.6.3/../../../../powerpc-eabi/include/stdint.h"
	.file 4 "d:/devkitPro/libogc/include/ogc/mutex.h"
	.file 5 "d:\\devkitpro\\devkitppc\\bin\\../lib/gcc/powerpc-eabi/4.6.3/include/stddef.h"
	.file 6 "d:/devkitPro/libogc/include/gctypes.h"