   1              		.file	"MemTools.cpp"
   2              		.section	".text"
   3              	.Ltext0:
   4              		.align 2
   5              		.globl _ZN8MemTools17AllocateMemory_32Ej
   6              		.type	_ZN8MemTools17AllocateMemory_32Ej, @function
   7              	_ZN8MemTools17AllocateMemory_32Ej:
   8              	.LFB0:
   9              		.file 1 "d:/Projects/SaveGameManager/savegame-manager-gx/trunk/source/Memory/MemTools.cpp"
  10              		.loc 1 6 0
  11              		.cfi_startproc
  12              	.LVL0:
  13 0000 7C0802A6 		mflr 0
  14 0004 9421FFF8 		stwu 1,-8(1)
  15              	.LCFI0:
  16              		.cfi_def_cfa_offset 8
  17              		.cfi_register 65, 0
  18              		.loc 1 7 0
  19 0008 3883001F 		addi 4,3,31
  20 000c 38600020 		li 3,32
  21              	.LVL1:
  22 0010 54840034 		rlwinm 4,4,0,0,26
  23              	.LVL2:
  24              		.loc 1 6 0
  25 0014 9001000C 		stw 0,12(1)
  26              		.loc 1 7 0
  27              		.cfi_offset 65, 4
  28 0018 48000001 		bl memalign
  29              		.loc 1 8 0
  30 001c 8001000C 		lwz 0,12(1)
  31 0020 38210008 		addi 1,1,8
  32              	.LCFI1:
  33              		.cfi_def_cfa_offset 0
  34 0024 7C0803A6 		mtlr 0
  35 0028 4E800020 		blr
  36              		.cfi_endproc
  37              	.LFE0:
  38              		.size	_ZN8MemTools17AllocateMemory_32Ej, .-_ZN8MemTools17AllocateMemory_32Ej
  39              		.align 2
  40              		.globl _ZN8MemTools17AllocateMemory_64Ej
  41              		.type	_ZN8MemTools17AllocateMemory_64Ej, @function
  42              	_ZN8MemTools17AllocateMemory_64Ej:
  43              	.LFB1:
  44              		.loc 1 11 0
  45              		.cfi_startproc
  46              	.LVL3:
  47 002c 7C0802A6 		mflr 0
  48 0030 9421FFF8 		stwu 1,-8(1)
  49              	.LCFI2:
  50              		.cfi_def_cfa_offset 8
  51              		.cfi_register 65, 0
  52              		.loc 1 12 0
  53 0034 3883003F 		addi 4,3,63
  54 0038 38600040 		li 3,64
  55              	.LVL4:
  56 003c 54840032 		rlwinm 4,4,0,0,25
  57              	.LVL5:
  58              		.loc 1 11 0
  59 0040 9001000C 		stw 0,12(1)
  60              		.loc 1 12 0
  61              		.cfi_offset 65, 4
  62 0044 48000001 		bl memalign
  63              		.loc 1 13 0
  64 0048 8001000C 		lwz 0,12(1)
  65 004c 38210008 		addi 1,1,8
  66              	.LCFI3:
  67              		.cfi_def_cfa_offset 0
  68 0050 7C0803A6 		mtlr 0
  69 0054 4E800020 		blr
  70              		.cfi_endproc
  71              	.LFE1:
  72              		.size	_ZN8MemTools17AllocateMemory_64Ej, .-_ZN8MemTools17AllocateMemory_64Ej
  73              		.align 2
  74              		.globl _ZN8MemTools10MemIsEmptyEPci
  75              		.type	_ZN8MemTools10MemIsEmptyEPci, @function
  76              	_ZN8MemTools10MemIsEmptyEPci:
  77              	.LFB2:
  78              		.loc 1 16 0
  79              		.cfi_startproc
  80              	.LVL6:
  81              	.LBB2:
  82              		.loc 1 19 0
  83 0058 2C040000 		cmpwi 0,4,0
  84              	.LBE2:
  85              		.loc 1 16 0
  86 005c 7C6B1B78 		mr 11,3
  87              	.LBB3:
  88              		.loc 1 25 0
  89 0060 38600001 		li 3,1
  90              	.LVL7:
  91              		.loc 1 19 0
  92 0064 4C810020 		blelr- 0
  93              		.loc 1 21 0
  94 0068 880B0000 		lbz 0,0(11)
  95              		.loc 1 22 0
  96 006c 38600000 		li 3,0
  97              		.loc 1 21 0
  98 0070 39200000 		li 9,0
  99 0074 7C8903A6 		mtctr 4
 100 0078 2F800000 		cmpwi 7,0,0
 101 007c 41BE0014 		beq+ 7,.L6
 102 0080 4E800020 		blr
 103              	.LVL8:
 104              	.L7:
 105 0084 7C0B48AE 		lbzx 0,11,9
 106 0088 2F800000 		cmpwi 7,0,0
 107 008c 409E0014 		bne- 7,.L10
 108              	.LVL9:
 109              	.L6:
 110              		.loc 1 19 0
 111 0090 39290001 		addi 9,9,1
 112              	.LVL10:
 113 0094 4200FFF0 		bdnz .L7
 114              		.loc 1 25 0
 115 0098 38600001 		li 3,1
 116 009c 4E800020 		blr
 117              	.L10:
 118              		.loc 1 22 0
 119 00a0 38600000 		li 3,0
 120              	.LBE3:
 121              		.loc 1 26 0
 122 00a4 4E800020 		blr
 123              		.cfi_endproc
 124              	.LFE2:
 125              		.size	_ZN8MemTools10MemIsEmptyEPci, .-_ZN8MemTools10MemIsEmptyEPci
 126              	.Letext0:
 127              		.file 2 "d:/Projects/SaveGameManager/savegame-manager-gx/trunk/source/Memory/MemTools.h"
 128              		.file 3 "d:\\devkitpro\\devkitppc\\bin\\../lib/gcc/powerpc-eabi/4.6.3/../../../../powerpc-eabi/inc
 129              		.file 4 "d:/devkitPro/libogc/include/gctypes.h"