	.file	"Mp3Decoder.cpp"
	.section	".text"
.Ltext0:
	.section	.text._ZN12SoundDecoder4TellEv,"axG",@progbits,_ZN12SoundDecoder4TellEv,comdat
	.align 2
	.weak	_ZN12SoundDecoder4TellEv
	.type	_ZN12SoundDecoder4TellEv, @function
_ZN12SoundDecoder4TellEv:
.LFB1396:
	.file 1 "d:/Projects/SaveGameManager/savegame-manager-gx/trunk/source/SoundOperations/SoundDecoder.hpp"
	.loc 1 54 0
	.cfi_startproc
.LVL0:
	.loc 1 54 0
	lwz 3,68(3)
.LVL1:
	blr
	.cfi_endproc
.LFE1396:
	.size	_ZN12SoundDecoder4TellEv, .-_ZN12SoundDecoder4TellEv
	.section	.text._ZN12SoundDecoder9GetBufferEv,"axG",@progbits,_ZN12SoundDecoder9GetBufferEv,comdat
	.align 2
	.weak	_ZN12SoundDecoder9GetBufferEv
	.type	_ZN12SoundDecoder9GetBufferEv, @function
_ZN12SoundDecoder9GetBufferEv:
.LFB1401:
	.loc 1 61 0
	.cfi_startproc
.LVL2:
.LBB259:
.LBB260:
.LBB261:
.LBB262:
.LBB263:
	.file 2 "d:/Projects/SaveGameManager/savegame-manager-gx/trunk/source/SoundOperations/Mp3Decoder.cpp"
	.loc 2 217 0
	lwz 9,16(3)
.LBB264:
.LBB265:
	.file 3 "d:\\devkitpro\\devkitppc\\bin\\../lib/gcc/powerpc-eabi/4.6.3/../../../../powerpc-eabi/include/c++/4.6.3/bits/stl_vector.h"
	.loc 3 571 0
	lwz 11,20(3)
.LBE265:
.LBE264:
.LBE263:
.LBE262:
.LBE261:
	.file 4 "d:/Projects/SaveGameManager/savegame-manager-gx/trunk/source/SoundOperations/BufferCircle.hpp"
	.loc 4 54 0
	lhz 0,8(3)
.LVL3:
.LBB270:
.LBB269:
	li 3,0
.LVL4:
.LBB268:
.LBB267:
.LBB266:
	.loc 3 571 0
	subf 11,9,11
	srawi 11,11,2
.LBE266:
.LBE267:
.LBE268:
	.loc 4 83 0
	cmpw 7,0,11
	bgelr- 7
.LVL5:
.LBE269:
.LBE270:
	.loc 4 54 0
	slwi 0,0,2
.LVL6:
	lwzx 3,9,0
.LBE260:
.LBE259:
	.loc 1 61 0
	blr
	.cfi_endproc
.LFE1401:
	.size	_ZN12SoundDecoder9GetBufferEv, .-_ZN12SoundDecoder9GetBufferEv
	.section	.text._ZN12SoundDecoder13GetNextBufferEv,"axG",@progbits,_ZN12SoundDecoder13GetNextBufferEv,comdat
	.align 2
	.weak	_ZN12SoundDecoder13GetNextBufferEv
	.type	_ZN12SoundDecoder13GetNextBufferEv, @function
_ZN12SoundDecoder13GetNextBufferEv:
.LFB1402:
	.loc 1 62 0
	.cfi_startproc
.LVL7:
.LBB271:
.LBB272:
.LBB273:
	.loc 2 217 0
	lwz 11,16(3)
.LBE273:
.LBE272:
.LBE271:
	.loc 1 62 0
	mr 9,3
.LVL8:
.LBB281:
.LBB280:
.LBB278:
.LBB274:
.LBB275:
	.loc 3 571 0
	lwz 0,20(3)
.LBE275:
.LBE274:
.LBE278:
	.loc 4 58 0
	li 3,0
.LVL9:
.LBB279:
.LBB277:
.LBB276:
	.loc 3 571 0
	subf 0,11,0
.LBE276:
.LBE277:
.LBE279:
	.loc 4 58 0
	srawi. 0,0,2
	blelr- 0
.LVL10:
	lhz 9,8(9)
.LVL11:
	addi 9,9,1
.LVL12:
	divw 10,9,0
	mullw 0,10,0
.LVL13:
	subf 9,0,9
	slwi 9,9,2
	lwzx 3,11,9
.LBE280:
.LBE281:
	.loc 1 62 0
	blr
	.cfi_endproc
.LFE1402:
	.size	_ZN12SoundDecoder13GetNextBufferEv, .-_ZN12SoundDecoder13GetNextBufferEv
	.section	.text._ZN12SoundDecoder13GetLastBufferEv,"axG",@progbits,_ZN12SoundDecoder13GetLastBufferEv,comdat
	.align 2
	.weak	_ZN12SoundDecoder13GetLastBufferEv
	.type	_ZN12SoundDecoder13GetLastBufferEv, @function
_ZN12SoundDecoder13GetLastBufferEv:
.LFB1403:
	.loc 1 63 0
	.cfi_startproc
.LVL14:
.LBB282:
.LBB283:
.LBB284:
	.loc 2 217 0
	lwz 11,16(3)
.LBE284:
.LBE283:
.LBE282:
	.loc 1 63 0
	mr 9,3
.LVL15:
.LBB292:
.LBB291:
.LBB289:
.LBB285:
.LBB286:
	.loc 3 571 0
	lwz 0,20(3)
.LBE286:
.LBE285:
.LBE289:
	.loc 4 60 0
	li 3,0
.LVL16:
.LBB290:
.LBB288:
.LBB287:
	.loc 3 571 0
	subf 0,11,0
.LBE287:
.LBE288:
.LBE290:
	.loc 4 60 0
	srawi. 0,0,2
	blelr- 0
.LVL17:
	lhz 9,8(9)
.LVL18:
	add 9,0,9
.LVL19:
	addi 9,9,-1
	divw 10,9,0
	mullw 0,10,0
	subf 9,0,9
	slwi 9,9,2
	lwzx 3,11,9
.LBE291:
.LBE292:
	.loc 1 63 0
	blr
	.cfi_endproc
.LFE1403:
	.size	_ZN12SoundDecoder13GetLastBufferEv, .-_ZN12SoundDecoder13GetLastBufferEv
	.section	.text._ZN12SoundDecoder17IsNextBufferReadyEv,"axG",@progbits,_ZN12SoundDecoder17IsNextBufferReadyEv,comdat
	.align 2
	.weak	_ZN12SoundDecoder17IsNextBufferReadyEv
	.type	_ZN12SoundDecoder17IsNextBufferReadyEv, @function
_ZN12SoundDecoder17IsNextBufferReadyEv:
.LFB1406:
	.loc 1 66 0
	.cfi_startproc
.LVL20:
.LBB293:
.LBB294:
.LBB295:
.LBB296:
.LBB297:
	.loc 3 571 0
	lwz 11,20(3)
.LBE297:
.LBE296:
.LBE295:
.LBE294:
.LBE293:
	.loc 1 66 0
	mr 9,3
.LVL21:
.LBB319:
.LBB318:
.LBB302:
.LBB300:
.LBB298:
	.loc 3 571 0
	lwz 0,16(3)
.LBE298:
.LBE300:
.LBE302:
	.loc 4 72 0
	li 3,0
.LVL22:
.LBB303:
.LBB301:
.LBB299:
	.loc 3 571 0
	subf 0,0,11
.LBE299:
.LBE301:
.LBE303:
	.loc 4 72 0
	srawi. 0,0,2
	blelr- 0
.LVL23:
	lhz 10,8(9)
.LBB304:
.LBB305:
	.file 5 "d:\\devkitpro\\devkitppc\\bin\\../lib/gcc/powerpc-eabi/4.6.3/../../../../powerpc-eabi/include/c++/4.6.3/bits/stl_bvector.h"
	.loc 5 80 0
	lwz 11,40(9)
.LBE305:
.LBE304:
	.loc 4 72 0
	addi 9,10,1
.LVL24:
	divw 10,9,0
	mullw 0,10,0
	subf 0,0,9
.LVL25:
.LBB309:
.LBB306:
	.loc 5 80 0
	rlwinm 9,0,29,3,29
.LBE306:
.LBE309:
.LBB310:
.LBB311:
	.loc 5 692 0
	rlwinm 0,0,0,27,31
.LVL26:
.LBE311:
.LBE310:
.LBB315:
.LBB307:
	.loc 5 80 0
	lwzx 9,11,9
.LBE307:
.LBE315:
.LBB316:
.LBB314:
.LBB312:
.LBB313:
	.loc 5 200 0
	li 11,1
	slw 0,11,0
.LVL27:
.LBE313:
.LBE312:
.LBE314:
.LBE316:
.LBB317:
.LBB308:
	.loc 5 80 0
	and. 11,0,9
	mfcr 3
	rlwinm 3,3,3,1
	xori 3,3,1
.LBE308:
.LBE317:
.LBE318:
.LBE319:
	.loc 1 66 0
	blr
	.cfi_endproc
.LFE1406:
	.size	_ZN12SoundDecoder17IsNextBufferReadyEv, .-_ZN12SoundDecoder17IsNextBufferReadyEv
	.section	.text._ZN12SoundDecoder17IsLastBufferReadyEv,"axG",@progbits,_ZN12SoundDecoder17IsLastBufferReadyEv,comdat
	.align 2
	.weak	_ZN12SoundDecoder17IsLastBufferReadyEv
	.type	_ZN12SoundDecoder17IsLastBufferReadyEv, @function
_ZN12SoundDecoder17IsLastBufferReadyEv:
.LFB1407:
	.loc 1 67 0
	.cfi_startproc
.LVL28:
.LBB320:
.LBB321:
.LBB322:
.LBB323:
.LBB324:
	.loc 3 571 0
	lwz 11,20(3)
.LBE324:
.LBE323:
.LBE322:
.LBE321:
.LBE320:
	.loc 1 67 0
	mr 9,3
.LVL29:
.LBB346:
.LBB345:
.LBB329:
.LBB327:
.LBB325:
	.loc 3 571 0
	lwz 0,16(3)
.LBE325:
.LBE327:
.LBE329:
	.loc 4 74 0
	li 3,0
.LVL30:
.LBB330:
.LBB328:
.LBB326:
	.loc 3 571 0
	subf 0,0,11
.LBE326:
.LBE328:
.LBE330:
	.loc 4 74 0
	srawi. 0,0,2
	blelr- 0
.LVL31:
	lhz 10,8(9)
.LBB331:
.LBB332:
	.loc 5 80 0
	lwz 11,40(9)
.LBE332:
.LBE331:
	.loc 4 74 0
	add 9,0,10
.LVL32:
	addi 9,9,-1
	divw 10,9,0
	mullw 0,10,0
	subf 0,0,9
.LVL33:
.LBB336:
.LBB333:
	.loc 5 80 0
	rlwinm 9,0,29,3,29
.LBE333:
.LBE336:
.LBB337:
.LBB338:
	.loc 5 692 0
	rlwinm 0,0,0,27,31
.LVL34:
.LBE338:
.LBE337:
.LBB342:
.LBB334:
	.loc 5 80 0
	lwzx 9,11,9
.LBE334:
.LBE342:
.LBB343:
.LBB341:
.LBB339:
.LBB340:
	.loc 5 200 0
	li 11,1
	slw 0,11,0
.LVL35:
.LBE340:
.LBE339:
.LBE341:
.LBE343:
.LBB344:
.LBB335:
	.loc 5 80 0
	and. 11,0,9
	mfcr 3
	rlwinm 3,3,3,1
	xori 3,3,1
.LBE335:
.LBE344:
.LBE345:
.LBE346:
	.loc 1 67 0
	blr
	.cfi_endproc
.LFE1407:
	.size	_ZN12SoundDecoder17IsLastBufferReadyEv, .-_ZN12SoundDecoder17IsLastBufferReadyEv
	.section	.text._ZN12SoundDecoder5IsEOFEv,"axG",@progbits,_ZN12SoundDecoder5IsEOFEv,comdat
	.align 2
	.weak	_ZN12SoundDecoder5IsEOFEv
	.type	_ZN12SoundDecoder5IsEOFEv, @function
_ZN12SoundDecoder5IsEOFEv:
.LFB1408:
	.loc 1 68 0
	.cfi_startproc
.LVL36:
	.loc 1 68 0
	lbz 3,73(3)
.LVL37:
	blr
	.cfi_endproc
.LFE1408:
	.size	_ZN12SoundDecoder5IsEOFEv, .-_ZN12SoundDecoder5IsEOFEv
	.section	.text._ZN12SoundDecoder7SetLoopEb,"axG",@progbits,_ZN12SoundDecoder7SetLoopEb,comdat
	.align 2
	.weak	_ZN12SoundDecoder7SetLoopEb
	.type	_ZN12SoundDecoder7SetLoopEb, @function
_ZN12SoundDecoder7SetLoopEb:
.LFB1409:
	.loc 1 69 0
	.cfi_startproc
.LVL38:
	.loc 1 69 0
	stb 4,72(3)
	blr
	.cfi_endproc
.LFE1409:
	.size	_ZN12SoundDecoder7SetLoopEb, .-_ZN12SoundDecoder7SetLoopEb
	.section	.text._ZN12SoundDecoder12GetSoundTypeEv,"axG",@progbits,_ZN12SoundDecoder12GetSoundTypeEv,comdat
	.align 2
	.weak	_ZN12SoundDecoder12GetSoundTypeEv
	.type	_ZN12SoundDecoder12GetSoundTypeEv, @function
_ZN12SoundDecoder12GetSoundTypeEv:
.LFB1410:
	.loc 1 70 0
	.cfi_startproc
.LVL39:
	.loc 1 70 0
	lbz 3,60(3)
.LVL40:
	blr
	.cfi_endproc
.LFE1410:
	.size	_ZN12SoundDecoder12GetSoundTypeEv, .-_ZN12SoundDecoder12GetSoundTypeEv
	.section	.text._ZN10Mp3Decoder9GetFormatEv,"axG",@progbits,_ZN10Mp3Decoder9GetFormatEv,comdat
	.align 2
	.weak	_ZN10Mp3Decoder9GetFormatEv
	.type	_ZN10Mp3Decoder9GetFormatEv, @function
_ZN10Mp3Decoder9GetFormatEv:
.LFB1414:
	.file 6 "d:/Projects/SaveGameManager/savegame-manager-gx/trunk/source/SoundOperations/Mp3Decoder.hpp"
	.loc 6 36 0
	.cfi_startproc
.LVL41:
	.loc 6 36 0
	lbz 3,22748(3)
.LVL42:
	blr
	.cfi_endproc
.LFE1414:
	.size	_ZN10Mp3Decoder9GetFormatEv, .-_ZN10Mp3Decoder9GetFormatEv
	.section	.text._ZN10Mp3Decoder13GetSampleRateEv,"axG",@progbits,_ZN10Mp3Decoder13GetSampleRateEv,comdat
	.align 2
	.weak	_ZN10Mp3Decoder13GetSampleRateEv
	.type	_ZN10Mp3Decoder13GetSampleRateEv, @function
_ZN10Mp3Decoder13GetSampleRateEv:
.LFB1415:
	.loc 6 37 0
	.cfi_startproc
.LVL43:
	.loc 6 37 0
	lwz 3,22752(3)
.LVL44:
	blr
	.cfi_endproc
.LFE1415:
	.size	_ZN10Mp3Decoder13GetSampleRateEv, .-_ZN10Mp3Decoder13GetSampleRateEv
	.section	".text"
	.align 2
	.globl _ZN10Mp3Decoder4ReadEPhii
	.type	_ZN10Mp3Decoder4ReadEPhii, @function
_ZN10Mp3Decoder4ReadEPhii:
.LFB1429:
	.loc 2 140 0
	.cfi_startproc
.LVL45:
	mflr 0
	stwu 1,-48(1)
.LCFI0:
	.cfi_def_cfa_offset 48
	.cfi_register 65, 0
	stw 25,20(1)
	mr 25,4
	.cfi_offset 25, -28
	stw 0,52(1)
	stw 31,44(1)
	mr 31,3
	.cfi_offset 31, -4
	.cfi_offset 65, 4
.LBB347:
	.loc 2 141 0
	lwz 0,4(3)
	.loc 2 142 0
	li 3,-1
.LVL46:
.LBE347:
	.loc 2 140 0
	stw 26,24(1)
.LBB368:
	.loc 2 141 0
	cmpwi 7,0,0
.LBE368:
	.loc 2 140 0
	stw 27,28(1)
	stw 28,32(1)
	stw 29,36(1)
	stw 30,40(1)
.LBB369:
	.loc 2 141 0
	beq- 7,.L24
	.cfi_offset 30, -8
	.cfi_offset 29, -12
	.cfi_offset 28, -16
	.cfi_offset 27, -20
	.cfi_offset 26, -24
	.loc 2 144 0
	lbz 0,22748(31)
	.loc 2 147 0
	rlwinm 26,5,0,0,30
	.loc 2 144 0
	cmpwi 7,0,3
	beq- 7,.L53
.LVL47:
.L26:
	.loc 2 150 0
	lwz 9,22756(31)
	add 26,25,26
.LVL48:
	.loc 2 149 0
	mr 30,25
.LVL49:
.L51:
.LBB348:
	.loc 2 154 0 discriminator 1
	lhz 0,13514(31)
	cmplw 7,0,9
	bgt- 7,.L33
.L54:
.LBB349:
	.loc 2 170 0
	lwz 0,76(31)
	cmpwi 7,0,0
	beq- 7,.L34
	.loc 2 170 0 is_stmt 0 discriminator 1
	lwz 0,136(31)
	addi 29,31,76
	cmpwi 7,0,1
	beq- 7,.L34
.L35:
.LBE349:
	.loc 2 196 0 is_stmt 1
	addi 28,31,140
	mr 4,29
	mr 3,28
	bl mad_frame_decode
	cmpwi 7,3,0
	beq- 7,.L38
	.loc 2 198 0
	lwz 0,136(31)
	andi. 9,0,65280
	beq- 0,.L39
	.loc 2 200 0
	cmpwi 7,0,257
	beq- 7,.L40
.L52:
	lwz 9,22756(31)
	.loc 2 154 0
	lhz 0,13514(31)
	cmplw 7,0,9
	ble- 7,.L54
.L33:
	.loc 2 156 0
	cmplw 7,30,26
	bge- 7,.L55
	.loc 2 159 0
	addi 11,9,3376
.LBB352:
.LBB353:
	.loc 2 130 0
	lis 0,0xfff
.LBE353:
.LBE352:
	.loc 2 159 0
	slwi 11,11,2
.LBB356:
.LBB354:
	.loc 2 130 0
	ori 0,0,65535
.LBE354:
.LBE356:
	.loc 2 159 0
	add 11,31,11
	lwz 11,12(11)
.LVL50:
.LBB357:
.LBB355:
	.loc 2 130 0
	cmpw 7,11,0
	.loc 2 131 0
	li 0,32767
	.loc 2 130 0
	bgt- 7,.L29
	.loc 2 132 0
	lis 0,0xf000
	ori 0,0,1
	cmpw 7,11,0
	.loc 2 133 0
	li 0,-32767
	.loc 2 132 0
	blt- 7,.L29
.LVL51:
	.loc 2 135 0
	srawi 0,11,13
	.loc 2 136 0
	extsh 0,0
.LVL52:
.L29:
.LBE355:
.LBE357:
	.loc 2 162 0
	lwz 11,144(31)
	.loc 2 159 0
	sth 0,0(30)
.LVL53:
	.loc 2 162 0
	cmpwi 7,11,0
	bne- 7,.L30
	.loc 2 160 0
	addi 30,30,2
.LVL54:
.L31:
	.loc 2 167 0
	addi 9,9,1
	stw 9,22756(31)
	b .L51
.L40:
	.loc 2 200 0 discriminator 1
	lwz 0,22740(31)
	cmpwi 7,0,0
	beq- 7,.L52
.L38:
	.loc 2 212 0
	lwz 10,176(31)
	mr 4,1
	lwz 11,180(31)
	addi 3,31,22732
	stwu 10,8(4)
	stw 11,4(4)
	bl mad_timer_add
	.loc 2 213 0
	addi 3,31,9408
	mr 4,28
	bl mad_synth_frame
	.loc 2 214 0
	li 0,0
	stw 0,22756(31)
	li 9,0
	b .L51
.LVL55:
.L30:
	.loc 2 164 0
	addi 11,9,4528
.LBB358:
.LBB359:
	.loc 2 130 0
	lis 0,0xfff
.LBE359:
.LBE358:
	.loc 2 164 0
	slwi 11,11,2
.LBB362:
.LBB360:
	.loc 2 130 0
	ori 0,0,65535
.LBE360:
.LBE362:
	.loc 2 164 0
	add 11,31,11
	lwz 11,12(11)
.LVL56:
.LBB363:
.LBB361:
	.loc 2 130 0
	cmpw 7,11,0
	.loc 2 131 0
	li 0,32767
	.loc 2 130 0
	bgt- 7,.L32
	.loc 2 132 0
	lis 0,0xf000
	ori 0,0,1
	cmpw 7,11,0
	.loc 2 133 0
	li 0,-32767
	.loc 2 132 0
	blt- 7,.L32
.LVL57:
	.loc 2 135 0
	srawi 0,11,13
	.loc 2 136 0
	extsh 0,0
.LVL58:
.L32:
.LBE361:
.LBE363:
	.loc 2 164 0
	sth 0,2(30)
	.loc 2 165 0
	addi 30,30,4
.LVL59:
	b .L31
.L34:
.LBB364:
.LBB350:
	.loc 2 176 0
	lwz 4,100(31)
	.loc 2 174 0
	li 28,0
	.loc 2 173 0
	lhz 27,62(31)
	.loc 2 176 0
	cmpwi 7,4,0
	.loc 2 173 0
	lwz 0,64(31)
	.loc 2 172 0
	lwz 29,22744(31)
.LVL60:
	.loc 2 173 0
	mullw 27,27,0
.LVL61:
	.loc 2 176 0
	beq- 7,.L36
	.loc 2 178 0
	lwz 28,80(31)
	.loc 2 179 0
	mr 3,29
	.loc 2 178 0
	subf 28,4,28
.LVL62:
	.loc 2 179 0
	mr 5,28
	.loc 2 180 0
	add 29,29,28
	.loc 2 179 0
	bl memmove
.LVL63:
	.loc 2 181 0
	subf 27,28,27
.LVL64:
.L36:
	.loc 2 184 0
	lwz 3,4(31)
	mr 5,27
	mr 4,29
	bl _ZN5CFile4readEPhj
.LVL65:
	.loc 2 185 0
	mr. 5,3
	ble- 0,.L56
.LVL66:
.L37:
	.loc 2 192 0
	lwz 0,68(31)
	.loc 2 193 0
	addi 29,31,76
.LVL67:
	lwz 4,22744(31)
	mr 3,29
	.loc 2 192 0
	add 0,0,5
	.loc 2 193 0
	add 5,28,5
.LVL68:
	.loc 2 192 0
	stw 0,68(31)
	.loc 2 193 0
	bl mad_stream_buffer
	b .L35
.LVL69:
.L39:
.LBE350:
.LBE364:
	.loc 2 205 0
	cmpwi 7,0,1
	bne- 7,.L49
	.loc 2 207 0 discriminator 1
	lwz 0,22740(31)
	cmpwi 7,0,0
	beq+ 7,.L38
.L49:
	.loc 2 208 0
	li 3,-1
.LVL70:
.L24:
.LBE348:
.LBE369:
	.loc 2 217 0
	lwz 0,52(1)
	lwz 25,20(1)
.LVL71:
	mtlr 0
	lwz 26,24(1)
	lwz 27,28(1)
	lwz 28,32(1)
	lwz 29,36(1)
	lwz 30,40(1)
	lwz 31,44(1)
.LVL72:
	addi 1,1,48
	.cfi_remember_state
.LCFI1:
	.cfi_def_cfa_offset 0
	.cfi_restore 31
	.cfi_restore 30
	.cfi_restore 29
	.cfi_restore 28
	.cfi_restore 27
	.cfi_restore 26
	.cfi_restore 25
	blr
.LVL73:
.L56:
.LCFI2:
	.cfi_restore_state
.LBB370:
.LBB366:
.LBB365:
.LBB351:
	.loc 2 188 0
	li 0,0
	.loc 2 187 0
	stw 29,22740(31)
	.loc 2 189 0
	li 5,8
	.loc 2 188 0
	stw 0,0(29)
	stw 0,4(29)
.LVL74:
	b .L37
.LVL75:
.L55:
.LBE351:
.LBE365:
.LBE366:
.LBE370:
	.loc 2 217 0
	lwz 0,52(1)
.LBB371:
.LBB367:
	.loc 2 157 0
	subf 3,25,30
.LBE367:
.LBE371:
	.loc 2 217 0
	lwz 26,24(1)
.LVL76:
	mtlr 0
	lwz 25,20(1)
.LVL77:
	lwz 27,28(1)
	lwz 28,32(1)
	lwz 29,36(1)
	lwz 30,40(1)
.LVL78:
	lwz 31,44(1)
.LVL79:
	addi 1,1,48
	.cfi_remember_state
	.cfi_restore 25
	.cfi_restore 26
	.cfi_restore 27
	.cfi_restore 28
	.cfi_restore 29
	.cfi_restore 30
	.cfi_restore 31
.LCFI3:
	.cfi_def_cfa_offset 0
	blr
.LVL80:
.L53:
.LCFI4:
	.cfi_restore_state
.LBB372:
	.loc 2 145 0
	rlwinm 26,5,0,0,29
.LVL81:
	b .L26
.LBE372:
	.cfi_endproc
.LFE1429:
	.size	_ZN10Mp3Decoder4ReadEPhii, .-_ZN10Mp3Decoder4ReadEPhii
	.align 2
	.globl _ZN10Mp3Decoder6RewindEv
	.type	_ZN10Mp3Decoder6RewindEv, @function
_ZN10Mp3Decoder6RewindEv:
.LFB1427:
	.loc 2 110 0
	.cfi_startproc
.LVL82:
	stwu 1,-24(1)
.LCFI5:
	.cfi_def_cfa_offset 24
	mflr 0
	stw 30,16(1)
	.loc 2 112 0
	addi 30,3,140
	.cfi_offset 30, -8
	.cfi_register 65, 0
	.loc 2 110 0
	stw 31,20(1)
	mr 31,3
	.cfi_offset 31, -4
	stw 29,12(1)
	.loc 2 112 0
	mr 3,30
.LVL83:
	.loc 2 113 0
	addi 29,31,76
	.cfi_offset 29, -12
	.loc 2 110 0
	stw 0,28(1)
	.loc 2 112 0
	.cfi_offset 65, 4
	bl mad_frame_finish
	.loc 2 113 0
	mr 3,29
	bl mad_stream_finish
	.loc 2 114 0
	lis 9,mad_timer_zero@ha
	la 9,mad_timer_zero@l(9)
	.loc 2 115 0
	mr 3,29
	.loc 2 114 0
	lwz 10,0(9)
	lwz 11,4(9)
	stw 10,22732(31)
	stw 11,22736(31)
	.loc 2 115 0
	bl mad_stream_init
	.loc 2 116 0
	mr 3,30
	bl mad_frame_init
	.loc 2 117 0
	addi 3,31,9408
	bl mad_synth_init
	.loc 2 121 0
	lwz 9,4(31)
	.loc 2 118 0
	li 0,0
	.loc 2 122 0
	li 3,-1
	.loc 2 121 0
	cmpwi 7,9,0
	.loc 2 118 0
	stw 0,22756(31)
	.loc 2 119 0
	stw 0,22740(31)
	.loc 2 121 0
	beq- 7,.L58
	.loc 2 124 0
	mr 3,31
	bl _ZN12SoundDecoder6RewindEv
.L58:
	.loc 2 125 0
	lwz 0,28(1)
	lwz 29,12(1)
	mtlr 0
	lwz 30,16(1)
	lwz 31,20(1)
.LVL84:
	addi 1,1,24
.LCFI6:
	.cfi_def_cfa_offset 0
	.cfi_restore 31
	.cfi_restore 30
	.cfi_restore 29
	blr
	.cfi_endproc
.LFE1427:
	.size	_ZN10Mp3Decoder6RewindEv, .-_ZN10Mp3Decoder6RewindEv
	.align 2
	.globl _ZN10Mp3DecoderD2Ev
	.type	_ZN10Mp3DecoderD2Ev, @function
_ZN10Mp3DecoderD2Ev:
.LFB1423:
	.loc 2 66 0
	.cfi_startproc
	.cfi_personality 0,__gxx_personality_v0
	.cfi_lsda 0,.LLSDA1423
.LVL85:
	mflr 0
	stwu 1,-16(1)
.LCFI7:
	.cfi_def_cfa_offset 16
	.cfi_register 65, 0
.LBB374:
	lis 9,_ZTV10Mp3Decoder+8@ha
.LBE374:
	stw 31,12(1)
	mr 31,3
	.cfi_offset 31, -4
	stw 0,20(1)
.LBB375:
	la 0,_ZTV10Mp3Decoder+8@l(9)
	.cfi_offset 65, 4
.LBE375:
	stw 30,8(1)
.LBB376:
	.loc 2 66 0
	stw 0,0(3)
	.loc 2 68 0
	li 0,1
	stb 0,75(3)
	.loc 2 69 0
	b .L61
	.cfi_offset 30, -8
.LVL86:
.L62:
	.loc 2 70 0
	li 3,100
.LEHB0:
	bl usleep
.L61:
	.loc 2 69 0 discriminator 1
	lbz 0,74(31)
	cmpwi 7,0,0
	bne+ 7,.L62
	.loc 2 73 0
	addi 3,31,140
	bl mad_frame_finish
	.loc 2 74 0
	addi 3,31,76
	bl mad_stream_finish
.LEHE0:
	.loc 2 76 0
	lwz 3,22744(31)
	cmpwi 7,3,0
	beq- 7,.L63
	.loc 2 77 0
	bl free
.L63:
	.loc 2 78 0
	li 0,0
	.loc 2 66 0
	mr 3,31
	.loc 2 78 0
	stw 0,22744(31)
.LEHB1:
	.loc 2 66 0
	bl _ZN12SoundDecoderD2Ev
.LEHE1:
.LBE376:
	.loc 2 79 0
	lwz 0,20(1)
	lwz 30,8(1)
	mtlr 0
	lwz 31,12(1)
.LVL87:
	addi 1,1,16
	.cfi_remember_state
.LCFI8:
	.cfi_def_cfa_offset 0
	.cfi_restore 31
	.cfi_restore 30
	blr
.LVL88:
.L66:
.LCFI9:
	.cfi_restore_state
	mr 30,3
.LBB377:
	.loc 2 66 0
	mr 3,31
	bl _ZN12SoundDecoderD2Ev
	mr 3,30
.LEHB2:
	bl _Unwind_Resume
.LEHE2:
.LBE377:
	.cfi_endproc
.LFE1423:
	.globl __gxx_personality_v0
	.section	.gcc_except_table,"a",@progbits
.LLSDA1423:
	.byte	0xff
	.byte	0xff
	.byte	0x1
	.uleb128 .LLSDACSE1423-.LLSDACSB1423
.LLSDACSB1423:
	.uleb128 .LEHB0-.LFB1423
	.uleb128 .LEHE0-.LEHB0
	.uleb128 .L66-.LFB1423
	.uleb128 0
	.uleb128 .LEHB1-.LFB1423
	.uleb128 .LEHE1-.LEHB1
	.uleb128 0
	.uleb128 0
	.uleb128 .LEHB2-.LFB1423
	.uleb128 .LEHE2-.LEHB2
	.uleb128 0
	.uleb128 0
.LLSDACSE1423:
	.section	".text"
	.size	_ZN10Mp3DecoderD2Ev, .-_ZN10Mp3DecoderD2Ev
	.section	.text._ZN12SoundDecoder11ClearBufferEv,"axG",@progbits,_ZN12SoundDecoder11ClearBufferEv,comdat
	.align 2
	.weak	_ZN12SoundDecoder11ClearBufferEv
	.type	_ZN12SoundDecoder11ClearBufferEv, @function
_ZN12SoundDecoder11ClearBufferEv:
.LFB1411:
	.loc 1 71 0
	.cfi_startproc
.LVL89:
	mflr 0
	stwu 1,-8(1)
.LCFI10:
	.cfi_def_cfa_offset 8
	.cfi_register 65, 0
	addi 3,3,8
.LVL90:
	stw 0,12(1)
	.loc 1 71 0
	.cfi_offset 65, 4
	bl _ZN12BufferCircle11ClearBufferEv
.LVL91:
	lwz 0,12(1)
	addi 1,1,8
.LCFI11:
	.cfi_def_cfa_offset 0
	mtlr 0
	blr
	.cfi_endproc
.LFE1411:
	.size	_ZN12SoundDecoder11ClearBufferEv, .-_ZN12SoundDecoder11ClearBufferEv
	.section	.text._ZN12SoundDecoder8LoadNextEv,"axG",@progbits,_ZN12SoundDecoder8LoadNextEv,comdat
	.align 2
	.weak	_ZN12SoundDecoder8LoadNextEv
	.type	_ZN12SoundDecoder8LoadNextEv, @function
_ZN12SoundDecoder8LoadNextEv:
.LFB1404:
	.loc 1 64 0
	.cfi_startproc
.LVL92:
	mflr 0
	stwu 1,-8(1)
.LCFI12:
	.cfi_def_cfa_offset 8
	.cfi_register 65, 0
	addi 3,3,8
.LVL93:
	stw 0,12(1)
	.loc 1 64 0
	.cfi_offset 65, 4
	bl _ZN12BufferCircle8LoadNextEv
.LVL94:
	lwz 0,12(1)
	addi 1,1,8
.LCFI13:
	.cfi_def_cfa_offset 0
	mtlr 0
	blr
	.cfi_endproc
.LFE1404:
	.size	_ZN12SoundDecoder8LoadNextEv, .-_ZN12SoundDecoder8LoadNextEv
	.section	.text._ZN12SoundDecoder4SeekEi,"axG",@progbits,_ZN12SoundDecoder4SeekEi,comdat
	.align 2
	.weak	_ZN12SoundDecoder4SeekEi
	.type	_ZN12SoundDecoder4SeekEi, @function
_ZN12SoundDecoder4SeekEi:
.LFB1397:
	.loc 1 55 0
	.cfi_startproc
.LVL95:
	mflr 0
	stwu 1,-8(1)
.LCFI14:
	.cfi_def_cfa_offset 8
	.cfi_register 65, 0
	li 5,0
	stw 0,12(1)
	.loc 1 55 0
	stw 4,68(3)
	lwz 3,4(3)
.LVL96:
	.cfi_offset 65, 4
	bl _ZN5CFile4seekEli
.LVL97:
	lwz 0,12(1)
	addi 1,1,8
.LCFI15:
	.cfi_def_cfa_offset 0
	mtlr 0
	blr
	.cfi_endproc
.LFE1397:
	.size	_ZN12SoundDecoder4SeekEi, .-_ZN12SoundDecoder4SeekEi
	.section	.text._ZN12SoundDecoder8IsStereoEv,"axG",@progbits,_ZN12SoundDecoder8IsStereoEv,comdat
	.align 2
	.weak	_ZN12SoundDecoder8IsStereoEv
	.type	_ZN12SoundDecoder8IsStereoEv, @function
_ZN12SoundDecoder8IsStereoEv:
.LFB1412:
	.loc 1 72 0
	.cfi_startproc
.LVL98:
	mflr 0
	stwu 1,-16(1)
.LCFI16:
	.cfi_def_cfa_offset 16
	.cfi_register 65, 0
	stw 31,12(1)
	mr 31,3
	.cfi_offset 31, -4
	stw 0,20(1)
	.loc 1 72 0
	lwz 9,0(3)
	lwz 0,24(9)
	.cfi_offset 65, 4
	mtctr 0
	bctrl
.LVL99:
	cmpwi 7,3,3
	li 3,1
	beq- 7,.L71
.LVL100:
.LBB380:
.LBB381:
	lwz 9,0(31)
	mr 3,31
	lwz 0,24(9)
	mtctr 0
	bctrl
	xori 3,3,2
	cntlzw 3,3
	srwi 3,3,5
.LVL101:
.L71:
.LBE381:
.LBE380:
	.loc 1 72 0 is_stmt 0 discriminator 4
	lwz 0,20(1)
	lwz 31,12(1)
.LVL102:
	mtlr 0
	addi 1,1,16
.LCFI17:
	.cfi_def_cfa_offset 0
	.cfi_restore 31
	blr
	.cfi_endproc
.LFE1412:
	.size	_ZN12SoundDecoder8IsStereoEv, .-_ZN12SoundDecoder8IsStereoEv
	.section	.text._ZN12SoundDecoder7Is16BitEv,"axG",@progbits,_ZN12SoundDecoder7Is16BitEv,comdat
	.align 2
	.weak	_ZN12SoundDecoder7Is16BitEv
	.type	_ZN12SoundDecoder7Is16BitEv, @function
_ZN12SoundDecoder7Is16BitEv:
.LFB1413:
	.loc 1 73 0 is_stmt 1
	.cfi_startproc
.LVL103:
	mflr 0
	stwu 1,-16(1)
.LCFI18:
	.cfi_def_cfa_offset 16
	.cfi_register 65, 0
	stw 31,12(1)
	mr 31,3
	.cfi_offset 31, -4
	stw 0,20(1)
	.loc 1 73 0
	lwz 9,0(3)
	lwz 0,24(9)
	.cfi_offset 65, 4
	mtctr 0
	bctrl
.LVL104:
	cmpwi 7,3,3
	li 3,1
	beq- 7,.L74
.LVL105:
.LBB384:
.LBB385:
	lwz 9,0(31)
	mr 3,31
	lwz 0,24(9)
	mtctr 0
	bctrl
	xori 3,3,1
	cntlzw 3,3
	srwi 3,3,5
.LVL106:
.L74:
.LBE385:
.LBE384:
	.loc 1 73 0 is_stmt 0 discriminator 4
	lwz 0,20(1)
	lwz 31,12(1)
.LVL107:
	mtlr 0
	addi 1,1,16
.LCFI19:
	.cfi_def_cfa_offset 0
	.cfi_restore 31
	blr
	.cfi_endproc
.LFE1413:
	.size	_ZN12SoundDecoder7Is16BitEv, .-_ZN12SoundDecoder7Is16BitEv
	.section	".text"
	.align 2
	.type	_ZN10Mp3Decoder8OpenFileEv.part.3, @function
_ZN10Mp3Decoder8OpenFileEv.part.3:
.LFB1450:
	.loc 2 81 0 is_stmt 1
	.cfi_startproc
.LVL108:
	mflr 0
	stwu 1,-4112(1)
.LCFI20:
	.cfi_def_cfa_offset 4112
	.cfi_register 65, 0
.LBB386:
	.loc 2 94 0
	li 5,4096
	li 6,0
.LBE386:
	.loc 2 81 0
	stw 31,4108(1)
.LBB387:
	.loc 2 94 0
	addi 4,1,8
.LBE387:
	.loc 2 81 0
	stw 0,4116(1)
	mr 31,3
	.cfi_offset 65, 4
	.cfi_offset 31, -4
	stw 30,4104(1)
.LBB388:
	.loc 2 94 0
	lwz 9,0(3)
	lwz 0,8(9)
	mtctr 0
	.cfi_offset 30, -8
	bctrl
.LVL109:
	.loc 2 95 0
	cmpwi 7,3,0
	ble- 7,.L82
	.loc 2 104 0
	lwz 9,144(31)
	.loc 2 105 0
	mr 3,31
.LVL110:
	.loc 2 103 0
	lwz 0,160(31)
	.loc 2 104 0
	addic 9,9,-1
	subfe 9,9,9
	rlwinm 9,9,0,0,30
	.loc 2 103 0
	stw 0,22752(31)
	.loc 2 104 0
	addi 9,9,3
	stb 9,22748(31)
	.loc 2 105 0
	lwz 9,0(31)
	lwz 0,20(9)
	mtctr 0
	bctrl
	.loc 2 106 0
	lwz 9,0(31)
	mr 3,31
	lwz 0,32(9)
	mtctr 0
	bctrl
.LBE388:
	.loc 2 107 0
	lwz 0,4116(1)
	lwz 30,4104(1)
	mtlr 0
	lwz 31,4108(1)
.LVL111:
	addi 1,1,4112
	.cfi_remember_state
.LCFI21:
	.cfi_def_cfa_offset 0
	.cfi_restore 31
	.cfi_restore 30
	blr
.LVL112:
.L82:
.LCFI22:
	.cfi_restore_state
.LBB389:
	.loc 2 97 0
	lwz 30,4(31)
	cmpwi 7,30,0
	beq- 7,.L78
	.loc 2 98 0
	mr 3,30
.LVL113:
	bl _ZN5CFileD1Ev
	mr 3,30
	bl _ZdlPv
.L78:
	.loc 2 99 0
	li 0,0
.LBE389:
	.loc 2 107 0
	lwz 30,4104(1)
.LBB390:
	.loc 2 99 0
	stw 0,4(31)
.LBE390:
	.loc 2 107 0
	lwz 0,4116(1)
	lwz 31,4108(1)
.LVL114:
	mtlr 0
	addi 1,1,4112
	.cfi_restore 30
	.cfi_restore 31
.LCFI23:
	.cfi_def_cfa_offset 0
	blr
	.cfi_endproc
.LFE1450:
	.size	_ZN10Mp3Decoder8OpenFileEv.part.3, .-_ZN10Mp3Decoder8OpenFileEv.part.3
	.section	.text._ZN12SoundDecoder13GetBufferSizeEv,"axG",@progbits,_ZN12SoundDecoder13GetBufferSizeEv,comdat
	.align 2
	.weak	_ZN12SoundDecoder13GetBufferSizeEv
	.type	_ZN12SoundDecoder13GetBufferSizeEv, @function
_ZN12SoundDecoder13GetBufferSizeEv:
.LFB1400:
	.loc 1 60 0
	.cfi_startproc
.LVL115:
.LBB411:
.LBB412:
.LBB413:
.LBB414:
.LBB415:
.LBB416:
.LBB417:
	.loc 3 571 0
	lwz 10,20(3)
.LBE417:
.LBE416:
.LBE415:
.LBE414:
.LBE413:
.LBE412:
.LBE411:
	.loc 1 60 0
	mr 9,3
.LVL116:
.LBB429:
.LBB428:
.LBB426:
.LBB424:
.LBB422:
.LBB420:
.LBB418:
	.loc 3 571 0
	lwz 11,16(3)
.LBE418:
.LBE420:
.LBE422:
.LBE424:
.LBE426:
	.loc 4 62 0
	lhz 0,8(3)
.LVL117:
.LBB427:
.LBB425:
	li 3,0
.LVL118:
.LBB423:
.LBB421:
.LBB419:
	.loc 3 571 0
	subf 11,11,10
	srawi 11,11,2
.LBE419:
.LBE421:
.LBE423:
	.loc 4 83 0
	cmpw 7,0,11
	bgelr- 7
.LVL119:
.LBE425:
.LBE427:
.LBE428:
.LBE429:
.LBB430:
.LBB431:
.LBB432:
	.loc 4 62 0
	lwz 9,28(9)
.LVL120:
	slwi 0,0,2
.LVL121:
	lwzx 3,9,0
.LBE432:
.LBE431:
.LBE430:
	.loc 1 60 0
	blr
	.cfi_endproc
.LFE1400:
	.size	_ZN12SoundDecoder13GetBufferSizeEv, .-_ZN12SoundDecoder13GetBufferSizeEv
	.section	.text._ZN12SoundDecoder13IsBufferReadyEv,"axG",@progbits,_ZN12SoundDecoder13IsBufferReadyEv,comdat
	.align 2
	.weak	_ZN12SoundDecoder13IsBufferReadyEv
	.type	_ZN12SoundDecoder13IsBufferReadyEv, @function
_ZN12SoundDecoder13IsBufferReadyEv:
.LFB1405:
	.loc 1 65 0
	.cfi_startproc
.LVL122:
.LBB457:
.LBB458:
.LBB459:
.LBB460:
.LBB461:
.LBB462:
.LBB463:
	.loc 3 571 0
	lwz 10,20(3)
.LBE463:
.LBE462:
.LBE461:
.LBE460:
.LBE459:
.LBE458:
.LBE457:
	.loc 1 65 0
	mr 9,3
.LVL123:
.LBB475:
.LBB474:
.LBB472:
.LBB470:
.LBB468:
.LBB466:
.LBB464:
	.loc 3 571 0
	lwz 11,16(3)
.LBE464:
.LBE466:
.LBE468:
.LBE470:
.LBE472:
	.loc 4 68 0
	lhz 0,8(3)
.LVL124:
.LBB473:
.LBB471:
	li 3,0
.LVL125:
.LBB469:
.LBB467:
.LBB465:
	.loc 3 571 0
	subf 11,11,10
	srawi 11,11,2
.LBE465:
.LBE467:
.LBE469:
	.loc 4 83 0
	cmpw 7,0,11
	bgelr- 7
.LVL126:
.LBE471:
.LBE473:
.LBE474:
.LBE475:
.LBB476:
.LBB477:
.LBB478:
.LBB479:
.LBB480:
	.loc 5 80 0
	lwz 11,40(9)
	rlwinm 9,0,29,19,29
.LVL127:
.LBE480:
.LBE479:
.LBB483:
.LBB484:
	.loc 5 692 0
	rlwinm 0,0,0,27,31
.LVL128:
.LBE484:
.LBE483:
.LBB488:
.LBB481:
	.loc 5 80 0
	lwzx 9,11,9
.LBE481:
.LBE488:
.LBB489:
.LBB487:
.LBB485:
.LBB486:
	.loc 5 200 0
	li 11,1
	slw 0,11,0
.LVL129:
.LBE486:
.LBE485:
.LBE487:
.LBE489:
.LBB490:
.LBB482:
	.loc 5 80 0
	and. 11,0,9
	mfcr 3
	rlwinm 3,3,3,1
	xori 3,3,1
.LBE482:
.LBE490:
.LBE478:
.LBE477:
.LBE476:
	.loc 1 65 0
	blr
	.cfi_endproc
.LFE1405:
	.size	_ZN12SoundDecoder13IsBufferReadyEv, .-_ZN12SoundDecoder13IsBufferReadyEv
	.section	".text"
	.align 2
	.globl _ZN10Mp3DecoderD0Ev
	.type	_ZN10Mp3DecoderD0Ev, @function
_ZN10Mp3DecoderD0Ev:
.LFB1425:
	.loc 2 66 0
	.cfi_startproc
	.cfi_personality 0,__gxx_personality_v0
	.cfi_lsda 0,.LLSDA1425
.LVL130:
	mflr 0
	stwu 1,-16(1)
.LCFI24:
	.cfi_def_cfa_offset 16
	.cfi_register 65, 0
.LBB494:
.LBB495:
.LBB496:
	lis 9,_ZTV10Mp3Decoder+8@ha
.LBE496:
.LBE495:
.LBE494:
	stw 31,12(1)
	mr 31,3
	.cfi_offset 31, -4
.LVL131:
	stw 0,20(1)
.LBB503:
.LBB500:
.LBB497:
	la 0,_ZTV10Mp3Decoder+8@l(9)
	.cfi_offset 65, 4
.LBE497:
.LBE500:
.LBE503:
	stw 30,8(1)
.LBB504:
.LBB501:
.LBB498:
	.loc 2 66 0
	stw 0,0(3)
	.loc 2 68 0
	li 0,1
	stb 0,75(3)
	b .L90
	.cfi_offset 30, -8
.LVL132:
.L91:
	.loc 2 70 0
	li 3,100
.LEHB3:
	bl usleep
.L90:
	.loc 2 69 0
	lbz 0,74(31)
	cmpwi 7,0,0
	bne+ 7,.L91
	.loc 2 73 0
	addi 3,31,140
	bl mad_frame_finish
	.loc 2 74 0
	addi 3,31,76
	bl mad_stream_finish
.LEHE3:
	.loc 2 76 0
	lwz 3,22744(31)
	cmpwi 7,3,0
	beq- 7,.L92
	.loc 2 77 0
	bl free
.L92:
	.loc 2 78 0
	li 0,0
	.loc 2 66 0
	mr 3,31
	.loc 2 78 0
	stw 0,22744(31)
.LEHB4:
	.loc 2 66 0
	bl _ZN12SoundDecoderD2Ev
.LEHE4:
.LBE498:
.LBE501:
.LBE504:
	.loc 2 79 0
	mr 3,31
	bl _ZdlPv
	lwz 0,20(1)
	lwz 30,8(1)
	mtlr 0
	lwz 31,12(1)
.LVL133:
	addi 1,1,16
	.cfi_remember_state
.LCFI25:
	.cfi_def_cfa_offset 0
	.cfi_restore 31
	.cfi_restore 30
	blr
.LVL134:
.L96:
.LCFI26:
	.cfi_restore_state
	mr 30,3
.LBB505:
.LBB502:
.LBB499:
	.loc 2 66 0
	mr 3,31
	bl _ZN12SoundDecoderD2Ev
	mr 3,30
.LEHB5:
	bl _Unwind_Resume
.LEHE5:
.LBE499:
.LBE502:
.LBE505:
	.cfi_endproc
.LFE1425:
	.section	.gcc_except_table
.LLSDA1425:
	.byte	0xff
	.byte	0xff
	.byte	0x1
	.uleb128 .LLSDACSE1425-.LLSDACSB1425
.LLSDACSB1425:
	.uleb128 .LEHB3-.LFB1425
	.uleb128 .LEHE3-.LEHB3
	.uleb128 .L96-.LFB1425
	.uleb128 0
	.uleb128 .LEHB4-.LFB1425
	.uleb128 .LEHE4-.LEHB4
	.uleb128 0
	.uleb128 0
	.uleb128 .LEHB5-.LFB1425
	.uleb128 .LEHE5-.LEHB5
	.uleb128 0
	.uleb128 0
.LLSDACSE1425:
	.section	".text"
	.size	_ZN10Mp3DecoderD0Ev, .-_ZN10Mp3DecoderD0Ev
	.align 2
	.globl _ZN10Mp3DecoderC2EPKc
	.type	_ZN10Mp3DecoderC2EPKc, @function
_ZN10Mp3DecoderC2EPKc:
.LFB1417:
	.loc 2 34 0
	.cfi_startproc
	.cfi_personality 0,__gxx_personality_v0
	.cfi_lsda 0,.LLSDA1417
.LVL135:
	mflr 0
	stwu 1,-16(1)
.LCFI27:
	.cfi_def_cfa_offset 16
	.cfi_register 65, 0
	stw 31,12(1)
	mr 31,3
	.cfi_offset 31, -4
	stw 0,20(1)
	stw 30,8(1)
.LEHB6:
.LBB510:
	.loc 2 35 0
	.cfi_offset 30, -8
	.cfi_offset 65, 4
	bl _ZN12SoundDecoderC2EPKc
.LEHE6:
.LVL136:
	.loc 2 39 0
	lis 9,mad_timer_zero@ha
	.loc 2 40 0
	addi 3,31,76
	.loc 2 39 0
	la 9,mad_timer_zero@l(9)
	lwz 10,0(9)
	lwz 11,4(9)
	.loc 2 35 0
	lis 9,_ZTV10Mp3Decoder+8@ha
	la 0,_ZTV10Mp3Decoder+8@l(9)
	.loc 2 39 0
	stw 10,22732(31)
	.loc 2 35 0
	stw 0,0(31)
	.loc 2 37 0
	li 0,1
	stb 0,60(31)
	.loc 2 38 0
	li 0,0
	stw 0,22744(31)
	.loc 2 39 0
	stw 11,22736(31)
.LEHB7:
	.loc 2 40 0
	bl mad_stream_init
	.loc 2 41 0
	addi 3,31,140
	bl mad_frame_init
	.loc 2 42 0
	addi 3,31,9408
	bl mad_synth_init
	.loc 2 44 0
	lwz 0,4(31)
	cmpwi 7,0,0
	beq- 7,.L97
.LVL137:
.LBB511:
.LBB512:
.LBB513:
	.loc 2 84 0
	lwz 0,64(31)
	li 3,32
	lhz 4,62(31)
	mullw 4,4,0
	.loc 2 83 0
	li 0,0
	stw 0,22740(31)
	.loc 2 84 0
	bl memalign
	.loc 2 85 0
	cmpwi 7,3,0
	.loc 2 84 0
	stw 3,22744(31)
	.loc 2 85 0
	beq- 7,.L103
	.loc 2 89 0
	mr 3,31
	bl _ZN10Mp3Decoder8OpenFileEv.part.3
.LVL138:
.L97:
.LBE513:
.LBE512:
.LBE511:
.LBE510:
	.loc 2 48 0
	lwz 0,20(1)
	lwz 30,8(1)
	mtlr 0
	lwz 31,12(1)
.LVL139:
	addi 1,1,16
	.cfi_remember_state
.LCFI28:
	.cfi_def_cfa_offset 0
	.cfi_restore 31
	.cfi_restore 30
	blr
.LVL140:
.L103:
.LCFI29:
	.cfi_restore_state
.LBB520:
.LBB518:
.LBB516:
.LBB514:
	.loc 2 87 0
	lwz 30,4(31)
	cmpwi 7,30,0
	beq- 7,.L100
	.loc 2 88 0
	mr 3,30
	bl _ZN5CFileD1Ev
.LEHE7:
	mr 3,30
	bl _ZdlPv
.L100:
	.loc 2 89 0
	li 0,0
.LBE514:
.LBE516:
.LBE518:
.LBE520:
	.loc 2 48 0
	lwz 30,8(1)
.LBB521:
.LBB519:
.LBB517:
.LBB515:
	.loc 2 89 0
	stw 0,4(31)
.LBE515:
.LBE517:
.LBE519:
.LBE521:
	.loc 2 48 0
	lwz 0,20(1)
	lwz 31,12(1)
.LVL141:
	mtlr 0
	addi 1,1,16
	.cfi_remember_state
	.cfi_restore 30
	.cfi_restore 31
.LCFI30:
	.cfi_def_cfa_offset 0
	blr
.LVL142:
.L102:
.LCFI31:
	.cfi_restore_state
	mr 30,3
.LBB522:
	.loc 2 35 0
	mr 3,31
	bl _ZN12SoundDecoderD2Ev
	mr 3,30
.LEHB8:
	bl _Unwind_Resume
.LEHE8:
.LBE522:
	.cfi_endproc
.LFE1417:
	.section	.gcc_except_table
.LLSDA1417:
	.byte	0xff
	.byte	0xff
	.byte	0x1
	.uleb128 .LLSDACSE1417-.LLSDACSB1417
.LLSDACSB1417:
	.uleb128 .LEHB6-.LFB1417
	.uleb128 .LEHE6-.LEHB6
	.uleb128 0
	.uleb128 0
	.uleb128 .LEHB7-.LFB1417
	.uleb128 .LEHE7-.LEHB7
	.uleb128 .L102-.LFB1417
	.uleb128 0
	.uleb128 .LEHB8-.LFB1417
	.uleb128 .LEHE8-.LEHB8
	.uleb128 0
	.uleb128 0
.LLSDACSE1417:
	.section	".text"
	.size	_ZN10Mp3DecoderC2EPKc, .-_ZN10Mp3DecoderC2EPKc
	.align 2
	.globl _ZN10Mp3DecoderC2EPKhi
	.type	_ZN10Mp3DecoderC2EPKhi, @function
_ZN10Mp3DecoderC2EPKhi:
.LFB1420:
	.loc 2 50 0
	.cfi_startproc
	.cfi_personality 0,__gxx_personality_v0
	.cfi_lsda 0,.LLSDA1420
.LVL143:
	mflr 0
	stwu 1,-16(1)
.LCFI32:
	.cfi_def_cfa_offset 16
	.cfi_register 65, 0
	stw 31,12(1)
	mr 31,3
	.cfi_offset 31, -4
	stw 0,20(1)
	stw 30,8(1)
.LEHB9:
.LBB527:
	.loc 2 51 0
	.cfi_offset 30, -8
	.cfi_offset 65, 4
	bl _ZN12SoundDecoderC2EPKhi
.LEHE9:
.LVL144:
	.loc 2 55 0
	lis 9,mad_timer_zero@ha
	.loc 2 56 0
	addi 3,31,76
	.loc 2 55 0
	la 9,mad_timer_zero@l(9)
	lwz 10,0(9)
	lwz 11,4(9)
	.loc 2 51 0
	lis 9,_ZTV10Mp3Decoder+8@ha
	la 0,_ZTV10Mp3Decoder+8@l(9)
	.loc 2 55 0
	stw 10,22732(31)
	.loc 2 51 0
	stw 0,0(31)
	.loc 2 53 0
	li 0,1
	stb 0,60(31)
	.loc 2 54 0
	li 0,0
	stw 0,22744(31)
	.loc 2 55 0
	stw 11,22736(31)
.LEHB10:
	.loc 2 56 0
	bl mad_stream_init
	.loc 2 57 0
	addi 3,31,140
	bl mad_frame_init
	.loc 2 58 0
	addi 3,31,9408
	bl mad_synth_init
	.loc 2 60 0
	lwz 0,4(31)
	cmpwi 7,0,0
	beq- 7,.L104
.LVL145:
.LBB528:
.LBB529:
.LBB530:
	.loc 2 84 0
	lwz 0,64(31)
	li 3,32
	lhz 4,62(31)
	mullw 4,4,0
	.loc 2 83 0
	li 0,0
	stw 0,22740(31)
	.loc 2 84 0
	bl memalign
	.loc 2 85 0
	cmpwi 7,3,0
	.loc 2 84 0
	stw 3,22744(31)
	.loc 2 85 0
	beq- 7,.L110
	.loc 2 89 0
	mr 3,31
	bl _ZN10Mp3Decoder8OpenFileEv.part.3
.LVL146:
.L104:
.LBE530:
.LBE529:
.LBE528:
.LBE527:
	.loc 2 64 0
	lwz 0,20(1)
	lwz 30,8(1)
	mtlr 0
	lwz 31,12(1)
.LVL147:
	addi 1,1,16
	.cfi_remember_state
.LCFI33:
	.cfi_def_cfa_offset 0
	.cfi_restore 31
	.cfi_restore 30
	blr
.LVL148:
.L110:
.LCFI34:
	.cfi_restore_state
.LBB537:
.LBB535:
.LBB533:
.LBB531:
	.loc 2 87 0
	lwz 30,4(31)
	cmpwi 7,30,0
	beq- 7,.L107
	.loc 2 88 0
	mr 3,30
	bl _ZN5CFileD1Ev
.LEHE10:
	mr 3,30
	bl _ZdlPv
.L107:
	.loc 2 89 0
	li 0,0
.LBE531:
.LBE533:
.LBE535:
.LBE537:
	.loc 2 64 0
	lwz 30,8(1)
.LBB538:
.LBB536:
.LBB534:
.LBB532:
	.loc 2 89 0
	stw 0,4(31)
.LBE532:
.LBE534:
.LBE536:
.LBE538:
	.loc 2 64 0
	lwz 0,20(1)
	lwz 31,12(1)
.LVL149:
	mtlr 0
	addi 1,1,16
	.cfi_remember_state
	.cfi_restore 30
	.cfi_restore 31
.LCFI35:
	.cfi_def_cfa_offset 0
	blr
.LVL150:
.L109:
.LCFI36:
	.cfi_restore_state
	mr 30,3
.LBB539:
	.loc 2 51 0
	mr 3,31
	bl _ZN12SoundDecoderD2Ev
	mr 3,30
.LEHB11:
	bl _Unwind_Resume
.LEHE11:
.LBE539:
	.cfi_endproc
.LFE1420:
	.section	.gcc_except_table
.LLSDA1420:
	.byte	0xff
	.byte	0xff
	.byte	0x1
	.uleb128 .LLSDACSE1420-.LLSDACSB1420
.LLSDACSB1420:
	.uleb128 .LEHB9-.LFB1420
	.uleb128 .LEHE9-.LEHB9
	.uleb128 0
	.uleb128 0
	.uleb128 .LEHB10-.LFB1420
	.uleb128 .LEHE10-.LEHB10
	.uleb128 .L109-.LFB1420
	.uleb128 0
	.uleb128 .LEHB11-.LFB1420
	.uleb128 .LEHE11-.LEHB11
	.uleb128 0
	.uleb128 0
.LLSDACSE1420:
	.section	".text"
	.size	_ZN10Mp3DecoderC2EPKhi, .-_ZN10Mp3DecoderC2EPKhi
	.align 2
	.globl _ZN10Mp3Decoder8OpenFileEv
	.type	_ZN10Mp3Decoder8OpenFileEv, @function
_ZN10Mp3Decoder8OpenFileEv:
.LFB1426:
	.loc 2 82 0
	.cfi_startproc
.LVL151:
	mflr 0
	stwu 1,-16(1)
.LCFI37:
	.cfi_def_cfa_offset 16
	.cfi_register 65, 0
	stw 31,12(1)
	mr 31,3
	.cfi_offset 31, -4
	stw 0,20(1)
	stw 30,8(1)
.LBB540:
	.loc 2 84 0
	lwz 0,64(3)
	.cfi_offset 30, -8
	.cfi_offset 65, 4
	lhz 4,62(3)
	mullw 4,4,0
	.loc 2 83 0
	li 0,0
	stw 0,22740(3)
	.loc 2 84 0
	li 3,32
.LVL152:
	bl memalign
	.loc 2 85 0
	cmpwi 7,3,0
	.loc 2 84 0
	stw 3,22744(31)
	.loc 2 85 0
	beq- 7,.L115
.LBE540:
	.loc 2 107 0
	lwz 0,20(1)
.LBB541:
	.loc 2 90 0
	mr 3,31
.LBE541:
	.loc 2 107 0
	lwz 30,8(1)
	lwz 31,12(1)
.LVL153:
	mtlr 0
	addi 1,1,16
	.cfi_remember_state
.LCFI38:
	.cfi_def_cfa_offset 0
	.cfi_restore 31
	.cfi_restore 30
.LBB542:
	.loc 2 90 0
	b _ZN10Mp3Decoder8OpenFileEv.part.3
.LVL154:
.L115:
.LCFI39:
	.cfi_restore_state
	.loc 2 87 0
	lwz 30,4(31)
	cmpwi 7,30,0
	beq- 7,.L113
	.loc 2 88 0
	mr 3,30
	bl _ZN5CFileD1Ev
	mr 3,30
	bl _ZdlPv
.L113:
	.loc 2 89 0
	li 0,0
.LBE542:
	.loc 2 107 0
	lwz 30,8(1)
.LBB543:
	.loc 2 89 0
	stw 0,4(31)
.LBE543:
	.loc 2 107 0
	lwz 0,20(1)
	lwz 31,12(1)
.LVL155:
	mtlr 0
	addi 1,1,16
.LCFI40:
	.cfi_def_cfa_offset 0
	.cfi_restore 31
	.cfi_restore 30
	blr
	.cfi_endproc
.LFE1426:
	.size	_ZN10Mp3Decoder8OpenFileEv, .-_ZN10Mp3Decoder8OpenFileEv
	.weak	_ZTS10Mp3Decoder
	.section	.rodata._ZTS10Mp3Decoder,"aG",@progbits,_ZTS10Mp3Decoder,comdat
	.align 2
	.type	_ZTS10Mp3Decoder, @object
	.size	_ZTS10Mp3Decoder, 13
_ZTS10Mp3Decoder:
	.string	"10Mp3Decoder"
	.weak	_ZTI10Mp3Decoder
	.section	.rodata._ZTI10Mp3Decoder,"aG",@progbits,_ZTI10Mp3Decoder,comdat
	.align 2
	.type	_ZTI10Mp3Decoder, @object
	.size	_ZTI10Mp3Decoder, 12
_ZTI10Mp3Decoder:
	.long	_ZTVN10__cxxabiv120__si_class_type_infoE+8
	.long	_ZTS10Mp3Decoder
	.long	_ZTI12SoundDecoder
	.weak	_ZTV10Mp3Decoder
	.section	.rodata._ZTV10Mp3Decoder,"aG",@progbits,_ZTV10Mp3Decoder,comdat
	.align 3
	.type	_ZTV10Mp3Decoder, @object
	.size	_ZTV10Mp3Decoder, 100
_ZTV10Mp3Decoder:
	.long	0
	.long	_ZTI10Mp3Decoder
	.long	_ZN10Mp3DecoderD1Ev
	.long	_ZN10Mp3DecoderD0Ev
	.long	_ZN10Mp3Decoder4ReadEPhii
	.long	_ZN12SoundDecoder4TellEv
	.long	_ZN12SoundDecoder4SeekEi
	.long	_ZN10Mp3Decoder6RewindEv
	.long	_ZN10Mp3Decoder9GetFormatEv
	.long	_ZN10Mp3Decoder13GetSampleRateEv
	.long	_ZN12SoundDecoder6DecodeEv
	.long	_ZN12SoundDecoder13GetBufferSizeEv
	.long	_ZN12SoundDecoder9GetBufferEv
	.long	_ZN12SoundDecoder13GetNextBufferEv
	.long	_ZN12SoundDecoder13GetLastBufferEv
	.long	_ZN12SoundDecoder8LoadNextEv
	.long	_ZN12SoundDecoder13IsBufferReadyEv
	.long	_ZN12SoundDecoder17IsNextBufferReadyEv
	.long	_ZN12SoundDecoder17IsLastBufferReadyEv
	.long	_ZN12SoundDecoder5IsEOFEv
	.long	_ZN12SoundDecoder7SetLoopEb
	.long	_ZN12SoundDecoder12GetSoundTypeEv
	.long	_ZN12SoundDecoder11ClearBufferEv
	.long	_ZN12SoundDecoder8IsStereoEv
	.long	_ZN12SoundDecoder7Is16BitEv
	.globl _ZN10Mp3DecoderD1Ev
	.set	_ZN10Mp3DecoderD1Ev,_ZN10Mp3DecoderD2Ev
	.globl _ZN10Mp3DecoderC1EPKc
	.set	_ZN10Mp3DecoderC1EPKc,_ZN10Mp3DecoderC2EPKc
	.globl _ZN10Mp3DecoderC1EPKhi
	.set	_ZN10Mp3DecoderC1EPKhi,_ZN10Mp3DecoderC2EPKhi
	.section	".text"
.Letext0:
	.file 7 "d:\\devkitpro\\devkitppc\\bin\\../lib/gcc/powerpc-eabi/4.6.3/../../../../powerpc-eabi/include/c++/4.6.3/cwchar"
	.file 8 "d:\\devkitpro\\devkitppc\\bin\\../lib/gcc/powerpc-eabi/4.6.3/../../../../powerpc-eabi/include/c++/4.6.3/powerpc-eabi/bits/c++config.h"
	.file 9 "d:\\devkitpro\\devkitppc\\bin\\../lib/gcc/powerpc-eabi/4.6.3/../../../../powerpc-eabi/include/c++/4.6.3/clocale"
	.file 10 "d:\\devkitpro\\devkitppc\\bin\\../lib/gcc/powerpc-eabi/4.6.3/../../../../powerpc-eabi/include/c++/4.6.3/debug/debug.h"
	.file 11 "d:\\devkitpro\\devkitppc\\bin\\../lib/gcc/powerpc-eabi/4.6.3/../../../../powerpc-eabi/include/c++/4.6.3/bits/stl_list.h"
	.file 12 "d:\\devkitpro\\devkitppc\\bin\\../lib/gcc/powerpc-eabi/4.6.3/../../../../powerpc-eabi/include/c++/4.6.3/bits/cpp_type_traits.h"
	.file 13 "d:\\devkitpro\\devkitppc\\bin\\../lib/gcc/powerpc-eabi/4.6.3/../../../../powerpc-eabi/include/c++/4.6.3/ext/new_allocator.h"
	.file 14 "d:\\devkitpro\\devkitppc\\bin\\../lib/gcc/powerpc-eabi/4.6.3/../../../../powerpc-eabi/include/c++/4.6.3/bits/stl_iterator_base_types.h"
	.file 15 "d:\\devkitpro\\devkitppc\\bin\\../lib/gcc/powerpc-eabi/4.6.3/../../../../powerpc-eabi/include/machine/_types.h"
	.file 16 "d:\\devkitpro\\devkitppc\\bin\\../lib/gcc/powerpc-eabi/4.6.3/../../../../powerpc-eabi/include/sys/lock.h"
	.file 17 "d:\\devkitpro\\devkitppc\\bin\\../lib/gcc/powerpc-eabi/4.6.3/include/stddef.h"
	.file 18 "d:\\devkitpro\\devkitppc\\bin\\../lib/gcc/powerpc-eabi/4.6.3/../../../../powerpc-eabi/include/sys/_types.h"
	.file 19 "d:\\devkitpro\\devkitppc\\bin\\../lib/gcc/powerpc-eabi/4.6.3/../../../../powerpc-eabi/include/sys/reent.h"
	.file 20 "<built-in>"
	.file 21 "d:\\devkitpro\\devkitppc\\bin\\../lib/gcc/powerpc-eabi/4.6.3/../../../../powerpc-eabi/include/wchar.h"
	.file 22 "d:\\devkitpro\\devkitppc\\bin\\../lib/gcc/powerpc-eabi/4.6.3/../../../../powerpc-eabi/include/time.h"
	.file 23 "d:\\devkitpro\\devkitppc\\bin\\../lib/gcc/powerpc-eabi/4.6.3/../../../../powerpc-eabi/include/locale.h"
	.file 24 "d:\\devkitpro\\devkitppc\\bin\\../lib/gcc/powerpc-eabi/4.6.3/../../../../powerpc-eabi/include/c++/4.6.3/ext/numeric_traits.h"
	.file 25 "d:\\devkitpro\\devkitppc\\bin\\../lib/gcc/powerpc-eabi/4.6.3/../../../../powerpc-eabi/include/stdint.h"
	.file 26 "d:/devkitPro/libogc/include/gctypes.h"
	.file 27 "d:/devkitPro/libogc/include/mad.h"
	.file 28 "d:\\devkitpro\\devkitppc\\bin\\../lib/gcc/powerpc-eabi/4.6.3/../../../../powerpc-eabi/include/c++/4.6.3/bits/stl_iterator.h"
	.file 29 "d:\\devkitpro\\devkitppc\\bin\\../lib/gcc/powerpc-eabi/4.6.3/../../../../powerpc-eabi/include/c++/4.6.3/bits/allocator.h"
	.file 30 "d:\\devkitpro\\devkitppc\\bin\\../lib/gcc/powerpc-eabi/4.6.3/../../../../powerpc-eabi/include/c++/4.6.3/bits/vector.tcc"
	.file 31 "d:/devkitPro/libogc/include/ogc/gx.h"
	.file 32 "d:/Projects/SaveGameManager/savegame-manager-gx/trunk/source/SoundOperations/../sigslot.h"