	.file	"MusicPlayer.cpp"
	.section	".text"
.Ltext0:
	.section	.text._ZN7sigslot15single_threadedD2Ev,"axG",@progbits,_ZN7sigslot15single_threadedD5Ev,comdat
	.align 2
	.weak	_ZN7sigslot15single_threadedD2Ev
	.type	_ZN7sigslot15single_threadedD2Ev, @function
_ZN7sigslot15single_threadedD2Ev:
.LFB1148:
	.file 1 "d:/Projects/SaveGameManager/savegame-manager-gx/trunk/source/SoundOperations/../Controls/../GUI/../sigslot.h"
	.loc 1 104 0
	.cfi_startproc
.LVL0:
.LBB2503:
	.loc 1 105 0
	lis 9,_ZTVN7sigslot15single_threadedE+8@ha
.LBE2503:
	.loc 1 107 0
.LBB2504:
	.loc 1 105 0
	la 0,_ZTVN7sigslot15single_threadedE+8@l(9)
	stw 0,0(3)
.LBE2504:
	.loc 1 107 0
	blr
	.cfi_endproc
.LFE1148:
	.size	_ZN7sigslot15single_threadedD2Ev, .-_ZN7sigslot15single_threadedD2Ev
	.section	.text._ZN7sigslot15single_threaded4lockEv,"axG",@progbits,_ZN7sigslot15single_threaded4lockEv,comdat
	.align 2
	.weak	_ZN7sigslot15single_threaded4lockEv
	.type	_ZN7sigslot15single_threaded4lockEv, @function
_ZN7sigslot15single_threaded4lockEv:
.LFB1151:
	.loc 1 109 0
	.cfi_startproc
.LVL1:
	.loc 1 112 0
	blr
	.cfi_endproc
.LFE1151:
	.size	_ZN7sigslot15single_threaded4lockEv, .-_ZN7sigslot15single_threaded4lockEv
	.section	.text._ZN7sigslot15single_threaded6unlockEv,"axG",@progbits,_ZN7sigslot15single_threaded6unlockEv,comdat
	.align 2
	.weak	_ZN7sigslot15single_threaded6unlockEv
	.type	_ZN7sigslot15single_threaded6unlockEv, @function
_ZN7sigslot15single_threaded6unlockEv:
.LFB1152:
	.loc 1 114 0
	.cfi_startproc
.LVL2:
	.loc 1 117 0
	blr
	.cfi_endproc
.LFE1152:
	.size	_ZN7sigslot15single_threaded6unlockEv, .-_ZN7sigslot15single_threaded6unlockEv
	.section	.text._ZN10GuiElement9SetParentEPS_,"axG",@progbits,_ZN10GuiElement9SetParentEPS_,comdat
	.align 2
	.weak	_ZN10GuiElement9SetParentEPS_
	.type	_ZN10GuiElement9SetParentEPS_, @function
_ZN10GuiElement9SetParentEPS_:
.LFB1384:
	.file 2 "d:/Projects/SaveGameManager/savegame-manager-gx/trunk/source/SoundOperations/../Controls/../GUI/gui_element.h"
	.loc 2 92 0
	.cfi_startproc
.LVL3:
	.loc 2 92 0
	stw 4,96(3)
	blr
	.cfi_endproc
.LFE1384:
	.size	_ZN10GuiElement9SetParentEPS_, .-_ZN10GuiElement9SetParentEPS_
	.section	.text._ZN10GuiElement9GetParentEv,"axG",@progbits,_ZN10GuiElement9GetParentEv,comdat
	.align 2
	.weak	_ZN10GuiElement9GetParentEv
	.type	_ZN10GuiElement9GetParentEv, @function
_ZN10GuiElement9GetParentEv:
.LFB1385:
	.loc 2 95 0
	.cfi_startproc
.LVL4:
	.loc 2 95 0
	lwz 3,96(3)
.LVL5:
	blr
	.cfi_endproc
.LFE1385:
	.size	_ZN10GuiElement9GetParentEv, .-_ZN10GuiElement9GetParentEv
	.section	.text._ZN10GuiElement12GetZPositionEv,"axG",@progbits,_ZN10GuiElement12GetZPositionEv,comdat
	.align 2
	.weak	_ZN10GuiElement12GetZPositionEv
	.type	_ZN10GuiElement12GetZPositionEv, @function
_ZN10GuiElement12GetZPositionEv:
.LFB1386:
	.loc 2 106 0
	.cfi_startproc
.LVL6:
	mflr 0
	stwu 1,-16(1)
.LCFI0:
	.cfi_def_cfa_offset 16
	.cfi_register 65, 0
	stw 31,12(1)
	mr 31,3
	.cfi_offset 31, -4
	stw 0,20(1)
.LBB2505:
	.loc 2 110 0
	lwz 11,96(3)
	.loc 2 108 0
	li 3,0
.LVL7:
	.loc 2 110 0
	cmpwi 7,11,0
	beq- 7,.L8
	.cfi_offset 65, 4
	.loc 2 111 0
	lwz 9,0(11)
	mr 3,11
	lwz 0,24(9)
	mtctr 0
	bctrl
.LVL8:
.L8:
	.loc 2 113 0
	lwz 0,52(31)
.LBE2505:
	.loc 2 114 0
	lwz 31,12(1)
.LVL9:
	add 3,3,0
.LVL10:
	lwz 0,20(1)
	addi 1,1,16
.LCFI1:
	.cfi_def_cfa_offset 0
	.cfi_restore 31
	mtlr 0
	blr
	.cfi_endproc
.LFE1386:
	.size	_ZN10GuiElement12GetZPositionEv, .-_ZN10GuiElement12GetZPositionEv
	.section	.text._ZN10GuiElement10GetLeftPosEv,"axG",@progbits,_ZN10GuiElement10GetLeftPosEv,comdat
	.align 2
	.weak	_ZN10GuiElement10GetLeftPosEv
	.type	_ZN10GuiElement10GetLeftPosEv, @function
_ZN10GuiElement10GetLeftPosEv:
.LFB1387:
	.loc 2 116 0
	.cfi_startproc
.LVL11:
	.loc 2 116 0
	lwz 3,44(3)
.LVL12:
	blr
	.cfi_endproc
.LFE1387:
	.size	_ZN10GuiElement10GetLeftPosEv, .-_ZN10GuiElement10GetLeftPosEv
	.section	.text._ZN10GuiElement9GetTopPosEv,"axG",@progbits,_ZN10GuiElement9GetTopPosEv,comdat
	.align 2
	.weak	_ZN10GuiElement9GetTopPosEv
	.type	_ZN10GuiElement9GetTopPosEv, @function
_ZN10GuiElement9GetTopPosEv:
.LFB1388:
	.loc 2 118 0
	.cfi_startproc
.LVL13:
	.loc 2 118 0
	lwz 3,48(3)
.LVL14:
	blr
	.cfi_endproc
.LFE1388:
	.size	_ZN10GuiElement9GetTopPosEv, .-_ZN10GuiElement9GetTopPosEv
	.section	.text._ZN10GuiElement8GetWidthEv,"axG",@progbits,_ZN10GuiElement8GetWidthEv,comdat
	.align 2
	.weak	_ZN10GuiElement8GetWidthEv
	.type	_ZN10GuiElement8GetWidthEv, @function
_ZN10GuiElement8GetWidthEv:
.LFB1389:
	.loc 2 121 0
	.cfi_startproc
.LVL15:
	.loc 2 121 0
	lwz 3,36(3)
.LVL16:
	blr
	.cfi_endproc
.LFE1389:
	.size	_ZN10GuiElement8GetWidthEv, .-_ZN10GuiElement8GetWidthEv
	.section	.text._ZN10GuiElement9GetHeightEv,"axG",@progbits,_ZN10GuiElement9GetHeightEv,comdat
	.align 2
	.weak	_ZN10GuiElement9GetHeightEv
	.type	_ZN10GuiElement9GetHeightEv, @function
_ZN10GuiElement9GetHeightEv:
.LFB1390:
	.loc 2 124 0
	.cfi_startproc
.LVL17:
	.loc 2 124 0
	lwz 3,40(3)
.LVL18:
	blr
	.cfi_endproc
.LFE1390:
	.size	_ZN10GuiElement9GetHeightEv, .-_ZN10GuiElement9GetHeightEv
	.section	.text._ZN10GuiElement7SetSizeEii,"axG",@progbits,_ZN10GuiElement7SetSizeEii,comdat
	.align 2
	.weak	_ZN10GuiElement7SetSizeEii
	.type	_ZN10GuiElement7SetSizeEii, @function
_ZN10GuiElement7SetSizeEii:
.LFB1391:
	.loc 2 128 0
	.cfi_startproc
.LVL19:
	.loc 2 130 0
	stw 4,36(3)
	.loc 2 132 0
	.loc 2 131 0
	stw 5,40(3)
	.loc 2 132 0
	blr
	.cfi_endproc
.LFE1391:
	.size	_ZN10GuiElement7SetSizeEii, .-_ZN10GuiElement7SetSizeEii
	.section	.text._ZN10GuiElement9IsVisibleEv,"axG",@progbits,_ZN10GuiElement9IsVisibleEv,comdat
	.align 2
	.weak	_ZN10GuiElement9IsVisibleEv
	.type	_ZN10GuiElement9IsVisibleEv, @function
_ZN10GuiElement9IsVisibleEv:
.LFB1393:
	.loc 2 142 0
	.cfi_startproc
.LVL20:
	.loc 2 142 0
	lbz 3,29(3)
.LVL21:
	blr
	.cfi_endproc
.LFE1393:
	.size	_ZN10GuiElement9IsVisibleEv, .-_ZN10GuiElement9IsVisibleEv
	.section	.text._ZN10GuiElement12IsSelectableEv,"axG",@progbits,_ZN10GuiElement12IsSelectableEv,comdat
	.align 2
	.weak	_ZN10GuiElement12IsSelectableEv
	.type	_ZN10GuiElement12IsSelectableEv, @function
_ZN10GuiElement12IsSelectableEv:
.LFB1394:
	.loc 2 145 0
	.cfi_startproc
.LVL22:
	.loc 2 149 0
	lwz 0,72(3)
	li 9,0
	cmpwi 7,0,4
	beq- 7,.L18
	.loc 2 149 0 is_stmt 0 discriminator 1
	cmpwi 7,0,2
	beq- 7,.L18
	.loc 2 149 0 discriminator 3
	lbz 9,30(3)
.L18:
	.loc 2 150 0 is_stmt 1 discriminator 5
	mr 3,9
.LVL23:
	blr
	.cfi_endproc
.LFE1394:
	.size	_ZN10GuiElement12IsSelectableEv, .-_ZN10GuiElement12IsSelectableEv
	.section	.text._ZN10GuiElement11IsClickableEv,"axG",@progbits,_ZN10GuiElement11IsClickableEv,comdat
	.align 2
	.weak	_ZN10GuiElement11IsClickableEv
	.type	_ZN10GuiElement11IsClickableEv, @function
_ZN10GuiElement11IsClickableEv:
.LFB1395:
	.loc 2 153 0
	.cfi_startproc
.LVL24:
	.loc 2 158 0
	lwz 0,72(3)
	li 9,0
	cmpwi 7,0,4
	beq- 7,.L22
	.loc 2 158 0 is_stmt 0 discriminator 1
	cmpwi 7,0,2
	beq- 7,.L22
	.loc 2 158 0 discriminator 3
	cmpwi 7,0,3
	beq- 7,.L22
	.loc 2 158 0 discriminator 4
	lbz 9,31(3)
.L22:
	.loc 2 159 0 is_stmt 1 discriminator 6
	mr 3,9
.LVL25:
	blr
	.cfi_endproc
.LFE1395:
	.size	_ZN10GuiElement11IsClickableEv, .-_ZN10GuiElement11IsClickableEv
	.section	.text._ZN10GuiElement10IsHoldableEv,"axG",@progbits,_ZN10GuiElement10IsHoldableEv,comdat
	.align 2
	.weak	_ZN10GuiElement10IsHoldableEv
	.type	_ZN10GuiElement10IsHoldableEv, @function
_ZN10GuiElement10IsHoldableEv:
.LFB1396:
	.loc 2 162 0
	.cfi_startproc
.LVL26:
	.loc 2 162 0
	lwz 9,72(3)
	li 0,0
	cmpwi 7,9,4
	beq- 7,.L27
	.loc 2 162 0 is_stmt 0 discriminator 1
	lbz 0,32(3)
.L27:
	.loc 2 162 0 discriminator 4
	mr 3,0
.LVL27:
	blr
	.cfi_endproc
.LFE1396:
	.size	_ZN10GuiElement10IsHoldableEv, .-_ZN10GuiElement10IsHoldableEv
	.section	.text._ZN10GuiElement13SetSelectableEb,"axG",@progbits,_ZN10GuiElement13SetSelectableEb,comdat
	.align 2
	.weak	_ZN10GuiElement13SetSelectableEb
	.type	_ZN10GuiElement13SetSelectableEb, @function
_ZN10GuiElement13SetSelectableEb:
.LFB1397:
	.loc 2 165 0 is_stmt 1
	.cfi_startproc
.LVL28:
	.loc 2 165 0
	stb 4,30(3)
	blr
	.cfi_endproc
.LFE1397:
	.size	_ZN10GuiElement13SetSelectableEb, .-_ZN10GuiElement13SetSelectableEb
	.section	.text._ZN10GuiElement12SetClickableEb,"axG",@progbits,_ZN10GuiElement12SetClickableEb,comdat
	.align 2
	.weak	_ZN10GuiElement12SetClickableEb
	.type	_ZN10GuiElement12SetClickableEb, @function
_ZN10GuiElement12SetClickableEb:
.LFB1398:
	.loc 2 168 0
	.cfi_startproc
.LVL29:
	.loc 2 168 0
	stb 4,31(3)
	blr
	.cfi_endproc
.LFE1398:
	.size	_ZN10GuiElement12SetClickableEb, .-_ZN10GuiElement12SetClickableEb
	.section	.text._ZN10GuiElement11SetHoldableEb,"axG",@progbits,_ZN10GuiElement11SetHoldableEb,comdat
	.align 2
	.weak	_ZN10GuiElement11SetHoldableEb
	.type	_ZN10GuiElement11SetHoldableEb, @function
_ZN10GuiElement11SetHoldableEb:
.LFB1399:
	.loc 2 171 0
	.cfi_startproc
.LVL30:
	.loc 2 171 0
	stb 4,32(3)
	blr
	.cfi_endproc
.LFE1399:
	.size	_ZN10GuiElement11SetHoldableEb, .-_ZN10GuiElement11SetHoldableEb
	.section	.text._ZN10GuiElement8GetStateEv,"axG",@progbits,_ZN10GuiElement8GetStateEv,comdat
	.align 2
	.weak	_ZN10GuiElement8GetStateEv
	.type	_ZN10GuiElement8GetStateEv, @function
_ZN10GuiElement8GetStateEv:
.LFB1400:
	.loc 2 178 0
	.cfi_startproc
.LVL31:
	.loc 2 178 0
	lwz 3,72(3)
.LVL32:
	blr
	.cfi_endproc
.LFE1400:
	.size	_ZN10GuiElement8GetStateEv, .-_ZN10GuiElement8GetStateEv
	.section	.text._ZN10GuiElement12GetStateChanEv,"axG",@progbits,_ZN10GuiElement12GetStateChanEv,comdat
	.align 2
	.weak	_ZN10GuiElement12GetStateChanEv
	.type	_ZN10GuiElement12GetStateChanEv, @function
_ZN10GuiElement12GetStateChanEv:
.LFB1401:
	.loc 2 181 0
	.cfi_startproc
.LVL33:
	.loc 2 181 0
	lwz 3,76(3)
.LVL34:
	blr
	.cfi_endproc
.LFE1401:
	.size	_ZN10GuiElement12GetStateChanEv, .-_ZN10GuiElement12GetStateChanEv
	.section	.text._ZN10GuiElement8SetAlphaEi,"axG",@progbits,_ZN10GuiElement8SetAlphaEi,comdat
	.align 2
	.weak	_ZN10GuiElement8SetAlphaEi
	.type	_ZN10GuiElement8SetAlphaEi, @function
_ZN10GuiElement8SetAlphaEi:
.LFB1403:
	.loc 2 190 0
	.cfi_startproc
.LVL35:
	.loc 2 190 0
	stw 4,56(3)
	blr
	.cfi_endproc
.LFE1403:
	.size	_ZN10GuiElement8SetAlphaEi, .-_ZN10GuiElement8SetAlphaEi
	.section	.text._ZN10GuiElement8GetAlphaEv,"axG",@progbits,_ZN10GuiElement8GetAlphaEv,comdat
	.align 2
	.weak	_ZN10GuiElement8GetAlphaEv
	.type	_ZN10GuiElement8GetAlphaEv, @function
_ZN10GuiElement8GetAlphaEv:
.LFB1404:
	.loc 2 194 0
	.cfi_startproc
.LVL36:
	mflr 0
	stwu 1,-40(1)
.LCFI2:
	.cfi_def_cfa_offset 40
	.cfi_register 65, 0
	stw 31,36(1)
	stw 0,44(1)
.LBB2506:
	.loc 2 198 0
	lwz 31,108(3)
	.cfi_offset 65, 4
	.cfi_offset 31, -4
	cmpwi 7,31,0
	blt- 7,.L38
.L36:
.LVL37:
	.loc 2 203 0
	lwz 3,96(3)
.LVL38:
	cmpwi 7,3,0
	beq- 7,.L37
	.loc 2 204 0
	lwz 9,0(3)
	xoris 31,31,0x8000
.LVL39:
	lwz 0,100(9)
	mtctr 0
	bctrl
	lis 0,0x4330
	xoris 3,3,0x8000
	stw 0,16(1)
	stw 3,20(1)
	lis 9,.LC1@ha
	lfs 0,.LC1@l(9)
	lis 9,.LC2@ha
	lfd 13,16(1)
	lfs 12,.LC2@l(9)
	addi 9,1,24
	fsub 13,13,0
	stw 31,12(1)
	stw 0,8(1)
	frsp 13,13
	fdivs 13,13,12
	lfd 12,8(1)
	fsub 0,12,0
	frsp 0,0
	fmuls 0,0,13
	fctiwz 0,0
	stfiwx 0,0,9
	lwz 31,24(1)
.LVL40:
.L37:
.LBE2506:
	.loc 2 207 0
	lwz 0,44(1)
	mr 3,31
	lwz 31,36(1)
.LVL41:
	mtlr 0
	addi 1,1,40
	.cfi_remember_state
.LCFI3:
	.cfi_def_cfa_offset 0
	.cfi_restore 31
	blr
.LVL42:
.L38:
.LCFI4:
	.cfi_restore_state
.LBB2507:
	.loc 2 201 0
	lwz 31,56(3)
.LVL43:
	b .L36
.LBE2507:
	.cfi_endproc
.LFE1404:
	.size	_ZN10GuiElement8GetAlphaEv, .-_ZN10GuiElement8GetAlphaEv
	.section	.text._ZN10GuiElement8SetScaleEf,"axG",@progbits,_ZN10GuiElement8SetScaleEf,comdat
	.align 2
	.weak	_ZN10GuiElement8SetScaleEf
	.type	_ZN10GuiElement8SetScaleEf, @function
_ZN10GuiElement8SetScaleEf:
.LFB1405:
	.loc 2 210 0
	.cfi_startproc
.LVL44:
	.loc 2 212 0
	stfs 1,60(3)
	.loc 2 214 0
	.loc 2 213 0
	stfs 1,64(3)
	.loc 2 214 0
	blr
	.cfi_endproc
.LFE1405:
	.size	_ZN10GuiElement8SetScaleEf, .-_ZN10GuiElement8SetScaleEf
	.section	.text._ZN10GuiElement9SetScaleXEf,"axG",@progbits,_ZN10GuiElement9SetScaleXEf,comdat
	.align 2
	.weak	_ZN10GuiElement9SetScaleXEf
	.type	_ZN10GuiElement9SetScaleXEf, @function
_ZN10GuiElement9SetScaleXEf:
.LFB1406:
	.loc 2 217 0
	.cfi_startproc
.LVL45:
	.loc 2 217 0
	stfs 1,60(3)
	blr
	.cfi_endproc
.LFE1406:
	.size	_ZN10GuiElement9SetScaleXEf, .-_ZN10GuiElement9SetScaleXEf
	.section	.text._ZN10GuiElement9SetScaleYEf,"axG",@progbits,_ZN10GuiElement9SetScaleYEf,comdat
	.align 2
	.weak	_ZN10GuiElement9SetScaleYEf
	.type	_ZN10GuiElement9SetScaleYEf, @function
_ZN10GuiElement9SetScaleYEf:
.LFB1407:
	.loc 2 220 0
	.cfi_startproc
.LVL46:
	.loc 2 220 0
	stfs 1,64(3)
	blr
	.cfi_endproc
.LFE1407:
	.size	_ZN10GuiElement9SetScaleYEf, .-_ZN10GuiElement9SetScaleYEf
	.section	.text._ZN10GuiElement8GetScaleEv,"axG",@progbits,_ZN10GuiElement8GetScaleEv,comdat
	.align 2
	.weak	_ZN10GuiElement8GetScaleEv
	.type	_ZN10GuiElement8GetScaleEv, @function
_ZN10GuiElement8GetScaleEv:
.LFB1408:
	.loc 2 223 0
	.cfi_startproc
.LVL47:
	mflr 0
	stwu 1,-16(1)
.LCFI5:
	.cfi_def_cfa_offset 16
	.cfi_register 65, 0
.LBB2508:
	.loc 2 225 0
	lis 9,.LC3@ha
.LBE2508:
	.loc 2 223 0
	stfd 31,8(1)
	stw 0,20(1)
.LBB2509:
	.loc 2 225 0
	lfs 0,64(3)
	lfs 31,60(3)
	.cfi_offset 65, 4
	.cfi_offset 63, -8
	.loc 2 227 0
	lwz 11,96(3)
	.loc 2 225 0
	fadds 31,31,0
	lfs 0,.LC3@l(9)
	.loc 2 227 0
	cmpwi 7,11,0
	.loc 2 225 0
	fmuls 31,31,0
	lfs 0,112(3)
	fmuls 31,31,0
.LVL48:
	.loc 2 227 0
	beq- 7,.L43
	.loc 2 228 0
	lwz 9,0(11)
	mr 3,11
.LVL49:
	lwz 0,116(9)
	mtctr 0
	bctrl
	fmuls 31,31,1
.LVL50:
.L43:
.LBE2509:
	.loc 2 231 0
	lwz 0,20(1)
	fmr 1,31
	lfd 31,8(1)
.LVL51:
	mtlr 0
	addi 1,1,16
.LCFI6:
	.cfi_def_cfa_offset 0
	.cfi_restore 63
	blr
	.cfi_endproc
.LFE1408:
	.size	_ZN10GuiElement8GetScaleEv, .-_ZN10GuiElement8GetScaleEv
	.section	.text._ZN10GuiElement9GetScaleXEv,"axG",@progbits,_ZN10GuiElement9GetScaleXEv,comdat
	.align 2
	.weak	_ZN10GuiElement9GetScaleXEv
	.type	_ZN10GuiElement9GetScaleXEv, @function
_ZN10GuiElement9GetScaleXEv:
.LFB1409:
	.loc 2 234 0
	.cfi_startproc
.LVL52:
	mflr 0
	stwu 1,-16(1)
.LCFI7:
	.cfi_def_cfa_offset 16
	.cfi_register 65, 0
	stfd 31,8(1)
	stw 0,20(1)
.LBB2510:
	.loc 2 238 0
	lwz 11,96(3)
	.loc 2 236 0
	lfs 31,60(3)
	.cfi_offset 65, 4
	.cfi_offset 63, -8
	.loc 2 238 0
	cmpwi 7,11,0
	.loc 2 236 0
	lfs 0,112(3)
	fmuls 31,31,0
.LVL53:
	.loc 2 238 0
	beq- 7,.L45
	.loc 2 239 0
	lwz 9,0(11)
	mr 3,11
.LVL54:
	lwz 0,120(9)
	mtctr 0
	bctrl
	fmuls 31,31,1
.LVL55:
.L45:
.LBE2510:
	.loc 2 242 0
	lwz 0,20(1)
	fmr 1,31
	lfd 31,8(1)
.LVL56:
	mtlr 0
	addi 1,1,16
.LCFI8:
	.cfi_def_cfa_offset 0
	.cfi_restore 63
	blr
	.cfi_endproc
.LFE1409:
	.size	_ZN10GuiElement9GetScaleXEv, .-_ZN10GuiElement9GetScaleXEv
	.section	.text._ZN10GuiElement9GetScaleYEv,"axG",@progbits,_ZN10GuiElement9GetScaleYEv,comdat
	.align 2
	.weak	_ZN10GuiElement9GetScaleYEv
	.type	_ZN10GuiElement9GetScaleYEv, @function
_ZN10GuiElement9GetScaleYEv:
.LFB1410:
	.loc 2 245 0
	.cfi_startproc
.LVL57:
	mflr 0
	stwu 1,-16(1)
.LCFI9:
	.cfi_def_cfa_offset 16
	.cfi_register 65, 0
	stfd 31,8(1)
	stw 0,20(1)
.LBB2511:
	.loc 2 249 0
	lwz 11,96(3)
	.loc 2 247 0
	lfs 31,64(3)
	.cfi_offset 65, 4
	.cfi_offset 63, -8
	.loc 2 249 0
	cmpwi 7,11,0
	.loc 2 247 0
	lfs 0,112(3)
	fmuls 31,31,0
.LVL58:
	.loc 2 249 0
	beq- 7,.L47
	.loc 2 250 0
	lwz 9,0(11)
	mr 3,11
.LVL59:
	lwz 0,124(9)
	mtctr 0
	bctrl
	fmuls 31,31,1
.LVL60:
.L47:
.LBE2511:
	.loc 2 253 0
	lwz 0,20(1)
	fmr 1,31
	lfd 31,8(1)
.LVL61:
	mtlr 0
	addi 1,1,16
.LCFI10:
	.cfi_def_cfa_offset 0
	.cfi_restore 63
	blr
	.cfi_endproc
.LFE1410:
	.size	_ZN10GuiElement9GetScaleYEv, .-_ZN10GuiElement9GetScaleYEv
	.section	.text._ZN10GuiElement6RumbleEv,"axG",@progbits,_ZN10GuiElement6RumbleEv,comdat
	.align 2
	.weak	_ZN10GuiElement6RumbleEv
	.type	_ZN10GuiElement6RumbleEv, @function
_ZN10GuiElement6RumbleEv:
.LFB1411:
	.loc 2 256 0
	.cfi_startproc
.LVL62:
	.loc 2 256 0
	lbz 3,28(3)
.LVL63:
	blr
	.cfi_endproc
.LFE1411:
	.size	_ZN10GuiElement6RumbleEv, .-_ZN10GuiElement6RumbleEv
	.section	.text._ZN10GuiElement9SetRumbleEb,"axG",@progbits,_ZN10GuiElement9SetRumbleEb,comdat
	.align 2
	.weak	_ZN10GuiElement9SetRumbleEb
	.type	_ZN10GuiElement9SetRumbleEb, @function
_ZN10GuiElement9SetRumbleEb:
.LFB1412:
	.loc 2 259 0
	.cfi_startproc
.LVL64:
	.loc 2 259 0
	stb 4,28(3)
	blr
	.cfi_endproc
.LFE1412:
	.size	_ZN10GuiElement9SetRumbleEb, .-_ZN10GuiElement9SetRumbleEb
	.section	.text._ZN10GuiElement13SetEffectGrowEv,"axG",@progbits,_ZN10GuiElement13SetEffectGrowEv,comdat
	.align 2
	.weak	_ZN10GuiElement13SetEffectGrowEv
	.type	_ZN10GuiElement13SetEffectGrowEv, @function
_ZN10GuiElement13SetEffectGrowEv:
.LFB1413:
	.loc 2 271 0
	.cfi_startproc
.LVL65:
	mflr 0
	stwu 1,-8(1)
.LCFI11:
	.cfi_def_cfa_offset 8
	.cfi_register 65, 0
	lwz 9,0(3)
	li 4,256
	li 5,4
	li 6,110
	stw 0,12(1)
	.loc 2 271 0
	lwz 0,140(9)
	.cfi_offset 65, 4
	mtctr 0
	bctrl
.LVL66:
	lwz 0,12(1)
	addi 1,1,8
.LCFI12:
	.cfi_def_cfa_offset 0
	mtlr 0
	blr
	.cfi_endproc
.LFE1413:
	.size	_ZN10GuiElement13SetEffectGrowEv, .-_ZN10GuiElement13SetEffectGrowEv
	.section	.text._ZNK10GuiElement9GetEffectEv,"axG",@progbits,_ZNK10GuiElement9GetEffectEv,comdat
	.align 2
	.weak	_ZNK10GuiElement9GetEffectEv
	.type	_ZNK10GuiElement9GetEffectEv, @function
_ZNK10GuiElement9GetEffectEv:
.LFB1414:
	.loc 2 276 0
	.cfi_startproc
.LVL67:
	.loc 2 276 0
	lwz 3,120(3)
.LVL68:
	blr
	.cfi_endproc
.LFE1414:
	.size	_ZNK10GuiElement9GetEffectEv, .-_ZNK10GuiElement9GetEffectEv
	.section	.text._ZNK10GuiElement10IsAnimatedEv,"axG",@progbits,_ZNK10GuiElement10IsAnimatedEv,comdat
	.align 2
	.weak	_ZNK10GuiElement10IsAnimatedEv
	.type	_ZNK10GuiElement10IsAnimatedEv, @function
_ZNK10GuiElement10IsAnimatedEv:
.LFB1415:
	.loc 2 278 0
	.cfi_startproc
.LVL69:
	mflr 0
	stwu 1,-8(1)
.LCFI13:
	.cfi_def_cfa_offset 8
	.cfi_register 65, 0
	stw 0,12(1)
	.loc 2 278 0
	lwz 9,0(3)
	lwz 0,152(9)
	.cfi_offset 65, 4
	mtctr 0
	bctrl
.LVL70:
	srawi 0,3,31
	subf 3,3,0
	lwz 0,12(1)
	srwi 3,3,31
	mtlr 0
	addi 1,1,8
.LCFI14:
	.cfi_def_cfa_offset 0
	blr
	.cfi_endproc
.LFE1415:
	.size	_ZNK10GuiElement10IsAnimatedEv, .-_ZNK10GuiElement10IsAnimatedEv
	.section	.text._ZN10GuiElement8IsInsideEii,"axG",@progbits,_ZN10GuiElement8IsInsideEii,comdat
	.align 2
	.weak	_ZN10GuiElement8IsInsideEii
	.type	_ZN10GuiElement8IsInsideEii, @function
_ZN10GuiElement8IsInsideEii:
.LFB1417:
	.loc 2 285 0
	.cfi_startproc
.LVL71:
	mflr 0
	stwu 1,-24(1)
.LCFI15:
	.cfi_def_cfa_offset 24
	.cfi_register 65, 0
	stw 28,8(1)
	mr 28,5
	.cfi_offset 28, -16
	stw 0,28(1)
	stw 29,12(1)
	.loc 2 290 0
	li 29,0
	.cfi_offset 29, -12
	.cfi_offset 65, 4
	.loc 2 287 0
	lwz 9,0(3)
	.loc 2 285 0
	stw 30,16(1)
	mr 30,4
	.cfi_offset 30, -8
	.loc 2 287 0
	lwz 0,16(9)
	.loc 2 285 0
	stw 31,20(1)
	.loc 2 285 0
	mr 31,3
	.cfi_offset 31, -4
	.loc 2 287 0
	mtctr 0
	bctrl
.LVL72:
	.loc 2 290 0
	cmpw 7,3,30
	blt- 7,.L58
.L54:
	.loc 2 291 0 discriminator 6
	lwz 0,28(1)
	mr 3,29
	lwz 28,8(1)
.LVL73:
	mtlr 0
	lwz 29,12(1)
	lwz 30,16(1)
.LVL74:
	lwz 31,20(1)
.LVL75:
	addi 1,1,24
	.cfi_remember_state
.LCFI16:
	.cfi_def_cfa_offset 0
	.cfi_restore 31
	.cfi_restore 30
	.cfi_restore 29
	.cfi_restore 28
	blr
.LVL76:
.L58:
.LCFI17:
	.cfi_restore_state
	.loc 2 288 0 discriminator 1
	lwz 9,0(31)
	mr 3,31
	lwz 0,16(9)
	mtctr 0
	bctrl
	.loc 2 290 0 discriminator 1
	lwz 0,36(31)
	add 0,3,0
	cmpw 7,30,0
	bge+ 7,.L54
	.loc 2 289 0 discriminator 3
	lwz 9,0(31)
	mr 3,31
	lwz 0,20(9)
	mtctr 0
	bctrl
	.loc 2 290 0 discriminator 3
	cmpw 7,3,28
	bge+ 7,.L54
	.loc 2 290 0 is_stmt 0 discriminator 4
	lwz 9,0(31)
	mr 3,31
	lwz 0,20(9)
	mtctr 0
	bctrl
	lwz 0,40(31)
	add 0,3,0
	.loc 2 285 0 is_stmt 1 discriminator 4
	cmpw 7,28,0
	mfcr 29
	rlwinm 29,29,29,1
	b .L54
	.cfi_endproc
.LFE1417:
	.size	_ZN10GuiElement8IsInsideEii, .-_ZN10GuiElement8IsInsideEii
	.section	.text._ZN10GuiElement11SetPositionEii,"axG",@progbits,_ZN10GuiElement11SetPositionEii,comdat
	.align 2
	.weak	_ZN10GuiElement11SetPositionEii
	.type	_ZN10GuiElement11SetPositionEii, @function
_ZN10GuiElement11SetPositionEii:
.LFB1418:
	.loc 2 295 0
	.cfi_startproc
.LVL77:
	.loc 2 297 0
	stw 4,44(3)
	.loc 2 299 0
	.loc 2 298 0
	stw 5,48(3)
	.loc 2 299 0
	blr
	.cfi_endproc
.LFE1418:
	.size	_ZN10GuiElement11SetPositionEii, .-_ZN10GuiElement11SetPositionEii
	.section	.text._ZN10GuiElement11SetPositionEiii,"axG",@progbits,_ZN10GuiElement11SetPositionEiii,comdat
	.align 2
	.weak	_ZN10GuiElement11SetPositionEiii
	.type	_ZN10GuiElement11SetPositionEiii, @function
_ZN10GuiElement11SetPositionEiii:
.LFB1419:
	.loc 2 304 0
	.cfi_startproc
.LVL78:
	.loc 2 306 0
	stw 4,44(3)
	.loc 2 309 0
	.loc 2 307 0
	stw 5,48(3)
	.loc 2 308 0
	stw 6,52(3)
	.loc 2 309 0
	blr
	.cfi_endproc
.LFE1419:
	.size	_ZN10GuiElement11SetPositionEiii, .-_ZN10GuiElement11SetPositionEiii
	.section	.text._ZN10GuiElement12SetAlignmentEi,"axG",@progbits,_ZN10GuiElement12SetAlignmentEi,comdat
	.align 2
	.weak	_ZN10GuiElement12SetAlignmentEi
	.type	_ZN10GuiElement12SetAlignmentEi, @function
_ZN10GuiElement12SetAlignmentEi:
.LFB1421:
	.loc 2 316 0
	.cfi_startproc
.LVL79:
	.loc 2 316 0
	stw 4,68(3)
	blr
	.cfi_endproc
.LFE1421:
	.size	_ZN10GuiElement12SetAlignmentEi, .-_ZN10GuiElement12SetAlignmentEi
	.section	.text._ZNK10GuiElement12GetAlignmentEv,"axG",@progbits,_ZNK10GuiElement12GetAlignmentEv,comdat
	.align 2
	.weak	_ZNK10GuiElement12GetAlignmentEv
	.type	_ZNK10GuiElement12GetAlignmentEv, @function
_ZNK10GuiElement12GetAlignmentEv:
.LFB1422:
	.loc 2 318 0
	.cfi_startproc
.LVL80:
	.loc 2 318 0
	lwz 3,68(3)
.LVL81:
	blr
	.cfi_endproc
.LFE1422:
	.size	_ZNK10GuiElement12GetAlignmentEv, .-_ZNK10GuiElement12GetAlignmentEv
	.section	.text._ZN8GuiFrame4showEv,"axG",@progbits,_ZN8GuiFrame4showEv,comdat
	.align 2
	.weak	_ZN8GuiFrame4showEv
	.type	_ZN8GuiFrame4showEv, @function
_ZN8GuiFrame4showEv:
.LFB1431:
	.file 3 "d:/Projects/SaveGameManager/savegame-manager-gx/trunk/source/SoundOperations/../Controls/../GUI/gui_frame.h"
	.loc 3 79 0
	.cfi_startproc
.LVL82:
	.loc 3 79 0
	blr
	.cfi_endproc
.LFE1431:
	.size	_ZN8GuiFrame4showEv, .-_ZN8GuiFrame4showEv
	.section	.text._ZN8GuiFrame4hideEv,"axG",@progbits,_ZN8GuiFrame4hideEv,comdat
	.align 2
	.weak	_ZN8GuiFrame4hideEv
	.type	_ZN8GuiFrame4hideEv, @function
_ZN8GuiFrame4hideEv:
.LFB1432:
	.loc 3 81 0
	.cfi_startproc
.LVL83:
	.loc 3 81 0
	blr
	.cfi_endproc
.LFE1432:
	.size	_ZN8GuiFrame4hideEv, .-_ZN8GuiFrame4hideEv
	.section	.text._ZN8GuiFrame4execEv,"axG",@progbits,_ZN8GuiFrame4execEv,comdat
	.align 2
	.weak	_ZN8GuiFrame4execEv
	.type	_ZN8GuiFrame4execEv, @function
_ZN8GuiFrame4execEv:
.LFB1433:
	.loc 3 83 0
	.cfi_startproc
.LVL84:
	.loc 3 83 0
	blr
	.cfi_endproc
.LFE1433:
	.size	_ZN8GuiFrame4execEv, .-_ZN8GuiFrame4execEv
	.section	.text._ZN8GuiFrame12updateEventsEv,"axG",@progbits,_ZN8GuiFrame12updateEventsEv,comdat
	.align 2
	.weak	_ZN8GuiFrame12updateEventsEv
	.type	_ZN8GuiFrame12updateEventsEv, @function
_ZN8GuiFrame12updateEventsEv:
.LFB1434:
	.loc 3 85 0
	.cfi_startproc
.LVL85:
	.loc 3 85 0
	blr
	.cfi_endproc
.LFE1434:
	.size	_ZN8GuiFrame12updateEventsEv, .-_ZN8GuiFrame12updateEventsEv
	.section	.text._ZN6Thread11startThreadEv,"axG",@progbits,_ZN6Thread11startThreadEv,comdat
	.align 2
	.weak	_ZN6Thread11startThreadEv
	.type	_ZN6Thread11startThreadEv, @function
_ZN6Thread11startThreadEv:
.LFB1581:
	.file 4 "d:/Projects/SaveGameManager/savegame-manager-gx/trunk/source/SoundOperations/../Controls/Thread.h"
	.loc 4 48 0
	.cfi_startproc
.LVL86:
	mflr 0
	stwu 1,-8(1)
.LCFI18:
	.cfi_def_cfa_offset 8
	.cfi_register 65, 0
	lwz 9,0(3)
	stw 0,12(1)
	.loc 4 48 0
	lwz 0,24(9)
	.cfi_offset 65, 4
	mtctr 0
	bctrl
.LVL87:
	lwz 0,12(1)
	addi 1,1,8
.LCFI19:
	.cfi_def_cfa_offset 0
	mtlr 0
	blr
	.cfi_endproc
.LFE1581:
	.size	_ZN6Thread11startThreadEv, .-_ZN6Thread11startThreadEv
	.section	.text._ZNK6Thread9getThreadEv,"axG",@progbits,_ZNK6Thread9getThreadEv,comdat
	.align 2
	.weak	_ZNK6Thread9getThreadEv
	.type	_ZNK6Thread9getThreadEv, @function
_ZNK6Thread9getThreadEv:
.LFB1582:
	.loc 4 50 0
	.cfi_startproc
.LVL88:
	.loc 4 50 0
	lwz 3,4(3)
.LVL89:
	blr
	.cfi_endproc
.LFE1582:
	.size	_ZNK6Thread9getThreadEv, .-_ZNK6Thread9getThreadEv
	.section	.text._ZN6Thread14threadCallbackEPv,"axG",@progbits,_ZN6Thread14threadCallbackEPv,comdat
	.align 2
	.weak	_ZN6Thread14threadCallbackEPv
	.type	_ZN6Thread14threadCallbackEPv, @function
_ZN6Thread14threadCallbackEPv:
.LFB1588:
	.loc 4 78 0
	.cfi_startproc
.LVL90:
	mflr 0
	stwu 1,-16(1)
.LCFI20:
	.cfi_def_cfa_offset 16
	.cfi_register 65, 0
	stw 31,12(1)
	mr 31,3
	.cfi_offset 31, -4
	stw 0,20(1)
	.loc 4 81 0
	lwz 9,0(3)
	lwz 0,20(9)
	.cfi_offset 65, 4
	mtctr 0
	bctrl
.LVL91:
	.loc 4 83 0
	lwz 9,0(31)
	mr 3,31
	lwz 0,16(9)
	mtctr 0
	bctrl
	.loc 4 85 0
	lwz 0,20(1)
	lwz 31,12(1)
.LVL92:
	li 3,0
	mtlr 0
	addi 1,1,16
.LCFI21:
	.cfi_def_cfa_offset 0
	.cfi_restore 31
	blr
	.cfi_endproc
.LFE1588:
	.size	_ZN6Thread14threadCallbackEPv, .-_ZN6Thread14threadCallbackEPv
	.section	.text._ZN7sigslot17_connection_base2IP8PlayListiNS_15single_threadedEED2Ev,"axG",@progbits,_ZN7sigslot17_connection_base2IP8PlayListiNS_15single_threadedEED5Ev,comdat
	.align 2
	.weak	_ZN7sigslot17_connection_base2IP8PlayListiNS_15single_threadedEED2Ev
	.type	_ZN7sigslot17_connection_base2IP8PlayListiNS_15single_threadedEED2Ev, @function
_ZN7sigslot17_connection_base2IP8PlayListiNS_15single_threadedEED2Ev:
.LFB1841:
	.loc 1 376 0
	.cfi_startproc
.LVL93:
.LBB2512:
	.loc 1 376 0
	lis 9,_ZTVN7sigslot17_connection_base2IP8PlayListiNS_15single_threadedEEE+8@ha
.LBE2512:
.LBB2513:
	la 0,_ZTVN7sigslot17_connection_base2IP8PlayListiNS_15single_threadedEEE+8@l(9)
	stw 0,0(3)
.LBE2513:
	blr
	.cfi_endproc
.LFE1841:
	.size	_ZN7sigslot17_connection_base2IP8PlayListiNS_15single_threadedEED2Ev, .-_ZN7sigslot17_connection_base2IP8PlayListiNS_15single_threadedEED2Ev
	.section	.text._ZN7sigslot17_connection_base3IP9GuiButtoniRK6_POINTNS_15single_threadedEED2Ev,"axG",@progbits,_ZN7sigslot17_connection_base3IP9GuiButtoniRK6_POINTNS_15single_threadedEED5Ev,comdat
	.align 2
	.weak	_ZN7sigslot17_connection_base3IP9GuiButtoniRK6_POINTNS_15single_threadedEED2Ev
	.type	_ZN7sigslot17_connection_base3IP9GuiButtoniRK6_POINTNS_15single_threadedEED2Ev, @function
_ZN7sigslot17_connection_base3IP9GuiButtoniRK6_POINTNS_15single_threadedEED2Ev:
.LFB1848:
	.loc 1 387 0
	.cfi_startproc
.LVL94:
.LBB2514:
	.loc 1 387 0
	lis 9,_ZTVN7sigslot17_connection_base3IP9GuiButtoniRK6_POINTNS_15single_threadedEEE+8@ha
.LBE2514:
.LBB2515:
	la 0,_ZTVN7sigslot17_connection_base3IP9GuiButtoniRK6_POINTNS_15single_threadedEEE+8@l(9)
	stw 0,0(3)
.LBE2515:
	blr
	.cfi_endproc
.LFE1848:
	.size	_ZN7sigslot17_connection_base3IP9GuiButtoniRK6_POINTNS_15single_threadedEED2Ev, .-_ZN7sigslot17_connection_base3IP9GuiButtoniRK6_POINTNS_15single_threadedEED2Ev
	.section	.text._ZN7sigslot12_connection3I11MusicPlayerP9GuiButtoniRK6_POINTNS_15single_threadedEED2Ev,"axG",@progbits,_ZN7sigslot12_connection3I11MusicPlayerP9GuiButtoniRK6_POINTNS_15single_threadedEED5Ev,comdat
	.align 2
	.weak	_ZN7sigslot12_connection3I11MusicPlayerP9GuiButtoniRK6_POINTNS_15single_threadedEED2Ev
	.type	_ZN7sigslot12_connection3I11MusicPlayerP9GuiButtoniRK6_POINTNS_15single_threadedEED2Ev, @function
_ZN7sigslot12_connection3I11MusicPlayerP9GuiButtoniRK6_POINTNS_15single_threadedEED2Ev:
.LFB2128:
	.loc 1 1783 0
	.cfi_startproc
.LVL95:
.LBB2516:
.LBB2517:
.LBB2518:
.LBB2519:
	.loc 1 387 0
	lis 9,_ZTVN7sigslot17_connection_base3IP9GuiButtoniRK6_POINTNS_15single_threadedEEE+8@ha
.LBE2519:
.LBE2518:
.LBE2517:
.LBE2516:
	.loc 1 1786 0
.LBB2523:
.LBB2522:
.LBB2521:
.LBB2520:
	.loc 1 387 0
	la 0,_ZTVN7sigslot17_connection_base3IP9GuiButtoniRK6_POINTNS_15single_threadedEEE+8@l(9)
	stw 0,0(3)
.LBE2520:
.LBE2521:
.LBE2522:
.LBE2523:
	.loc 1 1786 0
	blr
	.cfi_endproc
.LFE2128:
	.size	_ZN7sigslot12_connection3I11MusicPlayerP9GuiButtoniRK6_POINTNS_15single_threadedEED2Ev, .-_ZN7sigslot12_connection3I11MusicPlayerP9GuiButtoniRK6_POINTNS_15single_threadedEED2Ev
	.section	.text._ZNK7sigslot12_connection3I11MusicPlayerP9GuiButtoniRK6_POINTNS_15single_threadedEE7getdestEv,"axG",@progbits,_ZNK7sigslot12_connection3I11MusicPlayerP9GuiButtoniRK6_POINTNS_15single_threadedEE7getdestEv,comdat
	.align 2
	.weak	_ZNK7sigslot12_connection3I11MusicPlayerP9GuiButtoniRK6_POINTNS_15single_threadedEE7getdestEv
	.type	_ZNK7sigslot12_connection3I11MusicPlayerP9GuiButtoniRK6_POINTNS_15single_threadedEE7getdestEv, @function
_ZNK7sigslot12_connection3I11MusicPlayerP9GuiButtoniRK6_POINTNS_15single_threadedEE7getdestEv:
.LFB2131:
	.loc 1 1804 0
	.cfi_startproc
.LVL96:
	.loc 1 1806 0
	lwz 9,4(3)
	li 3,0
.LVL97:
	cmpwi 7,9,0
	beqlr- 7
	.loc 1 1806 0 is_stmt 0 discriminator 1
	addi 3,9,188
	.loc 1 1807 0 is_stmt 1 discriminator 1
	blr
	.cfi_endproc
.LFE2131:
	.size	_ZNK7sigslot12_connection3I11MusicPlayerP9GuiButtoniRK6_POINTNS_15single_threadedEE7getdestEv, .-_ZNK7sigslot12_connection3I11MusicPlayerP9GuiButtoniRK6_POINTNS_15single_threadedEE7getdestEv
	.section	.text._ZN7sigslot12_connection3I11MusicPlayerP9GuiButtoniRK6_POINTNS_15single_threadedEE4emitES3_iS6_,"axG",@progbits,_ZN7sigslot12_connection3I11MusicPlayerP9GuiButtoniRK6_POINTNS_15single_threadedEE4emitES3_iS6_,comdat
	.align 2
	.weak	_ZN7sigslot12_connection3I11MusicPlayerP9GuiButtoniRK6_POINTNS_15single_threadedEE4emitES3_iS6_
	.type	_ZN7sigslot12_connection3I11MusicPlayerP9GuiButtoniRK6_POINTNS_15single_threadedEE4emitES3_iS6_, @function
_ZN7sigslot12_connection3I11MusicPlayerP9GuiButtoniRK6_POINTNS_15single_threadedEE4emitES3_iS6_:
.LFB2132:
	.loc 1 1799 0
	.cfi_startproc
.LVL98:
	mflr 0
	stwu 1,-8(1)
.LCFI22:
	.cfi_def_cfa_offset 8
	.cfi_register 65, 0
	stw 0,12(1)
	.loc 1 1801 0
	lwz 0,8(3)
	.cfi_offset 65, 4
	lwz 11,4(3)
	andi. 9,0,1
	lwz 9,12(3)
	bne- 0,.L81
	mtctr 0
	add 3,11,9
.LVL99:
	bctrl
.LVL100:
	.loc 1 1802 0
	lwz 0,12(1)
	addi 1,1,8
	.cfi_remember_state
.LCFI23:
	.cfi_def_cfa_offset 0
	mtlr 0
	blr
.LVL101:
.L81:
.LCFI24:
	.cfi_restore_state
	.loc 1 1801 0 discriminator 1
	lwzx 10,11,9
	add 3,11,9
.LVL102:
	add 9,10,0
	lwz 0,-1(9)
	mtctr 0
	bctrl
.LVL103:
	.loc 1 1802 0 discriminator 1
	lwz 0,12(1)
	addi 1,1,8
.LCFI25:
	.cfi_def_cfa_offset 0
	mtlr 0
	blr
	.cfi_endproc
.LFE2132:
	.size	_ZN7sigslot12_connection3I11MusicPlayerP9GuiButtoniRK6_POINTNS_15single_threadedEE4emitES3_iS6_, .-_ZN7sigslot12_connection3I11MusicPlayerP9GuiButtoniRK6_POINTNS_15single_threadedEE4emitES3_iS6_
	.section	.text._ZN7sigslot12_connection2I11MusicPlayerP8PlayListiNS_15single_threadedEED2Ev,"axG",@progbits,_ZN7sigslot12_connection2I11MusicPlayerP8PlayListiNS_15single_threadedEED5Ev,comdat
	.align 2
	.weak	_ZN7sigslot12_connection2I11MusicPlayerP8PlayListiNS_15single_threadedEED2Ev
	.type	_ZN7sigslot12_connection2I11MusicPlayerP8PlayListiNS_15single_threadedEED2Ev, @function
_ZN7sigslot12_connection2I11MusicPlayerP8PlayListiNS_15single_threadedEED2Ev:
.LFB2142:
	.loc 1 1735 0
	.cfi_startproc
.LVL104:
.LBB2524:
.LBB2525:
.LBB2526:
.LBB2527:
	.loc 1 376 0
	lis 9,_ZTVN7sigslot17_connection_base2IP8PlayListiNS_15single_threadedEEE+8@ha
.LBE2527:
.LBE2526:
.LBE2525:
.LBE2524:
	.loc 1 1738 0
.LBB2531:
.LBB2530:
.LBB2529:
.LBB2528:
	.loc 1 376 0
	la 0,_ZTVN7sigslot17_connection_base2IP8PlayListiNS_15single_threadedEEE+8@l(9)
	stw 0,0(3)
.LBE2528:
.LBE2529:
.LBE2530:
.LBE2531:
	.loc 1 1738 0
	blr
	.cfi_endproc
.LFE2142:
	.size	_ZN7sigslot12_connection2I11MusicPlayerP8PlayListiNS_15single_threadedEED2Ev, .-_ZN7sigslot12_connection2I11MusicPlayerP8PlayListiNS_15single_threadedEED2Ev
	.section	.text._ZNK7sigslot12_connection2I11MusicPlayerP8PlayListiNS_15single_threadedEE7getdestEv,"axG",@progbits,_ZNK7sigslot12_connection2I11MusicPlayerP8PlayListiNS_15single_threadedEE7getdestEv,comdat
	.align 2
	.weak	_ZNK7sigslot12_connection2I11MusicPlayerP8PlayListiNS_15single_threadedEE7getdestEv
	.type	_ZNK7sigslot12_connection2I11MusicPlayerP8PlayListiNS_15single_threadedEE7getdestEv, @function
_ZNK7sigslot12_connection2I11MusicPlayerP8PlayListiNS_15single_threadedEE7getdestEv:
.LFB2145:
	.loc 1 1756 0
	.cfi_startproc
.LVL105:
	.loc 1 1758 0
	lwz 9,4(3)
	li 3,0
.LVL106:
	cmpwi 7,9,0
	beqlr- 7
	.loc 1 1758 0 is_stmt 0 discriminator 1
	addi 3,9,188
	.loc 1 1759 0 is_stmt 1 discriminator 1
	blr
	.cfi_endproc
.LFE2145:
	.size	_ZNK7sigslot12_connection2I11MusicPlayerP8PlayListiNS_15single_threadedEE7getdestEv, .-_ZNK7sigslot12_connection2I11MusicPlayerP8PlayListiNS_15single_threadedEE7getdestEv
	.section	.text._ZN7sigslot12_connection2I11MusicPlayerP8PlayListiNS_15single_threadedEE4emitES3_i,"axG",@progbits,_ZN7sigslot12_connection2I11MusicPlayerP8PlayListiNS_15single_threadedEE4emitES3_i,comdat
	.align 2
	.weak	_ZN7sigslot12_connection2I11MusicPlayerP8PlayListiNS_15single_threadedEE4emitES3_i
	.type	_ZN7sigslot12_connection2I11MusicPlayerP8PlayListiNS_15single_threadedEE4emitES3_i, @function
_ZN7sigslot12_connection2I11MusicPlayerP8PlayListiNS_15single_threadedEE4emitES3_i:
.LFB2146:
	.loc 1 1751 0
	.cfi_startproc
.LVL107:
	mflr 0
	stwu 1,-8(1)
.LCFI26:
	.cfi_def_cfa_offset 8
	.cfi_register 65, 0
	stw 0,12(1)
	.loc 1 1753 0
	lwz 0,8(3)
	.cfi_offset 65, 4
	lwz 11,4(3)
	andi. 9,0,1
	lwz 9,12(3)
	bne- 0,.L90
	mtctr 0
	add 3,11,9
.LVL108:
	bctrl
.LVL109:
	.loc 1 1754 0
	lwz 0,12(1)
	addi 1,1,8
	.cfi_remember_state
.LCFI27:
	.cfi_def_cfa_offset 0
	mtlr 0
	blr
.LVL110:
.L90:
.LCFI28:
	.cfi_restore_state
	.loc 1 1753 0 discriminator 1
	lwzx 10,11,9
	add 3,11,9
.LVL111:
	add 9,10,0
	lwz 0,-1(9)
	mtctr 0
	bctrl
.LVL112:
	.loc 1 1754 0 discriminator 1
	lwz 0,12(1)
	addi 1,1,8
.LCFI29:
	.cfi_def_cfa_offset 0
	mtlr 0
	blr
	.cfi_endproc
.LFE2146:
	.size	_ZN7sigslot12_connection2I11MusicPlayerP8PlayListiNS_15single_threadedEE4emitES3_i, .-_ZN7sigslot12_connection2I11MusicPlayerP8PlayListiNS_15single_threadedEE4emitES3_i
	.section	.text._ZN7sigslot12_connection2I11MusicPlayerP8PlayListiNS_15single_threadedEE9duplicateEPNS_9has_slotsIS4_EE,"axG",@progbits,_ZN7sigslot12_connection2I11MusicPlayerP8PlayListiNS_15single_threadedEE9duplicateEPNS_9has_slotsIS4_EE,comdat
	.align 2
	.weak	_ZN7sigslot12_connection2I11MusicPlayerP8PlayListiNS_15single_threadedEE9duplicateEPNS_9has_slotsIS4_EE
	.type	_ZN7sigslot12_connection2I11MusicPlayerP8PlayListiNS_15single_threadedEE9duplicateEPNS_9has_slotsIS4_EE, @function
_ZN7sigslot12_connection2I11MusicPlayerP8PlayListiNS_15single_threadedEE9duplicateEPNS_9has_slotsIS4_EE:
.LFB2154:
	.loc 1 1746 0
	.cfi_startproc
.LVL113:
	stwu 1,-16(1)
.LCFI30:
	.cfi_def_cfa_offset 16
	mflr 0
	stw 30,8(1)
	mr 30,4
	.cfi_offset 30, -8
	.cfi_register 65, 0
	stw 31,12(1)
	mr 31,3
	.cfi_offset 31, -4
	.loc 1 1748 0
	li 3,16
.LVL114:
	.loc 1 1746 0
	stw 0,20(1)
	.loc 1 1748 0
	.cfi_offset 65, 4
	bl _Znwj
.LVL115:
	cmpwi 7,30,0
	li 0,0
	beq- 7,.L93
	.loc 1 1748 0 is_stmt 0 discriminator 1
	addi 0,30,-188
.L93:
.LVL116:
	.loc 1 1748 0 discriminator 3
	lwz 11,8(31)
.LVL117:
.LBB2532:
.LBB2533:
	.loc 1 1730 0 is_stmt 1 discriminator 3
	lis 10,_ZTVN7sigslot12_connection2I11MusicPlayerP8PlayListiNS_15single_threadedEEE+8@ha
.LBE2533:
.LBE2532:
	.loc 1 1748 0 discriminator 3
	lwz 9,12(31)
.LVL118:
.LBB2536:
.LBB2534:
	.loc 1 1730 0 discriminator 3
	la 10,_ZTVN7sigslot12_connection2I11MusicPlayerP8PlayListiNS_15single_threadedEEE+8@l(10)
	.loc 1 1732 0 discriminator 3
	stw 11,8(3)
	stw 9,12(3)
	.loc 1 1731 0 discriminator 3
	stw 0,4(3)
.LBE2534:
.LBE2536:
	.loc 1 1749 0 discriminator 3
	lwz 0,20(1)
.LVL119:
	lwz 30,8(1)
.LVL120:
	mtlr 0
	lwz 31,12(1)
.LVL121:
.LBB2537:
.LBB2535:
	.loc 1 1730 0 discriminator 3
	stw 10,0(3)
.LBE2535:
.LBE2537:
	.loc 1 1749 0 discriminator 3
	addi 1,1,16
.LCFI31:
	.cfi_def_cfa_offset 0
	.cfi_restore 31
	.cfi_restore 30
	blr
	.cfi_endproc
.LFE2154:
	.size	_ZN7sigslot12_connection2I11MusicPlayerP8PlayListiNS_15single_threadedEE9duplicateEPNS_9has_slotsIS4_EE, .-_ZN7sigslot12_connection2I11MusicPlayerP8PlayListiNS_15single_threadedEE9duplicateEPNS_9has_slotsIS4_EE
	.section	.text._ZN7sigslot12_connection3I11MusicPlayerP9GuiButtoniRK6_POINTNS_15single_threadedEE9duplicateEPNS_9has_slotsIS7_EE,"axG",@progbits,_ZN7sigslot12_connection3I11MusicPlayerP9GuiButtoniRK6_POINTNS_15single_threadedEE9duplicateEPNS_9has_slotsIS7_EE,comdat
	.align 2
	.weak	_ZN7sigslot12_connection3I11MusicPlayerP9GuiButtoniRK6_POINTNS_15single_threadedEE9duplicateEPNS_9has_slotsIS7_EE
	.type	_ZN7sigslot12_connection3I11MusicPlayerP9GuiButtoniRK6_POINTNS_15single_threadedEE9duplicateEPNS_9has_slotsIS7_EE, @function
_ZN7sigslot12_connection3I11MusicPlayerP9GuiButtoniRK6_POINTNS_15single_threadedEE9duplicateEPNS_9has_slotsIS7_EE:
.LFB2140:
	.loc 1 1794 0
	.cfi_startproc
.LVL122:
	stwu 1,-16(1)
.LCFI32:
	.cfi_def_cfa_offset 16
	mflr 0
	stw 30,8(1)
	mr 30,4
	.cfi_offset 30, -8
	.cfi_register 65, 0
	stw 31,12(1)
	mr 31,3
	.cfi_offset 31, -4
	.loc 1 1796 0
	li 3,16
.LVL123:
	.loc 1 1794 0
	stw 0,20(1)
	.loc 1 1796 0
	.cfi_offset 65, 4
	bl _Znwj
.LVL124:
	cmpwi 7,30,0
	li 0,0
	beq- 7,.L96
	.loc 1 1796 0 is_stmt 0 discriminator 1
	addi 0,30,-188
.L96:
.LVL125:
	.loc 1 1796 0 discriminator 3
	lwz 11,8(31)
.LVL126:
.LBB2538:
.LBB2539:
	.loc 1 1778 0 is_stmt 1 discriminator 3
	lis 10,_ZTVN7sigslot12_connection3I11MusicPlayerP9GuiButtoniRK6_POINTNS_15single_threadedEEE+8@ha
.LBE2539:
.LBE2538:
	.loc 1 1796 0 discriminator 3
	lwz 9,12(31)
.LVL127:
.LBB2542:
.LBB2540:
	.loc 1 1778 0 discriminator 3
	la 10,_ZTVN7sigslot12_connection3I11MusicPlayerP9GuiButtoniRK6_POINTNS_15single_threadedEEE+8@l(10)
	.loc 1 1780 0 discriminator 3
	stw 11,8(3)
	stw 9,12(3)
	.loc 1 1779 0 discriminator 3
	stw 0,4(3)
.LBE2540:
.LBE2542:
	.loc 1 1797 0 discriminator 3
	lwz 0,20(1)
.LVL128:
	lwz 30,8(1)
.LVL129:
	mtlr 0
	lwz 31,12(1)
.LVL130:
.LBB2543:
.LBB2541:
	.loc 1 1778 0 discriminator 3
	stw 10,0(3)
.LBE2541:
.LBE2543:
	.loc 1 1797 0 discriminator 3
	addi 1,1,16
.LCFI33:
	.cfi_def_cfa_offset 0
	.cfi_restore 31
	.cfi_restore 30
	blr
	.cfi_endproc
.LFE2140:
	.size	_ZN7sigslot12_connection3I11MusicPlayerP9GuiButtoniRK6_POINTNS_15single_threadedEE9duplicateEPNS_9has_slotsIS7_EE, .-_ZN7sigslot12_connection3I11MusicPlayerP9GuiButtoniRK6_POINTNS_15single_threadedEE9duplicateEPNS_9has_slotsIS7_EE
	.section	.text._ZN7sigslot12_connection3I11MusicPlayerP9GuiButtoniRK6_POINTNS_15single_threadedEE5cloneEv,"axG",@progbits,_ZN7sigslot12_connection3I11MusicPlayerP9GuiButtoniRK6_POINTNS_15single_threadedEE5cloneEv,comdat
	.align 2
	.weak	_ZN7sigslot12_connection3I11MusicPlayerP9GuiButtoniRK6_POINTNS_15single_threadedEE5cloneEv
	.type	_ZN7sigslot12_connection3I11MusicPlayerP9GuiButtoniRK6_POINTNS_15single_threadedEE5cloneEv, @function
_ZN7sigslot12_connection3I11MusicPlayerP9GuiButtoniRK6_POINTNS_15single_threadedEE5cloneEv:
.LFB2133:
	.loc 1 1789 0
	.cfi_startproc
.LVL131:
	stwu 1,-16(1)
.LCFI34:
	.cfi_def_cfa_offset 16
	mflr 0
	stw 31,12(1)
	mr 31,3
	.cfi_offset 31, -4
	.cfi_register 65, 0
	.loc 1 1791 0
	li 3,16
.LVL132:
	.loc 1 1789 0
	stw 0,20(1)
	.loc 1 1791 0
	.cfi_offset 65, 4
	bl _Znwj
	.file 5 "d:/Projects/SaveGameManager/savegame-manager-gx/trunk/source/SoundOperations/MusicPlayer.cpp"
	.loc 5 502 0
	lwz 0,4(31)
.LVL133:
.LBB2544:
.LBB2545:
	.loc 1 1767 0
	lis 11,_ZTVN7sigslot12_connection3I11MusicPlayerP9GuiButtoniRK6_POINTNS_15single_threadedEEE+8@ha
	la 11,_ZTVN7sigslot12_connection3I11MusicPlayerP9GuiButtoniRK6_POINTNS_15single_threadedEEE+8@l(11)
	stw 0,4(3)
	stw 11,0(3)
	lwz 10,8(31)
	lwz 11,12(31)
	stw 10,8(3)
	stw 11,12(3)
.LBE2545:
.LBE2544:
	.loc 1 1792 0
	lwz 0,20(1)
	lwz 31,12(1)
.LVL134:
	mtlr 0
	addi 1,1,16
.LCFI35:
	.cfi_def_cfa_offset 0
	.cfi_restore 31
	blr
	.cfi_endproc
.LFE2133:
	.size	_ZN7sigslot12_connection3I11MusicPlayerP9GuiButtoniRK6_POINTNS_15single_threadedEE5cloneEv, .-_ZN7sigslot12_connection3I11MusicPlayerP9GuiButtoniRK6_POINTNS_15single_threadedEE5cloneEv
	.section	.text._ZN7sigslot12_connection2I11MusicPlayerP8PlayListiNS_15single_threadedEE5cloneEv,"axG",@progbits,_ZN7sigslot12_connection2I11MusicPlayerP8PlayListiNS_15single_threadedEE5cloneEv,comdat
	.align 2
	.weak	_ZN7sigslot12_connection2I11MusicPlayerP8PlayListiNS_15single_threadedEE5cloneEv
	.type	_ZN7sigslot12_connection2I11MusicPlayerP8PlayListiNS_15single_threadedEE5cloneEv, @function
_ZN7sigslot12_connection2I11MusicPlayerP8PlayListiNS_15single_threadedEE5cloneEv:
.LFB2147:
	.loc 1 1741 0
	.cfi_startproc
.LVL135:
	stwu 1,-16(1)
.LCFI36:
	.cfi_def_cfa_offset 16
	mflr 0
	stw 31,12(1)
	mr 31,3
	.cfi_offset 31, -4
	.cfi_register 65, 0
	.loc 1 1743 0
	li 3,16
.LVL136:
	.loc 1 1741 0
	stw 0,20(1)
	.loc 1 1743 0
	.cfi_offset 65, 4
	bl _Znwj
	.loc 5 502 0
	lwz 0,4(31)
.LVL137:
.LBB2546:
.LBB2547:
	.loc 1 1719 0
	lis 11,_ZTVN7sigslot12_connection2I11MusicPlayerP8PlayListiNS_15single_threadedEEE+8@ha
	la 11,_ZTVN7sigslot12_connection2I11MusicPlayerP8PlayListiNS_15single_threadedEEE+8@l(11)
	stw 0,4(3)
	stw 11,0(3)
	lwz 10,8(31)
	lwz 11,12(31)
	stw 10,8(3)
	stw 11,12(3)
.LBE2547:
.LBE2546:
	.loc 1 1744 0
	lwz 0,20(1)
	lwz 31,12(1)
.LVL138:
	mtlr 0
	addi 1,1,16
.LCFI37:
	.cfi_def_cfa_offset 0
	.cfi_restore 31
	blr
	.cfi_endproc
.LFE2147:
	.size	_ZN7sigslot12_connection2I11MusicPlayerP8PlayListiNS_15single_threadedEE5cloneEv, .-_ZN7sigslot12_connection2I11MusicPlayerP8PlayListiNS_15single_threadedEE5cloneEv
	.section	.text._ZN7sigslot12_connection2I11MusicPlayerP8PlayListiNS_15single_threadedEED0Ev,"axG",@progbits,_ZN7sigslot12_connection2I11MusicPlayerP8PlayListiNS_15single_threadedEED5Ev,comdat
	.align 2
	.weak	_ZN7sigslot12_connection2I11MusicPlayerP8PlayListiNS_15single_threadedEED0Ev
	.type	_ZN7sigslot12_connection2I11MusicPlayerP8PlayListiNS_15single_threadedEED0Ev, @function
_ZN7sigslot12_connection2I11MusicPlayerP8PlayListiNS_15single_threadedEED0Ev:
.LFB2144:
	.loc 1 1735 0
	.cfi_startproc
.LVL139:
	mflr 0
	stwu 1,-8(1)
.LCFI38:
	.cfi_def_cfa_offset 8
	.cfi_register 65, 0
.LBB2548:
.LBB2549:
.LBB2550:
.LBB2551:
.LBB2552:
.LBB2553:
	.loc 1 376 0
	lis 9,_ZTVN7sigslot17_connection_base2IP8PlayListiNS_15single_threadedEEE+8@ha
.LBE2553:
.LBE2552:
.LBE2551:
.LBE2550:
.LBE2549:
.LBE2548:
	.loc 1 1735 0
	stw 0,12(1)
.LBB2559:
.LBB2558:
.LBB2557:
.LBB2556:
.LBB2555:
.LBB2554:
	.loc 1 376 0
	la 0,_ZTVN7sigslot17_connection_base2IP8PlayListiNS_15single_threadedEEE+8@l(9)
	.cfi_offset 65, 4
	stw 0,0(3)
.LBE2554:
.LBE2555:
.LBE2556:
.LBE2557:
.LBE2558:
.LBE2559:
	.loc 1 1738 0
	bl _ZdlPv
.LVL140:
	lwz 0,12(1)
	addi 1,1,8
.LCFI39:
	.cfi_def_cfa_offset 0
	mtlr 0
	blr
	.cfi_endproc
.LFE2144:
	.size	_ZN7sigslot12_connection2I11MusicPlayerP8PlayListiNS_15single_threadedEED0Ev, .-_ZN7sigslot12_connection2I11MusicPlayerP8PlayListiNS_15single_threadedEED0Ev
	.section	.text._ZN7sigslot12_connection3I11MusicPlayerP9GuiButtoniRK6_POINTNS_15single_threadedEED0Ev,"axG",@progbits,_ZN7sigslot12_connection3I11MusicPlayerP9GuiButtoniRK6_POINTNS_15single_threadedEED5Ev,comdat
	.align 2
	.weak	_ZN7sigslot12_connection3I11MusicPlayerP9GuiButtoniRK6_POINTNS_15single_threadedEED0Ev
	.type	_ZN7sigslot12_connection3I11MusicPlayerP9GuiButtoniRK6_POINTNS_15single_threadedEED0Ev, @function
_ZN7sigslot12_connection3I11MusicPlayerP9GuiButtoniRK6_POINTNS_15single_threadedEED0Ev:
.LFB2130:
	.loc 1 1783 0
	.cfi_startproc
.LVL141:
	mflr 0
	stwu 1,-8(1)
.LCFI40:
	.cfi_def_cfa_offset 8
	.cfi_register 65, 0
.LBB2560:
.LBB2561:
.LBB2562:
.LBB2563:
.LBB2564:
.LBB2565:
	.loc 1 387 0
	lis 9,_ZTVN7sigslot17_connection_base3IP9GuiButtoniRK6_POINTNS_15single_threadedEEE+8@ha
.LBE2565:
.LBE2564:
.LBE2563:
.LBE2562:
.LBE2561:
.LBE2560:
	.loc 1 1783 0
	stw 0,12(1)
.LBB2571:
.LBB2570:
.LBB2569:
.LBB2568:
.LBB2567:
.LBB2566:
	.loc 1 387 0
	la 0,_ZTVN7sigslot17_connection_base3IP9GuiButtoniRK6_POINTNS_15single_threadedEEE+8@l(9)
	.cfi_offset 65, 4
	stw 0,0(3)
.LBE2566:
.LBE2567:
.LBE2568:
.LBE2569:
.LBE2570:
.LBE2571:
	.loc 1 1786 0
	bl _ZdlPv
.LVL142:
	lwz 0,12(1)
	addi 1,1,8
.LCFI41:
	.cfi_def_cfa_offset 0
	mtlr 0
	blr
	.cfi_endproc
.LFE2130:
	.size	_ZN7sigslot12_connection3I11MusicPlayerP9GuiButtoniRK6_POINTNS_15single_threadedEED0Ev, .-_ZN7sigslot12_connection3I11MusicPlayerP9GuiButtoniRK6_POINTNS_15single_threadedEED0Ev
	.section	.text._ZN7sigslot17_connection_base3IP9GuiButtoniRK6_POINTNS_15single_threadedEED0Ev,"axG",@progbits,_ZN7sigslot17_connection_base3IP9GuiButtoniRK6_POINTNS_15single_threadedEED5Ev,comdat
	.align 2
	.weak	_ZN7sigslot17_connection_base3IP9GuiButtoniRK6_POINTNS_15single_threadedEED0Ev
	.type	_ZN7sigslot17_connection_base3IP9GuiButtoniRK6_POINTNS_15single_threadedEED0Ev, @function
_ZN7sigslot17_connection_base3IP9GuiButtoniRK6_POINTNS_15single_threadedEED0Ev:
.LFB1850:
	.loc 1 387 0
	.cfi_startproc
.LVL143:
	mflr 0
	stwu 1,-8(1)
.LCFI42:
	.cfi_def_cfa_offset 8
	.cfi_register 65, 0
.LBB2572:
.LBB2573:
.LBB2574:
	lis 9,_ZTVN7sigslot17_connection_base3IP9GuiButtoniRK6_POINTNS_15single_threadedEEE+8@ha
.LBE2574:
.LBE2573:
.LBE2572:
	stw 0,12(1)
.LBB2577:
.LBB2576:
.LBB2575:
	.loc 1 387 0
	la 0,_ZTVN7sigslot17_connection_base3IP9GuiButtoniRK6_POINTNS_15single_threadedEEE+8@l(9)
	.cfi_offset 65, 4
	stw 0,0(3)
.LBE2575:
.LBE2576:
.LBE2577:
	bl _ZdlPv
.LVL144:
	lwz 0,12(1)
	addi 1,1,8
.LCFI43:
	.cfi_def_cfa_offset 0
	mtlr 0
	blr
	.cfi_endproc
.LFE1850:
	.size	_ZN7sigslot17_connection_base3IP9GuiButtoniRK6_POINTNS_15single_threadedEED0Ev, .-_ZN7sigslot17_connection_base3IP9GuiButtoniRK6_POINTNS_15single_threadedEED0Ev
	.section	.text._ZN7sigslot17_connection_base2IP8PlayListiNS_15single_threadedEED0Ev,"axG",@progbits,_ZN7sigslot17_connection_base2IP8PlayListiNS_15single_threadedEED5Ev,comdat
	.align 2
	.weak	_ZN7sigslot17_connection_base2IP8PlayListiNS_15single_threadedEED0Ev
	.type	_ZN7sigslot17_connection_base2IP8PlayListiNS_15single_threadedEED0Ev, @function
_ZN7sigslot17_connection_base2IP8PlayListiNS_15single_threadedEED0Ev:
.LFB1843:
	.loc 1 376 0
	.cfi_startproc
.LVL145:
	mflr 0
	stwu 1,-8(1)
.LCFI44:
	.cfi_def_cfa_offset 8
	.cfi_register 65, 0
.LBB2578:
.LBB2579:
.LBB2580:
	lis 9,_ZTVN7sigslot17_connection_base2IP8PlayListiNS_15single_threadedEEE+8@ha
.LBE2580:
.LBE2579:
.LBE2578:
	stw 0,12(1)
.LBB2583:
.LBB2582:
.LBB2581:
	.loc 1 376 0
	la 0,_ZTVN7sigslot17_connection_base2IP8PlayListiNS_15single_threadedEEE+8@l(9)
	.cfi_offset 65, 4
	stw 0,0(3)
.LBE2581:
.LBE2582:
.LBE2583:
	bl _ZdlPv
.LVL146:
	lwz 0,12(1)
	addi 1,1,8
.LCFI45:
	.cfi_def_cfa_offset 0
	mtlr 0
	blr
	.cfi_endproc
.LFE1843:
	.size	_ZN7sigslot17_connection_base2IP8PlayListiNS_15single_threadedEED0Ev, .-_ZN7sigslot17_connection_base2IP8PlayListiNS_15single_threadedEED0Ev
	.section	.text._ZN7sigslot15single_threadedD0Ev,"axG",@progbits,_ZN7sigslot15single_threadedD5Ev,comdat
	.align 2
	.weak	_ZN7sigslot15single_threadedD0Ev
	.type	_ZN7sigslot15single_threadedD0Ev, @function
_ZN7sigslot15single_threadedD0Ev:
.LFB1150:
	.loc 1 104 0
	.cfi_startproc
.LVL147:
	mflr 0
	stwu 1,-8(1)
.LCFI46:
	.cfi_def_cfa_offset 8
	.cfi_register 65, 0
.LBB2584:
.LBB2585:
.LBB2586:
	.loc 1 105 0
	lis 9,_ZTVN7sigslot15single_threadedE+8@ha
.LBE2586:
.LBE2585:
.LBE2584:
	.loc 1 104 0
	stw 0,12(1)
.LBB2589:
.LBB2588:
.LBB2587:
	.loc 1 105 0
	la 0,_ZTVN7sigslot15single_threadedE+8@l(9)
	.cfi_offset 65, 4
	stw 0,0(3)
.LBE2587:
.LBE2588:
.LBE2589:
	.loc 1 107 0
	bl _ZdlPv
.LVL148:
	lwz 0,12(1)
	addi 1,1,8
.LCFI47:
	.cfi_def_cfa_offset 0
	mtlr 0
	blr
	.cfi_endproc
.LFE1150:
	.size	_ZN7sigslot15single_threadedD0Ev, .-_ZN7sigslot15single_threadedD0Ev
	.section	".text"
	.align 2
	.globl _ZN11MusicPlayer4DrawEv
	.type	_ZN11MusicPlayer4DrawEv, @function
_ZN11MusicPlayer4DrawEv:
.LFB1636:
	.loc 5 493 0
	.cfi_startproc
.LVL149:
	mflr 0
	stwu 1,-16(1)
.LCFI48:
	.cfi_def_cfa_offset 16
	.cfi_register 65, 0
	stw 31,12(1)
	mr 31,3
	.cfi_offset 31, -4
	stw 0,20(1)
	.loc 5 494 0
	lwz 9,252(3)
	cmpwi 7,9,0
	ble- 7,.L118
	.cfi_offset 65, 4
	.loc 5 496 0
	addi 9,9,-1
	.loc 5 497 0
	cmpwi 7,9,0
	.loc 5 496 0
	stw 9,252(3)
	.loc 5 497 0
	bne- 7,.L118
	.loc 5 497 0 is_stmt 0 discriminator 1
	lwz 3,596(3)
.LVL150:
	cmpwi 7,3,0
	beq- 7,.L118
	.loc 5 498 0 is_stmt 1
	lwz 4,572(31)
	bl _ZN8GuiImage8SetImageEP12GuiImageData
.L118:
	.loc 5 501 0
	mr 3,31
	bl _ZN8GuiFrame4DrawEv
	.loc 5 502 0
	lwz 0,20(1)
	lwz 31,12(1)
.LVL151:
	mtlr 0
	addi 1,1,16
.LCFI49:
	.cfi_def_cfa_offset 0
	.cfi_restore 31
	blr
	.cfi_endproc
.LFE1636:
	.size	_ZN11MusicPlayer4DrawEv, .-_ZN11MusicPlayer4DrawEv
	.section	.text._ZN16SimpleGuiTriggerD2Ev,"axG",@progbits,_ZN16SimpleGuiTriggerD5Ev,comdat
	.align 2
	.weak	_ZN16SimpleGuiTriggerD2Ev
	.type	_ZN16SimpleGuiTriggerD2Ev, @function
_ZN16SimpleGuiTriggerD2Ev:
.LFB1629:
	.file 6 "d:/Projects/SaveGameManager/savegame-manager-gx/trunk/source/SoundOperations/../Controls/../GUI/gui_trigger.h"
	.loc 6 91 0
	.cfi_startproc
.LVL152:
	mflr 0
	stwu 1,-8(1)
.LCFI50:
	.cfi_def_cfa_offset 8
	.cfi_register 65, 0
.LBB2591:
	lis 9,_ZTV16SimpleGuiTrigger+8@ha
.LBE2591:
	stw 0,12(1)
.LBB2592:
	.loc 6 91 0
	la 0,_ZTV16SimpleGuiTrigger+8@l(9)
	.cfi_offset 65, 4
	stw 0,0(3)
	bl _ZN10GuiTriggerD2Ev
.LVL153:
.LBE2592:
	lwz 0,12(1)
	addi 1,1,8
.LCFI51:
	.cfi_def_cfa_offset 0
	mtlr 0
	blr
	.cfi_endproc
.LFE1629:
	.size	_ZN16SimpleGuiTriggerD2Ev, .-_ZN16SimpleGuiTriggerD2Ev
	.section	".text"
	.align 2
	.globl _ZN11MusicPlayer16OnTitleListClickEP8PlayListi
	.type	_ZN11MusicPlayer16OnTitleListClickEP8PlayListi, @function
_ZN11MusicPlayer16OnTitleListClickEP8PlayListi:
.LFB1633:
	.loc 5 364 0
	.cfi_startproc
.LVL154:
	mflr 0
	stwu 1,-8(1)
.LCFI52:
	.cfi_def_cfa_offset 8
	.cfi_register 65, 0
.LBB2593:
	.loc 5 365 0
	mr 3,4
.LVL155:
	mr 4,5
.LVL156:
.LBE2593:
	.loc 5 364 0
	stw 0,12(1)
.LBB2594:
	.loc 5 365 0
	.cfi_offset 65, 4
	bl _ZN8PlayList2atEi
.LVL157:
.LBE2594:
	.loc 5 383 0
	lwz 0,12(1)
	addi 1,1,8
.LCFI53:
	.cfi_def_cfa_offset 0
	mtlr 0
	blr
	.cfi_endproc
.LFE1633:
	.size	_ZN11MusicPlayer16OnTitleListClickEP8PlayListi, .-_ZN11MusicPlayer16OnTitleListClickEP8PlayListi
	.section	.text._ZN6Thread14shutdownThreadEv,"axG",@progbits,_ZN6Thread14shutdownThreadEv,comdat
	.align 2
	.weak	_ZN6Thread14shutdownThreadEv
	.type	_ZN6Thread14shutdownThreadEv, @function
_ZN6Thread14shutdownThreadEv:
.LFB1587:
	.loc 4 62 0
	.cfi_startproc
.LVL158:
	mflr 0
	stwu 1,-16(1)
.LCFI54:
	.cfi_def_cfa_offset 16
	.cfi_register 65, 0
	stw 31,12(1)
	mr 31,3
	.cfi_offset 31, -4
	stw 0,20(1)
	.loc 4 65 0
	lwz 0,4(3)
	.cfi_offset 65, 4
	cmpwi 7,0,-1
	beq- 7,.L123
	.loc 4 67 0
	lwz 9,0(3)
	lwz 0,24(9)
	mtctr 0
	bctrl
.LVL159:
	.loc 4 68 0
	lwz 3,4(31)
	li 4,0
	bl LWP_JoinThread
.L123:
	.loc 4 71 0
	lwz 3,8(31)
	cmpwi 7,3,0
	beq- 7,.L124
	.loc 4 72 0
	bl free
.L124:
	.loc 4 74 0
	li 0,-1
	stw 0,4(31)
	.loc 4 75 0
	li 0,0
	stw 0,8(31)
	.loc 4 76 0
	lwz 0,20(1)
	lwz 31,12(1)
.LVL160:
	mtlr 0
	addi 1,1,16
.LCFI55:
	.cfi_def_cfa_offset 0
	.cfi_restore 31
	blr
	.cfi_endproc
.LFE1587:
	.size	_ZN6Thread14shutdownThreadEv, .-_ZN6Thread14shutdownThreadEv
	.section	.text._ZN6Thread17setThreadPriorityEi,"axG",@progbits,_ZN6Thread17setThreadPriorityEi,comdat
	.align 2
	.weak	_ZN6Thread17setThreadPriorityEi
	.type	_ZN6Thread17setThreadPriorityEi, @function
_ZN6Thread17setThreadPriorityEi:
.LFB1585:
	.loc 4 58 0
	.cfi_startproc
.LVL161:
	mflr 0
	stwu 1,-8(1)
.LCFI56:
	.cfi_def_cfa_offset 8
	.cfi_register 65, 0
	stw 0,12(1)
	.loc 4 58 0
	lwz 3,4(3)
.LVL162:
	cmpwi 7,3,-1
	beq- 7,.L125
	.cfi_offset 65, 4
	.loc 4 58 0 is_stmt 0 discriminator 1
	bl LWP_SetThreadPriority
.LVL163:
.L125:
	.loc 4 58 0
	lwz 0,12(1)
	addi 1,1,8
.LCFI57:
	.cfi_def_cfa_offset 0
	mtlr 0
	blr
	.cfi_endproc
.LFE1585:
	.size	_ZN6Thread17setThreadPriorityEi, .-_ZN6Thread17setThreadPriorityEi
	.section	.text._ZNK6Thread15isThreadRunningEv,"axG",@progbits,_ZNK6Thread15isThreadRunningEv,comdat
	.align 2
	.weak	_ZNK6Thread15isThreadRunningEv
	.type	_ZNK6Thread15isThreadRunningEv, @function
_ZNK6Thread15isThreadRunningEv:
.LFB1586:
	.loc 4 60 0 is_stmt 1
	.cfi_startproc
.LVL164:
	mflr 0
	stwu 1,-8(1)
.LCFI58:
	.cfi_def_cfa_offset 8
	.cfi_register 65, 0
	stw 0,12(1)
	.loc 4 60 0
	lwz 0,4(3)
	.cfi_offset 65, 4
	li 3,0
.LVL165:
	cmpwi 7,0,-1
	beq- 7,.L128
.LBB2597:
.LBB2598:
	mr 3,0
	bl LWP_ThreadIsSuspended
	cntlzw 3,3
	srwi 3,3,5
.L128:
.LBE2598:
.LBE2597:
	lwz 0,12(1)
	addi 1,1,8
.LCFI59:
	.cfi_def_cfa_offset 0
	mtlr 0
	blr
	.cfi_endproc
.LFE1586:
	.size	_ZNK6Thread15isThreadRunningEv, .-_ZNK6Thread15isThreadRunningEv
	.section	.text._ZN6Thread12resumeThreadEv,"axG",@progbits,_ZN6Thread12resumeThreadEv,comdat
	.align 2
	.weak	_ZN6Thread12resumeThreadEv
	.type	_ZN6Thread12resumeThreadEv, @function
_ZN6Thread12resumeThreadEv:
.LFB1584:
	.loc 4 56 0
	.cfi_startproc
.LVL166:
	mflr 0
	stwu 1,-8(1)
.LCFI60:
	.cfi_def_cfa_offset 8
	.cfi_register 65, 0
	stw 0,12(1)
	.loc 4 56 0
	lwz 3,4(3)
.LVL167:
	cmpwi 7,3,-1
	beq- 7,.L130
	.cfi_offset 65, 4
.LBB2601:
.LBB2602:
	bl LWP_ResumeThread
.L130:
.LBE2602:
.LBE2601:
	lwz 0,12(1)
	addi 1,1,8
.LCFI61:
	.cfi_def_cfa_offset 0
	mtlr 0
	blr
	.cfi_endproc
.LFE1584:
	.size	_ZN6Thread12resumeThreadEv, .-_ZN6Thread12resumeThreadEv
	.section	.text._ZN6Thread13suspendThreadEv,"axG",@progbits,_ZN6Thread13suspendThreadEv,comdat
	.align 2
	.weak	_ZN6Thread13suspendThreadEv
	.type	_ZN6Thread13suspendThreadEv, @function
_ZN6Thread13suspendThreadEv:
.LFB1583:
	.loc 4 54 0
	.cfi_startproc
.LVL168:
	mflr 0
	stwu 1,-8(1)
.LCFI62:
	.cfi_def_cfa_offset 8
	.cfi_register 65, 0
	stw 0,12(1)
	.loc 4 54 0
	lwz 3,4(3)
.LVL169:
	cmpwi 7,3,-1
	beq- 7,.L132
	.cfi_offset 65, 4
.LBB2605:
.LBB2606:
	bl LWP_SuspendThread
.L132:
.LBE2606:
.LBE2605:
	lwz 0,12(1)
	addi 1,1,8
.LCFI63:
	.cfi_def_cfa_offset 0
	mtlr 0
	blr
	.cfi_endproc
.LFE1583:
	.size	_ZN6Thread13suspendThreadEv, .-_ZN6Thread13suspendThreadEv
	.section	.text._ZN16SimpleGuiTriggerD0Ev,"axG",@progbits,_ZN16SimpleGuiTriggerD5Ev,comdat
	.align 2
	.weak	_ZN16SimpleGuiTriggerD0Ev
	.type	_ZN16SimpleGuiTriggerD0Ev, @function
_ZN16SimpleGuiTriggerD0Ev:
.LFB1631:
	.loc 6 91 0
	.cfi_startproc
.LVL170:
	mflr 0
	stwu 1,-16(1)
.LCFI64:
	.cfi_def_cfa_offset 16
	.cfi_register 65, 0
.LBB2610:
.LBB2611:
.LBB2612:
	lis 9,_ZTV16SimpleGuiTrigger+8@ha
.LBE2612:
.LBE2611:
.LBE2610:
	stw 31,12(1)
	mr 31,3
	.cfi_offset 31, -4
.LVL171:
	stw 0,20(1)
.LBB2615:
.LBB2614:
.LBB2613:
	.loc 6 91 0
	la 0,_ZTV16SimpleGuiTrigger+8@l(9)
	.cfi_offset 65, 4
	stw 0,0(3)
	bl _ZN10GuiTriggerD2Ev
.LVL172:
.LBE2613:
.LBE2614:
.LBE2615:
	mr 3,31
	bl _ZdlPv
	lwz 0,20(1)
	lwz 31,12(1)
.LVL173:
	mtlr 0
	addi 1,1,16
.LCFI65:
	.cfi_def_cfa_offset 0
	.cfi_restore 31
	blr
	.cfi_endproc
.LFE1631:
	.size	_ZN16SimpleGuiTriggerD0Ev, .-_ZN16SimpleGuiTriggerD0Ev
	.section	.text._ZN6ThreadD2Ev,"axG",@progbits,_ZN6ThreadD5Ev,comdat
	.align 2
	.weak	_ZN6ThreadD2Ev
	.type	_ZN6ThreadD2Ev, @function
_ZN6ThreadD2Ev:
.LFB1578:
	.loc 4 45 0
	.cfi_startproc
.LVL174:
	mflr 0
	stwu 1,-16(1)
.LCFI66:
	.cfi_def_cfa_offset 16
	.cfi_register 65, 0
.LBB2619:
	lis 9,_ZTV6Thread+8@ha
.LBE2619:
	stw 31,12(1)
	mr 31,3
	.cfi_offset 31, -4
	stw 0,20(1)
.LBB2624:
.LBB2620:
.LBB2621:
	.loc 4 65 0
	lwz 0,4(3)
	.cfi_offset 65, 4
	cmpwi 7,0,-1
.LBE2621:
.LBE2620:
	.loc 4 45 0
	la 0,_ZTV6Thread+8@l(9)
	stw 0,0(3)
.LVL175:
.LBB2623:
.LBB2622:
	.loc 4 65 0
	beq- 7,.L138
.LVL176:
	.loc 4 67 0
	bl _ZN6Thread12resumeThreadEv
.LVL177:
	.loc 4 68 0
	lwz 3,4(31)
	li 4,0
	bl LWP_JoinThread
.L138:
	.loc 4 71 0
	lwz 3,8(31)
	cmpwi 7,3,0
	beq- 7,.L139
	.loc 4 72 0
	bl free
.L139:
	.loc 4 74 0
	li 0,-1
	stw 0,4(31)
	.loc 4 75 0
	li 0,0
	stw 0,8(31)
.LBE2622:
.LBE2623:
.LBE2624:
	.loc 4 45 0
	lwz 0,20(1)
	lwz 31,12(1)
.LVL178:
	mtlr 0
	addi 1,1,16
.LCFI67:
	.cfi_def_cfa_offset 0
	.cfi_restore 31
	blr
	.cfi_endproc
.LFE1578:
	.size	_ZN6ThreadD2Ev, .-_ZN6ThreadD2Ev
	.section	.text._ZN6ThreadD0Ev,"axG",@progbits,_ZN6ThreadD5Ev,comdat
	.align 2
	.weak	_ZN6ThreadD0Ev
	.type	_ZN6ThreadD0Ev, @function
_ZN6ThreadD0Ev:
.LFB1580:
	.loc 4 45 0
	.cfi_startproc
.LVL179:
	mflr 0
	stwu 1,-16(1)
.LCFI68:
	.cfi_def_cfa_offset 16
	.cfi_register 65, 0
.LBB2630:
.LBB2631:
.LBB2632:
	lis 9,_ZTV6Thread+8@ha
.LBE2632:
.LBE2631:
.LBE2630:
	stw 31,12(1)
	mr 31,3
	.cfi_offset 31, -4
.LVL180:
	stw 0,20(1)
.LBB2643:
.LBB2641:
.LBB2639:
.LBB2633:
.LBB2634:
	.loc 4 65 0
	lwz 0,4(3)
	.cfi_offset 65, 4
	cmpwi 7,0,-1
.LBE2634:
.LBE2633:
	.loc 4 45 0
	la 0,_ZTV6Thread+8@l(9)
	stw 0,0(3)
.LVL181:
.LBB2637:
.LBB2635:
	.loc 4 65 0
	beq- 7,.L142
.LVL182:
	.loc 4 67 0
	bl _ZN6Thread12resumeThreadEv
.LVL183:
	.loc 4 68 0
	lwz 3,4(31)
	li 4,0
	bl LWP_JoinThread
.L142:
	.loc 4 71 0
	lwz 3,8(31)
	cmpwi 7,3,0
	beq- 7,.L143
	.loc 4 72 0
	bl free
.L143:
	.loc 4 74 0
	li 0,-1
.LBE2635:
.LBE2637:
.LBE2639:
.LBE2641:
.LBE2643:
	.loc 4 45 0
	mr 3,31
.LBB2644:
.LBB2642:
.LBB2640:
.LBB2638:
.LBB2636:
	.loc 4 74 0
	stw 0,4(31)
	.loc 4 75 0
	li 0,0
	stw 0,8(31)
.LBE2636:
.LBE2638:
.LBE2640:
.LBE2642:
.LBE2644:
	.loc 4 45 0
	bl _ZdlPv
	lwz 0,20(1)
	lwz 31,12(1)
.LVL184:
	mtlr 0
	addi 1,1,16
.LCFI69:
	.cfi_def_cfa_offset 0
	.cfi_restore 31
	blr
	.cfi_endproc
.LFE1580:
	.size	_ZN6ThreadD0Ev, .-_ZN6ThreadD0Ev
	.section	".text"
	.align 2
	.globl _ZN11MusicPlayer12LoadStandardEv
	.type	_ZN11MusicPlayer12LoadStandardEv, @function
_ZN11MusicPlayer12LoadStandardEv:
.LFB1616:
	.loc 5 100 0
	.cfi_startproc
.LVL185:
	mflr 0
	stwu 1,-16(1)
.LCFI70:
	.cfi_def_cfa_offset 16
	.cfi_register 65, 0
	.loc 5 101 0
	lis 9,Settings@ha
	la 9,Settings@l(9)
	.loc 5 100 0
	stw 30,8(1)
	stw 0,20(1)
	.loc 5 101 0
	li 0,0
	.cfi_offset 65, 4
	.cfi_offset 30, -8
	.loc 5 100 0
	stw 31,12(1)
	.loc 5 100 0
	mr 31,3
	.cfi_offset 31, -4
	.loc 5 101 0
	stb 0,994(9)
	.loc 5 103 0
	li 0,-1
	stw 0,248(3)
	.loc 5 105 0
	lis 3,.LC4@ha
.LVL186:
	la 3,.LC4@l(3)
	bl gettext
	mr 30,3
.LVL187:
.LBB2652:
.LBB2653:
.LBB2654:
.LBB2655:
	.file 7 "d:\\devkitpro\\devkitppc\\bin\\../lib/gcc/powerpc-eabi/4.6.3/../../../../powerpc-eabi/include/c++/4.6.3/bits/char_traits.h"
	.loc 7 261 0
	bl strlen
.LVL188:
	mr 5,3
.LBE2655:
.LBE2654:
	.file 8 "d:\\devkitpro\\devkitppc\\bin\\../lib/gcc/powerpc-eabi/4.6.3/../../../../powerpc-eabi/include/c++/4.6.3/bits/basic_string.h"
	.loc 8 1121 0
	mr 4,30
	addi 3,31,620
	bl _ZNSs6assignEPKcj
.LBE2653:
.LBE2652:
	.loc 5 107 0
	lwz 3,624(31)
	cmpwi 7,3,0
	beq- 7,.L147
.LVL189:
	.loc 5 108 0
	lwz 9,0(3)
	lwz 4,620(31)
	lwz 0,200(9)
	mtctr 0
	bctrl
.LVL190:
.L147:
	.loc 5 110 0
	lis 9,bg_music_ogg_size@ha
	lwz 3,240(31)
	lwz 5,bg_music_ogg_size@l(9)
	lis 4,bg_music_ogg@ha
	la 4,bg_music_ogg@l(4)
	li 6,0
	bl _ZN8GuiSound4LoadEPKhib
	.loc 5 111 0
	lwz 3,240(31)
	bl _ZN8GuiSound4PlayEv
	.loc 5 112 0
	li 0,0
	stb 0,217(31)
	.loc 5 116 0
	li 3,1
	.loc 5 113 0
	stb 0,216(31)
	.loc 5 116 0
	lwz 0,20(1)
	lwz 30,8(1)
.LVL191:
	mtlr 0
	lwz 31,12(1)
.LVL192:
	addi 1,1,16
.LCFI71:
	.cfi_def_cfa_offset 0
	.cfi_restore 31
	.cfi_restore 30
	blr
	.cfi_endproc
.LFE1616:
	.size	_ZN11MusicPlayer12LoadStandardEv, .-_ZN11MusicPlayer12LoadStandardEv
	.align 2
	.type	_ZN11MusicPlayer4LoadEPKcb.constprop.144, @function
_ZN11MusicPlayer4LoadEPKcb.constprop.144:
.LFB2322:
	.loc 5 118 0
	.cfi_startproc
	.cfi_personality 0,__gxx_personality_v0
	.cfi_lsda 0,.LLSDA2322
.LVL193:
	stwu 1,-40(1)
.LCFI72:
	.cfi_def_cfa_offset 40
	mflr 0
	stw 31,36(1)
	.loc 5 126 0
	lis 31,Settings+994@ha
	.cfi_offset 31, -4
	.cfi_register 65, 0
	la 31,Settings+994@l(31)
	.loc 5 118 0
	stw 30,32(1)
	.loc 5 126 0
	mr 4,31
	.loc 5 118 0
	mr 30,3
	.cfi_offset 30, -8
	.loc 5 126 0
	addi 5,1,9
	addi 3,1,12
.LVL194:
	.loc 5 118 0
	stw 0,44(1)
	stw 29,28(1)
.LEHB0:
	.loc 5 126 0
	.cfi_offset 29, -12
	.cfi_offset 65, 4
	bl _ZNSsC1EPKcRKSaIcE
.LEHE0:
	addi 3,1,12
.LEHB1:
	bl _Z9CheckFileSs
.LEHE1:
.LBB2693:
.LBB2694:
.LBB2695:
.LBB2696:
.LBB2697:
.LBB2698:
	.loc 8 288 0
	lwz 9,12(1)
.LBE2698:
.LBE2697:
.LBE2696:
.LBB2699:
.LBB2700:
	.loc 8 235 0
	lis 11,_ZNSs4_Rep20_S_empty_rep_storageE@ha
.LBE2700:
.LBE2699:
.LBE2695:
.LBE2694:
.LBE2693:
	.loc 5 126 0
	mr 29,3
.LVL195:
.LBB2717:
.LBB2715:
.LBB2713:
.LBB2710:
.LBB2707:
	.loc 8 235 0
	la 0,_ZNSs4_Rep20_S_empty_rep_storageE@l(11)
.LBE2707:
.LBE2710:
	.loc 8 534 0
	addi 3,9,-12
.LVL196:
.LBB2711:
.LBB2708:
	.loc 8 235 0
	cmpw 7,3,0
	bne- 7,.L161
.LVL197:
.L156:
.LBE2708:
.LBE2711:
.LBE2713:
.LBE2715:
.LBE2717:
	.loc 5 126 0
	cmpwi 7,29,0
	beq- 7,.L162
.LVL198:
.LBB2718:
.LBB2719:
.LBB2720:
.LBB2721:
.LBB2722:
.LBB2723:
.LBB2724:
	.loc 7 261 0
	mr 3,31
	bl strlen
.LBE2724:
.LBE2723:
	.loc 8 1121 0
	mr 4,31
.LBB2726:
.LBB2725:
	.loc 7 261 0
	mr 5,3
.LBE2725:
.LBE2726:
	.loc 8 1121 0
	addi 3,30,224
.LEHB2:
	bl _ZNSs6assignEPKcj
.LBE2722:
.LBE2721:
.LBE2720:
	.loc 5 133 0
	li 0,1
	stb 0,228(30)
	li 3,1
.LBE2719:
.LBE2718:
	.loc 5 136 0
	lwz 0,44(1)
	lwz 29,28(1)
	mtlr 0
	lwz 30,32(1)
.LVL199:
	lwz 31,36(1)
	addi 1,1,40
	.cfi_remember_state
.LCFI73:
	.cfi_def_cfa_offset 0
	.cfi_restore 31
	.cfi_restore 30
	.cfi_restore 29
	blr
.LVL200:
.L162:
.LCFI74:
	.cfi_restore_state
	.loc 5 128 0
	mr 3,30
	bl _ZN11MusicPlayer12LoadStandardEv
	.loc 5 136 0
	lwz 0,44(1)
	lwz 29,28(1)
	.loc 5 129 0
	li 3,0
	.loc 5 136 0
	mtlr 0
	lwz 30,32(1)
.LVL201:
	lwz 31,36(1)
	addi 1,1,40
	.cfi_remember_state
	.cfi_restore 29
	.cfi_restore 30
	.cfi_restore 31
.LCFI75:
	.cfi_def_cfa_offset 0
	blr
.LVL202:
.L161:
.LCFI76:
	.cfi_restore_state
.LBB2727:
.LBB2716:
.LBB2714:
.LBB2712:
.LBB2709:
.LBB2701:
.LBB2702:
.LBB2703:
	.file 9 "d:\\devkitpro\\devkitppc\\bin\\../lib/gcc/powerpc-eabi/4.6.3/../../../../powerpc-eabi/include/c++/4.6.3/ext/atomicity.h"
	.loc 9 66 0
	lwz 11,-4(9)
.LVL203:
.LBE2703:
.LBE2702:
.LBE2701:
	.loc 8 240 0
	cmpwi 7,11,0
.LBB2706:
.LBB2705:
.LBB2704:
	.loc 9 67 0
	addi 11,11,-1
	stw 11,-4(9)
.LBE2704:
.LBE2705:
.LBE2706:
	.loc 8 240 0
	bgt+ 7,.L156
	.loc 8 244 0
	addi 4,1,8
	bl _ZNSs4_Rep10_M_destroyERKSaIcE
.LVL204:
	b .L156
.LVL205:
.L160:
	mr 31,3
.LBE2709:
.LBE2712:
.LBE2714:
.LBE2716:
.LBE2727:
	.loc 5 126 0
	addi 3,1,12
	bl _ZNSsD1Ev
	mr 3,31
	bl _Unwind_Resume
.LEHE2:
	.cfi_endproc
.LFE2322:
	.globl __gxx_personality_v0
	.section	.gcc_except_table,"a",@progbits
.LLSDA2322:
	.byte	0xff
	.byte	0xff
	.byte	0x1
	.uleb128 .LLSDACSE2322-.LLSDACSB2322
.LLSDACSB2322:
	.uleb128 .LEHB0-.LFB2322
	.uleb128 .LEHE0-.LEHB0
	.uleb128 0
	.uleb128 0
	.uleb128 .LEHB1-.LFB2322
	.uleb128 .LEHE1-.LEHB1
	.uleb128 .L160-.LFB2322
	.uleb128 0
	.uleb128 .LEHB2-.LFB2322
	.uleb128 .LEHE2-.LEHB2
	.uleb128 0
	.uleb128 0
.LLSDACSE2322:
	.section	".text"
	.size	_ZN11MusicPlayer4LoadEPKcb.constprop.144, .-_ZN11MusicPlayer4LoadEPKcb.constprop.144
	.align 2
	.globl _ZN11MusicPlayer4LoadEPKcb
	.type	_ZN11MusicPlayer4LoadEPKcb, @function
_ZN11MusicPlayer4LoadEPKcb:
.LFB1617:
	.loc 5 119 0
	.cfi_startproc
	.cfi_personality 0,__gxx_personality_v0
	.cfi_lsda 0,.LLSDA1617
.LVL206:
	stwu 1,-40(1)
.LCFI77:
	.cfi_def_cfa_offset 40
	mflr 0
	stw 30,32(1)
	.loc 5 120 0
	mr. 30,4
	.cfi_offset 30, -8
	.cfi_register 65, 0
	.loc 5 119 0
	stw 29,28(1)
	mr 29,5
	.cfi_offset 29, -12
	stw 31,36(1)
	mr 31,3
	.cfi_offset 31, -4
	stw 0,44(1)
	stw 28,24(1)
	.loc 5 120 0
	beq- 0,.L177
	.cfi_offset 28, -16
	.cfi_offset 65, 4
	.loc 5 126 0
	addi 3,1,12
.LVL207:
	addi 5,1,9
.LVL208:
.LEHB3:
	bl _ZNSsC1EPKcRKSaIcE
.LEHE3:
.LVL209:
	addi 3,1,12
.LEHB4:
	bl _Z9CheckFileSs
.LEHE4:
.LBB2765:
.LBB2766:
.LBB2767:
.LBB2768:
.LBB2769:
.LBB2770:
	.loc 8 288 0
	lwz 9,12(1)
.LBE2770:
.LBE2769:
.LBE2768:
.LBB2771:
.LBB2772:
	.loc 8 235 0
	lis 11,_ZNSs4_Rep20_S_empty_rep_storageE@ha
.LBE2772:
.LBE2771:
.LBE2767:
.LBE2766:
.LBE2765:
	.loc 5 126 0
	mr 28,3
.LVL210:
.LBB2789:
.LBB2787:
.LBB2785:
.LBB2782:
.LBB2779:
	.loc 8 235 0
	la 0,_ZNSs4_Rep20_S_empty_rep_storageE@l(11)
.LBE2779:
.LBE2782:
	.loc 8 534 0
	addi 3,9,-12
.LVL211:
.LBB2783:
.LBB2780:
	.loc 8 235 0
	cmpw 7,3,0
	bne- 7,.L178
.LVL212:
.L173:
.LBE2780:
.LBE2783:
.LBE2785:
.LBE2787:
.LBE2789:
	.loc 5 126 0 discriminator 2
	cmpwi 7,28,0
	beq- 7,.L179
.LVL213:
.LBB2790:
.LBB2791:
.LBB2792:
.LBB2793:
.LBB2794:
.LBB2795:
.LBB2796:
	.loc 7 261 0
	mr 3,30
	bl strlen
.LBE2796:
.LBE2795:
	.loc 8 1121 0
	mr 4,30
.LBB2798:
.LBB2797:
	.loc 7 261 0
	mr 5,3
.LBE2797:
.LBE2798:
	.loc 8 1121 0
	addi 3,31,224
.LEHB5:
	bl _ZNSs6assignEPKcj
.LBE2794:
.LBE2793:
.LBE2792:
.LBE2791:
.LBE2790:
	.loc 5 136 0
	lwz 0,44(1)
.LBB2800:
.LBB2799:
	.loc 5 133 0
	stb 29,228(31)
	li 3,1
.LBE2799:
.LBE2800:
	.loc 5 136 0
	mtlr 0
	lwz 28,24(1)
	lwz 29,28(1)
.LVL214:
	lwz 30,32(1)
.LVL215:
	lwz 31,36(1)
.LVL216:
	addi 1,1,40
	.cfi_remember_state
.LCFI78:
	.cfi_def_cfa_offset 0
	.cfi_restore 31
	.cfi_restore 30
	.cfi_restore 29
	.cfi_restore 28
	blr
.LVL217:
.L179:
.LCFI79:
	.cfi_restore_state
	.loc 5 128 0
	mr 3,31
.LVL218:
.L177:
	bl _ZN11MusicPlayer12LoadStandardEv
	.loc 5 136 0
	lwz 0,44(1)
	lwz 28,24(1)
	.loc 5 129 0
	li 3,0
	.loc 5 136 0
	mtlr 0
	lwz 29,28(1)
	lwz 30,32(1)
.LVL219:
	lwz 31,36(1)
.LVL220:
	addi 1,1,40
	.cfi_remember_state
	.cfi_restore 28
	.cfi_restore 29
	.cfi_restore 30
	.cfi_restore 31
.LCFI80:
	.cfi_def_cfa_offset 0
	blr
.LVL221:
.L178:
.LCFI81:
	.cfi_restore_state
.LBB2801:
.LBB2788:
.LBB2786:
.LBB2784:
.LBB2781:
.LBB2773:
.LBB2774:
.LBB2775:
	.loc 9 66 0
	lwz 11,-4(9)
.LVL222:
.LBE2775:
.LBE2774:
.LBE2773:
	.loc 8 240 0
	cmpwi 7,11,0
.LBB2778:
.LBB2777:
.LBB2776:
	.loc 9 67 0
	addi 11,11,-1
	stw 11,-4(9)
.LBE2776:
.LBE2777:
.LBE2778:
	.loc 8 240 0
	bgt+ 7,.L173
	.loc 8 244 0
	addi 4,1,8
	bl _ZNSs4_Rep10_M_destroyERKSaIcE
.LVL223:
	b .L173
.LVL224:
.L176:
	mr 31,3
.LVL225:
.LBE2781:
.LBE2784:
.LBE2786:
.LBE2788:
.LBE2801:
	.loc 5 126 0
	addi 3,1,12
	bl _ZNSsD1Ev
	mr 3,31
	bl _Unwind_Resume
.LEHE5:
	.cfi_endproc
.LFE1617:
	.section	.gcc_except_table
.LLSDA1617:
	.byte	0xff
	.byte	0xff
	.byte	0x1
	.uleb128 .LLSDACSE1617-.LLSDACSB1617
.LLSDACSB1617:
	.uleb128 .LEHB3-.LFB1617
	.uleb128 .LEHE3-.LEHB3
	.uleb128 0
	.uleb128 0
	.uleb128 .LEHB4-.LFB1617
	.uleb128 .LEHE4-.LEHB4
	.uleb128 .L176-.LFB1617
	.uleb128 0
	.uleb128 .LEHB5-.LFB1617
	.uleb128 .LEHE5-.LEHB5
	.uleb128 0
	.uleb128 0
.LLSDACSE1617:
	.section	".text"
	.size	_ZN11MusicPlayer4LoadEPKcb, .-_ZN11MusicPlayer4LoadEPKcb
	.align 2
	.globl _ZN11MusicPlayer17ThreadedLoadMusicEv
	.type	_ZN11MusicPlayer17ThreadedLoadMusicEv, @function
_ZN11MusicPlayer17ThreadedLoadMusicEv:
.LFB1618:
	.loc 5 139 0
	.cfi_startproc
	.cfi_personality 0,__gxx_personality_v0
	.cfi_lsda 0,.LLSDA1618
.LVL226:
	stwu 1,-32(1)
.LCFI82:
	.cfi_def_cfa_offset 32
	mflr 0
	stw 30,24(1)
.LBB2865:
	.loc 5 140 0
	addi 30,3,224
	.cfi_offset 30, -8
	.cfi_register 65, 0
.LBE2865:
	.loc 5 139 0
	stw 31,28(1)
.LBB2918:
	.loc 5 140 0
	mr 4,30
.LBE2918:
	.loc 5 139 0
	mr 31,3
	.cfi_offset 31, -4
.LBB2919:
	.loc 5 140 0
	addi 3,1,12
.LVL227:
.LBE2919:
	.loc 5 139 0
	stw 0,36(1)
.LEHB6:
.LBB2920:
	.loc 5 140 0
	.cfi_offset 65, 4
	bl _ZNSsC1ERKSs
.LEHE6:
.LVL228:
.LBB2866:
.LBB2867:
.LBB2868:
.LBB2869:
	.loc 8 711 0
	lwz 9,224(31)
.LBE2869:
.LBE2868:
	.loc 8 796 0
	mr 3,30
	li 4,0
	li 6,0
	lwz 5,-12(9)
.LEHB7:
	bl _ZNSs9_M_mutateEjjj
.LBE2867:
.LBE2866:
	.loc 5 144 0
	li 0,1
	.loc 5 146 0
	lwz 3,240(31)
	.loc 5 144 0
	stb 0,228(31)
.LVL229:
	.loc 5 146 0
	lwz 4,12(1)
	bl _ZN8GuiSound4LoadEPKc
	cmpwi 7,3,0
	beq- 7,.L200
.LVL230:
	.loc 5 152 0
	lwz 3,12(1)
	li 4,47
	bl strrchr
.LVL231:
	.loc 5 153 0
	cmpwi 0,3,0
	beq- 0,.L183
	.loc 5 154 0
	addi 30,3,1
.LVL232:
.LBB2870:
.LBB2871:
.LBB2872:
.LBB2873:
	.loc 7 261 0
	mr 3,30
.LVL233:
	bl strlen
.LBE2873:
.LBE2872:
	.loc 8 1121 0
	mr 4,30
.LBB2875:
.LBB2874:
	.loc 7 261 0
	mr 5,3
.LBE2874:
.LBE2875:
	.loc 8 1121 0
	addi 3,31,620
	bl _ZNSs6assignEPKcj
.LVL234:
.L183:
.LBE2871:
.LBE2870:
	.loc 5 156 0
	lwz 3,624(31)
	cmpwi 7,3,0
	beq- 7,.L184
.LVL235:
	.loc 5 157 0
	lwz 9,0(3)
	lwz 4,620(31)
	lwz 0,200(9)
	mtctr 0
	bctrl
.LVL236:
.L184:
	.loc 5 159 0
	lwz 3,240(31)
	bl _ZN8GuiSound4PlayEv
.LBB2876:
.LBB2877:
.LBB2878:
.LBB2879:
.LBB2880:
.LBB2881:
	.loc 8 288 0
	lwz 9,12(1)
.LBE2881:
.LBE2880:
.LBE2879:
.LBB2882:
.LBB2883:
	.loc 8 235 0
	lis 11,_ZNSs4_Rep20_S_empty_rep_storageE@ha
	la 0,_ZNSs4_Rep20_S_empty_rep_storageE@l(11)
.LBE2883:
.LBE2882:
	.loc 8 534 0
	addi 3,9,-12
.LBB2893:
.LBB2890:
	.loc 8 235 0
	cmpw 7,3,0
.LBE2890:
.LBE2893:
.LBE2878:
.LBE2877:
.LBE2876:
	.loc 5 160 0
	li 0,0
	stb 0,217(31)
	.loc 5 161 0
	stb 0,216(31)
.LVL237:
.LBB2900:
.LBB2898:
.LBB2896:
.LBB2894:
.LBB2891:
	.loc 8 235 0
	bne- 7,.L201
.LVL238:
.L180:
.LBE2891:
.LBE2894:
.LBE2896:
.LBE2898:
.LBE2900:
.LBE2920:
	.loc 5 162 0
	lwz 0,36(1)
	lwz 30,24(1)
	mtlr 0
	lwz 31,28(1)
.LVL239:
	addi 1,1,32
	.cfi_remember_state
.LCFI83:
	.cfi_def_cfa_offset 0
	.cfi_restore 31
	.cfi_restore 30
	blr
.LVL240:
.L200:
.LCFI84:
	.cfi_restore_state
.LBB2921:
	.loc 5 148 0
	mr 3,31
	bl _ZN11MusicPlayer12LoadStandardEv
.LEHE7:
.LVL241:
.LBB2901:
.LBB2902:
.LBB2903:
.LBB2904:
.LBB2905:
.LBB2906:
	.loc 8 288 0
	lwz 9,12(1)
.LBE2906:
.LBE2905:
.LBE2904:
.LBB2907:
.LBB2908:
	.loc 8 235 0
	lis 11,_ZNSs4_Rep20_S_empty_rep_storageE@ha
	la 0,_ZNSs4_Rep20_S_empty_rep_storageE@l(11)
.LBE2908:
.LBE2907:
	.loc 8 534 0
	addi 3,9,-12
.LVL242:
.LBB2916:
.LBB2915:
	.loc 8 235 0
	cmpw 7,3,0
	beq+ 7,.L180
.LVL243:
.LBB2909:
.LBB2910:
.LBB2911:
	.loc 9 66 0
	lwz 11,-4(9)
.LVL244:
.LBE2911:
.LBE2910:
.LBE2909:
	.loc 8 240 0
	cmpwi 7,11,0
.LBB2914:
.LBB2913:
.LBB2912:
	.loc 9 67 0
	addi 11,11,-1
	stw 11,-4(9)
.LBE2912:
.LBE2913:
.LBE2914:
	.loc 8 240 0
	bgt+ 7,.L180
	.loc 8 244 0
	addi 4,1,8
	bl _ZNSs4_Rep10_M_destroyERKSaIcE
.LVL245:
	b .L180
.LVL246:
.L201:
.LBE2915:
.LBE2916:
.LBE2903:
.LBE2902:
.LBE2901:
.LBB2917:
.LBB2899:
.LBB2897:
.LBB2895:
.LBB2892:
.LBB2884:
.LBB2885:
.LBB2886:
	.loc 9 66 0
	lwz 11,-4(9)
.LVL247:
.LBE2886:
.LBE2885:
.LBE2884:
	.loc 8 240 0
	cmpwi 7,11,0
.LBB2889:
.LBB2888:
.LBB2887:
	.loc 9 67 0
	addi 11,11,-1
	stw 11,-4(9)
.LBE2887:
.LBE2888:
.LBE2889:
	.loc 8 240 0
	bgt+ 7,.L180
	.loc 8 244 0
	addi 4,1,9
	bl _ZNSs4_Rep10_M_destroyERKSaIcE
.LVL248:
	b .L180
.LVL249:
.L198:
	mr 31,3
.LVL250:
.LBE2892:
.LBE2895:
.LBE2897:
.LBE2899:
.LBE2917:
	.loc 5 161 0
	addi 3,1,12
	bl _ZNSsD1Ev
	mr 3,31
.LEHB8:
	bl _Unwind_Resume
.LEHE8:
.LBE2921:
	.cfi_endproc
.LFE1618:
	.section	.gcc_except_table
.LLSDA1618:
	.byte	0xff
	.byte	0xff
	.byte	0x1
	.uleb128 .LLSDACSE1618-.LLSDACSB1618
.LLSDACSB1618:
	.uleb128 .LEHB6-.LFB1618
	.uleb128 .LEHE6-.LEHB6
	.uleb128 0
	.uleb128 0
	.uleb128 .LEHB7-.LFB1618
	.uleb128 .LEHE7-.LEHB7
	.uleb128 .L198-.LFB1618
	.uleb128 0
	.uleb128 .LEHB8-.LFB1618
	.uleb128 .LEHE8-.LEHB8
	.uleb128 0
	.uleb128 0
.LLSDACSE1618:
	.section	".text"
	.size	_ZN11MusicPlayer17ThreadedLoadMusicEv, .-_ZN11MusicPlayer17ThreadedLoadMusicEv
	.align 2
	.globl _ZN11MusicPlayer6ResumeEv
	.type	_ZN11MusicPlayer6ResumeEv, @function
_ZN11MusicPlayer6ResumeEv:
.LFB1619:
	.loc 5 165 0
	.cfi_startproc
.LVL251:
	mflr 0
	stwu 1,-16(1)
.LCFI85:
	.cfi_def_cfa_offset 16
	.cfi_register 65, 0
	stw 31,12(1)
	mr 31,3
	.cfi_offset 31, -4
	stw 0,20(1)
	stw 30,8(1)
	.loc 5 166 0
	lbz 30,217(3)
	.cfi_offset 30, -8
	.cfi_offset 65, 4
	cmpwi 7,30,0
	bne+ 7,.L202
	.loc 5 169 0
	lwz 3,240(3)
.LVL252:
	bl _ZN8GuiSound4PlayEv
	.loc 5 170 0
	stb 30,216(31)
.L202:
	.loc 5 171 0
	lwz 0,20(1)
	lwz 30,8(1)
	mtlr 0
	lwz 31,12(1)
.LVL253:
	addi 1,1,16
.LCFI86:
	.cfi_def_cfa_offset 0
	.cfi_restore 31
	.cfi_restore 30
	blr
	.cfi_endproc
.LFE1619:
	.size	_ZN11MusicPlayer6ResumeEv, .-_ZN11MusicPlayer6ResumeEv
	.align 2
	.globl _ZN11MusicPlayer4StopEv
	.type	_ZN11MusicPlayer4StopEv, @function
_ZN11MusicPlayer4StopEv:
.LFB1620:
	.loc 5 174 0
	.cfi_startproc
.LVL254:
	mflr 0
	stwu 1,-8(1)
.LCFI87:
	.cfi_def_cfa_offset 8
	.cfi_register 65, 0
	stw 0,12(1)
	.loc 5 175 0
	li 0,0
	.cfi_offset 65, 4
	stb 0,216(3)
	.loc 5 176 0
	li 0,1
	stb 0,217(3)
	.loc 5 177 0
	lwz 3,240(3)
.LVL255:
	bl _ZN8GuiSound4StopEv
	.loc 5 178 0
	lwz 0,12(1)
	addi 1,1,8
.LCFI88:
	.cfi_def_cfa_offset 0
	mtlr 0
	blr
	.cfi_endproc
.LFE1620:
	.size	_ZN11MusicPlayer4StopEv, .-_ZN11MusicPlayer4StopEv
	.align 2
	.globl _ZN11MusicPlayer4PlayEv
	.type	_ZN11MusicPlayer4PlayEv, @function
_ZN11MusicPlayer4PlayEv:
.LFB1621:
	.loc 5 181 0
	.cfi_startproc
.LVL256:
	mflr 0
	stwu 1,-16(1)
.LCFI89:
	.cfi_def_cfa_offset 16
	.cfi_register 65, 0
	stw 31,12(1)
	mr 31,3
	.cfi_offset 31, -4
	stw 0,20(1)
	.loc 5 182 0
	lwz 4,248(3)
.LVL257:
.LBB2934:
.LBB2935:
	.loc 5 187 0
	cmpwi 7,4,0
	blt- 7,.L206
	.cfi_offset 65, 4
.LVL258:
.LBB2936:
.LBB2937:
.LBB2938:
	.file 10 "d:\\devkitpro\\devkitppc\\bin\\../lib/gcc/powerpc-eabi/4.6.3/../../../../powerpc-eabi/include/c++/4.6.3/bits/stl_vector.h"
	.loc 10 571 0
	lwz 9,488(3)
	lwz 0,484(3)
	subf 0,0,9
	srawi 0,0,2
.LBE2938:
.LBE2937:
.LBE2936:
	.loc 5 187 0
	cmpw 7,4,0
	blt- 7,.L207
.LVL259:
.L206:
.LBE2935:
.LBE2934:
	.loc 5 183 0
	lwz 0,20(1)
.LBB2949:
.LBB2945:
	.loc 5 188 0
	mr 3,31
.LVL260:
.LBE2945:
.LBE2949:
	.loc 5 183 0
	lwz 31,12(1)
.LVL261:
	mtlr 0
	addi 1,1,16
	.cfi_remember_state
.LCFI90:
	.cfi_def_cfa_offset 0
	.cfi_restore 31
.LBB2950:
.LBB2946:
	.loc 5 188 0
	b _ZN11MusicPlayer12LoadStandardEv
.LVL262:
.L207:
.LCFI91:
	.cfi_restore_state
.LBB2939:
.LBB2940:
	.loc 5 192 0
	addi 3,3,256
.LVL263:
	bl _ZN8PlayList2atEi
.LVL264:
	lis 5,.LC5@ha
	mr 6,3
	lis 3,Settings+994@ha
	la 3,Settings+994@l(3)
	li 4,250
	la 5,.LC5@l(5)
	crxor 6,6,6
	bl snprintf
.LBE2940:
.LBE2939:
.LBE2946:
.LBE2950:
	.loc 5 183 0
	lwz 0,20(1)
.LBB2951:
.LBB2947:
.LBB2943:
.LBB2941:
	.loc 5 194 0
	mr 3,31
.LBE2941:
.LBE2943:
.LBE2947:
.LBE2951:
	.loc 5 183 0
	lwz 31,12(1)
.LVL265:
	mtlr 0
	addi 1,1,16
.LCFI92:
	.cfi_def_cfa_offset 0
	.cfi_restore 31
.LBB2952:
.LBB2948:
.LBB2944:
.LBB2942:
	.loc 5 194 0
	b _ZN11MusicPlayer4LoadEPKcb.constprop.144
.LVL266:
.LVL267:
.LVL268:
.LBE2942:
.LBE2944:
.LBE2948:
.LBE2952:
	.cfi_endproc
.LFE1621:
	.size	_ZN11MusicPlayer4PlayEv, .-_ZN11MusicPlayer4PlayEv
	.align 2
	.globl _ZN11MusicPlayer4PlayEi
	.type	_ZN11MusicPlayer4PlayEi, @function
_ZN11MusicPlayer4PlayEi:
.LFB1622:
	.loc 5 186 0
	.cfi_startproc
.LVL269:
	mflr 0
	stwu 1,-16(1)
.LCFI93:
	.cfi_def_cfa_offset 16
	.cfi_register 65, 0
	stw 31,12(1)
	mr 31,3
	.cfi_offset 31, -4
	stw 0,20(1)
	.loc 5 187 0
	mr. 0,4
	.cfi_offset 65, 4
	blt- 0,.L209
.LVL270:
.LBB2967:
.LBB2968:
.LBB2969:
	.loc 10 571 0 discriminator 2
	lwz 11,488(3)
	lwz 9,484(3)
	subf 9,9,11
	srawi 9,9,2
.LBE2969:
.LBE2968:
.LBE2967:
	.loc 5 187 0 discriminator 2
	cmpw 7,0,9
	blt- 7,.L210
.LVL271:
.L209:
	.loc 5 195 0 discriminator 4
	lwz 0,20(1)
.LVL272:
	.loc 5 188 0 discriminator 4
	mr 3,31
.LVL273:
	.loc 5 195 0 discriminator 4
	lwz 31,12(1)
.LVL274:
	mtlr 0
	addi 1,1,16
	.cfi_remember_state
.LCFI94:
	.cfi_def_cfa_offset 0
	.cfi_restore 31
	.loc 5 188 0 discriminator 4
	b _ZN11MusicPlayer12LoadStandardEv
.LVL275:
.L210:
.LCFI95:
	.cfi_restore_state
.LBB2970:
.LBB2971:
	.loc 5 190 0
	stw 0,248(3)
	.loc 5 192 0
	addi 3,3,256
.LVL276:
	bl _ZN8PlayList2atEi
.LVL277:
	lis 5,.LC5@ha
	mr 6,3
	lis 3,Settings+994@ha
	la 3,Settings+994@l(3)
	li 4,250
	la 5,.LC5@l(5)
	crxor 6,6,6
	bl snprintf
.LBE2971:
.LBE2970:
	.loc 5 195 0
	lwz 0,20(1)
.LBB2974:
.LBB2972:
	.loc 5 194 0
	mr 3,31
.LBE2972:
.LBE2974:
	.loc 5 195 0
	lwz 31,12(1)
.LVL278:
	mtlr 0
	addi 1,1,16
.LCFI96:
	.cfi_def_cfa_offset 0
	.cfi_restore 31
.LBB2975:
.LBB2973:
	.loc 5 194 0
	b _ZN11MusicPlayer4LoadEPKcb.constprop.144
.LVL279:
.LVL280:
.LBE2973:
.LBE2975:
	.cfi_endproc
.LFE1622:
	.size	_ZN11MusicPlayer4PlayEi, .-_ZN11MusicPlayer4PlayEi
	.align 2
	.globl _ZN11MusicPlayer8PlayNextEv
	.type	_ZN11MusicPlayer8PlayNextEv, @function
_ZN11MusicPlayer8PlayNextEv:
.LFB1623:
	.loc 5 198 0
	.cfi_startproc
.LVL281:
	mflr 0
	stwu 1,-16(1)
.LCFI97:
	.cfi_def_cfa_offset 16
	.cfi_register 65, 0
	stw 31,12(1)
	mr 31,3
	.cfi_offset 31, -4
.LVL282:
	stw 0,20(1)
.LBB2976:
.LBB2977:
.LBB2978:
	.loc 10 571 0
	lwz 9,488(3)
	lwz 0,484(3)
	.cfi_offset 65, 4
	subf 0,0,9
.LBE2978:
.LBE2977:
.LBE2976:
	.loc 5 199 0
	srawi. 0,0,2
	beq- 0,.L214
.LVL283:
	.loc 5 202 0
	lwz 4,248(3)
	addi 4,4,1
	.loc 5 203 0
	cmpw 7,4,0
	.loc 5 202 0
	stw 4,248(3)
.LVL284:
	.loc 5 203 0
	blt- 7,.L213
	.loc 5 204 0
	li 0,0
	li 4,0
	stw 0,248(3)
.LVL285:
.L213:
	.loc 5 206 0
	addi 3,31,256
.LVL286:
	bl _ZN8PlayList2atEi
	lis 5,.LC5@ha
	mr 6,3
	lis 3,Settings+994@ha
	la 3,Settings+994@l(3)
	li 4,250
	la 5,.LC5@l(5)
	crxor 6,6,6
	bl snprintf
	.loc 5 209 0
	lwz 0,20(1)
	.loc 5 208 0
	mr 3,31
	.loc 5 209 0
	lwz 31,12(1)
.LVL287:
	mtlr 0
	addi 1,1,16
	.cfi_remember_state
.LCFI98:
	.cfi_def_cfa_offset 0
	.cfi_restore 31
	.loc 5 208 0
	b _ZN11MusicPlayer4LoadEPKcb.constprop.144
.LVL288:
.L214:
.LCFI99:
	.cfi_restore_state
	.loc 5 209 0
	lwz 0,20(1)
	lwz 31,12(1)
	mtlr 0
	addi 1,1,16
.LCFI100:
	.cfi_def_cfa_offset 0
	.cfi_restore 31
	.loc 5 200 0
	b _ZN11MusicPlayer12LoadStandardEv
.LVL289:
.LVL290:
	.cfi_endproc
.LFE1623:
	.size	_ZN11MusicPlayer8PlayNextEv, .-_ZN11MusicPlayer8PlayNextEv
	.align 2
	.globl _ZN11MusicPlayer12PlayPreviousEv
	.type	_ZN11MusicPlayer12PlayPreviousEv, @function
_ZN11MusicPlayer12PlayPreviousEv:
.LFB1624:
	.loc 5 212 0
	.cfi_startproc
.LVL291:
	mflr 0
	stwu 1,-16(1)
.LCFI101:
	.cfi_def_cfa_offset 16
	.cfi_register 65, 0
	stw 31,12(1)
	mr 31,3
	.cfi_offset 31, -4
.LVL292:
	stw 0,20(1)
.LBB2979:
.LBB2980:
.LBB2981:
	.loc 10 571 0
	lwz 9,488(3)
	lwz 0,484(3)
	.cfi_offset 65, 4
	subf 0,0,9
.LBE2981:
.LBE2980:
.LBE2979:
	.loc 5 213 0
	srawi. 9,0,2
	beq- 0,.L218
.LVL293:
	.loc 5 216 0
	lwz 4,248(3)
	addi 4,4,-1
	.loc 5 217 0
	cmpwi 7,4,0
	.loc 5 216 0
	stw 4,248(3)
	.loc 5 217 0
	blt- 7,.L219
	.loc 5 220 0
	addi 3,31,256
.LVL294:
	bl _ZN8PlayList2atEi
	lis 5,.LC5@ha
	mr 6,3
	lis 3,Settings+994@ha
	la 3,Settings+994@l(3)
	li 4,250
	la 5,.LC5@l(5)
	crxor 6,6,6
	bl snprintf
	.loc 5 223 0
	lwz 0,20(1)
	.loc 5 222 0
	mr 3,31
	.loc 5 223 0
	lwz 31,12(1)
.LVL295:
	mtlr 0
	addi 1,1,16
	.cfi_remember_state
.LCFI102:
	.cfi_def_cfa_offset 0
	.cfi_restore 31
	.loc 5 222 0
	b _ZN11MusicPlayer4LoadEPKcb.constprop.144
.LVL296:
.L219:
.LCFI103:
	.cfi_restore_state
	.loc 5 218 0
	addi 4,9,-1
	stw 4,248(3)
	.loc 5 220 0
	addi 3,31,256
.LVL297:
	bl _ZN8PlayList2atEi
	lis 5,.LC5@ha
	mr 6,3
	lis 3,Settings+994@ha
	la 3,Settings+994@l(3)
	li 4,250
	la 5,.LC5@l(5)
	crxor 6,6,6
	bl snprintf
	.loc 5 223 0
	lwz 0,20(1)
	.loc 5 222 0
	mr 3,31
	.loc 5 223 0
	lwz 31,12(1)
.LVL298:
	mtlr 0
	addi 1,1,16
	.cfi_remember_state
	.cfi_restore 31
.LCFI104:
	.cfi_def_cfa_offset 0
	.loc 5 222 0
	b _ZN11MusicPlayer4LoadEPKcb.constprop.144
.LVL299:
.L218:
.LCFI105:
	.cfi_restore_state
	.loc 5 223 0
	lwz 0,20(1)
	lwz 31,12(1)
	mtlr 0
	addi 1,1,16
.LCFI106:
	.cfi_def_cfa_offset 0
	.cfi_restore 31
	.loc 5 214 0
	b _ZN11MusicPlayer12LoadStandardEv
.LVL300:
.LVL301:
	.cfi_endproc
.LFE1624:
	.size	_ZN11MusicPlayer12PlayPreviousEv, .-_ZN11MusicPlayer12PlayPreviousEv
	.align 2
	.globl _ZN11MusicPlayer10PlayRandomEv
	.type	_ZN11MusicPlayer10PlayRandomEv, @function
_ZN11MusicPlayer10PlayRandomEv:
.LFB1625:
	.loc 5 226 0
	.cfi_startproc
.LVL302:
	mflr 0
	stwu 1,-16(1)
.LCFI107:
	.cfi_def_cfa_offset 16
	.cfi_register 65, 0
	stw 31,12(1)
	mr 31,3
	.cfi_offset 31, -4
.LVL303:
	stw 0,20(1)
.LBB2982:
.LBB2983:
.LBB2984:
	.loc 10 571 0
	lwz 9,488(3)
	lwz 0,484(3)
	.cfi_offset 65, 4
	subf 0,0,9
.LBE2984:
.LBE2983:
.LBE2982:
	.loc 5 227 0
	srwi. 9,0,2
	beq- 0,.L224
.LVL304:
	.loc 5 230 0
	li 3,0
.LVL305:
	bl time
	bl srand
	.loc 5 232 0
	bl rand
.LVL306:
.LBB2985:
.LBB2986:
.LBB2987:
	.loc 10 571 0
	lwz 9,488(31)
	lwz 0,484(31)
	subf 9,0,9
	srawi 9,9,2
.LBE2987:
.LBE2986:
.LBE2985:
	.loc 5 232 0
	divw 4,3,9
	mullw 4,4,9
	subf 4,4,3
	.loc 5 235 0
	cmpwi 7,4,0
	.loc 5 232 0
	stw 4,248(31)
	.loc 5 235 0
	blt- 7,.L225
.LVL307:
	.loc 5 237 0
	cmpw 7,4,9
	blt- 7,.L223
	.loc 5 238 0
	li 0,0
	li 4,0
	stw 0,248(31)
.L223:
	.loc 5 240 0
	addi 3,31,256
	bl _ZN8PlayList2atEi
	lis 5,.LC5@ha
	mr 6,3
	lis 3,Settings+994@ha
	la 3,Settings+994@l(3)
	li 4,250
	la 5,.LC5@l(5)
	crxor 6,6,6
	bl snprintf
	.loc 5 243 0
	lwz 0,20(1)
	.loc 5 242 0
	mr 3,31
	.loc 5 243 0
	lwz 31,12(1)
.LVL308:
	mtlr 0
	addi 1,1,16
	.cfi_remember_state
.LCFI108:
	.cfi_def_cfa_offset 0
	.cfi_restore 31
	.loc 5 242 0
	b _ZN11MusicPlayer4LoadEPKcb.constprop.144
.LVL309:
.L224:
.LCFI109:
	.cfi_restore_state
	.loc 5 243 0
	lwz 0,20(1)
	lwz 31,12(1)
	mtlr 0
	addi 1,1,16
	.cfi_remember_state
.LCFI110:
	.cfi_def_cfa_offset 0
	.cfi_restore 31
	.loc 5 228 0
	b _ZN11MusicPlayer12LoadStandardEv
.LVL310:
.L225:
.LCFI111:
	.cfi_restore_state
	.loc 5 236 0
	addi 4,9,-1
	.loc 5 240 0
	addi 3,31,256
	.loc 5 236 0
	stw 4,248(31)
	.loc 5 240 0
	bl _ZN8PlayList2atEi
	lis 5,.LC5@ha
	mr 6,3
	lis 3,Settings+994@ha
	la 3,Settings+994@l(3)
	li 4,250
	la 5,.LC5@l(5)
	crxor 6,6,6
	bl snprintf
	.loc 5 243 0
	lwz 0,20(1)
	.loc 5 242 0
	mr 3,31
	.loc 5 243 0
	lwz 31,12(1)
.LVL311:
	mtlr 0
	addi 1,1,16
	.cfi_restore 31
.LCFI112:
	.cfi_def_cfa_offset 0
	.loc 5 242 0
	b _ZN11MusicPlayer4LoadEPKcb.constprop.144
.LVL312:
	.cfi_endproc
.LFE1625:
	.size	_ZN11MusicPlayer10PlayRandomEv, .-_ZN11MusicPlayer10PlayRandomEv
	.align 2
	.globl _ZThn176_N11MusicPlayer13executeThreadEv
	.type	_ZThn176_N11MusicPlayer13executeThreadEv, @function
_ZThn176_N11MusicPlayer13executeThreadEv:
.LFB2329:
	.cfi_startproc
	addi 3,3,-176
	b .LTHUNK4
	.cfi_endproc
.LFE2329:
	.size	_ZThn176_N11MusicPlayer13executeThreadEv, .-_ZThn176_N11MusicPlayer13executeThreadEv
	.align 2
	.globl _ZN11MusicPlayer13executeThreadEv
	.type	_ZN11MusicPlayer13executeThreadEv, @function
_ZN11MusicPlayer13executeThreadEv:
.LFB1635:
	.loc 5 461 0
	.cfi_startproc
.LVL313:
	mflr 0
	stwu 1,-16(1)
.LCFI113:
	.cfi_def_cfa_offset 16
	.cfi_register 65, 0
	stw 30,8(1)
	stw 0,20(1)
	stw 31,12(1)
	.loc 5 461 0
	mr 31,3
	.cfi_offset 31, -4
	.cfi_offset 65, 4
	.cfi_offset 30, -8
.LVL314:
.L238:
	.loc 5 462 0 discriminator 1
	lbz 0,220(31)
	cmpwi 7,0,0
	bne- 7,.L240
.L235:
	.loc 5 464 0
	lis 3,0x1
	ori 3,3,34464
	bl usleep
	.loc 5 467 0
	lbz 0,219(31)
	cmpwi 7,0,0
	beq- 7,.L228
	.loc 5 467 0 is_stmt 0 discriminator 1
	lbz 0,217(31)
	cmpwi 7,0,0
	bne- 7,.L228
	.loc 5 467 0 discriminator 2
	lbz 0,216(31)
	cmpwi 7,0,0
	bne- 7,.L228
	.loc 5 469 0 is_stmt 1
	lbz 0,244(31)
	cmpwi 7,0,0
	beq- 7,.L229
	.loc 5 469 0 is_stmt 0 discriminator 1
	lis 30,Settings@ha
	la 30,Settings@l(30)
	lbz 9,994(30)
	cmpwi 7,9,0
	beq- 7,.L241
	.loc 5 474 0 is_stmt 1
	cmpwi 7,0,3
	beq- 7,.L242
	.loc 5 478 0
	cmpwi 7,0,2
	beq- 7,.L243
.L229:
	.loc 5 483 0
	li 0,0
	stb 0,219(31)
.L228:
.LVL315:
.LBB3008:
.LBB3009:
.LBB3010:
	.loc 8 711 0
	lwz 9,224(31)
.LBE3010:
.LBE3009:
.LBE3008:
	.loc 5 486 0
	lwz 0,-12(9)
	cmpwi 7,0,0
	beq+ 7,.L238
	.loc 5 487 0
	mr 3,31
	bl _ZN11MusicPlayer17ThreadedLoadMusicEv
	.loc 5 462 0
	lbz 0,220(31)
	cmpwi 7,0,0
	beq+ 7,.L235
.LVL316:
.L240:
	.loc 5 490 0
	lwz 0,20(1)
	lwz 30,8(1)
	mtlr 0
	lwz 31,12(1)
.LVL317:
	addi 1,1,16
	.cfi_remember_state
.LCFI114:
	.cfi_def_cfa_offset 0
	.cfi_restore 31
	.cfi_restore 30
	blr
.LVL318:
.L243:
.LCFI115:
	.cfi_restore_state
	.loc 5 480 0
	mr 3,31
	bl _ZN11MusicPlayer10PlayRandomEv
	b .L229
.L241:
.LVL319:
.LBB3011:
.LBB3012:
	.loc 5 182 0
	lwz 4,248(31)
.LVL320:
.LBB3013:
.LBB3014:
	.loc 5 187 0
	cmpwi 7,4,0
	blt- 7,.L231
.LVL321:
.LBB3015:
.LBB3016:
.LBB3017:
	.loc 10 571 0
	lwz 9,488(31)
	lwz 0,484(31)
	subf 0,0,9
	srawi 0,0,2
.LBE3017:
.LBE3016:
.LBE3015:
	.loc 5 187 0
	cmpw 7,4,0
	blt- 7,.L232
.LVL322:
.L231:
	.loc 5 188 0
	mr 3,31
	bl _ZN11MusicPlayer12LoadStandardEv
.LVL323:
	b .L229
.LVL324:
.L242:
.LBE3014:
.LBE3013:
.LBE3012:
.LBE3011:
	.loc 5 476 0
	mr 3,31
	bl _ZN11MusicPlayer8PlayNextEv
	b .L229
.LVL325:
.L232:
.LBB3023:
.LBB3022:
.LBB3021:
.LBB3020:
.LBB3018:
.LBB3019:
	.loc 5 192 0
	addi 3,31,256
	bl _ZN8PlayList2atEi
.LVL326:
	lis 5,.LC5@ha
	mr 6,3
	li 4,250
	addi 3,30,994
	la 5,.LC5@l(5)
	crxor 6,6,6
	bl snprintf
	.loc 5 194 0
	mr 3,31
	bl _ZN11MusicPlayer4LoadEPKcb.constprop.144
	b .L229
.LBE3019:
.LBE3018:
.LBE3020:
.LBE3021:
.LBE3022:
.LBE3023:
	.cfi_endproc
.LFE1635:
	.size	_ZN11MusicPlayer13executeThreadEv, .-_ZN11MusicPlayer13executeThreadEv
	.align 2
	.globl _ZN11MusicPlayer4HideEv
	.type	_ZN11MusicPlayer4HideEv, @function
_ZN11MusicPlayer4HideEv:
.LFB1627:
	.loc 5 256 0
	.cfi_startproc
	.cfi_personality 0,__gxx_personality_v0
	.cfi_lsda 0,.LLSDA1627
.LVL327:
	mflr 0
	stwu 1,-24(1)
.LCFI116:
	.cfi_def_cfa_offset 24
	.cfi_register 65, 0
	.loc 5 257 0
	lis 9,_ZN11Application15exitApplicationE@ha
	.loc 5 256 0
	stw 31,20(1)
	mr 31,3
	.cfi_offset 31, -4
	stw 0,28(1)
	.loc 5 257 0
	lbz 0,_ZN11Application15exitApplicationE@l(9)
	.cfi_offset 65, 4
	.loc 5 256 0
	stw 28,8(1)
	.loc 5 257 0
	cmpwi 7,0,0
	.loc 5 256 0
	stw 29,12(1)
	stw 30,16(1)
	.loc 5 257 0
	bne- 7,.L245
	.cfi_offset 30, -8
	.cfi_offset 29, -12
	.cfi_offset 28, -16
	.loc 5 259 0
	lbz 0,220(3)
	lis 29,_ZN11Application8instanceE@ha
	cmpwi 7,0,0
	bne- 7,.L246
	.loc 5 259 0 is_stmt 0 discriminator 1
	lwz 0,96(3)
	cmpwi 7,0,0
	beq- 7,.L246
	.loc 5 261 0 is_stmt 1
	lwz 9,0(3)
	li 4,36
	li 5,40
	li 6,0
	lwz 0,136(9)
	mtctr 0
.LEHB9:
	bctrl
.LVL328:
	.loc 5 262 0
	b .L247
.L248:
	.loc 5 263 0
	lwz 9,0(30)
	mr 3,30
	lwz 0,216(9)
	mtctr 0
	bctrl
.L247:
	.loc 5 262 0 discriminator 1
	lwz 9,0(31)
	mr 3,31
	lwz 0,152(9)
	mtctr 0
	bctrl
	cmpwi 7,3,0
	ble- 7,.L246
.LBB3056:
.LBB3057:
	.file 11 "d:/Projects/SaveGameManager/savegame-manager-gx/trunk/source/SoundOperations/../Controls/Application.h"
	.loc 11 27 0
	lwz 30,_ZN11Application8instanceE@l(29)
	cmpwi 7,30,0
	bne+ 7,.L248
	li 3,632
	bl _Znwj
.LEHE9:
	mr 30,3
.LEHB10:
	bl _ZN11ApplicationC1Ev
.LEHE10:
	stw 30,_ZN11Application8instanceE@l(29)
	b .L248
.L246:
.LBE3057:
.LBE3056:
.LBB3058:
.LBB3059:
	lwz 30,_ZN11Application8instanceE@l(29)
	cmpwi 7,30,0
	beq- 7,.L274
.L251:
.LVL329:
.LBE3059:
.LBE3058:
.LBB3062:
	.loc 5 502 0
	lwz 9,604(30)
.LBB3063:
	.loc 11 69 0
	li 29,0
.LBE3063:
	.loc 5 502 0
	lwz 11,608(30)
.LBB3097:
	.loc 11 69 0
	mr 0,9
.LBB3064:
.LBB3065:
	.loc 10 571 0
	subf 10,9,11
.LBE3065:
.LBE3064:
	.loc 11 69 0
	srwi. 8,10,2
	bne+ 0,.L272
.LVL330:
.L245:
.LBE3097:
.LBE3062:
	.loc 5 269 0
	mr 3,31
	li 4,0
.LEHB11:
	bl _ZN8GuiFrame13DimBackgroundEb
	.loc 5 270 0
	lwz 9,0(31)
	li 4,0
	mr 3,31
	lwz 0,48(9)
	mtctr 0
	bctrl
	.loc 5 272 0
	mr 3,31
	bl _ZN8GuiFrame9RemoveAllEv
	.loc 5 274 0
	lwz 3,628(31)
	cmpwi 7,3,0
	beq- 7,.L256
	.loc 5 275 0 discriminator 1
	lwz 9,0(3)
	lwz 0,4(9)
	mtctr 0
	bctrl
.L256:
	.loc 5 276 0
	lwz 3,632(31)
	cmpwi 7,3,0
	beq- 7,.L257
	.loc 5 277 0 discriminator 1
	lwz 9,0(3)
	lwz 0,4(9)
	mtctr 0
	bctrl
.L257:
	.loc 5 279 0
	lwz 3,564(31)
	bl _ZN9Resources6RemoveEP8GuiSound
	.loc 5 280 0
	lwz 3,568(31)
	bl _ZN9Resources6RemoveEP12GuiImageData
	.loc 5 281 0
	lwz 3,572(31)
	bl _ZN9Resources6RemoveEP12GuiImageData
	.loc 5 282 0
	lwz 3,576(31)
	bl _ZN9Resources6RemoveEP12GuiImageData
	.loc 5 283 0
	lwz 3,580(31)
	bl _ZN9Resources6RemoveEP12GuiImageData
	.loc 5 284 0
	lwz 3,584(31)
	bl _ZN9Resources6RemoveEP12GuiImageData
	.loc 5 285 0
	lwz 3,588(31)
	bl _ZN9Resources6RemoveEP12GuiImageData
	.loc 5 287 0
	lwz 3,600(31)
	cmpwi 7,3,0
	beq- 7,.L258
	.loc 5 288 0 discriminator 1
	lwz 9,0(3)
	lwz 0,4(9)
	mtctr 0
	bctrl
.L258:
	.loc 5 289 0
	lwz 3,604(31)
	cmpwi 7,3,0
	beq- 7,.L259
	.loc 5 290 0 discriminator 1
	lwz 9,0(3)
	lwz 0,4(9)
	mtctr 0
	bctrl
.L259:
	.loc 5 291 0
	lwz 3,608(31)
	cmpwi 7,3,0
	beq- 7,.L260
	.loc 5 292 0 discriminator 1
	lwz 9,0(3)
	lwz 0,4(9)
	mtctr 0
	bctrl
.L260:
	.loc 5 293 0
	lwz 3,612(31)
	cmpwi 7,3,0
	beq- 7,.L261
	.loc 5 294 0 discriminator 1
	lwz 9,0(3)
	lwz 0,4(9)
	mtctr 0
	bctrl
.L261:
	.loc 5 295 0
	lwz 3,616(31)
	cmpwi 7,3,0
	beq- 7,.L262
	.loc 5 296 0 discriminator 1
	lwz 9,0(3)
	lwz 0,4(9)
	mtctr 0
	bctrl
.L262:
	.loc 5 298 0
	lwz 3,592(31)
	cmpwi 7,3,0
	beq- 7,.L263
	.loc 5 299 0 discriminator 1
	lwz 9,0(3)
	lwz 0,4(9)
	mtctr 0
	bctrl
.L263:
	.loc 5 300 0
	lwz 3,596(31)
	cmpwi 7,3,0
	beq- 7,.L264
	.loc 5 301 0 discriminator 1
	lwz 9,0(3)
	lwz 0,4(9)
	mtctr 0
	bctrl
.L264:
	.loc 5 303 0
	lwz 3,624(31)
	cmpwi 7,3,0
	beq- 7,.L265
	.loc 5 304 0 discriminator 1
	lwz 9,0(3)
	lwz 0,4(9)
	mtctr 0
	bctrl
.L265:
	.loc 5 306 0
	li 0,0
	.loc 5 328 0
	lwz 28,8(1)
	.loc 5 306 0
	stw 0,564(31)
	.loc 5 308 0
	stw 0,568(31)
	.loc 5 309 0
	stw 0,572(31)
	.loc 5 310 0
	stw 0,576(31)
	.loc 5 311 0
	stw 0,580(31)
	.loc 5 312 0
	stw 0,584(31)
	.loc 5 313 0
	stw 0,588(31)
	.loc 5 315 0
	stw 0,628(31)
	.loc 5 316 0
	stw 0,632(31)
	.loc 5 318 0
	stw 0,600(31)
	.loc 5 319 0
	stw 0,604(31)
	.loc 5 320 0
	stw 0,608(31)
	.loc 5 321 0
	stw 0,612(31)
	.loc 5 322 0
	stw 0,616(31)
	.loc 5 324 0
	stw 0,592(31)
	.loc 5 325 0
	stw 0,596(31)
	.loc 5 327 0
	stw 0,624(31)
	.loc 5 328 0
	lwz 0,28(1)
	lwz 29,12(1)
	mtlr 0
	lwz 30,16(1)
	lwz 31,20(1)
.LVL331:
	addi 1,1,24
	.cfi_remember_state
.LCFI117:
	.cfi_def_cfa_offset 0
	.cfi_restore 31
	.cfi_restore 30
	.cfi_restore 29
	.cfi_restore 28
	blr
.LVL332:
.L267:
.LCFI118:
	.cfi_restore_state
.LBB3100:
.LBB3098:
	.loc 5 502 0
	mr 9,0
.LVL333:
.L272:
.LBE3098:
.LBE3100:
.LBB3101:
.LBB3060:
	.loc 5 255 0
	slwi 28,29,2
.LBE3060:
.LBE3101:
.LBB3102:
.LBB3099:
	.loc 11 70 0
	lwzx 9,9,28
	cmpw 7,31,9
	beq- 7,.L275
.L254:
.LBB3068:
.LBB3066:
	.loc 10 571 0
	subf 9,0,11
.LBE3066:
.LBE3068:
	.loc 11 69 0
	addi 29,29,1
.LVL334:
.LBB3069:
.LBB3067:
	.loc 10 571 0
	srawi 9,9,2
.LBE3067:
.LBE3069:
	.loc 11 69 0
	cmplw 7,29,9
	blt+ 7,.L267
	b .L245
.LVL335:
.L275:
	.loc 11 71 0
	lwz 3,628(30)
	bl LWP_MutexLock
.LVL336:
.LBB3070:
.LBB3071:
	.file 12 "d:\\devkitpro\\devkitppc\\bin\\../lib/gcc/powerpc-eabi/4.6.3/../../../../powerpc-eabi/include/c++/4.6.3/bits/stl_iterator.h"
	.loc 12 773 0
	lwz 3,604(30)
.LBE3071:
.LBE3070:
.LBB3073:
.LBB3074:
.LBB3075:
	.loc 5 502 0
	lwz 9,608(30)
.LBE3075:
.LBE3074:
.LBE3073:
.LBB3093:
.LBB3072:
	.loc 12 773 0
	add 3,3,28
.LVL337:
.LBE3072:
.LBE3093:
.LBB3094:
.LBB3090:
.LBB3076:
.LBB3077:
	addi 4,3,4
.LVL338:
.LBE3077:
.LBE3076:
	.file 13 "d:\\devkitpro\\devkitppc\\bin\\../lib/gcc/powerpc-eabi/4.6.3/../../../../powerpc-eabi/include/c++/4.6.3/bits/vector.tcc"
	.loc 13 138 0
	cmpw 7,4,9
	beq- 7,.L255
.LVL339:
.LBB3078:
.LBB3079:
.LBB3080:
.LBB3081:
.LBB3082:
.LBB3083:
	.file 14 "d:\\devkitpro\\devkitppc\\bin\\../lib/gcc/powerpc-eabi/4.6.3/../../../../powerpc-eabi/include/c++/4.6.3/bits/stl_algobase.h"
	.loc 14 364 0
	subf 5,4,9
.LVL340:
	.loc 14 365 0
	srawi. 5,5,2
.LVL341:
	bne- 0,.L276
.LVL342:
.L255:
.LBE3083:
.LBE3082:
.LBE3081:
.LBE3080:
.LBE3079:
.LBE3078:
	.loc 13 140 0
	addi 9,9,-4
.LBE3090:
.LBE3094:
	.loc 11 73 0
	lwz 3,628(30)
.LBB3095:
.LBB3091:
	.loc 13 140 0
	stw 9,608(30)
.LBE3091:
.LBE3095:
	.loc 11 73 0
	bl LWP_MutexUnlock
	lwz 0,604(30)
	lwz 11,608(30)
	b .L254
.LVL343:
.L276:
.LBB3096:
.LBB3092:
.LBB3089:
.LBB3088:
.LBB3087:
.LBB3086:
.LBB3085:
.LBB3084:
	.loc 14 366 0
	slwi 5,5,2
.LVL344:
	bl memmove
.LVL345:
	lwz 9,608(30)
	b .L255
.LVL346:
.L274:
.LBE3084:
.LBE3085:
.LBE3086:
.LBE3087:
.LBE3088:
.LBE3089:
.LBE3092:
.LBE3096:
.LBE3099:
.LBE3102:
.LBB3103:
.LBB3061:
	.loc 11 27 0
	li 3,632
	bl _Znwj
.LEHE11:
	mr 30,3
.LEHB12:
	bl _ZN11ApplicationC1Ev
.LEHE12:
	stw 30,_ZN11Application8instanceE@l(29)
	b .L251
.L268:
.L273:
	mr 31,3
.LVL347:
	mr 3,30
	bl _ZdlPv
	mr 3,31
.LEHB13:
	bl _Unwind_Resume
.LEHE13:
.LVL348:
.L269:
	b .L273
.LBE3061:
.LBE3103:
	.cfi_endproc
.LFE1627:
	.section	.gcc_except_table
.LLSDA1627:
	.byte	0xff
	.byte	0xff
	.byte	0x1
	.uleb128 .LLSDACSE1627-.LLSDACSB1627
.LLSDACSB1627:
	.uleb128 .LEHB9-.LFB1627
	.uleb128 .LEHE9-.LEHB9
	.uleb128 0
	.uleb128 0
	.uleb128 .LEHB10-.LFB1627
	.uleb128 .LEHE10-.LEHB10
	.uleb128 .L268-.LFB1627
	.uleb128 0
	.uleb128 .LEHB11-.LFB1627
	.uleb128 .LEHE11-.LEHB11
	.uleb128 0
	.uleb128 0
	.uleb128 .LEHB12-.LFB1627
	.uleb128 .LEHE12-.LEHB12
	.uleb128 .L269-.LFB1627
	.uleb128 0
	.uleb128 .LEHB13-.LFB1627
	.uleb128 .LEHE13-.LEHB13
	.uleb128 0
	.uleb128 0
.LLSDACSE1627:
	.section	".text"
	.size	_ZN11MusicPlayer4HideEv, .-_ZN11MusicPlayer4HideEv
	.align 2
	.globl _ZN11MusicPlayer13OnButtonClickEP9GuiButtoniRK6_POINT
	.type	_ZN11MusicPlayer13OnButtonClickEP9GuiButtoniRK6_POINT, @function
_ZN11MusicPlayer13OnButtonClickEP9GuiButtoniRK6_POINT:
.LFB1632:
	.loc 5 331 0
	.cfi_startproc
.LVL349:
	mflr 0
	stwu 1,-16(1)
.LCFI119:
	.cfi_def_cfa_offset 16
	.cfi_register 65, 0
	stw 31,12(1)
	mr 31,3
	.cfi_offset 31, -4
	stw 0,20(1)
	.loc 5 332 0
	lwz 0,600(3)
	.cfi_offset 65, 4
	cmpw 7,0,4
	beq- 7,.L285
	.loc 5 337 0
	lwz 0,604(3)
	cmpw 7,0,4
	beq- 7,.L286
	.loc 5 343 0
	lwz 0,608(3)
	cmpw 7,0,4
	beq- 7,.L287
	.loc 5 349 0
	lwz 0,616(3)
	cmpw 7,0,4
	beq- 7,.L288
	.loc 5 355 0
	lwz 0,612(3)
	cmpw 7,0,4
	beq- 7,.L289
.LVL350:
.L277:
	.loc 5 361 0
	lwz 0,20(1)
	lwz 31,12(1)
.LVL351:
	mtlr 0
	addi 1,1,16
	.cfi_remember_state
.LCFI120:
	.cfi_def_cfa_offset 0
	.cfi_restore 31
	blr
.LVL352:
.L289:
.LCFI121:
	.cfi_restore_state
	.loc 5 357 0
	lwz 3,596(3)
.LVL353:
	lwz 4,588(31)
.LVL354:
	bl _ZN8GuiImage8SetImageEP12GuiImageData
.LVL355:
	.loc 5 358 0
	li 0,12
	stw 0,252(31)
	.loc 5 359 0
	mr 3,31
	.loc 5 361 0
	lwz 0,20(1)
	lwz 31,12(1)
.LVL356:
	mtlr 0
	addi 1,1,16
	.cfi_remember_state
.LCFI122:
	.cfi_def_cfa_offset 0
	.cfi_restore 31
	.loc 5 359 0
	b _ZN11MusicPlayer8PlayNextEv
.LVL357:
.L285:
.LCFI123:
	.cfi_restore_state
	.loc 5 334 0
	bl _ZN11MusicPlayer4HideEv
.LVL358:
	.loc 5 335 0
	addi 3,31,256
	bl _ZN8PlayList4HideEv
	b .L277
.LVL359:
.L286:
	.loc 5 339 0
	lwz 4,576(31)
.LVL360:
	lwz 3,596(3)
	bl _ZN8GuiImage8SetImageEP12GuiImageData
.LVL361:
.LBB3120:
.LBB3121:
	.file 15 "d:/Projects/SaveGameManager/savegame-manager-gx/trunk/source/SoundOperations/PlayList.hpp"
	.loc 15 50 0
	lwz 0,476(31)
	lwz 9,472(31)
.LVL362:
.LBE3121:
.LBE3120:
.LBB3122:
.LBB3123:
	.loc 5 187 0
	add. 4,9,0
.LBE3123:
.LBE3122:
	.loc 5 340 0
	li 0,12
	stw 0,252(31)
.LBB3139:
.LBB3133:
	.loc 5 187 0
	blt- 0,.L281
.LVL363:
.LBB3124:
.LBB3125:
.LBB3126:
	.loc 10 571 0
	lwz 9,488(31)
	lwz 0,484(31)
	subf 0,0,9
	srawi 0,0,2
.LBE3126:
.LBE3125:
.LBE3124:
	.loc 5 187 0
	cmpw 7,4,0
	blt- 7,.L282
.LVL364:
.L281:
.LBE3133:
.LBE3139:
	.loc 5 361 0
	lwz 0,20(1)
.LBB3140:
.LBB3134:
	.loc 5 188 0
	mr 3,31
.LBE3134:
.LBE3140:
	.loc 5 361 0
	lwz 31,12(1)
.LVL365:
	mtlr 0
	addi 1,1,16
	.cfi_remember_state
.LCFI124:
	.cfi_def_cfa_offset 0
	.cfi_restore 31
.LBB3141:
.LBB3135:
	.loc 5 188 0
	b _ZN11MusicPlayer12LoadStandardEv
.LVL366:
.L287:
.LCFI125:
	.cfi_restore_state
.LBE3135:
.LBE3141:
	.loc 5 345 0
	lwz 3,596(3)
.LVL367:
	lwz 4,580(31)
.LVL368:
	bl _ZN8GuiImage8SetImageEP12GuiImageData
.LVL369:
	.loc 5 346 0
	li 0,12
	stw 0,252(31)
.LVL370:
.LBB3142:
.LBB3143:
	.loc 5 175 0
	li 0,0
	stb 0,216(31)
	.loc 5 176 0
	li 0,1
	stb 0,217(31)
	.loc 5 177 0
	lwz 3,240(31)
	bl _ZN8GuiSound4StopEv
	b .L277
.LVL371:
.L288:
.LBE3143:
.LBE3142:
	.loc 5 351 0
	lwz 3,596(3)
	lwz 4,584(31)
.LVL372:
	bl _ZN8GuiImage8SetImageEP12GuiImageData
.LVL373:
	.loc 5 352 0
	li 0,12
	stw 0,252(31)
	.loc 5 353 0
	mr 3,31
	.loc 5 361 0
	lwz 0,20(1)
	lwz 31,12(1)
.LVL374:
	mtlr 0
	addi 1,1,16
	.cfi_remember_state
.LCFI126:
	.cfi_def_cfa_offset 0
	.cfi_restore 31
	.loc 5 353 0
	b _ZN11MusicPlayer12PlayPreviousEv
.LVL375:
.L282:
.LCFI127:
	.cfi_restore_state
.LBB3144:
.LBB3136:
.LBB3127:
.LBB3128:
	.loc 5 190 0
	stw 4,248(31)
	.loc 5 192 0
	addi 3,31,256
	bl _ZN8PlayList2atEi
.LVL376:
	lis 5,.LC5@ha
	mr 6,3
	lis 3,Settings+994@ha
	la 3,Settings+994@l(3)
	li 4,250
	la 5,.LC5@l(5)
	crxor 6,6,6
	bl snprintf
.LBE3128:
.LBE3127:
.LBE3136:
.LBE3144:
	.loc 5 361 0
	lwz 0,20(1)
.LBB3145:
.LBB3137:
.LBB3131:
.LBB3129:
	.loc 5 194 0
	mr 3,31
.LBE3129:
.LBE3131:
.LBE3137:
.LBE3145:
	.loc 5 361 0
	lwz 31,12(1)
.LVL377:
	mtlr 0
	addi 1,1,16
.LCFI128:
	.cfi_def_cfa_offset 0
	.cfi_restore 31
.LBB3146:
.LBB3138:
.LBB3132:
.LBB3130:
	.loc 5 194 0
	b _ZN11MusicPlayer4LoadEPKcb.constprop.144
.LVL378:
.LVL379:
.LVL380:
.LVL381:
.LBE3130:
.LBE3132:
.LBE3138:
.LBE3146:
	.cfi_endproc
.LFE1632:
	.size	_ZN11MusicPlayer13OnButtonClickEP9GuiButtoniRK6_POINT, .-_ZN11MusicPlayer13OnButtonClickEP9GuiButtoniRK6_POINT
	.section	.text._ZNSt6vectorIP10GuiElementSaIS1_EE13_M_insert_auxEN9__gnu_cxx17__normal_iteratorIPS1_S3_EERKS1_,"axG",@progbits,_ZNSt6vectorIP10GuiElementSaIS1_EE13_M_insert_auxEN9__gnu_cxx17__normal_iteratorIPS1_S3_EERKS1_,comdat
	.align 2
	.weak	_ZNSt6vectorIP10GuiElementSaIS1_EE13_M_insert_auxEN9__gnu_cxx17__normal_iteratorIPS1_S3_EERKS1_
	.type	_ZNSt6vectorIP10GuiElementSaIS1_EE13_M_insert_auxEN9__gnu_cxx17__normal_iteratorIPS1_S3_EERKS1_, @function
_ZNSt6vectorIP10GuiElementSaIS1_EE13_M_insert_auxEN9__gnu_cxx17__normal_iteratorIPS1_S3_EERKS1_:
.LFB1745:
	.loc 13 300 0
	.cfi_startproc
.LVL382:
	mflr 0
	stwu 1,-40(1)
.LCFI129:
	.cfi_def_cfa_offset 40
	.cfi_register 65, 0
	stw 27,20(1)
	stw 0,44(1)
	stw 30,32(1)
.LBB3209:
	.loc 13 304 0
	lwz 27,4(3)
	.cfi_offset 30, -8
	.cfi_offset 65, 4
	.cfi_offset 27, -20
	lwz 0,8(3)
.LBE3209:
	.loc 13 300 0
	stw 31,36(1)
	mr 31,3
	.cfi_offset 31, -4
.LBB3334:
	.loc 13 304 0
	cmpw 7,27,0
.LBE3334:
	.loc 13 300 0
	stw 26,16(1)
	stw 28,24(1)
	stw 29,28(1)
	.loc 13 300 0
	lwz 30,0(4)
.LVL383:
.LBB3335:
	.loc 13 304 0
	beq- 7,.L291
	.cfi_offset 29, -12
	.cfi_offset 28, -16
	.cfi_offset 26, -24
.LVL384:
.LBB3210:
.LBB3211:
.LBB3212:
	.file 16 "d:\\devkitpro\\devkitppc\\bin\\../lib/gcc/powerpc-eabi/4.6.3/../../../../powerpc-eabi/include/c++/4.6.3/ext/new_allocator.h"
	.loc 16 108 0
	cmpwi 7,27,0
	li 3,0
.LVL385:
	beq- 7,.L292
	lwz 0,-4(27)
	stw 0,0(27)
	lwz 3,4(31)
.L292:
.LBE3212:
.LBE3211:
	.loc 13 313 0
	addi 0,3,-4
	.loc 13 309 0
	addi 9,3,4
.LBB3213:
.LBB3214:
.LBB3215:
.LBB3216:
.LBB3217:
.LBB3218:
	.loc 14 559 0
	subf 0,30,0
.LBE3218:
.LBE3217:
.LBE3216:
.LBE3215:
.LBE3214:
.LBE3213:
	.loc 13 309 0
	stw 9,4(31)
.LBB3234:
.LBB3231:
.LBB3228:
.LBB3225:
.LBB3222:
.LBB3219:
	.loc 14 560 0
	srawi. 0,0,2
.LBE3219:
.LBE3222:
.LBE3225:
.LBE3228:
.LBE3231:
.LBE3234:
	.loc 13 311 0
	lwz 31,0(5)
.LVL386:
.LBB3235:
.LBB3232:
.LBB3229:
.LBB3226:
.LBB3223:
.LBB3220:
	.loc 14 560 0
	bne- 0,.L307
.LVL387:
.L293:
.LBE3220:
.LBE3223:
.LBE3226:
.LBE3229:
.LBE3232:
.LBE3235:
.LBE3210:
.LBE3335:
	.loc 13 373 0
	lwz 0,44(1)
.LBB3336:
.LBB3237:
	.loc 13 317 0
	stw 31,0(30)
.LBE3237:
.LBE3336:
	.loc 13 373 0
	mtlr 0
	lwz 26,16(1)
	lwz 27,20(1)
.LVL388:
	lwz 28,24(1)
	lwz 29,28(1)
	lwz 30,32(1)
.LVL389:
	lwz 31,36(1)
.LVL390:
	addi 1,1,40
	.cfi_remember_state
.LCFI130:
	.cfi_def_cfa_offset 0
	.cfi_restore 31
	.cfi_restore 30
	.cfi_restore 29
	.cfi_restore 28
	.cfi_restore 27
	.cfi_restore 26
	blr
.LVL391:
.L307:
.LCFI131:
	.cfi_restore_state
.LBB3337:
.LBB3238:
.LBB3236:
.LBB3233:
.LBB3230:
.LBB3227:
.LBB3224:
.LBB3221:
	.loc 14 561 0
	slwi 5,0,2
.LVL392:
	mr 4,30
	subf 3,5,3
.LVL393:
	bl memmove
.LVL394:
	b .L293
.LVL395:
.L291:
.LBE3221:
.LBE3224:
.LBE3227:
.LBE3230:
.LBE3233:
.LBE3236:
.LBE3238:
.LBB3239:
.LBB3240:
.LBB3241:
.LBB3242:
.LBB3243:
	.loc 10 571 0
	lwz 28,0(3)
	subf 27,28,27
.LBE3243:
.LBE3242:
.LBB3244:
.LBB3245:
	.loc 14 215 0
	srawi. 27,27,2
	beq- 0,.L295
.LBE3245:
.LBE3244:
	.loc 10 1244 0
	slwi 0,27,1
.LVL396:
	.loc 10 1245 0
	cmplw 7,27,0
	ble- 7,.L308
.L296:
.LVL397:
.LBE3241:
.LBE3240:
.LBB3248:
.LBB3249:
	.loc 12 892 0
	subf 28,28,30
.LBE3249:
.LBE3248:
	.loc 13 326 0
	li 27,-4
.LBB3255:
.LBB3250:
	.loc 12 892 0
	srawi 28,28,2
.LVL398:
.L302:
.LBE3250:
.LBE3255:
.LBB3256:
.LBB3257:
.LBB3258:
.LBB3259:
	.loc 16 92 0
	mr 3,27
.LVL399:
	stw 5,8(1)
	bl _Znwj
.LVL400:
	lwz 5,8(1)
	mr 29,3
.L297:
.LVL401:
.LBE3259:
.LBE3258:
.LBE3257:
.LBE3256:
	.loc 13 335 0
	slwi 28,28,2
.LVL402:
	add 0,29,28
.LVL403:
.LBB3262:
.LBB3263:
	.loc 16 108 0
	cmpwi 7,0,0
	beq- 7,.L298
	lwz 0,0(5)
.LVL404:
	stwx 0,29,28
.L298:
.LVL405:
.LBE3263:
.LBE3262:
	.loc 13 343 0
	lwz 4,0(31)
.LVL406:
.LBB3264:
.LBB3265:
.LBB3266:
.LBB3267:
.LBB3268:
.LBB3269:
.LBB3270:
.LBB3271:
.LBB3272:
.LBB3273:
.LBB3274:
	.loc 14 365 0
	li 28,0
	.loc 14 364 0
	subf 0,4,30
.LVL407:
	.loc 14 365 0
	srawi. 0,0,2
.LVL408:
	beq+ 0,.L299
	.loc 14 366 0
	slwi 28,0,2
	mr 3,29
	mr 5,28
.LVL409:
	bl memmove
.LVL410:
.L299:
.LBE3274:
.LBE3273:
.LBE3272:
.LBE3271:
.LBE3270:
.LBE3269:
.LBE3268:
.LBE3267:
.LBE3266:
.LBE3265:
.LBE3264:
.LBB3285:
.LBB3286:
.LBB3287:
.LBB3288:
.LBB3289:
.LBB3290:
.LBB3291:
.LBB3292:
.LBB3293:
.LBB3294:
.LBB3295:
	.loc 14 364 0
	lwz 0,4(31)
.LBE3295:
.LBE3294:
.LBE3293:
.LBE3292:
.LBE3291:
.LBE3290:
.LBE3289:
.LBE3288:
.LBE3287:
.LBE3286:
.LBE3285:
.LBB3316:
.LBB3284:
.LBB3283:
.LBB3282:
.LBB3281:
.LBB3280:
.LBB3279:
.LBB3278:
.LBB3277:
.LBB3276:
.LBB3275:
	.loc 14 367 0
	add 28,29,28
.LVL411:
.LBE3275:
.LBE3276:
.LBE3277:
.LBE3278:
.LBE3279:
.LBE3280:
.LBE3281:
.LBE3282:
.LBE3283:
.LBE3284:
.LBE3316:
	.loc 13 347 0
	addi 26,28,4
.LBB3317:
.LBB3314:
.LBB3312:
.LBB3310:
.LBB3308:
.LBB3306:
.LBB3304:
.LBB3302:
.LBB3300:
.LBB3298:
.LBB3296:
	.loc 14 365 0
	li 28,0
	.loc 14 364 0
	subf 0,30,0
.LVL412:
	.loc 14 365 0
	srawi. 0,0,2
.LVL413:
	beq+ 0,.L300
	.loc 14 366 0
	slwi 28,0,2
	mr 3,26
	mr 4,30
	mr 5,28
	bl memmove
.LVL414:
.L300:
.LBE3296:
.LBE3298:
.LBE3300:
.LBE3302:
.LBE3304:
.LBE3306:
.LBE3308:
.LBE3310:
.LBE3312:
.LBE3314:
.LBE3317:
	.loc 13 366 0
	lwz 3,0(31)
.LBB3318:
.LBB3315:
.LBB3313:
.LBB3311:
.LBB3309:
.LBB3307:
.LBB3305:
.LBB3303:
.LBB3301:
.LBB3299:
.LBB3297:
	.loc 14 367 0
	add 28,26,28
.LVL415:
.LBE3297:
.LBE3299:
.LBE3301:
.LBE3303:
.LBE3305:
.LBE3307:
.LBE3309:
.LBE3311:
.LBE3313:
.LBE3315:
.LBE3318:
.LBB3319:
.LBB3320:
	.loc 10 155 0
	cmpwi 7,3,0
	beq- 7,.L301
.LVL416:
.LBB3321:
.LBB3322:
	.loc 16 98 0
	bl _ZdlPv
.LVL417:
.L301:
.LBE3322:
.LBE3321:
.LBE3320:
.LBE3319:
.LBE3239:
.LBE3337:
	.loc 13 373 0
	lwz 0,44(1)
.LBB3338:
.LBB3331:
	.loc 13 371 0
	add 27,29,27
	.loc 13 369 0
	stw 29,0(31)
.LBE3331:
.LBE3338:
	.loc 13 373 0
	mtlr 0
.LBB3339:
.LBB3332:
	.loc 13 370 0
	stw 28,4(31)
	.loc 13 371 0
	stw 27,8(31)
.LBE3332:
.LBE3339:
	.loc 13 373 0
	lwz 26,16(1)
.LVL418:
	lwz 27,20(1)
	lwz 28,24(1)
	lwz 29,28(1)
.LVL419:
	lwz 30,32(1)
.LVL420:
	lwz 31,36(1)
.LVL421:
	addi 1,1,40
	.cfi_remember_state
	.cfi_restore 26
	.cfi_restore 27
	.cfi_restore 28
	.cfi_restore 29
	.cfi_restore 30
	.cfi_restore 31
.LCFI132:
	.cfi_def_cfa_offset 0
	blr
.LVL422:
.L295:
.LCFI133:
	.cfi_restore_state
.LBB3340:
.LBB3333:
.LBB3323:
.LBB3251:
	.loc 12 892 0
	subf 28,28,30
.LBE3251:
.LBE3323:
	.loc 13 326 0
	li 27,4
.LBB3324:
.LBB3252:
	.loc 12 892 0
	srawi 28,28,2
.LVL423:
	b .L302
.LVL424:
.L308:
.LBE3252:
.LBE3324:
.LBB3325:
.LBB3246:
	.loc 10 1245 0
	lis 9,0x3fff
	ori 9,9,65535
	cmplw 7,0,9
	bgt+ 7,.L296
.LBE3246:
.LBE3325:
.LBB3326:
.LBB3260:
	.loc 10 150 0
	cmpwi 7,0,0
.LBE3260:
.LBE3326:
.LBB3327:
.LBB3253:
	.loc 12 892 0
	subf 28,28,30
.LBE3253:
.LBE3327:
.LBB3328:
.LBB3247:
	.loc 10 1245 0
	slwi 27,27,3
.LVL425:
.LBE3247:
.LBE3328:
.LBB3329:
.LBB3254:
	.loc 12 892 0
	srawi 28,28,2
.LVL426:
.LBE3254:
.LBE3329:
.LBB3330:
.LBB3261:
	.loc 10 150 0
	li 29,0
	beq+ 7,.L297
	b .L302
.LBE3261:
.LBE3330:
.LBE3333:
.LBE3340:
	.cfi_endproc
.LFE1745:
	.size	_ZNSt6vectorIP10GuiElementSaIS1_EE13_M_insert_auxEN9__gnu_cxx17__normal_iteratorIPS1_S3_EERKS1_, .-_ZNSt6vectorIP10GuiElementSaIS1_EE13_M_insert_auxEN9__gnu_cxx17__normal_iteratorIPS1_S3_EERKS1_
	.section	.text._ZNSt8_Rb_treeIPN7sigslot12_signal_baseINS0_15single_threadedEEES4_St9_IdentityIS4_ESt4lessIS4_ESaIS4_EE8_M_eraseEPSt13_Rb_tree_nodeIS4_E,"axG",@progbits,_ZNSt8_Rb_treeIPN7sigslot12_signal_baseINS0_15single_threadedEEES4_St9_IdentityIS4_ESt4lessIS4_ESaIS4_EE8_M_eraseEPSt13_Rb_tree_nodeIS4_E,comdat
	.align 2
	.weak	_ZNSt8_Rb_treeIPN7sigslot12_signal_baseINS0_15single_threadedEEES4_St9_IdentityIS4_ESt4lessIS4_ESaIS4_EE8_M_eraseEPSt13_Rb_tree_nodeIS4_E
	.type	_ZNSt8_Rb_treeIPN7sigslot12_signal_baseINS0_15single_threadedEEES4_St9_IdentityIS4_ESt4lessIS4_ESaIS4_EE8_M_eraseEPSt13_Rb_tree_nodeIS4_E, @function
_ZNSt8_Rb_treeIPN7sigslot12_signal_baseINS0_15single_threadedEEES4_St9_IdentityIS4_ESt4lessIS4_ESaIS4_EE8_M_eraseEPSt13_Rb_tree_nodeIS4_E:
.LFB1828:
	.file 17 "d:\\devkitpro\\devkitppc\\bin\\../lib/gcc/powerpc-eabi/4.6.3/../../../../powerpc-eabi/include/c++/4.6.3/bits/stl_tree.h"
	.loc 17 1068 0
	.cfi_startproc
.LVL427:
	stwu 1,-56(1)
.LCFI134:
	.cfi_def_cfa_offset 56
	mflr 0
	stw 22,16(1)
.LBB3457:
	.loc 17 1072 0
	mr. 22,4
	.cfi_offset 22, -40
	.cfi_register 65, 0
.LBE3457:
	.loc 17 1068 0
	stw 30,48(1)
	mr 30,3
	.cfi_offset 30, -8
	stw 0,60(1)
	stw 21,12(1)
	stw 23,20(1)
	stw 24,24(1)
	stw 25,28(1)
	stw 26,32(1)
	stw 27,36(1)
	stw 28,40(1)
	stw 29,44(1)
	stw 31,52(1)
.LBB3542:
	.loc 17 1072 0
	beq- 0,.L309
	.cfi_offset 31, -4
	.cfi_offset 29, -12
	.cfi_offset 28, -16
	.cfi_offset 27, -20
	.cfi_offset 26, -24
	.cfi_offset 25, -28
	.cfi_offset 24, -32
	.cfi_offset 23, -36
	.cfi_offset 21, -44
	.cfi_offset 65, 4
.LVL428:
.L355:
	.loc 5 502 0
	lwz 27,12(22)
.LVL429:
.LBB3458:
.LBB3459:
.LBB3460:
	.loc 17 1072 0
	cmpwi 7,27,0
	beq- 7,.L311
.LVL430:
.L356:
.LBE3460:
	.loc 5 502 0
	lwz 26,12(27)
.LVL431:
.LBB3536:
.LBB3461:
.LBB3462:
.LBB3463:
	.loc 17 1072 0
	cmpwi 7,26,0
	beq- 7,.L312
.LVL432:
.L357:
.LBE3463:
	.loc 5 502 0
	lwz 25,12(26)
.LVL433:
.LBB3529:
.LBB3464:
.LBB3465:
.LBB3466:
	.loc 17 1072 0
	cmpwi 7,25,0
	beq- 7,.L313
.LVL434:
.L358:
.LBE3466:
	.loc 5 502 0
	lwz 24,12(25)
.LVL435:
.LBB3522:
.LBB3467:
.LBB3468:
.LBB3469:
	.loc 17 1072 0
	cmpwi 7,24,0
	beq- 7,.L314
.LVL436:
.L359:
.LBE3469:
	.loc 5 502 0
	lwz 23,12(24)
.LVL437:
.LBB3515:
.LBB3470:
.LBB3471:
.LBB3472:
	.loc 17 1072 0
	cmpwi 7,23,0
	beq- 7,.L315
.LVL438:
.L360:
.LBE3472:
	.loc 5 502 0
	lwz 28,12(23)
.LVL439:
.LBB3508:
.LBB3473:
.LBB3474:
.LBB3475:
	.loc 17 1072 0
	cmpwi 7,28,0
	beq- 7,.L316
.LVL440:
.L361:
.LBE3475:
	.loc 5 502 0
	lwz 29,12(28)
.LVL441:
.LBB3501:
.LBB3476:
.LBB3477:
.LBB3478:
	.loc 17 1072 0
	cmpwi 7,29,0
	beq- 7,.L317
.LVL442:
.L362:
.LBE3478:
	.loc 5 502 0
	lwz 31,12(29)
.LVL443:
.LBB3494:
.LBB3479:
.LBB3480:
.LBB3481:
	.loc 17 1072 0
	cmpwi 7,31,0
	beq- 7,.L318
.LVL444:
.L363:
.LBB3482:
	.loc 17 1074 0
	lwz 4,12(31)
	mr 3,30
	bl _ZNSt8_Rb_treeIPN7sigslot12_signal_baseINS0_15single_threadedEEES4_St9_IdentityIS4_ESt4lessIS4_ESaIS4_EE8_M_eraseEPSt13_Rb_tree_nodeIS4_E
.LBE3482:
.LBE3481:
	.loc 5 502 0
	lwz 21,8(31)
.LVL445:
.LBB3488:
.LBB3487:
.LBB3483:
.LBB3484:
.LBB3485:
.LBB3486:
	.loc 16 98 0
	mr 3,31
	bl _ZdlPv
.LVL446:
.LBE3486:
.LBE3485:
.LBE3484:
.LBE3483:
.LBE3487:
	.loc 17 1072 0
	cmpwi 7,21,0
	.loc 17 1077 0
	mr 31,21
.LVL447:
	.loc 17 1072 0
	bne+ 7,.L363
.LVL448:
.L318:
.LBE3488:
.LBE3480:
.LBE3479:
.LBE3494:
	.loc 5 502 0
	lwz 31,8(29)
.LVL449:
.LBB3495:
.LBB3493:
.LBB3489:
.LBB3490:
.LBB3491:
.LBB3492:
	.loc 16 98 0
	mr 3,29
	bl _ZdlPv
.LVL450:
.LBE3492:
.LBE3491:
.LBE3490:
.LBE3489:
.LBE3493:
	.loc 17 1072 0
	cmpwi 7,31,0
	beq- 7,.L317
	.loc 17 1077 0
	mr 29,31
.LVL451:
	b .L362
.LVL452:
.L317:
.LBE3495:
.LBE3477:
.LBE3476:
.LBE3501:
	.loc 5 502 0
	lwz 31,8(28)
.LVL453:
.LBB3502:
.LBB3500:
.LBB3496:
.LBB3497:
.LBB3498:
.LBB3499:
	.loc 16 98 0
	mr 3,28
	bl _ZdlPv
.LVL454:
.LBE3499:
.LBE3498:
.LBE3497:
.LBE3496:
.LBE3500:
	.loc 17 1072 0
	cmpwi 7,31,0
	beq- 7,.L316
	.loc 17 1077 0
	mr 28,31
.LVL455:
	b .L361
.LVL456:
.L316:
.LBE3502:
.LBE3474:
.LBE3473:
.LBE3508:
	.loc 5 502 0
	lwz 31,8(23)
.LVL457:
.LBB3509:
.LBB3507:
.LBB3503:
.LBB3504:
.LBB3505:
.LBB3506:
	.loc 16 98 0
	mr 3,23
	bl _ZdlPv
.LVL458:
.LBE3506:
.LBE3505:
.LBE3504:
.LBE3503:
.LBE3507:
	.loc 17 1072 0
	cmpwi 7,31,0
	beq- 7,.L315
	.loc 17 1077 0
	mr 23,31
.LVL459:
	b .L360
.LVL460:
.L315:
.LBE3509:
.LBE3471:
.LBE3470:
.LBE3515:
	.loc 5 502 0
	lwz 31,8(24)
.LVL461:
.LBB3516:
.LBB3514:
.LBB3510:
.LBB3511:
.LBB3512:
.LBB3513:
	.loc 16 98 0
	mr 3,24
	bl _ZdlPv
.LVL462:
.LBE3513:
.LBE3512:
.LBE3511:
.LBE3510:
.LBE3514:
	.loc 17 1072 0
	cmpwi 7,31,0
	beq- 7,.L314
	.loc 17 1077 0
	mr 24,31
.LVL463:
	b .L359
.LVL464:
.L314:
.LBE3516:
.LBE3468:
.LBE3467:
.LBE3522:
	.loc 5 502 0
	lwz 31,8(25)
.LVL465:
.LBB3523:
.LBB3521:
.LBB3517:
.LBB3518:
.LBB3519:
.LBB3520:
	.loc 16 98 0
	mr 3,25
	bl _ZdlPv
.LVL466:
.LBE3520:
.LBE3519:
.LBE3518:
.LBE3517:
.LBE3521:
	.loc 17 1072 0
	cmpwi 7,31,0
	beq- 7,.L313
	.loc 17 1077 0
	mr 25,31
.LVL467:
	b .L358
.LVL468:
.L313:
.LBE3523:
.LBE3465:
.LBE3464:
.LBE3529:
	.loc 5 502 0
	lwz 31,8(26)
.LVL469:
.LBB3530:
.LBB3528:
.LBB3524:
.LBB3525:
.LBB3526:
.LBB3527:
	.loc 16 98 0
	mr 3,26
	bl _ZdlPv
.LVL470:
.LBE3527:
.LBE3526:
.LBE3525:
.LBE3524:
.LBE3528:
	.loc 17 1072 0
	cmpwi 7,31,0
	beq- 7,.L312
	.loc 17 1077 0
	mr 26,31
.LVL471:
	b .L357
.LVL472:
.L312:
.LBE3530:
.LBE3462:
.LBE3461:
.LBE3536:
	.loc 5 502 0
	lwz 31,8(27)
.LVL473:
.LBB3537:
.LBB3535:
.LBB3531:
.LBB3532:
.LBB3533:
.LBB3534:
	.loc 16 98 0
	mr 3,27
	bl _ZdlPv
.LVL474:
.LBE3534:
.LBE3533:
.LBE3532:
.LBE3531:
.LBE3535:
	.loc 17 1072 0
	cmpwi 7,31,0
	beq- 7,.L311
	.loc 17 1077 0
	mr 27,31
.LVL475:
	b .L356
.LVL476:
.L311:
	.loc 5 502 0
	lwz 31,8(22)
.LVL477:
.LBE3537:
.LBE3459:
.LBB3538:
.LBB3539:
.LBB3540:
.LBB3541:
	.loc 16 98 0
	mr 3,22
	bl _ZdlPv
.LVL478:
.LBE3541:
.LBE3540:
.LBE3539:
.LBE3538:
.LBE3458:
	.loc 17 1072 0
	cmpwi 7,31,0
	beq- 7,.L309
	.loc 17 1077 0
	mr 22,31
.LVL479:
	b .L355
.LVL480:
.L309:
.LBE3542:
	.loc 17 1079 0
	lwz 0,60(1)
	lwz 21,12(1)
	mtlr 0
	lwz 22,16(1)
	lwz 23,20(1)
	lwz 24,24(1)
	lwz 25,28(1)
	lwz 26,32(1)
	lwz 27,36(1)
	lwz 28,40(1)
	lwz 29,44(1)
	lwz 30,48(1)
.LVL481:
	lwz 31,52(1)
	addi 1,1,56
.LCFI135:
	.cfi_def_cfa_offset 0
	.cfi_restore 31
	.cfi_restore 30
	.cfi_restore 29
	.cfi_restore 28
	.cfi_restore 27
	.cfi_restore 26
	.cfi_restore 25
	.cfi_restore 24
	.cfi_restore 23
	.cfi_restore 22
	.cfi_restore 21
	blr
	.cfi_endproc
.LFE1828:
	.size	_ZNSt8_Rb_treeIPN7sigslot12_signal_baseINS0_15single_threadedEEES4_St9_IdentityIS4_ESt4lessIS4_ESaIS4_EE8_M_eraseEPSt13_Rb_tree_nodeIS4_E, .-_ZNSt8_Rb_treeIPN7sigslot12_signal_baseINS0_15single_threadedEEES4_St9_IdentityIS4_ESt4lessIS4_ESaIS4_EE8_M_eraseEPSt13_Rb_tree_nodeIS4_E
	.section	.text._ZN7sigslot9has_slotsINS_15single_threadedEED2Ev,"axG",@progbits,_ZN7sigslot9has_slotsINS_15single_threadedEED5Ev,comdat
	.align 2
	.weak	_ZN7sigslot9has_slotsINS_15single_threadedEED2Ev
	.type	_ZN7sigslot9has_slotsINS_15single_threadedEED2Ev, @function
_ZN7sigslot9has_slotsINS_15single_threadedEED2Ev:
.LFB1671:
	.loc 1 513 0
	.cfi_startproc
	.cfi_personality 0,__gxx_personality_v0
	.cfi_lsda 0,.LLSDA1671
.LVL482:
	mflr 0
	stwu 1,-32(1)
.LCFI136:
	.cfi_def_cfa_offset 32
	.cfi_register 65, 0
.LBB3689:
	.loc 1 516 0
	lis 9,_ZTVN7sigslot9has_slotsINS_15single_threadedEEE+8@ha
.LBE3689:
	.loc 1 513 0
	stw 28,16(1)
	addi 28,3,4
	.cfi_offset 28, -16
	stw 0,36(1)
.LBB3765:
	.loc 1 516 0
	la 0,_ZTVN7sigslot9has_slotsINS_15single_threadedEEE+8@l(9)
	.cfi_offset 65, 4
.LBE3765:
	.loc 1 513 0
	stw 29,20(1)
	mr 29,3
	.cfi_offset 29, -12
	stw 26,8(1)
	stw 27,12(1)
	stw 30,24(1)
	stw 31,28(1)
.LBB3766:
	.loc 1 516 0
	stw 0,0(3)
.LVL483:
.LEHB14:
.LBB3690:
.LBB3691:
.LBB3692:
.LBB3693:
	.loc 1 338 0
	.cfi_offset 31, -4
	.cfi_offset 30, -8
	.cfi_offset 27, -20
	.cfi_offset 26, -24
	bl _ZN7sigslot15single_threaded4lockEv
.LEHE14:
.LVL484:
.LBE3693:
.LBE3692:
.LBB3694:
	.loc 5 502 0
	lwz 31,16(29)
.LVL485:
.LBE3694:
.LBB3695:
.LBB3696:
.LBB3697:
	.loc 17 671 0
	addi 30,28,4
.LVL486:
.LBE3697:
.LBE3696:
.LBE3695:
	.loc 1 524 0
	cmpw 7,31,30
	beq- 7,.L365
.LVL487:
.L392:
	.loc 1 526 0
	lwz 3,16(31)
	mr 4,29
	lwz 9,0(3)
	lwz 0,16(9)
	mtctr 0
.LEHB15:
	bctrl
.LEHE15:
.LVL488:
.LBB3698:
.LBB3699:
	.loc 17 269 0
	mr 3,31
	bl _ZSt18_Rb_tree_incrementPKSt18_Rb_tree_node_base
.LBE3699:
.LBE3698:
	.loc 1 524 0
	cmpw 7,30,3
.LBB3701:
.LBB3700:
	.loc 17 269 0
	mr 31,3
.LVL489:
.LBE3700:
.LBE3701:
	.loc 1 524 0
	bne+ 7,.L392
	lwz 31,16(29)
.LVL490:
.L365:
.LBB3702:
.LBB3703:
.LBB3704:
.LBB3705:
.LBB3706:
.LBB3707:
.LBB3708:
	.loc 17 665 0
	addi 26,28,4
.LBE3708:
.LBE3707:
	.loc 17 1500 0
	cmpw 7,30,26
	beq- 7,.L367
.LVL491:
	.loc 17 1503 0
	cmpw 7,30,31
	bne+ 7,.L394
	b .L368
.LVL492:
.L389:
	.loc 17 277 0
	mr 31,27
.LVL493:
.L394:
.LBB3709:
.LBB3710:
	mr 3,31
	bl _ZSt18_Rb_tree_incrementPKSt18_Rb_tree_node_base
.LBE3710:
.LBE3709:
.LBB3712:
.LBB3713:
.LBB3714:
	.loc 17 1489 0
	mr 4,26
.LBE3714:
.LBE3713:
.LBE3712:
.LBB3723:
.LBB3711:
	.loc 17 277 0
	mr 27,3
.LVL494:
.LBE3711:
.LBE3723:
.LBB3724:
.LBB3721:
.LBB3719:
	.loc 17 1489 0
	mr 3,31
.LVL495:
	bl _ZSt28_Rb_tree_rebalance_for_erasePSt18_Rb_tree_node_baseRS_
.LBB3715:
.LBB3716:
.LBB3717:
.LBB3718:
	.loc 16 98 0
	bl _ZdlPv
.LBE3718:
.LBE3717:
.LBE3716:
.LBE3715:
.LBE3719:
.LBE3721:
.LBE3724:
	.loc 17 1503 0
	cmpw 7,30,27
.LBB3725:
.LBB3722:
.LBB3720:
	.loc 17 1491 0
	lwz 9,20(28)
	addi 0,9,-1
	stw 0,20(28)
.LBE3720:
.LBE3722:
.LBE3725:
	.loc 17 1503 0
	bne+ 7,.L389
.LVL496:
.L368:
.LBE3706:
.LBE3705:
.LBE3704:
.LBE3703:
.LBE3702:
.LBB3734:
.LBB3735:
.LBB3736:
	.loc 1 343 0
	lwz 9,0(29)
	mr 3,29
	lwz 0,12(9)
	mtctr 0
.LEHB16:
	bctrl
.LEHE16:
.LVL497:
.LBE3736:
.LBE3735:
.LBE3734:
.LBE3691:
.LBE3690:
.LBB3743:
.LBB3744:
.LBB3745:
.LBB3746:
.LBB3747:
	.loc 17 639 0
	lwz 4,12(29)
	mr 3,28
	bl _ZNSt8_Rb_treeIPN7sigslot12_signal_baseINS0_15single_threadedEEES4_St9_IdentityIS4_ESt4lessIS4_ESaIS4_EE8_M_eraseEPSt13_Rb_tree_nodeIS4_E
.LVL498:
.LBE3747:
.LBE3746:
.LBE3745:
.LBE3744:
.LBE3743:
.LBB3748:
.LBB3749:
.LBB3750:
	.loc 1 105 0
	lis 9,_ZTVN7sigslot15single_threadedE+8@ha
	la 0,_ZTVN7sigslot15single_threadedE+8@l(9)
.LBE3750:
.LBE3749:
.LBE3748:
.LBE3766:
	.loc 1 516 0
	lwz 26,8(1)
.LBB3767:
.LBB3753:
.LBB3752:
.LBB3751:
	.loc 1 105 0
	stw 0,0(29)
.LBE3751:
.LBE3752:
.LBE3753:
.LBE3767:
	.loc 1 516 0
	lwz 0,36(1)
	lwz 27,12(1)
	mtlr 0
	lwz 28,16(1)
.LVL499:
	lwz 29,20(1)
.LVL500:
	lwz 30,24(1)
.LVL501:
	lwz 31,28(1)
	addi 1,1,32
	.cfi_remember_state
.LCFI137:
	.cfi_def_cfa_offset 0
	.cfi_restore 31
	.cfi_restore 30
	.cfi_restore 29
	.cfi_restore 28
	.cfi_restore 27
	.cfi_restore 26
	blr
.LVL502:
.L367:
.LCFI138:
	.cfi_restore_state
.LBB3768:
.LBB3754:
.LBB3741:
.LBB3737:
.LBB3733:
.LBB3732:
.LBB3731:
.LBB3730:
.LBB3726:
.LBB3727:
.LBB3728:
.LBB3729:
	.loc 17 809 0
	lwz 4,12(29)
	mr 3,28
	bl _ZNSt8_Rb_treeIPN7sigslot12_signal_baseINS0_15single_threadedEEES4_St9_IdentityIS4_ESt4lessIS4_ESaIS4_EE8_M_eraseEPSt13_Rb_tree_nodeIS4_E
.LVL503:
	.loc 17 811 0
	li 0,0
	.loc 17 810 0
	stw 30,16(29)
.LVL504:
	.loc 17 811 0
	stw 0,12(29)
.LVL505:
	.loc 17 812 0
	stw 30,20(29)
	.loc 17 813 0
	stw 0,24(29)
	b .L368
.LVL506:
.L390:
	mr 31,3
.L375:
.LVL507:
.LBE3729:
.LBE3728:
.LBE3727:
.LBE3726:
.LBE3730:
.LBE3731:
.LBE3732:
.LBE3733:
.LBE3737:
.LBE3741:
.LBE3754:
.LBB3755:
.LBB3756:
.LBB3757:
.LBB3758:
.LBB3759:
.LBB3760:
	.loc 17 639 0
	lwz 4,12(29)
	mr 3,28
	bl _ZNSt8_Rb_treeIPN7sigslot12_signal_baseINS0_15single_threadedEEES4_St9_IdentityIS4_ESt4lessIS4_ESaIS4_EE8_M_eraseEPSt13_Rb_tree_nodeIS4_E
.LVL508:
.LBE3760:
.LBE3759:
.LBE3758:
.LBE3757:
.LBE3756:
.LBE3755:
.LBB3761:
.LBB3762:
.LBB3763:
	.loc 1 105 0
	lis 9,_ZTVN7sigslot15single_threadedE+8@ha
	la 0,_ZTVN7sigslot15single_threadedE+8@l(9)
	mr 3,31
	stw 0,0(29)
.LEHB17:
	bl _Unwind_Resume
.LEHE17:
.LVL509:
.L391:
.LBE3763:
.LBE3762:
.LBE3761:
.LBB3764:
.LBB3742:
.LBB3738:
.LBB3739:
.LBB3740:
	.loc 1 343 0
	lwz 9,0(29)
	mr 31,3
.LVL510:
	mr 3,29
	lwz 0,12(9)
	mtctr 0
	bctrl
	b .L375
.LBE3740:
.LBE3739:
.LBE3738:
.LBE3742:
.LBE3764:
.LBE3768:
	.cfi_endproc
.LFE1671:
	.section	.gcc_except_table
.LLSDA1671:
	.byte	0xff
	.byte	0xff
	.byte	0x1
	.uleb128 .LLSDACSE1671-.LLSDACSB1671
.LLSDACSB1671:
	.uleb128 .LEHB14-.LFB1671
	.uleb128 .LEHE14-.LEHB14
	.uleb128 .L390-.LFB1671
	.uleb128 0
	.uleb128 .LEHB15-.LFB1671
	.uleb128 .LEHE15-.LEHB15
	.uleb128 .L391-.LFB1671
	.uleb128 0
	.uleb128 .LEHB16-.LFB1671
	.uleb128 .LEHE16-.LEHB16
	.uleb128 .L390-.LFB1671
	.uleb128 0
	.uleb128 .LEHB17-.LFB1671
	.uleb128 .LEHE17-.LEHB17
	.uleb128 0
	.uleb128 0
.LLSDACSE1671:
	.section	.text._ZN7sigslot9has_slotsINS_15single_threadedEED2Ev,"axG",@progbits,_ZN7sigslot9has_slotsINS_15single_threadedEED5Ev,comdat
	.size	_ZN7sigslot9has_slotsINS_15single_threadedEED2Ev, .-_ZN7sigslot9has_slotsINS_15single_threadedEED2Ev
	.section	".text"
	.align 2
	.globl _ZThn188_N11MusicPlayerD1Ev
	.type	_ZThn188_N11MusicPlayerD1Ev, @function
_ZThn188_N11MusicPlayerD1Ev:
.LFB2332:
	.cfi_startproc
	addi 3,3,-188
	b .LTHUNK0
	.cfi_endproc
.LFE2332:
	.size	_ZThn188_N11MusicPlayerD1Ev, .-_ZThn188_N11MusicPlayerD1Ev
	.align 2
	.globl _ZThn176_N11MusicPlayerD1Ev
	.type	_ZThn176_N11MusicPlayerD1Ev, @function
_ZThn176_N11MusicPlayerD1Ev:
.LFB2333:
	.cfi_startproc
	addi 3,3,-176
	b .LTHUNK1
	.cfi_endproc
.LFE2333:
	.size	_ZThn176_N11MusicPlayerD1Ev, .-_ZThn176_N11MusicPlayerD1Ev
	.align 2
	.globl _ZN11MusicPlayerD2Ev
	.type	_ZN11MusicPlayerD2Ev, @function
_ZN11MusicPlayerD2Ev:
.LFB1613:
	.loc 5 87 0
	.cfi_startproc
	.cfi_personality 0,__gxx_personality_v0
	.cfi_lsda 0,.LLSDA1613
.LVL511:
	mflr 0
	stwu 1,-48(1)
.LCFI139:
	.cfi_def_cfa_offset 48
	.cfi_register 65, 0
.LBB3915:
	lis 9,_ZTV11MusicPlayer+8@ha
	la 9,_ZTV11MusicPlayer+8@l(9)
.LBE3915:
	stw 27,28(1)
	stw 0,52(1)
.LBB4095:
	addi 0,9,280
	.cfi_offset 65, 4
	.cfi_offset 27, -20
.LBE4095:
	stw 30,40(1)
.LBB4096:
	addi 11,9,232
.LBE4096:
	stw 28,32(1)
	mr 30,3
	.cfi_offset 28, -16
	.cfi_offset 30, -8
	stw 29,36(1)
	addi 27,3,176
	stw 31,44(1)
.LBB4097:
	.loc 5 87 0
	stw 0,188(3)
	.loc 5 89 0
	li 0,1
	.loc 5 87 0
	stw 9,0(3)
	stw 11,176(3)
	.loc 5 89 0
	stb 0,220(3)
.LEHB18:
	.loc 5 91 0
	.cfi_offset 31, -4
	.cfi_offset 29, -12
	bl _ZN11MusicPlayer4HideEv
.LVL512:
.LBB3916:
.LBB3917:
	.loc 4 65 0
	lwz 0,180(30)
.LVL513:
	cmpwi 7,0,-1
	beq- 7,.L397
	.loc 4 67 0
	lwz 9,176(30)
	mr 3,27
	lwz 0,24(9)
	mtctr 0
	bctrl
	.loc 4 68 0
	lwz 3,180(30)
	li 4,0
	bl LWP_JoinThread
.L397:
	.loc 4 71 0
	lwz 3,184(30)
	cmpwi 7,3,0
	beq- 7,.L398
	.loc 4 72 0
	bl free
.L398:
.LBE3917:
.LBE3916:
	.loc 5 95 0
	lwz 3,240(30)
.LBB3920:
.LBB3918:
	.loc 4 74 0
	li 0,-1
	stw 0,180(30)
	.loc 4 75 0
	li 0,0
.LBE3918:
.LBE3920:
	.loc 5 95 0
	cmpwi 7,3,0
.LBB3921:
.LBB3919:
	.loc 4 75 0
	stw 0,184(30)
.LBE3919:
.LBE3921:
	.loc 5 95 0
	beq- 7,.L399
	.loc 5 96 0
	bl _ZN9Resources6RemoveEP8GuiSound
.LEHE18:
.L399:
.LVL514:
.LBB3922:
.LBB3923:
.LBB3924:
.LBB3925:
.LBB3926:
.LBB3927:
	.loc 8 288 0
	lwz 9,620(30)
.LBE3927:
.LBE3926:
.LBE3925:
.LBB3928:
.LBB3929:
	.loc 8 235 0
	lis 31,_ZNSs4_Rep20_S_empty_rep_storageE@ha
	la 31,_ZNSs4_Rep20_S_empty_rep_storageE@l(31)
.LBE3929:
.LBE3928:
	.loc 8 534 0
	addi 3,9,-12
.LVL515:
.LBB3938:
.LBB3936:
	.loc 8 235 0
	cmpw 7,3,31
	bne- 7,.L455
.LVL516:
.L405:
.LBE3936:
.LBE3938:
.LBE3924:
.LBE3923:
.LBE3922:
	.loc 5 87 0
	addi 3,30,256
.LEHB19:
	bl _ZN8PlayListD1Ev
.LEHE19:
.LVL517:
.LBB3942:
.LBB3943:
.LBB3944:
.LBB3945:
.LBB3946:
.LBB3947:
	.loc 8 288 0 discriminator 2
	lwz 9,224(30)
.LBE3947:
.LBE3946:
.LBE3945:
	.loc 8 534 0 discriminator 2
	addi 3,9,-12
.LVL518:
.LBB3948:
.LBB3949:
	.loc 8 235 0 discriminator 2
	cmpw 7,3,31
	bne- 7,.L456
.LVL519:
.L411:
.LBE3949:
.LBE3948:
.LBE3944:
.LBE3943:
.LBE3942:
.LBB3960:
.LBB3961:
.LBB3962:
	.loc 1 516 0 discriminator 2
	lis 9,_ZTVN7sigslot9has_slotsINS_15single_threadedEEE+8@ha
.LBE3962:
.LBE3961:
.LBE3960:
	.loc 5 87 0 discriminator 2
	addi 28,30,188
.LVL520:
.LBB4062:
.LBB4057:
.LBB4052:
	.loc 1 516 0 discriminator 2
	la 0,_ZTVN7sigslot9has_slotsINS_15single_threadedEEE+8@l(9)
.LBB3963:
.LBB3964:
.LBB3965:
.LBB3966:
	.loc 1 338 0 discriminator 2
	mr 3,28
.LBE3966:
.LBE3965:
.LBE3964:
.LBE3963:
	.loc 1 516 0 discriminator 2
	stw 0,188(30)
.LVL521:
	addi 31,30,192
.LEHB20:
.LBB4018:
.LBB4016:
.LBB3968:
.LBB3967:
	.loc 1 338 0 discriminator 2
	bl _ZN7sigslot15single_threaded4lockEv
.LEHE20:
.LVL522:
.LBE3967:
.LBE3968:
.LBB3969:
	.loc 5 502 0
	lwz 31,204(30)
.LVL523:
.LBE3969:
.LBB3970:
.LBB3971:
.LBB3972:
	.loc 17 671 0
	addi 29,30,196
.LVL524:
.LBE3972:
.LBE3971:
.LBE3970:
	.loc 1 524 0
	cmpw 7,31,29
	beq- 7,.L412
.LVL525:
.L451:
	.loc 1 526 0
	lwz 3,16(31)
	mr 4,28
	lwz 9,0(3)
	lwz 0,16(9)
	mtctr 0
.LEHB21:
	bctrl
.LEHE21:
.LVL526:
.LBB3973:
.LBB3974:
	.loc 17 269 0
	mr 3,31
	bl _ZSt18_Rb_tree_incrementPKSt18_Rb_tree_node_base
.LBE3974:
.LBE3973:
	.loc 1 524 0
	cmpw 7,29,3
.LBB3976:
.LBB3975:
	.loc 17 269 0
	mr 31,3
.LVL527:
.LBE3975:
.LBE3976:
	.loc 1 524 0
	bne+ 7,.L451
.LVL528:
.L412:
.LBB3977:
.LBB3978:
	.file 18 "d:\\devkitpro\\devkitppc\\bin\\../lib/gcc/powerpc-eabi/4.6.3/../../../../powerpc-eabi/include/c++/4.6.3/bits/stl_set.h"
	.loc 18 562 0
	addi 31,30,192
.LVL529:
.LBB3979:
.LBB3980:
.LBB3981:
.LBB3982:
.LBB3983:
.LBB3984:
.LBB3985:
	.loc 17 809 0
	lwz 4,200(30)
	mr 3,31
	bl _ZNSt8_Rb_treeIPN7sigslot12_signal_baseINS0_15single_threadedEEES4_St9_IdentityIS4_ESt4lessIS4_ESaIS4_EE8_M_eraseEPSt13_Rb_tree_nodeIS4_E
.LVL530:
	.loc 17 811 0
	li 0,0
	.loc 17 810 0
	stw 29,204(30)
.LVL531:
.LBE3985:
.LBE3984:
.LBE3983:
.LBE3982:
.LBE3981:
.LBE3980:
.LBE3979:
.LBE3978:
.LBE3977:
.LBB4002:
.LBB4003:
.LBB4004:
	.loc 1 343 0
	mr 3,28
.LBE4004:
.LBE4003:
.LBE4002:
.LBB4009:
.LBB4000:
.LBB3998:
.LBB3996:
.LBB3994:
.LBB3992:
.LBB3990:
.LBB3988:
.LBB3986:
	.loc 17 811 0
	stw 0,200(30)
.LVL532:
	.loc 17 812 0
	stw 29,208(30)
.LBE3986:
.LBE3988:
.LBE3990:
.LBE3992:
.LBE3994:
.LBE3996:
.LBE3998:
.LBE4000:
.LBE4009:
.LBB4010:
.LBB4007:
.LBB4005:
	.loc 1 343 0
	lwz 9,188(30)
.LBE4005:
.LBE4007:
.LBE4010:
.LBB4011:
.LBB4001:
.LBB3999:
.LBB3997:
.LBB3995:
.LBB3993:
.LBB3991:
.LBB3989:
.LBB3987:
	.loc 17 813 0
	stw 0,212(30)
.LVL533:
.LBE3987:
.LBE3989:
.LBE3991:
.LBE3993:
.LBE3995:
.LBE3997:
.LBE3999:
.LBE4001:
.LBE4011:
.LBB4012:
.LBB4008:
.LBB4006:
	.loc 1 343 0
	lwz 0,12(9)
	mtctr 0
.LEHB22:
	bctrl
.LEHE22:
.LVL534:
.LBE4006:
.LBE4008:
.LBE4012:
.LBE4016:
.LBE4018:
.LBB4019:
.LBB4020:
.LBB4021:
.LBB4022:
.LBB4023:
	.loc 17 639 0
	lwz 4,200(30)
	mr 3,31
	bl _ZNSt8_Rb_treeIPN7sigslot12_signal_baseINS0_15single_threadedEEES4_St9_IdentityIS4_ESt4lessIS4_ESaIS4_EE8_M_eraseEPSt13_Rb_tree_nodeIS4_E
.LBE4023:
.LBE4022:
.LBE4021:
.LBE4020:
.LBE4019:
.LBE4052:
.LBE4057:
.LBE4062:
.LBB4063:
.LBB4064:
.LBB4065:
.LBB4066:
.LBB4067:
	.loc 4 65 0
	lwz 0,180(30)
.LBE4067:
.LBE4066:
.LBE4065:
.LBE4064:
.LBE4063:
.LBB4082:
.LBB4058:
.LBB4053:
.LBB4024:
.LBB4025:
.LBB4026:
	.loc 1 105 0
	lis 9,_ZTVN7sigslot15single_threadedE+8@ha
.LBE4026:
.LBE4025:
.LBE4024:
.LBE4053:
.LBE4058:
.LBE4082:
.LBB4083:
.LBB4078:
.LBB4074:
.LBB4071:
.LBB4068:
	.loc 4 65 0
	cmpwi 7,0,-1
.LBE4068:
.LBE4071:
.LBE4074:
.LBE4078:
.LBE4083:
.LBB4084:
.LBB4059:
.LBB4054:
.LBB4031:
.LBB4029:
.LBB4027:
	.loc 1 105 0
	la 0,_ZTVN7sigslot15single_threadedE+8@l(9)
.LBE4027:
.LBE4029:
.LBE4031:
.LBE4054:
.LBE4059:
.LBE4084:
.LBB4085:
.LBB4079:
.LBB4075:
	.loc 4 45 0
	lis 9,_ZTV6Thread+8@ha
.LBE4075:
.LBE4079:
.LBE4085:
.LBB4086:
.LBB4060:
.LBB4055:
.LBB4032:
.LBB4030:
.LBB4028:
	.loc 1 105 0
	stw 0,188(30)
.LVL535:
.LBE4028:
.LBE4030:
.LBE4032:
.LBE4055:
.LBE4060:
.LBE4086:
.LBB4087:
.LBB4080:
.LBB4076:
	.loc 4 45 0
	la 0,_ZTV6Thread+8@l(9)
	stw 0,176(30)
.LVL536:
.LBB4072:
.LBB4069:
	.loc 4 65 0
	beq- 7,.L437
	.loc 4 67 0
	mr 3,27
.LEHB23:
	bl _ZN6Thread12resumeThreadEv
	.loc 4 68 0
	lwz 3,180(30)
	li 4,0
	bl LWP_JoinThread
.LEHE23:
.L437:
	.loc 4 71 0
	lwz 3,184(30)
	cmpwi 7,3,0
	beq- 7,.L438
	.loc 4 72 0
	bl free
.L438:
	.loc 4 74 0
	li 0,-1
.LBE4069:
.LBE4072:
.LBE4076:
.LBE4080:
.LBE4087:
	.loc 5 87 0
	mr 3,30
.LBB4088:
.LBB4081:
.LBB4077:
.LBB4073:
.LBB4070:
	.loc 4 74 0
	stw 0,180(30)
	.loc 4 75 0
	li 0,0
	stw 0,184(30)
.LEHB24:
.LBE4070:
.LBE4073:
.LBE4077:
.LBE4081:
.LBE4088:
	.loc 5 87 0
	bl _ZN8GuiFrameD2Ev
.LEHE24:
.LBE4097:
	.loc 5 97 0
	lwz 0,52(1)
	lwz 27,28(1)
.LVL537:
	mtlr 0
	lwz 28,32(1)
.LVL538:
	lwz 29,36(1)
.LVL539:
	lwz 30,40(1)
.LVL540:
	lwz 31,44(1)
.LVL541:
	addi 1,1,48
	.cfi_remember_state
.LCFI140:
	.cfi_def_cfa_offset 0
	.cfi_restore 31
	.cfi_restore 30
	.cfi_restore 29
	.cfi_restore 28
	.cfi_restore 27
	blr
.LVL542:
.L446:
.LCFI141:
	.cfi_restore_state
	mr 31,3
.LBB4098:
	.loc 5 87 0
	addi 3,30,620
	bl _ZNSsD1Ev
	addi 3,30,256
	bl _ZN8PlayListD1Ev
.L442:
	addi 3,30,224
	bl _ZNSsD1Ev
	addi 3,30,188
	bl _ZN7sigslot9has_slotsINS_15single_threadedEED2Ev
.L435:
.LVL543:
.LBB4089:
.LBB4090:
.LBB4091:
	.loc 4 45 0
	lis 9,_ZTV6Thread+8@ha
	mr 3,27
	la 0,_ZTV6Thread+8@l(9)
	stw 0,176(30)
	bl _ZN6Thread14shutdownThreadEv
.LVL544:
.L444:
.LBE4091:
.LBE4090:
.LBE4089:
	.loc 5 87 0
	mr 3,30
	bl _ZN8GuiFrameD2Ev
	mr 3,31
.LEHB25:
	bl _Unwind_Resume
.LEHE25:
.LVL545:
.L448:
	mr 31,3
.LVL546:
	b .L444
.LVL547:
.L450:
.LBB4092:
.LBB4061:
.LBB4056:
.LBB4033:
.LBB4017:
.LBB4013:
.LBB4014:
.LBB4015:
	.loc 1 343 0
	lwz 9,188(30)
	mr 29,3
.LVL548:
	mr 3,28
	addi 31,30,192
.LVL549:
	lwz 0,12(9)
	mtctr 0
	bctrl
.LVL550:
.L422:
.LBE4015:
.LBE4014:
.LBE4013:
.LBE4017:
.LBE4033:
.LBB4034:
.LBB4035:
.LBB4036:
.LBB4037:
.LBB4038:
.LBB4039:
	.loc 17 639 0
	lwz 4,200(30)
	mr 3,31
.LBE4039:
.LBE4038:
.LBE4037:
.LBE4036:
.LBE4035:
.LBE4034:
.LBB4045:
.LBB4046:
.LBB4047:
	.loc 1 105 0
	mr 31,29
.LBE4047:
.LBE4046:
.LBE4045:
.LBB4050:
.LBB4044:
.LBB4043:
.LBB4042:
.LBB4041:
.LBB4040:
	.loc 17 639 0
	bl _ZNSt8_Rb_treeIPN7sigslot12_signal_baseINS0_15single_threadedEEES4_St9_IdentityIS4_ESt4lessIS4_ESaIS4_EE8_M_eraseEPSt13_Rb_tree_nodeIS4_E
.LBE4040:
.LBE4041:
.LBE4042:
.LBE4043:
.LBE4044:
.LBE4050:
.LBB4051:
.LBB4049:
.LBB4048:
	.loc 1 105 0
	lis 9,_ZTVN7sigslot15single_threadedE+8@ha
	la 0,_ZTVN7sigslot15single_threadedE+8@l(9)
	stw 0,188(30)
	b .L435
.LVL551:
.L449:
	mr 29,3
	b .L422
.LVL552:
.L456:
.LBE4048:
.LBE4049:
.LBE4051:
.LBE4056:
.LBE4061:
.LBE4092:
.LBB4093:
.LBB3959:
.LBB3958:
.LBB3957:
.LBB3956:
.LBB3950:
.LBB3951:
.LBB3952:
	.loc 9 66 0
	lwz 11,-4(9)
.LVL553:
.LBE3952:
.LBE3951:
.LBE3950:
	.loc 8 240 0
	cmpwi 7,11,0
.LBB3955:
.LBB3954:
.LBB3953:
	.loc 9 67 0
	addi 11,11,-1
	stw 11,-4(9)
.LBE3953:
.LBE3954:
.LBE3955:
	.loc 8 240 0
	bgt+ 7,.L411
	.loc 8 244 0
	addi 4,1,8
	bl _ZNSs4_Rep10_M_destroyERKSaIcE
.LVL554:
	b .L411
.LVL555:
.L447:
	mr 31,3
	b .L442
.LVL556:
.L455:
.LBE3956:
.LBE3957:
.LBE3958:
.LBE3959:
.LBE4093:
.LBB4094:
.LBB3941:
.LBB3940:
.LBB3939:
.LBB3937:
.LBB3930:
.LBB3931:
.LBB3932:
	.loc 9 66 0
	lwz 11,-4(9)
.LVL557:
.LBE3932:
.LBE3931:
.LBE3930:
	.loc 8 240 0
	cmpwi 7,11,0
.LBB3935:
.LBB3934:
.LBB3933:
	.loc 9 67 0
	addi 11,11,-1
	stw 11,-4(9)
.LBE3933:
.LBE3934:
.LBE3935:
	.loc 8 240 0
	bgt+ 7,.L405
	.loc 8 244 0
	addi 4,1,9
	bl _ZNSs4_Rep10_M_destroyERKSaIcE
.LVL558:
	b .L405
.LBE3937:
.LBE3939:
.LBE3940:
.LBE3941:
.LBE4094:
.LBE4098:
	.cfi_endproc
.LFE1613:
	.section	.gcc_except_table
.LLSDA1613:
	.byte	0xff
	.byte	0xff
	.byte	0x1
	.uleb128 .LLSDACSE1613-.LLSDACSB1613
.LLSDACSB1613:
	.uleb128 .LEHB18-.LFB1613
	.uleb128 .LEHE18-.LEHB18
	.uleb128 .L446-.LFB1613
	.uleb128 0
	.uleb128 .LEHB19-.LFB1613
	.uleb128 .LEHE19-.LEHB19
	.uleb128 .L447-.LFB1613
	.uleb128 0
	.uleb128 .LEHB20-.LFB1613
	.uleb128 .LEHE20-.LEHB20
	.uleb128 .L449-.LFB1613
	.uleb128 0
	.uleb128 .LEHB21-.LFB1613
	.uleb128 .LEHE21-.LEHB21
	.uleb128 .L450-.LFB1613
	.uleb128 0
	.uleb128 .LEHB22-.LFB1613
	.uleb128 .LEHE22-.LEHB22
	.uleb128 .L449-.LFB1613
	.uleb128 0
	.uleb128 .LEHB23-.LFB1613
	.uleb128 .LEHE23-.LEHB23
	.uleb128 .L448-.LFB1613
	.uleb128 0
	.uleb128 .LEHB24-.LFB1613
	.uleb128 .LEHE24-.LEHB24
	.uleb128 0
	.uleb128 0
	.uleb128 .LEHB25-.LFB1613
	.uleb128 .LEHE25-.LEHB25
	.uleb128 0
	.uleb128 0
.LLSDACSE1613:
	.section	".text"
	.size	_ZN11MusicPlayerD2Ev, .-_ZN11MusicPlayerD2Ev
	.align 2
	.globl _ZThn188_N11MusicPlayerD0Ev
	.type	_ZThn188_N11MusicPlayerD0Ev, @function
_ZThn188_N11MusicPlayerD0Ev:
.LFB2334:
	.cfi_startproc
	addi 3,3,-188
	b .LTHUNK2
	.cfi_endproc
.LFE2334:
	.size	_ZThn188_N11MusicPlayerD0Ev, .-_ZThn188_N11MusicPlayerD0Ev
	.align 2
	.globl _ZThn176_N11MusicPlayerD0Ev
	.type	_ZThn176_N11MusicPlayerD0Ev, @function
_ZThn176_N11MusicPlayerD0Ev:
.LFB2335:
	.cfi_startproc
	addi 3,3,-176
	b .LTHUNK3
	.cfi_endproc
.LFE2335:
	.size	_ZThn176_N11MusicPlayerD0Ev, .-_ZThn176_N11MusicPlayerD0Ev
	.align 2
	.globl _ZN11MusicPlayerD0Ev
	.type	_ZN11MusicPlayerD0Ev, @function
_ZN11MusicPlayerD0Ev:
.LFB1615:
	.loc 5 87 0
	.cfi_startproc
.LVL559:
	stwu 1,-16(1)
.LCFI142:
	.cfi_def_cfa_offset 16
	mflr 0
	stw 31,12(1)
	mr 31,3
	.cfi_offset 31, -4
	.cfi_register 65, 0
	stw 0,20(1)
	.loc 5 97 0
	.cfi_offset 65, 4
	bl _ZN11MusicPlayerD1Ev
.LVL560:
	mr 3,31
	bl _ZdlPv
	lwz 0,20(1)
	lwz 31,12(1)
.LVL561:
	mtlr 0
	addi 1,1,16
.LCFI143:
	.cfi_def_cfa_offset 0
	.cfi_restore 31
	blr
	.cfi_endproc
.LFE1615:
	.size	_ZN11MusicPlayerD0Ev, .-_ZN11MusicPlayerD0Ev
	.section	.text._ZN7sigslot9has_slotsINS_15single_threadedEED0Ev,"axG",@progbits,_ZN7sigslot9has_slotsINS_15single_threadedEED5Ev,comdat
	.align 2
	.weak	_ZN7sigslot9has_slotsINS_15single_threadedEED0Ev
	.type	_ZN7sigslot9has_slotsINS_15single_threadedEED0Ev, @function
_ZN7sigslot9has_slotsINS_15single_threadedEED0Ev:
.LFB1673:
	.loc 1 513 0
	.cfi_startproc
	.cfi_personality 0,__gxx_personality_v0
	.cfi_lsda 0,.LLSDA1673
.LVL562:
	mflr 0
	stwu 1,-32(1)
.LCFI144:
	.cfi_def_cfa_offset 32
	.cfi_register 65, 0
.LBB4192:
.LBB4193:
.LBB4194:
	.loc 1 516 0
	lis 9,_ZTVN7sigslot9has_slotsINS_15single_threadedEEE+8@ha
.LBE4194:
.LBE4193:
.LBE4192:
	.loc 1 513 0
	stw 28,16(1)
	addi 28,3,4
	.cfi_offset 28, -16
	stw 0,36(1)
.LBB4278:
.LBB4274:
.LBB4270:
	.loc 1 516 0
	la 0,_ZTVN7sigslot9has_slotsINS_15single_threadedEEE+8@l(9)
	.cfi_offset 65, 4
.LBE4270:
.LBE4274:
.LBE4278:
	.loc 1 513 0
	stw 29,20(1)
	mr 29,3
	.cfi_offset 29, -12
.LVL563:
	stw 26,8(1)
	stw 27,12(1)
	stw 30,24(1)
	stw 31,28(1)
.LBB4279:
.LBB4275:
.LBB4271:
	.loc 1 516 0
	stw 0,0(3)
.LVL564:
.LEHB26:
.LBB4195:
.LBB4196:
.LBB4197:
.LBB4198:
	.loc 1 338 0
	.cfi_offset 31, -4
	.cfi_offset 30, -8
	.cfi_offset 27, -20
	.cfi_offset 26, -24
	bl _ZN7sigslot15single_threaded4lockEv
.LEHE26:
.LVL565:
.LBE4198:
.LBE4197:
.LBB4199:
	.loc 5 502 0
	lwz 31,16(29)
.LVL566:
.LBE4199:
.LBB4200:
.LBB4201:
.LBB4202:
	.loc 17 671 0
	addi 30,28,4
.LVL567:
.LBE4202:
.LBE4201:
.LBE4200:
	.loc 1 524 0
	cmpw 7,31,30
	beq- 7,.L460
.LVL568:
.L488:
	.loc 1 526 0
	lwz 3,16(31)
	mr 4,29
	lwz 9,0(3)
	lwz 0,16(9)
	mtctr 0
.LEHB27:
	bctrl
.LEHE27:
.LVL569:
.LBB4203:
.LBB4204:
	.loc 17 269 0
	mr 3,31
	bl _ZSt18_Rb_tree_incrementPKSt18_Rb_tree_node_base
.LBE4204:
.LBE4203:
	.loc 1 524 0
	cmpw 7,30,3
.LBB4206:
.LBB4205:
	.loc 17 269 0
	mr 31,3
.LVL570:
.LBE4205:
.LBE4206:
	.loc 1 524 0
	bne+ 7,.L488
	lwz 31,16(29)
.LVL571:
.L460:
.LBB4207:
.LBB4208:
.LBB4209:
.LBB4210:
.LBB4211:
.LBB4212:
.LBB4213:
	.loc 17 665 0
	addi 26,28,4
.LBE4213:
.LBE4212:
	.loc 17 1500 0
	cmpw 7,30,26
	beq- 7,.L462
.LVL572:
	.loc 17 1503 0
	cmpw 7,30,31
	bne+ 7,.L490
	b .L463
.LVL573:
.L485:
	.loc 17 277 0
	mr 31,27
.LVL574:
.L490:
.LBB4214:
.LBB4215:
	mr 3,31
	bl _ZSt18_Rb_tree_incrementPKSt18_Rb_tree_node_base
.LBE4215:
.LBE4214:
.LBB4217:
.LBB4218:
.LBB4219:
	.loc 17 1489 0
	mr 4,26
.LBE4219:
.LBE4218:
.LBE4217:
.LBB4228:
.LBB4216:
	.loc 17 277 0
	mr 27,3
.LVL575:
.LBE4216:
.LBE4228:
.LBB4229:
.LBB4226:
.LBB4224:
	.loc 17 1489 0
	mr 3,31
.LVL576:
	bl _ZSt28_Rb_tree_rebalance_for_erasePSt18_Rb_tree_node_baseRS_
.LBB4220:
.LBB4221:
.LBB4222:
.LBB4223:
	.loc 16 98 0
	bl _ZdlPv
.LBE4223:
.LBE4222:
.LBE4221:
.LBE4220:
.LBE4224:
.LBE4226:
.LBE4229:
	.loc 17 1503 0
	cmpw 7,30,27
.LBB4230:
.LBB4227:
.LBB4225:
	.loc 17 1491 0
	lwz 9,20(28)
	addi 0,9,-1
	stw 0,20(28)
.LBE4225:
.LBE4227:
.LBE4230:
	.loc 17 1503 0
	bne+ 7,.L485
.LVL577:
.L463:
.LBE4211:
.LBE4210:
.LBE4209:
.LBE4208:
.LBE4207:
.LBB4239:
.LBB4240:
.LBB4241:
	.loc 1 343 0
	lwz 9,0(29)
	mr 3,29
	lwz 0,12(9)
	mtctr 0
.LEHB28:
	bctrl
.LEHE28:
.LVL578:
.LBE4241:
.LBE4240:
.LBE4239:
.LBE4196:
.LBE4195:
.LBB4248:
.LBB4249:
.LBB4250:
.LBB4251:
.LBB4252:
	.loc 17 639 0
	lwz 4,12(29)
	mr 3,28
	bl _ZNSt8_Rb_treeIPN7sigslot12_signal_baseINS0_15single_threadedEEES4_St9_IdentityIS4_ESt4lessIS4_ESaIS4_EE8_M_eraseEPSt13_Rb_tree_nodeIS4_E
.LVL579:
.LBE4252:
.LBE4251:
.LBE4250:
.LBE4249:
.LBE4248:
.LBB4253:
.LBB4254:
.LBB4255:
	.loc 1 105 0
	lis 9,_ZTVN7sigslot15single_threadedE+8@ha
	la 0,_ZTVN7sigslot15single_threadedE+8@l(9)
.LBE4255:
.LBE4254:
.LBE4253:
.LBE4271:
.LBE4275:
.LBE4279:
	.loc 1 516 0
	mr 3,29
.LBB4280:
.LBB4276:
.LBB4272:
.LBB4258:
.LBB4257:
.LBB4256:
	.loc 1 105 0
	stw 0,0(29)
.LBE4256:
.LBE4257:
.LBE4258:
.LBE4272:
.LBE4276:
.LBE4280:
	.loc 1 516 0
	bl _ZdlPv
	lwz 0,36(1)
	lwz 26,8(1)
	mtlr 0
	lwz 27,12(1)
	lwz 28,16(1)
.LVL580:
	lwz 29,20(1)
.LVL581:
	lwz 30,24(1)
.LVL582:
	lwz 31,28(1)
	addi 1,1,32
	.cfi_remember_state
.LCFI145:
	.cfi_def_cfa_offset 0
	.cfi_restore 31
	.cfi_restore 30
	.cfi_restore 29
	.cfi_restore 28
	.cfi_restore 27
	.cfi_restore 26
	blr
.LVL583:
.L462:
.LCFI146:
	.cfi_restore_state
.LBB4281:
.LBB4277:
.LBB4273:
.LBB4259:
.LBB4246:
.LBB4242:
.LBB4238:
.LBB4237:
.LBB4236:
.LBB4235:
.LBB4231:
.LBB4232:
.LBB4233:
.LBB4234:
	.loc 17 809 0
	lwz 4,12(29)
	mr 3,28
	bl _ZNSt8_Rb_treeIPN7sigslot12_signal_baseINS0_15single_threadedEEES4_St9_IdentityIS4_ESt4lessIS4_ESaIS4_EE8_M_eraseEPSt13_Rb_tree_nodeIS4_E
.LVL584:
	.loc 17 811 0
	li 0,0
	.loc 17 810 0
	stw 30,16(29)
.LVL585:
	.loc 17 811 0
	stw 0,12(29)
.LVL586:
	.loc 17 812 0
	stw 30,20(29)
	.loc 17 813 0
	stw 0,24(29)
	b .L463
.LVL587:
.L486:
	mr 31,3
.L470:
.LVL588:
.LBE4234:
.LBE4233:
.LBE4232:
.LBE4231:
.LBE4235:
.LBE4236:
.LBE4237:
.LBE4238:
.LBE4242:
.LBE4246:
.LBE4259:
.LBB4260:
.LBB4261:
.LBB4262:
.LBB4263:
.LBB4264:
.LBB4265:
	.loc 17 639 0
	lwz 4,12(29)
	mr 3,28
	bl _ZNSt8_Rb_treeIPN7sigslot12_signal_baseINS0_15single_threadedEEES4_St9_IdentityIS4_ESt4lessIS4_ESaIS4_EE8_M_eraseEPSt13_Rb_tree_nodeIS4_E
.LVL589:
.LBE4265:
.LBE4264:
.LBE4263:
.LBE4262:
.LBE4261:
.LBE4260:
.LBB4266:
.LBB4267:
.LBB4268:
	.loc 1 105 0
	lis 9,_ZTVN7sigslot15single_threadedE+8@ha
	la 0,_ZTVN7sigslot15single_threadedE+8@l(9)
	mr 3,31
	stw 0,0(29)
.LEHB29:
	bl _Unwind_Resume
.LEHE29:
.LVL590:
.L487:
.LBE4268:
.LBE4267:
.LBE4266:
.LBB4269:
.LBB4247:
.LBB4243:
.LBB4244:
.LBB4245:
	.loc 1 343 0
	lwz 9,0(29)
	mr 31,3
.LVL591:
	mr 3,29
	lwz 0,12(9)
	mtctr 0
	bctrl
	b .L470
.LBE4245:
.LBE4244:
.LBE4243:
.LBE4247:
.LBE4269:
.LBE4273:
.LBE4277:
.LBE4281:
	.cfi_endproc
.LFE1673:
	.section	.gcc_except_table
.LLSDA1673:
	.byte	0xff
	.byte	0xff
	.byte	0x1
	.uleb128 .LLSDACSE1673-.LLSDACSB1673
.LLSDACSB1673:
	.uleb128 .LEHB26-.LFB1673
	.uleb128 .LEHE26-.LEHB26
	.uleb128 .L486-.LFB1673
	.uleb128 0
	.uleb128 .LEHB27-.LFB1673
	.uleb128 .LEHE27-.LEHB27
	.uleb128 .L487-.LFB1673
	.uleb128 0
	.uleb128 .LEHB28-.LFB1673
	.uleb128 .LEHE28-.LEHB28
	.uleb128 .L486-.LFB1673
	.uleb128 0
	.uleb128 .LEHB29-.LFB1673
	.uleb128 .LEHE29-.LEHB29
	.uleb128 0
	.uleb128 0
.LLSDACSE1673:
	.section	.text._ZN7sigslot9has_slotsINS_15single_threadedEED0Ev,"axG",@progbits,_ZN7sigslot9has_slotsINS_15single_threadedEED5Ev,comdat
	.size	_ZN7sigslot9has_slotsINS_15single_threadedEED0Ev, .-_ZN7sigslot9has_slotsINS_15single_threadedEED0Ev
	.section	.text._ZNSt8_Rb_treeIPN7sigslot12_signal_baseINS0_15single_threadedEEES4_St9_IdentityIS4_ESt4lessIS4_ESaIS4_EE16_M_insert_uniqueERKS4_,"axG",@progbits,_ZNSt8_Rb_treeIPN7sigslot12_signal_baseINS0_15single_threadedEEES4_St9_IdentityIS4_ESt4lessIS4_ESaIS4_EE16_M_insert_uniqueERKS4_,comdat
	.align 2
	.weak	_ZNSt8_Rb_treeIPN7sigslot12_signal_baseINS0_15single_threadedEEES4_St9_IdentityIS4_ESt4lessIS4_ESaIS4_EE16_M_insert_uniqueERKS4_
	.type	_ZNSt8_Rb_treeIPN7sigslot12_signal_baseINS0_15single_threadedEEES4_St9_IdentityIS4_ESt4lessIS4_ESaIS4_EE16_M_insert_uniqueERKS4_, @function
_ZNSt8_Rb_treeIPN7sigslot12_signal_baseINS0_15single_threadedEEES4_St9_IdentityIS4_ESt4lessIS4_ESaIS4_EE16_M_insert_uniqueERKS4_:
.LFB1910:
	.loc 17 1264 0
	.cfi_startproc
.LVL592:
	mflr 0
	stwu 1,-32(1)
.LCFI147:
	.cfi_def_cfa_offset 32
	.cfi_register 65, 0
	stw 28,16(1)
	stw 0,36(1)
	stw 27,12(1)
	mr 27,4
	.cfi_offset 27, -20
	.cfi_offset 65, 4
	.cfi_offset 28, -16
.LBB4321:
.LBB4322:
.LBB4323:
	.loc 5 502 0
	lwz 28,8(3)
.LVL593:
.LBE4323:
.LBE4322:
.LBE4321:
	.loc 17 1264 0
	stw 29,20(1)
.LBB4348:
.LBB4340:
.LBB4336:
	.loc 17 1272 0
	addi 29,3,4
	.cfi_offset 29, -12
.LVL594:
.LBE4336:
.LBE4340:
	.loc 17 1274 0
	cmpwi 7,28,0
.LBE4348:
	.loc 17 1264 0
	stw 31,28(1)
	stw 26,8(1)
	mr 31,3
	.cfi_offset 26, -24
	.cfi_offset 31, -4
	stw 30,24(1)
.LBB4349:
	.loc 17 1274 0
	beq- 7,.L507
	.cfi_offset 30, -8
.LVL595:
	lwz 10,0(4)
	b .L496
.LVL596:
.L515:
	.loc 5 502 0 discriminator 1
	lwz 0,8(28)
.LVL597:
	.loc 17 1274 0 discriminator 1
	cmpwi 7,0,0
	beq- 7,.L514
.LVL598:
.L508:
	.loc 17 1274 0 is_stmt 0
	mr 28,0
.LVL599:
.L496:
	.loc 5 502 0 is_stmt 1
	lwz 9,16(28)
	li 11,1
	.loc 17 1278 0
	cmplw 7,9,10
	bgt- 7,.L515
.LVL600:
	.loc 5 502 0 discriminator 2
	lwz 0,12(28)
	li 11,0
.LVL601:
	.loc 17 1274 0 discriminator 2
	cmpwi 7,0,0
	bne+ 7,.L508
.LVL602:
.L514:
	.loc 17 1281 0
	cmpwi 7,11,0
	mr 3,28
.LVL603:
	bne- 7,.L493
.LVL604:
	.loc 17 1289 0
	cmplw 7,10,9
	bgt- 7,.L516
.LVL605:
.L503:
	.loc 17 1292 0
	li 0,0
	li 4,0
	rlwimi 4,0,24,0,7
.LBE4349:
	.loc 17 1293 0
	lwz 0,36(1)
	lwz 26,8(1)
	mtlr 0
	lwz 27,12(1)
.LVL606:
	lwz 28,16(1)
	lwz 29,20(1)
	lwz 30,24(1)
	lwz 31,28(1)
.LVL607:
	addi 1,1,32
	.cfi_remember_state
.LCFI148:
	.cfi_def_cfa_offset 0
	.cfi_restore 31
	.cfi_restore 30
	.cfi_restore 29
	.cfi_restore 28
	.cfi_restore 27
	.cfi_restore 26
	blr
.LVL608:
.L507:
.LCFI149:
	.cfi_restore_state
.LBB4350:
	.loc 17 1272 0
	mr 28,29
.LVL609:
.L493:
	.loc 17 1283 0
	lwz 0,12(31)
	cmpw 7,28,0
	beq- 7,.L517
.LVL610:
.LBB4341:
.LBB4342:
	.loc 17 203 0
	mr 3,28
	bl _ZSt18_Rb_tree_decrementPSt18_Rb_tree_node_base
.LVL611:
	lwz 10,0(27)
	lwz 9,16(3)
.LVL612:
.LBE4342:
.LBE4341:
	.loc 17 1289 0
	cmplw 7,10,9
	ble+ 7,.L503
.LVL613:
.L516:
.LBB4343:
.LBB4337:
	.loc 17 969 0
	cmpw 7,28,29
	li 26,1
	beq- 7,.L504
.LVL614:
	.loc 17 1264 0
	lwz 26,16(28)
	subfc 26,26,10
	subfe 26,26,26
	neg 26,26
	b .L504
.LVL615:
.L517:
.LBE4337:
.LBE4343:
.LBB4344:
.LBB4345:
	.loc 17 969 0
	cmpw 7,28,29
	li 26,1
	beq- 7,.L504
.LVL616:
	.loc 17 1264 0
	lwz 26,0(27)
	lwz 0,16(28)
.LVL617:
	subfc 26,0,26
	subfe 26,26,26
	neg 26,26
.LVL618:
.L504:
.LBE4345:
.LBE4344:
.LBB4346:
.LBB4338:
.LBB4324:
.LBB4325:
.LBB4326:
.LBB4327:
.LBB4328:
	.loc 16 92 0
	li 3,20
	bl _Znwj
.LBE4328:
.LBE4327:
.LBE4326:
.LBB4331:
.LBB4332:
	.loc 16 108 0
	cmpwi 7,3,-16
.LBE4332:
.LBE4331:
.LBB4334:
.LBB4330:
.LBB4329:
	.loc 16 92 0
	mr 30,3
.LVL619:
.LBE4329:
.LBE4330:
.LBE4334:
.LBB4335:
.LBB4333:
	.loc 16 108 0
	beq- 7,.L506
	lwz 0,0(27)
	stw 0,16(3)
.L506:
.LVL620:
.LBE4333:
.LBE4335:
.LBE4325:
.LBE4324:
	.loc 17 973 0
	mr 3,26
.LVL621:
	mr 4,30
	mr 5,28
	mr 6,29
	bl _ZSt29_Rb_tree_insert_and_rebalancebPSt18_Rb_tree_node_baseS0_RS_
	.loc 17 976 0
	lwz 9,20(31)
	.loc 17 1291 0
	li 4,0
	mr 3,30
	.loc 17 976 0
	addi 0,9,1
.LBE4338:
.LBE4346:
.LBE4350:
	.loc 17 1293 0
	lwz 26,8(1)
.LVL622:
.LBB4351:
.LBB4347:
.LBB4339:
	.loc 17 976 0
	stw 0,20(31)
.LVL623:
	.loc 17 1291 0
	li 0,1
	rlwimi 4,0,24,0,7
.LBE4339:
.LBE4347:
.LBE4351:
	.loc 17 1293 0
	lwz 0,36(1)
	lwz 27,12(1)
.LVL624:
	mtlr 0
	lwz 28,16(1)
	lwz 29,20(1)
	lwz 30,24(1)
.LVL625:
	lwz 31,28(1)
.LVL626:
	addi 1,1,32
	.cfi_restore 26
	.cfi_restore 27
	.cfi_restore 28
	.cfi_restore 29
	.cfi_restore 30
	.cfi_restore 31
.LCFI150:
	.cfi_def_cfa_offset 0
	blr
	.cfi_endproc
.LFE1910:
	.size	_ZNSt8_Rb_treeIPN7sigslot12_signal_baseINS0_15single_threadedEEES4_St9_IdentityIS4_ESt4lessIS4_ESaIS4_EE16_M_insert_uniqueERKS4_, .-_ZNSt8_Rb_treeIPN7sigslot12_signal_baseINS0_15single_threadedEEES4_St9_IdentityIS4_ESt4lessIS4_ESaIS4_EE16_M_insert_uniqueERKS4_
	.section	".text"
	.align 2
	.globl _ZN11MusicPlayerC2Ev
	.type	_ZN11MusicPlayerC2Ev, @function
_ZN11MusicPlayerC2Ev:
.LFB1610:
	.loc 5 46 0
	.cfi_startproc
	.cfi_personality 0,__gxx_personality_v0
	.cfi_lsda 0,.LLSDA1610
.LVL627:
	mflr 0
	stwu 1,-56(1)
.LCFI151:
	.cfi_def_cfa_offset 56
	.cfi_register 65, 0
.LBB4445:
	.loc 5 48 0
	li 4,0
	li 5,0
	li 6,0
.LBE4445:
	.loc 5 46 0
	stw 25,28(1)
	stw 0,60(1)
.LBB4567:
.LBB4446:
.LBB4447:
	.loc 4 30 0
	lis 25,_ZTV6Thread+8@ha
	.cfi_offset 65, 4
	.cfi_offset 25, -28
.LBE4447:
.LBE4446:
.LBE4567:
	.loc 5 46 0
	stw 31,52(1)
	mr 31,3
	.cfi_offset 31, -4
	stw 26,32(1)
.LBB4568:
.LBB4455:
.LBB4452:
	.loc 4 30 0
	la 25,_ZTV6Thread+8@l(25)
.LBE4452:
.LBE4455:
.LBE4568:
	.loc 5 46 0
	stw 27,36(1)
	stw 28,40(1)
	stw 29,44(1)
	stw 30,48(1)
.LEHB30:
.LBB4569:
	.loc 5 48 0
	.cfi_offset 30, -8
	.cfi_offset 29, -12
	.cfi_offset 28, -16
	.cfi_offset 27, -20
	.cfi_offset 26, -24
	bl _ZN8GuiFrameC2EiiPS_
.LEHE30:
.LVL628:
.LBB4456:
.LBB4453:
	.loc 4 30 0
	li 0,-1
	stw 25,176(31)
	stw 0,180(31)
	li 0,0
	stw 0,184(31)
	.loc 4 33 0
	li 3,32
	li 4,16384
.LEHB31:
	bl memalign
	.loc 4 35 0
	cmpwi 7,3,0
	.loc 4 33 0
	mr 6,3
.LBE4453:
.LBE4456:
	.loc 5 48 0
	addi 29,31,176
.LBB4457:
.LBB4454:
	.loc 4 33 0
	stw 3,184(31)
	.loc 4 35 0
	beq- 7,.L519
	.loc 4 38 0
	lis 4,_ZN6Thread14threadCallbackEPv@ha
	addi 3,31,180
	la 4,_ZN6Thread14threadCallbackEPv@l(4)
	mr 5,29
	li 7,16384
	li 8,40
	bl LWP_CreateThread
.L546:
	.loc 4 40 0
	li 3,1000
	bl usleep
.LVL629:
.LBB4448:
.LBB4449:
	.loc 4 60 0
	lwz 3,4(29)
	cmpwi 7,3,-1
	beq- 7,.L519
.LVL630:
.LBB4450:
.LBB4451:
	bl LWP_ThreadIsSuspended
.LEHE31:
.LBE4451:
.LBE4450:
.LBE4449:
.LBE4448:
	.loc 4 40 0
	cmpwi 7,3,0
	beq+ 7,.L546
.LVL631:
.L519:
.LBE4454:
.LBE4457:
	.loc 5 48 0 discriminator 1
	lis 9,_ZTV11MusicPlayer+8@ha
.LBB4458:
.LBB4459:
.LBB4460:
	.loc 8 270 0 discriminator 1
	lis 30,_ZNSs4_Rep20_S_empty_rep_storageE+12@ha
.LBE4460:
.LBE4459:
.LBE4458:
	.loc 5 48 0 discriminator 1
	la 9,_ZTV11MusicPlayer+8@l(9)
.LBB4465:
.LBB4466:
.LBB4467:
.LBB4468:
.LBB4469:
.LBB4470:
	.loc 17 445 0 discriminator 1
	li 0,0
.LBB4471:
.LBB4472:
	.loc 17 459 0 discriminator 1
	addi 11,31,196
.LBE4472:
.LBE4471:
.LBE4470:
.LBE4469:
.LBE4468:
.LBE4467:
.LBE4466:
.LBE4465:
	.loc 5 48 0 discriminator 1
	addi 8,9,232
	addi 10,9,280
.LBB4485:
.LBB4463:
.LBB4461:
	.loc 8 270 0 discriminator 1
	la 30,_ZNSs4_Rep20_S_empty_rep_storageE+12@l(30)
.LBE4461:
.LBE4463:
.LBE4485:
	.loc 5 48 0 discriminator 1
	addi 27,31,256
.LBB4486:
.LBB4483:
.LBB4481:
.LBB4479:
.LBB4477:
.LBB4475:
	.loc 17 445 0 discriminator 1
	stw 0,196(31)
	stw 0,200(31)
.LBE4475:
.LBE4477:
.LBE4479:
.LBE4481:
.LBE4483:
.LBE4486:
	.loc 5 48 0 discriminator 1
	mr 3,27
.LBB4487:
.LBB4484:
.LBB4482:
.LBB4480:
.LBB4478:
.LBB4476:
	.loc 17 445 0 discriminator 1
	stw 0,212(31)
.LVL632:
.LBB4474:
.LBB4473:
	.loc 17 459 0 discriminator 1
	stw 11,204(31)
	.loc 17 460 0 discriminator 1
	stw 11,208(31)
.LBE4473:
.LBE4474:
.LBE4476:
.LBE4478:
.LBE4480:
.LBE4482:
.LBE4484:
.LBE4487:
	.loc 5 48 0 discriminator 1
	stw 9,0(31)
	stw 8,176(31)
	stw 10,188(31)
.LVL633:
.LBB4488:
.LBB4464:
.LBB4462:
	.loc 8 270 0 discriminator 1
	stw 30,224(31)
.LEHB32:
.LBE4462:
.LBE4464:
.LBE4488:
	.loc 5 48 0 discriminator 1
	bl _ZN8PlayListC1Ev
.LEHE32:
.LVL634:
	.loc 5 50 0 discriminator 4
	li 0,0
.LBB4489:
.LBB4490:
.LBB4491:
	.loc 8 270 0 discriminator 4
	stw 30,620(31)
.LBE4491:
.LBE4490:
.LBE4489:
	.loc 5 75 0 discriminator 4
	lis 3,.LC6@ha
	.loc 5 50 0 discriminator 4
	stw 0,564(31)
	.loc 5 51 0 discriminator 4
	stw 0,568(31)
	.loc 5 75 0 discriminator 4
	la 3,.LC6@l(3)
	.loc 5 52 0 discriminator 4
	stw 0,572(31)
	addi 30,31,188
	.loc 5 53 0 discriminator 4
	stw 0,576(31)
	.loc 5 54 0 discriminator 4
	stw 0,580(31)
	.loc 5 55 0 discriminator 4
	stw 0,584(31)
	.loc 5 56 0 discriminator 4
	stw 0,588(31)
	.loc 5 57 0 discriminator 4
	stw 0,628(31)
	.loc 5 58 0 discriminator 4
	stw 0,632(31)
	.loc 5 59 0 discriminator 4
	stw 0,600(31)
	.loc 5 60 0 discriminator 4
	stw 0,604(31)
	.loc 5 61 0 discriminator 4
	stw 0,608(31)
	.loc 5 62 0 discriminator 4
	stw 0,612(31)
	.loc 5 63 0 discriminator 4
	stw 0,616(31)
	.loc 5 64 0 discriminator 4
	stw 0,592(31)
	.loc 5 65 0 discriminator 4
	stw 0,596(31)
	.loc 5 66 0 discriminator 4
	stw 0,624(31)
	.loc 5 68 0 discriminator 4
	stb 0,244(31)
	.loc 5 69 0 discriminator 4
	stw 0,248(31)
	.loc 5 70 0 discriminator 4
	stw 0,252(31)
	.loc 5 71 0 discriminator 4
	stb 0,217(31)
	.loc 5 72 0 discriminator 4
	stb 0,219(31)
	.loc 5 73 0 discriminator 4
	stb 0,220(31)
.LEHB33:
	.loc 5 75 0 discriminator 4
	bl _ZN9Resources8GetSoundEPKc
	stw 3,240(31)
	.loc 5 77 0 discriminator 4
	mr 3,27
	bl _ZN8PlayList8LoadListEv
.LVL635:
.LBB4492:
.LBB4493:
.LBB4494:
.LBB4495:
	.loc 1 338 0
	lwz 9,460(31)
.LBE4495:
.LBE4494:
	.loc 1 2244 0
	addi 26,31,460
.LVL636:
.LBB4497:
.LBB4496:
	.loc 1 338 0
	mr 3,26
	lwz 0,8(9)
	mtctr 0
	bctrl
.LEHE33:
.LBE4496:
.LBE4497:
	.loc 1 2246 0
	li 3,16
.LEHB34:
	bl _Znwj
.LBB4498:
.LBB4499:
	.loc 1 1730 0
	lis 9,_ZTVN7sigslot12_connection2I11MusicPlayerP8PlayListiNS_15single_threadedEEE+8@ha
	.loc 1 1731 0
	stw 31,4(3)
	.loc 1 1730 0
	la 0,_ZTVN7sigslot12_connection2I11MusicPlayerP8PlayListiNS_15single_threadedEEE+8@l(9)
.LBE4499:
.LBE4498:
.LBE4493:
	.loc 1 1732 0
	lis 9,_ZN11MusicPlayer16OnTitleListClickEP8PlayListi@ha
.LBB4544:
.LBB4501:
.LBB4500:
	.loc 1 1730 0
	stw 0,0(3)
.LBE4500:
.LBE4501:
.LBE4544:
	.loc 1 1732 0
	la 0,_ZN11MusicPlayer16OnTitleListClickEP8PlayListi@l(9)
	stw 0,8(3)
	li 0,0
	stw 0,12(3)
.LBB4545:
	.loc 1 2246 0
	mr 28,3
.LVL637:
.LBB4502:
.LBB4503:
.LBB4504:
.LBB4505:
.LBB4506:
.LBB4507:
.LBB4508:
.LBB4509:
	.loc 16 92 0
	li 3,12
.LVL638:
	bl _Znwj
.LVL639:
.LBE4509:
.LBE4508:
.LBE4507:
.LBB4510:
.LBB4511:
	.loc 16 108 0
	cmpwi 7,3,-8
	beq- 7,.L526
	stw 28,8(3)
.L526:
.LVL640:
.LBE4511:
.LBE4510:
.LBE4506:
.LBE4505:
	.file 19 "d:\\devkitpro\\devkitppc\\bin\\../lib/gcc/powerpc-eabi/4.6.3/../../../../powerpc-eabi/include/c++/4.6.3/bits/stl_list.h"
	.loc 19 1516 0
	addi 4,31,464
.LBE4504:
.LBE4503:
.LBE4502:
.LBB4516:
.LBB4517:
	.loc 1 503 0
	addi 30,31,188
.LBE4517:
.LBE4516:
.LBB4533:
.LBB4514:
.LBB4512:
	.loc 19 1516 0
	bl _ZNSt8__detail15_List_node_base7_M_hookEPS0_
.LVL641:
.LBE4512:
.LBE4514:
.LBE4533:
.LBB4534:
.LBB4530:
.LBB4518:
.LBB4519:
	.loc 1 338 0
	lwz 9,188(31)
.LBE4519:
.LBE4518:
.LBE4530:
.LBE4534:
.LBB4535:
.LBB4515:
.LBB4513:
	.loc 19 1516 0
	stw 26,8(1)
.LVL642:
.LBE4513:
.LBE4515:
.LBE4535:
.LBB4536:
.LBB4531:
.LBB4521:
.LBB4520:
	.loc 1 338 0
	mr 3,30
	lwz 0,8(9)
	mtctr 0
	bctrl
.LEHE34:
.LVL643:
.LBE4520:
.LBE4521:
.LBB4522:
.LBB4523:
	.loc 18 410 0
	addi 3,31,192
	addi 4,1,8
.LEHB35:
	bl _ZNSt8_Rb_treeIPN7sigslot12_signal_baseINS0_15single_threadedEEES4_St9_IdentityIS4_ESt4lessIS4_ESaIS4_EE16_M_insert_uniqueERKS4_
.LEHE35:
.LVL644:
.LBE4523:
.LBE4522:
.LBB4524:
.LBB4525:
.LBB4526:
	.loc 1 343 0
	lwz 9,188(31)
	mr 3,30
	lwz 0,12(9)
	mtctr 0
.LEHB36:
	bctrl
.LEHE36:
.LVL645:
.LBE4526:
.LBE4525:
.LBE4524:
.LBE4531:
.LBE4536:
.LBB4537:
.LBB4538:
.LBB4539:
	lwz 9,460(31)
	mr 3,26
	lwz 0,12(9)
	mtctr 0
.LEHB37:
	bctrl
.LBE4539:
.LBE4538:
.LBE4537:
.LBE4545:
.LBE4492:
	.loc 5 80 0
	lis 28,Settings+994@ha
.LVL646:
	mr 3,27
	la 28,Settings+994@l(28)
	mr 4,28
	bl _ZN8PlayList8FindFileEPKc
.LBB4547:
.LBB4548:
.LBB4549:
	.loc 5 187 0
	cmpwi 7,3,0
.LBE4549:
.LBE4548:
.LBE4547:
	.loc 5 80 0
	mr 4,3
	stw 3,248(31)
.LVL647:
.LBB4559:
.LBB4557:
.LBB4555:
	.loc 5 187 0
	blt- 7,.L534
.LVL648:
.LBB4550:
.LBB4551:
.LBB4552:
	.loc 10 571 0
	lwz 9,488(31)
	lwz 0,484(31)
	subf 0,0,9
	srawi 0,0,2
.LBE4552:
.LBE4551:
.LBE4550:
	.loc 5 187 0
	cmpw 7,3,0
	bge- 7,.L534
.LVL649:
.LBB4553:
.LBB4554:
	.loc 5 192 0
	mr 3,27
.LVL650:
	bl _ZN8PlayList2atEi
.LVL651:
	lis 5,.LC5@ha
	mr 6,3
	li 4,250
	mr 3,28
	la 5,.LC5@l(5)
	crxor 6,6,6
	bl snprintf
	.loc 5 194 0
	mr 3,31
	bl _ZN11MusicPlayer4LoadEPKcb.constprop.144
.LVL652:
.L536:
.LBE4554:
.LBE4553:
.LBE4555:
.LBE4557:
.LBE4559:
.LBB4560:
.LBB4561:
	.loc 4 48 0
	lwz 9,176(31)
	mr 3,29
	lwz 0,24(9)
	mtctr 0
	bctrl
.LBE4561:
.LBE4560:
.LBE4569:
	.loc 5 85 0
	lwz 0,60(1)
	lwz 25,28(1)
	mtlr 0
	lwz 26,32(1)
	lwz 27,36(1)
	lwz 28,40(1)
	lwz 29,44(1)
	lwz 30,48(1)
.LVL653:
	lwz 31,52(1)
.LVL654:
	addi 1,1,56
	.cfi_remember_state
.LCFI152:
	.cfi_def_cfa_offset 0
	.cfi_restore 31
	.cfi_restore 30
	.cfi_restore 29
	.cfi_restore 28
	.cfi_restore 27
	.cfi_restore 26
	.cfi_restore 25
	blr
.LVL655:
.L534:
.LCFI153:
	.cfi_restore_state
.LBB4570:
.LBB4562:
.LBB4558:
.LBB4556:
	.loc 5 188 0
	mr 3,31
.LVL656:
	bl _ZN11MusicPlayer12LoadStandardEv
.LEHE37:
.LVL657:
	b .L536
.LVL658:
.L545:
.LBE4556:
.LBE4558:
.LBE4562:
.LBB4563:
.LBB4546:
.LBB4540:
.LBB4532:
.LBB4527:
.LBB4528:
.LBB4529:
	.loc 1 343 0
	lwz 9,188(31)
	mr 28,3
.LVL659:
	mr 3,30
	lwz 0,12(9)
	mtctr 0
	bctrl
.LVL660:
.L530:
.LBE4529:
.LBE4528:
.LBE4527:
.LBE4532:
.LBE4540:
.LBB4541:
.LBB4542:
.LBB4543:
	lwz 9,460(31)
	mr 3,26
	lwz 0,12(9)
	mtctr 0
	bctrl
.LVL661:
.L533:
.LBE4543:
.LBE4542:
.LBE4541:
.LBE4546:
.LBE4563:
	.loc 5 48 0
	addi 3,31,620
	bl _ZNSsD1Ev
	mr 3,27
	bl _ZN8PlayListD1Ev
.LVL662:
.L537:
	addi 3,31,224
	bl _ZNSsD1Ev
	mr 3,30
	bl _ZN7sigslot9has_slotsINS_15single_threadedEED2Ev
.LVL663:
.LBB4564:
.LBB4565:
.LBB4566:
	.loc 4 45 0
	stw 25,176(31)
	mr 3,29
	mr 30,28
	bl _ZN6Thread14shutdownThreadEv
.LVL664:
.L539:
.LBE4566:
.LBE4565:
.LBE4564:
	.loc 5 48 0
	mr 3,31
	bl _ZN8GuiFrameD2Ev
	mr 3,30
.LEHB38:
	bl _Unwind_Resume
.LEHE38:
.LVL665:
.L544:
	mr 28,3
	b .L530
.LVL666:
.L543:
	mr 28,3
	b .L533
.LVL667:
.L542:
	mr 28,3
	addi 30,31,188
	b .L537
.LVL668:
.L541:
	mr 30,3
	b .L539
.LBE4570:
	.cfi_endproc
.LFE1610:
	.section	.gcc_except_table
.LLSDA1610:
	.byte	0xff
	.byte	0xff
	.byte	0x1
	.uleb128 .LLSDACSE1610-.LLSDACSB1610
.LLSDACSB1610:
	.uleb128 .LEHB30-.LFB1610
	.uleb128 .LEHE30-.LEHB30
	.uleb128 0
	.uleb128 0
	.uleb128 .LEHB31-.LFB1610
	.uleb128 .LEHE31-.LEHB31
	.uleb128 .L541-.LFB1610
	.uleb128 0
	.uleb128 .LEHB32-.LFB1610
	.uleb128 .LEHE32-.LEHB32
	.uleb128 .L542-.LFB1610
	.uleb128 0
	.uleb128 .LEHB33-.LFB1610
	.uleb128 .LEHE33-.LEHB33
	.uleb128 .L543-.LFB1610
	.uleb128 0
	.uleb128 .LEHB34-.LFB1610
	.uleb128 .LEHE34-.LEHB34
	.uleb128 .L544-.LFB1610
	.uleb128 0
	.uleb128 .LEHB35-.LFB1610
	.uleb128 .LEHE35-.LEHB35
	.uleb128 .L545-.LFB1610
	.uleb128 0
	.uleb128 .LEHB36-.LFB1610
	.uleb128 .LEHE36-.LEHB36
	.uleb128 .L544-.LFB1610
	.uleb128 0
	.uleb128 .LEHB37-.LFB1610
	.uleb128 .LEHE37-.LEHB37
	.uleb128 .L543-.LFB1610
	.uleb128 0
	.uleb128 .LEHB38-.LFB1610
	.uleb128 .LEHE38-.LEHB38
	.uleb128 0
	.uleb128 0
.LLSDACSE1610:
	.section	".text"
	.size	_ZN11MusicPlayerC2Ev, .-_ZN11MusicPlayerC2Ev
	.section	.text._ZN7sigslot7signal3IP9GuiButtoniRK6_POINTNS_15single_threadedEE7connectI11MusicPlayerEEvPT_MSA_FvS2_iS5_E,"axG",@progbits,_ZN7sigslot7signal3IP9GuiButtoniRK6_POINTNS_15single_threadedEE7connectI11MusicPlayerEEvPT_MSA_FvS2_iS5_E,comdat
	.align 2
	.weak	_ZN7sigslot7signal3IP9GuiButtoniRK6_POINTNS_15single_threadedEE7connectI11MusicPlayerEEvPT_MSA_FvS2_iS5_E
	.type	_ZN7sigslot7signal3IP9GuiButtoniRK6_POINTNS_15single_threadedEE7connectI11MusicPlayerEEvPT_MSA_FvS2_iS5_E, @function
_ZN7sigslot7signal3IP9GuiButtoniRK6_POINTNS_15single_threadedEE7connectI11MusicPlayerEEvPT_MSA_FvS2_iS5_E:
.LFB1693:
	.loc 1 2308 0
	.cfi_startproc
	.cfi_personality 0,__gxx_personality_v0
	.cfi_lsda 0,.LLSDA1693
.LVL669:
	mflr 0
	stwu 1,-48(1)
.LCFI154:
	.cfi_def_cfa_offset 48
	.cfi_register 65, 0
	stw 27,28(1)
	stw 0,52(1)
	stw 30,40(1)
	mr 30,4
	.cfi_offset 30, -8
	.cfi_offset 65, 4
	.cfi_offset 27, -20
.LBB4613:
.LBB4614:
.LBB4615:
	.loc 1 338 0
	lwz 9,0(3)
.LBE4615:
.LBE4614:
.LBE4613:
	.loc 1 2308 0
	stw 31,44(1)
	mr 31,3
	.cfi_offset 31, -4
.LVL670:
.LBB4668:
.LBB4619:
.LBB4616:
	.loc 1 338 0
	lwz 0,8(9)
.LBE4616:
.LBE4619:
.LBE4668:
	.loc 1 2308 0
	stw 28,32(1)
	stw 29,36(1)
.LBB4669:
.LBB4620:
.LBB4617:
	.loc 1 338 0
	mtctr 0
.LBE4617:
.LBE4620:
.LBE4669:
	.loc 1 2308 0
	lwz 27,0(5)
	lwz 28,4(5)
	.cfi_offset 29, -12
	.cfi_offset 28, -16
.LEHB39:
.LBB4670:
.LBB4621:
.LBB4618:
	.loc 1 338 0
	bctrl
.LEHE39:
.LVL671:
.LBE4618:
.LBE4621:
	.loc 1 2314 0
	li 3,16
.LEHB40:
	bl _Znwj
.LBB4622:
.LBB4623:
	.loc 1 1778 0
	lis 9,_ZTVN7sigslot12_connection3I11MusicPlayerP9GuiButtoniRK6_POINTNS_15single_threadedEEE+8@ha
	.loc 1 1779 0
	stw 30,4(3)
	.loc 1 1778 0
	la 0,_ZTVN7sigslot12_connection3I11MusicPlayerP9GuiButtoniRK6_POINTNS_15single_threadedEEE+8@l(9)
	.loc 1 1780 0
	stw 27,8(3)
	.loc 1 1778 0
	stw 0,0(3)
.LBE4623:
.LBE4622:
	.loc 1 2314 0
	mr 29,3
.LVL672:
.LBB4625:
.LBB4624:
	.loc 1 1780 0
	stw 28,12(3)
.LVL673:
.LBE4624:
.LBE4625:
.LBB4626:
.LBB4627:
.LBB4628:
.LBB4629:
.LBB4630:
.LBB4631:
.LBB4632:
.LBB4633:
	.loc 16 92 0
	li 3,12
.LVL674:
	bl _Znwj
.LVL675:
.LBE4633:
.LBE4632:
.LBE4631:
.LBB4634:
.LBB4635:
	.loc 16 108 0 discriminator 1
	cmpwi 7,3,-8
	beq- 7,.L554
	.loc 16 108 0 is_stmt 0
	stw 29,8(3)
.LVL676:
.L554:
.LBE4635:
.LBE4634:
.LBE4630:
.LBE4629:
	.loc 19 1516 0 is_stmt 1
	addi 4,31,4
.LBE4628:
.LBE4627:
.LBE4626:
.LBB4640:
.LBB4641:
	.loc 1 503 0
	addi 29,30,188
.LVL677:
.LBE4641:
.LBE4640:
.LBB4657:
.LBB4638:
.LBB4636:
	.loc 19 1516 0
	bl _ZNSt8__detail15_List_node_base7_M_hookEPS0_
.LVL678:
.LBE4636:
.LBE4638:
.LBE4657:
.LBB4658:
.LBB4654:
.LBB4642:
.LBB4643:
	.loc 1 338 0
	lwz 9,188(30)
.LBE4643:
.LBE4642:
.LBE4654:
.LBE4658:
.LBB4659:
.LBB4639:
.LBB4637:
	.loc 19 1516 0
	stw 31,8(1)
.LVL679:
.LBE4637:
.LBE4639:
.LBE4659:
.LBB4660:
.LBB4655:
.LBB4645:
.LBB4644:
	.loc 1 338 0
	mr 3,29
	lwz 0,8(9)
	mtctr 0
	bctrl
.LEHE40:
.LVL680:
.LBE4644:
.LBE4645:
.LBB4646:
.LBB4647:
	.loc 18 410 0
	addi 3,30,192
	addi 4,1,8
.LEHB41:
	bl _ZNSt8_Rb_treeIPN7sigslot12_signal_baseINS0_15single_threadedEEES4_St9_IdentityIS4_ESt4lessIS4_ESaIS4_EE16_M_insert_uniqueERKS4_
.LEHE41:
.LVL681:
.LBE4647:
.LBE4646:
.LBB4648:
.LBB4649:
.LBB4650:
	.loc 1 343 0
	lwz 9,188(30)
	mr 3,29
	lwz 0,12(9)
	mtctr 0
.LEHB42:
	bctrl
.LEHE42:
.LVL682:
.LBE4650:
.LBE4649:
.LBE4648:
.LBE4655:
.LBE4660:
.LBB4661:
.LBB4662:
.LBB4663:
	lwz 9,0(31)
	mr 3,31
	lwz 0,12(9)
	mtctr 0
.LEHB43:
	bctrl
.LEHE43:
.LBE4663:
.LBE4662:
.LBE4661:
.LBE4670:
	.loc 1 2317 0
	lwz 0,52(1)
	lwz 27,28(1)
.LVL683:
	mtlr 0
	lwz 28,32(1)
.LVL684:
	lwz 29,36(1)
.LVL685:
	lwz 30,40(1)
.LVL686:
	lwz 31,44(1)
.LVL687:
	addi 1,1,48
	.cfi_remember_state
.LCFI155:
	.cfi_def_cfa_offset 0
	.cfi_restore 31
	.cfi_restore 30
	.cfi_restore 29
	.cfi_restore 28
	.cfi_restore 27
	blr
.LVL688:
.L561:
.LCFI156:
	.cfi_restore_state
	mr 30,3
.LVL689:
.L558:
.LBB4671:
.LBB4664:
.LBB4665:
.LBB4666:
	.loc 1 343 0
	lwz 9,0(31)
	mr 3,31
	lwz 0,12(9)
	mtctr 0
	bctrl
	mr 3,30
.LEHB44:
	bl _Unwind_Resume
.LEHE44:
.LVL690:
.L562:
.LBE4666:
.LBE4665:
.LBE4664:
.LBB4667:
.LBB4656:
.LBB4651:
.LBB4652:
.LBB4653:
	lwz 9,188(30)
	mr 30,3
.LVL691:
	mr 3,29
	lwz 0,12(9)
	mtctr 0
	bctrl
	b .L558
.LBE4653:
.LBE4652:
.LBE4651:
.LBE4656:
.LBE4667:
.LBE4671:
	.cfi_endproc
.LFE1693:
	.section	.gcc_except_table
.LLSDA1693:
	.byte	0xff
	.byte	0xff
	.byte	0x1
	.uleb128 .LLSDACSE1693-.LLSDACSB1693
.LLSDACSB1693:
	.uleb128 .LEHB39-.LFB1693
	.uleb128 .LEHE39-.LEHB39
	.uleb128 0
	.uleb128 0
	.uleb128 .LEHB40-.LFB1693
	.uleb128 .LEHE40-.LEHB40
	.uleb128 .L561-.LFB1693
	.uleb128 0
	.uleb128 .LEHB41-.LFB1693
	.uleb128 .LEHE41-.LEHB41
	.uleb128 .L562-.LFB1693
	.uleb128 0
	.uleb128 .LEHB42-.LFB1693
	.uleb128 .LEHE42-.LEHB42
	.uleb128 .L561-.LFB1693
	.uleb128 0
	.uleb128 .LEHB43-.LFB1693
	.uleb128 .LEHE43-.LEHB43
	.uleb128 0
	.uleb128 0
	.uleb128 .LEHB44-.LFB1693
	.uleb128 .LEHE44-.LEHB44
	.uleb128 0
	.uleb128 0
.LLSDACSE1693:
	.section	.text._ZN7sigslot7signal3IP9GuiButtoniRK6_POINTNS_15single_threadedEE7connectI11MusicPlayerEEvPT_MSA_FvS2_iS5_E,"axG",@progbits,_ZN7sigslot7signal3IP9GuiButtoniRK6_POINTNS_15single_threadedEE7connectI11MusicPlayerEEvPT_MSA_FvS2_iS5_E,comdat
	.size	_ZN7sigslot7signal3IP9GuiButtoniRK6_POINTNS_15single_threadedEE7connectI11MusicPlayerEEvPT_MSA_FvS2_iS5_E, .-_ZN7sigslot7signal3IP9GuiButtoniRK6_POINTNS_15single_threadedEE7connectI11MusicPlayerEEvPT_MSA_FvS2_iS5_E
	.section	".text"
	.align 2
	.globl _ZN11MusicPlayer13InternalSetupEv
	.type	_ZN11MusicPlayer13InternalSetupEv, @function
_ZN11MusicPlayer13InternalSetupEv:
.LFB1634:
	.loc 5 386 0
	.cfi_startproc
	.cfi_personality 0,__gxx_personality_v0
	.cfi_lsda 0,.LLSDA1634
.LVL692:
	mflr 0
	stwu 1,-64(1)
.LCFI157:
	.cfi_def_cfa_offset 64
	.cfi_register 65, 0
	.loc 5 387 0
	li 4,1
	.loc 5 386 0
	stw 26,40(1)
	stw 0,68(1)
	stw 27,44(1)
	.loc 5 387 0
	lwz 9,0(3)
	.loc 5 386 0
	stw 28,48(1)
	.loc 5 387 0
	lwz 0,48(9)
	.cfi_offset 28, -16
	.cfi_offset 27, -20
	.cfi_offset 65, 4
	.cfi_offset 26, -24
	.loc 5 386 0
	stw 29,52(1)
	.loc 5 387 0
	mtctr 0
	.loc 5 386 0
	stw 30,56(1)
	stw 31,60(1)
	.loc 5 386 0
	mr 31,3
	.cfi_offset 31, -4
	.cfi_offset 30, -8
	.cfi_offset 29, -12
	.loc 5 390 0
	lis 30,Settings@ha
	la 30,Settings@l(30)
.LEHB45:
	.loc 5 387 0
	bctrl
.LVL693:
	.loc 5 388 0
	mr 3,31
	li 4,1
	bl _ZN8GuiFrame13DimBackgroundEb
	.loc 5 390 0
	li 3,368
	bl _Znwj
.LEHE45:
	lhz 27,2616(30)
	mr 29,3
	lhz 26,2644(30)
	lhz 28,2672(30)
.LVL694:
.LEHB46:
.LBB4672:
.LBB4673:
	.loc 6 95 0
	bl _ZN10GuiTriggerC2Ev
.LEHE46:
.LVL695:
	lis 9,_ZTV16SimpleGuiTrigger+8@ha
.LBE4673:
.LBE4672:
	.loc 5 390 0
	slwi 5,26,16
.LBB4676:
.LBB4674:
	.loc 6 95 0
	la 0,_ZTV16SimpleGuiTrigger+8@l(9)
	.loc 6 96 0
	mr 3,29
	.loc 6 95 0
	stw 0,0(29)
	.loc 6 96 0
	li 4,-1
	or 5,5,27
	mr 6,28
.LEHB47:
	bl _ZN10GuiTrigger16SetSimpleTriggerEijt
.LEHE47:
.LBE4674:
.LBE4676:
	.loc 5 390 0 discriminator 1
	stw 29,628(31)
	.loc 5 391 0 discriminator 1
	li 3,368
.LEHB48:
	bl _Znwj
.LEHE48:
	mr 29,3
.LVL696:
.LEHB49:
	bl _ZN10GuiTriggerC1Ev
.LEHE49:
	.loc 5 392 0 discriminator 1
	lhz 5,2646(30)
	li 4,-1
	lhz 0,2618(30)
	mr 3,29
	lhz 6,2674(30)
	slwi 5,5,16
	.loc 5 391 0 discriminator 1
	stw 29,632(31)
	.loc 5 392 0 discriminator 1
	or 5,5,0
.LEHB50:
	bl _ZN10GuiTrigger20SetButtonOnlyTriggerEijt
	.loc 5 394 0 discriminator 1
	lis 3,.LC7@ha
	la 3,.LC7@l(3)
	bl _ZN9Resources8GetSoundEPKc
	stw 3,564(31)
	.loc 5 396 0 discriminator 1
	lis 3,.LC8@ha
	la 3,.LC8@l(3)
	bl _ZN9Resources12GetImageDataEPKc
	stw 3,568(31)
	.loc 5 397 0 discriminator 1
	lis 3,.LC9@ha
	la 3,.LC9@l(3)
	bl _ZN9Resources12GetImageDataEPKc
	stw 3,572(31)
	.loc 5 398 0 discriminator 1
	lis 3,.LC10@ha
	la 3,.LC10@l(3)
	bl _ZN9Resources12GetImageDataEPKc
	stw 3,576(31)
	.loc 5 399 0 discriminator 1
	lis 3,.LC11@ha
	la 3,.LC11@l(3)
	bl _ZN9Resources12GetImageDataEPKc
	stw 3,580(31)
	.loc 5 400 0 discriminator 1
	lis 3,.LC12@ha
	la 3,.LC12@l(3)
	bl _ZN9Resources12GetImageDataEPKc
	stw 3,584(31)
	.loc 5 401 0 discriminator 1
	lis 3,.LC13@ha
	la 3,.LC13@l(3)
	bl _ZN9Resources12GetImageDataEPKc
	.loc 5 403 0 discriminator 1
	lwz 9,568(31)
	.loc 5 401 0 discriminator 1
	stw 3,588(31)
	.loc 5 406 0 discriminator 1
	li 3,312
	.loc 5 502 0 discriminator 1
	lwz 0,12(9)
	.loc 5 403 0 discriminator 1
	stw 0,36(31)
	.loc 5 502 0 discriminator 1
	lwz 0,8(9)
	.loc 5 404 0 discriminator 1
	stw 0,40(31)
	.loc 5 406 0 discriminator 1
	bl _Znwj
.LEHE50:
	li 4,35
	li 5,40
	mr 30,3
.LEHB51:
	bl _ZN9GuiButtonC1Eii
.LEHE51:
	.loc 5 407 0 discriminator 1
	lwz 9,0(30)
	li 5,115
	.loc 5 406 0 discriminator 1
	stw 30,600(31)
	.loc 5 407 0 discriminator 1
	mr 3,30
	li 4,404
	.loc 5 411 0 discriminator 1
	lis 30,_ZN11MusicPlayer13OnButtonClickEP9GuiButtoniRK6_POINT@ha
	.loc 5 407 0 discriminator 1
	lwz 0,168(9)
	.loc 5 411 0 discriminator 1
	la 30,_ZN11MusicPlayer13OnButtonClickEP9GuiButtoniRK6_POINT@l(30)
	.loc 5 407 0 discriminator 1
	mtctr 0
.LEHB52:
	bctrl
	.loc 5 408 0 discriminator 1
	lwz 3,600(31)
	lwz 4,564(31)
	bl _ZN9GuiButton12SetSoundOverEP8GuiSound
	.loc 5 409 0 discriminator 1
	lwz 3,600(31)
	lwz 4,628(31)
	bl _ZN9GuiButton10SetTriggerEP10GuiTrigger
	.loc 5 410 0 discriminator 1
	lwz 3,600(31)
	lwz 4,632(31)
	bl _ZN9GuiButton10SetTriggerEP10GuiTrigger
	.loc 5 411 0 discriminator 1
	lwz 3,600(31)
	mr 4,31
	addi 5,1,24
	li 0,0
	addi 3,3,144
	stw 0,28(1)
	stw 30,24(1)
	bl _ZN7sigslot7signal3IP9GuiButtoniRK6_POINTNS_15single_threadedEE7connectI11MusicPlayerEEvPT_MSA_FvS2_iS5_E
	.loc 5 413 0 discriminator 1
	li 3,312
	bl _Znwj
.LEHE52:
	li 4,68
	li 5,40
	mr 29,3
.LEHB53:
	bl _ZN9GuiButtonC1Eii
.LEHE53:
	.loc 5 414 0 discriminator 1
	lwz 9,0(29)
	li 5,39
	.loc 5 413 0 discriminator 1
	stw 29,604(31)
	.loc 5 414 0 discriminator 1
	mr 3,29
	li 4,77
	lwz 0,168(9)
	mtctr 0
.LEHB54:
	bctrl
	.loc 5 415 0 discriminator 1
	lwz 3,604(31)
	lwz 4,628(31)
	bl _ZN9GuiButton10SetTriggerEP10GuiTrigger
	.loc 5 416 0 discriminator 1
	lwz 3,604(31)
	mr 4,31
	addi 5,1,24
	li 0,0
	addi 3,3,144
	stw 0,28(1)
	stw 30,24(1)
	bl _ZN7sigslot7signal3IP9GuiButtoniRK6_POINTNS_15single_threadedEE7connectI11MusicPlayerEEvPT_MSA_FvS2_iS5_E
	.loc 5 418 0 discriminator 1
	li 3,312
	bl _Znwj
.LEHE54:
	li 4,68
	li 5,40
	mr 29,3
.LEHB55:
	bl _ZN9GuiButtonC1Eii
.LEHE55:
	.loc 5 419 0 discriminator 1
	lwz 9,0(29)
	li 5,124
	.loc 5 418 0 discriminator 1
	stw 29,608(31)
	.loc 5 419 0 discriminator 1
	mr 3,29
	li 4,77
	lwz 0,168(9)
	mtctr 0
.LEHB56:
	bctrl
	.loc 5 420 0 discriminator 1
	lwz 3,608(31)
	lwz 4,628(31)
	bl _ZN9GuiButton10SetTriggerEP10GuiTrigger
	.loc 5 421 0 discriminator 1
	lwz 3,608(31)
	mr 4,31
	addi 5,1,24
	li 0,0
	addi 3,3,144
	stw 0,28(1)
	stw 30,24(1)
	bl _ZN7sigslot7signal3IP9GuiButtoniRK6_POINTNS_15single_threadedEE7connectI11MusicPlayerEEvPT_MSA_FvS2_iS5_E
	.loc 5 423 0 discriminator 1
	li 3,312
	bl _Znwj
.LEHE56:
	li 4,38
	li 5,60
	mr 29,3
.LEHB57:
	bl _ZN9GuiButtonC1Eii
.LEHE57:
	.loc 5 424 0 discriminator 1
	lwz 9,0(29)
	li 5,74
	.loc 5 423 0 discriminator 1
	stw 29,616(31)
	.loc 5 424 0 discriminator 1
	mr 3,29
	li 4,44
	lwz 0,168(9)
	mtctr 0
.LEHB58:
	bctrl
	.loc 5 425 0 discriminator 1
	lwz 3,616(31)
	lwz 4,628(31)
	bl _ZN9GuiButton10SetTriggerEP10GuiTrigger
	.loc 5 426 0 discriminator 1
	lwz 3,616(31)
	mr 4,31
	addi 5,1,24
	li 0,0
	addi 3,3,144
	stw 0,28(1)
	stw 30,24(1)
	bl _ZN7sigslot7signal3IP9GuiButtoniRK6_POINTNS_15single_threadedEE7connectI11MusicPlayerEEvPT_MSA_FvS2_iS5_E
	.loc 5 428 0 discriminator 1
	li 3,312
	bl _Znwj
.LEHE58:
	li 4,38
	li 5,60
	mr 29,3
.LEHB59:
	bl _ZN9GuiButtonC1Eii
.LEHE59:
	.loc 5 429 0 discriminator 1
	lwz 9,0(29)
	li 5,74
	.loc 5 428 0 discriminator 1
	stw 29,612(31)
	.loc 5 429 0 discriminator 1
	mr 3,29
	li 4,137
	lwz 0,168(9)
	mtctr 0
.LEHB60:
	bctrl
	.loc 5 430 0 discriminator 1
	lwz 3,612(31)
	lwz 4,628(31)
	bl _ZN9GuiButton10SetTriggerEP10GuiTrigger
	.loc 5 431 0 discriminator 1
	lwz 3,612(31)
	mr 4,31
	li 0,0
	addi 3,3,144
	addi 5,1,24
	stw 30,24(1)
	stw 0,28(1)
	bl _ZN7sigslot7signal3IP9GuiButtoniRK6_POINTNS_15single_threadedEE7connectI11MusicPlayerEEvPT_MSA_FvS2_iS5_E
	.loc 5 433 0 discriminator 1
	li 3,196
	bl _Znwj
.LEHE60:
	lwz 4,568(31)
	mr 30,3
.LEHB61:
	bl _ZN8GuiImageC1EP12GuiImageData
.LEHE61:
	stw 30,592(31)
	.loc 5 434 0 discriminator 1
	li 3,196
.LEHB62:
	bl _Znwj
.LEHE62:
	lwz 4,572(31)
	mr 30,3
.LEHB63:
	bl _ZN8GuiImageC1EP12GuiImageData
.LEHE63:
	.loc 5 435 0 discriminator 1
	lwz 9,0(30)
	li 4,39
	.loc 5 434 0 discriminator 1
	stw 30,596(31)
	.loc 5 435 0 discriminator 1
	li 5,34
	mr 3,30
	lwz 0,168(9)
	mtctr 0
.LEHB64:
	bctrl
.LVL697:
	.loc 5 437 0 discriminator 1
	lis 3,.LC14@ha
	la 3,.LC14@l(3)
.LBB4677:
.LBB4678:
.LBB4679:
	.loc 8 288 0 discriminator 1
	lwz 29,620(31)
.LBE4679:
.LBE4678:
.LBE4677:
	.loc 5 437 0 discriminator 1
	bl getThemeColor
	mr 28,3
.LVL698:
	li 3,208
	bl _Znwj
.LEHE64:
	mr 6,1
	stwu 28,32(6)
	mr 4,29
	li 5,20
	mr 30,3
.LEHB65:
	bl _ZN7GuiTextC1EPKci9_gx_color
.LEHE65:
	.loc 5 438 0 discriminator 1
	lwz 9,0(30)
	li 5,126
	.loc 5 437 0 discriminator 1
	stw 30,624(31)
	.loc 5 438 0 discriminator 1
	mr 3,30
	li 4,220
	lwz 0,168(9)
	mtctr 0
.LEHB66:
	bctrl
	.loc 5 439 0 discriminator 1
	lwz 3,624(31)
	li 4,17
	lwz 9,0(3)
	lwz 0,180(9)
	mtctr 0
	bctrl
	.loc 5 440 0 discriminator 1
	lwz 3,624(31)
	li 4,135
	li 5,2
	bl _ZN7GuiText11SetMaxWidthEii
	.loc 5 442 0 discriminator 1
	lbz 0,480(31)
	cmpwi 7,0,0
.LBB4680:
.LBB4681:
	.loc 2 297 0 discriminator 1
	li 0,90
	stw 0,300(31)
.LBE4681:
.LBE4680:
	.loc 5 442 0 discriminator 1
	beq- 7,.L568
.LVL699:
.LBB4683:
.LBB4682:
	.loc 2 298 0
	li 0,56
	stw 0,304(31)
.LVL700:
.L569:
.LBE4682:
.LBE4683:
	.loc 5 446 0
	lwz 9,0(31)
	mr 3,31
	addi 30,31,256
	lwz 0,20(9)
	lis 9,screenwidth@ha
	lwz 29,screenwidth@l(9)
	mtctr 0
	addi 29,29,200
	bctrl
.LVL701:
	lwz 9,296(31)
	addi 3,3,-175
.LBB4684:
.LBB4685:
	.file 20 "d:/Projects/SaveGameManager/savegame-manager-gx/trunk/source/SoundOperations/../Controls/../GUI/../Tools/Rect.h"
	.loc 20 17 0
	li 0,-200
.LBE4685:
.LBE4684:
	.loc 5 446 0
	add 9,3,9
.LVL702:
	addi 4,1,8
	mr 3,30
.LBB4687:
.LBB4686:
	.loc 20 17 0
	stw 0,8(1)
	stw 0,12(1)
	stw 9,20(1)
	stw 29,16(1)
.LBE4686:
.LBE4687:
	.loc 5 446 0
	bl _ZN8GuiFrame9SetBoundsE4RectIiE
.LVL703:
	.loc 5 447 0
	mr 3,30
	bl _ZN8PlayList4ShowEv
	.loc 5 449 0
	mr 3,31
	mr 4,30
	bl _ZN8GuiFrame6AppendEP10GuiElement
	.loc 5 450 0
	lwz 4,592(31)
	mr 3,31
	bl _ZN8GuiFrame6AppendEP10GuiElement
	.loc 5 451 0
	lwz 4,596(31)
	mr 3,31
	bl _ZN8GuiFrame6AppendEP10GuiElement
	.loc 5 452 0
	lwz 4,600(31)
	mr 3,31
	bl _ZN8GuiFrame6AppendEP10GuiElement
	.loc 5 453 0
	lwz 4,604(31)
	mr 3,31
	bl _ZN8GuiFrame6AppendEP10GuiElement
	.loc 5 454 0
	lwz 4,608(31)
	mr 3,31
	bl _ZN8GuiFrame6AppendEP10GuiElement
	.loc 5 455 0
	lwz 4,612(31)
	mr 3,31
	bl _ZN8GuiFrame6AppendEP10GuiElement
	.loc 5 456 0
	lwz 4,616(31)
	mr 3,31
	bl _ZN8GuiFrame6AppendEP10GuiElement
	.loc 5 457 0
	lwz 4,624(31)
	mr 3,31
	bl _ZN8GuiFrame6AppendEP10GuiElement
	.loc 5 458 0
	lwz 0,68(1)
	lwz 26,40(1)
.LVL704:
	mtlr 0
	lwz 27,44(1)
	lwz 28,48(1)
	lwz 29,52(1)
.LVL705:
	lwz 30,56(1)
.LVL706:
	lwz 31,60(1)
.LVL707:
	addi 1,1,64
	.cfi_remember_state
.LCFI158:
	.cfi_def_cfa_offset 0
	.cfi_restore 31
	.cfi_restore 30
	.cfi_restore 29
	.cfi_restore 28
	.cfi_restore 27
	.cfi_restore 26
	blr
.LVL708:
.L568:
.LCFI159:
	.cfi_restore_state
.LBB4688:
.LBB4689:
	.loc 2 298 0
	li 0,-214
	stw 0,304(31)
	b .L569
.LVL709:
.L580:
.L596:
	mr 31,3
.LVL710:
.L597:
.LBE4689:
.LBE4688:
	.loc 5 423 0
	mr 3,29
	bl _ZdlPv
	mr 3,31
	bl _Unwind_Resume
.LVL711:
.L589:
.L593:
	mr 31,3
.LVL712:
	.loc 5 437 0
	mr 3,30
	bl _ZdlPv
	mr 3,31
	bl _Unwind_Resume
.LEHE66:
.LVL713:
.L588:
	b .L593
.L587:
	b .L593
.L586:
	b .L596
.L585:
	b .L596
.L584:
	b .L596
.L583:
	b .L596
.L582:
	b .L593
.L581:
	b .L596
.LVL714:
.L590:
	mr 31,3
.LVL715:
.LBB4690:
.LBB4675:
	.loc 6 95 0
	mr 3,29
	bl _ZN10GuiTriggerD2Ev
	b .L597
.LBE4675:
.LBE4690:
	.cfi_endproc
.LFE1634:
	.section	.gcc_except_table
.LLSDA1634:
	.byte	0xff
	.byte	0xff
	.byte	0x1
	.uleb128 .LLSDACSE1634-.LLSDACSB1634
.LLSDACSB1634:
	.uleb128 .LEHB45-.LFB1634
	.uleb128 .LEHE45-.LEHB45
	.uleb128 0
	.uleb128 0
	.uleb128 .LEHB46-.LFB1634
	.uleb128 .LEHE46-.LEHB46
	.uleb128 .L580-.LFB1634
	.uleb128 0
	.uleb128 .LEHB47-.LFB1634
	.uleb128 .LEHE47-.LEHB47
	.uleb128 .L590-.LFB1634
	.uleb128 0
	.uleb128 .LEHB48-.LFB1634
	.uleb128 .LEHE48-.LEHB48
	.uleb128 0
	.uleb128 0
	.uleb128 .LEHB49-.LFB1634
	.uleb128 .LEHE49-.LEHB49
	.uleb128 .L581-.LFB1634
	.uleb128 0
	.uleb128 .LEHB50-.LFB1634
	.uleb128 .LEHE50-.LEHB50
	.uleb128 0
	.uleb128 0
	.uleb128 .LEHB51-.LFB1634
	.uleb128 .LEHE51-.LEHB51
	.uleb128 .L582-.LFB1634
	.uleb128 0
	.uleb128 .LEHB52-.LFB1634
	.uleb128 .LEHE52-.LEHB52
	.uleb128 0
	.uleb128 0
	.uleb128 .LEHB53-.LFB1634
	.uleb128 .LEHE53-.LEHB53
	.uleb128 .L583-.LFB1634
	.uleb128 0
	.uleb128 .LEHB54-.LFB1634
	.uleb128 .LEHE54-.LEHB54
	.uleb128 0
	.uleb128 0
	.uleb128 .LEHB55-.LFB1634
	.uleb128 .LEHE55-.LEHB55
	.uleb128 .L584-.LFB1634
	.uleb128 0
	.uleb128 .LEHB56-.LFB1634
	.uleb128 .LEHE56-.LEHB56
	.uleb128 0
	.uleb128 0
	.uleb128 .LEHB57-.LFB1634
	.uleb128 .LEHE57-.LEHB57
	.uleb128 .L585-.LFB1634
	.uleb128 0
	.uleb128 .LEHB58-.LFB1634
	.uleb128 .LEHE58-.LEHB58
	.uleb128 0
	.uleb128 0
	.uleb128 .LEHB59-.LFB1634
	.uleb128 .LEHE59-.LEHB59
	.uleb128 .L586-.LFB1634
	.uleb128 0
	.uleb128 .LEHB60-.LFB1634
	.uleb128 .LEHE60-.LEHB60
	.uleb128 0
	.uleb128 0
	.uleb128 .LEHB61-.LFB1634
	.uleb128 .LEHE61-.LEHB61
	.uleb128 .L587-.LFB1634
	.uleb128 0
	.uleb128 .LEHB62-.LFB1634
	.uleb128 .LEHE62-.LEHB62
	.uleb128 0
	.uleb128 0
	.uleb128 .LEHB63-.LFB1634
	.uleb128 .LEHE63-.LEHB63
	.uleb128 .L588-.LFB1634
	.uleb128 0
	.uleb128 .LEHB64-.LFB1634
	.uleb128 .LEHE64-.LEHB64
	.uleb128 0
	.uleb128 0
	.uleb128 .LEHB65-.LFB1634
	.uleb128 .LEHE65-.LEHB65
	.uleb128 .L589-.LFB1634
	.uleb128 0
	.uleb128 .LEHB66-.LFB1634
	.uleb128 .LEHE66-.LEHB66
	.uleb128 0
	.uleb128 0
.LLSDACSE1634:
	.section	".text"
	.size	_ZN11MusicPlayer13InternalSetupEv, .-_ZN11MusicPlayer13InternalSetupEv
	.align 2
	.globl _ZN11MusicPlayer4ShowEv
	.type	_ZN11MusicPlayer4ShowEv, @function
_ZN11MusicPlayer4ShowEv:
.LFB1626:
	.loc 5 246 0
	.cfi_startproc
	.cfi_personality 0,__gxx_personality_v0
	.cfi_lsda 0,.LLSDA1626
.LVL716:
	stwu 1,-56(1)
.LCFI160:
	.cfi_def_cfa_offset 56
	mflr 0
	stw 29,44(1)
.LBB4732:
.LBB4733:
	.loc 11 27 0
	lis 29,_ZN11Application8instanceE@ha
	.cfi_offset 29, -12
	.cfi_register 65, 0
.LBE4733:
.LBE4732:
	.loc 5 246 0
	stw 30,48(1)
.LBB4739:
.LBB4734:
	.loc 11 27 0
	lwz 30,_ZN11Application8instanceE@l(29)
	.cfi_offset 30, -8
.LBE4734:
.LBE4739:
	.loc 5 246 0
	stw 31,52(1)
	mr 31,3
	.cfi_offset 31, -4
.LBB4740:
.LBB4735:
	.loc 11 27 0
	cmpwi 7,30,0
.LBE4735:
.LBE4740:
	.loc 5 246 0
	stw 0,60(1)
	stw 27,36(1)
	stw 28,40(1)
.LBB4741:
.LBB4736:
	.loc 11 27 0
	beq- 7,.L621
	.cfi_offset 28, -16
	.cfi_offset 27, -20
	.cfi_offset 65, 4
.LBE4736:
.LBE4741:
	.loc 5 248 0
	mr 3,30
.LVL717:
	mr 4,31
.LEHB67:
	bl _ZN8GuiFrame6RemoveEP10GuiElement
.LBB4742:
.LBB4743:
	.loc 11 27 0
	lwz 30,_ZN11Application8instanceE@l(29)
	cmpwi 7,30,0
	beq- 7,.L622
.L601:
.LBE4743:
.LBE4742:
.LBB4748:
.LBB4749:
.LBB4750:
	.loc 5 502 0
	lwz 9,604(30)
.LBB4751:
	.loc 11 69 0
	li 28,0
.LBE4751:
	.loc 5 502 0
	lwz 11,608(30)
.LBE4750:
.LBE4749:
.LBE4748:
.LBB4803:
.LBB4744:
	.loc 11 27 0
	stw 31,8(1)
.LVL718:
.LBE4744:
.LBE4803:
.LBB4804:
.LBB4799:
.LBB4790:
.LBB4787:
.LBB4752:
.LBB4753:
	.loc 10 571 0
	subf 0,9,11
.LBE4753:
.LBE4752:
	.loc 11 69 0
	srwi. 10,0,2
	mr 0,9
	bne+ 0,.L619
	b .L604
.LVL719:
.L614:
	.loc 5 502 0
	mr 9,0
.LVL720:
.L619:
.LBE4787:
.LBE4790:
.LBE4799:
.LBE4804:
.LBB4805:
.LBB4745:
	.loc 5 245 0
	slwi 27,28,2
.LBE4745:
.LBE4805:
.LBB4806:
.LBB4800:
.LBB4791:
.LBB4788:
	.loc 11 70 0
	lwzx 9,9,27
	cmpw 7,31,9
	beq- 7,.L623
.L606:
.LBB4756:
.LBB4754:
	.loc 10 571 0
	subf 9,0,11
.LBE4754:
.LBE4756:
	.loc 11 69 0
	addi 28,28,1
.LVL721:
.LBB4757:
.LBB4755:
	.loc 10 571 0
	srawi 9,9,2
.LBE4755:
.LBE4757:
	.loc 11 69 0
	cmplw 7,28,9
	blt+ 7,.L614
.LVL722:
.L604:
.LBE4788:
.LBE4791:
	.loc 11 62 0
	lwz 3,628(30)
	bl LWP_MutexLock
.LVL723:
.LBB4792:
.LBB4793:
	.loc 10 828 0
	lwz 9,608(30)
	lwz 0,612(30)
	cmpw 7,9,0
	beq- 7,.L608
.LVL724:
.LBB4794:
.LBB4795:
	.loc 16 108 0
	cmpwi 7,9,0
	li 11,0
	beq- 7,.L609
	lwz 0,8(1)
	stw 0,0(9)
	lwz 11,608(30)
.L609:
.LBE4795:
.LBE4794:
	.loc 10 831 0
	addi 11,11,4
	stw 11,608(30)
.LVL725:
.L610:
.LBE4793:
.LBE4792:
	.loc 11 64 0
	lwz 3,628(30)
	bl LWP_MutexUnlock
.LBE4800:
.LBE4806:
	.loc 5 250 0
	mr 3,31
	bl _ZN11MusicPlayer13InternalSetupEv
	.loc 5 251 0
	lwz 9,0(31)
	mr 3,31
	li 4,20
	lwz 0,136(9)
	li 5,40
	li 6,0
	mtctr 0
	bctrl
.LBB4807:
.LBB4808:
	.loc 11 27 0
	lwz 30,_ZN11Application8instanceE@l(29)
.LVL726:
	cmpwi 7,30,0
	beq- 7,.L624
.LVL727:
.LBE4808:
.LBE4807:
.LBB4811:
.LBB4812:
	.loc 11 51 0
	lwz 3,628(30)
	bl LWP_MutexLock
	.loc 11 52 0
	mr 3,30
	mr 4,31
	bl _ZN8GuiFrame6AppendEP10GuiElement
	.loc 11 53 0
	lwz 3,628(30)
	bl LWP_MutexUnlock
.LBE4812:
.LBE4811:
	.loc 5 253 0
	lwz 0,60(1)
	lwz 27,36(1)
	mtlr 0
	lwz 28,40(1)
	lwz 29,44(1)
	lwz 30,48(1)
	lwz 31,52(1)
.LVL728:
	addi 1,1,56
	.cfi_remember_state
.LCFI161:
	.cfi_def_cfa_offset 0
	.cfi_restore 31
	.cfi_restore 30
	.cfi_restore 29
	.cfi_restore 28
	.cfi_restore 27
	blr
.LVL729:
.L623:
.LCFI162:
	.cfi_restore_state
.LBB4815:
.LBB4801:
.LBB4797:
.LBB4789:
	.loc 11 71 0
	lwz 3,628(30)
	bl LWP_MutexLock
.LVL730:
.LBB4758:
.LBB4759:
	.loc 12 773 0
	lwz 3,604(30)
.LBE4759:
.LBE4758:
.LBB4761:
.LBB4762:
.LBB4763:
	.loc 5 502 0
	lwz 9,608(30)
.LBE4763:
.LBE4762:
.LBE4761:
.LBB4782:
.LBB4760:
	.loc 12 773 0
	add 3,3,27
.LVL731:
.LBE4760:
.LBE4782:
.LBB4783:
.LBB4778:
.LBB4764:
.LBB4765:
	addi 4,3,4
.LVL732:
.LBE4765:
.LBE4764:
	.loc 13 138 0
	cmpw 7,4,9
	beq- 7,.L607
.LVL733:
.LBB4766:
.LBB4767:
.LBB4768:
.LBB4769:
.LBB4770:
.LBB4771:
	.loc 14 364 0
	subf 5,4,9
.LVL734:
	.loc 14 365 0
	srawi. 5,5,2
.LVL735:
	bne- 0,.L625
.LVL736:
.L607:
.LBE4771:
.LBE4770:
.LBE4769:
.LBE4768:
.LBE4767:
.LBE4766:
	.loc 13 140 0
	addi 9,9,-4
.LBE4778:
.LBE4783:
	.loc 11 73 0
	lwz 3,628(30)
.LVL737:
.LBB4784:
.LBB4779:
	.loc 13 140 0
	stw 9,608(30)
.LBE4779:
.LBE4784:
	.loc 11 73 0
	bl LWP_MutexUnlock
.LVL738:
	lwz 0,604(30)
	lwz 11,608(30)
	b .L606
.LVL739:
.L625:
.LBB4785:
.LBB4780:
.LBB4777:
.LBB4776:
.LBB4775:
.LBB4774:
.LBB4773:
.LBB4772:
	.loc 14 366 0
	slwi 5,5,2
.LVL740:
	bl memmove
.LVL741:
	lwz 9,608(30)
.LBE4772:
.LBE4773:
.LBE4774:
.LBE4775:
.LBE4776:
.LBE4777:
.LBE4780:
.LBE4785:
	.loc 11 73 0
	lwz 3,628(30)
.LBB4786:
.LBB4781:
	.loc 13 140 0
	addi 9,9,-4
	stw 9,608(30)
.LBE4781:
.LBE4786:
	.loc 11 73 0
	bl LWP_MutexUnlock
	lwz 0,604(30)
	lwz 11,608(30)
	b .L606
.LVL742:
.L621:
.LBE4789:
.LBE4797:
.LBE4801:
.LBE4815:
.LBB4816:
.LBB4737:
	.loc 11 27 0
	li 3,632
	bl _Znwj
.LEHE67:
	mr 30,3
.LEHB68:
	bl _ZN11ApplicationC1Ev
.LEHE68:
.LBE4737:
.LBE4816:
	.loc 5 248 0
	mr 3,30
	mr 4,31
.LBB4817:
.LBB4738:
	.loc 11 27 0
	stw 30,_ZN11Application8instanceE@l(29)
.LEHB69:
.LBE4738:
.LBE4817:
	.loc 5 248 0
	bl _ZN8GuiFrame6RemoveEP10GuiElement
.LBB4818:
.LBB4746:
	.loc 11 27 0
	lwz 30,_ZN11Application8instanceE@l(29)
	cmpwi 7,30,0
	bne+ 7,.L601
.L622:
	li 3,632
	bl _Znwj
.LEHE69:
	mr 30,3
.LEHB70:
	bl _ZN11ApplicationC1Ev
.LEHE70:
	stw 30,_ZN11Application8instanceE@l(29)
	b .L601
.LVL743:
.L624:
.LBE4746:
.LBE4818:
.LBB4819:
.LBB4809:
	li 3,632
.LEHB71:
	bl _Znwj
.LEHE71:
	mr 30,3
.LEHB72:
	bl _ZN11ApplicationC1Ev
.LEHE72:
.LBE4809:
.LBE4819:
.LBB4820:
.LBB4813:
	.loc 11 51 0
	lwz 3,628(30)
.LBE4813:
.LBE4820:
.LBB4821:
.LBB4810:
	.loc 11 27 0
	stw 30,_ZN11Application8instanceE@l(29)
.LVL744:
.LEHB73:
.LBE4810:
.LBE4821:
.LBB4822:
.LBB4814:
	.loc 11 51 0
	bl LWP_MutexLock
	.loc 11 52 0
	mr 3,30
	mr 4,31
	bl _ZN8GuiFrame6AppendEP10GuiElement
	.loc 11 53 0
	lwz 3,628(30)
	bl LWP_MutexUnlock
.LBE4814:
.LBE4822:
	.loc 5 253 0
	lwz 0,60(1)
	lwz 27,36(1)
	mtlr 0
	lwz 28,40(1)
	lwz 29,44(1)
	lwz 30,48(1)
	lwz 31,52(1)
.LVL745:
	addi 1,1,56
	.cfi_remember_state
	.cfi_restore 27
	.cfi_restore 28
	.cfi_restore 29
	.cfi_restore 30
	.cfi_restore 31
.LCFI163:
	.cfi_def_cfa_offset 0
	blr
.LVL746:
.L608:
.LCFI164:
	.cfi_restore_state
.LBB4823:
.LBB4802:
.LBB4798:
.LBB4796:
	.loc 10 834 0
	mr 4,1
	addi 3,30,604
	stwu 9,24(4)
	addi 5,1,8
	bl _ZNSt6vectorIP10GuiElementSaIS1_EE13_M_insert_auxEN9__gnu_cxx17__normal_iteratorIPS1_S3_EERKS1_
	b .L610
.LVL747:
.L616:
.L620:
	mr 31,3
.LVL748:
.LBE4796:
.LBE4798:
.LBE4802:
.LBE4823:
.LBB4824:
.LBB4747:
	.loc 11 27 0
	mr 3,30
	bl _ZdlPv
	mr 3,31
	bl _Unwind_Resume
.LEHE73:
.LVL749:
.L618:
	b .L620
.LVL750:
.L617:
	b .L620
.LBE4747:
.LBE4824:
	.cfi_endproc
.LFE1626:
	.section	.gcc_except_table
.LLSDA1626:
	.byte	0xff
	.byte	0xff
	.byte	0x1
	.uleb128 .LLSDACSE1626-.LLSDACSB1626
.LLSDACSB1626:
	.uleb128 .LEHB67-.LFB1626
	.uleb128 .LEHE67-.LEHB67
	.uleb128 0
	.uleb128 0
	.uleb128 .LEHB68-.LFB1626
	.uleb128 .LEHE68-.LEHB68
	.uleb128 .L616-.LFB1626
	.uleb128 0
	.uleb128 .LEHB69-.LFB1626
	.uleb128 .LEHE69-.LEHB69
	.uleb128 0
	.uleb128 0
	.uleb128 .LEHB70-.LFB1626
	.uleb128 .LEHE70-.LEHB70
	.uleb128 .L617-.LFB1626
	.uleb128 0
	.uleb128 .LEHB71-.LFB1626
	.uleb128 .LEHE71-.LEHB71
	.uleb128 0
	.uleb128 0
	.uleb128 .LEHB72-.LFB1626
	.uleb128 .LEHE72-.LEHB72
	.uleb128 .L618-.LFB1626
	.uleb128 0
	.uleb128 .LEHB73-.LFB1626
	.uleb128 .LEHE73-.LEHB73
	.uleb128 0
	.uleb128 0
.LLSDACSE1626:
	.section	".text"
	.size	_ZN11MusicPlayer4ShowEv, .-_ZN11MusicPlayer4ShowEv
	.weak	_ZTS11MusicPlayer
	.section	.rodata._ZTS11MusicPlayer,"aG",@progbits,_ZTS11MusicPlayer,comdat
	.align 2
	.type	_ZTS11MusicPlayer, @object
	.size	_ZTS11MusicPlayer, 14
_ZTS11MusicPlayer:
	.string	"11MusicPlayer"
	.weak	_ZTI11MusicPlayer
	.section	.rodata._ZTI11MusicPlayer,"aG",@progbits,_ZTI11MusicPlayer,comdat
	.align 2
	.type	_ZTI11MusicPlayer, @object
	.size	_ZTI11MusicPlayer, 40
_ZTI11MusicPlayer:
	.long	_ZTVN10__cxxabiv121__vmi_class_type_infoE+8
	.long	_ZTS11MusicPlayer
	.long	0
	.long	3
	.long	_ZTI8GuiFrame
	.long	2
	.long	_ZTI6Thread
	.long	45058
	.long	_ZTIN7sigslot9has_slotsINS_15single_threadedEEE
	.long	48130
	.weak	_ZTV11MusicPlayer
	.section	.rodata._ZTV11MusicPlayer,"aG",@progbits,_ZTV11MusicPlayer,comdat
	.align 3
	.type	_ZTV11MusicPlayer, @object
	.size	_ZTV11MusicPlayer, 304
_ZTV11MusicPlayer:
	.long	0
	.long	_ZTI11MusicPlayer
	.long	_ZN11MusicPlayerD1Ev
	.long	_ZN11MusicPlayerD0Ev
	.long	_ZN10GuiElement9SetParentEPS_
	.long	_ZN10GuiElement9GetParentEv
	.long	_ZN10GuiElement7GetLeftEv
	.long	_ZN10GuiElement6GetTopEv
	.long	_ZN10GuiElement12GetZPositionEv
	.long	_ZN10GuiElement10GetLeftPosEv
	.long	_ZN10GuiElement9GetTopPosEv
	.long	_ZN10GuiElement8GetWidthEv
	.long	_ZN10GuiElement9GetHeightEv
	.long	_ZN10GuiElement7SetSizeEii
	.long	_ZN8GuiFrame10SetVisibleEb
	.long	_ZN10GuiElement9IsVisibleEv
	.long	_ZN10GuiElement12IsSelectableEv
	.long	_ZN10GuiElement11IsClickableEv
	.long	_ZN10GuiElement10IsHoldableEv
	.long	_ZN10GuiElement13SetSelectableEb
	.long	_ZN10GuiElement12SetClickableEb
	.long	_ZN10GuiElement11SetHoldableEb
	.long	_ZN10GuiElement8SetStateEii
	.long	_ZN10GuiElement8GetStateEv
	.long	_ZN10GuiElement12GetStateChanEv
	.long	_ZN8GuiFrame10ResetStateEv
	.long	_ZN10GuiElement8SetAlphaEi
	.long	_ZN10GuiElement8GetAlphaEv
	.long	_ZN10GuiElement8SetScaleEf
	.long	_ZN10GuiElement9SetScaleXEf
	.long	_ZN10GuiElement9SetScaleYEf
	.long	_ZN10GuiElement8GetScaleEv
	.long	_ZN10GuiElement9GetScaleXEv
	.long	_ZN10GuiElement9GetScaleYEv
	.long	_ZN10GuiElement6RumbleEv
	.long	_ZN10GuiElement9SetRumbleEb
	.long	_ZN10GuiElement9SetEffectEiii
	.long	_ZN10GuiElement15SetEffectOnOverEiii
	.long	_ZN10GuiElement13SetEffectGrowEv
	.long	_ZN10GuiElement12ResetEffectsEv
	.long	_ZNK10GuiElement9GetEffectEv
	.long	_ZNK10GuiElement10IsAnimatedEv
	.long	_ZN8GuiFrame9SetBoundsE4RectIiE
	.long	_ZN10GuiElement8IsInsideEii
	.long	_ZN10GuiElement11SetPositionEii
	.long	_ZN10GuiElement11SetPositionEiii
	.long	_ZN8GuiFrame11GetSelectedEv
	.long	_ZN10GuiElement12SetAlignmentEi
	.long	_ZNK10GuiElement12GetAlignmentEv
	.long	_ZN8GuiFrame6UpdateEP10GuiTrigger
	.long	_ZN11MusicPlayer4DrawEv
	.long	_ZN10GuiElement13UpdateEffectsEv
	.long	_ZN8GuiFrame5CloseEv
	.long	_ZN8GuiFrame4showEv
	.long	_ZN8GuiFrame4hideEv
	.long	_ZN8GuiFrame4execEv
	.long	_ZN8GuiFrame12updateEventsEv
	.long	_ZN11MusicPlayer13executeThreadEv
	.long	-176
	.long	_ZTI11MusicPlayer
	.long	_ZThn176_N11MusicPlayerD1Ev
	.long	_ZThn176_N11MusicPlayerD0Ev
	.long	_ZN6Thread11startThreadEv
	.long	_ZNK6Thread9getThreadEv
	.long	_ZThn176_N11MusicPlayer13executeThreadEv
	.long	_ZN6Thread13suspendThreadEv
	.long	_ZN6Thread12resumeThreadEv
	.long	_ZN6Thread17setThreadPriorityEi
	.long	_ZNK6Thread15isThreadRunningEv
	.long	_ZN6Thread14shutdownThreadEv
	.long	-188
	.long	_ZTI11MusicPlayer
	.long	_ZThn188_N11MusicPlayerD1Ev
	.long	_ZThn188_N11MusicPlayerD0Ev
	.long	_ZN7sigslot15single_threaded4lockEv
	.long	_ZN7sigslot15single_threaded6unlockEv
	.globl _ZN11MusicPlayer8instanceE
	.weak	_ZTV6Thread
	.section	.rodata._ZTV6Thread,"aG",@progbits,_ZTV6Thread,comdat
	.align 3
	.type	_ZTV6Thread, @object
	.size	_ZTV6Thread, 48
_ZTV6Thread:
	.long	0
	.long	_ZTI6Thread
	.long	_ZN6ThreadD1Ev
	.long	_ZN6ThreadD0Ev
	.long	_ZN6Thread11startThreadEv
	.long	_ZNK6Thread9getThreadEv
	.long	__cxa_pure_virtual
	.long	_ZN6Thread13suspendThreadEv
	.long	_ZN6Thread12resumeThreadEv
	.long	_ZN6Thread17setThreadPriorityEi
	.long	_ZNK6Thread15isThreadRunningEv
	.long	_ZN6Thread14shutdownThreadEv
	.weak	_ZTVN7sigslot15single_threadedE
	.section	.rodata._ZTVN7sigslot15single_threadedE,"aG",@progbits,_ZTVN7sigslot15single_threadedE,comdat
	.align 3
	.type	_ZTVN7sigslot15single_threadedE, @object
	.size	_ZTVN7sigslot15single_threadedE, 24
_ZTVN7sigslot15single_threadedE:
	.long	0
	.long	_ZTIN7sigslot15single_threadedE
	.long	_ZN7sigslot15single_threadedD1Ev
	.long	_ZN7sigslot15single_threadedD0Ev
	.long	_ZN7sigslot15single_threaded4lockEv
	.long	_ZN7sigslot15single_threaded6unlockEv
	.weak	_ZTVN7sigslot9has_slotsINS_15single_threadedEEE
	.section	.rodata._ZTVN7sigslot9has_slotsINS_15single_threadedEEE,"aG",@progbits,_ZTVN7sigslot9has_slotsINS_15single_threadedEEE,comdat
	.align 3
	.type	_ZTVN7sigslot9has_slotsINS_15single_threadedEEE, @object
	.size	_ZTVN7sigslot9has_slotsINS_15single_threadedEEE, 24
_ZTVN7sigslot9has_slotsINS_15single_threadedEEE:
	.long	0
	.long	_ZTIN7sigslot9has_slotsINS_15single_threadedEEE
	.long	_ZN7sigslot9has_slotsINS_15single_threadedEED1Ev
	.long	_ZN7sigslot9has_slotsINS_15single_threadedEED0Ev
	.long	_ZN7sigslot15single_threaded4lockEv
	.long	_ZN7sigslot15single_threaded6unlockEv
	.weak	_ZTVN7sigslot17_connection_base2IP8PlayListiNS_15single_threadedEEE
	.section	.rodata._ZTVN7sigslot17_connection_base2IP8PlayListiNS_15single_threadedEEE,"aG",@progbits,_ZTVN7sigslot17_connection_base2IP8PlayListiNS_15single_threadedEEE,comdat
	.align 3
	.type	_ZTVN7sigslot17_connection_base2IP8PlayListiNS_15single_threadedEEE, @object
	.size	_ZTVN7sigslot17_connection_base2IP8PlayListiNS_15single_threadedEEE, 32
_ZTVN7sigslot17_connection_base2IP8PlayListiNS_15single_threadedEEE:
	.long	0
	.long	_ZTIN7sigslot17_connection_base2IP8PlayListiNS_15single_threadedEEE
	.long	_ZN7sigslot17_connection_base2IP8PlayListiNS_15single_threadedEED1Ev
	.long	_ZN7sigslot17_connection_base2IP8PlayListiNS_15single_threadedEED0Ev
	.long	__cxa_pure_virtual
	.long	__cxa_pure_virtual
	.long	__cxa_pure_virtual
	.long	__cxa_pure_virtual
	.weak	_ZTVN7sigslot12_connection2I11MusicPlayerP8PlayListiNS_15single_threadedEEE
	.section	.rodata._ZTVN7sigslot12_connection2I11MusicPlayerP8PlayListiNS_15single_threadedEEE,"aG",@progbits,_ZTVN7sigslot12_connection2I11MusicPlayerP8PlayListiNS_15single_threadedEEE,comdat
	.align 3
	.type	_ZTVN7sigslot12_connection2I11MusicPlayerP8PlayListiNS_15single_threadedEEE, @object
	.size	_ZTVN7sigslot12_connection2I11MusicPlayerP8PlayListiNS_15single_threadedEEE, 32
_ZTVN7sigslot12_connection2I11MusicPlayerP8PlayListiNS_15single_threadedEEE:
	.long	0
	.long	_ZTIN7sigslot12_connection2I11MusicPlayerP8PlayListiNS_15single_threadedEEE
	.long	_ZN7sigslot12_connection2I11MusicPlayerP8PlayListiNS_15single_threadedEED1Ev
	.long	_ZN7sigslot12_connection2I11MusicPlayerP8PlayListiNS_15single_threadedEED0Ev
	.long	_ZNK7sigslot12_connection2I11MusicPlayerP8PlayListiNS_15single_threadedEE7getdestEv
	.long	_ZN7sigslot12_connection2I11MusicPlayerP8PlayListiNS_15single_threadedEE4emitES3_i
	.long	_ZN7sigslot12_connection2I11MusicPlayerP8PlayListiNS_15single_threadedEE5cloneEv
	.long	_ZN7sigslot12_connection2I11MusicPlayerP8PlayListiNS_15single_threadedEE9duplicateEPNS_9has_slotsIS4_EE
	.weak	_ZTV16SimpleGuiTrigger
	.section	.rodata._ZTV16SimpleGuiTrigger,"aG",@progbits,_ZTV16SimpleGuiTrigger,comdat
	.align 3
	.type	_ZTV16SimpleGuiTrigger, @object
	.size	_ZTV16SimpleGuiTrigger, 16
_ZTV16SimpleGuiTrigger:
	.long	0
	.long	_ZTI16SimpleGuiTrigger
	.long	_ZN16SimpleGuiTriggerD1Ev
	.long	_ZN16SimpleGuiTriggerD0Ev
	.weak	_ZTVN7sigslot17_connection_base3IP9GuiButtoniRK6_POINTNS_15single_threadedEEE
	.section	.rodata._ZTVN7sigslot17_connection_base3IP9GuiButtoniRK6_POINTNS_15single_threadedEEE,"aG",@progbits,_ZTVN7sigslot17_connection_base3IP9GuiButtoniRK6_POINTNS_15single_threadedEEE,comdat
	.align 3
	.type	_ZTVN7sigslot17_connection_base3IP9GuiButtoniRK6_POINTNS_15single_threadedEEE, @object
	.size	_ZTVN7sigslot17_connection_base3IP9GuiButtoniRK6_POINTNS_15single_threadedEEE, 32
_ZTVN7sigslot17_connection_base3IP9GuiButtoniRK6_POINTNS_15single_threadedEEE:
	.long	0
	.long	_ZTIN7sigslot17_connection_base3IP9GuiButtoniRK6_POINTNS_15single_threadedEEE
	.long	_ZN7sigslot17_connection_base3IP9GuiButtoniRK6_POINTNS_15single_threadedEED1Ev
	.long	_ZN7sigslot17_connection_base3IP9GuiButtoniRK6_POINTNS_15single_threadedEED0Ev
	.long	__cxa_pure_virtual
	.long	__cxa_pure_virtual
	.long	__cxa_pure_virtual
	.long	__cxa_pure_virtual
	.weak	_ZTVN7sigslot12_connection3I11MusicPlayerP9GuiButtoniRK6_POINTNS_15single_threadedEEE
	.section	.rodata._ZTVN7sigslot12_connection3I11MusicPlayerP9GuiButtoniRK6_POINTNS_15single_threadedEEE,"aG",@progbits,_ZTVN7sigslot12_connection3I11MusicPlayerP9GuiButtoniRK6_POINTNS_15single_threadedEEE,comdat
	.align 3
	.type	_ZTVN7sigslot12_connection3I11MusicPlayerP9GuiButtoniRK6_POINTNS_15single_threadedEEE, @object
	.size	_ZTVN7sigslot12_connection3I11MusicPlayerP9GuiButtoniRK6_POINTNS_15single_threadedEEE, 32
_ZTVN7sigslot12_connection3I11MusicPlayerP9GuiButtoniRK6_POINTNS_15single_threadedEEE:
	.long	0
	.long	_ZTIN7sigslot12_connection3I11MusicPlayerP9GuiButtoniRK6_POINTNS_15single_threadedEEE
	.long	_ZN7sigslot12_connection3I11MusicPlayerP9GuiButtoniRK6_POINTNS_15single_threadedEED1Ev
	.long	_ZN7sigslot12_connection3I11MusicPlayerP9GuiButtoniRK6_POINTNS_15single_threadedEED0Ev
	.long	_ZNK7sigslot12_connection3I11MusicPlayerP9GuiButtoniRK6_POINTNS_15single_threadedEE7getdestEv
	.long	_ZN7sigslot12_connection3I11MusicPlayerP9GuiButtoniRK6_POINTNS_15single_threadedEE4emitES3_iS6_
	.long	_ZN7sigslot12_connection3I11MusicPlayerP9GuiButtoniRK6_POINTNS_15single_threadedEE5cloneEv
	.long	_ZN7sigslot12_connection3I11MusicPlayerP9GuiButtoniRK6_POINTNS_15single_threadedEE9duplicateEPNS_9has_slotsIS7_EE
	.weak	_ZTI6Thread
	.section	.sdata._ZTI6Thread,"awG",@progbits,_ZTI6Thread,comdat
	.align 2
	.type	_ZTI6Thread, @object
	.size	_ZTI6Thread, 8
_ZTI6Thread:
	.long	_ZTVN10__cxxabiv117__class_type_infoE+8
	.long	_ZTS6Thread
	.weak	_ZTIN7sigslot9has_slotsINS_15single_threadedEEE
	.section	.rodata._ZTIN7sigslot9has_slotsINS_15single_threadedEEE,"aG",@progbits,_ZTIN7sigslot9has_slotsINS_15single_threadedEEE,comdat
	.align 2
	.type	_ZTIN7sigslot9has_slotsINS_15single_threadedEEE, @object
	.size	_ZTIN7sigslot9has_slotsINS_15single_threadedEEE, 12
_ZTIN7sigslot9has_slotsINS_15single_threadedEEE:
	.long	_ZTVN10__cxxabiv120__si_class_type_infoE+8
	.long	_ZTSN7sigslot9has_slotsINS_15single_threadedEEE
	.long	_ZTIN7sigslot15single_threadedE
	.weak	_ZTIN7sigslot15single_threadedE
	.section	.sdata._ZTIN7sigslot15single_threadedE,"awG",@progbits,_ZTIN7sigslot15single_threadedE,comdat
	.align 2
	.type	_ZTIN7sigslot15single_threadedE, @object
	.size	_ZTIN7sigslot15single_threadedE, 8
_ZTIN7sigslot15single_threadedE:
	.long	_ZTVN10__cxxabiv117__class_type_infoE+8
	.long	_ZTSN7sigslot15single_threadedE
	.weak	_ZTIN7sigslot17_connection_base2IP8PlayListiNS_15single_threadedEEE
	.section	.sdata._ZTIN7sigslot17_connection_base2IP8PlayListiNS_15single_threadedEEE,"awG",@progbits,_ZTIN7sigslot17_connection_base2IP8PlayListiNS_15single_threadedEEE,comdat
	.align 2
	.type	_ZTIN7sigslot17_connection_base2IP8PlayListiNS_15single_threadedEEE, @object
	.size	_ZTIN7sigslot17_connection_base2IP8PlayListiNS_15single_threadedEEE, 8
_ZTIN7sigslot17_connection_base2IP8PlayListiNS_15single_threadedEEE:
	.long	_ZTVN10__cxxabiv117__class_type_infoE+8
	.long	_ZTSN7sigslot17_connection_base2IP8PlayListiNS_15single_threadedEEE
	.weak	_ZTIN7sigslot12_connection2I11MusicPlayerP8PlayListiNS_15single_threadedEEE
	.section	.rodata._ZTIN7sigslot12_connection2I11MusicPlayerP8PlayListiNS_15single_threadedEEE,"aG",@progbits,_ZTIN7sigslot12_connection2I11MusicPlayerP8PlayListiNS_15single_threadedEEE,comdat
	.align 2
	.type	_ZTIN7sigslot12_connection2I11MusicPlayerP8PlayListiNS_15single_threadedEEE, @object
	.size	_ZTIN7sigslot12_connection2I11MusicPlayerP8PlayListiNS_15single_threadedEEE, 12
_ZTIN7sigslot12_connection2I11MusicPlayerP8PlayListiNS_15single_threadedEEE:
	.long	_ZTVN10__cxxabiv120__si_class_type_infoE+8
	.long	_ZTSN7sigslot12_connection2I11MusicPlayerP8PlayListiNS_15single_threadedEEE
	.long	_ZTIN7sigslot17_connection_base2IP8PlayListiNS_15single_threadedEEE
	.weak	_ZTI16SimpleGuiTrigger
	.section	.rodata._ZTI16SimpleGuiTrigger,"aG",@progbits,_ZTI16SimpleGuiTrigger,comdat
	.align 2
	.type	_ZTI16SimpleGuiTrigger, @object
	.size	_ZTI16SimpleGuiTrigger, 12
_ZTI16SimpleGuiTrigger:
	.long	_ZTVN10__cxxabiv120__si_class_type_infoE+8
	.long	_ZTS16SimpleGuiTrigger
	.long	_ZTI10GuiTrigger
	.weak	_ZTIN7sigslot17_connection_base3IP9GuiButtoniRK6_POINTNS_15single_threadedEEE
	.section	.sdata._ZTIN7sigslot17_connection_base3IP9GuiButtoniRK6_POINTNS_15single_threadedEEE,"awG",@progbits,_ZTIN7sigslot17_connection_base3IP9GuiButtoniRK6_POINTNS_15single_threadedEEE,comdat
	.align 2
	.type	_ZTIN7sigslot17_connection_base3IP9GuiButtoniRK6_POINTNS_15single_threadedEEE, @object
	.size	_ZTIN7sigslot17_connection_base3IP9GuiButtoniRK6_POINTNS_15single_threadedEEE, 8
_ZTIN7sigslot17_connection_base3IP9GuiButtoniRK6_POINTNS_15single_threadedEEE:
	.long	_ZTVN10__cxxabiv117__class_type_infoE+8
	.long	_ZTSN7sigslot17_connection_base3IP9GuiButtoniRK6_POINTNS_15single_threadedEEE
	.weak	_ZTIN7sigslot12_connection3I11MusicPlayerP9GuiButtoniRK6_POINTNS_15single_threadedEEE
	.section	.rodata._ZTIN7sigslot12_connection3I11MusicPlayerP9GuiButtoniRK6_POINTNS_15single_threadedEEE,"aG",@progbits,_ZTIN7sigslot12_connection3I11MusicPlayerP9GuiButtoniRK6_POINTNS_15single_threadedEEE,comdat
	.align 2
	.type	_ZTIN7sigslot12_connection3I11MusicPlayerP9GuiButtoniRK6_POINTNS_15single_threadedEEE, @object
	.size	_ZTIN7sigslot12_connection3I11MusicPlayerP9GuiButtoniRK6_POINTNS_15single_threadedEEE, 12
_ZTIN7sigslot12_connection3I11MusicPlayerP9GuiButtoniRK6_POINTNS_15single_threadedEEE:
	.long	_ZTVN10__cxxabiv120__si_class_type_infoE+8
	.long	_ZTSN7sigslot12_connection3I11MusicPlayerP9GuiButtoniRK6_POINTNS_15single_threadedEEE
	.long	_ZTIN7sigslot17_connection_base3IP9GuiButtoniRK6_POINTNS_15single_threadedEEE
	.weak	_ZTS6Thread
	.section	.sdata._ZTS6Thread,"awG",@progbits,_ZTS6Thread,comdat
	.align 2
	.type	_ZTS6Thread, @object
	.size	_ZTS6Thread, 8
_ZTS6Thread:
	.string	"6Thread"
	.weak	_ZTSN7sigslot9has_slotsINS_15single_threadedEEE
	.section	.rodata._ZTSN7sigslot9has_slotsINS_15single_threadedEEE,"aG",@progbits,_ZTSN7sigslot9has_slotsINS_15single_threadedEEE,comdat
	.align 2
	.type	_ZTSN7sigslot9has_slotsINS_15single_threadedEEE, @object
	.size	_ZTSN7sigslot9has_slotsINS_15single_threadedEEE, 44
_ZTSN7sigslot9has_slotsINS_15single_threadedEEE:
	.string	"N7sigslot9has_slotsINS_15single_threadedEEE"
	.weak	_ZTSN7sigslot15single_threadedE
	.section	.rodata._ZTSN7sigslot15single_threadedE,"aG",@progbits,_ZTSN7sigslot15single_threadedE,comdat
	.align 2
	.type	_ZTSN7sigslot15single_threadedE, @object
	.size	_ZTSN7sigslot15single_threadedE, 28
_ZTSN7sigslot15single_threadedE:
	.string	"N7sigslot15single_threadedE"
	.weak	_ZTSN7sigslot17_connection_base2IP8PlayListiNS_15single_threadedEEE
	.section	.rodata._ZTSN7sigslot17_connection_base2IP8PlayListiNS_15single_threadedEEE,"aG",@progbits,_ZTSN7sigslot17_connection_base2IP8PlayListiNS_15single_threadedEEE,comdat
	.align 2
	.type	_ZTSN7sigslot17_connection_base2IP8PlayListiNS_15single_threadedEEE, @object
	.size	_ZTSN7sigslot17_connection_base2IP8PlayListiNS_15single_threadedEEE, 64
_ZTSN7sigslot17_connection_base2IP8PlayListiNS_15single_threadedEEE:
	.string	"N7sigslot17_connection_base2IP8PlayListiNS_15single_threadedEEE"
	.weak	_ZTSN7sigslot12_connection2I11MusicPlayerP8PlayListiNS_15single_threadedEEE
	.section	.rodata._ZTSN7sigslot12_connection2I11MusicPlayerP8PlayListiNS_15single_threadedEEE,"aG",@progbits,_ZTSN7sigslot12_connection2I11MusicPlayerP8PlayListiNS_15single_threadedEEE,comdat
	.align 2
	.type	_ZTSN7sigslot12_connection2I11MusicPlayerP8PlayListiNS_15single_threadedEEE, @object
	.size	_ZTSN7sigslot12_connection2I11MusicPlayerP8PlayListiNS_15single_threadedEEE, 72
_ZTSN7sigslot12_connection2I11MusicPlayerP8PlayListiNS_15single_threadedEEE:
	.string	"N7sigslot12_connection2I11MusicPlayerP8PlayListiNS_15single_threadedEEE"
	.weak	_ZTS16SimpleGuiTrigger
	.section	.rodata._ZTS16SimpleGuiTrigger,"aG",@progbits,_ZTS16SimpleGuiTrigger,comdat
	.align 2
	.type	_ZTS16SimpleGuiTrigger, @object
	.size	_ZTS16SimpleGuiTrigger, 19
_ZTS16SimpleGuiTrigger:
	.string	"16SimpleGuiTrigger"
	.weak	_ZTSN7sigslot17_connection_base3IP9GuiButtoniRK6_POINTNS_15single_threadedEEE
	.section	.rodata._ZTSN7sigslot17_connection_base3IP9GuiButtoniRK6_POINTNS_15single_threadedEEE,"aG",@progbits,_ZTSN7sigslot17_connection_base3IP9GuiButtoniRK6_POINTNS_15single_threadedEEE,comdat
	.align 2
	.type	_ZTSN7sigslot17_connection_base3IP9GuiButtoniRK6_POINTNS_15single_threadedEEE, @object
	.size	_ZTSN7sigslot17_connection_base3IP9GuiButtoniRK6_POINTNS_15single_threadedEEE, 74
_ZTSN7sigslot17_connection_base3IP9GuiButtoniRK6_POINTNS_15single_threadedEEE:
	.string	"N7sigslot17_connection_base3IP9GuiButtoniRK6_POINTNS_15single_threadedEEE"
	.weak	_ZTSN7sigslot12_connection3I11MusicPlayerP9GuiButtoniRK6_POINTNS_15single_threadedEEE
	.section	.rodata._ZTSN7sigslot12_connection3I11MusicPlayerP9GuiButtoniRK6_POINTNS_15single_threadedEEE,"aG",@progbits,_ZTSN7sigslot12_connection3I11MusicPlayerP9GuiButtoniRK6_POINTNS_15single_threadedEEE,comdat
	.align 2
	.type	_ZTSN7sigslot12_connection3I11MusicPlayerP9GuiButtoniRK6_POINTNS_15single_threadedEEE, @object
	.size	_ZTSN7sigslot12_connection3I11MusicPlayerP9GuiButtoniRK6_POINTNS_15single_threadedEEE, 82
_ZTSN7sigslot12_connection3I11MusicPlayerP9GuiButtoniRK6_POINTNS_15single_threadedEEE:
	.string	"N7sigslot12_connection3I11MusicPlayerP9GuiButtoniRK6_POINTNS_15single_threadedEEE"
	.weak	_ZN7sigslot15single_threadedD1Ev
	.set	_ZN7sigslot15single_threadedD1Ev,_ZN7sigslot15single_threadedD2Ev
	.weak	_ZN7sigslot17_connection_base2IP8PlayListiNS_15single_threadedEED1Ev
	.set	_ZN7sigslot17_connection_base2IP8PlayListiNS_15single_threadedEED1Ev,_ZN7sigslot17_connection_base2IP8PlayListiNS_15single_threadedEED2Ev
	.weak	_ZN7sigslot17_connection_base3IP9GuiButtoniRK6_POINTNS_15single_threadedEED1Ev
	.set	_ZN7sigslot17_connection_base3IP9GuiButtoniRK6_POINTNS_15single_threadedEED1Ev,_ZN7sigslot17_connection_base3IP9GuiButtoniRK6_POINTNS_15single_threadedEED2Ev
	.weak	_ZN7sigslot12_connection3I11MusicPlayerP9GuiButtoniRK6_POINTNS_15single_threadedEED1Ev
	.set	_ZN7sigslot12_connection3I11MusicPlayerP9GuiButtoniRK6_POINTNS_15single_threadedEED1Ev,_ZN7sigslot12_connection3I11MusicPlayerP9GuiButtoniRK6_POINTNS_15single_threadedEED2Ev
	.weak	_ZN7sigslot12_connection2I11MusicPlayerP8PlayListiNS_15single_threadedEED1Ev
	.set	_ZN7sigslot12_connection2I11MusicPlayerP8PlayListiNS_15single_threadedEED1Ev,_ZN7sigslot12_connection2I11MusicPlayerP8PlayListiNS_15single_threadedEED2Ev
	.weak	_ZN16SimpleGuiTriggerD1Ev
	.set	_ZN16SimpleGuiTriggerD1Ev,_ZN16SimpleGuiTriggerD2Ev
	.weak	_ZN6ThreadD1Ev
	.set	_ZN6ThreadD1Ev,_ZN6ThreadD2Ev
	.set	.LTHUNK4,_ZN11MusicPlayer13executeThreadEv
	.weak	_ZN7sigslot9has_slotsINS_15single_threadedEED1Ev
	.set	_ZN7sigslot9has_slotsINS_15single_threadedEED1Ev,_ZN7sigslot9has_slotsINS_15single_threadedEED2Ev
	.globl _ZN11MusicPlayerD1Ev
	.set	_ZN11MusicPlayerD1Ev,_ZN11MusicPlayerD2Ev
	.set	.LTHUNK0,_ZN11MusicPlayerD1Ev
	.set	.LTHUNK1,_ZN11MusicPlayerD1Ev
	.set	.LTHUNK2,_ZN11MusicPlayerD0Ev
	.set	.LTHUNK3,_ZN11MusicPlayerD0Ev
	.globl _ZN11MusicPlayerC1Ev
	.set	_ZN11MusicPlayerC1Ev,_ZN11MusicPlayerC2Ev
	.section	.rodata.cst4,"aM",@progbits,4
	.align 2
.LC1:
	.4byte	1501560836
.LC2:
	.4byte	1132396544
.LC3:
	.4byte	1056964608
	.section	.rodata.str1.4,"aMS",@progbits,1
	.align 2
.LC4:
	.string	"SaveGameGX Default Music"
	.zero	3
.LC5:
	.string	"%s"
	.zero	1
.LC6:
	.string	"bg_music.ogg"
	.zero	3
.LC7:
	.string	"button_over.wav"
.LC8:
	.string	"music_player.png"
	.zero	3
.LC9:
	.string	"music_nav_default.png"
	.zero	2
.LC10:
	.string	"music_nav_up.png"
	.zero	3
.LC11:
	.string	"music_nav_down.png"
	.zero	1
.LC12:
	.string	"music_nav_left.png"
	.zero	1
.LC13:
	.string	"music_nav_right.png"
.LC14:
	.string	"r=0 g=0 b=0 a=255 - MusicPlayer played title text color"
	.section	.sbss,"aw",@nobits
	.align 2
	.type	_ZN11MusicPlayer8instanceE, @object
	.size	_ZN11MusicPlayer8instanceE, 4
_ZN11MusicPlayer8instanceE:
	.zero	4
	.section	".text"
.Letext0:
	.file 21 "d:\\devkitpro\\devkitppc\\bin\\../lib/gcc/powerpc-eabi/4.6.3/../../../../powerpc-eabi/include/machine/_types.h"
	.file 22 "d:\\devkitpro\\devkitppc\\bin\\../lib/gcc/powerpc-eabi/4.6.3/../../../../powerpc-eabi/include/sys/lock.h"
	.file 23 "d:\\devkitpro\\devkitppc\\bin\\../lib/gcc/powerpc-eabi/4.6.3/include/stddef.h"
	.file 24 "d:\\devkitpro\\devkitppc\\bin\\../lib/gcc/powerpc-eabi/4.6.3/../../../../powerpc-eabi/include/sys/_types.h"
	.file 25 "d:\\devkitpro\\devkitppc\\bin\\../lib/gcc/powerpc-eabi/4.6.3/../../../../powerpc-eabi/include/sys/reent.h"
	.file 26 "d:\\devkitpro\\devkitppc\\bin\\../lib/gcc/powerpc-eabi/4.6.3/../../../../powerpc-eabi/include/time.h"
	.file 27 "d:\\devkitpro\\devkitppc\\bin\\../lib/gcc/powerpc-eabi/4.6.3/../../../../powerpc-eabi/include/stdint.h"
	.file 28 "d:/devkitPro/libogc/include/gctypes.h"
	.file 29 "d:/devkitPro/libogc/include/ogc/lwp.h"
	.file 30 "d:/devkitPro/libogc/include/ogc/gx.h"
	.file 31 "<built-in>"
	.file 32 "d:\\devkitpro\\devkitppc\\bin\\../lib/gcc/powerpc-eabi/4.6.3/../../../../powerpc-eabi/include/stdio.h"
	.file 33 "d:\\devkitpro\\devkitppc\\bin\\../lib/gcc/powerpc-eabi/4.6.3/../../../../powerpc-eabi/include/wchar.h"
	.file 34 "d:\\devkitpro\\devkitppc\\bin\\../lib/gcc/powerpc-eabi/4.6.3/../../../../powerpc-eabi/include/c++/4.6.3/cwchar"
	.file 35 "d:\\devkitpro\\devkitppc\\bin\\../lib/gcc/powerpc-eabi/4.6.3/../../../../powerpc-eabi/include/c++/4.6.3/powerpc-eabi/bits/c++config.h"
	.file 36 "d:\\devkitpro\\devkitppc\\bin\\../lib/gcc/powerpc-eabi/4.6.3/../../../../powerpc-eabi/include/c++/4.6.3/clocale"
	.file 37 "d:\\devkitpro\\devkitppc\\bin\\../lib/gcc/powerpc-eabi/4.6.3/../../../../powerpc-eabi/include/c++/4.6.3/bits/stringfwd.h"
	.file 38 "d:\\devkitpro\\devkitppc\\bin\\../lib/gcc/powerpc-eabi/4.6.3/../../../../powerpc-eabi/include/c++/4.6.3/bits/stl_construct.h"
	.file 39 "d:\\devkitpro\\devkitppc\\bin\\../lib/gcc/powerpc-eabi/4.6.3/../../../../powerpc-eabi/include/c++/4.6.3/bits/move.h"
	.file 40 "d:\\devkitpro\\devkitppc\\bin\\../lib/gcc/powerpc-eabi/4.6.3/../../../../powerpc-eabi/include/c++/4.6.3/bits/stl_uninitialized.h"
	.file 41 "d:\\devkitpro\\devkitppc\\bin\\../lib/gcc/powerpc-eabi/4.6.3/../../../../powerpc-eabi/include/c++/4.6.3/bits/cpp_type_traits.h"
	.file 42 "d:\\devkitpro\\devkitppc\\bin\\../lib/gcc/powerpc-eabi/4.6.3/../../../../powerpc-eabi/include/c++/4.6.3/debug/debug.h"
	.file 43 "d:\\devkitpro\\devkitppc\\bin\\../lib/gcc/powerpc-eabi/4.6.3/../../../../powerpc-eabi/include/c++/4.6.3/bits/allocator.h"
	.file 44 "d:\\devkitpro\\devkitppc\\bin\\../lib/gcc/powerpc-eabi/4.6.3/../../../../powerpc-eabi/include/locale.h"
	.file 45 "d:\\devkitpro\\devkitppc\\bin\\../lib/gcc/powerpc-eabi/4.6.3/../../../../powerpc-eabi/include/c++/4.6.3/powerpc-eabi/bits/atomic_word.h"
	.file 46 "d:\\devkitpro\\devkitppc\\bin\\../lib/gcc/powerpc-eabi/4.6.3/../../../../powerpc-eabi/include/c++/4.6.3/ext/numeric_traits.h"
	.file 47 "d:\\devkitpro\\devkitppc\\bin\\../lib/gcc/powerpc-eabi/4.6.3/../../../../powerpc-eabi/include/c++/4.6.3/bits/basic_string.tcc"
	.file 48 "d:\\devkitpro\\devkitppc\\bin\\../lib/gcc/powerpc-eabi/4.6.3/../../../../powerpc-eabi/include/c++/4.6.3/bits/stl_iterator_base_types.h"
	.file 49 "d:/Projects/SaveGameManager/savegame-manager-gx/trunk/source/SoundOperations/../Controls/../GUI/../Settings/../FileOperations/FileExtensions.h"
	.file 50 "d:/Projects/SaveGameManager/savegame-manager-gx/trunk/source/SoundOperations/../Controls/../GUI/../Settings/../Controls/AppControls.hpp"
	.file 51 "d:/Projects/SaveGameManager/savegame-manager-gx/trunk/source/SoundOperations/../Controls/../GUI/../Settings/CSettings.h"
	.file 52 "d:/Projects/SaveGameManager/savegame-manager-gx/trunk/source/SoundOperations/../Controls/../GUI/../Settings/SettingsEnums.h"
	.file 53 "d:\\devkitpro\\devkitppc\\bin\\../lib/gcc/powerpc-eabi/4.6.3/../../../../powerpc-eabi/include/c++/4.6.3/bits/list.tcc"
	.file 54 "d:\\devkitpro\\devkitppc\\bin\\../lib/gcc/powerpc-eabi/4.6.3/../../../../powerpc-eabi/include/c++/4.6.3/bits/stl_function.h"
	.file 55 "d:/Projects/SaveGameManager/savegame-manager-gx/trunk/source/SoundOperations/../Controls/../GUI/gui_imagedata.h"
	.file 56 "d:\\devkitpro\\devkitppc\\bin\\../lib/gcc/powerpc-eabi/4.6.3/../../../../powerpc-eabi/include/c++/4.6.3/bits/stl_pair.h"
	.file 57 "d:/Projects/SaveGameManager/savegame-manager-gx/trunk/source/SoundOperations/MusicPlayer.h"
	.file 58 "d:\\devkitpro\\devkitppc\\bin\\../lib/gcc/powerpc-eabi/4.6.3/../../../../powerpc-eabi/include/c++/4.6.3/new"
	.file 59 "d:/Projects/SaveGameManager/savegame-manager-gx/trunk/source/SoundOperations/../Controls/../GUI/../stdafx.h"