   1              		.file	"MusicPlayer.cpp"
   2              		.section	".text"
   3              	.Ltext0:
   4              		.section	.text._ZN7sigslot15single_threadedD2Ev,"axG",@progbits,_ZN7sigslot15single_threadedD5Ev,c
   5              		.align 2
   6              		.weak	_ZN7sigslot15single_threadedD2Ev
   7              		.type	_ZN7sigslot15single_threadedD2Ev, @function
   8              	_ZN7sigslot15single_threadedD2Ev:
   9              	.LFB1148:
  10              		.file 1 "d:/Projects/SaveGameManager/savegame-manager-gx/trunk/source/SoundOperations/../Controls/
  11              		.loc 1 104 0
  12              		.cfi_startproc
  13              	.LVL0:
  14              	.LBB2503:
  15              		.loc 1 105 0
  16 0000 3D200000 		lis 9,_ZTVN7sigslot15single_threadedE+8@ha
  17              	.LBE2503:
  18              		.loc 1 107 0
  19              	.LBB2504:
  20              		.loc 1 105 0
  21 0004 38090008 		la 0,_ZTVN7sigslot15single_threadedE+8@l(9)
  22 0008 90030000 		stw 0,0(3)
  23              	.LBE2504:
  24              		.loc 1 107 0
  25 000c 4E800020 		blr
  26              		.cfi_endproc
  27              	.LFE1148:
  28              		.size	_ZN7sigslot15single_threadedD2Ev, .-_ZN7sigslot15single_threadedD2Ev
  29              		.section	.text._ZN7sigslot15single_threaded4lockEv,"axG",@progbits,_ZN7sigslot15single_threaded4lo
  30              		.align 2
  31              		.weak	_ZN7sigslot15single_threaded4lockEv
  32              		.type	_ZN7sigslot15single_threaded4lockEv, @function
  33              	_ZN7sigslot15single_threaded4lockEv:
  34              	.LFB1151:
  35              		.loc 1 109 0
  36              		.cfi_startproc
  37              	.LVL1:
  38              		.loc 1 112 0
  39 0000 4E800020 		blr
  40              		.cfi_endproc
  41              	.LFE1151:
  42              		.size	_ZN7sigslot15single_threaded4lockEv, .-_ZN7sigslot15single_threaded4lockEv
  43              		.section	.text._ZN7sigslot15single_threaded6unlockEv,"axG",@progbits,_ZN7sigslot15single_threaded6
  44              		.align 2
  45              		.weak	_ZN7sigslot15single_threaded6unlockEv
  46              		.type	_ZN7sigslot15single_threaded6unlockEv, @function
  47              	_ZN7sigslot15single_threaded6unlockEv:
  48              	.LFB1152:
  49              		.loc 1 114 0
  50              		.cfi_startproc
  51              	.LVL2:
  52              		.loc 1 117 0
  53 0000 4E800020 		blr
  54              		.cfi_endproc
  55              	.LFE1152:
  56              		.size	_ZN7sigslot15single_threaded6unlockEv, .-_ZN7sigslot15single_threaded6unlockEv
  57              		.section	.text._ZN10GuiElement9SetParentEPS_,"axG",@progbits,_ZN10GuiElement9SetParentEPS_,comdat
  58              		.align 2
  59              		.weak	_ZN10GuiElement9SetParentEPS_
  60              		.type	_ZN10GuiElement9SetParentEPS_, @function
  61              	_ZN10GuiElement9SetParentEPS_:
  62              	.LFB1384:
  63              		.file 2 "d:/Projects/SaveGameManager/savegame-manager-gx/trunk/source/SoundOperations/../Controls/
  64              		.loc 2 92 0
  65              		.cfi_startproc
  66              	.LVL3:
  67              		.loc 2 92 0
  68 0000 90830060 		stw 4,96(3)
  69 0004 4E800020 		blr
  70              		.cfi_endproc
  71              	.LFE1384:
  72              		.size	_ZN10GuiElement9SetParentEPS_, .-_ZN10GuiElement9SetParentEPS_
  73              		.section	.text._ZN10GuiElement9GetParentEv,"axG",@progbits,_ZN10GuiElement9GetParentEv,comdat
  74              		.align 2
  75              		.weak	_ZN10GuiElement9GetParentEv
  76              		.type	_ZN10GuiElement9GetParentEv, @function
  77              	_ZN10GuiElement9GetParentEv:
  78              	.LFB1385:
  79              		.loc 2 95 0
  80              		.cfi_startproc
  81              	.LVL4:
  82              		.loc 2 95 0
  83 0000 80630060 		lwz 3,96(3)
  84              	.LVL5:
  85 0004 4E800020 		blr
  86              		.cfi_endproc
  87              	.LFE1385:
  88              		.size	_ZN10GuiElement9GetParentEv, .-_ZN10GuiElement9GetParentEv
  89              		.section	.text._ZN10GuiElement12GetZPositionEv,"axG",@progbits,_ZN10GuiElement12GetZPositionEv,com
  90              		.align 2
  91              		.weak	_ZN10GuiElement12GetZPositionEv
  92              		.type	_ZN10GuiElement12GetZPositionEv, @function
  93              	_ZN10GuiElement12GetZPositionEv:
  94              	.LFB1386:
  95              		.loc 2 106 0
  96              		.cfi_startproc
  97              	.LVL6:
  98 0000 7C0802A6 		mflr 0
  99 0004 9421FFF0 		stwu 1,-16(1)
 100              	.LCFI0:
 101              		.cfi_def_cfa_offset 16
 102              		.cfi_register 65, 0
 103 0008 93E1000C 		stw 31,12(1)
 104 000c 7C7F1B78 		mr 31,3
 105              		.cfi_offset 31, -4
 106 0010 90010014 		stw 0,20(1)
 107              	.LBB2505:
 108              		.loc 2 110 0
 109 0014 81630060 		lwz 11,96(3)
 110              		.loc 2 108 0
 111 0018 38600000 		li 3,0
 112              	.LVL7:
 113              		.loc 2 110 0
 114 001c 2F8B0000 		cmpwi 7,11,0
 115 0020 419E0018 		beq- 7,.L8
 116              		.cfi_offset 65, 4
 117              		.loc 2 111 0
 118 0024 812B0000 		lwz 9,0(11)
 119 0028 7D635B78 		mr 3,11
 120 002c 80090018 		lwz 0,24(9)
 121 0030 7C0903A6 		mtctr 0
 122 0034 4E800421 		bctrl
 123              	.LVL8:
 124              	.L8:
 125              		.loc 2 113 0
 126 0038 801F0034 		lwz 0,52(31)
 127              	.LBE2505:
 128              		.loc 2 114 0
 129 003c 83E1000C 		lwz 31,12(1)
 130              	.LVL9:
 131 0040 7C630214 		add 3,3,0
 132              	.LVL10:
 133 0044 80010014 		lwz 0,20(1)
 134 0048 38210010 		addi 1,1,16
 135              	.LCFI1:
 136              		.cfi_def_cfa_offset 0
 137              		.cfi_restore 31
 138 004c 7C0803A6 		mtlr 0
 139 0050 4E800020 		blr
 140              		.cfi_endproc
 141              	.LFE1386:
 142              		.size	_ZN10GuiElement12GetZPositionEv, .-_ZN10GuiElement12GetZPositionEv
 143              		.section	.text._ZN10GuiElement10GetLeftPosEv,"axG",@progbits,_ZN10GuiElement10GetLeftPosEv,comdat
 144              		.align 2
 145              		.weak	_ZN10GuiElement10GetLeftPosEv
 146              		.type	_ZN10GuiElement10GetLeftPosEv, @function
 147              	_ZN10GuiElement10GetLeftPosEv:
 148              	.LFB1387:
 149              		.loc 2 116 0
 150              		.cfi_startproc
 151              	.LVL11:
 152              		.loc 2 116 0
 153 0000 8063002C 		lwz 3,44(3)
 154              	.LVL12:
 155 0004 4E800020 		blr
 156              		.cfi_endproc
 157              	.LFE1387:
 158              		.size	_ZN10GuiElement10GetLeftPosEv, .-_ZN10GuiElement10GetLeftPosEv
 159              		.section	.text._ZN10GuiElement9GetTopPosEv,"axG",@progbits,_ZN10GuiElement9GetTopPosEv,comdat
 160              		.align 2
 161              		.weak	_ZN10GuiElement9GetTopPosEv
 162              		.type	_ZN10GuiElement9GetTopPosEv, @function
 163              	_ZN10GuiElement9GetTopPosEv:
 164              	.LFB1388:
 165              		.loc 2 118 0
 166              		.cfi_startproc
 167              	.LVL13:
 168              		.loc 2 118 0
 169 0000 80630030 		lwz 3,48(3)
 170              	.LVL14:
 171 0004 4E800020 		blr
 172              		.cfi_endproc
 173              	.LFE1388:
 174              		.size	_ZN10GuiElement9GetTopPosEv, .-_ZN10GuiElement9GetTopPosEv
 175              		.section	.text._ZN10GuiElement8GetWidthEv,"axG",@progbits,_ZN10GuiElement8GetWidthEv,comdat
 176              		.align 2
 177              		.weak	_ZN10GuiElement8GetWidthEv
 178              		.type	_ZN10GuiElement8GetWidthEv, @function
 179              	_ZN10GuiElement8GetWidthEv:
 180              	.LFB1389:
 181              		.loc 2 121 0
 182              		.cfi_startproc
 183              	.LVL15:
 184              		.loc 2 121 0
 185 0000 80630024 		lwz 3,36(3)
 186              	.LVL16:
 187 0004 4E800020 		blr
 188              		.cfi_endproc
 189              	.LFE1389:
 190              		.size	_ZN10GuiElement8GetWidthEv, .-_ZN10GuiElement8GetWidthEv
 191              		.section	.text._ZN10GuiElement9GetHeightEv,"axG",@progbits,_ZN10GuiElement9GetHeightEv,comdat
 192              		.align 2
 193              		.weak	_ZN10GuiElement9GetHeightEv
 194              		.type	_ZN10GuiElement9GetHeightEv, @function
 195              	_ZN10GuiElement9GetHeightEv:
 196              	.LFB1390:
 197              		.loc 2 124 0
 198              		.cfi_startproc
 199              	.LVL17:
 200              		.loc 2 124 0
 201 0000 80630028 		lwz 3,40(3)
 202              	.LVL18:
 203 0004 4E800020 		blr
 204              		.cfi_endproc
 205              	.LFE1390:
 206              		.size	_ZN10GuiElement9GetHeightEv, .-_ZN10GuiElement9GetHeightEv
 207              		.section	.text._ZN10GuiElement7SetSizeEii,"axG",@progbits,_ZN10GuiElement7SetSizeEii,comdat
 208              		.align 2
 209              		.weak	_ZN10GuiElement7SetSizeEii
 210              		.type	_ZN10GuiElement7SetSizeEii, @function
 211              	_ZN10GuiElement7SetSizeEii:
 212              	.LFB1391:
 213              		.loc 2 128 0
 214              		.cfi_startproc
 215              	.LVL19:
 216              		.loc 2 130 0
 217 0000 90830024 		stw 4,36(3)
 218              		.loc 2 132 0
 219              		.loc 2 131 0
 220 0004 90A30028 		stw 5,40(3)
 221              		.loc 2 132 0
 222 0008 4E800020 		blr
 223              		.cfi_endproc
 224              	.LFE1391:
 225              		.size	_ZN10GuiElement7SetSizeEii, .-_ZN10GuiElement7SetSizeEii
 226              		.section	.text._ZN10GuiElement9IsVisibleEv,"axG",@progbits,_ZN10GuiElement9IsVisibleEv,comdat
 227              		.align 2
 228              		.weak	_ZN10GuiElement9IsVisibleEv
 229              		.type	_ZN10GuiElement9IsVisibleEv, @function
 230              	_ZN10GuiElement9IsVisibleEv:
 231              	.LFB1393:
 232              		.loc 2 142 0
 233              		.cfi_startproc
 234              	.LVL20:
 235              		.loc 2 142 0
 236 0000 8863001D 		lbz 3,29(3)
 237              	.LVL21:
 238 0004 4E800020 		blr
 239              		.cfi_endproc
 240              	.LFE1393:
 241              		.size	_ZN10GuiElement9IsVisibleEv, .-_ZN10GuiElement9IsVisibleEv
 242              		.section	.text._ZN10GuiElement12IsSelectableEv,"axG",@progbits,_ZN10GuiElement12IsSelectableEv,com
 243              		.align 2
 244              		.weak	_ZN10GuiElement12IsSelectableEv
 245              		.type	_ZN10GuiElement12IsSelectableEv, @function
 246              	_ZN10GuiElement12IsSelectableEv:
 247              	.LFB1394:
 248              		.loc 2 145 0
 249              		.cfi_startproc
 250              	.LVL22:
 251              		.loc 2 149 0
 252 0000 80030048 		lwz 0,72(3)
 253 0004 39200000 		li 9,0
 254 0008 2F800004 		cmpwi 7,0,4
 255 000c 419E0010 		beq- 7,.L18
 256              		.loc 2 149 0 is_stmt 0 discriminator 1
 257 0010 2F800002 		cmpwi 7,0,2
 258 0014 419E0008 		beq- 7,.L18
 259              		.loc 2 149 0 discriminator 3
 260 0018 8923001E 		lbz 9,30(3)
 261              	.L18:
 262              		.loc 2 150 0 is_stmt 1 discriminator 5
 263 001c 7D234B78 		mr 3,9
 264              	.LVL23:
 265 0020 4E800020 		blr
 266              		.cfi_endproc
 267              	.LFE1394:
 268              		.size	_ZN10GuiElement12IsSelectableEv, .-_ZN10GuiElement12IsSelectableEv
 269              		.section	.text._ZN10GuiElement11IsClickableEv,"axG",@progbits,_ZN10GuiElement11IsClickableEv,comda
 270              		.align 2
 271              		.weak	_ZN10GuiElement11IsClickableEv
 272              		.type	_ZN10GuiElement11IsClickableEv, @function
 273              	_ZN10GuiElement11IsClickableEv:
 274              	.LFB1395:
 275              		.loc 2 153 0
 276              		.cfi_startproc
 277              	.LVL24:
 278              		.loc 2 158 0
 279 0000 80030048 		lwz 0,72(3)
 280 0004 39200000 		li 9,0
 281 0008 2F800004 		cmpwi 7,0,4
 282 000c 419E0018 		beq- 7,.L22
 283              		.loc 2 158 0 is_stmt 0 discriminator 1
 284 0010 2F800002 		cmpwi 7,0,2
 285 0014 419E0010 		beq- 7,.L22
 286              		.loc 2 158 0 discriminator 3
 287 0018 2F800003 		cmpwi 7,0,3
 288 001c 419E0008 		beq- 7,.L22
 289              		.loc 2 158 0 discriminator 4
 290 0020 8923001F 		lbz 9,31(3)
 291              	.L22:
 292              		.loc 2 159 0 is_stmt 1 discriminator 6
 293 0024 7D234B78 		mr 3,9
 294              	.LVL25:
 295 0028 4E800020 		blr
 296              		.cfi_endproc
 297              	.LFE1395:
 298              		.size	_ZN10GuiElement11IsClickableEv, .-_ZN10GuiElement11IsClickableEv
 299              		.section	.text._ZN10GuiElement10IsHoldableEv,"axG",@progbits,_ZN10GuiElement10IsHoldableEv,comdat
 300              		.align 2
 301              		.weak	_ZN10GuiElement10IsHoldableEv
 302              		.type	_ZN10GuiElement10IsHoldableEv, @function
 303              	_ZN10GuiElement10IsHoldableEv:
 304              	.LFB1396:
 305              		.loc 2 162 0
 306              		.cfi_startproc
 307              	.LVL26:
 308              		.loc 2 162 0
 309 0000 81230048 		lwz 9,72(3)
 310 0004 38000000 		li 0,0
 311 0008 2F890004 		cmpwi 7,9,4
 312 000c 419E0008 		beq- 7,.L27
 313              		.loc 2 162 0 is_stmt 0 discriminator 1
 314 0010 88030020 		lbz 0,32(3)
 315              	.L27:
 316              		.loc 2 162 0 discriminator 4
 317 0014 7C030378 		mr 3,0
 318              	.LVL27:
 319 0018 4E800020 		blr
 320              		.cfi_endproc
 321              	.LFE1396:
 322              		.size	_ZN10GuiElement10IsHoldableEv, .-_ZN10GuiElement10IsHoldableEv
 323              		.section	.text._ZN10GuiElement13SetSelectableEb,"axG",@progbits,_ZN10GuiElement13SetSelectableEb,c
 324              		.align 2
 325              		.weak	_ZN10GuiElement13SetSelectableEb
 326              		.type	_ZN10GuiElement13SetSelectableEb, @function
 327              	_ZN10GuiElement13SetSelectableEb:
 328              	.LFB1397:
 329              		.loc 2 165 0 is_stmt 1
 330              		.cfi_startproc
 331              	.LVL28:
 332              		.loc 2 165 0
 333 0000 9883001E 		stb 4,30(3)
 334 0004 4E800020 		blr
 335              		.cfi_endproc
 336              	.LFE1397:
 337              		.size	_ZN10GuiElement13SetSelectableEb, .-_ZN10GuiElement13SetSelectableEb
 338              		.section	.text._ZN10GuiElement12SetClickableEb,"axG",@progbits,_ZN10GuiElement12SetClickableEb,com
 339              		.align 2
 340              		.weak	_ZN10GuiElement12SetClickableEb
 341              		.type	_ZN10GuiElement12SetClickableEb, @function
 342              	_ZN10GuiElement12SetClickableEb:
 343              	.LFB1398:
 344              		.loc 2 168 0
 345              		.cfi_startproc
 346              	.LVL29:
 347              		.loc 2 168 0
 348 0000 9883001F 		stb 4,31(3)
 349 0004 4E800020 		blr
 350              		.cfi_endproc
 351              	.LFE1398:
 352              		.size	_ZN10GuiElement12SetClickableEb, .-_ZN10GuiElement12SetClickableEb
 353              		.section	.text._ZN10GuiElement11SetHoldableEb,"axG",@progbits,_ZN10GuiElement11SetHoldableEb,comda
 354              		.align 2
 355              		.weak	_ZN10GuiElement11SetHoldableEb
 356              		.type	_ZN10GuiElement11SetHoldableEb, @function
 357              	_ZN10GuiElement11SetHoldableEb:
 358              	.LFB1399:
 359              		.loc 2 171 0
 360              		.cfi_startproc
 361              	.LVL30:
 362              		.loc 2 171 0
 363 0000 98830020 		stb 4,32(3)
 364 0004 4E800020 		blr
 365              		.cfi_endproc
 366              	.LFE1399:
 367              		.size	_ZN10GuiElement11SetHoldableEb, .-_ZN10GuiElement11SetHoldableEb
 368              		.section	.text._ZN10GuiElement8GetStateEv,"axG",@progbits,_ZN10GuiElement8GetStateEv,comdat
 369              		.align 2
 370              		.weak	_ZN10GuiElement8GetStateEv
 371              		.type	_ZN10GuiElement8GetStateEv, @function
 372              	_ZN10GuiElement8GetStateEv:
 373              	.LFB1400:
 374              		.loc 2 178 0
 375              		.cfi_startproc
 376              	.LVL31:
 377              		.loc 2 178 0
 378 0000 80630048 		lwz 3,72(3)
 379              	.LVL32:
 380 0004 4E800020 		blr
 381              		.cfi_endproc
 382              	.LFE1400:
 383              		.size	_ZN10GuiElement8GetStateEv, .-_ZN10GuiElement8GetStateEv
 384              		.section	.text._ZN10GuiElement12GetStateChanEv,"axG",@progbits,_ZN10GuiElement12GetStateChanEv,com
 385              		.align 2
 386              		.weak	_ZN10GuiElement12GetStateChanEv
 387              		.type	_ZN10GuiElement12GetStateChanEv, @function
 388              	_ZN10GuiElement12GetStateChanEv:
 389              	.LFB1401:
 390              		.loc 2 181 0
 391              		.cfi_startproc
 392              	.LVL33:
 393              		.loc 2 181 0
 394 0000 8063004C 		lwz 3,76(3)
 395              	.LVL34:
 396 0004 4E800020 		blr
 397              		.cfi_endproc
 398              	.LFE1401:
 399              		.size	_ZN10GuiElement12GetStateChanEv, .-_ZN10GuiElement12GetStateChanEv
 400              		.section	.text._ZN10GuiElement8SetAlphaEi,"axG",@progbits,_ZN10GuiElement8SetAlphaEi,comdat
 401              		.align 2
 402              		.weak	_ZN10GuiElement8SetAlphaEi
 403              		.type	_ZN10GuiElement8SetAlphaEi, @function
 404              	_ZN10GuiElement8SetAlphaEi:
 405              	.LFB1403:
 406              		.loc 2 190 0
 407              		.cfi_startproc
 408              	.LVL35:
 409              		.loc 2 190 0
 410 0000 90830038 		stw 4,56(3)
 411 0004 4E800020 		blr
 412              		.cfi_endproc
 413              	.LFE1403:
 414              		.size	_ZN10GuiElement8SetAlphaEi, .-_ZN10GuiElement8SetAlphaEi
 415              		.section	.text._ZN10GuiElement8GetAlphaEv,"axG",@progbits,_ZN10GuiElement8GetAlphaEv,comdat
 416              		.align 2
 417              		.weak	_ZN10GuiElement8GetAlphaEv
 418              		.type	_ZN10GuiElement8GetAlphaEv, @function
 419              	_ZN10GuiElement8GetAlphaEv:
 420              	.LFB1404:
 421              		.loc 2 194 0
 422              		.cfi_startproc
 423              	.LVL36:
 424 0000 7C0802A6 		mflr 0
 425 0004 9421FFD8 		stwu 1,-40(1)
 426              	.LCFI2:
 427              		.cfi_def_cfa_offset 40
 428              		.cfi_register 65, 0
 429 0008 93E10024 		stw 31,36(1)
 430 000c 9001002C 		stw 0,44(1)
 431              	.LBB2506:
 432              		.loc 2 198 0
 433 0010 83E3006C 		lwz 31,108(3)
 434              		.cfi_offset 65, 4
 435              		.cfi_offset 31, -4
 436 0014 2F9F0000 		cmpwi 7,31,0
 437 0018 419C0094 		blt- 7,.L38
 438              	.L36:
 439              	.LVL37:
 440              		.loc 2 203 0
 441 001c 80630060 		lwz 3,96(3)
 442              	.LVL38:
 443 0020 2F830000 		cmpwi 7,3,0
 444 0024 419E0070 		beq- 7,.L37
 445              		.loc 2 204 0
 446 0028 81230000 		lwz 9,0(3)
 447 002c 6FFF8000 		xoris 31,31,0x8000
 448              	.LVL39:
 449 0030 80090064 		lwz 0,100(9)
 450 0034 7C0903A6 		mtctr 0
 451 0038 4E800421 		bctrl
 452 003c 3C004330 		lis 0,0x4330
 453 0040 6C638000 		xoris 3,3,0x8000
 454 0044 90010010 		stw 0,16(1)
 455 0048 90610014 		stw 3,20(1)
 456 004c 3D200000 		lis 9,.LC1@ha
 457 0050 C0090000 		lfs 0,.LC1@l(9)
 458 0054 3D200000 		lis 9,.LC2@ha
 459 0058 C9A10010 		lfd 13,16(1)
 460 005c C1890004 		lfs 12,.LC2@l(9)
 461 0060 39210018 		addi 9,1,24
 462 0064 FDAD0028 		fsub 13,13,0
 463 0068 93E1000C 		stw 31,12(1)
 464 006c 90010008 		stw 0,8(1)
 465 0070 FDA06818 		frsp 13,13
 466 0074 EDAD6024 		fdivs 13,13,12
 467 0078 C9810008 		lfd 12,8(1)
 468 007c FC0C0028 		fsub 0,12,0
 469 0080 FC000018 		frsp 0,0
 470 0084 EC000372 		fmuls 0,0,13
 471 0088 FC00001E 		fctiwz 0,0
 472 008c 7C004FAE 		stfiwx 0,0,9
 473 0090 83E10018 		lwz 31,24(1)
 474              	.LVL40:
 475              	.L37:
 476              	.LBE2506:
 477              		.loc 2 207 0
 478 0094 8001002C 		lwz 0,44(1)
 479 0098 7FE3FB78 		mr 3,31
 480 009c 83E10024 		lwz 31,36(1)
 481              	.LVL41:
 482 00a0 7C0803A6 		mtlr 0
 483 00a4 38210028 		addi 1,1,40
 484              		.cfi_remember_state
 485              	.LCFI3:
 486              		.cfi_def_cfa_offset 0
 487              		.cfi_restore 31
 488 00a8 4E800020 		blr
 489              	.LVL42:
 490              	.L38:
 491              	.LCFI4:
 492              		.cfi_restore_state
 493              	.LBB2507:
 494              		.loc 2 201 0
 495 00ac 83E30038 		lwz 31,56(3)
 496              	.LVL43:
 497 00b0 4BFFFF6C 		b .L36
 498              	.LBE2507:
 499              		.cfi_endproc
 500              	.LFE1404:
 501              		.size	_ZN10GuiElement8GetAlphaEv, .-_ZN10GuiElement8GetAlphaEv
 502              		.section	.text._ZN10GuiElement8SetScaleEf,"axG",@progbits,_ZN10GuiElement8SetScaleEf,comdat
 503              		.align 2
 504              		.weak	_ZN10GuiElement8SetScaleEf
 505              		.type	_ZN10GuiElement8SetScaleEf, @function
 506              	_ZN10GuiElement8SetScaleEf:
 507              	.LFB1405:
 508              		.loc 2 210 0
 509              		.cfi_startproc
 510              	.LVL44:
 511              		.loc 2 212 0
 512 0000 D023003C 		stfs 1,60(3)
 513              		.loc 2 214 0
 514              		.loc 2 213 0
 515 0004 D0230040 		stfs 1,64(3)
 516              		.loc 2 214 0
 517 0008 4E800020 		blr
 518              		.cfi_endproc
 519              	.LFE1405:
 520              		.size	_ZN10GuiElement8SetScaleEf, .-_ZN10GuiElement8SetScaleEf
 521              		.section	.text._ZN10GuiElement9SetScaleXEf,"axG",@progbits,_ZN10GuiElement9SetScaleXEf,comdat
 522              		.align 2
 523              		.weak	_ZN10GuiElement9SetScaleXEf
 524              		.type	_ZN10GuiElement9SetScaleXEf, @function
 525              	_ZN10GuiElement9SetScaleXEf:
 526              	.LFB1406:
 527              		.loc 2 217 0
 528              		.cfi_startproc
 529              	.LVL45:
 530              		.loc 2 217 0
 531 0000 D023003C 		stfs 1,60(3)
 532 0004 4E800020 		blr
 533              		.cfi_endproc
 534              	.LFE1406:
 535              		.size	_ZN10GuiElement9SetScaleXEf, .-_ZN10GuiElement9SetScaleXEf
 536              		.section	.text._ZN10GuiElement9SetScaleYEf,"axG",@progbits,_ZN10GuiElement9SetScaleYEf,comdat
 537              		.align 2
 538              		.weak	_ZN10GuiElement9SetScaleYEf
 539              		.type	_ZN10GuiElement9SetScaleYEf, @function
 540              	_ZN10GuiElement9SetScaleYEf:
 541              	.LFB1407:
 542              		.loc 2 220 0
 543              		.cfi_startproc
 544              	.LVL46:
 545              		.loc 2 220 0
 546 0000 D0230040 		stfs 1,64(3)
 547 0004 4E800020 		blr
 548              		.cfi_endproc
 549              	.LFE1407:
 550              		.size	_ZN10GuiElement9SetScaleYEf, .-_ZN10GuiElement9SetScaleYEf
 551              		.section	.text._ZN10GuiElement8GetScaleEv,"axG",@progbits,_ZN10GuiElement8GetScaleEv,comdat
 552              		.align 2
 553              		.weak	_ZN10GuiElement8GetScaleEv
 554              		.type	_ZN10GuiElement8GetScaleEv, @function
 555              	_ZN10GuiElement8GetScaleEv:
 556              	.LFB1408:
 557              		.loc 2 223 0
 558              		.cfi_startproc
 559              	.LVL47:
 560 0000 7C0802A6 		mflr 0
 561 0004 9421FFF0 		stwu 1,-16(1)
 562              	.LCFI5:
 563              		.cfi_def_cfa_offset 16
 564              		.cfi_register 65, 0
 565              	.LBB2508:
 566              		.loc 2 225 0
 567 0008 3D200000 		lis 9,.LC3@ha
 568              	.LBE2508:
 569              		.loc 2 223 0
 570 000c DBE10008 		stfd 31,8(1)
 571 0010 90010014 		stw 0,20(1)
 572              	.LBB2509:
 573              		.loc 2 225 0
 574 0014 C0030040 		lfs 0,64(3)
 575 0018 C3E3003C 		lfs 31,60(3)
 576              		.cfi_offset 65, 4
 577              		.cfi_offset 63, -8
 578              		.loc 2 227 0
 579 001c 81630060 		lwz 11,96(3)
 580              		.loc 2 225 0
 581 0020 EFFF002A 		fadds 31,31,0
 582 0024 C0090008 		lfs 0,.LC3@l(9)
 583              		.loc 2 227 0
 584 0028 2F8B0000 		cmpwi 7,11,0
 585              		.loc 2 225 0
 586 002c EFFF0032 		fmuls 31,31,0
 587 0030 C0030070 		lfs 0,112(3)
 588 0034 EFFF0032 		fmuls 31,31,0
 589              	.LVL48:
 590              		.loc 2 227 0
 591 0038 419E001C 		beq- 7,.L43
 592              		.loc 2 228 0
 593 003c 812B0000 		lwz 9,0(11)
 594 0040 7D635B78 		mr 3,11
 595              	.LVL49:
 596 0044 80090074 		lwz 0,116(9)
 597 0048 7C0903A6 		mtctr 0
 598 004c 4E800421 		bctrl
 599 0050 EFFF0072 		fmuls 31,31,1
 600              	.LVL50:
 601              	.L43:
 602              	.LBE2509:
 603              		.loc 2 231 0
 604 0054 80010014 		lwz 0,20(1)
 605 0058 FC20F890 		fmr 1,31
 606 005c CBE10008 		lfd 31,8(1)
 607              	.LVL51:
 608 0060 7C0803A6 		mtlr 0
 609 0064 38210010 		addi 1,1,16
 610              	.LCFI6:
 611              		.cfi_def_cfa_offset 0
 612              		.cfi_restore 63
 613 0068 4E800020 		blr
 614              		.cfi_endproc
 615              	.LFE1408:
 616              		.size	_ZN10GuiElement8GetScaleEv, .-_ZN10GuiElement8GetScaleEv
 617              		.section	.text._ZN10GuiElement9GetScaleXEv,"axG",@progbits,_ZN10GuiElement9GetScaleXEv,comdat
 618              		.align 2
 619              		.weak	_ZN10GuiElement9GetScaleXEv
 620              		.type	_ZN10GuiElement9GetScaleXEv, @function
 621              	_ZN10GuiElement9GetScaleXEv:
 622              	.LFB1409:
 623              		.loc 2 234 0
 624              		.cfi_startproc
 625              	.LVL52:
 626 0000 7C0802A6 		mflr 0
 627 0004 9421FFF0 		stwu 1,-16(1)
 628              	.LCFI7:
 629              		.cfi_def_cfa_offset 16
 630              		.cfi_register 65, 0
 631 0008 DBE10008 		stfd 31,8(1)
 632 000c 90010014 		stw 0,20(1)
 633              	.LBB2510:
 634              		.loc 2 238 0
 635 0010 81630060 		lwz 11,96(3)
 636              		.loc 2 236 0
 637 0014 C3E3003C 		lfs 31,60(3)
 638              		.cfi_offset 65, 4
 639              		.cfi_offset 63, -8
 640              		.loc 2 238 0
 641 0018 2F8B0000 		cmpwi 7,11,0
 642              		.loc 2 236 0
 643 001c C0030070 		lfs 0,112(3)
 644 0020 EFFF0032 		fmuls 31,31,0
 645              	.LVL53:
 646              		.loc 2 238 0
 647 0024 419E001C 		beq- 7,.L45
 648              		.loc 2 239 0
 649 0028 812B0000 		lwz 9,0(11)
 650 002c 7D635B78 		mr 3,11
 651              	.LVL54:
 652 0030 80090078 		lwz 0,120(9)
 653 0034 7C0903A6 		mtctr 0
 654 0038 4E800421 		bctrl
 655 003c EFFF0072 		fmuls 31,31,1
 656              	.LVL55:
 657              	.L45:
 658              	.LBE2510:
 659              		.loc 2 242 0
 660 0040 80010014 		lwz 0,20(1)
 661 0044 FC20F890 		fmr 1,31
 662 0048 CBE10008 		lfd 31,8(1)
 663              	.LVL56:
 664 004c 7C0803A6 		mtlr 0
 665 0050 38210010 		addi 1,1,16
 666              	.LCFI8:
 667              		.cfi_def_cfa_offset 0
 668              		.cfi_restore 63
 669 0054 4E800020 		blr
 670              		.cfi_endproc
 671              	.LFE1409:
 672              		.size	_ZN10GuiElement9GetScaleXEv, .-_ZN10GuiElement9GetScaleXEv
 673              		.section	.text._ZN10GuiElement9GetScaleYEv,"axG",@progbits,_ZN10GuiElement9GetScaleYEv,comdat
 674              		.align 2
 675              		.weak	_ZN10GuiElement9GetScaleYEv
 676              		.type	_ZN10GuiElement9GetScaleYEv, @function
 677              	_ZN10GuiElement9GetScaleYEv:
 678              	.LFB1410:
 679              		.loc 2 245 0
 680              		.cfi_startproc
 681              	.LVL57:
 682 0000 7C0802A6 		mflr 0
 683 0004 9421FFF0 		stwu 1,-16(1)
 684              	.LCFI9:
 685              		.cfi_def_cfa_offset 16
 686              		.cfi_register 65, 0
 687 0008 DBE10008 		stfd 31,8(1)
 688 000c 90010014 		stw 0,20(1)
 689              	.LBB2511:
 690              		.loc 2 249 0
 691 0010 81630060 		lwz 11,96(3)
 692              		.loc 2 247 0
 693 0014 C3E30040 		lfs 31,64(3)
 694              		.cfi_offset 65, 4
 695              		.cfi_offset 63, -8
 696              		.loc 2 249 0
 697 0018 2F8B0000 		cmpwi 7,11,0
 698              		.loc 2 247 0
 699 001c C0030070 		lfs 0,112(3)
 700 0020 EFFF0032 		fmuls 31,31,0
 701              	.LVL58:
 702              		.loc 2 249 0
 703 0024 419E001C 		beq- 7,.L47
 704              		.loc 2 250 0
 705 0028 812B0000 		lwz 9,0(11)
 706 002c 7D635B78 		mr 3,11
 707              	.LVL59:
 708 0030 8009007C 		lwz 0,124(9)
 709 0034 7C0903A6 		mtctr 0
 710 0038 4E800421 		bctrl
 711 003c EFFF0072 		fmuls 31,31,1
 712              	.LVL60:
 713              	.L47:
 714              	.LBE2511:
 715              		.loc 2 253 0
 716 0040 80010014 		lwz 0,20(1)
 717 0044 FC20F890 		fmr 1,31
 718 0048 CBE10008 		lfd 31,8(1)
 719              	.LVL61:
 720 004c 7C0803A6 		mtlr 0
 721 0050 38210010 		addi 1,1,16
 722              	.LCFI10:
 723              		.cfi_def_cfa_offset 0
 724              		.cfi_restore 63
 725 0054 4E800020 		blr
 726              		.cfi_endproc
 727              	.LFE1410:
 728              		.size	_ZN10GuiElement9GetScaleYEv, .-_ZN10GuiElement9GetScaleYEv
 729              		.section	.text._ZN10GuiElement6RumbleEv,"axG",@progbits,_ZN10GuiElement6RumbleEv,comdat
 730              		.align 2
 731              		.weak	_ZN10GuiElement6RumbleEv
 732              		.type	_ZN10GuiElement6RumbleEv, @function
 733              	_ZN10GuiElement6RumbleEv:
 734              	.LFB1411:
 735              		.loc 2 256 0
 736              		.cfi_startproc
 737              	.LVL62:
 738              		.loc 2 256 0
 739 0000 8863001C 		lbz 3,28(3)
 740              	.LVL63:
 741 0004 4E800020 		blr
 742              		.cfi_endproc
 743              	.LFE1411:
 744              		.size	_ZN10GuiElement6RumbleEv, .-_ZN10GuiElement6RumbleEv
 745              		.section	.text._ZN10GuiElement9SetRumbleEb,"axG",@progbits,_ZN10GuiElement9SetRumbleEb,comdat
 746              		.align 2
 747              		.weak	_ZN10GuiElement9SetRumbleEb
 748              		.type	_ZN10GuiElement9SetRumbleEb, @function
 749              	_ZN10GuiElement9SetRumbleEb:
 750              	.LFB1412:
 751              		.loc 2 259 0
 752              		.cfi_startproc
 753              	.LVL64:
 754              		.loc 2 259 0
 755 0000 9883001C 		stb 4,28(3)
 756 0004 4E800020 		blr
 757              		.cfi_endproc
 758              	.LFE1412:
 759              		.size	_ZN10GuiElement9SetRumbleEb, .-_ZN10GuiElement9SetRumbleEb
 760              		.section	.text._ZN10GuiElement13SetEffectGrowEv,"axG",@progbits,_ZN10GuiElement13SetEffectGrowEv,c
 761              		.align 2
 762              		.weak	_ZN10GuiElement13SetEffectGrowEv
 763              		.type	_ZN10GuiElement13SetEffectGrowEv, @function
 764              	_ZN10GuiElement13SetEffectGrowEv:
 765              	.LFB1413:
 766              		.loc 2 271 0
 767              		.cfi_startproc
 768              	.LVL65:
 769 0000 7C0802A6 		mflr 0
 770 0004 9421FFF8 		stwu 1,-8(1)
 771              	.LCFI11:
 772              		.cfi_def_cfa_offset 8
 773              		.cfi_register 65, 0
 774 0008 81230000 		lwz 9,0(3)
 775 000c 38800100 		li 4,256
 776 0010 38A00004 		li 5,4
 777 0014 38C0006E 		li 6,110
 778 0018 9001000C 		stw 0,12(1)
 779              		.loc 2 271 0
 780 001c 8009008C 		lwz 0,140(9)
 781              		.cfi_offset 65, 4
 782 0020 7C0903A6 		mtctr 0
 783 0024 4E800421 		bctrl
 784              	.LVL66:
 785 0028 8001000C 		lwz 0,12(1)
 786 002c 38210008 		addi 1,1,8
 787              	.LCFI12:
 788              		.cfi_def_cfa_offset 0
 789 0030 7C0803A6 		mtlr 0
 790 0034 4E800020 		blr
 791              		.cfi_endproc
 792              	.LFE1413:
 793              		.size	_ZN10GuiElement13SetEffectGrowEv, .-_ZN10GuiElement13SetEffectGrowEv
 794              		.section	.text._ZNK10GuiElement9GetEffectEv,"axG",@progbits,_ZNK10GuiElement9GetEffectEv,comdat
 795              		.align 2
 796              		.weak	_ZNK10GuiElement9GetEffectEv
 797              		.type	_ZNK10GuiElement9GetEffectEv, @function
 798              	_ZNK10GuiElement9GetEffectEv:
 799              	.LFB1414:
 800              		.loc 2 276 0
 801              		.cfi_startproc
 802              	.LVL67:
 803              		.loc 2 276 0
 804 0000 80630078 		lwz 3,120(3)
 805              	.LVL68:
 806 0004 4E800020 		blr
 807              		.cfi_endproc
 808              	.LFE1414:
 809              		.size	_ZNK10GuiElement9GetEffectEv, .-_ZNK10GuiElement9GetEffectEv
 810              		.section	.text._ZNK10GuiElement10IsAnimatedEv,"axG",@progbits,_ZNK10GuiElement10IsAnimatedEv,comda
 811              		.align 2
 812              		.weak	_ZNK10GuiElement10IsAnimatedEv
 813              		.type	_ZNK10GuiElement10IsAnimatedEv, @function
 814              	_ZNK10GuiElement10IsAnimatedEv:
 815              	.LFB1415:
 816              		.loc 2 278 0
 817              		.cfi_startproc
 818              	.LVL69:
 819 0000 7C0802A6 		mflr 0
 820 0004 9421FFF8 		stwu 1,-8(1)
 821              	.LCFI13:
 822              		.cfi_def_cfa_offset 8
 823              		.cfi_register 65, 0
 824 0008 9001000C 		stw 0,12(1)
 825              		.loc 2 278 0
 826 000c 81230000 		lwz 9,0(3)
 827 0010 80090098 		lwz 0,152(9)
 828              		.cfi_offset 65, 4
 829 0014 7C0903A6 		mtctr 0
 830 0018 4E800421 		bctrl
 831              	.LVL70:
 832 001c 7C60FE70 		srawi 0,3,31
 833 0020 7C630050 		subf 3,3,0
 834 0024 8001000C 		lwz 0,12(1)
 835 0028 54630FFE 		srwi 3,3,31
 836 002c 7C0803A6 		mtlr 0
 837 0030 38210008 		addi 1,1,8
 838              	.LCFI14:
 839              		.cfi_def_cfa_offset 0
 840 0034 4E800020 		blr
 841              		.cfi_endproc
 842              	.LFE1415:
 843              		.size	_ZNK10GuiElement10IsAnimatedEv, .-_ZNK10GuiElement10IsAnimatedEv
 844              		.section	.text._ZN10GuiElement8IsInsideEii,"axG",@progbits,_ZN10GuiElement8IsInsideEii,comdat
 845              		.align 2
 846              		.weak	_ZN10GuiElement8IsInsideEii
 847              		.type	_ZN10GuiElement8IsInsideEii, @function
 848              	_ZN10GuiElement8IsInsideEii:
 849              	.LFB1417:
 850              		.loc 2 285 0
 851              		.cfi_startproc
 852              	.LVL71:
 853 0000 7C0802A6 		mflr 0
 854 0004 9421FFE8 		stwu 1,-24(1)
 855              	.LCFI15:
 856              		.cfi_def_cfa_offset 24
 857              		.cfi_register 65, 0
 858 0008 93810008 		stw 28,8(1)
 859 000c 7CBC2B78 		mr 28,5
 860              		.cfi_offset 28, -16
 861 0010 9001001C 		stw 0,28(1)
 862 0014 93A1000C 		stw 29,12(1)
 863              		.loc 2 290 0
 864 0018 3BA00000 		li 29,0
 865              		.cfi_offset 29, -12
 866              		.cfi_offset 65, 4
 867              		.loc 2 287 0
 868 001c 81230000 		lwz 9,0(3)
 869              		.loc 2 285 0
 870 0020 93C10010 		stw 30,16(1)
 871 0024 7C9E2378 		mr 30,4
 872              		.cfi_offset 30, -8
 873              		.loc 2 287 0
 874 0028 80090010 		lwz 0,16(9)
 875              		.loc 2 285 0
 876 002c 93E10014 		stw 31,20(1)
 877              		.loc 2 285 0
 878 0030 7C7F1B78 		mr 31,3
 879              		.cfi_offset 31, -4
 880              		.loc 2 287 0
 881 0034 7C0903A6 		mtctr 0
 882 0038 4E800421 		bctrl
 883              	.LVL72:
 884              		.loc 2 290 0
 885 003c 7F83F000 		cmpw 7,3,30
 886 0040 419C0028 		blt- 7,.L58
 887              	.L54:
 888              		.loc 2 291 0 discriminator 6
 889 0044 8001001C 		lwz 0,28(1)
 890 0048 7FA3EB78 		mr 3,29
 891 004c 83810008 		lwz 28,8(1)
 892              	.LVL73:
 893 0050 7C0803A6 		mtlr 0
 894 0054 83A1000C 		lwz 29,12(1)
 895 0058 83C10010 		lwz 30,16(1)
 896              	.LVL74:
 897 005c 83E10014 		lwz 31,20(1)
 898              	.LVL75:
 899 0060 38210018 		addi 1,1,24
 900              		.cfi_remember_state
 901              	.LCFI16:
 902              		.cfi_def_cfa_offset 0
 903              		.cfi_restore 31
 904              		.cfi_restore 30
 905              		.cfi_restore 29
 906              		.cfi_restore 28
 907 0064 4E800020 		blr
 908              	.LVL76:
 909              	.L58:
 910              	.LCFI17:
 911              		.cfi_restore_state
 912              		.loc 2 288 0 discriminator 1
 913 0068 813F0000 		lwz 9,0(31)
 914 006c 7FE3FB78 		mr 3,31
 915 0070 80090010 		lwz 0,16(9)
 916 0074 7C0903A6 		mtctr 0
 917 0078 4E800421 		bctrl
 918              		.loc 2 290 0 discriminator 1
 919 007c 801F0024 		lwz 0,36(31)
 920 0080 7C030214 		add 0,3,0
 921 0084 7F9E0000 		cmpw 7,30,0
 922 0088 409CFFBC 		bge+ 7,.L54
 923              		.loc 2 289 0 discriminator 3
 924 008c 813F0000 		lwz 9,0(31)
 925 0090 7FE3FB78 		mr 3,31
 926 0094 80090014 		lwz 0,20(9)
 927 0098 7C0903A6 		mtctr 0
 928 009c 4E800421 		bctrl
 929              		.loc 2 290 0 discriminator 3
 930 00a0 7F83E000 		cmpw 7,3,28
 931 00a4 409CFFA0 		bge+ 7,.L54
 932              		.loc 2 290 0 is_stmt 0 discriminator 4
 933 00a8 813F0000 		lwz 9,0(31)
 934 00ac 7FE3FB78 		mr 3,31
 935 00b0 80090014 		lwz 0,20(9)
 936 00b4 7C0903A6 		mtctr 0
 937 00b8 4E800421 		bctrl
 938 00bc 801F0028 		lwz 0,40(31)
 939 00c0 7C030214 		add 0,3,0
 940              		.loc 2 285 0 is_stmt 1 discriminator 4
 941 00c4 7F9C0000 		cmpw 7,28,0
 942 00c8 7FA00026 		mfcr 29
 943 00cc 57BDEFFE 		rlwinm 29,29,29,1
 944 00d0 4BFFFF74 		b .L54
 945              		.cfi_endproc
 946              	.LFE1417:
 947              		.size	_ZN10GuiElement8IsInsideEii, .-_ZN10GuiElement8IsInsideEii
 948              		.section	.text._ZN10GuiElement11SetPositionEii,"axG",@progbits,_ZN10GuiElement11SetPositionEii,com
 949              		.align 2
 950              		.weak	_ZN10GuiElement11SetPositionEii
 951              		.type	_ZN10GuiElement11SetPositionEii, @function
 952              	_ZN10GuiElement11SetPositionEii:
 953              	.LFB1418:
 954              		.loc 2 295 0
 955              		.cfi_startproc
 956              	.LVL77:
 957              		.loc 2 297 0
 958 0000 9083002C 		stw 4,44(3)
 959              		.loc 2 299 0
 960              		.loc 2 298 0
 961 0004 90A30030 		stw 5,48(3)
 962              		.loc 2 299 0
 963 0008 4E800020 		blr
 964              		.cfi_endproc
 965              	.LFE1418:
 966              		.size	_ZN10GuiElement11SetPositionEii, .-_ZN10GuiElement11SetPositionEii
 967              		.section	.text._ZN10GuiElement11SetPositionEiii,"axG",@progbits,_ZN10GuiElement11SetPositionEiii,c
 968              		.align 2
 969              		.weak	_ZN10GuiElement11SetPositionEiii
 970              		.type	_ZN10GuiElement11SetPositionEiii, @function
 971              	_ZN10GuiElement11SetPositionEiii:
 972              	.LFB1419:
 973              		.loc 2 304 0
 974              		.cfi_startproc
 975              	.LVL78:
 976              		.loc 2 306 0
 977 0000 9083002C 		stw 4,44(3)
 978              		.loc 2 309 0
 979              		.loc 2 307 0
 980 0004 90A30030 		stw 5,48(3)
 981              		.loc 2 308 0
 982 0008 90C30034 		stw 6,52(3)
 983              		.loc 2 309 0
 984 000c 4E800020 		blr
 985              		.cfi_endproc
 986              	.LFE1419:
 987              		.size	_ZN10GuiElement11SetPositionEiii, .-_ZN10GuiElement11SetPositionEiii
 988              		.section	.text._ZN10GuiElement12SetAlignmentEi,"axG",@progbits,_ZN10GuiElement12SetAlignmentEi,com
 989              		.align 2
 990              		.weak	_ZN10GuiElement12SetAlignmentEi
 991              		.type	_ZN10GuiElement12SetAlignmentEi, @function
 992              	_ZN10GuiElement12SetAlignmentEi:
 993              	.LFB1421:
 994              		.loc 2 316 0
 995              		.cfi_startproc
 996              	.LVL79:
 997              		.loc 2 316 0
 998 0000 90830044 		stw 4,68(3)
 999 0004 4E800020 		blr
 1000              		.cfi_endproc
 1001              	.LFE1421:
 1002              		.size	_ZN10GuiElement12SetAlignmentEi, .-_ZN10GuiElement12SetAlignmentEi
 1003              		.section	.text._ZNK10GuiElement12GetAlignmentEv,"axG",@progbits,_ZNK10GuiElement12GetAlignmentEv,c
 1004              		.align 2
 1005              		.weak	_ZNK10GuiElement12GetAlignmentEv
 1006              		.type	_ZNK10GuiElement12GetAlignmentEv, @function
 1007              	_ZNK10GuiElement12GetAlignmentEv:
 1008              	.LFB1422:
 1009              		.loc 2 318 0
 1010              		.cfi_startproc
 1011              	.LVL80:
 1012              		.loc 2 318 0
 1013 0000 80630044 		lwz 3,68(3)
 1014              	.LVL81:
 1015 0004 4E800020 		blr
 1016              		.cfi_endproc
 1017              	.LFE1422:
 1018              		.size	_ZNK10GuiElement12GetAlignmentEv, .-_ZNK10GuiElement12GetAlignmentEv
 1019              		.section	.text._ZN8GuiFrame4showEv,"axG",@progbits,_ZN8GuiFrame4showEv,comdat
 1020              		.align 2
 1021              		.weak	_ZN8GuiFrame4showEv
 1022              		.type	_ZN8GuiFrame4showEv, @function
 1023              	_ZN8GuiFrame4showEv:
 1024              	.LFB1431:
 1025              		.file 3 "d:/Projects/SaveGameManager/savegame-manager-gx/trunk/source/SoundOperations/../Controls/
 1026              		.loc 3 79 0
 1027              		.cfi_startproc
 1028              	.LVL82:
 1029              		.loc 3 79 0
 1030 0000 4E800020 		blr
 1031              		.cfi_endproc
 1032              	.LFE1431:
 1033              		.size	_ZN8GuiFrame4showEv, .-_ZN8GuiFrame4showEv
 1034              		.section	.text._ZN8GuiFrame4hideEv,"axG",@progbits,_ZN8GuiFrame4hideEv,comdat
 1035              		.align 2
 1036              		.weak	_ZN8GuiFrame4hideEv
 1037              		.type	_ZN8GuiFrame4hideEv, @function
 1038              	_ZN8GuiFrame4hideEv:
 1039              	.LFB1432:
 1040              		.loc 3 81 0
 1041              		.cfi_startproc
 1042              	.LVL83:
 1043              		.loc 3 81 0
 1044 0000 4E800020 		blr
 1045              		.cfi_endproc
 1046              	.LFE1432:
 1047              		.size	_ZN8GuiFrame4hideEv, .-_ZN8GuiFrame4hideEv
 1048              		.section	.text._ZN8GuiFrame4execEv,"axG",@progbits,_ZN8GuiFrame4execEv,comdat
 1049              		.align 2
 1050              		.weak	_ZN8GuiFrame4execEv
 1051              		.type	_ZN8GuiFrame4execEv, @function
 1052              	_ZN8GuiFrame4execEv:
 1053              	.LFB1433:
 1054              		.loc 3 83 0
 1055              		.cfi_startproc
 1056              	.LVL84:
 1057              		.loc 3 83 0
 1058 0000 4E800020 		blr
 1059              		.cfi_endproc
 1060              	.LFE1433:
 1061              		.size	_ZN8GuiFrame4execEv, .-_ZN8GuiFrame4execEv
 1062              		.section	.text._ZN8GuiFrame12updateEventsEv,"axG",@progbits,_ZN8GuiFrame12updateEventsEv,comdat
 1063              		.align 2
 1064              		.weak	_ZN8GuiFrame12updateEventsEv
 1065              		.type	_ZN8GuiFrame12updateEventsEv, @function
 1066              	_ZN8GuiFrame12updateEventsEv:
 1067              	.LFB1434:
 1068              		.loc 3 85 0
 1069              		.cfi_startproc
 1070              	.LVL85:
 1071              		.loc 3 85 0
 1072 0000 4E800020 		blr
 1073              		.cfi_endproc
 1074              	.LFE1434:
 1075              		.size	_ZN8GuiFrame12updateEventsEv, .-_ZN8GuiFrame12updateEventsEv
 1076              		.section	.text._ZN6Thread11startThreadEv,"axG",@progbits,_ZN6Thread11startThreadEv,comdat
 1077              		.align 2
 1078              		.weak	_ZN6Thread11startThreadEv
 1079              		.type	_ZN6Thread11startThreadEv, @function
 1080              	_ZN6Thread11startThreadEv:
 1081              	.LFB1581:
 1082              		.file 4 "d:/Projects/SaveGameManager/savegame-manager-gx/trunk/source/SoundOperations/../Controls/
 1083              		.loc 4 48 0
 1084              		.cfi_startproc
 1085              	.LVL86:
 1086 0000 7C0802A6 		mflr 0
 1087 0004 9421FFF8 		stwu 1,-8(1)
 1088              	.LCFI18:
 1089              		.cfi_def_cfa_offset 8
 1090              		.cfi_register 65, 0
 1091 0008 81230000 		lwz 9,0(3)
 1092 000c 9001000C 		stw 0,12(1)
 1093              		.loc 4 48 0
 1094 0010 80090018 		lwz 0,24(9)
 1095              		.cfi_offset 65, 4
 1096 0014 7C0903A6 		mtctr 0
 1097 0018 4E800421 		bctrl
 1098              	.LVL87:
 1099 001c 8001000C 		lwz 0,12(1)
 1100 0020 38210008 		addi 1,1,8
 1101              	.LCFI19:
 1102              		.cfi_def_cfa_offset 0
 1103 0024 7C0803A6 		mtlr 0
 1104 0028 4E800020 		blr
 1105              		.cfi_endproc
 1106              	.LFE1581:
 1107              		.size	_ZN6Thread11startThreadEv, .-_ZN6Thread11startThreadEv
 1108              		.section	.text._ZNK6Thread9getThreadEv,"axG",@progbits,_ZNK6Thread9getThreadEv,comdat
 1109              		.align 2
 1110              		.weak	_ZNK6Thread9getThreadEv
 1111              		.type	_ZNK6Thread9getThreadEv, @function
 1112              	_ZNK6Thread9getThreadEv:
 1113              	.LFB1582:
 1114              		.loc 4 50 0
 1115              		.cfi_startproc
 1116              	.LVL88:
 1117              		.loc 4 50 0
 1118 0000 80630004 		lwz 3,4(3)
 1119              	.LVL89:
 1120 0004 4E800020 		blr
 1121              		.cfi_endproc
 1122              	.LFE1582:
 1123              		.size	_ZNK6Thread9getThreadEv, .-_ZNK6Thread9getThreadEv
 1124              		.section	.text._ZN6Thread14threadCallbackEPv,"axG",@progbits,_ZN6Thread14threadCallbackEPv,comdat
 1125              		.align 2
 1126              		.weak	_ZN6Thread14threadCallbackEPv
 1127              		.type	_ZN6Thread14threadCallbackEPv, @function
 1128              	_ZN6Thread14threadCallbackEPv:
 1129              	.LFB1588:
 1130              		.loc 4 78 0
 1131              		.cfi_startproc
 1132              	.LVL90:
 1133 0000 7C0802A6 		mflr 0
 1134 0004 9421FFF0 		stwu 1,-16(1)
 1135              	.LCFI20:
 1136              		.cfi_def_cfa_offset 16
 1137              		.cfi_register 65, 0
 1138 0008 93E1000C 		stw 31,12(1)
 1139 000c 7C7F1B78 		mr 31,3
 1140              		.cfi_offset 31, -4
 1141 0010 90010014 		stw 0,20(1)
 1142              		.loc 4 81 0
 1143 0014 81230000 		lwz 9,0(3)
 1144 0018 80090014 		lwz 0,20(9)
 1145              		.cfi_offset 65, 4
 1146 001c 7C0903A6 		mtctr 0
 1147 0020 4E800421 		bctrl
 1148              	.LVL91:
 1149              		.loc 4 83 0
 1150 0024 813F0000 		lwz 9,0(31)
 1151 0028 7FE3FB78 		mr 3,31
 1152 002c 80090010 		lwz 0,16(9)
 1153 0030 7C0903A6 		mtctr 0
 1154 0034 4E800421 		bctrl
 1155              		.loc 4 85 0
 1156 0038 80010014 		lwz 0,20(1)
 1157 003c 83E1000C 		lwz 31,12(1)
 1158              	.LVL92:
 1159 0040 38600000 		li 3,0
 1160 0044 7C0803A6 		mtlr 0
 1161 0048 38210010 		addi 1,1,16
 1162              	.LCFI21:
 1163              		.cfi_def_cfa_offset 0
 1164              		.cfi_restore 31
 1165 004c 4E800020 		blr
 1166              		.cfi_endproc
 1167              	.LFE1588:
 1168              		.size	_ZN6Thread14threadCallbackEPv, .-_ZN6Thread14threadCallbackEPv
 1169              		.section	.text._ZN7sigslot17_connection_base2IP8PlayListiNS_15single_threadedEED2Ev,"axG",@progbit
 1170              		.align 2
 1171              		.weak	_ZN7sigslot17_connection_base2IP8PlayListiNS_15single_threadedEED2Ev
 1172              		.type	_ZN7sigslot17_connection_base2IP8PlayListiNS_15single_threadedEED2Ev, @function
 1173              	_ZN7sigslot17_connection_base2IP8PlayListiNS_15single_threadedEED2Ev:
 1174              	.LFB1841:
 1175              		.loc 1 376 0
 1176              		.cfi_startproc
 1177              	.LVL93:
 1178              	.LBB2512:
 1179              		.loc 1 376 0
 1180 0000 3D200000 		lis 9,_ZTVN7sigslot17_connection_base2IP8PlayListiNS_15single_threadedEEE+8@ha
 1181              	.LBE2512:
 1182              	.LBB2513:
 1183 0004 38090008 		la 0,_ZTVN7sigslot17_connection_base2IP8PlayListiNS_15single_threadedEEE+8@l(9)
 1184 0008 90030000 		stw 0,0(3)
 1185              	.LBE2513:
 1186 000c 4E800020 		blr
 1187              		.cfi_endproc
 1188              	.LFE1841:
 1189              		.size	_ZN7sigslot17_connection_base2IP8PlayListiNS_15single_threadedEED2Ev, .-_ZN7sigslot17_connec
 1190              		.section	.text._ZN7sigslot17_connection_base3IP9GuiButtoniRK6_POINTNS_15single_threadedEED2Ev,"axG
 1191              		.align 2
 1192              		.weak	_ZN7sigslot17_connection_base3IP9GuiButtoniRK6_POINTNS_15single_threadedEED2Ev
 1193              		.type	_ZN7sigslot17_connection_base3IP9GuiButtoniRK6_POINTNS_15single_threadedEED2Ev, @function
 1194              	_ZN7sigslot17_connection_base3IP9GuiButtoniRK6_POINTNS_15single_threadedEED2Ev:
 1195              	.LFB1848:
 1196              		.loc 1 387 0
 1197              		.cfi_startproc
 1198              	.LVL94:
 1199              	.LBB2514:
 1200              		.loc 1 387 0
 1201 0000 3D200000 		lis 9,_ZTVN7sigslot17_connection_base3IP9GuiButtoniRK6_POINTNS_15single_threadedEEE+8@ha
 1202              	.LBE2514:
 1203              	.LBB2515:
 1204 0004 38090008 		la 0,_ZTVN7sigslot17_connection_base3IP9GuiButtoniRK6_POINTNS_15single_threadedEEE+8@l(9)
 1205 0008 90030000 		stw 0,0(3)
 1206              	.LBE2515:
 1207 000c 4E800020 		blr
 1208              		.cfi_endproc
 1209              	.LFE1848:
 1210              		.size	_ZN7sigslot17_connection_base3IP9GuiButtoniRK6_POINTNS_15single_threadedEED2Ev, .-_ZN7sigslo
 1211              		.section	.text._ZN7sigslot12_connection3I11MusicPlayerP9GuiButtoniRK6_POINTNS_15single_threadedEED
 1212              		.align 2
 1213              		.weak	_ZN7sigslot12_connection3I11MusicPlayerP9GuiButtoniRK6_POINTNS_15single_threadedEED2Ev
 1214              		.type	_ZN7sigslot12_connection3I11MusicPlayerP9GuiButtoniRK6_POINTNS_15single_threadedEED2Ev, @fun
 1215              	_ZN7sigslot12_connection3I11MusicPlayerP9GuiButtoniRK6_POINTNS_15single_threadedEED2Ev:
 1216              	.LFB2128:
 1217              		.loc 1 1783 0
 1218              		.cfi_startproc
 1219              	.LVL95:
 1220              	.LBB2516:
 1221              	.LBB2517:
 1222              	.LBB2518:
 1223              	.LBB2519:
 1224              		.loc 1 387 0
 1225 0000 3D200000 		lis 9,_ZTVN7sigslot17_connection_base3IP9GuiButtoniRK6_POINTNS_15single_threadedEEE+8@ha
 1226              	.LBE2519:
 1227              	.LBE2518:
 1228              	.LBE2517:
 1229              	.LBE2516:
 1230              		.loc 1 1786 0
 1231              	.LBB2523:
 1232              	.LBB2522:
 1233              	.LBB2521:
 1234              	.LBB2520:
 1235              		.loc 1 387 0
 1236 0004 38090008 		la 0,_ZTVN7sigslot17_connection_base3IP9GuiButtoniRK6_POINTNS_15single_threadedEEE+8@l(9)
 1237 0008 90030000 		stw 0,0(3)
 1238              	.LBE2520:
 1239              	.LBE2521:
 1240              	.LBE2522:
 1241              	.LBE2523:
 1242              		.loc 1 1786 0
 1243 000c 4E800020 		blr
 1244              		.cfi_endproc
 1245              	.LFE2128:
 1246              		.size	_ZN7sigslot12_connection3I11MusicPlayerP9GuiButtoniRK6_POINTNS_15single_threadedEED2Ev, .-_Z
 1247              		.section	.text._ZNK7sigslot12_connection3I11MusicPlayerP9GuiButtoniRK6_POINTNS_15single_threadedEE
 1248              		.align 2
 1249              		.weak	_ZNK7sigslot12_connection3I11MusicPlayerP9GuiButtoniRK6_POINTNS_15single_threadedEE7getdestE
 1250              		.type	_ZNK7sigslot12_connection3I11MusicPlayerP9GuiButtoniRK6_POINTNS_15single_threadedEE7getdestE
 1251              	_ZNK7sigslot12_connection3I11MusicPlayerP9GuiButtoniRK6_POINTNS_15single_threadedEE7getdestEv:
 1252              	.LFB2131:
 1253              		.loc 1 1804 0
 1254              		.cfi_startproc
 1255              	.LVL96:
 1256              		.loc 1 1806 0
 1257 0000 81230004 		lwz 9,4(3)
 1258 0004 38600000 		li 3,0
 1259              	.LVL97:
 1260 0008 2F890000 		cmpwi 7,9,0
 1261 000c 4D9E0020 		beqlr- 7
 1262              		.loc 1 1806 0 is_stmt 0 discriminator 1
 1263 0010 386900BC 		addi 3,9,188
 1264              		.loc 1 1807 0 is_stmt 1 discriminator 1
 1265 0014 4E800020 		blr
 1266              		.cfi_endproc
 1267              	.LFE2131:
 1268              		.size	_ZNK7sigslot12_connection3I11MusicPlayerP9GuiButtoniRK6_POINTNS_15single_threadedEE7getdestE
 1269              		.section	.text._ZN7sigslot12_connection3I11MusicPlayerP9GuiButtoniRK6_POINTNS_15single_threadedEE4
 1270              		.align 2
 1271              		.weak	_ZN7sigslot12_connection3I11MusicPlayerP9GuiButtoniRK6_POINTNS_15single_threadedEE4emitES3_i
 1272              		.type	_ZN7sigslot12_connection3I11MusicPlayerP9GuiButtoniRK6_POINTNS_15single_threadedEE4emitES3_i
 1273              	_ZN7sigslot12_connection3I11MusicPlayerP9GuiButtoniRK6_POINTNS_15single_threadedEE4emitES3_iS6_:
 1274              	.LFB2132:
 1275              		.loc 1 1799 0
 1276              		.cfi_startproc
 1277              	.LVL98:
 1278 0000 7C0802A6 		mflr 0
 1279 0004 9421FFF8 		stwu 1,-8(1)
 1280              	.LCFI22:
 1281              		.cfi_def_cfa_offset 8
 1282              		.cfi_register 65, 0
 1283 0008 9001000C 		stw 0,12(1)
 1284              		.loc 1 1801 0
 1285 000c 80030008 		lwz 0,8(3)
 1286              		.cfi_offset 65, 4
 1287 0010 81630004 		lwz 11,4(3)
 1288 0014 70090001 		andi. 9,0,1
 1289 0018 8123000C 		lwz 9,12(3)
 1290 001c 40820020 		bne- 0,.L81
 1291 0020 7C0903A6 		mtctr 0
 1292 0024 7C6B4A14 		add 3,11,9
 1293              	.LVL99:
 1294 0028 4E800421 		bctrl
 1295              	.LVL100:
 1296              		.loc 1 1802 0
 1297 002c 8001000C 		lwz 0,12(1)
 1298 0030 38210008 		addi 1,1,8
 1299              		.cfi_remember_state
 1300              	.LCFI23:
 1301              		.cfi_def_cfa_offset 0
 1302 0034 7C0803A6 		mtlr 0
 1303 0038 4E800020 		blr
 1304              	.LVL101:
 1305              	.L81:
 1306              	.LCFI24:
 1307              		.cfi_restore_state
 1308              		.loc 1 1801 0 discriminator 1
 1309 003c 7D4B482E 		lwzx 10,11,9
 1310 0040 7C6B4A14 		add 3,11,9
 1311              	.LVL102:
 1312 0044 7D2A0214 		add 9,10,0
 1313 0048 8009FFFF 		lwz 0,-1(9)
 1314 004c 7C0903A6 		mtctr 0
 1315 0050 4E800421 		bctrl
 1316              	.LVL103:
 1317              		.loc 1 1802 0 discriminator 1
 1318 0054 8001000C 		lwz 0,12(1)
 1319 0058 38210008 		addi 1,1,8
 1320              	.LCFI25:
 1321              		.cfi_def_cfa_offset 0
 1322 005c 7C0803A6 		mtlr 0
 1323 0060 4E800020 		blr
 1324              		.cfi_endproc
 1325              	.LFE2132:
 1326              		.size	_ZN7sigslot12_connection3I11MusicPlayerP9GuiButtoniRK6_POINTNS_15single_threadedEE4emitES3_i
 1327              		.section	.text._ZN7sigslot12_connection2I11MusicPlayerP8PlayListiNS_15single_threadedEED2Ev,"axG",
 1328              		.align 2
 1329              		.weak	_ZN7sigslot12_connection2I11MusicPlayerP8PlayListiNS_15single_threadedEED2Ev
 1330              		.type	_ZN7sigslot12_connection2I11MusicPlayerP8PlayListiNS_15single_threadedEED2Ev, @function
 1331              	_ZN7sigslot12_connection2I11MusicPlayerP8PlayListiNS_15single_threadedEED2Ev:
 1332              	.LFB2142:
 1333              		.loc 1 1735 0
 1334              		.cfi_startproc
 1335              	.LVL104:
 1336              	.LBB2524:
 1337              	.LBB2525:
 1338              	.LBB2526:
 1339              	.LBB2527:
 1340              		.loc 1 376 0
 1341 0000 3D200000 		lis 9,_ZTVN7sigslot17_connection_base2IP8PlayListiNS_15single_threadedEEE+8@ha
 1342              	.LBE2527:
 1343              	.LBE2526:
 1344              	.LBE2525:
 1345              	.LBE2524:
 1346              		.loc 1 1738 0
 1347              	.LBB2531:
 1348              	.LBB2530:
 1349              	.LBB2529:
 1350              	.LBB2528:
 1351              		.loc 1 376 0
 1352 0004 38090008 		la 0,_ZTVN7sigslot17_connection_base2IP8PlayListiNS_15single_threadedEEE+8@l(9)
 1353 0008 90030000 		stw 0,0(3)
 1354              	.LBE2528:
 1355              	.LBE2529:
 1356              	.LBE2530:
 1357              	.LBE2531:
 1358              		.loc 1 1738 0
 1359 000c 4E800020 		blr
 1360              		.cfi_endproc
 1361              	.LFE2142:
 1362              		.size	_ZN7sigslot12_connection2I11MusicPlayerP8PlayListiNS_15single_threadedEED2Ev, .-_ZN7sigslot1
 1363              		.section	.text._ZNK7sigslot12_connection2I11MusicPlayerP8PlayListiNS_15single_threadedEE7getdestEv
 1364              		.align 2
 1365              		.weak	_ZNK7sigslot12_connection2I11MusicPlayerP8PlayListiNS_15single_threadedEE7getdestEv
 1366              		.type	_ZNK7sigslot12_connection2I11MusicPlayerP8PlayListiNS_15single_threadedEE7getdestEv, @functi
 1367              	_ZNK7sigslot12_connection2I11MusicPlayerP8PlayListiNS_15single_threadedEE7getdestEv:
 1368              	.LFB2145:
 1369              		.loc 1 1756 0
 1370              		.cfi_startproc
 1371              	.LVL105:
 1372              		.loc 1 1758 0
 1373 0000 81230004 		lwz 9,4(3)
 1374 0004 38600000 		li 3,0
 1375              	.LVL106:
 1376 0008 2F890000 		cmpwi 7,9,0
 1377 000c 4D9E0020 		beqlr- 7
 1378              		.loc 1 1758 0 is_stmt 0 discriminator 1
 1379 0010 386900BC 		addi 3,9,188
 1380              		.loc 1 1759 0 is_stmt 1 discriminator 1
 1381 0014 4E800020 		blr
 1382              		.cfi_endproc
 1383              	.LFE2145:
 1384              		.size	_ZNK7sigslot12_connection2I11MusicPlayerP8PlayListiNS_15single_threadedEE7getdestEv, .-_ZNK7
 1385              		.section	.text._ZN7sigslot12_connection2I11MusicPlayerP8PlayListiNS_15single_threadedEE4emitES3_i,
 1386              		.align 2
 1387              		.weak	_ZN7sigslot12_connection2I11MusicPlayerP8PlayListiNS_15single_threadedEE4emitES3_i
 1388              		.type	_ZN7sigslot12_connection2I11MusicPlayerP8PlayListiNS_15single_threadedEE4emitES3_i, @functio
 1389              	_ZN7sigslot12_connection2I11MusicPlayerP8PlayListiNS_15single_threadedEE4emitES3_i:
 1390              	.LFB2146:
 1391              		.loc 1 1751 0
 1392              		.cfi_startproc
 1393              	.LVL107:
 1394 0000 7C0802A6 		mflr 0
 1395 0004 9421FFF8 		stwu 1,-8(1)
 1396              	.LCFI26:
 1397              		.cfi_def_cfa_offset 8
 1398              		.cfi_register 65, 0
 1399 0008 9001000C 		stw 0,12(1)
 1400              		.loc 1 1753 0
 1401 000c 80030008 		lwz 0,8(3)
 1402              		.cfi_offset 65, 4
 1403 0010 81630004 		lwz 11,4(3)
 1404 0014 70090001 		andi. 9,0,1
 1405 0018 8123000C 		lwz 9,12(3)
 1406 001c 40820020 		bne- 0,.L90
 1407 0020 7C0903A6 		mtctr 0
 1408 0024 7C6B4A14 		add 3,11,9
 1409              	.LVL108:
 1410 0028 4E800421 		bctrl
 1411              	.LVL109:
 1412              		.loc 1 1754 0
 1413 002c 8001000C 		lwz 0,12(1)
 1414 0030 38210008 		addi 1,1,8
 1415              		.cfi_remember_state
 1416              	.LCFI27:
 1417              		.cfi_def_cfa_offset 0
 1418 0034 7C0803A6 		mtlr 0
 1419 0038 4E800020 		blr
 1420              	.LVL110:
 1421              	.L90:
 1422              	.LCFI28:
 1423              		.cfi_restore_state
 1424              		.loc 1 1753 0 discriminator 1
 1425 003c 7D4B482E 		lwzx 10,11,9
 1426 0040 7C6B4A14 		add 3,11,9
 1427              	.LVL111:
 1428 0044 7D2A0214 		add 9,10,0
 1429 0048 8009FFFF 		lwz 0,-1(9)
 1430 004c 7C0903A6 		mtctr 0
 1431 0050 4E800421 		bctrl
 1432              	.LVL112:
 1433              		.loc 1 1754 0 discriminator 1
 1434 0054 8001000C 		lwz 0,12(1)
 1435 0058 38210008 		addi 1,1,8
 1436              	.LCFI29:
 1437              		.cfi_def_cfa_offset 0
 1438 005c 7C0803A6 		mtlr 0
 1439 0060 4E800020 		blr
 1440              		.cfi_endproc
 1441              	.LFE2146:
 1442              		.size	_ZN7sigslot12_connection2I11MusicPlayerP8PlayListiNS_15single_threadedEE4emitES3_i, .-_ZN7si
 1443              		.section	.text._ZN7sigslot12_connection2I11MusicPlayerP8PlayListiNS_15single_threadedEE9duplicateE
 1444              		.align 2
 1445              		.weak	_ZN7sigslot12_connection2I11MusicPlayerP8PlayListiNS_15single_threadedEE9duplicateEPNS_9has_
 1446              		.type	_ZN7sigslot12_connection2I11MusicPlayerP8PlayListiNS_15single_threadedEE9duplicateEPNS_9has_
 1447              	_ZN7sigslot12_connection2I11MusicPlayerP8PlayListiNS_15single_threadedEE9duplicateEPNS_9has_slotsIS
 1448              	.LFB2154:
 1449              		.loc 1 1746 0
 1450              		.cfi_startproc
 1451              	.LVL113:
 1452 0000 9421FFF0 		stwu 1,-16(1)
 1453              	.LCFI30:
 1454              		.cfi_def_cfa_offset 16
 1455 0004 7C0802A6 		mflr 0
 1456 0008 93C10008 		stw 30,8(1)
 1457 000c 7C9E2378 		mr 30,4
 1458              		.cfi_offset 30, -8
 1459              		.cfi_register 65, 0
 1460 0010 93E1000C 		stw 31,12(1)
 1461 0014 7C7F1B78 		mr 31,3
 1462              		.cfi_offset 31, -4
 1463              		.loc 1 1748 0
 1464 0018 38600010 		li 3,16
 1465              	.LVL114:
 1466              		.loc 1 1746 0
 1467 001c 90010014 		stw 0,20(1)
 1468              		.loc 1 1748 0
 1469              		.cfi_offset 65, 4
 1470 0020 48000001 		bl _Znwj
 1471              	.LVL115:
 1472 0024 2F9E0000 		cmpwi 7,30,0
 1473 0028 38000000 		li 0,0
 1474 002c 419E0008 		beq- 7,.L93
 1475              		.loc 1 1748 0 is_stmt 0 discriminator 1
 1476 0030 381EFF44 		addi 0,30,-188
 1477              	.L93:
 1478              	.LVL116:
 1479              		.loc 1 1748 0 discriminator 3
 1480 0034 817F0008 		lwz 11,8(31)
 1481              	.LVL117:
 1482              	.LBB2532:
 1483              	.LBB2533:
 1484              		.loc 1 1730 0 is_stmt 1 discriminator 3
 1485 0038 3D400000 		lis 10,_ZTVN7sigslot12_connection2I11MusicPlayerP8PlayListiNS_15single_threadedEEE+8@ha
 1486              	.LBE2533:
 1487              	.LBE2532:
 1488              		.loc 1 1748 0 discriminator 3
 1489 003c 813F000C 		lwz 9,12(31)
 1490              	.LVL118:
 1491              	.LBB2536:
 1492              	.LBB2534:
 1493              		.loc 1 1730 0 discriminator 3
 1494 0040 394A0008 		la 10,_ZTVN7sigslot12_connection2I11MusicPlayerP8PlayListiNS_15single_threadedEEE+8@l(10)
 1495              		.loc 1 1732 0 discriminator 3
 1496 0044 91630008 		stw 11,8(3)
 1497 0048 9123000C 		stw 9,12(3)
 1498              		.loc 1 1731 0 discriminator 3
 1499 004c 90030004 		stw 0,4(3)
 1500              	.LBE2534:
 1501              	.LBE2536:
 1502              		.loc 1 1749 0 discriminator 3
 1503 0050 80010014 		lwz 0,20(1)
 1504              	.LVL119:
 1505 0054 83C10008 		lwz 30,8(1)
 1506              	.LVL120:
 1507 0058 7C0803A6 		mtlr 0
 1508 005c 83E1000C 		lwz 31,12(1)
 1509              	.LVL121:
 1510              	.LBB2537:
 1511              	.LBB2535:
 1512              		.loc 1 1730 0 discriminator 3
 1513 0060 91430000 		stw 10,0(3)
 1514              	.LBE2535:
 1515              	.LBE2537:
 1516              		.loc 1 1749 0 discriminator 3
 1517 0064 38210010 		addi 1,1,16
 1518              	.LCFI31:
 1519              		.cfi_def_cfa_offset 0
 1520              		.cfi_restore 31
 1521              		.cfi_restore 30
 1522 0068 4E800020 		blr
 1523              		.cfi_endproc
 1524              	.LFE2154:
 1525              		.size	_ZN7sigslot12_connection2I11MusicPlayerP8PlayListiNS_15single_threadedEE9duplicateEPNS_9has_
 1526              		.section	.text._ZN7sigslot12_connection3I11MusicPlayerP9GuiButtoniRK6_POINTNS_15single_threadedEE9
 1527              		.align 2
 1528              		.weak	_ZN7sigslot12_connection3I11MusicPlayerP9GuiButtoniRK6_POINTNS_15single_threadedEE9duplicate
 1529              		.type	_ZN7sigslot12_connection3I11MusicPlayerP9GuiButtoniRK6_POINTNS_15single_threadedEE9duplicate
 1530              	_ZN7sigslot12_connection3I11MusicPlayerP9GuiButtoniRK6_POINTNS_15single_threadedEE9duplicateEPNS_9h
 1531              	.LFB2140:
 1532              		.loc 1 1794 0
 1533              		.cfi_startproc
 1534              	.LVL122:
 1535 0000 9421FFF0 		stwu 1,-16(1)
 1536              	.LCFI32:
 1537              		.cfi_def_cfa_offset 16
 1538 0004 7C0802A6 		mflr 0
 1539 0008 93C10008 		stw 30,8(1)
 1540 000c 7C9E2378 		mr 30,4
 1541              		.cfi_offset 30, -8
 1542              		.cfi_register 65, 0
 1543 0010 93E1000C 		stw 31,12(1)
 1544 0014 7C7F1B78 		mr 31,3
 1545              		.cfi_offset 31, -4
 1546              		.loc 1 1796 0
 1547 0018 38600010 		li 3,16
 1548              	.LVL123:
 1549              		.loc 1 1794 0
 1550 001c 90010014 		stw 0,20(1)
 1551              		.loc 1 1796 0
 1552              		.cfi_offset 65, 4
 1553 0020 48000001 		bl _Znwj
 1554              	.LVL124:
 1555 0024 2F9E0000 		cmpwi 7,30,0
 1556 0028 38000000 		li 0,0
 1557 002c 419E0008 		beq- 7,.L96
 1558              		.loc 1 1796 0 is_stmt 0 discriminator 1
 1559 0030 381EFF44 		addi 0,30,-188
 1560              	.L96:
 1561              	.LVL125:
 1562              		.loc 1 1796 0 discriminator 3
 1563 0034 817F0008 		lwz 11,8(31)
 1564              	.LVL126:
 1565              	.LBB2538:
 1566              	.LBB2539:
 1567              		.loc 1 1778 0 is_stmt 1 discriminator 3
 1568 0038 3D400000 		lis 10,_ZTVN7sigslot12_connection3I11MusicPlayerP9GuiButtoniRK6_POINTNS_15single_threadedEEE+8@ha
 1569              	.LBE2539:
 1570              	.LBE2538:
 1571              		.loc 1 1796 0 discriminator 3
 1572 003c 813F000C 		lwz 9,12(31)
 1573              	.LVL127:
 1574              	.LBB2542:
 1575              	.LBB2540:
 1576              		.loc 1 1778 0 discriminator 3
 1577 0040 394A0008 		la 10,_ZTVN7sigslot12_connection3I11MusicPlayerP9GuiButtoniRK6_POINTNS_15single_threadedEEE+8@l(10
 1578              		.loc 1 1780 0 discriminator 3
 1579 0044 91630008 		stw 11,8(3)
 1580 0048 9123000C 		stw 9,12(3)
 1581              		.loc 1 1779 0 discriminator 3
 1582 004c 90030004 		stw 0,4(3)
 1583              	.LBE2540:
 1584              	.LBE2542:
 1585              		.loc 1 1797 0 discriminator 3
 1586 0050 80010014 		lwz 0,20(1)
 1587              	.LVL128:
 1588 0054 83C10008 		lwz 30,8(1)
 1589              	.LVL129:
 1590 0058 7C0803A6 		mtlr 0
 1591 005c 83E1000C 		lwz 31,12(1)
 1592              	.LVL130:
 1593              	.LBB2543:
 1594              	.LBB2541:
 1595              		.loc 1 1778 0 discriminator 3
 1596 0060 91430000 		stw 10,0(3)
 1597              	.LBE2541:
 1598              	.LBE2543:
 1599              		.loc 1 1797 0 discriminator 3
 1600 0064 38210010 		addi 1,1,16
 1601              	.LCFI33:
 1602              		.cfi_def_cfa_offset 0
 1603              		.cfi_restore 31
 1604              		.cfi_restore 30
 1605 0068 4E800020 		blr
 1606              		.cfi_endproc
 1607              	.LFE2140:
 1608              		.size	_ZN7sigslot12_connection3I11MusicPlayerP9GuiButtoniRK6_POINTNS_15single_threadedEE9duplicate
 1609              		.section	.text._ZN7sigslot12_connection3I11MusicPlayerP9GuiButtoniRK6_POINTNS_15single_threadedEE5
 1610              		.align 2
 1611              		.weak	_ZN7sigslot12_connection3I11MusicPlayerP9GuiButtoniRK6_POINTNS_15single_threadedEE5cloneEv
 1612              		.type	_ZN7sigslot12_connection3I11MusicPlayerP9GuiButtoniRK6_POINTNS_15single_threadedEE5cloneEv, 
 1613              	_ZN7sigslot12_connection3I11MusicPlayerP9GuiButtoniRK6_POINTNS_15single_threadedEE5cloneEv:
 1614              	.LFB2133:
 1615              		.loc 1 1789 0
 1616              		.cfi_startproc
 1617              	.LVL131:
 1618 0000 9421FFF0 		stwu 1,-16(1)
 1619              	.LCFI34:
 1620              		.cfi_def_cfa_offset 16
 1621 0004 7C0802A6 		mflr 0
 1622 0008 93E1000C 		stw 31,12(1)
 1623 000c 7C7F1B78 		mr 31,3
 1624              		.cfi_offset 31, -4
 1625              		.cfi_register 65, 0
 1626              		.loc 1 1791 0
 1627 0010 38600010 		li 3,16
 1628              	.LVL132:
 1629              		.loc 1 1789 0
 1630 0014 90010014 		stw 0,20(1)
 1631              		.loc 1 1791 0
 1632              		.cfi_offset 65, 4
 1633 0018 48000001 		bl _Znwj
 1634              		.file 5 "d:/Projects/SaveGameManager/savegame-manager-gx/trunk/source/SoundOperations/MusicPlayer.
 1635              		.loc 5 502 0
 1636 001c 801F0004 		lwz 0,4(31)
 1637              	.LVL133:
 1638              	.LBB2544:
 1639              	.LBB2545:
 1640              		.loc 1 1767 0
 1641 0020 3D600000 		lis 11,_ZTVN7sigslot12_connection3I11MusicPlayerP9GuiButtoniRK6_POINTNS_15single_threadedEEE+8@ha
 1642 0024 396B0008 		la 11,_ZTVN7sigslot12_connection3I11MusicPlayerP9GuiButtoniRK6_POINTNS_15single_threadedEEE+8@l(11
 1643 0028 90030004 		stw 0,4(3)
 1644 002c 91630000 		stw 11,0(3)
 1645 0030 815F0008 		lwz 10,8(31)
 1646 0034 817F000C 		lwz 11,12(31)
 1647 0038 91430008 		stw 10,8(3)
 1648 003c 9163000C 		stw 11,12(3)
 1649              	.LBE2545:
 1650              	.LBE2544:
 1651              		.loc 1 1792 0
 1652 0040 80010014 		lwz 0,20(1)
 1653 0044 83E1000C 		lwz 31,12(1)
 1654              	.LVL134:
 1655 0048 7C0803A6 		mtlr 0
 1656 004c 38210010 		addi 1,1,16
 1657              	.LCFI35:
 1658              		.cfi_def_cfa_offset 0
 1659              		.cfi_restore 31
 1660 0050 4E800020 		blr
 1661              		.cfi_endproc
 1662              	.LFE2133:
 1663              		.size	_ZN7sigslot12_connection3I11MusicPlayerP9GuiButtoniRK6_POINTNS_15single_threadedEE5cloneEv, 
 1664              		.section	.text._ZN7sigslot12_connection2I11MusicPlayerP8PlayListiNS_15single_threadedEE5cloneEv,"a
 1665              		.align 2
 1666              		.weak	_ZN7sigslot12_connection2I11MusicPlayerP8PlayListiNS_15single_threadedEE5cloneEv
 1667              		.type	_ZN7sigslot12_connection2I11MusicPlayerP8PlayListiNS_15single_threadedEE5cloneEv, @function
 1668              	_ZN7sigslot12_connection2I11MusicPlayerP8PlayListiNS_15single_threadedEE5cloneEv:
 1669              	.LFB2147:
 1670              		.loc 1 1741 0
 1671              		.cfi_startproc
 1672              	.LVL135:
 1673 0000 9421FFF0 		stwu 1,-16(1)
 1674              	.LCFI36:
 1675              		.cfi_def_cfa_offset 16
 1676 0004 7C0802A6 		mflr 0
 1677 0008 93E1000C 		stw 31,12(1)
 1678 000c 7C7F1B78 		mr 31,3
 1679              		.cfi_offset 31, -4
 1680              		.cfi_register 65, 0
 1681              		.loc 1 1743 0
 1682 0010 38600010 		li 3,16
 1683              	.LVL136:
 1684              		.loc 1 1741 0
 1685 0014 90010014 		stw 0,20(1)
 1686              		.loc 1 1743 0
 1687              		.cfi_offset 65, 4
 1688 0018 48000001 		bl _Znwj
 1689              		.loc 5 502 0
 1690 001c 801F0004 		lwz 0,4(31)
 1691              	.LVL137:
 1692              	.LBB2546:
 1693              	.LBB2547:
 1694              		.loc 1 1719 0
 1695 0020 3D600000 		lis 11,_ZTVN7sigslot12_connection2I11MusicPlayerP8PlayListiNS_15single_threadedEEE+8@ha
 1696 0024 396B0008 		la 11,_ZTVN7sigslot12_connection2I11MusicPlayerP8PlayListiNS_15single_threadedEEE+8@l(11)
 1697 0028 90030004 		stw 0,4(3)
 1698 002c 91630000 		stw 11,0(3)
 1699 0030 815F0008 		lwz 10,8(31)
 1700 0034 817F000C 		lwz 11,12(31)
 1701 0038 91430008 		stw 10,8(3)
 1702 003c 9163000C 		stw 11,12(3)
 1703              	.LBE2547:
 1704              	.LBE2546:
 1705              		.loc 1 1744 0
 1706 0040 80010014 		lwz 0,20(1)
 1707 0044 83E1000C 		lwz 31,12(1)
 1708              	.LVL138:
 1709 0048 7C0803A6 		mtlr 0
 1710 004c 38210010 		addi 1,1,16
 1711              	.LCFI37:
 1712              		.cfi_def_cfa_offset 0
 1713              		.cfi_restore 31
 1714 0050 4E800020 		blr
 1715              		.cfi_endproc
 1716              	.LFE2147:
 1717              		.size	_ZN7sigslot12_connection2I11MusicPlayerP8PlayListiNS_15single_threadedEE5cloneEv, .-_ZN7sigs
 1718              		.section	.text._ZN7sigslot12_connection2I11MusicPlayerP8PlayListiNS_15single_threadedEED0Ev,"axG",
 1719              		.align 2
 1720              		.weak	_ZN7sigslot12_connection2I11MusicPlayerP8PlayListiNS_15single_threadedEED0Ev
 1721              		.type	_ZN7sigslot12_connection2I11MusicPlayerP8PlayListiNS_15single_threadedEED0Ev, @function
 1722              	_ZN7sigslot12_connection2I11MusicPlayerP8PlayListiNS_15single_threadedEED0Ev:
 1723              	.LFB2144:
 1724              		.loc 1 1735 0
 1725              		.cfi_startproc
 1726              	.LVL139:
 1727 0000 7C0802A6 		mflr 0
 1728 0004 9421FFF8 		stwu 1,-8(1)
 1729              	.LCFI38:
 1730              		.cfi_def_cfa_offset 8
 1731              		.cfi_register 65, 0
 1732              	.LBB2548:
 1733              	.LBB2549:
 1734              	.LBB2550:
 1735              	.LBB2551:
 1736              	.LBB2552:
 1737              	.LBB2553:
 1738              		.loc 1 376 0
 1739 0008 3D200000 		lis 9,_ZTVN7sigslot17_connection_base2IP8PlayListiNS_15single_threadedEEE+8@ha
 1740              	.LBE2553:
 1741              	.LBE2552:
 1742              	.LBE2551:
 1743              	.LBE2550:
 1744              	.LBE2549:
 1745              	.LBE2548:
 1746              		.loc 1 1735 0
 1747 000c 9001000C 		stw 0,12(1)
 1748              	.LBB2559:
 1749              	.LBB2558:
 1750              	.LBB2557:
 1751              	.LBB2556:
 1752              	.LBB2555:
 1753              	.LBB2554:
 1754              		.loc 1 376 0
 1755 0010 38090008 		la 0,_ZTVN7sigslot17_connection_base2IP8PlayListiNS_15single_threadedEEE+8@l(9)
 1756              		.cfi_offset 65, 4
 1757 0014 90030000 		stw 0,0(3)
 1758              	.LBE2554:
 1759              	.LBE2555:
 1760              	.LBE2556:
 1761              	.LBE2557:
 1762              	.LBE2558:
 1763              	.LBE2559:
 1764              		.loc 1 1738 0
 1765 0018 48000001 		bl _ZdlPv
 1766              	.LVL140:
 1767 001c 8001000C 		lwz 0,12(1)
 1768 0020 38210008 		addi 1,1,8
 1769              	.LCFI39:
 1770              		.cfi_def_cfa_offset 0
 1771 0024 7C0803A6 		mtlr 0
 1772 0028 4E800020 		blr
 1773              		.cfi_endproc
 1774              	.LFE2144:
 1775              		.size	_ZN7sigslot12_connection2I11MusicPlayerP8PlayListiNS_15single_threadedEED0Ev, .-_ZN7sigslot1
 1776              		.section	.text._ZN7sigslot12_connection3I11MusicPlayerP9GuiButtoniRK6_POINTNS_15single_threadedEED
 1777              		.align 2
 1778              		.weak	_ZN7sigslot12_connection3I11MusicPlayerP9GuiButtoniRK6_POINTNS_15single_threadedEED0Ev
 1779              		.type	_ZN7sigslot12_connection3I11MusicPlayerP9GuiButtoniRK6_POINTNS_15single_threadedEED0Ev, @fun
 1780              	_ZN7sigslot12_connection3I11MusicPlayerP9GuiButtoniRK6_POINTNS_15single_threadedEED0Ev:
 1781              	.LFB2130:
 1782              		.loc 1 1783 0
 1783              		.cfi_startproc
 1784              	.LVL141:
 1785 0000 7C0802A6 		mflr 0
 1786 0004 9421FFF8 		stwu 1,-8(1)
 1787              	.LCFI40:
 1788              		.cfi_def_cfa_offset 8
 1789              		.cfi_register 65, 0
 1790              	.LBB2560:
 1791              	.LBB2561:
 1792              	.LBB2562:
 1793              	.LBB2563:
 1794              	.LBB2564:
 1795              	.LBB2565:
 1796              		.loc 1 387 0
 1797 0008 3D200000 		lis 9,_ZTVN7sigslot17_connection_base3IP9GuiButtoniRK6_POINTNS_15single_threadedEEE+8@ha
 1798              	.LBE2565:
 1799              	.LBE2564:
 1800              	.LBE2563:
 1801              	.LBE2562:
 1802              	.LBE2561:
 1803              	.LBE2560:
 1804              		.loc 1 1783 0
 1805 000c 9001000C 		stw 0,12(1)
 1806              	.LBB2571:
 1807              	.LBB2570:
 1808              	.LBB2569:
 1809              	.LBB2568:
 1810              	.LBB2567:
 1811              	.LBB2566:
 1812              		.loc 1 387 0
 1813 0010 38090008 		la 0,_ZTVN7sigslot17_connection_base3IP9GuiButtoniRK6_POINTNS_15single_threadedEEE+8@l(9)
 1814              		.cfi_offset 65, 4
 1815 0014 90030000 		stw 0,0(3)
 1816              	.LBE2566:
 1817              	.LBE2567:
 1818              	.LBE2568:
 1819              	.LBE2569:
 1820              	.LBE2570:
 1821              	.LBE2571:
 1822              		.loc 1 1786 0
 1823 0018 48000001 		bl _ZdlPv
 1824              	.LVL142:
 1825 001c 8001000C 		lwz 0,12(1)
 1826 0020 38210008 		addi 1,1,8
 1827              	.LCFI41:
 1828              		.cfi_def_cfa_offset 0
 1829 0024 7C0803A6 		mtlr 0
 1830 0028 4E800020 		blr
 1831              		.cfi_endproc
 1832              	.LFE2130:
 1833              		.size	_ZN7sigslot12_connection3I11MusicPlayerP9GuiButtoniRK6_POINTNS_15single_threadedEED0Ev, .-_Z
 1834              		.section	.text._ZN7sigslot17_connection_base3IP9GuiButtoniRK6_POINTNS_15single_threadedEED0Ev,"axG
 1835              		.align 2
 1836              		.weak	_ZN7sigslot17_connection_base3IP9GuiButtoniRK6_POINTNS_15single_threadedEED0Ev
 1837              		.type	_ZN7sigslot17_connection_base3IP9GuiButtoniRK6_POINTNS_15single_threadedEED0Ev, @function
 1838              	_ZN7sigslot17_connection_base3IP9GuiButtoniRK6_POINTNS_15single_threadedEED0Ev:
 1839              	.LFB1850:
 1840              		.loc 1 387 0
 1841              		.cfi_startproc
 1842              	.LVL143:
 1843 0000 7C0802A6 		mflr 0
 1844 0004 9421FFF8 		stwu 1,-8(1)
 1845              	.LCFI42:
 1846              		.cfi_def_cfa_offset 8
 1847              		.cfi_register 65, 0
 1848              	.LBB2572:
 1849              	.LBB2573:
 1850              	.LBB2574:
 1851 0008 3D200000 		lis 9,_ZTVN7sigslot17_connection_base3IP9GuiButtoniRK6_POINTNS_15single_threadedEEE+8@ha
 1852              	.LBE2574:
 1853              	.LBE2573:
 1854              	.LBE2572:
 1855 000c 9001000C 		stw 0,12(1)
 1856              	.LBB2577:
 1857              	.LBB2576:
 1858              	.LBB2575:
 1859              		.loc 1 387 0
 1860 0010 38090008 		la 0,_ZTVN7sigslot17_connection_base3IP9GuiButtoniRK6_POINTNS_15single_threadedEEE+8@l(9)
 1861              		.cfi_offset 65, 4
 1862 0014 90030000 		stw 0,0(3)
 1863              	.LBE2575:
 1864              	.LBE2576:
 1865              	.LBE2577:
 1866 0018 48000001 		bl _ZdlPv
 1867              	.LVL144:
 1868 001c 8001000C 		lwz 0,12(1)
 1869 0020 38210008 		addi 1,1,8
 1870              	.LCFI43:
 1871              		.cfi_def_cfa_offset 0
 1872 0024 7C0803A6 		mtlr 0
 1873 0028 4E800020 		blr
 1874              		.cfi_endproc
 1875              	.LFE1850:
 1876              		.size	_ZN7sigslot17_connection_base3IP9GuiButtoniRK6_POINTNS_15single_threadedEED0Ev, .-_ZN7sigslo
 1877              		.section	.text._ZN7sigslot17_connection_base2IP8PlayListiNS_15single_threadedEED0Ev,"axG",@progbit
 1878              		.align 2
 1879              		.weak	_ZN7sigslot17_connection_base2IP8PlayListiNS_15single_threadedEED0Ev
 1880              		.type	_ZN7sigslot17_connection_base2IP8PlayListiNS_15single_threadedEED0Ev, @function
 1881              	_ZN7sigslot17_connection_base2IP8PlayListiNS_15single_threadedEED0Ev:
 1882              	.LFB1843:
 1883              		.loc 1 376 0
 1884              		.cfi_startproc
 1885              	.LVL145:
 1886 0000 7C0802A6 		mflr 0
 1887 0004 9421FFF8 		stwu 1,-8(1)
 1888              	.LCFI44:
 1889              		.cfi_def_cfa_offset 8
 1890              		.cfi_register 65, 0
 1891              	.LBB2578:
 1892              	.LBB2579:
 1893              	.LBB2580:
 1894 0008 3D200000 		lis 9,_ZTVN7sigslot17_connection_base2IP8PlayListiNS_15single_threadedEEE+8@ha
 1895              	.LBE2580:
 1896              	.LBE2579:
 1897              	.LBE2578:
 1898 000c 9001000C 		stw 0,12(1)
 1899              	.LBB2583:
 1900              	.LBB2582:
 1901              	.LBB2581:
 1902              		.loc 1 376 0
 1903 0010 38090008 		la 0,_ZTVN7sigslot17_connection_base2IP8PlayListiNS_15single_threadedEEE+8@l(9)
 1904              		.cfi_offset 65, 4
 1905 0014 90030000 		stw 0,0(3)
 1906              	.LBE2581:
 1907              	.LBE2582:
 1908              	.LBE2583:
 1909 0018 48000001 		bl _ZdlPv
 1910              	.LVL146:
 1911 001c 8001000C 		lwz 0,12(1)
 1912 0020 38210008 		addi 1,1,8
 1913              	.LCFI45:
 1914              		.cfi_def_cfa_offset 0
 1915 0024 7C0803A6 		mtlr 0
 1916 0028 4E800020 		blr
 1917              		.cfi_endproc
 1918              	.LFE1843:
 1919              		.size	_ZN7sigslot17_connection_base2IP8PlayListiNS_15single_threadedEED0Ev, .-_ZN7sigslot17_connec
 1920              		.section	.text._ZN7sigslot15single_threadedD0Ev,"axG",@progbits,_ZN7sigslot15single_threadedD5Ev,c
 1921              		.align 2
 1922              		.weak	_ZN7sigslot15single_threadedD0Ev
 1923              		.type	_ZN7sigslot15single_threadedD0Ev, @function
 1924              	_ZN7sigslot15single_threadedD0Ev:
 1925              	.LFB1150:
 1926              		.loc 1 104 0
 1927              		.cfi_startproc
 1928              	.LVL147:
 1929 0000 7C0802A6 		mflr 0
 1930 0004 9421FFF8 		stwu 1,-8(1)
 1931              	.LCFI46:
 1932              		.cfi_def_cfa_offset 8
 1933              		.cfi_register 65, 0
 1934              	.LBB2584:
 1935              	.LBB2585:
 1936              	.LBB2586:
 1937              		.loc 1 105 0
 1938 0008 3D200000 		lis 9,_ZTVN7sigslot15single_threadedE+8@ha
 1939              	.LBE2586:
 1940              	.LBE2585:
 1941              	.LBE2584:
 1942              		.loc 1 104 0
 1943 000c 9001000C 		stw 0,12(1)
 1944              	.LBB2589:
 1945              	.LBB2588:
 1946              	.LBB2587:
 1947              		.loc 1 105 0
 1948 0010 38090008 		la 0,_ZTVN7sigslot15single_threadedE+8@l(9)
 1949              		.cfi_offset 65, 4
 1950 0014 90030000 		stw 0,0(3)
 1951              	.LBE2587:
 1952              	.LBE2588:
 1953              	.LBE2589:
 1954              		.loc 1 107 0
 1955 0018 48000001 		bl _ZdlPv
 1956              	.LVL148:
 1957 001c 8001000C 		lwz 0,12(1)
 1958 0020 38210008 		addi 1,1,8
 1959              	.LCFI47:
 1960              		.cfi_def_cfa_offset 0
 1961 0024 7C0803A6 		mtlr 0
 1962 0028 4E800020 		blr
 1963              		.cfi_endproc
 1964              	.LFE1150:
 1965              		.size	_ZN7sigslot15single_threadedD0Ev, .-_ZN7sigslot15single_threadedD0Ev
 1966              		.section	".text"
 1967              		.align 2
 1968              		.globl _ZN11MusicPlayer4DrawEv
 1969              		.type	_ZN11MusicPlayer4DrawEv, @function
 1970              	_ZN11MusicPlayer4DrawEv:
 1971              	.LFB1636:
 1972              		.loc 5 493 0
 1973              		.cfi_startproc
 1974              	.LVL149:
 1975 0000 7C0802A6 		mflr 0
 1976 0004 9421FFF0 		stwu 1,-16(1)
 1977              	.LCFI48:
 1978              		.cfi_def_cfa_offset 16
 1979              		.cfi_register 65, 0
 1980 0008 93E1000C 		stw 31,12(1)
 1981 000c 7C7F1B78 		mr 31,3
 1982              		.cfi_offset 31, -4
 1983 0010 90010014 		stw 0,20(1)
 1984              		.loc 5 494 0
 1985 0014 812300FC 		lwz 9,252(3)
 1986 0018 2F890000 		cmpwi 7,9,0
 1987 001c 409D0028 		ble- 7,.L118
 1988              		.cfi_offset 65, 4
 1989              		.loc 5 496 0
 1990 0020 3929FFFF 		addi 9,9,-1
 1991              		.loc 5 497 0
 1992 0024 2F890000 		cmpwi 7,9,0
 1993              		.loc 5 496 0
 1994 0028 912300FC 		stw 9,252(3)
 1995              		.loc 5 497 0
 1996 002c 409E0018 		bne- 7,.L118
 1997              		.loc 5 497 0 is_stmt 0 discriminator 1
 1998 0030 80630254 		lwz 3,596(3)
 1999              	.LVL150:
 2000 0034 2F830000 		cmpwi 7,3,0
 2001 0038 419E000C 		beq- 7,.L118
 2002              		.loc 5 498 0 is_stmt 1
 2003 003c 809F023C 		lwz 4,572(31)
 2004 0040 48000001 		bl _ZN8GuiImage8SetImageEP12GuiImageData
 2005              	.L118:
 2006              		.loc 5 501 0
 2007 0044 7FE3FB78 		mr 3,31
 2008 0048 48000001 		bl _ZN8GuiFrame4DrawEv
 2009              		.loc 5 502 0
 2010 004c 80010014 		lwz 0,20(1)
 2011 0050 83E1000C 		lwz 31,12(1)
 2012              	.LVL151:
 2013 0054 7C0803A6 		mtlr 0
 2014 0058 38210010 		addi 1,1,16
 2015              	.LCFI49:
 2016              		.cfi_def_cfa_offset 0
 2017              		.cfi_restore 31
 2018 005c 4E800020 		blr
 2019              		.cfi_endproc
 2020              	.LFE1636:
 2021              		.size	_ZN11MusicPlayer4DrawEv, .-_ZN11MusicPlayer4DrawEv
 2022              		.section	.text._ZN16SimpleGuiTriggerD2Ev,"axG",@progbits,_ZN16SimpleGuiTriggerD5Ev,comdat
 2023              		.align 2
 2024              		.weak	_ZN16SimpleGuiTriggerD2Ev
 2025              		.type	_ZN16SimpleGuiTriggerD2Ev, @function
 2026              	_ZN16SimpleGuiTriggerD2Ev:
 2027              	.LFB1629:
 2028              		.file 6 "d:/Projects/SaveGameManager/savegame-manager-gx/trunk/source/SoundOperations/../Controls/
 2029              		.loc 6 91 0
 2030              		.cfi_startproc
 2031              	.LVL152:
 2032 0000 7C0802A6 		mflr 0
 2033 0004 9421FFF8 		stwu 1,-8(1)
 2034              	.LCFI50:
 2035              		.cfi_def_cfa_offset 8
 2036              		.cfi_register 65, 0
 2037              	.LBB2591:
 2038 0008 3D200000 		lis 9,_ZTV16SimpleGuiTrigger+8@ha
 2039              	.LBE2591:
 2040 000c 9001000C 		stw 0,12(1)
 2041              	.LBB2592:
 2042              		.loc 6 91 0
 2043 0010 38090008 		la 0,_ZTV16SimpleGuiTrigger+8@l(9)
 2044              		.cfi_offset 65, 4
 2045 0014 90030000 		stw 0,0(3)
 2046 0018 48000001 		bl _ZN10GuiTriggerD2Ev
 2047              	.LVL153:
 2048              	.LBE2592:
 2049 001c 8001000C 		lwz 0,12(1)
 2050 0020 38210008 		addi 1,1,8
 2051              	.LCFI51:
 2052              		.cfi_def_cfa_offset 0
 2053 0024 7C0803A6 		mtlr 0
 2054 0028 4E800020 		blr
 2055              		.cfi_endproc
 2056              	.LFE1629:
 2057              		.size	_ZN16SimpleGuiTriggerD2Ev, .-_ZN16SimpleGuiTriggerD2Ev
 2058              		.section	".text"
 2059              		.align 2
 2060              		.globl _ZN11MusicPlayer16OnTitleListClickEP8PlayListi
 2061              		.type	_ZN11MusicPlayer16OnTitleListClickEP8PlayListi, @function
 2062              	_ZN11MusicPlayer16OnTitleListClickEP8PlayListi:
 2063              	.LFB1633:
 2064              		.loc 5 364 0
 2065              		.cfi_startproc
 2066              	.LVL154:
 2067 0060 7C0802A6 		mflr 0
 2068 0064 9421FFF8 		stwu 1,-8(1)
 2069              	.LCFI52:
 2070              		.cfi_def_cfa_offset 8
 2071              		.cfi_register 65, 0
 2072              	.LBB2593:
 2073              		.loc 5 365 0
 2074 0068 7C832378 		mr 3,4
 2075              	.LVL155:
 2076 006c 7CA42B78 		mr 4,5
 2077              	.LVL156:
 2078              	.LBE2593:
 2079              		.loc 5 364 0
 2080 0070 9001000C 		stw 0,12(1)
 2081              	.LBB2594:
 2082              		.loc 5 365 0
 2083              		.cfi_offset 65, 4
 2084 0074 48000001 		bl _ZN8PlayList2atEi
 2085              	.LVL157:
 2086              	.LBE2594:
 2087              		.loc 5 383 0
 2088 0078 8001000C 		lwz 0,12(1)
 2089 007c 38210008 		addi 1,1,8
 2090              	.LCFI53:
 2091              		.cfi_def_cfa_offset 0
 2092 0080 7C0803A6 		mtlr 0
 2093 0084 4E800020 		blr
 2094              		.cfi_endproc
 2095              	.LFE1633:
 2096              		.size	_ZN11MusicPlayer16OnTitleListClickEP8PlayListi, .-_ZN11MusicPlayer16OnTitleListClickEP8PlayL
 2097              		.section	.text._ZN6Thread14shutdownThreadEv,"axG",@progbits,_ZN6Thread14shutdownThreadEv,comdat
 2098              		.align 2
 2099              		.weak	_ZN6Thread14shutdownThreadEv
 2100              		.type	_ZN6Thread14shutdownThreadEv, @function
 2101              	_ZN6Thread14shutdownThreadEv:
 2102              	.LFB1587:
 2103              		.loc 4 62 0
 2104              		.cfi_startproc
 2105              	.LVL158:
 2106 0000 7C0802A6 		mflr 0
 2107 0004 9421FFF0 		stwu 1,-16(1)
 2108              	.LCFI54:
 2109              		.cfi_def_cfa_offset 16
 2110              		.cfi_register 65, 0
 2111 0008 93E1000C 		stw 31,12(1)
 2112 000c 7C7F1B78 		mr 31,3
 2113              		.cfi_offset 31, -4
 2114 0010 90010014 		stw 0,20(1)
 2115              		.loc 4 65 0
 2116 0014 80030004 		lwz 0,4(3)
 2117              		.cfi_offset 65, 4
 2118 0018 2F80FFFF 		cmpwi 7,0,-1
 2119 001c 419E0020 		beq- 7,.L123
 2120              		.loc 4 67 0
 2121 0020 81230000 		lwz 9,0(3)
 2122 0024 80090018 		lwz 0,24(9)
 2123 0028 7C0903A6 		mtctr 0
 2124 002c 4E800421 		bctrl
 2125              	.LVL159:
 2126              		.loc 4 68 0
 2127 0030 807F0004 		lwz 3,4(31)
 2128 0034 38800000 		li 4,0
 2129 0038 48000001 		bl LWP_JoinThread
 2130              	.L123:
 2131              		.loc 4 71 0
 2132 003c 807F0008 		lwz 3,8(31)
 2133 0040 2F830000 		cmpwi 7,3,0
 2134 0044 419E0008 		beq- 7,.L124
 2135              		.loc 4 72 0
 2136 0048 48000001 		bl free
 2137              	.L124:
 2138              		.loc 4 74 0
 2139 004c 3800FFFF 		li 0,-1
 2140 0050 901F0004 		stw 0,4(31)
 2141              		.loc 4 75 0
 2142 0054 38000000 		li 0,0
 2143 0058 901F0008 		stw 0,8(31)
 2144              		.loc 4 76 0
 2145 005c 80010014 		lwz 0,20(1)
 2146 0060 83E1000C 		lwz 31,12(1)
 2147              	.LVL160:
 2148 0064 7C0803A6 		mtlr 0
 2149 0068 38210010 		addi 1,1,16
 2150              	.LCFI55:
 2151              		.cfi_def_cfa_offset 0
 2152              		.cfi_restore 31
 2153 006c 4E800020 		blr
 2154              		.cfi_endproc
 2155              	.LFE1587:
 2156              		.size	_ZN6Thread14shutdownThreadEv, .-_ZN6Thread14shutdownThreadEv
 2157              		.section	.text._ZN6Thread17setThreadPriorityEi,"axG",@progbits,_ZN6Thread17setThreadPriorityEi,com
 2158              		.align 2
 2159              		.weak	_ZN6Thread17setThreadPriorityEi
 2160              		.type	_ZN6Thread17setThreadPriorityEi, @function
 2161              	_ZN6Thread17setThreadPriorityEi:
 2162              	.LFB1585:
 2163              		.loc 4 58 0
 2164              		.cfi_startproc
 2165              	.LVL161:
 2166 0000 7C0802A6 		mflr 0
 2167 0004 9421FFF8 		stwu 1,-8(1)
 2168              	.LCFI56:
 2169              		.cfi_def_cfa_offset 8
 2170              		.cfi_register 65, 0
 2171 0008 9001000C 		stw 0,12(1)
 2172              		.loc 4 58 0
 2173 000c 80630004 		lwz 3,4(3)
 2174              	.LVL162:
 2175 0010 2F83FFFF 		cmpwi 7,3,-1
 2176 0014 419E0008 		beq- 7,.L125
 2177              		.cfi_offset 65, 4
 2178              		.loc 4 58 0 is_stmt 0 discriminator 1
 2179 0018 48000001 		bl LWP_SetThreadPriority
 2180              	.LVL163:
 2181              	.L125:
 2182              		.loc 4 58 0
 2183 001c 8001000C 		lwz 0,12(1)
 2184 0020 38210008 		addi 1,1,8
 2185              	.LCFI57:
 2186              		.cfi_def_cfa_offset 0
 2187 0024 7C0803A6 		mtlr 0
 2188 0028 4E800020 		blr
 2189              		.cfi_endproc
 2190              	.LFE1585:
 2191              		.size	_ZN6Thread17setThreadPriorityEi, .-_ZN6Thread17setThreadPriorityEi
 2192              		.section	.text._ZNK6Thread15isThreadRunningEv,"axG",@progbits,_ZNK6Thread15isThreadRunningEv,comda
 2193              		.align 2
 2194              		.weak	_ZNK6Thread15isThreadRunningEv
 2195              		.type	_ZNK6Thread15isThreadRunningEv, @function
 2196              	_ZNK6Thread15isThreadRunningEv:
 2197              	.LFB1586:
 2198              		.loc 4 60 0 is_stmt 1
 2199              		.cfi_startproc
 2200              	.LVL164:
 2201 0000 7C0802A6 		mflr 0
 2202 0004 9421FFF8 		stwu 1,-8(1)
 2203              	.LCFI58:
 2204              		.cfi_def_cfa_offset 8
 2205              		.cfi_register 65, 0
 2206 0008 9001000C 		stw 0,12(1)
 2207              		.loc 4 60 0
 2208 000c 80030004 		lwz 0,4(3)
 2209              		.cfi_offset 65, 4
 2210 0010 38600000 		li 3,0
 2211              	.LVL165:
 2212 0014 2F80FFFF 		cmpwi 7,0,-1
 2213 0018 419E0014 		beq- 7,.L128
 2214              	.LBB2597:
 2215              	.LBB2598:
 2216 001c 7C030378 		mr 3,0
 2217 0020 48000001 		bl LWP_ThreadIsSuspended
 2218 0024 7C630034 		cntlzw 3,3
 2219 0028 5463D97E 		srwi 3,3,5
 2220              	.L128:
 2221              	.LBE2598:
 2222              	.LBE2597:
 2223 002c 8001000C 		lwz 0,12(1)
 2224 0030 38210008 		addi 1,1,8
 2225              	.LCFI59:
 2226              		.cfi_def_cfa_offset 0
 2227 0034 7C0803A6 		mtlr 0
 2228 0038 4E800020 		blr
 2229              		.cfi_endproc
 2230              	.LFE1586:
 2231              		.size	_ZNK6Thread15isThreadRunningEv, .-_ZNK6Thread15isThreadRunningEv
 2232              		.section	.text._ZN6Thread12resumeThreadEv,"axG",@progbits,_ZN6Thread12resumeThreadEv,comdat
 2233              		.align 2
 2234              		.weak	_ZN6Thread12resumeThreadEv
 2235              		.type	_ZN6Thread12resumeThreadEv, @function
 2236              	_ZN6Thread12resumeThreadEv:
 2237              	.LFB1584:
 2238              		.loc 4 56 0
 2239              		.cfi_startproc
 2240              	.LVL166:
 2241 0000 7C0802A6 		mflr 0
 2242 0004 9421FFF8 		stwu 1,-8(1)
 2243              	.LCFI60:
 2244              		.cfi_def_cfa_offset 8
 2245              		.cfi_register 65, 0
 2246 0008 9001000C 		stw 0,12(1)
 2247              		.loc 4 56 0
 2248 000c 80630004 		lwz 3,4(3)
 2249              	.LVL167:
 2250 0010 2F83FFFF 		cmpwi 7,3,-1
 2251 0014 419E0008 		beq- 7,.L130
 2252              		.cfi_offset 65, 4
 2253              	.LBB2601:
 2254              	.LBB2602:
 2255 0018 48000001 		bl LWP_ResumeThread
 2256              	.L130:
 2257              	.LBE2602:
 2258              	.LBE2601:
 2259 001c 8001000C 		lwz 0,12(1)
 2260 0020 38210008 		addi 1,1,8
 2261              	.LCFI61:
 2262              		.cfi_def_cfa_offset 0
 2263 0024 7C0803A6 		mtlr 0
 2264 0028 4E800020 		blr
 2265              		.cfi_endproc
 2266              	.LFE1584:
 2267              		.size	_ZN6Thread12resumeThreadEv, .-_ZN6Thread12resumeThreadEv
 2268              		.section	.text._ZN6Thread13suspendThreadEv,"axG",@progbits,_ZN6Thread13suspendThreadEv,comdat
 2269              		.align 2
 2270              		.weak	_ZN6Thread13suspendThreadEv
 2271              		.type	_ZN6Thread13suspendThreadEv, @function
 2272              	_ZN6Thread13suspendThreadEv:
 2273              	.LFB1583:
 2274              		.loc 4 54 0
 2275              		.cfi_startproc
 2276              	.LVL168:
 2277 0000 7C0802A6 		mflr 0
 2278 0004 9421FFF8 		stwu 1,-8(1)
 2279              	.LCFI62:
 2280              		.cfi_def_cfa_offset 8
 2281              		.cfi_register 65, 0
 2282 0008 9001000C 		stw 0,12(1)
 2283              		.loc 4 54 0
 2284 000c 80630004 		lwz 3,4(3)
 2285              	.LVL169:
 2286 0010 2F83FFFF 		cmpwi 7,3,-1
 2287 0014 419E0008 		beq- 7,.L132
 2288              		.cfi_offset 65, 4
 2289              	.LBB2605:
 2290              	.LBB2606:
 2291 0018 48000001 		bl LWP_SuspendThread
 2292              	.L132:
 2293              	.LBE2606:
 2294              	.LBE2605:
 2295 001c 8001000C 		lwz 0,12(1)
 2296 0020 38210008 		addi 1,1,8
 2297              	.LCFI63:
 2298              		.cfi_def_cfa_offset 0
 2299 0024 7C0803A6 		mtlr 0
 2300 0028 4E800020 		blr
 2301              		.cfi_endproc
 2302              	.LFE1583:
 2303              		.size	_ZN6Thread13suspendThreadEv, .-_ZN6Thread13suspendThreadEv
 2304              		.section	.text._ZN16SimpleGuiTriggerD0Ev,"axG",@progbits,_ZN16SimpleGuiTriggerD5Ev,comdat
 2305              		.align 2
 2306              		.weak	_ZN16SimpleGuiTriggerD0Ev
 2307              		.type	_ZN16SimpleGuiTriggerD0Ev, @function
 2308              	_ZN16SimpleGuiTriggerD0Ev:
 2309              	.LFB1631:
 2310              		.loc 6 91 0
 2311              		.cfi_startproc
 2312              	.LVL170:
 2313 0000 7C0802A6 		mflr 0
 2314 0004 9421FFF0 		stwu 1,-16(1)
 2315              	.LCFI64:
 2316              		.cfi_def_cfa_offset 16
 2317              		.cfi_register 65, 0
 2318              	.LBB2610:
 2319              	.LBB2611:
 2320              	.LBB2612:
 2321 0008 3D200000 		lis 9,_ZTV16SimpleGuiTrigger+8@ha
 2322              	.LBE2612:
 2323              	.LBE2611:
 2324              	.LBE2610:
 2325 000c 93E1000C 		stw 31,12(1)
 2326 0010 7C7F1B78 		mr 31,3
 2327              		.cfi_offset 31, -4
 2328              	.LVL171:
 2329 0014 90010014 		stw 0,20(1)
 2330              	.LBB2615:
 2331              	.LBB2614:
 2332              	.LBB2613:
 2333              		.loc 6 91 0
 2334 0018 38090008 		la 0,_ZTV16SimpleGuiTrigger+8@l(9)
 2335              		.cfi_offset 65, 4
 2336 001c 90030000 		stw 0,0(3)
 2337 0020 48000001 		bl _ZN10GuiTriggerD2Ev
 2338              	.LVL172:
 2339              	.LBE2613:
 2340              	.LBE2614:
 2341              	.LBE2615:
 2342 0024 7FE3FB78 		mr 3,31
 2343 0028 48000001 		bl _ZdlPv
 2344 002c 80010014 		lwz 0,20(1)
 2345 0030 83E1000C 		lwz 31,12(1)
 2346              	.LVL173:
 2347 0034 7C0803A6 		mtlr 0
 2348 0038 38210010 		addi 1,1,16
 2349              	.LCFI65:
 2350              		.cfi_def_cfa_offset 0
 2351              		.cfi_restore 31
 2352 003c 4E800020 		blr
 2353              		.cfi_endproc
 2354              	.LFE1631:
 2355              		.size	_ZN16SimpleGuiTriggerD0Ev, .-_ZN16SimpleGuiTriggerD0Ev
 2356              		.section	.text._ZN6ThreadD2Ev,"axG",@progbits,_ZN6ThreadD5Ev,comdat
 2357              		.align 2
 2358              		.weak	_ZN6ThreadD2Ev
 2359              		.type	_ZN6ThreadD2Ev, @function
 2360              	_ZN6ThreadD2Ev:
 2361              	.LFB1578:
 2362              		.loc 4 45 0
 2363              		.cfi_startproc
 2364              	.LVL174:
 2365 0000 7C0802A6 		mflr 0
 2366 0004 9421FFF0 		stwu 1,-16(1)
 2367              	.LCFI66:
 2368              		.cfi_def_cfa_offset 16
 2369              		.cfi_register 65, 0
 2370              	.LBB2619:
 2371 0008 3D200000 		lis 9,_ZTV6Thread+8@ha
 2372              	.LBE2619:
 2373 000c 93E1000C 		stw 31,12(1)
 2374 0010 7C7F1B78 		mr 31,3
 2375              		.cfi_offset 31, -4
 2376 0014 90010014 		stw 0,20(1)
 2377              	.LBB2624:
 2378              	.LBB2620:
 2379              	.LBB2621:
 2380              		.loc 4 65 0
 2381 0018 80030004 		lwz 0,4(3)
 2382              		.cfi_offset 65, 4
 2383 001c 2F80FFFF 		cmpwi 7,0,-1
 2384              	.LBE2621:
 2385              	.LBE2620:
 2386              		.loc 4 45 0
 2387 0020 38090008 		la 0,_ZTV6Thread+8@l(9)
 2388 0024 90030000 		stw 0,0(3)
 2389              	.LVL175:
 2390              	.LBB2623:
 2391              	.LBB2622:
 2392              		.loc 4 65 0
 2393 0028 419E0014 		beq- 7,.L138
 2394              	.LVL176:
 2395              		.loc 4 67 0
 2396 002c 48000001 		bl _ZN6Thread12resumeThreadEv
 2397              	.LVL177:
 2398              		.loc 4 68 0
 2399 0030 807F0004 		lwz 3,4(31)
 2400 0034 38800000 		li 4,0
 2401 0038 48000001 		bl LWP_JoinThread
 2402              	.L138:
 2403              		.loc 4 71 0
 2404 003c 807F0008 		lwz 3,8(31)
 2405 0040 2F830000 		cmpwi 7,3,0
 2406 0044 419E0008 		beq- 7,.L139
 2407              		.loc 4 72 0
 2408 0048 48000001 		bl free
 2409              	.L139:
 2410              		.loc 4 74 0
 2411 004c 3800FFFF 		li 0,-1
 2412 0050 901F0004 		stw 0,4(31)
 2413              		.loc 4 75 0
 2414 0054 38000000 		li 0,0
 2415 0058 901F0008 		stw 0,8(31)
 2416              	.LBE2622:
 2417              	.LBE2623:
 2418              	.LBE2624:
 2419              		.loc 4 45 0
 2420 005c 80010014 		lwz 0,20(1)
 2421 0060 83E1000C 		lwz 31,12(1)
 2422              	.LVL178:
 2423 0064 7C0803A6 		mtlr 0
 2424 0068 38210010 		addi 1,1,16
 2425              	.LCFI67:
 2426              		.cfi_def_cfa_offset 0
 2427              		.cfi_restore 31
 2428 006c 4E800020 		blr
 2429              		.cfi_endproc
 2430              	.LFE1578:
 2431              		.size	_ZN6ThreadD2Ev, .-_ZN6ThreadD2Ev
 2432              		.section	.text._ZN6ThreadD0Ev,"axG",@progbits,_ZN6ThreadD5Ev,comdat
 2433              		.align 2
 2434              		.weak	_ZN6ThreadD0Ev
 2435              		.type	_ZN6ThreadD0Ev, @function
 2436              	_ZN6ThreadD0Ev:
 2437              	.LFB1580:
 2438              		.loc 4 45 0
 2439              		.cfi_startproc
 2440              	.LVL179:
 2441 0000 7C0802A6 		mflr 0
 2442 0004 9421FFF0 		stwu 1,-16(1)
 2443              	.LCFI68:
 2444              		.cfi_def_cfa_offset 16
 2445              		.cfi_register 65, 0
 2446              	.LBB2630:
 2447              	.LBB2631:
 2448              	.LBB2632:
 2449 0008 3D200000 		lis 9,_ZTV6Thread+8@ha
 2450              	.LBE2632:
 2451              	.LBE2631:
 2452              	.LBE2630:
 2453 000c 93E1000C 		stw 31,12(1)
 2454 0010 7C7F1B78 		mr 31,3
 2455              		.cfi_offset 31, -4
 2456              	.LVL180:
 2457 0014 90010014 		stw 0,20(1)
 2458              	.LBB2643:
 2459              	.LBB2641:
 2460              	.LBB2639:
 2461              	.LBB2633:
 2462              	.LBB2634:
 2463              		.loc 4 65 0
 2464 0018 80030004 		lwz 0,4(3)
 2465              		.cfi_offset 65, 4
 2466 001c 2F80FFFF 		cmpwi 7,0,-1
 2467              	.LBE2634:
 2468              	.LBE2633:
 2469              		.loc 4 45 0
 2470 0020 38090008 		la 0,_ZTV6Thread+8@l(9)
 2471 0024 90030000 		stw 0,0(3)
 2472              	.LVL181:
 2473              	.LBB2637:
 2474              	.LBB2635:
 2475              		.loc 4 65 0
 2476 0028 419E0014 		beq- 7,.L142
 2477              	.LVL182:
 2478              		.loc 4 67 0
 2479 002c 48000001 		bl _ZN6Thread12resumeThreadEv
 2480              	.LVL183:
 2481              		.loc 4 68 0
 2482 0030 807F0004 		lwz 3,4(31)
 2483 0034 38800000 		li 4,0
 2484 0038 48000001 		bl LWP_JoinThread
 2485              	.L142:
 2486              		.loc 4 71 0
 2487 003c 807F0008 		lwz 3,8(31)
 2488 0040 2F830000 		cmpwi 7,3,0
 2489 0044 419E0008 		beq- 7,.L143
 2490              		.loc 4 72 0
 2491 0048 48000001 		bl free
 2492              	.L143:
 2493              		.loc 4 74 0
 2494 004c 3800FFFF 		li 0,-1
 2495              	.LBE2635:
 2496              	.LBE2637:
 2497              	.LBE2639:
 2498              	.LBE2641:
 2499              	.LBE2643:
 2500              		.loc 4 45 0
 2501 0050 7FE3FB78 		mr 3,31
 2502              	.LBB2644:
 2503              	.LBB2642:
 2504              	.LBB2640:
 2505              	.LBB2638:
 2506              	.LBB2636:
 2507              		.loc 4 74 0
 2508 0054 901F0004 		stw 0,4(31)
 2509              		.loc 4 75 0
 2510 0058 38000000 		li 0,0
 2511 005c 901F0008 		stw 0,8(31)
 2512              	.LBE2636:
 2513              	.LBE2638:
 2514              	.LBE2640:
 2515              	.LBE2642:
 2516              	.LBE2644:
 2517              		.loc 4 45 0
 2518 0060 48000001 		bl _ZdlPv
 2519 0064 80010014 		lwz 0,20(1)
 2520 0068 83E1000C 		lwz 31,12(1)
 2521              	.LVL184:
 2522 006c 7C0803A6 		mtlr 0
 2523 0070 38210010 		addi 1,1,16
 2524              	.LCFI69:
 2525              		.cfi_def_cfa_offset 0
 2526              		.cfi_restore 31
 2527 0074 4E800020 		blr
 2528              		.cfi_endproc
 2529              	.LFE1580:
 2530              		.size	_ZN6ThreadD0Ev, .-_ZN6ThreadD0Ev
 2531              		.section	".text"
 2532              		.align 2
 2533              		.globl _ZN11MusicPlayer12LoadStandardEv
 2534              		.type	_ZN11MusicPlayer12LoadStandardEv, @function
 2535              	_ZN11MusicPlayer12LoadStandardEv:
 2536              	.LFB1616:
 2537              		.loc 5 100 0
 2538              		.cfi_startproc
 2539              	.LVL185:
 2540 0088 7C0802A6 		mflr 0
 2541 008c 9421FFF0 		stwu 1,-16(1)
 2542              	.LCFI70:
 2543              		.cfi_def_cfa_offset 16
 2544              		.cfi_register 65, 0
 2545              		.loc 5 101 0
 2546 0090 3D200000 		lis 9,Settings@ha
 2547 0094 39290000 		la 9,Settings@l(9)
 2548              		.loc 5 100 0
 2549 0098 93C10008 		stw 30,8(1)
 2550 009c 90010014 		stw 0,20(1)
 2551              		.loc 5 101 0
 2552 00a0 38000000 		li 0,0
 2553              		.cfi_offset 65, 4
 2554              		.cfi_offset 30, -8
 2555              		.loc 5 100 0
 2556 00a4 93E1000C 		stw 31,12(1)
 2557              		.loc 5 100 0
 2558 00a8 7C7F1B78 		mr 31,3
 2559              		.cfi_offset 31, -4
 2560              		.loc 5 101 0
 2561 00ac 980903E2 		stb 0,994(9)
 2562              		.loc 5 103 0
 2563 00b0 3800FFFF 		li 0,-1
 2564 00b4 900300F8 		stw 0,248(3)
 2565              		.loc 5 105 0
 2566 00b8 3C600000 		lis 3,.LC4@ha
 2567              	.LVL186:
 2568 00bc 38630000 		la 3,.LC4@l(3)
 2569 00c0 48000001 		bl gettext
 2570 00c4 7C7E1B78 		mr 30,3
 2571              	.LVL187:
 2572              	.LBB2652:
 2573              	.LBB2653:
 2574              	.LBB2654:
 2575              	.LBB2655:
 2576              		.file 7 "d:\\devkitpro\\devkitppc\\bin\\../lib/gcc/powerpc-eabi/4.6.3/../../../../powerpc-eabi/inc
 2577              		.loc 7 261 0
 2578 00c8 48000001 		bl strlen
 2579              	.LVL188:
 2580 00cc 7C651B78 		mr 5,3
 2581              	.LBE2655:
 2582              	.LBE2654:
 2583              		.file 8 "d:\\devkitpro\\devkitppc\\bin\\../lib/gcc/powerpc-eabi/4.6.3/../../../../powerpc-eabi/inc
 2584              		.loc 8 1121 0
 2585 00d0 7FC4F378 		mr 4,30
 2586 00d4 387F026C 		addi 3,31,620
 2587 00d8 48000001 		bl _ZNSs6assignEPKcj
 2588              	.LBE2653:
 2589              	.LBE2652:
 2590              		.loc 5 107 0
 2591 00dc 807F0270 		lwz 3,624(31)
 2592 00e0 2F830000 		cmpwi 7,3,0
 2593 00e4 419E0018 		beq- 7,.L147
 2594              	.LVL189:
 2595              		.loc 5 108 0
 2596 00e8 81230000 		lwz 9,0(3)
 2597 00ec 809F026C 		lwz 4,620(31)
 2598 00f0 800900C8 		lwz 0,200(9)
 2599 00f4 7C0903A6 		mtctr 0
 2600 00f8 4E800421 		bctrl
 2601              	.LVL190:
 2602              	.L147:
 2603              		.loc 5 110 0
 2604 00fc 3D200000 		lis 9,bg_music_ogg_size@ha
 2605 0100 807F00F0 		lwz 3,240(31)
 2606 0104 80A90000 		lwz 5,bg_music_ogg_size@l(9)
 2607 0108 3C800000 		lis 4,bg_music_ogg@ha
 2608 010c 38840000 		la 4,bg_music_ogg@l(4)
 2609 0110 38C00000 		li 6,0
 2610 0114 48000001 		bl _ZN8GuiSound4LoadEPKhib
 2611              		.loc 5 111 0
 2612 0118 807F00F0 		lwz 3,240(31)
 2613 011c 48000001 		bl _ZN8GuiSound4PlayEv
 2614              		.loc 5 112 0
 2615 0120 38000000 		li 0,0
 2616 0124 981F00D9 		stb 0,217(31)
 2617              		.loc 5 116 0
 2618 0128 38600001 		li 3,1
 2619              		.loc 5 113 0
 2620 012c 981F00D8 		stb 0,216(31)
 2621              		.loc 5 116 0
 2622 0130 80010014 		lwz 0,20(1)
 2623 0134 83C10008 		lwz 30,8(1)
 2624              	.LVL191:
 2625 0138 7C0803A6 		mtlr 0
 2626 013c 83E1000C 		lwz 31,12(1)
 2627              	.LVL192:
 2628 0140 38210010 		addi 1,1,16
 2629              	.LCFI71:
 2630              		.cfi_def_cfa_offset 0
 2631              		.cfi_restore 31
 2632              		.cfi_restore 30
 2633 0144 4E800020 		blr
 2634              		.cfi_endproc
 2635              	.LFE1616:
 2636              		.size	_ZN11MusicPlayer12LoadStandardEv, .-_ZN11MusicPlayer12LoadStandardEv
 2637              		.align 2
 2638              		.type	_ZN11MusicPlayer4LoadEPKcb.constprop.144, @function
 2639              	_ZN11MusicPlayer4LoadEPKcb.constprop.144:
 2640              	.LFB2322:
 2641              		.loc 5 118 0
 2642              		.cfi_startproc
 2643              		.cfi_personality 0,__gxx_personality_v0
 2644              		.cfi_lsda 0,.LLSDA2322
 2645              	.LVL193:
 2646 0148 9421FFD8 		stwu 1,-40(1)
 2647              	.LCFI72:
 2648              		.cfi_def_cfa_offset 40
 2649 014c 7C0802A6 		mflr 0
 2650 0150 93E10024 		stw 31,36(1)
 2651              		.loc 5 126 0
 2652 0154 3FE00000 		lis 31,Settings+994@ha
 2653              		.cfi_offset 31, -4
 2654              		.cfi_register 65, 0
 2655 0158 3BFF03E2 		la 31,Settings+994@l(31)
 2656              		.loc 5 118 0
 2657 015c 93C10020 		stw 30,32(1)
 2658              		.loc 5 126 0
 2659 0160 7FE4FB78 		mr 4,31
 2660              		.loc 5 118 0
 2661 0164 7C7E1B78 		mr 30,3
 2662              		.cfi_offset 30, -8
 2663              		.loc 5 126 0
 2664 0168 38A10009 		addi 5,1,9
 2665 016c 3861000C 		addi 3,1,12
 2666              	.LVL194:
 2667              		.loc 5 118 0
 2668 0170 9001002C 		stw 0,44(1)
 2669 0174 93A1001C 		stw 29,28(1)
 2670              	.LEHB0:
 2671              		.loc 5 126 0
 2672              		.cfi_offset 29, -12
 2673              		.cfi_offset 65, 4
 2674 0178 48000001 		bl _ZNSsC1EPKcRKSaIcE
 2675              	.LEHE0:
 2676 017c 3861000C 		addi 3,1,12
 2677              	.LEHB1:
 2678 0180 48000001 		bl _Z9CheckFileSs
 2679              	.LEHE1:
 2680              	.LBB2693:
 2681              	.LBB2694:
 2682              	.LBB2695:
 2683              	.LBB2696:
 2684              	.LBB2697:
 2685              	.LBB2698:
 2686              		.loc 8 288 0
 2687 0184 8121000C 		lwz 9,12(1)
 2688              	.LBE2698:
 2689              	.LBE2697:
 2690              	.LBE2696:
 2691              	.LBB2699:
 2692              	.LBB2700:
 2693              		.loc 8 235 0
 2694 0188 3D600000 		lis 11,_ZNSs4_Rep20_S_empty_rep_storageE@ha
 2695              	.LBE2700:
 2696              	.LBE2699:
 2697              	.LBE2695:
 2698              	.LBE2694:
 2699              	.LBE2693:
 2700              		.loc 5 126 0
 2701 018c 7C7D1B78 		mr 29,3
 2702              	.LVL195:
 2703              	.LBB2717:
 2704              	.LBB2715:
 2705              	.LBB2713:
 2706              	.LBB2710:
 2707              	.LBB2707:
 2708              		.loc 8 235 0
 2709 0190 380B0000 		la 0,_ZNSs4_Rep20_S_empty_rep_storageE@l(11)
 2710              	.LBE2707:
 2711              	.LBE2710:
 2712              		.loc 8 534 0
 2713 0194 3869FFF4 		addi 3,9,-12
 2714              	.LVL196:
 2715              	.LBB2711:
 2716              	.LBB2708:
 2717              		.loc 8 235 0
 2718 0198 7F830000 		cmpw 7,3,0
 2719 019c 409E0074 		bne- 7,.L161
 2720              	.LVL197:
 2721              	.L156:
 2722              	.LBE2708:
 2723              	.LBE2711:
 2724              	.LBE2713:
 2725              	.LBE2715:
 2726              	.LBE2717:
 2727              		.loc 5 126 0
 2728 01a0 2F9D0000 		cmpwi 7,29,0
 2729 01a4 419E0044 		beq- 7,.L162
 2730              	.LVL198:
 2731              	.LBB2718:
 2732              	.LBB2719:
 2733              	.LBB2720:
 2734              	.LBB2721:
 2735              	.LBB2722:
 2736              	.LBB2723:
 2737              	.LBB2724:
 2738              		.loc 7 261 0
 2739 01a8 7FE3FB78 		mr 3,31
 2740 01ac 48000001 		bl strlen
 2741              	.LBE2724:
 2742              	.LBE2723:
 2743              		.loc 8 1121 0
 2744 01b0 7FE4FB78 		mr 4,31
 2745              	.LBB2726:
 2746              	.LBB2725:
 2747              		.loc 7 261 0
 2748 01b4 7C651B78 		mr 5,3
 2749              	.LBE2725:
 2750              	.LBE2726:
 2751              		.loc 8 1121 0
 2752 01b8 387E00E0 		addi 3,30,224
 2753              	.LEHB2:
 2754 01bc 48000001 		bl _ZNSs6assignEPKcj
 2755              	.LBE2722:
 2756              	.LBE2721:
 2757              	.LBE2720:
 2758              		.loc 5 133 0
 2759 01c0 38000001 		li 0,1
 2760 01c4 981E00E4 		stb 0,228(30)
 2761 01c8 38600001 		li 3,1
 2762              	.LBE2719:
 2763              	.LBE2718:
 2764              		.loc 5 136 0
 2765 01cc 8001002C 		lwz 0,44(1)
 2766 01d0 83A1001C 		lwz 29,28(1)
 2767 01d4 7C0803A6 		mtlr 0
 2768 01d8 83C10020 		lwz 30,32(1)
 2769              	.LVL199:
 2770 01dc 83E10024 		lwz 31,36(1)
 2771 01e0 38210028 		addi 1,1,40
 2772              		.cfi_remember_state
 2773              	.LCFI73:
 2774              		.cfi_def_cfa_offset 0
 2775              		.cfi_restore 31
 2776              		.cfi_restore 30
 2777              		.cfi_restore 29
 2778 01e4 4E800020 		blr
 2779              	.LVL200:
 2780              	.L162:
 2781              	.LCFI74:
 2782              		.cfi_restore_state
 2783              		.loc 5 128 0
 2784 01e8 7FC3F378 		mr 3,30
 2785 01ec 48000001 		bl _ZN11MusicPlayer12LoadStandardEv
 2786              		.loc 5 136 0
 2787 01f0 8001002C 		lwz 0,44(1)
 2788 01f4 83A1001C 		lwz 29,28(1)
 2789              		.loc 5 129 0
 2790 01f8 38600000 		li 3,0
 2791              		.loc 5 136 0
 2792 01fc 7C0803A6 		mtlr 0
 2793 0200 83C10020 		lwz 30,32(1)
 2794              	.LVL201:
 2795 0204 83E10024 		lwz 31,36(1)
 2796 0208 38210028 		addi 1,1,40
 2797              		.cfi_remember_state
 2798              		.cfi_restore 29
 2799              		.cfi_restore 30
 2800              		.cfi_restore 31
 2801              	.LCFI75:
 2802              		.cfi_def_cfa_offset 0
 2803 020c 4E800020 		blr
 2804              	.LVL202:
 2805              	.L161:
 2806              	.LCFI76:
 2807              		.cfi_restore_state
 2808              	.LBB2727:
 2809              	.LBB2716:
 2810              	.LBB2714:
 2811              	.LBB2712:
 2812              	.LBB2709:
 2813              	.LBB2701:
 2814              	.LBB2702:
 2815              	.LBB2703:
 2816              		.file 9 "d:\\devkitpro\\devkitppc\\bin\\../lib/gcc/powerpc-eabi/4.6.3/../../../../powerpc-eabi/inc
 2817              		.loc 9 66 0
 2818 0210 8169FFFC 		lwz 11,-4(9)
 2819              	.LVL203:
 2820              	.LBE2703:
 2821              	.LBE2702:
 2822              	.LBE2701:
 2823              		.loc 8 240 0
 2824 0214 2F8B0000 		cmpwi 7,11,0
 2825              	.LBB2706:
 2826              	.LBB2705:
 2827              	.LBB2704:
 2828              		.loc 9 67 0
 2829 0218 396BFFFF 		addi 11,11,-1
 2830 021c 9169FFFC 		stw 11,-4(9)
 2831              	.LBE2704:
 2832              	.LBE2705:
 2833              	.LBE2706:
 2834              		.loc 8 240 0
 2835 0220 419DFF80 		bgt+ 7,.L156
 2836              		.loc 8 244 0
 2837 0224 38810008 		addi 4,1,8
 2838 0228 48000001 		bl _ZNSs4_Rep10_M_destroyERKSaIcE
 2839              	.LVL204:
 2840 022c 4BFFFF74 		b .L156
 2841              	.LVL205:
 2842              	.L160:
 2843 0230 7C7F1B78 		mr 31,3
 2844              	.LBE2709:
 2845              	.LBE2712:
 2846              	.LBE2714:
 2847              	.LBE2716:
 2848              	.LBE2727:
 2849              		.loc 5 126 0
 2850 0234 3861000C 		addi 3,1,12
 2851 0238 48000001 		bl _ZNSsD1Ev
 2852 023c 7FE3FB78 		mr 3,31
 2853 0240 48000001 		bl _Unwind_Resume
 2854              	.LEHE2:
 2855              		.cfi_endproc
 2856              	.LFE2322:
 2857              		.globl __gxx_personality_v0
 2858              		.section	.gcc_except_table,"a",@progbits
 2859              	.LLSDA2322:
 2860 0000 FF       		.byte	0xff
 2861 0001 FF       		.byte	0xff
 2862 0002 01       		.byte	0x1
 2863 0003 0E       		.uleb128 .LLSDACSE2322-.LLSDACSB2322
 2864              	.LLSDACSB2322:
 2865 0004 30       		.uleb128 .LEHB0-.LFB2322
 2866 0005 04       		.uleb128 .LEHE0-.LEHB0
 2867 0006 00       		.uleb128 0
 2868 0007 00       		.uleb128 0
 2869 0008 38       		.uleb128 .LEHB1-.LFB2322
 2870 0009 04       		.uleb128 .LEHE1-.LEHB1
 2871 000a E801     		.uleb128 .L160-.LFB2322
 2872 000c 00       		.uleb128 0
 2873 000d 74       		.uleb128 .LEHB2-.LFB2322
 2874 000e 8801     		.uleb128 .LEHE2-.LEHB2
 2875 0010 00       		.uleb128 0
 2876 0011 00       		.uleb128 0
 2877              	.LLSDACSE2322:
 2878              		.section	".text"
 2879              		.size	_ZN11MusicPlayer4LoadEPKcb.constprop.144, .-_ZN11MusicPlayer4LoadEPKcb.constprop.144
 2880              		.align 2
 2881              		.globl _ZN11MusicPlayer4LoadEPKcb
 2882              		.type	_ZN11MusicPlayer4LoadEPKcb, @function
 2883              	_ZN11MusicPlayer4LoadEPKcb:
 2884              	.LFB1617:
 2885              		.loc 5 119 0
 2886              		.cfi_startproc
 2887              		.cfi_personality 0,__gxx_personality_v0
 2888              		.cfi_lsda 0,.LLSDA1617
 2889              	.LVL206:
 2890 0244 9421FFD8 		stwu 1,-40(1)
 2891              	.LCFI77:
 2892              		.cfi_def_cfa_offset 40
 2893 0248 7C0802A6 		mflr 0
 2894 024c 93C10020 		stw 30,32(1)
 2895              		.loc 5 120 0
 2896 0250 7C9E2379 		mr. 30,4
 2897              		.cfi_offset 30, -8
 2898              		.cfi_register 65, 0
 2899              		.loc 5 119 0
 2900 0254 93A1001C 		stw 29,28(1)
 2901 0258 7CBD2B78 		mr 29,5
 2902              		.cfi_offset 29, -12
 2903 025c 93E10024 		stw 31,36(1)
 2904 0260 7C7F1B78 		mr 31,3
 2905              		.cfi_offset 31, -4
 2906 0264 9001002C 		stw 0,44(1)
 2907 0268 93810018 		stw 28,24(1)
 2908              		.loc 5 120 0
 2909 026c 41820080 		beq- 0,.L177
 2910              		.cfi_offset 28, -16
 2911              		.cfi_offset 65, 4
 2912              		.loc 5 126 0
 2913 0270 3861000C 		addi 3,1,12
 2914              	.LVL207:
 2915 0274 38A10009 		addi 5,1,9
 2916              	.LVL208:
 2917              	.LEHB3:
 2918 0278 48000001 		bl _ZNSsC1EPKcRKSaIcE
 2919              	.LEHE3:
 2920              	.LVL209:
 2921 027c 3861000C 		addi 3,1,12
 2922              	.LEHB4:
 2923 0280 48000001 		bl _Z9CheckFileSs
 2924              	.LEHE4:
 2925              	.LBB2765:
 2926              	.LBB2766:
 2927              	.LBB2767:
 2928              	.LBB2768:
 2929              	.LBB2769:
 2930              	.LBB2770:
 2931              		.loc 8 288 0
 2932 0284 8121000C 		lwz 9,12(1)
 2933              	.LBE2770:
 2934              	.LBE2769:
 2935              	.LBE2768:
 2936              	.LBB2771:
 2937              	.LBB2772:
 2938              		.loc 8 235 0
 2939 0288 3D600000 		lis 11,_ZNSs4_Rep20_S_empty_rep_storageE@ha
 2940              	.LBE2772:
 2941              	.LBE2771:
 2942              	.LBE2767:
 2943              	.LBE2766:
 2944              	.LBE2765:
 2945              		.loc 5 126 0
 2946 028c 7C7C1B78 		mr 28,3
 2947              	.LVL210:
 2948              	.LBB2789:
 2949              	.LBB2787:
 2950              	.LBB2785:
 2951              	.LBB2782:
 2952              	.LBB2779:
 2953              		.loc 8 235 0
 2954 0290 380B0000 		la 0,_ZNSs4_Rep20_S_empty_rep_storageE@l(11)
 2955              	.LBE2779:
 2956              	.LBE2782:
 2957              		.loc 8 534 0
 2958 0294 3869FFF4 		addi 3,9,-12
 2959              	.LVL211:
 2960              	.LBB2783:
 2961              	.LBB2780:
 2962              		.loc 8 235 0
 2963 0298 7F830000 		cmpw 7,3,0
 2964 029c 409E0078 		bne- 7,.L178
 2965              	.LVL212:
 2966              	.L173:
 2967              	.LBE2780:
 2968              	.LBE2783:
 2969              	.LBE2785:
 2970              	.LBE2787:
 2971              	.LBE2789:
 2972              		.loc 5 126 0 discriminator 2
 2973 02a0 2F9C0000 		cmpwi 7,28,0
 2974 02a4 419E0044 		beq- 7,.L179
 2975              	.LVL213:
 2976              	.LBB2790:
 2977              	.LBB2791:
 2978              	.LBB2792:
 2979              	.LBB2793:
 2980              	.LBB2794:
 2981              	.LBB2795:
 2982              	.LBB2796:
 2983              		.loc 7 261 0
 2984 02a8 7FC3F378 		mr 3,30
 2985 02ac 48000001 		bl strlen
 2986              	.LBE2796:
 2987              	.LBE2795:
 2988              		.loc 8 1121 0
 2989 02b0 7FC4F378 		mr 4,30
 2990              	.LBB2798:
 2991              	.LBB2797:
 2992              		.loc 7 261 0
 2993 02b4 7C651B78 		mr 5,3
 2994              	.LBE2797:
 2995              	.LBE2798:
 2996              		.loc 8 1121 0
 2997 02b8 387F00E0 		addi 3,31,224
 2998              	.LEHB5:
 2999 02bc 48000001 		bl _ZNSs6assignEPKcj
 3000              	.LBE2794:
 3001              	.LBE2793:
 3002              	.LBE2792:
 3003              	.LBE2791:
 3004              	.LBE2790:
 3005              		.loc 5 136 0
 3006 02c0 8001002C 		lwz 0,44(1)
 3007              	.LBB2800:
 3008              	.LBB2799:
 3009              		.loc 5 133 0
 3010 02c4 9BBF00E4 		stb 29,228(31)
 3011 02c8 38600001 		li 3,1
 3012              	.LBE2799:
 3013              	.LBE2800:
 3014              		.loc 5 136 0
 3015 02cc 7C0803A6 		mtlr 0
 3016 02d0 83810018 		lwz 28,24(1)
 3017 02d4 83A1001C 		lwz 29,28(1)
 3018              	.LVL214:
 3019 02d8 83C10020 		lwz 30,32(1)
 3020              	.LVL215:
 3021 02dc 83E10024 		lwz 31,36(1)
 3022              	.LVL216:
 3023 02e0 38210028 		addi 1,1,40
 3024              		.cfi_remember_state
 3025              	.LCFI78:
 3026              		.cfi_def_cfa_offset 0
 3027              		.cfi_restore 31
 3028              		.cfi_restore 30
 3029              		.cfi_restore 29
 3030              		.cfi_restore 28
 3031 02e4 4E800020 		blr
 3032              	.LVL217:
 3033              	.L179:
 3034              	.LCFI79:
 3035              		.cfi_restore_state
 3036              		.loc 5 128 0
 3037 02e8 7FE3FB78 		mr 3,31
 3038              	.LVL218:
 3039              	.L177:
 3040 02ec 48000001 		bl _ZN11MusicPlayer12LoadStandardEv
 3041              		.loc 5 136 0
 3042 02f0 8001002C 		lwz 0,44(1)
 3043 02f4 83810018 		lwz 28,24(1)
 3044              		.loc 5 129 0
 3045 02f8 38600000 		li 3,0
 3046              		.loc 5 136 0
 3047 02fc 7C0803A6 		mtlr 0
 3048 0300 83A1001C 		lwz 29,28(1)
 3049 0304 83C10020 		lwz 30,32(1)
 3050              	.LVL219:
 3051 0308 83E10024 		lwz 31,36(1)
 3052              	.LVL220:
 3053 030c 38210028 		addi 1,1,40
 3054              		.cfi_remember_state
 3055              		.cfi_restore 28
 3056              		.cfi_restore 29
 3057              		.cfi_restore 30
 3058              		.cfi_restore 31
 3059              	.LCFI80:
 3060              		.cfi_def_cfa_offset 0
 3061 0310 4E800020 		blr
 3062              	.LVL221:
 3063              	.L178:
 3064              	.LCFI81:
 3065              		.cfi_restore_state
 3066              	.LBB2801:
 3067              	.LBB2788:
 3068              	.LBB2786:
 3069              	.LBB2784:
 3070              	.LBB2781:
 3071              	.LBB2773:
 3072              	.LBB2774:
 3073              	.LBB2775:
 3074              		.loc 9 66 0
 3075 0314 8169FFFC 		lwz 11,-4(9)
 3076              	.LVL222:
 3077              	.LBE2775:
 3078              	.LBE2774:
 3079              	.LBE2773:
 3080              		.loc 8 240 0
 3081 0318 2F8B0000 		cmpwi 7,11,0
 3082              	.LBB2778:
 3083              	.LBB2777:
 3084              	.LBB2776:
 3085              		.loc 9 67 0
 3086 031c 396BFFFF 		addi 11,11,-1
 3087 0320 9169FFFC 		stw 11,-4(9)
 3088              	.LBE2776:
 3089              	.LBE2777:
 3090              	.LBE2778:
 3091              		.loc 8 240 0
 3092 0324 419DFF7C 		bgt+ 7,.L173
 3093              		.loc 8 244 0
 3094 0328 38810008 		addi 4,1,8
 3095 032c 48000001 		bl _ZNSs4_Rep10_M_destroyERKSaIcE
 3096              	.LVL223:
 3097 0330 4BFFFF70 		b .L173
 3098              	.LVL224:
 3099              	.L176:
 3100 0334 7C7F1B78 		mr 31,3
 3101              	.LVL225:
 3102              	.LBE2781:
 3103              	.LBE2784:
 3104              	.LBE2786:
 3105              	.LBE2788:
 3106              	.LBE2801:
 3107              		.loc 5 126 0
 3108 0338 3861000C 		addi 3,1,12
 3109 033c 48000001 		bl _ZNSsD1Ev
 3110 0340 7FE3FB78 		mr 3,31
 3111 0344 48000001 		bl _Unwind_Resume
 3112              	.LEHE5:
 3113              		.cfi_endproc
 3114              	.LFE1617:
 3115              		.section	.gcc_except_table
 3116              	.LLSDA1617:
 3117 0012 FF       		.byte	0xff
 3118 0013 FF       		.byte	0xff
 3119 0014 01       		.byte	0x1
 3120 0015 0E       		.uleb128 .LLSDACSE1617-.LLSDACSB1617
 3121              	.LLSDACSB1617:
 3122 0016 34       		.uleb128 .LEHB3-.LFB1617
 3123 0017 04       		.uleb128 .LEHE3-.LEHB3
 3124 0018 00       		.uleb128 0
 3125 0019 00       		.uleb128 0
 3126 001a 3C       		.uleb128 .LEHB4-.LFB1617
 3127 001b 04       		.uleb128 .LEHE4-.LEHB4
 3128 001c F001     		.uleb128 .L176-.LFB1617
 3129 001e 00       		.uleb128 0
 3130 001f 78       		.uleb128 .LEHB5-.LFB1617
 3131 0020 8C01     		.uleb128 .LEHE5-.LEHB5
 3132 0022 00       		.uleb128 0
 3133 0023 00       		.uleb128 0
 3134              	.LLSDACSE1617:
 3135              		.section	".text"
 3136              		.size	_ZN11MusicPlayer4LoadEPKcb, .-_ZN11MusicPlayer4LoadEPKcb
 3137              		.align 2
 3138              		.globl _ZN11MusicPlayer17ThreadedLoadMusicEv
 3139              		.type	_ZN11MusicPlayer17ThreadedLoadMusicEv, @function
 3140              	_ZN11MusicPlayer17ThreadedLoadMusicEv:
 3141              	.LFB1618:
 3142              		.loc 5 139 0
 3143              		.cfi_startproc
 3144              		.cfi_personality 0,__gxx_personality_v0
 3145              		.cfi_lsda 0,.LLSDA1618
 3146              	.LVL226:
 3147 0348 9421FFE0 		stwu 1,-32(1)
 3148              	.LCFI82:
 3149              		.cfi_def_cfa_offset 32
 3150 034c 7C0802A6 		mflr 0
 3151 0350 93C10018 		stw 30,24(1)
 3152              	.LBB2865:
 3153              		.loc 5 140 0
 3154 0354 3BC300E0 		addi 30,3,224
 3155              		.cfi_offset 30, -8
 3156              		.cfi_register 65, 0
 3157              	.LBE2865:
 3158              		.loc 5 139 0
 3159 0358 93E1001C 		stw 31,28(1)
 3160              	.LBB2918:
 3161              		.loc 5 140 0
 3162 035c 7FC4F378 		mr 4,30
 3163              	.LBE2918:
 3164              		.loc 5 139 0
 3165 0360 7C7F1B78 		mr 31,3
 3166              		.cfi_offset 31, -4
 3167              	.LBB2919:
 3168              		.loc 5 140 0
 3169 0364 3861000C 		addi 3,1,12
 3170              	.LVL227:
 3171              	.LBE2919:
 3172              		.loc 5 139 0
 3173 0368 90010024 		stw 0,36(1)
 3174              	.LEHB6:
 3175              	.LBB2920:
 3176              		.loc 5 140 0
 3177              		.cfi_offset 65, 4
 3178 036c 48000001 		bl _ZNSsC1ERKSs
 3179              	.LEHE6:
 3180              	.LVL228:
 3181              	.LBB2866:
 3182              	.LBB2867:
 3183              	.LBB2868:
 3184              	.LBB2869:
 3185              		.loc 8 711 0
 3186 0370 813F00E0 		lwz 9,224(31)
 3187              	.LBE2869:
 3188              	.LBE2868:
 3189              		.loc 8 796 0
 3190 0374 7FC3F378 		mr 3,30
 3191 0378 38800000 		li 4,0
 3192 037c 38C00000 		li 6,0
 3193 0380 80A9FFF4 		lwz 5,-12(9)
 3194              	.LEHB7:
 3195 0384 48000001 		bl _ZNSs9_M_mutateEjjj
 3196              	.LBE2867:
 3197              	.LBE2866:
 3198              		.loc 5 144 0
 3199 0388 38000001 		li 0,1
 3200              		.loc 5 146 0
 3201 038c 807F00F0 		lwz 3,240(31)
 3202              		.loc 5 144 0
 3203 0390 981F00E4 		stb 0,228(31)
 3204              	.LVL229:
 3205              		.loc 5 146 0
 3206 0394 8081000C 		lwz 4,12(1)
 3207 0398 48000001 		bl _ZN8GuiSound4LoadEPKc
 3208 039c 2F830000 		cmpwi 7,3,0
 3209 03a0 419E0098 		beq- 7,.L200
 3210              	.LVL230:
 3211              		.loc 5 152 0
 3212 03a4 8061000C 		lwz 3,12(1)
 3213 03a8 3880002F 		li 4,47
 3214 03ac 48000001 		bl strrchr
 3215              	.LVL231:
 3216              		.loc 5 153 0
 3217 03b0 2C030000 		cmpwi 0,3,0
 3218 03b4 41820020 		beq- 0,.L183
 3219              		.loc 5 154 0
 3220 03b8 3BC30001 		addi 30,3,1
 3221              	.LVL232:
 3222              	.LBB2870:
 3223              	.LBB2871:
 3224              	.LBB2872:
 3225              	.LBB2873:
 3226              		.loc 7 261 0
 3227 03bc 7FC3F378 		mr 3,30
 3228              	.LVL233:
 3229 03c0 48000001 		bl strlen
 3230              	.LBE2873:
 3231              	.LBE2872:
 3232              		.loc 8 1121 0
 3233 03c4 7FC4F378 		mr 4,30
 3234              	.LBB2875:
 3235              	.LBB2874:
 3236              		.loc 7 261 0
 3237 03c8 7C651B78 		mr 5,3
 3238              	.LBE2874:
 3239              	.LBE2875:
 3240              		.loc 8 1121 0
 3241 03cc 387F026C 		addi 3,31,620
 3242 03d0 48000001 		bl _ZNSs6assignEPKcj
 3243              	.LVL234:
 3244              	.L183:
 3245              	.LBE2871:
 3246              	.LBE2870:
 3247              		.loc 5 156 0
 3248 03d4 807F0270 		lwz 3,624(31)
 3249 03d8 2F830000 		cmpwi 7,3,0
 3250 03dc 419E0018 		beq- 7,.L184
 3251              	.LVL235:
 3252              		.loc 5 157 0
 3253 03e0 81230000 		lwz 9,0(3)
 3254 03e4 809F026C 		lwz 4,620(31)
 3255 03e8 800900C8 		lwz 0,200(9)
 3256 03ec 7C0903A6 		mtctr 0
 3257 03f0 4E800421 		bctrl
 3258              	.LVL236:
 3259              	.L184:
 3260              		.loc 5 159 0
 3261 03f4 807F00F0 		lwz 3,240(31)
 3262 03f8 48000001 		bl _ZN8GuiSound4PlayEv
 3263              	.LBB2876:
 3264              	.LBB2877:
 3265              	.LBB2878:
 3266              	.LBB2879:
 3267              	.LBB2880:
 3268              	.LBB2881:
 3269              		.loc 8 288 0
 3270 03fc 8121000C 		lwz 9,12(1)
 3271              	.LBE2881:
 3272              	.LBE2880:
 3273              	.LBE2879:
 3274              	.LBB2882:
 3275              	.LBB2883:
 3276              		.loc 8 235 0
 3277 0400 3D600000 		lis 11,_ZNSs4_Rep20_S_empty_rep_storageE@ha
 3278 0404 380B0000 		la 0,_ZNSs4_Rep20_S_empty_rep_storageE@l(11)
 3279              	.LBE2883:
 3280              	.LBE2882:
 3281              		.loc 8 534 0
 3282 0408 3869FFF4 		addi 3,9,-12
 3283              	.LBB2893:
 3284              	.LBB2890:
 3285              		.loc 8 235 0
 3286 040c 7F830000 		cmpw 7,3,0
 3287              	.LBE2890:
 3288              	.LBE2893:
 3289              	.LBE2878:
 3290              	.LBE2877:
 3291              	.LBE2876:
 3292              		.loc 5 160 0
 3293 0410 38000000 		li 0,0
 3294 0414 981F00D9 		stb 0,217(31)
 3295              		.loc 5 161 0
 3296 0418 981F00D8 		stb 0,216(31)
 3297              	.LVL237:
 3298              	.LBB2900:
 3299              	.LBB2898:
 3300              	.LBB2896:
 3301              	.LBB2894:
 3302              	.LBB2891:
 3303              		.loc 8 235 0
 3304 041c 409E005C 		bne- 7,.L201
 3305              	.LVL238:
 3306              	.L180:
 3307              	.LBE2891:
 3308              	.LBE2894:
 3309              	.LBE2896:
 3310              	.LBE2898:
 3311              	.LBE2900:
 3312              	.LBE2920:
 3313              		.loc 5 162 0
 3314 0420 80010024 		lwz 0,36(1)
 3315 0424 83C10018 		lwz 30,24(1)
 3316 0428 7C0803A6 		mtlr 0
 3317 042c 83E1001C 		lwz 31,28(1)
 3318              	.LVL239:
 3319 0430 38210020 		addi 1,1,32
 3320              		.cfi_remember_state
 3321              	.LCFI83:
 3322              		.cfi_def_cfa_offset 0
 3323              		.cfi_restore 31
 3324              		.cfi_restore 30
 3325 0434 4E800020 		blr
 3326              	.LVL240:
 3327              	.L200:
 3328              	.LCFI84:
 3329              		.cfi_restore_state
 3330              	.LBB2921:
 3331              		.loc 5 148 0
 3332 0438 7FE3FB78 		mr 3,31
 3333 043c 48000001 		bl _ZN11MusicPlayer12LoadStandardEv
 3334              	.LEHE7:
 3335              	.LVL241:
 3336              	.LBB2901:
 3337              	.LBB2902:
 3338              	.LBB2903:
 3339              	.LBB2904:
 3340              	.LBB2905:
 3341              	.LBB2906:
 3342              		.loc 8 288 0
 3343 0440 8121000C 		lwz 9,12(1)
 3344              	.LBE2906:
 3345              	.LBE2905:
 3346              	.LBE2904:
 3347              	.LBB2907:
 3348              	.LBB2908:
 3349              		.loc 8 235 0
 3350 0444 3D600000 		lis 11,_ZNSs4_Rep20_S_empty_rep_storageE@ha
 3351 0448 380B0000 		la 0,_ZNSs4_Rep20_S_empty_rep_storageE@l(11)
 3352              	.LBE2908:
 3353              	.LBE2907:
 3354              		.loc 8 534 0
 3355 044c 3869FFF4 		addi 3,9,-12
 3356              	.LVL242:
 3357              	.LBB2916:
 3358              	.LBB2915:
 3359              		.loc 8 235 0
 3360 0450 7F830000 		cmpw 7,3,0
 3361 0454 419EFFCC 		beq+ 7,.L180
 3362              	.LVL243:
 3363              	.LBB2909:
 3364              	.LBB2910:
 3365              	.LBB2911:
 3366              		.loc 9 66 0
 3367 0458 8169FFFC 		lwz 11,-4(9)
 3368              	.LVL244:
 3369              	.LBE2911:
 3370              	.LBE2910:
 3371              	.LBE2909:
 3372              		.loc 8 240 0
 3373 045c 2F8B0000 		cmpwi 7,11,0
 3374              	.LBB2914:
 3375              	.LBB2913:
 3376              	.LBB2912:
 3377              		.loc 9 67 0
 3378 0460 396BFFFF 		addi 11,11,-1
 3379 0464 9169FFFC 		stw 11,-4(9)
 3380              	.LBE2912:
 3381              	.LBE2913:
 3382              	.LBE2914:
 3383              		.loc 8 240 0
 3384 0468 419DFFB8 		bgt+ 7,.L180
 3385              		.loc 8 244 0
 3386 046c 38810008 		addi 4,1,8
 3387 0470 48000001 		bl _ZNSs4_Rep10_M_destroyERKSaIcE
 3388              	.LVL245:
 3389 0474 4BFFFFAC 		b .L180
 3390              	.LVL246:
 3391              	.L201:
 3392              	.LBE2915:
 3393              	.LBE2916:
 3394              	.LBE2903:
 3395              	.LBE2902:
 3396              	.LBE2901:
 3397              	.LBB2917:
 3398              	.LBB2899:
 3399              	.LBB2897:
 3400              	.LBB2895:
 3401              	.LBB2892:
 3402              	.LBB2884:
 3403              	.LBB2885:
 3404              	.LBB2886:
 3405              		.loc 9 66 0
 3406 0478 8169FFFC 		lwz 11,-4(9)
 3407              	.LVL247:
 3408              	.LBE2886:
 3409              	.LBE2885:
 3410              	.LBE2884:
 3411              		.loc 8 240 0
 3412 047c 2F8B0000 		cmpwi 7,11,0
 3413              	.LBB2889:
 3414              	.LBB2888:
 3415              	.LBB2887:
 3416              		.loc 9 67 0
 3417 0480 396BFFFF 		addi 11,11,-1
 3418 0484 9169FFFC 		stw 11,-4(9)
 3419              	.LBE2887:
 3420              	.LBE2888:
 3421              	.LBE2889:
 3422              		.loc 8 240 0
 3423 0488 419DFF98 		bgt+ 7,.L180
 3424              		.loc 8 244 0
 3425 048c 38810009 		addi 4,1,9
 3426 0490 48000001 		bl _ZNSs4_Rep10_M_destroyERKSaIcE
 3427              	.LVL248:
 3428 0494 4BFFFF8C 		b .L180
 3429              	.LVL249:
 3430              	.L198:
 3431 0498 7C7F1B78 		mr 31,3
 3432              	.LVL250:
 3433              	.LBE2892:
 3434              	.LBE2895:
 3435              	.LBE2897:
 3436              	.LBE2899:
 3437              	.LBE2917:
 3438              		.loc 5 161 0
 3439 049c 3861000C 		addi 3,1,12
 3440 04a0 48000001 		bl _ZNSsD1Ev
 3441 04a4 7FE3FB78 		mr 3,31
 3442              	.LEHB8:
 3443 04a8 48000001 		bl _Unwind_Resume
 3444              	.LEHE8:
 3445              	.LBE2921:
 3446              		.cfi_endproc
 3447              	.LFE1618:
 3448              		.section	.gcc_except_table
 3449              	.LLSDA1618:
 3450 0024 FF       		.byte	0xff
 3451 0025 FF       		.byte	0xff
 3452 0026 01       		.byte	0x1
 3453 0027 0F       		.uleb128 .LLSDACSE1618-.LLSDACSB1618
 3454              	.LLSDACSB1618:
 3455 0028 24       		.uleb128 .LEHB6-.LFB1618
 3456 0029 04       		.uleb128 .LEHE6-.LEHB6
 3457 002a 00       		.uleb128 0
 3458 002b 00       		.uleb128 0
 3459 002c 3C       		.uleb128 .LEHB7-.LFB1618
 3460 002d BC01     		.uleb128 .LEHE7-.LEHB7
 3461 002f D002     		.uleb128 .L198-.LFB1618
 3462 0031 00       		.uleb128 0
 3463 0032 E002     		.uleb128 .LEHB8-.LFB1618
 3464 0034 04       		.uleb128 .LEHE8-.LEHB8
 3465 0035 00       		.uleb128 0
 3466 0036 00       		.uleb128 0
 3467              	.LLSDACSE1618:
 3468              		.section	".text"
 3469              		.size	_ZN11MusicPlayer17ThreadedLoadMusicEv, .-_ZN11MusicPlayer17ThreadedLoadMusicEv
 3470              		.align 2
 3471              		.globl _ZN11MusicPlayer6ResumeEv
 3472              		.type	_ZN11MusicPlayer6ResumeEv, @function
 3473              	_ZN11MusicPlayer6ResumeEv:
 3474              	.LFB1619:
 3475              		.loc 5 165 0
 3476              		.cfi_startproc
 3477              	.LVL251:
 3478 04ac 7C0802A6 		mflr 0
 3479 04b0 9421FFF0 		stwu 1,-16(1)
 3480              	.LCFI85:
 3481              		.cfi_def_cfa_offset 16
 3482              		.cfi_register 65, 0
 3483 04b4 93E1000C 		stw 31,12(1)
 3484 04b8 7C7F1B78 		mr 31,3
 3485              		.cfi_offset 31, -4
 3486 04bc 90010014 		stw 0,20(1)
 3487 04c0 93C10008 		stw 30,8(1)
 3488              		.loc 5 166 0
 3489 04c4 8BC300D9 		lbz 30,217(3)
 3490              		.cfi_offset 30, -8
 3491              		.cfi_offset 65, 4
 3492 04c8 2F9E0000 		cmpwi 7,30,0
 3493 04cc 40BE0010 		bne+ 7,.L202
 3494              		.loc 5 169 0
 3495 04d0 806300F0 		lwz 3,240(3)
 3496              	.LVL252:
 3497 04d4 48000001 		bl _ZN8GuiSound4PlayEv
 3498              		.loc 5 170 0
 3499 04d8 9BDF00D8 		stb 30,216(31)
 3500              	.L202:
 3501              		.loc 5 171 0
 3502 04dc 80010014 		lwz 0,20(1)
 3503 04e0 83C10008 		lwz 30,8(1)
 3504 04e4 7C0803A6 		mtlr 0
 3505 04e8 83E1000C 		lwz 31,12(1)
 3506              	.LVL253:
 3507 04ec 38210010 		addi 1,1,16
 3508              	.LCFI86:
 3509              		.cfi_def_cfa_offset 0
 3510              		.cfi_restore 31
 3511              		.cfi_restore 30
 3512 04f0 4E800020 		blr
 3513              		.cfi_endproc
 3514              	.LFE1619:
 3515              		.size	_ZN11MusicPlayer6ResumeEv, .-_ZN11MusicPlayer6ResumeEv
 3516              		.align 2
 3517              		.globl _ZN11MusicPlayer4StopEv
 3518              		.type	_ZN11MusicPlayer4StopEv, @function
 3519              	_ZN11MusicPlayer4StopEv:
 3520              	.LFB1620:
 3521              		.loc 5 174 0
 3522              		.cfi_startproc
 3523              	.LVL254:
 3524 04f4 7C0802A6 		mflr 0
 3525 04f8 9421FFF8 		stwu 1,-8(1)
 3526              	.LCFI87:
 3527              		.cfi_def_cfa_offset 8
 3528              		.cfi_register 65, 0
 3529 04fc 9001000C 		stw 0,12(1)
 3530              		.loc 5 175 0
 3531 0500 38000000 		li 0,0
 3532              		.cfi_offset 65, 4
 3533 0504 980300D8 		stb 0,216(3)
 3534              		.loc 5 176 0
 3535 0508 38000001 		li 0,1
 3536 050c 980300D9 		stb 0,217(3)
 3537              		.loc 5 177 0
 3538 0510 806300F0 		lwz 3,240(3)
 3539              	.LVL255:
 3540 0514 48000001 		bl _ZN8GuiSound4StopEv
 3541              		.loc 5 178 0
 3542 0518 8001000C 		lwz 0,12(1)
 3543 051c 38210008 		addi 1,1,8
 3544              	.LCFI88:
 3545              		.cfi_def_cfa_offset 0
 3546 0520 7C0803A6 		mtlr 0
 3547 0524 4E800020 		blr
 3548              		.cfi_endproc
 3549              	.LFE1620:
 3550              		.size	_ZN11MusicPlayer4StopEv, .-_ZN11MusicPlayer4StopEv
 3551              		.align 2
 3552              		.globl _ZN11MusicPlayer4PlayEv
 3553              		.type	_ZN11MusicPlayer4PlayEv, @function
 3554              	_ZN11MusicPlayer4PlayEv:
 3555              	.LFB1621:
 3556              		.loc 5 181 0
 3557              		.cfi_startproc
 3558              	.LVL256:
 3559 0528 7C0802A6 		mflr 0
 3560 052c 9421FFF0 		stwu 1,-16(1)
 3561              	.LCFI89:
 3562              		.cfi_def_cfa_offset 16
 3563              		.cfi_register 65, 0
 3564 0530 93E1000C 		stw 31,12(1)
 3565 0534 7C7F1B78 		mr 31,3
 3566              		.cfi_offset 31, -4
 3567 0538 90010014 		stw 0,20(1)
 3568              		.loc 5 182 0
 3569 053c 808300F8 		lwz 4,248(3)
 3570              	.LVL257:
 3571              	.LBB2934:
 3572              	.LBB2935:
 3573              		.loc 5 187 0
 3574 0540 2F840000 		cmpwi 7,4,0
 3575 0544 419C001C 		blt- 7,.L206
 3576              		.cfi_offset 65, 4
 3577              	.LVL258:
 3578              	.LBB2936:
 3579              	.LBB2937:
 3580              	.LBB2938:
 3581              		.file 10 "d:\\devkitpro\\devkitppc\\bin\\../lib/gcc/powerpc-eabi/4.6.3/../../../../powerpc-eabi/in
 3582              		.loc 10 571 0
 3583 0548 812301E8 		lwz 9,488(3)
 3584 054c 800301E4 		lwz 0,484(3)
 3585 0550 7C004850 		subf 0,0,9
 3586 0554 7C001670 		srawi 0,0,2
 3587              	.LBE2938:
 3588              	.LBE2937:
 3589              	.LBE2936:
 3590              		.loc 5 187 0
 3591 0558 7F840000 		cmpw 7,4,0
 3592 055c 419C001C 		blt- 7,.L207
 3593              	.LVL259:
 3594              	.L206:
 3595              	.LBE2935:
 3596              	.LBE2934:
 3597              		.loc 5 183 0
 3598 0560 80010014 		lwz 0,20(1)
 3599              	.LBB2949:
 3600              	.LBB2945:
 3601              		.loc 5 188 0
 3602 0564 7FE3FB78 		mr 3,31
 3603              	.LVL260:
 3604              	.LBE2945:
 3605              	.LBE2949:
 3606              		.loc 5 183 0
 3607 0568 83E1000C 		lwz 31,12(1)
 3608              	.LVL261:
 3609 056c 7C0803A6 		mtlr 0
 3610 0570 38210010 		addi 1,1,16
 3611              		.cfi_remember_state
 3612              	.LCFI90:
 3613              		.cfi_def_cfa_offset 0
 3614              		.cfi_restore 31
 3615              	.LBB2950:
 3616              	.LBB2946:
 3617              		.loc 5 188 0
 3618 0574 48000000 		b _ZN11MusicPlayer12LoadStandardEv
 3619              	.LVL262:
 3620              	.L207:
 3621              	.LCFI91:
 3622              		.cfi_restore_state
 3623              	.LBB2939:
 3624              	.LBB2940:
 3625              		.loc 5 192 0
 3626 0578 38630100 		addi 3,3,256
 3627              	.LVL263:
 3628 057c 48000001 		bl _ZN8PlayList2atEi
 3629              	.LVL264:
 3630 0580 3CA00000 		lis 5,.LC5@ha
 3631 0584 7C661B78 		mr 6,3
 3632 0588 3C600000 		lis 3,Settings+994@ha
 3633 058c 386303E2 		la 3,Settings+994@l(3)
 3634 0590 388000FA 		li 4,250
 3635 0594 38A5001C 		la 5,.LC5@l(5)
 3636 0598 4CC63182 		crxor 6,6,6
 3637 059c 48000001 		bl snprintf
 3638              	.LBE2940:
 3639              	.LBE2939:
 3640              	.LBE2946:
 3641              	.LBE2950:
 3642              		.loc 5 183 0
 3643 05a0 80010014 		lwz 0,20(1)
 3644              	.LBB2951:
 3645              	.LBB2947:
 3646              	.LBB2943:
 3647              	.LBB2941:
 3648              		.loc 5 194 0
 3649 05a4 7FE3FB78 		mr 3,31
 3650              	.LBE2941:
 3651              	.LBE2943:
 3652              	.LBE2947:
 3653              	.LBE2951:
 3654              		.loc 5 183 0
 3655 05a8 83E1000C 		lwz 31,12(1)
 3656              	.LVL265:
 3657 05ac 7C0803A6 		mtlr 0
 3658 05b0 38210010 		addi 1,1,16
 3659              	.LCFI92:
 3660              		.cfi_def_cfa_offset 0
 3661              		.cfi_restore 31
 3662              	.LBB2952:
 3663              	.LBB2948:
 3664              	.LBB2944:
 3665              	.LBB2942:
 3666              		.loc 5 194 0
 3667 05b4 4BFFFB94 		b _ZN11MusicPlayer4LoadEPKcb.constprop.144
 3668              	.LVL266:
 3669              	.LVL267:
 3670              	.LVL268:
 3671              	.LBE2942:
 3672              	.LBE2944:
 3673              	.LBE2948:
 3674              	.LBE2952:
 3675              		.cfi_endproc
 3676              	.LFE1621:
 3677              		.size	_ZN11MusicPlayer4PlayEv, .-_ZN11MusicPlayer4PlayEv
 3678              		.align 2
 3679              		.globl _ZN11MusicPlayer4PlayEi
 3680              		.type	_ZN11MusicPlayer4PlayEi, @function
 3681              	_ZN11MusicPlayer4PlayEi:
 3682              	.LFB1622:
 3683              		.loc 5 186 0
 3684              		.cfi_startproc
 3685              	.LVL269:
 3686 05b8 7C0802A6 		mflr 0
 3687 05bc 9421FFF0 		stwu 1,-16(1)
 3688              	.LCFI93:
 3689              		.cfi_def_cfa_offset 16
 3690              		.cfi_register 65, 0
 3691 05c0 93E1000C 		stw 31,12(1)
 3692 05c4 7C7F1B78 		mr 31,3
 3693              		.cfi_offset 31, -4
 3694 05c8 90010014 		stw 0,20(1)
 3695              		.loc 5 187 0
 3696 05cc 7C802379 		mr. 0,4
 3697              		.cfi_offset 65, 4
 3698 05d0 4180001C 		blt- 0,.L209
 3699              	.LVL270:
 3700              	.LBB2967:
 3701              	.LBB2968:
 3702              	.LBB2969:
 3703              		.loc 10 571 0 discriminator 2
 3704 05d4 816301E8 		lwz 11,488(3)
 3705 05d8 812301E4 		lwz 9,484(3)
 3706 05dc 7D295850 		subf 9,9,11
 3707 05e0 7D291670 		srawi 9,9,2
 3708              	.LBE2969:
 3709              	.LBE2968:
 3710              	.LBE2967:
 3711              		.loc 5 187 0 discriminator 2
 3712 05e4 7F804800 		cmpw 7,0,9
 3713 05e8 419C001C 		blt- 7,.L210
 3714              	.LVL271:
 3715              	.L209:
 3716              		.loc 5 195 0 discriminator 4
 3717 05ec 80010014 		lwz 0,20(1)
 3718              	.LVL272:
 3719              		.loc 5 188 0 discriminator 4
 3720 05f0 7FE3FB78 		mr 3,31
 3721              	.LVL273:
 3722              		.loc 5 195 0 discriminator 4
 3723 05f4 83E1000C 		lwz 31,12(1)
 3724              	.LVL274:
 3725 05f8 7C0803A6 		mtlr 0
 3726 05fc 38210010 		addi 1,1,16
 3727              		.cfi_remember_state
 3728              	.LCFI94:
 3729              		.cfi_def_cfa_offset 0
 3730              		.cfi_restore 31
 3731              		.loc 5 188 0 discriminator 4
 3732 0600 48000000 		b _ZN11MusicPlayer12LoadStandardEv
 3733              	.LVL275:
 3734              	.L210:
 3735              	.LCFI95:
 3736              		.cfi_restore_state
 3737              	.LBB2970:
 3738              	.LBB2971:
 3739              		.loc 5 190 0
 3740 0604 900300F8 		stw 0,248(3)
 3741              		.loc 5 192 0
 3742 0608 38630100 		addi 3,3,256
 3743              	.LVL276:
 3744 060c 48000001 		bl _ZN8PlayList2atEi
 3745              	.LVL277:
 3746 0610 3CA00000 		lis 5,.LC5@ha
 3747 0614 7C661B78 		mr 6,3
 3748 0618 3C600000 		lis 3,Settings+994@ha
 3749 061c 386303E2 		la 3,Settings+994@l(3)
 3750 0620 388000FA 		li 4,250
 3751 0624 38A5001C 		la 5,.LC5@l(5)
 3752 0628 4CC63182 		crxor 6,6,6
 3753 062c 48000001 		bl snprintf
 3754              	.LBE2971:
 3755              	.LBE2970:
 3756              		.loc 5 195 0
 3757 0630 80010014 		lwz 0,20(1)
 3758              	.LBB2974:
 3759              	.LBB2972:
 3760              		.loc 5 194 0
 3761 0634 7FE3FB78 		mr 3,31
 3762              	.LBE2972:
 3763              	.LBE2974:
 3764              		.loc 5 195 0
 3765 0638 83E1000C 		lwz 31,12(1)
 3766              	.LVL278:
 3767 063c 7C0803A6 		mtlr 0
 3768 0640 38210010 		addi 1,1,16
 3769              	.LCFI96:
 3770              		.cfi_def_cfa_offset 0
 3771              		.cfi_restore 31
 3772              	.LBB2975:
 3773              	.LBB2973:
 3774              		.loc 5 194 0
 3775 0644 4BFFFB04 		b _ZN11MusicPlayer4LoadEPKcb.constprop.144
 3776              	.LVL279:
 3777              	.LVL280:
 3778              	.LBE2973:
 3779              	.LBE2975:
 3780              		.cfi_endproc
 3781              	.LFE1622:
 3782              		.size	_ZN11MusicPlayer4PlayEi, .-_ZN11MusicPlayer4PlayEi
 3783              		.align 2
 3784              		.globl _ZN11MusicPlayer8PlayNextEv
 3785              		.type	_ZN11MusicPlayer8PlayNextEv, @function
 3786              	_ZN11MusicPlayer8PlayNextEv:
 3787              	.LFB1623:
 3788              		.loc 5 198 0
 3789              		.cfi_startproc
 3790              	.LVL281:
 3791 0648 7C0802A6 		mflr 0
 3792 064c 9421FFF0 		stwu 1,-16(1)
 3793              	.LCFI97:
 3794              		.cfi_def_cfa_offset 16
 3795              		.cfi_register 65, 0
 3796 0650 93E1000C 		stw 31,12(1)
 3797 0654 7C7F1B78 		mr 31,3
 3798              		.cfi_offset 31, -4
 3799              	.LVL282:
 3800 0658 90010014 		stw 0,20(1)
 3801              	.LBB2976:
 3802              	.LBB2977:
 3803              	.LBB2978:
 3804              		.loc 10 571 0
 3805 065c 812301E8 		lwz 9,488(3)
 3806 0660 800301E4 		lwz 0,484(3)
 3807              		.cfi_offset 65, 4
 3808 0664 7C004850 		subf 0,0,9
 3809              	.LBE2978:
 3810              	.LBE2977:
 3811              	.LBE2976:
 3812              		.loc 5 199 0
 3813 0668 7C001671 		srawi. 0,0,2
 3814 066c 41820064 		beq- 0,.L214
 3815              	.LVL283:
 3816              		.loc 5 202 0
 3817 0670 808300F8 		lwz 4,248(3)
 3818 0674 38840001 		addi 4,4,1
 3819              		.loc 5 203 0
 3820 0678 7F840000 		cmpw 7,4,0
 3821              		.loc 5 202 0
 3822 067c 908300F8 		stw 4,248(3)
 3823              	.LVL284:
 3824              		.loc 5 203 0
 3825 0680 419C0010 		blt- 7,.L213
 3826              		.loc 5 204 0
 3827 0684 38000000 		li 0,0
 3828 0688 38800000 		li 4,0
 3829 068c 900300F8 		stw 0,248(3)
 3830              	.LVL285:
 3831              	.L213:
 3832              		.loc 5 206 0
 3833 0690 387F0100 		addi 3,31,256
 3834              	.LVL286:
 3835 0694 48000001 		bl _ZN8PlayList2atEi
 3836 0698 3CA00000 		lis 5,.LC5@ha
 3837 069c 7C661B78 		mr 6,3
 3838 06a0 3C600000 		lis 3,Settings+994@ha
 3839 06a4 386303E2 		la 3,Settings+994@l(3)
 3840 06a8 388000FA 		li 4,250
 3841 06ac 38A5001C 		la 5,.LC5@l(5)
 3842 06b0 4CC63182 		crxor 6,6,6
 3843 06b4 48000001 		bl snprintf
 3844              		.loc 5 209 0
 3845 06b8 80010014 		lwz 0,20(1)
 3846              		.loc 5 208 0
 3847 06bc 7FE3FB78 		mr 3,31
 3848              		.loc 5 209 0
 3849 06c0 83E1000C 		lwz 31,12(1)
 3850              	.LVL287:
 3851 06c4 7C0803A6 		mtlr 0
 3852 06c8 38210010 		addi 1,1,16
 3853              		.cfi_remember_state
 3854              	.LCFI98:
 3855              		.cfi_def_cfa_offset 0
 3856              		.cfi_restore 31
 3857              		.loc 5 208 0
 3858 06cc 4BFFFA7C 		b _ZN11MusicPlayer4LoadEPKcb.constprop.144
 3859              	.LVL288:
 3860              	.L214:
 3861              	.LCFI99:
 3862              		.cfi_restore_state
 3863              		.loc 5 209 0
 3864 06d0 80010014 		lwz 0,20(1)
 3865 06d4 83E1000C 		lwz 31,12(1)
 3866 06d8 7C0803A6 		mtlr 0
 3867 06dc 38210010 		addi 1,1,16
 3868              	.LCFI100:
 3869              		.cfi_def_cfa_offset 0
 3870              		.cfi_restore 31
 3871              		.loc 5 200 0
 3872 06e0 48000000 		b _ZN11MusicPlayer12LoadStandardEv
 3873              	.LVL289:
 3874              	.LVL290:
 3875              		.cfi_endproc
 3876              	.LFE1623:
 3877              		.size	_ZN11MusicPlayer8PlayNextEv, .-_ZN11MusicPlayer8PlayNextEv
 3878              		.align 2
 3879              		.globl _ZN11MusicPlayer12PlayPreviousEv
 3880              		.type	_ZN11MusicPlayer12PlayPreviousEv, @function
 3881              	_ZN11MusicPlayer12PlayPreviousEv:
 3882              	.LFB1624:
 3883              		.loc 5 212 0
 3884              		.cfi_startproc
 3885              	.LVL291:
 3886 06e4 7C0802A6 		mflr 0
 3887 06e8 9421FFF0 		stwu 1,-16(1)
 3888              	.LCFI101:
 3889              		.cfi_def_cfa_offset 16
 3890              		.cfi_register 65, 0
 3891 06ec 93E1000C 		stw 31,12(1)
 3892 06f0 7C7F1B78 		mr 31,3
 3893              		.cfi_offset 31, -4
 3894              	.LVL292:
 3895 06f4 90010014 		stw 0,20(1)
 3896              	.LBB2979:
 3897              	.LBB2980:
 3898              	.LBB2981:
 3899              		.loc 10 571 0
 3900 06f8 812301E8 		lwz 9,488(3)
 3901 06fc 800301E4 		lwz 0,484(3)
 3902              		.cfi_offset 65, 4
 3903 0700 7C004850 		subf 0,0,9
 3904              	.LBE2981:
 3905              	.LBE2980:
 3906              	.LBE2979:
 3907              		.loc 5 213 0
 3908 0704 7C091671 		srawi. 9,0,2
 3909 0708 418200A0 		beq- 0,.L218
 3910              	.LVL293:
 3911              		.loc 5 216 0
 3912 070c 808300F8 		lwz 4,248(3)
 3913 0710 3884FFFF 		addi 4,4,-1
 3914              		.loc 5 217 0
 3915 0714 2F840000 		cmpwi 7,4,0
 3916              		.loc 5 216 0
 3917 0718 908300F8 		stw 4,248(3)
 3918              		.loc 5 217 0
 3919 071c 419C0044 		blt- 7,.L219
 3920              		.loc 5 220 0
 3921 0720 387F0100 		addi 3,31,256
 3922              	.LVL294:
 3923 0724 48000001 		bl _ZN8PlayList2atEi
 3924 0728 3CA00000 		lis 5,.LC5@ha
 3925 072c 7C661B78 		mr 6,3
 3926 0730 3C600000 		lis 3,Settings+994@ha
 3927 0734 386303E2 		la 3,Settings+994@l(3)
 3928 0738 388000FA 		li 4,250
 3929 073c 38A5001C 		la 5,.LC5@l(5)
 3930 0740 4CC63182 		crxor 6,6,6
 3931 0744 48000001 		bl snprintf
 3932              		.loc 5 223 0
 3933 0748 80010014 		lwz 0,20(1)
 3934              		.loc 5 222 0
 3935 074c 7FE3FB78 		mr 3,31
 3936              		.loc 5 223 0
 3937 0750 83E1000C 		lwz 31,12(1)
 3938              	.LVL295:
 3939 0754 7C0803A6 		mtlr 0
 3940 0758 38210010 		addi 1,1,16
 3941              		.cfi_remember_state
 3942              	.LCFI102:
 3943              		.cfi_def_cfa_offset 0
 3944              		.cfi_restore 31
 3945              		.loc 5 222 0
 3946 075c 4BFFF9EC 		b _ZN11MusicPlayer4LoadEPKcb.constprop.144
 3947              	.LVL296:
 3948              	.L219:
 3949              	.LCFI103:
 3950              		.cfi_restore_state
 3951              		.loc 5 218 0
 3952 0760 3889FFFF 		addi 4,9,-1
 3953 0764 908300F8 		stw 4,248(3)
 3954              		.loc 5 220 0
 3955 0768 387F0100 		addi 3,31,256
 3956              	.LVL297:
 3957 076c 48000001 		bl _ZN8PlayList2atEi
 3958 0770 3CA00000 		lis 5,.LC5@ha
 3959 0774 7C661B78 		mr 6,3
 3960 0778 3C600000 		lis 3,Settings+994@ha
 3961 077c 386303E2 		la 3,Settings+994@l(3)
 3962 0780 388000FA 		li 4,250
 3963 0784 38A5001C 		la 5,.LC5@l(5)
 3964 0788 4CC63182 		crxor 6,6,6
 3965 078c 48000001 		bl snprintf
 3966              		.loc 5 223 0
 3967 0790 80010014 		lwz 0,20(1)
 3968              		.loc 5 222 0
 3969 0794 7FE3FB78 		mr 3,31
 3970              		.loc 5 223 0
 3971 0798 83E1000C 		lwz 31,12(1)
 3972              	.LVL298:
 3973 079c 7C0803A6 		mtlr 0
 3974 07a0 38210010 		addi 1,1,16
 3975              		.cfi_remember_state
 3976              		.cfi_restore 31
 3977              	.LCFI104:
 3978              		.cfi_def_cfa_offset 0
 3979              		.loc 5 222 0
 3980 07a4 4BFFF9A4 		b _ZN11MusicPlayer4LoadEPKcb.constprop.144
 3981              	.LVL299:
 3982              	.L218:
 3983              	.LCFI105:
 3984              		.cfi_restore_state
 3985              		.loc 5 223 0
 3986 07a8 80010014 		lwz 0,20(1)
 3987 07ac 83E1000C 		lwz 31,12(1)
 3988 07b0 7C0803A6 		mtlr 0
 3989 07b4 38210010 		addi 1,1,16
 3990              	.LCFI106:
 3991              		.cfi_def_cfa_offset 0
 3992              		.cfi_restore 31
 3993              		.loc 5 214 0
 3994 07b8 48000000 		b _ZN11MusicPlayer12LoadStandardEv
 3995              	.LVL300:
 3996              	.LVL301:
 3997              		.cfi_endproc
 3998              	.LFE1624:
 3999              		.size	_ZN11MusicPlayer12PlayPreviousEv, .-_ZN11MusicPlayer12PlayPreviousEv
 4000              		.align 2
 4001              		.globl _ZN11MusicPlayer10PlayRandomEv
 4002              		.type	_ZN11MusicPlayer10PlayRandomEv, @function
 4003              	_ZN11MusicPlayer10PlayRandomEv:
 4004              	.LFB1625:
 4005              		.loc 5 226 0
 4006              		.cfi_startproc
 4007              	.LVL302:
 4008 07bc 7C0802A6 		mflr 0
 4009 07c0 9421FFF0 		stwu 1,-16(1)
 4010              	.LCFI107:
 4011              		.cfi_def_cfa_offset 16
 4012              		.cfi_register 65, 0
 4013 07c4 93E1000C 		stw 31,12(1)
 4014 07c8 7C7F1B78 		mr 31,3
 4015              		.cfi_offset 31, -4
 4016              	.LVL303:
 4017 07cc 90010014 		stw 0,20(1)
 4018              	.LBB2982:
 4019              	.LBB2983:
 4020              	.LBB2984:
 4021              		.loc 10 571 0
 4022 07d0 812301E8 		lwz 9,488(3)
 4023 07d4 800301E4 		lwz 0,484(3)
 4024              		.cfi_offset 65, 4
 4025 07d8 7C004850 		subf 0,0,9
 4026              	.LBE2984:
 4027              	.LBE2983:
 4028              	.LBE2982:
 4029              		.loc 5 227 0
 4030 07dc 5409F0BF 		srwi. 9,0,2
 4031 07e0 41820090 		beq- 0,.L224
 4032              	.LVL304:
 4033              		.loc 5 230 0
 4034 07e4 38600000 		li 3,0
 4035              	.LVL305:
 4036 07e8 48000001 		bl time
 4037 07ec 48000001 		bl srand
 4038              		.loc 5 232 0
 4039 07f0 48000001 		bl rand
 4040              	.LVL306:
 4041              	.LBB2985:
 4042              	.LBB2986:
 4043              	.LBB2987:
 4044              		.loc 10 571 0
 4045 07f4 813F01E8 		lwz 9,488(31)
 4046 07f8 801F01E4 		lwz 0,484(31)
 4047 07fc 7D204850 		subf 9,0,9
 4048 0800 7D291670 		srawi 9,9,2
 4049              	.LBE2987:
 4050              	.LBE2986:
 4051              	.LBE2985:
 4052              		.loc 5 232 0
 4053 0804 7C834BD6 		divw 4,3,9
 4054 0808 7C8449D6 		mullw 4,4,9
 4055 080c 7C841850 		subf 4,4,3
 4056              		.loc 5 235 0
 4057 0810 2F840000 		cmpwi 7,4,0
 4058              		.loc 5 232 0
 4059 0814 909F00F8 		stw 4,248(31)
 4060              		.loc 5 235 0
 4061 0818 419C006C 		blt- 7,.L225
 4062              	.LVL307:
 4063              		.loc 5 237 0
 4064 081c 7F844800 		cmpw 7,4,9
 4065 0820 419C0010 		blt- 7,.L223
 4066              		.loc 5 238 0
 4067 0824 38000000 		li 0,0
 4068 0828 38800000 		li 4,0
 4069 082c 901F00F8 		stw 0,248(31)
 4070              	.L223:
 4071              		.loc 5 240 0
 4072 0830 387F0100 		addi 3,31,256
 4073 0834 48000001 		bl _ZN8PlayList2atEi
 4074 0838 3CA00000 		lis 5,.LC5@ha
 4075 083c 7C661B78 		mr 6,3
 4076 0840 3C600000 		lis 3,Settings+994@ha
 4077 0844 386303E2 		la 3,Settings+994@l(3)
 4078 0848 388000FA 		li 4,250
 4079 084c 38A5001C 		la 5,.LC5@l(5)
 4080 0850 4CC63182 		crxor 6,6,6
 4081 0854 48000001 		bl snprintf
 4082              		.loc 5 243 0
 4083 0858 80010014 		lwz 0,20(1)
 4084              		.loc 5 242 0
 4085 085c 7FE3FB78 		mr 3,31
 4086              		.loc 5 243 0
 4087 0860 83E1000C 		lwz 31,12(1)
 4088              	.LVL308:
 4089 0864 7C0803A6 		mtlr 0
 4090 0868 38210010 		addi 1,1,16
 4091              		.cfi_remember_state
 4092              	.LCFI108:
 4093              		.cfi_def_cfa_offset 0
 4094              		.cfi_restore 31
 4095              		.loc 5 242 0
 4096 086c 4BFFF8DC 		b _ZN11MusicPlayer4LoadEPKcb.constprop.144
 4097              	.LVL309:
 4098              	.L224:
 4099              	.LCFI109:
 4100              		.cfi_restore_state
 4101              		.loc 5 243 0
 4102 0870 80010014 		lwz 0,20(1)
 4103 0874 83E1000C 		lwz 31,12(1)
 4104 0878 7C0803A6 		mtlr 0
 4105 087c 38210010 		addi 1,1,16
 4106              		.cfi_remember_state
 4107              	.LCFI110:
 4108              		.cfi_def_cfa_offset 0
 4109              		.cfi_restore 31
 4110              		.loc 5 228 0
 4111 0880 48000000 		b _ZN11MusicPlayer12LoadStandardEv
 4112              	.LVL310:
 4113              	.L225:
 4114              	.LCFI111:
 4115              		.cfi_restore_state
 4116              		.loc 5 236 0
 4117 0884 3889FFFF 		addi 4,9,-1
 4118              		.loc 5 240 0
 4119 0888 387F0100 		addi 3,31,256
 4120              		.loc 5 236 0
 4121 088c 909F00F8 		stw 4,248(31)
 4122              		.loc 5 240 0
 4123 0890 48000001 		bl _ZN8PlayList2atEi
 4124 0894 3CA00000 		lis 5,.LC5@ha
 4125 0898 7C661B78 		mr 6,3
 4126 089c 3C600000 		lis 3,Settings+994@ha
 4127 08a0 386303E2 		la 3,Settings+994@l(3)
 4128 08a4 388000FA 		li 4,250
 4129 08a8 38A5001C 		la 5,.LC5@l(5)
 4130 08ac 4CC63182 		crxor 6,6,6
 4131 08b0 48000001 		bl snprintf
 4132              		.loc 5 243 0
 4133 08b4 80010014 		lwz 0,20(1)
 4134              		.loc 5 242 0
 4135 08b8 7FE3FB78 		mr 3,31
 4136              		.loc 5 243 0
 4137 08bc 83E1000C 		lwz 31,12(1)
 4138              	.LVL311:
 4139 08c0 7C0803A6 		mtlr 0
 4140 08c4 38210010 		addi 1,1,16
 4141              		.cfi_restore 31
 4142              	.LCFI112:
 4143              		.cfi_def_cfa_offset 0
 4144              		.loc 5 242 0
 4145 08c8 4BFFF880 		b _ZN11MusicPlayer4LoadEPKcb.constprop.144
 4146              	.LVL312:
 4147              		.cfi_endproc
 4148              	.LFE1625:
 4149              		.size	_ZN11MusicPlayer10PlayRandomEv, .-_ZN11MusicPlayer10PlayRandomEv
 4150              		.align 2
 4151              		.globl _ZThn176_N11MusicPlayer13executeThreadEv
 4152              		.type	_ZThn176_N11MusicPlayer13executeThreadEv, @function
 4153              	_ZThn176_N11MusicPlayer13executeThreadEv:
 4154              	.LFB2329:
 4155              		.cfi_startproc
 4156 08cc 3863FF50 		addi 3,3,-176
 4157 08d0 48000004 		b .LTHUNK4
 4158              		.cfi_endproc
 4159              	.LFE2329:
 4160              		.size	_ZThn176_N11MusicPlayer13executeThreadEv, .-_ZThn176_N11MusicPlayer13executeThreadEv
 4161              		.align 2
 4162              		.globl _ZN11MusicPlayer13executeThreadEv
 4163              		.type	_ZN11MusicPlayer13executeThreadEv, @function
 4164              	_ZN11MusicPlayer13executeThreadEv:
 4165              	.LFB1635:
 4166              		.loc 5 461 0
 4167              		.cfi_startproc
 4168              	.LVL313:
 4169 08d4 7C0802A6 		mflr 0
 4170 08d8 9421FFF0 		stwu 1,-16(1)
 4171              	.LCFI113:
 4172              		.cfi_def_cfa_offset 16
 4173              		.cfi_register 65, 0
 4174 08dc 93C10008 		stw 30,8(1)
 4175 08e0 90010014 		stw 0,20(1)
 4176 08e4 93E1000C 		stw 31,12(1)
 4177              		.loc 5 461 0
 4178 08e8 7C7F1B78 		mr 31,3
 4179              		.cfi_offset 31, -4
 4180              		.cfi_offset 65, 4
 4181              		.cfi_offset 30, -8
 4182              	.LVL314:
 4183              	.L238:
 4184              		.loc 5 462 0 discriminator 1
 4185 08ec 881F00DC 		lbz 0,220(31)
 4186 08f0 2F800000 		cmpwi 7,0,0
 4187 08f4 409E0090 		bne- 7,.L240
 4188              	.L235:
 4189              		.loc 5 464 0
 4190 08f8 3C600001 		lis 3,0x1
 4191 08fc 606386A0 		ori 3,3,34464
 4192 0900 48000001 		bl usleep
 4193              		.loc 5 467 0
 4194 0904 881F00DB 		lbz 0,219(31)
 4195 0908 2F800000 		cmpwi 7,0,0
 4196 090c 419E0054 		beq- 7,.L228
 4197              		.loc 5 467 0 is_stmt 0 discriminator 1
 4198 0910 881F00D9 		lbz 0,217(31)
 4199 0914 2F800000 		cmpwi 7,0,0
 4200 0918 409E0048 		bne- 7,.L228
 4201              		.loc 5 467 0 discriminator 2
 4202 091c 881F00D8 		lbz 0,216(31)
 4203 0920 2F800000 		cmpwi 7,0,0
 4204 0924 409E003C 		bne- 7,.L228
 4205              		.loc 5 469 0 is_stmt 1
 4206 0928 881F00F4 		lbz 0,244(31)
 4207 092c 2F800000 		cmpwi 7,0,0
 4208 0930 419E0028 		beq- 7,.L229
 4209              		.loc 5 469 0 is_stmt 0 discriminator 1
 4210 0934 3FC00000 		lis 30,Settings@ha
 4211 0938 3BDE0000 		la 30,Settings@l(30)
 4212 093c 893E03E2 		lbz 9,994(30)
 4213 0940 2F890000 		cmpwi 7,9,0
 4214 0944 419E0064 		beq- 7,.L241
 4215              		.loc 5 474 0 is_stmt 1
 4216 0948 2F800003 		cmpwi 7,0,3
 4217 094c 419E008C 		beq- 7,.L242
 4218              		.loc 5 478 0
 4219 0950 2F800002 		cmpwi 7,0,2
 4220 0954 419E0048 		beq- 7,.L243
 4221              	.L229:
 4222              		.loc 5 483 0
 4223 0958 38000000 		li 0,0
 4224 095c 981F00DB 		stb 0,219(31)
 4225              	.L228:
 4226              	.LVL315:
 4227              	.LBB3008:
 4228              	.LBB3009:
 4229              	.LBB3010:
 4230              		.loc 8 711 0
 4231 0960 813F00E0 		lwz 9,224(31)
 4232              	.LBE3010:
 4233              	.LBE3009:
 4234              	.LBE3008:
 4235              		.loc 5 486 0
 4236 0964 8009FFF4 		lwz 0,-12(9)
 4237 0968 2F800000 		cmpwi 7,0,0
 4238 096c 419EFF80 		beq+ 7,.L238
 4239              		.loc 5 487 0
 4240 0970 7FE3FB78 		mr 3,31
 4241 0974 48000001 		bl _ZN11MusicPlayer17ThreadedLoadMusicEv
 4242              		.loc 5 462 0
 4243 0978 881F00DC 		lbz 0,220(31)
 4244 097c 2F800000 		cmpwi 7,0,0
 4245 0980 419EFF78 		beq+ 7,.L235
 4246              	.LVL316:
 4247              	.L240:
 4248              		.loc 5 490 0
 4249 0984 80010014 		lwz 0,20(1)
 4250 0988 83C10008 		lwz 30,8(1)
 4251 098c 7C0803A6 		mtlr 0
 4252 0990 83E1000C 		lwz 31,12(1)
 4253              	.LVL317:
 4254 0994 38210010 		addi 1,1,16
 4255              		.cfi_remember_state
 4256              	.LCFI114:
 4257              		.cfi_def_cfa_offset 0
 4258              		.cfi_restore 31
 4259              		.cfi_restore 30
 4260 0998 4E800020 		blr
 4261              	.LVL318:
 4262              	.L243:
 4263              	.LCFI115:
 4264              		.cfi_restore_state
 4265              		.loc 5 480 0
 4266 099c 7FE3FB78 		mr 3,31
 4267 09a0 48000001 		bl _ZN11MusicPlayer10PlayRandomEv
 4268 09a4 4BFFFFB4 		b .L229
 4269              	.L241:
 4270              	.LVL319:
 4271              	.LBB3011:
 4272              	.LBB3012:
 4273              		.loc 5 182 0
 4274 09a8 809F00F8 		lwz 4,248(31)
 4275              	.LVL320:
 4276              	.LBB3013:
 4277              	.LBB3014:
 4278              		.loc 5 187 0
 4279 09ac 2F840000 		cmpwi 7,4,0
 4280 09b0 419C001C 		blt- 7,.L231
 4281              	.LVL321:
 4282              	.LBB3015:
 4283              	.LBB3016:
 4284              	.LBB3017:
 4285              		.loc 10 571 0
 4286 09b4 813F01E8 		lwz 9,488(31)
 4287 09b8 801F01E4 		lwz 0,484(31)
 4288 09bc 7C004850 		subf 0,0,9
 4289 09c0 7C001670 		srawi 0,0,2
 4290              	.LBE3017:
 4291              	.LBE3016:
 4292              	.LBE3015:
 4293              		.loc 5 187 0
 4294 09c4 7F840000 		cmpw 7,4,0
 4295 09c8 419C001C 		blt- 7,.L232
 4296              	.LVL322:
 4297              	.L231:
 4298              		.loc 5 188 0
 4299 09cc 7FE3FB78 		mr 3,31
 4300 09d0 48000001 		bl _ZN11MusicPlayer12LoadStandardEv
 4301              	.LVL323:
 4302 09d4 4BFFFF84 		b .L229
 4303              	.LVL324:
 4304              	.L242:
 4305              	.LBE3014:
 4306              	.LBE3013:
 4307              	.LBE3012:
 4308              	.LBE3011:
 4309              		.loc 5 476 0
 4310 09d8 7FE3FB78 		mr 3,31
 4311 09dc 48000001 		bl _ZN11MusicPlayer8PlayNextEv
 4312 09e0 4BFFFF78 		b .L229
 4313              	.LVL325:
 4314              	.L232:
 4315              	.LBB3023:
 4316              	.LBB3022:
 4317              	.LBB3021:
 4318              	.LBB3020:
 4319              	.LBB3018:
 4320              	.LBB3019:
 4321              		.loc 5 192 0
 4322 09e4 387F0100 		addi 3,31,256
 4323 09e8 48000001 		bl _ZN8PlayList2atEi
 4324              	.LVL326:
 4325 09ec 3CA00000 		lis 5,.LC5@ha
 4326 09f0 7C661B78 		mr 6,3
 4327 09f4 388000FA 		li 4,250
 4328 09f8 387E03E2 		addi 3,30,994
 4329 09fc 38A5001C 		la 5,.LC5@l(5)
 4330 0a00 4CC63182 		crxor 6,6,6
 4331 0a04 48000001 		bl snprintf
 4332              		.loc 5 194 0
 4333 0a08 7FE3FB78 		mr 3,31
 4334 0a0c 4BFFF73D 		bl _ZN11MusicPlayer4LoadEPKcb.constprop.144
 4335 0a10 4BFFFF48 		b .L229
 4336              	.LBE3019:
 4337              	.LBE3018:
 4338              	.LBE3020:
 4339              	.LBE3021:
 4340              	.LBE3022:
 4341              	.LBE3023:
 4342              		.cfi_endproc
 4343              	.LFE1635:
 4344              		.size	_ZN11MusicPlayer13executeThreadEv, .-_ZN11MusicPlayer13executeThreadEv
 4345              		.align 2
 4346              		.globl _ZN11MusicPlayer4HideEv
 4347              		.type	_ZN11MusicPlayer4HideEv, @function
 4348              	_ZN11MusicPlayer4HideEv:
 4349              	.LFB1627:
 4350              		.loc 5 256 0
 4351              		.cfi_startproc
 4352              		.cfi_personality 0,__gxx_personality_v0
 4353              		.cfi_lsda 0,.LLSDA1627
 4354              	.LVL327:
 4355 0a14 7C0802A6 		mflr 0
 4356 0a18 9421FFE8 		stwu 1,-24(1)
 4357              	.LCFI116:
 4358              		.cfi_def_cfa_offset 24
 4359              		.cfi_register 65, 0
 4360              		.loc 5 257 0
 4361 0a1c 3D200000 		lis 9,_ZN11Application15exitApplicationE@ha
 4362              		.loc 5 256 0
 4363 0a20 93E10014 		stw 31,20(1)
 4364 0a24 7C7F1B78 		mr 31,3
 4365              		.cfi_offset 31, -4
 4366 0a28 9001001C 		stw 0,28(1)
 4367              		.loc 5 257 0
 4368 0a2c 88090000 		lbz 0,_ZN11Application15exitApplicationE@l(9)
 4369              		.cfi_offset 65, 4
 4370              		.loc 5 256 0
 4371 0a30 93810008 		stw 28,8(1)
 4372              		.loc 5 257 0
 4373 0a34 2F800000 		cmpwi 7,0,0
 4374              		.loc 5 256 0
 4375 0a38 93A1000C 		stw 29,12(1)
 4376 0a3c 93C10010 		stw 30,16(1)
 4377              		.loc 5 257 0
 4378 0a40 409E00BC 		bne- 7,.L245
 4379              		.cfi_offset 30, -8
 4380              		.cfi_offset 29, -12
 4381              		.cfi_offset 28, -16
 4382              		.loc 5 259 0
 4383 0a44 880300DC 		lbz 0,220(3)
 4384 0a48 3FA00000 		lis 29,_ZN11Application8instanceE@ha
 4385 0a4c 2F800000 		cmpwi 7,0,0
 4386 0a50 409E0084 		bne- 7,.L246
 4387              		.loc 5 259 0 is_stmt 0 discriminator 1
 4388 0a54 80030060 		lwz 0,96(3)
 4389 0a58 2F800000 		cmpwi 7,0,0
 4390 0a5c 419E0078 		beq- 7,.L246
 4391              		.loc 5 261 0 is_stmt 1
 4392 0a60 81230000 		lwz 9,0(3)
 4393 0a64 38800024 		li 4,36
 4394 0a68 38A00028 		li 5,40
 4395 0a6c 38C00000 		li 6,0
 4396 0a70 80090088 		lwz 0,136(9)
 4397 0a74 7C0903A6 		mtctr 0
 4398              	.LEHB9:
 4399 0a78 4E800421 		bctrl
 4400              	.LVL328:
 4401              		.loc 5 262 0
 4402 0a7c 48000018 		b .L247
 4403              	.L248:
 4404              		.loc 5 263 0
 4405 0a80 813E0000 		lwz 9,0(30)
 4406 0a84 7FC3F378 		mr 3,30
 4407 0a88 800900D8 		lwz 0,216(9)
 4408 0a8c 7C0903A6 		mtctr 0
 4409 0a90 4E800421 		bctrl
 4410              	.L247:
 4411              		.loc 5 262 0 discriminator 1
 4412 0a94 813F0000 		lwz 9,0(31)
 4413 0a98 7FE3FB78 		mr 3,31
 4414 0a9c 80090098 		lwz 0,152(9)
 4415 0aa0 7C0903A6 		mtctr 0
 4416 0aa4 4E800421 		bctrl
 4417 0aa8 2F830000 		cmpwi 7,3,0
 4418 0aac 409D0028 		ble- 7,.L246
 4419              	.LBB3056:
 4420              	.LBB3057:
 4421              		.file 11 "d:/Projects/SaveGameManager/savegame-manager-gx/trunk/source/SoundOperations/../Controls
 4422              		.loc 11 27 0
 4423 0ab0 83DD0000 		lwz 30,_ZN11Application8instanceE@l(29)
 4424 0ab4 2F9E0000 		cmpwi 7,30,0
 4425 0ab8 409EFFC8 		bne+ 7,.L248
 4426 0abc 38600278 		li 3,632
 4427 0ac0 48000001 		bl _Znwj
 4428              	.LEHE9:
 4429 0ac4 7C7E1B78 		mr 30,3
 4430              	.LEHB10:
 4431 0ac8 48000001 		bl _ZN11ApplicationC1Ev
 4432              	.LEHE10:
 4433 0acc 93DD0000 		stw 30,_ZN11Application8instanceE@l(29)
 4434 0ad0 4BFFFFB0 		b .L248
 4435              	.L246:
 4436              	.LBE3057:
 4437              	.LBE3056:
 4438              	.LBB3058:
 4439              	.LBB3059:
 4440 0ad4 83DD0000 		lwz 30,_ZN11Application8instanceE@l(29)
 4441 0ad8 2F9E0000 		cmpwi 7,30,0
 4442 0adc 419E0288 		beq- 7,.L274
 4443              	.L251:
 4444              	.LVL329:
 4445              	.LBE3059:
 4446              	.LBE3058:
 4447              	.LBB3062:
 4448              		.loc 5 502 0
 4449 0ae0 813E025C 		lwz 9,604(30)
 4450              	.LBB3063:
 4451              		.loc 11 69 0
 4452 0ae4 3BA00000 		li 29,0
 4453              	.LBE3063:
 4454              		.loc 5 502 0
 4455 0ae8 817E0260 		lwz 11,608(30)
 4456              	.LBB3097:
 4457              		.loc 11 69 0
 4458 0aec 7D204B78 		mr 0,9
 4459              	.LBB3064:
 4460              	.LBB3065:
 4461              		.loc 10 571 0
 4462 0af0 7D495850 		subf 10,9,11
 4463              	.LBE3065:
 4464              	.LBE3064:
 4465              		.loc 11 69 0
 4466 0af4 5548F0BF 		srwi. 8,10,2
 4467 0af8 40A201EC 		bne+ 0,.L272
 4468              	.LVL330:
 4469              	.L245:
 4470              	.LBE3097:
 4471              	.LBE3062:
 4472              		.loc 5 269 0
 4473 0afc 7FE3FB78 		mr 3,31
 4474 0b00 38800000 		li 4,0
 4475              	.LEHB11:
 4476 0b04 48000001 		bl _ZN8GuiFrame13DimBackgroundEb
 4477              		.loc 5 270 0
 4478 0b08 813F0000 		lwz 9,0(31)
 4479 0b0c 38800000 		li 4,0
 4480 0b10 7FE3FB78 		mr 3,31
 4481 0b14 80090030 		lwz 0,48(9)
 4482 0b18 7C0903A6 		mtctr 0
 4483 0b1c 4E800421 		bctrl
 4484              		.loc 5 272 0
 4485 0b20 7FE3FB78 		mr 3,31
 4486 0b24 48000001 		bl _ZN8GuiFrame9RemoveAllEv
 4487              		.loc 5 274 0
 4488 0b28 807F0274 		lwz 3,628(31)
 4489 0b2c 2F830000 		cmpwi 7,3,0
 4490 0b30 419E0014 		beq- 7,.L256
 4491              		.loc 5 275 0 discriminator 1
 4492 0b34 81230000 		lwz 9,0(3)
 4493 0b38 80090004 		lwz 0,4(9)
 4494 0b3c 7C0903A6 		mtctr 0
 4495 0b40 4E800421 		bctrl
 4496              	.L256:
 4497              		.loc 5 276 0
 4498 0b44 807F0278 		lwz 3,632(31)
 4499 0b48 2F830000 		cmpwi 7,3,0
 4500 0b4c 419E0014 		beq- 7,.L257
 4501              		.loc 5 277 0 discriminator 1
 4502 0b50 81230000 		lwz 9,0(3)
 4503 0b54 80090004 		lwz 0,4(9)
 4504 0b58 7C0903A6 		mtctr 0
 4505 0b5c 4E800421 		bctrl
 4506              	.L257:
 4507              		.loc 5 279 0
 4508 0b60 807F0234 		lwz 3,564(31)
 4509 0b64 48000001 		bl _ZN9Resources6RemoveEP8GuiSound
 4510              		.loc 5 280 0
 4511 0b68 807F0238 		lwz 3,568(31)
 4512 0b6c 48000001 		bl _ZN9Resources6RemoveEP12GuiImageData
 4513              		.loc 5 281 0
 4514 0b70 807F023C 		lwz 3,572(31)
 4515 0b74 48000001 		bl _ZN9Resources6RemoveEP12GuiImageData
 4516              		.loc 5 282 0
 4517 0b78 807F0240 		lwz 3,576(31)
 4518 0b7c 48000001 		bl _ZN9Resources6RemoveEP12GuiImageData
 4519              		.loc 5 283 0
 4520 0b80 807F0244 		lwz 3,580(31)
 4521 0b84 48000001 		bl _ZN9Resources6RemoveEP12GuiImageData
 4522              		.loc 5 284 0
 4523 0b88 807F0248 		lwz 3,584(31)
 4524 0b8c 48000001 		bl _ZN9Resources6RemoveEP12GuiImageData
 4525              		.loc 5 285 0
 4526 0b90 807F024C 		lwz 3,588(31)
 4527 0b94 48000001 		bl _ZN9Resources6RemoveEP12GuiImageData
 4528              		.loc 5 287 0
 4529 0b98 807F0258 		lwz 3,600(31)
 4530 0b9c 2F830000 		cmpwi 7,3,0
 4531 0ba0 419E0014 		beq- 7,.L258
 4532              		.loc 5 288 0 discriminator 1
 4533 0ba4 81230000 		lwz 9,0(3)
 4534 0ba8 80090004 		lwz 0,4(9)
 4535 0bac 7C0903A6 		mtctr 0
 4536 0bb0 4E800421 		bctrl
 4537              	.L258:
 4538              		.loc 5 289 0
 4539 0bb4 807F025C 		lwz 3,604(31)
 4540 0bb8 2F830000 		cmpwi 7,3,0
 4541 0bbc 419E0014 		beq- 7,.L259
 4542              		.loc 5 290 0 discriminator 1
 4543 0bc0 81230000 		lwz 9,0(3)
 4544 0bc4 80090004 		lwz 0,4(9)
 4545 0bc8 7C0903A6 		mtctr 0
 4546 0bcc 4E800421 		bctrl
 4547              	.L259:
 4548              		.loc 5 291 0
 4549 0bd0 807F0260 		lwz 3,608(31)
 4550 0bd4 2F830000 		cmpwi 7,3,0
 4551 0bd8 419E0014 		beq- 7,.L260
 4552              		.loc 5 292 0 discriminator 1
 4553 0bdc 81230000 		lwz 9,0(3)
 4554 0be0 80090004 		lwz 0,4(9)
 4555 0be4 7C0903A6 		mtctr 0
 4556 0be8 4E800421 		bctrl
 4557              	.L260:
 4558              		.loc 5 293 0
 4559 0bec 807F0264 		lwz 3,612(31)
 4560 0bf0 2F830000 		cmpwi 7,3,0
 4561 0bf4 419E0014 		beq- 7,.L261
 4562              		.loc 5 294 0 discriminator 1
 4563 0bf8 81230000 		lwz 9,0(3)
 4564 0bfc 80090004 		lwz 0,4(9)
 4565 0c00 7C0903A6 		mtctr 0
 4566 0c04 4E800421 		bctrl
 4567              	.L261:
 4568              		.loc 5 295 0
 4569 0c08 807F0268 		lwz 3,616(31)
 4570 0c0c 2F830000 		cmpwi 7,3,0
 4571 0c10 419E0014 		beq- 7,.L262
 4572              		.loc 5 296 0 discriminator 1
 4573 0c14 81230000 		lwz 9,0(3)
 4574 0c18 80090004 		lwz 0,4(9)
 4575 0c1c 7C0903A6 		mtctr 0
 4576 0c20 4E800421 		bctrl
 4577              	.L262:
 4578              		.loc 5 298 0
 4579 0c24 807F0250 		lwz 3,592(31)
 4580 0c28 2F830000 		cmpwi 7,3,0
 4581 0c2c 419E0014 		beq- 7,.L263
 4582              		.loc 5 299 0 discriminator 1
 4583 0c30 81230000 		lwz 9,0(3)
 4584 0c34 80090004 		lwz 0,4(9)
 4585 0c38 7C0903A6 		mtctr 0
 4586 0c3c 4E800421 		bctrl
 4587              	.L263:
 4588              		.loc 5 300 0
 4589 0c40 807F0254 		lwz 3,596(31)
 4590 0c44 2F830000 		cmpwi 7,3,0
 4591 0c48 419E0014 		beq- 7,.L264
 4592              		.loc 5 301 0 discriminator 1
 4593 0c4c 81230000 		lwz 9,0(3)
 4594 0c50 80090004 		lwz 0,4(9)
 4595 0c54 7C0903A6 		mtctr 0
 4596 0c58 4E800421 		bctrl
 4597              	.L264:
 4598              		.loc 5 303 0
 4599 0c5c 807F0270 		lwz 3,624(31)
 4600 0c60 2F830000 		cmpwi 7,3,0
 4601 0c64 419E0014 		beq- 7,.L265
 4602              		.loc 5 304 0 discriminator 1
 4603 0c68 81230000 		lwz 9,0(3)
 4604 0c6c 80090004 		lwz 0,4(9)
 4605 0c70 7C0903A6 		mtctr 0
 4606 0c74 4E800421 		bctrl
 4607              	.L265:
 4608              		.loc 5 306 0
 4609 0c78 38000000 		li 0,0
 4610              		.loc 5 328 0
 4611 0c7c 83810008 		lwz 28,8(1)
 4612              		.loc 5 306 0
 4613 0c80 901F0234 		stw 0,564(31)
 4614              		.loc 5 308 0
 4615 0c84 901F0238 		stw 0,568(31)
 4616              		.loc 5 309 0
 4617 0c88 901F023C 		stw 0,572(31)
 4618              		.loc 5 310 0
 4619 0c8c 901F0240 		stw 0,576(31)
 4620              		.loc 5 311 0
 4621 0c90 901F0244 		stw 0,580(31)
 4622              		.loc 5 312 0
 4623 0c94 901F0248 		stw 0,584(31)
 4624              		.loc 5 313 0
 4625 0c98 901F024C 		stw 0,588(31)
 4626              		.loc 5 315 0
 4627 0c9c 901F0274 		stw 0,628(31)
 4628              		.loc 5 316 0
 4629 0ca0 901F0278 		stw 0,632(31)
 4630              		.loc 5 318 0
 4631 0ca4 901F0258 		stw 0,600(31)
 4632              		.loc 5 319 0
 4633 0ca8 901F025C 		stw 0,604(31)
 4634              		.loc 5 320 0
 4635 0cac 901F0260 		stw 0,608(31)
 4636              		.loc 5 321 0
 4637 0cb0 901F0264 		stw 0,612(31)
 4638              		.loc 5 322 0
 4639 0cb4 901F0268 		stw 0,616(31)
 4640              		.loc 5 324 0
 4641 0cb8 901F0250 		stw 0,592(31)
 4642              		.loc 5 325 0
 4643 0cbc 901F0254 		stw 0,596(31)
 4644              		.loc 5 327 0
 4645 0cc0 901F0270 		stw 0,624(31)
 4646              		.loc 5 328 0
 4647 0cc4 8001001C 		lwz 0,28(1)
 4648 0cc8 83A1000C 		lwz 29,12(1)
 4649 0ccc 7C0803A6 		mtlr 0
 4650 0cd0 83C10010 		lwz 30,16(1)
 4651 0cd4 83E10014 		lwz 31,20(1)
 4652              	.LVL331:
 4653 0cd8 38210018 		addi 1,1,24
 4654              		.cfi_remember_state
 4655              	.LCFI117:
 4656              		.cfi_def_cfa_offset 0
 4657              		.cfi_restore 31
 4658              		.cfi_restore 30
 4659              		.cfi_restore 29
 4660              		.cfi_restore 28
 4661 0cdc 4E800020 		blr
 4662              	.LVL332:
 4663              	.L267:
 4664              	.LCFI118:
 4665              		.cfi_restore_state
 4666              	.LBB3100:
 4667              	.LBB3098:
 4668              		.loc 5 502 0
 4669 0ce0 7C090378 		mr 9,0
 4670              	.LVL333:
 4671              	.L272:
 4672              	.LBE3098:
 4673              	.LBE3100:
 4674              	.LBB3101:
 4675              	.LBB3060:
 4676              		.loc 5 255 0
 4677 0ce4 57BC103A 		slwi 28,29,2
 4678              	.LBE3060:
 4679              	.LBE3101:
 4680              	.LBB3102:
 4681              	.LBB3099:
 4682              		.loc 11 70 0
 4683 0ce8 7D29E02E 		lwzx 9,9,28
 4684 0cec 7F9F4800 		cmpw 7,31,9
 4685 0cf0 419E001C 		beq- 7,.L275
 4686              	.L254:
 4687              	.LBB3068:
 4688              	.LBB3066:
 4689              		.loc 10 571 0
 4690 0cf4 7D205850 		subf 9,0,11
 4691              	.LBE3066:
 4692              	.LBE3068:
 4693              		.loc 11 69 0
 4694 0cf8 3BBD0001 		addi 29,29,1
 4695              	.LVL334:
 4696              	.LBB3069:
 4697              	.LBB3067:
 4698              		.loc 10 571 0
 4699 0cfc 7D291670 		srawi 9,9,2
 4700              	.LBE3067:
 4701              	.LBE3069:
 4702              		.loc 11 69 0
 4703 0d00 7F9D4840 		cmplw 7,29,9
 4704 0d04 419CFFDC 		blt+ 7,.L267
 4705 0d08 4BFFFDF4 		b .L245
 4706              	.LVL335:
 4707              	.L275:
 4708              		.loc 11 71 0
 4709 0d0c 807E0274 		lwz 3,628(30)
 4710 0d10 48000001 		bl LWP_MutexLock
 4711              	.LVL336:
 4712              	.LBB3070:
 4713              	.LBB3071:
 4714              		.file 12 "d:\\devkitpro\\devkitppc\\bin\\../lib/gcc/powerpc-eabi/4.6.3/../../../../powerpc-eabi/in
 4715              		.loc 12 773 0
 4716 0d14 807E025C 		lwz 3,604(30)
 4717              	.LBE3071:
 4718              	.LBE3070:
 4719              	.LBB3073:
 4720              	.LBB3074:
 4721              	.LBB3075:
 4722              		.loc 5 502 0
 4723 0d18 813E0260 		lwz 9,608(30)
 4724              	.LBE3075:
 4725              	.LBE3074:
 4726              	.LBE3073:
 4727              	.LBB3093:
 4728              	.LBB3072:
 4729              		.loc 12 773 0
 4730 0d1c 7C63E214 		add 3,3,28
 4731              	.LVL337:
 4732              	.LBE3072:
 4733              	.LBE3093:
 4734              	.LBB3094:
 4735              	.LBB3090:
 4736              	.LBB3076:
 4737              	.LBB3077:
 4738 0d20 38830004 		addi 4,3,4
 4739              	.LVL338:
 4740              	.LBE3077:
 4741              	.LBE3076:
 4742              		.file 13 "d:\\devkitpro\\devkitppc\\bin\\../lib/gcc/powerpc-eabi/4.6.3/../../../../powerpc-eabi/in
 4743              		.loc 13 138 0
 4744 0d24 7F844800 		cmpw 7,4,9
 4745 0d28 419E0010 		beq- 7,.L255
 4746              	.LVL339:
 4747              	.LBB3078:
 4748              	.LBB3079:
 4749              	.LBB3080:
 4750              	.LBB3081:
 4751              	.LBB3082:
 4752              	.LBB3083:
 4753              		.file 14 "d:\\devkitpro\\devkitppc\\bin\\../lib/gcc/powerpc-eabi/4.6.3/../../../../powerpc-eabi/in
 4754              		.loc 14 364 0
 4755 0d2c 7CA44850 		subf 5,4,9
 4756              	.LVL340:
 4757              		.loc 14 365 0
 4758 0d30 7CA51671 		srawi. 5,5,2
 4759              	.LVL341:
 4760 0d34 40820020 		bne- 0,.L276
 4761              	.LVL342:
 4762              	.L255:
 4763              	.LBE3083:
 4764              	.LBE3082:
 4765              	.LBE3081:
 4766              	.LBE3080:
 4767              	.LBE3079:
 4768              	.LBE3078:
 4769              		.loc 13 140 0
 4770 0d38 3929FFFC 		addi 9,9,-4
 4771              	.LBE3090:
 4772              	.LBE3094:
 4773              		.loc 11 73 0
 4774 0d3c 807E0274 		lwz 3,628(30)
 4775              	.LBB3095:
 4776              	.LBB3091:
 4777              		.loc 13 140 0
 4778 0d40 913E0260 		stw 9,608(30)
 4779              	.LBE3091:
 4780              	.LBE3095:
 4781              		.loc 11 73 0
 4782 0d44 48000001 		bl LWP_MutexUnlock
 4783 0d48 801E025C 		lwz 0,604(30)
 4784 0d4c 817E0260 		lwz 11,608(30)
 4785 0d50 4BFFFFA4 		b .L254
 4786              	.LVL343:
 4787              	.L276:
 4788              	.LBB3096:
 4789              	.LBB3092:
 4790              	.LBB3089:
 4791              	.LBB3088:
 4792              	.LBB3087:
 4793              	.LBB3086:
 4794              	.LBB3085:
 4795              	.LBB3084:
 4796              		.loc 14 366 0
 4797 0d54 54A5103A 		slwi 5,5,2
 4798              	.LVL344:
 4799 0d58 48000001 		bl memmove
 4800              	.LVL345:
 4801 0d5c 813E0260 		lwz 9,608(30)
 4802 0d60 4BFFFFD8 		b .L255
 4803              	.LVL346:
 4804              	.L274:
 4805              	.LBE3084:
 4806              	.LBE3085:
 4807              	.LBE3086:
 4808              	.LBE3087:
 4809              	.LBE3088:
 4810              	.LBE3089:
 4811              	.LBE3092:
 4812              	.LBE3096:
 4813              	.LBE3099:
 4814              	.LBE3102:
 4815              	.LBB3103:
 4816              	.LBB3061:
 4817              		.loc 11 27 0
 4818 0d64 38600278 		li 3,632
 4819 0d68 48000001 		bl _Znwj
 4820              	.LEHE11:
 4821 0d6c 7C7E1B78 		mr 30,3
 4822              	.LEHB12:
 4823 0d70 48000001 		bl _ZN11ApplicationC1Ev
 4824              	.LEHE12:
 4825 0d74 93DD0000 		stw 30,_ZN11Application8instanceE@l(29)
 4826 0d78 4BFFFD68 		b .L251
 4827              	.L268:
 4828              	.L273:
 4829 0d7c 7C7F1B78 		mr 31,3
 4830              	.LVL347:
 4831 0d80 7FC3F378 		mr 3,30
 4832 0d84 48000001 		bl _ZdlPv
 4833 0d88 7FE3FB78 		mr 3,31
 4834              	.LEHB13:
 4835 0d8c 48000001 		bl _Unwind_Resume
 4836              	.LEHE13:
 4837              	.LVL348:
 4838              	.L269:
 4839 0d90 4BFFFFEC 		b .L273
 4840              	.LBE3061:
 4841              	.LBE3103:
 4842              		.cfi_endproc
 4843              	.LFE1627:
 4844              		.section	.gcc_except_table
 4845              	.LLSDA1627:
 4846 0037 FF       		.byte	0xff
 4847 0038 FF       		.byte	0xff
 4848 0039 01       		.byte	0x1
 4849 003a 1B       		.uleb128 .LLSDACSE1627-.LLSDACSB1627
 4850              	.LLSDACSB1627:
 4851 003b 64       		.uleb128 .LEHB9-.LFB1627
 4852 003c 4C       		.uleb128 .LEHE9-.LEHB9
 4853 003d 00       		.uleb128 0
 4854 003e 00       		.uleb128 0
 4855 003f B401     		.uleb128 .LEHB10-.LFB1627
 4856 0041 04       		.uleb128 .LEHE10-.LEHB10
 4857 0042 E806     		.uleb128 .L268-.LFB1627
 4858 0044 00       		.uleb128 0
 4859 0045 F001     		.uleb128 .LEHB11-.LFB1627
 4860 0047 E804     		.uleb128 .LEHE11-.LEHB11
 4861 0049 00       		.uleb128 0
 4862 004a 00       		.uleb128 0
 4863 004b DC06     		.uleb128 .LEHB12-.LFB1627
 4864 004d 04       		.uleb128 .LEHE12-.LEHB12
 4865 004e FC06     		.uleb128 .L269-.LFB1627
 4866 0050 00       		.uleb128 0
 4867 0051 F806     		.uleb128 .LEHB13-.LFB1627
 4868 0053 04       		.uleb128 .LEHE13-.LEHB13
 4869 0054 00       		.uleb128 0
 4870 0055 00       		.uleb128 0
 4871              	.LLSDACSE1627:
 4872              		.section	".text"
 4873              		.size	_ZN11MusicPlayer4HideEv, .-_ZN11MusicPlayer4HideEv
 4874              		.align 2
 4875              		.globl _ZN11MusicPlayer13OnButtonClickEP9GuiButtoniRK6_POINT
 4876              		.type	_ZN11MusicPlayer13OnButtonClickEP9GuiButtoniRK6_POINT, @function
 4877              	_ZN11MusicPlayer13OnButtonClickEP9GuiButtoniRK6_POINT:
 4878              	.LFB1632:
 4879              		.loc 5 331 0
 4880              		.cfi_startproc
 4881              	.LVL349:
 4882 0d94 7C0802A6 		mflr 0
 4883 0d98 9421FFF0 		stwu 1,-16(1)
 4884              	.LCFI119:
 4885              		.cfi_def_cfa_offset 16
 4886              		.cfi_register 65, 0
 4887 0d9c 93E1000C 		stw 31,12(1)
 4888 0da0 7C7F1B78 		mr 31,3
 4889              		.cfi_offset 31, -4
 4890 0da4 90010014 		stw 0,20(1)
 4891              		.loc 5 332 0
 4892 0da8 80030258 		lwz 0,600(3)
 4893              		.cfi_offset 65, 4
 4894 0dac 7F802000 		cmpw 7,0,4
 4895 0db0 419E0074 		beq- 7,.L285
 4896              		.loc 5 337 0
 4897 0db4 8003025C 		lwz 0,604(3)
 4898 0db8 7F802000 		cmpw 7,0,4
 4899 0dbc 419E0078 		beq- 7,.L286
 4900              		.loc 5 343 0
 4901 0dc0 80030260 		lwz 0,608(3)
 4902 0dc4 7F802000 		cmpw 7,0,4
 4903 0dc8 419E00C0 		beq- 7,.L287
 4904              		.loc 5 349 0
 4905 0dcc 80030268 		lwz 0,616(3)
 4906 0dd0 7F802000 		cmpw 7,0,4
 4907 0dd4 419E00E4 		beq- 7,.L288
 4908              		.loc 5 355 0
 4909 0dd8 80030264 		lwz 0,612(3)
 4910 0ddc 7F802000 		cmpw 7,0,4
 4911 0de0 419E0018 		beq- 7,.L289
 4912              	.LVL350:
 4913              	.L277:
 4914              		.loc 5 361 0
 4915 0de4 80010014 		lwz 0,20(1)
 4916 0de8 83E1000C 		lwz 31,12(1)
 4917              	.LVL351:
 4918 0dec 7C0803A6 		mtlr 0
 4919 0df0 38210010 		addi 1,1,16
 4920              		.cfi_remember_state
 4921              	.LCFI120:
 4922              		.cfi_def_cfa_offset 0
 4923              		.cfi_restore 31
 4924 0df4 4E800020 		blr
 4925              	.LVL352:
 4926              	.L289:
 4927              	.LCFI121:
 4928              		.cfi_restore_state
 4929              		.loc 5 357 0
 4930 0df8 80630254 		lwz 3,596(3)
 4931              	.LVL353:
 4932 0dfc 809F024C 		lwz 4,588(31)
 4933              	.LVL354:
 4934 0e00 48000001 		bl _ZN8GuiImage8SetImageEP12GuiImageData
 4935              	.LVL355:
 4936              		.loc 5 358 0
 4937 0e04 3800000C 		li 0,12
 4938 0e08 901F00FC 		stw 0,252(31)
 4939              		.loc 5 359 0
 4940 0e0c 7FE3FB78 		mr 3,31
 4941              		.loc 5 361 0
 4942 0e10 80010014 		lwz 0,20(1)
 4943 0e14 83E1000C 		lwz 31,12(1)
 4944              	.LVL356:
 4945 0e18 7C0803A6 		mtlr 0
 4946 0e1c 38210010 		addi 1,1,16
 4947              		.cfi_remember_state
 4948              	.LCFI122:
 4949              		.cfi_def_cfa_offset 0
 4950              		.cfi_restore 31
 4951              		.loc 5 359 0
 4952 0e20 48000000 		b _ZN11MusicPlayer8PlayNextEv
 4953              	.LVL357:
 4954              	.L285:
 4955              	.LCFI123:
 4956              		.cfi_restore_state
 4957              		.loc 5 334 0
 4958 0e24 48000001 		bl _ZN11MusicPlayer4HideEv
 4959              	.LVL358:
 4960              		.loc 5 335 0
 4961 0e28 387F0100 		addi 3,31,256
 4962 0e2c 48000001 		bl _ZN8PlayList4HideEv
 4963 0e30 4BFFFFB4 		b .L277
 4964              	.LVL359:
 4965              	.L286:
 4966              		.loc 5 339 0
 4967 0e34 809F0240 		lwz 4,576(31)
 4968              	.LVL360:
 4969 0e38 80630254 		lwz 3,596(3)
 4970 0e3c 48000001 		bl _ZN8GuiImage8SetImageEP12GuiImageData
 4971              	.LVL361:
 4972              	.LBB3120:
 4973              	.LBB3121:
 4974              		.file 15 "d:/Projects/SaveGameManager/savegame-manager-gx/trunk/source/SoundOperations/PlayList.hp
 4975              		.loc 15 50 0
 4976 0e40 801F01DC 		lwz 0,476(31)
 4977 0e44 813F01D8 		lwz 9,472(31)
 4978              	.LVL362:
 4979              	.LBE3121:
 4980              	.LBE3120:
 4981              	.LBB3122:
 4982              	.LBB3123:
 4983              		.loc 5 187 0
 4984 0e48 7C890215 		add. 4,9,0
 4985              	.LBE3123:
 4986              	.LBE3122:
 4987              		.loc 5 340 0
 4988 0e4c 3800000C 		li 0,12
 4989 0e50 901F00FC 		stw 0,252(31)
 4990              	.LBB3139:
 4991              	.LBB3133:
 4992              		.loc 5 187 0
 4993 0e54 4180001C 		blt- 0,.L281
 4994              	.LVL363:
 4995              	.LBB3124:
 4996              	.LBB3125:
 4997              	.LBB3126:
 4998              		.loc 10 571 0
 4999 0e58 813F01E8 		lwz 9,488(31)
 5000 0e5c 801F01E4 		lwz 0,484(31)
 5001 0e60 7C004850 		subf 0,0,9
 5002 0e64 7C001670 		srawi 0,0,2
 5003              	.LBE3126:
 5004              	.LBE3125:
 5005              	.LBE3124:
 5006              		.loc 5 187 0
 5007 0e68 7F840000 		cmpw 7,4,0
 5008 0e6c 419C0078 		blt- 7,.L282
 5009              	.LVL364:
 5010              	.L281:
 5011              	.LBE3133:
 5012              	.LBE3139:
 5013              		.loc 5 361 0
 5014 0e70 80010014 		lwz 0,20(1)
 5015              	.LBB3140:
 5016              	.LBB3134:
 5017              		.loc 5 188 0
 5018 0e74 7FE3FB78 		mr 3,31
 5019              	.LBE3134:
 5020              	.LBE3140:
 5021              		.loc 5 361 0
 5022 0e78 83E1000C 		lwz 31,12(1)
 5023              	.LVL365:
 5024 0e7c 7C0803A6 		mtlr 0
 5025 0e80 38210010 		addi 1,1,16
 5026              		.cfi_remember_state
 5027              	.LCFI124:
 5028              		.cfi_def_cfa_offset 0
 5029              		.cfi_restore 31
 5030              	.LBB3141:
 5031              	.LBB3135:
 5032              		.loc 5 188 0
 5033 0e84 48000000 		b _ZN11MusicPlayer12LoadStandardEv
 5034              	.LVL366:
 5035              	.L287:
 5036              	.LCFI125:
 5037              		.cfi_restore_state
 5038              	.LBE3135:
 5039              	.LBE3141:
 5040              		.loc 5 345 0
 5041 0e88 80630254 		lwz 3,596(3)
 5042              	.LVL367:
 5043 0e8c 809F0244 		lwz 4,580(31)
 5044              	.LVL368:
 5045 0e90 48000001 		bl _ZN8GuiImage8SetImageEP12GuiImageData
 5046              	.LVL369:
 5047              		.loc 5 346 0
 5048 0e94 3800000C 		li 0,12
 5049 0e98 901F00FC 		stw 0,252(31)
 5050              	.LVL370:
 5051              	.LBB3142:
 5052              	.LBB3143:
 5053              		.loc 5 175 0
 5054 0e9c 38000000 		li 0,0
 5055 0ea0 981F00D8 		stb 0,216(31)
 5056              		.loc 5 176 0
 5057 0ea4 38000001 		li 0,1
 5058 0ea8 981F00D9 		stb 0,217(31)
 5059              		.loc 5 177 0
 5060 0eac 807F00F0 		lwz 3,240(31)
 5061 0eb0 48000001 		bl _ZN8GuiSound4StopEv
 5062 0eb4 4BFFFF30 		b .L277
 5063              	.LVL371:
 5064              	.L288:
 5065              	.LBE3143:
 5066              	.LBE3142:
 5067              		.loc 5 351 0
 5068 0eb8 80630254 		lwz 3,596(3)
 5069 0ebc 809F0248 		lwz 4,584(31)
 5070              	.LVL372:
 5071 0ec0 48000001 		bl _ZN8GuiImage8SetImageEP12GuiImageData
 5072              	.LVL373:
 5073              		.loc 5 352 0
 5074 0ec4 3800000C 		li 0,12
 5075 0ec8 901F00FC 		stw 0,252(31)
 5076              		.loc 5 353 0
 5077 0ecc 7FE3FB78 		mr 3,31
 5078              		.loc 5 361 0
 5079 0ed0 80010014 		lwz 0,20(1)
 5080 0ed4 83E1000C 		lwz 31,12(1)
 5081              	.LVL374:
 5082 0ed8 7C0803A6 		mtlr 0
 5083 0edc 38210010 		addi 1,1,16
 5084              		.cfi_remember_state
 5085              	.LCFI126:
 5086              		.cfi_def_cfa_offset 0
 5087              		.cfi_restore 31
 5088              		.loc 5 353 0
 5089 0ee0 48000000 		b _ZN11MusicPlayer12PlayPreviousEv
 5090              	.LVL375:
 5091              	.L282:
 5092              	.LCFI127:
 5093              		.cfi_restore_state
 5094              	.LBB3144:
 5095              	.LBB3136:
 5096              	.LBB3127:
 5097              	.LBB3128:
 5098              		.loc 5 190 0
 5099 0ee4 909F00F8 		stw 4,248(31)
 5100              		.loc 5 192 0
 5101 0ee8 387F0100 		addi 3,31,256
 5102 0eec 48000001 		bl _ZN8PlayList2atEi
 5103              	.LVL376:
 5104 0ef0 3CA00000 		lis 5,.LC5@ha
 5105 0ef4 7C661B78 		mr 6,3
 5106 0ef8 3C600000 		lis 3,Settings+994@ha
 5107 0efc 386303E2 		la 3,Settings+994@l(3)
 5108 0f00 388000FA 		li 4,250
 5109 0f04 38A5001C 		la 5,.LC5@l(5)
 5110 0f08 4CC63182 		crxor 6,6,6
 5111 0f0c 48000001 		bl snprintf
 5112              	.LBE3128:
 5113              	.LBE3127:
 5114              	.LBE3136:
 5115              	.LBE3144:
 5116              		.loc 5 361 0
 5117 0f10 80010014 		lwz 0,20(1)
 5118              	.LBB3145:
 5119              	.LBB3137:
 5120              	.LBB3131:
 5121              	.LBB3129:
 5122              		.loc 5 194 0
 5123 0f14 7FE3FB78 		mr 3,31
 5124              	.LBE3129:
 5125              	.LBE3131:
 5126              	.LBE3137:
 5127              	.LBE3145:
 5128              		.loc 5 361 0
 5129 0f18 83E1000C 		lwz 31,12(1)
 5130              	.LVL377:
 5131 0f1c 7C0803A6 		mtlr 0
 5132 0f20 38210010 		addi 1,1,16
 5133              	.LCFI128:
 5134              		.cfi_def_cfa_offset 0
 5135              		.cfi_restore 31
 5136              	.LBB3146:
 5137              	.LBB3138:
 5138              	.LBB3132:
 5139              	.LBB3130:
 5140              		.loc 5 194 0
 5141 0f24 4BFFF224 		b _ZN11MusicPlayer4LoadEPKcb.constprop.144
 5142              	.LVL378:
 5143              	.LVL379:
 5144              	.LVL380:
 5145              	.LVL381:
 5146              	.LBE3130:
 5147              	.LBE3132:
 5148              	.LBE3138:
 5149              	.LBE3146:
 5150              		.cfi_endproc
 5151              	.LFE1632:
 5152              		.size	_ZN11MusicPlayer13OnButtonClickEP9GuiButtoniRK6_POINT, .-_ZN11MusicPlayer13OnButtonClickEP9G
 5153              		.section	.text._ZNSt6vectorIP10GuiElementSaIS1_EE13_M_insert_auxEN9__gnu_cxx17__normal_iteratorIPS
 5154              		.align 2
 5155              		.weak	_ZNSt6vectorIP10GuiElementSaIS1_EE13_M_insert_auxEN9__gnu_cxx17__normal_iteratorIPS1_S3_EERK
 5156              		.type	_ZNSt6vectorIP10GuiElementSaIS1_EE13_M_insert_auxEN9__gnu_cxx17__normal_iteratorIPS1_S3_EERK
 5157              	_ZNSt6vectorIP10GuiElementSaIS1_EE13_M_insert_auxEN9__gnu_cxx17__normal_iteratorIPS1_S3_EERKS1_:
 5158              	.LFB1745:
 5159              		.loc 13 300 0
 5160              		.cfi_startproc
 5161              	.LVL382:
 5162 0000 7C0802A6 		mflr 0
 5163 0004 9421FFD8 		stwu 1,-40(1)
 5164              	.LCFI129:
 5165              		.cfi_def_cfa_offset 40
 5166              		.cfi_register 65, 0
 5167 0008 93610014 		stw 27,20(1)
 5168 000c 9001002C 		stw 0,44(1)
 5169 0010 93C10020 		stw 30,32(1)
 5170              	.LBB3209:
 5171              		.loc 13 304 0
 5172 0014 83630004 		lwz 27,4(3)
 5173              		.cfi_offset 30, -8
 5174              		.cfi_offset 65, 4
 5175              		.cfi_offset 27, -20
 5176 0018 80030008 		lwz 0,8(3)
 5177              	.LBE3209:
 5178              		.loc 13 300 0
 5179 001c 93E10024 		stw 31,36(1)
 5180 0020 7C7F1B78 		mr 31,3
 5181              		.cfi_offset 31, -4
 5182              	.LBB3334:
 5183              		.loc 13 304 0
 5184 0024 7F9B0000 		cmpw 7,27,0
 5185              	.LBE3334:
 5186              		.loc 13 300 0
 5187 0028 93410010 		stw 26,16(1)
 5188 002c 93810018 		stw 28,24(1)
 5189 0030 93A1001C 		stw 29,28(1)
 5190              		.loc 13 300 0
 5191 0034 83C40000 		lwz 30,0(4)
 5192              	.LVL383:
 5193              	.LBB3335:
 5194              		.loc 13 304 0
 5195 0038 419E0078 		beq- 7,.L291
 5196              		.cfi_offset 29, -12
 5197              		.cfi_offset 28, -16
 5198              		.cfi_offset 26, -24
 5199              	.LVL384:
 5200              	.LBB3210:
 5201              	.LBB3211:
 5202              	.LBB3212:
 5203              		.file 16 "d:\\devkitpro\\devkitppc\\bin\\../lib/gcc/powerpc-eabi/4.6.3/../../../../powerpc-eabi/in
 5204              		.loc 16 108 0
 5205 003c 2F9B0000 		cmpwi 7,27,0
 5206 0040 38600000 		li 3,0
 5207              	.LVL385:
 5208 0044 419E0010 		beq- 7,.L292
 5209 0048 801BFFFC 		lwz 0,-4(27)
 5210 004c 901B0000 		stw 0,0(27)
 5211 0050 807F0004 		lwz 3,4(31)
 5212              	.L292:
 5213              	.LBE3212:
 5214              	.LBE3211:
 5215              		.loc 13 313 0
 5216 0054 3803FFFC 		addi 0,3,-4
 5217              		.loc 13 309 0
 5218 0058 39230004 		addi 9,3,4
 5219              	.LBB3213:
 5220              	.LBB3214:
 5221              	.LBB3215:
 5222              	.LBB3216:
 5223              	.LBB3217:
 5224              	.LBB3218:
 5225              		.loc 14 559 0
 5226 005c 7C1E0050 		subf 0,30,0
 5227              	.LBE3218:
 5228              	.LBE3217:
 5229              	.LBE3216:
 5230              	.LBE3215:
 5231              	.LBE3214:
 5232              	.LBE3213:
 5233              		.loc 13 309 0
 5234 0060 913F0004 		stw 9,4(31)
 5235              	.LBB3234:
 5236              	.LBB3231:
 5237              	.LBB3228:
 5238              	.LBB3225:
 5239              	.LBB3222:
 5240              	.LBB3219:
 5241              		.loc 14 560 0
 5242 0064 7C001671 		srawi. 0,0,2
 5243              	.LBE3219:
 5244              	.LBE3222:
 5245              	.LBE3225:
 5246              	.LBE3228:
 5247              	.LBE3231:
 5248              	.LBE3234:
 5249              		.loc 13 311 0
 5250 0068 83E50000 		lwz 31,0(5)
 5251              	.LVL386:
 5252              	.LBB3235:
 5253              	.LBB3232:
 5254              	.LBB3229:
 5255              	.LBB3226:
 5256              	.LBB3223:
 5257              	.LBB3220:
 5258              		.loc 14 560 0
 5259 006c 40820030 		bne- 0,.L307
 5260              	.LVL387:
 5261              	.L293:
 5262              	.LBE3220:
 5263              	.LBE3223:
 5264              	.LBE3226:
 5265              	.LBE3229:
 5266              	.LBE3232:
 5267              	.LBE3235:
 5268              	.LBE3210:
 5269              	.LBE3335:
 5270              		.loc 13 373 0
 5271 0070 8001002C 		lwz 0,44(1)
 5272              	.LBB3336:
 5273              	.LBB3237:
 5274              		.loc 13 317 0
 5275 0074 93FE0000 		stw 31,0(30)
 5276              	.LBE3237:
 5277              	.LBE3336:
 5278              		.loc 13 373 0
 5279 0078 7C0803A6 		mtlr 0
 5280 007c 83410010 		lwz 26,16(1)
 5281 0080 83610014 		lwz 27,20(1)
 5282              	.LVL388:
 5283 0084 83810018 		lwz 28,24(1)
 5284 0088 83A1001C 		lwz 29,28(1)
 5285 008c 83C10020 		lwz 30,32(1)
 5286              	.LVL389:
 5287 0090 83E10024 		lwz 31,36(1)
 5288              	.LVL390:
 5289 0094 38210028 		addi 1,1,40
 5290              		.cfi_remember_state
 5291              	.LCFI130:
 5292              		.cfi_def_cfa_offset 0
 5293              		.cfi_restore 31
 5294              		.cfi_restore 30
 5295              		.cfi_restore 29
 5296              		.cfi_restore 28
 5297              		.cfi_restore 27
 5298              		.cfi_restore 26
 5299 0098 4E800020 		blr
 5300              	.LVL391:
 5301              	.L307:
 5302              	.LCFI131:
 5303              		.cfi_restore_state
 5304              	.LBB3337:
 5305              	.LBB3238:
 5306              	.LBB3236:
 5307              	.LBB3233:
 5308              	.LBB3230:
 5309              	.LBB3227:
 5310              	.LBB3224:
 5311              	.LBB3221:
 5312              		.loc 14 561 0
 5313 009c 5405103A 		slwi 5,0,2
 5314              	.LVL392:
 5315 00a0 7FC4F378 		mr 4,30
 5316 00a4 7C651850 		subf 3,5,3
 5317              	.LVL393:
 5318 00a8 48000001 		bl memmove
 5319              	.LVL394:
 5320 00ac 4BFFFFC4 		b .L293
 5321              	.LVL395:
 5322              	.L291:
 5323              	.LBE3221:
 5324              	.LBE3224:
 5325              	.LBE3227:
 5326              	.LBE3230:
 5327              	.LBE3233:
 5328              	.LBE3236:
 5329              	.LBE3238:
 5330              	.LBB3239:
 5331              	.LBB3240:
 5332              	.LBB3241:
 5333              	.LBB3242:
 5334              	.LBB3243:
 5335              		.loc 10 571 0
 5336 00b0 83830000 		lwz 28,0(3)
 5337 00b4 7F7CD850 		subf 27,28,27
 5338              	.LBE3243:
 5339              	.LBE3242:
 5340              	.LBB3244:
 5341              	.LBB3245:
 5342              		.loc 14 215 0
 5343 00b8 7F7B1671 		srawi. 27,27,2
 5344 00bc 418200E8 		beq- 0,.L295
 5345              	.LBE3245:
 5346              	.LBE3244:
 5347              		.loc 10 1244 0
 5348 00c0 5760083C 		slwi 0,27,1
 5349              	.LVL396:
 5350              		.loc 10 1245 0
 5351 00c4 7F9B0040 		cmplw 7,27,0
 5352 00c8 409D00EC 		ble- 7,.L308
 5353              	.L296:
 5354              	.LVL397:
 5355              	.LBE3241:
 5356              	.LBE3240:
 5357              	.LBB3248:
 5358              	.LBB3249:
 5359              		.loc 12 892 0
 5360 00cc 7F9CF050 		subf 28,28,30
 5361              	.LBE3249:
 5362              	.LBE3248:
 5363              		.loc 13 326 0
 5364 00d0 3B60FFFC 		li 27,-4
 5365              	.LBB3255:
 5366              	.LBB3250:
 5367              		.loc 12 892 0
 5368 00d4 7F9C1670 		srawi 28,28,2
 5369              	.LVL398:
 5370              	.L302:
 5371              	.LBE3250:
 5372              	.LBE3255:
 5373              	.LBB3256:
 5374              	.LBB3257:
 5375              	.LBB3258:
 5376              	.LBB3259:
 5377              		.loc 16 92 0
 5378 00d8 7F63DB78 		mr 3,27
 5379              	.LVL399:
 5380 00dc 90A10008 		stw 5,8(1)
 5381 00e0 48000001 		bl _Znwj
 5382              	.LVL400:
 5383 00e4 80A10008 		lwz 5,8(1)
 5384 00e8 7C7D1B78 		mr 29,3
 5385              	.L297:
 5386              	.LVL401:
 5387              	.LBE3259:
 5388              	.LBE3258:
 5389              	.LBE3257:
 5390              	.LBE3256:
 5391              		.loc 13 335 0
 5392 00ec 579C103A 		slwi 28,28,2
 5393              	.LVL402:
 5394 00f0 7C1DE214 		add 0,29,28
 5395              	.LVL403:
 5396              	.LBB3262:
 5397              	.LBB3263:
 5398              		.loc 16 108 0
 5399 00f4 2F800000 		cmpwi 7,0,0
 5400 00f8 419E000C 		beq- 7,.L298
 5401 00fc 80050000 		lwz 0,0(5)
 5402              	.LVL404:
 5403 0100 7C1DE12E 		stwx 0,29,28
 5404              	.L298:
 5405              	.LVL405:
 5406              	.LBE3263:
 5407              	.LBE3262:
 5408              		.loc 13 343 0
 5409 0104 809F0000 		lwz 4,0(31)
 5410              	.LVL406:
 5411              	.LBB3264:
 5412              	.LBB3265:
 5413              	.LBB3266:
 5414              	.LBB3267:
 5415              	.LBB3268:
 5416              	.LBB3269:
 5417              	.LBB3270:
 5418              	.LBB3271:
 5419              	.LBB3272:
 5420              	.LBB3273:
 5421              	.LBB3274:
 5422              		.loc 14 365 0
 5423 0108 3B800000 		li 28,0
 5424              		.loc 14 364 0
 5425 010c 7C04F050 		subf 0,4,30
 5426              	.LVL407:
 5427              		.loc 14 365 0
 5428 0110 7C001671 		srawi. 0,0,2
 5429              	.LVL408:
 5430 0114 41A20014 		beq+ 0,.L299
 5431              		.loc 14 366 0
 5432 0118 541C103A 		slwi 28,0,2
 5433 011c 7FA3EB78 		mr 3,29
 5434 0120 7F85E378 		mr 5,28
 5435              	.LVL409:
 5436 0124 48000001 		bl memmove
 5437              	.LVL410:
 5438              	.L299:
 5439              	.LBE3274:
 5440              	.LBE3273:
 5441              	.LBE3272:
 5442              	.LBE3271:
 5443              	.LBE3270:
 5444              	.LBE3269:
 5445              	.LBE3268:
 5446              	.LBE3267:
 5447              	.LBE3266:
 5448              	.LBE3265:
 5449              	.LBE3264:
 5450              	.LBB3285:
 5451              	.LBB3286:
 5452              	.LBB3287:
 5453              	.LBB3288:
 5454              	.LBB3289:
 5455              	.LBB3290:
 5456              	.LBB3291:
 5457              	.LBB3292:
 5458              	.LBB3293:
 5459              	.LBB3294:
 5460              	.LBB3295:
 5461              		.loc 14 364 0
 5462 0128 801F0004 		lwz 0,4(31)
 5463              	.LBE3295:
 5464              	.LBE3294:
 5465              	.LBE3293:
 5466              	.LBE3292:
 5467              	.LBE3291:
 5468              	.LBE3290:
 5469              	.LBE3289:
 5470              	.LBE3288:
 5471              	.LBE3287:
 5472              	.LBE3286:
 5473              	.LBE3285:
 5474              	.LBB3316:
 5475              	.LBB3284:
 5476              	.LBB3283:
 5477              	.LBB3282:
 5478              	.LBB3281:
 5479              	.LBB3280:
 5480              	.LBB3279:
 5481              	.LBB3278:
 5482              	.LBB3277:
 5483              	.LBB3276:
 5484              	.LBB3275:
 5485              		.loc 14 367 0
 5486 012c 7F9DE214 		add 28,29,28
 5487              	.LVL411:
 5488              	.LBE3275:
 5489              	.LBE3276:
 5490              	.LBE3277:
 5491              	.LBE3278:
 5492              	.LBE3279:
 5493              	.LBE3280:
 5494              	.LBE3281:
 5495              	.LBE3282:
 5496              	.LBE3283:
 5497              	.LBE3284:
 5498              	.LBE3316:
 5499              		.loc 13 347 0
 5500 0130 3B5C0004 		addi 26,28,4
 5501              	.LBB3317:
 5502              	.LBB3314:
 5503              	.LBB3312:
 5504              	.LBB3310:
 5505              	.LBB3308:
 5506              	.LBB3306:
 5507              	.LBB3304:
 5508              	.LBB3302:
 5509              	.LBB3300:
 5510              	.LBB3298:
 5511              	.LBB3296:
 5512              		.loc 14 365 0
 5513 0134 3B800000 		li 28,0
 5514              		.loc 14 364 0
 5515 0138 7C1E0050 		subf 0,30,0
 5516              	.LVL412:
 5517              		.loc 14 365 0
 5518 013c 7C001671 		srawi. 0,0,2
 5519              	.LVL413:
 5520 0140 41A20018 		beq+ 0,.L300
 5521              		.loc 14 366 0
 5522 0144 541C103A 		slwi 28,0,2
 5523 0148 7F43D378 		mr 3,26
 5524 014c 7FC4F378 		mr 4,30
 5525 0150 7F85E378 		mr 5,28
 5526 0154 48000001 		bl memmove
 5527              	.LVL414:
 5528              	.L300:
 5529              	.LBE3296:
 5530              	.LBE3298:
 5531              	.LBE3300:
 5532              	.LBE3302:
 5533              	.LBE3304:
 5534              	.LBE3306:
 5535              	.LBE3308:
 5536              	.LBE3310:
 5537              	.LBE3312:
 5538              	.LBE3314:
 5539              	.LBE3317:
 5540              		.loc 13 366 0
 5541 0158 807F0000 		lwz 3,0(31)
 5542              	.LBB3318:
 5543              	.LBB3315:
 5544              	.LBB3313:
 5545              	.LBB3311:
 5546              	.LBB3309:
 5547              	.LBB3307:
 5548              	.LBB3305:
 5549              	.LBB3303:
 5550              	.LBB3301:
 5551              	.LBB3299:
 5552              	.LBB3297:
 5553              		.loc 14 367 0
 5554 015c 7F9AE214 		add 28,26,28
 5555              	.LVL415:
 5556              	.LBE3297:
 5557              	.LBE3299:
 5558              	.LBE3301:
 5559              	.LBE3303:
 5560              	.LBE3305:
 5561              	.LBE3307:
 5562              	.LBE3309:
 5563              	.LBE3311:
 5564              	.LBE3313:
 5565              	.LBE3315:
 5566              	.LBE3318:
 5567              	.LBB3319:
 5568              	.LBB3320:
 5569              		.loc 10 155 0
 5570 0160 2F830000 		cmpwi 7,3,0
 5571 0164 419E0008 		beq- 7,.L301
 5572              	.LVL416:
 5573              	.LBB3321:
 5574              	.LBB3322:
 5575              		.loc 16 98 0
 5576 0168 48000001 		bl _ZdlPv
 5577              	.LVL417:
 5578              	.L301:
 5579              	.LBE3322:
 5580              	.LBE3321:
 5581              	.LBE3320:
 5582              	.LBE3319:
 5583              	.LBE3239:
 5584              	.LBE3337:
 5585              		.loc 13 373 0
 5586 016c 8001002C 		lwz 0,44(1)
 5587              	.LBB3338:
 5588              	.LBB3331:
 5589              		.loc 13 371 0
 5590 0170 7F7DDA14 		add 27,29,27
 5591              		.loc 13 369 0
 5592 0174 93BF0000 		stw 29,0(31)
 5593              	.LBE3331:
 5594              	.LBE3338:
 5595              		.loc 13 373 0
 5596 0178 7C0803A6 		mtlr 0
 5597              	.LBB3339:
 5598              	.LBB3332:
 5599              		.loc 13 370 0
 5600 017c 939F0004 		stw 28,4(31)
 5601              		.loc 13 371 0
 5602 0180 937F0008 		stw 27,8(31)
 5603              	.LBE3332:
 5604              	.LBE3339:
 5605              		.loc 13 373 0
 5606 0184 83410010 		lwz 26,16(1)
 5607              	.LVL418:
 5608 0188 83610014 		lwz 27,20(1)
 5609 018c 83810018 		lwz 28,24(1)
 5610 0190 83A1001C 		lwz 29,28(1)
 5611              	.LVL419:
 5612 0194 83C10020 		lwz 30,32(1)
 5613              	.LVL420:
 5614 0198 83E10024 		lwz 31,36(1)
 5615              	.LVL421:
 5616 019c 38210028 		addi 1,1,40
 5617              		.cfi_remember_state
 5618              		.cfi_restore 26
 5619              		.cfi_restore 27
 5620              		.cfi_restore 28
 5621              		.cfi_restore 29
 5622              		.cfi_restore 30
 5623              		.cfi_restore 31
 5624              	.LCFI132:
 5625              		.cfi_def_cfa_offset 0
 5626 01a0 4E800020 		blr
 5627              	.LVL422:
 5628              	.L295:
 5629              	.LCFI133:
 5630              		.cfi_restore_state
 5631              	.LBB3340:
 5632              	.LBB3333:
 5633              	.LBB3323:
 5634              	.LBB3251:
 5635              		.loc 12 892 0
 5636 01a4 7F9CF050 		subf 28,28,30
 5637              	.LBE3251:
 5638              	.LBE3323:
 5639              		.loc 13 326 0
 5640 01a8 3B600004 		li 27,4
 5641              	.LBB3324:
 5642              	.LBB3252:
 5643              		.loc 12 892 0
 5644 01ac 7F9C1670 		srawi 28,28,2
 5645              	.LVL423:
 5646 01b0 4BFFFF28 		b .L302
 5647              	.LVL424:
 5648              	.L308:
 5649              	.LBE3252:
 5650              	.LBE3324:
 5651              	.LBB3325:
 5652              	.LBB3246:
 5653              		.loc 10 1245 0
 5654 01b4 3D203FFF 		lis 9,0x3fff
 5655 01b8 6129FFFF 		ori 9,9,65535
 5656 01bc 7F804840 		cmplw 7,0,9
 5657 01c0 419DFF0C 		bgt+ 7,.L296
 5658              	.LBE3246:
 5659              	.LBE3325:
 5660              	.LBB3326:
 5661              	.LBB3260:
 5662              		.loc 10 150 0
 5663 01c4 2F800000 		cmpwi 7,0,0
 5664              	.LBE3260:
 5665              	.LBE3326:
 5666              	.LBB3327:
 5667              	.LBB3253:
 5668              		.loc 12 892 0
 5669 01c8 7F9CF050 		subf 28,28,30
 5670              	.LBE3253:
 5671              	.LBE3327:
 5672              	.LBB3328:
 5673              	.LBB3247:
 5674              		.loc 10 1245 0
 5675 01cc 577B1838 		slwi 27,27,3
 5676              	.LVL425:
 5677              	.LBE3247:
 5678              	.LBE3328:
 5679              	.LBB3329:
 5680              	.LBB3254:
 5681              		.loc 12 892 0
 5682 01d0 7F9C1670 		srawi 28,28,2
 5683              	.LVL426:
 5684              	.LBE3254:
 5685              	.LBE3329:
 5686              	.LBB3330:
 5687              	.LBB3261:
 5688              		.loc 10 150 0
 5689 01d4 3BA00000 		li 29,0
 5690 01d8 419EFF14 		beq+ 7,.L297
 5691 01dc 4BFFFEFC 		b .L302
 5692              	.LBE3261:
 5693              	.LBE3330:
 5694              	.LBE3333:
 5695              	.LBE3340:
 5696              		.cfi_endproc
 5697              	.LFE1745:
 5698              		.size	_ZNSt6vectorIP10GuiElementSaIS1_EE13_M_insert_auxEN9__gnu_cxx17__normal_iteratorIPS1_S3_EERK
 5699              		.section	.text._ZNSt8_Rb_treeIPN7sigslot12_signal_baseINS0_15single_threadedEEES4_St9_IdentityIS4_
 5700              		.align 2
 5701              		.weak	_ZNSt8_Rb_treeIPN7sigslot12_signal_baseINS0_15single_threadedEEES4_St9_IdentityIS4_ESt4lessI
 5702              		.type	_ZNSt8_Rb_treeIPN7sigslot12_signal_baseINS0_15single_threadedEEES4_St9_IdentityIS4_ESt4lessI
 5703              	_ZNSt8_Rb_treeIPN7sigslot12_signal_baseINS0_15single_threadedEEES4_St9_IdentityIS4_ESt4lessIS4_ESaI
 5704              	.LFB1828:
 5705              		.file 17 "d:\\devkitpro\\devkitppc\\bin\\../lib/gcc/powerpc-eabi/4.6.3/../../../../powerpc-eabi/in
 5706              		.loc 17 1068 0
 5707              		.cfi_startproc
 5708              	.LVL427:
 5709 0000 9421FFC8 		stwu 1,-56(1)
 5710              	.LCFI134:
 5711              		.cfi_def_cfa_offset 56
 5712 0004 7C0802A6 		mflr 0
 5713 0008 92C10010 		stw 22,16(1)
 5714              	.LBB3457:
 5715              		.loc 17 1072 0
 5716 000c 7C962379 		mr. 22,4
 5717              		.cfi_offset 22, -40
 5718              		.cfi_register 65, 0
 5719              	.LBE3457:
 5720              		.loc 17 1068 0
 5721 0010 93C10030 		stw 30,48(1)
 5722 0014 7C7E1B78 		mr 30,3
 5723              		.cfi_offset 30, -8
 5724 0018 9001003C 		stw 0,60(1)
 5725 001c 92A1000C 		stw 21,12(1)
 5726 0020 92E10014 		stw 23,20(1)
 5727 0024 93010018 		stw 24,24(1)
 5728 0028 9321001C 		stw 25,28(1)
 5729 002c 93410020 		stw 26,32(1)
 5730 0030 93610024 		stw 27,36(1)
 5731 0034 93810028 		stw 28,40(1)
 5732 0038 93A1002C 		stw 29,44(1)
 5733 003c 93E10034 		stw 31,52(1)
 5734              	.LBB3542:
 5735              		.loc 17 1072 0
 5736 0040 41820168 		beq- 0,.L309
 5737              		.cfi_offset 31, -4
 5738              		.cfi_offset 29, -12
 5739              		.cfi_offset 28, -16
 5740              		.cfi_offset 27, -20
 5741              		.cfi_offset 26, -24
 5742              		.cfi_offset 25, -28
 5743              		.cfi_offset 24, -32
 5744              		.cfi_offset 23, -36
 5745              		.cfi_offset 21, -44
 5746              		.cfi_offset 65, 4
 5747              	.LVL428:
 5748              	.L355:
 5749              		.loc 5 502 0
 5750 0044 8376000C 		lwz 27,12(22)
 5751              	.LVL429:
 5752              	.LBB3458:
 5753              	.LBB3459:
 5754              	.LBB3460:
 5755              		.loc 17 1072 0
 5756 0048 2F9B0000 		cmpwi 7,27,0
 5757 004c 419E0140 		beq- 7,.L311
 5758              	.LVL430:
 5759              	.L356:
 5760              	.LBE3460:
 5761              		.loc 5 502 0
 5762 0050 835B000C 		lwz 26,12(27)
 5763              	.LVL431:
 5764              	.LBB3536:
 5765              	.LBB3461:
 5766              	.LBB3462:
 5767              	.LBB3463:
 5768              		.loc 17 1072 0
 5769 0054 2F9A0000 		cmpwi 7,26,0
 5770 0058 419E0118 		beq- 7,.L312
 5771              	.LVL432:
 5772              	.L357:
 5773              	.LBE3463:
 5774              		.loc 5 502 0
 5775 005c 833A000C 		lwz 25,12(26)
 5776              	.LVL433:
 5777              	.LBB3529:
 5778              	.LBB3464:
 5779              	.LBB3465:
 5780              	.LBB3466:
 5781              		.loc 17 1072 0
 5782 0060 2F990000 		cmpwi 7,25,0
 5783 0064 419E00F0 		beq- 7,.L313
 5784              	.LVL434:
 5785              	.L358:
 5786              	.LBE3466:
 5787              		.loc 5 502 0
 5788 0068 8319000C 		lwz 24,12(25)
 5789              	.LVL435:
 5790              	.LBB3522:
 5791              	.LBB3467:
 5792              	.LBB3468:
 5793              	.LBB3469:
 5794              		.loc 17 1072 0
 5795 006c 2F980000 		cmpwi 7,24,0
 5796 0070 419E00C8 		beq- 7,.L314
 5797              	.LVL436:
 5798              	.L359:
 5799              	.LBE3469:
 5800              		.loc 5 502 0
 5801 0074 82F8000C 		lwz 23,12(24)
 5802              	.LVL437:
 5803              	.LBB3515:
 5804              	.LBB3470:
 5805              	.LBB3471:
 5806              	.LBB3472:
 5807              		.loc 17 1072 0
 5808 0078 2F970000 		cmpwi 7,23,0
 5809 007c 419E00A0 		beq- 7,.L315
 5810              	.LVL438:
 5811              	.L360:
 5812              	.LBE3472:
 5813              		.loc 5 502 0
 5814 0080 8397000C 		lwz 28,12(23)
 5815              	.LVL439:
 5816              	.LBB3508:
 5817              	.LBB3473:
 5818              	.LBB3474:
 5819              	.LBB3475:
 5820              		.loc 17 1072 0
 5821 0084 2F9C0000 		cmpwi 7,28,0
 5822 0088 419E0078 		beq- 7,.L316
 5823              	.LVL440:
 5824              	.L361:
 5825              	.LBE3475:
 5826              		.loc 5 502 0
 5827 008c 83BC000C 		lwz 29,12(28)
 5828              	.LVL441:
 5829              	.LBB3501:
 5830              	.LBB3476:
 5831              	.LBB3477:
 5832              	.LBB3478:
 5833              		.loc 17 1072 0
 5834 0090 2F9D0000 		cmpwi 7,29,0
 5835 0094 419E0050 		beq- 7,.L317
 5836              	.LVL442:
 5837              	.L362:
 5838              	.LBE3478:
 5839              		.loc 5 502 0
 5840 0098 83FD000C 		lwz 31,12(29)
 5841              	.LVL443:
 5842              	.LBB3494:
 5843              	.LBB3479:
 5844              	.LBB3480:
 5845              	.LBB3481:
 5846              		.loc 17 1072 0
 5847 009c 2F9F0000 		cmpwi 7,31,0
 5848 00a0 419E0028 		beq- 7,.L318
 5849              	.LVL444:
 5850              	.L363:
 5851              	.LBB3482:
 5852              		.loc 17 1074 0
 5853 00a4 809F000C 		lwz 4,12(31)
 5854 00a8 7FC3F378 		mr 3,30
 5855 00ac 48000001 		bl _ZNSt8_Rb_treeIPN7sigslot12_signal_baseINS0_15single_threadedEEES4_St9_IdentityIS4_ESt4lessIS4_
 5856              	.LBE3482:
 5857              	.LBE3481:
 5858              		.loc 5 502 0
 5859 00b0 82BF0008 		lwz 21,8(31)
 5860              	.LVL445:
 5861              	.LBB3488:
 5862              	.LBB3487:
 5863              	.LBB3483:
 5864              	.LBB3484:
 5865              	.LBB3485:
 5866              	.LBB3486:
 5867              		.loc 16 98 0
 5868 00b4 7FE3FB78 		mr 3,31
 5869 00b8 48000001 		bl _ZdlPv
 5870              	.LVL446:
 5871              	.LBE3486:
 5872              	.LBE3485:
 5873              	.LBE3484:
 5874              	.LBE3483:
 5875              	.LBE3487:
 5876              		.loc 17 1072 0
 5877 00bc 2F950000 		cmpwi 7,21,0
 5878              		.loc 17 1077 0
 5879 00c0 7EBFAB78 		mr 31,21
 5880              	.LVL447:
 5881              		.loc 17 1072 0
 5882 00c4 409EFFE0 		bne+ 7,.L363
 5883              	.LVL448:
 5884              	.L318:
 5885              	.LBE3488:
 5886              	.LBE3480:
 5887              	.LBE3479:
 5888              	.LBE3494:
 5889              		.loc 5 502 0
 5890 00c8 83FD0008 		lwz 31,8(29)
 5891              	.LVL449:
 5892              	.LBB3495:
 5893              	.LBB3493:
 5894              	.LBB3489:
 5895              	.LBB3490:
 5896              	.LBB3491:
 5897              	.LBB3492:
 5898              		.loc 16 98 0
 5899 00cc 7FA3EB78 		mr 3,29
 5900 00d0 48000001 		bl _ZdlPv
 5901              	.LVL450:
 5902              	.LBE3492:
 5903              	.LBE3491:
 5904              	.LBE3490:
 5905              	.LBE3489:
 5906              	.LBE3493:
 5907              		.loc 17 1072 0
 5908 00d4 2F9F0000 		cmpwi 7,31,0
 5909 00d8 419E000C 		beq- 7,.L317
 5910              		.loc 17 1077 0
 5911 00dc 7FFDFB78 		mr 29,31
 5912              	.LVL451:
 5913 00e0 4BFFFFB8 		b .L362
 5914              	.LVL452:
 5915              	.L317:
 5916              	.LBE3495:
 5917              	.LBE3477:
 5918              	.LBE3476:
 5919              	.LBE3501:
 5920              		.loc 5 502 0
 5921 00e4 83FC0008 		lwz 31,8(28)
 5922              	.LVL453:
 5923              	.LBB3502:
 5924              	.LBB3500:
 5925              	.LBB3496:
 5926              	.LBB3497:
 5927              	.LBB3498:
 5928              	.LBB3499:
 5929              		.loc 16 98 0
 5930 00e8 7F83E378 		mr 3,28
 5931 00ec 48000001 		bl _ZdlPv
 5932              	.LVL454:
 5933              	.LBE3499:
 5934              	.LBE3498:
 5935              	.LBE3497:
 5936              	.LBE3496:
 5937              	.LBE3500:
 5938              		.loc 17 1072 0
 5939 00f0 2F9F0000 		cmpwi 7,31,0
 5940 00f4 419E000C 		beq- 7,.L316
 5941              		.loc 17 1077 0
 5942 00f8 7FFCFB78 		mr 28,31
 5943              	.LVL455:
 5944 00fc 4BFFFF90 		b .L361
 5945              	.LVL456:
 5946              	.L316:
 5947              	.LBE3502:
 5948              	.LBE3474:
 5949              	.LBE3473:
 5950              	.LBE3508:
 5951              		.loc 5 502 0
 5952 0100 83F70008 		lwz 31,8(23)
 5953              	.LVL457:
 5954              	.LBB3509:
 5955              	.LBB3507:
 5956              	.LBB3503:
 5957              	.LBB3504:
 5958              	.LBB3505:
 5959              	.LBB3506:
 5960              		.loc 16 98 0
 5961 0104 7EE3BB78 		mr 3,23
 5962 0108 48000001 		bl _ZdlPv
 5963              	.LVL458:
 5964              	.LBE3506:
 5965              	.LBE3505:
 5966              	.LBE3504:
 5967              	.LBE3503:
 5968              	.LBE3507:
 5969              		.loc 17 1072 0
 5970 010c 2F9F0000 		cmpwi 7,31,0
 5971 0110 419E000C 		beq- 7,.L315
 5972              		.loc 17 1077 0
 5973 0114 7FF7FB78 		mr 23,31
 5974              	.LVL459:
 5975 0118 4BFFFF68 		b .L360
 5976              	.LVL460:
 5977              	.L315:
 5978              	.LBE3509:
 5979              	.LBE3471:
 5980              	.LBE3470:
 5981              	.LBE3515:
 5982              		.loc 5 502 0
 5983 011c 83F80008 		lwz 31,8(24)
 5984              	.LVL461:
 5985              	.LBB3516:
 5986              	.LBB3514:
 5987              	.LBB3510:
 5988              	.LBB3511:
 5989              	.LBB3512:
 5990              	.LBB3513:
 5991              		.loc 16 98 0
 5992 0120 7F03C378 		mr 3,24
 5993 0124 48000001 		bl _ZdlPv
 5994              	.LVL462:
 5995              	.LBE3513:
 5996              	.LBE3512:
 5997              	.LBE3511:
 5998              	.LBE3510:
 5999              	.LBE3514:
 6000              		.loc 17 1072 0
 6001 0128 2F9F0000 		cmpwi 7,31,0
 6002 012c 419E000C 		beq- 7,.L314
 6003              		.loc 17 1077 0
 6004 0130 7FF8FB78 		mr 24,31
 6005              	.LVL463:
 6006 0134 4BFFFF40 		b .L359
 6007              	.LVL464:
 6008              	.L314:
 6009              	.LBE3516:
 6010              	.LBE3468:
 6011              	.LBE3467:
 6012              	.LBE3522:
 6013              		.loc 5 502 0
 6014 0138 83F90008 		lwz 31,8(25)
 6015              	.LVL465:
 6016              	.LBB3523:
 6017              	.LBB3521:
 6018              	.LBB3517:
 6019              	.LBB3518:
 6020              	.LBB3519:
 6021              	.LBB3520:
 6022              		.loc 16 98 0
 6023 013c 7F23CB78 		mr 3,25
 6024 0140 48000001 		bl _ZdlPv
 6025              	.LVL466:
 6026              	.LBE3520:
 6027              	.LBE3519:
 6028              	.LBE3518:
 6029              	.LBE3517:
 6030              	.LBE3521:
 6031              		.loc 17 1072 0
 6032 0144 2F9F0000 		cmpwi 7,31,0
 6033 0148 419E000C 		beq- 7,.L313
 6034              		.loc 17 1077 0
 6035 014c 7FF9FB78 		mr 25,31
 6036              	.LVL467:
 6037 0150 4BFFFF18 		b .L358
 6038              	.LVL468:
 6039              	.L313:
 6040              	.LBE3523:
 6041              	.LBE3465:
 6042              	.LBE3464:
 6043              	.LBE3529:
 6044              		.loc 5 502 0
 6045 0154 83FA0008 		lwz 31,8(26)
 6046              	.LVL469:
 6047              	.LBB3530:
 6048              	.LBB3528:
 6049              	.LBB3524:
 6050              	.LBB3525:
 6051              	.LBB3526:
 6052              	.LBB3527:
 6053              		.loc 16 98 0
 6054 0158 7F43D378 		mr 3,26
 6055 015c 48000001 		bl _ZdlPv
 6056              	.LVL470:
 6057              	.LBE3527:
 6058              	.LBE3526:
 6059              	.LBE3525:
 6060              	.LBE3524:
 6061              	.LBE3528:
 6062              		.loc 17 1072 0
 6063 0160 2F9F0000 		cmpwi 7,31,0
 6064 0164 419E000C 		beq- 7,.L312
 6065              		.loc 17 1077 0
 6066 0168 7FFAFB78 		mr 26,31
 6067              	.LVL471:
 6068 016c 4BFFFEF0 		b .L357
 6069              	.LVL472:
 6070              	.L312:
 6071              	.LBE3530:
 6072              	.LBE3462:
 6073              	.LBE3461:
 6074              	.LBE3536:
 6075              		.loc 5 502 0
 6076 0170 83FB0008 		lwz 31,8(27)
 6077              	.LVL473:
 6078              	.LBB3537:
 6079              	.LBB3535:
 6080              	.LBB3531:
 6081              	.LBB3532:
 6082              	.LBB3533:
 6083              	.LBB3534:
 6084              		.loc 16 98 0
 6085 0174 7F63DB78 		mr 3,27
 6086 0178 48000001 		bl _ZdlPv
 6087              	.LVL474:
 6088              	.LBE3534:
 6089              	.LBE3533:
 6090              	.LBE3532:
 6091              	.LBE3531:
 6092              	.LBE3535:
 6093              		.loc 17 1072 0
 6094 017c 2F9F0000 		cmpwi 7,31,0
 6095 0180 419E000C 		beq- 7,.L311
 6096              		.loc 17 1077 0
 6097 0184 7FFBFB78 		mr 27,31
 6098              	.LVL475:
 6099 0188 4BFFFEC8 		b .L356
 6100              	.LVL476:
 6101              	.L311:
 6102              		.loc 5 502 0
 6103 018c 83F60008 		lwz 31,8(22)
 6104              	.LVL477:
 6105              	.LBE3537:
 6106              	.LBE3459:
 6107              	.LBB3538:
 6108              	.LBB3539:
 6109              	.LBB3540:
 6110              	.LBB3541:
 6111              		.loc 16 98 0
 6112 0190 7EC3B378 		mr 3,22
 6113 0194 48000001 		bl _ZdlPv
 6114              	.LVL478:
 6115              	.LBE3541:
 6116              	.LBE3540:
 6117              	.LBE3539:
 6118              	.LBE3538:
 6119              	.LBE3458:
 6120              		.loc 17 1072 0
 6121 0198 2F9F0000 		cmpwi 7,31,0
 6122 019c 419E000C 		beq- 7,.L309
 6123              		.loc 17 1077 0
 6124 01a0 7FF6FB78 		mr 22,31
 6125              	.LVL479:
 6126 01a4 4BFFFEA0 		b .L355
 6127              	.LVL480:
 6128              	.L309:
 6129              	.LBE3542:
 6130              		.loc 17 1079 0
 6131 01a8 8001003C 		lwz 0,60(1)
 6132 01ac 82A1000C 		lwz 21,12(1)
 6133 01b0 7C0803A6 		mtlr 0
 6134 01b4 82C10010 		lwz 22,16(1)
 6135 01b8 82E10014 		lwz 23,20(1)
 6136 01bc 83010018 		lwz 24,24(1)
 6137 01c0 8321001C 		lwz 25,28(1)
 6138 01c4 83410020 		lwz 26,32(1)
 6139 01c8 83610024 		lwz 27,36(1)
 6140 01cc 83810028 		lwz 28,40(1)
 6141 01d0 83A1002C 		lwz 29,44(1)
 6142 01d4 83C10030 		lwz 30,48(1)
 6143              	.LVL481:
 6144 01d8 83E10034 		lwz 31,52(1)
 6145 01dc 38210038 		addi 1,1,56
 6146              	.LCFI135:
 6147              		.cfi_def_cfa_offset 0
 6148              		.cfi_restore 31
 6149              		.cfi_restore 30
 6150              		.cfi_restore 29
 6151              		.cfi_restore 28
 6152              		.cfi_restore 27
 6153              		.cfi_restore 26
 6154              		.cfi_restore 25
 6155              		.cfi_restore 24
 6156              		.cfi_restore 23
 6157              		.cfi_restore 22
 6158              		.cfi_restore 21
 6159 01e0 4E800020 		blr
 6160              		.cfi_endproc
 6161              	.LFE1828:
 6162              		.size	_ZNSt8_Rb_treeIPN7sigslot12_signal_baseINS0_15single_threadedEEES4_St9_IdentityIS4_ESt4lessI
 6163              		.section	.text._ZN7sigslot9has_slotsINS_15single_threadedEED2Ev,"axG",@progbits,_ZN7sigslot9has_sl
 6164              		.align 2
 6165              		.weak	_ZN7sigslot9has_slotsINS_15single_threadedEED2Ev
 6166              		.type	_ZN7sigslot9has_slotsINS_15single_threadedEED2Ev, @function
 6167              	_ZN7sigslot9has_slotsINS_15single_threadedEED2Ev:
 6168              	.LFB1671:
 6169              		.loc 1 513 0
 6170              		.cfi_startproc
 6171              		.cfi_personality 0,__gxx_personality_v0
 6172              		.cfi_lsda 0,.LLSDA1671
 6173              	.LVL482:
 6174 0000 7C0802A6 		mflr 0
 6175 0004 9421FFE0 		stwu 1,-32(1)
 6176              	.LCFI136:
 6177              		.cfi_def_cfa_offset 32
 6178              		.cfi_register 65, 0
 6179              	.LBB3689:
 6180              		.loc 1 516 0
 6181 0008 3D200000 		lis 9,_ZTVN7sigslot9has_slotsINS_15single_threadedEEE+8@ha
 6182              	.LBE3689:
 6183              		.loc 1 513 0
 6184 000c 93810010 		stw 28,16(1)
 6185 0010 3B830004 		addi 28,3,4
 6186              		.cfi_offset 28, -16
 6187 0014 90010024 		stw 0,36(1)
 6188              	.LBB3765:
 6189              		.loc 1 516 0
 6190 0018 38090008 		la 0,_ZTVN7sigslot9has_slotsINS_15single_threadedEEE+8@l(9)
 6191              		.cfi_offset 65, 4
 6192              	.LBE3765:
 6193              		.loc 1 513 0
 6194 001c 93A10014 		stw 29,20(1)
 6195 0020 7C7D1B78 		mr 29,3
 6196              		.cfi_offset 29, -12
 6197 0024 93410008 		stw 26,8(1)
 6198 0028 9361000C 		stw 27,12(1)
 6199 002c 93C10018 		stw 30,24(1)
 6200 0030 93E1001C 		stw 31,28(1)
 6201              	.LBB3766:
 6202              		.loc 1 516 0
 6203 0034 90030000 		stw 0,0(3)
 6204              	.LVL483:
 6205              	.LEHB14:
 6206              	.LBB3690:
 6207              	.LBB3691:
 6208              	.LBB3692:
 6209              	.LBB3693:
 6210              		.loc 1 338 0
 6211              		.cfi_offset 31, -4
 6212              		.cfi_offset 30, -8
 6213              		.cfi_offset 27, -20
 6214              		.cfi_offset 26, -24
 6215 0038 48000001 		bl _ZN7sigslot15single_threaded4lockEv
 6216              	.LEHE14:
 6217              	.LVL484:
 6218              	.LBE3693:
 6219              	.LBE3692:
 6220              	.LBB3694:
 6221              		.loc 5 502 0
 6222 003c 83FD0010 		lwz 31,16(29)
 6223              	.LVL485:
 6224              	.LBE3694:
 6225              	.LBB3695:
 6226              	.LBB3696:
 6227              	.LBB3697:
 6228              		.loc 17 671 0
 6229 0040 3BDC0004 		addi 30,28,4
 6230              	.LVL486:
 6231              	.LBE3697:
 6232              	.LBE3696:
 6233              	.LBE3695:
 6234              		.loc 1 524 0
 6235 0044 7F9FF000 		cmpw 7,31,30
 6236 0048 419E0034 		beq- 7,.L365
 6237              	.LVL487:
 6238              	.L392:
 6239              		.loc 1 526 0
 6240 004c 807F0010 		lwz 3,16(31)
 6241 0050 7FA4EB78 		mr 4,29
 6242 0054 81230000 		lwz 9,0(3)
 6243 0058 80090010 		lwz 0,16(9)
 6244 005c 7C0903A6 		mtctr 0
 6245              	.LEHB15:
 6246 0060 4E800421 		bctrl
 6247              	.LEHE15:
 6248              	.LVL488:
 6249              	.LBB3698:
 6250              	.LBB3699:
 6251              		.loc 17 269 0
 6252 0064 7FE3FB78 		mr 3,31
 6253 0068 48000001 		bl _ZSt18_Rb_tree_incrementPKSt18_Rb_tree_node_base
 6254              	.LBE3699:
 6255              	.LBE3698:
 6256              		.loc 1 524 0
 6257 006c 7F9E1800 		cmpw 7,30,3
 6258              	.LBB3701:
 6259              	.LBB3700:
 6260              		.loc 17 269 0
 6261 0070 7C7F1B78 		mr 31,3
 6262              	.LVL489:
 6263              	.LBE3700:
 6264              	.LBE3701:
 6265              		.loc 1 524 0
 6266 0074 409EFFD8 		bne+ 7,.L392
 6267 0078 83FD0010 		lwz 31,16(29)
 6268              	.LVL490:
 6269              	.L365:
 6270              	.LBB3702:
 6271              	.LBB3703:
 6272              	.LBB3704:
 6273              	.LBB3705:
 6274              	.LBB3706:
 6275              	.LBB3707:
 6276              	.LBB3708:
 6277              		.loc 17 665 0
 6278 007c 3B5C0004 		addi 26,28,4
 6279              	.LBE3708:
 6280              	.LBE3707:
 6281              		.loc 17 1500 0
 6282 0080 7F9ED000 		cmpw 7,30,26
 6283 0084 419E0098 		beq- 7,.L367
 6284              	.LVL491:
 6285              		.loc 17 1503 0
 6286 0088 7F9EF800 		cmpw 7,30,31
 6287 008c 40BE000C 		bne+ 7,.L394
 6288 0090 48000038 		b .L368
 6289              	.LVL492:
 6290              	.L389:
 6291              		.loc 17 277 0
 6292 0094 7F7FDB78 		mr 31,27
 6293              	.LVL493:
 6294              	.L394:
 6295              	.LBB3709:
 6296              	.LBB3710:
 6297 0098 7FE3FB78 		mr 3,31
 6298 009c 48000001 		bl _ZSt18_Rb_tree_incrementPKSt18_Rb_tree_node_base
 6299              	.LBE3710:
 6300              	.LBE3709:
 6301              	.LBB3712:
 6302              	.LBB3713:
 6303              	.LBB3714:
 6304              		.loc 17 1489 0
 6305 00a0 7F44D378 		mr 4,26
 6306              	.LBE3714:
 6307              	.LBE3713:
 6308              	.LBE3712:
 6309              	.LBB3723:
 6310              	.LBB3711:
 6311              		.loc 17 277 0
 6312 00a4 7C7B1B78 		mr 27,3
 6313              	.LVL494:
 6314              	.LBE3711:
 6315              	.LBE3723:
 6316              	.LBB3724:
 6317              	.LBB3721:
 6318              	.LBB3719:
 6319              		.loc 17 1489 0
 6320 00a8 7FE3FB78 		mr 3,31
 6321              	.LVL495:
 6322 00ac 48000001 		bl _ZSt28_Rb_tree_rebalance_for_erasePSt18_Rb_tree_node_baseRS_
 6323              	.LBB3715:
 6324              	.LBB3716:
 6325              	.LBB3717:
 6326              	.LBB3718:
 6327              		.loc 16 98 0
 6328 00b0 48000001 		bl _ZdlPv
 6329              	.LBE3718:
 6330              	.LBE3717:
 6331              	.LBE3716:
 6332              	.LBE3715:
 6333              	.LBE3719:
 6334              	.LBE3721:
 6335              	.LBE3724:
 6336              		.loc 17 1503 0
 6337 00b4 7F9ED800 		cmpw 7,30,27
 6338              	.LBB3725:
 6339              	.LBB3722:
 6340              	.LBB3720:
 6341              		.loc 17 1491 0
 6342 00b8 813C0014 		lwz 9,20(28)
 6343 00bc 3809FFFF 		addi 0,9,-1
 6344 00c0 901C0014 		stw 0,20(28)
 6345              	.LBE3720:
 6346              	.LBE3722:
 6347              	.LBE3725:
 6348              		.loc 17 1503 0
 6349 00c4 409EFFD0 		bne+ 7,.L389
 6350              	.LVL496:
 6351              	.L368:
 6352              	.LBE3706:
 6353              	.LBE3705:
 6354              	.LBE3704:
 6355              	.LBE3703:
 6356              	.LBE3702:
 6357              	.LBB3734:
 6358              	.LBB3735:
 6359              	.LBB3736:
 6360              		.loc 1 343 0
 6361 00c8 813D0000 		lwz 9,0(29)
 6362 00cc 7FA3EB78 		mr 3,29
 6363 00d0 8009000C 		lwz 0,12(9)
 6364 00d4 7C0903A6 		mtctr 0
 6365              	.LEHB16:
 6366 00d8 4E800421 		bctrl
 6367              	.LEHE16:
 6368              	.LVL497:
 6369              	.LBE3736:
 6370              	.LBE3735:
 6371              	.LBE3734:
 6372              	.LBE3691:
 6373              	.LBE3690:
 6374              	.LBB3743:
 6375              	.LBB3744:
 6376              	.LBB3745:
 6377              	.LBB3746:
 6378              	.LBB3747:
 6379              		.loc 17 639 0
 6380 00dc 809D000C 		lwz 4,12(29)
 6381 00e0 7F83E378 		mr 3,28
 6382 00e4 48000001 		bl _ZNSt8_Rb_treeIPN7sigslot12_signal_baseINS0_15single_threadedEEES4_St9_IdentityIS4_ESt4lessIS4_
 6383              	.LVL498:
 6384              	.LBE3747:
 6385              	.LBE3746:
 6386              	.LBE3745:
 6387              	.LBE3744:
 6388              	.LBE3743:
 6389              	.LBB3748:
 6390              	.LBB3749:
 6391              	.LBB3750:
 6392              		.loc 1 105 0
 6393 00e8 3D200000 		lis 9,_ZTVN7sigslot15single_threadedE+8@ha
 6394 00ec 38090008 		la 0,_ZTVN7sigslot15single_threadedE+8@l(9)
 6395              	.LBE3750:
 6396              	.LBE3749:
 6397              	.LBE3748:
 6398              	.LBE3766:
 6399              		.loc 1 516 0
 6400 00f0 83410008 		lwz 26,8(1)
 6401              	.LBB3767:
 6402              	.LBB3753:
 6403              	.LBB3752:
 6404              	.LBB3751:
 6405              		.loc 1 105 0
 6406 00f4 901D0000 		stw 0,0(29)
 6407              	.LBE3751:
 6408              	.LBE3752:
 6409              	.LBE3753:
 6410              	.LBE3767:
 6411              		.loc 1 516 0
 6412 00f8 80010024 		lwz 0,36(1)
 6413 00fc 8361000C 		lwz 27,12(1)
 6414 0100 7C0803A6 		mtlr 0
 6415 0104 83810010 		lwz 28,16(1)
 6416              	.LVL499:
 6417 0108 83A10014 		lwz 29,20(1)
 6418              	.LVL500:
 6419 010c 83C10018 		lwz 30,24(1)
 6420              	.LVL501:
 6421 0110 83E1001C 		lwz 31,28(1)
 6422 0114 38210020 		addi 1,1,32
 6423              		.cfi_remember_state
 6424              	.LCFI137:
 6425              		.cfi_def_cfa_offset 0
 6426              		.cfi_restore 31
 6427              		.cfi_restore 30
 6428              		.cfi_restore 29
 6429              		.cfi_restore 28
 6430              		.cfi_restore 27
 6431              		.cfi_restore 26
 6432 0118 4E800020 		blr
 6433              	.LVL502:
 6434              	.L367:
 6435              	.LCFI138:
 6436              		.cfi_restore_state
 6437              	.LBB3768:
 6438              	.LBB3754:
 6439              	.LBB3741:
 6440              	.LBB3737:
 6441              	.LBB3733:
 6442              	.LBB3732:
 6443              	.LBB3731:
 6444              	.LBB3730:
 6445              	.LBB3726:
 6446              	.LBB3727:
 6447              	.LBB3728:
 6448              	.LBB3729:
 6449              		.loc 17 809 0
 6450 011c 809D000C 		lwz 4,12(29)
 6451 0120 7F83E378 		mr 3,28
 6452 0124 48000001 		bl _ZNSt8_Rb_treeIPN7sigslot12_signal_baseINS0_15single_threadedEEES4_St9_IdentityIS4_ESt4lessIS4_
 6453              	.LVL503:
 6454              		.loc 17 811 0
 6455 0128 38000000 		li 0,0
 6456              		.loc 17 810 0
 6457 012c 93DD0010 		stw 30,16(29)
 6458              	.LVL504:
 6459              		.loc 17 811 0
 6460 0130 901D000C 		stw 0,12(29)
 6461              	.LVL505:
 6462              		.loc 17 812 0
 6463 0134 93DD0014 		stw 30,20(29)
 6464              		.loc 17 813 0
 6465 0138 901D0018 		stw 0,24(29)
 6466 013c 4BFFFF8C 		b .L368
 6467              	.LVL506:
 6468              	.L390:
 6469 0140 7C7F1B78 		mr 31,3
 6470              	.L375:
 6471              	.LVL507:
 6472              	.LBE3729:
 6473              	.LBE3728:
 6474              	.LBE3727:
 6475              	.LBE3726:
 6476              	.LBE3730:
 6477              	.LBE3731:
 6478              	.LBE3732:
 6479              	.LBE3733:
 6480              	.LBE3737:
 6481              	.LBE3741:
 6482              	.LBE3754:
 6483              	.LBB3755:
 6484              	.LBB3756:
 6485              	.LBB3757:
 6486              	.LBB3758:
 6487              	.LBB3759:
 6488              	.LBB3760:
 6489              		.loc 17 639 0
 6490 0144 809D000C 		lwz 4,12(29)
 6491 0148 7F83E378 		mr 3,28
 6492 014c 48000001 		bl _ZNSt8_Rb_treeIPN7sigslot12_signal_baseINS0_15single_threadedEEES4_St9_IdentityIS4_ESt4lessIS4_
 6493              	.LVL508:
 6494              	.LBE3760:
 6495              	.LBE3759:
 6496              	.LBE3758:
 6497              	.LBE3757:
 6498              	.LBE3756:
 6499              	.LBE3755:
 6500              	.LBB3761:
 6501              	.LBB3762:
 6502              	.LBB3763:
 6503              		.loc 1 105 0
 6504 0150 3D200000 		lis 9,_ZTVN7sigslot15single_threadedE+8@ha
 6505 0154 38090008 		la 0,_ZTVN7sigslot15single_threadedE+8@l(9)
 6506 0158 7FE3FB78 		mr 3,31
 6507 015c 901D0000 		stw 0,0(29)
 6508              	.LEHB17:
 6509 0160 48000001 		bl _Unwind_Resume
 6510              	.LEHE17:
 6511              	.LVL509:
 6512              	.L391:
 6513              	.LBE3763:
 6514              	.LBE3762:
 6515              	.LBE3761:
 6516              	.LBB3764:
 6517              	.LBB3742:
 6518              	.LBB3738:
 6519              	.LBB3739:
 6520              	.LBB3740:
 6521              		.loc 1 343 0
 6522 0164 813D0000 		lwz 9,0(29)
 6523 0168 7C7F1B78 		mr 31,3
 6524              	.LVL510:
 6525 016c 7FA3EB78 		mr 3,29
 6526 0170 8009000C 		lwz 0,12(9)
 6527 0174 7C0903A6 		mtctr 0
 6528 0178 4E800421 		bctrl
 6529 017c 4BFFFFC8 		b .L375
 6530              	.LBE3740:
 6531              	.LBE3739:
 6532              	.LBE3738:
 6533              	.LBE3742:
 6534              	.LBE3764:
 6535              	.LBE3768:
 6536              		.cfi_endproc
 6537              	.LFE1671:
 6538              		.section	.gcc_except_table
 6539              	.LLSDA1671:
 6540 0056 FF       		.byte	0xff
 6541 0057 FF       		.byte	0xff
 6542 0058 01       		.byte	0x1
 6543 0059 15       		.uleb128 .LLSDACSE1671-.LLSDACSB1671
 6544              	.LLSDACSB1671:
 6545 005a 38       		.uleb128 .LEHB14-.LFB1671
 6546 005b 04       		.uleb128 .LEHE14-.LEHB14
 6547 005c C002     		.uleb128 .L390-.LFB1671
 6548 005e 00       		.uleb128 0
 6549 005f 60       		.uleb128 .LEHB15-.LFB1671
 6550 0060 04       		.uleb128 .LEHE15-.LEHB15
 6551 0061 E402     		.uleb128 .L391-.LFB1671
 6552 0063 00       		.uleb128 0
 6553 0064 D801     		.uleb128 .LEHB16-.LFB1671
 6554 0066 04       		.uleb128 .LEHE16-.LEHB16
 6555 0067 C002     		.uleb128 .L390-.LFB1671
 6556 0069 00       		.uleb128 0
 6557 006a E002     		.uleb128 .LEHB17-.LFB1671
 6558 006c 04       		.uleb128 .LEHE17-.LEHB17
 6559 006d 00       		.uleb128 0
 6560 006e 00       		.uleb128 0
 6561              	.LLSDACSE1671:
 6562              		.section	.text._ZN7sigslot9has_slotsINS_15single_threadedEED2Ev,"axG",@progbits,_ZN7sigslot9has_sl
 6563              		.size	_ZN7sigslot9has_slotsINS_15single_threadedEED2Ev, .-_ZN7sigslot9has_slotsINS_15single_thread
 6564              		.section	".text"
 6565              		.align 2
 6566              		.globl _ZThn188_N11MusicPlayerD1Ev
 6567              		.type	_ZThn188_N11MusicPlayerD1Ev, @function
 6568              	_ZThn188_N11MusicPlayerD1Ev:
 6569              	.LFB2332:
 6570              		.cfi_startproc
 6571 0f28 3863FF44 		addi 3,3,-188
 6572 0f2c 4800000C 		b .LTHUNK0
 6573              		.cfi_endproc
 6574              	.LFE2332:
 6575              		.size	_ZThn188_N11MusicPlayerD1Ev, .-_ZThn188_N11MusicPlayerD1Ev
 6576              		.align 2
 6577              		.globl _ZThn176_N11MusicPlayerD1Ev
 6578              		.type	_ZThn176_N11MusicPlayerD1Ev, @function
 6579              	_ZThn176_N11MusicPlayerD1Ev:
 6580              	.LFB2333:
 6581              		.cfi_startproc
 6582 0f30 3863FF50 		addi 3,3,-176
 6583 0f34 48000004 		b .LTHUNK1
 6584              		.cfi_endproc
 6585              	.LFE2333:
 6586              		.size	_ZThn176_N11MusicPlayerD1Ev, .-_ZThn176_N11MusicPlayerD1Ev
 6587              		.align 2
 6588              		.globl _ZN11MusicPlayerD2Ev
 6589              		.type	_ZN11MusicPlayerD2Ev, @function
 6590              	_ZN11MusicPlayerD2Ev:
 6591              	.LFB1613:
 6592              		.loc 5 87 0
 6593              		.cfi_startproc
 6594              		.cfi_personality 0,__gxx_personality_v0
 6595              		.cfi_lsda 0,.LLSDA1613
 6596              	.LVL511:
 6597 0f38 7C0802A6 		mflr 0
 6598 0f3c 9421FFD0 		stwu 1,-48(1)
 6599              	.LCFI139:
 6600              		.cfi_def_cfa_offset 48
 6601              		.cfi_register 65, 0
 6602              	.LBB3915:
 6603 0f40 3D200000 		lis 9,_ZTV11MusicPlayer+8@ha
 6604 0f44 39290008 		la 9,_ZTV11MusicPlayer+8@l(9)
 6605              	.LBE3915:
 6606 0f48 9361001C 		stw 27,28(1)
 6607 0f4c 90010034 		stw 0,52(1)
 6608              	.LBB4095:
 6609 0f50 38090118 		addi 0,9,280
 6610              		.cfi_offset 65, 4
 6611              		.cfi_offset 27, -20
 6612              	.LBE4095:
 6613 0f54 93C10028 		stw 30,40(1)
 6614              	.LBB4096:
 6615 0f58 396900E8 		addi 11,9,232
 6616              	.LBE4096:
 6617 0f5c 93810020 		stw 28,32(1)
 6618 0f60 7C7E1B78 		mr 30,3
 6619              		.cfi_offset 28, -16
 6620              		.cfi_offset 30, -8
 6621 0f64 93A10024 		stw 29,36(1)
 6622 0f68 3B6300B0 		addi 27,3,176
 6623 0f6c 93E1002C 		stw 31,44(1)
 6624              	.LBB4097:
 6625              		.loc 5 87 0
 6626 0f70 900300BC 		stw 0,188(3)
 6627              		.loc 5 89 0
 6628 0f74 38000001 		li 0,1
 6629              		.loc 5 87 0
 6630 0f78 91230000 		stw 9,0(3)
 6631 0f7c 916300B0 		stw 11,176(3)
 6632              		.loc 5 89 0
 6633 0f80 980300DC 		stb 0,220(3)
 6634              	.LEHB18:
 6635              		.loc 5 91 0
 6636              		.cfi_offset 31, -4
 6637              		.cfi_offset 29, -12
 6638 0f84 48000001 		bl _ZN11MusicPlayer4HideEv
 6639              	.LVL512:
 6640              	.LBB3916:
 6641              	.LBB3917:
 6642              		.loc 4 65 0
 6643 0f88 801E00B4 		lwz 0,180(30)
 6644              	.LVL513:
 6645 0f8c 2F80FFFF 		cmpwi 7,0,-1
 6646 0f90 419E0024 		beq- 7,.L397
 6647              		.loc 4 67 0
 6648 0f94 813E00B0 		lwz 9,176(30)
 6649 0f98 7F63DB78 		mr 3,27
 6650 0f9c 80090018 		lwz 0,24(9)
 6651 0fa0 7C0903A6 		mtctr 0
 6652 0fa4 4E800421 		bctrl
 6653              		.loc 4 68 0
 6654 0fa8 807E00B4 		lwz 3,180(30)
 6655 0fac 38800000 		li 4,0
 6656 0fb0 48000001 		bl LWP_JoinThread
 6657              	.L397:
 6658              		.loc 4 71 0
 6659 0fb4 807E00B8 		lwz 3,184(30)
 6660 0fb8 2F830000 		cmpwi 7,3,0
 6661 0fbc 419E0008 		beq- 7,.L398
 6662              		.loc 4 72 0
 6663 0fc0 48000001 		bl free
 6664              	.L398:
 6665              	.LBE3917:
 6666              	.LBE3916:
 6667              		.loc 5 95 0
 6668 0fc4 807E00F0 		lwz 3,240(30)
 6669              	.LBB3920:
 6670              	.LBB3918:
 6671              		.loc 4 74 0
 6672 0fc8 3800FFFF 		li 0,-1
 6673 0fcc 901E00B4 		stw 0,180(30)
 6674              		.loc 4 75 0
 6675 0fd0 38000000 		li 0,0
 6676              	.LBE3918:
 6677              	.LBE3920:
 6678              		.loc 5 95 0
 6679 0fd4 2F830000 		cmpwi 7,3,0
 6680              	.LBB3921:
 6681              	.LBB3919:
 6682              		.loc 4 75 0
 6683 0fd8 901E00B8 		stw 0,184(30)
 6684              	.LBE3919:
 6685              	.LBE3921:
 6686              		.loc 5 95 0
 6687 0fdc 419E0008 		beq- 7,.L399
 6688              		.loc 5 96 0
 6689 0fe0 48000001 		bl _ZN9Resources6RemoveEP8GuiSound
 6690              	.LEHE18:
 6691              	.L399:
 6692              	.LVL514:
 6693              	.LBB3922:
 6694              	.LBB3923:
 6695              	.LBB3924:
 6696              	.LBB3925:
 6697              	.LBB3926:
 6698              	.LBB3927:
 6699              		.loc 8 288 0
 6700 0fe4 813E026C 		lwz 9,620(30)
 6701              	.LBE3927:
 6702              	.LBE3926:
 6703              	.LBE3925:
 6704              	.LBB3928:
 6705              	.LBB3929:
 6706              		.loc 8 235 0
 6707 0fe8 3FE00000 		lis 31,_ZNSs4_Rep20_S_empty_rep_storageE@ha
 6708 0fec 3BFF0000 		la 31,_ZNSs4_Rep20_S_empty_rep_storageE@l(31)
 6709              	.LBE3929:
 6710              	.LBE3928:
 6711              		.loc 8 534 0
 6712 0ff0 3869FFF4 		addi 3,9,-12
 6713              	.LVL515:
 6714              	.LBB3938:
 6715              	.LBB3936:
 6716              		.loc 8 235 0
 6717 0ff4 7F83F800 		cmpw 7,3,31
 6718 0ff8 409E01F8 		bne- 7,.L455
 6719              	.LVL516:
 6720              	.L405:
 6721              	.LBE3936:
 6722              	.LBE3938:
 6723              	.LBE3924:
 6724              	.LBE3923:
 6725              	.LBE3922:
 6726              		.loc 5 87 0
 6727 0ffc 387E0100 		addi 3,30,256
 6728              	.LEHB19:
 6729 1000 48000001 		bl _ZN8PlayListD1Ev
 6730              	.LEHE19:
 6731              	.LVL517:
 6732              	.LBB3942:
 6733              	.LBB3943:
 6734              	.LBB3944:
 6735              	.LBB3945:
 6736              	.LBB3946:
 6737              	.LBB3947:
 6738              		.loc 8 288 0 discriminator 2
 6739 1004 813E00E0 		lwz 9,224(30)
 6740              	.LBE3947:
 6741              	.LBE3946:
 6742              	.LBE3945:
 6743              		.loc 8 534 0 discriminator 2
 6744 1008 3869FFF4 		addi 3,9,-12
 6745              	.LVL518:
 6746              	.LBB3948:
 6747              	.LBB3949:
 6748              		.loc 8 235 0 discriminator 2
 6749 100c 7F83F800 		cmpw 7,3,31
 6750 1010 409E01B8 		bne- 7,.L456
 6751              	.LVL519:
 6752              	.L411:
 6753              	.LBE3949:
 6754              	.LBE3948:
 6755              	.LBE3944:
 6756              	.LBE3943:
 6757              	.LBE3942:
 6758              	.LBB3960:
 6759              	.LBB3961:
 6760              	.LBB3962:
 6761              		.loc 1 516 0 discriminator 2
 6762 1014 3D200000 		lis 9,_ZTVN7sigslot9has_slotsINS_15single_threadedEEE+8@ha
 6763              	.LBE3962:
 6764              	.LBE3961:
 6765              	.LBE3960:
 6766              		.loc 5 87 0 discriminator 2
 6767 1018 3B9E00BC 		addi 28,30,188
 6768              	.LVL520:
 6769              	.LBB4062:
 6770              	.LBB4057:
 6771              	.LBB4052:
 6772              		.loc 1 516 0 discriminator 2
 6773 101c 38090008 		la 0,_ZTVN7sigslot9has_slotsINS_15single_threadedEEE+8@l(9)
 6774              	.LBB3963:
 6775              	.LBB3964:
 6776              	.LBB3965:
 6777              	.LBB3966:
 6778              		.loc 1 338 0 discriminator 2
 6779 1020 7F83E378 		mr 3,28
 6780              	.LBE3966:
 6781              	.LBE3965:
 6782              	.LBE3964:
 6783              	.LBE3963:
 6784              		.loc 1 516 0 discriminator 2
 6785 1024 901E00BC 		stw 0,188(30)
 6786              	.LVL521:
