   1              		.file	"nandtitle.cpp"
   2              		.section	".text"
   3              	.Ltext0:
   4              		.align 2
   5              		.globl _ZN9NandTitleC2Ev
   6              		.type	_ZN9NandTitleC2Ev, @function
   7              	_ZN9NandTitleC2Ev:
   8              	.LFB1066:
   9              		.file 1 "d:/Projects/SaveGameManager/savegame-manager-gx/trunk/source/System/nandtitle.cpp"
  10              		.loc 1 13 0
  11              		.cfi_startproc
  12              	.LVL0:
  13              	.LBB1157:
  14              	.LBB1158:
  15              	.LBB1159:
  16              	.LBB1160:
  17              	.LBB1161:
  18              		.file 2 "d:\\devkitpro\\devkitppc\\bin\\../lib/gcc/powerpc-eabi/4.6.3/../../../../powerpc-eabi/inc
  19              		.loc 2 83 0
  20 0000 38000000 		li 0,0
  21              	.LBE1161:
  22              	.LBE1160:
  23              	.LBE1159:
  24              	.LBE1158:
  25              	.LBB1168:
  26              	.LBB1169:
  27              	.LBB1170:
  28              	.LBB1171:
  29              	.LBB1172:
  30              	.LBB1173:
  31              		.file 3 "d:\\devkitpro\\devkitppc\\bin\\../lib/gcc/powerpc-eabi/4.6.3/../../../../powerpc-eabi/inc
  32              		.loc 3 459 0
  33 0004 39230010 		addi 9,3,16
  34              	.LBE1173:
  35              	.LBE1172:
  36              	.LBE1171:
  37              	.LBE1170:
  38              	.LBE1169:
  39              	.LBE1168:
  40              	.LBB1179:
  41              	.LBB1166:
  42              	.LBB1164:
  43              	.LBB1162:
  44              		.loc 2 83 0
  45 0008 90030000 		stw 0,0(3)
  46              	.LBE1162:
  47              	.LBE1164:
  48              	.LBE1166:
  49              	.LBE1179:
  50              	.LBE1157:
  51              		.loc 1 17 0
  52              	.LBB1182:
  53              	.LBB1180:
  54              	.LBB1167:
  55              	.LBB1165:
  56              	.LBB1163:
  57              		.loc 2 83 0
  58 000c 90030004 		stw 0,4(3)
  59 0010 90030008 		stw 0,8(3)
  60              	.LVL1:
  61              	.LBE1163:
  62              	.LBE1165:
  63              	.LBE1167:
  64              	.LBE1180:
  65              	.LBB1181:
  66              	.LBB1178:
  67              	.LBB1177:
  68              	.LBB1176:
  69              		.loc 3 445 0
  70 0014 90030010 		stw 0,16(3)
  71 0018 90030014 		stw 0,20(3)
  72 001c 90030020 		stw 0,32(3)
  73              	.LVL2:
  74              	.LBB1175:
  75              	.LBB1174:
  76              		.loc 3 459 0
  77 0020 91230018 		stw 9,24(3)
  78              		.loc 3 460 0
  79 0024 9123001C 		stw 9,28(3)
  80              	.LBE1174:
  81              	.LBE1175:
  82              	.LBE1176:
  83              	.LBE1177:
  84              	.LBE1178:
  85              	.LBE1181:
  86              		.loc 1 15 0
  87 0028 90030024 		stw 0,36(3)
  88              		.loc 1 16 0
  89 002c 90030028 		stw 0,40(3)
  90              	.LBE1182:
  91              		.loc 1 17 0
  92 0030 4E800020 		blr
  93              		.cfi_endproc
  94              	.LFE1066:
  95              		.size	_ZN9NandTitleC2Ev, .-_ZN9NandTitleC2Ev
  96              		.align 2
  97              		.globl _ZN9NandTitle6GetTMDEy
  98              		.type	_ZN9NandTitle6GetTMDEy, @function
  99              	_ZN9NandTitle6GetTMDEy:
 100              	.LFB1075:
 101              		.loc 1 75 0
 102              		.cfi_startproc
 103              	.LVL3:
 104 0034 9421FFD0 		stwu 1,-48(1)
 105              	.LCFI0:
 106              		.cfi_def_cfa_offset 48
 107 0038 7C0802A6 		mflr 0
 108              	.LBB1184:
 109              		.loc 1 79 0
 110 003c 7CA32B78 		mr 3,5
 111              	.LVL4:
 112 0040 7CC43378 		mr 4,6
 113              	.LBE1184:
 114              		.loc 1 75 0
 115 0044 93C10028 		stw 30,40(1)
 116 0048 7CBE2B78 		mr 30,5
 117              		.cfi_offset 30, -8
 118              		.cfi_register 65, 0
 119              	.LBB1185:
 120              		.loc 1 79 0
 121 004c 38A10008 		addi 5,1,8
 122              	.LVL5:
 123              	.LBE1185:
 124              		.loc 1 75 0
 125 0050 93A10024 		stw 29,36(1)
 126 0054 93E1002C 		stw 31,44(1)
 127 0058 7CDF3378 		mr 31,6
 128              		.cfi_offset 31, -4
 129              		.cfi_offset 29, -12
 130 005c 90010034 		stw 0,52(1)
 131              	.LBB1186:
 132              		.loc 1 80 0
 133 0060 3BA00000 		li 29,0
 134              	.LBE1186:
 135              		.loc 1 75 0
 136 0064 9361001C 		stw 27,28(1)
 137 0068 93810020 		stw 28,32(1)
 138              	.LBB1187:
 139              		.loc 1 79 0
 140              		.cfi_offset 28, -16
 141              		.cfi_offset 27, -20
 142              		.cfi_offset 65, 4
 143 006c 48000001 		bl ES_GetStoredTMDSize
 144 0070 2F830000 		cmpwi 7,3,0
 145 0074 419C0060 		blt- 7,.L3
 146              		.loc 1 82 0
 147 0078 3F600000 		lis 27,.LANCHOR0@ha
 148              	.LVL6:
 149 007c 80C10008 		lwz 6,8(1)
 150 0080 3B9B0000 		la 28,.LANCHOR0@l(27)
 151 0084 7FC3F378 		mr 3,30
 152 0088 7FE4FB78 		mr 4,31
 153 008c 7F85E378 		mr 5,28
 154 0090 48000001 		bl ES_GetStoredTMD
 155              	.LVL7:
 156              		.loc 1 83 0
 157 0094 2F830000 		cmpwi 7,3,0
 158 0098 419C003C 		blt- 7,.L3
 159              		.loc 1 86 0
 160 009c 801B0000 		lwz 0,.LANCHOR0@l(27)
 161 00a0 3D200001 		lis 9,0x1
 162 00a4 61290001 		ori 9,9,1
 163 00a8 3BBC0140 		addi 29,28,320
 164 00ac 7F804800 		cmpw 7,0,9
 165 00b0 419E0024 		beq- 7,.L3
 166              		.loc 1 86 0 is_stmt 0 discriminator 1
 167 00b4 3D200001 		lis 9,0x1
 168 00b8 3BBC0240 		addi 29,28,576
 169 00bc 7F804800 		cmpw 7,0,9
 170 00c0 419E0014 		beq- 7,.L3
 171              		.loc 1 86 0 discriminator 3
 172 00c4 61290002 		ori 9,9,2
 173 00c8 7F9DE378 		mr 29,28
 174 00cc 7F804800 		cmpw 7,0,9
 175 00d0 419E002C 		beq- 7,.L11
 176              	.LVL8:
 177              	.L3:
 178              	.LBE1187:
 179              		.loc 1 89 0 is_stmt 1
 180 00d4 80010034 		lwz 0,52(1)
 181 00d8 7FA3EB78 		mr 3,29
 182 00dc 8361001C 		lwz 27,28(1)
 183 00e0 7C0803A6 		mtlr 0
 184 00e4 83810020 		lwz 28,32(1)
 185 00e8 83A10024 		lwz 29,36(1)
 186 00ec 83C10028 		lwz 30,40(1)
 187 00f0 83E1002C 		lwz 31,44(1)
 188 00f4 38210030 		addi 1,1,48
 189              		.cfi_remember_state
 190              	.LCFI1:
 191              		.cfi_def_cfa_offset 0
 192              		.cfi_restore 31
 193              		.cfi_restore 30
 194              		.cfi_restore 29
 195              		.cfi_restore 28
 196              		.cfi_restore 27
 197 00f8 4E800020 		blr
 198              	.LVL9:
 199              	.L11:
 200              	.LCFI2:
 201              		.cfi_restore_state
 202 00fc 80010034 		lwz 0,52(1)
 203              	.LBB1188:
 204              		.loc 1 86 0
 205 0100 3BBC0080 		addi 29,28,128
 206              	.LBE1188:
 207              		.loc 1 89 0
 208 0104 7FA3EB78 		mr 3,29
 209              	.LVL10:
 210 0108 8361001C 		lwz 27,28(1)
 211 010c 7C0803A6 		mtlr 0
 212 0110 83810020 		lwz 28,32(1)
 213 0114 83A10024 		lwz 29,36(1)
 214 0118 83C10028 		lwz 30,40(1)
 215 011c 83E1002C 		lwz 31,44(1)
 216 0120 38210030 		addi 1,1,48
 217              		.cfi_restore 27
 218              		.cfi_restore 28
 219              		.cfi_restore 29
 220              		.cfi_restore 30
 221              		.cfi_restore 31
 222              	.LCFI3:
 223              		.cfi_def_cfa_offset 0
 224 0124 4E800020 		blr
 225              		.cfi_endproc
 226              	.LFE1075:
 227              		.size	_ZN9NandTitle6GetTMDEy, .-_ZN9NandTitle6GetTMDEy
 228              		.align 2
 229              		.globl _ZN9NandTitle7GetNameEyiPw
 230              		.type	_ZN9NandTitle7GetNameEyiPw, @function
 231              	_ZN9NandTitle7GetNameEyiPw:
 232              	.LFB1076:
 233              		.loc 1 92 0
 234              		.cfi_startproc
 235              		.cfi_personality 0,__gxx_personality_v0
 236              		.cfi_lsda 0,.LLSDA1076
 237              	.LVL11:
 238 0128 7C0802A6 		mflr 0
 239 012c 9421FFC0 		stwu 1,-64(1)
 240              	.LCFI4:
 241              		.cfi_def_cfa_offset 64
 242              		.cfi_register 65, 0
 243              	.LBB1223:
 244              		.loc 1 93 0
 245 0130 3D25FFFF 		addis 9,5,0xffff
 246 0134 3929FFFF 		addi 9,9,-1
 247              	.LBE1223:
 248              		.loc 1 92 0
 249 0138 93210024 		stw 25,36(1)
 250 013c 90010044 		stw 0,68(1)
 251              	.LBB1266:
 252              		.loc 1 93 0
 253 0140 2B890001 		cmplwi 7,9,1
 254              	.LBE1266:
 255              		.loc 1 92 0
 256 0144 80010000 		lwz 0,0(1)
 257              		.cfi_offset 65, 4
 258              		.cfi_offset 25, -28
 259 0148 93410028 		stw 26,40(1)
 260 014c 7CBA2B78 		mr 26,5
 261              		.cfi_offset 26, -24
 262 0150 9361002C 		stw 27,44(1)
 263 0154 7D1B4378 		mr 27,8
 264              		.cfi_offset 27, -20
 265 0158 93A10034 		stw 29,52(1)
 266 015c 7CFD3B78 		mr 29,7
 267              		.cfi_offset 29, -12
 268 0160 93C10038 		stw 30,56(1)
 269 0164 7CDE3378 		mr 30,6
 270              		.cfi_offset 30, -8
 271 0168 93E1003C 		stw 31,60(1)
 272 016c 7C3F0B78 		mr 31,1
 273              		.cfi_offset 31, -4
 274              	.LCFI5:
 275              		.cfi_def_cfa_register 31
 276 0170 92E1001C 		stw 23,28(1)
 277 0174 93010020 		stw 24,32(1)
 278 0178 93810030 		stw 28,48(1)
 279              		.loc 1 92 0
 280 017c 9401FFA0 		stwu 0,-96(1)
 281 0180 3B210027 		addi 25,1,39
 282 0184 57390034 		rlwinm 25,25,0,0,26
 283              	.LBB1267:
 284              		.loc 1 93 0
 285 0188 409D0050 		ble- 7,.L13
 286              		.cfi_offset 28, -16
 287              		.cfi_offset 24, -32
 288              		.cfi_offset 23, -36
 289              		.loc 1 93 0 is_stmt 0 discriminator 1
 290 018c 3C000001 		lis 0,0x1
 291              		.loc 1 96 0 is_stmt 1 discriminator 1
 292 0190 38600000 		li 3,0
 293              	.LVL12:
 294              		.loc 1 93 0 discriminator 1
 295 0194 60000004 		ori 0,0,4
 296 0198 7F850000 		cmpw 7,5,0
 297 019c 419E003C 		beq- 7,.L13
 298              	.LVL13:
 299              	.L14:
 300              	.LBE1267:
 301              		.loc 1 186 0
 302 01a0 397F0040 		addi 11,31,64
 303 01a4 800B0004 		lwz 0,4(11)
 304 01a8 82EBFFDC 		lwz 23,-36(11)
 305 01ac 7C0803A6 		mtlr 0
 306 01b0 830BFFE0 		lwz 24,-32(11)
 307 01b4 832BFFE4 		lwz 25,-28(11)
 308 01b8 834BFFE8 		lwz 26,-24(11)
 309 01bc 836BFFEC 		lwz 27,-20(11)
 310 01c0 838BFFF0 		lwz 28,-16(11)
 311 01c4 83ABFFF4 		lwz 29,-12(11)
 312 01c8 83CBFFF8 		lwz 30,-8(11)
 313 01cc 83EBFFFC 		lwz 31,-4(11)
 314              		.cfi_remember_state
 315              	.LCFI6:
 316              		.cfi_def_cfa 11, 0
 317 01d0 7D615B78 		mr 1,11
 318              	.LCFI7:
 319              		.cfi_def_cfa_register 1
 320              		.cfi_restore 31
 321              		.cfi_restore 30
 322              		.cfi_restore 29
 323              		.cfi_restore 28
 324              		.cfi_restore 27
 325              		.cfi_restore 26
 326              		.cfi_restore 25
 327              		.cfi_restore 24
 328              		.cfi_restore 23
 329 01d4 4E800020 		blr
 330              	.LVL14:
 331              	.L13:
 332              	.LCFI8:
 333              		.cfi_restore_state
 334              	.LBB1268:
 335              		.loc 1 99 0
 336 01d8 38800600 		li 4,1536
 337 01dc 38600020 		li 3,32
 338              	.LEHB0:
 339 01e0 48000001 		bl memalign
 340              	.LVL15:
 341              	.LBB1224:
 342              	.LBB1225:
 343              		.loc 1 79 0
 344 01e4 7FC4F378 		mr 4,30
 345              	.LBE1225:
 346              	.LBE1224:
 347              		.loc 1 99 0
 348 01e8 7C7C1B78 		mr 28,3
 349              	.LVL16:
 350              	.LBB1228:
 351              	.LBB1226:
 352              		.loc 1 79 0
 353 01ec 38BF000C 		addi 5,31,12
 354 01f0 7F43D378 		mr 3,26
 355              	.LVL17:
 356 01f4 48000001 		bl ES_GetStoredTMDSize
 357 01f8 2F830000 		cmpwi 7,3,0
 358 01fc 419C00A8 		blt- 7,.L15
 359              		.loc 1 82 0
 360 0200 3EE00000 		lis 23,.LANCHOR0@ha
 361              	.LVL18:
 362 0204 80DF000C 		lwz 6,12(31)
 363 0208 3B170000 		la 24,.LANCHOR0@l(23)
 364 020c 7F43D378 		mr 3,26
 365 0210 7FC4F378 		mr 4,30
 366 0214 7F05C378 		mr 5,24
 367 0218 48000001 		bl ES_GetStoredTMD
 368              	.LVL19:
 369              		.loc 1 83 0
 370 021c 2F830000 		cmpwi 7,3,0
 371 0220 419C0084 		blt- 7,.L15
 372              		.loc 1 86 0
 373 0224 80170000 		lwz 0,.LANCHOR0@l(23)
 374 0228 3D200001 		lis 9,0x1
 375 022c 61290001 		ori 9,9,1
 376 0230 38F80140 		addi 7,24,320
 377 0234 7F804800 		cmpw 7,0,9
 378 0238 419E0024 		beq- 7,.L16
 379 023c 3D200001 		lis 9,0x1
 380 0240 38F80240 		addi 7,24,576
 381 0244 7F804800 		cmpw 7,0,9
 382 0248 419E0014 		beq- 7,.L16
 383 024c 61290002 		ori 9,9,2
 384 0250 7F07C378 		mr 7,24
 385 0254 7F804800 		cmpw 7,0,9
 386 0258 419E01FC 		beq- 7,.L47
 387              	.L16:
 388              	.LVL20:
 389              	.LBE1226:
 390              	.LBE1228:
 391              		.loc 1 110 0
 392 025c A147009E 		lhz 10,158(7)
 393 0260 2F8A0000 		cmpwi 7,10,0
 394 0264 419E0040 		beq- 7,.L15
 395              		.loc 1 112 0
 396 0268 A00700A8 		lhz 0,168(7)
 397 026c 7CEB3B78 		mr 11,7
 398 0270 39200001 		li 9,1
 399 0274 2F800000 		cmpwi 7,0,0
 400 0278 40BE0020 		bne+ 7,.L19
 401 027c 4800006C 		b .L51
 402              	.LVL21:
 403              	.L20:
 404 0280 A00B00CC 		lhz 0,204(11)
 405 0284 7D284B78 		mr 8,9
 406 0288 396B0024 		addi 11,11,36
 407 028c 39290001 		addi 9,9,1
 408 0290 2F800000 		cmpwi 7,0,0
 409 0294 419E0058 		beq- 7,.L18
 410              	.L19:
 411              		.loc 1 110 0
 412 0298 5520043E 		rlwinm 0,9,0,0xffff
 413 029c 7F805040 		cmplw 7,0,10
 414 02a0 419CFFE0 		blt+ 7,.L20
 415              	.LVL22:
 416              	.L15:
 417              		.loc 1 104 0
 418 02a4 7F83E378 		mr 3,28
 419 02a8 48000001 		bl free
 420              	.LBE1268:
 421              		.loc 1 186 0
 422 02ac 397F0040 		addi 11,31,64
 423 02b0 800B0004 		lwz 0,4(11)
 424              	.LBB1269:
 425              		.loc 1 105 0
 426 02b4 38600000 		li 3,0
 427              	.LBE1269:
 428              		.loc 1 186 0
 429 02b8 82EBFFDC 		lwz 23,-36(11)
 430 02bc 7C0803A6 		mtlr 0
 431 02c0 830BFFE0 		lwz 24,-32(11)
 432 02c4 832BFFE4 		lwz 25,-28(11)
 433 02c8 834BFFE8 		lwz 26,-24(11)
 434 02cc 836BFFEC 		lwz 27,-20(11)
 435              	.LVL23:
 436 02d0 838BFFF0 		lwz 28,-16(11)
 437              	.LVL24:
 438 02d4 83ABFFF4 		lwz 29,-12(11)
 439              	.LVL25:
 440 02d8 83CBFFF8 		lwz 30,-8(11)
 441 02dc 83EBFFFC 		lwz 31,-4(11)
 442              		.cfi_remember_state
 443              	.LCFI9:
 444              		.cfi_def_cfa 11, 0
 445 02e0 7D615B78 		mr 1,11
 446              		.cfi_restore 23
 447              		.cfi_restore 24
 448              		.cfi_restore 25
 449              		.cfi_restore 26
 450              		.cfi_restore 27
 451              		.cfi_restore 28
 452              		.cfi_restore 29
 453              		.cfi_restore 30
 454              		.cfi_restore 31
 455              	.LCFI10:
 456              		.cfi_def_cfa_register 1
 457 02e4 4E800020 		blr
 458              	.LVL26:
 459              	.L51:
 460              	.LCFI11:
 461              		.cfi_restore_state
 462              	.LBB1270:
 463              		.loc 1 112 0
 464 02e8 39000000 		li 8,0
 465              	.LVL27:
 466              	.L18:
 467              		.loc 1 124 0
 468 02ec 1D080024 		mulli 8,8,36
 469 02f0 3CA00000 		lis 5,.LC0@ha
 470 02f4 7F23CB78 		mr 3,25
 471              	.LVL28:
 472 02f8 38800040 		li 4,64
 473 02fc 7CE74214 		add 7,7,8
 474              	.LVL29:
 475 0300 38A50000 		la 5,.LC0@l(5)
 476 0304 810700A4 		lwz 8,164(7)
 477 0308 7F46D378 		mr 6,26
 478 030c 7FC7F378 		mr 7,30
 479 0310 4CC63182 		crxor 6,6,6
 480 0314 48000001 		bl snprintf
 481              		.loc 1 126 0
 482 0318 2F9D0009 		cmpwi 7,29,9
 483 031c 419D00A4 		bgt- 7,.L49
 484              	.LVL30:
 485              	.L21:
 486              		.loc 1 128 0
 487 0320 387F0010 		addi 3,31,16
 488 0324 7F24CB78 		mr 4,25
 489 0328 38BF0009 		addi 5,31,9
 490 032c 48000001 		bl _ZNSsC1EPKcRKSaIcE
 491              	.LEHE0:
 492 0330 387F0010 		addi 3,31,16
 493              	.LEHB1:
 494 0334 48000001 		bl _ZN4Nand8OpenReadESs
 495              	.LEHE1:
 496              	.LBB1229:
 497              	.LBB1230:
 498              	.LBB1231:
 499              	.LBB1232:
 500              	.LBB1233:
 501              	.LBB1234:
 502              		.file 4 "d:\\devkitpro\\devkitppc\\bin\\../lib/gcc/powerpc-eabi/4.6.3/../../../../powerpc-eabi/inc
 503              		.loc 4 288 0
 504 0338 813F0010 		lwz 9,16(31)
 505              	.LBE1234:
 506              	.LBE1233:
 507              	.LBE1232:
 508              	.LBB1235:
 509              	.LBB1236:
 510              		.loc 4 235 0
 511 033c 3D600000 		lis 11,_ZNSs4_Rep20_S_empty_rep_storageE@ha
 512              	.LBE1236:
 513              	.LBE1235:
 514              	.LBE1231:
 515              	.LBE1230:
 516              	.LBE1229:
 517              		.loc 1 128 0
 518 0340 7C7A1B78 		mr 26,3
 519              	.LVL31:
 520              	.LBB1253:
 521              	.LBB1251:
 522              	.LBB1249:
 523              	.LBB1246:
 524              	.LBB1243:
 525              		.loc 4 235 0
 526 0344 380B0000 		la 0,_ZNSs4_Rep20_S_empty_rep_storageE@l(11)
 527              	.LBE1243:
 528              	.LBE1246:
 529              		.loc 4 534 0
 530 0348 3869FFF4 		addi 3,9,-12
 531              	.LVL32:
 532              	.LBB1247:
 533              	.LBB1244:
 534              		.loc 4 235 0
 535 034c 7F830000 		cmpw 7,3,0
 536 0350 409E015C 		bne- 7,.L50
 537              	.LVL33:
 538              	.L29:
 539              	.LBE1244:
 540              	.LBE1247:
 541              	.LBE1249:
 542              	.LBE1251:
 543              	.LBE1253:
 544              		.loc 1 129 0 discriminator 2
 545 0354 2F9A0000 		cmpwi 7,26,0
 546 0358 41BCFF4C 		blt- 7,.L15
 547              		.loc 1 135 0
 548 035c 7F43D378 		mr 3,26
 549 0360 38800040 		li 4,64
 550 0364 38A00000 		li 5,0
 551              	.LEHB2:
 552 0368 48000001 		bl _ZN4Nand4SeekEiii
 553 036c 2F830040 		cmpwi 7,3,64
 554              		.loc 1 137 0
 555 0370 7F43D378 		mr 3,26
 556              		.loc 1 135 0
 557 0374 419E0054 		beq- 7,.L31
 558              	.L46:
 559              		.loc 1 144 0
 560 0378 48000001 		bl _ZN4Nand5CloseEi
 561              		.loc 1 145 0
 562 037c 7F83E378 		mr 3,28
 563 0380 48000001 		bl free
 564              	.LBE1270:
 565              		.loc 1 186 0
 566 0384 397F0040 		addi 11,31,64
 567 0388 800B0004 		lwz 0,4(11)
 568              	.LBB1271:
 569              		.loc 1 146 0
 570 038c 38600000 		li 3,0
 571              	.LBE1271:
 572              		.loc 1 186 0
 573 0390 82EBFFDC 		lwz 23,-36(11)
 574 0394 7C0803A6 		mtlr 0
 575 0398 830BFFE0 		lwz 24,-32(11)
 576 039c 832BFFE4 		lwz 25,-28(11)
 577 03a0 834BFFE8 		lwz 26,-24(11)
 578              	.LVL34:
 579 03a4 836BFFEC 		lwz 27,-20(11)
 580              	.LVL35:
 581 03a8 838BFFF0 		lwz 28,-16(11)
 582              	.LVL36:
 583 03ac 83ABFFF4 		lwz 29,-12(11)
 584              	.LVL37:
 585 03b0 83CBFFF8 		lwz 30,-8(11)
 586 03b4 83EBFFFC 		lwz 31,-4(11)
 587              		.cfi_remember_state
 588              	.LCFI12:
 589              		.cfi_def_cfa 11, 0
 590 03b8 7D615B78 		mr 1,11
 591              		.cfi_restore 23
 592              		.cfi_restore 24
 593              		.cfi_restore 25
 594              		.cfi_restore 26
 595              		.cfi_restore 27
 596              		.cfi_restore 28
 597              		.cfi_restore 29
 598              		.cfi_restore 30
 599              		.cfi_restore 31
 600              	.LCFI13:
 601              		.cfi_def_cfa_register 1
 602 03bc 4E800020 		blr
 603              	.LVL38:
 604              	.L49:
 605              	.LCFI14:
 606              		.cfi_restore_state
 607              	.LBB1272:
 608              		.loc 1 126 0
 609 03c0 3BA00001 		li 29,1
 610              	.LVL39:
 611 03c4 4BFFFF5C 		b .L21
 612              	.LVL40:
 613              	.L31:
 614              		.loc 1 142 0
 615 03c8 7F84E378 		mr 4,28
 616 03cc 38A00600 		li 5,1536
 617 03d0 48000001 		bl _ZN4Nand4ReadEiPhj
 618              	.LVL41:
 619 03d4 2F830600 		cmpwi 7,3,1536
 620              		.loc 1 144 0
 621 03d8 7F43D378 		mr 3,26
 622              		.loc 1 142 0
 623 03dc 409EFF9C 		bne+ 7,.L46
 624              		.loc 1 149 0
 625 03e0 48000001 		bl _ZN4Nand5CloseEi
 626              		.loc 1 151 0
 627 03e4 813C0040 		lwz 9,64(28)
 628 03e8 6D20494D 		xoris 0,9,0x494d
 629 03ec 2F804554 		cmpwi 7,0,17748
 630 03f0 409EFEB4 		bne 7,.L15
 631              	.LBB1254:
 632              		.loc 1 157 0
 633 03f4 1FBD002A 		mulli 29,29,42
 634              	.LVL42:
 635 03f8 393D0028 		addi 9,29,40
 636 03fc 5529083C 		slwi 9,9,1
 637 0400 7D3C4A14 		add 9,28,9
 638 0404 A009000C 		lhz 0,12(9)
 639 0408 2F800000 		cmpwi 7,0,0
 640 040c 409E0050 		bne- 7,.L34
 641              	.LBB1255:
 642              		.loc 1 160 0
 643 0410 A01C00B0 		lhz 0,176(28)
 644 0414 3BA0002A 		li 29,42
 645 0418 2F800000 		cmpwi 7,0,0
 646 041c 409E0040 		bne- 7,.L34
 647              	.LVL43:
 648              	.LBB1256:
 649              	.LBB1257:
 650              		.loc 1 169 0 discriminator 1
 651 0420 57C9063E 		rlwinm 9,30,0,24,31
 652 0424 57CA463E 		srwi 10,30,24
 653 0428 57CB863E 		rlwinm 11,30,16,24,31
 654 042c 57DEC63E 		rlwinm 30,30,24,24,31
 655 0430 915B0000 		stw 10,0(27)
 656              	.LVL44:
 657              	.LBE1257:
 658              		.loc 1 172 0 discriminator 1
 659 0434 7F83E378 		mr 3,28
 660              	.LBB1258:
 661              		.loc 1 169 0 discriminator 1
 662 0438 917B0004 		stw 11,4(27)
 663              	.LVL45:
 664 043c 93DB0008 		stw 30,8(27)
 665              	.LVL46:
 666 0440 913B000C 		stw 9,12(27)
 667              	.LVL47:
 668              	.LBE1258:
 669              		.loc 1 171 0 discriminator 1
 670 0444 901B0010 		stw 0,16(27)
 671              		.loc 1 172 0 discriminator 1
 672 0448 48000001 		bl free
 673              		.loc 1 173 0 discriminator 1
 674 044c 38600001 		li 3,1
 675 0450 4BFFFD50 		b .L14
 676              	.LVL48:
 677              	.L47:
 678              	.LBE1256:
 679              	.LBE1255:
 680              	.LBE1254:
 681              	.LBB1261:
 682              	.LBB1227:
 683              		.loc 1 86 0
 684 0454 38F80080 		addi 7,24,128
 685 0458 4BFFFE04 		b .L16
 686              	.LVL49:
 687              	.L34:
 688              	.LBE1227:
 689              	.LBE1261:
 690              	.LBB1262:
 691              		.loc 1 91 0
 692 045c 3800002A 		li 0,42
 693 0460 57AA083C 		slwi 10,29,1
 694 0464 7C0903A6 		mtctr 0
 695              	.LBE1262:
 696              	.LBB1263:
 697              	.LBB1260:
 698              	.LBB1259:
 699 0468 3B7BFFFC 		addi 27,27,-4
 700              	.LVL50:
 701              	.LBE1259:
 702 046c 39200000 		li 9,0
 703              	.LBE1260:
 704              	.LBE1263:
 705              	.LBB1264:
 706 0470 7D5C5214 		add 10,28,10
 707              	.LVL51:
 708              	.L35:
 709              		.loc 1 91 0 is_stmt 0 discriminator 2
 710 0474 7D6A4A14 		add 11,10,9
 711              		.loc 1 180 0 is_stmt 1 discriminator 2
 712 0478 39290002 		addi 9,9,2
 713 047c A00B005C 		lhz 0,92(11)
 714 0480 941B0004 		stwu 0,4(27)
 715              		.loc 1 178 0 discriminator 2
 716 0484 4200FFF0 		bdnz .L35
 717              	.LBE1264:
 718              		.loc 1 183 0
 719 0488 7F83E378 		mr 3,28
 720 048c 48000001 		bl free
 721              		.loc 1 185 0
 722 0490 38600001 		li 3,1
 723 0494 4BFFFD0C 		b .L14
 724              	.LVL52:
 725              	.L44:
 726 0498 7C7E1B78 		mr 30,3
 727              	.LVL53:
 728              		.loc 1 128 0
 729 049c 387F0010 		addi 3,31,16
 730 04a0 48000001 		bl _ZNSsD1Ev
 731 04a4 7FC3F378 		mr 3,30
 732 04a8 48000001 		bl _Unwind_Resume
 733              	.LEHE2:
 734              	.LVL54:
 735              	.L50:
 736              	.LBB1265:
 737              	.LBB1252:
 738              	.LBB1250:
 739              	.LBB1248:
 740              	.LBB1245:
 741              	.LBB1237:
 742              	.LBB1238:
 743              	.LBB1239:
 744              		.file 5 "d:\\devkitpro\\devkitppc\\bin\\../lib/gcc/powerpc-eabi/4.6.3/../../../../powerpc-eabi/inc
 745              		.loc 5 66 0
 746 04ac 8169FFFC 		lwz 11,-4(9)
 747              	.LVL55:
 748              	.LBE1239:
 749              	.LBE1238:
 750              	.LBE1237:
 751              		.loc 4 240 0
 752 04b0 2F8B0000 		cmpwi 7,11,0
 753              	.LBB1242:
 754              	.LBB1241:
 755              	.LBB1240:
 756              		.loc 5 67 0
 757 04b4 396BFFFF 		addi 11,11,-1
 758 04b8 9169FFFC 		stw 11,-4(9)
 759              	.LBE1240:
 760              	.LBE1241:
 761              	.LBE1242:
 762              		.loc 4 240 0
 763 04bc 419DFE98 		bgt+ 7,.L29
 764              		.loc 4 244 0
 765 04c0 389F0008 		addi 4,31,8
 766 04c4 48000001 		bl _ZNSs4_Rep10_M_destroyERKSaIcE
 767              	.LVL56:
 768 04c8 4BFFFE8C 		b .L29
 769              	.LBE1245:
 770              	.LBE1248:
 771              	.LBE1250:
 772              	.LBE1252:
 773              	.LBE1265:
 774              	.LBE1272:
 775              		.cfi_endproc
 776              	.LFE1076:
 777              		.globl __gxx_personality_v0
 778              		.section	.gcc_except_table,"a",@progbits
 779              	.LLSDA1076:
 780 0000 FF       		.byte	0xff
 781 0001 FF       		.byte	0xff
 782 0002 01       		.byte	0x1
 783 0003 12       		.uleb128 .LLSDACSE1076-.LLSDACSB1076
 784              	.LLSDACSB1076:
 785 0004 B801     		.uleb128 .LEHB0-.LFB1076
 786 0006 D002     		.uleb128 .LEHE0-.LEHB0
 787 0008 00       		.uleb128 0
 788 0009 00       		.uleb128 0
 789 000a 8C04     		.uleb128 .LEHB1-.LFB1076
 790 000c 04       		.uleb128 .LEHE1-.LEHB1
 791 000d F006     		.uleb128 .L44-.LFB1076
 792 000f 00       		.uleb128 0
 793 0010 C004     		.uleb128 .LEHB2-.LFB1076
 794 0012 C402     		.uleb128 .LEHE2-.LEHB2
 795 0014 00       		.uleb128 0
 796 0015 00       		.uleb128 0
 797              	.LLSDACSE1076:
 798              		.section	".text"
 799              		.size	_ZN9NandTitle7GetNameEyiPw, .-_ZN9NandTitle7GetNameEyiPw
 800              		.align 2
 801              		.globl _ZN9NandTitle6ExistsEy
 802              		.type	_ZN9NandTitle6ExistsEy, @function
 803              	_ZN9NandTitle6ExistsEy:
 804              	.LFB1077:
 805              		.loc 1 189 0
 806              		.cfi_startproc
 807              		.cfi_personality 0,__gxx_personality_v0
 808              		.cfi_lsda 0,.LLSDA1077
 809              	.LVL57:
 810 04cc 7C0802A6 		mflr 0
 811 04d0 9421FFD0 		stwu 1,-48(1)
 812              	.LCFI15:
 813              		.cfi_def_cfa_offset 48
 814              		.cfi_register 65, 0
 815              	.LBB1302:
 816              	.LBB1303:
 817              	.LBB1304:
 818              		.loc 1 79 0
 819 04d4 7CA32B78 		mr 3,5
 820              	.LVL58:
 821 04d8 7CC43378 		mr 4,6
 822              	.LBE1304:
 823              	.LBE1303:
 824              	.LBE1302:
 825              		.loc 1 189 0
 826 04dc 93810020 		stw 28,32(1)
 827 04e0 7CBC2B78 		mr 28,5
 828              		.cfi_offset 28, -16
 829 04e4 90010034 		stw 0,52(1)
 830 04e8 80010000 		lwz 0,0(1)
 831              		.cfi_offset 65, 4
 832 04ec 93A10024 		stw 29,36(1)
 833 04f0 7CDD3378 		mr 29,6
 834              		.cfi_offset 29, -12
 835              	.LVL59:
 836 04f4 93C10028 		stw 30,40(1)
 837 04f8 93E1002C 		stw 31,44(1)
 838 04fc 7C3F0B78 		mr 31,1
 839              		.cfi_offset 31, -4
 840              		.cfi_offset 30, -8
 841              	.LCFI16:
 842              		.cfi_def_cfa_register 31
 843 0500 93410018 		stw 26,24(1)
 844              	.LBB1341:
 845              	.LBB1310:
 846              	.LBB1305:
 847              		.loc 1 79 0
 848 0504 38BF000C 		addi 5,31,12
 849              	.LVL60:
 850              	.LBE1305:
 851              	.LBE1310:
 852              	.LBE1341:
 853              		.loc 1 189 0
 854 0508 9361001C 		stw 27,28(1)
 855              		.loc 1 189 0
 856 050c 9401FFA0 		stwu 0,-96(1)
 857              	.LEHB3:
 858              	.LBB1342:
 859              	.LBB1311:
 860              	.LBB1306:
 861              		.loc 1 79 0
 862              		.cfi_offset 27, -20
 863              		.cfi_offset 26, -24
 864 0510 48000001 		bl ES_GetStoredTMDSize
 865              	.LVL61:
 866              	.LBE1306:
 867              	.LBE1311:
 868              	.LBE1342:
 869              		.loc 1 189 0
 870 0514 3BC10027 		addi 30,1,39
 871              	.LBB1343:
 872              	.LBB1312:
 873              	.LBB1307:
 874              		.loc 1 79 0
 875 0518 2F830000 		cmpwi 7,3,0
 876              	.LBE1307:
 877              	.LBE1312:
 878              	.LBE1343:
 879              		.loc 1 189 0
 880 051c 57DE0034 		rlwinm 30,30,0,0,26
 881              	.LBB1344:
 882              	.LBB1313:
 883              	.LBB1308:
 884              		.loc 1 79 0
 885 0520 419C00A8 		blt- 7,.L73
 886              		.loc 1 82 0
 887 0524 3F400000 		lis 26,.LANCHOR0@ha
 888              	.LVL62:
 889 0528 80DF000C 		lwz 6,12(31)
 890 052c 3B7A0000 		la 27,.LANCHOR0@l(26)
 891 0530 7F83E378 		mr 3,28
 892 0534 7FA4EB78 		mr 4,29
 893 0538 7F65DB78 		mr 5,27
 894 053c 48000001 		bl ES_GetStoredTMD
 895              	.LVL63:
 896              		.loc 1 83 0
 897 0540 2F830000 		cmpwi 7,3,0
 898 0544 419C0084 		blt- 7,.L73
 899              		.loc 1 86 0
 900 0548 801A0000 		lwz 0,.LANCHOR0@l(26)
 901 054c 3D200001 		lis 9,0x1
 902 0550 61290001 		ori 9,9,1
 903 0554 38FB0140 		addi 7,27,320
 904 0558 7F804800 		cmpw 7,0,9
 905 055c 419E0024 		beq- 7,.L54
 906 0560 3D200001 		lis 9,0x1
 907 0564 38FB0240 		addi 7,27,576
 908 0568 7F804800 		cmpw 7,0,9
 909 056c 419E0014 		beq- 7,.L54
 910 0570 61290002 		ori 9,9,2
 911 0574 7F67DB78 		mr 7,27
 912 0578 7F804800 		cmpw 7,0,9
 913 057c 419E0130 		beq- 7,.L76
 914              	.L54:
 915              	.LVL64:
 916              	.LBE1308:
 917              	.LBE1313:
 918              		.loc 1 196 0
 919 0580 A147009E 		lhz 10,158(7)
 920 0584 2F8A0000 		cmpwi 7,10,0
 921 0588 419E0040 		beq- 7,.L73
 922              		.loc 1 198 0
 923 058c A00700A8 		lhz 0,168(7)
 924 0590 7CEB3B78 		mr 11,7
 925 0594 39200001 		li 9,1
 926 0598 2F800000 		cmpwi 7,0,0
 927 059c 40BE0020 		bne+ 7,.L56
 928 05a0 48000058 		b .L79
 929              	.LVL65:
 930              	.L57:
 931 05a4 A00B00CC 		lhz 0,204(11)
 932 05a8 7D284B78 		mr 8,9
 933 05ac 396B0024 		addi 11,11,36
 934 05b0 39290001 		addi 9,9,1
 935 05b4 2F800000 		cmpwi 7,0,0
 936 05b8 419E0044 		beq- 7,.L55
 937              	.L56:
 938              		.loc 1 196 0
 939 05bc 5520043E 		rlwinm 0,9,0,0xffff
 940 05c0 7F8A0040 		cmplw 7,10,0
 941 05c4 419DFFE0 		bgt+ 7,.L57
 942              	.LVL66:
 943              	.L73:
 944              		.loc 1 204 0
 945 05c8 38600000 		li 3,0
 946              	.L53:
 947              	.LBE1344:
 948              		.loc 1 214 0
 949 05cc 397F0030 		addi 11,31,48
 950 05d0 800B0004 		lwz 0,4(11)
 951 05d4 834BFFE8 		lwz 26,-24(11)
 952 05d8 7C0803A6 		mtlr 0
 953 05dc 836BFFEC 		lwz 27,-20(11)
 954 05e0 838BFFF0 		lwz 28,-16(11)
 955              	.LVL67:
 956 05e4 83ABFFF4 		lwz 29,-12(11)
 957 05e8 83CBFFF8 		lwz 30,-8(11)
 958 05ec 83EBFFFC 		lwz 31,-4(11)
 959              		.cfi_remember_state
 960              	.LCFI17:
 961              		.cfi_def_cfa 11, 0
 962 05f0 7D615B78 		mr 1,11
 963              	.LCFI18:
 964              		.cfi_def_cfa_register 1
 965              		.cfi_restore 31
 966              		.cfi_restore 30
 967              		.cfi_restore 29
 968              		.cfi_restore 28
 969              		.cfi_restore 27
 970              		.cfi_restore 26
 971 05f4 4E800020 		blr
 972              	.LVL68:
 973              	.L79:
 974              	.LCFI19:
 975              		.cfi_restore_state
 976              	.LBB1345:
 977              		.loc 1 198 0
 978 05f8 39000000 		li 8,0
 979              	.LVL69:
 980              	.L55:
 981              		.loc 1 207 0
 982 05fc 1D080024 		mulli 8,8,36
 983 0600 3CA00000 		lis 5,.LC0@ha
 984 0604 38800040 		li 4,64
 985 0608 38A50000 		la 5,.LC0@l(5)
 986 060c 7CE74214 		add 7,7,8
 987              	.LVL70:
 988 0610 7F86E378 		mr 6,28
 989 0614 810700A4 		lwz 8,164(7)
 990 0618 7FC3F378 		mr 3,30
 991              	.LVL71:
 992 061c 7FA7EB78 		mr 7,29
 993 0620 4CC63182 		crxor 6,6,6
 994 0624 48000001 		bl snprintf
 995              		.loc 1 208 0
 996 0628 387F0010 		addi 3,31,16
 997 062c 7FC4F378 		mr 4,30
 998 0630 38BF0009 		addi 5,31,9
 999 0634 48000001 		bl _ZNSsC1EPKcRKSaIcE
 1000              	.LEHE3:
 1001 0638 387F0010 		addi 3,31,16
 1002              	.LEHB4:
 1003 063c 48000001 		bl _ZN4Nand8OpenReadESs
 1004              	.LEHE4:
 1005              	.LBB1314:
 1006              	.LBB1315:
 1007              	.LBB1316:
 1008              	.LBB1317:
 1009              	.LBB1318:
 1010              	.LBB1319:
 1011              		.loc 4 288 0
 1012 0640 813F0010 		lwz 9,16(31)
 1013              	.LBE1319:
 1014              	.LBE1318:
 1015              	.LBE1317:
 1016              	.LBB1320:
 1017              	.LBB1321:
 1018              		.loc 4 235 0
 1019 0644 3D600000 		lis 11,_ZNSs4_Rep20_S_empty_rep_storageE@ha
 1020              	.LBE1321:
 1021              	.LBE1320:
 1022              	.LBE1316:
 1023              	.LBE1315:
 1024              	.LBE1314:
 1025              		.loc 1 208 0
 1026 0648 7C7E1B78 		mr 30,3
 1027              	.LVL72:
 1028              	.LBB1338:
 1029              	.LBB1336:
 1030              	.LBB1334:
 1031              	.LBB1331:
 1032              	.LBB1328:
 1033              		.loc 4 235 0
 1034 064c 380B0000 		la 0,_ZNSs4_Rep20_S_empty_rep_storageE@l(11)
 1035              	.LBE1328:
 1036              	.LBE1331:
 1037              		.loc 4 534 0
 1038 0650 3869FFF4 		addi 3,9,-12
 1039              	.LVL73:
 1040              	.LBB1332:
 1041              	.LBB1329:
 1042              		.loc 4 235 0
 1043 0654 7F830000 		cmpw 7,3,0
 1044 0658 409E005C 		bne- 7,.L78
 1045              	.LVL74:
 1046              	.L65:
 1047              	.LBE1329:
 1048              	.LBE1332:
 1049              	.LBE1334:
 1050              	.LBE1336:
 1051              	.LBE1338:
 1052              		.loc 1 209 0 discriminator 2
 1053 065c 2F9E0000 		cmpwi 7,30,0
 1054 0660 419C003C 		blt- 7,.L66
 1055              		.loc 1 210 0
 1056 0664 7FC3F378 		mr 3,30
 1057              	.LEHB5:
 1058 0668 48000001 		bl _ZN4Nand5CloseEi
 1059              	.LBE1345:
 1060              		.loc 1 214 0
 1061 066c 397F0030 		addi 11,31,48
 1062 0670 800B0004 		lwz 0,4(11)
 1063              	.LBB1346:
 1064              		.loc 1 212 0
 1065 0674 38600001 		li 3,1
 1066              	.LBE1346:
 1067              		.loc 1 214 0
 1068 0678 834BFFE8 		lwz 26,-24(11)
 1069 067c 7C0803A6 		mtlr 0
 1070 0680 836BFFEC 		lwz 27,-20(11)
 1071 0684 838BFFF0 		lwz 28,-16(11)
 1072              	.LVL75:
 1073 0688 83ABFFF4 		lwz 29,-12(11)
 1074 068c 83CBFFF8 		lwz 30,-8(11)
 1075              	.LVL76:
 1076 0690 83EBFFFC 		lwz 31,-4(11)
 1077              		.cfi_remember_state
 1078              	.LCFI20:
 1079              		.cfi_def_cfa 11, 0
 1080 0694 7D615B78 		mr 1,11
 1081              		.cfi_restore 26
 1082              		.cfi_restore 27
 1083              		.cfi_restore 28
 1084              		.cfi_restore 29
 1085              		.cfi_restore 30
 1086              		.cfi_restore 31
 1087              	.LCFI21:
 1088              		.cfi_def_cfa_register 1
 1089 0698 4E800020 		blr
 1090              	.LVL77:
 1091              	.L66:
 1092              	.LCFI22:
 1093              		.cfi_restore_state
 1094              	.LBB1347:
 1095              		.loc 1 188 0 discriminator 2
 1096 069c 387E0066 		addi 3,30,102
 1097 06a0 7C630034 		cntlzw 3,3
 1098 06a4 5463D97E 		srwi 3,3,5
 1099 06a8 4BFFFF24 		b .L53
 1100              	.LVL78:
 1101              	.L76:
 1102              	.LBB1339:
 1103              	.LBB1309:
 1104              		.loc 1 86 0
 1105 06ac 38FB0080 		addi 7,27,128
 1106 06b0 4BFFFED0 		b .L54
 1107              	.LVL79:
 1108              	.L78:
 1109              	.LBE1309:
 1110              	.LBE1339:
 1111              	.LBB1340:
 1112              	.LBB1337:
 1113              	.LBB1335:
 1114              	.LBB1333:
 1115              	.LBB1330:
 1116              	.LBB1322:
 1117              	.LBB1323:
 1118              	.LBB1324:
 1119              		.loc 5 66 0
 1120 06b4 8169FFFC 		lwz 11,-4(9)
 1121              	.LVL80:
 1122              	.LBE1324:
 1123              	.LBE1323:
 1124              	.LBE1322:
 1125              		.loc 4 240 0
 1126 06b8 2F8B0000 		cmpwi 7,11,0
 1127              	.LBB1327:
 1128              	.LBB1326:
 1129              	.LBB1325:
 1130              		.loc 5 67 0
 1131 06bc 396BFFFF 		addi 11,11,-1
 1132 06c0 9169FFFC 		stw 11,-4(9)
 1133              	.LBE1325:
 1134              	.LBE1326:
 1135              	.LBE1327:
 1136              		.loc 4 240 0
 1137 06c4 419DFF98 		bgt+ 7,.L65
 1138              		.loc 4 244 0
 1139 06c8 389F0008 		addi 4,31,8
 1140 06cc 48000001 		bl _ZNSs4_Rep10_M_destroyERKSaIcE
 1141              	.LVL81:
 1142 06d0 4BFFFF8C 		b .L65
 1143              	.LVL82:
 1144              	.L75:
 1145 06d4 7C7E1B78 		mr 30,3
 1146              	.LBE1330:
 1147              	.LBE1333:
 1148              	.LBE1335:
 1149              	.LBE1337:
 1150              	.LBE1340:
 1151              		.loc 1 208 0
 1152 06d8 387F0010 		addi 3,31,16
 1153 06dc 48000001 		bl _ZNSsD1Ev
 1154 06e0 7FC3F378 		mr 3,30
 1155 06e4 48000001 		bl _Unwind_Resume
 1156              	.LEHE5:
 1157              	.LBE1347:
 1158              		.cfi_endproc
 1159              	.LFE1077:
 1160              		.section	.gcc_except_table
 1161              	.LLSDA1077:
 1162 0016 FF       		.byte	0xff
 1163 0017 FF       		.byte	0xff
 1164 0018 01       		.byte	0x1
 1165 0019 11       		.uleb128 .LLSDACSE1077-.LLSDACSB1077
 1166              	.LLSDACSB1077:
 1167 001a 44       		.uleb128 .LEHB3-.LFB1077
 1168 001b A802     		.uleb128 .LEHE3-.LEHB3
 1169 001d 00       		.uleb128 0
 1170 001e 00       		.uleb128 0
 1171 001f F002     		.uleb128 .LEHB4-.LFB1077
 1172 0021 04       		.uleb128 .LEHE4-.LEHB4
 1173 0022 8804     		.uleb128 .L75-.LFB1077
 1174 0024 00       		.uleb128 0
 1175 0025 9C03     		.uleb128 .LEHB5-.LFB1077
 1176 0027 8001     		.uleb128 .LEHE5-.LEHB5
 1177 0029 00       		.uleb128 0
 1178 002a 00       		.uleb128 0
 1179              	.LLSDACSE1077:
 1180              		.section	".text"
 1181              		.size	_ZN9NandTitle6ExistsEy, .-_ZN9NandTitle6ExistsEy
 1182              		.align 2
 1183              		.globl _ZN9NandTitle15ExistsFromIndexEj
 1184              		.type	_ZN9NandTitle15ExistsFromIndexEj, @function
 1185              	_ZN9NandTitle15ExistsFromIndexEj:
 1186              	.LFB1078:
 1187              		.loc 1 217 0
 1188              		.cfi_startproc
 1189              	.LVL83:
 1190 06e8 7C0802A6 		mflr 0
 1191 06ec 9421FFF8 		stwu 1,-8(1)
 1192              	.LCFI23:
 1193              		.cfi_def_cfa_offset 8
 1194              		.cfi_register 65, 0
 1195 06f0 9001000C 		stw 0,12(1)
 1196              		.loc 1 413 0
 1197 06f4 80030000 		lwz 0,0(3)
 1198              		.cfi_offset 65, 4
 1199              	.LBB1358:
 1200              	.LBB1359:
 1201              		.loc 2 571 0
 1202 06f8 81230004 		lwz 9,4(3)
 1203 06fc 7D204850 		subf 9,0,9
 1204 0700 7D291E70 		srawi 9,9,3
 1205              	.LBE1359:
 1206              	.LBE1358:
 1207              		.loc 1 218 0
 1208 0704 7F844840 		cmplw 7,4,9
 1209 0708 409D0018 		ble- 7,.L83
 1210              		.loc 1 221 0
 1211 070c 8001000C 		lwz 0,12(1)
 1212 0710 38600000 		li 3,0
 1213              	.LVL84:
 1214 0714 38210008 		addi 1,1,8
 1215              		.cfi_remember_state
 1216              	.LCFI24:
 1217              		.cfi_def_cfa_offset 0
 1218 0718 7C0803A6 		mtlr 0
 1219 071c 4E800020 		blr
 1220              	.LVL85:
 1221              	.L83:
 1222              	.LCFI25:
 1223              		.cfi_restore_state
 1224              	.LBB1360:
 1225              	.LBB1361:
 1226              	.LBB1362:
 1227              		.loc 2 718 0
 1228 0720 409C0024 		bge- 7,.L84
 1229              	.LVL86:
 1230              	.LBE1362:
 1231              	.LBE1361:
 1232              	.LBE1360:
 1233              		.loc 1 220 0
 1234 0724 54841838 		slwi 4,4,3
 1235              	.LVL87:
 1236 0728 7C802214 		add 4,0,4
 1237              		.loc 1 221 0
 1238 072c 8001000C 		lwz 0,12(1)
 1239              		.loc 1 220 0
 1240 0730 80A40000 		lwz 5,0(4)
 1241 0734 80C40004 		lwz 6,4(4)
 1242              		.loc 1 221 0
 1243 0738 7C0803A6 		mtlr 0
 1244 073c 38210008 		addi 1,1,8
 1245              		.cfi_remember_state
 1246              	.LCFI26:
 1247              		.cfi_def_cfa_offset 0
 1248              		.loc 1 220 0
 1249 0740 48000000 		b _ZN9NandTitle6ExistsEy
 1250              	.LVL88:
 1251              	.L84:
 1252              	.LCFI27:
 1253              		.cfi_restore_state
 1254              	.LBB1365:
 1255              	.LBB1364:
 1256              	.LBB1363:
 1257              		.loc 2 719 0
 1258 0744 3C600000 		lis 3,.LC1@ha
 1259              	.LVL89:
 1260 0748 38630024 		la 3,.LC1@l(3)
 1261 074c 48000001 		bl _ZSt20__throw_out_of_rangePKc
 1262              	.LVL90:
 1263              	.LVL91:
 1264              	.LVL92:
 1265              	.LBE1363:
 1266              	.LBE1364:
 1267              	.LBE1365:
 1268              		.cfi_endproc
 1269              	.LFE1078:
 1270              		.size	_ZN9NandTitle15ExistsFromIndexEj, .-_ZN9NandTitle15ExistsFromIndexEj
 1271              		.align 2
 1272              		.globl _ZN9NandTitle2AtEj
 1273              		.type	_ZN9NandTitle2AtEj, @function
 1274              	_ZN9NandTitle2AtEj:
 1275              	.LFB1079:
 1276              		.loc 1 224 0
 1277              		.cfi_startproc
 1278              	.LVL93:
 1279 0750 7C0802A6 		mflr 0
 1280 0754 9421FFF8 		stwu 1,-8(1)
 1281              	.LCFI28:
 1282              		.cfi_def_cfa_offset 8
 1283              		.cfi_register 65, 0
 1284 0758 7C8B2378 		mr 11,4
 1285 075c 9001000C 		stw 0,12(1)
 1286              		.loc 1 413 0
 1287 0760 80030000 		lwz 0,0(3)
 1288              		.cfi_offset 65, 4
 1289              	.LBB1376:
 1290              	.LBB1377:
 1291              		.loc 2 571 0
 1292 0764 81230004 		lwz 9,4(3)
 1293              	.LBE1377:
 1294              	.LBE1376:
 1295              		.loc 1 225 0
 1296 0768 38600000 		li 3,0
 1297              	.LVL94:
 1298              	.LBB1379:
 1299              	.LBB1378:
 1300              		.loc 2 571 0
 1301 076c 7D204850 		subf 9,0,9
 1302 0770 7D291E70 		srawi 9,9,3
 1303              	.LBE1378:
 1304              	.LBE1379:
 1305              		.loc 1 225 0
 1306 0774 7F844840 		cmplw 7,4,9
 1307 0778 38800000 		li 4,0
 1308              	.LVL95:
 1309 077c 409D0014 		ble- 7,.L89
 1310              		.loc 1 228 0
 1311 0780 8001000C 		lwz 0,12(1)
 1312 0784 38210008 		addi 1,1,8
 1313              		.cfi_remember_state
 1314              	.LCFI29:
 1315              		.cfi_def_cfa_offset 0
 1316 0788 7C0803A6 		mtlr 0
 1317 078c 4E800020 		blr
 1318              	.L89:
 1319              	.LCFI30:
 1320              		.cfi_restore_state
 1321              	.LVL96:
 1322              	.LBB1380:
 1323              	.LBB1381:
 1324              	.LBB1382:
 1325              		.loc 2 718 0
 1326 0790 409C0024 		bge- 7,.L90
 1327              	.LVL97:
 1328              	.LBE1382:
 1329              	.LBE1381:
 1330              	.LBE1380:
 1331              		.loc 1 227 0
 1332 0794 556B1838 		slwi 11,11,3
 1333              	.LVL98:
 1334 0798 7D605A14 		add 11,0,11
 1335              		.loc 1 228 0
 1336 079c 8001000C 		lwz 0,12(1)
 1337              		.loc 1 227 0
 1338 07a0 806B0000 		lwz 3,0(11)
 1339              		.loc 1 228 0
 1340 07a4 7C0803A6 		mtlr 0
 1341              		.loc 1 227 0
 1342 07a8 808B0004 		lwz 4,4(11)
 1343              		.loc 1 228 0
 1344 07ac 38210008 		addi 1,1,8
 1345              		.cfi_remember_state
 1346              	.LCFI31:
 1347              		.cfi_def_cfa_offset 0
 1348 07b0 4E800020 		blr
 1349              	.LVL99:
 1350              	.L90:
 1351              	.LCFI32:
 1352              		.cfi_restore_state
 1353              	.LBB1385:
 1354              	.LBB1384:
 1355              	.LBB1383:
 1356              		.loc 2 719 0
 1357 07b4 3C600000 		lis 3,.LC1@ha
 1358 07b8 38630024 		la 3,.LC1@l(3)
 1359 07bc 48000001 		bl _ZSt20__throw_out_of_rangePKc
 1360              	.LVL100:
 1361              	.LVL101:
 1362              	.LVL102:
 1363              	.LBE1383:
 1364              	.LBE1384:
 1365              	.LBE1385:
 1366              		.cfi_endproc
 1367              	.LFE1079:
 1368              		.size	_ZN9NandTitle2AtEj, .-_ZN9NandTitle2AtEj
 1369              		.align 2
 1370              		.globl _ZN9NandTitle7IndexOfEy
 1371              		.type	_ZN9NandTitle7IndexOfEy, @function
 1372              	_ZN9NandTitle7IndexOfEy:
 1373              	.LFB1080:
 1374              		.loc 1 231 0
 1375              		.cfi_startproc
 1376              	.LVL103:
 1377              	.LBB1397:
 1378              		.loc 1 413 0
 1379 07c0 81230000 		lwz 9,0(3)
 1380              	.LBB1398:
 1381              	.LBB1399:
 1382              		.loc 2 571 0
 1383 07c4 80030004 		lwz 0,4(3)
 1384              	.LBE1399:
 1385              	.LBE1398:
 1386              		.loc 1 237 0
 1387 07c8 3C60FFFF 		lis 3,0xffff
 1388              	.LVL104:
 1389 07cc 60636FFC 		ori 3,3,28668
 1390              	.LBB1401:
 1391              	.LBB1400:
 1392              		.loc 2 571 0
 1393 07d0 7C090050 		subf 0,9,0
 1394              	.LBE1400:
 1395              	.LBE1401:
 1396              		.loc 1 232 0
 1397 07d4 7C001E71 		srawi. 0,0,3
 1398 07d8 4D820020 		beqlr- 0
 1399              	.LVL105:
 1400              		.loc 1 234 0
 1401 07dc 81690000 		lwz 11,0(9)
 1402              		.loc 1 232 0
 1403 07e0 38600000 		li 3,0
 1404              		.loc 1 234 0
 1405 07e4 7F8B2800 		cmpw 7,11,5
 1406 07e8 419E0048 		beq- 7,.L105
 1407              	.L100:
 1408              		.loc 1 232 0
 1409 07ec 7C0903A6 		mtctr 0
 1410 07f0 48000014 		b .L103
 1411              	.LVL106:
 1412              	.L97:
 1413              		.loc 1 234 0
 1414 07f4 7D69002E 		lwzx 11,9,0
 1415 07f8 7C090214 		add 0,9,0
 1416 07fc 7F8B2800 		cmpw 7,11,5
 1417 0800 419E001C 		beq- 7,.L106
 1418              	.LVL107:
 1419              	.L103:
 1420              		.loc 1 232 0
 1421 0804 38630001 		addi 3,3,1
 1422              	.LVL108:
 1423              		.loc 1 234 0
 1424 0808 54601838 		slwi 0,3,3
 1425              		.loc 1 232 0
 1426 080c 4200FFE8 		bdnz .L97
 1427              		.loc 1 237 0
 1428 0810 3C60FFFF 		lis 3,0xffff
 1429              	.LVL109:
 1430 0814 60636FFC 		ori 3,3,28668
 1431              	.LBE1397:
 1432              		.loc 1 238 0
 1433 0818 4E800020 		blr
 1434              	.LVL110:
 1435              	.L106:
 1436              	.LBB1402:
 1437              		.loc 1 234 0
 1438 081c 7C0B0378 		mr 11,0
 1439 0820 800B0004 		lwz 0,4(11)
 1440 0824 7F803000 		cmpw 7,0,6
 1441 0828 409EFFDC 		bne+ 7,.L103
 1442 082c 4E800020 		blr
 1443              	.LVL111:
 1444              	.L105:
 1445 0830 81690004 		lwz 11,4(9)
 1446 0834 7F8B3000 		cmpw 7,11,6
 1447 0838 409EFFB4 		bne+ 7,.L100
 1448 083c 4E800020 		blr
 1449              	.LBE1402:
 1450              		.cfi_endproc
 1451              	.LFE1080:
 1452              		.size	_ZN9NandTitle7IndexOfEy, .-_ZN9NandTitle7IndexOfEy
 1453              		.align 2
 1454              		.globl _ZN9NandTitle6NameOfEy
 1455              		.type	_ZN9NandTitle6NameOfEy, @function
 1456              	_ZN9NandTitle6NameOfEy:
 1457              	.LFB1081:
 1458              		.loc 1 241 0
 1459              		.cfi_startproc
 1460              	.LVL112:
 1461              	.LBB1403:
 1462              	.LBB1404:
 1463              	.LBB1405:
 1464              		.loc 1 413 0
 1465 0840 81230014 		lwz 9,20(3)
 1466              	.LBE1405:
 1467              	.LBE1404:
 1468              	.LBE1403:
 1469              		.loc 1 241 0
 1470 0844 7C6B1B78 		mr 11,3
 1471              	.LVL113:
 1472              	.LBB1419:
 1473              	.LBB1415:
 1474              	.LBB1414:
 1475              	.LBB1406:
 1476              	.LBB1407:
 1477              	.LBB1408:
 1478              		.loc 1 245 0
 1479 0848 38600000 		li 3,0
 1480              	.LVL114:
 1481              		.loc 3 1089 0
 1482 084c 2F890000 		cmpwi 7,9,0
 1483 0850 4D9E0020 		beqlr- 7
 1484              	.LBE1408:
 1485              	.LBE1407:
 1486              	.LBE1406:
 1487              		.loc 3 1536 0
 1488 0854 396B0010 		addi 11,11,16
 1489              	.LVL115:
 1490 0858 7D6A5B78 		mr 10,11
 1491 085c 48000024 		b .L112
 1492              	.LVL116:
 1493              	.L121:
 1494              	.LBB1413:
 1495              	.LBB1412:
 1496              	.LBB1409:
 1497              		.loc 3 1090 0
 1498 0860 409A0010 		bne- 6,.L117
 1499 0864 80090014 		lwz 0,20(9)
 1500 0868 7F803040 		cmplw 7,0,6
 1501 086c 419C0024 		blt- 7,.L109
 1502              	.L117:
 1503              	.LVL117:
 1504              	.LBE1409:
 1505              		.loc 1 413 0
 1506 0870 7D2A4B78 		mr 10,9
 1507              		.loc 3 1091 0
 1508 0874 81290008 		lwz 9,8(9)
 1509              	.LVL118:
 1510              	.LBB1410:
 1511              		.loc 3 1089 0
 1512 0878 2F890000 		cmpwi 7,9,0
 1513 087c 419E0020 		beq- 7,.L120
 1514              	.LVL119:
 1515              	.L112:
 1516              		.loc 3 1090 0
 1517 0880 80090010 		lwz 0,16(9)
 1518 0884 7F802840 		cmplw 7,0,5
 1519 0888 7F002800 		cmpw 6,0,5
 1520 088c 40BCFFD4 		bge- 7,.L121
 1521              	.L109:
 1522              	.LBE1410:
 1523              		.loc 1 413 0
 1524 0890 8129000C 		lwz 9,12(9)
 1525              	.LVL120:
 1526              	.LBB1411:
 1527              		.loc 3 1089 0
 1528 0894 2F890000 		cmpwi 7,9,0
 1529 0898 409EFFE8 		bne+ 7,.L112
 1530              	.L120:
 1531              	.LVL121:
 1532              	.LBE1411:
 1533              	.LBE1412:
 1534              		.loc 3 1539 0
 1535 089c 7F8B5000 		cmpw 7,11,10
 1536              		.loc 1 245 0
 1537 08a0 38600000 		li 3,0
 1538              		.loc 3 1539 0
 1539 08a4 4D9E0020 		beqlr- 7
 1540              	.LVL122:
 1541 08a8 800A0010 		lwz 0,16(10)
 1542 08ac 7F802840 		cmplw 7,0,5
 1543 08b0 419D0018 		bgt- 7,.L116
 1544 08b4 7F802800 		cmpw 7,0,5
 1545 08b8 409E0018 		bne- 7,.L118
 1546 08bc 800A0014 		lwz 0,20(10)
 1547 08c0 7F803040 		cmplw 7,0,6
 1548 08c4 409D000C 		ble- 7,.L118
 1549              	.L116:
 1550              		.loc 1 245 0
 1551 08c8 38600000 		li 3,0
 1552              	.LBE1413:
 1553              	.LBE1414:
 1554              	.LBE1415:
 1555              	.LBE1419:
 1556              		.loc 1 246 0
 1557 08cc 4E800020 		blr
 1558              	.L118:
 1559              	.LVL123:
 1560              	.LBB1420:
 1561              	.LBB1416:
 1562              	.LBB1417:
 1563              	.LBB1418:
 1564              		.loc 4 288 0
 1565 08d0 806A0018 		lwz 3,24(10)
 1566              	.LBE1418:
 1567              	.LBE1417:
 1568              	.LBE1416:
 1569              		.loc 1 243 0
 1570 08d4 4E800020 		blr
 1571              	.LBE1420:
 1572              		.cfi_endproc
 1573              	.LFE1081:
 1574              		.size	_ZN9NandTitle6NameOfEy, .-_ZN9NandTitle6NameOfEy
 1575              		.align 2
 1576              		.globl _ZN9NandTitle13NameFromIndexEj
 1577              		.type	_ZN9NandTitle13NameFromIndexEj, @function
 1578              	_ZN9NandTitle13NameFromIndexEj:
 1579              	.LFB1082:
 1580              		.loc 1 249 0
 1581              		.cfi_startproc
 1582              	.LVL124:
 1583 08d8 7C0802A6 		mflr 0
 1584 08dc 9421FFF8 		stwu 1,-8(1)
 1585              	.LCFI33:
 1586              		.cfi_def_cfa_offset 8
 1587              		.cfi_register 65, 0
 1588 08e0 7C691B78 		mr 9,3
 1589 08e4 9001000C 		stw 0,12(1)
 1590              	.LBB1447:
 1591              	.LBB1448:
 1592              	.LBB1449:
 1593              	.LBB1450:
 1594              	.LBB1451:
 1595              	.LBB1452:
 1596              		.loc 1 413 0
 1597 08e8 81630000 		lwz 11,0(3)
 1598              	.LBE1452:
 1599              	.LBE1451:
 1600              	.LBE1450:
 1601              	.LBE1449:
 1602              	.LBE1448:
 1603              	.LBB1467:
 1604              	.LBB1468:
 1605              		.loc 2 571 0
 1606 08ec 80030004 		lwz 0,4(3)
 1607              		.cfi_offset 65, 4
 1608 08f0 7C0B0050 		subf 0,11,0
 1609 08f4 7C001E70 		srawi 0,0,3
 1610              	.LBE1468:
 1611              	.LBE1467:
 1612              		.loc 1 250 0
 1613 08f8 7F840040 		cmplw 7,4,0
 1614 08fc 419D0088 		bgt- 7,.L133
 1615              	.LVL125:
 1616              	.LBB1469:
 1617              	.LBB1470:
 1618              	.LBB1471:
 1619              		.loc 2 718 0
 1620 0900 409C00C8 		bge- 7,.L138
 1621              	.LVL126:
 1622              	.LBE1471:
 1623              	.LBE1470:
 1624              	.LBE1469:
 1625              	.LBB1476:
 1626              	.LBB1463:
 1627              		.loc 1 413 0
 1628 0904 81430014 		lwz 10,20(3)
 1629              	.LVL127:
 1630              	.LBB1459:
 1631              	.LBB1457:
 1632              	.LBB1453:
 1633              		.loc 1 255 0
 1634 0908 38600000 		li 3,0
 1635              	.LVL128:
 1636              		.loc 3 1089 0
 1637 090c 2F8A0000 		cmpwi 7,10,0
 1638 0910 419E0078 		beq- 7,.L123
 1639              	.LBE1453:
 1640              	.LBE1457:
 1641              	.LBE1459:
 1642              		.loc 3 1536 0
 1643 0914 54841838 		slwi 4,4,3
 1644              	.LVL129:
 1645 0918 39290010 		addi 9,9,16
 1646              	.LVL130:
 1647 091c 7D0B2214 		add 8,11,4
 1648 0920 7D6B202E 		lwzx 11,11,4
 1649 0924 80E80004 		lwz 7,4(8)
 1650              	.LBE1463:
 1651              	.LBE1476:
 1652              	.LBB1477:
 1653              	.LBB1473:
 1654              	.LBB1474:
 1655 0928 7D284B78 		mr 8,9
 1656 092c 48000028 		b .L128
 1657              	.LVL131:
 1658              	.L140:
 1659              	.LBE1474:
 1660              	.LBE1473:
 1661              	.LBE1477:
 1662              	.LBB1478:
 1663              	.LBB1464:
 1664              	.LBB1460:
 1665              	.LBB1458:
 1666              	.LBB1454:
 1667              		.loc 3 1090 0
 1668 0930 7F805800 		cmpw 7,0,11
 1669 0934 409E0010 		bne- 7,.L134
 1670 0938 800A0014 		lwz 0,20(10)
 1671 093c 7F803840 		cmplw 7,0,7
 1672 0940 419C0020 		blt- 7,.L125
 1673              	.L134:
 1674              	.LVL132:
 1675              	.LBE1454:
 1676              		.loc 1 413 0
 1677 0944 7D485378 		mr 8,10
 1678              		.loc 3 1091 0
 1679 0948 814A0008 		lwz 10,8(10)
 1680              	.LVL133:
 1681              	.LBB1455:
 1682              		.loc 3 1089 0
 1683 094c 2F8A0000 		cmpwi 7,10,0
 1684 0950 419E001C 		beq- 7,.L139
 1685              	.LVL134:
 1686              	.L128:
 1687              		.loc 3 1090 0
 1688 0954 800A0010 		lwz 0,16(10)
 1689 0958 7F805840 		cmplw 7,0,11
 1690 095c 40BCFFD4 		bge- 7,.L140
 1691              	.L125:
 1692              	.LBE1455:
 1693              		.loc 1 413 0
 1694 0960 814A000C 		lwz 10,12(10)
 1695              	.LVL135:
 1696              	.LBB1456:
 1697              		.loc 3 1089 0
 1698 0964 2F8A0000 		cmpwi 7,10,0
 1699 0968 409EFFEC 		bne+ 7,.L128
 1700              	.L139:
 1701              	.LVL136:
 1702              	.LBE1456:
 1703              	.LBE1458:
 1704              		.loc 3 1539 0
 1705 096c 7F894000 		cmpw 7,9,8
 1706              		.loc 1 255 0
 1707 0970 38600000 		li 3,0
 1708              		.loc 3 1539 0
 1709 0974 419E0014 		beq- 7,.L123
 1710              	.LVL137:
 1711 0978 80080010 		lwz 0,16(8)
 1712 097c 7F805840 		cmplw 7,0,11
 1713 0980 409D0018 		ble- 7,.L141
 1714              	.LVL138:
 1715              	.L133:
 1716              		.loc 1 255 0
 1717 0984 38600000 		li 3,0
 1718              	.L123:
 1719              	.LBE1460:
 1720              	.LBE1464:
 1721              	.LBE1478:
 1722              	.LBE1447:
 1723              		.loc 1 256 0
 1724 0988 8001000C 		lwz 0,12(1)
 1725 098c 38210008 		addi 1,1,8
 1726              		.cfi_remember_state
 1727              	.LCFI34:
 1728              		.cfi_def_cfa_offset 0
 1729 0990 7C0803A6 		mtlr 0
 1730 0994 4E800020 		blr
 1731              	.LVL139:
 1732              	.L141:
 1733              	.LCFI35:
 1734              		.cfi_restore_state
 1735              	.LBB1485:
 1736              	.LBB1479:
 1737              	.LBB1465:
 1738              	.LBB1461:
 1739              		.loc 3 1539 0
 1740 0998 7F805800 		cmpw 7,0,11
 1741 099c 419E0018 		beq- 7,.L142
 1742              	.L135:
 1743              	.LVL140:
 1744              	.LBE1461:
 1745              	.LBE1465:
 1746              	.LBE1479:
 1747              	.LBE1485:
 1748              		.loc 1 256 0
 1749 09a0 8001000C 		lwz 0,12(1)
 1750              	.LBB1486:
 1751              	.LBB1480:
 1752              	.LBB1481:
 1753              	.LBB1482:
 1754              		.loc 4 288 0
 1755 09a4 80680018 		lwz 3,24(8)
 1756              	.LBE1482:
 1757              	.LBE1481:
 1758              	.LBE1480:
 1759              	.LBE1486:
 1760              		.loc 1 256 0
 1761 09a8 7C0803A6 		mtlr 0
 1762 09ac 38210008 		addi 1,1,8
 1763              		.cfi_remember_state
 1764              	.LCFI36:
 1765              		.cfi_def_cfa_offset 0
 1766 09b0 4E800020 		blr
 1767              	.LVL141:
 1768              	.L142:
 1769              	.LCFI37:
 1770              		.cfi_restore_state
 1771              	.LBB1487:
 1772              	.LBB1483:
 1773              	.LBB1466:
 1774              	.LBB1462:
 1775              		.loc 3 1539 0
 1776 09b4 80080014 		lwz 0,20(8)
 1777 09b8 7F803840 		cmplw 7,0,7
 1778 09bc 40BDFFE4 		ble- 7,.L135
 1779              		.loc 1 255 0
 1780 09c0 38600000 		li 3,0
 1781 09c4 4BFFFFC4 		b .L123
 1782              	.LVL142:
 1783              	.L138:
 1784              	.LBE1462:
 1785              	.LBE1466:
 1786              	.LBE1483:
 1787              	.LBB1484:
 1788              	.LBB1475:
 1789              	.LBB1472:
 1790              		.loc 2 719 0
 1791 09c8 3C600000 		lis 3,.LC1@ha
 1792              	.LVL143:
 1793 09cc 38630024 		la 3,.LC1@l(3)
 1794 09d0 48000001 		bl _ZSt20__throw_out_of_rangePKc
 1795              	.LVL144:
 1796              	.LVL145:
 1797              	.LVL146:
 1798              	.LVL147:
 1799              	.LVL148:
 1800              	.LVL149:
 1801              	.LBE1472:
 1802              	.LBE1475:
 1803              	.LBE1484:
 1804              	.LBE1487:
 1805              		.cfi_endproc
 1806              	.LFE1082:
 1807              		.size	_ZN9NandTitle13NameFromIndexEj, .-_ZN9NandTitle13NameFromIndexEj
 1808              		.align 2
 1809              		.globl _ZN9NandTitle9VersionOfEy
 1810              		.type	_ZN9NandTitle9VersionOfEy, @function
 1811              	_ZN9NandTitle9VersionOfEy:
 1812              	.LFB1083:
 1813              		.loc 1 259 0
 1814              		.cfi_startproc
 1815              	.LVL150:
 1816 09d4 7C0802A6 		mflr 0
 1817 09d8 9421FFD0 		stwu 1,-48(1)
 1818              	.LCFI38:
 1819              		.cfi_def_cfa_offset 48
 1820              		.cfi_register 65, 0
 1821 09dc 93A10024 		stw 29,36(1)
 1822 09e0 7CDD3378 		mr 29,6
 1823              		.cfi_offset 29, -12
 1824 09e4 90010034 		stw 0,52(1)
 1825 09e8 93C10028 		stw 30,40(1)
 1826              	.LBB1504:
 1827              		.loc 1 270 0
 1828 09ec 3BC00000 		li 30,0
 1829              		.cfi_offset 30, -8
 1830              		.cfi_offset 65, 4
 1831              	.LBB1505:
 1832              	.LBB1506:
 1833              	.LBB1507:
 1834              	.LBB1508:
 1835              		.loc 1 413 0
 1836 09f0 81230000 		lwz 9,0(3)
 1837              	.LBE1508:
 1838              	.LBE1507:
 1839              	.LBE1506:
 1840              	.LBE1505:
 1841              	.LBB1515:
 1842              	.LBB1516:
 1843              		.loc 2 571 0
 1844 09f4 80030004 		lwz 0,4(3)
 1845              	.LBE1516:
 1846              	.LBE1515:
 1847              	.LBE1504:
 1848              		.loc 1 259 0
 1849 09f8 93E1002C 		stw 31,44(1)
 1850 09fc 7CBF2B78 		mr 31,5
 1851              		.cfi_offset 31, -4
 1852              	.LBB1523:
 1853              	.LBB1518:
 1854              	.LBB1517:
 1855              		.loc 2 571 0
 1856 0a00 7C090050 		subf 0,9,0
 1857              	.LBE1517:
 1858              	.LBE1518:
 1859              	.LBE1523:
 1860              		.loc 1 259 0
 1861 0a04 9361001C 		stw 27,28(1)
 1862              	.LBB1524:
 1863              		.loc 1 260 0
 1864 0a08 7C001E71 		srawi. 0,0,3
 1865              	.LBE1524:
 1866              		.loc 1 259 0
 1867 0a0c 93810020 		stw 28,32(1)
 1868              	.LBB1525:
 1869              		.loc 1 260 0
 1870 0a10 4182003C 		beq- 0,.L144
 1871              		.cfi_offset 28, -16
 1872              		.cfi_offset 27, -20
 1873              	.LVL151:
 1874              	.LBB1519:
 1875              		.loc 1 262 0
 1876 0a14 81690000 		lwz 11,0(9)
 1877 0a18 7F8B2800 		cmpw 7,11,5
 1878 0a1c 419E011C 		beq- 7,.L160
 1879              	.L156:
 1880              		.loc 1 260 0
 1881 0a20 39600000 		li 11,0
 1882 0a24 7C0903A6 		mtctr 0
 1883 0a28 48000014 		b .L159
 1884              	.LVL152:
 1885              	.L149:
 1886              		.loc 1 262 0
 1887 0a2c 7D49002E 		lwzx 10,9,0
 1888 0a30 7C090214 		add 0,9,0
 1889 0a34 7F8AF800 		cmpw 7,10,31
 1890 0a38 419E003C 		beq- 7,.L161
 1891              	.LVL153:
 1892              	.L159:
 1893              	.LBE1519:
 1894              		.loc 1 260 0
 1895 0a3c 396B0001 		addi 11,11,1
 1896              	.LVL154:
 1897              	.LBB1520:
 1898              		.loc 1 262 0
 1899 0a40 55601838 		slwi 0,11,3
 1900              	.LBE1520:
 1901              		.loc 1 260 0
 1902 0a44 4200FFE8 		bdnz .L149
 1903              		.loc 1 270 0
 1904 0a48 3BC00000 		li 30,0
 1905              	.LVL155:
 1906              	.L144:
 1907              	.LBE1525:
 1908              		.loc 1 272 0
 1909 0a4c 80010034 		lwz 0,52(1)
 1910 0a50 7FC3F378 		mr 3,30
 1911 0a54 8361001C 		lwz 27,28(1)
 1912 0a58 7C0803A6 		mtlr 0
 1913 0a5c 83810020 		lwz 28,32(1)
 1914 0a60 83A10024 		lwz 29,36(1)
 1915 0a64 83C10028 		lwz 30,40(1)
 1916 0a68 83E1002C 		lwz 31,44(1)
 1917 0a6c 38210030 		addi 1,1,48
 1918              		.cfi_remember_state
 1919              	.LCFI39:
 1920              		.cfi_def_cfa_offset 0
 1921              		.cfi_restore 31
 1922              		.cfi_restore 30
 1923              		.cfi_restore 29
 1924              		.cfi_restore 28
 1925              		.cfi_restore 27
 1926 0a70 4E800020 		blr
 1927              	.LVL156:
 1928              	.L161:
 1929              	.LCFI40:
 1930              		.cfi_restore_state
 1931              	.LBB1526:
 1932              	.LBB1521:
 1933              		.loc 1 262 0
 1934 0a74 7C0A0378 		mr 10,0
 1935 0a78 800A0004 		lwz 0,4(10)
 1936 0a7c 7F80E800 		cmpw 7,0,29
 1937 0a80 409EFFBC 		bne+ 7,.L159
 1938              	.LVL157:
 1939              	.L145:
 1940              	.LBB1513:
 1941              	.LBB1511:
 1942              	.LBB1509:
 1943              		.loc 1 79 0
 1944 0a84 7FE3FB78 		mr 3,31
 1945              	.LVL158:
 1946 0a88 7FA4EB78 		mr 4,29
 1947 0a8c 38A10008 		addi 5,1,8
 1948              	.LVL159:
 1949              		.loc 1 270 0
 1950 0a90 3BC00000 		li 30,0
 1951              		.loc 1 79 0
 1952 0a94 48000001 		bl ES_GetStoredTMDSize
 1953              	.LVL160:
 1954 0a98 2F830000 		cmpwi 7,3,0
 1955 0a9c 41BCFFB0 		blt- 7,.L144
 1956              		.loc 1 82 0
 1957 0aa0 3F600000 		lis 27,.LANCHOR0@ha
 1958              	.LVL161:
 1959 0aa4 80C10008 		lwz 6,8(1)
 1960 0aa8 3B9B0000 		la 28,.LANCHOR0@l(27)
 1961 0aac 7FE3FB78 		mr 3,31
 1962 0ab0 7FA4EB78 		mr 4,29
 1963 0ab4 7F85E378 		mr 5,28
 1964 0ab8 48000001 		bl ES_GetStoredTMD
 1965              	.LVL162:
 1966              		.loc 1 83 0
 1967 0abc 2F830000 		cmpwi 7,3,0
 1968 0ac0 41BCFF8C 		blt- 7,.L144
 1969              		.loc 1 86 0
 1970 0ac4 801B0000 		lwz 0,.LANCHOR0@l(27)
 1971 0ac8 3D200001 		lis 9,0x1
 1972 0acc 61290001 		ori 9,9,1
 1973 0ad0 7F804800 		cmpw 7,0,9
 1974 0ad4 393C0140 		addi 9,28,320
 1975 0ad8 419E0028 		beq- 7,.L148
 1976 0adc 3D200001 		lis 9,0x1
 1977 0ae0 7F804800 		cmpw 7,0,9
 1978 0ae4 393C0240 		addi 9,28,576
 1979 0ae8 419E0018 		beq- 7,.L148
 1980 0aec 3D200001 		lis 9,0x1
 1981 0af0 61290002 		ori 9,9,2
 1982 0af4 7F804800 		cmpw 7,0,9
 1983 0af8 7F89E378 		mr 9,28
 1984 0afc 419E0030 		beq- 7,.L162
 1985              	.L148:
 1986              	.LVL163:
 1987              	.LBE1509:
 1988              	.LBE1511:
 1989              		.loc 1 267 0
 1990 0b00 A3C9009C 		lhz 30,156(9)
 1991              	.L163:
 1992              	.LBE1513:
 1993              	.LBE1521:
 1994              	.LBE1526:
 1995              		.loc 1 272 0
 1996 0b04 80010034 		lwz 0,52(1)
 1997 0b08 7FC3F378 		mr 3,30
 1998              	.LVL164:
 1999 0b0c 8361001C 		lwz 27,28(1)
 2000 0b10 7C0803A6 		mtlr 0
 2001 0b14 83810020 		lwz 28,32(1)
 2002 0b18 83A10024 		lwz 29,36(1)
 2003              	.LVL165:
 2004 0b1c 83C10028 		lwz 30,40(1)
 2005 0b20 83E1002C 		lwz 31,44(1)
 2006 0b24 38210030 		addi 1,1,48
 2007              		.cfi_remember_state
 2008              		.cfi_restore 27
 2009              		.cfi_restore 28
 2010              		.cfi_restore 29
 2011              		.cfi_restore 30
 2012              		.cfi_restore 31
 2013              	.LCFI41:
 2014              		.cfi_def_cfa_offset 0
 2015 0b28 4E800020 		blr
 2016              	.LVL166:
 2017              	.L162:
 2018              	.LCFI42:
 2019              		.cfi_restore_state
 2020              	.LBB1527:
 2021              	.LBB1522:
 2022              	.LBB1514:
 2023              	.LBB1512:
 2024              	.LBB1510:
 2025              		.loc 1 86 0
 2026 0b2c 393C0080 		addi 9,28,128
 2027              	.LVL167:
 2028              	.LBE1510:
 2029              	.LBE1512:
 2030              		.loc 1 267 0
 2031 0b30 A3C9009C 		lhz 30,156(9)
 2032 0b34 4BFFFFD0 		b .L163
 2033              	.LVL168:
 2034              	.L160:
 2035              	.LBE1514:
 2036              		.loc 1 262 0
 2037 0b38 81690004 		lwz 11,4(9)
 2038 0b3c 7F8B3000 		cmpw 7,11,6
 2039 0b40 409EFEE0 		bne+ 7,.L156
 2040 0b44 4BFFFF40 		b .L145
 2041              	.LBE1522:
 2042              	.LBE1527:
 2043              		.cfi_endproc
 2044              	.LFE1083:
 2045              		.size	_ZN9NandTitle9VersionOfEy, .-_ZN9NandTitle9VersionOfEy
 2046              		.align 2
 2047              		.globl _ZN9NandTitle16VersionFromIndexEj
 2048              		.type	_ZN9NandTitle16VersionFromIndexEj, @function
 2049              	_ZN9NandTitle16VersionFromIndexEj:
 2050              	.LFB1084:
 2051              		.loc 1 275 0
 2052              		.cfi_startproc
 2053              	.LVL169:
 2054 0b48 7C0802A6 		mflr 0
 2055 0b4c 9421FFD0 		stwu 1,-48(1)
 2056              	.LCFI43:
 2057              		.cfi_def_cfa_offset 48
 2058              		.cfi_register 65, 0
 2059 0b50 93A10024 		stw 29,36(1)
 2060              	.LBB1542:
 2061              		.loc 1 276 0
 2062 0b54 3BA00000 		li 29,0
 2063              		.cfi_offset 29, -12
 2064              	.LBE1542:
 2065              		.loc 1 275 0
 2066 0b58 90010034 		stw 0,52(1)
 2067 0b5c 9361001C 		stw 27,28(1)
 2068              	.LBB1563:
 2069              	.LBB1543:
 2070              	.LBB1544:
 2071              		.loc 1 413 0
 2072 0b60 80030000 		lwz 0,0(3)
 2073              		.cfi_offset 27, -20
 2074              		.cfi_offset 65, 4
 2075              	.LBE1544:
 2076              	.LBE1543:
 2077              	.LBB1548:
 2078              	.LBB1549:
 2079              		.loc 2 571 0
 2080 0b64 81230004 		lwz 9,4(3)
 2081              	.LBE1549:
 2082              	.LBE1548:
 2083              	.LBE1563:
 2084              		.loc 1 275 0
 2085 0b68 93810020 		stw 28,32(1)
 2086              	.LBB1564:
 2087              	.LBB1552:
 2088              	.LBB1550:
 2089              		.loc 2 571 0
 2090 0b6c 7D204850 		subf 9,0,9
 2091              	.LBE1550:
 2092              	.LBE1552:
 2093              	.LBE1564:
 2094              		.loc 1 275 0
 2095 0b70 93C10028 		stw 30,40(1)
 2096              	.LBB1565:
 2097              	.LBB1553:
 2098              	.LBB1551:
 2099              		.loc 2 571 0
 2100 0b74 7D291E70 		srawi 9,9,3
 2101              	.LBE1551:
 2102              	.LBE1553:
 2103              	.LBE1565:
 2104              		.loc 1 275 0
 2105 0b78 93E1002C 		stw 31,44(1)
 2106              	.LBB1566:
 2107              		.loc 1 276 0
 2108 0b7c 7F844840 		cmplw 7,4,9
 2109 0b80 409D002C 		ble- 7,.L174
 2110              		.cfi_offset 31, -4
 2111              		.cfi_offset 30, -8
 2112              		.cfi_offset 28, -16
 2113              	.LVL170:
 2114              	.L165:
 2115              	.LBE1566:
 2116              		.loc 1 282 0
 2117 0b84 80010034 		lwz 0,52(1)
 2118 0b88 7FA3EB78 		mr 3,29
 2119 0b8c 8361001C 		lwz 27,28(1)
 2120 0b90 7C0803A6 		mtlr 0
 2121 0b94 83810020 		lwz 28,32(1)
 2122 0b98 83A10024 		lwz 29,36(1)
 2123 0b9c 83C10028 		lwz 30,40(1)
 2124 0ba0 83E1002C 		lwz 31,44(1)
 2125 0ba4 38210030 		addi 1,1,48
 2126              		.cfi_remember_state
 2127              	.LCFI44:
 2128              		.cfi_def_cfa_offset 0
 2129              		.cfi_restore 31
 2130              		.cfi_restore 30
 2131              		.cfi_restore 29
 2132              		.cfi_restore 28
 2133              		.cfi_restore 27
 2134 0ba8 4E800020 		blr
 2135              	.LVL171:
 2136              	.L174:
 2137              	.LCFI45:
 2138              		.cfi_restore_state
 2139              	.LBB1567:
 2140              	.LBB1554:
 2141              	.LBB1555:
 2142              	.LBB1556:
 2143              		.loc 2 718 0
 2144 0bac 409C00C4 		bge- 7,.L175
 2145              	.LVL172:
 2146              	.LBE1556:
 2147              	.LBE1555:
 2148              	.LBE1554:
 2149              		.loc 1 278 0
 2150 0bb0 54841838 		slwi 4,4,3
 2151              	.LVL173:
 2152              	.LBB1559:
 2153              	.LBB1545:
 2154              		.loc 1 79 0
 2155 0bb4 38A10008 		addi 5,1,8
 2156              	.LBE1545:
 2157              	.LBE1559:
 2158              		.loc 1 278 0
 2159 0bb8 7C802214 		add 4,0,4
 2160 0bbc 83C40000 		lwz 30,0(4)
 2161 0bc0 83E40004 		lwz 31,4(4)
 2162              	.LVL174:
 2163              	.LBB1560:
 2164              	.LBB1546:
 2165              		.loc 1 79 0
 2166 0bc4 7FC3F378 		mr 3,30
 2167              	.LVL175:
 2168 0bc8 7FE4FB78 		mr 4,31
 2169 0bcc 48000001 		bl ES_GetStoredTMDSize
 2170 0bd0 2F830000 		cmpwi 7,3,0
 2171 0bd4 41BCFFB0 		blt- 7,.L165
 2172              		.loc 1 82 0
 2173 0bd8 3F600000 		lis 27,.LANCHOR0@ha
 2174              	.LVL176:
 2175 0bdc 80C10008 		lwz 6,8(1)
 2176 0be0 3B9B0000 		la 28,.LANCHOR0@l(27)
 2177 0be4 7FC3F378 		mr 3,30
 2178 0be8 7FE4FB78 		mr 4,31
 2179 0bec 7F85E378 		mr 5,28
 2180 0bf0 48000001 		bl ES_GetStoredTMD
 2181              	.LVL177:
 2182              		.loc 1 83 0
 2183 0bf4 2F830000 		cmpwi 7,3,0
 2184 0bf8 41BCFF8C 		blt- 7,.L165
 2185              		.loc 1 86 0
 2186 0bfc 801B0000 		lwz 0,.LANCHOR0@l(27)
 2187 0c00 3D200001 		lis 9,0x1
 2188 0c04 61290001 		ori 9,9,1
 2189 0c08 7F804800 		cmpw 7,0,9
 2190 0c0c 393C0140 		addi 9,28,320
 2191 0c10 419E0028 		beq- 7,.L167
 2192 0c14 3D200001 		lis 9,0x1
 2193 0c18 7F804800 		cmpw 7,0,9
 2194 0c1c 393C0240 		addi 9,28,576
 2195 0c20 419E0018 		beq- 7,.L167
 2196 0c24 3D200001 		lis 9,0x1
 2197 0c28 61290002 		ori 9,9,2
 2198 0c2c 7F804800 		cmpw 7,0,9
 2199 0c30 7F89E378 		mr 9,28
 2200 0c34 419E0030 		beq- 7,.L176
 2201              	.L167:
 2202              	.LVL178:
 2203              	.LBE1546:
 2204              	.LBE1560:
 2205              		.loc 1 281 0
 2206 0c38 A3A9009C 		lhz 29,156(9)
 2207              	.L177:
 2208              	.LBE1567:
 2209              		.loc 1 282 0
 2210 0c3c 80010034 		lwz 0,52(1)
 2211 0c40 7FA3EB78 		mr 3,29
 2212              	.LVL179:
 2213 0c44 8361001C 		lwz 27,28(1)
 2214 0c48 7C0803A6 		mtlr 0
 2215 0c4c 83810020 		lwz 28,32(1)
 2216 0c50 83A10024 		lwz 29,36(1)
 2217 0c54 83C10028 		lwz 30,40(1)
 2218              	.LVL180:
 2219 0c58 83E1002C 		lwz 31,44(1)
 2220 0c5c 38210030 		addi 1,1,48
 2221              		.cfi_remember_state
 2222              		.cfi_restore 27
 2223              		.cfi_restore 28
 2224              		.cfi_restore 29
 2225              		.cfi_restore 30
 2226              		.cfi_restore 31
 2227              	.LCFI46:
 2228              		.cfi_def_cfa_offset 0
 2229 0c60 4E800020 		blr
 2230              	.LVL181:
 2231              	.L176:
 2232              	.LCFI47:
 2233              		.cfi_restore_state
 2234              	.LBB1568:
 2235              	.LBB1561:
 2236              	.LBB1547:
 2237              		.loc 1 86 0
 2238 0c64 393C0080 		addi 9,28,128
 2239              	.LVL182:
 2240              	.LBE1547:
 2241              	.LBE1561:
 2242              		.loc 1 281 0
 2243 0c68 A3A9009C 		lhz 29,156(9)
 2244 0c6c 4BFFFFD0 		b .L177
 2245              	.LVL183:
 2246              	.L175:
 2247              	.LBB1562:
 2248              	.LBB1558:
 2249              	.LBB1557:
 2250              		.loc 2 719 0
 2251 0c70 3C600000 		lis 3,.LC1@ha
 2252              	.LVL184:
 2253 0c74 38630024 		la 3,.LC1@l(3)
 2254 0c78 48000001 		bl _ZSt20__throw_out_of_rangePKc
 2255              	.LVL185:
 2256              	.LVL186:
 2257              	.LVL187:
 2258              	.LBE1557:
 2259              	.LBE1558:
 2260              	.LBE1562:
 2261              	.LBE1568:
 2262              		.cfi_endproc
 2263              	.LFE1084:
 2264              		.size	_ZN9NandTitle16VersionFromIndexEj, .-_ZN9NandTitle16VersionFromIndexEj
 2265              		.align 2
 2266              		.globl _ZN9NandTitle9CountTypeEj
 2267              		.type	_ZN9NandTitle9CountTypeEj, @function
 2268              	_ZN9NandTitle9CountTypeEj:
 2269              	.LFB1085:
 2270              		.loc 1 285 0
 2271              		.cfi_startproc
 2272              	.LVL188:
 2273              	.LBB1585:
 2274              	.LBB1586:
 2275              		.loc 1 413 0
 2276 0c7c 81230000 		lwz 9,0(3)
 2277              	.LBB1587:
 2278              	.LBB1588:
 2279              		.loc 2 571 0
 2280 0c80 80030004 		lwz 0,4(3)
 2281              	.LBE1588:
 2282              	.LBE1587:
 2283              		.loc 1 286 0
 2284 0c84 38600000 		li 3,0
 2285              	.LVL189:
 2286              	.LBB1590:
 2287              	.LBB1589:
 2288              		.loc 2 571 0
 2289 0c88 7C090050 		subf 0,9,0
 2290              	.LBE1589:
 2291              	.LBE1590:
 2292              		.loc 1 287 0
 2293 0c8c 7C001E71 		srawi. 0,0,3
 2294 0c90 4D820020 		beqlr- 0
 2295              		.loc 1 286 0
 2296 0c94 7C0903A6 		mtctr 0
 2297              		.loc 1 287 0
 2298 0c98 39600000 		li 11,0
 2299              	.LVL190:
 2300              	.L182:
 2301              		.loc 1 289 0
 2302 0c9c 55601838 		slwi 0,11,3
 2303              		.loc 1 291 0
 2304 0ca0 39430001 		addi 10,3,1
 2305              		.loc 1 289 0
 2306 0ca4 7C09002E 		lwzx 0,9,0
 2307              		.loc 1 287 0
 2308 0ca8 396B0001 		addi 11,11,1
 2309              		.loc 1 291 0
 2310 0cac 7F840000 		cmpw 7,4,0
 2311 0cb0 419E000C 		beq- 7,.L185
 2312              	.LVL191:
 2313              		.loc 1 287 0
 2314 0cb4 4200FFE8 		bdnz .L182
 2315              	.LVL192:
 2316              	.L186:
 2317              	.LBE1586:
 2318              	.LBE1585:
 2319              		.loc 1 295 0
 2320 0cb8 4E800020 		blr
 2321              	.LVL193:
 2322              	.L185:
 2323              	.LBB1592:
 2324              	.LBB1591:
 2325              		.loc 1 291 0
 2326 0cbc 7D435378 		mr 3,10
 2327              	.LVL194:
 2328              		.loc 1 287 0
 2329 0cc0 4200FFDC 		bdnz .L182
 2330 0cc4 4BFFFFF4 		b .L186
 2331              	.LBE1591:
 2332              	.LBE1592:
 2333              		.cfi_endproc
 2334              	.LFE1085:
 2335              		.size	_ZN9NandTitle9CountTypeEj, .-_ZN9NandTitle9CountTypeEj
 2336              		.align 2
 2337              		.globl _ZN9NandTitle7SetTypeEj
 2338              		.type	_ZN9NandTitle7SetTypeEj, @function
 2339              	_ZN9NandTitle7SetTypeEj:
 2340              	.LFB1086:
 2341              		.loc 1 298 0
 2342              		.cfi_startproc
 2343              	.LVL195:
 2344              	.LBB1607:
 2345              		.loc 1 413 0
 2346 0cc8 81230000 		lwz 9,0(3)
 2347              	.LBE1607:
 2348              		.loc 1 300 0
 2349 0ccc 39600000 		li 11,0
 2350              	.LBB1620:
 2351              	.LBB1608:
 2352              	.LBB1609:
 2353              	.LBB1610:
 2354              	.LBB1611:
 2355              		.loc 2 571 0
 2356 0cd0 80030004 		lwz 0,4(3)
 2357              	.LBE1611:
 2358              	.LBE1610:
 2359              	.LBE1609:
 2360              	.LBE1608:
 2361              	.LBE1620:
 2362              		.loc 1 299 0
 2363 0cd4 90830028 		stw 4,40(3)
 2364              	.LBB1621:
 2365              	.LBB1617:
 2366              	.LBB1614:
 2367              	.LBB1613:
 2368              	.LBB1612:
 2369              		.loc 2 571 0
 2370 0cd8 7C090050 		subf 0,9,0
 2371              	.LBE1612:
 2372              	.LBE1613:
 2373              	.LBE1614:
 2374              	.LBE1617:
 2375              	.LBE1621:
 2376              		.loc 1 300 0
 2377 0cdc 91630024 		stw 11,36(3)
 2378              	.LVL196:
 2379              	.LBB1622:
 2380              	.LBB1618:
 2381              	.LBB1615:
 2382              		.loc 1 287 0
 2383 0ce0 7C001E71 		srawi. 0,0,3
 2384              		.loc 1 286 0
 2385 0ce4 38600000 		li 3,0
 2386              	.LVL197:
 2387              		.loc 1 287 0
 2388 0ce8 4D820020 		beqlr- 0
 2389              	.LVL198:
 2390 0cec 7C0903A6 		mtctr 0
 2391              	.LVL199:
 2392              	.L191:
 2393              		.loc 1 289 0
 2394 0cf0 55601838 		slwi 0,11,3
 2395              		.loc 1 291 0
 2396 0cf4 39430001 		addi 10,3,1
 2397              		.loc 1 289 0
 2398 0cf8 7C09002E 		lwzx 0,9,0
 2399              		.loc 1 287 0
 2400 0cfc 396B0001 		addi 11,11,1
 2401              		.loc 1 291 0
 2402 0d00 7F840000 		cmpw 7,4,0
 2403 0d04 419E000C 		beq- 7,.L194
 2404              	.LVL200:
 2405              		.loc 1 287 0
 2406 0d08 4200FFE8 		bdnz .L191
 2407              	.LVL201:
 2408              	.L195:
 2409              	.LBE1615:
 2410              	.LBE1618:
 2411              	.LBE1622:
 2412              		.loc 1 303 0
 2413 0d0c 4E800020 		blr
 2414              	.LVL202:
 2415              	.L194:
 2416              	.LBB1623:
 2417              	.LBB1619:
 2418              	.LBB1616:
 2419              		.loc 1 291 0
 2420 0d10 7D435378 		mr 3,10
 2421              	.LVL203:
 2422              		.loc 1 287 0
 2423 0d14 4200FFDC 		bdnz .L191
 2424 0d18 4BFFFFF4 		b .L195
 2425              	.LBE1616:
 2426              	.LBE1619:
 2427              	.LBE1623:
 2428              		.cfi_endproc
 2429              	.LFE1086:
 2430              		.size	_ZN9NandTitle7SetTypeEj, .-_ZN9NandTitle7SetTypeEj
 2431              		.align 2
 2432              		.globl _ZN9NandTitle4NextEv
 2433              		.type	_ZN9NandTitle4NextEv, @function
 2434              	_ZN9NandTitle4NextEv:
 2435              	.LFB1087:
 2436              		.loc 1 306 0
 2437              		.cfi_startproc
 2438              	.LVL204:
 2439              	.LBB1651:
 2440              		.loc 1 413 0
 2441 0d1c 80030000 		lwz 0,0(3)
 2442              		.loc 1 307 0
 2443 0d20 39400000 		li 10,0
 2444              	.LBB1652:
 2445              	.LBB1653:
 2446              		.loc 2 571 0
 2447 0d24 81030004 		lwz 8,4(3)
 2448              	.LBE1653:
 2449              	.LBE1652:
 2450              		.loc 1 307 0
 2451 0d28 39600000 		li 11,0
 2452              		.loc 1 309 0
 2453 0d2c 80E30024 		lwz 7,36(3)
 2454              	.LVL205:
 2455              	.LBB1655:
 2456              	.LBB1654:
 2457              		.loc 2 571 0
 2458 0d30 7D004050 		subf 8,0,8
 2459 0d34 7D081E70 		srawi 8,8,3
 2460              	.LBE1654:
 2461              	.LBE1655:
 2462              		.loc 1 309 0
 2463 0d38 7F874040 		cmplw 7,7,8
 2464 0d3c 409C0074 		bge- 7,.L197
 2465              		.loc 1 311 0
 2466 0d40 80C30028 		lwz 6,40(3)
 2467              		.loc 1 313 0
 2468 0d44 54E91838 		slwi 9,7,3
 2469 0d48 7D204A14 		add 9,0,9
 2470              		.loc 1 311 0
 2471 0d4c 2F860000 		cmpwi 7,6,0
 2472              		.loc 1 313 0
 2473 0d50 81490000 		lwz 10,0(9)
 2474 0d54 81690004 		lwz 11,4(9)
 2475              		.loc 1 311 0
 2476 0d58 419E0058 		beq- 7,.L197
 2477              	.LVL206:
 2478              		.loc 1 313 0
 2479 0d5c 7F865000 		cmpw 7,6,10
 2480 0d60 419E0050 		beq- 7,.L197
 2481              		.loc 1 305 0
 2482 0d64 39270001 		addi 9,7,1
 2483 0d68 7F894040 		cmplw 7,9,8
 2484              		.loc 1 322 0
 2485 0d6c 7D694050 		subf 11,9,8
 2486 0d70 396B0001 		addi 11,11,1
 2487 0d74 55281838 		slwi 8,9,3
 2488 0d78 7D6903A6 		mtctr 11
 2489 0d7c 40BD0020 		ble+ 7,.L201
 2490 0d80 48000044 		b .L208
 2491              	.LVL207:
 2492              	.L202:
 2493              		.loc 1 313 0
 2494 0d84 814B0000 		lwz 10,0(11)
 2495 0d88 39080008 		addi 8,8,8
 2496 0d8c 816B0004 		lwz 11,4(11)
 2497 0d90 39290001 		addi 9,9,1
 2498 0d94 7F865000 		cmpw 7,6,10
 2499 0d98 419E0018 		beq- 7,.L197
 2500              	.L201:
 2501 0d9c 7D604214 		add 11,0,8
 2502              		.loc 1 309 0
 2503 0da0 7D274B78 		mr 7,9
 2504              	.LVL208:
 2505 0da4 4200FFE0 		bdnz .L202
 2506              		.loc 1 307 0
 2507 0da8 39400000 		li 10,0
 2508 0dac 39600000 		li 11,0
 2509              	.LVL209:
 2510              	.L197:
 2511              		.loc 1 325 0
 2512 0db0 38E70001 		addi 7,7,1
 2513              	.LVL210:
 2514              	.LBE1651:
 2515              		.loc 1 328 0
 2516 0db4 7D645B78 		mr 4,11
 2517              	.LBB1656:
 2518              		.loc 1 325 0
 2519 0db8 90E30024 		stw 7,36(3)
 2520              	.LBE1656:
 2521              		.loc 1 328 0
 2522 0dbc 7D435378 		mr 3,10
 2523              	.LVL211:
 2524 0dc0 4E800020 		blr
 2525              	.LVL212:
 2526              	.L208:
 2527 0dc4 39600001 		li 11,1
 2528 0dc8 7D6903A6 		mtctr 11
 2529 0dcc 4BFFFFD0 		b .L201
 2530              		.cfi_endproc
 2531              	.LFE1087:
 2532              		.size	_ZN9NandTitle4NextEv, .-_ZN9NandTitle4NextEv
 2533              		.align 2
 2534              		.globl _ZN9NandTitle12ResetCounterEv
 2535              		.type	_ZN9NandTitle12ResetCounterEv, @function
 2536              	_ZN9NandTitle12ResetCounterEv:
 2537              	.LFB1088:
 2538              		.loc 1 331 0
 2539              		.cfi_startproc
 2540              	.LVL213:
 2541              		.loc 1 332 0
 2542 0dd0 38000000 		li 0,0
 2543              		.loc 1 333 0
 2544              		.loc 1 332 0
 2545 0dd4 90030024 		stw 0,36(3)
 2546              		.loc 1 333 0
 2547 0dd8 4E800020 		blr
 2548              		.cfi_endproc
 2549              	.LFE1088:
 2550              		.size	_ZN9NandTitle12ResetCounterEv, .-_ZN9NandTitle12ResetCounterEv
 2551              		.align 2
 2552              		.globl _ZN9NandTitle8AsciiTIDEyPc
 2553              		.type	_ZN9NandTitle8AsciiTIDEyPc, @function
 2554              	_ZN9NandTitle8AsciiTIDEyPc:
 2555              	.LFB1089:
 2556              		.loc 1 336 0
 2557              		.cfi_startproc
 2558              	.LVL214:
 2559 0ddc 7C0802A6 		mflr 0
 2560 0de0 9421FFF0 		stwu 1,-16(1)
 2561              	.LCFI48:
 2562              		.cfi_def_cfa_offset 16
 2563              		.cfi_register 65, 0
 2564              		.loc 1 337 0
 2565 0de4 54C3463E 		srwi 3,6,24
 2566              	.LVL215:
 2567              		.loc 1 336 0
 2568 0de8 93C10008 		stw 30,8(1)
 2569 0dec 7CFE3B78 		mr 30,7
 2570              		.cfi_offset 30, -8
 2571 0df0 90010014 		stw 0,20(1)
 2572 0df4 93E1000C 		stw 31,12(1)
 2573              		.loc 1 336 0
 2574 0df8 7CDF3378 		mr 31,6
 2575              		.cfi_offset 31, -4
 2576              		.cfi_offset 65, 4
 2577              		.loc 1 337 0
 2578 0dfc 48000001 		bl ascii
 2579              	.LVL216:
 2580 0e00 987E0000 		stb 3,0(30)
 2581              		.loc 1 338 0
 2582 0e04 57E3863E 		rlwinm 3,31,16,24,31
 2583 0e08 48000001 		bl ascii
 2584 0e0c 987E0001 		stb 3,1(30)
 2585              		.loc 1 339 0
 2586 0e10 57E3C63E 		rlwinm 3,31,24,24,31
 2587 0e14 48000001 		bl ascii
 2588 0e18 987E0002 		stb 3,2(30)
 2589              		.loc 1 340 0
 2590 0e1c 57E3063E 		rlwinm 3,31,0,0xff
 2591 0e20 48000001 		bl ascii
 2592              		.loc 1 341 0
 2593 0e24 38000000 		li 0,0
 2594              		.loc 1 340 0
 2595 0e28 987E0003 		stb 3,3(30)
 2596              		.loc 1 341 0
 2597 0e2c 981E0004 		stb 0,4(30)
 2598              		.loc 1 342 0
 2599 0e30 80010014 		lwz 0,20(1)
 2600 0e34 83C10008 		lwz 30,8(1)
 2601              	.LVL217:
 2602 0e38 7C0803A6 		mtlr 0
 2603 0e3c 83E1000C 		lwz 31,12(1)
 2604 0e40 38210010 		addi 1,1,16
 2605              	.LCFI49:
 2606              		.cfi_def_cfa_offset 0
 2607              		.cfi_restore 31
 2608              		.cfi_restore 30
 2609 0e44 4E800020 		blr
 2610              		.cfi_endproc
 2611              	.LFE1089:
 2612              		.size	_ZN9NandTitle8AsciiTIDEyPc, .-_ZN9NandTitle8AsciiTIDEyPc
 2613              		.align 2
 2614              		.globl _ZN9NandTitle14AsciiFromIndexEjPc
 2615              		.type	_ZN9NandTitle14AsciiFromIndexEjPc, @function
 2616              	_ZN9NandTitle14AsciiFromIndexEjPc:
 2617              	.LFB1090:
 2618              		.loc 1 345 0
 2619              		.cfi_startproc
 2620              	.LVL218:
 2621 0e48 7C0802A6 		mflr 0
 2622 0e4c 9421FFF0 		stwu 1,-16(1)
 2623              	.LCFI50:
 2624              		.cfi_def_cfa_offset 16
 2625              		.cfi_register 65, 0
 2626 0e50 93E1000C 		stw 31,12(1)
 2627 0e54 7CBF2B78 		mr 31,5
 2628              		.cfi_offset 31, -4
 2629 0e58 90010014 		stw 0,20(1)
 2630 0e5c 93C10008 		stw 30,8(1)
 2631              		.loc 1 413 0
 2632 0e60 80030000 		lwz 0,0(3)
 2633              		.cfi_offset 30, -8
 2634              		.cfi_offset 65, 4
 2635              	.LBB1669:
 2636              	.LBB1670:
 2637              		.loc 2 571 0
 2638 0e64 81230004 		lwz 9,4(3)
 2639 0e68 7D204850 		subf 9,0,9
 2640 0e6c 7D291E70 		srawi 9,9,3
 2641              	.LBE1670:
 2642              	.LBE1669:
 2643              		.loc 1 346 0
 2644 0e70 7F844840 		cmplw 7,4,9
 2645 0e74 409D0024 		ble- 7,.L212
 2646              		.loc 1 348 0
 2647 0e78 38000000 		li 0,0
 2648              		.loc 1 353 0
 2649 0e7c 83C10008 		lwz 30,8(1)
 2650              		.loc 1 348 0
 2651 0e80 98050000 		stb 0,0(5)
 2652              		.loc 1 353 0
 2653 0e84 80010014 		lwz 0,20(1)
 2654 0e88 83E1000C 		lwz 31,12(1)
 2655 0e8c 7C0803A6 		mtlr 0
 2656 0e90 38210010 		addi 1,1,16
 2657              		.cfi_remember_state
 2658              	.LCFI51:
 2659              		.cfi_def_cfa_offset 0
 2660              		.cfi_restore 31
 2661              		.cfi_restore 30
 2662 0e94 4E800020 		blr
 2663              	.L212:
 2664              	.LCFI52:
 2665              		.cfi_restore_state
 2666              	.LVL219:
 2667              	.LBB1671:
 2668              	.LBB1672:
 2669              	.LBB1673:
 2670              		.loc 2 718 0
 2671 0e98 409C0060 		bge- 7,.L215
 2672              	.LVL220:
 2673              	.LBE1673:
 2674              	.LBE1672:
 2675              	.LBE1671:
 2676              		.loc 1 352 0
 2677 0e9c 54841838 		slwi 4,4,3
 2678              	.LVL221:
 2679 0ea0 7C802214 		add 4,0,4
 2680 0ea4 83C40004 		lwz 30,4(4)
 2681              	.LVL222:
 2682              	.LBB1676:
 2683              	.LBB1677:
 2684              		.loc 1 337 0
 2685 0ea8 57C3463E 		srwi 3,30,24
 2686              	.LVL223:
 2687 0eac 48000001 		bl ascii
 2688              	.LVL224:
 2689 0eb0 987F0000 		stb 3,0(31)
 2690              		.loc 1 338 0
 2691 0eb4 57C3863E 		rlwinm 3,30,16,24,31
 2692 0eb8 48000001 		bl ascii
 2693 0ebc 987F0001 		stb 3,1(31)
 2694              		.loc 1 339 0
 2695 0ec0 57C3C63E 		rlwinm 3,30,24,24,31
 2696 0ec4 48000001 		bl ascii
 2697 0ec8 987F0002 		stb 3,2(31)
 2698              		.loc 1 340 0
 2699 0ecc 57C3063E 		rlwinm 3,30,0,0xff
 2700 0ed0 48000001 		bl ascii
 2701              		.loc 1 341 0
 2702 0ed4 38000000 		li 0,0
 2703              		.loc 1 340 0
 2704 0ed8 987F0003 		stb 3,3(31)
 2705              		.loc 1 341 0
 2706 0edc 981F0004 		stb 0,4(31)
 2707              	.LBE1677:
 2708              	.LBE1676:
 2709              		.loc 1 353 0
 2710 0ee0 80010014 		lwz 0,20(1)
 2711 0ee4 83C10008 		lwz 30,8(1)
 2712 0ee8 7C0803A6 		mtlr 0
 2713 0eec 83E1000C 		lwz 31,12(1)
 2714              	.LVL225:
 2715 0ef0 38210010 		addi 1,1,16
 2716              		.cfi_remember_state
 2717              		.cfi_restore 30
 2718              		.cfi_restore 31
 2719              	.LCFI53:
 2720              		.cfi_def_cfa_offset 0
 2721 0ef4 4E800020 		blr
 2722              	.LVL226:
 2723              	.L215:
 2724              	.LCFI54:
 2725              		.cfi_restore_state
 2726              	.LBB1678:
 2727              	.LBB1675:
 2728              	.LBB1674:
 2729              		.loc 2 719 0
 2730 0ef8 3C600000 		lis 3,.LC1@ha
 2731              	.LVL227:
 2732 0efc 38630024 		la 3,.LC1@l(3)
 2733 0f00 48000001 		bl _ZSt20__throw_out_of_rangePKc
 2734              	.LVL228:
 2735              	.LVL229:
 2736              	.LVL230:
 2737              	.LVL231:
 2738              	.LBE1674:
 2739              	.LBE1675:
 2740              	.LBE1678:
 2741              		.cfi_endproc
 2742              	.LFE1090:
 2743              		.size	_ZN9NandTitle14AsciiFromIndexEjPc, .-_ZN9NandTitle14AsciiFromIndexEjPc
 2744              		.align 2
 2745              		.globl _ZN9NandTitle14GetTicketViewsEyPP8_tikviewPj
 2746              		.type	_ZN9NandTitle14GetTicketViewsEyPP8_tikviewPj, @function
 2747              	_ZN9NandTitle14GetTicketViewsEyPP8_tikviewPj:
 2748              	.LFB1091:
 2749              		.loc 1 356 0
 2750              		.cfi_startproc
 2751              	.LVL232:
 2752 0f04 9421FFD0 		stwu 1,-48(1)
 2753              	.LCFI55:
 2754              		.cfi_def_cfa_offset 48
 2755 0f08 7C0802A6 		mflr 0
 2756              	.LBB1679:
 2757              		.loc 1 363 0
 2758 0f0c 7CA32B78 		mr 3,5
 2759              	.LVL233:
 2760 0f10 7CC43378 		mr 4,6
 2761              	.LBE1679:
 2762              		.loc 1 356 0
 2763 0f14 93C10028 		stw 30,40(1)
 2764 0f18 7CBE2B78 		mr 30,5
 2765              		.cfi_offset 30, -8
 2766              		.cfi_register 65, 0
 2767              	.LBB1680:
 2768              		.loc 1 363 0
 2769 0f1c 38A10008 		addi 5,1,8
 2770              	.LVL234:
 2771              	.LBE1680:
 2772              		.loc 1 356 0
 2773 0f20 93410018 		stw 26,24(1)
 2774 0f24 9361001C 		stw 27,28(1)
 2775 0f28 7D1B4378 		mr 27,8
 2776              		.cfi_offset 27, -20
 2777              		.cfi_offset 26, -24
 2778 0f2c 93A10024 		stw 29,36(1)
 2779 0f30 7CFD3B78 		mr 29,7
 2780              		.cfi_offset 29, -12
 2781 0f34 93E1002C 		stw 31,44(1)
 2782 0f38 7CDF3378 		mr 31,6
 2783              		.cfi_offset 31, -4
 2784 0f3c 90010034 		stw 0,52(1)
 2785 0f40 93810020 		stw 28,32(1)
 2786              	.LBB1681:
 2787              		.loc 1 363 0
 2788              		.cfi_offset 28, -16
 2789              		.cfi_offset 65, 4
 2790 0f44 48000001 		bl ES_GetNumTicketViews
 2791              	.LVL235:
 2792              		.loc 1 364 0
 2793 0f48 7C7A1B79 		mr. 26,3
 2794 0f4c 4180004C 		blt- 0,.L217
 2795              	.LVL236:
 2796              		.loc 1 367 0
 2797 0f50 80810008 		lwz 4,8(1)
 2798 0f54 38600020 		li 3,32
 2799              	.LVL237:
 2800              		.loc 1 368 0
 2801 0f58 3B40FFFF 		li 26,-1
 2802              	.LVL238:
 2803              		.loc 1 367 0
 2804 0f5c 1C8400D8 		mulli 4,4,216
 2805 0f60 48000001 		bl memalign
 2806              	.LVL239:
 2807              		.loc 1 368 0
 2808 0f64 7C7C1B79 		mr. 28,3
 2809 0f68 41820030 		beq- 0,.L217
 2810              		.loc 1 371 0
 2811 0f6c 80C10008 		lwz 6,8(1)
 2812 0f70 7FC3F378 		mr 3,30
 2813              	.LVL240:
 2814 0f74 7FE4FB78 		mr 4,31
 2815 0f78 7F85E378 		mr 5,28
 2816 0f7c 48000001 		bl ES_GetTicketViews
 2817              	.LVL241:
 2818              		.loc 1 372 0
 2819 0f80 7C7A1B79 		mr. 26,3
 2820 0f84 41800040 		blt- 0,.L218
 2821              		.loc 1 376 0
 2822 0f88 80010008 		lwz 0,8(1)
 2823              		.loc 1 378 0
 2824 0f8c 3B400000 		li 26,0
 2825              		.loc 1 375 0
 2826 0f90 939D0000 		stw 28,0(29)
 2827              		.loc 1 376 0
 2828 0f94 901B0000 		stw 0,0(27)
 2829              	.LVL242:
 2830              	.L217:
 2831              	.LBE1681:
 2832              		.loc 1 385 0
 2833 0f98 80010034 		lwz 0,52(1)
 2834 0f9c 7F43D378 		mr 3,26
 2835 0fa0 8361001C 		lwz 27,28(1)
 2836              	.LVL243:
 2837 0fa4 7C0803A6 		mtlr 0
 2838 0fa8 83410018 		lwz 26,24(1)
 2839 0fac 83810020 		lwz 28,32(1)
 2840 0fb0 83A10024 		lwz 29,36(1)
 2841              	.LVL244:
 2842 0fb4 83C10028 		lwz 30,40(1)
 2843 0fb8 83E1002C 		lwz 31,44(1)
 2844 0fbc 38210030 		addi 1,1,48
 2845              		.cfi_remember_state
 2846              	.LCFI56:
 2847              		.cfi_def_cfa_offset 0
 2848              		.cfi_restore 31
 2849              		.cfi_restore 30
 2850              		.cfi_restore 29
 2851              		.cfi_restore 28
 2852              		.cfi_restore 27
 2853              		.cfi_restore 26
 2854 0fc0 4E800020 		blr
 2855              	.LVL245:
 2856              	.L218:
 2857              	.LCFI57:
 2858              		.cfi_restore_state
 2859              	.LBB1682:
 2860              		.loc 1 382 0 discriminator 1
 2861 0fc4 7F83E378 		mr 3,28
 2862              	.LVL246:
 2863 0fc8 48000001 		bl free
 2864              	.LBE1682:
 2865              		.loc 1 385 0 discriminator 1
 2866 0fcc 80010034 		lwz 0,52(1)
 2867 0fd0 7F43D378 		mr 3,26
 2868 0fd4 8361001C 		lwz 27,28(1)
 2869              	.LVL247:
 2870 0fd8 7C0803A6 		mtlr 0
 2871 0fdc 83410018 		lwz 26,24(1)
 2872              	.LVL248:
 2873 0fe0 83810020 		lwz 28,32(1)
 2874              	.LVL249:
 2875 0fe4 83A10024 		lwz 29,36(1)
 2876              	.LVL250:
 2877 0fe8 83C10028 		lwz 30,40(1)
 2878 0fec 83E1002C 		lwz 31,44(1)
 2879 0ff0 38210030 		addi 1,1,48
 2880              		.cfi_restore 26
 2881              		.cfi_restore 27
 2882              		.cfi_restore 28
 2883              		.cfi_restore 29
 2884              		.cfi_restore 30
 2885              		.cfi_restore 31
 2886              	.LCFI58:
 2887              		.cfi_def_cfa_offset 0
 2888 0ff4 4E800020 		blr
 2889              		.cfi_endproc
 2890              	.LFE1091:
 2891              		.size	_ZN9NandTitle14GetTicketViewsEyPP8_tikviewPj, .-_ZN9NandTitle14GetTicketViewsEyPP8_tikviewPj
 2892              		.align 2
 2893              		.globl _ZN9NandTitle7FindU64EPKc
 2894              		.type	_ZN9NandTitle7FindU64EPKc, @function
 2895              	_ZN9NandTitle7FindU64EPKc:
 2896              	.LFB1092:
 2897              		.loc 1 388 0
 2898              		.cfi_startproc
 2899              	.LVL251:
 2900 0ff8 9421FFF0 		stwu 1,-16(1)
 2901              	.LCFI59:
 2902              		.cfi_def_cfa_offset 16
 2903 0ffc 7C0802A6 		mflr 0
 2904              	.LBB1683:
 2905              		.loc 1 389 0
 2906 1000 38A00010 		li 5,16
 2907              	.LBE1683:
 2908              		.loc 1 388 0
 2909 1004 93E1000C 		stw 31,12(1)
 2910 1008 7C7F1B78 		mr 31,3
 2911              		.cfi_offset 31, -4
 2912              		.cfi_register 65, 0
 2913              	.LBB1690:
 2914              		.loc 1 389 0
 2915 100c 7C832378 		mr 3,4
 2916              	.LVL252:
 2917 1010 38800000 		li 4,0
 2918              	.LVL253:
 2919              	.LBE1690:
 2920              		.loc 1 388 0
 2921 1014 90010014 		stw 0,20(1)
 2922              	.LBB1691:
 2923              		.loc 1 389 0
 2924              		.cfi_offset 65, 4
 2925 1018 48000001 		bl strtoull
 2926              	.LVL254:
 2927              		.loc 1 413 0
 2928 101c 811F0000 		lwz 8,0(31)
 2929              	.LBB1684:
 2930              		.loc 1 397 0
 2931 1020 39400000 		li 10,0
 2932              	.LBB1685:
 2933              	.LBB1686:
 2934              		.loc 2 571 0
 2935 1024 801F0004 		lwz 0,4(31)
 2936              	.LBE1686:
 2937              	.LBE1685:
 2938              		.loc 1 397 0
 2939 1028 39600000 		li 11,0
 2940              	.LBB1688:
 2941              	.LBB1687:
 2942              		.loc 2 571 0
 2943 102c 7C080050 		subf 0,8,0
 2944              	.LBE1687:
 2945              	.LBE1688:
 2946              		.loc 1 391 0
 2947 1030 7C001E71 		srawi. 0,0,3
 2948 1034 41820048 		beq- 0,.L221
 2949              	.LVL255:
 2950              		.loc 1 393 0
 2951 1038 81480000 		lwz 10,0(8)
 2952 103c 81680004 		lwz 11,4(8)
 2953 1040 7F835000 		cmpw 7,3,10
 2954 1044 419E0060 		beq- 7,.L231
 2955              	.L227:
 2956              		.loc 1 391 0
 2957 1048 39200000 		li 9,0
 2958 104c 7C0903A6 		mtctr 0
 2959 1050 48000014 		b .L230
 2960              	.LVL256:
 2961              	.L225:
 2962              		.loc 1 393 0
 2963 1054 814B0000 		lwz 10,0(11)
 2964 1058 816B0004 		lwz 11,4(11)
 2965 105c 7F835000 		cmpw 7,3,10
 2966 1060 419E0038 		beq- 7,.L232
 2967              	.LVL257:
 2968              	.L230:
 2969              		.loc 1 391 0
 2970 1064 39290001 		addi 9,9,1
 2971              	.LVL258:
 2972              		.loc 1 393 0
 2973 1068 55201838 		slwi 0,9,3
 2974 106c 7D680214 		add 11,8,0
 2975              		.loc 1 391 0
 2976 1070 4200FFE4 		bdnz .L225
 2977              		.loc 1 397 0
 2978 1074 39400000 		li 10,0
 2979 1078 39600000 		li 11,0
 2980              	.LVL259:
 2981              	.L221:
 2982              	.LBE1684:
 2983              	.LBE1691:
 2984              		.loc 1 398 0
 2985 107c 80010014 		lwz 0,20(1)
 2986 1080 7D435378 		mr 3,10
 2987              	.LVL260:
 2988 1084 83E1000C 		lwz 31,12(1)
 2989              	.LVL261:
 2990 1088 7D645B78 		mr 4,11
 2991 108c 7C0803A6 		mtlr 0
 2992 1090 38210010 		addi 1,1,16
 2993              		.cfi_remember_state
 2994              	.LCFI60:
 2995              		.cfi_def_cfa_offset 0
 2996              		.cfi_restore 31
 2997 1094 4E800020 		blr
 2998              	.LVL262:
 2999              	.L232:
 3000              	.LCFI61:
 3001              		.cfi_restore_state
 3002              	.LBB1692:
 3003              	.LBB1689:
 3004              		.loc 1 393 0
 3005 1098 7F845800 		cmpw 7,4,11
 3006 109c 409EFFC8 		bne+ 7,.L230
 3007 10a0 4BFFFFDC 		b .L221
 3008              	.LVL263:
 3009              	.L231:
 3010 10a4 7F845800 		cmpw 7,4,11
 3011 10a8 409EFFA0 		bne+ 7,.L227
 3012 10ac 4BFFFFD0 		b .L221
 3013              	.LBE1689:
 3014              	.LBE1692:
 3015              		.cfi_endproc
 3016              	.LFE1092:
 3017              		.size	_ZN9NandTitle7FindU64EPKc, .-_ZN9NandTitle7FindU64EPKc
 3018              		.align 2
 3019              		.globl _ZN9NandTitle7FindU32EPKc
 3020              		.type	_ZN9NandTitle7FindU32EPKc, @function
 3021              	_ZN9NandTitle7FindU32EPKc:
 3022              	.LFB1093:
 3023              		.loc 1 401 0
 3024              		.cfi_startproc
 3025              	.LVL264:
 3026 10b0 9421FFF0 		stwu 1,-16(1)
 3027              	.LCFI62:
 3028              		.cfi_def_cfa_offset 16
 3029 10b4 7C0802A6 		mflr 0
 3030              	.LBB1693:
 3031              		.loc 1 402 0
 3032 10b8 38A00010 		li 5,16
 3033              	.LBE1693:
 3034              		.loc 1 401 0
 3035 10bc 93E1000C 		stw 31,12(1)
 3036 10c0 7C7F1B78 		mr 31,3
 3037              		.cfi_offset 31, -4
 3038              		.cfi_register 65, 0
 3039              	.LBB1697:
 3040              		.loc 1 402 0
 3041 10c4 7C832378 		mr 3,4
 3042              	.LVL265:
 3043 10c8 38800000 		li 4,0
 3044              	.LVL266:
 3045              	.LBE1697:
 3046              		.loc 1 401 0
 3047 10cc 90010014 		stw 0,20(1)
 3048              	.LBB1698:
 3049              		.loc 1 402 0
 3050              		.cfi_offset 65, 4
 3051 10d0 48000001 		bl strtoull
 3052              	.LVL267:
 3053              		.loc 1 403 0
 3054 10d4 2C040000 		cmpwi 0,4,0
 3055              		.loc 1 404 0
 3056 10d8 39400000 		li 10,0
 3057 10dc 39600000 		li 11,0
 3058              		.loc 1 403 0
 3059 10e0 4182005C 		beq- 0,.L234
 3060              	.LVL268:
 3061              		.loc 1 413 0 discriminator 1
 3062 10e4 811F0000 		lwz 8,0(31)
 3063              	.LBB1694:
 3064              	.LBB1695:
 3065              	.LBB1696:
 3066              		.loc 2 571 0 discriminator 1
 3067 10e8 801F0004 		lwz 0,4(31)
 3068 10ec 7C080050 		subf 0,8,0
 3069              	.LBE1696:
 3070              	.LBE1695:
 3071              		.loc 1 406 0 discriminator 1
 3072 10f0 7C001E71 		srawi. 0,0,3
 3073 10f4 41820048 		beq- 0,.L234
 3074              	.LVL269:
 3075              		.loc 1 408 0
 3076 10f8 81680004 		lwz 11,4(8)
 3077 10fc 39200000 		li 9,0
 3078 1100 81480000 		lwz 10,0(8)
 3079 1104 7C0903A6 		mtctr 0
 3080 1108 7F845800 		cmpw 7,4,11
 3081 110c 40BE0018 		bne+ 7,.L236
 3082 1110 4800002C 		b .L234
 3083              	.LVL270:
 3084              	.L237:
 3085 1114 814B0000 		lwz 10,0(11)
 3086 1118 816B0004 		lwz 11,4(11)
 3087 111c 7F845800 		cmpw 7,4,11
 3088 1120 419E001C 		beq- 7,.L234
 3089              	.LVL271:
 3090              	.L236:
 3091              		.loc 1 406 0
 3092 1124 39290001 		addi 9,9,1
 3093              	.LVL272:
 3094              		.loc 1 408 0
 3095 1128 55201838 		slwi 0,9,3
 3096 112c 7D680214 		add 11,8,0
 3097              		.loc 1 406 0
 3098 1130 4200FFE4 		bdnz .L237
 3099              		.loc 1 412 0
 3100 1134 39400000 		li 10,0
 3101 1138 39600000 		li 11,0
 3102              	.LVL273:
 3103              	.L234:
 3104              	.LBE1694:
 3105              	.LBE1698:
 3106              		.loc 1 413 0
 3107 113c 80010014 		lwz 0,20(1)
 3108 1140 7D435378 		mr 3,10
 3109 1144 83E1000C 		lwz 31,12(1)
 3110              	.LVL274:
 3111 1148 7D645B78 		mr 4,11
 3112              	.LVL275:
 3113 114c 7C0803A6 		mtlr 0
 3114 1150 38210010 		addi 1,1,16
 3115              	.LCFI63:
 3116              		.cfi_def_cfa_offset 0
 3117              		.cfi_restore 31
 3118 1154 4E800020 		blr
 3119              		.cfi_endproc
 3120              	.LFE1093:
 3121              		.size	_ZN9NandTitle7FindU32EPKc, .-_ZN9NandTitle7FindU32EPKc
 3122              		.section	.text._ZNSt8_Rb_treeIySt4pairIKySsESt10_Select1stIS2_ESt4lessIyESaIS2_EE8_M_eraseEPSt13_R
 3123              		.align 2
 3124              		.weak	_ZNSt8_Rb_treeIySt4pairIKySsESt10_Select1stIS2_ESt4lessIyESaIS2_EE8_M_eraseEPSt13_Rb_tree_no
 3125              		.type	_ZNSt8_Rb_treeIySt4pairIKySsESt10_Select1stIS2_ESt4lessIyESaIS2_EE8_M_eraseEPSt13_Rb_tree_no
 3126              	_ZNSt8_Rb_treeIySt4pairIKySsESt10_Select1stIS2_ESt4lessIyESaIS2_EE8_M_eraseEPSt13_Rb_tree_nodeIS2_E
 3127              	.LFB1180:
 3128              		.loc 3 1068 0
 3129              		.cfi_startproc
 3130              	.LVL276:
 3131 0000 9421FFB8 		stwu 1,-72(1)
 3132              	.LCFI64:
 3133              		.cfi_def_cfa_offset 72
 3134 0004 7C0802A6 		mflr 0
 3135 0008 92810018 		stw 20,24(1)
 3136              	.LBB2044:
 3137              		.loc 3 1072 0
 3138 000c 7C942379 		mr. 20,4
 3139              		.cfi_offset 20, -48
 3140              		.cfi_register 65, 0
 3141              	.LBE2044:
 3142              		.loc 3 1068 0
 3143 0010 93810038 		stw 28,56(1)
 3144 0014 7C7C1B78 		mr 28,3
 3145              		.cfi_offset 28, -16
 3146 0018 9001004C 		stw 0,76(1)
 3147 001c 92A1001C 		stw 21,28(1)
 3148 0020 92C10020 		stw 22,32(1)
 3149 0024 92E10024 		stw 23,36(1)
 3150 0028 93010028 		stw 24,40(1)
 3151 002c 9321002C 		stw 25,44(1)
 3152 0030 93410030 		stw 26,48(1)
 3153 0034 93610034 		stw 27,52(1)
 3154 0038 93A1003C 		stw 29,60(1)
 3155 003c 93C10040 		stw 30,64(1)
 3156 0040 93E10044 		stw 31,68(1)
 3157              	.LBB2498:
 3158              		.loc 3 1072 0
 3159 0044 418201E8 		beq- 0,.L241
 3160              		.cfi_offset 31, -4
 3161              		.cfi_offset 30, -8
 3162              		.cfi_offset 29, -12
 3163              		.cfi_offset 27, -20
 3164              		.cfi_offset 26, -24
 3165              		.cfi_offset 25, -28
 3166              		.cfi_offset 24, -32
 3167              		.cfi_offset 23, -36
 3168              		.cfi_offset 22, -40
 3169              		.cfi_offset 21, -44
 3170              		.cfi_offset 65, 4
 3171 0048 3FA00000 		lis 29,_ZNSs4_Rep20_S_empty_rep_storageE@ha
 3172 004c 3BBD0000 		la 29,_ZNSs4_Rep20_S_empty_rep_storageE@l(29)
 3173              	.LVL277:
 3174              	.L340:
 3175              		.loc 1 413 0
 3176 0050 8334000C 		lwz 25,12(20)
 3177              	.LVL278:
 3178              	.LBB2045:
 3179              	.LBB2046:
 3180              	.LBB2047:
 3181              		.loc 3 1072 0
 3182 0054 2F990000 		cmpwi 7,25,0
 3183 0058 419E02C0 		beq- 7,.L243
 3184              	.LVL279:
 3185              	.L350:
 3186              	.LBE2047:
 3187              		.loc 1 413 0
 3188 005c 8319000C 		lwz 24,12(25)
 3189              	.LVL280:
 3190              	.LBB2451:
 3191              	.LBB2048:
 3192              	.LBB2049:
 3193              	.LBB2050:
 3194              		.loc 3 1072 0
 3195 0060 2F980000 		cmpwi 7,24,0
 3196 0064 419E0170 		beq- 7,.L244
 3197              	.LVL281:
 3198              	.L351:
 3199              	.LBE2050:
 3200              		.loc 1 413 0
 3201 0068 82F8000C 		lwz 23,12(24)
 3202              	.LVL282:
 3203              	.LBB2400:
 3204              	.LBB2051:
 3205              	.LBB2052:
 3206              	.LBB2053:
 3207              		.loc 3 1072 0
 3208 006c 2F970000 		cmpwi 7,23,0
 3209 0070 419E023C 		beq- 7,.L245
 3210              	.LVL283:
 3211              	.L352:
 3212              	.LBE2053:
 3213              		.loc 1 413 0
 3214 0074 82D7000C 		lwz 22,12(23)
 3215              	.LVL284:
 3216              	.LBB2350:
 3217              	.LBB2054:
 3218              	.LBB2055:
 3219              	.LBB2056:
 3220              		.loc 3 1072 0
 3221 0078 2F960000 		cmpwi 7,22,0
 3222 007c 419E0184 		beq- 7,.L246
 3223              	.LVL285:
 3224              	.L353:
 3225              	.LBE2056:
 3226              		.loc 1 413 0
 3227 0080 82B6000C 		lwz 21,12(22)
 3228              	.LVL286:
 3229              	.LBB2303:
 3230              	.LBB2057:
 3231              	.LBB2058:
 3232              	.LBB2059:
 3233              		.loc 3 1072 0
 3234 0084 2F950000 		cmpwi 7,21,0
 3235 0088 419E0100 		beq- 7,.L247
 3236              	.LVL287:
 3237              	.L354:
 3238              	.LBE2059:
 3239              		.loc 1 413 0
 3240 008c 8355000C 		lwz 26,12(21)
 3241              	.LVL288:
 3242              	.LBB2254:
 3243              	.LBB2060:
 3244              	.LBB2061:
 3245              	.LBB2062:
 3246              		.loc 3 1072 0
 3247 0090 2F9A0000 		cmpwi 7,26,0
 3248 0094 419E00A8 		beq- 7,.L248
 3249              	.LVL289:
 3250              	.L355:
 3251              	.LBE2062:
 3252              		.loc 1 413 0
 3253 0098 837A000C 		lwz 27,12(26)
 3254              	.LVL290:
 3255              	.LBB2204:
 3256              	.LBB2063:
 3257              	.LBB2064:
 3258              	.LBB2065:
 3259              		.loc 3 1072 0
 3260 009c 2F9B0000 		cmpwi 7,27,0
 3261 00a0 419E0070 		beq- 7,.L249
 3262              	.LVL291:
 3263              	.L356:
 3264              	.LBE2065:
 3265              		.loc 1 413 0
 3266 00a4 83FB000C 		lwz 31,12(27)
 3267              	.LVL292:
 3268              	.LBB2157:
 3269              	.LBB2066:
 3270              	.LBB2067:
 3271              	.LBB2068:
 3272              		.loc 3 1072 0
 3273 00a8 2F9F0000 		cmpwi 7,31,0
 3274 00ac 419E0038 		beq- 7,.L250
 3275              	.LVL293:
 3276              	.L357:
 3277              	.LBB2069:
 3278              		.loc 3 1074 0
 3279 00b0 809F000C 		lwz 4,12(31)
 3280 00b4 7F83E378 		mr 3,28
 3281 00b8 48000001 		bl _ZNSt8_Rb_treeIySt4pairIKySsESt10_Select1stIS2_ESt4lessIyESaIS2_EE8_M_eraseEPSt13_Rb_tree_nodeI
 3282              	.LBB2070:
 3283              	.LBB2071:
 3284              	.LBB2072:
 3285              	.LBB2073:
 3286              	.LBB2074:
 3287              	.LBB2075:
 3288              	.LBB2076:
 3289              	.LBB2077:
 3290              	.LBB2078:
 3291              	.LBB2079:
 3292              		.loc 4 288 0
 3293 00bc 813F0018 		lwz 9,24(31)
 3294              	.LBE2079:
 3295              	.LBE2078:
 3296              	.LBE2077:
 3297              	.LBE2076:
 3298              	.LBE2075:
 3299              	.LBE2074:
 3300              	.LBE2073:
 3301              	.LBE2072:
 3302              	.LBE2071:
 3303              	.LBE2070:
 3304              	.LBE2069:
 3305              	.LBE2068:
 3306              		.loc 1 413 0
 3307 00c0 83DF0008 		lwz 30,8(31)
 3308              	.LVL294:
 3309              	.LBB2114:
 3310              	.LBB2111:
 3311              	.LBB2108:
 3312              	.LBB2100:
 3313              	.LBB2098:
 3314              	.LBB2096:
 3315              	.LBB2094:
 3316              	.LBB2092:
 3317              	.LBB2090:
 3318              		.loc 4 534 0
 3319 00c4 3869FFF4 		addi 3,9,-12
 3320              	.LVL295:
 3321              	.LBB2080:
 3322              	.LBB2081:
 3323              		.loc 4 235 0
 3324 00c8 7F83E800 		cmpw 7,3,29
 3325 00cc 409E009C 		bne- 7,.L358
 3326              	.LVL296:
 3327              	.L259:
 3328              	.LBE2081:
 3329              	.LBE2080:
 3330              	.LBE2090:
 3331              	.LBE2092:
 3332              	.LBE2094:
 3333              	.LBE2096:
 3334              	.LBE2098:
 3335              	.LBE2100:
 3336              	.LBB2101:
 3337              	.LBB2102:
 3338              	.LBB2103:
 3339              		.file 6 "d:\\devkitpro\\devkitppc\\bin\\../lib/gcc/powerpc-eabi/4.6.3/../../../../powerpc-eabi/inc
 3340              		.loc 6 98 0
 3341 00d0 7FE3FB78 		mr 3,31
 3342              	.LBE2103:
 3343              	.LBE2102:
 3344              	.LBE2101:
 3345              	.LBE2108:
 3346              	.LBE2111:
 3347              		.loc 3 1077 0
 3348 00d4 7FDFF378 		mr 31,30
 3349              	.LVL297:
 3350              	.LBB2112:
 3351              	.LBB2109:
 3352              	.LBB2106:
 3353              	.LBB2105:
 3354              	.LBB2104:
 3355              		.loc 6 98 0
 3356 00d8 48000001 		bl _ZdlPv
 3357              	.LVL298:
 3358              	.LBE2104:
 3359              	.LBE2105:
 3360              	.LBE2106:
 3361              	.LBE2109:
 3362              	.LBE2112:
 3363              		.loc 3 1072 0
 3364 00dc 2F9E0000 		cmpwi 7,30,0
 3365 00e0 409EFFD0 		bne+ 7,.L357
 3366              	.LVL299:
 3367              	.L250:
 3368              	.LBE2114:
 3369              	.LBE2067:
 3370              	.LBB2116:
 3371              	.LBB2117:
 3372              	.LBB2118:
 3373              	.LBB2119:
 3374              	.LBB2120:
 3375              	.LBB2121:
 3376              	.LBB2122:
 3377              	.LBB2123:
 3378              	.LBB2124:
 3379              	.LBB2125:
 3380              		.loc 4 288 0
 3381 00e4 813B0018 		lwz 9,24(27)
 3382              	.LBE2125:
 3383              	.LBE2124:
 3384              	.LBE2123:
 3385              	.LBE2122:
 3386              	.LBE2121:
 3387              	.LBE2120:
 3388              	.LBE2119:
 3389              	.LBE2118:
 3390              	.LBE2117:
 3391              	.LBE2116:
 3392              	.LBE2066:
 3393              	.LBE2157:
 3394              		.loc 1 413 0
 3395 00e8 83FB0008 		lwz 31,8(27)
 3396              	.LVL300:
 3397              	.LBB2158:
 3398              	.LBB2154:
 3399              	.LBB2151:
 3400              	.LBB2146:
 3401              	.LBB2144:
 3402              	.LBB2142:
 3403              	.LBB2140:
 3404              	.LBB2138:
 3405              	.LBB2136:
 3406              		.loc 4 534 0
 3407 00ec 3869FFF4 		addi 3,9,-12
 3408              	.LVL301:
 3409              	.LBB2126:
 3410              	.LBB2127:
 3411              		.loc 4 235 0
 3412 00f0 7F83E800 		cmpw 7,3,29
 3413 00f4 409E00C0 		bne- 7,.L359
 3414              	.LVL302:
 3415              	.L269:
 3416              	.LBE2127:
 3417              	.LBE2126:
 3418              	.LBE2136:
 3419              	.LBE2138:
 3420              	.LBE2140:
 3421              	.LBE2142:
 3422              	.LBE2144:
 3423              	.LBE2146:
 3424              	.LBB2147:
 3425              	.LBB2148:
 3426              	.LBB2149:
 3427              		.loc 6 98 0
 3428 00f8 7F63DB78 		mr 3,27
 3429 00fc 48000001 		bl _ZdlPv
 3430              	.LVL303:
 3431              	.LBE2149:
 3432              	.LBE2148:
 3433              	.LBE2147:
 3434              	.LBE2151:
 3435              	.LBE2154:
 3436              		.loc 3 1072 0
 3437 0100 2F9F0000 		cmpwi 7,31,0
 3438 0104 419E000C 		beq- 7,.L249
 3439              		.loc 3 1077 0
 3440 0108 7FFBFB78 		mr 27,31
 3441              	.LVL304:
 3442 010c 4BFFFF98 		b .L356
 3443              	.LVL305:
 3444              	.L249:
 3445              	.LBE2158:
 3446              	.LBE2064:
 3447              	.LBB2161:
 3448              	.LBB2162:
 3449              	.LBB2163:
 3450              	.LBB2164:
 3451              	.LBB2165:
 3452              	.LBB2166:
 3453              	.LBB2167:
 3454              	.LBB2168:
 3455              	.LBB2169:
 3456              	.LBB2170:
 3457              		.loc 4 288 0
 3458 0110 813A0018 		lwz 9,24(26)
 3459              	.LBE2170:
 3460              	.LBE2169:
 3461              	.LBE2168:
 3462              	.LBE2167:
 3463              	.LBE2166:
 3464              	.LBE2165:
 3465              	.LBE2164:
 3466              	.LBE2163:
 3467              	.LBE2162:
 3468              	.LBE2161:
 3469              	.LBE2063:
 3470              	.LBE2204:
 3471              		.loc 1 413 0
 3472 0114 83FA0008 		lwz 31,8(26)
 3473              	.LVL306:
 3474              	.LBB2205:
 3475              	.LBB2200:
 3476              	.LBB2196:
 3477              	.LBB2191:
 3478              	.LBB2189:
 3479              	.LBB2187:
 3480              	.LBB2185:
 3481              	.LBB2183:
 3482              	.LBB2181:
 3483              		.loc 4 534 0
 3484 0118 3869FFF4 		addi 3,9,-12
 3485              	.LVL307:
 3486              	.LBB2171:
 3487              	.LBB2172:
 3488              		.loc 4 235 0
 3489 011c 7F83E800 		cmpw 7,3,29
 3490 0120 409E014C 		bne- 7,.L360
 3491              	.LVL308:
 3492              	.L279:
 3493              	.LBE2172:
 3494              	.LBE2171:
 3495              	.LBE2181:
 3496              	.LBE2183:
 3497              	.LBE2185:
 3498              	.LBE2187:
 3499              	.LBE2189:
 3500              	.LBE2191:
 3501              	.LBB2192:
 3502              	.LBB2193:
 3503              	.LBB2194:
 3504              		.loc 6 98 0
 3505 0124 7F43D378 		mr 3,26
 3506 0128 48000001 		bl _ZdlPv
 3507              	.LVL309:
 3508              	.LBE2194:
 3509              	.LBE2193:
 3510              	.LBE2192:
 3511              	.LBE2196:
 3512              	.LBE2200:
 3513              		.loc 3 1072 0
 3514 012c 2F9F0000 		cmpwi 7,31,0
 3515 0130 419E000C 		beq- 7,.L248
 3516              		.loc 3 1077 0
 3517 0134 7FFAFB78 		mr 26,31
 3518              	.LVL310:
 3519 0138 4BFFFF60 		b .L355
 3520              	.LVL311:
 3521              	.L248:
 3522              	.LBE2205:
 3523              	.LBE2061:
 3524              	.LBB2209:
 3525              	.LBB2210:
 3526              	.LBB2211:
 3527              	.LBB2212:
 3528              	.LBB2213:
 3529              	.LBB2214:
 3530              	.LBB2215:
 3531              	.LBB2216:
 3532              	.LBB2217:
 3533              	.LBB2218:
 3534              		.loc 4 288 0
 3535 013c 81350018 		lwz 9,24(21)
 3536              	.LBE2218:
 3537              	.LBE2217:
 3538              	.LBE2216:
 3539              	.LBE2215:
 3540              	.LBE2214:
 3541              	.LBE2213:
 3542              	.LBE2212:
 3543              	.LBE2211:
 3544              	.LBE2210:
 3545              	.LBE2209:
 3546              	.LBE2060:
 3547              	.LBE2254:
 3548              		.loc 1 413 0
 3549 0140 83F50008 		lwz 31,8(21)
 3550              	.LVL312:
 3551              	.LBB2255:
 3552              	.LBB2249:
 3553              	.LBB2244:
 3554              	.LBB2239:
 3555              	.LBB2237:
 3556              	.LBB2235:
 3557              	.LBB2233:
 3558              	.LBB2231:
 3559              	.LBB2229:
 3560              		.loc 4 534 0
 3561 0144 3869FFF4 		addi 3,9,-12
 3562              	.LVL313:
 3563              	.LBB2219:
 3564              	.LBB2220:
 3565              		.loc 4 235 0
 3566 0148 7F83E800 		cmpw 7,3,29
 3567 014c 409E0218 		bne- 7,.L361
 3568              	.LVL314:
 3569              	.L289:
 3570              	.LBE2220:
 3571              	.LBE2219:
 3572              	.LBE2229:
 3573              	.LBE2231:
 3574              	.LBE2233:
 3575              	.LBE2235:
 3576              	.LBE2237:
 3577              	.LBE2239:
 3578              	.LBB2240:
 3579              	.LBB2241:
 3580              	.LBB2242:
 3581              		.loc 6 98 0
 3582 0150 7EA3AB78 		mr 3,21
 3583 0154 48000001 		bl _ZdlPv
 3584              	.LVL315:
 3585              	.LBE2242:
 3586              	.LBE2241:
 3587              	.LBE2240:
 3588              	.LBE2244:
 3589              	.LBE2249:
 3590              		.loc 3 1072 0
 3591 0158 2F9F0000 		cmpwi 7,31,0
 3592 015c 419E002C 		beq- 7,.L247
 3593              		.loc 3 1077 0
 3594 0160 7FF5FB78 		mr 21,31
 3595              	.LVL316:
 3596 0164 4BFFFF28 		b .L354
 3597              	.LVL317:
 3598              	.L358:
 3599              	.LBB2250:
 3600              	.LBB2245:
 3601              	.LBB2206:
 3602              	.LBB2201:
 3603              	.LBB2197:
 3604              	.LBB2159:
 3605              	.LBB2155:
 3606              	.LBB2152:
 3607              	.LBB2115:
 3608              	.LBB2113:
 3609              	.LBB2110:
 3610              	.LBB2107:
 3611              	.LBB2099:
 3612              	.LBB2097:
 3613              	.LBB2095:
 3614              	.LBB2093:
 3615              	.LBB2091:
 3616              	.LBB2089:
 3617              	.LBB2088:
 3618              	.LBB2082:
 3619              	.LBB2083:
 3620              	.LBB2084:
 3621              		.loc 5 66 0
 3622 0168 8169FFFC 		lwz 11,-4(9)
 3623              	.LVL318:
 3624              	.LBE2084:
 3625              	.LBE2083:
 3626              	.LBE2082:
 3627              		.loc 4 240 0
 3628 016c 2F8B0000 		cmpwi 7,11,0
 3629              	.LBB2087:
 3630              	.LBB2086:
 3631              	.LBB2085:
 3632              		.loc 5 67 0
 3633 0170 396BFFFF 		addi 11,11,-1
 3634 0174 9169FFFC 		stw 11,-4(9)
 3635              	.LBE2085:
 3636              	.LBE2086:
 3637              	.LBE2087:
 3638              		.loc 4 240 0
 3639 0178 419DFF58 		bgt+ 7,.L259
 3640              		.loc 4 244 0
 3641 017c 38810010 		addi 4,1,16
 3642 0180 48000001 		bl _ZNSs4_Rep10_M_destroyERKSaIcE
 3643              	.LVL319:
 3644 0184 4BFFFF4C 		b .L259
 3645              	.LVL320:
 3646              	.L247:
 3647              	.LBE2088:
 3648              	.LBE2089:
 3649              	.LBE2091:
 3650              	.LBE2093:
 3651              	.LBE2095:
 3652              	.LBE2097:
 3653              	.LBE2099:
 3654              	.LBE2107:
 3655              	.LBE2110:
 3656              	.LBE2113:
 3657              	.LBE2115:
 3658              	.LBE2152:
 3659              	.LBE2155:
 3660              	.LBE2159:
 3661              	.LBE2197:
 3662              	.LBE2201:
 3663              	.LBE2206:
 3664              	.LBE2245:
 3665              	.LBE2250:
 3666              	.LBE2255:
 3667              	.LBE2058:
 3668              	.LBB2259:
 3669              	.LBB2260:
 3670              	.LBB2261:
 3671              	.LBB2262:
 3672              	.LBB2263:
 3673              	.LBB2264:
 3674              	.LBB2265:
 3675              	.LBB2266:
 3676              	.LBB2267:
 3677              	.LBB2268:
 3678              		.loc 4 288 0
 3679 0188 81360018 		lwz 9,24(22)
 3680              	.LBE2268:
 3681              	.LBE2267:
 3682              	.LBE2266:
 3683              	.LBE2265:
 3684              	.LBE2264:
 3685              	.LBE2263:
 3686              	.LBE2262:
 3687              	.LBE2261:
 3688              	.LBE2260:
 3689              	.LBE2259:
 3690              	.LBE2057:
 3691              	.LBE2303:
 3692              		.loc 1 413 0
 3693 018c 83F60008 		lwz 31,8(22)
 3694              	.LVL321:
 3695              	.LBB2304:
 3696              	.LBB2299:
 3697              	.LBB2294:
 3698              	.LBB2289:
 3699              	.LBB2287:
 3700              	.LBB2285:
 3701              	.LBB2283:
 3702              	.LBB2281:
 3703              	.LBB2279:
 3704              		.loc 4 534 0
 3705 0190 3869FFF4 		addi 3,9,-12
 3706              	.LVL322:
 3707              	.LBB2269:
 3708              	.LBB2270:
 3709              		.loc 4 235 0
 3710 0194 7F83E800 		cmpw 7,3,29
 3711 0198 409E00F4 		bne- 7,.L362
 3712              	.LVL323:
 3713              	.L299:
 3714              	.LBE2270:
 3715              	.LBE2269:
 3716              	.LBE2279:
 3717              	.LBE2281:
 3718              	.LBE2283:
 3719              	.LBE2285:
 3720              	.LBE2287:
 3721              	.LBE2289:
 3722              	.LBB2290:
 3723              	.LBB2291:
 3724              	.LBB2292:
 3725              		.loc 6 98 0
 3726 019c 7EC3B378 		mr 3,22
 3727 01a0 48000001 		bl _ZdlPv
 3728              	.LVL324:
 3729              	.LBE2292:
 3730              	.LBE2291:
 3731              	.LBE2290:
 3732              	.LBE2294:
 3733              	.LBE2299:
 3734              		.loc 3 1072 0
 3735 01a4 2F9F0000 		cmpwi 7,31,0
 3736 01a8 419E0058 		beq- 7,.L246
 3737              		.loc 3 1077 0
 3738 01ac 7FF6FB78 		mr 22,31
 3739              	.LVL325:
 3740 01b0 4BFFFED0 		b .L353
 3741              	.LVL326:
 3742              	.L359:
 3743              	.LBB2300:
 3744              	.LBB2295:
 3745              	.LBB2256:
 3746              	.LBB2251:
 3747              	.LBB2246:
 3748              	.LBB2207:
 3749              	.LBB2202:
 3750              	.LBB2198:
 3751              	.LBB2160:
 3752              	.LBB2156:
 3753              	.LBB2153:
 3754              	.LBB2150:
 3755              	.LBB2145:
 3756              	.LBB2143:
 3757              	.LBB2141:
 3758              	.LBB2139:
 3759              	.LBB2137:
 3760              	.LBB2135:
 3761              	.LBB2134:
 3762              	.LBB2128:
 3763              	.LBB2129:
 3764              	.LBB2130:
 3765              		.loc 5 66 0
 3766 01b4 8169FFFC 		lwz 11,-4(9)
 3767              	.LVL327:
 3768              	.LBE2130:
 3769              	.LBE2129:
 3770              	.LBE2128:
 3771              		.loc 4 240 0
 3772 01b8 2F8B0000 		cmpwi 7,11,0
 3773              	.LBB2133:
 3774              	.LBB2132:
 3775              	.LBB2131:
 3776              		.loc 5 67 0
 3777 01bc 396BFFFF 		addi 11,11,-1
 3778 01c0 9169FFFC 		stw 11,-4(9)
 3779              	.LBE2131:
 3780              	.LBE2132:
 3781              	.LBE2133:
 3782              		.loc 4 240 0
 3783 01c4 419DFF34 		bgt+ 7,.L269
 3784              		.loc 4 244 0
 3785 01c8 3881000F 		addi 4,1,15
 3786 01cc 48000001 		bl _ZNSs4_Rep10_M_destroyERKSaIcE
 3787              	.LVL328:
 3788 01d0 4BFFFF28 		b .L269
 3789              	.LVL329:
 3790              	.L244:
 3791              	.LBE2134:
 3792              	.LBE2135:
 3793              	.LBE2137:
 3794              	.LBE2139:
 3795              	.LBE2141:
 3796              	.LBE2143:
 3797              	.LBE2145:
 3798              	.LBE2150:
 3799              	.LBE2153:
 3800              	.LBE2156:
 3801              	.LBE2160:
 3802              	.LBE2198:
 3803              	.LBE2202:
 3804              	.LBE2207:
 3805              	.LBE2246:
 3806              	.LBE2251:
 3807              	.LBE2256:
 3808              	.LBE2295:
 3809              	.LBE2300:
 3810              	.LBE2304:
 3811              	.LBE2055:
 3812              	.LBE2054:
 3813              	.LBE2350:
 3814              	.LBE2052:
 3815              	.LBE2051:
 3816              	.LBE2400:
 3817              	.LBE2049:
 3818              	.LBB2406:
 3819              	.LBB2407:
 3820              	.LBB2408:
 3821              	.LBB2409:
 3822              	.LBB2410:
 3823              	.LBB2411:
 3824              	.LBB2412:
 3825              	.LBB2413:
 3826              	.LBB2414:
 3827              	.LBB2415:
 3828              		.loc 4 288 0
 3829 01d4 81390018 		lwz 9,24(25)
 3830              	.LBE2415:
 3831              	.LBE2414:
 3832              	.LBE2413:
 3833              	.LBE2412:
 3834              	.LBE2411:
 3835              	.LBE2410:
 3836              	.LBE2409:
 3837              	.LBE2408:
 3838              	.LBE2407:
 3839              	.LBE2406:
 3840              	.LBE2048:
 3841              	.LBE2451:
 3842              		.loc 1 413 0
 3843 01d8 83F90008 		lwz 31,8(25)
 3844              	.LVL330:
 3845              	.LBB2452:
 3846              	.LBB2447:
 3847              	.LBB2441:
 3848              	.LBB2436:
 3849              	.LBB2434:
 3850              	.LBB2432:
 3851              	.LBB2430:
 3852              	.LBB2428:
 3853              	.LBB2426:
 3854              		.loc 4 534 0
 3855 01dc 3869FFF4 		addi 3,9,-12
 3856              	.LVL331:
 3857              	.LBB2416:
 3858              	.LBB2417:
 3859              		.loc 4 235 0
 3860 01e0 7F83E800 		cmpw 7,3,29
 3861 01e4 409E00F4 		bne- 7,.L363
 3862              	.LVL332:
 3863              	.L329:
 3864              	.LBE2417:
 3865              	.LBE2416:
 3866              	.LBE2426:
 3867              	.LBE2428:
 3868              	.LBE2430:
 3869              	.LBE2432:
 3870              	.LBE2434:
 3871              	.LBE2436:
 3872              	.LBB2437:
 3873              	.LBB2438:
 3874              	.LBB2439:
 3875              		.loc 6 98 0
 3876 01e8 7F23CB78 		mr 3,25
 3877 01ec 48000001 		bl _ZdlPv
 3878              	.LVL333:
 3879              	.LBE2439:
 3880              	.LBE2438:
 3881              	.LBE2437:
 3882              	.LBE2441:
 3883              	.LBE2447:
 3884              		.loc 3 1072 0
 3885 01f0 2F9F0000 		cmpwi 7,31,0
 3886 01f4 419E0124 		beq- 7,.L243
 3887              		.loc 3 1077 0
 3888 01f8 7FF9FB78 		mr 25,31
 3889              	.LVL334:
 3890 01fc 4BFFFE60 		b .L350
 3891              	.LVL335:
 3892              	.L246:
 3893              	.LBB2448:
 3894              	.LBB2442:
 3895              	.LBB2401:
 3896              	.LBB2395:
 3897              	.LBB2355:
 3898              	.LBB2351:
 3899              	.LBB2346:
 3900              	.LBB2307:
 3901              	.LBB2308:
 3902              	.LBB2309:
 3903              	.LBB2310:
 3904              	.LBB2311:
 3905              	.LBB2312:
 3906              	.LBB2313:
 3907              	.LBB2314:
 3908              	.LBB2315:
 3909              	.LBB2316:
 3910              		.loc 4 288 0
 3911 0200 81370018 		lwz 9,24(23)
 3912              	.LBE2316:
 3913              	.LBE2315:
 3914              	.LBE2314:
 3915              	.LBE2313:
 3916              	.LBE2312:
 3917              	.LBE2311:
 3918              	.LBE2310:
 3919              	.LBE2309:
 3920              	.LBE2308:
 3921              	.LBE2307:
 3922              	.LBE2346:
 3923              	.LBE2351:
 3924              		.loc 1 413 0
 3925 0204 83F70008 		lwz 31,8(23)
 3926              	.LVL336:
 3927              	.LBB2352:
 3928              	.LBB2347:
 3929              	.LBB2342:
 3930              	.LBB2337:
 3931              	.LBB2335:
 3932              	.LBB2333:
 3933              	.LBB2331:
 3934              	.LBB2329:
 3935              	.LBB2327:
 3936              		.loc 4 534 0
 3937 0208 3869FFF4 		addi 3,9,-12
 3938              	.LVL337:
 3939              	.LBB2317:
 3940              	.LBB2318:
 3941              		.loc 4 235 0
 3942 020c 7F83E800 		cmpw 7,3,29
 3943 0210 409E0174 		bne- 7,.L364
 3944              	.LVL338:
 3945              	.L309:
 3946              	.LBE2318:
 3947              	.LBE2317:
 3948              	.LBE2327:
 3949              	.LBE2329:
 3950              	.LBE2331:
 3951              	.LBE2333:
 3952              	.LBE2335:
 3953              	.LBE2337:
 3954              	.LBB2338:
 3955              	.LBB2339:
 3956              	.LBB2340:
 3957              		.loc 6 98 0
 3958 0214 7EE3BB78 		mr 3,23
 3959 0218 48000001 		bl _ZdlPv
 3960              	.LVL339:
 3961              	.LBE2340:
 3962              	.LBE2339:
 3963              	.LBE2338:
 3964              	.LBE2342:
 3965              	.LBE2347:
 3966              		.loc 3 1072 0
 3967 021c 2F9F0000 		cmpwi 7,31,0
 3968 0220 419E008C 		beq- 7,.L245
 3969              		.loc 3 1077 0
 3970 0224 7FF7FB78 		mr 23,31
 3971              	.LVL340:
 3972 0228 4BFFFE4C 		b .L352
 3973              	.LVL341:
 3974              	.L241:
 3975              	.LBE2352:
 3976              	.LBE2355:
 3977              	.LBE2395:
 3978              	.LBE2401:
 3979              	.LBE2442:
 3980              	.LBE2448:
 3981              	.LBE2452:
 3982              	.LBE2046:
 3983              	.LBE2045:
 3984              	.LBE2498:
 3985              		.loc 3 1079 0
 3986 022c 8001004C 		lwz 0,76(1)
 3987 0230 82810018 		lwz 20,24(1)
 3988 0234 7C0803A6 		mtlr 0
 3989 0238 82A1001C 		lwz 21,28(1)
 3990 023c 82C10020 		lwz 22,32(1)
 3991 0240 82E10024 		lwz 23,36(1)
 3992 0244 83010028 		lwz 24,40(1)
 3993 0248 8321002C 		lwz 25,44(1)
 3994 024c 83410030 		lwz 26,48(1)
 3995 0250 83610034 		lwz 27,52(1)
 3996 0254 83810038 		lwz 28,56(1)
 3997              	.LVL342:
 3998 0258 83A1003C 		lwz 29,60(1)
 3999 025c 83C10040 		lwz 30,64(1)
 4000 0260 83E10044 		lwz 31,68(1)
 4001 0264 38210048 		addi 1,1,72
 4002              		.cfi_remember_state
 4003              	.LCFI65:
 4004              		.cfi_def_cfa_offset 0
 4005              		.cfi_restore 31
 4006              		.cfi_restore 30
 4007              		.cfi_restore 29
 4008              		.cfi_restore 28
 4009              		.cfi_restore 27
 4010              		.cfi_restore 26
 4011              		.cfi_restore 25
 4012              		.cfi_restore 24
 4013              		.cfi_restore 23
 4014              		.cfi_restore 22
 4015              		.cfi_restore 21
 4016              		.cfi_restore 20
 4017 0268 4E800020 		blr
 4018              	.LVL343:
 4019              	.L360:
 4020              	.LCFI66:
 4021              		.cfi_restore_state
 4022              	.LBB2499:
 4023              	.LBB2496:
 4024              	.LBB2456:
 4025              	.LBB2453:
 4026              	.LBB2449:
 4027              	.LBB2443:
 4028              	.LBB2402:
 4029              	.LBB2396:
 4030              	.LBB2356:
 4031              	.LBB2353:
 4032              	.LBB2348:
 4033              	.LBB2343:
 4034              	.LBB2305:
 4035              	.LBB2301:
 4036              	.LBB2296:
 4037              	.LBB2257:
 4038              	.LBB2252:
 4039              	.LBB2247:
 4040              	.LBB2208:
 4041              	.LBB2203:
 4042              	.LBB2199:
 4043              	.LBB2195:
 4044              	.LBB2190:
 4045              	.LBB2188:
 4046              	.LBB2186:
 4047              	.LBB2184:
 4048              	.LBB2182:
 4049              	.LBB2180:
 4050              	.LBB2179:
 4051              	.LBB2173:
 4052              	.LBB2174:
 4053              	.LBB2175:
 4054              		.loc 5 66 0
 4055 026c 8169FFFC 		lwz 11,-4(9)
 4056              	.LVL344:
 4057              	.LBE2175:
 4058              	.LBE2174:
 4059              	.LBE2173:
 4060              		.loc 4 240 0
 4061 0270 2F8B0000 		cmpwi 7,11,0
 4062              	.LBB2178:
 4063              	.LBB2177:
 4064              	.LBB2176:
 4065              		.loc 5 67 0
 4066 0274 396BFFFF 		addi 11,11,-1
 4067 0278 9169FFFC 		stw 11,-4(9)
 4068              	.LBE2176:
 4069              	.LBE2177:
 4070              	.LBE2178:
 4071              		.loc 4 240 0
 4072 027c 419DFEA8 		bgt+ 7,.L279
 4073              		.loc 4 244 0
 4074 0280 3881000E 		addi 4,1,14
 4075 0284 48000001 		bl _ZNSs4_Rep10_M_destroyERKSaIcE
 4076              	.LVL345:
 4077 0288 4BFFFE9C 		b .L279
 4078              	.LVL346:
 4079              	.L362:
 4080              	.LBE2179:
 4081              	.LBE2180:
 4082              	.LBE2182:
 4083              	.LBE2184:
 4084              	.LBE2186:
 4085              	.LBE2188:
 4086              	.LBE2190:
 4087              	.LBE2195:
 4088              	.LBE2199:
 4089              	.LBE2203:
 4090              	.LBE2208:
 4091              	.LBE2247:
 4092              	.LBE2252:
 4093              	.LBE2257:
 4094              	.LBE2296:
 4095              	.LBB2297:
 4096              	.LBB2293:
 4097              	.LBB2288:
 4098              	.LBB2286:
 4099              	.LBB2284:
 4100              	.LBB2282:
 4101              	.LBB2280:
 4102              	.LBB2278:
 4103              	.LBB2277:
 4104              	.LBB2271:
 4105              	.LBB2272:
 4106              	.LBB2273:
 4107              		.loc 5 66 0
 4108 028c 8169FFFC 		lwz 11,-4(9)
 4109              	.LVL347:
 4110              	.LBE2273:
 4111              	.LBE2272:
 4112              	.LBE2271:
 4113              		.loc 4 240 0
 4114 0290 2F8B0000 		cmpwi 7,11,0
 4115              	.LBB2276:
 4116              	.LBB2275:
 4117              	.LBB2274:
 4118              		.loc 5 67 0
 4119 0294 396BFFFF 		addi 11,11,-1
 4120 0298 9169FFFC 		stw 11,-4(9)
 4121              	.LBE2274:
 4122              	.LBE2275:
 4123              	.LBE2276:
 4124              		.loc 4 240 0
 4125 029c 419DFF00 		bgt+ 7,.L299
 4126              		.loc 4 244 0
 4127 02a0 3881000C 		addi 4,1,12
 4128 02a4 48000001 		bl _ZNSs4_Rep10_M_destroyERKSaIcE
 4129              	.LVL348:
 4130 02a8 4BFFFEF4 		b .L299
 4131              	.LVL349:
 4132              	.L245:
 4133              	.LBE2277:
 4134              	.LBE2278:
 4135              	.LBE2280:
 4136              	.LBE2282:
 4137              	.LBE2284:
 4138              	.LBE2286:
 4139              	.LBE2288:
 4140              	.LBE2293:
 4141              	.LBE2297:
 4142              	.LBE2301:
 4143              	.LBE2305:
 4144              	.LBE2343:
 4145              	.LBE2348:
 4146              	.LBE2353:
 4147              	.LBE2356:
 4148              	.LBB2357:
 4149              	.LBB2358:
 4150              	.LBB2359:
 4151              	.LBB2360:
 4152              	.LBB2361:
 4153              	.LBB2362:
 4154              	.LBB2363:
 4155              	.LBB2364:
 4156              	.LBB2365:
 4157              	.LBB2366:
 4158              		.loc 4 288 0
 4159 02ac 81380018 		lwz 9,24(24)
 4160              	.LBE2366:
 4161              	.LBE2365:
 4162              	.LBE2364:
 4163              	.LBE2363:
 4164              	.LBE2362:
 4165              	.LBE2361:
 4166              	.LBE2360:
 4167              	.LBE2359:
 4168              	.LBE2358:
 4169              	.LBE2357:
 4170              	.LBE2396:
 4171              	.LBE2402:
 4172              		.loc 1 413 0
 4173 02b0 83F80008 		lwz 31,8(24)
 4174              	.LVL350:
 4175              	.LBB2403:
 4176              	.LBB2397:
 4177              	.LBB2392:
 4178              	.LBB2387:
 4179              	.LBB2385:
 4180              	.LBB2383:
 4181              	.LBB2381:
 4182              	.LBB2379:
 4183              	.LBB2377:
 4184              		.loc 4 534 0
 4185 02b4 3869FFF4 		addi 3,9,-12
 4186              	.LVL351:
 4187              	.LBB2367:
 4188              	.LBB2368:
 4189              		.loc 4 235 0
 4190 02b8 7F83E800 		cmpw 7,3,29
 4191 02bc 409E003C 		bne- 7,.L365
 4192              	.LVL352:
 4193              	.L319:
 4194              	.LBE2368:
 4195              	.LBE2367:
 4196              	.LBE2377:
 4197              	.LBE2379:
 4198              	.LBE2381:
 4199              	.LBE2383:
 4200              	.LBE2385:
 4201              	.LBE2387:
 4202              	.LBB2388:
 4203              	.LBB2389:
 4204              	.LBB2390:
 4205              		.loc 6 98 0
 4206 02c0 7F03C378 		mr 3,24
 4207 02c4 48000001 		bl _ZdlPv
 4208              	.LVL353:
 4209              	.LBE2390:
 4210              	.LBE2389:
 4211              	.LBE2388:
 4212              	.LBE2392:
 4213              	.LBE2397:
 4214              		.loc 3 1072 0
 4215 02c8 2F9F0000 		cmpwi 7,31,0
 4216 02cc 41BEFF08 		beq- 7,.L244
 4217              		.loc 3 1077 0
 4218 02d0 7FF8FB78 		mr 24,31
 4219              	.LVL354:
 4220 02d4 4BFFFD94 		b .L351
 4221              	.LVL355:
 4222              	.L363:
 4223              	.LBE2403:
 4224              	.LBE2443:
 4225              	.LBB2444:
 4226              	.LBB2440:
 4227              	.LBB2435:
 4228              	.LBB2433:
 4229              	.LBB2431:
 4230              	.LBB2429:
 4231              	.LBB2427:
 4232              	.LBB2425:
 4233              	.LBB2424:
 4234              	.LBB2418:
 4235              	.LBB2419:
 4236              	.LBB2420:
 4237              		.loc 5 66 0
 4238 02d8 8169FFFC 		lwz 11,-4(9)
 4239              	.LVL356:
 4240              	.LBE2420:
 4241              	.LBE2419:
 4242              	.LBE2418:
 4243              		.loc 4 240 0
 4244 02dc 2F8B0000 		cmpwi 7,11,0
 4245              	.LBB2423:
 4246              	.LBB2422:
 4247              	.LBB2421:
 4248              		.loc 5 67 0
 4249 02e0 396BFFFF 		addi 11,11,-1
 4250 02e4 9169FFFC 		stw 11,-4(9)
 4251              	.LBE2421:
 4252              	.LBE2422:
 4253              	.LBE2423:
 4254              		.loc 4 240 0
 4255 02e8 419DFF00 		bgt+ 7,.L329
 4256              		.loc 4 244 0
 4257 02ec 38810009 		addi 4,1,9
 4258 02f0 48000001 		bl _ZNSs4_Rep10_M_destroyERKSaIcE
 4259              	.LVL357:
 4260 02f4 4BFFFEF4 		b .L329
 4261              	.LVL358:
 4262              	.L365:
 4263              	.LBE2424:
 4264              	.LBE2425:
 4265              	.LBE2427:
 4266              	.LBE2429:
 4267              	.LBE2431:
 4268              	.LBE2433:
 4269              	.LBE2435:
 4270              	.LBE2440:
 4271              	.LBE2444:
 4272              	.LBB2445:
 4273              	.LBB2404:
 4274              	.LBB2398:
 4275              	.LBB2393:
 4276              	.LBB2391:
 4277              	.LBB2386:
 4278              	.LBB2384:
 4279              	.LBB2382:
 4280              	.LBB2380:
 4281              	.LBB2378:
 4282              	.LBB2376:
 4283              	.LBB2375:
 4284              	.LBB2369:
 4285              	.LBB2370:
 4286              	.LBB2371:
 4287              		.loc 5 66 0
 4288 02f8 8169FFFC 		lwz 11,-4(9)
 4289              	.LVL359:
 4290              	.LBE2371:
 4291              	.LBE2370:
 4292              	.LBE2369:
 4293              		.loc 4 240 0
 4294 02fc 2F8B0000 		cmpwi 7,11,0
 4295              	.LBB2374:
 4296              	.LBB2373:
 4297              	.LBB2372:
 4298              		.loc 5 67 0
 4299 0300 396BFFFF 		addi 11,11,-1
 4300 0304 9169FFFC 		stw 11,-4(9)
 4301              	.LBE2372:
 4302              	.LBE2373:
 4303              	.LBE2374:
 4304              		.loc 4 240 0
 4305 0308 419DFFB8 		bgt+ 7,.L319
 4306              		.loc 4 244 0
 4307 030c 3881000A 		addi 4,1,10
 4308 0310 48000001 		bl _ZNSs4_Rep10_M_destroyERKSaIcE
 4309              	.LVL360:
 4310 0314 4BFFFFAC 		b .L319
 4311              	.LVL361:
 4312              	.L243:
 4313              	.LBE2375:
 4314              	.LBE2376:
 4315              	.LBE2378:
 4316              	.LBE2380:
 4317              	.LBE2382:
 4318              	.LBE2384:
 4319              	.LBE2386:
 4320              	.LBE2391:
 4321              	.LBE2393:
 4322              	.LBE2398:
 4323              	.LBE2404:
 4324              	.LBE2445:
 4325              	.LBE2449:
 4326              	.LBE2453:
 4327              	.LBE2456:
 4328              	.LBB2457:
 4329              	.LBB2458:
 4330              	.LBB2459:
 4331              	.LBB2460:
 4332              	.LBB2461:
 4333              	.LBB2462:
 4334              	.LBB2463:
 4335              	.LBB2464:
 4336              	.LBB2465:
 4337              	.LBB2466:
 4338              		.loc 4 288 0
 4339 0318 81340018 		lwz 9,24(20)
 4340              	.LBE2466:
 4341              	.LBE2465:
 4342              	.LBE2464:
 4343              	.LBE2463:
 4344              	.LBE2462:
 4345              	.LBE2461:
 4346              	.LBE2460:
 4347              	.LBE2459:
 4348              	.LBE2458:
 4349              	.LBE2457:
 4350              	.LBB2492:
 4351              	.LBB2454:
 4352              		.loc 1 413 0
 4353 031c 83F40008 		lwz 31,8(20)
 4354              	.LVL362:
 4355              	.LBE2454:
 4356              	.LBE2492:
 4357              	.LBB2493:
 4358              	.LBB2487:
 4359              	.LBB2485:
 4360              	.LBB2483:
 4361              	.LBB2481:
 4362              	.LBB2479:
 4363              	.LBB2477:
 4364              		.loc 4 534 0
 4365 0320 3869FFF4 		addi 3,9,-12
 4366              	.LVL363:
 4367              	.LBB2467:
 4368              	.LBB2468:
 4369              		.loc 4 235 0
 4370 0324 7F83E800 		cmpw 7,3,29
 4371 0328 409E001C 		bne- 7,.L366
 4372              	.LVL364:
 4373              	.L339:
 4374              	.LBE2468:
 4375              	.LBE2467:
 4376              	.LBE2477:
 4377              	.LBE2479:
 4378              	.LBE2481:
 4379              	.LBE2483:
 4380              	.LBE2485:
 4381              	.LBE2487:
 4382              	.LBB2488:
 4383              	.LBB2489:
 4384              	.LBB2490:
 4385              		.loc 6 98 0
 4386 032c 7E83A378 		mr 3,20
 4387 0330 48000001 		bl _ZdlPv
 4388              	.LVL365:
 4389              	.LBE2490:
 4390              	.LBE2489:
 4391              	.LBE2488:
 4392              	.LBE2493:
 4393              	.LBE2496:
 4394              		.loc 3 1072 0
 4395 0334 2F9F0000 		cmpwi 7,31,0
 4396 0338 41BEFEF4 		beq- 7,.L241
 4397              		.loc 3 1077 0
 4398 033c 7FF4FB78 		mr 20,31
 4399              	.LVL366:
 4400 0340 4BFFFD10 		b .L340
 4401              	.LVL367:
 4402              	.L366:
 4403              	.LBB2497:
 4404              	.LBB2494:
 4405              	.LBB2491:
 4406              	.LBB2486:
 4407              	.LBB2484:
 4408              	.LBB2482:
 4409              	.LBB2480:
 4410              	.LBB2478:
 4411              	.LBB2476:
 4412              	.LBB2475:
 4413              	.LBB2469:
 4414              	.LBB2470:
 4415              	.LBB2471:
 4416              		.loc 5 66 0
 4417 0344 8169FFFC 		lwz 11,-4(9)
 4418              	.LVL368:
 4419              	.LBE2471:
 4420              	.LBE2470:
 4421              	.LBE2469:
 4422              		.loc 4 240 0
 4423 0348 2F8B0000 		cmpwi 7,11,0
 4424              	.LBB2474:
 4425              	.LBB2473:
 4426              	.LBB2472:
 4427              		.loc 5 67 0
 4428 034c 396BFFFF 		addi 11,11,-1
 4429 0350 9169FFFC 		stw 11,-4(9)
 4430              	.LBE2472:
 4431              	.LBE2473:
 4432              	.LBE2474:
 4433              		.loc 4 240 0
 4434 0354 419DFFD8 		bgt+ 7,.L339
 4435              		.loc 4 244 0
 4436 0358 38810008 		addi 4,1,8
 4437 035c 48000001 		bl _ZNSs4_Rep10_M_destroyERKSaIcE
 4438              	.LVL369:
 4439 0360 4BFFFFCC 		b .L339
 4440              	.LVL370:
 4441              	.L361:
 4442              	.LBE2475:
 4443              	.LBE2476:
 4444              	.LBE2478:
 4445              	.LBE2480:
 4446              	.LBE2482:
 4447              	.LBE2484:
 4448              	.LBE2486:
 4449              	.LBE2491:
 4450              	.LBE2494:
 4451              	.LBB2495:
 4452              	.LBB2455:
 4453              	.LBB2450:
 4454              	.LBB2446:
 4455              	.LBB2405:
 4456              	.LBB2399:
 4457              	.LBB2394:
 4458              	.LBB2354:
 4459              	.LBB2349:
 4460              	.LBB2344:
 4461              	.LBB2306:
 4462              	.LBB2302:
 4463              	.LBB2298:
 4464              	.LBB2258:
 4465              	.LBB2253:
 4466              	.LBB2248:
 4467              	.LBB2243:
 4468              	.LBB2238:
 4469              	.LBB2236:
 4470              	.LBB2234:
 4471              	.LBB2232:
 4472              	.LBB2230:
 4473              	.LBB2228:
 4474              	.LBB2227:
 4475              	.LBB2221:
 4476              	.LBB2222:
 4477              	.LBB2223:
 4478              		.loc 5 66 0
 4479 0364 8169FFFC 		lwz 11,-4(9)
 4480              	.LVL371:
 4481              	.LBE2223:
 4482              	.LBE2222:
 4483              	.LBE2221:
 4484              		.loc 4 240 0
 4485 0368 2F8B0000 		cmpwi 7,11,0
 4486              	.LBB2226:
 4487              	.LBB2225:
 4488              	.LBB2224:
 4489              		.loc 5 67 0
 4490 036c 396BFFFF 		addi 11,11,-1
 4491 0370 9169FFFC 		stw 11,-4(9)
 4492              	.LBE2224:
 4493              	.LBE2225:
 4494              	.LBE2226:
 4495              		.loc 4 240 0
 4496 0374 419DFDDC 		bgt+ 7,.L289
 4497              		.loc 4 244 0
 4498 0378 3881000D 		addi 4,1,13
 4499 037c 48000001 		bl _ZNSs4_Rep10_M_destroyERKSaIcE
 4500              	.LVL372:
 4501 0380 4BFFFDD0 		b .L289
 4502              	.LVL373:
 4503              	.L364:
 4504              	.LBE2227:
 4505              	.LBE2228:
 4506              	.LBE2230:
 4507              	.LBE2232:
 4508              	.LBE2234:
 4509              	.LBE2236:
 4510              	.LBE2238:
 4511              	.LBE2243:
 4512              	.LBE2248:
 4513              	.LBE2253:
 4514              	.LBE2258:
 4515              	.LBE2298:
 4516              	.LBE2302:
 4517              	.LBE2306:
 4518              	.LBE2344:
 4519              	.LBB2345:
 4520              	.LBB2341:
 4521              	.LBB2336:
 4522              	.LBB2334:
 4523              	.LBB2332:
 4524              	.LBB2330:
 4525              	.LBB2328:
 4526              	.LBB2326:
 4527              	.LBB2325:
 4528              	.LBB2319:
 4529              	.LBB2320:
 4530              	.LBB2321:
 4531              		.loc 5 66 0
 4532 0384 8169FFFC 		lwz 11,-4(9)
 4533              	.LVL374:
 4534              	.LBE2321:
 4535              	.LBE2320:
 4536              	.LBE2319:
 4537              		.loc 4 240 0
 4538 0388 2F8B0000 		cmpwi 7,11,0
 4539              	.LBB2324:
 4540              	.LBB2323:
 4541              	.LBB2322:
 4542              		.loc 5 67 0
 4543 038c 396BFFFF 		addi 11,11,-1
 4544 0390 9169FFFC 		stw 11,-4(9)
 4545              	.LBE2322:
 4546              	.LBE2323:
 4547              	.LBE2324:
 4548              		.loc 4 240 0
 4549 0394 419DFE80 		bgt+ 7,.L309
 4550              		.loc 4 244 0
 4551 0398 3881000B 		addi 4,1,11
 4552 039c 48000001 		bl _ZNSs4_Rep10_M_destroyERKSaIcE
 4553              	.LVL375:
 4554 03a0 4BFFFE74 		b .L309
 4555              	.LBE2325:
 4556              	.LBE2326:
 4557              	.LBE2328:
 4558              	.LBE2330:
 4559              	.LBE2332:
 4560              	.LBE2334:
 4561              	.LBE2336:
 4562              	.LBE2341:
 4563              	.LBE2345:
 4564              	.LBE2349:
 4565              	.LBE2354:
 4566              	.LBE2394:
 4567              	.LBE2399:
 4568              	.LBE2405:
 4569              	.LBE2446:
 4570              	.LBE2450:
 4571              	.LBE2455:
 4572              	.LBE2495:
 4573              	.LBE2497:
 4574              	.LBE2499:
 4575              		.cfi_endproc
 4576              	.LFE1180:
 4577              		.size	_ZNSt8_Rb_treeIySt4pairIKySsESt10_Select1stIS2_ESt4lessIyESaIS2_EE8_M_eraseEPSt13_Rb_tree_no
 4578              		.section	".text"
 4579              		.align 2
 4580              		.globl _ZN9NandTitleD2Ev
 4581              		.type	_ZN9NandTitleD2Ev, @function
 4582              	_ZN9NandTitleD2Ev:
 4583              	.LFB1069:
 4584              		.loc 1 19 0
 4585              		.cfi_startproc
 4586              	.LVL376:
 4587 1158 7C0802A6 		mflr 0
 4588 115c 9421FFF0 		stwu 1,-16(1)
 4589              	.LCFI67:
 4590              		.cfi_def_cfa_offset 16
 4591              		.cfi_register 65, 0
 4592 1160 93C10008 		stw 30,8(1)
 4593              	.LBB2500:
 4594              	.LBB2501:
 4595              		.file 7 "d:\\devkitpro\\devkitppc\\bin\\../lib/gcc/powerpc-eabi/4.6.3/../../../../powerpc-eabi/inc
 4596              		.loc 7 709 0
 4597 1164 3BC3000C 		addi 30,3,12
 4598              		.cfi_offset 30, -8
 4599              	.LBE2501:
 4600              	.LBE2500:
 4601              		.loc 1 19 0
 4602 1168 90010014 		stw 0,20(1)
 4603 116c 93E1000C 		stw 31,12(1)
 4604              		.loc 1 19 0
 4605 1170 7C7F1B78 		mr 31,3
 4606              		.cfi_offset 31, -4
 4607              		.cfi_offset 65, 4
 4608              	.LVL377:
 4609              	.LBB2515:
 4610              	.LBB2516:
 4611              	.LBB2517:
 4612              	.LBB2518:
 4613              		.loc 2 1256 0
 4614 1174 80030000 		lwz 0,0(3)
 4615              	.LBE2518:
 4616              	.LBE2517:
 4617              	.LBE2516:
 4618              	.LBE2515:
 4619              	.LBB2522:
 4620              	.LBB2511:
 4621              	.LBB2502:
 4622              	.LBB2503:
 4623              		.loc 3 809 0
 4624 1178 80830014 		lwz 4,20(3)
 4625              	.LBE2503:
 4626              	.LBE2502:
 4627              	.LBE2511:
 4628              	.LBE2522:
 4629              	.LBB2523:
 4630              	.LBB2521:
 4631              	.LBB2520:
 4632              	.LBB2519:
 4633              		.loc 2 1256 0
 4634 117c 90030004 		stw 0,4(3)
 4635              	.LVL378:
 4636              	.LBE2519:
 4637              	.LBE2520:
 4638              	.LBE2521:
 4639              	.LBE2523:
 4640              	.LBB2524:
 4641              	.LBB2512:
 4642              	.LBB2508:
 4643              	.LBB2504:
 4644              		.loc 3 809 0
 4645 1180 7FC3F378 		mr 3,30
 4646              	.LVL379:
 4647 1184 48000001 		bl _ZNSt8_Rb_treeIySt4pairIKySsESt10_Select1stIS2_ESt4lessIyESaIS2_EE8_M_eraseEPSt13_Rb_tree_nodeI
 4648              	.LVL380:
 4649              		.loc 3 811 0
 4650 1188 38000000 		li 0,0
 4651              	.LBE2504:
 4652              		.loc 3 810 0
 4653 118c 393F0010 		addi 9,31,16
 4654              	.LVL381:
 4655              	.LBB2505:
 4656              		.loc 3 811 0
 4657 1190 901F0014 		stw 0,20(31)
 4658              		.loc 3 810 0
 4659 1194 913F0018 		stw 9,24(31)
 4660              	.LVL382:
 4661              	.LBE2505:
 4662              	.LBE2508:
 4663              	.LBE2512:
 4664              	.LBE2524:
 4665              	.LBB2525:
 4666              	.LBB2526:
 4667              	.LBB2527:
 4668              	.LBB2528:
 4669              	.LBB2529:
 4670              		.loc 3 639 0
 4671 1198 7FC3F378 		mr 3,30
 4672              	.LBE2529:
 4673              	.LBE2528:
 4674              	.LBE2527:
 4675              	.LBE2526:
 4676              	.LBE2525:
 4677              	.LBB2538:
 4678              	.LBB2513:
 4679              	.LBB2509:
 4680              	.LBB2506:
 4681              		.loc 3 812 0
 4682 119c 913F001C 		stw 9,28(31)
 4683              	.LBE2506:
 4684              	.LBE2509:
 4685              	.LBE2513:
 4686              	.LBE2538:
 4687              	.LBB2539:
 4688              	.LBB2536:
 4689              	.LBB2534:
 4690              	.LBB2532:
 4691              	.LBB2530:
 4692              		.loc 3 639 0
 4693 11a0 38800000 		li 4,0
 4694              	.LBE2530:
 4695              	.LBE2532:
 4696              	.LBE2534:
 4697              	.LBE2536:
 4698              	.LBE2539:
 4699              	.LBB2540:
 4700              	.LBB2514:
 4701              	.LBB2510:
 4702              	.LBB2507:
 4703              		.loc 3 813 0
 4704 11a4 901F0020 		stw 0,32(31)
 4705              	.LVL383:
 4706              	.LBE2507:
 4707              	.LBE2510:
 4708              	.LBE2514:
 4709              	.LBE2540:
 4710              	.LBB2541:
 4711              	.LBB2537:
 4712              	.LBB2535:
 4713              	.LBB2533:
 4714              	.LBB2531:
 4715              		.loc 3 639 0
 4716 11a8 48000001 		bl _ZNSt8_Rb_treeIySt4pairIKySsESt10_Select1stIS2_ESt4lessIyESaIS2_EE8_M_eraseEPSt13_Rb_tree_nodeI
 4717              	.LVL384:
 4718              	.LBE2531:
 4719              	.LBE2533:
 4720              	.LBE2535:
 4721              	.LBE2537:
 4722              	.LBE2541:
 4723              	.LBB2542:
 4724              		.loc 1 413 0
 4725 11ac 807F0000 		lwz 3,0(31)
 4726              	.LVL385:
 4727              	.LBB2543:
 4728              	.LBB2544:
 4729              	.LBB2545:
 4730              	.LBB2546:
 4731              	.LBB2547:
 4732              		.loc 2 155 0
 4733 11b0 2F830000 		cmpwi 7,3,0
 4734 11b4 419E0008 		beq- 7,.L367
 4735              	.LVL386:
 4736              	.LBB2548:
 4737              	.LBB2549:
 4738              		.loc 6 98 0
 4739 11b8 48000001 		bl _ZdlPv
 4740              	.LVL387:
 4741              	.L367:
 4742              	.LBE2549:
 4743              	.LBE2548:
 4744              	.LBE2547:
 4745              	.LBE2546:
 4746              	.LBE2545:
 4747              	.LBE2544:
 4748              	.LBE2543:
 4749              	.LBE2542:
 4750              		.loc 1 23 0
 4751 11bc 80010014 		lwz 0,20(1)
 4752 11c0 83C10008 		lwz 30,8(1)
 4753              	.LVL388:
 4754 11c4 7C0803A6 		mtlr 0
 4755 11c8 83E1000C 		lwz 31,12(1)
 4756              	.LVL389:
 4757 11cc 38210010 		addi 1,1,16
 4758              	.LCFI68:
 4759              		.cfi_def_cfa_offset 0
 4760              		.cfi_restore 31
 4761              		.cfi_restore 30
 4762 11d0 4E800020 		blr
 4763              		.cfi_endproc
 4764              	.LFE1069:
 4765              		.size	_ZN9NandTitleD2Ev, .-_ZN9NandTitleD2Ev
 4766              		.align 2
 4767              		.type	_Z41__static_initialization_and_destruction_0ii.constprop.73, @function
 4768              	_Z41__static_initialization_and_destruction_0ii.constprop.73:
 4769              	.LFB1444:
 4770              		.loc 1 413 0
 4771              		.cfi_startproc
 4772              	.LVL390:
 4773              		.loc 1 413 0
 4774 11d4 2F830001 		cmpwi 7,3,1
 4775 11d8 419E001C 		beq- 7,.L382
 4776              		.loc 1 9 0
 4777 11dc 2F830000 		cmpwi 7,3,0
 4778 11e0 4C9E0020 		bnelr- 7
 4779              	.LVL391:
 4780              	.LBB2552:
 4781              	.LBB2553:
 4782 11e4 3C600000 		lis 3,.LANCHOR0@ha
 4783              	.LVL392:
 4784              	.LBE2553:
 4785              	.LBE2552:
 4786              		.loc 1 413 0
 4787              	.LBB2555:
 4788              	.LBB2554:
 4789              		.loc 1 9 0
 4790 11e8 38630000 		la 3,.LANCHOR0@l(3)
 4791 11ec 386349E4 		addi 3,3,18916
 4792 11f0 48000000 		b _ZN9NandTitleD1Ev
 4793              	.LVL393:
 4794              	.L382:
 4795              	.LBE2554:
 4796              	.LBE2555:
 4797 11f4 3C600000 		lis 3,.LANCHOR0@ha
 4798              	.LVL394:
 4799              		.loc 1 413 0
 4800              		.loc 1 9 0
 4801 11f8 38630000 		la 3,.LANCHOR0@l(3)
 4802 11fc 386349E4 		addi 3,3,18916
 4803 1200 48000000 		b _ZN9NandTitleC1Ev
 4804              		.cfi_endproc
 4805              	.LFE1444:
 4806              		.size	_Z41__static_initialization_and_destruction_0ii.constprop.73, .-_Z41__static_initialization_
 4807              		.section	.text._ZNSt6vectorIySaIyEE13_M_insert_auxEN9__gnu_cxx17__normal_iteratorIPyS1_EERKy,"axG"
 4808              		.align 2
 4809              		.weak	_ZNSt6vectorIySaIyEE13_M_insert_auxEN9__gnu_cxx17__normal_iteratorIPyS1_EERKy
 4810              		.type	_ZNSt6vectorIySaIyEE13_M_insert_auxEN9__gnu_cxx17__normal_iteratorIPyS1_EERKy, @function
 4811              	_ZNSt6vectorIySaIyEE13_M_insert_auxEN9__gnu_cxx17__normal_iteratorIPyS1_EERKy:
 4812              	.LFB1185:
 4813              		.file 8 "d:\\devkitpro\\devkitppc\\bin\\../lib/gcc/powerpc-eabi/4.6.3/../../../../powerpc-eabi/inc
 4814              		.loc 8 300 0
 4815              		.cfi_startproc
 4816              	.LVL395:
 4817 0000 7C0802A6 		mflr 0
 4818 0004 9421FFD8 		stwu 1,-40(1)
 4819              	.LCFI69:
 4820              		.cfi_def_cfa_offset 40
 4821              		.cfi_register 65, 0
 4822 0008 93C10020 		stw 30,32(1)
 4823 000c 7C7E1B78 		mr 30,3
 4824              		.cfi_offset 30, -8
 4825 0010 9001002C 		stw 0,44(1)
 4826 0014 93A1001C 		stw 29,28(1)
 4827              	.LBB2556:
 4828              		.loc 8 304 0
 4829 0018 80630004 		lwz 3,4(3)
 4830              	.LVL396:
 4831 001c 801E0008 		lwz 0,8(30)
 4832              		.cfi_offset 29, -12
 4833              		.cfi_offset 65, 4
 4834              	.LBE2556:
 4835              		.loc 8 300 0
 4836 0020 93410010 		stw 26,16(1)
 4837              	.LBB2697:
 4838              		.loc 8 304 0
 4839 0024 7F830000 		cmpw 7,3,0
 4840              	.LBE2697:
 4841              		.loc 8 300 0
 4842 0028 93610014 		stw 27,20(1)
 4843 002c 93810018 		stw 28,24(1)
 4844 0030 93E10024 		stw 31,36(1)
 4845              		.loc 8 300 0
 4846 0034 83A40000 		lwz 29,0(4)
 4847              	.LVL397:
 4848              	.LBB2698:
 4849              		.loc 8 304 0
 4850 0038 419E007C 		beq- 7,.L384
 4851              		.cfi_offset 31, -4
 4852              		.cfi_offset 28, -16
 4853              		.cfi_offset 27, -20
 4854              		.cfi_offset 26, -24
 4855              	.LVL398:
 4856              	.LBB2557:
 4857              	.LBB2558:
 4858              	.LBB2559:
 4859              		.loc 6 108 0
 4860 003c 2F830000 		cmpwi 7,3,0
 4861 0040 419E0014 		beq- 7,.L385
 4862 0044 8143FFF8 		lwz 10,-8(3)
 4863 0048 8163FFFC 		lwz 11,-4(3)
 4864 004c 91430000 		stw 10,0(3)
 4865 0050 91630004 		stw 11,4(3)
 4866              	.L385:
 4867              	.LBE2559:
 4868              	.LBE2558:
 4869              		.loc 8 313 0
 4870 0054 3803FFF8 		addi 0,3,-8
 4871              		.loc 8 309 0
 4872 0058 39230008 		addi 9,3,8
 4873              	.LBB2560:
 4874              	.LBB2561:
 4875              	.LBB2562:
 4876              	.LBB2563:
 4877              	.LBB2564:
 4878              	.LBB2565:
 4879              		.file 9 "d:\\devkitpro\\devkitppc\\bin\\../lib/gcc/powerpc-eabi/4.6.3/../../../../powerpc-eabi/inc
 4880              		.loc 9 559 0
 4881 005c 7C1D0050 		subf 0,29,0
 4882              	.LBE2565:
 4883              	.LBE2564:
 4884              	.LBE2563:
 4885              	.LBE2562:
 4886              	.LBE2561:
 4887              	.LBE2560:
 4888              		.loc 8 309 0
 4889 0060 913E0004 		stw 9,4(30)
 4890              	.LBB2576:
 4891              	.LBB2574:
 4892              	.LBB2572:
 4893              	.LBB2570:
 4894              	.LBB2568:
 4895              	.LBB2566:
 4896              		.loc 9 560 0
 4897 0064 7C001E71 		srawi. 0,0,3
 4898              	.LBE2566:
 4899              	.LBE2568:
 4900              	.LBE2570:
 4901              	.LBE2572:
 4902              	.LBE2574:
 4903              	.LBE2576:
 4904              		.loc 8 311 0
 4905 0068 83C50000 		lwz 30,0(5)
 4906              	.LVL399:
 4907 006c 83E50004 		lwz 31,4(5)
 4908              	.LVL400:
 4909              	.LBB2577:
 4910              	.LBB2575:
 4911              	.LBB2573:
 4912              	.LBB2571:
 4913              	.LBB2569:
 4914              	.LBB2567:
 4915              		.loc 9 560 0
 4916 0070 41A20014 		beq+ 0,.L386
 4917              		.loc 9 561 0
 4918 0074 54051838 		slwi 5,0,3
 4919              	.LVL401:
 4920 0078 7FA4EB78 		mr 4,29
 4921              	.LVL402:
 4922 007c 7C651850 		subf 3,5,3
 4923              	.LVL403:
 4924 0080 48000001 		bl memmove
 4925              	.LVL404:
 4926              	.L386:
 4927              	.LBE2567:
 4928              	.LBE2569:
 4929              	.LBE2571:
 4930              	.LBE2573:
 4931              	.LBE2575:
 4932              	.LBE2577:
 4933              	.LBE2557:
 4934              	.LBE2698:
 4935              		.loc 8 373 0
 4936 0084 8001002C 		lwz 0,44(1)
 4937              	.LBB2699:
 4938              	.LBB2578:
 4939              		.loc 8 317 0
 4940 0088 93DD0000 		stw 30,0(29)
 4941              	.LBE2578:
 4942              	.LBE2699:
 4943              		.loc 8 373 0
 4944 008c 7C0803A6 		mtlr 0
 4945              	.LBB2700:
 4946              	.LBB2579:
 4947              		.loc 8 317 0
 4948 0090 93FD0004 		stw 31,4(29)
 4949              	.LBE2579:
 4950              	.LBE2700:
 4951              		.loc 8 373 0
 4952 0094 83410010 		lwz 26,16(1)
 4953 0098 83610014 		lwz 27,20(1)
 4954 009c 83810018 		lwz 28,24(1)
 4955 00a0 83A1001C 		lwz 29,28(1)
 4956              	.LVL405:
 4957 00a4 83C10020 		lwz 30,32(1)
 4958              	.LVL406:
 4959 00a8 83E10024 		lwz 31,36(1)
 4960 00ac 38210028 		addi 1,1,40
 4961              		.cfi_remember_state
 4962              	.LCFI70:
 4963              		.cfi_def_cfa_offset 0
 4964              		.cfi_restore 31
 4965              		.cfi_restore 30
 4966              		.cfi_restore 29
 4967              		.cfi_restore 28
 4968              		.cfi_restore 27
 4969              		.cfi_restore 26
 4970 00b0 4E800020 		blr
 4971              	.LVL407:
 4972              	.L384:
 4973              	.LCFI71:
 4974              		.cfi_restore_state
 4975              	.LBB2701:
 4976              	.LBB2580:
 4977              	.LBB2581:
 4978              		.loc 1 413 0
 4979 00b4 809E0000 		lwz 4,0(30)
 4980              	.LBB2582:
 4981              	.LBB2583:
 4982              	.LBB2584:
 4983              		.loc 2 571 0
 4984 00b8 7C641850 		subf 3,4,3
 4985              	.LBE2584:
 4986              	.LBE2583:
 4987              	.LBB2585:
 4988              	.LBB2586:
 4989              		.loc 9 215 0
 4990 00bc 7C631E71 		srawi. 3,3,3
 4991 00c0 418200C8 		beq- 0,.L388
 4992              	.LBE2586:
 4993              	.LBE2585:
 4994              		.loc 2 1244 0
 4995 00c4 5460083C 		slwi 0,3,1
 4996              	.LVL408:
 4997              		.loc 2 1245 0
 4998 00c8 7F830040 		cmplw 7,3,0
 4999 00cc 409D00F8 		ble- 7,.L399
 5000              	.L389:
 5001              	.LVL409:
 5002              	.LBE2582:
 5003              	.LBE2581:
 5004              	.LBB2589:
 5005              	.LBB2590:
 5006              		.file 10 "d:\\devkitpro\\devkitppc\\bin\\../lib/gcc/powerpc-eabi/4.6.3/../../../../powerpc-eabi/in
 5007              		.loc 10 892 0
 5008 00d0 7C84E850 		subf 4,4,29
 5009              	.LBE2590:
 5010              	.LBE2589:
 5011              		.loc 8 326 0
 5012 00d4 3B80FFF8 		li 28,-8
 5013              	.LBB2596:
 5014              	.LBB2591:
 5015              		.loc 10 892 0
 5016 00d8 7C9B1E70 		srawi 27,4,3
 5017              	.LVL410:
 5018              	.L395:
 5019              	.LBE2591:
 5020              	.LBE2596:
 5021              	.LBB2597:
 5022              	.LBB2598:
 5023              	.LBB2599:
 5024              	.LBB2600:
 5025              		.loc 6 92 0
 5026 00dc 7F83E378 		mr 3,28
 5027 00e0 90A10008 		stw 5,8(1)
 5028 00e4 48000001 		bl _Znwj
 5029              	.LVL411:
 5030 00e8 809E0000 		lwz 4,0(30)
 5031 00ec 80A10008 		lwz 5,8(1)
 5032 00f0 7C7F1B78 		mr 31,3
 5033 00f4 7C04E850 		subf 0,4,29
 5034              	.L390:
 5035              	.LVL412:
 5036              	.LBE2600:
 5037              	.LBE2599:
 5038              	.LBE2598:
 5039              	.LBE2597:
 5040              		.loc 8 335 0
 5041 00f8 577B1838 		slwi 27,27,3
 5042              	.LVL413:
 5043              	.LBB2603:
 5044              	.LBB2604:
 5045              		.loc 6 108 0
 5046 00fc 7F7FDA15 		add. 27,31,27
 5047              	.LVL414:
 5048 0100 41820014 		beq- 0,.L391
 5049 0104 81450000 		lwz 10,0(5)
 5050 0108 81650004 		lwz 11,4(5)
 5051 010c 915B0000 		stw 10,0(27)
 5052 0110 917B0004 		stw 11,4(27)
 5053              	.L391:
 5054              	.LVL415:
 5055              	.LBE2604:
 5056              	.LBE2603:
 5057              	.LBB2605:
 5058              	.LBB2606:
 5059              	.LBB2607:
 5060              	.LBB2608:
 5061              	.LBB2609:
 5062              	.LBB2610:
 5063              	.LBB2611:
 5064              	.LBB2612:
 5065              	.LBB2613:
 5066              	.LBB2614:
 5067              	.LBB2615:
 5068              		.loc 9 365 0
 5069 0114 7C001E71 		srawi. 0,0,3
 5070              	.LVL416:
 5071 0118 3B600000 		li 27,0
 5072              	.LVL417:
 5073 011c 4082007C 		bne- 0,.L400
 5074              	.LVL418:
 5075              	.L392:
 5076              	.LBE2615:
 5077              	.LBE2614:
 5078              	.LBE2613:
 5079              	.LBE2612:
 5080              	.LBE2611:
 5081              	.LBE2610:
 5082              	.LBE2609:
 5083              	.LBE2608:
 5084              	.LBE2607:
 5085              	.LBE2606:
 5086              	.LBE2605:
 5087              	.LBB2636:
 5088              	.LBB2637:
 5089              	.LBB2638:
 5090              	.LBB2639:
 5091              	.LBB2640:
 5092              	.LBB2641:
 5093              	.LBB2642:
 5094              	.LBB2643:
 5095              	.LBB2644:
 5096              	.LBB2645:
 5097              	.LBB2646:
 5098              		.loc 9 364 0
 5099 0120 801E0004 		lwz 0,4(30)
 5100              	.LBE2646:
 5101              	.LBE2645:
 5102              	.LBE2644:
 5103              	.LBE2643:
 5104              	.LBE2642:
 5105              	.LBE2641:
 5106              	.LBE2640:
 5107              	.LBE2639:
 5108              	.LBE2638:
 5109              	.LBE2637:
 5110              	.LBE2636:
 5111              	.LBB2677:
 5112              	.LBB2634:
 5113              	.LBB2632:
 5114              	.LBB2630:
 5115              	.LBB2628:
 5116              	.LBB2626:
 5117              	.LBB2624:
 5118              	.LBB2622:
 5119              	.LBB2620:
 5120              	.LBB2618:
 5121              	.LBB2616:
 5122              		.loc 9 367 0
 5123 0124 7F7FDA14 		add 27,31,27
 5124              	.LVL419:
 5125              	.LBE2616:
 5126              	.LBE2618:
 5127              	.LBE2620:
 5128              	.LBE2622:
 5129              	.LBE2624:
 5130              	.LBE2626:
 5131              	.LBE2628:
 5132              	.LBE2630:
 5133              	.LBE2632:
 5134              	.LBE2634:
 5135              	.LBE2677:
 5136              		.loc 8 347 0
 5137 0128 3B5B0008 		addi 26,27,8
 5138              	.LBB2678:
 5139              	.LBB2674:
 5140              	.LBB2671:
 5141              	.LBB2668:
 5142              	.LBB2665:
 5143              	.LBB2662:
 5144              	.LBB2659:
 5145              	.LBB2656:
 5146              	.LBB2653:
 5147              	.LBB2650:
 5148              	.LBB2647:
 5149              		.loc 9 365 0
 5150 012c 3B600000 		li 27,0
 5151              	.LVL420:
 5152              		.loc 9 364 0
 5153 0130 7C1D0050 		subf 0,29,0
 5154              	.LVL421:
 5155              		.loc 9 365 0
 5156 0134 7C001E71 		srawi. 0,0,3
 5157              	.LVL422:
 5158 0138 40820074 		bne- 0,.L401
 5159              	.LVL423:
 5160              	.L393:
 5161              	.LBE2647:
 5162              	.LBE2650:
 5163              	.LBE2653:
 5164              	.LBE2656:
 5165              	.LBE2659:
 5166              	.LBE2662:
 5167              	.LBE2665:
 5168              	.LBE2668:
 5169              	.LBE2671:
 5170              	.LBE2674:
 5171              	.LBE2678:
 5172              		.loc 8 366 0
 5173 013c 807E0000 		lwz 3,0(30)
 5174              	.LBB2679:
 5175              	.LBB2675:
 5176              	.LBB2672:
 5177              	.LBB2669:
 5178              	.LBB2666:
 5179              	.LBB2663:
 5180              	.LBB2660:
 5181              	.LBB2657:
 5182              	.LBB2654:
 5183              	.LBB2651:
 5184              	.LBB2648:
 5185              		.loc 9 367 0
 5186 0140 7F7ADA14 		add 27,26,27
 5187              	.LVL424:
 5188              	.LBE2648:
 5189              	.LBE2651:
 5190              	.LBE2654:
 5191              	.LBE2657:
 5192              	.LBE2660:
 5193              	.LBE2663:
 5194              	.LBE2666:
 5195              	.LBE2669:
 5196              	.LBE2672:
 5197              	.LBE2675:
 5198              	.LBE2679:
 5199              	.LBB2680:
 5200              	.LBB2681:
 5201              		.loc 2 155 0
 5202 0144 2F830000 		cmpwi 7,3,0
 5203 0148 419E0008 		beq- 7,.L394
 5204              	.LVL425:
 5205              	.LBB2682:
 5206              	.LBB2683:
 5207              		.loc 6 98 0
 5208 014c 48000001 		bl _ZdlPv
 5209              	.LVL426:
 5210              	.L394:
 5211              	.LBE2683:
 5212              	.LBE2682:
 5213              	.LBE2681:
 5214              	.LBE2680:
 5215              	.LBE2580:
 5216              	.LBE2701:
 5217              		.loc 8 373 0
 5218 0150 8001002C 		lwz 0,44(1)
 5219              	.LBB2702:
 5220              	.LBB2694:
 5221              		.loc 8 371 0
 5222 0154 7F9FE214 		add 28,31,28
 5223              		.loc 8 369 0
 5224 0158 93FE0000 		stw 31,0(30)
 5225              	.LBE2694:
 5226              	.LBE2702:
 5227              		.loc 8 373 0
 5228 015c 7C0803A6 		mtlr 0
 5229              	.LBB2703:
 5230              	.LBB2695:
 5231              		.loc 8 370 0
 5232 0160 937E0004 		stw 27,4(30)
 5233              		.loc 8 371 0
 5234 0164 939E0008 		stw 28,8(30)
 5235              	.LBE2695:
 5236              	.LBE2703:
 5237              		.loc 8 373 0
 5238 0168 83410010 		lwz 26,16(1)
 5239              	.LVL427:
 5240 016c 83610014 		lwz 27,20(1)
 5241              	.LVL428:
 5242 0170 83810018 		lwz 28,24(1)
 5243 0174 83A1001C 		lwz 29,28(1)
 5244              	.LVL429:
 5245 0178 83C10020 		lwz 30,32(1)
 5246              	.LVL430:
 5247 017c 83E10024 		lwz 31,36(1)
 5248              	.LVL431:
 5249 0180 38210028 		addi 1,1,40
 5250              		.cfi_remember_state
 5251              		.cfi_restore 26
 5252              		.cfi_restore 27
 5253              		.cfi_restore 28
 5254              		.cfi_restore 29
 5255              		.cfi_restore 30
 5256              		.cfi_restore 31
 5257              	.LCFI72:
 5258              		.cfi_def_cfa_offset 0
 5259 0184 4E800020 		blr
 5260              	.LVL432:
 5261              	.L388:
 5262              	.LCFI73:
 5263              		.cfi_restore_state
 5264              	.LBB2704:
 5265              	.LBB2696:
 5266              	.LBB2684:
 5267              	.LBB2592:
 5268              		.loc 10 892 0
 5269 0188 7C84E850 		subf 4,4,29
 5270              	.LBE2592:
 5271              	.LBE2684:
 5272              		.loc 8 326 0
 5273 018c 3B800008 		li 28,8
 5274              	.LBB2685:
 5275              	.LBB2593:
 5276              		.loc 10 892 0
 5277 0190 7C9B1E70 		srawi 27,4,3
 5278              	.LVL433:
 5279 0194 4BFFFF48 		b .L395
 5280              	.LVL434:
 5281              	.L400:
 5282              	.LBE2593:
 5283              	.LBE2685:
 5284              	.LBB2686:
 5285              	.LBB2635:
 5286              	.LBB2633:
 5287              	.LBB2631:
 5288              	.LBB2629:
 5289              	.LBB2627:
 5290              	.LBB2625:
 5291              	.LBB2623:
 5292              	.LBB2621:
 5293              	.LBB2619:
 5294              	.LBB2617:
 5295              		.loc 9 366 0
 5296 0198 541B1838 		slwi 27,0,3
 5297 019c 7FE3FB78 		mr 3,31
 5298 01a0 7F65DB78 		mr 5,27
 5299              	.LVL435:
 5300 01a4 48000001 		bl memmove
 5301              	.LVL436:
 5302 01a8 4BFFFF78 		b .L392
 5303              	.LVL437:
 5304              	.L401:
 5305              	.LBE2617:
 5306              	.LBE2619:
 5307              	.LBE2621:
 5308              	.LBE2623:
 5309              	.LBE2625:
 5310              	.LBE2627:
 5311              	.LBE2629:
 5312              	.LBE2631:
 5313              	.LBE2633:
 5314              	.LBE2635:
 5315              	.LBE2686:
 5316              	.LBB2687:
 5317              	.LBB2676:
 5318              	.LBB2673:
 5319              	.LBB2670:
 5320              	.LBB2667:
 5321              	.LBB2664:
 5322              	.LBB2661:
 5323              	.LBB2658:
 5324              	.LBB2655:
 5325              	.LBB2652:
 5326              	.LBB2649:
 5327 01ac 541B1838 		slwi 27,0,3
 5328 01b0 7F43D378 		mr 3,26
 5329 01b4 7FA4EB78 		mr 4,29
 5330 01b8 7F65DB78 		mr 5,27
 5331 01bc 48000001 		bl memmove
 5332              	.LVL438:
 5333 01c0 4BFFFF7C 		b .L393
 5334              	.LVL439:
 5335              	.L399:
 5336              	.LBE2649:
 5337              	.LBE2652:
 5338              	.LBE2655:
 5339              	.LBE2658:
 5340              	.LBE2661:
 5341              	.LBE2664:
 5342              	.LBE2667:
 5343              	.LBE2670:
 5344              	.LBE2673:
 5345              	.LBE2676:
 5346              	.LBE2687:
 5347              	.LBB2688:
 5348              	.LBB2587:
 5349              		.loc 2 1245 0
 5350 01c4 3D201FFF 		lis 9,0x1fff
 5351 01c8 6129FFFF 		ori 9,9,65535
 5352 01cc 7F804840 		cmplw 7,0,9
 5353 01d0 419DFF00 		bgt+ 7,.L389
 5354              	.LBE2587:
 5355              	.LBE2688:
 5356              	.LBB2689:
 5357              	.LBB2601:
 5358              		.loc 2 150 0
 5359 01d4 2F800000 		cmpwi 7,0,0
 5360              	.LBE2601:
 5361              	.LBE2689:
 5362              	.LBB2690:
 5363              	.LBB2594:
 5364              		.loc 10 892 0
 5365 01d8 7C04E850 		subf 0,4,29
 5366              	.LVL440:
 5367              	.LBE2594:
 5368              	.LBE2690:
 5369              	.LBB2691:
 5370              	.LBB2588:
 5371              		.loc 2 1245 0
 5372 01dc 547C2036 		slwi 28,3,4
 5373              	.LVL441:
 5374              	.LBE2588:
 5375              	.LBE2691:
 5376              	.LBB2692:
 5377              	.LBB2595:
 5378              		.loc 10 892 0
 5379 01e0 7C1B1E70 		srawi 27,0,3
 5380              	.LVL442:
 5381              	.LBE2595:
 5382              	.LBE2692:
 5383              	.LBB2693:
 5384              	.LBB2602:
 5385              		.loc 2 150 0
 5386 01e4 3BE00000 		li 31,0
 5387 01e8 419EFF10 		beq+ 7,.L390
 5388 01ec 4BFFFEF0 		b .L395
 5389              	.LBE2602:
 5390              	.LBE2693:
 5391              	.LBE2696:
 5392              	.LBE2704:
 5393              		.cfi_endproc
 5394              	.LFE1185:
 5395              		.size	_ZNSt6vectorIySaIyEE13_M_insert_auxEN9__gnu_cxx17__normal_iteratorIPyS1_EERKy, .-_ZNSt6vecto
 5396              		.section	.text._ZNSt8_Rb_treeIySt4pairIKySsESt10_Select1stIS2_ESt4lessIyESaIS2_EE10_M_insert_EPKSt
 5397              		.align 2
 5398              		.weak	_ZNSt8_Rb_treeIySt4pairIKySsESt10_Select1stIS2_ESt4lessIyESaIS2_EE10_M_insert_EPKSt18_Rb_tre
 5399              		.type	_ZNSt8_Rb_treeIySt4pairIKySsESt10_Select1stIS2_ESt4lessIyESaIS2_EE10_M_insert_EPKSt18_Rb_tre
 5400              	_ZNSt8_Rb_treeIySt4pairIKySsESt10_Select1stIS2_ESt4lessIyESaIS2_EE10_M_insert_EPKSt18_Rb_tree_node_
 5401              	.LFB1307:
 5402              		.loc 3 960 0
 5403              		.cfi_startproc
 5404              		.cfi_personality 0,__gxx_personality_v0
 5405              		.cfi_lsda 0,.LLSDA1307
 5406              	.LVL443:
 5407              	.LBB2705:
 5408              		.loc 3 969 0
 5409 0000 2F840000 		cmpwi 7,4,0
 5410              	.LBE2705:
 5411              		.loc 3 960 0
 5412 0004 7C0802A6 		mflr 0
 5413 0008 9421FFD8 		stwu 1,-40(1)
 5414              	.LCFI74:
 5415              		.cfi_def_cfa_offset 40
 5416              		.cfi_register 65, 0
 5417 000c 93610014 		stw 27,20(1)
 5418 0010 7CDB3378 		mr 27,6
 5419              		.cfi_offset 27, -20
 5420 0014 93810018 		stw 28,24(1)
 5421              	.LBB2725:
 5422              		.loc 3 969 0
 5423 0018 3B800001 		li 28,1
 5424              		.cfi_offset 28, -16
 5425              	.LBE2725:
 5426              		.loc 3 960 0
 5427 001c 93A1001C 		stw 29,28(1)
 5428 0020 7CBD2B78 		mr 29,5
 5429              		.cfi_offset 29, -12
 5430 0024 93C10020 		stw 30,32(1)
 5431 0028 7C7E1B78 		mr 30,3
 5432              		.cfi_offset 30, -8
 5433 002c 9001002C 		stw 0,44(1)
 5434 0030 93E10024 		stw 31,36(1)
 5435              	.LBB2726:
 5436              		.loc 3 969 0
 5437 0034 419E007C 		beq- 7,.L415
 5438              		.cfi_offset 31, -4
 5439              		.cfi_offset 65, 4
 5440              	.L403:
 5441              	.LVL444:
 5442              	.LBB2706:
 5443              	.LBB2707:
 5444              	.LBB2708:
 5445              	.LBB2709:
 5446              	.LBB2710:
 5447              		.loc 6 92 0 discriminator 5
 5448 0038 38600020 		li 3,32
 5449              	.LVL445:
 5450              	.LEHB6:
 5451 003c 48000001 		bl _Znwj
 5452              	.LEHE6:
 5453              	.LVL446:
 5454              	.LBE2710:
 5455              	.LBE2709:
 5456              	.LBE2708:
 5457              	.LBB2713:
 5458              	.LBB2714:
 5459              		.loc 6 108 0 discriminator 5
 5460 0040 2F83FFF0 		cmpwi 7,3,-16
 5461              	.LBE2714:
 5462              	.LBE2713:
 5463              	.LBB2718:
 5464              	.LBB2712:
 5465              	.LBB2711:
 5466              		.loc 6 92 0 discriminator 5
 5467 0044 7C7F1B78 		mr 31,3
 5468              	.LVL447:
 5469              	.LBE2711:
 5470              	.LBE2712:
 5471              	.LBE2718:
 5472              	.LBB2719:
 5473              	.LBB2717:
 5474              		.loc 6 108 0 discriminator 5
 5475 0048 419E0020 		beq- 7,.L407
 5476              	.LVL448:
 5477              	.LBB2715:
 5478              	.LBB2716:
 5479              		.file 11 "d:\\devkitpro\\devkitppc\\bin\\../lib/gcc/powerpc-eabi/4.6.3/../../../../powerpc-eabi/in
 5480              		.loc 11 87 0
 5481 004c 815B0000 		lwz 10,0(27)
 5482 0050 38630018 		addi 3,3,24
 5483              	.LVL449:
 5484 0054 817B0004 		lwz 11,4(27)
 5485 0058 389B0008 		addi 4,27,8
 5486 005c 915F0010 		stw 10,16(31)
 5487 0060 917F0014 		stw 11,20(31)
 5488              	.LEHB7:
 5489 0064 48000001 		bl _ZNSsC1ERKSs
 5490              	.LEHE7:
 5491              	.LVL450:
 5492              	.L407:
 5493              	.LBE2716:
 5494              	.LBE2715:
 5495              	.LBE2717:
 5496              	.LBE2719:
 5497              	.LBE2707:
 5498              	.LBE2706:
 5499              		.loc 3 973 0
 5500 0068 7F83E378 		mr 3,28
 5501 006c 7FE4FB78 		mr 4,31
 5502 0070 7FA5EB78 		mr 5,29
 5503 0074 38DE0004 		addi 6,30,4
 5504 0078 48000001 		bl _ZSt29_Rb_tree_insert_and_rebalancebPSt18_Rb_tree_node_baseS0_RS_
 5505              		.loc 3 976 0
 5506 007c 813E0014 		lwz 9,20(30)
 5507              	.LBE2726:
 5508              		.loc 3 978 0
 5509 0080 7FE3FB78 		mr 3,31
 5510 0084 83610014 		lwz 27,20(1)
 5511              	.LVL451:
 5512              	.LBB2727:
 5513              		.loc 3 976 0
 5514 0088 38090001 		addi 0,9,1
 5515              	.LBE2727:
 5516              		.loc 3 978 0
 5517 008c 83810018 		lwz 28,24(1)
 5518              	.LVL452:
 5519              	.LBB2728:
 5520              		.loc 3 976 0
 5521 0090 901E0014 		stw 0,20(30)
 5522              	.LVL453:
 5523              	.LBE2728:
 5524              		.loc 3 978 0
 5525 0094 8001002C 		lwz 0,44(1)
 5526 0098 83A1001C 		lwz 29,28(1)
 5527              	.LVL454:
 5528 009c 7C0803A6 		mtlr 0
 5529 00a0 83C10020 		lwz 30,32(1)
 5530              	.LVL455:
 5531 00a4 83E10024 		lwz 31,36(1)
 5532              	.LVL456:
 5533 00a8 38210028 		addi 1,1,40
 5534              		.cfi_remember_state
 5535              	.LCFI75:
 5536              		.cfi_def_cfa_offset 0
 5537              		.cfi_restore 31
 5538              		.cfi_restore 30
 5539              		.cfi_restore 29
 5540              		.cfi_restore 28
 5541              		.cfi_restore 27
 5542 00ac 4E800020 		blr
 5543              	.LVL457:
 5544              	.L415:
 5545              	.LCFI76:
 5546              		.cfi_restore_state
 5547              	.LBB2729:
 5548              		.loc 3 969 0
 5549 00b0 38030004 		addi 0,3,4
 5550 00b4 7F850000 		cmpw 7,5,0
 5551 00b8 41BEFF80 		beq- 7,.L403
 5552              	.LVL458:
 5553              		.loc 3 960 0 discriminator 3
 5554 00bc 81250010 		lwz 9,16(5)
 5555 00c0 80060000 		lwz 0,0(6)
 5556 00c4 7F890040 		cmplw 7,9,0
 5557 00c8 419D0010 		bgt- 7,.L404
 5558 00cc 7F890000 		cmpw 7,9,0
 5559 00d0 419E0010 		beq- 7,.L416
 5560              	.L405:
 5561 00d4 3B800000 		li 28,0
 5562              	.L404:
 5563 00d8 579C063E 		rlwinm 28,28,0,0xff
 5564 00dc 4BFFFF5C 		b .L403
 5565              	.L416:
 5566 00e0 81250014 		lwz 9,20(5)
 5567 00e4 80060004 		lwz 0,4(6)
 5568 00e8 7F890040 		cmplw 7,9,0
 5569 00ec 40BDFFE8 		ble- 7,.L405
 5570              		.loc 3 960 0 is_stmt 0
 5571 00f0 579C063E 		rlwinm 28,28,0,0xff
 5572 00f4 4BFFFF44 		b .L403
 5573              	.LVL459:
 5574              	.L412:
 5575              	.LBB2724:
 5576              	.LBB2723:
 5577              		.loc 3 383 0 is_stmt 1
 5578 00f8 48000001 		bl __cxa_begin_catch
 5579              	.LVL460:
 5580              	.LBB2720:
 5581              	.LBB2721:
 5582              	.LBB2722:
 5583              		.loc 6 98 0
 5584 00fc 7FE3FB78 		mr 3,31
 5585 0100 48000001 		bl _ZdlPv
 5586              	.LEHB8:
 5587              	.LBE2722:
 5588              	.LBE2721:
 5589              	.LBE2720:
 5590              		.loc 3 386 0
 5591 0104 48000001 		bl __cxa_rethrow
 5592              	.LEHE8:
 5593              	.L413:
 5594              		.loc 3 383 0
 5595 0108 90610008 		stw 3,8(1)
 5596 010c 48000001 		bl __cxa_end_catch
 5597 0110 80610008 		lwz 3,8(1)
 5598              	.LEHB9:
 5599 0114 48000001 		bl _Unwind_Resume
 5600              	.LEHE9:
 5601              	.LBE2723:
 5602              	.LBE2724:
 5603              	.LBE2729:
 5604              		.cfi_endproc
 5605              	.LFE1307:
 5606              		.section	.gcc_except_table
 5607 002b 00       		.align 2
 5608              	.LLSDA1307:
 5609 002c FF       		.byte	0xff
 5610 002d 00       		.byte	0
 5611 002e 1D       		.uleb128 .LLSDATT1307-.LLSDATTD1307
 5612              	.LLSDATTD1307:
 5613 002f 01       		.byte	0x1
 5614 0030 14       		.uleb128 .LLSDACSE1307-.LLSDACSB1307
 5615              	.LLSDACSB1307:
 5616 0031 3C       		.uleb128 .LEHB6-.LFB1307
 5617 0032 04       		.uleb128 .LEHE6-.LEHB6
 5618 0033 00       		.uleb128 0
 5619 0034 00       		.uleb128 0
 5620 0035 64       		.uleb128 .LEHB7-.LFB1307
 5621 0036 04       		.uleb128 .LEHE7-.LEHB7
 5622 0037 F801     		.uleb128 .L412-.LFB1307
 5623 0039 01       		.uleb128 0x1
 5624 003a 8402     		.uleb128 .LEHB8-.LFB1307
 5625 003c 04       		.uleb128 .LEHE8-.LEHB8
 5626 003d 8802     		.uleb128 .L413-.LFB1307
 5627 003f 00       		.uleb128 0
 5628 0040 9402     		.uleb128 .LEHB9-.LFB1307
 5629 0042 04       		.uleb128 .LEHE9-.LEHB9
 5630 0043 00       		.uleb128 0
 5631 0044 00       		.uleb128 0
 5632              	.LLSDACSE1307:
 5633 0045 01       		.byte	0x1
 5634 0046 00       		.byte	0
 5635 0047 00       		.align 2
 5636 0048 00000000 		.long	0
 5637              	.LLSDATT1307:
 5638              		.section	.text._ZNSt8_Rb_treeIySt4pairIKySsESt10_Select1stIS2_ESt4lessIyESaIS2_EE10_M_insert_EPKSt
 5639              		.size	_ZNSt8_Rb_treeIySt4pairIKySsESt10_Select1stIS2_ESt4lessIyESaIS2_EE10_M_insert_EPKSt18_Rb_tre
 5640              		.section	.text._ZNSt8_Rb_treeIySt4pairIKySsESt10_Select1stIS2_ESt4lessIyESaIS2_EE16_M_insert_uniqu
 5641              		.align 2
 5642              		.weak	_ZNSt8_Rb_treeIySt4pairIKySsESt10_Select1stIS2_ESt4lessIyESaIS2_EE16_M_insert_uniqueERKS2_
 5643              		.type	_ZNSt8_Rb_treeIySt4pairIKySsESt10_Select1stIS2_ESt4lessIyESaIS2_EE16_M_insert_uniqueERKS2_, 
 5644              	_ZNSt8_Rb_treeIySt4pairIKySsESt10_Select1stIS2_ESt4lessIyESaIS2_EE16_M_insert_uniqueERKS2_:
 5645              	.LFB1308:
 5646              		.loc 3 1264 0
 5647              		.cfi_startproc
 5648              	.LVL461:
 5649 0000 7C0802A6 		mflr 0
 5650 0004 9421FFE8 		stwu 1,-24(1)
 5651              	.LCFI77:
 5652              		.cfi_def_cfa_offset 24
 5653              		.cfi_register 65, 0
 5654 0008 93C10010 		stw 30,16(1)
 5655 000c 9001001C 		stw 0,28(1)
 5656 0010 93A1000C 		stw 29,12(1)
 5657 0014 7C7D1B78 		mr 29,3
 5658              		.cfi_offset 29, -12
 5659              		.cfi_offset 65, 4
 5660              		.cfi_offset 30, -8
 5661              	.LBB2730:
 5662              		.loc 1 413 0
 5663 0018 83C30008 		lwz 30,8(3)
 5664              	.LVL462:
 5665              	.LBE2730:
 5666              		.loc 3 1264 0
 5667 001c 93E10014 		stw 31,20(1)
 5668              		.loc 3 1264 0
 5669 0020 7C9F2378 		mr 31,4
 5670              		.cfi_offset 31, -4
 5671              	.LBB2735:
 5672              		.loc 3 1274 0
 5673 0024 2F9E0000 		cmpwi 7,30,0
 5674 0028 419E00AC 		beq- 7,.L433
 5675              		.loc 3 1272 0
 5676 002c 81640000 		lwz 11,0(4)
 5677              		.loc 1 413 0
 5678 0030 39400001 		li 10,1
 5679 0034 801E0010 		lwz 0,16(30)
 5680              		.loc 3 1272 0
 5681 0038 80E40004 		lwz 7,4(4)
 5682              	.LVL463:
 5683              		.loc 3 1278 0
 5684 003c 7F805840 		cmplw 7,0,11
 5685              		.loc 1 413 0
 5686 0040 811E0014 		lwz 8,20(30)
 5687              	.LVL464:
 5688              		.loc 3 1278 0
 5689 0044 7F005800 		cmpw 6,0,11
 5690 0048 419D003C 		bgt- 7,.L431
 5691              	.LVL465:
 5692              	.L435:
 5693 004c 7F883840 		cmplw 7,8,7
 5694 0050 409A0008 		bne- 6,.L420
 5695 0054 419D0030 		bgt- 7,.L431
 5696              	.L420:
 5697              		.loc 1 413 0 discriminator 2
 5698 0058 813E000C 		lwz 9,12(30)
 5699 005c 39400000 		li 10,0
 5700              	.LVL466:
 5701              		.loc 3 1274 0 discriminator 2
 5702 0060 2F890000 		cmpwi 7,9,0
 5703 0064 419E002C 		beq- 7,.L434
 5704              	.LVL467:
 5705              	.L429:
 5706              		.loc 3 1274 0 is_stmt 0
 5707 0068 7D3E4B78 		mr 30,9
 5708              	.LVL468:
 5709              		.loc 1 413 0 is_stmt 1
 5710 006c 39400001 		li 10,1
 5711 0070 801E0010 		lwz 0,16(30)
 5712 0074 811E0014 		lwz 8,20(30)
 5713              		.loc 3 1278 0
 5714 0078 7F805840 		cmplw 7,0,11
 5715 007c 7F005800 		cmpw 6,0,11
 5716 0080 40BDFFCC 		ble- 7,.L435
 5717              	.LVL469:
 5718              	.L431:
 5719              		.loc 1 413 0 discriminator 1
 5720 0084 813E0008 		lwz 9,8(30)
 5721              	.LVL470:
 5722              		.loc 3 1274 0 discriminator 1
 5723 0088 2F890000 		cmpwi 7,9,0
 5724 008c 409EFFDC 		bne+ 7,.L429
 5725              	.LVL471:
 5726              	.L434:
 5727              		.loc 3 1281 0
 5728 0090 2F8A0000 		cmpwi 7,10,0
 5729 0094 7FC3F378 		mr 3,30
 5730              	.LVL472:
 5731 0098 409E0040 		bne- 7,.L419
 5732              	.LVL473:
 5733              		.loc 3 1289 0
 5734 009c 7F8B0040 		cmplw 7,11,0
 5735 00a0 419D0064 		bgt- 7,.L432
 5736              	.LVL474:
 5737              	.L437:
 5738 00a4 7F8B0000 		cmpw 7,11,0
 5739 00a8 419E0098 		beq- 7,.L436
 5740              	.L427:
 5741              	.LVL475:
 5742              		.loc 3 1292 0
 5743 00ac 38000000 		li 0,0
 5744 00b0 38800000 		li 4,0
 5745 00b4 5004C00E 		rlwimi 4,0,24,0,7
 5746              	.LBE2735:
 5747              		.loc 3 1293 0
 5748 00b8 8001001C 		lwz 0,28(1)
 5749 00bc 83A1000C 		lwz 29,12(1)
 5750              	.LVL476:
 5751 00c0 7C0803A6 		mtlr 0
 5752 00c4 83C10010 		lwz 30,16(1)
 5753 00c8 83E10014 		lwz 31,20(1)
 5754              	.LVL477:
 5755 00cc 38210018 		addi 1,1,24
 5756              		.cfi_remember_state
 5757              	.LCFI78:
 5758              		.cfi_def_cfa_offset 0
 5759              		.cfi_restore 31
 5760              		.cfi_restore 30
 5761              		.cfi_restore 29
 5762 00d0 4E800020 		blr
 5763              	.LVL478:
 5764              	.L433:
 5765              	.LCFI79:
 5766              		.cfi_restore_state
 5767              	.LBB2736:
 5768              		.loc 3 1272 0
 5769 00d4 3BC30004 		addi 30,3,4
 5770              	.LVL479:
 5771              	.L419:
 5772              		.loc 3 1283 0
 5773 00d8 801D000C 		lwz 0,12(29)
 5774 00dc 7F9E0000 		cmpw 7,30,0
 5775 00e0 419E0024 		beq- 7,.L432
 5776              	.LVL480:
 5777              	.LBB2731:
 5778              	.LBB2732:
 5779              		.loc 3 203 0
 5780 00e4 7FC3F378 		mr 3,30
 5781 00e8 48000001 		bl _ZSt18_Rb_tree_decrementPSt18_Rb_tree_node_base
 5782              	.LVL481:
 5783 00ec 817F0000 		lwz 11,0(31)
 5784 00f0 80030010 		lwz 0,16(3)
 5785 00f4 80FF0004 		lwz 7,4(31)
 5786              	.LBE2732:
 5787              	.LBE2731:
 5788              		.loc 3 1289 0
 5789 00f8 7F8B0040 		cmplw 7,11,0
 5790              	.LBB2734:
 5791              	.LBB2733:
 5792              		.loc 3 203 0
 5793 00fc 81030014 		lwz 8,20(3)
 5794              	.LVL482:
 5795              	.LBE2733:
 5796              	.LBE2734:
 5797              		.loc 3 1289 0
 5798 0100 409DFFA4 		ble+ 7,.L437
 5799              	.LVL483:
 5800              	.L432:
 5801              		.loc 3 1291 0
 5802 0104 7FA3EB78 		mr 3,29
 5803 0108 38800000 		li 4,0
 5804 010c 7FC5F378 		mr 5,30
 5805 0110 7FE6FB78 		mr 6,31
 5806 0114 48000001 		bl _ZNSt8_Rb_treeIySt4pairIKySsESt10_Select1stIS2_ESt4lessIyESaIS2_EE10_M_insert_EPKSt18_Rb_tree_n
 5807              	.LVL484:
 5808 0118 38000001 		li 0,1
 5809 011c 38800000 		li 4,0
 5810              	.LBE2736:
 5811              		.loc 3 1293 0
 5812 0120 83A1000C 		lwz 29,12(1)
 5813              	.LVL485:
 5814              	.LBB2737:
 5815              		.loc 3 1291 0
 5816 0124 5004C00E 		rlwimi 4,0,24,0,7
 5817              	.LBE2737:
 5818              		.loc 3 1293 0
 5819 0128 8001001C 		lwz 0,28(1)
 5820 012c 83C10010 		lwz 30,16(1)
 5821 0130 7C0803A6 		mtlr 0
 5822 0134 83E10014 		lwz 31,20(1)
 5823              	.LVL486:
 5824 0138 38210018 		addi 1,1,24
 5825              		.cfi_remember_state
 5826              		.cfi_restore 29
 5827              		.cfi_restore 30
 5828              		.cfi_restore 31
 5829              	.LCFI80:
 5830              		.cfi_def_cfa_offset 0
 5831 013c 4E800020 		blr
 5832              	.LVL487:
 5833              	.L436:
 5834              	.LCFI81:
 5835              		.cfi_restore_state
 5836              	.LBB2738:
 5837              		.loc 3 1289 0
 5838 0140 7F874040 		cmplw 7,7,8
 5839 0144 409DFF68 		ble+ 7,.L427
 5840 0148 4BFFFFBC 		b .L432
 5841              	.LBE2738:
 5842              		.cfi_endproc
 5843              	.LFE1308:
 5844              		.size	_ZNSt8_Rb_treeIySt4pairIKySsESt10_Select1stIS2_ESt4lessIyESaIS2_EE16_M_insert_uniqueERKS2_, 
 5845              		.section	.text._ZNSt8_Rb_treeIySt4pairIKySsESt10_Select1stIS2_ESt4lessIyESaIS2_EE17_M_insert_uniqu
 5846              		.align 2
 5847              		.weak	_ZNSt8_Rb_treeIySt4pairIKySsESt10_Select1stIS2_ESt4lessIyESaIS2_EE17_M_insert_unique_ESt23_R
 5848              		.type	_ZNSt8_Rb_treeIySt4pairIKySsESt10_Select1stIS2_ESt4lessIyESaIS2_EE17_M_insert_unique_ESt23_R
 5849              	_ZNSt8_Rb_treeIySt4pairIKySsESt10_Select1stIS2_ESt4lessIyESaIS2_EE17_M_insert_unique_ESt23_Rb_tree_
 5850              	.LFB1268:
 5851              		.loc 3 1325 0
 5852              		.cfi_startproc
 5853              	.LVL488:
 5854 0000 7C0802A6 		mflr 0
 5855 0004 9421FFE0 		stwu 1,-32(1)
 5856              	.LCFI82:
 5857              		.cfi_def_cfa_offset 32
 5858              		.cfi_register 65, 0
 5859 0008 93E1001C 		stw 31,28(1)
 5860 000c 90010024 		stw 0,36(1)
 5861              	.LBB2739:
 5862              		.loc 3 1333 0
 5863 0010 38030004 		addi 0,3,4
 5864              		.cfi_offset 65, 4
 5865              		.cfi_offset 31, -4
 5866              	.LBE2739:
 5867              		.loc 3 1325 0
 5868 0014 93A10014 		stw 29,20(1)
 5869 0018 7CBD2B78 		mr 29,5
 5870              		.cfi_offset 29, -12
 5871 001c 83E40000 		lwz 31,0(4)
 5872              	.LVL489:
 5873 0020 93C10018 		stw 30,24(1)
 5874 0024 7C7E1B78 		mr 30,3
 5875              		.cfi_offset 30, -8
 5876              	.LBB2765:
 5877              		.loc 3 1333 0
 5878 0028 7F9F0000 		cmpw 7,31,0
 5879              	.LBE2765:
 5880              		.loc 3 1325 0
 5881 002c 9361000C 		stw 27,12(1)
 5882 0030 93810010 		stw 28,16(1)
 5883              	.LBB2766:
 5884              		.loc 3 1333 0
 5885 0034 419E0138 		beq- 7,.L462
 5886              		.cfi_offset 28, -16
 5887              		.cfi_offset 27, -20
 5888              	.LVL490:
 5889              		.loc 1 413 0
 5890 0038 83850000 		lwz 28,0(5)
 5891 003c 801F0010 		lwz 0,16(31)
 5892              	.LVL491:
 5893 0040 83650004 		lwz 27,4(5)
 5894              	.LBB2740:
 5895              		.loc 3 1342 0
 5896 0044 7F80E040 		cmplw 7,0,28
 5897              	.LBE2740:
 5898              		.loc 1 413 0
 5899 0048 813F0014 		lwz 9,20(31)
 5900              	.LBB2759:
 5901              		.loc 3 1342 0
 5902 004c 409D006C 		ble- 7,.L463
 5903              	.L456:
 5904              	.LVL492:
 5905              	.LBB2741:
 5906              		.loc 3 1347 0
 5907 0050 801E000C 		lwz 0,12(30)
 5908 0054 7F80F800 		cmpw 7,0,31
 5909 0058 419E0028 		beq- 7,.L448
 5910              	.LVL493:
 5911              	.LBB2742:
 5912              	.LBB2743:
 5913              		.loc 3 284 0
 5914 005c 7FE3FB78 		mr 3,31
 5915              	.LVL494:
 5916 0060 48000001 		bl _ZSt18_Rb_tree_decrementPKSt18_Rb_tree_node_base
 5917              	.LVL495:
 5918              	.LBE2743:
 5919              	.LBE2742:
 5920              		.loc 3 1350 0
 5921 0064 80030010 		lwz 0,16(3)
 5922              	.LBB2745:
 5923              	.LBB2744:
 5924              		.loc 3 284 0
 5925 0068 7C651B78 		mr 5,3
 5926              	.LVL496:
 5927              	.LBE2744:
 5928              	.LBE2745:
 5929              		.loc 3 1350 0
 5930 006c 7F80E040 		cmplw 7,0,28
 5931 0070 409C018C 		bge- 7,.L464
 5932              	.L457:
 5933              		.loc 3 1353 0
 5934 0074 8005000C 		lwz 0,12(5)
 5935 0078 2F800000 		cmpwi 7,0,0
 5936 007c 419E0128 		beq- 7,.L460
 5937              	.LVL497:
 5938              	.L448:
 5939              		.loc 3 1359 0
 5940 0080 7FE4FB78 		mr 4,31
 5941 0084 7FC3F378 		mr 3,30
 5942 0088 7FE5FB78 		mr 5,31
 5943 008c 7FA6EB78 		mr 6,29
 5944 0090 48000001 		bl _ZNSt8_Rb_treeIySt4pairIKySsESt10_Select1stIS2_ESt4lessIyESaIS2_EE10_M_insert_EPKSt18_Rb_tree_n
 5945              	.LVL498:
 5946              	.L442:
 5947              	.LBE2741:
 5948              	.LBE2759:
 5949              	.LBE2766:
 5950              		.loc 3 1388 0
 5951 0094 80010024 		lwz 0,36(1)
 5952 0098 8361000C 		lwz 27,12(1)
 5953 009c 7C0803A6 		mtlr 0
 5954 00a0 83810010 		lwz 28,16(1)
 5955 00a4 83A10014 		lwz 29,20(1)
 5956              	.LVL499:
 5957 00a8 83C10018 		lwz 30,24(1)
 5958              	.LVL500:
 5959 00ac 83E1001C 		lwz 31,28(1)
 5960              	.LVL501:
 5961 00b0 38210020 		addi 1,1,32
 5962              		.cfi_remember_state
 5963              	.LCFI83:
 5964              		.cfi_def_cfa_offset 0
 5965              		.cfi_restore 31
 5966              		.cfi_restore 30
 5967              		.cfi_restore 29
 5968              		.cfi_restore 28
 5969              		.cfi_restore 27
 5970 00b4 4E800020 		blr
 5971              	.LVL502:
 5972              	.L463:
 5973              	.LCFI84:
 5974              		.cfi_restore_state
 5975              	.LBB2767:
 5976              	.LBB2760:
 5977              		.loc 3 1342 0
 5978 00b8 7F80E000 		cmpw 7,0,28
 5979 00bc 409E000C 		bne- 7,.L443
 5980 00c0 7F89D840 		cmplw 7,9,27
 5981 00c4 41BDFF8C 		bgt- 7,.L456
 5982              	.L443:
 5983              	.LVL503:
 5984              	.LBB2746:
 5985              		.loc 3 1364 0
 5986 00c8 7F9C0040 		cmplw 7,28,0
 5987 00cc 419D003C 		bgt- 7,.L458
 5988 00d0 7F9C0000 		cmpw 7,28,0
 5989 00d4 419E002C 		beq- 7,.L465
 5990              	.L449:
 5991              	.LVL504:
 5992              	.LBE2746:
 5993              	.LBE2760:
 5994              	.LBE2767:
 5995              		.loc 3 1388 0
 5996 00d8 80010024 		lwz 0,36(1)
 5997              	.LBB2768:
 5998              	.LBB2761:
 5999              	.LBB2753:
 6000              	.LBB2747:
 6001              		.loc 3 1383 0
 6002 00dc 7FE3FB78 		mr 3,31
 6003              	.LVL505:
 6004              	.LBE2747:
 6005              	.LBE2753:
 6006              	.LBE2761:
 6007              	.LBE2768:
 6008              		.loc 3 1388 0
 6009 00e0 8361000C 		lwz 27,12(1)
 6010 00e4 7C0803A6 		mtlr 0
 6011 00e8 83810010 		lwz 28,16(1)
 6012 00ec 83A10014 		lwz 29,20(1)
 6013 00f0 83C10018 		lwz 30,24(1)
 6014              	.LVL506:
 6015 00f4 83E1001C 		lwz 31,28(1)
 6016              	.LVL507:
 6017 00f8 38210020 		addi 1,1,32
 6018              		.cfi_remember_state
 6019              		.cfi_restore 27
 6020              		.cfi_restore 28
 6021              		.cfi_restore 29
 6022              		.cfi_restore 30
 6023              		.cfi_restore 31
 6024              	.LCFI85:
 6025              		.cfi_def_cfa_offset 0
 6026 00fc 4E800020 		blr
 6027              	.LVL508:
 6028              	.L465:
 6029              	.LCFI86:
 6030              		.cfi_restore_state
 6031              	.LBB2769:
 6032              	.LBB2762:
 6033              	.LBB2754:
 6034              		.loc 3 1364 0
 6035 0100 7F9B4840 		cmplw 7,27,9
 6036 0104 40BDFFD4 		ble- 7,.L449
 6037              	.L458:
 6038              	.LVL509:
 6039              	.LBB2750:
 6040              		.loc 3 1369 0
 6041 0108 801E0010 		lwz 0,16(30)
 6042 010c 7F80F800 		cmpw 7,0,31
 6043 0110 419E0104 		beq- 7,.L461
 6044              	.LVL510:
 6045              	.LBB2748:
 6046              	.LBB2749:
 6047              		.loc 3 269 0
 6048 0114 7FE3FB78 		mr 3,31
 6049              	.LVL511:
 6050 0118 48000001 		bl _ZSt18_Rb_tree_incrementPKSt18_Rb_tree_node_base
 6051              	.LVL512:
 6052              	.LBE2749:
 6053              	.LBE2748:
 6054              		.loc 3 1372 0
 6055 011c 80030010 		lwz 0,16(3)
 6056 0120 7F80E040 		cmplw 7,0,28
 6057 0124 409D0094 		ble- 7,.L466
 6058              	.L459:
 6059              		.loc 3 1375 0
 6060 0128 801F000C 		lwz 0,12(31)
 6061 012c 2F800000 		cmpwi 7,0,0
 6062 0130 419E00E4 		beq- 7,.L461
 6063              		.loc 3 1380 0
 6064 0134 7C641B78 		mr 4,3
 6065 0138 7FA6EB78 		mr 6,29
 6066 013c 7FC3F378 		mr 3,30
 6067              	.LVL513:
 6068 0140 7C852378 		mr 5,4
 6069 0144 48000001 		bl _ZNSt8_Rb_treeIySt4pairIKySsESt10_Select1stIS2_ESt4lessIyESaIS2_EE10_M_insert_EPKSt18_Rb_tree_n
 6070              	.LVL514:
 6071              	.LBE2750:
 6072              	.LBE2754:
 6073              	.LBE2762:
 6074              	.LBE2769:
 6075              		.loc 3 1388 0
 6076 0148 80010024 		lwz 0,36(1)
 6077 014c 8361000C 		lwz 27,12(1)
 6078 0150 7C0803A6 		mtlr 0
 6079 0154 83810010 		lwz 28,16(1)
 6080 0158 83A10014 		lwz 29,20(1)
 6081              	.LVL515:
 6082 015c 83C10018 		lwz 30,24(1)
 6083              	.LVL516:
 6084 0160 83E1001C 		lwz 31,28(1)
 6085              	.LVL517:
 6086 0164 38210020 		addi 1,1,32
 6087              		.cfi_remember_state
 6088              		.cfi_restore 27
 6089              		.cfi_restore 28
 6090              		.cfi_restore 29
 6091              		.cfi_restore 30
 6092              		.cfi_restore 31
 6093              	.LCFI87:
 6094              		.cfi_def_cfa_offset 0
 6095 0168 4E800020 		blr
 6096              	.LVL518:
 6097              	.L462:
 6098              	.LCFI88:
 6099              		.cfi_restore_state
 6100              	.LBB2770:
 6101              		.loc 3 1335 0
 6102 016c 80030014 		lwz 0,20(3)
 6103 0170 2F800000 		cmpwi 7,0,0
 6104 0174 419E0058 		beq- 7,.L440
 6105              	.LVL519:
 6106              		.loc 3 1335 0 is_stmt 0 discriminator 1
 6107 0178 80A30010 		lwz 5,16(3)
 6108              	.LVL520:
 6109 017c 813D0000 		lwz 9,0(29)
 6110 0180 80050010 		lwz 0,16(5)
 6111 0184 7F890040 		cmplw 7,9,0
 6112 0188 419D001C 		bgt- 7,.L460
 6113 018c 7F890000 		cmpw 7,9,0
 6114 0190 409E003C 		bne- 7,.L440
 6115 0194 813D0004 		lwz 9,4(29)
 6116 0198 80050014 		lwz 0,20(5)
 6117 019c 7F890040 		cmplw 7,9,0
 6118 01a0 409D002C 		ble- 7,.L440
 6119              	.LVL521:
 6120              	.L460:
 6121              	.LBB2763:
 6122              	.LBB2755:
 6123              		.loc 3 1355 0 is_stmt 1
 6124 01a4 7FC3F378 		mr 3,30
 6125 01a8 38800000 		li 4,0
 6126 01ac 7FA6EB78 		mr 6,29
 6127 01b0 48000001 		bl _ZNSt8_Rb_treeIySt4pairIKySsESt10_Select1stIS2_ESt4lessIyESaIS2_EE10_M_insert_EPKSt18_Rb_tree_n
 6128              	.LVL522:
 6129 01b4 4BFFFEE0 		b .L442
 6130              	.LVL523:
 6131              	.L466:
 6132              	.LBE2755:
 6133              	.LBB2756:
 6134              	.LBB2751:
 6135              		.loc 3 1372 0
 6136 01b8 7F80E000 		cmpw 7,0,28
 6137 01bc 409E0010 		bne- 7,.L440
 6138 01c0 80030014 		lwz 0,20(3)
 6139 01c4 7F80D840 		cmplw 7,0,27
 6140 01c8 419DFF60 		bgt+ 7,.L459
 6141              	.LVL524:
 6142              	.L440:
 6143              	.LBE2751:
 6144              	.LBE2756:
 6145              	.LBE2763:
 6146              		.loc 3 1340 0
 6147 01cc 7FC3F378 		mr 3,30
 6148 01d0 7FA4EB78 		mr 4,29
 6149 01d4 48000001 		bl _ZNSt8_Rb_treeIySt4pairIKySsESt10_Select1stIS2_ESt4lessIyESaIS2_EE16_M_insert_uniqueERKS2_
 6150              	.LBE2770:
 6151              		.loc 3 1388 0
 6152 01d8 80010024 		lwz 0,36(1)
 6153 01dc 8361000C 		lwz 27,12(1)
 6154 01e0 7C0803A6 		mtlr 0
 6155 01e4 83810010 		lwz 28,16(1)
 6156 01e8 83A10014 		lwz 29,20(1)
 6157              	.LVL525:
 6158 01ec 83C10018 		lwz 30,24(1)
 6159              	.LVL526:
 6160 01f0 83E1001C 		lwz 31,28(1)
 6161              	.LVL527:
 6162 01f4 38210020 		addi 1,1,32
 6163              		.cfi_remember_state
 6164              		.cfi_restore 27
 6165              		.cfi_restore 28
 6166              		.cfi_restore 29
 6167              		.cfi_restore 30
 6168              		.cfi_restore 31
 6169              	.LCFI89:
 6170              		.cfi_def_cfa_offset 0
 6171 01f8 4E800020 		blr
 6172              	.LVL528:
 6173              	.L464:
 6174              	.LCFI90:
 6175              		.cfi_restore_state
 6176              	.LBB2771:
 6177              	.LBB2764:
 6178              	.LBB2757:
 6179              		.loc 3 1350 0
 6180 01fc 7F80E000 		cmpw 7,0,28
 6181 0200 40BEFFCC 		bne- 7,.L440
 6182 0204 80030014 		lwz 0,20(3)
 6183 0208 7F80D840 		cmplw 7,0,27
 6184 020c 419CFE68 		blt+ 7,.L457
 6185 0210 4BFFFFBC 		b .L440
 6186              	.LVL529:
 6187              	.L461:
 6188              	.LBE2757:
 6189              	.LBB2758:
 6190              	.LBB2752:
 6191              		.loc 3 1377 0
 6192 0214 7FC3F378 		mr 3,30
 6193 0218 38800000 		li 4,0
 6194 021c 7FE5FB78 		mr 5,31
 6195 0220 7FA6EB78 		mr 6,29
 6196 0224 48000001 		bl _ZNSt8_Rb_treeIySt4pairIKySsESt10_Select1stIS2_ESt4lessIyESaIS2_EE10_M_insert_EPKSt18_Rb_tree_n
 6197 0228 4BFFFE6C 		b .L442
 6198              	.LBE2752:
 6199              	.LBE2758:
 6200              	.LBE2764:
 6201              	.LBE2771:
 6202              		.cfi_endproc
 6203              	.LFE1268:
 6204              		.size	_ZNSt8_Rb_treeIySt4pairIKySsESt10_Select1stIS2_ESt4lessIyESaIS2_EE17_M_insert_unique_ESt23_R
 6205              		.section	".text"
 6206              		.align 2
 6207              		.globl _ZN9NandTitle3GetEv
 6208              		.type	_ZN9NandTitle3GetEv, @function
 6209              	_ZN9NandTitle3GetEv:
 6210              	.LFB1071:
 6211              		.loc 1 26 0
 6212              		.cfi_startproc
 6213              		.cfi_personality 0,__gxx_personality_v0
 6214              		.cfi_lsda 0,.LLSDA1071
 6215              	.LVL530:
 6216 1204 7C0802A6 		mflr 0
 6217 1208 9421FF00 		stwu 1,-256(1)
 6218              	.LCFI91:
 6219              		.cfi_def_cfa_offset 256
 6220              		.cfi_register 65, 0
 6221 120c 938100F0 		stw 28,240(1)
 6222              	.LBB2929:
 6223              		.loc 1 29 0
 6224 1210 3B800000 		li 28,0
 6225              		.cfi_offset 28, -16
 6226              	.LBE2929:
 6227              		.loc 1 26 0
 6228 1214 90010104 		stw 0,260(1)
 6229 1218 93C100F8 		stw 30,248(1)
 6230              	.LBB3133:
 6231              		.loc 1 29 0
 6232 121c 7C3E0B78 		mr 30,1
 6233              		.cfi_offset 30, -8
 6234              		.cfi_offset 65, 4
 6235              	.LBB2930:
 6236              	.LBB2931:
 6237              	.LBB2932:
 6238              	.LBB2933:
 6239              		.loc 2 1256 0
 6240 1220 80030000 		lwz 0,0(3)
 6241              	.LBE2933:
 6242              	.LBE2932:
 6243              	.LBE2931:
 6244              	.LBE2930:
 6245              	.LBE3133:
 6246              		.loc 1 26 0
 6247 1224 934100E8 		stw 26,232(1)
 6248              	.LBB3134:
 6249              	.LBB2937:
 6250              	.LBB2938:
 6251              		.loc 7 709 0
 6252 1228 3B43000C 		addi 26,3,12
 6253              		.cfi_offset 26, -24
 6254              	.LBE2938:
 6255              	.LBE2937:
 6256              	.LBE3134:
 6257              		.loc 1 26 0
 6258 122c 93A100F4 		stw 29,244(1)
 6259 1230 93E100FC 		stw 31,252(1)
 6260 1234 7C7F1B78 		mr 31,3
 6261              		.cfi_offset 31, -4
 6262              		.cfi_offset 29, -12
 6263 1238 932100E4 		stw 25,228(1)
 6264              	.LBB3135:
 6265              	.LBB2953:
 6266              	.LBB2948:
 6267              	.LBB2939:
 6268              		.loc 3 810 0
 6269 123c 3BBF0010 		addi 29,31,16
 6270              	.LBE2939:
 6271              	.LBE2948:
 6272              	.LBE2953:
 6273              	.LBE3135:
 6274              		.loc 1 26 0
 6275 1240 936100EC 		stw 27,236(1)
 6276              	.LBB3136:
 6277              	.LBB2954:
 6278              	.LBB2949:
 6279              	.LBB2944:
 6280              	.LBB2940:
 6281              		.loc 3 809 0
 6282 1244 80830014 		lwz 4,20(3)
 6283              	.LBE2940:
 6284              	.LBE2944:
 6285              	.LBE2949:
 6286              	.LBE2954:
 6287              	.LBB2955:
 6288              	.LBB2936:
 6289              	.LBB2935:
 6290              	.LBB2934:
 6291              		.loc 2 1256 0
 6292 1248 90030004 		stw 0,4(3)
 6293              	.LBE2934:
 6294              	.LBE2935:
 6295              	.LBE2936:
 6296              	.LBE2955:
 6297              	.LBB2956:
 6298              	.LBB2950:
 6299              	.LBB2945:
 6300              	.LBB2941:
 6301              		.loc 3 809 0
 6302 124c 7F43D378 		mr 3,26
 6303              	.LVL531:
 6304              	.LBE2941:
 6305              	.LBE2945:
 6306              	.LBE2950:
 6307              	.LBE2956:
 6308              		.loc 1 29 0
 6309 1250 979E0018 		stwu 28,24(30)
 6310              	.LVL532:
 6311              	.LBB2957:
 6312              	.LBB2951:
 6313              	.LBB2946:
 6314              	.LBB2942:
 6315              		.loc 3 809 0
 6316              		.cfi_offset 27, -20
 6317              		.cfi_offset 25, -28
 6318 1254 48000001 		bl _ZNSt8_Rb_treeIySt4pairIKySsESt10_Select1stIS2_ESt4lessIyESaIS2_EE8_M_eraseEPSt13_Rb_tree_nodeI
 6319              	.LVL533:
 6320              		.loc 3 810 0
 6321 1258 93BF0018 		stw 29,24(31)
 6322              	.LVL534:
 6323              		.loc 3 811 0
 6324 125c 939F0014 		stw 28,20(31)
 6325              	.LVL535:
 6326              	.LBE2942:
 6327              	.LBE2946:
 6328              	.LBE2951:
 6329              	.LBE2957:
 6330              		.loc 1 34 0
 6331 1260 7FC3F378 		mr 3,30
 6332              	.LBB2958:
 6333              	.LBB2952:
 6334              	.LBB2947:
 6335              	.LBB2943:
 6336              		.loc 3 812 0
 6337 1264 93BF001C 		stw 29,28(31)
 6338              		.loc 3 813 0
 6339 1268 939F0020 		stw 28,32(31)
 6340              	.LEHB10:
 6341              	.LBE2943:
 6342              	.LBE2947:
 6343              	.LBE2952:
 6344              	.LBE2958:
 6345              		.loc 1 34 0
 6346 126c 48000001 		bl ES_GetNumTitles
 6347              	.LVL536:
 6348              		.loc 1 35 0
 6349 1270 2F830000 		cmpwi 7,3,0
 6350 1274 419C02C0 		blt- 7,.L519
 6351              		.loc 1 37 0
 6352 1278 80810018 		lwz 4,24(1)
 6353 127c 38600020 		li 3,32
 6354              	.LVL537:
 6355 1280 54841838 		slwi 4,4,3
 6356 1284 48000001 		bl memalign
 6357              	.LVL538:
 6358              		.loc 1 38 0
 6359 1288 7C7B1B79 		mr. 27,3
 6360 128c 418202B4 		beq- 0,.L520
 6361              		.loc 1 43 0
 6362 1290 80810018 		lwz 4,24(1)
 6363 1294 48000001 		bl ES_GetTitles
 6364              	.LVL539:
 6365              		.loc 1 44 0
 6366 1298 2F830000 		cmpwi 7,3,0
 6367 129c 419C02AC 		blt- 7,.L469
 6368              	.LVL540:
 6369              	.LBB2959:
 6370              		.loc 1 50 0 discriminator 1
 6371 12a0 81010018 		lwz 8,24(1)
 6372              	.LBE2959:
 6373              		.loc 1 47 0 discriminator 1
 6374 12a4 7F7CDB78 		mr 28,27
 6375              	.LBB2966:
 6376              		.loc 1 50 0 discriminator 1
 6377 12a8 3BC00000 		li 30,0
 6378 12ac 2F880000 		cmpwi 7,8,0
 6379 12b0 419E0044 		beq- 7,.L471
 6380              	.LVL541:
 6381              	.L528:
 6382              	.LBB2960:
 6383              	.LBB2961:
 6384              		.loc 2 828 0 discriminator 2
 6385 12b4 813F0004 		lwz 9,4(31)
 6386 12b8 801F0008 		lwz 0,8(31)
 6387 12bc 7F890000 		cmpw 7,9,0
 6388 12c0 419E0258 		beq- 7,.L472
 6389              	.LVL542:
 6390              	.LBB2962:
 6391              	.LBB2963:
 6392              		.loc 6 108 0
 6393 12c4 2F890000 		cmpwi 7,9,0
 6394 12c8 419E0014 		beq- 7,.L473
 6395 12cc 815C0000 		lwz 10,0(28)
 6396 12d0 817C0004 		lwz 11,4(28)
 6397 12d4 91490000 		stw 10,0(9)
 6398 12d8 91690004 		stw 11,4(9)
 6399              	.L473:
 6400              	.LBE2963:
 6401              	.LBE2962:
 6402              		.loc 2 831 0
 6403 12dc 39290008 		addi 9,9,8
 6404 12e0 913F0004 		stw 9,4(31)
 6405              	.LVL543:
 6406              	.L474:
 6407              	.LBE2961:
 6408              	.LBE2960:
 6409              		.loc 1 50 0 discriminator 2
 6410 12e4 3BDE0001 		addi 30,30,1
 6411              	.LVL544:
 6412 12e8 3B9C0008 		addi 28,28,8
 6413              	.LVL545:
 6414 12ec 7F88F040 		cmplw 7,8,30
 6415 12f0 419DFFC4 		bgt+ 7,.L528
 6416              	.LVL546:
 6417              	.L471:
 6418              	.LBE2966:
 6419              		.loc 1 55 0
 6420 12f4 7F63DB78 		mr 3,27
 6421 12f8 48000001 		bl free
 6422              		.loc 1 57 0
 6423 12fc 48000001 		bl CONF_GetLanguage
 6424              		.loc 1 413 0
 6425 1300 801F0000 		lwz 0,0(31)
 6426              	.LBB2967:
 6427              	.LBB2968:
 6428              	.LBB2969:
 6429              		.loc 2 571 0
 6430 1304 813F0004 		lwz 9,4(31)
 6431              	.LBE2969:
 6432              	.LBE2968:
 6433              	.LBE2967:
 6434              		.loc 1 57 0
 6435 1308 7C7B1B78 		mr 27,3
 6436              	.LVL547:
 6437              	.LBB3130:
 6438              	.LBB2972:
 6439              	.LBB2970:
 6440              		.loc 2 571 0
 6441 130c 7D204850 		subf 9,0,9
 6442              	.LBE2970:
 6443              	.LBE2972:
 6444              		.loc 1 61 0
 6445 1310 552BE8FF 		srwi. 11,9,3
 6446 1314 418201D4 		beq- 0,.L521
 6447 1318 3BC00000 		li 30,0
 6448 131c 48000020 		b .L516
 6449              	.LVL548:
 6450              	.L515:
 6451              		.loc 1 413 0
 6452 1320 801F0000 		lwz 0,0(31)
 6453              		.loc 1 61 0
 6454 1324 3BDE0001 		addi 30,30,1
 6455              	.LVL549:
 6456              	.LBB2973:
 6457              	.LBB2971:
 6458              		.loc 2 571 0
 6459 1328 813F0004 		lwz 9,4(31)
 6460 132c 7D204850 		subf 9,0,9
 6461 1330 7D291E70 		srawi 9,9,3
 6462              	.LBE2971:
 6463              	.LBE2973:
 6464              		.loc 1 61 0
 6465 1334 7F9E4840 		cmplw 7,30,9
 6466 1338 409C01B0 		bge- 7,.L521
 6467              	.LVL550:
 6468              	.L516:
 6469              		.loc 1 25 0
 6470 133c 57DC1838 		slwi 28,30,3
 6471              	.LBB2974:
 6472              		.loc 1 63 0
 6473 1340 7FE3FB78 		mr 3,31
 6474 1344 7D20E214 		add 9,0,28
 6475 1348 7F67DB78 		mr 7,27
 6476 134c 80A90000 		lwz 5,0(9)
 6477 1350 39010030 		addi 8,1,48
 6478 1354 80C90004 		lwz 6,4(9)
 6479 1358 48000001 		bl _ZN9NandTitle7GetNameEyiPw
 6480              	.LVL551:
 6481              	.LBB2975:
 6482              		.loc 1 64 0
 6483 135c 2F830000 		cmpwi 7,3,0
 6484 1360 419EFFC0 		beq+ 7,.L515
 6485              	.LBB2976:
 6486              		.loc 1 66 0
 6487 1364 38610014 		addi 3,1,20
 6488              	.LVL552:
 6489 1368 38810030 		addi 4,1,48
 6490 136c 48000001 		bl _ZN7wStringC1EPKw
 6491              	.LEHE10:
 6492              	.LVL553:
 6493              	.LBB2977:
 6494              	.LBB2978:
 6495              		.loc 1 413 0
 6496 1370 817F0000 		lwz 11,0(31)
 6497              	.LBB2979:
 6498              	.LBB2980:
 6499              	.LBB2981:
 6500              		.loc 2 571 0
 6501 1374 801F0004 		lwz 0,4(31)
 6502 1378 7C0B0050 		subf 0,11,0
 6503 137c 7C001E70 		srawi 0,0,3
 6504              	.LBE2981:
 6505              	.LBE2980:
 6506              		.loc 2 718 0
 6507 1380 7F9E0040 		cmplw 7,30,0
 6508 1384 409C01F4 		bge- 7,.L533
 6509              	.LBE2979:
 6510              	.LBE2978:
 6511              	.LBE2977:
 6512              	.LBB2986:
 6513              	.LBB2987:
 6514              	.LBB2988:
 6515              	.LBB2989:
 6516              		.loc 1 413 0
 6517 1388 813F0014 		lwz 9,20(31)
 6518              	.LBE2989:
 6519              	.LBE2988:
 6520              	.LBE2987:
 6521              	.LBE2986:
 6522              	.LBB3077:
 6523              	.LBB2983:
 6524              	.LBB2984:
 6525              		.loc 2 696 0
 6526 138c 7D0BE214 		add 8,11,28
 6527              	.LVL554:
 6528              	.LBE2984:
 6529              	.LBE2983:
 6530              	.LBE3077:
 6531              	.LBB3078:
 6532              	.LBB3071:
 6533              	.LBB2998:
 6534              	.LBB2996:
 6535              	.LBB2990:
 6536              	.LBB2991:
 6537              		.loc 3 1089 0
 6538 1390 2F890000 		cmpwi 7,9,0
 6539 1394 419E014C 		beq- 7,.L522
 6540 1398 7D6BE02E 		lwzx 11,11,28
 6541              		.loc 3 810 0
 6542 139c 7FBCEB78 		mr 28,29
 6543              		.loc 3 1089 0
 6544 13a0 81480004 		lwz 10,4(8)
 6545 13a4 48000028 		b .L482
 6546              	.LVL555:
 6547              	.L535:
 6548              		.loc 3 1090 0
 6549 13a8 7F805800 		cmpw 7,0,11
 6550 13ac 409E0010 		bne- 7,.L527
 6551 13b0 80090014 		lwz 0,20(9)
 6552 13b4 7F805040 		cmplw 7,0,10
 6553 13b8 419C0020 		blt- 7,.L479
 6554              	.L527:
 6555              	.LVL556:
 6556              	.LBE2991:
 6557              		.loc 1 413 0
 6558 13bc 7D3C4B78 		mr 28,9
 6559              		.loc 3 1091 0
 6560 13c0 81290008 		lwz 9,8(9)
 6561              	.LVL557:
 6562              	.LBB2992:
 6563              		.loc 3 1089 0
 6564 13c4 2F890000 		cmpwi 7,9,0
 6565 13c8 419E001C 		beq- 7,.L534
 6566              	.LVL558:
 6567              	.L482:
 6568              		.loc 3 1090 0
 6569 13cc 80090010 		lwz 0,16(9)
 6570 13d0 7F805840 		cmplw 7,0,11
 6571 13d4 40BCFFD4 		bge- 7,.L535
 6572              	.L479:
 6573              	.LBE2992:
 6574              		.loc 1 413 0
 6575 13d8 8129000C 		lwz 9,12(9)
 6576              	.LVL559:
 6577              	.LBB2993:
 6578              		.loc 3 1089 0
 6579 13dc 2F890000 		cmpwi 7,9,0
 6580 13e0 409EFFEC 		bne+ 7,.L482
 6581              	.L534:
 6582              	.LVL560:
 6583              	.LBE2993:
 6584              	.LBE2990:
 6585              	.LBE2996:
 6586              	.LBE2998:
 6587              		.loc 7 452 0
 6588 13e4 7F9DE000 		cmpw 7,29,28
 6589 13e8 419E0010 		beq- 7,.L478
 6590              	.LVL561:
 6591 13ec 801C0010 		lwz 0,16(28)
 6592 13f0 7F805840 		cmplw 7,0,11
 6593 13f4 409D00D4 		ble- 7,.L536
 6594              	.LVL562:
 6595              	.L478:
 6596              	.LBE3071:
 6597              		.loc 1 413 0
 6598 13f8 81480000 		lwz 10,0(8)
 6599              	.LBB3072:
 6600              	.LBB2999:
 6601              	.LBB3000:
 6602              	.LBB3001:
 6603              		.loc 4 270 0
 6604 13fc 3D200000 		lis 9,_ZNSs4_Rep20_S_empty_rep_storageE+12@ha
 6605              	.LVL563:
 6606              	.LBE3001:
 6607              	.LBE3000:
 6608              	.LBE2999:
 6609              	.LBE3072:
 6610              		.loc 1 413 0
 6611 1400 81680004 		lwz 11,4(8)
 6612              	.LVL564:
 6613              	.LBB3073:
 6614              	.LBB3006:
 6615              	.LBB3004:
 6616              	.LBB3002:
 6617              		.loc 4 270 0
 6618 1404 3809000C 		la 0,_ZNSs4_Rep20_S_empty_rep_storageE+12@l(9)
 6619              	.LBE3002:
 6620              	.LBE3004:
 6621              	.LBE3006:
 6622              	.LBB3007:
 6623              	.LBB3008:
 6624              		.loc 11 104 0
 6625 1408 38610028 		addi 3,1,40
 6626 140c 3881000C 		addi 4,1,12
 6627              	.LBE3008:
 6628              	.LBE3007:
 6629              	.LBB3010:
 6630              	.LBB3005:
 6631              	.LBB3003:
 6632              		.loc 4 270 0
 6633 1410 9001000C 		stw 0,12(1)
 6634              	.LBE3003:
 6635              	.LBE3005:
 6636              	.LBE3010:
 6637              	.LBB3011:
 6638              	.LBB3009:
 6639              		.loc 11 104 0
 6640 1414 91410020 		stw 10,32(1)
 6641 1418 91610024 		stw 11,36(1)
 6642              	.LEHB11:
 6643 141c 48000001 		bl _ZNSsC1ERKSs
 6644              	.LEHE11:
 6645              	.LVL565:
 6646              	.LBE3009:
 6647              	.LBE3011:
 6648              	.LBB3012:
 6649              	.LBB3013:
 6650              		.loc 7 571 0
 6651 1420 7C240B78 		mr 4,1
 6652 1424 7F43D378 		mr 3,26
 6653 1428 978400DC 		stwu 28,220(4)
 6654 142c 38A10020 		addi 5,1,32
 6655              	.LEHB12:
 6656 1430 48000001 		bl _ZNSt8_Rb_treeIySt4pairIKySsESt10_Select1stIS2_ESt4lessIyESaIS2_EE17_M_insert_unique_ESt23_Rb_t
 6657              	.LEHE12:
 6658              	.LBE3013:
 6659              	.LBE3012:
 6660              	.LBB3015:
 6661              	.LBB3016:
 6662              	.LBB3017:
 6663              	.LBB3018:
 6664              	.LBB3019:
 6665              	.LBB3020:
 6666              	.LBB3021:
 6667              	.LBB3022:
 6668              		.loc 4 288 0
 6669 1434 81210028 		lwz 9,40(1)
 6670              	.LBE3022:
 6671              	.LBE3021:
 6672              	.LBE3020:
 6673              	.LBB3023:
 6674              	.LBB3024:
 6675              		.loc 4 235 0
 6676 1438 3F200000 		lis 25,_ZNSs4_Rep20_S_empty_rep_storageE@ha
 6677              	.LBE3024:
 6678              	.LBE3023:
 6679              	.LBE3019:
 6680              	.LBE3018:
 6681              	.LBE3017:
 6682              	.LBE3016:
 6683              	.LBE3015:
 6684              	.LBB3045:
 6685              	.LBB3014:
 6686              		.loc 7 571 0
 6687 143c 7C7C1B78 		mr 28,3
 6688              	.LVL566:
 6689              	.LBE3014:
 6690              	.LBE3045:
 6691              	.LBB3046:
 6692              	.LBB3043:
 6693              	.LBB3041:
 6694              	.LBB3039:
 6695              	.LBB3037:
 6696              	.LBB3034:
 6697              	.LBB3031:
 6698              		.loc 4 235 0
 6699 1440 3B390000 		la 25,_ZNSs4_Rep20_S_empty_rep_storageE@l(25)
 6700              	.LBE3031:
 6701              	.LBE3034:
 6702              		.loc 4 534 0
 6703 1444 3869FFF4 		addi 3,9,-12
 6704              	.LVL567:
 6705              	.LBB3035:
 6706              	.LBB3032:
 6707              		.loc 4 235 0
 6708 1448 7F83C800 		cmpw 7,3,25
 6709 144c 409E01A0 		bne- 7,.L537
 6710              	.LVL568:
 6711              	.L493:
 6712              	.LBE3032:
 6713              	.LBE3035:
 6714              	.LBE3037:
 6715              	.LBE3039:
 6716              	.LBE3041:
 6717              	.LBE3043:
 6718              	.LBE3046:
 6719              	.LBB3047:
 6720              	.LBB3048:
 6721              	.LBB3049:
 6722              	.LBB3050:
 6723              	.LBB3051:
 6724              	.LBB3052:
 6725              		.loc 4 288 0
 6726 1450 8121000C 		lwz 9,12(1)
 6727              	.LBE3052:
 6728              	.LBE3051:
 6729              	.LBE3050:
 6730              		.loc 4 534 0
 6731 1454 3869FFF4 		addi 3,9,-12
 6732              	.LVL569:
 6733              	.LBB3053:
 6734              	.LBB3054:
 6735              		.loc 4 235 0
 6736 1458 7F83C800 		cmpw 7,3,25
 6737 145c 409E0170 		bne- 7,.L538
 6738              	.LVL570:
 6739              	.L498:
 6740              	.LBE3054:
 6741              	.LBE3053:
 6742              	.LBE3049:
 6743              	.LBE3048:
 6744              	.LBE3047:
 6745              	.LBE3073:
 6746              	.LBE3078:
 6747              		.loc 1 67 0
 6748 1460 38610010 		addi 3,1,16
 6749 1464 38810014 		addi 4,1,20
 6750              	.LEHB13:
 6751 1468 48000001 		bl _ZNK7wString6toUTF8Ev
 6752              	.LEHE13:
 6753              	.LVL571:
 6754              	.LBB3079:
 6755              	.LBB3080:
 6756              		.loc 4 542 0
 6757 146c 387C0018 		addi 3,28,24
 6758 1470 38810010 		addi 4,1,16
 6759              	.LVL572:
 6760              	.LEHB14:
 6761 1474 48000001 		bl _ZNSs6assignERKSs
 6762              	.LEHE14:
 6763              	.LVL573:
 6764              	.LBE3080:
 6765              	.LBE3079:
 6766              	.LBB3081:
 6767              	.LBB3082:
 6768              	.LBB3083:
 6769              	.LBB3084:
 6770              	.LBB3085:
 6771              	.LBB3086:
 6772              		.loc 4 288 0
 6773 1478 81210010 		lwz 9,16(1)
 6774              	.LBE3086:
 6775              	.LBE3085:
 6776              	.LBE3084:
 6777              	.LBB3087:
 6778              	.LBB3088:
 6779              		.loc 4 235 0
 6780 147c 3D600000 		lis 11,_ZNSs4_Rep20_S_empty_rep_storageE@ha
 6781 1480 380B0000 		la 0,_ZNSs4_Rep20_S_empty_rep_storageE@l(11)
 6782              	.LBE3088:
 6783              	.LBE3087:
 6784              		.loc 4 534 0
 6785 1484 3869FFF4 		addi 3,9,-12
 6786              	.LVL574:
 6787              	.LBB3097:
 6788              	.LBB3095:
 6789              		.loc 4 235 0
 6790 1488 7F830000 		cmpw 7,3,0
 6791 148c 409E0110 		bne- 7,.L539
 6792              	.LVL575:
 6793              	.L509:
 6794              	.LBE3095:
 6795              	.LBE3097:
 6796              	.LBE3083:
 6797              	.LBE3082:
 6798              	.LBE3081:
 6799              	.LBB3101:
 6800              	.LBB3102:
 6801              	.LBB3103:
 6802              	.LBB3104:
 6803              	.LBB3105:
 6804              	.LBB3106:
 6805              	.LBB3107:
 6806              	.LBB3108:
 6807              		.loc 4 288 0
 6808 1490 81210014 		lwz 9,20(1)
 6809              	.LBE3108:
 6810              	.LBE3107:
 6811              	.LBE3106:
 6812              	.LBB3109:
 6813              	.LBB3110:
 6814              		.loc 4 235 0
 6815 1494 3D600000 		lis 11,_ZNSbIwSt11char_traitsIwESaIwEE4_Rep20_S_empty_rep_storageE@ha
 6816 1498 380B0000 		la 0,_ZNSbIwSt11char_traitsIwESaIwEE4_Rep20_S_empty_rep_storageE@l(11)
 6817              	.LBE3110:
 6818              	.LBE3109:
 6819              		.loc 4 534 0
 6820 149c 3869FFF4 		addi 3,9,-12
 6821              	.LVL576:
 6822              	.LBB3118:
 6823              	.LBB3117:
 6824              		.loc 4 235 0
 6825 14a0 7F830000 		cmpw 7,3,0
 6826 14a4 419EFE7C 		beq+ 7,.L515
 6827              	.LVL577:
 6828              	.LBB3111:
 6829              	.LBB3112:
 6830              	.LBB3113:
 6831              		.loc 5 66 0
 6832 14a8 8169FFFC 		lwz 11,-4(9)
 6833              	.LVL578:
 6834              	.LBE3113:
 6835              	.LBE3112:
 6836              	.LBE3111:
 6837              		.loc 4 240 0
 6838 14ac 2F8B0000 		cmpwi 7,11,0
 6839              	.LBB3116:
 6840              	.LBB3115:
 6841              	.LBB3114:
 6842              		.loc 5 67 0
 6843 14b0 396BFFFF 		addi 11,11,-1
 6844 14b4 9169FFFC 		stw 11,-4(9)
 6845              	.LBE3114:
 6846              	.LBE3115:
 6847              	.LBE3116:
 6848              		.loc 4 240 0
 6849 14b8 419DFE68 		bgt+ 7,.L515
 6850              		.loc 4 244 0
 6851 14bc 38810008 		addi 4,1,8
 6852 14c0 48000001 		bl _ZNSbIwSt11char_traitsIwESaIwEE4_Rep10_M_destroyERKS1_
 6853              	.LVL579:
 6854 14c4 4BFFFE5C 		b .L515
 6855              	.LVL580:
 6856              	.L536:
 6857              	.LBE3117:
 6858              	.LBE3118:
 6859              	.LBE3105:
 6860              	.LBE3104:
 6861              	.LBE3103:
 6862              	.LBE3102:
 6863              	.LBE3101:
 6864              	.LBB3119:
 6865              	.LBB3074:
 6866              		.loc 7 452 0
 6867 14c8 7F805800 		cmpw 7,0,11
 6868 14cc 40BEFF94 		bne- 7,.L498
 6869 14d0 801C0014 		lwz 0,20(28)
 6870 14d4 7F805040 		cmplw 7,0,10
 6871 14d8 41BDFF20 		bgt- 7,.L478
 6872 14dc 4BFFFF84 		b .L498
 6873              	.LVL581:
 6874              	.L522:
 6875              	.LBB3065:
 6876              	.LBB2997:
 6877              	.LBB2995:
 6878              	.LBB2994:
 6879              		.loc 3 810 0
 6880 14e0 7FBCEB78 		mr 28,29
 6881 14e4 4BFFFF14 		b .L478
 6882              	.LVL582:
 6883              	.L521:
 6884              	.LBE2994:
 6885              	.LBE2995:
 6886              	.LBE2997:
 6887              	.LBE3065:
 6888              	.LBE3074:
 6889              	.LBE3119:
 6890              	.LBE2976:
 6891              	.LBE2975:
 6892              	.LBE2974:
 6893              		.loc 1 71 0
 6894 14e8 38600001 		li 3,1
 6895              	.LVL583:
 6896              	.L468:
 6897              	.LBE3130:
 6898              	.LBE3136:
 6899              		.loc 1 72 0
 6900 14ec 80010104 		lwz 0,260(1)
 6901 14f0 832100E4 		lwz 25,228(1)
 6902 14f4 7C0803A6 		mtlr 0
 6903 14f8 834100E8 		lwz 26,232(1)
 6904              	.LVL584:
 6905 14fc 836100EC 		lwz 27,236(1)
 6906 1500 838100F0 		lwz 28,240(1)
 6907 1504 83A100F4 		lwz 29,244(1)
 6908 1508 83C100F8 		lwz 30,248(1)
 6909 150c 83E100FC 		lwz 31,252(1)
 6910              	.LVL585:
 6911 1510 38210100 		addi 1,1,256
 6912              		.cfi_remember_state
 6913              	.LCFI92:
 6914              		.cfi_def_cfa_offset 0
 6915              		.cfi_restore 31
 6916              		.cfi_restore 30
 6917              		.cfi_restore 29
 6918              		.cfi_restore 28
 6919              		.cfi_restore 27
 6920              		.cfi_restore 26
 6921              		.cfi_restore 25
 6922 1514 4E800020 		blr
 6923              	.LVL586:
 6924              	.L472:
 6925              	.LCFI93:
 6926              		.cfi_restore_state
 6927              	.LBB3137:
 6928              	.LBB3131:
 6929              	.LBB2965:
 6930              	.LBB2964:
 6931              		.loc 2 834 0
 6932 1518 7C240B78 		mr 4,1
 6933 151c 7FE3FB78 		mr 3,31
 6934 1520 952400D8 		stwu 9,216(4)
 6935 1524 7F85E378 		mr 5,28
 6936              	.LEHB15:
 6937 1528 48000001 		bl _ZNSt6vectorIySaIyEE13_M_insert_auxEN9__gnu_cxx17__normal_iteratorIPyS1_EERKy
 6938 152c 81010018 		lwz 8,24(1)
 6939 1530 4BFFFDB4 		b .L474
 6940              	.LVL587:
 6941              	.L519:
 6942              	.LBE2964:
 6943              	.LBE2965:
 6944              	.LBE3131:
 6945              		.loc 1 35 0
 6946 1534 3C60FFFF 		lis 3,0xffff
 6947              	.LVL588:
 6948 1538 60636FFE 		ori 3,3,28670
 6949 153c 4BFFFFB0 		b .L468
 6950              	.LVL589:
 6951              	.L520:
 6952              		.loc 1 40 0
 6953 1540 3860FFFF 		li 3,-1
 6954              	.LVL590:
 6955 1544 4BFFFFA8 		b .L468
 6956              	.LVL591:
 6957              	.L469:
 6958              		.loc 1 46 0
 6959 1548 7F63DB78 		mr 3,27
 6960              	.LVL592:
 6961 154c 48000001 		bl free
 6962              		.loc 1 47 0
 6963 1550 3C60FFFF 		lis 3,0xffff
 6964 1554 60636FFE 		ori 3,3,28670
 6965 1558 4BFFFF94 		b .L468
 6966              	.LVL593:
 6967              	.L525:
 6968 155c 7C7F1B78 		mr 31,3
 6969              	.LVL594:
 6970              	.L502:
 6971              	.LBB3132:
 6972              	.LBB3129:
 6973              	.LBB3128:
 6974              	.LBB3127:
 6975              	.LBB3120:
 6976              	.LBB3075:
 6977              		.loc 7 453 0
 6978 1560 3861000C 		addi 3,1,12
 6979 1564 48000001 		bl _ZNSsD1Ev
 6980              	.LVL595:
 6981              	.L503:
 6982              	.LBE3075:
 6983              	.LBE3120:
 6984              	.LBB3121:
 6985              	.LBB3122:
 6986              	.LBB3123:
 6987              		.file 12 "d:/Projects/SaveGameManager/savegame-manager-gx/trunk/source/System/../TextOperations/ws
 6988              		.loc 12 10 0
 6989 1568 38610014 		addi 3,1,20
 6990              	.LVL596:
 6991 156c 48000001 		bl _ZNSbIwSt11char_traitsIwESaIwEED2Ev
 6992              	.LVL597:
 6993 1570 7FE3FB78 		mr 3,31
 6994 1574 48000001 		bl _Unwind_Resume
 6995              	.LEHE15:
 6996              	.LVL598:
 6997              	.L533:
 6998              	.LBE3123:
 6999              	.LBE3122:
 7000              	.LBE3121:
 7001              	.LBB3124:
 7002              	.LBB2985:
 7003              	.LBB2982:
 7004              		.loc 2 719 0
 7005 1578 3C600000 		lis 3,.LC1@ha
 7006 157c 38630024 		la 3,.LC1@l(3)
 7007              	.LEHB16:
 7008 1580 48000001 		bl _ZSt20__throw_out_of_rangePKc
 7009              	.LEHE16:
 7010              	.L523:
 7011 1584 7C7F1B78 		mr 31,3
 7012 1588 4BFFFFE0 		b .L503
 7013              	.LVL599:
 7014              	.L524:
 7015 158c 7C7F1B78 		mr 31,3
 7016              	.LBE2982:
 7017              	.LBE2985:
 7018              	.LBE3124:
 7019              		.loc 1 67 0
 7020 1590 38610010 		addi 3,1,16
 7021              	.LVL600:
 7022 1594 48000001 		bl _ZNSsD1Ev
 7023              	.LVL601:
 7024 1598 4BFFFFD0 		b .L503
 7025              	.LVL602:
 7026              	.L539:
 7027              	.LBB3125:
 7028              	.LBB3100:
 7029              	.LBB3099:
 7030              	.LBB3098:
 7031              	.LBB3096:
 7032              	.LBB3089:
 7033              	.LBB3090:
 7034              	.LBB3091:
 7035              		.loc 5 66 0
 7036 159c 8169FFFC 		lwz 11,-4(9)
 7037              	.LVL603:
 7038              	.LBE3091:
 7039              	.LBE3090:
 7040              	.LBE3089:
 7041              		.loc 4 240 0
 7042 15a0 2F8B0000 		cmpwi 7,11,0
 7043              	.LBB3094:
 7044              	.LBB3093:
 7045              	.LBB3092:
 7046              		.loc 5 67 0
 7047 15a4 396BFFFF 		addi 11,11,-1
 7048 15a8 9169FFFC 		stw 11,-4(9)
 7049              	.LBE3092:
 7050              	.LBE3093:
 7051              	.LBE3094:
 7052              		.loc 4 240 0
 7053 15ac 419DFEE4 		bgt+ 7,.L509
 7054              		.loc 4 244 0
 7055 15b0 38810009 		addi 4,1,9
 7056 15b4 48000001 		bl _ZNSs4_Rep10_M_destroyERKSaIcE
 7057              	.LVL604:
 7058 15b8 4BFFFED8 		b .L509
 7059              	.LVL605:
 7060              	.L526:
 7061 15bc 7C7F1B78 		mr 31,3
 7062              	.LVL606:
 7063              	.LBE3096:
 7064              	.LBE3098:
 7065              	.LBE3099:
 7066              	.LBE3100:
 7067              	.LBE3125:
 7068              	.LBB3126:
 7069              	.LBB3076:
 7070              	.LBB3066:
 7071              	.LBB3067:
 7072              	.LBB3068:
 7073              		.loc 11 87 0
 7074 15c0 38610028 		addi 3,1,40
 7075 15c4 48000001 		bl _ZNSsD1Ev
 7076 15c8 4BFFFF98 		b .L502
 7077              	.LVL607:
 7078              	.L538:
 7079              	.LBE3068:
 7080              	.LBE3067:
 7081              	.LBE3066:
 7082              	.LBB3069:
 7083              	.LBB3064:
 7084              	.LBB3063:
 7085              	.LBB3062:
 7086              	.LBB3061:
 7087              	.LBB3055:
 7088              	.LBB3056:
 7089              	.LBB3057:
 7090              		.loc 5 66 0
 7091 15cc 8169FFFC 		lwz 11,-4(9)
 7092              	.LVL608:
 7093              	.LBE3057:
 7094              	.LBE3056:
 7095              	.LBE3055:
 7096              		.loc 4 240 0
 7097 15d0 2F8B0000 		cmpwi 7,11,0
 7098              	.LBB3060:
 7099              	.LBB3059:
 7100              	.LBB3058:
 7101              		.loc 5 67 0
 7102 15d4 396BFFFF 		addi 11,11,-1
 7103 15d8 9169FFFC 		stw 11,-4(9)
 7104              	.LBE3058:
 7105              	.LBE3059:
 7106              	.LBE3060:
 7107              		.loc 4 240 0
 7108 15dc 419DFE84 		bgt+ 7,.L498
 7109              		.loc 4 244 0
 7110 15e0 3881000A 		addi 4,1,10
 7111 15e4 48000001 		bl _ZNSs4_Rep10_M_destroyERKSaIcE
 7112              	.LVL609:
 7113 15e8 4BFFFE78 		b .L498
 7114              	.LVL610:
 7115              	.L537:
 7116              	.LBE3061:
 7117              	.LBE3062:
 7118              	.LBE3063:
 7119              	.LBE3064:
 7120              	.LBE3069:
 7121              	.LBB3070:
 7122              	.LBB3044:
 7123              	.LBB3042:
 7124              	.LBB3040:
 7125              	.LBB3038:
 7126              	.LBB3036:
 7127              	.LBB3033:
 7128              	.LBB3025:
 7129              	.LBB3026:
 7130              	.LBB3027:
 7131              		.loc 5 66 0
 7132 15ec 8169FFFC 		lwz 11,-4(9)
 7133              	.LVL611:
 7134              	.LBE3027:
 7135              	.LBE3026:
 7136              	.LBE3025:
 7137              		.loc 4 240 0
 7138 15f0 2F8B0000 		cmpwi 7,11,0
 7139              	.LBB3030:
 7140              	.LBB3029:
 7141              	.LBB3028:
 7142              		.loc 5 67 0
 7143 15f4 396BFFFF 		addi 11,11,-1
 7144 15f8 9169FFFC 		stw 11,-4(9)
 7145              	.LBE3028:
 7146              	.LBE3029:
 7147              	.LBE3030:
 7148              		.loc 4 240 0
 7149 15fc 419DFE54 		bgt+ 7,.L493
 7150              		.loc 4 244 0
 7151 1600 3881000B 		addi 4,1,11
 7152 1604 48000001 		bl _ZNSs4_Rep10_M_destroyERKSaIcE
 7153              	.LVL612:
 7154 1608 4BFFFE48 		b .L493
 7155              	.LBE3033:
 7156              	.LBE3036:
 7157              	.LBE3038:
 7158              	.LBE3040:
 7159              	.LBE3042:
 7160              	.LBE3044:
 7161              	.LBE3070:
 7162              	.LBE3076:
 7163              	.LBE3126:
 7164              	.LBE3127:
 7165              	.LBE3128:
 7166              	.LBE3129:
 7167              	.LBE3132:
 7168              	.LBE3137:
 7169              		.cfi_endproc
 7170              	.LFE1071:
 7171              		.section	.gcc_except_table
 7172              	.LLSDA1071:
 7173 004c FF       		.byte	0xff
 7174 004d FF       		.byte	0xff
 7175 004e 01       		.byte	0x1
 7176 004f 28       		.uleb128 .LLSDACSE1071-.LLSDACSB1071
 7177              	.LLSDACSB1071:
 7178 0050 68       		.uleb128 .LEHB10-.LFB1071
 7179 0051 8402     		.uleb128 .LEHE10-.LEHB10
 7180 0053 00       		.uleb128 0
 7181 0054 00       		.uleb128 0
 7182 0055 9804     		.uleb128 .LEHB11-.LFB1071
 7183 0057 04       		.uleb128 .LEHE11-.LEHB11
 7184 0058 D806     		.uleb128 .L525-.LFB1071
 7185 005a 00       		.uleb128 0
 7186 005b AC04     		.uleb128 .LEHB12-.LFB1071
 7187 005d 04       		.uleb128 .LEHE12-.LEHB12
 7188 005e B807     		.uleb128 .L526-.LFB1071
 7189 0060 00       		.uleb128 0
 7190 0061 E404     		.uleb128 .LEHB13-.LFB1071
 7191 0063 04       		.uleb128 .LEHE13-.LEHB13
 7192 0064 8007     		.uleb128 .L523-.LFB1071
 7193 0066 00       		.uleb128 0
 7194 0067 F004     		.uleb128 .LEHB14-.LFB1071
 7195 0069 04       		.uleb128 .LEHE14-.LEHB14
 7196 006a 8807     		.uleb128 .L524-.LFB1071
 7197 006c 00       		.uleb128 0
 7198 006d A406     		.uleb128 .LEHB15-.LFB1071
 7199 006f 50       		.uleb128 .LEHE15-.LEHB15
 7200 0070 00       		.uleb128 0
 7201 0071 00       		.uleb128 0
 7202 0072 FC06     		.uleb128 .LEHB16-.LFB1071
 7203 0074 04       		.uleb128 .LEHE16-.LEHB16
 7204 0075 8007     		.uleb128 .L523-.LFB1071
 7205 0077 00       		.uleb128 0
 7206              	.LLSDACSE1071:
 7207              		.section	".text"
 7208              		.size	_ZN9NandTitle3GetEv, .-_ZN9NandTitle3GetEv
 7209              		.section	.text.startup,"ax",@progbits
 7210              		.align 2
 7211              		.type	_GLOBAL__sub_I_NandTitles, @function
 7212              	_GLOBAL__sub_I_NandTitles:
 7213              	.LFB1368:
 7214              		.loc 1 413 0
 7215              		.cfi_startproc
 7216              		.loc 1 413 0
 7217 0000 38600001 		li 3,1
 7218 0004 480011D4 		b _Z41__static_initialization_and_destruction_0ii.constprop.73
 7219              		.cfi_endproc
 7220              	.LFE1368:
 7221              		.size	_GLOBAL__sub_I_NandTitles, .-_GLOBAL__sub_I_NandTitles
 7222              		.section	.ctors,"aw",@progbits
 7223              		.align 2
 7224 0000 00000000 		.long	_GLOBAL__sub_I_NandTitles
 7225              		.section	.text.exit,"ax",@progbits
 7226              		.align 2
 7227              		.type	_GLOBAL__sub_D_NandTitles, @function
 7228              	_GLOBAL__sub_D_NandTitles:
 7229              	.LFB1369:
 7230              		.loc 1 413 0
 7231              		.cfi_startproc
 7232              		.loc 1 413 0
 7233 0000 38600000 		li 3,0
 7234 0004 480011D4 		b _Z41__static_initialization_and_destruction_0ii.constprop.73
 7235              		.cfi_endproc
 7236              	.LFE1369:
 7237              		.size	_GLOBAL__sub_D_NandTitles, .-_GLOBAL__sub_D_NandTitles
 7238              		.section	.dtors,"aw",@progbits
 7239              		.align 2
 7240 0000 00000000 		.long	_GLOBAL__sub_D_NandTitles
 7241              		.globl NandTitles
 7242              		.globl _ZN9NandTitleC1Ev
 7243              		.set	_ZN9NandTitleC1Ev,_ZN9NandTitleC2Ev
 7244              		.globl _ZN9NandTitleD1Ev
 7245              		.set	_ZN9NandTitleD1Ev,_ZN9NandTitleD2Ev
 7246              		.section	.rodata.str1.4,"aMS",@progbits,1
 7247              		.align 2
 7248              	.LC0:
 7249 0000 2F746974 		.string	"/title/%08x/%08x/content/%08x.app"
 7249      6C652F25 
 7249      3038782F 
 7249      25303878 
 7249      2F636F6E 
 7250 0022 0000     		.zero	2
 7251              	.LC1:
 7252 0024 76656374 		.string	"vector::_M_range_check"
 7252      6F723A3A 
 7252      5F4D5F72 
 7252      616E6765 
 7252      5F636865 
 7253              		.section	".bss"
 7254              		.align 5
 7255              		.set	.LANCHOR0,. + 0
 7256              		.type	_ZL7tmd_buf, @object
 7257              		.size	_ZL7tmd_buf, 18916
 7258              	_ZL7tmd_buf:
 7259 0000 00000000 		.zero	18916
 7259      00000000 
 7259      00000000 
 7259      00000000 
 7259      00000000 
 7260              		.type	NandTitles, @object
 7261              		.size	NandTitles, 44
 7262              	NandTitles:
 7263 49e4 00000000 		.zero	44
 7263      00000000 
 7263      00000000 
 7263      00000000 
 7263      00000000 
 7264              		.section	".text"
 7265              	.Letext0:
 7266              		.file 13 "d:\\devkitpro\\devkitppc\\bin\\../lib/gcc/powerpc-eabi/4.6.3/include/stddef.h"
 7267              		.file 14 "d:\\devkitpro\\devkitppc\\bin\\../lib/gcc/powerpc-eabi/4.6.3/../../../../powerpc-eabi/in
 7268              		.file 15 "d:\\devkitpro\\devkitppc\\bin\\../lib/gcc/powerpc-eabi/4.6.3/../../../../powerpc-eabi/in
 7269              		.file 16 "d:\\devkitpro\\devkitppc\\bin\\../lib/gcc/powerpc-eabi/4.6.3/../../../../powerpc-eabi/in
 7270              		.file 17 "d:\\devkitpro\\devkitppc\\bin\\../lib/gcc/powerpc-eabi/4.6.3/../../../../powerpc-eabi/in
 7271              		.file 18 "d:\\devkitpro\\devkitppc\\bin\\../lib/gcc/powerpc-eabi/4.6.3/../../../../powerpc-eabi/in
 7272              		.file 19 "d:/devkitPro/libogc/include/gctypes.h"
 7273              		.file 20 "d:/devkitPro/libogc/include/ogc/gx.h"
 7274              		.file 21 "d:\\devkitpro\\devkitppc\\bin\\../lib/gcc/powerpc-eabi/4.6.3/../../../../powerpc-eabi/in
 7275              		.file 22 "d:/devkitPro/libogc/include/ogc/es.h"
 7276              		.file 23 "<built-in>"
 7277              		.file 24 "d:\\devkitpro\\devkitppc\\bin\\../lib/gcc/powerpc-eabi/4.6.3/../../../../powerpc-eabi/in
 7278              		.file 25 "d:\\devkitpro\\devkitppc\\bin\\../lib/gcc/powerpc-eabi/4.6.3/../../../../powerpc-eabi/in
 7279              		.file 26 "d:\\devkitpro\\devkitppc\\bin\\../lib/gcc/powerpc-eabi/4.6.3/../../../../powerpc-eabi/in
 7280              		.file 27 "d:\\devkitpro\\devkitppc\\bin\\../lib/gcc/powerpc-eabi/4.6.3/../../../../powerpc-eabi/in
 7281              		.file 28 "d:\\devkitpro\\devkitppc\\bin\\../lib/gcc/powerpc-eabi/4.6.3/../../../../powerpc-eabi/in
 7282              		.file 29 "d:\\devkitpro\\devkitppc\\bin\\../lib/gcc/powerpc-eabi/4.6.3/../../../../powerpc-eabi/in
 7283              		.file 30 "d:\\devkitpro\\devkitppc\\bin\\../lib/gcc/powerpc-eabi/4.6.3/../../../../powerpc-eabi/in
 7284              		.file 31 "d:\\devkitpro\\devkitppc\\bin\\../lib/gcc/powerpc-eabi/4.6.3/../../../../powerpc-eabi/in
 7285              		.file 32 "d:\\devkitpro\\devkitppc\\bin\\../lib/gcc/powerpc-eabi/4.6.3/../../../../powerpc-eabi/in
 7286              		.file 33 "d:\\devkitpro\\devkitppc\\bin\\../lib/gcc/powerpc-eabi/4.6.3/../../../../powerpc-eabi/in
 7287              		.file 34 "d:\\devkitpro\\devkitppc\\bin\\../lib/gcc/powerpc-eabi/4.6.3/../../../../powerpc-eabi/in
 7288              		.file 35 "d:\\devkitpro\\devkitppc\\bin\\../lib/gcc/powerpc-eabi/4.6.3/../../../../powerpc-eabi/in
 7289              		.file 36 "d:\\devkitpro\\devkitppc\\bin\\../lib/gcc/powerpc-eabi/4.6.3/../../../../powerpc-eabi/in
 7290              		.file 37 "d:\\devkitpro\\devkitppc\\bin\\../lib/gcc/powerpc-eabi/4.6.3/../../../../powerpc-eabi/in
 7291              		.file 38 "d:\\devkitpro\\devkitppc\\bin\\../lib/gcc/powerpc-eabi/4.6.3/../../../../powerpc-eabi/in
 7292              		.file 39 "d:\\devkitpro\\devkitppc\\bin\\../lib/gcc/powerpc-eabi/4.6.3/../../../../powerpc-eabi/in
 7293              		.file 40 "d:/Projects/SaveGameManager/savegame-manager-gx/trunk/source/System/nandtitle.h"
 7294              		.file 41 "d:\\devkitpro\\devkitppc\\bin\\../lib/gcc/powerpc-eabi/4.6.3/../../../../powerpc-eabi/in
 7295              		.file 42 "d:\\devkitpro\\devkitppc\\bin\\../lib/gcc/powerpc-eabi/4.6.3/../../../../powerpc-eabi/in
 7296              		.file 43 "d:\\devkitpro\\devkitppc\\bin\\../lib/gcc/powerpc-eabi/4.6.3/../../../../powerpc-eabi/in
 7297              		.file 44 "d:/devkitPro/libogc/include/ogc/conf.h"