	.file	"Nand.cpp"
	.section	".text"
.Ltext0:
	.align 2
	.type	_ZSt13__adjust_heapIN9__gnu_cxx17__normal_iteratorIPSsSt6vectorISsSaISsEEEEiSsEvT_T0_S8_T1_.constprop.40, @function
_ZSt13__adjust_heapIN9__gnu_cxx17__normal_iteratorIPSsSt6vectorISsSaISsEEEEiSsEvT_T0_S8_T1_.constprop.40:
.LFB1261:
	.file 1 "d:\\devkitpro\\devkitppc\\bin\\../lib/gcc/powerpc-eabi/4.6.3/../../../../powerpc-eabi/include/c++/4.6.3/bits/stl_heap.h"
	.loc 1 226 0
	.cfi_startproc
	.cfi_personality 0,__gxx_personality_v0
	.cfi_lsda 0,.LLSDA1261
.LVL0:
	stwu 1,-72(1)
.LCFI0:
	.cfi_def_cfa_offset 72
	mflr 0
	stw 30,64(1)
.LBB1601:
	.loc 1 231 0
	addi 30,5,-1
	.cfi_offset 30, -8
	.cfi_register 65, 0
	srawi 30,30,1
	addze 30,30
.LBE1601:
	.loc 1 226 0
	stw 0,76(1)
.LBB1702:
	.loc 1 231 0
	cmpw 7,4,30
.LBE1702:
	.loc 1 226 0
	stw 20,24(1)
	stw 23,36(1)
	mr 20,6
	.cfi_offset 23, -36
	.cfi_offset 20, -48
	.cfi_offset 65, 4
	stw 27,52(1)
.LBB1703:
	.loc 1 231 0
	mr 23,4
.LBE1703:
	.loc 1 226 0
	stw 28,56(1)
	mr 27,5
	.cfi_offset 28, -16
	.cfi_offset 27, -20
	stw 31,68(1)
	mr 28,4
	stw 21,28(1)
	stw 22,32(1)
	stw 24,40(1)
	stw 25,44(1)
	stw 26,48(1)
	stw 29,60(1)
	.loc 1 226 0
	lwz 31,0(3)
	.cfi_offset 29, -12
	.cfi_offset 26, -24
	.cfi_offset 25, -28
	.cfi_offset 24, -32
	.cfi_offset 22, -40
	.cfi_offset 21, -44
	.cfi_offset 31, -4
.LVL1:
.LBB1704:
	.loc 1 231 0
	bge- 7,.L27
.LVL2:
.L24:
	.loc 1 233 0
	addi 21,23,1
	slwi 22,21,1
.LVL3:
.LBB1602:
.LBB1603:
	.file 2 "d:\\devkitpro\\devkitppc\\bin\\../lib/gcc/powerpc-eabi/4.6.3/../../../../powerpc-eabi/include/c++/4.6.3/bits/stl_iterator.h"
	.loc 2 773 0
	slwi 21,21,3
.LBE1603:
.LBE1602:
	.loc 1 234 0
	addi 26,22,-1
.LBB1605:
.LBB1606:
.LBB1607:
.LBB1608:
.LBB1609:
.LBB1610:
.LBB1611:
.LBB1612:
	.file 3 "d:\\devkitpro\\devkitppc\\bin\\../lib/gcc/powerpc-eabi/4.6.3/../../../../powerpc-eabi/include/c++/4.6.3/bits/basic_string.h"
	.loc 3 288 0
	lwzx 3,31,21
.LBE1612:
.LBE1611:
.LBE1610:
.LBE1609:
.LBE1608:
.LBE1607:
.LBE1606:
.LBE1605:
.LBB1628:
.LBB1629:
	.loc 2 773 0
	slwi 29,26,2
.LBE1629:
.LBE1628:
.LBB1631:
.LBB1604:
	add 21,31,21
.LVL4:
.LBE1604:
.LBE1631:
.LBB1632:
.LBB1626:
.LBB1624:
.LBB1614:
.LBB1615:
.LBB1616:
.LBB1617:
.LBB1618:
	.loc 3 288 0
	lwzx 4,31,29
.LBE1618:
.LBE1617:
.LBE1616:
.LBE1615:
.LBE1614:
.LBE1624:
.LBE1626:
.LBE1632:
.LBB1633:
.LBB1630:
	.loc 2 773 0
	add 29,31,29
.LVL5:
.LBE1630:
.LBE1633:
.LBB1634:
.LBB1627:
.LBB1625:
.LBB1620:
.LBB1613:
	.loc 3 711 0
	lwz 24,-12(3)
.LVL6:
.LBE1613:
.LBE1620:
.LBB1621:
.LBB1619:
	lwz 25,-12(4)
.LVL7:
.LBE1619:
.LBE1621:
.LBB1622:
.LBB1623:
	.file 4 "d:\\devkitpro\\devkitppc\\bin\\../lib/gcc/powerpc-eabi/4.6.3/../../../../powerpc-eabi/include/c++/4.6.3/bits/char_traits.h"
	.loc 4 257 0
	cmplw 7,25,24
	mr 5,25
	ble- 7,.L4
	mr 5,24
.L4:
	bl memcmp
.LVL8:
.LBE1623:
.LBE1622:
	.loc 3 2180 0
	cmpwi 0,3,0
	bne- 0,.L5
.LVL9:
	subf. 0,25,24
.LVL10:
.L5:
.LBE1625:
.LBE1627:
.LBE1634:
	.loc 1 234 0
	blt- 0,.L6
	mr 29,21
	.loc 1 233 0
	mr 26,22
.LVL11:
.L6:
.LBB1635:
.LBB1636:
	.loc 2 773 0
	slwi 3,23,2
.LBE1636:
.LBE1635:
.LBB1637:
.LBB1638:
	.loc 3 542 0
	mr 4,29
	add 3,31,3
.LEHB0:
	bl _ZNSs6assignERKSs
.LVL12:
.LBE1638:
.LBE1637:
	.loc 1 231 0
	cmpw 7,26,30
	bge- 7,.L3
	mr 23,26
.LVL13:
	b .L24
.LVL14:
.L27:
	slwi 29,4,2
	mr 26,4
	add 29,31,29
.LVL15:
.L3:
	.loc 1 239 0
	andi. 0,27,1
	bne- 0,.L8
	addi 27,27,-2
.LVL16:
	srawi 27,27,1
	addze 27,27
.LVL17:
	cmpw 7,26,27
	beq- 7,.L28
.LVL18:
.L8:
	.loc 1 246 0
	addi 3,1,12
	mr 4,20
	bl _ZNSsC1ERKSs
.LEHE0:
.LVL19:
.LBB1639:
.LBB1640:
	.loc 1 136 0
	cmpw 7,26,28
	ble- 7,.L9
	.loc 1 135 0
	addi 30,26,-1
	srawi 30,30,1
	addze 30,30
.LVL20:
.L10:
.LBB1641:
.LBB1642:
	.loc 2 773 0
	slwi 29,30,2
.LBE1642:
.LBE1641:
.LBB1644:
.LBB1645:
.LBB1646:
.LBB1647:
.LBB1648:
.LBB1649:
.LBB1650:
.LBB1651:
	.loc 3 288 0
	lwz 4,12(1)
.LBE1651:
.LBE1650:
.LBE1649:
.LBE1648:
.LBE1647:
.LBB1653:
.LBB1654:
.LBB1655:
.LBB1656:
.LBB1657:
	lwzx 3,31,29
.LBE1657:
.LBE1656:
.LBE1655:
.LBE1654:
.LBE1653:
.LBE1646:
.LBE1645:
.LBE1644:
.LBB1665:
.LBB1643:
	.loc 2 773 0
	add 29,31,29
.LVL21:
.LBE1643:
.LBE1665:
.LBB1666:
.LBB1664:
.LBB1663:
.LBB1659:
.LBB1652:
	.loc 3 711 0
	lwz 27,-12(4)
.LBE1652:
.LBE1659:
.LBB1660:
.LBB1658:
	lwz 25,-12(3)
.LVL22:
.LBE1658:
.LBE1660:
.LBB1661:
.LBB1662:
	.loc 4 257 0
	mr 5,27
	cmplw 7,27,25
	ble- 7,.L11
	mr 5,25
.L11:
	bl memcmp
.LVL23:
.LBE1662:
.LBE1661:
	.loc 3 2180 0
	cmpwi 0,3,0
	bne- 0,.L12
.LVL24:
	subf. 0,27,25
.LVL25:
.L12:
.LBE1663:
.LBE1664:
.LBE1666:
	.loc 1 136 0
	blt- 0,.L13
	slwi 29,26,2
.LVL26:
	add 29,31,29
.LVL27:
.L9:
.LBB1667:
.LBB1668:
	.loc 3 542 0
	mr 3,29
	addi 4,1,12
.LVL28:
.LEHB1:
	bl _ZNSs6assignERKSs
.LVL29:
.LBE1668:
.LBE1667:
.LBE1640:
.LBE1639:
.LBB1674:
.LBB1675:
.LBB1676:
.LBB1677:
.LBB1678:
.LBB1679:
	.loc 3 288 0
	lwz 9,12(1)
.LBE1679:
.LBE1678:
.LBE1677:
.LBB1680:
.LBB1681:
	.loc 3 235 0
	lis 11,_ZNSs4_Rep20_S_empty_rep_storageE@ha
	la 0,_ZNSs4_Rep20_S_empty_rep_storageE@l(11)
.LBE1681:
.LBE1680:
	.loc 3 534 0
	addi 3,9,-12
.LVL30:
.LBB1690:
.LBB1688:
	.loc 3 235 0
	cmpw 7,3,0
	bne- 7,.L29
.LVL31:
.L1:
.LBE1688:
.LBE1690:
.LBE1676:
.LBE1675:
.LBE1674:
.LBE1704:
	.loc 1 248 0
	lwz 0,76(1)
	lwz 20,24(1)
.LVL32:
	mtlr 0
	lwz 21,28(1)
	lwz 22,32(1)
	lwz 23,36(1)
	lwz 24,40(1)
	lwz 25,44(1)
	lwz 26,48(1)
	lwz 27,52(1)
	lwz 28,56(1)
.LVL33:
	lwz 29,60(1)
.LVL34:
	lwz 30,64(1)
	lwz 31,68(1)
.LVL35:
	addi 1,1,72
	.cfi_remember_state
.LCFI1:
	.cfi_def_cfa_offset 0
	.cfi_restore 31
	.cfi_restore 30
	.cfi_restore 29
	.cfi_restore 28
	.cfi_restore 27
	.cfi_restore 26
	.cfi_restore 25
	.cfi_restore 24
	.cfi_restore 23
	.cfi_restore 22
	.cfi_restore 21
	.cfi_restore 20
	blr
.LVL36:
.L13:
.LCFI2:
	.cfi_restore_state
.LBB1705:
.LBB1694:
.LBB1673:
.LBB1669:
.LBB1670:
	.loc 2 773 0
	slwi 3,26,2
.LBE1670:
.LBE1669:
.LBB1671:
.LBB1672:
	.loc 3 542 0
	mr 4,29
	add 3,31,3
	bl _ZNSs6assignERKSs
.LEHE1:
.LVL37:
.LBE1672:
.LBE1671:
	.loc 1 136 0
	cmpw 7,28,30
	.loc 1 140 0
	addi 0,30,-1
	srawi 0,0,1
	addze 0,0
.LVL38:
	.loc 1 136 0
	bge- 7,.L9
	mr 26,30
.LVL39:
	.loc 1 140 0
	mr 30,0
.LVL40:
	b .L10
.LVL41:
.L28:
.LBE1673:
.LBE1694:
	.loc 1 241 0
	slwi 26,26,1
.LVL42:
.LBB1695:
.LBB1696:
	.loc 3 542 0
	mr 3,29
.LBE1696:
.LBE1695:
	.loc 1 242 0
	addi 26,26,1
.LVL43:
.LBB1698:
.LBB1699:
	.loc 2 773 0
	slwi 30,26,2
	add 30,31,30
.LVL44:
.LBE1699:
.LBE1698:
.LBB1700:
.LBB1697:
	.loc 3 542 0
	mr 4,30
	mr 29,30
.LVL45:
.LEHB2:
	bl _ZNSs6assignERKSs
.LVL46:
	b .L8
.LVL47:
.L23:
	mr 31,3
.LVL48:
.LBE1697:
.LBE1700:
	.loc 1 246 0
	addi 3,1,12
.LVL49:
	bl _ZNSsD1Ev
.LVL50:
	mr 3,31
	bl _Unwind_Resume
.LEHE2:
.LVL51:
.L29:
.LBB1701:
.LBB1693:
.LBB1692:
.LBB1691:
.LBB1689:
.LBB1682:
.LBB1683:
.LBB1684:
	.file 5 "d:\\devkitpro\\devkitppc\\bin\\../lib/gcc/powerpc-eabi/4.6.3/../../../../powerpc-eabi/include/c++/4.6.3/ext/atomicity.h"
	.loc 5 66 0
	lwz 11,-4(9)
.LVL52:
.LBE1684:
.LBE1683:
.LBE1682:
	.loc 3 240 0
	cmpwi 7,11,0
.LBB1687:
.LBB1686:
.LBB1685:
	.loc 5 67 0
	addi 11,11,-1
	stw 11,-4(9)
.LBE1685:
.LBE1686:
.LBE1687:
	.loc 3 240 0
	bgt+ 7,.L1
	.loc 3 244 0
	addi 4,1,8
	bl _ZNSs4_Rep10_M_destroyERKSaIcE
.LVL53:
	b .L1
.LBE1689:
.LBE1691:
.LBE1692:
.LBE1693:
.LBE1701:
.LBE1705:
	.cfi_endproc
.LFE1261:
	.globl __gxx_personality_v0
	.section	.gcc_except_table,"a",@progbits
.LLSDA1261:
	.byte	0xff
	.byte	0xff
	.byte	0x1
	.uleb128 .LLSDACSE1261-.LLSDACSB1261
.LLSDACSB1261:
	.uleb128 .LEHB0-.LFB1261
	.uleb128 .LEHE0-.LEHB0
	.uleb128 0
	.uleb128 0
	.uleb128 .LEHB1-.LFB1261
	.uleb128 .LEHE1-.LEHB1
	.uleb128 .L23-.LFB1261
	.uleb128 0
	.uleb128 .LEHB2-.LFB1261
	.uleb128 .LEHE2-.LEHB2
	.uleb128 0
	.uleb128 0
.LLSDACSE1261:
	.section	".text"
	.size	_ZSt13__adjust_heapIN9__gnu_cxx17__normal_iteratorIPSsSt6vectorISsSaISsEEEEiSsEvT_T0_S8_T1_.constprop.40, .-_ZSt13__adjust_heapIN9__gnu_cxx17__normal_iteratorIPSsSt6vectorISsSaISsEEEEiSsEvT_T0_S8_T1_.constprop.40
	.align 2
	.type	_ZNSt6vectorISsSaISsEED2Ev.constprop.41, @function
_ZNSt6vectorISsSaISsEED2Ev.constprop.41:
.LFB1260:
	.file 6 "d:\\devkitpro\\devkitppc\\bin\\../lib/gcc/powerpc-eabi/4.6.3/../../../../powerpc-eabi/include/c++/4.6.3/bits/stl_vector.h"
	.loc 6 349 0
	.cfi_startproc
.LVL54:
	mflr 0
	stwu 1,-40(1)
.LCFI3:
	.cfi_def_cfa_offset 40
	.cfi_register 65, 0
	stw 30,32(1)
	stw 0,44(1)
	stw 31,36(1)
.LBB1767:
	.loc 6 350 0
	lwz 30,4(3)
	.cfi_offset 31, -4
	.cfi_offset 65, 4
	.cfi_offset 30, -8
	lwz 31,0(3)
.LBE1767:
	.loc 6 349 0
	stw 28,24(1)
	mr 28,3
	.cfi_offset 28, -16
.LVL55:
.LBB1814:
.LBB1768:
.LBB1769:
.LBB1770:
.LBB1771:
.LBB1772:
	.file 7 "d:\\devkitpro\\devkitppc\\bin\\../lib/gcc/powerpc-eabi/4.6.3/../../../../powerpc-eabi/include/c++/4.6.3/bits/stl_construct.h"
	.loc 7 103 0
	cmpw 7,31,30
.LBE1772:
.LBE1771:
.LBE1770:
.LBE1769:
.LBE1768:
.LBE1814:
	.loc 6 349 0
	stw 29,28(1)
.LBB1815:
.LBB1806:
.LBB1804:
.LBB1802:
.LBB1800:
.LBB1798:
	.loc 7 103 0
	beq- 7,.L31
	.cfi_offset 29, -12
	lis 29,_ZNSs4_Rep20_S_empty_rep_storageE@ha
	la 29,_ZNSs4_Rep20_S_empty_rep_storageE@l(29)
.LVL56:
.L38:
.LBB1773:
.LBB1774:
.LBB1775:
.LBB1776:
.LBB1777:
.LBB1778:
.LBB1779:
	.loc 3 288 0
	lwz 9,0(31)
.LBE1779:
.LBE1778:
.LBE1777:
.LBE1776:
.LBE1775:
.LBE1774:
.LBE1773:
	.loc 7 103 0
	addi 31,31,4
.LVL57:
.LBB1796:
.LBB1794:
.LBB1792:
.LBB1790:
	.loc 3 534 0
	addi 3,9,-12
.LVL58:
.LBB1780:
.LBB1781:
	.loc 3 235 0
	cmpw 7,3,29
	bne- 7,.L45
.LVL59:
.L37:
.LBE1781:
.LBE1780:
.LBE1790:
.LBE1792:
.LBE1794:
.LBE1796:
	.loc 7 103 0
	cmpw 7,30,31
	bne+ 7,.L38
	lwz 31,0(28)
.LVL60:
.L31:
.LBE1798:
.LBE1800:
.LBE1802:
.LBE1804:
.LBE1806:
.LBB1807:
.LBB1808:
.LBB1809:
.LBB1810:
	.loc 6 155 0
	cmpwi 7,31,0
	beq- 7,.L30
.LVL61:
.LBB1811:
.LBB1812:
	.file 8 "d:\\devkitpro\\devkitppc\\bin\\../lib/gcc/powerpc-eabi/4.6.3/../../../../powerpc-eabi/include/c++/4.6.3/ext/new_allocator.h"
	.loc 8 98 0
	mr 3,31
	bl _ZdlPv
.LVL62:
.L30:
.LBE1812:
.LBE1811:
.LBE1810:
.LBE1809:
.LBE1808:
.LBE1807:
.LBE1815:
	.loc 6 351 0
	lwz 0,44(1)
	lwz 28,24(1)
.LVL63:
	mtlr 0
	lwz 29,28(1)
	lwz 30,32(1)
.LVL64:
	lwz 31,36(1)
.LVL65:
	addi 1,1,40
	.cfi_remember_state
.LCFI4:
	.cfi_def_cfa_offset 0
	.cfi_restore 31
	.cfi_restore 30
	.cfi_restore 29
	.cfi_restore 28
	blr
.LVL66:
.L45:
.LCFI5:
	.cfi_restore_state
.LBB1816:
.LBB1813:
.LBB1805:
.LBB1803:
.LBB1801:
.LBB1799:
.LBB1797:
.LBB1795:
.LBB1793:
.LBB1791:
.LBB1789:
.LBB1788:
.LBB1782:
.LBB1783:
.LBB1784:
	.loc 5 66 0
	lwz 11,-4(9)
.LVL67:
.LBE1784:
.LBE1783:
.LBE1782:
	.loc 3 240 0
	cmpwi 7,11,0
.LBB1787:
.LBB1786:
.LBB1785:
	.loc 5 67 0
	addi 11,11,-1
	stw 11,-4(9)
.LBE1785:
.LBE1786:
.LBE1787:
	.loc 3 240 0
	bgt+ 7,.L37
	.loc 3 244 0
	addi 4,1,8
	bl _ZNSs4_Rep10_M_destroyERKSaIcE
.LVL68:
	b .L37
.LBE1788:
.LBE1789:
.LBE1791:
.LBE1793:
.LBE1795:
.LBE1797:
.LBE1799:
.LBE1801:
.LBE1803:
.LBE1805:
.LBE1813:
.LBE1816:
	.cfi_endproc
.LFE1260:
	.size	_ZNSt6vectorISsSaISsEED2Ev.constprop.41, .-_ZNSt6vectorISsSaISsEED2Ev.constprop.41
	.align 2
	.type	_ZN4Nand8LoadFileESsPPhPj.constprop.48, @function
_ZN4Nand8LoadFileESsPPhPj.constprop.48:
.LFB1253:
	.file 9 "d:/Projects/SaveGameManager/savegame-manager-gx/trunk/source/FileOperations/Nand.cpp"
	.loc 9 252 0
	.cfi_startproc
	.cfi_personality 0,__gxx_personality_v0
	.cfi_lsda 0,.LLSDA1253
.LVL69:
	mflr 0
	stwu 1,-56(1)
.LCFI6:
	.cfi_def_cfa_offset 56
	.cfi_register 65, 0
	mfcr 12
	mr 9,3
.LVL70:
	stw 30,48(1)
	mr 30,5
	.cfi_offset 30, -8
	.cfi_register 70, 12
	stw 0,60(1)
	stw 31,52(1)
	mr 31,4
	.cfi_offset 31, -4
	.cfi_offset 65, 4
.LBB1883:
.LBB1884:
.LBB1885:
.LBB1886:
	.loc 3 711 0
	lwz 11,0(3)
.LBE1886:
.LBE1885:
.LBE1884:
.LBE1883:
	.loc 9 252 0
	stw 26,32(1)
.LBB1951:
	.loc 9 254 0
	lwz 0,-12(11)
.LBE1951:
	.loc 9 252 0
	stw 27,36(1)
.LBB1952:
	.loc 9 254 0
	cmpwi 7,0,0
.LBE1952:
	.loc 9 252 0
	stw 28,40(1)
	stw 29,44(1)
	stw 12,28(1)
.LBB1953:
	.loc 9 254 0
	beq- 7,.L68
	.cfi_offset 70, -28
	.cfi_offset 29, -12
	.cfi_offset 28, -16
	.cfi_offset 27, -20
	.cfi_offset 26, -24
.LVL71:
	.loc 9 261 0
	addi 3,1,16
.LVL72:
	mr 4,9
.LVL73:
.LEHB3:
	bl _ZNSsC1ERKSs
.LEHE3:
.LVL74:
.LBB1887:
.LBB1888:
	.loc 9 81 0
	addi 3,1,12
	addi 4,1,16
.LVL75:
.LEHB4:
	bl _ZNSsC1ERKSs
.LEHE4:
.LVL76:
.LBB1889:
.LBB1890:
	.loc 9 76 0
	lwz 3,12(1)
	li 4,1
.LEHB5:
	bl ISFS_Open
.LEHE5:
.LBE1890:
.LBE1889:
.LBB1892:
.LBB1893:
.LBB1894:
.LBB1895:
.LBB1896:
.LBB1897:
	.loc 3 288 0
	lwz 9,12(1)
.LBE1897:
.LBE1896:
.LBE1895:
.LBB1898:
.LBB1899:
	.loc 3 235 0
	lis 28,_ZNSs4_Rep20_S_empty_rep_storageE@ha
.LBE1899:
.LBE1898:
.LBE1894:
.LBE1893:
.LBE1892:
.LBB1916:
.LBB1891:
	.loc 9 76 0
	mr 29,3
.LVL77:
.LBE1891:
.LBE1916:
.LBB1917:
.LBB1914:
.LBB1912:
.LBB1909:
.LBB1906:
	.loc 3 235 0
	la 28,_ZNSs4_Rep20_S_empty_rep_storageE@l(28)
.LBE1906:
.LBE1909:
	.loc 3 534 0
	addi 3,9,-12
.LVL78:
.LBB1910:
.LBB1907:
	.loc 3 235 0
	cmpw 7,3,28
	bne- 7,.L76
.LVL79:
.L53:
.LBE1907:
.LBE1910:
.LBE1912:
.LBE1914:
.LBE1917:
.LBE1888:
.LBE1887:
.LBB1920:
.LBB1921:
.LBB1922:
.LBB1923:
.LBB1924:
.LBB1925:
	.loc 3 288 0
	lwz 9,16(1)
.LBE1925:
.LBE1924:
.LBE1923:
	.loc 3 534 0
	addi 3,9,-12
.LVL80:
.LBB1926:
.LBB1927:
	.loc 3 235 0
	cmpw 7,3,28
	bne- 7,.L77
.LVL81:
.L62:
.LBE1927:
.LBE1926:
.LBE1922:
.LBE1921:
.LBE1920:
	.loc 9 262 0
	cmpwi 7,29,0
	.loc 9 257 0
	li 26,-1
	.loc 9 262 0
	blt- 7,.L47
.LVL82:
.LBB1938:
.LBB1939:
	.loc 9 91 0
	beq- 7,.L47
.LVL83:
.LBE1939:
.LBB1940:
.LBB1941:
	.loc 9 94 0
	li 3,8
.LEHB6:
	bl _ZN8MemTools17AllocateMemory_64Ej
	mr 27,3
.LVL84:
	.loc 9 95 0
	mr 3,29
.LVL85:
	mr 4,27
	bl ISFS_GetFileStats
.LVL86:
	.loc 9 96 0
	cmpwi 4,3,0
	mr 28,3
	blt- 4,.L63
	.loc 9 97 0
	lwz 28,0(27)
.LVL87:
	cmpwi 4,28,0
.LVL88:
.L63:
	.loc 9 99 0
	mr 3,27
	bl free
	.loc 9 101 0
	blt- 4,.L78
.LVL89:
.LBE1941:
.LBE1940:
.LBE1938:
	.loc 9 265 0
	cmpwi 7,28,0
	bne- 7,.L79
.LVL90:
.L71:
	.loc 9 259 0
	li 27,0
.LVL91:
	.loc 9 257 0
	li 26,-1
.LVL92:
.L65:
.LBB1944:
.LBB1945:
	.loc 9 161 0
	mr 3,29
	bl ISFS_Close
.LVL93:
.LBE1945:
.LBE1944:
	.loc 9 278 0
	cmpwi 7,26,0
	blt- 7,.L80
	.loc 9 284 0
	stw 27,0(31)
	.loc 9 285 0
	stw 28,0(30)
.LVL94:
.L47:
.LBE1953:
	.loc 9 288 0
	lwz 0,60(1)
	mr 3,26
	lwz 12,28(1)
	mtlr 0
	lwz 26,32(1)
	lwz 27,36(1)
	mtcrf 8,12
	lwz 28,40(1)
	lwz 29,44(1)
	lwz 30,48(1)
.LVL95:
	lwz 31,52(1)
.LVL96:
	addi 1,1,56
	.cfi_remember_state
.LCFI7:
	.cfi_def_cfa_offset 0
	.cfi_restore 70
	.cfi_restore 31
	.cfi_restore 30
	.cfi_restore 29
	.cfi_restore 28
	.cfi_restore 27
	.cfi_restore 26
	blr
.LVL97:
.L79:
.LCFI8:
	.cfi_restore_state
.LBB1954:
	.loc 9 267 0
	mr 3,28
	.loc 9 257 0
	li 26,-1
	.loc 9 267 0
	bl _ZN8MemTools17AllocateMemory_32Ej
.LVL98:
	.loc 9 268 0
	mr. 27,3
.LVL99:
	beq- 0,.L65
.LVL100:
.LBB1946:
.LBB1947:
	.loc 9 209 0
	mr 3,29
.LVL101:
	mr 4,27
	mr 5,28
	bl ISFS_Read
	mr 26,3
.LVL102:
	b .L65
.LVL103:
.L68:
.LBE1947:
.LBE1946:
	.loc 9 255 0
	li 26,-1
	b .L47
.LVL104:
.L78:
.LBB1948:
.LBB1943:
.LBB1942:
	.loc 9 101 0
	li 28,0
.LVL105:
	b .L71
.LVL106:
.L77:
.LBE1942:
.LBE1943:
.LBE1948:
.LBB1949:
.LBB1937:
.LBB1936:
.LBB1935:
.LBB1934:
.LBB1928:
.LBB1929:
.LBB1930:
	.loc 5 66 0
	lwz 11,-4(9)
.LVL107:
.LBE1930:
.LBE1929:
.LBE1928:
	.loc 3 240 0
	cmpwi 7,11,0
.LBB1933:
.LBB1932:
.LBB1931:
	.loc 5 67 0
	addi 11,11,-1
	stw 11,-4(9)
.LBE1931:
.LBE1932:
.LBE1933:
	.loc 3 240 0
	bgt+ 7,.L62
	.loc 3 244 0
	addi 4,1,8
	bl _ZNSs4_Rep10_M_destroyERKSaIcE
.LVL108:
	b .L62
.LVL109:
.L76:
.LBE1934:
.LBE1935:
.LBE1936:
.LBE1937:
.LBE1949:
.LBB1950:
.LBB1919:
.LBB1918:
.LBB1915:
.LBB1913:
.LBB1911:
.LBB1908:
.LBB1900:
.LBB1901:
.LBB1902:
	.loc 5 66 0
	lwz 11,-4(9)
.LVL110:
.LBE1902:
.LBE1901:
.LBE1900:
	.loc 3 240 0
	cmpwi 7,11,0
.LBB1905:
.LBB1904:
.LBB1903:
	.loc 5 67 0
	addi 11,11,-1
	stw 11,-4(9)
.LBE1903:
.LBE1904:
.LBE1905:
	.loc 3 240 0
	bgt+ 7,.L53
	.loc 3 244 0
	addi 4,1,9
	bl _ZNSs4_Rep10_M_destroyERKSaIcE
.LVL111:
	b .L53
.LVL112:
.L74:
	mr 31,3
.LVL113:
.LBE1908:
.LBE1911:
.LBE1913:
.LBE1915:
.LBE1918:
	.loc 9 81 0
	addi 3,1,12
.LVL114:
	bl _ZNSsD1Ev
.LVL115:
.L57:
.LBE1919:
.LBE1950:
	.loc 9 261 0
	addi 3,1,16
.LVL116:
	bl _ZNSsD1Ev
.LVL117:
	mr 3,31
	bl _Unwind_Resume
.LEHE6:
.LVL118:
.L80:
	.loc 9 280 0
	cmpwi 7,27,0
	beq- 7,.L47
	mr 3,27
	bl free
.LBE1954:
	.loc 9 288 0
	lwz 0,60(1)
	lwz 12,28(1)
	mr 3,26
	mtlr 0
	lwz 26,32(1)
.LVL119:
	lwz 27,36(1)
.LVL120:
	mtcrf 8,12
	lwz 28,40(1)
.LVL121:
	lwz 29,44(1)
.LVL122:
	lwz 30,48(1)
.LVL123:
	lwz 31,52(1)
.LVL124:
	addi 1,1,56
	.cfi_remember_state
	.cfi_restore 26
	.cfi_restore 27
	.cfi_restore 28
	.cfi_restore 29
	.cfi_restore 30
	.cfi_restore 31
	.cfi_restore 70
.LCFI9:
	.cfi_def_cfa_offset 0
	blr
.LVL125:
.L73:
.LCFI10:
	.cfi_restore_state
	mr 31,3
.LVL126:
	b .L57
	.cfi_endproc
.LFE1253:
	.section	.gcc_except_table
.LLSDA1253:
	.byte	0xff
	.byte	0xff
	.byte	0x1
	.uleb128 .LLSDACSE1253-.LLSDACSB1253
.LLSDACSB1253:
	.uleb128 .LEHB3-.LFB1253
	.uleb128 .LEHE3-.LEHB3
	.uleb128 0
	.uleb128 0
	.uleb128 .LEHB4-.LFB1253
	.uleb128 .LEHE4-.LEHB4
	.uleb128 .L73-.LFB1253
	.uleb128 0
	.uleb128 .LEHB5-.LFB1253
	.uleb128 .LEHE5-.LEHB5
	.uleb128 .L74-.LFB1253
	.uleb128 0
	.uleb128 .LEHB6-.LFB1253
	.uleb128 .LEHE6-.LEHB6
	.uleb128 0
	.uleb128 0
.LLSDACSE1253:
	.section	".text"
	.size	_ZN4Nand8LoadFileESsPPhPj.constprop.48, .-_ZN4Nand8LoadFileESsPPhPj.constprop.48
	.align 2
	.type	_ZN4Nand11ExtractFileESsSs.constprop.45, @function
_ZN4Nand11ExtractFileESsSs.constprop.45:
.LFB1256:
	.loc 9 325 0
	.cfi_startproc
	.cfi_personality 0,__gxx_personality_v0
	.cfi_lsda 0,.LLSDA1256
.LVL127:
	mflr 0
	stwu 1,-56(1)
.LCFI11:
	.cfi_def_cfa_offset 56
	.cfi_register 65, 0
	stw 29,44(1)
.LBB2065:
	.loc 9 330 0
	li 29,0
	.cfi_offset 29, -12
.LBE2065:
	.loc 9 325 0
	stw 0,60(1)
	stw 31,52(1)
	mr 31,4
	.cfi_offset 31, -4
	.cfi_offset 65, 4
.LBB2178:
.LBB2066:
.LBB2067:
.LBB2068:
	.loc 3 711 0
	lwz 9,0(3)
.LBE2068:
.LBE2067:
.LBE2066:
.LBE2178:
	.loc 9 325 0
	stw 30,48(1)
.LBB2179:
	.loc 9 329 0
	lwz 0,-12(9)
	cmpwi 7,0,0
	beq- 7,.L82
	.cfi_offset 30, -8
.LVL128:
.LBB2069:
.LBB2070:
.LBB2071:
	.loc 3 711 0
	lwz 9,0(4)
.LBE2071:
.LBE2070:
.LBE2069:
	.loc 9 329 0
	lwz 0,-12(9)
	cmpwi 7,0,0
	beq- 7,.L82
	.loc 9 335 0
	mr 4,3
.LVL129:
	addi 3,1,12
.LVL130:
	.loc 9 332 0
	stw 29,28(1)
.LVL131:
	.loc 9 333 0
	stw 29,24(1)
.LVL132:
.LEHB7:
	.loc 9 335 0
	bl _ZNSsC1ERKSs
.LEHE7:
.LVL133:
	addi 3,1,12
	addi 4,1,28
	addi 5,1,24
.LEHB8:
	bl _ZN4Nand8LoadFileESsPPhPj.constprop.48
.LEHE8:
.LVL134:
.LBB2072:
.LBB2073:
.LBB2074:
.LBB2075:
.LBB2076:
.LBB2077:
	.loc 3 288 0
	lwz 9,12(1)
.LBE2077:
.LBE2076:
.LBE2075:
.LBB2078:
.LBB2079:
	.loc 3 235 0
	lis 30,_ZNSs4_Rep20_S_empty_rep_storageE@ha
	la 30,_ZNSs4_Rep20_S_empty_rep_storageE@l(30)
.LBE2079:
.LBE2078:
	.loc 3 534 0
	addi 3,9,-12
.LVL135:
.LBB2088:
.LBB2086:
	.loc 3 235 0
	cmpw 7,3,30
	bne- 7,.L113
.LVL136:
.L89:
.LBE2086:
.LBE2088:
.LBE2074:
.LBE2073:
.LBE2072:
.LBB2092:
	.loc 9 336 0
	lwz 0,28(1)
	cmpwi 7,0,0
	beq- 7,.L104
.LBB2093:
	.loc 9 338 0
	addi 3,1,20
	mr 4,31
.LEHB9:
	bl _ZNSsC1ERKSs
.LEHE9:
.LVL137:
.LBB2094:
.LBB2095:
	.loc 3 2005 0
	lis 4,.LC0@ha
	addi 3,1,20
.LVL138:
	la 4,.LC0@l(4)
	li 5,-1
	li 6,1
.LEHB10:
	bl _ZNKSs12find_last_ofEPKcjj
.LVL139:
.LBE2095:
.LBE2094:
.LBB2096:
	.loc 9 340 0
	cmpwi 7,3,-1
	beq- 7,.L107
.LBB2097:
.LBB2098:
.LBB2099:
.LBB2100:
.LBB2101:
.LBB2102:
.LBB2103:
	.loc 3 711 0
	lwz 9,20(1)
.LBE2103:
.LBE2102:
.LBE2101:
.LBE2100:
.LBE2099:
.LBE2098:
	.loc 9 342 0
	addi 4,3,1
.LVL140:
.LBB2112:
.LBB2110:
.LBB2108:
.LBB2106:
.LBB2105:
.LBB2104:
	.loc 3 711 0
	lwz 5,-12(9)
.LBE2104:
.LBE2105:
	.loc 3 318 0
	cmplw 7,4,5
	bgt- 7,.L114
.LVL141:
.LBE2106:
.LBE2108:
	.loc 3 1349 0
	addi 3,1,20
.LVL142:
	subf 5,4,5
	li 6,0
	bl _ZNSs9_M_mutateEjjj
.LVL143:
.LBE2110:
.LBE2112:
.LBB2113:
	.loc 9 343 0
	addi 3,1,16
	addi 4,1,20
.LVL144:
	bl _ZNSsC1ERKSs
.LEHE10:
.LVL145:
	addi 3,1,16
.LEHB11:
	bl _Z15CreateSubfolderSs
.LEHE11:
.LBB2114:
.LBB2115:
.LBB2116:
.LBB2117:
.LBB2118:
.LBB2119:
	.loc 3 288 0
	lwz 9,16(1)
.LBE2119:
.LBE2118:
.LBE2117:
.LBE2116:
.LBE2115:
.LBE2114:
	.loc 9 343 0
	mr 29,3
.LVL146:
.LBB2134:
.LBB2132:
.LBB2130:
	.loc 3 534 0
	addi 3,9,-12
.LVL147:
.LBB2120:
.LBB2121:
	.loc 3 235 0
	cmpw 7,3,30
	bne- 7,.L115
.LVL148:
.L97:
.LBE2121:
.LBE2120:
.LBE2130:
.LBE2132:
.LBE2134:
	.loc 9 343 0
	cmpwi 7,29,0
	.loc 9 327 0
	li 29,0
	.loc 9 343 0
	bne- 7,.L116
.LVL149:
.L90:
.LBE2113:
.LBE2097:
.LBE2096:
	.loc 9 355 0
	lwz 3,28(1)
	bl free
.LVL150:
.LBB2147:
.LBB2148:
.LBB2149:
.LBB2150:
.LBB2151:
	.loc 3 288 0
	lwz 9,20(1)
.LBE2151:
.LBE2150:
.LBE2149:
	.loc 3 534 0
	addi 3,9,-12
.LVL151:
.LBB2152:
.LBB2153:
	.loc 3 235 0
	cmpw 7,3,30
	bne- 7,.L117
.LVL152:
.L82:
.LBE2153:
.LBE2152:
.LBE2148:
.LBE2147:
.LBE2093:
.LBE2092:
.LBE2179:
	.loc 9 359 0
	lwz 0,60(1)
	mr 3,29
	lwz 30,48(1)
	mtlr 0
	lwz 29,44(1)
	lwz 31,52(1)
	addi 1,1,56
	.cfi_remember_state
.LCFI12:
	.cfi_def_cfa_offset 0
	.cfi_restore 31
	.cfi_restore 30
	.cfi_restore 29
	blr
.LVL153:
.L116:
.LCFI13:
	.cfi_restore_state
.LBB2180:
.LBB2172:
.LBB2168:
.LBB2163:
.LBB2143:
.LBB2138:
.LBB2135:
	.loc 9 345 0
	lis 4,.LC2@ha
	lwz 3,0(31)
	la 4,.LC2@l(4)
.LEHB12:
	bl fopen
.LVL154:
	.loc 9 346 0
	mr. 31,3
.LVL155:
	bne+ 0,.L118
.LVL156:
.L107:
	.loc 9 327 0
	li 29,0
	b .L90
.LVL157:
.L104:
.LBE2135:
.LBE2138:
.LBE2143:
.LBE2163:
.LBE2168:
.LBE2172:
.LBE2180:
	.loc 9 359 0
	lwz 0,60(1)
.LBB2181:
.LBB2173:
	.loc 9 327 0
	li 29,0
.LBE2173:
.LBE2181:
	.loc 9 359 0
	mr 3,29
	lwz 30,48(1)
	mtlr 0
	lwz 29,44(1)
	lwz 31,52(1)
.LVL158:
	addi 1,1,56
	.cfi_remember_state
	.cfi_restore 29
	.cfi_restore 30
	.cfi_restore 31
.LCFI14:
	.cfi_def_cfa_offset 0
	blr
.LVL159:
.L118:
.LCFI15:
	.cfi_restore_state
.LBB2182:
.LBB2174:
.LBB2169:
.LBB2164:
.LBB2144:
.LBB2139:
.LBB2136:
	.loc 9 348 0
	lwz 3,28(1)
.LVL160:
	li 4,1
	lwz 5,24(1)
	mr 6,31
	bl fwrite
	mr 29,3
	.loc 9 351 0
	mr 3,31
	.loc 9 348 0
	lwz 31,24(1)
.LVL161:
	.loc 9 351 0
	bl fclose
.LVL162:
	.loc 9 325 0
	xor 29,29,31
.LVL163:
	cntlzw 29,29
	srwi 29,29,5
	b .L90
.LVL164:
.L117:
.LBE2136:
.LBE2139:
.LBE2144:
.LBE2164:
.LBB2165:
.LBB2162:
.LBB2161:
.LBB2160:
.LBB2154:
.LBB2155:
.LBB2156:
	.loc 5 66 0
	lwz 11,-4(9)
.LVL165:
.LBE2156:
.LBE2155:
.LBE2154:
	.loc 3 240 0
	cmpwi 7,11,0
.LBB2159:
.LBB2158:
.LBB2157:
	.loc 5 67 0
	addi 11,11,-1
	stw 11,-4(9)
.LBE2157:
.LBE2158:
.LBE2159:
	.loc 3 240 0
	bgt+ 7,.L82
	.loc 3 244 0
	addi 4,1,8
	bl _ZNSs4_Rep10_M_destroyERKSaIcE
.LVL166:
	b .L82
.LVL167:
.L113:
.LBE2160:
.LBE2161:
.LBE2162:
.LBE2165:
.LBE2169:
.LBE2174:
.LBB2175:
.LBB2091:
.LBB2090:
.LBB2089:
.LBB2087:
.LBB2080:
.LBB2081:
.LBB2082:
	.loc 5 66 0
	lwz 11,-4(9)
.LVL168:
.LBE2082:
.LBE2081:
.LBE2080:
	.loc 3 240 0
	cmpwi 7,11,0
.LBB2085:
.LBB2084:
.LBB2083:
	.loc 5 67 0
	addi 11,11,-1
	stw 11,-4(9)
.LBE2083:
.LBE2084:
.LBE2085:
	.loc 3 240 0
	bgt+ 7,.L89
	.loc 3 244 0
	addi 4,1,10
	bl _ZNSs4_Rep10_M_destroyERKSaIcE
.LVL169:
	b .L89
.LVL170:
.L115:
.LBE2087:
.LBE2089:
.LBE2090:
.LBE2091:
.LBE2175:
.LBB2176:
.LBB2170:
.LBB2166:
.LBB2145:
.LBB2140:
.LBB2137:
.LBB2133:
.LBB2131:
.LBB2129:
.LBB2128:
.LBB2122:
.LBB2123:
.LBB2124:
	.loc 5 66 0
	lwz 11,-4(9)
.LVL171:
.LBE2124:
.LBE2123:
.LBE2122:
	.loc 3 240 0
	cmpwi 7,11,0
.LBB2127:
.LBB2126:
.LBB2125:
	.loc 5 67 0
	addi 11,11,-1
	stw 11,-4(9)
.LBE2125:
.LBE2126:
.LBE2127:
	.loc 3 240 0
	bgt+ 7,.L97
	.loc 3 244 0
	addi 4,1,9
	bl _ZNSs4_Rep10_M_destroyERKSaIcE
.LVL172:
	b .L97
.LVL173:
.L114:
.LBE2128:
.LBE2129:
.LBE2131:
.LBE2133:
.LBE2137:
.LBE2140:
.LBB2141:
.LBB2111:
.LBB2109:
.LBB2107:
	.loc 3 319 0
	lis 3,.LC1@ha
	la 3,.LC1@l(3)
	bl _ZSt20__throw_out_of_rangePKc
.LEHE12:
.LVL174:
.L108:
	mr 31,3
.L100:
.LBE2107:
.LBE2109:
.LBE2111:
.LBE2141:
.LBE2145:
.LBE2166:
	.loc 9 355 0
	addi 3,1,20
.LVL175:
	bl _ZNSsD1Ev
.LVL176:
	mr 3,31
.LEHB13:
	bl _Unwind_Resume
.LVL177:
.L110:
	mr 31,3
.LVL178:
.LBE2170:
.LBE2176:
	.loc 9 335 0
	addi 3,1,12
	bl _ZNSsD1Ev
	mr 3,31
	bl _Unwind_Resume
.LEHE13:
.LVL179:
.L109:
	mr 31,3
.LVL180:
.LBB2177:
.LBB2171:
.LBB2167:
.LBB2146:
.LBB2142:
	.loc 9 343 0
	addi 3,1,16
	bl _ZNSsD1Ev
	b .L100
.LBE2142:
.LBE2146:
.LBE2167:
.LBE2171:
.LBE2177:
.LBE2182:
	.cfi_endproc
.LFE1256:
	.section	.gcc_except_table
.LLSDA1256:
	.byte	0xff
	.byte	0xff
	.byte	0x1
	.uleb128 .LLSDACSE1256-.LLSDACSB1256
.LLSDACSB1256:
	.uleb128 .LEHB7-.LFB1256
	.uleb128 .LEHE7-.LEHB7
	.uleb128 0
	.uleb128 0
	.uleb128 .LEHB8-.LFB1256
	.uleb128 .LEHE8-.LEHB8
	.uleb128 .L110-.LFB1256
	.uleb128 0
	.uleb128 .LEHB9-.LFB1256
	.uleb128 .LEHE9-.LEHB9
	.uleb128 0
	.uleb128 0
	.uleb128 .LEHB10-.LFB1256
	.uleb128 .LEHE10-.LEHB10
	.uleb128 .L108-.LFB1256
	.uleb128 0
	.uleb128 .LEHB11-.LFB1256
	.uleb128 .LEHE11-.LEHB11
	.uleb128 .L109-.LFB1256
	.uleb128 0
	.uleb128 .LEHB12-.LFB1256
	.uleb128 .LEHE12-.LEHB12
	.uleb128 .L108-.LFB1256
	.uleb128 0
	.uleb128 .LEHB13-.LFB1256
	.uleb128 .LEHE13-.LEHB13
	.uleb128 0
	.uleb128 0
.LLSDACSE1256:
	.section	".text"
	.size	_ZN4Nand11ExtractFileESsSs.constprop.45, .-_ZN4Nand11ExtractFileESsSs.constprop.45
	.align 2
	.type	_ZN4Nand9CreateDirESs.constprop.50, @function
_ZN4Nand9CreateDirESs.constprop.50:
.LFB1251:
	.loc 9 33 0
	.cfi_startproc
	.cfi_personality 0,__gxx_personality_v0
	.cfi_lsda 0,.LLSDA1251
.LVL181:
	mflr 0
	stwu 1,-40(1)
.LCFI16:
	.cfi_def_cfa_offset 40
	.cfi_register 65, 0
	mfcr 12
.LBB2330:
	.loc 9 35 0
	li 4,0
.LBE2330:
	.loc 9 33 0
	stw 31,36(1)
	mr 31,3
	.cfi_offset 31, -4
	.cfi_register 70, 12
.LVL182:
	stw 0,44(1)
.LBB2430:
	.loc 9 35 0
	li 5,3
	li 6,3
	li 7,3
	lwz 3,0(3)
.LVL183:
.LBE2430:
	.loc 9 33 0
	stw 30,32(1)
	stw 29,28(1)
	stw 12,24(1)
.LEHB14:
.LBB2431:
	.loc 9 35 0
	.cfi_offset 70, -16
	.cfi_offset 29, -12
	.cfi_offset 30, -8
	.cfi_offset 65, 4
	bl ISFS_CreateDir
.LVL184:
.LBB2331:
	.loc 9 36 0
	cmpwi 4,3,0
	mr 30,3
	blt- 4,.L158
.LVL185:
.L120:
.LBE2331:
	.loc 9 57 0
	lwz 3,0(31)
	li 4,0
	li 5,0
	li 6,0
	li 7,3
	li 8,3
	li 9,3
	bl ISFS_SetAttr
	mr 30,3
.LVL186:
.L147:
.LBE2431:
	.loc 9 60 0
	lwz 0,44(1)
	mr 3,30
	lwz 12,24(1)
	mtlr 0
	lwz 29,28(1)
	lwz 30,32(1)
.LVL187:
	mtcrf 8,12
	lwz 31,36(1)
.LVL188:
	addi 1,1,40
	.cfi_remember_state
.LCFI17:
	.cfi_def_cfa_offset 0
	.cfi_restore 70
	.cfi_restore 31
	.cfi_restore 30
	.cfi_restore 29
	blr
.LVL189:
.L126:
.LCFI18:
	.cfi_restore_state
.LBB2432:
.LBB2427:
.LBB2332:
.LBB2333:
.LBB2334:
	.loc 3 711 0
	lwz 9,-12(9)
.LBE2334:
.LBE2333:
	.loc 9 39 0
	addi 4,9,-1
.LVL190:
.LBB2335:
.LBB2336:
.LBB2337:
.LBB2338:
	.loc 3 318 0
	cmplw 7,9,4
	blt- 7,.L160
.LVL191:
.LBE2338:
.LBE2337:
	.loc 3 1349 0
	mr 3,31
	li 5,1
	li 6,0
	bl _ZNSs9_M_mutateEjjj
.LVL192:
.L158:
.LBE2336:
.LBE2335:
.LBB2342:
.LBB2343:
.LBB2344:
.LBB2345:
.LBB2346:
	.loc 3 288 0
	lwz 9,0(31)
.LBE2346:
.LBE2345:
.LBE2344:
	.loc 3 711 0
	lwz 29,-12(9)
.LVL193:
.LBE2343:
.LBE2342:
.LBB2347:
.LBB2348:
	.loc 3 911 0
	cmpwi 7,29,0
	addi 29,29,-1
	beq- 7,.L161
.LVL194:
.LBB2349:
.LBB2350:
	.loc 3 311 0
	lwz 0,-4(9)
	cmpwi 7,0,0
	blt- 7,.L125
	.loc 3 312 0
	mr 3,31
	bl _ZNSs12_M_leak_hardEv
.LVL195:
	lwz 9,0(31)
.L125:
.LBE2350:
.LBE2349:
.LBE2348:
.LBE2347:
	.loc 9 38 0
	lbzx 0,9,29
	cmpwi 7,0,47
	beq+ 7,.L126
	.loc 9 41 0
	addi 3,1,16
	mr 4,31
	bl _ZNSsC1ERKSs
.LEHE14:
.LVL196:
.LBB2352:
.LBB2353:
	.loc 3 2005 0
	lis 4,.LC0@ha
	addi 3,1,16
.LVL197:
	la 4,.LC0@l(4)
	li 5,-1
	li 6,1
.LEHB15:
	bl _ZNKSs12find_last_ofEPKcjj
.LVL198:
.LBE2353:
.LBE2352:
	.loc 9 43 0
	cmpwi 7,3,-1
	beq- 7,.L162
.LVL199:
.LBB2354:
.LBB2355:
.LBB2356:
.LBB2357:
.LBB2358:
.LBB2359:
	.loc 3 711 0
	lwz 9,16(1)
	lwz 5,-12(9)
.LBE2359:
.LBE2358:
	.loc 3 318 0
	cmplw 7,3,5
	bgt- 7,.L163
.LVL200:
.LBE2357:
.LBE2356:
	.loc 3 1349 0
	mr 4,3
	li 6,0
	addi 3,1,16
.LVL201:
	subf 5,4,5
	bl _ZNSs9_M_mutateEjjj
.LVL202:
.LBE2355:
.LBE2354:
	.loc 9 46 0
	addi 3,1,12
	addi 4,1,16
.LVL203:
	bl _ZNSsC1ERKSs
.LEHE15:
.LVL204:
	addi 3,1,12
.LEHB16:
	bl _ZN4Nand9CreateDirESs.constprop.50
.LEHE16:
.LBB2363:
.LBB2364:
.LBB2365:
.LBB2366:
.LBB2367:
.LBB2368:
	.loc 3 288 0
	lwz 9,12(1)
.LBE2368:
.LBE2367:
.LBE2366:
.LBB2369:
.LBB2370:
	.loc 3 235 0
	lis 29,_ZNSs4_Rep20_S_empty_rep_storageE@ha
.LVL205:
.LBE2370:
.LBE2369:
.LBE2365:
.LBE2364:
.LBE2363:
	.loc 9 46 0
	mr 30,3
.LVL206:
.LBB2387:
.LBB2385:
.LBB2383:
.LBB2380:
.LBB2377:
	.loc 3 235 0
	la 29,_ZNSs4_Rep20_S_empty_rep_storageE@l(29)
.LBE2377:
.LBE2380:
	.loc 3 534 0
	addi 3,9,-12
.LVL207:
.LBB2381:
.LBB2378:
	.loc 3 235 0
	cmpw 7,3,29
	bne- 7,.L164
.LVL208:
.L134:
.LBE2378:
.LBE2381:
.LBE2383:
.LBE2385:
.LBE2387:
	.loc 9 47 0
	cmpwi 7,30,0
	blt- 7,.L165
.LVL209:
	.loc 9 50 0
	lwz 3,0(31)
	li 4,0
	li 5,3
	li 6,3
	li 7,3
.LEHB17:
	bl ISFS_CreateDir
.LEHE17:
	cmpwi 4,3,0
	mr 30,3
.LVL210:
.L127:
.LBB2388:
.LBB2389:
.LBB2390:
.LBB2391:
.LBB2392:
.LBB2393:
	.loc 3 288 0
	lwz 9,16(1)
.LBE2393:
.LBE2392:
.LBE2391:
	.loc 3 534 0
	addi 3,9,-12
.LVL211:
.LBB2394:
.LBB2395:
	.loc 3 235 0
	cmpw 7,3,29
	bne- 7,.L166
.L142:
.LBE2395:
.LBE2394:
.LBE2390:
.LBE2389:
.LBE2388:
.LBE2332:
.LBE2427:
	.loc 9 54 0
	bge- 4,.L120
.LVL212:
.L159:
.LBE2432:
	.loc 9 60 0
	lwz 0,44(1)
	mr 3,30
	lwz 12,24(1)
	mtlr 0
	lwz 29,28(1)
	lwz 30,32(1)
.LVL213:
	mtcrf 8,12
	lwz 31,36(1)
.LVL214:
	addi 1,1,40
	.cfi_remember_state
	.cfi_restore 29
	.cfi_restore 30
	.cfi_restore 31
	.cfi_restore 70
.LCFI19:
	.cfi_def_cfa_offset 0
	blr
.LVL215:
.L162:
.LCFI20:
	.cfi_restore_state
	lis 29,_ZNSs4_Rep20_S_empty_rep_storageE@ha
.LVL216:
	la 29,_ZNSs4_Rep20_S_empty_rep_storageE@l(29)
	b .L127
.LVL217:
.L165:
.LBB2433:
.LBB2428:
.LBB2425:
.LBB2406:
.LBB2407:
.LBB2408:
.LBB2409:
.LBB2410:
.LBB2411:
	.loc 3 288 0
	lwz 9,16(1)
.LBE2411:
.LBE2410:
.LBE2409:
	.loc 3 534 0
	addi 3,9,-12
.LVL218:
.LBB2412:
.LBB2413:
	.loc 3 235 0
	cmpw 7,3,29
	beq+ 7,.L147
.LVL219:
.LBB2414:
.LBB2415:
.LBB2416:
	.loc 5 66 0
	lwz 11,-4(9)
.LVL220:
.LBE2416:
.LBE2415:
.LBE2414:
	.loc 3 240 0
	cmpwi 7,11,0
.LBB2419:
.LBB2418:
.LBB2417:
	.loc 5 67 0
	addi 11,11,-1
	stw 11,-4(9)
.LBE2417:
.LBE2418:
.LBE2419:
	.loc 3 240 0
	bgt+ 7,.L147
	.loc 3 244 0
	addi 4,1,9
	bl _ZNSs4_Rep10_M_destroyERKSaIcE
.LVL221:
	b .L147
.LVL222:
.L160:
.LBE2413:
.LBE2412:
.LBE2408:
.LBE2407:
.LBE2406:
.LBB2420:
.LBB2341:
.LBB2340:
.LBB2339:
	.loc 3 319 0
	lis 3,.LC1@ha
	la 3,.LC1@l(3)
.LEHB18:
	bl _ZSt20__throw_out_of_rangePKc
.LVL223:
.L161:
.LBE2339:
.LBE2340:
.LBE2341:
.LBE2420:
.LBB2421:
.LBB2351:
	.loc 3 912 0
	lis 3,.LC3@ha
	la 3,.LC3@l(3)
	bl _ZSt20__throw_out_of_rangePKc
.LVL224:
.L166:
.LBE2351:
.LBE2421:
.LBB2422:
.LBB2405:
.LBB2404:
.LBB2403:
.LBB2402:
.LBB2396:
.LBB2397:
.LBB2398:
	.loc 5 66 0
	lwz 11,-4(9)
.LVL225:
.LBE2398:
.LBE2397:
.LBE2396:
	.loc 3 240 0
	cmpwi 7,11,0
.LBB2401:
.LBB2400:
.LBB2399:
	.loc 5 67 0
	addi 11,11,-1
	stw 11,-4(9)
.LBE2399:
.LBE2400:
.LBE2401:
	.loc 3 240 0
	bgt+ 7,.L142
	.loc 3 244 0
	addi 4,1,8
	bl _ZNSs4_Rep10_M_destroyERKSaIcE
.LVL226:
.LBE2402:
.LBE2403:
.LBE2404:
.LBE2405:
.LBE2422:
.LBE2425:
.LBE2428:
	.loc 9 54 0
	blt+ 4,.L159
	b .L120
.LVL227:
.L152:
	mr 31,3
.LVL228:
.LBB2429:
.LBB2426:
	.loc 9 46 0
	addi 3,1,12
	bl _ZNSsD1Ev
.LVL229:
.L149:
	.loc 9 51 0
	addi 3,1,16
.LVL230:
	bl _ZNSsD1Ev
.LVL231:
	mr 3,31
	bl _Unwind_Resume
.LEHE18:
.LVL232:
.L163:
.LBB2423:
.LBB2362:
.LBB2361:
.LBB2360:
	.loc 3 319 0
	lis 3,.LC1@ha
.LVL233:
	la 3,.LC1@l(3)
.LEHB19:
	bl _ZSt20__throw_out_of_rangePKc
.LEHE19:
.LVL234:
.L164:
.LBE2360:
.LBE2361:
.LBE2362:
.LBE2423:
.LBB2424:
.LBB2386:
.LBB2384:
.LBB2382:
.LBB2379:
.LBB2371:
.LBB2372:
.LBB2373:
	.loc 5 66 0
	lwz 11,-4(9)
.LVL235:
.LBE2373:
.LBE2372:
.LBE2371:
	.loc 3 240 0
	cmpwi 7,11,0
.LBB2376:
.LBB2375:
.LBB2374:
	.loc 5 67 0
	addi 11,11,-1
	stw 11,-4(9)
.LBE2374:
.LBE2375:
.LBE2376:
	.loc 3 240 0
	bgt+ 7,.L134
	.loc 3 244 0
	addi 4,1,10
	bl _ZNSs4_Rep10_M_destroyERKSaIcE
.LVL236:
	b .L134
.LVL237:
.L151:
	mr 31,3
.LVL238:
	b .L149
.LBE2379:
.LBE2382:
.LBE2384:
.LBE2386:
.LBE2424:
.LBE2426:
.LBE2429:
.LBE2433:
	.cfi_endproc
.LFE1251:
	.section	.gcc_except_table
.LLSDA1251:
	.byte	0xff
	.byte	0xff
	.byte	0x1
	.uleb128 .LLSDACSE1251-.LLSDACSB1251
.LLSDACSB1251:
	.uleb128 .LEHB14-.LFB1251
	.uleb128 .LEHE14-.LEHB14
	.uleb128 0
	.uleb128 0
	.uleb128 .LEHB15-.LFB1251
	.uleb128 .LEHE15-.LEHB15
	.uleb128 .L151-.LFB1251
	.uleb128 0
	.uleb128 .LEHB16-.LFB1251
	.uleb128 .LEHE16-.LEHB16
	.uleb128 .L152-.LFB1251
	.uleb128 0
	.uleb128 .LEHB17-.LFB1251
	.uleb128 .LEHE17-.LEHB17
	.uleb128 .L151-.LFB1251
	.uleb128 0
	.uleb128 .LEHB18-.LFB1251
	.uleb128 .LEHE18-.LEHB18
	.uleb128 0
	.uleb128 0
	.uleb128 .LEHB19-.LFB1251
	.uleb128 .LEHE19-.LEHB19
	.uleb128 .L151-.LFB1251
	.uleb128 0
.LLSDACSE1251:
	.section	".text"
	.size	_ZN4Nand9CreateDirESs.constprop.50, .-_ZN4Nand9CreateDirESs.constprop.50
	.align 2
	.globl _ZN4Nand7StartupEv
	.type	_ZN4Nand7StartupEv, @function
_ZN4Nand7StartupEv:
.LFB1026:
	.loc 9 14 0
	.cfi_startproc
	stwu 1,-16(1)
.LCFI21:
	.cfi_def_cfa_offset 16
	mflr 0
.LBB2434:
	.loc 9 16 0
	li 3,0
.LBE2434:
	.loc 9 14 0
	stw 31,12(1)
.LBB2435:
	.loc 9 15 0
	lis 31,_ZN4Nand11InitializedE@ha
	.cfi_offset 31, -4
	.cfi_register 65, 0
.LBE2435:
	.loc 9 14 0
	stw 0,20(1)
.LBB2436:
	.loc 9 15 0
	lbz 0,_ZN4Nand11InitializedE@l(31)
	.cfi_offset 65, 4
	cmpwi 7,0,0
	bne+ 7,.L168
	.loc 9 18 0
	bl ISFS_Initialize
.LVL239:
	.loc 9 19 0
	cntlzw 0,3
	srwi 0,0,5
	stb 0,_ZN4Nand11InitializedE@l(31)
.LVL240:
.L168:
.LBE2436:
	.loc 9 22 0
	lwz 0,20(1)
	lwz 31,12(1)
	mtlr 0
	addi 1,1,16
.LCFI22:
	.cfi_def_cfa_offset 0
	.cfi_restore 31
	blr
	.cfi_endproc
.LFE1026:
	.size	_ZN4Nand7StartupEv, .-_ZN4Nand7StartupEv
	.align 2
	.globl _ZN4Nand8ShutdownEv
	.type	_ZN4Nand8ShutdownEv, @function
_ZN4Nand8ShutdownEv:
.LFB1027:
	.loc 9 25 0
	.cfi_startproc
	stwu 1,-16(1)
.LCFI23:
	.cfi_def_cfa_offset 16
	mflr 0
	stw 31,12(1)
	.loc 9 26 0
	lis 31,_ZN4Nand11InitializedE@ha
	.cfi_offset 31, -4
	.cfi_register 65, 0
	.loc 9 25 0
	stw 0,20(1)
	.loc 9 26 0
	lbz 0,_ZN4Nand11InitializedE@l(31)
	.cfi_offset 65, 4
	cmpwi 7,0,0
	beq+ 7,.L170
	.loc 9 29 0
	bl ISFS_Deinitialize
	.loc 9 30 0
	li 0,0
	stb 0,_ZN4Nand11InitializedE@l(31)
.L170:
	.loc 9 31 0
	lwz 0,20(1)
	lwz 31,12(1)
	mtlr 0
	addi 1,1,16
.LCFI24:
	.cfi_def_cfa_offset 0
	.cfi_restore 31
	blr
	.cfi_endproc
.LFE1027:
	.size	_ZN4Nand8ShutdownEv, .-_ZN4Nand8ShutdownEv
	.align 2
	.globl _ZN4Nand9CreateDirESs
	.type	_ZN4Nand9CreateDirESs, @function
_ZN4Nand9CreateDirESs:
.LFB1028:
	.loc 9 34 0
	.cfi_startproc
	.cfi_personality 0,__gxx_personality_v0
	.cfi_lsda 0,.LLSDA1028
.LVL241:
	mflr 0
	stwu 1,-40(1)
.LCFI25:
	.cfi_def_cfa_offset 40
	.cfi_register 65, 0
	mfcr 12
.LBB2584:
	.loc 9 35 0
	li 4,0
.LBE2584:
	.loc 9 34 0
	stw 31,36(1)
	mr 31,3
	.cfi_offset 31, -4
	.cfi_register 70, 12
.LVL242:
	stw 0,44(1)
.LBB2684:
	.loc 9 35 0
	li 5,3
	li 6,3
	li 7,3
	lwz 3,0(3)
.LVL243:
.LBE2684:
	.loc 9 34 0
	stw 30,32(1)
	stw 29,28(1)
	stw 12,24(1)
.LEHB20:
.LBB2685:
	.loc 9 35 0
	.cfi_offset 70, -16
	.cfi_offset 29, -12
	.cfi_offset 30, -8
	.cfi_offset 65, 4
	bl ISFS_CreateDir
.LVL244:
.LBB2585:
	.loc 9 36 0
	cmpwi 4,3,0
	mr 30,3
	blt- 4,.L211
.LVL245:
.L173:
.LBE2585:
	.loc 9 57 0
	lwz 3,0(31)
	li 4,0
	li 5,0
	li 6,0
	li 7,3
	li 8,3
	li 9,3
	bl ISFS_SetAttr
	mr 30,3
.LVL246:
.L200:
.LBE2685:
	.loc 9 60 0
	lwz 0,44(1)
	mr 3,30
	lwz 12,24(1)
	mtlr 0
	lwz 29,28(1)
	lwz 30,32(1)
.LVL247:
	mtcrf 8,12
	lwz 31,36(1)
.LVL248:
	addi 1,1,40
	.cfi_remember_state
.LCFI26:
	.cfi_def_cfa_offset 0
	.cfi_restore 70
	.cfi_restore 31
	.cfi_restore 30
	.cfi_restore 29
	blr
.LVL249:
.L179:
.LCFI27:
	.cfi_restore_state
.LBB2686:
.LBB2681:
.LBB2586:
.LBB2587:
.LBB2588:
	.loc 3 711 0
	lwz 9,-12(9)
.LBE2588:
.LBE2587:
	.loc 9 39 0
	addi 4,9,-1
.LVL250:
.LBB2589:
.LBB2590:
.LBB2591:
.LBB2592:
	.loc 3 318 0
	cmplw 7,4,9
	bgt- 7,.L213
.LVL251:
.LBE2592:
.LBE2591:
	.loc 3 1349 0
	mr 3,31
	li 5,1
	li 6,0
	bl _ZNSs9_M_mutateEjjj
.LVL252:
.L211:
.LBE2590:
.LBE2589:
.LBB2596:
.LBB2597:
.LBB2598:
.LBB2599:
.LBB2600:
	.loc 3 288 0
	lwz 9,0(31)
.LBE2600:
.LBE2599:
.LBE2598:
	.loc 3 711 0
	lwz 29,-12(9)
.LVL253:
.LBE2597:
.LBE2596:
.LBB2601:
.LBB2602:
	.loc 3 911 0
	cmpwi 7,29,0
	addi 29,29,-1
	beq- 7,.L214
.LVL254:
.LBB2603:
.LBB2604:
	.loc 3 311 0
	lwz 0,-4(9)
	cmpwi 7,0,0
	blt- 7,.L178
	.loc 3 312 0
	mr 3,31
	bl _ZNSs12_M_leak_hardEv
.LVL255:
	lwz 9,0(31)
.L178:
.LBE2604:
.LBE2603:
.LBE2602:
.LBE2601:
	.loc 9 38 0
	lbzx 0,9,29
	cmpwi 7,0,47
	beq+ 7,.L179
	.loc 9 41 0
	addi 3,1,16
	mr 4,31
	bl _ZNSsC1ERKSs
.LEHE20:
.LVL256:
.LBB2606:
.LBB2607:
	.loc 3 2005 0
	lis 4,.LC0@ha
	addi 3,1,16
.LVL257:
	la 4,.LC0@l(4)
	li 5,-1
	li 6,1
.LEHB21:
	bl _ZNKSs12find_last_ofEPKcjj
.LVL258:
.LBE2607:
.LBE2606:
	.loc 9 43 0
	cmpwi 7,3,-1
	beq- 7,.L215
.LVL259:
.LBB2608:
.LBB2609:
.LBB2610:
.LBB2611:
.LBB2612:
.LBB2613:
	.loc 3 711 0
	lwz 9,16(1)
	lwz 5,-12(9)
.LBE2613:
.LBE2612:
	.loc 3 318 0
	cmplw 7,3,5
	bgt- 7,.L216
.LVL260:
.LBE2611:
.LBE2610:
	.loc 3 1349 0
	mr 4,3
	li 6,0
	addi 3,1,16
.LVL261:
	subf 5,4,5
	bl _ZNSs9_M_mutateEjjj
.LVL262:
.LBE2609:
.LBE2608:
	.loc 9 46 0
	addi 3,1,12
	addi 4,1,16
.LVL263:
	bl _ZNSsC1ERKSs
.LEHE21:
.LVL264:
	.loc 9 46 0 is_stmt 0 discriminator 1
	addi 3,1,12
.LEHB22:
	bl _ZN4Nand9CreateDirESs.constprop.50
.LEHE22:
.LBB2617:
.LBB2618:
.LBB2619:
.LBB2620:
.LBB2621:
.LBB2622:
	.loc 3 288 0 is_stmt 1 discriminator 1
	lwz 9,12(1)
.LBE2622:
.LBE2621:
.LBE2620:
.LBB2623:
.LBB2624:
	.loc 3 235 0 discriminator 1
	lis 29,_ZNSs4_Rep20_S_empty_rep_storageE@ha
.LVL265:
.LBE2624:
.LBE2623:
.LBE2619:
.LBE2618:
.LBE2617:
	.loc 9 46 0 discriminator 1
	mr 30,3
.LVL266:
.LBB2641:
.LBB2639:
.LBB2637:
.LBB2634:
.LBB2631:
	.loc 3 235 0 discriminator 1
	la 29,_ZNSs4_Rep20_S_empty_rep_storageE@l(29)
.LBE2631:
.LBE2634:
	.loc 3 534 0 discriminator 1
	addi 3,9,-12
.LVL267:
.LBB2635:
.LBB2632:
	.loc 3 235 0 discriminator 1
	cmpw 7,3,29
	bne- 7,.L217
.LVL268:
.L187:
.LBE2632:
.LBE2635:
.LBE2637:
.LBE2639:
.LBE2641:
	.loc 9 47 0 discriminator 1
	cmpwi 7,30,0
	blt- 7,.L218
.LVL269:
	.loc 9 50 0
	lwz 3,0(31)
	li 4,0
	li 5,3
	li 6,3
	li 7,3
.LEHB23:
	bl ISFS_CreateDir
.LEHE23:
	cmpwi 4,3,0
	mr 30,3
.LVL270:
.L180:
.LBB2642:
.LBB2643:
.LBB2644:
.LBB2645:
.LBB2646:
.LBB2647:
	.loc 3 288 0
	lwz 9,16(1)
.LBE2647:
.LBE2646:
.LBE2645:
	.loc 3 534 0
	addi 3,9,-12
.LVL271:
.LBB2648:
.LBB2649:
	.loc 3 235 0
	cmpw 7,3,29
	bne- 7,.L219
.L195:
.LBE2649:
.LBE2648:
.LBE2644:
.LBE2643:
.LBE2642:
.LBE2586:
.LBE2681:
	.loc 9 54 0
	bge- 4,.L173
.LVL272:
.L212:
.LBE2686:
	.loc 9 60 0
	lwz 0,44(1)
	mr 3,30
	lwz 12,24(1)
	mtlr 0
	lwz 29,28(1)
	lwz 30,32(1)
.LVL273:
	mtcrf 8,12
	lwz 31,36(1)
.LVL274:
	addi 1,1,40
	.cfi_remember_state
	.cfi_restore 29
	.cfi_restore 30
	.cfi_restore 31
	.cfi_restore 70
.LCFI28:
	.cfi_def_cfa_offset 0
	blr
.LVL275:
.L215:
.LCFI29:
	.cfi_restore_state
	lis 29,_ZNSs4_Rep20_S_empty_rep_storageE@ha
.LVL276:
	la 29,_ZNSs4_Rep20_S_empty_rep_storageE@l(29)
	b .L180
.LVL277:
.L218:
.LBB2687:
.LBB2682:
.LBB2679:
.LBB2660:
.LBB2661:
.LBB2662:
.LBB2663:
.LBB2664:
.LBB2665:
	.loc 3 288 0
	lwz 9,16(1)
.LBE2665:
.LBE2664:
.LBE2663:
	.loc 3 534 0
	addi 3,9,-12
.LVL278:
.LBB2666:
.LBB2667:
	.loc 3 235 0
	cmpw 7,3,29
	beq+ 7,.L200
.LVL279:
.LBB2668:
.LBB2669:
.LBB2670:
	.loc 5 66 0
	lwz 11,-4(9)
.LVL280:
.LBE2670:
.LBE2669:
.LBE2668:
	.loc 3 240 0
	cmpwi 7,11,0
.LBB2673:
.LBB2672:
.LBB2671:
	.loc 5 67 0
	addi 11,11,-1
	stw 11,-4(9)
.LBE2671:
.LBE2672:
.LBE2673:
	.loc 3 240 0
	bgt+ 7,.L200
	.loc 3 244 0
	addi 4,1,9
	bl _ZNSs4_Rep10_M_destroyERKSaIcE
.LVL281:
	b .L200
.LVL282:
.L213:
.LBE2667:
.LBE2666:
.LBE2662:
.LBE2661:
.LBE2660:
.LBB2674:
.LBB2595:
.LBB2594:
.LBB2593:
	.loc 3 319 0
	lis 3,.LC1@ha
	la 3,.LC1@l(3)
.LEHB24:
	bl _ZSt20__throw_out_of_rangePKc
.LVL283:
.L214:
.LBE2593:
.LBE2594:
.LBE2595:
.LBE2674:
.LBB2675:
.LBB2605:
	.loc 3 912 0
	lis 3,.LC3@ha
	la 3,.LC3@l(3)
	bl _ZSt20__throw_out_of_rangePKc
.LVL284:
.L219:
.LBE2605:
.LBE2675:
.LBB2676:
.LBB2659:
.LBB2658:
.LBB2657:
.LBB2656:
.LBB2650:
.LBB2651:
.LBB2652:
	.loc 5 66 0
	lwz 11,-4(9)
.LVL285:
.LBE2652:
.LBE2651:
.LBE2650:
	.loc 3 240 0
	cmpwi 7,11,0
.LBB2655:
.LBB2654:
.LBB2653:
	.loc 5 67 0
	addi 11,11,-1
	stw 11,-4(9)
.LBE2653:
.LBE2654:
.LBE2655:
	.loc 3 240 0
	bgt+ 7,.L195
	.loc 3 244 0
	addi 4,1,8
	bl _ZNSs4_Rep10_M_destroyERKSaIcE
.LVL286:
.LBE2656:
.LBE2657:
.LBE2658:
.LBE2659:
.LBE2676:
.LBE2679:
.LBE2682:
	.loc 9 54 0
	blt+ 4,.L212
	b .L173
.LVL287:
.L205:
	mr 31,3
.LVL288:
.LBB2683:
.LBB2680:
	.loc 9 46 0
	addi 3,1,12
	bl _ZNSsD1Ev
.LVL289:
.L202:
	.loc 9 51 0
	addi 3,1,16
.LVL290:
	bl _ZNSsD1Ev
.LVL291:
	mr 3,31
	bl _Unwind_Resume
.LEHE24:
.LVL292:
.L216:
.LBB2677:
.LBB2616:
.LBB2615:
.LBB2614:
	.loc 3 319 0
	lis 3,.LC1@ha
.LVL293:
	la 3,.LC1@l(3)
.LEHB25:
	bl _ZSt20__throw_out_of_rangePKc
.LEHE25:
.LVL294:
.L217:
.LBE2614:
.LBE2615:
.LBE2616:
.LBE2677:
.LBB2678:
.LBB2640:
.LBB2638:
.LBB2636:
.LBB2633:
.LBB2625:
.LBB2626:
.LBB2627:
	.loc 5 66 0
	lwz 11,-4(9)
.LVL295:
.LBE2627:
.LBE2626:
.LBE2625:
	.loc 3 240 0
	cmpwi 7,11,0
.LBB2630:
.LBB2629:
.LBB2628:
	.loc 5 67 0
	addi 11,11,-1
	stw 11,-4(9)
.LBE2628:
.LBE2629:
.LBE2630:
	.loc 3 240 0
	bgt+ 7,.L187
	.loc 3 244 0
	addi 4,1,10
	bl _ZNSs4_Rep10_M_destroyERKSaIcE
.LVL296:
	b .L187
.LVL297:
.L204:
	mr 31,3
.LVL298:
	b .L202
.LBE2633:
.LBE2636:
.LBE2638:
.LBE2640:
.LBE2678:
.LBE2680:
.LBE2683:
.LBE2687:
	.cfi_endproc
.LFE1028:
	.section	.gcc_except_table
.LLSDA1028:
	.byte	0xff
	.byte	0xff
	.byte	0x1
	.uleb128 .LLSDACSE1028-.LLSDACSB1028
.LLSDACSB1028:
	.uleb128 .LEHB20-.LFB1028
	.uleb128 .LEHE20-.LEHB20
	.uleb128 0
	.uleb128 0
	.uleb128 .LEHB21-.LFB1028
	.uleb128 .LEHE21-.LEHB21
	.uleb128 .L204-.LFB1028
	.uleb128 0
	.uleb128 .LEHB22-.LFB1028
	.uleb128 .LEHE22-.LEHB22
	.uleb128 .L205-.LFB1028
	.uleb128 0
	.uleb128 .LEHB23-.LFB1028
	.uleb128 .LEHE23-.LEHB23
	.uleb128 .L204-.LFB1028
	.uleb128 0
	.uleb128 .LEHB24-.LFB1028
	.uleb128 .LEHE24-.LEHB24
	.uleb128 0
	.uleb128 0
	.uleb128 .LEHB25-.LFB1028
	.uleb128 .LEHE25-.LEHB25
	.uleb128 .L204-.LFB1028
	.uleb128 0
.LLSDACSE1028:
	.section	".text"
	.size	_ZN4Nand9CreateDirESs, .-_ZN4Nand9CreateDirESs
	.align 2
	.globl _ZN4Nand10CreateFileESshhhhjt
	.type	_ZN4Nand10CreateFileESshhhhjt, @function
_ZN4Nand10CreateFileESshhhhjt:
.LFB1029:
	.loc 9 63 0
	.cfi_startproc
.LVL299:
	mflr 0
	stwu 1,-40(1)
.LCFI30:
	.cfi_def_cfa_offset 40
	.cfi_register 65, 0
	stw 31,36(1)
	mr 31,3
	.cfi_offset 31, -4
.LVL300:
	stw 0,44(1)
	stw 25,12(1)
	mr 25,9
	.cfi_offset 25, -28
	.cfi_offset 65, 4
.LBB2688:
	.loc 9 64 0
	lwz 3,0(3)
.LVL301:
.LBE2688:
	.loc 9 63 0
	stw 26,16(1)
	mr 26,8
	.cfi_offset 26, -24
	stw 27,20(1)
	mr 27,4
	.cfi_offset 27, -20
	stw 28,24(1)
	mr 28,5
	.cfi_offset 28, -16
	stw 29,28(1)
	mr 29,6
	.cfi_offset 29, -12
	stw 30,32(1)
	.loc 9 63 0
	mr 30,7
	.cfi_offset 30, -8
.LBB2689:
	.loc 9 64 0
	bl ISFS_CreateFile
.LVL302:
	.loc 9 66 0
	cmpwi 0,3,0
	blt- 0,.L221
.LVL303:
	.loc 9 69 0
	lwz 3,0(31)
.LVL304:
	mr 4,26
	mr 5,25
	mr 6,27
	mr 7,28
	mr 8,29
	mr 9,30
	bl ISFS_SetAttr
.LVL305:
.L221:
.LBE2689:
	.loc 9 72 0
	lwz 0,44(1)
	lwz 25,12(1)
	mtlr 0
	lwz 26,16(1)
.LVL306:
	lwz 27,20(1)
	lwz 28,24(1)
	lwz 29,28(1)
	lwz 30,32(1)
	lwz 31,36(1)
.LVL307:
	addi 1,1,40
.LCFI31:
	.cfi_def_cfa_offset 0
	.cfi_restore 31
	.cfi_restore 30
	.cfi_restore 29
	.cfi_restore 28
	.cfi_restore 27
	.cfi_restore 26
	.cfi_restore 25
	blr
	.cfi_endproc
.LFE1029:
	.size	_ZN4Nand10CreateFileESshhhhjt, .-_ZN4Nand10CreateFileESshhhhjt
	.align 2
	.globl _ZN4Nand4OpenESsh
	.type	_ZN4Nand4OpenESsh, @function
_ZN4Nand4OpenESsh:
.LFB1030:
	.loc 9 75 0
	.cfi_startproc
.LVL308:
	mflr 0
	stwu 1,-8(1)
.LCFI32:
	.cfi_def_cfa_offset 8
	.cfi_register 65, 0
	stw 0,12(1)
	.loc 9 76 0
	lwz 3,0(3)
.LVL309:
	.cfi_offset 65, 4
	bl ISFS_Open
.LVL310:
	.loc 9 77 0
	lwz 0,12(1)
	addi 1,1,8
.LCFI33:
	.cfi_def_cfa_offset 0
	mtlr 0
	blr
	.cfi_endproc
.LFE1030:
	.size	_ZN4Nand4OpenESsh, .-_ZN4Nand4OpenESsh
	.align 2
	.globl _ZN4Nand8OpenReadESs
	.type	_ZN4Nand8OpenReadESs, @function
_ZN4Nand8OpenReadESs:
.LFB1031:
	.loc 9 80 0
	.cfi_startproc
	.cfi_personality 0,__gxx_personality_v0
	.cfi_lsda 0,.LLSDA1031
.LVL311:
	stwu 1,-32(1)
.LCFI34:
	.cfi_def_cfa_offset 32
	mflr 0
	mr 4,3
	.loc 9 81 0
	addi 3,1,12
.LVL312:
	.loc 9 80 0
	stw 31,28(1)
	stw 0,36(1)
.LEHB26:
	.loc 9 81 0
	.cfi_offset 31, -4
	.cfi_offset 65, 4
	bl _ZNSsC1ERKSs
.LEHE26:
.LVL313:
.LBB2716:
.LBB2717:
	.loc 9 76 0
	lwz 3,12(1)
	li 4,1
.LEHB27:
	bl ISFS_Open
.LEHE27:
.LBE2717:
.LBE2716:
.LBB2719:
.LBB2720:
.LBB2721:
.LBB2722:
.LBB2723:
.LBB2724:
	.loc 3 288 0
	lwz 9,12(1)
.LBE2724:
.LBE2723:
.LBE2722:
.LBB2725:
.LBB2726:
	.loc 3 235 0
	lis 11,_ZNSs4_Rep20_S_empty_rep_storageE@ha
.LBE2726:
.LBE2725:
.LBE2721:
.LBE2720:
.LBE2719:
.LBB2743:
.LBB2718:
	.loc 9 76 0
	mr 31,3
.LVL314:
.LBE2718:
.LBE2743:
.LBB2744:
.LBB2741:
.LBB2739:
.LBB2736:
.LBB2733:
	.loc 3 235 0
	la 0,_ZNSs4_Rep20_S_empty_rep_storageE@l(11)
.LBE2733:
.LBE2736:
	.loc 3 534 0
	addi 3,9,-12
.LVL315:
.LBB2737:
.LBB2734:
	.loc 3 235 0
	cmpw 7,3,0
	bne- 7,.L232
.LVL316:
.L229:
.LBE2734:
.LBE2737:
.LBE2739:
.LBE2741:
.LBE2744:
	.loc 9 82 0
	lwz 0,36(1)
	mr 3,31
	lwz 31,28(1)
	mtlr 0
	addi 1,1,32
	.cfi_remember_state
.LCFI35:
	.cfi_def_cfa_offset 0
	.cfi_restore 31
	blr
.LVL317:
.L232:
.LCFI36:
	.cfi_restore_state
.LBB2745:
.LBB2742:
.LBB2740:
.LBB2738:
.LBB2735:
.LBB2727:
.LBB2728:
.LBB2729:
	.loc 5 66 0
	lwz 11,-4(9)
.LVL318:
.LBE2729:
.LBE2728:
.LBE2727:
	.loc 3 240 0
	cmpwi 7,11,0
.LBB2732:
.LBB2731:
.LBB2730:
	.loc 5 67 0
	addi 11,11,-1
	stw 11,-4(9)
.LBE2730:
.LBE2731:
.LBE2732:
	.loc 3 240 0
	bgt+ 7,.L229
	.loc 3 244 0
	addi 4,1,8
	bl _ZNSs4_Rep10_M_destroyERKSaIcE
.LVL319:
	b .L229
.LVL320:
.L231:
	mr 31,3
.LBE2735:
.LBE2738:
.LBE2740:
.LBE2742:
.LBE2745:
	.loc 9 81 0
	addi 3,1,12
.LVL321:
	bl _ZNSsD1Ev
.LVL322:
	mr 3,31
.LEHB28:
	bl _Unwind_Resume
.LEHE28:
	.cfi_endproc
.LFE1031:
	.section	.gcc_except_table
.LLSDA1031:
	.byte	0xff
	.byte	0xff
	.byte	0x1
	.uleb128 .LLSDACSE1031-.LLSDACSB1031
.LLSDACSB1031:
	.uleb128 .LEHB26-.LFB1031
	.uleb128 .LEHE26-.LEHB26
	.uleb128 0
	.uleb128 0
	.uleb128 .LEHB27-.LFB1031
	.uleb128 .LEHE27-.LEHB27
	.uleb128 .L231-.LFB1031
	.uleb128 0
	.uleb128 .LEHB28-.LFB1031
	.uleb128 .LEHE28-.LEHB28
	.uleb128 0
	.uleb128 0
.LLSDACSE1031:
	.section	".text"
	.size	_ZN4Nand8OpenReadESs, .-_ZN4Nand8OpenReadESs
	.align 2
	.globl _ZN4Nand13OpenReadWriteESs
	.type	_ZN4Nand13OpenReadWriteESs, @function
_ZN4Nand13OpenReadWriteESs:
.LFB1032:
	.loc 9 85 0
	.cfi_startproc
	.cfi_personality 0,__gxx_personality_v0
	.cfi_lsda 0,.LLSDA1032
.LVL323:
	stwu 1,-32(1)
.LCFI37:
	.cfi_def_cfa_offset 32
	mflr 0
	mr 4,3
	.loc 9 86 0
	addi 3,1,12
.LVL324:
	.loc 9 85 0
	stw 31,28(1)
	stw 0,36(1)
.LEHB29:
	.loc 9 86 0
	.cfi_offset 31, -4
	.cfi_offset 65, 4
	bl _ZNSsC1ERKSs
.LEHE29:
.LVL325:
.LBB2772:
.LBB2773:
	.loc 9 76 0
	lwz 3,12(1)
	li 4,3
.LEHB30:
	bl ISFS_Open
.LEHE30:
.LBE2773:
.LBE2772:
.LBB2775:
.LBB2776:
.LBB2777:
.LBB2778:
.LBB2779:
.LBB2780:
	.loc 3 288 0
	lwz 9,12(1)
.LBE2780:
.LBE2779:
.LBE2778:
.LBB2781:
.LBB2782:
	.loc 3 235 0
	lis 11,_ZNSs4_Rep20_S_empty_rep_storageE@ha
.LBE2782:
.LBE2781:
.LBE2777:
.LBE2776:
.LBE2775:
.LBB2799:
.LBB2774:
	.loc 9 76 0
	mr 31,3
.LVL326:
.LBE2774:
.LBE2799:
.LBB2800:
.LBB2797:
.LBB2795:
.LBB2792:
.LBB2789:
	.loc 3 235 0
	la 0,_ZNSs4_Rep20_S_empty_rep_storageE@l(11)
.LBE2789:
.LBE2792:
	.loc 3 534 0
	addi 3,9,-12
.LVL327:
.LBB2793:
.LBB2790:
	.loc 3 235 0
	cmpw 7,3,0
	bne- 7,.L242
.LVL328:
.L239:
.LBE2790:
.LBE2793:
.LBE2795:
.LBE2797:
.LBE2800:
	.loc 9 87 0
	lwz 0,36(1)
	mr 3,31
	lwz 31,28(1)
	mtlr 0
	addi 1,1,32
	.cfi_remember_state
.LCFI38:
	.cfi_def_cfa_offset 0
	.cfi_restore 31
	blr
.LVL329:
.L242:
.LCFI39:
	.cfi_restore_state
.LBB2801:
.LBB2798:
.LBB2796:
.LBB2794:
.LBB2791:
.LBB2783:
.LBB2784:
.LBB2785:
	.loc 5 66 0
	lwz 11,-4(9)
.LVL330:
.LBE2785:
.LBE2784:
.LBE2783:
	.loc 3 240 0
	cmpwi 7,11,0
.LBB2788:
.LBB2787:
.LBB2786:
	.loc 5 67 0
	addi 11,11,-1
	stw 11,-4(9)
.LBE2786:
.LBE2787:
.LBE2788:
	.loc 3 240 0
	bgt+ 7,.L239
	.loc 3 244 0
	addi 4,1,8
	bl _ZNSs4_Rep10_M_destroyERKSaIcE
.LVL331:
	b .L239
.LVL332:
.L241:
	mr 31,3
.LBE2791:
.LBE2794:
.LBE2796:
.LBE2798:
.LBE2801:
	.loc 9 86 0
	addi 3,1,12
.LVL333:
	bl _ZNSsD1Ev
.LVL334:
	mr 3,31
.LEHB31:
	bl _Unwind_Resume
.LEHE31:
	.cfi_endproc
.LFE1032:
	.section	.gcc_except_table
.LLSDA1032:
	.byte	0xff
	.byte	0xff
	.byte	0x1
	.uleb128 .LLSDACSE1032-.LLSDACSB1032
.LLSDACSB1032:
	.uleb128 .LEHB29-.LFB1032
	.uleb128 .LEHE29-.LEHB29
	.uleb128 0
	.uleb128 0
	.uleb128 .LEHB30-.LFB1032
	.uleb128 .LEHE30-.LEHB30
	.uleb128 .L241-.LFB1032
	.uleb128 0
	.uleb128 .LEHB31-.LFB1032
	.uleb128 .LEHE31-.LEHB31
	.uleb128 0
	.uleb128 0
.LLSDACSE1032:
	.section	".text"
	.size	_ZN4Nand13OpenReadWriteESs, .-_ZN4Nand13OpenReadWriteESs
	.align 2
	.globl _ZN4Nand11GetFileSizeEi
	.type	_ZN4Nand11GetFileSizeEi, @function
_ZN4Nand11GetFileSizeEi:
.LFB1033:
	.loc 9 90 0
	.cfi_startproc
.LVL335:
	stwu 1,-24(1)
.LCFI40:
	.cfi_def_cfa_offset 24
	mfcr 12
	mflr 0
	stw 29,12(1)
.LBB2807:
	.loc 9 91 0
	mr. 29,3
	.cfi_offset 29, -12
	.cfi_register 65, 0
	.cfi_register 70, 12
.LBE2807:
	.loc 9 90 0
	stw 30,16(1)
.LBB2808:
	.loc 9 92 0
	li 3,0
.LVL336:
.LBE2808:
	.loc 9 90 0
	stw 0,28(1)
	stw 31,20(1)
	stw 12,8(1)
.LBB2809:
	.loc 9 91 0
	ble- 0,.L244
	.cfi_offset 70, -16
	.cfi_offset 31, -4
	.cfi_offset 65, 4
	.cfi_offset 30, -8
.LVL337:
.LBE2809:
.LBB2810:
.LBB2811:
	.loc 9 94 0
	li 3,8
	bl _ZN8MemTools17AllocateMemory_64Ej
	mr 31,3
.LVL338:
	.loc 9 95 0
	mr 3,29
.LVL339:
	mr 4,31
	bl ISFS_GetFileStats
.LVL340:
	.loc 9 96 0
	cmpwi 4,3,0
	mr 30,3
	blt- 4,.L245
	.loc 9 97 0
	lwz 30,0(31)
.LVL341:
	cmpwi 4,30,0
.LVL342:
.L245:
	.loc 9 99 0
	mr 3,31
	bl free
	.loc 9 101 0
	mr 3,30
	blt- 4,.L248
.LVL343:
.L244:
.LBE2811:
.LBE2810:
	.loc 9 102 0
	lwz 0,28(1)
	lwz 12,8(1)
	mtlr 0
	lwz 29,12(1)
.LVL344:
	lwz 30,16(1)
	mtcrf 8,12
	lwz 31,20(1)
	addi 1,1,24
	.cfi_remember_state
.LCFI41:
	.cfi_def_cfa_offset 0
	.cfi_restore 70
	.cfi_restore 31
	.cfi_restore 30
	.cfi_restore 29
	blr
.LVL345:
.L248:
.LCFI42:
	.cfi_restore_state
	lwz 0,28(1)
.LBB2813:
.LBB2812:
	.loc 9 101 0
	li 3,0
.LVL346:
.LBE2812:
.LBE2813:
	.loc 9 102 0
	lwz 12,8(1)
	mtlr 0
	lwz 29,12(1)
.LVL347:
	lwz 30,16(1)
.LVL348:
	mtcrf 8,12
	lwz 31,20(1)
.LVL349:
	addi 1,1,24
	.cfi_restore 29
	.cfi_restore 30
	.cfi_restore 31
	.cfi_restore 70
.LCFI43:
	.cfi_def_cfa_offset 0
	blr
	.cfi_endproc
.LFE1033:
	.size	_ZN4Nand11GetFileSizeEi, .-_ZN4Nand11GetFileSizeEi
	.align 2
	.globl _ZN4Nand11GetFileSizeESs
	.type	_ZN4Nand11GetFileSizeESs, @function
_ZN4Nand11GetFileSizeESs:
.LFB1034:
	.loc 9 105 0
	.cfi_startproc
	.cfi_personality 0,__gxx_personality_v0
	.cfi_lsda 0,.LLSDA1034
.LVL350:
	mflr 0
	stwu 1,-40(1)
.LCFI44:
	.cfi_def_cfa_offset 40
	.cfi_register 65, 0
	mfcr 12
	mr 4,3
.LVL351:
	stw 31,36(1)
.LBB2878:
	.loc 9 107 0
	li 31,0
	.cfi_offset 31, -4
	.cfi_register 70, 12
.LBE2878:
	.loc 9 105 0
	stw 0,44(1)
	stw 29,28(1)
.LBB2946:
.LBB2879:
.LBB2880:
.LBB2881:
	.loc 3 711 0
	lwz 9,0(3)
.LBE2881:
.LBE2880:
.LBE2879:
.LBE2946:
	.loc 9 105 0
	stw 30,32(1)
.LBB2947:
	.loc 9 106 0
	lwz 0,-12(9)
	.cfi_offset 30, -8
	.cfi_offset 29, -12
	.cfi_offset 65, 4
.LBE2947:
	.loc 9 105 0
	stw 12,24(1)
.LBB2948:
	.loc 9 106 0
	cmpwi 7,0,0
	bne- 7,.L273
	.cfi_offset 70, -16
.LVL352:
.L250:
.LBE2948:
	.loc 9 119 0
	lwz 0,44(1)
	mr 3,31
	lwz 12,24(1)
	mtlr 0
	lwz 29,28(1)
	lwz 30,32(1)
	mtcrf 8,12
	lwz 31,36(1)
	addi 1,1,40
	.cfi_remember_state
.LCFI45:
	.cfi_def_cfa_offset 0
	.cfi_restore 70
	.cfi_restore 31
	.cfi_restore 30
	.cfi_restore 29
	blr
.LVL353:
.L273:
.LCFI46:
	.cfi_restore_state
.LBB2949:
	.loc 9 111 0
	addi 3,1,16
.LVL354:
.LEHB32:
	bl _ZNSsC1ERKSs
.LEHE32:
.LVL355:
.LBB2882:
.LBB2883:
	.loc 9 81 0
	addi 3,1,12
	addi 4,1,16
.LVL356:
.LEHB33:
	bl _ZNSsC1ERKSs
.LEHE33:
.LVL357:
.LBB2884:
.LBB2885:
	.loc 9 76 0
	lwz 3,12(1)
	li 4,1
.LEHB34:
	bl ISFS_Open
.LEHE34:
.LBE2885:
.LBE2884:
.LBB2887:
.LBB2888:
.LBB2889:
.LBB2890:
.LBB2891:
.LBB2892:
	.loc 3 288 0
	lwz 9,12(1)
.LBE2892:
.LBE2891:
.LBE2890:
.LBB2893:
.LBB2894:
	.loc 3 235 0
	lis 31,_ZNSs4_Rep20_S_empty_rep_storageE@ha
.LBE2894:
.LBE2893:
.LBE2889:
.LBE2888:
.LBE2887:
.LBB2911:
.LBB2886:
	.loc 9 76 0
	mr 30,3
.LVL358:
.LBE2886:
.LBE2911:
.LBB2912:
.LBB2909:
.LBB2907:
.LBB2904:
.LBB2901:
	.loc 3 235 0
	la 31,_ZNSs4_Rep20_S_empty_rep_storageE@l(31)
.LBE2901:
.LBE2904:
	.loc 3 534 0
	addi 3,9,-12
.LVL359:
.LBB2905:
.LBB2902:
	.loc 3 235 0
	cmpw 7,3,31
	bne- 7,.L274
.LVL360:
.L256:
.LBE2902:
.LBE2905:
.LBE2907:
.LBE2909:
.LBE2912:
.LBE2883:
.LBE2882:
.LBB2916:
.LBB2917:
.LBB2918:
.LBB2919:
.LBB2920:
.LBB2921:
	.loc 3 288 0
	lwz 9,16(1)
.LBE2921:
.LBE2920:
.LBE2919:
	.loc 3 534 0
	addi 3,9,-12
.LVL361:
.LBB2922:
.LBB2923:
	.loc 3 235 0
	cmpw 7,3,31
	bne- 7,.L275
.LVL362:
.L265:
.LBE2923:
.LBE2922:
.LBE2918:
.LBE2917:
.LBE2916:
	.loc 9 112 0 discriminator 1
	cmpwi 7,30,0
	.loc 9 109 0 discriminator 1
	li 31,0
	.loc 9 112 0 discriminator 1
	blt- 7,.L250
.LVL363:
.LBB2934:
.LBB2935:
	.loc 9 91 0
	beq- 7,.L250
.LVL364:
.LBE2935:
.LBB2936:
.LBB2937:
	.loc 9 94 0
	li 3,8
.LEHB35:
	bl _ZN8MemTools17AllocateMemory_64Ej
	mr 31,3
.LVL365:
	.loc 9 95 0
	mr 3,30
.LVL366:
	mr 4,31
	bl ISFS_GetFileStats
.LVL367:
	.loc 9 96 0
	cmpwi 4,3,0
	mr 29,3
	blt- 4,.L266
	.loc 9 97 0
	lwz 29,0(31)
.LVL368:
	cmpwi 4,29,0
.LVL369:
.L266:
	.loc 9 99 0
	mr 3,31
	.loc 9 101 0
	mr 31,29
.LVL370:
	.loc 9 99 0
	bl free
.LVL371:
	.loc 9 101 0
	blt- 4,.L276
.L267:
.LVL372:
.LBE2937:
.LBE2936:
.LBE2934:
.LBB2940:
.LBB2941:
	.loc 9 161 0
	mr 3,30
	bl ISFS_Close
.LBE2941:
.LBE2940:
.LBE2949:
	.loc 9 119 0
	lwz 0,44(1)
	lwz 12,24(1)
	mr 3,31
	mtlr 0
	lwz 29,28(1)
.LVL373:
	lwz 30,32(1)
.LVL374:
	mtcrf 8,12
	lwz 31,36(1)
	addi 1,1,40
	.cfi_remember_state
	.cfi_restore 29
	.cfi_restore 30
	.cfi_restore 31
	.cfi_restore 70
.LCFI47:
	.cfi_def_cfa_offset 0
	blr
.LVL375:
.L276:
.LCFI48:
	.cfi_restore_state
.LBB2950:
.LBB2942:
.LBB2939:
.LBB2938:
	.loc 9 101 0
	li 31,0
	b .L267
.LVL376:
.L274:
.LBE2938:
.LBE2939:
.LBE2942:
.LBB2943:
.LBB2914:
.LBB2913:
.LBB2910:
.LBB2908:
.LBB2906:
.LBB2903:
.LBB2895:
.LBB2896:
.LBB2897:
	.loc 5 66 0
	lwz 11,-4(9)
.LVL377:
.LBE2897:
.LBE2896:
.LBE2895:
	.loc 3 240 0
	cmpwi 7,11,0
.LBB2900:
.LBB2899:
.LBB2898:
	.loc 5 67 0
	addi 11,11,-1
	stw 11,-4(9)
.LBE2898:
.LBE2899:
.LBE2900:
	.loc 3 240 0
	bgt+ 7,.L256
	.loc 3 244 0
	addi 4,1,9
	bl _ZNSs4_Rep10_M_destroyERKSaIcE
.LVL378:
	b .L256
.LVL379:
.L275:
.LBE2903:
.LBE2906:
.LBE2908:
.LBE2910:
.LBE2913:
.LBE2914:
.LBE2943:
.LBB2944:
.LBB2933:
.LBB2932:
.LBB2931:
.LBB2930:
.LBB2924:
.LBB2925:
.LBB2926:
	.loc 5 66 0
	lwz 11,-4(9)
.LVL380:
.LBE2926:
.LBE2925:
.LBE2924:
	.loc 3 240 0
	cmpwi 7,11,0
.LBB2929:
.LBB2928:
.LBB2927:
	.loc 5 67 0
	addi 11,11,-1
	stw 11,-4(9)
.LBE2927:
.LBE2928:
.LBE2929:
	.loc 3 240 0
	bgt+ 7,.L265
	.loc 3 244 0
	addi 4,1,8
	bl _ZNSs4_Rep10_M_destroyERKSaIcE
.LVL381:
	b .L265
.LVL382:
.L271:
	mr 31,3
.L260:
.LBE2930:
.LBE2931:
.LBE2932:
.LBE2933:
.LBE2944:
	.loc 9 111 0
	addi 3,1,16
.LVL383:
	bl _ZNSsD1Ev
.LVL384:
	mr 3,31
	bl _Unwind_Resume
.LEHE35:
.LVL385:
.L272:
	mr 31,3
.LBB2945:
.LBB2915:
	.loc 9 81 0
	addi 3,1,12
.LVL386:
	bl _ZNSsD1Ev
.LVL387:
	b .L260
.LBE2915:
.LBE2945:
.LBE2950:
	.cfi_endproc
.LFE1034:
	.section	.gcc_except_table
.LLSDA1034:
	.byte	0xff
	.byte	0xff
	.byte	0x1
	.uleb128 .LLSDACSE1034-.LLSDACSB1034
.LLSDACSB1034:
	.uleb128 .LEHB32-.LFB1034
	.uleb128 .LEHE32-.LEHB32
	.uleb128 0
	.uleb128 0
	.uleb128 .LEHB33-.LFB1034
	.uleb128 .LEHE33-.LEHB33
	.uleb128 .L271-.LFB1034
	.uleb128 0
	.uleb128 .LEHB34-.LFB1034
	.uleb128 .LEHE34-.LEHB34
	.uleb128 .L272-.LFB1034
	.uleb128 0
	.uleb128 .LEHB35-.LFB1034
	.uleb128 .LEHE35-.LEHB35
	.uleb128 0
	.uleb128 0
.LLSDACSE1034:
	.section	".text"
	.size	_ZN4Nand11GetFileSizeESs, .-_ZN4Nand11GetFileSizeESs
	.align 2
	.globl _ZN4Nand5CloseEi
	.type	_ZN4Nand5CloseEi, @function
_ZN4Nand5CloseEi:
.LFB1036:
	.loc 9 157 0
	.cfi_startproc
.LVL388:
	.loc 9 158 0
	cmpwi 7,3,0
	.loc 9 157 0
	mflr 0
	stwu 1,-8(1)
.LCFI49:
	.cfi_def_cfa_offset 8
	.cfi_register 65, 0
	stw 0,12(1)
	.loc 9 159 0
	li 0,0
	.cfi_offset 65, 4
	.loc 9 158 0
	ble- 7,.L278
	.loc 9 161 0
	bl ISFS_Close
.LVL389:
	mr 0,3
.L278:
	.loc 9 162 0
	mr 3,0
	lwz 0,12(1)
	addi 1,1,8
.LCFI50:
	.cfi_def_cfa_offset 0
	mtlr 0
	blr
	.cfi_endproc
.LFE1036:
	.size	_ZN4Nand5CloseEi, .-_ZN4Nand5CloseEi
	.align 2
	.globl _ZN4Nand9CheckFileESs
	.type	_ZN4Nand9CheckFileESs, @function
_ZN4Nand9CheckFileESs:
.LFB1037:
	.loc 9 165 0
	.cfi_startproc
	.cfi_personality 0,__gxx_personality_v0
	.cfi_lsda 0,.LLSDA1037
.LVL390:
	mflr 0
	stwu 1,-32(1)
.LCFI51:
	.cfi_def_cfa_offset 32
	.cfi_register 65, 0
	mr 4,3
.LVL391:
	stw 30,24(1)
	stw 0,36(1)
	stw 31,28(1)
.LBB3009:
.LBB3010:
.LBB3011:
.LBB3012:
	.loc 3 711 0
	lwz 9,0(3)
.LBE3012:
.LBE3011:
.LBE3010:
	.loc 9 169 0
	li 3,0
.LVL392:
	.loc 9 168 0
	lwz 0,-12(9)
	.cfi_offset 31, -4
	.cfi_offset 65, 4
	.cfi_offset 30, -8
	cmpwi 7,0,0
	bne- 7,.L302
.LVL393:
.L281:
.LBE3009:
	.loc 9 179 0
	lwz 0,36(1)
	lwz 30,24(1)
	mtlr 0
	lwz 31,28(1)
	addi 1,1,32
	.cfi_remember_state
.LCFI52:
	.cfi_def_cfa_offset 0
	.cfi_restore 31
	.cfi_restore 30
	blr
.LVL394:
.L302:
.LCFI53:
	.cfi_restore_state
.LBB3074:
	.loc 9 171 0
	addi 3,1,16
.LEHB36:
	bl _ZNSsC1ERKSs
.LEHE36:
.LVL395:
.LBB3013:
.LBB3014:
	.loc 9 81 0
	addi 3,1,12
	addi 4,1,16
.LVL396:
.LEHB37:
	bl _ZNSsC1ERKSs
.LEHE37:
.LVL397:
.LBB3015:
.LBB3016:
	.loc 9 76 0
	lwz 3,12(1)
	li 4,1
.LEHB38:
	bl ISFS_Open
.LEHE38:
.LBE3016:
.LBE3015:
.LBB3018:
.LBB3019:
.LBB3020:
.LBB3021:
.LBB3022:
.LBB3023:
	.loc 3 288 0
	lwz 9,12(1)
.LBE3023:
.LBE3022:
.LBE3021:
.LBB3024:
.LBB3025:
	.loc 3 235 0
	lis 31,_ZNSs4_Rep20_S_empty_rep_storageE@ha
.LBE3025:
.LBE3024:
.LBE3020:
.LBE3019:
.LBE3018:
.LBB3042:
.LBB3017:
	.loc 9 76 0
	mr 30,3
.LVL398:
.LBE3017:
.LBE3042:
.LBB3043:
.LBB3040:
.LBB3038:
.LBB3035:
.LBB3032:
	.loc 3 235 0
	la 31,_ZNSs4_Rep20_S_empty_rep_storageE@l(31)
.LBE3032:
.LBE3035:
	.loc 3 534 0
	addi 3,9,-12
.LVL399:
.LBB3036:
.LBB3033:
	.loc 3 235 0
	cmpw 7,3,31
	bne- 7,.L303
.LVL400:
.L287:
.LBE3033:
.LBE3036:
.LBE3038:
.LBE3040:
.LBE3043:
.LBE3014:
.LBE3013:
.LBB3047:
.LBB3048:
.LBB3049:
.LBB3050:
.LBB3051:
.LBB3052:
	.loc 3 288 0
	lwz 9,16(1)
.LBE3052:
.LBE3051:
.LBE3050:
	.loc 3 534 0
	addi 3,9,-12
.LVL401:
.LBB3053:
.LBB3054:
	.loc 3 235 0
	cmpw 7,3,31
	bne- 7,.L304
.LVL402:
.L296:
.LBE3054:
.LBE3053:
.LBE3049:
.LBE3048:
.LBE3047:
	.loc 9 172 0 discriminator 1
	cmpwi 7,30,0
	.loc 9 166 0 discriminator 1
	li 3,0
	.loc 9 172 0 discriminator 1
	blt- 7,.L281
.LVL403:
.LBB3065:
.LBB3066:
	.loc 9 158 0
	beq- 7,.L299
	.loc 9 161 0
	mr 3,30
.LEHB39:
	bl ISFS_Close
.LBE3066:
.LBE3065:
.LBE3074:
	.loc 9 179 0
	lwz 0,36(1)
	lwz 30,24(1)
.LVL404:
.LBB3075:
.LBB3069:
.LBB3067:
	.loc 9 174 0
	li 3,1
.LBE3067:
.LBE3069:
.LBE3075:
	.loc 9 179 0
	mtlr 0
	lwz 31,28(1)
	addi 1,1,32
	.cfi_remember_state
	.cfi_restore 30
	.cfi_restore 31
.LCFI54:
	.cfi_def_cfa_offset 0
	blr
.LVL405:
.L299:
.LCFI55:
	.cfi_restore_state
.LBB3076:
.LBB3070:
.LBB3068:
	.loc 9 174 0
	li 3,1
	b .L281
.LVL406:
.L304:
.LBE3068:
.LBE3070:
.LBB3071:
.LBB3064:
.LBB3063:
.LBB3062:
.LBB3061:
.LBB3055:
.LBB3056:
.LBB3057:
	.loc 5 66 0
	lwz 11,-4(9)
.LVL407:
.LBE3057:
.LBE3056:
.LBE3055:
	.loc 3 240 0
	cmpwi 7,11,0
.LBB3060:
.LBB3059:
.LBB3058:
	.loc 5 67 0
	addi 11,11,-1
	stw 11,-4(9)
.LBE3058:
.LBE3059:
.LBE3060:
	.loc 3 240 0
	bgt+ 7,.L296
	.loc 3 244 0
	addi 4,1,8
	bl _ZNSs4_Rep10_M_destroyERKSaIcE
.LVL408:
	b .L296
.LVL409:
.L303:
.LBE3061:
.LBE3062:
.LBE3063:
.LBE3064:
.LBE3071:
.LBB3072:
.LBB3045:
.LBB3044:
.LBB3041:
.LBB3039:
.LBB3037:
.LBB3034:
.LBB3026:
.LBB3027:
.LBB3028:
	.loc 5 66 0
	lwz 11,-4(9)
.LVL410:
.LBE3028:
.LBE3027:
.LBE3026:
	.loc 3 240 0
	cmpwi 7,11,0
.LBB3031:
.LBB3030:
.LBB3029:
	.loc 5 67 0
	addi 11,11,-1
	stw 11,-4(9)
.LBE3029:
.LBE3030:
.LBE3031:
	.loc 3 240 0
	bgt+ 7,.L287
	.loc 3 244 0
	addi 4,1,9
	bl _ZNSs4_Rep10_M_destroyERKSaIcE
.LVL411:
	b .L287
.LVL412:
.L300:
	mr 31,3
.L291:
.LBE3034:
.LBE3037:
.LBE3039:
.LBE3041:
.LBE3044:
.LBE3045:
.LBE3072:
	.loc 9 171 0
	addi 3,1,16
.LVL413:
	bl _ZNSsD1Ev
.LVL414:
	mr 3,31
	bl _Unwind_Resume
.LEHE39:
.LVL415:
.L301:
	mr 31,3
.LBB3073:
.LBB3046:
	.loc 9 81 0
	addi 3,1,12
.LVL416:
	bl _ZNSsD1Ev
.LVL417:
	b .L291
.LBE3046:
.LBE3073:
.LBE3076:
	.cfi_endproc
.LFE1037:
	.section	.gcc_except_table
.LLSDA1037:
	.byte	0xff
	.byte	0xff
	.byte	0x1
	.uleb128 .LLSDACSE1037-.LLSDACSB1037
.LLSDACSB1037:
	.uleb128 .LEHB36-.LFB1037
	.uleb128 .LEHE36-.LEHB36
	.uleb128 0
	.uleb128 0
	.uleb128 .LEHB37-.LFB1037
	.uleb128 .LEHE37-.LEHB37
	.uleb128 .L300-.LFB1037
	.uleb128 0
	.uleb128 .LEHB38-.LFB1037
	.uleb128 .LEHE38-.LEHB38
	.uleb128 .L301-.LFB1037
	.uleb128 0
	.uleb128 .LEHB39-.LFB1037
	.uleb128 .LEHE39-.LEHB39
	.uleb128 0
	.uleb128 0
.LLSDACSE1037:
	.section	".text"
	.size	_ZN4Nand9CheckFileESs, .-_ZN4Nand9CheckFileESs
	.align 2
	.globl _ZN4Nand6DeleteESs
	.type	_ZN4Nand6DeleteESs, @function
_ZN4Nand6DeleteESs:
.LFB1038:
	.loc 9 182 0
	.cfi_startproc
.LVL418:
	mflr 0
	stwu 1,-8(1)
.LCFI56:
	.cfi_def_cfa_offset 8
	.cfi_register 65, 0
	stw 0,12(1)
	.loc 9 183 0
	lwz 3,0(3)
.LVL419:
	.cfi_offset 65, 4
	bl ISFS_Delete
	.loc 9 184 0
	lwz 0,12(1)
	addi 1,1,8
.LCFI57:
	.cfi_def_cfa_offset 0
	mtlr 0
	blr
	.cfi_endproc
.LFE1038:
	.size	_ZN4Nand6DeleteESs, .-_ZN4Nand6DeleteESs
	.align 2
	.globl _ZN4Nand5WriteEiPhj
	.type	_ZN4Nand5WriteEiPhj, @function
_ZN4Nand5WriteEiPhj:
.LFB1039:
	.loc 9 187 0
	.cfi_startproc
.LVL420:
	mflr 0
	stwu 1,-8(1)
.LCFI58:
	.cfi_def_cfa_offset 8
	.cfi_register 65, 0
	stw 0,12(1)
	.loc 9 188 0
	.cfi_offset 65, 4
	bl ISFS_Write
.LVL421:
	.loc 9 189 0
	lwz 0,12(1)
	addi 1,1,8
.LCFI59:
	.cfi_def_cfa_offset 0
	mtlr 0
	blr
	.cfi_endproc
.LFE1039:
	.size	_ZN4Nand5WriteEiPhj, .-_ZN4Nand5WriteEiPhj
	.align 2
	.globl _ZN4Nand5WriteESsPhj
	.type	_ZN4Nand5WriteESsPhj, @function
_ZN4Nand5WriteESsPhj:
.LFB1040:
	.loc 9 192 0
	.cfi_startproc
	.cfi_personality 0,__gxx_personality_v0
	.cfi_lsda 0,.LLSDA1040
.LVL422:
	stwu 1,-48(1)
.LCFI60:
	.cfi_def_cfa_offset 48
	mfcr 12
	mflr 0
	stw 30,40(1)
.LBB3131:
	.loc 9 194 0
	mr. 30,4
	.cfi_offset 30, -8
	.cfi_register 65, 0
	.cfi_register 70, 12
.LBE3131:
	.loc 9 192 0
	stw 31,44(1)
	mr 4,3
.LVL423:
	stw 0,52(1)
	mr 31,5
	.cfi_offset 65, 4
	.cfi_offset 31, -4
	stw 28,32(1)
	stw 29,36(1)
	stw 12,28(1)
.LBB3193:
	.loc 9 194 0
	beq- 0,.L325
	.cfi_offset 70, -20
	.cfi_offset 29, -12
	.cfi_offset 28, -16
	.loc 9 194 0 is_stmt 0 discriminator 1
	cmpwi 7,5,0
	beq- 7,.L325
	.loc 9 197 0 is_stmt 1
	addi 3,1,16
.LVL424:
.LEHB40:
	bl _ZNSsC1ERKSs
.LEHE40:
.LVL425:
.LBB3132:
.LBB3133:
	.loc 9 86 0
	addi 3,1,12
	addi 4,1,16
.LVL426:
.LEHB41:
	bl _ZNSsC1ERKSs
.LEHE41:
.LVL427:
.LBB3134:
.LBB3135:
	.loc 9 76 0
	lwz 3,12(1)
	li 4,3
.LEHB42:
	bl ISFS_Open
.LEHE42:
.LBE3135:
.LBE3134:
.LBB3137:
.LBB3138:
.LBB3139:
.LBB3140:
.LBB3141:
.LBB3142:
	.loc 3 288 0
	lwz 9,12(1)
.LBE3142:
.LBE3141:
.LBE3140:
.LBB3143:
.LBB3144:
	.loc 3 235 0
	lis 28,_ZNSs4_Rep20_S_empty_rep_storageE@ha
.LBE3144:
.LBE3143:
.LBE3139:
.LBE3138:
.LBE3137:
.LBB3161:
.LBB3136:
	.loc 9 76 0
	mr 29,3
.LVL428:
.LBE3136:
.LBE3161:
.LBB3162:
.LBB3159:
.LBB3157:
.LBB3154:
.LBB3151:
	.loc 3 235 0
	la 28,_ZNSs4_Rep20_S_empty_rep_storageE@l(28)
.LBE3151:
.LBE3154:
	.loc 3 534 0
	addi 3,9,-12
.LVL429:
.LBB3155:
.LBB3152:
	.loc 3 235 0
	cmpw 7,3,28
	bne- 7,.L329
.LVL430:
.L314:
.LBE3152:
.LBE3155:
.LBE3157:
.LBE3159:
.LBE3162:
.LBE3133:
.LBE3132:
.LBB3166:
.LBB3167:
.LBB3168:
.LBB3169:
.LBB3170:
.LBB3171:
	.loc 3 288 0
	lwz 9,16(1)
.LBE3171:
.LBE3170:
.LBE3169:
	.loc 3 534 0
	addi 3,9,-12
.LVL431:
.LBB3172:
.LBB3173:
	.loc 3 235 0
	cmpw 7,3,28
	bne- 7,.L330
.LVL432:
.L323:
.LBE3173:
.LBE3172:
.LBE3168:
.LBE3167:
.LBE3166:
	.loc 9 198 0 discriminator 1
	cmpwi 4,29,0
	blt- 4,.L308
.LVL433:
.LBB3184:
.LBB3185:
	.loc 9 188 0
	mr 5,31
	mr 3,29
	mr 4,30
.LEHB43:
	bl ISFS_Write
	mr 31,3
.LVL434:
.LBE3185:
.LBE3184:
.LBB3186:
.LBB3187:
	.loc 9 158 0
	beq- 4,.L326
	.loc 9 161 0
	mr 3,29
.LVL435:
	.loc 9 204 0
	mr 29,31
.LVL436:
	.loc 9 161 0
	bl ISFS_Close
.LVL437:
.L308:
.LBE3187:
.LBE3186:
.LBE3193:
	.loc 9 205 0
	lwz 0,52(1)
	mr 3,29
	lwz 12,28(1)
	mtlr 0
	lwz 28,32(1)
	lwz 29,36(1)
	mtcrf 8,12
	lwz 30,40(1)
.LVL438:
	lwz 31,44(1)
	addi 1,1,48
	.cfi_remember_state
.LCFI61:
	.cfi_def_cfa_offset 0
	.cfi_restore 70
	.cfi_restore 31
	.cfi_restore 30
	.cfi_restore 29
	.cfi_restore 28
	blr
.LVL439:
.L326:
.LCFI62:
	.cfi_restore_state
	lwz 0,52(1)
.LBB3194:
.LBB3189:
.LBB3188:
	.loc 9 204 0
	mr 29,3
.LVL440:
.LBE3188:
.LBE3189:
.LBE3194:
	.loc 9 205 0
	lwz 12,28(1)
	mr 3,29
.LVL441:
	mtlr 0
	lwz 28,32(1)
	lwz 29,36(1)
	mtcrf 8,12
	lwz 30,40(1)
.LVL442:
	lwz 31,44(1)
.LVL443:
	addi 1,1,48
	.cfi_remember_state
	.cfi_restore 28
	.cfi_restore 29
	.cfi_restore 30
	.cfi_restore 31
	.cfi_restore 70
.LCFI63:
	.cfi_def_cfa_offset 0
	blr
.LVL444:
.L325:
.LCFI64:
	.cfi_restore_state
.LBB3195:
	.loc 9 195 0
	li 29,-1
	b .L308
.LVL445:
.L329:
.LBB3190:
.LBB3164:
.LBB3163:
.LBB3160:
.LBB3158:
.LBB3156:
.LBB3153:
.LBB3145:
.LBB3146:
.LBB3147:
	.loc 5 66 0
	lwz 11,-4(9)
.LVL446:
.LBE3147:
.LBE3146:
.LBE3145:
	.loc 3 240 0
	cmpwi 7,11,0
.LBB3150:
.LBB3149:
.LBB3148:
	.loc 5 67 0
	addi 11,11,-1
	stw 11,-4(9)
.LBE3148:
.LBE3149:
.LBE3150:
	.loc 3 240 0
	bgt+ 7,.L314
	.loc 3 244 0
	addi 4,1,9
	bl _ZNSs4_Rep10_M_destroyERKSaIcE
.LVL447:
	b .L314
.LVL448:
.L330:
.LBE3153:
.LBE3156:
.LBE3158:
.LBE3160:
.LBE3163:
.LBE3164:
.LBE3190:
.LBB3191:
.LBB3183:
.LBB3182:
.LBB3181:
.LBB3180:
.LBB3174:
.LBB3175:
.LBB3176:
	.loc 5 66 0
	lwz 11,-4(9)
.LVL449:
.LBE3176:
.LBE3175:
.LBE3174:
	.loc 3 240 0
	cmpwi 7,11,0
.LBB3179:
.LBB3178:
.LBB3177:
	.loc 5 67 0
	addi 11,11,-1
	stw 11,-4(9)
.LBE3177:
.LBE3178:
.LBE3179:
	.loc 3 240 0
	bgt+ 7,.L323
	.loc 3 244 0
	addi 4,1,8
	bl _ZNSs4_Rep10_M_destroyERKSaIcE
.LVL450:
	b .L323
.LVL451:
.L327:
	mr 31,3
.LVL452:
.L318:
.LBE3180:
.LBE3181:
.LBE3182:
.LBE3183:
.LBE3191:
	.loc 9 197 0
	addi 3,1,16
.LVL453:
	bl _ZNSsD1Ev
.LVL454:
	mr 3,31
	bl _Unwind_Resume
.LEHE43:
.LVL455:
.L328:
	mr 31,3
.LVL456:
.LBB3192:
.LBB3165:
	.loc 9 86 0
	addi 3,1,12
.LVL457:
	bl _ZNSsD1Ev
.LVL458:
	b .L318
.LBE3165:
.LBE3192:
.LBE3195:
	.cfi_endproc
.LFE1040:
	.section	.gcc_except_table
.LLSDA1040:
	.byte	0xff
	.byte	0xff
	.byte	0x1
	.uleb128 .LLSDACSE1040-.LLSDACSB1040
.LLSDACSB1040:
	.uleb128 .LEHB40-.LFB1040
	.uleb128 .LEHE40-.LEHB40
	.uleb128 0
	.uleb128 0
	.uleb128 .LEHB41-.LFB1040
	.uleb128 .LEHE41-.LEHB41
	.uleb128 .L327-.LFB1040
	.uleb128 0
	.uleb128 .LEHB42-.LFB1040
	.uleb128 .LEHE42-.LEHB42
	.uleb128 .L328-.LFB1040
	.uleb128 0
	.uleb128 .LEHB43-.LFB1040
	.uleb128 .LEHE43-.LEHB43
	.uleb128 0
	.uleb128 0
.LLSDACSE1040:
	.section	".text"
	.size	_ZN4Nand5WriteESsPhj, .-_ZN4Nand5WriteESsPhj
	.align 2
	.globl _ZN4Nand4ReadEiPhj
	.type	_ZN4Nand4ReadEiPhj, @function
_ZN4Nand4ReadEiPhj:
.LFB1041:
	.loc 9 208 0
	.cfi_startproc
.LVL459:
	mflr 0
	stwu 1,-8(1)
.LCFI65:
	.cfi_def_cfa_offset 8
	.cfi_register 65, 0
	stw 0,12(1)
	.loc 9 209 0
	.cfi_offset 65, 4
	bl ISFS_Read
.LVL460:
	.loc 9 210 0
	lwz 0,12(1)
	addi 1,1,8
.LCFI66:
	.cfi_def_cfa_offset 0
	mtlr 0
	blr
	.cfi_endproc
.LFE1041:
	.size	_ZN4Nand4ReadEiPhj, .-_ZN4Nand4ReadEiPhj
	.align 2
	.globl _ZN4Nand4SeekEiii
	.type	_ZN4Nand4SeekEiii, @function
_ZN4Nand4SeekEiii:
.LFB1042:
	.loc 9 213 0
	.cfi_startproc
.LVL461:
	mflr 0
	stwu 1,-8(1)
.LCFI67:
	.cfi_def_cfa_offset 8
	.cfi_register 65, 0
	stw 0,12(1)
	.loc 9 214 0
	.cfi_offset 65, 4
	bl ISFS_Seek
.LVL462:
	.loc 9 215 0
	lwz 0,12(1)
	addi 1,1,8
.LCFI68:
	.cfi_def_cfa_offset 0
	mtlr 0
	blr
	.cfi_endproc
.LFE1042:
	.size	_ZN4Nand4SeekEiii, .-_ZN4Nand4SeekEiii
	.align 2
	.globl _ZN4Nand8LoadFileESsPPhPj
	.type	_ZN4Nand8LoadFileESsPPhPj, @function
_ZN4Nand8LoadFileESsPPhPj:
.LFB1044:
	.loc 9 253 0
	.cfi_startproc
	.cfi_personality 0,__gxx_personality_v0
	.cfi_lsda 0,.LLSDA1044
.LVL463:
	mflr 0
	stwu 1,-56(1)
.LCFI69:
	.cfi_def_cfa_offset 56
	.cfi_register 65, 0
	mfcr 12
	mr 9,3
.LVL464:
	stw 30,48(1)
	mr 30,5
	.cfi_offset 30, -8
	.cfi_register 70, 12
	stw 0,60(1)
	stw 31,52(1)
	mr 31,4
	.cfi_offset 31, -4
	.cfi_offset 65, 4
.LBB3262:
.LBB3263:
.LBB3264:
.LBB3265:
	.loc 3 711 0
	lwz 11,0(3)
.LBE3265:
.LBE3264:
.LBE3263:
.LBE3262:
	.loc 9 253 0
	stw 26,32(1)
.LBB3330:
	.loc 9 254 0
	lwz 0,-12(11)
.LBE3330:
	.loc 9 253 0
	stw 27,36(1)
.LBB3331:
	.loc 9 254 0
	cmpwi 7,0,0
.LBE3331:
	.loc 9 253 0
	stw 28,40(1)
	stw 29,44(1)
	stw 12,28(1)
.LBB3332:
	.loc 9 254 0
	beq- 7,.L355
	.cfi_offset 70, -28
	.cfi_offset 29, -12
	.cfi_offset 28, -16
	.cfi_offset 27, -20
	.cfi_offset 26, -24
.LVL465:
	.loc 9 261 0
	addi 3,1,16
.LVL466:
	mr 4,9
.LVL467:
.LEHB44:
	bl _ZNSsC1ERKSs
.LEHE44:
.LVL468:
.LBB3266:
.LBB3267:
	.loc 9 81 0
	addi 3,1,12
	addi 4,1,16
.LVL469:
.LEHB45:
	bl _ZNSsC1ERKSs
.LEHE45:
.LVL470:
.LBB3268:
.LBB3269:
	.loc 9 76 0
	lwz 3,12(1)
	li 4,1
.LEHB46:
	bl ISFS_Open
.LEHE46:
.LBE3269:
.LBE3268:
.LBB3271:
.LBB3272:
.LBB3273:
.LBB3274:
.LBB3275:
.LBB3276:
	.loc 3 288 0
	lwz 9,12(1)
.LBE3276:
.LBE3275:
.LBE3274:
.LBB3277:
.LBB3278:
	.loc 3 235 0
	lis 28,_ZNSs4_Rep20_S_empty_rep_storageE@ha
.LBE3278:
.LBE3277:
.LBE3273:
.LBE3272:
.LBE3271:
.LBB3295:
.LBB3270:
	.loc 9 76 0
	mr 29,3
.LVL471:
.LBE3270:
.LBE3295:
.LBB3296:
.LBB3293:
.LBB3291:
.LBB3288:
.LBB3285:
	.loc 3 235 0
	la 28,_ZNSs4_Rep20_S_empty_rep_storageE@l(28)
.LBE3285:
.LBE3288:
	.loc 3 534 0
	addi 3,9,-12
.LVL472:
.LBB3289:
.LBB3286:
	.loc 3 235 0
	cmpw 7,3,28
	bne- 7,.L363
.LVL473:
.L340:
.LBE3286:
.LBE3289:
.LBE3291:
.LBE3293:
.LBE3296:
.LBE3267:
.LBE3266:
.LBB3299:
.LBB3300:
.LBB3301:
.LBB3302:
.LBB3303:
.LBB3304:
	.loc 3 288 0
	lwz 9,16(1)
.LBE3304:
.LBE3303:
.LBE3302:
	.loc 3 534 0
	addi 3,9,-12
.LVL474:
.LBB3305:
.LBB3306:
	.loc 3 235 0
	cmpw 7,3,28
	bne- 7,.L364
.LVL475:
.L349:
.LBE3306:
.LBE3305:
.LBE3301:
.LBE3300:
.LBE3299:
	.loc 9 262 0 discriminator 1
	cmpwi 7,29,0
	.loc 9 257 0 discriminator 1
	li 26,-1
	.loc 9 262 0 discriminator 1
	blt- 7,.L334
.LVL476:
.LBB3317:
.LBB3318:
	.loc 9 91 0
	beq- 7,.L334
.LVL477:
.LBE3318:
.LBB3319:
.LBB3320:
	.loc 9 94 0
	li 3,8
.LEHB47:
	bl _ZN8MemTools17AllocateMemory_64Ej
	mr 27,3
.LVL478:
	.loc 9 95 0
	mr 3,29
.LVL479:
	mr 4,27
	bl ISFS_GetFileStats
.LVL480:
	.loc 9 96 0
	cmpwi 4,3,0
	mr 28,3
	blt- 4,.L350
	.loc 9 97 0
	lwz 28,0(27)
.LVL481:
	cmpwi 4,28,0
.LVL482:
.L350:
	.loc 9 99 0
	mr 3,27
	bl free
	.loc 9 101 0
	blt- 4,.L365
.LVL483:
.LBE3320:
.LBE3319:
.LBE3317:
	.loc 9 265 0
	cmpwi 7,28,0
	bne- 7,.L366
.LVL484:
.L358:
	.loc 9 259 0
	li 27,0
.LVL485:
	.loc 9 257 0
	li 26,-1
.LVL486:
.L352:
.LBB3323:
.LBB3324:
	.loc 9 161 0
	mr 3,29
	bl ISFS_Close
.LVL487:
.LBE3324:
.LBE3323:
	.loc 9 278 0
	cmpwi 7,26,0
	blt- 7,.L367
	.loc 9 284 0
	stw 27,0(31)
	.loc 9 285 0
	stw 28,0(30)
.LVL488:
.L334:
.LBE3332:
	.loc 9 288 0
	lwz 0,60(1)
	mr 3,26
	lwz 12,28(1)
	mtlr 0
	lwz 26,32(1)
	lwz 27,36(1)
	mtcrf 8,12
	lwz 28,40(1)
	lwz 29,44(1)
	lwz 30,48(1)
.LVL489:
	lwz 31,52(1)
.LVL490:
	addi 1,1,56
	.cfi_remember_state
.LCFI70:
	.cfi_def_cfa_offset 0
	.cfi_restore 70
	.cfi_restore 31
	.cfi_restore 30
	.cfi_restore 29
	.cfi_restore 28
	.cfi_restore 27
	.cfi_restore 26
	blr
.LVL491:
.L366:
.LCFI71:
	.cfi_restore_state
.LBB3333:
	.loc 9 267 0
	mr 3,28
	.loc 9 257 0
	li 26,-1
	.loc 9 267 0
	bl _ZN8MemTools17AllocateMemory_32Ej
.LVL492:
	.loc 9 268 0
	mr. 27,3
.LVL493:
	beq- 0,.L352
.LVL494:
.LBB3325:
.LBB3326:
	.loc 9 209 0
	mr 3,29
.LVL495:
	mr 4,27
	mr 5,28
	bl ISFS_Read
	mr 26,3
.LVL496:
	b .L352
.LVL497:
.L355:
.LBE3326:
.LBE3325:
	.loc 9 255 0
	li 26,-1
	b .L334
.LVL498:
.L365:
.LBB3327:
.LBB3322:
.LBB3321:
	.loc 9 101 0
	li 28,0
.LVL499:
	b .L358
.LVL500:
.L364:
.LBE3321:
.LBE3322:
.LBE3327:
.LBB3328:
.LBB3316:
.LBB3315:
.LBB3314:
.LBB3313:
.LBB3307:
.LBB3308:
.LBB3309:
	.loc 5 66 0
	lwz 11,-4(9)
.LVL501:
.LBE3309:
.LBE3308:
.LBE3307:
	.loc 3 240 0
	cmpwi 7,11,0
.LBB3312:
.LBB3311:
.LBB3310:
	.loc 5 67 0
	addi 11,11,-1
	stw 11,-4(9)
.LBE3310:
.LBE3311:
.LBE3312:
	.loc 3 240 0
	bgt+ 7,.L349
	.loc 3 244 0
	addi 4,1,8
	bl _ZNSs4_Rep10_M_destroyERKSaIcE
.LVL502:
	b .L349
.LVL503:
.L363:
.LBE3313:
.LBE3314:
.LBE3315:
.LBE3316:
.LBE3328:
.LBB3329:
.LBB3298:
.LBB3297:
.LBB3294:
.LBB3292:
.LBB3290:
.LBB3287:
.LBB3279:
.LBB3280:
.LBB3281:
	.loc 5 66 0
	lwz 11,-4(9)
.LVL504:
.LBE3281:
.LBE3280:
.LBE3279:
	.loc 3 240 0
	cmpwi 7,11,0
.LBB3284:
.LBB3283:
.LBB3282:
	.loc 5 67 0
	addi 11,11,-1
	stw 11,-4(9)
.LBE3282:
.LBE3283:
.LBE3284:
	.loc 3 240 0
	bgt+ 7,.L340
	.loc 3 244 0
	addi 4,1,9
	bl _ZNSs4_Rep10_M_destroyERKSaIcE
.LVL505:
	b .L340
.LVL506:
.L361:
	mr 31,3
.LVL507:
.LBE3287:
.LBE3290:
.LBE3292:
.LBE3294:
.LBE3297:
	.loc 9 81 0
	addi 3,1,12
.LVL508:
	bl _ZNSsD1Ev
.LVL509:
.L344:
.LBE3298:
.LBE3329:
	.loc 9 261 0
	addi 3,1,16
.LVL510:
	bl _ZNSsD1Ev
.LVL511:
	mr 3,31
	bl _Unwind_Resume
.LEHE47:
.LVL512:
.L367:
	.loc 9 280 0
	cmpwi 7,27,0
	beq- 7,.L334
	.loc 9 280 0 is_stmt 0 discriminator 1
	mr 3,27
	bl free
.LBE3333:
	.loc 9 288 0 is_stmt 1 discriminator 1
	lwz 0,60(1)
	lwz 12,28(1)
	mr 3,26
	mtlr 0
	lwz 26,32(1)
.LVL513:
	lwz 27,36(1)
.LVL514:
	mtcrf 8,12
	lwz 28,40(1)
.LVL515:
	lwz 29,44(1)
.LVL516:
	lwz 30,48(1)
.LVL517:
	lwz 31,52(1)
.LVL518:
	addi 1,1,56
	.cfi_remember_state
	.cfi_restore 26
	.cfi_restore 27
	.cfi_restore 28
	.cfi_restore 29
	.cfi_restore 30
	.cfi_restore 31
	.cfi_restore 70
.LCFI72:
	.cfi_def_cfa_offset 0
	blr
.LVL519:
.L360:
.LCFI73:
	.cfi_restore_state
	mr 31,3
.LVL520:
	b .L344
	.cfi_endproc
.LFE1044:
	.section	.gcc_except_table
.LLSDA1044:
	.byte	0xff
	.byte	0xff
	.byte	0x1
	.uleb128 .LLSDACSE1044-.LLSDACSB1044
.LLSDACSB1044:
	.uleb128 .LEHB44-.LFB1044
	.uleb128 .LEHE44-.LEHB44
	.uleb128 0
	.uleb128 0
	.uleb128 .LEHB45-.LFB1044
	.uleb128 .LEHE45-.LEHB45
	.uleb128 .L360-.LFB1044
	.uleb128 0
	.uleb128 .LEHB46-.LFB1044
	.uleb128 .LEHE46-.LEHB46
	.uleb128 .L361-.LFB1044
	.uleb128 0
	.uleb128 .LEHB47-.LFB1044
	.uleb128 .LEHE47-.LEHB47
	.uleb128 0
	.uleb128 0
.LLSDACSE1044:
	.section	".text"
	.size	_ZN4Nand8LoadFileESsPPhPj, .-_ZN4Nand8LoadFileESsPPhPj
	.align 2
	.globl _ZN4Nand11ExtractFileESsSs
	.type	_ZN4Nand11ExtractFileESsSs, @function
_ZN4Nand11ExtractFileESsSs:
.LFB1046:
	.loc 9 326 0
	.cfi_startproc
	.cfi_personality 0,__gxx_personality_v0
	.cfi_lsda 0,.LLSDA1046
.LVL521:
	mflr 0
	stwu 1,-56(1)
.LCFI74:
	.cfi_def_cfa_offset 56
	.cfi_register 65, 0
	stw 29,44(1)
.LBB3444:
	.loc 9 330 0
	li 29,0
	.cfi_offset 29, -12
.LBE3444:
	.loc 9 326 0
	stw 0,60(1)
	stw 31,52(1)
	mr 31,4
	.cfi_offset 31, -4
	.cfi_offset 65, 4
.LBB3557:
.LBB3445:
.LBB3446:
.LBB3447:
	.loc 3 711 0
	lwz 9,0(3)
.LBE3447:
.LBE3446:
.LBE3445:
.LBE3557:
	.loc 9 326 0
	stw 30,48(1)
.LBB3558:
	.loc 9 329 0
	lwz 0,-12(9)
	cmpwi 7,0,0
	beq- 7,.L369
	.cfi_offset 30, -8
.LVL522:
.LBB3448:
.LBB3449:
.LBB3450:
	.loc 3 711 0
	lwz 9,0(4)
.LBE3450:
.LBE3449:
.LBE3448:
	.loc 9 329 0
	lwz 0,-12(9)
	cmpwi 7,0,0
	beq- 7,.L369
	.loc 9 335 0
	mr 4,3
.LVL523:
	addi 3,1,20
.LVL524:
	.loc 9 332 0
	stw 29,28(1)
.LVL525:
	.loc 9 333 0
	stw 29,24(1)
.LVL526:
.LEHB48:
	.loc 9 335 0
	bl _ZNSsC1ERKSs
.LEHE48:
.LVL527:
	addi 3,1,20
	addi 4,1,28
	addi 5,1,24
.LEHB49:
	bl _ZN4Nand8LoadFileESsPPhPj.constprop.48
.LEHE49:
.LVL528:
.LBB3451:
.LBB3452:
.LBB3453:
.LBB3454:
.LBB3455:
.LBB3456:
	.loc 3 288 0
	lwz 9,20(1)
.LBE3456:
.LBE3455:
.LBE3454:
.LBB3457:
.LBB3458:
	.loc 3 235 0
	lis 30,_ZNSs4_Rep20_S_empty_rep_storageE@ha
	la 30,_ZNSs4_Rep20_S_empty_rep_storageE@l(30)
.LBE3458:
.LBE3457:
	.loc 3 534 0
	addi 3,9,-12
.LVL529:
.LBB3467:
.LBB3465:
	.loc 3 235 0
	cmpw 7,3,30
	bne- 7,.L400
.LVL530:
.L376:
.LBE3465:
.LBE3467:
.LBE3453:
.LBE3452:
.LBE3451:
.LBB3471:
	.loc 9 336 0 discriminator 1
	lwz 0,28(1)
	cmpwi 7,0,0
	beq- 7,.L391
.LBB3472:
	.loc 9 338 0
	addi 3,1,16
	mr 4,31
.LEHB50:
	bl _ZNSsC1ERKSs
.LEHE50:
.LVL531:
.LBB3473:
.LBB3474:
	.loc 3 2005 0
	lis 4,.LC0@ha
	addi 3,1,16
.LVL532:
	la 4,.LC0@l(4)
	li 5,-1
	li 6,1
.LEHB51:
	bl _ZNKSs12find_last_ofEPKcjj
.LVL533:
.LBE3474:
.LBE3473:
.LBB3475:
	.loc 9 340 0
	cmpwi 7,3,-1
	beq- 7,.L394
.LBB3476:
.LBB3477:
.LBB3478:
.LBB3479:
.LBB3480:
.LBB3481:
.LBB3482:
	.loc 3 711 0
	lwz 9,16(1)
.LBE3482:
.LBE3481:
.LBE3480:
.LBE3479:
.LBE3478:
.LBE3477:
	.loc 9 342 0
	addi 4,3,1
.LVL534:
.LBB3491:
.LBB3489:
.LBB3487:
.LBB3485:
.LBB3484:
.LBB3483:
	.loc 3 711 0
	lwz 5,-12(9)
.LBE3483:
.LBE3484:
	.loc 3 318 0
	cmplw 7,4,5
	bgt- 7,.L401
.LVL535:
.LBE3485:
.LBE3487:
	.loc 3 1349 0
	addi 3,1,16
.LVL536:
	subf 5,4,5
	li 6,0
	bl _ZNSs9_M_mutateEjjj
.LVL537:
.LBE3489:
.LBE3491:
.LBB3492:
	.loc 9 343 0
	addi 3,1,12
	addi 4,1,16
.LVL538:
	bl _ZNSsC1ERKSs
.LEHE51:
.LVL539:
	.loc 9 343 0 is_stmt 0 discriminator 1
	addi 3,1,12
.LEHB52:
	bl _Z15CreateSubfolderSs
.LEHE52:
.LBB3493:
.LBB3494:
.LBB3495:
.LBB3496:
.LBB3497:
.LBB3498:
	.loc 3 288 0 is_stmt 1 discriminator 1
	lwz 9,12(1)
.LBE3498:
.LBE3497:
.LBE3496:
.LBE3495:
.LBE3494:
.LBE3493:
	.loc 9 343 0 discriminator 1
	mr 29,3
.LVL540:
.LBB3513:
.LBB3511:
.LBB3509:
	.loc 3 534 0 discriminator 1
	addi 3,9,-12
.LVL541:
.LBB3499:
.LBB3500:
	.loc 3 235 0 discriminator 1
	cmpw 7,3,30
	bne- 7,.L402
.LVL542:
.L384:
.LBE3500:
.LBE3499:
.LBE3509:
.LBE3511:
.LBE3513:
	.loc 9 343 0 discriminator 1
	cmpwi 7,29,0
	.loc 9 327 0 discriminator 1
	li 29,0
	.loc 9 343 0 discriminator 1
	bne- 7,.L403
.LVL543:
.L377:
.LBE3492:
.LBE3476:
.LBE3475:
	.loc 9 355 0
	lwz 3,28(1)
	bl free
.LVL544:
.LBB3526:
.LBB3527:
.LBB3528:
.LBB3529:
.LBB3530:
	.loc 3 288 0
	lwz 9,16(1)
.LBE3530:
.LBE3529:
.LBE3528:
	.loc 3 534 0
	addi 3,9,-12
.LVL545:
.LBB3531:
.LBB3532:
	.loc 3 235 0
	cmpw 7,3,30
	bne- 7,.L404
.LVL546:
.L369:
.LBE3532:
.LBE3531:
.LBE3527:
.LBE3526:
.LBE3472:
.LBE3471:
.LBE3558:
	.loc 9 359 0
	lwz 0,60(1)
	mr 3,29
	lwz 30,48(1)
	mtlr 0
	lwz 29,44(1)
	lwz 31,52(1)
	addi 1,1,56
	.cfi_remember_state
.LCFI75:
	.cfi_def_cfa_offset 0
	.cfi_restore 31
	.cfi_restore 30
	.cfi_restore 29
	blr
.LVL547:
.L403:
.LCFI76:
	.cfi_restore_state
.LBB3559:
.LBB3551:
.LBB3547:
.LBB3542:
.LBB3522:
.LBB3517:
.LBB3514:
	.loc 9 345 0
	lis 4,.LC2@ha
	lwz 3,0(31)
	la 4,.LC2@l(4)
.LEHB53:
	bl fopen
.LVL548:
	.loc 9 346 0
	mr. 31,3
.LVL549:
	bne+ 0,.L405
.LVL550:
.L394:
	.loc 9 327 0
	li 29,0
	b .L377
.LVL551:
.L391:
.LBE3514:
.LBE3517:
.LBE3522:
.LBE3542:
.LBE3547:
.LBE3551:
.LBE3559:
	.loc 9 359 0
	lwz 0,60(1)
.LBB3560:
.LBB3552:
	.loc 9 327 0
	li 29,0
.LBE3552:
.LBE3560:
	.loc 9 359 0
	mr 3,29
	lwz 30,48(1)
	mtlr 0
	lwz 29,44(1)
	lwz 31,52(1)
.LVL552:
	addi 1,1,56
	.cfi_remember_state
	.cfi_restore 29
	.cfi_restore 30
	.cfi_restore 31
.LCFI77:
	.cfi_def_cfa_offset 0
	blr
.LVL553:
.L405:
.LCFI78:
	.cfi_restore_state
.LBB3561:
.LBB3553:
.LBB3548:
.LBB3543:
.LBB3523:
.LBB3518:
.LBB3515:
	.loc 9 348 0
	lwz 3,28(1)
.LVL554:
	li 4,1
	lwz 5,24(1)
	mr 6,31
	bl fwrite
	mr 29,3
	.loc 9 351 0
	mr 3,31
	.loc 9 348 0
	lwz 31,24(1)
.LVL555:
	.loc 9 351 0
	bl fclose
.LVL556:
	.loc 9 325 0
	xor 29,29,31
.LVL557:
	cntlzw 29,29
	srwi 29,29,5
	b .L377
.LVL558:
.L404:
.LBE3515:
.LBE3518:
.LBE3523:
.LBE3543:
.LBB3544:
.LBB3541:
.LBB3540:
.LBB3539:
.LBB3533:
.LBB3534:
.LBB3535:
	.loc 5 66 0
	lwz 11,-4(9)
.LVL559:
.LBE3535:
.LBE3534:
.LBE3533:
	.loc 3 240 0
	cmpwi 7,11,0
.LBB3538:
.LBB3537:
.LBB3536:
	.loc 5 67 0
	addi 11,11,-1
	stw 11,-4(9)
.LBE3536:
.LBE3537:
.LBE3538:
	.loc 3 240 0
	bgt+ 7,.L369
	.loc 3 244 0
	addi 4,1,8
	bl _ZNSs4_Rep10_M_destroyERKSaIcE
.LVL560:
	b .L369
.LVL561:
.L400:
.LBE3539:
.LBE3540:
.LBE3541:
.LBE3544:
.LBE3548:
.LBE3553:
.LBB3554:
.LBB3470:
.LBB3469:
.LBB3468:
.LBB3466:
.LBB3459:
.LBB3460:
.LBB3461:
	.loc 5 66 0
	lwz 11,-4(9)
.LVL562:
.LBE3461:
.LBE3460:
.LBE3459:
	.loc 3 240 0
	cmpwi 7,11,0
.LBB3464:
.LBB3463:
.LBB3462:
	.loc 5 67 0
	addi 11,11,-1
	stw 11,-4(9)
.LBE3462:
.LBE3463:
.LBE3464:
	.loc 3 240 0
	bgt+ 7,.L376
	.loc 3 244 0
	addi 4,1,10
	bl _ZNSs4_Rep10_M_destroyERKSaIcE
.LVL563:
	b .L376
.LVL564:
.L402:
.LBE3466:
.LBE3468:
.LBE3469:
.LBE3470:
.LBE3554:
.LBB3555:
.LBB3549:
.LBB3545:
.LBB3524:
.LBB3519:
.LBB3516:
.LBB3512:
.LBB3510:
.LBB3508:
.LBB3507:
.LBB3501:
.LBB3502:
.LBB3503:
	.loc 5 66 0
	lwz 11,-4(9)
.LVL565:
.LBE3503:
.LBE3502:
.LBE3501:
	.loc 3 240 0
	cmpwi 7,11,0
.LBB3506:
.LBB3505:
.LBB3504:
	.loc 5 67 0
	addi 11,11,-1
	stw 11,-4(9)
.LBE3504:
.LBE3505:
.LBE3506:
	.loc 3 240 0
	bgt+ 7,.L384
	.loc 3 244 0
	addi 4,1,9
	bl _ZNSs4_Rep10_M_destroyERKSaIcE
.LVL566:
	b .L384
.LVL567:
.L401:
.LBE3507:
.LBE3508:
.LBE3510:
.LBE3512:
.LBE3516:
.LBE3519:
.LBB3520:
.LBB3490:
.LBB3488:
.LBB3486:
	.loc 3 319 0
	lis 3,.LC1@ha
	la 3,.LC1@l(3)
	bl _ZSt20__throw_out_of_rangePKc
.LEHE53:
.LVL568:
.L396:
	mr 31,3
.L387:
.LBE3486:
.LBE3488:
.LBE3490:
.LBE3520:
.LBE3524:
.LBE3545:
	.loc 9 355 0
	addi 3,1,16
.LVL569:
	bl _ZNSsD1Ev
.LVL570:
	mr 3,31
.LEHB54:
	bl _Unwind_Resume
.LVL571:
.L395:
	mr 31,3
.LVL572:
.LBE3549:
.LBE3555:
	.loc 9 335 0
	addi 3,1,20
	bl _ZNSsD1Ev
	mr 3,31
	bl _Unwind_Resume
.LEHE54:
.LVL573:
.L397:
	mr 31,3
.LVL574:
.LBB3556:
.LBB3550:
.LBB3546:
.LBB3525:
.LBB3521:
	.loc 9 343 0
	addi 3,1,12
	bl _ZNSsD1Ev
	b .L387
.LBE3521:
.LBE3525:
.LBE3546:
.LBE3550:
.LBE3556:
.LBE3561:
	.cfi_endproc
.LFE1046:
	.section	.gcc_except_table
.LLSDA1046:
	.byte	0xff
	.byte	0xff
	.byte	0x1
	.uleb128 .LLSDACSE1046-.LLSDACSB1046
.LLSDACSB1046:
	.uleb128 .LEHB48-.LFB1046
	.uleb128 .LEHE48-.LEHB48
	.uleb128 0
	.uleb128 0
	.uleb128 .LEHB49-.LFB1046
	.uleb128 .LEHE49-.LEHB49
	.uleb128 .L395-.LFB1046
	.uleb128 0
	.uleb128 .LEHB50-.LFB1046
	.uleb128 .LEHE50-.LEHB50
	.uleb128 0
	.uleb128 0
	.uleb128 .LEHB51-.LFB1046
	.uleb128 .LEHE51-.LEHB51
	.uleb128 .L396-.LFB1046
	.uleb128 0
	.uleb128 .LEHB52-.LFB1046
	.uleb128 .LEHE52-.LEHB52
	.uleb128 .L397-.LFB1046
	.uleb128 0
	.uleb128 .LEHB53-.LFB1046
	.uleb128 .LEHE53-.LEHB53
	.uleb128 .L396-.LFB1046
	.uleb128 0
	.uleb128 .LEHB54-.LFB1046
	.uleb128 .LEHE54-.LEHB54
	.uleb128 0
	.uleb128 0
.LLSDACSE1046:
	.section	".text"
	.size	_ZN4Nand11ExtractFileESsSs, .-_ZN4Nand11ExtractFileESsSs
	.section	.text._ZNSt6vectorISsSaISsEE13_M_insert_auxEN9__gnu_cxx17__normal_iteratorIPSsS1_EERKSs,"axG",@progbits,_ZNSt6vectorISsSaISsEE13_M_insert_auxEN9__gnu_cxx17__normal_iteratorIPSsS1_EERKSs,comdat
	.align 2
	.weak	_ZNSt6vectorISsSaISsEE13_M_insert_auxEN9__gnu_cxx17__normal_iteratorIPSsS1_EERKSs
	.type	_ZNSt6vectorISsSaISsEE13_M_insert_auxEN9__gnu_cxx17__normal_iteratorIPSsS1_EERKSs, @function
_ZNSt6vectorISsSaISsEE13_M_insert_auxEN9__gnu_cxx17__normal_iteratorIPSsS1_EERKSs:
.LFB1116:
	.file 10 "d:\\devkitpro\\devkitppc\\bin\\../lib/gcc/powerpc-eabi/4.6.3/../../../../powerpc-eabi/include/c++/4.6.3/bits/vector.tcc"
	.loc 10 300 0
	.cfi_startproc
	.cfi_personality 0,__gxx_personality_v0
	.cfi_lsda 0,.LLSDA1116
.LVL575:
	mflr 0
	stwu 1,-64(1)
.LCFI79:
	.cfi_def_cfa_offset 64
	.cfi_register 65, 0
	stw 29,52(1)
	mr 29,3
	.cfi_offset 29, -12
	stw 0,68(1)
	stw 30,56(1)
.LBB3696:
	.loc 10 304 0
	lwz 3,4(3)
.LVL576:
	lwz 0,8(29)
	.cfi_offset 30, -8
	.cfi_offset 65, 4
.LBE3696:
	.loc 10 300 0
	stw 31,60(1)
	mr 31,5
	.cfi_offset 31, -4
.LBB3885:
	.loc 10 304 0
	cmpw 7,3,0
.LBE3885:
	.loc 10 300 0
	stw 24,32(1)
	stw 25,36(1)
	stw 26,40(1)
	stw 27,44(1)
	stw 28,48(1)
	.loc 10 300 0
	lwz 30,0(4)
.LVL577:
.LBB3886:
	.loc 10 304 0
	beq- 7,.L407
	.cfi_offset 28, -16
	.cfi_offset 27, -20
	.cfi_offset 26, -24
	.cfi_offset 25, -28
	.cfi_offset 24, -32
.LVL578:
.LBB3697:
.LBB3698:
.LBB3699:
	.loc 8 108 0
	cmpwi 7,3,0
	li 9,0
	beq- 7,.L408
	addi 4,3,-4
.LVL579:
.LEHB55:
	bl _ZNSsC1ERKSs
.LVL580:
	lwz 9,4(29)
.L408:
.LBE3699:
.LBE3698:
	.loc 10 309 0
	addi 9,9,4
	.loc 10 311 0
	addi 3,1,12
	.loc 10 309 0
	stw 9,4(29)
	.loc 10 311 0
	mr 4,31
	bl _ZNSsC1ERKSs
.LEHE55:
.LVL581:
	.loc 10 313 0
	lwz 3,4(29)
	addi 3,3,-8
.LVL582:
.LBB3700:
.LBB3701:
.LBB3702:
.LBB3703:
.LBB3704:
.LBB3705:
	.file 11 "d:\\devkitpro\\devkitppc\\bin\\../lib/gcc/powerpc-eabi/4.6.3/../../../../powerpc-eabi/include/c++/4.6.3/bits/stl_algobase.h"
	.loc 11 530 0
	subf 0,30,3
.LVL583:
	srawi. 9,0,2
	stw 9,24(1)
	bgt+ 0,.L473
	b .L409
.LVL584:
.L458:
	.loc 11 531 0
	mr 3,31
.LVL585:
.L473:
	addi 31,3,-4
.LVL586:
.LBB3706:
.LBB3707:
	.loc 3 542 0
	mr 4,31
.LEHB56:
	bl _ZNSs6assignERKSs
.LVL587:
.LBE3707:
.LBE3706:
	.loc 11 530 0
	lwz 0,24(1)
	addic. 9,0,-1
	stw 9,24(1)
	bne+ 0,.L458
.LVL588:
.L409:
.LBE3705:
.LBE3704:
.LBE3703:
.LBE3702:
.LBE3701:
.LBE3700:
.LBB3708:
.LBB3709:
	.loc 3 542 0
	mr 3,30
	addi 4,1,12
.LVL589:
	bl _ZNSs6assignERKSs
.LEHE56:
.LVL590:
.LBE3709:
.LBE3708:
.LBB3710:
.LBB3711:
.LBB3712:
.LBB3713:
.LBB3714:
.LBB3715:
	.loc 3 288 0
	lwz 9,12(1)
.LBE3715:
.LBE3714:
.LBE3713:
.LBB3716:
.LBB3717:
	.loc 3 235 0
	lis 11,_ZNSs4_Rep20_S_empty_rep_storageE@ha
	la 0,_ZNSs4_Rep20_S_empty_rep_storageE@l(11)
.LBE3717:
.LBE3716:
	.loc 3 534 0
	addi 3,9,-12
.LVL591:
.LBB3726:
.LBB3724:
	.loc 3 235 0
	cmpw 7,3,0
	bne- 7,.L474
.LVL592:
.L406:
.LBE3724:
.LBE3726:
.LBE3712:
.LBE3711:
.LBE3710:
.LBE3697:
.LBE3886:
	.loc 10 373 0
	lwz 0,68(1)
	lwz 24,32(1)
	mtlr 0
	lwz 25,36(1)
	lwz 26,40(1)
	lwz 27,44(1)
	lwz 28,48(1)
	lwz 29,52(1)
.LVL593:
	lwz 30,56(1)
.LVL594:
	lwz 31,60(1)
	addi 1,1,64
	.cfi_remember_state
.LCFI80:
	.cfi_def_cfa_offset 0
	.cfi_restore 31
	.cfi_restore 30
	.cfi_restore 29
	.cfi_restore 28
	.cfi_restore 27
	.cfi_restore 26
	.cfi_restore 25
	.cfi_restore 24
	blr
.LVL595:
.L407:
.LCFI81:
	.cfi_restore_state
.LBB3887:
.LBB3731:
.LBB3732:
.LBB3733:
.LBB3734:
.LBB3735:
	.loc 6 571 0
	lwz 0,0(29)
	subf 3,0,3
.LBE3735:
.LBE3734:
.LBB3736:
.LBB3737:
	.loc 11 215 0
	srawi. 3,3,2
	beq- 0,.L412
.LBE3737:
.LBE3736:
	.loc 6 1244 0
	slwi 9,3,1
.LVL596:
	.loc 6 1245 0
	cmplw 7,3,9
	ble- 7,.L475
.L413:
.LVL597:
.LBE3733:
.LBE3732:
.LBB3739:
.LBB3740:
	.loc 2 892 0
	subf 0,0,30
.LBE3740:
.LBE3739:
	.loc 10 326 0
	lis 24,0x3fff
.LBB3745:
.LBB3741:
	.loc 2 892 0
	srawi 28,0,2
.LVL598:
.LBE3741:
.LBE3745:
	.loc 10 326 0
	li 3,-4
	ori 24,24,65535
.LVL599:
.L455:
.LEHB57:
.LBB3746:
.LBB3747:
.LBB3748:
.LBB3749:
	.loc 8 92 0
	bl _Znwj
.LEHE57:
.LVL600:
	mr 27,3
.LVL601:
.L414:
.LBE3749:
.LBE3748:
.LBE3747:
.LBE3746:
	.loc 10 335 0
	slwi 28,28,2
.LVL602:
.LBB3753:
.LBB3754:
	.loc 8 108 0
	add. 25,27,28
	beq- 0,.L415
	mr 3,25
	mr 4,31
.LEHB58:
	bl _ZNSsC1ERKSs
.LEHE58:
.L415:
.LVL603:
.LBE3754:
.LBE3753:
	.loc 10 343 0
	lwz 31,0(29)
.LVL604:
.LBB3756:
.LBB3757:
.LBB3758:
.LBB3759:
.LBB3760:
.LBB3761:
	.file 12 "d:\\devkitpro\\devkitppc\\bin\\../lib/gcc/powerpc-eabi/4.6.3/../../../../powerpc-eabi/include/c++/4.6.3/bits/stl_uninitialized.h"
	.loc 12 76 0
	mr 26,27
	cmpw 7,31,30
	beq- 7,.L416
.LVL605:
.L418:
.LBB3762:
.LBB3763:
	.loc 7 84 0
	cmpwi 7,26,0
	beq- 7,.L417
.LVL606:
	mr 3,26
	mr 4,31
.LEHB59:
	bl _ZNSsC1ERKSs
.LEHE59:
.LVL607:
.L417:
.LBE3763:
.LBE3762:
	.loc 12 76 0
	addi 31,31,4
.LVL608:
	addi 26,26,4
.LVL609:
	cmpw 7,30,31
	bne+ 7,.L418
.LVL610:
.L416:
.LBE3761:
.LBE3760:
.LBE3759:
.LBE3758:
.LBE3757:
.LBE3756:
	.loc 10 349 0
	lwz 28,4(29)
.LVL611:
	.loc 10 347 0
	addi 26,26,4
.LVL612:
.LBB3787:
.LBB3788:
.LBB3789:
.LBB3790:
.LBB3791:
.LBB3792:
	.loc 12 73 0
	mr 31,26
	.loc 12 76 0
	cmpw 7,28,30
	beq- 7,.L420
.LVL613:
.L469:
.LBB3793:
.LBB3794:
	.loc 7 84 0
	cmpwi 7,31,0
	beq- 7,.L426
.LVL614:
	mr 3,31
	mr 4,30
.LEHB60:
	bl _ZNSsC1ERKSs
.LEHE60:
.LVL615:
.L426:
.LBE3794:
.LBE3793:
	.loc 12 76 0
	addi 30,30,4
.LVL616:
	addi 31,31,4
.LVL617:
	cmpw 7,28,30
	bne+ 7,.L469
	lwz 28,4(29)
.LVL618:
.L420:
.LBE3792:
.LBE3791:
.LBE3790:
.LBE3789:
.LBE3788:
.LBE3787:
	.loc 10 364 0
	lwz 30,0(29)
.LVL619:
.LBB3818:
.LBB3819:
.LBB3820:
.LBB3821:
.LBB3822:
	.loc 7 103 0
	cmpw 7,30,28
	beq- 7,.L429
	lis 26,_ZNSs4_Rep20_S_empty_rep_storageE@ha
.LVL620:
	la 26,_ZNSs4_Rep20_S_empty_rep_storageE@l(26)
.LVL621:
.L441:
.LBB3823:
.LBB3824:
.LBB3825:
.LBB3826:
.LBB3827:
.LBB3828:
.LBB3829:
	.loc 3 288 0
	lwz 9,0(30)
.LBE3829:
.LBE3828:
.LBE3827:
	.loc 3 534 0
	addi 3,9,-12
.LVL622:
.LBB3830:
.LBB3831:
	.loc 3 235 0
	cmpw 7,3,26
	bne- 7,.L476
.LVL623:
.L440:
.LBE3831:
.LBE3830:
.LBE3826:
.LBE3825:
.LBE3824:
.LBE3823:
	.loc 7 103 0
	addi 30,30,4
.LVL624:
	cmpw 7,28,30
	bne+ 7,.L441
	lwz 30,0(29)
.LVL625:
.L429:
.LBE3822:
.LBE3821:
.LBE3820:
.LBE3819:
.LBE3818:
.LBB3848:
.LBB3849:
	.loc 6 155 0 discriminator 1
	cmpwi 7,30,0
	beq- 7,.L442
.LVL626:
.LBB3850:
.LBB3851:
	.loc 8 98 0
	mr 3,30
	bl _ZdlPv
.LVL627:
.L442:
.LBE3851:
.LBE3850:
.LBE3849:
.LBE3848:
	.loc 10 371 0 discriminator 1
	slwi 0,24,2
	.loc 10 369 0 discriminator 1
	stw 27,0(29)
	.loc 10 371 0 discriminator 1
	add 0,27,0
	.loc 10 370 0 discriminator 1
	stw 31,4(29)
	.loc 10 371 0 discriminator 1
	stw 0,8(29)
.LBE3731:
.LBE3887:
	.loc 10 373 0 discriminator 1
	lwz 0,68(1)
	lwz 24,32(1)
	mtlr 0
	lwz 25,36(1)
.LVL628:
	lwz 26,40(1)
	lwz 27,44(1)
.LVL629:
	lwz 28,48(1)
.LVL630:
	lwz 29,52(1)
.LVL631:
	lwz 30,56(1)
.LVL632:
	lwz 31,60(1)
.LVL633:
	addi 1,1,64
	.cfi_remember_state
	.cfi_restore 24
	.cfi_restore 25
	.cfi_restore 26
	.cfi_restore 27
	.cfi_restore 28
	.cfi_restore 29
	.cfi_restore 30
	.cfi_restore 31
.LCFI82:
	.cfi_def_cfa_offset 0
	blr
.LVL634:
.L412:
.LCFI83:
	.cfi_restore_state
.LBB3888:
.LBB3882:
.LBB3852:
.LBB3742:
	.loc 2 892 0
	subf 0,0,30
.LBE3742:
.LBE3852:
	.loc 6 1244 0
	li 9,1
.LBB3853:
.LBB3743:
	.loc 2 892 0
	srawi 28,0,2
.LVL635:
.L456:
.LBE3743:
.LBE3853:
.LBB3854:
.LBB3750:
	.loc 6 150 0
	slwi 3,9,2
.LBE3750:
.LBE3854:
	.loc 10 326 0
	mr 24,9
	b .L455
.LVL636:
.L476:
.LBB3855:
.LBB3847:
.LBB3846:
.LBB3845:
.LBB3844:
.LBB3843:
.LBB3842:
.LBB3841:
.LBB3840:
.LBB3839:
.LBB3838:
.LBB3832:
.LBB3833:
.LBB3834:
	.loc 5 66 0
	lwz 11,-4(9)
.LVL637:
.LBE3834:
.LBE3833:
.LBE3832:
	.loc 3 240 0
	cmpwi 7,11,0
.LBB3837:
.LBB3836:
.LBB3835:
	.loc 5 67 0
	addi 11,11,-1
	stw 11,-4(9)
.LBE3835:
.LBE3836:
.LBE3837:
	.loc 3 240 0
	bgt+ 7,.L440
	.loc 3 244 0
	addi 4,1,8
	bl _ZNSs4_Rep10_M_destroyERKSaIcE
.LVL638:
	b .L440
.LVL639:
.L466:
.LBE3838:
.LBE3839:
.LBE3840:
.LBE3841:
.LBE3842:
.LBE3843:
.LBE3844:
.LBE3845:
.LBE3846:
.LBE3847:
.LBE3855:
.LBB3856:
.LBB3815:
.LBB3812:
.LBB3809:
.LBB3806:
.LBB3803:
	.loc 12 80 0
	bl __cxa_begin_catch
.LVL640:
	mr 30,26
.LVL641:
.L433:
.LBB3795:
.LBB3796:
.LBB3797:
.LBB3798:
	.loc 7 103 0
	cmpw 7,30,31
	beq- 7,.L477
.LVL642:
.LBB3799:
.LBB3800:
	.loc 7 94 0
	mr 3,30
.LBE3800:
.LBE3799:
	.loc 7 103 0
	addi 30,30,4
.LVL643:
.LBB3802:
.LBB3801:
	.loc 7 94 0
	bl _ZNSsD1Ev
.LVL644:
	b .L433
.LVL645:
.L464:
.LBE3801:
.LBE3802:
.LBE3798:
.LBE3797:
.LBE3796:
.LBE3795:
.LBE3803:
.LBE3806:
.LBE3809:
.LBE3812:
.LBE3815:
.LBE3856:
.LBB3857:
.LBB3784:
.LBB3781:
.LBB3778:
.LBB3775:
.LBB3772:
	.loc 12 80 0
	bl __cxa_begin_catch
.LVL646:
	mr 31,27
.LVL647:
.L424:
.LBB3764:
.LBB3765:
.LBB3766:
.LBB3767:
	.loc 7 103 0
	cmpw 7,26,31
	beq- 7,.L478
.LVL648:
.LBB3768:
.LBB3769:
	.loc 7 94 0
	mr 3,31
.LBE3769:
.LBE3768:
	.loc 7 103 0
	addi 31,31,4
.LVL649:
.LBB3771:
.LBB3770:
	.loc 7 94 0
	bl _ZNSsD1Ev
.LVL650:
	b .L424
.LVL651:
.L477:
.LEHB61:
.LBE3770:
.LBE3771:
.LBE3767:
.LBE3766:
.LBE3765:
.LBE3764:
.LBE3772:
.LBE3775:
.LBE3778:
.LBE3781:
.LBE3784:
.LBE3857:
.LBB3858:
.LBB3816:
.LBB3813:
.LBB3810:
.LBB3807:
.LBB3804:
	.loc 12 83 0
	bl __cxa_rethrow
.LEHE61:
.LVL652:
.L478:
.LEHB62:
.LBE3804:
.LBE3807:
.LBE3810:
.LBE3813:
.LBE3816:
.LBE3858:
.LBB3859:
.LBB3785:
.LBB3782:
.LBB3779:
.LBB3776:
.LBB3773:
	bl __cxa_rethrow
.LEHE62:
.LVL653:
.L467:
	mr 31,3
.LVL654:
.LBE3773:
.LBE3776:
.LBE3779:
.LBE3782:
.LBE3785:
.LBE3859:
.LBB3860:
.LBB3817:
.LBB3814:
.LBB3811:
.LBB3808:
.LBB3805:
	.loc 12 80 0
	bl __cxa_end_catch
	mr 3,31
.LVL655:
.L431:
.LBE3805:
.LBE3808:
.LBE3811:
.LBE3814:
.LBE3817:
.LBE3860:
	.loc 10 355 0
	bl __cxa_begin_catch
	.loc 10 357 0
	cmpwi 7,26,0
	mr 31,27
	beq- 7,.L422
.L451:
.LVL656:
.LBB3861:
.LBB3862:
.LBB3863:
.LBB3864:
.LBB3865:
	.loc 7 103 0
	cmpw 7,26,31
	beq- 7,.L452
.LVL657:
.LBB3866:
.LBB3867:
	.loc 7 94 0
	mr 3,31
.LBE3867:
.LBE3866:
	.loc 7 103 0
	addi 31,31,4
.LVL658:
.LBB3869:
.LBB3868:
	.loc 7 94 0
	bl _ZNSsD1Ev
.LVL659:
	b .L451
.LVL660:
.L465:
.LBE3868:
.LBE3869:
.LBE3865:
.LBE3864:
.LBE3863:
.LBE3862:
.LBE3861:
.LBB3870:
.LBB3786:
.LBB3783:
.LBB3780:
.LBB3777:
.LBB3774:
	.loc 12 80 0
	stw 3,28(1)
	bl __cxa_end_catch
.LBE3774:
.LBE3777:
.LBE3780:
.LBE3783:
.LBE3786:
.LBE3870:
	.loc 10 355 0
	lwz 3,28(1)
	bl __cxa_begin_catch
.LVL661:
.L422:
.LBB3871:
.LBB3872:
	.loc 8 118 0
	mr 3,25
	bl _ZNSsD1Ev
.LVL662:
.L452:
.LBE3872:
.LBE3871:
.LBB3873:
.LBB3874:
	.loc 6 155 0
	cmpwi 7,27,0
	beq- 7,.L454
.LVL663:
.LBB3875:
.LBB3876:
	.loc 8 98 0
	mr 3,27
	bl _ZdlPv
.LVL664:
.L454:
.LEHB63:
.LBE3876:
.LBE3875:
.LBE3874:
.LBE3873:
	.loc 10 362 0
	bl __cxa_rethrow
.LEHE63:
.LVL665:
.L462:
.LBB3877:
.LBB3755:
	.loc 8 108 0
	mr 26,27
	b .L431
.LVL666:
.L474:
.LBE3755:
.LBE3877:
.LBE3882:
.LBB3883:
.LBB3730:
.LBB3729:
.LBB3728:
.LBB3727:
.LBB3725:
.LBB3718:
.LBB3719:
.LBB3720:
	.loc 5 66 0
	lwz 11,-4(9)
.LVL667:
.LBE3720:
.LBE3719:
.LBE3718:
	.loc 3 240 0
	cmpwi 7,11,0
.LBB3723:
.LBB3722:
.LBB3721:
	.loc 5 67 0
	addi 11,11,-1
	stw 11,-4(9)
.LBE3721:
.LBE3722:
.LBE3723:
	.loc 3 240 0
	bgt+ 7,.L406
	.loc 3 244 0
	addi 4,1,9
	bl _ZNSs4_Rep10_M_destroyERKSaIcE
.LVL668:
	b .L406
.LVL669:
.L461:
	mr 31,3
.LBE3725:
.LBE3727:
.LBE3728:
.LBE3729:
.LBE3730:
	.loc 10 317 0
	addi 3,1,12
	bl _ZNSsD1Ev
	mr 3,31
.LEHB64:
	bl _Unwind_Resume
.LEHE64:
.LVL670:
.L475:
.LBE3883:
.LBB3884:
.LBB3878:
.LBB3738:
	.loc 6 1245 0
	lis 11,0x3fff
	ori 11,11,65535
	cmplw 7,9,11
	bgt+ 7,.L413
.LVL671:
.LBE3738:
.LBE3878:
.LBB3879:
.LBB3751:
	.loc 6 150 0
	cmpwi 7,9,0
.LBE3751:
.LBE3879:
.LBB3880:
.LBB3744:
	.loc 2 892 0
	subf 0,0,30
	srawi 28,0,2
.LVL672:
.LBE3744:
.LBE3880:
.LBB3881:
.LBB3752:
	.loc 6 150 0
	li 24,0
	li 27,0
	beq+ 7,.L414
	b .L456
.LVL673:
.L463:
.LBE3752:
.LBE3881:
	.loc 10 355 0
	stw 3,28(1)
	bl __cxa_end_catch
	lwz 3,28(1)
.LEHB65:
	bl _Unwind_Resume
.LEHE65:
.LBE3884:
.LBE3888:
	.cfi_endproc
.LFE1116:
	.section	.gcc_except_table
	.align 2
.LLSDA1116:
	.byte	0xff
	.byte	0
	.uleb128 .LLSDATT1116-.LLSDATTD1116
.LLSDATTD1116:
	.byte	0x1
	.uleb128 .LLSDACSE1116-.LLSDACSB1116
.LLSDACSB1116:
	.uleb128 .LEHB55-.LFB1116
	.uleb128 .LEHE55-.LEHB55
	.uleb128 0
	.uleb128 0
	.uleb128 .LEHB56-.LFB1116
	.uleb128 .LEHE56-.LEHB56
	.uleb128 .L461-.LFB1116
	.uleb128 0
	.uleb128 .LEHB57-.LFB1116
	.uleb128 .LEHE57-.LEHB57
	.uleb128 0
	.uleb128 0
	.uleb128 .LEHB58-.LFB1116
	.uleb128 .LEHE58-.LEHB58
	.uleb128 .L462-.LFB1116
	.uleb128 0x1
	.uleb128 .LEHB59-.LFB1116
	.uleb128 .LEHE59-.LEHB59
	.uleb128 .L464-.LFB1116
	.uleb128 0x1
	.uleb128 .LEHB60-.LFB1116
	.uleb128 .LEHE60-.LEHB60
	.uleb128 .L466-.LFB1116
	.uleb128 0x1
	.uleb128 .LEHB61-.LFB1116
	.uleb128 .LEHE61-.LEHB61
	.uleb128 .L467-.LFB1116
	.uleb128 0x3
	.uleb128 .LEHB62-.LFB1116
	.uleb128 .LEHE62-.LEHB62
	.uleb128 .L465-.LFB1116
	.uleb128 0x3
	.uleb128 .LEHB63-.LFB1116
	.uleb128 .LEHE63-.LEHB63
	.uleb128 .L463-.LFB1116
	.uleb128 0
	.uleb128 .LEHB64-.LFB1116
	.uleb128 .LEHE64-.LEHB64
	.uleb128 0
	.uleb128 0
	.uleb128 .LEHB65-.LFB1116
	.uleb128 .LEHE65-.LEHB65
	.uleb128 0
	.uleb128 0
.LLSDACSE1116:
	.byte	0x1
	.byte	0
	.byte	0
	.byte	0x7d
	.align 2
	.long	0
.LLSDATT1116:
	.section	.text._ZNSt6vectorISsSaISsEE13_M_insert_auxEN9__gnu_cxx17__normal_iteratorIPSsS1_EERKSs,"axG",@progbits,_ZNSt6vectorISsSaISsEE13_M_insert_auxEN9__gnu_cxx17__normal_iteratorIPSsS1_EERKSs,comdat
	.size	_ZNSt6vectorISsSaISsEE13_M_insert_auxEN9__gnu_cxx17__normal_iteratorIPSsS1_EERKSs, .-_ZNSt6vectorISsSaISsEE13_M_insert_auxEN9__gnu_cxx17__normal_iteratorIPSsS1_EERKSs
	.section	.text._ZSt16__insertion_sortIN9__gnu_cxx17__normal_iteratorIPSsSt6vectorISsSaISsEEEEEvT_S7_,"axG",@progbits,_ZSt16__insertion_sortIN9__gnu_cxx17__normal_iteratorIPSsSt6vectorISsSaISsEEEEEvT_S7_,comdat
	.align 2
	.weak	_ZSt16__insertion_sortIN9__gnu_cxx17__normal_iteratorIPSsSt6vectorISsSaISsEEEEEvT_S7_
	.type	_ZSt16__insertion_sortIN9__gnu_cxx17__normal_iteratorIPSsSt6vectorISsSaISsEEEEEvT_S7_, @function
_ZSt16__insertion_sortIN9__gnu_cxx17__normal_iteratorIPSsSt6vectorISsSaISsEEEEEvT_S7_:
.LFB1153:
	.file 13 "d:\\devkitpro\\devkitppc\\bin\\../lib/gcc/powerpc-eabi/4.6.3/../../../../powerpc-eabi/include/c++/4.6.3/bits/stl_algo.h"
	.loc 13 2099 0
	.cfi_startproc
	.cfi_personality 0,__gxx_personality_v0
	.cfi_lsda 0,.LLSDA1153
.LVL674:
	mflr 0
	stwu 1,-72(1)
.LCFI84:
	.cfi_def_cfa_offset 72
	.cfi_register 65, 0
	stw 26,48(1)
	stw 0,76(1)
	stw 27,52(1)
	lwz 26,0(4)
	.cfi_offset 27, -20
	.cfi_offset 65, 4
	.cfi_offset 26, -24
	lwz 27,0(3)
.LVL675:
	stw 23,36(1)
.LBB4016:
	.loc 13 2102 0
	cmpw 7,26,27
.LBE4016:
	.loc 13 2099 0
	stw 24,40(1)
	stw 25,44(1)
	stw 28,56(1)
	stw 29,60(1)
	stw 30,64(1)
	stw 31,68(1)
.LBB4147:
	.loc 13 2102 0
	beq- 7,.L479
	.cfi_offset 31, -4
	.cfi_offset 30, -8
	.cfi_offset 29, -12
	.cfi_offset 28, -16
	.cfi_offset 25, -28
	.cfi_offset 24, -32
	.cfi_offset 23, -36
.LVL676:
.LBB4017:
.LBB4018:
.LBB4019:
	.loc 2 773 0
	addi 29,27,4
.LVL677:
.LBE4019:
.LBE4018:
	.loc 13 2105 0
	cmpw 7,29,26
	beq- 7,.L479
	.loc 13 2099 0
	addi 28,27,8
.LVL678:
.L505:
.LBB4020:
.LBB4021:
.LBB4022:
.LBB4023:
.LBB4024:
.LBB4025:
.LBB4026:
.LBB4027:
.LBB4028:
	.loc 3 288 0
	lwz 3,0(29)
.LBE4028:
.LBE4027:
.LBE4026:
.LBE4025:
.LBE4024:
.LBE4023:
.LBE4022:
.LBE4021:
.LBE4020:
	.loc 13 2105 0
	mr 24,29
.LVL679:
.LBB4143:
.LBB4042:
.LBB4041:
.LBB4040:
.LBB4030:
.LBB4031:
.LBB4032:
.LBB4033:
.LBB4034:
	.loc 3 288 0
	lwz 4,0(27)
.LBE4034:
.LBE4033:
.LBE4032:
.LBE4031:
.LBE4030:
.LBB4036:
.LBB4029:
	.loc 3 711 0
	lwz 30,-12(3)
.LVL680:
.LBE4029:
.LBE4036:
.LBB4037:
.LBB4035:
	lwz 31,-12(4)
.LVL681:
.LBE4035:
.LBE4037:
.LBB4038:
.LBB4039:
	.loc 4 257 0
	cmplw 7,31,30
	mr 5,31
	ble- 7,.L481
	mr 5,30
.L481:
	bl memcmp
.LVL682:
.LBE4039:
.LBE4038:
	.loc 3 2180 0
	cmpwi 0,3,0
	bne- 0,.L482
.LVL683:
	subf. 0,31,30
.LVL684:
.L482:
.LBE4040:
.LBE4041:
.LBE4042:
.LBB4043:
	.loc 13 2110 0
	addi 3,1,12
	mr 4,29
.LBE4043:
	.loc 13 2107 0
	bge- 0,.L483
.LVL685:
.LEHB66:
.LBB4083:
	.loc 13 2110 0
	bl _ZNSsC1ERKSs
.LEHE66:
.LVL686:
.LBB4044:
.LBB4045:
.LBB4046:
.LBB4047:
.LBB4048:
.LBB4049:
	.loc 11 530 0
	subf 0,27,29
	srawi. 9,0,2
.LBE4049:
.LBE4048:
.LBE4047:
.LBE4046:
.LBE4045:
.LBE4044:
.LBB4057:
.LBB4058:
	.loc 2 773 0
	mr 30,28
.LVL687:
.LBE4058:
.LBE4057:
.LBB4059:
.LBB4056:
.LBB4055:
.LBB4054:
.LBB4053:
.LBB4052:
	.loc 11 530 0
	stw 9,24(1)
	bgt+ 0,.L511
	b .L484
.LVL688:
.L507:
	.loc 11 531 0
	mr 24,31
.LVL689:
.L511:
	addi 31,24,-4
.LVL690:
.LBB4050:
.LBB4051:
	.loc 3 542 0
	mr 3,24
	mr 4,31
.LEHB67:
	bl _ZNSs6assignERKSs
.LVL691:
.LBE4051:
.LBE4050:
	.loc 11 530 0
	lwz 0,24(1)
	addic. 9,0,-1
	stw 9,24(1)
	bne+ 0,.L507
.LVL692:
.L484:
.LBE4052:
.LBE4053:
.LBE4054:
.LBE4055:
.LBE4056:
.LBE4059:
.LBB4060:
.LBB4061:
	.loc 3 542 0
	mr 3,27
	addi 4,1,12
.LVL693:
	bl _ZNSs6assignERKSs
.LEHE67:
.LVL694:
.LBE4061:
.LBE4060:
.LBB4062:
.LBB4063:
.LBB4064:
.LBB4065:
.LBB4066:
.LBB4067:
	.loc 3 288 0
	lwz 9,12(1)
.LBE4067:
.LBE4066:
.LBE4065:
.LBB4068:
.LBB4069:
	.loc 3 235 0
	lis 11,_ZNSs4_Rep20_S_empty_rep_storageE@ha
	la 0,_ZNSs4_Rep20_S_empty_rep_storageE@l(11)
.LBE4069:
.LBE4068:
	.loc 3 534 0
	addi 3,9,-12
.LVL695:
.LBB4078:
.LBB4076:
	.loc 3 235 0
	cmpw 7,3,0
	bne- 7,.L514
.LVL696:
.L504:
.LBE4076:
.LBE4078:
.LBE4064:
.LBE4063:
.LBE4062:
.LBE4083:
.LBE4143:
	.loc 13 2105 0
	cmpw 7,26,30
.LBB4144:
.LBB4084:
.LBB4085:
	.loc 13 2074 0
	addi 28,28,4
.LVL697:
	addi 29,29,4
.LVL698:
.LBE4085:
.LBE4084:
.LBE4144:
	.loc 13 2105 0
	bne+ 7,.L505
.LVL699:
.L479:
.LBE4017:
.LBE4147:
	.loc 13 2117 0
	lwz 0,76(1)
	lwz 23,36(1)
	mtlr 0
	lwz 24,40(1)
	lwz 25,44(1)
	lwz 26,48(1)
	lwz 27,52(1)
.LVL700:
	lwz 28,56(1)
	lwz 29,60(1)
	lwz 30,64(1)
	lwz 31,68(1)
	addi 1,1,72
	.cfi_remember_state
.LCFI85:
	.cfi_def_cfa_offset 0
	.cfi_restore 31
	.cfi_restore 30
	.cfi_restore 29
	.cfi_restore 28
	.cfi_restore 27
	.cfi_restore 26
	.cfi_restore 25
	.cfi_restore 24
	.cfi_restore 23
	blr
.LVL701:
.L483:
.LCFI86:
	.cfi_restore_state
.LEHB68:
.LBB4148:
.LBB4146:
.LBB4145:
.LBB4139:
.LBB4137:
	.loc 13 2065 0
	bl _ZNSsC1ERKSs
.LEHE68:
.LVL702:
	.loc 13 2099 0
	addi 31,28,-8
.LVL703:
	b .L487
.LVL704:
.L490:
.LBB4086:
.LBB4087:
	.loc 3 542 0
	mr 4,31
.LEHB69:
	bl _ZNSs6assignERKSs
.LVL705:
	addi 31,31,-4
	mr 24,30
.LVL706:
.L487:
.LBE4087:
.LBE4086:
.LBB4090:
.LBB4091:
.LBB4092:
.LBB4093:
.LBB4094:
.LBB4095:
.LBB4096:
.LBB4097:
	.loc 3 288 0
	lwz 3,12(1)
.LBE4097:
.LBE4096:
.LBE4095:
.LBE4094:
.LBE4093:
.LBE4092:
.LBE4091:
.LBE4090:
.LBB4111:
.LBB4088:
	.loc 3 542 0
	mr 30,31
.LVL707:
.LBE4088:
.LBE4111:
.LBB4112:
.LBB4110:
.LBB4109:
.LBB4099:
.LBB4100:
.LBB4101:
.LBB4102:
.LBB4103:
	.loc 3 288 0
	lwz 4,0(31)
.LBE4103:
.LBE4102:
.LBE4101:
.LBE4100:
.LBE4099:
.LBB4105:
.LBB4098:
	.loc 3 711 0
	lwz 23,-12(3)
.LVL708:
.LBE4098:
.LBE4105:
.LBB4106:
.LBB4104:
	lwz 25,-12(4)
.LVL709:
.LBE4104:
.LBE4106:
.LBB4107:
.LBB4108:
	.loc 4 257 0
	cmplw 7,25,23
	mr 5,25
	ble- 7,.L488
	mr 5,23
.L488:
	bl memcmp
.LVL710:
.LBE4108:
.LBE4107:
	.loc 3 2180 0
	cmpwi 0,3,0
	bne- 0,.L489
.LVL711:
	subf. 0,25,23
.LVL712:
.L489:
.LBE4109:
.LBE4110:
.LBE4112:
.LBB4113:
.LBB4089:
	.loc 3 542 0
	mr 3,24
.LBE4089:
.LBE4113:
	.loc 13 2068 0
	blt+ 0,.L490
.LVL713:
.LBB4114:
.LBB4115:
	.loc 3 542 0
	addi 4,1,12
.LVL714:
	bl _ZNSs6assignERKSs
.LEHE69:
.LVL715:
.LBE4115:
.LBE4114:
.LBB4116:
.LBB4117:
.LBB4118:
.LBB4119:
.LBB4120:
.LBB4121:
	.loc 3 288 0
	lwz 9,12(1)
.LBE4121:
.LBE4120:
.LBE4119:
.LBB4122:
.LBB4123:
	.loc 3 235 0
	lis 11,_ZNSs4_Rep20_S_empty_rep_storageE@ha
	la 0,_ZNSs4_Rep20_S_empty_rep_storageE@l(11)
.LBE4123:
.LBE4122:
	.loc 3 534 0
	addi 3,9,-12
.LVL716:
.LBB4132:
.LBB4130:
	.loc 3 235 0
	cmpw 7,3,0
	bne- 7,.L491
.L512:
	.loc 3 244 0
	mr 30,28
	b .L504
.LVL717:
.L508:
.L513:
	mr 31,3
.LBE4130:
.LBE4132:
.LBE4118:
.LBE4117:
.LBE4116:
.LBE4137:
.LBE4139:
.LBB4140:
	.loc 13 2112 0
	addi 3,1,12
	bl _ZNSsD1Ev
	mr 3,31
.LEHB70:
	bl _Unwind_Resume
.LEHE70:
.LVL718:
.L491:
.LBE4140:
.LBB4141:
.LBB4138:
.LBB4136:
.LBB4135:
.LBB4134:
.LBB4133:
.LBB4131:
.LBB4124:
.LBB4125:
.LBB4126:
	.loc 5 66 0
	lwz 11,-4(9)
.LVL719:
.LBE4126:
.LBE4125:
.LBE4124:
	.loc 3 240 0
	cmpwi 7,11,0
.LBB4129:
.LBB4128:
.LBB4127:
	.loc 5 67 0
	addi 11,11,-1
	stw 11,-4(9)
.LBE4127:
.LBE4128:
.LBE4129:
	.loc 3 240 0
	bgt+ 7,.L512
	.loc 3 244 0
	addi 4,1,8
	mr 30,28
.LVL720:
	bl _ZNSs4_Rep10_M_destroyERKSaIcE
.LVL721:
	b .L504
.LVL722:
.L509:
	b .L513
.LVL723:
.L514:
.LBE4131:
.LBE4133:
.LBE4134:
.LBE4135:
.LBE4136:
.LBE4138:
.LBE4141:
.LBB4142:
.LBB4082:
.LBB4081:
.LBB4080:
.LBB4079:
.LBB4077:
.LBB4070:
.LBB4071:
.LBB4072:
	.loc 5 66 0
	lwz 11,-4(9)
.LVL724:
.LBE4072:
.LBE4071:
.LBE4070:
	.loc 3 240 0
	cmpwi 7,11,0
.LBB4075:
.LBB4074:
.LBB4073:
	.loc 5 67 0
	addi 11,11,-1
	stw 11,-4(9)
.LBE4073:
.LBE4074:
.LBE4075:
	.loc 3 240 0
	bgt+ 7,.L504
	.loc 3 244 0
	addi 4,1,9
	bl _ZNSs4_Rep10_M_destroyERKSaIcE
.LVL725:
	b .L504
.LBE4077:
.LBE4079:
.LBE4080:
.LBE4081:
.LBE4082:
.LBE4142:
.LBE4145:
.LBE4146:
.LBE4148:
	.cfi_endproc
.LFE1153:
	.section	.gcc_except_table
.LLSDA1153:
	.byte	0xff
	.byte	0xff
	.byte	0x1
	.uleb128 .LLSDACSE1153-.LLSDACSB1153
.LLSDACSB1153:
	.uleb128 .LEHB66-.LFB1153
	.uleb128 .LEHE66-.LEHB66
	.uleb128 0
	.uleb128 0
	.uleb128 .LEHB67-.LFB1153
	.uleb128 .LEHE67-.LEHB67
	.uleb128 .L508-.LFB1153
	.uleb128 0
	.uleb128 .LEHB68-.LFB1153
	.uleb128 .LEHE68-.LEHB68
	.uleb128 0
	.uleb128 0
	.uleb128 .LEHB69-.LFB1153
	.uleb128 .LEHE69-.LEHB69
	.uleb128 .L509-.LFB1153
	.uleb128 0
	.uleb128 .LEHB70-.LFB1153
	.uleb128 .LEHE70-.LEHB70
	.uleb128 0
	.uleb128 0
.LLSDACSE1153:
	.section	.text._ZSt16__insertion_sortIN9__gnu_cxx17__normal_iteratorIPSsSt6vectorISsSaISsEEEEEvT_S7_,"axG",@progbits,_ZSt16__insertion_sortIN9__gnu_cxx17__normal_iteratorIPSsSt6vectorISsSaISsEEEEEvT_S7_,comdat
	.size	_ZSt16__insertion_sortIN9__gnu_cxx17__normal_iteratorIPSsSt6vectorISsSaISsEEEEEvT_S7_, .-_ZSt16__insertion_sortIN9__gnu_cxx17__normal_iteratorIPSsSt6vectorISsSaISsEEEEEvT_S7_
	.section	.text._ZSt19__move_median_firstIN9__gnu_cxx17__normal_iteratorIPSsSt6vectorISsSaISsEEEEEvT_S7_S7_,"axG",@progbits,_ZSt19__move_median_firstIN9__gnu_cxx17__normal_iteratorIPSsSt6vectorISsSaISsEEEEEvT_S7_S7_,comdat
	.align 2
	.weak	_ZSt19__move_median_firstIN9__gnu_cxx17__normal_iteratorIPSsSt6vectorISsSaISsEEEEEvT_S7_S7_
	.type	_ZSt19__move_median_firstIN9__gnu_cxx17__normal_iteratorIPSsSt6vectorISsSaISsEEEEEvT_S7_S7_, @function
_ZSt19__move_median_firstIN9__gnu_cxx17__normal_iteratorIPSsSt6vectorISsSaISsEEEEEvT_S7_S7_:
.LFB1175:
	.loc 13 80 0
	.cfi_startproc
.LVL726:
	mflr 0
	stwu 1,-48(1)
.LCFI87:
	.cfi_def_cfa_offset 48
	.cfi_register 65, 0
	stw 25,20(1)
	stw 0,52(1)
	stw 26,24(1)
	lwz 25,0(4)
	.cfi_offset 26, -24
	.cfi_offset 65, 4
	.cfi_offset 25, -28
	lwz 26,0(3)
.LVL727:
	stw 28,32(1)
	stw 29,36(1)
.LBB4319:
.LBB4320:
.LBB4321:
.LBB4322:
.LBB4323:
.LBB4324:
.LBB4325:
.LBB4326:
	.loc 3 288 0
	lwz 28,0(25)
	.cfi_offset 29, -12
	.cfi_offset 28, -16
.LBE4326:
.LBE4325:
.LBE4324:
.LBE4323:
.LBE4322:
.LBB4328:
.LBB4329:
.LBB4330:
.LBB4331:
.LBB4332:
	lwz 29,0(26)
.LBE4332:
.LBE4331:
.LBE4330:
.LBE4329:
.LBE4328:
.LBE4321:
.LBE4320:
.LBE4319:
	.loc 13 80 0
	stw 30,40(1)
	stw 31,44(1)
.LBB4350:
.LBB4346:
.LBB4342:
.LBB4334:
.LBB4333:
	.loc 3 711 0
	lwz 30,-12(29)
	.cfi_offset 31, -4
	.cfi_offset 30, -8
.LBE4333:
.LBE4334:
.LBB4335:
.LBB4327:
	lwz 31,-12(28)
.LBE4327:
.LBE4335:
.LBE4342:
.LBE4346:
.LBE4350:
	.loc 13 80 0
	stw 24,16(1)
.LBB4351:
.LBB4347:
.LBB4343:
.LBB4336:
.LBB4337:
	.loc 4 257 0
	cmplw 7,31,30
.LBE4337:
.LBE4336:
.LBE4343:
.LBE4347:
.LBE4351:
	.loc 13 80 0
	lwz 24,0(5)
	.cfi_offset 24, -32
.LVL728:
	stw 23,12(1)
.LBB4352:
.LBB4348:
.LBB4344:
.LBB4340:
.LBB4338:
	.loc 4 257 0
	mr 5,31
.LVL729:
.LBE4338:
.LBE4340:
.LBE4344:
.LBE4348:
.LBE4352:
	.loc 13 80 0
	stw 27,28(1)
.LBB4353:
.LBB4349:
.LBB4345:
.LBB4341:
.LBB4339:
	.loc 4 257 0
	ble- 7,.L516
	.cfi_offset 27, -20
	.cfi_offset 23, -36
	mr 5,30
.L516:
	mr 3,29
.LVL730:
	mr 4,28
.LVL731:
	bl memcmp
.LVL732:
.LBE4339:
.LBE4341:
	.loc 3 2180 0
	cmpwi 0,3,0
	bne- 0,.L517
.LVL733:
	subf. 0,31,30
.LVL734:
.L517:
.LBE4345:
.LBE4349:
.LBE4353:
.LBB4354:
.LBB4355:
.LBB4356:
.LBB4357:
.LBB4358:
.LBB4359:
.LBB4360:
.LBB4361:
	.loc 3 288 0
	lwz 23,0(24)
.LBE4361:
.LBE4360:
.LBE4359:
	.loc 3 711 0
	lwz 27,-12(23)
.LBE4358:
.LBE4357:
.LBE4356:
.LBE4355:
.LBE4354:
	.loc 13 86 0
	bge- 0,.L518
.LVL735:
.LBB4370:
.LBB4368:
.LBB4366:
.LBB4362:
.LBB4363:
	.loc 4 257 0
	cmplw 7,27,31
	mr 5,27
	bgt- 7,.L530
	mr 3,28
	mr 4,23
	bl memcmp
.LVL736:
.LBE4363:
.LBE4362:
	.loc 3 2180 0
	cmpwi 0,3,0
	bne- 0,.L520
.L537:
.LVL737:
	subf. 0,27,31
.LVL738:
.L520:
.LBE4366:
.LBE4368:
.LBE4370:
	.loc 13 88 0
	blt- 0,.L531
.LVL739:
.LBB4371:
.LBB4372:
.LBB4373:
.LBB4374:
.LBB4375:
	.loc 4 257 0
	cmplw 7,27,30
	mr 5,27
	bgt- 7,.L532
.L523:
	mr 3,29
	mr 4,23
	bl memcmp
.LBE4375:
.LBE4374:
	.loc 3 2180 0
	cmpwi 0,3,0
	bne- 0,.L524
.LVL740:
	subf. 0,27,30
.LVL741:
.L524:
.LBE4373:
.LBE4372:
.LBE4371:
	.loc 13 90 0
	blt- 0,.L533
.LVL742:
.L515:
	.loc 13 99 0
	lwz 0,52(1)
	lwz 23,12(1)
	mtlr 0
	lwz 24,16(1)
.LVL743:
	lwz 25,20(1)
.LVL744:
	lwz 26,24(1)
.LVL745:
	lwz 27,28(1)
	lwz 28,32(1)
.LVL746:
	lwz 29,36(1)
.LVL747:
	lwz 30,40(1)
.LVL748:
	lwz 31,44(1)
.LVL749:
	addi 1,1,48
	.cfi_remember_state
.LCFI88:
	.cfi_def_cfa_offset 0
	.cfi_restore 31
	.cfi_restore 30
	.cfi_restore 29
	.cfi_restore 28
	.cfi_restore 27
	.cfi_restore 26
	.cfi_restore 25
	.cfi_restore 24
	.cfi_restore 23
	blr
.LVL750:
.L518:
.LCFI89:
	.cfi_restore_state
.LBB4380:
.LBB4381:
.LBB4382:
.LBB4383:
.LBB4384:
	.loc 4 257 0
	cmplw 7,27,30
	mr 5,27
	bgt- 7,.L534
	mr 3,29
	mr 4,23
	bl memcmp
.LBE4384:
.LBE4383:
	.loc 3 2180 0
	cmpwi 0,3,0
	bne- 0,.L526
.L538:
.LVL751:
	subf. 0,27,30
.LVL752:
.L526:
.LBE4382:
.LBE4381:
.LBE4380:
	.loc 13 93 0
	blt- 0,.L515
.LVL753:
.LBB4389:
.LBB4390:
.LBB4391:
.LBB4392:
.LBB4393:
	.loc 4 257 0
	cmplw 7,27,31
	mr 5,27
	bgt- 7,.L535
	mr 3,28
	mr 4,23
	bl memcmp
.LBE4393:
.LBE4392:
	.loc 3 2180 0
	cmpwi 0,3,0
	bne- 0,.L528
.L539:
.LVL754:
	subf. 0,27,31
.LVL755:
.L528:
.LBE4391:
.LBE4390:
.LBE4389:
.LBB4398:
.LBB4399:
.LBB4400:
.LBB4401:
.LBB4402:
	.loc 3 2660 0
	mr 3,26
.LBE4402:
.LBE4401:
.LBE4400:
.LBE4399:
.LBE4398:
	.loc 13 95 0
	blt- 0,.L536
.LVL756:
.LBB4407:
.LBB4408:
.LBB4409:
.LBB4410:
.LBB4411:
	.loc 3 2660 0
	mr 4,25
	bl _ZNSs4swapERSs
.LBE4411:
.LBE4410:
.LBE4409:
.LBE4408:
.LBE4407:
	.loc 13 99 0
	lwz 0,52(1)
	lwz 23,12(1)
.LVL757:
	mtlr 0
	lwz 24,16(1)
.LVL758:
	lwz 25,20(1)
.LVL759:
	lwz 26,24(1)
.LVL760:
	lwz 27,28(1)
.LVL761:
	lwz 28,32(1)
.LVL762:
	lwz 29,36(1)
	lwz 30,40(1)
.LVL763:
	lwz 31,44(1)
.LVL764:
	addi 1,1,48
	.cfi_remember_state
	.cfi_restore 23
	.cfi_restore 24
	.cfi_restore 25
	.cfi_restore 26
	.cfi_restore 27
	.cfi_restore 28
	.cfi_restore 29
	.cfi_restore 30
	.cfi_restore 31
.LCFI90:
	.cfi_def_cfa_offset 0
	blr
.LVL765:
.L530:
.LCFI91:
	.cfi_restore_state
.LBB4412:
.LBB4369:
.LBB4367:
.LBB4365:
.LBB4364:
	.loc 4 257 0
	mr 5,31
.LVL766:
	mr 3,28
	mr 4,23
	bl memcmp
.LBE4364:
.LBE4365:
	.loc 3 2180 0
	cmpwi 0,3,0
	beq+ 0,.L537
	b .L520
.LVL767:
.L534:
.LBE4367:
.LBE4369:
.LBE4412:
.LBB4413:
.LBB4388:
.LBB4387:
.LBB4386:
.LBB4385:
	.loc 4 257 0
	mr 5,30
	mr 3,29
	mr 4,23
	bl memcmp
.LBE4385:
.LBE4386:
	.loc 3 2180 0
	cmpwi 0,3,0
	beq+ 0,.L538
	b .L526
.LVL768:
.L532:
.LBE4387:
.LBE4388:
.LBE4413:
.LBB4414:
.LBB4379:
.LBB4378:
.LBB4377:
.LBB4376:
	.loc 4 257 0
	mr 5,30
	b .L523
.LVL769:
.L535:
.LBE4376:
.LBE4377:
.LBE4378:
.LBE4379:
.LBE4414:
.LBB4415:
.LBB4397:
.LBB4396:
.LBB4395:
.LBB4394:
	mr 5,31
	mr 3,28
	mr 4,23
	bl memcmp
.LBE4394:
.LBE4395:
	.loc 3 2180 0
	cmpwi 0,3,0
	beq+ 0,.L539
	b .L528
.L536:
.LVL770:
.LBE4396:
.LBE4397:
.LBE4415:
.LBB4416:
.LBB4406:
.LBB4405:
.LBB4404:
.LBB4403:
	.loc 3 2660 0
	mr 4,24
	bl _ZNSs4swapERSs
.LBE4403:
.LBE4404:
.LBE4405:
.LBE4406:
.LBE4416:
	.loc 13 99 0
	lwz 0,52(1)
	lwz 23,12(1)
.LVL771:
	mtlr 0
	lwz 24,16(1)
.LVL772:
	lwz 25,20(1)
.LVL773:
	lwz 26,24(1)
.LVL774:
	lwz 27,28(1)
.LVL775:
	lwz 28,32(1)
.LVL776:
	lwz 29,36(1)
	lwz 30,40(1)
.LVL777:
	lwz 31,44(1)
.LVL778:
	addi 1,1,48
	.cfi_remember_state
	.cfi_restore 23
	.cfi_restore 24
	.cfi_restore 25
	.cfi_restore 26
	.cfi_restore 27
	.cfi_restore 28
	.cfi_restore 29
	.cfi_restore 30
	.cfi_restore 31
.LCFI92:
	.cfi_def_cfa_offset 0
	blr
.LVL779:
.L533:
.LCFI93:
	.cfi_restore_state
.LBB4417:
.LBB4418:
.LBB4419:
.LBB4420:
.LBB4421:
	.loc 3 2660 0
	mr 3,26
	mr 4,24
	bl _ZNSs4swapERSs
.LBE4421:
.LBE4420:
.LBE4419:
.LBE4418:
.LBE4417:
	.loc 13 99 0
	lwz 0,52(1)
	lwz 23,12(1)
.LVL780:
	mtlr 0
	lwz 24,16(1)
.LVL781:
	lwz 25,20(1)
.LVL782:
	lwz 26,24(1)
.LVL783:
	lwz 27,28(1)
.LVL784:
	lwz 28,32(1)
.LVL785:
	lwz 29,36(1)
.LVL786:
	lwz 30,40(1)
.LVL787:
	lwz 31,44(1)
.LVL788:
	addi 1,1,48
	.cfi_remember_state
	.cfi_restore 23
	.cfi_restore 24
	.cfi_restore 25
	.cfi_restore 26
	.cfi_restore 27
	.cfi_restore 28
	.cfi_restore 29
	.cfi_restore 30
	.cfi_restore 31
.LCFI94:
	.cfi_def_cfa_offset 0
	blr
.LVL789:
.L531:
.LCFI95:
	.cfi_restore_state
.LBB4422:
.LBB4423:
.LBB4424:
.LBB4425:
.LBB4426:
	.loc 3 2660 0
	mr 3,26
	mr 4,25
	bl _ZNSs4swapERSs
.LBE4426:
.LBE4425:
.LBE4424:
.LBE4423:
.LBE4422:
	.loc 13 99 0
	lwz 0,52(1)
	lwz 23,12(1)
.LVL790:
	mtlr 0
	lwz 24,16(1)
.LVL791:
	lwz 25,20(1)
.LVL792:
	lwz 26,24(1)
.LVL793:
	lwz 27,28(1)
.LVL794:
	lwz 28,32(1)
.LVL795:
	lwz 29,36(1)
	lwz 30,40(1)
.LVL796:
	lwz 31,44(1)
.LVL797:
	addi 1,1,48
	.cfi_restore 23
	.cfi_restore 24
	.cfi_restore 25
	.cfi_restore 26
	.cfi_restore 27
	.cfi_restore 28
	.cfi_restore 29
	.cfi_restore 30
	.cfi_restore 31
.LCFI96:
	.cfi_def_cfa_offset 0
	blr
	.cfi_endproc
.LFE1175:
	.size	_ZSt19__move_median_firstIN9__gnu_cxx17__normal_iteratorIPSsSt6vectorISsSaISsEEEEEvT_S7_S7_, .-_ZSt19__move_median_firstIN9__gnu_cxx17__normal_iteratorIPSsSt6vectorISsSaISsEEEEEvT_S7_S7_
	.section	.text._ZSt9make_heapIN9__gnu_cxx17__normal_iteratorIPSsSt6vectorISsSaISsEEEEEvT_S7_,"axG",@progbits,_ZSt9make_heapIN9__gnu_cxx17__normal_iteratorIPSsSt6vectorISsSaISsEEEEEvT_S7_,comdat
	.align 2
	.weak	_ZSt9make_heapIN9__gnu_cxx17__normal_iteratorIPSsSt6vectorISsSaISsEEEEEvT_S7_
	.type	_ZSt9make_heapIN9__gnu_cxx17__normal_iteratorIPSsSt6vectorISsSaISsEEEEEvT_S7_, @function
_ZSt9make_heapIN9__gnu_cxx17__normal_iteratorIPSsSt6vectorISsSaISsEEEEEvT_S7_:
.LFB1193:
	.loc 1 375 0
	.cfi_startproc
	.cfi_personality 0,__gxx_personality_v0
	.cfi_lsda 0,.LLSDA1193
.LVL798:
	mflr 0
	stwu 1,-56(1)
.LCFI97:
	.cfi_def_cfa_offset 56
	.cfi_register 65, 0
	stw 28,40(1)
	stw 0,60(1)
	stw 29,44(1)
	lwz 28,0(4)
	.cfi_offset 29, -12
	.cfi_offset 65, 4
	.cfi_offset 28, -16
	lwz 29,0(3)
.LVL799:
	stw 27,36(1)
.LBB4498:
.LBB4499:
.LBB4500:
	.loc 2 892 0
	subf 28,29,28
.LBE4500:
.LBE4499:
.LBE4498:
	.loc 1 375 0
	stw 30,48(1)
.LBB4565:
	.loc 1 388 0
	cmpwi 7,28,7
.LBE4565:
	.loc 1 375 0
	stw 31,52(1)
.LBB4566:
	.loc 1 388 0
	ble- 7,.L540
	.cfi_offset 31, -4
	.cfi_offset 30, -8
	.cfi_offset 27, -20
.LVL800:
.LBB4501:
.LBB4502:
	.loc 2 892 0
	srawi 28,28,2
.LVL801:
.LBE4502:
.LBE4501:
	.loc 1 392 0
	addi 31,28,-2
	srawi 31,31,1
.LVL802:
	.loc 1 375 0
	slwi 30,31,2
	add 30,29,30
.L542:
.LVL803:
.LBB4503:
	.loc 1 395 0
	addi 3,1,16
	mr 4,30
.LEHB71:
	bl _ZNSsC1ERKSs
.LEHE71:
	.loc 1 396 0
	addi 3,1,12
	addi 4,1,16
.LEHB72:
	bl _ZNSsC1ERKSs
.LEHE72:
	.loc 1 396 0 is_stmt 0 discriminator 1
	mr 3,1
	mr 4,31
	stwu 29,24(3)
	mr 5,28
	addi 6,1,12
.LEHB73:
	bl _ZSt13__adjust_heapIN9__gnu_cxx17__normal_iteratorIPSsSt6vectorISsSaISsEEEEiSsEvT_T0_S8_T1_.constprop.40
.LEHE73:
.LVL804:
.LBB4504:
.LBB4505:
.LBB4506:
.LBB4507:
.LBB4508:
.LBB4509:
	.loc 3 288 0 is_stmt 1
	lwz 9,12(1)
.LBE4509:
.LBE4508:
.LBE4507:
.LBB4510:
.LBB4511:
	.loc 3 235 0
	lis 27,_ZNSs4_Rep20_S_empty_rep_storageE@ha
	la 27,_ZNSs4_Rep20_S_empty_rep_storageE@l(27)
.LBE4511:
.LBE4510:
	.loc 3 534 0
	addi 3,9,-12
.LVL805:
.LBB4520:
.LBB4518:
	.loc 3 235 0
	cmpw 7,3,27
	bne- 7,.L560
.LVL806:
.L548:
.LBE4518:
.LBE4520:
.LBE4506:
.LBE4505:
.LBE4504:
	.loc 1 397 0 discriminator 2
	cmpwi 7,31,0
.LBB4524:
.LBB4525:
.LBB4526:
.LBB4527:
.LBB4528:
.LBB4529:
	.loc 3 288 0 discriminator 2
	lwz 9,16(1)
.LBE4529:
.LBE4528:
.LBE4527:
.LBE4526:
.LBE4525:
.LBE4524:
	.loc 1 397 0 discriminator 2
	beq- 7,.L549
.LBB4540:
.LBB4541:
	.loc 3 534 0
	addi 3,9,-12
.LBE4541:
.LBE4540:
	.loc 1 399 0
	addi 31,31,-1
.LVL807:
.LBB4557:
.LBB4554:
.LBB4542:
.LBB4543:
	.loc 3 235 0
	cmpw 7,3,27
	bne- 7,.L561
.L550:
.LBE4543:
.LBE4542:
.LBE4554:
.LBE4557:
.LBE4503:
	.loc 1 392 0
	addi 30,30,-4
	b .L542
.LVL808:
.L549:
.LBB4562:
.LBB4558:
.LBB4539:
.LBB4538:
	.loc 3 534 0
	addi 3,9,-12
.LVL809:
.LBB4530:
.LBB4531:
	.loc 3 235 0
	cmpw 7,3,27
	beq+ 7,.L540
.LVL810:
.LBB4532:
.LBB4533:
.LBB4534:
	.loc 5 66 0
	lwz 11,-4(9)
.LVL811:
.LBE4534:
.LBE4533:
.LBE4532:
	.loc 3 240 0
	cmpwi 7,11,0
.LBB4537:
.LBB4536:
.LBB4535:
	.loc 5 67 0
	addi 11,11,-1
	stw 11,-4(9)
.LBE4535:
.LBE4536:
.LBE4537:
	.loc 3 240 0
	bgt+ 7,.L540
	.loc 3 244 0
	addi 4,1,8
	bl _ZNSs4_Rep10_M_destroyERKSaIcE
.LVL812:
.L540:
.LBE4531:
.LBE4530:
.LBE4538:
.LBE4539:
.LBE4558:
.LBE4562:
.LBE4566:
	.loc 1 401 0
	lwz 0,60(1)
	lwz 27,36(1)
	mtlr 0
	lwz 28,40(1)
	lwz 29,44(1)
	lwz 30,48(1)
	lwz 31,52(1)
	addi 1,1,56
	.cfi_remember_state
.LCFI98:
	.cfi_def_cfa_offset 0
	.cfi_restore 31
	.cfi_restore 30
	.cfi_restore 29
	.cfi_restore 28
	.cfi_restore 27
	blr
.LVL813:
.L561:
.LCFI99:
	.cfi_restore_state
.LBB4567:
.LBB4563:
.LBB4559:
.LBB4555:
.LBB4552:
.LBB4550:
.LBB4544:
.LBB4545:
.LBB4546:
	.loc 5 66 0
	lwz 11,-4(9)
.LVL814:
.LBE4546:
.LBE4545:
.LBE4544:
	.loc 3 240 0
	cmpwi 7,11,0
.LBB4549:
.LBB4548:
.LBB4547:
	.loc 5 67 0
	addi 11,11,-1
	stw 11,-4(9)
.LBE4547:
.LBE4548:
.LBE4549:
	.loc 3 240 0
	bgt+ 7,.L550
	.loc 3 244 0
	addi 4,1,9
.LBE4550:
.LBE4552:
.LBE4555:
.LBE4559:
.LBE4563:
	.loc 1 392 0
	addi 30,30,-4
.LBB4564:
.LBB4560:
.LBB4556:
.LBB4553:
.LBB4551:
	.loc 3 244 0
	bl _ZNSs4_Rep10_M_destroyERKSaIcE
.LVL815:
	b .L542
.LVL816:
.L560:
.LBE4551:
.LBE4553:
.LBE4556:
.LBE4560:
.LBB4561:
.LBB4523:
.LBB4522:
.LBB4521:
.LBB4519:
.LBB4512:
.LBB4513:
.LBB4514:
	.loc 5 66 0
	lwz 11,-4(9)
.LVL817:
.LBE4514:
.LBE4513:
.LBE4512:
	.loc 3 240 0
	cmpwi 7,11,0
.LBB4517:
.LBB4516:
.LBB4515:
	.loc 5 67 0
	addi 11,11,-1
	stw 11,-4(9)
.LBE4515:
.LBE4516:
.LBE4517:
	.loc 3 240 0
	bgt+ 7,.L548
	.loc 3 244 0
	addi 4,1,10
	bl _ZNSs4_Rep10_M_destroyERKSaIcE
.LVL818:
	b .L548
.LVL819:
.L559:
	mr 31,3
.LVL820:
.LBE4519:
.LBE4521:
.LBE4522:
.LBE4523:
.LBE4561:
	.loc 1 396 0
	addi 3,1,12
	bl _ZNSsD1Ev
.L557:
	.loc 1 399 0
	addi 3,1,16
	bl _ZNSsD1Ev
	mr 3,31
.LEHB74:
	bl _Unwind_Resume
.LEHE74:
.LVL821:
.L558:
	mr 31,3
.LVL822:
	b .L557
.LBE4564:
.LBE4567:
	.cfi_endproc
.LFE1193:
	.section	.gcc_except_table
.LLSDA1193:
	.byte	0xff
	.byte	0xff
	.byte	0x1
	.uleb128 .LLSDACSE1193-.LLSDACSB1193
.LLSDACSB1193:
	.uleb128 .LEHB71-.LFB1193
	.uleb128 .LEHE71-.LEHB71
	.uleb128 0
	.uleb128 0
	.uleb128 .LEHB72-.LFB1193
	.uleb128 .LEHE72-.LEHB72
	.uleb128 .L558-.LFB1193
	.uleb128 0
	.uleb128 .LEHB73-.LFB1193
	.uleb128 .LEHE73-.LEHB73
	.uleb128 .L559-.LFB1193
	.uleb128 0
	.uleb128 .LEHB74-.LFB1193
	.uleb128 .LEHE74-.LEHB74
	.uleb128 0
	.uleb128 0
.LLSDACSE1193:
	.section	.text._ZSt9make_heapIN9__gnu_cxx17__normal_iteratorIPSsSt6vectorISsSaISsEEEEEvT_S7_,"axG",@progbits,_ZSt9make_heapIN9__gnu_cxx17__normal_iteratorIPSsSt6vectorISsSaISsEEEEEvT_S7_,comdat
	.size	_ZSt9make_heapIN9__gnu_cxx17__normal_iteratorIPSsSt6vectorISsSaISsEEEEEvT_S7_, .-_ZSt9make_heapIN9__gnu_cxx17__normal_iteratorIPSsSt6vectorISsSaISsEEEEEvT_S7_
	.section	.text._ZSt10__pop_heapIN9__gnu_cxx17__normal_iteratorIPSsSt6vectorISsSaISsEEEEEvT_S7_S7_,"axG",@progbits,_ZSt10__pop_heapIN9__gnu_cxx17__normal_iteratorIPSsSt6vectorISsSaISsEEEEEvT_S7_S7_,comdat
	.align 2
	.weak	_ZSt10__pop_heapIN9__gnu_cxx17__normal_iteratorIPSsSt6vectorISsSaISsEEEEEvT_S7_S7_
	.type	_ZSt10__pop_heapIN9__gnu_cxx17__normal_iteratorIPSsSt6vectorISsSaISsEEEEEvT_S7_S7_, @function
_ZSt10__pop_heapIN9__gnu_cxx17__normal_iteratorIPSsSt6vectorISsSaISsEEEEEvT_S7_S7_:
.LFB1195:
	.loc 1 252 0
	.cfi_startproc
	.cfi_personality 0,__gxx_personality_v0
	.cfi_lsda 0,.LLSDA1195
.LVL823:
	mflr 0
	stwu 1,-48(1)
.LCFI100:
	.cfi_def_cfa_offset 48
	.cfi_register 65, 0
	stw 29,36(1)
	stw 0,52(1)
	stw 31,44(1)
	lwz 29,0(5)
	.cfi_offset 31, -4
	.cfi_offset 65, 4
	.cfi_offset 29, -12
	lwz 31,0(3)
.LVL824:
.LBB4620:
	.loc 1 260 0
	addi 3,1,16
.LBE4620:
	.loc 1 252 0
	stw 30,40(1)
	.loc 1 252 0
	lwz 30,0(4)
	.cfi_offset 30, -8
.LBB4665:
	.loc 1 260 0
	mr 4,29
.LEHB75:
	bl _ZNSsC1ERKSs
.LEHE75:
.LVL825:
.LBB4621:
.LBB4622:
	.loc 3 542 0
	mr 3,29
	mr 4,31
.LEHB76:
	bl _ZNSs6assignERKSs
.LVL826:
.LBE4622:
.LBE4621:
	.loc 1 262 0
	addi 3,1,12
	addi 4,1,16
	bl _ZNSsC1ERKSs
.LEHE76:
	.loc 1 262 0 is_stmt 0 discriminator 2
	mr 3,1
	li 4,0
	stwu 31,24(3)
.LBB4623:
.LBB4624:
	.loc 2 892 0 is_stmt 1 discriminator 2
	subf 31,31,30
.LVL827:
.LBE4624:
.LBE4623:
	.loc 1 262 0 discriminator 2
	srawi 5,31,2
	addi 6,1,12
.LEHB77:
	bl _ZSt13__adjust_heapIN9__gnu_cxx17__normal_iteratorIPSsSt6vectorISsSaISsEEEEiSsEvT_T0_S8_T1_.constprop.40
.LEHE77:
.LVL828:
.LBB4625:
.LBB4626:
.LBB4627:
.LBB4628:
.LBB4629:
.LBB4630:
	.loc 3 288 0
	lwz 9,12(1)
.LBE4630:
.LBE4629:
.LBE4628:
.LBB4631:
.LBB4632:
	.loc 3 235 0
	lis 31,_ZNSs4_Rep20_S_empty_rep_storageE@ha
	la 31,_ZNSs4_Rep20_S_empty_rep_storageE@l(31)
.LBE4632:
.LBE4631:
	.loc 3 534 0
	addi 3,9,-12
.LVL829:
.LBB4641:
.LBB4639:
	.loc 3 235 0
	cmpw 7,3,31
	bne- 7,.L579
.LVL830:
.L568:
.LBE4639:
.LBE4641:
.LBE4627:
.LBE4626:
.LBE4625:
.LBB4645:
.LBB4646:
.LBB4647:
.LBB4648:
.LBB4649:
.LBB4650:
	.loc 3 288 0
	lwz 9,16(1)
.LBE4650:
.LBE4649:
.LBE4648:
	.loc 3 534 0
	addi 3,9,-12
.LVL831:
.LBB4651:
.LBB4652:
	.loc 3 235 0
	cmpw 7,3,31
	bne- 7,.L580
.LVL832:
.L562:
.LBE4652:
.LBE4651:
.LBE4647:
.LBE4646:
.LBE4645:
.LBE4665:
	.loc 1 265 0
	lwz 0,52(1)
	lwz 29,36(1)
.LVL833:
	mtlr 0
	lwz 30,40(1)
	lwz 31,44(1)
	addi 1,1,48
	.cfi_remember_state
.LCFI101:
	.cfi_def_cfa_offset 0
	.cfi_restore 31
	.cfi_restore 30
	.cfi_restore 29
	blr
.LVL834:
.L579:
.LCFI102:
	.cfi_restore_state
.LBB4666:
.LBB4663:
.LBB4644:
.LBB4643:
.LBB4642:
.LBB4640:
.LBB4633:
.LBB4634:
.LBB4635:
	.loc 5 66 0
	lwz 11,-4(9)
.LVL835:
.LBE4635:
.LBE4634:
.LBE4633:
	.loc 3 240 0
	cmpwi 7,11,0
.LBB4638:
.LBB4637:
.LBB4636:
	.loc 5 67 0
	addi 11,11,-1
	stw 11,-4(9)
.LBE4636:
.LBE4637:
.LBE4638:
	.loc 3 240 0
	bgt+ 7,.L568
	.loc 3 244 0
	addi 4,1,9
	bl _ZNSs4_Rep10_M_destroyERKSaIcE
.LVL836:
	b .L568
.LVL837:
.L580:
.LBE4640:
.LBE4642:
.LBE4643:
.LBE4644:
.LBE4663:
.LBB4664:
.LBB4662:
.LBB4661:
.LBB4660:
.LBB4659:
.LBB4653:
.LBB4654:
.LBB4655:
	.loc 5 66 0
	lwz 11,-4(9)
.LVL838:
.LBE4655:
.LBE4654:
.LBE4653:
	.loc 3 240 0
	cmpwi 7,11,0
.LBB4658:
.LBB4657:
.LBB4656:
	.loc 5 67 0
	addi 11,11,-1
	stw 11,-4(9)
.LBE4656:
.LBE4657:
.LBE4658:
	.loc 3 240 0
	bgt+ 7,.L562
	.loc 3 244 0
	addi 4,1,8
	bl _ZNSs4_Rep10_M_destroyERKSaIcE
.LVL839:
	b .L562
.LVL840:
.L578:
	mr 31,3
.LBE4659:
.LBE4660:
.LBE4661:
.LBE4662:
.LBE4664:
	.loc 1 262 0
	addi 3,1,12
	bl _ZNSsD1Ev
.LVL841:
.L576:
	addi 3,1,16
	bl _ZNSsD1Ev
	mr 3,31
.LEHB78:
	bl _Unwind_Resume
.LEHE78:
.LVL842:
.L577:
	mr 31,3
.LVL843:
	b .L576
.LBE4666:
	.cfi_endproc
.LFE1195:
	.section	.gcc_except_table
.LLSDA1195:
	.byte	0xff
	.byte	0xff
	.byte	0x1
	.uleb128 .LLSDACSE1195-.LLSDACSB1195
.LLSDACSB1195:
	.uleb128 .LEHB75-.LFB1195
	.uleb128 .LEHE75-.LEHB75
	.uleb128 0
	.uleb128 0
	.uleb128 .LEHB76-.LFB1195
	.uleb128 .LEHE76-.LEHB76
	.uleb128 .L577-.LFB1195
	.uleb128 0
	.uleb128 .LEHB77-.LFB1195
	.uleb128 .LEHE77-.LEHB77
	.uleb128 .L578-.LFB1195
	.uleb128 0
	.uleb128 .LEHB78-.LFB1195
	.uleb128 .LEHE78-.LEHB78
	.uleb128 0
	.uleb128 0
.LLSDACSE1195:
	.section	.text._ZSt10__pop_heapIN9__gnu_cxx17__normal_iteratorIPSsSt6vectorISsSaISsEEEEEvT_S7_S7_,"axG",@progbits,_ZSt10__pop_heapIN9__gnu_cxx17__normal_iteratorIPSsSt6vectorISsSaISsEEEEEvT_S7_S7_,comdat
	.size	_ZSt10__pop_heapIN9__gnu_cxx17__normal_iteratorIPSsSt6vectorISsSaISsEEEEEvT_S7_S7_, .-_ZSt10__pop_heapIN9__gnu_cxx17__normal_iteratorIPSsSt6vectorISsSaISsEEEEEvT_S7_S7_
	.section	.text._ZSt16__introsort_loopIN9__gnu_cxx17__normal_iteratorIPSsSt6vectorISsSaISsEEEEiEvT_S7_T0_,"axG",@progbits,_ZSt16__introsort_loopIN9__gnu_cxx17__normal_iteratorIPSsSt6vectorISsSaISsEEEEiEvT_S7_T0_,comdat
	.align 2
	.weak	_ZSt16__introsort_loopIN9__gnu_cxx17__normal_iteratorIPSsSt6vectorISsSaISsEEEEiEvT_S7_T0_
	.type	_ZSt16__introsort_loopIN9__gnu_cxx17__normal_iteratorIPSsSt6vectorISsSaISsEEEEiEvT_S7_T0_, @function
_ZSt16__introsort_loopIN9__gnu_cxx17__normal_iteratorIPSsSt6vectorISsSaISsEEEEiEvT_S7_T0_:
.LFB1122:
	.loc 13 2271 0
	.cfi_startproc
	.cfi_personality 0,__gxx_personality_v0
	.cfi_lsda 0,.LLSDA1122
.LVL844:
	mflr 0
	stwu 1,-88(1)
.LCFI103:
	.cfi_def_cfa_offset 88
	.cfi_register 65, 0
	stw 30,80(1)
	stw 0,92(1)
	stw 31,84(1)
	lwz 30,0(3)
	.cfi_offset 31, -4
	.cfi_offset 65, 4
	.cfi_offset 30, -8
	lwz 31,0(4)
	stw 23,52(1)
	mr 23,5
	.cfi_offset 23, -36
.LVL845:
.LBB4812:
.LBB4813:
.LBB4814:
	.loc 2 892 0
	subf 0,30,31
.LBE4814:
.LBE4813:
.LBE4812:
	.loc 13 2271 0
	stw 20,40(1)
.LBB4940:
	.loc 13 2275 0
	cmpwi 7,0,67
.LBE4940:
	.loc 13 2271 0
	stw 21,44(1)
	stw 22,48(1)
	stw 24,56(1)
	stw 25,60(1)
	stw 26,64(1)
	stw 27,68(1)
	stw 28,72(1)
	stw 29,76(1)
.LBB4941:
	.loc 13 2275 0
	ble- 7,.L581
	.cfi_offset 29, -12
	.cfi_offset 28, -16
	.cfi_offset 27, -20
	.cfi_offset 26, -24
	.cfi_offset 25, -28
	.cfi_offset 24, -32
	.cfi_offset 22, -40
	.cfi_offset 21, -44
	.cfi_offset 20, -48
.LBB4817:
	.loc 13 2277 0
	cmpwi 7,5,0
	beq- 7,.L607
	addi 20,30,4
	mr 22,31
	addi 29,1,24
	addi 21,1,28
.LVL846:
.L584:
.LBB4818:
.LBB4819:
	.loc 13 2251 0
	srawi 0,0,3
	.loc 13 2252 0
	mr 3,29
.LBB4820:
.LBB4821:
	.loc 2 773 0
	slwi 9,0,2
.LBE4821:
.LBE4820:
	.loc 13 2252 0
	mr 4,21
.LBB4823:
.LBB4822:
	.loc 2 773 0
	add 9,30,9
.LBE4822:
.LBE4823:
.LBB4824:
.LBB4825:
	.loc 2 781 0
	addi 0,22,-4
.LBE4825:
.LBE4824:
	.loc 13 2252 0
	addi 5,1,32
	stw 30,24(1)
	stw 9,28(1)
.LBE4819:
.LBE4818:
	.loc 13 2282 0
	addi 23,23,-1
.LVL847:
.LBB4874:
.LBB4873:
	.loc 13 2252 0
	stw 0,32(1)
	mr 24,22
.LEHB79:
	bl _ZSt19__move_median_firstIN9__gnu_cxx17__normal_iteratorIPSsSt6vectorISsSaISsEEEEEvT_S7_S7_
.LVL848:
	mr 27,20
.LVL849:
.L604:
	lwz 25,0(30)
	lwz 28,-12(25)
.LVL850:
.L598:
.LBB4826:
.LBB4827:
.LBB4828:
.LBB4829:
.LBB4830:
.LBB4831:
.LBB4832:
.LBB4833:
.LBB4834:
.LBB4835:
	.loc 3 288 0
	lwz 3,0(27)
.LBE4835:
.LBE4834:
.LBE4833:
.LBE4832:
.LBE4831:
.LBE4830:
.LBE4829:
.LBE4828:
.LBE4827:
.LBE4826:
	.loc 13 2252 0
	mr 31,27
.LVL851:
.LBB4872:
.LBB4871:
.LBB4844:
.LBB4843:
.LBB4842:
.LBB4837:
.LBB4836:
	.loc 3 711 0
	lwz 26,-12(3)
.LVL852:
.LBE4836:
.LBE4837:
.LBB4838:
.LBB4839:
	.loc 4 257 0
	cmplw 7,26,28
	mr 5,26
	ble- 7,.L596
	mr 5,28
.L596:
	mr 4,25
	bl memcmp
.LVL853:
.LBE4839:
.LBE4838:
	.loc 3 2180 0
	cmpwi 0,3,0
	bne- 0,.L597
.LVL854:
	subf. 0,28,26
.LVL855:
.L597:
.LBB4840:
.LBB4841:
	.loc 3 404 0
	addi 27,27,4
.LVL856:
.LBE4841:
.LBE4840:
.LBE4842:
.LBE4843:
.LBE4844:
	.loc 13 2212 0
	blt+ 0,.L598
.LVL857:
.LBB4845:
.LBB4846:
	.loc 2 754 0
	addi 27,24,-4
.LVL858:
.L601:
.LBE4846:
.LBE4845:
.LBB4847:
.LBB4848:
.LBB4849:
.LBB4850:
.LBB4851:
.LBB4852:
.LBB4853:
.LBB4854:
	.loc 3 288 0
	lwz 4,0(27)
.LBE4854:
.LBE4853:
.LBE4852:
.LBE4851:
.LBE4850:
.LBE4849:
.LBE4848:
.LBE4847:
	.loc 13 2212 0
	mr 24,27
.LVL859:
.LBB4863:
.LBB4862:
.LBB4861:
.LBB4856:
.LBB4855:
	.loc 3 711 0
	lwz 26,-12(4)
.LVL860:
.LBE4855:
.LBE4856:
.LBB4857:
.LBB4858:
	.loc 4 257 0
	cmplw 7,26,28
	mr 5,26
	ble- 7,.L599
	mr 5,28
.L599:
	mr 3,25
	bl memcmp
.LVL861:
.LBE4858:
.LBE4857:
	.loc 3 2180 0
	cmpwi 0,3,0
	bne- 0,.L600
.LVL862:
	subf. 0,26,28
.LVL863:
.L600:
.LBB4859:
.LBB4860:
	.loc 3 404 0
	addi 27,27,-4
.LVL864:
.LBE4860:
.LBE4859:
.LBE4861:
.LBE4862:
.LBE4863:
	.loc 13 2215 0
	blt+ 0,.L601
.LVL865:
	.loc 13 2217 0
	cmplw 7,24,31
	ble- 7,.L615
.LVL866:
.LBB4864:
.LBB4865:
.LBB4866:
.LBB4867:
.LBB4868:
	.loc 3 2660 0
	mr 3,31
	mr 4,24
	bl _ZNSs4swapERSs
.LVL867:
.LBE4868:
.LBE4867:
.LBE4866:
.LBE4865:
.LBE4864:
.LBB4869:
.LBB4870:
	.loc 2 742 0
	addi 27,31,4
.LVL868:
	b .L604
.LVL869:
.L615:
.LBE4870:
.LBE4869:
.LBE4871:
.LBE4872:
.LBE4873:
.LBE4874:
	.loc 13 2285 0
	mr 3,29
	mr 4,21
	mr 5,23
	stw 31,24(1)
	stw 22,28(1)
	bl _ZSt16__introsort_loopIN9__gnu_cxx17__normal_iteratorIPSsSt6vectorISsSaISsEEEEiEvT_S7_T0_
.LVL870:
.LBE4817:
.LBB4936:
.LBB4815:
	.loc 2 892 0
	subf 0,30,31
.LBE4815:
.LBE4936:
	.loc 13 2275 0
	cmpwi 7,0,67
.LBB4937:
.LBB4816:
	.loc 2 892 0
	mr 28,0
.LVL871:
.LBE4816:
.LBE4937:
	.loc 13 2275 0
	ble- 7,.L581
.LBB4938:
	.loc 13 2277 0
	cmpwi 7,23,0
	beq- 7,.L605
	mr 22,31
.LVL872:
	b .L584
.LVL873:
.L607:
	addi 29,1,24
	addi 21,1,28
	mr 28,0
.LVL874:
.L605:
.LBB4875:
.LBB4876:
.LBB4877:
.LBB4878:
	.loc 13 1903 0
	mr 3,29
	mr 4,21
	stw 30,24(1)
	stw 31,28(1)
	bl _ZSt9make_heapIN9__gnu_cxx17__normal_iteratorIPSsSt6vectorISsSaISsEEEEEvT_S7_
.LVL875:
	b .L614
.LVL876:
.L595:
.LBE4878:
.LBE4877:
.LBB4879:
.LBB4880:
.LBB4881:
.LBB4882:
	.loc 2 754 0
	addi 31,31,-4
.LVL877:
.LBE4882:
.LBE4881:
.LBB4883:
.LBB4884:
	.loc 1 260 0
	addi 3,1,16
	mr 4,31
	bl _ZNSsC1ERKSs
.LEHE79:
.LVL878:
.LBB4885:
.LBB4886:
	.loc 3 542 0
	mr 3,31
	mr 4,30
.LEHB80:
	bl _ZNSs6assignERKSs
.LVL879:
.LBE4886:
.LBE4885:
	.loc 1 262 0
	addi 3,1,12
	addi 4,1,16
	bl _ZNSsC1ERKSs
.LEHE80:
.LBB4887:
.LBB4888:
	.loc 2 892 0
	subf 28,30,31
.LBE4888:
.LBE4887:
	.loc 1 262 0
	mr 3,29
	li 4,0
	srawi 5,28,2
	addi 6,1,12
	stw 30,24(1)
.LEHB81:
	bl _ZSt13__adjust_heapIN9__gnu_cxx17__normal_iteratorIPSsSt6vectorISsSaISsEEEEiSsEvT_T0_S8_T1_.constprop.40
.LEHE81:
.LVL880:
.LBB4889:
.LBB4890:
.LBB4891:
.LBB4892:
.LBB4893:
.LBB4894:
	.loc 3 288 0
	lwz 9,12(1)
.LBE4894:
.LBE4893:
.LBE4892:
.LBB4895:
.LBB4896:
	.loc 3 235 0
	lis 27,_ZNSs4_Rep20_S_empty_rep_storageE@ha
	la 27,_ZNSs4_Rep20_S_empty_rep_storageE@l(27)
.LBE4896:
.LBE4895:
	.loc 3 534 0
	addi 3,9,-12
.LVL881:
.LBB4905:
.LBB4903:
	.loc 3 235 0
	cmpw 7,3,27
	bne- 7,.L616
.L591:
.LVL882:
.LBE4903:
.LBE4905:
.LBE4891:
.LBE4890:
.LBE4889:
.LBB4909:
.LBB4910:
.LBB4911:
.LBB4912:
.LBB4913:
	.loc 3 288 0
	lwz 9,16(1)
.LBE4913:
.LBE4912:
.LBE4911:
	.loc 3 534 0
	addi 3,9,-12
.LVL883:
.LBB4916:
.LBB4917:
	.loc 3 235 0
	cmpw 7,3,27
	bne- 7,.L617
.LVL884:
.L614:
.LBE4917:
.LBE4916:
.LBE4910:
.LBE4909:
.LBE4884:
.LBE4883:
	.loc 1 464 0
	cmpwi 7,28,7
	bgt+ 7,.L595
.LVL885:
.L581:
.LBE4880:
.LBE4879:
.LBE4876:
.LBE4875:
.LBE4938:
.LBE4941:
	.loc 13 2288 0
	lwz 0,92(1)
	lwz 20,40(1)
	mtlr 0
	lwz 21,44(1)
	lwz 22,48(1)
	lwz 23,52(1)
.LVL886:
	lwz 24,56(1)
	lwz 25,60(1)
	lwz 26,64(1)
	lwz 27,68(1)
	lwz 28,72(1)
	lwz 29,76(1)
	lwz 30,80(1)
	lwz 31,84(1)
	addi 1,1,88
	.cfi_remember_state
.LCFI104:
	.cfi_def_cfa_offset 0
	.cfi_restore 31
	.cfi_restore 30
	.cfi_restore 29
	.cfi_restore 28
	.cfi_restore 27
	.cfi_restore 26
	.cfi_restore 25
	.cfi_restore 24
	.cfi_restore 23
	.cfi_restore 22
	.cfi_restore 21
	.cfi_restore 20
	blr
.LVL887:
.L608:
.LCFI105:
	.cfi_restore_state
	mr 31,3
.LVL888:
.L594:
.LBB4942:
.LBB4939:
.LBB4935:
.LBB4934:
.LBB4933:
.LBB4932:
.LBB4931:
.LBB4930:
	.loc 1 262 0
	addi 3,1,16
	bl _ZNSsD1Ev
	mr 3,31
.LEHB82:
	bl _Unwind_Resume
.LEHE82:
.LVL889:
.L609:
	mr 31,3
.LVL890:
	addi 3,1,12
	bl _ZNSsD1Ev
	b .L594
.LVL891:
.L616:
.LBB4928:
.LBB4908:
.LBB4907:
.LBB4906:
.LBB4904:
.LBB4897:
.LBB4898:
.LBB4899:
	.loc 5 66 0
	lwz 11,-4(9)
.LVL892:
.LBE4899:
.LBE4898:
.LBE4897:
	.loc 3 240 0
	cmpwi 7,11,0
.LBB4902:
.LBB4901:
.LBB4900:
	.loc 5 67 0
	addi 11,11,-1
	stw 11,-4(9)
.LBE4900:
.LBE4901:
.LBE4902:
	.loc 3 240 0
	bgt+ 7,.L591
	.loc 3 244 0
	addi 4,1,9
	bl _ZNSs4_Rep10_M_destroyERKSaIcE
.LVL893:
.LBE4904:
.LBE4906:
.LBE4907:
.LBE4908:
.LBE4928:
.LBB4929:
.LBB4927:
.LBB4925:
.LBB4915:
.LBB4914:
	.loc 3 288 0
	lwz 9,16(1)
.LBE4914:
.LBE4915:
.LBE4925:
	.loc 3 534 0
	addi 3,9,-12
.LVL894:
.LBB4926:
.LBB4924:
	.loc 3 235 0
	cmpw 7,3,27
	beq+ 7,.L614
.LVL895:
.L617:
.LBB4918:
.LBB4919:
.LBB4920:
	.loc 5 66 0
	lwz 11,-4(9)
.LVL896:
.LBE4920:
.LBE4919:
.LBE4918:
	.loc 3 240 0
	cmpwi 7,11,0
.LBB4923:
.LBB4922:
.LBB4921:
	.loc 5 67 0
	addi 11,11,-1
	stw 11,-4(9)
.LBE4921:
.LBE4922:
.LBE4923:
	.loc 3 240 0
	bgt+ 7,.L614
.LVL897:
	.loc 3 244 0
	addi 4,1,8
.LVL898:
	bl _ZNSs4_Rep10_M_destroyERKSaIcE
.LVL899:
	b .L614
.LBE4924:
.LBE4926:
.LBE4927:
.LBE4929:
.LBE4930:
.LBE4931:
.LBE4932:
.LBE4933:
.LBE4934:
.LBE4935:
.LBE4939:
.LBE4942:
	.cfi_endproc
.LFE1122:
	.section	.gcc_except_table
.LLSDA1122:
	.byte	0xff
	.byte	0xff
	.byte	0x1
	.uleb128 .LLSDACSE1122-.LLSDACSB1122
.LLSDACSB1122:
	.uleb128 .LEHB79-.LFB1122
	.uleb128 .LEHE79-.LEHB79
	.uleb128 0
	.uleb128 0
	.uleb128 .LEHB80-.LFB1122
	.uleb128 .LEHE80-.LEHB80
	.uleb128 .L608-.LFB1122
	.uleb128 0
	.uleb128 .LEHB81-.LFB1122
	.uleb128 .LEHE81-.LEHB81
	.uleb128 .L609-.LFB1122
	.uleb128 0
	.uleb128 .LEHB82-.LFB1122
	.uleb128 .LEHE82-.LEHB82
	.uleb128 0
	.uleb128 0
.LLSDACSE1122:
	.section	.text._ZSt16__introsort_loopIN9__gnu_cxx17__normal_iteratorIPSsSt6vectorISsSaISsEEEEiEvT_S7_T0_,"axG",@progbits,_ZSt16__introsort_loopIN9__gnu_cxx17__normal_iteratorIPSsSt6vectorISsSaISsEEEEiEvT_S7_T0_,comdat
	.size	_ZSt16__introsort_loopIN9__gnu_cxx17__normal_iteratorIPSsSt6vectorISsSaISsEEEEiEvT_S7_T0_, .-_ZSt16__introsort_loopIN9__gnu_cxx17__normal_iteratorIPSsSt6vectorISsSaISsEEEEiEvT_S7_T0_
	.section	".text"
	.align 2
	.globl _ZN4Nand7ReadDirESsRSt6vectorISsSaISsEE
	.type	_ZN4Nand7ReadDirESsRSt6vectorISsSaISsEE, @function
_ZN4Nand7ReadDirESsRSt6vectorISsSaISsEE:
.LFB1043:
	.loc 9 218 0
	.cfi_startproc
	.cfi_personality 0,__gxx_personality_v0
	.cfi_lsda 0,.LLSDA1043
.LVL900:
	mflr 0
	stwu 1,-72(1)
.LCFI106:
	.cfi_def_cfa_offset 72
	.cfi_register 65, 0
	stw 30,64(1)
.LBB5064:
	.loc 9 219 0
	mr 30,1
	.cfi_offset 30, -8
.LBE5064:
	.loc 9 218 0
	stw 0,76(1)
.LBB5195:
	.loc 9 219 0
	li 0,0
	.cfi_offset 65, 4
.LBE5195:
	.loc 9 218 0
	stw 27,52(1)
	stw 29,60(1)
	mr 29,3
	.cfi_offset 29, -12
	.cfi_offset 27, -20
	stw 31,68(1)
	mr 31,4
	.cfi_offset 31, -4
	stw 23,36(1)
.LBB5196:
	.loc 9 221 0
	li 4,0
.LVL901:
.LBE5196:
	.loc 9 218 0
	stw 24,40(1)
	stw 25,44(1)
	stw 26,48(1)
	stw 28,56(1)
.LBB5197:
	.loc 9 219 0
	stwu 0,20(30)
.LVL902:
	.loc 9 221 0
	lwz 3,0(3)
.LVL903:
	mr 5,30
.LEHB83:
	.cfi_offset 28, -16
	.cfi_offset 26, -24
	.cfi_offset 25, -28
	.cfi_offset 24, -32
	.cfi_offset 23, -36
	bl ISFS_ReadDir
.LVL904:
	.loc 9 222 0
	mr. 27,3
	blt- 0,.L619
	.loc 9 225 0
	lwz 3,20(1)
.LVL905:
	.loc 9 226 0
	li 27,0
.LVL906:
	.loc 9 225 0
	cmpwi 7,3,0
	bne- 7,.L655
.LVL907:
.L619:
.LBE5197:
	.loc 9 250 0
	lwz 0,76(1)
	mr 3,27
	lwz 23,36(1)
	mtlr 0
	lwz 24,40(1)
	lwz 25,44(1)
	lwz 26,48(1)
	lwz 27,52(1)
	lwz 28,56(1)
	lwz 29,60(1)
.LVL908:
	lwz 30,64(1)
	lwz 31,68(1)
.LVL909:
	addi 1,1,72
	.cfi_remember_state
.LCFI107:
	.cfi_def_cfa_offset 0
	.cfi_restore 31
	.cfi_restore 30
	.cfi_restore 29
	.cfi_restore 28
	.cfi_restore 27
	.cfi_restore 26
	.cfi_restore 25
	.cfi_restore 24
	.cfi_restore 23
	blr
.LVL910:
.L655:
.LCFI108:
	.cfi_restore_state
.LBB5198:
	.loc 9 228 0
	slwi 3,3,6
	bl _ZN8MemTools17AllocateMemory_64Ej
.LVL911:
	.loc 9 229 0
	mr. 28,3
	beq- 0,.L649
.LVL912:
	.loc 9 232 0
	lwz 3,0(29)
.LVL913:
	mr 4,28
	mr 5,30
	bl ISFS_ReadDir
.LEHE83:
.LVL914:
.LBB5065:
	.loc 9 233 0
	mr. 27,3
	bne- 0,.L620
.LVL915:
.LBB5066:
.LBB5067:
	.loc 9 237 0 discriminator 1
	lwz 0,20(1)
	cmpwi 7,0,0
	beq- 7,.L621
	.loc 9 237 0 is_stmt 0
	li 29,0
.LVL916:
	li 30,0
	b .L633
.LVL917:
.L657:
.LBB5068:
.LBB5069:
.LBB5070:
.LBB5071:
.LBB5072:
	.loc 8 108 0 is_stmt 1
	addi 4,1,16
.LVL918:
.LEHB84:
	bl _ZNSsC1ERKSs
.LEHE84:
.LVL919:
	lwz 9,4(31)
.L623:
.LBE5072:
.LBE5071:
	.loc 6 831 0
	addi 0,9,4
	stw 0,4(31)
.LVL920:
.L624:
.LBE5070:
.LBE5069:
.LBB5076:
.LBB5077:
.LBB5078:
.LBB5079:
.LBB5080:
.LBB5081:
	.loc 3 288 0 discriminator 1
	lwz 9,16(1)
.LBE5081:
.LBE5080:
.LBE5079:
.LBB5082:
.LBB5083:
	.loc 3 235 0 discriminator 1
	lis 11,_ZNSs4_Rep20_S_empty_rep_storageE@ha
	la 0,_ZNSs4_Rep20_S_empty_rep_storageE@l(11)
.LBE5083:
.LBE5082:
	.loc 3 534 0 discriminator 1
	addi 3,9,-12
.LVL921:
.LBB5092:
.LBB5090:
	.loc 3 235 0 discriminator 1
	cmpw 7,3,0
	bne- 7,.L656
.LVL922:
.L632:
.LBE5090:
.LBE5092:
.LBE5078:
.LBE5077:
.LBE5076:
	.loc 9 241 0 discriminator 1
	mr 3,26
.LBE5068:
	.loc 9 237 0 discriminator 1
	addi 29,29,1
.LBB5098:
	.loc 9 241 0 discriminator 1
	bl strlen
.LBE5098:
	.loc 9 237 0 discriminator 1
	lwz 0,20(1)
.LBB5099:
	.loc 9 241 0 discriminator 1
	addi 3,3,1
.LBE5099:
	.loc 9 237 0 discriminator 1
	cmplw 7,0,29
.LBB5100:
	.loc 9 241 0 discriminator 1
	add 30,30,3
.LVL923:
.LBE5100:
	.loc 9 237 0 discriminator 1
	ble- 7,.L621
.LVL924:
.L633:
.LBB5101:
	.loc 9 239 0
	add 26,28,30
.LVL925:
	.loc 9 240 0
	addi 3,1,16
	mr 4,26
	addi 5,1,10
.LEHB85:
	bl _ZNSsC1EPKcRKSaIcE
.LEHE85:
.LVL926:
.LBB5096:
.LBB5075:
	.loc 6 828 0
	lwz 3,4(31)
	lwz 0,8(31)
	cmpw 7,3,0
	beq- 7,.L622
.LVL927:
.LBB5074:
.LBB5073:
	.loc 8 108 0
	cmpwi 7,3,0
	bne+ 7,.L657
	li 9,0
	b .L623
.LVL928:
.L622:
.LBE5073:
.LBE5074:
	.loc 6 834 0
	mr 4,1
	addi 5,1,16
.LVL929:
	stwu 3,24(4)
	mr 3,31
.LEHB86:
	bl _ZNSt6vectorISsSaISsEE13_M_insert_auxEN9__gnu_cxx17__normal_iteratorIPSsS1_EERKSs
.LEHE86:
.LVL930:
	b .L624
.LVL931:
.L634:
.LBE5075:
.LBE5096:
.LBE5101:
.LBE5067:
.LBB5103:
.LBB5104:
.LBB5105:
.LBB5106:
	.loc 13 2185 0
	addi 3,1,24
	addi 4,1,28
	stw 30,24(1)
	stw 26,28(1)
.LEHB87:
	bl _ZSt16__insertion_sortIN9__gnu_cxx17__normal_iteratorIPSsSt6vectorISsSaISsEEEEEvT_S7_
.LVL932:
.L620:
.LBE5106:
.LBE5105:
.LBE5104:
.LBE5103:
.LBE5066:
.LBE5065:
	.loc 9 246 0
	mr 3,28
	bl _ZdlPv
.LVL933:
.LBE5198:
	.loc 9 250 0
	lwz 0,76(1)
	mr 3,27
	lwz 23,36(1)
	mtlr 0
	lwz 24,40(1)
	lwz 25,44(1)
	lwz 26,48(1)
	lwz 27,52(1)
.LVL934:
	lwz 28,56(1)
	lwz 29,60(1)
	lwz 30,64(1)
	lwz 31,68(1)
	addi 1,1,72
	.cfi_remember_state
	.cfi_restore 23
	.cfi_restore 24
	.cfi_restore 25
	.cfi_restore 26
	.cfi_restore 27
	.cfi_restore 28
	.cfi_restore 29
	.cfi_restore 30
	.cfi_restore 31
.LCFI109:
	.cfi_def_cfa_offset 0
	blr
.LVL935:
.L621:
.LCFI110:
	.cfi_restore_state
.LBB5199:
.LBB5193:
.LBB5191:
.LBB5186:
	.loc 9 405 0
	lwz 30,0(31)
.LVL936:
.LBE5186:
.LBB5187:
	lwz 26,4(31)
.LVL937:
.LBE5187:
.LBB5188:
.LBB5184:
	.loc 13 5405 0
	cmpw 7,30,26
	beq- 7,.L620
.LVL938:
.LBB5174:
.LBB5175:
	.loc 2 892 0
	subf 31,30,26
.LVL939:
.LBE5175:
.LBE5174:
	.loc 13 5407 0
	addi 3,1,24
.LBB5177:
.LBB5176:
	.loc 2 892 0
	srawi 5,31,2
.LBE5176:
.LBE5177:
	.loc 13 5407 0
	addi 4,1,28
.LBB5178:
.LBB5179:
	.loc 11 982 0
	cntlzw 5,5
.LBE5179:
.LBE5178:
	.loc 13 5407 0
	stw 30,24(1)
.LBB5181:
.LBB5180:
	.loc 11 982 0
	subfic 5,5,31
.LBE5180:
.LBE5181:
	.loc 13 5407 0
	stw 26,28(1)
	slwi 5,5,1
	bl _ZSt16__introsort_loopIN9__gnu_cxx17__normal_iteratorIPSsSt6vectorISsSaISsEEEEiEvT_S7_T0_
.LVL940:
.LBB5182:
.LBB5172:
	.loc 13 2179 0
	cmpwi 7,31,67
	ble- 7,.L634
.LVL941:
.LBB5107:
.LBB5108:
	.loc 2 773 0
	addi 29,30,64
.LBE5108:
.LBE5107:
	.loc 13 2181 0
	addi 3,1,24
	addi 4,1,28
	stw 30,24(1)
	stw 29,28(1)
	bl _ZSt16__insertion_sortIN9__gnu_cxx17__normal_iteratorIPSsSt6vectorISsSaISsEEEEEvT_S7_
.LVL942:
.LBB5109:
.LBB5110:
.LBB5111:
	.loc 13 2150 0
	cmpw 7,26,29
	beq- 7,.L620
.LVL943:
.L646:
.LBB5112:
.LBB5113:
	.loc 13 2065 0
	addi 3,1,12
	mr 4,29
.LBE5113:
.LBE5112:
	.loc 13 2150 0
	mr 23,29
.LVL944:
.LBB5167:
.LBB5165:
	.loc 9 217 0
	addi 31,29,-4
	.loc 13 2065 0
	bl _ZNSsC1ERKSs
.LEHE87:
.LVL945:
	b .L635
.LVL946:
.L638:
.LBB5114:
.LBB5115:
	.loc 3 542 0
	mr 4,31
.LEHB88:
	bl _ZNSs6assignERKSs
.LVL947:
	addi 31,31,-4
	mr 23,30
.LVL948:
.L635:
.LBE5115:
.LBE5114:
.LBB5118:
.LBB5119:
.LBB5120:
.LBB5121:
.LBB5122:
.LBB5123:
.LBB5124:
.LBB5125:
	.loc 3 288 0
	lwz 3,12(1)
.LBE5125:
.LBE5124:
.LBE5123:
.LBE5122:
.LBE5121:
.LBE5120:
.LBE5119:
.LBE5118:
.LBB5139:
.LBB5116:
	.loc 3 542 0
	mr 30,31
.LVL949:
.LBE5116:
.LBE5139:
.LBB5140:
.LBB5138:
.LBB5137:
.LBB5127:
.LBB5128:
.LBB5129:
.LBB5130:
.LBB5131:
	.loc 3 288 0
	lwz 4,0(31)
.LBE5131:
.LBE5130:
.LBE5129:
.LBE5128:
.LBE5127:
.LBB5133:
.LBB5126:
	.loc 3 711 0
	lwz 24,-12(3)
.LVL950:
.LBE5126:
.LBE5133:
.LBB5134:
.LBB5132:
	lwz 25,-12(4)
.LVL951:
.LBE5132:
.LBE5134:
.LBB5135:
.LBB5136:
	.loc 4 257 0
	cmplw 7,25,24
	mr 5,25
	ble- 7,.L636
.LVL952:
	mr 5,24
.L636:
	bl memcmp
.LVL953:
.LBE5136:
.LBE5135:
	.loc 3 2180 0
	cmpwi 0,3,0
	bne- 0,.L637
.LVL954:
	subf. 0,25,24
.LVL955:
.L637:
.LBE5137:
.LBE5138:
.LBE5140:
.LBB5141:
.LBB5117:
	.loc 3 542 0
	mr 3,23
.LBE5117:
.LBE5141:
	.loc 13 2068 0
	blt+ 0,.L638
.LVL956:
.LBB5142:
.LBB5143:
	.loc 3 542 0
	addi 4,1,12
.LVL957:
	bl _ZNSs6assignERKSs
.LEHE88:
.LVL958:
.LBE5143:
.LBE5142:
.LBB5144:
.LBB5145:
.LBB5146:
.LBB5147:
.LBB5148:
.LBB5149:
	.loc 3 288 0
	lwz 9,12(1)
.LBE5149:
.LBE5148:
.LBE5147:
.LBB5150:
.LBB5151:
	.loc 3 235 0
	lis 11,_ZNSs4_Rep20_S_empty_rep_storageE@ha
	la 0,_ZNSs4_Rep20_S_empty_rep_storageE@l(11)
.LBE5151:
.LBE5150:
	.loc 3 534 0
	addi 3,9,-12
.LVL959:
.LBB5160:
.LBB5158:
	.loc 3 235 0
	cmpw 7,3,0
	bne- 7,.L658
.LVL960:
.L645:
.LBE5158:
.LBE5160:
.LBE5146:
.LBE5145:
.LBE5144:
	.loc 13 2074 0
	addi 29,29,4
.LBE5165:
.LBE5167:
	.loc 13 2150 0
	cmpw 7,26,29
	bne+ 7,.L646
	b .L620
.LVL961:
.L649:
.LBE5111:
.LBE5110:
.LBE5109:
.LBE5172:
.LBE5182:
.LBE5184:
.LBE5188:
.LBE5191:
.LBE5193:
	.loc 9 230 0
	li 27,-22
	b .L619
.LVL962:
.L656:
.LBB5194:
.LBB5192:
.LBB5189:
.LBB5102:
.LBB5097:
.LBB5095:
.LBB5094:
.LBB5093:
.LBB5091:
.LBB5084:
.LBB5085:
.LBB5086:
	.loc 5 66 0
	lwz 11,-4(9)
.LVL963:
.LBE5086:
.LBE5085:
.LBE5084:
	.loc 3 240 0
	cmpwi 7,11,0
.LBB5089:
.LBB5088:
.LBB5087:
	.loc 5 67 0
	addi 11,11,-1
	stw 11,-4(9)
.LBE5087:
.LBE5088:
.LBE5089:
	.loc 3 240 0
	bgt+ 7,.L632
	.loc 3 244 0
	addi 4,1,9
	bl _ZNSs4_Rep10_M_destroyERKSaIcE
.LVL964:
	b .L632
.LVL965:
.L651:
	mr 31,3
.LVL966:
.LBE5091:
.LBE5093:
.LBE5094:
.LBE5095:
.LBE5097:
	.loc 9 240 0
	addi 3,1,16
.LVL967:
	bl _ZNSsD1Ev
.LVL968:
	mr 3,31
.LEHB89:
	bl _Unwind_Resume
.LVL969:
.L658:
.LBE5102:
.LBE5189:
.LBB5190:
.LBB5185:
.LBB5183:
.LBB5173:
.LBB5171:
.LBB5170:
.LBB5169:
.LBB5168:
.LBB5166:
.LBB5164:
.LBB5163:
.LBB5162:
.LBB5161:
.LBB5159:
.LBB5152:
.LBB5153:
.LBB5154:
	.loc 5 66 0
	lwz 11,-4(9)
.LVL970:
.LBE5154:
.LBE5153:
.LBE5152:
	.loc 3 240 0
	cmpwi 7,11,0
.LBB5157:
.LBB5156:
.LBB5155:
	.loc 5 67 0
	addi 11,11,-1
	stw 11,-4(9)
.LBE5155:
.LBE5156:
.LBE5157:
	.loc 3 240 0
	bgt+ 7,.L645
	.loc 3 244 0
	addi 4,1,8
	bl _ZNSs4_Rep10_M_destroyERKSaIcE
.LVL971:
	b .L645
.LVL972:
.L652:
	mr 31,3
.LBE5159:
.LBE5161:
.LBE5162:
.LBE5163:
.LBE5164:
	.loc 13 2074 0
	addi 3,1,12
.LVL973:
	bl _ZNSsD1Ev
.LVL974:
	mr 3,31
	bl _Unwind_Resume
.LEHE89:
.LBE5166:
.LBE5168:
.LBE5169:
.LBE5170:
.LBE5171:
.LBE5173:
.LBE5183:
.LBE5185:
.LBE5190:
.LBE5192:
.LBE5194:
.LBE5199:
	.cfi_endproc
.LFE1043:
	.section	.gcc_except_table
.LLSDA1043:
	.byte	0xff
	.byte	0xff
	.byte	0x1
	.uleb128 .LLSDACSE1043-.LLSDACSB1043
.LLSDACSB1043:
	.uleb128 .LEHB83-.LFB1043
	.uleb128 .LEHE83-.LEHB83
	.uleb128 0
	.uleb128 0
	.uleb128 .LEHB84-.LFB1043
	.uleb128 .LEHE84-.LEHB84
	.uleb128 .L651-.LFB1043
	.uleb128 0
	.uleb128 .LEHB85-.LFB1043
	.uleb128 .LEHE85-.LEHB85
	.uleb128 0
	.uleb128 0
	.uleb128 .LEHB86-.LFB1043
	.uleb128 .LEHE86-.LEHB86
	.uleb128 .L651-.LFB1043
	.uleb128 0
	.uleb128 .LEHB87-.LFB1043
	.uleb128 .LEHE87-.LEHB87
	.uleb128 0
	.uleb128 0
	.uleb128 .LEHB88-.LFB1043
	.uleb128 .LEHE88-.LEHB88
	.uleb128 .L652-.LFB1043
	.uleb128 0
	.uleb128 .LEHB89-.LFB1043
	.uleb128 .LEHE89-.LEHB89
	.uleb128 0
	.uleb128 0
.LLSDACSE1043:
	.section	".text"
	.size	_ZN4Nand7ReadDirESsRSt6vectorISsSaISsEE, .-_ZN4Nand7ReadDirESsRSt6vectorISsSaISsEE
	.align 2
	.type	_ZN4Nand7ReadDirESsRSt6vectorISsSaISsEE.constprop.46, @function
_ZN4Nand7ReadDirESsRSt6vectorISsSaISsEE.constprop.46:
.LFB1255:
	.loc 9 217 0
	.cfi_startproc
	.cfi_personality 0,__gxx_personality_v0
	.cfi_lsda 0,.LLSDA1255
.LVL975:
	mflr 0
	stwu 1,-96(1)
.LCFI111:
	.cfi_def_cfa_offset 96
	.cfi_register 65, 0
	stw 31,92(1)
.LBB5457:
	.loc 9 219 0
	mr 31,1
	.cfi_offset 31, -4
.LBE5457:
	.loc 9 217 0
	stw 0,100(1)
.LBB5747:
	.loc 9 219 0
	li 0,0
	.cfi_offset 65, 4
.LBE5747:
	.loc 9 217 0
	stw 23,60(1)
	stw 29,84(1)
	mr 29,3
	.cfi_offset 29, -12
	.cfi_offset 23, -36
	stw 30,88(1)
	mr 30,4
	.cfi_offset 30, -8
	stw 19,44(1)
.LBB5748:
	.loc 9 221 0
	li 4,0
.LVL976:
.LBE5748:
	.loc 9 217 0
	stw 20,48(1)
	stw 21,52(1)
	stw 22,56(1)
	stw 24,64(1)
	stw 25,68(1)
	stw 26,72(1)
	stw 27,76(1)
	stw 28,80(1)
.LBB5749:
	.loc 9 219 0
	stwu 0,20(31)
.LVL977:
	.loc 9 221 0
	lwz 3,0(3)
.LVL978:
	mr 5,31
.LEHB90:
	.cfi_offset 28, -16
	.cfi_offset 27, -20
	.cfi_offset 26, -24
	.cfi_offset 25, -28
	.cfi_offset 24, -32
	.cfi_offset 22, -40
	.cfi_offset 21, -44
	.cfi_offset 20, -48
	.cfi_offset 19, -52
	bl ISFS_ReadDir
.LVL979:
	.loc 9 222 0
	mr. 23,3
	blt- 0,.L660
	.loc 9 225 0
	lwz 3,20(1)
.LVL980:
	.loc 9 226 0
	li 23,0
.LVL981:
	.loc 9 225 0
	cmpwi 7,3,0
	bne- 7,.L756
.LVL982:
.L660:
.LBE5749:
	.loc 9 250 0
	lwz 0,100(1)
	mr 3,23
	lwz 19,44(1)
	mtlr 0
	lwz 20,48(1)
	lwz 21,52(1)
	lwz 22,56(1)
	lwz 23,60(1)
	lwz 24,64(1)
	lwz 25,68(1)
	lwz 26,72(1)
	lwz 27,76(1)
	lwz 28,80(1)
	lwz 29,84(1)
	lwz 30,88(1)
	lwz 31,92(1)
	addi 1,1,96
	.cfi_remember_state
.LCFI112:
	.cfi_def_cfa_offset 0
	.cfi_restore 31
	.cfi_restore 30
	.cfi_restore 29
	.cfi_restore 28
	.cfi_restore 27
	.cfi_restore 26
	.cfi_restore 25
	.cfi_restore 24
	.cfi_restore 23
	.cfi_restore 22
	.cfi_restore 21
	.cfi_restore 20
	.cfi_restore 19
	blr
.LVL983:
.L756:
.LCFI113:
	.cfi_restore_state
.LBB5750:
	.loc 9 228 0
	slwi 3,3,6
	bl _ZN8MemTools17AllocateMemory_64Ej
.LVL984:
	.loc 9 229 0
	mr. 26,3
	beq- 0,.L731
.LVL985:
	.loc 9 232 0
	lwz 3,0(29)
.LVL986:
	mr 4,26
	mr 5,31
	bl ISFS_ReadDir
.LEHE90:
.LVL987:
.LBB5458:
	.loc 9 233 0
	mr. 23,3
	bne- 0,.L661
.LVL988:
.LBB5459:
.LBB5460:
	.loc 9 237 0
	lwz 0,20(1)
	cmpwi 7,0,0
	beq- 7,.L662
	li 28,0
	li 29,0
.LVL989:
	b .L716
.LVL990:
.L758:
.LBB5461:
.LBB5462:
.LBB5463:
.LBB5464:
.LBB5465:
	.loc 8 108 0
	mr 3,31
	addi 4,1,16
.LVL991:
.LEHB91:
	bl _ZNSsC1ERKSs
.LEHE91:
.LVL992:
	lwz 9,4(30)
.L664:
.LBE5465:
.LBE5464:
	.loc 6 831 0
	addi 0,9,4
	lis 31,_ZNSs4_Rep20_S_empty_rep_storageE@ha
.LVL993:
	stw 0,4(30)
	la 31,_ZNSs4_Rep20_S_empty_rep_storageE@l(31)
.LVL994:
.L707:
.LBE5463:
.LBE5462:
.LBB5611:
.LBB5612:
.LBB5613:
.LBB5614:
.LBB5615:
.LBB5616:
	.loc 3 288 0
	lwz 9,16(1)
.LBE5616:
.LBE5615:
.LBE5614:
	.loc 3 534 0
	addi 3,9,-12
.LVL995:
.LBB5617:
.LBB5618:
	.loc 3 235 0
	cmpw 7,3,31
	bne- 7,.L757
.LVL996:
.L715:
.LBE5618:
.LBE5617:
.LBE5613:
.LBE5612:
.LBE5611:
	.loc 9 241 0
	mr 3,27
.LBE5461:
	.loc 9 237 0
	addi 28,28,1
.LBB5635:
	.loc 9 241 0
	bl strlen
.LBE5635:
	.loc 9 237 0
	lwz 0,20(1)
.LBB5636:
	.loc 9 241 0
	addi 3,3,1
.LBE5636:
	.loc 9 237 0
	cmplw 7,28,0
.LBB5637:
	.loc 9 241 0
	add 29,29,3
.LVL997:
.LBE5637:
	.loc 9 237 0
	bge- 7,.L662
.LVL998:
.L716:
.LBB5638:
	.loc 9 239 0
	add 27,26,29
.LVL999:
	.loc 9 240 0
	addi 3,1,16
	mr 4,27
	addi 5,1,11
.LEHB92:
	bl _ZNSsC1EPKcRKSaIcE
.LEHE92:
.LVL1000:
.LBB5629:
.LBB5606:
	.loc 6 828 0
	lwz 31,4(30)
	lwz 0,8(30)
	cmpw 7,31,0
	beq- 7,.L663
.LVL1001:
.LBB5467:
.LBB5466:
	.loc 8 108 0
	cmpwi 7,31,0
	bne+ 7,.L758
	li 9,0
	b .L664
.LVL1002:
.L663:
.LBE5466:
.LBE5467:
.LBB5468:
.LBB5469:
.LBB5470:
.LBB5471:
.LBB5472:
.LBB5473:
	.loc 6 571 0
	lwz 25,0(30)
.LBE5473:
.LBE5472:
.LBB5475:
.LBB5476:
	.loc 6 1244 0
	li 0,1
.LBE5476:
.LBE5475:
.LBB5478:
.LBB5474:
	.loc 6 571 0
	subf 25,25,31
.LBE5474:
.LBE5478:
.LBB5479:
.LBB5477:
	.loc 11 215 0
	srawi. 25,25,2
	bne- 0,.L759
.L666:
.LVL1003:
.LBE5477:
.LBE5479:
	.loc 6 1245 0
	slwi 3,0,2
	mr 20,0
.LVL1004:
.L667:
.LEHB93:
.LBE5471:
.LBE5470:
.LBB5481:
.LBB5482:
.LBB5483:
	.loc 8 92 0
	bl _Znwj
.LEHE93:
.LVL1005:
.LBE5483:
.LBE5482:
.LBE5481:
	.loc 10 335 0
	slwi 25,25,2
.LBB5486:
.LBB5485:
.LBB5484:
	.loc 8 92 0
	mr 21,3
.LVL1006:
.LBE5484:
.LBE5485:
.LBE5486:
.LBB5487:
.LBB5488:
	.loc 8 108 0
	add. 19,3,25
	beq- 0,.L668
	mr 3,19
.LVL1007:
	addi 4,1,16
.LVL1008:
.LEHB94:
	bl _ZNSsC1ERKSs
.LEHE94:
.LVL1009:
.L668:
.LBE5488:
.LBE5487:
	.loc 10 343 0
	lwz 25,0(30)
.LVL1010:
.LBB5490:
.LBB5491:
.LBB5492:
.LBB5493:
.LBB5494:
.LBB5495:
	.loc 12 76 0
	mr 24,21
	cmpw 7,31,25
	beq- 7,.L669
.LVL1011:
.L671:
.LBB5496:
.LBB5497:
	.loc 7 84 0
	cmpwi 7,24,0
	beq- 7,.L670
.LVL1012:
	mr 3,24
	mr 4,25
.LEHB95:
	bl _ZNSsC1ERKSs
.LEHE95:
.LVL1013:
.L670:
.LBE5497:
.LBE5496:
	.loc 12 76 0
	addi 25,25,4
.LVL1014:
	addi 24,24,4
.LVL1015:
	cmpw 7,31,25
	bne+ 7,.L671
.LVL1016:
.L669:
.LBE5495:
.LBE5494:
.LBE5493:
.LBE5492:
.LBE5491:
.LBE5490:
	.loc 10 349 0
	lwz 22,4(30)
	.loc 10 347 0
	addi 24,24,4
.LVL1017:
.LBB5516:
.LBB5517:
.LBB5518:
.LBB5519:
.LBB5520:
.LBB5521:
	.loc 12 76 0
	mr 25,24
	cmpw 7,31,22
	beq- 7,.L673
.LVL1018:
.L747:
.LBB5522:
.LBB5523:
	.loc 7 84 0
	cmpwi 7,25,0
	beq- 7,.L679
.LVL1019:
	mr 3,25
	mr 4,31
.LEHB96:
	bl _ZNSsC1ERKSs
.LEHE96:
.LVL1020:
.L679:
.LBE5523:
.LBE5522:
	.loc 12 76 0
	addi 31,31,4
.LVL1021:
	addi 25,25,4
.LVL1022:
	cmpw 7,22,31
	bne+ 7,.L747
	lwz 22,4(30)
.LVL1023:
.L673:
.LBE5521:
.LBE5520:
.LBE5519:
.LBE5518:
.LBE5517:
.LBE5516:
	.loc 10 364 0
	lwz 24,0(30)
.LVL1024:
	lis 31,_ZNSs4_Rep20_S_empty_rep_storageE@ha
.LVL1025:
	la 31,_ZNSs4_Rep20_S_empty_rep_storageE@l(31)
.LBB5542:
.LBB5543:
.LBB5544:
.LBB5545:
.LBB5546:
	.loc 7 103 0
	cmpw 7,24,22
	beq- 7,.L682
.LVL1026:
.L694:
.LBB5547:
.LBB5548:
.LBB5549:
.LBB5550:
.LBB5551:
.LBB5552:
.LBB5553:
	.loc 3 288 0
	lwz 9,0(24)
.LBE5553:
.LBE5552:
.LBE5551:
	.loc 3 534 0
	addi 3,9,-12
.LVL1027:
.LBB5554:
.LBB5555:
	.loc 3 235 0
	cmpw 7,3,31
	bne- 7,.L760
.LVL1028:
.L693:
.LBE5555:
.LBE5554:
.LBE5550:
.LBE5549:
.LBE5548:
.LBE5547:
	.loc 7 103 0
	addi 24,24,4
.LVL1029:
	cmpw 7,24,22
	bne+ 7,.L694
	lwz 24,0(30)
.LVL1030:
.L682:
.LBE5546:
.LBE5545:
.LBE5544:
.LBE5543:
.LBE5542:
.LBB5572:
.LBB5573:
	.loc 6 155 0
	cmpwi 7,24,0
	beq- 7,.L695
.LVL1031:
.LBB5574:
.LBB5575:
	.loc 8 98 0
	mr 3,24
	bl _ZdlPv
.LVL1032:
.L695:
.LBE5575:
.LBE5574:
.LBE5573:
.LBE5572:
	.loc 10 371 0
	slwi 0,20,2
	.loc 10 369 0
	stw 21,0(30)
	.loc 10 371 0
	add 0,21,0
	.loc 10 370 0
	stw 25,4(30)
	.loc 10 371 0
	stw 0,8(30)
	b .L707
.LVL1033:
.L717:
.LBE5469:
.LBE5468:
.LBE5606:
.LBE5629:
.LBE5638:
.LBE5460:
.LBB5643:
.LBB5644:
.LBB5645:
.LBB5646:
	.loc 13 2185 0
	addi 3,1,24
	addi 4,1,28
	stw 31,24(1)
	stw 28,28(1)
.LEHB97:
	bl _ZSt16__insertion_sortIN9__gnu_cxx17__normal_iteratorIPSsSt6vectorISsSaISsEEEEEvT_S7_
.LVL1034:
.L661:
.LBE5646:
.LBE5645:
.LBE5644:
.LBE5643:
.LBE5459:
.LBE5458:
	.loc 9 246 0
	mr 3,26
	bl _ZdlPv
.LVL1035:
	b .L660
.LVL1036:
.L662:
.LBB5745:
.LBB5743:
.LBB5734:
	.loc 9 405 0
	lwz 31,0(30)
.LVL1037:
.LBE5734:
.LBB5735:
	lwz 28,4(30)
.LVL1038:
.LBE5735:
.LBB5736:
.LBB5731:
	.loc 13 5405 0
	cmpw 7,31,28
	beq- 7,.L661
.LVL1039:
.LBB5720:
.LBB5721:
	.loc 2 892 0
	subf 30,31,28
.LVL1040:
.LBE5721:
.LBE5720:
	.loc 13 5407 0
	addi 3,1,24
.LBB5723:
.LBB5722:
	.loc 2 892 0
	srawi 5,30,2
.LBE5722:
.LBE5723:
	.loc 13 5407 0
	addi 4,1,28
.LBB5724:
.LBB5725:
	.loc 11 982 0
	cntlzw 5,5
.LBE5725:
.LBE5724:
	.loc 13 5407 0
	stw 31,24(1)
.LBB5727:
.LBB5726:
	.loc 11 982 0
	subfic 5,5,31
.LBE5726:
.LBE5727:
	.loc 13 5407 0
	stw 28,28(1)
	slwi 5,5,1
	bl _ZSt16__introsort_loopIN9__gnu_cxx17__normal_iteratorIPSsSt6vectorISsSaISsEEEEiEvT_S7_T0_
.LVL1041:
.LBB5728:
.LBB5717:
	.loc 13 2179 0
	cmpwi 7,30,67
	ble- 7,.L717
.LVL1042:
.LBB5647:
.LBB5648:
	.loc 2 773 0
	addi 29,31,64
.LBE5648:
.LBE5647:
	.loc 13 2181 0
	addi 3,1,24
	addi 4,1,28
	stw 31,24(1)
	stw 29,28(1)
	bl _ZSt16__insertion_sortIN9__gnu_cxx17__normal_iteratorIPSsSt6vectorISsSaISsEEEEEvT_S7_
.LVL1043:
.LBB5649:
.LBB5650:
.LBB5651:
	.loc 13 2150 0
	cmpw 7,28,29
	beq- 7,.L661
.LVL1044:
.L729:
.LBB5652:
.LBB5653:
	.loc 13 2065 0
	addi 3,1,12
	mr 4,29
.LBE5653:
.LBE5652:
	.loc 13 2150 0
	mr 24,29
.LVL1045:
.LBB5708:
.LBB5705:
	.loc 9 217 0
	addi 31,29,-4
	.loc 13 2065 0
	bl _ZNSsC1ERKSs
.LEHE97:
.LVL1046:
	b .L718
.LVL1047:
.L721:
.LBB5654:
.LBB5655:
	.loc 3 542 0
	mr 4,31
.LEHB98:
	bl _ZNSs6assignERKSs
.LVL1048:
	addi 31,31,-4
	mr 24,30
.LVL1049:
.L718:
.LBE5655:
.LBE5654:
.LBB5658:
.LBB5659:
.LBB5660:
.LBB5661:
.LBB5662:
.LBB5663:
.LBB5664:
.LBB5665:
	.loc 3 288 0
	lwz 3,12(1)
.LBE5665:
.LBE5664:
.LBE5663:
.LBE5662:
.LBE5661:
.LBE5660:
.LBE5659:
.LBE5658:
.LBB5679:
.LBB5656:
	.loc 3 542 0
	mr 30,31
.LVL1050:
.LBE5656:
.LBE5679:
.LBB5680:
.LBB5678:
.LBB5677:
.LBB5667:
.LBB5668:
.LBB5669:
.LBB5670:
.LBB5671:
	.loc 3 288 0
	lwz 4,0(31)
.LBE5671:
.LBE5670:
.LBE5669:
.LBE5668:
.LBE5667:
.LBB5673:
.LBB5666:
	.loc 3 711 0
	lwz 25,-12(3)
.LVL1051:
.LBE5666:
.LBE5673:
.LBB5674:
.LBB5672:
	lwz 27,-12(4)
.LVL1052:
.LBE5672:
.LBE5674:
.LBB5675:
.LBB5676:
	.loc 4 257 0
	cmplw 7,27,25
	mr 5,27
	ble- 7,.L719
.LVL1053:
	mr 5,25
.L719:
	bl memcmp
.LVL1054:
.LBE5676:
.LBE5675:
	.loc 3 2180 0
	cmpwi 0,3,0
	bne- 0,.L720
.LVL1055:
	subf. 0,27,25
.LVL1056:
.L720:
.LBE5677:
.LBE5678:
.LBE5680:
.LBB5681:
.LBB5657:
	.loc 3 542 0
	mr 3,24
.LBE5657:
.LBE5681:
	.loc 13 2068 0
	blt+ 0,.L721
.LVL1057:
.LBB5682:
.LBB5683:
	.loc 3 542 0
	addi 4,1,12
.LVL1058:
	bl _ZNSs6assignERKSs
.LEHE98:
.LVL1059:
.LBE5683:
.LBE5682:
.LBB5684:
.LBB5685:
.LBB5686:
.LBB5687:
.LBB5688:
.LBB5689:
	.loc 3 288 0
	lwz 9,12(1)
.LBE5689:
.LBE5688:
.LBE5687:
.LBB5690:
.LBB5691:
	.loc 3 235 0
	lis 11,_ZNSs4_Rep20_S_empty_rep_storageE@ha
	la 0,_ZNSs4_Rep20_S_empty_rep_storageE@l(11)
.LBE5691:
.LBE5690:
	.loc 3 534 0
	addi 3,9,-12
.LVL1060:
.LBB5700:
.LBB5698:
	.loc 3 235 0
	cmpw 7,3,0
	bne- 7,.L761
.LVL1061:
.L728:
.LBE5698:
.LBE5700:
.LBE5686:
.LBE5685:
.LBE5684:
	.loc 13 2074 0
	addi 29,29,4
.LBE5705:
.LBE5708:
	.loc 13 2150 0
	cmpw 7,28,29
	bne+ 7,.L729
	b .L661
.LVL1062:
.L759:
.LBE5651:
.LBE5650:
.LBE5649:
.LBE5717:
.LBE5728:
.LBE5731:
.LBE5736:
.LBB5737:
.LBB5639:
.LBB5630:
.LBB5607:
.LBB5602:
.LBB5598:
.LBB5576:
.LBB5480:
	.loc 6 1244 0
	slwi 0,25,1
.LVL1063:
	.loc 6 1245 0
	lis 20,0x3fff
	cmplw 7,25,0
	li 3,-4
	ori 20,20,65535
	bgt+ 7,.L667
	cmplw 7,0,20
	bgt+ 7,.L667
	b .L666
.LVL1064:
.L731:
.LBE5480:
.LBE5576:
.LBE5598:
.LBE5602:
.LBE5607:
.LBE5630:
.LBE5639:
.LBE5737:
.LBE5743:
.LBE5745:
	.loc 9 230 0
	li 23,-22
	b .L660
.LVL1065:
.L757:
.LBB5746:
.LBB5744:
.LBB5738:
.LBB5640:
.LBB5631:
.LBB5628:
.LBB5627:
.LBB5626:
.LBB5625:
.LBB5619:
.LBB5620:
.LBB5621:
	.loc 5 66 0
	lwz 11,-4(9)
.LVL1066:
.LBE5621:
.LBE5620:
.LBE5619:
	.loc 3 240 0
	cmpwi 7,11,0
.LBB5624:
.LBB5623:
.LBB5622:
	.loc 5 67 0
	addi 11,11,-1
	stw 11,-4(9)
.LBE5622:
.LBE5623:
.LBE5624:
	.loc 3 240 0
	bgt+ 7,.L715
	.loc 3 244 0
	addi 4,1,9
	bl _ZNSs4_Rep10_M_destroyERKSaIcE
.LVL1067:
	b .L715
.LVL1068:
.L737:
	mr 31,3
.L697:
.LBE5625:
.LBE5626:
.LBE5627:
.LBE5628:
.LBE5631:
	.loc 9 240 0
	addi 3,1,16
.LVL1069:
	bl _ZNSsD1Ev
.LVL1070:
	mr 3,31
.LEHB99:
	bl _Unwind_Resume
.LEHE99:
.LVL1071:
.L760:
.LBB5632:
.LBB5608:
.LBB5603:
.LBB5599:
.LBB5577:
.LBB5571:
.LBB5570:
.LBB5569:
.LBB5568:
.LBB5567:
.LBB5566:
.LBB5565:
.LBB5564:
.LBB5563:
.LBB5562:
.LBB5556:
.LBB5557:
.LBB5558:
	.loc 5 66 0
	lwz 11,-4(9)
.LVL1072:
.LBE5558:
.LBE5557:
.LBE5556:
	.loc 3 240 0
	cmpwi 7,11,0
.LBB5561:
.LBB5560:
.LBB5559:
	.loc 5 67 0
	addi 11,11,-1
	stw 11,-4(9)
.LBE5559:
.LBE5560:
.LBE5561:
	.loc 3 240 0
	bgt+ 7,.L693
	.loc 3 244 0
	addi 4,1,10
	bl _ZNSs4_Rep10_M_destroyERKSaIcE
.LVL1073:
	b .L693
.LVL1074:
.L742:
.LBE5562:
.LBE5563:
.LBE5564:
.LBE5565:
.LBE5566:
.LBE5567:
.LBE5568:
.LBE5569:
.LBE5570:
.LBE5571:
.LBE5577:
.LBB5578:
.LBB5540:
.LBB5538:
.LBB5536:
.LBB5534:
.LBB5532:
	.loc 12 80 0
	bl __cxa_begin_catch
.LVL1075:
.LBB5524:
.LBB5525:
.LBB5526:
.LBB5527:
	.loc 7 103 0
	cmpw 7,24,25
	beq- 7,.L686
	mr 31,24
.LVL1076:
.L687:
.LBB5528:
.LBB5529:
	.loc 7 94 0
	mr 3,31
.LBE5529:
.LBE5528:
	.loc 7 103 0
	addi 31,31,4
.LVL1077:
.LBB5531:
.LBB5530:
	.loc 7 94 0
	bl _ZNSsD1Ev
.LVL1078:
.LBE5530:
.LBE5531:
	.loc 7 103 0
	cmpw 7,31,25
	bne+ 7,.L687
.LVL1079:
.L686:
.LEHB100:
.LBE5527:
.LBE5526:
.LBE5525:
.LBE5524:
	.loc 12 83 0
	bl __cxa_rethrow
.LEHE100:
.LVL1080:
.L761:
.LBE5532:
.LBE5534:
.LBE5536:
.LBE5538:
.LBE5540:
.LBE5578:
.LBE5599:
.LBE5603:
.LBE5608:
.LBE5632:
.LBE5640:
.LBE5738:
.LBB5739:
.LBB5732:
.LBB5729:
.LBB5718:
.LBB5715:
.LBB5713:
.LBB5711:
.LBB5709:
.LBB5706:
.LBB5704:
.LBB5703:
.LBB5702:
.LBB5701:
.LBB5699:
.LBB5692:
.LBB5693:
.LBB5694:
	.loc 5 66 0
	lwz 11,-4(9)
.LVL1081:
.LBE5694:
.LBE5693:
.LBE5692:
	.loc 3 240 0
	cmpwi 7,11,0
.LBB5697:
.LBB5696:
.LBB5695:
	.loc 5 67 0
	addi 11,11,-1
	stw 11,-4(9)
.LBE5695:
.LBE5696:
.LBE5697:
	.loc 3 240 0
	bgt+ 7,.L728
	.loc 3 244 0
	addi 4,1,8
	bl _ZNSs4_Rep10_M_destroyERKSaIcE
.LVL1082:
	b .L728
.LVL1083:
.L738:
.LBE5699:
.LBE5701:
.LBE5702:
.LBE5703:
.LBE5704:
.LBE5706:
.LBE5709:
.LBE5711:
.LBE5713:
.LBE5715:
.LBE5718:
.LBE5729:
.LBE5732:
.LBE5739:
.LBB5740:
.LBB5641:
.LBB5633:
.LBB5609:
.LBB5604:
.LBB5600:
.LBB5579:
.LBB5489:
	.loc 8 108 0
	mr 24,21
.LVL1084:
.L684:
.LBE5489:
.LBE5579:
	.loc 10 355 0
	bl __cxa_begin_catch
	.loc 10 357 0
	cmpwi 7,24,0
	beq- 7,.L675
.LVL1085:
.LBB5580:
.LBB5581:
.LBB5582:
.LBB5583:
.LBB5584:
	.loc 7 103 0
	cmpw 7,24,21
	mr 31,21
	beq- 7,.L700
.LVL1086:
.L746:
.LBB5585:
.LBB5586:
	.loc 7 94 0
	mr 3,31
.LBE5586:
.LBE5585:
	.loc 7 103 0
	addi 31,31,4
.LVL1087:
.LBB5588:
.LBB5587:
	.loc 7 94 0
	bl _ZNSsD1Ev
.LVL1088:
.LBE5587:
.LBE5588:
	.loc 7 103 0
	cmpw 7,24,31
	bne+ 7,.L746
.LVL1089:
.L700:
.LBE5584:
.LBE5583:
.LBE5582:
.LBE5581:
.LBE5580:
.LBB5589:
.LBB5590:
	.loc 6 155 0
	cmpwi 7,21,0
	beq- 7,.L702
.LVL1090:
.LBB5591:
.LBB5592:
	.loc 8 98 0
	mr 3,21
	bl _ZdlPv
.LVL1091:
.L702:
.LEHB101:
.LBE5592:
.LBE5591:
.LBE5590:
.LBE5589:
	.loc 10 362 0
	bl __cxa_rethrow
.LEHE101:
.LVL1092:
.L740:
.LBB5593:
.LBB5514:
.LBB5512:
.LBB5510:
.LBB5508:
.LBB5506:
	.loc 12 80 0
	bl __cxa_begin_catch
.LVL1093:
.LBB5498:
.LBB5499:
.LBB5500:
.LBB5501:
	.loc 7 103 0
	cmpw 7,21,24
	beq- 7,.L677
	mr 31,21
.LVL1094:
.L678:
.LBB5502:
.LBB5503:
	.loc 7 94 0
	mr 3,31
.LBE5503:
.LBE5502:
	.loc 7 103 0
	addi 31,31,4
.LVL1095:
.LBB5505:
.LBB5504:
	.loc 7 94 0
	bl _ZNSsD1Ev
.LVL1096:
.LBE5504:
.LBE5505:
	.loc 7 103 0
	cmpw 7,31,24
	bne+ 7,.L678
.LVL1097:
.L677:
.LEHB102:
.LBE5501:
.LBE5500:
.LBE5499:
.LBE5498:
	.loc 12 83 0
	bl __cxa_rethrow
.LEHE102:
.LVL1098:
.L744:
	mr 31,3
.LBE5506:
.LBE5508:
.LBE5510:
.LBE5512:
.LBE5514:
.LBE5593:
.LBE5600:
.LBE5604:
.LBE5609:
.LBE5633:
.LBE5641:
.LBE5740:
.LBB5741:
.LBB5733:
.LBB5730:
.LBB5719:
.LBB5716:
.LBB5714:
.LBB5712:
.LBB5710:
.LBB5707:
	.loc 13 2074 0
	addi 3,1,12
.LVL1099:
	bl _ZNSsD1Ev
.LVL1100:
	mr 3,31
.LEHB103:
	bl _Unwind_Resume
.LEHE103:
.LVL1101:
.L741:
.LBE5707:
.LBE5710:
.LBE5712:
.LBE5714:
.LBE5716:
.LBE5719:
.LBE5730:
.LBE5733:
.LBE5741:
.LBB5742:
.LBB5642:
.LBB5634:
.LBB5610:
.LBB5605:
.LBB5601:
.LBB5594:
.LBB5515:
.LBB5513:
.LBB5511:
.LBB5509:
.LBB5507:
	.loc 12 80 0
	stw 3,32(1)
	bl __cxa_end_catch
.LBE5507:
.LBE5509:
.LBE5511:
.LBE5513:
.LBE5515:
.LBE5594:
	.loc 10 355 0
	lwz 3,32(1)
	bl __cxa_begin_catch
.LVL1102:
.L675:
.LBB5595:
.LBB5596:
	.loc 8 118 0
	mr 3,19
	bl _ZNSsD1Ev
	b .L700
.LVL1103:
.L739:
	mr 31,3
.LBE5596:
.LBE5595:
	.loc 10 355 0
	bl __cxa_end_catch
	b .L697
.LVL1104:
.L743:
	mr 31,3
.LBB5597:
.LBB5541:
.LBB5539:
.LBB5537:
.LBB5535:
.LBB5533:
	.loc 12 80 0
	bl __cxa_end_catch
	mr 3,31
	b .L684
.LBE5533:
.LBE5535:
.LBE5537:
.LBE5539:
.LBE5541:
.LBE5597:
.LBE5601:
.LBE5605:
.LBE5610:
.LBE5634:
.LBE5642:
.LBE5742:
.LBE5744:
.LBE5746:
.LBE5750:
	.cfi_endproc
.LFE1255:
	.section	.gcc_except_table
	.align 2
.LLSDA1255:
	.byte	0xff
	.byte	0
	.uleb128 .LLSDATT1255-.LLSDATTD1255
.LLSDATTD1255:
	.byte	0x1
	.uleb128 .LLSDACSE1255-.LLSDACSB1255
.LLSDACSB1255:
	.uleb128 .LEHB90-.LFB1255
	.uleb128 .LEHE90-.LEHB90
	.uleb128 0
	.uleb128 0
	.uleb128 .LEHB91-.LFB1255
	.uleb128 .LEHE91-.LEHB91
	.uleb128 .L737-.LFB1255
	.uleb128 0
	.uleb128 .LEHB92-.LFB1255
	.uleb128 .LEHE92-.LEHB92
	.uleb128 0
	.uleb128 0
	.uleb128 .LEHB93-.LFB1255
	.uleb128 .LEHE93-.LEHB93
	.uleb128 .L737-.LFB1255
	.uleb128 0
	.uleb128 .LEHB94-.LFB1255
	.uleb128 .LEHE94-.LEHB94
	.uleb128 .L738-.LFB1255
	.uleb128 0x1
	.uleb128 .LEHB95-.LFB1255
	.uleb128 .LEHE95-.LEHB95
	.uleb128 .L740-.LFB1255
	.uleb128 0x1
	.uleb128 .LEHB96-.LFB1255
	.uleb128 .LEHE96-.LEHB96
	.uleb128 .L742-.LFB1255
	.uleb128 0x1
	.uleb128 .LEHB97-.LFB1255
	.uleb128 .LEHE97-.LEHB97
	.uleb128 0
	.uleb128 0
	.uleb128 .LEHB98-.LFB1255
	.uleb128 .LEHE98-.LEHB98
	.uleb128 .L744-.LFB1255
	.uleb128 0
	.uleb128 .LEHB99-.LFB1255
	.uleb128 .LEHE99-.LEHB99
	.uleb128 0
	.uleb128 0
	.uleb128 .LEHB100-.LFB1255
	.uleb128 .LEHE100-.LEHB100
	.uleb128 .L743-.LFB1255
	.uleb128 0x1
	.uleb128 .LEHB101-.LFB1255
	.uleb128 .LEHE101-.LEHB101
	.uleb128 .L739-.LFB1255
	.uleb128 0
	.uleb128 .LEHB102-.LFB1255
	.uleb128 .LEHE102-.LEHB102
	.uleb128 .L741-.LFB1255
	.uleb128 0x1
	.uleb128 .LEHB103-.LFB1255
	.uleb128 .LEHE103-.LEHB103
	.uleb128 0
	.uleb128 0
.LLSDACSE1255:
	.byte	0x1
	.byte	0
	.align 2
	.long	0
.LLSDATT1255:
	.section	".text"
	.size	_ZN4Nand7ReadDirESsRSt6vectorISsSaISsEE.constprop.46, .-_ZN4Nand7ReadDirESsRSt6vectorISsSaISsEE.constprop.46
	.align 2
	.type	_ZN4Nand10GetDirSizeESs.constprop.43, @function
_ZN4Nand10GetDirSizeESs.constprop.43:
.LFB1258:
	.loc 9 121 0
	.cfi_startproc
	.cfi_personality 0,__gxx_personality_v0
	.cfi_lsda 0,.LLSDA1258
.LVL1105:
	stwu 1,-88(1)
.LCFI114:
	.cfi_def_cfa_offset 88
.LVL1106:
	mflr 0
	stw 27,68(1)
	mr 27,3
	.cfi_offset 27, -20
	.cfi_register 65, 0
	stw 0,92(1)
.LBB5991:
	.loc 9 126 0
	addi 3,1,24
.LVL1107:
.LBB5992:
.LBB5993:
.LBB5994:
.LBB5995:
	.loc 6 83 0
	li 0,0
	.cfi_offset 65, 4
.LBE5995:
.LBE5994:
.LBE5993:
.LBE5992:
	.loc 9 126 0
	mr 4,27
.LBE5991:
	.loc 9 121 0
	stw 30,80(1)
	addi 30,1,40
	.cfi_offset 30, -8
	stw 24,56(1)
	stw 25,60(1)
	stw 26,64(1)
	stw 28,72(1)
	stw 29,76(1)
	stw 31,84(1)
.LBB6259:
.LBB5999:
.LBB5998:
.LBB5997:
.LBB5996:
	.loc 6 83 0
	stw 0,40(1)
	stw 0,44(1)
	stw 0,48(1)
.LEHB104:
.LBE5996:
.LBE5997:
.LBE5998:
.LBE5999:
	.loc 9 126 0
	.cfi_offset 31, -4
	.cfi_offset 29, -12
	.cfi_offset 28, -16
	.cfi_offset 26, -24
	.cfi_offset 25, -28
	.cfi_offset 24, -32
	bl _ZNSsC1ERKSs
.LEHE104:
	addi 30,1,40
	addi 3,1,24
	mr 4,30
.LEHB105:
	bl _ZN4Nand7ReadDirESsRSt6vectorISsSaISsEE.constprop.46
.LEHE105:
.LBB6000:
.LBB6001:
.LBB6002:
.LBB6003:
.LBB6004:
.LBB6005:
	.loc 3 288 0
	lwz 9,24(1)
.LBE6005:
.LBE6004:
.LBE6003:
.LBB6006:
.LBB6007:
	.loc 3 235 0
	lis 29,_ZNSs4_Rep20_S_empty_rep_storageE@ha
.LBE6007:
.LBE6006:
.LBE6002:
.LBE6001:
.LBE6000:
	.loc 9 126 0
	mr 31,3
.LVL1108:
.LBB6024:
.LBB6022:
.LBB6020:
.LBB6017:
.LBB6014:
	.loc 3 235 0
	la 29,_ZNSs4_Rep20_S_empty_rep_storageE@l(29)
.LBE6014:
.LBE6017:
	.loc 3 534 0
	addi 3,9,-12
.LVL1109:
.LBB6018:
.LBB6015:
	.loc 3 235 0
	cmpw 7,3,29
	bne- 7,.L850
.LVL1110:
.L768:
.LBE6015:
.LBE6018:
.LBE6020:
.LBE6022:
.LBE6024:
	.loc 9 127 0
	cmpwi 7,31,0
	lwz 26,40(1)
	lwz 25,4(30)
	bne- 7,.L849
.LVL1111:
	.loc 9 129 0
	cmpw 7,26,25
	beq- 7,.L834
.LVL1112:
.LBB6025:
.LBB6026:
.LBB6027:
	.loc 6 571 0
	subf 0,26,25
.LBE6027:
.LBE6026:
	.loc 9 132 0
	li 28,0
	srwi. 9,0,2
	beq- 0,.L844
	li 31,0
.LVL1113:
	b .L817
.LVL1114:
.L774:
.LBB6029:
.LBB6030:
.LBB6031:
.LBB6032:
	.loc 3 534 0
	addi 3,9,-12
.LVL1115:
.LBB6033:
.LBB6034:
	.loc 3 235 0
	cmpw 7,3,29
	bne- 7,.L851
.LVL1116:
.L801:
.LBE6034:
.LBE6033:
.LBE6032:
.LBE6031:
.LBE6030:
	.loc 9 139 0
	cmpwi 7,24,0
	beq- 7,.L852
.LVL1117:
.L802:
.LBB6045:
.LBB6046:
.LBB6047:
.LBB6048:
.LBB6049:
.LBB6050:
	.loc 3 288 0
	lwz 9,36(1)
.LBE6050:
.LBE6049:
.LBE6048:
.LBE6047:
.LBE6046:
.LBE6045:
	.loc 9 150 0
	add 28,28,24
.LVL1118:
.LBB6065:
.LBB6063:
.LBB6061:
	.loc 3 534 0
	addi 3,9,-12
.LVL1119:
.LBB6051:
.LBB6052:
	.loc 3 235 0
	cmpw 7,3,29
	bne- 7,.L853
.LVL1120:
.L816:
.LBE6052:
.LBE6051:
.LBE6061:
.LBE6063:
.LBE6065:
.LBE6029:
	.loc 9 132 0
	lwz 26,0(30)
	addi 31,31,1
.LVL1121:
	lwz 25,4(30)
.LBB6205:
.LBB6028:
	.loc 6 571 0
	subf 0,26,25
	srawi 0,0,2
.LBE6028:
.LBE6205:
	.loc 9 132 0
	cmplw 7,31,0
	bge- 7,.L770
.LVL1122:
.L817:
.LBB6206:
	.loc 9 134 0
	addi 3,1,36
	mr 4,27
.LEHB106:
	bl _ZNSsC1ERKSs
.LEHE106:
.LVL1123:
.LBB6066:
.LBB6067:
.LBB6068:
	.loc 3 1000 0
	lis 4,.LC0@ha
	addi 3,1,36
.LVL1124:
	la 4,.LC0@l(4)
	li 5,1
.LEHB107:
	bl _ZNSs6appendEPKcj
.LVL1125:
.LBE6068:
.LBE6067:
.LBE6066:
.LBB6069:
.LBB6070:
	.loc 9 405 0
	lwz 0,0(30)
.LBB6071:
.LBB6072:
.LBB6073:
	.loc 6 571 0
	lwz 9,4(30)
	subf 9,0,9
	srawi 9,9,2
.LBE6073:
.LBE6072:
	.loc 6 718 0
	cmplw 7,9,31
	ble- 7,.L854
.LVL1126:
.LBE6071:
.LBE6070:
.LBB6075:
.LBB6076:
	.loc 9 121 0
	slwi 4,31,2
.LBE6076:
.LBE6075:
.LBE6069:
.LBB6078:
.LBB6079:
	.loc 3 925 0
	addi 3,1,36
.LVL1127:
	add 4,0,4
	bl _ZNSs6appendERKSs
.LVL1128:
.LBE6079:
.LBE6078:
	.loc 9 138 0
	addi 3,1,28
	addi 4,1,36
.LVL1129:
	bl _ZNSsC1ERKSs
.LEHE107:
.LVL1130:
.LBB6080:
.LBB6081:
.LBB6082:
.LBB6083:
.LBB6084:
.LBB6085:
.LBB6086:
.LBB6087:
	.loc 3 288 0
	lwz 9,28(1)
.LBE6087:
.LBE6086:
.LBE6085:
.LBE6084:
.LBE6083:
.LBE6082:
	.loc 9 106 0
	li 24,0
	lwz 0,-12(9)
	cmpwi 7,0,0
	beq+ 7,.L774
.LVL1131:
	.loc 9 111 0
	addi 3,1,20
	addi 4,1,28
.LVL1132:
.LEHB108:
	bl _ZNSsC1ERKSs
.LEHE108:
.LVL1133:
.LBB6088:
.LBB6089:
	.loc 9 81 0
	addi 3,1,16
	addi 4,1,20
.LVL1134:
.LEHB109:
	bl _ZNSsC1ERKSs
.LEHE109:
.LVL1135:
.LBB6090:
.LBB6091:
	.loc 9 76 0
	lwz 3,16(1)
	li 4,1
.LEHB110:
	bl ISFS_Open
.LEHE110:
.LBE6091:
.LBE6090:
.LBB6093:
.LBB6094:
.LBB6095:
.LBB6096:
.LBB6097:
.LBB6098:
	.loc 3 288 0
	lwz 9,16(1)
.LBE6098:
.LBE6097:
.LBE6096:
.LBE6095:
.LBE6094:
.LBE6093:
.LBB6113:
.LBB6092:
	.loc 9 76 0
	mr 26,3
.LVL1136:
.LBE6092:
.LBE6113:
.LBB6114:
.LBB6111:
.LBB6109:
	.loc 3 534 0
	addi 3,9,-12
.LVL1137:
.LBB6099:
.LBB6100:
	.loc 3 235 0
	cmpw 7,3,29
	bne- 7,.L855
.LVL1138:
.L780:
.LBE6100:
.LBE6099:
.LBE6109:
.LBE6111:
.LBE6114:
.LBE6089:
.LBE6088:
.LBB6118:
.LBB6119:
.LBB6120:
.LBB6121:
.LBB6122:
.LBB6123:
	.loc 3 288 0
	lwz 9,20(1)
.LBE6123:
.LBE6122:
.LBE6121:
	.loc 3 534 0
	addi 3,9,-12
.LVL1139:
.LBB6124:
.LBB6125:
	.loc 3 235 0
	cmpw 7,3,29
	bne- 7,.L856
.LVL1140:
.L789:
.LBE6125:
.LBE6124:
.LBE6120:
.LBE6119:
.LBE6118:
	.loc 9 112 0
	cmpwi 7,26,0
	blt- 7,.L847
.LVL1141:
.LBB6136:
.LBB6137:
	.loc 9 91 0
	beq- 7,.L847
.LVL1142:
.LBE6137:
.LBB6138:
.LBB6139:
	.loc 9 94 0
	li 3,8
.LEHB111:
	bl _ZN8MemTools17AllocateMemory_64Ej
	mr 25,3
.LVL1143:
	.loc 9 95 0
	mr 3,26
.LVL1144:
	mr 4,25
	bl ISFS_GetFileStats
.LVL1145:
	.loc 9 96 0
	mr. 24,3
	blt- 0,.L792
	.loc 9 97 0
	lwz 24,0(25)
.LVL1146:
.L792:
	.loc 9 99 0
	mr 3,25
	bl free
.LVL1147:
.LBE6139:
.LBE6138:
.LBE6136:
.LBB6145:
.LBB6146:
	.loc 9 161 0
	mr 3,26
	bl ISFS_Close
.LEHE111:
.LBE6146:
.LBE6145:
.LBB6148:
.LBB6142:
.LBB6140:
	.loc 9 101 0
	nor 0,24,24
.LBE6140:
.LBE6142:
.LBE6148:
.LBB6149:
.LBB6147:
	.loc 9 161 0
	lwz 9,28(1)
.LBE6147:
.LBE6149:
.LBB6150:
.LBB6143:
.LBB6141:
	.loc 9 101 0
	srawi 0,0,31
	and 24,24,0
.LVL1148:
	b .L774
.LVL1149:
.L852:
.LBE6141:
.LBE6143:
.LBE6150:
.LBE6081:
.LBE6080:
	.loc 9 141 0
	addi 3,1,32
	addi 4,1,36
.LVL1150:
.LEHB112:
	bl _ZNSsC1ERKSs
.LEHE112:
.LVL1151:
	addi 3,1,32
.LEHB113:
	bl _ZN4Nand10GetDirSizeESs.constprop.43
.LEHE113:
.LBB6159:
.LBB6160:
.LBB6161:
.LBB6162:
.LBB6163:
.LBB6164:
	.loc 3 288 0
	lwz 9,32(1)
.LBE6164:
.LBE6163:
.LBE6162:
.LBE6161:
.LBE6160:
.LBE6159:
	.loc 9 141 0
	mr 24,3
.LVL1152:
.LBB6179:
.LBB6177:
.LBB6175:
	.loc 3 534 0
	addi 3,9,-12
.LVL1153:
.LBB6165:
.LBB6166:
	.loc 3 235 0
	cmpw 7,3,29
	bne- 7,.L857
.LVL1154:
.L808:
.LBE6166:
.LBE6165:
.LBE6175:
.LBE6177:
.LBE6179:
	.loc 9 142 0
	cmpwi 7,24,0
	bgt+ 7,.L802
.LVL1155:
.LBB6180:
.LBB6181:
.LBB6182:
.LBB6183:
.LBB6184:
	.loc 3 288 0
	lwz 9,36(1)
.LBE6184:
.LBE6183:
.LBE6182:
	.loc 3 534 0
	addi 3,9,-12
.LVL1156:
.LBB6185:
.LBB6186:
	.loc 3 235 0
	cmpw 7,3,29
	bne- 7,.L809
	lwz 26,40(1)
	.loc 9 144 0
	li 28,-1
	.loc 3 235 0
	lwz 25,44(1)
.LVL1157:
.L770:
.LBE6186:
.LBE6185:
.LBE6181:
.LBE6180:
.LBE6206:
.LBE6025:
.LBB6212:
.LBB6213:
.LBB6214:
.LBB6215:
.LBB6216:
.LBB6217:
.LBB6218:
	.loc 7 103 0
	cmpw 7,26,25
	beq- 7,.L771
.LVL1158:
.L844:
.LBB6219:
.LBB6220:
.LBB6221:
.LBB6222:
.LBB6223:
.LBB6224:
.LBB6225:
	.loc 3 288 0
	lwz 9,0(26)
.LBE6225:
.LBE6224:
.LBE6223:
	.loc 3 534 0
	addi 3,9,-12
.LVL1159:
.LBB6226:
.LBB6227:
	.loc 3 235 0
	cmpw 7,3,29
	bne- 7,.L858
.LVL1160:
.L823:
.LBE6227:
.LBE6226:
.LBE6222:
.LBE6221:
.LBE6220:
.LBE6219:
	.loc 7 103 0
	addi 26,26,4
.LVL1161:
	cmpw 7,26,25
	bne+ 7,.L844
	lwz 26,40(1)
.LVL1162:
.L771:
.LBE6218:
.LBE6217:
.LBE6216:
.LBE6215:
.LBE6214:
.LBB6244:
.LBB6245:
.LBB6246:
.LBB6247:
	.loc 6 155 0
	cmpwi 7,26,0
	beq- 7,.L829
.LVL1163:
.LBB6248:
.LBB6249:
	.loc 8 98 0
	mr 3,26
	bl _ZdlPv
.LVL1164:
.L829:
.LBE6249:
.LBE6248:
.LBE6247:
.LBE6246:
.LBE6245:
.LBE6244:
.LBE6213:
.LBE6212:
.LBE6259:
	.loc 9 154 0
	lwz 0,92(1)
	mr 3,28
	lwz 24,56(1)
	mtlr 0
	lwz 25,60(1)
	lwz 26,64(1)
.LVL1165:
	lwz 27,68(1)
.LVL1166:
	lwz 28,72(1)
	lwz 29,76(1)
	lwz 30,80(1)
	lwz 31,84(1)
	addi 1,1,88
	.cfi_remember_state
.LCFI115:
	.cfi_def_cfa_offset 0
	.cfi_restore 31
	.cfi_restore 30
	.cfi_restore 29
	.cfi_restore 28
	.cfi_restore 27
	.cfi_restore 26
	.cfi_restore 25
	.cfi_restore 24
	blr
.LVL1167:
.L847:
.LCFI116:
	.cfi_restore_state
.LBB6260:
.LBB6252:
.LBB6207:
.LBB6196:
.LBB6155:
.LBB6151:
.LBB6144:
	.loc 9 91 0
	lwz 9,28(1)
	li 24,0
	b .L774
.LVL1168:
.L834:
.LBE6144:
.LBE6151:
.LBE6155:
.LBE6196:
.LBE6207:
.LBE6252:
	.loc 9 130 0
	li 28,0
	b .L771
.LVL1169:
.L851:
.LBB6253:
.LBB6208:
.LBB6197:
.LBB6044:
.LBB6043:
.LBB6042:
.LBB6041:
.LBB6035:
.LBB6036:
.LBB6037:
	.loc 5 66 0
	lwz 11,-4(9)
.LVL1170:
.LBE6037:
.LBE6036:
.LBE6035:
	.loc 3 240 0
	cmpwi 7,11,0
.LBB6040:
.LBB6039:
.LBB6038:
	.loc 5 67 0
	addi 11,11,-1
	stw 11,-4(9)
.LBE6038:
.LBE6039:
.LBE6040:
	.loc 3 240 0
	bgt+ 7,.L801
	.loc 3 244 0
	addi 4,1,12
	bl _ZNSs4_Rep10_M_destroyERKSaIcE
.LVL1171:
	b .L801
.LVL1172:
.L853:
.LBE6041:
.LBE6042:
.LBE6043:
.LBE6044:
.LBE6197:
.LBB6198:
.LBB6064:
.LBB6062:
.LBB6060:
.LBB6059:
.LBB6053:
.LBB6054:
.LBB6055:
	.loc 5 66 0
	lwz 11,-4(9)
.LVL1173:
.LBE6055:
.LBE6054:
.LBE6053:
	.loc 3 240 0
	cmpwi 7,11,0
.LBB6058:
.LBB6057:
.LBB6056:
	.loc 5 67 0
	addi 11,11,-1
	stw 11,-4(9)
.LBE6056:
.LBE6057:
.LBE6058:
	.loc 3 240 0
	bgt+ 7,.L816
	.loc 3 244 0
	addi 4,1,9
	bl _ZNSs4_Rep10_M_destroyERKSaIcE
.LVL1174:
	b .L816
.LVL1175:
.L854:
.LBE6059:
.LBE6060:
.LBE6062:
.LBE6064:
.LBE6198:
.LBB6199:
.LBB6077:
.LBB6074:
	.loc 6 719 0
	lis 3,.LC4@ha
	la 3,.LC4@l(3)
.LEHB114:
	bl _ZSt20__throw_out_of_rangePKc
.LEHE114:
.LVL1176:
.L838:
	mr 31,3
.L832:
.LBE6074:
.LBE6077:
.LBE6199:
	.loc 9 151 0
	addi 3,1,36
.LVL1177:
	bl _ZNSsD1Ev
.LVL1178:
.L831:
.LBE6208:
.LBE6253:
	.loc 9 153 0
	mr 3,30
	bl _ZNSt6vectorISsSaISsEED2Ev.constprop.41
	mr 3,31
.LEHB115:
	bl _Unwind_Resume
.LEHE115:
.LVL1179:
.L809:
.LBB6254:
.LBB6209:
.LBB6200:
.LBB6195:
.LBB6194:
.LBB6193:
.LBB6187:
.LBB6188:
.LBB6189:
	.loc 5 66 0
	lwz 11,-4(9)
.LVL1180:
.LBE6189:
.LBE6188:
.LBE6187:
	.loc 3 240 0
	cmpwi 7,11,0
.LBB6192:
.LBB6191:
.LBB6190:
	.loc 5 67 0
	addi 11,11,-1
	stw 11,-4(9)
.LBE6190:
.LBE6191:
.LBE6192:
	.loc 3 240 0
	bgt+ 7,.L848
	.loc 3 244 0
	addi 4,1,10
	bl _ZNSs4_Rep10_M_destroyERKSaIcE
.LVL1181:
.L848:
	lwz 26,40(1)
	lwz 25,44(1)
.LVL1182:
.L849:
	.loc 9 144 0
	li 28,-1
	b .L770
.LVL1183:
.L856:
.LBE6193:
.LBE6194:
.LBE6195:
.LBE6200:
.LBB6201:
.LBB6156:
.LBB6152:
.LBB6135:
.LBB6134:
.LBB6133:
.LBB6132:
.LBB6126:
.LBB6127:
.LBB6128:
	.loc 5 66 0
	lwz 11,-4(9)
.LVL1184:
.LBE6128:
.LBE6127:
.LBE6126:
	.loc 3 240 0
	cmpwi 7,11,0
.LBB6131:
.LBB6130:
.LBB6129:
	.loc 5 67 0
	addi 11,11,-1
	stw 11,-4(9)
.LBE6129:
.LBE6130:
.LBE6131:
	.loc 3 240 0
	bgt+ 7,.L789
	.loc 3 244 0
	addi 4,1,13
	bl _ZNSs4_Rep10_M_destroyERKSaIcE
.LVL1185:
	b .L789
.LVL1186:
.L855:
.LBE6132:
.LBE6133:
.LBE6134:
.LBE6135:
.LBE6152:
.LBB6153:
.LBB6116:
.LBB6115:
.LBB6112:
.LBB6110:
.LBB6108:
.LBB6107:
.LBB6101:
.LBB6102:
.LBB6103:
	.loc 5 66 0
	lwz 11,-4(9)
.LVL1187:
.LBE6103:
.LBE6102:
.LBE6101:
	.loc 3 240 0
	cmpwi 7,11,0
.LBB6106:
.LBB6105:
.LBB6104:
	.loc 5 67 0
	addi 11,11,-1
	stw 11,-4(9)
.LBE6104:
.LBE6105:
.LBE6106:
	.loc 3 240 0
	bgt+ 7,.L780
	.loc 3 244 0
	addi 4,1,14
	bl _ZNSs4_Rep10_M_destroyERKSaIcE
.LVL1188:
	b .L780
.LVL1189:
.L858:
.LBE6107:
.LBE6108:
.LBE6110:
.LBE6112:
.LBE6115:
.LBE6116:
.LBE6153:
.LBE6156:
.LBE6201:
.LBE6209:
.LBE6254:
.LBB6255:
.LBB6251:
.LBB6250:
.LBB6243:
.LBB6242:
.LBB6241:
.LBB6240:
.LBB6239:
.LBB6238:
.LBB6237:
.LBB6236:
.LBB6235:
.LBB6234:
.LBB6228:
.LBB6229:
.LBB6230:
	.loc 5 66 0
	lwz 11,-4(9)
.LVL1190:
.LBE6230:
.LBE6229:
.LBE6228:
	.loc 3 240 0
	cmpwi 7,11,0
.LBB6233:
.LBB6232:
.LBB6231:
	.loc 5 67 0
	addi 11,11,-1
	stw 11,-4(9)
.LBE6231:
.LBE6232:
.LBE6233:
	.loc 3 240 0
	bgt+ 7,.L823
	.loc 3 244 0
	addi 4,1,8
	bl _ZNSs4_Rep10_M_destroyERKSaIcE
.LVL1191:
	b .L823
.LVL1192:
.L857:
.LBE6234:
.LBE6235:
.LBE6236:
.LBE6237:
.LBE6238:
.LBE6239:
.LBE6240:
.LBE6241:
.LBE6242:
.LBE6243:
.LBE6250:
.LBE6251:
.LBE6255:
.LBB6256:
.LBB6210:
.LBB6202:
.LBB6178:
.LBB6176:
.LBB6174:
.LBB6173:
.LBB6167:
.LBB6168:
.LBB6169:
	.loc 5 66 0
	lwz 11,-4(9)
.LVL1193:
.LBE6169:
.LBE6168:
.LBE6167:
	.loc 3 240 0
	cmpwi 7,11,0
.LBB6172:
.LBB6171:
.LBB6170:
	.loc 5 67 0
	addi 11,11,-1
	stw 11,-4(9)
.LBE6170:
.LBE6171:
.LBE6172:
	.loc 3 240 0
	bgt+ 7,.L808
	.loc 3 244 0
	addi 4,1,11
	bl _ZNSs4_Rep10_M_destroyERKSaIcE
.LVL1194:
	b .L808
.LVL1195:
.L842:
	mr 31,3
.LVL1196:
.L784:
.LBE6173:
.LBE6174:
.LBE6176:
.LBE6178:
.LBE6202:
.LBB6203:
.LBB6157:
	.loc 9 111 0
	addi 3,1,20
.LVL1197:
	bl _ZNSsD1Ev
.LVL1198:
.L796:
.LBE6157:
.LBE6203:
	.loc 9 138 0
	addi 3,1,28
.LVL1199:
	bl _ZNSsD1Ev
.LVL1200:
	b .L832
.LVL1201:
.L837:
	mr 31,3
	b .L831
.LVL1202:
.L843:
	mr 31,3
.LVL1203:
.LBB6204:
.LBB6158:
.LBB6154:
.LBB6117:
	.loc 9 81 0
	addi 3,1,16
.LVL1204:
	bl _ZNSsD1Ev
.LVL1205:
	b .L784
.LVL1206:
.L850:
.LBE6117:
.LBE6154:
.LBE6158:
.LBE6204:
.LBE6210:
.LBE6256:
.LBB6257:
.LBB6023:
.LBB6021:
.LBB6019:
.LBB6016:
.LBB6008:
.LBB6009:
.LBB6010:
	.loc 5 66 0
	lwz 11,-4(9)
.LVL1207:
.LBE6010:
.LBE6009:
.LBE6008:
	.loc 3 240 0
	cmpwi 7,11,0
.LBB6013:
.LBB6012:
.LBB6011:
	.loc 5 67 0
	addi 11,11,-1
	stw 11,-4(9)
.LBE6011:
.LBE6012:
.LBE6013:
	.loc 3 240 0
	bgt+ 7,.L768
	.loc 3 244 0
	addi 4,1,15
	bl _ZNSs4_Rep10_M_destroyERKSaIcE
.LVL1208:
	b .L768
.LVL1209:
.L840:
	mr 31,3
.LVL1210:
	b .L796
.LVL1211:
.L841:
	mr 31,3
.LBE6016:
.LBE6019:
.LBE6021:
.LBE6023:
.LBE6257:
	.loc 9 126 0
	addi 3,1,24
	bl _ZNSsD1Ev
	b .L831
.LVL1212:
.L839:
	mr 31,3
.LVL1213:
.LBB6258:
.LBB6211:
	.loc 9 141 0
	addi 3,1,32
	bl _ZNSsD1Ev
	b .L832
.LBE6211:
.LBE6258:
.LBE6260:
	.cfi_endproc
.LFE1258:
	.section	.gcc_except_table
.LLSDA1258:
	.byte	0xff
	.byte	0xff
	.byte	0x1
	.uleb128 .LLSDACSE1258-.LLSDACSB1258
.LLSDACSB1258:
	.uleb128 .LEHB104-.LFB1258
	.uleb128 .LEHE104-.LEHB104
	.uleb128 .L837-.LFB1258
	.uleb128 0
	.uleb128 .LEHB105-.LFB1258
	.uleb128 .LEHE105-.LEHB105
	.uleb128 .L841-.LFB1258
	.uleb128 0
	.uleb128 .LEHB106-.LFB1258
	.uleb128 .LEHE106-.LEHB106
	.uleb128 .L837-.LFB1258
	.uleb128 0
	.uleb128 .LEHB107-.LFB1258
	.uleb128 .LEHE107-.LEHB107
	.uleb128 .L838-.LFB1258
	.uleb128 0
	.uleb128 .LEHB108-.LFB1258
	.uleb128 .LEHE108-.LEHB108
	.uleb128 .L840-.LFB1258
	.uleb128 0
	.uleb128 .LEHB109-.LFB1258
	.uleb128 .LEHE109-.LEHB109
	.uleb128 .L842-.LFB1258
	.uleb128 0
	.uleb128 .LEHB110-.LFB1258
	.uleb128 .LEHE110-.LEHB110
	.uleb128 .L843-.LFB1258
	.uleb128 0
	.uleb128 .LEHB111-.LFB1258
	.uleb128 .LEHE111-.LEHB111
	.uleb128 .L840-.LFB1258
	.uleb128 0
	.uleb128 .LEHB112-.LFB1258
	.uleb128 .LEHE112-.LEHB112
	.uleb128 .L838-.LFB1258
	.uleb128 0
	.uleb128 .LEHB113-.LFB1258
	.uleb128 .LEHE113-.LEHB113
	.uleb128 .L839-.LFB1258
	.uleb128 0
	.uleb128 .LEHB114-.LFB1258
	.uleb128 .LEHE114-.LEHB114
	.uleb128 .L838-.LFB1258
	.uleb128 0
	.uleb128 .LEHB115-.LFB1258
	.uleb128 .LEHE115-.LEHB115
	.uleb128 0
	.uleb128 0
.LLSDACSE1258:
	.section	".text"
	.size	_ZN4Nand10GetDirSizeESs.constprop.43, .-_ZN4Nand10GetDirSizeESs.constprop.43
	.align 2
	.globl _ZN4Nand10GetDirSizeESs
	.type	_ZN4Nand10GetDirSizeESs, @function
_ZN4Nand10GetDirSizeESs:
.LFB1035:
	.loc 9 122 0
	.cfi_startproc
	.cfi_personality 0,__gxx_personality_v0
	.cfi_lsda 0,.LLSDA1035
.LVL1214:
	stwu 1,-88(1)
.LCFI117:
	.cfi_def_cfa_offset 88
.LVL1215:
	mflr 0
	stw 27,68(1)
	mr 27,3
	.cfi_offset 27, -20
	.cfi_register 65, 0
	stw 0,92(1)
.LBB6501:
	.loc 9 126 0
	addi 3,1,36
.LVL1216:
.LBB6502:
.LBB6503:
.LBB6504:
.LBB6505:
	.loc 6 83 0
	li 0,0
	.cfi_offset 65, 4
.LBE6505:
.LBE6504:
.LBE6503:
.LBE6502:
	.loc 9 126 0
	mr 4,27
.LBE6501:
	.loc 9 122 0
	stw 30,80(1)
	addi 30,1,40
	.cfi_offset 30, -8
	stw 24,56(1)
	stw 25,60(1)
	stw 26,64(1)
	stw 28,72(1)
	stw 29,76(1)
	stw 31,84(1)
.LBB6760:
.LBB6509:
.LBB6508:
.LBB6507:
.LBB6506:
	.loc 6 83 0
	stw 0,40(1)
	stw 0,44(1)
	stw 0,48(1)
.LEHB116:
.LBE6506:
.LBE6507:
.LBE6508:
.LBE6509:
	.loc 9 126 0
	.cfi_offset 31, -4
	.cfi_offset 29, -12
	.cfi_offset 28, -16
	.cfi_offset 26, -24
	.cfi_offset 25, -28
	.cfi_offset 24, -32
	bl _ZNSsC1ERKSs
.LEHE116:
	.loc 9 126 0 is_stmt 0 discriminator 1
	addi 30,1,40
	addi 3,1,36
	mr 4,30
.LEHB117:
	bl _ZN4Nand7ReadDirESsRSt6vectorISsSaISsEE.constprop.46
.LEHE117:
.LBB6510:
.LBB6511:
.LBB6512:
.LBB6513:
.LBB6514:
.LBB6515:
	.loc 3 288 0 is_stmt 1 discriminator 1
	lwz 9,36(1)
.LBE6515:
.LBE6514:
.LBE6513:
.LBB6516:
.LBB6517:
	.loc 3 235 0 discriminator 1
	lis 29,_ZNSs4_Rep20_S_empty_rep_storageE@ha
.LBE6517:
.LBE6516:
.LBE6512:
.LBE6511:
.LBE6510:
	.loc 9 126 0 discriminator 1
	mr 31,3
.LVL1217:
.LBB6534:
.LBB6532:
.LBB6530:
.LBB6527:
.LBB6524:
	.loc 3 235 0 discriminator 1
	la 29,_ZNSs4_Rep20_S_empty_rep_storageE@l(29)
.LBE6524:
.LBE6527:
	.loc 3 534 0 discriminator 1
	addi 3,9,-12
.LVL1218:
.LBB6528:
.LBB6525:
	.loc 3 235 0 discriminator 1
	cmpw 7,3,29
	bne- 7,.L947
.LVL1219:
.L865:
.LBE6525:
.LBE6528:
.LBE6530:
.LBE6532:
.LBE6534:
	.loc 9 127 0 discriminator 2
	cmpwi 7,31,0
	lwz 26,40(1)
	lwz 25,4(30)
	bne- 7,.L946
.LVL1220:
	.loc 9 129 0
	cmpw 7,26,25
	beq- 7,.L931
.LVL1221:
.LBB6535:
.LBB6536:
.LBB6537:
	.loc 6 571 0 discriminator 1
	subf 0,26,25
.LBE6537:
.LBE6536:
	.loc 9 132 0 discriminator 1
	srwi. 9,0,2
	beq- 0,.L932
	.loc 9 132 0 is_stmt 0
	li 31,0
.LVL1222:
	li 28,0
	b .L914
.LVL1223:
.L871:
.LBB6539:
.LBB6540:
.LBB6541:
.LBB6542:
	.loc 3 534 0 is_stmt 1
	addi 3,9,-12
.LVL1224:
.LBB6543:
.LBB6544:
	.loc 3 235 0
	cmpw 7,3,29
	bne- 7,.L948
.LVL1225:
.L898:
.LBE6544:
.LBE6543:
.LBE6542:
.LBE6541:
.LBE6540:
	.loc 9 139 0 discriminator 2
	cmpwi 7,24,0
	beq- 7,.L949
.LVL1226:
.L899:
.LBB6555:
.LBB6556:
.LBB6557:
.LBB6558:
.LBB6559:
.LBB6560:
	.loc 3 288 0
	lwz 9,32(1)
.LBE6560:
.LBE6559:
.LBE6558:
.LBE6557:
.LBE6556:
.LBE6555:
	.loc 9 150 0
	add 28,28,24
.LVL1227:
.LBB6575:
.LBB6573:
.LBB6571:
	.loc 3 534 0
	addi 3,9,-12
.LVL1228:
.LBB6561:
.LBB6562:
	.loc 3 235 0
	cmpw 7,3,29
	bne- 7,.L950
.LVL1229:
.L913:
.LBE6562:
.LBE6561:
.LBE6571:
.LBE6573:
.LBE6575:
.LBE6539:
	.loc 9 132 0
	lwz 26,0(30)
	addi 31,31,1
.LVL1230:
	lwz 25,4(30)
.LBB6710:
.LBB6538:
	.loc 6 571 0
	subf 0,26,25
	srawi 0,0,2
.LBE6538:
.LBE6710:
	.loc 9 132 0
	cmplw 7,31,0
	bge- 7,.L867
.LVL1231:
.L914:
.LBB6711:
	.loc 9 134 0
	addi 3,1,32
	mr 4,27
.LEHB118:
	bl _ZNSsC1ERKSs
.LEHE118:
.LVL1232:
.LBB6576:
.LBB6577:
.LBB6578:
	.loc 3 1000 0
	lis 4,.LC0@ha
	addi 3,1,32
.LVL1233:
	la 4,.LC0@l(4)
	li 5,1
.LEHB119:
	bl _ZNSs6appendEPKcj
.LVL1234:
.LBE6578:
.LBE6577:
.LBE6576:
.LBB6579:
.LBB6580:
	.loc 9 405 0
	lwz 0,0(30)
.LBB6581:
.LBB6582:
.LBB6583:
	.loc 6 571 0
	lwz 9,4(30)
	subf 9,0,9
	srawi 9,9,2
.LBE6583:
.LBE6582:
	.loc 6 718 0
	cmplw 7,9,31
	ble- 7,.L951
.LVL1235:
.LBE6581:
.LBE6580:
.LBB6585:
.LBB6586:
	.loc 9 121 0
	slwi 4,31,2
.LBE6586:
.LBE6585:
.LBE6579:
.LBB6588:
.LBB6589:
	.loc 3 925 0
	addi 3,1,32
.LVL1236:
	add 4,0,4
	bl _ZNSs6appendERKSs
.LVL1237:
.LBE6589:
.LBE6588:
	.loc 9 138 0
	addi 3,1,28
	addi 4,1,32
.LVL1238:
	bl _ZNSsC1ERKSs
.LEHE119:
.LVL1239:
.LBB6590:
.LBB6591:
.LBB6592:
.LBB6593:
.LBB6594:
.LBB6595:
.LBB6596:
.LBB6597:
	.loc 3 288 0 discriminator 1
	lwz 9,28(1)
.LBE6597:
.LBE6596:
.LBE6595:
.LBE6594:
.LBE6593:
.LBE6592:
	.loc 9 106 0 discriminator 1
	li 24,0
	lwz 0,-12(9)
	cmpwi 7,0,0
	beq+ 7,.L871
.LVL1240:
	.loc 9 111 0
	addi 3,1,20
	addi 4,1,28
.LVL1241:
.LEHB120:
	bl _ZNSsC1ERKSs
.LEHE120:
.LVL1242:
.LBB6598:
.LBB6599:
	.loc 9 81 0
	addi 3,1,16
	addi 4,1,20
.LVL1243:
.LEHB121:
	bl _ZNSsC1ERKSs
.LEHE121:
.LVL1244:
.LBB6600:
.LBB6601:
	.loc 9 76 0
	lwz 3,16(1)
	li 4,1
.LEHB122:
	bl ISFS_Open
.LEHE122:
.LBE6601:
.LBE6600:
.LBB6603:
.LBB6604:
.LBB6605:
.LBB6606:
.LBB6607:
.LBB6608:
	.loc 3 288 0
	lwz 9,16(1)
.LBE6608:
.LBE6607:
.LBE6606:
.LBE6605:
.LBE6604:
.LBE6603:
.LBB6623:
.LBB6602:
	.loc 9 76 0
	mr 26,3
.LVL1245:
.LBE6602:
.LBE6623:
.LBB6624:
.LBB6621:
.LBB6619:
	.loc 3 534 0
	addi 3,9,-12
.LVL1246:
.LBB6609:
.LBB6610:
	.loc 3 235 0
	cmpw 7,3,29
	bne- 7,.L952
.LVL1247:
.L877:
.LBE6610:
.LBE6609:
.LBE6619:
.LBE6621:
.LBE6624:
.LBE6599:
.LBE6598:
.LBB6628:
.LBB6629:
.LBB6630:
.LBB6631:
.LBB6632:
.LBB6633:
	.loc 3 288 0
	lwz 9,20(1)
.LBE6633:
.LBE6632:
.LBE6631:
	.loc 3 534 0
	addi 3,9,-12
.LVL1248:
.LBB6634:
.LBB6635:
	.loc 3 235 0
	cmpw 7,3,29
	bne- 7,.L953
.LVL1249:
.L886:
.LBE6635:
.LBE6634:
.LBE6630:
.LBE6629:
.LBE6628:
	.loc 9 112 0
	cmpwi 7,26,0
	blt- 7,.L944
.LVL1250:
.LBB6646:
.LBB6647:
	.loc 9 91 0
	beq- 7,.L944
.LVL1251:
.LBE6647:
.LBB6648:
.LBB6649:
	.loc 9 94 0
	li 3,8
.LEHB123:
	bl _ZN8MemTools17AllocateMemory_64Ej
	mr 25,3
.LVL1252:
	.loc 9 95 0
	mr 3,26
.LVL1253:
	mr 4,25
	bl ISFS_GetFileStats
.LVL1254:
	.loc 9 96 0
	mr. 24,3
	blt- 0,.L889
	.loc 9 97 0
	lwz 24,0(25)
.LVL1255:
.L889:
	.loc 9 99 0
	mr 3,25
	bl free
.LVL1256:
.LBE6649:
.LBE6648:
.LBE6646:
.LBB6655:
.LBB6656:
	.loc 9 161 0
	mr 3,26
	bl ISFS_Close
.LEHE123:
.LBE6656:
.LBE6655:
.LBB6658:
.LBB6652:
.LBB6650:
	.loc 9 101 0
	nor 0,24,24
.LBE6650:
.LBE6652:
.LBE6658:
.LBB6659:
.LBB6657:
	.loc 9 161 0
	lwz 9,28(1)
.LBE6657:
.LBE6659:
.LBB6660:
.LBB6653:
.LBB6651:
	.loc 9 101 0
	srawi 0,0,31
	and 24,24,0
.LVL1257:
	b .L871
.LVL1258:
.L944:
.LBE6651:
.LBE6653:
.LBB6654:
	.loc 9 91 0
	lwz 9,28(1)
	li 24,0
	b .L871
.LVL1259:
.L949:
.LBE6654:
.LBE6660:
.LBE6591:
.LBE6590:
	.loc 9 141 0
	addi 3,1,24
	addi 4,1,32
.LVL1260:
.LEHB124:
	bl _ZNSsC1ERKSs
.LEHE124:
.LVL1261:
	.loc 9 141 0 is_stmt 0 discriminator 1
	addi 3,1,24
.LEHB125:
	bl _ZN4Nand10GetDirSizeESs.constprop.43
.LEHE125:
.LBB6666:
.LBB6667:
.LBB6668:
.LBB6669:
.LBB6670:
.LBB6671:
	.loc 3 288 0 is_stmt 1 discriminator 1
	lwz 9,24(1)
.LBE6671:
.LBE6670:
.LBE6669:
.LBE6668:
.LBE6667:
.LBE6666:
	.loc 9 141 0 discriminator 1
	mr 24,3
.LVL1262:
.LBB6686:
.LBB6684:
.LBB6682:
	.loc 3 534 0 discriminator 1
	addi 3,9,-12
.LVL1263:
.LBB6672:
.LBB6673:
	.loc 3 235 0 discriminator 1
	cmpw 7,3,29
	bne- 7,.L954
.LVL1264:
.L905:
.LBE6673:
.LBE6672:
.LBE6682:
.LBE6684:
.LBE6686:
	.loc 9 142 0 discriminator 1
	cmpwi 7,24,0
	bgt+ 7,.L899
.LVL1265:
.LBB6687:
.LBB6688:
.LBB6689:
.LBB6690:
.LBB6691:
	.loc 3 288 0
	lwz 9,32(1)
.LBE6691:
.LBE6690:
.LBE6689:
	.loc 3 534 0
	addi 3,9,-12
.LVL1266:
.LBB6692:
.LBB6693:
	.loc 3 235 0
	cmpw 7,3,29
	bne- 7,.L906
	lwz 26,40(1)
	.loc 9 144 0
	li 28,-1
	.loc 3 235 0
	lwz 25,44(1)
.LVL1267:
.L867:
.LBE6693:
.LBE6692:
.LBE6688:
.LBE6687:
.LBE6711:
.LBE6535:
.LBB6715:
.LBB6716:
.LBB6717:
.LBB6718:
.LBB6719:
.LBB6720:
.LBB6721:
	.loc 7 103 0
	cmpw 7,26,25
	beq- 7,.L868
.LVL1268:
.L941:
.LBB6722:
.LBB6723:
.LBB6724:
.LBB6725:
.LBB6726:
.LBB6727:
.LBB6728:
	.loc 3 288 0
	lwz 9,0(26)
.LBE6728:
.LBE6727:
.LBE6726:
	.loc 3 534 0
	addi 3,9,-12
.LVL1269:
.LBB6729:
.LBB6730:
	.loc 3 235 0
	cmpw 7,3,29
	bne- 7,.L955
.LVL1270:
.L920:
.LBE6730:
.LBE6729:
.LBE6725:
.LBE6724:
.LBE6723:
.LBE6722:
	.loc 7 103 0
	addi 26,26,4
.LVL1271:
	cmpw 7,26,25
	bne+ 7,.L941
	lwz 26,40(1)
.LVL1272:
.L868:
.LBE6721:
.LBE6720:
.LBE6719:
.LBE6718:
.LBE6717:
.LBB6747:
.LBB6748:
.LBB6749:
.LBB6750:
	.loc 6 155 0
	cmpwi 7,26,0
	beq- 7,.L926
.LVL1273:
.LBB6751:
.LBB6752:
	.loc 8 98 0
	mr 3,26
	bl _ZdlPv
.LVL1274:
.L926:
.LBE6752:
.LBE6751:
.LBE6750:
.LBE6749:
.LBE6748:
.LBE6747:
.LBE6716:
.LBE6715:
.LBE6760:
	.loc 9 154 0
	lwz 0,92(1)
	mr 3,28
	lwz 24,56(1)
	mtlr 0
	lwz 25,60(1)
	lwz 26,64(1)
.LVL1275:
	lwz 27,68(1)
.LVL1276:
	lwz 28,72(1)
	lwz 29,76(1)
	lwz 30,80(1)
	lwz 31,84(1)
	addi 1,1,88
	.cfi_remember_state
.LCFI118:
	.cfi_def_cfa_offset 0
	.cfi_restore 31
	.cfi_restore 30
	.cfi_restore 29
	.cfi_restore 28
	.cfi_restore 27
	.cfi_restore 26
	.cfi_restore 25
	.cfi_restore 24
	blr
.LVL1277:
.L931:
.LCFI119:
	.cfi_restore_state
.LBB6761:
	.loc 9 130 0
	li 28,0
	b .L868
.LVL1278:
.L932:
.LBB6755:
	.loc 9 132 0
	li 28,0
	b .L941
.LVL1279:
.L948:
.LBB6712:
.LBB6703:
.LBB6554:
.LBB6553:
.LBB6552:
.LBB6551:
.LBB6545:
.LBB6546:
.LBB6547:
	.loc 5 66 0
	lwz 11,-4(9)
.LVL1280:
.LBE6547:
.LBE6546:
.LBE6545:
	.loc 3 240 0
	cmpwi 7,11,0
.LBB6550:
.LBB6549:
.LBB6548:
	.loc 5 67 0
	addi 11,11,-1
	stw 11,-4(9)
.LBE6548:
.LBE6549:
.LBE6550:
	.loc 3 240 0
	bgt+ 7,.L898
	.loc 3 244 0
	addi 4,1,12
	bl _ZNSs4_Rep10_M_destroyERKSaIcE
.LVL1281:
	b .L898
.LVL1282:
.L951:
.LBE6551:
.LBE6552:
.LBE6553:
.LBE6554:
.LBE6703:
.LBB6704:
.LBB6587:
.LBB6584:
	.loc 6 719 0
	lis 3,.LC4@ha
	la 3,.LC4@l(3)
.LEHB126:
	bl _ZSt20__throw_out_of_rangePKc
.LEHE126:
.LVL1283:
.L936:
	mr 31,3
.L929:
.LBE6584:
.LBE6587:
.LBE6704:
	.loc 9 151 0
	addi 3,1,32
.LVL1284:
	bl _ZNSsD1Ev
.LVL1285:
.L928:
.LBE6712:
.LBE6755:
	.loc 9 153 0
	mr 3,30
	bl _ZNSt6vectorISsSaISsEED2Ev.constprop.41
	mr 3,31
.LEHB127:
	bl _Unwind_Resume
.LEHE127:
.LVL1286:
.L906:
.LBB6756:
.LBB6713:
.LBB6705:
.LBB6702:
.LBB6701:
.LBB6700:
.LBB6694:
.LBB6695:
.LBB6696:
	.loc 5 66 0
	lwz 11,-4(9)
.LVL1287:
.LBE6696:
.LBE6695:
.LBE6694:
	.loc 3 240 0
	cmpwi 7,11,0
.LBB6699:
.LBB6698:
.LBB6697:
	.loc 5 67 0
	addi 11,11,-1
	stw 11,-4(9)
.LBE6697:
.LBE6698:
.LBE6699:
	.loc 3 240 0
	bgt+ 7,.L945
	.loc 3 244 0
	addi 4,1,10
	bl _ZNSs4_Rep10_M_destroyERKSaIcE
.LVL1288:
.L945:
	lwz 26,40(1)
	lwz 25,44(1)
.LVL1289:
.L946:
	.loc 9 144 0
	li 28,-1
	b .L867
.LVL1290:
.L950:
.LBE6700:
.LBE6701:
.LBE6702:
.LBE6705:
.LBB6706:
.LBB6574:
.LBB6572:
.LBB6570:
.LBB6569:
.LBB6563:
.LBB6564:
.LBB6565:
	.loc 5 66 0
	lwz 11,-4(9)
.LVL1291:
.LBE6565:
.LBE6564:
.LBE6563:
	.loc 3 240 0
	cmpwi 7,11,0
.LBB6568:
.LBB6567:
.LBB6566:
	.loc 5 67 0
	addi 11,11,-1
	stw 11,-4(9)
.LBE6566:
.LBE6567:
.LBE6568:
	.loc 3 240 0
	bgt+ 7,.L913
	.loc 3 244 0
	addi 4,1,9
	bl _ZNSs4_Rep10_M_destroyERKSaIcE
.LVL1292:
	b .L913
.LVL1293:
.L953:
.LBE6569:
.LBE6570:
.LBE6572:
.LBE6574:
.LBE6706:
.LBB6707:
.LBB6664:
.LBB6661:
.LBB6645:
.LBB6644:
.LBB6643:
.LBB6642:
.LBB6636:
.LBB6637:
.LBB6638:
	.loc 5 66 0
	lwz 11,-4(9)
.LVL1294:
.LBE6638:
.LBE6637:
.LBE6636:
	.loc 3 240 0
	cmpwi 7,11,0
.LBB6641:
.LBB6640:
.LBB6639:
	.loc 5 67 0
	addi 11,11,-1
	stw 11,-4(9)
.LBE6639:
.LBE6640:
.LBE6641:
	.loc 3 240 0
	bgt+ 7,.L886
	.loc 3 244 0
	addi 4,1,13
	bl _ZNSs4_Rep10_M_destroyERKSaIcE
.LVL1295:
	b .L886
.LVL1296:
.L952:
.LBE6642:
.LBE6643:
.LBE6644:
.LBE6645:
.LBE6661:
.LBB6662:
.LBB6626:
.LBB6625:
.LBB6622:
.LBB6620:
.LBB6618:
.LBB6617:
.LBB6611:
.LBB6612:
.LBB6613:
	.loc 5 66 0
	lwz 11,-4(9)
.LVL1297:
.LBE6613:
.LBE6612:
.LBE6611:
	.loc 3 240 0
	cmpwi 7,11,0
.LBB6616:
.LBB6615:
.LBB6614:
	.loc 5 67 0
	addi 11,11,-1
	stw 11,-4(9)
.LBE6614:
.LBE6615:
.LBE6616:
	.loc 3 240 0
	bgt+ 7,.L877
	.loc 3 244 0
	addi 4,1,14
	bl _ZNSs4_Rep10_M_destroyERKSaIcE
.LVL1298:
	b .L877
.LVL1299:
.L955:
.LBE6617:
.LBE6618:
.LBE6620:
.LBE6622:
.LBE6625:
.LBE6626:
.LBE6662:
.LBE6664:
.LBE6707:
.LBE6713:
.LBE6756:
.LBB6757:
.LBB6754:
.LBB6753:
.LBB6746:
.LBB6745:
.LBB6744:
.LBB6743:
.LBB6742:
.LBB6741:
.LBB6740:
.LBB6739:
.LBB6738:
.LBB6737:
.LBB6731:
.LBB6732:
.LBB6733:
	.loc 5 66 0
	lwz 11,-4(9)
.LVL1300:
.LBE6733:
.LBE6732:
.LBE6731:
	.loc 3 240 0
	cmpwi 7,11,0
.LBB6736:
.LBB6735:
.LBB6734:
	.loc 5 67 0
	addi 11,11,-1
	stw 11,-4(9)
.LBE6734:
.LBE6735:
.LBE6736:
	.loc 3 240 0
	bgt+ 7,.L920
	.loc 3 244 0
	addi 4,1,8
	bl _ZNSs4_Rep10_M_destroyERKSaIcE
.LVL1301:
	b .L920
.LVL1302:
.L954:
.LBE6737:
.LBE6738:
.LBE6739:
.LBE6740:
.LBE6741:
.LBE6742:
.LBE6743:
.LBE6744:
.LBE6745:
.LBE6746:
.LBE6753:
.LBE6754:
.LBE6757:
.LBB6758:
.LBB6714:
.LBB6708:
.LBB6685:
.LBB6683:
.LBB6681:
.LBB6680:
.LBB6674:
.LBB6675:
.LBB6676:
	.loc 5 66 0
	lwz 11,-4(9)
.LVL1303:
.LBE6676:
.LBE6675:
.LBE6674:
	.loc 3 240 0
	cmpwi 7,11,0
.LBB6679:
.LBB6678:
.LBB6677:
	.loc 5 67 0
	addi 11,11,-1
	stw 11,-4(9)
.LBE6677:
.LBE6678:
.LBE6679:
	.loc 3 240 0
	bgt+ 7,.L905
	.loc 3 244 0
	addi 4,1,11
	bl _ZNSs4_Rep10_M_destroyERKSaIcE
.LVL1304:
	b .L905
.LVL1305:
.L937:
	mr 31,3
.LVL1306:
.L893:
.LBE6680:
.LBE6681:
.LBE6683:
.LBE6685:
.LBE6708:
	.loc 9 138 0
	addi 3,1,28
.LVL1307:
	bl _ZNSsD1Ev
.LVL1308:
	b .L929
.LVL1309:
.L940:
	mr 31,3
.LVL1310:
.LBB6709:
.LBB6665:
.LBB6663:
.LBB6627:
	.loc 9 81 0
	addi 3,1,16
.LVL1311:
	bl _ZNSsD1Ev
.LVL1312:
.L881:
.LBE6627:
.LBE6663:
	.loc 9 111 0
	addi 3,1,20
.LVL1313:
	bl _ZNSsD1Ev
.LVL1314:
	b .L893
.LVL1315:
.L939:
	mr 31,3
.LVL1316:
	b .L881
.LVL1317:
.L934:
	mr 31,3
	b .L928
.LVL1318:
.L938:
	mr 31,3
.LVL1319:
.LBE6665:
.LBE6709:
	.loc 9 141 0
	addi 3,1,24
	bl _ZNSsD1Ev
	b .L929
.LVL1320:
.L947:
.LBE6714:
.LBE6758:
.LBB6759:
.LBB6533:
.LBB6531:
.LBB6529:
.LBB6526:
.LBB6518:
.LBB6519:
.LBB6520:
	.loc 5 66 0
	lwz 11,-4(9)
.LVL1321:
.LBE6520:
.LBE6519:
.LBE6518:
	.loc 3 240 0
	cmpwi 7,11,0
.LBB6523:
.LBB6522:
.LBB6521:
	.loc 5 67 0
	addi 11,11,-1
	stw 11,-4(9)
.LBE6521:
.LBE6522:
.LBE6523:
	.loc 3 240 0
	bgt+ 7,.L865
	.loc 3 244 0
	addi 4,1,15
	bl _ZNSs4_Rep10_M_destroyERKSaIcE
.LVL1322:
	b .L865
.LVL1323:
.L935:
	mr 31,3
.LBE6526:
.LBE6529:
.LBE6531:
.LBE6533:
.LBE6759:
	.loc 9 126 0
	addi 3,1,36
	bl _ZNSsD1Ev
	b .L928
.LBE6761:
	.cfi_endproc
.LFE1035:
	.section	.gcc_except_table
.LLSDA1035:
	.byte	0xff
	.byte	0xff
	.byte	0x1
	.uleb128 .LLSDACSE1035-.LLSDACSB1035
.LLSDACSB1035:
	.uleb128 .LEHB116-.LFB1035
	.uleb128 .LEHE116-.LEHB116
	.uleb128 .L934-.LFB1035
	.uleb128 0
	.uleb128 .LEHB117-.LFB1035
	.uleb128 .LEHE117-.LEHB117
	.uleb128 .L935-.LFB1035
	.uleb128 0
	.uleb128 .LEHB118-.LFB1035
	.uleb128 .LEHE118-.LEHB118
	.uleb128 .L934-.LFB1035
	.uleb128 0
	.uleb128 .LEHB119-.LFB1035
	.uleb128 .LEHE119-.LEHB119
	.uleb128 .L936-.LFB1035
	.uleb128 0
	.uleb128 .LEHB120-.LFB1035
	.uleb128 .LEHE120-.LEHB120
	.uleb128 .L937-.LFB1035
	.uleb128 0
	.uleb128 .LEHB121-.LFB1035
	.uleb128 .LEHE121-.LEHB121
	.uleb128 .L939-.LFB1035
	.uleb128 0
	.uleb128 .LEHB122-.LFB1035
	.uleb128 .LEHE122-.LEHB122
	.uleb128 .L940-.LFB1035
	.uleb128 0
	.uleb128 .LEHB123-.LFB1035
	.uleb128 .LEHE123-.LEHB123
	.uleb128 .L937-.LFB1035
	.uleb128 0
	.uleb128 .LEHB124-.LFB1035
	.uleb128 .LEHE124-.LEHB124
	.uleb128 .L936-.LFB1035
	.uleb128 0
	.uleb128 .LEHB125-.LFB1035
	.uleb128 .LEHE125-.LEHB125
	.uleb128 .L938-.LFB1035
	.uleb128 0
	.uleb128 .LEHB126-.LFB1035
	.uleb128 .LEHE126-.LEHB126
	.uleb128 .L936-.LFB1035
	.uleb128 0
	.uleb128 .LEHB127-.LFB1035
	.uleb128 .LEHE127-.LEHB127
	.uleb128 0
	.uleb128 0
.LLSDACSE1035:
	.section	".text"
	.size	_ZN4Nand10GetDirSizeESs, .-_ZN4Nand10GetDirSizeESs
	.align 2
	.type	_ZN4Nand10ExtractDirESsSs.constprop.47, @function
_ZN4Nand10ExtractDirESsSs.constprop.47:
.LFB1254:
	.loc 9 361 0
	.cfi_startproc
	.cfi_personality 0,__gxx_personality_v0
	.cfi_lsda 0,.LLSDA1254
.LVL1324:
	mflr 0
	stwu 1,-136(1)
.LCFI120:
	.cfi_def_cfa_offset 136
	.cfi_register 65, 0
	stw 31,132(1)
	stw 0,140(1)
	stw 24,104(1)
	mr 24,3
	.cfi_offset 24, -32
	.cfi_offset 65, 4
	.cfi_offset 31, -4
.LVL1325:
.LBB7470:
.LBB7471:
.LBB7472:
.LBB7473:
.LBB7474:
.LBB7475:
.LBB7476:
	.loc 3 288 0
	lwz 9,0(3)
.LBE7476:
.LBE7475:
.LBE7474:
.LBE7473:
.LBE7472:
.LBE7471:
.LBE7470:
	.loc 9 361 0
	stw 25,108(1)
	mr 25,4
	.cfi_offset 25, -28
.LBB8083:
.LBB7479:
.LBB7478:
.LBB7477:
	.loc 3 711 0
	lwz 31,-12(9)
.LBE7477:
.LBE7478:
.LBE7479:
.LBE8083:
	.loc 9 361 0
	stw 29,124(1)
.LBB8084:
	.loc 9 366 0
	li 29,0
	.cfi_offset 29, -12
	.loc 9 365 0
	cmpwi 7,31,0
.LBE8084:
	.loc 9 361 0
	stw 20,88(1)
	stw 21,92(1)
	stw 22,96(1)
	stw 23,100(1)
	stw 26,112(1)
	stw 27,116(1)
	stw 28,120(1)
	stw 30,128(1)
.LBB8085:
	.loc 9 365 0
	beq- 7,.L1077
	.cfi_offset 30, -8
	.cfi_offset 28, -16
	.cfi_offset 27, -20
	.cfi_offset 26, -24
	.cfi_offset 23, -36
	.cfi_offset 22, -40
	.cfi_offset 21, -44
	.cfi_offset 20, -48
.LVL1326:
.LBB7480:
.LBB7481:
.LBB7482:
	.loc 3 711 0
	lwz 11,0(4)
.LBE7482:
.LBE7481:
.LBE7480:
	.loc 9 365 0
	lwz 0,-12(11)
	cmpwi 7,0,0
	beq- 7,.L1077
.LVL1327:
.LBB7483:
.LBB7484:
	.loc 3 911 0
	cmpwi 7,31,0
	addi 31,31,-1
	beq- 7,.L964
	mr 11,9
	b .L961
.LVL1328:
.L963:
.LBE7484:
.LBE7483:
.LBB7488:
.LBB7489:
	.loc 3 711 0
	lwz 9,-12(11)
.LBE7489:
.LBE7488:
	.loc 9 369 0
	addi 4,9,-1
.LVL1329:
.LBB7490:
.LBB7491:
.LBB7492:
.LBB7493:
	.loc 3 318 0
	cmplw 7,9,4
	blt- 7,.L1173
.LVL1330:
.LBE7493:
.LBE7492:
	.loc 3 1349 0
	mr 3,24
	li 5,1
	li 6,0
.LEHB128:
	bl _ZNSs9_M_mutateEjjj
.LVL1331:
.LBE7491:
.LBE7490:
.LBB7494:
.LBB7495:
.LBB7496:
.LBB7497:
.LBB7498:
	.loc 3 288 0
	lwz 11,0(24)
.LBE7498:
.LBE7497:
.LBE7496:
	.loc 3 711 0
	lwz 31,-12(11)
.LVL1332:
.LBE7495:
.LBE7494:
.LBB7499:
.LBB7487:
	.loc 3 911 0
	cmpwi 7,31,0
	addi 31,31,-1
	beq- 7,.L964
	mr 9,11
.LVL1333:
.L961:
.LBB7485:
.LBB7486:
	.loc 3 311 0
	lwz 0,-4(9)
	cmpwi 7,0,0
	blt- 7,.L962
	.loc 3 312 0
	mr 3,24
	bl _ZNSs12_M_leak_hardEv
	lwz 11,0(24)
.L962:
.LBE7486:
.LBE7485:
.LBE7487:
.LBE7499:
	.loc 9 368 0
	lbzx 0,11,31
	cmpwi 7,0,47
	beq+ 7,.L963
	b .L1175
.LVL1334:
.L969:
.LBB7500:
.LBB7501:
	.loc 3 711 0
	lwz 9,-12(11)
.LBE7501:
.LBE7500:
	.loc 9 371 0
	addi 4,9,-1
.LVL1335:
.LBB7502:
.LBB7503:
.LBB7504:
.LBB7505:
	.loc 3 318 0
	cmplw 7,9,4
	blt- 7,.L1173
.LVL1336:
.LBE7505:
.LBE7504:
	.loc 3 1349 0
	mr 3,25
	li 5,1
	li 6,0
	bl _ZNSs9_M_mutateEjjj
.LVL1337:
.L1175:
.LBE7503:
.LBE7502:
.LBB7509:
.LBB7510:
.LBB7511:
.LBB7512:
.LBB7513:
	.loc 3 288 0
	lwz 9,0(25)
.LBE7513:
.LBE7512:
.LBE7511:
	.loc 3 711 0
	lwz 31,-12(9)
.LVL1338:
.LBE7510:
.LBE7509:
.LBB7514:
.LBB7515:
	.loc 3 911 0
	cmpwi 7,31,0
	addi 31,31,-1
	beq- 7,.L964
.LBB7516:
.LBB7517:
	.loc 3 311 0
	lwz 0,-4(9)
.LBE7517:
.LBE7516:
	.loc 3 911 0
	mr 11,9
.LVL1339:
.LBB7519:
.LBB7518:
	.loc 3 311 0
	cmpwi 7,0,0
	blt- 7,.L968
	.loc 3 312 0
	mr 3,25
	bl _ZNSs12_M_leak_hardEv
.LEHE128:
.LVL1340:
	lwz 11,0(25)
.L968:
.LBE7518:
.LBE7519:
.LBE7515:
.LBE7514:
	.loc 9 370 0
	lbzx 0,11,31
	cmpwi 7,0,47
	beq+ 7,.L969
.LVL1341:
.LBB7521:
.LBB7522:
.LBB7523:
.LBB7524:
	.loc 6 83 0
	li 0,0
.LBE7524:
.LBE7523:
.LBE7522:
.LBE7521:
.LBB7528:
	.loc 9 374 0
	addi 3,1,40
	mr 4,24
.LBE7528:
.LBB7990:
.LBB7527:
.LBB7526:
.LBB7525:
	.loc 6 83 0
	stw 0,72(1)
	stw 0,76(1)
	stw 0,80(1)
.LEHB129:
.LBE7525:
.LBE7526:
.LBE7527:
.LBE7990:
.LBB7991:
	.loc 9 374 0
	bl _ZNSsC1ERKSs
.LEHE129:
	addi 3,1,40
	addi 4,1,72
.LEHB130:
	bl _ZN4Nand7ReadDirESsRSt6vectorISsSaISsEE.constprop.46
.LEHE130:
.LBB7529:
.LBB7530:
.LBB7531:
.LBB7532:
.LBB7533:
.LBB7534:
	.loc 3 288 0
	lwz 9,40(1)
.LBE7534:
.LBE7533:
.LBE7532:
.LBB7535:
.LBB7536:
	.loc 3 235 0
	lis 26,_ZNSs4_Rep20_S_empty_rep_storageE@ha
.LBE7536:
.LBE7535:
.LBE7531:
.LBE7530:
.LBE7529:
	.loc 9 374 0
	mr 31,3
.LVL1342:
.LBB7553:
.LBB7551:
.LBB7549:
.LBB7546:
.LBB7543:
	.loc 3 235 0
	la 26,_ZNSs4_Rep20_S_empty_rep_storageE@l(26)
.LBE7543:
.LBE7546:
	.loc 3 534 0
	addi 3,9,-12
.LVL1343:
.LBB7547:
.LBB7544:
	.loc 3 235 0
	cmpw 7,3,26
	bne- 7,.L1176
.LVL1344:
.L975:
.LBE7544:
.LBE7547:
.LBE7549:
.LBE7551:
.LBE7553:
	.loc 9 374 0
	cmpwi 7,31,0
	.loc 9 377 0
	lwz 30,76(1)
	lwz 31,72(1)
	.loc 9 374 0
	bne- 7,.L1172
.LVL1345:
.LBB7554:
.LBB7555:
.LBB7556:
	.loc 6 571 0
	subf 0,31,30
.LBE7556:
.LBE7555:
	.loc 9 377 0
	srwi. 9,0,2
	beq- 0,.L1152
	li 23,0
	li 22,0
.LVL1346:
.L1052:
.LBB7558:
	.loc 9 379 0
	addi 3,1,68
	mr 4,24
.LEHB131:
	bl _ZNSsC1ERKSs
.LEHE131:
.LVL1347:
.LBB7559:
.LBB7560:
.LBB7561:
	.loc 3 1000 0
	lis 20,.LC0@ha
	addi 3,1,68
.LVL1348:
	la 20,.LC0@l(20)
	li 5,1
	mr 4,20
.LEHB132:
	bl _ZNSs6appendEPKcj
.LVL1349:
.LBE7561:
.LBE7560:
.LBE7559:
.LBB7562:
.LBB7563:
	.loc 9 405 0
	lwz 4,72(1)
.LBB7564:
.LBB7565:
.LBB7566:
	.loc 6 571 0
	lwz 0,76(1)
	subf 0,4,0
	srawi 0,0,2
.LBE7566:
.LBE7565:
	.loc 6 718 0
	cmplw 7,23,0
	bge- 7,.L1177
.LVL1350:
.LBE7564:
.LBE7563:
.LBB7568:
.LBB7569:
	.loc 6 696 0
	slwi 21,23,2
.LVL1351:
.LBE7569:
.LBE7568:
.LBE7562:
.LBB7571:
.LBB7572:
	.loc 3 925 0
	addi 3,1,68
.LVL1352:
	add 4,4,21
	bl _ZNSs6appendERKSs
.LVL1353:
.LBE7572:
.LBE7571:
.LBB7573:
.LBB7574:
	.loc 9 405 0
	lwz 30,72(1)
.LBB7575:
.LBB7576:
.LBB7577:
	.loc 6 571 0
	lwz 0,76(1)
	subf 0,30,0
	srawi 0,0,2
.LBE7577:
.LBE7576:
	.loc 6 718 0
	cmplw 7,23,0
	bge- 7,.L1178
.LBE7575:
.LBE7574:
.LBB7579:
.LBB7580:
	.loc 6 696 0
	lis 27,.LANCHOR0@ha
	.loc 9 315 0
	lis 29,.LC5@ha
	.loc 6 696 0
	la 27,.LANCHOR0@l(27)
	add 30,30,21
.LVL1354:
	addi 27,27,4
	.loc 9 315 0
	la 29,.LC5@l(29)
.LVL1355:
.L980:
.LBE7580:
.LBE7579:
.LBE7573:
.LBB7582:
.LBB7583:
.LBB7584:
	lbz 28,0(27)
	b .L985
.LVL1356:
.L983:
.LBB7585:
.LBB7586:
.LBB7587:
.LBB7588:
.LBB7589:
.LBB7590:
	.loc 3 711 0
	lwz 9,0(30)
	lwz 5,-12(9)
.LBE7590:
.LBE7589:
	.loc 3 318 0
	cmplw 7,31,5
	bgt- 7,.L1179
.LVL1357:
.LBE7588:
.LBE7587:
	.loc 3 1349 0
	subf. 5,31,5
	beq- 0,.L982
	li 5,1
.LVL1358:
.L982:
	mr 3,30
.LVL1359:
	mr 4,31
	li 6,0
	bl _ZNSs9_M_mutateEjjj
.LVL1360:
.LBE7586:
.LBE7585:
.LBB7594:
.LBB7595:
.LBB7596:
.LBB7597:
	.loc 4 261 0
	mr 3,29
	bl strlen
.LBE7597:
.LBE7596:
	.loc 3 1286 0
	mr 4,31
.LBB7599:
.LBB7598:
	.loc 4 261 0
	mr 6,3
.LBE7598:
.LBE7599:
	.loc 3 1286 0
	mr 5,29
	mr 3,30
	bl _ZNSs6insertEjPKcj
.LVL1361:
.L985:
.LBE7595:
.LBE7594:
	.loc 9 317 0
	mr 3,30
	mr 4,28
	li 5,0
	bl _ZNKSs4findEcj
	cmpwi 7,3,-1
	mr 31,3
.LVL1362:
	bne+ 7,.L983
	addi 27,27,8
	.loc 9 315 0
	lwz 29,-4(27)
	cmpwi 7,29,0
	bne+ 7,.L980
.LBE7584:
.LBE7583:
.LBE7582:
	.loc 9 384 0
	addi 3,1,64
.LVL1363:
	mr 4,25
	bl _ZNSsC1ERKSs
.LEHE132:
.LVL1364:
.LBB7603:
.LBB7604:
.LBB7605:
	.loc 3 1000 0
	addi 3,1,64
.LVL1365:
	mr 4,20
	li 5,1
.LEHB133:
	bl _ZNSs6appendEPKcj
.LVL1366:
.LBE7605:
.LBE7604:
.LBE7603:
.LBB7606:
.LBB7607:
	.loc 9 405 0
	lwz 4,72(1)
.LBB7608:
.LBB7609:
.LBB7610:
	.loc 6 571 0
	lwz 0,76(1)
	subf 0,4,0
	srawi 0,0,2
.LBE7610:
.LBE7609:
	.loc 6 718 0
	cmplw 7,23,0
	bge- 7,.L1180
.LVL1367:
.LBE7608:
.LBE7607:
.LBE7606:
.LBB7613:
.LBB7614:
	.loc 3 925 0
	addi 3,1,64
.LVL1368:
	add 4,4,21
	bl _ZNSs6appendERKSs
.LVL1369:
.LBE7614:
.LBE7613:
	.loc 9 388 0
	addi 3,1,44
	addi 4,1,68
.LVL1370:
	bl _ZNSsC1ERKSs
.LVL1371:
.LBB7615:
.LBB7616:
.LBB7617:
.LBB7618:
.LBB7619:
.LBB7620:
.LBB7621:
.LBB7622:
	.loc 3 288 0
	lwz 9,44(1)
.LBE7622:
.LBE7621:
.LBE7620:
.LBE7619:
.LBE7618:
.LBE7617:
	.loc 9 169 0
	li 31,0
.LVL1372:
	.loc 9 168 0
	lwz 0,-12(9)
	cmpwi 7,0,0
	bne- 7,.L1181
.LVL1373:
.L987:
.LBE7616:
.LBE7615:
.LBB7677:
.LBB7678:
.LBB7679:
	.loc 3 534 0
	addi 3,9,-12
.LVL1374:
.LBB7680:
.LBB7681:
	.loc 3 235 0
	cmpw 7,3,26
	bne- 7,.L1182
.LVL1375:
.L1012:
.LBE7681:
.LBE7680:
.LBE7679:
.LBE7678:
.LBE7677:
	.loc 9 388 0
	cmpwi 7,31,0
	beq- 7,.L1013
	.loc 9 390 0
	addi 3,1,48
	addi 4,1,68
.LVL1376:
	bl _ZNSsC1ERKSs
.LEHE133:
.LVL1377:
	addi 3,1,52
	addi 4,1,64
.LVL1378:
.LEHB134:
	bl _ZNSsC1ERKSs
.LEHE134:
.LVL1379:
	addi 3,1,48
	addi 4,1,52
.LEHB135:
	bl _ZN4Nand11ExtractFileESsSs.constprop.45
.LEHE135:
.LBB7692:
.LBB7693:
.LBB7694:
.LBB7695:
.LBB7696:
.LBB7697:
	.loc 3 288 0
	lwz 9,52(1)
.LBE7697:
.LBE7696:
.LBE7695:
.LBE7694:
.LBE7693:
.LBE7692:
	.loc 9 390 0
	mr 31,3
.LVL1380:
.LBB7712:
.LBB7710:
.LBB7708:
	.loc 3 534 0
	addi 3,9,-12
.LVL1381:
.LBB7698:
.LBB7699:
	.loc 3 235 0
	cmpw 7,3,26
	bne- 7,.L1183
.LVL1382:
.L1019:
.LBE7699:
.LBE7698:
.LBE7708:
.LBE7710:
.LBE7712:
.LBB7713:
.LBB7714:
.LBB7715:
.LBB7716:
.LBB7717:
.LBB7718:
	.loc 3 288 0
	lwz 9,48(1)
.LBE7718:
.LBE7717:
.LBE7716:
	.loc 3 534 0
	addi 3,9,-12
.LVL1383:
.LBB7719:
.LBB7720:
	.loc 3 235 0
	cmpw 7,3,26
	bne- 7,.L1184
.LVL1384:
.L1039:
.LBE7720:
.LBE7719:
.LBE7715:
.LBE7714:
.LBE7713:
	.loc 9 395 0
	cmpwi 7,31,0
.LBB7731:
.LBB7732:
.LBB7733:
.LBB7734:
.LBB7735:
.LBB7736:
	.loc 3 288 0
	lwz 9,64(1)
.LBE7736:
.LBE7735:
.LBE7734:
	.loc 3 534 0
	addi 3,9,-12
.LBE7733:
.LBE7732:
.LBE7731:
	.loc 9 395 0
	bne- 7,.L1185
.LVL1385:
.LBB7751:
.LBB7749:
.LBB7747:
.LBB7737:
.LBB7738:
	.loc 3 235 0
	cmpw 7,3,26
	bne- 7,.L1186
.LVL1386:
.L1058:
.LBE7738:
.LBE7737:
.LBE7747:
.LBE7749:
.LBE7751:
.LBB7752:
.LBB7753:
.LBB7754:
.LBB7755:
.LBB7756:
.LBB7757:
	.loc 3 288 0
	lwz 9,68(1)
.LBE7757:
.LBE7756:
.LBE7755:
	.loc 3 534 0
	addi 3,9,-12
.LVL1387:
.LBB7758:
.LBB7759:
	.loc 3 235 0
	cmpw 7,3,26
	bne- 7,.L1059
	lwz 31,72(1)
	li 29,0
	lwz 30,76(1)
	b .L1065
.L1059:
.LVL1388:
.LBB7760:
.LBB7761:
.LBB7762:
	.loc 5 66 0
	lwz 11,-4(9)
.LVL1389:
.LBE7762:
.LBE7761:
.LBE7760:
	.loc 3 240 0
	cmpwi 7,11,0
.LBB7765:
.LBB7764:
.LBB7763:
	.loc 5 67 0
	addi 11,11,-1
	stw 11,-4(9)
.LBE7763:
.LBE7764:
.LBE7765:
	.loc 3 240 0
	bgt+ 7,.L1171
	.loc 3 244 0
	addi 4,1,18
	bl _ZNSs4_Rep10_M_destroyERKSaIcE
.LVL1390:
.L1171:
	lwz 31,72(1)
	lwz 30,76(1)
.LVL1391:
.L1172:
	li 29,0
.LVL1392:
.L1065:
.LBE7759:
.LBE7758:
.LBE7754:
.LBE7753:
.LBE7752:
.LBE7558:
.LBE7554:
.LBE7991:
.LBB7992:
.LBB7993:
.LBB7994:
.LBB7995:
.LBB7996:
.LBB7997:
.LBB7998:
	.loc 7 103 0
	cmpw 7,31,30
	beq- 7,.L1066
.LVL1393:
.L1165:
.LBB7999:
.LBB8000:
.LBB8001:
.LBB8002:
.LBB8003:
.LBB8004:
.LBB8005:
	.loc 3 288 0
	lwz 9,0(31)
.LBE8005:
.LBE8004:
.LBE8003:
	.loc 3 534 0
	addi 3,9,-12
.LVL1394:
.LBB8006:
.LBB8007:
	.loc 3 235 0
	cmpw 7,3,26
	bne- 7,.L1187
.LVL1395:
.L1072:
.LBE8007:
.LBE8006:
.LBE8002:
.LBE8001:
.LBE8000:
.LBE7999:
	.loc 7 103 0
	addi 31,31,4
.LVL1396:
	cmpw 7,31,30
	bne+ 7,.L1165
	lwz 31,72(1)
.LVL1397:
.L1066:
.LBE7998:
.LBE7997:
.LBE7996:
.LBE7995:
.LBE7994:
.LBB8024:
.LBB8025:
.LBB8026:
.LBB8027:
	.loc 6 155 0
	cmpwi 7,31,0
	beq- 7,.L1077
.LVL1398:
.LBB8028:
.LBB8029:
	.loc 8 98 0
	mr 3,31
	bl _ZdlPv
.LVL1399:
.L1077:
.LBE8029:
.LBE8028:
.LBE8027:
.LBE8026:
.LBE8025:
.LBE8024:
.LBE7993:
.LBE7992:
.LBE8085:
	.loc 9 405 0
	lwz 0,140(1)
	mr 3,29
	lwz 20,88(1)
	mtlr 0
	lwz 21,92(1)
	lwz 22,96(1)
	lwz 23,100(1)
	lwz 24,104(1)
.LVL1400:
	lwz 25,108(1)
.LVL1401:
	lwz 26,112(1)
	lwz 27,116(1)
	lwz 28,120(1)
	lwz 29,124(1)
	lwz 30,128(1)
	lwz 31,132(1)
	addi 1,1,136
	.cfi_remember_state
.LCFI121:
	.cfi_def_cfa_offset 0
	.cfi_restore 31
	.cfi_restore 30
	.cfi_restore 29
	.cfi_restore 28
	.cfi_restore 27
	.cfi_restore 26
	.cfi_restore 25
	.cfi_restore 24
	.cfi_restore 23
	.cfi_restore 22
	.cfi_restore 21
	.cfi_restore 20
	blr
.LVL1402:
.L1179:
.LCFI122:
	.cfi_restore_state
.LBB8086:
.LBB8032:
.LBB7968:
.LBB7961:
.LBB7766:
.LBB7602:
.LBB7601:
.LBB7600:
.LBB7593:
.LBB7592:
.LBB7591:
	.loc 3 319 0
	lis 3,.LC1@ha
.LVL1403:
	la 3,.LC1@l(3)
.LEHB136:
	bl _ZSt20__throw_out_of_rangePKc
.LEHE136:
.LVL1404:
.L1185:
.LBE7591:
.LBE7592:
.LBE7593:
.LBE7600:
.LBE7601:
.LBE7602:
.LBE7766:
.LBB7767:
.LBB7768:
.LBB7769:
.LBB7770:
.LBB7771:
	.loc 3 235 0
	cmpw 7,3,26
	bne- 7,.L1188
.LVL1405:
.L1045:
.LBE7771:
.LBE7770:
.LBE7769:
.LBE7768:
.LBE7767:
.LBB7782:
.LBB7783:
.LBB7784:
.LBB7785:
.LBB7786:
.LBB7787:
	.loc 3 288 0
	lwz 9,68(1)
.LBE7787:
.LBE7786:
.LBE7785:
	.loc 3 534 0
	addi 3,9,-12
.LVL1406:
.LBB7788:
.LBB7789:
	.loc 3 235 0
	cmpw 7,3,26
	bne- 7,.L1189
.LVL1407:
.L1051:
.LBE7789:
.LBE7788:
.LBE7784:
.LBE7783:
.LBE7782:
.LBE7961:
	.loc 9 377 0
	lwz 31,72(1)
	addi 22,22,1
.LVL1408:
	lwz 30,76(1)
	mr 23,22
.LVL1409:
.LBB7962:
.LBB7557:
	.loc 6 571 0
	subf 0,31,30
	srawi 0,0,2
.LBE7557:
.LBE7962:
	.loc 9 377 0
	cmplw 7,22,0
	blt+ 7,.L1052
.LVL1410:
.L1152:
	li 29,1
	b .L1065
.LVL1411:
.L1013:
.LBB7963:
	.loc 9 395 0
	addi 3,1,56
	addi 4,1,68
.LVL1412:
.LEHB137:
	bl _ZNSsC1ERKSs
.LEHE137:
.LVL1413:
	addi 3,1,60
	addi 4,1,64
.LVL1414:
.LEHB138:
	bl _ZNSsC1ERKSs
.LEHE138:
.LVL1415:
	addi 3,1,56
	addi 4,1,60
.LEHB139:
	bl _ZN4Nand10ExtractDirESsSs.constprop.47
.LEHE139:
.LBB7800:
.LBB7801:
.LBB7802:
.LBB7803:
.LBB7804:
.LBB7805:
	.loc 3 288 0
	lwz 9,60(1)
.LBE7805:
.LBE7804:
.LBE7803:
.LBE7802:
.LBE7801:
.LBE7800:
	.loc 9 395 0
	mr 31,3
.LVL1416:
.LBB7820:
.LBB7818:
.LBB7816:
	.loc 3 534 0
	addi 3,9,-12
.LVL1417:
.LBB7806:
.LBB7807:
	.loc 3 235 0
	cmpw 7,3,26
	bne- 7,.L1190
.LVL1418:
.L1033:
.LBE7807:
.LBE7806:
.LBE7816:
.LBE7818:
.LBE7820:
.LBB7821:
.LBB7822:
.LBB7823:
.LBB7824:
.LBB7825:
.LBB7826:
	.loc 3 288 0
	lwz 9,56(1)
.LBE7826:
.LBE7825:
.LBE7824:
	.loc 3 534 0
	addi 3,9,-12
.LVL1419:
.LBB7827:
.LBB7828:
	.loc 3 235 0
	cmpw 7,3,26
	beq+ 7,.L1039
.LVL1420:
.LBB7829:
.LBB7830:
.LBB7831:
	.loc 5 66 0
	lwz 11,-4(9)
.LVL1421:
.LBE7831:
.LBE7830:
.LBE7829:
	.loc 3 240 0
	cmpwi 7,11,0
.LBB7834:
.LBB7833:
.LBB7832:
	.loc 5 67 0
	addi 11,11,-1
	stw 11,-4(9)
.LBE7832:
.LBE7833:
.LBE7834:
	.loc 3 240 0
	bgt+ 7,.L1039
	.loc 3 244 0
	addi 4,1,22
	bl _ZNSs4_Rep10_M_destroyERKSaIcE
.LVL1422:
	b .L1039
.LVL1423:
.L1181:
.LBE7828:
.LBE7827:
.LBE7823:
.LBE7822:
.LBE7821:
.LBB7835:
.LBB7674:
	.loc 9 171 0
	addi 3,1,36
	addi 4,1,44
.LVL1424:
.LEHB140:
	bl _ZNSsC1ERKSs
.LEHE140:
.LVL1425:
.LBB7623:
.LBB7624:
	.loc 9 81 0
	addi 3,1,32
	addi 4,1,36
.LVL1426:
.LEHB141:
	bl _ZNSsC1ERKSs
.LEHE141:
.LVL1427:
.LBB7625:
.LBB7626:
	.loc 9 76 0
	lwz 3,32(1)
	li 4,1
.LEHB142:
	bl ISFS_Open
.LEHE142:
.LBE7626:
.LBE7625:
.LBB7628:
.LBB7629:
.LBB7630:
.LBB7631:
.LBB7632:
.LBB7633:
	.loc 3 288 0
	lwz 9,32(1)
.LBE7633:
.LBE7632:
.LBE7631:
.LBE7630:
.LBE7629:
.LBE7628:
.LBB7648:
.LBB7627:
	.loc 9 76 0
	mr 31,3
.LVL1428:
.LBE7627:
.LBE7648:
.LBB7649:
.LBB7646:
.LBB7644:
	.loc 3 534 0
	addi 3,9,-12
.LVL1429:
.LBB7634:
.LBB7635:
	.loc 3 235 0
	cmpw 7,3,26
	bne- 7,.L1191
.LVL1430:
.L993:
.LBE7635:
.LBE7634:
.LBE7644:
.LBE7646:
.LBE7649:
.LBE7624:
.LBE7623:
.LBB7652:
.LBB7653:
.LBB7654:
.LBB7655:
.LBB7656:
.LBB7657:
	.loc 3 288 0
	lwz 9,36(1)
.LBE7657:
.LBE7656:
.LBE7655:
	.loc 3 534 0
	addi 3,9,-12
.LVL1431:
.LBB7658:
.LBB7659:
	.loc 3 235 0
	cmpw 7,3,26
	bne- 7,.L1192
.LVL1432:
.L1002:
.LBE7659:
.LBE7658:
.LBE7654:
.LBE7653:
.LBE7652:
	.loc 9 172 0
	cmpwi 7,31,0
	blt- 7,.L1193
.LVL1433:
.LBB7670:
.LBB7671:
	.loc 9 158 0
	beq- 7,.L1169
	.loc 9 161 0
	mr 3,31
.LEHB143:
	bl ISFS_Close
.LEHE143:
.L1169:
	lwz 9,44(1)
	.loc 9 174 0
	li 31,1
.LVL1434:
	b .L987
.LVL1435:
.L1155:
	mr 31,3
.L1127:
.LVL1436:
.LBE7671:
.LBE7670:
.LBE7674:
.LBE7835:
.LBB7836:
.LBB7837:
.LBB7838:
.LBB7839:
.LBB7840:
.LBB7841:
	.loc 3 288 0
	lwz 9,68(1)
.LBE7841:
.LBE7840:
.LBE7839:
	.loc 3 534 0
	addi 3,9,-12
.LVL1437:
.LBB7842:
.LBB7843:
	.loc 3 235 0
	cmpw 7,3,26
	bne- 7,.L1194
.LVL1438:
.L1133:
	.loc 3 244 0
	mr 30,31
.LVL1439:
.L1085:
.LBE7843:
.LBE7842:
.LBE7838:
.LBE7837:
.LBE7836:
.LBE7963:
.LBE7968:
.LBE8032:
.LBB8033:
.LBB8034:
.LBB8035:
	.loc 6 350 0
	lwz 31,72(1)
	lwz 29,76(1)
.LVL1440:
.LBB8036:
.LBB8037:
.LBB8038:
.LBB8039:
.LBB8040:
	.loc 7 103 0
	cmpw 7,31,29
	beq- 7,.L1134
	lis 26,_ZNSs4_Rep20_S_empty_rep_storageE@ha
	la 26,_ZNSs4_Rep20_S_empty_rep_storageE@l(26)
.LVL1441:
.L1141:
.LBB8041:
.LBB8042:
.LBB8043:
.LBB8044:
.LBB8045:
.LBB8046:
.LBB8047:
	.loc 3 288 0
	lwz 9,0(31)
.LBE8047:
.LBE8046:
.LBE8045:
	.loc 3 534 0
	addi 3,9,-12
.LVL1442:
.LBB8048:
.LBB8049:
	.loc 3 235 0
	cmpw 7,3,26
	bne- 7,.L1195
.LVL1443:
.L1140:
.LBE8049:
.LBE8048:
.LBE8044:
.LBE8043:
.LBE8042:
.LBE8041:
	.loc 7 103 0
	addi 31,31,4
.LVL1444:
	cmpw 7,29,31
	bne+ 7,.L1141
	lwz 31,72(1)
.LVL1445:
.L1134:
.LBE8040:
.LBE8039:
.LBE8038:
.LBE8037:
.LBE8036:
.LBB8066:
.LBB8067:
.LBB8068:
.LBB8069:
	.loc 6 155 0
	cmpwi 7,31,0
	beq- 7,.L1146
.LVL1446:
.LBB8070:
.LBB8071:
	.loc 8 98 0
	mr 3,31
	bl _ZdlPv
.LVL1447:
.L1146:
	mr 3,30
.LEHB144:
	bl _Unwind_Resume
.LVL1448:
.L1193:
.LBE8071:
.LBE8070:
.LBE8069:
.LBE8068:
.LBE8067:
.LBE8066:
.LBE8035:
.LBE8034:
.LBE8033:
.LBB8075:
.LBB7969:
.LBB7964:
.LBB7854:
.LBB7675:
	.loc 9 172 0
	lwz 9,44(1)
	.loc 9 166 0
	li 31,0
	b .L987
.LVL1449:
.L1176:
.LBE7675:
.LBE7854:
.LBE7964:
.LBE7969:
.LBB7970:
.LBB7552:
.LBB7550:
.LBB7548:
.LBB7545:
.LBB7537:
.LBB7538:
.LBB7539:
	.loc 5 66 0
	lwz 11,-4(9)
.LVL1450:
.LBE7539:
.LBE7538:
.LBE7537:
	.loc 3 240 0
	cmpwi 7,11,0
.LBB7542:
.LBB7541:
.LBB7540:
	.loc 5 67 0
	addi 11,11,-1
	stw 11,-4(9)
.LBE7540:
.LBE7541:
.LBE7542:
	.loc 3 240 0
	bgt+ 7,.L975
	.loc 3 244 0
	addi 4,1,29
	bl _ZNSs4_Rep10_M_destroyERKSaIcE
.LVL1451:
	b .L975
.LVL1452:
.L964:
.LBE7545:
.LBE7548:
.LBE7550:
.LBE7552:
.LBE7970:
.LBE8075:
.LBB8076:
.LBB7520:
	.loc 3 912 0
	lis 3,.LC3@ha
	la 3,.LC3@l(3)
	bl _ZSt20__throw_out_of_rangePKc
.LEHE144:
.LVL1453:
.L1157:
	mr 31,3
.LVL1454:
.L1114:
.LBE7520:
.LBE8076:
.LBB8077:
.LBB7971:
.LBB7965:
.LBB7855:
.LBB7856:
.LBB7857:
.LBB7858:
.LBB7859:
.LBB7860:
	.loc 3 288 0
	lwz 9,56(1)
.LBE7860:
.LBE7859:
.LBE7858:
	.loc 3 534 0
	addi 3,9,-12
.LVL1455:
.LBB7861:
.LBB7862:
	.loc 3 235 0
	cmpw 7,3,26
	bne- 7,.L1196
.LVL1456:
.L1092:
.LBE7862:
.LBE7861:
.LBE7857:
.LBE7856:
.LBE7855:
.LBB7873:
.LBB7874:
.LBB7875:
.LBB7876:
.LBB7877:
.LBB7878:
	.loc 3 288 0
	lwz 9,64(1)
.LBE7878:
.LBE7877:
.LBE7876:
	.loc 3 534 0
	addi 3,9,-12
.LVL1457:
.LBB7879:
.LBB7880:
	.loc 3 235 0
	cmpw 7,3,26
	beq+ 7,.L1127
.LVL1458:
.LBB7881:
.LBB7882:
.LBB7883:
	.loc 5 66 0
	lwz 11,-4(9)
.LVL1459:
.LBE7883:
.LBE7882:
.LBE7881:
	.loc 3 240 0
	cmpwi 7,11,0
.LBB7886:
.LBB7885:
.LBB7884:
	.loc 5 67 0
	addi 11,11,-1
	stw 11,-4(9)
.LBE7884:
.LBE7885:
.LBE7886:
	.loc 3 240 0
	bgt+ 7,.L1127
	.loc 3 244 0
	addi 4,1,10
	bl _ZNSs4_Rep10_M_destroyERKSaIcE
.LVL1460:
	b .L1127
.LVL1461:
.L1189:
.LBE7880:
.LBE7879:
.LBE7875:
.LBE7874:
.LBE7873:
.LBB7887:
.LBB7799:
.LBB7798:
.LBB7797:
.LBB7796:
.LBB7790:
.LBB7791:
.LBB7792:
	.loc 5 66 0
	lwz 11,-4(9)
.LVL1462:
.LBE7792:
.LBE7791:
.LBE7790:
	.loc 3 240 0
	cmpwi 7,11,0
.LBB7795:
.LBB7794:
.LBB7793:
	.loc 5 67 0
	addi 11,11,-1
	stw 11,-4(9)
.LBE7793:
.LBE7794:
.LBE7795:
	.loc 3 240 0
	bgt+ 7,.L1051
	.loc 3 244 0
	addi 4,1,20
	bl _ZNSs4_Rep10_M_destroyERKSaIcE
.LVL1463:
	b .L1051
.LVL1464:
.L1196:
.LBE7796:
.LBE7797:
.LBE7798:
.LBE7799:
.LBE7887:
.LBB7888:
.LBB7872:
.LBB7871:
.LBB7870:
.LBB7869:
.LBB7863:
.LBB7864:
.LBB7865:
	.loc 5 66 0
	lwz 11,-4(9)
.LVL1465:
.LBE7865:
.LBE7864:
.LBE7863:
	.loc 3 240 0
	cmpwi 7,11,0
.LBB7868:
.LBB7867:
.LBB7866:
	.loc 5 67 0
	addi 11,11,-1
	stw 11,-4(9)
.LBE7866:
.LBE7867:
.LBE7868:
	.loc 3 240 0
	bgt+ 7,.L1092
	.loc 3 244 0
	addi 4,1,11
	bl _ZNSs4_Rep10_M_destroyERKSaIcE
.LVL1466:
	b .L1092
.LVL1467:
.L1188:
.LBE7869:
.LBE7870:
.LBE7871:
.LBE7872:
.LBE7888:
.LBB7889:
.LBB7781:
.LBB7780:
.LBB7779:
.LBB7778:
.LBB7772:
.LBB7773:
.LBB7774:
	.loc 5 66 0
	lwz 11,-4(9)
.LVL1468:
.LBE7774:
.LBE7773:
.LBE7772:
	.loc 3 240 0
	cmpwi 7,11,0
.LBB7777:
.LBB7776:
.LBB7775:
	.loc 5 67 0
	addi 11,11,-1
	stw 11,-4(9)
.LBE7775:
.LBE7776:
.LBE7777:
	.loc 3 240 0
	bgt+ 7,.L1045
	.loc 3 244 0
	addi 4,1,21
	bl _ZNSs4_Rep10_M_destroyERKSaIcE
.LVL1469:
	b .L1045
.LVL1470:
.L1187:
.LBE7778:
.LBE7779:
.LBE7780:
.LBE7781:
.LBE7889:
.LBE7965:
.LBE7971:
.LBE8077:
.LBB8078:
.LBB8031:
.LBB8030:
.LBB8023:
.LBB8022:
.LBB8021:
.LBB8020:
.LBB8019:
.LBB8018:
.LBB8017:
.LBB8016:
.LBB8015:
.LBB8014:
.LBB8008:
.LBB8009:
.LBB8010:
	.loc 5 66 0
	lwz 11,-4(9)
.LVL1471:
.LBE8010:
.LBE8009:
.LBE8008:
	.loc 3 240 0
	cmpwi 7,11,0
.LBB8013:
.LBB8012:
.LBB8011:
	.loc 5 67 0
	addi 11,11,-1
	stw 11,-4(9)
.LBE8011:
.LBE8012:
.LBE8013:
	.loc 3 240 0
	bgt+ 7,.L1072
	.loc 3 244 0
	addi 4,1,17
	bl _ZNSs4_Rep10_M_destroyERKSaIcE
.LVL1472:
	b .L1072
.LVL1473:
.L1186:
.LBE8014:
.LBE8015:
.LBE8016:
.LBE8017:
.LBE8018:
.LBE8019:
.LBE8020:
.LBE8021:
.LBE8022:
.LBE8023:
.LBE8030:
.LBE8031:
.LBE8078:
.LBB8079:
.LBB7972:
.LBB7966:
.LBB7890:
.LBB7750:
.LBB7748:
.LBB7746:
.LBB7745:
.LBB7739:
.LBB7740:
.LBB7741:
	.loc 5 66 0
	lwz 11,-4(9)
.LVL1474:
.LBE7741:
.LBE7740:
.LBE7739:
	.loc 3 240 0
	cmpwi 7,11,0
.LBB7744:
.LBB7743:
.LBB7742:
	.loc 5 67 0
	addi 11,11,-1
	stw 11,-4(9)
.LBE7742:
.LBE7743:
.LBE7744:
	.loc 3 240 0
	bgt+ 7,.L1058
	.loc 3 244 0
	addi 4,1,19
	bl _ZNSs4_Rep10_M_destroyERKSaIcE
.LVL1475:
	b .L1058
.LVL1476:
.L1184:
.LBE7745:
.LBE7746:
.LBE7748:
.LBE7750:
.LBE7890:
.LBB7891:
.LBB7730:
.LBB7729:
.LBB7728:
.LBB7727:
.LBB7721:
.LBB7722:
.LBB7723:
	.loc 5 66 0
	lwz 11,-4(9)
.LVL1477:
.LBE7723:
.LBE7722:
.LBE7721:
	.loc 3 240 0
	cmpwi 7,11,0
.LBB7726:
.LBB7725:
.LBB7724:
	.loc 5 67 0
	addi 11,11,-1
	stw 11,-4(9)
.LBE7724:
.LBE7725:
.LBE7726:
	.loc 3 240 0
	bgt+ 7,.L1039
	.loc 3 244 0
	addi 4,1,24
	bl _ZNSs4_Rep10_M_destroyERKSaIcE
.LVL1478:
	b .L1039
.LVL1479:
.L1183:
.LBE7727:
.LBE7728:
.LBE7729:
.LBE7730:
.LBE7891:
.LBB7892:
.LBB7711:
.LBB7709:
.LBB7707:
.LBB7706:
.LBB7700:
.LBB7701:
.LBB7702:
	.loc 5 66 0
	lwz 11,-4(9)
.LVL1480:
.LBE7702:
.LBE7701:
.LBE7700:
	.loc 3 240 0
	cmpwi 7,11,0
.LBB7705:
.LBB7704:
.LBB7703:
	.loc 5 67 0
	addi 11,11,-1
	stw 11,-4(9)
.LBE7703:
.LBE7704:
.LBE7705:
	.loc 3 240 0
	bgt+ 7,.L1019
	.loc 3 244 0
	addi 4,1,25
	bl _ZNSs4_Rep10_M_destroyERKSaIcE
.LVL1481:
	b .L1019
.LVL1482:
.L1160:
.LBE7706:
.LBE7707:
.LBE7709:
.LBE7711:
.LBE7892:
.LBB7893:
.LBB7894:
.LBB7895:
.LBB7896:
.LBB7897:
.LBB7898:
	.loc 3 288 0
	lwz 9,52(1)
	mr 31,3
.LVL1483:
.LBE7898:
.LBE7897:
.LBE7896:
	.loc 3 534 0
	addi 3,9,-12
.LVL1484:
.LBB7899:
.LBB7900:
	.loc 3 235 0
	cmpw 7,3,26
	bne- 7,.L1197
.LVL1485:
.L1100:
.LBE7900:
.LBE7899:
.LBE7895:
.LBE7894:
.LBE7893:
.LBB7911:
.LBB7912:
.LBB7913:
.LBB7914:
.LBB7915:
.LBB7916:
	.loc 3 288 0
	lwz 9,48(1)
.LBE7916:
.LBE7915:
.LBE7914:
	.loc 3 534 0
	addi 3,9,-12
.LVL1486:
.LBB7917:
.LBB7918:
	.loc 3 235 0
	cmpw 7,3,26
	beq+ 7,.L1092
.LVL1487:
.LBB7919:
.LBB7920:
.LBB7921:
	.loc 5 66 0
	lwz 11,-4(9)
.LVL1488:
.LBE7921:
.LBE7920:
.LBE7919:
	.loc 3 240 0
	cmpwi 7,11,0
.LBB7924:
.LBB7923:
.LBB7922:
	.loc 5 67 0
	addi 11,11,-1
	stw 11,-4(9)
.LBE7922:
.LBE7923:
.LBE7924:
	.loc 3 240 0
	bgt+ 7,.L1092
	.loc 3 244 0
	addi 4,1,13
	bl _ZNSs4_Rep10_M_destroyERKSaIcE
.LVL1489:
	b .L1092
.LVL1490:
.L1159:
	mr 31,3
	b .L1100
.LVL1491:
.L1182:
.LBE7918:
.LBE7917:
.LBE7913:
.LBE7912:
.LBE7911:
.LBB7925:
.LBB7691:
.LBB7690:
.LBB7689:
.LBB7688:
.LBB7682:
.LBB7683:
.LBB7684:
	.loc 5 66 0
	lwz 11,-4(9)
.LVL1492:
.LBE7684:
.LBE7683:
.LBE7682:
	.loc 3 240 0
	cmpwi 7,11,0
.LBB7687:
.LBB7686:
.LBB7685:
	.loc 5 67 0
	addi 11,11,-1
	stw 11,-4(9)
.LBE7685:
.LBE7686:
.LBE7687:
	.loc 3 240 0
	bgt+ 7,.L1012
	.loc 3 244 0
	addi 4,1,26
	bl _ZNSs4_Rep10_M_destroyERKSaIcE
.LVL1493:
	b .L1012
.LVL1494:
.L1197:
.LBE7688:
.LBE7689:
.LBE7690:
.LBE7691:
.LBE7925:
.LBB7926:
.LBB7910:
.LBB7909:
.LBB7908:
.LBB7907:
.LBB7901:
.LBB7902:
.LBB7903:
	.loc 5 66 0
	lwz 11,-4(9)
.LVL1495:
.LBE7903:
.LBE7902:
.LBE7901:
	.loc 3 240 0
	cmpwi 7,11,0
.LBB7906:
.LBB7905:
.LBB7904:
	.loc 5 67 0
	addi 11,11,-1
	stw 11,-4(9)
.LBE7904:
.LBE7905:
.LBE7906:
	.loc 3 240 0
	bgt+ 7,.L1100
	.loc 3 244 0
	addi 4,1,14
	bl _ZNSs4_Rep10_M_destroyERKSaIcE
.LVL1496:
	b .L1100
.LVL1497:
.L1180:
.LBE7907:
.LBE7908:
.LBE7909:
.LBE7910:
.LBE7926:
.LBB7927:
.LBB7612:
.LBB7611:
	.loc 6 719 0
	lis 3,.LC4@ha
	la 3,.LC4@l(3)
.LEHB145:
	bl _ZSt20__throw_out_of_rangePKc
.LEHE145:
.LVL1498:
.L1156:
	mr 31,3
	b .L1092
.LVL1499:
.L1178:
.LBE7611:
.LBE7612:
.LBE7927:
.LBB7928:
.LBB7581:
.LBB7578:
	lis 3,.LC4@ha
	la 3,.LC4@l(3)
.LEHB146:
	bl _ZSt20__throw_out_of_rangePKc
.LVL1500:
.L1177:
.LBE7578:
.LBE7581:
.LBE7928:
.LBB7929:
.LBB7570:
.LBB7567:
	lis 3,.LC4@ha
	la 3,.LC4@l(3)
	bl _ZSt20__throw_out_of_rangePKc
.LEHE146:
.LVL1501:
.L1192:
.LBE7567:
.LBE7570:
.LBE7929:
.LBB7930:
.LBB7676:
.LBB7672:
.LBB7669:
.LBB7668:
.LBB7667:
.LBB7666:
.LBB7660:
.LBB7661:
.LBB7662:
	.loc 5 66 0
	lwz 11,-4(9)
.LVL1502:
.LBE7662:
.LBE7661:
.LBE7660:
	.loc 3 240 0
	cmpwi 7,11,0
.LBB7665:
.LBB7664:
.LBB7663:
	.loc 5 67 0
	addi 11,11,-1
	stw 11,-4(9)
.LBE7663:
.LBE7664:
.LBE7665:
	.loc 3 240 0
	bgt+ 7,.L1002
	.loc 3 244 0
	addi 4,1,27
	bl _ZNSs4_Rep10_M_destroyERKSaIcE
.LVL1503:
	b .L1002
.LVL1504:
.L1191:
.LBE7666:
.LBE7667:
.LBE7668:
.LBE7669:
.LBE7672:
.LBB7673:
.LBB7651:
.LBB7650:
.LBB7647:
.LBB7645:
.LBB7643:
.LBB7642:
.LBB7636:
.LBB7637:
.LBB7638:
	.loc 5 66 0
	lwz 11,-4(9)
.LVL1505:
.LBE7638:
.LBE7637:
.LBE7636:
	.loc 3 240 0
	cmpwi 7,11,0
.LBB7641:
.LBB7640:
.LBB7639:
	.loc 5 67 0
	addi 11,11,-1
	stw 11,-4(9)
.LBE7639:
.LBE7640:
.LBE7641:
	.loc 3 240 0
	bgt+ 7,.L993
	.loc 3 244 0
	addi 4,1,28
	bl _ZNSs4_Rep10_M_destroyERKSaIcE
.LVL1506:
	b .L993
.LVL1507:
.L1164:
	mr 31,3
.LBE7642:
.LBE7643:
.LBE7645:
.LBE7647:
.LBE7650:
	.loc 9 81 0
	addi 3,1,32
.LVL1508:
	bl _ZNSsD1Ev
.LVL1509:
.L997:
.LBE7651:
.LBE7673:
	.loc 9 171 0
	addi 3,1,36
.LVL1510:
	bl _ZNSsD1Ev
.LVL1511:
.L1007:
.LBE7676:
.LBE7930:
.LBB7931:
.LBB7932:
.LBB7933:
.LBB7934:
.LBB7935:
.LBB7936:
	.loc 3 288 0
	lwz 9,44(1)
.LBE7936:
.LBE7935:
.LBE7934:
	.loc 3 534 0
	addi 3,9,-12
.LVL1512:
.LBB7937:
.LBB7938:
	.loc 3 235 0
	cmpw 7,3,26
	beq+ 7,.L1092
.LVL1513:
.LBB7939:
.LBB7940:
.LBB7941:
	.loc 5 66 0
	lwz 11,-4(9)
.LVL1514:
.LBE7941:
.LBE7940:
.LBE7939:
	.loc 3 240 0
	cmpwi 7,11,0
.LBB7944:
.LBB7943:
.LBB7942:
	.loc 5 67 0
	addi 11,11,-1
	stw 11,-4(9)
.LBE7942:
.LBE7943:
.LBE7944:
	.loc 3 240 0
	bgt+ 7,.L1092
	.loc 3 244 0
	addi 4,1,15
	bl _ZNSs4_Rep10_M_destroyERKSaIcE
.LVL1515:
	b .L1092
.LVL1516:
.L1163:
	mr 31,3
	b .L997
.LVL1517:
.L1161:
	mr 31,3
	b .L1007
.LVL1518:
.L1190:
.LBE7938:
.LBE7937:
.LBE7933:
.LBE7932:
.LBE7931:
.LBB7945:
.LBB7819:
.LBB7817:
.LBB7815:
.LBB7814:
.LBB7808:
.LBB7809:
.LBB7810:
	.loc 5 66 0
	lwz 11,-4(9)
.LVL1519:
.LBE7810:
.LBE7809:
.LBE7808:
	.loc 3 240 0
	cmpwi 7,11,0
.LBB7813:
.LBB7812:
.LBB7811:
	.loc 5 67 0
	addi 11,11,-1
	stw 11,-4(9)
.LBE7811:
.LBE7812:
.LBE7813:
	.loc 3 240 0
	bgt+ 7,.L1033
	.loc 3 244 0
	addi 4,1,23
	bl _ZNSs4_Rep10_M_destroyERKSaIcE
.LVL1520:
	b .L1033
.LVL1521:
.L1158:
.LBE7814:
.LBE7815:
.LBE7817:
.LBE7819:
.LBE7945:
.LBB7946:
.LBB7947:
.LBB7948:
.LBB7949:
.LBB7950:
.LBB7951:
	.loc 3 288 0
	lwz 9,60(1)
	mr 31,3
.LVL1522:
.LBE7951:
.LBE7950:
.LBE7949:
	.loc 3 534 0
	addi 3,9,-12
.LVL1523:
.LBB7952:
.LBB7953:
	.loc 3 235 0
	cmpw 7,3,26
	beq+ 7,.L1114
.LVL1524:
.LBB7954:
.LBB7955:
.LBB7956:
	.loc 5 66 0
	lwz 11,-4(9)
.LVL1525:
.LBE7956:
.LBE7955:
.LBE7954:
	.loc 3 240 0
	cmpwi 7,11,0
.LBB7959:
.LBB7958:
.LBB7957:
	.loc 5 67 0
	addi 11,11,-1
	stw 11,-4(9)
.LBE7957:
.LBE7958:
.LBE7959:
	.loc 3 240 0
	bgt+ 7,.L1114
	.loc 3 244 0
	addi 4,1,12
	bl _ZNSs4_Rep10_M_destroyERKSaIcE
.LVL1526:
	b .L1114
.LVL1527:
.L1195:
.LBE7953:
.LBE7952:
.LBE7948:
.LBE7947:
.LBE7946:
.LBE7966:
.LBE7972:
.LBE8079:
.LBB8080:
.LBB8074:
.LBB8073:
.LBB8072:
.LBB8065:
.LBB8064:
.LBB8063:
.LBB8062:
.LBB8061:
.LBB8060:
.LBB8059:
.LBB8058:
.LBB8057:
.LBB8056:
.LBB8050:
.LBB8051:
.LBB8052:
	.loc 5 66 0
	lwz 11,-4(9)
.LVL1528:
.LBE8052:
.LBE8051:
.LBE8050:
	.loc 3 240 0
	cmpwi 7,11,0
.LBB8055:
.LBB8054:
.LBB8053:
	.loc 5 67 0
	addi 11,11,-1
	stw 11,-4(9)
.LBE8053:
.LBE8054:
.LBE8055:
	.loc 3 240 0
	bgt+ 7,.L1140
	.loc 3 244 0
	addi 4,1,8
	bl _ZNSs4_Rep10_M_destroyERKSaIcE
.LVL1529:
	b .L1140
.LVL1530:
.L1194:
.LBE8056:
.LBE8057:
.LBE8058:
.LBE8059:
.LBE8060:
.LBE8061:
.LBE8062:
.LBE8063:
.LBE8064:
.LBE8065:
.LBE8072:
.LBE8073:
.LBE8074:
.LBE8080:
.LBB8081:
.LBB7973:
.LBB7967:
.LBB7960:
.LBB7853:
.LBB7852:
.LBB7851:
.LBB7850:
.LBB7844:
.LBB7845:
.LBB7846:
	.loc 5 66 0
	lwz 11,-4(9)
.LVL1531:
.LBE7846:
.LBE7845:
.LBE7844:
	.loc 3 240 0
	cmpwi 7,11,0
.LBB7849:
.LBB7848:
.LBB7847:
	.loc 5 67 0
	addi 11,11,-1
	stw 11,-4(9)
.LBE7847:
.LBE7848:
.LBE7849:
	.loc 3 240 0
	bgt+ 7,.L1133
	.loc 3 244 0
	addi 4,1,9
	bl _ZNSs4_Rep10_M_destroyERKSaIcE
.LVL1532:
	b .L1133
.LVL1533:
.L1154:
	mr 30,3
	b .L1085
.LVL1534:
.L1162:
.LBE7850:
.LBE7851:
.LBE7852:
.LBE7853:
.LBE7960:
.LBE7967:
.LBE7973:
.LBB7974:
.LBB7975:
.LBB7976:
.LBB7977:
.LBB7978:
.LBB7979:
	.loc 3 288 0
	lwz 9,40(1)
.LBE7979:
.LBE7978:
.LBE7977:
.LBB7980:
.LBB7981:
	.loc 3 235 0
	lis 26,_ZNSs4_Rep20_S_empty_rep_storageE@ha
	la 26,_ZNSs4_Rep20_S_empty_rep_storageE@l(26)
	mr 30,3
.LVL1535:
.LBE7981:
.LBE7980:
	.loc 3 534 0
	addi 0,9,-12
.LVL1536:
.LBB7989:
.LBB7988:
	.loc 3 235 0
	cmpw 7,0,26
	beq+ 7,.L1085
.LVL1537:
.LBB7982:
.LBB7983:
.LBB7984:
	.loc 5 66 0
	lwz 11,-4(9)
.LVL1538:
.LBE7984:
.LBE7983:
.LBE7982:
	.loc 3 240 0
	cmpwi 7,11,0
.LBB7987:
.LBB7986:
.LBB7985:
	.loc 5 67 0
	addi 11,11,-1
	stw 11,-4(9)
.LBE7985:
.LBE7986:
.LBE7987:
	.loc 3 240 0
	bgt+ 7,.L1085
	.loc 3 244 0
	mr 3,0
	addi 4,1,16
	bl _ZNSs4_Rep10_M_destroyERKSaIcE
.LVL1539:
	b .L1085
.LVL1540:
.L1173:
.LBE7988:
.LBE7989:
.LBE7976:
.LBE7975:
.LBE7974:
.LBE8081:
.LBB8082:
.LBB7508:
.LBB7507:
.LBB7506:
	.loc 3 319 0
	lis 3,.LC1@ha
	la 3,.LC1@l(3)
.LEHB147:
	bl _ZSt20__throw_out_of_rangePKc
.LEHE147:
.LVL1541:
.LBE7506:
.LBE7507:
.LBE7508:
.LBE8082:
.LBE8086:
	.cfi_endproc
.LFE1254:
	.section	.gcc_except_table
.LLSDA1254:
	.byte	0xff
	.byte	0xff
	.byte	0x1
	.uleb128 .LLSDACSE1254-.LLSDACSB1254
.LLSDACSB1254:
	.uleb128 .LEHB128-.LFB1254
	.uleb128 .LEHE128-.LEHB128
	.uleb128 0
	.uleb128 0
	.uleb128 .LEHB129-.LFB1254
	.uleb128 .LEHE129-.LEHB129
	.uleb128 .L1154-.LFB1254
	.uleb128 0
	.uleb128 .LEHB130-.LFB1254
	.uleb128 .LEHE130-.LEHB130
	.uleb128 .L1162-.LFB1254
	.uleb128 0
	.uleb128 .LEHB131-.LFB1254
	.uleb128 .LEHE131-.LEHB131
	.uleb128 .L1154-.LFB1254
	.uleb128 0
	.uleb128 .LEHB132-.LFB1254
	.uleb128 .LEHE132-.LEHB132
	.uleb128 .L1155-.LFB1254
	.uleb128 0
	.uleb128 .LEHB133-.LFB1254
	.uleb128 .LEHE133-.LEHB133
	.uleb128 .L1156-.LFB1254
	.uleb128 0
	.uleb128 .LEHB134-.LFB1254
	.uleb128 .LEHE134-.LEHB134
	.uleb128 .L1159-.LFB1254
	.uleb128 0
	.uleb128 .LEHB135-.LFB1254
	.uleb128 .LEHE135-.LEHB135
	.uleb128 .L1160-.LFB1254
	.uleb128 0
	.uleb128 .LEHB136-.LFB1254
	.uleb128 .LEHE136-.LEHB136
	.uleb128 .L1155-.LFB1254
	.uleb128 0
	.uleb128 .LEHB137-.LFB1254
	.uleb128 .LEHE137-.LEHB137
	.uleb128 .L1156-.LFB1254
	.uleb128 0
	.uleb128 .LEHB138-.LFB1254
	.uleb128 .LEHE138-.LEHB138
	.uleb128 .L1157-.LFB1254
	.uleb128 0
	.uleb128 .LEHB139-.LFB1254
	.uleb128 .LEHE139-.LEHB139
	.uleb128 .L1158-.LFB1254
	.uleb128 0
	.uleb128 .LEHB140-.LFB1254
	.uleb128 .LEHE140-.LEHB140
	.uleb128 .L1161-.LFB1254
	.uleb128 0
	.uleb128 .LEHB141-.LFB1254
	.uleb128 .LEHE141-.LEHB141
	.uleb128 .L1163-.LFB1254
	.uleb128 0
	.uleb128 .LEHB142-.LFB1254
	.uleb128 .LEHE142-.LEHB142
	.uleb128 .L1164-.LFB1254
	.uleb128 0
	.uleb128 .LEHB143-.LFB1254
	.uleb128 .LEHE143-.LEHB143
	.uleb128 .L1161-.LFB1254
	.uleb128 0
	.uleb128 .LEHB144-.LFB1254
	.uleb128 .LEHE144-.LEHB144
	.uleb128 0
	.uleb128 0
	.uleb128 .LEHB145-.LFB1254
	.uleb128 .LEHE145-.LEHB145
	.uleb128 .L1156-.LFB1254
	.uleb128 0
	.uleb128 .LEHB146-.LFB1254
	.uleb128 .LEHE146-.LEHB146
	.uleb128 .L1155-.LFB1254
	.uleb128 0
	.uleb128 .LEHB147-.LFB1254
	.uleb128 .LEHE147-.LEHB147
	.uleb128 0
	.uleb128 0
.LLSDACSE1254:
	.section	".text"
	.size	_ZN4Nand10ExtractDirESsSs.constprop.47, .-_ZN4Nand10ExtractDirESsSs.constprop.47
	.align 2
	.globl _ZN4Nand10ExtractDirESsSs
	.type	_ZN4Nand10ExtractDirESsSs, @function
_ZN4Nand10ExtractDirESsSs:
.LFB1047:
	.loc 9 362 0
	.cfi_startproc
	.cfi_personality 0,__gxx_personality_v0
	.cfi_lsda 0,.LLSDA1047
.LVL1542:
	mflr 0
	stwu 1,-136(1)
.LCFI123:
	.cfi_def_cfa_offset 136
	.cfi_register 65, 0
	stw 31,132(1)
	stw 0,140(1)
	stw 24,104(1)
	mr 24,3
	.cfi_offset 24, -32
	.cfi_offset 65, 4
	.cfi_offset 31, -4
.LVL1543:
.LBB8795:
.LBB8796:
.LBB8797:
.LBB8798:
.LBB8799:
.LBB8800:
.LBB8801:
	.loc 3 288 0
	lwz 9,0(3)
.LBE8801:
.LBE8800:
.LBE8799:
.LBE8798:
.LBE8797:
.LBE8796:
.LBE8795:
	.loc 9 362 0
	stw 25,108(1)
	mr 25,4
	.cfi_offset 25, -28
.LBB9408:
.LBB8804:
.LBB8803:
.LBB8802:
	.loc 3 711 0
	lwz 31,-12(9)
.LBE8802:
.LBE8803:
.LBE8804:
.LBE9408:
	.loc 9 362 0
	stw 29,124(1)
.LBB9409:
	.loc 9 366 0
	li 29,0
	.cfi_offset 29, -12
	.loc 9 365 0
	cmpwi 7,31,0
.LBE9409:
	.loc 9 362 0
	stw 20,88(1)
	stw 21,92(1)
	stw 22,96(1)
	stw 23,100(1)
	stw 26,112(1)
	stw 27,116(1)
	stw 28,120(1)
	stw 30,128(1)
.LBB9410:
	.loc 9 365 0
	beq- 7,.L1319
	.cfi_offset 30, -8
	.cfi_offset 28, -16
	.cfi_offset 27, -20
	.cfi_offset 26, -24
	.cfi_offset 23, -36
	.cfi_offset 22, -40
	.cfi_offset 21, -44
	.cfi_offset 20, -48
.LVL1544:
.LBB8805:
.LBB8806:
.LBB8807:
	.loc 3 711 0
	lwz 11,0(4)
.LBE8807:
.LBE8806:
.LBE8805:
	.loc 9 365 0
	lwz 0,-12(11)
	cmpwi 7,0,0
	beq- 7,.L1319
.LVL1545:
.LBB8808:
.LBB8809:
	.loc 3 911 0 discriminator 1
	cmpwi 7,31,0
	addi 31,31,-1
	beq- 7,.L1206
	.loc 3 911 0 is_stmt 0
	mr 11,9
	b .L1203
.LVL1546:
.L1205:
.LBE8809:
.LBE8808:
.LBB8813:
.LBB8814:
	.loc 3 711 0 is_stmt 1
	lwz 9,-12(11)
.LBE8814:
.LBE8813:
	.loc 9 369 0
	addi 4,9,-1
.LVL1547:
.LBB8815:
.LBB8816:
.LBB8817:
.LBB8818:
	.loc 3 318 0
	cmplw 7,4,9
	bgt- 7,.L1415
.LVL1548:
.LBE8818:
.LBE8817:
	.loc 3 1349 0
	mr 3,24
	li 5,1
	li 6,0
.LEHB148:
	bl _ZNSs9_M_mutateEjjj
.LVL1549:
.LBE8816:
.LBE8815:
.LBB8819:
.LBB8820:
.LBB8821:
.LBB8822:
.LBB8823:
	.loc 3 288 0
	lwz 11,0(24)
.LBE8823:
.LBE8822:
.LBE8821:
	.loc 3 711 0
	lwz 31,-12(11)
.LVL1550:
.LBE8820:
.LBE8819:
.LBB8824:
.LBB8812:
	.loc 3 911 0
	cmpwi 7,31,0
	addi 31,31,-1
	beq- 7,.L1206
	mr 9,11
.LVL1551:
.L1203:
.LBB8810:
.LBB8811:
	.loc 3 311 0
	lwz 0,-4(9)
	cmpwi 7,0,0
	blt- 7,.L1204
	.loc 3 312 0
	mr 3,24
	bl _ZNSs12_M_leak_hardEv
	lwz 11,0(24)
.L1204:
.LBE8811:
.LBE8810:
.LBE8812:
.LBE8824:
	.loc 9 368 0
	lbzx 0,11,31
	cmpwi 7,0,47
	beq+ 7,.L1205
	b .L1417
.LVL1552:
.L1211:
.LBB8825:
.LBB8826:
	.loc 3 711 0
	lwz 9,-12(11)
.LBE8826:
.LBE8825:
	.loc 9 371 0
	addi 4,9,-1
.LVL1553:
.LBB8827:
.LBB8828:
.LBB8829:
.LBB8830:
	.loc 3 318 0
	cmplw 7,4,9
	bgt- 7,.L1415
.LVL1554:
.LBE8830:
.LBE8829:
	.loc 3 1349 0
	mr 3,25
	li 5,1
	li 6,0
	bl _ZNSs9_M_mutateEjjj
.LVL1555:
.L1417:
.LBE8828:
.LBE8827:
.LBB8834:
.LBB8835:
.LBB8836:
.LBB8837:
.LBB8838:
	.loc 3 288 0
	lwz 9,0(25)
.LBE8838:
.LBE8837:
.LBE8836:
	.loc 3 711 0
	lwz 31,-12(9)
.LVL1556:
.LBE8835:
.LBE8834:
.LBB8839:
.LBB8840:
	.loc 3 911 0
	cmpwi 7,31,0
	addi 31,31,-1
	beq- 7,.L1206
.LBB8841:
.LBB8842:
	.loc 3 311 0
	lwz 0,-4(9)
.LBE8842:
.LBE8841:
	.loc 3 911 0
	mr 11,9
.LVL1557:
.LBB8844:
.LBB8843:
	.loc 3 311 0
	cmpwi 7,0,0
	blt- 7,.L1210
	.loc 3 312 0
	mr 3,25
	bl _ZNSs12_M_leak_hardEv
.LEHE148:
.LVL1558:
	lwz 11,0(25)
.L1210:
.LBE8843:
.LBE8844:
.LBE8840:
.LBE8839:
	.loc 9 370 0
	lbzx 0,11,31
	cmpwi 7,0,47
	beq+ 7,.L1211
.LVL1559:
.LBB8846:
.LBB8847:
.LBB8848:
.LBB8849:
	.loc 6 83 0
	li 0,0
.LBE8849:
.LBE8848:
.LBE8847:
.LBE8846:
.LBB8853:
	.loc 9 374 0
	addi 3,1,68
	mr 4,24
.LBE8853:
.LBB9315:
.LBB8852:
.LBB8851:
.LBB8850:
	.loc 6 83 0
	stw 0,72(1)
	stw 0,76(1)
	stw 0,80(1)
.LEHB149:
.LBE8850:
.LBE8851:
.LBE8852:
.LBE9315:
.LBB9316:
	.loc 9 374 0
	bl _ZNSsC1ERKSs
.LEHE149:
	.loc 9 374 0 is_stmt 0 discriminator 1
	addi 3,1,68
	addi 4,1,72
.LEHB150:
	bl _ZN4Nand7ReadDirESsRSt6vectorISsSaISsEE.constprop.46
.LEHE150:
.LBB8854:
.LBB8855:
.LBB8856:
.LBB8857:
.LBB8858:
.LBB8859:
	.loc 3 288 0 is_stmt 1 discriminator 1
	lwz 9,68(1)
.LBE8859:
.LBE8858:
.LBE8857:
.LBB8860:
.LBB8861:
	.loc 3 235 0 discriminator 1
	lis 26,_ZNSs4_Rep20_S_empty_rep_storageE@ha
.LBE8861:
.LBE8860:
.LBE8856:
.LBE8855:
.LBE8854:
	.loc 9 374 0 discriminator 1
	mr 31,3
.LVL1560:
.LBB8878:
.LBB8876:
.LBB8874:
.LBB8871:
.LBB8868:
	.loc 3 235 0 discriminator 1
	la 26,_ZNSs4_Rep20_S_empty_rep_storageE@l(26)
.LBE8868:
.LBE8871:
	.loc 3 534 0 discriminator 1
	addi 3,9,-12
.LVL1561:
.LBB8872:
.LBB8869:
	.loc 3 235 0 discriminator 1
	cmpw 7,3,26
	bne- 7,.L1418
.LVL1562:
.L1217:
.LBE8869:
.LBE8872:
.LBE8874:
.LBE8876:
.LBE8878:
	.loc 9 374 0 discriminator 2
	cmpwi 7,31,0
	.loc 9 377 0 discriminator 2
	lwz 30,76(1)
	lwz 31,72(1)
	.loc 9 374 0 discriminator 2
	bne- 7,.L1414
.LVL1563:
.LBB8879:
.LBB8880:
.LBB8881:
	.loc 6 571 0 discriminator 1
	subf 0,31,30
.LBE8881:
.LBE8880:
	.loc 9 377 0 discriminator 1
	srwi. 9,0,2
	beq- 0,.L1394
	.loc 9 377 0 is_stmt 0
	li 23,0
	li 22,0
.LVL1564:
.L1294:
.LBB8883:
	.loc 9 379 0 is_stmt 1
	addi 3,1,64
	mr 4,24
.LEHB151:
	bl _ZNSsC1ERKSs
.LEHE151:
.LVL1565:
.LBB8884:
.LBB8885:
.LBB8886:
	.loc 3 1000 0
	lis 20,.LC0@ha
	addi 3,1,64
.LVL1566:
	la 20,.LC0@l(20)
	li 5,1
	mr 4,20
.LEHB152:
	bl _ZNSs6appendEPKcj
.LVL1567:
.LBE8886:
.LBE8885:
.LBE8884:
.LBB8887:
.LBB8888:
	.loc 9 405 0
	lwz 4,72(1)
.LBB8889:
.LBB8890:
.LBB8891:
	.loc 6 571 0
	lwz 0,76(1)
	subf 0,4,0
	srawi 0,0,2
.LBE8891:
.LBE8890:
	.loc 6 718 0
	cmplw 7,23,0
	bge- 7,.L1419
.LVL1568:
.LBE8889:
.LBE8888:
.LBB8893:
.LBB8894:
	.loc 6 696 0
	slwi 21,23,2
.LVL1569:
.LBE8894:
.LBE8893:
.LBE8887:
.LBB8896:
.LBB8897:
	.loc 3 925 0
	addi 3,1,64
.LVL1570:
	add 4,4,21
	bl _ZNSs6appendERKSs
.LVL1571:
.LBE8897:
.LBE8896:
.LBB8898:
.LBB8899:
	.loc 9 405 0
	lwz 30,72(1)
.LBB8900:
.LBB8901:
.LBB8902:
	.loc 6 571 0
	lwz 0,76(1)
	subf 0,30,0
	srawi 0,0,2
.LBE8902:
.LBE8901:
	.loc 6 718 0
	cmplw 7,23,0
	bge- 7,.L1420
.LBE8900:
.LBE8899:
.LBB8904:
.LBB8905:
	.loc 6 696 0
	lis 27,.LANCHOR0@ha
	.loc 9 315 0
	lis 29,.LC5@ha
	.loc 6 696 0
	la 27,.LANCHOR0@l(27)
	add 30,30,21
.LVL1572:
	addi 27,27,4
	.loc 9 315 0
	la 29,.LC5@l(29)
.LVL1573:
.L1222:
.LBE8905:
.LBE8904:
.LBE8898:
.LBB8907:
.LBB8908:
.LBB8909:
	lbz 28,0(27)
	b .L1227
.LVL1574:
.L1225:
.LBB8910:
.LBB8911:
.LBB8912:
.LBB8913:
.LBB8914:
.LBB8915:
	.loc 3 711 0
	lwz 9,0(30)
	lwz 5,-12(9)
.LBE8915:
.LBE8914:
	.loc 3 318 0
	cmplw 7,31,5
	bgt- 7,.L1421
.LVL1575:
.LBE8913:
.LBE8912:
	.loc 3 1349 0
	subf. 5,31,5
	beq- 0,.L1224
	li 5,1
.LVL1576:
.L1224:
	mr 3,30
.LVL1577:
	mr 4,31
	li 6,0
	bl _ZNSs9_M_mutateEjjj
.LVL1578:
.LBE8911:
.LBE8910:
.LBB8919:
.LBB8920:
.LBB8921:
.LBB8922:
	.loc 4 261 0
	mr 3,29
	bl strlen
.LBE8922:
.LBE8921:
	.loc 3 1286 0
	mr 4,31
.LBB8924:
.LBB8923:
	.loc 4 261 0
	mr 6,3
.LBE8923:
.LBE8924:
	.loc 3 1286 0
	mr 5,29
	mr 3,30
	bl _ZNSs6insertEjPKcj
.LVL1579:
.L1227:
.LBE8920:
.LBE8919:
	.loc 9 317 0
	mr 3,30
	mr 4,28
	li 5,0
	bl _ZNKSs4findEcj
	cmpwi 7,3,-1
	mr 31,3
.LVL1580:
	bne+ 7,.L1225
	addi 27,27,8
	.loc 9 315 0
	lwz 29,-4(27)
	cmpwi 7,29,0
	bne+ 7,.L1222
.LBE8909:
.LBE8908:
.LBE8907:
	.loc 9 384 0
	addi 3,1,60
.LVL1581:
	mr 4,25
	bl _ZNSsC1ERKSs
.LEHE152:
.LVL1582:
.LBB8928:
.LBB8929:
.LBB8930:
	.loc 3 1000 0
	addi 3,1,60
.LVL1583:
	mr 4,20
	li 5,1
.LEHB153:
	bl _ZNSs6appendEPKcj
.LVL1584:
.LBE8930:
.LBE8929:
.LBE8928:
.LBB8931:
.LBB8932:
	.loc 9 405 0
	lwz 4,72(1)
.LBB8933:
.LBB8934:
.LBB8935:
	.loc 6 571 0
	lwz 0,76(1)
	subf 0,4,0
	srawi 0,0,2
.LBE8935:
.LBE8934:
	.loc 6 718 0
	cmplw 7,23,0
	bge- 7,.L1422
.LVL1585:
.LBE8933:
.LBE8932:
.LBE8931:
.LBB8938:
.LBB8939:
	.loc 3 925 0
	addi 3,1,60
.LVL1586:
	add 4,4,21
	bl _ZNSs6appendERKSs
.LVL1587:
.LBE8939:
.LBE8938:
	.loc 9 388 0
	addi 3,1,56
	addi 4,1,64
.LVL1588:
	bl _ZNSsC1ERKSs
.LVL1589:
.LBB8940:
.LBB8941:
.LBB8942:
.LBB8943:
.LBB8944:
.LBB8945:
.LBB8946:
.LBB8947:
	.loc 3 288 0 discriminator 1
	lwz 9,56(1)
.LBE8947:
.LBE8946:
.LBE8945:
.LBE8944:
.LBE8943:
.LBE8942:
	.loc 9 169 0 discriminator 1
	li 31,0
.LVL1590:
	.loc 9 168 0 discriminator 1
	lwz 0,-12(9)
	cmpwi 7,0,0
	bne- 7,.L1423
.LVL1591:
.L1229:
.LBE8941:
.LBE8940:
.LBB9002:
.LBB9003:
.LBB9004:
	.loc 3 534 0
	addi 3,9,-12
.LVL1592:
.LBB9005:
.LBB9006:
	.loc 3 235 0
	cmpw 7,3,26
	bne- 7,.L1424
.LVL1593:
.L1254:
.LBE9006:
.LBE9005:
.LBE9004:
.LBE9003:
.LBE9002:
	.loc 9 388 0 discriminator 1
	cmpwi 7,31,0
	beq- 7,.L1255
	.loc 9 390 0
	addi 3,1,52
	addi 4,1,64
.LVL1594:
	bl _ZNSsC1ERKSs
.LEHE153:
.LVL1595:
	.loc 9 390 0 is_stmt 0 discriminator 1
	addi 3,1,48
	addi 4,1,60
.LVL1596:
.LEHB154:
	bl _ZNSsC1ERKSs
.LEHE154:
.LVL1597:
	.loc 9 390 0 discriminator 2
	addi 3,1,52
	addi 4,1,48
.LEHB155:
	bl _ZN4Nand11ExtractFileESsSs.constprop.45
.LEHE155:
.LBB9017:
.LBB9018:
.LBB9019:
.LBB9020:
.LBB9021:
.LBB9022:
	.loc 3 288 0 is_stmt 1 discriminator 2
	lwz 9,48(1)
.LBE9022:
.LBE9021:
.LBE9020:
.LBE9019:
.LBE9018:
.LBE9017:
	.loc 9 390 0 discriminator 2
	mr 31,3
.LVL1598:
.LBB9037:
.LBB9035:
.LBB9033:
	.loc 3 534 0 discriminator 2
	addi 3,9,-12
.LVL1599:
.LBB9023:
.LBB9024:
	.loc 3 235 0 discriminator 2
	cmpw 7,3,26
	bne- 7,.L1425
.LVL1600:
.L1261:
.LBE9024:
.LBE9023:
.LBE9033:
.LBE9035:
.LBE9037:
.LBB9038:
.LBB9039:
.LBB9040:
.LBB9041:
.LBB9042:
.LBB9043:
	.loc 3 288 0
	lwz 9,52(1)
.LBE9043:
.LBE9042:
.LBE9041:
	.loc 3 534 0
	addi 3,9,-12
.LVL1601:
.LBB9044:
.LBB9045:
	.loc 3 235 0
	cmpw 7,3,26
	bne- 7,.L1426
.LVL1602:
.L1281:
.LBE9045:
.LBE9044:
.LBE9040:
.LBE9039:
.LBE9038:
	.loc 9 395 0 discriminator 3
	cmpwi 7,31,0
.LBB9056:
.LBB9057:
.LBB9058:
.LBB9059:
.LBB9060:
.LBB9061:
	.loc 3 288 0 discriminator 3
	lwz 9,60(1)
.LBE9061:
.LBE9060:
.LBE9059:
	.loc 3 534 0 discriminator 3
	addi 3,9,-12
.LBE9058:
.LBE9057:
.LBE9056:
	.loc 9 395 0 discriminator 3
	bne- 7,.L1427
.LVL1603:
.LBB9076:
.LBB9074:
.LBB9072:
.LBB9062:
.LBB9063:
	.loc 3 235 0
	cmpw 7,3,26
	bne- 7,.L1428
.LVL1604:
.L1300:
.LBE9063:
.LBE9062:
.LBE9072:
.LBE9074:
.LBE9076:
.LBB9077:
.LBB9078:
.LBB9079:
.LBB9080:
.LBB9081:
.LBB9082:
	.loc 3 288 0
	lwz 9,64(1)
.LBE9082:
.LBE9081:
.LBE9080:
	.loc 3 534 0
	addi 3,9,-12
.LVL1605:
.LBB9083:
.LBB9084:
	.loc 3 235 0
	cmpw 7,3,26
	bne- 7,.L1301
	lwz 31,72(1)
	li 29,0
	lwz 30,76(1)
	b .L1307
.L1301:
.LVL1606:
.LBB9085:
.LBB9086:
.LBB9087:
	.loc 5 66 0
	lwz 11,-4(9)
.LVL1607:
.LBE9087:
.LBE9086:
.LBE9085:
	.loc 3 240 0
	cmpwi 7,11,0
.LBB9090:
.LBB9089:
.LBB9088:
	.loc 5 67 0
	addi 11,11,-1
	stw 11,-4(9)
.LBE9088:
.LBE9089:
.LBE9090:
	.loc 3 240 0
	bgt+ 7,.L1413
	.loc 3 244 0
	addi 4,1,18
	bl _ZNSs4_Rep10_M_destroyERKSaIcE
.LVL1608:
.L1413:
	lwz 31,72(1)
	lwz 30,76(1)
.LVL1609:
.L1414:
	li 29,0
.LVL1610:
.L1307:
.LBE9084:
.LBE9083:
.LBE9079:
.LBE9078:
.LBE9077:
.LBE8883:
.LBE8879:
.LBE9316:
.LBB9317:
.LBB9318:
.LBB9319:
.LBB9320:
.LBB9321:
.LBB9322:
.LBB9323:
	.loc 7 103 0
	cmpw 7,31,30
	beq- 7,.L1308
.LVL1611:
.L1407:
.LBB9324:
.LBB9325:
.LBB9326:
.LBB9327:
.LBB9328:
.LBB9329:
.LBB9330:
	.loc 3 288 0
	lwz 9,0(31)
.LBE9330:
.LBE9329:
.LBE9328:
	.loc 3 534 0
	addi 3,9,-12
.LVL1612:
.LBB9331:
.LBB9332:
	.loc 3 235 0
	cmpw 7,3,26
	bne- 7,.L1429
.LVL1613:
.L1314:
.LBE9332:
.LBE9331:
.LBE9327:
.LBE9326:
.LBE9325:
.LBE9324:
	.loc 7 103 0
	addi 31,31,4
.LVL1614:
	cmpw 7,31,30
	bne+ 7,.L1407
	lwz 31,72(1)
.LVL1615:
.L1308:
.LBE9323:
.LBE9322:
.LBE9321:
.LBE9320:
.LBE9319:
.LBB9349:
.LBB9350:
.LBB9351:
.LBB9352:
	.loc 6 155 0
	cmpwi 7,31,0
	beq- 7,.L1319
.LVL1616:
.LBB9353:
.LBB9354:
	.loc 8 98 0
	mr 3,31
	bl _ZdlPv
.LVL1617:
.L1319:
.LBE9354:
.LBE9353:
.LBE9352:
.LBE9351:
.LBE9350:
.LBE9349:
.LBE9318:
.LBE9317:
.LBE9410:
	.loc 9 405 0
	lwz 0,140(1)
	mr 3,29
	lwz 20,88(1)
	mtlr 0
	lwz 21,92(1)
	lwz 22,96(1)
	lwz 23,100(1)
	lwz 24,104(1)
.LVL1618:
	lwz 25,108(1)
.LVL1619:
	lwz 26,112(1)
	lwz 27,116(1)
	lwz 28,120(1)
	lwz 29,124(1)
	lwz 30,128(1)
	lwz 31,132(1)
	addi 1,1,136
	.cfi_remember_state
.LCFI124:
	.cfi_def_cfa_offset 0
	.cfi_restore 31
	.cfi_restore 30
	.cfi_restore 29
	.cfi_restore 28
	.cfi_restore 27
	.cfi_restore 26
	.cfi_restore 25
	.cfi_restore 24
	.cfi_restore 23
	.cfi_restore 22
	.cfi_restore 21
	.cfi_restore 20
	blr
.LVL1620:
.L1421:
.LCFI125:
	.cfi_restore_state
.LBB9411:
.LBB9357:
.LBB9293:
.LBB9286:
.LBB9091:
.LBB8927:
.LBB8926:
.LBB8925:
.LBB8918:
.LBB8917:
.LBB8916:
	.loc 3 319 0
	lis 3,.LC1@ha
.LVL1621:
	la 3,.LC1@l(3)
.LEHB156:
	bl _ZSt20__throw_out_of_rangePKc
.LEHE156:
.LVL1622:
.L1427:
.LBE8916:
.LBE8917:
.LBE8918:
.LBE8925:
.LBE8926:
.LBE8927:
.LBE9091:
.LBB9092:
.LBB9093:
.LBB9094:
.LBB9095:
.LBB9096:
	.loc 3 235 0
	cmpw 7,3,26
	bne- 7,.L1430
.LVL1623:
.L1287:
.LBE9096:
.LBE9095:
.LBE9094:
.LBE9093:
.LBE9092:
.LBB9107:
.LBB9108:
.LBB9109:
.LBB9110:
.LBB9111:
.LBB9112:
	.loc 3 288 0
	lwz 9,64(1)
.LBE9112:
.LBE9111:
.LBE9110:
	.loc 3 534 0
	addi 3,9,-12
.LVL1624:
.LBB9113:
.LBB9114:
	.loc 3 235 0
	cmpw 7,3,26
	bne- 7,.L1431
.LVL1625:
.L1293:
.LBE9114:
.LBE9113:
.LBE9109:
.LBE9108:
.LBE9107:
.LBE9286:
	.loc 9 377 0
	lwz 31,72(1)
	addi 22,22,1
.LVL1626:
	lwz 30,76(1)
	mr 23,22
.LVL1627:
.LBB9287:
.LBB8882:
	.loc 6 571 0
	subf 0,31,30
	srawi 0,0,2
.LBE8882:
.LBE9287:
	.loc 9 377 0
	cmplw 7,22,0
	blt+ 7,.L1294
.LVL1628:
.L1394:
	li 29,1
	b .L1307
.LVL1629:
.L1255:
.LBB9288:
	.loc 9 395 0
	addi 3,1,44
	addi 4,1,64
.LVL1630:
.LEHB157:
	bl _ZNSsC1ERKSs
.LEHE157:
.LVL1631:
	.loc 9 395 0 is_stmt 0 discriminator 1
	addi 3,1,40
	addi 4,1,60
.LVL1632:
.LEHB158:
	bl _ZNSsC1ERKSs
.LEHE158:
.LVL1633:
	.loc 9 395 0 discriminator 2
	addi 3,1,44
	addi 4,1,40
.LEHB159:
	bl _ZN4Nand10ExtractDirESsSs.constprop.47
.LEHE159:
.LBB9125:
.LBB9126:
.LBB9127:
.LBB9128:
.LBB9129:
.LBB9130:
	.loc 3 288 0 is_stmt 1 discriminator 2
	lwz 9,40(1)
.LBE9130:
.LBE9129:
.LBE9128:
.LBE9127:
.LBE9126:
.LBE9125:
	.loc 9 395 0 discriminator 2
	mr 31,3
.LVL1634:
.LBB9145:
.LBB9143:
.LBB9141:
	.loc 3 534 0 discriminator 2
	addi 3,9,-12
.LVL1635:
.LBB9131:
.LBB9132:
	.loc 3 235 0 discriminator 2
	cmpw 7,3,26
	bne- 7,.L1432
.LVL1636:
.L1275:
.LBE9132:
.LBE9131:
.LBE9141:
.LBE9143:
.LBE9145:
.LBB9146:
.LBB9147:
.LBB9148:
.LBB9149:
.LBB9150:
.LBB9151:
	.loc 3 288 0
	lwz 9,44(1)
.LBE9151:
.LBE9150:
.LBE9149:
	.loc 3 534 0
	addi 3,9,-12
.LVL1637:
.LBB9152:
.LBB9153:
	.loc 3 235 0
	cmpw 7,3,26
	beq+ 7,.L1281
.LVL1638:
.LBB9154:
.LBB9155:
.LBB9156:
	.loc 5 66 0
	lwz 11,-4(9)
.LVL1639:
.LBE9156:
.LBE9155:
.LBE9154:
	.loc 3 240 0
	cmpwi 7,11,0
.LBB9159:
.LBB9158:
.LBB9157:
	.loc 5 67 0
	addi 11,11,-1
	stw 11,-4(9)
.LBE9157:
.LBE9158:
.LBE9159:
	.loc 3 240 0
	bgt+ 7,.L1281
	.loc 3 244 0
	addi 4,1,22
	bl _ZNSs4_Rep10_M_destroyERKSaIcE
.LVL1640:
	b .L1281
.LVL1641:
.L1423:
.LBE9153:
.LBE9152:
.LBE9148:
.LBE9147:
.LBE9146:
.LBB9160:
.LBB8999:
	.loc 9 171 0
	addi 3,1,36
	addi 4,1,56
.LVL1642:
.LEHB160:
	bl _ZNSsC1ERKSs
.LEHE160:
.LVL1643:
.LBB8948:
.LBB8949:
	.loc 9 81 0
	addi 3,1,32
	addi 4,1,36
.LVL1644:
.LEHB161:
	bl _ZNSsC1ERKSs
.LEHE161:
.LVL1645:
.LBB8950:
.LBB8951:
	.loc 9 76 0
	lwz 3,32(1)
	li 4,1
.LEHB162:
	bl ISFS_Open
.LEHE162:
.LBE8951:
.LBE8950:
.LBB8953:
.LBB8954:
.LBB8955:
.LBB8956:
.LBB8957:
.LBB8958:
	.loc 3 288 0
	lwz 9,32(1)
.LBE8958:
.LBE8957:
.LBE8956:
.LBE8955:
.LBE8954:
.LBE8953:
.LBB8973:
.LBB8952:
	.loc 9 76 0
	mr 31,3
.LVL1646:
.LBE8952:
.LBE8973:
.LBB8974:
.LBB8971:
.LBB8969:
	.loc 3 534 0
	addi 3,9,-12
.LVL1647:
.LBB8959:
.LBB8960:
	.loc 3 235 0
	cmpw 7,3,26
	bne- 7,.L1433
.LVL1648:
.L1235:
.LBE8960:
.LBE8959:
.LBE8969:
.LBE8971:
.LBE8974:
.LBE8949:
.LBE8948:
.LBB8977:
.LBB8978:
.LBB8979:
.LBB8980:
.LBB8981:
.LBB8982:
	.loc 3 288 0
	lwz 9,36(1)
.LBE8982:
.LBE8981:
.LBE8980:
	.loc 3 534 0
	addi 3,9,-12
.LVL1649:
.LBB8983:
.LBB8984:
	.loc 3 235 0
	cmpw 7,3,26
	bne- 7,.L1434
.LVL1650:
.L1244:
.LBE8984:
.LBE8983:
.LBE8979:
.LBE8978:
.LBE8977:
	.loc 9 172 0
	cmpwi 7,31,0
	blt- 7,.L1435
.LVL1651:
.LBB8995:
.LBB8996:
	.loc 9 158 0
	beq- 7,.L1411
	.loc 9 161 0
	mr 3,31
.LEHB163:
	bl ISFS_Close
.LEHE163:
.L1411:
	lwz 9,56(1)
	.loc 9 174 0
	li 31,1
.LVL1652:
	b .L1229
.LVL1653:
.L1398:
	mr 31,3
.L1369:
.LVL1654:
.LBE8996:
.LBE8995:
.LBE8999:
.LBE9160:
.LBB9161:
.LBB9162:
.LBB9163:
.LBB9164:
.LBB9165:
.LBB9166:
	.loc 3 288 0
	lwz 9,64(1)
.LBE9166:
.LBE9165:
.LBE9164:
	.loc 3 534 0
	addi 3,9,-12
.LVL1655:
.LBB9167:
.LBB9168:
	.loc 3 235 0
	cmpw 7,3,26
	bne- 7,.L1436
.LVL1656:
.L1375:
	.loc 3 244 0
	mr 30,31
.LVL1657:
.L1327:
.LBE9168:
.LBE9167:
.LBE9163:
.LBE9162:
.LBE9161:
.LBE9288:
.LBE9293:
.LBE9357:
.LBB9358:
.LBB9359:
.LBB9360:
	.loc 6 350 0
	lwz 31,72(1)
	lwz 29,76(1)
.LVL1658:
.LBB9361:
.LBB9362:
.LBB9363:
.LBB9364:
.LBB9365:
	.loc 7 103 0
	cmpw 7,31,29
	beq- 7,.L1376
	lis 26,_ZNSs4_Rep20_S_empty_rep_storageE@ha
	la 26,_ZNSs4_Rep20_S_empty_rep_storageE@l(26)
.LVL1659:
.L1383:
.LBB9366:
.LBB9367:
.LBB9368:
.LBB9369:
.LBB9370:
.LBB9371:
.LBB9372:
	.loc 3 288 0
	lwz 9,0(31)
.LBE9372:
.LBE9371:
.LBE9370:
	.loc 3 534 0
	addi 3,9,-12
.LVL1660:
.LBB9373:
.LBB9374:
	.loc 3 235 0
	cmpw 7,3,26
	bne- 7,.L1437
.LVL1661:
.L1382:
.LBE9374:
.LBE9373:
.LBE9369:
.LBE9368:
.LBE9367:
.LBE9366:
	.loc 7 103 0
	addi 31,31,4
.LVL1662:
	cmpw 7,29,31
	bne+ 7,.L1383
	lwz 31,72(1)
.LVL1663:
.L1376:
.LBE9365:
.LBE9364:
.LBE9363:
.LBE9362:
.LBE9361:
.LBB9391:
.LBB9392:
.LBB9393:
.LBB9394:
	.loc 6 155 0
	cmpwi 7,31,0
	beq- 7,.L1388
.LVL1664:
.LBB9395:
.LBB9396:
	.loc 8 98 0
	mr 3,31
	bl _ZdlPv
.LVL1665:
.L1388:
	mr 3,30
.LEHB164:
	bl _Unwind_Resume
.LVL1666:
.L1435:
.LBE9396:
.LBE9395:
.LBE9394:
.LBE9393:
.LBE9392:
.LBE9391:
.LBE9360:
.LBE9359:
.LBE9358:
.LBB9400:
.LBB9294:
.LBB9289:
.LBB9179:
.LBB9000:
	.loc 9 172 0
	lwz 9,56(1)
	.loc 9 166 0
	li 31,0
	b .L1229
.LVL1667:
.L1418:
.LBE9000:
.LBE9179:
.LBE9289:
.LBE9294:
.LBB9295:
.LBB8877:
.LBB8875:
.LBB8873:
.LBB8870:
.LBB8862:
.LBB8863:
.LBB8864:
	.loc 5 66 0
	lwz 11,-4(9)
.LVL1668:
.LBE8864:
.LBE8863:
.LBE8862:
	.loc 3 240 0
	cmpwi 7,11,0
.LBB8867:
.LBB8866:
.LBB8865:
	.loc 5 67 0
	addi 11,11,-1
	stw 11,-4(9)
.LBE8865:
.LBE8866:
.LBE8867:
	.loc 3 240 0
	bgt+ 7,.L1217
	.loc 3 244 0
	addi 4,1,29
	bl _ZNSs4_Rep10_M_destroyERKSaIcE
.LVL1669:
	b .L1217
.LVL1670:
.L1206:
.LBE8870:
.LBE8873:
.LBE8875:
.LBE8877:
.LBE9295:
.LBE9400:
.LBB9401:
.LBB8845:
	.loc 3 912 0
	lis 3,.LC3@ha
	la 3,.LC3@l(3)
	bl _ZSt20__throw_out_of_rangePKc
.LEHE164:
.LVL1671:
.L1403:
	mr 31,3
.LVL1672:
.L1356:
.LBE8845:
.LBE9401:
.LBB9402:
.LBB9296:
.LBB9290:
.LBB9180:
.LBB9181:
.LBB9182:
.LBB9183:
.LBB9184:
.LBB9185:
	.loc 3 288 0
	lwz 9,44(1)
.LBE9185:
.LBE9184:
.LBE9183:
	.loc 3 534 0
	addi 3,9,-12
.LVL1673:
.LBB9186:
.LBB9187:
	.loc 3 235 0
	cmpw 7,3,26
	bne- 7,.L1438
.LVL1674:
.L1334:
.LBE9187:
.LBE9186:
.LBE9182:
.LBE9181:
.LBE9180:
.LBB9198:
.LBB9199:
.LBB9200:
.LBB9201:
.LBB9202:
.LBB9203:
	.loc 3 288 0
	lwz 9,60(1)
.LBE9203:
.LBE9202:
.LBE9201:
	.loc 3 534 0
	addi 3,9,-12
.LVL1675:
.LBB9204:
.LBB9205:
	.loc 3 235 0
	cmpw 7,3,26
	beq+ 7,.L1369
.LVL1676:
.LBB9206:
.LBB9207:
.LBB9208:
	.loc 5 66 0
	lwz 11,-4(9)
.LVL1677:
.LBE9208:
.LBE9207:
.LBE9206:
	.loc 3 240 0
	cmpwi 7,11,0
.LBB9211:
.LBB9210:
.LBB9209:
	.loc 5 67 0
	addi 11,11,-1
	stw 11,-4(9)
.LBE9209:
.LBE9210:
.LBE9211:
	.loc 3 240 0
	bgt+ 7,.L1369
	.loc 3 244 0
	addi 4,1,10
	bl _ZNSs4_Rep10_M_destroyERKSaIcE
.LVL1678:
	b .L1369
.LVL1679:
.L1431:
.LBE9205:
.LBE9204:
.LBE9200:
.LBE9199:
.LBE9198:
.LBB9212:
.LBB9124:
.LBB9123:
.LBB9122:
.LBB9121:
.LBB9115:
.LBB9116:
.LBB9117:
	.loc 5 66 0
	lwz 11,-4(9)
.LVL1680:
.LBE9117:
.LBE9116:
.LBE9115:
	.loc 3 240 0
	cmpwi 7,11,0
.LBB9120:
.LBB9119:
.LBB9118:
	.loc 5 67 0
	addi 11,11,-1
	stw 11,-4(9)
.LBE9118:
.LBE9119:
.LBE9120:
	.loc 3 240 0
	bgt+ 7,.L1293
	.loc 3 244 0
	addi 4,1,20
	bl _ZNSs4_Rep10_M_destroyERKSaIcE
.LVL1681:
	b .L1293
.LVL1682:
.L1438:
.LBE9121:
.LBE9122:
.LBE9123:
.LBE9124:
.LBE9212:
.LBB9213:
.LBB9197:
.LBB9196:
.LBB9195:
.LBB9194:
.LBB9188:
.LBB9189:
.LBB9190:
	.loc 5 66 0
	lwz 11,-4(9)
.LVL1683:
.LBE9190:
.LBE9189:
.LBE9188:
	.loc 3 240 0
	cmpwi 7,11,0
.LBB9193:
.LBB9192:
.LBB9191:
	.loc 5 67 0
	addi 11,11,-1
	stw 11,-4(9)
.LBE9191:
.LBE9192:
.LBE9193:
	.loc 3 240 0
	bgt+ 7,.L1334
	.loc 3 244 0
	addi 4,1,11
	bl _ZNSs4_Rep10_M_destroyERKSaIcE
.LVL1684:
	b .L1334
.LVL1685:
.L1430:
.LBE9194:
.LBE9195:
.LBE9196:
.LBE9197:
.LBE9213:
.LBB9214:
.LBB9106:
.LBB9105:
.LBB9104:
.LBB9103:
.LBB9097:
.LBB9098:
.LBB9099:
	.loc 5 66 0
	lwz 11,-4(9)
.LVL1686:
.LBE9099:
.LBE9098:
.LBE9097:
	.loc 3 240 0
	cmpwi 7,11,0
.LBB9102:
.LBB9101:
.LBB9100:
	.loc 5 67 0
	addi 11,11,-1
	stw 11,-4(9)
.LBE9100:
.LBE9101:
.LBE9102:
	.loc 3 240 0
	bgt+ 7,.L1287
	.loc 3 244 0
	addi 4,1,21
	bl _ZNSs4_Rep10_M_destroyERKSaIcE
.LVL1687:
	b .L1287
.LVL1688:
.L1429:
.LBE9103:
.LBE9104:
.LBE9105:
.LBE9106:
.LBE9214:
.LBE9290:
.LBE9296:
.LBE9402:
.LBB9403:
.LBB9356:
.LBB9355:
.LBB9348:
.LBB9347:
.LBB9346:
.LBB9345:
.LBB9344:
.LBB9343:
.LBB9342:
.LBB9341:
.LBB9340:
.LBB9339:
.LBB9333:
.LBB9334:
.LBB9335:
	.loc 5 66 0
	lwz 11,-4(9)
.LVL1689:
.LBE9335:
.LBE9334:
.LBE9333:
	.loc 3 240 0
	cmpwi 7,11,0
.LBB9338:
.LBB9337:
.LBB9336:
	.loc 5 67 0
	addi 11,11,-1
	stw 11,-4(9)
.LBE9336:
.LBE9337:
.LBE9338:
	.loc 3 240 0
	bgt+ 7,.L1314
	.loc 3 244 0
	addi 4,1,17
	bl _ZNSs4_Rep10_M_destroyERKSaIcE
.LVL1690:
	b .L1314
.LVL1691:
.L1428:
.LBE9339:
.LBE9340:
.LBE9341:
.LBE9342:
.LBE9343:
.LBE9344:
.LBE9345:
.LBE9346:
.LBE9347:
.LBE9348:
.LBE9355:
.LBE9356:
.LBE9403:
.LBB9404:
.LBB9297:
.LBB9291:
.LBB9215:
.LBB9075:
.LBB9073:
.LBB9071:
.LBB9070:
.LBB9064:
.LBB9065:
.LBB9066:
	.loc 5 66 0
	lwz 11,-4(9)
.LVL1692:
.LBE9066:
.LBE9065:
.LBE9064:
	.loc 3 240 0
	cmpwi 7,11,0
.LBB9069:
.LBB9068:
.LBB9067:
	.loc 5 67 0
	addi 11,11,-1
	stw 11,-4(9)
.LBE9067:
.LBE9068:
.LBE9069:
	.loc 3 240 0
	bgt+ 7,.L1300
	.loc 3 244 0
	addi 4,1,19
	bl _ZNSs4_Rep10_M_destroyERKSaIcE
.LVL1693:
	b .L1300
.LVL1694:
.L1426:
.LBE9070:
.LBE9071:
.LBE9073:
.LBE9075:
.LBE9215:
.LBB9216:
.LBB9055:
.LBB9054:
.LBB9053:
.LBB9052:
.LBB9046:
.LBB9047:
.LBB9048:
	.loc 5 66 0
	lwz 11,-4(9)
.LVL1695:
.LBE9048:
.LBE9047:
.LBE9046:
	.loc 3 240 0
	cmpwi 7,11,0
.LBB9051:
.LBB9050:
.LBB9049:
	.loc 5 67 0
	addi 11,11,-1
	stw 11,-4(9)
.LBE9049:
.LBE9050:
.LBE9051:
	.loc 3 240 0
	bgt+ 7,.L1281
	.loc 3 244 0
	addi 4,1,24
	bl _ZNSs4_Rep10_M_destroyERKSaIcE
.LVL1696:
	b .L1281
.LVL1697:
.L1425:
.LBE9052:
.LBE9053:
.LBE9054:
.LBE9055:
.LBE9216:
.LBB9217:
.LBB9036:
.LBB9034:
.LBB9032:
.LBB9031:
.LBB9025:
.LBB9026:
.LBB9027:
	.loc 5 66 0
	lwz 11,-4(9)
.LVL1698:
.LBE9027:
.LBE9026:
.LBE9025:
	.loc 3 240 0
	cmpwi 7,11,0
.LBB9030:
.LBB9029:
.LBB9028:
	.loc 5 67 0
	addi 11,11,-1
	stw 11,-4(9)
.LBE9028:
.LBE9029:
.LBE9030:
	.loc 3 240 0
	bgt+ 7,.L1261
	.loc 3 244 0
	addi 4,1,25
	bl _ZNSs4_Rep10_M_destroyERKSaIcE
.LVL1699:
	b .L1261
.LVL1700:
.L1402:
.LBE9031:
.LBE9032:
.LBE9034:
.LBE9036:
.LBE9217:
.LBB9218:
.LBB9219:
.LBB9220:
.LBB9221:
.LBB9222:
.LBB9223:
	.loc 3 288 0
	lwz 9,48(1)
	mr 31,3
.LVL1701:
.LBE9223:
.LBE9222:
.LBE9221:
	.loc 3 534 0
	addi 3,9,-12
.LVL1702:
.LBB9224:
.LBB9225:
	.loc 3 235 0
	cmpw 7,3,26
	bne- 7,.L1439
.LVL1703:
.L1342:
.LBE9225:
.LBE9224:
.LBE9220:
.LBE9219:
.LBE9218:
.LBB9236:
.LBB9237:
.LBB9238:
.LBB9239:
.LBB9240:
.LBB9241:
	.loc 3 288 0
	lwz 9,52(1)
.LBE9241:
.LBE9240:
.LBE9239:
	.loc 3 534 0
	addi 3,9,-12
.LVL1704:
.LBB9242:
.LBB9243:
	.loc 3 235 0
	cmpw 7,3,26
	beq+ 7,.L1334
.LVL1705:
.LBB9244:
.LBB9245:
.LBB9246:
	.loc 5 66 0
	lwz 11,-4(9)
.LVL1706:
.LBE9246:
.LBE9245:
.LBE9244:
	.loc 3 240 0
	cmpwi 7,11,0
.LBB9249:
.LBB9248:
.LBB9247:
	.loc 5 67 0
	addi 11,11,-1
	stw 11,-4(9)
.LBE9247:
.LBE9248:
.LBE9249:
	.loc 3 240 0
	bgt+ 7,.L1334
	.loc 3 244 0
	addi 4,1,13
	bl _ZNSs4_Rep10_M_destroyERKSaIcE
.LVL1707:
	b .L1334
.LVL1708:
.L1401:
	mr 31,3
	b .L1342
.LVL1709:
.L1424:
.LBE9243:
.LBE9242:
.LBE9238:
.LBE9237:
.LBE9236:
.LBB9250:
.LBB9016:
.LBB9015:
.LBB9014:
.LBB9013:
.LBB9007:
.LBB9008:
.LBB9009:
	.loc 5 66 0
	lwz 11,-4(9)
.LVL1710:
.LBE9009:
.LBE9008:
.LBE9007:
	.loc 3 240 0
	cmpwi 7,11,0
.LBB9012:
.LBB9011:
.LBB9010:
	.loc 5 67 0
	addi 11,11,-1
	stw 11,-4(9)
.LBE9010:
.LBE9011:
.LBE9012:
	.loc 3 240 0
	bgt+ 7,.L1254
	.loc 3 244 0
	addi 4,1,26
	bl _ZNSs4_Rep10_M_destroyERKSaIcE
.LVL1711:
	b .L1254
.LVL1712:
.L1439:
.LBE9013:
.LBE9014:
.LBE9015:
.LBE9016:
.LBE9250:
.LBB9251:
.LBB9235:
.LBB9234:
.LBB9233:
.LBB9232:
.LBB9226:
.LBB9227:
.LBB9228:
	.loc 5 66 0
	lwz 11,-4(9)
.LVL1713:
.LBE9228:
.LBE9227:
.LBE9226:
	.loc 3 240 0
	cmpwi 7,11,0
.LBB9231:
.LBB9230:
.LBB9229:
	.loc 5 67 0
	addi 11,11,-1
	stw 11,-4(9)
.LBE9229:
.LBE9230:
.LBE9231:
	.loc 3 240 0
	bgt+ 7,.L1342
	.loc 3 244 0
	addi 4,1,14
	bl _ZNSs4_Rep10_M_destroyERKSaIcE
.LVL1714:
	b .L1342
.LVL1715:
.L1422:
.LBE9232:
.LBE9233:
.LBE9234:
.LBE9235:
.LBE9251:
.LBB9252:
.LBB8937:
.LBB8936:
	.loc 6 719 0
	lis 3,.LC4@ha
	la 3,.LC4@l(3)
.LEHB165:
	bl _ZSt20__throw_out_of_rangePKc
.LEHE165:
.LVL1716:
.L1399:
	mr 31,3
	b .L1334
.LVL1717:
.L1420:
.LBE8936:
.LBE8937:
.LBE9252:
.LBB9253:
.LBB8906:
.LBB8903:
	lis 3,.LC4@ha
	la 3,.LC4@l(3)
.LEHB166:
	bl _ZSt20__throw_out_of_rangePKc
.LVL1718:
.L1419:
.LBE8903:
.LBE8906:
.LBE9253:
.LBB9254:
.LBB8895:
.LBB8892:
	lis 3,.LC4@ha
	la 3,.LC4@l(3)
	bl _ZSt20__throw_out_of_rangePKc
.LEHE166:
.LVL1719:
.L1434:
.LBE8892:
.LBE8895:
.LBE9254:
.LBB9255:
.LBB9001:
.LBB8997:
.LBB8994:
.LBB8993:
.LBB8992:
.LBB8991:
.LBB8985:
.LBB8986:
.LBB8987:
	.loc 5 66 0
	lwz 11,-4(9)
.LVL1720:
.LBE8987:
.LBE8986:
.LBE8985:
	.loc 3 240 0
	cmpwi 7,11,0
.LBB8990:
.LBB8989:
.LBB8988:
	.loc 5 67 0
	addi 11,11,-1
	stw 11,-4(9)
.LBE8988:
.LBE8989:
.LBE8990:
	.loc 3 240 0
	bgt+ 7,.L1244
	.loc 3 244 0
	addi 4,1,27
	bl _ZNSs4_Rep10_M_destroyERKSaIcE
.LVL1721:
	b .L1244
.LVL1722:
.L1433:
.LBE8991:
.LBE8992:
.LBE8993:
.LBE8994:
.LBE8997:
.LBB8998:
.LBB8976:
.LBB8975:
.LBB8972:
.LBB8970:
.LBB8968:
.LBB8967:
.LBB8961:
.LBB8962:
.LBB8963:
	.loc 5 66 0
	lwz 11,-4(9)
.LVL1723:
.LBE8963:
.LBE8962:
.LBE8961:
	.loc 3 240 0
	cmpwi 7,11,0
.LBB8966:
.LBB8965:
.LBB8964:
	.loc 5 67 0
	addi 11,11,-1
	stw 11,-4(9)
.LBE8964:
.LBE8965:
.LBE8966:
	.loc 3 240 0
	bgt+ 7,.L1235
	.loc 3 244 0
	addi 4,1,28
	bl _ZNSs4_Rep10_M_destroyERKSaIcE
.LVL1724:
	b .L1235
.LVL1725:
.L1406:
	mr 31,3
.LBE8967:
.LBE8968:
.LBE8970:
.LBE8972:
.LBE8975:
	.loc 9 81 0
	addi 3,1,32
.LVL1726:
	bl _ZNSsD1Ev
.LVL1727:
.L1239:
.LBE8976:
.LBE8998:
	.loc 9 171 0
	addi 3,1,36
.LVL1728:
	bl _ZNSsD1Ev
.LVL1729:
.L1249:
.LBE9001:
.LBE9255:
.LBB9256:
.LBB9257:
.LBB9258:
.LBB9259:
.LBB9260:
.LBB9261:
	.loc 3 288 0
	lwz 9,56(1)
.LBE9261:
.LBE9260:
.LBE9259:
	.loc 3 534 0
	addi 3,9,-12
.LVL1730:
.LBB9262:
.LBB9263:
	.loc 3 235 0
	cmpw 7,3,26
	beq+ 7,.L1334
.LVL1731:
.LBB9264:
.LBB9265:
.LBB9266:
	.loc 5 66 0
	lwz 11,-4(9)
.LVL1732:
.LBE9266:
.LBE9265:
.LBE9264:
	.loc 3 240 0
	cmpwi 7,11,0
.LBB9269:
.LBB9268:
.LBB9267:
	.loc 5 67 0
	addi 11,11,-1
	stw 11,-4(9)
.LBE9267:
.LBE9268:
.LBE9269:
	.loc 3 240 0
	bgt+ 7,.L1334
	.loc 3 244 0
	addi 4,1,15
	bl _ZNSs4_Rep10_M_destroyERKSaIcE
.LVL1733:
	b .L1334
.LVL1734:
.L1405:
	mr 31,3
	b .L1239
.LVL1735:
.L1400:
	mr 31,3
	b .L1249
.LVL1736:
.L1432:
.LBE9263:
.LBE9262:
.LBE9258:
.LBE9257:
.LBE9256:
.LBB9270:
.LBB9144:
.LBB9142:
.LBB9140:
.LBB9139:
.LBB9133:
.LBB9134:
.LBB9135:
	.loc 5 66 0
	lwz 11,-4(9)
.LVL1737:
.LBE9135:
.LBE9134:
.LBE9133:
	.loc 3 240 0
	cmpwi 7,11,0
.LBB9138:
.LBB9137:
.LBB9136:
	.loc 5 67 0
	addi 11,11,-1
	stw 11,-4(9)
.LBE9136:
.LBE9137:
.LBE9138:
	.loc 3 240 0
	bgt+ 7,.L1275
	.loc 3 244 0
	addi 4,1,23
	bl _ZNSs4_Rep10_M_destroyERKSaIcE
.LVL1738:
	b .L1275
.LVL1739:
.L1404:
.LBE9139:
.LBE9140:
.LBE9142:
.LBE9144:
.LBE9270:
.LBB9271:
.LBB9272:
.LBB9273:
.LBB9274:
.LBB9275:
.LBB9276:
	.loc 3 288 0
	lwz 9,40(1)
	mr 31,3
.LVL1740:
.LBE9276:
.LBE9275:
.LBE9274:
	.loc 3 534 0
	addi 3,9,-12
.LVL1741:
.LBB9277:
.LBB9278:
	.loc 3 235 0
	cmpw 7,3,26
	beq+ 7,.L1356
.LVL1742:
.LBB9279:
.LBB9280:
.LBB9281:
	.loc 5 66 0
	lwz 11,-4(9)
.LVL1743:
.LBE9281:
.LBE9280:
.LBE9279:
	.loc 3 240 0
	cmpwi 7,11,0
.LBB9284:
.LBB9283:
.LBB9282:
	.loc 5 67 0
	addi 11,11,-1
	stw 11,-4(9)
.LBE9282:
.LBE9283:
.LBE9284:
	.loc 3 240 0
	bgt+ 7,.L1356
	.loc 3 244 0
	addi 4,1,12
	bl _ZNSs4_Rep10_M_destroyERKSaIcE
.LVL1744:
	b .L1356
.LVL1745:
.L1437:
.LBE9278:
.LBE9277:
.LBE9273:
.LBE9272:
.LBE9271:
.LBE9291:
.LBE9297:
.LBE9404:
.LBB9405:
.LBB9399:
.LBB9398:
.LBB9397:
.LBB9390:
.LBB9389:
.LBB9388:
.LBB9387:
.LBB9386:
.LBB9385:
.LBB9384:
.LBB9383:
.LBB9382:
.LBB9381:
.LBB9375:
.LBB9376:
.LBB9377:
	.loc 5 66 0
	lwz 11,-4(9)
.LVL1746:
.LBE9377:
.LBE9376:
.LBE9375:
	.loc 3 240 0
	cmpwi 7,11,0
.LBB9380:
.LBB9379:
.LBB9378:
	.loc 5 67 0
	addi 11,11,-1
	stw 11,-4(9)
.LBE9378:
.LBE9379:
.LBE9380:
	.loc 3 240 0
	bgt+ 7,.L1382
	.loc 3 244 0
	addi 4,1,8
	bl _ZNSs4_Rep10_M_destroyERKSaIcE
.LVL1747:
	b .L1382
.LVL1748:
.L1436:
.LBE9381:
.LBE9382:
.LBE9383:
.LBE9384:
.LBE9385:
.LBE9386:
.LBE9387:
.LBE9388:
.LBE9389:
.LBE9390:
.LBE9397:
.LBE9398:
.LBE9399:
.LBE9405:
.LBB9406:
.LBB9298:
.LBB9292:
.LBB9285:
.LBB9178:
.LBB9177:
.LBB9176:
.LBB9175:
.LBB9169:
.LBB9170:
.LBB9171:
	.loc 5 66 0
	lwz 11,-4(9)
.LVL1749:
.LBE9171:
.LBE9170:
.LBE9169:
	.loc 3 240 0
	cmpwi 7,11,0
.LBB9174:
.LBB9173:
.LBB9172:
	.loc 5 67 0
	addi 11,11,-1
	stw 11,-4(9)
.LBE9172:
.LBE9173:
.LBE9174:
	.loc 3 240 0
	bgt+ 7,.L1375
	.loc 3 244 0
	addi 4,1,9
	bl _ZNSs4_Rep10_M_destroyERKSaIcE
.LVL1750:
	b .L1375
.LVL1751:
.L1396:
	mr 30,3
	b .L1327
.LVL1752:
.L1397:
.LBE9175:
.LBE9176:
.LBE9177:
.LBE9178:
.LBE9285:
.LBE9292:
.LBE9298:
.LBB9299:
.LBB9300:
.LBB9301:
.LBB9302:
.LBB9303:
.LBB9304:
	.loc 3 288 0
	lwz 9,68(1)
.LBE9304:
.LBE9303:
.LBE9302:
.LBB9305:
.LBB9306:
	.loc 3 235 0
	lis 26,_ZNSs4_Rep20_S_empty_rep_storageE@ha
	la 26,_ZNSs4_Rep20_S_empty_rep_storageE@l(26)
	mr 30,3
.LVL1753:
.LBE9306:
.LBE9305:
	.loc 3 534 0
	addi 0,9,-12
.LVL1754:
.LBB9314:
.LBB9313:
	.loc 3 235 0
	cmpw 7,0,26
	beq+ 7,.L1327
.LVL1755:
.LBB9307:
.LBB9308:
.LBB9309:
	.loc 5 66 0
	lwz 11,-4(9)
.LVL1756:
.LBE9309:
.LBE9308:
.LBE9307:
	.loc 3 240 0
	cmpwi 7,11,0
.LBB9312:
.LBB9311:
.LBB9310:
	.loc 5 67 0
	addi 11,11,-1
	stw 11,-4(9)
.LBE9310:
.LBE9311:
.LBE9312:
	.loc 3 240 0
	bgt+ 7,.L1327
	.loc 3 244 0
	mr 3,0
	addi 4,1,16
	bl _ZNSs4_Rep10_M_destroyERKSaIcE
.LVL1757:
	b .L1327
.LVL1758:
.L1415:
.LBE9313:
.LBE9314:
.LBE9301:
.LBE9300:
.LBE9299:
.LBE9406:
.LBB9407:
.LBB8833:
.LBB8832:
.LBB8831:
	.loc 3 319 0
	lis 3,.LC1@ha
	la 3,.LC1@l(3)
.LEHB167:
	bl _ZSt20__throw_out_of_rangePKc
.LEHE167:
.LVL1759:
.LBE8831:
.LBE8832:
.LBE8833:
.LBE9407:
.LBE9411:
	.cfi_endproc
.LFE1047:
	.section	.gcc_except_table
.LLSDA1047:
	.byte	0xff
	.byte	0xff
	.byte	0x1
	.uleb128 .LLSDACSE1047-.LLSDACSB1047
.LLSDACSB1047:
	.uleb128 .LEHB148-.LFB1047
	.uleb128 .LEHE148-.LEHB148
	.uleb128 0
	.uleb128 0
	.uleb128 .LEHB149-.LFB1047
	.uleb128 .LEHE149-.LEHB149
	.uleb128 .L1396-.LFB1047
	.uleb128 0
	.uleb128 .LEHB150-.LFB1047
	.uleb128 .LEHE150-.LEHB150
	.uleb128 .L1397-.LFB1047
	.uleb128 0
	.uleb128 .LEHB151-.LFB1047
	.uleb128 .LEHE151-.LEHB151
	.uleb128 .L1396-.LFB1047
	.uleb128 0
	.uleb128 .LEHB152-.LFB1047
	.uleb128 .LEHE152-.LEHB152
	.uleb128 .L1398-.LFB1047
	.uleb128 0
	.uleb128 .LEHB153-.LFB1047
	.uleb128 .LEHE153-.LEHB153
	.uleb128 .L1399-.LFB1047
	.uleb128 0
	.uleb128 .LEHB154-.LFB1047
	.uleb128 .LEHE154-.LEHB154
	.uleb128 .L1401-.LFB1047
	.uleb128 0
	.uleb128 .LEHB155-.LFB1047
	.uleb128 .LEHE155-.LEHB155
	.uleb128 .L1402-.LFB1047
	.uleb128 0
	.uleb128 .LEHB156-.LFB1047
	.uleb128 .LEHE156-.LEHB156
	.uleb128 .L1398-.LFB1047
	.uleb128 0
	.uleb128 .LEHB157-.LFB1047
	.uleb128 .LEHE157-.LEHB157
	.uleb128 .L1399-.LFB1047
	.uleb128 0
	.uleb128 .LEHB158-.LFB1047
	.uleb128 .LEHE158-.LEHB158
	.uleb128 .L1403-.LFB1047
	.uleb128 0
	.uleb128 .LEHB159-.LFB1047
	.uleb128 .LEHE159-.LEHB159
	.uleb128 .L1404-.LFB1047
	.uleb128 0
	.uleb128 .LEHB160-.LFB1047
	.uleb128 .LEHE160-.LEHB160
	.uleb128 .L1400-.LFB1047
	.uleb128 0
	.uleb128 .LEHB161-.LFB1047
	.uleb128 .LEHE161-.LEHB161
	.uleb128 .L1405-.LFB1047
	.uleb128 0
	.uleb128 .LEHB162-.LFB1047
	.uleb128 .LEHE162-.LEHB162
	.uleb128 .L1406-.LFB1047
	.uleb128 0
	.uleb128 .LEHB163-.LFB1047
	.uleb128 .LEHE163-.LEHB163
	.uleb128 .L1400-.LFB1047
	.uleb128 0
	.uleb128 .LEHB164-.LFB1047
	.uleb128 .LEHE164-.LEHB164
	.uleb128 0
	.uleb128 0
	.uleb128 .LEHB165-.LFB1047
	.uleb128 .LEHE165-.LEHB165
	.uleb128 .L1399-.LFB1047
	.uleb128 0
	.uleb128 .LEHB166-.LFB1047
	.uleb128 .LEHE166-.LEHB166
	.uleb128 .L1398-.LFB1047
	.uleb128 0
