   1              		.file	"Nand.cpp"
   2              		.section	".text"
   3              	.Ltext0:
   4              		.align 2
   5              		.type	_ZSt13__adjust_heapIN9__gnu_cxx17__normal_iteratorIPSsSt6vectorISsSaISsEEEEiSsEvT_T0_S8_T1_.
   6              	_ZSt13__adjust_heapIN9__gnu_cxx17__normal_iteratorIPSsSt6vectorISsSaISsEEEEiSsEvT_T0_S8_T1_.constpr
   7              	.LFB1261:
   8              		.file 1 "d:\\devkitpro\\devkitppc\\bin\\../lib/gcc/powerpc-eabi/4.6.3/../../../../powerpc-eabi/inc
   9              		.loc 1 226 0
  10              		.cfi_startproc
  11              		.cfi_personality 0,__gxx_personality_v0
  12              		.cfi_lsda 0,.LLSDA1261
  13              	.LVL0:
  14 0000 9421FFB8 		stwu 1,-72(1)
  15              	.LCFI0:
  16              		.cfi_def_cfa_offset 72
  17 0004 7C0802A6 		mflr 0
  18 0008 93C10040 		stw 30,64(1)
  19              	.LBB1601:
  20              		.loc 1 231 0
  21 000c 3BC5FFFF 		addi 30,5,-1
  22              		.cfi_offset 30, -8
  23              		.cfi_register 65, 0
  24 0010 7FDE0E70 		srawi 30,30,1
  25 0014 7FDE0194 		addze 30,30
  26              	.LBE1601:
  27              		.loc 1 226 0
  28 0018 9001004C 		stw 0,76(1)
  29              	.LBB1702:
  30              		.loc 1 231 0
  31 001c 7F84F000 		cmpw 7,4,30
  32              	.LBE1702:
  33              		.loc 1 226 0
  34 0020 92810018 		stw 20,24(1)
  35 0024 92E10024 		stw 23,36(1)
  36 0028 7CD43378 		mr 20,6
  37              		.cfi_offset 23, -36
  38              		.cfi_offset 20, -48
  39              		.cfi_offset 65, 4
  40 002c 93610034 		stw 27,52(1)
  41              	.LBB1703:
  42              		.loc 1 231 0
  43 0030 7C972378 		mr 23,4
  44              	.LBE1703:
  45              		.loc 1 226 0
  46 0034 93810038 		stw 28,56(1)
  47 0038 7CBB2B78 		mr 27,5
  48              		.cfi_offset 28, -16
  49              		.cfi_offset 27, -20
  50 003c 93E10044 		stw 31,68(1)
  51 0040 7C9C2378 		mr 28,4
  52 0044 92A1001C 		stw 21,28(1)
  53 0048 92C10020 		stw 22,32(1)
  54 004c 93010028 		stw 24,40(1)
  55 0050 9321002C 		stw 25,44(1)
  56 0054 93410030 		stw 26,48(1)
  57 0058 93A1003C 		stw 29,60(1)
  58              		.loc 1 226 0
  59 005c 83E30000 		lwz 31,0(3)
  60              		.cfi_offset 29, -12
  61              		.cfi_offset 26, -24
  62              		.cfi_offset 25, -28
  63              		.cfi_offset 24, -32
  64              		.cfi_offset 22, -40
  65              		.cfi_offset 21, -44
  66              		.cfi_offset 31, -4
  67              	.LVL1:
  68              	.LBB1704:
  69              		.loc 1 231 0
  70 0060 409C007C 		bge- 7,.L27
  71              	.LVL2:
  72              	.L24:
  73              		.loc 1 233 0
  74 0064 3AB70001 		addi 21,23,1
  75 0068 56B6083C 		slwi 22,21,1
  76              	.LVL3:
  77              	.LBB1602:
  78              	.LBB1603:
  79              		.file 2 "d:\\devkitpro\\devkitppc\\bin\\../lib/gcc/powerpc-eabi/4.6.3/../../../../powerpc-eabi/inc
  80              		.loc 2 773 0
  81 006c 56B51838 		slwi 21,21,3
  82              	.LBE1603:
  83              	.LBE1602:
  84              		.loc 1 234 0
  85 0070 3B56FFFF 		addi 26,22,-1
  86              	.LBB1605:
  87              	.LBB1606:
  88              	.LBB1607:
  89              	.LBB1608:
  90              	.LBB1609:
  91              	.LBB1610:
  92              	.LBB1611:
  93              	.LBB1612:
  94              		.file 3 "d:\\devkitpro\\devkitppc\\bin\\../lib/gcc/powerpc-eabi/4.6.3/../../../../powerpc-eabi/inc
  95              		.loc 3 288 0
  96 0074 7C7FA82E 		lwzx 3,31,21
  97              	.LBE1612:
  98              	.LBE1611:
  99              	.LBE1610:
 100              	.LBE1609:
 101              	.LBE1608:
 102              	.LBE1607:
 103              	.LBE1606:
 104              	.LBE1605:
 105              	.LBB1628:
 106              	.LBB1629:
 107              		.loc 2 773 0
 108 0078 575D103A 		slwi 29,26,2
 109              	.LBE1629:
 110              	.LBE1628:
 111              	.LBB1631:
 112              	.LBB1604:
 113 007c 7EBFAA14 		add 21,31,21
 114              	.LVL4:
 115              	.LBE1604:
 116              	.LBE1631:
 117              	.LBB1632:
 118              	.LBB1626:
 119              	.LBB1624:
 120              	.LBB1614:
 121              	.LBB1615:
 122              	.LBB1616:
 123              	.LBB1617:
 124              	.LBB1618:
 125              		.loc 3 288 0
 126 0080 7C9FE82E 		lwzx 4,31,29
 127              	.LBE1618:
 128              	.LBE1617:
 129              	.LBE1616:
 130              	.LBE1615:
 131              	.LBE1614:
 132              	.LBE1624:
 133              	.LBE1626:
 134              	.LBE1632:
 135              	.LBB1633:
 136              	.LBB1630:
 137              		.loc 2 773 0
 138 0084 7FBFEA14 		add 29,31,29
 139              	.LVL5:
 140              	.LBE1630:
 141              	.LBE1633:
 142              	.LBB1634:
 143              	.LBB1627:
 144              	.LBB1625:
 145              	.LBB1620:
 146              	.LBB1613:
 147              		.loc 3 711 0
 148 0088 8303FFF4 		lwz 24,-12(3)
 149              	.LVL6:
 150              	.LBE1613:
 151              	.LBE1620:
 152              	.LBB1621:
 153              	.LBB1619:
 154 008c 8324FFF4 		lwz 25,-12(4)
 155              	.LVL7:
 156              	.LBE1619:
 157              	.LBE1621:
 158              	.LBB1622:
 159              	.LBB1623:
 160              		.file 4 "d:\\devkitpro\\devkitppc\\bin\\../lib/gcc/powerpc-eabi/4.6.3/../../../../powerpc-eabi/inc
 161              		.loc 4 257 0
 162 0090 7F99C040 		cmplw 7,25,24
 163 0094 7F25CB78 		mr 5,25
 164 0098 409D0008 		ble- 7,.L4
 165 009c 7F05C378 		mr 5,24
 166              	.L4:
 167 00a0 48000001 		bl memcmp
 168              	.LVL8:
 169              	.LBE1623:
 170              	.LBE1622:
 171              		.loc 3 2180 0
 172 00a4 2C030000 		cmpwi 0,3,0
 173 00a8 40820008 		bne- 0,.L5
 174              	.LVL9:
 175 00ac 7C19C051 		subf. 0,25,24
 176              	.LVL10:
 177              	.L5:
 178              	.LBE1625:
 179              	.LBE1627:
 180              	.LBE1634:
 181              		.loc 1 234 0
 182 00b0 4180000C 		blt- 0,.L6
 183 00b4 7EBDAB78 		mr 29,21
 184              		.loc 1 233 0
 185 00b8 7EDAB378 		mr 26,22
 186              	.LVL11:
 187              	.L6:
 188              	.LBB1635:
 189              	.LBB1636:
 190              		.loc 2 773 0
 191 00bc 56E3103A 		slwi 3,23,2
 192              	.LBE1636:
 193              	.LBE1635:
 194              	.LBB1637:
 195              	.LBB1638:
 196              		.loc 3 542 0
 197 00c0 7FA4EB78 		mr 4,29
 198 00c4 7C7F1A14 		add 3,31,3
 199              	.LEHB0:
 200 00c8 48000001 		bl _ZNSs6assignERKSs
 201              	.LVL12:
 202              	.LBE1638:
 203              	.LBE1637:
 204              		.loc 1 231 0
 205 00cc 7F9AF000 		cmpw 7,26,30
 206 00d0 409C0018 		bge- 7,.L3
 207 00d4 7F57D378 		mr 23,26
 208              	.LVL13:
 209 00d8 4BFFFF8C 		b .L24
 210              	.LVL14:
 211              	.L27:
 212 00dc 549D103A 		slwi 29,4,2
 213 00e0 7C9A2378 		mr 26,4
 214 00e4 7FBFEA14 		add 29,31,29
 215              	.LVL15:
 216              	.L3:
 217              		.loc 1 239 0
 218 00e8 73600001 		andi. 0,27,1
 219 00ec 40820018 		bne- 0,.L8
 220 00f0 3B7BFFFE 		addi 27,27,-2
 221              	.LVL16:
 222 00f4 7F7B0E70 		srawi 27,27,1
 223 00f8 7F7B0194 		addze 27,27
 224              	.LVL17:
 225 00fc 7F9AD800 		cmpw 7,26,27
 226 0100 419E00FC 		beq- 7,.L28
 227              	.LVL18:
 228              	.L8:
 229              		.loc 1 246 0
 230 0104 3861000C 		addi 3,1,12
 231 0108 7E84A378 		mr 4,20
 232 010c 48000001 		bl _ZNSsC1ERKSs
 233              	.LEHE0:
 234              	.LVL19:
 235              	.LBB1639:
 236              	.LBB1640:
 237              		.loc 1 136 0
 238 0110 7F9AE000 		cmpw 7,26,28
 239 0114 409D0054 		ble- 7,.L9
 240              		.loc 1 135 0
 241 0118 3BDAFFFF 		addi 30,26,-1
 242 011c 7FDE0E70 		srawi 30,30,1
 243 0120 7FDE0194 		addze 30,30
 244              	.LVL20:
 245              	.L10:
 246              	.LBB1641:
 247              	.LBB1642:
 248              		.loc 2 773 0
 249 0124 57DD103A 		slwi 29,30,2
 250              	.LBE1642:
 251              	.LBE1641:
 252              	.LBB1644:
 253              	.LBB1645:
 254              	.LBB1646:
 255              	.LBB1647:
 256              	.LBB1648:
 257              	.LBB1649:
 258              	.LBB1650:
 259              	.LBB1651:
 260              		.loc 3 288 0
 261 0128 8081000C 		lwz 4,12(1)
 262              	.LBE1651:
 263              	.LBE1650:
 264              	.LBE1649:
 265              	.LBE1648:
 266              	.LBE1647:
 267              	.LBB1653:
 268              	.LBB1654:
 269              	.LBB1655:
 270              	.LBB1656:
 271              	.LBB1657:
 272 012c 7C7FE82E 		lwzx 3,31,29
 273              	.LBE1657:
 274              	.LBE1656:
 275              	.LBE1655:
 276              	.LBE1654:
 277              	.LBE1653:
 278              	.LBE1646:
 279              	.LBE1645:
 280              	.LBE1644:
 281              	.LBB1665:
 282              	.LBB1643:
 283              		.loc 2 773 0
 284 0130 7FBFEA14 		add 29,31,29
 285              	.LVL21:
 286              	.LBE1643:
 287              	.LBE1665:
 288              	.LBB1666:
 289              	.LBB1664:
 290              	.LBB1663:
 291              	.LBB1659:
 292              	.LBB1652:
 293              		.loc 3 711 0
 294 0134 8364FFF4 		lwz 27,-12(4)
 295              	.LBE1652:
 296              	.LBE1659:
 297              	.LBB1660:
 298              	.LBB1658:
 299 0138 8323FFF4 		lwz 25,-12(3)
 300              	.LVL22:
 301              	.LBE1658:
 302              	.LBE1660:
 303              	.LBB1661:
 304              	.LBB1662:
 305              		.loc 4 257 0
 306 013c 7F65DB78 		mr 5,27
 307 0140 7F9BC840 		cmplw 7,27,25
 308 0144 409D0008 		ble- 7,.L11
 309 0148 7F25CB78 		mr 5,25
 310              	.L11:
 311 014c 48000001 		bl memcmp
 312              	.LVL23:
 313              	.LBE1662:
 314              	.LBE1661:
 315              		.loc 3 2180 0
 316 0150 2C030000 		cmpwi 0,3,0
 317 0154 40820008 		bne- 0,.L12
 318              	.LVL24:
 319 0158 7C1BC851 		subf. 0,27,25
 320              	.LVL25:
 321              	.L12:
 322              	.LBE1663:
 323              	.LBE1664:
 324              	.LBE1666:
 325              		.loc 1 136 0
 326 015c 41800070 		blt- 0,.L13
 327 0160 575D103A 		slwi 29,26,2
 328              	.LVL26:
 329 0164 7FBFEA14 		add 29,31,29
 330              	.LVL27:
 331              	.L9:
 332              	.LBB1667:
 333              	.LBB1668:
 334              		.loc 3 542 0
 335 0168 7FA3EB78 		mr 3,29
 336 016c 3881000C 		addi 4,1,12
 337              	.LVL28:
 338              	.LEHB1:
 339 0170 48000001 		bl _ZNSs6assignERKSs
 340              	.LVL29:
 341              	.LBE1668:
 342              	.LBE1667:
 343              	.LBE1640:
 344              	.LBE1639:
 345              	.LBB1674:
 346              	.LBB1675:
 347              	.LBB1676:
 348              	.LBB1677:
 349              	.LBB1678:
 350              	.LBB1679:
 351              		.loc 3 288 0
 352 0174 8121000C 		lwz 9,12(1)
 353              	.LBE1679:
 354              	.LBE1678:
 355              	.LBE1677:
 356              	.LBB1680:
 357              	.LBB1681:
 358              		.loc 3 235 0
 359 0178 3D600000 		lis 11,_ZNSs4_Rep20_S_empty_rep_storageE@ha
 360 017c 380B0000 		la 0,_ZNSs4_Rep20_S_empty_rep_storageE@l(11)
 361              	.LBE1681:
 362              	.LBE1680:
 363              		.loc 3 534 0
 364 0180 3869FFF4 		addi 3,9,-12
 365              	.LVL30:
 366              	.LBB1690:
 367              	.LBB1688:
 368              		.loc 3 235 0
 369 0184 7F830000 		cmpw 7,3,0
 370 0188 409E00AC 		bne- 7,.L29
 371              	.LVL31:
 372              	.L1:
 373              	.LBE1688:
 374              	.LBE1690:
 375              	.LBE1676:
 376              	.LBE1675:
 377              	.LBE1674:
 378              	.LBE1704:
 379              		.loc 1 248 0
 380 018c 8001004C 		lwz 0,76(1)
 381 0190 82810018 		lwz 20,24(1)
 382              	.LVL32:
 383 0194 7C0803A6 		mtlr 0
 384 0198 82A1001C 		lwz 21,28(1)
 385 019c 82C10020 		lwz 22,32(1)
 386 01a0 82E10024 		lwz 23,36(1)
 387 01a4 83010028 		lwz 24,40(1)
 388 01a8 8321002C 		lwz 25,44(1)
 389 01ac 83410030 		lwz 26,48(1)
 390 01b0 83610034 		lwz 27,52(1)
 391 01b4 83810038 		lwz 28,56(1)
 392              	.LVL33:
 393 01b8 83A1003C 		lwz 29,60(1)
 394              	.LVL34:
 395 01bc 83C10040 		lwz 30,64(1)
 396 01c0 83E10044 		lwz 31,68(1)
 397              	.LVL35:
 398 01c4 38210048 		addi 1,1,72
 399              		.cfi_remember_state
 400              	.LCFI1:
 401              		.cfi_def_cfa_offset 0
 402              		.cfi_restore 31
 403              		.cfi_restore 30
 404              		.cfi_restore 29
 405              		.cfi_restore 28
 406              		.cfi_restore 27
 407              		.cfi_restore 26
 408              		.cfi_restore 25
 409              		.cfi_restore 24
 410              		.cfi_restore 23
 411              		.cfi_restore 22
 412              		.cfi_restore 21
 413              		.cfi_restore 20
 414 01c8 4E800020 		blr
 415              	.LVL36:
 416              	.L13:
 417              	.LCFI2:
 418              		.cfi_restore_state
 419              	.LBB1705:
 420              	.LBB1694:
 421              	.LBB1673:
 422              	.LBB1669:
 423              	.LBB1670:
 424              		.loc 2 773 0
 425 01cc 5743103A 		slwi 3,26,2
 426              	.LBE1670:
 427              	.LBE1669:
 428              	.LBB1671:
 429              	.LBB1672:
 430              		.loc 3 542 0
 431 01d0 7FA4EB78 		mr 4,29
 432 01d4 7C7F1A14 		add 3,31,3
 433 01d8 48000001 		bl _ZNSs6assignERKSs
 434              	.LEHE1:
 435              	.LVL37:
 436              	.LBE1672:
 437              	.LBE1671:
 438              		.loc 1 136 0
 439 01dc 7F9CF000 		cmpw 7,28,30
 440              		.loc 1 140 0
 441 01e0 381EFFFF 		addi 0,30,-1
 442 01e4 7C000E70 		srawi 0,0,1
 443 01e8 7C000194 		addze 0,0
 444              	.LVL38:
 445              		.loc 1 136 0
 446 01ec 40BCFF7C 		bge- 7,.L9
 447 01f0 7FDAF378 		mr 26,30
 448              	.LVL39:
 449              		.loc 1 140 0
 450 01f4 7C1E0378 		mr 30,0
 451              	.LVL40:
 452 01f8 4BFFFF2C 		b .L10
 453              	.LVL41:
 454              	.L28:
 455              	.LBE1673:
 456              	.LBE1694:
 457              		.loc 1 241 0
 458 01fc 575A083C 		slwi 26,26,1
 459              	.LVL42:
 460              	.LBB1695:
 461              	.LBB1696:
 462              		.loc 3 542 0
 463 0200 7FA3EB78 		mr 3,29
 464              	.LBE1696:
 465              	.LBE1695:
 466              		.loc 1 242 0
 467 0204 3B5A0001 		addi 26,26,1
 468              	.LVL43:
 469              	.LBB1698:
 470              	.LBB1699:
 471              		.loc 2 773 0
 472 0208 575E103A 		slwi 30,26,2
 473 020c 7FDFF214 		add 30,31,30
 474              	.LVL44:
 475              	.LBE1699:
 476              	.LBE1698:
 477              	.LBB1700:
 478              	.LBB1697:
 479              		.loc 3 542 0
 480 0210 7FC4F378 		mr 4,30
 481 0214 7FDDF378 		mr 29,30
 482              	.LVL45:
 483              	.LEHB2:
 484 0218 48000001 		bl _ZNSs6assignERKSs
 485              	.LVL46:
 486 021c 4BFFFEE8 		b .L8
 487              	.LVL47:
 488              	.L23:
 489 0220 7C7F1B78 		mr 31,3
 490              	.LVL48:
 491              	.LBE1697:
 492              	.LBE1700:
 493              		.loc 1 246 0
 494 0224 3861000C 		addi 3,1,12
 495              	.LVL49:
 496 0228 48000001 		bl _ZNSsD1Ev
 497              	.LVL50:
 498 022c 7FE3FB78 		mr 3,31
 499 0230 48000001 		bl _Unwind_Resume
 500              	.LEHE2:
 501              	.LVL51:
 502              	.L29:
 503              	.LBB1701:
 504              	.LBB1693:
 505              	.LBB1692:
 506              	.LBB1691:
 507              	.LBB1689:
 508              	.LBB1682:
 509              	.LBB1683:
 510              	.LBB1684:
 511              		.file 5 "d:\\devkitpro\\devkitppc\\bin\\../lib/gcc/powerpc-eabi/4.6.3/../../../../powerpc-eabi/inc
 512              		.loc 5 66 0
 513 0234 8169FFFC 		lwz 11,-4(9)
 514              	.LVL52:
 515              	.LBE1684:
 516              	.LBE1683:
 517              	.LBE1682:
 518              		.loc 3 240 0
 519 0238 2F8B0000 		cmpwi 7,11,0
 520              	.LBB1687:
 521              	.LBB1686:
 522              	.LBB1685:
 523              		.loc 5 67 0
 524 023c 396BFFFF 		addi 11,11,-1
 525 0240 9169FFFC 		stw 11,-4(9)
 526              	.LBE1685:
 527              	.LBE1686:
 528              	.LBE1687:
 529              		.loc 3 240 0
 530 0244 419DFF48 		bgt+ 7,.L1
 531              		.loc 3 244 0
 532 0248 38810008 		addi 4,1,8
 533 024c 48000001 		bl _ZNSs4_Rep10_M_destroyERKSaIcE
 534              	.LVL53:
 535 0250 4BFFFF3C 		b .L1
 536              	.LBE1689:
 537              	.LBE1691:
 538              	.LBE1692:
 539              	.LBE1693:
 540              	.LBE1701:
 541              	.LBE1705:
 542              		.cfi_endproc
 543              	.LFE1261:
 544              		.globl __gxx_personality_v0
 545              		.section	.gcc_except_table,"a",@progbits
 546              	.LLSDA1261:
 547 0000 FF       		.byte	0xff
 548 0001 FF       		.byte	0xff
 549 0002 01       		.byte	0x1
 550 0003 10       		.uleb128 .LLSDACSE1261-.LLSDACSB1261
 551              	.LLSDACSB1261:
 552 0004 C801     		.uleb128 .LEHB0-.LFB1261
 553 0006 48       		.uleb128 .LEHE0-.LEHB0
 554 0007 00       		.uleb128 0
 555 0008 00       		.uleb128 0
 556 0009 F002     		.uleb128 .LEHB1-.LFB1261
 557 000b 6C       		.uleb128 .LEHE1-.LEHB1
 558 000c A004     		.uleb128 .L23-.LFB1261
 559 000e 00       		.uleb128 0
 560 000f 9804     		.uleb128 .LEHB2-.LFB1261
 561 0011 1C       		.uleb128 .LEHE2-.LEHB2
 562 0012 00       		.uleb128 0
 563 0013 00       		.uleb128 0
 564              	.LLSDACSE1261:
 565              		.section	".text"
 566              		.size	_ZSt13__adjust_heapIN9__gnu_cxx17__normal_iteratorIPSsSt6vectorISsSaISsEEEEiSsEvT_T0_S8_T1_.
 567              		.align 2
 568              		.type	_ZNSt6vectorISsSaISsEED2Ev.constprop.41, @function
 569              	_ZNSt6vectorISsSaISsEED2Ev.constprop.41:
 570              	.LFB1260:
 571              		.file 6 "d:\\devkitpro\\devkitppc\\bin\\../lib/gcc/powerpc-eabi/4.6.3/../../../../powerpc-eabi/inc
 572              		.loc 6 349 0
 573              		.cfi_startproc
 574              	.LVL54:
 575 0254 7C0802A6 		mflr 0
 576 0258 9421FFD8 		stwu 1,-40(1)
 577              	.LCFI3:
 578              		.cfi_def_cfa_offset 40
 579              		.cfi_register 65, 0
 580 025c 93C10020 		stw 30,32(1)
 581 0260 9001002C 		stw 0,44(1)
 582 0264 93E10024 		stw 31,36(1)
 583              	.LBB1767:
 584              		.loc 6 350 0
 585 0268 83C30004 		lwz 30,4(3)
 586              		.cfi_offset 31, -4
 587              		.cfi_offset 65, 4
 588              		.cfi_offset 30, -8
 589 026c 83E30000 		lwz 31,0(3)
 590              	.LBE1767:
 591              		.loc 6 349 0
 592 0270 93810018 		stw 28,24(1)
 593 0274 7C7C1B78 		mr 28,3
 594              		.cfi_offset 28, -16
 595              	.LVL55:
 596              	.LBB1814:
 597              	.LBB1768:
 598              	.LBB1769:
 599              	.LBB1770:
 600              	.LBB1771:
 601              	.LBB1772:
 602              		.file 7 "d:\\devkitpro\\devkitppc\\bin\\../lib/gcc/powerpc-eabi/4.6.3/../../../../powerpc-eabi/inc
 603              		.loc 7 103 0
 604 0278 7F9FF000 		cmpw 7,31,30
 605              	.LBE1772:
 606              	.LBE1771:
 607              	.LBE1770:
 608              	.LBE1769:
 609              	.LBE1768:
 610              	.LBE1814:
 611              		.loc 6 349 0
 612 027c 93A1001C 		stw 29,28(1)
 613              	.LBB1815:
 614              	.LBB1806:
 615              	.LBB1804:
 616              	.LBB1802:
 617              	.LBB1800:
 618              	.LBB1798:
 619              		.loc 7 103 0
 620 0280 419E002C 		beq- 7,.L31
 621              		.cfi_offset 29, -12
 622 0284 3FA00000 		lis 29,_ZNSs4_Rep20_S_empty_rep_storageE@ha
 623 0288 3BBD0000 		la 29,_ZNSs4_Rep20_S_empty_rep_storageE@l(29)
 624              	.LVL56:
 625              	.L38:
 626              	.LBB1773:
 627              	.LBB1774:
 628              	.LBB1775:
 629              	.LBB1776:
 630              	.LBB1777:
 631              	.LBB1778:
 632              	.LBB1779:
 633              		.loc 3 288 0
 634 028c 813F0000 		lwz 9,0(31)
 635              	.LBE1779:
 636              	.LBE1778:
 637              	.LBE1777:
 638              	.LBE1776:
 639              	.LBE1775:
 640              	.LBE1774:
 641              	.LBE1773:
 642              		.loc 7 103 0
 643 0290 3BFF0004 		addi 31,31,4
 644              	.LVL57:
 645              	.LBB1796:
 646              	.LBB1794:
 647              	.LBB1792:
 648              	.LBB1790:
 649              		.loc 3 534 0
 650 0294 3869FFF4 		addi 3,9,-12
 651              	.LVL58:
 652              	.LBB1780:
 653              	.LBB1781:
 654              		.loc 3 235 0
 655 0298 7F83E800 		cmpw 7,3,29
 656 029c 409E0040 		bne- 7,.L45
 657              	.LVL59:
 658              	.L37:
 659              	.LBE1781:
 660              	.LBE1780:
 661              	.LBE1790:
 662              	.LBE1792:
 663              	.LBE1794:
 664              	.LBE1796:
 665              		.loc 7 103 0
 666 02a0 7F9EF800 		cmpw 7,30,31
 667 02a4 409EFFE8 		bne+ 7,.L38
 668 02a8 83FC0000 		lwz 31,0(28)
 669              	.LVL60:
 670              	.L31:
 671              	.LBE1798:
 672              	.LBE1800:
 673              	.LBE1802:
 674              	.LBE1804:
 675              	.LBE1806:
 676              	.LBB1807:
 677              	.LBB1808:
 678              	.LBB1809:
 679              	.LBB1810:
 680              		.loc 6 155 0
 681 02ac 2F9F0000 		cmpwi 7,31,0
 682 02b0 419E000C 		beq- 7,.L30
 683              	.LVL61:
 684              	.LBB1811:
 685              	.LBB1812:
 686              		.file 8 "d:\\devkitpro\\devkitppc\\bin\\../lib/gcc/powerpc-eabi/4.6.3/../../../../powerpc-eabi/inc
 687              		.loc 8 98 0
 688 02b4 7FE3FB78 		mr 3,31
 689 02b8 48000001 		bl _ZdlPv
 690              	.LVL62:
 691              	.L30:
 692              	.LBE1812:
 693              	.LBE1811:
 694              	.LBE1810:
 695              	.LBE1809:
 696              	.LBE1808:
 697              	.LBE1807:
 698              	.LBE1815:
 699              		.loc 6 351 0
 700 02bc 8001002C 		lwz 0,44(1)
 701 02c0 83810018 		lwz 28,24(1)
 702              	.LVL63:
 703 02c4 7C0803A6 		mtlr 0
 704 02c8 83A1001C 		lwz 29,28(1)
 705 02cc 83C10020 		lwz 30,32(1)
 706              	.LVL64:
 707 02d0 83E10024 		lwz 31,36(1)
 708              	.LVL65:
 709 02d4 38210028 		addi 1,1,40
 710              		.cfi_remember_state
 711              	.LCFI4:
 712              		.cfi_def_cfa_offset 0
 713              		.cfi_restore 31
 714              		.cfi_restore 30
 715              		.cfi_restore 29
 716              		.cfi_restore 28
 717 02d8 4E800020 		blr
 718              	.LVL66:
 719              	.L45:
 720              	.LCFI5:
 721              		.cfi_restore_state
 722              	.LBB1816:
 723              	.LBB1813:
 724              	.LBB1805:
 725              	.LBB1803:
 726              	.LBB1801:
 727              	.LBB1799:
 728              	.LBB1797:
 729              	.LBB1795:
 730              	.LBB1793:
 731              	.LBB1791:
 732              	.LBB1789:
 733              	.LBB1788:
 734              	.LBB1782:
 735              	.LBB1783:
 736              	.LBB1784:
 737              		.loc 5 66 0
 738 02dc 8169FFFC 		lwz 11,-4(9)
 739              	.LVL67:
 740              	.LBE1784:
 741              	.LBE1783:
 742              	.LBE1782:
 743              		.loc 3 240 0
 744 02e0 2F8B0000 		cmpwi 7,11,0
 745              	.LBB1787:
 746              	.LBB1786:
 747              	.LBB1785:
 748              		.loc 5 67 0
 749 02e4 396BFFFF 		addi 11,11,-1
 750 02e8 9169FFFC 		stw 11,-4(9)
 751              	.LBE1785:
 752              	.LBE1786:
 753              	.LBE1787:
 754              		.loc 3 240 0
 755 02ec 419DFFB4 		bgt+ 7,.L37
 756              		.loc 3 244 0
 757 02f0 38810008 		addi 4,1,8
 758 02f4 48000001 		bl _ZNSs4_Rep10_M_destroyERKSaIcE
 759              	.LVL68:
 760 02f8 4BFFFFA8 		b .L37
 761              	.LBE1788:
 762              	.LBE1789:
 763              	.LBE1791:
 764              	.LBE1793:
 765              	.LBE1795:
 766              	.LBE1797:
 767              	.LBE1799:
 768              	.LBE1801:
 769              	.LBE1803:
 770              	.LBE1805:
 771              	.LBE1813:
 772              	.LBE1816:
 773              		.cfi_endproc
 774              	.LFE1260:
 775              		.size	_ZNSt6vectorISsSaISsEED2Ev.constprop.41, .-_ZNSt6vectorISsSaISsEED2Ev.constprop.41
 776              		.align 2
 777              		.type	_ZN4Nand8LoadFileESsPPhPj.constprop.48, @function
 778              	_ZN4Nand8LoadFileESsPPhPj.constprop.48:
 779              	.LFB1253:
 780              		.file 9 "d:/Projects/SaveGameManager/savegame-manager-gx/trunk/source/FileOperations/Nand.cpp"
 781              		.loc 9 252 0
 782              		.cfi_startproc
 783              		.cfi_personality 0,__gxx_personality_v0
 784              		.cfi_lsda 0,.LLSDA1253
 785              	.LVL69:
 786 02fc 7C0802A6 		mflr 0
 787 0300 9421FFC8 		stwu 1,-56(1)
 788              	.LCFI6:
 789              		.cfi_def_cfa_offset 56
 790              		.cfi_register 65, 0
 791 0304 7D800026 		mfcr 12
 792 0308 7C691B78 		mr 9,3
 793              	.LVL70:
 794 030c 93C10030 		stw 30,48(1)
 795 0310 7CBE2B78 		mr 30,5
 796              		.cfi_offset 30, -8
 797              		.cfi_register 70, 12
 798 0314 9001003C 		stw 0,60(1)
 799 0318 93E10034 		stw 31,52(1)
 800 031c 7C9F2378 		mr 31,4
 801              		.cfi_offset 31, -4
 802              		.cfi_offset 65, 4
 803              	.LBB1883:
 804              	.LBB1884:
 805              	.LBB1885:
 806              	.LBB1886:
 807              		.loc 3 711 0
 808 0320 81630000 		lwz 11,0(3)
 809              	.LBE1886:
 810              	.LBE1885:
 811              	.LBE1884:
 812              	.LBE1883:
 813              		.loc 9 252 0
 814 0324 93410020 		stw 26,32(1)
 815              	.LBB1951:
 816              		.loc 9 254 0
 817 0328 800BFFF4 		lwz 0,-12(11)
 818              	.LBE1951:
 819              		.loc 9 252 0
 820 032c 93610024 		stw 27,36(1)
 821              	.LBB1952:
 822              		.loc 9 254 0
 823 0330 2F800000 		cmpwi 7,0,0
 824              	.LBE1952:
 825              		.loc 9 252 0
 826 0334 93810028 		stw 28,40(1)
 827 0338 93A1002C 		stw 29,44(1)
 828 033c 9181001C 		stw 12,28(1)
 829              	.LBB1953:
 830              		.loc 9 254 0
 831 0340 419E0124 		beq- 7,.L68
 832              		.cfi_offset 70, -28
 833              		.cfi_offset 29, -12
 834              		.cfi_offset 28, -16
 835              		.cfi_offset 27, -20
 836              		.cfi_offset 26, -24
 837              	.LVL71:
 838              		.loc 9 261 0
 839 0344 38610010 		addi 3,1,16
 840              	.LVL72:
 841 0348 7D244B78 		mr 4,9
 842              	.LVL73:
 843              	.LEHB3:
 844 034c 48000001 		bl _ZNSsC1ERKSs
 845              	.LEHE3:
 846              	.LVL74:
 847              	.LBB1887:
 848              	.LBB1888:
 849              		.loc 9 81 0
 850 0350 3861000C 		addi 3,1,12
 851 0354 38810010 		addi 4,1,16
 852              	.LVL75:
 853              	.LEHB4:
 854 0358 48000001 		bl _ZNSsC1ERKSs
 855              	.LEHE4:
 856              	.LVL76:
 857              	.LBB1889:
 858              	.LBB1890:
 859              		.loc 9 76 0
 860 035c 8061000C 		lwz 3,12(1)
 861 0360 38800001 		li 4,1
 862              	.LEHB5:
 863 0364 48000001 		bl ISFS_Open
 864              	.LEHE5:
 865              	.LBE1890:
 866              	.LBE1889:
 867              	.LBB1892:
 868              	.LBB1893:
 869              	.LBB1894:
 870              	.LBB1895:
 871              	.LBB1896:
 872              	.LBB1897:
 873              		.loc 3 288 0
 874 0368 8121000C 		lwz 9,12(1)
 875              	.LBE1897:
 876              	.LBE1896:
 877              	.LBE1895:
 878              	.LBB1898:
 879              	.LBB1899:
 880              		.loc 3 235 0
 881 036c 3F800000 		lis 28,_ZNSs4_Rep20_S_empty_rep_storageE@ha
 882              	.LBE1899:
 883              	.LBE1898:
 884              	.LBE1894:
 885              	.LBE1893:
 886              	.LBE1892:
 887              	.LBB1916:
 888              	.LBB1891:
 889              		.loc 9 76 0
 890 0370 7C7D1B78 		mr 29,3
 891              	.LVL77:
 892              	.LBE1891:
 893              	.LBE1916:
 894              	.LBB1917:
 895              	.LBB1914:
 896              	.LBB1912:
 897              	.LBB1909:
 898              	.LBB1906:
 899              		.loc 3 235 0
 900 0374 3B9C0000 		la 28,_ZNSs4_Rep20_S_empty_rep_storageE@l(28)
 901              	.LBE1906:
 902              	.LBE1909:
 903              		.loc 3 534 0
 904 0378 3869FFF4 		addi 3,9,-12
 905              	.LVL78:
 906              	.LBB1910:
 907              	.LBB1907:
 908              		.loc 3 235 0
 909 037c 7F83E000 		cmpw 7,3,28
 910 0380 409E0114 		bne- 7,.L76
 911              	.LVL79:
 912              	.L53:
 913              	.LBE1907:
 914              	.LBE1910:
 915              	.LBE1912:
 916              	.LBE1914:
 917              	.LBE1917:
 918              	.LBE1888:
 919              	.LBE1887:
 920              	.LBB1920:
 921              	.LBB1921:
 922              	.LBB1922:
 923              	.LBB1923:
 924              	.LBB1924:
 925              	.LBB1925:
 926              		.loc 3 288 0
 927 0384 81210010 		lwz 9,16(1)
 928              	.LBE1925:
 929              	.LBE1924:
 930              	.LBE1923:
 931              		.loc 3 534 0
 932 0388 3869FFF4 		addi 3,9,-12
 933              	.LVL80:
 934              	.LBB1926:
 935              	.LBB1927:
 936              		.loc 3 235 0
 937 038c 7F83E000 		cmpw 7,3,28
 938 0390 409E00E4 		bne- 7,.L77
 939              	.LVL81:
 940              	.L62:
 941              	.LBE1927:
 942              	.LBE1926:
 943              	.LBE1922:
 944              	.LBE1921:
 945              	.LBE1920:
 946              		.loc 9 262 0
 947 0394 2F9D0000 		cmpwi 7,29,0
 948              		.loc 9 257 0
 949 0398 3B40FFFF 		li 26,-1
 950              		.loc 9 262 0
 951 039c 419C0068 		blt- 7,.L47
 952              	.LVL82:
 953              	.LBB1938:
 954              	.LBB1939:
 955              		.loc 9 91 0
 956 03a0 419E0064 		beq- 7,.L47
 957              	.LVL83:
 958              	.LBE1939:
 959              	.LBB1940:
 960              	.LBB1941:
 961              		.loc 9 94 0
 962 03a4 38600008 		li 3,8
 963              	.LEHB6:
 964 03a8 48000001 		bl _ZN8MemTools17AllocateMemory_64Ej
 965 03ac 7C7B1B78 		mr 27,3
 966              	.LVL84:
 967              		.loc 9 95 0
 968 03b0 7FA3EB78 		mr 3,29
 969              	.LVL85:
 970 03b4 7F64DB78 		mr 4,27
 971 03b8 48000001 		bl ISFS_GetFileStats
 972              	.LVL86:
 973              		.loc 9 96 0
 974 03bc 2E030000 		cmpwi 4,3,0
 975 03c0 7C7C1B78 		mr 28,3
 976 03c4 4190000C 		blt- 4,.L63
 977              		.loc 9 97 0
 978 03c8 839B0000 		lwz 28,0(27)
 979              	.LVL87:
 980 03cc 2E1C0000 		cmpwi 4,28,0
 981              	.LVL88:
 982              	.L63:
 983              		.loc 9 99 0
 984 03d0 7F63DB78 		mr 3,27
 985 03d4 48000001 		bl free
 986              		.loc 9 101 0
 987 03d8 41900094 		blt- 4,.L78
 988              	.LVL89:
 989              	.LBE1941:
 990              	.LBE1940:
 991              	.LBE1938:
 992              		.loc 9 265 0
 993 03dc 2F9C0000 		cmpwi 7,28,0
 994 03e0 409E0058 		bne- 7,.L79
 995              	.LVL90:
 996              	.L71:
 997              		.loc 9 259 0
 998 03e4 3B600000 		li 27,0
 999              	.LVL91:
 1000              		.loc 9 257 0
 1001 03e8 3B40FFFF 		li 26,-1
 1002              	.LVL92:
 1003              	.L65:
 1004              	.LBB1944:
 1005              	.LBB1945:
 1006              		.loc 9 161 0
 1007 03ec 7FA3EB78 		mr 3,29
 1008 03f0 48000001 		bl ISFS_Close
 1009              	.LVL93:
 1010              	.LBE1945:
 1011              	.LBE1944:
 1012              		.loc 9 278 0
 1013 03f4 2F9A0000 		cmpwi 7,26,0
 1014 03f8 419C00D8 		blt- 7,.L80
 1015              		.loc 9 284 0
 1016 03fc 937F0000 		stw 27,0(31)
 1017              		.loc 9 285 0
 1018 0400 939E0000 		stw 28,0(30)
 1019              	.LVL94:
 1020              	.L47:
 1021              	.LBE1953:
 1022              		.loc 9 288 0
 1023 0404 8001003C 		lwz 0,60(1)
 1024 0408 7F43D378 		mr 3,26
 1025 040c 8181001C 		lwz 12,28(1)
 1026 0410 7C0803A6 		mtlr 0
 1027 0414 83410020 		lwz 26,32(1)
 1028 0418 83610024 		lwz 27,36(1)
 1029 041c 7D808120 		mtcrf 8,12
 1030 0420 83810028 		lwz 28,40(1)
 1031 0424 83A1002C 		lwz 29,44(1)
 1032 0428 83C10030 		lwz 30,48(1)
 1033              	.LVL95:
 1034 042c 83E10034 		lwz 31,52(1)
 1035              	.LVL96:
 1036 0430 38210038 		addi 1,1,56
 1037              		.cfi_remember_state
 1038              	.LCFI7:
 1039              		.cfi_def_cfa_offset 0
 1040              		.cfi_restore 70
 1041              		.cfi_restore 31
 1042              		.cfi_restore 30
 1043              		.cfi_restore 29
 1044              		.cfi_restore 28
 1045              		.cfi_restore 27
 1046              		.cfi_restore 26
 1047 0434 4E800020 		blr
 1048              	.LVL97:
 1049              	.L79:
 1050              	.LCFI8:
 1051              		.cfi_restore_state
 1052              	.LBB1954:
 1053              		.loc 9 267 0
 1054 0438 7F83E378 		mr 3,28
 1055              		.loc 9 257 0
 1056 043c 3B40FFFF 		li 26,-1
 1057              		.loc 9 267 0
 1058 0440 48000001 		bl _ZN8MemTools17AllocateMemory_32Ej
 1059              	.LVL98:
 1060              		.loc 9 268 0
 1061 0444 7C7B1B79 		mr. 27,3
 1062              	.LVL99:
 1063 0448 41A2FFA4 		beq- 0,.L65
 1064              	.LVL100:
 1065              	.LBB1946:
 1066              	.LBB1947:
 1067              		.loc 9 209 0
 1068 044c 7FA3EB78 		mr 3,29
 1069              	.LVL101:
 1070 0450 7F64DB78 		mr 4,27
 1071 0454 7F85E378 		mr 5,28
 1072 0458 48000001 		bl ISFS_Read
 1073 045c 7C7A1B78 		mr 26,3
 1074              	.LVL102:
 1075 0460 4BFFFF8C 		b .L65
 1076              	.LVL103:
 1077              	.L68:
 1078              	.LBE1947:
 1079              	.LBE1946:
 1080              		.loc 9 255 0
 1081 0464 3B40FFFF 		li 26,-1
 1082 0468 4BFFFF9C 		b .L47
 1083              	.LVL104:
 1084              	.L78:
 1085              	.LBB1948:
 1086              	.LBB1943:
 1087              	.LBB1942:
 1088              		.loc 9 101 0
 1089 046c 3B800000 		li 28,0
 1090              	.LVL105:
 1091 0470 4BFFFF74 		b .L71
 1092              	.LVL106:
 1093              	.L77:
 1094              	.LBE1942:
 1095              	.LBE1943:
 1096              	.LBE1948:
 1097              	.LBB1949:
 1098              	.LBB1937:
 1099              	.LBB1936:
 1100              	.LBB1935:
 1101              	.LBB1934:
 1102              	.LBB1928:
 1103              	.LBB1929:
 1104              	.LBB1930:
 1105              		.loc 5 66 0
 1106 0474 8169FFFC 		lwz 11,-4(9)
 1107              	.LVL107:
 1108              	.LBE1930:
 1109              	.LBE1929:
 1110              	.LBE1928:
 1111              		.loc 3 240 0
 1112 0478 2F8B0000 		cmpwi 7,11,0
 1113              	.LBB1933:
 1114              	.LBB1932:
 1115              	.LBB1931:
 1116              		.loc 5 67 0
 1117 047c 396BFFFF 		addi 11,11,-1
 1118 0480 9169FFFC 		stw 11,-4(9)
 1119              	.LBE1931:
 1120              	.LBE1932:
 1121              	.LBE1933:
 1122              		.loc 3 240 0
 1123 0484 419DFF10 		bgt+ 7,.L62
 1124              		.loc 3 244 0
 1125 0488 38810008 		addi 4,1,8
 1126 048c 48000001 		bl _ZNSs4_Rep10_M_destroyERKSaIcE
 1127              	.LVL108:
 1128 0490 4BFFFF04 		b .L62
 1129              	.LVL109:
 1130              	.L76:
 1131              	.LBE1934:
 1132              	.LBE1935:
 1133              	.LBE1936:
 1134              	.LBE1937:
 1135              	.LBE1949:
 1136              	.LBB1950:
 1137              	.LBB1919:
 1138              	.LBB1918:
 1139              	.LBB1915:
 1140              	.LBB1913:
 1141              	.LBB1911:
 1142              	.LBB1908:
 1143              	.LBB1900:
 1144              	.LBB1901:
 1145              	.LBB1902:
 1146              		.loc 5 66 0
 1147 0494 8169FFFC 		lwz 11,-4(9)
 1148              	.LVL110:
 1149              	.LBE1902:
 1150              	.LBE1901:
 1151              	.LBE1900:
 1152              		.loc 3 240 0
 1153 0498 2F8B0000 		cmpwi 7,11,0
 1154              	.LBB1905:
 1155              	.LBB1904:
 1156              	.LBB1903:
 1157              		.loc 5 67 0
 1158 049c 396BFFFF 		addi 11,11,-1
 1159 04a0 9169FFFC 		stw 11,-4(9)
 1160              	.LBE1903:
 1161              	.LBE1904:
 1162              	.LBE1905:
 1163              		.loc 3 240 0
 1164 04a4 419DFEE0 		bgt+ 7,.L53
 1165              		.loc 3 244 0
 1166 04a8 38810009 		addi 4,1,9
 1167 04ac 48000001 		bl _ZNSs4_Rep10_M_destroyERKSaIcE
 1168              	.LVL111:
 1169 04b0 4BFFFED4 		b .L53
 1170              	.LVL112:
 1171              	.L74:
 1172 04b4 7C7F1B78 		mr 31,3
 1173              	.LVL113:
 1174              	.LBE1908:
 1175              	.LBE1911:
 1176              	.LBE1913:
 1177              	.LBE1915:
 1178              	.LBE1918:
 1179              		.loc 9 81 0
 1180 04b8 3861000C 		addi 3,1,12
 1181              	.LVL114:
 1182 04bc 48000001 		bl _ZNSsD1Ev
 1183              	.LVL115:
 1184              	.L57:
 1185              	.LBE1919:
 1186              	.LBE1950:
 1187              		.loc 9 261 0
 1188 04c0 38610010 		addi 3,1,16
 1189              	.LVL116:
 1190 04c4 48000001 		bl _ZNSsD1Ev
 1191              	.LVL117:
 1192 04c8 7FE3FB78 		mr 3,31
 1193 04cc 48000001 		bl _Unwind_Resume
 1194              	.LEHE6:
 1195              	.LVL118:
 1196              	.L80:
 1197              		.loc 9 280 0
 1198 04d0 2F9B0000 		cmpwi 7,27,0
 1199 04d4 41BEFF30 		beq- 7,.L47
 1200 04d8 7F63DB78 		mr 3,27
 1201 04dc 48000001 		bl free
 1202              	.LBE1954:
 1203              		.loc 9 288 0
 1204 04e0 8001003C 		lwz 0,60(1)
 1205 04e4 8181001C 		lwz 12,28(1)
 1206 04e8 7F43D378 		mr 3,26
 1207 04ec 7C0803A6 		mtlr 0
 1208 04f0 83410020 		lwz 26,32(1)
 1209              	.LVL119:
 1210 04f4 83610024 		lwz 27,36(1)
 1211              	.LVL120:
 1212 04f8 7D808120 		mtcrf 8,12
 1213 04fc 83810028 		lwz 28,40(1)
 1214              	.LVL121:
 1215 0500 83A1002C 		lwz 29,44(1)
 1216              	.LVL122:
 1217 0504 83C10030 		lwz 30,48(1)
 1218              	.LVL123:
 1219 0508 83E10034 		lwz 31,52(1)
 1220              	.LVL124:
 1221 050c 38210038 		addi 1,1,56
 1222              		.cfi_remember_state
 1223              		.cfi_restore 26
 1224              		.cfi_restore 27
 1225              		.cfi_restore 28
 1226              		.cfi_restore 29
 1227              		.cfi_restore 30
 1228              		.cfi_restore 31
 1229              		.cfi_restore 70
 1230              	.LCFI9:
 1231              		.cfi_def_cfa_offset 0
 1232 0510 4E800020 		blr
 1233              	.LVL125:
 1234              	.L73:
 1235              	.LCFI10:
 1236              		.cfi_restore_state
 1237 0514 7C7F1B78 		mr 31,3
 1238              	.LVL126:
 1239 0518 4BFFFFA8 		b .L57
 1240              		.cfi_endproc
 1241              	.LFE1253:
 1242              		.section	.gcc_except_table
 1243              	.LLSDA1253:
 1244 0014 FF       		.byte	0xff
 1245 0015 FF       		.byte	0xff
 1246 0016 01       		.byte	0x1
 1247 0017 14       		.uleb128 .LLSDACSE1253-.LLSDACSB1253
 1248              	.LLSDACSB1253:
 1249 0018 50       		.uleb128 .LEHB3-.LFB1253
 1250 0019 04       		.uleb128 .LEHE3-.LEHB3
 1251 001a 00       		.uleb128 0
 1252 001b 00       		.uleb128 0
 1253 001c 5C       		.uleb128 .LEHB4-.LFB1253
 1254 001d 04       		.uleb128 .LEHE4-.LEHB4
 1255 001e 9804     		.uleb128 .L73-.LFB1253
 1256 0020 00       		.uleb128 0
 1257 0021 68       		.uleb128 .LEHB5-.LFB1253
 1258 0022 04       		.uleb128 .LEHE5-.LEHB5
 1259 0023 B803     		.uleb128 .L74-.LFB1253
 1260 0025 00       		.uleb128 0
 1261 0026 AC01     		.uleb128 .LEHB6-.LFB1253
 1262 0028 A802     		.uleb128 .LEHE6-.LEHB6
 1263 002a 00       		.uleb128 0
 1264 002b 00       		.uleb128 0
 1265              	.LLSDACSE1253:
 1266              		.section	".text"
 1267              		.size	_ZN4Nand8LoadFileESsPPhPj.constprop.48, .-_ZN4Nand8LoadFileESsPPhPj.constprop.48
 1268              		.align 2
 1269              		.type	_ZN4Nand11ExtractFileESsSs.constprop.45, @function
 1270              	_ZN4Nand11ExtractFileESsSs.constprop.45:
 1271              	.LFB1256:
 1272              		.loc 9 325 0
 1273              		.cfi_startproc
 1274              		.cfi_personality 0,__gxx_personality_v0
 1275              		.cfi_lsda 0,.LLSDA1256
 1276              	.LVL127:
 1277 051c 7C0802A6 		mflr 0
 1278 0520 9421FFC8 		stwu 1,-56(1)
 1279              	.LCFI11:
 1280              		.cfi_def_cfa_offset 56
 1281              		.cfi_register 65, 0
 1282 0524 93A1002C 		stw 29,44(1)
 1283              	.LBB2065:
 1284              		.loc 9 330 0
 1285 0528 3BA00000 		li 29,0
 1286              		.cfi_offset 29, -12
 1287              	.LBE2065:
 1288              		.loc 9 325 0
 1289 052c 9001003C 		stw 0,60(1)
 1290 0530 93E10034 		stw 31,52(1)
 1291 0534 7C9F2378 		mr 31,4
 1292              		.cfi_offset 31, -4
 1293              		.cfi_offset 65, 4
 1294              	.LBB2178:
 1295              	.LBB2066:
 1296              	.LBB2067:
 1297              	.LBB2068:
 1298              		.loc 3 711 0
 1299 0538 81230000 		lwz 9,0(3)
 1300              	.LBE2068:
 1301              	.LBE2067:
 1302              	.LBE2066:
 1303              	.LBE2178:
 1304              		.loc 9 325 0
 1305 053c 93C10030 		stw 30,48(1)
 1306              	.LBB2179:
 1307              		.loc 9 329 0
 1308 0540 8009FFF4 		lwz 0,-12(9)
 1309 0544 2F800000 		cmpwi 7,0,0
 1310 0548 419E00F8 		beq- 7,.L82
 1311              		.cfi_offset 30, -8
 1312              	.LVL128:
 1313              	.LBB2069:
 1314              	.LBB2070:
 1315              	.LBB2071:
 1316              		.loc 3 711 0
 1317 054c 81240000 		lwz 9,0(4)
 1318              	.LBE2071:
 1319              	.LBE2070:
 1320              	.LBE2069:
 1321              		.loc 9 329 0
 1322 0550 8009FFF4 		lwz 0,-12(9)
 1323 0554 2F800000 		cmpwi 7,0,0
 1324 0558 419E00E8 		beq- 7,.L82
 1325              		.loc 9 335 0
 1326 055c 7C641B78 		mr 4,3
 1327              	.LVL129:
 1328 0560 3861000C 		addi 3,1,12
 1329              	.LVL130:
 1330              		.loc 9 332 0
 1331 0564 93A1001C 		stw 29,28(1)
 1332              	.LVL131:
 1333              		.loc 9 333 0
 1334 0568 93A10018 		stw 29,24(1)
 1335              	.LVL132:
 1336              	.LEHB7:
 1337              		.loc 9 335 0
 1338 056c 48000001 		bl _ZNSsC1ERKSs
 1339              	.LEHE7:
 1340              	.LVL133:
 1341 0570 3861000C 		addi 3,1,12
 1342 0574 3881001C 		addi 4,1,28
 1343 0578 38A10018 		addi 5,1,24
 1344              	.LEHB8:
 1345 057c 4BFFFD81 		bl _ZN4Nand8LoadFileESsPPhPj.constprop.48
 1346              	.LEHE8:
 1347              	.LVL134:
 1348              	.LBB2072:
 1349              	.LBB2073:
 1350              	.LBB2074:
 1351              	.LBB2075:
 1352              	.LBB2076:
 1353              	.LBB2077:
 1354              		.loc 3 288 0
 1355 0580 8121000C 		lwz 9,12(1)
 1356              	.LBE2077:
 1357              	.LBE2076:
 1358              	.LBE2075:
 1359              	.LBB2078:
 1360              	.LBB2079:
 1361              		.loc 3 235 0
 1362 0584 3FC00000 		lis 30,_ZNSs4_Rep20_S_empty_rep_storageE@ha
 1363 0588 3BDE0000 		la 30,_ZNSs4_Rep20_S_empty_rep_storageE@l(30)
 1364              	.LBE2079:
 1365              	.LBE2078:
 1366              		.loc 3 534 0
 1367 058c 3869FFF4 		addi 3,9,-12
 1368              	.LVL135:
 1369              	.LBB2088:
 1370              	.LBB2086:
 1371              		.loc 3 235 0
 1372 0590 7F83F000 		cmpw 7,3,30
 1373 0594 409E0164 		bne- 7,.L113
 1374              	.LVL136:
 1375              	.L89:
 1376              	.LBE2086:
 1377              	.LBE2088:
 1378              	.LBE2074:
 1379              	.LBE2073:
 1380              	.LBE2072:
 1381              	.LBB2092:
 1382              		.loc 9 336 0
 1383 0598 8001001C 		lwz 0,28(1)
 1384 059c 2F800000 		cmpwi 7,0,0
 1385 05a0 419E00E0 		beq- 7,.L104
 1386              	.LBB2093:
 1387              		.loc 9 338 0
 1388 05a4 38610014 		addi 3,1,20
 1389 05a8 7FE4FB78 		mr 4,31
 1390              	.LEHB9:
 1391 05ac 48000001 		bl _ZNSsC1ERKSs
 1392              	.LEHE9:
 1393              	.LVL137:
 1394              	.LBB2094:
 1395              	.LBB2095:
 1396              		.loc 3 2005 0
 1397 05b0 3C800000 		lis 4,.LC0@ha
 1398 05b4 38610014 		addi 3,1,20
 1399              	.LVL138:
 1400 05b8 38840000 		la 4,.LC0@l(4)
 1401 05bc 38A0FFFF 		li 5,-1
 1402 05c0 38C00001 		li 6,1
 1403              	.LEHB10:
 1404 05c4 48000001 		bl _ZNKSs12find_last_ofEPKcjj
 1405              	.LVL139:
 1406              	.LBE2095:
 1407              	.LBE2094:
 1408              	.LBB2096:
 1409              		.loc 9 340 0
 1410 05c8 2F83FFFF 		cmpwi 7,3,-1
 1411 05cc 419E00AC 		beq- 7,.L107
 1412              	.LBB2097:
 1413              	.LBB2098:
 1414              	.LBB2099:
 1415              	.LBB2100:
 1416              	.LBB2101:
 1417              	.LBB2102:
 1418              	.LBB2103:
 1419              		.loc 3 711 0
 1420 05d0 81210014 		lwz 9,20(1)
 1421              	.LBE2103:
 1422              	.LBE2102:
 1423              	.LBE2101:
 1424              	.LBE2100:
 1425              	.LBE2099:
 1426              	.LBE2098:
 1427              		.loc 9 342 0
 1428 05d4 38830001 		addi 4,3,1
 1429              	.LVL140:
 1430              	.LBB2112:
 1431              	.LBB2110:
 1432              	.LBB2108:
 1433              	.LBB2106:
 1434              	.LBB2105:
 1435              	.LBB2104:
 1436              		.loc 3 711 0
 1437 05d8 80A9FFF4 		lwz 5,-12(9)
 1438              	.LBE2104:
 1439              	.LBE2105:
 1440              		.loc 3 318 0
 1441 05dc 7F842840 		cmplw 7,4,5
 1442 05e0 419D0158 		bgt- 7,.L114
 1443              	.LVL141:
 1444              	.LBE2106:
 1445              	.LBE2108:
 1446              		.loc 3 1349 0
 1447 05e4 38610014 		addi 3,1,20
 1448              	.LVL142:
 1449 05e8 7CA42850 		subf 5,4,5
 1450 05ec 38C00000 		li 6,0
 1451 05f0 48000001 		bl _ZNSs9_M_mutateEjjj
 1452              	.LVL143:
 1453              	.LBE2110:
 1454              	.LBE2112:
 1455              	.LBB2113:
 1456              		.loc 9 343 0
 1457 05f4 38610010 		addi 3,1,16
 1458 05f8 38810014 		addi 4,1,20
 1459              	.LVL144:
 1460 05fc 48000001 		bl _ZNSsC1ERKSs
 1461              	.LEHE10:
 1462              	.LVL145:
 1463 0600 38610010 		addi 3,1,16
 1464              	.LEHB11:
 1465 0604 48000001 		bl _Z15CreateSubfolderSs
 1466              	.LEHE11:
 1467              	.LBB2114:
 1468              	.LBB2115:
 1469              	.LBB2116:
 1470              	.LBB2117:
 1471              	.LBB2118:
 1472              	.LBB2119:
 1473              		.loc 3 288 0
 1474 0608 81210010 		lwz 9,16(1)
 1475              	.LBE2119:
 1476              	.LBE2118:
 1477              	.LBE2117:
 1478              	.LBE2116:
 1479              	.LBE2115:
 1480              	.LBE2114:
 1481              		.loc 9 343 0
 1482 060c 7C7D1B78 		mr 29,3
 1483              	.LVL146:
 1484              	.LBB2134:
 1485              	.LBB2132:
 1486              	.LBB2130:
 1487              		.loc 3 534 0
 1488 0610 3869FFF4 		addi 3,9,-12
 1489              	.LVL147:
 1490              	.LBB2120:
 1491              	.LBB2121:
 1492              		.loc 3 235 0
 1493 0614 7F83F000 		cmpw 7,3,30
 1494 0618 409E0100 		bne- 7,.L115
 1495              	.LVL148:
 1496              	.L97:
 1497              	.LBE2121:
 1498              	.LBE2120:
 1499              	.LBE2130:
 1500              	.LBE2132:
 1501              	.LBE2134:
 1502              		.loc 9 343 0
 1503 061c 2F9D0000 		cmpwi 7,29,0
 1504              		.loc 9 327 0
 1505 0620 3BA00000 		li 29,0
 1506              		.loc 9 343 0
 1507 0624 409E003C 		bne- 7,.L116
 1508              	.LVL149:
 1509              	.L90:
 1510              	.LBE2113:
 1511              	.LBE2097:
 1512              	.LBE2096:
 1513              		.loc 9 355 0
 1514 0628 8061001C 		lwz 3,28(1)
 1515 062c 48000001 		bl free
 1516              	.LVL150:
 1517              	.LBB2147:
 1518              	.LBB2148:
 1519              	.LBB2149:
 1520              	.LBB2150:
 1521              	.LBB2151:
 1522              		.loc 3 288 0
 1523 0630 81210014 		lwz 9,20(1)
 1524              	.LBE2151:
 1525              	.LBE2150:
 1526              	.LBE2149:
 1527              		.loc 3 534 0
 1528 0634 3869FFF4 		addi 3,9,-12
 1529              	.LVL151:
 1530              	.LBB2152:
 1531              	.LBB2153:
 1532              		.loc 3 235 0
 1533 0638 7F83F000 		cmpw 7,3,30
 1534 063c 409E009C 		bne- 7,.L117
 1535              	.LVL152:
 1536              	.L82:
 1537              	.LBE2153:
 1538              	.LBE2152:
 1539              	.LBE2148:
 1540              	.LBE2147:
 1541              	.LBE2093:
 1542              	.LBE2092:
 1543              	.LBE2179:
 1544              		.loc 9 359 0
 1545 0640 8001003C 		lwz 0,60(1)
 1546 0644 7FA3EB78 		mr 3,29
 1547 0648 83C10030 		lwz 30,48(1)
 1548 064c 7C0803A6 		mtlr 0
 1549 0650 83A1002C 		lwz 29,44(1)
 1550 0654 83E10034 		lwz 31,52(1)
 1551 0658 38210038 		addi 1,1,56
 1552              		.cfi_remember_state
 1553              	.LCFI12:
 1554              		.cfi_def_cfa_offset 0
 1555              		.cfi_restore 31
 1556              		.cfi_restore 30
 1557              		.cfi_restore 29
 1558 065c 4E800020 		blr
 1559              	.LVL153:
 1560              	.L116:
 1561              	.LCFI13:
 1562              		.cfi_restore_state
 1563              	.LBB2180:
 1564              	.LBB2172:
 1565              	.LBB2168:
 1566              	.LBB2163:
 1567              	.LBB2143:
 1568              	.LBB2138:
 1569              	.LBB2135:
 1570              		.loc 9 345 0
 1571 0660 3C800000 		lis 4,.LC2@ha
 1572 0664 807F0000 		lwz 3,0(31)
 1573 0668 38840018 		la 4,.LC2@l(4)
 1574              	.LEHB12:
 1575 066c 48000001 		bl fopen
 1576              	.LVL154:
 1577              		.loc 9 346 0
 1578 0670 7C7F1B79 		mr. 31,3
 1579              	.LVL155:
 1580 0674 40A20030 		bne+ 0,.L118
 1581              	.LVL156:
 1582              	.L107:
 1583              		.loc 9 327 0
 1584 0678 3BA00000 		li 29,0
 1585 067c 4BFFFFAC 		b .L90
 1586              	.LVL157:
 1587              	.L104:
 1588              	.LBE2135:
 1589              	.LBE2138:
 1590              	.LBE2143:
 1591              	.LBE2163:
 1592              	.LBE2168:
 1593              	.LBE2172:
 1594              	.LBE2180:
 1595              		.loc 9 359 0
 1596 0680 8001003C 		lwz 0,60(1)
 1597              	.LBB2181:
 1598              	.LBB2173:
 1599              		.loc 9 327 0
 1600 0684 3BA00000 		li 29,0
 1601              	.LBE2173:
 1602              	.LBE2181:
 1603              		.loc 9 359 0
 1604 0688 7FA3EB78 		mr 3,29
 1605 068c 83C10030 		lwz 30,48(1)
 1606 0690 7C0803A6 		mtlr 0
 1607 0694 83A1002C 		lwz 29,44(1)
 1608 0698 83E10034 		lwz 31,52(1)
 1609              	.LVL158:
 1610 069c 38210038 		addi 1,1,56
 1611              		.cfi_remember_state
 1612              		.cfi_restore 29
 1613              		.cfi_restore 30
 1614              		.cfi_restore 31
 1615              	.LCFI14:
 1616              		.cfi_def_cfa_offset 0
 1617 06a0 4E800020 		blr
 1618              	.LVL159:
 1619              	.L118:
 1620              	.LCFI15:
 1621              		.cfi_restore_state
 1622              	.LBB2182:
 1623              	.LBB2174:
 1624              	.LBB2169:
 1625              	.LBB2164:
 1626              	.LBB2144:
 1627              	.LBB2139:
 1628              	.LBB2136:
 1629              		.loc 9 348 0
 1630 06a4 8061001C 		lwz 3,28(1)
 1631              	.LVL160:
 1632 06a8 38800001 		li 4,1
 1633 06ac 80A10018 		lwz 5,24(1)
 1634 06b0 7FE6FB78 		mr 6,31
 1635 06b4 48000001 		bl fwrite
 1636 06b8 7C7D1B78 		mr 29,3
 1637              		.loc 9 351 0
 1638 06bc 7FE3FB78 		mr 3,31
 1639              		.loc 9 348 0
 1640 06c0 83E10018 		lwz 31,24(1)
 1641              	.LVL161:
 1642              		.loc 9 351 0
 1643 06c4 48000001 		bl fclose
 1644              	.LVL162:
 1645              		.loc 9 325 0
 1646 06c8 7FBDFA78 		xor 29,29,31
 1647              	.LVL163:
 1648 06cc 7FBD0034 		cntlzw 29,29
 1649 06d0 57BDD97E 		srwi 29,29,5
 1650 06d4 4BFFFF54 		b .L90
 1651              	.LVL164:
 1652              	.L117:
 1653              	.LBE2136:
 1654              	.LBE2139:
 1655              	.LBE2144:
 1656              	.LBE2164:
 1657              	.LBB2165:
 1658              	.LBB2162:
 1659              	.LBB2161:
 1660              	.LBB2160:
 1661              	.LBB2154:
 1662              	.LBB2155:
 1663              	.LBB2156:
 1664              		.loc 5 66 0
 1665 06d8 8169FFFC 		lwz 11,-4(9)
 1666              	.LVL165:
 1667              	.LBE2156:
 1668              	.LBE2155:
 1669              	.LBE2154:
 1670              		.loc 3 240 0
 1671 06dc 2F8B0000 		cmpwi 7,11,0
 1672              	.LBB2159:
 1673              	.LBB2158:
 1674              	.LBB2157:
 1675              		.loc 5 67 0
 1676 06e0 396BFFFF 		addi 11,11,-1
 1677 06e4 9169FFFC 		stw 11,-4(9)
 1678              	.LBE2157:
 1679              	.LBE2158:
 1680              	.LBE2159:
 1681              		.loc 3 240 0
 1682 06e8 419DFF58 		bgt+ 7,.L82
 1683              		.loc 3 244 0
 1684 06ec 38810008 		addi 4,1,8
 1685 06f0 48000001 		bl _ZNSs4_Rep10_M_destroyERKSaIcE
 1686              	.LVL166:
 1687 06f4 4BFFFF4C 		b .L82
 1688              	.LVL167:
 1689              	.L113:
 1690              	.LBE2160:
 1691              	.LBE2161:
 1692              	.LBE2162:
 1693              	.LBE2165:
 1694              	.LBE2169:
 1695              	.LBE2174:
 1696              	.LBB2175:
 1697              	.LBB2091:
 1698              	.LBB2090:
 1699              	.LBB2089:
 1700              	.LBB2087:
 1701              	.LBB2080:
 1702              	.LBB2081:
 1703              	.LBB2082:
 1704              		.loc 5 66 0
 1705 06f8 8169FFFC 		lwz 11,-4(9)
 1706              	.LVL168:
 1707              	.LBE2082:
 1708              	.LBE2081:
 1709              	.LBE2080:
 1710              		.loc 3 240 0
 1711 06fc 2F8B0000 		cmpwi 7,11,0
 1712              	.LBB2085:
 1713              	.LBB2084:
 1714              	.LBB2083:
 1715              		.loc 5 67 0
 1716 0700 396BFFFF 		addi 11,11,-1
 1717 0704 9169FFFC 		stw 11,-4(9)
 1718              	.LBE2083:
 1719              	.LBE2084:
 1720              	.LBE2085:
 1721              		.loc 3 240 0
 1722 0708 419DFE90 		bgt+ 7,.L89
 1723              		.loc 3 244 0
 1724 070c 3881000A 		addi 4,1,10
 1725 0710 48000001 		bl _ZNSs4_Rep10_M_destroyERKSaIcE
 1726              	.LVL169:
 1727 0714 4BFFFE84 		b .L89
 1728              	.LVL170:
 1729              	.L115:
 1730              	.LBE2087:
 1731              	.LBE2089:
 1732              	.LBE2090:
 1733              	.LBE2091:
 1734              	.LBE2175:
 1735              	.LBB2176:
 1736              	.LBB2170:
 1737              	.LBB2166:
 1738              	.LBB2145:
 1739              	.LBB2140:
 1740              	.LBB2137:
 1741              	.LBB2133:
 1742              	.LBB2131:
 1743              	.LBB2129:
 1744              	.LBB2128:
 1745              	.LBB2122:
 1746              	.LBB2123:
 1747              	.LBB2124:
 1748              		.loc 5 66 0
 1749 0718 8169FFFC 		lwz 11,-4(9)
 1750              	.LVL171:
 1751              	.LBE2124:
 1752              	.LBE2123:
 1753              	.LBE2122:
 1754              		.loc 3 240 0
 1755 071c 2F8B0000 		cmpwi 7,11,0
 1756              	.LBB2127:
 1757              	.LBB2126:
 1758              	.LBB2125:
 1759              		.loc 5 67 0
 1760 0720 396BFFFF 		addi 11,11,-1
 1761 0724 9169FFFC 		stw 11,-4(9)
 1762              	.LBE2125:
 1763              	.LBE2126:
 1764              	.LBE2127:
 1765              		.loc 3 240 0
 1766 0728 419DFEF4 		bgt+ 7,.L97
 1767              		.loc 3 244 0
 1768 072c 38810009 		addi 4,1,9
 1769 0730 48000001 		bl _ZNSs4_Rep10_M_destroyERKSaIcE
 1770              	.LVL172:
 1771 0734 4BFFFEE8 		b .L97
 1772              	.LVL173:
 1773              	.L114:
 1774              	.LBE2128:
 1775              	.LBE2129:
 1776              	.LBE2131:
 1777              	.LBE2133:
 1778              	.LBE2137:
 1779              	.LBE2140:
 1780              	.LBB2141:
 1781              	.LBB2111:
 1782              	.LBB2109:
 1783              	.LBB2107:
 1784              		.loc 3 319 0
 1785 0738 3C600000 		lis 3,.LC1@ha
 1786 073c 38630004 		la 3,.LC1@l(3)
 1787 0740 48000001 		bl _ZSt20__throw_out_of_rangePKc
 1788              	.LEHE12:
 1789              	.LVL174:
 1790              	.L108:
 1791 0744 7C7F1B78 		mr 31,3
 1792              	.L100:
 1793              	.LBE2107:
 1794              	.LBE2109:
 1795              	.LBE2111:
 1796              	.LBE2141:
 1797              	.LBE2145:
 1798              	.LBE2166:
 1799              		.loc 9 355 0
 1800 0748 38610014 		addi 3,1,20
 1801              	.LVL175:
 1802 074c 48000001 		bl _ZNSsD1Ev
 1803              	.LVL176:
 1804 0750 7FE3FB78 		mr 3,31
 1805              	.LEHB13:
 1806 0754 48000001 		bl _Unwind_Resume
 1807              	.LVL177:
 1808              	.L110:
 1809 0758 7C7F1B78 		mr 31,3
 1810              	.LVL178:
 1811              	.LBE2170:
 1812              	.LBE2176:
 1813              		.loc 9 335 0
 1814 075c 3861000C 		addi 3,1,12
 1815 0760 48000001 		bl _ZNSsD1Ev
 1816 0764 7FE3FB78 		mr 3,31
 1817 0768 48000001 		bl _Unwind_Resume
 1818              	.LEHE13:
 1819              	.LVL179:
 1820              	.L109:
 1821 076c 7C7F1B78 		mr 31,3
 1822              	.LVL180:
 1823              	.LBB2177:
 1824              	.LBB2171:
 1825              	.LBB2167:
 1826              	.LBB2146:
 1827              	.LBB2142:
 1828              		.loc 9 343 0
 1829 0770 38610010 		addi 3,1,16
 1830 0774 48000001 		bl _ZNSsD1Ev
 1831 0778 4BFFFFD0 		b .L100
 1832              	.LBE2142:
 1833              	.LBE2146:
 1834              	.LBE2167:
 1835              	.LBE2171:
 1836              	.LBE2177:
 1837              	.LBE2182:
 1838              		.cfi_endproc
 1839              	.LFE1256:
 1840              		.section	.gcc_except_table
 1841              	.LLSDA1256:
 1842 002c FF       		.byte	0xff
 1843 002d FF       		.byte	0xff
 1844 002e 01       		.byte	0x1
 1845 002f 26       		.uleb128 .LLSDACSE1256-.LLSDACSB1256
 1846              	.LLSDACSB1256:
 1847 0030 50       		.uleb128 .LEHB7-.LFB1256
 1848 0031 04       		.uleb128 .LEHE7-.LEHB7
 1849 0032 00       		.uleb128 0
 1850 0033 00       		.uleb128 0
 1851 0034 60       		.uleb128 .LEHB8-.LFB1256
 1852 0035 04       		.uleb128 .LEHE8-.LEHB8
 1853 0036 BC04     		.uleb128 .L110-.LFB1256
 1854 0038 00       		.uleb128 0
 1855 0039 9001     		.uleb128 .LEHB9-.LFB1256
 1856 003b 04       		.uleb128 .LEHE9-.LEHB9
 1857 003c 00       		.uleb128 0
 1858 003d 00       		.uleb128 0
 1859 003e A801     		.uleb128 .LEHB10-.LFB1256
 1860 0040 3C       		.uleb128 .LEHE10-.LEHB10
 1861 0041 A804     		.uleb128 .L108-.LFB1256
 1862 0043 00       		.uleb128 0
 1863 0044 E801     		.uleb128 .LEHB11-.LFB1256
 1864 0046 04       		.uleb128 .LEHE11-.LEHB11
 1865 0047 D004     		.uleb128 .L109-.LFB1256
 1866 0049 00       		.uleb128 0
 1867 004a D002     		.uleb128 .LEHB12-.LFB1256
 1868 004c D801     		.uleb128 .LEHE12-.LEHB12
 1869 004e A804     		.uleb128 .L108-.LFB1256
 1870 0050 00       		.uleb128 0
 1871 0051 B804     		.uleb128 .LEHB13-.LFB1256
 1872 0053 18       		.uleb128 .LEHE13-.LEHB13
 1873 0054 00       		.uleb128 0
 1874 0055 00       		.uleb128 0
 1875              	.LLSDACSE1256:
 1876              		.section	".text"
 1877              		.size	_ZN4Nand11ExtractFileESsSs.constprop.45, .-_ZN4Nand11ExtractFileESsSs.constprop.45
 1878              		.align 2
 1879              		.type	_ZN4Nand9CreateDirESs.constprop.50, @function
 1880              	_ZN4Nand9CreateDirESs.constprop.50:
 1881              	.LFB1251:
 1882              		.loc 9 33 0
 1883              		.cfi_startproc
 1884              		.cfi_personality 0,__gxx_personality_v0
 1885              		.cfi_lsda 0,.LLSDA1251
 1886              	.LVL181:
 1887 077c 7C0802A6 		mflr 0
 1888 0780 9421FFD8 		stwu 1,-40(1)
 1889              	.LCFI16:
 1890              		.cfi_def_cfa_offset 40
 1891              		.cfi_register 65, 0
 1892 0784 7D800026 		mfcr 12
 1893              	.LBB2330:
 1894              		.loc 9 35 0
 1895 0788 38800000 		li 4,0
 1896              	.LBE2330:
 1897              		.loc 9 33 0
 1898 078c 93E10024 		stw 31,36(1)
 1899 0790 7C7F1B78 		mr 31,3
 1900              		.cfi_offset 31, -4
 1901              		.cfi_register 70, 12
 1902              	.LVL182:
 1903 0794 9001002C 		stw 0,44(1)
 1904              	.LBB2430:
 1905              		.loc 9 35 0
 1906 0798 38A00003 		li 5,3
 1907 079c 38C00003 		li 6,3
 1908 07a0 38E00003 		li 7,3
 1909 07a4 80630000 		lwz 3,0(3)
 1910              	.LVL183:
 1911              	.LBE2430:
 1912              		.loc 9 33 0
 1913 07a8 93C10020 		stw 30,32(1)
 1914 07ac 93A1001C 		stw 29,28(1)
 1915 07b0 91810018 		stw 12,24(1)
 1916              	.LEHB14:
 1917              	.LBB2431:
 1918              		.loc 9 35 0
 1919              		.cfi_offset 70, -16
 1920              		.cfi_offset 29, -12
 1921              		.cfi_offset 30, -8
 1922              		.cfi_offset 65, 4
 1923 07b4 48000001 		bl ISFS_CreateDir
 1924              	.LVL184:
 1925              	.LBB2331:
 1926              		.loc 9 36 0
 1927 07b8 2E030000 		cmpwi 4,3,0
 1928 07bc 7C7E1B78 		mr 30,3
 1929 07c0 41900070 		blt- 4,.L158
 1930              	.LVL185:
 1931              	.L120:
 1932              	.LBE2331:
 1933              		.loc 9 57 0
 1934 07c4 807F0000 		lwz 3,0(31)
 1935 07c8 38800000 		li 4,0
 1936 07cc 38A00000 		li 5,0
 1937 07d0 38C00000 		li 6,0
 1938 07d4 38E00003 		li 7,3
 1939 07d8 39000003 		li 8,3
 1940 07dc 39200003 		li 9,3
 1941 07e0 48000001 		bl ISFS_SetAttr
 1942 07e4 7C7E1B78 		mr 30,3
 1943              	.LVL186:
 1944              	.L147:
 1945              	.LBE2431:
 1946              		.loc 9 60 0
 1947 07e8 8001002C 		lwz 0,44(1)
 1948 07ec 7FC3F378 		mr 3,30
 1949 07f0 81810018 		lwz 12,24(1)
 1950 07f4 7C0803A6 		mtlr 0
 1951 07f8 83A1001C 		lwz 29,28(1)
 1952 07fc 83C10020 		lwz 30,32(1)
 1953              	.LVL187:
 1954 0800 7D808120 		mtcrf 8,12
 1955 0804 83E10024 		lwz 31,36(1)
 1956              	.LVL188:
 1957 0808 38210028 		addi 1,1,40
 1958              		.cfi_remember_state
 1959              	.LCFI17:
 1960              		.cfi_def_cfa_offset 0
 1961              		.cfi_restore 70
 1962              		.cfi_restore 31
 1963              		.cfi_restore 30
 1964              		.cfi_restore 29
 1965 080c 4E800020 		blr
 1966              	.LVL189:
 1967              	.L126:
 1968              	.LCFI18:
 1969              		.cfi_restore_state
 1970              	.LBB2432:
 1971              	.LBB2427:
 1972              	.LBB2332:
 1973              	.LBB2333:
 1974              	.LBB2334:
 1975              		.loc 3 711 0
 1976 0810 8129FFF4 		lwz 9,-12(9)
 1977              	.LBE2334:
 1978              	.LBE2333:
 1979              		.loc 9 39 0
 1980 0814 3889FFFF 		addi 4,9,-1
 1981              	.LVL190:
 1982              	.LBB2335:
 1983              	.LBB2336:
 1984              	.LBB2337:
 1985              	.LBB2338:
 1986              		.loc 3 318 0
 1987 0818 7F892040 		cmplw 7,9,4
 1988 081c 419C016C 		blt- 7,.L160
 1989              	.LVL191:
 1990              	.LBE2338:
 1991              	.LBE2337:
 1992              		.loc 3 1349 0
 1993 0820 7FE3FB78 		mr 3,31
 1994 0824 38A00001 		li 5,1
 1995 0828 38C00000 		li 6,0
 1996 082c 48000001 		bl _ZNSs9_M_mutateEjjj
 1997              	.LVL192:
 1998              	.L158:
 1999              	.LBE2336:
 2000              	.LBE2335:
 2001              	.LBB2342:
 2002              	.LBB2343:
 2003              	.LBB2344:
 2004              	.LBB2345:
 2005              	.LBB2346:
 2006              		.loc 3 288 0
 2007 0830 813F0000 		lwz 9,0(31)
 2008              	.LBE2346:
 2009              	.LBE2345:
 2010              	.LBE2344:
 2011              		.loc 3 711 0
 2012 0834 83A9FFF4 		lwz 29,-12(9)
 2013              	.LVL193:
 2014              	.LBE2343:
 2015              	.LBE2342:
 2016              	.LBB2347:
 2017              	.LBB2348:
 2018              		.loc 3 911 0
 2019 0838 2F9D0000 		cmpwi 7,29,0
 2020 083c 3BBDFFFF 		addi 29,29,-1
 2021 0840 419E0154 		beq- 7,.L161
 2022              	.LVL194:
 2023              	.LBB2349:
 2024              	.LBB2350:
 2025              		.loc 3 311 0
 2026 0844 8009FFFC 		lwz 0,-4(9)
 2027 0848 2F800000 		cmpwi 7,0,0
 2028 084c 419C0010 		blt- 7,.L125
 2029              		.loc 3 312 0
 2030 0850 7FE3FB78 		mr 3,31
 2031 0854 48000001 		bl _ZNSs12_M_leak_hardEv
 2032              	.LVL195:
 2033 0858 813F0000 		lwz 9,0(31)
 2034              	.L125:
 2035              	.LBE2350:
 2036              	.LBE2349:
 2037              	.LBE2348:
 2038              	.LBE2347:
 2039              		.loc 9 38 0
 2040 085c 7C09E8AE 		lbzx 0,9,29
 2041 0860 2F80002F 		cmpwi 7,0,47
 2042 0864 419EFFAC 		beq+ 7,.L126
 2043              		.loc 9 41 0
 2044 0868 38610010 		addi 3,1,16
 2045 086c 7FE4FB78 		mr 4,31
 2046 0870 48000001 		bl _ZNSsC1ERKSs
 2047              	.LEHE14:
 2048              	.LVL196:
 2049              	.LBB2352:
 2050              	.LBB2353:
 2051              		.loc 3 2005 0
 2052 0874 3C800000 		lis 4,.LC0@ha
 2053 0878 38610010 		addi 3,1,16
 2054              	.LVL197:
 2055 087c 38840000 		la 4,.LC0@l(4)
 2056 0880 38A0FFFF 		li 5,-1
 2057 0884 38C00001 		li 6,1
 2058              	.LEHB15:
 2059 0888 48000001 		bl _ZNKSs12find_last_ofEPKcjj
 2060              	.LVL198:
 2061              	.LBE2353:
 2062              	.LBE2352:
 2063              		.loc 9 43 0
 2064 088c 2F83FFFF 		cmpwi 7,3,-1
 2065 0890 419E00BC 		beq- 7,.L162
 2066              	.LVL199:
 2067              	.LBB2354:
 2068              	.LBB2355:
 2069              	.LBB2356:
 2070              	.LBB2357:
 2071              	.LBB2358:
 2072              	.LBB2359:
 2073              		.loc 3 711 0
 2074 0894 81210010 		lwz 9,16(1)
 2075 0898 80A9FFF4 		lwz 5,-12(9)
 2076              	.LBE2359:
 2077              	.LBE2358:
 2078              		.loc 3 318 0
 2079 089c 7F832840 		cmplw 7,3,5
 2080 08a0 419D0140 		bgt- 7,.L163
 2081              	.LVL200:
 2082              	.LBE2357:
 2083              	.LBE2356:
 2084              		.loc 3 1349 0
 2085 08a4 7C641B78 		mr 4,3
 2086 08a8 38C00000 		li 6,0
 2087 08ac 38610010 		addi 3,1,16
 2088              	.LVL201:
 2089 08b0 7CA42850 		subf 5,4,5
 2090 08b4 48000001 		bl _ZNSs9_M_mutateEjjj
 2091              	.LVL202:
 2092              	.LBE2355:
 2093              	.LBE2354:
 2094              		.loc 9 46 0
 2095 08b8 3861000C 		addi 3,1,12
 2096 08bc 38810010 		addi 4,1,16
 2097              	.LVL203:
 2098 08c0 48000001 		bl _ZNSsC1ERKSs
 2099              	.LEHE15:
 2100              	.LVL204:
 2101 08c4 3861000C 		addi 3,1,12
 2102              	.LEHB16:
 2103 08c8 4BFFFEB5 		bl _ZN4Nand9CreateDirESs.constprop.50
 2104              	.LEHE16:
 2105              	.LBB2363:
 2106              	.LBB2364:
 2107              	.LBB2365:
 2108              	.LBB2366:
 2109              	.LBB2367:
 2110              	.LBB2368:
 2111              		.loc 3 288 0
 2112 08cc 8121000C 		lwz 9,12(1)
 2113              	.LBE2368:
 2114              	.LBE2367:
 2115              	.LBE2366:
 2116              	.LBB2369:
 2117              	.LBB2370:
 2118              		.loc 3 235 0
 2119 08d0 3FA00000 		lis 29,_ZNSs4_Rep20_S_empty_rep_storageE@ha
 2120              	.LVL205:
 2121              	.LBE2370:
 2122              	.LBE2369:
 2123              	.LBE2365:
 2124              	.LBE2364:
 2125              	.LBE2363:
 2126              		.loc 9 46 0
 2127 08d4 7C7E1B78 		mr 30,3
 2128              	.LVL206:
 2129              	.LBB2387:
 2130              	.LBB2385:
 2131              	.LBB2383:
 2132              	.LBB2380:
 2133              	.LBB2377:
 2134              		.loc 3 235 0
 2135 08d8 3BBD0000 		la 29,_ZNSs4_Rep20_S_empty_rep_storageE@l(29)
 2136              	.LBE2377:
 2137              	.LBE2380:
 2138              		.loc 3 534 0
 2139 08dc 3869FFF4 		addi 3,9,-12
 2140              	.LVL207:
 2141              	.LBB2381:
 2142              	.LBB2378:
 2143              		.loc 3 235 0
 2144 08e0 7F83E800 		cmpw 7,3,29
 2145 08e4 409E0108 		bne- 7,.L164
 2146              	.LVL208:
 2147              	.L134:
 2148              	.LBE2378:
 2149              	.LBE2381:
 2150              	.LBE2383:
 2151              	.LBE2385:
 2152              	.LBE2387:
 2153              		.loc 9 47 0
 2154 08e8 2F9E0000 		cmpwi 7,30,0
 2155 08ec 419C006C 		blt- 7,.L165
 2156              	.LVL209:
 2157              		.loc 9 50 0
 2158 08f0 807F0000 		lwz 3,0(31)
 2159 08f4 38800000 		li 4,0
 2160 08f8 38A00003 		li 5,3
 2161 08fc 38C00003 		li 6,3
 2162 0900 38E00003 		li 7,3
 2163              	.LEHB17:
 2164 0904 48000001 		bl ISFS_CreateDir
 2165              	.LEHE17:
 2166 0908 2E030000 		cmpwi 4,3,0
 2167 090c 7C7E1B78 		mr 30,3
 2168              	.LVL210:
 2169              	.L127:
 2170              	.LBB2388:
 2171              	.LBB2389:
 2172              	.LBB2390:
 2173              	.LBB2391:
 2174              	.LBB2392:
 2175              	.LBB2393:
 2176              		.loc 3 288 0
 2177 0910 81210010 		lwz 9,16(1)
 2178              	.LBE2393:
 2179              	.LBE2392:
 2180              	.LBE2391:
 2181              		.loc 3 534 0
 2182 0914 3869FFF4 		addi 3,9,-12
 2183              	.LVL211:
 2184              	.LBB2394:
 2185              	.LBB2395:
 2186              		.loc 3 235 0
 2187 0918 7F83E800 		cmpw 7,3,29
 2188 091c 409E0084 		bne- 7,.L166
 2189              	.L142:
 2190              	.LBE2395:
 2191              	.LBE2394:
 2192              	.LBE2390:
 2193              	.LBE2389:
 2194              	.LBE2388:
 2195              	.LBE2332:
 2196              	.LBE2427:
 2197              		.loc 9 54 0
 2198 0920 40B0FEA4 		bge- 4,.L120
 2199              	.LVL212:
 2200              	.L159:
 2201              	.LBE2432:
 2202              		.loc 9 60 0
 2203 0924 8001002C 		lwz 0,44(1)
 2204 0928 7FC3F378 		mr 3,30
 2205 092c 81810018 		lwz 12,24(1)
 2206 0930 7C0803A6 		mtlr 0
 2207 0934 83A1001C 		lwz 29,28(1)
 2208 0938 83C10020 		lwz 30,32(1)
 2209              	.LVL213:
 2210 093c 7D808120 		mtcrf 8,12
 2211 0940 83E10024 		lwz 31,36(1)
 2212              	.LVL214:
 2213 0944 38210028 		addi 1,1,40
 2214              		.cfi_remember_state
 2215              		.cfi_restore 29
 2216              		.cfi_restore 30
 2217              		.cfi_restore 31
 2218              		.cfi_restore 70
 2219              	.LCFI19:
 2220              		.cfi_def_cfa_offset 0
 2221 0948 4E800020 		blr
 2222              	.LVL215:
 2223              	.L162:
 2224              	.LCFI20:
 2225              		.cfi_restore_state
 2226 094c 3FA00000 		lis 29,_ZNSs4_Rep20_S_empty_rep_storageE@ha
 2227              	.LVL216:
 2228 0950 3BBD0000 		la 29,_ZNSs4_Rep20_S_empty_rep_storageE@l(29)
 2229 0954 4BFFFFBC 		b .L127
 2230              	.LVL217:
 2231              	.L165:
 2232              	.LBB2433:
 2233              	.LBB2428:
 2234              	.LBB2425:
 2235              	.LBB2406:
 2236              	.LBB2407:
 2237              	.LBB2408:
 2238              	.LBB2409:
 2239              	.LBB2410:
 2240              	.LBB2411:
 2241              		.loc 3 288 0
 2242 0958 81210010 		lwz 9,16(1)
 2243              	.LBE2411:
 2244              	.LBE2410:
 2245              	.LBE2409:
 2246              		.loc 3 534 0
 2247 095c 3869FFF4 		addi 3,9,-12
 2248              	.LVL218:
 2249              	.LBB2412:
 2250              	.LBB2413:
 2251              		.loc 3 235 0
 2252 0960 7F83E800 		cmpw 7,3,29
 2253 0964 419EFE84 		beq+ 7,.L147
 2254              	.LVL219:
 2255              	.LBB2414:
 2256              	.LBB2415:
 2257              	.LBB2416:
 2258              		.loc 5 66 0
 2259 0968 8169FFFC 		lwz 11,-4(9)
 2260              	.LVL220:
 2261              	.LBE2416:
 2262              	.LBE2415:
 2263              	.LBE2414:
 2264              		.loc 3 240 0
 2265 096c 2F8B0000 		cmpwi 7,11,0
 2266              	.LBB2419:
 2267              	.LBB2418:
 2268              	.LBB2417:
 2269              		.loc 5 67 0
 2270 0970 396BFFFF 		addi 11,11,-1
 2271 0974 9169FFFC 		stw 11,-4(9)
 2272              	.LBE2417:
 2273              	.LBE2418:
 2274              	.LBE2419:
 2275              		.loc 3 240 0
 2276 0978 419DFE70 		bgt+ 7,.L147
 2277              		.loc 3 244 0
 2278 097c 38810009 		addi 4,1,9
 2279 0980 48000001 		bl _ZNSs4_Rep10_M_destroyERKSaIcE
 2280              	.LVL221:
 2281 0984 4BFFFE64 		b .L147
 2282              	.LVL222:
 2283              	.L160:
 2284              	.LBE2413:
 2285              	.LBE2412:
 2286              	.LBE2408:
 2287              	.LBE2407:
 2288              	.LBE2406:
 2289              	.LBB2420:
 2290              	.LBB2341:
 2291              	.LBB2340:
 2292              	.LBB2339:
 2293              		.loc 3 319 0
 2294 0988 3C600000 		lis 3,.LC1@ha
 2295 098c 38630004 		la 3,.LC1@l(3)
 2296              	.LEHB18:
 2297 0990 48000001 		bl _ZSt20__throw_out_of_rangePKc
 2298              	.LVL223:
 2299              	.L161:
 2300              	.LBE2339:
 2301              	.LBE2340:
 2302              	.LBE2341:
 2303              	.LBE2420:
 2304              	.LBB2421:
 2305              	.LBB2351:
 2306              		.loc 3 912 0
 2307 0994 3C600000 		lis 3,.LC3@ha
 2308 0998 3863001C 		la 3,.LC3@l(3)
 2309 099c 48000001 		bl _ZSt20__throw_out_of_rangePKc
 2310              	.LVL224:
 2311              	.L166:
 2312              	.LBE2351:
 2313              	.LBE2421:
 2314              	.LBB2422:
 2315              	.LBB2405:
 2316              	.LBB2404:
 2317              	.LBB2403:
 2318              	.LBB2402:
 2319              	.LBB2396:
 2320              	.LBB2397:
 2321              	.LBB2398:
 2322              		.loc 5 66 0
 2323 09a0 8169FFFC 		lwz 11,-4(9)
 2324              	.LVL225:
 2325              	.LBE2398:
 2326              	.LBE2397:
 2327              	.LBE2396:
 2328              		.loc 3 240 0
 2329 09a4 2F8B0000 		cmpwi 7,11,0
 2330              	.LBB2401:
 2331              	.LBB2400:
 2332              	.LBB2399:
 2333              		.loc 5 67 0
 2334 09a8 396BFFFF 		addi 11,11,-1
 2335 09ac 9169FFFC 		stw 11,-4(9)
 2336              	.LBE2399:
 2337              	.LBE2400:
 2338              	.LBE2401:
 2339              		.loc 3 240 0
 2340 09b0 419DFF70 		bgt+ 7,.L142
 2341              		.loc 3 244 0
 2342 09b4 38810008 		addi 4,1,8
 2343 09b8 48000001 		bl _ZNSs4_Rep10_M_destroyERKSaIcE
 2344              	.LVL226:
 2345              	.LBE2402:
 2346              	.LBE2403:
 2347              	.LBE2404:
 2348              	.LBE2405:
 2349              	.LBE2422:
 2350              	.LBE2425:
 2351              	.LBE2428:
 2352              		.loc 9 54 0
 2353 09bc 4190FF68 		blt+ 4,.L159
 2354 09c0 4BFFFE04 		b .L120
 2355              	.LVL227:
 2356              	.L152:
 2357 09c4 7C7F1B78 		mr 31,3
 2358              	.LVL228:
 2359              	.LBB2429:
 2360              	.LBB2426:
 2361              		.loc 9 46 0
 2362 09c8 3861000C 		addi 3,1,12
 2363 09cc 48000001 		bl _ZNSsD1Ev
 2364              	.LVL229:
 2365              	.L149:
 2366              		.loc 9 51 0
 2367 09d0 38610010 		addi 3,1,16
 2368              	.LVL230:
 2369 09d4 48000001 		bl _ZNSsD1Ev
 2370              	.LVL231:
 2371 09d8 7FE3FB78 		mr 3,31
 2372 09dc 48000001 		bl _Unwind_Resume
 2373              	.LEHE18:
 2374              	.LVL232:
 2375              	.L163:
 2376              	.LBB2423:
 2377              	.LBB2362:
 2378              	.LBB2361:
 2379              	.LBB2360:
 2380              		.loc 3 319 0
 2381 09e0 3C600000 		lis 3,.LC1@ha
 2382              	.LVL233:
 2383 09e4 38630004 		la 3,.LC1@l(3)
 2384              	.LEHB19:
 2385 09e8 48000001 		bl _ZSt20__throw_out_of_rangePKc
 2386              	.LEHE19:
 2387              	.LVL234:
 2388              	.L164:
 2389              	.LBE2360:
 2390              	.LBE2361:
 2391              	.LBE2362:
 2392              	.LBE2423:
 2393              	.LBB2424:
 2394              	.LBB2386:
 2395              	.LBB2384:
 2396              	.LBB2382:
 2397              	.LBB2379:
 2398              	.LBB2371:
 2399              	.LBB2372:
 2400              	.LBB2373:
 2401              		.loc 5 66 0
 2402 09ec 8169FFFC 		lwz 11,-4(9)
 2403              	.LVL235:
 2404              	.LBE2373:
 2405              	.LBE2372:
 2406              	.LBE2371:
 2407              		.loc 3 240 0
 2408 09f0 2F8B0000 		cmpwi 7,11,0
 2409              	.LBB2376:
 2410              	.LBB2375:
 2411              	.LBB2374:
 2412              		.loc 5 67 0
 2413 09f4 396BFFFF 		addi 11,11,-1
 2414 09f8 9169FFFC 		stw 11,-4(9)
 2415              	.LBE2374:
 2416              	.LBE2375:
 2417              	.LBE2376:
 2418              		.loc 3 240 0
 2419 09fc 419DFEEC 		bgt+ 7,.L134
 2420              		.loc 3 244 0
 2421 0a00 3881000A 		addi 4,1,10
 2422 0a04 48000001 		bl _ZNSs4_Rep10_M_destroyERKSaIcE
 2423              	.LVL236:
 2424 0a08 4BFFFEE0 		b .L134
 2425              	.LVL237:
 2426              	.L151:
 2427 0a0c 7C7F1B78 		mr 31,3
 2428              	.LVL238:
 2429 0a10 4BFFFFC0 		b .L149
 2430              	.LBE2379:
 2431              	.LBE2382:
 2432              	.LBE2384:
 2433              	.LBE2386:
 2434              	.LBE2424:
 2435              	.LBE2426:
 2436              	.LBE2429:
 2437              	.LBE2433:
 2438              		.cfi_endproc
 2439              	.LFE1251:
 2440              		.section	.gcc_except_table
 2441              	.LLSDA1251:
 2442 0056 FF       		.byte	0xff
 2443 0057 FF       		.byte	0xff
 2444 0058 01       		.byte	0x1
 2445 0059 22       		.uleb128 .LLSDACSE1251-.LLSDACSB1251
 2446              	.LLSDACSB1251:
 2447 005a 38       		.uleb128 .LEHB14-.LFB1251
 2448 005b C001     		.uleb128 .LEHE14-.LEHB14
 2449 005d 00       		.uleb128 0
 2450 005e 00       		.uleb128 0
 2451 005f 8C02     		.uleb128 .LEHB15-.LFB1251
 2452 0061 3C       		.uleb128 .LEHE15-.LEHB15
 2453 0062 9005     		.uleb128 .L151-.LFB1251
 2454 0064 00       		.uleb128 0
 2455 0065 CC02     		.uleb128 .LEHB16-.LFB1251
 2456 0067 04       		.uleb128 .LEHE16-.LEHB16
 2457 0068 C804     		.uleb128 .L152-.LFB1251
 2458 006a 00       		.uleb128 0
 2459 006b 8803     		.uleb128 .LEHB17-.LFB1251
 2460 006d 04       		.uleb128 .LEHE17-.LEHB17
 2461 006e 9005     		.uleb128 .L151-.LFB1251
 2462 0070 00       		.uleb128 0
 2463 0071 9404     		.uleb128 .LEHB18-.LFB1251
 2464 0073 50       		.uleb128 .LEHE18-.LEHB18
 2465 0074 00       		.uleb128 0
 2466 0075 00       		.uleb128 0
 2467 0076 EC04     		.uleb128 .LEHB19-.LFB1251
 2468 0078 04       		.uleb128 .LEHE19-.LEHB19
 2469 0079 9005     		.uleb128 .L151-.LFB1251
 2470 007b 00       		.uleb128 0
 2471              	.LLSDACSE1251:
 2472              		.section	".text"
 2473              		.size	_ZN4Nand9CreateDirESs.constprop.50, .-_ZN4Nand9CreateDirESs.constprop.50
 2474              		.align 2
 2475              		.globl _ZN4Nand7StartupEv
 2476              		.type	_ZN4Nand7StartupEv, @function
 2477              	_ZN4Nand7StartupEv:
 2478              	.LFB1026:
 2479              		.loc 9 14 0
 2480              		.cfi_startproc
 2481 0a14 9421FFF0 		stwu 1,-16(1)
 2482              	.LCFI21:
 2483              		.cfi_def_cfa_offset 16
 2484 0a18 7C0802A6 		mflr 0
 2485              	.LBB2434:
 2486              		.loc 9 16 0
 2487 0a1c 38600000 		li 3,0
 2488              	.LBE2434:
 2489              		.loc 9 14 0
 2490 0a20 93E1000C 		stw 31,12(1)
 2491              	.LBB2435:
 2492              		.loc 9 15 0
 2493 0a24 3FE00000 		lis 31,_ZN4Nand11InitializedE@ha
 2494              		.cfi_offset 31, -4
 2495              		.cfi_register 65, 0
 2496              	.LBE2435:
 2497              		.loc 9 14 0
 2498 0a28 90010014 		stw 0,20(1)
 2499              	.LBB2436:
 2500              		.loc 9 15 0
 2501 0a2c 881F0000 		lbz 0,_ZN4Nand11InitializedE@l(31)
 2502              		.cfi_offset 65, 4
 2503 0a30 2F800000 		cmpwi 7,0,0
 2504 0a34 40BE0014 		bne+ 7,.L168
 2505              		.loc 9 18 0
 2506 0a38 48000001 		bl ISFS_Initialize
 2507              	.LVL239:
 2508              		.loc 9 19 0
 2509 0a3c 7C600034 		cntlzw 0,3
 2510 0a40 5400D97E 		srwi 0,0,5
 2511 0a44 981F0000 		stb 0,_ZN4Nand11InitializedE@l(31)
 2512              	.LVL240:
 2513              	.L168:
 2514              	.LBE2436:
 2515              		.loc 9 22 0
 2516 0a48 80010014 		lwz 0,20(1)
 2517 0a4c 83E1000C 		lwz 31,12(1)
 2518 0a50 7C0803A6 		mtlr 0
 2519 0a54 38210010 		addi 1,1,16
 2520              	.LCFI22:
 2521              		.cfi_def_cfa_offset 0
 2522              		.cfi_restore 31
 2523 0a58 4E800020 		blr
 2524              		.cfi_endproc
 2525              	.LFE1026:
 2526              		.size	_ZN4Nand7StartupEv, .-_ZN4Nand7StartupEv
 2527              		.align 2
 2528              		.globl _ZN4Nand8ShutdownEv
 2529              		.type	_ZN4Nand8ShutdownEv, @function
 2530              	_ZN4Nand8ShutdownEv:
 2531              	.LFB1027:
 2532              		.loc 9 25 0
 2533              		.cfi_startproc
 2534 0a5c 9421FFF0 		stwu 1,-16(1)
 2535              	.LCFI23:
 2536              		.cfi_def_cfa_offset 16
 2537 0a60 7C0802A6 		mflr 0
 2538 0a64 93E1000C 		stw 31,12(1)
 2539              		.loc 9 26 0
 2540 0a68 3FE00000 		lis 31,_ZN4Nand11InitializedE@ha
 2541              		.cfi_offset 31, -4
 2542              		.cfi_register 65, 0
 2543              		.loc 9 25 0
 2544 0a6c 90010014 		stw 0,20(1)
 2545              		.loc 9 26 0
 2546 0a70 881F0000 		lbz 0,_ZN4Nand11InitializedE@l(31)
 2547              		.cfi_offset 65, 4
 2548 0a74 2F800000 		cmpwi 7,0,0
 2549 0a78 41BE0010 		beq+ 7,.L170
 2550              		.loc 9 29 0
 2551 0a7c 48000001 		bl ISFS_Deinitialize
 2552              		.loc 9 30 0
 2553 0a80 38000000 		li 0,0
 2554 0a84 981F0000 		stb 0,_ZN4Nand11InitializedE@l(31)
 2555              	.L170:
 2556              		.loc 9 31 0
 2557 0a88 80010014 		lwz 0,20(1)
 2558 0a8c 83E1000C 		lwz 31,12(1)
 2559 0a90 7C0803A6 		mtlr 0
 2560 0a94 38210010 		addi 1,1,16
 2561              	.LCFI24:
 2562              		.cfi_def_cfa_offset 0
 2563              		.cfi_restore 31
 2564 0a98 4E800020 		blr
 2565              		.cfi_endproc
 2566              	.LFE1027:
 2567              		.size	_ZN4Nand8ShutdownEv, .-_ZN4Nand8ShutdownEv
 2568              		.align 2
 2569              		.globl _ZN4Nand9CreateDirESs
 2570              		.type	_ZN4Nand9CreateDirESs, @function
 2571              	_ZN4Nand9CreateDirESs:
 2572              	.LFB1028:
 2573              		.loc 9 34 0
 2574              		.cfi_startproc
 2575              		.cfi_personality 0,__gxx_personality_v0
 2576              		.cfi_lsda 0,.LLSDA1028
 2577              	.LVL241:
 2578 0a9c 7C0802A6 		mflr 0
 2579 0aa0 9421FFD8 		stwu 1,-40(1)
 2580              	.LCFI25:
 2581              		.cfi_def_cfa_offset 40
 2582              		.cfi_register 65, 0
 2583 0aa4 7D800026 		mfcr 12
 2584              	.LBB2584:
 2585              		.loc 9 35 0
 2586 0aa8 38800000 		li 4,0
 2587              	.LBE2584:
 2588              		.loc 9 34 0
 2589 0aac 93E10024 		stw 31,36(1)
 2590 0ab0 7C7F1B78 		mr 31,3
 2591              		.cfi_offset 31, -4
 2592              		.cfi_register 70, 12
 2593              	.LVL242:
 2594 0ab4 9001002C 		stw 0,44(1)
 2595              	.LBB2684:
 2596              		.loc 9 35 0
 2597 0ab8 38A00003 		li 5,3
 2598 0abc 38C00003 		li 6,3
 2599 0ac0 38E00003 		li 7,3
 2600 0ac4 80630000 		lwz 3,0(3)
 2601              	.LVL243:
 2602              	.LBE2684:
 2603              		.loc 9 34 0
 2604 0ac8 93C10020 		stw 30,32(1)
 2605 0acc 93A1001C 		stw 29,28(1)
 2606 0ad0 91810018 		stw 12,24(1)
 2607              	.LEHB20:
 2608              	.LBB2685:
 2609              		.loc 9 35 0
 2610              		.cfi_offset 70, -16
 2611              		.cfi_offset 29, -12
 2612              		.cfi_offset 30, -8
 2613              		.cfi_offset 65, 4
 2614 0ad4 48000001 		bl ISFS_CreateDir
 2615              	.LVL244:
 2616              	.LBB2585:
 2617              		.loc 9 36 0
 2618 0ad8 2E030000 		cmpwi 4,3,0
 2619 0adc 7C7E1B78 		mr 30,3
 2620 0ae0 41900070 		blt- 4,.L211
 2621              	.LVL245:
 2622              	.L173:
 2623              	.LBE2585:
 2624              		.loc 9 57 0
 2625 0ae4 807F0000 		lwz 3,0(31)
 2626 0ae8 38800000 		li 4,0
 2627 0aec 38A00000 		li 5,0
 2628 0af0 38C00000 		li 6,0
 2629 0af4 38E00003 		li 7,3
 2630 0af8 39000003 		li 8,3
 2631 0afc 39200003 		li 9,3
 2632 0b00 48000001 		bl ISFS_SetAttr
 2633 0b04 7C7E1B78 		mr 30,3
 2634              	.LVL246:
 2635              	.L200:
 2636              	.LBE2685:
 2637              		.loc 9 60 0
 2638 0b08 8001002C 		lwz 0,44(1)
 2639 0b0c 7FC3F378 		mr 3,30
 2640 0b10 81810018 		lwz 12,24(1)
 2641 0b14 7C0803A6 		mtlr 0
 2642 0b18 83A1001C 		lwz 29,28(1)
 2643 0b1c 83C10020 		lwz 30,32(1)
 2644              	.LVL247:
 2645 0b20 7D808120 		mtcrf 8,12
 2646 0b24 83E10024 		lwz 31,36(1)
 2647              	.LVL248:
 2648 0b28 38210028 		addi 1,1,40
 2649              		.cfi_remember_state
 2650              	.LCFI26:
 2651              		.cfi_def_cfa_offset 0
 2652              		.cfi_restore 70
 2653              		.cfi_restore 31
 2654              		.cfi_restore 30
 2655              		.cfi_restore 29
 2656 0b2c 4E800020 		blr
 2657              	.LVL249:
 2658              	.L179:
 2659              	.LCFI27:
 2660              		.cfi_restore_state
 2661              	.LBB2686:
 2662              	.LBB2681:
 2663              	.LBB2586:
 2664              	.LBB2587:
 2665              	.LBB2588:
 2666              		.loc 3 711 0
 2667 0b30 8129FFF4 		lwz 9,-12(9)
 2668              	.LBE2588:
 2669              	.LBE2587:
 2670              		.loc 9 39 0
 2671 0b34 3889FFFF 		addi 4,9,-1
 2672              	.LVL250:
 2673              	.LBB2589:
 2674              	.LBB2590:
 2675              	.LBB2591:
 2676              	.LBB2592:
 2677              		.loc 3 318 0
 2678 0b38 7F844840 		cmplw 7,4,9
 2679 0b3c 419D016C 		bgt- 7,.L213
 2680              	.LVL251:
 2681              	.LBE2592:
 2682              	.LBE2591:
 2683              		.loc 3 1349 0
 2684 0b40 7FE3FB78 		mr 3,31
 2685 0b44 38A00001 		li 5,1
 2686 0b48 38C00000 		li 6,0
 2687 0b4c 48000001 		bl _ZNSs9_M_mutateEjjj
 2688              	.LVL252:
 2689              	.L211:
 2690              	.LBE2590:
 2691              	.LBE2589:
 2692              	.LBB2596:
 2693              	.LBB2597:
 2694              	.LBB2598:
 2695              	.LBB2599:
 2696              	.LBB2600:
 2697              		.loc 3 288 0
 2698 0b50 813F0000 		lwz 9,0(31)
 2699              	.LBE2600:
 2700              	.LBE2599:
 2701              	.LBE2598:
 2702              		.loc 3 711 0
 2703 0b54 83A9FFF4 		lwz 29,-12(9)
 2704              	.LVL253:
 2705              	.LBE2597:
 2706              	.LBE2596:
 2707              	.LBB2601:
 2708              	.LBB2602:
 2709              		.loc 3 911 0
 2710 0b58 2F9D0000 		cmpwi 7,29,0
 2711 0b5c 3BBDFFFF 		addi 29,29,-1
 2712 0b60 419E0154 		beq- 7,.L214
 2713              	.LVL254:
 2714              	.LBB2603:
 2715              	.LBB2604:
 2716              		.loc 3 311 0
 2717 0b64 8009FFFC 		lwz 0,-4(9)
 2718 0b68 2F800000 		cmpwi 7,0,0
 2719 0b6c 419C0010 		blt- 7,.L178
 2720              		.loc 3 312 0
 2721 0b70 7FE3FB78 		mr 3,31
 2722 0b74 48000001 		bl _ZNSs12_M_leak_hardEv
 2723              	.LVL255:
 2724 0b78 813F0000 		lwz 9,0(31)
 2725              	.L178:
 2726              	.LBE2604:
 2727              	.LBE2603:
 2728              	.LBE2602:
 2729              	.LBE2601:
 2730              		.loc 9 38 0
 2731 0b7c 7C09E8AE 		lbzx 0,9,29
 2732 0b80 2F80002F 		cmpwi 7,0,47
 2733 0b84 419EFFAC 		beq+ 7,.L179
 2734              		.loc 9 41 0
 2735 0b88 38610010 		addi 3,1,16
 2736 0b8c 7FE4FB78 		mr 4,31
 2737 0b90 48000001 		bl _ZNSsC1ERKSs
 2738              	.LEHE20:
 2739              	.LVL256:
 2740              	.LBB2606:
 2741              	.LBB2607:
 2742              		.loc 3 2005 0
 2743 0b94 3C800000 		lis 4,.LC0@ha
 2744 0b98 38610010 		addi 3,1,16
 2745              	.LVL257:
 2746 0b9c 38840000 		la 4,.LC0@l(4)
 2747 0ba0 38A0FFFF 		li 5,-1
 2748 0ba4 38C00001 		li 6,1
 2749              	.LEHB21:
 2750 0ba8 48000001 		bl _ZNKSs12find_last_ofEPKcjj
 2751              	.LVL258:
 2752              	.LBE2607:
 2753              	.LBE2606:
 2754              		.loc 9 43 0
 2755 0bac 2F83FFFF 		cmpwi 7,3,-1
 2756 0bb0 419E00BC 		beq- 7,.L215
 2757              	.LVL259:
 2758              	.LBB2608:
 2759              	.LBB2609:
 2760              	.LBB2610:
 2761              	.LBB2611:
 2762              	.LBB2612:
 2763              	.LBB2613:
 2764              		.loc 3 711 0
 2765 0bb4 81210010 		lwz 9,16(1)
 2766 0bb8 80A9FFF4 		lwz 5,-12(9)
 2767              	.LBE2613:
 2768              	.LBE2612:
 2769              		.loc 3 318 0
 2770 0bbc 7F832840 		cmplw 7,3,5
 2771 0bc0 419D0140 		bgt- 7,.L216
 2772              	.LVL260:
 2773              	.LBE2611:
 2774              	.LBE2610:
 2775              		.loc 3 1349 0
 2776 0bc4 7C641B78 		mr 4,3
 2777 0bc8 38C00000 		li 6,0
 2778 0bcc 38610010 		addi 3,1,16
 2779              	.LVL261:
 2780 0bd0 7CA42850 		subf 5,4,5
 2781 0bd4 48000001 		bl _ZNSs9_M_mutateEjjj
 2782              	.LVL262:
 2783              	.LBE2609:
 2784              	.LBE2608:
 2785              		.loc 9 46 0
 2786 0bd8 3861000C 		addi 3,1,12
 2787 0bdc 38810010 		addi 4,1,16
 2788              	.LVL263:
 2789 0be0 48000001 		bl _ZNSsC1ERKSs
 2790              	.LEHE21:
 2791              	.LVL264:
 2792              		.loc 9 46 0 is_stmt 0 discriminator 1
 2793 0be4 3861000C 		addi 3,1,12
 2794              	.LEHB22:
 2795 0be8 4BFFFB95 		bl _ZN4Nand9CreateDirESs.constprop.50
 2796              	.LEHE22:
 2797              	.LBB2617:
 2798              	.LBB2618:
 2799              	.LBB2619:
 2800              	.LBB2620:
 2801              	.LBB2621:
 2802              	.LBB2622:
 2803              		.loc 3 288 0 is_stmt 1 discriminator 1
 2804 0bec 8121000C 		lwz 9,12(1)
 2805              	.LBE2622:
 2806              	.LBE2621:
 2807              	.LBE2620:
 2808              	.LBB2623:
 2809              	.LBB2624:
 2810              		.loc 3 235 0 discriminator 1
 2811 0bf0 3FA00000 		lis 29,_ZNSs4_Rep20_S_empty_rep_storageE@ha
 2812              	.LVL265:
 2813              	.LBE2624:
 2814              	.LBE2623:
 2815              	.LBE2619:
 2816              	.LBE2618:
 2817              	.LBE2617:
 2818              		.loc 9 46 0 discriminator 1
 2819 0bf4 7C7E1B78 		mr 30,3
 2820              	.LVL266:
 2821              	.LBB2641:
 2822              	.LBB2639:
 2823              	.LBB2637:
 2824              	.LBB2634:
 2825              	.LBB2631:
 2826              		.loc 3 235 0 discriminator 1
 2827 0bf8 3BBD0000 		la 29,_ZNSs4_Rep20_S_empty_rep_storageE@l(29)
 2828              	.LBE2631:
 2829              	.LBE2634:
 2830              		.loc 3 534 0 discriminator 1
 2831 0bfc 3869FFF4 		addi 3,9,-12
 2832              	.LVL267:
 2833              	.LBB2635:
 2834              	.LBB2632:
 2835              		.loc 3 235 0 discriminator 1
 2836 0c00 7F83E800 		cmpw 7,3,29
 2837 0c04 409E0108 		bne- 7,.L217
 2838              	.LVL268:
 2839              	.L187:
 2840              	.LBE2632:
 2841              	.LBE2635:
 2842              	.LBE2637:
 2843              	.LBE2639:
 2844              	.LBE2641:
 2845              		.loc 9 47 0 discriminator 1
 2846 0c08 2F9E0000 		cmpwi 7,30,0
 2847 0c0c 419C006C 		blt- 7,.L218
 2848              	.LVL269:
 2849              		.loc 9 50 0
 2850 0c10 807F0000 		lwz 3,0(31)
 2851 0c14 38800000 		li 4,0
 2852 0c18 38A00003 		li 5,3
 2853 0c1c 38C00003 		li 6,3
 2854 0c20 38E00003 		li 7,3
 2855              	.LEHB23:
 2856 0c24 48000001 		bl ISFS_CreateDir
 2857              	.LEHE23:
 2858 0c28 2E030000 		cmpwi 4,3,0
 2859 0c2c 7C7E1B78 		mr 30,3
 2860              	.LVL270:
 2861              	.L180:
 2862              	.LBB2642:
 2863              	.LBB2643:
 2864              	.LBB2644:
 2865              	.LBB2645:
 2866              	.LBB2646:
 2867              	.LBB2647:
 2868              		.loc 3 288 0
 2869 0c30 81210010 		lwz 9,16(1)
 2870              	.LBE2647:
 2871              	.LBE2646:
 2872              	.LBE2645:
 2873              		.loc 3 534 0
 2874 0c34 3869FFF4 		addi 3,9,-12
 2875              	.LVL271:
 2876              	.LBB2648:
 2877              	.LBB2649:
 2878              		.loc 3 235 0
 2879 0c38 7F83E800 		cmpw 7,3,29
 2880 0c3c 409E0084 		bne- 7,.L219
 2881              	.L195:
 2882              	.LBE2649:
 2883              	.LBE2648:
 2884              	.LBE2644:
 2885              	.LBE2643:
 2886              	.LBE2642:
 2887              	.LBE2586:
 2888              	.LBE2681:
 2889              		.loc 9 54 0
 2890 0c40 40B0FEA4 		bge- 4,.L173
 2891              	.LVL272:
 2892              	.L212:
 2893              	.LBE2686:
 2894              		.loc 9 60 0
 2895 0c44 8001002C 		lwz 0,44(1)
 2896 0c48 7FC3F378 		mr 3,30
 2897 0c4c 81810018 		lwz 12,24(1)
 2898 0c50 7C0803A6 		mtlr 0
 2899 0c54 83A1001C 		lwz 29,28(1)
 2900 0c58 83C10020 		lwz 30,32(1)
 2901              	.LVL273:
 2902 0c5c 7D808120 		mtcrf 8,12
 2903 0c60 83E10024 		lwz 31,36(1)
 2904              	.LVL274:
 2905 0c64 38210028 		addi 1,1,40
 2906              		.cfi_remember_state
 2907              		.cfi_restore 29
 2908              		.cfi_restore 30
 2909              		.cfi_restore 31
 2910              		.cfi_restore 70
 2911              	.LCFI28:
 2912              		.cfi_def_cfa_offset 0
 2913 0c68 4E800020 		blr
 2914              	.LVL275:
 2915              	.L215:
 2916              	.LCFI29:
 2917              		.cfi_restore_state
 2918 0c6c 3FA00000 		lis 29,_ZNSs4_Rep20_S_empty_rep_storageE@ha
 2919              	.LVL276:
 2920 0c70 3BBD0000 		la 29,_ZNSs4_Rep20_S_empty_rep_storageE@l(29)
 2921 0c74 4BFFFFBC 		b .L180
 2922              	.LVL277:
 2923              	.L218:
 2924              	.LBB2687:
 2925              	.LBB2682:
 2926              	.LBB2679:
 2927              	.LBB2660:
 2928              	.LBB2661:
 2929              	.LBB2662:
 2930              	.LBB2663:
 2931              	.LBB2664:
 2932              	.LBB2665:
 2933              		.loc 3 288 0
 2934 0c78 81210010 		lwz 9,16(1)
 2935              	.LBE2665:
 2936              	.LBE2664:
 2937              	.LBE2663:
 2938              		.loc 3 534 0
 2939 0c7c 3869FFF4 		addi 3,9,-12
 2940              	.LVL278:
 2941              	.LBB2666:
 2942              	.LBB2667:
 2943              		.loc 3 235 0
 2944 0c80 7F83E800 		cmpw 7,3,29
 2945 0c84 419EFE84 		beq+ 7,.L200
 2946              	.LVL279:
 2947              	.LBB2668:
 2948              	.LBB2669:
 2949              	.LBB2670:
 2950              		.loc 5 66 0
 2951 0c88 8169FFFC 		lwz 11,-4(9)
 2952              	.LVL280:
 2953              	.LBE2670:
 2954              	.LBE2669:
 2955              	.LBE2668:
 2956              		.loc 3 240 0
 2957 0c8c 2F8B0000 		cmpwi 7,11,0
 2958              	.LBB2673:
 2959              	.LBB2672:
 2960              	.LBB2671:
 2961              		.loc 5 67 0
 2962 0c90 396BFFFF 		addi 11,11,-1
 2963 0c94 9169FFFC 		stw 11,-4(9)
 2964              	.LBE2671:
 2965              	.LBE2672:
 2966              	.LBE2673:
 2967              		.loc 3 240 0
 2968 0c98 419DFE70 		bgt+ 7,.L200
 2969              		.loc 3 244 0
 2970 0c9c 38810009 		addi 4,1,9
 2971 0ca0 48000001 		bl _ZNSs4_Rep10_M_destroyERKSaIcE
 2972              	.LVL281:
 2973 0ca4 4BFFFE64 		b .L200
 2974              	.LVL282:
 2975              	.L213:
 2976              	.LBE2667:
 2977              	.LBE2666:
 2978              	.LBE2662:
 2979              	.LBE2661:
 2980              	.LBE2660:
 2981              	.LBB2674:
 2982              	.LBB2595:
 2983              	.LBB2594:
 2984              	.LBB2593:
 2985              		.loc 3 319 0
 2986 0ca8 3C600000 		lis 3,.LC1@ha
 2987 0cac 38630004 		la 3,.LC1@l(3)
 2988              	.LEHB24:
 2989 0cb0 48000001 		bl _ZSt20__throw_out_of_rangePKc
 2990              	.LVL283:
 2991              	.L214:
 2992              	.LBE2593:
 2993              	.LBE2594:
 2994              	.LBE2595:
 2995              	.LBE2674:
 2996              	.LBB2675:
 2997              	.LBB2605:
 2998              		.loc 3 912 0
 2999 0cb4 3C600000 		lis 3,.LC3@ha
 3000 0cb8 3863001C 		la 3,.LC3@l(3)
 3001 0cbc 48000001 		bl _ZSt20__throw_out_of_rangePKc
 3002              	.LVL284:
 3003              	.L219:
 3004              	.LBE2605:
 3005              	.LBE2675:
 3006              	.LBB2676:
 3007              	.LBB2659:
 3008              	.LBB2658:
 3009              	.LBB2657:
 3010              	.LBB2656:
 3011              	.LBB2650:
 3012              	.LBB2651:
 3013              	.LBB2652:
 3014              		.loc 5 66 0
 3015 0cc0 8169FFFC 		lwz 11,-4(9)
 3016              	.LVL285:
 3017              	.LBE2652:
 3018              	.LBE2651:
 3019              	.LBE2650:
 3020              		.loc 3 240 0
 3021 0cc4 2F8B0000 		cmpwi 7,11,0
 3022              	.LBB2655:
 3023              	.LBB2654:
 3024              	.LBB2653:
 3025              		.loc 5 67 0
 3026 0cc8 396BFFFF 		addi 11,11,-1
 3027 0ccc 9169FFFC 		stw 11,-4(9)
 3028              	.LBE2653:
 3029              	.LBE2654:
 3030              	.LBE2655:
 3031              		.loc 3 240 0
 3032 0cd0 419DFF70 		bgt+ 7,.L195
 3033              		.loc 3 244 0
 3034 0cd4 38810008 		addi 4,1,8
 3035 0cd8 48000001 		bl _ZNSs4_Rep10_M_destroyERKSaIcE
 3036              	.LVL286:
 3037              	.LBE2656:
 3038              	.LBE2657:
 3039              	.LBE2658:
 3040              	.LBE2659:
 3041              	.LBE2676:
 3042              	.LBE2679:
 3043              	.LBE2682:
 3044              		.loc 9 54 0
 3045 0cdc 4190FF68 		blt+ 4,.L212
 3046 0ce0 4BFFFE04 		b .L173
 3047              	.LVL287:
 3048              	.L205:
 3049 0ce4 7C7F1B78 		mr 31,3
 3050              	.LVL288:
 3051              	.LBB2683:
 3052              	.LBB2680:
 3053              		.loc 9 46 0
 3054 0ce8 3861000C 		addi 3,1,12
 3055 0cec 48000001 		bl _ZNSsD1Ev
 3056              	.LVL289:
 3057              	.L202:
 3058              		.loc 9 51 0
 3059 0cf0 38610010 		addi 3,1,16
 3060              	.LVL290:
 3061 0cf4 48000001 		bl _ZNSsD1Ev
 3062              	.LVL291:
 3063 0cf8 7FE3FB78 		mr 3,31
 3064 0cfc 48000001 		bl _Unwind_Resume
 3065              	.LEHE24:
 3066              	.LVL292:
 3067              	.L216:
 3068              	.LBB2677:
 3069              	.LBB2616:
 3070              	.LBB2615:
 3071              	.LBB2614:
 3072              		.loc 3 319 0
 3073 0d00 3C600000 		lis 3,.LC1@ha
 3074              	.LVL293:
 3075 0d04 38630004 		la 3,.LC1@l(3)
 3076              	.LEHB25:
 3077 0d08 48000001 		bl _ZSt20__throw_out_of_rangePKc
 3078              	.LEHE25:
 3079              	.LVL294:
 3080              	.L217:
 3081              	.LBE2614:
 3082              	.LBE2615:
 3083              	.LBE2616:
 3084              	.LBE2677:
 3085              	.LBB2678:
 3086              	.LBB2640:
 3087              	.LBB2638:
 3088              	.LBB2636:
 3089              	.LBB2633:
 3090              	.LBB2625:
 3091              	.LBB2626:
 3092              	.LBB2627:
 3093              		.loc 5 66 0
 3094 0d0c 8169FFFC 		lwz 11,-4(9)
 3095              	.LVL295:
 3096              	.LBE2627:
 3097              	.LBE2626:
 3098              	.LBE2625:
 3099              		.loc 3 240 0
 3100 0d10 2F8B0000 		cmpwi 7,11,0
 3101              	.LBB2630:
 3102              	.LBB2629:
 3103              	.LBB2628:
 3104              		.loc 5 67 0
 3105 0d14 396BFFFF 		addi 11,11,-1
 3106 0d18 9169FFFC 		stw 11,-4(9)
 3107              	.LBE2628:
 3108              	.LBE2629:
 3109              	.LBE2630:
 3110              		.loc 3 240 0
 3111 0d1c 419DFEEC 		bgt+ 7,.L187
 3112              		.loc 3 244 0
 3113 0d20 3881000A 		addi 4,1,10
 3114 0d24 48000001 		bl _ZNSs4_Rep10_M_destroyERKSaIcE
 3115              	.LVL296:
 3116 0d28 4BFFFEE0 		b .L187
 3117              	.LVL297:
 3118              	.L204:
 3119 0d2c 7C7F1B78 		mr 31,3
 3120              	.LVL298:
 3121 0d30 4BFFFFC0 		b .L202
 3122              	.LBE2633:
 3123              	.LBE2636:
 3124              	.LBE2638:
 3125              	.LBE2640:
 3126              	.LBE2678:
 3127              	.LBE2680:
 3128              	.LBE2683:
 3129              	.LBE2687:
 3130              		.cfi_endproc
 3131              	.LFE1028:
 3132              		.section	.gcc_except_table
 3133              	.LLSDA1028:
 3134 007c FF       		.byte	0xff
 3135 007d FF       		.byte	0xff
 3136 007e 01       		.byte	0x1
 3137 007f 22       		.uleb128 .LLSDACSE1028-.LLSDACSB1028
 3138              	.LLSDACSB1028:
 3139 0080 38       		.uleb128 .LEHB20-.LFB1028
 3140 0081 C001     		.uleb128 .LEHE20-.LEHB20
 3141 0083 00       		.uleb128 0
 3142 0084 00       		.uleb128 0
 3143 0085 8C02     		.uleb128 .LEHB21-.LFB1028
 3144 0087 3C       		.uleb128 .LEHE21-.LEHB21
 3145 0088 9005     		.uleb128 .L204-.LFB1028
 3146 008a 00       		.uleb128 0
 3147 008b CC02     		.uleb128 .LEHB22-.LFB1028
 3148 008d 04       		.uleb128 .LEHE22-.LEHB22
 3149 008e C804     		.uleb128 .L205-.LFB1028
 3150 0090 00       		.uleb128 0
 3151 0091 8803     		.uleb128 .LEHB23-.LFB1028
 3152 0093 04       		.uleb128 .LEHE23-.LEHB23
 3153 0094 9005     		.uleb128 .L204-.LFB1028
 3154 0096 00       		.uleb128 0
 3155 0097 9404     		.uleb128 .LEHB24-.LFB1028
 3156 0099 50       		.uleb128 .LEHE24-.LEHB24
 3157 009a 00       		.uleb128 0
 3158 009b 00       		.uleb128 0
 3159 009c EC04     		.uleb128 .LEHB25-.LFB1028
 3160 009e 04       		.uleb128 .LEHE25-.LEHB25
 3161 009f 9005     		.uleb128 .L204-.LFB1028
 3162 00a1 00       		.uleb128 0
 3163              	.LLSDACSE1028:
 3164              		.section	".text"
 3165              		.size	_ZN4Nand9CreateDirESs, .-_ZN4Nand9CreateDirESs
 3166              		.align 2
 3167              		.globl _ZN4Nand10CreateFileESshhhhjt
 3168              		.type	_ZN4Nand10CreateFileESshhhhjt, @function
 3169              	_ZN4Nand10CreateFileESshhhhjt:
 3170              	.LFB1029:
 3171              		.loc 9 63 0
 3172              		.cfi_startproc
 3173              	.LVL299:
 3174 0d34 7C0802A6 		mflr 0
 3175 0d38 9421FFD8 		stwu 1,-40(1)
 3176              	.LCFI30:
 3177              		.cfi_def_cfa_offset 40
 3178              		.cfi_register 65, 0
 3179 0d3c 93E10024 		stw 31,36(1)
 3180 0d40 7C7F1B78 		mr 31,3
 3181              		.cfi_offset 31, -4
 3182              	.LVL300:
 3183 0d44 9001002C 		stw 0,44(1)
 3184 0d48 9321000C 		stw 25,12(1)
 3185 0d4c 7D394B78 		mr 25,9
 3186              		.cfi_offset 25, -28
 3187              		.cfi_offset 65, 4
 3188              	.LBB2688:
 3189              		.loc 9 64 0
 3190 0d50 80630000 		lwz 3,0(3)
 3191              	.LVL301:
 3192              	.LBE2688:
 3193              		.loc 9 63 0
 3194 0d54 93410010 		stw 26,16(1)
 3195 0d58 7D1A4378 		mr 26,8
 3196              		.cfi_offset 26, -24
 3197 0d5c 93610014 		stw 27,20(1)
 3198 0d60 7C9B2378 		mr 27,4
 3199              		.cfi_offset 27, -20
 3200 0d64 93810018 		stw 28,24(1)
 3201 0d68 7CBC2B78 		mr 28,5
 3202              		.cfi_offset 28, -16
 3203 0d6c 93A1001C 		stw 29,28(1)
 3204 0d70 7CDD3378 		mr 29,6
 3205              		.cfi_offset 29, -12
 3206 0d74 93C10020 		stw 30,32(1)
 3207              		.loc 9 63 0
 3208 0d78 7CFE3B78 		mr 30,7
 3209              		.cfi_offset 30, -8
 3210              	.LBB2689:
 3211              		.loc 9 64 0
 3212 0d7c 48000001 		bl ISFS_CreateFile
 3213              	.LVL302:
 3214              		.loc 9 66 0
 3215 0d80 2C030000 		cmpwi 0,3,0
 3216 0d84 41800024 		blt- 0,.L221
 3217              	.LVL303:
 3218              		.loc 9 69 0
 3219 0d88 807F0000 		lwz 3,0(31)
 3220              	.LVL304:
 3221 0d8c 7F44D378 		mr 4,26
 3222 0d90 7F25CB78 		mr 5,25
 3223 0d94 7F66DB78 		mr 6,27
 3224 0d98 7F87E378 		mr 7,28
 3225 0d9c 7FA8EB78 		mr 8,29
 3226 0da0 7FC9F378 		mr 9,30
 3227 0da4 48000001 		bl ISFS_SetAttr
 3228              	.LVL305:
 3229              	.L221:
 3230              	.LBE2689:
 3231              		.loc 9 72 0
 3232 0da8 8001002C 		lwz 0,44(1)
 3233 0dac 8321000C 		lwz 25,12(1)
 3234 0db0 7C0803A6 		mtlr 0
 3235 0db4 83410010 		lwz 26,16(1)
 3236              	.LVL306:
 3237 0db8 83610014 		lwz 27,20(1)
 3238 0dbc 83810018 		lwz 28,24(1)
 3239 0dc0 83A1001C 		lwz 29,28(1)
 3240 0dc4 83C10020 		lwz 30,32(1)
 3241 0dc8 83E10024 		lwz 31,36(1)
 3242              	.LVL307:
 3243 0dcc 38210028 		addi 1,1,40
 3244              	.LCFI31:
 3245              		.cfi_def_cfa_offset 0
 3246              		.cfi_restore 31
 3247              		.cfi_restore 30
 3248              		.cfi_restore 29
 3249              		.cfi_restore 28
 3250              		.cfi_restore 27
 3251              		.cfi_restore 26
 3252              		.cfi_restore 25
 3253 0dd0 4E800020 		blr
 3254              		.cfi_endproc
 3255              	.LFE1029:
 3256              		.size	_ZN4Nand10CreateFileESshhhhjt, .-_ZN4Nand10CreateFileESshhhhjt
 3257              		.align 2
 3258              		.globl _ZN4Nand4OpenESsh
 3259              		.type	_ZN4Nand4OpenESsh, @function
 3260              	_ZN4Nand4OpenESsh:
 3261              	.LFB1030:
 3262              		.loc 9 75 0
 3263              		.cfi_startproc
 3264              	.LVL308:
 3265 0dd4 7C0802A6 		mflr 0
 3266 0dd8 9421FFF8 		stwu 1,-8(1)
 3267              	.LCFI32:
 3268              		.cfi_def_cfa_offset 8
 3269              		.cfi_register 65, 0
 3270 0ddc 9001000C 		stw 0,12(1)
 3271              		.loc 9 76 0
 3272 0de0 80630000 		lwz 3,0(3)
 3273              	.LVL309:
 3274              		.cfi_offset 65, 4
 3275 0de4 48000001 		bl ISFS_Open
 3276              	.LVL310:
 3277              		.loc 9 77 0
 3278 0de8 8001000C 		lwz 0,12(1)
 3279 0dec 38210008 		addi 1,1,8
 3280              	.LCFI33:
 3281              		.cfi_def_cfa_offset 0
 3282 0df0 7C0803A6 		mtlr 0
 3283 0df4 4E800020 		blr
 3284              		.cfi_endproc
 3285              	.LFE1030:
 3286              		.size	_ZN4Nand4OpenESsh, .-_ZN4Nand4OpenESsh
 3287              		.align 2
 3288              		.globl _ZN4Nand8OpenReadESs
 3289              		.type	_ZN4Nand8OpenReadESs, @function
 3290              	_ZN4Nand8OpenReadESs:
 3291              	.LFB1031:
 3292              		.loc 9 80 0
 3293              		.cfi_startproc
 3294              		.cfi_personality 0,__gxx_personality_v0
 3295              		.cfi_lsda 0,.LLSDA1031
 3296              	.LVL311:
 3297 0df8 9421FFE0 		stwu 1,-32(1)
 3298              	.LCFI34:
 3299              		.cfi_def_cfa_offset 32
 3300 0dfc 7C0802A6 		mflr 0
 3301 0e00 7C641B78 		mr 4,3
 3302              		.loc 9 81 0
 3303 0e04 3861000C 		addi 3,1,12
 3304              	.LVL312:
 3305              		.loc 9 80 0
 3306 0e08 93E1001C 		stw 31,28(1)
 3307 0e0c 90010024 		stw 0,36(1)
 3308              	.LEHB26:
 3309              		.loc 9 81 0
 3310              		.cfi_offset 31, -4
 3311              		.cfi_offset 65, 4
 3312 0e10 48000001 		bl _ZNSsC1ERKSs
 3313              	.LEHE26:
 3314              	.LVL313:
 3315              	.LBB2716:
 3316              	.LBB2717:
 3317              		.loc 9 76 0
 3318 0e14 8061000C 		lwz 3,12(1)
 3319 0e18 38800001 		li 4,1
 3320              	.LEHB27:
 3321 0e1c 48000001 		bl ISFS_Open
 3322              	.LEHE27:
 3323              	.LBE2717:
 3324              	.LBE2716:
 3325              	.LBB2719:
 3326              	.LBB2720:
 3327              	.LBB2721:
 3328              	.LBB2722:
 3329              	.LBB2723:
 3330              	.LBB2724:
 3331              		.loc 3 288 0
 3332 0e20 8121000C 		lwz 9,12(1)
 3333              	.LBE2724:
 3334              	.LBE2723:
 3335              	.LBE2722:
 3336              	.LBB2725:
 3337              	.LBB2726:
 3338              		.loc 3 235 0
 3339 0e24 3D600000 		lis 11,_ZNSs4_Rep20_S_empty_rep_storageE@ha
 3340              	.LBE2726:
 3341              	.LBE2725:
 3342              	.LBE2721:
 3343              	.LBE2720:
 3344              	.LBE2719:
 3345              	.LBB2743:
 3346              	.LBB2718:
 3347              		.loc 9 76 0
 3348 0e28 7C7F1B78 		mr 31,3
 3349              	.LVL314:
 3350              	.LBE2718:
 3351              	.LBE2743:
 3352              	.LBB2744:
 3353              	.LBB2741:
 3354              	.LBB2739:
 3355              	.LBB2736:
 3356              	.LBB2733:
 3357              		.loc 3 235 0
 3358 0e2c 380B0000 		la 0,_ZNSs4_Rep20_S_empty_rep_storageE@l(11)
 3359              	.LBE2733:
 3360              	.LBE2736:
 3361              		.loc 3 534 0
 3362 0e30 3869FFF4 		addi 3,9,-12
 3363              	.LVL315:
 3364              	.LBB2737:
 3365              	.LBB2734:
 3366              		.loc 3 235 0
 3367 0e34 7F830000 		cmpw 7,3,0
 3368 0e38 409E001C 		bne- 7,.L232
 3369              	.LVL316:
 3370              	.L229:
 3371              	.LBE2734:
 3372              	.LBE2737:
 3373              	.LBE2739:
 3374              	.LBE2741:
 3375              	.LBE2744:
 3376              		.loc 9 82 0
 3377 0e3c 80010024 		lwz 0,36(1)
 3378 0e40 7FE3FB78 		mr 3,31
 3379 0e44 83E1001C 		lwz 31,28(1)
 3380 0e48 7C0803A6 		mtlr 0
 3381 0e4c 38210020 		addi 1,1,32
 3382              		.cfi_remember_state
 3383              	.LCFI35:
 3384              		.cfi_def_cfa_offset 0
 3385              		.cfi_restore 31
 3386 0e50 4E800020 		blr
 3387              	.LVL317:
 3388              	.L232:
 3389              	.LCFI36:
 3390              		.cfi_restore_state
 3391              	.LBB2745:
 3392              	.LBB2742:
 3393              	.LBB2740:
 3394              	.LBB2738:
 3395              	.LBB2735:
 3396              	.LBB2727:
 3397              	.LBB2728:
 3398              	.LBB2729:
 3399              		.loc 5 66 0
 3400 0e54 8169FFFC 		lwz 11,-4(9)
 3401              	.LVL318:
 3402              	.LBE2729:
 3403              	.LBE2728:
 3404              	.LBE2727:
 3405              		.loc 3 240 0
 3406 0e58 2F8B0000 		cmpwi 7,11,0
 3407              	.LBB2732:
 3408              	.LBB2731:
 3409              	.LBB2730:
 3410              		.loc 5 67 0
 3411 0e5c 396BFFFF 		addi 11,11,-1
 3412 0e60 9169FFFC 		stw 11,-4(9)
 3413              	.LBE2730:
 3414              	.LBE2731:
 3415              	.LBE2732:
 3416              		.loc 3 240 0
 3417 0e64 419DFFD8 		bgt+ 7,.L229
 3418              		.loc 3 244 0
 3419 0e68 38810008 		addi 4,1,8
 3420 0e6c 48000001 		bl _ZNSs4_Rep10_M_destroyERKSaIcE
 3421              	.LVL319:
 3422 0e70 4BFFFFCC 		b .L229
 3423              	.LVL320:
 3424              	.L231:
 3425 0e74 7C7F1B78 		mr 31,3
 3426              	.LBE2735:
 3427              	.LBE2738:
 3428              	.LBE2740:
 3429              	.LBE2742:
 3430              	.LBE2745:
 3431              		.loc 9 81 0
 3432 0e78 3861000C 		addi 3,1,12
 3433              	.LVL321:
 3434 0e7c 48000001 		bl _ZNSsD1Ev
 3435              	.LVL322:
 3436 0e80 7FE3FB78 		mr 3,31
 3437              	.LEHB28:
 3438 0e84 48000001 		bl _Unwind_Resume
 3439              	.LEHE28:
 3440              		.cfi_endproc
 3441              	.LFE1031:
 3442              		.section	.gcc_except_table
 3443              	.LLSDA1031:
 3444 00a2 FF       		.byte	0xff
 3445 00a3 FF       		.byte	0xff
 3446 00a4 01       		.byte	0x1
 3447 00a5 0D       		.uleb128 .LLSDACSE1031-.LLSDACSB1031
 3448              	.LLSDACSB1031:
 3449 00a6 18       		.uleb128 .LEHB26-.LFB1031
 3450 00a7 04       		.uleb128 .LEHE26-.LEHB26
 3451 00a8 00       		.uleb128 0
 3452 00a9 00       		.uleb128 0
 3453 00aa 24       		.uleb128 .LEHB27-.LFB1031
 3454 00ab 04       		.uleb128 .LEHE27-.LEHB27
 3455 00ac 7C       		.uleb128 .L231-.LFB1031
 3456 00ad 00       		.uleb128 0
 3457 00ae 8C01     		.uleb128 .LEHB28-.LFB1031
 3458 00b0 04       		.uleb128 .LEHE28-.LEHB28
 3459 00b1 00       		.uleb128 0
 3460 00b2 00       		.uleb128 0
 3461              	.LLSDACSE1031:
 3462              		.section	".text"
 3463              		.size	_ZN4Nand8OpenReadESs, .-_ZN4Nand8OpenReadESs
 3464              		.align 2
 3465              		.globl _ZN4Nand13OpenReadWriteESs
 3466              		.type	_ZN4Nand13OpenReadWriteESs, @function
 3467              	_ZN4Nand13OpenReadWriteESs:
 3468              	.LFB1032:
 3469              		.loc 9 85 0
 3470              		.cfi_startproc
 3471              		.cfi_personality 0,__gxx_personality_v0
 3472              		.cfi_lsda 0,.LLSDA1032
 3473              	.LVL323:
 3474 0e88 9421FFE0 		stwu 1,-32(1)
 3475              	.LCFI37:
 3476              		.cfi_def_cfa_offset 32
 3477 0e8c 7C0802A6 		mflr 0
 3478 0e90 7C641B78 		mr 4,3
 3479              		.loc 9 86 0
 3480 0e94 3861000C 		addi 3,1,12
 3481              	.LVL324:
 3482              		.loc 9 85 0
 3483 0e98 93E1001C 		stw 31,28(1)
 3484 0e9c 90010024 		stw 0,36(1)
 3485              	.LEHB29:
 3486              		.loc 9 86 0
 3487              		.cfi_offset 31, -4
 3488              		.cfi_offset 65, 4
 3489 0ea0 48000001 		bl _ZNSsC1ERKSs
 3490              	.LEHE29:
 3491              	.LVL325:
 3492              	.LBB2772:
 3493              	.LBB2773:
 3494              		.loc 9 76 0
 3495 0ea4 8061000C 		lwz 3,12(1)
 3496 0ea8 38800003 		li 4,3
 3497              	.LEHB30:
 3498 0eac 48000001 		bl ISFS_Open
 3499              	.LEHE30:
 3500              	.LBE2773:
 3501              	.LBE2772:
 3502              	.LBB2775:
 3503              	.LBB2776:
 3504              	.LBB2777:
 3505              	.LBB2778:
 3506              	.LBB2779:
 3507              	.LBB2780:
 3508              		.loc 3 288 0
 3509 0eb0 8121000C 		lwz 9,12(1)
 3510              	.LBE2780:
 3511              	.LBE2779:
 3512              	.LBE2778:
 3513              	.LBB2781:
 3514              	.LBB2782:
 3515              		.loc 3 235 0
 3516 0eb4 3D600000 		lis 11,_ZNSs4_Rep20_S_empty_rep_storageE@ha
 3517              	.LBE2782:
 3518              	.LBE2781:
 3519              	.LBE2777:
 3520              	.LBE2776:
 3521              	.LBE2775:
 3522              	.LBB2799:
 3523              	.LBB2774:
 3524              		.loc 9 76 0
 3525 0eb8 7C7F1B78 		mr 31,3
 3526              	.LVL326:
 3527              	.LBE2774:
 3528              	.LBE2799:
 3529              	.LBB2800:
 3530              	.LBB2797:
 3531              	.LBB2795:
 3532              	.LBB2792:
 3533              	.LBB2789:
 3534              		.loc 3 235 0
 3535 0ebc 380B0000 		la 0,_ZNSs4_Rep20_S_empty_rep_storageE@l(11)
 3536              	.LBE2789:
 3537              	.LBE2792:
 3538              		.loc 3 534 0
 3539 0ec0 3869FFF4 		addi 3,9,-12
 3540              	.LVL327:
 3541              	.LBB2793:
 3542              	.LBB2790:
 3543              		.loc 3 235 0
 3544 0ec4 7F830000 		cmpw 7,3,0
 3545 0ec8 409E001C 		bne- 7,.L242
 3546              	.LVL328:
 3547              	.L239:
 3548              	.LBE2790:
 3549              	.LBE2793:
 3550              	.LBE2795:
 3551              	.LBE2797:
 3552              	.LBE2800:
 3553              		.loc 9 87 0
 3554 0ecc 80010024 		lwz 0,36(1)
 3555 0ed0 7FE3FB78 		mr 3,31
 3556 0ed4 83E1001C 		lwz 31,28(1)
 3557 0ed8 7C0803A6 		mtlr 0
 3558 0edc 38210020 		addi 1,1,32
 3559              		.cfi_remember_state
 3560              	.LCFI38:
 3561              		.cfi_def_cfa_offset 0
 3562              		.cfi_restore 31
 3563 0ee0 4E800020 		blr
 3564              	.LVL329:
 3565              	.L242:
 3566              	.LCFI39:
 3567              		.cfi_restore_state
 3568              	.LBB2801:
 3569              	.LBB2798:
 3570              	.LBB2796:
 3571              	.LBB2794:
 3572              	.LBB2791:
 3573              	.LBB2783:
 3574              	.LBB2784:
 3575              	.LBB2785:
 3576              		.loc 5 66 0
 3577 0ee4 8169FFFC 		lwz 11,-4(9)
 3578              	.LVL330:
 3579              	.LBE2785:
 3580              	.LBE2784:
 3581              	.LBE2783:
 3582              		.loc 3 240 0
 3583 0ee8 2F8B0000 		cmpwi 7,11,0
 3584              	.LBB2788:
 3585              	.LBB2787:
 3586              	.LBB2786:
 3587              		.loc 5 67 0
 3588 0eec 396BFFFF 		addi 11,11,-1
 3589 0ef0 9169FFFC 		stw 11,-4(9)
 3590              	.LBE2786:
 3591              	.LBE2787:
 3592              	.LBE2788:
 3593              		.loc 3 240 0
 3594 0ef4 419DFFD8 		bgt+ 7,.L239
 3595              		.loc 3 244 0
 3596 0ef8 38810008 		addi 4,1,8
 3597 0efc 48000001 		bl _ZNSs4_Rep10_M_destroyERKSaIcE
 3598              	.LVL331:
 3599 0f00 4BFFFFCC 		b .L239
 3600              	.LVL332:
 3601              	.L241:
 3602 0f04 7C7F1B78 		mr 31,3
 3603              	.LBE2791:
 3604              	.LBE2794:
 3605              	.LBE2796:
 3606              	.LBE2798:
 3607              	.LBE2801:
 3608              		.loc 9 86 0
 3609 0f08 3861000C 		addi 3,1,12
 3610              	.LVL333:
 3611 0f0c 48000001 		bl _ZNSsD1Ev
 3612              	.LVL334:
 3613 0f10 7FE3FB78 		mr 3,31
 3614              	.LEHB31:
 3615 0f14 48000001 		bl _Unwind_Resume
 3616              	.LEHE31:
 3617              		.cfi_endproc
 3618              	.LFE1032:
 3619              		.section	.gcc_except_table
 3620              	.LLSDA1032:
 3621 00b3 FF       		.byte	0xff
 3622 00b4 FF       		.byte	0xff
 3623 00b5 01       		.byte	0x1
 3624 00b6 0D       		.uleb128 .LLSDACSE1032-.LLSDACSB1032
 3625              	.LLSDACSB1032:
 3626 00b7 18       		.uleb128 .LEHB29-.LFB1032
 3627 00b8 04       		.uleb128 .LEHE29-.LEHB29
 3628 00b9 00       		.uleb128 0
 3629 00ba 00       		.uleb128 0
 3630 00bb 24       		.uleb128 .LEHB30-.LFB1032
 3631 00bc 04       		.uleb128 .LEHE30-.LEHB30
 3632 00bd 7C       		.uleb128 .L241-.LFB1032
 3633 00be 00       		.uleb128 0
 3634 00bf 8C01     		.uleb128 .LEHB31-.LFB1032
 3635 00c1 04       		.uleb128 .LEHE31-.LEHB31
 3636 00c2 00       		.uleb128 0
 3637 00c3 00       		.uleb128 0
 3638              	.LLSDACSE1032:
 3639              		.section	".text"
 3640              		.size	_ZN4Nand13OpenReadWriteESs, .-_ZN4Nand13OpenReadWriteESs
 3641              		.align 2
 3642              		.globl _ZN4Nand11GetFileSizeEi
 3643              		.type	_ZN4Nand11GetFileSizeEi, @function
 3644              	_ZN4Nand11GetFileSizeEi:
 3645              	.LFB1033:
 3646              		.loc 9 90 0
 3647              		.cfi_startproc
 3648              	.LVL335:
 3649 0f18 9421FFE8 		stwu 1,-24(1)
 3650              	.LCFI40:
 3651              		.cfi_def_cfa_offset 24
 3652 0f1c 7D800026 		mfcr 12
 3653 0f20 7C0802A6 		mflr 0
 3654 0f24 93A1000C 		stw 29,12(1)
 3655              	.LBB2807:
 3656              		.loc 9 91 0
 3657 0f28 7C7D1B79 		mr. 29,3
 3658              		.cfi_offset 29, -12
 3659              		.cfi_register 65, 0
 3660              		.cfi_register 70, 12
 3661              	.LBE2807:
 3662              		.loc 9 90 0
 3663 0f2c 93C10010 		stw 30,16(1)
 3664              	.LBB2808:
 3665              		.loc 9 92 0
 3666 0f30 38600000 		li 3,0
 3667              	.LVL336:
 3668              	.LBE2808:
 3669              		.loc 9 90 0
 3670 0f34 9001001C 		stw 0,28(1)
 3671 0f38 93E10014 		stw 31,20(1)
 3672 0f3c 91810008 		stw 12,8(1)
 3673              	.LBB2809:
 3674              		.loc 9 91 0
 3675 0f40 40810040 		ble- 0,.L244
 3676              		.cfi_offset 70, -16
 3677              		.cfi_offset 31, -4
 3678              		.cfi_offset 65, 4
 3679              		.cfi_offset 30, -8
 3680              	.LVL337:
 3681              	.LBE2809:
 3682              	.LBB2810:
 3683              	.LBB2811:
 3684              		.loc 9 94 0
 3685 0f44 38600008 		li 3,8
 3686 0f48 48000001 		bl _ZN8MemTools17AllocateMemory_64Ej
 3687 0f4c 7C7F1B78 		mr 31,3
 3688              	.LVL338:
 3689              		.loc 9 95 0
 3690 0f50 7FA3EB78 		mr 3,29
 3691              	.LVL339:
 3692 0f54 7FE4FB78 		mr 4,31
 3693 0f58 48000001 		bl ISFS_GetFileStats
 3694              	.LVL340:
 3695              		.loc 9 96 0
 3696 0f5c 2E030000 		cmpwi 4,3,0
 3697 0f60 7C7E1B78 		mr 30,3
 3698 0f64 4190000C 		blt- 4,.L245
 3699              		.loc 9 97 0
 3700 0f68 83DF0000 		lwz 30,0(31)
 3701              	.LVL341:
 3702 0f6c 2E1E0000 		cmpwi 4,30,0
 3703              	.LVL342:
 3704              	.L245:
 3705              		.loc 9 99 0
 3706 0f70 7FE3FB78 		mr 3,31
 3707 0f74 48000001 		bl free
 3708              		.loc 9 101 0
 3709 0f78 7FC3F378 		mr 3,30
 3710 0f7c 41900028 		blt- 4,.L248
 3711              	.LVL343:
 3712              	.L244:
 3713              	.LBE2811:
 3714              	.LBE2810:
 3715              		.loc 9 102 0
 3716 0f80 8001001C 		lwz 0,28(1)
 3717 0f84 81810008 		lwz 12,8(1)
 3718 0f88 7C0803A6 		mtlr 0
 3719 0f8c 83A1000C 		lwz 29,12(1)
 3720              	.LVL344:
 3721 0f90 83C10010 		lwz 30,16(1)
 3722 0f94 7D808120 		mtcrf 8,12
 3723 0f98 83E10014 		lwz 31,20(1)
 3724 0f9c 38210018 		addi 1,1,24
 3725              		.cfi_remember_state
 3726              	.LCFI41:
 3727              		.cfi_def_cfa_offset 0
 3728              		.cfi_restore 70
 3729              		.cfi_restore 31
 3730              		.cfi_restore 30
 3731              		.cfi_restore 29
 3732 0fa0 4E800020 		blr
 3733              	.LVL345:
 3734              	.L248:
 3735              	.LCFI42:
 3736              		.cfi_restore_state
 3737 0fa4 8001001C 		lwz 0,28(1)
 3738              	.LBB2813:
 3739              	.LBB2812:
 3740              		.loc 9 101 0
 3741 0fa8 38600000 		li 3,0
 3742              	.LVL346:
 3743              	.LBE2812:
 3744              	.LBE2813:
 3745              		.loc 9 102 0
 3746 0fac 81810008 		lwz 12,8(1)
 3747 0fb0 7C0803A6 		mtlr 0
 3748 0fb4 83A1000C 		lwz 29,12(1)
 3749              	.LVL347:
 3750 0fb8 83C10010 		lwz 30,16(1)
 3751              	.LVL348:
 3752 0fbc 7D808120 		mtcrf 8,12
 3753 0fc0 83E10014 		lwz 31,20(1)
 3754              	.LVL349:
 3755 0fc4 38210018 		addi 1,1,24
 3756              		.cfi_restore 29
 3757              		.cfi_restore 30
 3758              		.cfi_restore 31
 3759              		.cfi_restore 70
 3760              	.LCFI43:
 3761              		.cfi_def_cfa_offset 0
 3762 0fc8 4E800020 		blr
 3763              		.cfi_endproc
 3764              	.LFE1033:
 3765              		.size	_ZN4Nand11GetFileSizeEi, .-_ZN4Nand11GetFileSizeEi
 3766              		.align 2
 3767              		.globl _ZN4Nand11GetFileSizeESs
 3768              		.type	_ZN4Nand11GetFileSizeESs, @function
 3769              	_ZN4Nand11GetFileSizeESs:
 3770              	.LFB1034:
 3771              		.loc 9 105 0
 3772              		.cfi_startproc
 3773              		.cfi_personality 0,__gxx_personality_v0
 3774              		.cfi_lsda 0,.LLSDA1034
 3775              	.LVL350:
 3776 0fcc 7C0802A6 		mflr 0
 3777 0fd0 9421FFD8 		stwu 1,-40(1)
 3778              	.LCFI44:
 3779              		.cfi_def_cfa_offset 40
 3780              		.cfi_register 65, 0
 3781 0fd4 7D800026 		mfcr 12
 3782 0fd8 7C641B78 		mr 4,3
 3783              	.LVL351:
 3784 0fdc 93E10024 		stw 31,36(1)
 3785              	.LBB2878:
 3786              		.loc 9 107 0
 3787 0fe0 3BE00000 		li 31,0
 3788              		.cfi_offset 31, -4
 3789              		.cfi_register 70, 12
 3790              	.LBE2878:
 3791              		.loc 9 105 0
 3792 0fe4 9001002C 		stw 0,44(1)
 3793 0fe8 93A1001C 		stw 29,28(1)
 3794              	.LBB2946:
 3795              	.LBB2879:
 3796              	.LBB2880:
 3797              	.LBB2881:
 3798              		.loc 3 711 0
 3799 0fec 81230000 		lwz 9,0(3)
 3800              	.LBE2881:
 3801              	.LBE2880:
 3802              	.LBE2879:
 3803              	.LBE2946:
 3804              		.loc 9 105 0
 3805 0ff0 93C10020 		stw 30,32(1)
 3806              	.LBB2947:
 3807              		.loc 9 106 0
 3808 0ff4 8009FFF4 		lwz 0,-12(9)
 3809              		.cfi_offset 30, -8
 3810              		.cfi_offset 29, -12
 3811              		.cfi_offset 65, 4
 3812              	.LBE2947:
 3813              		.loc 9 105 0
 3814 0ff8 91810018 		stw 12,24(1)
 3815              	.LBB2948:
 3816              		.loc 9 106 0
 3817 0ffc 2F800000 		cmpwi 7,0,0
 3818 1000 409E002C 		bne- 7,.L273
 3819              		.cfi_offset 70, -16
 3820              	.LVL352:
 3821              	.L250:
 3822              	.LBE2948:
 3823              		.loc 9 119 0
 3824 1004 8001002C 		lwz 0,44(1)
 3825 1008 7FE3FB78 		mr 3,31
 3826 100c 81810018 		lwz 12,24(1)
 3827 1010 7C0803A6 		mtlr 0
 3828 1014 83A1001C 		lwz 29,28(1)
 3829 1018 83C10020 		lwz 30,32(1)
 3830 101c 7D808120 		mtcrf 8,12
 3831 1020 83E10024 		lwz 31,36(1)
 3832 1024 38210028 		addi 1,1,40
 3833              		.cfi_remember_state
 3834              	.LCFI45:
 3835              		.cfi_def_cfa_offset 0
 3836              		.cfi_restore 70
 3837              		.cfi_restore 31
 3838              		.cfi_restore 30
 3839              		.cfi_restore 29
 3840 1028 4E800020 		blr
 3841              	.LVL353:
 3842              	.L273:
 3843              	.LCFI46:
 3844              		.cfi_restore_state
 3845              	.LBB2949:
 3846              		.loc 9 111 0
 3847 102c 38610010 		addi 3,1,16
 3848              	.LVL354:
 3849              	.LEHB32:
 3850 1030 48000001 		bl _ZNSsC1ERKSs
 3851              	.LEHE32:
 3852              	.LVL355:
 3853              	.LBB2882:
 3854              	.LBB2883:
 3855              		.loc 9 81 0
 3856 1034 3861000C 		addi 3,1,12
 3857 1038 38810010 		addi 4,1,16
 3858              	.LVL356:
 3859              	.LEHB33:
 3860 103c 48000001 		bl _ZNSsC1ERKSs
 3861              	.LEHE33:
 3862              	.LVL357:
 3863              	.LBB2884:
 3864              	.LBB2885:
 3865              		.loc 9 76 0
 3866 1040 8061000C 		lwz 3,12(1)
 3867 1044 38800001 		li 4,1
 3868              	.LEHB34:
 3869 1048 48000001 		bl ISFS_Open
 3870              	.LEHE34:
 3871              	.LBE2885:
 3872              	.LBE2884:
 3873              	.LBB2887:
 3874              	.LBB2888:
 3875              	.LBB2889:
 3876              	.LBB2890:
 3877              	.LBB2891:
 3878              	.LBB2892:
 3879              		.loc 3 288 0
 3880 104c 8121000C 		lwz 9,12(1)
 3881              	.LBE2892:
 3882              	.LBE2891:
 3883              	.LBE2890:
 3884              	.LBB2893:
 3885              	.LBB2894:
 3886              		.loc 3 235 0
 3887 1050 3FE00000 		lis 31,_ZNSs4_Rep20_S_empty_rep_storageE@ha
 3888              	.LBE2894:
 3889              	.LBE2893:
 3890              	.LBE2889:
 3891              	.LBE2888:
 3892              	.LBE2887:
 3893              	.LBB2911:
 3894              	.LBB2886:
 3895              		.loc 9 76 0
 3896 1054 7C7E1B78 		mr 30,3
 3897              	.LVL358:
 3898              	.LBE2886:
 3899              	.LBE2911:
 3900              	.LBB2912:
 3901              	.LBB2909:
 3902              	.LBB2907:
 3903              	.LBB2904:
 3904              	.LBB2901:
 3905              		.loc 3 235 0
 3906 1058 3BFF0000 		la 31,_ZNSs4_Rep20_S_empty_rep_storageE@l(31)
 3907              	.LBE2901:
 3908              	.LBE2904:
 3909              		.loc 3 534 0
 3910 105c 3869FFF4 		addi 3,9,-12
 3911              	.LVL359:
 3912              	.LBB2905:
 3913              	.LBB2902:
 3914              		.loc 3 235 0
 3915 1060 7F83F800 		cmpw 7,3,31
 3916 1064 409E0098 		bne- 7,.L274
 3917              	.LVL360:
 3918              	.L256:
 3919              	.LBE2902:
 3920              	.LBE2905:
 3921              	.LBE2907:
 3922              	.LBE2909:
 3923              	.LBE2912:
 3924              	.LBE2883:
 3925              	.LBE2882:
 3926              	.LBB2916:
 3927              	.LBB2917:
 3928              	.LBB2918:
 3929              	.LBB2919:
 3930              	.LBB2920:
 3931              	.LBB2921:
 3932              		.loc 3 288 0
 3933 1068 81210010 		lwz 9,16(1)
 3934              	.LBE2921:
 3935              	.LBE2920:
 3936              	.LBE2919:
 3937              		.loc 3 534 0
 3938 106c 3869FFF4 		addi 3,9,-12
 3939              	.LVL361:
 3940              	.LBB2922:
 3941              	.LBB2923:
 3942              		.loc 3 235 0
 3943 1070 7F83F800 		cmpw 7,3,31
 3944 1074 409E00A8 		bne- 7,.L275
 3945              	.LVL362:
 3946              	.L265:
 3947              	.LBE2923:
 3948              	.LBE2922:
 3949              	.LBE2918:
 3950              	.LBE2917:
 3951              	.LBE2916:
 3952              		.loc 9 112 0 discriminator 1
 3953 1078 2F9E0000 		cmpwi 7,30,0
 3954              		.loc 9 109 0 discriminator 1
 3955 107c 3BE00000 		li 31,0
 3956              		.loc 9 112 0 discriminator 1
 3957 1080 41BCFF84 		blt- 7,.L250
 3958              	.LVL363:
 3959              	.LBB2934:
 3960              	.LBB2935:
 3961              		.loc 9 91 0
 3962 1084 41BEFF80 		beq- 7,.L250
 3963              	.LVL364:
 3964              	.LBE2935:
 3965              	.LBB2936:
 3966              	.LBB2937:
 3967              		.loc 9 94 0
 3968 1088 38600008 		li 3,8
 3969              	.LEHB35:
 3970 108c 48000001 		bl _ZN8MemTools17AllocateMemory_64Ej
 3971 1090 7C7F1B78 		mr 31,3
 3972              	.LVL365:
 3973              		.loc 9 95 0
 3974 1094 7FC3F378 		mr 3,30
 3975              	.LVL366:
 3976 1098 7FE4FB78 		mr 4,31
 3977 109c 48000001 		bl ISFS_GetFileStats
 3978              	.LVL367:
 3979              		.loc 9 96 0
 3980 10a0 2E030000 		cmpwi 4,3,0
 3981 10a4 7C7D1B78 		mr 29,3
 3982 10a8 4190000C 		blt- 4,.L266
 3983              		.loc 9 97 0
 3984 10ac 83BF0000 		lwz 29,0(31)
 3985              	.LVL368:
 3986 10b0 2E1D0000 		cmpwi 4,29,0
 3987              	.LVL369:
 3988              	.L266:
 3989              		.loc 9 99 0
 3990 10b4 7FE3FB78 		mr 3,31
 3991              		.loc 9 101 0
 3992 10b8 7FBFEB78 		mr 31,29
 3993              	.LVL370:
 3994              		.loc 9 99 0
 3995 10bc 48000001 		bl free
 3996              	.LVL371:
 3997              		.loc 9 101 0
 3998 10c0 41900034 		blt- 4,.L276
 3999              	.L267:
 4000              	.LVL372:
 4001              	.LBE2937:
 4002              	.LBE2936:
 4003              	.LBE2934:
 4004              	.LBB2940:
 4005              	.LBB2941:
 4006              		.loc 9 161 0
 4007 10c4 7FC3F378 		mr 3,30
 4008 10c8 48000001 		bl ISFS_Close
 4009              	.LBE2941:
 4010              	.LBE2940:
 4011              	.LBE2949:
 4012              		.loc 9 119 0
 4013 10cc 8001002C 		lwz 0,44(1)
 4014 10d0 81810018 		lwz 12,24(1)
 4015 10d4 7FE3FB78 		mr 3,31
 4016 10d8 7C0803A6 		mtlr 0
 4017 10dc 83A1001C 		lwz 29,28(1)
 4018              	.LVL373:
 4019 10e0 83C10020 		lwz 30,32(1)
 4020              	.LVL374:
 4021 10e4 7D808120 		mtcrf 8,12
 4022 10e8 83E10024 		lwz 31,36(1)
 4023 10ec 38210028 		addi 1,1,40
 4024              		.cfi_remember_state
 4025              		.cfi_restore 29
 4026              		.cfi_restore 30
 4027              		.cfi_restore 31
 4028              		.cfi_restore 70
 4029              	.LCFI47:
 4030              		.cfi_def_cfa_offset 0
 4031 10f0 4E800020 		blr
 4032              	.LVL375:
 4033              	.L276:
 4034              	.LCFI48:
 4035              		.cfi_restore_state
 4036              	.LBB2950:
 4037              	.LBB2942:
 4038              	.LBB2939:
 4039              	.LBB2938:
 4040              		.loc 9 101 0
 4041 10f4 3BE00000 		li 31,0
 4042 10f8 4BFFFFCC 		b .L267
 4043              	.LVL376:
 4044              	.L274:
 4045              	.LBE2938:
 4046              	.LBE2939:
 4047              	.LBE2942:
 4048              	.LBB2943:
 4049              	.LBB2914:
 4050              	.LBB2913:
 4051              	.LBB2910:
 4052              	.LBB2908:
 4053              	.LBB2906:
 4054              	.LBB2903:
 4055              	.LBB2895:
 4056              	.LBB2896:
 4057              	.LBB2897:
 4058              		.loc 5 66 0
 4059 10fc 8169FFFC 		lwz 11,-4(9)
 4060              	.LVL377:
 4061              	.LBE2897:
 4062              	.LBE2896:
 4063              	.LBE2895:
 4064              		.loc 3 240 0
 4065 1100 2F8B0000 		cmpwi 7,11,0
 4066              	.LBB2900:
 4067              	.LBB2899:
 4068              	.LBB2898:
 4069              		.loc 5 67 0
 4070 1104 396BFFFF 		addi 11,11,-1
 4071 1108 9169FFFC 		stw 11,-4(9)
 4072              	.LBE2898:
 4073              	.LBE2899:
 4074              	.LBE2900:
 4075              		.loc 3 240 0
 4076 110c 419DFF5C 		bgt+ 7,.L256
 4077              		.loc 3 244 0
 4078 1110 38810009 		addi 4,1,9
 4079 1114 48000001 		bl _ZNSs4_Rep10_M_destroyERKSaIcE
 4080              	.LVL378:
 4081 1118 4BFFFF50 		b .L256
 4082              	.LVL379:
 4083              	.L275:
 4084              	.LBE2903:
 4085              	.LBE2906:
 4086              	.LBE2908:
 4087              	.LBE2910:
 4088              	.LBE2913:
 4089              	.LBE2914:
 4090              	.LBE2943:
 4091              	.LBB2944:
 4092              	.LBB2933:
 4093              	.LBB2932:
 4094              	.LBB2931:
 4095              	.LBB2930:
 4096              	.LBB2924:
 4097              	.LBB2925:
 4098              	.LBB2926:
 4099              		.loc 5 66 0
 4100 111c 8169FFFC 		lwz 11,-4(9)
 4101              	.LVL380:
 4102              	.LBE2926:
 4103              	.LBE2925:
 4104              	.LBE2924:
 4105              		.loc 3 240 0
 4106 1120 2F8B0000 		cmpwi 7,11,0
 4107              	.LBB2929:
 4108              	.LBB2928:
 4109              	.LBB2927:
 4110              		.loc 5 67 0
 4111 1124 396BFFFF 		addi 11,11,-1
 4112 1128 9169FFFC 		stw 11,-4(9)
 4113              	.LBE2927:
 4114              	.LBE2928:
 4115              	.LBE2929:
 4116              		.loc 3 240 0
 4117 112c 419DFF4C 		bgt+ 7,.L265
 4118              		.loc 3 244 0
 4119 1130 38810008 		addi 4,1,8
 4120 1134 48000001 		bl _ZNSs4_Rep10_M_destroyERKSaIcE
 4121              	.LVL381:
 4122 1138 4BFFFF40 		b .L265
 4123              	.LVL382:
 4124              	.L271:
 4125 113c 7C7F1B78 		mr 31,3
 4126              	.L260:
 4127              	.LBE2930:
 4128              	.LBE2931:
 4129              	.LBE2932:
 4130              	.LBE2933:
 4131              	.LBE2944:
 4132              		.loc 9 111 0
 4133 1140 38610010 		addi 3,1,16
 4134              	.LVL383:
 4135 1144 48000001 		bl _ZNSsD1Ev
 4136              	.LVL384:
 4137 1148 7FE3FB78 		mr 3,31
 4138 114c 48000001 		bl _Unwind_Resume
 4139              	.LEHE35:
 4140              	.LVL385:
 4141              	.L272:
 4142 1150 7C7F1B78 		mr 31,3
 4143              	.LBB2945:
 4144              	.LBB2915:
 4145              		.loc 9 81 0
 4146 1154 3861000C 		addi 3,1,12
 4147              	.LVL386:
 4148 1158 48000001 		bl _ZNSsD1Ev
 4149              	.LVL387:
 4150 115c 4BFFFFE4 		b .L260
 4151              	.LBE2915:
 4152              	.LBE2945:
 4153              	.LBE2950:
 4154              		.cfi_endproc
 4155              	.LFE1034:
 4156              		.section	.gcc_except_table
 4157              	.LLSDA1034:
 4158 00c4 FF       		.byte	0xff
 4159 00c5 FF       		.byte	0xff
 4160 00c6 01       		.byte	0x1
 4161 00c7 14       		.uleb128 .LLSDACSE1034-.LLSDACSB1034
 4162              	.LLSDACSB1034:
 4163 00c8 64       		.uleb128 .LEHB32-.LFB1034
 4164 00c9 04       		.uleb128 .LEHE32-.LEHB32
 4165 00ca 00       		.uleb128 0
 4166 00cb 00       		.uleb128 0
 4167 00cc 70       		.uleb128 .LEHB33-.LFB1034
 4168 00cd 04       		.uleb128 .LEHE33-.LEHB33
 4169 00ce F002     		.uleb128 .L271-.LFB1034
 4170 00d0 00       		.uleb128 0
 4171 00d1 7C       		.uleb128 .LEHB34-.LFB1034
 4172 00d2 04       		.uleb128 .LEHE34-.LEHB34
 4173 00d3 8403     		.uleb128 .L272-.LFB1034
 4174 00d5 00       		.uleb128 0
 4175 00d6 C001     		.uleb128 .LEHB35-.LFB1034
 4176 00d8 C401     		.uleb128 .LEHE35-.LEHB35
 4177 00da 00       		.uleb128 0
 4178 00db 00       		.uleb128 0
 4179              	.LLSDACSE1034:
 4180              		.section	".text"
 4181              		.size	_ZN4Nand11GetFileSizeESs, .-_ZN4Nand11GetFileSizeESs
 4182              		.align 2
 4183              		.globl _ZN4Nand5CloseEi
 4184              		.type	_ZN4Nand5CloseEi, @function
 4185              	_ZN4Nand5CloseEi:
 4186              	.LFB1036:
 4187              		.loc 9 157 0
 4188              		.cfi_startproc
 4189              	.LVL388:
 4190              		.loc 9 158 0
 4191 1160 2F830000 		cmpwi 7,3,0
 4192              		.loc 9 157 0
 4193 1164 7C0802A6 		mflr 0
 4194 1168 9421FFF8 		stwu 1,-8(1)
 4195              	.LCFI49:
 4196              		.cfi_def_cfa_offset 8
 4197              		.cfi_register 65, 0
 4198 116c 9001000C 		stw 0,12(1)
 4199              		.loc 9 159 0
 4200 1170 38000000 		li 0,0
 4201              		.cfi_offset 65, 4
 4202              		.loc 9 158 0
 4203 1174 409D000C 		ble- 7,.L278
 4204              		.loc 9 161 0
 4205 1178 48000001 		bl ISFS_Close
 4206              	.LVL389:
 4207 117c 7C601B78 		mr 0,3
 4208              	.L278:
 4209              		.loc 9 162 0
 4210 1180 7C030378 		mr 3,0
 4211 1184 8001000C 		lwz 0,12(1)
 4212 1188 38210008 		addi 1,1,8
 4213              	.LCFI50:
 4214              		.cfi_def_cfa_offset 0
 4215 118c 7C0803A6 		mtlr 0
 4216 1190 4E800020 		blr
 4217              		.cfi_endproc
 4218              	.LFE1036:
 4219              		.size	_ZN4Nand5CloseEi, .-_ZN4Nand5CloseEi
 4220              		.align 2
 4221              		.globl _ZN4Nand9CheckFileESs
 4222              		.type	_ZN4Nand9CheckFileESs, @function
 4223              	_ZN4Nand9CheckFileESs:
 4224              	.LFB1037:
 4225              		.loc 9 165 0
 4226              		.cfi_startproc
 4227              		.cfi_personality 0,__gxx_personality_v0
 4228              		.cfi_lsda 0,.LLSDA1037
 4229              	.LVL390:
 4230 1194 7C0802A6 		mflr 0
 4231 1198 9421FFE0 		stwu 1,-32(1)
 4232              	.LCFI51:
 4233              		.cfi_def_cfa_offset 32
 4234              		.cfi_register 65, 0
 4235 119c 7C641B78 		mr 4,3
 4236              	.LVL391:
 4237 11a0 93C10018 		stw 30,24(1)
 4238 11a4 90010024 		stw 0,36(1)
 4239 11a8 93E1001C 		stw 31,28(1)
 4240              	.LBB3009:
 4241              	.LBB3010:
 4242              	.LBB3011:
 4243              	.LBB3012:
 4244              		.loc 3 711 0
 4245 11ac 81230000 		lwz 9,0(3)
 4246              	.LBE3012:
 4247              	.LBE3011:
 4248              	.LBE3010:
 4249              		.loc 9 169 0
 4250 11b0 38600000 		li 3,0
 4251              	.LVL392:
 4252              		.loc 9 168 0
 4253 11b4 8009FFF4 		lwz 0,-12(9)
 4254              		.cfi_offset 31, -4
 4255              		.cfi_offset 65, 4
 4256              		.cfi_offset 30, -8
 4257 11b8 2F800000 		cmpwi 7,0,0
 4258 11bc 409E001C 		bne- 7,.L302
 4259              	.LVL393:
 4260              	.L281:
 4261              	.LBE3009:
 4262              		.loc 9 179 0
 4263 11c0 80010024 		lwz 0,36(1)
 4264 11c4 83C10018 		lwz 30,24(1)
 4265 11c8 7C0803A6 		mtlr 0
 4266 11cc 83E1001C 		lwz 31,28(1)
 4267 11d0 38210020 		addi 1,1,32
 4268              		.cfi_remember_state
 4269              	.LCFI52:
 4270              		.cfi_def_cfa_offset 0
 4271              		.cfi_restore 31
 4272              		.cfi_restore 30
 4273 11d4 4E800020 		blr
 4274              	.LVL394:
 4275              	.L302:
 4276              	.LCFI53:
 4277              		.cfi_restore_state
 4278              	.LBB3074:
 4279              		.loc 9 171 0
 4280 11d8 38610010 		addi 3,1,16
 4281              	.LEHB36:
 4282 11dc 48000001 		bl _ZNSsC1ERKSs
 4283              	.LEHE36:
 4284              	.LVL395:
 4285              	.LBB3013:
 4286              	.LBB3014:
 4287              		.loc 9 81 0
 4288 11e0 3861000C 		addi 3,1,12
 4289 11e4 38810010 		addi 4,1,16
 4290              	.LVL396:
 4291              	.LEHB37:
 4292 11e8 48000001 		bl _ZNSsC1ERKSs
 4293              	.LEHE37:
 4294              	.LVL397:
 4295              	.LBB3015:
 4296              	.LBB3016:
 4297              		.loc 9 76 0
 4298 11ec 8061000C 		lwz 3,12(1)
 4299 11f0 38800001 		li 4,1
 4300              	.LEHB38:
 4301 11f4 48000001 		bl ISFS_Open
 4302              	.LEHE38:
 4303              	.LBE3016:
 4304              	.LBE3015:
 4305              	.LBB3018:
 4306              	.LBB3019:
 4307              	.LBB3020:
 4308              	.LBB3021:
 4309              	.LBB3022:
 4310              	.LBB3023:
 4311              		.loc 3 288 0
 4312 11f8 8121000C 		lwz 9,12(1)
 4313              	.LBE3023:
 4314              	.LBE3022:
 4315              	.LBE3021:
 4316              	.LBB3024:
 4317              	.LBB3025:
 4318              		.loc 3 235 0
 4319 11fc 3FE00000 		lis 31,_ZNSs4_Rep20_S_empty_rep_storageE@ha
 4320              	.LBE3025:
 4321              	.LBE3024:
 4322              	.LBE3020:
 4323              	.LBE3019:
 4324              	.LBE3018:
 4325              	.LBB3042:
 4326              	.LBB3017:
 4327              		.loc 9 76 0
 4328 1200 7C7E1B78 		mr 30,3
 4329              	.LVL398:
 4330              	.LBE3017:
 4331              	.LBE3042:
 4332              	.LBB3043:
 4333              	.LBB3040:
 4334              	.LBB3038:
 4335              	.LBB3035:
 4336              	.LBB3032:
 4337              		.loc 3 235 0
 4338 1204 3BFF0000 		la 31,_ZNSs4_Rep20_S_empty_rep_storageE@l(31)
 4339              	.LBE3032:
 4340              	.LBE3035:
 4341              		.loc 3 534 0
 4342 1208 3869FFF4 		addi 3,9,-12
 4343              	.LVL399:
 4344              	.LBB3036:
 4345              	.LBB3033:
 4346              		.loc 3 235 0
 4347 120c 7F83F800 		cmpw 7,3,31
 4348 1210 409E0070 		bne- 7,.L303
 4349              	.LVL400:
 4350              	.L287:
 4351              	.LBE3033:
 4352              	.LBE3036:
 4353              	.LBE3038:
 4354              	.LBE3040:
 4355              	.LBE3043:
 4356              	.LBE3014:
 4357              	.LBE3013:
 4358              	.LBB3047:
 4359              	.LBB3048:
 4360              	.LBB3049:
 4361              	.LBB3050:
 4362              	.LBB3051:
 4363              	.LBB3052:
 4364              		.loc 3 288 0
 4365 1214 81210010 		lwz 9,16(1)
 4366              	.LBE3052:
 4367              	.LBE3051:
 4368              	.LBE3050:
 4369              		.loc 3 534 0
 4370 1218 3869FFF4 		addi 3,9,-12
 4371              	.LVL401:
 4372              	.LBB3053:
 4373              	.LBB3054:
 4374              		.loc 3 235 0
 4375 121c 7F83F800 		cmpw 7,3,31
 4376 1220 409E0040 		bne- 7,.L304
 4377              	.LVL402:
 4378              	.L296:
 4379              	.LBE3054:
 4380              	.LBE3053:
 4381              	.LBE3049:
 4382              	.LBE3048:
 4383              	.LBE3047:
 4384              		.loc 9 172 0 discriminator 1
 4385 1224 2F9E0000 		cmpwi 7,30,0
 4386              		.loc 9 166 0 discriminator 1
 4387 1228 38600000 		li 3,0
 4388              		.loc 9 172 0 discriminator 1
 4389 122c 41BCFF94 		blt- 7,.L281
 4390              	.LVL403:
 4391              	.LBB3065:
 4392              	.LBB3066:
 4393              		.loc 9 158 0
 4394 1230 419E0028 		beq- 7,.L299
 4395              		.loc 9 161 0
 4396 1234 7FC3F378 		mr 3,30
 4397              	.LEHB39:
 4398 1238 48000001 		bl ISFS_Close
 4399              	.LBE3066:
 4400              	.LBE3065:
 4401              	.LBE3074:
 4402              		.loc 9 179 0
 4403 123c 80010024 		lwz 0,36(1)
 4404 1240 83C10018 		lwz 30,24(1)
 4405              	.LVL404:
 4406              	.LBB3075:
 4407              	.LBB3069:
 4408              	.LBB3067:
 4409              		.loc 9 174 0
 4410 1244 38600001 		li 3,1
 4411              	.LBE3067:
 4412              	.LBE3069:
 4413              	.LBE3075:
 4414              		.loc 9 179 0
 4415 1248 7C0803A6 		mtlr 0
 4416 124c 83E1001C 		lwz 31,28(1)
 4417 1250 38210020 		addi 1,1,32
 4418              		.cfi_remember_state
 4419              		.cfi_restore 30
 4420              		.cfi_restore 31
 4421              	.LCFI54:
 4422              		.cfi_def_cfa_offset 0
 4423 1254 4E800020 		blr
 4424              	.LVL405:
 4425              	.L299:
 4426              	.LCFI55:
 4427              		.cfi_restore_state
 4428              	.LBB3076:
 4429              	.LBB3070:
 4430              	.LBB3068:
 4431              		.loc 9 174 0
 4432 1258 38600001 		li 3,1
 4433 125c 4BFFFF64 		b .L281
 4434              	.LVL406:
 4435              	.L304:
 4436              	.LBE3068:
 4437              	.LBE3070:
 4438              	.LBB3071:
 4439              	.LBB3064:
 4440              	.LBB3063:
 4441              	.LBB3062:
 4442              	.LBB3061:
 4443              	.LBB3055:
 4444              	.LBB3056:
 4445              	.LBB3057:
 4446              		.loc 5 66 0
 4447 1260 8169FFFC 		lwz 11,-4(9)
 4448              	.LVL407:
 4449              	.LBE3057:
 4450              	.LBE3056:
 4451              	.LBE3055:
 4452              		.loc 3 240 0
 4453 1264 2F8B0000 		cmpwi 7,11,0
 4454              	.LBB3060:
 4455              	.LBB3059:
 4456              	.LBB3058:
 4457              		.loc 5 67 0
 4458 1268 396BFFFF 		addi 11,11,-1
 4459 126c 9169FFFC 		stw 11,-4(9)
 4460              	.LBE3058:
 4461              	.LBE3059:
 4462              	.LBE3060:
 4463              		.loc 3 240 0
 4464 1270 419DFFB4 		bgt+ 7,.L296
 4465              		.loc 3 244 0
 4466 1274 38810008 		addi 4,1,8
 4467 1278 48000001 		bl _ZNSs4_Rep10_M_destroyERKSaIcE
 4468              	.LVL408:
 4469 127c 4BFFFFA8 		b .L296
 4470              	.LVL409:
 4471              	.L303:
 4472              	.LBE3061:
 4473              	.LBE3062:
 4474              	.LBE3063:
 4475              	.LBE3064:
 4476              	.LBE3071:
 4477              	.LBB3072:
 4478              	.LBB3045:
 4479              	.LBB3044:
 4480              	.LBB3041:
 4481              	.LBB3039:
 4482              	.LBB3037:
 4483              	.LBB3034:
 4484              	.LBB3026:
 4485              	.LBB3027:
 4486              	.LBB3028:
 4487              		.loc 5 66 0
 4488 1280 8169FFFC 		lwz 11,-4(9)
 4489              	.LVL410:
 4490              	.LBE3028:
 4491              	.LBE3027:
 4492              	.LBE3026:
 4493              		.loc 3 240 0
 4494 1284 2F8B0000 		cmpwi 7,11,0
 4495              	.LBB3031:
 4496              	.LBB3030:
 4497              	.LBB3029:
 4498              		.loc 5 67 0
 4499 1288 396BFFFF 		addi 11,11,-1
 4500 128c 9169FFFC 		stw 11,-4(9)
 4501              	.LBE3029:
 4502              	.LBE3030:
 4503              	.LBE3031:
 4504              		.loc 3 240 0
 4505 1290 419DFF84 		bgt+ 7,.L287
 4506              		.loc 3 244 0
 4507 1294 38810009 		addi 4,1,9
 4508 1298 48000001 		bl _ZNSs4_Rep10_M_destroyERKSaIcE
 4509              	.LVL411:
 4510 129c 4BFFFF78 		b .L287
 4511              	.LVL412:
 4512              	.L300:
 4513 12a0 7C7F1B78 		mr 31,3
 4514              	.L291:
 4515              	.LBE3034:
 4516              	.LBE3037:
 4517              	.LBE3039:
 4518              	.LBE3041:
 4519              	.LBE3044:
 4520              	.LBE3045:
 4521              	.LBE3072:
 4522              		.loc 9 171 0
 4523 12a4 38610010 		addi 3,1,16
 4524              	.LVL413:
 4525 12a8 48000001 		bl _ZNSsD1Ev
 4526              	.LVL414:
 4527 12ac 7FE3FB78 		mr 3,31
 4528 12b0 48000001 		bl _Unwind_Resume
 4529              	.LEHE39:
 4530              	.LVL415:
 4531              	.L301:
 4532 12b4 7C7F1B78 		mr 31,3
 4533              	.LBB3073:
 4534              	.LBB3046:
 4535              		.loc 9 81 0
 4536 12b8 3861000C 		addi 3,1,12
 4537              	.LVL416:
 4538 12bc 48000001 		bl _ZNSsD1Ev
 4539              	.LVL417:
 4540 12c0 4BFFFFE4 		b .L291
 4541              	.LBE3046:
 4542              	.LBE3073:
 4543              	.LBE3076:
 4544              		.cfi_endproc
 4545              	.LFE1037:
 4546              		.section	.gcc_except_table
 4547              	.LLSDA1037:
 4548 00dc FF       		.byte	0xff
 4549 00dd FF       		.byte	0xff
 4550 00de 01       		.byte	0x1
 4551 00df 13       		.uleb128 .LLSDACSE1037-.LLSDACSB1037
 4552              	.LLSDACSB1037:
 4553 00e0 48       		.uleb128 .LEHB36-.LFB1037
 4554 00e1 04       		.uleb128 .LEHE36-.LEHB36
 4555 00e2 00       		.uleb128 0
 4556 00e3 00       		.uleb128 0
 4557 00e4 54       		.uleb128 .LEHB37-.LFB1037
 4558 00e5 04       		.uleb128 .LEHE37-.LEHB37
 4559 00e6 8C02     		.uleb128 .L300-.LFB1037
 4560 00e8 00       		.uleb128 0
 4561 00e9 60       		.uleb128 .LEHB38-.LFB1037
 4562 00ea 04       		.uleb128 .LEHE38-.LEHB38
 4563 00eb A002     		.uleb128 .L301-.LFB1037
 4564 00ed 00       		.uleb128 0
 4565 00ee A401     		.uleb128 .LEHB39-.LFB1037
 4566 00f0 7C       		.uleb128 .LEHE39-.LEHB39
 4567 00f1 00       		.uleb128 0
 4568 00f2 00       		.uleb128 0
 4569              	.LLSDACSE1037:
 4570              		.section	".text"
 4571              		.size	_ZN4Nand9CheckFileESs, .-_ZN4Nand9CheckFileESs
 4572              		.align 2
 4573              		.globl _ZN4Nand6DeleteESs
 4574              		.type	_ZN4Nand6DeleteESs, @function
 4575              	_ZN4Nand6DeleteESs:
 4576              	.LFB1038:
 4577              		.loc 9 182 0
 4578              		.cfi_startproc
 4579              	.LVL418:
 4580 12c4 7C0802A6 		mflr 0
 4581 12c8 9421FFF8 		stwu 1,-8(1)
 4582              	.LCFI56:
 4583              		.cfi_def_cfa_offset 8
 4584              		.cfi_register 65, 0
 4585 12cc 9001000C 		stw 0,12(1)
 4586              		.loc 9 183 0
 4587 12d0 80630000 		lwz 3,0(3)
 4588              	.LVL419:
 4589              		.cfi_offset 65, 4
 4590 12d4 48000001 		bl ISFS_Delete
 4591              		.loc 9 184 0
 4592 12d8 8001000C 		lwz 0,12(1)
 4593 12dc 38210008 		addi 1,1,8
 4594              	.LCFI57:
 4595              		.cfi_def_cfa_offset 0
 4596 12e0 7C0803A6 		mtlr 0
 4597 12e4 4E800020 		blr
 4598              		.cfi_endproc
 4599              	.LFE1038:
 4600              		.size	_ZN4Nand6DeleteESs, .-_ZN4Nand6DeleteESs
 4601              		.align 2
 4602              		.globl _ZN4Nand5WriteEiPhj
 4603              		.type	_ZN4Nand5WriteEiPhj, @function
 4604              	_ZN4Nand5WriteEiPhj:
 4605              	.LFB1039:
 4606              		.loc 9 187 0
 4607              		.cfi_startproc
 4608              	.LVL420:
 4609 12e8 7C0802A6 		mflr 0
 4610 12ec 9421FFF8 		stwu 1,-8(1)
 4611              	.LCFI58:
 4612              		.cfi_def_cfa_offset 8
 4613              		.cfi_register 65, 0
 4614 12f0 9001000C 		stw 0,12(1)
 4615              		.loc 9 188 0
 4616              		.cfi_offset 65, 4
 4617 12f4 48000001 		bl ISFS_Write
 4618              	.LVL421:
 4619              		.loc 9 189 0
 4620 12f8 8001000C 		lwz 0,12(1)
 4621 12fc 38210008 		addi 1,1,8
 4622              	.LCFI59:
 4623              		.cfi_def_cfa_offset 0
 4624 1300 7C0803A6 		mtlr 0
 4625 1304 4E800020 		blr
 4626              		.cfi_endproc
 4627              	.LFE1039:
 4628              		.size	_ZN4Nand5WriteEiPhj, .-_ZN4Nand5WriteEiPhj
 4629              		.align 2
 4630              		.globl _ZN4Nand5WriteESsPhj
 4631              		.type	_ZN4Nand5WriteESsPhj, @function
 4632              	_ZN4Nand5WriteESsPhj:
 4633              	.LFB1040:
 4634              		.loc 9 192 0
 4635              		.cfi_startproc
 4636              		.cfi_personality 0,__gxx_personality_v0
 4637              		.cfi_lsda 0,.LLSDA1040
 4638              	.LVL422:
 4639 1308 9421FFD0 		stwu 1,-48(1)
 4640              	.LCFI60:
 4641              		.cfi_def_cfa_offset 48
 4642 130c 7D800026 		mfcr 12
 4643 1310 7C0802A6 		mflr 0
 4644 1314 93C10028 		stw 30,40(1)
 4645              	.LBB3131:
 4646              		.loc 9 194 0
 4647 1318 7C9E2379 		mr. 30,4
 4648              		.cfi_offset 30, -8
 4649              		.cfi_register 65, 0
 4650              		.cfi_register 70, 12
 4651              	.LBE3131:
 4652              		.loc 9 192 0
 4653 131c 93E1002C 		stw 31,44(1)
 4654 1320 7C641B78 		mr 4,3
 4655              	.LVL423:
 4656 1324 90010034 		stw 0,52(1)
 4657 1328 7CBF2B78 		mr 31,5
 4658              		.cfi_offset 65, 4
 4659              		.cfi_offset 31, -4
 4660 132c 93810020 		stw 28,32(1)
 4661 1330 93A10024 		stw 29,36(1)
 4662 1334 9181001C 		stw 12,28(1)
 4663              	.LBB3193:
 4664              		.loc 9 194 0
 4665 1338 418200E0 		beq- 0,.L325
 4666              		.cfi_offset 70, -20
 4667              		.cfi_offset 29, -12
 4668              		.cfi_offset 28, -16
 4669              		.loc 9 194 0 is_stmt 0 discriminator 1
 4670 133c 2F850000 		cmpwi 7,5,0
 4671 1340 419E00D8 		beq- 7,.L325
 4672              		.loc 9 197 0 is_stmt 1
 4673 1344 38610010 		addi 3,1,16
 4674              	.LVL424:
 4675              	.LEHB40:
 4676 1348 48000001 		bl _ZNSsC1ERKSs
 4677              	.LEHE40:
 4678              	.LVL425:
 4679              	.LBB3132:
 4680              	.LBB3133:
 4681              		.loc 9 86 0
 4682 134c 3861000C 		addi 3,1,12
 4683 1350 38810010 		addi 4,1,16
 4684              	.LVL426:
 4685              	.LEHB41:
 4686 1354 48000001 		bl _ZNSsC1ERKSs
 4687              	.LEHE41:
 4688              	.LVL427:
 4689              	.LBB3134:
 4690              	.LBB3135:
 4691              		.loc 9 76 0
 4692 1358 8061000C 		lwz 3,12(1)
 4693 135c 38800003 		li 4,3
 4694              	.LEHB42:
 4695 1360 48000001 		bl ISFS_Open
 4696              	.LEHE42:
 4697              	.LBE3135:
 4698              	.LBE3134:
 4699              	.LBB3137:
 4700              	.LBB3138:
 4701              	.LBB3139:
 4702              	.LBB3140:
 4703              	.LBB3141:
 4704              	.LBB3142:
 4705              		.loc 3 288 0
 4706 1364 8121000C 		lwz 9,12(1)
 4707              	.LBE3142:
 4708              	.LBE3141:
 4709              	.LBE3140:
 4710              	.LBB3143:
 4711              	.LBB3144:
 4712              		.loc 3 235 0
 4713 1368 3F800000 		lis 28,_ZNSs4_Rep20_S_empty_rep_storageE@ha
 4714              	.LBE3144:
 4715              	.LBE3143:
 4716              	.LBE3139:
 4717              	.LBE3138:
 4718              	.LBE3137:
 4719              	.LBB3161:
 4720              	.LBB3136:
 4721              		.loc 9 76 0
 4722 136c 7C7D1B78 		mr 29,3
 4723              	.LVL428:
 4724              	.LBE3136:
 4725              	.LBE3161:
 4726              	.LBB3162:
 4727              	.LBB3159:
 4728              	.LBB3157:
 4729              	.LBB3154:
 4730              	.LBB3151:
 4731              		.loc 3 235 0
 4732 1370 3B9C0000 		la 28,_ZNSs4_Rep20_S_empty_rep_storageE@l(28)
 4733              	.LBE3151:
 4734              	.LBE3154:
 4735              		.loc 3 534 0
 4736 1374 3869FFF4 		addi 3,9,-12
 4737              	.LVL429:
 4738              	.LBB3155:
 4739              	.LBB3152:
 4740              		.loc 3 235 0
 4741 1378 7F83E000 		cmpw 7,3,28
 4742 137c 409E00A4 		bne- 7,.L329
 4743              	.LVL430:
 4744              	.L314:
 4745              	.LBE3152:
 4746              	.LBE3155:
 4747              	.LBE3157:
 4748              	.LBE3159:
 4749              	.LBE3162:
 4750              	.LBE3133:
 4751              	.LBE3132:
 4752              	.LBB3166:
 4753              	.LBB3167:
 4754              	.LBB3168:
 4755              	.LBB3169:
 4756              	.LBB3170:
 4757              	.LBB3171:
 4758              		.loc 3 288 0
 4759 1380 81210010 		lwz 9,16(1)
 4760              	.LBE3171:
 4761              	.LBE3170:
 4762              	.LBE3169:
 4763              		.loc 3 534 0
 4764 1384 3869FFF4 		addi 3,9,-12
 4765              	.LVL431:
 4766              	.LBB3172:
 4767              	.LBB3173:
 4768              		.loc 3 235 0
 4769 1388 7F83E000 		cmpw 7,3,28
 4770 138c 409E00B4 		bne- 7,.L330
 4771              	.LVL432:
 4772              	.L323:
 4773              	.LBE3173:
 4774              	.LBE3172:
 4775              	.LBE3168:
 4776              	.LBE3167:
 4777              	.LBE3166:
 4778              		.loc 9 198 0 discriminator 1
 4779 1390 2E1D0000 		cmpwi 4,29,0
 4780 1394 41900028 		blt- 4,.L308
 4781              	.LVL433:
 4782              	.LBB3184:
 4783              	.LBB3185:
 4784              		.loc 9 188 0
 4785 1398 7FE5FB78 		mr 5,31
 4786 139c 7FA3EB78 		mr 3,29
 4787 13a0 7FC4F378 		mr 4,30
 4788              	.LEHB43:
 4789 13a4 48000001 		bl ISFS_Write
 4790 13a8 7C7F1B78 		mr 31,3
 4791              	.LVL434:
 4792              	.LBE3185:
 4793              	.LBE3184:
 4794              	.LBB3186:
 4795              	.LBB3187:
 4796              		.loc 9 158 0
 4797 13ac 4192003C 		beq- 4,.L326
 4798              		.loc 9 161 0
 4799 13b0 7FA3EB78 		mr 3,29
 4800              	.LVL435:
 4801              		.loc 9 204 0
 4802 13b4 7FFDFB78 		mr 29,31
 4803              	.LVL436:
 4804              		.loc 9 161 0
 4805 13b8 48000001 		bl ISFS_Close
 4806              	.LVL437:
 4807              	.L308:
 4808              	.LBE3187:
 4809              	.LBE3186:
 4810              	.LBE3193:
 4811              		.loc 9 205 0
 4812 13bc 80010034 		lwz 0,52(1)
 4813 13c0 7FA3EB78 		mr 3,29
 4814 13c4 8181001C 		lwz 12,28(1)
 4815 13c8 7C0803A6 		mtlr 0
 4816 13cc 83810020 		lwz 28,32(1)
 4817 13d0 83A10024 		lwz 29,36(1)
 4818 13d4 7D808120 		mtcrf 8,12
 4819 13d8 83C10028 		lwz 30,40(1)
 4820              	.LVL438:
 4821 13dc 83E1002C 		lwz 31,44(1)
 4822 13e0 38210030 		addi 1,1,48
 4823              		.cfi_remember_state
 4824              	.LCFI61:
 4825              		.cfi_def_cfa_offset 0
 4826              		.cfi_restore 70
 4827              		.cfi_restore 31
 4828              		.cfi_restore 30
 4829              		.cfi_restore 29
 4830              		.cfi_restore 28
 4831 13e4 4E800020 		blr
 4832              	.LVL439:
 4833              	.L326:
 4834              	.LCFI62:
 4835              		.cfi_restore_state
 4836 13e8 80010034 		lwz 0,52(1)
 4837              	.LBB3194:
 4838              	.LBB3189:
 4839              	.LBB3188:
 4840              		.loc 9 204 0
 4841 13ec 7C7D1B78 		mr 29,3
 4842              	.LVL440:
 4843              	.LBE3188:
 4844              	.LBE3189:
 4845              	.LBE3194:
 4846              		.loc 9 205 0
 4847 13f0 8181001C 		lwz 12,28(1)
 4848 13f4 7FA3EB78 		mr 3,29
 4849              	.LVL441:
 4850 13f8 7C0803A6 		mtlr 0
 4851 13fc 83810020 		lwz 28,32(1)
 4852 1400 83A10024 		lwz 29,36(1)
 4853 1404 7D808120 		mtcrf 8,12
 4854 1408 83C10028 		lwz 30,40(1)
 4855              	.LVL442:
 4856 140c 83E1002C 		lwz 31,44(1)
 4857              	.LVL443:
 4858 1410 38210030 		addi 1,1,48
 4859              		.cfi_remember_state
 4860              		.cfi_restore 28
 4861              		.cfi_restore 29
 4862              		.cfi_restore 30
 4863              		.cfi_restore 31
 4864              		.cfi_restore 70
 4865              	.LCFI63:
 4866              		.cfi_def_cfa_offset 0
 4867 1414 4E800020 		blr
 4868              	.LVL444:
 4869              	.L325:
 4870              	.LCFI64:
 4871              		.cfi_restore_state
 4872              	.LBB3195:
 4873              		.loc 9 195 0
 4874 1418 3BA0FFFF 		li 29,-1
 4875 141c 4BFFFFA0 		b .L308
 4876              	.LVL445:
 4877              	.L329:
 4878              	.LBB3190:
 4879              	.LBB3164:
 4880              	.LBB3163:
 4881              	.LBB3160:
 4882              	.LBB3158:
 4883              	.LBB3156:
 4884              	.LBB3153:
 4885              	.LBB3145:
 4886              	.LBB3146:
 4887              	.LBB3147:
 4888              		.loc 5 66 0
 4889 1420 8169FFFC 		lwz 11,-4(9)
 4890              	.LVL446:
 4891              	.LBE3147:
 4892              	.LBE3146:
 4893              	.LBE3145:
 4894              		.loc 3 240 0
 4895 1424 2F8B0000 		cmpwi 7,11,0
 4896              	.LBB3150:
 4897              	.LBB3149:
 4898              	.LBB3148:
 4899              		.loc 5 67 0
 4900 1428 396BFFFF 		addi 11,11,-1
 4901 142c 9169FFFC 		stw 11,-4(9)
 4902              	.LBE3148:
 4903              	.LBE3149:
 4904              	.LBE3150:
 4905              		.loc 3 240 0
 4906 1430 419DFF50 		bgt+ 7,.L314
 4907              		.loc 3 244 0
 4908 1434 38810009 		addi 4,1,9
 4909 1438 48000001 		bl _ZNSs4_Rep10_M_destroyERKSaIcE
 4910              	.LVL447:
 4911 143c 4BFFFF44 		b .L314
 4912              	.LVL448:
 4913              	.L330:
 4914              	.LBE3153:
 4915              	.LBE3156:
 4916              	.LBE3158:
 4917              	.LBE3160:
 4918              	.LBE3163:
 4919              	.LBE3164:
 4920              	.LBE3190:
 4921              	.LBB3191:
 4922              	.LBB3183:
 4923              	.LBB3182:
 4924              	.LBB3181:
 4925              	.LBB3180:
 4926              	.LBB3174:
 4927              	.LBB3175:
 4928              	.LBB3176:
 4929              		.loc 5 66 0
 4930 1440 8169FFFC 		lwz 11,-4(9)
 4931              	.LVL449:
 4932              	.LBE3176:
 4933              	.LBE3175:
 4934              	.LBE3174:
 4935              		.loc 3 240 0
 4936 1444 2F8B0000 		cmpwi 7,11,0
 4937              	.LBB3179:
 4938              	.LBB3178:
 4939              	.LBB3177:
 4940              		.loc 5 67 0
 4941 1448 396BFFFF 		addi 11,11,-1
 4942 144c 9169FFFC 		stw 11,-4(9)
 4943              	.LBE3177:
 4944              	.LBE3178:
 4945              	.LBE3179:
 4946              		.loc 3 240 0
 4947 1450 419DFF40 		bgt+ 7,.L323
 4948              		.loc 3 244 0
 4949 1454 38810008 		addi 4,1,8
 4950 1458 48000001 		bl _ZNSs4_Rep10_M_destroyERKSaIcE
 4951              	.LVL450:
 4952 145c 4BFFFF34 		b .L323
 4953              	.LVL451:
 4954              	.L327:
 4955 1460 7C7F1B78 		mr 31,3
 4956              	.LVL452:
 4957              	.L318:
 4958              	.LBE3180:
 4959              	.LBE3181:
 4960              	.LBE3182:
 4961              	.LBE3183:
 4962              	.LBE3191:
 4963              		.loc 9 197 0
 4964 1464 38610010 		addi 3,1,16
 4965              	.LVL453:
 4966 1468 48000001 		bl _ZNSsD1Ev
 4967              	.LVL454:
 4968 146c 7FE3FB78 		mr 3,31
 4969 1470 48000001 		bl _Unwind_Resume
 4970              	.LEHE43:
 4971              	.LVL455:
 4972              	.L328:
 4973 1474 7C7F1B78 		mr 31,3
 4974              	.LVL456:
 4975              	.LBB3192:
 4976              	.LBB3165:
 4977              		.loc 9 86 0
 4978 1478 3861000C 		addi 3,1,12
 4979              	.LVL457:
 4980 147c 48000001 		bl _ZNSsD1Ev
 4981              	.LVL458:
 4982 1480 4BFFFFE4 		b .L318
 4983              	.LBE3165:
 4984              	.LBE3192:
 4985              	.LBE3195:
 4986              		.cfi_endproc
 4987              	.LFE1040:
 4988              		.section	.gcc_except_table
 4989              	.LLSDA1040:
 4990 00f3 FF       		.byte	0xff
 4991 00f4 FF       		.byte	0xff
 4992 00f5 01       		.byte	0x1
 4993 00f6 14       		.uleb128 .LLSDACSE1040-.LLSDACSB1040
 4994              	.LLSDACSB1040:
 4995 00f7 40       		.uleb128 .LEHB40-.LFB1040
 4996 00f8 04       		.uleb128 .LEHE40-.LEHB40
 4997 00f9 00       		.uleb128 0
 4998 00fa 00       		.uleb128 0
 4999 00fb 4C       		.uleb128 .LEHB41-.LFB1040
 5000 00fc 04       		.uleb128 .LEHE41-.LEHB41
 5001 00fd D802     		.uleb128 .L327-.LFB1040
 5002 00ff 00       		.uleb128 0
 5003 0100 58       		.uleb128 .LEHB42-.LFB1040
 5004 0101 04       		.uleb128 .LEHE42-.LEHB42
 5005 0102 EC02     		.uleb128 .L328-.LFB1040
 5006 0104 00       		.uleb128 0
 5007 0105 9C01     		.uleb128 .LEHB43-.LFB1040
 5008 0107 D001     		.uleb128 .LEHE43-.LEHB43
 5009 0109 00       		.uleb128 0
 5010 010a 00       		.uleb128 0
 5011              	.LLSDACSE1040:
 5012              		.section	".text"
 5013              		.size	_ZN4Nand5WriteESsPhj, .-_ZN4Nand5WriteESsPhj
 5014              		.align 2
 5015              		.globl _ZN4Nand4ReadEiPhj
 5016              		.type	_ZN4Nand4ReadEiPhj, @function
 5017              	_ZN4Nand4ReadEiPhj:
 5018              	.LFB1041:
 5019              		.loc 9 208 0
 5020              		.cfi_startproc
 5021              	.LVL459:
 5022 1484 7C0802A6 		mflr 0
 5023 1488 9421FFF8 		stwu 1,-8(1)
 5024              	.LCFI65:
 5025              		.cfi_def_cfa_offset 8
 5026              		.cfi_register 65, 0
 5027 148c 9001000C 		stw 0,12(1)
 5028              		.loc 9 209 0
 5029              		.cfi_offset 65, 4
 5030 1490 48000001 		bl ISFS_Read
 5031              	.LVL460:
 5032              		.loc 9 210 0
 5033 1494 8001000C 		lwz 0,12(1)
 5034 1498 38210008 		addi 1,1,8
 5035              	.LCFI66:
 5036              		.cfi_def_cfa_offset 0
 5037 149c 7C0803A6 		mtlr 0
 5038 14a0 4E800020 		blr
 5039              		.cfi_endproc
 5040              	.LFE1041:
 5041              		.size	_ZN4Nand4ReadEiPhj, .-_ZN4Nand4ReadEiPhj
 5042              		.align 2
 5043              		.globl _ZN4Nand4SeekEiii
 5044              		.type	_ZN4Nand4SeekEiii, @function
 5045              	_ZN4Nand4SeekEiii:
 5046              	.LFB1042:
 5047              		.loc 9 213 0
 5048              		.cfi_startproc
 5049              	.LVL461:
 5050 14a4 7C0802A6 		mflr 0
 5051 14a8 9421FFF8 		stwu 1,-8(1)
 5052              	.LCFI67:
 5053              		.cfi_def_cfa_offset 8
 5054              		.cfi_register 65, 0
 5055 14ac 9001000C 		stw 0,12(1)
 5056              		.loc 9 214 0
 5057              		.cfi_offset 65, 4
 5058 14b0 48000001 		bl ISFS_Seek
 5059              	.LVL462:
 5060              		.loc 9 215 0
 5061 14b4 8001000C 		lwz 0,12(1)
 5062 14b8 38210008 		addi 1,1,8
 5063              	.LCFI68:
 5064              		.cfi_def_cfa_offset 0
 5065 14bc 7C0803A6 		mtlr 0
 5066 14c0 4E800020 		blr
 5067              		.cfi_endproc
 5068              	.LFE1042:
 5069              		.size	_ZN4Nand4SeekEiii, .-_ZN4Nand4SeekEiii
 5070              		.align 2
 5071              		.globl _ZN4Nand8LoadFileESsPPhPj
 5072              		.type	_ZN4Nand8LoadFileESsPPhPj, @function
 5073              	_ZN4Nand8LoadFileESsPPhPj:
 5074              	.LFB1044:
 5075              		.loc 9 253 0
 5076              		.cfi_startproc
 5077              		.cfi_personality 0,__gxx_personality_v0
 5078              		.cfi_lsda 0,.LLSDA1044
 5079              	.LVL463:
 5080 14c4 7C0802A6 		mflr 0
 5081 14c8 9421FFC8 		stwu 1,-56(1)
 5082              	.LCFI69:
 5083              		.cfi_def_cfa_offset 56
 5084              		.cfi_register 65, 0
 5085 14cc 7D800026 		mfcr 12
 5086 14d0 7C691B78 		mr 9,3
 5087              	.LVL464:
 5088 14d4 93C10030 		stw 30,48(1)
 5089 14d8 7CBE2B78 		mr 30,5
 5090              		.cfi_offset 30, -8
 5091              		.cfi_register 70, 12
 5092 14dc 9001003C 		stw 0,60(1)
 5093 14e0 93E10034 		stw 31,52(1)
 5094 14e4 7C9F2378 		mr 31,4
 5095              		.cfi_offset 31, -4
 5096              		.cfi_offset 65, 4
 5097              	.LBB3262:
 5098              	.LBB3263:
 5099              	.LBB3264:
 5100              	.LBB3265:
 5101              		.loc 3 711 0
 5102 14e8 81630000 		lwz 11,0(3)
 5103              	.LBE3265:
 5104              	.LBE3264:
 5105              	.LBE3263:
 5106              	.LBE3262:
 5107              		.loc 9 253 0
 5108 14ec 93410020 		stw 26,32(1)
 5109              	.LBB3330:
 5110              		.loc 9 254 0
 5111 14f0 800BFFF4 		lwz 0,-12(11)
 5112              	.LBE3330:
 5113              		.loc 9 253 0
 5114 14f4 93610024 		stw 27,36(1)
 5115              	.LBB3331:
 5116              		.loc 9 254 0
 5117 14f8 2F800000 		cmpwi 7,0,0
 5118              	.LBE3331:
 5119              		.loc 9 253 0
 5120 14fc 93810028 		stw 28,40(1)
 5121 1500 93A1002C 		stw 29,44(1)
 5122 1504 9181001C 		stw 12,28(1)
 5123              	.LBB3332:
 5124              		.loc 9 254 0
 5125 1508 419E0124 		beq- 7,.L355
 5126              		.cfi_offset 70, -28
 5127              		.cfi_offset 29, -12
 5128              		.cfi_offset 28, -16
 5129              		.cfi_offset 27, -20
 5130              		.cfi_offset 26, -24
 5131              	.LVL465:
 5132              		.loc 9 261 0
 5133 150c 38610010 		addi 3,1,16
 5134              	.LVL466:
 5135 1510 7D244B78 		mr 4,9
 5136              	.LVL467:
 5137              	.LEHB44:
 5138 1514 48000001 		bl _ZNSsC1ERKSs
 5139              	.LEHE44:
 5140              	.LVL468:
 5141              	.LBB3266:
 5142              	.LBB3267:
 5143              		.loc 9 81 0
 5144 1518 3861000C 		addi 3,1,12
 5145 151c 38810010 		addi 4,1,16
 5146              	.LVL469:
 5147              	.LEHB45:
 5148 1520 48000001 		bl _ZNSsC1ERKSs
 5149              	.LEHE45:
 5150              	.LVL470:
 5151              	.LBB3268:
 5152              	.LBB3269:
 5153              		.loc 9 76 0
 5154 1524 8061000C 		lwz 3,12(1)
 5155 1528 38800001 		li 4,1
 5156              	.LEHB46:
 5157 152c 48000001 		bl ISFS_Open
 5158              	.LEHE46:
 5159              	.LBE3269:
 5160              	.LBE3268:
 5161              	.LBB3271:
 5162              	.LBB3272:
 5163              	.LBB3273:
 5164              	.LBB3274:
 5165              	.LBB3275:
 5166              	.LBB3276:
 5167              		.loc 3 288 0
 5168 1530 8121000C 		lwz 9,12(1)
 5169              	.LBE3276:
 5170              	.LBE3275:
 5171              	.LBE3274:
 5172              	.LBB3277:
 5173              	.LBB3278:
 5174              		.loc 3 235 0
 5175 1534 3F800000 		lis 28,_ZNSs4_Rep20_S_empty_rep_storageE@ha
 5176              	.LBE3278:
 5177              	.LBE3277:
 5178              	.LBE3273:
 5179              	.LBE3272:
 5180              	.LBE3271:
 5181              	.LBB3295:
 5182              	.LBB3270:
 5183              		.loc 9 76 0
 5184 1538 7C7D1B78 		mr 29,3
 5185              	.LVL471:
 5186              	.LBE3270:
 5187              	.LBE3295:
 5188              	.LBB3296:
 5189              	.LBB3293:
 5190              	.LBB3291:
 5191              	.LBB3288:
 5192              	.LBB3285:
 5193              		.loc 3 235 0
 5194 153c 3B9C0000 		la 28,_ZNSs4_Rep20_S_empty_rep_storageE@l(28)
 5195              	.LBE3285:
 5196              	.LBE3288:
 5197              		.loc 3 534 0
 5198 1540 3869FFF4 		addi 3,9,-12
 5199              	.LVL472:
 5200              	.LBB3289:
 5201              	.LBB3286:
 5202              		.loc 3 235 0
 5203 1544 7F83E000 		cmpw 7,3,28
 5204 1548 409E0114 		bne- 7,.L363
 5205              	.LVL473:
 5206              	.L340:
 5207              	.LBE3286:
 5208              	.LBE3289:
 5209              	.LBE3291:
 5210              	.LBE3293:
 5211              	.LBE3296:
 5212              	.LBE3267:
 5213              	.LBE3266:
 5214              	.LBB3299:
 5215              	.LBB3300:
 5216              	.LBB3301:
 5217              	.LBB3302:
 5218              	.LBB3303:
 5219              	.LBB3304:
 5220              		.loc 3 288 0
 5221 154c 81210010 		lwz 9,16(1)
 5222              	.LBE3304:
 5223              	.LBE3303:
 5224              	.LBE3302:
 5225              		.loc 3 534 0
 5226 1550 3869FFF4 		addi 3,9,-12
 5227              	.LVL474:
 5228              	.LBB3305:
 5229              	.LBB3306:
 5230              		.loc 3 235 0
 5231 1554 7F83E000 		cmpw 7,3,28
 5232 1558 409E00E4 		bne- 7,.L364
 5233              	.LVL475:
 5234              	.L349:
 5235              	.LBE3306:
 5236              	.LBE3305:
 5237              	.LBE3301:
 5238              	.LBE3300:
 5239              	.LBE3299:
 5240              		.loc 9 262 0 discriminator 1
 5241 155c 2F9D0000 		cmpwi 7,29,0
 5242              		.loc 9 257 0 discriminator 1
 5243 1560 3B40FFFF 		li 26,-1
 5244              		.loc 9 262 0 discriminator 1
 5245 1564 419C0068 		blt- 7,.L334
 5246              	.LVL476:
 5247              	.LBB3317:
 5248              	.LBB3318:
 5249              		.loc 9 91 0
 5250 1568 419E0064 		beq- 7,.L334
 5251              	.LVL477:
 5252              	.LBE3318:
 5253              	.LBB3319:
 5254              	.LBB3320:
 5255              		.loc 9 94 0
 5256 156c 38600008 		li 3,8
 5257              	.LEHB47:
 5258 1570 48000001 		bl _ZN8MemTools17AllocateMemory_64Ej
 5259 1574 7C7B1B78 		mr 27,3
 5260              	.LVL478:
 5261              		.loc 9 95 0
 5262 1578 7FA3EB78 		mr 3,29
 5263              	.LVL479:
 5264 157c 7F64DB78 		mr 4,27
 5265 1580 48000001 		bl ISFS_GetFileStats
 5266              	.LVL480:
 5267              		.loc 9 96 0
 5268 1584 2E030000 		cmpwi 4,3,0
 5269 1588 7C7C1B78 		mr 28,3
 5270 158c 4190000C 		blt- 4,.L350
 5271              		.loc 9 97 0
 5272 1590 839B0000 		lwz 28,0(27)
 5273              	.LVL481:
 5274 1594 2E1C0000 		cmpwi 4,28,0
 5275              	.LVL482:
 5276              	.L350:
 5277              		.loc 9 99 0
 5278 1598 7F63DB78 		mr 3,27
 5279 159c 48000001 		bl free
 5280              		.loc 9 101 0
 5281 15a0 41900094 		blt- 4,.L365
 5282              	.LVL483:
 5283              	.LBE3320:
 5284              	.LBE3319:
 5285              	.LBE3317:
 5286              		.loc 9 265 0
 5287 15a4 2F9C0000 		cmpwi 7,28,0
 5288 15a8 409E0058 		bne- 7,.L366
 5289              	.LVL484:
 5290              	.L358:
 5291              		.loc 9 259 0
 5292 15ac 3B600000 		li 27,0
 5293              	.LVL485:
 5294              		.loc 9 257 0
 5295 15b0 3B40FFFF 		li 26,-1
 5296              	.LVL486:
 5297              	.L352:
 5298              	.LBB3323:
 5299              	.LBB3324:
 5300              		.loc 9 161 0
 5301 15b4 7FA3EB78 		mr 3,29
 5302 15b8 48000001 		bl ISFS_Close
 5303              	.LVL487:
 5304              	.LBE3324:
 5305              	.LBE3323:
 5306              		.loc 9 278 0
 5307 15bc 2F9A0000 		cmpwi 7,26,0
 5308 15c0 419C00D8 		blt- 7,.L367
 5309              		.loc 9 284 0
 5310 15c4 937F0000 		stw 27,0(31)
 5311              		.loc 9 285 0
 5312 15c8 939E0000 		stw 28,0(30)
 5313              	.LVL488:
 5314              	.L334:
 5315              	.LBE3332:
 5316              		.loc 9 288 0
 5317 15cc 8001003C 		lwz 0,60(1)
 5318 15d0 7F43D378 		mr 3,26
 5319 15d4 8181001C 		lwz 12,28(1)
 5320 15d8 7C0803A6 		mtlr 0
 5321 15dc 83410020 		lwz 26,32(1)
 5322 15e0 83610024 		lwz 27,36(1)
 5323 15e4 7D808120 		mtcrf 8,12
 5324 15e8 83810028 		lwz 28,40(1)
 5325 15ec 83A1002C 		lwz 29,44(1)
 5326 15f0 83C10030 		lwz 30,48(1)
 5327              	.LVL489:
 5328 15f4 83E10034 		lwz 31,52(1)
 5329              	.LVL490:
 5330 15f8 38210038 		addi 1,1,56
 5331              		.cfi_remember_state
 5332              	.LCFI70:
 5333              		.cfi_def_cfa_offset 0
 5334              		.cfi_restore 70
 5335              		.cfi_restore 31
 5336              		.cfi_restore 30
 5337              		.cfi_restore 29
 5338              		.cfi_restore 28
 5339              		.cfi_restore 27
 5340              		.cfi_restore 26
 5341 15fc 4E800020 		blr
 5342              	.LVL491:
 5343              	.L366:
 5344              	.LCFI71:
 5345              		.cfi_restore_state
 5346              	.LBB3333:
 5347              		.loc 9 267 0
 5348 1600 7F83E378 		mr 3,28
 5349              		.loc 9 257 0
 5350 1604 3B40FFFF 		li 26,-1
 5351              		.loc 9 267 0
 5352 1608 48000001 		bl _ZN8MemTools17AllocateMemory_32Ej
 5353              	.LVL492:
 5354              		.loc 9 268 0
 5355 160c 7C7B1B79 		mr. 27,3
 5356              	.LVL493:
 5357 1610 41A2FFA4 		beq- 0,.L352
 5358              	.LVL494:
 5359              	.LBB3325:
 5360              	.LBB3326:
 5361              		.loc 9 209 0
 5362 1614 7FA3EB78 		mr 3,29
 5363              	.LVL495:
 5364 1618 7F64DB78 		mr 4,27
 5365 161c 7F85E378 		mr 5,28
 5366 1620 48000001 		bl ISFS_Read
 5367 1624 7C7A1B78 		mr 26,3
 5368              	.LVL496:
 5369 1628 4BFFFF8C 		b .L352
 5370              	.LVL497:
 5371              	.L355:
 5372              	.LBE3326:
 5373              	.LBE3325:
 5374              		.loc 9 255 0
 5375 162c 3B40FFFF 		li 26,-1
 5376 1630 4BFFFF9C 		b .L334
 5377              	.LVL498:
 5378              	.L365:
 5379              	.LBB3327:
 5380              	.LBB3322:
 5381              	.LBB3321:
 5382              		.loc 9 101 0
 5383 1634 3B800000 		li 28,0
 5384              	.LVL499:
 5385 1638 4BFFFF74 		b .L358
 5386              	.LVL500:
 5387              	.L364:
 5388              	.LBE3321:
 5389              	.LBE3322:
 5390              	.LBE3327:
 5391              	.LBB3328:
 5392              	.LBB3316:
 5393              	.LBB3315:
 5394              	.LBB3314:
 5395              	.LBB3313:
 5396              	.LBB3307:
 5397              	.LBB3308:
 5398              	.LBB3309:
 5399              		.loc 5 66 0
 5400 163c 8169FFFC 		lwz 11,-4(9)
 5401              	.LVL501:
 5402              	.LBE3309:
 5403              	.LBE3308:
 5404              	.LBE3307:
 5405              		.loc 3 240 0
 5406 1640 2F8B0000 		cmpwi 7,11,0
 5407              	.LBB3312:
 5408              	.LBB3311:
 5409              	.LBB3310:
 5410              		.loc 5 67 0
 5411 1644 396BFFFF 		addi 11,11,-1
 5412 1648 9169FFFC 		stw 11,-4(9)
 5413              	.LBE3310:
 5414              	.LBE3311:
 5415              	.LBE3312:
 5416              		.loc 3 240 0
 5417 164c 419DFF10 		bgt+ 7,.L349
 5418              		.loc 3 244 0
 5419 1650 38810008 		addi 4,1,8
 5420 1654 48000001 		bl _ZNSs4_Rep10_M_destroyERKSaIcE
 5421              	.LVL502:
 5422 1658 4BFFFF04 		b .L349
 5423              	.LVL503:
 5424              	.L363:
 5425              	.LBE3313:
 5426              	.LBE3314:
 5427              	.LBE3315:
 5428              	.LBE3316:
 5429              	.LBE3328:
 5430              	.LBB3329:
 5431              	.LBB3298:
 5432              	.LBB3297:
 5433              	.LBB3294:
 5434              	.LBB3292:
 5435              	.LBB3290:
 5436              	.LBB3287:
 5437              	.LBB3279:
 5438              	.LBB3280:
 5439              	.LBB3281:
 5440              		.loc 5 66 0
 5441 165c 8169FFFC 		lwz 11,-4(9)
 5442              	.LVL504:
 5443              	.LBE3281:
 5444              	.LBE3280:
 5445              	.LBE3279:
 5446              		.loc 3 240 0
 5447 1660 2F8B0000 		cmpwi 7,11,0
 5448              	.LBB3284:
 5449              	.LBB3283:
 5450              	.LBB3282:
 5451              		.loc 5 67 0
 5452 1664 396BFFFF 		addi 11,11,-1
 5453 1668 9169FFFC 		stw 11,-4(9)
 5454              	.LBE3282:
 5455              	.LBE3283:
 5456              	.LBE3284:
 5457              		.loc 3 240 0
 5458 166c 419DFEE0 		bgt+ 7,.L340
 5459              		.loc 3 244 0
 5460 1670 38810009 		addi 4,1,9
 5461 1674 48000001 		bl _ZNSs4_Rep10_M_destroyERKSaIcE
 5462              	.LVL505:
 5463 1678 4BFFFED4 		b .L340
 5464              	.LVL506:
 5465              	.L361:
 5466 167c 7C7F1B78 		mr 31,3
 5467              	.LVL507:
 5468              	.LBE3287:
 5469              	.LBE3290:
 5470              	.LBE3292:
 5471              	.LBE3294:
 5472              	.LBE3297:
 5473              		.loc 9 81 0
 5474 1680 3861000C 		addi 3,1,12
 5475              	.LVL508:
 5476 1684 48000001 		bl _ZNSsD1Ev
 5477              	.LVL509:
 5478              	.L344:
 5479              	.LBE3298:
 5480              	.LBE3329:
 5481              		.loc 9 261 0
 5482 1688 38610010 		addi 3,1,16
 5483              	.LVL510:
 5484 168c 48000001 		bl _ZNSsD1Ev
 5485              	.LVL511:
 5486 1690 7FE3FB78 		mr 3,31
 5487 1694 48000001 		bl _Unwind_Resume
 5488              	.LEHE47:
 5489              	.LVL512:
 5490              	.L367:
 5491              		.loc 9 280 0
 5492 1698 2F9B0000 		cmpwi 7,27,0
 5493 169c 41BEFF30 		beq- 7,.L334
 5494              		.loc 9 280 0 is_stmt 0 discriminator 1
 5495 16a0 7F63DB78 		mr 3,27
 5496 16a4 48000001 		bl free
 5497              	.LBE3333:
 5498              		.loc 9 288 0 is_stmt 1 discriminator 1
 5499 16a8 8001003C 		lwz 0,60(1)
 5500 16ac 8181001C 		lwz 12,28(1)
 5501 16b0 7F43D378 		mr 3,26
 5502 16b4 7C0803A6 		mtlr 0
 5503 16b8 83410020 		lwz 26,32(1)
 5504              	.LVL513:
 5505 16bc 83610024 		lwz 27,36(1)
 5506              	.LVL514:
 5507 16c0 7D808120 		mtcrf 8,12
 5508 16c4 83810028 		lwz 28,40(1)
 5509              	.LVL515:
 5510 16c8 83A1002C 		lwz 29,44(1)
 5511              	.LVL516:
 5512 16cc 83C10030 		lwz 30,48(1)
 5513              	.LVL517:
 5514 16d0 83E10034 		lwz 31,52(1)
 5515              	.LVL518:
 5516 16d4 38210038 		addi 1,1,56
 5517              		.cfi_remember_state
 5518              		.cfi_restore 26
 5519              		.cfi_restore 27
 5520              		.cfi_restore 28
 5521              		.cfi_restore 29
 5522              		.cfi_restore 30
 5523              		.cfi_restore 31
 5524              		.cfi_restore 70
 5525              	.LCFI72:
 5526              		.cfi_def_cfa_offset 0
 5527 16d8 4E800020 		blr
 5528              	.LVL519:
 5529              	.L360:
 5530              	.LCFI73:
 5531              		.cfi_restore_state
 5532 16dc 7C7F1B78 		mr 31,3
 5533              	.LVL520:
 5534 16e0 4BFFFFA8 		b .L344
 5535              		.cfi_endproc
 5536              	.LFE1044:
 5537              		.section	.gcc_except_table
 5538              	.LLSDA1044:
 5539 010b FF       		.byte	0xff
 5540 010c FF       		.byte	0xff
 5541 010d 01       		.byte	0x1
 5542 010e 14       		.uleb128 .LLSDACSE1044-.LLSDACSB1044
 5543              	.LLSDACSB1044:
 5544 010f 50       		.uleb128 .LEHB44-.LFB1044
 5545 0110 04       		.uleb128 .LEHE44-.LEHB44
 5546 0111 00       		.uleb128 0
 5547 0112 00       		.uleb128 0
 5548 0113 5C       		.uleb128 .LEHB45-.LFB1044
 5549 0114 04       		.uleb128 .LEHE45-.LEHB45
 5550 0115 9804     		.uleb128 .L360-.LFB1044
 5551 0117 00       		.uleb128 0
 5552 0118 68       		.uleb128 .LEHB46-.LFB1044
 5553 0119 04       		.uleb128 .LEHE46-.LEHB46
 5554 011a B803     		.uleb128 .L361-.LFB1044
 5555 011c 00       		.uleb128 0
 5556 011d AC01     		.uleb128 .LEHB47-.LFB1044
 5557 011f A802     		.uleb128 .LEHE47-.LEHB47
 5558 0121 00       		.uleb128 0
 5559 0122 00       		.uleb128 0
 5560              	.LLSDACSE1044:
 5561              		.section	".text"
 5562              		.size	_ZN4Nand8LoadFileESsPPhPj, .-_ZN4Nand8LoadFileESsPPhPj
 5563              		.align 2
 5564              		.globl _ZN4Nand11ExtractFileESsSs
 5565              		.type	_ZN4Nand11ExtractFileESsSs, @function
 5566              	_ZN4Nand11ExtractFileESsSs:
 5567              	.LFB1046:
 5568              		.loc 9 326 0
 5569              		.cfi_startproc
 5570              		.cfi_personality 0,__gxx_personality_v0
 5571              		.cfi_lsda 0,.LLSDA1046
 5572              	.LVL521:
 5573 16e4 7C0802A6 		mflr 0
 5574 16e8 9421FFC8 		stwu 1,-56(1)
 5575              	.LCFI74:
 5576              		.cfi_def_cfa_offset 56
 5577              		.cfi_register 65, 0
 5578 16ec 93A1002C 		stw 29,44(1)
 5579              	.LBB3444:
 5580              		.loc 9 330 0
 5581 16f0 3BA00000 		li 29,0
 5582              		.cfi_offset 29, -12
 5583              	.LBE3444:
 5584              		.loc 9 326 0
 5585 16f4 9001003C 		stw 0,60(1)
 5586 16f8 93E10034 		stw 31,52(1)
 5587 16fc 7C9F2378 		mr 31,4
 5588              		.cfi_offset 31, -4
 5589              		.cfi_offset 65, 4
 5590              	.LBB3557:
 5591              	.LBB3445:
 5592              	.LBB3446:
 5593              	.LBB3447:
 5594              		.loc 3 711 0
 5595 1700 81230000 		lwz 9,0(3)
 5596              	.LBE3447:
 5597              	.LBE3446:
 5598              	.LBE3445:
 5599              	.LBE3557:
 5600              		.loc 9 326 0
 5601 1704 93C10030 		stw 30,48(1)
 5602              	.LBB3558:
 5603              		.loc 9 329 0
 5604 1708 8009FFF4 		lwz 0,-12(9)
 5605 170c 2F800000 		cmpwi 7,0,0
 5606 1710 419E00F8 		beq- 7,.L369
 5607              		.cfi_offset 30, -8
 5608              	.LVL522:
 5609              	.LBB3448:
 5610              	.LBB3449:
 5611              	.LBB3450:
 5612              		.loc 3 711 0
 5613 1714 81240000 		lwz 9,0(4)
 5614              	.LBE3450:
 5615              	.LBE3449:
 5616              	.LBE3448:
 5617              		.loc 9 329 0
 5618 1718 8009FFF4 		lwz 0,-12(9)
 5619 171c 2F800000 		cmpwi 7,0,0
 5620 1720 419E00E8 		beq- 7,.L369
 5621              		.loc 9 335 0
 5622 1724 7C641B78 		mr 4,3
 5623              	.LVL523:
 5624 1728 38610014 		addi 3,1,20
 5625              	.LVL524:
 5626              		.loc 9 332 0
 5627 172c 93A1001C 		stw 29,28(1)
 5628              	.LVL525:
 5629              		.loc 9 333 0
 5630 1730 93A10018 		stw 29,24(1)
 5631              	.LVL526:
 5632              	.LEHB48:
 5633              		.loc 9 335 0
 5634 1734 48000001 		bl _ZNSsC1ERKSs
 5635              	.LEHE48:
 5636              	.LVL527:
 5637 1738 38610014 		addi 3,1,20
 5638 173c 3881001C 		addi 4,1,28
 5639 1740 38A10018 		addi 5,1,24
 5640              	.LEHB49:
 5641 1744 4BFFEBB9 		bl _ZN4Nand8LoadFileESsPPhPj.constprop.48
 5642              	.LEHE49:
 5643              	.LVL528:
 5644              	.LBB3451:
 5645              	.LBB3452:
 5646              	.LBB3453:
 5647              	.LBB3454:
 5648              	.LBB3455:
 5649              	.LBB3456:
 5650              		.loc 3 288 0
 5651 1748 81210014 		lwz 9,20(1)
 5652              	.LBE3456:
 5653              	.LBE3455:
 5654              	.LBE3454:
 5655              	.LBB3457:
 5656              	.LBB3458:
 5657              		.loc 3 235 0
 5658 174c 3FC00000 		lis 30,_ZNSs4_Rep20_S_empty_rep_storageE@ha
 5659 1750 3BDE0000 		la 30,_ZNSs4_Rep20_S_empty_rep_storageE@l(30)
 5660              	.LBE3458:
 5661              	.LBE3457:
 5662              		.loc 3 534 0
 5663 1754 3869FFF4 		addi 3,9,-12
 5664              	.LVL529:
 5665              	.LBB3467:
 5666              	.LBB3465:
 5667              		.loc 3 235 0
 5668 1758 7F83F000 		cmpw 7,3,30
 5669 175c 409E0164 		bne- 7,.L400
 5670              	.LVL530:
 5671              	.L376:
 5672              	.LBE3465:
 5673              	.LBE3467:
 5674              	.LBE3453:
 5675              	.LBE3452:
 5676              	.LBE3451:
 5677              	.LBB3471:
 5678              		.loc 9 336 0 discriminator 1
 5679 1760 8001001C 		lwz 0,28(1)
 5680 1764 2F800000 		cmpwi 7,0,0
 5681 1768 419E00E0 		beq- 7,.L391
 5682              	.LBB3472:
 5683              		.loc 9 338 0
 5684 176c 38610010 		addi 3,1,16
 5685 1770 7FE4FB78 		mr 4,31
 5686              	.LEHB50:
 5687 1774 48000001 		bl _ZNSsC1ERKSs
 5688              	.LEHE50:
 5689              	.LVL531:
 5690              	.LBB3473:
 5691              	.LBB3474:
 5692              		.loc 3 2005 0
 5693 1778 3C800000 		lis 4,.LC0@ha
 5694 177c 38610010 		addi 3,1,16
 5695              	.LVL532:
 5696 1780 38840000 		la 4,.LC0@l(4)
 5697 1784 38A0FFFF 		li 5,-1
 5698 1788 38C00001 		li 6,1
 5699              	.LEHB51:
 5700 178c 48000001 		bl _ZNKSs12find_last_ofEPKcjj
 5701              	.LVL533:
 5702              	.LBE3474:
 5703              	.LBE3473:
 5704              	.LBB3475:
 5705              		.loc 9 340 0
 5706 1790 2F83FFFF 		cmpwi 7,3,-1
 5707 1794 419E00AC 		beq- 7,.L394
 5708              	.LBB3476:
 5709              	.LBB3477:
 5710              	.LBB3478:
 5711              	.LBB3479:
 5712              	.LBB3480:
 5713              	.LBB3481:
 5714              	.LBB3482:
 5715              		.loc 3 711 0
 5716 1798 81210010 		lwz 9,16(1)
 5717              	.LBE3482:
 5718              	.LBE3481:
 5719              	.LBE3480:
 5720              	.LBE3479:
 5721              	.LBE3478:
 5722              	.LBE3477:
 5723              		.loc 9 342 0
 5724 179c 38830001 		addi 4,3,1
 5725              	.LVL534:
 5726              	.LBB3491:
 5727              	.LBB3489:
 5728              	.LBB3487:
 5729              	.LBB3485:
 5730              	.LBB3484:
 5731              	.LBB3483:
 5732              		.loc 3 711 0
 5733 17a0 80A9FFF4 		lwz 5,-12(9)
 5734              	.LBE3483:
 5735              	.LBE3484:
 5736              		.loc 3 318 0
 5737 17a4 7F842840 		cmplw 7,4,5
 5738 17a8 419D0158 		bgt- 7,.L401
 5739              	.LVL535:
 5740              	.LBE3485:
 5741              	.LBE3487:
 5742              		.loc 3 1349 0
 5743 17ac 38610010 		addi 3,1,16
 5744              	.LVL536:
 5745 17b0 7CA42850 		subf 5,4,5
 5746 17b4 38C00000 		li 6,0
 5747 17b8 48000001 		bl _ZNSs9_M_mutateEjjj
 5748              	.LVL537:
 5749              	.LBE3489:
 5750              	.LBE3491:
 5751              	.LBB3492:
 5752              		.loc 9 343 0
 5753 17bc 3861000C 		addi 3,1,12
 5754 17c0 38810010 		addi 4,1,16
 5755              	.LVL538:
 5756 17c4 48000001 		bl _ZNSsC1ERKSs
 5757              	.LEHE51:
 5758              	.LVL539:
 5759              		.loc 9 343 0 is_stmt 0 discriminator 1
 5760 17c8 3861000C 		addi 3,1,12
 5761              	.LEHB52:
 5762 17cc 48000001 		bl _Z15CreateSubfolderSs
 5763              	.LEHE52:
 5764              	.LBB3493:
 5765              	.LBB3494:
 5766              	.LBB3495:
 5767              	.LBB3496:
 5768              	.LBB3497:
 5769              	.LBB3498:
 5770              		.loc 3 288 0 is_stmt 1 discriminator 1
 5771 17d0 8121000C 		lwz 9,12(1)
 5772              	.LBE3498:
 5773              	.LBE3497:
 5774              	.LBE3496:
 5775              	.LBE3495:
 5776              	.LBE3494:
 5777              	.LBE3493:
 5778              		.loc 9 343 0 discriminator 1
 5779 17d4 7C7D1B78 		mr 29,3
 5780              	.LVL540:
 5781              	.LBB3513:
 5782              	.LBB3511:
 5783              	.LBB3509:
 5784              		.loc 3 534 0 discriminator 1
 5785 17d8 3869FFF4 		addi 3,9,-12
 5786              	.LVL541:
 5787              	.LBB3499:
 5788              	.LBB3500:
 5789              		.loc 3 235 0 discriminator 1
 5790 17dc 7F83F000 		cmpw 7,3,30
 5791 17e0 409E0100 		bne- 7,.L402
 5792              	.LVL542:
 5793              	.L384:
 5794              	.LBE3500:
 5795              	.LBE3499:
 5796              	.LBE3509:
 5797              	.LBE3511:
 5798              	.LBE3513:
 5799              		.loc 9 343 0 discriminator 1
 5800 17e4 2F9D0000 		cmpwi 7,29,0
 5801              		.loc 9 327 0 discriminator 1
 5802 17e8 3BA00000 		li 29,0
 5803              		.loc 9 343 0 discriminator 1
 5804 17ec 409E003C 		bne- 7,.L403
 5805              	.LVL543:
 5806              	.L377:
 5807              	.LBE3492:
 5808              	.LBE3476:
 5809              	.LBE3475:
 5810              		.loc 9 355 0
 5811 17f0 8061001C 		lwz 3,28(1)
 5812 17f4 48000001 		bl free
 5813              	.LVL544:
 5814              	.LBB3526:
 5815              	.LBB3527:
 5816              	.LBB3528:
 5817              	.LBB3529:
 5818              	.LBB3530:
 5819              		.loc 3 288 0
 5820 17f8 81210010 		lwz 9,16(1)
 5821              	.LBE3530:
 5822              	.LBE3529:
 5823              	.LBE3528:
 5824              		.loc 3 534 0
 5825 17fc 3869FFF4 		addi 3,9,-12
 5826              	.LVL545:
 5827              	.LBB3531:
 5828              	.LBB3532:
 5829              		.loc 3 235 0
 5830 1800 7F83F000 		cmpw 7,3,30
 5831 1804 409E009C 		bne- 7,.L404
 5832              	.LVL546:
 5833              	.L369:
 5834              	.LBE3532:
 5835              	.LBE3531:
 5836              	.LBE3527:
 5837              	.LBE3526:
 5838              	.LBE3472:
 5839              	.LBE3471:
 5840              	.LBE3558:
 5841              		.loc 9 359 0
 5842 1808 8001003C 		lwz 0,60(1)
 5843 180c 7FA3EB78 		mr 3,29
 5844 1810 83C10030 		lwz 30,48(1)
 5845 1814 7C0803A6 		mtlr 0
 5846 1818 83A1002C 		lwz 29,44(1)
 5847 181c 83E10034 		lwz 31,52(1)
 5848 1820 38210038 		addi 1,1,56
 5849              		.cfi_remember_state
 5850              	.LCFI75:
 5851              		.cfi_def_cfa_offset 0
 5852              		.cfi_restore 31
 5853              		.cfi_restore 30
 5854              		.cfi_restore 29
 5855 1824 4E800020 		blr
 5856              	.LVL547:
 5857              	.L403:
 5858              	.LCFI76:
 5859              		.cfi_restore_state
 5860              	.LBB3559:
 5861              	.LBB3551:
 5862              	.LBB3547:
 5863              	.LBB3542:
 5864              	.LBB3522:
 5865              	.LBB3517:
 5866              	.LBB3514:
 5867              		.loc 9 345 0
 5868 1828 3C800000 		lis 4,.LC2@ha
 5869 182c 807F0000 		lwz 3,0(31)
 5870 1830 38840018 		la 4,.LC2@l(4)
 5871              	.LEHB53:
 5872 1834 48000001 		bl fopen
 5873              	.LVL548:
 5874              		.loc 9 346 0
 5875 1838 7C7F1B79 		mr. 31,3
 5876              	.LVL549:
 5877 183c 40A20030 		bne+ 0,.L405
 5878              	.LVL550:
 5879              	.L394:
 5880              		.loc 9 327 0
 5881 1840 3BA00000 		li 29,0
 5882 1844 4BFFFFAC 		b .L377
 5883              	.LVL551:
 5884              	.L391:
 5885              	.LBE3514:
 5886              	.LBE3517:
 5887              	.LBE3522:
 5888              	.LBE3542:
 5889              	.LBE3547:
 5890              	.LBE3551:
 5891              	.LBE3559:
 5892              		.loc 9 359 0
 5893 1848 8001003C 		lwz 0,60(1)
 5894              	.LBB3560:
 5895              	.LBB3552:
 5896              		.loc 9 327 0
 5897 184c 3BA00000 		li 29,0
 5898              	.LBE3552:
 5899              	.LBE3560:
 5900              		.loc 9 359 0
 5901 1850 7FA3EB78 		mr 3,29
 5902 1854 83C10030 		lwz 30,48(1)
 5903 1858 7C0803A6 		mtlr 0
 5904 185c 83A1002C 		lwz 29,44(1)
 5905 1860 83E10034 		lwz 31,52(1)
 5906              	.LVL552:
 5907 1864 38210038 		addi 1,1,56
 5908              		.cfi_remember_state
 5909              		.cfi_restore 29
 5910              		.cfi_restore 30
 5911              		.cfi_restore 31
 5912              	.LCFI77:
 5913              		.cfi_def_cfa_offset 0
 5914 1868 4E800020 		blr
 5915              	.LVL553:
 5916              	.L405:
 5917              	.LCFI78:
 5918              		.cfi_restore_state
 5919              	.LBB3561:
 5920              	.LBB3553:
 5921              	.LBB3548:
 5922              	.LBB3543:
 5923              	.LBB3523:
 5924              	.LBB3518:
 5925              	.LBB3515:
 5926              		.loc 9 348 0
 5927 186c 8061001C 		lwz 3,28(1)
 5928              	.LVL554:
 5929 1870 38800001 		li 4,1
 5930 1874 80A10018 		lwz 5,24(1)
 5931 1878 7FE6FB78 		mr 6,31
 5932 187c 48000001 		bl fwrite
 5933 1880 7C7D1B78 		mr 29,3
 5934              		.loc 9 351 0
 5935 1884 7FE3FB78 		mr 3,31
 5936              		.loc 9 348 0
 5937 1888 83E10018 		lwz 31,24(1)
 5938              	.LVL555:
 5939              		.loc 9 351 0
 5940 188c 48000001 		bl fclose
 5941              	.LVL556:
 5942              		.loc 9 325 0
 5943 1890 7FBDFA78 		xor 29,29,31
 5944              	.LVL557:
 5945 1894 7FBD0034 		cntlzw 29,29
 5946 1898 57BDD97E 		srwi 29,29,5
 5947 189c 4BFFFF54 		b .L377
 5948              	.LVL558:
 5949              	.L404:
 5950              	.LBE3515:
 5951              	.LBE3518:
 5952              	.LBE3523:
 5953              	.LBE3543:
 5954              	.LBB3544:
 5955              	.LBB3541:
 5956              	.LBB3540:
 5957              	.LBB3539:
 5958              	.LBB3533:
 5959              	.LBB3534:
 5960              	.LBB3535:
 5961              		.loc 5 66 0
 5962 18a0 8169FFFC 		lwz 11,-4(9)
 5963              	.LVL559:
 5964              	.LBE3535:
 5965              	.LBE3534:
 5966              	.LBE3533:
 5967              		.loc 3 240 0
 5968 18a4 2F8B0000 		cmpwi 7,11,0
 5969              	.LBB3538:
 5970              	.LBB3537:
 5971              	.LBB3536:
 5972              		.loc 5 67 0
 5973 18a8 396BFFFF 		addi 11,11,-1
 5974 18ac 9169FFFC 		stw 11,-4(9)
 5975              	.LBE3536:
 5976              	.LBE3537:
 5977              	.LBE3538:
 5978              		.loc 3 240 0
 5979 18b0 419DFF58 		bgt+ 7,.L369
 5980              		.loc 3 244 0
 5981 18b4 38810008 		addi 4,1,8
 5982 18b8 48000001 		bl _ZNSs4_Rep10_M_destroyERKSaIcE
 5983              	.LVL560:
 5984 18bc 4BFFFF4C 		b .L369
 5985              	.LVL561:
 5986              	.L400:
 5987              	.LBE3539:
 5988              	.LBE3540:
 5989              	.LBE3541:
 5990              	.LBE3544:
 5991              	.LBE3548:
 5992              	.LBE3553:
 5993              	.LBB3554:
 5994              	.LBB3470:
 5995              	.LBB3469:
 5996              	.LBB3468:
 5997              	.LBB3466:
 5998              	.LBB3459:
 5999              	.LBB3460:
 6000              	.LBB3461:
 6001              		.loc 5 66 0
 6002 18c0 8169FFFC 		lwz 11,-4(9)
 6003              	.LVL562:
 6004              	.LBE3461:
 6005              	.LBE3460:
 6006              	.LBE3459:
 6007              		.loc 3 240 0
 6008 18c4 2F8B0000 		cmpwi 7,11,0
 6009              	.LBB3464:
 6010              	.LBB3463:
 6011              	.LBB3462:
 6012              		.loc 5 67 0
 6013 18c8 396BFFFF 		addi 11,11,-1
 6014 18cc 9169FFFC 		stw 11,-4(9)
 6015              	.LBE3462:
 6016              	.LBE3463:
 6017              	.LBE3464:
 6018              		.loc 3 240 0
 6019 18d0 419DFE90 		bgt+ 7,.L376
 6020              		.loc 3 244 0
 6021 18d4 3881000A 		addi 4,1,10
 6022 18d8 48000001 		bl _ZNSs4_Rep10_M_destroyERKSaIcE
 6023              	.LVL563:
 6024 18dc 4BFFFE84 		b .L376
 6025              	.LVL564:
 6026              	.L402:
 6027              	.LBE3466:
 6028              	.LBE3468:
 6029              	.LBE3469:
 6030              	.LBE3470:
 6031              	.LBE3554:
 6032              	.LBB3555:
 6033              	.LBB3549:
 6034              	.LBB3545:
 6035              	.LBB3524:
 6036              	.LBB3519:
 6037              	.LBB3516:
 6038              	.LBB3512:
 6039              	.LBB3510:
 6040              	.LBB3508:
 6041              	.LBB3507:
 6042              	.LBB3501:
 6043              	.LBB3502:
 6044              	.LBB3503:
 6045              		.loc 5 66 0
 6046 18e0 8169FFFC 		lwz 11,-4(9)
 6047              	.LVL565:
 6048              	.LBE3503:
 6049              	.LBE3502:
 6050              	.LBE3501:
 6051              		.loc 3 240 0
 6052 18e4 2F8B0000 		cmpwi 7,11,0
 6053              	.LBB3506:
 6054              	.LBB3505:
 6055              	.LBB3504:
 6056              		.loc 5 67 0
 6057 18e8 396BFFFF 		addi 11,11,-1
 6058 18ec 9169FFFC 		stw 11,-4(9)
 6059              	.LBE3504:
 6060              	.LBE3505:
 6061              	.LBE3506:
 6062              		.loc 3 240 0
 6063 18f0 419DFEF4 		bgt+ 7,.L384
 6064              		.loc 3 244 0
 6065 18f4 38810009 		addi 4,1,9
 6066 18f8 48000001 		bl _ZNSs4_Rep10_M_destroyERKSaIcE
 6067              	.LVL566:
 6068 18fc 4BFFFEE8 		b .L384
 6069              	.LVL567:
 6070              	.L401:
 6071              	.LBE3507:
 6072              	.LBE3508:
 6073              	.LBE3510:
 6074              	.LBE3512:
 6075              	.LBE3516:
 6076              	.LBE3519:
 6077              	.LBB3520:
 6078              	.LBB3490:
 6079              	.LBB3488:
 6080              	.LBB3486:
 6081              		.loc 3 319 0
 6082 1900 3C600000 		lis 3,.LC1@ha
 6083 1904 38630004 		la 3,.LC1@l(3)
 6084 1908 48000001 		bl _ZSt20__throw_out_of_rangePKc
 6085              	.LEHE53:
 6086              	.LVL568:
 6087              	.L396:
 6088 190c 7C7F1B78 		mr 31,3
 6089              	.L387:
 6090              	.LBE3486:
 6091              	.LBE3488:
 6092              	.LBE3490:
 6093              	.LBE3520:
 6094              	.LBE3524:
 6095              	.LBE3545:
 6096              		.loc 9 355 0
 6097 1910 38610010 		addi 3,1,16
 6098              	.LVL569:
 6099 1914 48000001 		bl _ZNSsD1Ev
 6100              	.LVL570:
 6101 1918 7FE3FB78 		mr 3,31
 6102              	.LEHB54:
 6103 191c 48000001 		bl _Unwind_Resume
 6104              	.LVL571:
 6105              	.L395:
 6106 1920 7C7F1B78 		mr 31,3
 6107              	.LVL572:
 6108              	.LBE3549:
 6109              	.LBE3555:
 6110              		.loc 9 335 0
 6111 1924 38610014 		addi 3,1,20
 6112 1928 48000001 		bl _ZNSsD1Ev
 6113 192c 7FE3FB78 		mr 3,31
 6114 1930 48000001 		bl _Unwind_Resume
 6115              	.LEHE54:
 6116              	.LVL573:
 6117              	.L397:
 6118 1934 7C7F1B78 		mr 31,3
 6119              	.LVL574:
 6120              	.LBB3556:
 6121              	.LBB3550:
 6122              	.LBB3546:
 6123              	.LBB3525:
 6124              	.LBB3521:
 6125              		.loc 9 343 0
 6126 1938 3861000C 		addi 3,1,12
 6127 193c 48000001 		bl _ZNSsD1Ev
 6128 1940 4BFFFFD0 		b .L387
 6129              	.LBE3521:
 6130              	.LBE3525:
 6131              	.LBE3546:
 6132              	.LBE3550:
 6133              	.LBE3556:
 6134              	.LBE3561:
 6135              		.cfi_endproc
 6136              	.LFE1046:
 6137              		.section	.gcc_except_table
 6138              	.LLSDA1046:
 6139 0123 FF       		.byte	0xff
 6140 0124 FF       		.byte	0xff
 6141 0125 01       		.byte	0x1
 6142 0126 26       		.uleb128 .LLSDACSE1046-.LLSDACSB1046
 6143              	.LLSDACSB1046:
 6144 0127 50       		.uleb128 .LEHB48-.LFB1046
 6145 0128 04       		.uleb128 .LEHE48-.LEHB48
 6146 0129 00       		.uleb128 0
 6147 012a 00       		.uleb128 0
 6148 012b 60       		.uleb128 .LEHB49-.LFB1046
 6149 012c 04       		.uleb128 .LEHE49-.LEHB49
 6150 012d BC04     		.uleb128 .L395-.LFB1046
 6151 012f 00       		.uleb128 0
 6152 0130 9001     		.uleb128 .LEHB50-.LFB1046
 6153 0132 04       		.uleb128 .LEHE50-.LEHB50
 6154 0133 00       		.uleb128 0
 6155 0134 00       		.uleb128 0
 6156 0135 A801     		.uleb128 .LEHB51-.LFB1046
 6157 0137 3C       		.uleb128 .LEHE51-.LEHB51
 6158 0138 A804     		.uleb128 .L396-.LFB1046
 6159 013a 00       		.uleb128 0
 6160 013b E801     		.uleb128 .LEHB52-.LFB1046
 6161 013d 04       		.uleb128 .LEHE52-.LEHB52
 6162 013e D004     		.uleb128 .L397-.LFB1046
 6163 0140 00       		.uleb128 0
 6164 0141 D002     		.uleb128 .LEHB53-.LFB1046
 6165 0143 D801     		.uleb128 .LEHE53-.LEHB53
 6166 0145 A804     		.uleb128 .L396-.LFB1046
 6167 0147 00       		.uleb128 0
 6168 0148 B804     		.uleb128 .LEHB54-.LFB1046
 6169 014a 18       		.uleb128 .LEHE54-.LEHB54
 6170 014b 00       		.uleb128 0
 6171 014c 00       		.uleb128 0
 6172              	.LLSDACSE1046:
 6173              		.section	".text"
 6174              		.size	_ZN4Nand11ExtractFileESsSs, .-_ZN4Nand11ExtractFileESsSs
 6175              		.section	.text._ZNSt6vectorISsSaISsEE13_M_insert_auxEN9__gnu_cxx17__normal_iteratorIPSsS1_EERKSs,"
 6176              		.align 2
 6177              		.weak	_ZNSt6vectorISsSaISsEE13_M_insert_auxEN9__gnu_cxx17__normal_iteratorIPSsS1_EERKSs
 6178              		.type	_ZNSt6vectorISsSaISsEE13_M_insert_auxEN9__gnu_cxx17__normal_iteratorIPSsS1_EERKSs, @function
 6179              	_ZNSt6vectorISsSaISsEE13_M_insert_auxEN9__gnu_cxx17__normal_iteratorIPSsS1_EERKSs:
 6180              	.LFB1116:
 6181              		.file 10 "d:\\devkitpro\\devkitppc\\bin\\../lib/gcc/powerpc-eabi/4.6.3/../../../../powerpc-eabi/in
 6182              		.loc 10 300 0
 6183              		.cfi_startproc
 6184              		.cfi_personality 0,__gxx_personality_v0
 6185              		.cfi_lsda 0,.LLSDA1116
 6186              	.LVL575:
 6187 0000 7C0802A6 		mflr 0
 6188 0004 9421FFC0 		stwu 1,-64(1)
 6189              	.LCFI79:
 6190              		.cfi_def_cfa_offset 64
 6191              		.cfi_register 65, 0
 6192 0008 93A10034 		stw 29,52(1)
 6193 000c 7C7D1B78 		mr 29,3
 6194              		.cfi_offset 29, -12
 6195 0010 90010044 		stw 0,68(1)
 6196 0014 93C10038 		stw 30,56(1)
 6197              	.LBB3696:
 6198              		.loc 10 304 0
 6199 0018 80630004 		lwz 3,4(3)
 6200              	.LVL576:
 6201 001c 801D0008 		lwz 0,8(29)
 6202              		.cfi_offset 30, -8
 6203              		.cfi_offset 65, 4
 6204              	.LBE3696:
 6205              		.loc 10 300 0
 6206 0020 93E1003C 		stw 31,60(1)
 6207 0024 7CBF2B78 		mr 31,5
 6208              		.cfi_offset 31, -4
 6209              	.LBB3885:
 6210              		.loc 10 304 0
 6211 0028 7F830000 		cmpw 7,3,0
 6212              	.LBE3885:
 6213              		.loc 10 300 0
 6214 002c 93010020 		stw 24,32(1)
 6215 0030 93210024 		stw 25,36(1)
 6216 0034 93410028 		stw 26,40(1)
 6217 0038 9361002C 		stw 27,44(1)
 6218 003c 93810030 		stw 28,48(1)
 6219              		.loc 10 300 0
 6220 0040 83C40000 		lwz 30,0(4)
 6221              	.LVL577:
 6222              	.LBB3886:
 6223              		.loc 10 304 0
 6224 0044 419E00C0 		beq- 7,.L407
 6225              		.cfi_offset 28, -16
 6226              		.cfi_offset 27, -20
 6227              		.cfi_offset 26, -24
 6228              		.cfi_offset 25, -28
 6229              		.cfi_offset 24, -32
 6230              	.LVL578:
 6231              	.LBB3697:
 6232              	.LBB3698:
 6233              	.LBB3699:
 6234              		.loc 8 108 0
 6235 0048 2F830000 		cmpwi 7,3,0
 6236 004c 39200000 		li 9,0
 6237 0050 419E0010 		beq- 7,.L408
 6238 0054 3883FFFC 		addi 4,3,-4
 6239              	.LVL579:
 6240              	.LEHB55:
 6241 0058 48000001 		bl _ZNSsC1ERKSs
 6242              	.LVL580:
 6243 005c 813D0004 		lwz 9,4(29)
 6244              	.L408:
 6245              	.LBE3699:
 6246              	.LBE3698:
 6247              		.loc 10 309 0
 6248 0060 39290004 		addi 9,9,4
 6249              		.loc 10 311 0
 6250 0064 3861000C 		addi 3,1,12
 6251              		.loc 10 309 0
 6252 0068 913D0004 		stw 9,4(29)
 6253              		.loc 10 311 0
 6254 006c 7FE4FB78 		mr 4,31
 6255 0070 48000001 		bl _ZNSsC1ERKSs
 6256              	.LEHE55:
 6257              	.LVL581:
 6258              		.loc 10 313 0
 6259 0074 807D0004 		lwz 3,4(29)
 6260 0078 3863FFF8 		addi 3,3,-8
 6261              	.LVL582:
 6262              	.LBB3700:
 6263              	.LBB3701:
 6264              	.LBB3702:
 6265              	.LBB3703:
 6266              	.LBB3704:
 6267              	.LBB3705:
 6268              		.file 11 "d:\\devkitpro\\devkitppc\\bin\\../lib/gcc/powerpc-eabi/4.6.3/../../../../powerpc-eabi/in
 6269              		.loc 11 530 0
 6270 007c 7C1E1850 		subf 0,30,3
 6271              	.LVL583:
 6272 0080 7C091671 		srawi. 9,0,2
 6273 0084 91210018 		stw 9,24(1)
 6274 0088 41A1000C 		bgt+ 0,.L473
 6275 008c 48000024 		b .L409
 6276              	.LVL584:
 6277              	.L458:
 6278              		.loc 11 531 0
 6279 0090 7FE3FB78 		mr 3,31
 6280              	.LVL585:
 6281              	.L473:
 6282 0094 3BE3FFFC 		addi 31,3,-4
 6283              	.LVL586:
 6284              	.LBB3706:
 6285              	.LBB3707:
 6286              		.loc 3 542 0
 6287 0098 7FE4FB78 		mr 4,31
 6288              	.LEHB56:
 6289 009c 48000001 		bl _ZNSs6assignERKSs
 6290              	.LVL587:
 6291              	.LBE3707:
 6292              	.LBE3706:
 6293              		.loc 11 530 0
 6294 00a0 80010018 		lwz 0,24(1)
 6295 00a4 3520FFFF 		addic. 9,0,-1
 6296 00a8 91210018 		stw 9,24(1)
 6297 00ac 4082FFE4 		bne+ 0,.L458
 6298              	.LVL588:
 6299              	.L409:
 6300              	.LBE3705:
 6301              	.LBE3704:
 6302              	.LBE3703:
 6303              	.LBE3702:
 6304              	.LBE3701:
 6305              	.LBE3700:
 6306              	.LBB3708:
 6307              	.LBB3709:
 6308              		.loc 3 542 0
 6309 00b0 7FC3F378 		mr 3,30
 6310 00b4 3881000C 		addi 4,1,12
 6311              	.LVL589:
 6312 00b8 48000001 		bl _ZNSs6assignERKSs
 6313              	.LEHE56:
 6314              	.LVL590:
 6315              	.LBE3709:
 6316              	.LBE3708:
 6317              	.LBB3710:
 6318              	.LBB3711:
 6319              	.LBB3712:
 6320              	.LBB3713:
 6321              	.LBB3714:
 6322              	.LBB3715:
 6323              		.loc 3 288 0
 6324 00bc 8121000C 		lwz 9,12(1)
 6325              	.LBE3715:
 6326              	.LBE3714:
 6327              	.LBE3713:
 6328              	.LBB3716:
 6329              	.LBB3717:
 6330              		.loc 3 235 0
 6331 00c0 3D600000 		lis 11,_ZNSs4_Rep20_S_empty_rep_storageE@ha
 6332 00c4 380B0000 		la 0,_ZNSs4_Rep20_S_empty_rep_storageE@l(11)
 6333              	.LBE3717:
 6334              	.LBE3716:
 6335              		.loc 3 534 0
 6336 00c8 3869FFF4 		addi 3,9,-12
 6337              	.LVL591:
 6338              	.LBB3726:
 6339              	.LBB3724:
 6340              		.loc 3 235 0
 6341 00cc 7F830000 		cmpw 7,3,0
 6342 00d0 409E0264 		bne- 7,.L474
 6343              	.LVL592:
 6344              	.L406:
 6345              	.LBE3724:
 6346              	.LBE3726:
 6347              	.LBE3712:
 6348              	.LBE3711:
 6349              	.LBE3710:
 6350              	.LBE3697:
 6351              	.LBE3886:
 6352              		.loc 10 373 0
 6353 00d4 80010044 		lwz 0,68(1)
 6354 00d8 83010020 		lwz 24,32(1)
 6355 00dc 7C0803A6 		mtlr 0
 6356 00e0 83210024 		lwz 25,36(1)
 6357 00e4 83410028 		lwz 26,40(1)
 6358 00e8 8361002C 		lwz 27,44(1)
 6359 00ec 83810030 		lwz 28,48(1)
 6360 00f0 83A10034 		lwz 29,52(1)
 6361              	.LVL593:
 6362 00f4 83C10038 		lwz 30,56(1)
 6363              	.LVL594:
 6364 00f8 83E1003C 		lwz 31,60(1)
 6365 00fc 38210040 		addi 1,1,64
 6366              		.cfi_remember_state
 6367              	.LCFI80:
 6368              		.cfi_def_cfa_offset 0
 6369              		.cfi_restore 31
 6370              		.cfi_restore 30
 6371              		.cfi_restore 29
 6372              		.cfi_restore 28
 6373              		.cfi_restore 27
 6374              		.cfi_restore 26
 6375              		.cfi_restore 25
 6376              		.cfi_restore 24
 6377 0100 4E800020 		blr
 6378              	.LVL595:
 6379              	.L407:
 6380              	.LCFI81:
 6381              		.cfi_restore_state
 6382              	.LBB3887:
 6383              	.LBB3731:
 6384              	.LBB3732:
 6385              	.LBB3733:
 6386              	.LBB3734:
 6387              	.LBB3735:
 6388              		.loc 6 571 0
 6389 0104 801D0000 		lwz 0,0(29)
 6390 0108 7C601850 		subf 3,0,3
 6391              	.LBE3735:
 6392              	.LBE3734:
 6393              	.LBB3736:
 6394              	.LBB3737:
 6395              		.loc 11 215 0
 6396 010c 7C631671 		srawi. 3,3,2
 6397 0110 4182013C 		beq- 0,.L412
 6398              	.LBE3737:
 6399              	.LBE3736:
 6400              		.loc 6 1244 0
 6401 0114 5469083C 		slwi 9,3,1
 6402              	.LVL596:
 6403              		.loc 6 1245 0
 6404 0118 7F834840 		cmplw 7,3,9
 6405 011c 409D024C 		ble- 7,.L475
 6406              	.L413:
 6407              	.LVL597:
 6408              	.LBE3733:
 6409              	.LBE3732:
 6410              	.LBB3739:
 6411              	.LBB3740:
 6412              		.loc 2 892 0
 6413 0120 7C00F050 		subf 0,0,30
 6414              	.LBE3740:
 6415              	.LBE3739:
 6416              		.loc 10 326 0
 6417 0124 3F003FFF 		lis 24,0x3fff
 6418              	.LBB3745:
 6419              	.LBB3741:
 6420              		.loc 2 892 0
 6421 0128 7C1C1670 		srawi 28,0,2
 6422              	.LVL598:
 6423              	.LBE3741:
 6424              	.LBE3745:
 6425              		.loc 10 326 0
 6426 012c 3860FFFC 		li 3,-4
 6427 0130 6318FFFF 		ori 24,24,65535
 6428              	.LVL599:
 6429              	.L455:
 6430              	.LEHB57:
 6431              	.LBB3746:
 6432              	.LBB3747:
 6433              	.LBB3748:
 6434              	.LBB3749:
 6435              		.loc 8 92 0
 6436 0134 48000001 		bl _Znwj
 6437              	.LEHE57:
 6438              	.LVL600:
 6439 0138 7C7B1B78 		mr 27,3
 6440              	.LVL601:
 6441              	.L414:
 6442              	.LBE3749:
 6443              	.LBE3748:
 6444              	.LBE3747:
 6445              	.LBE3746:
 6446              		.loc 10 335 0
 6447 013c 579C103A 		slwi 28,28,2
 6448              	.LVL602:
 6449              	.LBB3753:
 6450              	.LBB3754:
 6451              		.loc 8 108 0
 6452 0140 7F3BE215 		add. 25,27,28
 6453 0144 41820010 		beq- 0,.L415
 6454 0148 7F23CB78 		mr 3,25
 6455 014c 7FE4FB78 		mr 4,31
 6456              	.LEHB58:
 6457 0150 48000001 		bl _ZNSsC1ERKSs
 6458              	.LEHE58:
 6459              	.L415:
 6460              	.LVL603:
 6461              	.LBE3754:
 6462              	.LBE3753:
 6463              		.loc 10 343 0
 6464 0154 83FD0000 		lwz 31,0(29)
 6465              	.LVL604:
 6466              	.LBB3756:
 6467              	.LBB3757:
 6468              	.LBB3758:
 6469              	.LBB3759:
 6470              	.LBB3760:
 6471              	.LBB3761:
 6472              		.file 12 "d:\\devkitpro\\devkitppc\\bin\\../lib/gcc/powerpc-eabi/4.6.3/../../../../powerpc-eabi/in
 6473              		.loc 12 76 0
 6474 0158 7F7ADB78 		mr 26,27
 6475 015c 7F9FF000 		cmpw 7,31,30
 6476 0160 419E0028 		beq- 7,.L416
 6477              	.LVL605:
 6478              	.L418:
 6479              	.LBB3762:
 6480              	.LBB3763:
 6481              		.loc 7 84 0
 6482 0164 2F9A0000 		cmpwi 7,26,0
 6483 0168 419E0010 		beq- 7,.L417
 6484              	.LVL606:
 6485 016c 7F43D378 		mr 3,26
 6486 0170 7FE4FB78 		mr 4,31
 6487              	.LEHB59:
 6488 0174 48000001 		bl _ZNSsC1ERKSs
 6489              	.LEHE59:
 6490              	.LVL607:
 6491              	.L417:
 6492              	.LBE3763:
 6493              	.LBE3762:
 6494              		.loc 12 76 0
 6495 0178 3BFF0004 		addi 31,31,4
 6496              	.LVL608:
 6497 017c 3B5A0004 		addi 26,26,4
 6498              	.LVL609:
 6499 0180 7F9EF800 		cmpw 7,30,31
 6500 0184 409EFFE0 		bne+ 7,.L418
 6501              	.LVL610:
 6502              	.L416:
 6503              	.LBE3761:
 6504              	.LBE3760:
 6505              	.LBE3759:
 6506              	.LBE3758:
 6507              	.LBE3757:
 6508              	.LBE3756:
 6509              		.loc 10 349 0
 6510 0188 839D0004 		lwz 28,4(29)
 6511              	.LVL611:
 6512              		.loc 10 347 0
 6513 018c 3B5A0004 		addi 26,26,4
 6514              	.LVL612:
 6515              	.LBB3787:
 6516              	.LBB3788:
 6517              	.LBB3789:
 6518              	.LBB3790:
 6519              	.LBB3791:
 6520              	.LBB3792:
 6521              		.loc 12 73 0
 6522 0190 7F5FD378 		mr 31,26
 6523              		.loc 12 76 0
 6524 0194 7F9CF000 		cmpw 7,28,30
 6525 0198 419E002C 		beq- 7,.L420
 6526              	.LVL613:
 6527              	.L469:
 6528              	.LBB3793:
 6529              	.LBB3794:
 6530              		.loc 7 84 0
 6531 019c 2F9F0000 		cmpwi 7,31,0
 6532 01a0 419E0010 		beq- 7,.L426
 6533              	.LVL614:
 6534 01a4 7FE3FB78 		mr 3,31
 6535 01a8 7FC4F378 		mr 4,30
 6536              	.LEHB60:
 6537 01ac 48000001 		bl _ZNSsC1ERKSs
 6538              	.LEHE60:
 6539              	.LVL615:
 6540              	.L426:
 6541              	.LBE3794:
 6542              	.LBE3793:
 6543              		.loc 12 76 0
 6544 01b0 3BDE0004 		addi 30,30,4
 6545              	.LVL616:
 6546 01b4 3BFF0004 		addi 31,31,4
 6547              	.LVL617:
 6548 01b8 7F9CF000 		cmpw 7,28,30
 6549 01bc 409EFFE0 		bne+ 7,.L469
 6550 01c0 839D0004 		lwz 28,4(29)
 6551              	.LVL618:
 6552              	.L420:
 6553              	.LBE3792:
 6554              	.LBE3791:
 6555              	.LBE3790:
 6556              	.LBE3789:
 6557              	.LBE3788:
 6558              	.LBE3787:
 6559              		.loc 10 364 0
 6560 01c4 83DD0000 		lwz 30,0(29)
 6561              	.LVL619:
 6562              	.LBB3818:
 6563              	.LBB3819:
 6564              	.LBB3820:
 6565              	.LBB3821:
 6566              	.LBB3822:
 6567              		.loc 7 103 0
 6568 01c8 7F9EE000 		cmpw 7,30,28
 6569 01cc 419E002C 		beq- 7,.L429
 6570 01d0 3F400000 		lis 26,_ZNSs4_Rep20_S_empty_rep_storageE@ha
 6571              	.LVL620:
 6572 01d4 3B5A0000 		la 26,_ZNSs4_Rep20_S_empty_rep_storageE@l(26)
 6573              	.LVL621:
 6574              	.L441:
 6575              	.LBB3823:
 6576              	.LBB3824:
 6577              	.LBB3825:
 6578              	.LBB3826:
 6579              	.LBB3827:
 6580              	.LBB3828:
 6581              	.LBB3829:
 6582              		.loc 3 288 0
 6583 01d8 813E0000 		lwz 9,0(30)
 6584              	.LBE3829:
 6585              	.LBE3828:
 6586              	.LBE3827:
 6587              		.loc 3 534 0
 6588 01dc 3869FFF4 		addi 3,9,-12
 6589              	.LVL622:
 6590              	.LBB3830:
 6591              	.LBB3831:
 6592              		.loc 3 235 0
 6593 01e0 7F83D000 		cmpw 7,3,26
 6594 01e4 409E0080 		bne- 7,.L476
 6595              	.LVL623:
 6596              	.L440:
 6597              	.LBE3831:
 6598              	.LBE3830:
 6599              	.LBE3826:
 6600              	.LBE3825:
 6601              	.LBE3824:
 6602              	.LBE3823:
 6603              		.loc 7 103 0
 6604 01e8 3BDE0004 		addi 30,30,4
 6605              	.LVL624:
 6606 01ec 7F9CF000 		cmpw 7,28,30
 6607 01f0 409EFFE8 		bne+ 7,.L441
 6608 01f4 83DD0000 		lwz 30,0(29)
 6609              	.LVL625:
 6610              	.L429:
 6611              	.LBE3822:
 6612              	.LBE3821:
 6613              	.LBE3820:
 6614              	.LBE3819:
 6615              	.LBE3818:
 6616              	.LBB3848:
 6617              	.LBB3849:
 6618              		.loc 6 155 0 discriminator 1
 6619 01f8 2F9E0000 		cmpwi 7,30,0
 6620 01fc 419E000C 		beq- 7,.L442
 6621              	.LVL626:
 6622              	.LBB3850:
 6623              	.LBB3851:
 6624              		.loc 8 98 0
 6625 0200 7FC3F378 		mr 3,30
 6626 0204 48000001 		bl _ZdlPv
 6627              	.LVL627:
 6628              	.L442:
 6629              	.LBE3851:
 6630              	.LBE3850:
 6631              	.LBE3849:
 6632              	.LBE3848:
 6633              		.loc 10 371 0 discriminator 1
 6634 0208 5700103A 		slwi 0,24,2
 6635              		.loc 10 369 0 discriminator 1
 6636 020c 937D0000 		stw 27,0(29)
 6637              		.loc 10 371 0 discriminator 1
 6638 0210 7C1B0214 		add 0,27,0
 6639              		.loc 10 370 0 discriminator 1
 6640 0214 93FD0004 		stw 31,4(29)
 6641              		.loc 10 371 0 discriminator 1
 6642 0218 901D0008 		stw 0,8(29)
 6643              	.LBE3731:
 6644              	.LBE3887:
 6645              		.loc 10 373 0 discriminator 1
 6646 021c 80010044 		lwz 0,68(1)
 6647 0220 83010020 		lwz 24,32(1)
 6648 0224 7C0803A6 		mtlr 0
 6649 0228 83210024 		lwz 25,36(1)
 6650              	.LVL628:
 6651 022c 83410028 		lwz 26,40(1)
 6652 0230 8361002C 		lwz 27,44(1)
 6653              	.LVL629:
 6654 0234 83810030 		lwz 28,48(1)
 6655              	.LVL630:
 6656 0238 83A10034 		lwz 29,52(1)
 6657              	.LVL631:
 6658 023c 83C10038 		lwz 30,56(1)
 6659              	.LVL632:
 6660 0240 83E1003C 		lwz 31,60(1)
 6661              	.LVL633:
 6662 0244 38210040 		addi 1,1,64
 6663              		.cfi_remember_state
 6664              		.cfi_restore 24
 6665              		.cfi_restore 25
 6666              		.cfi_restore 26
 6667              		.cfi_restore 27
 6668              		.cfi_restore 28
 6669              		.cfi_restore 29
 6670              		.cfi_restore 30
 6671              		.cfi_restore 31
 6672              	.LCFI82:
 6673              		.cfi_def_cfa_offset 0
 6674 0248 4E800020 		blr
 6675              	.LVL634:
 6676              	.L412:
 6677              	.LCFI83:
 6678              		.cfi_restore_state
 6679              	.LBB3888:
 6680              	.LBB3882:
 6681              	.LBB3852:
 6682              	.LBB3742:
 6683              		.loc 2 892 0
 6684 024c 7C00F050 		subf 0,0,30
 6685              	.LBE3742:
 6686              	.LBE3852:
 6687              		.loc 6 1244 0
 6688 0250 39200001 		li 9,1
 6689              	.LBB3853:
 6690              	.LBB3743:
 6691              		.loc 2 892 0
 6692 0254 7C1C1670 		srawi 28,0,2
 6693              	.LVL635:
 6694              	.L456:
 6695              	.LBE3743:
 6696              	.LBE3853:
 6697              	.LBB3854:
 6698              	.LBB3750:
 6699              		.loc 6 150 0
 6700 0258 5523103A 		slwi 3,9,2
 6701              	.LBE3750:
 6702              	.LBE3854:
 6703              		.loc 10 326 0
 6704 025c 7D384B78 		mr 24,9
 6705 0260 4BFFFED4 		b .L455
 6706              	.LVL636:
 6707              	.L476:
 6708              	.LBB3855:
 6709              	.LBB3847:
 6710              	.LBB3846:
 6711              	.LBB3845:
 6712              	.LBB3844:
 6713              	.LBB3843:
 6714              	.LBB3842:
 6715              	.LBB3841:
 6716              	.LBB3840:
 6717              	.LBB3839:
 6718              	.LBB3838:
 6719              	.LBB3832:
 6720              	.LBB3833:
 6721              	.LBB3834:
 6722              		.loc 5 66 0
 6723 0264 8169FFFC 		lwz 11,-4(9)
 6724              	.LVL637:
 6725              	.LBE3834:
 6726              	.LBE3833:
 6727              	.LBE3832:
 6728              		.loc 3 240 0
 6729 0268 2F8B0000 		cmpwi 7,11,0
 6730              	.LBB3837:
 6731              	.LBB3836:
 6732              	.LBB3835:
 6733              		.loc 5 67 0
 6734 026c 396BFFFF 		addi 11,11,-1
 6735 0270 9169FFFC 		stw 11,-4(9)
 6736              	.LBE3835:
 6737              	.LBE3836:
 6738              	.LBE3837:
 6739              		.loc 3 240 0
 6740 0274 419DFF74 		bgt+ 7,.L440
 6741              		.loc 3 244 0
 6742 0278 38810008 		addi 4,1,8
 6743 027c 48000001 		bl _ZNSs4_Rep10_M_destroyERKSaIcE
 6744              	.LVL638:
 6745 0280 4BFFFF68 		b .L440
 6746              	.LVL639:
 6747              	.L466:
 6748              	.LBE3838:
 6749              	.LBE3839:
 6750              	.LBE3840:
 6751              	.LBE3841:
 6752              	.LBE3842:
 6753              	.LBE3843:
 6754              	.LBE3844:
 6755              	.LBE3845:
 6756              	.LBE3846:
 6757              	.LBE3847:
 6758              	.LBE3855:
 6759              	.LBB3856:
 6760              	.LBB3815:
 6761              	.LBB3812:
 6762              	.LBB3809:
 6763              	.LBB3806:
 6764              	.LBB3803:
 6765              		.loc 12 80 0
 6766 0284 48000001 		bl __cxa_begin_catch
 6767              	.LVL640:
 6768 0288 7F5ED378 		mr 30,26
 6769              	.LVL641:
 6770              	.L433:
 6771              	.LBB3795:
 6772              	.LBB3796:
 6773              	.LBB3797:
 6774              	.LBB3798:
 6775              		.loc 7 103 0
 6776 028c 7F9EF800 		cmpw 7,30,31
 6777 0290 419E0034 		beq- 7,.L477
 6778              	.LVL642:
 6779              	.LBB3799:
 6780              	.LBB3800:
 6781              		.loc 7 94 0
 6782 0294 7FC3F378 		mr 3,30
 6783              	.LBE3800:
 6784              	.LBE3799:
 6785              		.loc 7 103 0
 6786 0298 3BDE0004 		addi 30,30,4
 6787              	.LVL643:
 6788              	.LBB3802:
 6789              	.LBB3801:
 6790              		.loc 7 94 0
 6791 029c 48000001 		bl _ZNSsD1Ev
 6792              	.LVL644:
 6793 02a0 4BFFFFEC 		b .L433
 6794              	.LVL645:
 6795              	.L464:
 6796              	.LBE3801:
 6797              	.LBE3802:
 6798              	.LBE3798:
 6799              	.LBE3797:
 6800              	.LBE3796:
 6801              	.LBE3795:
 6802              	.LBE3803:
 6803              	.LBE3806:
 6804              	.LBE3809:
 6805              	.LBE3812:
 6806              	.LBE3815:
 6807              	.LBE3856:
 6808              	.LBB3857:
 6809              	.LBB3784:
 6810              	.LBB3781:
 6811              	.LBB3778:
 6812              	.LBB3775:
 6813              	.LBB3772:
 6814              		.loc 12 80 0
 6815 02a4 48000001 		bl __cxa_begin_catch
 6816              	.LVL646:
 6817 02a8 7F7FDB78 		mr 31,27
 6818              	.LVL647:
 6819              	.L424:
 6820              	.LBB3764:
 6821              	.LBB3765:
 6822              	.LBB3766:
 6823              	.LBB3767:
 6824              		.loc 7 103 0
 6825 02ac 7F9AF800 		cmpw 7,26,31
 6826 02b0 419E0018 		beq- 7,.L478
 6827              	.LVL648:
 6828              	.LBB3768:
 6829              	.LBB3769:
 6830              		.loc 7 94 0
 6831 02b4 7FE3FB78 		mr 3,31
 6832              	.LBE3769:
 6833              	.LBE3768:
 6834              		.loc 7 103 0
 6835 02b8 3BFF0004 		addi 31,31,4
 6836              	.LVL649:
 6837              	.LBB3771:
 6838              	.LBB3770:
 6839              		.loc 7 94 0
 6840 02bc 48000001 		bl _ZNSsD1Ev
 6841              	.LVL650:
 6842 02c0 4BFFFFEC 		b .L424
 6843              	.LVL651:
 6844              	.L477:
 6845              	.LEHB61:
 6846              	.LBE3770:
 6847              	.LBE3771:
 6848              	.LBE3767:
 6849              	.LBE3766:
 6850              	.LBE3765:
 6851              	.LBE3764:
 6852              	.LBE3772:
 6853              	.LBE3775:
 6854              	.LBE3778:
 6855              	.LBE3781:
 6856              	.LBE3784:
 6857              	.LBE3857:
 6858              	.LBB3858:
 6859              	.LBB3816:
 6860              	.LBB3813:
 6861              	.LBB3810:
 6862              	.LBB3807:
 6863              	.LBB3804:
 6864              		.loc 12 83 0
 6865 02c4 48000001 		bl __cxa_rethrow
 6866              	.LEHE61:
 6867              	.LVL652:
 6868              	.L478:
 6869              	.LEHB62:
 6870              	.LBE3804:
 6871              	.LBE3807:
 6872              	.LBE3810:
 6873              	.LBE3813:
 6874              	.LBE3816:
 6875              	.LBE3858:
 6876              	.LBB3859:
 6877              	.LBB3785:
 6878              	.LBB3782:
 6879              	.LBB3779:
 6880              	.LBB3776:
 6881              	.LBB3773:
 6882 02c8 48000001 		bl __cxa_rethrow
 6883              	.LEHE62:
 6884              	.LVL653:
 6885              	.L467:
 6886 02cc 7C7F1B78 		mr 31,3
 6887              	.LVL654:
 6888              	.LBE3773:
 6889              	.LBE3776:
 6890              	.LBE3779:
 6891              	.LBE3782:
 6892              	.LBE3785:
 6893              	.LBE3859:
 6894              	.LBB3860:
 6895              	.LBB3817:
 6896              	.LBB3814:
 6897              	.LBB3811:
 6898              	.LBB3808:
 6899              	.LBB3805:
 6900              		.loc 12 80 0
 6901 02d0 48000001 		bl __cxa_end_catch
 6902 02d4 7FE3FB78 		mr 3,31
 6903              	.LVL655:
 6904              	.L431:
 6905              	.LBE3805:
 6906              	.LBE3808:
 6907              	.LBE3811:
 6908              	.LBE3814:
 6909              	.LBE3817:
 6910              	.LBE3860:
 6911              		.loc 10 355 0
 6912 02d8 48000001 		bl __cxa_begin_catch
 6913              		.loc 10 357 0
 6914 02dc 2F9A0000 		cmpwi 7,26,0
 6915 02e0 7F7FDB78 		mr 31,27
 6916 02e4 419E002C 		beq- 7,.L422
 6917              	.L451:
 6918              	.LVL656:
 6919              	.LBB3861:
 6920              	.LBB3862:
 6921              	.LBB3863:
 6922              	.LBB3864:
 6923              	.LBB3865:
 6924              		.loc 7 103 0
 6925 02e8 7F9AF800 		cmpw 7,26,31
 6926 02ec 419E002C 		beq- 7,.L452
 6927              	.LVL657:
 6928              	.LBB3866:
 6929              	.LBB3867:
 6930              		.loc 7 94 0
 6931 02f0 7FE3FB78 		mr 3,31
 6932              	.LBE3867:
 6933              	.LBE3866:
 6934              		.loc 7 103 0
 6935 02f4 3BFF0004 		addi 31,31,4
 6936              	.LVL658:
 6937              	.LBB3869:
 6938              	.LBB3868:
 6939              		.loc 7 94 0
 6940 02f8 48000001 		bl _ZNSsD1Ev
 6941              	.LVL659:
 6942 02fc 4BFFFFEC 		b .L451
 6943              	.LVL660:
 6944              	.L465:
 6945              	.LBE3868:
 6946              	.LBE3869:
 6947              	.LBE3865:
 6948              	.LBE3864:
 6949              	.LBE3863:
 6950              	.LBE3862:
 6951              	.LBE3861:
 6952              	.LBB3870:
 6953              	.LBB3786:
 6954              	.LBB3783:
 6955              	.LBB3780:
 6956              	.LBB3777:
 6957              	.LBB3774:
 6958              		.loc 12 80 0
 6959 0300 9061001C 		stw 3,28(1)
 6960 0304 48000001 		bl __cxa_end_catch
 6961              	.LBE3774:
 6962              	.LBE3777:
 6963              	.LBE3780:
 6964              	.LBE3783:
 6965              	.LBE3786:
 6966              	.LBE3870:
 6967              		.loc 10 355 0
 6968 0308 8061001C 		lwz 3,28(1)
 6969 030c 48000001 		bl __cxa_begin_catch
 6970              	.LVL661:
 6971              	.L422:
 6972              	.LBB3871:
 6973              	.LBB3872:
 6974              		.loc 8 118 0
 6975 0310 7F23CB78 		mr 3,25
 6976 0314 48000001 		bl _ZNSsD1Ev
 6977              	.LVL662:
 6978              	.L452:
 6979              	.LBE3872:
 6980              	.LBE3871:
 6981              	.LBB3873:
 6982              	.LBB3874:
 6983              		.loc 6 155 0
 6984 0318 2F9B0000 		cmpwi 7,27,0
 6985 031c 419E000C 		beq- 7,.L454
 6986              	.LVL663:
 6987              	.LBB3875:
 6988              	.LBB3876:
 6989              		.loc 8 98 0
 6990 0320 7F63DB78 		mr 3,27
 6991 0324 48000001 		bl _ZdlPv
 6992              	.LVL664:
 6993              	.L454:
 6994              	.LEHB63:
 6995              	.LBE3876:
 6996              	.LBE3875:
 6997              	.LBE3874:
 6998              	.LBE3873:
 6999              		.loc 10 362 0
 7000 0328 48000001 		bl __cxa_rethrow
 7001              	.LEHE63:
 7002              	.LVL665:
 7003              	.L462:
 7004              	.LBB3877:
 7005              	.LBB3755:
 7006              		.loc 8 108 0
 7007 032c 7F7ADB78 		mr 26,27
 7008 0330 4BFFFFA8 		b .L431
 7009              	.LVL666:
 7010              	.L474:
 7011              	.LBE3755:
 7012              	.LBE3877:
 7013              	.LBE3882:
 7014              	.LBB3883:
 7015              	.LBB3730:
 7016              	.LBB3729:
 7017              	.LBB3728:
 7018              	.LBB3727:
 7019              	.LBB3725:
 7020              	.LBB3718:
 7021              	.LBB3719:
 7022              	.LBB3720:
 7023              		.loc 5 66 0
 7024 0334 8169FFFC 		lwz 11,-4(9)
 7025              	.LVL667:
 7026              	.LBE3720:
 7027              	.LBE3719:
 7028              	.LBE3718:
 7029              		.loc 3 240 0
 7030 0338 2F8B0000 		cmpwi 7,11,0
 7031              	.LBB3723:
 7032              	.LBB3722:
 7033              	.LBB3721:
 7034              		.loc 5 67 0
 7035 033c 396BFFFF 		addi 11,11,-1
 7036 0340 9169FFFC 		stw 11,-4(9)
 7037              	.LBE3721:
 7038              	.LBE3722:
 7039              	.LBE3723:
 7040              		.loc 3 240 0
 7041 0344 419DFD90 		bgt+ 7,.L406
 7042              		.loc 3 244 0
 7043 0348 38810009 		addi 4,1,9
 7044 034c 48000001 		bl _ZNSs4_Rep10_M_destroyERKSaIcE
 7045              	.LVL668:
 7046 0350 4BFFFD84 		b .L406
 7047              	.LVL669:
 7048              	.L461:
 7049 0354 7C7F1B78 		mr 31,3
 7050              	.LBE3725:
 7051              	.LBE3727:
 7052              	.LBE3728:
 7053              	.LBE3729:
 7054              	.LBE3730:
 7055              		.loc 10 317 0
 7056 0358 3861000C 		addi 3,1,12
 7057 035c 48000001 		bl _ZNSsD1Ev
 7058 0360 7FE3FB78 		mr 3,31
 7059              	.LEHB64:
 7060 0364 48000001 		bl _Unwind_Resume
 7061              	.LEHE64:
 7062              	.LVL670:
 7063              	.L475:
 7064              	.LBE3883:
 7065              	.LBB3884:
 7066              	.LBB3878:
 7067              	.LBB3738:
 7068              		.loc 6 1245 0
 7069 0368 3D603FFF 		lis 11,0x3fff
 7070 036c 616BFFFF 		ori 11,11,65535
 7071 0370 7F895840 		cmplw 7,9,11
 7072 0374 419DFDAC 		bgt+ 7,.L413
 7073              	.LVL671:
 7074              	.LBE3738:
 7075              	.LBE3878:
 7076              	.LBB3879:
 7077              	.LBB3751:
 7078              		.loc 6 150 0
 7079 0378 2F890000 		cmpwi 7,9,0
 7080              	.LBE3751:
 7081              	.LBE3879:
 7082              	.LBB3880:
 7083              	.LBB3744:
 7084              		.loc 2 892 0
 7085 037c 7C00F050 		subf 0,0,30
 7086 0380 7C1C1670 		srawi 28,0,2
 7087              	.LVL672:
 7088              	.LBE3744:
 7089              	.LBE3880:
 7090              	.LBB3881:
 7091              	.LBB3752:
 7092              		.loc 6 150 0
 7093 0384 3B000000 		li 24,0
 7094 0388 3B600000 		li 27,0
 7095 038c 419EFDB0 		beq+ 7,.L414
 7096 0390 4BFFFEC8 		b .L456
 7097              	.LVL673:
 7098              	.L463:
 7099              	.LBE3752:
 7100              	.LBE3881:
 7101              		.loc 10 355 0
 7102 0394 9061001C 		stw 3,28(1)
 7103 0398 48000001 		bl __cxa_end_catch
 7104 039c 8061001C 		lwz 3,28(1)
 7105              	.LEHB65:
 7106 03a0 48000001 		bl _Unwind_Resume
 7107              	.LEHE65:
 7108              	.LBE3884:
 7109              	.LBE3888:
 7110              		.cfi_endproc
 7111              	.LFE1116:
 7112              		.section	.gcc_except_table
 7113 014d 000000   		.align 2
 7114              	.LLSDA1116:
 7115 0150 FF       		.byte	0xff
 7116 0151 00       		.byte	0
 7117 0152 49       		.uleb128 .LLSDATT1116-.LLSDATTD1116
 7118              	.LLSDATTD1116:
 7119 0153 01       		.byte	0x1
 7120 0154 3D       		.uleb128 .LLSDACSE1116-.LLSDACSB1116
 7121              	.LLSDACSB1116:
 7122 0155 58       		.uleb128 .LEHB55-.LFB1116
 7123 0156 1C       		.uleb128 .LEHE55-.LEHB55
 7124 0157 00       		.uleb128 0
 7125 0158 00       		.uleb128 0
 7126 0159 9C01     		.uleb128 .LEHB56-.LFB1116
 7127 015b 20       		.uleb128 .LEHE56-.LEHB56
 7128 015c D406     		.uleb128 .L461-.LFB1116
 7129 015e 00       		.uleb128 0
 7130 015f B402     		.uleb128 .LEHB57-.LFB1116
 7131 0161 04       		.uleb128 .LEHE57-.LEHB57
 7132 0162 00       		.uleb128 0
 7133 0163 00       		.uleb128 0
 7134 0164 D002     		.uleb128 .LEHB58-.LFB1116
 7135 0166 04       		.uleb128 .LEHE58-.LEHB58
 7136 0167 AC06     		.uleb128 .L462-.LFB1116
 7137 0169 01       		.uleb128 0x1
 7138 016a F402     		.uleb128 .LEHB59-.LFB1116
 7139 016c 04       		.uleb128 .LEHE59-.LEHB59
 7140 016d A405     		.uleb128 .L464-.LFB1116
 7141 016f 01       		.uleb128 0x1
 7142 0170 AC03     		.uleb128 .LEHB60-.LFB1116
 7143 0172 04       		.uleb128 .LEHE60-.LEHB60
 7144 0173 8405     		.uleb128 .L466-.LFB1116
 7145 0175 01       		.uleb128 0x1
 7146 0176 C405     		.uleb128 .LEHB61-.LFB1116
 7147 0178 04       		.uleb128 .LEHE61-.LEHB61
 7148 0179 CC05     		.uleb128 .L467-.LFB1116
 7149 017b 03       		.uleb128 0x3
 7150 017c C805     		.uleb128 .LEHB62-.LFB1116
 7151 017e 04       		.uleb128 .LEHE62-.LEHB62
 7152 017f 8006     		.uleb128 .L465-.LFB1116
 7153 0181 03       		.uleb128 0x3
 7154 0182 A806     		.uleb128 .LEHB63-.LFB1116
 7155 0184 04       		.uleb128 .LEHE63-.LEHB63
 7156 0185 9407     		.uleb128 .L463-.LFB1116
 7157 0187 00       		.uleb128 0
 7158 0188 E406     		.uleb128 .LEHB64-.LFB1116
 7159 018a 04       		.uleb128 .LEHE64-.LEHB64
 7160 018b 00       		.uleb128 0
 7161 018c 00       		.uleb128 0
 7162 018d A007     		.uleb128 .LEHB65-.LFB1116
 7163 018f 04       		.uleb128 .LEHE65-.LEHB65
 7164 0190 00       		.uleb128 0
 7165 0191 00       		.uleb128 0
 7166              	.LLSDACSE1116:
 7167 0192 01       		.byte	0x1
 7168 0193 00       		.byte	0
 7169 0194 00       		.byte	0
 7170 0195 7D       		.byte	0x7d
 7171 0196 0000     		.align 2
 7172 0198 00000000 		.long	0
 7173              	.LLSDATT1116:
 7174              		.section	.text._ZNSt6vectorISsSaISsEE13_M_insert_auxEN9__gnu_cxx17__normal_iteratorIPSsS1_EERKSs,"
 7175              		.size	_ZNSt6vectorISsSaISsEE13_M_insert_auxEN9__gnu_cxx17__normal_iteratorIPSsS1_EERKSs, .-_ZNSt6v
 7176              		.section	.text._ZSt16__insertion_sortIN9__gnu_cxx17__normal_iteratorIPSsSt6vectorISsSaISsEEEEEvT_S
 7177              		.align 2
 7178              		.weak	_ZSt16__insertion_sortIN9__gnu_cxx17__normal_iteratorIPSsSt6vectorISsSaISsEEEEEvT_S7_
 7179              		.type	_ZSt16__insertion_sortIN9__gnu_cxx17__normal_iteratorIPSsSt6vectorISsSaISsEEEEEvT_S7_, @func
 7180              	_ZSt16__insertion_sortIN9__gnu_cxx17__normal_iteratorIPSsSt6vectorISsSaISsEEEEEvT_S7_:
 7181              	.LFB1153:
 7182              		.file 13 "d:\\devkitpro\\devkitppc\\bin\\../lib/gcc/powerpc-eabi/4.6.3/../../../../powerpc-eabi/in
 7183              		.loc 13 2099 0
 7184              		.cfi_startproc
 7185              		.cfi_personality 0,__gxx_personality_v0
 7186              		.cfi_lsda 0,.LLSDA1153
 7187              	.LVL674:
 7188 0000 7C0802A6 		mflr 0
 7189 0004 9421FFB8 		stwu 1,-72(1)
 7190              	.LCFI84:
 7191              		.cfi_def_cfa_offset 72
 7192              		.cfi_register 65, 0
 7193 0008 93410030 		stw 26,48(1)
 7194 000c 9001004C 		stw 0,76(1)
 7195 0010 93610034 		stw 27,52(1)
 7196 0014 83440000 		lwz 26,0(4)
 7197              		.cfi_offset 27, -20
 7198              		.cfi_offset 65, 4
 7199              		.cfi_offset 26, -24
 7200 0018 83630000 		lwz 27,0(3)
 7201              	.LVL675:
 7202 001c 92E10024 		stw 23,36(1)
 7203              	.LBB4016:
 7204              		.loc 13 2102 0
 7205 0020 7F9AD800 		cmpw 7,26,27
 7206              	.LBE4016:
 7207              		.loc 13 2099 0
 7208 0024 93010028 		stw 24,40(1)
 7209 0028 9321002C 		stw 25,44(1)
 7210 002c 93810038 		stw 28,56(1)
 7211 0030 93A1003C 		stw 29,60(1)
 7212 0034 93C10040 		stw 30,64(1)
 7213 0038 93E10044 		stw 31,68(1)
 7214              	.LBB4147:
 7215              		.loc 13 2102 0
 7216 003c 419E00C8 		beq- 7,.L479
 7217              		.cfi_offset 31, -4
 7218              		.cfi_offset 30, -8
 7219              		.cfi_offset 29, -12
 7220              		.cfi_offset 28, -16
 7221              		.cfi_offset 25, -28
 7222              		.cfi_offset 24, -32
 7223              		.cfi_offset 23, -36
 7224              	.LVL676:
 7225              	.LBB4017:
 7226              	.LBB4018:
 7227              	.LBB4019:
 7228              		.loc 2 773 0
 7229 0040 3BBB0004 		addi 29,27,4
 7230              	.LVL677:
 7231              	.LBE4019:
 7232              	.LBE4018:
 7233              		.loc 13 2105 0
 7234 0044 7F9DD000 		cmpw 7,29,26
 7235 0048 419E00BC 		beq- 7,.L479
 7236              		.loc 13 2099 0
 7237 004c 3B9B0008 		addi 28,27,8
 7238              	.LVL678:
 7239              	.L505:
 7240              	.LBB4020:
 7241              	.LBB4021:
 7242              	.LBB4022:
 7243              	.LBB4023:
 7244              	.LBB4024:
 7245              	.LBB4025:
 7246              	.LBB4026:
 7247              	.LBB4027:
 7248              	.LBB4028:
 7249              		.loc 3 288 0
 7250 0050 807D0000 		lwz 3,0(29)
 7251              	.LBE4028:
 7252              	.LBE4027:
 7253              	.LBE4026:
 7254              	.LBE4025:
 7255              	.LBE4024:
 7256              	.LBE4023:
 7257              	.LBE4022:
 7258              	.LBE4021:
 7259              	.LBE4020:
 7260              		.loc 13 2105 0
 7261 0054 7FB8EB78 		mr 24,29
 7262              	.LVL679:
 7263              	.LBB4143:
 7264              	.LBB4042:
 7265              	.LBB4041:
 7266              	.LBB4040:
 7267              	.LBB4030:
 7268              	.LBB4031:
 7269              	.LBB4032:
 7270              	.LBB4033:
 7271              	.LBB4034:
 7272              		.loc 3 288 0
 7273 0058 809B0000 		lwz 4,0(27)
 7274              	.LBE4034:
 7275              	.LBE4033:
 7276              	.LBE4032:
 7277              	.LBE4031:
 7278              	.LBE4030:
 7279              	.LBB4036:
 7280              	.LBB4029:
 7281              		.loc 3 711 0
 7282 005c 83C3FFF4 		lwz 30,-12(3)
 7283              	.LVL680:
 7284              	.LBE4029:
 7285              	.LBE4036:
 7286              	.LBB4037:
 7287              	.LBB4035:
 7288 0060 83E4FFF4 		lwz 31,-12(4)
 7289              	.LVL681:
 7290              	.LBE4035:
 7291              	.LBE4037:
 7292              	.LBB4038:
 7293              	.LBB4039:
 7294              		.loc 4 257 0
 7295 0064 7F9FF040 		cmplw 7,31,30
 7296 0068 7FE5FB78 		mr 5,31
 7297 006c 409D0008 		ble- 7,.L481
 7298 0070 7FC5F378 		mr 5,30
 7299              	.L481:
 7300 0074 48000001 		bl memcmp
 7301              	.LVL682:
 7302              	.LBE4039:
 7303              	.LBE4038:
 7304              		.loc 3 2180 0
 7305 0078 2C030000 		cmpwi 0,3,0
 7306 007c 40820008 		bne- 0,.L482
 7307              	.LVL683:
 7308 0080 7C1FF051 		subf. 0,31,30
 7309              	.LVL684:
 7310              	.L482:
 7311              	.LBE4040:
 7312              	.LBE4041:
 7313              	.LBE4042:
 7314              	.LBB4043:
 7315              		.loc 13 2110 0
 7316 0084 3861000C 		addi 3,1,12
 7317 0088 7FA4EB78 		mr 4,29
 7318              	.LBE4043:
 7319              		.loc 13 2107 0
 7320 008c 408000AC 		bge- 0,.L483
 7321              	.LVL685:
 7322              	.LEHB66:
 7323              	.LBB4083:
 7324              		.loc 13 2110 0
 7325 0090 48000001 		bl _ZNSsC1ERKSs
 7326              	.LEHE66:
 7327              	.LVL686:
 7328              	.LBB4044:
 7329              	.LBB4045:
 7330              	.LBB4046:
 7331              	.LBB4047:
 7332              	.LBB4048:
 7333              	.LBB4049:
 7334              		.loc 11 530 0
 7335 0094 7C1BE850 		subf 0,27,29
 7336 0098 7C091671 		srawi. 9,0,2
 7337              	.LBE4049:
 7338              	.LBE4048:
 7339              	.LBE4047:
 7340              	.LBE4046:
 7341              	.LBE4045:
 7342              	.LBE4044:
 7343              	.LBB4057:
 7344              	.LBB4058:
 7345              		.loc 2 773 0
 7346 009c 7F9EE378 		mr 30,28
 7347              	.LVL687:
 7348              	.LBE4058:
 7349              	.LBE4057:
 7350              	.LBB4059:
 7351              	.LBB4056:
 7352              	.LBB4055:
 7353              	.LBB4054:
 7354              	.LBB4053:
 7355              	.LBB4052:
 7356              		.loc 11 530 0
 7357 00a0 91210018 		stw 9,24(1)
 7358 00a4 41A1000C 		bgt+ 0,.L511
 7359 00a8 48000028 		b .L484
 7360              	.LVL688:
 7361              	.L507:
 7362              		.loc 11 531 0
 7363 00ac 7FF8FB78 		mr 24,31
 7364              	.LVL689:
 7365              	.L511:
 7366 00b0 3BF8FFFC 		addi 31,24,-4
 7367              	.LVL690:
 7368              	.LBB4050:
 7369              	.LBB4051:
 7370              		.loc 3 542 0
 7371 00b4 7F03C378 		mr 3,24
 7372 00b8 7FE4FB78 		mr 4,31
 7373              	.LEHB67:
 7374 00bc 48000001 		bl _ZNSs6assignERKSs
 7375              	.LVL691:
 7376              	.LBE4051:
 7377              	.LBE4050:
 7378              		.loc 11 530 0
 7379 00c0 80010018 		lwz 0,24(1)
 7380 00c4 3520FFFF 		addic. 9,0,-1
 7381 00c8 91210018 		stw 9,24(1)
 7382 00cc 4082FFE0 		bne+ 0,.L507
 7383              	.LVL692:
 7384              	.L484:
 7385              	.LBE4052:
 7386              	.LBE4053:
 7387              	.LBE4054:
 7388              	.LBE4055:
 7389              	.LBE4056:
 7390              	.LBE4059:
 7391              	.LBB4060:
 7392              	.LBB4061:
 7393              		.loc 3 542 0
 7394 00d0 7F63DB78 		mr 3,27
 7395 00d4 3881000C 		addi 4,1,12
 7396              	.LVL693:
 7397 00d8 48000001 		bl _ZNSs6assignERKSs
 7398              	.LEHE67:
 7399              	.LVL694:
 7400              	.LBE4061:
 7401              	.LBE4060:
 7402              	.LBB4062:
 7403              	.LBB4063:
 7404              	.LBB4064:
 7405              	.LBB4065:
 7406              	.LBB4066:
 7407              	.LBB4067:
 7408              		.loc 3 288 0
 7409 00dc 8121000C 		lwz 9,12(1)
 7410              	.LBE4067:
 7411              	.LBE4066:
 7412              	.LBE4065:
 7413              	.LBB4068:
 7414              	.LBB4069:
 7415              		.loc 3 235 0
 7416 00e0 3D600000 		lis 11,_ZNSs4_Rep20_S_empty_rep_storageE@ha
 7417 00e4 380B0000 		la 0,_ZNSs4_Rep20_S_empty_rep_storageE@l(11)
 7418              	.LBE4069:
 7419              	.LBE4068:
 7420              		.loc 3 534 0
 7421 00e8 3869FFF4 		addi 3,9,-12
 7422              	.LVL695:
 7423              	.LBB4078:
 7424              	.LBB4076:
 7425              		.loc 3 235 0
 7426 00ec 7F830000 		cmpw 7,3,0
 7427 00f0 409E0104 		bne- 7,.L514
 7428              	.LVL696:
 7429              	.L504:
 7430              	.LBE4076:
 7431              	.LBE4078:
 7432              	.LBE4064:
 7433              	.LBE4063:
 7434              	.LBE4062:
 7435              	.LBE4083:
 7436              	.LBE4143:
 7437              		.loc 13 2105 0
 7438 00f4 7F9AF000 		cmpw 7,26,30
 7439              	.LBB4144:
 7440              	.LBB4084:
 7441              	.LBB4085:
 7442              		.loc 13 2074 0
 7443 00f8 3B9C0004 		addi 28,28,4
 7444              	.LVL697:
 7445 00fc 3BBD0004 		addi 29,29,4
 7446              	.LVL698:
 7447              	.LBE4085:
 7448              	.LBE4084:
 7449              	.LBE4144:
 7450              		.loc 13 2105 0
 7451 0100 409EFF50 		bne+ 7,.L505
 7452              	.LVL699:
 7453              	.L479:
 7454              	.LBE4017:
 7455              	.LBE4147:
 7456              		.loc 13 2117 0
 7457 0104 8001004C 		lwz 0,76(1)
 7458 0108 82E10024 		lwz 23,36(1)
 7459 010c 7C0803A6 		mtlr 0
 7460 0110 83010028 		lwz 24,40(1)
 7461 0114 8321002C 		lwz 25,44(1)
 7462 0118 83410030 		lwz 26,48(1)
 7463 011c 83610034 		lwz 27,52(1)
 7464              	.LVL700:
 7465 0120 83810038 		lwz 28,56(1)
 7466 0124 83A1003C 		lwz 29,60(1)
 7467 0128 83C10040 		lwz 30,64(1)
 7468 012c 83E10044 		lwz 31,68(1)
 7469 0130 38210048 		addi 1,1,72
 7470              		.cfi_remember_state
 7471              	.LCFI85:
 7472              		.cfi_def_cfa_offset 0
 7473              		.cfi_restore 31
 7474              		.cfi_restore 30
 7475              		.cfi_restore 29
 7476              		.cfi_restore 28
 7477              		.cfi_restore 27
 7478              		.cfi_restore 26
 7479              		.cfi_restore 25
 7480              		.cfi_restore 24
 7481              		.cfi_restore 23
 7482 0134 4E800020 		blr
 7483              	.LVL701:
 7484              	.L483:
 7485              	.LCFI86:
 7486              		.cfi_restore_state
 7487              	.LEHB68:
 7488              	.LBB4148:
 7489              	.LBB4146:
 7490              	.LBB4145:
 7491              	.LBB4139:
 7492              	.LBB4137:
 7493              		.loc 13 2065 0
 7494 0138 48000001 		bl _ZNSsC1ERKSs
 7495              	.LEHE68:
 7496              	.LVL702:
 7497              		.loc 13 2099 0
 7498 013c 3BFCFFF8 		addi 31,28,-8
 7499              	.LVL703:
 7500 0140 48000014 		b .L487
 7501              	.LVL704:
 7502              	.L490:
 7503              	.LBB4086:
 7504              	.LBB4087:
 7505              		.loc 3 542 0
 7506 0144 7FE4FB78 		mr 4,31
 7507              	.LEHB69:
 7508 0148 48000001 		bl _ZNSs6assignERKSs
 7509              	.LVL705:
 7510 014c 3BFFFFFC 		addi 31,31,-4
 7511 0150 7FD8F378 		mr 24,30
 7512              	.LVL706:
 7513              	.L487:
 7514              	.LBE4087:
 7515              	.LBE4086:
 7516              	.LBB4090:
 7517              	.LBB4091:
 7518              	.LBB4092:
 7519              	.LBB4093:
 7520              	.LBB4094:
 7521              	.LBB4095:
 7522              	.LBB4096:
 7523              	.LBB4097:
 7524              		.loc 3 288 0
 7525 0154 8061000C 		lwz 3,12(1)
 7526              	.LBE4097:
 7527              	.LBE4096:
 7528              	.LBE4095:
 7529              	.LBE4094:
 7530              	.LBE4093:
 7531              	.LBE4092:
 7532              	.LBE4091:
