	.file	"networkops.cpp"
	.section	".text"
.Ltext0:
	.align 2
	.globl _Z18Initialize_Networkv
	.type	_Z18Initialize_Networkv, @function
_Z18Initialize_Networkv:
.LFB1379:
	.file 1 "d:/Projects/SaveGameManager/savegame-manager-gx/trunk/source/Network/networkops.cpp"
	.loc 1 38 0
	.cfi_startproc
	stwu 1,-16(1)
.LCFI0:
	.cfi_def_cfa_offset 16
	mflr 0
	stw 31,12(1)
.LBB17:
	.loc 1 40 0
	lis 31,.LANCHOR0@ha
	.cfi_offset 31, -4
	.cfi_register 65, 0
.LBE17:
	.loc 1 38 0
	stw 30,8(1)
.LBB18:
	.loc 1 40 0
	la 3,.LANCHOR0@l(31)
	lbz 30,.LANCHOR0@l(31)
	.cfi_offset 30, -8
.LBE18:
	.loc 1 38 0
	stw 0,20(1)
.LBB19:
	.loc 1 40 0
	cmpwi 7,30,0
	beq- 7,.L5
	.cfi_offset 65, 4
.L1:
.LBE19:
	.loc 1 54 0
	lwz 0,20(1)
	lwz 30,8(1)
	mtlr 0
	lwz 31,12(1)
	addi 1,1,16
	.cfi_remember_state
.LCFI1:
	.cfi_def_cfa_offset 0
	.cfi_restore 31
	.cfi_restore 30
	blr
.L5:
.LCFI2:
	.cfi_restore_state
.LBB20:
	.loc 1 44 0
	addi 3,3,4
	li 4,0
	li 5,0
	li 6,1
	bl if_config
.LVL0:
	.loc 1 46 0
	cmpwi 7,3,0
	blt- 7,.L6
	.loc 1 52 0
	li 0,1
.LBE20:
	.loc 1 54 0
	lwz 30,8(1)
.LBB21:
	.loc 1 52 0
	stb 0,.LANCHOR0@l(31)
.LBE21:
	.loc 1 54 0
	lwz 0,20(1)
	lwz 31,12(1)
	mtlr 0
	addi 1,1,16
	.cfi_remember_state
	.cfi_restore 30
	.cfi_restore 31
.LCFI3:
	.cfi_def_cfa_offset 0
	blr
.L6:
.LCFI4:
	.cfi_restore_state
.LBB22:
	.loc 1 48 0
	stb 30,.LANCHOR0@l(31)
	.loc 1 49 0
	b .L1
.LBE22:
	.cfi_endproc
.LFE1379:
	.size	_Z18Initialize_Networkv, .-_Z18Initialize_Networkv
	.align 2
	.globl _Z13DeinitNetworkv
	.type	_Z13DeinitNetworkv, @function
_Z13DeinitNetworkv:
.LFB1380:
	.loc 1 60 0
	.cfi_startproc
	mflr 0
	stwu 1,-8(1)
.LCFI5:
	.cfi_def_cfa_offset 8
	.cfi_register 65, 0
	stw 0,12(1)
	.loc 1 61 0
	.cfi_offset 65, 4
	bl net_deinit
	.loc 1 62 0
	li 0,0
	lis 9,.LANCHOR0@ha
	stb 0,.LANCHOR0@l(9)
	.loc 1 63 0
	lwz 0,12(1)
	addi 1,1,8
.LCFI6:
	.cfi_def_cfa_offset 0
	mtlr 0
	blr
	.cfi_endproc
.LFE1380:
	.size	_Z13DeinitNetworkv, .-_Z13DeinitNetworkv
	.align 2
	.globl _Z13IsNetworkInitv
	.type	_Z13IsNetworkInitv, @function
_Z13IsNetworkInitv:
.LFB1381:
	.loc 1 69 0
	.cfi_startproc
	.loc 1 70 0
	lis 9,.LANCHOR0@ha
	.loc 1 71 0
	lbz 3,.LANCHOR0@l(9)
	blr
	.cfi_endproc
.LFE1381:
	.size	_Z13IsNetworkInitv, .-_Z13IsNetworkInitv
	.align 2
	.globl _Z12GetNetworkIPv
	.type	_Z12GetNetworkIPv, @function
_Z12GetNetworkIPv:
.LFB1382:
	.loc 1 77 0
	.cfi_startproc
	.loc 1 78 0
	lis 3,.LANCHOR0@ha
	.loc 1 79 0
	.loc 1 78 0
	la 3,.LANCHOR0@l(3)
	.loc 1 79 0
	addi 3,3,4
	blr
	.cfi_endproc
.LFE1382:
	.size	_Z12GetNetworkIPv, .-_Z12GetNetworkIPv
	.align 2
	.globl _Z14GetIncommingIPv
	.type	_Z14GetIncommingIPv, @function
_Z14GetIncommingIPv:
.LFB1383:
	.loc 1 85 0
	.cfi_startproc
	.loc 1 86 0
	lis 3,.LANCHOR0@ha
	.loc 1 87 0
	.loc 1 86 0
	la 3,.LANCHOR0@l(3)
	.loc 1 87 0
	addi 3,3,20
	blr
	.cfi_endproc
.LFE1383:
	.size	_Z14GetIncommingIPv, .-_Z14GetIncommingIPv
	.align 2
	.globl _Z15network_requestiPKcPc
	.type	_Z15network_requestiPKcPc, @function
_Z15network_requestiPKcPc:
.LFB1384:
	.loc 1 90 0
	.cfi_startproc
.LVL1:
	mflr 0
	stwu 1,-1072(1)
.LCFI7:
	.cfi_def_cfa_offset 1072
	.cfi_register 65, 0
	stw 28,1056(1)
	mr 28,5
	.cfi_offset 28, -16
	stw 0,1076(1)
.LBB23:
	.loc 1 91 0
	lis 0,0xf000
	.cfi_offset 65, 4
	ori 0,0,2
.LBE23:
	.loc 1 90 0
	stw 30,1064(1)
.LBB24:
	.loc 1 91 0
	cmpw 7,3,0
.LBE24:
	.loc 1 90 0
	stw 29,1060(1)
	stw 31,1068(1)
	.loc 1 90 0
	mr 30,3
	.cfi_offset 31, -4
	.cfi_offset 29, -12
	.cfi_offset 30, -8
.LBB25:
	.loc 1 91 0
	beq- 7,.L22
.LVL2:
.L12:
	.loc 1 101 0
	mr 3,4
	stw 4,1048(1)
	bl strlen
.LVL3:
	lwz 4,1048(1)
.LVL4:
	mr 5,3
	li 6,0
	mr 3,30
	bl net_send
.LVL5:
	.loc 1 102 0
	mr. 0,3
	blt- 0,.L13
	.loc 1 105 0
	addi 3,1,12
.LVL6:
	li 4,0
	li 5,1024
	lis 29,.LC0@ha
	bl memset
.LVL7:
	addi 31,1,12
	la 29,.LC0@l(29)
	.loc 1 108 0
	b .L14
.LVL8:
.L15:
	.loc 1 109 0
	bl net_recv
	cmpwi 7,3,0
	ble- 7,.L19
.L14:
	.loc 1 108 0 discriminator 1
	mr 4,29
	addi 3,1,12
	bl strstr
	.loc 1 109 0 discriminator 1
	mr 4,31
	.loc 1 108 0 discriminator 1
	cmpwi 7,3,0
	.loc 1 109 0 discriminator 1
	li 5,1
	li 6,0
	mr 3,30
	addi 31,31,1
	.loc 1 108 0 discriminator 1
	beq+ 7,.L15
	.loc 1 112 0
	lis 4,.LC1@ha
	addi 3,1,12
	la 4,.LC1@l(4)
	bl strstr
	li 0,-1
	cmpwi 7,3,0
	beq- 7,.L13
	.loc 1 114 0
	cmpwi 7,28,0
	beq- 7,.L16
	.loc 1 117 0
	lis 4,.LC2@ha
	addi 3,1,12
	la 4,.LC2@l(4)
	bl strstr
.LVL9:
	.loc 1 119 0
	cmpwi 0,3,0
	beq- 0,.L16
	.loc 1 123 0
	lbz 0,10(3)
	.loc 1 121 0
	addi 9,3,10
.LVL10:
	.loc 1 123 0
	cmpwi 7,0,13
	beq- 7,.L16
	cmpwi 7,0,10
	beq- 7,.L16
	cmpwi 7,0,34
	.loc 1 126 0
	li 11,0
	.loc 1 123 0
	bne+ 7,.L17
	b .L16
.LVL11:
.L23:
	.loc 1 123 0 is_stmt 0 discriminator 4
	beq- 6,.L16
.L17:
	.loc 1 125 0 is_stmt 1 discriminator 6
	stb 0,0(28)
	.loc 1 126 0 discriminator 6
	stbu 11,1(28)
	.loc 1 123 0 discriminator 6
	lbzu 0,1(9)
	cmpwi 1,0,13
	cmpwi 7,0,10
	cmpwi 6,0,34
	beq- 1,.L16
	.loc 1 123 0 is_stmt 0 discriminator 2
	bne+ 7,.L23
.LVL12:
.L16:
	.loc 1 132 0 is_stmt 1
	lis 4,.LC3@ha
	addi 3,1,12
	la 4,.LC3@l(4)
	bl strstr
.LVL13:
	.loc 1 133 0
	lis 0,0xf000
	cmpwi 7,3,0
	ori 0,0,1
	beq- 7,.L13
	.loc 1 135 0
	lis 4,.LC4@ha
	addi 5,1,8
	la 4,.LC4@l(4)
	crxor 6,6,6
	bl sscanf
.LVL14:
	.loc 1 136 0
	lwz 0,8(1)
.L13:
.LBE25:
	.loc 1 137 0
	mr 3,0
	lwz 0,1076(1)
	lwz 28,1056(1)
	mtlr 0
	lwz 29,1060(1)
	lwz 30,1064(1)
.LVL15:
	lwz 31,1068(1)
	addi 1,1,1072
	.cfi_remember_state
.LCFI8:
	.cfi_def_cfa_offset 0
	.cfi_restore 31
	.cfi_restore 30
	.cfi_restore 29
	.cfi_restore 28
	blr
.LVL16:
.L19:
.LCFI9:
	.cfi_restore_state
.LBB26:
	.loc 1 109 0
	li 0,-1
.LBE26:
	.loc 1 137 0
	lwz 28,1056(1)
.LVL17:
	mr 3,0
	lwz 0,1076(1)
	lwz 29,1060(1)
	mtlr 0
	lwz 30,1064(1)
.LVL18:
	lwz 31,1068(1)
	addi 1,1,1072
	.cfi_remember_state
	.cfi_restore 28
	.cfi_restore 29
	.cfi_restore 30
	.cfi_restore 31
.LCFI10:
	.cfi_def_cfa_offset 0
	blr
.LVL19:
.L22:
.LCFI11:
	.cfi_restore_state
.LBB27:
	.loc 1 92 0
	lis 9,connection@ha
	lwz 30,connection@l(9)
.LVL20:
	b .L12
.LBE27:
	.cfi_endproc
.LFE1384:
	.size	_Z15network_requestiPKcPc, .-_Z15network_requestiPKcPc
	.align 2
	.globl _Z12network_readiPhj
	.type	_Z12network_readiPhj, @function
_Z12network_readiPhj:
.LFB1385:
	.loc 1 140 0
	.cfi_startproc
.LVL21:
	mflr 0
	stwu 1,-24(1)
.LCFI12:
	.cfi_def_cfa_offset 24
	.cfi_register 65, 0
	stw 28,8(1)
	mr 28,4
	.cfi_offset 28, -16
	stw 0,28(1)
.LBB28:
	.loc 1 141 0
	lis 0,0xf000
	.cfi_offset 65, 4
	ori 0,0,2
.LBE28:
	.loc 1 140 0
	stw 29,12(1)
.LBB29:
	.loc 1 141 0
	cmpw 7,3,0
.LBE29:
	.loc 1 140 0
	stw 30,16(1)
	stw 31,20(1)
	.loc 1 140 0
	mr 29,3
	.cfi_offset 31, -4
	.cfi_offset 30, -8
	.cfi_offset 29, -12
	mr 30,5
.LBB30:
	.loc 1 141 0
	beq- 7,.L33
.LVL22:
.L25:
	.loc 1 148 0
	cmpwi 7,30,0
	li 3,0
	beq- 7,.L27
	li 31,0
	b .L29
.LVL23:
.L34:
	.loc 1 155 0
	beq- 0,.L32
	.loc 1 158 0
	add 31,31,3
.LVL24:
	.loc 1 148 0
	cmplw 7,30,31
	ble- 7,.L32
.LVL25:
.L29:
	.loc 1 151 0
	add 4,28,31
	subf 5,31,30
	mr 3,29
	bl net_read
.LVL26:
	.loc 1 152 0
	cmpwi 0,3,0
	bge+ 0,.L34
.LVL27:
.L27:
.LBE30:
	.loc 1 162 0
	lwz 0,28(1)
	lwz 28,8(1)
.LVL28:
	mtlr 0
	lwz 29,12(1)
.LVL29:
	lwz 30,16(1)
.LVL30:
	lwz 31,20(1)
	addi 1,1,24
	.cfi_remember_state
.LCFI13:
	.cfi_def_cfa_offset 0
	.cfi_restore 31
	.cfi_restore 30
	.cfi_restore 29
	.cfi_restore 28
	blr
.LVL31:
.L32:
.LCFI14:
	.cfi_restore_state
	lwz 0,28(1)
.LBB31:
	.loc 1 148 0
	mr 3,31
.LVL32:
.LBE31:
	.loc 1 162 0
	lwz 28,8(1)
.LVL33:
	mtlr 0
	lwz 29,12(1)
.LVL34:
	lwz 30,16(1)
.LVL35:
	lwz 31,20(1)
	addi 1,1,24
	.cfi_remember_state
	.cfi_restore 28
	.cfi_restore 29
	.cfi_restore 30
	.cfi_restore 31
.LCFI15:
	.cfi_def_cfa_offset 0
	blr
.LVL36:
.L33:
.LCFI16:
	.cfi_restore_state
.LBB32:
	.loc 1 142 0
	lis 9,connection@ha
	lwz 29,connection@l(9)
.LVL37:
	b .L25
.LBE32:
	.cfi_endproc
.LFE1385:
	.size	_Z12network_readiPhj, .-_Z12network_readiPhj
	.align 2
	.globl _Z16download_requestPKcPc
	.type	_Z16download_requestPKcPc, @function
_Z16download_requestPKcPc:
.LFB1386:
	.loc 1 168 0
	.cfi_startproc
	.cfi_personality 0,__gxx_personality_v0
	.cfi_lsda 0,.LLSDA1386
.LVL38:
	stwu 1,-40(1)
.LCFI17:
	.cfi_def_cfa_offset 40
	mflr 0
.LBB33:
	.loc 1 171 0
	li 5,7
.LBE33:
	.loc 1 168 0
	stw 27,20(1)
	mr 27,4
	.cfi_offset 27, -20
	.cfi_register 65, 0
.LBB34:
	.loc 1 171 0
	lis 4,.LC5@ha
.LVL39:
.LBE34:
	.loc 1 168 0
	stw 31,36(1)
.LBB35:
	.loc 1 171 0
	la 4,.LC5@l(4)
.LBE35:
	.loc 1 168 0
	mr 31,1
	.cfi_offset 31, -4
.LCFI18:
	.cfi_def_cfa_register 31
	stw 30,32(1)
	mr 30,3
	.cfi_offset 30, -8
	stw 0,44(1)
	stw 24,8(1)
	stw 25,12(1)
	stw 26,16(1)
	stw 28,24(1)
	stw 29,28(1)
.LBB36:
	.loc 1 171 0
	.cfi_offset 29, -12
	.cfi_offset 28, -16
	.cfi_offset 26, -24
	.cfi_offset 25, -28
	.cfi_offset 24, -32
	.cfi_offset 65, 4
	bl strncmp
.LVL40:
	cmpwi 7,3,0
	bne- 7,.L41
	.loc 1 177 0
	addi 29,30,7
	li 4,47
	mr 3,29
	bl strchr
.LVL41:
	.loc 1 180 0
	mr. 28,3
	beq- 0,.L41
	.loc 1 186 0
	subf 5,30,28
.LVL42:
	.loc 1 188 0
	cmpwi 7,5,7
	beq- 7,.L41
.LVL43:
	.loc 1 193 0
	addi 0,5,24
	lwz 9,0(1)
	rlwinm 0,0,0,0,27
	.loc 1 194 0
	mr 4,29
	.loc 1 193 0
	neg 0,0
	.loc 1 194 0
	addi 5,5,-6
.LVL44:
	.loc 1 193 0
	stwux 9,1,0
	addi 29,1,23
	rlwinm 29,29,0,0,27
.LVL45:
	.loc 1 194 0
	mr 3,29
.LVL46:
.LEHB0:
	bl strlcpy
.LVL47:
	.loc 1 196 0
	mr 3,29
	bl GetConnection
	.loc 1 197 0
	cmpwi 7,3,0
	.loc 1 196 0
	lis 26,connection@ha
	stw 3,connection@l(26)
	.loc 1 197 0
	blt- 7,.L41
	.loc 1 203 0
	mr 3,28
	bl strlen
	mr 25,3
	mr 3,29
	bl strlen
	mr 24,3
	mr 3,30
	bl strlen
.LVL48:
	add 0,24,25
	add 3,0,3
.LVL49:
	lwz 9,0(1)
	addi 0,3,130
	.loc 1 204 0
	lis 4,.LC6@ha
	.loc 1 203 0
	rlwinm 0,0,0,0,27
	.loc 1 204 0
	la 4,.LC6@l(4)
	.loc 1 203 0
	neg 0,0
	.loc 1 204 0
	mr 5,28
	.loc 1 203 0
	stwux 9,1,0
	.loc 1 204 0
	mr 6,29
	mr 7,30
	.loc 1 203 0
	addi 25,1,23
	rlwinm 25,25,0,0,27
.LVL50:
	.loc 1 204 0
	mr 3,25
	crxor 6,6,6
	bl sprintf
	.loc 1 206 0
	lwz 3,connection@l(26)
	mr 4,25
	mr 5,27
	bl _Z15network_requestiPKcPc
.LEHE0:
.LBE36:
	.loc 1 209 0
	addi 11,31,40
	lwz 0,4(11)
	lwz 24,-32(11)
	mtlr 0
	lwz 25,-28(11)
.LVL51:
	lwz 26,-24(11)
	lwz 27,-20(11)
.LVL52:
	lwz 28,-16(11)
.LVL53:
	lwz 29,-12(11)
.LVL54:
	lwz 30,-8(11)
.LVL55:
	lwz 31,-4(11)
	.cfi_remember_state
.LCFI19:
	.cfi_def_cfa 11, 0
	mr 1,11
.LCFI20:
	.cfi_def_cfa_register 1
	.cfi_restore 31
	.cfi_restore 30
	.cfi_restore 29
	.cfi_restore 28
	.cfi_restore 27
	.cfi_restore 26
	.cfi_restore 25
	.cfi_restore 24
	blr
.LVL56:
.L41:
.LCFI21:
	.cfi_restore_state
	addi 11,31,40
.LBB37:
	.loc 1 199 0
	li 3,-1
.LBE37:
	.loc 1 209 0
	lwz 0,4(11)
	lwz 24,-32(11)
	mtlr 0
	lwz 25,-28(11)
	lwz 26,-24(11)
	lwz 27,-20(11)
.LVL57:
	lwz 28,-16(11)
	lwz 29,-12(11)
	lwz 30,-8(11)
.LVL58:
	lwz 31,-4(11)
	.cfi_remember_state
.LCFI22:
	.cfi_def_cfa 11, 0
	mr 1,11
	.cfi_restore 24
	.cfi_restore 25
	.cfi_restore 26
	.cfi_restore 27
	.cfi_restore 28
	.cfi_restore 29
	.cfi_restore 30
	.cfi_restore 31
.LCFI23:
	.cfi_def_cfa_register 1
	blr
.LVL59:
.L42:
.LCFI24:
	.cfi_restore_state
.LEHB1:
.LBB38:
	.loc 1 206 0
	bl _Unwind_Resume
.LEHE1:
.LBE38:
	.cfi_endproc
.LFE1386:
	.globl __gxx_personality_v0
	.section	.gcc_except_table,"a",@progbits
.LLSDA1386:
	.byte	0xff
	.byte	0xff
	.byte	0x1
	.uleb128 .LLSDACSE1386-.LLSDACSB1386
.LLSDACSB1386:
	.uleb128 .LEHB0-.LFB1386
	.uleb128 .LEHE0-.LEHB0
	.uleb128 .L42-.LFB1386
	.uleb128 0
	.uleb128 .LEHB1-.LFB1386
	.uleb128 .LEHE1-.LEHB1
	.uleb128 0
	.uleb128 0
.LLSDACSE1386:
	.section	".text"
	.size	_Z16download_requestPKcPc, .-_Z16download_requestPKcPc
	.align 2
	.globl _Z12HEAD_RequestPKc
	.type	_Z12HEAD_RequestPKc, @function
_Z12HEAD_RequestPKc:
.LFB1387:
	.loc 1 215 0
	.cfi_startproc
	.cfi_personality 0,__gxx_personality_v0
	.cfi_lsda 0,.LLSDA1387
.LVL60:
	stwu 1,-32(1)
.LCFI25:
	.cfi_def_cfa_offset 32
	mflr 0
.LBB52:
	.loc 1 216 0
	lis 4,.LC5@ha
	li 5,7
.LBE52:
	.loc 1 215 0
	stw 31,28(1)
.LBB77:
	.loc 1 216 0
	la 4,.LC5@l(4)
.LBE77:
	.loc 1 215 0
	mr 31,1
	.cfi_offset 31, -4
	.cfi_register 65, 0
.LCFI26:
	.cfi_def_cfa_register 31
	stw 27,12(1)
	stw 29,20(1)
	mr 29,3
	.cfi_offset 29, -12
	.cfi_offset 27, -20
	stw 0,36(1)
	stw 26,8(1)
	stw 28,16(1)
	stw 30,24(1)
.LBB78:
	.loc 1 216 0
	.cfi_offset 30, -8
	.cfi_offset 28, -16
	.cfi_offset 26, -24
	.cfi_offset 65, 4
	bl strncmp
.LVL61:
	mr. 27,3
	bne- 0,.L75
	.loc 1 221 0
	addi 28,29,7
	li 4,47
	mr 3,28
	bl strchr
.LVL62:
	.loc 1 223 0
	mr. 30,3
	beq- 0,.L76
	.loc 1 229 0
	subf 29,29,30
.LVL63:
	.loc 1 231 0
	addic. 26,29,-7
	beq- 0,.L77
.LVL64:
	.loc 1 237 0
	addi 29,29,24
.LVL65:
	lwz 0,0(1)
	rlwinm 29,29,0,0,27
.LVL66:
	.loc 1 238 0
	mr 4,28
	.loc 1 237 0
	neg 29,29
	.loc 1 238 0
	mr 5,26
	.loc 1 237 0
	stwux 0,1,29
	addi 28,1,23
.LVL67:
	rlwinm 28,28,0,0,27
.LVL68:
	.loc 1 238 0
	mr 3,28
.LVL69:
	bl strncpy
.LVL70:
	.loc 1 239 0
	stbx 27,28,26
	.loc 1 241 0
	mr 3,28
.LEHB2:
	bl GetConnection
	.loc 1 242 0
	cmpwi 7,3,0
	.loc 1 241 0
	lis 29,connection@ha
	stw 3,connection@l(29)
	.loc 1 242 0
	blt- 7,.L78
	.loc 1 248 0
	mr 3,30
	bl strlen
	mr 27,3
	mr 3,28
	bl strlen
.LVL71:
	lwz 9,0(1)
	slwi 3,3,1
.LVL72:
	.loc 1 249 0
	mr 6,28
	.loc 1 248 0
	add 27,3,27
	.loc 1 249 0
	lis 4,.LC11@ha
	.loc 1 248 0
	addi 0,27,180
	.loc 1 249 0
	la 4,.LC11@l(4)
	.loc 1 248 0
	rlwinm 0,0,0,0,27
	.loc 1 249 0
	mr 5,30
	.loc 1 248 0
	neg 0,0
	.loc 1 249 0
	mr 7,6
	.loc 1 248 0
	stwux 9,1,0
	addi 28,1,23
.LVL73:
	rlwinm 28,28,0,0,27
.LVL74:
	.loc 1 249 0
	mr 3,28
	crxor 6,6,6
	bl sprintf
.LVL75:
	.loc 1 252 0
	mr 3,28
	bl strlen
	mr 4,28
	mr 5,3
	lwz 3,connection@l(29)
	li 6,0
	bl net_send
.LVL76:
	.loc 1 253 0
	cmpwi 7,3,0
	blt- 7,.L79
.LVL77:
	.loc 1 260 0
	li 3,1024
.LVL78:
	lis 28,.LC0@ha
.LVL79:
	bl malloc
	.loc 1 261 0
	li 4,0
	.loc 1 260 0
	mr 30,3
.LVL80:
	.loc 1 261 0
	li 5,1024
	bl memset
.LVL81:
	mr 27,30
	.loc 1 214 0
	addi 26,30,1024
.LVL82:
	la 28,.LC0@l(28)
.LVL83:
.L51:
	.loc 1 263 0 discriminator 1
	mr 3,30
	mr 4,28
	bl strstr
	cmpwi 7,3,0
	.loc 1 265 0 discriminator 1
	lwz 3,connection@l(29)
	.loc 1 263 0 discriminator 1
	beq- 7,.L80
.L54:
.LBB53:
.LBB54:
	.loc 1 280 0
	cmpwi 7,3,-1
	beq- 7,.L81
	.loc 1 286 0
	bl net_close
	.loc 1 288 0
	lis 29,.LANCHOR0@ha
	la 29,.LANCHOR0@l(29)
	lbz 0,70(29)
	cmpwi 7,0,0
	beq+ 7,.L45
	b .L74
.LVL84:
.L77:
.LBE54:
.LBE53:
	.loc 1 233 0
	lis 3,.LC9@ha
.LVL85:
	la 3,.LC9@l(3)
	crxor 6,6,6
	bl gprintf
.LVL86:
.L69:
	.loc 1 245 0
	li 30,0
.L45:
.LBE78:
	.loc 1 276 0
	addi 11,31,32
	mr 3,30
	lwz 0,4(11)
	lwz 26,-24(11)
	mtlr 0
	lwz 27,-20(11)
	lwz 28,-16(11)
	lwz 29,-12(11)
	lwz 30,-8(11)
	lwz 31,-4(11)
	.cfi_remember_state
.LCFI27:
	.cfi_def_cfa 11, 0
	mr 1,11
.LCFI28:
	.cfi_def_cfa_register 1
	.cfi_restore 31
	.cfi_restore 30
	.cfi_restore 29
	.cfi_restore 28
	.cfi_restore 27
	.cfi_restore 26
	blr
.LVL87:
.L75:
.LCFI29:
	.cfi_restore_state
.LBB79:
	.loc 1 218 0
	lis 3,.LC7@ha
	la 3,.LC7@l(3)
	crxor 6,6,6
	bl gprintf
	b .L69
.LVL88:
.L79:
.LBB62:
.LBB63:
	.loc 1 280 0
	lwz 3,connection@l(29)
.LVL89:
	cmpwi 7,3,-1
	beq- 7,.L82
	.loc 1 286 0
	bl net_close
	.loc 1 288 0
	lis 29,.LANCHOR0@ha
	.loc 1 256 0
	li 30,0
.LVL90:
	.loc 1 288 0
	la 29,.LANCHOR0@l(29)
	lbz 0,70(29)
	cmpwi 7,0,0
	beq+ 7,.L45
.LVL91:
.L74:
.LBE63:
.LBE62:
.LBB65:
.LBB59:
.LBB55:
.LBB56:
	.loc 1 290 0
	lwz 3,72(29)
	bl net_close
	.loc 1 291 0
	li 0,0
	stb 0,70(29)
	b .L45
.LVL92:
.L80:
.LBE56:
.LBE55:
.LBE59:
.LBE65:
	.loc 1 263 0 discriminator 2
	cmpw 7,27,26
	beq- 7,.L54
	.loc 1 265 0 discriminator 5
	mr 4,27
	li 5,1
	li 6,0
	bl net_recv
	cmpwi 7,3,0
	.loc 1 263 0 discriminator 5
	addi 27,27,1
	.loc 1 265 0 discriminator 5
	bgt+ 7,.L51
.LBB66:
.LBB67:
	.loc 1 280 0
	lwz 3,connection@l(29)
	cmpwi 7,3,-1
	beq- 7,.L83
	.loc 1 286 0
	bl net_close
	.loc 1 288 0
	lis 29,.LANCHOR0@ha
	la 29,.LANCHOR0@l(29)
	lbz 0,70(29)
	cmpwi 7,0,0
	bne- 7,.L84
.L53:
.LBE67:
.LBE66:
	.loc 1 268 0
	mr 3,30
	.loc 1 269 0
	li 30,0
.LVL93:
	.loc 1 268 0
	bl free
.LVL94:
	b .L45
.LVL95:
.L78:
	.loc 1 244 0
	lis 3,.LC10@ha
	la 3,.LC10@l(3)
	crxor 6,6,6
	bl gprintf
	b .L69
.LVL96:
.L82:
.LBB72:
.LBB64:
	.loc 1 282 0
	lis 9,.LANCHOR0@ha
	li 0,0
	la 9,.LANCHOR0@l(9)
	.loc 1 256 0
	li 30,0
.LVL97:
	.loc 1 282 0
	stb 0,70(9)
	b .L45
.LVL98:
.L84:
.LBE64:
.LBE72:
.LBB73:
.LBB70:
.LBB68:
.LBB69:
	.loc 1 290 0
	lwz 3,72(29)
	bl net_close
	.loc 1 291 0
	li 0,0
	stb 0,70(29)
	b .L53
.LVL99:
.L76:
.LBE69:
.LBE68:
.LBE70:
.LBE73:
	.loc 1 225 0
	lis 3,.LC8@ha
.LVL100:
	la 3,.LC8@l(3)
	crxor 6,6,6
	bl gprintf
.LEHE2:
	b .L69
.LVL101:
.L81:
.LBB74:
.LBB60:
	.loc 1 282 0
	lis 9,.LANCHOR0@ha
	li 0,0
	la 9,.LANCHOR0@l(9)
	stb 0,70(9)
	b .L45
.L83:
.LBE60:
.LBE74:
.LBB75:
.LBB71:
	lis 9,.LANCHOR0@ha
	li 0,0
	la 9,.LANCHOR0@l(9)
	stb 0,70(9)
	b .L53
.LVL102:
.L64:
.LEHB3:
.LBE71:
.LBE75:
.LBB76:
.LBB61:
.LBB58:
.LBB57:
	.loc 1 291 0
	bl _Unwind_Resume
.LEHE3:
.LBE57:
.LBE58:
.LBE61:
.LBE76:
.LBE79:
	.cfi_endproc
.LFE1387:
	.section	.gcc_except_table
.LLSDA1387:
	.byte	0xff
	.byte	0xff
	.byte	0x1
	.uleb128 .LLSDACSE1387-.LLSDACSB1387
.LLSDACSB1387:
	.uleb128 .LEHB2-.LFB1387
	.uleb128 .LEHE2-.LEHB2
	.uleb128 .L64-.LFB1387
	.uleb128 0
	.uleb128 .LEHB3-.LFB1387
	.uleb128 .LEHE3-.LEHB3
	.uleb128 0
	.uleb128 0
.LLSDACSE1387:
	.section	".text"
	.size	_Z12HEAD_RequestPKc, .-_Z12HEAD_RequestPKc
	.align 2
	.globl _Z15CloseConnectionv
	.type	_Z15CloseConnectionv, @function
_Z15CloseConnectionv:
.LFB1388:
	.loc 1 279 0
	.cfi_startproc
	.loc 1 280 0
	lis 9,connection@ha
	.loc 1 279 0
	mflr 0
	.loc 1 280 0
	lwz 3,connection@l(9)
	.loc 1 279 0
	stwu 1,-16(1)
.LCFI30:
	.cfi_def_cfa_offset 16
	.cfi_register 65, 0
	.loc 1 280 0
	cmpwi 7,3,-1
	.loc 1 279 0
	stw 0,20(1)
	stw 31,12(1)
	.loc 1 280 0
	beq- 7,.L88
	.cfi_offset 31, -4
	.cfi_offset 65, 4
	.loc 1 288 0
	lis 31,.LANCHOR0@ha
	.loc 1 286 0
	bl net_close
	.loc 1 288 0
	la 31,.LANCHOR0@l(31)
	lbz 0,70(31)
	cmpwi 7,0,0
	bne- 7,.L89
	.loc 1 293 0
	lwz 0,20(1)
	lwz 31,12(1)
	mtlr 0
	addi 1,1,16
	.cfi_remember_state
.LCFI31:
	.cfi_def_cfa_offset 0
	.cfi_restore 31
	blr
.L89:
.LCFI32:
	.cfi_restore_state
.LBB82:
.LBB83:
	.loc 1 290 0
	lwz 3,72(31)
	bl net_close
	.loc 1 291 0
	li 0,0
	stb 0,70(31)
.LBE83:
.LBE82:
	.loc 1 293 0
	lwz 0,20(1)
	lwz 31,12(1)
	mtlr 0
	addi 1,1,16
	.cfi_remember_state
	.cfi_restore 31
.LCFI33:
	.cfi_def_cfa_offset 0
	blr
.L88:
.LCFI34:
	.cfi_restore_state
	.loc 1 282 0
	lis 9,.LANCHOR0@ha
	li 0,0
	la 9,.LANCHOR0@l(9)
	.loc 1 293 0
	lwz 31,12(1)
	.loc 1 282 0
	stb 0,70(9)
	.loc 1 293 0
	lwz 0,20(1)
	addi 1,1,16
	.cfi_restore 31
.LCFI35:
	.cfi_def_cfa_offset 0
	mtlr 0
	blr
	.cfi_endproc
.LFE1388:
	.size	_Z15CloseConnectionv, .-_Z15CloseConnectionv
	.globl __floatundisf
	.align 2
	.globl _Z15CheckConnectionPKcf
	.type	_Z15CheckConnectionPKcf, @function
_Z15CheckConnectionPKcf:
.LFB1389:
	.loc 1 299 0
	.cfi_startproc
	.cfi_personality 0,__gxx_personality_v0
	.cfi_lsda 0,.LLSDA1389
.LVL103:
	stwu 1,-56(1)
.LCFI36:
	.cfi_def_cfa_offset 56
	mflr 0
.LBB84:
	.loc 1 301 0
	lis 4,.LC5@ha
	li 5,7
.LBE84:
	.loc 1 299 0
	stw 31,44(1)
.LBB89:
	.loc 1 301 0
	la 4,.LC5@l(4)
.LBE89:
	.loc 1 299 0
	mr 31,1
	.cfi_offset 31, -12
	.cfi_register 65, 0
.LCFI37:
	.cfi_def_cfa_register 31
	stfd 31,48(1)
	stw 30,40(1)
	fmr 31,1
	.cfi_offset 30, -16
	.cfi_offset 63, -8
	stw 0,60(1)
	mr 30,3
	stw 26,24(1)
	stw 27,28(1)
	stw 29,36(1)
.LBB90:
	.loc 1 301 0
	.cfi_offset 29, -20
	.cfi_offset 27, -28
	.cfi_offset 26, -32
	.cfi_offset 65, 4
	bl strncmp
.LVL104:
	cmpwi 7,3,0
	bne- 7,.L102
	.loc 1 305 0
	addi 29,30,7
	li 4,47
	mr 3,29
	bl strchr
.LVL105:
	.loc 1 308 0
	cmpwi 0,3,0
	beq- 0,.L102
	.loc 1 312 0
	subf 5,30,3
.LVL106:
	.loc 1 314 0
	li 3,0
.LVL107:
	.loc 1 313 0
	cmpwi 7,5,7
	bne- 7,.L114
.LVL108:
.L91:
.LBE90:
	.loc 1 349 0
	addi 11,31,56
	lwz 0,4(11)
	lwz 26,-32(11)
	mtlr 0
	lwz 27,-28(11)
	lwz 29,-20(11)
	lwz 30,-16(11)
	lwz 31,-12(11)
	.cfi_remember_state
.LCFI38:
	.cfi_def_cfa 11, 0
	lfd 31,-8(11)
.LVL109:
	mr 1,11
.LCFI39:
	.cfi_def_cfa_register 1
	.cfi_restore 63
	.cfi_restore 31
	.cfi_restore 30
	.cfi_restore 29
	.cfi_restore 27
	.cfi_restore 26
	blr
.LVL110:
.L114:
.LCFI40:
	.cfi_restore_state
.LBB91:
	.loc 1 316 0
	addi 0,5,24
	lwz 9,0(1)
	rlwinm 0,0,0,0,27
	.loc 1 317 0
	mr 4,29
	.loc 1 316 0
	neg 0,0
	.loc 1 317 0
	addi 5,5,-6
.LVL111:
	.loc 1 316 0
	stwux 9,1,0
	addi 30,1,23
.LVL112:
	rlwinm 30,30,0,0,27
.LVL113:
	.loc 1 317 0
	mr 3,30
.LEHB4:
	bl strlcpy
.LVL114:
	.loc 1 320 0
	mr 3,30
	bl getipbynamecached
.LVL115:
	.loc 1 321 0
	cmpwi 7,3,0
	.loc 1 322 0
	li 3,0
.LVL116:
	.loc 1 321 0
	beq+ 7,.L91
	.loc 1 325 0
	li 3,2
	li 4,1
	li 5,0
	bl net_socket
.LVL117:
	.loc 1 326 0
	mr. 29,3
.LVL118:
	blt- 0,.L105
	.loc 1 328 0
	li 4,3
	li 5,0
	bl net_fcntl
.LVL119:
	.loc 1 329 0
	mr. 5,3
	blt- 0,.L92
	.loc 1 329 0 is_stmt 0 discriminator 1
	mr 3,29
.LVL120:
	li 4,4
	ori 5,5,4
.LVL121:
	bl net_fcntl
.L92:
	.loc 1 332 0 is_stmt 1
	li 0,0
	.loc 1 335 0
	mr 3,30
	.loc 1 332 0
	stw 0,8(31)
	stw 0,12(31)
	stw 0,16(31)
	stw 0,20(31)
	.loc 1 333 0
	li 0,2
	stb 0,9(31)
	.loc 1 334 0
	li 0,80
	sth 0,10(31)
	.loc 1 335 0
	bl getipbynamecached
	stw 3,12(31)
.LVL122:
.LBB85:
.LBB86:
	.file 2 "d:/Projects/SaveGameManager/savegame-manager-gx/trunk/source/Network/../Tools/timer.h"
	.loc 2 57 0
	bl gettime
.LEHE4:
	.loc 2 57 0 is_stmt 0 discriminator 1
	mr 27,4
	mr 26,3
	li 30,-1
.LVL123:
.L93:
.LEHB5:
.LBE86:
.LBE85:
.LBB87:
.LBB88:
	.loc 2 59 0 is_stmt 1
	bl gettime
	subfc 4,27,4
	subfe 3,26,3
	bl __floatundisf
	lis 9,.LC12@ha
	lfs 0,.LC12@l(9)
	fdivs 0,1,0
.LBE88:
.LBE87:
	.loc 1 340 0
	fcmpu 7,31,0
	bng- 7,.L94
	.loc 1 342 0 discriminator 6
	mr 3,29
	addi 4,31,8
	li 5,16
	bl net_connect
	mr 30,3
.LVL124:
	.loc 1 343 0 discriminator 6
	li 3,1000
.LVL125:
	bl usleep
	.loc 1 340 0 discriminator 1
	cmpwi 7,30,0
	blt- 7,.L115
.LVL126:
.L94:
	.loc 1 346 0
	mr 3,29
	bl net_close
.LEHE5:
	.loc 1 348 0
	cmpwi 7,30,0
	li 3,1
	bge+ 7,.L91
	.loc 1 348 0 is_stmt 0 discriminator 2
	addi 3,30,127
	cntlzw 3,3
	srwi 3,3,5
	b .L91
.LVL127:
.L102:
.LBE91:
	.loc 1 349 0 is_stmt 1
	addi 11,31,56
.LBB92:
	.loc 1 309 0
	li 3,0
.LBE92:
	.loc 1 349 0
	lwz 0,4(11)
	lwz 26,-32(11)
	mtlr 0
	lwz 27,-28(11)
	lwz 29,-20(11)
	lwz 30,-16(11)
.LVL128:
	lwz 31,-12(11)
	.cfi_remember_state
.LCFI41:
	.cfi_def_cfa 11, 0
	lfd 31,-8(11)
.LVL129:
	mr 1,11
	.cfi_restore 26
	.cfi_restore 27
	.cfi_restore 29
	.cfi_restore 30
	.cfi_restore 31
	.cfi_restore 63
.LCFI42:
	.cfi_def_cfa_register 1
	blr
.LVL130:
.L115:
.LCFI43:
	.cfi_restore_state
.LBB93:
	.loc 1 340 0 discriminator 2
	cmpwi 7,30,-127
	bne- 7,.L93
	b .L94
.LVL131:
.L105:
	.loc 1 326 0
	li 3,1
	b .L91
.LVL132:
.L110:
.L99:
.LEHB6:
	.loc 1 348 0
	bl _Unwind_Resume
.LEHE6:
.LVL133:
.L109:
	b .L99
.LBE93:
	.cfi_endproc
.LFE1389:
	.section	.gcc_except_table
.LLSDA1389:
	.byte	0xff
	.byte	0xff
	.byte	0x1
	.uleb128 .LLSDACSE1389-.LLSDACSB1389
.LLSDACSB1389:
	.uleb128 .LEHB4-.LFB1389
	.uleb128 .LEHE4-.LEHB4
	.uleb128 .L109-.LFB1389
	.uleb128 0
	.uleb128 .LEHB5-.LFB1389
	.uleb128 .LEHE5-.LEHB5
	.uleb128 .L110-.LFB1389
	.uleb128 0
	.uleb128 .LEHB6-.LFB1389
	.uleb128 .LEHE6-.LEHB6
	.uleb128 0
	.uleb128 0
.LLSDACSE1389:
	.section	".text"
	.size	_Z15CheckConnectionPKcf, .-_Z15CheckConnectionPKcf
	.align 2
	.globl _Z20DownloadWithResponsePKcPPhPj
	.type	_Z20DownloadWithResponsePKcPPhPj, @function
_Z20DownloadWithResponsePKcPPhPj:
.LFB1390:
	.loc 1 355 0
	.cfi_startproc
	.cfi_personality 0,__gxx_personality_v0
	.cfi_lsda 0,.LLSDA1390
.LVL134:
	stwu 1,-48(1)
.LCFI44:
	.cfi_def_cfa_offset 48
	mflr 0
	stw 25,20(1)
	mr 25,4
	.cfi_offset 25, -28
	.cfi_register 65, 0
.LBB99:
	.loc 1 357 0
	lis 4,.LC5@ha
.LVL135:
.LBE99:
	.loc 1 355 0
	stw 24,16(1)
	stw 31,44(1)
	mr 24,5
	.cfi_offset 31, -4
	.cfi_offset 24, -32
	mr 31,1
.LCFI45:
	.cfi_def_cfa_register 31
.LBB104:
	.loc 1 357 0
	la 4,.LC5@l(4)
	li 5,7
.LVL136:
.LBE104:
	.loc 1 355 0
	stw 30,40(1)
	stw 0,52(1)
	mr 30,3
	.cfi_offset 65, 4
	.cfi_offset 30, -8
	stw 23,12(1)
	stw 26,24(1)
	stw 27,28(1)
	stw 28,32(1)
	stw 29,36(1)
.LBB105:
	.loc 1 357 0
	.cfi_offset 29, -12
	.cfi_offset 28, -16
	.cfi_offset 27, -20
	.cfi_offset 26, -24
	.cfi_offset 23, -36
	bl strncmp
.LVL137:
	cmpwi 7,3,0
	bne- 7,.L141
	.loc 1 361 0
	addi 29,30,7
	li 4,47
	mr 3,29
	bl strchr
.LVL138:
	.loc 1 364 0
	mr. 27,3
	beq- 0,.L141
	.loc 1 368 0
	subf 5,30,27
.LVL139:
	.loc 1 370 0
	cmpwi 7,5,7
	beq- 7,.L141
.LVL140:
	.loc 1 373 0
	addi 0,5,24
	lwz 9,0(1)
	rlwinm 0,0,0,0,27
	.loc 1 374 0
	mr 4,29
	.loc 1 373 0
	neg 0,0
	.loc 1 374 0
	addi 5,5,-6
.LVL141:
	.loc 1 373 0
	stwux 9,1,0
	addi 29,1,23
	rlwinm 29,29,0,0,27
.LVL142:
	.loc 1 374 0
	mr 3,29
.LVL143:
.LEHB7:
	bl strlcpy
.LVL144:
	.loc 1 376 0
	mr 3,29
	bl GetConnection
.LVL145:
	.loc 1 377 0
	mr. 28,3
	blt- 0,.L141
	.loc 1 381 0
	mr 3,27
.LVL146:
	bl strlen
	mr 26,3
	mr 3,29
	bl strlen
	mr 23,3
	mr 3,30
	bl strlen
.LVL147:
	add 0,23,26
	add 3,0,3
.LVL148:
	lwz 9,0(1)
	addi 0,3,130
	.loc 1 382 0
	lis 4,.LC6@ha
	.loc 1 381 0
	rlwinm 0,0,0,0,27
	.loc 1 382 0
	mr 6,29
	.loc 1 381 0
	neg 0,0
	.loc 1 382 0
	la 4,.LC6@l(4)
	.loc 1 381 0
	stwux 9,1,0
	.loc 1 382 0
	mr 5,27
	mr 7,30
	.loc 1 381 0
	addi 26,1,23
	rlwinm 26,26,0,0,27
.LVL149:
	.loc 1 382 0
	mr 3,26
	crxor 6,6,6
	bl sprintf
	.loc 1 384 0
	mr 3,26
	bl strlen
	mr 4,26
	mr 5,3
	li 6,0
	mr 3,28
	bl net_send
.LVL150:
	.loc 1 385 0
	mr. 30,3
.LVL151:
	blt- 0,.L146
.LVL152:
	.loc 1 393 0
	li 3,4096
.LVL153:
	.loc 1 394 0
	li 27,0
.LVL154:
	.loc 1 393 0
	bl malloc
.LVL155:
	.loc 1 394 0
	mr. 26,3
.LVL156:
	beq- 0,.L145
.LVL157:
.L138:
.LBB100:
	.loc 1 404 0
	add 29,26,27
.LVL158:
	.loc 1 144 0
	li 30,0
.LVL159:
.L122:
.LBB101:
.LBB102:
.LBB103:
	.loc 1 151 0
	mr 3,28
	add 4,29,30
	subfic 5,30,4096
	bl net_read
.LVL160:
	.loc 1 152 0
	cmpwi 0,3,0
	blt- 0,.L143
	.loc 1 155 0
	beq- 0,.L121
	.loc 1 158 0
	add 30,30,3
.LVL161:
	.loc 1 148 0
	cmplwi 7,30,4095
	ble+ 7,.L122
.LVL162:
.L121:
.LBE103:
.LBE102:
.LBE101:
	.loc 1 406 0
	cmpwi 7,30,0
	blt- 7,.L143
	.loc 1 412 0
	beq- 7,.L124
	.loc 1 415 0
	add 27,27,30
.LVL163:
	.loc 1 416 0
	mr 3,26
.LVL164:
	addi 4,27,4096
	bl realloc
.LVL165:
	.loc 1 417 0
	cmpwi 0,3,0
	beq- 0,.L143
	.loc 1 424 0
	mr 26,3
.LVL166:
	b .L138
.LVL167:
.L143:
	.loc 1 419 0
	mr 3,26
	bl free
.LVL168:
.L145:
	.loc 1 420 0
	mr 3,28
	bl net_close
.LVL169:
.L141:
	.loc 1 421 0
	li 30,-1
.L117:
.LBE100:
.LBE105:
	.loc 1 443 0
	addi 11,31,48
	mr 3,30
	lwz 0,4(11)
	lwz 23,-36(11)
	mtlr 0
	lwz 24,-32(11)
.LVL170:
	lwz 25,-28(11)
.LVL171:
	lwz 26,-24(11)
	lwz 27,-20(11)
	lwz 28,-16(11)
	lwz 29,-12(11)
	lwz 30,-8(11)
	lwz 31,-4(11)
	.cfi_remember_state
.LCFI46:
	.cfi_def_cfa 11, 0
	mr 1,11
.LCFI47:
	.cfi_def_cfa_register 1
	.cfi_restore 31
	.cfi_restore 30
	.cfi_restore 29
	.cfi_restore 28
	.cfi_restore 27
	.cfi_restore 26
	.cfi_restore 25
	.cfi_restore 24
	.cfi_restore 23
	blr
.LVL172:
.L146:
.LCFI48:
	.cfi_restore_state
.LBB106:
	.loc 1 387 0
	mr 3,28
.LVL173:
	bl net_close
.LBE106:
	.loc 1 443 0
	addi 11,31,48
	mr 3,30
	lwz 0,4(11)
	lwz 23,-36(11)
	mtlr 0
	lwz 24,-32(11)
.LVL174:
	lwz 25,-28(11)
.LVL175:
	lwz 26,-24(11)
.LVL176:
	lwz 27,-20(11)
.LVL177:
	lwz 28,-16(11)
.LVL178:
	lwz 29,-12(11)
.LVL179:
	lwz 30,-8(11)
.LVL180:
	lwz 31,-4(11)
	.cfi_remember_state
.LCFI49:
	.cfi_def_cfa 11, 0
	mr 1,11
	.cfi_restore 23
	.cfi_restore 24
	.cfi_restore 25
	.cfi_restore 26
	.cfi_restore 27
	.cfi_restore 28
	.cfi_restore 29
	.cfi_restore 30
	.cfi_restore 31
.LCFI50:
	.cfi_def_cfa_register 1
.LVL181:
	blr
.LVL182:
.L124:
.LCFI51:
	.cfi_restore_state
.LBB107:
	.loc 1 427 0
	mr 3,28
.LVL183:
	bl net_close
.LEHE7:
	.loc 1 429 0
	mr 3,26
	addi 4,27,1
	bl realloc
.LVL184:
	.loc 1 430 0
	cmpwi 0,3,0
	beq- 0,.L147
.LVL185:
	.loc 1 437 0
	li 0,0
	.loc 1 440 0
	mr 30,27
	.loc 1 437 0
	stbx 0,3,27
	.loc 1 439 0
	stw 3,0(25)
	.loc 1 440 0
	stw 27,0(24)
	b .L117
.LVL186:
.L147:
	.loc 1 432 0
	mr 3,26
.LVL187:
	.loc 1 433 0
	li 30,-1
	.loc 1 432 0
	bl free
	b .L117
.LVL188:
.L136:
.LEHB8:
	.loc 1 440 0
	bl _Unwind_Resume
.LEHE8:
.LBE107:
	.cfi_endproc
.LFE1390:
	.section	.gcc_except_table
.LLSDA1390:
	.byte	0xff
	.byte	0xff
	.byte	0x1
	.uleb128 .LLSDACSE1390-.LLSDACSB1390
.LLSDACSB1390:
	.uleb128 .LEHB7-.LFB1390
	.uleb128 .LEHE7-.LEHB7
	.uleb128 .L136-.LFB1390
	.uleb128 0
	.uleb128 .LEHB8-.LFB1390
	.uleb128 .LEHE8-.LEHB8
	.uleb128 0
	.uleb128 0
.LLSDACSE1390:
	.section	".text"
	.size	_Z20DownloadWithResponsePKcPPhPj, .-_Z20DownloadWithResponsePKcPPhPj
	.align 2
	.globl _Z11NetworkWaitv
	.type	_Z11NetworkWaitv, @function
_Z11NetworkWaitv:
.LFB1391:
	.loc 1 449 0
	.cfi_startproc
	mflr 0
	stwu 1,-72(1)
.LCFI52:
	.cfi_def_cfa_offset 72
	.cfi_register 65, 0
	stw 31,68(1)
.LBB108:
	.loc 1 450 0
	lis 31,.LANCHOR0@ha
	.cfi_offset 31, -4
.LBE108:
	.loc 1 449 0
	stw 0,76(1)
.LBB114:
	.loc 1 450 0
	la 31,.LANCHOR0@l(31)
.LBE114:
	.loc 1 449 0
	stw 30,64(1)
.LBB115:
	.loc 1 450 0
	li 30,-3
	.cfi_offset 30, -8
	.cfi_offset 65, 4
	lbz 0,76(31)
	cmpwi 7,0,0
	beq- 7,.L149
	.loc 1 454 0
	li 0,16
	.loc 1 457 0
	li 3,2
	li 4,1
	li 5,0
	.loc 1 454 0
	stw 0,8(1)
.LVL189:
	.loc 1 457 0
	bl net_socket
	.loc 1 459 0
	cmpwi 7,3,-1
	.loc 1 457 0
	stw 3,72(31)
	.loc 1 459 0
	li 30,-1
	beq- 7,.L149
	.loc 1 464 0
	li 0,2
	.loc 1 468 0
	addi 4,1,40
	.loc 1 464 0
	stb 0,41(1)
	.loc 1 465 0
	li 0,4299
	sth 0,42(1)
	.loc 1 468 0
	li 5,16
	.loc 1 466 0
	li 0,0
	stw 0,44(1)
	.loc 1 468 0
	bl net_bind
	cmpwi 7,3,0
	.loc 1 470 0
	lwz 3,72(31)
	.loc 1 468 0
	blt- 7,.L157
	.loc 1 474 0
	li 4,3
	bl net_listen
	cmpwi 7,3,0
	.loc 1 476 0
	lwz 3,72(31)
	.loc 1 474 0
	blt- 7,.L157
	.loc 1 480 0
	addi 4,1,24
	addi 5,1,8
	bl net_accept
	.loc 1 482 0
	lwz 0,28(1)
	mr 9,1
	.loc 1 480 0
	lis 30,connection@ha
	.loc 1 482 0
	stwu 0,56(9)
	.loc 1 480 0
	stw 3,connection@l(30)
	.loc 1 482 0
	mr 3,9
	bl inet_ntoa
	mr 4,3
	addi 3,31,20
	bl strcpy
.LBB109:
	.loc 1 484 0
	lwz 3,connection@l(30)
	cmpwi 7,3,0
	blt- 7,.L158
.LBB110:
	.loc 1 494 0
	addi 4,1,12
	li 5,8
	bl net_read
	.loc 1 495 0
	lbz 0,16(1)
	lis 9,wiiloadVersion@ha
	.loc 1 498 0
	lwz 3,connection@l(30)
	.loc 1 495 0
	stb 0,wiiloadVersion@l(9)
	.loc 1 498 0
	lis 4,infilesize@ha
	.loc 1 496 0
	lbz 0,17(1)
	.loc 1 495 0
	la 11,wiiloadVersion@l(9)
	.loc 1 498 0
	la 4,infilesize@l(4)
	li 5,4
	.loc 1 496 0
	stb 0,1(11)
	.loc 1 498 0
	bl net_read
	.loc 1 500 0
	lbz 0,16(1)
	cmpwi 7,0,0
	bne- 7,.L153
	.loc 1 500 0 is_stmt 0 discriminator 1
	lbz 0,17(1)
	cmplwi 7,0,4
	ble- 7,.L154
.L153:
	.loc 1 502 0 is_stmt 1
	lis 4,uncfilesize@ha
	lwz 3,connection@l(30)
	la 4,uncfilesize@l(4)
	li 5,4
	bl net_read
.L154:
	.loc 1 505 0
	li 9,0
	.loc 1 504 0
	li 0,1
	.loc 1 505 0
	stb 9,76(31)
	.loc 1 506 0
	lis 9,.LANCHOR1@ha
	.loc 1 504 0
	stb 0,70(31)
.LBE110:
.LBE109:
	.loc 1 509 0
	li 30,1
.LBB112:
.LBB111:
	.loc 1 506 0
	stb 0,.LANCHOR1@l(9)
.L149:
.LBE111:
.LBE112:
.LBE115:
	.loc 1 510 0
	lwz 0,76(1)
	mr 3,30
	lwz 31,68(1)
	mtlr 0
	lwz 30,64(1)
	addi 1,1,72
	.cfi_remember_state
.LCFI53:
	.cfi_def_cfa_offset 0
	.cfi_restore 31
	.cfi_restore 30
	blr
.L157:
.LCFI54:
	.cfi_restore_state
.LBB116:
	.loc 1 476 0
	bl net_close
	.loc 1 477 0
	b .L149
.L158:
.LBB113:
	.loc 1 486 0
	bl net_close
	.loc 1 487 0
	lwz 3,72(31)
	.loc 1 488 0
	li 30,-4
	.loc 1 487 0
	bl net_close
	.loc 1 488 0
	b .L149
.LBE113:
.LBE116:
	.cfi_endproc
.LFE1391:
	.size	_Z11NetworkWaitv, .-_Z11NetworkWaitv
	.align 2
	.type	_ZL19networkinitcallbackPv, @function
_ZL19networkinitcallbackPv:
.LFB1395:
	.loc 1 554 0
	.cfi_startproc
.LVL190:
	stwu 1,-32(1)
.LCFI55:
	.cfi_def_cfa_offset 32
	mflr 0
	stw 31,28(1)
	lis 31,.LANCHOR0@ha
	.cfi_offset 31, -4
	.cfi_register 65, 0
	stw 28,16(1)
	la 31,.LANCHOR0@l(31)
	stw 29,20(1)
	lis 28,Settings@ha
	.cfi_offset 29, -12
	.cfi_offset 28, -16
	lis 29,.LANCHOR1@ha
	stw 27,12(1)
	stw 0,36(1)
	la 29,.LANCHOR1@l(29)
	stw 30,24(1)
	addi 27,31,4
	.cfi_offset 30, -8
	.cfi_offset 65, 4
	.cfi_offset 27, -20
	la 28,Settings@l(28)
	b .L164
.LVL191:
.L161:
	.loc 1 562 0
	lhz 0,1316(28)
	neg 0,0
	srwi 0,0,31
	.loc 1 563 0
	cmpwi 7,0,0
	.loc 1 562 0
	stb 0,76(31)
	.loc 1 563 0
	beq- 7,.L163
	.loc 1 563 0 is_stmt 0 discriminator 1
	lbz 0,0(29)
	cmpwi 7,0,0
	bne- 7,.L165
.L163:
	.loc 1 565 0 is_stmt 1
	lis 3,0x1
	ori 3,3,34464
	bl usleep
.L164:
	.loc 1 557 0
	lbz 0,76(31)
	cmpwi 7,0,0
	bne- 7,.L160
	.loc 1 557 0 is_stmt 0 discriminator 1
	lbz 0,0(29)
	cmpwi 7,0,0
	bne- 7,.L166
.L160:
.LBB120:
.LBB121:
	.loc 1 40 0 is_stmt 1
	lbz 30,0(31)
	cmpwi 7,30,0
	bne+ 7,.L161
	.loc 1 44 0
	mr 3,27
	li 4,0
	li 5,0
	li 6,1
	bl if_config
.LVL192:
	.loc 1 46 0
	cmpwi 7,3,0
	blt- 7,.L167
	.loc 1 52 0
	li 0,1
	stb 0,0(31)
	b .L161
.LVL193:
.L166:
.LBE121:
.LBE120:
	.loc 1 558 0
	lwz 3,4(29)
	bl LWP_SuspendThread
	b .L160
.L165:
	.loc 1 563 0 discriminator 2
	bl _Z11NetworkWaitv
	b .L163
.LVL194:
.L167:
.LBB123:
.LBB122:
	.loc 1 48 0
	stb 30,0(31)
	b .L161
.LBE122:
.LBE123:
	.cfi_endproc
.LFE1395:
	.size	_ZL19networkinitcallbackPv, .-_ZL19networkinitcallbackPv
	.align 2
	.globl _Z17HaltNetworkThreadv
	.type	_Z17HaltNetworkThreadv, @function
_Z17HaltNetworkThreadv:
.LFB1392:
	.loc 1 516 0
	.cfi_startproc
	stwu 1,-24(1)
.LCFI56:
	.cfi_def_cfa_offset 24
	mflr 0
	stw 30,16(1)
	.loc 1 518 0
	lis 30,.LANCHOR0@ha
	.cfi_offset 30, -8
	.cfi_register 65, 0
	la 30,.LANCHOR0@l(30)
	.loc 1 516 0
	stw 0,28(1)
	.loc 1 520 0
	lbz 0,70(30)
	.cfi_offset 65, 4
	.loc 1 516 0
	stw 29,12(1)
	.loc 1 518 0
	li 29,0
	.cfi_offset 29, -12
	.loc 1 520 0
	cmpwi 7,0,0
	.loc 1 516 0
	stw 31,20(1)
	.loc 1 517 0
	li 0,1
	lis 31,.LANCHOR1@ha
	.cfi_offset 31, -4
	stb 0,.LANCHOR1@l(31)
	.loc 1 518 0
	stb 29,76(30)
	.loc 1 520 0
	bne- 7,.L175
.L178:
	la 31,.LANCHOR1@l(31)
	b .L176
.L172:
	.loc 1 524 0
	bl usleep
.L176:
	.loc 1 523 0 discriminator 1
	lwz 3,4(31)
	bl LWP_ThreadIsSuspended
	cmpwi 7,3,0
	.loc 1 524 0 discriminator 1
	li 3,100
	.loc 1 523 0 discriminator 1
	beq+ 7,.L172
	.loc 1 525 0
	lwz 0,28(1)
	lwz 29,12(1)
	mtlr 0
	lwz 30,16(1)
	lwz 31,20(1)
	addi 1,1,24
	.cfi_remember_state
.LCFI57:
	.cfi_def_cfa_offset 0
	.cfi_restore 31
	.cfi_restore 30
	.cfi_restore 29
	blr
.L175:
.LCFI58:
	.cfi_restore_state
.LBB128:
.LBB129:
	.loc 1 280 0
	lis 9,connection@ha
	lwz 3,connection@l(9)
	cmpwi 7,3,-1
	beq- 7,.L179
	.loc 1 286 0
	bl net_close
	.loc 1 288 0
	lbz 0,70(30)
	cmpwi 7,0,0
	beq+ 7,.L178
.LBB130:
.LBB131:
	.loc 1 290 0
	lwz 3,72(30)
	la 31,.LANCHOR1@l(31)
	bl net_close
	.loc 1 291 0
	stb 29,70(30)
	b .L176
.L179:
.LBE131:
.LBE130:
	.loc 1 282 0
	stb 29,70(30)
	la 31,.LANCHOR1@l(31)
	b .L176
.LBE129:
.LBE128:
	.cfi_endproc
.LFE1392:
	.size	_Z17HaltNetworkThreadv, .-_Z17HaltNetworkThreadv
	.align 2
	.globl _Z19ResumeNetworkThreadv
	.type	_Z19ResumeNetworkThreadv, @function
_Z19ResumeNetworkThreadv:
.LFB1393:
	.loc 1 531 0
	.cfi_startproc
	mflr 0
	.loc 1 532 0
	lis 9,.LANCHOR1@ha
	.loc 1 531 0
	stwu 1,-8(1)
.LCFI59:
	.cfi_def_cfa_offset 8
	.cfi_register 65, 0
	.loc 1 532 0
	la 11,.LANCHOR1@l(9)
	.loc 1 534 0
	lwz 3,4(11)
	.loc 1 531 0
	stw 0,12(1)
	.loc 1 532 0
	li 0,0
	.cfi_offset 65, 4
	stb 0,.LANCHOR1@l(9)
	.loc 1 534 0
	bl LWP_ResumeThread
	.loc 1 535 0
	lwz 0,12(1)
	addi 1,1,8
.LCFI60:
	.cfi_def_cfa_offset 0
	mtlr 0
	blr
	.cfi_endproc
.LFE1393:
	.size	_Z19ResumeNetworkThreadv, .-_Z19ResumeNetworkThreadv
	.align 2
	.globl _Z17ResumeNetworkWaitv
	.type	_Z17ResumeNetworkWaitv, @function
_Z17ResumeNetworkWaitv:
.LFB1394:
	.loc 1 541 0
	.cfi_startproc
	mflr 0
	stwu 1,-8(1)
.LCFI61:
	.cfi_def_cfa_offset 8
	.cfi_register 65, 0
	.loc 1 542 0
	lis 11,.LANCHOR1@ha
	la 9,.LANCHOR1@l(11)
	.loc 1 541 0
	stw 0,12(1)
	.loc 1 542 0
	li 0,1
	.cfi_offset 65, 4
	stb 0,.LANCHOR1@l(11)
	.loc 1 547 0
	lwz 3,4(9)
	.loc 1 543 0
	lis 9,.LANCHOR0@ha
	la 9,.LANCHOR0@l(9)
	stb 0,76(9)
	.loc 1 544 0
	stb 0,70(9)
	.loc 1 545 0
	li 0,0
	lis 9,infilesize@ha
	stw 0,infilesize@l(9)
	.loc 1 546 0
	li 0,-1
	lis 9,connection@ha
	stw 0,connection@l(9)
	.loc 1 547 0
	bl LWP_ResumeThread
	.loc 1 548 0
	lwz 0,12(1)
	addi 1,1,8
.LCFI62:
	.cfi_def_cfa_offset 0
	mtlr 0
	blr
	.cfi_endproc
.LFE1394:
	.size	_Z17ResumeNetworkWaitv, .-_Z17ResumeNetworkWaitv
	.align 2
	.globl _Z17InitNetworkThreadv
	.type	_Z17InitNetworkThreadv, @function
_Z17InitNetworkThreadv:
.LFB1396:
	.loc 1 574 0
	.cfi_startproc
	mflr 0
	.loc 1 575 0
	lis 3,.LANCHOR1@ha
	.loc 1 574 0
	stwu 1,-8(1)
.LCFI63:
	.cfi_def_cfa_offset 8
	.cfi_register 65, 0
	.loc 1 575 0
	la 3,.LANCHOR1@l(3)
	lis 4,_ZL19networkinitcallbackPv@ha
	addi 3,3,4
	la 4,_ZL19networkinitcallbackPv@l(4)
	li 5,0
	li 6,0
	li 7,16384
	li 8,30
	.loc 1 574 0
	stw 0,12(1)
	.loc 1 575 0
	.cfi_offset 65, 4
	bl LWP_CreateThread
	.loc 1 576 0
	lwz 0,12(1)
	addi 1,1,8
.LCFI64:
	.cfi_def_cfa_offset 0
	mtlr 0
	blr
	.cfi_endproc
.LFE1396:
	.size	_Z17InitNetworkThreadv, .-_Z17InitNetworkThreadv
	.align 2
	.globl _Z21ShutdownNetworkThreadv
	.type	_Z21ShutdownNetworkThreadv, @function
_Z21ShutdownNetworkThreadv:
.LFB1397:
	.loc 1 582 0
	.cfi_startproc
	mflr 0
	stwu 1,-16(1)
.LCFI65:
	.cfi_def_cfa_offset 16
	.cfi_register 65, 0
	.loc 1 583 0
	lis 9,.LANCHOR1@ha
	.loc 1 582 0
	stw 31,12(1)
	.loc 1 583 0
	la 31,.LANCHOR1@l(9)
	.cfi_offset 31, -4
	.loc 1 582 0
	stw 0,20(1)
	.loc 1 583 0
	lwz 3,4(31)
	cmpwi 7,3,-1
	beq- 7,.L183
	.cfi_offset 65, 4
.LBB134:
.LBB135:
	.loc 1 532 0
	li 0,0
	stb 0,.LANCHOR1@l(9)
	.loc 1 534 0
	bl LWP_ResumeThread
.LBE135:
.LBE134:
	.loc 1 586 0
	lwz 3,4(31)
	li 4,0
	bl LWP_JoinThread
	.loc 1 587 0
	li 0,-1
	stw 0,4(31)
.L183:
	.loc 1 589 0
	lwz 0,20(1)
	lwz 31,12(1)
	mtlr 0
	addi 1,1,16
.LCFI66:
	.cfi_def_cfa_offset 0
	.cfi_restore 31
	blr
	.cfi_endproc
.LFE1397:
	.size	_Z21ShutdownNetworkThreadv, .-_Z21ShutdownNetworkThreadv
	.align 2
	.globl _Z17GetCheckIncommingv
	.type	_Z17GetCheckIncommingv, @function
_Z17GetCheckIncommingv:
.LFB1398:
	.loc 1 595 0
	.cfi_startproc
	.loc 1 596 0
	lis 9,.LANCHOR0+76@ha
	.loc 1 597 0
	lbz 3,.LANCHOR0+76@l(9)
	blr
	.cfi_endproc
.LFE1398:
	.size	_Z17GetCheckIncommingv, .-_Z17GetCheckIncommingv
	.globl wiiloadVersion
	.globl incommingIP
	.globl connection
	.globl uncfilesize
	.globl infilesize
	.section	.rodata.cst4,"aM",@progbits,4
	.align 2
.LC12:
	.4byte	1281867308
	.section	".data"
	.align 2
	.set	.LANCHOR1,. + 0
	.type	_ZL11networkHalt, @object
	.size	_ZL11networkHalt, 1
_ZL11networkHalt:
	.byte	1
	.zero	3
	.type	_ZL13networkthread, @object
	.size	_ZL13networkthread, 4
_ZL13networkthread:
	.long	-1
	.section	.rodata.str1.4,"aMS",@progbits,1
	.align 2
.LC0:
	.string	"\r\n\r\n"
	.zero	3
.LC1:
	.string	"HTTP/1.1 200 OK"
.LC2:
	.string	"filename=\""
	.zero	1
.LC3:
	.string	"Content-Length:"
.LC4:
	.string	"Content-Length: %u"
	.zero	1
.LC5:
	.string	"http://"
.LC6:
	.string	"GET %s HTTP/1.1\r\nHost: %s\r\nReferer: %s\r\nUser-Agent: SaveGameGX\r\nConnection: close\r\n\r\n"
	.zero	2
.LC7:
	.string	"Not a valid URL"
.LC8:
	.string	"Not a valid URL path"
	.zero	3
.LC9:
	.string	"Not a valid domain"
	.zero	1
.LC10:
	.string	"Could not connect to the server."
	.zero	3
.LC11:
	.string	"HEAD %s HTTP/1.1\r\nHost: %s\r\nReferer: %s\r\nUser-Agent: SaveGameGX\r\nConnection: close\r\n\r\n"
	.section	.sbss,"aw",@nobits
	.align 2
	.type	wiiloadVersion, @object
	.size	wiiloadVersion, 2
wiiloadVersion:
	.zero	2
	.zero	2
	.type	connection, @object
	.size	connection, 4
connection:
	.zero	4
	.type	uncfilesize, @object
	.size	uncfilesize, 4
uncfilesize:
	.zero	4
	.type	infilesize, @object
	.size	infilesize, 4
infilesize:
	.zero	4
	.section	".bss"
	.align 2
	.set	.LANCHOR0,. + 0
	.type	_ZL18networkinitialized, @object
	.size	_ZL18networkinitialized, 1
_ZL18networkinitialized:
	.zero	1
	.zero	3
	.type	_ZL2IP, @object
	.size	_ZL2IP, 16
_ZL2IP:
	.zero	16
	.type	incommingIP, @object
	.size	incommingIP, 50
incommingIP:
	.zero	50
	.type	_ZL13waitforanswer, @object
	.size	_ZL13waitforanswer, 1
_ZL13waitforanswer:
	.zero	1
	.zero	1
	.type	_ZL6socket, @object
	.size	_ZL6socket, 4
_ZL6socket:
	.zero	4
	.type	_ZL14checkincomming, @object
	.size	_ZL14checkincomming, 1
_ZL14checkincomming:
	.zero	1
	.section	".text"
.Letext0:
	.file 3 "d:\\devkitpro\\devkitppc\\bin\\../lib/gcc/powerpc-eabi/4.6.3/../../../../powerpc-eabi/include/machine/_types.h"
	.file 4 "d:\\devkitpro\\devkitppc\\bin\\../lib/gcc/powerpc-eabi/4.6.3/../../../../powerpc-eabi/include/sys/lock.h"
	.file 5 "d:\\devkitpro\\devkitppc\\bin\\../lib/gcc/powerpc-eabi/4.6.3/include/stddef.h"
	.file 6 "d:\\devkitpro\\devkitppc\\bin\\../lib/gcc/powerpc-eabi/4.6.3/../../../../powerpc-eabi/include/sys/_types.h"
	.file 7 "d:\\devkitpro\\devkitppc\\bin\\../lib/gcc/powerpc-eabi/4.6.3/../../../../powerpc-eabi/include/sys/reent.h"
	.file 8 "d:\\devkitpro\\devkitppc\\bin\\../lib/gcc/powerpc-eabi/4.6.3/../../../../powerpc-eabi/include/time.h"
	.file 9 "d:\\devkitpro\\devkitppc\\bin\\../lib/gcc/powerpc-eabi/4.6.3/../../../../powerpc-eabi/include/stdint.h"
	.file 10 "d:/devkitPro/libogc/include/gctypes.h"
	.file 11 "d:/devkitPro/libogc/include/ogc/lwp.h"
	.file 12 "d:/devkitPro/libogc/include/ogc/gx.h"
	.file 13 "<built-in>"
	.file 14 "d:\\devkitpro\\devkitppc\\bin\\../lib/gcc/powerpc-eabi/4.6.3/../../../../powerpc-eabi/include/stdio.h"
	.file 15 "d:\\devkitpro\\devkitppc\\bin\\../lib/gcc/powerpc-eabi/4.6.3/../../../../powerpc-eabi/include/wchar.h"
	.file 16 "d:\\devkitpro\\devkitppc\\bin\\../lib/gcc/powerpc-eabi/4.6.3/../../../../powerpc-eabi/include/c++/4.6.3/cwchar"
	.file 17 "d:\\devkitpro\\devkitppc\\bin\\../lib/gcc/powerpc-eabi/4.6.3/../../../../powerpc-eabi/include/c++/4.6.3/powerpc-eabi/bits/c++config.h"
	.file 18 "d:\\devkitpro\\devkitppc\\bin\\../lib/gcc/powerpc-eabi/4.6.3/../../../../powerpc-eabi/include/c++/4.6.3/clocale"
	.file 19 "d:\\devkitpro\\devkitppc\\bin\\../lib/gcc/powerpc-eabi/4.6.3/../../../../powerpc-eabi/include/c++/4.6.3/bits/basic_string.h"
	.file 20 "d:\\devkitpro\\devkitppc\\bin\\../lib/gcc/powerpc-eabi/4.6.3/../../../../powerpc-eabi/include/c++/4.6.3/debug/debug.h"
	.file 21 "d:\\devkitpro\\devkitppc\\bin\\../lib/gcc/powerpc-eabi/4.6.3/../../../../powerpc-eabi/include/c++/4.6.3/bits/stl_list.h"
	.file 22 "d:\\devkitpro\\devkitppc\\bin\\../lib/gcc/powerpc-eabi/4.6.3/../../../../powerpc-eabi/include/c++/4.6.3/bits/stringfwd.h"
	.file 23 "d:\\devkitpro\\devkitppc\\bin\\../lib/gcc/powerpc-eabi/4.6.3/../../../../powerpc-eabi/include/c++/4.6.3/ext/new_allocator.h"
	.file 24 "d:\\devkitpro\\devkitppc\\bin\\../lib/gcc/powerpc-eabi/4.6.3/../../../../powerpc-eabi/include/c++/4.6.3/bits/cpp_type_traits.h"
	.file 25 "d:\\devkitpro\\devkitppc\\bin\\../lib/gcc/powerpc-eabi/4.6.3/../../../../powerpc-eabi/include/c++/4.6.3/bits/char_traits.h"
	.file 26 "d:\\devkitpro\\devkitppc\\bin\\../lib/gcc/powerpc-eabi/4.6.3/../../../../powerpc-eabi/include/c++/4.6.3/bits/allocator.h"
	.file 27 "d:\\devkitpro\\devkitppc\\bin\\../lib/gcc/powerpc-eabi/4.6.3/../../../../powerpc-eabi/include/locale.h"
	.file 28 "d:\\devkitpro\\devkitppc\\bin\\../lib/gcc/powerpc-eabi/4.6.3/../../../../powerpc-eabi/include/c++/4.6.3/powerpc-eabi/bits/atomic_word.h"
	.file 29 "d:\\devkitpro\\devkitppc\\bin\\../lib/gcc/powerpc-eabi/4.6.3/../../../../powerpc-eabi/include/c++/4.6.3/ext/numeric_traits.h"
	.file 30 "d:\\devkitpro\\devkitppc\\bin\\../lib/gcc/powerpc-eabi/4.6.3/../../../../powerpc-eabi/include/c++/4.6.3/bits/basic_string.tcc"
	.file 31 "d:\\devkitpro\\devkitppc\\bin\\../lib/gcc/powerpc-eabi/4.6.3/../../../../powerpc-eabi/include/c++/4.6.3/bits/stl_iterator_base_types.h"
	.file 32 "d:\\devkitpro\\devkitppc\\bin\\../lib/gcc/powerpc-eabi/4.6.3/../../../../powerpc-eabi/include/c++/4.6.3/bits/stl_iterator.h"
	.file 33 "d:/Projects/SaveGameManager/savegame-manager-gx/trunk/source/Network/../Settings/../FileOperations/FileExtensions.h"
	.file 34 "d:/Projects/SaveGameManager/savegame-manager-gx/trunk/source/Network/../Settings/../Controls/AppControls.hpp"
	.file 35 "d:/Projects/SaveGameManager/savegame-manager-gx/trunk/source/Network/../Settings/CSettings.h"
	.file 36 "d:/devkitPro/libogc/include/network.h"
	.file 37 "d:/Projects/SaveGameManager/savegame-manager-gx/trunk/source/Network/../sigslot.h"