   1              		.file	"NumpadWindow.cpp"
   2              		.section	".text"
   3              	.Ltext0:
   4              		.section	.text._ZN7sigslot15single_threadedD2Ev,"axG",@progbits,_ZN7sigslot15single_threadedD5Ev,c
   5              		.align 2
   6              		.weak	_ZN7sigslot15single_threadedD2Ev
   7              		.type	_ZN7sigslot15single_threadedD2Ev, @function
   8              	_ZN7sigslot15single_threadedD2Ev:
   9              	.LFB1148:
  10              		.file 1 "d:/Projects/SaveGameManager/savegame-manager-gx/trunk/source/Prompts/../GUI/../sigslot.h"
  11              		.loc 1 104 0
  12              		.cfi_startproc
  13              	.LVL0:
  14              	.LBB2289:
  15              		.loc 1 105 0
  16 0000 3D200000 		lis 9,_ZTVN7sigslot15single_threadedE+8@ha
  17              	.LBE2289:
  18              		.loc 1 107 0
  19              	.LBB2290:
  20              		.loc 1 105 0
  21 0004 38090008 		la 0,_ZTVN7sigslot15single_threadedE+8@l(9)
  22 0008 90030000 		stw 0,0(3)
  23              	.LBE2290:
  24              		.loc 1 107 0
  25 000c 4E800020 		blr
  26              		.cfi_endproc
  27              	.LFE1148:
  28              		.size	_ZN7sigslot15single_threadedD2Ev, .-_ZN7sigslot15single_threadedD2Ev
  29              		.section	.text._ZN7sigslot15single_threaded4lockEv,"axG",@progbits,_ZN7sigslot15single_threaded4lo
  30              		.align 2
  31              		.weak	_ZN7sigslot15single_threaded4lockEv
  32              		.type	_ZN7sigslot15single_threaded4lockEv, @function
  33              	_ZN7sigslot15single_threaded4lockEv:
  34              	.LFB1151:
  35              		.loc 1 109 0
  36              		.cfi_startproc
  37              	.LVL1:
  38              		.loc 1 112 0
  39 0000 4E800020 		blr
  40              		.cfi_endproc
  41              	.LFE1151:
  42              		.size	_ZN7sigslot15single_threaded4lockEv, .-_ZN7sigslot15single_threaded4lockEv
  43              		.section	.text._ZN7sigslot15single_threaded6unlockEv,"axG",@progbits,_ZN7sigslot15single_threaded6
  44              		.align 2
  45              		.weak	_ZN7sigslot15single_threaded6unlockEv
  46              		.type	_ZN7sigslot15single_threaded6unlockEv, @function
  47              	_ZN7sigslot15single_threaded6unlockEv:
  48              	.LFB1152:
  49              		.loc 1 114 0
  50              		.cfi_startproc
  51              	.LVL2:
  52              		.loc 1 117 0
  53 0000 4E800020 		blr
  54              		.cfi_endproc
  55              	.LFE1152:
  56              		.size	_ZN7sigslot15single_threaded6unlockEv, .-_ZN7sigslot15single_threaded6unlockEv
  57              		.section	.text._ZN10GuiElement9SetParentEPS_,"axG",@progbits,_ZN10GuiElement9SetParentEPS_,comdat
  58              		.align 2
  59              		.weak	_ZN10GuiElement9SetParentEPS_
  60              		.type	_ZN10GuiElement9SetParentEPS_, @function
  61              	_ZN10GuiElement9SetParentEPS_:
  62              	.LFB1384:
  63              		.file 2 "d:/Projects/SaveGameManager/savegame-manager-gx/trunk/source/Prompts/../GUI/gui_element.h
  64              		.loc 2 92 0
  65              		.cfi_startproc
  66              	.LVL3:
  67              		.loc 2 92 0
  68 0000 90830060 		stw 4,96(3)
  69 0004 4E800020 		blr
  70              		.cfi_endproc
  71              	.LFE1384:
  72              		.size	_ZN10GuiElement9SetParentEPS_, .-_ZN10GuiElement9SetParentEPS_
  73              		.section	.text._ZN10GuiElement9GetParentEv,"axG",@progbits,_ZN10GuiElement9GetParentEv,comdat
  74              		.align 2
  75              		.weak	_ZN10GuiElement9GetParentEv
  76              		.type	_ZN10GuiElement9GetParentEv, @function
  77              	_ZN10GuiElement9GetParentEv:
  78              	.LFB1385:
  79              		.loc 2 95 0
  80              		.cfi_startproc
  81              	.LVL4:
  82              		.loc 2 95 0
  83 0000 80630060 		lwz 3,96(3)
  84              	.LVL5:
  85 0004 4E800020 		blr
  86              		.cfi_endproc
  87              	.LFE1385:
  88              		.size	_ZN10GuiElement9GetParentEv, .-_ZN10GuiElement9GetParentEv
  89              		.section	.text._ZN10GuiElement12GetZPositionEv,"axG",@progbits,_ZN10GuiElement12GetZPositionEv,com
  90              		.align 2
  91              		.weak	_ZN10GuiElement12GetZPositionEv
  92              		.type	_ZN10GuiElement12GetZPositionEv, @function
  93              	_ZN10GuiElement12GetZPositionEv:
  94              	.LFB1386:
  95              		.loc 2 106 0
  96              		.cfi_startproc
  97              	.LVL6:
  98 0000 7C0802A6 		mflr 0
  99 0004 9421FFF0 		stwu 1,-16(1)
 100              	.LCFI0:
 101              		.cfi_def_cfa_offset 16
 102              		.cfi_register 65, 0
 103 0008 93E1000C 		stw 31,12(1)
 104 000c 7C7F1B78 		mr 31,3
 105              		.cfi_offset 31, -4
 106 0010 90010014 		stw 0,20(1)
 107              	.LBB2291:
 108              		.loc 2 110 0
 109 0014 81630060 		lwz 11,96(3)
 110              		.loc 2 108 0
 111 0018 38600000 		li 3,0
 112              	.LVL7:
 113              		.loc 2 110 0
 114 001c 2F8B0000 		cmpwi 7,11,0
 115 0020 419E0018 		beq- 7,.L8
 116              		.cfi_offset 65, 4
 117              		.loc 2 111 0
 118 0024 812B0000 		lwz 9,0(11)
 119 0028 7D635B78 		mr 3,11
 120 002c 80090018 		lwz 0,24(9)
 121 0030 7C0903A6 		mtctr 0
 122 0034 4E800421 		bctrl
 123              	.LVL8:
 124              	.L8:
 125              		.loc 2 113 0
 126 0038 801F0034 		lwz 0,52(31)
 127              	.LBE2291:
 128              		.loc 2 114 0
 129 003c 83E1000C 		lwz 31,12(1)
 130              	.LVL9:
 131 0040 7C630214 		add 3,3,0
 132              	.LVL10:
 133 0044 80010014 		lwz 0,20(1)
 134 0048 38210010 		addi 1,1,16
 135              	.LCFI1:
 136              		.cfi_def_cfa_offset 0
 137              		.cfi_restore 31
 138 004c 7C0803A6 		mtlr 0
 139 0050 4E800020 		blr
 140              		.cfi_endproc
 141              	.LFE1386:
 142              		.size	_ZN10GuiElement12GetZPositionEv, .-_ZN10GuiElement12GetZPositionEv
 143              		.section	.text._ZN10GuiElement10GetLeftPosEv,"axG",@progbits,_ZN10GuiElement10GetLeftPosEv,comdat
 144              		.align 2
 145              		.weak	_ZN10GuiElement10GetLeftPosEv
 146              		.type	_ZN10GuiElement10GetLeftPosEv, @function
 147              	_ZN10GuiElement10GetLeftPosEv:
 148              	.LFB1387:
 149              		.loc 2 116 0
 150              		.cfi_startproc
 151              	.LVL11:
 152              		.loc 2 116 0
 153 0000 8063002C 		lwz 3,44(3)
 154              	.LVL12:
 155 0004 4E800020 		blr
 156              		.cfi_endproc
 157              	.LFE1387:
 158              		.size	_ZN10GuiElement10GetLeftPosEv, .-_ZN10GuiElement10GetLeftPosEv
 159              		.section	.text._ZN10GuiElement9GetTopPosEv,"axG",@progbits,_ZN10GuiElement9GetTopPosEv,comdat
 160              		.align 2
 161              		.weak	_ZN10GuiElement9GetTopPosEv
 162              		.type	_ZN10GuiElement9GetTopPosEv, @function
 163              	_ZN10GuiElement9GetTopPosEv:
 164              	.LFB1388:
 165              		.loc 2 118 0
 166              		.cfi_startproc
 167              	.LVL13:
 168              		.loc 2 118 0
 169 0000 80630030 		lwz 3,48(3)
 170              	.LVL14:
 171 0004 4E800020 		blr
 172              		.cfi_endproc
 173              	.LFE1388:
 174              		.size	_ZN10GuiElement9GetTopPosEv, .-_ZN10GuiElement9GetTopPosEv
 175              		.section	.text._ZN10GuiElement8GetWidthEv,"axG",@progbits,_ZN10GuiElement8GetWidthEv,comdat
 176              		.align 2
 177              		.weak	_ZN10GuiElement8GetWidthEv
 178              		.type	_ZN10GuiElement8GetWidthEv, @function
 179              	_ZN10GuiElement8GetWidthEv:
 180              	.LFB1389:
 181              		.loc 2 121 0
 182              		.cfi_startproc
 183              	.LVL15:
 184              		.loc 2 121 0
 185 0000 80630024 		lwz 3,36(3)
 186              	.LVL16:
 187 0004 4E800020 		blr
 188              		.cfi_endproc
 189              	.LFE1389:
 190              		.size	_ZN10GuiElement8GetWidthEv, .-_ZN10GuiElement8GetWidthEv
 191              		.section	.text._ZN10GuiElement9GetHeightEv,"axG",@progbits,_ZN10GuiElement9GetHeightEv,comdat
 192              		.align 2
 193              		.weak	_ZN10GuiElement9GetHeightEv
 194              		.type	_ZN10GuiElement9GetHeightEv, @function
 195              	_ZN10GuiElement9GetHeightEv:
 196              	.LFB1390:
 197              		.loc 2 124 0
 198              		.cfi_startproc
 199              	.LVL17:
 200              		.loc 2 124 0
 201 0000 80630028 		lwz 3,40(3)
 202              	.LVL18:
 203 0004 4E800020 		blr
 204              		.cfi_endproc
 205              	.LFE1390:
 206              		.size	_ZN10GuiElement9GetHeightEv, .-_ZN10GuiElement9GetHeightEv
 207              		.section	.text._ZN10GuiElement7SetSizeEii,"axG",@progbits,_ZN10GuiElement7SetSizeEii,comdat
 208              		.align 2
 209              		.weak	_ZN10GuiElement7SetSizeEii
 210              		.type	_ZN10GuiElement7SetSizeEii, @function
 211              	_ZN10GuiElement7SetSizeEii:
 212              	.LFB1391:
 213              		.loc 2 128 0
 214              		.cfi_startproc
 215              	.LVL19:
 216              		.loc 2 130 0
 217 0000 90830024 		stw 4,36(3)
 218              		.loc 2 132 0
 219              		.loc 2 131 0
 220 0004 90A30028 		stw 5,40(3)
 221              		.loc 2 132 0
 222 0008 4E800020 		blr
 223              		.cfi_endproc
 224              	.LFE1391:
 225              		.size	_ZN10GuiElement7SetSizeEii, .-_ZN10GuiElement7SetSizeEii
 226              		.section	.text._ZN10GuiElement9IsVisibleEv,"axG",@progbits,_ZN10GuiElement9IsVisibleEv,comdat
 227              		.align 2
 228              		.weak	_ZN10GuiElement9IsVisibleEv
 229              		.type	_ZN10GuiElement9IsVisibleEv, @function
 230              	_ZN10GuiElement9IsVisibleEv:
 231              	.LFB1393:
 232              		.loc 2 142 0
 233              		.cfi_startproc
 234              	.LVL20:
 235              		.loc 2 142 0
 236 0000 8863001D 		lbz 3,29(3)
 237              	.LVL21:
 238 0004 4E800020 		blr
 239              		.cfi_endproc
 240              	.LFE1393:
 241              		.size	_ZN10GuiElement9IsVisibleEv, .-_ZN10GuiElement9IsVisibleEv
 242              		.section	.text._ZN10GuiElement12IsSelectableEv,"axG",@progbits,_ZN10GuiElement12IsSelectableEv,com
 243              		.align 2
 244              		.weak	_ZN10GuiElement12IsSelectableEv
 245              		.type	_ZN10GuiElement12IsSelectableEv, @function
 246              	_ZN10GuiElement12IsSelectableEv:
 247              	.LFB1394:
 248              		.loc 2 145 0
 249              		.cfi_startproc
 250              	.LVL22:
 251              		.loc 2 149 0
 252 0000 80030048 		lwz 0,72(3)
 253 0004 39200000 		li 9,0
 254 0008 2F800004 		cmpwi 7,0,4
 255 000c 419E0010 		beq- 7,.L18
 256              		.loc 2 149 0 is_stmt 0 discriminator 1
 257 0010 2F800002 		cmpwi 7,0,2
 258 0014 419E0008 		beq- 7,.L18
 259              		.loc 2 149 0 discriminator 3
 260 0018 8923001E 		lbz 9,30(3)
 261              	.L18:
 262              		.loc 2 150 0 is_stmt 1 discriminator 5
 263 001c 7D234B78 		mr 3,9
 264              	.LVL23:
 265 0020 4E800020 		blr
 266              		.cfi_endproc
 267              	.LFE1394:
 268              		.size	_ZN10GuiElement12IsSelectableEv, .-_ZN10GuiElement12IsSelectableEv
 269              		.section	.text._ZN10GuiElement11IsClickableEv,"axG",@progbits,_ZN10GuiElement11IsClickableEv,comda
 270              		.align 2
 271              		.weak	_ZN10GuiElement11IsClickableEv
 272              		.type	_ZN10GuiElement11IsClickableEv, @function
 273              	_ZN10GuiElement11IsClickableEv:
 274              	.LFB1395:
 275              		.loc 2 153 0
 276              		.cfi_startproc
 277              	.LVL24:
 278              		.loc 2 158 0
 279 0000 80030048 		lwz 0,72(3)
 280 0004 39200000 		li 9,0
 281 0008 2F800004 		cmpwi 7,0,4
 282 000c 419E0018 		beq- 7,.L22
 283              		.loc 2 158 0 is_stmt 0 discriminator 1
 284 0010 2F800002 		cmpwi 7,0,2
 285 0014 419E0010 		beq- 7,.L22
 286              		.loc 2 158 0 discriminator 3
 287 0018 2F800003 		cmpwi 7,0,3
 288 001c 419E0008 		beq- 7,.L22
 289              		.loc 2 158 0 discriminator 4
 290 0020 8923001F 		lbz 9,31(3)
 291              	.L22:
 292              		.loc 2 159 0 is_stmt 1 discriminator 6
 293 0024 7D234B78 		mr 3,9
 294              	.LVL25:
 295 0028 4E800020 		blr
 296              		.cfi_endproc
 297              	.LFE1395:
 298              		.size	_ZN10GuiElement11IsClickableEv, .-_ZN10GuiElement11IsClickableEv
 299              		.section	.text._ZN10GuiElement10IsHoldableEv,"axG",@progbits,_ZN10GuiElement10IsHoldableEv,comdat
 300              		.align 2
 301              		.weak	_ZN10GuiElement10IsHoldableEv
 302              		.type	_ZN10GuiElement10IsHoldableEv, @function
 303              	_ZN10GuiElement10IsHoldableEv:
 304              	.LFB1396:
 305              		.loc 2 162 0
 306              		.cfi_startproc
 307              	.LVL26:
 308              		.loc 2 162 0
 309 0000 81230048 		lwz 9,72(3)
 310 0004 38000000 		li 0,0
 311 0008 2F890004 		cmpwi 7,9,4
 312 000c 419E0008 		beq- 7,.L27
 313              		.loc 2 162 0 is_stmt 0 discriminator 1
 314 0010 88030020 		lbz 0,32(3)
 315              	.L27:
 316              		.loc 2 162 0 discriminator 4
 317 0014 7C030378 		mr 3,0
 318              	.LVL27:
 319 0018 4E800020 		blr
 320              		.cfi_endproc
 321              	.LFE1396:
 322              		.size	_ZN10GuiElement10IsHoldableEv, .-_ZN10GuiElement10IsHoldableEv
 323              		.section	.text._ZN10GuiElement13SetSelectableEb,"axG",@progbits,_ZN10GuiElement13SetSelectableEb,c
 324              		.align 2
 325              		.weak	_ZN10GuiElement13SetSelectableEb
 326              		.type	_ZN10GuiElement13SetSelectableEb, @function
 327              	_ZN10GuiElement13SetSelectableEb:
 328              	.LFB1397:
 329              		.loc 2 165 0 is_stmt 1
 330              		.cfi_startproc
 331              	.LVL28:
 332              		.loc 2 165 0
 333 0000 9883001E 		stb 4,30(3)
 334 0004 4E800020 		blr
 335              		.cfi_endproc
 336              	.LFE1397:
 337              		.size	_ZN10GuiElement13SetSelectableEb, .-_ZN10GuiElement13SetSelectableEb
 338              		.section	.text._ZN10GuiElement12SetClickableEb,"axG",@progbits,_ZN10GuiElement12SetClickableEb,com
 339              		.align 2
 340              		.weak	_ZN10GuiElement12SetClickableEb
 341              		.type	_ZN10GuiElement12SetClickableEb, @function
 342              	_ZN10GuiElement12SetClickableEb:
 343              	.LFB1398:
 344              		.loc 2 168 0
 345              		.cfi_startproc
 346              	.LVL29:
 347              		.loc 2 168 0
 348 0000 9883001F 		stb 4,31(3)
 349 0004 4E800020 		blr
 350              		.cfi_endproc
 351              	.LFE1398:
 352              		.size	_ZN10GuiElement12SetClickableEb, .-_ZN10GuiElement12SetClickableEb
 353              		.section	.text._ZN10GuiElement11SetHoldableEb,"axG",@progbits,_ZN10GuiElement11SetHoldableEb,comda
 354              		.align 2
 355              		.weak	_ZN10GuiElement11SetHoldableEb
 356              		.type	_ZN10GuiElement11SetHoldableEb, @function
 357              	_ZN10GuiElement11SetHoldableEb:
 358              	.LFB1399:
 359              		.loc 2 171 0
 360              		.cfi_startproc
 361              	.LVL30:
 362              		.loc 2 171 0
 363 0000 98830020 		stb 4,32(3)
 364 0004 4E800020 		blr
 365              		.cfi_endproc
 366              	.LFE1399:
 367              		.size	_ZN10GuiElement11SetHoldableEb, .-_ZN10GuiElement11SetHoldableEb
 368              		.section	.text._ZN10GuiElement8GetStateEv,"axG",@progbits,_ZN10GuiElement8GetStateEv,comdat
 369              		.align 2
 370              		.weak	_ZN10GuiElement8GetStateEv
 371              		.type	_ZN10GuiElement8GetStateEv, @function
 372              	_ZN10GuiElement8GetStateEv:
 373              	.LFB1400:
 374              		.loc 2 178 0
 375              		.cfi_startproc
 376              	.LVL31:
 377              		.loc 2 178 0
 378 0000 80630048 		lwz 3,72(3)
 379              	.LVL32:
 380 0004 4E800020 		blr
 381              		.cfi_endproc
 382              	.LFE1400:
 383              		.size	_ZN10GuiElement8GetStateEv, .-_ZN10GuiElement8GetStateEv
 384              		.section	.text._ZN10GuiElement12GetStateChanEv,"axG",@progbits,_ZN10GuiElement12GetStateChanEv,com
 385              		.align 2
 386              		.weak	_ZN10GuiElement12GetStateChanEv
 387              		.type	_ZN10GuiElement12GetStateChanEv, @function
 388              	_ZN10GuiElement12GetStateChanEv:
 389              	.LFB1401:
 390              		.loc 2 181 0
 391              		.cfi_startproc
 392              	.LVL33:
 393              		.loc 2 181 0
 394 0000 8063004C 		lwz 3,76(3)
 395              	.LVL34:
 396 0004 4E800020 		blr
 397              		.cfi_endproc
 398              	.LFE1401:
 399              		.size	_ZN10GuiElement12GetStateChanEv, .-_ZN10GuiElement12GetStateChanEv
 400              		.section	.text._ZN10GuiElement8SetAlphaEi,"axG",@progbits,_ZN10GuiElement8SetAlphaEi,comdat
 401              		.align 2
 402              		.weak	_ZN10GuiElement8SetAlphaEi
 403              		.type	_ZN10GuiElement8SetAlphaEi, @function
 404              	_ZN10GuiElement8SetAlphaEi:
 405              	.LFB1403:
 406              		.loc 2 190 0
 407              		.cfi_startproc
 408              	.LVL35:
 409              		.loc 2 190 0
 410 0000 90830038 		stw 4,56(3)
 411 0004 4E800020 		blr
 412              		.cfi_endproc
 413              	.LFE1403:
 414              		.size	_ZN10GuiElement8SetAlphaEi, .-_ZN10GuiElement8SetAlphaEi
 415              		.section	.text._ZN10GuiElement8GetAlphaEv,"axG",@progbits,_ZN10GuiElement8GetAlphaEv,comdat
 416              		.align 2
 417              		.weak	_ZN10GuiElement8GetAlphaEv
 418              		.type	_ZN10GuiElement8GetAlphaEv, @function
 419              	_ZN10GuiElement8GetAlphaEv:
 420              	.LFB1404:
 421              		.loc 2 194 0
 422              		.cfi_startproc
 423              	.LVL36:
 424 0000 7C0802A6 		mflr 0
 425 0004 9421FFD8 		stwu 1,-40(1)
 426              	.LCFI2:
 427              		.cfi_def_cfa_offset 40
 428              		.cfi_register 65, 0
 429 0008 93E10024 		stw 31,36(1)
 430 000c 9001002C 		stw 0,44(1)
 431              	.LBB2292:
 432              		.loc 2 198 0
 433 0010 83E3006C 		lwz 31,108(3)
 434              		.cfi_offset 65, 4
 435              		.cfi_offset 31, -4
 436 0014 2F9F0000 		cmpwi 7,31,0
 437 0018 419C0094 		blt- 7,.L38
 438              	.L36:
 439              	.LVL37:
 440              		.loc 2 203 0
 441 001c 80630060 		lwz 3,96(3)
 442              	.LVL38:
 443 0020 2F830000 		cmpwi 7,3,0
 444 0024 419E0070 		beq- 7,.L37
 445              		.loc 2 204 0
 446 0028 81230000 		lwz 9,0(3)
 447 002c 6FFF8000 		xoris 31,31,0x8000
 448              	.LVL39:
 449 0030 80090064 		lwz 0,100(9)
 450 0034 7C0903A6 		mtctr 0
 451 0038 4E800421 		bctrl
 452 003c 3C004330 		lis 0,0x4330
 453 0040 6C638000 		xoris 3,3,0x8000
 454 0044 90010010 		stw 0,16(1)
 455 0048 90610014 		stw 3,20(1)
 456 004c 3D200000 		lis 9,.LC1@ha
 457 0050 C0090000 		lfs 0,.LC1@l(9)
 458 0054 3D200000 		lis 9,.LC2@ha
 459 0058 C9A10010 		lfd 13,16(1)
 460 005c C1890004 		lfs 12,.LC2@l(9)
 461 0060 39210018 		addi 9,1,24
 462 0064 FDAD0028 		fsub 13,13,0
 463 0068 93E1000C 		stw 31,12(1)
 464 006c 90010008 		stw 0,8(1)
 465 0070 FDA06818 		frsp 13,13
 466 0074 EDAD6024 		fdivs 13,13,12
 467 0078 C9810008 		lfd 12,8(1)
 468 007c FC0C0028 		fsub 0,12,0
 469 0080 FC000018 		frsp 0,0
 470 0084 EC000372 		fmuls 0,0,13
 471 0088 FC00001E 		fctiwz 0,0
 472 008c 7C004FAE 		stfiwx 0,0,9
 473 0090 83E10018 		lwz 31,24(1)
 474              	.LVL40:
 475              	.L37:
 476              	.LBE2292:
 477              		.loc 2 207 0
 478 0094 8001002C 		lwz 0,44(1)
 479 0098 7FE3FB78 		mr 3,31
 480 009c 83E10024 		lwz 31,36(1)
 481              	.LVL41:
 482 00a0 7C0803A6 		mtlr 0
 483 00a4 38210028 		addi 1,1,40
 484              		.cfi_remember_state
 485              	.LCFI3:
 486              		.cfi_def_cfa_offset 0
 487              		.cfi_restore 31
 488 00a8 4E800020 		blr
 489              	.LVL42:
 490              	.L38:
 491              	.LCFI4:
 492              		.cfi_restore_state
 493              	.LBB2293:
 494              		.loc 2 201 0
 495 00ac 83E30038 		lwz 31,56(3)
 496              	.LVL43:
 497 00b0 4BFFFF6C 		b .L36
 498              	.LBE2293:
 499              		.cfi_endproc
 500              	.LFE1404:
 501              		.size	_ZN10GuiElement8GetAlphaEv, .-_ZN10GuiElement8GetAlphaEv
 502              		.section	.text._ZN10GuiElement8SetScaleEf,"axG",@progbits,_ZN10GuiElement8SetScaleEf,comdat
 503              		.align 2
 504              		.weak	_ZN10GuiElement8SetScaleEf
 505              		.type	_ZN10GuiElement8SetScaleEf, @function
 506              	_ZN10GuiElement8SetScaleEf:
 507              	.LFB1405:
 508              		.loc 2 210 0
 509              		.cfi_startproc
 510              	.LVL44:
 511              		.loc 2 212 0
 512 0000 D023003C 		stfs 1,60(3)
 513              		.loc 2 214 0
 514              		.loc 2 213 0
 515 0004 D0230040 		stfs 1,64(3)
 516              		.loc 2 214 0
 517 0008 4E800020 		blr
 518              		.cfi_endproc
 519              	.LFE1405:
 520              		.size	_ZN10GuiElement8SetScaleEf, .-_ZN10GuiElement8SetScaleEf
 521              		.section	.text._ZN10GuiElement9SetScaleXEf,"axG",@progbits,_ZN10GuiElement9SetScaleXEf,comdat
 522              		.align 2
 523              		.weak	_ZN10GuiElement9SetScaleXEf
 524              		.type	_ZN10GuiElement9SetScaleXEf, @function
 525              	_ZN10GuiElement9SetScaleXEf:
 526              	.LFB1406:
 527              		.loc 2 217 0
 528              		.cfi_startproc
 529              	.LVL45:
 530              		.loc 2 217 0
 531 0000 D023003C 		stfs 1,60(3)
 532 0004 4E800020 		blr
 533              		.cfi_endproc
 534              	.LFE1406:
 535              		.size	_ZN10GuiElement9SetScaleXEf, .-_ZN10GuiElement9SetScaleXEf
 536              		.section	.text._ZN10GuiElement9SetScaleYEf,"axG",@progbits,_ZN10GuiElement9SetScaleYEf,comdat
 537              		.align 2
 538              		.weak	_ZN10GuiElement9SetScaleYEf
 539              		.type	_ZN10GuiElement9SetScaleYEf, @function
 540              	_ZN10GuiElement9SetScaleYEf:
 541              	.LFB1407:
 542              		.loc 2 220 0
 543              		.cfi_startproc
 544              	.LVL46:
 545              		.loc 2 220 0
 546 0000 D0230040 		stfs 1,64(3)
 547 0004 4E800020 		blr
 548              		.cfi_endproc
 549              	.LFE1407:
 550              		.size	_ZN10GuiElement9SetScaleYEf, .-_ZN10GuiElement9SetScaleYEf
 551              		.section	.text._ZN10GuiElement8GetScaleEv,"axG",@progbits,_ZN10GuiElement8GetScaleEv,comdat
 552              		.align 2
 553              		.weak	_ZN10GuiElement8GetScaleEv
 554              		.type	_ZN10GuiElement8GetScaleEv, @function
 555              	_ZN10GuiElement8GetScaleEv:
 556              	.LFB1408:
 557              		.loc 2 223 0
 558              		.cfi_startproc
 559              	.LVL47:
 560 0000 7C0802A6 		mflr 0
 561 0004 9421FFF0 		stwu 1,-16(1)
 562              	.LCFI5:
 563              		.cfi_def_cfa_offset 16
 564              		.cfi_register 65, 0
 565              	.LBB2294:
 566              		.loc 2 225 0
 567 0008 3D200000 		lis 9,.LC3@ha
 568              	.LBE2294:
 569              		.loc 2 223 0
 570 000c DBE10008 		stfd 31,8(1)
 571 0010 90010014 		stw 0,20(1)
 572              	.LBB2295:
 573              		.loc 2 225 0
 574 0014 C0030040 		lfs 0,64(3)
 575 0018 C3E3003C 		lfs 31,60(3)
 576              		.cfi_offset 65, 4
 577              		.cfi_offset 63, -8
 578              		.loc 2 227 0
 579 001c 81630060 		lwz 11,96(3)
 580              		.loc 2 225 0
 581 0020 EFFF002A 		fadds 31,31,0
 582 0024 C0090008 		lfs 0,.LC3@l(9)
 583              		.loc 2 227 0
 584 0028 2F8B0000 		cmpwi 7,11,0
 585              		.loc 2 225 0
 586 002c EFFF0032 		fmuls 31,31,0
 587 0030 C0030070 		lfs 0,112(3)
 588 0034 EFFF0032 		fmuls 31,31,0
 589              	.LVL48:
 590              		.loc 2 227 0
 591 0038 419E001C 		beq- 7,.L43
 592              		.loc 2 228 0
 593 003c 812B0000 		lwz 9,0(11)
 594 0040 7D635B78 		mr 3,11
 595              	.LVL49:
 596 0044 80090074 		lwz 0,116(9)
 597 0048 7C0903A6 		mtctr 0
 598 004c 4E800421 		bctrl
 599 0050 EFFF0072 		fmuls 31,31,1
 600              	.LVL50:
 601              	.L43:
 602              	.LBE2295:
 603              		.loc 2 231 0
 604 0054 80010014 		lwz 0,20(1)
 605 0058 FC20F890 		fmr 1,31
 606 005c CBE10008 		lfd 31,8(1)
 607              	.LVL51:
 608 0060 7C0803A6 		mtlr 0
 609 0064 38210010 		addi 1,1,16
 610              	.LCFI6:
 611              		.cfi_def_cfa_offset 0
 612              		.cfi_restore 63
 613 0068 4E800020 		blr
 614              		.cfi_endproc
 615              	.LFE1408:
 616              		.size	_ZN10GuiElement8GetScaleEv, .-_ZN10GuiElement8GetScaleEv
 617              		.section	.text._ZN10GuiElement9GetScaleXEv,"axG",@progbits,_ZN10GuiElement9GetScaleXEv,comdat
 618              		.align 2
 619              		.weak	_ZN10GuiElement9GetScaleXEv
 620              		.type	_ZN10GuiElement9GetScaleXEv, @function
 621              	_ZN10GuiElement9GetScaleXEv:
 622              	.LFB1409:
 623              		.loc 2 234 0
 624              		.cfi_startproc
 625              	.LVL52:
 626 0000 7C0802A6 		mflr 0
 627 0004 9421FFF0 		stwu 1,-16(1)
 628              	.LCFI7:
 629              		.cfi_def_cfa_offset 16
 630              		.cfi_register 65, 0
 631 0008 DBE10008 		stfd 31,8(1)
 632 000c 90010014 		stw 0,20(1)
 633              	.LBB2296:
 634              		.loc 2 238 0
 635 0010 81630060 		lwz 11,96(3)
 636              		.loc 2 236 0
 637 0014 C3E3003C 		lfs 31,60(3)
 638              		.cfi_offset 65, 4
 639              		.cfi_offset 63, -8
 640              		.loc 2 238 0
 641 0018 2F8B0000 		cmpwi 7,11,0
 642              		.loc 2 236 0
 643 001c C0030070 		lfs 0,112(3)
 644 0020 EFFF0032 		fmuls 31,31,0
 645              	.LVL53:
 646              		.loc 2 238 0
 647 0024 419E001C 		beq- 7,.L45
 648              		.loc 2 239 0
 649 0028 812B0000 		lwz 9,0(11)
 650 002c 7D635B78 		mr 3,11
 651              	.LVL54:
 652 0030 80090078 		lwz 0,120(9)
 653 0034 7C0903A6 		mtctr 0
 654 0038 4E800421 		bctrl
 655 003c EFFF0072 		fmuls 31,31,1
 656              	.LVL55:
 657              	.L45:
 658              	.LBE2296:
 659              		.loc 2 242 0
 660 0040 80010014 		lwz 0,20(1)
 661 0044 FC20F890 		fmr 1,31
 662 0048 CBE10008 		lfd 31,8(1)
 663              	.LVL56:
 664 004c 7C0803A6 		mtlr 0
 665 0050 38210010 		addi 1,1,16
 666              	.LCFI8:
 667              		.cfi_def_cfa_offset 0
 668              		.cfi_restore 63
 669 0054 4E800020 		blr
 670              		.cfi_endproc
 671              	.LFE1409:
 672              		.size	_ZN10GuiElement9GetScaleXEv, .-_ZN10GuiElement9GetScaleXEv
 673              		.section	.text._ZN10GuiElement9GetScaleYEv,"axG",@progbits,_ZN10GuiElement9GetScaleYEv,comdat
 674              		.align 2
 675              		.weak	_ZN10GuiElement9GetScaleYEv
 676              		.type	_ZN10GuiElement9GetScaleYEv, @function
 677              	_ZN10GuiElement9GetScaleYEv:
 678              	.LFB1410:
 679              		.loc 2 245 0
 680              		.cfi_startproc
 681              	.LVL57:
 682 0000 7C0802A6 		mflr 0
 683 0004 9421FFF0 		stwu 1,-16(1)
 684              	.LCFI9:
 685              		.cfi_def_cfa_offset 16
 686              		.cfi_register 65, 0
 687 0008 DBE10008 		stfd 31,8(1)
 688 000c 90010014 		stw 0,20(1)
 689              	.LBB2297:
 690              		.loc 2 249 0
 691 0010 81630060 		lwz 11,96(3)
 692              		.loc 2 247 0
 693 0014 C3E30040 		lfs 31,64(3)
 694              		.cfi_offset 65, 4
 695              		.cfi_offset 63, -8
 696              		.loc 2 249 0
 697 0018 2F8B0000 		cmpwi 7,11,0
 698              		.loc 2 247 0
 699 001c C0030070 		lfs 0,112(3)
 700 0020 EFFF0032 		fmuls 31,31,0
 701              	.LVL58:
 702              		.loc 2 249 0
 703 0024 419E001C 		beq- 7,.L47
 704              		.loc 2 250 0
 705 0028 812B0000 		lwz 9,0(11)
 706 002c 7D635B78 		mr 3,11
 707              	.LVL59:
 708 0030 8009007C 		lwz 0,124(9)
 709 0034 7C0903A6 		mtctr 0
 710 0038 4E800421 		bctrl
 711 003c EFFF0072 		fmuls 31,31,1
 712              	.LVL60:
 713              	.L47:
 714              	.LBE2297:
 715              		.loc 2 253 0
 716 0040 80010014 		lwz 0,20(1)
 717 0044 FC20F890 		fmr 1,31
 718 0048 CBE10008 		lfd 31,8(1)
 719              	.LVL61:
 720 004c 7C0803A6 		mtlr 0
 721 0050 38210010 		addi 1,1,16
 722              	.LCFI10:
 723              		.cfi_def_cfa_offset 0
 724              		.cfi_restore 63
 725 0054 4E800020 		blr
 726              		.cfi_endproc
 727              	.LFE1410:
 728              		.size	_ZN10GuiElement9GetScaleYEv, .-_ZN10GuiElement9GetScaleYEv
 729              		.section	.text._ZN10GuiElement6RumbleEv,"axG",@progbits,_ZN10GuiElement6RumbleEv,comdat
 730              		.align 2
 731              		.weak	_ZN10GuiElement6RumbleEv
 732              		.type	_ZN10GuiElement6RumbleEv, @function
 733              	_ZN10GuiElement6RumbleEv:
 734              	.LFB1411:
 735              		.loc 2 256 0
 736              		.cfi_startproc
 737              	.LVL62:
 738              		.loc 2 256 0
 739 0000 8863001C 		lbz 3,28(3)
 740              	.LVL63:
 741 0004 4E800020 		blr
 742              		.cfi_endproc
 743              	.LFE1411:
 744              		.size	_ZN10GuiElement6RumbleEv, .-_ZN10GuiElement6RumbleEv
 745              		.section	.text._ZN10GuiElement9SetRumbleEb,"axG",@progbits,_ZN10GuiElement9SetRumbleEb,comdat
 746              		.align 2
 747              		.weak	_ZN10GuiElement9SetRumbleEb
 748              		.type	_ZN10GuiElement9SetRumbleEb, @function
 749              	_ZN10GuiElement9SetRumbleEb:
 750              	.LFB1412:
 751              		.loc 2 259 0
 752              		.cfi_startproc
 753              	.LVL64:
 754              		.loc 2 259 0
 755 0000 9883001C 		stb 4,28(3)
 756 0004 4E800020 		blr
 757              		.cfi_endproc
 758              	.LFE1412:
 759              		.size	_ZN10GuiElement9SetRumbleEb, .-_ZN10GuiElement9SetRumbleEb
 760              		.section	.text._ZN10GuiElement13SetEffectGrowEv,"axG",@progbits,_ZN10GuiElement13SetEffectGrowEv,c
 761              		.align 2
 762              		.weak	_ZN10GuiElement13SetEffectGrowEv
 763              		.type	_ZN10GuiElement13SetEffectGrowEv, @function
 764              	_ZN10GuiElement13SetEffectGrowEv:
 765              	.LFB1413:
 766              		.loc 2 271 0
 767              		.cfi_startproc
 768              	.LVL65:
 769 0000 7C0802A6 		mflr 0
 770 0004 9421FFF8 		stwu 1,-8(1)
 771              	.LCFI11:
 772              		.cfi_def_cfa_offset 8
 773              		.cfi_register 65, 0
 774 0008 81230000 		lwz 9,0(3)
 775 000c 38800100 		li 4,256
 776 0010 38A00004 		li 5,4
 777 0014 38C0006E 		li 6,110
 778 0018 9001000C 		stw 0,12(1)
 779              		.loc 2 271 0
 780 001c 8009008C 		lwz 0,140(9)
 781              		.cfi_offset 65, 4
 782 0020 7C0903A6 		mtctr 0
 783 0024 4E800421 		bctrl
 784              	.LVL66:
 785 0028 8001000C 		lwz 0,12(1)
 786 002c 38210008 		addi 1,1,8
 787              	.LCFI12:
 788              		.cfi_def_cfa_offset 0
 789 0030 7C0803A6 		mtlr 0
 790 0034 4E800020 		blr
 791              		.cfi_endproc
 792              	.LFE1413:
 793              		.size	_ZN10GuiElement13SetEffectGrowEv, .-_ZN10GuiElement13SetEffectGrowEv
 794              		.section	.text._ZNK10GuiElement9GetEffectEv,"axG",@progbits,_ZNK10GuiElement9GetEffectEv,comdat
 795              		.align 2
 796              		.weak	_ZNK10GuiElement9GetEffectEv
 797              		.type	_ZNK10GuiElement9GetEffectEv, @function
 798              	_ZNK10GuiElement9GetEffectEv:
 799              	.LFB1414:
 800              		.loc 2 276 0
 801              		.cfi_startproc
 802              	.LVL67:
 803              		.loc 2 276 0
 804 0000 80630078 		lwz 3,120(3)
 805              	.LVL68:
 806 0004 4E800020 		blr
 807              		.cfi_endproc
 808              	.LFE1414:
 809              		.size	_ZNK10GuiElement9GetEffectEv, .-_ZNK10GuiElement9GetEffectEv
 810              		.section	.text._ZNK10GuiElement10IsAnimatedEv,"axG",@progbits,_ZNK10GuiElement10IsAnimatedEv,comda
 811              		.align 2
 812              		.weak	_ZNK10GuiElement10IsAnimatedEv
 813              		.type	_ZNK10GuiElement10IsAnimatedEv, @function
 814              	_ZNK10GuiElement10IsAnimatedEv:
 815              	.LFB1415:
 816              		.loc 2 278 0
 817              		.cfi_startproc
 818              	.LVL69:
 819 0000 7C0802A6 		mflr 0
 820 0004 9421FFF8 		stwu 1,-8(1)
 821              	.LCFI13:
 822              		.cfi_def_cfa_offset 8
 823              		.cfi_register 65, 0
 824 0008 9001000C 		stw 0,12(1)
 825              		.loc 2 278 0
 826 000c 81230000 		lwz 9,0(3)
 827 0010 80090098 		lwz 0,152(9)
 828              		.cfi_offset 65, 4
 829 0014 7C0903A6 		mtctr 0
 830 0018 4E800421 		bctrl
 831              	.LVL70:
 832 001c 7C60FE70 		srawi 0,3,31
 833 0020 7C630050 		subf 3,3,0
 834 0024 8001000C 		lwz 0,12(1)
 835 0028 54630FFE 		srwi 3,3,31
 836 002c 7C0803A6 		mtlr 0
 837 0030 38210008 		addi 1,1,8
 838              	.LCFI14:
 839              		.cfi_def_cfa_offset 0
 840 0034 4E800020 		blr
 841              		.cfi_endproc
 842              	.LFE1415:
 843              		.size	_ZNK10GuiElement10IsAnimatedEv, .-_ZNK10GuiElement10IsAnimatedEv
 844              		.section	.text._ZN10GuiElement8IsInsideEii,"axG",@progbits,_ZN10GuiElement8IsInsideEii,comdat
 845              		.align 2
 846              		.weak	_ZN10GuiElement8IsInsideEii
 847              		.type	_ZN10GuiElement8IsInsideEii, @function
 848              	_ZN10GuiElement8IsInsideEii:
 849              	.LFB1417:
 850              		.loc 2 285 0
 851              		.cfi_startproc
 852              	.LVL71:
 853 0000 7C0802A6 		mflr 0
 854 0004 9421FFE8 		stwu 1,-24(1)
 855              	.LCFI15:
 856              		.cfi_def_cfa_offset 24
 857              		.cfi_register 65, 0
 858 0008 93810008 		stw 28,8(1)
 859 000c 7CBC2B78 		mr 28,5
 860              		.cfi_offset 28, -16
 861 0010 9001001C 		stw 0,28(1)
 862 0014 93A1000C 		stw 29,12(1)
 863              		.loc 2 290 0
 864 0018 3BA00000 		li 29,0
 865              		.cfi_offset 29, -12
 866              		.cfi_offset 65, 4
 867              		.loc 2 287 0
 868 001c 81230000 		lwz 9,0(3)
 869              		.loc 2 285 0
 870 0020 93C10010 		stw 30,16(1)
 871 0024 7C9E2378 		mr 30,4
 872              		.cfi_offset 30, -8
 873              		.loc 2 287 0
 874 0028 80090010 		lwz 0,16(9)
 875              		.loc 2 285 0
 876 002c 93E10014 		stw 31,20(1)
 877              		.loc 2 285 0
 878 0030 7C7F1B78 		mr 31,3
 879              		.cfi_offset 31, -4
 880              		.loc 2 287 0
 881 0034 7C0903A6 		mtctr 0
 882 0038 4E800421 		bctrl
 883              	.LVL72:
 884              		.loc 2 290 0
 885 003c 7F83F000 		cmpw 7,3,30
 886 0040 419C0028 		blt- 7,.L58
 887              	.L54:
 888              		.loc 2 291 0 discriminator 6
 889 0044 8001001C 		lwz 0,28(1)
 890 0048 7FA3EB78 		mr 3,29
 891 004c 83810008 		lwz 28,8(1)
 892              	.LVL73:
 893 0050 7C0803A6 		mtlr 0
 894 0054 83A1000C 		lwz 29,12(1)
 895 0058 83C10010 		lwz 30,16(1)
 896              	.LVL74:
 897 005c 83E10014 		lwz 31,20(1)
 898              	.LVL75:
 899 0060 38210018 		addi 1,1,24
 900              		.cfi_remember_state
 901              	.LCFI16:
 902              		.cfi_def_cfa_offset 0
 903              		.cfi_restore 31
 904              		.cfi_restore 30
 905              		.cfi_restore 29
 906              		.cfi_restore 28
 907 0064 4E800020 		blr
 908              	.LVL76:
 909              	.L58:
 910              	.LCFI17:
 911              		.cfi_restore_state
 912              		.loc 2 288 0 discriminator 1
 913 0068 813F0000 		lwz 9,0(31)
 914 006c 7FE3FB78 		mr 3,31
 915 0070 80090010 		lwz 0,16(9)
 916 0074 7C0903A6 		mtctr 0
 917 0078 4E800421 		bctrl
 918              		.loc 2 290 0 discriminator 1
 919 007c 801F0024 		lwz 0,36(31)
 920 0080 7C030214 		add 0,3,0
 921 0084 7F9E0000 		cmpw 7,30,0
 922 0088 409CFFBC 		bge+ 7,.L54
 923              		.loc 2 289 0 discriminator 3
 924 008c 813F0000 		lwz 9,0(31)
 925 0090 7FE3FB78 		mr 3,31
 926 0094 80090014 		lwz 0,20(9)
 927 0098 7C0903A6 		mtctr 0
 928 009c 4E800421 		bctrl
 929              		.loc 2 290 0 discriminator 3
 930 00a0 7F83E000 		cmpw 7,3,28
 931 00a4 409CFFA0 		bge+ 7,.L54
 932              		.loc 2 290 0 is_stmt 0 discriminator 4
 933 00a8 813F0000 		lwz 9,0(31)
 934 00ac 7FE3FB78 		mr 3,31
 935 00b0 80090014 		lwz 0,20(9)
 936 00b4 7C0903A6 		mtctr 0
 937 00b8 4E800421 		bctrl
 938 00bc 801F0028 		lwz 0,40(31)
 939 00c0 7C030214 		add 0,3,0
 940              		.loc 2 285 0 is_stmt 1 discriminator 4
 941 00c4 7F9C0000 		cmpw 7,28,0
 942 00c8 7FA00026 		mfcr 29
 943 00cc 57BDEFFE 		rlwinm 29,29,29,1
 944 00d0 4BFFFF74 		b .L54
 945              		.cfi_endproc
 946              	.LFE1417:
 947              		.size	_ZN10GuiElement8IsInsideEii, .-_ZN10GuiElement8IsInsideEii
 948              		.section	.text._ZN10GuiElement11SetPositionEii,"axG",@progbits,_ZN10GuiElement11SetPositionEii,com
 949              		.align 2
 950              		.weak	_ZN10GuiElement11SetPositionEii
 951              		.type	_ZN10GuiElement11SetPositionEii, @function
 952              	_ZN10GuiElement11SetPositionEii:
 953              	.LFB1418:
 954              		.loc 2 295 0
 955              		.cfi_startproc
 956              	.LVL77:
 957              		.loc 2 297 0
 958 0000 9083002C 		stw 4,44(3)
 959              		.loc 2 299 0
 960              		.loc 2 298 0
 961 0004 90A30030 		stw 5,48(3)
 962              		.loc 2 299 0
 963 0008 4E800020 		blr
 964              		.cfi_endproc
 965              	.LFE1418:
 966              		.size	_ZN10GuiElement11SetPositionEii, .-_ZN10GuiElement11SetPositionEii
 967              		.section	.text._ZN10GuiElement11SetPositionEiii,"axG",@progbits,_ZN10GuiElement11SetPositionEiii,c
 968              		.align 2
 969              		.weak	_ZN10GuiElement11SetPositionEiii
 970              		.type	_ZN10GuiElement11SetPositionEiii, @function
 971              	_ZN10GuiElement11SetPositionEiii:
 972              	.LFB1419:
 973              		.loc 2 304 0
 974              		.cfi_startproc
 975              	.LVL78:
 976              		.loc 2 306 0
 977 0000 9083002C 		stw 4,44(3)
 978              		.loc 2 309 0
 979              		.loc 2 307 0
 980 0004 90A30030 		stw 5,48(3)
 981              		.loc 2 308 0
 982 0008 90C30034 		stw 6,52(3)
 983              		.loc 2 309 0
 984 000c 4E800020 		blr
 985              		.cfi_endproc
 986              	.LFE1419:
 987              		.size	_ZN10GuiElement11SetPositionEiii, .-_ZN10GuiElement11SetPositionEiii
 988              		.section	.text._ZN10GuiElement12SetAlignmentEi,"axG",@progbits,_ZN10GuiElement12SetAlignmentEi,com
 989              		.align 2
 990              		.weak	_ZN10GuiElement12SetAlignmentEi
 991              		.type	_ZN10GuiElement12SetAlignmentEi, @function
 992              	_ZN10GuiElement12SetAlignmentEi:
 993              	.LFB1421:
 994              		.loc 2 316 0
 995              		.cfi_startproc
 996              	.LVL79:
 997              		.loc 2 316 0
 998 0000 90830044 		stw 4,68(3)
 999 0004 4E800020 		blr
 1000              		.cfi_endproc
 1001              	.LFE1421:
 1002              		.size	_ZN10GuiElement12SetAlignmentEi, .-_ZN10GuiElement12SetAlignmentEi
 1003              		.section	.text._ZNK10GuiElement12GetAlignmentEv,"axG",@progbits,_ZNK10GuiElement12GetAlignmentEv,c
 1004              		.align 2
 1005              		.weak	_ZNK10GuiElement12GetAlignmentEv
 1006              		.type	_ZNK10GuiElement12GetAlignmentEv, @function
 1007              	_ZNK10GuiElement12GetAlignmentEv:
 1008              	.LFB1422:
 1009              		.loc 2 318 0
 1010              		.cfi_startproc
 1011              	.LVL80:
 1012              		.loc 2 318 0
 1013 0000 80630044 		lwz 3,68(3)
 1014              	.LVL81:
 1015 0004 4E800020 		blr
 1016              		.cfi_endproc
 1017              	.LFE1422:
 1018              		.size	_ZNK10GuiElement12GetAlignmentEv, .-_ZNK10GuiElement12GetAlignmentEv
 1019              		.section	.text._ZN8GuiFrame4showEv,"axG",@progbits,_ZN8GuiFrame4showEv,comdat
 1020              		.align 2
 1021              		.weak	_ZN8GuiFrame4showEv
 1022              		.type	_ZN8GuiFrame4showEv, @function
 1023              	_ZN8GuiFrame4showEv:
 1024              	.LFB1431:
 1025              		.file 3 "d:/Projects/SaveGameManager/savegame-manager-gx/trunk/source/Prompts/../GUI/gui_frame.h"
 1026              		.loc 3 79 0
 1027              		.cfi_startproc
 1028              	.LVL82:
 1029              		.loc 3 79 0
 1030 0000 4E800020 		blr
 1031              		.cfi_endproc
 1032              	.LFE1431:
 1033              		.size	_ZN8GuiFrame4showEv, .-_ZN8GuiFrame4showEv
 1034              		.section	.text._ZN8GuiFrame4hideEv,"axG",@progbits,_ZN8GuiFrame4hideEv,comdat
 1035              		.align 2
 1036              		.weak	_ZN8GuiFrame4hideEv
 1037              		.type	_ZN8GuiFrame4hideEv, @function
 1038              	_ZN8GuiFrame4hideEv:
 1039              	.LFB1432:
 1040              		.loc 3 81 0
 1041              		.cfi_startproc
 1042              	.LVL83:
 1043              		.loc 3 81 0
 1044 0000 4E800020 		blr
 1045              		.cfi_endproc
 1046              	.LFE1432:
 1047              		.size	_ZN8GuiFrame4hideEv, .-_ZN8GuiFrame4hideEv
 1048              		.section	.text._ZN8GuiFrame4execEv,"axG",@progbits,_ZN8GuiFrame4execEv,comdat
 1049              		.align 2
 1050              		.weak	_ZN8GuiFrame4execEv
 1051              		.type	_ZN8GuiFrame4execEv, @function
 1052              	_ZN8GuiFrame4execEv:
 1053              	.LFB1433:
 1054              		.loc 3 83 0
 1055              		.cfi_startproc
 1056              	.LVL84:
 1057              		.loc 3 83 0
 1058 0000 4E800020 		blr
 1059              		.cfi_endproc
 1060              	.LFE1433:
 1061              		.size	_ZN8GuiFrame4execEv, .-_ZN8GuiFrame4execEv
 1062              		.section	.text._ZN8GuiFrame12updateEventsEv,"axG",@progbits,_ZN8GuiFrame12updateEventsEv,comdat
 1063              		.align 2
 1064              		.weak	_ZN8GuiFrame12updateEventsEv
 1065              		.type	_ZN8GuiFrame12updateEventsEv, @function
 1066              	_ZN8GuiFrame12updateEventsEv:
 1067              	.LFB1434:
 1068              		.loc 3 85 0
 1069              		.cfi_startproc
 1070              	.LVL85:
 1071              		.loc 3 85 0
 1072 0000 4E800020 		blr
 1073              		.cfi_endproc
 1074              	.LFE1434:
 1075              		.size	_ZN8GuiFrame12updateEventsEv, .-_ZN8GuiFrame12updateEventsEv
 1076              		.section	".text"
 1077              		.align 2
 1078              		.globl _ZN12NumpadWindow19OnCancelButtonClickEP9GuiButtoniRK6_POINT
 1079              		.type	_ZN12NumpadWindow19OnCancelButtonClickEP9GuiButtoniRK6_POINT, @function
 1080              	_ZN12NumpadWindow19OnCancelButtonClickEP9GuiButtoniRK6_POINT:
 1081              	.LFB1584:
 1082              		.file 4 "d:/Projects/SaveGameManager/savegame-manager-gx/trunk/source/Prompts/NumpadWindow.cpp"
 1083              		.loc 4 91 0
 1084              		.cfi_startproc
 1085              	.LVL86:
 1086              		.loc 4 92 0
 1087 0000 38000000 		li 0,0
 1088              		.loc 4 93 0
 1089              		.loc 4 92 0
 1090 0004 900300DC 		stw 0,220(3)
 1091              		.loc 4 93 0
 1092 0008 4E800020 		blr
 1093              		.cfi_endproc
 1094              	.LFE1584:
 1095              		.size	_ZN12NumpadWindow19OnCancelButtonClickEP9GuiButtoniRK6_POINT, .-_ZN12NumpadWindow19OnCancelB
 1096              		.section	.text._ZN7sigslot12_signal_baseINS_15single_threadedEED2Ev,"axG",@progbits,_ZN7sigslot12_
 1097              		.align 2
 1098              		.weak	_ZN7sigslot12_signal_baseINS_15single_threadedEED2Ev
 1099              		.type	_ZN7sigslot12_signal_baseINS_15single_threadedEED2Ev, @function
 1100              	_ZN7sigslot12_signal_baseINS_15single_threadedEED2Ev:
 1101              	.LFB1639:
 1102              		.loc 1 466 0
 1103              		.cfi_startproc
 1104              	.LVL87:
 1105              	.LBB2298:
 1106              	.LBB2299:
 1107              	.LBB2300:
 1108              	.LBB2301:
 1109              		.loc 1 105 0
 1110 0000 3D200000 		lis 9,_ZTVN7sigslot15single_threadedE+8@ha
 1111              	.LBE2301:
 1112              	.LBE2300:
 1113              	.LBE2299:
 1114              	.LBE2298:
 1115              		.loc 1 466 0
 1116              	.LBB2305:
 1117              	.LBB2304:
 1118              	.LBB2303:
 1119              	.LBB2302:
 1120              		.loc 1 105 0
 1121 0004 38090008 		la 0,_ZTVN7sigslot15single_threadedE+8@l(9)
 1122 0008 90030000 		stw 0,0(3)
 1123              	.LBE2302:
 1124              	.LBE2303:
 1125              	.LBE2304:
 1126              	.LBE2305:
 1127              		.loc 1 466 0
 1128 000c 4E800020 		blr
 1129              		.cfi_endproc
 1130              	.LFE1639:
 1131              		.size	_ZN7sigslot12_signal_baseINS_15single_threadedEED2Ev, .-_ZN7sigslot12_signal_baseINS_15singl
 1132              		.section	.text._ZN7sigslot17_connection_base3IP9GuiButtoniRK6_POINTNS_15single_threadedEED2Ev,"axG
 1133              		.align 2
 1134              		.weak	_ZN7sigslot17_connection_base3IP9GuiButtoniRK6_POINTNS_15single_threadedEED2Ev
 1135              		.type	_ZN7sigslot17_connection_base3IP9GuiButtoniRK6_POINTNS_15single_threadedEED2Ev, @function
 1136              	_ZN7sigslot17_connection_base3IP9GuiButtoniRK6_POINTNS_15single_threadedEED2Ev:
 1137              	.LFB1780:
 1138              		.loc 1 387 0
 1139              		.cfi_startproc
 1140              	.LVL88:
 1141              	.LBB2306:
 1142              		.loc 1 387 0
 1143 0000 3D200000 		lis 9,_ZTVN7sigslot17_connection_base3IP9GuiButtoniRK6_POINTNS_15single_threadedEEE+8@ha
 1144              	.LBE2306:
 1145              	.LBB2307:
 1146 0004 38090008 		la 0,_ZTVN7sigslot17_connection_base3IP9GuiButtoniRK6_POINTNS_15single_threadedEEE+8@l(9)
 1147 0008 90030000 		stw 0,0(3)
 1148              	.LBE2307:
 1149 000c 4E800020 		blr
 1150              		.cfi_endproc
 1151              	.LFE1780:
 1152              		.size	_ZN7sigslot17_connection_base3IP9GuiButtoniRK6_POINTNS_15single_threadedEED2Ev, .-_ZN7sigslo
 1153              		.section	.text._ZN7sigslot12_connection3I12NumpadWindowP9GuiButtoniRK6_POINTNS_15single_threadedEE
 1154              		.align 2
 1155              		.weak	_ZN7sigslot12_connection3I12NumpadWindowP9GuiButtoniRK6_POINTNS_15single_threadedEED2Ev
 1156              		.type	_ZN7sigslot12_connection3I12NumpadWindowP9GuiButtoniRK6_POINTNS_15single_threadedEED2Ev, @fu
 1157              	_ZN7sigslot12_connection3I12NumpadWindowP9GuiButtoniRK6_POINTNS_15single_threadedEED2Ev:
 1158              	.LFB2086:
 1159              		.loc 1 1783 0
 1160              		.cfi_startproc
 1161              	.LVL89:
 1162              	.LBB2308:
 1163              	.LBB2309:
 1164              	.LBB2310:
 1165              	.LBB2311:
 1166              		.loc 1 387 0
 1167 0000 3D200000 		lis 9,_ZTVN7sigslot17_connection_base3IP9GuiButtoniRK6_POINTNS_15single_threadedEEE+8@ha
 1168              	.LBE2311:
 1169              	.LBE2310:
 1170              	.LBE2309:
 1171              	.LBE2308:
 1172              		.loc 1 1786 0
 1173              	.LBB2315:
 1174              	.LBB2314:
 1175              	.LBB2313:
 1176              	.LBB2312:
 1177              		.loc 1 387 0
 1178 0004 38090008 		la 0,_ZTVN7sigslot17_connection_base3IP9GuiButtoniRK6_POINTNS_15single_threadedEEE+8@l(9)
 1179 0008 90030000 		stw 0,0(3)
 1180              	.LBE2312:
 1181              	.LBE2313:
 1182              	.LBE2314:
 1183              	.LBE2315:
 1184              		.loc 1 1786 0
 1185 000c 4E800020 		blr
 1186              		.cfi_endproc
 1187              	.LFE2086:
 1188              		.size	_ZN7sigslot12_connection3I12NumpadWindowP9GuiButtoniRK6_POINTNS_15single_threadedEED2Ev, .-_
 1189              		.section	.text._ZNK7sigslot12_connection3I12NumpadWindowP9GuiButtoniRK6_POINTNS_15single_threadedE
 1190              		.align 2
 1191              		.weak	_ZNK7sigslot12_connection3I12NumpadWindowP9GuiButtoniRK6_POINTNS_15single_threadedEE7getdest
 1192              		.type	_ZNK7sigslot12_connection3I12NumpadWindowP9GuiButtoniRK6_POINTNS_15single_threadedEE7getdest
 1193              	_ZNK7sigslot12_connection3I12NumpadWindowP9GuiButtoniRK6_POINTNS_15single_threadedEE7getdestEv:
 1194              	.LFB2089:
 1195              		.loc 1 1804 0
 1196              		.cfi_startproc
 1197              	.LVL90:
 1198              		.loc 1 1806 0
 1199 0000 81230004 		lwz 9,4(3)
 1200 0004 38600000 		li 3,0
 1201              	.LVL91:
 1202 0008 2F890000 		cmpwi 7,9,0
 1203 000c 4D9E0020 		beqlr- 7
 1204              		.loc 1 1806 0 is_stmt 0 discriminator 1
 1205 0010 386900B0 		addi 3,9,176
 1206              		.loc 1 1807 0 is_stmt 1 discriminator 1
 1207 0014 4E800020 		blr
 1208              		.cfi_endproc
 1209              	.LFE2089:
 1210              		.size	_ZNK7sigslot12_connection3I12NumpadWindowP9GuiButtoniRK6_POINTNS_15single_threadedEE7getdest
 1211              		.section	.text._ZN7sigslot12_connection3I12NumpadWindowP9GuiButtoniRK6_POINTNS_15single_threadedEE
 1212              		.align 2
 1213              		.weak	_ZN7sigslot12_connection3I12NumpadWindowP9GuiButtoniRK6_POINTNS_15single_threadedEE4emitES3_
 1214              		.type	_ZN7sigslot12_connection3I12NumpadWindowP9GuiButtoniRK6_POINTNS_15single_threadedEE4emitES3_
 1215              	_ZN7sigslot12_connection3I12NumpadWindowP9GuiButtoniRK6_POINTNS_15single_threadedEE4emitES3_iS6_:
 1216              	.LFB2090:
 1217              		.loc 1 1799 0
 1218              		.cfi_startproc
 1219              	.LVL92:
 1220 0000 7C0802A6 		mflr 0
 1221 0004 9421FFF8 		stwu 1,-8(1)
 1222              	.LCFI18:
 1223              		.cfi_def_cfa_offset 8
 1224              		.cfi_register 65, 0
 1225 0008 9001000C 		stw 0,12(1)
 1226              		.loc 1 1801 0
 1227 000c 80030008 		lwz 0,8(3)
 1228              		.cfi_offset 65, 4
 1229 0010 81630004 		lwz 11,4(3)
 1230 0014 70090001 		andi. 9,0,1
 1231 0018 8123000C 		lwz 9,12(3)
 1232 001c 40820020 		bne- 0,.L80
 1233 0020 7C0903A6 		mtctr 0
 1234 0024 7C6B4A14 		add 3,11,9
 1235              	.LVL93:
 1236 0028 4E800421 		bctrl
 1237              	.LVL94:
 1238              		.loc 1 1802 0
 1239 002c 8001000C 		lwz 0,12(1)
 1240 0030 38210008 		addi 1,1,8
 1241              		.cfi_remember_state
 1242              	.LCFI19:
 1243              		.cfi_def_cfa_offset 0
 1244 0034 7C0803A6 		mtlr 0
 1245 0038 4E800020 		blr
 1246              	.LVL95:
 1247              	.L80:
 1248              	.LCFI20:
 1249              		.cfi_restore_state
 1250              		.loc 1 1801 0 discriminator 1
 1251 003c 7D4B482E 		lwzx 10,11,9
 1252 0040 7C6B4A14 		add 3,11,9
 1253              	.LVL96:
 1254 0044 7D2A0214 		add 9,10,0
 1255 0048 8009FFFF 		lwz 0,-1(9)
 1256 004c 7C0903A6 		mtctr 0
 1257 0050 4E800421 		bctrl
 1258              	.LVL97:
 1259              		.loc 1 1802 0 discriminator 1
 1260 0054 8001000C 		lwz 0,12(1)
 1261 0058 38210008 		addi 1,1,8
 1262              	.LCFI21:
 1263              		.cfi_def_cfa_offset 0
 1264 005c 7C0803A6 		mtlr 0
 1265 0060 4E800020 		blr
 1266              		.cfi_endproc
 1267              	.LFE2090:
 1268              		.size	_ZN7sigslot12_connection3I12NumpadWindowP9GuiButtoniRK6_POINTNS_15single_threadedEE4emitES3_
 1269              		.section	.text._ZN7sigslot12_connection3I12NumpadWindowP9GuiButtoniRK6_POINTNS_15single_threadedEE
 1270              		.align 2
 1271              		.weak	_ZN7sigslot12_connection3I12NumpadWindowP9GuiButtoniRK6_POINTNS_15single_threadedEE9duplicat
 1272              		.type	_ZN7sigslot12_connection3I12NumpadWindowP9GuiButtoniRK6_POINTNS_15single_threadedEE9duplicat
 1273              	_ZN7sigslot12_connection3I12NumpadWindowP9GuiButtoniRK6_POINTNS_15single_threadedEE9duplicateEPNS_9
 1274              	.LFB2098:
 1275              		.loc 1 1794 0
 1276              		.cfi_startproc
 1277              	.LVL98:
 1278 0000 9421FFF0 		stwu 1,-16(1)
 1279              	.LCFI22:
 1280              		.cfi_def_cfa_offset 16
 1281 0004 7C0802A6 		mflr 0
 1282 0008 93C10008 		stw 30,8(1)
 1283 000c 7C9E2378 		mr 30,4
 1284              		.cfi_offset 30, -8
 1285              		.cfi_register 65, 0
 1286 0010 93E1000C 		stw 31,12(1)
 1287 0014 7C7F1B78 		mr 31,3
 1288              		.cfi_offset 31, -4
 1289              		.loc 1 1796 0
 1290 0018 38600010 		li 3,16
 1291              	.LVL99:
 1292              		.loc 1 1794 0
 1293 001c 90010014 		stw 0,20(1)
 1294              		.loc 1 1796 0
 1295              		.cfi_offset 65, 4
 1296 0020 48000001 		bl _Znwj
 1297              	.LVL100:
 1298 0024 2F9E0000 		cmpwi 7,30,0
 1299 0028 38000000 		li 0,0
 1300 002c 419E0008 		beq- 7,.L83
 1301              		.loc 1 1796 0 is_stmt 0 discriminator 1
 1302 0030 381EFF50 		addi 0,30,-176
 1303              	.L83:
 1304              	.LVL101:
 1305              		.loc 1 1796 0 discriminator 3
 1306 0034 817F0008 		lwz 11,8(31)
 1307              	.LVL102:
 1308              	.LBB2316:
 1309              	.LBB2317:
 1310              		.loc 1 1778 0 is_stmt 1 discriminator 3
 1311 0038 3D400000 		lis 10,_ZTVN7sigslot12_connection3I12NumpadWindowP9GuiButtoniRK6_POINTNS_15single_threadedEEE+8@ha
 1312              	.LBE2317:
 1313              	.LBE2316:
 1314              		.loc 1 1796 0 discriminator 3
 1315 003c 813F000C 		lwz 9,12(31)
 1316              	.LVL103:
 1317              	.LBB2320:
 1318              	.LBB2318:
 1319              		.loc 1 1778 0 discriminator 3
 1320 0040 394A0008 		la 10,_ZTVN7sigslot12_connection3I12NumpadWindowP9GuiButtoniRK6_POINTNS_15single_threadedEEE+8@l(1
 1321              		.loc 1 1780 0 discriminator 3
 1322 0044 91630008 		stw 11,8(3)
 1323 0048 9123000C 		stw 9,12(3)
 1324              		.loc 1 1779 0 discriminator 3
 1325 004c 90030004 		stw 0,4(3)
 1326              	.LBE2318:
 1327              	.LBE2320:
 1328              		.loc 1 1797 0 discriminator 3
 1329 0050 80010014 		lwz 0,20(1)
 1330              	.LVL104:
 1331 0054 83C10008 		lwz 30,8(1)
 1332              	.LVL105:
 1333 0058 7C0803A6 		mtlr 0
 1334 005c 83E1000C 		lwz 31,12(1)
 1335              	.LVL106:
 1336              	.LBB2321:
 1337              	.LBB2319:
 1338              		.loc 1 1778 0 discriminator 3
 1339 0060 91430000 		stw 10,0(3)
 1340              	.LBE2319:
 1341              	.LBE2321:
 1342              		.loc 1 1797 0 discriminator 3
 1343 0064 38210010 		addi 1,1,16
 1344              	.LCFI23:
 1345              		.cfi_def_cfa_offset 0
 1346              		.cfi_restore 31
 1347              		.cfi_restore 30
 1348 0068 4E800020 		blr
 1349              		.cfi_endproc
 1350              	.LFE2098:
 1351              		.size	_ZN7sigslot12_connection3I12NumpadWindowP9GuiButtoniRK6_POINTNS_15single_threadedEE9duplicat
 1352              		.section	.text._ZN7sigslot12_connection3I12NumpadWindowP9GuiButtoniRK6_POINTNS_15single_threadedEE
 1353              		.align 2
 1354              		.weak	_ZN7sigslot12_connection3I12NumpadWindowP9GuiButtoniRK6_POINTNS_15single_threadedEE5cloneEv
 1355              		.type	_ZN7sigslot12_connection3I12NumpadWindowP9GuiButtoniRK6_POINTNS_15single_threadedEE5cloneEv,
 1356              	_ZN7sigslot12_connection3I12NumpadWindowP9GuiButtoniRK6_POINTNS_15single_threadedEE5cloneEv:
 1357              	.LFB2091:
 1358              		.loc 1 1789 0
 1359              		.cfi_startproc
 1360              	.LVL107:
 1361 0000 9421FFF0 		stwu 1,-16(1)
 1362              	.LCFI24:
 1363              		.cfi_def_cfa_offset 16
 1364 0004 7C0802A6 		mflr 0
 1365 0008 93E1000C 		stw 31,12(1)
 1366 000c 7C7F1B78 		mr 31,3
 1367              		.cfi_offset 31, -4
 1368              		.cfi_register 65, 0
 1369              		.loc 1 1791 0
 1370 0010 38600010 		li 3,16
 1371              	.LVL108:
 1372              		.loc 1 1789 0
 1373 0014 90010014 		stw 0,20(1)
 1374              		.loc 1 1791 0
 1375              		.cfi_offset 65, 4
 1376 0018 48000001 		bl _Znwj
 1377              		.loc 4 93 0
 1378 001c 801F0004 		lwz 0,4(31)
 1379              	.LVL109:
 1380              	.LBB2322:
 1381              	.LBB2323:
 1382              		.loc 1 1767 0
 1383 0020 3D600000 		lis 11,_ZTVN7sigslot12_connection3I12NumpadWindowP9GuiButtoniRK6_POINTNS_15single_threadedEEE+8@ha
 1384 0024 396B0008 		la 11,_ZTVN7sigslot12_connection3I12NumpadWindowP9GuiButtoniRK6_POINTNS_15single_threadedEEE+8@l(1
 1385 0028 90030004 		stw 0,4(3)
 1386 002c 91630000 		stw 11,0(3)
 1387 0030 815F0008 		lwz 10,8(31)
 1388 0034 817F000C 		lwz 11,12(31)
 1389 0038 91430008 		stw 10,8(3)
 1390 003c 9163000C 		stw 11,12(3)
 1391              	.LBE2323:
 1392              	.LBE2322:
 1393              		.loc 1 1792 0
 1394 0040 80010014 		lwz 0,20(1)
 1395 0044 83E1000C 		lwz 31,12(1)
 1396              	.LVL110:
 1397 0048 7C0803A6 		mtlr 0
 1398 004c 38210010 		addi 1,1,16
 1399              	.LCFI25:
 1400              		.cfi_def_cfa_offset 0
 1401              		.cfi_restore 31
 1402 0050 4E800020 		blr
 1403              		.cfi_endproc
 1404              	.LFE2091:
 1405              		.size	_ZN7sigslot12_connection3I12NumpadWindowP9GuiButtoniRK6_POINTNS_15single_threadedEE5cloneEv,
 1406              		.section	.text._ZN7sigslot13_signal_base2IP12NumpadWindowPcNS_15single_threadedEE14slot_duplicateE
 1407              		.align 2
 1408              		.weak	_ZN7sigslot13_signal_base2IP12NumpadWindowPcNS_15single_threadedEE14slot_duplicateEPKNS_9has
 1409              		.type	_ZN7sigslot13_signal_base2IP12NumpadWindowPcNS_15single_threadedEE14slot_duplicateEPKNS_9has
 1410              	_ZN7sigslot13_signal_base2IP12NumpadWindowPcNS_15single_threadedEE14slot_duplicateEPKNS_9has_slotsI
 1411              	.LFB2100:
 1412              		.loc 1 806 0
 1413              		.cfi_startproc
 1414              		.cfi_personality 0,__gxx_personality_v0
 1415              		.cfi_lsda 0,.LLSDA2100
 1416              	.LVL111:
 1417 0000 7C0802A6 		mflr 0
 1418 0004 9421FFE0 		stwu 1,-32(1)
 1419              	.LCFI26:
 1420              		.cfi_def_cfa_offset 32
 1421              		.cfi_register 65, 0
 1422 0008 93410008 		stw 26,8(1)
 1423 000c 7CBA2B78 		mr 26,5
 1424              		.cfi_offset 26, -24
 1425 0010 90010024 		stw 0,36(1)
 1426 0014 9361000C 		stw 27,12(1)
 1427 0018 7C7B1B78 		mr 27,3
 1428              		.cfi_offset 27, -20
 1429              		.cfi_offset 65, 4
 1430              	.LVL112:
 1431              	.LBB2324:
 1432              	.LBB2325:
 1433              	.LBB2326:
 1434              		.loc 1 338 0
 1435 001c 81230000 		lwz 9,0(3)
 1436              	.LBE2326:
 1437              	.LBE2325:
 1438              	.LBE2324:
 1439              		.loc 1 806 0
 1440 0020 93A10014 		stw 29,20(1)
 1441 0024 7C9D2378 		mr 29,4
 1442              		.cfi_offset 29, -12
 1443              	.LBB2355:
 1444              	.LBB2331:
 1445              	.LBB2327:
 1446              		.loc 1 338 0
 1447 0028 80090008 		lwz 0,8(9)
 1448              	.LBE2327:
 1449              	.LBE2331:
 1450              	.LBE2355:
 1451              		.loc 1 806 0
 1452 002c 93C10018 		stw 30,24(1)
 1453              	.LBB2356:
 1454              	.LBB2332:
 1455              	.LBB2328:
 1456              		.loc 4 93 0
 1457 0030 7F7EDB78 		mr 30,27
 1458              		.cfi_offset 30, -8
 1459              	.LBE2328:
 1460              	.LBE2332:
 1461              	.LBE2356:
 1462              		.loc 1 806 0
 1463 0034 93E1001C 		stw 31,28(1)
 1464              	.LBB2357:
 1465              	.LBB2333:
 1466              	.LBB2329:
 1467              		.loc 1 338 0
 1468 0038 7C0903A6 		mtctr 0
 1469              	.LBE2329:
 1470              	.LBE2333:
 1471              	.LBE2357:
 1472              		.loc 1 806 0
 1473 003c 93810010 		stw 28,16(1)
 1474              	.LEHB0:
 1475              	.LBB2358:
 1476              	.LBB2334:
 1477              	.LBB2330:
 1478              		.loc 1 338 0
 1479              		.cfi_offset 28, -16
 1480              		.cfi_offset 31, -4
 1481 0040 4E800421 		bctrl
 1482              	.LEHE0:
 1483              	.LVL113:
 1484              		.loc 4 93 0
 1485 0044 87FE0004 		lwzu 31,4(30)
 1486              	.LVL114:
 1487              	.LBE2330:
 1488              	.LBE2334:
 1489              		.loc 1 812 0
 1490 0048 7F9FF000 		cmpw 7,31,30
 1491 004c 40BE0014 		bne+ 7,.L96
 1492 0050 48000070 		b .L87
 1493              	.LVL115:
 1494              	.L88:
 1495              	.LBB2335:
 1496              	.LBB2336:
 1497              		.file 5 "d:\\devkitpro\\devkitppc\\bin\\../lib/gcc/powerpc-eabi/4.6.3/../../../../powerpc-eabi/inc
 1498              		.loc 5 154 0
 1499 0054 83FF0000 		lwz 31,0(31)
 1500              	.LVL116:
 1501              	.LBE2336:
 1502              	.LBE2335:
 1503              		.loc 1 812 0
 1504 0058 7F9EF800 		cmpw 7,30,31
 1505 005c 419E0064 		beq- 7,.L87
 1506              	.LVL117:
 1507              	.L96:
 1508              		.loc 1 814 0
 1509 0060 807F0008 		lwz 3,8(31)
 1510 0064 81230000 		lwz 9,0(3)
 1511 0068 80090008 		lwz 0,8(9)
 1512 006c 7C0903A6 		mtctr 0
 1513              	.LEHB1:
 1514 0070 4E800421 		bctrl
 1515 0074 7F9D1800 		cmpw 7,29,3
 1516 0078 409EFFDC 		bne+ 7,.L88
 1517              	.LVL118:
 1518              		.loc 1 816 0
 1519 007c 807F0008 		lwz 3,8(31)
 1520 0080 7F44D378 		mr 4,26
 1521 0084 81230000 		lwz 9,0(3)
 1522 0088 80090014 		lwz 0,20(9)
 1523 008c 7C0903A6 		mtctr 0
 1524 0090 4E800421 		bctrl
 1525 0094 7C7C1B78 		mr 28,3
 1526              	.LVL119:
 1527              	.LBB2338:
 1528              	.LBB2339:
 1529              	.LBB2340:
 1530              	.LBB2341:
 1531              	.LBB2342:
 1532              	.LBB2343:
 1533              	.LBB2344:
 1534              	.LBB2345:
 1535              		.file 6 "d:\\devkitpro\\devkitppc\\bin\\../lib/gcc/powerpc-eabi/4.6.3/../../../../powerpc-eabi/inc
 1536              		.loc 6 92 0
 1537 0098 3860000C 		li 3,12
 1538 009c 48000001 		bl _Znwj
 1539              	.LEHE1:
 1540              	.LVL120:
 1541              	.LBE2345:
 1542              	.LBE2344:
 1543              	.LBE2343:
 1544              	.LBB2346:
 1545              	.LBB2347:
 1546              		.loc 6 108 0 discriminator 1
 1547 00a0 2F83FFF8 		cmpwi 7,3,-8
 1548 00a4 419E0008 		beq- 7,.L90
 1549              		.loc 6 108 0 is_stmt 0
 1550 00a8 93830008 		stw 28,8(3)
 1551              	.L90:
 1552              	.LVL121:
 1553              	.LBE2347:
 1554              	.LBE2346:
 1555              	.LBE2342:
 1556              	.LBE2341:
 1557              		.loc 5 1516 0 is_stmt 1
 1558 00ac 7FC4F378 		mr 4,30
 1559 00b0 48000001 		bl _ZNSt8__detail15_List_node_base7_M_hookEPS0_
 1560              	.LVL122:
 1561              	.LBE2340:
 1562              	.LBE2339:
 1563              	.LBE2338:
 1564              	.LBB2348:
 1565              	.LBB2337:
 1566              		.loc 5 154 0
 1567 00b4 83FF0000 		lwz 31,0(31)
 1568              	.LVL123:
 1569              	.LBE2337:
 1570              	.LBE2348:
 1571              		.loc 1 812 0
 1572 00b8 7F9EF800 		cmpw 7,30,31
 1573 00bc 409EFFA4 		bne+ 7,.L96
 1574              	.LVL124:
 1575              	.L87:
 1576              	.LBB2349:
 1577              	.LBB2350:
 1578              	.LBB2351:
 1579              		.loc 1 343 0
 1580 00c0 813B0000 		lwz 9,0(27)
 1581 00c4 7F63DB78 		mr 3,27
 1582 00c8 8009000C 		lwz 0,12(9)
 1583 00cc 7C0903A6 		mtctr 0
 1584              	.LEHB2:
 1585 00d0 4E800421 		bctrl
 1586              	.LEHE2:
 1587              	.LBE2351:
 1588              	.LBE2350:
 1589              	.LBE2349:
 1590              	.LBE2358:
 1591              		.loc 1 821 0
 1592 00d4 80010024 		lwz 0,36(1)
 1593 00d8 83410008 		lwz 26,8(1)
 1594              	.LVL125:
 1595 00dc 7C0803A6 		mtlr 0
 1596 00e0 8361000C 		lwz 27,12(1)
 1597              	.LVL126:
 1598 00e4 83810010 		lwz 28,16(1)
 1599 00e8 83A10014 		lwz 29,20(1)
 1600              	.LVL127:
 1601 00ec 83C10018 		lwz 30,24(1)
 1602              	.LVL128:
 1603 00f0 83E1001C 		lwz 31,28(1)
 1604              	.LVL129:
 1605 00f4 38210020 		addi 1,1,32
 1606              		.cfi_remember_state
 1607              	.LCFI27:
 1608              		.cfi_def_cfa_offset 0
 1609              		.cfi_restore 31
 1610              		.cfi_restore 30
 1611              		.cfi_restore 29
 1612              		.cfi_restore 28
 1613              		.cfi_restore 27
 1614              		.cfi_restore 26
 1615 00f8 4E800020 		blr
 1616              	.LVL130:
 1617              	.L95:
 1618              	.LCFI28:
 1619              		.cfi_restore_state
 1620              	.LBB2359:
 1621              	.LBB2352:
 1622              	.LBB2353:
 1623              	.LBB2354:
 1624              		.loc 1 343 0
 1625 00fc 813B0000 		lwz 9,0(27)
 1626 0100 7C7F1B78 		mr 31,3
 1627              	.LVL131:
 1628 0104 7F63DB78 		mr 3,27
 1629 0108 8009000C 		lwz 0,12(9)
 1630 010c 7C0903A6 		mtctr 0
 1631 0110 4E800421 		bctrl
 1632 0114 7FE3FB78 		mr 3,31
 1633              	.LEHB3:
 1634 0118 48000001 		bl _Unwind_Resume
 1635              	.LEHE3:
 1636              	.LBE2354:
 1637              	.LBE2353:
 1638              	.LBE2352:
 1639              	.LBE2359:
 1640              		.cfi_endproc
 1641              	.LFE2100:
 1642              		.globl __gxx_personality_v0
 1643              		.section	.gcc_except_table,"a",@progbits
 1644              	.LLSDA2100:
 1645 0000 FF       		.byte	0xff
 1646 0001 FF       		.byte	0xff
 1647 0002 01       		.byte	0x1
 1648 0003 13       		.uleb128 .LLSDACSE2100-.LLSDACSB2100
 1649              	.LLSDACSB2100:
 1650 0004 40       		.uleb128 .LEHB0-.LFB2100
 1651 0005 04       		.uleb128 .LEHE0-.LEHB0
 1652 0006 00       		.uleb128 0
 1653 0007 00       		.uleb128 0
 1654 0008 70       		.uleb128 .LEHB1-.LFB2100
 1655 0009 30       		.uleb128 .LEHE1-.LEHB1
 1656 000a FC01     		.uleb128 .L95-.LFB2100
 1657 000c 00       		.uleb128 0
 1658 000d D001     		.uleb128 .LEHB2-.LFB2100
 1659 000f 04       		.uleb128 .LEHE2-.LEHB2
 1660 0010 00       		.uleb128 0
 1661 0011 00       		.uleb128 0
 1662 0012 9802     		.uleb128 .LEHB3-.LFB2100
 1663 0014 04       		.uleb128 .LEHE3-.LEHB3
 1664 0015 00       		.uleb128 0
 1665 0016 00       		.uleb128 0
 1666              	.LLSDACSE2100:
 1667              		.section	.text._ZN7sigslot13_signal_base2IP12NumpadWindowPcNS_15single_threadedEE14slot_duplicateE
 1668              		.size	_ZN7sigslot13_signal_base2IP12NumpadWindowPcNS_15single_threadedEE14slot_duplicateEPKNS_9has
 1669              		.section	.text._ZN7sigslot12_connection3I12NumpadWindowP9GuiButtoniRK6_POINTNS_15single_threadedEE
 1670              		.align 2
 1671              		.weak	_ZN7sigslot12_connection3I12NumpadWindowP9GuiButtoniRK6_POINTNS_15single_threadedEED0Ev
 1672              		.type	_ZN7sigslot12_connection3I12NumpadWindowP9GuiButtoniRK6_POINTNS_15single_threadedEED0Ev, @fu
 1673              	_ZN7sigslot12_connection3I12NumpadWindowP9GuiButtoniRK6_POINTNS_15single_threadedEED0Ev:
 1674              	.LFB2088:
 1675              		.loc 1 1783 0
 1676              		.cfi_startproc
 1677              	.LVL132:
 1678 0000 7C0802A6 		mflr 0
 1679 0004 9421FFF8 		stwu 1,-8(1)
 1680              	.LCFI29:
 1681              		.cfi_def_cfa_offset 8
 1682              		.cfi_register 65, 0
 1683              	.LBB2360:
 1684              	.LBB2361:
 1685              	.LBB2362:
 1686              	.LBB2363:
 1687              	.LBB2364:
 1688              	.LBB2365:
 1689              		.loc 1 387 0
 1690 0008 3D200000 		lis 9,_ZTVN7sigslot17_connection_base3IP9GuiButtoniRK6_POINTNS_15single_threadedEEE+8@ha
 1691              	.LBE2365:
 1692              	.LBE2364:
 1693              	.LBE2363:
 1694              	.LBE2362:
 1695              	.LBE2361:
 1696              	.LBE2360:
 1697              		.loc 1 1783 0
 1698 000c 9001000C 		stw 0,12(1)
 1699              	.LBB2371:
 1700              	.LBB2370:
 1701              	.LBB2369:
 1702              	.LBB2368:
 1703              	.LBB2367:
 1704              	.LBB2366:
 1705              		.loc 1 387 0
 1706 0010 38090008 		la 0,_ZTVN7sigslot17_connection_base3IP9GuiButtoniRK6_POINTNS_15single_threadedEEE+8@l(9)
 1707              		.cfi_offset 65, 4
 1708 0014 90030000 		stw 0,0(3)
 1709              	.LBE2366:
 1710              	.LBE2367:
 1711              	.LBE2368:
 1712              	.LBE2369:
 1713              	.LBE2370:
 1714              	.LBE2371:
 1715              		.loc 1 1786 0
 1716 0018 48000001 		bl _ZdlPv
 1717              	.LVL133:
 1718 001c 8001000C 		lwz 0,12(1)
 1719 0020 38210008 		addi 1,1,8
 1720              	.LCFI30:
 1721              		.cfi_def_cfa_offset 0
 1722 0024 7C0803A6 		mtlr 0
 1723 0028 4E800020 		blr
 1724              		.cfi_endproc
 1725              	.LFE2088:
 1726              		.size	_ZN7sigslot12_connection3I12NumpadWindowP9GuiButtoniRK6_POINTNS_15single_threadedEED0Ev, .-_
 1727              		.section	.text._ZN7sigslot17_connection_base3IP9GuiButtoniRK6_POINTNS_15single_threadedEED0Ev,"axG
 1728              		.align 2
 1729              		.weak	_ZN7sigslot17_connection_base3IP9GuiButtoniRK6_POINTNS_15single_threadedEED0Ev
 1730              		.type	_ZN7sigslot17_connection_base3IP9GuiButtoniRK6_POINTNS_15single_threadedEED0Ev, @function
 1731              	_ZN7sigslot17_connection_base3IP9GuiButtoniRK6_POINTNS_15single_threadedEED0Ev:
 1732              	.LFB1782:
 1733              		.loc 1 387 0
 1734              		.cfi_startproc
 1735              	.LVL134:
 1736 0000 7C0802A6 		mflr 0
 1737 0004 9421FFF8 		stwu 1,-8(1)
 1738              	.LCFI31:
 1739              		.cfi_def_cfa_offset 8
 1740              		.cfi_register 65, 0
 1741              	.LBB2372:
 1742              	.LBB2373:
 1743              	.LBB2374:
 1744 0008 3D200000 		lis 9,_ZTVN7sigslot17_connection_base3IP9GuiButtoniRK6_POINTNS_15single_threadedEEE+8@ha
 1745              	.LBE2374:
 1746              	.LBE2373:
 1747              	.LBE2372:
 1748 000c 9001000C 		stw 0,12(1)
 1749              	.LBB2377:
 1750              	.LBB2376:
 1751              	.LBB2375:
 1752              		.loc 1 387 0
 1753 0010 38090008 		la 0,_ZTVN7sigslot17_connection_base3IP9GuiButtoniRK6_POINTNS_15single_threadedEEE+8@l(9)
 1754              		.cfi_offset 65, 4
 1755 0014 90030000 		stw 0,0(3)
 1756              	.LBE2375:
 1757              	.LBE2376:
 1758              	.LBE2377:
 1759 0018 48000001 		bl _ZdlPv
 1760              	.LVL135:
 1761 001c 8001000C 		lwz 0,12(1)
 1762 0020 38210008 		addi 1,1,8
 1763              	.LCFI32:
 1764              		.cfi_def_cfa_offset 0
 1765 0024 7C0803A6 		mtlr 0
 1766 0028 4E800020 		blr
 1767              		.cfi_endproc
 1768              	.LFE1782:
 1769              		.size	_ZN7sigslot17_connection_base3IP9GuiButtoniRK6_POINTNS_15single_threadedEED0Ev, .-_ZN7sigslo
 1770              		.section	.text._ZN7sigslot12_signal_baseINS_15single_threadedEED0Ev,"axG",@progbits,_ZN7sigslot12_
 1771              		.align 2
 1772              		.weak	_ZN7sigslot12_signal_baseINS_15single_threadedEED0Ev
 1773              		.type	_ZN7sigslot12_signal_baseINS_15single_threadedEED0Ev, @function
 1774              	_ZN7sigslot12_signal_baseINS_15single_threadedEED0Ev:
 1775              	.LFB1641:
 1776              		.loc 1 466 0
 1777              		.cfi_startproc
 1778              	.LVL136:
 1779 0000 7C0802A6 		mflr 0
 1780 0004 9421FFF8 		stwu 1,-8(1)
 1781              	.LCFI33:
 1782              		.cfi_def_cfa_offset 8
 1783              		.cfi_register 65, 0
 1784              	.LBB2378:
 1785              	.LBB2379:
 1786              	.LBB2380:
 1787              	.LBB2381:
 1788              	.LBB2382:
 1789              	.LBB2383:
 1790              		.loc 1 105 0
 1791 0008 3D200000 		lis 9,_ZTVN7sigslot15single_threadedE+8@ha
 1792              	.LBE2383:
 1793              	.LBE2382:
 1794              	.LBE2381:
 1795              	.LBE2380:
 1796              	.LBE2379:
 1797              	.LBE2378:
 1798              		.loc 1 466 0
 1799 000c 9001000C 		stw 0,12(1)
 1800              	.LBB2389:
 1801              	.LBB2388:
 1802              	.LBB2387:
 1803              	.LBB2386:
 1804              	.LBB2385:
 1805              	.LBB2384:
 1806              		.loc 1 105 0
 1807 0010 38090008 		la 0,_ZTVN7sigslot15single_threadedE+8@l(9)
 1808              		.cfi_offset 65, 4
 1809 0014 90030000 		stw 0,0(3)
 1810              	.LBE2384:
 1811              	.LBE2385:
 1812              	.LBE2386:
 1813              	.LBE2387:
 1814              	.LBE2388:
 1815              	.LBE2389:
 1816              		.loc 1 466 0
 1817 0018 48000001 		bl _ZdlPv
 1818              	.LVL137:
 1819 001c 8001000C 		lwz 0,12(1)
 1820 0020 38210008 		addi 1,1,8
 1821              	.LCFI34:
 1822              		.cfi_def_cfa_offset 0
 1823 0024 7C0803A6 		mtlr 0
 1824 0028 4E800020 		blr
 1825              		.cfi_endproc
 1826              	.LFE1641:
 1827              		.size	_ZN7sigslot12_signal_baseINS_15single_threadedEED0Ev, .-_ZN7sigslot12_signal_baseINS_15singl
 1828              		.section	.text._ZN7sigslot15single_threadedD0Ev,"axG",@progbits,_ZN7sigslot15single_threadedD5Ev,c
 1829              		.align 2
 1830              		.weak	_ZN7sigslot15single_threadedD0Ev
 1831              		.type	_ZN7sigslot15single_threadedD0Ev, @function
 1832              	_ZN7sigslot15single_threadedD0Ev:
 1833              	.LFB1150:
 1834              		.loc 1 104 0
 1835              		.cfi_startproc
 1836              	.LVL138:
 1837 0000 7C0802A6 		mflr 0
 1838 0004 9421FFF8 		stwu 1,-8(1)
 1839              	.LCFI35:
 1840              		.cfi_def_cfa_offset 8
 1841              		.cfi_register 65, 0
 1842              	.LBB2390:
 1843              	.LBB2391:
 1844              	.LBB2392:
 1845              		.loc 1 105 0
 1846 0008 3D200000 		lis 9,_ZTVN7sigslot15single_threadedE+8@ha
 1847              	.LBE2392:
 1848              	.LBE2391:
 1849              	.LBE2390:
 1850              		.loc 1 104 0
 1851 000c 9001000C 		stw 0,12(1)
 1852              	.LBB2395:
 1853              	.LBB2394:
 1854              	.LBB2393:
 1855              		.loc 1 105 0
 1856 0010 38090008 		la 0,_ZTVN7sigslot15single_threadedE+8@l(9)
 1857              		.cfi_offset 65, 4
 1858 0014 90030000 		stw 0,0(3)
 1859              	.LBE2393:
 1860              	.LBE2394:
 1861              	.LBE2395:
 1862              		.loc 1 107 0
 1863 0018 48000001 		bl _ZdlPv
 1864              	.LVL139:
 1865 001c 8001000C 		lwz 0,12(1)
 1866 0020 38210008 		addi 1,1,8
 1867              	.LCFI36:
 1868              		.cfi_def_cfa_offset 0
 1869 0024 7C0803A6 		mtlr 0
 1870 0028 4E800020 		blr
 1871              		.cfi_endproc
 1872              	.LFE1150:
 1873              		.size	_ZN7sigslot15single_threadedD0Ev, .-_ZN7sigslot15single_threadedD0Ev
 1874              		.section	.text._ZN7sigslot13_signal_base2IP12NumpadWindowPcNS_15single_threadedEE15slot_disconnect
 1875              		.align 2
 1876              		.weak	_ZN7sigslot13_signal_base2IP12NumpadWindowPcNS_15single_threadedEE15slot_disconnectEPNS_9has
 1877              		.type	_ZN7sigslot13_signal_base2IP12NumpadWindowPcNS_15single_threadedEE15slot_disconnectEPNS_9has
 1878              	_ZN7sigslot13_signal_base2IP12NumpadWindowPcNS_15single_threadedEE15slot_disconnectEPNS_9has_slotsI
 1879              	.LFB2099:
 1880              		.loc 1 870 0
 1881              		.cfi_startproc
 1882              		.cfi_personality 0,__gxx_personality_v0
 1883              		.cfi_lsda 0,.LLSDA2099
 1884              	.LVL140:
 1885 0000 7C0802A6 		mflr 0
 1886 0004 9421FFE0 		stwu 1,-32(1)
 1887              	.LCFI37:
 1888              		.cfi_def_cfa_offset 32
 1889              		.cfi_register 65, 0
 1890 0008 9361000C 		stw 27,12(1)
 1891 000c 7C7B1B78 		mr 27,3
 1892              		.cfi_offset 27, -20
 1893              	.LVL141:
 1894 0010 90010024 		stw 0,36(1)
 1895 0014 93810010 		stw 28,16(1)
 1896 0018 7C9C2378 		mr 28,4
 1897              		.cfi_offset 28, -16
 1898              		.cfi_offset 65, 4
 1899              	.LBB2396:
 1900              	.LBB2397:
 1901              	.LBB2398:
 1902              		.loc 1 338 0
 1903 001c 81230000 		lwz 9,0(3)
 1904              	.LBE2398:
 1905              	.LBE2397:
 1906              	.LBE2396:
 1907              		.loc 1 870 0
 1908 0020 93A10014 		stw 29,20(1)
 1909              	.LBB2419:
 1910              	.LBB2401:
 1911              	.LBB2399:
 1912              		.loc 4 93 0
 1913 0024 7F7DDB78 		mr 29,27
 1914              		.cfi_offset 29, -12
 1915              		.loc 1 338 0
 1916 0028 80090008 		lwz 0,8(9)
 1917              	.LBE2399:
 1918              	.LBE2401:
 1919              	.LBE2419:
 1920              		.loc 1 870 0
 1921 002c 93E1001C 		stw 31,28(1)
 1922 0030 93C10018 		stw 30,24(1)
 1923              	.LBB2420:
 1924              	.LBB2402:
 1925              	.LBB2400:
 1926              		.loc 1 338 0
 1927 0034 7C0903A6 		mtctr 0
 1928              	.LEHB4:
 1929              		.cfi_offset 30, -8
 1930              		.cfi_offset 31, -4
 1931 0038 4E800421 		bctrl
 1932              	.LEHE4:
 1933              	.LVL142:
 1934              		.loc 4 93 0
 1935 003c 87FD0004 		lwzu 31,4(29)
 1936              	.LVL143:
 1937              	.LBE2400:
 1938              	.LBE2402:
 1939              		.loc 1 876 0
 1940 0040 7F9FE800 		cmpw 7,31,29
 1941 0044 40BE0014 		bne+ 7,.L124
 1942 0048 48000064 		b .L113
 1943              	.LVL144:
 1944              	.L114:
 1945              		.loc 1 876 0 is_stmt 0 discriminator 1
 1946 004c 7F9DF000 		cmpw 7,29,30
 1947 0050 419E005C 		beq- 7,.L113
 1948              	.L122:
 1949              		.loc 1 876 0
 1950 0054 7FDFF378 		mr 31,30
 1951              	.LVL145:
 1952              	.L124:
 1953              	.LBB2403:
 1954              		.loc 1 881 0 is_stmt 1
 1955 0058 807F0008 		lwz 3,8(31)
 1956              	.LBB2404:
 1957              	.LBB2405:
 1958              		.loc 5 154 0
 1959 005c 83DF0000 		lwz 30,0(31)
 1960              	.LVL146:
 1961              	.LBE2405:
 1962              	.LBE2404:
 1963              		.loc 1 881 0
 1964 0060 81230000 		lwz 9,0(3)
 1965 0064 80090008 		lwz 0,8(9)
 1966 0068 7C0903A6 		mtctr 0
 1967              	.LEHB5:
 1968 006c 4E800421 		bctrl
 1969              	.LVL147:
 1970 0070 7F9C1800 		cmpw 7,28,3
 1971 0074 409EFFD8 		bne+ 7,.L114
 1972              	.LVL148:
 1973              		.loc 1 883 0
 1974 0078 807F0008 		lwz 3,8(31)
 1975 007c 2F830000 		cmpwi 7,3,0
 1976 0080 419E0014 		beq- 7,.L115
 1977              		.loc 1 883 0 is_stmt 0 discriminator 1
 1978 0084 81230000 		lwz 9,0(3)
 1979 0088 80090004 		lwz 0,4(9)
 1980 008c 7C0903A6 		mtctr 0
 1981 0090 4E800421 		bctrl
 1982              	.LEHE5:
 1983              	.L115:
 1984              	.LVL149:
 1985              	.LBB2406:
 1986              	.LBB2407:
 1987              	.LBB2408:
 1988              	.LBB2409:
 1989              		.loc 5 1532 0 is_stmt 1
 1990 0094 7FE3FB78 		mr 3,31
 1991 0098 48000001 		bl _ZNSt8__detail15_List_node_base9_M_unhookEv
 1992              	.LVL150:
 1993              	.LBB2410:
 1994              	.LBB2411:
 1995              	.LBB2412:
 1996              		.loc 6 98 0
 1997 009c 7FE3FB78 		mr 3,31
 1998 00a0 48000001 		bl _ZdlPv
 1999              	.LVL151:
 2000              	.LBE2412:
 2001              	.LBE2411:
 2002              	.LBE2410:
 2003              	.LBE2409:
 2004              	.LBE2408:
 2005              	.LBE2407:
 2006              	.LBE2406:
 2007              	.LBE2403:
 2008              		.loc 1 876 0
 2009 00a4 7F9DF000 		cmpw 7,29,30
 2010 00a8 409EFFAC 		bne+ 7,.L122
 2011              	.LVL152:
 2012              	.L113:
 2013              	.LBB2413:
 2014              	.LBB2414:
 2015              	.LBB2415:
 2016              		.loc 1 343 0
 2017 00ac 813B0000 		lwz 9,0(27)
 2018 00b0 7F63DB78 		mr 3,27
 2019 00b4 8009000C 		lwz 0,12(9)
 2020 00b8 7C0903A6 		mtctr 0
 2021              	.LEHB6:
 2022 00bc 4E800421 		bctrl
 2023              	.LEHE6:
 2024              	.LBE2415:
 2025              	.LBE2414:
 2026              	.LBE2413:
 2027              	.LBE2420:
 2028              		.loc 1 890 0
 2029 00c0 80010024 		lwz 0,36(1)
 2030 00c4 8361000C 		lwz 27,12(1)
 2031              	.LVL153:
 2032 00c8 7C0803A6 		mtlr 0
 2033 00cc 83810010 		lwz 28,16(1)
 2034              	.LVL154:
 2035 00d0 83A10014 		lwz 29,20(1)
 2036              	.LVL155:
 2037 00d4 83C10018 		lwz 30,24(1)
 2038 00d8 83E1001C 		lwz 31,28(1)
 2039 00dc 38210020 		addi 1,1,32
 2040              		.cfi_remember_state
 2041              	.LCFI38:
 2042              		.cfi_def_cfa_offset 0
 2043              		.cfi_restore 31
 2044              		.cfi_restore 30
 2045              		.cfi_restore 29
 2046              		.cfi_restore 28
 2047              		.cfi_restore 27
 2048 00e0 4E800020 		blr
 2049              	.LVL156:
 2050              	.L123:
 2051              	.LCFI39:
 2052              		.cfi_restore_state
 2053              	.LBB2421:
 2054              	.LBB2416:
 2055              	.LBB2417:
 2056              	.LBB2418:
 2057              		.loc 1 343 0
 2058 00e4 813B0000 		lwz 9,0(27)
 2059 00e8 7C7F1B78 		mr 31,3
 2060              	.LVL157:
 2061 00ec 7F63DB78 		mr 3,27
 2062 00f0 8009000C 		lwz 0,12(9)
 2063 00f4 7C0903A6 		mtctr 0
 2064 00f8 4E800421 		bctrl
 2065 00fc 7FE3FB78 		mr 3,31
 2066              	.LEHB7:
 2067 0100 48000001 		bl _Unwind_Resume
 2068              	.LEHE7:
 2069              	.LBE2418:
 2070              	.LBE2417:
 2071              	.LBE2416:
 2072              	.LBE2421:
 2073              		.cfi_endproc
 2074              	.LFE2099:
 2075              		.section	.gcc_except_table
 2076              	.LLSDA2099:
 2077 0017 FF       		.byte	0xff
 2078 0018 FF       		.byte	0xff
 2079 0019 01       		.byte	0x1
 2080 001a 13       		.uleb128 .LLSDACSE2099-.LLSDACSB2099
 2081              	.LLSDACSB2099:
 2082 001b 38       		.uleb128 .LEHB4-.LFB2099
 2083 001c 04       		.uleb128 .LEHE4-.LEHB4
 2084 001d 00       		.uleb128 0
 2085 001e 00       		.uleb128 0
 2086 001f 6C       		.uleb128 .LEHB5-.LFB2099
 2087 0020 28       		.uleb128 .LEHE5-.LEHB5
 2088 0021 E401     		.uleb128 .L123-.LFB2099
 2089 0023 00       		.uleb128 0
 2090 0024 BC01     		.uleb128 .LEHB6-.LFB2099
 2091 0026 04       		.uleb128 .LEHE6-.LEHB6
 2092 0027 00       		.uleb128 0
 2093 0028 00       		.uleb128 0
 2094 0029 8002     		.uleb128 .LEHB7-.LFB2099
 2095 002b 04       		.uleb128 .LEHE7-.LEHB7
 2096 002c 00       		.uleb128 0
 2097 002d 00       		.uleb128 0
 2098              	.LLSDACSE2099:
 2099              		.section	.text._ZN7sigslot13_signal_base2IP12NumpadWindowPcNS_15single_threadedEE15slot_disconnect
 2100              		.size	_ZN7sigslot13_signal_base2IP12NumpadWindowPcNS_15single_threadedEE15slot_disconnectEPNS_9has
 2101              		.section	".text"
 2102              		.align 2
 2103              		.globl _ZN12NumpadWindow15OnOkButtonClickEP9GuiButtoniRK6_POINT
 2104              		.type	_ZN12NumpadWindow15OnOkButtonClickEP9GuiButtoniRK6_POINT, @function
 2105              	_ZN12NumpadWindow15OnOkButtonClickEP9GuiButtoniRK6_POINT:
 2106              	.LFB1583:
 2107              		.loc 4 81 0
 2108              		.cfi_startproc
 2109              		.cfi_personality 0,__gxx_personality_v0
 2110              		.cfi_lsda 0,.LLSDA1583
 2111              	.LVL158:
 2112 000c 7C0802A6 		mflr 0
 2113 0010 9421FFE0 		stwu 1,-32(1)
 2114              	.LCFI40:
 2115              		.cfi_def_cfa_offset 32
 2116              		.cfi_register 65, 0
 2117 0014 9361000C 		stw 27,12(1)
 2118 0018 90010024 		stw 0,36(1)
 2119              		.loc 4 82 0
 2120 001c 38000001 		li 0,1
 2121              		.cfi_offset 65, 4
 2122              		.cfi_offset 27, -20
 2123              		.loc 4 81 0
 2124 0020 93810010 		stw 28,16(1)
 2125              		.loc 4 84 0
 2126 0024 808300FC 		lwz 4,252(3)
 2127              	.LVL159:
 2128              		.loc 4 81 0
 2129 0028 93A10014 		stw 29,20(1)
 2130 002c 93C10018 		stw 30,24(1)
 2131 0030 7C7E1B78 		mr 30,3
 2132              		.cfi_offset 30, -8
 2133              		.cfi_offset 29, -12
 2134              		.cfi_offset 28, -16
 2135 0034 93E1001C 		stw 31,28(1)
 2136              		.loc 4 84 0
 2137 0038 388400DC 		addi 4,4,220
 2138 003c 80A300D8 		lwz 5,216(3)
 2139              	.LVL160:
 2140              	.LBB2422:
 2141              	.LBB2423:
 2142              		.loc 1 2270 0
 2143 0040 3B7E00CC 		addi 27,30,204
 2144              	.LBE2423:
 2145              	.LBE2422:
 2146              		.loc 4 82 0
 2147 0044 900300DC 		stw 0,220(3)
 2148              	.LVL161:
 2149              	.LBB2443:
 2150              		.loc 4 93 0
 2151 0048 7FDDF378 		mr 29,30
 2152              	.LBE2443:
 2153              		.loc 4 84 0
 2154 004c 806300E0 		lwz 3,224(3)
 2155              	.LVL162:
 2156              		.cfi_offset 31, -4
 2157 0050 48000001 		bl strncpy
 2158              	.LVL163:
 2159              		.loc 4 85 0
 2160 0054 801E00D8 		lwz 0,216(30)
 2161 0058 813E00E0 		lwz 9,224(30)
 2162              	.LBB2444:
 2163              	.LBB2438:
 2164              	.LBB2424:
 2165              	.LBB2425:
 2166              		.loc 1 338 0
 2167 005c 7F63DB78 		mr 3,27
 2168              	.LBE2425:
 2169              	.LBE2424:
 2170              	.LBE2438:
 2171              	.LBE2444:
 2172              		.loc 4 85 0
 2173 0060 7D290214 		add 9,9,0
 2174 0064 38000000 		li 0,0
 2175 0068 9809FFFF 		stb 0,-1(9)
 2176              	.LBB2445:
 2177              	.LBB2439:
 2178              	.LBB2428:
 2179              	.LBB2426:
 2180              		.loc 1 338 0
 2181 006c 813E00CC 		lwz 9,204(30)
 2182              	.LBE2426:
 2183              	.LBE2428:
 2184              	.LBE2439:
 2185              	.LBE2445:
 2186              		.loc 4 87 0
 2187 0070 839E00E0 		lwz 28,224(30)
 2188              	.LVL164:
 2189              	.LBB2446:
 2190              	.LBB2440:
 2191              	.LBB2429:
 2192              	.LBB2427:
 2193              		.loc 1 338 0
 2194 0074 80090008 		lwz 0,8(9)
 2195 0078 7C0903A6 		mtctr 0
 2196              	.LEHB8:
 2197 007c 4E800421 		bctrl
 2198              	.LEHE8:
 2199              	.LVL165:
 2200              	.LBE2427:
 2201              	.LBE2429:
 2202              	.LBE2440:
 2203              		.loc 4 93 0
 2204 0080 87FD00D0 		lwzu 31,208(29)
 2205              	.LVL166:
 2206              	.LBB2441:
 2207              		.loc 1 2274 0
 2208 0084 7F9FE800 		cmpw 7,31,29
 2209 0088 419E002C 		beq- 7,.L126
 2210              	.LVL167:
 2211              	.L133:
 2212              		.loc 1 2279 0
 2213 008c 807F0008 		lwz 3,8(31)
 2214 0090 7FC4F378 		mr 4,30
 2215 0094 7F85E378 		mr 5,28
 2216              	.LBB2430:
 2217              	.LBB2431:
 2218              		.loc 5 234 0
 2219 0098 83FF0000 		lwz 31,0(31)
 2220              	.LVL168:
 2221              	.LBE2431:
 2222              	.LBE2430:
 2223              		.loc 1 2279 0
 2224 009c 81230000 		lwz 9,0(3)
 2225 00a0 8009000C 		lwz 0,12(9)
 2226 00a4 7C0903A6 		mtctr 0
 2227              	.LEHB9:
 2228 00a8 4E800421 		bctrl
 2229              	.LEHE9:
 2230              	.LVL169:
 2231              		.loc 1 2274 0
 2232 00ac 7F9DF800 		cmpw 7,29,31
 2233 00b0 409EFFDC 		bne+ 7,.L133
 2234              	.LVL170:
 2235              	.L126:
 2236              	.LBB2432:
 2237              	.LBB2433:
 2238              	.LBB2434:
 2239              		.loc 1 343 0
 2240 00b4 813E00CC 		lwz 9,204(30)
 2241 00b8 7F63DB78 		mr 3,27
 2242 00bc 8009000C 		lwz 0,12(9)
 2243 00c0 7C0903A6 		mtctr 0
 2244              	.LEHB10:
 2245 00c4 4E800421 		bctrl
 2246              	.LEHE10:
 2247              	.LBE2434:
 2248              	.LBE2433:
 2249              	.LBE2432:
 2250              	.LBE2441:
 2251              	.LBE2446:
 2252              		.loc 4 88 0
 2253 00c8 80010024 		lwz 0,36(1)
 2254 00cc 8361000C 		lwz 27,12(1)
 2255              	.LVL171:
 2256 00d0 7C0803A6 		mtlr 0
 2257 00d4 83810010 		lwz 28,16(1)
 2258              	.LVL172:
 2259 00d8 83A10014 		lwz 29,20(1)
 2260 00dc 83C10018 		lwz 30,24(1)
 2261              	.LVL173:
 2262 00e0 83E1001C 		lwz 31,28(1)
 2263              	.LVL174:
 2264 00e4 38210020 		addi 1,1,32
 2265              		.cfi_remember_state
 2266              	.LCFI41:
 2267              		.cfi_def_cfa_offset 0
 2268              		.cfi_restore 31
 2269              		.cfi_restore 30
 2270              		.cfi_restore 29
 2271              		.cfi_restore 28
 2272              		.cfi_restore 27
 2273 00e8 4E800020 		blr
 2274              	.LVL175:
 2275              	.L132:
 2276              	.LCFI42:
 2277              		.cfi_restore_state
 2278              	.LBB2447:
 2279              	.LBB2442:
 2280              	.LBB2435:
 2281              	.LBB2436:
 2282              	.LBB2437:
 2283              		.loc 1 343 0
 2284 00ec 813E00CC 		lwz 9,204(30)
 2285 00f0 7C7F1B78 		mr 31,3
 2286              	.LVL176:
 2287 00f4 7F63DB78 		mr 3,27
 2288 00f8 8009000C 		lwz 0,12(9)
 2289 00fc 7C0903A6 		mtctr 0
 2290 0100 4E800421 		bctrl
 2291 0104 7FE3FB78 		mr 3,31
 2292              	.LEHB11:
 2293 0108 48000001 		bl _Unwind_Resume
 2294              	.LEHE11:
 2295              	.LBE2437:
 2296              	.LBE2436:
 2297              	.LBE2435:
 2298              	.LBE2442:
 2299              	.LBE2447:
 2300              		.cfi_endproc
 2301              	.LFE1583:
 2302              		.section	.gcc_except_table
 2303              	.LLSDA1583:
 2304 002e FF       		.byte	0xff
 2305 002f FF       		.byte	0xff
 2306 0030 01       		.byte	0x1
 2307 0031 14       		.uleb128 .LLSDACSE1583-.LLSDACSB1583
 2308              	.LLSDACSB1583:
 2309 0032 70       		.uleb128 .LEHB8-.LFB1583
 2310 0033 04       		.uleb128 .LEHE8-.LEHB8
 2311 0034 00       		.uleb128 0
 2312 0035 00       		.uleb128 0
 2313 0036 9C01     		.uleb128 .LEHB9-.LFB1583
 2314 0038 04       		.uleb128 .LEHE9-.LEHB9
 2315 0039 E001     		.uleb128 .L132-.LFB1583
 2316 003b 00       		.uleb128 0
 2317 003c B801     		.uleb128 .LEHB10-.LFB1583
 2318 003e 04       		.uleb128 .LEHE10-.LEHB10
 2319 003f 00       		.uleb128 0
 2320 0040 00       		.uleb128 0
 2321 0041 FC01     		.uleb128 .LEHB11-.LFB1583
 2322 0043 04       		.uleb128 .LEHE11-.LEHB11
 2323 0044 00       		.uleb128 0
 2324 0045 00       		.uleb128 0
 2325              	.LLSDACSE1583:
 2326              		.section	".text"
 2327              		.size	_ZN12NumpadWindow15OnOkButtonClickEP9GuiButtoniRK6_POINT, .-_ZN12NumpadWindow15OnOkButtonCli
 2328              		.section	.text._ZNSt8_Rb_treeIPN7sigslot12_signal_baseINS0_15single_threadedEEES4_St9_IdentityIS4_
 2329              		.align 2
 2330              		.weak	_ZNSt8_Rb_treeIPN7sigslot12_signal_baseINS0_15single_threadedEEES4_St9_IdentityIS4_ESt4lessI
 2331              		.type	_ZNSt8_Rb_treeIPN7sigslot12_signal_baseINS0_15single_threadedEEES4_St9_IdentityIS4_ESt4lessI
 2332              	_ZNSt8_Rb_treeIPN7sigslot12_signal_baseINS0_15single_threadedEEES4_St9_IdentityIS4_ESt4lessIS4_ESaI
 2333              	.LFB1761:
 2334              		.file 7 "d:\\devkitpro\\devkitppc\\bin\\../lib/gcc/powerpc-eabi/4.6.3/../../../../powerpc-eabi/inc
 2335              		.loc 7 1068 0
 2336              		.cfi_startproc
 2337              	.LVL177:
 2338 0000 9421FFC8 		stwu 1,-56(1)
 2339              	.LCFI43:
 2340              		.cfi_def_cfa_offset 56
 2341 0004 7C0802A6 		mflr 0
 2342 0008 92C10010 		stw 22,16(1)
 2343              	.LBB2564:
 2344              		.loc 7 1072 0
 2345 000c 7C962379 		mr. 22,4
 2346              		.cfi_offset 22, -40
 2347              		.cfi_register 65, 0
 2348              	.LBE2564:
 2349              		.loc 7 1068 0
 2350 0010 93C10030 		stw 30,48(1)
 2351 0014 7C7E1B78 		mr 30,3
 2352              		.cfi_offset 30, -8
 2353 0018 9001003C 		stw 0,60(1)
 2354 001c 92A1000C 		stw 21,12(1)
 2355 0020 92E10014 		stw 23,20(1)
 2356 0024 93010018 		stw 24,24(1)
 2357 0028 9321001C 		stw 25,28(1)
 2358 002c 93410020 		stw 26,32(1)
 2359 0030 93610024 		stw 27,36(1)
 2360 0034 93810028 		stw 28,40(1)
 2361 0038 93A1002C 		stw 29,44(1)
 2362 003c 93E10034 		stw 31,52(1)
 2363              	.LBB2649:
 2364              		.loc 7 1072 0
 2365 0040 41820168 		beq- 0,.L134
 2366              		.cfi_offset 31, -4
 2367              		.cfi_offset 29, -12
 2368              		.cfi_offset 28, -16
 2369              		.cfi_offset 27, -20
 2370              		.cfi_offset 26, -24
 2371              		.cfi_offset 25, -28
 2372              		.cfi_offset 24, -32
 2373              		.cfi_offset 23, -36
 2374              		.cfi_offset 21, -44
 2375              		.cfi_offset 65, 4
 2376              	.LVL178:
 2377              	.L180:
 2378              		.loc 4 93 0
 2379 0044 8376000C 		lwz 27,12(22)
 2380              	.LVL179:
 2381              	.LBB2565:
 2382              	.LBB2566:
 2383              	.LBB2567:
 2384              		.loc 7 1072 0
 2385 0048 2F9B0000 		cmpwi 7,27,0
 2386 004c 419E0140 		beq- 7,.L136
 2387              	.LVL180:
 2388              	.L181:
 2389              	.LBE2567:
 2390              		.loc 4 93 0
 2391 0050 835B000C 		lwz 26,12(27)
 2392              	.LVL181:
 2393              	.LBB2643:
 2394              	.LBB2568:
 2395              	.LBB2569:
 2396              	.LBB2570:
 2397              		.loc 7 1072 0
 2398 0054 2F9A0000 		cmpwi 7,26,0
 2399 0058 419E0118 		beq- 7,.L137
 2400              	.LVL182:
 2401              	.L182:
 2402              	.LBE2570:
 2403              		.loc 4 93 0
 2404 005c 833A000C 		lwz 25,12(26)
 2405              	.LVL183:
 2406              	.LBB2636:
 2407              	.LBB2571:
 2408              	.LBB2572:
 2409              	.LBB2573:
 2410              		.loc 7 1072 0
 2411 0060 2F990000 		cmpwi 7,25,0
 2412 0064 419E00F0 		beq- 7,.L138
 2413              	.LVL184:
 2414              	.L183:
 2415              	.LBE2573:
 2416              		.loc 4 93 0
 2417 0068 8319000C 		lwz 24,12(25)
 2418              	.LVL185:
 2419              	.LBB2629:
 2420              	.LBB2574:
 2421              	.LBB2575:
 2422              	.LBB2576:
 2423              		.loc 7 1072 0
 2424 006c 2F980000 		cmpwi 7,24,0
 2425 0070 419E00C8 		beq- 7,.L139
 2426              	.LVL186:
 2427              	.L184:
 2428              	.LBE2576:
 2429              		.loc 4 93 0
 2430 0074 82F8000C 		lwz 23,12(24)
 2431              	.LVL187:
 2432              	.LBB2622:
 2433              	.LBB2577:
 2434              	.LBB2578:
 2435              	.LBB2579:
 2436              		.loc 7 1072 0
 2437 0078 2F970000 		cmpwi 7,23,0
 2438 007c 419E00A0 		beq- 7,.L140
 2439              	.LVL188:
 2440              	.L185:
 2441              	.LBE2579:
 2442              		.loc 4 93 0
 2443 0080 8397000C 		lwz 28,12(23)
 2444              	.LVL189:
 2445              	.LBB2615:
 2446              	.LBB2580:
 2447              	.LBB2581:
 2448              	.LBB2582:
 2449              		.loc 7 1072 0
 2450 0084 2F9C0000 		cmpwi 7,28,0
 2451 0088 419E0078 		beq- 7,.L141
 2452              	.LVL190:
 2453              	.L186:
 2454              	.LBE2582:
 2455              		.loc 4 93 0
 2456 008c 83BC000C 		lwz 29,12(28)
 2457              	.LVL191:
 2458              	.LBB2608:
 2459              	.LBB2583:
 2460              	.LBB2584:
 2461              	.LBB2585:
 2462              		.loc 7 1072 0
 2463 0090 2F9D0000 		cmpwi 7,29,0
 2464 0094 419E0050 		beq- 7,.L142
 2465              	.LVL192:
 2466              	.L187:
 2467              	.LBE2585:
 2468              		.loc 4 93 0
 2469 0098 83FD000C 		lwz 31,12(29)
 2470              	.LVL193:
 2471              	.LBB2601:
 2472              	.LBB2586:
 2473              	.LBB2587:
 2474              	.LBB2588:
 2475              		.loc 7 1072 0
 2476 009c 2F9F0000 		cmpwi 7,31,0
 2477 00a0 419E0028 		beq- 7,.L143
 2478              	.LVL194:
 2479              	.L188:
 2480              	.LBB2589:
 2481              		.loc 7 1074 0
 2482 00a4 809F000C 		lwz 4,12(31)
 2483 00a8 7FC3F378 		mr 3,30
 2484 00ac 48000001 		bl _ZNSt8_Rb_treeIPN7sigslot12_signal_baseINS0_15single_threadedEEES4_St9_IdentityIS4_ESt4lessIS4_
 2485              	.LBE2589:
 2486              	.LBE2588:
 2487              		.loc 4 93 0
 2488 00b0 82BF0008 		lwz 21,8(31)
 2489              	.LVL195:
 2490              	.LBB2595:
 2491              	.LBB2594:
 2492              	.LBB2590:
 2493              	.LBB2591:
 2494              	.LBB2592:
 2495              	.LBB2593:
 2496              		.loc 6 98 0
 2497 00b4 7FE3FB78 		mr 3,31
 2498 00b8 48000001 		bl _ZdlPv
 2499              	.LVL196:
 2500              	.LBE2593:
 2501              	.LBE2592:
 2502              	.LBE2591:
 2503              	.LBE2590:
 2504              	.LBE2594:
 2505              		.loc 7 1072 0
 2506 00bc 2F950000 		cmpwi 7,21,0
 2507              		.loc 7 1077 0
 2508 00c0 7EBFAB78 		mr 31,21
 2509              	.LVL197:
 2510              		.loc 7 1072 0
 2511 00c4 409EFFE0 		bne+ 7,.L188
 2512              	.LVL198:
 2513              	.L143:
 2514              	.LBE2595:
 2515              	.LBE2587:
 2516              	.LBE2586:
 2517              	.LBE2601:
 2518              		.loc 4 93 0
 2519 00c8 83FD0008 		lwz 31,8(29)
 2520              	.LVL199:
 2521              	.LBB2602:
 2522              	.LBB2600:
 2523              	.LBB2596:
 2524              	.LBB2597:
 2525              	.LBB2598:
 2526              	.LBB2599:
 2527              		.loc 6 98 0
 2528 00cc 7FA3EB78 		mr 3,29
 2529 00d0 48000001 		bl _ZdlPv
 2530              	.LVL200:
 2531              	.LBE2599:
 2532              	.LBE2598:
 2533              	.LBE2597:
 2534              	.LBE2596:
 2535              	.LBE2600:
 2536              		.loc 7 1072 0
 2537 00d4 2F9F0000 		cmpwi 7,31,0
 2538 00d8 419E000C 		beq- 7,.L142
 2539              		.loc 7 1077 0
 2540 00dc 7FFDFB78 		mr 29,31
 2541              	.LVL201:
 2542 00e0 4BFFFFB8 		b .L187
 2543              	.LVL202:
 2544              	.L142:
 2545              	.LBE2602:
 2546              	.LBE2584:
 2547              	.LBE2583:
 2548              	.LBE2608:
 2549              		.loc 4 93 0
 2550 00e4 83FC0008 		lwz 31,8(28)
 2551              	.LVL203:
 2552              	.LBB2609:
 2553              	.LBB2607:
 2554              	.LBB2603:
 2555              	.LBB2604:
 2556              	.LBB2605:
 2557              	.LBB2606:
 2558              		.loc 6 98 0
 2559 00e8 7F83E378 		mr 3,28
 2560 00ec 48000001 		bl _ZdlPv
 2561              	.LVL204:
 2562              	.LBE2606:
 2563              	.LBE2605:
 2564              	.LBE2604:
 2565              	.LBE2603:
 2566              	.LBE2607:
 2567              		.loc 7 1072 0
 2568 00f0 2F9F0000 		cmpwi 7,31,0
 2569 00f4 419E000C 		beq- 7,.L141
 2570              		.loc 7 1077 0
 2571 00f8 7FFCFB78 		mr 28,31
 2572              	.LVL205:
 2573 00fc 4BFFFF90 		b .L186
 2574              	.LVL206:
 2575              	.L141:
 2576              	.LBE2609:
 2577              	.LBE2581:
 2578              	.LBE2580:
 2579              	.LBE2615:
 2580              		.loc 4 93 0
 2581 0100 83F70008 		lwz 31,8(23)
 2582              	.LVL207:
 2583              	.LBB2616:
 2584              	.LBB2614:
 2585              	.LBB2610:
 2586              	.LBB2611:
 2587              	.LBB2612:
 2588              	.LBB2613:
 2589              		.loc 6 98 0
 2590 0104 7EE3BB78 		mr 3,23
 2591 0108 48000001 		bl _ZdlPv
 2592              	.LVL208:
 2593              	.LBE2613:
 2594              	.LBE2612:
 2595              	.LBE2611:
 2596              	.LBE2610:
 2597              	.LBE2614:
 2598              		.loc 7 1072 0
 2599 010c 2F9F0000 		cmpwi 7,31,0
 2600 0110 419E000C 		beq- 7,.L140
 2601              		.loc 7 1077 0
 2602 0114 7FF7FB78 		mr 23,31
 2603              	.LVL209:
 2604 0118 4BFFFF68 		b .L185
 2605              	.LVL210:
 2606              	.L140:
 2607              	.LBE2616:
 2608              	.LBE2578:
 2609              	.LBE2577:
 2610              	.LBE2622:
 2611              		.loc 4 93 0
 2612 011c 83F80008 		lwz 31,8(24)
 2613              	.LVL211:
 2614              	.LBB2623:
 2615              	.LBB2621:
 2616              	.LBB2617:
 2617              	.LBB2618:
 2618              	.LBB2619:
 2619              	.LBB2620:
 2620              		.loc 6 98 0
 2621 0120 7F03C378 		mr 3,24
 2622 0124 48000001 		bl _ZdlPv
 2623              	.LVL212:
 2624              	.LBE2620:
 2625              	.LBE2619:
 2626              	.LBE2618:
 2627              	.LBE2617:
 2628              	.LBE2621:
 2629              		.loc 7 1072 0
 2630 0128 2F9F0000 		cmpwi 7,31,0
 2631 012c 419E000C 		beq- 7,.L139
 2632              		.loc 7 1077 0
 2633 0130 7FF8FB78 		mr 24,31
 2634              	.LVL213:
 2635 0134 4BFFFF40 		b .L184
 2636              	.LVL214:
 2637              	.L139:
 2638              	.LBE2623:
 2639              	.LBE2575:
 2640              	.LBE2574:
 2641              	.LBE2629:
 2642              		.loc 4 93 0
 2643 0138 83F90008 		lwz 31,8(25)
 2644              	.LVL215:
 2645              	.LBB2630:
 2646              	.LBB2628:
 2647              	.LBB2624:
 2648              	.LBB2625:
 2649              	.LBB2626:
 2650              	.LBB2627:
 2651              		.loc 6 98 0
 2652 013c 7F23CB78 		mr 3,25
 2653 0140 48000001 		bl _ZdlPv
 2654              	.LVL216:
 2655              	.LBE2627:
 2656              	.LBE2626:
 2657              	.LBE2625:
 2658              	.LBE2624:
 2659              	.LBE2628:
 2660              		.loc 7 1072 0
 2661 0144 2F9F0000 		cmpwi 7,31,0
 2662 0148 419E000C 		beq- 7,.L138
 2663              		.loc 7 1077 0
 2664 014c 7FF9FB78 		mr 25,31
 2665              	.LVL217:
 2666 0150 4BFFFF18 		b .L183
 2667              	.LVL218:
 2668              	.L138:
 2669              	.LBE2630:
 2670              	.LBE2572:
 2671              	.LBE2571:
 2672              	.LBE2636:
 2673              		.loc 4 93 0
 2674 0154 83FA0008 		lwz 31,8(26)
 2675              	.LVL219:
 2676              	.LBB2637:
 2677              	.LBB2635:
 2678              	.LBB2631:
 2679              	.LBB2632:
 2680              	.LBB2633:
 2681              	.LBB2634:
 2682              		.loc 6 98 0
 2683 0158 7F43D378 		mr 3,26
 2684 015c 48000001 		bl _ZdlPv
 2685              	.LVL220:
 2686              	.LBE2634:
 2687              	.LBE2633:
 2688              	.LBE2632:
 2689              	.LBE2631:
 2690              	.LBE2635:
 2691              		.loc 7 1072 0
 2692 0160 2F9F0000 		cmpwi 7,31,0
 2693 0164 419E000C 		beq- 7,.L137
 2694              		.loc 7 1077 0
 2695 0168 7FFAFB78 		mr 26,31
 2696              	.LVL221:
 2697 016c 4BFFFEF0 		b .L182
 2698              	.LVL222:
 2699              	.L137:
 2700              	.LBE2637:
 2701              	.LBE2569:
 2702              	.LBE2568:
 2703              	.LBE2643:
 2704              		.loc 4 93 0
 2705 0170 83FB0008 		lwz 31,8(27)
 2706              	.LVL223:
 2707              	.LBB2644:
 2708              	.LBB2642:
 2709              	.LBB2638:
 2710              	.LBB2639:
 2711              	.LBB2640:
 2712              	.LBB2641:
 2713              		.loc 6 98 0
 2714 0174 7F63DB78 		mr 3,27
 2715 0178 48000001 		bl _ZdlPv
 2716              	.LVL224:
 2717              	.LBE2641:
 2718              	.LBE2640:
 2719              	.LBE2639:
 2720              	.LBE2638:
 2721              	.LBE2642:
 2722              		.loc 7 1072 0
 2723 017c 2F9F0000 		cmpwi 7,31,0
 2724 0180 419E000C 		beq- 7,.L136
 2725              		.loc 7 1077 0
 2726 0184 7FFBFB78 		mr 27,31
 2727              	.LVL225:
 2728 0188 4BFFFEC8 		b .L181
 2729              	.LVL226:
 2730              	.L136:
 2731              		.loc 4 93 0
 2732 018c 83F60008 		lwz 31,8(22)
 2733              	.LVL227:
 2734              	.LBE2644:
 2735              	.LBE2566:
 2736              	.LBB2645:
 2737              	.LBB2646:
 2738              	.LBB2647:
 2739              	.LBB2648:
 2740              		.loc 6 98 0
 2741 0190 7EC3B378 		mr 3,22
 2742 0194 48000001 		bl _ZdlPv
 2743              	.LVL228:
 2744              	.LBE2648:
 2745              	.LBE2647:
 2746              	.LBE2646:
 2747              	.LBE2645:
 2748              	.LBE2565:
 2749              		.loc 7 1072 0
 2750 0198 2F9F0000 		cmpwi 7,31,0
 2751 019c 419E000C 		beq- 7,.L134
 2752              		.loc 7 1077 0
 2753 01a0 7FF6FB78 		mr 22,31
 2754              	.LVL229:
 2755 01a4 4BFFFEA0 		b .L180
 2756              	.LVL230:
 2757              	.L134:
 2758              	.LBE2649:
 2759              		.loc 7 1079 0
 2760 01a8 8001003C 		lwz 0,60(1)
 2761 01ac 82A1000C 		lwz 21,12(1)
 2762 01b0 7C0803A6 		mtlr 0
 2763 01b4 82C10010 		lwz 22,16(1)
 2764 01b8 82E10014 		lwz 23,20(1)
 2765 01bc 83010018 		lwz 24,24(1)
 2766 01c0 8321001C 		lwz 25,28(1)
 2767 01c4 83410020 		lwz 26,32(1)
 2768 01c8 83610024 		lwz 27,36(1)
 2769 01cc 83810028 		lwz 28,40(1)
 2770 01d0 83A1002C 		lwz 29,44(1)
 2771 01d4 83C10030 		lwz 30,48(1)
 2772              	.LVL231:
 2773 01d8 83E10034 		lwz 31,52(1)
 2774 01dc 38210038 		addi 1,1,56
 2775              	.LCFI44:
 2776              		.cfi_def_cfa_offset 0
 2777              		.cfi_restore 31
 2778              		.cfi_restore 30
 2779              		.cfi_restore 29
 2780              		.cfi_restore 28
 2781              		.cfi_restore 27
 2782              		.cfi_restore 26
 2783              		.cfi_restore 25
 2784              		.cfi_restore 24
 2785              		.cfi_restore 23
 2786              		.cfi_restore 22
 2787              		.cfi_restore 21
 2788 01e0 4E800020 		blr
 2789              		.cfi_endproc
 2790              	.LFE1761:
 2791              		.size	_ZNSt8_Rb_treeIPN7sigslot12_signal_baseINS0_15single_threadedEEES4_St9_IdentityIS4_ESt4lessI
 2792              		.section	.text._ZN7sigslot9has_slotsINS_15single_threadedEED2Ev,"axG",@progbits,_ZN7sigslot9has_sl
 2793              		.align 2
 2794              		.weak	_ZN7sigslot9has_slotsINS_15single_threadedEED2Ev
 2795              		.type	_ZN7sigslot9has_slotsINS_15single_threadedEED2Ev, @function
 2796              	_ZN7sigslot9has_slotsINS_15single_threadedEED2Ev:
 2797              	.LFB1618:
 2798              		.loc 1 513 0
 2799              		.cfi_startproc
 2800              		.cfi_personality 0,__gxx_personality_v0
 2801              		.cfi_lsda 0,.LLSDA1618
 2802              	.LVL232:
 2803 0000 7C0802A6 		mflr 0
 2804 0004 9421FFE0 		stwu 1,-32(1)
 2805              	.LCFI45:
 2806              		.cfi_def_cfa_offset 32
 2807              		.cfi_register 65, 0
 2808              	.LBB2796:
 2809              		.loc 1 516 0
 2810 0008 3D200000 		lis 9,_ZTVN7sigslot9has_slotsINS_15single_threadedEEE+8@ha
 2811              	.LBE2796:
 2812              		.loc 1 513 0
 2813 000c 93810010 		stw 28,16(1)
 2814 0010 3B830004 		addi 28,3,4
 2815              		.cfi_offset 28, -16
 2816 0014 90010024 		stw 0,36(1)
 2817              	.LBB2872:
 2818              		.loc 1 516 0
 2819 0018 38090008 		la 0,_ZTVN7sigslot9has_slotsINS_15single_threadedEEE+8@l(9)
 2820              		.cfi_offset 65, 4
 2821              	.LBE2872:
 2822              		.loc 1 513 0
 2823 001c 93A10014 		stw 29,20(1)
 2824 0020 7C7D1B78 		mr 29,3
 2825              		.cfi_offset 29, -12
 2826 0024 93410008 		stw 26,8(1)
 2827 0028 9361000C 		stw 27,12(1)
 2828 002c 93C10018 		stw 30,24(1)
 2829 0030 93E1001C 		stw 31,28(1)
 2830              	.LBB2873:
 2831              		.loc 1 516 0
 2832 0034 90030000 		stw 0,0(3)
 2833              	.LVL233:
 2834              	.LEHB12:
 2835              	.LBB2797:
 2836              	.LBB2798:
 2837              	.LBB2799:
 2838              	.LBB2800:
 2839              		.loc 1 338 0
 2840              		.cfi_offset 31, -4
 2841              		.cfi_offset 30, -8
 2842              		.cfi_offset 27, -20
 2843              		.cfi_offset 26, -24
 2844 0038 48000001 		bl _ZN7sigslot15single_threaded4lockEv
 2845              	.LEHE12:
 2846              	.LVL234:
 2847              	.LBE2800:
 2848              	.LBE2799:
 2849              	.LBB2801:
 2850              		.loc 4 93 0
 2851 003c 83FD0010 		lwz 31,16(29)
 2852              	.LVL235:
 2853              	.LBE2801:
 2854              	.LBB2802:
 2855              	.LBB2803:
 2856              	.LBB2804:
 2857              		.loc 7 671 0
 2858 0040 3BDC0004 		addi 30,28,4
 2859              	.LVL236:
 2860              	.LBE2804:
 2861              	.LBE2803:
 2862              	.LBE2802:
 2863              		.loc 1 524 0
 2864 0044 7F9FF000 		cmpw 7,31,30
 2865 0048 419E0034 		beq- 7,.L190
 2866              	.LVL237:
 2867              	.L217:
 2868              		.loc 1 526 0
 2869 004c 807F0010 		lwz 3,16(31)
 2870 0050 7FA4EB78 		mr 4,29
 2871 0054 81230000 		lwz 9,0(3)
 2872 0058 80090010 		lwz 0,16(9)
 2873 005c 7C0903A6 		mtctr 0
 2874              	.LEHB13:
 2875 0060 4E800421 		bctrl
 2876              	.LEHE13:
 2877              	.LVL238:
 2878              	.LBB2805:
 2879              	.LBB2806:
 2880              		.loc 7 269 0
 2881 0064 7FE3FB78 		mr 3,31
 2882 0068 48000001 		bl _ZSt18_Rb_tree_incrementPKSt18_Rb_tree_node_base
 2883              	.LBE2806:
 2884              	.LBE2805:
 2885              		.loc 1 524 0
 2886 006c 7F9E1800 		cmpw 7,30,3
 2887              	.LBB2808:
 2888              	.LBB2807:
 2889              		.loc 7 269 0
 2890 0070 7C7F1B78 		mr 31,3
 2891              	.LVL239:
 2892              	.LBE2807:
 2893              	.LBE2808:
 2894              		.loc 1 524 0
 2895 0074 409EFFD8 		bne+ 7,.L217
 2896 0078 83FD0010 		lwz 31,16(29)
 2897              	.LVL240:
 2898              	.L190:
 2899              	.LBB2809:
 2900              	.LBB2810:
 2901              	.LBB2811:
 2902              	.LBB2812:
 2903              	.LBB2813:
 2904              	.LBB2814:
 2905              	.LBB2815:
 2906              		.loc 7 665 0
 2907 007c 3B5C0004 		addi 26,28,4
 2908              	.LBE2815:
 2909              	.LBE2814:
 2910              		.loc 7 1500 0
 2911 0080 7F9ED000 		cmpw 7,30,26
 2912 0084 419E0098 		beq- 7,.L192
 2913              	.LVL241:
 2914              		.loc 7 1503 0
 2915 0088 7F9EF800 		cmpw 7,30,31
 2916 008c 40BE000C 		bne+ 7,.L219
 2917 0090 48000038 		b .L193
 2918              	.LVL242:
 2919              	.L214:
 2920              		.loc 7 277 0
 2921 0094 7F7FDB78 		mr 31,27
 2922              	.LVL243:
 2923              	.L219:
 2924              	.LBB2816:
 2925              	.LBB2817:
 2926 0098 7FE3FB78 		mr 3,31
 2927 009c 48000001 		bl _ZSt18_Rb_tree_incrementPKSt18_Rb_tree_node_base
 2928              	.LBE2817:
 2929              	.LBE2816:
 2930              	.LBB2819:
 2931              	.LBB2820:
 2932              	.LBB2821:
 2933              		.loc 7 1489 0
 2934 00a0 7F44D378 		mr 4,26
 2935              	.LBE2821:
 2936              	.LBE2820:
 2937              	.LBE2819:
 2938              	.LBB2830:
 2939              	.LBB2818:
 2940              		.loc 7 277 0
 2941 00a4 7C7B1B78 		mr 27,3
 2942              	.LVL244:
 2943              	.LBE2818:
 2944              	.LBE2830:
 2945              	.LBB2831:
 2946              	.LBB2828:
 2947              	.LBB2826:
 2948              		.loc 7 1489 0
 2949 00a8 7FE3FB78 		mr 3,31
 2950              	.LVL245:
 2951 00ac 48000001 		bl _ZSt28_Rb_tree_rebalance_for_erasePSt18_Rb_tree_node_baseRS_
 2952              	.LBB2822:
 2953              	.LBB2823:
 2954              	.LBB2824:
 2955              	.LBB2825:
 2956              		.loc 6 98 0
 2957 00b0 48000001 		bl _ZdlPv
 2958              	.LBE2825:
 2959              	.LBE2824:
 2960              	.LBE2823:
 2961              	.LBE2822:
 2962              	.LBE2826:
 2963              	.LBE2828:
 2964              	.LBE2831:
 2965              		.loc 7 1503 0
 2966 00b4 7F9ED800 		cmpw 7,30,27
 2967              	.LBB2832:
 2968              	.LBB2829:
 2969              	.LBB2827:
 2970              		.loc 7 1491 0
 2971 00b8 813C0014 		lwz 9,20(28)
 2972 00bc 3809FFFF 		addi 0,9,-1
 2973 00c0 901C0014 		stw 0,20(28)
 2974              	.LBE2827:
 2975              	.LBE2829:
 2976              	.LBE2832:
 2977              		.loc 7 1503 0
 2978 00c4 409EFFD0 		bne+ 7,.L214
 2979              	.LVL246:
 2980              	.L193:
 2981              	.LBE2813:
 2982              	.LBE2812:
 2983              	.LBE2811:
 2984              	.LBE2810:
 2985              	.LBE2809:
 2986              	.LBB2841:
 2987              	.LBB2842:
 2988              	.LBB2843:
 2989              		.loc 1 343 0
 2990 00c8 813D0000 		lwz 9,0(29)
 2991 00cc 7FA3EB78 		mr 3,29
 2992 00d0 8009000C 		lwz 0,12(9)
 2993 00d4 7C0903A6 		mtctr 0
 2994              	.LEHB14:
 2995 00d8 4E800421 		bctrl
 2996              	.LEHE14:
 2997              	.LVL247:
 2998              	.LBE2843:
 2999              	.LBE2842:
 3000              	.LBE2841:
 3001              	.LBE2798:
 3002              	.LBE2797:
 3003              	.LBB2850:
 3004              	.LBB2851:
 3005              	.LBB2852:
 3006              	.LBB2853:
 3007              	.LBB2854:
 3008              		.loc 7 639 0
 3009 00dc 809D000C 		lwz 4,12(29)
 3010 00e0 7F83E378 		mr 3,28
 3011 00e4 48000001 		bl _ZNSt8_Rb_treeIPN7sigslot12_signal_baseINS0_15single_threadedEEES4_St9_IdentityIS4_ESt4lessIS4_
 3012              	.LVL248:
 3013              	.LBE2854:
 3014              	.LBE2853:
 3015              	.LBE2852:
 3016              	.LBE2851:
 3017              	.LBE2850:
 3018              	.LBB2855:
 3019              	.LBB2856:
 3020              	.LBB2857:
 3021              		.loc 1 105 0
 3022 00e8 3D200000 		lis 9,_ZTVN7sigslot15single_threadedE+8@ha
 3023 00ec 38090008 		la 0,_ZTVN7sigslot15single_threadedE+8@l(9)
 3024              	.LBE2857:
 3025              	.LBE2856:
 3026              	.LBE2855:
 3027              	.LBE2873:
 3028              		.loc 1 516 0
 3029 00f0 83410008 		lwz 26,8(1)
 3030              	.LBB2874:
 3031              	.LBB2860:
 3032              	.LBB2859:
 3033              	.LBB2858:
 3034              		.loc 1 105 0
 3035 00f4 901D0000 		stw 0,0(29)
 3036              	.LBE2858:
 3037              	.LBE2859:
 3038              	.LBE2860:
 3039              	.LBE2874:
 3040              		.loc 1 516 0
 3041 00f8 80010024 		lwz 0,36(1)
 3042 00fc 8361000C 		lwz 27,12(1)
 3043 0100 7C0803A6 		mtlr 0
 3044 0104 83810010 		lwz 28,16(1)
 3045              	.LVL249:
 3046 0108 83A10014 		lwz 29,20(1)
 3047              	.LVL250:
 3048 010c 83C10018 		lwz 30,24(1)
 3049              	.LVL251:
 3050 0110 83E1001C 		lwz 31,28(1)
 3051 0114 38210020 		addi 1,1,32
 3052              		.cfi_remember_state
 3053              	.LCFI46:
 3054              		.cfi_def_cfa_offset 0
 3055              		.cfi_restore 31
 3056              		.cfi_restore 30
 3057              		.cfi_restore 29
 3058              		.cfi_restore 28
 3059              		.cfi_restore 27
 3060              		.cfi_restore 26
 3061 0118 4E800020 		blr
 3062              	.LVL252:
 3063              	.L192:
 3064              	.LCFI47:
 3065              		.cfi_restore_state
 3066              	.LBB2875:
 3067              	.LBB2861:
 3068              	.LBB2848:
 3069              	.LBB2844:
 3070              	.LBB2840:
 3071              	.LBB2839:
 3072              	.LBB2838:
 3073              	.LBB2837:
 3074              	.LBB2833:
 3075              	.LBB2834:
 3076              	.LBB2835:
 3077              	.LBB2836:
 3078              		.loc 7 809 0
 3079 011c 809D000C 		lwz 4,12(29)
 3080 0120 7F83E378 		mr 3,28
 3081 0124 48000001 		bl _ZNSt8_Rb_treeIPN7sigslot12_signal_baseINS0_15single_threadedEEES4_St9_IdentityIS4_ESt4lessIS4_
 3082              	.LVL253:
 3083              		.loc 7 811 0
 3084 0128 38000000 		li 0,0
 3085              		.loc 7 810 0
 3086 012c 93DD0010 		stw 30,16(29)
 3087              	.LVL254:
 3088              		.loc 7 811 0
 3089 0130 901D000C 		stw 0,12(29)
 3090              	.LVL255:
 3091              		.loc 7 812 0
 3092 0134 93DD0014 		stw 30,20(29)
 3093              		.loc 7 813 0
 3094 0138 901D0018 		stw 0,24(29)
 3095 013c 4BFFFF8C 		b .L193
 3096              	.LVL256:
 3097              	.L215:
 3098 0140 7C7F1B78 		mr 31,3
 3099              	.L200:
 3100              	.LVL257:
 3101              	.LBE2836:
 3102              	.LBE2835:
 3103              	.LBE2834:
 3104              	.LBE2833:
 3105              	.LBE2837:
 3106              	.LBE2838:
 3107              	.LBE2839:
 3108              	.LBE2840:
 3109              	.LBE2844:
 3110              	.LBE2848:
 3111              	.LBE2861:
 3112              	.LBB2862:
 3113              	.LBB2863:
 3114              	.LBB2864:
 3115              	.LBB2865:
 3116              	.LBB2866:
 3117              	.LBB2867:
 3118              		.loc 7 639 0
 3119 0144 809D000C 		lwz 4,12(29)
 3120 0148 7F83E378 		mr 3,28
 3121 014c 48000001 		bl _ZNSt8_Rb_treeIPN7sigslot12_signal_baseINS0_15single_threadedEEES4_St9_IdentityIS4_ESt4lessIS4_
 3122              	.LVL258:
 3123              	.LBE2867:
 3124              	.LBE2866:
 3125              	.LBE2865:
 3126              	.LBE2864:
 3127              	.LBE2863:
 3128              	.LBE2862:
 3129              	.LBB2868:
 3130              	.LBB2869:
 3131              	.LBB2870:
 3132              		.loc 1 105 0
 3133 0150 3D200000 		lis 9,_ZTVN7sigslot15single_threadedE+8@ha
 3134 0154 38090008 		la 0,_ZTVN7sigslot15single_threadedE+8@l(9)
 3135 0158 7FE3FB78 		mr 3,31
 3136 015c 901D0000 		stw 0,0(29)
 3137              	.LEHB15:
 3138 0160 48000001 		bl _Unwind_Resume
 3139              	.LEHE15:
 3140              	.LVL259:
 3141              	.L216:
 3142              	.LBE2870:
 3143              	.LBE2869:
 3144              	.LBE2868:
 3145              	.LBB2871:
 3146              	.LBB2849:
 3147              	.LBB2845:
 3148              	.LBB2846:
 3149              	.LBB2847:
 3150              		.loc 1 343 0
 3151 0164 813D0000 		lwz 9,0(29)
 3152 0168 7C7F1B78 		mr 31,3
 3153              	.LVL260:
 3154 016c 7FA3EB78 		mr 3,29
 3155 0170 8009000C 		lwz 0,12(9)
 3156 0174 7C0903A6 		mtctr 0
 3157 0178 4E800421 		bctrl
 3158 017c 4BFFFFC8 		b .L200
 3159              	.LBE2847:
 3160              	.LBE2846:
 3161              	.LBE2845:
 3162              	.LBE2849:
 3163              	.LBE2871:
 3164              	.LBE2875:
 3165              		.cfi_endproc
 3166              	.LFE1618:
 3167              		.section	.gcc_except_table
 3168              	.LLSDA1618:
 3169 0046 FF       		.byte	0xff
 3170 0047 FF       		.byte	0xff
 3171 0048 01       		.byte	0x1
 3172 0049 15       		.uleb128 .LLSDACSE1618-.LLSDACSB1618
 3173              	.LLSDACSB1618:
 3174 004a 38       		.uleb128 .LEHB12-.LFB1618
 3175 004b 04       		.uleb128 .LEHE12-.LEHB12
 3176 004c C002     		.uleb128 .L215-.LFB1618
 3177 004e 00       		.uleb128 0
 3178 004f 60       		.uleb128 .LEHB13-.LFB1618
 3179 0050 04       		.uleb128 .LEHE13-.LEHB13
 3180 0051 E402     		.uleb128 .L216-.LFB1618
 3181 0053 00       		.uleb128 0
 3182 0054 D801     		.uleb128 .LEHB14-.LFB1618
 3183 0056 04       		.uleb128 .LEHE14-.LEHB14
 3184 0057 C002     		.uleb128 .L215-.LFB1618
 3185 0059 00       		.uleb128 0
 3186 005a E002     		.uleb128 .LEHB15-.LFB1618
 3187 005c 04       		.uleb128 .LEHE15-.LEHB15
 3188 005d 00       		.uleb128 0
 3189 005e 00       		.uleb128 0
 3190              	.LLSDACSE1618:
 3191              		.section	.text._ZN7sigslot9has_slotsINS_15single_threadedEED2Ev,"axG",@progbits,_ZN7sigslot9has_sl
 3192              		.size	_ZN7sigslot9has_slotsINS_15single_threadedEED2Ev, .-_ZN7sigslot9has_slotsINS_15single_thread
 3193              		.section	.text._ZN7sigslot9has_slotsINS_15single_threadedEED0Ev,"axG",@progbits,_ZN7sigslot9has_sl
 3194              		.align 2
 3195              		.weak	_ZN7sigslot9has_slotsINS_15single_threadedEED0Ev
 3196              		.type	_ZN7sigslot9has_slotsINS_15single_threadedEED0Ev, @function
 3197              	_ZN7sigslot9has_slotsINS_15single_threadedEED0Ev:
 3198              	.LFB1620:
 3199              		.loc 1 513 0
 3200              		.cfi_startproc
 3201              		.cfi_personality 0,__gxx_personality_v0
 3202              		.cfi_lsda 0,.LLSDA1620
 3203              	.LVL261:
 3204 0000 7C0802A6 		mflr 0
 3205 0004 9421FFE0 		stwu 1,-32(1)
 3206              	.LCFI48:
 3207              		.cfi_def_cfa_offset 32
 3208              		.cfi_register 65, 0
 3209              	.LBB2969:
 3210              	.LBB2970:
 3211              	.LBB2971:
 3212              		.loc 1 516 0
 3213 0008 3D200000 		lis 9,_ZTVN7sigslot9has_slotsINS_15single_threadedEEE+8@ha
 3214              	.LBE2971:
 3215              	.LBE2970:
 3216              	.LBE2969:
 3217              		.loc 1 513 0
 3218 000c 93810010 		stw 28,16(1)
 3219 0010 3B830004 		addi 28,3,4
 3220              		.cfi_offset 28, -16
 3221 0014 90010024 		stw 0,36(1)
 3222              	.LBB3055:
 3223              	.LBB3051:
 3224              	.LBB3047:
 3225              		.loc 1 516 0
 3226 0018 38090008 		la 0,_ZTVN7sigslot9has_slotsINS_15single_threadedEEE+8@l(9)
 3227              		.cfi_offset 65, 4
 3228              	.LBE3047:
 3229              	.LBE3051:
 3230              	.LBE3055:
 3231              		.loc 1 513 0
 3232 001c 93A10014 		stw 29,20(1)
 3233 0020 7C7D1B78 		mr 29,3
 3234              		.cfi_offset 29, -12
 3235              	.LVL262:
 3236 0024 93410008 		stw 26,8(1)
 3237 0028 9361000C 		stw 27,12(1)
 3238 002c 93C10018 		stw 30,24(1)
 3239 0030 93E1001C 		stw 31,28(1)
 3240              	.LBB3056:
 3241              	.LBB3052:
 3242              	.LBB3048:
 3243              		.loc 1 516 0
 3244 0034 90030000 		stw 0,0(3)
 3245              	.LVL263:
 3246              	.LEHB16:
 3247              	.LBB2972:
 3248              	.LBB2973:
 3249              	.LBB2974:
 3250              	.LBB2975:
 3251              		.loc 1 338 0
 3252              		.cfi_offset 31, -4
 3253              		.cfi_offset 30, -8
 3254              		.cfi_offset 27, -20
 3255              		.cfi_offset 26, -24
 3256 0038 48000001 		bl _ZN7sigslot15single_threaded4lockEv
 3257              	.LEHE16:
 3258              	.LVL264:
 3259              	.LBE2975:
 3260              	.LBE2974:
 3261              	.LBB2976:
 3262              		.loc 4 93 0
 3263 003c 83FD0010 		lwz 31,16(29)
 3264              	.LVL265:
 3265              	.LBE2976:
 3266              	.LBB2977:
 3267              	.LBB2978:
 3268              	.LBB2979:
 3269              		.loc 7 671 0
 3270 0040 3BDC0004 		addi 30,28,4
 3271              	.LVL266:
 3272              	.LBE2979:
 3273              	.LBE2978:
 3274              	.LBE2977:
 3275              		.loc 1 524 0
 3276 0044 7F9FF000 		cmpw 7,31,30
 3277 0048 419E0034 		beq- 7,.L222
 3278              	.LVL267:
 3279              	.L250:
 3280              		.loc 1 526 0
 3281 004c 807F0010 		lwz 3,16(31)
 3282 0050 7FA4EB78 		mr 4,29
 3283 0054 81230000 		lwz 9,0(3)
 3284 0058 80090010 		lwz 0,16(9)
 3285 005c 7C0903A6 		mtctr 0
 3286              	.LEHB17:
 3287 0060 4E800421 		bctrl
 3288              	.LEHE17:
 3289              	.LVL268:
 3290              	.LBB2980:
 3291              	.LBB2981:
 3292              		.loc 7 269 0
 3293 0064 7FE3FB78 		mr 3,31
 3294 0068 48000001 		bl _ZSt18_Rb_tree_incrementPKSt18_Rb_tree_node_base
 3295              	.LBE2981:
 3296              	.LBE2980:
 3297              		.loc 1 524 0
 3298 006c 7F9E1800 		cmpw 7,30,3
 3299              	.LBB2983:
 3300              	.LBB2982:
 3301              		.loc 7 269 0
 3302 0070 7C7F1B78 		mr 31,3
 3303              	.LVL269:
 3304              	.LBE2982:
 3305              	.LBE2983:
 3306              		.loc 1 524 0
 3307 0074 409EFFD8 		bne+ 7,.L250
 3308 0078 83FD0010 		lwz 31,16(29)
 3309              	.LVL270:
 3310              	.L222:
 3311              	.LBB2984:
 3312              	.LBB2985:
 3313              	.LBB2986:
 3314              	.LBB2987:
 3315              	.LBB2988:
 3316              	.LBB2989:
 3317              	.LBB2990:
 3318              		.loc 7 665 0
 3319 007c 3B5C0004 		addi 26,28,4
 3320              	.LBE2990:
 3321              	.LBE2989:
 3322              		.loc 7 1500 0
 3323 0080 7F9ED000 		cmpw 7,30,26
 3324 0084 419E00A0 		beq- 7,.L224
 3325              	.LVL271:
 3326              		.loc 7 1503 0
 3327 0088 7F9EF800 		cmpw 7,30,31
 3328 008c 40BE000C 		bne+ 7,.L252
 3329 0090 48000038 		b .L225
 3330              	.LVL272:
 3331              	.L247:
 3332              		.loc 7 277 0
 3333 0094 7F7FDB78 		mr 31,27
 3334              	.LVL273:
 3335              	.L252:
 3336              	.LBB2991:
 3337              	.LBB2992:
 3338 0098 7FE3FB78 		mr 3,31
 3339 009c 48000001 		bl _ZSt18_Rb_tree_incrementPKSt18_Rb_tree_node_base
 3340              	.LBE2992:
 3341              	.LBE2991:
 3342              	.LBB2994:
 3343              	.LBB2995:
 3344              	.LBB2996:
 3345              		.loc 7 1489 0
 3346 00a0 7F44D378 		mr 4,26
 3347              	.LBE2996:
 3348              	.LBE2995:
 3349              	.LBE2994:
 3350              	.LBB3005:
 3351              	.LBB2993:
 3352              		.loc 7 277 0
 3353 00a4 7C7B1B78 		mr 27,3
 3354              	.LVL274:
 3355              	.LBE2993:
 3356              	.LBE3005:
 3357              	.LBB3006:
 3358              	.LBB3003:
 3359              	.LBB3001:
 3360              		.loc 7 1489 0
 3361 00a8 7FE3FB78 		mr 3,31
 3362              	.LVL275:
 3363 00ac 48000001 		bl _ZSt28_Rb_tree_rebalance_for_erasePSt18_Rb_tree_node_baseRS_
 3364              	.LBB2997:
 3365              	.LBB2998:
 3366              	.LBB2999:
 3367              	.LBB3000:
 3368              		.loc 6 98 0
 3369 00b0 48000001 		bl _ZdlPv
 3370              	.LBE3000:
 3371              	.LBE2999:
 3372              	.LBE2998:
 3373              	.LBE2997:
 3374              	.LBE3001:
 3375              	.LBE3003:
 3376              	.LBE3006:
 3377              		.loc 7 1503 0
 3378 00b4 7F9ED800 		cmpw 7,30,27
 3379              	.LBB3007:
 3380              	.LBB3004:
 3381              	.LBB3002:
 3382              		.loc 7 1491 0
 3383 00b8 813C0014 		lwz 9,20(28)
 3384 00bc 3809FFFF 		addi 0,9,-1
 3385 00c0 901C0014 		stw 0,20(28)
 3386              	.LBE3002:
 3387              	.LBE3004:
 3388              	.LBE3007:
 3389              		.loc 7 1503 0
 3390 00c4 409EFFD0 		bne+ 7,.L247
 3391              	.LVL276:
 3392              	.L225:
 3393              	.LBE2988:
 3394              	.LBE2987:
 3395              	.LBE2986:
 3396              	.LBE2985:
 3397              	.LBE2984:
 3398              	.LBB3016:
 3399              	.LBB3017:
 3400              	.LBB3018:
 3401              		.loc 1 343 0
 3402 00c8 813D0000 		lwz 9,0(29)
 3403 00cc 7FA3EB78 		mr 3,29
 3404 00d0 8009000C 		lwz 0,12(9)
 3405 00d4 7C0903A6 		mtctr 0
 3406              	.LEHB18:
 3407 00d8 4E800421 		bctrl
 3408              	.LEHE18:
 3409              	.LVL277:
 3410              	.LBE3018:
 3411              	.LBE3017:
 3412              	.LBE3016:
 3413              	.LBE2973:
 3414              	.LBE2972:
 3415              	.LBB3025:
 3416              	.LBB3026:
 3417              	.LBB3027:
 3418              	.LBB3028:
 3419              	.LBB3029:
 3420              		.loc 7 639 0
 3421 00dc 809D000C 		lwz 4,12(29)
 3422 00e0 7F83E378 		mr 3,28
 3423 00e4 48000001 		bl _ZNSt8_Rb_treeIPN7sigslot12_signal_baseINS0_15single_threadedEEES4_St9_IdentityIS4_ESt4lessIS4_
 3424              	.LVL278:
 3425              	.LBE3029:
 3426              	.LBE3028:
 3427              	.LBE3027:
 3428              	.LBE3026:
 3429              	.LBE3025:
 3430              	.LBB3030:
 3431              	.LBB3031:
 3432              	.LBB3032:
 3433              		.loc 1 105 0
 3434 00e8 3D200000 		lis 9,_ZTVN7sigslot15single_threadedE+8@ha
 3435 00ec 38090008 		la 0,_ZTVN7sigslot15single_threadedE+8@l(9)
 3436              	.LBE3032:
 3437              	.LBE3031:
 3438              	.LBE3030:
 3439              	.LBE3048:
 3440              	.LBE3052:
 3441              	.LBE3056:
 3442              		.loc 1 516 0
 3443 00f0 7FA3EB78 		mr 3,29
 3444              	.LBB3057:
 3445              	.LBB3053:
 3446              	.LBB3049:
 3447              	.LBB3035:
 3448              	.LBB3034:
 3449              	.LBB3033:
 3450              		.loc 1 105 0
 3451 00f4 901D0000 		stw 0,0(29)
 3452              	.LBE3033:
 3453              	.LBE3034:
 3454              	.LBE3035:
 3455              	.LBE3049:
 3456              	.LBE3053:
 3457              	.LBE3057:
 3458              		.loc 1 516 0
 3459 00f8 48000001 		bl _ZdlPv
 3460 00fc 80010024 		lwz 0,36(1)
 3461 0100 83410008 		lwz 26,8(1)
 3462 0104 7C0803A6 		mtlr 0
 3463 0108 8361000C 		lwz 27,12(1)
 3464 010c 83810010 		lwz 28,16(1)
 3465              	.LVL279:
 3466 0110 83A10014 		lwz 29,20(1)
 3467              	.LVL280:
 3468 0114 83C10018 		lwz 30,24(1)
 3469              	.LVL281:
 3470 0118 83E1001C 		lwz 31,28(1)
 3471 011c 38210020 		addi 1,1,32
 3472              		.cfi_remember_state
 3473              	.LCFI49:
 3474              		.cfi_def_cfa_offset 0
 3475              		.cfi_restore 31
 3476              		.cfi_restore 30
 3477              		.cfi_restore 29
 3478              		.cfi_restore 28
 3479              		.cfi_restore 27
 3480              		.cfi_restore 26
 3481 0120 4E800020 		blr
 3482              	.LVL282:
 3483              	.L224:
 3484              	.LCFI50:
 3485              		.cfi_restore_state
 3486              	.LBB3058:
 3487              	.LBB3054:
 3488              	.LBB3050:
 3489              	.LBB3036:
 3490              	.LBB3023:
 3491              	.LBB3019:
 3492              	.LBB3015:
 3493              	.LBB3014:
 3494              	.LBB3013:
 3495              	.LBB3012:
 3496              	.LBB3008:
 3497              	.LBB3009:
 3498              	.LBB3010:
 3499              	.LBB3011:
 3500              		.loc 7 809 0
 3501 0124 809D000C 		lwz 4,12(29)
 3502 0128 7F83E378 		mr 3,28
 3503 012c 48000001 		bl _ZNSt8_Rb_treeIPN7sigslot12_signal_baseINS0_15single_threadedEEES4_St9_IdentityIS4_ESt4lessIS4_
 3504              	.LVL283:
 3505              		.loc 7 811 0
 3506 0130 38000000 		li 0,0
 3507              		.loc 7 810 0
 3508 0134 93DD0010 		stw 30,16(29)
 3509              	.LVL284:
 3510              		.loc 7 811 0
 3511 0138 901D000C 		stw 0,12(29)
 3512              	.LVL285:
 3513              		.loc 7 812 0
 3514 013c 93DD0014 		stw 30,20(29)
 3515              		.loc 7 813 0
 3516 0140 901D0018 		stw 0,24(29)
 3517 0144 4BFFFF84 		b .L225
 3518              	.LVL286:
 3519              	.L248:
 3520 0148 7C7F1B78 		mr 31,3
 3521              	.L232:
 3522              	.LVL287:
 3523              	.LBE3011:
 3524              	.LBE3010:
 3525              	.LBE3009:
 3526              	.LBE3008:
 3527              	.LBE3012:
 3528              	.LBE3013:
 3529              	.LBE3014:
 3530              	.LBE3015:
 3531              	.LBE3019:
 3532              	.LBE3023:
 3533              	.LBE3036:
 3534              	.LBB3037:
 3535              	.LBB3038:
 3536              	.LBB3039:
 3537              	.LBB3040:
 3538              	.LBB3041:
 3539              	.LBB3042:
 3540              		.loc 7 639 0
 3541 014c 809D000C 		lwz 4,12(29)
 3542 0150 7F83E378 		mr 3,28
 3543 0154 48000001 		bl _ZNSt8_Rb_treeIPN7sigslot12_signal_baseINS0_15single_threadedEEES4_St9_IdentityIS4_ESt4lessIS4_
 3544              	.LVL288:
 3545              	.LBE3042:
 3546              	.LBE3041:
 3547              	.LBE3040:
 3548              	.LBE3039:
 3549              	.LBE3038:
 3550              	.LBE3037:
 3551              	.LBB3043:
 3552              	.LBB3044:
 3553              	.LBB3045:
 3554              		.loc 1 105 0
 3555 0158 3D200000 		lis 9,_ZTVN7sigslot15single_threadedE+8@ha
 3556 015c 38090008 		la 0,_ZTVN7sigslot15single_threadedE+8@l(9)
 3557 0160 7FE3FB78 		mr 3,31
 3558 0164 901D0000 		stw 0,0(29)
 3559              	.LEHB19:
 3560 0168 48000001 		bl _Unwind_Resume
 3561              	.LEHE19:
 3562              	.LVL289:
 3563              	.L249:
 3564              	.LBE3045:
 3565              	.LBE3044:
 3566              	.LBE3043:
 3567              	.LBB3046:
 3568              	.LBB3024:
 3569              	.LBB3020:
 3570              	.LBB3021:
 3571              	.LBB3022:
 3572              		.loc 1 343 0
 3573 016c 813D0000 		lwz 9,0(29)
 3574 0170 7C7F1B78 		mr 31,3
 3575              	.LVL290:
 3576 0174 7FA3EB78 		mr 3,29
 3577 0178 8009000C 		lwz 0,12(9)
 3578 017c 7C0903A6 		mtctr 0
 3579 0180 4E800421 		bctrl
 3580 0184 4BFFFFC8 		b .L232
 3581              	.LBE3022:
 3582              	.LBE3021:
 3583              	.LBE3020:
 3584              	.LBE3024:
 3585              	.LBE3046:
 3586              	.LBE3050:
 3587              	.LBE3054:
 3588              	.LBE3058:
 3589              		.cfi_endproc
 3590              	.LFE1620:
 3591              		.section	.gcc_except_table
 3592              	.LLSDA1620:
 3593 005f FF       		.byte	0xff
 3594 0060 FF       		.byte	0xff
 3595 0061 01       		.byte	0x1
 3596 0062 15       		.uleb128 .LLSDACSE1620-.LLSDACSB1620
 3597              	.LLSDACSB1620:
 3598 0063 38       		.uleb128 .LEHB16-.LFB1620
 3599 0064 04       		.uleb128 .LEHE16-.LEHB16
 3600 0065 C802     		.uleb128 .L248-.LFB1620
 3601 0067 00       		.uleb128 0
 3602 0068 60       		.uleb128 .LEHB17-.LFB1620
 3603 0069 04       		.uleb128 .LEHE17-.LEHB17
 3604 006a EC02     		.uleb128 .L249-.LFB1620
 3605 006c 00       		.uleb128 0
 3606 006d D801     		.uleb128 .LEHB18-.LFB1620
 3607 006f 04       		.uleb128 .LEHE18-.LEHB18
 3608 0070 C802     		.uleb128 .L248-.LFB1620
 3609 0072 00       		.uleb128 0
 3610 0073 E802     		.uleb128 .LEHB19-.LFB1620
 3611 0075 04       		.uleb128 .LEHE19-.LEHB19
 3612 0076 00       		.uleb128 0
 3613 0077 00       		.uleb128 0
 3614              	.LLSDACSE1620:
 3615              		.section	.text._ZN7sigslot9has_slotsINS_15single_threadedEED0Ev,"axG",@progbits,_ZN7sigslot9has_sl
 3616              		.size	_ZN7sigslot9has_slotsINS_15single_threadedEED0Ev, .-_ZN7sigslot9has_slotsINS_15single_thread
 3617              		.section	.text._ZNSt8_Rb_treeIPN7sigslot12_signal_baseINS0_15single_threadedEEES4_St9_IdentityIS4_
 3618              		.align 2
 3619              		.weak	_ZNSt8_Rb_treeIPN7sigslot12_signal_baseINS0_15single_threadedEEES4_St9_IdentityIS4_ESt4lessI
 3620              		.type	_ZNSt8_Rb_treeIPN7sigslot12_signal_baseINS0_15single_threadedEEES4_St9_IdentityIS4_ESt4lessI
 3621              	_ZNSt8_Rb_treeIPN7sigslot12_signal_baseINS0_15single_threadedEEES4_St9_IdentityIS4_ESt4lessIS4_ESaI
 3622              	.LFB1855:
 3623              		.loc 7 1264 0
 3624              		.cfi_startproc
 3625              	.LVL291:
 3626 0000 7C0802A6 		mflr 0
 3627 0004 9421FFE0 		stwu 1,-32(1)
 3628              	.LCFI51:
 3629              		.cfi_def_cfa_offset 32
 3630              		.cfi_register 65, 0
 3631 0008 93810010 		stw 28,16(1)
 3632 000c 90010024 		stw 0,36(1)
 3633 0010 9361000C 		stw 27,12(1)
 3634 0014 7C9B2378 		mr 27,4
 3635              		.cfi_offset 27, -20
 3636              		.cfi_offset 65, 4
 3637              		.cfi_offset 28, -16
 3638              	.LBB3098:
 3639              	.LBB3099:
 3640              	.LBB3100:
 3641              		.loc 4 93 0
 3642 0018 83830008 		lwz 28,8(3)
 3643              	.LVL292:
 3644              	.LBE3100:
 3645              	.LBE3099:
 3646              	.LBE3098:
 3647              		.loc 7 1264 0
 3648 001c 93A10014 		stw 29,20(1)
 3649              	.LBB3125:
 3650              	.LBB3117:
 3651              	.LBB3113:
 3652              		.loc 7 1272 0
 3653 0020 3BA30004 		addi 29,3,4
 3654              		.cfi_offset 29, -12
 3655              	.LVL293:
 3656              	.LBE3113:
 3657              	.LBE3117:
 3658              		.loc 7 1274 0
 3659 0024 2F9C0000 		cmpwi 7,28,0
 3660              	.LBE3125:
 3661              		.loc 7 1264 0
 3662 0028 93E1001C 		stw 31,28(1)
 3663 002c 93410008 		stw 26,8(1)
 3664 0030 7C7F1B78 		mr 31,3
 3665              		.cfi_offset 26, -24
 3666              		.cfi_offset 31, -4
 3667 0034 93C10018 		stw 30,24(1)
 3668              	.LBB3126:
 3669              		.loc 7 1274 0
 3670 0038 419E0084 		beq- 7,.L269
 3671              		.cfi_offset 30, -8
 3672 003c 81440000 		lwz 10,0(4)
 3673 0040 48000014 		b .L258
 3674              	.LVL294:
 3675              	.L277:
 3676              		.loc 4 93 0 discriminator 1
 3677 0044 801C0008 		lwz 0,8(28)
 3678              	.LVL295:
 3679              		.loc 7 1274 0 discriminator 1
 3680 0048 2F800000 		cmpwi 7,0,0
 3681 004c 419E0028 		beq- 7,.L276
 3682              	.LVL296:
 3683              	.L270:
 3684              		.loc 7 1274 0 is_stmt 0
 3685 0050 7C1C0378 		mr 28,0
 3686              	.LVL297:
 3687              	.L258:
 3688              		.loc 4 93 0 is_stmt 1
 3689 0054 813C0010 		lwz 9,16(28)
 3690 0058 39600001 		li 11,1
 3691              		.loc 7 1278 0
 3692 005c 7F895040 		cmplw 7,9,10
 3693 0060 41BDFFE4 		bgt- 7,.L277
 3694              	.LVL298:
 3695              		.loc 4 93 0 discriminator 2
 3696 0064 801C000C 		lwz 0,12(28)
 3697 0068 39600000 		li 11,0
 3698              	.LVL299:
 3699              		.loc 7 1274 0 discriminator 2
 3700 006c 2F800000 		cmpwi 7,0,0
 3701 0070 409EFFE0 		bne+ 7,.L270
 3702              	.LVL300:
 3703              	.L276:
 3704              		.loc 7 1281 0
 3705 0074 2F8B0000 		cmpwi 7,11,0
 3706 0078 7F83E378 		mr 3,28
 3707              	.LVL301:
 3708 007c 409E0044 		bne- 7,.L255
 3709              	.LVL302:
 3710              		.loc 7 1289 0
 3711 0080 7F8A4840 		cmplw 7,10,9
 3712 0084 419D0060 		bgt- 7,.L278
 3713              	.LVL303:
 3714              	.L265:
 3715              		.loc 7 1292 0
 3716 0088 38000000 		li 0,0
 3717 008c 38800000 		li 4,0
 3718 0090 5004C00E 		rlwimi 4,0,24,0,7
 3719              	.LBE3126:
 3720              		.loc 7 1293 0
 3721 0094 80010024 		lwz 0,36(1)
 3722 0098 83410008 		lwz 26,8(1)
 3723 009c 7C0803A6 		mtlr 0
 3724 00a0 8361000C 		lwz 27,12(1)
 3725              	.LVL304:
 3726 00a4 83810010 		lwz 28,16(1)
 3727 00a8 83A10014 		lwz 29,20(1)
 3728 00ac 83C10018 		lwz 30,24(1)
 3729 00b0 83E1001C 		lwz 31,28(1)
 3730              	.LVL305:
 3731 00b4 38210020 		addi 1,1,32
 3732              		.cfi_remember_state
 3733              	.LCFI52:
 3734              		.cfi_def_cfa_offset 0
 3735              		.cfi_restore 31
 3736              		.cfi_restore 30
 3737              		.cfi_restore 29
 3738              		.cfi_restore 28
 3739              		.cfi_restore 27
 3740              		.cfi_restore 26
 3741 00b8 4E800020 		blr
 3742              	.LVL306:
 3743              	.L269:
 3744              	.LCFI53:
 3745              		.cfi_restore_state
 3746              	.LBB3127:
 3747              		.loc 7 1272 0
 3748 00bc 7FBCEB78 		mr 28,29
 3749              	.LVL307:
 3750              	.L255:
 3751              		.loc 7 1283 0
 3752 00c0 801F000C 		lwz 0,12(31)
 3753 00c4 7F9C0000 		cmpw 7,28,0
 3754 00c8 419E003C 		beq- 7,.L279
 3755              	.LVL308:
 3756              	.LBB3118:
 3757              	.LBB3119:
 3758              		.loc 7 203 0
 3759 00cc 7F83E378 		mr 3,28
 3760 00d0 48000001 		bl _ZSt18_Rb_tree_decrementPSt18_Rb_tree_node_base
 3761              	.LVL309:
 3762 00d4 815B0000 		lwz 10,0(27)
 3763 00d8 81230010 		lwz 9,16(3)
 3764              	.LVL310:
 3765              	.LBE3119:
 3766              	.LBE3118:
 3767              		.loc 7 1289 0
 3768 00dc 7F8A4840 		cmplw 7,10,9
 3769 00e0 409DFFA8 		ble+ 7,.L265
 3770              	.LVL311:
 3771              	.L278:
 3772              	.LBB3120:
 3773              	.LBB3114:
 3774              		.loc 7 969 0
 3775 00e4 7F9CE800 		cmpw 7,28,29
 3776 00e8 3B400001 		li 26,1
 3777 00ec 419E0038 		beq- 7,.L266
 3778              	.LVL312:
 3779              		.loc 7 1264 0
 3780 00f0 835C0010 		lwz 26,16(28)
 3781 00f4 7F5A5010 		subfc 26,26,10
 3782 00f8 7F5AD110 		subfe 26,26,26
 3783 00fc 7F5A00D0 		neg 26,26
 3784 0100 48000024 		b .L266
 3785              	.LVL313:
 3786              	.L279:
 3787              	.LBE3114:
 3788              	.LBE3120:
 3789              	.LBB3121:
 3790              	.LBB3122:
 3791              		.loc 7 969 0
 3792 0104 7F9CE800 		cmpw 7,28,29
 3793 0108 3B400001 		li 26,1
 3794 010c 419E0018 		beq- 7,.L266
 3795              	.LVL314:
 3796              		.loc 7 1264 0
 3797 0110 835B0000 		lwz 26,0(27)
 3798 0114 801C0010 		lwz 0,16(28)
 3799              	.LVL315:
 3800 0118 7F40D010 		subfc 26,0,26
 3801 011c 7F5AD110 		subfe 26,26,26
 3802 0120 7F5A00D0 		neg 26,26
 3803              	.LVL316:
 3804              	.L266:
 3805              	.LBE3122:
 3806              	.LBE3121:
 3807              	.LBB3123:
 3808              	.LBB3115:
 3809              	.LBB3101:
 3810              	.LBB3102:
 3811              	.LBB3103:
 3812              	.LBB3104:
 3813              	.LBB3105:
 3814              		.loc 6 92 0
 3815 0124 38600014 		li 3,20
 3816 0128 48000001 		bl _Znwj
 3817              	.LBE3105:
 3818              	.LBE3104:
 3819              	.LBE3103:
 3820              	.LBB3108:
 3821              	.LBB3109:
 3822              		.loc 6 108 0
 3823 012c 2F83FFF0 		cmpwi 7,3,-16
 3824              	.LBE3109:
 3825              	.LBE3108:
 3826              	.LBB3111:
 3827              	.LBB3107:
 3828              	.LBB3106:
 3829              		.loc 6 92 0
 3830 0130 7C7E1B78 		mr 30,3
 3831              	.LVL317:
 3832              	.LBE3106:
 3833              	.LBE3107:
 3834              	.LBE3111:
 3835              	.LBB3112:
 3836              	.LBB3110:
 3837              		.loc 6 108 0
 3838 0134 419E000C 		beq- 7,.L268
 3839 0138 801B0000 		lwz 0,0(27)
 3840 013c 90030010 		stw 0,16(3)
 3841              	.L268:
 3842              	.LVL318:
 3843              	.LBE3110:
 3844              	.LBE3112:
 3845              	.LBE3102:
 3846              	.LBE3101:
 3847              		.loc 7 973 0
 3848 0140 7F43D378 		mr 3,26
 3849              	.LVL319:
 3850 0144 7FC4F378 		mr 4,30
 3851 0148 7F85E378 		mr 5,28
 3852 014c 7FA6EB78 		mr 6,29
 3853 0150 48000001 		bl _ZSt29_Rb_tree_insert_and_rebalancebPSt18_Rb_tree_node_baseS0_RS_
 3854              		.loc 7 976 0
 3855 0154 813F0014 		lwz 9,20(31)
 3856              		.loc 7 1291 0
 3857 0158 38800000 		li 4,0
 3858 015c 7FC3F378 		mr 3,30
 3859              		.loc 7 976 0
 3860 0160 38090001 		addi 0,9,1
 3861              	.LBE3115:
 3862              	.LBE3123:
 3863              	.LBE3127:
 3864              		.loc 7 1293 0
 3865 0164 83410008 		lwz 26,8(1)
 3866              	.LVL320:
 3867              	.LBB3128:
 3868              	.LBB3124:
 3869              	.LBB3116:
 3870              		.loc 7 976 0
 3871 0168 901F0014 		stw 0,20(31)
 3872              	.LVL321:
 3873              		.loc 7 1291 0
 3874 016c 38000001 		li 0,1
 3875 0170 5004C00E 		rlwimi 4,0,24,0,7
 3876              	.LBE3116:
 3877              	.LBE3124:
 3878              	.LBE3128:
 3879              		.loc 7 1293 0
 3880 0174 80010024 		lwz 0,36(1)
 3881 0178 8361000C 		lwz 27,12(1)
 3882              	.LVL322:
 3883 017c 7C0803A6 		mtlr 0
 3884 0180 83810010 		lwz 28,16(1)
 3885 0184 83A10014 		lwz 29,20(1)
 3886 0188 83C10018 		lwz 30,24(1)
 3887              	.LVL323:
 3888 018c 83E1001C 		lwz 31,28(1)
 3889              	.LVL324:
 3890 0190 38210020 		addi 1,1,32
 3891              		.cfi_restore 26
 3892              		.cfi_restore 27
 3893              		.cfi_restore 28
 3894              		.cfi_restore 29
 3895              		.cfi_restore 30
 3896              		.cfi_restore 31
 3897              	.LCFI54:
 3898              		.cfi_def_cfa_offset 0
 3899 0194 4E800020 		blr
 3900              		.cfi_endproc
 3901              	.LFE1855:
 3902              		.size	_ZNSt8_Rb_treeIPN7sigslot12_signal_baseINS0_15single_threadedEEES4_St9_IdentityIS4_ESt4lessI
 3903              		.section	.text._ZN7sigslot7signal3IP9GuiButtoniRK6_POINTNS_15single_threadedEE7connectI12NumpadWin
 3904              		.align 2
 3905              		.weak	_ZN7sigslot7signal3IP9GuiButtoniRK6_POINTNS_15single_threadedEE7connectI12NumpadWindowEEvPT_
 3906              		.type	_ZN7sigslot7signal3IP9GuiButtoniRK6_POINTNS_15single_threadedEE7connectI12NumpadWindowEEvPT_
 3907              	_ZN7sigslot7signal3IP9GuiButtoniRK6_POINTNS_15single_threadedEE7connectI12NumpadWindowEEvPT_MSA_FvS
 3908              	.LFB1628:
 3909              		.loc 1 2308 0
 3910              		.cfi_startproc
 3911              		.cfi_personality 0,__gxx_personality_v0
 3912              		.cfi_lsda 0,.LLSDA1628
 3913              	.LVL325:
 3914 0000 7C0802A6 		mflr 0
 3915 0004 9421FFD0 		stwu 1,-48(1)
 3916              	.LCFI55:
 3917              		.cfi_def_cfa_offset 48
 3918              		.cfi_register 65, 0
 3919 0008 9361001C 		stw 27,28(1)
 3920 000c 90010034 		stw 0,52(1)
 3921 0010 93C10028 		stw 30,40(1)
 3922 0014 7C9E2378 		mr 30,4
 3923              		.cfi_offset 30, -8
 3924              		.cfi_offset 65, 4
 3925              		.cfi_offset 27, -20
 3926              	.LBB3129:
 3927              	.LBB3130:
 3928              	.LBB3131:
 3929              		.loc 1 338 0
 3930 0018 81230000 		lwz 9,0(3)
 3931              	.LBE3131:
 3932              	.LBE3130:
 3933              	.LBE3129:
 3934              		.loc 1 2308 0
 3935 001c 93E1002C 		stw 31,44(1)
 3936 0020 7C7F1B78 		mr 31,3
 3937              		.cfi_offset 31, -4
 3938              	.LVL326:
 3939              	.LBB3184:
 3940              	.LBB3135:
 3941              	.LBB3132:
 3942              		.loc 1 338 0
 3943 0024 80090008 		lwz 0,8(9)
 3944              	.LBE3132:
 3945              	.LBE3135:
 3946              	.LBE3184:
 3947              		.loc 1 2308 0
 3948 0028 93810020 		stw 28,32(1)
 3949 002c 93A10024 		stw 29,36(1)
 3950              	.LBB3185:
 3951              	.LBB3136:
 3952              	.LBB3133:
 3953              		.loc 1 338 0
 3954 0030 7C0903A6 		mtctr 0
 3955              	.LBE3133:
 3956              	.LBE3136:
 3957              	.LBE3185:
 3958              		.loc 1 2308 0
 3959 0034 83650000 		lwz 27,0(5)
 3960 0038 83850004 		lwz 28,4(5)
 3961              		.cfi_offset 29, -12
 3962              		.cfi_offset 28, -16
 3963              	.LEHB20:
 3964              	.LBB3186:
 3965              	.LBB3137:
 3966              	.LBB3134:
 3967              		.loc 1 338 0
 3968 003c 4E800421 		bctrl
 3969              	.LEHE20:
 3970              	.LVL327:
 3971              	.LBE3134:
 3972              	.LBE3137:
 3973              		.loc 1 2314 0
 3974 0040 38600010 		li 3,16
 3975              	.LEHB21:
 3976 0044 48000001 		bl _Znwj
 3977              	.LBB3138:
 3978              	.LBB3139:
 3979              		.loc 1 1778 0
 3980 0048 3D200000 		lis 9,_ZTVN7sigslot12_connection3I12NumpadWindowP9GuiButtoniRK6_POINTNS_15single_threadedEEE+8@ha
 3981              		.loc 1 1779 0
 3982 004c 93C30004 		stw 30,4(3)
 3983              		.loc 1 1778 0
 3984 0050 38090008 		la 0,_ZTVN7sigslot12_connection3I12NumpadWindowP9GuiButtoniRK6_POINTNS_15single_threadedEEE+8@l(9)
 3985              		.loc 1 1780 0
 3986 0054 93630008 		stw 27,8(3)
 3987              		.loc 1 1778 0
 3988 0058 90030000 		stw 0,0(3)
 3989              	.LBE3139:
 3990              	.LBE3138:
 3991              		.loc 1 2314 0
 3992 005c 7C7D1B78 		mr 29,3
 3993              	.LVL328:
 3994              	.LBB3141:
 3995              	.LBB3140:
 3996              		.loc 1 1780 0
 3997 0060 9383000C 		stw 28,12(3)
 3998              	.LVL329:
 3999              	.LBE3140:
 4000              	.LBE3141:
 4001              	.LBB3142:
 4002              	.LBB3143:
 4003              	.LBB3144:
 4004              	.LBB3145:
 4005              	.LBB3146:
 4006              	.LBB3147:
 4007              	.LBB3148:
 4008              	.LBB3149:
 4009              		.loc 6 92 0
 4010 0064 3860000C 		li 3,12
 4011              	.LVL330:
 4012 0068 48000001 		bl _Znwj
 4013              	.LVL331:
 4014              	.LBE3149:
 4015              	.LBE3148:
 4016              	.LBE3147:
 4017              	.LBB3150:
 4018              	.LBB3151:
 4019              		.loc 6 108 0 discriminator 1
 4020 006c 2F83FFF8 		cmpwi 7,3,-8
 4021 0070 419E0008 		beq- 7,.L282
 4022              		.loc 6 108 0 is_stmt 0
 4023 0074 93A30008 		stw 29,8(3)
 4024              	.LVL332:
 4025              	.L282:
 4026              	.LBE3151:
 4027              	.LBE3150:
 4028              	.LBE3146:
 4029              	.LBE3145:
 4030              		.loc 5 1516 0 is_stmt 1
 4031 0078 389F0004 		addi 4,31,4
 4032              	.LBE3144:
 4033              	.LBE3143:
 4034              	.LBE3142:
 4035              	.LBB3156:
 4036              	.LBB3157:
 4037              		.loc 1 503 0
 4038 007c 3BBE00B0 		addi 29,30,176
 4039              	.LVL333:
 4040              	.LBE3157:
 4041              	.LBE3156:
 4042              	.LBB3173:
 4043              	.LBB3154:
 4044              	.LBB3152:
 4045              		.loc 5 1516 0
 4046 0080 48000001 		bl _ZNSt8__detail15_List_node_base7_M_hookEPS0_
 4047              	.LVL334:
 4048              	.LBE3152:
 4049              	.LBE3154:
 4050              	.LBE3173:
 4051              	.LBB3174:
 4052              	.LBB3170:
 4053              	.LBB3158:
 4054              	.LBB3159:
 4055              		.loc 1 338 0
 4056 0084 813E00B0 		lwz 9,176(30)
 4057              	.LBE3159:
 4058              	.LBE3158:
 4059              	.LBE3170:
 4060              	.LBE3174:
 4061              	.LBB3175:
 4062              	.LBB3155:
 4063              	.LBB3153:
 4064              		.loc 5 1516 0
 4065 0088 93E10008 		stw 31,8(1)
 4066              	.LVL335:
 4067              	.LBE3153:
 4068              	.LBE3155:
 4069              	.LBE3175:
 4070              	.LBB3176:
 4071              	.LBB3171:
 4072              	.LBB3161:
 4073              	.LBB3160:
 4074              		.loc 1 338 0
 4075 008c 7FA3EB78 		mr 3,29
 4076 0090 80090008 		lwz 0,8(9)
 4077 0094 7C0903A6 		mtctr 0
 4078 0098 4E800421 		bctrl
 4079              	.LEHE21:
 4080              	.LVL336:
 4081              	.LBE3160:
 4082              	.LBE3161:
 4083              	.LBB3162:
 4084              	.LBB3163:
 4085              		.file 8 "d:\\devkitpro\\devkitppc\\bin\\../lib/gcc/powerpc-eabi/4.6.3/../../../../powerpc-eabi/inc
 4086              		.loc 8 410 0
 4087 009c 387E00B4 		addi 3,30,180
 4088 00a0 38810008 		addi 4,1,8
 4089              	.LEHB22:
 4090 00a4 48000001 		bl _ZNSt8_Rb_treeIPN7sigslot12_signal_baseINS0_15single_threadedEEES4_St9_IdentityIS4_ESt4lessIS4_
 4091              	.LEHE22:
 4092              	.LVL337:
 4093              	.LBE3163:
 4094              	.LBE3162:
 4095              	.LBB3164:
 4096              	.LBB3165:
 4097              	.LBB3166:
 4098              		.loc 1 343 0
 4099 00a8 813E00B0 		lwz 9,176(30)
 4100 00ac 7FA3EB78 		mr 3,29
 4101 00b0 8009000C 		lwz 0,12(9)
 4102 00b4 7C0903A6 		mtctr 0
 4103              	.LEHB23:
 4104 00b8 4E800421 		bctrl
 4105              	.LEHE23:
 4106              	.LVL338:
 4107              	.LBE3166:
 4108              	.LBE3165:
 4109              	.LBE3164:
 4110              	.LBE3171:
 4111              	.LBE3176:
 4112              	.LBB3177:
 4113              	.LBB3178:
 4114              	.LBB3179:
 4115 00bc 813F0000 		lwz 9,0(31)
 4116 00c0 7FE3FB78 		mr 3,31
 4117 00c4 8009000C 		lwz 0,12(9)
 4118 00c8 7C0903A6 		mtctr 0
 4119              	.LEHB24:
 4120 00cc 4E800421 		bctrl
 4121              	.LEHE24:
 4122              	.LBE3179:
 4123              	.LBE3178:
 4124              	.LBE3177:
 4125              	.LBE3186:
 4126              		.loc 1 2317 0
 4127 00d0 80010034 		lwz 0,52(1)
 4128 00d4 8361001C 		lwz 27,28(1)
 4129              	.LVL339:
 4130 00d8 7C0803A6 		mtlr 0
 4131 00dc 83810020 		lwz 28,32(1)
 4132              	.LVL340:
 4133 00e0 83A10024 		lwz 29,36(1)
 4134              	.LVL341:
 4135 00e4 83C10028 		lwz 30,40(1)
 4136              	.LVL342:
 4137 00e8 83E1002C 		lwz 31,44(1)
 4138              	.LVL343:
 4139 00ec 38210030 		addi 1,1,48
 4140              		.cfi_remember_state
 4141              	.LCFI56:
 4142              		.cfi_def_cfa_offset 0
 4143              		.cfi_restore 31
 4144              		.cfi_restore 30
 4145              		.cfi_restore 29
 4146              		.cfi_restore 28
 4147              		.cfi_restore 27
 4148 00f0 4E800020 		blr
 4149              	.LVL344:
 4150              	.L289:
 4151              	.LCFI57:
 4152              		.cfi_restore_state
 4153 00f4 7C7E1B78 		mr 30,3
 4154              	.LVL345:
 4155              	.L286:
 4156              	.LBB3187:
 4157              	.LBB3180:
 4158              	.LBB3181:
 4159              	.LBB3182:
 4160              		.loc 1 343 0
 4161 00f8 813F0000 		lwz 9,0(31)
 4162 00fc 7FE3FB78 		mr 3,31
 4163 0100 8009000C 		lwz 0,12(9)
 4164 0104 7C0903A6 		mtctr 0
 4165 0108 4E800421 		bctrl
 4166 010c 7FC3F378 		mr 3,30
 4167              	.LEHB25:
 4168 0110 48000001 		bl _Unwind_Resume
 4169              	.LEHE25:
 4170              	.LVL346:
 4171              	.L290:
 4172              	.LBE3182:
 4173              	.LBE3181:
 4174              	.LBE3180:
 4175              	.LBB3183:
 4176              	.LBB3172:
 4177              	.LBB3167:
 4178              	.LBB3168:
 4179              	.LBB3169:
 4180 0114 813E00B0 		lwz 9,176(30)
 4181 0118 7C7E1B78 		mr 30,3
 4182              	.LVL347:
 4183 011c 7FA3EB78 		mr 3,29
 4184 0120 8009000C 		lwz 0,12(9)
 4185 0124 7C0903A6 		mtctr 0
 4186 0128 4E800421 		bctrl
 4187 012c 4BFFFFCC 		b .L286
 4188              	.LBE3169:
 4189              	.LBE3168:
 4190              	.LBE3167:
 4191              	.LBE3172:
 4192              	.LBE3183:
 4193              	.LBE3187:
 4194              		.cfi_endproc
 4195              	.LFE1628:
 4196              		.section	.gcc_except_table
 4197              	.LLSDA1628:
 4198 0078 FF       		.byte	0xff
 4199 0079 FF       		.byte	0xff
 4200 007a 01       		.byte	0x1
 4201 007b 1F       		.uleb128 .LLSDACSE1628-.LLSDACSB1628
 4202              	.LLSDACSB1628:
 4203 007c 3C       		.uleb128 .LEHB20-.LFB1628
 4204 007d 04       		.uleb128 .LEHE20-.LEHB20
 4205 007e 00       		.uleb128 0
 4206 007f 00       		.uleb128 0
 4207 0080 44       		.uleb128 .LEHB21-.LFB1628
 4208 0081 58       		.uleb128 .LEHE21-.LEHB21
 4209 0082 F401     		.uleb128 .L289-.LFB1628
 4210 0084 00       		.uleb128 0
 4211 0085 A401     		.uleb128 .LEHB22-.LFB1628
 4212 0087 04       		.uleb128 .LEHE22-.LEHB22
 4213 0088 9402     		.uleb128 .L290-.LFB1628
 4214 008a 00       		.uleb128 0
 4215 008b B801     		.uleb128 .LEHB23-.LFB1628
 4216 008d 04       		.uleb128 .LEHE23-.LEHB23
 4217 008e F401     		.uleb128 .L289-.LFB1628
 4218 0090 00       		.uleb128 0
 4219 0091 CC01     		.uleb128 .LEHB24-.LFB1628
 4220 0093 04       		.uleb128 .LEHE24-.LEHB24
 4221 0094 00       		.uleb128 0
 4222 0095 00       		.uleb128 0
 4223 0096 9002     		.uleb128 .LEHB25-.LFB1628
 4224 0098 04       		.uleb128 .LEHE25-.LEHB25
 4225 0099 00       		.uleb128 0
 4226 009a 00       		.uleb128 0
 4227              	.LLSDACSE1628:
 4228              		.section	.text._ZN7sigslot7signal3IP9GuiButtoniRK6_POINTNS_15single_threadedEE7connectI12NumpadWin
 4229              		.size	_ZN7sigslot7signal3IP9GuiButtoniRK6_POINTNS_15single_threadedEE7connectI12NumpadWindowEEvPT_
 4230              		.section	.text._ZNSt8_Rb_treeIPN7sigslot12_signal_baseINS0_15single_threadedEEES4_St9_IdentityIS4_
 4231              		.align 2
 4232              		.weak	_ZNSt8_Rb_treeIPN7sigslot12_signal_baseINS0_15single_threadedEEES4_St9_IdentityIS4_ESt4lessI
 4233              		.type	_ZNSt8_Rb_treeIPN7sigslot12_signal_baseINS0_15single_threadedEEES4_St9_IdentityIS4_ESt4lessI
 4234              	_ZNSt8_Rb_treeIPN7sigslot12_signal_baseINS0_15single_threadedEEES4_St9_IdentityIS4_ESt4lessIS4_ESaI
 4235              	.LFB1964:
 4236              		.loc 7 1510 0
 4237              		.cfi_startproc
 4238              	.LVL348:
 4239 0000 7C0802A6 		mflr 0
 4240 0004 9421FFE0 		stwu 1,-32(1)
 4241              	.LCFI58:
 4242              		.cfi_def_cfa_offset 32
 4243              		.cfi_register 65, 0
 4244 0008 93810010 		stw 28,16(1)
 4245              	.LBB3240:
 4246              	.LBB3241:
 4247              		.loc 7 1155 0
 4248 000c 3B830004 		addi 28,3,4
 4249              		.cfi_offset 28, -16
 4250              	.LBE3241:
 4251              	.LBE3240:
 4252              		.loc 7 1510 0
 4253 0010 90010024 		stw 0,36(1)
 4254 0014 93410008 		stw 26,8(1)
 4255              	.LBB3300:
 4256              	.LBB3262:
 4257              	.LBB3242:
 4258              		.loc 7 1155 0
 4259 0018 7F9AE378 		mr 26,28
 4260              		.cfi_offset 26, -24
 4261              		.cfi_offset 65, 4
 4262              	.LBE3242:
 4263              		.loc 4 93 0
 4264 001c 80030008 		lwz 0,8(3)
 4265              	.LBE3262:
 4266              	.LBE3300:
 4267              		.loc 7 1510 0
 4268 0020 93A10014 		stw 29,20(1)
 4269              	.LBB3301:
 4270              	.LBB3263:
 4271              	.LBB3255:
 4272              		.loc 7 1155 0
 4273 0024 7F9DE378 		mr 29,28
 4274              		.cfi_offset 29, -12
 4275              		.loc 7 1156 0
 4276 0028 2F800000 		cmpwi 7,0,0
 4277              	.LBE3255:
 4278              	.LBE3263:
 4279              	.LBE3301:
 4280              		.loc 7 1510 0
 4281 002c 93C10018 		stw 30,24(1)
 4282 0030 9361000C 		stw 27,12(1)
 4283 0034 7C7E1B78 		mr 30,3
 4284              		.cfi_offset 27, -20
 4285              		.cfi_offset 30, -8
 4286              	.LVL349:
 4287 0038 93E1001C 		stw 31,28(1)
 4288              	.LBB3302:
 4289              	.LBB3264:
 4290              	.LBB3256:
 4291              		.loc 7 1156 0
 4292 003c 419E0040 		beq- 7,.L293
 4293              		.cfi_offset 31, -4
 4294              	.LVL350:
 4295 0040 81640000 		lwz 11,0(4)
 4296 0044 7C1A0378 		mr 26,0
 4297 0048 48000010 		b .L304
 4298              	.LVL351:
 4299              	.L322:
 4300              	.LBE3256:
 4301              		.loc 4 93 0
 4302 004c 835A000C 		lwz 26,12(26)
 4303              	.LVL352:
 4304              	.LBB3257:
 4305              		.loc 7 1156 0
 4306 0050 2F9A0000 		cmpwi 7,26,0
 4307 0054 419E0024 		beq- 7,.L321
 4308              	.L304:
 4309              	.LVL353:
 4310              	.LBE3257:
 4311              		.loc 4 93 0
 4312 0058 813A0010 		lwz 9,16(26)
 4313              	.LBB3258:
 4314              	.LBB3243:
 4315              		.loc 7 1158 0
 4316 005c 7F895840 		cmplw 7,9,11
 4317 0060 41BCFFEC 		blt- 7,.L322
 4318              	.LVL354:
 4319              	.LBB3244:
 4320              		.loc 7 1160 0
 4321 0064 409D0094 		ble- 7,.L296
 4322              	.LVL355:
 4323              	.LBE3244:
 4324              	.LBE3243:
 4325              	.LBE3258:
 4326              		.loc 4 93 0
 4327 0068 7F5DD378 		mr 29,26
 4328              		.loc 7 1161 0
 4329 006c 835A0008 		lwz 26,8(26)
 4330              	.LVL356:
 4331              	.LBB3259:
 4332              		.loc 7 1156 0
 4333 0070 2F9A0000 		cmpwi 7,26,0
 4334 0074 409EFFE4 		bne+ 7,.L304
 4335              	.LVL357:
 4336              	.L321:
 4337 0078 7FBAEB78 		mr 26,29
 4338              	.LVL358:
 4339              	.L293:
 4340              	.LBE3259:
 4341              	.LBE3264:
 4342              	.LBB3265:
 4343              	.LBB3266:
 4344              	.LBB3267:
 4345              		.loc 7 1500 0
 4346 007c 813E000C 		lwz 9,12(30)
 4347              	.LBE3267:
 4348              	.LBE3266:
 4349              	.LBE3265:
 4350              	.LBB3296:
 4351              	.LBB3260:
 4352              		.loc 4 93 0
 4353 0080 837E0014 		lwz 27,20(30)
 4354              	.LVL359:
 4355              	.LBE3260:
 4356              	.LBE3296:
 4357              	.LBB3297:
 4358              	.LBB3294:
 4359              	.LBB3292:
 4360              		.loc 7 1500 0
 4361 0084 7F9A4800 		cmpw 7,26,9
 4362 0088 419E00DC 		beq- 7,.L323
 4363              	.L305:
 4364              	.LVL360:
 4365              		.loc 7 1503 0
 4366 008c 7F9DD000 		cmpw 7,29,26
 4367 0090 419E0100 		beq- 7,.L312
 4368              	.LVL361:
 4369              	.L319:
 4370              	.LBB3268:
 4371              	.LBB3269:
 4372              		.loc 7 277 0
 4373 0094 7F43D378 		mr 3,26
 4374 0098 48000001 		bl _ZSt18_Rb_tree_incrementPKSt18_Rb_tree_node_base
 4375              	.LBE3269:
 4376              	.LBE3268:
 4377              	.LBB3271:
 4378              	.LBB3272:
 4379              	.LBB3273:
 4380              		.loc 7 1489 0
 4381 009c 7F84E378 		mr 4,28
 4382              	.LBE3273:
 4383              	.LBE3272:
 4384              	.LBE3271:
 4385              	.LBB3284:
 4386              	.LBB3270:
 4387              		.loc 7 277 0
 4388 00a0 7C7F1B78 		mr 31,3
 4389              	.LVL362:
 4390              	.LBE3270:
 4391              	.LBE3284:
 4392              	.LBB3285:
 4393              	.LBB3281:
 4394              	.LBB3278:
 4395              		.loc 7 1489 0
 4396 00a4 7F43D378 		mr 3,26
 4397              	.LVL363:
 4398 00a8 48000001 		bl _ZSt28_Rb_tree_rebalance_for_erasePSt18_Rb_tree_node_baseRS_
 4399              	.LBE3278:
 4400              	.LBE3281:
 4401              	.LBE3285:
 4402              		.loc 7 277 0
 4403 00ac 7FFAFB78 		mr 26,31
 4404              	.LVL364:
 4405              	.LBB3286:
 4406              	.LBB3282:
 4407              	.LBB3279:
 4408              	.LBB3274:
 4409              	.LBB3275:
 4410              	.LBB3276:
 4411              	.LBB3277:
 4412              		.loc 6 98 0
 4413 00b0 48000001 		bl _ZdlPv
 4414              	.LBE3277:
 4415              	.LBE3276:
 4416              	.LBE3275:
 4417              	.LBE3274:
 4418              	.LBE3279:
 4419              	.LBE3282:
 4420              	.LBE3286:
 4421              		.loc 7 1503 0
 4422 00b4 7F9DF800 		cmpw 7,29,31
 4423              	.LBB3287:
 4424              	.LBB3283:
 4425              	.LBB3280:
 4426              		.loc 7 1491 0
 4427 00b8 813E0014 		lwz 9,20(30)
 4428 00bc 3809FFFF 		addi 0,9,-1
 4429 00c0 901E0014 		stw 0,20(30)
 4430              	.LBE3280:
 4431              	.LBE3283:
 4432              	.LBE3287:
 4433              		.loc 7 1503 0
 4434 00c4 409EFFD0 		bne+ 7,.L319
 4435 00c8 7F60D850 		subf 27,0,27
 4436              	.LVL365:
 4437              	.L307:
 4438              	.LBE3292:
 4439              	.LBE3294:
 4440              	.LBE3297:
 4441              	.LBE3302:
 4442              		.loc 7 1517 0
 4443 00cc 80010024 		lwz 0,36(1)
 4444 00d0 7F63DB78 		mr 3,27
 4445 00d4 83410008 		lwz 26,8(1)
 4446 00d8 7C0803A6 		mtlr 0
 4447 00dc 8361000C 		lwz 27,12(1)
 4448 00e0 83810010 		lwz 28,16(1)
 4449 00e4 83A10014 		lwz 29,20(1)
 4450              	.LVL366:
 4451 00e8 83C10018 		lwz 30,24(1)
 4452              	.LVL367:
 4453 00ec 83E1001C 		lwz 31,28(1)
 4454 00f0 38210020 		addi 1,1,32
 4455              		.cfi_remember_state
 4456              	.LCFI59:
 4457              		.cfi_def_cfa_offset 0
 4458              		.cfi_restore 31
 4459              		.cfi_restore 30
 4460              		.cfi_restore 29
 4461              		.cfi_restore 28
 4462              		.cfi_restore 27
 4463              		.cfi_restore 26
 4464 00f4 4E800020 		blr
 4465              	.LVL368:
 4466              	.L296:
 4467              	.LCFI60:
 4468              		.cfi_restore_state
 4469              	.LBB3303:
 4470              	.LBB3298:
 4471              		.loc 4 93 0
 4472 00f8 815A0008 		lwz 10,8(26)
 4473              	.LVL369:
 4474 00fc 813A000C 		lwz 9,12(26)
 4475              	.LVL370:
 4476              	.L320:
 4477              	.LBB3261:
 4478              	.LBB3254:
 4479              	.LBB3253:
 4480              	.LBB3245:
 4481              	.LBB3246:
 4482              	.LBB3247:
 4483              		.loc 7 1089 0
 4484 0100 2F8A0000 		cmpwi 7,10,0
 4485 0104 419E0020 		beq- 7,.L297
 4486              	.L324:
 4487              	.LVL371:
 4488              		.loc 7 1090 0
 4489 0108 810A0010 		lwz 8,16(10)
 4490 010c 7F885840 		cmplw 7,8,11
 4491 0110 419C004C 		blt- 7,.L298
 4492              	.LVL372:
 4493              	.LBE3247:
 4494              		.loc 4 93 0
 4495 0114 7D5A5378 		mr 26,10
 4496              		.loc 7 1091 0
 4497 0118 814A0008 		lwz 10,8(10)
 4498              	.LVL373:
 4499              	.LBB3248:
 4500              		.loc 7 1089 0
 4501 011c 2F8A0000 		cmpwi 7,10,0
 4502 0120 409EFFE8 		bne+ 7,.L324
 4503              	.LVL374:
 4504              	.L297:
 4505              	.LBE3248:
 4506              	.LBE3246:
 4507              	.LBB3249:
 4508              	.LBB3250:
 4509              		.loc 7 1121 0
 4510 0124 2F890000 		cmpwi 7,9,0
 4511 0128 41BEFF54 		beq- 7,.L293
 4512              	.LVL375:
 4513              		.loc 7 1122 0
 4514 012c 81490010 		lwz 10,16(9)
 4515 0130 7F8A5840 		cmplw 7,10,11
 4516 0134 409D0020 		ble- 7,.L301
 4517              	.LVL376:
 4518              	.L325:
 4519              	.LBE3250:
 4520              		.loc 4 93 0
 4521 0138 7D3D4B78 		mr 29,9
 4522              		.loc 7 1123 0
 4523 013c 81290008 		lwz 9,8(9)
 4524              	.LVL377:
 4525              	.LBB3251:
 4526              		.loc 7 1121 0
 4527 0140 2F890000 		cmpwi 7,9,0
 4528 0144 41BEFF38 		beq- 7,.L293
 4529              	.LVL378:
 4530              		.loc 7 1122 0
 4531 0148 81490010 		lwz 10,16(9)
 4532 014c 7F8A5840 		cmplw 7,10,11
 4533 0150 41BDFFE8 		bgt- 7,.L325
 4534              	.LVL379:
 4535              	.L301:
 4536              	.LBE3251:
 4537              		.loc 4 93 0
 4538 0154 8129000C 		lwz 9,12(9)
 4539              	.LVL380:
 4540 0158 4BFFFFCC 		b .L297
 4541              	.LVL381:
 4542              	.L298:
 4543              	.LBE3249:
 4544              	.LBB3252:
 4545 015c 814A000C 		lwz 10,12(10)
 4546              	.LVL382:
 4547 0160 4BFFFFA0 		b .L320
 4548              	.LVL383:
 4549              	.L323:
 4550              	.LBE3252:
 4551              	.LBE3245:
 4552              	.LBE3253:
 4553              	.LBE3254:
 4554              	.LBE3261:
 4555              	.LBE3298:
 4556              	.LBB3299:
 4557              	.LBB3295:
 4558              	.LBB3293:
 4559              		.loc 7 1500 0
 4560 0164 7F9CE800 		cmpw 7,28,29
 4561 0168 409EFF24 		bne+ 7,.L305
 4562              	.LVL384:
 4563              	.LBB3288:
 4564              	.LBB3289:
 4565              	.LBB3290:
 4566              	.LBB3291:
 4567              		.loc 7 809 0
 4568 016c 7C040378 		mr 4,0
 4569              	.LVL385:
 4570 0170 7FC3F378 		mr 3,30
 4571              	.LVL386:
 4572 0174 48000001 		bl _ZNSt8_Rb_treeIPN7sigslot12_signal_baseINS0_15single_threadedEEES4_St9_IdentityIS4_ESt4lessIS4_
 4573              	.LVL387:
 4574              		.loc 7 811 0
 4575 0178 38000000 		li 0,0
 4576              		.loc 7 810 0
 4577 017c 939E000C 		stw 28,12(30)
 4578              	.LVL388:
 4579              		.loc 7 811 0
 4580 0180 901E0008 		stw 0,8(30)
 4581              	.LVL389:
 4582              		.loc 7 812 0
 4583 0184 939E0010 		stw 28,16(30)
 4584              		.loc 7 813 0
 4585 0188 901E0014 		stw 0,20(30)
 4586 018c 4BFFFF40 		b .L307
 4587              	.LVL390:
 4588              	.L312:
 4589              	.LBE3291:
 4590              	.LBE3290:
 4591              	.LBE3289:
 4592              	.LBE3288:
 4593              		.loc 7 1503 0
 4594 0190 3B600000 		li 27,0
 4595 0194 4BFFFF38 		b .L307
 4596              	.LBE3293:
 4597              	.LBE3295:
 4598              	.LBE3299:
 4599              	.LBE3303:
 4600              		.cfi_endproc
 4601              	.LFE1964:
 4602              		.size	_ZNSt8_Rb_treeIPN7sigslot12_signal_baseINS0_15single_threadedEEES4_St9_IdentityIS4_ESt4lessI
 4603              		.section	.text._ZN7sigslot13_signal_base2IP12NumpadWindowPcNS_15single_threadedEED0Ev,"axG",@progb
 4604              		.align 2
 4605              		.weak	_ZN7sigslot13_signal_base2IP12NumpadWindowPcNS_15single_threadedEED0Ev
 4606              		.type	_ZN7sigslot13_signal_base2IP12NumpadWindowPcNS_15single_threadedEED0Ev, @function
 4607              	_ZN7sigslot13_signal_base2IP12NumpadWindowPcNS_15single_threadedEED0Ev:
 4608              	.LFB1704:
 4609              		.loc 1 823 0
 4610              		.cfi_startproc
 4611              		.cfi_personality 0,__gxx_personality_v0
 4612              		.cfi_lsda 0,.LLSDA1704
 4613              	.LVL391:
 4614 0000 7C0802A6 		mflr 0
 4615 0004 9421FFD8 		stwu 1,-40(1)
 4616              	.LCFI61:
 4617              		.cfi_def_cfa_offset 40
 4618              		.cfi_register 65, 0
 4619              	.LBB3399:
 4620              	.LBB3400:
 4621              	.LBB3401:
 4622              		.loc 1 826 0
 4623 0008 3D200000 		lis 9,_ZTVN7sigslot13_signal_base2IP12NumpadWindowPcNS_15single_threadedEEE+8@ha
 4624              	.LBE3401:
 4625              	.LBE3400:
 4626              	.LBE3399:
 4627              		.loc 1 823 0
 4628 000c 93810018 		stw 28,24(1)
 4629 0010 7C7C1B78 		mr 28,3
 4630              		.cfi_offset 28, -16
 4631              	.LVL392:
 4632 0014 9001002C 		stw 0,44(1)
 4633              	.LBB3486:
 4634              	.LBB3482:
 4635              	.LBB3478:
 4636              		.loc 1 826 0
 4637 0018 38090008 		la 0,_ZTVN7sigslot13_signal_base2IP12NumpadWindowPcNS_15single_threadedEEE+8@l(9)
 4638              		.cfi_offset 65, 4
 4639              	.LBE3478:
 4640              	.LBE3482:
 4641              	.LBE3486:
 4642              		.loc 1 823 0
 4643 001c 93A1001C 		stw 29,28(1)
 4644 0020 3BA30004 		addi 29,3,4
 4645              		.cfi_offset 29, -12
 4646 0024 93C10020 		stw 30,32(1)
 4647 0028 93E10024 		stw 31,36(1)
 4648              	.LBB3487:
 4649              	.LBB3483:
 4650              	.LBB3479:
 4651              		.loc 1 826 0
 4652 002c 90030000 		stw 0,0(3)
 4653              	.LVL393:
 4654              	.LEHB26:
 4655              	.LBB3402:
 4656              	.LBB3403:
 4657              	.LBB3404:
 4658              	.LBB3405:
 4659              		.loc 1 338 0
 4660              		.cfi_offset 31, -4
 4661              		.cfi_offset 30, -8
 4662 0030 48000001 		bl _ZN7sigslot15single_threaded4lockEv
 4663              	.LEHE26:
 4664              	.LVL394:
 4665              	.LBE3405:
 4666              	.LBE3404:
 4667              	.LBE3403:
 4668              		.loc 4 93 0
 4669 0034 7F9DE378 		mr 29,28
 4670              	.LVL395:
 4671 0038 87FD0004 		lwzu 31,4(29)
 4672              	.LVL396:
 4673              	.LBB3436:
 4674              		.loc 1 834 0
 4675 003c 7F9FE800 		cmpw 7,31,29
 4676 0040 419E00A8 		beq- 7,.L327
 4677              	.LVL397:
 4678              	.L365:
 4679              		.loc 1 836 0
 4680 0044 807F0008 		lwz 3,8(31)
 4681 0048 81230000 		lwz 9,0(3)
 4682 004c 80090008 		lwz 0,8(9)
 4683 0050 7C0903A6 		mtctr 0
 4684              	.LEHB27:
 4685 0054 4E800421 		bctrl
 4686              	.LBB3406:
 4687              	.LBB3407:
 4688              	.LBB3408:
 4689              	.LBB3409:
 4690              		.loc 1 338 0
 4691 0058 81230000 		lwz 9,0(3)
 4692              	.LBE3409:
 4693              	.LBE3408:
 4694              	.LBE3407:
 4695              	.LBE3406:
 4696              		.loc 1 836 0
 4697 005c 7C7E1B78 		mr 30,3
 4698              	.LVL398:
 4699 0060 93810008 		stw 28,8(1)
 4700              	.LVL399:
 4701              	.LBB3418:
 4702              	.LBB3417:
 4703              	.LBB3411:
 4704              	.LBB3410:
 4705              		.loc 1 338 0
 4706 0064 80090008 		lwz 0,8(9)
 4707 0068 7C0903A6 		mtctr 0
 4708 006c 4E800421 		bctrl
 4709              	.LVL400:
 4710              	.LBE3410:
 4711              	.LBE3411:
 4712              	.LBB3412:
 4713              	.LBB3413:
 4714              		.loc 8 528 0
 4715 0070 387E0004 		addi 3,30,4
 4716 0074 38810008 		addi 4,1,8
 4717 0078 48000001 		bl _ZNSt8_Rb_treeIPN7sigslot12_signal_baseINS0_15single_threadedEEES4_St9_IdentityIS4_ESt4lessIS4_
 4718              	.LVL401:
 4719              	.LBE3413:
 4720              	.LBE3412:
 4721              	.LBB3414:
 4722              	.LBB3415:
 4723              	.LBB3416:
 4724              		.loc 1 343 0
 4725 007c 813E0000 		lwz 9,0(30)
 4726 0080 7FC3F378 		mr 3,30
 4727 0084 8009000C 		lwz 0,12(9)
 4728 0088 7C0903A6 		mtctr 0
 4729 008c 4E800421 		bctrl
 4730              	.LVL402:
 4731              	.LBE3416:
 4732              	.LBE3415:
 4733              	.LBE3414:
 4734              	.LBE3417:
 4735              	.LBE3418:
 4736              		.loc 1 837 0
 4737 0090 807F0008 		lwz 3,8(31)
 4738 0094 2F830000 		cmpwi 7,3,0
 4739 0098 419E0014 		beq- 7,.L329
 4740 009c 81230000 		lwz 9,0(3)
 4741 00a0 80090004 		lwz 0,4(9)
 4742 00a4 7C0903A6 		mtctr 0
 4743 00a8 4E800421 		bctrl
 4744              	.LEHE27:
 4745              	.L329:
 4746              	.LVL403:
 4747              	.LBB3419:
 4748              	.LBB3420:
 4749              		.loc 5 234 0
 4750 00ac 83FF0000 		lwz 31,0(31)
 4751              	.LVL404:
 4752              	.LBE3420:
 4753              	.LBE3419:
 4754              		.loc 1 834 0
 4755 00b0 7F9DF800 		cmpw 7,29,31
 4756 00b4 409EFF90 		bne+ 7,.L365
 4757              	.LBE3436:
 4758              		.loc 4 93 0
 4759 00b8 83FC0004 		lwz 31,4(28)
 4760              	.LVL405:
 4761              	.LBB3437:
 4762              	.LBB3421:
 4763              	.LBB3422:
 4764              		.loc 5 1162 0
 4765 00bc 7F9DF800 		cmpw 7,29,31
 4766 00c0 40BE000C 		bne+ 7,.L367
 4767 00c4 48000024 		b .L327
 4768              	.LVL406:
 4769              	.L360:
 4770              		.loc 5 1163 0
 4771 00c8 7FDFF378 		mr 31,30
 4772              	.LVL407:
 4773              	.L367:
 4774              	.LBB3423:
 4775              	.LBB3424:
 4776              		.file 9 "d:\\devkitpro\\devkitppc\\bin\\../lib/gcc/powerpc-eabi/4.6.3/../../../../powerpc-eabi/inc
 4777              		.loc 9 112 0
 4778 00cc 83DF0000 		lwz 30,0(31)
 4779              	.LVL408:
 4780              	.LBB3425:
 4781              	.LBB3426:
 4782              		.loc 5 1532 0
 4783 00d0 7FE3FB78 		mr 3,31
 4784 00d4 48000001 		bl _ZNSt8__detail15_List_node_base9_M_unhookEv
 4785              	.LVL409:
 4786              	.LBB3427:
 4787              	.LBB3428:
 4788              	.LBB3429:
 4789              		.loc 6 98 0
 4790 00d8 7FE3FB78 		mr 3,31
 4791 00dc 48000001 		bl _ZdlPv
 4792              	.LVL410:
 4793              	.LBE3429:
 4794              	.LBE3428:
 4795              	.LBE3427:
 4796              	.LBE3426:
 4797              	.LBE3425:
 4798              	.LBE3424:
 4799              	.LBE3423:
 4800              		.loc 5 1162 0
 4801 00e0 7F9DF000 		cmpw 7,29,30
 4802 00e4 409EFFE4 		bne+ 7,.L360
 4803              	.LVL411:
 4804              	.L327:
 4805              	.LBE3422:
 4806              	.LBE3421:
 4807              	.LBB3430:
 4808              	.LBB3431:
 4809              	.LBB3432:
 4810              		.loc 1 343 0
 4811 00e8 813C0000 		lwz 9,0(28)
 4812 00ec 7F83E378 		mr 3,28
 4813 00f0 8009000C 		lwz 0,12(9)
 4814 00f4 7C0903A6 		mtctr 0
 4815              	.LEHB28:
 4816 00f8 4E800421 		bctrl
 4817              	.LEHE28:
 4818              	.LVL412:
 4819              	.LBE3432:
 4820              	.LBE3431:
 4821              	.LBE3430:
 4822              	.LBE3437:
 4823              	.LBE3402:
 4824              	.LBB3439:
 4825              	.LBB3440:
 4826              	.LBB3441:
 4827              	.LBB3442:
 4828              	.LBB3443:
 4829              	.LBB3444:
 4830              		.loc 9 70 0
 4831 00fc 807C0004 		lwz 3,4(28)
 4832              	.LVL413:
 4833              		.loc 9 71 0
 4834 0100 7F83E800 		cmpw 7,3,29
 4835 0104 40BE000C 		bne+ 7,.L369
 4836 0108 48000018 		b .L345
 4837              	.LVL414:
 4838              	.L361:
 4839              		.loc 9 74 0
 4840 010c 7FE3FB78 		mr 3,31
 4841              	.LVL415:
 4842              	.L369:
 4843              	.LBB3445:
 4844 0110 83E30000 		lwz 31,0(3)
 4845              	.LVL416:
 4846              	.LBB3446:
 4847              	.LBB3447:
 4848              	.LBB3448:
 4849              		.loc 6 98 0
 4850 0114 48000001 		bl _ZdlPv
 4851              	.LVL417:
 4852              	.LBE3448:
 4853              	.LBE3447:
 4854              	.LBE3446:
 4855              	.LBE3445:
 4856              		.loc 9 71 0
 4857 0118 7F9FE800 		cmpw 7,31,29
 4858 011c 409EFFF0 		bne+ 7,.L361
 4859              	.LVL418:
 4860              	.L345:
 4861              	.LBE3444:
 4862              	.LBE3443:
 4863              	.LBE3442:
 4864              	.LBE3441:
 4865              	.LBE3440:
 4866              	.LBE3439:
 4867              	.LBB3449:
 4868              	.LBB3450:
 4869              	.LBB3451:
 4870              	.LBB3452:
 4871              	.LBB3453:
 4872              	.LBB3454:
 4873              		.loc 1 105 0
 4874 0120 3D200000 		lis 9,_ZTVN7sigslot15single_threadedE+8@ha
 4875              	.LBE3454:
 4876              	.LBE3453:
 4877              	.LBE3452:
 4878              	.LBE3451:
 4879              	.LBE3450:
 4880              	.LBE3449:
 4881              	.LBE3479:
 4882              	.LBE3483:
 4883              	.LBE3487:
 4884              		.loc 1 826 0
 4885 0124 7F83E378 		mr 3,28
 4886              	.LBB3488:
 4887              	.LBB3484:
 4888              	.LBB3480:
 4889              	.LBB3460:
 4890              	.LBB3459:
 4891              	.LBB3458:
 4892              	.LBB3457:
 4893              	.LBB3456:
 4894              	.LBB3455:
 4895              		.loc 1 105 0
 4896 0128 38090008 		la 0,_ZTVN7sigslot15single_threadedE+8@l(9)
 4897 012c 901C0000 		stw 0,0(28)
 4898              	.LBE3455:
 4899              	.LBE3456:
 4900              	.LBE3457:
 4901              	.LBE3458:
 4902              	.LBE3459:
 4903              	.LBE3460:
 4904              	.LBE3480:
 4905              	.LBE3484:
 4906              	.LBE3488:
 4907              		.loc 1 826 0
 4908 0130 48000001 		bl _ZdlPv
 4909 0134 8001002C 		lwz 0,44(1)
 4910 0138 83810018 		lwz 28,24(1)
 4911              	.LVL419:
 4912 013c 7C0803A6 		mtlr 0
 4913 0140 83A1001C 		lwz 29,28(1)
 4914              	.LVL420:
 4915 0144 83C10020 		lwz 30,32(1)
 4916 0148 83E10024 		lwz 31,36(1)
 4917 014c 38210028 		addi 1,1,40
 4918              		.cfi_remember_state
 4919              	.LCFI62:
 4920              		.cfi_def_cfa_offset 0
 4921              		.cfi_restore 31
 4922              		.cfi_restore 30
 4923              		.cfi_restore 29
 4924              		.cfi_restore 28
 4925 0150 4E800020 		blr
 4926              	.LVL421:
 4927              	.L363:
 4928              	.LCFI63:
 4929              		.cfi_restore_state
 4930 0154 7C7F1B78 		mr 31,3
 4931              	.L337:
 4932              	.LVL422:
 4933              	.LBB3489:
 4934              	.LBB3485:
 4935              	.LBB3481:
 4936              	.LBB3461:
 4937              	.LBB3462:
 4938              	.LBB3463:
 4939              	.LBB3464:
 4940              	.LBB3465:
 4941              	.LBB3466:
 4942              		.loc 9 70 0
 4943 0158 807C0004 		lwz 3,4(28)
 4944              	.LVL423:
 4945              		.loc 9 71 0
 4946 015c 7F83E800 		cmpw 7,3,29
 4947 0160 419E0038 		beq- 7,.L354
 4948              	.LVL424:
 4949              	.L370:
 4950              	.LBB3467:
 4951              		.loc 9 74 0
 4952 0164 83C30000 		lwz 30,0(3)
 4953              	.LVL425:
 4954              	.LBB3468:
 4955              	.LBB3469:
 4956              	.LBB3470:
 4957              		.loc 6 98 0
 4958 0168 48000001 		bl _ZdlPv
 4959              	.LVL426:
 4960              	.LBE3470:
 4961              	.LBE3469:
 4962              	.LBE3468:
 4963              	.LBE3467:
 4964              		.loc 9 71 0
 4965 016c 7F9EE800 		cmpw 7,30,29
 4966 0170 419E0028 		beq- 7,.L354
 4967              		.loc 9 74 0
 4968 0174 7FC3F378 		mr 3,30
 4969 0178 4BFFFFEC 		b .L370
 4970              	.LVL427:
 4971              	.L364:
 4972              	.LBE3466:
 4973              	.LBE3465:
 4974              	.LBE3464:
 4975              	.LBE3463:
 4976              	.LBE3462:
 4977              	.LBE3461:
 4978              	.LBB3471:
 4979              	.LBB3438:
 4980              	.LBB3433:
 4981              	.LBB3434:
 4982              	.LBB3435:
 4983              		.loc 1 343 0
 4984 017c 813C0000 		lwz 9,0(28)
 4985 0180 7C7F1B78 		mr 31,3
 4986              	.LVL428:
 4987 0184 7F83E378 		mr 3,28
 4988 0188 8009000C 		lwz 0,12(9)
 4989 018c 7C0903A6 		mtctr 0
 4990 0190 4E800421 		bctrl
 4991 0194 4BFFFFC4 		b .L337
 4992              	.LVL429:
 4993              	.L354:
 4994              	.LBE3435:
 4995              	.LBE3434:
 4996              	.LBE3433:
 4997              	.LBE3438:
 4998              	.LBE3471:
 4999              	.LBB3472:
 5000              	.LBB3473:
 5001              	.LBB3474:
 5002              	.LBB3475:
 5003              	.LBB3476:
 5004              	.LBB3477:
 5005              		.loc 1 105 0
 5006 0198 3D200000 		lis 9,_ZTVN7sigslot15single_threadedE+8@ha
 5007 019c 7FE3FB78 		mr 3,31
 5008 01a0 38090008 		la 0,_ZTVN7sigslot15single_threadedE+8@l(9)
 5009 01a4 901C0000 		stw 0,0(28)
 5010              	.LEHB29:
 5011 01a8 48000001 		bl _Unwind_Resume
 5012              	.LEHE29:
 5013              	.LBE3477:
 5014              	.LBE3476:
 5015              	.LBE3475:
 5016              	.LBE3474:
 5017              	.LBE3473:
 5018              	.LBE3472:
 5019              	.LBE3481:
 5020              	.LBE3485:
 5021              	.LBE3489:
 5022              		.cfi_endproc
 5023              	.LFE1704:
 5024              		.section	.gcc_except_table
 5025              	.LLSDA1704:
 5026 009b FF       		.byte	0xff
 5027 009c FF       		.byte	0xff
 5028 009d 01       		.byte	0x1
 5029 009e 15       		.uleb128 .LLSDACSE1704-.LLSDACSB1704
 5030              	.LLSDACSB1704:
 5031 009f 30       		.uleb128 .LEHB26-.LFB1704
 5032 00a0 04       		.uleb128 .LEHE26-.LEHB26
 5033 00a1 D402     		.uleb128 .L363-.LFB1704
 5034 00a3 00       		.uleb128 0
 5035 00a4 54       		.uleb128 .LEHB27-.LFB1704
 5036 00a5 58       		.uleb128 .LEHE27-.LEHB27
 5037 00a6 FC02     		.uleb128 .L364-.LFB1704
 5038 00a8 00       		.uleb128 0
 5039 00a9 F801     		.uleb128 .LEHB28-.LFB1704
 5040 00ab 04       		.uleb128 .LEHE28-.LEHB28
 5041 00ac D402     		.uleb128 .L363-.LFB1704
 5042 00ae 00       		.uleb128 0
 5043 00af A803     		.uleb128 .LEHB29-.LFB1704
 5044 00b1 04       		.uleb128 .LEHE29-.LEHB29
 5045 00b2 00       		.uleb128 0
 5046 00b3 00       		.uleb128 0
 5047              	.LLSDACSE1704:
 5048              		.section	.text._ZN7sigslot13_signal_base2IP12NumpadWindowPcNS_15single_threadedEED0Ev,"axG",@progb
 5049              		.size	_ZN7sigslot13_signal_base2IP12NumpadWindowPcNS_15single_threadedEED0Ev, .-_ZN7sigslot13_sign
 5050              		.section	.text._ZN7sigslot7signal2IP12NumpadWindowPcNS_15single_threadedEED2Ev,"axG",@progbits,_ZN
 5051              		.align 2
 5052              		.weak	_ZN7sigslot7signal2IP12NumpadWindowPcNS_15single_threadedEED2Ev
 5053              		.type	_ZN7sigslot7signal2IP12NumpadWindowPcNS_15single_threadedEED2Ev, @function
 5054              	_ZN7sigslot7signal2IP12NumpadWindowPcNS_15single_threadedEED2Ev:
 5055              	.LFB1625:
 5056              		.loc 1 2235 0
 5057              		.cfi_startproc
 5058              		.cfi_personality 0,__gxx_personality_v0
 5059              		.cfi_lsda 0,.LLSDA1625
 5060              	.LVL430:
 5061 0000 7C0802A6 		mflr 0
 5062 0004 9421FFD8 		stwu 1,-40(1)
 5063              	.LCFI64:
 5064              		.cfi_def_cfa_offset 40
 5065              		.cfi_register 65, 0
 5066              	.LBB3587:
 5067              	.LBB3588:
 5068              	.LBB3589:
 5069              	.LBB3590:
 5070              		.loc 1 826 0
 5071 0008 3D200000 		lis 9,_ZTVN7sigslot13_signal_base2IP12NumpadWindowPcNS_15single_threadedEEE+8@ha
 5072              	.LBE3590:
 5073              	.LBE3589:
 5074              	.LBE3588:
 5075              	.LBE3587:
 5076              		.loc 1 2235 0
 5077 000c 93810018 		stw 28,24(1)
 5078 0010 7C7C1B78 		mr 28,3
 5079              		.cfi_offset 28, -16
 5080              	.LVL431:
 5081 0014 9001002C 		stw 0,44(1)
 5082              	.LBB3688:
 5083              	.LBB3683:
 5084              	.LBB3678:
 5085              	.LBB3673:
 5086              		.loc 1 826 0
 5087 0018 38090008 		la 0,_ZTVN7sigslot13_signal_base2IP12NumpadWindowPcNS_15single_threadedEEE+8@l(9)
 5088              		.cfi_offset 65, 4
 5089              	.LBE3673:
 5090              	.LBE3678:
 5091              	.LBE3683:
 5092              	.LBE3688:
 5093              		.loc 1 2235 0
 5094 001c 93A1001C 		stw 29,28(1)
 5095 0020 3BA30004 		addi 29,3,4
 5096              		.cfi_offset 29, -12
 5097 0024 93C10020 		stw 30,32(1)
 5098 0028 93E10024 		stw 31,36(1)
 5099              	.LBB3689:
 5100              	.LBB3684:
 5101              	.LBB3679:
 5102              	.LBB3674:
 5103              		.loc 1 826 0
 5104 002c 90030000 		stw 0,0(3)
 5105              	.LVL432:
 5106              	.LEHB30:
 5107              	.LBB3591:
 5108              	.LBB3592:
 5109              	.LBB3593:
 5110              	.LBB3594:
 5111              		.loc 1 338 0
 5112              		.cfi_offset 31, -4
 5113              		.cfi_offset 30, -8
 5114 0030 48000001 		bl _ZN7sigslot15single_threaded4lockEv
 5115              	.LEHE30:
 5116              	.LVL433:
 5117              	.LBE3594:
 5118              	.LBE3593:
 5119              	.LBE3592:
 5120              		.loc 4 93 0
 5121 0034 7F9DE378 		mr 29,28
 5122              	.LVL434:
 5123 0038 87FD0004 		lwzu 31,4(29)
 5124              	.LVL435:
 5125              	.LBB3625:
 5126              		.loc 1 834 0
 5127 003c 7F9FE800 		cmpw 7,31,29
 5128 0040 419E00A8 		beq- 7,.L372
 5129              	.LVL436:
 5130              	.L410:
 5131              		.loc 1 836 0
 5132 0044 807F0008 		lwz 3,8(31)
 5133 0048 81230000 		lwz 9,0(3)
 5134 004c 80090008 		lwz 0,8(9)
 5135 0050 7C0903A6 		mtctr 0
 5136              	.LEHB31:
 5137 0054 4E800421 		bctrl
 5138              	.LBB3595:
 5139              	.LBB3596:
 5140              	.LBB3597:
 5141              	.LBB3598:
 5142              		.loc 1 338 0
 5143 0058 81230000 		lwz 9,0(3)
 5144              	.LBE3598:
 5145              	.LBE3597:
 5146              	.LBE3596:
 5147              	.LBE3595:
 5148              		.loc 1 836 0
 5149 005c 7C7E1B78 		mr 30,3
 5150              	.LVL437:
 5151 0060 93810008 		stw 28,8(1)
 5152              	.LVL438:
 5153              	.LBB3607:
 5154              	.LBB3606:
 5155              	.LBB3600:
 5156              	.LBB3599:
 5157              		.loc 1 338 0
 5158 0064 80090008 		lwz 0,8(9)
 5159 0068 7C0903A6 		mtctr 0
 5160 006c 4E800421 		bctrl
 5161              	.LVL439:
 5162              	.LBE3599:
 5163              	.LBE3600:
 5164              	.LBB3601:
 5165              	.LBB3602:
 5166              		.loc 8 528 0
 5167 0070 387E0004 		addi 3,30,4
 5168 0074 38810008 		addi 4,1,8
 5169 0078 48000001 		bl _ZNSt8_Rb_treeIPN7sigslot12_signal_baseINS0_15single_threadedEEES4_St9_IdentityIS4_ESt4lessIS4_
 5170              	.LVL440:
 5171              	.LBE3602:
 5172              	.LBE3601:
 5173              	.LBB3603:
 5174              	.LBB3604:
 5175              	.LBB3605:
 5176              		.loc 1 343 0
 5177 007c 813E0000 		lwz 9,0(30)
 5178 0080 7FC3F378 		mr 3,30
 5179 0084 8009000C 		lwz 0,12(9)
 5180 0088 7C0903A6 		mtctr 0
 5181 008c 4E800421 		bctrl
 5182              	.LVL441:
 5183              	.LBE3605:
 5184              	.LBE3604:
 5185              	.LBE3603:
 5186              	.LBE3606:
 5187              	.LBE3607:
 5188              		.loc 1 837 0
 5189 0090 807F0008 		lwz 3,8(31)
 5190 0094 2F830000 		cmpwi 7,3,0
 5191 0098 419E0014 		beq- 7,.L374
 5192 009c 81230000 		lwz 9,0(3)
 5193 00a0 80090004 		lwz 0,4(9)
 5194 00a4 7C0903A6 		mtctr 0
 5195 00a8 4E800421 		bctrl
 5196              	.LEHE31:
 5197              	.L374:
 5198              	.LVL442:
 5199              	.LBB3608:
 5200              	.LBB3609:
 5201              		.loc 5 234 0
 5202 00ac 83FF0000 		lwz 31,0(31)
 5203              	.LVL443:
 5204              	.LBE3609:
 5205              	.LBE3608:
 5206              		.loc 1 834 0
 5207 00b0 7F9DF800 		cmpw 7,29,31
 5208 00b4 409EFF90 		bne+ 7,.L410
 5209              	.LBE3625:
 5210              		.loc 4 93 0
 5211 00b8 83FC0004 		lwz 31,4(28)
 5212              	.LVL444:
 5213              	.LBB3626:
 5214              	.LBB3610:
 5215              	.LBB3611:
 5216              		.loc 5 1162 0
 5217 00bc 7F9DF800 		cmpw 7,29,31
 5218 00c0 40BE000C 		bne+ 7,.L412
 5219 00c4 48000024 		b .L372
 5220              	.LVL445:
 5221              	.L405:
 5222              		.loc 5 1163 0
 5223 00c8 7FDFF378 		mr 31,30
 5224              	.LVL446:
 5225              	.L412:
 5226              	.LBB3612:
 5227              	.LBB3613:
 5228              		.loc 9 112 0
 5229 00cc 83DF0000 		lwz 30,0(31)
 5230              	.LVL447:
 5231              	.LBB3614:
 5232              	.LBB3615:
 5233              		.loc 5 1532 0
 5234 00d0 7FE3FB78 		mr 3,31
 5235 00d4 48000001 		bl _ZNSt8__detail15_List_node_base9_M_unhookEv
 5236              	.LVL448:
 5237              	.LBB3616:
 5238              	.LBB3617:
 5239              	.LBB3618:
 5240              		.loc 6 98 0
 5241 00d8 7FE3FB78 		mr 3,31
 5242 00dc 48000001 		bl _ZdlPv
 5243              	.LVL449:
 5244              	.LBE3618:
 5245              	.LBE3617:
 5246              	.LBE3616:
 5247              	.LBE3615:
 5248              	.LBE3614:
 5249              	.LBE3613:
 5250              	.LBE3612:
 5251              		.loc 5 1162 0
 5252 00e0 7F9DF000 		cmpw 7,29,30
 5253 00e4 409EFFE4 		bne+ 7,.L405
 5254              	.LVL450:
 5255              	.L372:
 5256              	.LBE3611:
 5257              	.LBE3610:
 5258              	.LBB3619:
 5259              	.LBB3620:
 5260              	.LBB3621:
 5261              		.loc 1 343 0
 5262 00e8 813C0000 		lwz 9,0(28)
 5263 00ec 7F83E378 		mr 3,28
 5264 00f0 8009000C 		lwz 0,12(9)
 5265 00f4 7C0903A6 		mtctr 0
 5266              	.LEHB32:
 5267 00f8 4E800421 		bctrl
 5268              	.LEHE32:
 5269              	.LBE3621:
 5270              	.LBE3620:
 5271              	.LBE3619:
 5272              	.LBE3626:
 5273              	.LBE3591:
 5274              	.LBB3628:
 5275              	.LBB3629:
 5276              	.LBB3630:
 5277              	.LBB3631:
 5278              	.LBB3632:
 5279              	.LBB3633:
 5280              		.loc 9 70 0
 5281 00fc 807C0004 		lwz 3,4(28)
 5282              	.LVL451:
 5283              		.loc 9 71 0
 5284 0100 7F83E800 		cmpw 7,3,29
 5285 0104 40BE000C 		bne+ 7,.L414
 5286 0108 48000018 		b .L390
 5287              	.LVL452:
 5288              	.L406:
 5289              		.loc 9 74 0
 5290 010c 7FE3FB78 		mr 3,31
 5291              	.LVL453:
 5292              	.L414:
 5293              	.LBB3634:
 5294 0110 83E30000 		lwz 31,0(3)
 5295              	.LVL454:
 5296              	.LBB3635:
 5297              	.LBB3636:
 5298              	.LBB3637:
 5299              		.loc 6 98 0
 5300 0114 48000001 		bl _ZdlPv
 5301              	.LVL455:
 5302              	.LBE3637:
 5303              	.LBE3636:
 5304              	.LBE3635:
 5305              	.LBE3634:
 5306              		.loc 9 71 0
 5307 0118 7F9FE800 		cmpw 7,31,29
 5308 011c 409EFFF0 		bne+ 7,.L406
 5309              	.LVL456:
 5310              	.L390:
 5311              	.LBE3633:
 5312              	.LBE3632:
 5313              	.LBE3631:
 5314              	.LBE3630:
 5315              	.LBE3629:
 5316              	.LBE3628:
 5317              	.LBB3638:
 5318              	.LBB3639:
 5319              	.LBB3640:
 5320              	.LBB3641:
 5321              	.LBB3642:
 5322              	.LBB3643:
 5323              		.loc 1 105 0
 5324 0120 3D200000 		lis 9,_ZTVN7sigslot15single_threadedE+8@ha
 5325              	.LBE3643:
 5326              	.LBE3642:
 5327              	.LBE3641:
 5328              	.LBE3640:
 5329              	.LBE3639:
 5330              	.LBE3638:
 5331              	.LBE3674:
 5332              	.LBE3679:
 5333              	.LBE3684:
 5334              	.LBE3689:
 5335              		.loc 1 2238 0
 5336 0124 83A1001C 		lwz 29,28(1)
 5337              	.LVL457:
 5338              	.LBB3690:
 5339              	.LBB3685:
 5340              	.LBB3680:
 5341              	.LBB3675:
 5342              	.LBB3654:
 5343              	.LBB3652:
 5344              	.LBB3650:
 5345              	.LBB3648:
 5346              	.LBB3646:
 5347              	.LBB3644:
 5348              		.loc 1 105 0
 5349 0128 38090008 		la 0,_ZTVN7sigslot15single_threadedE+8@l(9)
 5350              	.LBE3644:
 5351              	.LBE3646:
 5352              	.LBE3648:
 5353              	.LBE3650:
 5354              	.LBE3652:
 5355              	.LBE3654:
 5356              	.LBE3675:
 5357              	.LBE3680:
 5358              	.LBE3685:
 5359              	.LBE3690:
 5360              		.loc 1 2238 0
 5361 012c 83C10020 		lwz 30,32(1)
 5362              	.LBB3691:
 5363              	.LBB3686:
 5364              	.LBB3681:
 5365              	.LBB3676:
 5366              	.LBB3655:
 5367              	.LBB3653:
 5368              	.LBB3651:
 5369              	.LBB3649:
 5370              	.LBB3647:
 5371              	.LBB3645:
 5372              		.loc 1 105 0
 5373 0130 901C0000 		stw 0,0(28)
 5374              	.LBE3645:
 5375              	.LBE3647:
 5376              	.LBE3649:
 5377              	.LBE3651:
 5378              	.LBE3653:
 5379              	.LBE3655:
 5380              	.LBE3676:
 5381              	.LBE3681:
 5382              	.LBE3686:
 5383              	.LBE3691:
 5384              		.loc 1 2238 0
 5385 0134 8001002C 		lwz 0,44(1)
 5386 0138 83810018 		lwz 28,24(1)
 5387              	.LVL458:
 5388 013c 7C0803A6 		mtlr 0
 5389 0140 83E10024 		lwz 31,36(1)
 5390 0144 38210028 		addi 1,1,40
 5391              		.cfi_remember_state
 5392              	.LCFI65:
 5393              		.cfi_def_cfa_offset 0
 5394              		.cfi_restore 31
 5395              		.cfi_restore 30
 5396              		.cfi_restore 29
 5397              		.cfi_restore 28
 5398 0148 4E800020 		blr
 5399              	.LVL459:
 5400              	.L408:
 5401              	.LCFI66:
 5402              		.cfi_restore_state
 5403 014c 7C7F1B78 		mr 31,3
 5404              	.L382:
 5405              	.LBB3692:
 5406              	.LBB3687:
 5407              	.LBB3682:
 5408              	.LBB3677:
 5409              	.LBB3656:
 5410              	.LBB3657:
 5411              	.LBB3658:
 5412              	.LBB3659:
 5413              	.LBB3660:
 5414              	.LBB3661:
 5415              		.loc 9 70 0
 5416 0150 807C0004 		lwz 3,4(28)
 5417              	.LVL460:
 5418              		.loc 9 71 0
 5419 0154 7F83E800 		cmpw 7,3,29
 5420 0158 419E0038 		beq- 7,.L399
 5421              	.LVL461:
 5422              	.L415:
 5423              	.LBB3662:
 5424              		.loc 9 74 0
 5425 015c 83C30000 		lwz 30,0(3)
 5426              	.LVL462:
 5427              	.LBB3663:
 5428              	.LBB3664:
 5429              	.LBB3665:
 5430              		.loc 6 98 0
 5431 0160 48000001 		bl _ZdlPv
 5432              	.LVL463:
 5433              	.LBE3665:
 5434              	.LBE3664:
 5435              	.LBE3663:
 5436              	.LBE3662:
 5437              		.loc 9 71 0
 5438 0164 7F9EE800 		cmpw 7,30,29
 5439 0168 419E0028 		beq- 7,.L399
 5440              		.loc 9 74 0
 5441 016c 7FC3F378 		mr 3,30
 5442 0170 4BFFFFEC 		b .L415
 5443              	.LVL464:
 5444              	.L409:
 5445              	.LBE3661:
 5446              	.LBE3660:
 5447              	.LBE3659:
 5448              	.LBE3658:
 5449              	.LBE3657:
 5450              	.LBE3656:
 5451              	.LBB3666:
 5452              	.LBB3627:
 5453              	.LBB3622:
 5454              	.LBB3623:
 5455              	.LBB3624:
 5456              		.loc 1 343 0
 5457 0174 813C0000 		lwz 9,0(28)
 5458 0178 7C7F1B78 		mr 31,3
 5459              	.LVL465:
 5460 017c 7F83E378 		mr 3,28
 5461 0180 8009000C 		lwz 0,12(9)
 5462 0184 7C0903A6 		mtctr 0
 5463 0188 4E800421 		bctrl
 5464 018c 4BFFFFC4 		b .L382
 5465              	.LVL466:
 5466              	.L399:
 5467              	.LBE3624:
 5468              	.LBE3623:
 5469              	.LBE3622:
 5470              	.LBE3627:
 5471              	.LBE3666:
 5472              	.LBB3667:
 5473              	.LBB3668:
 5474              	.LBB3669:
 5475              	.LBB3670:
 5476              	.LBB3671:
 5477              	.LBB3672:
 5478              		.loc 1 105 0
 5479 0190 3D200000 		lis 9,_ZTVN7sigslot15single_threadedE+8@ha
 5480 0194 7FE3FB78 		mr 3,31
 5481 0198 38090008 		la 0,_ZTVN7sigslot15single_threadedE+8@l(9)
 5482 019c 901C0000 		stw 0,0(28)
 5483              	.LEHB33:
 5484 01a0 48000001 		bl _Unwind_Resume
 5485              	.LEHE33:
 5486              	.LBE3672:
 5487              	.LBE3671:
 5488              	.LBE3670:
 5489              	.LBE3669:
 5490              	.LBE3668:
 5491              	.LBE3667:
 5492              	.LBE3677:
 5493              	.LBE3682:
 5494              	.LBE3687:
 5495              	.LBE3692:
 5496              		.cfi_endproc
 5497              	.LFE1625:
 5498              		.section	.gcc_except_table
 5499              	.LLSDA1625:
 5500 00b4 FF       		.byte	0xff
 5501 00b5 FF       		.byte	0xff
 5502 00b6 01       		.byte	0x1
 5503 00b7 15       		.uleb128 .LLSDACSE1625-.LLSDACSB1625
 5504              	.LLSDACSB1625:
 5505 00b8 30       		.uleb128 .LEHB30-.LFB1625
 5506 00b9 04       		.uleb128 .LEHE30-.LEHB30
 5507 00ba CC02     		.uleb128 .L408-.LFB1625
 5508 00bc 00       		.uleb128 0
 5509 00bd 54       		.uleb128 .LEHB31-.LFB1625
 5510 00be 58       		.uleb128 .LEHE31-.LEHB31
 5511 00bf F402     		.uleb128 .L409-.LFB1625
 5512 00c1 00       		.uleb128 0
 5513 00c2 F801     		.uleb128 .LEHB32-.LFB1625
 5514 00c4 04       		.uleb128 .LEHE32-.LEHB32
 5515 00c5 CC02     		.uleb128 .L408-.LFB1625
 5516 00c7 00       		.uleb128 0
 5517 00c8 A003     		.uleb128 .LEHB33-.LFB1625
 5518 00ca 04       		.uleb128 .LEHE33-.LEHB33
 5519 00cb 00       		.uleb128 0
 5520 00cc 00       		.uleb128 0
 5521              	.LLSDACSE1625:
 5522              		.section	.text._ZN7sigslot7signal2IP12NumpadWindowPcNS_15single_threadedEED2Ev,"axG",@progbits,_ZN
 5523              		.size	_ZN7sigslot7signal2IP12NumpadWindowPcNS_15single_threadedEED2Ev, .-_ZN7sigslot7signal2IP12Nu
 5524              		.section	".text"
 5525              		.align 2
 5526              		.globl _ZN12NumpadWindowC2EPcib
 5527              		.type	_ZN12NumpadWindowC2EPcib, @function
 5528              	_ZN12NumpadWindowC2EPcib:
 5529              	.LFB1577:
 5530              		.loc 4 21 0
 5531              		.cfi_startproc
 5532              		.cfi_personality 0,__gxx_personality_v0
 5533              		.cfi_lsda 0,.LLSDA1577
 5534              	.LVL467:
 5535 010c 9421FFC8 		stwu 1,-56(1)
 5536              	.LCFI67:
 5537              		.cfi_def_cfa_offset 56
 5538 0110 7C0802A6 		mflr 0
 5539 0114 93610024 		stw 27,36(1)
 5540 0118 7CDB3378 		mr 27,6
 5541              		.cfi_offset 27, -20
 5542              		.cfi_register 65, 0
 5543 011c 93810028 		stw 28,40(1)
 5544              	.LBB3693:
 5545              		.loc 4 22 0
 5546 0120 38C00000 		li 6,0
 5547              	.LVL468:
 5548              	.LBE3693:
 5549              		.loc 4 21 0
 5550 0124 93C10030 		stw 30,48(1)
 5551 0128 7C9C2378 		mr 28,4
 5552              		.cfi_offset 30, -8
 5553              		.cfi_offset 28, -16
 5554 012c 93E10034 		stw 31,52(1)
 5555 0130 7CBE2B78 		mr 30,5
 5556 0134 7C7F1B78 		mr 31,3
 5557              		.cfi_offset 31, -4
 5558              	.LBB3760:
 5559              		.loc 4 22 0
 5560 0138 38800000 		li 4,0
 5561              	.LVL469:
 5562 013c 38A00000 		li 5,0
 5563              	.LVL470:
 5564              	.LBE3760:
 5565              		.loc 4 21 0
 5566 0140 9001003C 		stw 0,60(1)
 5567 0144 93A1002C 		stw 29,44(1)
 5568              	.LBB3761:
 5569              		.loc 4 22 0
 5570 0148 3BBF0100 		addi 29,31,256
 5571              		.cfi_offset 29, -12
 5572              		.cfi_offset 65, 4
 5573              	.LBE3761:
 5574              		.loc 4 21 0
 5575 014c 9321001C 		stw 25,28(1)
 5576 0150 93410020 		stw 26,32(1)
 5577              	.LEHB34:
 5578              	.LBB3762:
 5579              		.loc 4 22 0
 5580              		.cfi_offset 26, -24
 5581              		.cfi_offset 25, -28
 5582 0154 48000001 		bl _ZN8GuiFrameC2EiiPS_
 5583              	.LEHE34:
 5584              	.LVL471:
 5585              	.LBB3694:
 5586              	.LBB3695:
 5587              	.LBB3696:
 5588              	.LBB3697:
 5589              	.LBB3698:
 5590              	.LBB3699:
 5591              	.LBB3700:
 5592              	.LBB3701:
 5593              		.loc 5 380 0
 5594 0158 393F00D0 		addi 9,31,208
 5595              	.LBE3701:
 5596              	.LBE3700:
 5597              	.LBE3699:
 5598              	.LBE3698:
 5599              	.LBE3697:
 5600              	.LBE3696:
 5601              	.LBE3695:
 5602              	.LBE3694:
 5603              		.loc 4 22 0
 5604 015c 3D600000 		lis 11,_ZTV12NumpadWindow+8@ha
 5605              	.LBB3718:
 5606              	.LBB3719:
 5607              	.LBB3720:
 5608              	.LBB3721:
 5609              	.LBB3722:
 5610              	.LBB3723:
 5611              		.loc 7 445 0
 5612 0160 38000000 		li 0,0
 5613              	.LBE3723:
 5614              	.LBE3722:
 5615              	.LBE3721:
 5616              	.LBE3720:
 5617              	.LBE3719:
 5618              	.LBE3718:
 5619              		.loc 4 22 0
 5620 0164 396B0008 		la 11,_ZTV12NumpadWindow+8@l(11)
 5621              	.LBB3748:
 5622              	.LBB3714:
 5623              	.LBB3712:
 5624              	.LBB3710:
 5625              	.LBB3708:
 5626              	.LBB3706:
 5627              	.LBB3704:
 5628              	.LBB3702:
 5629              		.loc 5 380 0
 5630 0168 913F00D0 		stw 9,208(31)
 5631              	.LBE3702:
 5632              	.LBE3704:
 5633              	.LBE3706:
 5634              	.LBE3708:
 5635              	.LBE3710:
 5636              	.LBE3712:
 5637              	.LBE3714:
 5638              	.LBE3748:
 5639              	.LBB3749:
 5640              	.LBB3744:
 5641              	.LBB3740:
 5642              	.LBB3736:
 5643              	.LBB3732:
 5644              	.LBB3728:
 5645              	.LBB3724:
 5646              	.LBB3725:
 5647              		.loc 7 459 0
 5648 016c 395F00B8 		addi 10,31,184
 5649              	.LBE3725:
 5650              	.LBE3724:
 5651              	.LBE3728:
 5652              	.LBE3732:
 5653              	.LBE3736:
 5654              	.LBE3740:
 5655              	.LBE3744:
 5656              	.LBE3749:
 5657              	.LBB3750:
 5658              	.LBB3715:
 5659              	.LBB3713:
 5660              	.LBB3711:
 5661              	.LBB3709:
 5662              	.LBB3707:
 5663              	.LBB3705:
 5664              	.LBB3703:
 5665              		.loc 5 381 0
 5666 0170 913F00D4 		stw 9,212(31)
 5667              	.LBE3703:
 5668              	.LBE3705:
 5669              	.LBE3707:
 5670              	.LBE3709:
 5671              	.LBE3711:
 5672              	.LBE3713:
 5673              		.loc 1 2225 0
 5674 0174 3D200000 		lis 9,_ZTVN7sigslot7signal2IP12NumpadWindowPcNS_15single_threadedEEE+8@ha
 5675              	.LBE3715:
 5676              	.LBE3750:
 5677              		.loc 4 22 0
 5678 0178 390B00E4 		addi 8,11,228
 5679              	.LBB3751:
 5680              	.LBB3745:
 5681              	.LBB3741:
 5682              	.LBB3737:
 5683              	.LBB3733:
 5684              	.LBB3729:
 5685              		.loc 7 445 0
 5686 017c 901F00B8 		stw 0,184(31)
 5687 0180 901F00BC 		stw 0,188(31)
 5688              	.LBE3729:
 5689              	.LBE3733:
 5690              	.LBE3737:
 5691              	.LBE3741:
 5692              	.LBE3745:
 5693              	.LBE3751:
 5694              		.loc 4 22 0
 5695 0184 7FA3EB78 		mr 3,29
 5696              	.LBB3752:
 5697              	.LBB3746:
 5698              	.LBB3742:
 5699              	.LBB3738:
 5700              	.LBB3734:
 5701              	.LBB3730:
 5702              		.loc 7 445 0
 5703 0188 901F00C8 		stw 0,200(31)
 5704              	.LVL472:
 5705              	.LBE3730:
 5706              	.LBE3734:
 5707              	.LBE3738:
 5708              	.LBE3742:
 5709              	.LBE3746:
 5710              	.LBE3752:
 5711              	.LBB3753:
 5712              	.LBB3716:
 5713              		.loc 1 2225 0
 5714 018c 38090008 		la 0,_ZTVN7sigslot7signal2IP12NumpadWindowPcNS_15single_threadedEEE+8@l(9)
 5715              	.LBE3716:
 5716              	.LBE3753:
 5717              	.LBB3754:
 5718              	.LBB3747:
 5719              	.LBB3743:
 5720              	.LBB3739:
 5721              	.LBB3735:
 5722              	.LBB3731:
 5723              	.LBB3727:
 5724              	.LBB3726:
 5725              		.loc 7 459 0
 5726 0190 915F00C0 		stw 10,192(31)
 5727              		.loc 7 460 0
 5728 0194 915F00C4 		stw 10,196(31)
 5729              	.LBE3726:
 5730              	.LBE3727:
 5731              	.LBE3731:
 5732              	.LBE3735:
 5733              	.LBE3739:
 5734              	.LBE3743:
 5735              	.LBE3747:
 5736              	.LBE3754:
 5737              		.loc 4 22 0
 5738 0198 917F0000 		stw 11,0(31)
 5739 019c 911F00B0 		stw 8,176(31)
 5740              	.LVL473:
 5741              	.LBB3755:
 5742              	.LBB3717:
 5743              		.loc 1 2225 0
 5744 01a0 901F00CC 		stw 0,204(31)
 5745              	.LEHB35:
 5746              	.LBE3717:
 5747              	.LBE3755:
 5748              		.loc 4 22 0
 5749 01a4 48000001 		bl _ZN10GuiTriggerC1Ev
 5750              	.LEHE35:
 5751              		.loc 4 26 0
 5752 01a8 2F9E0000 		cmpwi 7,30,0
 5753              		.loc 4 24 0
 5754 01ac 3800FFFF 		li 0,-1
 5755 01b0 901F00DC 		stw 0,220(31)
 5756              		.loc 4 25 0
 5757 01b4 939F00E0 		stw 28,224(31)
 5758              		.loc 4 26 0
 5759 01b8 409E0010 		bne- 7,.L417
 5760              		.loc 4 26 0 is_stmt 0 discriminator 1
 5761 01bc 7F83E378 		mr 3,28
 5762 01c0 48000001 		bl strlen
 5763 01c4 3BC30001 		addi 30,3,1
 5764              	.LVL474:
 5765              	.L417:
 5766              		.loc 4 26 0 discriminator 3
 5767 01c8 93DF00D8 		stw 30,216(31)
 5768              		.loc 4 28 0 is_stmt 1 discriminator 3
 5769 01cc 38600268 		li 3,616
 5770              	.LEHB36:
 5771 01d0 48000001 		bl _Znwj
 5772              	.LEHE36:
 5773 01d4 80BF00D8 		lwz 5,216(31)
 5774 01d8 7F84E378 		mr 4,28
 5775 01dc 7F66DB78 		mr 6,27
 5776 01e0 7C7E1B78 		mr 30,3
 5777              	.LEHB37:
 5778 01e4 48000001 		bl _ZN9GuiNumpadC1EPcjb
 5779              	.LEHE37:
 5780              		.loc 4 28 0 is_stmt 0 discriminator 1
 5781 01e8 93DF00FC 		stw 30,252(31)
 5782              		.loc 4 29 0 is_stmt 1 discriminator 1
 5783 01ec 7FC3F378 		mr 3,30
 5784 01f0 813E0000 		lwz 9,0(30)
 5785 01f4 38800012 		li 4,18
 5786 01f8 800900B4 		lwz 0,180(9)
 5787 01fc 7C0903A6 		mtctr 0
 5788              	.LEHB38:
 5789 0200 4E800421 		bctrl
 5790              		.loc 4 31 0
 5791 0204 3C600000 		lis 3,.LC4@ha
 5792 0208 38630000 		la 3,.LC4@l(3)
 5793 020c 48000001 		bl _ZN9Resources8GetSoundEPKc
 5794 0210 907F00F4 		stw 3,244(31)
 5795              		.loc 4 32 0
 5796 0214 3C600000 		lis 3,.LC5@ha
 5797 0218 38630010 		la 3,.LC5@l(3)
 5798 021c 48000001 		bl _ZN9Resources8GetSoundEPKc
 5799              		.loc 4 33 0 discriminator 1
 5800 0220 3FC00000 		lis 30,Settings@ha
 5801              		.loc 4 32 0 discriminator 1
 5802 0224 907F00F8 		stw 3,248(31)
 5803              		.loc 4 33 0 discriminator 1
 5804 0228 3BDE0000 		la 30,Settings@l(30)
 5805 022c 807F00F4 		lwz 3,244(31)
 5806 0230 809E04E0 		lwz 4,1248(30)
 5807 0234 48000001 		bl _ZN8GuiSound9SetVolumeEi
 5808              		.loc 4 34 0
 5809 0238 807F00F8 		lwz 3,248(31)
 5810 023c 809E04E0 		lwz 4,1248(30)
 5811 0240 48000001 		bl _ZN8GuiSound9SetVolumeEi
 5812              		.loc 4 36 0
 5813 0244 A0BE0A54 		lhz 5,2644(30)
 5814 0248 7FA3EB78 		mr 3,29
 5815 024c A01E0A38 		lhz 0,2616(30)
 5816 0250 3880FFFF 		li 4,-1
 5817 0254 54A5801E 		slwi 5,5,16
 5818 0258 A0DE0A70 		lhz 6,2672(30)
 5819 025c 7CA50378 		or 5,5,0
 5820 0260 48000001 		bl _ZN10GuiTrigger16SetSimpleTriggerEijt
 5821              		.loc 4 38 0
 5822 0264 3C600000 		lis 3,.LC6@ha
 5823 0268 38630024 		la 3,.LC6@l(3)
 5824 026c 48000001 		bl gettext
 5825 0270 3F400000 		lis 26,.LC7@ha
 5826 0274 7C7B1B78 		mr 27,3
 5827 0278 3B5A0028 		la 26,.LC7@l(26)
 5828 027c 7F43D378 		mr 3,26
 5829 0280 48000001 		bl getThemeColor
 5830              		.loc 4 38 0 is_stmt 0 discriminator 1
 5831 0284 7C791B78 		mr 25,3
 5832 0288 386000D0 		li 3,208
 5833 028c 48000001 		bl _Znwj
 5834              	.LEHE38:
 5835              		.loc 4 38 0 discriminator 2
 5836 0290 7C3E0B78 		mr 30,1
 5837 0294 7F64DB78 		mr 4,27
 5838 0298 973E0008 		stwu 25,8(30)
 5839 029c 38A00016 		li 5,22
 5840 02a0 7C7C1B78 		mr 28,3
 5841              	.LVL475:
 5842 02a4 7FC6F378 		mr 6,30
 5843              	.LEHB39:
 5844 02a8 48000001 		bl _ZN7GuiTextC1EPKci9_gx_color
 5845              	.LEHE39:
 5846              		.loc 4 38 0 discriminator 1
 5847 02ac 939F00EC 		stw 28,236(31)
 5848              		.loc 4 39 0 is_stmt 1 discriminator 1
 5849 02b0 38600140 		li 3,320
 5850              	.LEHB40:
 5851 02b4 48000001 		bl _Znwj
 5852              	.LEHE40:
 5853 02b8 3F600000 		lis 27,.LC8@ha
 5854 02bc 80DF00F8 		lwz 6,248(31)
 5855 02c0 3B7B0058 		la 27,.LC8@l(27)
 5856 02c4 80FF00F4 		lwz 7,244(31)
 5857 02c8 7F64DB78 		mr 4,27
 5858 02cc 7F65DB78 		mr 5,27
 5859 02d0 7C7C1B78 		mr 28,3
 5860              	.LEHB41:
 5861 02d4 48000001 		bl _ZN13PictureButtonC1EPKcS1_P8GuiSoundS3_
 5862              	.LEHE41:
 5863 02d8 939F00E4 		stw 28,228(31)
 5864              		.loc 4 40 0 discriminator 1
 5865 02dc 7F83E378 		mr 3,28
 5866 02e0 813C0000 		lwz 9,0(28)
 5867 02e4 38800042 		li 4,66
 5868 02e8 800900B4 		lwz 0,180(9)
 5869 02ec 7C0903A6 		mtctr 0
 5870              	.LEHB42:
 5871 02f0 4E800421 		bctrl
 5872              		.loc 4 41 0
 5873 02f4 807F00E4 		lwz 3,228(31)
 5874 02f8 3880FFA6 		li 4,-90
 5875 02fc 38A00000 		li 5,0
 5876 0300 81230000 		lwz 9,0(3)
 5877 0304 800900A8 		lwz 0,168(9)
 5878 0308 7C0903A6 		mtctr 0
 5879 030c 4E800421 		bctrl
 5880              		.loc 4 42 0
 5881 0310 807F00E4 		lwz 3,228(31)
 5882 0314 38A00000 		li 5,0
 5883 0318 809F00EC 		lwz 4,236(31)
 5884 031c 48000001 		bl _ZN9GuiButton8SetLabelEP7GuiTexti
 5885              		.loc 4 43 0
 5886 0320 807F00E4 		lwz 3,228(31)
 5887 0324 7FA4EB78 		mr 4,29
 5888 0328 48000001 		bl _ZN9GuiButton10SetTriggerEP10GuiTrigger
 5889              		.loc 4 44 0
 5890 032c 807F00E4 		lwz 3,228(31)
 5891 0330 3D200000 		lis 9,_ZN12NumpadWindow15OnOkButtonClickEP9GuiButtoniRK6_POINT@ha
 5892 0334 38090000 		la 0,_ZN12NumpadWindow15OnOkButtonClickEP9GuiButtoniRK6_POINT@l(9)
 5893 0338 7FE4FB78 		mr 4,31
 5894 033c 90010010 		stw 0,16(1)
 5895 0340 38630090 		addi 3,3,144
 5896 0344 38000000 		li 0,0
 5897 0348 38A10010 		addi 5,1,16
 5898 034c 90010014 		stw 0,20(1)
 5899 0350 48000001 		bl _ZN7sigslot7signal3IP9GuiButtoniRK6_POINTNS_15single_threadedEE7connectI12NumpadWindowEEvPT_MSA
 5900              		.loc 4 46 0
 5901 0354 3C600000 		lis 3,.LC9@ha
 5902 0358 38630064 		la 3,.LC9@l(3)
 5903 035c 48000001 		bl gettext
 5904 0360 7C791B78 		mr 25,3
 5905 0364 7F43D378 		mr 3,26
 5906 0368 48000001 		bl getThemeColor
 5907              		.loc 4 46 0 is_stmt 0 discriminator 1
 5908 036c 7C7A1B78 		mr 26,3
 5909 0370 386000D0 		li 3,208
 5910 0374 48000001 		bl _Znwj
 5911              	.LEHE42:
 5912              		.loc 4 46 0 discriminator 2
 5913 0378 7F24CB78 		mr 4,25
 5914 037c 38A00016 		li 5,22
 5915 0380 7FC6F378 		mr 6,30
 5916 0384 7C7C1B78 		mr 28,3
 5917 0388 93410008 		stw 26,8(1)
 5918              	.LEHB43:
 5919 038c 48000001 		bl _ZN7GuiTextC1EPKci9_gx_color
 5920              	.LEHE43:
 5921              		.loc 4 46 0 discriminator 1
 5922 0390 939F00F0 		stw 28,240(31)
 5923              		.loc 4 47 0 is_stmt 1 discriminator 1
 5924 0394 38600140 		li 3,320
 5925              	.LEHB44:
 5926 0398 48000001 		bl _Znwj
 5927              	.LEHE44:
 5928 039c 80DF00F8 		lwz 6,248(31)
 5929 03a0 7F64DB78 		mr 4,27
 5930 03a4 80FF00F4 		lwz 7,244(31)
 5931 03a8 7F65DB78 		mr 5,27
 5932 03ac 7C7E1B78 		mr 30,3
 5933              	.LEHB45:
 5934 03b0 48000001 		bl _ZN13PictureButtonC1EPKcS1_P8GuiSoundS3_
 5935              	.LEHE45:
 5936 03b4 93DF00E8 		stw 30,232(31)
 5937              		.loc 4 48 0 discriminator 1
 5938 03b8 7FC3F378 		mr 3,30
 5939 03bc 813E0000 		lwz 9,0(30)
 5940 03c0 38800042 		li 4,66
 5941 03c4 800900B4 		lwz 0,180(9)
 5942 03c8 7C0903A6 		mtctr 0
 5943              	.LEHB46:
 5944 03cc 4E800421 		bctrl
 5945              		.loc 4 49 0
 5946 03d0 807F00E8 		lwz 3,232(31)
 5947 03d4 3880005A 		li 4,90
 5948 03d8 38A00000 		li 5,0
 5949 03dc 81230000 		lwz 9,0(3)
 5950 03e0 800900A8 		lwz 0,168(9)
 5951 03e4 7C0903A6 		mtctr 0
 5952 03e8 4E800421 		bctrl
 5953              		.loc 4 50 0
 5954 03ec 807F00E8 		lwz 3,232(31)
 5955 03f0 38A00000 		li 5,0
 5956 03f4 809F00F0 		lwz 4,240(31)
 5957 03f8 48000001 		bl _ZN9GuiButton8SetLabelEP7GuiTexti
 5958              		.loc 4 51 0
 5959 03fc 807F00E8 		lwz 3,232(31)
 5960 0400 7FA4EB78 		mr 4,29
 5961 0404 48000001 		bl _ZN9GuiButton10SetTriggerEP10GuiTrigger
 5962              		.loc 4 52 0
 5963 0408 807F00E8 		lwz 3,232(31)
 5964 040c 3D200000 		lis 9,_ZN12NumpadWindow19OnCancelButtonClickEP9GuiButtoniRK6_POINT@ha
 5965 0410 38090000 		la 0,_ZN12NumpadWindow19OnCancelButtonClickEP9GuiButtoniRK6_POINT@l(9)
 5966 0414 7FE4FB78 		mr 4,31
 5967 0418 90010010 		stw 0,16(1)
 5968 041c 38630090 		addi 3,3,144
 5969 0420 38000000 		li 0,0
 5970 0424 38A10010 		addi 5,1,16
 5971 0428 90010014 		stw 0,20(1)
 5972 042c 48000001 		bl _ZN7sigslot7signal3IP9GuiButtoniRK6_POINTNS_15single_threadedEE7connectI12NumpadWindowEEvPT_MSA
 5973              		.loc 4 54 0
 5974 0430 807F00FC 		lwz 3,252(31)
 5975 0434 81230000 		lwz 9,0(3)
 5976 0438 80090024 		lwz 0,36(9)
 5977 043c 7C0903A6 		mtctr 0
 5978 0440 4E800421 		bctrl
 5979              		.loc 4 55 0
 5980 0444 813F00FC 		lwz 9,252(31)
 5981              		.loc 4 54 0
 5982 0448 907F0024 		stw 3,36(31)
 5983              		.loc 4 55 0
 5984 044c 81690000 		lwz 11,0(9)
 5985 0450 7D234B78 		mr 3,9
 5986 0454 800B0028 		lwz 0,40(11)
 5987 0458 7C0903A6 		mtctr 0
 5988 045c 4E800421 		bctrl
 5989              		.loc 4 55 0 is_stmt 0 discriminator 1
 5990 0460 7C7E1B78 		mr 30,3
 5991 0464 807F00E4 		lwz 3,228(31)
 5992 0468 81230000 		lwz 9,0(3)
 5993 046c 80090028 		lwz 0,40(9)
 5994 0470 7C0903A6 		mtctr 0
 5995 0474 4E800421 		bctrl
 5996 0478 7FDE1A14 		add 30,30,3
 5997              		.loc 4 57 0 is_stmt 1 discriminator 1
 5998 047c 809F00FC 		lwz 4,252(31)
 5999              		.loc 4 55 0 discriminator 1
 6000 0480 3BDE000A 		addi 30,30,10
 6001              		.loc 4 57 0 discriminator 1
 6002 0484 7FE3FB78 		mr 3,31
 6003              		.loc 4 55 0 discriminator 1
 6004 0488 93DF0028 		stw 30,40(31)
 6005              		.loc 4 57 0 discriminator 1
 6006 048c 48000001 		bl _ZN8GuiFrame6AppendEP10GuiElement
 6007              		.loc 4 58 0
 6008 0490 809F00E4 		lwz 4,228(31)
 6009 0494 7FE3FB78 		mr 3,31
 6010 0498 48000001 		bl _ZN8GuiFrame6AppendEP10GuiElement
 6011              		.loc 4 59 0
 6012 049c 809F00E8 		lwz 4,232(31)
 6013 04a0 7FE3FB78 		mr 3,31
 6014 04a4 48000001 		bl _ZN8GuiFrame6AppendEP10GuiElement
 6015              	.LEHE46:
 6016              	.LVL476:
 6017              	.LBB3756:
 6018              	.LBB3757:
 6019              		.loc 2 316 0
 6020 04a8 38000022 		li 0,34
 6021              	.LBE3757:
 6022              	.LBE3756:
 6023              	.LBE3762:
 6024              		.loc 4 62 0
 6025 04ac 8321001C 		lwz 25,28(1)
 6026              	.LBB3763:
 6027              	.LBB3759:
 6028              	.LBB3758:
 6029              		.loc 2 316 0
 6030 04b0 901F0044 		stw 0,68(31)
 6031              	.LBE3758:
 6032              	.LBE3759:
 6033              	.LBE3763:
 6034              		.loc 4 62 0
 6035 04b4 8001003C 		lwz 0,60(1)
 6036 04b8 83410020 		lwz 26,32(1)
 6037 04bc 7C0803A6 		mtlr 0
 6038 04c0 83610024 		lwz 27,36(1)
 6039 04c4 83810028 		lwz 28,40(1)
 6040 04c8 83A1002C 		lwz 29,44(1)
 6041 04cc 83C10030 		lwz 30,48(1)
 6042 04d0 83E10034 		lwz 31,52(1)
 6043              	.LVL477:
 6044 04d4 38210038 		addi 1,1,56
 6045              		.cfi_remember_state
 6046              	.LCFI68:
 6047              		.cfi_def_cfa_offset 0
 6048              		.cfi_restore 31
 6049              		.cfi_restore 30
 6050              		.cfi_restore 29
 6051              		.cfi_restore 28
 6052              		.cfi_restore 27
 6053              		.cfi_restore 26
 6054              		.cfi_restore 25
 6055 04d8 4E800020 		blr
 6056              	.LVL478:
 6057              	.L425:
 6058              	.LCFI69:
 6059              		.cfi_restore_state
 6060 04dc 7C7E1B78 		mr 30,3
 6061              	.LVL479:
 6062              	.L424:
 6063              	.LBB3764:
 6064              		.loc 4 22 0
 6065 04e0 387F00CC 		addi 3,31,204
 6066 04e4 48000001 		bl _ZN7sigslot7signal2IP12NumpadWindowPcNS_15single_threadedEED1Ev
 6067 04e8 387F00B0 		addi 3,31,176
 6068 04ec 48000001 		bl _ZN7sigslot9has_slotsINS_15single_threadedEED2Ev
 6069 04f0 7FE3FB78 		mr 3,31
 6070 04f4 48000001 		bl _ZN8GuiFrameD2Ev
 6071 04f8 7FC3F378 		mr 3,30
 6072              	.LEHB47:
 6073 04fc 48000001 		bl _Unwind_Resume
 6074              	.LEHE47:
 6075              	.L431:
 6076              	.L432:
 6077 0500 7C7C1B78 		mr 28,3
 6078              		.loc 4 47 0
 6079 0504 7FC3F378 		mr 3,30
 6080 0508 48000001 		bl _ZdlPv
 6081 050c 7F9EE378 		mr 30,28
 6082              	.L419:
 6083              		.loc 4 22 0
 6084 0510 7FA3EB78 		mr 3,29
 6085 0514 48000001 		bl _ZN10GuiTriggerD1Ev
 6086 0518 4BFFFFC8 		b .L424
 6087              	.L430:
 6088              	.L433:
 6089 051c 7C7E1B78 		mr 30,3
 6090              		.loc 4 46 0
 6091 0520 7F83E378 		mr 3,28
 6092 0524 48000001 		bl _ZdlPv
 6093 0528 4BFFFFE8 		b .L419
 6094              	.L429:
 6095 052c 4BFFFFF0 		b .L433
 6096              	.L428:
 6097 0530 4BFFFFEC 		b .L433
 6098              	.LVL480:
 6099              	.L427:
 6100 0534 4BFFFFCC 		b .L432
 6101              	.LVL481:
 6102              	.L426:
 6103 0538 7C7E1B78 		mr 30,3
 6104 053c 4BFFFFD4 		b .L419
 6105              	.LBE3764:
 6106              		.cfi_endproc
 6107              	.LFE1577:
 6108              		.section	.gcc_except_table
 6109              	.LLSDA1577:
 6110 00cd FF       		.byte	0xff
 6111 00ce FF       		.byte	0xff
 6112 00cf 01       		.byte	0x1
 6113 00d0 54       		.uleb128 .LLSDACSE1577-.LLSDACSB1577
 6114              	.LLSDACSB1577:
 6115 00d1 48       		.uleb128 .LEHB34-.LFB1577
 6116 00d2 04       		.uleb128 .LEHE34-.LEHB34
 6117 00d3 00       		.uleb128 0
 6118 00d4 00       		.uleb128 0
 6119 00d5 9801     		.uleb128 .LEHB35-.LFB1577
 6120 00d7 04       		.uleb128 .LEHE35-.LEHB35
 6121 00d8 D007     		.uleb128 .L425-.LFB1577
 6122 00da 00       		.uleb128 0
 6123 00db C401     		.uleb128 .LEHB36-.LFB1577
 6124 00dd 04       		.uleb128 .LEHE36-.LEHB36
 6125 00de AC08     		.uleb128 .L426-.LFB1577
 6126 00e0 00       		.uleb128 0
 6127 00e1 D801     		.uleb128 .LEHB37-.LFB1577
 6128 00e3 04       		.uleb128 .LEHE37-.LEHB37
 6129 00e4 A808     		.uleb128 .L427-.LFB1577
 6130 00e6 00       		.uleb128 0
 6131 00e7 F401     		.uleb128 .LEHB38-.LFB1577
 6132 00e9 9001     		.uleb128 .LEHE38-.LEHB38
 6133 00eb AC08     		.uleb128 .L426-.LFB1577
 6134 00ed 00       		.uleb128 0
 6135 00ee 9C03     		.uleb128 .LEHB39-.LFB1577
 6136 00f0 04       		.uleb128 .LEHE39-.LEHB39
 6137 00f1 A408     		.uleb128 .L428-.LFB1577
 6138 00f3 00       		.uleb128 0
 6139 00f4 A803     		.uleb128 .LEHB40-.LFB1577
 6140 00f6 04       		.uleb128 .LEHE40-.LEHB40
 6141 00f7 AC08     		.uleb128 .L426-.LFB1577
 6142 00f9 00       		.uleb128 0
 6143 00fa C803     		.uleb128 .LEHB41-.LFB1577
 6144 00fc 04       		.uleb128 .LEHE41-.LEHB41
 6145 00fd A008     		.uleb128 .L429-.LFB1577
 6146 00ff 00       		.uleb128 0
 6147 0100 E403     		.uleb128 .LEHB42-.LFB1577
 6148 0102 8801     		.uleb128 .LEHE42-.LEHB42
 6149 0104 AC08     		.uleb128 .L426-.LFB1577
 6150 0106 00       		.uleb128 0
 6151 0107 8005     		.uleb128 .LEHB43-.LFB1577
 6152 0109 04       		.uleb128 .LEHE43-.LEHB43
 6153 010a 9008     		.uleb128 .L430-.LFB1577
 6154 010c 00       		.uleb128 0
 6155 010d 8C05     		.uleb128 .LEHB44-.LFB1577
 6156 010f 04       		.uleb128 .LEHE44-.LEHB44
 6157 0110 AC08     		.uleb128 .L426-.LFB1577
 6158 0112 00       		.uleb128 0
 6159 0113 A405     		.uleb128 .LEHB45-.LFB1577
 6160 0115 04       		.uleb128 .LEHE45-.LEHB45
 6161 0116 F407     		.uleb128 .L431-.LFB1577
 6162 0118 00       		.uleb128 0
 6163 0119 C005     		.uleb128 .LEHB46-.LFB1577
 6164 011b DC01     		.uleb128 .LEHE46-.LEHB46
 6165 011d AC08     		.uleb128 .L426-.LFB1577
 6166 011f 00       		.uleb128 0
 6167 0120 F007     		.uleb128 .LEHB47-.LFB1577
 6168 0122 04       		.uleb128 .LEHE47-.LEHB47
 6169 0123 00       		.uleb128 0
 6170 0124 00       		.uleb128 0
 6171              	.LLSDACSE1577:
 6172              		.section	".text"
 6173              		.size	_ZN12NumpadWindowC2EPcib, .-_ZN12NumpadWindowC2EPcib
 6174              		.align 2
 6175              		.globl _ZThn176_N12NumpadWindowD1Ev
 6176              		.type	_ZThn176_N12NumpadWindowD1Ev, @function
 6177              	_ZThn176_N12NumpadWindowD1Ev:
 6178              	.LFB2250:
 6179              		.cfi_startproc
 6180 0540 3863FF50 		addi 3,3,-176
 6181 0544 48000004 		b .LTHUNK0
 6182              		.cfi_endproc
 6183              	.LFE2250:
 6184              		.size	_ZThn176_N12NumpadWindowD1Ev, .-_ZThn176_N12NumpadWindowD1Ev
 6185              		.align 2
 6186              		.globl _ZN12NumpadWindowD2Ev
 6187              		.type	_ZN12NumpadWindowD2Ev, @function
 6188              	_ZN12NumpadWindowD2Ev:
 6189              	.LFB1580:
 6190              		.loc 4 64 0
 6191              		.cfi_startproc
 6192              		.cfi_personality 0,__gxx_personality_v0
 6193              		.cfi_lsda 0,.LLSDA1580
 6194              	.LVL482:
 6195 0548 7C0802A6 		mflr 0
 6196 054c 9421FFD0 		stwu 1,-48(1)
 6197              	.LCFI70:
 6198              		.cfi_def_cfa_offset 48
 6199              		.cfi_register 65, 0
 6200              	.LBB3957:
 6201 0550 3D200000 		lis 9,_ZTV12NumpadWindow+8@ha
 6202 0554 39290008 		la 9,_ZTV12NumpadWindow+8@l(9)
 6203              	.LBE3957:
 6204 0558 9361001C 		stw 27,28(1)
 6205 055c 90010034 		stw 0,52(1)
 6206              	.LBB4170:
 6207 0560 380900E4 		addi 0,9,228
 6208              		.cfi_offset 65, 4
 6209              		.cfi_offset 27, -20
 6210              	.LBE4170:
 6211 0564 93810020 		stw 28,32(1)
 6212 0568 7C7B1B78 		mr 27,3
 6213 056c 93A10024 		stw 29,36(1)
 6214 0570 93C10028 		stw 30,40(1)
 6215 0574 93E1002C 		stw 31,44(1)
 6216              	.LBB4171:
 6217              		.loc 4 64 0
 6218 0578 91230000 		stw 9,0(3)
 6219 057c 900300B0 		stw 0,176(3)
 6220              	.LEHB48:
 6221              		.loc 4 66 0
 6222              		.cfi_offset 31, -4
 6223              		.cfi_offset 30, -8
 6224              		.cfi_offset 29, -12
 6225              		.cfi_offset 28, -16
 6226 0580 48000001 		bl _ZN8GuiFrame9RemoveAllEv
 6227              	.LVL483:
 6228              		.loc 4 68 0
 6229 0584 807B00F4 		lwz 3,244(27)
 6230 0588 48000001 		bl _ZN9Resources6RemoveEP8GuiSound
 6231              		.loc 4 69 0
 6232 058c 807B00F8 		lwz 3,248(27)
 6233 0590 48000001 		bl _ZN9Resources6RemoveEP8GuiSound
 6234              		.loc 4 71 0
 6235 0594 807B00E4 		lwz 3,228(27)
 6236 0598 2F830000 		cmpwi 7,3,0
 6237 059c 419E0014 		beq- 7,.L435
 6238              		.loc 4 71 0 is_stmt 0 discriminator 1
 6239 05a0 81230000 		lwz 9,0(3)
 6240 05a4 80090004 		lwz 0,4(9)
 6241 05a8 7C0903A6 		mtctr 0
 6242 05ac 4E800421 		bctrl
 6243              	.L435:
 6244              		.loc 4 72 0 is_stmt 1
 6245 05b0 807B00E8 		lwz 3,232(27)
 6246 05b4 2F830000 		cmpwi 7,3,0
 6247 05b8 419E0014 		beq- 7,.L436
 6248              		.loc 4 72 0 is_stmt 0 discriminator 1
 6249 05bc 81230000 		lwz 9,0(3)
 6250 05c0 80090004 		lwz 0,4(9)
 6251 05c4 7C0903A6 		mtctr 0
 6252 05c8 4E800421 		bctrl
 6253              	.L436:
 6254              		.loc 4 74 0 is_stmt 1
 6255 05cc 807B00EC 		lwz 3,236(27)
 6256 05d0 2F830000 		cmpwi 7,3,0
 6257 05d4 419E0014 		beq- 7,.L437
 6258              		.loc 4 74 0 is_stmt 0 discriminator 1
 6259 05d8 81230000 		lwz 9,0(3)
 6260 05dc 80090004 		lwz 0,4(9)
 6261 05e0 7C0903A6 		mtctr 0
 6262 05e4 4E800421 		bctrl
 6263              	.L437:
 6264              		.loc 4 75 0 is_stmt 1
 6265 05e8 807B00F0 		lwz 3,240(27)
 6266 05ec 2F830000 		cmpwi 7,3,0
 6267 05f0 419E0014 		beq- 7,.L438
 6268              		.loc 4 75 0 is_stmt 0 discriminator 1
 6269 05f4 81230000 		lwz 9,0(3)
 6270 05f8 80090004 		lwz 0,4(9)
 6271 05fc 7C0903A6 		mtctr 0
 6272 0600 4E800421 		bctrl
 6273              	.L438:
 6274              		.loc 4 77 0 is_stmt 1
 6275 0604 807B00FC 		lwz 3,252(27)
 6276 0608 2F830000 		cmpwi 7,3,0
 6277 060c 419E0014 		beq- 7,.L439
 6278              		.loc 4 77 0 is_stmt 0 discriminator 1
 6279 0610 81230000 		lwz 9,0(3)
 6280 0614 80090004 		lwz 0,4(9)
 6281 0618 7C0903A6 		mtctr 0
 6282 061c 4E800421 		bctrl
 6283              	.LEHE48:
 6284              	.L439:
 6285              		.loc 4 64 0 is_stmt 1
 6286 0620 387B0100 		addi 3,27,256
 6287              	.LEHB49:
 6288 0624 48000001 		bl _ZN10GuiTriggerD1Ev
 6289              	.LEHE49:
 6290              	.LVL484:
 6291              	.LBB3958:
 6292              	.LBB3959:
 6293              	.LBB3960:
 6294              	.LBB3961:
 6295              	.LBB3962:
 6296              	.LBB3963:
 6297              		.loc 1 826 0 discriminator 1
 6298 0628 3D200000 		lis 9,_ZTVN7sigslot13_signal_base2IP12NumpadWindowPcNS_15single_threadedEEE+8@ha
 6299              	.LBE3963:
 6300              	.LBE3962:
 6301              	.LBE3961:
 6302              		.loc 1 2238 0 discriminator 1
 6303 062c 3B9B00CC 		addi 28,27,204
 6304              	.LVL485:
 6305              	.LBB4060:
 6306              	.LBB4055:
 6307              	.LBB4050:
 6308              		.loc 1 826 0 discriminator 1
 6309 0630 38090008 		la 0,_ZTVN7sigslot13_signal_base2IP12NumpadWindowPcNS_15single_threadedEEE+8@l(9)
 6310              	.LBB3964:
 6311              	.LBB3965:
 6312              	.LBB3966:
 6313              	.LBB3967:
 6314              		.loc 1 338 0 discriminator 1
 6315 0634 3D200000 		lis 9,_ZN7sigslot15single_threaded4lockEv@ha
 6316 0638 39290000 		la 9,_ZN7sigslot15single_threaded4lockEv@l(9)
 6317              	.LBE3967:
 6318              	.LBE3966:
 6319              	.LBE3965:
 6320              	.LBE3964:
 6321              		.loc 1 826 0 discriminator 1
 6322 063c 901B00CC 		stw 0,204(27)
 6323              	.LVL486:
 6324              	.LBB4004:
 6325              	.LBB4000:
 6326              	.LBB3969:
 6327              	.LBB3968:
 6328              		.loc 1 338 0 discriminator 1
 6329 0640 7F83E378 		mr 3,28
 6330 0644 7D2903A6 		mtctr 9
 6331 0648 3BBB00D0 		addi 29,27,208
 6332              	.LEHB50:
 6333 064c 4E800421 		bctrl
 6334              	.LEHE50:
 6335              	.LBE3968:
 6336              	.LBE3969:
 6337              	.LBE4000:
 6338              		.loc 4 93 0
 6339 0650 7F7DDB78 		mr 29,27
 6340 0654 87FD00D0 		lwzu 31,208(29)
 6341              	.LVL487:
 6342              	.LBB4001:
 6343              		.loc 1 834 0
 6344 0658 7F9FE800 		cmpw 7,31,29
 6345 065c 419E00A8 		beq- 7,.L440
 6346              	.LVL488:
 6347              	.L513:
 6348              		.loc 1 836 0
 6349 0660 807F0008 		lwz 3,8(31)
 6350 0664 81230000 		lwz 9,0(3)
 6351 0668 80090008 		lwz 0,8(9)
 6352 066c 7C0903A6 		mtctr 0
 6353              	.LEHB51:
 6354 0670 4E800421 		bctrl
 6355              	.LBB3970:
 6356              	.LBB3971:
 6357              	.LBB3972:
 6358              	.LBB3973:
 6359              		.loc 1 338 0
 6360 0674 81230000 		lwz 9,0(3)
 6361              	.LBE3973:
 6362              	.LBE3972:
 6363              	.LBE3971:
 6364              	.LBE3970:
 6365              		.loc 1 836 0
 6366 0678 7C7E1B78 		mr 30,3
 6367              	.LVL489:
 6368 067c 93810008 		stw 28,8(1)
 6369              	.LVL490:
 6370              	.LBB3982:
 6371              	.LBB3981:
 6372              	.LBB3975:
 6373              	.LBB3974:
 6374              		.loc 1 338 0
 6375 0680 80090008 		lwz 0,8(9)
 6376 0684 7C0903A6 		mtctr 0
 6377 0688 4E800421 		bctrl
 6378              	.LVL491:
 6379              	.LBE3974:
 6380              	.LBE3975:
 6381              	.LBB3976:
 6382              	.LBB3977:
 6383              		.loc 8 528 0
 6384 068c 387E0004 		addi 3,30,4
 6385 0690 38810008 		addi 4,1,8
 6386 0694 48000001 		bl _ZNSt8_Rb_treeIPN7sigslot12_signal_baseINS0_15single_threadedEEES4_St9_IdentityIS4_ESt4lessIS4_
 6387              	.LVL492:
 6388              	.LBE3977:
 6389              	.LBE3976:
 6390              	.LBB3978:
 6391              	.LBB3979:
 6392              	.LBB3980:
 6393              		.loc 1 343 0
 6394 0698 813E0000 		lwz 9,0(30)
 6395 069c 7FC3F378 		mr 3,30
 6396 06a0 8009000C 		lwz 0,12(9)
 6397 06a4 7C0903A6 		mtctr 0
 6398 06a8 4E800421 		bctrl
 6399              	.LVL493:
 6400              	.LBE3980:
 6401              	.LBE3979:
 6402              	.LBE3978:
 6403              	.LBE3981:
 6404              	.LBE3982:
 6405              		.loc 1 837 0
 6406 06ac 807F0008 		lwz 3,8(31)
 6407 06b0 2F830000 		cmpwi 7,3,0
 6408 06b4 419E0014 		beq- 7,.L442
 6409 06b8 81230000 		lwz 9,0(3)
 6410 06bc 80090004 		lwz 0,4(9)
 6411 06c0 7C0903A6 		mtctr 0
 6412 06c4 4E800421 		bctrl
 6413              	.LEHE51:
 6414              	.L442:
 6415              	.LVL494:
 6416              	.LBB3983:
 6417              	.LBB3984:
 6418              		.loc 5 234 0
 6419 06c8 83FF0000 		lwz 31,0(31)
 6420              	.LVL495:
 6421              	.LBE3984:
 6422              	.LBE3983:
 6423              		.loc 1 834 0
 6424 06cc 7F9DF800 		cmpw 7,29,31
 6425 06d0 409EFF90 		bne+ 7,.L513
 6426              	.LBE4001:
 6427              		.loc 4 93 0
 6428 06d4 83FB00D0 		lwz 31,208(27)
 6429              	.LVL496:
 6430              	.LBB4002:
 6431              	.LBB3985:
 6432              	.LBB3986:
 6433              		.loc 5 1162 0
 6434 06d8 7F9DF800 		cmpw 7,29,31
 6435 06dc 40BE000C 		bne+ 7,.L516
 6436 06e0 48000024 		b .L440
 6437              	.LVL497:
 6438              	.L502:
 6439              		.loc 5 1163 0
 6440 06e4 7FDFF378 		mr 31,30
 6441              	.LVL498:
 6442              	.L516:
 6443              	.LBB3987:
 6444              	.LBB3988:
 6445              		.loc 9 112 0
 6446 06e8 83DF0000 		lwz 30,0(31)
 6447              	.LVL499:
 6448              	.LBB3989:
 6449              	.LBB3990:
 6450              		.loc 5 1532 0
 6451 06ec 7FE3FB78 		mr 3,31
 6452 06f0 48000001 		bl _ZNSt8__detail15_List_node_base9_M_unhookEv
 6453              	.LVL500:
 6454              	.LBB3991:
 6455              	.LBB3992:
 6456              	.LBB3993:
 6457              		.loc 6 98 0
 6458 06f4 7FE3FB78 		mr 3,31
 6459 06f8 48000001 		bl _ZdlPv
 6460              	.LVL501:
 6461              	.LBE3993:
 6462              	.LBE3992:
 6463              	.LBE3991:
 6464              	.LBE3990:
 6465              	.LBE3989:
 6466              	.LBE3988:
 6467              	.LBE3987:
 6468              		.loc 5 1162 0
 6469 06fc 7F9DF000 		cmpw 7,29,30
 6470 0700 409EFFE4 		bne+ 7,.L502
 6471              	.LVL502:
 6472              	.L440:
 6473              	.LBE3986:
 6474              	.LBE3985:
 6475              	.LBB3994:
 6476              	.LBB3995:
 6477              	.LBB3996:
 6478              		.loc 1 343 0
 6479 0704 813B00CC 		lwz 9,204(27)
 6480 0708 7F83E378 		mr 3,28
 6481 070c 8009000C 		lwz 0,12(9)
 6482 0710 7C0903A6 		mtctr 0
 6483              	.LEHB52:
 6484 0714 4E800421 		bctrl
 6485              	.LEHE52:
 6486              	.LBE3996:
 6487              	.LBE3995:
 6488              	.LBE3994:
 6489              	.LBE4002:
 6490              	.LBE4004:
 6491              	.LBB4005:
 6492              	.LBB4006:
 6493              	.LBB4007:
 6494              	.LBB4008:
 6495              	.LBB4009:
 6496              	.LBB4010:
 6497              		.loc 9 70 0
 6498 0718 807B00D0 		lwz 3,208(27)
 6499              	.LVL503:
 6500              		.loc 9 71 0
 6501 071c 7F83E800 		cmpw 7,3,29
 6502 0720 40BE000C 		bne+ 7,.L518
 6503 0724 48000018 		b .L458
 6504              	.LVL504:
 6505              	.L503:
 6506              		.loc 9 74 0
 6507 0728 7FE3FB78 		mr 3,31
 6508              	.LVL505:
 6509              	.L518:
 6510              	.LBB4011:
 6511 072c 83E30000 		lwz 31,0(3)
 6512              	.LVL506:
 6513              	.LBB4012:
 6514              	.LBB4013:
 6515              	.LBB4014:
 6516              		.loc 6 98 0
 6517 0730 48000001 		bl _ZdlPv
 6518              	.LVL507:
 6519              	.LBE4014:
 6520              	.LBE4013:
 6521              	.LBE4012:
 6522              	.LBE4011:
 6523              		.loc 9 71 0
 6524 0734 7F9FE800 		cmpw 7,31,29
 6525 0738 409EFFF0 		bne+ 7,.L503
 6526              	.LVL508:
 6527              	.L458:
 6528              	.LBE4010:
 6529              	.LBE4009:
 6530              	.LBE4008:
 6531              	.LBE4007:
 6532              	.LBE4006:
 6533              	.LBE4005:
 6534              	.LBE4050:
 6535              	.LBE4055:
 6536              	.LBE4060:
 6537              	.LBE3960:
 6538              	.LBE3959:
 6539              	.LBE3958:
 6540              	.LBB4073:
 6541              	.LBB4074:
 6542              	.LBB4075:
 6543              		.loc 1 516 0
 6544 073c 3D200000 		lis 9,_ZTVN7sigslot9has_slotsINS_15single_threadedEEE+8@ha
 6545              	.LBE4075:
 6546              	.LBE4074:
 6547              	.LBE4073:
 6548              	.LBB4162:
 6549              	.LBB4069:
 6550              	.LBB4065:
 6551              	.LBB4061:
 6552              	.LBB4056:
 6553              	.LBB4051:
 6554              	.LBB4015:
 6555              	.LBB4016:
 6556              	.LBB4017:
 6557              	.LBB4018:
 6558              	.LBB4019:
 6559              	.LBB4020:
 6560              		.loc 1 105 0
 6561 0740 3F800000 		lis 28,_ZTVN7sigslot15single_threadedE+8@ha
 6562              	.LBE4020:
 6563              	.LBE4019:
 6564              	.LBE4018:
 6565              	.LBE4017:
 6566              	.LBE4016:
 6567              	.LBE4015:
 6568              	.LBE4051:
 6569              	.LBE4056:
 6570              	.LBE4061:
 6571              	.LBE4065:
 6572              	.LBE4069:
 6573              	.LBE4162:
 6574              	.LBB4163:
 6575              	.LBB4158:
 6576              	.LBB4154:
 6577              		.loc 1 516 0
 6578 0744 38090008 		la 0,_ZTVN7sigslot9has_slotsINS_15single_threadedEEE+8@l(9)
 6579              	.LBB4076:
 6580              	.LBB4077:
 6581              	.LBB4078:
 6582              	.LBB4079:
 6583              		.loc 1 338 0
 6584 0748 3D200000 		lis 9,_ZN7sigslot15single_threaded4lockEv@ha
 6585              	.LBE4079:
 6586              	.LBE4078:
 6587              	.LBE4077:
 6588              	.LBE4076:
 6589              	.LBE4154:
 6590              	.LBE4158:
 6591              	.LBE4163:
 6592              	.LBB4164:
 6593              	.LBB4070:
 6594              	.LBB4066:
 6595              	.LBB4062:
 6596              	.LBB4057:
 6597              	.LBB4052:
 6598              	.LBB4031:
 6599              	.LBB4029:
 6600              	.LBB4027:
 6601              	.LBB4025:
 6602              	.LBB4023:
 6603              	.LBB4021:
 6604              		.loc 1 105 0
 6605 074c 3B9C0008 		la 28,_ZTVN7sigslot15single_threadedE+8@l(28)
 6606              	.LBE4021:
 6607              	.LBE4023:
 6608              	.LBE4025:
 6609              	.LBE4027:
 6610              	.LBE4029:
 6611              	.LBE4031:
 6612              	.LBE4052:
 6613              	.LBE4057:
 6614              	.LBE4062:
 6615              	.LBE4066:
 6616              	.LBE4070:
 6617              	.LBE4164:
 6618              		.loc 4 64 0
 6619 0750 3BBB00B0 		addi 29,27,176
 6620              	.LVL509:
 6621              	.LBB4165:
 6622              	.LBB4159:
 6623              	.LBB4155:
 6624              	.LBB4134:
 6625              	.LBB4131:
 6626              	.LBB4082:
 6627              	.LBB4080:
 6628              		.loc 1 338 0
 6629 0754 39290000 		la 9,_ZN7sigslot15single_threaded4lockEv@l(9)
 6630              	.LBE4080:
 6631              	.LBE4082:
 6632              	.LBE4131:
 6633              	.LBE4134:
 6634              	.LBE4155:
 6635              	.LBE4159:
 6636              	.LBE4165:
 6637              	.LBB4166:
 6638              	.LBB4071:
 6639              	.LBB4067:
 6640              	.LBB4063:
 6641              	.LBB4058:
 6642              	.LBB4053:
 6643              	.LBB4032:
 6644              	.LBB4030:
 6645              	.LBB4028:
 6646              	.LBB4026:
 6647              	.LBB4024:
 6648              	.LBB4022:
 6649              		.loc 1 105 0
 6650 0758 939B00CC 		stw 28,204(27)
 6651              	.LBE4022:
 6652              	.LBE4024:
 6653              	.LBE4026:
 6654              	.LBE4028:
 6655              	.LBE4030:
 6656              	.LBE4032:
 6657              	.LBE4053:
 6658              	.LBE4058:
 6659              	.LBE4063:
 6660              	.LBE4067:
 6661              	.LBE4071:
 6662              	.LBE4166:
 6663              	.LBB4167:
 6664              	.LBB4160:
 6665              	.LBB4156:
 6666              		.loc 1 516 0
 6667 075c 901B00B0 		stw 0,176(27)
 6668              	.LVL510:
 6669              	.LBB4135:
 6670              	.LBB4132:
 6671              	.LBB4083:
 6672              	.LBB4081:
 6673              		.loc 1 338 0
 6674 0760 7FA3EB78 		mr 3,29
 6675 0764 7D2903A6 		mtctr 9
 6676 0768 3BFB00B4 		addi 31,27,180
 6677              	.LEHB53:
 6678 076c 4E800421 		bctrl
 6679              	.LEHE53:
 6680              	.LVL511:
 6681              	.LBE4081:
 6682              	.LBE4083:
 6683              	.LBB4084:
 6684              		.loc 4 93 0
 6685 0770 83FB00C0 		lwz 31,192(27)
 6686              	.LVL512:
 6687              	.LBE4084:
 6688              	.LBB4085:
 6689              	.LBB4086:
 6690              	.LBB4087:
 6691              		.loc 7 671 0
 6692 0774 3BDB00B8 		addi 30,27,184
 6693              	.LVL513:
 6694              	.LBE4087:
 6695              	.LBE4086:
 6696              	.LBE4085:
 6697              		.loc 1 524 0
 6698 0778 7F9FF000 		cmpw 7,31,30
 6699 077c 419E0030 		beq- 7,.L474
 6700              	.LVL514:
 6701              	.L512:
 6702              		.loc 1 526 0
 6703 0780 807F0010 		lwz 3,16(31)
 6704 0784 7FA4EB78 		mr 4,29
 6705 0788 81230000 		lwz 9,0(3)
 6706 078c 80090010 		lwz 0,16(9)
 6707 0790 7C0903A6 		mtctr 0
 6708              	.LEHB54:
 6709 0794 4E800421 		bctrl
 6710              	.LEHE54:
 6711              	.LVL515:
 6712              	.LBB4088:
 6713              	.LBB4089:
 6714              		.loc 7 269 0
 6715 0798 7FE3FB78 		mr 3,31
 6716 079c 48000001 		bl _ZSt18_Rb_tree_incrementPKSt18_Rb_tree_node_base
 6717              	.LBE4089:
 6718              	.LBE4088:
 6719              		.loc 1 524 0
 6720 07a0 7F9E1800 		cmpw 7,30,3
 6721              	.LBB4091:
 6722              	.LBB4090:
 6723              		.loc 7 269 0
 6724 07a4 7C7F1B78 		mr 31,3
 6725              	.LVL516:
 6726              	.LBE4090:
 6727              	.LBE4091:
 6728              		.loc 1 524 0
 6729 07a8 409EFFD8 		bne+ 7,.L512
 6730              	.LVL517:
 6731              	.L474:
 6732              	.LBB4092:
 6733              	.LBB4093:
 6734              		.loc 8 562 0
 6735 07ac 3BFB00B4 		addi 31,27,180
 6736              	.LVL518:
 6737              	.LBB4094:
 6738              	.LBB4095:
 6739              	.LBB4096:
 6740              	.LBB4097:
 6741              	.LBB4098:
 6742              	.LBB4099:
 6743              	.LBB4100:
 6744              		.loc 7 809 0
 6745 07b0 809B00BC 		lwz 4,188(27)
 6746 07b4 7FE3FB78 		mr 3,31
 6747 07b8 48000001 		bl _ZNSt8_Rb_treeIPN7sigslot12_signal_baseINS0_15single_threadedEEES4_St9_IdentityIS4_ESt4lessIS4_
 6748              	.LVL519:
 6749              		.loc 7 811 0
 6750 07bc 38000000 		li 0,0
 6751              		.loc 7 810 0
 6752 07c0 93DB00C0 		stw 30,192(27)
 6753              	.LVL520:
 6754              	.LBE4100:
 6755              	.LBE4099:
 6756              	.LBE4098:
 6757              	.LBE4097:
 6758              	.LBE4096:
 6759              	.LBE4095:
 6760              	.LBE4094:
 6761              	.LBE4093:
 6762              	.LBE4092:
 6763              	.LBB4117:
 6764              	.LBB4118:
 6765              	.LBB4119:
 6766              		.loc 1 343 0
 6767 07c4 7FA3EB78 		mr 3,29
 6768              	.LBE4119:
 6769              	.LBE4118:
 6770              	.LBE4117:
 6771              	.LBB4124:
 6772              	.LBB4115:
 6773              	.LBB4113:
 6774              	.LBB4111:
 6775              	.LBB4109:
 6776              	.LBB4107:
 6777              	.LBB4105:
 6778              	.LBB4103:
 6779              	.LBB4101:
 6780              		.loc 7 811 0
 6781 07c8 901B00BC 		stw 0,188(27)
 6782              	.LVL521:
 6783              		.loc 7 812 0
 6784 07cc 93DB00C4 		stw 30,196(27)
 6785              	.LBE4101:
 6786              	.LBE4103:
 6787              	.LBE4105:
 6788              	.LBE4107:
 6789              	.LBE4109:
 6790              	.LBE4111:
 6791              	.LBE4113:
 6792              	.LBE4115:
 6793              	.LBE4124:
 6794              	.LBB4125:
 6795              	.LBB4122:
 6796              	.LBB4120:
 6797              		.loc 1 343 0
 6798 07d0 813B00B0 		lwz 9,176(27)
 6799              	.LBE4120:
 6800              	.LBE4122:
 6801              	.LBE4125:
 6802              	.LBB4126:
 6803              	.LBB4116:
 6804              	.LBB4114:
 6805              	.LBB4112:
 6806              	.LBB4110:
 6807              	.LBB4108:
 6808              	.LBB4106:
 6809              	.LBB4104:
 6810              	.LBB4102:
 6811              		.loc 7 813 0
 6812 07d4 901B00C8 		stw 0,200(27)
 6813              	.LVL522:
 6814              	.LBE4102:
 6815              	.LBE4104:
 6816              	.LBE4106:
 6817              	.LBE4108:
 6818              	.LBE4110:
 6819              	.LBE4112:
 6820              	.LBE4114:
 6821              	.LBE4116:
 6822              	.LBE4126:
 6823              	.LBB4127:
 6824              	.LBB4123:
 6825              	.LBB4121:
 6826              		.loc 1 343 0
 6827 07d8 8009000C 		lwz 0,12(9)
 6828 07dc 7C0903A6 		mtctr 0
 6829              	.LEHB55:
 6830 07e0 4E800421 		bctrl
 6831              	.LEHE55:
 6832              	.LVL523:
 6833              	.LBE4121:
 6834              	.LBE4123:
 6835              	.LBE4127:
 6836              	.LBE4132:
 6837              	.LBE4135:
 6838              	.LBB4136:
 6839              	.LBB4137:
 6840              	.LBB4138:
 6841              	.LBB4139:
 6842              	.LBB4140:
 6843              		.loc 7 639 0
 6844 07e4 809B00BC 		lwz 4,188(27)
 6845 07e8 7FE3FB78 		mr 3,31
 6846 07ec 48000001 		bl _ZNSt8_Rb_treeIPN7sigslot12_signal_baseINS0_15single_threadedEEES4_St9_IdentityIS4_ESt4lessIS4_
 6847              	.LBE4140:
 6848              	.LBE4139:
 6849              	.LBE4138:
 6850              	.LBE4137:
 6851              	.LBE4136:
 6852              	.LBB4141:
 6853              	.LBB4142:
 6854              	.LBB4143:
 6855              		.loc 1 105 0
 6856 07f0 939B00B0 		stw 28,176(27)
 6857              	.LBE4143:
 6858              	.LBE4142:
 6859              	.LBE4141:
 6860              	.LBE4156:
 6861              	.LBE4160:
 6862              	.LBE4167:
 6863              		.loc 4 64 0
 6864 07f4 7F63DB78 		mr 3,27
 6865              	.LEHB56:
 6866 07f8 48000001 		bl _ZN8GuiFrameD2Ev
 6867              	.LEHE56:
 6868              	.LBE4171:
 6869              		.loc 4 78 0
 6870 07fc 80010034 		lwz 0,52(1)
 6871 0800 8361001C 		lwz 27,28(1)
 6872              	.LVL524:
 6873 0804 7C0803A6 		mtlr 0
 6874 0808 83810020 		lwz 28,32(1)
 6875 080c 83A10024 		lwz 29,36(1)
 6876              	.LVL525:
 6877 0810 83C10028 		lwz 30,40(1)
 6878              	.LVL526:
 6879 0814 83E1002C 		lwz 31,44(1)
 6880              	.LVL527:
 6881 0818 38210030 		addi 1,1,48
 6882              		.cfi_remember_state
 6883              	.LCFI71:
 6884              		.cfi_def_cfa_offset 0
 6885              		.cfi_restore 31
 6886              		.cfi_restore 30
 6887              		.cfi_restore 29
 6888              		.cfi_restore 28
 6889              		.cfi_restore 27
 6890 081c 4E800020 		blr
 6891              	.LVL528:
 6892              	.L506:
 6893              	.LCFI72:
 6894              		.cfi_restore_state
 6895 0820 7C7E1B78 		mr 30,3
 6896              	.LBB4172:
 6897              		.loc 4 64 0
 6898 0824 387B0100 		addi 3,27,256
 6899 0828 48000001 		bl _ZN10GuiTriggerD1Ev
 6900              	.L501:
 6901 082c 387B00CC 		addi 3,27,204
 6902 0830 48000001 		bl _ZN7sigslot7signal2IP12NumpadWindowPcNS_15single_threadedEED1Ev
 6903              	.LVL529:
 6904              	.L470:
 6905 0834 387B00B0 		addi 3,27,176
 6906 0838 48000001 		bl _ZN7sigslot9has_slotsINS_15single_threadedEED2Ev
 6907              	.L497:
 6908 083c 7F63DB78 		mr 3,27
 6909 0840 48000001 		bl _ZN8GuiFrameD2Ev
 6910 0844 7FC3F378 		mr 3,30
 6911              	.LEHB57:
 6912 0848 48000001 		bl _Unwind_Resume
 6913              	.LEHE57:
 6914              	.LVL530:
 6915              	.L511:
 6916              	.LBB4168:
 6917              	.LBB4161:
 6918              	.LBB4157:
 6919              	.LBB4144:
 6920              	.LBB4133:
 6921              	.LBB4128:
 6922              	.LBB4129:
 6923              	.LBB4130:
 6924              		.loc 1 343 0
 6925 084c 813B00B0 		lwz 9,176(27)
 6926 0850 7C7E1B78 		mr 30,3
 6927              	.LVL531:
 6928 0854 7FA3EB78 		mr 3,29
 6929 0858 3BFB00B4 		addi 31,27,180
 6930              	.LVL532:
 6931 085c 8009000C 		lwz 0,12(9)
 6932 0860 7C0903A6 		mtctr 0
 6933 0864 4E800421 		bctrl
 6934              	.LVL533:
 6935              	.L484:
 6936              	.LBE4130:
 6937              	.LBE4129:
 6938              	.LBE4128:
