	.file	"OggDecoder.cpp"
	.section	".text"
.Ltext0:
	.section	.text._ZN12SoundDecoder4TellEv,"axG",@progbits,_ZN12SoundDecoder4TellEv,comdat
	.align 2
	.weak	_ZN12SoundDecoder4TellEv
	.type	_ZN12SoundDecoder4TellEv, @function
_ZN12SoundDecoder4TellEv:
.LFB1396:
	.file 1 "d:/Projects/SaveGameManager/savegame-manager-gx/trunk/source/SoundOperations/SoundDecoder.hpp"
	.loc 1 54 0
	.cfi_startproc
.LVL0:
	.loc 1 54 0
	lwz 3,68(3)
.LVL1:
	blr
	.cfi_endproc
.LFE1396:
	.size	_ZN12SoundDecoder4TellEv, .-_ZN12SoundDecoder4TellEv
	.section	.text._ZN12SoundDecoder9GetBufferEv,"axG",@progbits,_ZN12SoundDecoder9GetBufferEv,comdat
	.align 2
	.weak	_ZN12SoundDecoder9GetBufferEv
	.type	_ZN12SoundDecoder9GetBufferEv, @function
_ZN12SoundDecoder9GetBufferEv:
.LFB1401:
	.loc 1 61 0
	.cfi_startproc
.LVL2:
.LBB252:
.LBB253:
.LBB254:
.LBB255:
.LBB256:
	.file 2 "d:/Projects/SaveGameManager/savegame-manager-gx/trunk/source/SoundOperations/OggDecoder.cpp"
	.loc 2 144 0
	lwz 9,16(3)
.LBB257:
.LBB258:
	.file 3 "d:\\devkitpro\\devkitppc\\bin\\../lib/gcc/powerpc-eabi/4.6.3/../../../../powerpc-eabi/include/c++/4.6.3/bits/stl_vector.h"
	.loc 3 571 0
	lwz 11,20(3)
.LBE258:
.LBE257:
.LBE256:
.LBE255:
.LBE254:
	.file 4 "d:/Projects/SaveGameManager/savegame-manager-gx/trunk/source/SoundOperations/BufferCircle.hpp"
	.loc 4 54 0
	lhz 0,8(3)
.LVL3:
.LBB263:
.LBB262:
	li 3,0
.LVL4:
.LBB261:
.LBB260:
.LBB259:
	.loc 3 571 0
	subf 11,9,11
	srawi 11,11,2
.LBE259:
.LBE260:
.LBE261:
	.loc 4 83 0
	cmpw 7,0,11
	bgelr- 7
.LVL5:
.LBE262:
.LBE263:
	.loc 4 54 0
	slwi 0,0,2
.LVL6:
	lwzx 3,9,0
.LBE253:
.LBE252:
	.loc 1 61 0
	blr
	.cfi_endproc
.LFE1401:
	.size	_ZN12SoundDecoder9GetBufferEv, .-_ZN12SoundDecoder9GetBufferEv
	.section	.text._ZN12SoundDecoder13GetNextBufferEv,"axG",@progbits,_ZN12SoundDecoder13GetNextBufferEv,comdat
	.align 2
	.weak	_ZN12SoundDecoder13GetNextBufferEv
	.type	_ZN12SoundDecoder13GetNextBufferEv, @function
_ZN12SoundDecoder13GetNextBufferEv:
.LFB1402:
	.loc 1 62 0
	.cfi_startproc
.LVL7:
.LBB264:
.LBB265:
.LBB266:
	.loc 2 144 0
	lwz 11,16(3)
.LBE266:
.LBE265:
.LBE264:
	.loc 1 62 0
	mr 9,3
.LVL8:
.LBB274:
.LBB273:
.LBB271:
.LBB267:
.LBB268:
	.loc 3 571 0
	lwz 0,20(3)
.LBE268:
.LBE267:
.LBE271:
	.loc 4 58 0
	li 3,0
.LVL9:
.LBB272:
.LBB270:
.LBB269:
	.loc 3 571 0
	subf 0,11,0
.LBE269:
.LBE270:
.LBE272:
	.loc 4 58 0
	srawi. 0,0,2
	blelr- 0
.LVL10:
	lhz 9,8(9)
.LVL11:
	addi 9,9,1
.LVL12:
	divw 10,9,0
	mullw 0,10,0
.LVL13:
	subf 9,0,9
	slwi 9,9,2
	lwzx 3,11,9
.LBE273:
.LBE274:
	.loc 1 62 0
	blr
	.cfi_endproc
.LFE1402:
	.size	_ZN12SoundDecoder13GetNextBufferEv, .-_ZN12SoundDecoder13GetNextBufferEv
	.section	.text._ZN12SoundDecoder13GetLastBufferEv,"axG",@progbits,_ZN12SoundDecoder13GetLastBufferEv,comdat
	.align 2
	.weak	_ZN12SoundDecoder13GetLastBufferEv
	.type	_ZN12SoundDecoder13GetLastBufferEv, @function
_ZN12SoundDecoder13GetLastBufferEv:
.LFB1403:
	.loc 1 63 0
	.cfi_startproc
.LVL14:
.LBB275:
.LBB276:
.LBB277:
	.loc 2 144 0
	lwz 11,16(3)
.LBE277:
.LBE276:
.LBE275:
	.loc 1 63 0
	mr 9,3
.LVL15:
.LBB285:
.LBB284:
.LBB282:
.LBB278:
.LBB279:
	.loc 3 571 0
	lwz 0,20(3)
.LBE279:
.LBE278:
.LBE282:
	.loc 4 60 0
	li 3,0
.LVL16:
.LBB283:
.LBB281:
.LBB280:
	.loc 3 571 0
	subf 0,11,0
.LBE280:
.LBE281:
.LBE283:
	.loc 4 60 0
	srawi. 0,0,2
	blelr- 0
.LVL17:
	lhz 9,8(9)
.LVL18:
	add 9,0,9
.LVL19:
	addi 9,9,-1
	divw 10,9,0
	mullw 0,10,0
	subf 9,0,9
	slwi 9,9,2
	lwzx 3,11,9
.LBE284:
.LBE285:
	.loc 1 63 0
	blr
	.cfi_endproc
.LFE1403:
	.size	_ZN12SoundDecoder13GetLastBufferEv, .-_ZN12SoundDecoder13GetLastBufferEv
	.section	.text._ZN12SoundDecoder17IsNextBufferReadyEv,"axG",@progbits,_ZN12SoundDecoder17IsNextBufferReadyEv,comdat
	.align 2
	.weak	_ZN12SoundDecoder17IsNextBufferReadyEv
	.type	_ZN12SoundDecoder17IsNextBufferReadyEv, @function
_ZN12SoundDecoder17IsNextBufferReadyEv:
.LFB1406:
	.loc 1 66 0
	.cfi_startproc
.LVL20:
.LBB286:
.LBB287:
.LBB288:
.LBB289:
.LBB290:
	.loc 3 571 0
	lwz 11,20(3)
.LBE290:
.LBE289:
.LBE288:
.LBE287:
.LBE286:
	.loc 1 66 0
	mr 9,3
.LVL21:
.LBB312:
.LBB311:
.LBB295:
.LBB293:
.LBB291:
	.loc 3 571 0
	lwz 0,16(3)
.LBE291:
.LBE293:
.LBE295:
	.loc 4 72 0
	li 3,0
.LVL22:
.LBB296:
.LBB294:
.LBB292:
	.loc 3 571 0
	subf 0,0,11
.LBE292:
.LBE294:
.LBE296:
	.loc 4 72 0
	srawi. 0,0,2
	blelr- 0
.LVL23:
	lhz 10,8(9)
.LBB297:
.LBB298:
	.file 5 "d:\\devkitpro\\devkitppc\\bin\\../lib/gcc/powerpc-eabi/4.6.3/../../../../powerpc-eabi/include/c++/4.6.3/bits/stl_bvector.h"
	.loc 5 80 0
	lwz 11,40(9)
.LBE298:
.LBE297:
	.loc 4 72 0
	addi 9,10,1
.LVL24:
	divw 10,9,0
	mullw 0,10,0
	subf 0,0,9
.LVL25:
.LBB302:
.LBB299:
	.loc 5 80 0
	rlwinm 9,0,29,3,29
.LBE299:
.LBE302:
.LBB303:
.LBB304:
	.loc 5 692 0
	rlwinm 0,0,0,27,31
.LVL26:
.LBE304:
.LBE303:
.LBB308:
.LBB300:
	.loc 5 80 0
	lwzx 9,11,9
.LBE300:
.LBE308:
.LBB309:
.LBB307:
.LBB305:
.LBB306:
	.loc 5 200 0
	li 11,1
	slw 0,11,0
.LVL27:
.LBE306:
.LBE305:
.LBE307:
.LBE309:
.LBB310:
.LBB301:
	.loc 5 80 0
	and. 11,0,9
	mfcr 3
	rlwinm 3,3,3,1
	xori 3,3,1
.LBE301:
.LBE310:
.LBE311:
.LBE312:
	.loc 1 66 0
	blr
	.cfi_endproc
.LFE1406:
	.size	_ZN12SoundDecoder17IsNextBufferReadyEv, .-_ZN12SoundDecoder17IsNextBufferReadyEv
	.section	.text._ZN12SoundDecoder17IsLastBufferReadyEv,"axG",@progbits,_ZN12SoundDecoder17IsLastBufferReadyEv,comdat
	.align 2
	.weak	_ZN12SoundDecoder17IsLastBufferReadyEv
	.type	_ZN12SoundDecoder17IsLastBufferReadyEv, @function
_ZN12SoundDecoder17IsLastBufferReadyEv:
.LFB1407:
	.loc 1 67 0
	.cfi_startproc
.LVL28:
.LBB313:
.LBB314:
.LBB315:
.LBB316:
.LBB317:
	.loc 3 571 0
	lwz 11,20(3)
.LBE317:
.LBE316:
.LBE315:
.LBE314:
.LBE313:
	.loc 1 67 0
	mr 9,3
.LVL29:
.LBB339:
.LBB338:
.LBB322:
.LBB320:
.LBB318:
	.loc 3 571 0
	lwz 0,16(3)
.LBE318:
.LBE320:
.LBE322:
	.loc 4 74 0
	li 3,0
.LVL30:
.LBB323:
.LBB321:
.LBB319:
	.loc 3 571 0
	subf 0,0,11
.LBE319:
.LBE321:
.LBE323:
	.loc 4 74 0
	srawi. 0,0,2
	blelr- 0
.LVL31:
	lhz 10,8(9)
.LBB324:
.LBB325:
	.loc 5 80 0
	lwz 11,40(9)
.LBE325:
.LBE324:
	.loc 4 74 0
	add 9,0,10
.LVL32:
	addi 9,9,-1
	divw 10,9,0
	mullw 0,10,0
	subf 0,0,9
.LVL33:
.LBB329:
.LBB326:
	.loc 5 80 0
	rlwinm 9,0,29,3,29
.LBE326:
.LBE329:
.LBB330:
.LBB331:
	.loc 5 692 0
	rlwinm 0,0,0,27,31
.LVL34:
.LBE331:
.LBE330:
.LBB335:
.LBB327:
	.loc 5 80 0
	lwzx 9,11,9
.LBE327:
.LBE335:
.LBB336:
.LBB334:
.LBB332:
.LBB333:
	.loc 5 200 0
	li 11,1
	slw 0,11,0
.LVL35:
.LBE333:
.LBE332:
.LBE334:
.LBE336:
.LBB337:
.LBB328:
	.loc 5 80 0
	and. 11,0,9
	mfcr 3
	rlwinm 3,3,3,1
	xori 3,3,1
.LBE328:
.LBE337:
.LBE338:
.LBE339:
	.loc 1 67 0
	blr
	.cfi_endproc
.LFE1407:
	.size	_ZN12SoundDecoder17IsLastBufferReadyEv, .-_ZN12SoundDecoder17IsLastBufferReadyEv
	.section	.text._ZN12SoundDecoder5IsEOFEv,"axG",@progbits,_ZN12SoundDecoder5IsEOFEv,comdat
	.align 2
	.weak	_ZN12SoundDecoder5IsEOFEv
	.type	_ZN12SoundDecoder5IsEOFEv, @function
_ZN12SoundDecoder5IsEOFEv:
.LFB1408:
	.loc 1 68 0
	.cfi_startproc
.LVL36:
	.loc 1 68 0
	lbz 3,73(3)
.LVL37:
	blr
	.cfi_endproc
.LFE1408:
	.size	_ZN12SoundDecoder5IsEOFEv, .-_ZN12SoundDecoder5IsEOFEv
	.section	.text._ZN12SoundDecoder7SetLoopEb,"axG",@progbits,_ZN12SoundDecoder7SetLoopEb,comdat
	.align 2
	.weak	_ZN12SoundDecoder7SetLoopEb
	.type	_ZN12SoundDecoder7SetLoopEb, @function
_ZN12SoundDecoder7SetLoopEb:
.LFB1409:
	.loc 1 69 0
	.cfi_startproc
.LVL38:
	.loc 1 69 0
	stb 4,72(3)
	blr
	.cfi_endproc
.LFE1409:
	.size	_ZN12SoundDecoder7SetLoopEb, .-_ZN12SoundDecoder7SetLoopEb
	.section	.text._ZN12SoundDecoder12GetSoundTypeEv,"axG",@progbits,_ZN12SoundDecoder12GetSoundTypeEv,comdat
	.align 2
	.weak	_ZN12SoundDecoder12GetSoundTypeEv
	.type	_ZN12SoundDecoder12GetSoundTypeEv, @function
_ZN12SoundDecoder12GetSoundTypeEv:
.LFB1410:
	.loc 1 70 0
	.cfi_startproc
.LVL39:
	.loc 1 70 0
	lbz 3,60(3)
.LVL40:
	blr
	.cfi_endproc
.LFE1410:
	.size	_ZN12SoundDecoder12GetSoundTypeEv, .-_ZN12SoundDecoder12GetSoundTypeEv
	.section	".text"
	.align 2
	.globl ogg_tell
	.type	ogg_tell, @function
ogg_tell:
.LFB1417:
	.loc 2 47 0
	.cfi_startproc
.LVL41:
	.loc 2 49 0
	lwz 3,16(3)
.LVL42:
	blr
	.cfi_endproc
.LFE1417:
	.size	ogg_tell, .-ogg_tell
	.align 2
	.globl _ZN10OggDecoder9GetFormatEv
	.type	_ZN10OggDecoder9GetFormatEv, @function
_ZN10OggDecoder9GetFormatEv:
.LFB1429:
	.loc 2 104 0
	.cfi_startproc
.LVL43:
	.loc 2 105 0
	lwz 9,4(3)
	.loc 2 106 0
	li 0,3
	.loc 2 105 0
	cmpwi 7,9,0
	beq- 7,.L23
	.loc 2 108 0
	lwz 9,240(3)
	li 0,1
	lwz 9,4(9)
	cmpwi 7,9,2
	beq- 7,.L26
.L23:
	.loc 2 109 0
	mr 3,0
.LVL44:
	blr
.LVL45:
.L26:
	.loc 2 108 0
	li 0,3
	.loc 2 109 0
	mr 3,0
.LVL46:
	blr
	.cfi_endproc
.LFE1429:
	.size	_ZN10OggDecoder9GetFormatEv, .-_ZN10OggDecoder9GetFormatEv
	.align 2
	.globl _ZN10OggDecoder13GetSampleRateEv
	.type	_ZN10OggDecoder13GetSampleRateEv, @function
_ZN10OggDecoder13GetSampleRateEv:
.LFB1430:
	.loc 2 112 0
	.cfi_startproc
.LVL47:
	.loc 2 113 0
	lwz 9,4(3)
	.loc 2 114 0
	li 0,0
	.loc 2 113 0
	cmpwi 7,9,0
	beq- 7,.L28
	.loc 2 116 0
	lwz 9,240(3)
	lwz 0,8(9)
.L28:
	.loc 2 117 0
	mr 3,0
.LVL48:
	blr
	.cfi_endproc
.LFE1430:
	.size	_ZN10OggDecoder13GetSampleRateEv, .-_ZN10OggDecoder13GetSampleRateEv
	.align 2
	.globl _ZN10OggDecoder4ReadEPhii
	.type	_ZN10OggDecoder4ReadEPhii, @function
_ZN10OggDecoder4ReadEPhii:
.LFB1432:
	.loc 2 132 0
	.cfi_startproc
.LVL49:
	mflr 0
	stwu 1,-32(1)
.LCFI0:
	.cfi_def_cfa_offset 32
	.cfi_register 65, 0
	stw 31,28(1)
	mr 31,3
	.cfi_offset 31, -4
	stw 0,36(1)
.LBB340:
	.loc 2 133 0
	lwz 0,4(3)
	.cfi_offset 65, 4
	.loc 2 134 0
	li 3,-1
.LVL50:
	.loc 2 133 0
	cmpwi 7,0,0
	beq- 7,.L31
	.loc 2 136 0
	mr 6,1
.LVL51:
	li 0,0
	stwu 0,8(6)
.LVL52:
	.loc 2 138 0
	addi 3,31,80
	bl ov_read
.LVL53:
	.loc 2 140 0
	cmpwi 0,3,0
	ble- 0,.L31
	.loc 2 141 0
	lwz 0,68(31)
	add 0,0,3
	stw 0,68(31)
.LVL54:
.L31:
.LBE340:
	.loc 2 144 0
	lwz 0,36(1)
	lwz 31,28(1)
.LVL55:
	mtlr 0
	addi 1,1,32
.LCFI1:
	.cfi_def_cfa_offset 0
	.cfi_restore 31
	blr
	.cfi_endproc
.LFE1432:
	.size	_ZN10OggDecoder4ReadEPhii, .-_ZN10OggDecoder4ReadEPhii
	.align 2
	.globl _ZN10OggDecoder6RewindEv
	.type	_ZN10OggDecoder6RewindEv, @function
_ZN10OggDecoder6RewindEv:
.LFB1431:
	.loc 2 120 0
	.cfi_startproc
.LVL56:
	mflr 0
	stwu 1,-16(1)
.LCFI2:
	.cfi_def_cfa_offset 16
	.cfi_register 65, 0
	stw 31,12(1)
	mr 31,3
	.cfi_offset 31, -4
	stw 0,20(1)
.LBB341:
	.loc 2 121 0
	lwz 0,4(3)
	.cfi_offset 65, 4
	.loc 2 122 0
	li 3,-1
.LVL57:
	.loc 2 121 0
	cmpwi 7,0,0
	beq- 7,.L34
	.loc 2 124 0
	addi 3,31,80
	li 5,0
	li 6,0
	bl ov_time_seek
.LVL58:
	.loc 2 125 0
	li 0,0
	stw 0,68(31)
	.loc 2 126 0
	stb 0,73(31)
.LVL59:
.L34:
.LBE341:
	.loc 2 129 0
	lwz 0,20(1)
	lwz 31,12(1)
.LVL60:
	mtlr 0
	addi 1,1,16
.LCFI3:
	.cfi_def_cfa_offset 0
	.cfi_restore 31
	blr
	.cfi_endproc
.LFE1431:
	.size	_ZN10OggDecoder6RewindEv, .-_ZN10OggDecoder6RewindEv
	.align 2
	.globl _ZN10OggDecoderD2Ev
	.type	_ZN10OggDecoderD2Ev, @function
_ZN10OggDecoderD2Ev:
.LFB1425:
	.loc 2 80 0
	.cfi_startproc
	.cfi_personality 0,__gxx_personality_v0
	.cfi_lsda 0,.LLSDA1425
.LVL61:
	mflr 0
	stwu 1,-16(1)
.LCFI4:
	.cfi_def_cfa_offset 16
	.cfi_register 65, 0
.LBB343:
	lis 9,_ZTV10OggDecoder+8@ha
.LBE343:
	stw 31,12(1)
	mr 31,3
	.cfi_offset 31, -4
	stw 0,20(1)
.LBB344:
	la 0,_ZTV10OggDecoder+8@l(9)
	.cfi_offset 65, 4
.LBE344:
	stw 30,8(1)
.LBB345:
	.loc 2 80 0
	stw 0,0(3)
	.loc 2 82 0
	li 0,1
	stb 0,75(3)
	.loc 2 83 0
	b .L37
	.cfi_offset 30, -8
.LVL62:
.L38:
	.loc 2 84 0
	li 3,100
.LEHB0:
	bl usleep
.L37:
	.loc 2 83 0 discriminator 1
	lbz 0,74(31)
	cmpwi 7,0,0
	bne+ 7,.L38
	.loc 2 86 0
	lwz 0,4(31)
	cmpwi 7,0,0
	beq- 7,.L39
	.loc 2 87 0
	addi 3,31,80
	bl ov_clear
.LEHE0:
.L39:
	.loc 2 80 0
	mr 3,31
.LEHB1:
	bl _ZN12SoundDecoderD2Ev
.LEHE1:
.LBE345:
	.loc 2 88 0
	lwz 0,20(1)
	lwz 30,8(1)
	mtlr 0
	lwz 31,12(1)
.LVL63:
	addi 1,1,16
	.cfi_remember_state
.LCFI5:
	.cfi_def_cfa_offset 0
	.cfi_restore 31
	.cfi_restore 30
	blr
.LVL64:
.L42:
.LCFI6:
	.cfi_restore_state
	mr 30,3
.LBB346:
	.loc 2 80 0
	mr 3,31
	bl _ZN12SoundDecoderD2Ev
	mr 3,30
.LEHB2:
	bl _Unwind_Resume
.LEHE2:
.LBE346:
	.cfi_endproc
.LFE1425:
	.globl __gxx_personality_v0
	.section	.gcc_except_table,"a",@progbits
.LLSDA1425:
	.byte	0xff
	.byte	0xff
	.byte	0x1
	.uleb128 .LLSDACSE1425-.LLSDACSB1425
.LLSDACSB1425:
	.uleb128 .LEHB0-.LFB1425
	.uleb128 .LEHE0-.LEHB0
	.uleb128 .L42-.LFB1425
	.uleb128 0
	.uleb128 .LEHB1-.LFB1425
	.uleb128 .LEHE1-.LEHB1
	.uleb128 0
	.uleb128 0
	.uleb128 .LEHB2-.LFB1425
	.uleb128 .LEHE2-.LEHB2
	.uleb128 0
	.uleb128 0
.LLSDACSE1425:
	.section	".text"
	.size	_ZN10OggDecoderD2Ev, .-_ZN10OggDecoderD2Ev
	.align 2
	.globl ogg_close
	.type	ogg_close, @function
ogg_close:
.LFB1416:
	.loc 2 41 0
	.cfi_startproc
.LVL65:
	mflr 0
	stwu 1,-8(1)
.LCFI7:
	.cfi_def_cfa_offset 8
	.cfi_register 65, 0
	stw 0,12(1)
	.loc 2 42 0
	.cfi_offset 65, 4
	bl _ZN5CFile5closeEv
.LVL66:
	.loc 2 44 0
	lwz 0,12(1)
	li 3,0
	addi 1,1,8
.LCFI8:
	.cfi_def_cfa_offset 0
	mtlr 0
	blr
	.cfi_endproc
.LFE1416:
	.size	ogg_close, .-ogg_close
	.align 2
	.globl ogg_seek
	.type	ogg_seek, @function
ogg_seek:
.LFB1415:
	.loc 2 36 0
	.cfi_startproc
.LVL67:
	mflr 0
	stwu 1,-8(1)
.LCFI9:
	.cfi_def_cfa_offset 8
	.cfi_register 65, 0
	.loc 2 37 0
	mr 4,6
	mr 5,7
.LVL68:
	.loc 2 36 0
	stw 0,12(1)
	.loc 2 37 0
	.cfi_offset 65, 4
	bl _ZN5CFile4seekEli
.LVL69:
	.loc 2 38 0
	lwz 0,12(1)
	addi 1,1,8
.LCFI10:
	.cfi_def_cfa_offset 0
	mtlr 0
	blr
	.cfi_endproc
.LFE1415:
	.size	ogg_seek, .-ogg_seek
	.section	.text._ZN12SoundDecoder4SeekEi,"axG",@progbits,_ZN12SoundDecoder4SeekEi,comdat
	.align 2
	.weak	_ZN12SoundDecoder4SeekEi
	.type	_ZN12SoundDecoder4SeekEi, @function
_ZN12SoundDecoder4SeekEi:
.LFB1397:
	.loc 1 55 0
	.cfi_startproc
.LVL70:
	mflr 0
	stwu 1,-8(1)
.LCFI11:
	.cfi_def_cfa_offset 8
	.cfi_register 65, 0
	li 5,0
	stw 0,12(1)
	.loc 1 55 0
	stw 4,68(3)
	lwz 3,4(3)
.LVL71:
	.cfi_offset 65, 4
	bl _ZN5CFile4seekEli
.LVL72:
	lwz 0,12(1)
	addi 1,1,8
.LCFI12:
	.cfi_def_cfa_offset 0
	mtlr 0
	blr
	.cfi_endproc
.LFE1397:
	.size	_ZN12SoundDecoder4SeekEi, .-_ZN12SoundDecoder4SeekEi
	.section	".text"
	.align 2
	.globl ogg_read
	.type	ogg_read, @function
ogg_read:
.LFB1414:
	.loc 2 31 0
	.cfi_startproc
.LVL73:
	.loc 2 32 0
	mullw 5,4,5
.LVL74:
	.loc 2 31 0
	mflr 0
	stwu 1,-8(1)
.LCFI13:
	.cfi_def_cfa_offset 8
	.cfi_register 65, 0
	mr 4,3
.LVL75:
	.loc 2 32 0
	mr 3,6
.LVL76:
	.loc 2 31 0
	stw 0,12(1)
	.loc 2 32 0
	.cfi_offset 65, 4
	bl _ZN5CFile4readEPhj
.LVL77:
	.loc 2 33 0
	lwz 0,12(1)
	addi 1,1,8
.LCFI14:
	.cfi_def_cfa_offset 0
	mtlr 0
	blr
	.cfi_endproc
.LFE1414:
	.size	ogg_read, .-ogg_read
	.section	.text._ZN12SoundDecoder11ClearBufferEv,"axG",@progbits,_ZN12SoundDecoder11ClearBufferEv,comdat
	.align 2
	.weak	_ZN12SoundDecoder11ClearBufferEv
	.type	_ZN12SoundDecoder11ClearBufferEv, @function
_ZN12SoundDecoder11ClearBufferEv:
.LFB1411:
	.loc 1 71 0
	.cfi_startproc
.LVL78:
	mflr 0
	stwu 1,-8(1)
.LCFI15:
	.cfi_def_cfa_offset 8
	.cfi_register 65, 0
	addi 3,3,8
.LVL79:
	stw 0,12(1)
	.loc 1 71 0
	.cfi_offset 65, 4
	bl _ZN12BufferCircle11ClearBufferEv
.LVL80:
	lwz 0,12(1)
	addi 1,1,8
.LCFI16:
	.cfi_def_cfa_offset 0
	mtlr 0
	blr
	.cfi_endproc
.LFE1411:
	.size	_ZN12SoundDecoder11ClearBufferEv, .-_ZN12SoundDecoder11ClearBufferEv
	.section	.text._ZN12SoundDecoder8LoadNextEv,"axG",@progbits,_ZN12SoundDecoder8LoadNextEv,comdat
	.align 2
	.weak	_ZN12SoundDecoder8LoadNextEv
	.type	_ZN12SoundDecoder8LoadNextEv, @function
_ZN12SoundDecoder8LoadNextEv:
.LFB1404:
	.loc 1 64 0
	.cfi_startproc
.LVL81:
	mflr 0
	stwu 1,-8(1)
.LCFI17:
	.cfi_def_cfa_offset 8
	.cfi_register 65, 0
	addi 3,3,8
.LVL82:
	stw 0,12(1)
	.loc 1 64 0
	.cfi_offset 65, 4
	bl _ZN12BufferCircle8LoadNextEv
.LVL83:
	lwz 0,12(1)
	addi 1,1,8
.LCFI18:
	.cfi_def_cfa_offset 0
	mtlr 0
	blr
	.cfi_endproc
.LFE1404:
	.size	_ZN12SoundDecoder8LoadNextEv, .-_ZN12SoundDecoder8LoadNextEv
	.section	.text._ZN12SoundDecoder8IsStereoEv,"axG",@progbits,_ZN12SoundDecoder8IsStereoEv,comdat
	.align 2
	.weak	_ZN12SoundDecoder8IsStereoEv
	.type	_ZN12SoundDecoder8IsStereoEv, @function
_ZN12SoundDecoder8IsStereoEv:
.LFB1412:
	.loc 1 72 0
	.cfi_startproc
.LVL84:
	mflr 0
	stwu 1,-16(1)
.LCFI19:
	.cfi_def_cfa_offset 16
	.cfi_register 65, 0
	stw 31,12(1)
	mr 31,3
	.cfi_offset 31, -4
	stw 0,20(1)
	.loc 1 72 0
	lwz 9,0(3)
	lwz 0,24(9)
	.cfi_offset 65, 4
	mtctr 0
	bctrl
.LVL85:
	cmpwi 7,3,3
	li 3,1
	beq- 7,.L50
.LVL86:
.LBB349:
.LBB350:
	lwz 9,0(31)
	mr 3,31
	lwz 0,24(9)
	mtctr 0
	bctrl
	xori 3,3,2
	cntlzw 3,3
	srwi 3,3,5
.LVL87:
.L50:
.LBE350:
.LBE349:
	.loc 1 72 0 is_stmt 0 discriminator 4
	lwz 0,20(1)
	lwz 31,12(1)
.LVL88:
	mtlr 0
	addi 1,1,16
.LCFI20:
	.cfi_def_cfa_offset 0
	.cfi_restore 31
	blr
	.cfi_endproc
.LFE1412:
	.size	_ZN12SoundDecoder8IsStereoEv, .-_ZN12SoundDecoder8IsStereoEv
	.section	.text._ZN12SoundDecoder7Is16BitEv,"axG",@progbits,_ZN12SoundDecoder7Is16BitEv,comdat
	.align 2
	.weak	_ZN12SoundDecoder7Is16BitEv
	.type	_ZN12SoundDecoder7Is16BitEv, @function
_ZN12SoundDecoder7Is16BitEv:
.LFB1413:
	.loc 1 73 0 is_stmt 1
	.cfi_startproc
.LVL89:
	mflr 0
	stwu 1,-16(1)
.LCFI21:
	.cfi_def_cfa_offset 16
	.cfi_register 65, 0
	stw 31,12(1)
	mr 31,3
	.cfi_offset 31, -4
	stw 0,20(1)
	.loc 1 73 0
	lwz 9,0(3)
	lwz 0,24(9)
	.cfi_offset 65, 4
	mtctr 0
	bctrl
.LVL90:
	cmpwi 7,3,3
	li 3,1
	beq- 7,.L53
.LVL91:
.LBB353:
.LBB354:
	lwz 9,0(31)
	mr 3,31
	lwz 0,24(9)
	mtctr 0
	bctrl
	xori 3,3,1
	cntlzw 3,3
	srwi 3,3,5
.LVL92:
.L53:
.LBE354:
.LBE353:
	.loc 1 73 0 is_stmt 0 discriminator 4
	lwz 0,20(1)
	lwz 31,12(1)
.LVL93:
	mtlr 0
	addi 1,1,16
.LCFI22:
	.cfi_def_cfa_offset 0
	.cfi_restore 31
	blr
	.cfi_endproc
.LFE1413:
	.size	_ZN12SoundDecoder7Is16BitEv, .-_ZN12SoundDecoder7Is16BitEv
	.section	.text._ZN12SoundDecoder13GetBufferSizeEv,"axG",@progbits,_ZN12SoundDecoder13GetBufferSizeEv,comdat
	.align 2
	.weak	_ZN12SoundDecoder13GetBufferSizeEv
	.type	_ZN12SoundDecoder13GetBufferSizeEv, @function
_ZN12SoundDecoder13GetBufferSizeEv:
.LFB1400:
	.loc 1 60 0 is_stmt 1
	.cfi_startproc
.LVL94:
.LBB375:
.LBB376:
.LBB377:
.LBB378:
.LBB379:
.LBB380:
.LBB381:
	.loc 3 571 0
	lwz 10,20(3)
.LBE381:
.LBE380:
.LBE379:
.LBE378:
.LBE377:
.LBE376:
.LBE375:
	.loc 1 60 0
	mr 9,3
.LVL95:
.LBB393:
.LBB392:
.LBB390:
.LBB388:
.LBB386:
.LBB384:
.LBB382:
	.loc 3 571 0
	lwz 11,16(3)
.LBE382:
.LBE384:
.LBE386:
.LBE388:
.LBE390:
	.loc 4 62 0
	lhz 0,8(3)
.LVL96:
.LBB391:
.LBB389:
	li 3,0
.LVL97:
.LBB387:
.LBB385:
.LBB383:
	.loc 3 571 0
	subf 11,11,10
	srawi 11,11,2
.LBE383:
.LBE385:
.LBE387:
	.loc 4 83 0
	cmpw 7,0,11
	bgelr- 7
.LVL98:
.LBE389:
.LBE391:
.LBE392:
.LBE393:
.LBB394:
.LBB395:
.LBB396:
	.loc 4 62 0
	lwz 9,28(9)
.LVL99:
	slwi 0,0,2
.LVL100:
	lwzx 3,9,0
.LBE396:
.LBE395:
.LBE394:
	.loc 1 60 0
	blr
	.cfi_endproc
.LFE1400:
	.size	_ZN12SoundDecoder13GetBufferSizeEv, .-_ZN12SoundDecoder13GetBufferSizeEv
	.section	.text._ZN12SoundDecoder13IsBufferReadyEv,"axG",@progbits,_ZN12SoundDecoder13IsBufferReadyEv,comdat
	.align 2
	.weak	_ZN12SoundDecoder13IsBufferReadyEv
	.type	_ZN12SoundDecoder13IsBufferReadyEv, @function
_ZN12SoundDecoder13IsBufferReadyEv:
.LFB1405:
	.loc 1 65 0
	.cfi_startproc
.LVL101:
.LBB421:
.LBB422:
.LBB423:
.LBB424:
.LBB425:
.LBB426:
.LBB427:
	.loc 3 571 0
	lwz 10,20(3)
.LBE427:
.LBE426:
.LBE425:
.LBE424:
.LBE423:
.LBE422:
.LBE421:
	.loc 1 65 0
	mr 9,3
.LVL102:
.LBB439:
.LBB438:
.LBB436:
.LBB434:
.LBB432:
.LBB430:
.LBB428:
	.loc 3 571 0
	lwz 11,16(3)
.LBE428:
.LBE430:
.LBE432:
.LBE434:
.LBE436:
	.loc 4 68 0
	lhz 0,8(3)
.LVL103:
.LBB437:
.LBB435:
	li 3,0
.LVL104:
.LBB433:
.LBB431:
.LBB429:
	.loc 3 571 0
	subf 11,11,10
	srawi 11,11,2
.LBE429:
.LBE431:
.LBE433:
	.loc 4 83 0
	cmpw 7,0,11
	bgelr- 7
.LVL105:
.LBE435:
.LBE437:
.LBE438:
.LBE439:
.LBB440:
.LBB441:
.LBB442:
.LBB443:
.LBB444:
	.loc 5 80 0
	lwz 11,40(9)
	rlwinm 9,0,29,19,29
.LVL106:
.LBE444:
.LBE443:
.LBB447:
.LBB448:
	.loc 5 692 0
	rlwinm 0,0,0,27,31
.LVL107:
.LBE448:
.LBE447:
.LBB452:
.LBB445:
	.loc 5 80 0
	lwzx 9,11,9
.LBE445:
.LBE452:
.LBB453:
.LBB451:
.LBB449:
.LBB450:
	.loc 5 200 0
	li 11,1
	slw 0,11,0
.LVL108:
.LBE450:
.LBE449:
.LBE451:
.LBE453:
.LBB454:
.LBB446:
	.loc 5 80 0
	and. 11,0,9
	mfcr 3
	rlwinm 3,3,3,1
	xori 3,3,1
.LBE446:
.LBE454:
.LBE442:
.LBE441:
.LBE440:
	.loc 1 65 0
	blr
	.cfi_endproc
.LFE1405:
	.size	_ZN12SoundDecoder13IsBufferReadyEv, .-_ZN12SoundDecoder13IsBufferReadyEv
	.section	".text"
	.align 2
	.globl _ZN10OggDecoderD0Ev
	.type	_ZN10OggDecoderD0Ev, @function
_ZN10OggDecoderD0Ev:
.LFB1427:
	.loc 2 80 0
	.cfi_startproc
	.cfi_personality 0,__gxx_personality_v0
	.cfi_lsda 0,.LLSDA1427
.LVL109:
	mflr 0
	stwu 1,-16(1)
.LCFI23:
	.cfi_def_cfa_offset 16
	.cfi_register 65, 0
.LBB458:
.LBB459:
.LBB460:
	lis 9,_ZTV10OggDecoder+8@ha
.LBE460:
.LBE459:
.LBE458:
	stw 31,12(1)
	mr 31,3
	.cfi_offset 31, -4
.LVL110:
	stw 0,20(1)
.LBB467:
.LBB464:
.LBB461:
	la 0,_ZTV10OggDecoder+8@l(9)
	.cfi_offset 65, 4
.LBE461:
.LBE464:
.LBE467:
	stw 30,8(1)
.LBB468:
.LBB465:
.LBB462:
	.loc 2 80 0
	stw 0,0(3)
	.loc 2 82 0
	li 0,1
	stb 0,75(3)
	b .L62
	.cfi_offset 30, -8
.LVL111:
.L63:
	.loc 2 84 0
	li 3,100
.LEHB3:
	bl usleep
.L62:
	.loc 2 83 0
	lbz 0,74(31)
	cmpwi 7,0,0
	bne+ 7,.L63
	.loc 2 86 0
	lwz 0,4(31)
	cmpwi 7,0,0
	beq- 7,.L64
	.loc 2 87 0
	addi 3,31,80
	bl ov_clear
.LEHE3:
.L64:
	.loc 2 80 0
	mr 3,31
.LEHB4:
	bl _ZN12SoundDecoderD2Ev
.LEHE4:
.LBE462:
.LBE465:
.LBE468:
	.loc 2 88 0
	mr 3,31
	bl _ZdlPv
	lwz 0,20(1)
	lwz 30,8(1)
	mtlr 0
	lwz 31,12(1)
.LVL112:
	addi 1,1,16
	.cfi_remember_state
.LCFI24:
	.cfi_def_cfa_offset 0
	.cfi_restore 31
	.cfi_restore 30
	blr
.LVL113:
.L68:
.LCFI25:
	.cfi_restore_state
	mr 30,3
.LBB469:
.LBB466:
.LBB463:
	.loc 2 80 0
	mr 3,31
	bl _ZN12SoundDecoderD2Ev
	mr 3,30
.LEHB5:
	bl _Unwind_Resume
.LEHE5:
.LBE463:
.LBE466:
.LBE469:
	.cfi_endproc
.LFE1427:
	.section	.gcc_except_table
.LLSDA1427:
	.byte	0xff
	.byte	0xff
	.byte	0x1
	.uleb128 .LLSDACSE1427-.LLSDACSB1427
.LLSDACSB1427:
	.uleb128 .LEHB3-.LFB1427
	.uleb128 .LEHE3-.LEHB3
	.uleb128 .L68-.LFB1427
	.uleb128 0
	.uleb128 .LEHB4-.LFB1427
	.uleb128 .LEHE4-.LEHB4
	.uleb128 0
	.uleb128 0
	.uleb128 .LEHB5-.LFB1427
	.uleb128 .LEHE5-.LEHB5
	.uleb128 0
	.uleb128 0
.LLSDACSE1427:
	.section	".text"
	.size	_ZN10OggDecoderD0Ev, .-_ZN10OggDecoderD0Ev
	.align 2
	.globl _ZN10OggDecoderC2EPKc
	.type	_ZN10OggDecoderC2EPKc, @function
_ZN10OggDecoderC2EPKc:
.LFB1419:
	.loc 2 58 0
	.cfi_startproc
	.cfi_personality 0,__gxx_personality_v0
	.cfi_lsda 0,.LLSDA1419
.LVL114:
	stwu 1,-40(1)
.LCFI26:
	.cfi_def_cfa_offset 40
	mflr 0
	stw 31,36(1)
	mr 31,3
	.cfi_offset 31, -4
	.cfi_register 65, 0
	stw 0,44(1)
	stw 30,32(1)
.LEHB6:
.LBB475:
	.loc 2 59 0
	.cfi_offset 30, -8
	.cfi_offset 65, 4
	bl _ZN12SoundDecoderC2EPKc
.LEHE6:
.LVL115:
	.loc 2 63 0
	lwz 3,4(31)
	.loc 2 59 0
	lis 9,_ZTV10OggDecoder+8@ha
	la 0,_ZTV10OggDecoder+8@l(9)
	.loc 2 63 0
	cmpwi 7,3,0
	.loc 2 59 0
	stw 0,0(31)
	.loc 2 61 0
	li 0,2
	stb 0,60(31)
	.loc 2 63 0
	beq- 7,.L69
.LVL116:
.LBB476:
.LBB477:
	.loc 2 92 0
	lis 9,.LANCHOR0@ha
	addi 30,31,80
	la 8,.LANCHOR0@l(9)
	lwz 10,.LANCHOR0@l(9)
	lwz 11,4(8)
	mr 4,30
	lwz 9,8(8)
	li 5,0
	lwz 0,12(8)
	li 6,0
	addi 7,1,16
	stw 10,16(1)
	stw 11,20(1)
	stw 9,24(1)
	stw 0,28(1)
.LEHB7:
	bl ov_open_callbacks
	cmpwi 7,3,0
	blt- 7,.L75
	.loc 2 99 0
	mr 3,30
	li 4,-1
	bl ov_info
	stw 3,240(31)
	.loc 2 100 0
	mr 3,31
	lwz 9,0(31)
	lwz 0,32(9)
	mtctr 0
	bctrl
.LVL117:
.L69:
.LBE477:
.LBE476:
.LBE475:
	.loc 2 67 0
	lwz 0,44(1)
	lwz 30,32(1)
	mtlr 0
	lwz 31,36(1)
.LVL118:
	addi 1,1,40
	.cfi_remember_state
.LCFI27:
	.cfi_def_cfa_offset 0
	.cfi_restore 31
	.cfi_restore 30
	blr
.LVL119:
.L75:
.LCFI28:
	.cfi_restore_state
.LBB486:
.LBB484:
.LBB482:
.LBB478:
.LBB479:
	.loc 2 94 0
	lwz 30,4(31)
	cmpwi 7,30,0
	beq- 7,.L72
	mr 3,30
	bl _ZN5CFileD1Ev
.LEHE7:
	mr 3,30
	bl _ZdlPv
.L72:
	.loc 2 95 0
	li 0,0
.LBE479:
.LBE478:
.LBE482:
.LBE484:
.LBE486:
	.loc 2 67 0
	lwz 30,32(1)
.LBB487:
.LBB485:
.LBB483:
.LBB481:
.LBB480:
	.loc 2 95 0
	stw 0,4(31)
.LBE480:
.LBE481:
.LBE483:
.LBE485:
.LBE487:
	.loc 2 67 0
	lwz 0,44(1)
	lwz 31,36(1)
.LVL120:
	mtlr 0
	addi 1,1,40
	.cfi_remember_state
	.cfi_restore 30
	.cfi_restore 31
.LCFI29:
	.cfi_def_cfa_offset 0
	blr
.LVL121:
.L74:
.LCFI30:
	.cfi_restore_state
	mr 30,3
.LBB488:
	.loc 2 59 0
	mr 3,31
	bl _ZN12SoundDecoderD2Ev
	mr 3,30
.LEHB8:
	bl _Unwind_Resume
.LEHE8:
.LBE488:
	.cfi_endproc
.LFE1419:
	.section	.gcc_except_table
.LLSDA1419:
	.byte	0xff
	.byte	0xff
	.byte	0x1
	.uleb128 .LLSDACSE1419-.LLSDACSB1419
.LLSDACSB1419:
	.uleb128 .LEHB6-.LFB1419
	.uleb128 .LEHE6-.LEHB6
	.uleb128 0
	.uleb128 0
	.uleb128 .LEHB7-.LFB1419
	.uleb128 .LEHE7-.LEHB7
	.uleb128 .L74-.LFB1419
	.uleb128 0
	.uleb128 .LEHB8-.LFB1419
	.uleb128 .LEHE8-.LEHB8
	.uleb128 0
	.uleb128 0
.LLSDACSE1419:
	.section	".text"
	.size	_ZN10OggDecoderC2EPKc, .-_ZN10OggDecoderC2EPKc
	.align 2
	.globl _ZN10OggDecoderC2EPKhi
	.type	_ZN10OggDecoderC2EPKhi, @function
_ZN10OggDecoderC2EPKhi:
.LFB1422:
	.loc 2 69 0
	.cfi_startproc
	.cfi_personality 0,__gxx_personality_v0
	.cfi_lsda 0,.LLSDA1422
.LVL122:
	stwu 1,-40(1)
.LCFI31:
	.cfi_def_cfa_offset 40
	mflr 0
	stw 31,36(1)
	mr 31,3
	.cfi_offset 31, -4
	.cfi_register 65, 0
	stw 0,44(1)
	stw 30,32(1)
.LEHB9:
.LBB494:
	.loc 2 70 0
	.cfi_offset 30, -8
	.cfi_offset 65, 4
	bl _ZN12SoundDecoderC2EPKhi
.LEHE9:
.LVL123:
	.loc 2 74 0
	lwz 3,4(31)
	.loc 2 70 0
	lis 9,_ZTV10OggDecoder+8@ha
	la 0,_ZTV10OggDecoder+8@l(9)
	.loc 2 74 0
	cmpwi 7,3,0
	.loc 2 70 0
	stw 0,0(31)
	.loc 2 72 0
	li 0,2
	stb 0,60(31)
	.loc 2 74 0
	beq- 7,.L76
.LVL124:
.LBB495:
.LBB496:
	.loc 2 92 0
	lis 9,.LANCHOR0@ha
	addi 30,31,80
	la 8,.LANCHOR0@l(9)
	lwz 10,.LANCHOR0@l(9)
	lwz 11,4(8)
	mr 4,30
	lwz 9,8(8)
	li 5,0
	lwz 0,12(8)
	li 6,0
	addi 7,1,16
	stw 10,16(1)
	stw 11,20(1)
	stw 9,24(1)
	stw 0,28(1)
.LEHB10:
	bl ov_open_callbacks
	cmpwi 7,3,0
	blt- 7,.L82
	.loc 2 99 0
	mr 3,30
	li 4,-1
	bl ov_info
	stw 3,240(31)
	.loc 2 100 0
	mr 3,31
	lwz 9,0(31)
	lwz 0,32(9)
	mtctr 0
	bctrl
.LVL125:
.L76:
.LBE496:
.LBE495:
.LBE494:
	.loc 2 78 0
	lwz 0,44(1)
	lwz 30,32(1)
	mtlr 0
	lwz 31,36(1)
.LVL126:
	addi 1,1,40
	.cfi_remember_state
.LCFI32:
	.cfi_def_cfa_offset 0
	.cfi_restore 31
	.cfi_restore 30
	blr
.LVL127:
.L82:
.LCFI33:
	.cfi_restore_state
.LBB505:
.LBB503:
.LBB501:
.LBB497:
.LBB498:
	.loc 2 94 0
	lwz 30,4(31)
	cmpwi 7,30,0
	beq- 7,.L79
	mr 3,30
	bl _ZN5CFileD1Ev
.LEHE10:
	mr 3,30
	bl _ZdlPv
.L79:
	.loc 2 95 0
	li 0,0
.LBE498:
.LBE497:
.LBE501:
.LBE503:
.LBE505:
	.loc 2 78 0
	lwz 30,32(1)
.LBB506:
.LBB504:
.LBB502:
.LBB500:
.LBB499:
	.loc 2 95 0
	stw 0,4(31)
.LBE499:
.LBE500:
.LBE502:
.LBE504:
.LBE506:
	.loc 2 78 0
	lwz 0,44(1)
	lwz 31,36(1)
.LVL128:
	mtlr 0
	addi 1,1,40
	.cfi_remember_state
	.cfi_restore 30
	.cfi_restore 31
.LCFI34:
	.cfi_def_cfa_offset 0
	blr
.LVL129:
.L81:
.LCFI35:
	.cfi_restore_state
	mr 30,3
.LBB507:
	.loc 2 70 0
	mr 3,31
	bl _ZN12SoundDecoderD2Ev
	mr 3,30
.LEHB11:
	bl _Unwind_Resume
.LEHE11:
.LBE507:
	.cfi_endproc
.LFE1422:
	.section	.gcc_except_table
.LLSDA1422:
	.byte	0xff
	.byte	0xff
	.byte	0x1
	.uleb128 .LLSDACSE1422-.LLSDACSB1422
.LLSDACSB1422:
	.uleb128 .LEHB9-.LFB1422
	.uleb128 .LEHE9-.LEHB9
	.uleb128 0
	.uleb128 0
	.uleb128 .LEHB10-.LFB1422
	.uleb128 .LEHE10-.LEHB10
	.uleb128 .L81-.LFB1422
	.uleb128 0
	.uleb128 .LEHB11-.LFB1422
	.uleb128 .LEHE11-.LEHB11
	.uleb128 0
	.uleb128 0
.LLSDACSE1422:
	.section	".text"
	.size	_ZN10OggDecoderC2EPKhi, .-_ZN10OggDecoderC2EPKhi
	.align 2
	.globl _ZN10OggDecoder8OpenFileEv
	.type	_ZN10OggDecoder8OpenFileEv, @function
_ZN10OggDecoder8OpenFileEv:
.LFB1428:
	.loc 2 91 0
	.cfi_startproc
.LVL130:
	mflr 0
	stwu 1,-40(1)
.LCFI36:
	.cfi_def_cfa_offset 40
	.cfi_register 65, 0
	.loc 2 92 0
	lis 9,.LANCHOR0@ha
	li 5,0
	la 8,.LANCHOR0@l(9)
	lwz 10,.LANCHOR0@l(9)
	.loc 2 91 0
	stw 0,44(1)
	.loc 2 92 0
	li 6,0
	.loc 2 91 0
	stw 30,32(1)
	.loc 2 92 0
	addi 30,3,80
	.cfi_offset 30, -8
	.cfi_offset 65, 4
	.loc 2 91 0
	stw 31,36(1)
	.loc 2 91 0
	mr 31,3
	.cfi_offset 31, -4
	.loc 2 92 0
	lwz 11,4(8)
	mr 4,30
	lwz 3,4(3)
.LVL131:
	addi 7,1,16
	lwz 9,8(8)
	lwz 0,12(8)
	stw 10,16(1)
	stw 11,20(1)
	stw 9,24(1)
	stw 0,28(1)
	bl ov_open_callbacks
	cmpwi 7,3,0
	blt- 7,.L87
	.loc 2 99 0
	mr 3,30
	li 4,-1
	bl ov_info
	.loc 2 100 0
	lwz 9,0(31)
	.loc 2 99 0
	stw 3,240(31)
	.loc 2 100 0
	mr 3,31
	lwz 0,32(9)
	mtctr 0
	bctrl
	.loc 2 101 0
	lwz 0,44(1)
	lwz 30,32(1)
	mtlr 0
	lwz 31,36(1)
.LVL132:
	addi 1,1,40
	.cfi_remember_state
.LCFI37:
	.cfi_def_cfa_offset 0
	.cfi_restore 31
	.cfi_restore 30
	blr
.LVL133:
.L87:
.LCFI38:
	.cfi_restore_state
.LBB510:
.LBB511:
	.loc 2 94 0
	lwz 30,4(31)
	cmpwi 7,30,0
	beq- 7,.L85
	mr 3,30
	bl _ZN5CFileD1Ev
	mr 3,30
	bl _ZdlPv
.L85:
	.loc 2 95 0
	li 0,0
.LBE511:
.LBE510:
	.loc 2 101 0
	lwz 30,32(1)
.LBB513:
.LBB512:
	.loc 2 95 0
	stw 0,4(31)
.LBE512:
.LBE513:
	.loc 2 101 0
	lwz 0,44(1)
	lwz 31,36(1)
.LVL134:
	mtlr 0
	addi 1,1,40
	.cfi_restore 30
	.cfi_restore 31
.LCFI39:
	.cfi_def_cfa_offset 0
	blr
	.cfi_endproc
.LFE1428:
	.size	_ZN10OggDecoder8OpenFileEv, .-_ZN10OggDecoder8OpenFileEv
	.weak	_ZTS10OggDecoder
	.section	.rodata._ZTS10OggDecoder,"aG",@progbits,_ZTS10OggDecoder,comdat
	.align 2
	.type	_ZTS10OggDecoder, @object
	.size	_ZTS10OggDecoder, 13
_ZTS10OggDecoder:
	.string	"10OggDecoder"
	.weak	_ZTI10OggDecoder
	.section	.rodata._ZTI10OggDecoder,"aG",@progbits,_ZTI10OggDecoder,comdat
	.align 2
	.type	_ZTI10OggDecoder, @object
	.size	_ZTI10OggDecoder, 12
_ZTI10OggDecoder:
	.long	_ZTVN10__cxxabiv120__si_class_type_infoE+8
	.long	_ZTS10OggDecoder
	.long	_ZTI12SoundDecoder
	.weak	_ZTV10OggDecoder
	.section	.rodata._ZTV10OggDecoder,"aG",@progbits,_ZTV10OggDecoder,comdat
	.align 3
	.type	_ZTV10OggDecoder, @object
	.size	_ZTV10OggDecoder, 100
_ZTV10OggDecoder:
	.long	0
	.long	_ZTI10OggDecoder
	.long	_ZN10OggDecoderD1Ev
	.long	_ZN10OggDecoderD0Ev
	.long	_ZN10OggDecoder4ReadEPhii
	.long	_ZN12SoundDecoder4TellEv
	.long	_ZN12SoundDecoder4SeekEi
	.long	_ZN10OggDecoder6RewindEv
	.long	_ZN10OggDecoder9GetFormatEv
	.long	_ZN10OggDecoder13GetSampleRateEv
	.long	_ZN12SoundDecoder6DecodeEv
	.long	_ZN12SoundDecoder13GetBufferSizeEv
	.long	_ZN12SoundDecoder9GetBufferEv
	.long	_ZN12SoundDecoder13GetNextBufferEv
	.long	_ZN12SoundDecoder13GetLastBufferEv
	.long	_ZN12SoundDecoder8LoadNextEv
	.long	_ZN12SoundDecoder13IsBufferReadyEv
	.long	_ZN12SoundDecoder17IsNextBufferReadyEv
	.long	_ZN12SoundDecoder17IsLastBufferReadyEv
	.long	_ZN12SoundDecoder5IsEOFEv
	.long	_ZN12SoundDecoder7SetLoopEb
	.long	_ZN12SoundDecoder12GetSoundTypeEv
	.long	_ZN12SoundDecoder11ClearBufferEv
	.long	_ZN12SoundDecoder8IsStereoEv
	.long	_ZN12SoundDecoder7Is16BitEv
	.globl _ZN10OggDecoderD1Ev
	.set	_ZN10OggDecoderD1Ev,_ZN10OggDecoderD2Ev
	.globl _ZN10OggDecoderC1EPKc
	.set	_ZN10OggDecoderC1EPKc,_ZN10OggDecoderC2EPKc
	.globl _ZN10OggDecoderC1EPKhi
	.set	_ZN10OggDecoderC1EPKhi,_ZN10OggDecoderC2EPKhi
	.section	.rodata
	.align 2
	.set	.LANCHOR0,. + 0
	.type	_ZL9callbacks, @object
	.size	_ZL9callbacks, 16
_ZL9callbacks:
	.long	ogg_read
	.long	ogg_seek
	.long	ogg_close
	.long	ogg_tell
	.section	".text"
.Letext0:
	.file 6 "d:\\devkitpro\\devkitppc\\bin\\../lib/gcc/powerpc-eabi/4.6.3/../../../../powerpc-eabi/include/machine/_types.h"
	.file 7 "d:\\devkitpro\\devkitppc\\bin\\../lib/gcc/powerpc-eabi/4.6.3/../../../../powerpc-eabi/include/sys/lock.h"
	.file 8 "d:\\devkitpro\\devkitppc\\bin\\../lib/gcc/powerpc-eabi/4.6.3/include/stddef.h"
	.file 9 "d:\\devkitpro\\devkitppc\\bin\\../lib/gcc/powerpc-eabi/4.6.3/../../../../powerpc-eabi/include/sys/_types.h"
	.file 10 "d:\\devkitpro\\devkitppc\\bin\\../lib/gcc/powerpc-eabi/4.6.3/../../../../powerpc-eabi/include/sys/reent.h"
	.file 11 "d:/devkitPro/libogc/include/tremor/config_types.h"
	.file 12 "d:/devkitPro/libogc/include/tremor/ogg.h"
	.file 13 "d:/devkitPro/libogc/include/tremor/ivorbiscodec.h"
	.file 14 "<built-in>"
	.file 15 "d:\\devkitpro\\devkitppc\\bin\\../lib/gcc/powerpc-eabi/4.6.3/../../../../powerpc-eabi/include/stdio.h"
	.file 16 "d:/devkitPro/libogc/include/tremor/ivorbisfile.h"
	.file 17 "d:\\devkitpro\\devkitppc\\bin\\../lib/gcc/powerpc-eabi/4.6.3/../../../../powerpc-eabi/include/stdint.h"
	.file 18 "d:/devkitPro/libogc/include/gctypes.h"
	.file 19 "d:/Projects/SaveGameManager/savegame-manager-gx/trunk/source/SoundOperations/../FileOperations/File.hpp"
	.file 20 "d:\\devkitpro\\devkitppc\\bin\\../lib/gcc/powerpc-eabi/4.6.3/../../../../powerpc-eabi/include/c++/4.6.3/powerpc-eabi/bits/c++config.h"
	.file 21 "d:\\devkitpro\\devkitppc\\bin\\../lib/gcc/powerpc-eabi/4.6.3/../../../../powerpc-eabi/include/c++/4.6.3/cwchar"
	.file 22 "d:\\devkitpro\\devkitppc\\bin\\../lib/gcc/powerpc-eabi/4.6.3/../../../../powerpc-eabi/include/c++/4.6.3/clocale"
	.file 23 "d:\\devkitpro\\devkitppc\\bin\\../lib/gcc/powerpc-eabi/4.6.3/../../../../powerpc-eabi/include/c++/4.6.3/debug/debug.h"
	.file 24 "d:\\devkitpro\\devkitppc\\bin\\../lib/gcc/powerpc-eabi/4.6.3/../../../../powerpc-eabi/include/c++/4.6.3/bits/stl_list.h"
	.file 25 "d:\\devkitpro\\devkitppc\\bin\\../lib/gcc/powerpc-eabi/4.6.3/../../../../powerpc-eabi/include/c++/4.6.3/bits/cpp_type_traits.h"
	.file 26 "d:\\devkitpro\\devkitppc\\bin\\../lib/gcc/powerpc-eabi/4.6.3/../../../../powerpc-eabi/include/c++/4.6.3/ext/new_allocator.h"
	.file 27 "d:\\devkitpro\\devkitppc\\bin\\../lib/gcc/powerpc-eabi/4.6.3/../../../../powerpc-eabi/include/c++/4.6.3/bits/stl_iterator_base_types.h"
	.file 28 "d:\\devkitpro\\devkitppc\\bin\\../lib/gcc/powerpc-eabi/4.6.3/../../../../powerpc-eabi/include/c++/4.6.3/bits/stl_iterator.h"
	.file 29 "d:\\devkitpro\\devkitppc\\bin\\../lib/gcc/powerpc-eabi/4.6.3/../../../../powerpc-eabi/include/c++/4.6.3/ext/numeric_traits.h"
	.file 30 "d:\\devkitpro\\devkitppc\\bin\\../lib/gcc/powerpc-eabi/4.6.3/../../../../powerpc-eabi/include/c++/4.6.3/bits/allocator.h"
	.file 31 "d:\\devkitpro\\devkitppc\\bin\\../lib/gcc/powerpc-eabi/4.6.3/../../../../powerpc-eabi/include/c++/4.6.3/bits/vector.tcc"
	.file 32 "d:\\devkitpro\\devkitppc\\bin\\../lib/gcc/powerpc-eabi/4.6.3/../../../../powerpc-eabi/include/time.h"
	.file 33 "d:/devkitPro/libogc/include/ogc/gx.h"
	.file 34 "d:\\devkitpro\\devkitppc\\bin\\../lib/gcc/powerpc-eabi/4.6.3/../../../../powerpc-eabi/include/wchar.h"
	.file 35 "d:\\devkitpro\\devkitppc\\bin\\../lib/gcc/powerpc-eabi/4.6.3/../../../../powerpc-eabi/include/locale.h"
	.file 36 "d:/Projects/SaveGameManager/savegame-manager-gx/trunk/source/SoundOperations/OggDecoder.hpp"
	.file 37 "d:/Projects/SaveGameManager/savegame-manager-gx/trunk/source/SoundOperations/../sigslot.h"