	.file	"OptionList.cpp"
	.section	".text"
.Ltext0:
	.align 2
	.globl _ZN10OptionListC2Ev
	.type	_ZN10OptionListC2Ev, @function
_ZN10OptionListC2Ev:
.LFB445:
	.file 1 "d:/Projects/SaveGameManager/savegame-manager-gx/trunk/source/GUI/OptionList.cpp"
	.loc 1 24 0
	.cfi_startproc
.LVL0:
.LBB603:
	.loc 1 24 0
	lis 9,_ZTV10OptionList+8@ha
.LBB604:
.LBB605:
.LBB606:
.LBB607:
	.file 2 "d:\\devkitpro\\devkitppc\\bin\\../lib/gcc/powerpc-eabi/4.6.3/../../../../powerpc-eabi/include/c++/4.6.3/bits/stl_vector.h"
	.loc 2 83 0
	li 0,0
.LBE607:
.LBE606:
.LBE605:
.LBE604:
	.loc 1 24 0
	la 9,_ZTV10OptionList+8@l(9)
.LBB614:
.LBB612:
.LBB610:
.LBB608:
	.loc 2 83 0
	stw 0,4(3)
.LBE608:
.LBE610:
.LBE612:
.LBE614:
	.loc 1 24 0
	stw 9,0(3)
.LVL1:
.LBE603:
	.loc 1 26 0
.LBB620:
.LBB615:
.LBB613:
.LBB611:
.LBB609:
	.loc 2 83 0
	stw 0,8(3)
	stw 0,12(3)
.LVL2:
.LBE609:
.LBE611:
.LBE613:
.LBE615:
.LBB616:
.LBB617:
.LBB618:
.LBB619:
	stw 0,16(3)
	stw 0,20(3)
	stw 0,24(3)
.LBE619:
.LBE618:
.LBE617:
.LBE616:
.LBE620:
	.loc 1 26 0
	blr
	.cfi_endproc
.LFE445:
	.size	_ZN10OptionListC2Ev, .-_ZN10OptionListC2Ev
	.align 2
	.globl _ZN10OptionList7GetNameEi
	.type	_ZN10OptionList7GetNameEi, @function
_ZN10OptionList7GetNameEi:
.LFB453:
	.loc 1 96 0
	.cfi_startproc
.LVL3:
	.loc 1 97 0
	cmpwi 0,4,0
	.loc 1 96 0
	mflr 0
	stwu 1,-8(1)
.LCFI0:
	.cfi_def_cfa_offset 8
	.cfi_register 65, 0
	stw 0,12(1)
	.loc 1 97 0
	blt- 0,.L7
	.cfi_offset 65, 4
	.loc 1 171 0 discriminator 2
	lwz 9,4(3)
.LBB631:
.LBB632:
	.loc 2 571 0 discriminator 2
	lwz 0,8(3)
.LBE632:
.LBE631:
	.loc 1 98 0 discriminator 2
	li 3,0
.LVL4:
.LBB634:
.LBB633:
	.loc 2 571 0 discriminator 2
	subf 0,9,0
	srawi 0,0,2
.LBE633:
.LBE634:
	.loc 1 97 0 discriminator 2
	cmpw 7,4,0
	bge- 7,.L3
.LVL5:
.LBB635:
.LBB636:
.LBB637:
	.loc 2 718 0
	cmplw 7,4,0
	bge- 7,.L12
.LVL6:
.LBE637:
.LBE636:
.LBE635:
	.loc 1 100 0
	slwi 4,4,2
.LVL7:
	lwzx 3,9,4
.LVL8:
.L3:
	.loc 1 101 0
	lwz 0,12(1)
	addi 1,1,8
	.cfi_remember_state
.LCFI1:
	.cfi_def_cfa_offset 0
	mtlr 0
	blr
.LVL9:
.L7:
.LCFI2:
	.cfi_restore_state
	lwz 0,12(1)
	.loc 1 98 0
	li 3,0
.LVL10:
	.loc 1 101 0
	addi 1,1,8
	.cfi_remember_state
.LCFI3:
	.cfi_def_cfa_offset 0
	mtlr 0
	blr
.LVL11:
.L12:
.LCFI4:
	.cfi_restore_state
.LBB640:
.LBB639:
.LBB638:
	.loc 2 719 0
	lis 3,.LC0@ha
	la 3,.LC0@l(3)
	bl _ZSt20__throw_out_of_rangePKc
.LVL12:
.LVL13:
.LVL14:
.LBE638:
.LBE639:
.LBE640:
	.cfi_endproc
.LFE453:
	.size	_ZN10OptionList7GetNameEi, .-_ZN10OptionList7GetNameEi
	.align 2
	.globl _ZN10OptionList8GetValueEi
	.type	_ZN10OptionList8GetValueEi, @function
_ZN10OptionList8GetValueEi:
.LFB454:
	.loc 1 104 0
	.cfi_startproc
.LVL15:
	.loc 1 105 0
	cmpwi 0,4,0
	.loc 1 104 0
	mflr 0
	stwu 1,-8(1)
.LCFI5:
	.cfi_def_cfa_offset 8
	.cfi_register 65, 0
	stw 0,12(1)
	.loc 1 105 0
	blt- 0,.L18
	.cfi_offset 65, 4
	.loc 1 171 0 discriminator 2
	lwz 9,16(3)
.LBB651:
.LBB652:
	.loc 2 571 0 discriminator 2
	lwz 0,20(3)
.LBE652:
.LBE651:
	.loc 1 106 0 discriminator 2
	li 3,0
.LVL16:
.LBB654:
.LBB653:
	.loc 2 571 0 discriminator 2
	subf 0,9,0
	srawi 0,0,2
.LBE653:
.LBE654:
	.loc 1 105 0 discriminator 2
	cmpw 7,4,0
	bge- 7,.L14
.LVL17:
.LBB655:
.LBB656:
.LBB657:
	.loc 2 718 0
	cmplw 7,4,0
	bge- 7,.L22
.LVL18:
.LBE657:
.LBE656:
.LBE655:
	.loc 1 108 0
	slwi 4,4,2
.LVL19:
	lwzx 3,9,4
.LVL20:
.L14:
	.loc 1 109 0
	lwz 0,12(1)
	addi 1,1,8
	.cfi_remember_state
.LCFI6:
	.cfi_def_cfa_offset 0
	mtlr 0
	blr
.LVL21:
.L18:
.LCFI7:
	.cfi_restore_state
	lwz 0,12(1)
	.loc 1 106 0
	li 3,0
.LVL22:
	.loc 1 109 0
	addi 1,1,8
	.cfi_remember_state
.LCFI8:
	.cfi_def_cfa_offset 0
	mtlr 0
	blr
.LVL23:
.L22:
.LCFI9:
	.cfi_restore_state
.LBB660:
.LBB659:
.LBB658:
	.loc 2 719 0
	lis 3,.LC0@ha
	la 3,.LC0@l(3)
	bl _ZSt20__throw_out_of_rangePKc
.LVL24:
.LVL25:
.LVL26:
.LBE658:
.LBE659:
.LBE660:
	.cfi_endproc
.LFE454:
	.size	_ZN10OptionList8GetValueEi, .-_ZN10OptionList8GetValueEi
	.align 2
	.globl _ZN10OptionList12RemoveOptionEi
	.type	_ZN10OptionList12RemoveOptionEi, @function
_ZN10OptionList12RemoveOptionEi:
.LFB456:
	.loc 1 131 0
	.cfi_startproc
.LVL27:
	stwu 1,-24(1)
.LCFI10:
	.cfi_def_cfa_offset 24
	mflr 0
	stw 29,12(1)
	.loc 1 132 0
	mr. 29,4
	.cfi_offset 29, -12
	.cfi_register 65, 0
	.loc 1 131 0
	stw 31,20(1)
	mr 31,3
	.cfi_offset 31, -4
	stw 0,28(1)
	stw 30,16(1)
	.loc 1 132 0
	blt- 0,.L23
	.cfi_offset 30, -8
	.cfi_offset 65, 4
	.loc 1 171 0 discriminator 2
	lwz 9,4(3)
.LBB749:
.LBB750:
	.loc 2 571 0 discriminator 2
	lwz 0,8(3)
	subf 0,9,0
	srawi 0,0,2
.LBE750:
.LBE749:
	.loc 1 132 0 discriminator 2
	cmpw 7,0,29
	ble- 7,.L23
.LVL28:
.LBB751:
.LBB752:
.LBB753:
	.loc 2 718 0
	cmplw 7,29,0
	bge- 7,.L38
.LVL29:
.LBE753:
.LBE752:
.LBB754:
.LBB755:
	.loc 2 696 0
	slwi 30,29,2
.LBE755:
.LBE754:
.LBE751:
	.loc 1 135 0
	lwzx 3,9,30
.LVL30:
	cmpwi 7,3,0
	beq- 7,.L26
.LVL31:
	.loc 1 137 0
	bl _ZdaPv
.LVL32:
.LBB756:
.LBB757:
	.loc 1 171 0
	lwz 9,4(31)
.LBB758:
.LBB759:
.LBB760:
	.loc 2 571 0
	lwz 0,8(31)
	subf 0,9,0
	srawi 0,0,2
.LBE760:
.LBE759:
	.loc 2 718 0
	cmplw 7,29,0
	bge- 7,.L38
.LBE758:
.LBE757:
.LBE756:
	.loc 1 138 0
	li 0,0
	stwx 0,9,30
.LVL33:
.L26:
.LBB761:
.LBB762:
	.loc 1 171 0
	lwz 9,16(31)
.LBB763:
.LBB764:
.LBB765:
	.loc 2 571 0
	lwz 0,20(31)
	subf 0,9,0
	srawi 0,0,2
.LBE765:
.LBE764:
	.loc 2 718 0
	cmplw 7,29,0
	bge- 7,.L38
.LBE763:
.LBE762:
.LBE761:
	.loc 1 140 0
	lwzx 3,9,30
	cmpwi 7,3,0
	beq- 7,.L29
.LVL34:
	.loc 1 142 0
	bl _ZdaPv
.LVL35:
.LBB766:
.LBB767:
	.loc 1 171 0
	lwz 9,16(31)
.LBB768:
.LBB769:
.LBB770:
	.loc 2 571 0
	lwz 0,20(31)
	subf 0,9,0
	srawi 0,0,2
.LBE770:
.LBE769:
	.loc 2 718 0
	cmplw 7,29,0
	bge- 7,.L38
.LVL36:
.LBE768:
.LBE767:
.LBE766:
	.loc 1 143 0
	li 0,0
	stwx 0,9,30
.LVL37:
.L29:
.LBB773:
.LBB774:
	.file 3 "d:\\devkitpro\\devkitppc\\bin\\../lib/gcc/powerpc-eabi/4.6.3/../../../../powerpc-eabi/include/c++/4.6.3/bits/stl_iterator.h"
	.loc 3 773 0
	lwz 3,4(31)
.LBE774:
.LBE773:
.LBB776:
.LBB777:
.LBB778:
	.loc 1 171 0
	lwz 11,8(31)
.LBE778:
.LBE777:
.LBE776:
.LBB797:
.LBB775:
	.loc 3 773 0
	add 3,3,30
.LVL38:
.LBE775:
.LBE797:
.LBB798:
.LBB793:
.LBB779:
.LBB780:
	addi 4,3,4
.LVL39:
.LBE780:
.LBE779:
	.file 4 "d:\\devkitpro\\devkitppc\\bin\\../lib/gcc/powerpc-eabi/4.6.3/../../../../powerpc-eabi/include/c++/4.6.3/bits/vector.tcc"
	.loc 4 138 0
	cmpw 7,4,11
	beq- 7,.L31
.LVL40:
.LBB781:
.LBB782:
.LBB783:
.LBB784:
.LBB785:
.LBB786:
	.file 5 "d:\\devkitpro\\devkitppc\\bin\\../lib/gcc/powerpc-eabi/4.6.3/../../../../powerpc-eabi/include/c++/4.6.3/bits/stl_algobase.h"
	.loc 5 364 0
	subf 5,4,11
.LVL41:
	.loc 5 365 0
	srawi. 5,5,2
.LVL42:
	bne- 0,.L39
.LVL43:
.L31:
.LBE786:
.LBE785:
.LBE784:
.LBE783:
.LBE782:
.LBE781:
.LBE793:
.LBE798:
.LBB799:
.LBB800:
	.loc 3 773 0
	lwz 3,16(31)
.LBE800:
.LBE799:
.LBB802:
.LBB794:
	.loc 4 140 0
	addi 11,11,-4
.LBE794:
.LBE802:
.LBB803:
.LBB804:
.LBB805:
	.loc 1 171 0
	lwz 9,20(31)
.LBE805:
.LBE804:
.LBE803:
.LBB822:
.LBB801:
	.loc 3 773 0
	add 3,3,30
.LBE801:
.LBE822:
.LBB823:
.LBB795:
	.loc 4 140 0
	stw 11,8(31)
.LVL44:
.LBE795:
.LBE823:
.LBB824:
.LBB820:
.LBB806:
.LBB807:
	.loc 3 773 0
	addi 4,3,4
.LBE807:
.LBE806:
	.loc 4 138 0
	cmpw 7,4,9
	beq- 7,.L32
.LVL45:
.LBB808:
.LBB809:
.LBB810:
.LBB811:
.LBB812:
.LBB813:
	.loc 5 364 0
	subf 5,4,9
.LVL46:
	.loc 5 365 0
	srawi. 5,5,2
.LVL47:
	bne- 0,.L40
.LVL48:
.L32:
.LBE813:
.LBE812:
.LBE811:
.LBE810:
.LBE809:
.LBE808:
	.loc 4 140 0
	addi 9,9,-4
	stw 9,20(31)
.LVL49:
.L23:
.LBE820:
.LBE824:
	.loc 1 148 0
	lwz 0,28(1)
	lwz 29,12(1)
.LVL50:
	mtlr 0
	lwz 30,16(1)
	lwz 31,20(1)
.LVL51:
	addi 1,1,24
	.cfi_remember_state
.LCFI11:
	.cfi_def_cfa_offset 0
	.cfi_restore 31
	.cfi_restore 30
	.cfi_restore 29
	blr
.LVL52:
.L40:
.LCFI12:
	.cfi_restore_state
.LBB825:
.LBB821:
.LBB819:
.LBB818:
.LBB817:
.LBB816:
.LBB815:
.LBB814:
	.loc 5 366 0
	slwi 5,5,2
.LVL53:
	bl memmove
.LVL54:
	lwz 9,20(31)
.LBE814:
.LBE815:
.LBE816:
.LBE817:
.LBE818:
.LBE819:
	.loc 4 140 0
	addi 9,9,-4
	stw 9,20(31)
	b .L23
.LVL55:
.L39:
.LBE821:
.LBE825:
.LBB826:
.LBB796:
.LBB792:
.LBB791:
.LBB790:
.LBB789:
.LBB788:
.LBB787:
	.loc 5 366 0
	slwi 5,5,2
.LVL56:
	bl memmove
.LVL57:
	lwz 11,8(31)
	b .L31
.LVL58:
.L38:
.LBE787:
.LBE788:
.LBE789:
.LBE790:
.LBE791:
.LBE792:
.LBE796:
.LBE826:
.LBB827:
.LBB772:
.LBB771:
	.loc 2 719 0
	lis 3,.LC0@ha
	la 3,.LC0@l(3)
	bl _ZSt20__throw_out_of_rangePKc
.LBE771:
.LBE772:
.LBE827:
	.cfi_endproc
.LFE456:
	.size	_ZN10OptionList12RemoveOptionEi, .-_ZN10OptionList12RemoveOptionEi
	.align 2
	.globl _ZN10OptionList9ClearListEv
	.type	_ZN10OptionList9ClearListEv, @function
_ZN10OptionList9ClearListEv:
.LFB457:
	.loc 1 151 0
	.cfi_startproc
.LVL59:
	mflr 0
	stwu 1,-24(1)
.LCFI13:
	.cfi_def_cfa_offset 24
	.cfi_register 65, 0
	stw 31,20(1)
	mr 31,3
	.cfi_offset 31, -4
	stw 0,28(1)
	stw 29,12(1)
.LBB890:
	.loc 1 171 0
	lwz 11,4(3)
	lwz 10,8(3)
.LBE890:
	.loc 1 151 0
	stw 30,16(1)
.LBB908:
	.loc 1 152 0
	mr 0,11
	.cfi_offset 30, -8
	.cfi_offset 29, -12
	.cfi_offset 65, 4
.LBB909:
.LBB910:
	.loc 2 571 0
	subf 9,11,10
.LBE910:
.LBE909:
	.loc 1 152 0
	srawi. 9,9,2
	beq- 0,.L42
	li 30,0
	b .L46
.LVL60:
.L53:
	.loc 1 171 0
	mr 11,0
.LVL61:
.L46:
	.loc 1 150 0
	slwi 29,30,2
	.loc 1 154 0
	lwzx 3,11,29
	cmpwi 7,3,0
	beq- 7,.L43
.LVL62:
.LBB913:
.LBB914:
.LBB915:
	.loc 2 718 0
	cmplw 7,9,30
	ble- 7,.L57
.LBE915:
.LBE914:
.LBE913:
	.loc 1 156 0
	bl _ZdaPv
.LVL63:
.LBB916:
.LBB917:
	.loc 1 171 0
	lwz 9,4(31)
.LBB918:
.LBB919:
.LBB920:
	.loc 2 571 0
	lwz 0,8(31)
	subf 0,9,0
	srawi 0,0,2
.LBE920:
.LBE919:
	.loc 2 718 0
	cmplw 7,0,30
	ble- 7,.L57
.LBE918:
.LBE917:
.LBE916:
	.loc 1 157 0
	li 0,0
	stwx 0,9,29
	lwz 0,4(31)
	lwz 10,8(31)
.LVL64:
.L43:
.LBB921:
.LBB911:
	.loc 2 571 0
	subf 9,0,10
.LBE911:
.LBE921:
	.loc 1 152 0
	addi 30,30,1
.LVL65:
.LBB922:
.LBB912:
	.loc 2 571 0
	srawi 9,9,2
.LBE912:
.LBE922:
	.loc 1 152 0
	cmplw 7,30,9
	blt+ 7,.L53
.LVL66:
.L42:
	.loc 1 171 0 discriminator 1
	lwz 10,16(31)
	lwz 8,20(31)
.LBE908:
.LBB923:
	.loc 1 160 0 discriminator 1
	mr 9,10
.LBB891:
.LBB892:
	.loc 2 571 0 discriminator 1
	subf 11,10,8
.LBE892:
.LBE891:
	.loc 1 160 0 discriminator 1
	srawi. 11,11,2
	beq- 0,.L47
	.loc 1 160 0 is_stmt 0
	li 30,0
	b .L51
.LVL67:
.L55:
	.loc 1 171 0 is_stmt 1
	mr 10,9
.LVL68:
.L51:
	.loc 1 150 0
	slwi 29,30,2
	.loc 1 162 0
	lwzx 3,10,29
	cmpwi 7,3,0
	beq- 7,.L48
.LVL69:
.LBB895:
.LBB896:
.LBB897:
	.loc 2 718 0
	cmplw 7,11,30
	ble- 7,.L57
.LBE897:
.LBE896:
.LBE895:
	.loc 1 164 0
	bl _ZdaPv
.LVL70:
.LBB898:
.LBB899:
	.loc 1 171 0
	lwz 9,16(31)
.LBB900:
.LBB901:
.LBB902:
	.loc 2 571 0
	lwz 0,20(31)
	subf 0,9,0
	srawi 0,0,2
.LBE902:
.LBE901:
	.loc 2 718 0
	cmplw 7,30,0
	bge- 7,.L57
.LBE900:
.LBE899:
.LBE898:
	.loc 1 165 0
	li 0,0
	stwx 0,9,29
	lwz 9,16(31)
	lwz 8,20(31)
.LVL71:
.L48:
.LBB905:
.LBB893:
	.loc 2 571 0
	subf 11,9,8
.LBE893:
.LBE905:
	.loc 1 160 0
	addi 30,30,1
.LVL72:
.LBB906:
.LBB894:
	.loc 2 571 0
	srawi 11,11,2
.LBE894:
.LBE906:
	.loc 1 160 0
	cmplw 7,30,11
	blt+ 7,.L55
	lwz 0,4(31)
.LVL73:
.L47:
.LBE923:
.LBB924:
.LBB925:
.LBB926:
	.loc 2 1256 0
	stw 0,8(31)
.LVL74:
.LBE926:
.LBE925:
.LBE924:
	.loc 1 171 0
	lwz 0,28(1)
.LVL75:
.LBB927:
.LBB928:
.LBB929:
	.loc 2 1256 0
	stw 9,20(31)
.LBE929:
.LBE928:
.LBE927:
	.loc 1 171 0
	mtlr 0
	lwz 29,12(1)
	lwz 30,16(1)
	lwz 31,20(1)
.LVL76:
	addi 1,1,24
	.cfi_remember_state
.LCFI14:
	.cfi_def_cfa_offset 0
	.cfi_restore 31
	.cfi_restore 30
	.cfi_restore 29
	blr
.LVL77:
.L57:
.LCFI15:
	.cfi_restore_state
.LBB930:
.LBB907:
.LBB904:
.LBB903:
	.loc 2 719 0
	lis 3,.LC0@ha
	la 3,.LC0@l(3)
	bl _ZSt20__throw_out_of_rangePKc
.LBE903:
.LBE904:
.LBE907:
.LBE930:
	.cfi_endproc
.LFE457:
	.size	_ZN10OptionList9ClearListEv, .-_ZN10OptionList9ClearListEv
	.align 2
	.globl _ZN10OptionListD2Ev
	.type	_ZN10OptionListD2Ev, @function
_ZN10OptionListD2Ev:
.LFB448:
	.loc 1 28 0
	.cfi_startproc
	.cfi_personality 0,__gxx_personality_v0
	.cfi_lsda 0,.LLSDA448
.LVL78:
	mflr 0
	stwu 1,-16(1)
.LCFI16:
	.cfi_def_cfa_offset 16
	.cfi_register 65, 0
.LBB989:
	lis 9,_ZTV10OptionList+8@ha
.LBE989:
	stw 31,12(1)
	mr 31,3
	.cfi_offset 31, -4
	stw 0,20(1)
.LBB1022:
	la 0,_ZTV10OptionList+8@l(9)
	.cfi_offset 65, 4
.LBE1022:
	stw 30,8(1)
.LBB1023:
	.loc 1 28 0
	stw 0,0(3)
.LEHB0:
	.loc 1 30 0
	.cfi_offset 30, -8
	bl _ZN10OptionList9ClearListEv
.LEHE0:
.LVL79:
.LBB990:
	.loc 1 171 0
	lwz 3,16(31)
.LVL80:
.LBB991:
.LBB992:
.LBB993:
.LBB994:
.LBB995:
	.loc 2 155 0
	cmpwi 7,3,0
	beq- 7,.L63
.LVL81:
.LBB996:
.LBB997:
	.file 6 "d:\\devkitpro\\devkitppc\\bin\\../lib/gcc/powerpc-eabi/4.6.3/../../../../powerpc-eabi/include/c++/4.6.3/ext/new_allocator.h"
	.loc 6 98 0
	bl _ZdlPv
.LVL82:
.L63:
.LBE997:
.LBE996:
.LBE995:
.LBE994:
.LBE993:
.LBE992:
.LBE991:
.LBE990:
.LBB998:
	.loc 1 171 0
	lwz 3,4(31)
.LVL83:
.LBB999:
.LBB1000:
.LBB1001:
.LBB1002:
.LBB1003:
	.loc 2 155 0
	cmpwi 7,3,0
	beq- 7,.L58
.LVL84:
.LBB1004:
.LBB1005:
	.loc 6 98 0
	bl _ZdlPv
.LVL85:
.L58:
.LBE1005:
.LBE1004:
.LBE1003:
.LBE1002:
.LBE1001:
.LBE1000:
.LBE999:
.LBE998:
.LBE1023:
	.loc 1 31 0
	lwz 0,20(1)
	lwz 30,8(1)
	mtlr 0
	lwz 31,12(1)
.LVL86:
	addi 1,1,16
	.cfi_remember_state
.LCFI17:
	.cfi_def_cfa_offset 0
	.cfi_restore 31
	.cfi_restore 30
	blr
.LVL87:
.L81:
.LCFI18:
	.cfi_restore_state
.LBB1024:
.LBB1006:
	.loc 1 171 0
	lwz 0,16(31)
	mr 30,3
.LVL88:
.LBB1007:
.LBB1008:
.LBB1009:
.LBB1010:
.LBB1011:
	.loc 2 155 0
	cmpwi 7,0,0
	beq- 7,.L75
.LVL89:
.LBB1012:
.LBB1013:
	.loc 6 98 0
	mr 3,0
	bl _ZdlPv
.LVL90:
.L75:
.LBE1013:
.LBE1012:
.LBE1011:
.LBE1010:
.LBE1009:
.LBE1008:
.LBE1007:
.LBE1006:
.LBB1014:
	.loc 1 171 0
	lwz 3,4(31)
.LVL91:
.LBB1015:
.LBB1016:
.LBB1017:
.LBB1018:
.LBB1019:
	.loc 2 155 0
	cmpwi 7,3,0
	beq- 7,.L80
.LVL92:
.LBB1020:
.LBB1021:
	.loc 6 98 0
	bl _ZdlPv
.LVL93:
.L80:
	mr 3,30
.LEHB1:
	bl _Unwind_Resume
.LEHE1:
.LBE1021:
.LBE1020:
.LBE1019:
.LBE1018:
.LBE1017:
.LBE1016:
.LBE1015:
.LBE1014:
.LBE1024:
	.cfi_endproc
.LFE448:
	.globl __gxx_personality_v0
	.section	.gcc_except_table,"a",@progbits
.LLSDA448:
	.byte	0xff
	.byte	0xff
	.byte	0x1
	.uleb128 .LLSDACSE448-.LLSDACSB448
.LLSDACSB448:
	.uleb128 .LEHB0-.LFB448
	.uleb128 .LEHE0-.LEHB0
	.uleb128 .L81-.LFB448
	.uleb128 0
	.uleb128 .LEHB1-.LFB448
	.uleb128 .LEHE1-.LEHB1
	.uleb128 0
	.uleb128 0
.LLSDACSE448:
	.section	".text"
	.size	_ZN10OptionListD2Ev, .-_ZN10OptionListD2Ev
	.align 2
	.globl _ZN10OptionListD0Ev
	.type	_ZN10OptionListD0Ev, @function
_ZN10OptionListD0Ev:
.LFB450:
	.loc 1 28 0
	.cfi_startproc
	.cfi_personality 0,__gxx_personality_v0
	.cfi_lsda 0,.LLSDA450
.LVL94:
	mflr 0
	stwu 1,-16(1)
.LCFI19:
	.cfi_def_cfa_offset 16
	.cfi_register 65, 0
.LBB1084:
.LBB1085:
.LBB1086:
	lis 9,_ZTV10OptionList+8@ha
.LBE1086:
.LBE1085:
.LBE1084:
	stw 31,12(1)
	mr 31,3
	.cfi_offset 31, -4
.LVL95:
	stw 0,20(1)
.LBB1125:
.LBB1122:
.LBB1119:
	la 0,_ZTV10OptionList+8@l(9)
	.cfi_offset 65, 4
.LBE1119:
.LBE1122:
.LBE1125:
	stw 30,8(1)
.LBB1126:
.LBB1123:
.LBB1120:
	.loc 1 28 0
	stw 0,0(3)
.LEHB2:
	.loc 1 30 0
	.cfi_offset 30, -8
	bl _ZN10OptionList9ClearListEv
.LEHE2:
.LVL96:
.LBB1087:
	.loc 1 171 0
	lwz 3,16(31)
.LVL97:
.LBB1088:
.LBB1089:
.LBB1090:
.LBB1091:
.LBB1092:
	.loc 2 155 0
	cmpwi 7,3,0
	beq- 7,.L87
.LVL98:
.LBB1093:
.LBB1094:
	.loc 6 98 0
	bl _ZdlPv
.LVL99:
.L87:
.LBE1094:
.LBE1093:
.LBE1092:
.LBE1091:
.LBE1090:
.LBE1089:
.LBE1088:
.LBE1087:
.LBB1095:
	.loc 1 171 0
	lwz 3,4(31)
.LVL100:
.LBB1096:
.LBB1097:
.LBB1098:
.LBB1099:
.LBB1100:
	.loc 2 155 0
	cmpwi 7,3,0
	beq- 7,.L105
.LVL101:
.LBB1101:
.LBB1102:
	.loc 6 98 0
	bl _ZdlPv
.LVL102:
.L105:
.LBE1102:
.LBE1101:
.LBE1100:
.LBE1099:
.LBE1098:
.LBE1097:
.LBE1096:
.LBE1095:
.LBE1120:
.LBE1123:
.LBE1126:
	.loc 1 31 0 discriminator 1
	mr 3,31
	bl _ZdlPv
	lwz 0,20(1)
	lwz 30,8(1)
	mtlr 0
	lwz 31,12(1)
.LVL103:
	addi 1,1,16
	.cfi_remember_state
.LCFI20:
	.cfi_def_cfa_offset 0
	.cfi_restore 31
	.cfi_restore 30
	blr
.LVL104:
.L106:
.LCFI21:
	.cfi_restore_state
.LBB1127:
.LBB1124:
.LBB1121:
.LBB1103:
	.loc 1 171 0
	lwz 0,16(31)
	mr 30,3
.LVL105:
.LBB1104:
.LBB1105:
.LBB1106:
.LBB1107:
.LBB1108:
	.loc 2 155 0
	cmpwi 7,0,0
	beq- 7,.L94
.LVL106:
.LBB1109:
.LBB1110:
	.loc 6 98 0
	mr 3,0
	bl _ZdlPv
.LVL107:
.L94:
.LBE1110:
.LBE1109:
.LBE1108:
.LBE1107:
.LBE1106:
.LBE1105:
.LBE1104:
.LBE1103:
.LBB1111:
	.loc 1 171 0
	lwz 3,4(31)
.LVL108:
.LBB1112:
.LBB1113:
.LBB1114:
.LBB1115:
.LBB1116:
	.loc 2 155 0
	cmpwi 7,3,0
	beq- 7,.L99
.LVL109:
.LBB1117:
.LBB1118:
	.loc 6 98 0
	bl _ZdlPv
.LVL110:
.L99:
	mr 3,30
.LEHB3:
	bl _Unwind_Resume
.LEHE3:
.LBE1118:
.LBE1117:
.LBE1116:
.LBE1115:
.LBE1114:
.LBE1113:
.LBE1112:
.LBE1111:
.LBE1121:
.LBE1124:
.LBE1127:
	.cfi_endproc
.LFE450:
	.section	.gcc_except_table
.LLSDA450:
	.byte	0xff
	.byte	0xff
	.byte	0x1
	.uleb128 .LLSDACSE450-.LLSDACSB450
.LLSDACSB450:
	.uleb128 .LEHB2-.LFB450
	.uleb128 .LEHE2-.LEHB2
	.uleb128 .L106-.LFB450
	.uleb128 0
	.uleb128 .LEHB3-.LFB450
	.uleb128 .LEHE3-.LEHB3
	.uleb128 0
	.uleb128 0
.LLSDACSE450:
	.section	".text"
	.size	_ZN10OptionListD0Ev, .-_ZN10OptionListD0Ev
	.section	.text._ZNSt6vectorIPcSaIS0_EE14_M_fill_insertEN9__gnu_cxx17__normal_iteratorIPS0_S2_EEjRKS0_,"axG",@progbits,_ZNSt6vectorIPcSaIS0_EE14_M_fill_insertEN9__gnu_cxx17__normal_iteratorIPS0_S2_EEjRKS0_,comdat
	.align 2
	.weak	_ZNSt6vectorIPcSaIS0_EE14_M_fill_insertEN9__gnu_cxx17__normal_iteratorIPS0_S2_EEjRKS0_
	.type	_ZNSt6vectorIPcSaIS0_EE14_M_fill_insertEN9__gnu_cxx17__normal_iteratorIPS0_S2_EEjRKS0_, @function
_ZNSt6vectorIPcSaIS0_EE14_M_fill_insertEN9__gnu_cxx17__normal_iteratorIPS0_S2_EEjRKS0_:
.LFB505:
	.loc 4 377 0
	.cfi_startproc
.LVL111:
	stwu 1,-40(1)
.LCFI22:
	.cfi_def_cfa_offset 40
	mflr 0
	stw 30,32(1)
.LBB1238:
	.loc 4 380 0
	mr. 30,5
	.cfi_offset 30, -8
	.cfi_register 65, 0
.LBE1238:
	.loc 4 377 0
	stw 0,44(1)
	stw 29,28(1)
	stw 31,36(1)
	mr 31,3
	.cfi_offset 31, -4
	.cfi_offset 29, -12
	.cfi_offset 65, 4
	stw 26,16(1)
	stw 27,20(1)
	stw 28,24(1)
	.loc 4 377 0
	lwz 29,0(4)
.LBB1535:
	.loc 4 380 0
	beq- 0,.L107
	.cfi_offset 28, -16
	.cfi_offset 27, -20
	.cfi_offset 26, -24
.LBB1239:
	.loc 4 382 0
	lwz 27,4(3)
	lwz 0,8(3)
	subf 0,27,0
	srawi 0,0,2
	cmplw 7,30,0
	bgt- 7,.L109
.LBB1240:
.LBB1241:
.LBB1242:
	.loc 3 892 0
	subf 0,29,27
.LBE1242:
.LBE1241:
	.loc 4 385 0
	lwz 28,0(6)
.LVL112:
.LBB1244:
.LBB1243:
	.loc 3 892 0
	srawi 0,0,2
.LVL113:
.LBE1243:
.LBE1244:
	.loc 4 388 0
	cmplw 7,30,0
	blt- 7,.L137
.LVL114:
.LBB1245:
.LBB1246:
.LBB1247:
.LBB1248:
.LBB1249:
.LBB1250:
.LBB1251:
.LBB1252:
	.loc 5 743 0
	subf. 30,0,30
	.loc 4 382 0
	mr 9,27
	.loc 5 743 0
	beq- 0,.L114
.LBE1252:
.LBE1251:
.LBE1250:
.LBE1249:
.LBE1248:
.LBE1247:
.LBE1246:
.LBE1245:
.LBB1260:
.LBB1261:
.LBB1262:
.LBB1263:
.LBB1264:
.LBB1265:
.LBB1266:
.LBB1267:
.LBB1268:
.LBB1269:
.LBB1270:
	.loc 4 377 0
	mtctr 30
.LBE1270:
.LBE1269:
.LBE1268:
.LBE1267:
.LBE1266:
.LBE1265:
.LBE1264:
.LBE1263:
.LBE1262:
.LBE1261:
.LBE1260:
.LBB1281:
.LBB1259:
.LBB1258:
.LBB1257:
.LBB1256:
.LBB1255:
.LBB1254:
.LBB1253:
	addi 9,27,-4
.LVL115:
.L115:
	.loc 5 745 0
	stwu 28,4(9)
	.loc 5 743 0
	bdnz .L115
	lwz 9,4(31)
.L114:
.LBE1253:
.LBE1254:
.LBE1255:
.LBE1256:
.LBE1257:
.LBE1258:
.LBE1259:
.LBE1281:
.LBB1282:
.LBB1283:
.LBB1284:
.LBB1285:
.LBB1286:
.LBB1287:
.LBB1288:
.LBB1289:
.LBB1290:
.LBB1291:
.LBB1292:
	.loc 5 365 0
	cmpwi 7,0,0
.LBE1292:
.LBE1291:
.LBE1290:
.LBE1289:
.LBE1288:
.LBE1287:
.LBE1286:
.LBE1285:
.LBE1284:
.LBE1283:
.LBE1282:
	.loc 4 406 0
	slwi 30,30,2
	add 3,9,30
.LVL116:
	stw 3,4(31)
.LVL117:
.LBB1313:
.LBB1311:
.LBB1309:
.LBB1307:
.LBB1305:
.LBB1303:
.LBB1301:
.LBB1299:
.LBB1297:
.LBB1295:
.LBB1293:
	.loc 5 365 0
	bne- 7,.L116
	li 30,0
.LVL118:
.L117:
.LBE1293:
.LBE1295:
.LBE1297:
.LBE1299:
.LBE1301:
.LBE1303:
.LBE1305:
.LBE1307:
.LBE1309:
.LBE1311:
.LBE1313:
.LBB1314:
.LBB1315:
.LBB1316:
	.loc 5 686 0
	cmpw 7,27,29
.LBE1316:
.LBE1315:
.LBE1314:
	.loc 4 410 0
	add 3,3,30
	stw 3,4(31)
.LVL119:
.LBB1319:
.LBB1318:
.LBB1317:
	.loc 5 686 0
	beq- 7,.L107
.LVL120:
.L118:
	.loc 5 687 0
	stw 28,0(29)
	addi 29,29,4
	.loc 5 686 0
	cmpw 7,27,29
	bne+ 7,.L118
.LVL121:
.L107:
.LBE1317:
.LBE1318:
.LBE1319:
.LBE1240:
.LBE1239:
.LBE1535:
	.loc 4 464 0
	lwz 0,44(1)
	lwz 26,16(1)
	mtlr 0
	lwz 27,20(1)
	lwz 28,24(1)
	lwz 29,28(1)
	lwz 30,32(1)
	lwz 31,36(1)
.LVL122:
	addi 1,1,40
	.cfi_remember_state
.LCFI23:
	.cfi_def_cfa_offset 0
	.cfi_restore 31
	.cfi_restore 30
	.cfi_restore 29
	.cfi_restore 28
	.cfi_restore 27
	.cfi_restore 26
	blr
.LVL123:
.L109:
.LCFI24:
	.cfi_restore_state
.LBB1536:
.LBB1531:
.LBB1349:
.LBB1350:
.LBB1351:
.LBB1352:
.LBB1353:
	.loc 2 571 0
	lwz 9,0(3)
.LBE1353:
.LBE1352:
	.loc 2 1241 0
	lis 11,0x3fff
	ori 11,11,65535
.LBB1355:
.LBB1354:
	.loc 2 571 0
	subf 27,9,27
	srawi 0,27,2
.LBE1354:
.LBE1355:
	.loc 2 1241 0
	subf 11,0,11
	cmplw 7,30,11
	bgt- 7,.L138
.LVL124:
	.loc 2 1244 0
	cmplw 7,0,30
	mr 11,0
	blt- 7,.L139
	add 11,11,0
.LVL125:
	.loc 2 1245 0
	cmplw 7,0,11
	ble- 7,.L140
.L121:
.LVL126:
.LBE1351:
.LBE1350:
.LBB1358:
.LBB1359:
	.loc 3 892 0
	subf 27,9,29
.LBE1359:
.LBE1358:
	.loc 4 418 0
	li 26,-4
.LBB1362:
.LBB1360:
	.loc 3 892 0
	srawi 27,27,2
.LVL127:
.L127:
.LBE1360:
.LBE1362:
.LBB1363:
.LBB1364:
.LBB1365:
.LBB1366:
	.loc 6 92 0
	mr 3,26
.LVL128:
	stw 6,8(1)
	bl _Znwj
.LVL129:
	lwz 6,8(1)
	mr 28,3
.L122:
.LVL130:
.LBE1366:
.LBE1365:
.LBE1364:
.LBE1363:
	.loc 4 424 0
	slwi 27,27,2
.LVL131:
.LBB1375:
.LBB1371:
.LBB1369:
.LBB1367:
	.loc 1 171 0
	lwz 0,0(6)
.LVL132:
.LBE1367:
.LBE1369:
.LBE1371:
.LBE1375:
	.loc 4 424 0
	add 27,28,27
.LBB1376:
.LBB1372:
	.loc 4 377 0
	mtctr 30
.LBB1370:
.LBB1368:
	addi 27,27,-4
.LVL133:
.L123:
.LBE1368:
.LBE1370:
.LBE1372:
.LBE1376:
.LBB1377:
.LBB1378:
.LBB1379:
.LBB1380:
.LBB1381:
.LBB1382:
.LBB1383:
.LBB1384:
	.loc 5 745 0
	stwu 0,4(27)
	.loc 5 743 0
	bdnz .L123
.LVL134:
.LBE1384:
.LBE1383:
.LBE1382:
.LBE1381:
.LBE1380:
.LBE1379:
.LBE1378:
.LBE1377:
	.loc 4 429 0
	lwz 4,0(31)
.LVL135:
.LBB1385:
.LBB1386:
.LBB1387:
.LBB1388:
.LBB1389:
.LBB1390:
.LBB1391:
.LBB1392:
.LBB1393:
.LBB1394:
.LBB1395:
	.loc 5 365 0
	li 27,0
	.loc 5 364 0
	subf 0,4,29
.LVL136:
	.loc 5 365 0
	srawi. 0,0,2
.LVL137:
	bne- 0,.L141
.LBE1395:
.LBE1394:
.LBE1393:
.LBE1392:
.LBE1391:
.LBE1390:
.LBE1389:
.LBE1388:
.LBE1387:
.LBE1386:
.LBE1385:
.LBB1436:
.LBB1437:
.LBB1438:
.LBB1439:
.LBB1440:
.LBB1441:
.LBB1442:
.LBB1443:
.LBB1444:
.LBB1445:
.LBB1446:
	.loc 5 364 0
	lwz 0,4(31)
.LVL138:
.LBE1446:
.LBE1445:
.LBE1444:
.LBE1443:
.LBE1442:
.LBE1441:
.LBE1440:
.LBE1439:
.LBE1438:
.LBE1437:
.LBE1436:
.LBB1507:
.LBB1432:
.LBB1428:
.LBB1424:
.LBB1420:
.LBB1416:
.LBB1412:
.LBB1408:
.LBB1404:
.LBB1400:
.LBB1396:
	.loc 5 367 0
	add 27,28,27
.LVL139:
.LBE1396:
.LBE1400:
.LBE1404:
.LBE1408:
.LBE1412:
.LBE1416:
.LBE1420:
.LBE1424:
.LBE1428:
.LBE1432:
.LBE1507:
	.loc 4 434 0
	slwi 30,30,2
.LVL140:
.LBB1508:
.LBB1501:
.LBB1495:
.LBB1489:
.LBB1483:
.LBB1477:
.LBB1471:
.LBB1465:
.LBB1459:
.LBB1453:
.LBB1447:
	.loc 5 364 0
	subf 0,29,0
.LBE1447:
.LBE1453:
.LBE1459:
.LBE1465:
.LBE1471:
.LBE1477:
.LBE1483:
.LBE1489:
.LBE1495:
.LBE1501:
.LBE1508:
	.loc 4 434 0
	add 30,27,30
.LVL141:
.LBB1509:
.LBB1502:
.LBB1496:
.LBB1490:
.LBB1484:
.LBB1478:
.LBB1472:
.LBB1466:
.LBB1460:
.LBB1454:
.LBB1448:
	.loc 5 365 0
	srawi. 0,0,2
.LVL142:
	li 27,0
	bne- 0,.L142
.LVL143:
.L125:
.LBE1448:
.LBE1454:
.LBE1460:
.LBE1466:
.LBE1472:
.LBE1478:
.LBE1484:
.LBE1490:
.LBE1496:
.LBE1502:
.LBE1509:
	.loc 4 456 0
	lwz 3,0(31)
.LBB1510:
.LBB1503:
.LBB1497:
.LBB1491:
.LBB1485:
.LBB1479:
.LBB1473:
.LBB1467:
.LBB1461:
.LBB1455:
.LBB1449:
	.loc 5 367 0
	add 27,30,27
.LVL144:
.LBE1449:
.LBE1455:
.LBE1461:
.LBE1467:
.LBE1473:
.LBE1479:
.LBE1485:
.LBE1491:
.LBE1497:
.LBE1503:
.LBE1510:
.LBB1511:
.LBB1512:
	.loc 2 155 0
	cmpwi 7,3,0
	beq- 7,.L126
.LVL145:
.LBB1513:
.LBB1514:
	.loc 6 98 0
	bl _ZdlPv
.LVL146:
.L126:
.LBE1514:
.LBE1513:
.LBE1512:
.LBE1511:
.LBE1349:
.LBE1531:
.LBE1536:
	.loc 4 464 0
	lwz 0,44(1)
.LBB1537:
.LBB1532:
.LBB1526:
	.loc 4 461 0
	add 26,28,26
	.loc 4 459 0
	stw 28,0(31)
.LBE1526:
.LBE1532:
.LBE1537:
	.loc 4 464 0
	mtlr 0
.LBB1538:
.LBB1533:
.LBB1527:
	.loc 4 460 0
	stw 27,4(31)
	.loc 4 461 0
	stw 26,8(31)
.LBE1527:
.LBE1533:
.LBE1538:
	.loc 4 464 0
	lwz 27,20(1)
	lwz 26,16(1)
	lwz 28,24(1)
.LVL147:
	lwz 29,28(1)
.LVL148:
	lwz 30,32(1)
.LVL149:
	lwz 31,36(1)
.LVL150:
	addi 1,1,40
	.cfi_remember_state
	.cfi_restore 26
	.cfi_restore 27
	.cfi_restore 28
	.cfi_restore 29
	.cfi_restore 30
	.cfi_restore 31
.LCFI25:
	.cfi_def_cfa_offset 0
	blr
.LVL151:
.L139:
.LCFI26:
	.cfi_restore_state
.LBB1539:
.LBB1534:
.LBB1528:
.LBB1515:
.LBB1356:
	.loc 2 1244 0
	mr 11,30
	add 11,11,0
.LVL152:
	.loc 2 1245 0
	cmplw 7,0,11
	bgt- 7,.L121
.L140:
.LVL153:
	lis 0,0x3fff
	ori 0,0,65535
	cmplw 7,11,0
	bgt- 7,.L121
.LVL154:
.LBE1356:
.LBE1515:
.LBB1516:
.LBB1373:
	.loc 2 150 0
	cmpwi 7,11,0
.LBE1373:
.LBE1516:
.LBB1517:
.LBB1361:
	.loc 3 892 0
	subf 9,9,29
	srawi 27,9,2
.LVL155:
.LBE1361:
.LBE1517:
.LBB1518:
.LBB1374:
	.loc 2 150 0
	li 26,0
	li 28,0
	beq+ 7,.L122
	slwi 26,11,2
	b .L127
.LVL156:
.L141:
.LBE1374:
.LBE1518:
.LBB1519:
.LBB1433:
.LBB1429:
.LBB1425:
.LBB1421:
.LBB1417:
.LBB1413:
.LBB1409:
.LBB1405:
.LBB1401:
.LBB1397:
	.loc 5 366 0
	slwi 27,0,2
	mr 3,28
	mr 5,27
.LBE1397:
.LBE1401:
.LBE1405:
.LBE1409:
.LBE1413:
.LBE1417:
.LBE1421:
.LBE1425:
.LBE1429:
.LBE1433:
.LBE1519:
	.loc 4 434 0
	slwi 30,30,2
.LVL157:
.LBB1520:
.LBB1434:
.LBB1430:
.LBB1426:
.LBB1422:
.LBB1418:
.LBB1414:
.LBB1410:
.LBB1406:
.LBB1402:
.LBB1398:
	.loc 5 366 0
	bl memmove
.LVL158:
.LBE1398:
.LBE1402:
.LBE1406:
.LBE1410:
.LBE1414:
.LBE1418:
.LBE1422:
.LBE1426:
.LBE1430:
.LBE1434:
.LBE1520:
.LBB1521:
.LBB1504:
.LBB1498:
.LBB1492:
.LBB1486:
.LBB1480:
.LBB1474:
.LBB1468:
.LBB1462:
.LBB1456:
.LBB1450:
	.loc 5 364 0
	lwz 0,4(31)
.LBE1450:
.LBE1456:
.LBE1462:
.LBE1468:
.LBE1474:
.LBE1480:
.LBE1486:
.LBE1492:
.LBE1498:
.LBE1504:
.LBE1521:
.LBB1522:
.LBB1435:
.LBB1431:
.LBB1427:
.LBB1423:
.LBB1419:
.LBB1415:
.LBB1411:
.LBB1407:
.LBB1403:
.LBB1399:
	.loc 5 367 0
	add 27,28,27
.LVL159:
.LBE1399:
.LBE1403:
.LBE1407:
.LBE1411:
.LBE1415:
.LBE1419:
.LBE1423:
.LBE1427:
.LBE1431:
.LBE1435:
.LBE1522:
.LBB1523:
.LBB1505:
.LBB1499:
.LBB1493:
.LBB1487:
.LBB1481:
.LBB1475:
.LBB1469:
.LBB1463:
.LBB1457:
.LBB1451:
	.loc 5 364 0
	subf 0,29,0
.LBE1451:
.LBE1457:
.LBE1463:
.LBE1469:
.LBE1475:
.LBE1481:
.LBE1487:
.LBE1493:
.LBE1499:
.LBE1505:
.LBE1523:
	.loc 4 434 0
	add 30,27,30
.LVL160:
.LBB1524:
.LBB1506:
.LBB1500:
.LBB1494:
.LBB1488:
.LBB1482:
.LBB1476:
.LBB1470:
.LBB1464:
.LBB1458:
.LBB1452:
	.loc 5 365 0
	srawi. 0,0,2
.LVL161:
	li 27,0
	beq+ 0,.L125
.LVL162:
.L142:
	.loc 5 366 0
	slwi 27,0,2
	mr 3,30
	mr 4,29
	mr 5,27
	bl memmove
	b .L125
.LVL163:
.L116:
.LBE1452:
.LBE1458:
.LBE1464:
.LBE1470:
.LBE1476:
.LBE1482:
.LBE1488:
.LBE1494:
.LBE1500:
.LBE1506:
.LBE1524:
.LBE1528:
.LBB1529:
.LBB1320:
.LBB1312:
.LBB1310:
.LBB1308:
.LBB1306:
.LBB1304:
.LBB1302:
.LBB1300:
.LBB1298:
.LBB1296:
.LBB1294:
	slwi 30,0,2
	mr 4,29
	mr 5,30
.LVL164:
	bl memmove
.LVL165:
	lwz 3,4(31)
	b .L117
.LVL166:
.L137:
.LBE1294:
.LBE1296:
.LBE1298:
.LBE1300:
.LBE1302:
.LBE1304:
.LBE1306:
.LBE1308:
.LBE1310:
.LBE1312:
.LBE1320:
	.loc 4 390 0
	slwi 30,30,2
.LVL167:
.LBB1321:
.LBB1280:
.LBB1279:
.LBB1278:
.LBB1277:
.LBB1276:
.LBB1275:
.LBB1274:
.LBB1273:
.LBB1272:
.LBB1271:
	.loc 4 382 0
	mr 0,27
.LVL168:
	.loc 5 365 0
	srawi. 5,30,2
.LVL169:
	.loc 5 364 0
	subf 26,30,27
	.loc 5 365 0
	beq+ 0,.L111
	.loc 5 366 0
	mr 3,27
	mr 4,26
	slwi 5,5,2
	bl memmove
.LVL170:
	lwz 0,4(31)
.L111:
.LBE1271:
.LBE1272:
.LBE1273:
.LBE1274:
.LBE1275:
.LBE1276:
.LBE1277:
.LBE1278:
.LBE1279:
.LBE1280:
.LBE1321:
.LBB1322:
.LBB1323:
.LBB1324:
.LBB1325:
.LBB1326:
.LBB1327:
	.loc 5 559 0
	subf 26,29,26
.LBE1327:
.LBE1326:
.LBE1325:
.LBE1324:
.LBE1323:
.LBE1322:
	.loc 4 394 0
	add 0,0,30
.LBB1343:
.LBB1340:
.LBB1337:
.LBB1334:
.LBB1331:
.LBB1328:
	.loc 5 560 0
	srawi. 26,26,2
.LBE1328:
.LBE1331:
.LBE1334:
.LBE1337:
.LBE1340:
.LBE1343:
	.loc 4 394 0
	stw 0,4(31)
.LVL171:
.LBB1344:
.LBB1341:
.LBB1338:
.LBB1335:
.LBB1332:
.LBB1329:
	.loc 5 560 0
	bne- 0,.L143
.L112:
.LVL172:
.LBE1329:
.LBE1332:
.LBE1335:
.LBE1338:
.LBE1341:
.LBE1344:
	.loc 4 397 0
	add 30,29,30
.LVL173:
.LBB1345:
.LBB1346:
.LBB1347:
	.loc 5 686 0
	cmpw 7,30,29
	beq- 7,.L107
.LVL174:
.L113:
	.loc 5 687 0
	stw 28,0(29)
	addi 29,29,4
	.loc 5 686 0
	cmpw 7,30,29
	bne+ 7,.L113
	b .L107
.LVL175:
.L143:
.LBE1347:
.LBE1346:
.LBE1345:
.LBB1348:
.LBB1342:
.LBB1339:
.LBB1336:
.LBB1333:
.LBB1330:
	.loc 5 561 0
	slwi 5,26,2
	mr 4,29
	subf 3,5,27
	bl memmove
	b .L112
.LVL176:
.L138:
.LBE1330:
.LBE1333:
.LBE1336:
.LBE1339:
.LBE1342:
.LBE1348:
.LBE1529:
.LBB1530:
.LBB1525:
.LBB1357:
	.loc 2 1242 0
	lis 3,.LC1@ha
	la 3,.LC1@l(3)
	bl _ZSt20__throw_length_errorPKc
.LVL177:
.LVL178:
.LVL179:
.LBE1357:
.LBE1525:
.LBE1530:
.LBE1534:
.LBE1539:
	.cfi_endproc
.LFE505:
	.size	_ZNSt6vectorIPcSaIS0_EE14_M_fill_insertEN9__gnu_cxx17__normal_iteratorIPS0_S2_EEjRKS0_, .-_ZNSt6vectorIPcSaIS0_EE14_M_fill_insertEN9__gnu_cxx17__normal_iteratorIPS0_S2_EEjRKS0_
	.section	".text"
	.align 2
	.globl _ZN10OptionList6ResizeEi
	.type	_ZN10OptionList6ResizeEi, @function
_ZN10OptionList6ResizeEi:
.LFB455:
	.loc 1 112 0
	.cfi_startproc
.LVL180:
	mflr 0
	stwu 1,-48(1)
.LCFI27:
	.cfi_def_cfa_offset 48
	.cfi_register 65, 0
	stw 30,40(1)
	stw 0,52(1)
	stw 29,36(1)
	mr 29,4
	.cfi_offset 29, -12
	.cfi_offset 65, 4
	.cfi_offset 30, -8
.LBB1594:
.LBB1595:
.LBB1596:
.LBB1597:
.LBB1598:
	.loc 1 171 0
	lwz 0,4(3)
	lwz 9,8(3)
.LBE1598:
.LBE1597:
.LBE1596:
.LBE1595:
.LBE1594:
	.loc 1 112 0
	stw 31,44(1)
	.loc 1 112 0
	mr 31,3
	.cfi_offset 31, -4
.LBB1658:
.LBB1622:
.LBB1623:
	.loc 2 571 0
	subf 30,0,9
	srawi 30,30,2
.LBE1623:
.LBE1622:
	.loc 1 113 0
	cmpw 7,4,30
	bge- 7,.L145
.LVL181:
.L157:
	.loc 1 115 0
	addi 4,30,-1
	mr 3,31
	bl _ZN10OptionList12RemoveOptionEi
	.loc 1 171 0
	lwz 0,4(31)
	lwz 9,8(31)
.LBB1625:
.LBB1624:
	.loc 2 571 0
	subf 30,0,9
	srawi 30,30,2
.LBE1624:
.LBE1625:
	.loc 1 113 0
	cmpw 7,29,30
	blt+ 7,.L157
.L145:
.LVL182:
.LBB1626:
.LBB1627:
	.loc 2 631 0
	cmplw 7,29,30
.LBE1627:
.LBE1626:
	.loc 1 120 0
	li 11,0
	stw 11,8(1)
.LVL183:
.LBB1640:
.LBB1636:
	.loc 2 631 0
	bgt- 7,.L160
	.loc 2 633 0
	bge- 7,.L148
.LVL184:
	.loc 2 634 0
	slwi 9,29,2
	add 0,0,9
.LVL185:
.LBB1628:
.LBB1629:
	.loc 2 1256 0
	stw 0,8(31)
.LVL186:
.L148:
.LBE1629:
.LBE1628:
.LBE1636:
.LBE1640:
.LBB1641:
	.loc 1 171 0
	lwz 0,16(31)
.LBE1641:
.LBB1650:
.LBB1637:
.LBB1632:
.LBB1630:
	.loc 2 1256 0
	li 11,0
.LBE1630:
.LBE1632:
.LBE1637:
.LBE1650:
.LBB1651:
	.loc 1 171 0
	lwz 9,20(31)
.LBE1651:
.LBB1652:
.LBB1638:
.LBB1633:
.LBB1631:
	.loc 2 1256 0
	stw 11,8(1)
.LVL187:
.LBE1631:
.LBE1633:
.LBE1638:
.LBE1652:
.LBB1653:
.LBB1642:
.LBB1643:
.LBB1644:
	.loc 2 571 0
	subf 5,0,9
	srawi 5,5,2
.LBE1644:
.LBE1643:
	.loc 2 631 0
	cmplw 7,29,5
	bgt- 7,.L161
	.loc 2 633 0
	bge- 7,.L150
.LVL188:
	.loc 2 634 0
	slwi 29,29,2
.LVL189:
	add 0,0,29
.LVL190:
.LBB1645:
.LBB1646:
	.loc 2 1256 0
	stw 0,20(31)
.LVL191:
.L150:
	.loc 1 171 0
	lwz 9,4(31)
.LBE1646:
.LBE1645:
.LBE1642:
.LBE1653:
.LBB1654:
.LBB1611:
.LBB1612:
	.loc 2 571 0
	lwz 0,8(31)
	subf 0,9,0
	srawi 0,0,2
.LBE1612:
.LBE1611:
	.loc 1 123 0
	cmplw 7,0,30
	ble- 7,.L144
.LVL192:
	.loc 1 125 0
	li 11,0
.LBB1614:
.LBB1615:
.LBB1616:
	.loc 2 696 0
	slwi 0,30,2
.LBE1616:
.LBE1615:
.LBE1614:
	.loc 1 125 0
	stwx 11,9,0
.LVL193:
.LBB1617:
.LBB1607:
	.loc 1 171 0
	lwz 11,16(31)
.LBB1603:
.LBB1599:
.LBB1600:
	.loc 2 571 0
	lwz 9,20(31)
	subf 9,11,9
	srawi 9,9,2
.LBE1600:
.LBE1599:
	.loc 2 718 0
	cmplw 7,9,30
	ble- 7,.L152
	.loc 1 111 0
	addi 30,30,1
.LVL194:
.LBE1603:
.LBE1607:
.LBE1617:
	.loc 1 126 0
	li 10,0
.LBB1618:
.LBB1608:
.LBB1604:
	.loc 2 719 0
	slwi 9,30,2
	b .L154
.LVL195:
.L155:
.LBE1604:
.LBE1608:
.LBE1618:
	.loc 1 125 0
	stwx 10,11,9
.LVL196:
.LBB1619:
.LBB1609:
	.loc 1 171 0
	addi 8,9,4
	lwz 11,16(31)
.LBB1605:
.LBB1602:
.LBB1601:
	.loc 2 571 0
	lwz 0,20(31)
	subf 0,11,0
	srawi 0,0,2
.LBE1601:
.LBE1602:
	.loc 2 718 0
	cmplw 7,30,0
	bge- 7,.L152
.LVL197:
	.loc 2 696 0
	mr 0,9
	addi 30,30,1
.LVL198:
	.loc 2 718 0
	mr 9,8
.LVL199:
.L154:
.LBE1605:
.LBE1609:
.LBE1619:
	.loc 1 126 0
	stwx 10,11,0
.LVL200:
	.loc 1 171 0
	lwz 11,4(31)
.LBB1620:
.LBB1613:
	.loc 2 571 0
	lwz 0,8(31)
	subf 0,11,0
	srawi 0,0,2
.LBE1613:
.LBE1620:
	.loc 1 123 0
	cmplw 7,30,0
	blt+ 7,.L155
.L144:
.LBE1654:
.LBE1658:
	.loc 1 128 0
	lwz 0,52(1)
	lwz 29,36(1)
	mtlr 0
	lwz 30,40(1)
.LVL201:
	lwz 31,44(1)
.LVL202:
	addi 1,1,48
	.cfi_remember_state
.LCFI28:
	.cfi_def_cfa_offset 0
	.cfi_restore 31
	.cfi_restore 30
	.cfi_restore 29
	blr
.LVL203:
.L161:
.LCFI29:
	.cfi_restore_state
.LBB1659:
.LBB1655:
.LBB1649:
.LBB1647:
.LBB1648:
	.loc 2 944 0
	mr 4,1
	addi 3,31,16
	stwu 9,24(4)
	subf 5,5,29
.LVL204:
	addi 6,1,8
	bl _ZNSt6vectorIPcSaIS0_EE14_M_fill_insertEN9__gnu_cxx17__normal_iteratorIPS0_S2_EEjRKS0_
.LVL205:
	b .L150
.LVL206:
.L160:
.LBE1648:
.LBE1647:
.LBE1649:
.LBE1655:
.LBB1656:
.LBB1639:
.LBB1634:
.LBB1635:
	mr 4,1
	addi 3,31,4
	stwu 9,24(4)
	subf 5,30,29
	addi 6,1,8
.LVL207:
	bl _ZNSt6vectorIPcSaIS0_EE14_M_fill_insertEN9__gnu_cxx17__normal_iteratorIPS0_S2_EEjRKS0_
.LVL208:
	b .L148
.LVL209:
.L152:
.LBE1635:
.LBE1634:
.LBE1639:
.LBE1656:
.LBB1657:
.LBB1621:
.LBB1610:
.LBB1606:
	.loc 2 719 0
	lis 3,.LC0@ha
	la 3,.LC0@l(3)
	bl _ZSt20__throw_out_of_rangePKc
.LBE1606:
.LBE1610:
.LBE1621:
.LBE1657:
.LBE1659:
	.cfi_endproc
.LFE455:
	.size	_ZN10OptionList6ResizeEi, .-_ZN10OptionList6ResizeEi
	.align 2
	.globl _ZN10OptionList8SetValueEiPKcz
	.type	_ZN10OptionList8SetValueEiPKcz, @function
_ZN10OptionList8SetValueEiPKcz:
.LFB452:
	.loc 1 65 0
	.cfi_startproc
.LVL210:
	mflr 0
	stwu 1,-136(1)
.LCFI30:
	.cfi_def_cfa_offset 136
	.cfi_register 65, 0
	stw 30,128(1)
	mr 30,4
	.cfi_offset 30, -8
	stw 31,132(1)
	mr 31,3
	.cfi_offset 31, -4
	stw 0,140(1)
	stw 28,120(1)
	stw 29,124(1)
	stw 6,28(1)
	stw 7,32(1)
	stw 8,36(1)
	stw 9,40(1)
	stw 10,44(1)
	bne- 1,.L163
	.cfi_offset 29, -12
	.cfi_offset 28, -16
	.cfi_offset 65, 4
	.loc 1 65 0
	stfd 1,48(1)
	stfd 2,56(1)
	stfd 3,64(1)
	stfd 4,72(1)
	stfd 5,80(1)
	stfd 6,88(1)
	stfd 7,96(1)
	stfd 8,104(1)
.L163:
	.loc 1 171 0
	lwz 9,16(31)
.LBB1705:
.LBB1706:
.LBB1707:
	.loc 2 571 0
	lwz 0,20(31)
	subf 0,9,0
	srawi 0,0,2
.LBE1707:
.LBE1706:
	.loc 1 66 0
	cmpw 7,30,0
	blt- 7,.L177
.LVL211:
.L164:
	.loc 1 76 0
	mr 9,1
	addi 0,1,144
	stwu 0,16(9)
	.loc 1 77 0
	mr 4,5
	.loc 1 74 0
	li 0,0
	.loc 1 76 0
	li 11,3
	.loc 1 77 0
	addi 3,1,8
	addi 5,1,12
	.loc 1 74 0
	stw 0,8(1)
.LVL212:
	.loc 1 76 0
	stb 11,12(1)
	stb 0,13(1)
	stw 9,20(1)
	.loc 1 77 0
	bl vasprintf
	cmpwi 7,3,0
	lwz 3,8(1)
	blt- 7,.L168
	.loc 1 77 0 is_stmt 0 discriminator 1
	cmpwi 7,3,0
	beq- 7,.L168
	.loc 1 171 0 is_stmt 1 discriminator 4
	lwz 29,16(31)
.LBB1708:
.LBB1709:
	.loc 2 571 0 discriminator 4
	lwz 0,20(31)
	subf 0,29,0
	srawi 0,0,2
.LBE1709:
.LBE1708:
	.loc 1 79 0 discriminator 4
	cmpw 7,30,0
	bge- 7,.L178
.L169:
.LVL213:
.LBB1710:
.LBB1711:
.LBB1712:
	.loc 2 718 0
	cmplw 7,30,0
	bge- 7,.L176
.LVL214:
.LBE1712:
.LBE1711:
.LBE1710:
	.loc 1 84 0
	lwz 3,8(1)
.LBB1715:
.LBB1713:
.LBB1714:
	.loc 2 696 0
	slwi 28,30,2
.LBE1714:
.LBE1713:
.LBE1715:
	.loc 1 84 0
	bl strlen
	addi 3,3,1
	bl _Znaj
	stwx 3,29,28
.LVL215:
.LBB1716:
.LBB1717:
	.loc 1 171 0
	lwz 9,16(31)
.LBB1718:
.LBB1719:
.LBB1720:
	.loc 2 571 0
	lwz 0,20(31)
	subf 0,9,0
	srawi 0,0,2
.LBE1720:
.LBE1719:
	.loc 2 718 0
	cmplw 7,30,0
	bge- 7,.L176
.LVL216:
.LBE1718:
.LBE1717:
.LBE1716:
	.loc 1 85 0
	lwzx 3,9,28
	lwz 4,8(1)
	bl strcpy
	.loc 1 87 0
	li 0,1
	stb 0,28(31)
	lwz 3,8(1)
.LVL217:
.L168:
	.loc 1 91 0
	cmpwi 7,3,0
	beq- 7,.L162
	.loc 1 92 0
	bl free
.L162:
.LBE1705:
	.loc 1 93 0
	lwz 0,140(1)
	lwz 28,120(1)
	mtlr 0
	lwz 29,124(1)
	lwz 30,128(1)
.LVL218:
	lwz 31,132(1)
.LVL219:
	addi 1,1,136
	.cfi_remember_state
.LCFI31:
	.cfi_def_cfa_offset 0
	.cfi_restore 31
	.cfi_restore 30
	.cfi_restore 29
	.cfi_restore 28
	blr
.LVL220:
.L177:
.LCFI32:
	.cfi_restore_state
.LBB1739:
.LBB1723:
.LBB1724:
.LBB1725:
	.loc 2 718 0
	cmplw 7,30,0
	bge- 7,.L176
.LVL221:
.LBE1725:
.LBE1724:
.LBB1726:
.LBB1727:
	.loc 2 696 0
	slwi 29,30,2
.LBE1727:
.LBE1726:
.LBE1723:
	.loc 1 68 0
	lwzx 3,9,29
.LVL222:
.LBB1730:
.LBB1729:
.LBB1728:
	.loc 2 696 0
	add 9,9,29
.LBE1728:
.LBE1729:
.LBE1730:
	.loc 1 68 0
	cmpwi 7,3,0
	beq- 7,.L166
.LVL223:
	.loc 1 69 0
	stw 5,112(1)
	bl _ZdaPv
.LVL224:
.LBB1731:
.LBB1732:
	.loc 1 171 0
	lwz 0,16(31)
.LBB1733:
.LBB1734:
.LBB1735:
	.loc 2 571 0
	lwz 11,20(31)
.LBE1735:
.LBE1734:
	.loc 2 719 0
	add 9,0,29
	.loc 2 718 0
	lwz 5,112(1)
.LBB1737:
.LBB1736:
	.loc 2 571 0
	subf 0,0,11
	srawi 0,0,2
.LBE1736:
.LBE1737:
	.loc 2 718 0
	cmplw 7,30,0
	bge- 7,.L176
.LVL225:
.L166:
.LBE1733:
.LBE1732:
.LBE1731:
	.loc 1 71 0
	li 0,0
	stw 0,0(9)
	b .L164
.LVL226:
.L178:
	.loc 1 81 0
	mr 3,31
	addi 4,30,1
	bl _ZN10OptionList6ResizeEi
	lwz 29,16(31)
	lwz 0,20(31)
	subf 0,29,0
	srawi 0,0,2
	b .L169
.LVL227:
.L176:
.LBB1738:
.LBB1722:
.LBB1721:
	.loc 2 719 0
	lis 3,.LC0@ha
	la 3,.LC0@l(3)
	bl _ZSt20__throw_out_of_rangePKc
.LBE1721:
.LBE1722:
.LBE1738:
.LBE1739:
	.cfi_endproc
.LFE452:
	.size	_ZN10OptionList8SetValueEiPKcz, .-_ZN10OptionList8SetValueEiPKcz
	.align 2
	.globl _ZN10OptionList7SetNameEiPKcz
	.type	_ZN10OptionList7SetNameEiPKcz, @function
_ZN10OptionList7SetNameEiPKcz:
.LFB451:
	.loc 1 34 0
	.cfi_startproc
.LVL228:
	mflr 0
	stwu 1,-136(1)
.LCFI33:
	.cfi_def_cfa_offset 136
	.cfi_register 65, 0
	stw 30,128(1)
	mr 30,4
	.cfi_offset 30, -8
	stw 31,132(1)
	mr 31,3
	.cfi_offset 31, -4
	stw 0,140(1)
	stw 28,120(1)
	stw 29,124(1)
	stw 6,28(1)
	stw 7,32(1)
	stw 8,36(1)
	stw 9,40(1)
	stw 10,44(1)
	bne- 1,.L180
	.cfi_offset 29, -12
	.cfi_offset 28, -16
	.cfi_offset 65, 4
	.loc 1 34 0
	stfd 1,48(1)
	stfd 2,56(1)
	stfd 3,64(1)
	stfd 4,72(1)
	stfd 5,80(1)
	stfd 6,88(1)
	stfd 7,96(1)
	stfd 8,104(1)
.L180:
	.loc 1 171 0
	lwz 9,4(31)
.LBB1785:
.LBB1786:
.LBB1787:
	.loc 2 571 0
	lwz 0,8(31)
	subf 0,9,0
	srawi 0,0,2
.LBE1787:
.LBE1786:
	.loc 1 35 0
	cmpw 7,30,0
	blt- 7,.L194
.LVL229:
.L181:
	.loc 1 45 0
	mr 9,1
	addi 0,1,144
	stwu 0,16(9)
	.loc 1 46 0
	mr 4,5
	.loc 1 43 0
	li 0,0
	.loc 1 45 0
	li 11,3
	.loc 1 46 0
	addi 3,1,8
	addi 5,1,12
	.loc 1 43 0
	stw 0,8(1)
.LVL230:
	.loc 1 45 0
	stb 11,12(1)
	stb 0,13(1)
	stw 9,20(1)
	.loc 1 46 0
	bl vasprintf
	cmpwi 7,3,0
	lwz 3,8(1)
	blt- 7,.L185
	.loc 1 46 0 is_stmt 0 discriminator 1
	cmpwi 7,3,0
	beq- 7,.L185
	.loc 1 171 0 is_stmt 1 discriminator 4
	lwz 29,4(31)
.LBB1788:
.LBB1789:
	.loc 2 571 0 discriminator 4
	lwz 0,8(31)
	subf 0,29,0
	srawi 0,0,2
.LBE1789:
.LBE1788:
	.loc 1 48 0 discriminator 4
	cmpw 7,30,0
	bge- 7,.L195
.L186:
.LVL231:
.LBB1790:
.LBB1791:
.LBB1792:
	.loc 2 718 0
	cmplw 7,30,0
	bge- 7,.L193
.LVL232:
.LBE1792:
.LBE1791:
.LBE1790:
	.loc 1 53 0
	lwz 3,8(1)
.LBB1795:
.LBB1793:
.LBB1794:
	.loc 2 696 0
	slwi 28,30,2
.LBE1794:
.LBE1793:
.LBE1795:
	.loc 1 53 0
	bl strlen
	addi 3,3,1
	bl _Znaj
	stwx 3,29,28
.LVL233:
.LBB1796:
.LBB1797:
	.loc 1 171 0
	lwz 9,4(31)
.LBB1798:
.LBB1799:
.LBB1800:
	.loc 2 571 0
	lwz 0,8(31)
	subf 0,9,0
	srawi 0,0,2
.LBE1800:
.LBE1799:
	.loc 2 718 0
	cmplw 7,30,0
	bge- 7,.L193
.LVL234:
.LBE1798:
.LBE1797:
.LBE1796:
	.loc 1 54 0
	lwzx 3,9,28
	lwz 4,8(1)
	bl strcpy
	.loc 1 56 0
	li 0,1
	stb 0,28(31)
	lwz 3,8(1)
.LVL235:
.L185:
	.loc 1 60 0
	cmpwi 7,3,0
	beq- 7,.L179
	.loc 1 61 0
	bl free
.L179:
.LBE1785:
	.loc 1 62 0
	lwz 0,140(1)
	lwz 28,120(1)
	mtlr 0
	lwz 29,124(1)
	lwz 30,128(1)
.LVL236:
	lwz 31,132(1)
.LVL237:
	addi 1,1,136
	.cfi_remember_state
.LCFI34:
	.cfi_def_cfa_offset 0
	.cfi_restore 31
	.cfi_restore 30
	.cfi_restore 29
	.cfi_restore 28
	blr
.LVL238:
.L194:
.LCFI35:
	.cfi_restore_state
.LBB1819:
.LBB1803:
.LBB1804:
.LBB1805:
	.loc 2 718 0
	cmplw 7,30,0
	bge- 7,.L193
.LVL239:
.LBE1805:
.LBE1804:
.LBB1806:
.LBB1807:
	.loc 2 696 0
	slwi 29,30,2
.LBE1807:
.LBE1806:
.LBE1803:
	.loc 1 37 0
	lwzx 3,9,29
.LVL240:
.LBB1810:
.LBB1809:
.LBB1808:
	.loc 2 696 0
	add 9,9,29
.LBE1808:
.LBE1809:
.LBE1810:
	.loc 1 37 0
	cmpwi 7,3,0
	beq- 7,.L183
.LVL241:
	.loc 1 38 0
	stw 5,112(1)
	bl _ZdaPv
.LVL242:
.LBB1811:
.LBB1812:
	.loc 1 171 0
	lwz 0,4(31)
.LBB1813:
.LBB1814:
.LBB1815:
	.loc 2 571 0
	lwz 11,8(31)
.LBE1815:
.LBE1814:
	.loc 2 719 0
	add 9,0,29
	.loc 2 718 0
	lwz 5,112(1)
.LBB1817:
.LBB1816:
	.loc 2 571 0
	subf 0,0,11
	srawi 0,0,2
.LBE1816:
.LBE1817:
	.loc 2 718 0
	cmplw 7,30,0
	bge- 7,.L193
.LVL243:
.L183:
.LBE1813:
.LBE1812:
.LBE1811:
	.loc 1 40 0
	li 0,0
	stw 0,0(9)
	b .L181
.LVL244:
.L195:
	.loc 1 50 0
	mr 3,31
	addi 4,30,1
	bl _ZN10OptionList6ResizeEi
	lwz 29,4(31)
	lwz 0,8(31)
	subf 0,29,0
	srawi 0,0,2
	b .L186
.LVL245:
.L193:
.LBB1818:
.LBB1802:
.LBB1801:
	.loc 2 719 0
	lis 3,.LC0@ha
	la 3,.LC0@l(3)
	bl _ZSt20__throw_out_of_rangePKc
.LBE1801:
.LBE1802:
.LBE1818:
.LBE1819:
	.cfi_endproc
.LFE451:
	.size	_ZN10OptionList7SetNameEiPKcz, .-_ZN10OptionList7SetNameEiPKcz
	.weak	_ZTS10OptionList
	.section	.rodata._ZTS10OptionList,"aG",@progbits,_ZTS10OptionList,comdat
	.align 2
	.type	_ZTS10OptionList, @object
	.size	_ZTS10OptionList, 13
_ZTS10OptionList:
	.string	"10OptionList"
	.weak	_ZTI10OptionList
	.section	.sdata._ZTI10OptionList,"awG",@progbits,_ZTI10OptionList,comdat
	.align 2
	.type	_ZTI10OptionList, @object
	.size	_ZTI10OptionList, 8
_ZTI10OptionList:
	.long	_ZTVN10__cxxabiv117__class_type_infoE+8
	.long	_ZTS10OptionList
	.weak	_ZTV10OptionList
	.section	.rodata._ZTV10OptionList,"aG",@progbits,_ZTV10OptionList,comdat
	.align 3
	.type	_ZTV10OptionList, @object
	.size	_ZTV10OptionList, 16
_ZTV10OptionList:
	.long	0
	.long	_ZTI10OptionList
	.long	_ZN10OptionListD1Ev
	.long	_ZN10OptionListD0Ev
	.globl _ZN10OptionListC1Ev
	.set	_ZN10OptionListC1Ev,_ZN10OptionListC2Ev
	.globl _ZN10OptionListD1Ev
	.set	_ZN10OptionListD1Ev,_ZN10OptionListD2Ev
	.section	.rodata.str1.4,"aMS",@progbits,1
	.align 2
.LC0:
	.string	"vector::_M_range_check"
	.zero	1
.LC1:
	.string	"vector::_M_fill_insert"
	.section	".text"
.Letext0:
	.file 7 "<built-in>"
	.file 8 "d:\\devkitpro\\devkitppc\\bin\\../lib/gcc/powerpc-eabi/4.6.3/include/stdarg.h"
	.file 9 "d:\\devkitpro\\devkitppc\\bin\\../lib/gcc/powerpc-eabi/4.6.3/../../../../powerpc-eabi/include/stdint.h"
	.file 10 "d:\\devkitpro\\devkitppc\\bin\\../lib/gcc/powerpc-eabi/4.6.3/../../../../powerpc-eabi/include/c++/4.6.3/powerpc-eabi/bits/c++config.h"
	.file 11 "d:\\devkitpro\\devkitppc\\bin\\../lib/gcc/powerpc-eabi/4.6.3/../../../../powerpc-eabi/include/c++/4.6.3/bits/cpp_type_traits.h"
	.file 12 "d:\\devkitpro\\devkitppc\\bin\\../lib/gcc/powerpc-eabi/4.6.3/../../../../powerpc-eabi/include/c++/4.6.3/bits/stl_construct.h"
	.file 13 "d:\\devkitpro\\devkitppc\\bin\\../lib/gcc/powerpc-eabi/4.6.3/../../../../powerpc-eabi/include/c++/4.6.3/bits/stl_uninitialized.h"
	.file 14 "d:\\devkitpro\\devkitppc\\bin\\../lib/gcc/powerpc-eabi/4.6.3/../../../../powerpc-eabi/include/c++/4.6.3/debug/debug.h"
	.file 15 "d:\\devkitpro\\devkitppc\\bin\\../lib/gcc/powerpc-eabi/4.6.3/../../../../powerpc-eabi/include/c++/4.6.3/ext/numeric_traits.h"
	.file 16 "d:\\devkitpro\\devkitppc\\bin\\../lib/gcc/powerpc-eabi/4.6.3/../../../../powerpc-eabi/include/c++/4.6.3/bits/allocator.h"
	.file 17 "d:\\devkitpro\\devkitppc\\bin\\../lib/gcc/powerpc-eabi/4.6.3/../../../../powerpc-eabi/include/c++/4.6.3/bits/stl_iterator_base_types.h"
	.file 18 "d:\\devkitpro\\devkitppc\\bin\\../lib/gcc/powerpc-eabi/4.6.3/../../../../powerpc-eabi/include/c++/4.6.3/ext/type_traits.h"
	.file 19 "d:/Projects/SaveGameManager/savegame-manager-gx/trunk/source/GUI/OptionList.hpp"
	.file 20 "d:/devkitPro/libogc/include/gctypes.h"