   1              		.file	"ParentalControlSM.cpp"
   2              		.section	".text"
   3              	.Ltext0:
   4              		.section	.text._ZN7sigslot15single_threaded4lockEv,"axG",@progbits,_ZN7sigslot15single_threaded4lo
   5              		.align 2
   6              		.weak	_ZN7sigslot15single_threaded4lockEv
   7              		.type	_ZN7sigslot15single_threaded4lockEv, @function
   8              	_ZN7sigslot15single_threaded4lockEv:
   9              	.LFB1151:
  10              		.file 1 "d:/Projects/SaveGameManager/savegame-manager-gx/trunk/source/Settings/menus/../../GUI/../
  11              		.loc 1 109 0
  12              		.cfi_startproc
  13              	.LVL0:
  14              		.loc 1 112 0
  15 0000 4E800020 		blr
  16              		.cfi_endproc
  17              	.LFE1151:
  18              		.size	_ZN7sigslot15single_threaded4lockEv, .-_ZN7sigslot15single_threaded4lockEv
  19              		.section	.text._ZN7sigslot15single_threaded6unlockEv,"axG",@progbits,_ZN7sigslot15single_threaded6
  20              		.align 2
  21              		.weak	_ZN7sigslot15single_threaded6unlockEv
  22              		.type	_ZN7sigslot15single_threaded6unlockEv, @function
  23              	_ZN7sigslot15single_threaded6unlockEv:
  24              	.LFB1152:
  25              		.loc 1 114 0
  26              		.cfi_startproc
  27              	.LVL1:
  28              		.loc 1 117 0
  29 0000 4E800020 		blr
  30              		.cfi_endproc
  31              	.LFE1152:
  32              		.size	_ZN7sigslot15single_threaded6unlockEv, .-_ZN7sigslot15single_threaded6unlockEv
  33              		.section	.text._ZN10GuiElement9SetParentEPS_,"axG",@progbits,_ZN10GuiElement9SetParentEPS_,comdat
  34              		.align 2
  35              		.weak	_ZN10GuiElement9SetParentEPS_
  36              		.type	_ZN10GuiElement9SetParentEPS_, @function
  37              	_ZN10GuiElement9SetParentEPS_:
  38              	.LFB1384:
  39              		.file 2 "d:/Projects/SaveGameManager/savegame-manager-gx/trunk/source/Settings/menus/../../GUI/gui
  40              		.loc 2 92 0
  41              		.cfi_startproc
  42              	.LVL2:
  43              		.loc 2 92 0
  44 0000 90830060 		stw 4,96(3)
  45 0004 4E800020 		blr
  46              		.cfi_endproc
  47              	.LFE1384:
  48              		.size	_ZN10GuiElement9SetParentEPS_, .-_ZN10GuiElement9SetParentEPS_
  49              		.section	.text._ZN10GuiElement9GetParentEv,"axG",@progbits,_ZN10GuiElement9GetParentEv,comdat
  50              		.align 2
  51              		.weak	_ZN10GuiElement9GetParentEv
  52              		.type	_ZN10GuiElement9GetParentEv, @function
  53              	_ZN10GuiElement9GetParentEv:
  54              	.LFB1385:
  55              		.loc 2 95 0
  56              		.cfi_startproc
  57              	.LVL3:
  58              		.loc 2 95 0
  59 0000 80630060 		lwz 3,96(3)
  60              	.LVL4:
  61 0004 4E800020 		blr
  62              		.cfi_endproc
  63              	.LFE1385:
  64              		.size	_ZN10GuiElement9GetParentEv, .-_ZN10GuiElement9GetParentEv
  65              		.section	.text._ZN10GuiElement12GetZPositionEv,"axG",@progbits,_ZN10GuiElement12GetZPositionEv,com
  66              		.align 2
  67              		.weak	_ZN10GuiElement12GetZPositionEv
  68              		.type	_ZN10GuiElement12GetZPositionEv, @function
  69              	_ZN10GuiElement12GetZPositionEv:
  70              	.LFB1386:
  71              		.loc 2 106 0
  72              		.cfi_startproc
  73              	.LVL5:
  74 0000 7C0802A6 		mflr 0
  75 0004 9421FFF0 		stwu 1,-16(1)
  76              	.LCFI0:
  77              		.cfi_def_cfa_offset 16
  78              		.cfi_register 65, 0
  79 0008 93E1000C 		stw 31,12(1)
  80 000c 7C7F1B78 		mr 31,3
  81              		.cfi_offset 31, -4
  82 0010 90010014 		stw 0,20(1)
  83              	.LBB1333:
  84              		.loc 2 110 0
  85 0014 81630060 		lwz 11,96(3)
  86              		.loc 2 108 0
  87 0018 38600000 		li 3,0
  88              	.LVL6:
  89              		.loc 2 110 0
  90 001c 2F8B0000 		cmpwi 7,11,0
  91 0020 419E0018 		beq- 7,.L6
  92              		.cfi_offset 65, 4
  93              		.loc 2 111 0
  94 0024 812B0000 		lwz 9,0(11)
  95 0028 7D635B78 		mr 3,11
  96 002c 80090018 		lwz 0,24(9)
  97 0030 7C0903A6 		mtctr 0
  98 0034 4E800421 		bctrl
  99              	.LVL7:
 100              	.L6:
 101              		.loc 2 113 0
 102 0038 801F0034 		lwz 0,52(31)
 103              	.LBE1333:
 104              		.loc 2 114 0
 105 003c 83E1000C 		lwz 31,12(1)
 106              	.LVL8:
 107 0040 7C630214 		add 3,3,0
 108              	.LVL9:
 109 0044 80010014 		lwz 0,20(1)
 110 0048 38210010 		addi 1,1,16
 111              	.LCFI1:
 112              		.cfi_def_cfa_offset 0
 113              		.cfi_restore 31
 114 004c 7C0803A6 		mtlr 0
 115 0050 4E800020 		blr
 116              		.cfi_endproc
 117              	.LFE1386:
 118              		.size	_ZN10GuiElement12GetZPositionEv, .-_ZN10GuiElement12GetZPositionEv
 119              		.section	.text._ZN10GuiElement10GetLeftPosEv,"axG",@progbits,_ZN10GuiElement10GetLeftPosEv,comdat
 120              		.align 2
 121              		.weak	_ZN10GuiElement10GetLeftPosEv
 122              		.type	_ZN10GuiElement10GetLeftPosEv, @function
 123              	_ZN10GuiElement10GetLeftPosEv:
 124              	.LFB1387:
 125              		.loc 2 116 0
 126              		.cfi_startproc
 127              	.LVL10:
 128              		.loc 2 116 0
 129 0000 8063002C 		lwz 3,44(3)
 130              	.LVL11:
 131 0004 4E800020 		blr
 132              		.cfi_endproc
 133              	.LFE1387:
 134              		.size	_ZN10GuiElement10GetLeftPosEv, .-_ZN10GuiElement10GetLeftPosEv
 135              		.section	.text._ZN10GuiElement9GetTopPosEv,"axG",@progbits,_ZN10GuiElement9GetTopPosEv,comdat
 136              		.align 2
 137              		.weak	_ZN10GuiElement9GetTopPosEv
 138              		.type	_ZN10GuiElement9GetTopPosEv, @function
 139              	_ZN10GuiElement9GetTopPosEv:
 140              	.LFB1388:
 141              		.loc 2 118 0
 142              		.cfi_startproc
 143              	.LVL12:
 144              		.loc 2 118 0
 145 0000 80630030 		lwz 3,48(3)
 146              	.LVL13:
 147 0004 4E800020 		blr
 148              		.cfi_endproc
 149              	.LFE1388:
 150              		.size	_ZN10GuiElement9GetTopPosEv, .-_ZN10GuiElement9GetTopPosEv
 151              		.section	.text._ZN10GuiElement8GetWidthEv,"axG",@progbits,_ZN10GuiElement8GetWidthEv,comdat
 152              		.align 2
 153              		.weak	_ZN10GuiElement8GetWidthEv
 154              		.type	_ZN10GuiElement8GetWidthEv, @function
 155              	_ZN10GuiElement8GetWidthEv:
 156              	.LFB1389:
 157              		.loc 2 121 0
 158              		.cfi_startproc
 159              	.LVL14:
 160              		.loc 2 121 0
 161 0000 80630024 		lwz 3,36(3)
 162              	.LVL15:
 163 0004 4E800020 		blr
 164              		.cfi_endproc
 165              	.LFE1389:
 166              		.size	_ZN10GuiElement8GetWidthEv, .-_ZN10GuiElement8GetWidthEv
 167              		.section	.text._ZN10GuiElement9GetHeightEv,"axG",@progbits,_ZN10GuiElement9GetHeightEv,comdat
 168              		.align 2
 169              		.weak	_ZN10GuiElement9GetHeightEv
 170              		.type	_ZN10GuiElement9GetHeightEv, @function
 171              	_ZN10GuiElement9GetHeightEv:
 172              	.LFB1390:
 173              		.loc 2 124 0
 174              		.cfi_startproc
 175              	.LVL16:
 176              		.loc 2 124 0
 177 0000 80630028 		lwz 3,40(3)
 178              	.LVL17:
 179 0004 4E800020 		blr
 180              		.cfi_endproc
 181              	.LFE1390:
 182              		.size	_ZN10GuiElement9GetHeightEv, .-_ZN10GuiElement9GetHeightEv
 183              		.section	.text._ZN10GuiElement7SetSizeEii,"axG",@progbits,_ZN10GuiElement7SetSizeEii,comdat
 184              		.align 2
 185              		.weak	_ZN10GuiElement7SetSizeEii
 186              		.type	_ZN10GuiElement7SetSizeEii, @function
 187              	_ZN10GuiElement7SetSizeEii:
 188              	.LFB1391:
 189              		.loc 2 128 0
 190              		.cfi_startproc
 191              	.LVL18:
 192              		.loc 2 130 0
 193 0000 90830024 		stw 4,36(3)
 194              		.loc 2 132 0
 195              		.loc 2 131 0
 196 0004 90A30028 		stw 5,40(3)
 197              		.loc 2 132 0
 198 0008 4E800020 		blr
 199              		.cfi_endproc
 200              	.LFE1391:
 201              		.size	_ZN10GuiElement7SetSizeEii, .-_ZN10GuiElement7SetSizeEii
 202              		.section	.text._ZN10GuiElement9IsVisibleEv,"axG",@progbits,_ZN10GuiElement9IsVisibleEv,comdat
 203              		.align 2
 204              		.weak	_ZN10GuiElement9IsVisibleEv
 205              		.type	_ZN10GuiElement9IsVisibleEv, @function
 206              	_ZN10GuiElement9IsVisibleEv:
 207              	.LFB1393:
 208              		.loc 2 142 0
 209              		.cfi_startproc
 210              	.LVL19:
 211              		.loc 2 142 0
 212 0000 8863001D 		lbz 3,29(3)
 213              	.LVL20:
 214 0004 4E800020 		blr
 215              		.cfi_endproc
 216              	.LFE1393:
 217              		.size	_ZN10GuiElement9IsVisibleEv, .-_ZN10GuiElement9IsVisibleEv
 218              		.section	.text._ZN10GuiElement12IsSelectableEv,"axG",@progbits,_ZN10GuiElement12IsSelectableEv,com
 219              		.align 2
 220              		.weak	_ZN10GuiElement12IsSelectableEv
 221              		.type	_ZN10GuiElement12IsSelectableEv, @function
 222              	_ZN10GuiElement12IsSelectableEv:
 223              	.LFB1394:
 224              		.loc 2 145 0
 225              		.cfi_startproc
 226              	.LVL21:
 227              		.loc 2 149 0
 228 0000 80030048 		lwz 0,72(3)
 229 0004 39200000 		li 9,0
 230 0008 2F800004 		cmpwi 7,0,4
 231 000c 419E0010 		beq- 7,.L16
 232              		.loc 2 149 0 is_stmt 0 discriminator 1
 233 0010 2F800002 		cmpwi 7,0,2
 234 0014 419E0008 		beq- 7,.L16
 235              		.loc 2 149 0 discriminator 3
 236 0018 8923001E 		lbz 9,30(3)
 237              	.L16:
 238              		.loc 2 150 0 is_stmt 1 discriminator 5
 239 001c 7D234B78 		mr 3,9
 240              	.LVL22:
 241 0020 4E800020 		blr
 242              		.cfi_endproc
 243              	.LFE1394:
 244              		.size	_ZN10GuiElement12IsSelectableEv, .-_ZN10GuiElement12IsSelectableEv
 245              		.section	.text._ZN10GuiElement11IsClickableEv,"axG",@progbits,_ZN10GuiElement11IsClickableEv,comda
 246              		.align 2
 247              		.weak	_ZN10GuiElement11IsClickableEv
 248              		.type	_ZN10GuiElement11IsClickableEv, @function
 249              	_ZN10GuiElement11IsClickableEv:
 250              	.LFB1395:
 251              		.loc 2 153 0
 252              		.cfi_startproc
 253              	.LVL23:
 254              		.loc 2 158 0
 255 0000 80030048 		lwz 0,72(3)
 256 0004 39200000 		li 9,0
 257 0008 2F800004 		cmpwi 7,0,4
 258 000c 419E0018 		beq- 7,.L20
 259              		.loc 2 158 0 is_stmt 0 discriminator 1
 260 0010 2F800002 		cmpwi 7,0,2
 261 0014 419E0010 		beq- 7,.L20
 262              		.loc 2 158 0 discriminator 3
 263 0018 2F800003 		cmpwi 7,0,3
 264 001c 419E0008 		beq- 7,.L20
 265              		.loc 2 158 0 discriminator 4
 266 0020 8923001F 		lbz 9,31(3)
 267              	.L20:
 268              		.loc 2 159 0 is_stmt 1 discriminator 6
 269 0024 7D234B78 		mr 3,9
 270              	.LVL24:
 271 0028 4E800020 		blr
 272              		.cfi_endproc
 273              	.LFE1395:
 274              		.size	_ZN10GuiElement11IsClickableEv, .-_ZN10GuiElement11IsClickableEv
 275              		.section	.text._ZN10GuiElement10IsHoldableEv,"axG",@progbits,_ZN10GuiElement10IsHoldableEv,comdat
 276              		.align 2
 277              		.weak	_ZN10GuiElement10IsHoldableEv
 278              		.type	_ZN10GuiElement10IsHoldableEv, @function
 279              	_ZN10GuiElement10IsHoldableEv:
 280              	.LFB1396:
 281              		.loc 2 162 0
 282              		.cfi_startproc
 283              	.LVL25:
 284              		.loc 2 162 0
 285 0000 81230048 		lwz 9,72(3)
 286 0004 38000000 		li 0,0
 287 0008 2F890004 		cmpwi 7,9,4
 288 000c 419E0008 		beq- 7,.L25
 289              		.loc 2 162 0 is_stmt 0 discriminator 1
 290 0010 88030020 		lbz 0,32(3)
 291              	.L25:
 292              		.loc 2 162 0 discriminator 4
 293 0014 7C030378 		mr 3,0
 294              	.LVL26:
 295 0018 4E800020 		blr
 296              		.cfi_endproc
 297              	.LFE1396:
 298              		.size	_ZN10GuiElement10IsHoldableEv, .-_ZN10GuiElement10IsHoldableEv
 299              		.section	.text._ZN10GuiElement13SetSelectableEb,"axG",@progbits,_ZN10GuiElement13SetSelectableEb,c
 300              		.align 2
 301              		.weak	_ZN10GuiElement13SetSelectableEb
 302              		.type	_ZN10GuiElement13SetSelectableEb, @function
 303              	_ZN10GuiElement13SetSelectableEb:
 304              	.LFB1397:
 305              		.loc 2 165 0 is_stmt 1
 306              		.cfi_startproc
 307              	.LVL27:
 308              		.loc 2 165 0
 309 0000 9883001E 		stb 4,30(3)
 310 0004 4E800020 		blr
 311              		.cfi_endproc
 312              	.LFE1397:
 313              		.size	_ZN10GuiElement13SetSelectableEb, .-_ZN10GuiElement13SetSelectableEb
 314              		.section	.text._ZN10GuiElement12SetClickableEb,"axG",@progbits,_ZN10GuiElement12SetClickableEb,com
 315              		.align 2
 316              		.weak	_ZN10GuiElement12SetClickableEb
 317              		.type	_ZN10GuiElement12SetClickableEb, @function
 318              	_ZN10GuiElement12SetClickableEb:
 319              	.LFB1398:
 320              		.loc 2 168 0
 321              		.cfi_startproc
 322              	.LVL28:
 323              		.loc 2 168 0
 324 0000 9883001F 		stb 4,31(3)
 325 0004 4E800020 		blr
 326              		.cfi_endproc
 327              	.LFE1398:
 328              		.size	_ZN10GuiElement12SetClickableEb, .-_ZN10GuiElement12SetClickableEb
 329              		.section	.text._ZN10GuiElement11SetHoldableEb,"axG",@progbits,_ZN10GuiElement11SetHoldableEb,comda
 330              		.align 2
 331              		.weak	_ZN10GuiElement11SetHoldableEb
 332              		.type	_ZN10GuiElement11SetHoldableEb, @function
 333              	_ZN10GuiElement11SetHoldableEb:
 334              	.LFB1399:
 335              		.loc 2 171 0
 336              		.cfi_startproc
 337              	.LVL29:
 338              		.loc 2 171 0
 339 0000 98830020 		stb 4,32(3)
 340 0004 4E800020 		blr
 341              		.cfi_endproc
 342              	.LFE1399:
 343              		.size	_ZN10GuiElement11SetHoldableEb, .-_ZN10GuiElement11SetHoldableEb
 344              		.section	.text._ZN10GuiElement8GetStateEv,"axG",@progbits,_ZN10GuiElement8GetStateEv,comdat
 345              		.align 2
 346              		.weak	_ZN10GuiElement8GetStateEv
 347              		.type	_ZN10GuiElement8GetStateEv, @function
 348              	_ZN10GuiElement8GetStateEv:
 349              	.LFB1400:
 350              		.loc 2 178 0
 351              		.cfi_startproc
 352              	.LVL30:
 353              		.loc 2 178 0
 354 0000 80630048 		lwz 3,72(3)
 355              	.LVL31:
 356 0004 4E800020 		blr
 357              		.cfi_endproc
 358              	.LFE1400:
 359              		.size	_ZN10GuiElement8GetStateEv, .-_ZN10GuiElement8GetStateEv
 360              		.section	.text._ZN10GuiElement12GetStateChanEv,"axG",@progbits,_ZN10GuiElement12GetStateChanEv,com
 361              		.align 2
 362              		.weak	_ZN10GuiElement12GetStateChanEv
 363              		.type	_ZN10GuiElement12GetStateChanEv, @function
 364              	_ZN10GuiElement12GetStateChanEv:
 365              	.LFB1401:
 366              		.loc 2 181 0
 367              		.cfi_startproc
 368              	.LVL32:
 369              		.loc 2 181 0
 370 0000 8063004C 		lwz 3,76(3)
 371              	.LVL33:
 372 0004 4E800020 		blr
 373              		.cfi_endproc
 374              	.LFE1401:
 375              		.size	_ZN10GuiElement12GetStateChanEv, .-_ZN10GuiElement12GetStateChanEv
 376              		.section	.text._ZN10GuiElement8SetAlphaEi,"axG",@progbits,_ZN10GuiElement8SetAlphaEi,comdat
 377              		.align 2
 378              		.weak	_ZN10GuiElement8SetAlphaEi
 379              		.type	_ZN10GuiElement8SetAlphaEi, @function
 380              	_ZN10GuiElement8SetAlphaEi:
 381              	.LFB1403:
 382              		.loc 2 190 0
 383              		.cfi_startproc
 384              	.LVL34:
 385              		.loc 2 190 0
 386 0000 90830038 		stw 4,56(3)
 387 0004 4E800020 		blr
 388              		.cfi_endproc
 389              	.LFE1403:
 390              		.size	_ZN10GuiElement8SetAlphaEi, .-_ZN10GuiElement8SetAlphaEi
 391              		.section	.text._ZN10GuiElement8GetAlphaEv,"axG",@progbits,_ZN10GuiElement8GetAlphaEv,comdat
 392              		.align 2
 393              		.weak	_ZN10GuiElement8GetAlphaEv
 394              		.type	_ZN10GuiElement8GetAlphaEv, @function
 395              	_ZN10GuiElement8GetAlphaEv:
 396              	.LFB1404:
 397              		.loc 2 194 0
 398              		.cfi_startproc
 399              	.LVL35:
 400 0000 7C0802A6 		mflr 0
 401 0004 9421FFD8 		stwu 1,-40(1)
 402              	.LCFI2:
 403              		.cfi_def_cfa_offset 40
 404              		.cfi_register 65, 0
 405 0008 93E10024 		stw 31,36(1)
 406 000c 9001002C 		stw 0,44(1)
 407              	.LBB1334:
 408              		.loc 2 198 0
 409 0010 83E3006C 		lwz 31,108(3)
 410              		.cfi_offset 65, 4
 411              		.cfi_offset 31, -4
 412 0014 2F9F0000 		cmpwi 7,31,0
 413 0018 419C0094 		blt- 7,.L36
 414              	.L34:
 415              	.LVL36:
 416              		.loc 2 203 0
 417 001c 80630060 		lwz 3,96(3)
 418              	.LVL37:
 419 0020 2F830000 		cmpwi 7,3,0
 420 0024 419E0070 		beq- 7,.L35
 421              		.loc 2 204 0
 422 0028 81230000 		lwz 9,0(3)
 423 002c 6FFF8000 		xoris 31,31,0x8000
 424              	.LVL38:
 425 0030 80090064 		lwz 0,100(9)
 426 0034 7C0903A6 		mtctr 0
 427 0038 4E800421 		bctrl
 428 003c 3C004330 		lis 0,0x4330
 429 0040 6C638000 		xoris 3,3,0x8000
 430 0044 90010010 		stw 0,16(1)
 431 0048 90610014 		stw 3,20(1)
 432 004c 3D200000 		lis 9,.LC1@ha
 433 0050 C0090000 		lfs 0,.LC1@l(9)
 434 0054 3D200000 		lis 9,.LC2@ha
 435 0058 C9A10010 		lfd 13,16(1)
 436 005c C1890004 		lfs 12,.LC2@l(9)
 437 0060 39210018 		addi 9,1,24
 438 0064 FDAD0028 		fsub 13,13,0
 439 0068 93E1000C 		stw 31,12(1)
 440 006c 90010008 		stw 0,8(1)
 441 0070 FDA06818 		frsp 13,13
 442 0074 EDAD6024 		fdivs 13,13,12
 443 0078 C9810008 		lfd 12,8(1)
 444 007c FC0C0028 		fsub 0,12,0
 445 0080 FC000018 		frsp 0,0
 446 0084 EC000372 		fmuls 0,0,13
 447 0088 FC00001E 		fctiwz 0,0
 448 008c 7C004FAE 		stfiwx 0,0,9
 449 0090 83E10018 		lwz 31,24(1)
 450              	.LVL39:
 451              	.L35:
 452              	.LBE1334:
 453              		.loc 2 207 0
 454 0094 8001002C 		lwz 0,44(1)
 455 0098 7FE3FB78 		mr 3,31
 456 009c 83E10024 		lwz 31,36(1)
 457              	.LVL40:
 458 00a0 7C0803A6 		mtlr 0
 459 00a4 38210028 		addi 1,1,40
 460              		.cfi_remember_state
 461              	.LCFI3:
 462              		.cfi_def_cfa_offset 0
 463              		.cfi_restore 31
 464 00a8 4E800020 		blr
 465              	.LVL41:
 466              	.L36:
 467              	.LCFI4:
 468              		.cfi_restore_state
 469              	.LBB1335:
 470              		.loc 2 201 0
 471 00ac 83E30038 		lwz 31,56(3)
 472              	.LVL42:
 473 00b0 4BFFFF6C 		b .L34
 474              	.LBE1335:
 475              		.cfi_endproc
 476              	.LFE1404:
 477              		.size	_ZN10GuiElement8GetAlphaEv, .-_ZN10GuiElement8GetAlphaEv
 478              		.section	.text._ZN10GuiElement8SetScaleEf,"axG",@progbits,_ZN10GuiElement8SetScaleEf,comdat
 479              		.align 2
 480              		.weak	_ZN10GuiElement8SetScaleEf
 481              		.type	_ZN10GuiElement8SetScaleEf, @function
 482              	_ZN10GuiElement8SetScaleEf:
 483              	.LFB1405:
 484              		.loc 2 210 0
 485              		.cfi_startproc
 486              	.LVL43:
 487              		.loc 2 212 0
 488 0000 D023003C 		stfs 1,60(3)
 489              		.loc 2 214 0
 490              		.loc 2 213 0
 491 0004 D0230040 		stfs 1,64(3)
 492              		.loc 2 214 0
 493 0008 4E800020 		blr
 494              		.cfi_endproc
 495              	.LFE1405:
 496              		.size	_ZN10GuiElement8SetScaleEf, .-_ZN10GuiElement8SetScaleEf
 497              		.section	.text._ZN10GuiElement9SetScaleXEf,"axG",@progbits,_ZN10GuiElement9SetScaleXEf,comdat
 498              		.align 2
 499              		.weak	_ZN10GuiElement9SetScaleXEf
 500              		.type	_ZN10GuiElement9SetScaleXEf, @function
 501              	_ZN10GuiElement9SetScaleXEf:
 502              	.LFB1406:
 503              		.loc 2 217 0
 504              		.cfi_startproc
 505              	.LVL44:
 506              		.loc 2 217 0
 507 0000 D023003C 		stfs 1,60(3)
 508 0004 4E800020 		blr
 509              		.cfi_endproc
 510              	.LFE1406:
 511              		.size	_ZN10GuiElement9SetScaleXEf, .-_ZN10GuiElement9SetScaleXEf
 512              		.section	.text._ZN10GuiElement9SetScaleYEf,"axG",@progbits,_ZN10GuiElement9SetScaleYEf,comdat
 513              		.align 2
 514              		.weak	_ZN10GuiElement9SetScaleYEf
 515              		.type	_ZN10GuiElement9SetScaleYEf, @function
 516              	_ZN10GuiElement9SetScaleYEf:
 517              	.LFB1407:
 518              		.loc 2 220 0
 519              		.cfi_startproc
 520              	.LVL45:
 521              		.loc 2 220 0
 522 0000 D0230040 		stfs 1,64(3)
 523 0004 4E800020 		blr
 524              		.cfi_endproc
 525              	.LFE1407:
 526              		.size	_ZN10GuiElement9SetScaleYEf, .-_ZN10GuiElement9SetScaleYEf
 527              		.section	.text._ZN10GuiElement8GetScaleEv,"axG",@progbits,_ZN10GuiElement8GetScaleEv,comdat
 528              		.align 2
 529              		.weak	_ZN10GuiElement8GetScaleEv
 530              		.type	_ZN10GuiElement8GetScaleEv, @function
 531              	_ZN10GuiElement8GetScaleEv:
 532              	.LFB1408:
 533              		.loc 2 223 0
 534              		.cfi_startproc
 535              	.LVL46:
 536 0000 7C0802A6 		mflr 0
 537 0004 9421FFF0 		stwu 1,-16(1)
 538              	.LCFI5:
 539              		.cfi_def_cfa_offset 16
 540              		.cfi_register 65, 0
 541              	.LBB1336:
 542              		.loc 2 225 0
 543 0008 3D200000 		lis 9,.LC3@ha
 544              	.LBE1336:
 545              		.loc 2 223 0
 546 000c DBE10008 		stfd 31,8(1)
 547 0010 90010014 		stw 0,20(1)
 548              	.LBB1337:
 549              		.loc 2 225 0
 550 0014 C0030040 		lfs 0,64(3)
 551 0018 C3E3003C 		lfs 31,60(3)
 552              		.cfi_offset 65, 4
 553              		.cfi_offset 63, -8
 554              		.loc 2 227 0
 555 001c 81630060 		lwz 11,96(3)
 556              		.loc 2 225 0
 557 0020 EFFF002A 		fadds 31,31,0
 558 0024 C0090008 		lfs 0,.LC3@l(9)
 559              		.loc 2 227 0
 560 0028 2F8B0000 		cmpwi 7,11,0
 561              		.loc 2 225 0
 562 002c EFFF0032 		fmuls 31,31,0
 563 0030 C0030070 		lfs 0,112(3)
 564 0034 EFFF0032 		fmuls 31,31,0
 565              	.LVL47:
 566              		.loc 2 227 0
 567 0038 419E001C 		beq- 7,.L41
 568              		.loc 2 228 0
 569 003c 812B0000 		lwz 9,0(11)
 570 0040 7D635B78 		mr 3,11
 571              	.LVL48:
 572 0044 80090074 		lwz 0,116(9)
 573 0048 7C0903A6 		mtctr 0
 574 004c 4E800421 		bctrl
 575 0050 EFFF0072 		fmuls 31,31,1
 576              	.LVL49:
 577              	.L41:
 578              	.LBE1337:
 579              		.loc 2 231 0
 580 0054 80010014 		lwz 0,20(1)
 581 0058 FC20F890 		fmr 1,31
 582 005c CBE10008 		lfd 31,8(1)
 583              	.LVL50:
 584 0060 7C0803A6 		mtlr 0
 585 0064 38210010 		addi 1,1,16
 586              	.LCFI6:
 587              		.cfi_def_cfa_offset 0
 588              		.cfi_restore 63
 589 0068 4E800020 		blr
 590              		.cfi_endproc
 591              	.LFE1408:
 592              		.size	_ZN10GuiElement8GetScaleEv, .-_ZN10GuiElement8GetScaleEv
 593              		.section	.text._ZN10GuiElement9GetScaleXEv,"axG",@progbits,_ZN10GuiElement9GetScaleXEv,comdat
 594              		.align 2
 595              		.weak	_ZN10GuiElement9GetScaleXEv
 596              		.type	_ZN10GuiElement9GetScaleXEv, @function
 597              	_ZN10GuiElement9GetScaleXEv:
 598              	.LFB1409:
 599              		.loc 2 234 0
 600              		.cfi_startproc
 601              	.LVL51:
 602 0000 7C0802A6 		mflr 0
 603 0004 9421FFF0 		stwu 1,-16(1)
 604              	.LCFI7:
 605              		.cfi_def_cfa_offset 16
 606              		.cfi_register 65, 0
 607 0008 DBE10008 		stfd 31,8(1)
 608 000c 90010014 		stw 0,20(1)
 609              	.LBB1338:
 610              		.loc 2 238 0
 611 0010 81630060 		lwz 11,96(3)
 612              		.loc 2 236 0
 613 0014 C3E3003C 		lfs 31,60(3)
 614              		.cfi_offset 65, 4
 615              		.cfi_offset 63, -8
 616              		.loc 2 238 0
 617 0018 2F8B0000 		cmpwi 7,11,0
 618              		.loc 2 236 0
 619 001c C0030070 		lfs 0,112(3)
 620 0020 EFFF0032 		fmuls 31,31,0
 621              	.LVL52:
 622              		.loc 2 238 0
 623 0024 419E001C 		beq- 7,.L43
 624              		.loc 2 239 0
 625 0028 812B0000 		lwz 9,0(11)
 626 002c 7D635B78 		mr 3,11
 627              	.LVL53:
 628 0030 80090078 		lwz 0,120(9)
 629 0034 7C0903A6 		mtctr 0
 630 0038 4E800421 		bctrl
 631 003c EFFF0072 		fmuls 31,31,1
 632              	.LVL54:
 633              	.L43:
 634              	.LBE1338:
 635              		.loc 2 242 0
 636 0040 80010014 		lwz 0,20(1)
 637 0044 FC20F890 		fmr 1,31
 638 0048 CBE10008 		lfd 31,8(1)
 639              	.LVL55:
 640 004c 7C0803A6 		mtlr 0
 641 0050 38210010 		addi 1,1,16
 642              	.LCFI8:
 643              		.cfi_def_cfa_offset 0
 644              		.cfi_restore 63
 645 0054 4E800020 		blr
 646              		.cfi_endproc
 647              	.LFE1409:
 648              		.size	_ZN10GuiElement9GetScaleXEv, .-_ZN10GuiElement9GetScaleXEv
 649              		.section	.text._ZN10GuiElement9GetScaleYEv,"axG",@progbits,_ZN10GuiElement9GetScaleYEv,comdat
 650              		.align 2
 651              		.weak	_ZN10GuiElement9GetScaleYEv
 652              		.type	_ZN10GuiElement9GetScaleYEv, @function
 653              	_ZN10GuiElement9GetScaleYEv:
 654              	.LFB1410:
 655              		.loc 2 245 0
 656              		.cfi_startproc
 657              	.LVL56:
 658 0000 7C0802A6 		mflr 0
 659 0004 9421FFF0 		stwu 1,-16(1)
 660              	.LCFI9:
 661              		.cfi_def_cfa_offset 16
 662              		.cfi_register 65, 0
 663 0008 DBE10008 		stfd 31,8(1)
 664 000c 90010014 		stw 0,20(1)
 665              	.LBB1339:
 666              		.loc 2 249 0
 667 0010 81630060 		lwz 11,96(3)
 668              		.loc 2 247 0
 669 0014 C3E30040 		lfs 31,64(3)
 670              		.cfi_offset 65, 4
 671              		.cfi_offset 63, -8
 672              		.loc 2 249 0
 673 0018 2F8B0000 		cmpwi 7,11,0
 674              		.loc 2 247 0
 675 001c C0030070 		lfs 0,112(3)
 676 0020 EFFF0032 		fmuls 31,31,0
 677              	.LVL57:
 678              		.loc 2 249 0
 679 0024 419E001C 		beq- 7,.L45
 680              		.loc 2 250 0
 681 0028 812B0000 		lwz 9,0(11)
 682 002c 7D635B78 		mr 3,11
 683              	.LVL58:
 684 0030 8009007C 		lwz 0,124(9)
 685 0034 7C0903A6 		mtctr 0
 686 0038 4E800421 		bctrl
 687 003c EFFF0072 		fmuls 31,31,1
 688              	.LVL59:
 689              	.L45:
 690              	.LBE1339:
 691              		.loc 2 253 0
 692 0040 80010014 		lwz 0,20(1)
 693 0044 FC20F890 		fmr 1,31
 694 0048 CBE10008 		lfd 31,8(1)
 695              	.LVL60:
 696 004c 7C0803A6 		mtlr 0
 697 0050 38210010 		addi 1,1,16
 698              	.LCFI10:
 699              		.cfi_def_cfa_offset 0
 700              		.cfi_restore 63
 701 0054 4E800020 		blr
 702              		.cfi_endproc
 703              	.LFE1410:
 704              		.size	_ZN10GuiElement9GetScaleYEv, .-_ZN10GuiElement9GetScaleYEv
 705              		.section	.text._ZN10GuiElement6RumbleEv,"axG",@progbits,_ZN10GuiElement6RumbleEv,comdat
 706              		.align 2
 707              		.weak	_ZN10GuiElement6RumbleEv
 708              		.type	_ZN10GuiElement6RumbleEv, @function
 709              	_ZN10GuiElement6RumbleEv:
 710              	.LFB1411:
 711              		.loc 2 256 0
 712              		.cfi_startproc
 713              	.LVL61:
 714              		.loc 2 256 0
 715 0000 8863001C 		lbz 3,28(3)
 716              	.LVL62:
 717 0004 4E800020 		blr
 718              		.cfi_endproc
 719              	.LFE1411:
 720              		.size	_ZN10GuiElement6RumbleEv, .-_ZN10GuiElement6RumbleEv
 721              		.section	.text._ZN10GuiElement9SetRumbleEb,"axG",@progbits,_ZN10GuiElement9SetRumbleEb,comdat
 722              		.align 2
 723              		.weak	_ZN10GuiElement9SetRumbleEb
 724              		.type	_ZN10GuiElement9SetRumbleEb, @function
 725              	_ZN10GuiElement9SetRumbleEb:
 726              	.LFB1412:
 727              		.loc 2 259 0
 728              		.cfi_startproc
 729              	.LVL63:
 730              		.loc 2 259 0
 731 0000 9883001C 		stb 4,28(3)
 732 0004 4E800020 		blr
 733              		.cfi_endproc
 734              	.LFE1412:
 735              		.size	_ZN10GuiElement9SetRumbleEb, .-_ZN10GuiElement9SetRumbleEb
 736              		.section	.text._ZN10GuiElement13SetEffectGrowEv,"axG",@progbits,_ZN10GuiElement13SetEffectGrowEv,c
 737              		.align 2
 738              		.weak	_ZN10GuiElement13SetEffectGrowEv
 739              		.type	_ZN10GuiElement13SetEffectGrowEv, @function
 740              	_ZN10GuiElement13SetEffectGrowEv:
 741              	.LFB1413:
 742              		.loc 2 271 0
 743              		.cfi_startproc
 744              	.LVL64:
 745 0000 7C0802A6 		mflr 0
 746 0004 9421FFF8 		stwu 1,-8(1)
 747              	.LCFI11:
 748              		.cfi_def_cfa_offset 8
 749              		.cfi_register 65, 0
 750 0008 81230000 		lwz 9,0(3)
 751 000c 38800100 		li 4,256
 752 0010 38A00004 		li 5,4
 753 0014 38C0006E 		li 6,110
 754 0018 9001000C 		stw 0,12(1)
 755              		.loc 2 271 0
 756 001c 8009008C 		lwz 0,140(9)
 757              		.cfi_offset 65, 4
 758 0020 7C0903A6 		mtctr 0
 759 0024 4E800421 		bctrl
 760              	.LVL65:
 761 0028 8001000C 		lwz 0,12(1)
 762 002c 38210008 		addi 1,1,8
 763              	.LCFI12:
 764              		.cfi_def_cfa_offset 0
 765 0030 7C0803A6 		mtlr 0
 766 0034 4E800020 		blr
 767              		.cfi_endproc
 768              	.LFE1413:
 769              		.size	_ZN10GuiElement13SetEffectGrowEv, .-_ZN10GuiElement13SetEffectGrowEv
 770              		.section	.text._ZNK10GuiElement9GetEffectEv,"axG",@progbits,_ZNK10GuiElement9GetEffectEv,comdat
 771              		.align 2
 772              		.weak	_ZNK10GuiElement9GetEffectEv
 773              		.type	_ZNK10GuiElement9GetEffectEv, @function
 774              	_ZNK10GuiElement9GetEffectEv:
 775              	.LFB1414:
 776              		.loc 2 276 0
 777              		.cfi_startproc
 778              	.LVL66:
 779              		.loc 2 276 0
 780 0000 80630078 		lwz 3,120(3)
 781              	.LVL67:
 782 0004 4E800020 		blr
 783              		.cfi_endproc
 784              	.LFE1414:
 785              		.size	_ZNK10GuiElement9GetEffectEv, .-_ZNK10GuiElement9GetEffectEv
 786              		.section	.text._ZNK10GuiElement10IsAnimatedEv,"axG",@progbits,_ZNK10GuiElement10IsAnimatedEv,comda
 787              		.align 2
 788              		.weak	_ZNK10GuiElement10IsAnimatedEv
 789              		.type	_ZNK10GuiElement10IsAnimatedEv, @function
 790              	_ZNK10GuiElement10IsAnimatedEv:
 791              	.LFB1415:
 792              		.loc 2 278 0
 793              		.cfi_startproc
 794              	.LVL68:
 795 0000 7C0802A6 		mflr 0
 796 0004 9421FFF8 		stwu 1,-8(1)
 797              	.LCFI13:
 798              		.cfi_def_cfa_offset 8
 799              		.cfi_register 65, 0
 800 0008 9001000C 		stw 0,12(1)
 801              		.loc 2 278 0
 802 000c 81230000 		lwz 9,0(3)
 803 0010 80090098 		lwz 0,152(9)
 804              		.cfi_offset 65, 4
 805 0014 7C0903A6 		mtctr 0
 806 0018 4E800421 		bctrl
 807              	.LVL69:
 808 001c 7C60FE70 		srawi 0,3,31
 809 0020 7C630050 		subf 3,3,0
 810 0024 8001000C 		lwz 0,12(1)
 811 0028 54630FFE 		srwi 3,3,31
 812 002c 7C0803A6 		mtlr 0
 813 0030 38210008 		addi 1,1,8
 814              	.LCFI14:
 815              		.cfi_def_cfa_offset 0
 816 0034 4E800020 		blr
 817              		.cfi_endproc
 818              	.LFE1415:
 819              		.size	_ZNK10GuiElement10IsAnimatedEv, .-_ZNK10GuiElement10IsAnimatedEv
 820              		.section	.text._ZN10GuiElement8IsInsideEii,"axG",@progbits,_ZN10GuiElement8IsInsideEii,comdat
 821              		.align 2
 822              		.weak	_ZN10GuiElement8IsInsideEii
 823              		.type	_ZN10GuiElement8IsInsideEii, @function
 824              	_ZN10GuiElement8IsInsideEii:
 825              	.LFB1417:
 826              		.loc 2 285 0
 827              		.cfi_startproc
 828              	.LVL70:
 829 0000 7C0802A6 		mflr 0
 830 0004 9421FFE8 		stwu 1,-24(1)
 831              	.LCFI15:
 832              		.cfi_def_cfa_offset 24
 833              		.cfi_register 65, 0
 834 0008 93810008 		stw 28,8(1)
 835 000c 7CBC2B78 		mr 28,5
 836              		.cfi_offset 28, -16
 837 0010 9001001C 		stw 0,28(1)
 838 0014 93A1000C 		stw 29,12(1)
 839              		.loc 2 290 0
 840 0018 3BA00000 		li 29,0
 841              		.cfi_offset 29, -12
 842              		.cfi_offset 65, 4
 843              		.loc 2 287 0
 844 001c 81230000 		lwz 9,0(3)
 845              		.loc 2 285 0
 846 0020 93C10010 		stw 30,16(1)
 847 0024 7C9E2378 		mr 30,4
 848              		.cfi_offset 30, -8
 849              		.loc 2 287 0
 850 0028 80090010 		lwz 0,16(9)
 851              		.loc 2 285 0
 852 002c 93E10014 		stw 31,20(1)
 853              		.loc 2 285 0
 854 0030 7C7F1B78 		mr 31,3
 855              		.cfi_offset 31, -4
 856              		.loc 2 287 0
 857 0034 7C0903A6 		mtctr 0
 858 0038 4E800421 		bctrl
 859              	.LVL71:
 860              		.loc 2 290 0
 861 003c 7F83F000 		cmpw 7,3,30
 862 0040 419C0028 		blt- 7,.L56
 863              	.L52:
 864              		.loc 2 291 0 discriminator 6
 865 0044 8001001C 		lwz 0,28(1)
 866 0048 7FA3EB78 		mr 3,29
 867 004c 83810008 		lwz 28,8(1)
 868              	.LVL72:
 869 0050 7C0803A6 		mtlr 0
 870 0054 83A1000C 		lwz 29,12(1)
 871 0058 83C10010 		lwz 30,16(1)
 872              	.LVL73:
 873 005c 83E10014 		lwz 31,20(1)
 874              	.LVL74:
 875 0060 38210018 		addi 1,1,24
 876              		.cfi_remember_state
 877              	.LCFI16:
 878              		.cfi_def_cfa_offset 0
 879              		.cfi_restore 31
 880              		.cfi_restore 30
 881              		.cfi_restore 29
 882              		.cfi_restore 28
 883 0064 4E800020 		blr
 884              	.LVL75:
 885              	.L56:
 886              	.LCFI17:
 887              		.cfi_restore_state
 888              		.loc 2 288 0 discriminator 1
 889 0068 813F0000 		lwz 9,0(31)
 890 006c 7FE3FB78 		mr 3,31
 891 0070 80090010 		lwz 0,16(9)
 892 0074 7C0903A6 		mtctr 0
 893 0078 4E800421 		bctrl
 894              		.loc 2 290 0 discriminator 1
 895 007c 801F0024 		lwz 0,36(31)
 896 0080 7C030214 		add 0,3,0
 897 0084 7F9E0000 		cmpw 7,30,0
 898 0088 409CFFBC 		bge+ 7,.L52
 899              		.loc 2 289 0 discriminator 3
 900 008c 813F0000 		lwz 9,0(31)
 901 0090 7FE3FB78 		mr 3,31
 902 0094 80090014 		lwz 0,20(9)
 903 0098 7C0903A6 		mtctr 0
 904 009c 4E800421 		bctrl
 905              		.loc 2 290 0 discriminator 3
 906 00a0 7F83E000 		cmpw 7,3,28
 907 00a4 409CFFA0 		bge+ 7,.L52
 908              		.loc 2 290 0 is_stmt 0 discriminator 4
 909 00a8 813F0000 		lwz 9,0(31)
 910 00ac 7FE3FB78 		mr 3,31
 911 00b0 80090014 		lwz 0,20(9)
 912 00b4 7C0903A6 		mtctr 0
 913 00b8 4E800421 		bctrl
 914 00bc 801F0028 		lwz 0,40(31)
 915 00c0 7C030214 		add 0,3,0
 916              		.loc 2 285 0 is_stmt 1 discriminator 4
 917 00c4 7F9C0000 		cmpw 7,28,0
 918 00c8 7FA00026 		mfcr 29
 919 00cc 57BDEFFE 		rlwinm 29,29,29,1
 920 00d0 4BFFFF74 		b .L52
 921              		.cfi_endproc
 922              	.LFE1417:
 923              		.size	_ZN10GuiElement8IsInsideEii, .-_ZN10GuiElement8IsInsideEii
 924              		.section	.text._ZN10GuiElement11SetPositionEii,"axG",@progbits,_ZN10GuiElement11SetPositionEii,com
 925              		.align 2
 926              		.weak	_ZN10GuiElement11SetPositionEii
 927              		.type	_ZN10GuiElement11SetPositionEii, @function
 928              	_ZN10GuiElement11SetPositionEii:
 929              	.LFB1418:
 930              		.loc 2 295 0
 931              		.cfi_startproc
 932              	.LVL76:
 933              		.loc 2 297 0
 934 0000 9083002C 		stw 4,44(3)
 935              		.loc 2 299 0
 936              		.loc 2 298 0
 937 0004 90A30030 		stw 5,48(3)
 938              		.loc 2 299 0
 939 0008 4E800020 		blr
 940              		.cfi_endproc
 941              	.LFE1418:
 942              		.size	_ZN10GuiElement11SetPositionEii, .-_ZN10GuiElement11SetPositionEii
 943              		.section	.text._ZN10GuiElement11SetPositionEiii,"axG",@progbits,_ZN10GuiElement11SetPositionEiii,c
 944              		.align 2
 945              		.weak	_ZN10GuiElement11SetPositionEiii
 946              		.type	_ZN10GuiElement11SetPositionEiii, @function
 947              	_ZN10GuiElement11SetPositionEiii:
 948              	.LFB1419:
 949              		.loc 2 304 0
 950              		.cfi_startproc
 951              	.LVL77:
 952              		.loc 2 306 0
 953 0000 9083002C 		stw 4,44(3)
 954              		.loc 2 309 0
 955              		.loc 2 307 0
 956 0004 90A30030 		stw 5,48(3)
 957              		.loc 2 308 0
 958 0008 90C30034 		stw 6,52(3)
 959              		.loc 2 309 0
 960 000c 4E800020 		blr
 961              		.cfi_endproc
 962              	.LFE1419:
 963              		.size	_ZN10GuiElement11SetPositionEiii, .-_ZN10GuiElement11SetPositionEiii
 964              		.section	.text._ZN10GuiElement12SetAlignmentEi,"axG",@progbits,_ZN10GuiElement12SetAlignmentEi,com
 965              		.align 2
 966              		.weak	_ZN10GuiElement12SetAlignmentEi
 967              		.type	_ZN10GuiElement12SetAlignmentEi, @function
 968              	_ZN10GuiElement12SetAlignmentEi:
 969              	.LFB1421:
 970              		.loc 2 316 0
 971              		.cfi_startproc
 972              	.LVL78:
 973              		.loc 2 316 0
 974 0000 90830044 		stw 4,68(3)
 975 0004 4E800020 		blr
 976              		.cfi_endproc
 977              	.LFE1421:
 978              		.size	_ZN10GuiElement12SetAlignmentEi, .-_ZN10GuiElement12SetAlignmentEi
 979              		.section	.text._ZNK10GuiElement12GetAlignmentEv,"axG",@progbits,_ZNK10GuiElement12GetAlignmentEv,c
 980              		.align 2
 981              		.weak	_ZNK10GuiElement12GetAlignmentEv
 982              		.type	_ZNK10GuiElement12GetAlignmentEv, @function
 983              	_ZNK10GuiElement12GetAlignmentEv:
 984              	.LFB1422:
 985              		.loc 2 318 0
 986              		.cfi_startproc
 987              	.LVL79:
 988              		.loc 2 318 0
 989 0000 80630044 		lwz 3,68(3)
 990              	.LVL80:
 991 0004 4E800020 		blr
 992              		.cfi_endproc
 993              	.LFE1422:
 994              		.size	_ZNK10GuiElement12GetAlignmentEv, .-_ZNK10GuiElement12GetAlignmentEv
 995              		.section	.text._ZN8GuiFrame4hideEv,"axG",@progbits,_ZN8GuiFrame4hideEv,comdat
 996              		.align 2
 997              		.weak	_ZN8GuiFrame4hideEv
 998              		.type	_ZN8GuiFrame4hideEv, @function
 999              	_ZN8GuiFrame4hideEv:
 1000              	.LFB1432:
 1001              		.file 3 "d:/Projects/SaveGameManager/savegame-manager-gx/trunk/source/Settings/menus/../../GUI/gui
 1002              		.loc 3 81 0
 1003              		.cfi_startproc
 1004              	.LVL81:
 1005              		.loc 3 81 0
 1006 0000 4E800020 		blr
 1007              		.cfi_endproc
 1008              	.LFE1432:
 1009              		.size	_ZN8GuiFrame4hideEv, .-_ZN8GuiFrame4hideEv
 1010              		.section	.text._ZN8GuiFrame4execEv,"axG",@progbits,_ZN8GuiFrame4execEv,comdat
 1011              		.align 2
 1012              		.weak	_ZN8GuiFrame4execEv
 1013              		.type	_ZN8GuiFrame4execEv, @function
 1014              	_ZN8GuiFrame4execEv:
 1015              	.LFB1433:
 1016              		.loc 3 83 0
 1017              		.cfi_startproc
 1018              	.LVL82:
 1019              		.loc 3 83 0
 1020 0000 4E800020 		blr
 1021              		.cfi_endproc
 1022              	.LFE1433:
 1023              		.size	_ZN8GuiFrame4execEv, .-_ZN8GuiFrame4execEv
 1024              		.section	.text._ZN8GuiFrame12updateEventsEv,"axG",@progbits,_ZN8GuiFrame12updateEventsEv,comdat
 1025              		.align 2
 1026              		.weak	_ZN8GuiFrame12updateEventsEv
 1027              		.type	_ZN8GuiFrame12updateEventsEv, @function
 1028              	_ZN8GuiFrame12updateEventsEv:
 1029              	.LFB1434:
 1030              		.loc 3 85 0
 1031              		.cfi_startproc
 1032              	.LVL83:
 1033              		.loc 3 85 0
 1034 0000 4E800020 		blr
 1035              		.cfi_endproc
 1036              	.LFE1434:
 1037              		.size	_ZN8GuiFrame12updateEventsEv, .-_ZN8GuiFrame12updateEventsEv
 1038              		.section	.text._ZN17ParentalControlSMD1Ev,"axG",@progbits,_ZN17ParentalControlSMD1Ev,comdat
 1039              		.align 2
 1040              		.weak	_ZThn176_N17ParentalControlSMD1Ev
 1041              		.type	_ZThn176_N17ParentalControlSMD1Ev, @function
 1042              	_ZThn176_N17ParentalControlSMD1Ev:
 1043              	.LFB1957:
 1044              		.cfi_startproc
 1045 0000 3863FF50 		addi 3,3,-176
 1046 0004 48000000 		b .LTHUNK0
 1047              		.cfi_endproc
 1048              	.LFE1957:
 1049              		.size	_ZThn176_N17ParentalControlSMD1Ev, .-_ZThn176_N17ParentalControlSMD1Ev
 1050              		.section	.text._ZN17ParentalControlSMD2Ev,"axG",@progbits,_ZN17ParentalControlSMD5Ev,comdat
 1051              		.align 2
 1052              		.weak	_ZN17ParentalControlSMD2Ev
 1053              		.type	_ZN17ParentalControlSMD2Ev, @function
 1054              	_ZN17ParentalControlSMD2Ev:
 1055              	.LFB1854:
 1056              		.file 4 "d:/Projects/SaveGameManager/savegame-manager-gx/trunk/source/Settings/menus/ParentalContr
 1057              		.loc 4 29 0
 1058              		.cfi_startproc
 1059              	.LVL84:
 1060 0000 7C0802A6 		mflr 0
 1061 0004 9421FFF8 		stwu 1,-8(1)
 1062              	.LCFI18:
 1063              		.cfi_def_cfa_offset 8
 1064              		.cfi_register 65, 0
 1065              	.LBB1341:
 1066 0008 3D600000 		lis 11,_ZTV17ParentalControlSM+8@ha
 1067 000c 396B0008 		la 11,_ZTV17ParentalControlSM+8@l(11)
 1068              	.LBE1341:
 1069 0010 9001000C 		stw 0,12(1)
 1070              	.LBB1342:
 1071              		.loc 4 29 0
 1072 0014 380B00F0 		addi 0,11,240
 1073              		.cfi_offset 65, 4
 1074 0018 900300B0 		stw 0,176(3)
 1075 001c 91630000 		stw 11,0(3)
 1076 0020 48000001 		bl _ZN15SettingsBrowserD2Ev
 1077              	.LVL85:
 1078              	.LBE1342:
 1079 0024 8001000C 		lwz 0,12(1)
 1080 0028 38210008 		addi 1,1,8
 1081              	.LCFI19:
 1082              		.cfi_def_cfa_offset 0
 1083 002c 7C0803A6 		mtlr 0
 1084 0030 4E800020 		blr
 1085              		.cfi_endproc
 1086              	.LFE1854:
 1087              		.size	_ZN17ParentalControlSMD2Ev, .-_ZN17ParentalControlSMD2Ev
 1088              		.section	".text"
 1089              		.align 2
 1090              		.globl _ZN17ParentalControlSM14OnBrowserClickEP16GuiOptionBrowseri
 1091              		.type	_ZN17ParentalControlSM14OnBrowserClickEP16GuiOptionBrowseri, @function
 1092              	_ZN17ParentalControlSM14OnBrowserClickEP16GuiOptionBrowseri:
 1093              	.LFB1589:
 1094              		.file 5 "d:/Projects/SaveGameManager/savegame-manager-gx/trunk/source/Settings/menus/ParentalContr
 1095              		.loc 5 158 0
 1096              		.cfi_startproc
 1097              	.LVL86:
 1098              	.LBB1343:
 1099              		.loc 5 160 0
 1100 0000 2C050000 		cmpwi 0,5,0
 1101              	.LBE1343:
 1102              		.loc 5 158 0
 1103 0004 7C0802A6 		mflr 0
 1104 0008 9421FF70 		stwu 1,-144(1)
 1105              	.LCFI20:
 1106              		.cfi_def_cfa_offset 144
 1107              		.cfi_register 65, 0
 1108 000c 93E1008C 		stw 31,140(1)
 1109 0010 7C7F1B78 		mr 31,3
 1110              		.cfi_offset 31, -4
 1111 0014 90010094 		stw 0,148(1)
 1112 0018 9361007C 		stw 27,124(1)
 1113 001c 93810080 		stw 28,128(1)
 1114 0020 93A10084 		stw 29,132(1)
 1115 0024 93C10088 		stw 30,136(1)
 1116              	.LBB1354:
 1117              		.loc 5 160 0
 1118 0028 40810014 		ble- 0,.L67
 1119              		.cfi_offset 30, -8
 1120              		.cfi_offset 29, -12
 1121              		.cfi_offset 28, -16
 1122              		.cfi_offset 27, -20
 1123              		.cfi_offset 65, 4
 1124              		.loc 5 160 0 is_stmt 0 discriminator 1
 1125 002c 3D200000 		lis 9,Settings+1258@ha
 1126 0030 A80904EA 		lha 0,Settings+1258@l(9)
 1127 0034 2F800000 		cmpwi 7,0,0
 1128 0038 419E0060 		beq- 7,.L96
 1129              	.L67:
 1130              	.LBB1344:
 1131              		.loc 5 166 0 is_stmt 1
 1132 003c 2B850014 		cmplwi 7,5,20
 1133 0040 409D003C 		ble- 7,.L97
 1134              	.LVL87:
 1135              	.L69:
 1136              	.LBE1344:
 1137              		.loc 5 265 0
 1138 0044 813F0000 		lwz 9,0(31)
 1139 0048 7FE3FB78 		mr 3,31
 1140 004c 800900E0 		lwz 0,224(9)
 1141 0050 7C0903A6 		mtctr 0
 1142 0054 4E800421 		bctrl
 1143              	.LBE1354:
 1144              		.loc 5 266 0
 1145 0058 80010094 		lwz 0,148(1)
 1146 005c 8361007C 		lwz 27,124(1)
 1147 0060 7C0803A6 		mtlr 0
 1148 0064 83810080 		lwz 28,128(1)
 1149 0068 83A10084 		lwz 29,132(1)
 1150 006c 83C10088 		lwz 30,136(1)
 1151 0070 83E1008C 		lwz 31,140(1)
 1152              	.LVL88:
 1153 0074 38210090 		addi 1,1,144
 1154              		.cfi_remember_state
 1155              	.LCFI21:
 1156              		.cfi_def_cfa_offset 0
 1157              		.cfi_restore 31
 1158              		.cfi_restore 30
 1159              		.cfi_restore 29
 1160              		.cfi_restore 28
 1161              		.cfi_restore 27
 1162 0078 4E800020 		blr
 1163              	.LVL89:
 1164              	.L97:
 1165              	.LCFI22:
 1166              		.cfi_restore_state
 1167              	.LBB1355:
 1168              	.LBB1352:
 1169              		.loc 5 166 0
 1170 007c 3D200000 		lis 9,.L91@ha
 1171 0080 54A5103A 		slwi 5,5,2
 1172              	.LVL90:
 1173 0084 39290000 		la 9,.L91@l(9)
 1174 0088 7C09282E 		lwzx 0,9,5
 1175 008c 7D204A14 		add 9,0,9
 1176 0090 7D2903A6 		mtctr 9
 1177 0094 4E800420 		bctr
 1178              		.section	.rodata
 1179              		.align 2
 1180              		.align 2
 1181              	.L91:
 1182 0000 00000134 		.long .L70-.L91
 1183 0004 00000170 		.long .L71-.L91
 1184 0008 00000208 		.long .L72-.L91
 1185 000c 00000238 		.long .L73-.L91
 1186 0010 00000254 		.long .L74-.L91
 1187 0014 00000270 		.long .L75-.L91
 1188 0018 0000028C 		.long .L76-.L91
 1189 001c 000002A8 		.long .L77-.L91
 1190 0020 000002C4 		.long .L78-.L91
 1191 0024 000002E0 		.long .L79-.L91
 1192 0028 000002FC 		.long .L80-.L91
 1193 002c 00000318 		.long .L81-.L91
 1194 0030 00000334 		.long .L82-.L91
 1195 0034 00000350 		.long .L83-.L91
 1196 0038 0000036C 		.long .L84-.L91
 1197 003c 00000388 		.long .L85-.L91
 1198 0040 000003A4 		.long .L86-.L91
 1199 0044 000003C0 		.long .L87-.L91
 1200 0048 000003DC 		.long .L88-.L91
 1201 004c 00000150 		.long .L89-.L91
 1202 0050 0000016C 		.long .L90-.L91
 1203              		.section	".text"
 1204              	.LVL91:
 1205              	.L96:
 1206              	.LBE1352:
 1207              		.loc 5 162 0
 1208 0098 3C600000 		lis 3,.LC4@ha
 1209              	.LVL92:
 1210 009c 38630000 		la 3,.LC4@l(3)
 1211 00a0 48000001 		bl gettext
 1212              	.LVL93:
 1213 00a4 7C7E1B78 		mr 30,3
 1214 00a8 3C600000 		lis 3,.LC5@ha
 1215 00ac 38630014 		la 3,.LC5@l(3)
 1216 00b0 48000001 		bl gettext
 1217 00b4 7C7F1B78 		mr 31,3
 1218              	.LVL94:
 1219 00b8 3C600000 		lis 3,.LC6@ha
 1220 00bc 38630040 		la 3,.LC6@l(3)
 1221 00c0 48000001 		bl gettext
 1222 00c4 7FE4FB78 		mr 4,31
 1223 00c8 7C651B78 		mr 5,3
 1224 00cc 38C00000 		li 6,0
 1225 00d0 7FC3F378 		mr 3,30
 1226 00d4 38E00000 		li 7,0
 1227 00d8 39000000 		li 8,0
 1228 00dc 48000001 		bl _Z12WindowPromptPKcS0_S0_S0_S0_S0_
 1229              	.LBE1355:
 1230              		.loc 5 266 0
 1231 00e0 80010094 		lwz 0,148(1)
 1232 00e4 8361007C 		lwz 27,124(1)
 1233 00e8 7C0803A6 		mtlr 0
 1234 00ec 83810080 		lwz 28,128(1)
 1235 00f0 83A10084 		lwz 29,132(1)
 1236 00f4 83C10088 		lwz 30,136(1)
 1237 00f8 83E1008C 		lwz 31,140(1)
 1238 00fc 38210090 		addi 1,1,144
 1239              		.cfi_remember_state
 1240              		.cfi_restore 27
 1241              		.cfi_restore 28
 1242              		.cfi_restore 29
 1243              		.cfi_restore 30
 1244              		.cfi_restore 31
 1245              	.LCFI23:
 1246              		.cfi_def_cfa_offset 0
 1247 0100 4E800020 		blr
 1248              	.LVL95:
 1249              	.L89:
 1250              	.LCFI24:
 1251              		.cfi_restore_state
 1252              	.LBB1356:
 1253              	.LBB1353:
 1254              	.LBB1345:
 1255              		.loc 5 256 0
 1256 0104 3D200000 		lis 9,Settings@ha
 1257 0108 39290000 		la 9,Settings@l(9)
 1258 010c 80090504 		lwz 0,1284(9)
 1259 0110 6C000001 		xoris 0,0,0x1
 1260 0114 90090504 		stw 0,1284(9)
 1261              		.loc 5 257 0
 1262 0118 4BFFFF2C 		b .L69
 1263              	.L90:
 1264              		.loc 5 259 0
 1265 011c 3D200000 		lis 9,Settings@ha
 1266 0120 39290000 		la 9,Settings@l(9)
 1267 0124 80090504 		lwz 0,1284(9)
 1268 0128 6C000002 		xoris 0,0,0x2
 1269 012c 90090504 		stw 0,1284(9)
 1270              		.loc 5 260 0
 1271 0130 4BFFFF14 		b .L69
 1272              	.L70:
 1273              	.LBB1346:
 1274              		.loc 5 169 0
 1275 0134 3FC00000 		lis 30,Settings@ha
 1276 0138 3BDE0000 		la 30,Settings@l(30)
 1277 013c A81E04EA 		lha 0,1258(30)
 1278 0140 2F800000 		cmpwi 7,0,0
 1279 0144 409E0268 		bne- 7,.L92
 1280              	.LBB1347:
 1281              		.loc 5 172 0
 1282 0148 387E04EC 		addi 3,30,1260
 1283              	.LVL96:
 1284 014c 48000001 		bl _Z13PasswordCheckPKc
 1285              	.LVL97:
 1286              		.loc 5 173 0
 1287 0150 2C030000 		cmpwi 0,3,0
 1288 0154 4081030C 		ble- 0,.L93
 1289              		.loc 5 175 0
 1290 0158 2F830001 		cmpwi 7,3,1
 1291 015c 419E0324 		beq- 7,.L98
 1292              	.LVL98:
 1293              	.L94:
 1294              		.loc 5 177 0
 1295 0160 38000001 		li 0,1
 1296 0164 B01E04EA 		sth 0,1258(30)
 1297 0168 4BFFFEDC 		b .L69
 1298              	.LVL99:
 1299              	.L71:
 1300              	.LBE1347:
 1301              	.LBE1346:
 1302              	.LBB1350:
 1303              		.loc 5 195 0
 1304 016c 3FC00000 		lis 30,Settings+1260@ha
 1305 0170 38800064 		li 4,100
 1306              	.LVL100:
 1307 0174 3BDE04EC 		la 30,Settings+1260@l(30)
 1308 0178 38610008 		addi 3,1,8
 1309 017c 7FC5F378 		mr 5,30
 1310 0180 4CC63182 		crxor 6,6,6
 1311 0184 48000001 		bl snprintf
 1312              		.loc 5 196 0
 1313 0188 38610008 		addi 3,1,8
 1314 018c 38800009 		li 4,9
 1315 0190 38A00001 		li 5,1
 1316 0194 48000001 		bl _Z14OnScreenNumpadPctb
 1317              	.LVL101:
 1318              		.loc 5 197 0
 1319 0198 2F830000 		cmpwi 7,3,0
 1320 019c 419EFEA8 		beq+ 7,.L69
 1321              		.loc 5 199 0
 1322 01a0 38A10008 		addi 5,1,8
 1323 01a4 38800014 		li 4,20
 1324 01a8 7FC3F378 		mr 3,30
 1325              	.LVL102:
 1326 01ac 4CC63182 		crxor 6,6,6
 1327 01b0 48000001 		bl snprintf
 1328              		.loc 5 200 0
 1329 01b4 3C600000 		lis 3,.LC16@ha
 1330 01b8 386300FC 		la 3,.LC16@l(3)
 1331 01bc 48000001 		bl gettext
 1332 01c0 7C7D1B78 		mr 29,3
 1333 01c4 3C600000 		lis 3,.LC17@ha
 1334 01c8 38630108 		la 3,.LC17@l(3)
 1335              	.L95:
 1336 01cc 48000001 		bl gettext
 1337 01d0 7C7E1B78 		mr 30,3
 1338 01d4 3C600000 		lis 3,.LC6@ha
 1339 01d8 38630040 		la 3,.LC6@l(3)
 1340 01dc 48000001 		bl gettext
 1341 01e0 7FC4F378 		mr 4,30
 1342 01e4 7C651B78 		mr 5,3
 1343 01e8 38C00000 		li 6,0
 1344 01ec 7FA3EB78 		mr 3,29
 1345 01f0 38E00000 		li 7,0
 1346 01f4 39000000 		li 8,0
 1347 01f8 48000001 		bl _Z12WindowPromptPKcS0_S0_S0_S0_S0_
 1348 01fc 4BFFFE48 		b .L69
 1349              	.LVL103:
 1350              	.L72:
 1351              	.LBE1350:
 1352              		.loc 5 205 0
 1353 0200 3D200000 		lis 9,Settings@ha
 1354 0204 39290000 		la 9,Settings@l(9)
 1355 0208 A1690500 		lhz 11,1280(9)
 1356 020c 380B0001 		addi 0,11,1
 1357 0210 7C000734 		extsh 0,0
 1358 0214 2F800001 		cmpwi 7,0,1
 1359 0218 B0090500 		sth 0,1280(9)
 1360 021c 40BDFE28 		ble- 7,.L69
 1361              		.loc 5 205 0 is_stmt 0 discriminator 1
 1362 0220 38000000 		li 0,0
 1363 0224 B0090500 		sth 0,1280(9)
 1364 0228 4BFFFE1C 		b .L69
 1365              	.L73:
 1366              		.loc 5 208 0 is_stmt 1
 1367 022c 3D200000 		lis 9,Settings@ha
 1368 0230 39290000 		la 9,Settings@l(9)
 1369 0234 80090504 		lwz 0,1284(9)
 1370 0238 68000001 		xori 0,0,1
 1371 023c 90090504 		stw 0,1284(9)
 1372              		.loc 5 209 0
 1373 0240 4BFFFE04 		b .L69
 1374              	.L74:
 1375              		.loc 5 211 0
 1376 0244 3D200000 		lis 9,Settings@ha
 1377 0248 39290000 		la 9,Settings@l(9)
 1378 024c 80090504 		lwz 0,1284(9)
 1379 0250 68000002 		xori 0,0,2
 1380 0254 90090504 		stw 0,1284(9)
 1381              		.loc 5 212 0
 1382 0258 4BFFFDEC 		b .L69
 1383              	.L75:
 1384              		.loc 5 214 0
 1385 025c 3D200000 		lis 9,Settings@ha
 1386 0260 39290000 		la 9,Settings@l(9)
 1387 0264 80090504 		lwz 0,1284(9)
 1388 0268 68000004 		xori 0,0,4
 1389 026c 90090504 		stw 0,1284(9)
 1390              		.loc 5 215 0
 1391 0270 4BFFFDD4 		b .L69
 1392              	.L76:
 1393              		.loc 5 217 0
 1394 0274 3D200000 		lis 9,Settings@ha
 1395 0278 39290000 		la 9,Settings@l(9)
 1396 027c 80090504 		lwz 0,1284(9)
 1397 0280 68000008 		xori 0,0,8
 1398 0284 90090504 		stw 0,1284(9)
 1399              		.loc 5 218 0
 1400 0288 4BFFFDBC 		b .L69
 1401              	.L77:
 1402              		.loc 5 220 0
 1403 028c 3D200000 		lis 9,Settings@ha
 1404 0290 39290000 		la 9,Settings@l(9)
 1405 0294 80090504 		lwz 0,1284(9)
 1406 0298 68000010 		xori 0,0,16
 1407 029c 90090504 		stw 0,1284(9)
 1408              		.loc 5 221 0
 1409 02a0 4BFFFDA4 		b .L69
 1410              	.L78:
 1411              		.loc 5 223 0
 1412 02a4 3D200000 		lis 9,Settings@ha
 1413 02a8 39290000 		la 9,Settings@l(9)
 1414 02ac 80090504 		lwz 0,1284(9)
 1415 02b0 68000020 		xori 0,0,32
 1416 02b4 90090504 		stw 0,1284(9)
 1417              		.loc 5 224 0
 1418 02b8 4BFFFD8C 		b .L69
 1419              	.L79:
 1420              		.loc 5 226 0
 1421 02bc 3D200000 		lis 9,Settings@ha
 1422 02c0 39290000 		la 9,Settings@l(9)
 1423 02c4 80090504 		lwz 0,1284(9)
 1424 02c8 68000040 		xori 0,0,64
 1425 02cc 90090504 		stw 0,1284(9)
 1426              		.loc 5 227 0
 1427 02d0 4BFFFD74 		b .L69
 1428              	.L80:
 1429              		.loc 5 229 0
 1430 02d4 3D200000 		lis 9,Settings@ha
 1431 02d8 39290000 		la 9,Settings@l(9)
 1432 02dc 80090504 		lwz 0,1284(9)
 1433 02e0 68000080 		xori 0,0,128
 1434 02e4 90090504 		stw 0,1284(9)
 1435              		.loc 5 230 0
 1436 02e8 4BFFFD5C 		b .L69
 1437              	.L81:
 1438              		.loc 5 232 0
 1439 02ec 3D200000 		lis 9,Settings@ha
 1440 02f0 39290000 		la 9,Settings@l(9)
 1441 02f4 80090504 		lwz 0,1284(9)
 1442 02f8 68000100 		xori 0,0,256
 1443 02fc 90090504 		stw 0,1284(9)
 1444              		.loc 5 233 0
 1445 0300 4BFFFD44 		b .L69
 1446              	.L82:
 1447              		.loc 5 235 0
 1448 0304 3D200000 		lis 9,Settings@ha
 1449 0308 39290000 		la 9,Settings@l(9)
 1450 030c 80090504 		lwz 0,1284(9)
 1451 0310 68000200 		xori 0,0,512
 1452 0314 90090504 		stw 0,1284(9)
 1453              		.loc 5 236 0
 1454 0318 4BFFFD2C 		b .L69
 1455              	.L83:
 1456              		.loc 5 238 0
 1457 031c 3D200000 		lis 9,Settings@ha
 1458 0320 39290000 		la 9,Settings@l(9)
 1459 0324 80090504 		lwz 0,1284(9)
 1460 0328 68000400 		xori 0,0,1024
 1461 032c 90090504 		stw 0,1284(9)
 1462              		.loc 5 239 0
 1463 0330 4BFFFD14 		b .L69
 1464              	.L84:
 1465              		.loc 5 241 0
 1466 0334 3D200000 		lis 9,Settings@ha
 1467 0338 39290000 		la 9,Settings@l(9)
 1468 033c 80090504 		lwz 0,1284(9)
 1469 0340 68000800 		xori 0,0,2048
 1470 0344 90090504 		stw 0,1284(9)
 1471              		.loc 5 242 0
 1472 0348 4BFFFCFC 		b .L69
 1473              	.L85:
 1474              		.loc 5 244 0
 1475 034c 3D200000 		lis 9,Settings@ha
 1476 0350 39290000 		la 9,Settings@l(9)
 1477 0354 80090504 		lwz 0,1284(9)
 1478 0358 68001000 		xori 0,0,4096
 1479 035c 90090504 		stw 0,1284(9)
 1480              		.loc 5 245 0
 1481 0360 4BFFFCE4 		b .L69
 1482              	.L86:
 1483              		.loc 5 247 0
 1484 0364 3D200000 		lis 9,Settings@ha
 1485 0368 39290000 		la 9,Settings@l(9)
 1486 036c 80090504 		lwz 0,1284(9)
 1487 0370 68002000 		xori 0,0,8192
 1488 0374 90090504 		stw 0,1284(9)
 1489              		.loc 5 248 0
 1490 0378 4BFFFCCC 		b .L69
 1491              	.L87:
 1492              		.loc 5 250 0
 1493 037c 3D200000 		lis 9,Settings@ha
 1494 0380 39290000 		la 9,Settings@l(9)
 1495 0384 80090504 		lwz 0,1284(9)
 1496 0388 68004000 		xori 0,0,16384
 1497 038c 90090504 		stw 0,1284(9)
 1498              		.loc 5 251 0
 1499 0390 4BFFFCB4 		b .L69
 1500              	.L88:
 1501              		.loc 5 253 0
 1502 0394 3D200000 		lis 9,Settings@ha
 1503 0398 39290000 		la 9,Settings@l(9)
 1504 039c 80090504 		lwz 0,1284(9)
 1505 03a0 68008000 		xori 0,0,32768
 1506 03a4 90090504 		stw 0,1284(9)
 1507              		.loc 5 254 0
 1508 03a8 4BFFFC9C 		b .L69
 1509              	.L92:
 1510              	.LBB1351:
 1511              	.LBB1348:
 1512              		.loc 5 184 0
 1513 03ac 3C600000 		lis 3,.LC11@ha
 1514 03b0 386300C4 		la 3,.LC11@l(3)
 1515 03b4 48000001 		bl gettext
 1516              	.LVL104:
 1517 03b8 7C7B1B78 		mr 27,3
 1518 03bc 3C600000 		lis 3,.LC12@ha
 1519 03c0 386300D4 		la 3,.LC12@l(3)
 1520 03c4 48000001 		bl gettext
 1521 03c8 7C7C1B78 		mr 28,3
 1522 03cc 3C600000 		lis 3,.LC13@ha
 1523 03d0 386300E4 		la 3,.LC13@l(3)
 1524 03d4 48000001 		bl gettext
 1525 03d8 7C7D1B78 		mr 29,3
 1526 03dc 3C600000 		lis 3,.LC14@ha
 1527 03e0 386300E8 		la 3,.LC14@l(3)
 1528 03e4 48000001 		bl gettext
 1529 03e8 7F84E378 		mr 4,28
 1530 03ec 7C661B78 		mr 6,3
 1531 03f0 7FA5EB78 		mr 5,29
 1532 03f4 7F63DB78 		mr 3,27
 1533 03f8 38E00000 		li 7,0
 1534 03fc 39000000 		li 8,0
 1535 0400 48000001 		bl _Z12WindowPromptPKcS0_S0_S0_S0_S0_
 1536              	.LVL105:
 1537              		.loc 5 185 0
 1538 0404 2F830001 		cmpwi 7,3,1
 1539 0408 409EFC3C 		bne+ 7,.L69
 1540              		.loc 5 187 0
 1541 040c 3C600000 		lis 3,.LC15@ha
 1542              	.LVL106:
 1543 0410 386300EC 		la 3,.LC15@l(3)
 1544 0414 48000001 		bl gettext
 1545 0418 7C7C1B78 		mr 28,3
 1546 041c 3C600000 		lis 3,.LC10@ha
 1547 0420 386300A0 		la 3,.LC10@l(3)
 1548 0424 48000001 		bl gettext
 1549 0428 7C7D1B78 		mr 29,3
 1550 042c 3C600000 		lis 3,.LC6@ha
 1551 0430 38630040 		la 3,.LC6@l(3)
 1552 0434 48000001 		bl gettext
 1553 0438 7FA4EB78 		mr 4,29
 1554 043c 7C651B78 		mr 5,3
 1555 0440 38C00000 		li 6,0
 1556 0444 7F83E378 		mr 3,28
 1557 0448 38E00000 		li 7,0
 1558 044c 39000000 		li 8,0
 1559 0450 48000001 		bl _Z12WindowPromptPKcS0_S0_S0_S0_S0_
 1560              		.loc 5 188 0
 1561 0454 38000000 		li 0,0
 1562 0458 B01E04EA 		sth 0,1258(30)
 1563 045c 4BFFFBE8 		b .L69
 1564              	.LVL107:
 1565              	.L93:
 1566              	.LBE1348:
 1567              	.LBB1349:
 1568              		.loc 5 179 0
 1569 0460 4182FBE4 		beq+ 0,.L69
 1570              		.loc 5 180 0
 1571 0464 3C600000 		lis 3,.LC9@ha
 1572              	.LVL108:
 1573 0468 38630090 		la 3,.LC9@l(3)
 1574 046c 48000001 		bl gettext
 1575 0470 7C7D1B78 		mr 29,3
 1576 0474 3C600000 		lis 3,.LC10@ha
 1577 0478 386300A0 		la 3,.LC10@l(3)
 1578 047c 4BFFFD50 		b .L95
 1579              	.LVL109:
 1580              	.L98:
 1581              		.loc 5 176 0
 1582 0480 3C600000 		lis 3,.LC7@ha
 1583              	.LVL110:
 1584 0484 38630044 		la 3,.LC7@l(3)
 1585 0488 48000001 		bl gettext
 1586 048c 7C7C1B78 		mr 28,3
 1587 0490 3C600000 		lis 3,.LC8@ha
 1588 0494 38630058 		la 3,.LC8@l(3)
 1589 0498 48000001 		bl gettext
 1590 049c 7C7D1B78 		mr 29,3
 1591 04a0 3C600000 		lis 3,.LC6@ha
 1592 04a4 38630040 		la 3,.LC6@l(3)
 1593 04a8 48000001 		bl gettext
 1594 04ac 7FA4EB78 		mr 4,29
 1595 04b0 7C651B78 		mr 5,3
 1596 04b4 38C00000 		li 6,0
 1597 04b8 7F83E378 		mr 3,28
 1598 04bc 38E00000 		li 7,0
 1599 04c0 39000000 		li 8,0
 1600 04c4 48000001 		bl _Z12WindowPromptPKcS0_S0_S0_S0_S0_
 1601 04c8 4BFFFC98 		b .L94
 1602              	.LBE1349:
 1603              	.LBE1351:
 1604              	.LBE1345:
 1605              	.LBE1353:
 1606              	.LBE1356:
 1607              		.cfi_endproc
 1608              	.LFE1589:
 1609              		.size	_ZN17ParentalControlSM14OnBrowserClickEP16GuiOptionBrowseri, .-_ZN17ParentalControlSM14OnBro
 1610              		.align 2
 1611              		.globl _ZN17ParentalControlSM15SetupOptionNameEv
 1612              		.type	_ZN17ParentalControlSM15SetupOptionNameEv, @function
 1613              	_ZN17ParentalControlSM15SetupOptionNameEv:
 1614              	.LFB1587:
 1615              		.loc 5 51 0
 1616              		.cfi_startproc
 1617              	.LVL111:
 1618 04cc 7C0802A6 		mflr 0
 1619 04d0 9421FFF0 		stwu 1,-16(1)
 1620              	.LCFI25:
 1621              		.cfi_def_cfa_offset 16
 1622              		.cfi_register 65, 0
 1623 04d4 93C10008 		stw 30,8(1)
 1624 04d8 90010014 		stw 0,20(1)
 1625 04dc 93E1000C 		stw 31,12(1)
 1626              		.loc 5 51 0
 1627 04e0 7C7F1B78 		mr 31,3
 1628              		.cfi_offset 31, -4
 1629              		.cfi_offset 65, 4
 1630              		.cfi_offset 30, -8
 1631              	.LBB1357:
 1632              		.loc 5 53 0
 1633 04e4 83C300CC 		lwz 30,204(3)
 1634              	.LVL112:
 1635 04e8 3C600000 		lis 3,.LC18@ha
 1636              	.LVL113:
 1637 04ec 38630124 		la 3,.LC18@l(3)
 1638 04f0 48000001 		bl gettext
 1639 04f4 38800000 		li 4,0
 1640 04f8 7C651B78 		mr 5,3
 1641 04fc 7FC3F378 		mr 3,30
 1642 0500 4CC63182 		crxor 6,6,6
 1643 0504 48000001 		bl _ZN10OptionList7SetNameEiPKcz
 1644              		.loc 5 54 0
 1645 0508 3C600000 		lis 3,.LC19@ha
 1646 050c 83DF00CC 		lwz 30,204(31)
 1647              	.LVL114:
 1648 0510 3863012C 		la 3,.LC19@l(3)
 1649 0514 48000001 		bl gettext
 1650 0518 38800001 		li 4,1
 1651 051c 7C651B78 		mr 5,3
 1652 0520 7FC3F378 		mr 3,30
 1653 0524 4CC63182 		crxor 6,6,6
 1654 0528 48000001 		bl _ZN10OptionList7SetNameEiPKcz
 1655              		.loc 5 55 0
 1656 052c 3C600000 		lis 3,.LC20@ha
 1657 0530 83DF00CC 		lwz 30,204(31)
 1658              	.LVL115:
 1659 0534 38630138 		la 3,.LC20@l(3)
 1660 0538 48000001 		bl gettext
 1661 053c 38800002 		li 4,2
 1662 0540 7C651B78 		mr 5,3
 1663 0544 7FC3F378 		mr 3,30
 1664 0548 4CC63182 		crxor 6,6,6
 1665 054c 48000001 		bl _ZN10OptionList7SetNameEiPKcz
 1666              		.loc 5 56 0
 1667 0550 3C600000 		lis 3,.LC21@ha
 1668 0554 83DF00CC 		lwz 30,204(31)
 1669              	.LVL116:
 1670 0558 38630148 		la 3,.LC21@l(3)
 1671 055c 48000001 		bl gettext
 1672 0560 38800003 		li 4,3
 1673 0564 7C651B78 		mr 5,3
 1674 0568 7FC3F378 		mr 3,30
 1675 056c 4CC63182 		crxor 6,6,6
 1676 0570 48000001 		bl _ZN10OptionList7SetNameEiPKcz
 1677              		.loc 5 57 0
 1678 0574 3C600000 		lis 3,.LC22@ha
 1679 0578 83DF00CC 		lwz 30,204(31)
 1680              	.LVL117:
 1681 057c 38630160 		la 3,.LC22@l(3)
 1682 0580 48000001 		bl gettext
 1683 0584 38800004 		li 4,4
 1684 0588 7C651B78 		mr 5,3
 1685 058c 7FC3F378 		mr 3,30
 1686 0590 4CC63182 		crxor 6,6,6
 1687 0594 48000001 		bl _ZN10OptionList7SetNameEiPKcz
 1688              		.loc 5 58 0
 1689 0598 3C600000 		lis 3,.LC23@ha
 1690 059c 83DF00CC 		lwz 30,204(31)
 1691              	.LVL118:
 1692 05a0 38630174 		la 3,.LC23@l(3)
 1693 05a4 48000001 		bl gettext
 1694 05a8 38800005 		li 4,5
 1695 05ac 7C651B78 		mr 5,3
 1696 05b0 7FC3F378 		mr 3,30
 1697 05b4 4CC63182 		crxor 6,6,6
 1698 05b8 48000001 		bl _ZN10OptionList7SetNameEiPKcz
 1699              		.loc 5 59 0
 1700 05bc 3C600000 		lis 3,.LC24@ha
 1701 05c0 83DF00CC 		lwz 30,204(31)
 1702              	.LVL119:
 1703 05c4 3863018C 		la 3,.LC24@l(3)
 1704 05c8 48000001 		bl gettext
 1705 05cc 38800006 		li 4,6
 1706 05d0 7C651B78 		mr 5,3
 1707 05d4 7FC3F378 		mr 3,30
 1708 05d8 4CC63182 		crxor 6,6,6
 1709 05dc 48000001 		bl _ZN10OptionList7SetNameEiPKcz
 1710              		.loc 5 60 0
 1711 05e0 3C600000 		lis 3,.LC25@ha
 1712 05e4 83DF00CC 		lwz 30,204(31)
 1713              	.LVL120:
 1714 05e8 386301A0 		la 3,.LC25@l(3)
 1715 05ec 48000001 		bl gettext
 1716 05f0 38800007 		li 4,7
 1717 05f4 7C651B78 		mr 5,3
 1718 05f8 7FC3F378 		mr 3,30
 1719 05fc 4CC63182 		crxor 6,6,6
 1720 0600 48000001 		bl _ZN10OptionList7SetNameEiPKcz
 1721              		.loc 5 61 0
 1722 0604 3C600000 		lis 3,.LC26@ha
 1723 0608 83DF00CC 		lwz 30,204(31)
 1724              	.LVL121:
 1725 060c 386301B8 		la 3,.LC26@l(3)
 1726 0610 48000001 		bl gettext
 1727 0614 38800008 		li 4,8
 1728 0618 7C651B78 		mr 5,3
 1729 061c 7FC3F378 		mr 3,30
 1730 0620 4CC63182 		crxor 6,6,6
 1731 0624 48000001 		bl _ZN10OptionList7SetNameEiPKcz
 1732              		.loc 5 62 0
 1733 0628 3C600000 		lis 3,.LC27@ha
 1734 062c 83DF00CC 		lwz 30,204(31)
 1735              	.LVL122:
 1736 0630 386301D0 		la 3,.LC27@l(3)
 1737 0634 48000001 		bl gettext
 1738 0638 38800009 		li 4,9
 1739 063c 7C651B78 		mr 5,3
 1740 0640 7FC3F378 		mr 3,30
 1741 0644 4CC63182 		crxor 6,6,6
 1742 0648 48000001 		bl _ZN10OptionList7SetNameEiPKcz
 1743              		.loc 5 63 0
 1744 064c 3C600000 		lis 3,.LC28@ha
 1745 0650 83DF00CC 		lwz 30,204(31)
 1746              	.LVL123:
 1747 0654 386301E8 		la 3,.LC28@l(3)
 1748 0658 48000001 		bl gettext
 1749 065c 3880000A 		li 4,10
 1750 0660 7C651B78 		mr 5,3
 1751 0664 7FC3F378 		mr 3,30
 1752 0668 4CC63182 		crxor 6,6,6
 1753 066c 48000001 		bl _ZN10OptionList7SetNameEiPKcz
 1754              		.loc 5 64 0
 1755 0670 3C600000 		lis 3,.LC29@ha
 1756 0674 83DF00CC 		lwz 30,204(31)
 1757              	.LVL124:
 1758 0678 386301FC 		la 3,.LC29@l(3)
 1759 067c 48000001 		bl gettext
 1760 0680 3880000B 		li 4,11
 1761 0684 7C651B78 		mr 5,3
 1762 0688 7FC3F378 		mr 3,30
 1763 068c 4CC63182 		crxor 6,6,6
 1764 0690 48000001 		bl _ZN10OptionList7SetNameEiPKcz
 1765              		.loc 5 65 0
 1766 0694 3C600000 		lis 3,.LC30@ha
 1767 0698 83DF00CC 		lwz 30,204(31)
 1768              	.LVL125:
 1769 069c 3863020C 		la 3,.LC30@l(3)
 1770 06a0 48000001 		bl gettext
 1771 06a4 3880000C 		li 4,12
 1772 06a8 7C651B78 		mr 5,3
 1773 06ac 7FC3F378 		mr 3,30
 1774 06b0 4CC63182 		crxor 6,6,6
 1775 06b4 48000001 		bl _ZN10OptionList7SetNameEiPKcz
 1776              		.loc 5 66 0
 1777 06b8 3C600000 		lis 3,.LC31@ha
 1778 06bc 83DF00CC 		lwz 30,204(31)
 1779              	.LVL126:
 1780 06c0 38630224 		la 3,.LC31@l(3)
 1781 06c4 48000001 		bl gettext
 1782 06c8 3880000D 		li 4,13
 1783 06cc 7C651B78 		mr 5,3
 1784 06d0 7FC3F378 		mr 3,30
 1785 06d4 4CC63182 		crxor 6,6,6
 1786 06d8 48000001 		bl _ZN10OptionList7SetNameEiPKcz
 1787              		.loc 5 67 0
 1788 06dc 3C600000 		lis 3,.LC32@ha
 1789 06e0 83DF00CC 		lwz 30,204(31)
 1790              	.LVL127:
 1791 06e4 3863023C 		la 3,.LC32@l(3)
 1792 06e8 48000001 		bl gettext
 1793 06ec 3880000E 		li 4,14
 1794 06f0 7C651B78 		mr 5,3
 1795 06f4 7FC3F378 		mr 3,30
 1796 06f8 4CC63182 		crxor 6,6,6
 1797 06fc 48000001 		bl _ZN10OptionList7SetNameEiPKcz
 1798              		.loc 5 68 0
 1799 0700 3C600000 		lis 3,.LC33@ha
 1800 0704 83DF00CC 		lwz 30,204(31)
 1801              	.LVL128:
 1802 0708 38630254 		la 3,.LC33@l(3)
 1803 070c 48000001 		bl gettext
 1804 0710 3880000F 		li 4,15
 1805 0714 7C651B78 		mr 5,3
 1806 0718 7FC3F378 		mr 3,30
 1807 071c 4CC63182 		crxor 6,6,6
 1808 0720 48000001 		bl _ZN10OptionList7SetNameEiPKcz
 1809              		.loc 5 69 0
 1810 0724 3C600000 		lis 3,.LC34@ha
 1811 0728 83DF00CC 		lwz 30,204(31)
 1812              	.LVL129:
 1813 072c 38630264 		la 3,.LC34@l(3)
 1814 0730 48000001 		bl gettext
 1815 0734 38800010 		li 4,16
 1816 0738 7C651B78 		mr 5,3
 1817 073c 7FC3F378 		mr 3,30
 1818 0740 4CC63182 		crxor 6,6,6
 1819 0744 48000001 		bl _ZN10OptionList7SetNameEiPKcz
 1820              		.loc 5 70 0
 1821 0748 3C600000 		lis 3,.LC35@ha
 1822 074c 83DF00CC 		lwz 30,204(31)
 1823              	.LVL130:
 1824 0750 38630274 		la 3,.LC35@l(3)
 1825 0754 48000001 		bl gettext
 1826 0758 38800011 		li 4,17
 1827 075c 7C651B78 		mr 5,3
 1828 0760 7FC3F378 		mr 3,30
 1829 0764 4CC63182 		crxor 6,6,6
 1830 0768 48000001 		bl _ZN10OptionList7SetNameEiPKcz
 1831              		.loc 5 71 0
 1832 076c 3C600000 		lis 3,.LC36@ha
 1833 0770 83DF00CC 		lwz 30,204(31)
 1834              	.LVL131:
 1835 0774 38630284 		la 3,.LC36@l(3)
 1836 0778 48000001 		bl gettext
 1837 077c 38800012 		li 4,18
 1838 0780 7C651B78 		mr 5,3
 1839 0784 7FC3F378 		mr 3,30
 1840 0788 4CC63182 		crxor 6,6,6
 1841 078c 48000001 		bl _ZN10OptionList7SetNameEiPKcz
 1842              		.loc 5 72 0
 1843 0790 3C600000 		lis 3,.LC37@ha
 1844 0794 83DF00CC 		lwz 30,204(31)
 1845              	.LVL132:
 1846 0798 3863029C 		la 3,.LC37@l(3)
 1847 079c 48000001 		bl gettext
 1848 07a0 38800013 		li 4,19
 1849 07a4 7C651B78 		mr 5,3
 1850 07a8 7FC3F378 		mr 3,30
 1851 07ac 4CC63182 		crxor 6,6,6
 1852 07b0 48000001 		bl _ZN10OptionList7SetNameEiPKcz
 1853              		.loc 5 73 0
 1854 07b4 3C600000 		lis 3,.LC38@ha
 1855 07b8 83DF00CC 		lwz 30,204(31)
 1856              	.LVL133:
 1857 07bc 386302B4 		la 3,.LC38@l(3)
 1858 07c0 48000001 		bl gettext
 1859 07c4 38800014 		li 4,20
 1860 07c8 7C651B78 		mr 5,3
 1861 07cc 7FC3F378 		mr 3,30
 1862 07d0 4CC63182 		crxor 6,6,6
 1863 07d4 48000001 		bl _ZN10OptionList7SetNameEiPKcz
 1864              		.loc 5 75 0
 1865 07d8 813F0000 		lwz 9,0(31)
 1866 07dc 7FE3FB78 		mr 3,31
 1867 07e0 800900E0 		lwz 0,224(9)
 1868 07e4 7C0903A6 		mtctr 0
 1869 07e8 4E800421 		bctrl
 1870              	.LBE1357:
 1871              		.loc 5 76 0
 1872 07ec 80010014 		lwz 0,20(1)
 1873 07f0 83C10008 		lwz 30,8(1)
 1874 07f4 7C0803A6 		mtlr 0
 1875 07f8 83E1000C 		lwz 31,12(1)
 1876              	.LVL134:
 1877 07fc 38210010 		addi 1,1,16
 1878              	.LCFI26:
 1879              		.cfi_def_cfa_offset 0
 1880              		.cfi_restore 31
 1881              		.cfi_restore 30
 1882 0800 4E800020 		blr
 1883              		.cfi_endproc
 1884              	.LFE1587:
 1885              		.size	_ZN17ParentalControlSM15SetupOptionNameEv, .-_ZN17ParentalControlSM15SetupOptionNameEv
 1886              		.align 2
 1887              		.globl _ZN17ParentalControlSM15SetOptionValuesEv
 1888              		.type	_ZN17ParentalControlSM15SetOptionValuesEv, @function
 1889              	_ZN17ParentalControlSM15SetOptionValuesEv:
 1890              	.LFB1588:
 1891              		.loc 5 79 0
 1892              		.cfi_startproc
 1893              	.LVL135:
 1894 0804 7C0802A6 		mflr 0
 1895 0808 9421FFE8 		stwu 1,-24(1)
 1896              	.LCFI27:
 1897              		.cfi_def_cfa_offset 24
 1898              		.cfi_register 65, 0
 1899 080c 93E10014 		stw 31,20(1)
 1900              	.LBB1376:
 1901              		.loc 5 83 0
 1902 0810 3FE00000 		lis 31,Settings@ha
 1903              		.cfi_offset 31, -4
 1904              	.LBE1376:
 1905              		.loc 5 79 0
 1906 0814 9001001C 		stw 0,28(1)
 1907              	.LBB1386:
 1908              		.loc 5 83 0
 1909 0818 3BFF0000 		la 31,Settings@l(31)
 1910              	.LBE1386:
 1911              		.loc 5 79 0
 1912 081c 93A1000C 		stw 29,12(1)
 1913              	.LBB1387:
 1914              		.loc 5 83 0
 1915 0820 3FA00000 		lis 29,.LANCHOR0@ha
 1916              		.cfi_offset 29, -12
 1917              		.cfi_offset 65, 4
 1918 0824 A81F04EA 		lha 0,1258(31)
 1919 0828 3BBD0054 		la 29,.LANCHOR0@l(29)
 1920              	.LBE1387:
 1921              		.loc 5 79 0
 1922 082c 93810008 		stw 28,8(1)
 1923              	.LBB1388:
 1924              		.loc 5 83 0
 1925 0830 5400103A 		slwi 0,0,2
 1926 0834 838300CC 		lwz 28,204(3)
 1927              		.cfi_offset 28, -16
 1928              	.LVL136:
 1929              	.LBE1388:
 1930              		.loc 5 79 0
 1931 0838 93C10010 		stw 30,16(1)
 1932              		.loc 5 79 0
 1933 083c 7C7E1B78 		mr 30,3
 1934              		.cfi_offset 30, -8
 1935              	.LBB1389:
 1936              		.loc 5 83 0
 1937 0840 7C7D002E 		lwzx 3,29,0
 1938              	.LVL137:
 1939 0844 48000001 		bl gettext
 1940 0848 38800000 		li 4,0
 1941 084c 7C651B78 		mr 5,3
 1942 0850 7F83E378 		mr 3,28
 1943 0854 4CC63182 		crxor 6,6,6
 1944 0858 48000001 		bl _ZN10OptionList8SetValueEiPKcz
 1945              	.LBB1377:
 1946              		.loc 5 85 0
 1947 085c A81F04EA 		lha 0,1258(31)
 1948 0860 2F800000 		cmpwi 7,0,0
 1949 0864 409E0078 		bne- 7,.L101
 1950              	.LVL138:
 1951              	.LBB1378:
 1952              	.LBB1379:
 1953              		.loc 5 87 0 discriminator 1
 1954 0868 807E00CC 		lwz 3,204(30)
 1955              	.LVL139:
 1956              	.LBB1380:
 1957              	.LBB1381:
 1958              	.LBB1382:
 1959              		.file 6 "d:\\devkitpro\\devkitppc\\bin\\../lib/gcc/powerpc-eabi/4.6.3/../../../../powerpc-eabi/inc
 1960              		.loc 6 571 0 discriminator 1
 1961 086c 81230008 		lwz 9,8(3)
 1962 0870 80030004 		lwz 0,4(3)
 1963 0874 7C004850 		subf 0,0,9
 1964              	.LBE1382:
 1965              	.LBE1381:
 1966              	.LBE1380:
 1967              		.loc 5 87 0 discriminator 1
 1968 0878 2F800007 		cmpwi 7,0,7
 1969 087c 409D0040 		ble- 7,.L100
 1970 0880 3FA00000 		lis 29,.LC39@ha
 1971              		.loc 5 87 0 is_stmt 0
 1972 0884 3BE00001 		li 31,1
 1973 0888 3BBD02CC 		la 29,.LC39@l(29)
 1974              	.LVL140:
 1975              	.L103:
 1976              		.loc 5 88 0 is_stmt 1 discriminator 2
 1977 088c 7FE4FB78 		mr 4,31
 1978 0890 7FA5EB78 		mr 5,29
 1979 0894 4CC63182 		crxor 6,6,6
 1980 0898 48000001 		bl _ZN10OptionList8SetValueEiPKcz
 1981              	.LVL141:
 1982              		.loc 5 87 0 discriminator 2
 1983 089c 807E00CC 		lwz 3,204(30)
 1984 08a0 3BFF0001 		addi 31,31,1
 1985              	.LVL142:
 1986              	.LBB1385:
 1987              	.LBB1384:
 1988              	.LBB1383:
 1989              		.loc 6 571 0 discriminator 2
 1990 08a4 81230008 		lwz 9,8(3)
 1991 08a8 80030004 		lwz 0,4(3)
 1992 08ac 7C004850 		subf 0,0,9
 1993 08b0 7C001670 		srawi 0,0,2
 1994              	.LBE1383:
 1995              	.LBE1384:
 1996              	.LBE1385:
 1997              		.loc 5 87 0 discriminator 2
 1998 08b4 7F9F0000 		cmpw 7,31,0
 1999 08b8 419CFFD4 		blt+ 7,.L103
 2000              	.LVL143:
 2001              	.L100:
 2002              	.LBE1379:
 2003              	.LBE1378:
 2004              	.LBE1377:
 2005              	.LBE1389:
 2006              		.loc 5 155 0
 2007 08bc 8001001C 		lwz 0,28(1)
 2008 08c0 83810008 		lwz 28,8(1)
 2009 08c4 7C0803A6 		mtlr 0
 2010 08c8 83A1000C 		lwz 29,12(1)
 2011 08cc 83C10010 		lwz 30,16(1)
 2012              	.LVL144:
 2013 08d0 83E10014 		lwz 31,20(1)
 2014 08d4 38210018 		addi 1,1,24
 2015              		.cfi_remember_state
 2016              	.LCFI28:
 2017              		.cfi_def_cfa_offset 0
 2018              		.cfi_restore 31
 2019              		.cfi_restore 30
 2020              		.cfi_restore 29
 2021              		.cfi_restore 28
 2022 08d8 4E800020 		blr
 2023              	.LVL145:
 2024              	.L101:
 2025              	.LCFI29:
 2026              		.cfi_restore_state
 2027              	.LBB1390:
 2028              	.LBB1391:
 2029              		.loc 5 94 0
 2030 08dc 881F04EC 		lbz 0,1260(31)
 2031 08e0 2F800000 		cmpwi 7,0,0
 2032 08e4 419E037C 		beq- 7,.L107
 2033              	.LVL146:
 2034              		.loc 5 97 0
 2035 08e8 807E00CC 		lwz 3,204(30)
 2036 08ec 38800001 		li 4,1
 2037 08f0 38BF04EC 		addi 5,31,1260
 2038 08f4 4CC63182 		crxor 6,6,6
 2039 08f8 48000001 		bl _ZN10OptionList8SetValueEiPKcz
 2040              	.L105:
 2041              		.loc 5 100 0
 2042 08fc A93F0500 		lha 9,1280(31)
 2043 0900 839E00CC 		lwz 28,204(30)
 2044              	.LVL147:
 2045 0904 5529103A 		slwi 9,9,2
 2046 0908 7D3D4A14 		add 9,29,9
 2047 090c 80690008 		lwz 3,8(9)
 2048 0910 48000001 		bl gettext
 2049 0914 38800002 		li 4,2
 2050 0918 7C651B78 		mr 5,3
 2051 091c 7F83E378 		mr 3,28
 2052 0920 4CC63182 		crxor 6,6,6
 2053 0924 48000001 		bl _ZN10OptionList8SetValueEiPKcz
 2054              		.loc 5 103 0
 2055 0928 813F0504 		lwz 9,1284(31)
 2056 092c 839E00CC 		lwz 28,204(30)
 2057              	.LVL148:
 2058 0930 5529177A 		rlwinm 9,9,2,29,29
 2059 0934 7D3D4A14 		add 9,29,9
 2060 0938 80690008 		lwz 3,8(9)
 2061 093c 48000001 		bl gettext
 2062 0940 38800003 		li 4,3
 2063 0944 7C651B78 		mr 5,3
 2064 0948 7F83E378 		mr 3,28
 2065 094c 4CC63182 		crxor 6,6,6
 2066 0950 48000001 		bl _ZN10OptionList8SetValueEiPKcz
 2067              		.loc 5 106 0
 2068 0954 813F0504 		lwz 9,1284(31)
 2069 0958 839E00CC 		lwz 28,204(30)
 2070              	.LVL149:
 2071 095c 55290F7A 		rlwinm 9,9,1,29,29
 2072 0960 7D3D4A14 		add 9,29,9
 2073 0964 80690008 		lwz 3,8(9)
 2074 0968 48000001 		bl gettext
 2075 096c 38800004 		li 4,4
 2076 0970 7C651B78 		mr 5,3
 2077 0974 7F83E378 		mr 3,28
 2078 0978 4CC63182 		crxor 6,6,6
 2079 097c 48000001 		bl _ZN10OptionList8SetValueEiPKcz
 2080              		.loc 5 109 0
 2081 0980 813F0504 		lwz 9,1284(31)
 2082 0984 839E00CC 		lwz 28,204(30)
 2083              	.LVL150:
 2084 0988 5529077A 		rlwinm 9,9,0,29,29
 2085 098c 7D3D4A14 		add 9,29,9
 2086 0990 80690008 		lwz 3,8(9)
 2087 0994 48000001 		bl gettext
 2088 0998 38800005 		li 4,5
 2089 099c 7C651B78 		mr 5,3
 2090 09a0 7F83E378 		mr 3,28
 2091 09a4 4CC63182 		crxor 6,6,6
 2092 09a8 48000001 		bl _ZN10OptionList8SetValueEiPKcz
 2093              		.loc 5 112 0
 2094 09ac 813F0504 		lwz 9,1284(31)
 2095 09b0 839E00CC 		lwz 28,204(30)
 2096              	.LVL151:
 2097 09b4 5529FF7A 		rlwinm 9,9,31,29,29
 2098 09b8 7D3D4A14 		add 9,29,9
 2099 09bc 80690008 		lwz 3,8(9)
 2100 09c0 48000001 		bl gettext
 2101 09c4 38800006 		li 4,6
 2102 09c8 7C651B78 		mr 5,3
 2103 09cc 7F83E378 		mr 3,28
 2104 09d0 4CC63182 		crxor 6,6,6
 2105 09d4 48000001 		bl _ZN10OptionList8SetValueEiPKcz
 2106              		.loc 5 115 0
 2107 09d8 813F0504 		lwz 9,1284(31)
 2108 09dc 839E00CC 		lwz 28,204(30)
 2109              	.LVL152:
 2110 09e0 5529F77A 		rlwinm 9,9,30,29,29
 2111 09e4 7D3D4A14 		add 9,29,9
 2112 09e8 80690008 		lwz 3,8(9)
 2113 09ec 48000001 		bl gettext
 2114 09f0 38800007 		li 4,7
 2115 09f4 7C651B78 		mr 5,3
 2116 09f8 7F83E378 		mr 3,28
 2117 09fc 4CC63182 		crxor 6,6,6
 2118 0a00 48000001 		bl _ZN10OptionList8SetValueEiPKcz
 2119              		.loc 5 118 0
 2120 0a04 813F0504 		lwz 9,1284(31)
 2121 0a08 839E00CC 		lwz 28,204(30)
 2122              	.LVL153:
 2123 0a0c 5529EF7A 		rlwinm 9,9,29,29,29
 2124 0a10 7D3D4A14 		add 9,29,9
 2125 0a14 80690008 		lwz 3,8(9)
 2126 0a18 48000001 		bl gettext
 2127 0a1c 38800008 		li 4,8
 2128 0a20 7C651B78 		mr 5,3
 2129 0a24 7F83E378 		mr 3,28
 2130 0a28 4CC63182 		crxor 6,6,6
 2131 0a2c 48000001 		bl _ZN10OptionList8SetValueEiPKcz
 2132              		.loc 5 121 0
 2133 0a30 813F0504 		lwz 9,1284(31)
 2134 0a34 839E00CC 		lwz 28,204(30)
 2135              	.LVL154:
 2136 0a38 5529E77A 		rlwinm 9,9,28,29,29
 2137 0a3c 7D3D4A14 		add 9,29,9
 2138 0a40 80690008 		lwz 3,8(9)
 2139 0a44 48000001 		bl gettext
 2140 0a48 38800009 		li 4,9
 2141 0a4c 7C651B78 		mr 5,3
 2142 0a50 7F83E378 		mr 3,28
 2143 0a54 4CC63182 		crxor 6,6,6
 2144 0a58 48000001 		bl _ZN10OptionList8SetValueEiPKcz
 2145              		.loc 5 124 0
 2146 0a5c 813F0504 		lwz 9,1284(31)
 2147 0a60 839E00CC 		lwz 28,204(30)
 2148              	.LVL155:
 2149 0a64 5529DF7A 		rlwinm 9,9,27,29,29
 2150 0a68 7D3D4A14 		add 9,29,9
 2151 0a6c 80690008 		lwz 3,8(9)
 2152 0a70 48000001 		bl gettext
 2153 0a74 3880000A 		li 4,10
 2154 0a78 7C651B78 		mr 5,3
 2155 0a7c 7F83E378 		mr 3,28
 2156 0a80 4CC63182 		crxor 6,6,6
 2157 0a84 48000001 		bl _ZN10OptionList8SetValueEiPKcz
 2158              		.loc 5 127 0
 2159 0a88 813F0504 		lwz 9,1284(31)
 2160 0a8c 839E00CC 		lwz 28,204(30)
 2161              	.LVL156:
 2162 0a90 5529D77A 		rlwinm 9,9,26,29,29
 2163 0a94 7D3D4A14 		add 9,29,9
 2164 0a98 80690008 		lwz 3,8(9)
 2165 0a9c 48000001 		bl gettext
 2166 0aa0 3880000B 		li 4,11
 2167 0aa4 7C651B78 		mr 5,3
 2168 0aa8 7F83E378 		mr 3,28
 2169 0aac 4CC63182 		crxor 6,6,6
 2170 0ab0 48000001 		bl _ZN10OptionList8SetValueEiPKcz
 2171              		.loc 5 130 0
 2172 0ab4 813F0504 		lwz 9,1284(31)
 2173 0ab8 839E00CC 		lwz 28,204(30)
 2174              	.LVL157:
 2175 0abc 5529CF7A 		rlwinm 9,9,25,29,29
 2176 0ac0 7D3D4A14 		add 9,29,9
 2177 0ac4 80690008 		lwz 3,8(9)
 2178 0ac8 48000001 		bl gettext
 2179 0acc 3880000C 		li 4,12
 2180 0ad0 7C651B78 		mr 5,3
 2181 0ad4 7F83E378 		mr 3,28
 2182 0ad8 4CC63182 		crxor 6,6,6
 2183 0adc 48000001 		bl _ZN10OptionList8SetValueEiPKcz
 2184              		.loc 5 133 0
 2185 0ae0 813F0504 		lwz 9,1284(31)
 2186 0ae4 839E00CC 		lwz 28,204(30)
 2187              	.LVL158:
 2188 0ae8 5529C77A 		rlwinm 9,9,24,29,29
 2189 0aec 7D3D4A14 		add 9,29,9
 2190 0af0 80690008 		lwz 3,8(9)
 2191 0af4 48000001 		bl gettext
 2192 0af8 3880000D 		li 4,13
 2193 0afc 7C651B78 		mr 5,3
 2194 0b00 7F83E378 		mr 3,28
 2195 0b04 4CC63182 		crxor 6,6,6
 2196 0b08 48000001 		bl _ZN10OptionList8SetValueEiPKcz
 2197              		.loc 5 136 0
 2198 0b0c 813F0504 		lwz 9,1284(31)
 2199 0b10 839E00CC 		lwz 28,204(30)
 2200              	.LVL159:
 2201 0b14 5529BF7A 		rlwinm 9,9,23,29,29
 2202 0b18 7D3D4A14 		add 9,29,9
 2203 0b1c 80690008 		lwz 3,8(9)
 2204 0b20 48000001 		bl gettext
 2205 0b24 3880000E 		li 4,14
 2206 0b28 7C651B78 		mr 5,3
 2207 0b2c 7F83E378 		mr 3,28
 2208 0b30 4CC63182 		crxor 6,6,6
 2209 0b34 48000001 		bl _ZN10OptionList8SetValueEiPKcz
 2210              		.loc 5 139 0
 2211 0b38 813F0504 		lwz 9,1284(31)
 2212 0b3c 839E00CC 		lwz 28,204(30)
 2213              	.LVL160:
 2214 0b40 5529B77A 		rlwinm 9,9,22,29,29
 2215 0b44 7D3D4A14 		add 9,29,9
 2216 0b48 80690008 		lwz 3,8(9)
 2217 0b4c 48000001 		bl gettext
 2218 0b50 3880000F 		li 4,15
 2219 0b54 7C651B78 		mr 5,3
 2220 0b58 7F83E378 		mr 3,28
 2221 0b5c 4CC63182 		crxor 6,6,6
 2222 0b60 48000001 		bl _ZN10OptionList8SetValueEiPKcz
 2223              		.loc 5 142 0
 2224 0b64 813F0504 		lwz 9,1284(31)
 2225 0b68 839E00CC 		lwz 28,204(30)
 2226              	.LVL161:
 2227 0b6c 5529AF7A 		rlwinm 9,9,21,29,29
 2228 0b70 7D3D4A14 		add 9,29,9
 2229 0b74 80690008 		lwz 3,8(9)
 2230 0b78 48000001 		bl gettext
 2231 0b7c 38800010 		li 4,16
 2232 0b80 7C651B78 		mr 5,3
 2233 0b84 7F83E378 		mr 3,28
 2234 0b88 4CC63182 		crxor 6,6,6
 2235 0b8c 48000001 		bl _ZN10OptionList8SetValueEiPKcz
 2236              		.loc 5 145 0
 2237 0b90 813F0504 		lwz 9,1284(31)
 2238 0b94 839E00CC 		lwz 28,204(30)
 2239              	.LVL162:
 2240 0b98 5529A77A 		rlwinm 9,9,20,29,29
 2241 0b9c 7D3D4A14 		add 9,29,9
 2242 0ba0 80690008 		lwz 3,8(9)
 2243 0ba4 48000001 		bl gettext
 2244 0ba8 38800011 		li 4,17
 2245 0bac 7C651B78 		mr 5,3
 2246 0bb0 7F83E378 		mr 3,28
 2247 0bb4 4CC63182 		crxor 6,6,6
 2248 0bb8 48000001 		bl _ZN10OptionList8SetValueEiPKcz
 2249              		.loc 5 148 0
 2250 0bbc 813F0504 		lwz 9,1284(31)
 2251 0bc0 839E00CC 		lwz 28,204(30)
 2252              	.LVL163:
 2253 0bc4 55299F7A 		rlwinm 9,9,19,29,29
 2254 0bc8 7D3D4A14 		add 9,29,9
 2255 0bcc 80690008 		lwz 3,8(9)
 2256 0bd0 48000001 		bl gettext
 2257 0bd4 38800012 		li 4,18
 2258 0bd8 7C651B78 		mr 5,3
 2259 0bdc 7F83E378 		mr 3,28
 2260 0be0 4CC63182 		crxor 6,6,6
 2261 0be4 48000001 		bl _ZN10OptionList8SetValueEiPKcz
 2262              		.loc 5 151 0
 2263 0be8 813F0504 		lwz 9,1284(31)
 2264 0bec 839E00CC 		lwz 28,204(30)
 2265              	.LVL164:
 2266 0bf0 5529977A 		rlwinm 9,9,18,29,29
 2267 0bf4 7D3D4A14 		add 9,29,9
 2268 0bf8 80690008 		lwz 3,8(9)
 2269 0bfc 48000001 		bl gettext
 2270 0c00 38800013 		li 4,19
 2271 0c04 7C651B78 		mr 5,3
 2272 0c08 7F83E378 		mr 3,28
 2273 0c0c 4CC63182 		crxor 6,6,6
 2274 0c10 48000001 		bl _ZN10OptionList8SetValueEiPKcz
 2275              		.loc 5 154 0
 2276 0c14 801F0504 		lwz 0,1284(31)
 2277 0c18 83FE00CC 		lwz 31,204(30)
 2278              	.LVL165:
 2279 0c1c 54008F7A 		rlwinm 0,0,17,29,29
 2280 0c20 7FBD0214 		add 29,29,0
 2281 0c24 807D0008 		lwz 3,8(29)
 2282 0c28 48000001 		bl gettext
 2283 0c2c 38800014 		li 4,20
 2284 0c30 7C651B78 		mr 5,3
 2285 0c34 7FE3FB78 		mr 3,31
 2286 0c38 4CC63182 		crxor 6,6,6
 2287 0c3c 48000001 		bl _ZN10OptionList8SetValueEiPKcz
 2288              	.LBE1391:
 2289              	.LBE1390:
 2290              		.loc 5 155 0
 2291 0c40 8001001C 		lwz 0,28(1)
 2292 0c44 83810008 		lwz 28,8(1)
 2293 0c48 7C0803A6 		mtlr 0
 2294 0c4c 83A1000C 		lwz 29,12(1)
 2295 0c50 83C10010 		lwz 30,16(1)
 2296              	.LVL166:
 2297 0c54 83E10014 		lwz 31,20(1)
 2298 0c58 38210018 		addi 1,1,24
 2299              		.cfi_remember_state
 2300              		.cfi_restore 28
 2301              		.cfi_restore 29
 2302              		.cfi_restore 30
 2303              		.cfi_restore 31
 2304              	.LCFI30:
 2305              		.cfi_def_cfa_offset 0
 2306 0c5c 4E800020 		blr
 2307              	.LVL167:
 2308              	.L107:
 2309              	.LCFI31:
 2310              		.cfi_restore_state
 2311              	.LBB1393:
 2312              	.LBB1392:
 2313              		.loc 5 95 0
 2314 0c60 3C600000 		lis 3,.LC40@ha
 2315 0c64 839E00CC 		lwz 28,204(30)
 2316              	.LVL168:
 2317 0c68 386302D8 		la 3,.LC40@l(3)
 2318 0c6c 48000001 		bl gettext
 2319 0c70 38800001 		li 4,1
 2320 0c74 7C651B78 		mr 5,3
 2321 0c78 7F83E378 		mr 3,28
 2322 0c7c 4CC63182 		crxor 6,6,6
 2323 0c80 48000001 		bl _ZN10OptionList8SetValueEiPKcz
 2324 0c84 4BFFFC78 		b .L105
 2325              	.LBE1392:
 2326              	.LBE1393:
 2327              		.cfi_endproc
 2328              	.LFE1588:
 2329              		.size	_ZN17ParentalControlSM15SetOptionValuesEv, .-_ZN17ParentalControlSM15SetOptionValuesEv
 2330              		.section	.text._ZN17ParentalControlSMD0Ev,"axG",@progbits,_ZN17ParentalControlSMD0Ev,comdat
 2331              		.align 2
 2332              		.weak	_ZThn176_N17ParentalControlSMD0Ev
 2333              		.type	_ZThn176_N17ParentalControlSMD0Ev, @function
 2334              	_ZThn176_N17ParentalControlSMD0Ev:
 2335              	.LFB1959:
 2336              		.cfi_startproc
 2337 0000 3863FF50 		addi 3,3,-176
 2338 0004 48000004 		b .LTHUNK1
 2339              		.cfi_endproc
 2340              	.LFE1959:
 2341              		.size	_ZThn176_N17ParentalControlSMD0Ev, .-_ZThn176_N17ParentalControlSMD0Ev
 2342              		.align 2
 2343              		.weak	_ZN17ParentalControlSMD0Ev
 2344              		.type	_ZN17ParentalControlSMD0Ev, @function
 2345              	_ZN17ParentalControlSMD0Ev:
 2346              	.LFB1856:
 2347              		.loc 4 29 0
 2348              		.cfi_startproc
 2349              	.LVL169:
 2350 0008 7C0802A6 		mflr 0
 2351 000c 9421FFF0 		stwu 1,-16(1)
 2352              	.LCFI32:
 2353              		.cfi_def_cfa_offset 16
 2354              		.cfi_register 65, 0
 2355              	.LBB1397:
 2356              	.LBB1398:
 2357              	.LBB1399:
 2358 0010 3D200000 		lis 9,_ZTV17ParentalControlSM+8@ha
 2359 0014 39290008 		la 9,_ZTV17ParentalControlSM+8@l(9)
 2360              	.LBE1399:
 2361              	.LBE1398:
 2362              	.LBE1397:
 2363 0018 93E1000C 		stw 31,12(1)
 2364 001c 90010014 		stw 0,20(1)
 2365              	.LBB1404:
 2366              	.LBB1402:
 2367              	.LBB1400:
 2368              		.loc 4 29 0
 2369 0020 380900F0 		addi 0,9,240
 2370              		.cfi_offset 65, 4
 2371              		.cfi_offset 31, -4
 2372 0024 900300B0 		stw 0,176(3)
 2373              	.LBE1400:
 2374              	.LBE1402:
 2375              	.LBE1404:
 2376 0028 7C7F1B78 		mr 31,3
 2377              	.LVL170:
 2378              	.LBB1405:
 2379              	.LBB1403:
 2380              	.LBB1401:
 2381 002c 91230000 		stw 9,0(3)
 2382 0030 48000001 		bl _ZN15SettingsBrowserD2Ev
 2383              	.LVL171:
 2384              	.LBE1401:
 2385              	.LBE1403:
 2386              	.LBE1405:
 2387 0034 7FE3FB78 		mr 3,31
 2388 0038 48000001 		bl _ZdlPv
 2389 003c 80010014 		lwz 0,20(1)
 2390 0040 83E1000C 		lwz 31,12(1)
 2391              	.LVL172:
 2392 0044 7C0803A6 		mtlr 0
 2393 0048 38210010 		addi 1,1,16
 2394              	.LCFI33:
 2395              		.cfi_def_cfa_offset 0
 2396              		.cfi_restore 31
 2397 004c 4E800020 		blr
 2398              		.cfi_endproc
 2399              	.LFE1856:
 2400              		.size	_ZN17ParentalControlSMD0Ev, .-_ZN17ParentalControlSMD0Ev
 2401              		.section	".text"
 2402              		.align 2
 2403              		.globl _ZN17ParentalControlSMC2Ev
 2404              		.type	_ZN17ParentalControlSMC2Ev, @function
 2405              	_ZN17ParentalControlSMC2Ev:
 2406              	.LFB1585:
 2407              		.loc 5 41 0
 2408              		.cfi_startproc
 2409              		.cfi_personality 0,__gxx_personality_v0
 2410              		.cfi_lsda 0,.LLSDA1585
 2411              	.LVL173:
 2412 0c88 9421FFD8 		stwu 1,-40(1)
 2413              	.LCFI34:
 2414              		.cfi_def_cfa_offset 40
 2415 0c8c 7C0802A6 		mflr 0
 2416 0c90 93A1001C 		stw 29,28(1)
 2417              	.LBB1461:
 2418              	.LBB1462:
 2419              	.LBB1463:
 2420              		.file 7 "d:/Projects/SaveGameManager/savegame-manager-gx/trunk/source/Settings/menus/SettingsMenu.
 2421              		.loc 7 46 0
 2422 0c94 3FA00000 		lis 29,_ZN12SettingsMenu8instanceE@ha
 2423              		.cfi_offset 29, -12
 2424              		.cfi_register 65, 0
 2425              	.LBE1463:
 2426              	.LBE1462:
 2427              	.LBE1461:
 2428              		.loc 5 41 0
 2429 0c98 9001002C 		stw 0,44(1)
 2430 0c9c 93C10020 		stw 30,32(1)
 2431 0ca0 93E10024 		stw 31,36(1)
 2432              		.loc 5 41 0
 2433 0ca4 7C7F1B78 		mr 31,3
 2434              		.cfi_offset 31, -4
 2435              		.cfi_offset 30, -8
 2436              		.cfi_offset 65, 4
 2437              	.LEHB0:
 2438              	.LBB1520:
 2439              		.loc 5 42 0
 2440 0ca8 48000001 		bl _ZN15SettingsBrowserC2Ev
 2441              	.LEHE0:
 2442              	.LVL174:
 2443              	.LBB1469:
 2444              	.LBB1464:
 2445              		.loc 7 46 0
 2446 0cac 83DD0000 		lwz 30,_ZN12SettingsMenu8instanceE@l(29)
 2447              	.LBE1464:
 2448              	.LBE1469:
 2449              		.loc 5 42 0
 2450 0cb0 3D200000 		lis 9,_ZTV17ParentalControlSM+8@ha
 2451              	.LBB1470:
 2452              	.LBB1465:
 2453              		.loc 7 46 0
 2454 0cb4 2F9E0000 		cmpwi 7,30,0
 2455              	.LBE1465:
 2456              	.LBE1470:
 2457              		.loc 5 42 0
 2458 0cb8 39290008 		la 9,_ZTV17ParentalControlSM+8@l(9)
 2459 0cbc 380900F0 		addi 0,9,240
 2460 0cc0 913F0000 		stw 9,0(31)
 2461 0cc4 901F00B0 		stw 0,176(31)
 2462              	.LBB1471:
 2463              	.LBB1466:
 2464              		.loc 7 46 0
 2465 0cc8 419E00A4 		beq- 7,.L145
 2466              	.L112:
 2467              	.LBE1466:
 2468              	.LBE1471:
 2469              		.loc 5 44 0
 2470 0ccc 3C600000 		lis 3,.LC41@ha
 2471 0cd0 386302E0 		la 3,.LC41@l(3)
 2472              	.LEHB1:
 2473 0cd4 48000001 		bl gettext
 2474              	.LEHE1:
 2475 0cd8 7C641B78 		mr 4,3
 2476 0cdc 38A1000A 		addi 5,1,10
 2477 0ce0 38610010 		addi 3,1,16
 2478              	.LEHB2:
 2479 0ce4 48000001 		bl _ZNSsC1EPKcRKSaIcE
 2480              	.LEHE2:
 2481              		.loc 5 266 0 discriminator 3
 2482 0ce8 83DE00D8 		lwz 30,216(30)
 2483              	.LVL175:
 2484              	.LBB1472:
 2485              	.LBB1473:
 2486              		.loc 7 52 0 discriminator 3
 2487 0cec 2F9E0000 		cmpwi 7,30,0
 2488 0cf0 419E0094 		beq- 7,.L146
 2489              		.loc 7 52 0 is_stmt 0
 2490 0cf4 813E0000 		lwz 9,0(30)
 2491 0cf8 3861000C 		addi 3,1,12
 2492 0cfc 38810010 		addi 4,1,16
 2493              	.LVL176:
 2494 0d00 83A900CC 		lwz 29,204(9)
 2495              	.LEHB3:
 2496 0d04 48000001 		bl _ZNSsC1ERKSs
 2497              	.LEHE3:
 2498              	.LVL177:
 2499 0d08 7FC3F378 		mr 3,30
 2500 0d0c 3881000C 		addi 4,1,12
 2501 0d10 7FA903A6 		mtctr 29
 2502              	.LEHB4:
 2503 0d14 4E800421 		bctrl
 2504              	.LEHE4:
 2505              	.LVL178:
 2506              	.LBB1474:
 2507              	.LBB1475:
 2508              	.LBB1476:
 2509              	.LBB1477:
 2510              	.LBB1478:
 2511              	.LBB1479:
 2512              		.file 8 "d:\\devkitpro\\devkitppc\\bin\\../lib/gcc/powerpc-eabi/4.6.3/../../../../powerpc-eabi/inc
 2513              		.loc 8 288 0 is_stmt 1
 2514 0d18 8121000C 		lwz 9,12(1)
 2515              	.LBE1479:
 2516              	.LBE1478:
 2517              	.LBE1477:
 2518              	.LBB1480:
 2519              	.LBB1481:
 2520              		.loc 8 235 0
 2521 0d1c 3FC00000 		lis 30,_ZNSs4_Rep20_S_empty_rep_storageE@ha
 2522 0d20 3BDE0000 		la 30,_ZNSs4_Rep20_S_empty_rep_storageE@l(30)
 2523              	.LBE1481:
 2524              	.LBE1480:
 2525              		.loc 8 534 0
 2526 0d24 3869FFF4 		addi 3,9,-12
 2527              	.LVL179:
 2528              	.LBB1490:
 2529              	.LBB1488:
 2530              		.loc 8 235 0
 2531 0d28 7F83F000 		cmpw 7,3,30
 2532 0d2c 409E0084 		bne- 7,.L147
 2533              	.LVL180:
 2534              	.L123:
 2535              	.LBE1488:
 2536              	.LBE1490:
 2537              	.LBE1476:
 2538              	.LBE1475:
 2539              	.LBE1474:
 2540              	.LBE1473:
 2541              	.LBE1472:
 2542              	.LBB1497:
 2543              	.LBB1498:
 2544              	.LBB1499:
 2545              	.LBB1500:
 2546              	.LBB1501:
 2547              	.LBB1502:
 2548              		.loc 8 288 0 discriminator 1
 2549 0d30 81210010 		lwz 9,16(1)
 2550              	.LBE1502:
 2551              	.LBE1501:
 2552              	.LBE1500:
 2553              		.loc 8 534 0 discriminator 1
 2554 0d34 3869FFF4 		addi 3,9,-12
 2555              	.LVL181:
 2556              	.LBB1503:
 2557              	.LBB1504:
 2558              		.loc 8 235 0 discriminator 1
 2559 0d38 7F83F000 		cmpw 7,3,30
 2560 0d3c 409E0054 		bne- 7,.L148
 2561              	.LVL182:
 2562              	.L131:
 2563              	.LBE1504:
 2564              	.LBE1503:
 2565              	.LBE1499:
 2566              	.LBE1498:
 2567              	.LBE1497:
 2568              		.loc 5 46 0 discriminator 1
 2569 0d40 7FE3FB78 		mr 3,31
 2570              	.LEHB5:
 2571 0d44 48000001 		bl _ZN17ParentalControlSM15SetupOptionNameEv
 2572              		.loc 5 47 0
 2573 0d48 7FE3FB78 		mr 3,31
 2574 0d4c 48000001 		bl _ZN15SettingsBrowser4showEv
 2575              	.LBE1520:
 2576              		.loc 5 48 0
 2577 0d50 8001002C 		lwz 0,44(1)
 2578 0d54 83A1001C 		lwz 29,28(1)
 2579 0d58 7C0803A6 		mtlr 0
 2580 0d5c 83C10020 		lwz 30,32(1)
 2581 0d60 83E10024 		lwz 31,36(1)
 2582              	.LVL183:
 2583 0d64 38210028 		addi 1,1,40
 2584              		.cfi_remember_state
 2585              	.LCFI35:
 2586              		.cfi_def_cfa_offset 0
 2587              		.cfi_restore 31
 2588              		.cfi_restore 30
 2589              		.cfi_restore 29
 2590 0d68 4E800020 		blr
 2591              	.LVL184:
 2592              	.L145:
 2593              	.LCFI36:
 2594              		.cfi_restore_state
 2595              	.LBB1521:
 2596              	.LBB1515:
 2597              	.LBB1467:
 2598              		.loc 7 46 0
 2599 0d6c 386003D4 		li 3,980
 2600 0d70 48000001 		bl _Znwj
 2601              	.LEHE5:
 2602 0d74 7C7E1B78 		mr 30,3
 2603              	.LEHB6:
 2604 0d78 48000001 		bl _ZN12SettingsMenuC1Ev
 2605              	.LEHE6:
 2606 0d7c 93DD0000 		stw 30,_ZN12SettingsMenu8instanceE@l(29)
 2607 0d80 4BFFFF4C 		b .L112
 2608              	.LVL185:
 2609              	.L146:
 2610 0d84 3FC00000 		lis 30,_ZNSs4_Rep20_S_empty_rep_storageE@ha
 2611 0d88 3BDE0000 		la 30,_ZNSs4_Rep20_S_empty_rep_storageE@l(30)
 2612 0d8c 4BFFFFA4 		b .L123
 2613              	.LVL186:
 2614              	.L148:
 2615              	.LBE1467:
 2616              	.LBE1515:
 2617              	.LBB1516:
 2618              	.LBB1514:
 2619              	.LBB1513:
 2620              	.LBB1512:
 2621              	.LBB1511:
 2622              	.LBB1505:
 2623              	.LBB1506:
 2624              	.LBB1507:
 2625              		.file 9 "d:\\devkitpro\\devkitppc\\bin\\../lib/gcc/powerpc-eabi/4.6.3/../../../../powerpc-eabi/inc
 2626              		.loc 9 66 0
 2627 0d90 8169FFFC 		lwz 11,-4(9)
 2628              	.LVL187:
 2629              	.LBE1507:
 2630              	.LBE1506:
 2631              	.LBE1505:
 2632              		.loc 8 240 0
 2633 0d94 2F8B0000 		cmpwi 7,11,0
 2634              	.LBB1510:
 2635              	.LBB1509:
 2636              	.LBB1508:
 2637              		.loc 9 67 0
 2638 0d98 396BFFFF 		addi 11,11,-1
 2639 0d9c 9169FFFC 		stw 11,-4(9)
 2640              	.LBE1508:
 2641              	.LBE1509:
 2642              	.LBE1510:
 2643              		.loc 8 240 0
 2644 0da0 419DFFA0 		bgt+ 7,.L131
 2645              		.loc 8 244 0
 2646 0da4 38810008 		addi 4,1,8
 2647 0da8 48000001 		bl _ZNSs4_Rep10_M_destroyERKSaIcE
 2648              	.LVL188:
 2649 0dac 4BFFFF94 		b .L131
 2650              	.LVL189:
 2651              	.L147:
 2652              	.LBE1511:
 2653              	.LBE1512:
 2654              	.LBE1513:
 2655              	.LBE1514:
 2656              	.LBE1516:
 2657              	.LBB1517:
 2658              	.LBB1495:
 2659              	.LBB1494:
 2660              	.LBB1493:
 2661              	.LBB1492:
 2662              	.LBB1491:
 2663              	.LBB1489:
 2664              	.LBB1482:
 2665              	.LBB1483:
 2666              	.LBB1484:
 2667              		.loc 9 66 0
 2668 0db0 8169FFFC 		lwz 11,-4(9)
 2669              	.LVL190:
 2670              	.LBE1484:
 2671              	.LBE1483:
 2672              	.LBE1482:
 2673              		.loc 8 240 0
 2674 0db4 2F8B0000 		cmpwi 7,11,0
 2675              	.LBB1487:
 2676              	.LBB1486:
 2677              	.LBB1485:
 2678              		.loc 9 67 0
 2679 0db8 396BFFFF 		addi 11,11,-1
 2680 0dbc 9169FFFC 		stw 11,-4(9)
 2681              	.LBE1485:
 2682              	.LBE1486:
 2683              	.LBE1487:
 2684              		.loc 8 240 0
 2685 0dc0 419DFF70 		bgt+ 7,.L123
 2686              		.loc 8 244 0
 2687 0dc4 38810009 		addi 4,1,9
 2688 0dc8 48000001 		bl _ZNSs4_Rep10_M_destroyERKSaIcE
 2689              	.LVL191:
 2690 0dcc 4BFFFF64 		b .L123
 2691              	.LVL192:
 2692              	.L135:
 2693              	.L144:
 2694 0dd0 7C7E1B78 		mr 30,3
 2695              	.L115:
 2696              	.LBE1489:
 2697              	.LBE1491:
 2698              	.LBE1492:
 2699              	.LBE1493:
 2700              	.LBE1494:
 2701              	.LBE1495:
 2702              	.LBE1517:
 2703              		.loc 5 42 0
 2704 0dd4 7FE3FB78 		mr 3,31
 2705 0dd8 48000001 		bl _ZN15SettingsBrowserD2Ev
 2706 0ddc 7FC3F378 		mr 3,30
 2707              	.LEHB7:
 2708 0de0 48000001 		bl _Unwind_Resume
 2709              	.LEHE7:
 2710              	.L138:
 2711 0de4 7C7D1B78 		mr 29,3
 2712              	.LBB1518:
 2713              	.LBB1468:
 2714              		.loc 7 46 0
 2715 0de8 7FC3F378 		mr 3,30
 2716 0dec 48000001 		bl _ZdlPv
 2717 0df0 7FBEEB78 		mr 30,29
 2718 0df4 4BFFFFE0 		b .L115
 2719              	.LVL193:
 2720              	.L139:
 2721 0df8 7C7E1B78 		mr 30,3
 2722              	.LBE1468:
 2723              	.LBE1518:
 2724              	.LBB1519:
 2725              	.LBB1496:
 2726              		.loc 7 52 0
 2727 0dfc 3861000C 		addi 3,1,12
 2728 0e00 48000001 		bl _ZNSsD1Ev
 2729              	.L118:
 2730              	.LBE1496:
 2731              	.LBE1519:
 2732              		.loc 5 44 0
 2733 0e04 38610010 		addi 3,1,16
 2734              	.LVL194:
 2735 0e08 48000001 		bl _ZNSsD1Ev
 2736              	.LVL195:
 2737 0e0c 7FC3F378 		mr 3,30
 2738 0e10 4BFFFFC0 		b .L144
 2739              	.LVL196:
 2740              	.L136:
 2741 0e14 4BFFFFBC 		b .L144
 2742              	.LVL197:
 2743              	.L137:
 2744 0e18 7C7E1B78 		mr 30,3
 2745 0e1c 4BFFFFE8 		b .L118
 2746              	.LBE1521:
 2747              		.cfi_endproc
 2748              	.LFE1585:
 2749              		.globl __gxx_personality_v0
 2750              		.section	.gcc_except_table,"a",@progbits
 2751              	.LLSDA1585:
 2752 0000 FF       		.byte	0xff
 2753 0001 FF       		.byte	0xff
 2754 0002 01       		.byte	0x1
 2755 0003 2A       		.uleb128 .LLSDACSE1585-.LLSDACSB1585
 2756              	.LLSDACSB1585:
 2757 0004 20       		.uleb128 .LEHB0-.LFB1585
 2758 0005 04       		.uleb128 .LEHE0-.LEHB0
 2759 0006 00       		.uleb128 0
 2760 0007 00       		.uleb128 0
 2761 0008 4C       		.uleb128 .LEHB1-.LFB1585
 2762 0009 04       		.uleb128 .LEHE1-.LEHB1
 2763 000a C802     		.uleb128 .L135-.LFB1585
 2764 000c 00       		.uleb128 0
 2765 000d 5C       		.uleb128 .LEHB2-.LFB1585
 2766 000e 04       		.uleb128 .LEHE2-.LEHB2
 2767 000f 8C03     		.uleb128 .L136-.LFB1585
 2768 0011 00       		.uleb128 0
 2769 0012 7C       		.uleb128 .LEHB3-.LFB1585
 2770 0013 04       		.uleb128 .LEHE3-.LEHB3
 2771 0014 9003     		.uleb128 .L137-.LFB1585
 2772 0016 00       		.uleb128 0
 2773 0017 8C01     		.uleb128 .LEHB4-.LFB1585
 2774 0019 04       		.uleb128 .LEHE4-.LEHB4
 2775 001a F002     		.uleb128 .L139-.LFB1585
 2776 001c 00       		.uleb128 0
 2777 001d BC01     		.uleb128 .LEHB5-.LFB1585
 2778 001f 30       		.uleb128 .LEHE5-.LEHB5
 2779 0020 C802     		.uleb128 .L135-.LFB1585
 2780 0022 00       		.uleb128 0
 2781 0023 F001     		.uleb128 .LEHB6-.LFB1585
 2782 0025 04       		.uleb128 .LEHE6-.LEHB6
 2783 0026 DC02     		.uleb128 .L138-.LFB1585
 2784 0028 00       		.uleb128 0
 2785 0029 D802     		.uleb128 .LEHB7-.LFB1585
 2786 002b 04       		.uleb128 .LEHE7-.LEHB7
 2787 002c 00       		.uleb128 0
 2788 002d 00       		.uleb128 0
 2789              	.LLSDACSE1585:
 2790              		.section	".text"
 2791              		.size	_ZN17ParentalControlSMC2Ev, .-_ZN17ParentalControlSMC2Ev
 2792              		.weak	_ZTS17ParentalControlSM
 2793              		.section	.rodata._ZTS17ParentalControlSM,"aG",@progbits,_ZTS17ParentalControlSM,comdat
 2794              		.align 2
 2795              		.type	_ZTS17ParentalControlSM, @object
 2796              		.size	_ZTS17ParentalControlSM, 20
 2797              	_ZTS17ParentalControlSM:
 2798 0000 31375061 		.string	"17ParentalControlSM"
 2798      72656E74 
 2798      616C436F 
 2798      6E74726F 
 2798      6C534D00 
 2799              		.weak	_ZTI17ParentalControlSM
 2800              		.section	.rodata._ZTI17ParentalControlSM,"aG",@progbits,_ZTI17ParentalControlSM,comdat
 2801              		.align 2
 2802              		.type	_ZTI17ParentalControlSM, @object
 2803              		.size	_ZTI17ParentalControlSM, 12
 2804              	_ZTI17ParentalControlSM:
 2805 0000 00000008 		.long	_ZTVN10__cxxabiv120__si_class_type_infoE+8
 2806 0004 00000000 		.long	_ZTS17ParentalControlSM
 2807 0008 00000000 		.long	_ZTI15SettingsBrowser
 2808              		.weak	_ZTV17ParentalControlSM
 2809              		.section	.rodata._ZTV17ParentalControlSM,"aG",@progbits,_ZTV17ParentalControlSM,comdat
 2810              		.align 3
 2811              		.type	_ZTV17ParentalControlSM, @object
 2812              		.size	_ZTV17ParentalControlSM, 264
 2813              	_ZTV17ParentalControlSM:
 2814 0000 00000000 		.long	0
 2815 0004 00000000 		.long	_ZTI17ParentalControlSM
 2816 0008 00000000 		.long	_ZN17ParentalControlSMD1Ev
 2817 000c 00000000 		.long	_ZN17ParentalControlSMD0Ev
 2818 0010 00000000 		.long	_ZN10GuiElement9SetParentEPS_
 2819 0014 00000000 		.long	_ZN10GuiElement9GetParentEv
 2820 0018 00000000 		.long	_ZN10GuiElement7GetLeftEv
 2821 001c 00000000 		.long	_ZN10GuiElement6GetTopEv
 2822 0020 00000000 		.long	_ZN10GuiElement12GetZPositionEv
 2823 0024 00000000 		.long	_ZN10GuiElement10GetLeftPosEv
 2824 0028 00000000 		.long	_ZN10GuiElement9GetTopPosEv
 2825 002c 00000000 		.long	_ZN10GuiElement8GetWidthEv
 2826 0030 00000000 		.long	_ZN10GuiElement9GetHeightEv
 2827 0034 00000000 		.long	_ZN10GuiElement7SetSizeEii
 2828 0038 00000000 		.long	_ZN8GuiFrame10SetVisibleEb
 2829 003c 00000000 		.long	_ZN10GuiElement9IsVisibleEv
 2830 0040 00000000 		.long	_ZN10GuiElement12IsSelectableEv
 2831 0044 00000000 		.long	_ZN10GuiElement11IsClickableEv
 2832 0048 00000000 		.long	_ZN10GuiElement10IsHoldableEv
 2833 004c 00000000 		.long	_ZN10GuiElement13SetSelectableEb
 2834 0050 00000000 		.long	_ZN10GuiElement12SetClickableEb
 2835 0054 00000000 		.long	_ZN10GuiElement11SetHoldableEb
 2836 0058 00000000 		.long	_ZN10GuiElement8SetStateEii
 2837 005c 00000000 		.long	_ZN10GuiElement8GetStateEv
 2838 0060 00000000 		.long	_ZN10GuiElement12GetStateChanEv
 2839 0064 00000000 		.long	_ZN8GuiFrame10ResetStateEv
 2840 0068 00000000 		.long	_ZN10GuiElement8SetAlphaEi
 2841 006c 00000000 		.long	_ZN10GuiElement8GetAlphaEv
 2842 0070 00000000 		.long	_ZN10GuiElement8SetScaleEf
 2843 0074 00000000 		.long	_ZN10GuiElement9SetScaleXEf
 2844 0078 00000000 		.long	_ZN10GuiElement9SetScaleYEf
 2845 007c 00000000 		.long	_ZN10GuiElement8GetScaleEv
 2846 0080 00000000 		.long	_ZN10GuiElement9GetScaleXEv
 2847 0084 00000000 		.long	_ZN10GuiElement9GetScaleYEv
 2848 0088 00000000 		.long	_ZN10GuiElement6RumbleEv
 2849 008c 00000000 		.long	_ZN10GuiElement9SetRumbleEb
 2850 0090 00000000 		.long	_ZN10GuiElement9SetEffectEiii
 2851 0094 00000000 		.long	_ZN10GuiElement15SetEffectOnOverEiii
 2852 0098 00000000 		.long	_ZN10GuiElement13SetEffectGrowEv
 2853 009c 00000000 		.long	_ZN10GuiElement12ResetEffectsEv
 2854 00a0 00000000 		.long	_ZNK10GuiElement9GetEffectEv
 2855 00a4 00000000 		.long	_ZNK10GuiElement10IsAnimatedEv
 2856 00a8 00000000 		.long	_ZN8GuiFrame9SetBoundsE4RectIiE
 2857 00ac 00000000 		.long	_ZN10GuiElement8IsInsideEii
 2858 00b0 00000000 		.long	_ZN10GuiElement11SetPositionEii
 2859 00b4 00000000 		.long	_ZN10GuiElement11SetPositionEiii
 2860 00b8 00000000 		.long	_ZN8GuiFrame11GetSelectedEv
 2861 00bc 00000000 		.long	_ZN10GuiElement12SetAlignmentEi
 2862 00c0 00000000 		.long	_ZNK10GuiElement12GetAlignmentEv
 2863 00c4 00000000 		.long	_ZN8GuiFrame6UpdateEP10GuiTrigger
 2864 00c8 00000000 		.long	_ZN8GuiFrame4DrawEv
 2865 00cc 00000000 		.long	_ZN10GuiElement13UpdateEffectsEv
 2866 00d0 00000000 		.long	_ZN8GuiFrame5CloseEv
 2867 00d4 00000000 		.long	_ZN15SettingsBrowser4showEv
 2868 00d8 00000000 		.long	_ZN8GuiFrame4hideEv
 2869 00dc 00000000 		.long	_ZN8GuiFrame4execEv
 2870 00e0 00000000 		.long	_ZN8GuiFrame12updateEventsEv
 2871 00e4 00000000 		.long	_ZN17ParentalControlSM15SetupOptionNameEv
 2872 00e8 00000000 		.long	_ZN17ParentalControlSM15SetOptionValuesEv
 2873 00ec 00000000 		.long	_ZN17ParentalControlSM14OnBrowserClickEP16GuiOptionBrowseri
 2874 00f0 FFFFFF50 		.long	-176
 2875 00f4 00000000 		.long	_ZTI17ParentalControlSM
 2876 00f8 00000000 		.long	_ZThn176_N17ParentalControlSMD1Ev
 2877 00fc 00000000 		.long	_ZThn176_N17ParentalControlSMD0Ev
 2878 0100 00000000 		.long	_ZN7sigslot15single_threaded4lockEv
 2879 0104 00000000 		.long	_ZN7sigslot15single_threaded6unlockEv
 2880              		.weak	_ZN17ParentalControlSMD1Ev
 2881              		.set	_ZN17ParentalControlSMD1Ev,_ZN17ParentalControlSMD2Ev
 2882              		.set	.LTHUNK0,_ZN17ParentalControlSMD1Ev
 2883              		.set	.LTHUNK1,_ZN17ParentalControlSMD0Ev
 2884              		.globl _ZN17ParentalControlSMC1Ev
 2885              		.set	_ZN17ParentalControlSMC1Ev,_ZN17ParentalControlSMC2Ev
 2886              		.section	.rodata
 2887              		.align 2
 2888              		.set	.LANCHOR0,. + 0
 2889              		.type	_ZL12LockModeText, @object
 2890              		.size	_ZL12LockModeText, 8
 2891              	_ZL12LockModeText:
 2892 0054 000002F4 		.long	.LC42
 2893 0058 000002FC 		.long	.LC43
 2894              		.type	_ZL9OnOffText, @object
 2895              		.size	_ZL9OnOffText, 8
 2896              	_ZL9OnOffText:
 2897 005c 00000308 		.long	.LC44
 2898 0060 0000030C 		.long	.LC45
 2899              		.section	.rodata.cst4,"aM",@progbits,4
 2900              		.align 2
 2901              	.LC1:
 2902 0000 59800004 		.4byte	1501560836
 2903              	.LC2:
 2904 0004 437F0000 		.4byte	1132396544
 2905              	.LC3:
 2906 0008 3F000000 		.4byte	1056964608
 2907              		.section	.rodata.str1.4,"aMS",@progbits,1
 2908              		.align 2
 2909              	.LC4:
 2910 0000 5065726D 		.string	"Permission denied."
 2910      69737369 
 2910      6F6E2064 
 2910      656E6965 
 2910      642E00
 2911 0013 00       		.zero	1
 2912              	.LC5:
 2913 0014 436F6E73 		.string	"Console must be unlocked for this option."
 2913      6F6C6520 
 2913      6D757374 
 2913      20626520 
 2913      756E6C6F 
 2914 003e 0000     		.zero	2
 2915              	.LC6:
 2916 0040 4F4B00   		.string	"OK"
 2917 0043 00       		.zero	1
 2918              	.LC7:
 2919 0044 436F7272 		.string	"Correct Password"
 2919      65637420 
 2919      50617373 
 2919      776F7264 
 2919      00
 2920 0055 000000   		.zero	3
 2921              	.LC8:
 2922 0058 416C6C20 		.string	"All the features of SaveGame Manager GX are unlocked."
 2922      74686520 
 2922      66656174 
 2922      75726573 
 2922      206F6620 
 2923 008e 0000     		.zero	2
 2924              	.LC9:
 2925 0090 57726F6E 		.string	"Wrong Password"
 2925      67205061 
 2925      7373776F 
 2925      726400
 2926 009f 00       		.zero	1
 2927              	.LC10:
 2928 00a0 53617665 		.string	"SaveGame Manager GX is protected"
 2928      47616D65 
 2928      204D616E 
 2928      61676572 
 2928      20475820 
 2929 00c1 000000   		.zero	3
 2930              	.LC11:
 2931 00c4 4C6F636B 		.string	"Lock Console"
 2931      20436F6E 
 2931      736F6C65 
 2931      00
 2932 00d1 000000   		.zero	3
 2933              	.LC12:
 2934 00d4 41726520 		.string	"Are you sure?"
 2934      796F7520 
 2934      73757265 
 2934      3F00
 2935 00e2 0000     		.zero	2
 2936              	.LC13:
 2937 00e4 59657300 		.string	"Yes"
 2938              	.LC14:
 2939 00e8 4E6F00   		.string	"No"
 2940 00eb 00       		.zero	1
 2941              	.LC15:
 2942 00ec 436F6E73 		.string	"Console Locked"
 2942      6F6C6520 
 2942      4C6F636B 
 2942      656400
 2943 00fb 00       		.zero	1
 2944              	.LC16:
 2945 00fc 50617373 		.string	"Password:"
 2945      776F7264 
 2945      3A00
 2946 0106 0000     		.zero	2
 2947              	.LC17:
 2948 0108 50617373 		.string	"Password has been changed"
 2948      776F7264 
 2948      20686173 
 2948      20626565 
 2948      6E206368 
 2949 0122 0000     		.zero	2
 2950              	.LC18:
 2951 0124 436F6E73 		.string	"Console"
 2951      6F6C6500 
 2952              	.LC19:
 2953 012c 50617373 		.string	"Password"
 2953      776F7264 
 2953      00
 2954 0135 000000   		.zero	3
 2955              	.LC20:
 2956 0138 52656D65 		.string	"Remember Unlock"
 2956      6D626572 
 2956      20556E6C 
 2956      6F636B00 
 2957              	.LC21:
 2958 0148 426C6F63 		.string	"Block Global Settings"
 2958      6B20476C 
 2958      6F62616C 
 2958      20536574 
 2958      74696E67 
 2959 015e 0000     		.zero	2
 2960              	.LC22:
 2961 0160 426C6F63 		.string	"Block Gui Settings"
 2961      6B204775 
 2961      69205365 
 2961      7474696E 
 2961      677300
 2962 0173 00       		.zero	1
 2963              	.LC23:
 2964 0174 426C6F63 		.string	"Block Audio Settings"
 2964      6B204175 
 2964      64696F20 
 2964      53657474 
 2964      696E6773 
 2965 0189 000000   		.zero	3
 2966              	.LC24:
 2967 018c 426C6F63 		.string	"Block Custom Paths"
 2967      6B204375 
 2967      73746F6D 
 2967      20506174 
 2967      687300
 2968 019f 00       		.zero	1
 2969              	.LC25:
 2970 01a0 426C6F63 		.string	"Block Theme Settings"
 2970      6B205468 
 2970      656D6520 
 2970      53657474 
 2970      696E6773 
 2971 01b5 000000   		.zero	3
 2972              	.LC26:
 2973 01b8 426C6F63 		.string	"Block Controls Settings"
 2973      6B20436F 
 2973      6E74726F 
 2973      6C732053 
 2973      65747469 
 2974              	.LC27:
 2975 01d0 426C6F63 		.string	"Block Parental Settings"
 2975      6B205061 
 2975      72656E74 
 2975      616C2053 
 2975      65747469 
 2976              	.LC28:
 2977 01e8 426C6F63 		.string	"Block Features Menu"
 2977      6B204665 
 2977      61747572 
 2977      6573204D 
 2977      656E7500 
 2978              	.LC29:
 2979 01fc 426C6F63 		.string	"Block Updates"
 2979      6B205570 
 2979      64617465 
 2979      7300
 2980 020a 0000     		.zero	2
 2981              	.LC30:
 2982 020c 426C6F63 		.string	"Block Reset Settings"
 2982      6B205265 
 2982      73657420 
 2982      53657474 
 2982      696E6773 
 2983 0221 000000   		.zero	3
 2984              	.LC31:
 2985 0224 426C6F63 		.string	"Block Manage Emu Nand"
 2985      6B204D61 
 2985      6E616765 
 2985      20456D75 
 2985      204E616E 
 2986 023a 0000     		.zero	2
 2987              	.LC32:
 2988 023c 426C6F63 		.string	"Block Manage DataBin"
 2988      6B204D61 
 2988      6E616765 
 2988      20446174 
 2988      6142696E 
 2989 0251 000000   		.zero	3
 2990              	.LC33:
 2991 0254 426C6F63 		.string	"Block ManageAll"
 2991      6B204D61 
 2991      6E616765 
 2991      416C6C00 
 2992              	.LC34:
 2993 0264 426C6F63 		.string	"Block Manage"
 2993      6B204D61 
 2993      6E616765 
 2993      00
 2994 0271 000000   		.zero	3
 2995              	.LC35:
 2996 0274 426C6F63 		.string	"Block HBC Menu"
 2996      6B204842 
 2996      43204D65 
 2996      6E7500
 2997 0283 00       		.zero	1
 2998              	.LC36:
 2999 0284 426C6F63 		.string	"Block Title Launcher"
 2999      6B205469 
 2999      746C6520 
 2999      4C61756E 
 2999      63686572 
 3000 0299 000000   		.zero	3
 3001              	.LC37:
 3002 029c 426C6F63 		.string	"Block SD Reload Button"
 3002      6B205344 
 3002      2052656C 
 3002      6F616420 
 3002      42757474 
 3003 02b3 00       		.zero	1
 3004              	.LC38:
 3005 02b4 426C6F63 		.string	"Block Saves Download"
 3005      6B205361 
 3005      76657320 
 3005      446F776E 
 3005      6C6F6164 
 3006 02c9 000000   		.zero	3
 3007              	.LC39:
 3008 02cc 2A2A2A2A 		.string	"********"
 3008      2A2A2A2A 
 3008      00
 3009 02d5 000000   		.zero	3
 3010              	.LC40:
 3011 02d8 6E6F7420 		.string	"not set"
 3011      73657400 
 3012              	.LC41:
 3013 02e0 50617265 		.string	"Parental Control"
 3013      6E74616C 
 3013      20436F6E 
 3013      74726F6C 
 3013      00
 3014 02f1 000000   		.zero	3
 3015              	.LC42:
 3016 02f4 4C6F636B 		.string	"Locked"
 3016      656400
 3017 02fb 00       		.zero	1
 3018              	.LC43:
 3019 02fc 556E6C6F 		.string	"Unlocked"
 3019      636B6564 
 3019      00
 3020 0305 000000   		.zero	3
 3021              	.LC44:
 3022 0308 4F464600 		.string	"OFF"
 3023              	.LC45:
 3024 030c 4F4E00   		.string	"ON"
 3025              		.section	".text"
 3026              	.Letext0:
 3027              		.file 10 "d:\\devkitpro\\devkitppc\\bin\\../lib/gcc/powerpc-eabi/4.6.3/../../../../powerpc-eabi/in
 3028              		.file 11 "d:/devkitPro/libogc/include/gctypes.h"
 3029              		.file 12 "d:/devkitPro/libogc/include/ogc/gx.h"
 3030              		.file 13 "d:\\devkitpro\\devkitppc\\bin\\../lib/gcc/powerpc-eabi/4.6.3/../../../../powerpc-eabi/in
 3031              		.file 14 "d:\\devkitpro\\devkitppc\\bin\\../lib/gcc/powerpc-eabi/4.6.3/../../../../powerpc-eabi/in
 3032              		.file 15 "d:\\devkitpro\\devkitppc\\bin\\../lib/gcc/powerpc-eabi/4.6.3/include/stddef.h"
 3033              		.file 16 "d:\\devkitpro\\devkitppc\\bin\\../lib/gcc/powerpc-eabi/4.6.3/../../../../powerpc-eabi/in
 3034              		.file 17 "d:\\devkitpro\\devkitppc\\bin\\../lib/gcc/powerpc-eabi/4.6.3/../../../../powerpc-eabi/in
 3035              		.file 18 "d:\\devkitpro\\devkitppc\\bin\\../lib/gcc/powerpc-eabi/4.6.3/../../../../powerpc-eabi/in
 3036              		.file 19 "<built-in>"
 3037              		.file 20 "d:\\devkitpro\\devkitppc\\bin\\../lib/gcc/powerpc-eabi/4.6.3/../../../../powerpc-eabi/in
 3038              		.file 21 "d:\\devkitpro\\devkitppc\\bin\\../lib/gcc/powerpc-eabi/4.6.3/../../../../powerpc-eabi/in
 3039              		.file 22 "d:\\devkitpro\\devkitppc\\bin\\../lib/gcc/powerpc-eabi/4.6.3/../../../../powerpc-eabi/in
 3040              		.file 23 "d:\\devkitpro\\devkitppc\\bin\\../lib/gcc/powerpc-eabi/4.6.3/../../../../powerpc-eabi/in
 3041              		.file 24 "d:\\devkitpro\\devkitppc\\bin\\../lib/gcc/powerpc-eabi/4.6.3/../../../../powerpc-eabi/in
 3042              		.file 25 "d:\\devkitpro\\devkitppc\\bin\\../lib/gcc/powerpc-eabi/4.6.3/../../../../powerpc-eabi/in
 3043              		.file 26 "d:\\devkitpro\\devkitppc\\bin\\../lib/gcc/powerpc-eabi/4.6.3/../../../../powerpc-eabi/in
 3044              		.file 27 "d:\\devkitpro\\devkitppc\\bin\\../lib/gcc/powerpc-eabi/4.6.3/../../../../powerpc-eabi/in
 3045              		.file 28 "d:\\devkitpro\\devkitppc\\bin\\../lib/gcc/powerpc-eabi/4.6.3/../../../../powerpc-eabi/in
 3046              		.file 29 "d:\\devkitpro\\devkitppc\\bin\\../lib/gcc/powerpc-eabi/4.6.3/../../../../powerpc-eabi/in
 3047              		.file 30 "d:\\devkitpro\\devkitppc\\bin\\../lib/gcc/powerpc-eabi/4.6.3/../../../../powerpc-eabi/in
 3048              		.file 31 "d:\\devkitpro\\devkitppc\\bin\\../lib/gcc/powerpc-eabi/4.6.3/../../../../powerpc-eabi/in
 3049              		.file 32 "d:\\devkitpro\\devkitppc\\bin\\../lib/gcc/powerpc-eabi/4.6.3/../../../../powerpc-eabi/in
 3050              		.file 33 "d:\\devkitpro\\devkitppc\\bin\\../lib/gcc/powerpc-eabi/4.6.3/../../../../powerpc-eabi/in
 3051              		.file 34 "d:\\devkitpro\\devkitppc\\bin\\../lib/gcc/powerpc-eabi/4.6.3/../../../../powerpc-eabi/in
 3052              		.file 35 "d:\\devkitpro\\devkitppc\\bin\\../lib/gcc/powerpc-eabi/4.6.3/../../../../powerpc-eabi/in
 3053              		.file 36 "d:\\devkitpro\\devkitppc\\bin\\../lib/gcc/powerpc-eabi/4.6.3/../../../../powerpc-eabi/in
 3054              		.file 37 "d:\\devkitpro\\devkitppc\\bin\\../lib/gcc/powerpc-eabi/4.6.3/../../../../powerpc-eabi/in
 3055              		.file 38 "d:\\devkitpro\\devkitppc\\bin\\../lib/gcc/powerpc-eabi/4.6.3/../../../../powerpc-eabi/in
 3056              		.file 39 "d:\\devkitpro\\devkitppc\\bin\\../lib/gcc/powerpc-eabi/4.6.3/../../../../powerpc-eabi/in
 3057              		.file 40 "d:/Projects/SaveGameManager/savegame-manager-gx/trunk/source/Settings/menus/../../GUI/..
 3058              		.file 41 "d:/Projects/SaveGameManager/savegame-manager-gx/trunk/source/Settings/menus/../../GUI/..
 3059              		.file 42 "d:/Projects/SaveGameManager/savegame-manager-gx/trunk/source/Settings/menus/../../GUI/..
 3060              		.file 43 "d:/Projects/SaveGameManager/savegame-manager-gx/trunk/source/Settings/menus/../../GUI/..
 3061              		.file 44 "d:/Projects/SaveGameManager/savegame-manager-gx/trunk/source/Settings/menus/../../GUI/..
 3062              		.file 45 "d:\\devkitpro\\devkitppc\\bin\\../lib/gcc/powerpc-eabi/4.6.3/../../../../powerpc-eabi/in
 3063              		.file 46 "d:\\devkitpro\\devkitppc\\bin\\../lib/gcc/powerpc-eabi/4.6.3/../../../../powerpc-eabi/in
 3064              		.file 47 "d:\\devkitpro\\devkitppc\\bin\\../lib/gcc/powerpc-eabi/4.6.3/../../../../powerpc-eabi/in
 3065              		.file 48 "d:\\devkitpro\\devkitppc\\bin\\../lib/gcc/powerpc-eabi/4.6.3/../../../../powerpc-eabi/in
 3066              		.file 49 "d:\\devkitpro\\devkitppc\\bin\\../lib/gcc/powerpc-eabi/4.6.3/../../../../powerpc-eabi/in
 3067              		.file 50 "d:\\devkitpro\\devkitppc\\bin\\../lib/gcc/powerpc-eabi/4.6.3/../../../../powerpc-eabi/in
 3068              		.file 51 "d:/Projects/SaveGameManager/savegame-manager-gx/trunk/source/Settings/menus/../../GUI/Op