	.file	"PartitionHandle.cpp"
	.section	".text"
.Ltext0:
	.align 2
	.type	_ZSt8_DestroyIPSsSsEvT_S1_RSaIT0_E.isra.40, @function
_ZSt8_DestroyIPSsSsEvT_S1_RSaIT0_E.isra.40:
.LFB1112:
	.file 1 "d:\\devkitpro\\devkitppc\\bin\\../lib/gcc/powerpc-eabi/4.6.3/../../../../powerpc-eabi/include/c++/4.6.3/bits/stl_construct.h"
	.loc 1 150 0
	.cfi_startproc
.LVL0:
.LBB1338:
.LBB1339:
.LBB1340:
.LBB1341:
	.loc 1 103 0
	cmpw 7,4,3
.LBE1341:
.LBE1340:
.LBE1339:
.LBE1338:
	.loc 1 150 0
	mflr 0
	stwu 1,-40(1)
.LCFI0:
	.cfi_def_cfa_offset 40
	.cfi_register 65, 0
	stw 30,32(1)
	mr 30,4
	.cfi_offset 30, -8
	stw 31,36(1)
	mr 31,3
	.cfi_offset 31, -4
.LVL1:
	stw 0,44(1)
	stw 29,28(1)
.LBB1373:
.LBB1371:
.LBB1369:
.LBB1367:
	.loc 1 103 0
	beq- 7,.L1
	.cfi_offset 29, -12
	.cfi_offset 65, 4
	lis 29,_ZNSs4_Rep20_S_empty_rep_storageE@ha
	la 29,_ZNSs4_Rep20_S_empty_rep_storageE@l(29)
.LVL2:
.L9:
.LBB1342:
.LBB1343:
.LBB1344:
.LBB1345:
.LBB1346:
.LBB1347:
.LBB1348:
	.file 2 "d:\\devkitpro\\devkitppc\\bin\\../lib/gcc/powerpc-eabi/4.6.3/../../../../powerpc-eabi/include/c++/4.6.3/bits/basic_string.h"
	.loc 2 288 0
	lwz 9,0(31)
.LBE1348:
.LBE1347:
.LBE1346:
.LBE1345:
.LBE1344:
.LBE1343:
.LBE1342:
	.loc 1 103 0
	addi 31,31,4
.LVL3:
.LBB1365:
.LBB1363:
.LBB1361:
.LBB1359:
	.loc 2 534 0
	addi 3,9,-12
.LVL4:
.LBB1349:
.LBB1350:
	.loc 2 235 0
	cmpw 7,3,29
	bne- 7,.L12
.LVL5:
.L8:
.LBE1350:
.LBE1349:
.LBE1359:
.LBE1361:
.LBE1363:
.LBE1365:
	.loc 1 103 0
	cmpw 7,31,30
	bne+ 7,.L9
.LVL6:
.L1:
.LBE1367:
.LBE1369:
.LBE1371:
.LBE1373:
	.loc 1 154 0
	lwz 0,44(1)
	lwz 29,28(1)
	mtlr 0
	lwz 30,32(1)
.LVL7:
	lwz 31,36(1)
.LVL8:
	addi 1,1,40
	.cfi_remember_state
.LCFI1:
	.cfi_def_cfa_offset 0
	.cfi_restore 31
	.cfi_restore 30
	.cfi_restore 29
	blr
.LVL9:
.L12:
.LCFI2:
	.cfi_restore_state
.LBB1374:
.LBB1372:
.LBB1370:
.LBB1368:
.LBB1366:
.LBB1364:
.LBB1362:
.LBB1360:
.LBB1358:
.LBB1357:
.LBB1351:
.LBB1352:
.LBB1353:
	.file 3 "d:\\devkitpro\\devkitppc\\bin\\../lib/gcc/powerpc-eabi/4.6.3/../../../../powerpc-eabi/include/c++/4.6.3/ext/atomicity.h"
	.loc 3 66 0
	lwz 11,-4(9)
.LVL10:
.LBE1353:
.LBE1352:
.LBE1351:
	.loc 2 240 0
	cmpwi 7,11,0
.LBB1356:
.LBB1355:
.LBB1354:
	.loc 3 67 0
	addi 11,11,-1
	stw 11,-4(9)
.LBE1354:
.LBE1355:
.LBE1356:
	.loc 2 240 0
	bgt+ 7,.L8
	.loc 2 244 0
	addi 4,1,8
	bl _ZNSs4_Rep10_M_destroyERKSaIcE
.LVL11:
	b .L8
.LBE1357:
.LBE1358:
.LBE1360:
.LBE1362:
.LBE1364:
.LBE1366:
.LBE1368:
.LBE1370:
.LBE1372:
.LBE1374:
	.cfi_endproc
.LFE1112:
	.size	_ZSt8_DestroyIPSsSsEvT_S1_RSaIT0_E.isra.40, .-_ZSt8_DestroyIPSsSsEvT_S1_RSaIT0_E.isra.40
	.align 2
	.globl _ZN15PartitionHandle9IsMountedEi
	.type	_ZN15PartitionHandle9IsMountedEi, @function
_ZN15PartitionHandle9IsMountedEi:
.LFB864:
	.file 4 "d:/Projects/SaveGameManager/savegame-manager-gx/trunk/source/DeviceControls/PartitionHandle.cpp"
	.loc 4 97 0
	.cfi_startproc
.LVL12:
	.loc 4 98 0
	cmpwi 0,4,0
	.loc 4 97 0
	mr 9,3
	.loc 4 99 0
	li 3,0
.LVL13:
	.loc 4 98 0
	bltlr- 0
	.loc 4 418 0 discriminator 2
	lwz 11,16(9)
.LBB1375:
.LBB1376:
	.file 5 "d:\\devkitpro\\devkitppc\\bin\\../lib/gcc/powerpc-eabi/4.6.3/../../../../powerpc-eabi/include/c++/4.6.3/bits/stl_vector.h"
	.loc 5 571 0 discriminator 2
	lwz 0,20(9)
	subf 0,11,0
	srawi 0,0,2
.LBE1376:
.LBE1375:
	.loc 4 98 0 discriminator 2
	cmpw 7,4,0
	blt- 7,.L15
	.loc 4 105 0
	blr
.L15:
.LVL14:
.LBB1377:
.LBB1378:
.LBB1379:
.LBB1380:
.LBB1381:
	.loc 2 288 0
	slwi 4,4,2
.LVL15:
.LBE1381:
.LBE1380:
.LBE1379:
	.loc 2 711 0
	lwzx 9,11,4
.LVL16:
.LBE1378:
.LBE1377:
	.loc 4 96 0
	lwz 3,-12(9)
	cntlzw 3,3
	srwi 3,3,5
	xori 3,3,1
	blr
	.cfi_endproc
.LFE864:
	.size	_ZN15PartitionHandle9IsMountedEi, .-_ZN15PartitionHandle9IsMountedEi
	.align 2
	.globl _ZN15PartitionHandle5MountEiPKc
	.type	_ZN15PartitionHandle5MountEiPKc, @function
_ZN15PartitionHandle5MountEiPKc:
.LFB865:
	.loc 4 108 0
	.cfi_startproc
	.cfi_personality 0,__gxx_personality_v0
	.cfi_lsda 0,.LLSDA865
.LVL17:
	stwu 1,-96(1)
.LCFI3:
	.cfi_def_cfa_offset 96
	mfcr 12
	mflr 0
	stw 30,88(1)
.LBB1828:
.LBB1829:
	.file 6 "d:/Projects/SaveGameManager/savegame-manager-gx/trunk/source/DeviceControls/PartitionHandle.h"
	.loc 6 159 0
	mr. 30,4
	.cfi_offset 30, -8
	.cfi_register 65, 0
	.cfi_register 70, 12
.LBE1829:
.LBE1828:
	.loc 4 108 0
	stw 28,80(1)
	mr 28,5
	.cfi_offset 28, -16
	stw 31,92(1)
	mr 31,3
	.cfi_offset 31, -4
.LVL18:
	stw 0,100(1)
	stw 21,52(1)
	stw 22,56(1)
	stw 23,60(1)
	stw 24,64(1)
	stw 25,68(1)
	stw 26,72(1)
	stw 27,76(1)
	stw 29,84(1)
	stw 12,48(1)
.LBB1836:
.LBB1834:
	.loc 6 159 0
	blt- 0,.L141
	.cfi_offset 70, -48
	.cfi_offset 29, -12
	.cfi_offset 27, -20
	.cfi_offset 26, -24
	.cfi_offset 25, -28
	.cfi_offset 24, -32
	.cfi_offset 23, -36
	.cfi_offset 22, -40
	.cfi_offset 21, -44
	.cfi_offset 65, 4
.LVL19:
.LBB1830:
.LBB1831:
	.loc 5 571 0
	lwz 0,4(3)
	lwz 26,8(3)
.LBE1831:
.LBE1830:
	.loc 4 110 0
	li 3,0
.LVL20:
.LBB1833:
.LBB1832:
	.loc 5 571 0
	subf 26,0,26
	lis 0,0x684b
	ori 0,0,55827
	mullw 26,26,0
.LBE1832:
.LBE1833:
	.loc 6 159 0
	cmpw 7,30,26
	bge- 7,.L18
.LBE1834:
.LBE1836:
	.loc 4 112 0
	cmpwi 7,5,0
	beq- 7,.L18
.LVL21:
.LBB1837:
.LBB1838:
	.loc 4 156 0
	lwz 0,0(31)
	cmpwi 7,0,0
	beq- 7,.L19
.LBE1838:
	.loc 4 418 0
	lwz 9,16(31)
	lwz 29,20(31)
.LBB1850:
.LBB1839:
.LBB1840:
	.loc 5 571 0
	subf 25,9,29
	srawi 25,25,2
.LBE1840:
.LBE1839:
	.loc 4 159 0
	cmpw 7,30,25
	bge- 7,.L140
.LVL22:
.LBB1841:
.LBB1842:
	.loc 5 696 0
	slwi 29,30,2
.LBE1842:
.LBE1841:
.LBB1844:
.LBB1845:
.LBB1846:
.LBB1847:
.LBB1848:
	.loc 2 288 0
	lwzx 6,9,29
.LBE1848:
.LBE1847:
.LBE1846:
.LBE1845:
.LBE1844:
.LBB1849:
.LBB1843:
	.loc 5 696 0
	add 26,9,29
.LVL23:
.LBE1843:
.LBE1849:
	.loc 4 162 0
	lwz 0,-12(6)
	cmpwi 7,0,0
	beq+ 7,.L121
.LVL24:
.LBE1850:
.LBB1851:
.LBB1852:
	.loc 4 166 0
	lis 5,.LC0@ha
.LVL25:
	li 4,20
.LVL26:
	la 5,.LC0@l(5)
	addi 3,1,16
.LEHB0:
	crxor 6,6,6
	bl snprintf
.LVL27:
	.loc 4 169 0
	addi 3,1,16
	bl fatUnmount
	.loc 4 171 0
	li 4,1
	addi 3,1,16
	bl ntfsUnmount
	.loc 4 173 0
	addi 3,1,16
	bl ext2Unmount
.LVL28:
.LBB1853:
.LBB1854:
	.loc 5 696 0
	lwz 3,16(31)
.LVL29:
.LBE1854:
.LBE1853:
.LBB1855:
.LBB1856:
	.loc 2 796 0
	li 4,0
	li 6,0
.LBB1857:
.LBB1858:
	.loc 2 711 0
	lwzx 9,3,29
.LBE1858:
.LBE1857:
	.loc 2 796 0
	add 3,3,29
	lwz 5,-12(9)
	bl _ZNSs9_M_mutateEjjj
.LVL30:
.L19:
	.loc 4 418 0
	lwz 9,16(31)
	lwz 29,20(31)
.LBE1856:
.LBE1855:
.LBE1852:
.LBE1851:
.LBE1837:
.LBB1859:
.LBB1860:
	.loc 5 571 0
	subf 25,9,29
	srawi 25,25,2
.LBE1860:
.LBE1859:
	.loc 4 117 0
	cmpw 7,30,25
	blt- 7,.L196
.LBB1862:
.LBB1861:
	.loc 5 571 0
	lwz 0,4(31)
	lwz 26,8(31)
	subf 26,0,26
	lis 0,0x684b
	ori 0,0,55827
	mullw 26,26,0
.L140:
.LVL31:
.LBE1861:
.LBE1862:
.LBB1863:
.LBB1864:
	.loc 5 631 0
	cmplw 7,26,25
.LBE1864:
.LBE1863:
.LBB2232:
.LBB2233:
.LBB2234:
	.loc 2 270 0
	lis 11,_ZNSs4_Rep20_S_empty_rep_storageE+12@ha
	la 0,_ZNSs4_Rep20_S_empty_rep_storageE+12@l(11)
	stw 0,12(1)
.LVL32:
.LBE2234:
.LBE2233:
.LBE2232:
.LBB2235:
.LBB2226:
	.loc 5 631 0
	bgt- 7,.L197
	.loc 5 633 0
	blt- 7,.L198
.L149:
	mr 9,0
	addi 24,9,-12
.LVL33:
.L114:
.LBE2226:
.LBE2235:
.LBB2236:
.LBB2237:
.LBB2238:
	.loc 2 534 0 discriminator 1
	addi 3,9,-12
.LVL34:
.LBB2239:
.LBB2240:
	.loc 2 235 0 discriminator 1
	cmpw 7,3,24
	bne- 7,.L115
.LVL35:
.L194:
	.loc 2 244 0
	lwz 26,16(31)
	slwi 29,30,2
	add 26,26,29
.LVL36:
.L121:
.LBE2240:
.LBE2239:
.LBE2238:
.LBE2237:
.LBE2236:
.LBB2251:
.LBB2252:
.LBB2253:
.LBB2254:
.LBB2255:
	.file 7 "d:\\devkitpro\\devkitppc\\bin\\../lib/gcc/powerpc-eabi/4.6.3/../../../../powerpc-eabi/include/c++/4.6.3/bits/char_traits.h"
	.loc 7 261 0
	mr 3,28
	bl strlen
.LBE2255:
.LBE2254:
	.loc 2 1121 0
	mr 4,28
.LBB2257:
.LBB2256:
	.loc 7 261 0
	mr 5,3
.LBE2256:
.LBE2257:
	.loc 2 1121 0
	mr 3,26
	bl _ZNSs6assignEPKcj
.LVL37:
.LBE2253:
.LBE2252:
.LBE2251:
.LBB2258:
.LBB2259:
.LBB2260:
	.loc 4 418 0
	lwz 27,4(31)
.LBB2261:
.LBB2262:
.LBB2263:
	.loc 5 571 0
	lwz 9,8(31)
	lis 0,0x684b
	ori 0,0,55827
.LBE2263:
.LBE2262:
	.loc 6 136 0
	li 3,0
.LBB2265:
.LBB2264:
	.loc 5 571 0
	subf 9,27,9
	mullw 0,9,0
.LBE2264:
.LBE2265:
	.loc 6 159 0
	cmpw 4,30,0
	blt- 4,.L199
.L122:
.LBE2261:
.LBE2260:
.LBE2259:
.LBE2258:
	.loc 4 122 0
	lis 28,.LC2@ha
.LVL38:
	li 5,3
	la 28,.LC2@l(28)
	mr 4,28
	bl strncmp
	cmpwi 7,3,0
	bne- 7,.L200
.L123:
.LVL39:
.LBB2267:
.LBB2268:
.LBB2269:
	.loc 2 288 0 discriminator 4
	lwz 9,16(31)
.LBE2269:
.LBE2268:
.LBE2267:
	.loc 4 124 0 discriminator 4
	lwz 4,0(31)
.LVL40:
.LBB2272:
.LBB2271:
.LBB2270:
	.loc 2 288 0 discriminator 4
	lwzx 3,9,29
.LBE2270:
.LBE2271:
.LBE2272:
.LBB2273:
.LBB2274:
.LBB2275:
	.loc 6 159 0 discriminator 4
	blt- 4,.L201
	.loc 6 138 0
	li 5,0
.L126:
.LBE2275:
.LBE2274:
.LBE2273:
	.loc 4 124 0
	li 6,8
	li 7,64
	bl fatMount
.LVL41:
	cmpwi 7,3,0
	beq- 7,.L202
.LVL42:
.LBB2278:
.LBB2279:
.LBB2280:
	.loc 4 418 0
	lwz 29,4(31)
.LBB2281:
.LBB2282:
.LBB2283:
	.loc 5 571 0
	lis 0,0x684b
	lwz 9,8(31)
	ori 0,0,55827
.LBE2283:
.LBE2282:
	.loc 6 136 0
	li 3,0
.LBB2285:
.LBB2284:
	.loc 5 571 0
	subf 9,29,9
	mullw 0,9,0
.LBE2284:
.LBE2285:
	.loc 6 159 0
	cmpw 7,30,0
	bge- 7,.L128
.LVL43:
.LBE2281:
.LBE2280:
	.loc 6 136 0
	mulli 0,30,27
	lwzx 3,29,0
.LVL44:
.L128:
.LBE2279:
.LBE2278:
	.loc 4 126 0
	lis 4,.LC3@ha
	la 4,.LC3@l(4)
	bl strcmp
	cmpwi 7,3,0
	.loc 4 128 0
	li 3,1
	.loc 4 126 0
	bne- 7,.L18
.LVL45:
	.loc 4 127 0
	mulli 30,30,27
.LVL46:
	stwx 28,29,30
.LVL47:
.L18:
	.loc 4 152 0
	lwz 0,100(1)
	lwz 12,48(1)
	mtlr 0
	lwz 21,52(1)
	lwz 22,56(1)
	mtcrf 8,12
	lwz 23,60(1)
	lwz 24,64(1)
	lwz 25,68(1)
	lwz 26,72(1)
	lwz 27,76(1)
	lwz 28,80(1)
	lwz 29,84(1)
	lwz 30,88(1)
	lwz 31,92(1)
.LVL48:
	addi 1,1,96
	.cfi_remember_state
.LCFI4:
	.cfi_def_cfa_offset 0
	.cfi_restore 70
	.cfi_restore 31
	.cfi_restore 30
	.cfi_restore 29
	.cfi_restore 28
	.cfi_restore 27
	.cfi_restore 26
	.cfi_restore 25
	.cfi_restore 24
	.cfi_restore 23
	.cfi_restore 22
	.cfi_restore 21
	blr
.LVL49:
.L141:
.LCFI5:
	.cfi_restore_state
.LBB2286:
.LBB1835:
	.loc 4 110 0
	li 3,0
.LVL50:
	b .L18
.LVL51:
.L198:
.LBE1835:
.LBE2286:
.LBB2287:
.LBB2227:
	.loc 5 634 0
	slwi 26,26,2
.LVL52:
	add 26,9,26
.LVL53:
.LBB1865:
.LBB1866:
.LBB1867:
.LBB1868:
.LBB1869:
.LBB1870:
.LBB1871:
	.loc 1 103 0
	mr 9,0
	cmpw 7,29,26
	addi 24,9,-12
	beq- 7,.L102
	mr 27,26
.LVL54:
.L109:
.LBB1872:
.LBB1873:
.LBB1874:
.LBB1875:
.LBB1876:
.LBB1877:
.LBB1878:
	.loc 2 288 0
	lwz 9,0(27)
.LBE1878:
.LBE1877:
.LBE1876:
	.loc 2 534 0
	addi 3,9,-12
.LVL55:
.LBB1879:
.LBB1880:
	.loc 2 235 0
	cmpw 7,3,24
	bne- 7,.L203
.LVL56:
.L108:
.LBE1880:
.LBE1879:
.LBE1875:
.LBE1874:
.LBE1873:
.LBE1872:
	.loc 1 103 0
	addi 27,27,4
.LVL57:
	cmpw 7,29,27
	bne+ 7,.L109
	lwz 9,12(1)
.LVL58:
.L102:
.LBE1871:
.LBE1870:
.LBE1869:
.LBE1868:
.LBE1867:
	.loc 5 1256 0
	stw 26,20(31)
	b .L114
.LVL59:
.L201:
.LBE1866:
.LBE1865:
.LBE2227:
.LBE2287:
.LBB2288:
.LBB2276:
.LBB2277:
	.loc 6 138 0
	mulli 0,30,27
	add 27,27,0
	lbz 11,8(27)
	lbz 9,9(27)
.LVL60:
	lbz 0,10(27)
	slwi 11,11,24
	slwi 9,9,16
	lbz 5,11(27)
	or 9,9,11
	slwi 0,0,8
	or 0,0,9
	or 5,5,0
	b .L126
.LVL61:
.L200:
.LBE2277:
.LBE2276:
.LBE2288:
.LBB2289:
.LBB2290:
.LBB2291:
.LBB2292:
	.loc 6 159 0
	bge- 4,.L152
.LVL62:
.LBE2292:
.LBE2291:
	.loc 6 136 0
	mulli 0,30,27
	lwzx 3,27,0
.LVL63:
.L124:
.LBE2290:
.LBE2289:
	.loc 4 122 0
	lis 4,.LC3@ha
	la 4,.LC3@l(4)
	bl strcmp
	cmpwi 7,3,0
	beq- 7,.L123
.LVL64:
.L125:
.LBB2296:
.LBB2297:
.LBB2298:
.LBB2299:
	.loc 6 159 0
	blt- 4,.L204
	.loc 6 136 0
	li 3,0
.L129:
.LBE2299:
.LBE2298:
.LBE2297:
.LBE2296:
	.loc 4 132 0
	lis 28,.LC4@ha
	li 5,4
	la 28,.LC4@l(28)
	mr 4,28
	bl strncmp
	cmpwi 7,3,0
	bne- 7,.L205
.L130:
.LVL65:
.LBB2301:
.LBB2302:
.LBB2303:
	.loc 2 288 0 discriminator 4
	lwz 9,16(31)
.LBE2303:
.LBE2302:
.LBE2301:
	.loc 4 134 0 discriminator 4
	lwz 4,0(31)
.LVL66:
.LBB2306:
.LBB2305:
.LBB2304:
	.loc 2 288 0 discriminator 4
	lwzx 3,9,29
.LBE2304:
.LBE2305:
.LBE2306:
.LBB2307:
.LBB2308:
.LBB2309:
	.loc 6 159 0 discriminator 4
	bge- 4,.L158
.LVL67:
.LBE2309:
.LBE2308:
.LBB2311:
.LBB2312:
	.loc 6 138 0
	mulli 0,30,27
	add 27,27,0
	lbz 11,8(27)
	lbz 9,9(27)
	lbz 0,10(27)
	slwi 11,11,24
	slwi 9,9,16
	lbz 5,11(27)
	or 9,9,11
	slwi 0,0,8
	or 0,0,9
	or 5,5,0
.LVL68:
.L133:
.LBE2312:
.LBE2311:
.LBE2307:
	.loc 4 134 0
	li 6,8
	li 7,64
	li 8,9
	bl ntfsMount
.LVL69:
	cmpwi 7,3,0
	bne- 7,.L195
	lwz 27,4(31)
	lis 0,0x684b
	lwz 9,8(31)
	ori 0,0,55827
	subf 9,27,9
	mullw 0,9,0
	cmpw 4,30,0
.LVL70:
.L132:
.LBB2314:
.LBB2315:
.LBB2316:
.LBB2317:
	.loc 6 159 0
	blt- 4,.L206
	.loc 6 136 0
	li 3,0
.L135:
.LBE2317:
.LBE2316:
.LBE2315:
.LBE2314:
	.loc 4 141 0
	lis 28,.LC5@ha
	li 5,5
	la 28,.LC5@l(28)
	mr 4,28
	bl strncmp
	cmpwi 7,3,0
	bne- 7,.L207
.L136:
.LVL71:
.LBB2319:
.LBB2320:
.LBB2321:
	.loc 2 288 0 discriminator 4
	lwz 9,16(31)
.LBE2321:
.LBE2320:
.LBE2319:
	.loc 4 143 0 discriminator 4
	lwz 4,0(31)
.LVL72:
.LBB2324:
.LBB2323:
.LBB2322:
	.loc 2 288 0 discriminator 4
	lwzx 3,9,29
.LBE2322:
.LBE2323:
.LBE2324:
.LBB2325:
.LBB2326:
.LBB2327:
	.loc 6 159 0 discriminator 4
	bge- 4,.L161
.LVL73:
.LBE2327:
.LBE2326:
.LBB2329:
.LBB2330:
	.loc 6 138 0
	mulli 0,30,27
	add 27,27,0
	lbz 0,8(27)
	lbz 9,9(27)
	lbz 5,10(27)
	slwi 0,0,24
	slwi 9,9,16
	or 9,9,0
	slwi 5,5,8
	lbz 0,11(27)
	or 5,5,9
	or 5,0,5
.LVL74:
.L139:
.LBE2330:
.LBE2329:
.LBE2325:
	.loc 4 143 0
	lis 8,0x12
	li 6,8
	li 7,64
	ori 8,8,4097
	bl ext2Mount
.LVL75:
	cmpwi 7,3,0
	bne- 7,.L195
.LVL76:
.L138:
.LBB2332:
.LBB2333:
	.loc 5 696 0
	lwz 3,16(31)
.LVL77:
.LBE2333:
.LBE2332:
.LBB2334:
.LBB2335:
	.loc 2 796 0
	li 4,0
	li 6,0
.LBB2336:
.LBB2337:
	.loc 2 711 0
	lwzx 9,3,29
.LBE2337:
.LBE2336:
	.loc 2 796 0
	add 3,3,29
	lwz 5,-12(9)
	bl _ZNSs9_M_mutateEjjj
.LEHE0:
.LVL78:
	.loc 4 151 0
	li 3,0
	b .L18
.LVL79:
.L199:
.LBE2335:
.LBE2334:
.LBB2338:
.LBB2266:
	.loc 6 136 0
	mulli 0,30,27
	lwzx 3,27,0
	b .L122
.LVL80:
.L205:
.LBE2266:
.LBE2338:
.LBB2339:
.LBB2340:
.LBB2341:
.LBB2342:
	.loc 6 159 0
	bge- 4,.L157
.LVL81:
.LBE2342:
.LBE2341:
	.loc 6 136 0
	mulli 0,30,27
	lwzx 3,27,0
.LVL82:
.L131:
.LBE2340:
.LBE2339:
	.loc 4 132 0
	lis 4,.LC3@ha
	la 4,.LC3@l(4)
	bl strcmp
	cmpwi 7,3,0
	bne- 7,.L132
	b .L130
.LVL83:
.L204:
.LBB2346:
.LBB2300:
	.loc 6 136 0
	mulli 0,30,27
	lwzx 3,27,0
	b .L129
.LVL84:
.L207:
.LBE2300:
.LBE2346:
.LBB2347:
.LBB2348:
.LBB2349:
.LBB2350:
	.loc 6 159 0
	bge- 4,.L160
.LVL85:
.LBE2350:
.LBE2349:
	.loc 6 136 0
	mulli 0,30,27
	lwzx 3,27,0
.LVL86:
.L137:
.LBE2348:
.LBE2347:
	.loc 4 141 0
	lis 4,.LC3@ha
	la 4,.LC3@l(4)
	bl strcmp
	cmpwi 7,3,0
	bne- 7,.L138
	b .L136
.LVL87:
.L206:
.LBB2354:
.LBB2318:
	.loc 6 136 0
	mulli 0,30,27
	lwzx 3,27,0
	b .L135
.LVL88:
.L195:
.LBE2318:
.LBE2354:
	.loc 4 145 0
	lwz 9,4(31)
	mulli 30,30,27
.LVL89:
	.loc 4 146 0
	li 3,1
	.loc 4 145 0
	stwx 28,9,30
	.loc 4 146 0
	b .L18
.LVL90:
.L197:
.LBB2355:
.LBB2228:
.LBB1899:
.LBB1900:
.LBB1901:
	.file 8 "d:\\devkitpro\\devkitppc\\bin\\../lib/gcc/powerpc-eabi/4.6.3/../../../../powerpc-eabi/include/c++/4.6.3/bits/vector.tcc"
	.loc 8 380 0
	subf. 24,25,26
	beq- 0,.L149
.LBB1902:
	.loc 8 382 0
	lwz 0,24(31)
	subf 0,29,0
	srawi 0,0,2
	cmplw 7,24,0
	ble- 7,.L208
.LVL91:
.LBB1903:
.LBB1904:
.LBB1905:
	.loc 5 1241 0
	lis 0,0x3fff
	ori 0,0,65535
	subf 0,25,0
	cmplw 7,24,0
	bgt- 7,.L209
.LVL92:
	.loc 5 1244 0
	cmplw 7,24,25
	mr 0,24
	bge- 7,.L60
	mr 0,25
.L60:
	add 0,0,25
.LVL93:
	.loc 5 1245 0
	lis 22,0x3fff
	cmplw 7,0,25
	li 3,-4
	ori 22,22,65535
	blt- 7,.L61
.LVL94:
	cmplw 7,0,22
	bgt- 7,.L61
.LVL95:
.LBE1905:
.LBE1904:
.LBB1907:
.LBB1908:
	.loc 5 150 0
	cmpwi 7,0,0
	li 22,0
	li 23,0
	bne- 7,.L210
.LVL96:
.L62:
.LBE1908:
.LBE1907:
	.loc 8 424 0
	slwi 25,25,2
.LVL97:
	stw 24,40(1)
	add 21,23,25
.LVL98:
	.file 9 "d:\\devkitpro\\devkitppc\\bin\\../lib/gcc/powerpc-eabi/4.6.3/../../../../powerpc-eabi/include/c++/4.6.3/bits/stl_uninitialized.h"
	.loc 9 185 0
	mr 25,21
.LVL99:
.L64:
.LBB1912:
.LBB1913:
.LBB1914:
.LBB1915:
.LBB1916:
.LBB1917:
.LBB1918:
	.loc 1 84 0
	cmpwi 7,25,0
	beq- 7,.L63
.LVL100:
	.loc 4 118 0
	addi 27,1,12
	.loc 1 84 0
	mr 3,25
	mr 4,27
.LEHB1:
	bl _ZNSsC1ERKSs
.LEHE1:
.LVL101:
.L63:
.LBE1918:
.LBE1917:
	.loc 9 188 0
	lwz 0,40(1)
	addi 25,25,4
.LVL102:
	addic. 9,0,-1
	stw 9,40(1)
	bne+ 0,.L64
.LVL103:
.LBE1916:
.LBE1915:
.LBE1914:
.LBE1913:
.LBE1912:
	.loc 8 429 0
	lwz 25,16(31)
.LVL104:
.LBB1939:
.LBB1940:
.LBB1941:
.LBB1942:
.LBB1943:
.LBB1944:
	.loc 9 76 0
	mr 27,23
	cmpw 7,29,25
	beq- 7,.L71
.LVL105:
.L73:
.LBB1945:
.LBB1946:
	.loc 1 84 0
	cmpwi 7,27,0
	beq- 7,.L72
.LVL106:
	mr 3,27
	mr 4,25
.LEHB2:
	bl _ZNSsC1ERKSs
.LEHE2:
.LVL107:
.L72:
.LBE1946:
.LBE1945:
	.loc 9 76 0
	addi 25,25,4
.LVL108:
	addi 27,27,4
.LVL109:
	cmpw 7,29,25
	bne+ 7,.L73
.LVL110:
.L71:
.LBE1944:
.LBE1943:
.LBE1942:
.LBE1941:
.LBE1940:
.LBE1939:
	.loc 8 436 0
	lwz 25,20(31)
.LVL111:
	.loc 8 434 0
	slwi 24,24,2
.LVL112:
	add 24,27,24
.LVL113:
.LBB1970:
.LBB1971:
.LBB1972:
.LBB1973:
.LBB1974:
.LBB1975:
	.loc 9 76 0
	cmpw 7,29,25
	.loc 9 73 0
	mr 27,24
	.loc 9 76 0
	beq- 7,.L75
.LVL114:
.L179:
.LBB1976:
.LBB1977:
	.loc 1 84 0
	cmpwi 7,27,0
	beq- 7,.L81
.LVL115:
	mr 3,27
	mr 4,29
.LEHB3:
	bl _ZNSsC1ERKSs
.LEHE3:
.LVL116:
.L81:
.LBE1977:
.LBE1976:
	.loc 9 76 0
	addi 29,29,4
.LVL117:
	addi 27,27,4
.LVL118:
	cmpw 7,25,29
	bne+ 7,.L179
	lwz 25,20(31)
.LVL119:
.L75:
.LBE1975:
.LBE1974:
.LBE1973:
.LBE1972:
.LBE1971:
.LBE1970:
	.loc 8 454 0
	lwz 29,16(31)
.LVL120:
	lis 24,_ZNSs4_Rep20_S_empty_rep_storageE@ha
.LVL121:
	la 24,_ZNSs4_Rep20_S_empty_rep_storageE@l(24)
.LBB1996:
.LBB1997:
.LBB1998:
.LBB1999:
.LBB2000:
	.loc 1 103 0
	cmpw 7,25,29
	beq- 7,.L84
.LVL122:
.L95:
.LBB2001:
.LBB2002:
.LBB2003:
.LBB2004:
.LBB2005:
.LBB2006:
.LBB2007:
	.loc 2 288 0
	lwz 9,0(29)
.LBE2007:
.LBE2006:
.LBE2005:
	.loc 2 534 0
	addi 3,9,-12
.LVL123:
.LBB2008:
.LBB2009:
	.loc 2 235 0
	cmpw 7,3,24
	bne- 7,.L211
.LVL124:
.L94:
.LBE2009:
.LBE2008:
.LBE2004:
.LBE2003:
.LBE2002:
.LBE2001:
	.loc 1 103 0
	addi 29,29,4
.LVL125:
	cmpw 7,25,29
	bne+ 7,.L95
	lwz 29,16(31)
.LVL126:
.L84:
.LBE2000:
.LBE1999:
.LBE1998:
.LBE1997:
.LBE1996:
.LBB2026:
.LBB2027:
	.loc 5 155 0
	cmpwi 7,29,0
	beq- 7,.L96
.LVL127:
.LBB2028:
.LBB2029:
	.file 10 "d:\\devkitpro\\devkitppc\\bin\\../lib/gcc/powerpc-eabi/4.6.3/../../../../powerpc-eabi/include/c++/4.6.3/ext/new_allocator.h"
	.loc 10 98 0
	mr 3,29
	bl _ZdlPv
.LVL128:
.L96:
.LBE2029:
.LBE2028:
.LBE2027:
.LBE2026:
	.loc 8 461 0
	slwi 22,22,2
	.loc 8 459 0
	stw 23,16(31)
	.loc 8 461 0
	add 22,23,22
	.loc 8 460 0
	stw 27,20(31)
	.loc 8 461 0
	stw 22,24(31)
.LVL129:
.L193:
	lwz 9,12(1)
	b .L114
.LVL130:
.L152:
.LBE1903:
.LBE1902:
.LBE1901:
.LBE1900:
.LBE1899:
.LBE2228:
.LBE2355:
.LBB2356:
.LBB2295:
.LBB2294:
.LBB2293:
	.loc 6 136 0
	li 3,0
	b .L124
.LVL131:
.L157:
.LBE2293:
.LBE2294:
.LBE2295:
.LBE2356:
.LBB2357:
.LBB2345:
.LBB2344:
.LBB2343:
	li 3,0
	b .L131
.LVL132:
.L202:
.LBE2343:
.LBE2344:
.LBE2345:
.LBE2357:
	.loc 4 124 0
	lwz 27,4(31)
	lis 0,0x684b
	lwz 9,8(31)
	ori 0,0,55827
	subf 9,27,9
	mullw 0,9,0
	cmpw 4,30,0
	b .L125
.LVL133:
.L160:
.LBB2358:
.LBB2353:
.LBB2352:
.LBB2351:
	.loc 6 136 0
	li 3,0
	b .L137
.LVL134:
.L158:
.LBE2351:
.LBE2352:
.LBE2353:
.LBE2358:
.LBB2359:
.LBB2313:
.LBB2310:
	.loc 6 138 0
	li 5,0
	b .L133
.LVL135:
.L161:
.LBE2310:
.LBE2313:
.LBE2359:
.LBB2360:
.LBB2331:
.LBB2328:
	li 5,0
	b .L139
.LVL136:
.L208:
.LBE2328:
.LBE2331:
.LBE2360:
.LBB2361:
.LBB2229:
.LBB2221:
.LBB2217:
.LBB2213:
.LBB2209:
.LBB2045:
	.loc 4 118 0
	addi 27,1,12
	.loc 8 385 0
	addi 3,1,16
	mr 4,27
.LEHB4:
	bl _ZNSsC1ERKSs
.LEHE4:
.LVL137:
.LBB2046:
	.loc 4 418 0
	lwz 26,20(31)
.LVL138:
.LBE2046:
.LBB2047:
.LBB2048:
	.file 11 "d:\\devkitpro\\devkitppc\\bin\\../lib/gcc/powerpc-eabi/4.6.3/../../../../powerpc-eabi/include/c++/4.6.3/bits/stl_iterator.h"
	.loc 11 892 0
	subf 23,29,26
	srawi 23,23,2
.LVL139:
.LBE2048:
.LBE2047:
	.loc 8 388 0
	cmplw 7,24,23
	bge- 7,.L28
	.loc 8 390 0
	slwi 22,24,2
	subf 23,22,26
.LVL140:
.LBB2049:
.LBB2050:
.LBB2051:
.LBB2052:
.LBB2053:
.LBB2054:
	.loc 9 76 0
	cmpw 7,26,23
	beq- 7,.L29
	mr 24,23
.LVL141:
	mr 25,26
.LVL142:
.L31:
.LBB2055:
.LBB2056:
	.loc 1 84 0
	cmpwi 7,25,0
	beq- 7,.L30
.LVL143:
	mr 3,25
	mr 4,24
.LEHB5:
	bl _ZNSsC1ERKSs
.LEHE5:
.LVL144:
.L30:
.LBE2056:
.LBE2055:
	.loc 9 76 0
	addi 24,24,4
.LVL145:
	addi 25,25,4
.LVL146:
	cmpw 7,26,24
	bne+ 7,.L31
.LVL147:
.L29:
.LBE2054:
.LBE2053:
.LBE2052:
.LBE2051:
.LBE2050:
.LBE2049:
.LBB2080:
.LBB2081:
.LBB2082:
.LBB2083:
.LBB2084:
.LBB2085:
	.file 12 "d:\\devkitpro\\devkitppc\\bin\\../lib/gcc/powerpc-eabi/4.6.3/../../../../powerpc-eabi/include/c++/4.6.3/bits/stl_algobase.h"
	.loc 12 530 0
	subf 0,29,23
	srawi. 9,0,2
.LBE2085:
.LBE2084:
.LBE2083:
.LBE2082:
.LBE2081:
.LBE2080:
	.loc 8 394 0
	lwz 0,20(31)
	add 0,0,22
.LBB2098:
.LBB2096:
.LBB2094:
.LBB2092:
.LBB2090:
.LBB2088:
	.loc 12 530 0
	stw 9,40(1)
.LBE2088:
.LBE2090:
.LBE2092:
.LBE2094:
.LBE2096:
.LBE2098:
	.loc 8 394 0
	stw 0,20(31)
.LVL148:
.LBB2099:
.LBB2097:
.LBB2095:
.LBB2093:
.LBB2091:
.LBB2089:
	.loc 12 530 0
	ble- 0,.L33
.LVL149:
.L178:
	.loc 12 531 0
	addi 26,26,-4
.LVL150:
	addi 23,23,-4
.LVL151:
.LBB2086:
.LBB2087:
	.loc 2 542 0
	mr 3,26
	mr 4,23
.LEHB6:
	bl _ZNSs6assignERKSs
.LVL152:
.LBE2087:
.LBE2086:
	.loc 12 530 0
	lwz 0,40(1)
	addic. 9,0,-1
	stw 9,40(1)
	bne+ 0,.L178
.LVL153:
.L33:
.LBE2089:
.LBE2091:
.LBE2093:
.LBE2095:
.LBE2097:
.LBE2099:
	.loc 8 397 0
	add 22,29,22
.LVL154:
.LBB2100:
.LBB2101:
.LBB2102:
	.loc 12 675 0
	cmpw 7,29,22
	beq- 7,.L40
.LVL155:
.L41:
.LBB2103:
.LBB2104:
	.loc 2 542 0
	mr 3,29
	addi 4,1,16
.LVL156:
	bl _ZNSs6assignERKSs
.LEHE6:
.LVL157:
	addi 29,29,4
.LVL158:
.LBE2104:
.LBE2103:
	.loc 12 675 0
	cmpw 7,22,29
	bne+ 7,.L41
.LVL159:
.L40:
.LBE2102:
.LBE2101:
.LBE2100:
.LBB2105:
.LBB2106:
.LBB2107:
.LBB2108:
.LBB2109:
.LBB2110:
	.loc 2 288 0
	lwz 9,16(1)
.LBE2110:
.LBE2109:
.LBE2108:
.LBB2111:
.LBB2112:
	.loc 2 235 0
	lis 24,_ZNSs4_Rep20_S_empty_rep_storageE@ha
	la 24,_ZNSs4_Rep20_S_empty_rep_storageE@l(24)
.LBE2112:
.LBE2111:
	.loc 2 534 0
	addi 3,9,-12
.LVL160:
.LBB2120:
.LBB2119:
	.loc 2 235 0
	cmpw 7,3,24
	beq+ 7,.L193
.LVL161:
.LBB2113:
.LBB2114:
.LBB2115:
	.loc 3 66 0
	lwz 11,-4(9)
.LVL162:
.LBE2115:
.LBE2114:
.LBE2113:
	.loc 2 240 0
	cmpwi 7,11,0
.LBB2118:
.LBB2117:
.LBB2116:
	.loc 3 67 0
	addi 11,11,-1
	stw 11,-4(9)
.LBE2116:
.LBE2117:
.LBE2118:
	.loc 2 240 0
	bgt+ 7,.L193
	.loc 2 244 0
	addi 4,1,11
	bl _ZNSs4_Rep10_M_destroyERKSaIcE
.LVL163:
	lwz 9,12(1)
	b .L114
.LVL164:
.L210:
.LBE2119:
.LBE2120:
.LBE2107:
.LBE2106:
.LBE2105:
.LBE2045:
.LBB2199:
.LBB2030:
.LBB1911:
	.loc 5 150 0
	slwi 3,0,2
	mr 22,0
.LVL165:
.L61:
	addi 27,1,12
.LEHB7:
.LBB1909:
.LBB1910:
	.loc 10 92 0
	bl _Znwj
.LEHE7:
.LVL166:
	mr 23,3
	b .L62
.LVL167:
.L28:
.LBE1910:
.LBE1909:
.LBE1911:
.LBE2030:
.LBE2199:
.LBB2200:
.LBB2121:
.LBB2122:
.LBB2123:
.LBB2124:
.LBB2125:
	.loc 9 188 0
	subf. 24,23,24
.LVL168:
	beq- 0,.L42
	stw 24,40(1)
	mr 25,26
.LVL169:
.L44:
.LBB2126:
.LBB2127:
	.loc 1 84 0
	cmpwi 7,25,0
	beq- 7,.L43
.LVL170:
	mr 3,25
	addi 4,1,16
.LVL171:
.LEHB8:
	bl _ZNSsC1ERKSs
.LEHE8:
.LVL172:
.L43:
.LBE2127:
.LBE2126:
	.loc 9 188 0
	lwz 0,40(1)
	addi 25,25,4
.LVL173:
	addic. 9,0,-1
	stw 9,40(1)
	bne+ 0,.L44
.LVL174:
.L42:
.LBE2125:
.LBE2124:
.LBE2123:
.LBE2122:
.LBE2121:
.LBB2148:
.LBB2149:
.LBB2150:
.LBB2151:
.LBB2152:
.LBB2153:
	.loc 9 76 0
	cmpw 7,29,26
.LBE2153:
.LBE2152:
.LBE2151:
.LBE2150:
.LBE2149:
.LBE2148:
	.loc 8 406 0
	lwz 22,20(31)
	slwi 24,24,2
.LVL175:
	add 22,22,24
	stw 22,20(31)
.LVL176:
.LBB2184:
.LBB2180:
.LBB2176:
.LBB2172:
.LBB2168:
.LBB2164:
	.loc 9 76 0
	beq- 7,.L49
	mr 24,29
	.loc 9 73 0
	mr 25,22
.LVL177:
.L51:
.LBB2154:
.LBB2155:
	.loc 1 84 0
	cmpwi 7,25,0
	beq- 7,.L50
.LVL178:
	mr 3,25
	mr 4,24
.LEHB9:
	bl _ZNSsC1ERKSs
.LEHE9:
.LVL179:
.L50:
.LBE2155:
.LBE2154:
	.loc 9 76 0
	addi 24,24,4
.LVL180:
	addi 25,25,4
.LVL181:
	cmpw 7,26,24
	bne+ 7,.L51
.LBE2164:
.LBE2168:
.LBE2172:
.LBE2176:
.LBE2180:
.LBE2184:
	.loc 8 410 0
	lwz 0,20(31)
	slwi 23,23,2
.LVL182:
	add 0,0,23
	stw 0,20(31)
.LVL183:
.L52:
.LBB2185:
.LBB2186:
.LBB2187:
.LBB2188:
.LBB2189:
	.loc 2 542 0
	mr 3,29
	addi 4,1,16
.LVL184:
.LEHB10:
	bl _ZNSs6assignERKSs
.LEHE10:
.LVL185:
	addi 29,29,4
.LVL186:
.LBE2189:
.LBE2188:
	.loc 12 675 0
	cmpw 7,26,29
	bne+ 7,.L52
	b .L40
.LVL187:
.L49:
.LBE2187:
.LBE2186:
.LBE2185:
	.loc 8 410 0
	slwi 23,23,2
.LVL188:
	add 22,22,23
.LVL189:
	stw 22,20(31)
.LVL190:
	b .L40
.LVL191:
.L203:
.LBE2200:
.LBE2209:
.LBE2213:
.LBE2217:
.LBE2221:
.LBB2222:
.LBB1898:
.LBB1897:
.LBB1896:
.LBB1895:
.LBB1894:
.LBB1893:
.LBB1892:
.LBB1891:
.LBB1890:
.LBB1889:
.LBB1888:
.LBB1887:
.LBB1881:
.LBB1882:
.LBB1883:
	.loc 3 66 0
	lwz 11,-4(9)
.LVL192:
.LBE1883:
.LBE1882:
.LBE1881:
	.loc 2 240 0
	cmpwi 7,11,0
.LBB1886:
.LBB1885:
.LBB1884:
	.loc 3 67 0
	addi 11,11,-1
	stw 11,-4(9)
.LBE1884:
.LBE1885:
.LBE1886:
	.loc 2 240 0
	bgt+ 7,.L108
	.loc 2 244 0
	addi 4,1,9
	bl _ZNSs4_Rep10_M_destroyERKSaIcE
.LVL193:
	b .L108
.LVL194:
.L211:
.LBE1887:
.LBE1888:
.LBE1889:
.LBE1890:
.LBE1891:
.LBE1892:
.LBE1893:
.LBE1894:
.LBE1895:
.LBE1896:
.LBE1897:
.LBE1898:
.LBE2222:
.LBB2223:
.LBB2218:
.LBB2214:
.LBB2210:
.LBB2201:
.LBB2031:
.LBB2025:
.LBB2024:
.LBB2023:
.LBB2022:
.LBB2021:
.LBB2020:
.LBB2019:
.LBB2018:
.LBB2017:
.LBB2016:
.LBB2010:
.LBB2011:
.LBB2012:
	.loc 3 66 0
	lwz 11,-4(9)
.LVL195:
.LBE2012:
.LBE2011:
.LBE2010:
	.loc 2 240 0
	cmpwi 7,11,0
.LBB2015:
.LBB2014:
.LBB2013:
	.loc 3 67 0
	addi 11,11,-1
	stw 11,-4(9)
.LBE2013:
.LBE2014:
.LBE2015:
	.loc 2 240 0
	bgt+ 7,.L94
	.loc 2 244 0
	addi 4,1,10
	bl _ZNSs4_Rep10_M_destroyERKSaIcE
.LVL196:
	b .L94
.LVL197:
.L115:
.LBE2016:
.LBE2017:
.LBE2018:
.LBE2019:
.LBE2020:
.LBE2021:
.LBE2022:
.LBE2023:
.LBE2024:
.LBE2025:
.LBE2031:
.LBE2201:
.LBE2210:
.LBE2214:
.LBE2218:
.LBE2223:
.LBE2229:
.LBE2361:
.LBB2362:
.LBB2250:
.LBB2249:
.LBB2248:
.LBB2247:
.LBB2241:
.LBB2242:
.LBB2243:
	.loc 3 66 0
	lwz 11,-4(9)
.LVL198:
.LBE2243:
.LBE2242:
.LBE2241:
	.loc 2 240 0
	cmpwi 7,11,0
.LBB2246:
.LBB2245:
.LBB2244:
	.loc 3 67 0
	addi 11,11,-1
	stw 11,-4(9)
.LBE2244:
.LBE2245:
.LBE2246:
	.loc 2 240 0
	bgt+ 7,.L194
	.loc 2 244 0
	addi 4,1,8
	bl _ZNSs4_Rep10_M_destroyERKSaIcE
.LVL199:
	b .L194
.LVL200:
.L196:
.LBE2247:
.LBE2248:
.LBE2249:
.LBE2250:
.LBE2362:
	.loc 4 117 0
	slwi 29,30,2
	add 26,9,29
	b .L121
.LVL201:
.L168:
.LBB2363:
.LBB2230:
.LBB2224:
.LBB2219:
.LBB2215:
.LBB2211:
.LBB2202:
.LBB2190:
.LBB2145:
.LBB2142:
.LBB2139:
.LBB2136:
	.loc 9 191 0
	bl __cxa_begin_catch
.LVL202:
.L47:
.LBB2128:
.LBB2129:
.LBB2130:
.LBB2131:
	.loc 1 103 0
	cmpw 7,25,26
	beq- 7,.L212
.LVL203:
.LBB2132:
.LBB2133:
	.loc 1 94 0
	mr 3,26
.LBE2133:
.LBE2132:
	.loc 1 103 0
	addi 26,26,4
.LVL204:
.LBB2135:
.LBB2134:
	.loc 1 94 0
	bl _ZNSsD1Ev
.LVL205:
	b .L47
.LVL206:
.L169:
.LBE2134:
.LBE2135:
.LBE2131:
.LBE2130:
.LBE2129:
.LBE2128:
.LBE2136:
.LBE2139:
.LBE2142:
.LBE2145:
.LBE2190:
.LBB2191:
.LBB2181:
.LBB2177:
.LBB2173:
.LBB2169:
.LBB2165:
	.loc 9 80 0
	bl __cxa_begin_catch
.LVL207:
.L55:
.LBB2156:
.LBB2157:
.LBB2158:
.LBB2159:
	.loc 1 103 0
	cmpw 7,25,22
	beq- 7,.L213
.LVL208:
.LBB2160:
.LBB2161:
	.loc 1 94 0
	mr 3,22
.LBE2161:
.LBE2160:
	.loc 1 103 0
	addi 22,22,4
.LVL209:
.LBB2163:
.LBB2162:
	.loc 1 94 0
	bl _ZNSsD1Ev
.LVL210:
	b .L55
.LVL211:
.L212:
.LEHB11:
.LBE2162:
.LBE2163:
.LBE2159:
.LBE2158:
.LBE2157:
.LBE2156:
.LBE2165:
.LBE2169:
.LBE2173:
.LBE2177:
.LBE2181:
.LBE2191:
.LBB2192:
.LBB2146:
.LBB2143:
.LBB2140:
.LBB2137:
	.loc 9 194 0
	bl __cxa_rethrow
.LEHE11:
.LVL212:
.L213:
.LEHB12:
.LBE2137:
.LBE2140:
.LBE2143:
.LBE2146:
.LBE2192:
.LBB2193:
.LBB2182:
.LBB2178:
.LBB2174:
.LBB2170:
.LBB2166:
	.loc 9 83 0
	bl __cxa_rethrow
.LEHE12:
.LVL213:
.L167:
	mr 31,3
.LVL214:
.LBE2166:
.LBE2170:
.LBE2174:
.LBE2178:
.LBE2182:
.LBE2193:
.LBB2194:
.LBB2147:
.LBB2144:
.LBB2141:
.LBB2138:
	.loc 9 191 0
	bl __cxa_end_catch
.LVL215:
.L35:
.LBE2138:
.LBE2141:
.LBE2144:
.LBE2147:
.LBE2194:
	.loc 8 411 0
	addi 3,1,16
	bl _ZNSsD1Ev
.LVL216:
.L97:
.LBE2202:
.LBE2211:
.LBE2215:
.LBE2219:
.LBE2224:
.LBE2230:
.LBE2363:
	.loc 4 118 0
	mr 3,27
	bl _ZNSsD1Ev
	mr 3,31
.LEHB13:
	bl _Unwind_Resume
.LEHE13:
.LVL217:
.L170:
	mr 31,3
.LVL218:
.LBB2364:
.LBB2231:
.LBB2225:
.LBB2220:
.LBB2216:
.LBB2212:
.LBB2203:
.LBB2195:
.LBB2183:
.LBB2179:
.LBB2175:
.LBB2171:
.LBB2167:
	.loc 9 80 0
	bl __cxa_end_catch
	b .L35
.LVL219:
.L162:
	mr 31,3
.LVL220:
	b .L97
.LVL221:
.L165:
.LBE2167:
.LBE2171:
.LBE2175:
.LBE2179:
.LBE2183:
.LBE2195:
.LBB2196:
.LBB2077:
.LBB2074:
.LBB2071:
.LBB2068:
.LBB2065:
	bl __cxa_begin_catch
.LVL222:
.L37:
.LBB2057:
.LBB2058:
.LBB2059:
.LBB2060:
	.loc 1 103 0
	cmpw 7,25,26
	beq- 7,.L214
.LVL223:
.LBB2061:
.LBB2062:
	.loc 1 94 0
	mr 3,26
.LBE2062:
.LBE2061:
	.loc 1 103 0
	addi 26,26,4
.LVL224:
.LBB2064:
.LBB2063:
	.loc 1 94 0
	bl _ZNSsD1Ev
.LVL225:
	b .L37
.LVL226:
.L209:
.LBE2063:
.LBE2064:
.LBE2060:
.LBE2059:
.LBE2058:
.LBE2057:
.LBE2065:
.LBE2068:
.LBE2071:
.LBE2074:
.LBE2077:
.LBE2196:
.LBE2203:
.LBB2204:
.LBB2032:
.LBB1906:
	.loc 5 1242 0
	lis 3,.LC1@ha
	addi 27,1,12
	la 3,.LC1@l(3)
.LEHB14:
	bl _ZSt20__throw_length_errorPKc
.LEHE14:
.LVL227:
.L172:
.LBE1906:
.LBE2032:
.LBB2033:
.LBB1936:
.LBB1933:
.LBB1930:
.LBB1927:
	.loc 9 191 0
	bl __cxa_begin_catch
.LVL228:
	mr 31,21
.LVL229:
.L69:
.LBB1919:
.LBB1920:
.LBB1921:
.LBB1922:
	.loc 1 103 0
	cmpw 7,25,31
	beq- 7,.L215
.LVL230:
.LBB1923:
.LBB1924:
	.loc 1 94 0
	mr 3,31
.LBE1924:
.LBE1923:
	.loc 1 103 0
	addi 31,31,4
.LVL231:
.LBB1926:
.LBB1925:
	.loc 1 94 0
	bl _ZNSsD1Ev
.LVL232:
	b .L69
.LVL233:
.L214:
.LEHB15:
.LBE1925:
.LBE1926:
.LBE1922:
.LBE1921:
.LBE1920:
.LBE1919:
.LBE1927:
.LBE1930:
.LBE1933:
.LBE1936:
.LBE2033:
.LBE2204:
.LBB2205:
.LBB2197:
.LBB2078:
.LBB2075:
.LBB2072:
.LBB2069:
.LBB2066:
	.loc 9 83 0
	bl __cxa_rethrow
.LEHE15:
.LVL234:
.L215:
.LEHB16:
.LBE2066:
.LBE2069:
.LBE2072:
.LBE2075:
.LBE2078:
.LBE2197:
.LBE2205:
.LBB2206:
.LBB2034:
.LBB1937:
.LBB1934:
.LBB1931:
.LBB1928:
	.loc 9 194 0
	bl __cxa_rethrow
.LEHE16:
.LVL235:
.L166:
	mr 31,3
.LVL236:
.LBE1928:
.LBE1931:
.LBE1934:
.LBE1937:
.LBE2034:
.LBE2206:
.LBB2207:
.LBB2198:
.LBB2079:
.LBB2076:
.LBB2073:
.LBB2070:
.LBB2067:
	.loc 9 80 0
	bl __cxa_end_catch
	b .L35
.LVL237:
.L171:
	mr 31,3
.LVL238:
.LBE2067:
.LBE2070:
.LBE2073:
.LBE2076:
.LBE2079:
.LBE2198:
.LBE2207:
.LBB2208:
.LBB2035:
.LBB1938:
.LBB1935:
.LBB1932:
.LBB1929:
	.loc 9 191 0
	mr 24,23
.LVL239:
	bl __cxa_end_catch
	mr 3,31
.LVL240:
.L67:
.LBE1929:
.LBE1932:
.LBE1935:
.LBE1938:
.LBE2035:
	.loc 8 442 0
	bl __cxa_begin_catch
	.loc 8 444 0
	cmpwi 7,24,0
	beq- 7,.L77
	.loc 8 449 0
	mr 3,23
	mr 4,24
	bl _ZSt8_DestroyIPSsSsEvT_S1_RSaIT0_E.isra.40
.LVL241:
.L100:
.LBB2036:
.LBB2037:
	.loc 5 155 0
	cmpwi 7,23,0
	beq- 7,.L101
.LVL242:
.LBB2038:
.LBB2039:
	.loc 10 98 0
	mr 3,23
	bl _ZdlPv
.LVL243:
.L101:
.LEHB17:
.LBE2039:
.LBE2038:
.LBE2037:
.LBE2036:
	.loc 8 452 0
	bl __cxa_rethrow
.LEHE17:
.LVL244:
.L174:
.LBB2040:
.LBB1967:
.LBB1964:
.LBB1961:
.LBB1958:
.LBB1955:
	.loc 9 80 0
	stw 3,44(1)
	bl __cxa_end_catch
.LBE1955:
.LBE1958:
.LBE1961:
.LBE1964:
.LBE1967:
.LBE2040:
	.loc 8 442 0
	lwz 3,44(1)
	addi 27,1,12
.LVL245:
	bl __cxa_begin_catch
.LVL246:
.L77:
	.loc 8 445 0
	slwi 4,26,2
	mr 3,21
	add 4,23,4
	bl _ZSt8_DestroyIPSsSsEvT_S1_RSaIT0_E.isra.40
	b .L100
.LVL247:
.L164:
	mr 31,3
	.loc 8 442 0
	bl __cxa_end_catch
	b .L97
.LVL248:
.L163:
	mr 31,3
.LVL249:
	b .L35
.LVL250:
.L173:
.LBB2041:
.LBB1968:
.LBB1965:
.LBB1962:
.LBB1959:
.LBB1956:
	.loc 9 80 0
	bl __cxa_begin_catch
.LVL251:
	mr 31,23
.LVL252:
.L79:
.LBB1947:
.LBB1948:
.LBB1949:
.LBB1950:
	.loc 1 103 0
	cmpw 7,27,31
	beq- 7,.L216
.LVL253:
.LBB1951:
.LBB1952:
	.loc 1 94 0
	mr 3,31
.LBE1952:
.LBE1951:
	.loc 1 103 0
	addi 31,31,4
.LVL254:
.LBB1954:
.LBB1953:
	.loc 1 94 0
	bl _ZNSsD1Ev
.LVL255:
	b .L79
.LVL256:
.L175:
.LBE1953:
.LBE1954:
.LBE1950:
.LBE1949:
.LBE1948:
.LBE1947:
.LBE1956:
.LBE1959:
.LBE1962:
.LBE1965:
.LBE1968:
.LBE2041:
.LBB2042:
.LBB1994:
.LBB1992:
.LBB1990:
.LBB1988:
.LBB1986:
	.loc 9 80 0
	bl __cxa_begin_catch
.LVL257:
	mr 31,24
.LVL258:
.L87:
.LBB1978:
.LBB1979:
.LBB1980:
.LBB1981:
	.loc 1 103 0
	cmpw 7,27,31
	beq- 7,.L217
.LVL259:
.LBB1982:
.LBB1983:
	.loc 1 94 0
	mr 3,31
.LBE1983:
.LBE1982:
	.loc 1 103 0
	addi 31,31,4
.LVL260:
.LBB1985:
.LBB1984:
	.loc 1 94 0
	bl _ZNSsD1Ev
.LVL261:
	b .L87
.LVL262:
.L216:
.LEHB18:
.LBE1984:
.LBE1985:
.LBE1981:
.LBE1980:
.LBE1979:
.LBE1978:
.LBE1986:
.LBE1988:
.LBE1990:
.LBE1992:
.LBE1994:
.LBE2042:
.LBB2043:
.LBB1969:
.LBB1966:
.LBB1963:
.LBB1960:
.LBB1957:
	.loc 9 83 0
	bl __cxa_rethrow
.LEHE18:
.LVL263:
.L217:
.LEHB19:
.LBE1957:
.LBE1960:
.LBE1963:
.LBE1966:
.LBE1969:
.LBE2043:
.LBB2044:
.LBB1995:
.LBB1993:
.LBB1991:
.LBB1989:
.LBB1987:
	bl __cxa_rethrow
.LEHE19:
.L176:
	mr 31,3
.LVL264:
	addi 27,1,12
.LVL265:
	.loc 9 80 0
	bl __cxa_end_catch
	mr 3,31
	b .L67
.LBE1987:
.LBE1989:
.LBE1991:
.LBE1993:
.LBE1995:
.LBE2044:
.LBE2208:
.LBE2212:
.LBE2216:
.LBE2220:
.LBE2225:
.LBE2231:
.LBE2364:
	.cfi_endproc
.LFE865:
	.globl __gxx_personality_v0
	.section	.gcc_except_table,"a",@progbits
	.align 2
.LLSDA865:
	.byte	0xff
	.byte	0
	.uleb128 .LLSDATT865-.LLSDATTD865
.LLSDATTD865:
	.byte	0x1
	.uleb128 .LLSDACSE865-.LLSDACSB865
.LLSDACSB865:
	.uleb128 .LEHB0-.LFB865
	.uleb128 .LEHE0-.LEHB0
	.uleb128 0
	.uleb128 0
	.uleb128 .LEHB1-.LFB865
	.uleb128 .LEHE1-.LEHB1
	.uleb128 .L172-.LFB865
	.uleb128 0x1
	.uleb128 .LEHB2-.LFB865
	.uleb128 .LEHE2-.LEHB2
	.uleb128 .L173-.LFB865
	.uleb128 0x1
	.uleb128 .LEHB3-.LFB865
	.uleb128 .LEHE3-.LEHB3
	.uleb128 .L175-.LFB865
	.uleb128 0x1
	.uleb128 .LEHB4-.LFB865
	.uleb128 .LEHE4-.LEHB4
	.uleb128 .L162-.LFB865
	.uleb128 0
	.uleb128 .LEHB5-.LFB865
	.uleb128 .LEHE5-.LEHB5
	.uleb128 .L165-.LFB865
	.uleb128 0x1
	.uleb128 .LEHB6-.LFB865
	.uleb128 .LEHE6-.LEHB6
	.uleb128 .L163-.LFB865
	.uleb128 0
	.uleb128 .LEHB7-.LFB865
	.uleb128 .LEHE7-.LEHB7
	.uleb128 .L162-.LFB865
	.uleb128 0
	.uleb128 .LEHB8-.LFB865
	.uleb128 .LEHE8-.LEHB8
	.uleb128 .L168-.LFB865
	.uleb128 0x1
	.uleb128 .LEHB9-.LFB865
	.uleb128 .LEHE9-.LEHB9
	.uleb128 .L169-.LFB865
	.uleb128 0x1
	.uleb128 .LEHB10-.LFB865
	.uleb128 .LEHE10-.LEHB10
	.uleb128 .L163-.LFB865
	.uleb128 0
	.uleb128 .LEHB11-.LFB865
	.uleb128 .LEHE11-.LEHB11
	.uleb128 .L167-.LFB865
	.uleb128 0
	.uleb128 .LEHB12-.LFB865
	.uleb128 .LEHE12-.LEHB12
	.uleb128 .L170-.LFB865
	.uleb128 0
	.uleb128 .LEHB13-.LFB865
	.uleb128 .LEHE13-.LEHB13
	.uleb128 0
	.uleb128 0
	.uleb128 .LEHB14-.LFB865
	.uleb128 .LEHE14-.LEHB14
	.uleb128 .L162-.LFB865
	.uleb128 0
	.uleb128 .LEHB15-.LFB865
	.uleb128 .LEHE15-.LEHB15
	.uleb128 .L166-.LFB865
	.uleb128 0
	.uleb128 .LEHB16-.LFB865
	.uleb128 .LEHE16-.LEHB16
	.uleb128 .L171-.LFB865
	.uleb128 0x1
	.uleb128 .LEHB17-.LFB865
	.uleb128 .LEHE17-.LEHB17
	.uleb128 .L164-.LFB865
	.uleb128 0
	.uleb128 .LEHB18-.LFB865
	.uleb128 .LEHE18-.LEHB18
	.uleb128 .L174-.LFB865
	.uleb128 0x1
	.uleb128 .LEHB19-.LFB865
	.uleb128 .LEHE19-.LEHB19
	.uleb128 .L176-.LFB865
	.uleb128 0x1
.LLSDACSE865:
	.byte	0x1
	.byte	0
	.align 2
	.long	0
.LLSDATT865:
	.section	".text"
	.size	_ZN15PartitionHandle5MountEiPKc, .-_ZN15PartitionHandle5MountEiPKc
	.align 2
	.globl _ZN15PartitionHandle7UnMountEi
	.type	_ZN15PartitionHandle7UnMountEi, @function
_ZN15PartitionHandle7UnMountEi:
.LFB866:
	.loc 4 155 0
	.cfi_startproc
.LVL266:
	mflr 0
	stwu 1,-48(1)
.LCFI6:
	.cfi_def_cfa_offset 48
	.cfi_register 65, 0
	stw 31,44(1)
	mr 31,3
	.cfi_offset 31, -4
	stw 0,52(1)
	stw 30,40(1)
.LBB2411:
	.loc 4 156 0
	lwz 0,0(3)
	.cfi_offset 30, -8
	.cfi_offset 65, 4
	cmpwi 7,0,0
	beq- 7,.L218
	.loc 4 418 0
	lwz 9,16(3)
.LBB2412:
.LBB2413:
	.loc 5 571 0
	lwz 0,20(3)
	subf 0,9,0
	srawi 0,0,2
.LBE2413:
.LBE2412:
	.loc 4 159 0
	cmpw 7,4,0
	bge- 7,.L218
.LVL267:
.LBB2414:
.LBB2415:
	.loc 5 696 0
	slwi 30,4,2
.LVL268:
.LBE2415:
.LBE2414:
.LBB2416:
.LBB2417:
.LBB2418:
.LBB2419:
.LBB2420:
	.loc 2 288 0
	lwzx 6,9,30
.LBE2420:
.LBE2419:
.LBE2418:
.LBE2417:
.LBE2416:
	.loc 4 162 0
	lwz 0,-12(6)
	cmpwi 7,0,0
	bne- 7,.L220
.LVL269:
.L218:
.LBE2411:
	.loc 4 176 0
	lwz 0,52(1)
	lwz 30,40(1)
	mtlr 0
	lwz 31,44(1)
	addi 1,1,48
	.cfi_remember_state
.LCFI7:
	.cfi_def_cfa_offset 0
	.cfi_restore 31
	.cfi_restore 30
	blr
.LVL270:
.L220:
.LCFI8:
	.cfi_restore_state
.LBB2421:
.LBB2422:
	.loc 4 166 0
	lis 5,.LC0@ha
	li 4,20
.LVL271:
	la 5,.LC0@l(5)
	addi 3,1,8
.LVL272:
	crxor 6,6,6
	bl snprintf
.LVL273:
	.loc 4 169 0
	addi 3,1,8
	bl fatUnmount
	.loc 4 171 0
	addi 3,1,8
	li 4,1
	bl ntfsUnmount
	.loc 4 173 0
	addi 3,1,8
	bl ext2Unmount
.LBB2423:
.LBB2424:
	.loc 5 696 0
	lwz 3,16(31)
.LVL274:
.LBE2424:
.LBE2423:
.LBB2425:
.LBB2426:
	.loc 2 796 0
	li 4,0
	li 6,0
.LBB2427:
.LBB2428:
	.loc 2 711 0
	lwzx 9,3,30
.LBE2428:
.LBE2427:
	.loc 2 796 0
	add 3,3,30
	lwz 5,-12(9)
	bl _ZNSs9_M_mutateEjjj
.LVL275:
.LBE2426:
.LBE2425:
.LBE2422:
.LBE2421:
	.loc 4 176 0
	lwz 0,52(1)
	lwz 30,40(1)
	mtlr 0
	lwz 31,44(1)
.LVL276:
	addi 1,1,48
	.cfi_restore 30
	.cfi_restore 31
.LCFI9:
	.cfi_def_cfa_offset 0
	blr
	.cfi_endproc
.LFE866:
	.size	_ZN15PartitionHandle7UnMountEi, .-_ZN15PartitionHandle7UnMountEi
	.align 2
	.globl _ZN15PartitionHandle10IsExistingEy
	.type	_ZN15PartitionHandle10IsExistingEy, @function
_ZN15PartitionHandle10IsExistingEy:
.LFB867:
	.loc 4 179 0
	.cfi_startproc
.LVL277:
.LBB2429:
	.loc 4 418 0
	lwz 9,4(3)
.LBB2430:
.LBB2431:
	.loc 5 571 0
	lis 0,0x684b
	lwz 11,8(3)
	ori 0,0,55827
.LBE2431:
.LBE2430:
	.loc 4 186 0
	li 3,0
.LVL278:
.LBB2433:
.LBB2432:
	.loc 5 571 0
	subf 11,9,11
.LBE2432:
.LBE2433:
	.loc 4 180 0
	mullw. 0,11,0
	beqlr- 0
.LVL279:
	.loc 4 182 0
	lbz 11,4(9)
	lbz 10,5(9)
	lbz 7,6(9)
	slwi 11,11,24
	slwi 10,10,16
	lbz 8,9(9)
	or 10,10,11
	slwi 7,7,8
	lbz 11,7(9)
	or 7,7,10
	lbz 10,8(9)
	slwi 8,8,16
	or 7,11,7
	lbz 11,10(9)
	cmpw 7,7,5
	slwi 10,10,24
	or 8,8,10
	slwi 11,11,8
	lbz 10,11(9)
	or 11,11,8
	or 11,10,11
	beq- 7,.L236
.L230:
.LBE2429:
	.loc 4 178 0
	li 10,27
	mtctr 0
	b .L233
.LVL280:
.L226:
.LBB2434:
	.loc 4 182 0
	lbz 0,4(11)
	addi 10,10,27
	lbz 8,5(11)
	lbz 4,6(11)
	slwi 0,0,24
	slwi 8,8,16
	lbz 7,8(11)
	or 8,8,0
	slwi 4,4,8
	lbz 0,7(11)
	or 4,4,8
	lbz 8,9(11)
	slwi 7,7,24
	or 4,0,4
	lbz 0,10(11)
	cmpw 7,4,5
	slwi 8,8,16
	or 8,8,7
	slwi 0,0,8
	lbz 11,11(11)
	or 0,0,8
	or 0,11,0
	beq- 7,.L237
.L233:
	add 11,9,10
	.loc 4 180 0
	bdnz .L226
	.loc 4 186 0
	li 3,0
	blr
.L237:
	.loc 4 182 0
	cmpw 7,0,6
	bne+ 7,.L233
	.loc 4 183 0
	li 3,1
.LBE2434:
	.loc 4 187 0
	blr
.LVL281:
.L236:
.LBB2435:
	.loc 4 182 0
	cmpw 7,11,6
	.loc 4 183 0
	li 3,1
	.loc 4 182 0
	bne+ 7,.L230
	blr
.LBE2435:
	.cfi_endproc
.LFE867:
	.size	_ZN15PartitionHandle10IsExistingEy, .-_ZN15PartitionHandle10IsExistingEy
	.align 2
	.globl _ZN15PartitionHandle15CheckSectorSizeEPK21DISC_INTERFACE_STRUCT
	.type	_ZN15PartitionHandle15CheckSectorSizeEPK21DISC_INTERFACE_STRUCT, @function
_ZN15PartitionHandle15CheckSectorSizeEPK21DISC_INTERFACE_STRUCT:
.LFB872:
	.loc 4 371 0
	.cfi_startproc
.LVL282:
	stwu 1,-24(1)
.LCFI10:
	.cfi_def_cfa_offset 24
	mflr 0
.LBB2436:
	.loc 4 376 0
	li 4,4096
.LBE2436:
	.loc 4 371 0
	stw 29,12(1)
	mr 29,3
	.cfi_offset 29, -12
	.cfi_register 65, 0
.LBB2437:
	.loc 4 376 0
	li 3,32
.LVL283:
.LBE2437:
	.loc 4 371 0
	stw 30,16(1)
	stw 31,20(1)
.LBB2438:
	.loc 4 378 0
	li 31,512
	.cfi_offset 31, -4
	.cfi_offset 30, -8
.LBE2438:
	.loc 4 371 0
	stw 0,28(1)
.LBB2439:
	.loc 4 376 0
	.cfi_offset 65, 4
	bl memalign
.LVL284:
	.loc 4 377 0
	mr. 30,3
	beq- 0,.L239
	.loc 4 380 0
	li 4,0
	li 5,4096
	bl memset
.LVL285:
	.loc 4 382 0
	lwz 0,16(29)
	li 3,0
	li 4,1
	mtctr 0
	mr 5,30
	bctrl
	li 0,4096
	cmpwi 7,3,0
	li 11,0
	li 9,0
	mtctr 0
	beq- 7,.L262
.LVL286:
.L258:
	.loc 4 390 0
	lbzx 0,30,11
	addi 10,9,1
	mr 31,9
	.loc 4 387 0
	addi 11,11,1
	.loc 4 390 0
	cmpwi 7,0,0
	beq- 7,.L242
	mr 31,10
.L242:
	mr 9,31
.LVL287:
	.loc 4 387 0
	bdnz .L258
	.loc 4 393 0
	li 4,255
	li 5,4096
	mr 3,30
	bl memset
.LVL288:
	.loc 4 395 0
	lwz 0,16(29)
	li 3,0
	li 4,1
	mtctr 0
	mr 5,30
	bctrl
	li 0,4096
	cmpwi 7,3,0
	li 11,0
	li 9,0
	mtctr 0
	beq- 7,.L263
.LVL289:
.L257:
	.loc 4 403 0
	lbzx 0,30,11
	addi 10,9,1
	mr 29,9
	.loc 4 400 0
	addi 11,11,1
	.loc 4 403 0
	cmpwi 7,0,255
	beq- 7,.L245
	mr 29,10
.L245:
	mr 9,29
.LVL290:
	.loc 4 400 0
	bdnz .L257
	.loc 4 406 0
	mr 3,30
	bl free
.LVL291:
	.loc 4 408 0
	cmpwi 7,31,512
	bgt- 7,.L246
	.loc 4 408 0 is_stmt 0 discriminator 1
	cmpwi 7,29,512
	.loc 4 409 0 is_stmt 1 discriminator 1
	li 31,512
.LVL292:
	.loc 4 408 0 discriminator 1
	ble- 7,.L239
.L247:
	.loc 4 411 0 discriminator 1
	cmpwi 7,29,1024
	.loc 4 412 0 discriminator 1
	li 31,1024
	.loc 4 411 0 discriminator 1
	ble- 7,.L239
.L249:
	.loc 4 417 0 discriminator 1
	cmpwi 7,29,2049
	mfcr 31
	rlwinm 31,31,29,1
	neg 31,31
	rlwinm 31,31,0,0,20
	addi 31,31,4096
.LVL293:
.L239:
.LBE2439:
	.loc 4 418 0
	lwz 0,28(1)
	mr 3,31
	lwz 29,12(1)
	mtlr 0
	lwz 30,16(1)
.LVL294:
	lwz 31,20(1)
	addi 1,1,24
	.cfi_remember_state
.LCFI11:
	.cfi_def_cfa_offset 0
	.cfi_restore 31
	.cfi_restore 30
	.cfi_restore 29
	blr
.LVL295:
.L246:
.LCFI12:
	.cfi_restore_state
.LBB2440:
	.loc 4 411 0
	cmpwi 7,31,1024
	ble- 7,.L247
	.loc 4 414 0
	cmpwi 7,31,2048
	.loc 4 417 0
	li 31,4096
.LVL296:
	.loc 4 414 0
	ble- 7,.L249
.LBE2440:
	.loc 4 418 0
	lwz 0,28(1)
	mr 3,31
	lwz 29,12(1)
.LVL297:
	mtlr 0
	lwz 30,16(1)
.LVL298:
	lwz 31,20(1)
	addi 1,1,24
	.cfi_remember_state
	.cfi_restore 29
	.cfi_restore 30
	.cfi_restore 31
.LCFI13:
	.cfi_def_cfa_offset 0
	blr
.LVL299:
.L263:
.LCFI14:
	.cfi_restore_state
.LBB2441:
	.loc 4 396 0
	mr 3,30
	.loc 4 397 0
	li 31,512
.LVL300:
	.loc 4 396 0
	bl free
.LBE2441:
	.loc 4 418 0
	lwz 0,28(1)
	mr 3,31
	lwz 29,12(1)
.LVL301:
	mtlr 0
	lwz 30,16(1)
.LVL302:
	lwz 31,20(1)
	addi 1,1,24
	.cfi_remember_state
	.cfi_restore 29
	.cfi_restore 30
	.cfi_restore 31
.LCFI15:
	.cfi_def_cfa_offset 0
	blr
.LVL303:
.L262:
.LCFI16:
	.cfi_restore_state
.LBB2442:
	.loc 4 383 0
	mr 3,30
	bl free
.LBE2442:
	.loc 4 418 0
	lwz 0,28(1)
	mr 3,31
	lwz 29,12(1)
.LVL304:
	mtlr 0
	lwz 30,16(1)
.LVL305:
	lwz 31,20(1)
	addi 1,1,24
	.cfi_restore 29
	.cfi_restore 30
	.cfi_restore 31
.LCFI17:
	.cfi_def_cfa_offset 0
	blr
	.cfi_endproc
.LFE872:
	.size	_ZN15PartitionHandle15CheckSectorSizeEPK21DISC_INTERFACE_STRUCT, .-_ZN15PartitionHandle15CheckSectorSizeEPK21DISC_INTERFACE_STRUCT
	.section	.text._ZNSt6vectorISsSaISsEED2Ev,"axG",@progbits,_ZNSt6vectorISsSaISsEED5Ev,comdat
	.align 2
	.weak	_ZNSt6vectorISsSaISsEED2Ev
	.type	_ZNSt6vectorISsSaISsEED2Ev, @function
_ZNSt6vectorISsSaISsEED2Ev:
.LFB890:
	.loc 5 349 0
	.cfi_startproc
.LVL306:
	mflr 0
	stwu 1,-40(1)
.LCFI18:
	.cfi_def_cfa_offset 40
	.cfi_register 65, 0
	stw 30,32(1)
	stw 0,44(1)
	stw 31,36(1)
.LBB2498:
	.loc 5 350 0
	lwz 30,4(3)
	.cfi_offset 31, -4
	.cfi_offset 65, 4
	.cfi_offset 30, -8
	lwz 31,0(3)
.LBE2498:
	.loc 5 349 0
	stw 28,24(1)
	mr 28,3
	.cfi_offset 28, -16
.LVL307:
.LBB2545:
.LBB2499:
.LBB2500:
.LBB2501:
.LBB2502:
.LBB2503:
	.loc 1 103 0
	cmpw 7,31,30
.LBE2503:
.LBE2502:
.LBE2501:
.LBE2500:
.LBE2499:
.LBE2545:
	.loc 5 349 0
	stw 29,28(1)
.LBB2546:
.LBB2537:
.LBB2535:
.LBB2533:
.LBB2531:
.LBB2529:
	.loc 1 103 0
	beq- 7,.L265
	.cfi_offset 29, -12
	lis 29,_ZNSs4_Rep20_S_empty_rep_storageE@ha
	la 29,_ZNSs4_Rep20_S_empty_rep_storageE@l(29)
.LVL308:
.L272:
.LBB2504:
.LBB2505:
.LBB2506:
.LBB2507:
.LBB2508:
.LBB2509:
.LBB2510:
	.loc 2 288 0
	lwz 9,0(31)
.LBE2510:
.LBE2509:
.LBE2508:
.LBE2507:
.LBE2506:
.LBE2505:
.LBE2504:
	.loc 1 103 0
	addi 31,31,4
.LVL309:
.LBB2527:
.LBB2525:
.LBB2523:
.LBB2521:
	.loc 2 534 0
	addi 3,9,-12
.LVL310:
.LBB2511:
.LBB2512:
	.loc 2 235 0
	cmpw 7,3,29
	bne- 7,.L279
.LVL311:
.L271:
.LBE2512:
.LBE2511:
.LBE2521:
.LBE2523:
.LBE2525:
.LBE2527:
	.loc 1 103 0
	cmpw 7,30,31
	bne+ 7,.L272
	lwz 31,0(28)
.LVL312:
.L265:
.LBE2529:
.LBE2531:
.LBE2533:
.LBE2535:
.LBE2537:
.LBB2538:
.LBB2539:
.LBB2540:
.LBB2541:
	.loc 5 155 0
	cmpwi 7,31,0
	beq- 7,.L264
.LVL313:
.LBB2542:
.LBB2543:
	.loc 10 98 0
	mr 3,31
	bl _ZdlPv
.LVL314:
.L264:
.LBE2543:
.LBE2542:
.LBE2541:
.LBE2540:
.LBE2539:
.LBE2538:
.LBE2546:
	.loc 5 351 0
	lwz 0,44(1)
	lwz 28,24(1)
.LVL315:
	mtlr 0
	lwz 29,28(1)
	lwz 30,32(1)
.LVL316:
	lwz 31,36(1)
.LVL317:
	addi 1,1,40
	.cfi_remember_state
.LCFI19:
	.cfi_def_cfa_offset 0
	.cfi_restore 31
	.cfi_restore 30
	.cfi_restore 29
	.cfi_restore 28
	blr
.LVL318:
.L279:
.LCFI20:
	.cfi_restore_state
.LBB2547:
.LBB2544:
.LBB2536:
.LBB2534:
.LBB2532:
.LBB2530:
.LBB2528:
.LBB2526:
.LBB2524:
.LBB2522:
.LBB2520:
.LBB2519:
.LBB2513:
.LBB2514:
.LBB2515:
	.loc 3 66 0
	lwz 11,-4(9)
.LVL319:
.LBE2515:
.LBE2514:
.LBE2513:
	.loc 2 240 0
	cmpwi 7,11,0
.LBB2518:
.LBB2517:
.LBB2516:
	.loc 3 67 0
	addi 11,11,-1
	stw 11,-4(9)
.LBE2516:
.LBE2517:
.LBE2518:
	.loc 2 240 0
	bgt+ 7,.L271
	.loc 2 244 0
	addi 4,1,8
	bl _ZNSs4_Rep10_M_destroyERKSaIcE
.LVL320:
	b .L271
.LBE2519:
.LBE2520:
.LBE2522:
.LBE2524:
.LBE2526:
.LBE2528:
.LBE2530:
.LBE2532:
.LBE2534:
.LBE2536:
.LBE2544:
.LBE2547:
	.cfi_endproc
.LFE890:
	.size	_ZNSt6vectorISsSaISsEED2Ev, .-_ZNSt6vectorISsSaISsEED2Ev
	.section	".text"
	.align 2
	.globl _ZN15PartitionHandleD2Ev
	.type	_ZN15PartitionHandleD2Ev, @function
_ZN15PartitionHandleD2Ev:
.LFB862:
	.loc 4 88 0
	.cfi_startproc
	.cfi_personality 0,__gxx_personality_v0
	.cfi_lsda 0,.LLSDA862
.LVL321:
	mflr 0
	stwu 1,-56(1)
.LCFI21:
	.cfi_def_cfa_offset 56
	.cfi_register 65, 0
	stw 30,48(1)
	mr 30,3
	.cfi_offset 30, -8
.LVL322:
	stw 0,60(1)
	stw 31,52(1)
.LBB2663:
.LBB2664:
.LBB2665:
	.loc 6 132 0
	li 31,0
	.cfi_offset 31, -4
	.cfi_offset 65, 4
.LBE2665:
	.loc 4 418 0
	lwz 0,4(3)
	lwz 10,8(3)
.LBE2664:
.LBE2663:
	.loc 4 88 0
	stw 28,40(1)
.LBB2760:
.LBB2699:
.LBB2697:
.LBB2666:
.LBB2667:
	.loc 5 571 0
	subf 10,0,10
	lis 0,0x684b
	ori 0,0,55827
.LBE2667:
.LBE2666:
.LBE2697:
.LBE2699:
.LBE2760:
	.loc 4 88 0
	stw 29,44(1)
.LBB2761:
.LBB2700:
.LBB2698:
	.loc 6 132 0
	mullw. 9,10,0
	lwz 11,0(3)
	bne+ 0,.L284
	.cfi_offset 29, -12
	.cfi_offset 28, -16
	b .L282
.LVL323:
.L283:
.LBB2671:
.LBB2668:
	.loc 5 571 0
	lis 0,0x684b
.LBE2668:
.LBE2671:
	.loc 6 132 0
	addi 31,31,1
.LVL324:
.LBB2672:
.LBB2669:
	.loc 5 571 0
	ori 0,0,55827
	mullw 0,10,0
.LBE2669:
.LBE2672:
	.loc 6 132 0
	cmplw 7,31,0
	bge- 7,.L282
.LVL325:
.L284:
.LBB2673:
.LBB2674:
	.loc 4 156 0
	cmpwi 7,11,0
	beq- 7,.L283
.LBE2674:
	.loc 4 418 0
	lwz 9,16(30)
.LBB2682:
.LBB2675:
.LBB2676:
	.loc 5 571 0
	lwz 0,20(30)
	subf 0,9,0
	srawi 0,0,2
.LBE2676:
.LBE2675:
	.loc 4 159 0
	cmpw 7,31,0
	bge- 7,.L283
.LVL326:
	.loc 4 88 0
	slwi 29,31,2
.LVL327:
.LBB2677:
.LBB2678:
.LBB2679:
.LBB2680:
.LBB2681:
	.loc 2 288 0
	lwzx 6,9,29
.LBE2681:
.LBE2680:
.LBE2679:
.LBE2678:
.LBE2677:
	.loc 4 162 0
	lwz 0,-12(6)
	cmpwi 7,0,0
	beq+ 7,.L283
.LVL328:
.LBE2682:
.LBB2683:
.LBB2684:
	.loc 4 166 0
	lis 5,.LC0@ha
	addi 3,1,12
	li 4,20
	la 5,.LC0@l(5)
.LEHB20:
	crxor 6,6,6
	bl snprintf
.LVL329:
	.loc 4 169 0
	addi 3,1,12
	bl fatUnmount
	.loc 4 171 0
	addi 3,1,12
	li 4,1
	bl ntfsUnmount
	.loc 4 173 0
	addi 3,1,12
	bl ext2Unmount
.LVL330:
.LBB2685:
.LBB2686:
	.loc 5 696 0
	lwz 3,16(30)
.LVL331:
.LBE2686:
.LBE2685:
.LBB2687:
.LBB2688:
	.loc 2 796 0
	li 4,0
	li 6,0
.LBB2689:
.LBB2690:
	.loc 2 711 0
	lwzx 9,3,29
.LBE2690:
.LBE2689:
	.loc 2 796 0
	add 3,3,29
	lwz 5,-12(9)
	bl _ZNSs9_M_mutateEjjj
.LVL332:
	lwz 0,4(30)
.LBE2688:
.LBE2687:
.LBE2684:
.LBE2683:
.LBE2673:
	.loc 6 132 0
	addi 31,31,1
.LVL333:
.LBB2695:
.LBB2694:
.LBB2693:
.LBB2692:
.LBB2691:
	.loc 2 796 0
	lwz 10,8(30)
	lwz 11,0(30)
	subf 10,0,10
.LBE2691:
.LBE2692:
.LBE2693:
.LBE2694:
.LBE2695:
.LBB2696:
.LBB2670:
	.loc 5 571 0
	lis 0,0x684b
	ori 0,0,55827
	mullw 0,10,0
.LBE2670:
.LBE2696:
	.loc 6 132 0
	cmplw 7,31,0
	blt+ 7,.L284
.LVL334:
.L282:
.LBE2698:
.LBE2700:
	.loc 4 93 0
	lwz 0,28(11)
	mtctr 0
	bctrl
.LEHE20:
.LVL335:
.LBB2701:
.LBB2702:
.LBB2703:
	.loc 5 350 0
	lwz 31,16(30)
	lwz 29,20(30)
.LVL336:
.LBB2704:
.LBB2705:
.LBB2706:
.LBB2707:
.LBB2708:
	.loc 1 103 0
	cmpw 7,31,29
	beq- 7,.L285
	lis 28,_ZNSs4_Rep20_S_empty_rep_storageE@ha
	la 28,_ZNSs4_Rep20_S_empty_rep_storageE@l(28)
.LVL337:
.L292:
.LBB2709:
.LBB2710:
.LBB2711:
.LBB2712:
.LBB2713:
.LBB2714:
.LBB2715:
	.loc 2 288 0
	lwz 9,0(31)
.LBE2715:
.LBE2714:
.LBE2713:
	.loc 2 534 0
	addi 3,9,-12
.LVL338:
.LBB2716:
.LBB2717:
	.loc 2 235 0
	cmpw 7,3,28
	bne- 7,.L313
.LVL339:
.L291:
.LBE2717:
.LBE2716:
.LBE2712:
.LBE2711:
.LBE2710:
.LBE2709:
	.loc 1 103 0
	addi 31,31,4
.LVL340:
	cmpw 7,29,31
	bne+ 7,.L292
	lwz 31,16(30)
.LVL341:
.L285:
.LBE2708:
.LBE2707:
.LBE2706:
.LBE2705:
.LBE2704:
.LBB2734:
.LBB2735:
.LBB2736:
.LBB2737:
	.loc 5 155 0
	cmpwi 7,31,0
	beq- 7,.L297
.LVL342:
.LBB2738:
.LBB2739:
	.loc 10 98 0
	mr 3,31
	bl _ZdlPv
.LVL343:
.L297:
.LBE2739:
.LBE2738:
.LBE2737:
.LBE2736:
.LBE2735:
.LBE2734:
.LBE2703:
.LBE2702:
.LBE2701:
.LBB2743:
	.loc 4 418 0
	lwz 3,4(30)
.LVL344:
.LBB2744:
.LBB2745:
.LBB2746:
.LBB2747:
.LBB2748:
	.loc 5 155 0
	cmpwi 7,3,0
	beq- 7,.L280
.LVL345:
.LBB2749:
.LBB2750:
	.loc 10 98 0
	bl _ZdlPv
.LVL346:
.L280:
.LBE2750:
.LBE2749:
.LBE2748:
.LBE2747:
.LBE2746:
.LBE2745:
.LBE2744:
.LBE2743:
.LBE2761:
	.loc 4 94 0
	lwz 0,60(1)
	lwz 28,40(1)
	mtlr 0
	lwz 29,44(1)
.LVL347:
	lwz 30,48(1)
.LVL348:
	lwz 31,52(1)
.LVL349:
	addi 1,1,56
	.cfi_remember_state
.LCFI22:
	.cfi_def_cfa_offset 0
	.cfi_restore 31
	.cfi_restore 30
	.cfi_restore 29
	.cfi_restore 28
	blr
.LVL350:
.L313:
.LCFI23:
	.cfi_restore_state
.LBB2762:
.LBB2751:
.LBB2742:
.LBB2741:
.LBB2740:
.LBB2733:
.LBB2732:
.LBB2731:
.LBB2730:
.LBB2729:
.LBB2728:
.LBB2727:
.LBB2726:
.LBB2725:
.LBB2724:
.LBB2718:
.LBB2719:
.LBB2720:
	.loc 3 66 0
	lwz 11,-4(9)
.LVL351:
.LBE2720:
.LBE2719:
.LBE2718:
	.loc 2 240 0
	cmpwi 7,11,0
.LBB2723:
.LBB2722:
.LBB2721:
	.loc 3 67 0
	addi 11,11,-1
	stw 11,-4(9)
.LBE2721:
.LBE2722:
.LBE2723:
	.loc 2 240 0
	bgt+ 7,.L291
	.loc 2 244 0
	addi 4,1,8
	bl _ZNSs4_Rep10_M_destroyERKSaIcE
.LVL352:
	b .L291
.LVL353:
.L310:
	mr 31,3
.LBE2724:
.LBE2725:
.LBE2726:
.LBE2727:
.LBE2728:
.LBE2729:
.LBE2730:
.LBE2731:
.LBE2732:
.LBE2733:
.LBE2740:
.LBE2741:
.LBE2742:
.LBE2751:
	.loc 4 88 0
	addi 3,30,16
	bl _ZNSt6vectorISsSaISsEED1Ev
.LVL354:
.LBB2752:
	.loc 4 418 0
	lwz 3,4(30)
.LVL355:
.LBB2753:
.LBB2754:
.LBB2755:
.LBB2756:
.LBB2757:
	.loc 5 155 0
	cmpwi 7,3,0
	beq- 7,.L309
.LVL356:
.LBB2758:
.LBB2759:
	.loc 10 98 0
	bl _ZdlPv
.LVL357:
.L309:
	mr 3,31
.LEHB21:
	bl _Unwind_Resume
.LEHE21:
.LBE2759:
.LBE2758:
.LBE2757:
.LBE2756:
.LBE2755:
.LBE2754:
.LBE2753:
.LBE2752:
.LBE2762:
	.cfi_endproc
.LFE862:
	.section	.gcc_except_table
.LLSDA862:
	.byte	0xff
	.byte	0xff
	.byte	0x1
	.uleb128 .LLSDACSE862-.LLSDACSB862
.LLSDACSB862:
	.uleb128 .LEHB20-.LFB862
	.uleb128 .LEHE20-.LEHB20
	.uleb128 .L310-.LFB862
	.uleb128 0
	.uleb128 .LEHB21-.LFB862
	.uleb128 .LEHE21-.LEHB21
	.uleb128 0
	.uleb128 0
.LLSDACSE862:
	.section	".text"
	.size	_ZN15PartitionHandleD2Ev, .-_ZN15PartitionHandleD2Ev
	.section	.text._ZNSt6vectorI12_PartitionFSSaIS0_EE14_M_fill_insertEN9__gnu_cxx17__normal_iteratorIPS0_S2_EEjRKS0_,"axG",@progbits,_ZNSt6vectorI12_PartitionFSSaIS0_EE14_M_fill_insertEN9__gnu_cxx17__normal_iteratorIPS0_S2_EEjRKS0_,comdat
	.align 2
	.weak	_ZNSt6vectorI12_PartitionFSSaIS0_EE14_M_fill_insertEN9__gnu_cxx17__normal_iteratorIPS0_S2_EEjRKS0_
	.type	_ZNSt6vectorI12_PartitionFSSaIS0_EE14_M_fill_insertEN9__gnu_cxx17__normal_iteratorIPS0_S2_EEjRKS0_, @function
_ZNSt6vectorI12_PartitionFSSaIS0_EE14_M_fill_insertEN9__gnu_cxx17__normal_iteratorIPS0_S2_EEjRKS0_:
.LFB985:
	.loc 8 377 0
	.cfi_startproc
.LVL358:
	stwu 1,-72(1)
.LCFI24:
	.cfi_def_cfa_offset 72
	mflr 0
	stw 30,64(1)
.LBB2867:
	.loc 8 380 0
	mr. 30,5
	.cfi_offset 30, -8
	.cfi_register 65, 0
.LBE2867:
	.loc 8 377 0
	stw 0,76(1)
	stw 29,60(1)
	stw 31,68(1)
	mr 31,3
	.cfi_offset 31, -4
	.cfi_offset 29, -12
	.cfi_offset 65, 4
	stw 26,48(1)
	stw 27,52(1)
	stw 28,56(1)
	.loc 8 377 0
	lwz 29,0(4)
.LBB3135:
	.loc 8 380 0
	beq- 0,.L314
	.cfi_offset 28, -16
	.cfi_offset 27, -20
	.cfi_offset 26, -24
.LBB2868:
	.loc 8 382 0
	lwz 28,4(3)
	lis 9,0x684b
	lwz 0,8(3)
	ori 9,9,55827
	subf 0,28,0
	mullw 0,0,9
	cmplw 7,30,0
	bgt- 7,.L316
.LBB2869:
.LBB2870:
.LBB2871:
	.loc 11 892 0
	subf 27,29,28
.LBE2871:
.LBE2870:
	.loc 8 385 0
	lwz 4,0(6)
.LBB2873:
.LBB2872:
	.loc 11 892 0
	mullw 27,27,9
.LBE2872:
.LBE2873:
	.loc 8 385 0
	lwz 5,4(6)
.LVL359:
	lwz 3,8(6)
.LVL360:
	lwz 7,12(6)
	lwz 8,16(6)
	.loc 8 388 0
	cmplw 7,30,27
	.loc 8 385 0
	lwz 10,20(6)
	lhz 11,24(6)
	lbz 0,26(6)
	stw 4,8(1)
	stw 5,12(1)
	stw 3,16(1)
	stw 7,20(1)
	stw 8,24(1)
	stw 10,28(1)
	sth 11,32(1)
	stb 0,34(1)
.LVL361:
	.loc 8 388 0
	blt- 7,.L344
.LVL362:
.LBB2874:
.LBB2875:
.LBB2876:
.LBB2877:
.LBB2878:
.LBB2879:
.LBB2880:
	.loc 12 731 0
	subf. 30,27,30
.LVL363:
	.loc 8 382 0
	mr 9,28
	.loc 12 731 0
	beq- 0,.L321
	mtctr 30
	mr 6,3
.LVL364:
.L322:
	.loc 12 733 0
	stw 4,0(9)
	stw 5,4(9)
	stw 6,8(9)
	stw 7,12(9)
	stw 8,16(9)
	stw 10,20(9)
	sth 11,24(9)
	stb 0,26(9)
	.loc 12 731 0
	addi 9,9,27
.LVL365:
	bdnz .L322
	lwz 9,4(31)
.LVL366:
.L321:
.LBE2880:
.LBE2879:
.LBE2878:
.LBE2877:
.LBE2876:
.LBE2875:
.LBE2874:
.LBB2881:
.LBB2882:
.LBB2883:
.LBB2884:
.LBB2885:
.LBB2886:
.LBB2887:
.LBB2888:
.LBB2889:
.LBB2890:
.LBB2891:
	.loc 12 365 0
	cmpwi 7,27,0
.LBE2891:
.LBE2890:
.LBE2889:
.LBE2888:
.LBE2887:
.LBE2886:
.LBE2885:
.LBE2884:
.LBE2883:
.LBE2882:
.LBE2881:
	.loc 8 406 0
	mulli 30,30,27
.LVL367:
	add 3,9,30
	stw 3,4(31)
.LVL368:
.LBB2912:
.LBB2910:
.LBB2908:
.LBB2906:
.LBB2904:
.LBB2902:
.LBB2900:
.LBB2898:
.LBB2896:
.LBB2894:
.LBB2892:
	.loc 12 365 0
	bne- 7,.L323
	li 30,0
.LVL369:
.L324:
.LBE2892:
.LBE2894:
.LBE2896:
.LBE2898:
.LBE2900:
.LBE2902:
.LBE2904:
.LBE2906:
.LBE2908:
.LBE2910:
.LBE2912:
.LBB2913:
.LBB2914:
.LBB2915:
	.loc 12 675 0
	cmpw 7,28,29
.LBE2915:
.LBE2914:
.LBE2913:
	.loc 8 410 0
	add 3,3,30
	stw 3,4(31)
.LVL370:
.LBB2918:
.LBB2917:
.LBB2916:
	.loc 12 675 0
	beq- 7,.L314
	subf 9,29,28
	lis 0,0x684b
	ori 0,0,55827
	addi 9,9,-27
	mullw 9,9,0
	lwz 4,8(1)
	lwz 5,12(1)
	lwz 6,16(1)
	lwz 7,20(1)
	addi 9,9,1
	lwz 8,24(1)
	lwz 10,28(1)
	mtctr 9
	lhz 11,32(1)
	lbz 0,34(1)
.LVL371:
.L325:
	.loc 12 676 0
	stw 4,0(29)
	stw 5,4(29)
	stw 6,8(29)
	stw 7,12(29)
	stw 8,16(29)
	stw 10,20(29)
	sth 11,24(29)
	stb 0,26(29)
	addi 29,29,27
	.loc 12 675 0
	bdnz .L325
.LVL372:
.L314:
.LBE2916:
.LBE2917:
.LBE2918:
.LBE2869:
.LBE2868:
.LBE3135:
	.loc 8 464 0
	lwz 0,76(1)
	lwz 26,48(1)
	mtlr 0
	lwz 27,52(1)
	lwz 28,56(1)
	lwz 29,60(1)
	lwz 30,64(1)
	lwz 31,68(1)
.LVL373:
	addi 1,1,72
	.cfi_remember_state
.LCFI25:
	.cfi_def_cfa_offset 0
	.cfi_restore 31
	.cfi_restore 30
	.cfi_restore 29
	.cfi_restore 28
	.cfi_restore 27
	.cfi_restore 26
	blr
.LVL374:
.L316:
.LCFI26:
	.cfi_restore_state
.LBB3136:
.LBB3131:
.LBB2969:
.LBB2970:
.LBB2971:
.LBB2972:
.LBB2973:
	.loc 5 571 0
	lwz 27,0(3)
.LBE2973:
.LBE2972:
	.loc 5 1241 0
	lis 0,0x97b
	ori 0,0,16990
.LBB2975:
.LBB2974:
	.loc 5 571 0
	subf 28,27,28
	mullw 9,28,9
.LBE2974:
.LBE2975:
	.loc 5 1241 0
	subf 0,9,0
	cmplw 7,30,0
	bgt- 7,.L345
.LVL375:
	.loc 5 1244 0
	cmplw 7,9,30
	mr 0,9
	blt- 7,.L346
	add 0,0,9
.LVL376:
	.loc 5 1245 0
	cmplw 7,9,0
	ble- 7,.L347
.L328:
.LVL377:
.LBE2971:
.LBE2970:
.LBB2978:
.LBB2979:
	.loc 11 892 0
	lis 0,0x684b
.LVL378:
	subf 27,27,29
	ori 0,0,55827
.LBE2979:
.LBE2978:
	.loc 8 418 0
	li 26,-22
.LBB2982:
.LBB2980:
	.loc 11 892 0
	mullw 27,27,0
.LVL379:
.L334:
.LBE2980:
.LBE2982:
.LBB2983:
.LBB2984:
.LBB2985:
.LBB2986:
	.loc 10 92 0
	mr 3,26
.LVL380:
	stw 6,40(1)
	bl _Znwj
.LVL381:
	lwz 6,40(1)
	mr 28,3
.L329:
.LVL382:
.LBE2986:
.LBE2985:
.LBE2984:
.LBE2983:
	.loc 8 424 0
	mulli 27,27,27
.LVL383:
	mtctr 30
	add 27,28,27
.LVL384:
.L330:
.LBB2989:
.LBB2990:
.LBB2991:
.LBB2992:
.LBB2993:
.LBB2994:
.LBB2995:
	.loc 12 733 0
	lwz 10,0(6)
	lwz 11,4(6)
	lwz 9,8(6)
	lwz 0,12(6)
	stw 10,0(27)
	stw 11,4(27)
	stw 9,8(27)
	stw 0,12(27)
	lwz 10,16(6)
	lwz 11,20(6)
	lhz 9,24(6)
	lbz 0,26(6)
	stw 10,16(27)
	stw 11,20(27)
	sth 9,24(27)
	stb 0,26(27)
	.loc 12 731 0
	addi 27,27,27
.LVL385:
	bdnz .L330
.LVL386:
.LBE2995:
.LBE2994:
.LBE2993:
.LBE2992:
.LBE2991:
.LBE2990:
.LBE2989:
	.loc 8 429 0
	lwz 4,0(31)
.LVL387:
.LBB2996:
.LBB2997:
.LBB2998:
.LBB2999:
.LBB3000:
.LBB3001:
.LBB3002:
.LBB3003:
.LBB3004:
.LBB3005:
.LBB3006:
	.loc 12 364 0
	lis 9,0x684b
	ori 9,9,55827
	.loc 12 365 0
	li 27,0
.LVL388:
	.loc 12 364 0
	subf 0,4,29
.LVL389:
	.loc 12 365 0
	mullw. 11,0,9
	bne- 0,.L348
.LBE3006:
.LBE3005:
.LBE3004:
.LBE3003:
.LBE3002:
.LBE3001:
.LBE3000:
.LBE2999:
.LBE2998:
.LBE2997:
.LBE2996:
.LBB3037:
.LBB3038:
.LBB3039:
.LBB3040:
.LBB3041:
.LBB3042:
.LBB3043:
.LBB3044:
.LBB3045:
.LBB3046:
.LBB3047:
	.loc 12 364 0
	lwz 0,4(31)
.LVL390:
	lis 9,0x684b
	ori 9,9,55827
.LBE3047:
.LBE3046:
.LBE3045:
.LBE3044:
.LBE3043:
.LBE3042:
.LBE3041:
.LBE3040:
.LBE3039:
.LBE3038:
.LBE3037:
	.loc 8 434 0
	mulli 30,30,27
.LVL391:
.LBB3108:
.LBB3102:
.LBB3096:
.LBB3090:
.LBB3084:
.LBB3078:
.LBB3072:
.LBB3066:
.LBB3060:
.LBB3054:
.LBB3048:
	.loc 12 364 0
	subf 0,29,0
	.loc 12 365 0
	mullw. 11,0,9
.LBE3048:
.LBE3054:
.LBE3060:
.LBE3066:
.LBE3072:
.LBE3078:
.LBE3084:
.LBE3090:
.LBE3096:
.LBE3102:
.LBE3108:
.LBB3109:
.LBB3034:
.LBB3031:
.LBB3028:
.LBB3025:
.LBB3022:
.LBB3019:
.LBB3016:
.LBB3013:
.LBB3010:
.LBB3007:
	.loc 12 367 0
	add 9,28,27
.LVL392:
.LBE3007:
.LBE3010:
.LBE3013:
.LBE3016:
.LBE3019:
.LBE3022:
.LBE3025:
.LBE3028:
.LBE3031:
.LBE3034:
.LBE3109:
	.loc 8 434 0
	add 30,9,30
.LVL393:
.LBB3110:
.LBB3103:
.LBB3097:
.LBB3091:
.LBB3085:
.LBB3079:
.LBB3073:
.LBB3067:
.LBB3061:
.LBB3055:
.LBB3049:
	.loc 12 365 0
	li 27,0
	bne- 0,.L349
.LVL394:
.L332:
.LBE3049:
.LBE3055:
.LBE3061:
.LBE3067:
.LBE3073:
.LBE3079:
.LBE3085:
.LBE3091:
.LBE3097:
.LBE3103:
.LBE3110:
	.loc 8 456 0
	lwz 3,0(31)
.LBB3111:
.LBB3104:
.LBB3098:
.LBB3092:
.LBB3086:
.LBB3080:
.LBB3074:
.LBB3068:
.LBB3062:
.LBB3056:
.LBB3050:
	.loc 12 367 0
	add 27,30,27
.LVL395:
.LBE3050:
.LBE3056:
.LBE3062:
.LBE3068:
.LBE3074:
.LBE3080:
.LBE3086:
.LBE3092:
.LBE3098:
.LBE3104:
.LBE3111:
.LBB3112:
.LBB3113:
	.loc 5 155 0
	cmpwi 7,3,0
	beq- 7,.L333
.LVL396:
.LBB3114:
.LBB3115:
	.loc 10 98 0
	bl _ZdlPv
.LVL397:
.L333:
.LBE3115:
.LBE3114:
.LBE3113:
.LBE3112:
.LBE2969:
.LBE3131:
.LBE3136:
	.loc 8 464 0
	lwz 0,76(1)
.LBB3137:
.LBB3132:
.LBB3126:
	.loc 8 461 0
	add 26,28,26
	.loc 8 459 0
	stw 28,0(31)
.LBE3126:
.LBE3132:
.LBE3137:
	.loc 8 464 0
	mtlr 0
.LBB3138:
.LBB3133:
.LBB3127:
	.loc 8 460 0
	stw 27,4(31)
	.loc 8 461 0
	stw 26,8(31)
.LBE3127:
.LBE3133:
.LBE3138:
	.loc 8 464 0
	lwz 27,52(1)
	lwz 26,48(1)
	lwz 28,56(1)
.LVL398:
	lwz 29,60(1)
.LVL399:
	lwz 30,64(1)
.LVL400:
	lwz 31,68(1)
.LVL401:
	addi 1,1,72
	.cfi_remember_state
	.cfi_restore 26
	.cfi_restore 27
	.cfi_restore 28
	.cfi_restore 29
	.cfi_restore 30
	.cfi_restore 31
.LCFI27:
	.cfi_def_cfa_offset 0
	blr
.LVL402:
.L346:
.LCFI28:
	.cfi_restore_state
.LBB3139:
.LBB3134:
.LBB3128:
.LBB3116:
.LBB2976:
	.loc 5 1244 0
	mr 0,30
	add 0,0,9
.LVL403:
	.loc 5 1245 0
	cmplw 7,9,0
	bgt- 7,.L328
.L347:
.LVL404:
	lis 9,0x97b
	ori 9,9,16990
	cmplw 7,0,9
	bgt- 7,.L328
.LVL405:
.LBE2976:
.LBE3116:
.LBB3117:
.LBB2987:
	.loc 5 150 0
	cmpwi 7,0,0
.LBE2987:
.LBE3117:
.LBB3118:
.LBB2981:
	.loc 11 892 0
	lis 9,0x684b
	subf 27,27,29
	ori 9,9,55827
	mullw 27,27,9
.LVL406:
.LBE2981:
.LBE3118:
.LBB3119:
.LBB2988:
	.loc 5 150 0
	li 26,0
	li 28,0
	beq+ 7,.L329
	mulli 26,0,27
	b .L334
.LVL407:
.L348:
.LBE2988:
.LBE3119:
.LBB3120:
.LBB3035:
.LBB3032:
.LBB3029:
.LBB3026:
.LBB3023:
.LBB3020:
.LBB3017:
.LBB3014:
.LBB3011:
.LBB3008:
	.loc 12 366 0
	mr 5,0
	mr 3,28
	mr 27,0
	bl memmove
.LVL408:
.LBE3008:
.LBE3011:
.LBE3014:
.LBE3017:
.LBE3020:
.LBE3023:
.LBE3026:
.LBE3029:
.LBE3032:
.LBE3035:
.LBE3120:
.LBB3121:
.LBB3105:
.LBB3099:
.LBB3093:
.LBB3087:
.LBB3081:
.LBB3075:
.LBB3069:
.LBB3063:
.LBB3057:
.LBB3051:
	.loc 12 364 0
	lwz 0,4(31)
	lis 9,0x684b
.LVL409:
	ori 9,9,55827
.LVL410:
.LBE3051:
.LBE3057:
.LBE3063:
.LBE3069:
.LBE3075:
.LBE3081:
.LBE3087:
.LBE3093:
.LBE3099:
.LBE3105:
.LBE3121:
	.loc 8 434 0
	mulli 30,30,27
.LVL411:
.LBB3122:
.LBB3106:
.LBB3100:
.LBB3094:
.LBB3088:
.LBB3082:
.LBB3076:
.LBB3070:
.LBB3064:
.LBB3058:
.LBB3052:
	.loc 12 364 0
	subf 0,29,0
	.loc 12 365 0
	mullw. 11,0,9
.LBE3052:
.LBE3058:
.LBE3064:
.LBE3070:
.LBE3076:
.LBE3082:
.LBE3088:
.LBE3094:
.LBE3100:
.LBE3106:
.LBE3122:
.LBB3123:
.LBB3036:
.LBB3033:
.LBB3030:
.LBB3027:
.LBB3024:
.LBB3021:
.LBB3018:
.LBB3015:
.LBB3012:
.LBB3009:
	.loc 12 367 0
	add 9,28,27
.LVL412:
.LBE3009:
.LBE3012:
.LBE3015:
.LBE3018:
.LBE3021:
.LBE3024:
.LBE3027:
.LBE3030:
.LBE3033:
.LBE3036:
.LBE3123:
	.loc 8 434 0
	add 30,9,30
.LVL413:
.LBB3124:
.LBB3107:
.LBB3101:
.LBB3095:
.LBB3089:
.LBB3083:
.LBB3077:
.LBB3071:
.LBB3065:
.LBB3059:
.LBB3053:
	.loc 12 365 0
	li 27,0
.LVL414:
	beq+ 0,.L332
.LVL415:
.L349:
	.loc 12 366 0
	mr 3,30
	mr 4,29
	mr 5,0
	mr 27,0
	bl memmove
	b .L332
.LVL416:
.L323:
.LBE3053:
.LBE3059:
.LBE3065:
.LBE3071:
.LBE3077:
.LBE3083:
.LBE3089:
.LBE3095:
.LBE3101:
.LBE3107:
.LBE3124:
.LBE3128:
.LBB3129:
.LBB2919:
.LBB2911:
.LBB2909:
.LBB2907:
.LBB2905:
.LBB2903:
.LBB2901:
.LBB2899:
.LBB2897:
.LBB2895:
.LBB2893:
	mulli 30,27,27
	mr 4,29
	mr 5,30
	bl memmove
.LVL417:
	lwz 3,4(31)
	b .L324
.LVL418:
.L344:
.LBE2893:
.LBE2895:
.LBE2897:
.LBE2899:
.LBE2901:
.LBE2903:
.LBE2905:
.LBE2907:
.LBE2909:
.LBE2911:
.LBE2919:
	.loc 8 390 0
	mulli 30,30,27
.LVL419:
.LBB2920:
.LBB2921:
.LBB2922:
.LBB2923:
.LBB2924:
.LBB2925:
.LBB2926:
.LBB2927:
.LBB2928:
.LBB2929:
.LBB2930:
	.loc 8 382 0
	mr 0,28
.LBE2930:
.LBE2929:
.LBE2928:
.LBE2927:
.LBE2926:
.LBE2925:
.LBE2924:
.LBE2923:
.LBE2922:
.LBE2921:
.LBE2920:
	.loc 8 390 0
	subf 27,30,28
.LVL420:
.LBB2941:
.LBB2940:
.LBB2939:
.LBB2938:
.LBB2937:
.LBB2936:
.LBB2935:
.LBB2934:
.LBB2933:
.LBB2932:
.LBB2931:
	.loc 12 364 0
	subf 5,27,28
.LVL421:
	.loc 12 365 0
	mullw. 11,5,9
	beq+ 0,.L318
	.loc 12 366 0
	mr 3,28
	mr 4,27
	bl memmove
.LVL422:
	lwz 0,4(31)
.L318:
.LBE2931:
.LBE2932:
.LBE2933:
.LBE2934:
.LBE2935:
.LBE2936:
.LBE2937:
.LBE2938:
.LBE2939:
.LBE2940:
.LBE2941:
.LBB2942:
.LBB2943:
.LBB2944:
.LBB2945:
.LBB2946:
.LBB2947:
	.loc 12 559 0
	lis 9,0x684b
	subf 5,29,27
	ori 9,9,55827
.LBE2947:
.LBE2946:
.LBE2945:
.LBE2944:
.LBE2943:
.LBE2942:
	.loc 8 394 0
	add 0,0,30
.LBB2963:
.LBB2960:
.LBB2957:
.LBB2954:
.LBB2951:
.LBB2948:
	.loc 12 560 0
	mullw. 11,5,9
.LBE2948:
.LBE2951:
.LBE2954:
.LBE2957:
.LBE2960:
.LBE2963:
	.loc 8 394 0
	stw 0,4(31)
.LVL423:
.LBB2964:
.LBB2961:
.LBB2958:
.LBB2955:
.LBB2952:
.LBB2949:
	.loc 12 560 0
	bne- 0,.L350
.LVL424:
.L319:
.LBE2949:
.LBE2952:
.LBE2955:
.LBE2958:
.LBE2961:
.LBE2964:
	.loc 8 397 0
	add 30,29,30
.LVL425:
.LBB2965:
.LBB2966:
.LBB2967:
	.loc 12 675 0
	cmpw 7,30,29
	beq- 7,.L314
	subf 9,29,30
	lis 0,0x684b
	ori 0,0,55827
	addi 9,9,-27
	mullw 9,9,0
	lwz 4,8(1)
	lwz 5,12(1)
	lwz 6,16(1)
	lwz 7,20(1)
	addi 9,9,1
	lwz 8,24(1)
	lwz 10,28(1)
	mtctr 9
	lhz 11,32(1)
	lbz 0,34(1)
.LVL426:
.L320:
	.loc 12 676 0
	stw 4,0(29)
	stw 5,4(29)
	stw 6,8(29)
	stw 7,12(29)
	stw 8,16(29)
	stw 10,20(29)
	sth 11,24(29)
	stb 0,26(29)
	addi 29,29,27
	.loc 12 675 0
	bdnz .L320
	b .L314
.LVL427:
.L350:
.LBE2967:
.LBE2966:
.LBE2965:
.LBB2968:
.LBB2962:
.LBB2959:
.LBB2956:
.LBB2953:
.LBB2950:
	.loc 12 561 0
	subf 3,5,28
	mr 4,29
	bl memmove
.LVL428:
	b .L319
.LVL429:
.L345:
.LBE2950:
.LBE2953:
.LBE2956:
.LBE2959:
.LBE2962:
.LBE2968:
.LBE3129:
.LBB3130:
.LBB3125:
.LBB2977:
	.loc 5 1242 0
	lis 3,.LC1@ha
	la 3,.LC1@l(3)
	bl _ZSt20__throw_length_errorPKc
.LVL430:
.LVL431:
.LVL432:
.LBE2977:
.LBE3125:
.LBE3130:
.LBE3134:
.LBE3139:
	.cfi_endproc
.LFE985:
	.size	_ZNSt6vectorI12_PartitionFSSaIS0_EE14_M_fill_insertEN9__gnu_cxx17__normal_iteratorIPS0_S2_EEjRKS0_, .-_ZNSt6vectorI12_PartitionFSSaIS0_EE14_M_fill_insertEN9__gnu_cxx17__normal_iteratorIPS0_S2_EEjRKS0_
	.section	".text"
	.align 2
	.type	_ZN15PartitionHandle12AddPartitionEPKcyybhhj.part.56, @function
_ZN15PartitionHandle12AddPartitionEPKcyybhhj.part.56:
.LFB1128:
	.loc 4 189 0
	.cfi_startproc
.LVL433:
	stwu 1,-128(1)
.LCFI29:
	.cfi_def_cfa_offset 128
	mflr 0
	stw 31,124(1)
	mr 31,3
	.cfi_offset 31, -4
	.cfi_register 65, 0
.LBB3180:
	.loc 4 194 0
	li 3,4096
.LVL434:
.LBE3180:
	.loc 4 189 0
	stw 0,132(1)
	stw 21,84(1)
	stw 23,92(1)
	mr 23,10
	.cfi_offset 23, -36
	.cfi_offset 21, -44
	.cfi_offset 65, 4
	stw 24,96(1)
	stw 25,100(1)
	mr 25,9
	.cfi_offset 25, -28
	.cfi_offset 24, -32
	stw 26,104(1)
	mr 26,8
	.cfi_offset 26, -24
	stw 27,108(1)
	mr 27,7
	.cfi_offset 27, -20
	stw 28,112(1)
	mr 28,5
	.cfi_offset 28, -16
	stw 29,116(1)
	mr 29,4
	.cfi_offset 29, -12
	stw 30,120(1)
	mr 30,6
	.cfi_offset 30, -8
	stw 22,88(1)
	.loc 4 189 0
	lbz 21,139(1)
.LBB3213:
	.loc 4 194 0
	.cfi_offset 22, -40
	bl _Znaj
.LVL435:
	.loc 4 196 0
	lwz 9,0(31)
	.loc 4 194 0
	mr 24,3
.LVL436:
	.loc 4 196 0
	li 4,1
	mr 3,30
.LVL437:
	lwz 0,16(9)
	mr 5,24
	mtctr 0
	bctrl
	cmpwi 7,3,0
	bne- 7,.L352
	.loc 4 197 0
	cmpwi 7,24,0
	beq- 7,.L351
.L367:
	.loc 4 224 0
	mr 3,24
	bl _ZdaPv
.L351:
.LBE3213:
	.loc 4 225 0
	lwz 0,132(1)
	lwz 21,84(1)
	mtlr 0
	lwz 22,88(1)
	lwz 23,92(1)
	lwz 24,96(1)
.LVL438:
	lwz 25,100(1)
	lwz 26,104(1)
	lwz 27,108(1)
	lwz 28,112(1)
	lwz 29,116(1)
.LVL439:
	lwz 30,120(1)
	lwz 31,124(1)
.LVL440:
	addi 1,1,128
	.cfi_remember_state
.LCFI30:
	.cfi_def_cfa_offset 0
	.cfi_restore 31
	.cfi_restore 30
	.cfi_restore 29
	.cfi_restore 28
	.cfi_restore 27
	.cfi_restore 26
	.cfi_restore 25
	.cfi_restore 24
	.cfi_restore 23
	.cfi_restore 22
	.cfi_restore 21
	blr
.LVL441:
.L352:
.LCFI31:
	.cfi_restore_state
.LBB3214:
	.loc 4 202 0
	lis 22,.LC2@ha
	addi 3,24,54
	la 22,.LC2@l(22)
	li 5,3
	mr 4,22
	bl memcmp
	cmpwi 7,3,0
	beq- 7,.L354
	addi 3,24,82
	mr 4,22
	li 5,3
	bl memcmp
	cmpwi 7,3,0
	beq- 7,.L354
.LVL442:
.L365:
	.loc 4 208 0
	lis 22,.LC4@ha
	addi 3,24,3
	la 22,.LC4@l(22)
	li 5,4
	mr 4,22
	bl memcmp
	cmpwi 7,3,0
	bne- 7,.L362
	.loc 4 211 0
	li 23,7
.LVL443:
	.loc 4 210 0
	mr 29,22
.LVL444:
.L362:
	.loc 4 418 0
	lwz 9,4(31)
.LBB3181:
.LBB3182:
	.loc 5 571 0
	lis 22,0x684b
.LBE3182:
.LBE3181:
	.loc 4 418 0
	lwz 8,8(31)
.LBB3186:
.LBB3183:
	.loc 5 571 0
	ori 22,22,55827
.LBE3183:
.LBE3186:
	.loc 4 215 0
	li 11,0
.LBB3187:
.LBB3184:
	.loc 5 571 0
	subf 0,9,8
.LBE3184:
.LBE3187:
	.loc 4 215 0
	stb 11,34(1)
.LBB3188:
.LBB3185:
	.loc 5 571 0
	mullw 22,0,22
.LVL445:
.LBE3185:
.LBE3188:
	.loc 4 215 0
	li 0,0
	stw 0,8(1)
	stw 0,12(1)
	stw 0,16(1)
	addi 10,22,1
.LVL446:
	stw 0,20(1)
.LBB3189:
.LBB3190:
	.loc 5 631 0
	cmplw 7,22,10
.LBE3190:
.LBE3189:
	.loc 4 215 0
	stw 0,24(1)
	stw 0,28(1)
	sth 0,32(1)
	stw 0,35(1)
	stw 0,39(1)
	stw 0,43(1)
	stw 0,47(1)
	stw 0,51(1)
	stw 0,55(1)
	sth 0,59(1)
	stb 11,61(1)
.LBB3197:
.LBB3195:
	.loc 5 631 0
	blt- 7,.L369
	.loc 5 633 0
	ble- 7,.L364
.LVL447:
	.loc 5 634 0
	mulli 10,10,27
.LVL448:
	add 10,9,10
.LBB3191:
.LBB3192:
	.loc 5 1256 0
	stw 10,8(31)
.LVL449:
.L364:
.LBE3192:
.LBE3191:
.LBE3195:
.LBE3197:
.LBB3198:
.LBB3199:
	.loc 5 696 0
	mulli 22,22,27
.LVL450:
.LBE3199:
.LBE3198:
	.loc 4 224 0
	cmpwi 7,24,0
	.loc 4 217 0
	stwx 29,9,22
.LBB3200:
.LBB3201:
	.loc 5 696 0
	lwz 9,4(31)
	add 9,9,22
.LBE3201:
.LBE3200:
	.loc 4 218 0
	stw 30,8(9)
	stw 28,4(9)
	.loc 4 219 0
	stw 26,16(9)
	stw 27,12(9)
	.loc 4 221 0
	stb 23,21(9)
	.loc 4 220 0
	stb 25,20(9)
	.loc 4 222 0
	lwz 9,4(31)
	add 9,9,22
	stb 21,22(9)
	.loc 4 223 0
	lwz 0,4(31)
	add 22,0,22
	lwz 0,140(1)
	stw 0,23(22)
	.loc 4 224 0
	bne+ 7,.L367
.LBE3214:
	.loc 4 225 0
	lwz 0,132(1)
	lwz 21,84(1)
	mtlr 0
	lwz 22,88(1)
	lwz 23,92(1)
.LVL451:
	lwz 24,96(1)
.LVL452:
	lwz 25,100(1)
	lwz 26,104(1)
	lwz 27,108(1)
	lwz 28,112(1)
	lwz 29,116(1)
.LVL453:
	lwz 30,120(1)
	lwz 31,124(1)
.LVL454:
	addi 1,1,128
	.cfi_remember_state
	.cfi_restore 21
	.cfi_restore 22
	.cfi_restore 23
	.cfi_restore 24
	.cfi_restore 25
	.cfi_restore 26
	.cfi_restore 27
	.cfi_restore 28
	.cfi_restore 29
	.cfi_restore 30
	.cfi_restore 31
.LCFI32:
	.cfi_def_cfa_offset 0
	blr
.LVL455:
.L354:
.LCFI33:
	.cfi_restore_state
.LBB3215:
.LBB3202:
.LBB3203:
	.loc 4 45 0
	cmpwi 7,23,14
	beq- 7,.L365
	cmplwi 7,23,14
	ble- 7,.L370
	cmpwi 7,23,142
	beq- 7,.L357
	cmplwi 7,23,142
	ble- 7,.L371
	cmpwi 7,23,171
	beq- 7,.L357
	cmplwi 7,23,171
	bgt- 7,.L361
	cmpwi 7,23,168
	bne+ 7,.L356
.L357:
.LBE3203:
.LBE3202:
.LBE3215:
	.loc 4 205 0
	lis 29,.LC6@ha
.LVL456:
	.loc 4 206 0
	li 23,12
.LVL457:
	.loc 4 205 0
	la 29,.LC6@l(29)
	b .L365
.LVL458:
.L370:
.LBB3216:
.LBB3209:
.LBB3206:
	.loc 4 45 0
	cmpwi 7,23,5
	beq- 7,.L357
	cmplwi 7,23,5
	ble- 7,.L372
	cmpwi 7,23,7
	beq- 7,.L357
	cmplwi 7,23,7
	blt- 7,.L365
	addi 0,23,-11
	cmplwi 7,0,1
	bgt- 7,.L356
	b .L365
.LVL459:
.L369:
.LBE3206:
.LBE3209:
.LBB3210:
.LBB3196:
.LBB3193:
.LBB3194:
	.loc 5 944 0
	mr 4,1
	addi 3,31,4
	stwu 8,72(4)
	li 5,1
	addi 6,1,35
	bl _ZNSt6vectorI12_PartitionFSSaIS0_EE14_M_fill_insertEN9__gnu_cxx17__normal_iteratorIPS0_S2_EEjRKS0_
.LVL460:
	lwz 9,4(31)
	b .L364
.LVL461:
.L371:
.LBE3194:
.LBE3193:
.LBE3196:
.LBE3210:
.LBB3211:
.LBB3207:
	.loc 4 45 0
	cmpwi 7,23,15
	beq- 7,.L357
	addi 0,23,-130
	cmplwi 7,0,1
	ble- 7,.L357
.L356:
.LBB3204:
.LBB3205:
	.loc 4 64 0
	lis 3,.LC7@ha
	la 3,.LC7@l(3)
	bl gettext
.LBE3205:
.LBE3204:
.LBE3207:
.LBE3211:
	.loc 4 203 0
	mr 4,22
	li 5,3
	bl strncmp
	.loc 4 202 0
	cmpwi 7,3,0
	beq+ 7,.L365
	b .L357
.L372:
.LBB3212:
.LBB3208:
	.loc 4 45 0
	cmpwi 7,23,1
	beq- 7,.L365
	cmplwi 7,23,1
	blt- 7,.L357
	cmpwi 7,23,4
	bne+ 7,.L356
	b .L365
.L361:
	cmpwi 7,23,175
	beq- 7,.L357
	cmpwi 7,23,232
	bne+ 7,.L356
	b .L357
.LBE3208:
.LBE3212:
.LBE3216:
	.cfi_endproc
.LFE1128:
	.size	_ZN15PartitionHandle12AddPartitionEPKcyybhhj.part.56, .-_ZN15PartitionHandle12AddPartitionEPKcyybhhj.part.56
	.align 2
	.globl _ZN15PartitionHandle12AddPartitionEPKcyybhhj
	.type	_ZN15PartitionHandle12AddPartitionEPKcyybhhj, @function
_ZN15PartitionHandle12AddPartitionEPKcyybhhj:
.LFB868:
	.loc 4 190 0
	.cfi_startproc
.LVL462:
.LBB3224:
.LBB3225:
	.loc 4 418 0
	lwz 12,4(3)
.LBB3226:
.LBB3227:
.LBB3228:
	.loc 5 571 0
	lis 0,0x684b
	lwz 11,8(3)
	ori 0,0,55827
.LBE3228:
.LBE3227:
.LBE3226:
.LBE3225:
.LBE3224:
	.loc 4 190 0
	stwu 1,-32(1)
.LCFI34:
	.cfi_def_cfa_offset 32
.LBB3243:
.LBB3237:
.LBB3231:
.LBB3230:
.LBB3229:
	.loc 5 571 0
	subf 11,12,11
.LBE3229:
.LBE3230:
.LBE3231:
.LBE3237:
.LBE3243:
	.loc 4 190 0
	stw 31,28(1)
.LBB3244:
.LBB3238:
.LBB3232:
	.loc 4 180 0
	mullw. 31,11,0
	.cfi_offset 31, -4
.LVL463:
.LBE3232:
.LBE3238:
.LBE3244:
	.loc 4 190 0
	stw 26,8(1)
	stw 27,12(1)
	stw 28,16(1)
	stw 29,20(1)
	stw 30,24(1)
	.loc 4 190 0
	lwz 0,44(1)
	lbz 11,43(1)
.LBB3245:
.LBB3239:
.LBB3233:
	.loc 4 180 0
	beq- 0,.L374
	.cfi_offset 30, -8
	.cfi_offset 29, -12
	.cfi_offset 28, -16
	.cfi_offset 27, -20
	.cfi_offset 26, -24
.LVL464:
	.loc 4 182 0
	lbz 30,4(12)
	lbz 29,5(12)
	lbz 27,6(12)
	slwi 30,30,24
	slwi 29,29,16
	lbz 28,9(12)
	or 29,29,30
	slwi 27,27,8
	lbz 30,7(12)
	or 27,27,29
	lbz 29,8(12)
	slwi 28,28,16
	or 27,30,27
	lbz 30,10(12)
	cmpw 7,5,27
	slwi 29,29,24
	or 28,28,29
	slwi 30,30,8
	lbz 29,11(12)
	or 30,30,28
	or 30,29,30
	beq- 7,.L384
.LVL465:
.L380:
.LBE3233:
.LBE3239:
.LBE3245:
	.loc 4 189 0
	li 30,27
	mtctr 31
	b .L383
.LVL466:
.L379:
.LBB3246:
.LBB3240:
.LBB3234:
	.loc 4 182 0
	lbz 28,4(31)
	addi 30,30,27
	lbz 29,5(31)
	lbz 26,6(31)
	slwi 28,28,24
	slwi 29,29,16
	lbz 27,7(31)
	or 29,29,28
	slwi 26,26,8
	or 26,26,29
	lbz 28,9(31)
	lbz 29,8(31)
	or 26,27,26
	cmpw 7,5,26
	lbz 27,10(31)
	slwi 29,29,24
	slwi 28,28,16
	or 28,28,29
	slwi 27,27,8
	lbz 29,11(31)
	or 31,27,28
	or 31,29,31
	beq- 7,.L385
.L383:
	add 31,12,30
	.loc 4 180 0
	bdnz .L379
.L374:
	stw 11,40(1)
	stw 0,44(1)
.LBE3234:
.LBE3240:
.LBE3246:
	.loc 4 225 0
	lwz 26,8(1)
	lwz 27,12(1)
	lwz 28,16(1)
	lwz 29,20(1)
	lwz 30,24(1)
	lwz 31,28(1)
	addi 1,1,32
	.cfi_remember_state
.LCFI35:
	.cfi_def_cfa_offset 0
	.cfi_restore 31
	.cfi_restore 30
	.cfi_restore 29
	.cfi_restore 28
	.cfi_restore 27
	.cfi_restore 26
.LBB3247:
.LBB3241:
.LBB3235:
	.loc 4 180 0
	b _ZN15PartitionHandle12AddPartitionEPKcyybhhj.part.56
.LVL467:
.L385:
.LCFI36:
	.cfi_restore_state
	.loc 4 182 0
	cmpw 7,6,31
	bne+ 7,.L383
.L373:
.LBE3235:
.LBE3241:
.LBE3247:
	.loc 4 225 0
	lwz 26,8(1)
	lwz 27,12(1)
	lwz 28,16(1)
	lwz 29,20(1)
	lwz 30,24(1)
	lwz 31,28(1)
	addi 1,1,32
	.cfi_remember_state
.LCFI37:
	.cfi_def_cfa_offset 0
	.cfi_restore 31
	.cfi_restore 30
	.cfi_restore 29
	.cfi_restore 28
	.cfi_restore 27
	.cfi_restore 26
	blr
.LVL468:
.L384:
.LCFI38:
	.cfi_restore_state
.LBB3248:
.LBB3242:
.LBB3236:
	.loc 4 182 0
	cmpw 7,6,30
	bne+ 7,.L380
	b .L373
.LBE3236:
.LBE3242:
.LBE3248:
	.cfi_endproc
.LFE868:
	.size	_ZN15PartitionHandle12AddPartitionEPKcyybhhj, .-_ZN15PartitionHandle12AddPartitionEPKcyybhhj
	.align 2
	.globl _ZN15PartitionHandle8CheckGPTEi
	.type	_ZN15PartitionHandle8CheckGPTEi, @function
_ZN15PartitionHandle8CheckGPTEi:
.LFB871:
	.loc 4 314 0
	.cfi_startproc
.LVL469:
	stwu 1,-88(1)
.LCFI39:
	.cfi_def_cfa_offset 88
	mflr 0
	stw 25,60(1)
	mr 25,3
	.cfi_offset 25, -28
	.cfi_register 65, 0
.LBB3263:
	.loc 4 315 0
	li 3,4096
.LVL470:
.LBE3263:
	.loc 4 314 0
	stw 14,16(1)
	stw 24,56(1)
	mr 14,4
	.cfi_offset 24, -32
	.cfi_offset 14, -72
	stw 29,76(1)
.LBB3323:
	.loc 4 317 0
	li 29,-1
	.cfi_offset 29, -12
.LBE3323:
	.loc 4 314 0
	stw 0,92(1)
	stw 15,20(1)
	stw 16,24(1)
	stw 17,28(1)
	stw 18,32(1)
	stw 19,36(1)
	stw 20,40(1)
	stw 21,44(1)
	stw 22,48(1)
	stw 23,52(1)
	stw 26,64(1)
	stw 27,68(1)
	stw 28,72(1)
	stw 30,80(1)
	stw 31,84(1)
.LBB3324:
	.loc 4 315 0
	.cfi_offset 31, -4
	.cfi_offset 30, -8
	.cfi_offset 28, -16
	.cfi_offset 27, -20
	.cfi_offset 26, -24
	.cfi_offset 23, -36
	.cfi_offset 22, -40
	.cfi_offset 21, -44
	.cfi_offset 20, -48
	.cfi_offset 19, -52
	.cfi_offset 18, -56
	.cfi_offset 17, -60
	.cfi_offset 16, -64
	.cfi_offset 15, -68
	.cfi_offset 65, 4
	bl malloc
.LVL471:
	.loc 4 316 0
	mr. 24,3
	beq- 0,.L387
	.loc 4 320 0
	lwz 9,0(25)
	li 3,1
.LVL472:
	li 4,1
	mr 5,24
	lwz 0,16(9)
	mtctr 0
	bctrl
	cmpwi 7,3,0
	.loc 4 321 0
	mr 3,24
	.loc 4 320 0
	beq- 7,.L411
	.loc 4 325 0
	lis 4,.LC8@ha
	li 5,8
	la 4,.LC8@l(4)
	bl strncmp
	cmpwi 7,3,0
	bne- 7,.L412
	.loc 4 330 0
	lwz 8,76(24)
	lwz 10,72(24)
	.loc 4 331 0
	lwz 11,80(24)
	.loc 4 330 0
	srwi 7,8,16
	.loc 4 332 0
	lwz 9,84(24)
	.loc 4 330 0
	rlwinm 27,8,24,24,31
	.loc 4 333 0
	lwz 0,88(24)
	.loc 4 330 0
	rlwinm 8,8,8,16,23
	rlwinm 3,10,24,24,31
	.loc 4 331 0
	rlwinm 4,11,24,24,31
	.loc 4 330 0
	srwi 26,7,8
	or 27,27,8
	rlwinm 7,7,8,16,23
	rlwinm 6,10,8,16,23
	.loc 4 331 0
	rlwinm 8,11,8,16,23
	.loc 4 332 0
	rlwinm 5,9,8,16,23
	.loc 4 333 0
	rlwinm 30,0,8,16,23
	.loc 4 332 0
	rlwinm 21,9,24,24,31
	.loc 4 333 0
	rlwinm 22,0,24,24,31
	.loc 4 330 0
	or 26,26,7
	or 6,3,6
	rlwinm 23,10,24,16,23
	.loc 4 331 0
	srwi 3,11,24
	.loc 4 330 0
	srwi 7,10,24
	.loc 4 331 0
	rlwinm 28,11,24,16,23
	or 8,4,8
	.loc 4 332 0
	rlwinm 10,9,24,16,23
	srwi 4,9,24
	.loc 4 333 0
	rlwinm 11,0,24,16,23
	.loc 4 332 0
	or 9,21,5
	.loc 4 333 0
	srwi 5,0,24
	or 0,22,30
	.loc 4 330 0
	slwi 6,6,16
	or 7,23,7
	.loc 4 331 0
	or 28,28,3
	slwi 8,8,16
	.loc 4 332 0
	or 10,10,4
	.loc 4 333 0
	or 11,11,5
	.loc 4 330 0
	slwi 27,27,16
	.loc 4 332 0
	slwi 9,9,16
	.loc 4 333 0
	slwi 0,0,16
	.loc 4 330 0
	or 30,26,27
	or 31,6,7
	.loc 4 331 0
	or 28,28,8
	.loc 4 332 0
	or 9,10,9
	.loc 4 333 0
	or 0,11,0
	.loc 4 330 0
	stw 30,72(24)
	.loc 4 335 0
	li 3,4096
	.loc 4 330 0
	stw 31,76(24)
	.loc 4 331 0
	stw 28,80(24)
	.loc 4 332 0
	stw 9,84(24)
	.loc 4 333 0
	stw 0,88(24)
	.loc 4 335 0
	bl malloc
.LVL473:
	.loc 4 336 0
	mr. 26,3
	beq- 0,.L390
.LVL474:
.LBB3264:
	.loc 4 343 0 discriminator 1
	cmpwi 7,28,0
	li 27,0
	beq- 7,.L392
.LVL475:
.L407:
.LBB3265:
	.loc 4 345 0
	lwz 9,0(25)
	mr 3,31
	li 4,1
	mr 5,26
	lwz 0,16(9)
	mtctr 0
	bctrl
	cmpwi 7,3,0
	beq- 7,.L392
.LVL476:
.LBB3266:
	.loc 4 348 0 discriminator 1
	lwz 21,28(25)
	mr 9,27
	lwz 23,84(24)
	divwu 0,21,23
	cmpwi 7,0,0
	beq- 7,.L393
	lis 28,.LANCHOR0@ha
	.loc 4 348 0 is_stmt 0
	mr 22,23
	li 29,0
	la 28,.LANCHOR0@l(28)
	b .L400
.LVL477:
.L394:
	divwu 0,21,22
	addi 29,29,1
.LVL478:
	add 9,29,27
	cmplw 7,0,29
	ble- 7,.L393
.L404:
	mr 23,22
.LVL479:
.L400:
.LBB3267:
	.loc 4 350 0 is_stmt 1
	mullw 23,23,29
	.loc 4 352 0
	mr 4,28
	li 5,16
	.loc 4 350 0
	add 23,26,23
.LVL480:
	.loc 4 352 0
	mr 3,23
	bl memcmp
	cmpwi 7,3,0
	beq+ 7,.L394
	.loc 4 355 0
	mr 3,23
	addi 4,28,16
	li 5,16
	bl memcmp
.LVL481:
	.loc 4 358 0
	lbz 10,36(23)
	lbz 6,37(23)
.LBB3268:
.LBB3269:
.LBB3270:
.LBB3271:
.LBB3272:
.LBB3273:
.LBB3274:
	.loc 5 571 0
	lis 9,0x684b
.LBE3274:
.LBE3273:
.LBE3272:
.LBE3271:
.LBE3270:
.LBE3269:
.LBE3268:
	.loc 4 358 0
	lbz 8,32(23)
	slwi 10,10,24
	lbz 7,33(23)
.LBB3309:
.LBB3302:
.LBB3295:
.LBB3288:
.LBB3281:
.LBB3278:
.LBB3275:
	.loc 5 571 0
	ori 9,9,55827
.LBE3275:
.LBE3278:
.LBE3281:
	.loc 4 418 0
	lwz 11,4(25)
.LBE3288:
.LBE3295:
.LBE3302:
.LBE3309:
	.loc 4 358 0
	slwi 8,8,24
.LBB3310:
.LBB3303:
.LBB3296:
.LBB3289:
.LBB3282:
.LBB3279:
.LBB3276:
	.loc 5 571 0
	lwz 15,8(25)
.LBE3276:
.LBE3279:
.LBE3282:
.LBE3289:
.LBE3296:
.LBE3303:
.LBE3310:
	.loc 4 358 0
	slwi 6,6,16
	lbz 17,38(23)
	slwi 7,7,16
	lbz 0,34(23)
.LBB3311:
.LBB3304:
.LBB3297:
.LBB3290:
.LBB3283:
.LBB3280:
.LBB3277:
	.loc 5 571 0
	subf 15,11,15
.LBE3277:
.LBE3280:
.LBE3283:
.LBE3290:
.LBE3297:
.LBE3304:
.LBE3311:
	.loc 4 358 0
	or 6,6,10
	or 7,7,8
	lbz 10,39(23)
	slwi 17,17,8
	lbz 8,35(23)
	slwi 0,0,8
.LBB3312:
.LBB3305:
.LBB3298:
.LBB3291:
.LBB3284:
	.loc 4 180 0
	mullw. 15,15,9
.LBE3284:
.LBE3291:
.LBE3298:
.LBE3305:
.LBE3312:
	.loc 4 358 0
	or 17,17,6
	or 0,0,7
	lbz 12,44(23)
	lbz 20,45(23)
	or 0,8,0
	lbz 6,40(23)
	or 17,10,17
	lbz 5,41(23)
	srwi 10,17,16
	lbz 4,46(23)
	rlwinm 16,17,24,24,31
	lbz 7,42(23)
	rlwinm 18,0,24,24,31
	rlwinm 19,0,8,16,23
	slwi 20,20,16
	slwi 6,6,24
	slwi 5,5,16
	rlwinm 17,17,8,16,23
	slwi 12,12,24
	srwi 8,10,8
	or 17,16,17
	or 19,18,19
	rlwinm 9,0,24,16,23
	or 12,20,12
	lbz 16,47(23)
	or 20,5,6
	rlwinm 10,10,8,16,23
	srwi 0,0,24
	slwi 4,4,8
	slwi 7,7,8
	lbz 23,43(23)
.LVL482:
	or 10,8,10
	slwi 17,17,16
	slwi 19,19,16
	or 0,9,0
	or 4,4,12
	or 18,7,20
	or 5,10,17
	or 6,19,0
	or 4,16,4
	or 18,23,18
.LVL483:
.LBB3313:
.LBB3306:
.LBB3299:
.LBB3292:
.LBB3285:
	.loc 4 180 0
	beq- 0,.L395
.LVL484:
	.loc 4 182 0
	lbz 0,4(11)
	lbz 9,5(11)
	lbz 8,6(11)
	slwi 0,0,24
	slwi 9,9,16
	lbz 10,9(11)
	or 9,9,0
	slwi 8,8,8
	lbz 0,7(11)
	or 8,8,9
	lbz 9,8(11)
	slwi 10,10,16
	or 8,0,8
	lbz 0,10(11)
	cmpw 7,5,8
	slwi 9,9,24
	or 10,10,9
	slwi 0,0,8
	lbz 9,11(11)
	or 0,0,10
	or 0,9,0
	beq- 7,.L413
.L405:
.LBE3285:
.LBE3292:
.LBE3299:
.LBE3306:
.LBE3313:
.LBE3267:
	.loc 4 313 0
	li 10,27
	mtctr 15
	b .L410
.LVL485:
.L399:
.LBB3316:
.LBB3314:
.LBB3307:
.LBB3300:
.LBB3293:
.LBB3286:
	.loc 4 182 0
	lbz 0,4(9)
	addi 10,10,27
	lbz 8,5(9)
	lbz 7,6(9)
	slwi 0,0,24
	slwi 8,8,16
	lbz 19,8(9)
	or 8,8,0
	slwi 7,7,8
	lbz 0,7(9)
	or 7,7,8
	lbz 8,9(9)
	slwi 19,19,24
	or 7,0,7
	lbz 0,10(9)
	cmpw 7,5,7
	slwi 8,8,16
	or 8,8,19
	slwi 0,0,8
	lbz 9,11(9)
	or 0,0,8
	or 0,9,0
	beq- 7,.L414
.L410:
	add 9,11,10
	.loc 4 180 0
	bdnz .L399
.L395:
.LBE3286:
.LBE3293:
.LBE3300:
.LBE3307:
.LBE3314:
	.loc 4 358 0
	srwi 9,4,16
	rlwinm 11,18,8,16,23
	rlwinm 7,4,24,24,31
	rlwinm 8,18,24,24,31
	rlwinm 4,4,8,16,23
	srwi 0,9,8
	or 7,7,4
	rlwinm 9,9,8,16,23
	or 8,8,11
	rlwinm 23,18,24,16,23
	srwi 18,18,24
	or 0,0,9
	slwi 7,7,16
	cntlzw 9,3
	slwi 8,8,16
	or 23,23,18
	lis 4,.LC3@ha
	rlwinm 11,14,0,0xff
	or 7,0,7
	srwi 9,9,5
	li 0,0
	mr 3,25
.LVL486:
	la 4,.LC3@l(4)
	or 8,8,23
	li 10,238
	stw 0,12(1)
	stw 11,8(1)
	bl _ZN15PartitionHandle12AddPartitionEPKcyybhhj.part.56
.LVL487:
	lwz 21,28(25)
.LBE3316:
	.loc 4 348 0
	addi 29,29,1
.LVL488:
.LBB3317:
	.loc 4 358 0
	lwz 22,84(24)
.LBE3317:
	.loc 4 348 0
	add 9,29,27
	divwu 0,21,22
	cmplw 7,0,29
	bgt+ 7,.L404
.LVL489:
.L393:
.LBE3266:
.LBE3265:
	.loc 4 343 0
	lwz 0,80(24)
	addi 27,9,1
.LBB3320:
	.loc 4 361 0
	addic 31,31,1
	addze 30,30
.LVL490:
.LBE3320:
	.loc 4 343 0
	cmplw 7,0,27
	bgt+ 7,.L407
.LVL491:
.L392:
.LBE3264:
	.loc 4 364 0
	mr 3,26
	.loc 4 367 0
	li 29,0
	.loc 4 364 0
	bl free
	.loc 4 365 0
	mr 3,24
	bl free
.LVL492:
.L387:
.LBE3324:
	.loc 4 368 0
	lwz 0,92(1)
	mr 3,29
	lwz 14,16(1)
.LVL493:
	mtlr 0
	lwz 15,20(1)
	lwz 16,24(1)
	lwz 17,28(1)
	lwz 18,32(1)
	lwz 19,36(1)
	lwz 20,40(1)
	lwz 21,44(1)
	lwz 22,48(1)
	lwz 23,52(1)
	lwz 24,56(1)
.LVL494:
	lwz 25,60(1)
.LVL495:
	lwz 26,64(1)
	lwz 27,68(1)
	lwz 28,72(1)
	lwz 29,76(1)
	lwz 30,80(1)
	lwz 31,84(1)
	addi 1,1,88
	.cfi_remember_state
.LCFI40:
	.cfi_def_cfa_offset 0
	.cfi_restore 31
	.cfi_restore 30
	.cfi_restore 29
	.cfi_restore 28
	.cfi_restore 27
	.cfi_restore 26
	.cfi_restore 25
	.cfi_restore 24
	.cfi_restore 23
	.cfi_restore 22
	.cfi_restore 21
	.cfi_restore 20
	.cfi_restore 19
	.cfi_restore 18
	.cfi_restore 17
	.cfi_restore 16
	.cfi_restore 15
	.cfi_restore 14
	blr
.LVL496:
.L414:
.LCFI41:
	.cfi_restore_state
.LBB3325:
.LBB3322:
.LBB3321:
.LBB3319:
.LBB3318:
.LBB3315:
.LBB3308:
.LBB3301:
.LBB3294:
.LBB3287:
	.loc 4 182 0
	cmpw 7,6,0
	bne+ 7,.L410
	b .L394
.LVL497:
.L413:
	cmpw 7,6,0
	bne+ 7,.L405
	b .L394
.LVL498:
.L412:
.LBE3287:
.LBE3294:
.LBE3301:
.LBE3308:
.LBE3315:
.LBE3318:
.LBE3319:
.LBE3321:
.LBE3322:
	.loc 4 326 0
	mr 3,24
.L411:
	bl free
	.loc 4 327 0
	b .L387
.LVL499:
.L390:
	.loc 4 337 0
	mr 3,24
.LVL500:
	bl free
	.loc 4 338 0
	b .L387
.LBE3325:
	.cfi_endproc
.LFE871:
	.size	_ZN15PartitionHandle8CheckGPTEi, .-_ZN15PartitionHandle8CheckGPTEi
	.align 2
	.globl _ZN15PartitionHandle8CheckEBREij
	.type	_ZN15PartitionHandle8CheckEBREij, @function
_ZN15PartitionHandle8CheckEBREij:
.LFB870:
	.loc 4 276 0
	.cfi_startproc
.LVL501:
	stwu 1,-48(1)
.LCFI42:
	.cfi_def_cfa_offset 48
	mflr 0
	stw 29,36(1)
	mr 29,3
	.cfi_offset 29, -12
	.cfi_register 65, 0
.LBB3341:
	.loc 4 277 0
	li 3,4096
.LVL502:
.LBE3341:
	.loc 4 276 0
	stw 27,28(1)
	stw 28,32(1)
	mr 27,4
	.cfi_offset 28, -16
	.cfi_offset 27, -20
	stw 31,44(1)
	mr 28,5
	stw 0,52(1)
	stw 25,20(1)
	stw 26,24(1)
	stw 30,40(1)
.LBB3390:
	.loc 4 277 0
	.cfi_offset 30, -8
	.cfi_offset 26, -24
	.cfi_offset 25, -28
	.cfi_offset 65, 4
	.cfi_offset 31, -4
	bl malloc
.LVL503:
	.loc 4 278 0
	mr. 31,3
	beq- 0,.L415
	li 30,0
	b .L446
.LVL504:
.L418:
.LBB3342:
	.loc 4 302 0
	lwz 0,470(31)
	rlwinm 11,0,24,24,31
	rlwinm 9,0,8,16,23
	rlwinm 30,0,24,16,23
	or 9,11,9
	srwi 0,0,24
	slwi 9,9,16
	or 0,30,0
.LVL505:
.LBE3342:
	.loc 4 283 0
	or. 30,0,9
	beq- 0,.L417
.LVL506:
.L446:
.LBB3387:
	.loc 4 286 0
	lwz 9,0(29)
	add 30,30,28
.LVL507:
	mr 3,30
	li 4,1
	lwz 0,16(9)
	mr 5,31
	mtctr 0
	bctrl
	cmpwi 7,3,0
	beq- 7,.L417
	.loc 4 289 0
	lhz 0,510(31)
	cmpwi 7,0,21930
	bne- 7,.L417
.LVL508:
	.loc 4 294 0
	lwz 0,458(31)
	rlwinm 11,0,24,24,31
	rlwinm 9,0,8,16,23
	rlwinm 8,0,24,16,23
	or 9,11,9
	srwi 0,0,24
	slwi 9,9,16
	or 8,8,0
	or. 8,8,9
	beq+ 0,.L418
.LVL509:
.LBB3343:
.LBB3344:
	.loc 4 45 0
	lbz 0,450(31)
	cmpwi 7,0,14
	beq- 7,.L428
	cmplwi 7,0,14
	ble- 7,.L453
	cmpwi 7,0,142
	beq- 7,.L432
	cmplwi 7,0,142
	bgt- 7,.L439
	cmpwi 7,0,130
	beq- 7,.L430
	cmpwi 7,0,131
	beq- 7,.L431
	cmpwi 7,0,15
	beq- 7,.L454
.L419:
.LBB3345:
.LBB3346:
	.loc 4 64 0
	lis 3,.LC7@ha
	la 3,.LC7@l(3)
	bl gettext
.LVL510:
	lwz 0,458(31)
	lbz 10,450(31)
	mr 4,3
	rlwinm 11,0,24,24,31
	rlwinm 9,0,8,16,23
	or 9,11,9
	srwi 11,0,24
	rlwinm 0,0,24,16,23
	or 8,0,11
	slwi 0,9,16
	or 8,8,0
.L420:
.LBE3346:
.LBE3345:
.LBE3344:
.LBE3343:
.LBB3350:
.LBB3351:
.LBB3352:
.LBB3353:
	.loc 4 418 0
	lwz 5,4(29)
.LBB3354:
.LBB3355:
.LBB3356:
	.loc 5 571 0
	lis 9,0x684b
	lwz 11,8(29)
	ori 9,9,55827
.LBE3356:
.LBE3355:
.LBE3354:
.LBE3353:
.LBE3352:
.LBE3351:
.LBE3350:
	.loc 4 298 0
	lwz 0,454(31)
	li 25,0
.LBB3379:
.LBB3374:
.LBB3369:
.LBB3364:
.LBB3359:
.LBB3358:
.LBB3357:
	.loc 5 571 0
	subf 11,5,11
.LBE3357:
.LBE3358:
	.loc 4 180 0
	mullw. 11,11,9
.LBE3359:
.LBE3364:
.LBE3369:
.LBE3374:
.LBE3379:
	.loc 4 298 0
	rlwinm 3,0,24,24,31
	rlwinm 7,0,8,16,23
	lbz 9,446(31)
.LVL511:
	rlwinm 6,0,24,16,23
	or 7,3,7
	srwi 0,0,24
	slwi 7,7,16
	or 6,6,0
	or 6,6,7
	add 6,30,6
.LVL512:
.LBB3380:
.LBB3375:
.LBB3370:
.LBB3365:
.LBB3360:
	.loc 4 180 0
	beq- 0,.L441
.LVL513:
	.loc 4 182 0
	lbz 0,4(5)
	lbz 7,5(5)
	lbz 26,6(5)
	slwi 0,0,24
	slwi 7,7,16
	lbz 3,9(5)
	or 7,7,0
	slwi 26,26,8
	lbz 0,7(5)
	or 26,26,7
	lbz 7,8(5)
	slwi 3,3,16
	or 26,0,26
	lbz 0,10(5)
	cmpw 7,25,26
	slwi 7,7,24
	or 3,3,7
	slwi 0,0,8
	lbz 7,11(5)
	or 0,0,3
	or 0,7,0
	beq- 7,.L455
.L448:
.LBE3360:
.LBE3365:
.LBE3370:
.LBE3375:
.LBE3380:
.LBB3381:
.LBB3347:
	.loc 4 275 0
	li 7,27
	mtctr 11
	b .L452
.LVL514:
.L445:
.LBE3347:
.LBE3381:
.LBB3382:
.LBB3376:
.LBB3371:
.LBB3366:
.LBB3361:
	.loc 4 182 0
	lbz 0,4(11)
	addi 7,7,27
	lbz 3,5(11)
	lbz 26,6(11)
	slwi 0,0,24
	slwi 3,3,16
	lbz 12,8(11)
	or 3,3,0
	slwi 26,26,8
	lbz 0,7(11)
	or 26,26,3
	lbz 3,9(11)
	slwi 12,12,24
	or 26,0,26
	lbz 0,10(11)
	cmpw 7,25,26
	slwi 3,3,16
	or 3,3,12
	slwi 0,0,8
	lbz 11,11(11)
	or 0,0,3
	or 0,11,0
	beq- 7,.L456
.L452:
	add 11,5,7
	.loc 4 180 0
	bdnz .L445
.L441:
.LBE3361:
.LBE3366:
.LBE3371:
.LBE3376:
.LBE3382:
.LBE3387:
	.loc 4 279 0
	xori 9,9,128
.LVL515:
	rlwinm 0,27,0,0xff
	cntlzw 9,9
.LVL516:
	mr 3,29
	srwi 9,9,5
	li 5,0
	li 7,0
	stw 0,8(1)
	stw 30,12(1)
	bl _ZN15PartitionHandle12AddPartitionEPKcyybhhj.part.56
.LVL517:
.LBB3388:
	.loc 4 302 0
	lwz 0,470(31)
	rlwinm 11,0,24,24,31
	rlwinm 9,0,8,16,23
	rlwinm 30,0,24,16,23
.LVL518:
	or 9,11,9
	srwi 0,0,24
	slwi 9,9,16
	or 0,30,0
.LVL519:
.LBE3388:
	.loc 4 283 0
	or. 30,0,9
	bne+ 0,.L446
.LVL520:
.L417:
	.loc 4 306 0
	mr 3,31
	bl free
.L415:
.LBE3390:
	.loc 4 307 0
	lwz 0,52(1)
	lwz 25,20(1)
	mtlr 0
	lwz 26,24(1)
	lwz 27,28(1)
.LVL521:
	lwz 28,32(1)
.LVL522:
	lwz 29,36(1)
.LVL523:
	lwz 30,40(1)
	lwz 31,44(1)
.LVL524:
	addi 1,1,48
	.cfi_remember_state
.LCFI43:
	.cfi_def_cfa_offset 0
	.cfi_restore 31
	.cfi_restore 30
	.cfi_restore 29
	.cfi_restore 28
	.cfi_restore 27
	.cfi_restore 26
	.cfi_restore 25
	blr
.LVL525:
.L453:
.LCFI44:
	.cfi_restore_state
.LBB3391:
.LBB3389:
.LBB3383:
.LBB3348:
	.loc 4 45 0
	cmpwi 7,0,5
	beq- 7,.L423
	cmplwi 7,0,5
	ble- 7,.L457
	cmpwi 7,0,7
	beq- 7,.L425
	cmplwi 7,0,7
	blt- 7,.L424
	cmpwi 7,0,11
	beq- 7,.L426
	cmpwi 7,0,12
	bne+ 7,.L419
	.loc 4 54 0
	lis 4,.LC6@ha
	li 10,12
	la 4,.LC6@l(4)
	b .L420
.L457:
	.loc 4 45 0
	cmpwi 7,0,1
	beq- 7,.L421
	cmplwi 7,0,1
	blt- 7,.L447
	cmpwi 7,0,4
	bne+ 7,.L419
	.loc 4 49 0
	lis 4,.LC11@ha
	li 10,4
	la 4,.LC11@l(4)
	b .L420
.L439:
	.loc 4 45 0
	cmpwi 7,0,171
	beq- 7,.L434
	cmplwi 7,0,171
	bgt- 7,.L440
	cmpwi 7,0,168
	bne+ 7,.L419
	.loc 4 60 0
	lis 4,.LC15@ha
	li 10,168
	la 4,.LC15@l(4)
	b .L420
.L426:
	.loc 4 53 0
	lis 4,.LC6@ha
	li 10,11
	la 4,.LC6@l(4)
	b .L420
.LVL526:
.L456:
.LBE3348:
.LBE3383:
.LBB3384:
.LBB3377:
.LBB3372:
.LBB3367:
.LBB3362:
	.loc 4 182 0
	cmpw 7,6,0
	bne+ 7,.L452
	b .L418
.LVL527:
.L454:
.LBE3362:
.LBE3367:
.LBE3372:
.LBE3377:
.LBE3384:
.LBB3385:
.LBB3349:
	.loc 4 56 0
	lis 4,.LC12@ha
	li 10,15
	la 4,.LC12@l(4)
	b .L420
.L432:
	.loc 4 59 0
	lis 4,.LC14@ha
	li 10,142
	la 4,.LC14@l(4)
	b .L420
.L424:
	.loc 4 51 0
	lis 4,.LC11@ha
	li 10,6
	la 4,.LC11@l(4)
	b .L420
.L425:
	.loc 4 52 0
	lis 4,.LC4@ha
	li 10,7
	la 4,.LC4@l(4)
	b .L420
.L447:
	.loc 4 47 0
	lis 4,.LC9@ha
	.loc 4 45 0
	li 10,0
	.loc 4 47 0
	la 4,.LC9@l(4)
	b .L420
.L421:
	.loc 4 48 0
	lis 4,.LC10@ha
	.loc 4 45 0
	li 10,1
	.loc 4 48 0
	la 4,.LC10@l(4)
	b .L420
.L434:
	.loc 4 61 0
	lis 4,.LC16@ha
	li 10,171
	la 4,.LC16@l(4)
	b .L420
.L431:
	.loc 4 58 0
	lis 4,.LC5@ha
	li 10,131
	la 4,.LC5@l(4)
	b .L420
.L430:
	.loc 4 57 0
	lis 4,.LC13@ha
	li 10,130
	la 4,.LC13@l(4)
	b .L420
.L423:
	.loc 4 50 0
	lis 4,.LC12@ha
	li 10,5
	la 4,.LC12@l(4)
	b .L420
.L428:
	.loc 4 55 0
	lis 4,.LC11@ha
	li 10,14
	la 4,.LC11@l(4)
	b .L420
.L440:
	.loc 4 45 0
	cmpwi 7,0,175
	beq- 7,.L435
	cmpwi 7,0,232
	bne+ 7,.L419
	.loc 4 63 0
	lis 4,.LC18@ha
	li 10,232
	la 4,.LC18@l(4)
	b .L420
.L435:
	.loc 4 62 0
	lis 4,.LC17@ha
	li 10,175
	la 4,.LC17@l(4)
	b .L420
.LVL528:
.L455:
.LBE3349:
.LBE3385:
.LBB3386:
.LBB3378:
.LBB3373:
.LBB3368:
.LBB3363:
	.loc 4 182 0
	cmpw 7,6,0
	bne+ 7,.L448
	b .L418
.LBE3363:
.LBE3368:
.LBE3373:
.LBE3378:
.LBE3386:
.LBE3389:
.LBE3391:
	.cfi_endproc
.LFE870:
	.size	_ZN15PartitionHandle8CheckEBREij, .-_ZN15PartitionHandle8CheckEBREij
	.align 2
	.globl _ZN15PartitionHandle14FindPartitionsEv
	.type	_ZN15PartitionHandle14FindPartitionsEv, @function
_ZN15PartitionHandle14FindPartitionsEv:
.LFB869:
	.loc 4 228 0
	.cfi_startproc
.LVL529:
	stwu 1,-40(1)
.LCFI45:
	.cfi_def_cfa_offset 40
	mflr 0
	stw 29,28(1)
	mr 29,3
	.cfi_offset 29, -12
	.cfi_register 65, 0
.LBB3410:
	.loc 4 229 0
	li 3,4096
.LVL530:
.LBE3410:
	.loc 4 228 0
	stw 28,24(1)
	stw 30,32(1)
.LBB3470:
	.loc 4 231 0
	li 28,-1
	.cfi_offset 30, -8
	.cfi_offset 28, -16
.LBE3470:
	.loc 4 228 0
	stw 0,44(1)
	stw 26,16(1)
	stw 27,20(1)
	stw 31,36(1)
.LBB3471:
	.loc 4 229 0
	.cfi_offset 31, -4
	.cfi_offset 27, -20
	.cfi_offset 26, -24
	.cfi_offset 65, 4
	bl malloc
.LVL531:
	.loc 4 230 0
	mr. 30,3
	beq- 0,.L459
	.loc 4 234 0
	lwz 9,0(29)
	li 3,0
.LVL532:
	li 4,1
	mr 5,30
	lwz 0,16(9)
	mtctr 0
	bctrl
	cmpwi 7,3,0
	beq- 7,.L503
	.loc 4 240 0
	lhz 0,510(30)
	li 31,0
	cmpwi 7,0,21930
	bne- 7,.L503
.L499:
.LBB3411:
.LBB3412:
	.loc 4 247 0
	addi 27,31,27
	slwi 27,27,4
	add 27,30,27
	addi 28,27,14
.LVL533:
.LBB3413:
	.loc 4 249 0
	lbz 0,4(28)
	cmpwi 7,0,238
	beq- 7,.L504
.L462:
.LBE3413:
	.loc 4 256 0
	cmpwi 7,0,5
	beq- 7,.L464
	.loc 4 256 0 is_stmt 0 discriminator 1
	cmpwi 6,0,15
	beq- 6,.L464
	.loc 4 262 0 is_stmt 1
	lwz 9,12(28)
	rlwinm 10,9,24,24,31
	rlwinm 11,9,8,16,23
	rlwinm 8,9,24,16,23
	or 11,10,11
	srwi 9,9,24
	slwi 11,11,16
	or 8,8,9
	or. 8,8,11
	bne- 0,.L505
.LVL534:
.L466:
.LBE3412:
	.loc 4 245 0
	cmpwi 7,31,3
	addi 31,31,1
.LVL535:
	bne+ 7,.L499
.LVL536:
.L463:
.LBE3411:
	.loc 4 270 0
	mr 3,30
	.loc 4 272 0
	li 28,0
	.loc 4 270 0
	bl free
.L459:
.LBE3471:
	.loc 4 273 0
	lwz 0,44(1)
	mr 3,28
	lwz 26,16(1)
	mtlr 0
	lwz 27,20(1)
	lwz 28,24(1)
	lwz 29,28(1)
.LVL537:
	lwz 30,32(1)
.LVL538:
	lwz 31,36(1)
	addi 1,1,40
	.cfi_remember_state
.LCFI46:
	.cfi_def_cfa_offset 0
	.cfi_restore 31
	.cfi_restore 30
	.cfi_restore 29
	.cfi_restore 28
	.cfi_restore 27
	.cfi_restore 26
	blr
.LVL539:
.L464:
.LCFI47:
	.cfi_restore_state
.LBB3472:
.LBB3467:
.LBB3464:
	.loc 4 258 0
	lwz 9,8(28)
	mr 3,29
	mr 4,31
	rlwinm 11,9,24,24,31
	rlwinm 0,9,8,16,23
	rlwinm 5,9,24,16,23
	or 0,11,0
	srwi 9,9,24
	slwi 0,0,16
	or 5,5,9
	or 5,5,0
	bl _ZN15PartitionHandle8CheckEBREij
	.loc 4 259 0
	b .L466
.L505:
.LVL540:
.LBB3415:
.LBB3416:
	.loc 4 45 0
	cmpwi 1,0,14
	beq- 1,.L476
	cmplwi 1,0,14
	bgt- 1,.L485
	beq- 7,.L471
	cmplwi 7,0,5
	bgt- 7,.L486
	cmpwi 7,0,1
	beq- 7,.L469
	cmplwi 7,0,1
	blt- 7,.L496
	cmpwi 7,0,4
	bne+ 7,.L467
	.loc 4 49 0
	lis 4,.LC11@ha
	li 10,4
	la 4,.LC11@l(4)
	b .L468
.LVL541:
.L504:
.LBE3416:
.LBE3415:
.LBB3424:
.LBB3414:
	.loc 4 251 0
	mr 3,29
	mr 4,31
	bl _ZN15PartitionHandle8CheckGPTEi
.LVL542:
	.loc 4 252 0
	cmpwi 7,3,0
	beq- 7,.L463
	lbz 0,4(28)
	b .L462
.LVL543:
.L485:
.LBE3414:
.LBE3424:
.LBB3425:
.LBB3419:
	.loc 4 45 0
	cmpwi 7,0,142
	beq- 7,.L480
	cmplwi 7,0,142
	bgt- 7,.L487
	cmpwi 7,0,130
	beq- 7,.L478
	cmpwi 7,0,131
	beq- 7,.L479
	beq- 6,.L506
.L467:
.LBB3417:
.LBB3418:
	.loc 4 64 0
	lis 3,.LC7@ha
	la 3,.LC7@l(3)
	bl gettext
.LVL544:
	lwz 0,12(28)
	mr 4,3
	lbz 10,4(28)
	rlwinm 11,0,24,24,31
	rlwinm 9,0,8,16,23
	or 9,11,9
	srwi 11,0,24
	rlwinm 0,0,24,16,23
	or 8,0,11
	slwi 0,9,16
	or 8,8,0
	b .L468
.LVL545:
.L486:
.LBE3418:
.LBE3417:
	.loc 4 45 0
	cmpwi 7,0,7
	beq- 7,.L473
	cmplwi 7,0,7
	blt- 7,.L472
	cmpwi 7,0,11
	beq- 7,.L474
	cmpwi 7,0,12
	bne+ 7,.L467
	.loc 4 54 0
	lis 4,.LC6@ha
	li 10,12
	la 4,.LC6@l(4)
	b .L468
.L487:
	.loc 4 45 0
	cmpwi 7,0,171
	beq- 7,.L482
	cmplwi 7,0,171
	ble- 7,.L507
	cmpwi 7,0,175
	beq- 7,.L483
	cmpwi 7,0,232
	bne+ 7,.L467
	.loc 4 63 0
	lis 4,.LC18@ha
	li 10,232
	la 4,.LC18@l(4)
	b .L468
.LVL546:
.L503:
.LBE3419:
.LBE3425:
.LBE3464:
.LBE3467:
	.loc 4 241 0
	mr 3,30
	bl free
	.loc 4 242 0
	b .L459
.LVL547:
.L476:
.LBB3468:
.LBB3465:
.LBB3426:
.LBB3420:
	.loc 4 55 0
	lis 4,.LC11@ha
	li 10,14
	la 4,.LC11@l(4)
.LVL548:
.L468:
.LBE3420:
.LBE3426:
.LBB3427:
.LBB3428:
.LBB3429:
.LBB3430:
	.loc 4 418 0
	lwz 5,4(29)
.LBB3431:
.LBB3432:
.LBB3433:
	.loc 5 571 0
	lis 0,0x684b
	lwz 9,8(29)
	ori 0,0,55827
.LBE3433:
.LBE3432:
.LBE3431:
.LBE3430:
.LBE3429:
.LBE3428:
.LBE3427:
	.loc 4 266 0
	li 12,0
.LBB3456:
.LBB3451:
.LBB3446:
.LBB3441:
.LBB3436:
.LBB3435:
.LBB3434:
	.loc 5 571 0
	subf 9,5,9
.LBE3434:
.LBE3435:
	.loc 4 180 0
	mullw. 26,9,0
.LBE3436:
.LBE3441:
.LBE3446:
.LBE3451:
.LBE3456:
	.loc 4 266 0
	lwz 0,8(28)
	lbz 9,14(27)
.LVL549:
	rlwinm 3,0,24,24,31
	rlwinm 11,0,8,16,23
	rlwinm 6,0,24,16,23
	srwi 7,0,24
	or 11,3,11
	or 6,6,7
	slwi 11,11,16
	or 6,6,11
.LVL550:
.LBB3457:
.LBB3452:
.LBB3447:
.LBB3442:
.LBB3437:
	.loc 4 180 0
	beq- 0,.L489
.LVL551:
	.loc 4 182 0
	lbz 0,4(5)
	lbz 11,5(5)
	lbz 3,6(5)
	slwi 0,0,24
	slwi 11,11,16
	lbz 7,9(5)
	or 11,11,0
	slwi 3,3,8
	lbz 0,7(5)
	or 3,3,11
	lbz 11,8(5)
	slwi 7,7,16
	or 3,0,3
	lbz 0,10(5)
	cmpw 7,12,3
	slwi 11,11,24
	or 7,7,11
	slwi 0,0,8
	lbz 11,11(5)
	or 0,0,7
	or 0,11,0
	beq- 7,.L508
.L497:
.LBE3437:
.LBE3442:
.LBE3447:
.LBE3452:
.LBE3457:
.LBB3458:
.LBB3421:
	.loc 4 227 0
	li 7,27
	mtctr 26
	b .L502
.LVL552:
.L493:
.LBE3421:
.LBE3458:
.LBB3459:
.LBB3453:
.LBB3448:
.LBB3443:
.LBB3438:
	.loc 4 182 0
	lbz 0,4(11)
	addi 7,7,27
	lbz 3,5(11)
	lbz 27,6(11)
	slwi 0,0,24
	slwi 3,3,16
	lbz 28,8(11)
	or 3,3,0
	slwi 27,27,8
	lbz 0,7(11)
	or 27,27,3
	lbz 3,9(11)
	slwi 28,28,24
	or 27,0,27
	lbz 0,10(11)
	cmpw 7,12,27
	slwi 3,3,16
	or 3,3,28
	slwi 0,0,8
	lbz 11,11(11)
	or 0,0,3
	or 0,11,0
	beq- 7,.L509
.L502:
	add 11,5,7
	.loc 4 180 0
	bdnz .L493
.L489:
.LBE3438:
.LBE3443:
.LBE3448:
.LBE3453:
.LBE3459:
.LBE3465:
.LBE3468:
	.loc 4 272 0
	xori 9,9,128
.LVL553:
	rlwinm 0,31,0,0xff
	cntlzw 9,9
.LVL554:
	stw 0,8(1)
	mr 3,29
	li 0,0
	li 5,0
	li 7,0
	srwi 9,9,5
	stw 0,12(1)
	bl _ZN15PartitionHandle12AddPartitionEPKcyybhhj.part.56
.LVL555:
	b .L466
.LVL556:
.L480:
.LBB3469:
.LBB3466:
.LBB3460:
.LBB3422:
	.loc 4 59 0
	lis 4,.LC14@ha
	li 10,142
	la 4,.LC14@l(4)
	b .L468
.L471:
	.loc 4 50 0
	lis 4,.LC12@ha
	li 10,5
	la 4,.LC12@l(4)
	b .L468
.L496:
	.loc 4 47 0
	lis 4,.LC9@ha
	.loc 4 45 0
	li 10,0
	.loc 4 47 0
	la 4,.LC9@l(4)
	b .L468
.L472:
	.loc 4 51 0
	lis 4,.LC11@ha
	li 10,6
	la 4,.LC11@l(4)
	b .L468
.L507:
	.loc 4 45 0
	cmpwi 7,0,168
	bne+ 7,.L467
	.loc 4 60 0
	lis 4,.LC15@ha
	li 10,168
	la 4,.LC15@l(4)
	b .L468
.L479:
	.loc 4 58 0
	lis 4,.LC5@ha
	li 10,131
	la 4,.LC5@l(4)
	b .L468
.LVL557:
.L509:
.LBE3422:
.LBE3460:
.LBB3461:
.LBB3454:
.LBB3449:
.LBB3444:
.LBB3439:
	.loc 4 182 0
	cmpw 7,6,0
	bne+ 7,.L502
	b .L466
.LVL558:
.L474:
.LBE3439:
.LBE3444:
.LBE3449:
.LBE3454:
.LBE3461:
.LBB3462:
.LBB3423:
	.loc 4 53 0
	lis 4,.LC6@ha
	li 10,11
	la 4,.LC6@l(4)
	b .L468
.L469:
	.loc 4 48 0
	lis 4,.LC10@ha
	.loc 4 45 0
	li 10,1
	.loc 4 48 0
	la 4,.LC10@l(4)
	b .L468
.L506:
	.loc 4 56 0
	lis 4,.LC12@ha
	li 10,15
	la 4,.LC12@l(4)
	b .L468
.L478:
	.loc 4 57 0
	lis 4,.LC13@ha
	li 10,130
	la 4,.LC13@l(4)
	b .L468
.L482:
	.loc 4 61 0
	lis 4,.LC16@ha
	li 10,171
	la 4,.LC16@l(4)
	b .L468
.L473:
	.loc 4 52 0
	lis 4,.LC4@ha
	li 10,7
	la 4,.LC4@l(4)
	b .L468
.L483:
	.loc 4 62 0
	lis 4,.LC17@ha
	li 10,175
	la 4,.LC17@l(4)
	b .L468
.LVL559:
.L508:
.LBE3423:
.LBE3462:
.LBB3463:
.LBB3455:
.LBB3450:
.LBB3445:
.LBB3440:
	.loc 4 182 0
	cmpw 7,6,0
	bne+ 7,.L497
	b .L466
.LBE3440:
.LBE3445:
.LBE3450:
.LBE3455:
.LBE3463:
.LBE3466:
.LBE3469:
.LBE3472:
	.cfi_endproc
.LFE869:
	.size	_ZN15PartitionHandle14FindPartitionsEv, .-_ZN15PartitionHandle14FindPartitionsEv
	.align 2
	.globl _ZN15PartitionHandleC2EPK21DISC_INTERFACE_STRUCT
	.type	_ZN15PartitionHandleC2EPK21DISC_INTERFACE_STRUCT, @function
_ZN15PartitionHandleC2EPK21DISC_INTERFACE_STRUCT:
.LFB859:
	.loc 4 68 0
	.cfi_startproc
	.cfi_personality 0,__gxx_personality_v0
	.cfi_lsda 0,.LLSDA859
.LVL560:
	mflr 0
.LBB3473:
	.loc 4 73 0
	cmpwi 7,4,0
.LBE3473:
	.loc 4 68 0
	stwu 1,-16(1)
.LCFI48:
	.cfi_def_cfa_offset 16
	.cfi_register 65, 0
	stw 0,20(1)
.LBB3494:
.LBB3474:
.LBB3475:
.LBB3476:
.LBB3477:
	.loc 5 83 0
	li 0,0
	.cfi_offset 65, 4
.LBE3477:
.LBE3476:
.LBE3475:
.LBE3474:
.LBE3494:
	.loc 4 68 0
	stw 31,12(1)
	mr 31,3
	.cfi_offset 31, -4
.LVL561:
	stw 30,8(1)
.LBB3495:
.LBB3481:
.LBB3480:
.LBB3479:
.LBB3478:
	.loc 5 83 0
	stw 0,4(3)
	stw 0,8(3)
	stw 0,12(3)
.LVL562:
.LBE3478:
.LBE3479:
.LBE3480:
.LBE3481:
.LBB3482:
.LBB3483:
.LBB3484:
.LBB3485:
	stw 0,16(3)
	stw 0,20(3)
	stw 0,24(3)
.LBE3485:
.LBE3484:
.LBE3483:
.LBE3482:
	.loc 4 70 0
	stw 4,0(3)
	.loc 4 73 0
	beq- 7,.L510
	.cfi_offset 30, -8
	.loc 4 77 0
	lwz 0,8(4)
	mtctr 0
.LEHB22:
	bctrl
.LVL563:
	cmpwi 7,3,0
	bne- 7,.L519
.L510:
.LBE3495:
	.loc 4 86 0
	lwz 0,20(1)
	lwz 30,8(1)
	mtlr 0
	lwz 31,12(1)
.LVL564:
	addi 1,1,16
	.cfi_remember_state
.LCFI49:
	.cfi_def_cfa_offset 0
	.cfi_restore 31
	.cfi_restore 30
	blr
.LVL565:
.L519:
.LCFI50:
	.cfi_restore_state
.LBB3496:
	.loc 4 80 0
	lwz 9,0(31)
	lwz 0,12(9)
	mtctr 0
	bctrl
	cmpwi 7,3,0
	beq+ 7,.L510
	.loc 4 83 0
	lwz 3,0(31)
	bl _ZN15PartitionHandle15CheckSectorSizeEPK21DISC_INTERFACE_STRUCT
	stw 3,28(31)
	.loc 4 85 0
	mr 3,31
	bl _ZN15PartitionHandle14FindPartitionsEv
.LEHE22:
.LBE3496:
	.loc 4 86 0
	lwz 0,20(1)
	lwz 30,8(1)
	mtlr 0
	lwz 31,12(1)
.LVL566:
	addi 1,1,16
	.cfi_remember_state
	.cfi_restore 30
	.cfi_restore 31
.LCFI51:
	.cfi_def_cfa_offset 0
	blr
.LVL567:
.L518:
.LCFI52:
	.cfi_restore_state
	mr 30,3
.LBB3497:
	.loc 4 68 0
	addi 3,31,16
	bl _ZNSt6vectorISsSaISsEED1Ev
.LVL568:
.LBB3486:
	.loc 4 418 0
	lwz 3,4(31)
.LVL569:
.LBB3487:
.LBB3488:
.LBB3489:
.LBB3490:
.LBB3491:
	.loc 5 155 0
	cmpwi 7,3,0
	beq- 7,.L517
.LVL570:
.LBB3492:
.LBB3493:
	.loc 10 98 0
	bl _ZdlPv
.LVL571:
.L517:
	mr 3,30
.LEHB23:
	bl _Unwind_Resume
.LEHE23:
.LBE3493:
.LBE3492:
.LBE3491:
.LBE3490:
.LBE3489:
.LBE3488:
.LBE3487:
.LBE3486:
.LBE3497:
	.cfi_endproc
.LFE859:
	.section	.gcc_except_table
.LLSDA859:
	.byte	0xff
	.byte	0xff
	.byte	0x1
	.uleb128 .LLSDACSE859-.LLSDACSB859
.LLSDACSB859:
	.uleb128 .LEHB22-.LFB859
	.uleb128 .LEHE22-.LEHB22
	.uleb128 .L518-.LFB859
	.uleb128 0
	.uleb128 .LEHB23-.LFB859
	.uleb128 .LEHE23-.LEHB23
	.uleb128 0
	.uleb128 0
.LLSDACSE859:
	.section	".text"
	.size	_ZN15PartitionHandleC2EPK21DISC_INTERFACE_STRUCT, .-_ZN15PartitionHandleC2EPK21DISC_INTERFACE_STRUCT
	.weak	_ZNSt6vectorISsSaISsEED1Ev
	.set	_ZNSt6vectorISsSaISsEED1Ev,_ZNSt6vectorISsSaISsEED2Ev
	.globl _ZN15PartitionHandleD1Ev
	.set	_ZN15PartitionHandleD1Ev,_ZN15PartitionHandleD2Ev
	.globl _ZN15PartitionHandleC1EPK21DISC_INTERFACE_STRUCT
	.set	_ZN15PartitionHandleC1EPK21DISC_INTERFACE_STRUCT,_ZN15PartitionHandleC2EPK21DISC_INTERFACE_STRUCT
	.section	.rodata
	.align 2
	.set	.LANCHOR0,. + 0
	.type	_ZL11TYPE_UNUSED, @object
	.size	_ZL11TYPE_UNUSED, 16
_ZL11TYPE_UNUSED:
	.zero	16
	.type	_ZL9TYPE_BIOS, @object
	.size	_ZL9TYPE_BIOS, 16
_ZL9TYPE_BIOS:
	.byte	72
	.byte	97
	.byte	104
	.byte	33
	.byte	73
	.byte	100
	.byte	111
	.byte	110
	.byte	116
	.byte	78
	.byte	101
	.byte	101
	.byte	100
	.byte	69
	.byte	70
	.byte	73
	.section	.rodata.str1.4,"aMS",@progbits,1
	.align 2
.LC0:
	.string	"%s:"
.LC1:
	.string	"vector::_M_fill_insert"
	.zero	1
.LC2:
	.string	"FAT"
.LC3:
	.string	"GUID-Entry"
	.zero	1
.LC4:
	.string	"NTFS"
	.zero	3
.LC5:
	.string	"LINUX"
	.zero	2
.LC6:
	.string	"FAT32"
	.zero	2
.LC7:
	.string	"Unknown"
.LC8:
	.string	"EFI PART"
	.zero	3
.LC9:
	.string	"Unused"
	.zero	1
.LC10:
	.string	"FAT12"
	.zero	2
.LC11:
	.string	"FAT16"
	.zero	2
.LC12:
	.string	"Extended"
	.zero	3
.LC13:
	.string	"LxSWP"
	.zero	2
.LC14:
	.string	"LxLVM"
	.zero	2
.LC15:
	.string	"OSX"
.LC16:
	.string	"OSXBT"
	.zero	2
.LC17:
	.string	"OSXHF"
	.zero	2
.LC18:
	.string	"LUKS"
	.section	".text"
.Letext0:
	.file 13 "d:\\devkitpro\\devkitppc\\bin\\../lib/gcc/powerpc-eabi/4.6.3/../../../../powerpc-eabi/include/stdint.h"
	.file 14 "d:/devkitPro/libogc/include/gctypes.h"
	.file 15 "d:/devkitPro/libogc/include/ogc/disc_io.h"
	.file 16 "d:/devkitPro/libogc/include/ogc/gx.h"
	.file 17 "d:\\devkitpro\\devkitppc\\bin\\../lib/gcc/powerpc-eabi/4.6.3/../../../../powerpc-eabi/include/machine/_types.h"
	.file 18 "d:\\devkitpro\\devkitppc\\bin\\../lib/gcc/powerpc-eabi/4.6.3/../../../../powerpc-eabi/include/sys/lock.h"
	.file 19 "d:\\devkitpro\\devkitppc\\bin\\../lib/gcc/powerpc-eabi/4.6.3/include/stddef.h"
	.file 20 "d:\\devkitpro\\devkitppc\\bin\\../lib/gcc/powerpc-eabi/4.6.3/../../../../powerpc-eabi/include/sys/_types.h"
	.file 21 "d:\\devkitpro\\devkitppc\\bin\\../lib/gcc/powerpc-eabi/4.6.3/../../../../powerpc-eabi/include/sys/reent.h"
	.file 22 "d:\\devkitpro\\devkitppc\\bin\\../lib/gcc/powerpc-eabi/4.6.3/../../../../powerpc-eabi/include/time.h"
	.file 23 "<built-in>"
	.file 24 "d:\\devkitpro\\devkitppc\\bin\\../lib/gcc/powerpc-eabi/4.6.3/../../../../powerpc-eabi/include/c++/4.6.3/powerpc-eabi/bits/c++config.h"
	.file 25 "d:\\devkitpro\\devkitppc\\bin\\../lib/gcc/powerpc-eabi/4.6.3/../../../../powerpc-eabi/include/c++/4.6.3/cwchar"
	.file 26 "d:\\devkitpro\\devkitppc\\bin\\../lib/gcc/powerpc-eabi/4.6.3/../../../../powerpc-eabi/include/c++/4.6.3/clocale"
	.file 27 "d:\\devkitpro\\devkitppc\\bin\\../lib/gcc/powerpc-eabi/4.6.3/../../../../powerpc-eabi/include/c++/4.6.3/bits/move.h"
	.file 28 "d:\\devkitpro\\devkitppc\\bin\\../lib/gcc/powerpc-eabi/4.6.3/../../../../powerpc-eabi/include/c++/4.6.3/bits/cpp_type_traits.h"
	.file 29 "d:\\devkitpro\\devkitppc\\bin\\../lib/gcc/powerpc-eabi/4.6.3/../../../../powerpc-eabi/include/c++/4.6.3/debug/debug.h"
	.file 30 "d:\\devkitpro\\devkitppc\\bin\\../lib/gcc/powerpc-eabi/4.6.3/../../../../powerpc-eabi/include/c++/4.6.3/bits/allocator.h"
	.file 31 "d:\\devkitpro\\devkitppc\\bin\\../lib/gcc/powerpc-eabi/4.6.3/../../../../powerpc-eabi/include/c++/4.6.3/ext/numeric_traits.h"
	.file 32 "d:\\devkitpro\\devkitppc\\bin\\../lib/gcc/powerpc-eabi/4.6.3/../../../../powerpc-eabi/include/wchar.h"
	.file 33 "d:\\devkitpro\\devkitppc\\bin\\../lib/gcc/powerpc-eabi/4.6.3/../../../../powerpc-eabi/include/locale.h"
	.file 34 "d:\\devkitpro\\devkitppc\\bin\\../lib/gcc/powerpc-eabi/4.6.3/../../../../powerpc-eabi/include/c++/4.6.3/powerpc-eabi/bits/atomic_word.h"
	.file 35 "d:\\devkitpro\\devkitppc\\bin\\../lib/gcc/powerpc-eabi/4.6.3/../../../../powerpc-eabi/include/c++/4.6.3/bits/basic_string.tcc"
	.file 36 "d:\\devkitpro\\devkitppc\\bin\\../lib/gcc/powerpc-eabi/4.6.3/../../../../powerpc-eabi/include/c++/4.6.3/bits/stl_iterator_base_types.h"
	.file 37 "d:\\devkitpro\\devkitppc\\bin\\../lib/gcc/powerpc-eabi/4.6.3/../../../../powerpc-eabi/include/c++/4.6.3/ext/type_traits.h"
	.file 38 "d:\\devkitpro\\devkitppc\\bin\\../lib/gcc/powerpc-eabi/4.6.3/../../../../powerpc-eabi/include/c++/4.6.3/new"