   1              		.file	"PasswordCheck.cpp"
   2              		.section	".text"
   3              	.Ltext0:
   4              		.align 2
   5              		.globl _Z13PasswordCheckPKc
   6              		.type	_Z13PasswordCheckPKc, @function
   7              	_Z13PasswordCheckPKc:
   8              	.LFB1483:
   9              		.file 1 "d:/Projects/SaveGameManager/savegame-manager-gx/trunk/source/Tools/PasswordCheck.cpp"
  10              		.loc 1 5 0
  11              		.cfi_startproc
  12              	.LVL0:
  13 0000 9421FF80 		stwu 1,-128(1)
  14              	.LCFI0:
  15              		.cfi_def_cfa_offset 128
  16 0004 7C0802A6 		mflr 0
  17 0008 93E1007C 		stw 31,124(1)
  18              	.LBB1249:
  19              		.loc 1 6 0
  20 000c 7C7F1B79 		mr. 31,3
  21              		.cfi_offset 31, -4
  22              		.cfi_register 65, 0
  23              	.LBE1249:
  24              		.loc 1 5 0
  25 0010 93C10078 		stw 30,120(1)
  26              	.LBB1250:
  27              		.loc 1 7 0
  28 0014 3BC00002 		li 30,2
  29              		.cfi_offset 30, -8
  30              	.LBE1250:
  31              		.loc 1 5 0
  32 0018 90010084 		stw 0,132(1)
  33              	.LBB1251:
  34              		.loc 1 6 0
  35 001c 41820010 		beq- 0,.L2
  36              		.cfi_offset 65, 4
  37              		.loc 1 6 0 is_stmt 0 discriminator 1
  38 0020 881F0000 		lbz 0,0(31)
  39 0024 2F800000 		cmpwi 7,0,0
  40 0028 409E0020 		bne- 7,.L9
  41              	.LVL1:
  42              	.L2:
  43              	.LBE1251:
  44              		.loc 1 22 0 is_stmt 1
  45 002c 80010084 		lwz 0,132(1)
  46 0030 7FC3F378 		mr 3,30
  47 0034 83E1007C 		lwz 31,124(1)
  48              	.LVL2:
  49 0038 7C0803A6 		mtlr 0
  50 003c 83C10078 		lwz 30,120(1)
  51 0040 38210080 		addi 1,1,128
  52              		.cfi_remember_state
  53              	.LCFI1:
  54              		.cfi_def_cfa_offset 0
  55              		.cfi_restore 31
  56              		.cfi_restore 30
  57 0044 4E800020 		blr
  58              	.LVL3:
  59              	.L9:
  60              	.LCFI2:
  61              		.cfi_restore_state
  62              	.LBB1252:
  63              		.loc 1 6 0 discriminator 2
  64 0048 3C800000 		lis 4,.LC0@ha
  65 004c 38840000 		la 4,.LC0@l(4)
  66 0050 48000001 		bl strcmp
  67              	.LVL4:
  68 0054 2F830000 		cmpwi 7,3,0
  69 0058 419EFFD4 		beq+ 7,.L2
  70              		.loc 1 10 0
  71 005c 38800000 		li 4,0
  72 0060 38A00064 		li 5,100
  73 0064 38610008 		addi 3,1,8
  74              		.loc 1 21 0
  75 0068 3BC00000 		li 30,0
  76              		.loc 1 10 0
  77 006c 48000001 		bl memset
  78              		.loc 1 12 0
  79 0070 38610008 		addi 3,1,8
  80 0074 38800009 		li 4,9
  81 0078 38A00001 		li 5,1
  82 007c 48000001 		bl _Z14OnScreenNumpadPctb
  83              	.LVL5:
  84              		.loc 1 13 0
  85 0080 2F830000 		cmpwi 7,3,0
  86 0084 41BEFFA8 		beq- 7,.L2
  87              		.loc 1 15 0
  88 0088 38610008 		addi 3,1,8
  89              	.LVL6:
  90 008c 7FE4FB78 		mr 4,31
  91 0090 48000001 		bl strcmp
  92              		.loc 1 18 0
  93 0094 3BC0FFFF 		li 30,-1
  94              		.loc 1 15 0
  95 0098 2F830000 		cmpwi 7,3,0
  96 009c 40BEFF90 		bne- 7,.L2
  97              		.loc 1 16 0
  98 00a0 3BC00001 		li 30,1
  99 00a4 4BFFFF88 		b .L2
 100              	.LBE1252:
 101              		.cfi_endproc
 102              	.LFE1483:
 103              		.size	_Z13PasswordCheckPKc, .-_Z13PasswordCheckPKc
 104              		.section	.rodata.str1.4,"aMS",@progbits,1
 105              		.align 2
 106              	.LC0:
 107 0000 6E6F7420 		.string	"not set"
 107      73657400 
 108              		.section	".text"
 109              	.Letext0:
 110              		.file 2 "d:\\devkitpro\\devkitppc\\bin\\../lib/gcc/powerpc-eabi/4.6.3/../../../../powerpc-eabi/inc
 111              		.file 3 "d:/devkitPro/libogc/include/gctypes.h"
 112              		.file 4 "d:/devkitPro/libogc/include/ogc/gx.h"
 113              		.file 5 "d:\\devkitpro\\devkitppc\\bin\\../lib/gcc/powerpc-eabi/4.6.3/../../../../powerpc-eabi/inc
 114              		.file 6 "d:\\devkitpro\\devkitppc\\bin\\../lib/gcc/powerpc-eabi/4.6.3/../../../../powerpc-eabi/inc
 115              		.file 7 "d:\\devkitpro\\devkitppc\\bin\\../lib/gcc/powerpc-eabi/4.6.3/include/stddef.h"
 116              		.file 8 "d:\\devkitpro\\devkitppc\\bin\\../lib/gcc/powerpc-eabi/4.6.3/../../../../powerpc-eabi/inc
 117              		.file 9 "d:\\devkitpro\\devkitppc\\bin\\../lib/gcc/powerpc-eabi/4.6.3/../../../../powerpc-eabi/inc
 118              		.file 10 "d:\\devkitpro\\devkitppc\\bin\\../lib/gcc/powerpc-eabi/4.6.3/../../../../powerpc-eabi/in
 119              		.file 11 "<built-in>"
 120              		.file 12 "d:\\devkitpro\\devkitppc\\bin\\../lib/gcc/powerpc-eabi/4.6.3/../../../../powerpc-eabi/in
 121              		.file 13 "d:\\devkitpro\\devkitppc\\bin\\../lib/gcc/powerpc-eabi/4.6.3/../../../../powerpc-eabi/in
 122              		.file 14 "d:\\devkitpro\\devkitppc\\bin\\../lib/gcc/powerpc-eabi/4.6.3/../../../../powerpc-eabi/in
 123              		.file 15 "d:\\devkitpro\\devkitppc\\bin\\../lib/gcc/powerpc-eabi/4.6.3/../../../../powerpc-eabi/in
 124              		.file 16 "d:\\devkitpro\\devkitppc\\bin\\../lib/gcc/powerpc-eabi/4.6.3/../../../../powerpc-eabi/in
 125              		.file 17 "d:\\devkitpro\\devkitppc\\bin\\../lib/gcc/powerpc-eabi/4.6.3/../../../../powerpc-eabi/in
 126              		.file 18 "d:\\devkitpro\\devkitppc\\bin\\../lib/gcc/powerpc-eabi/4.6.3/../../../../powerpc-eabi/in
 127              		.file 19 "d:\\devkitpro\\devkitppc\\bin\\../lib/gcc/powerpc-eabi/4.6.3/../../../../powerpc-eabi/in
 128              		.file 20 "d:\\devkitpro\\devkitppc\\bin\\../lib/gcc/powerpc-eabi/4.6.3/../../../../powerpc-eabi/in
 129              		.file 21 "d:\\devkitpro\\devkitppc\\bin\\../lib/gcc/powerpc-eabi/4.6.3/../../../../powerpc-eabi/in
 130              		.file 22 "d:\\devkitpro\\devkitppc\\bin\\../lib/gcc/powerpc-eabi/4.6.3/../../../../powerpc-eabi/in
 131              		.file 23 "d:\\devkitpro\\devkitppc\\bin\\../lib/gcc/powerpc-eabi/4.6.3/../../../../powerpc-eabi/in
 132              		.file 24 "d:\\devkitpro\\devkitppc\\bin\\../lib/gcc/powerpc-eabi/4.6.3/../../../../powerpc-eabi/in
 133              		.file 25 "d:\\devkitpro\\devkitppc\\bin\\../lib/gcc/powerpc-eabi/4.6.3/../../../../powerpc-eabi/in
 134              		.file 26 "d:\\devkitpro\\devkitppc\\bin\\../lib/gcc/powerpc-eabi/4.6.3/../../../../powerpc-eabi/in
 135              		.file 27 "d:\\devkitpro\\devkitppc\\bin\\../lib/gcc/powerpc-eabi/4.6.3/../../../../powerpc-eabi/in
 136              		.file 28 "d:\\devkitpro\\devkitppc\\bin\\../lib/gcc/powerpc-eabi/4.6.3/../../../../powerpc-eabi/in
 137              		.file 29 "d:\\devkitpro\\devkitppc\\bin\\../lib/gcc/powerpc-eabi/4.6.3/../../../../powerpc-eabi/in
 138              		.file 30 "d:\\devkitpro\\devkitppc\\bin\\../lib/gcc/powerpc-eabi/4.6.3/../../../../powerpc-eabi/in
 139              		.file 31 "d:/Projects/SaveGameManager/savegame-manager-gx/trunk/source/Tools/../Prompts/../GUI/../
 140              		.file 32 "d:/Projects/SaveGameManager/savegame-manager-gx/trunk/source/Tools/../Prompts/../GUI/../
 141              		.file 33 "d:\\devkitpro\\devkitppc\\bin\\../lib/gcc/powerpc-eabi/4.6.3/../../../../powerpc-eabi/in
 142              		.file 34 "d:/Projects/SaveGameManager/savegame-manager-gx/trunk/source/Tools/../Prompts/../GUI/gui
 143              		.file 35 "d:\\devkitpro\\devkitppc\\bin\\../lib/gcc/powerpc-eabi/4.6.3/../../../../powerpc-eabi/in
 144              		.file 36 "d:\\devkitpro\\devkitppc\\bin\\../lib/gcc/powerpc-eabi/4.6.3/../../../../powerpc-eabi/in
 145              		.file 37 "d:\\devkitpro\\devkitppc\\bin\\../lib/gcc/powerpc-eabi/4.6.3/../../../../powerpc-eabi/in
 146              		.file 38 "d:\\devkitpro\\devkitppc\\bin\\../lib/gcc/powerpc-eabi/4.6.3/../../../../powerpc-eabi/in