	.file	"PathBrowser.cpp"
	.section	".text"
.Ltext0:
	.section	.text._ZN7sigslot15single_threadedD2Ev,"axG",@progbits,_ZN7sigslot15single_threadedD5Ev,comdat
	.align 2
	.weak	_ZN7sigslot15single_threadedD2Ev
	.type	_ZN7sigslot15single_threadedD2Ev, @function
_ZN7sigslot15single_threadedD2Ev:
.LFB1148:
	.file 1 "d:/Projects/SaveGameManager/savegame-manager-gx/trunk/source/Prompts/../GUI/../sigslot.h"
	.loc 1 104 0
	.cfi_startproc
.LVL0:
.LBB3369:
	.loc 1 105 0
	lis 9,_ZTVN7sigslot15single_threadedE+8@ha
.LBE3369:
	.loc 1 107 0
.LBB3370:
	.loc 1 105 0
	la 0,_ZTVN7sigslot15single_threadedE+8@l(9)
	stw 0,0(3)
.LBE3370:
	.loc 1 107 0
	blr
	.cfi_endproc
.LFE1148:
	.size	_ZN7sigslot15single_threadedD2Ev, .-_ZN7sigslot15single_threadedD2Ev
	.section	.text._ZN7sigslot15single_threaded4lockEv,"axG",@progbits,_ZN7sigslot15single_threaded4lockEv,comdat
	.align 2
	.weak	_ZN7sigslot15single_threaded4lockEv
	.type	_ZN7sigslot15single_threaded4lockEv, @function
_ZN7sigslot15single_threaded4lockEv:
.LFB1151:
	.loc 1 109 0
	.cfi_startproc
.LVL1:
	.loc 1 112 0
	blr
	.cfi_endproc
.LFE1151:
	.size	_ZN7sigslot15single_threaded4lockEv, .-_ZN7sigslot15single_threaded4lockEv
	.section	.text._ZN7sigslot15single_threaded6unlockEv,"axG",@progbits,_ZN7sigslot15single_threaded6unlockEv,comdat
	.align 2
	.weak	_ZN7sigslot15single_threaded6unlockEv
	.type	_ZN7sigslot15single_threaded6unlockEv, @function
_ZN7sigslot15single_threaded6unlockEv:
.LFB1152:
	.loc 1 114 0
	.cfi_startproc
.LVL2:
	.loc 1 117 0
	blr
	.cfi_endproc
.LFE1152:
	.size	_ZN7sigslot15single_threaded6unlockEv, .-_ZN7sigslot15single_threaded6unlockEv
	.section	.text._ZN10GuiElement9SetParentEPS_,"axG",@progbits,_ZN10GuiElement9SetParentEPS_,comdat
	.align 2
	.weak	_ZN10GuiElement9SetParentEPS_
	.type	_ZN10GuiElement9SetParentEPS_, @function
_ZN10GuiElement9SetParentEPS_:
.LFB1384:
	.file 2 "d:/Projects/SaveGameManager/savegame-manager-gx/trunk/source/Prompts/../GUI/gui_element.h"
	.loc 2 92 0
	.cfi_startproc
.LVL3:
	.loc 2 92 0
	stw 4,96(3)
	blr
	.cfi_endproc
.LFE1384:
	.size	_ZN10GuiElement9SetParentEPS_, .-_ZN10GuiElement9SetParentEPS_
	.section	.text._ZN10GuiElement9GetParentEv,"axG",@progbits,_ZN10GuiElement9GetParentEv,comdat
	.align 2
	.weak	_ZN10GuiElement9GetParentEv
	.type	_ZN10GuiElement9GetParentEv, @function
_ZN10GuiElement9GetParentEv:
.LFB1385:
	.loc 2 95 0
	.cfi_startproc
.LVL4:
	.loc 2 95 0
	lwz 3,96(3)
.LVL5:
	blr
	.cfi_endproc
.LFE1385:
	.size	_ZN10GuiElement9GetParentEv, .-_ZN10GuiElement9GetParentEv
	.section	.text._ZN10GuiElement12GetZPositionEv,"axG",@progbits,_ZN10GuiElement12GetZPositionEv,comdat
	.align 2
	.weak	_ZN10GuiElement12GetZPositionEv
	.type	_ZN10GuiElement12GetZPositionEv, @function
_ZN10GuiElement12GetZPositionEv:
.LFB1386:
	.loc 2 106 0
	.cfi_startproc
.LVL6:
	mflr 0
	stwu 1,-16(1)
.LCFI0:
	.cfi_def_cfa_offset 16
	.cfi_register 65, 0
	stw 31,12(1)
	mr 31,3
	.cfi_offset 31, -4
	stw 0,20(1)
.LBB3371:
	.loc 2 110 0
	lwz 11,96(3)
	.loc 2 108 0
	li 3,0
.LVL7:
	.loc 2 110 0
	cmpwi 7,11,0
	beq- 7,.L8
	.cfi_offset 65, 4
	.loc 2 111 0
	lwz 9,0(11)
	mr 3,11
	lwz 0,24(9)
	mtctr 0
	bctrl
.LVL8:
.L8:
	.loc 2 113 0
	lwz 0,52(31)
.LBE3371:
	.loc 2 114 0
	lwz 31,12(1)
.LVL9:
	add 3,3,0
.LVL10:
	lwz 0,20(1)
	addi 1,1,16
.LCFI1:
	.cfi_def_cfa_offset 0
	.cfi_restore 31
	mtlr 0
	blr
	.cfi_endproc
.LFE1386:
	.size	_ZN10GuiElement12GetZPositionEv, .-_ZN10GuiElement12GetZPositionEv
	.section	.text._ZN10GuiElement10GetLeftPosEv,"axG",@progbits,_ZN10GuiElement10GetLeftPosEv,comdat
	.align 2
	.weak	_ZN10GuiElement10GetLeftPosEv
	.type	_ZN10GuiElement10GetLeftPosEv, @function
_ZN10GuiElement10GetLeftPosEv:
.LFB1387:
	.loc 2 116 0
	.cfi_startproc
.LVL11:
	.loc 2 116 0
	lwz 3,44(3)
.LVL12:
	blr
	.cfi_endproc
.LFE1387:
	.size	_ZN10GuiElement10GetLeftPosEv, .-_ZN10GuiElement10GetLeftPosEv
	.section	.text._ZN10GuiElement9GetTopPosEv,"axG",@progbits,_ZN10GuiElement9GetTopPosEv,comdat
	.align 2
	.weak	_ZN10GuiElement9GetTopPosEv
	.type	_ZN10GuiElement9GetTopPosEv, @function
_ZN10GuiElement9GetTopPosEv:
.LFB1388:
	.loc 2 118 0
	.cfi_startproc
.LVL13:
	.loc 2 118 0
	lwz 3,48(3)
.LVL14:
	blr
	.cfi_endproc
.LFE1388:
	.size	_ZN10GuiElement9GetTopPosEv, .-_ZN10GuiElement9GetTopPosEv
	.section	.text._ZN10GuiElement8GetWidthEv,"axG",@progbits,_ZN10GuiElement8GetWidthEv,comdat
	.align 2
	.weak	_ZN10GuiElement8GetWidthEv
	.type	_ZN10GuiElement8GetWidthEv, @function
_ZN10GuiElement8GetWidthEv:
.LFB1389:
	.loc 2 121 0
	.cfi_startproc
.LVL15:
	.loc 2 121 0
	lwz 3,36(3)
.LVL16:
	blr
	.cfi_endproc
.LFE1389:
	.size	_ZN10GuiElement8GetWidthEv, .-_ZN10GuiElement8GetWidthEv
	.section	.text._ZN10GuiElement9GetHeightEv,"axG",@progbits,_ZN10GuiElement9GetHeightEv,comdat
	.align 2
	.weak	_ZN10GuiElement9GetHeightEv
	.type	_ZN10GuiElement9GetHeightEv, @function
_ZN10GuiElement9GetHeightEv:
.LFB1390:
	.loc 2 124 0
	.cfi_startproc
.LVL17:
	.loc 2 124 0
	lwz 3,40(3)
.LVL18:
	blr
	.cfi_endproc
.LFE1390:
	.size	_ZN10GuiElement9GetHeightEv, .-_ZN10GuiElement9GetHeightEv
	.section	.text._ZN10GuiElement7SetSizeEii,"axG",@progbits,_ZN10GuiElement7SetSizeEii,comdat
	.align 2
	.weak	_ZN10GuiElement7SetSizeEii
	.type	_ZN10GuiElement7SetSizeEii, @function
_ZN10GuiElement7SetSizeEii:
.LFB1391:
	.loc 2 128 0
	.cfi_startproc
.LVL19:
	.loc 2 130 0
	stw 4,36(3)
	.loc 2 132 0
	.loc 2 131 0
	stw 5,40(3)
	.loc 2 132 0
	blr
	.cfi_endproc
.LFE1391:
	.size	_ZN10GuiElement7SetSizeEii, .-_ZN10GuiElement7SetSizeEii
	.section	.text._ZN10GuiElement9IsVisibleEv,"axG",@progbits,_ZN10GuiElement9IsVisibleEv,comdat
	.align 2
	.weak	_ZN10GuiElement9IsVisibleEv
	.type	_ZN10GuiElement9IsVisibleEv, @function
_ZN10GuiElement9IsVisibleEv:
.LFB1393:
	.loc 2 142 0
	.cfi_startproc
.LVL20:
	.loc 2 142 0
	lbz 3,29(3)
.LVL21:
	blr
	.cfi_endproc
.LFE1393:
	.size	_ZN10GuiElement9IsVisibleEv, .-_ZN10GuiElement9IsVisibleEv
	.section	.text._ZN10GuiElement12IsSelectableEv,"axG",@progbits,_ZN10GuiElement12IsSelectableEv,comdat
	.align 2
	.weak	_ZN10GuiElement12IsSelectableEv
	.type	_ZN10GuiElement12IsSelectableEv, @function
_ZN10GuiElement12IsSelectableEv:
.LFB1394:
	.loc 2 145 0
	.cfi_startproc
.LVL22:
	.loc 2 149 0
	lwz 0,72(3)
	li 9,0
	cmpwi 7,0,4
	beq- 7,.L18
	.loc 2 149 0 is_stmt 0 discriminator 1
	cmpwi 7,0,2
	beq- 7,.L18
	.loc 2 149 0 discriminator 3
	lbz 9,30(3)
.L18:
	.loc 2 150 0 is_stmt 1 discriminator 5
	mr 3,9
.LVL23:
	blr
	.cfi_endproc
.LFE1394:
	.size	_ZN10GuiElement12IsSelectableEv, .-_ZN10GuiElement12IsSelectableEv
	.section	.text._ZN10GuiElement11IsClickableEv,"axG",@progbits,_ZN10GuiElement11IsClickableEv,comdat
	.align 2
	.weak	_ZN10GuiElement11IsClickableEv
	.type	_ZN10GuiElement11IsClickableEv, @function
_ZN10GuiElement11IsClickableEv:
.LFB1395:
	.loc 2 153 0
	.cfi_startproc
.LVL24:
	.loc 2 158 0
	lwz 0,72(3)
	li 9,0
	cmpwi 7,0,4
	beq- 7,.L22
	.loc 2 158 0 is_stmt 0 discriminator 1
	cmpwi 7,0,2
	beq- 7,.L22
	.loc 2 158 0 discriminator 3
	cmpwi 7,0,3
	beq- 7,.L22
	.loc 2 158 0 discriminator 4
	lbz 9,31(3)
.L22:
	.loc 2 159 0 is_stmt 1 discriminator 6
	mr 3,9
.LVL25:
	blr
	.cfi_endproc
.LFE1395:
	.size	_ZN10GuiElement11IsClickableEv, .-_ZN10GuiElement11IsClickableEv
	.section	.text._ZN10GuiElement10IsHoldableEv,"axG",@progbits,_ZN10GuiElement10IsHoldableEv,comdat
	.align 2
	.weak	_ZN10GuiElement10IsHoldableEv
	.type	_ZN10GuiElement10IsHoldableEv, @function
_ZN10GuiElement10IsHoldableEv:
.LFB1396:
	.loc 2 162 0
	.cfi_startproc
.LVL26:
	.loc 2 162 0
	lwz 9,72(3)
	li 0,0
	cmpwi 7,9,4
	beq- 7,.L27
	.loc 2 162 0 is_stmt 0 discriminator 1
	lbz 0,32(3)
.L27:
	.loc 2 162 0 discriminator 4
	mr 3,0
.LVL27:
	blr
	.cfi_endproc
.LFE1396:
	.size	_ZN10GuiElement10IsHoldableEv, .-_ZN10GuiElement10IsHoldableEv
	.section	.text._ZN10GuiElement13SetSelectableEb,"axG",@progbits,_ZN10GuiElement13SetSelectableEb,comdat
	.align 2
	.weak	_ZN10GuiElement13SetSelectableEb
	.type	_ZN10GuiElement13SetSelectableEb, @function
_ZN10GuiElement13SetSelectableEb:
.LFB1397:
	.loc 2 165 0 is_stmt 1
	.cfi_startproc
.LVL28:
	.loc 2 165 0
	stb 4,30(3)
	blr
	.cfi_endproc
.LFE1397:
	.size	_ZN10GuiElement13SetSelectableEb, .-_ZN10GuiElement13SetSelectableEb
	.section	.text._ZN10GuiElement12SetClickableEb,"axG",@progbits,_ZN10GuiElement12SetClickableEb,comdat
	.align 2
	.weak	_ZN10GuiElement12SetClickableEb
	.type	_ZN10GuiElement12SetClickableEb, @function
_ZN10GuiElement12SetClickableEb:
.LFB1398:
	.loc 2 168 0
	.cfi_startproc
.LVL29:
	.loc 2 168 0
	stb 4,31(3)
	blr
	.cfi_endproc
.LFE1398:
	.size	_ZN10GuiElement12SetClickableEb, .-_ZN10GuiElement12SetClickableEb
	.section	.text._ZN10GuiElement11SetHoldableEb,"axG",@progbits,_ZN10GuiElement11SetHoldableEb,comdat
	.align 2
	.weak	_ZN10GuiElement11SetHoldableEb
	.type	_ZN10GuiElement11SetHoldableEb, @function
_ZN10GuiElement11SetHoldableEb:
.LFB1399:
	.loc 2 171 0
	.cfi_startproc
.LVL30:
	.loc 2 171 0
	stb 4,32(3)
	blr
	.cfi_endproc
.LFE1399:
	.size	_ZN10GuiElement11SetHoldableEb, .-_ZN10GuiElement11SetHoldableEb
	.section	.text._ZN10GuiElement8GetStateEv,"axG",@progbits,_ZN10GuiElement8GetStateEv,comdat
	.align 2
	.weak	_ZN10GuiElement8GetStateEv
	.type	_ZN10GuiElement8GetStateEv, @function
_ZN10GuiElement8GetStateEv:
.LFB1400:
	.loc 2 178 0
	.cfi_startproc
.LVL31:
	.loc 2 178 0
	lwz 3,72(3)
.LVL32:
	blr
	.cfi_endproc
.LFE1400:
	.size	_ZN10GuiElement8GetStateEv, .-_ZN10GuiElement8GetStateEv
	.section	.text._ZN10GuiElement12GetStateChanEv,"axG",@progbits,_ZN10GuiElement12GetStateChanEv,comdat
	.align 2
	.weak	_ZN10GuiElement12GetStateChanEv
	.type	_ZN10GuiElement12GetStateChanEv, @function
_ZN10GuiElement12GetStateChanEv:
.LFB1401:
	.loc 2 181 0
	.cfi_startproc
.LVL33:
	.loc 2 181 0
	lwz 3,76(3)
.LVL34:
	blr
	.cfi_endproc
.LFE1401:
	.size	_ZN10GuiElement12GetStateChanEv, .-_ZN10GuiElement12GetStateChanEv
	.section	.text._ZN10GuiElement8SetAlphaEi,"axG",@progbits,_ZN10GuiElement8SetAlphaEi,comdat
	.align 2
	.weak	_ZN10GuiElement8SetAlphaEi
	.type	_ZN10GuiElement8SetAlphaEi, @function
_ZN10GuiElement8SetAlphaEi:
.LFB1403:
	.loc 2 190 0
	.cfi_startproc
.LVL35:
	.loc 2 190 0
	stw 4,56(3)
	blr
	.cfi_endproc
.LFE1403:
	.size	_ZN10GuiElement8SetAlphaEi, .-_ZN10GuiElement8SetAlphaEi
	.section	.text._ZN10GuiElement8GetAlphaEv,"axG",@progbits,_ZN10GuiElement8GetAlphaEv,comdat
	.align 2
	.weak	_ZN10GuiElement8GetAlphaEv
	.type	_ZN10GuiElement8GetAlphaEv, @function
_ZN10GuiElement8GetAlphaEv:
.LFB1404:
	.loc 2 194 0
	.cfi_startproc
.LVL36:
	mflr 0
	stwu 1,-40(1)
.LCFI2:
	.cfi_def_cfa_offset 40
	.cfi_register 65, 0
	stw 31,36(1)
	stw 0,44(1)
.LBB3372:
	.loc 2 198 0
	lwz 31,108(3)
	.cfi_offset 65, 4
	.cfi_offset 31, -4
	cmpwi 7,31,0
	blt- 7,.L38
.L36:
.LVL37:
	.loc 2 203 0
	lwz 3,96(3)
.LVL38:
	cmpwi 7,3,0
	beq- 7,.L37
	.loc 2 204 0
	lwz 9,0(3)
	xoris 31,31,0x8000
.LVL39:
	lwz 0,100(9)
	mtctr 0
	bctrl
	lis 0,0x4330
	xoris 3,3,0x8000
	stw 0,16(1)
	stw 3,20(1)
	lis 9,.LC1@ha
	lfs 0,.LC1@l(9)
	lis 9,.LC2@ha
	lfd 13,16(1)
	lfs 12,.LC2@l(9)
	addi 9,1,24
	fsub 13,13,0
	stw 31,12(1)
	stw 0,8(1)
	frsp 13,13
	fdivs 13,13,12
	lfd 12,8(1)
	fsub 0,12,0
	frsp 0,0
	fmuls 0,0,13
	fctiwz 0,0
	stfiwx 0,0,9
	lwz 31,24(1)
.LVL40:
.L37:
.LBE3372:
	.loc 2 207 0
	lwz 0,44(1)
	mr 3,31
	lwz 31,36(1)
.LVL41:
	mtlr 0
	addi 1,1,40
	.cfi_remember_state
.LCFI3:
	.cfi_def_cfa_offset 0
	.cfi_restore 31
	blr
.LVL42:
.L38:
.LCFI4:
	.cfi_restore_state
.LBB3373:
	.loc 2 201 0
	lwz 31,56(3)
.LVL43:
	b .L36
.LBE3373:
	.cfi_endproc
.LFE1404:
	.size	_ZN10GuiElement8GetAlphaEv, .-_ZN10GuiElement8GetAlphaEv
	.section	.text._ZN10GuiElement8SetScaleEf,"axG",@progbits,_ZN10GuiElement8SetScaleEf,comdat
	.align 2
	.weak	_ZN10GuiElement8SetScaleEf
	.type	_ZN10GuiElement8SetScaleEf, @function
_ZN10GuiElement8SetScaleEf:
.LFB1405:
	.loc 2 210 0
	.cfi_startproc
.LVL44:
	.loc 2 212 0
	stfs 1,60(3)
	.loc 2 214 0
	.loc 2 213 0
	stfs 1,64(3)
	.loc 2 214 0
	blr
	.cfi_endproc
.LFE1405:
	.size	_ZN10GuiElement8SetScaleEf, .-_ZN10GuiElement8SetScaleEf
	.section	.text._ZN10GuiElement9SetScaleXEf,"axG",@progbits,_ZN10GuiElement9SetScaleXEf,comdat
	.align 2
	.weak	_ZN10GuiElement9SetScaleXEf
	.type	_ZN10GuiElement9SetScaleXEf, @function
_ZN10GuiElement9SetScaleXEf:
.LFB1406:
	.loc 2 217 0
	.cfi_startproc
.LVL45:
	.loc 2 217 0
	stfs 1,60(3)
	blr
	.cfi_endproc
.LFE1406:
	.size	_ZN10GuiElement9SetScaleXEf, .-_ZN10GuiElement9SetScaleXEf
	.section	.text._ZN10GuiElement9SetScaleYEf,"axG",@progbits,_ZN10GuiElement9SetScaleYEf,comdat
	.align 2
	.weak	_ZN10GuiElement9SetScaleYEf
	.type	_ZN10GuiElement9SetScaleYEf, @function
_ZN10GuiElement9SetScaleYEf:
.LFB1407:
	.loc 2 220 0
	.cfi_startproc
.LVL46:
	.loc 2 220 0
	stfs 1,64(3)
	blr
	.cfi_endproc
.LFE1407:
	.size	_ZN10GuiElement9SetScaleYEf, .-_ZN10GuiElement9SetScaleYEf
	.section	.text._ZN10GuiElement8GetScaleEv,"axG",@progbits,_ZN10GuiElement8GetScaleEv,comdat
	.align 2
	.weak	_ZN10GuiElement8GetScaleEv
	.type	_ZN10GuiElement8GetScaleEv, @function
_ZN10GuiElement8GetScaleEv:
.LFB1408:
	.loc 2 223 0
	.cfi_startproc
.LVL47:
	mflr 0
	stwu 1,-16(1)
.LCFI5:
	.cfi_def_cfa_offset 16
	.cfi_register 65, 0
.LBB3374:
	.loc 2 225 0
	lis 9,.LC3@ha
.LBE3374:
	.loc 2 223 0
	stfd 31,8(1)
	stw 0,20(1)
.LBB3375:
	.loc 2 225 0
	lfs 0,64(3)
	lfs 31,60(3)
	.cfi_offset 65, 4
	.cfi_offset 63, -8
	.loc 2 227 0
	lwz 11,96(3)
	.loc 2 225 0
	fadds 31,31,0
	lfs 0,.LC3@l(9)
	.loc 2 227 0
	cmpwi 7,11,0
	.loc 2 225 0
	fmuls 31,31,0
	lfs 0,112(3)
	fmuls 31,31,0
.LVL48:
	.loc 2 227 0
	beq- 7,.L43
	.loc 2 228 0
	lwz 9,0(11)
	mr 3,11
.LVL49:
	lwz 0,116(9)
	mtctr 0
	bctrl
	fmuls 31,31,1
.LVL50:
.L43:
.LBE3375:
	.loc 2 231 0
	lwz 0,20(1)
	fmr 1,31
	lfd 31,8(1)
.LVL51:
	mtlr 0
	addi 1,1,16
.LCFI6:
	.cfi_def_cfa_offset 0
	.cfi_restore 63
	blr
	.cfi_endproc
.LFE1408:
	.size	_ZN10GuiElement8GetScaleEv, .-_ZN10GuiElement8GetScaleEv
	.section	.text._ZN10GuiElement9GetScaleXEv,"axG",@progbits,_ZN10GuiElement9GetScaleXEv,comdat
	.align 2
	.weak	_ZN10GuiElement9GetScaleXEv
	.type	_ZN10GuiElement9GetScaleXEv, @function
_ZN10GuiElement9GetScaleXEv:
.LFB1409:
	.loc 2 234 0
	.cfi_startproc
.LVL52:
	mflr 0
	stwu 1,-16(1)
.LCFI7:
	.cfi_def_cfa_offset 16
	.cfi_register 65, 0
	stfd 31,8(1)
	stw 0,20(1)
.LBB3376:
	.loc 2 238 0
	lwz 11,96(3)
	.loc 2 236 0
	lfs 31,60(3)
	.cfi_offset 65, 4
	.cfi_offset 63, -8
	.loc 2 238 0
	cmpwi 7,11,0
	.loc 2 236 0
	lfs 0,112(3)
	fmuls 31,31,0
.LVL53:
	.loc 2 238 0
	beq- 7,.L45
	.loc 2 239 0
	lwz 9,0(11)
	mr 3,11
.LVL54:
	lwz 0,120(9)
	mtctr 0
	bctrl
	fmuls 31,31,1
.LVL55:
.L45:
.LBE3376:
	.loc 2 242 0
	lwz 0,20(1)
	fmr 1,31
	lfd 31,8(1)
.LVL56:
	mtlr 0
	addi 1,1,16
.LCFI8:
	.cfi_def_cfa_offset 0
	.cfi_restore 63
	blr
	.cfi_endproc
.LFE1409:
	.size	_ZN10GuiElement9GetScaleXEv, .-_ZN10GuiElement9GetScaleXEv
	.section	.text._ZN10GuiElement9GetScaleYEv,"axG",@progbits,_ZN10GuiElement9GetScaleYEv,comdat
	.align 2
	.weak	_ZN10GuiElement9GetScaleYEv
	.type	_ZN10GuiElement9GetScaleYEv, @function
_ZN10GuiElement9GetScaleYEv:
.LFB1410:
	.loc 2 245 0
	.cfi_startproc
.LVL57:
	mflr 0
	stwu 1,-16(1)
.LCFI9:
	.cfi_def_cfa_offset 16
	.cfi_register 65, 0
	stfd 31,8(1)
	stw 0,20(1)
.LBB3377:
	.loc 2 249 0
	lwz 11,96(3)
	.loc 2 247 0
	lfs 31,64(3)
	.cfi_offset 65, 4
	.cfi_offset 63, -8
	.loc 2 249 0
	cmpwi 7,11,0
	.loc 2 247 0
	lfs 0,112(3)
	fmuls 31,31,0
.LVL58:
	.loc 2 249 0
	beq- 7,.L47
	.loc 2 250 0
	lwz 9,0(11)
	mr 3,11
.LVL59:
	lwz 0,124(9)
	mtctr 0
	bctrl
	fmuls 31,31,1
.LVL60:
.L47:
.LBE3377:
	.loc 2 253 0
	lwz 0,20(1)
	fmr 1,31
	lfd 31,8(1)
.LVL61:
	mtlr 0
	addi 1,1,16
.LCFI10:
	.cfi_def_cfa_offset 0
	.cfi_restore 63
	blr
	.cfi_endproc
.LFE1410:
	.size	_ZN10GuiElement9GetScaleYEv, .-_ZN10GuiElement9GetScaleYEv
	.section	.text._ZN10GuiElement6RumbleEv,"axG",@progbits,_ZN10GuiElement6RumbleEv,comdat
	.align 2
	.weak	_ZN10GuiElement6RumbleEv
	.type	_ZN10GuiElement6RumbleEv, @function
_ZN10GuiElement6RumbleEv:
.LFB1411:
	.loc 2 256 0
	.cfi_startproc
.LVL62:
	.loc 2 256 0
	lbz 3,28(3)
.LVL63:
	blr
	.cfi_endproc
.LFE1411:
	.size	_ZN10GuiElement6RumbleEv, .-_ZN10GuiElement6RumbleEv
	.section	.text._ZN10GuiElement9SetRumbleEb,"axG",@progbits,_ZN10GuiElement9SetRumbleEb,comdat
	.align 2
	.weak	_ZN10GuiElement9SetRumbleEb
	.type	_ZN10GuiElement9SetRumbleEb, @function
_ZN10GuiElement9SetRumbleEb:
.LFB1412:
	.loc 2 259 0
	.cfi_startproc
.LVL64:
	.loc 2 259 0
	stb 4,28(3)
	blr
	.cfi_endproc
.LFE1412:
	.size	_ZN10GuiElement9SetRumbleEb, .-_ZN10GuiElement9SetRumbleEb
	.section	.text._ZN10GuiElement13SetEffectGrowEv,"axG",@progbits,_ZN10GuiElement13SetEffectGrowEv,comdat
	.align 2
	.weak	_ZN10GuiElement13SetEffectGrowEv
	.type	_ZN10GuiElement13SetEffectGrowEv, @function
_ZN10GuiElement13SetEffectGrowEv:
.LFB1413:
	.loc 2 271 0
	.cfi_startproc
.LVL65:
	mflr 0
	stwu 1,-8(1)
.LCFI11:
	.cfi_def_cfa_offset 8
	.cfi_register 65, 0
	lwz 9,0(3)
	li 4,256
	li 5,4
	li 6,110
	stw 0,12(1)
	.loc 2 271 0
	lwz 0,140(9)
	.cfi_offset 65, 4
	mtctr 0
	bctrl
.LVL66:
	lwz 0,12(1)
	addi 1,1,8
.LCFI12:
	.cfi_def_cfa_offset 0
	mtlr 0
	blr
	.cfi_endproc
.LFE1413:
	.size	_ZN10GuiElement13SetEffectGrowEv, .-_ZN10GuiElement13SetEffectGrowEv
	.section	.text._ZNK10GuiElement9GetEffectEv,"axG",@progbits,_ZNK10GuiElement9GetEffectEv,comdat
	.align 2
	.weak	_ZNK10GuiElement9GetEffectEv
	.type	_ZNK10GuiElement9GetEffectEv, @function
_ZNK10GuiElement9GetEffectEv:
.LFB1414:
	.loc 2 276 0
	.cfi_startproc
.LVL67:
	.loc 2 276 0
	lwz 3,120(3)
.LVL68:
	blr
	.cfi_endproc
.LFE1414:
	.size	_ZNK10GuiElement9GetEffectEv, .-_ZNK10GuiElement9GetEffectEv
	.section	.text._ZNK10GuiElement10IsAnimatedEv,"axG",@progbits,_ZNK10GuiElement10IsAnimatedEv,comdat
	.align 2
	.weak	_ZNK10GuiElement10IsAnimatedEv
	.type	_ZNK10GuiElement10IsAnimatedEv, @function
_ZNK10GuiElement10IsAnimatedEv:
.LFB1415:
	.loc 2 278 0
	.cfi_startproc
.LVL69:
	mflr 0
	stwu 1,-8(1)
.LCFI13:
	.cfi_def_cfa_offset 8
	.cfi_register 65, 0
	stw 0,12(1)
	.loc 2 278 0
	lwz 9,0(3)
	lwz 0,152(9)
	.cfi_offset 65, 4
	mtctr 0
	bctrl
.LVL70:
	srawi 0,3,31
	subf 3,3,0
	lwz 0,12(1)
	srwi 3,3,31
	mtlr 0
	addi 1,1,8
.LCFI14:
	.cfi_def_cfa_offset 0
	blr
	.cfi_endproc
.LFE1415:
	.size	_ZNK10GuiElement10IsAnimatedEv, .-_ZNK10GuiElement10IsAnimatedEv
	.section	.text._ZN10GuiElement8IsInsideEii,"axG",@progbits,_ZN10GuiElement8IsInsideEii,comdat
	.align 2
	.weak	_ZN10GuiElement8IsInsideEii
	.type	_ZN10GuiElement8IsInsideEii, @function
_ZN10GuiElement8IsInsideEii:
.LFB1417:
	.loc 2 285 0
	.cfi_startproc
.LVL71:
	mflr 0
	stwu 1,-24(1)
.LCFI15:
	.cfi_def_cfa_offset 24
	.cfi_register 65, 0
	stw 28,8(1)
	mr 28,5
	.cfi_offset 28, -16
	stw 0,28(1)
	stw 29,12(1)
	.loc 2 290 0
	li 29,0
	.cfi_offset 29, -12
	.cfi_offset 65, 4
	.loc 2 287 0
	lwz 9,0(3)
	.loc 2 285 0
	stw 30,16(1)
	mr 30,4
	.cfi_offset 30, -8
	.loc 2 287 0
	lwz 0,16(9)
	.loc 2 285 0
	stw 31,20(1)
	.loc 2 285 0
	mr 31,3
	.cfi_offset 31, -4
	.loc 2 287 0
	mtctr 0
	bctrl
.LVL72:
	.loc 2 290 0
	cmpw 7,3,30
	blt- 7,.L58
.L54:
	.loc 2 291 0 discriminator 6
	lwz 0,28(1)
	mr 3,29
	lwz 28,8(1)
.LVL73:
	mtlr 0
	lwz 29,12(1)
	lwz 30,16(1)
.LVL74:
	lwz 31,20(1)
.LVL75:
	addi 1,1,24
	.cfi_remember_state
.LCFI16:
	.cfi_def_cfa_offset 0
	.cfi_restore 31
	.cfi_restore 30
	.cfi_restore 29
	.cfi_restore 28
	blr
.LVL76:
.L58:
.LCFI17:
	.cfi_restore_state
	.loc 2 288 0 discriminator 1
	lwz 9,0(31)
	mr 3,31
	lwz 0,16(9)
	mtctr 0
	bctrl
	.loc 2 290 0 discriminator 1
	lwz 0,36(31)
	add 0,3,0
	cmpw 7,30,0
	bge+ 7,.L54
	.loc 2 289 0 discriminator 3
	lwz 9,0(31)
	mr 3,31
	lwz 0,20(9)
	mtctr 0
	bctrl
	.loc 2 290 0 discriminator 3
	cmpw 7,3,28
	bge+ 7,.L54
	.loc 2 290 0 is_stmt 0 discriminator 4
	lwz 9,0(31)
	mr 3,31
	lwz 0,20(9)
	mtctr 0
	bctrl
	lwz 0,40(31)
	add 0,3,0
	.loc 2 285 0 is_stmt 1 discriminator 4
	cmpw 7,28,0
	mfcr 29
	rlwinm 29,29,29,1
	b .L54
	.cfi_endproc
.LFE1417:
	.size	_ZN10GuiElement8IsInsideEii, .-_ZN10GuiElement8IsInsideEii
	.section	.text._ZN10GuiElement11SetPositionEii,"axG",@progbits,_ZN10GuiElement11SetPositionEii,comdat
	.align 2
	.weak	_ZN10GuiElement11SetPositionEii
	.type	_ZN10GuiElement11SetPositionEii, @function
_ZN10GuiElement11SetPositionEii:
.LFB1418:
	.loc 2 295 0
	.cfi_startproc
.LVL77:
	.loc 2 297 0
	stw 4,44(3)
	.loc 2 299 0
	.loc 2 298 0
	stw 5,48(3)
	.loc 2 299 0
	blr
	.cfi_endproc
.LFE1418:
	.size	_ZN10GuiElement11SetPositionEii, .-_ZN10GuiElement11SetPositionEii
	.section	.text._ZN10GuiElement11SetPositionEiii,"axG",@progbits,_ZN10GuiElement11SetPositionEiii,comdat
	.align 2
	.weak	_ZN10GuiElement11SetPositionEiii
	.type	_ZN10GuiElement11SetPositionEiii, @function
_ZN10GuiElement11SetPositionEiii:
.LFB1419:
	.loc 2 304 0
	.cfi_startproc
.LVL78:
	.loc 2 306 0
	stw 4,44(3)
	.loc 2 309 0
	.loc 2 307 0
	stw 5,48(3)
	.loc 2 308 0
	stw 6,52(3)
	.loc 2 309 0
	blr
	.cfi_endproc
.LFE1419:
	.size	_ZN10GuiElement11SetPositionEiii, .-_ZN10GuiElement11SetPositionEiii
	.section	.text._ZN10GuiElement12SetAlignmentEi,"axG",@progbits,_ZN10GuiElement12SetAlignmentEi,comdat
	.align 2
	.weak	_ZN10GuiElement12SetAlignmentEi
	.type	_ZN10GuiElement12SetAlignmentEi, @function
_ZN10GuiElement12SetAlignmentEi:
.LFB1421:
	.loc 2 316 0
	.cfi_startproc
.LVL79:
	.loc 2 316 0
	stw 4,68(3)
	blr
	.cfi_endproc
.LFE1421:
	.size	_ZN10GuiElement12SetAlignmentEi, .-_ZN10GuiElement12SetAlignmentEi
	.section	.text._ZNK10GuiElement12GetAlignmentEv,"axG",@progbits,_ZNK10GuiElement12GetAlignmentEv,comdat
	.align 2
	.weak	_ZNK10GuiElement12GetAlignmentEv
	.type	_ZNK10GuiElement12GetAlignmentEv, @function
_ZNK10GuiElement12GetAlignmentEv:
.LFB1422:
	.loc 2 318 0
	.cfi_startproc
.LVL80:
	.loc 2 318 0
	lwz 3,68(3)
.LVL81:
	blr
	.cfi_endproc
.LFE1422:
	.size	_ZNK10GuiElement12GetAlignmentEv, .-_ZNK10GuiElement12GetAlignmentEv
	.section	.text._ZN8GuiFrame4showEv,"axG",@progbits,_ZN8GuiFrame4showEv,comdat
	.align 2
	.weak	_ZN8GuiFrame4showEv
	.type	_ZN8GuiFrame4showEv, @function
_ZN8GuiFrame4showEv:
.LFB1431:
	.file 3 "d:/Projects/SaveGameManager/savegame-manager-gx/trunk/source/Prompts/../GUI/gui_frame.h"
	.loc 3 79 0
	.cfi_startproc
.LVL82:
	.loc 3 79 0
	blr
	.cfi_endproc
.LFE1431:
	.size	_ZN8GuiFrame4showEv, .-_ZN8GuiFrame4showEv
	.section	.text._ZN8GuiFrame4hideEv,"axG",@progbits,_ZN8GuiFrame4hideEv,comdat
	.align 2
	.weak	_ZN8GuiFrame4hideEv
	.type	_ZN8GuiFrame4hideEv, @function
_ZN8GuiFrame4hideEv:
.LFB1432:
	.loc 3 81 0
	.cfi_startproc
.LVL83:
	.loc 3 81 0
	blr
	.cfi_endproc
.LFE1432:
	.size	_ZN8GuiFrame4hideEv, .-_ZN8GuiFrame4hideEv
	.section	.text._ZN8GuiFrame4execEv,"axG",@progbits,_ZN8GuiFrame4execEv,comdat
	.align 2
	.weak	_ZN8GuiFrame4execEv
	.type	_ZN8GuiFrame4execEv, @function
_ZN8GuiFrame4execEv:
.LFB1433:
	.loc 3 83 0
	.cfi_startproc
.LVL84:
	.loc 3 83 0
	blr
	.cfi_endproc
.LFE1433:
	.size	_ZN8GuiFrame4execEv, .-_ZN8GuiFrame4execEv
	.section	.text._ZN8GuiFrame12updateEventsEv,"axG",@progbits,_ZN8GuiFrame12updateEventsEv,comdat
	.align 2
	.weak	_ZN8GuiFrame12updateEventsEv
	.type	_ZN8GuiFrame12updateEventsEv, @function
_ZN8GuiFrame12updateEventsEv:
.LFB1434:
	.loc 3 85 0
	.cfi_startproc
.LVL85:
	.loc 3 85 0
	blr
	.cfi_endproc
.LFE1434:
	.size	_ZN8GuiFrame12updateEventsEv, .-_ZN8GuiFrame12updateEventsEv
	.section	.text._ZN7sigslot12_signal_baseINS_15single_threadedEED2Ev,"axG",@progbits,_ZN7sigslot12_signal_baseINS_15single_threadedEED5Ev,comdat
	.align 2
	.weak	_ZN7sigslot12_signal_baseINS_15single_threadedEED2Ev
	.type	_ZN7sigslot12_signal_baseINS_15single_threadedEED2Ev, @function
_ZN7sigslot12_signal_baseINS_15single_threadedEED2Ev:
.LFB1801:
	.loc 1 466 0
	.cfi_startproc
.LVL86:
.LBB3378:
.LBB3379:
.LBB3380:
.LBB3381:
	.loc 1 105 0
	lis 9,_ZTVN7sigslot15single_threadedE+8@ha
.LBE3381:
.LBE3380:
.LBE3379:
.LBE3378:
	.loc 1 466 0
.LBB3385:
.LBB3384:
.LBB3383:
.LBB3382:
	.loc 1 105 0
	la 0,_ZTVN7sigslot15single_threadedE+8@l(9)
	stw 0,0(3)
.LBE3382:
.LBE3383:
.LBE3384:
.LBE3385:
	.loc 1 466 0
	blr
	.cfi_endproc
.LFE1801:
	.size	_ZN7sigslot12_signal_baseINS_15single_threadedEED2Ev, .-_ZN7sigslot12_signal_baseINS_15single_threadedEED2Ev
	.section	.text._ZN7sigslot17_connection_base3IP9GuiButtoniRK6_POINTNS_15single_threadedEED2Ev,"axG",@progbits,_ZN7sigslot17_connection_base3IP9GuiButtoniRK6_POINTNS_15single_threadedEED5Ev,comdat
	.align 2
	.weak	_ZN7sigslot17_connection_base3IP9GuiButtoniRK6_POINTNS_15single_threadedEED2Ev
	.type	_ZN7sigslot17_connection_base3IP9GuiButtoniRK6_POINTNS_15single_threadedEED2Ev, @function
_ZN7sigslot17_connection_base3IP9GuiButtoniRK6_POINTNS_15single_threadedEED2Ev:
.LFB2029:
	.loc 1 387 0
	.cfi_startproc
.LVL87:
.LBB3386:
	.loc 1 387 0
	lis 9,_ZTVN7sigslot17_connection_base3IP9GuiButtoniRK6_POINTNS_15single_threadedEEE+8@ha
.LBE3386:
.LBB3387:
	la 0,_ZTVN7sigslot17_connection_base3IP9GuiButtoniRK6_POINTNS_15single_threadedEEE+8@l(9)
	stw 0,0(3)
.LBE3387:
	blr
	.cfi_endproc
.LFE2029:
	.size	_ZN7sigslot17_connection_base3IP9GuiButtoniRK6_POINTNS_15single_threadedEED2Ev, .-_ZN7sigslot17_connection_base3IP9GuiButtoniRK6_POINTNS_15single_threadedEED2Ev
	.section	.text._ZN7sigslot17_connection_base1IiNS_15single_threadedEED2Ev,"axG",@progbits,_ZN7sigslot17_connection_base1IiNS_15single_threadedEED5Ev,comdat
	.align 2
	.weak	_ZN7sigslot17_connection_base1IiNS_15single_threadedEED2Ev
	.type	_ZN7sigslot17_connection_base1IiNS_15single_threadedEED2Ev, @function
_ZN7sigslot17_connection_base1IiNS_15single_threadedEED2Ev:
.LFB2036:
	.loc 1 365 0
	.cfi_startproc
.LVL88:
.LBB3388:
	.loc 1 365 0
	lis 9,_ZTVN7sigslot17_connection_base1IiNS_15single_threadedEEE+8@ha
.LBE3388:
.LBB3389:
	la 0,_ZTVN7sigslot17_connection_base1IiNS_15single_threadedEEE+8@l(9)
	stw 0,0(3)
.LBE3389:
	blr
	.cfi_endproc
.LFE2036:
	.size	_ZN7sigslot17_connection_base1IiNS_15single_threadedEED2Ev, .-_ZN7sigslot17_connection_base1IiNS_15single_threadedEED2Ev
	.section	.text._ZN7sigslot12_connection1I11PathBrowseriNS_15single_threadedEED2Ev,"axG",@progbits,_ZN7sigslot12_connection1I11PathBrowseriNS_15single_threadedEED5Ev,comdat
	.align 2
	.weak	_ZN7sigslot12_connection1I11PathBrowseriNS_15single_threadedEED2Ev
	.type	_ZN7sigslot12_connection1I11PathBrowseriNS_15single_threadedEED2Ev, @function
_ZN7sigslot12_connection1I11PathBrowseriNS_15single_threadedEED2Ev:
.LFB2433:
	.loc 1 1688 0
	.cfi_startproc
.LVL89:
.LBB3390:
.LBB3391:
.LBB3392:
.LBB3393:
	.loc 1 365 0
	lis 9,_ZTVN7sigslot17_connection_base1IiNS_15single_threadedEEE+8@ha
.LBE3393:
.LBE3392:
.LBE3391:
.LBE3390:
	.loc 1 1691 0
.LBB3397:
.LBB3396:
.LBB3395:
.LBB3394:
	.loc 1 365 0
	la 0,_ZTVN7sigslot17_connection_base1IiNS_15single_threadedEEE+8@l(9)
	stw 0,0(3)
.LBE3394:
.LBE3395:
.LBE3396:
.LBE3397:
	.loc 1 1691 0
	blr
	.cfi_endproc
.LFE2433:
	.size	_ZN7sigslot12_connection1I11PathBrowseriNS_15single_threadedEED2Ev, .-_ZN7sigslot12_connection1I11PathBrowseriNS_15single_threadedEED2Ev
	.section	.text._ZNK7sigslot12_connection1I11PathBrowseriNS_15single_threadedEE7getdestEv,"axG",@progbits,_ZNK7sigslot12_connection1I11PathBrowseriNS_15single_threadedEE7getdestEv,comdat
	.align 2
	.weak	_ZNK7sigslot12_connection1I11PathBrowseriNS_15single_threadedEE7getdestEv
	.type	_ZNK7sigslot12_connection1I11PathBrowseriNS_15single_threadedEE7getdestEv, @function
_ZNK7sigslot12_connection1I11PathBrowseriNS_15single_threadedEE7getdestEv:
.LFB2436:
	.loc 1 1708 0
	.cfi_startproc
.LVL90:
	.loc 1 1710 0
	lwz 9,4(3)
	li 3,0
.LVL91:
	cmpwi 7,9,0
	beqlr- 7
	.loc 1 1710 0 is_stmt 0 discriminator 1
	addi 3,9,176
	.loc 1 1711 0 is_stmt 1 discriminator 1
	blr
	.cfi_endproc
.LFE2436:
	.size	_ZNK7sigslot12_connection1I11PathBrowseriNS_15single_threadedEE7getdestEv, .-_ZNK7sigslot12_connection1I11PathBrowseriNS_15single_threadedEE7getdestEv
	.section	.text._ZN7sigslot12_connection1I11PathBrowseriNS_15single_threadedEE4emitEi,"axG",@progbits,_ZN7sigslot12_connection1I11PathBrowseriNS_15single_threadedEE4emitEi,comdat
	.align 2
	.weak	_ZN7sigslot12_connection1I11PathBrowseriNS_15single_threadedEE4emitEi
	.type	_ZN7sigslot12_connection1I11PathBrowseriNS_15single_threadedEE4emitEi, @function
_ZN7sigslot12_connection1I11PathBrowseriNS_15single_threadedEE4emitEi:
.LFB2437:
	.loc 1 1703 0
	.cfi_startproc
.LVL92:
	mflr 0
	stwu 1,-8(1)
.LCFI18:
	.cfi_def_cfa_offset 8
	.cfi_register 65, 0
	stw 0,12(1)
	.loc 1 1705 0
	lwz 0,8(3)
	.cfi_offset 65, 4
	lwz 11,4(3)
	andi. 9,0,1
	lwz 9,12(3)
	bne- 0,.L81
	mtctr 0
	add 3,11,9
.LVL93:
	bctrl
.LVL94:
	.loc 1 1706 0
	lwz 0,12(1)
	addi 1,1,8
	.cfi_remember_state
.LCFI19:
	.cfi_def_cfa_offset 0
	mtlr 0
	blr
.LVL95:
.L81:
.LCFI20:
	.cfi_restore_state
	.loc 1 1705 0 discriminator 1
	lwzx 10,11,9
	add 3,11,9
.LVL96:
	add 9,10,0
	lwz 0,-1(9)
	mtctr 0
	bctrl
.LVL97:
	.loc 1 1706 0 discriminator 1
	lwz 0,12(1)
	addi 1,1,8
.LCFI21:
	.cfi_def_cfa_offset 0
	mtlr 0
	blr
	.cfi_endproc
.LFE2437:
	.size	_ZN7sigslot12_connection1I11PathBrowseriNS_15single_threadedEE4emitEi, .-_ZN7sigslot12_connection1I11PathBrowseriNS_15single_threadedEE4emitEi
	.section	.text._ZN7sigslot12_connection3I11PathBrowserP9GuiButtoniRK6_POINTNS_15single_threadedEED2Ev,"axG",@progbits,_ZN7sigslot12_connection3I11PathBrowserP9GuiButtoniRK6_POINTNS_15single_threadedEED5Ev,comdat
	.align 2
	.weak	_ZN7sigslot12_connection3I11PathBrowserP9GuiButtoniRK6_POINTNS_15single_threadedEED2Ev
	.type	_ZN7sigslot12_connection3I11PathBrowserP9GuiButtoniRK6_POINTNS_15single_threadedEED2Ev, @function
_ZN7sigslot12_connection3I11PathBrowserP9GuiButtoniRK6_POINTNS_15single_threadedEED2Ev:
.LFB2447:
	.loc 1 1783 0
	.cfi_startproc
.LVL98:
.LBB3398:
.LBB3399:
.LBB3400:
.LBB3401:
	.loc 1 387 0
	lis 9,_ZTVN7sigslot17_connection_base3IP9GuiButtoniRK6_POINTNS_15single_threadedEEE+8@ha
.LBE3401:
.LBE3400:
.LBE3399:
.LBE3398:
	.loc 1 1786 0
.LBB3405:
.LBB3404:
.LBB3403:
.LBB3402:
	.loc 1 387 0
	la 0,_ZTVN7sigslot17_connection_base3IP9GuiButtoniRK6_POINTNS_15single_threadedEEE+8@l(9)
	stw 0,0(3)
.LBE3402:
.LBE3403:
.LBE3404:
.LBE3405:
	.loc 1 1786 0
	blr
	.cfi_endproc
.LFE2447:
	.size	_ZN7sigslot12_connection3I11PathBrowserP9GuiButtoniRK6_POINTNS_15single_threadedEED2Ev, .-_ZN7sigslot12_connection3I11PathBrowserP9GuiButtoniRK6_POINTNS_15single_threadedEED2Ev
	.section	.text._ZNK7sigslot12_connection3I11PathBrowserP9GuiButtoniRK6_POINTNS_15single_threadedEE7getdestEv,"axG",@progbits,_ZNK7sigslot12_connection3I11PathBrowserP9GuiButtoniRK6_POINTNS_15single_threadedEE7getdestEv,comdat
	.align 2
	.weak	_ZNK7sigslot12_connection3I11PathBrowserP9GuiButtoniRK6_POINTNS_15single_threadedEE7getdestEv
	.type	_ZNK7sigslot12_connection3I11PathBrowserP9GuiButtoniRK6_POINTNS_15single_threadedEE7getdestEv, @function
_ZNK7sigslot12_connection3I11PathBrowserP9GuiButtoniRK6_POINTNS_15single_threadedEE7getdestEv:
.LFB2450:
	.loc 1 1804 0
	.cfi_startproc
.LVL99:
	.loc 1 1806 0
	lwz 9,4(3)
	li 3,0
.LVL100:
	cmpwi 7,9,0
	beqlr- 7
	.loc 1 1806 0 is_stmt 0 discriminator 1
	addi 3,9,176
	.loc 1 1807 0 is_stmt 1 discriminator 1
	blr
	.cfi_endproc
.LFE2450:
	.size	_ZNK7sigslot12_connection3I11PathBrowserP9GuiButtoniRK6_POINTNS_15single_threadedEE7getdestEv, .-_ZNK7sigslot12_connection3I11PathBrowserP9GuiButtoniRK6_POINTNS_15single_threadedEE7getdestEv
	.section	.text._ZN7sigslot12_connection3I11PathBrowserP9GuiButtoniRK6_POINTNS_15single_threadedEE4emitES3_iS6_,"axG",@progbits,_ZN7sigslot12_connection3I11PathBrowserP9GuiButtoniRK6_POINTNS_15single_threadedEE4emitES3_iS6_,comdat
	.align 2
	.weak	_ZN7sigslot12_connection3I11PathBrowserP9GuiButtoniRK6_POINTNS_15single_threadedEE4emitES3_iS6_
	.type	_ZN7sigslot12_connection3I11PathBrowserP9GuiButtoniRK6_POINTNS_15single_threadedEE4emitES3_iS6_, @function
_ZN7sigslot12_connection3I11PathBrowserP9GuiButtoniRK6_POINTNS_15single_threadedEE4emitES3_iS6_:
.LFB2451:
	.loc 1 1799 0
	.cfi_startproc
.LVL101:
	mflr 0
	stwu 1,-8(1)
.LCFI22:
	.cfi_def_cfa_offset 8
	.cfi_register 65, 0
	stw 0,12(1)
	.loc 1 1801 0
	lwz 0,8(3)
	.cfi_offset 65, 4
	lwz 11,4(3)
	andi. 9,0,1
	lwz 9,12(3)
	bne- 0,.L90
	mtctr 0
	add 3,11,9
.LVL102:
	bctrl
.LVL103:
	.loc 1 1802 0
	lwz 0,12(1)
	addi 1,1,8
	.cfi_remember_state
.LCFI23:
	.cfi_def_cfa_offset 0
	mtlr 0
	blr
.LVL104:
.L90:
.LCFI24:
	.cfi_restore_state
	.loc 1 1801 0 discriminator 1
	lwzx 10,11,9
	add 3,11,9
.LVL105:
	add 9,10,0
	lwz 0,-1(9)
	mtctr 0
	bctrl
.LVL106:
	.loc 1 1802 0 discriminator 1
	lwz 0,12(1)
	addi 1,1,8
.LCFI25:
	.cfi_def_cfa_offset 0
	mtlr 0
	blr
	.cfi_endproc
.LFE2451:
	.size	_ZN7sigslot12_connection3I11PathBrowserP9GuiButtoniRK6_POINTNS_15single_threadedEE4emitES3_iS6_, .-_ZN7sigslot12_connection3I11PathBrowserP9GuiButtoniRK6_POINTNS_15single_threadedEE4emitES3_iS6_
	.section	.text._ZN7sigslot12_connection3I11PathBrowserP9GuiButtoniRK6_POINTNS_15single_threadedEE9duplicateEPNS_9has_slotsIS7_EE,"axG",@progbits,_ZN7sigslot12_connection3I11PathBrowserP9GuiButtoniRK6_POINTNS_15single_threadedEE9duplicateEPNS_9has_slotsIS7_EE,comdat
	.align 2
	.weak	_ZN7sigslot12_connection3I11PathBrowserP9GuiButtoniRK6_POINTNS_15single_threadedEE9duplicateEPNS_9has_slotsIS7_EE
	.type	_ZN7sigslot12_connection3I11PathBrowserP9GuiButtoniRK6_POINTNS_15single_threadedEE9duplicateEPNS_9has_slotsIS7_EE, @function
_ZN7sigslot12_connection3I11PathBrowserP9GuiButtoniRK6_POINTNS_15single_threadedEE9duplicateEPNS_9has_slotsIS7_EE:
.LFB2459:
	.loc 1 1794 0
	.cfi_startproc
.LVL107:
	stwu 1,-16(1)
.LCFI26:
	.cfi_def_cfa_offset 16
	mflr 0
	stw 30,8(1)
	mr 30,4
	.cfi_offset 30, -8
	.cfi_register 65, 0
	stw 31,12(1)
	mr 31,3
	.cfi_offset 31, -4
	.loc 1 1796 0
	li 3,16
.LVL108:
	.loc 1 1794 0
	stw 0,20(1)
	.loc 1 1796 0
	.cfi_offset 65, 4
	bl _Znwj
.LVL109:
	cmpwi 7,30,0
	li 0,0
	beq- 7,.L93
	.loc 1 1796 0 is_stmt 0 discriminator 1
	addi 0,30,-176
.L93:
.LVL110:
	.loc 1 1796 0 discriminator 3
	lwz 11,8(31)
.LVL111:
.LBB3406:
.LBB3407:
	.loc 1 1778 0 is_stmt 1 discriminator 3
	lis 10,_ZTVN7sigslot12_connection3I11PathBrowserP9GuiButtoniRK6_POINTNS_15single_threadedEEE+8@ha
.LBE3407:
.LBE3406:
	.loc 1 1796 0 discriminator 3
	lwz 9,12(31)
.LVL112:
.LBB3410:
.LBB3408:
	.loc 1 1778 0 discriminator 3
	la 10,_ZTVN7sigslot12_connection3I11PathBrowserP9GuiButtoniRK6_POINTNS_15single_threadedEEE+8@l(10)
	.loc 1 1780 0 discriminator 3
	stw 11,8(3)
	stw 9,12(3)
	.loc 1 1779 0 discriminator 3
	stw 0,4(3)
.LBE3408:
.LBE3410:
	.loc 1 1797 0 discriminator 3
	lwz 0,20(1)
.LVL113:
	lwz 30,8(1)
.LVL114:
	mtlr 0
	lwz 31,12(1)
.LVL115:
.LBB3411:
.LBB3409:
	.loc 1 1778 0 discriminator 3
	stw 10,0(3)
.LBE3409:
.LBE3411:
	.loc 1 1797 0 discriminator 3
	addi 1,1,16
.LCFI27:
	.cfi_def_cfa_offset 0
	.cfi_restore 31
	.cfi_restore 30
	blr
	.cfi_endproc
.LFE2459:
	.size	_ZN7sigslot12_connection3I11PathBrowserP9GuiButtoniRK6_POINTNS_15single_threadedEE9duplicateEPNS_9has_slotsIS7_EE, .-_ZN7sigslot12_connection3I11PathBrowserP9GuiButtoniRK6_POINTNS_15single_threadedEE9duplicateEPNS_9has_slotsIS7_EE
	.section	.text._ZN7sigslot12_connection1I11PathBrowseriNS_15single_threadedEE9duplicateEPNS_9has_slotsIS2_EE,"axG",@progbits,_ZN7sigslot12_connection1I11PathBrowseriNS_15single_threadedEE9duplicateEPNS_9has_slotsIS2_EE,comdat
	.align 2
	.weak	_ZN7sigslot12_connection1I11PathBrowseriNS_15single_threadedEE9duplicateEPNS_9has_slotsIS2_EE
	.type	_ZN7sigslot12_connection1I11PathBrowseriNS_15single_threadedEE9duplicateEPNS_9has_slotsIS2_EE, @function
_ZN7sigslot12_connection1I11PathBrowseriNS_15single_threadedEE9duplicateEPNS_9has_slotsIS2_EE:
.LFB2445:
	.loc 1 1698 0
	.cfi_startproc
.LVL116:
	stwu 1,-16(1)
.LCFI28:
	.cfi_def_cfa_offset 16
	mflr 0
	stw 30,8(1)
	mr 30,4
	.cfi_offset 30, -8
	.cfi_register 65, 0
	stw 31,12(1)
	mr 31,3
	.cfi_offset 31, -4
	.loc 1 1700 0
	li 3,16
.LVL117:
	.loc 1 1698 0
	stw 0,20(1)
	.loc 1 1700 0
	.cfi_offset 65, 4
	bl _Znwj
.LVL118:
	cmpwi 7,30,0
	li 0,0
	beq- 7,.L96
	.loc 1 1700 0 is_stmt 0 discriminator 1
	addi 0,30,-176
.L96:
.LVL119:
	.loc 1 1700 0 discriminator 3
	lwz 11,8(31)
.LVL120:
.LBB3412:
.LBB3413:
	.loc 1 1683 0 is_stmt 1 discriminator 3
	lis 10,_ZTVN7sigslot12_connection1I11PathBrowseriNS_15single_threadedEEE+8@ha
.LBE3413:
.LBE3412:
	.loc 1 1700 0 discriminator 3
	lwz 9,12(31)
.LVL121:
.LBB3416:
.LBB3414:
	.loc 1 1683 0 discriminator 3
	la 10,_ZTVN7sigslot12_connection1I11PathBrowseriNS_15single_threadedEEE+8@l(10)
	.loc 1 1685 0 discriminator 3
	stw 11,8(3)
	stw 9,12(3)
	.loc 1 1684 0 discriminator 3
	stw 0,4(3)
.LBE3414:
.LBE3416:
	.loc 1 1701 0 discriminator 3
	lwz 0,20(1)
.LVL122:
	lwz 30,8(1)
.LVL123:
	mtlr 0
	lwz 31,12(1)
.LVL124:
.LBB3417:
.LBB3415:
	.loc 1 1683 0 discriminator 3
	stw 10,0(3)
.LBE3415:
.LBE3417:
	.loc 1 1701 0 discriminator 3
	addi 1,1,16
.LCFI29:
	.cfi_def_cfa_offset 0
	.cfi_restore 31
	.cfi_restore 30
	blr
	.cfi_endproc
.LFE2445:
	.size	_ZN7sigslot12_connection1I11PathBrowseriNS_15single_threadedEE9duplicateEPNS_9has_slotsIS2_EE, .-_ZN7sigslot12_connection1I11PathBrowseriNS_15single_threadedEE9duplicateEPNS_9has_slotsIS2_EE
	.section	.text._ZN7sigslot12_connection1I11PathBrowseriNS_15single_threadedEE5cloneEv,"axG",@progbits,_ZN7sigslot12_connection1I11PathBrowseriNS_15single_threadedEE5cloneEv,comdat
	.align 2
	.weak	_ZN7sigslot12_connection1I11PathBrowseriNS_15single_threadedEE5cloneEv
	.type	_ZN7sigslot12_connection1I11PathBrowseriNS_15single_threadedEE5cloneEv, @function
_ZN7sigslot12_connection1I11PathBrowseriNS_15single_threadedEE5cloneEv:
.LFB2438:
	.loc 1 1693 0
	.cfi_startproc
.LVL125:
	stwu 1,-16(1)
.LCFI30:
	.cfi_def_cfa_offset 16
	mflr 0
	stw 31,12(1)
	mr 31,3
	.cfi_offset 31, -4
	.cfi_register 65, 0
	.loc 1 1695 0
	li 3,16
.LVL126:
	.loc 1 1693 0
	stw 0,20(1)
	.loc 1 1695 0
	.cfi_offset 65, 4
	bl _Znwj
	.file 4 "d:/Projects/SaveGameManager/savegame-manager-gx/trunk/source/Prompts/PathBrowser.cpp"
	.loc 4 285 0
	lwz 0,4(31)
.LVL127:
.LBB3418:
.LBB3419:
	.loc 1 1673 0
	lis 11,_ZTVN7sigslot12_connection1I11PathBrowseriNS_15single_threadedEEE+8@ha
	la 11,_ZTVN7sigslot12_connection1I11PathBrowseriNS_15single_threadedEEE+8@l(11)
	stw 0,4(3)
	stw 11,0(3)
	lwz 10,8(31)
	lwz 11,12(31)
	stw 10,8(3)
	stw 11,12(3)
.LBE3419:
.LBE3418:
	.loc 1 1696 0
	lwz 0,20(1)
	lwz 31,12(1)
.LVL128:
	mtlr 0
	addi 1,1,16
.LCFI31:
	.cfi_def_cfa_offset 0
	.cfi_restore 31
	blr
	.cfi_endproc
.LFE2438:
	.size	_ZN7sigslot12_connection1I11PathBrowseriNS_15single_threadedEE5cloneEv, .-_ZN7sigslot12_connection1I11PathBrowseriNS_15single_threadedEE5cloneEv
	.section	.text._ZN7sigslot12_connection3I11PathBrowserP9GuiButtoniRK6_POINTNS_15single_threadedEE5cloneEv,"axG",@progbits,_ZN7sigslot12_connection3I11PathBrowserP9GuiButtoniRK6_POINTNS_15single_threadedEE5cloneEv,comdat
	.align 2
	.weak	_ZN7sigslot12_connection3I11PathBrowserP9GuiButtoniRK6_POINTNS_15single_threadedEE5cloneEv
	.type	_ZN7sigslot12_connection3I11PathBrowserP9GuiButtoniRK6_POINTNS_15single_threadedEE5cloneEv, @function
_ZN7sigslot12_connection3I11PathBrowserP9GuiButtoniRK6_POINTNS_15single_threadedEE5cloneEv:
.LFB2452:
	.loc 1 1789 0
	.cfi_startproc
.LVL129:
	stwu 1,-16(1)
.LCFI32:
	.cfi_def_cfa_offset 16
	mflr 0
	stw 31,12(1)
	mr 31,3
	.cfi_offset 31, -4
	.cfi_register 65, 0
	.loc 1 1791 0
	li 3,16
.LVL130:
	.loc 1 1789 0
	stw 0,20(1)
	.loc 1 1791 0
	.cfi_offset 65, 4
	bl _Znwj
	.loc 4 285 0
	lwz 0,4(31)
.LVL131:
.LBB3420:
.LBB3421:
	.loc 1 1767 0
	lis 11,_ZTVN7sigslot12_connection3I11PathBrowserP9GuiButtoniRK6_POINTNS_15single_threadedEEE+8@ha
	la 11,_ZTVN7sigslot12_connection3I11PathBrowserP9GuiButtoniRK6_POINTNS_15single_threadedEEE+8@l(11)
	stw 0,4(3)
	stw 11,0(3)
	lwz 10,8(31)
	lwz 11,12(31)
	stw 10,8(3)
	stw 11,12(3)
.LBE3421:
.LBE3420:
	.loc 1 1792 0
	lwz 0,20(1)
	lwz 31,12(1)
.LVL132:
	mtlr 0
	addi 1,1,16
.LCFI33:
	.cfi_def_cfa_offset 0
	.cfi_restore 31
	blr
	.cfi_endproc
.LFE2452:
	.size	_ZN7sigslot12_connection3I11PathBrowserP9GuiButtoniRK6_POINTNS_15single_threadedEE5cloneEv, .-_ZN7sigslot12_connection3I11PathBrowserP9GuiButtoniRK6_POINTNS_15single_threadedEE5cloneEv
	.section	.text._ZN7sigslot13_signal_base4IP11PathBrowserhbRKSsNS_15single_threadedEE14slot_duplicateEPKNS_9has_slotsIS5_EEPS8_,"axG",@progbits,_ZN7sigslot13_signal_base4IP11PathBrowserhbRKSsNS_15single_threadedEE14slot_duplicateEPKNS_9has_slotsIS5_EEPS8_,comdat
	.align 2
	.weak	_ZN7sigslot13_signal_base4IP11PathBrowserhbRKSsNS_15single_threadedEE14slot_duplicateEPKNS_9has_slotsIS5_EEPS8_
	.type	_ZN7sigslot13_signal_base4IP11PathBrowserhbRKSsNS_15single_threadedEE14slot_duplicateEPKNS_9has_slotsIS5_EEPS8_, @function
_ZN7sigslot13_signal_base4IP11PathBrowserhbRKSsNS_15single_threadedEE14slot_duplicateEPKNS_9has_slotsIS5_EEPS8_:
.LFB2461:
	.loc 1 1046 0
	.cfi_startproc
	.cfi_personality 0,__gxx_personality_v0
	.cfi_lsda 0,.LLSDA2461
.LVL133:
	mflr 0
	stwu 1,-32(1)
.LCFI34:
	.cfi_def_cfa_offset 32
	.cfi_register 65, 0
	stw 26,8(1)
	mr 26,5
	.cfi_offset 26, -24
	stw 0,36(1)
	stw 27,12(1)
	mr 27,3
	.cfi_offset 27, -20
	.cfi_offset 65, 4
.LVL134:
.LBB3422:
.LBB3423:
.LBB3424:
	.loc 1 338 0
	lwz 9,0(3)
.LBE3424:
.LBE3423:
.LBE3422:
	.loc 1 1046 0
	stw 29,20(1)
	mr 29,4
	.cfi_offset 29, -12
.LBB3453:
.LBB3429:
.LBB3425:
	.loc 1 338 0
	lwz 0,8(9)
.LBE3425:
.LBE3429:
.LBE3453:
	.loc 1 1046 0
	stw 30,24(1)
.LBB3454:
.LBB3430:
.LBB3426:
	.loc 4 285 0
	mr 30,27
	.cfi_offset 30, -8
.LBE3426:
.LBE3430:
.LBE3454:
	.loc 1 1046 0
	stw 31,28(1)
.LBB3455:
.LBB3431:
.LBB3427:
	.loc 1 338 0
	mtctr 0
.LBE3427:
.LBE3431:
.LBE3455:
	.loc 1 1046 0
	stw 28,16(1)
.LEHB0:
.LBB3456:
.LBB3432:
.LBB3428:
	.loc 1 338 0
	.cfi_offset 28, -16
	.cfi_offset 31, -4
	bctrl
.LEHE0:
.LVL135:
	.loc 4 285 0
	lwzu 31,4(30)
.LVL136:
.LBE3428:
.LBE3432:
	.loc 1 1052 0
	cmpw 7,31,30
	bne+ 7,.L110
	b .L101
.LVL137:
.L102:
.LBB3433:
.LBB3434:
	.file 5 "d:\\devkitpro\\devkitppc\\bin\\../lib/gcc/powerpc-eabi/4.6.3/../../../../powerpc-eabi/include/c++/4.6.3/bits/stl_list.h"
	.loc 5 154 0
	lwz 31,0(31)
.LVL138:
.LBE3434:
.LBE3433:
	.loc 1 1052 0
	cmpw 7,30,31
	beq- 7,.L101
.LVL139:
.L110:
	.loc 1 1054 0
	lwz 3,8(31)
	lwz 9,0(3)
	lwz 0,8(9)
	mtctr 0
.LEHB1:
	bctrl
	cmpw 7,29,3
	bne+ 7,.L102
.LVL140:
	.loc 1 1056 0
	lwz 3,8(31)
	mr 4,26
	lwz 9,0(3)
	lwz 0,20(9)
	mtctr 0
	bctrl
	mr 28,3
.LVL141:
.LBB3436:
.LBB3437:
.LBB3438:
.LBB3439:
.LBB3440:
.LBB3441:
.LBB3442:
.LBB3443:
	.file 6 "d:\\devkitpro\\devkitppc\\bin\\../lib/gcc/powerpc-eabi/4.6.3/../../../../powerpc-eabi/include/c++/4.6.3/ext/new_allocator.h"
	.loc 6 92 0
	li 3,12
	bl _Znwj
.LEHE1:
.LVL142:
.LBE3443:
.LBE3442:
.LBE3441:
.LBB3444:
.LBB3445:
	.loc 6 108 0 discriminator 1
	cmpwi 7,3,-8
	beq- 7,.L104
	.loc 6 108 0 is_stmt 0
	stw 28,8(3)
.L104:
.LVL143:
.LBE3445:
.LBE3444:
.LBE3440:
.LBE3439:
	.loc 5 1516 0 is_stmt 1
	mr 4,30
	bl _ZNSt8__detail15_List_node_base7_M_hookEPS0_
.LVL144:
.LBE3438:
.LBE3437:
.LBE3436:
.LBB3446:
.LBB3435:
	.loc 5 154 0
	lwz 31,0(31)
.LVL145:
.LBE3435:
.LBE3446:
	.loc 1 1052 0
	cmpw 7,30,31
	bne+ 7,.L110
.LVL146:
.L101:
.LBB3447:
.LBB3448:
.LBB3449:
	.loc 1 343 0
	lwz 9,0(27)
	mr 3,27
	lwz 0,12(9)
	mtctr 0
.LEHB2:
	bctrl
.LEHE2:
.LBE3449:
.LBE3448:
.LBE3447:
.LBE3456:
	.loc 1 1061 0
	lwz 0,36(1)
	lwz 26,8(1)
.LVL147:
	mtlr 0
	lwz 27,12(1)
.LVL148:
	lwz 28,16(1)
	lwz 29,20(1)
.LVL149:
	lwz 30,24(1)
.LVL150:
	lwz 31,28(1)
.LVL151:
	addi 1,1,32
	.cfi_remember_state
.LCFI35:
	.cfi_def_cfa_offset 0
	.cfi_restore 31
	.cfi_restore 30
	.cfi_restore 29
	.cfi_restore 28
	.cfi_restore 27
	.cfi_restore 26
	blr
.LVL152:
.L109:
.LCFI36:
	.cfi_restore_state
.LBB3457:
.LBB3450:
.LBB3451:
.LBB3452:
	.loc 1 343 0
	lwz 9,0(27)
	mr 31,3
.LVL153:
	mr 3,27
	lwz 0,12(9)
	mtctr 0
	bctrl
	mr 3,31
.LEHB3:
	bl _Unwind_Resume
.LEHE3:
.LBE3452:
.LBE3451:
.LBE3450:
.LBE3457:
	.cfi_endproc
.LFE2461:
	.globl __gxx_personality_v0
	.section	.gcc_except_table,"a",@progbits
.LLSDA2461:
	.byte	0xff
	.byte	0xff
	.byte	0x1
	.uleb128 .LLSDACSE2461-.LLSDACSB2461
.LLSDACSB2461:
	.uleb128 .LEHB0-.LFB2461
	.uleb128 .LEHE0-.LEHB0
	.uleb128 0
	.uleb128 0
	.uleb128 .LEHB1-.LFB2461
	.uleb128 .LEHE1-.LEHB1
	.uleb128 .L109-.LFB2461
	.uleb128 0
	.uleb128 .LEHB2-.LFB2461
	.uleb128 .LEHE2-.LEHB2
	.uleb128 0
	.uleb128 0
	.uleb128 .LEHB3-.LFB2461
	.uleb128 .LEHE3-.LEHB3
	.uleb128 0
	.uleb128 0
.LLSDACSE2461:
	.section	.text._ZN7sigslot13_signal_base4IP11PathBrowserhbRKSsNS_15single_threadedEE14slot_duplicateEPKNS_9has_slotsIS5_EEPS8_,"axG",@progbits,_ZN7sigslot13_signal_base4IP11PathBrowserhbRKSsNS_15single_threadedEE14slot_duplicateEPKNS_9has_slotsIS5_EEPS8_,comdat
	.size	_ZN7sigslot13_signal_base4IP11PathBrowserhbRKSsNS_15single_threadedEE14slot_duplicateEPKNS_9has_slotsIS5_EEPS8_, .-_ZN7sigslot13_signal_base4IP11PathBrowserhbRKSsNS_15single_threadedEE14slot_duplicateEPKNS_9has_slotsIS5_EEPS8_
	.section	.text._ZN7sigslot12_connection3I11PathBrowserP9GuiButtoniRK6_POINTNS_15single_threadedEED0Ev,"axG",@progbits,_ZN7sigslot12_connection3I11PathBrowserP9GuiButtoniRK6_POINTNS_15single_threadedEED5Ev,comdat
	.align 2
	.weak	_ZN7sigslot12_connection3I11PathBrowserP9GuiButtoniRK6_POINTNS_15single_threadedEED0Ev
	.type	_ZN7sigslot12_connection3I11PathBrowserP9GuiButtoniRK6_POINTNS_15single_threadedEED0Ev, @function
_ZN7sigslot12_connection3I11PathBrowserP9GuiButtoniRK6_POINTNS_15single_threadedEED0Ev:
.LFB2449:
	.loc 1 1783 0
	.cfi_startproc
.LVL154:
	mflr 0
	stwu 1,-8(1)
.LCFI37:
	.cfi_def_cfa_offset 8
	.cfi_register 65, 0
.LBB3458:
.LBB3459:
.LBB3460:
.LBB3461:
.LBB3462:
.LBB3463:
	.loc 1 387 0
	lis 9,_ZTVN7sigslot17_connection_base3IP9GuiButtoniRK6_POINTNS_15single_threadedEEE+8@ha
.LBE3463:
.LBE3462:
.LBE3461:
.LBE3460:
.LBE3459:
.LBE3458:
	.loc 1 1783 0
	stw 0,12(1)
.LBB3469:
.LBB3468:
.LBB3467:
.LBB3466:
.LBB3465:
.LBB3464:
	.loc 1 387 0
	la 0,_ZTVN7sigslot17_connection_base3IP9GuiButtoniRK6_POINTNS_15single_threadedEEE+8@l(9)
	.cfi_offset 65, 4
	stw 0,0(3)
.LBE3464:
.LBE3465:
.LBE3466:
.LBE3467:
.LBE3468:
.LBE3469:
	.loc 1 1786 0
	bl _ZdlPv
.LVL155:
	lwz 0,12(1)
	addi 1,1,8
.LCFI38:
	.cfi_def_cfa_offset 0
	mtlr 0
	blr
	.cfi_endproc
.LFE2449:
	.size	_ZN7sigslot12_connection3I11PathBrowserP9GuiButtoniRK6_POINTNS_15single_threadedEED0Ev, .-_ZN7sigslot12_connection3I11PathBrowserP9GuiButtoniRK6_POINTNS_15single_threadedEED0Ev
	.section	.text._ZN7sigslot12_connection1I11PathBrowseriNS_15single_threadedEED0Ev,"axG",@progbits,_ZN7sigslot12_connection1I11PathBrowseriNS_15single_threadedEED5Ev,comdat
	.align 2
	.weak	_ZN7sigslot12_connection1I11PathBrowseriNS_15single_threadedEED0Ev
	.type	_ZN7sigslot12_connection1I11PathBrowseriNS_15single_threadedEED0Ev, @function
_ZN7sigslot12_connection1I11PathBrowseriNS_15single_threadedEED0Ev:
.LFB2435:
	.loc 1 1688 0
	.cfi_startproc
.LVL156:
	mflr 0
	stwu 1,-8(1)
.LCFI39:
	.cfi_def_cfa_offset 8
	.cfi_register 65, 0
.LBB3470:
.LBB3471:
.LBB3472:
.LBB3473:
.LBB3474:
.LBB3475:
	.loc 1 365 0
	lis 9,_ZTVN7sigslot17_connection_base1IiNS_15single_threadedEEE+8@ha
.LBE3475:
.LBE3474:
.LBE3473:
.LBE3472:
.LBE3471:
.LBE3470:
	.loc 1 1688 0
	stw 0,12(1)
.LBB3481:
.LBB3480:
.LBB3479:
.LBB3478:
.LBB3477:
.LBB3476:
	.loc 1 365 0
	la 0,_ZTVN7sigslot17_connection_base1IiNS_15single_threadedEEE+8@l(9)
	.cfi_offset 65, 4
	stw 0,0(3)
.LBE3476:
.LBE3477:
.LBE3478:
.LBE3479:
.LBE3480:
.LBE3481:
	.loc 1 1691 0
	bl _ZdlPv
.LVL157:
	lwz 0,12(1)
	addi 1,1,8
.LCFI40:
	.cfi_def_cfa_offset 0
	mtlr 0
	blr
	.cfi_endproc
.LFE2435:
	.size	_ZN7sigslot12_connection1I11PathBrowseriNS_15single_threadedEED0Ev, .-_ZN7sigslot12_connection1I11PathBrowseriNS_15single_threadedEED0Ev
	.section	.text._ZN7sigslot17_connection_base1IiNS_15single_threadedEED0Ev,"axG",@progbits,_ZN7sigslot17_connection_base1IiNS_15single_threadedEED5Ev,comdat
	.align 2
	.weak	_ZN7sigslot17_connection_base1IiNS_15single_threadedEED0Ev
	.type	_ZN7sigslot17_connection_base1IiNS_15single_threadedEED0Ev, @function
_ZN7sigslot17_connection_base1IiNS_15single_threadedEED0Ev:
.LFB2038:
	.loc 1 365 0
	.cfi_startproc
.LVL158:
	mflr 0
	stwu 1,-8(1)
.LCFI41:
	.cfi_def_cfa_offset 8
	.cfi_register 65, 0
.LBB3482:
.LBB3483:
.LBB3484:
	lis 9,_ZTVN7sigslot17_connection_base1IiNS_15single_threadedEEE+8@ha
.LBE3484:
.LBE3483:
.LBE3482:
	stw 0,12(1)
.LBB3487:
.LBB3486:
.LBB3485:
	.loc 1 365 0
	la 0,_ZTVN7sigslot17_connection_base1IiNS_15single_threadedEEE+8@l(9)
	.cfi_offset 65, 4
	stw 0,0(3)
.LBE3485:
.LBE3486:
.LBE3487:
	bl _ZdlPv
.LVL159:
	lwz 0,12(1)
	addi 1,1,8
.LCFI42:
	.cfi_def_cfa_offset 0
	mtlr 0
	blr
	.cfi_endproc
.LFE2038:
	.size	_ZN7sigslot17_connection_base1IiNS_15single_threadedEED0Ev, .-_ZN7sigslot17_connection_base1IiNS_15single_threadedEED0Ev
	.section	.text._ZN7sigslot17_connection_base3IP9GuiButtoniRK6_POINTNS_15single_threadedEED0Ev,"axG",@progbits,_ZN7sigslot17_connection_base3IP9GuiButtoniRK6_POINTNS_15single_threadedEED5Ev,comdat
	.align 2
	.weak	_ZN7sigslot17_connection_base3IP9GuiButtoniRK6_POINTNS_15single_threadedEED0Ev
	.type	_ZN7sigslot17_connection_base3IP9GuiButtoniRK6_POINTNS_15single_threadedEED0Ev, @function
_ZN7sigslot17_connection_base3IP9GuiButtoniRK6_POINTNS_15single_threadedEED0Ev:
.LFB2031:
	.loc 1 387 0
	.cfi_startproc
.LVL160:
	mflr 0
	stwu 1,-8(1)
.LCFI43:
	.cfi_def_cfa_offset 8
	.cfi_register 65, 0
.LBB3488:
.LBB3489:
.LBB3490:
	lis 9,_ZTVN7sigslot17_connection_base3IP9GuiButtoniRK6_POINTNS_15single_threadedEEE+8@ha
.LBE3490:
.LBE3489:
.LBE3488:
	stw 0,12(1)
.LBB3493:
.LBB3492:
.LBB3491:
	.loc 1 387 0
	la 0,_ZTVN7sigslot17_connection_base3IP9GuiButtoniRK6_POINTNS_15single_threadedEEE+8@l(9)
	.cfi_offset 65, 4
	stw 0,0(3)
.LBE3491:
.LBE3492:
.LBE3493:
	bl _ZdlPv
.LVL161:
	lwz 0,12(1)
	addi 1,1,8
.LCFI44:
	.cfi_def_cfa_offset 0
	mtlr 0
	blr
	.cfi_endproc
.LFE2031:
	.size	_ZN7sigslot17_connection_base3IP9GuiButtoniRK6_POINTNS_15single_threadedEED0Ev, .-_ZN7sigslot17_connection_base3IP9GuiButtoniRK6_POINTNS_15single_threadedEED0Ev
	.section	.text._ZN7sigslot12_signal_baseINS_15single_threadedEED0Ev,"axG",@progbits,_ZN7sigslot12_signal_baseINS_15single_threadedEED5Ev,comdat
	.align 2
	.weak	_ZN7sigslot12_signal_baseINS_15single_threadedEED0Ev
	.type	_ZN7sigslot12_signal_baseINS_15single_threadedEED0Ev, @function
_ZN7sigslot12_signal_baseINS_15single_threadedEED0Ev:
.LFB1803:
	.loc 1 466 0
	.cfi_startproc
.LVL162:
	mflr 0
	stwu 1,-8(1)
.LCFI45:
	.cfi_def_cfa_offset 8
	.cfi_register 65, 0
.LBB3494:
.LBB3495:
.LBB3496:
.LBB3497:
.LBB3498:
.LBB3499:
	.loc 1 105 0
	lis 9,_ZTVN7sigslot15single_threadedE+8@ha
.LBE3499:
.LBE3498:
.LBE3497:
.LBE3496:
.LBE3495:
.LBE3494:
	.loc 1 466 0
	stw 0,12(1)
.LBB3505:
.LBB3504:
.LBB3503:
.LBB3502:
.LBB3501:
.LBB3500:
	.loc 1 105 0
	la 0,_ZTVN7sigslot15single_threadedE+8@l(9)
	.cfi_offset 65, 4
	stw 0,0(3)
.LBE3500:
.LBE3501:
.LBE3502:
.LBE3503:
.LBE3504:
.LBE3505:
	.loc 1 466 0
	bl _ZdlPv
.LVL163:
	lwz 0,12(1)
	addi 1,1,8
.LCFI46:
	.cfi_def_cfa_offset 0
	mtlr 0
	blr
	.cfi_endproc
.LFE1803:
	.size	_ZN7sigslot12_signal_baseINS_15single_threadedEED0Ev, .-_ZN7sigslot12_signal_baseINS_15single_threadedEED0Ev
	.section	.text._ZN7sigslot15single_threadedD0Ev,"axG",@progbits,_ZN7sigslot15single_threadedD5Ev,comdat
	.align 2
	.weak	_ZN7sigslot15single_threadedD0Ev
	.type	_ZN7sigslot15single_threadedD0Ev, @function
_ZN7sigslot15single_threadedD0Ev:
.LFB1150:
	.loc 1 104 0
	.cfi_startproc
.LVL164:
	mflr 0
	stwu 1,-8(1)
.LCFI47:
	.cfi_def_cfa_offset 8
	.cfi_register 65, 0
.LBB3506:
.LBB3507:
.LBB3508:
	.loc 1 105 0
	lis 9,_ZTVN7sigslot15single_threadedE+8@ha
.LBE3508:
.LBE3507:
.LBE3506:
	.loc 1 104 0
	stw 0,12(1)
.LBB3511:
.LBB3510:
.LBB3509:
	.loc 1 105 0
	la 0,_ZTVN7sigslot15single_threadedE+8@l(9)
	.cfi_offset 65, 4
	stw 0,0(3)
.LBE3509:
.LBE3510:
.LBE3511:
	.loc 1 107 0
	bl _ZdlPv
.LVL165:
	lwz 0,12(1)
	addi 1,1,8
.LCFI48:
	.cfi_def_cfa_offset 0
	mtlr 0
	blr
	.cfi_endproc
.LFE1150:
	.size	_ZN7sigslot15single_threadedD0Ev, .-_ZN7sigslot15single_threadedD0Ev
	.section	.text._ZN7sigslot13_signal_base4IP11PathBrowserhbRKSsNS_15single_threadedEE15slot_disconnectEPNS_9has_slotsIS5_EE,"axG",@progbits,_ZN7sigslot13_signal_base4IP11PathBrowserhbRKSsNS_15single_threadedEE15slot_disconnectEPNS_9has_slotsIS5_EE,comdat
	.align 2
	.weak	_ZN7sigslot13_signal_base4IP11PathBrowserhbRKSsNS_15single_threadedEE15slot_disconnectEPNS_9has_slotsIS5_EE
	.type	_ZN7sigslot13_signal_base4IP11PathBrowserhbRKSsNS_15single_threadedEE15slot_disconnectEPNS_9has_slotsIS5_EE, @function
_ZN7sigslot13_signal_base4IP11PathBrowserhbRKSsNS_15single_threadedEE15slot_disconnectEPNS_9has_slotsIS5_EE:
.LFB2460:
	.loc 1 1110 0
	.cfi_startproc
	.cfi_personality 0,__gxx_personality_v0
	.cfi_lsda 0,.LLSDA2460
.LVL166:
	mflr 0
	stwu 1,-32(1)
.LCFI49:
	.cfi_def_cfa_offset 32
	.cfi_register 65, 0
	stw 27,12(1)
	mr 27,3
	.cfi_offset 27, -20
.LVL167:
	stw 0,36(1)
	stw 28,16(1)
	mr 28,4
	.cfi_offset 28, -16
	.cfi_offset 65, 4
.LBB3512:
.LBB3513:
.LBB3514:
	.loc 1 338 0
	lwz 9,0(3)
.LBE3514:
.LBE3513:
.LBE3512:
	.loc 1 1110 0
	stw 29,20(1)
.LBB3535:
.LBB3517:
.LBB3515:
	.loc 4 285 0
	mr 29,27
	.cfi_offset 29, -12
	.loc 1 338 0
	lwz 0,8(9)
.LBE3515:
.LBE3517:
.LBE3535:
	.loc 1 1110 0
	stw 31,28(1)
	stw 30,24(1)
.LBB3536:
.LBB3518:
.LBB3516:
	.loc 1 338 0
	mtctr 0
.LEHB4:
	.cfi_offset 30, -8
	.cfi_offset 31, -4
	bctrl
.LEHE4:
.LVL168:
	.loc 4 285 0
	lwzu 31,4(29)
.LVL169:
.LBE3516:
.LBE3518:
	.loc 1 1116 0
	cmpw 7,31,29
	bne+ 7,.L145
	b .L134
.LVL170:
.L135:
	.loc 1 1116 0 is_stmt 0 discriminator 1
	cmpw 7,29,30
	beq- 7,.L134
.L143:
	.loc 1 1116 0
	mr 31,30
.LVL171:
.L145:
.LBB3519:
	.loc 1 1121 0 is_stmt 1
	lwz 3,8(31)
.LBB3520:
.LBB3521:
	.loc 5 154 0
	lwz 30,0(31)
.LVL172:
.LBE3521:
.LBE3520:
	.loc 1 1121 0
	lwz 9,0(3)
	lwz 0,8(9)
	mtctr 0
.LEHB5:
	bctrl
.LVL173:
	cmpw 7,28,3
	bne+ 7,.L135
.LVL174:
	.loc 1 1123 0
	lwz 3,8(31)
	cmpwi 7,3,0
	beq- 7,.L136
	.loc 1 1123 0 is_stmt 0 discriminator 1
	lwz 9,0(3)
	lwz 0,4(9)
	mtctr 0
	bctrl
.LEHE5:
.L136:
.LVL175:
.LBB3522:
.LBB3523:
.LBB3524:
.LBB3525:
	.loc 5 1532 0 is_stmt 1
	mr 3,31
	bl _ZNSt8__detail15_List_node_base9_M_unhookEv
.LVL176:
.LBB3526:
.LBB3527:
.LBB3528:
	.loc 6 98 0
	mr 3,31
	bl _ZdlPv
.LVL177:
.LBE3528:
.LBE3527:
.LBE3526:
.LBE3525:
.LBE3524:
.LBE3523:
.LBE3522:
.LBE3519:
	.loc 1 1116 0
	cmpw 7,29,30
	bne+ 7,.L143
.LVL178:
.L134:
.LBB3529:
.LBB3530:
.LBB3531:
	.loc 1 343 0
	lwz 9,0(27)
	mr 3,27
	lwz 0,12(9)
	mtctr 0
.LEHB6:
	bctrl
.LEHE6:
.LBE3531:
.LBE3530:
.LBE3529:
.LBE3536:
	.loc 1 1130 0
	lwz 0,36(1)
	lwz 27,12(1)
.LVL179:
	mtlr 0
	lwz 28,16(1)
.LVL180:
	lwz 29,20(1)
.LVL181:
	lwz 30,24(1)
	lwz 31,28(1)
	addi 1,1,32
	.cfi_remember_state
.LCFI50:
	.cfi_def_cfa_offset 0
	.cfi_restore 31
	.cfi_restore 30
	.cfi_restore 29
	.cfi_restore 28
	.cfi_restore 27
	blr
.LVL182:
.L144:
.LCFI51:
	.cfi_restore_state
.LBB3537:
.LBB3532:
.LBB3533:
.LBB3534:
	.loc 1 343 0
	lwz 9,0(27)
	mr 31,3
.LVL183:
	mr 3,27
	lwz 0,12(9)
	mtctr 0
	bctrl
	mr 3,31
.LEHB7:
	bl _Unwind_Resume
.LEHE7:
.LBE3534:
.LBE3533:
.LBE3532:
.LBE3537:
	.cfi_endproc
.LFE2460:
	.section	.gcc_except_table
.LLSDA2460:
	.byte	0xff
	.byte	0xff
	.byte	0x1
	.uleb128 .LLSDACSE2460-.LLSDACSB2460
.LLSDACSB2460:
	.uleb128 .LEHB4-.LFB2460
	.uleb128 .LEHE4-.LEHB4
	.uleb128 0
	.uleb128 0
	.uleb128 .LEHB5-.LFB2460
	.uleb128 .LEHE5-.LEHB5
	.uleb128 .L144-.LFB2460
	.uleb128 0
	.uleb128 .LEHB6-.LFB2460
	.uleb128 .LEHE6-.LEHB6
	.uleb128 0
	.uleb128 0
	.uleb128 .LEHB7-.LFB2460
	.uleb128 .LEHE7-.LEHB7
	.uleb128 0
	.uleb128 0
.LLSDACSE2460:
	.section	.text._ZN7sigslot13_signal_base4IP11PathBrowserhbRKSsNS_15single_threadedEE15slot_disconnectEPNS_9has_slotsIS5_EE,"axG",@progbits,_ZN7sigslot13_signal_base4IP11PathBrowserhbRKSsNS_15single_threadedEE15slot_disconnectEPNS_9has_slotsIS5_EE,comdat
	.size	_ZN7sigslot13_signal_base4IP11PathBrowserhbRKSsNS_15single_threadedEE15slot_disconnectEPNS_9has_slotsIS5_EE, .-_ZN7sigslot13_signal_base4IP11PathBrowserhbRKSsNS_15single_threadedEE15slot_disconnectEPNS_9has_slotsIS5_EE
	.section	".text"
	.align 2
	.globl _ZN11PathBrowser16OnBackInDirClickEP9GuiButtoniRK6_POINT
	.type	_ZN11PathBrowser16OnBackInDirClickEP9GuiButtoniRK6_POINT, @function
_ZN11PathBrowser16OnBackInDirClickEP9GuiButtoniRK6_POINT:
.LFB1693:
	.loc 4 256 0
	.cfi_startproc
	.cfi_personality 0,__gxx_personality_v0
	.cfi_lsda 0,.LLSDA1693
.LVL184:
	mflr 0
	stwu 1,-32(1)
.LCFI52:
	.cfi_def_cfa_offset 32
	.cfi_register 65, 0
	stw 31,28(1)
	mr 31,3
	.cfi_offset 31, -4
	stw 0,36(1)
	stw 30,24(1)
	.loc 4 257 0
	lwz 3,228(3)
.LVL185:
	lwz 9,0(3)
	lwz 0,92(9)
	.cfi_offset 30, -8
	.cfi_offset 65, 4
	mtctr 0
.LEHB8:
	bctrl
.LVL186:
	.loc 4 258 0
	lwz 3,232(31)
	li 4,0
	lwz 9,0(3)
	lwz 0,208(9)
	mtctr 0
	bctrl
	.loc 4 259 0
	lwz 3,228(31)
	li 4,0
	lwz 9,0(3)
	lwz 0,20(9)
	mtctr 0
	bctrl
	.loc 4 260 0
	lwz 3,232(31)
	lwz 9,0(3)
	lwz 0,204(9)
	mtctr 0
	bctrl
	.loc 4 261 0
	lwz 4,228(31)
	lwz 31,284(31)
.LVL187:
	addi 3,1,12
	lwz 9,0(4)
	lwz 0,72(9)
	lwz 9,0(31)
	mtctr 0
	lwz 30,204(9)
	bctrl
.LEHE8:
	mr 3,31
	addi 4,1,12
	mtctr 30
.LEHB9:
	bctrl
.LEHE9:
.LVL188:
.LBB3559:
.LBB3560:
.LBB3561:
.LBB3562:
.LBB3563:
.LBB3564:
	.file 7 "d:\\devkitpro\\devkitppc\\bin\\../lib/gcc/powerpc-eabi/4.6.3/../../../../powerpc-eabi/include/c++/4.6.3/bits/basic_string.h"
	.loc 7 288 0
	lwz 9,12(1)
.LBE3564:
.LBE3563:
.LBE3562:
.LBB3565:
.LBB3566:
	.loc 7 235 0
	lis 11,_ZNSs4_Rep20_S_empty_rep_storageE@ha
	la 0,_ZNSs4_Rep20_S_empty_rep_storageE@l(11)
.LBE3566:
.LBE3565:
	.loc 7 534 0
	addi 3,9,-12
.LVL189:
.LBB3575:
.LBB3573:
	.loc 7 235 0
	cmpw 7,3,0
	bne- 7,.L155
.LVL190:
.L146:
.LBE3573:
.LBE3575:
.LBE3561:
.LBE3560:
.LBE3559:
	.loc 4 262 0
	lwz 0,36(1)
	lwz 30,24(1)
	mtlr 0
	lwz 31,28(1)
	addi 1,1,32
	.cfi_remember_state
.LCFI53:
	.cfi_def_cfa_offset 0
	.cfi_restore 31
	.cfi_restore 30
	blr
.LVL191:
.L155:
.LCFI54:
	.cfi_restore_state
.LBB3579:
.LBB3578:
.LBB3577:
.LBB3576:
.LBB3574:
.LBB3567:
.LBB3568:
.LBB3569:
	.file 8 "d:\\devkitpro\\devkitppc\\bin\\../lib/gcc/powerpc-eabi/4.6.3/../../../../powerpc-eabi/include/c++/4.6.3/ext/atomicity.h"
	.loc 8 66 0
	lwz 11,-4(9)
.LVL192:
.LBE3569:
.LBE3568:
.LBE3567:
	.loc 7 240 0
	cmpwi 7,11,0
.LBB3572:
.LBB3571:
.LBB3570:
	.loc 8 67 0
	addi 11,11,-1
	stw 11,-4(9)
.LBE3570:
.LBE3571:
.LBE3572:
	.loc 7 240 0
	bgt+ 7,.L146
	.loc 7 244 0
	addi 4,1,8
	bl _ZNSs4_Rep10_M_destroyERKSaIcE
.LVL193:
	b .L146
.LVL194:
.L154:
	mr 31,3
.LBE3574:
.LBE3576:
.LBE3577:
.LBE3578:
.LBE3579:
	.loc 4 261 0
	addi 3,1,12
	bl _ZNSsD1Ev
	mr 3,31
.LEHB10:
	bl _Unwind_Resume
.LEHE10:
	.cfi_endproc
.LFE1693:
	.section	.gcc_except_table
.LLSDA1693:
	.byte	0xff
	.byte	0xff
	.byte	0x1
	.uleb128 .LLSDACSE1693-.LLSDACSB1693
.LLSDACSB1693:
	.uleb128 .LEHB8-.LFB1693
	.uleb128 .LEHE8-.LEHB8
	.uleb128 0
	.uleb128 0
	.uleb128 .LEHB9-.LFB1693
	.uleb128 .LEHE9-.LEHB9
	.uleb128 .L154-.LFB1693
	.uleb128 0
	.uleb128 .LEHB10-.LFB1693
	.uleb128 .LEHE10-.LEHB10
	.uleb128 0
	.uleb128 0
.LLSDACSE1693:
	.section	".text"
	.size	_ZN11PathBrowser16OnBackInDirClickEP9GuiButtoniRK6_POINT, .-_ZN11PathBrowser16OnBackInDirClickEP9GuiButtoniRK6_POINT
	.align 2
	.globl _ZN11PathBrowser19OnFolderButtonClickEP9GuiButtoniRK6_POINT
	.type	_ZN11PathBrowser19OnFolderButtonClickEP9GuiButtoniRK6_POINT, @function
_ZN11PathBrowser19OnFolderButtonClickEP9GuiButtoniRK6_POINT:
.LFB1690:
	.loc 4 193 0
	.cfi_startproc
	.cfi_personality 0,__gxx_personality_v0
	.cfi_lsda 0,.LLSDA1690
.LVL195:
	mflr 0
	stwu 1,-1080(1)
.LCFI55:
	.cfi_def_cfa_offset 1080
	.cfi_register 65, 0
	stw 31,1076(1)
	mr 31,3
	.cfi_offset 31, -4
	stw 0,1084(1)
	stw 28,1064(1)
.LBB3676:
	.loc 4 195 0
	lwz 4,228(3)
.LVL196:
	addi 3,1,28
.LVL197:
.LBE3676:
	.loc 4 193 0
	stw 29,1068(1)
.LBB3755:
	.loc 4 195 0
	lwz 9,0(4)
.LBE3755:
	.loc 4 193 0
	stw 30,1072(1)
.LBB3756:
	.loc 4 195 0
	lwz 0,72(9)
	.cfi_offset 30, -8
	.cfi_offset 29, -12
	.cfi_offset 28, -16
	.cfi_offset 65, 4
	mtctr 0
.LEHB11:
	bctrl
.LEHE11:
.LVL198:
	lis 5,.LC4@ha
	lwz 6,28(1)
	addi 3,1,32
	li 4,1024
	la 5,.LC4@l(5)
.LEHB12:
	crxor 6,6,6
	bl snprintf
.LEHE12:
.LVL199:
.LBB3677:
.LBB3678:
.LBB3679:
.LBB3680:
.LBB3681:
.LBB3682:
	.loc 7 288 0
	lwz 9,28(1)
.LBE3682:
.LBE3681:
.LBE3680:
.LBB3683:
.LBB3684:
	.loc 7 235 0
	lis 30,_ZNSs4_Rep20_S_empty_rep_storageE@ha
	la 30,_ZNSs4_Rep20_S_empty_rep_storageE@l(30)
.LBE3684:
.LBE3683:
	.loc 7 534 0
	addi 3,9,-12
.LVL200:
.LBB3693:
.LBB3691:
	.loc 7 235 0
	cmpw 7,3,30
	bne- 7,.L197
.LVL201:
.L162:
.LBE3691:
.LBE3693:
.LBE3679:
.LBE3678:
.LBE3677:
	.loc 4 196 0 discriminator 1
	addi 3,1,32
	li 4,1024
.LEHB13:
	bl _Z16OnScreenKeyboardPct
	cmpwi 7,3,0
	beq- 7,.L156
.L165:
	.loc 4 198 0 discriminator 1
	addi 3,1,32
	bl strlen
	addi 0,1,8
	addi 9,3,-1
	add 9,0,9
	lbz 0,24(9)
	cmpwi 7,0,47
	beq- 7,.L198
.L164:
	.loc 4 201 0
	addi 3,1,24
	addi 4,1,32
	addi 5,1,13
	bl _ZNSsC1EPKcRKSaIcE
.LEHE13:
	addi 3,1,24
.LEHB14:
	bl _Z15CreateSubfolderSs
.LEHE14:
.LVL202:
.LBB3697:
.LBB3698:
.LBB3699:
.LBB3700:
.LBB3701:
.LBB3702:
	.loc 7 288 0
	lwz 9,24(1)
.LBE3702:
.LBE3701:
.LBE3700:
	.loc 7 534 0
	addi 3,9,-12
.LVL203:
.LBB3703:
.LBB3704:
	.loc 7 235 0
	cmpw 7,3,30
	bne- 7,.L199
.LVL204:
.L173:
.LBE3704:
.LBE3703:
.LBE3699:
.LBE3698:
.LBE3697:
	.loc 4 202 0 discriminator 1
	lwz 29,224(31)
	addi 3,1,20
	addi 4,1,32
	addi 5,1,12
	lwz 9,0(29)
	lwz 28,8(9)
.LEHB15:
	bl _ZNSsC1EPKcRKSaIcE
.LEHE15:
	mr 3,29
	addi 4,1,20
	mtctr 28
.LEHB16:
	bctrl
.LEHE16:
.LVL205:
.LBB3715:
.LBB3716:
.LBB3717:
.LBB3718:
.LBB3719:
.LBB3720:
	.loc 7 288 0
	lwz 9,20(1)
.LBE3720:
.LBE3719:
.LBE3718:
	.loc 7 534 0
	addi 3,9,-12
.LVL206:
.LBB3721:
.LBB3722:
	.loc 7 235 0
	cmpw 7,3,30
	bne- 7,.L200
.LVL207:
.L181:
.LBE3722:
.LBE3721:
.LBE3717:
.LBE3716:
.LBE3715:
	.loc 4 203 0 discriminator 1
	lwz 4,228(31)
	addi 3,1,16
	lwz 31,284(31)
.LVL208:
	lwz 9,0(4)
	lwz 0,72(9)
	lwz 9,0(31)
	mtctr 0
	lwz 29,204(9)
.LEHB17:
	bctrl
.LEHE17:
	mr 3,31
	addi 4,1,16
	mtctr 29
.LEHB18:
	bctrl
.LEHE18:
.LVL209:
.LBB3733:
.LBB3734:
.LBB3735:
.LBB3736:
.LBB3737:
.LBB3738:
	.loc 7 288 0
	lwz 9,16(1)
.LBE3738:
.LBE3737:
.LBE3736:
	.loc 7 534 0
	addi 3,9,-12
.LVL210:
.LBB3739:
.LBB3740:
	.loc 7 235 0
	cmpw 7,3,30
	bne- 7,.L201
.LVL211:
.L156:
.LBE3740:
.LBE3739:
.LBE3735:
.LBE3734:
.LBE3733:
.LBE3756:
	.loc 4 205 0
	lwz 0,1084(1)
	lwz 28,1064(1)
	mtlr 0
	lwz 29,1068(1)
	lwz 30,1072(1)
	lwz 31,1076(1)
	addi 1,1,1080
	.cfi_remember_state
.LCFI56:
	.cfi_def_cfa_offset 0
	.cfi_restore 31
	.cfi_restore 30
	.cfi_restore 29
	.cfi_restore 28
	blr
.LVL212:
.L198:
.LCFI57:
	.cfi_restore_state
.LBB3757:
	.loc 4 198 0 discriminator 2
	addi 0,1,8
	add 3,0,3
	lbz 0,22(3)
	cmpwi 7,0,58
	beq- 7,.L164
	.loc 4 199 0 discriminator 5
	li 0,0
	stb 0,24(9)
	b .L165
.LVL213:
.L197:
.LBB3751:
.LBB3696:
.LBB3695:
.LBB3694:
.LBB3692:
.LBB3685:
.LBB3686:
.LBB3687:
	.loc 8 66 0
	lwz 11,-4(9)
.LVL214:
.LBE3687:
.LBE3686:
.LBE3685:
	.loc 7 240 0
	cmpwi 7,11,0
.LBB3690:
.LBB3689:
.LBB3688:
	.loc 8 67 0
	addi 11,11,-1
	stw 11,-4(9)
.LBE3688:
.LBE3689:
.LBE3690:
	.loc 7 240 0
	bgt+ 7,.L162
	.loc 7 244 0
	addi 4,1,11
	bl _ZNSs4_Rep10_M_destroyERKSaIcE
.LVL215:
	b .L162
.LVL216:
.L192:
	mr 31,3
.LVL217:
.LBE3692:
.LBE3694:
.LBE3695:
.LBE3696:
.LBE3751:
	.loc 4 195 0
	addi 3,1,28
.LVL218:
	bl _ZNSsD1Ev
.LVL219:
	mr 3,31
.LEHB19:
	bl _Unwind_Resume
.LVL220:
.L201:
.LBB3752:
.LBB3750:
.LBB3749:
.LBB3748:
.LBB3747:
.LBB3741:
.LBB3742:
.LBB3743:
	.loc 8 66 0
	lwz 11,-4(9)
.LVL221:
.LBE3743:
.LBE3742:
.LBE3741:
	.loc 7 240 0
	cmpwi 7,11,0
.LBB3746:
.LBB3745:
.LBB3744:
	.loc 8 67 0
	addi 11,11,-1
	stw 11,-4(9)
.LBE3744:
.LBE3745:
.LBE3746:
	.loc 7 240 0
	bgt+ 7,.L156
	.loc 7 244 0
	addi 4,1,8
.LVL222:
	bl _ZNSs4_Rep10_M_destroyERKSaIcE
.LVL223:
	b .L156
.LVL224:
.L195:
	mr 31,3
.LBE3747:
.LBE3748:
.LBE3749:
.LBE3750:
.LBE3752:
	.loc 4 203 0
	addi 3,1,16
	bl _ZNSsD1Ev
	mr 3,31
	bl _Unwind_Resume
.LVL225:
.L200:
.LBB3753:
.LBB3732:
.LBB3731:
.LBB3730:
.LBB3729:
.LBB3723:
.LBB3724:
.LBB3725:
	.loc 8 66 0
	lwz 11,-4(9)
.LVL226:
.LBE3725:
.LBE3724:
.LBE3723:
	.loc 7 240 0
	cmpwi 7,11,0
.LBB3728:
.LBB3727:
.LBB3726:
	.loc 8 67 0
	addi 11,11,-1
	stw 11,-4(9)
.LBE3726:
.LBE3727:
.LBE3728:
	.loc 7 240 0
	bgt+ 7,.L181
	.loc 7 244 0
	addi 4,1,9
	bl _ZNSs4_Rep10_M_destroyERKSaIcE
.LVL227:
	b .L181
.LVL228:
.L194:
	mr 31,3
.LVL229:
.LBE3729:
.LBE3730:
.LBE3731:
.LBE3732:
.LBE3753:
	.loc 4 202 0
	addi 3,1,20
	bl _ZNSsD1Ev
	mr 3,31
	bl _Unwind_Resume
.LVL230:
.L199:
.LBB3754:
.LBB3714:
.LBB3713:
.LBB3712:
.LBB3711:
.LBB3705:
.LBB3706:
.LBB3707:
	.loc 8 66 0
	lwz 11,-4(9)
.LVL231:
.LBE3707:
.LBE3706:
.LBE3705:
	.loc 7 240 0
	cmpwi 7,11,0
.LBB3710:
.LBB3709:
.LBB3708:
	.loc 8 67 0
	addi 11,11,-1
	stw 11,-4(9)
.LBE3708:
.LBE3709:
.LBE3710:
	.loc 7 240 0
	bgt+ 7,.L173
	.loc 7 244 0
	addi 4,1,10
	bl _ZNSs4_Rep10_M_destroyERKSaIcE
.LVL232:
	b .L173
.LVL233:
.L193:
	mr 31,3
.LVL234:
.LBE3711:
.LBE3712:
.LBE3713:
.LBE3714:
.LBE3754:
	.loc 4 201 0
	addi 3,1,24
	bl _ZNSsD1Ev
	mr 3,31
	bl _Unwind_Resume
.LEHE19:
.LBE3757:
	.cfi_endproc
.LFE1690:
	.section	.gcc_except_table
.LLSDA1690:
	.byte	0xff
	.byte	0xff
	.byte	0x1
	.uleb128 .LLSDACSE1690-.LLSDACSB1690
.LLSDACSB1690:
	.uleb128 .LEHB11-.LFB1690
	.uleb128 .LEHE11-.LEHB11
	.uleb128 0
	.uleb128 0
	.uleb128 .LEHB12-.LFB1690
	.uleb128 .LEHE12-.LEHB12
	.uleb128 .L192-.LFB1690
	.uleb128 0
	.uleb128 .LEHB13-.LFB1690
	.uleb128 .LEHE13-.LEHB13
	.uleb128 0
	.uleb128 0
	.uleb128 .LEHB14-.LFB1690
	.uleb128 .LEHE14-.LEHB14
	.uleb128 .L193-.LFB1690
	.uleb128 0
	.uleb128 .LEHB15-.LFB1690
	.uleb128 .LEHE15-.LEHB15
	.uleb128 0
	.uleb128 0
	.uleb128 .LEHB16-.LFB1690
	.uleb128 .LEHE16-.LEHB16
	.uleb128 .L194-.LFB1690
	.uleb128 0
	.uleb128 .LEHB17-.LFB1690
	.uleb128 .LEHE17-.LEHB17
	.uleb128 0
	.uleb128 0
	.uleb128 .LEHB18-.LFB1690
	.uleb128 .LEHE18-.LEHB18
	.uleb128 .L195-.LFB1690
	.uleb128 0
	.uleb128 .LEHB19-.LFB1690
	.uleb128 .LEHE19-.LEHB19
	.uleb128 0
	.uleb128 0
.LLSDACSE1690:
	.section	".text"
	.size	_ZN11PathBrowser19OnFolderButtonClickEP9GuiButtoniRK6_POINT, .-_ZN11PathBrowser19OnFolderButtonClickEP9GuiButtoniRK6_POINT
	.align 2
	.globl _ZN11PathBrowser16OnBrowserChangesEi
	.type	_ZN11PathBrowser16OnBrowserChangesEi, @function
_ZN11PathBrowser16OnBrowserChangesEi:
.LFB1694:
	.loc 4 265 0
	.cfi_startproc
	.cfi_personality 0,__gxx_personality_v0
	.cfi_lsda 0,.LLSDA1694
.LVL235:
	mflr 0
	stwu 1,-48(1)
.LCFI58:
	.cfi_def_cfa_offset 48
	.cfi_register 65, 0
	stw 30,40(1)
	mr 30,3
	.cfi_offset 30, -8
	stw 0,52(1)
	stw 27,28(1)
.LBB3817:
	.loc 4 266 0
	lwz 3,228(3)
.LVL236:
.LBE3817:
	.loc 4 265 0
	stw 28,32(1)
.LBB3875:
	.loc 4 266 0
	lwz 9,0(3)
.LBE3875:
	.loc 4 265 0
	stw 29,36(1)
.LBB3876:
	.loc 4 266 0
	lwz 0,60(9)
	.cfi_offset 29, -12
	.cfi_offset 28, -16
	.cfi_offset 27, -20
	.cfi_offset 65, 4
.LBE3876:
	.loc 4 265 0
	stw 31,44(1)
.LBB3877:
	.loc 4 266 0
	mtctr 0
.LEHB20:
	.cfi_offset 31, -4
	bctrl
.LVL237:
	cmpwi 7,3,0
	beq- 7,.L203
.LBB3818:
	.loc 4 268 0
	lwz 3,228(30)
	lwz 9,0(3)
	lwz 0,88(9)
	mtctr 0
	bctrl
.LVL238:
	.loc 4 269 0
	cmpwi 7,3,0
	blt- 7,.L204
	.loc 4 271 0
	lwz 3,232(30)
.LVL239:
	li 4,0
	lwz 9,0(3)
	lwz 0,208(9)
	mtctr 0
	bctrl
	.loc 4 272 0
	lwz 3,228(30)
	li 4,0
	lwz 9,0(3)
	lwz 0,20(9)
	mtctr 0
	bctrl
	.loc 4 273 0
	lwz 3,232(30)
	lwz 9,0(3)
	lwz 0,204(9)
	mtctr 0
	bctrl
	.loc 4 274 0
	lwz 4,228(30)
	lwz 31,284(30)
	addi 3,1,16
	lwz 9,0(4)
	lwz 0,72(9)
	lwz 9,0(31)
	mtctr 0
	lwz 30,204(9)
.LVL240:
	bctrl
.LEHE20:
	mr 3,31
	addi 4,1,16
	mtctr 30
.LEHB21:
	bctrl
.LEHE21:
.LVL241:
.LBB3819:
.LBB3820:
.LBB3821:
.LBB3822:
.LBB3823:
.LBB3824:
	.loc 7 288 0
	lwz 9,16(1)
.LBE3824:
.LBE3823:
.LBE3822:
.LBB3825:
.LBB3826:
	.loc 7 235 0
	lis 11,_ZNSs4_Rep20_S_empty_rep_storageE@ha
	la 0,_ZNSs4_Rep20_S_empty_rep_storageE@l(11)
.LBE3826:
.LBE3825:
	.loc 7 534 0
	addi 3,9,-12
.LVL242:
.LBB3834:
.LBB3833:
	.loc 7 235 0
	cmpw 7,3,0
	beq+ 7,.L202
.LVL243:
.LBB3827:
.LBB3828:
.LBB3829:
	.loc 8 66 0
	lwz 11,-4(9)
.LVL244:
.LBE3829:
.LBE3828:
.LBE3827:
	.loc 7 240 0
	cmpwi 7,11,0
.LBB3832:
.LBB3831:
.LBB3830:
	.loc 8 67 0
	addi 11,11,-1
	stw 11,-4(9)
.LBE3830:
.LBE3831:
.LBE3832:
	.loc 7 240 0
	bgt+ 7,.L202
	.loc 7 244 0
	addi 4,1,9
	bl _ZNSs4_Rep10_M_destroyERKSaIcE
.LVL245:
	b .L202
.LVL246:
.L203:
.LBE3833:
.LBE3834:
.LBE3821:
.LBE3820:
.LBE3819:
.LBE3818:
	.loc 4 283 0
	lwz 4,228(30)
	addi 3,1,12
	lbz 28,216(30)
.LBB3835:
.LBB3836:
	.loc 1 2407 0
	addi 27,30,204
.LBE3836:
.LBE3835:
	.loc 4 283 0
	lwz 9,0(4)
	lwz 0,76(9)
	mtctr 0
.LEHB22:
	bctrl
.LEHE22:
.LVL247:
.LBB3850:
.LBB3847:
.LBB3837:
.LBB3838:
	.loc 1 338 0
	lwz 9,204(30)
	mr 3,27
	lwz 0,8(9)
	mtctr 0
.LEHB23:
	bctrl
.LEHE23:
.LVL248:
.LBE3838:
.LBE3837:
.LBE3847:
	.loc 4 285 0
	mr 29,30
	lwzu 31,208(29)
.LVL249:
.LBB3848:
	.loc 1 2411 0
	cmpw 7,31,29
	beq- 7,.L206
.LVL250:
.L228:
	.loc 1 2416 0
	lwz 3,8(31)
	mr 4,30
	mr 5,28
	li 6,1
	lwz 9,0(3)
	addi 7,1,12
.LVL251:
.LBB3839:
.LBB3840:
	.loc 5 234 0
	lwz 31,0(31)
.LVL252:
.LBE3840:
.LBE3839:
	.loc 1 2416 0
	lwz 0,12(9)
	mtctr 0
.LEHB24:
	bctrl
.LEHE24:
.LVL253:
	.loc 1 2411 0
	cmpw 7,29,31
	bne+ 7,.L228
.LVL254:
.L206:
.LBB3841:
.LBB3842:
.LBB3843:
	.loc 1 343 0
	lwz 9,204(30)
	mr 3,27
	lwz 0,12(9)
	mtctr 0
.LEHB25:
	bctrl
.LEHE25:
.LVL255:
.LBE3843:
.LBE3842:
.LBE3841:
.LBE3848:
.LBE3850:
.LBB3851:
.LBB3852:
.LBB3853:
.LBB3854:
.LBB3855:
.LBB3856:
	.loc 7 288 0
	lwz 9,12(1)
.LBE3856:
.LBE3855:
.LBE3854:
.LBB3857:
.LBB3858:
	.loc 7 235 0
	lis 11,_ZNSs4_Rep20_S_empty_rep_storageE@ha
	la 0,_ZNSs4_Rep20_S_empty_rep_storageE@l(11)
.LBE3858:
.LBE3857:
	.loc 7 534 0
	addi 3,9,-12
.LVL256:
.LBB3867:
.LBB3865:
	.loc 7 235 0
	cmpw 7,3,0
	bne- 7,.L230
.LVL257:
.L202:
.LBE3865:
.LBE3867:
.LBE3853:
.LBE3852:
.LBE3851:
.LBE3877:
	.loc 4 285 0
	lwz 0,52(1)
	lwz 27,28(1)
	mtlr 0
	lwz 28,32(1)
	lwz 29,36(1)
	lwz 30,40(1)
	lwz 31,44(1)
	addi 1,1,48
	.cfi_remember_state
.LCFI59:
	.cfi_def_cfa_offset 0
	.cfi_restore 31
	.cfi_restore 30
	.cfi_restore 29
	.cfi_restore 28
	.cfi_restore 27
	blr
.LVL258:
.L204:
.LCFI60:
	.cfi_restore_state
.LBB3878:
.LBB3871:
	.loc 4 278 0
	lis 3,.LC5@ha
.LVL259:
	la 3,.LC5@l(3)
.LEHB26:
	bl gettext
	crxor 6,6,6
	bl ShowError
	b .L202
.LVL260:
.L226:
	mr 31,3
.L211:
.LBE3871:
	.loc 4 283 0
	addi 3,1,12
.LVL261:
	bl _ZNSsD1Ev
.LVL262:
	mr 3,31
	bl _Unwind_Resume
.LEHE26:
.LVL263:
.L230:
.LBB3872:
.LBB3870:
.LBB3869:
.LBB3868:
.LBB3866:
.LBB3859:
.LBB3860:
.LBB3861:
	.loc 8 66 0
	lwz 11,-4(9)
.LVL264:
.LBE3861:
.LBE3860:
.LBE3859:
	.loc 7 240 0
	cmpwi 7,11,0
.LBB3864:
.LBB3863:
.LBB3862:
	.loc 8 67 0
	addi 11,11,-1
	stw 11,-4(9)
.LBE3862:
.LBE3863:
.LBE3864:
	.loc 7 240 0
	bgt+ 7,.L202
	.loc 7 244 0
	addi 4,1,8
	bl _ZNSs4_Rep10_M_destroyERKSaIcE
.LVL265:
	b .L202
.LVL266:
.L227:
.LBE3866:
.LBE3868:
.LBE3869:
.LBE3870:
.LBE3872:
.LBB3873:
.LBB3849:
.LBB3844:
.LBB3845:
.LBB3846:
	.loc 1 343 0
	lwz 9,204(30)
	mr 31,3
.LVL267:
	mr 3,27
	lwz 0,12(9)
	mtctr 0
	bctrl
	b .L211
.LVL268:
.L225:
	mr 31,3
.LBE3846:
.LBE3845:
.LBE3844:
.LBE3849:
.LBE3873:
.LBB3874:
	.loc 4 274 0
	addi 3,1,16
	bl _ZNSsD1Ev
	mr 3,31
.LEHB27:
	bl _Unwind_Resume
.LEHE27:
.LBE3874:
.LBE3878:
	.cfi_endproc
.LFE1694:
	.section	.gcc_except_table
.LLSDA1694:
	.byte	0xff
	.byte	0xff
	.byte	0x1
	.uleb128 .LLSDACSE1694-.LLSDACSB1694
.LLSDACSB1694:
	.uleb128 .LEHB20-.LFB1694
	.uleb128 .LEHE20-.LEHB20
	.uleb128 0
	.uleb128 0
	.uleb128 .LEHB21-.LFB1694
	.uleb128 .LEHE21-.LEHB21
	.uleb128 .L225-.LFB1694
	.uleb128 0
	.uleb128 .LEHB22-.LFB1694
	.uleb128 .LEHE22-.LEHB22
	.uleb128 0
	.uleb128 0
	.uleb128 .LEHB23-.LFB1694
	.uleb128 .LEHE23-.LEHB23
	.uleb128 .L226-.LFB1694
	.uleb128 0
	.uleb128 .LEHB24-.LFB1694
	.uleb128 .LEHE24-.LEHB24
	.uleb128 .L227-.LFB1694
	.uleb128 0
	.uleb128 .LEHB25-.LFB1694
	.uleb128 .LEHE25-.LEHB25
	.uleb128 .L226-.LFB1694
	.uleb128 0
	.uleb128 .LEHB26-.LFB1694
	.uleb128 .LEHE26-.LEHB26
	.uleb128 0
	.uleb128 0
	.uleb128 .LEHB27-.LFB1694
	.uleb128 .LEHE27-.LEHB27
	.uleb128 0
	.uleb128 0
.LLSDACSE1694:
	.section	".text"
	.size	_ZN11PathBrowser16OnBrowserChangesEi, .-_ZN11PathBrowser16OnBrowserChangesEi
	.align 2
	.globl _ZN11PathBrowser13OnButtonClickEP9GuiButtoniRK6_POINT
	.type	_ZN11PathBrowser13OnButtonClickEP9GuiButtoniRK6_POINT, @function
_ZN11PathBrowser13OnButtonClickEP9GuiButtoniRK6_POINT:
.LFB1689:
	.loc 4 188 0
	.cfi_startproc
	.cfi_personality 0,__gxx_personality_v0
	.cfi_lsda 0,.LLSDA1689
.LVL269:
	mflr 0
	stwu 1,-48(1)
.LCFI61:
	.cfi_def_cfa_offset 48
	.cfi_register 65, 0
	stw 29,36(1)
	stw 0,52(1)
	stw 26,24(1)
	.loc 4 189 0
	lwz 9,228(3)
	lwz 29,300(3)
	.cfi_offset 26, -24
	.cfi_offset 65, 4
	.cfi_offset 29, -12
	lwz 11,0(9)
	.loc 4 188 0
	stw 30,40(1)
	.loc 4 189 0
	xor 29,29,4
	lwz 0,72(11)
	.loc 4 188 0
	mr 30,3
	.cfi_offset 30, -8
	stw 27,28(1)
	.loc 4 189 0
	addi 3,1,12
.LVL270:
	mtctr 0
	.loc 4 188 0
	stw 28,32(1)
	stw 31,44(1)
	.loc 4 189 0
	mr 4,9
.LVL271:
.LBB3915:
.LBB3916:
	.loc 1 2407 0
	addi 26,30,204
.LBE3916:
.LBE3915:
	.loc 4 189 0
	cntlzw 29,29
	lbz 27,216(30)
	.cfi_offset 31, -4
	.cfi_offset 28, -16
	.cfi_offset 27, -20
	srwi 29,29,5
.LEHB28:
	bctrl
.LEHE28:
.LVL272:
.LBB3930:
.LBB3927:
.LBB3917:
.LBB3918:
	.loc 1 338 0
	lwz 9,204(30)
	mr 3,26
	lwz 0,8(9)
	mtctr 0
.LEHB29:
	bctrl
.LEHE29:
.LVL273:
.LBE3918:
.LBE3917:
.LBE3927:
	.loc 4 285 0
	mr 28,30
	lwzu 31,208(28)
.LVL274:
.LBB3928:
	.loc 1 2411 0
	cmpw 7,31,28
	beq- 7,.L232
.LVL275:
.L247:
	.loc 1 2416 0
	lwz 3,8(31)
	mr 4,30
	mr 5,27
	mr 6,29
	lwz 9,0(3)
	addi 7,1,12
.LVL276:
.LBB3919:
.LBB3920:
	.loc 5 234 0
	lwz 31,0(31)
.LVL277:
.LBE3920:
.LBE3919:
	.loc 1 2416 0
	lwz 0,12(9)
	mtctr 0
.LEHB30:
	bctrl
.LEHE30:
.LVL278:
	.loc 1 2411 0
	cmpw 7,28,31
	bne+ 7,.L247
.LVL279:
.L232:
.LBB3921:
.LBB3922:
.LBB3923:
	.loc 1 343 0
	lwz 9,204(30)
	mr 3,26
	lwz 0,12(9)
	mtctr 0
.LEHB31:
	bctrl
.LEHE31:
.LVL280:
.LBE3923:
.LBE3922:
.LBE3921:
.LBE3928:
.LBE3930:
.LBB3931:
.LBB3932:
.LBB3933:
.LBB3934:
.LBB3935:
.LBB3936:
	.loc 7 288 0
	lwz 9,12(1)
.LBE3936:
.LBE3935:
.LBE3934:
.LBB3937:
.LBB3938:
	.loc 7 235 0
	lis 11,_ZNSs4_Rep20_S_empty_rep_storageE@ha
	la 0,_ZNSs4_Rep20_S_empty_rep_storageE@l(11)
.LBE3938:
.LBE3937:
	.loc 7 534 0
	addi 3,9,-12
.LVL281:
.LBB3947:
.LBB3945:
	.loc 7 235 0
	cmpw 7,3,0
	bne- 7,.L249
.LVL282:
.L231:
.LBE3945:
.LBE3947:
.LBE3933:
.LBE3932:
.LBE3931:
	.loc 4 190 0
	lwz 0,52(1)
	lwz 26,24(1)
	mtlr 0
	lwz 27,28(1)
.LVL283:
	lwz 28,32(1)
	lwz 29,36(1)
	lwz 30,40(1)
.LVL284:
	lwz 31,44(1)
.LVL285:
	addi 1,1,48
	.cfi_remember_state
.LCFI62:
	.cfi_def_cfa_offset 0
	.cfi_restore 31
	.cfi_restore 30
	.cfi_restore 29
	.cfi_restore 28
	.cfi_restore 27
	.cfi_restore 26
	blr
.LVL286:
.L245:
.LCFI63:
	.cfi_restore_state
	mr 31,3
.L237:
	.loc 4 189 0
	addi 3,1,12
.LVL287:
	bl _ZNSsD1Ev
.LVL288:
	mr 3,31
.LEHB32:
	bl _Unwind_Resume
.LEHE32:
.LVL289:
.L249:
.LBB3951:
.LBB3950:
.LBB3949:
.LBB3948:
.LBB3946:
.LBB3939:
.LBB3940:
.LBB3941:
	.loc 8 66 0
	lwz 11,-4(9)
.LVL290:
.LBE3941:
.LBE3940:
.LBE3939:
	.loc 7 240 0
	cmpwi 7,11,0
.LBB3944:
.LBB3943:
.LBB3942:
	.loc 8 67 0
	addi 11,11,-1
	stw 11,-4(9)
.LBE3942:
.LBE3943:
.LBE3944:
	.loc 7 240 0
	bgt+ 7,.L231
	.loc 7 244 0
	addi 4,1,8
	bl _ZNSs4_Rep10_M_destroyERKSaIcE
.LVL291:
	b .L231
.LVL292:
.L246:
.LBE3946:
.LBE3948:
.LBE3949:
.LBE3950:
.LBE3951:
.LBB3952:
.LBB3929:
.LBB3924:
.LBB3925:
.LBB3926:
	.loc 1 343 0
	lwz 9,204(30)
	mr 31,3
.LVL293:
	mr 3,26
	lwz 0,12(9)
	mtctr 0
	bctrl
	b .L237
.LBE3926:
.LBE3925:
.LBE3924:
.LBE3929:
.LBE3952:
	.cfi_endproc
.LFE1689:
	.section	.gcc_except_table
.LLSDA1689:
	.byte	0xff
	.byte	0xff
	.byte	0x1
	.uleb128 .LLSDACSE1689-.LLSDACSB1689
.LLSDACSB1689:
	.uleb128 .LEHB28-.LFB1689
	.uleb128 .LEHE28-.LEHB28
	.uleb128 0
	.uleb128 0
	.uleb128 .LEHB29-.LFB1689
	.uleb128 .LEHE29-.LEHB29
	.uleb128 .L245-.LFB1689
	.uleb128 0
	.uleb128 .LEHB30-.LFB1689
	.uleb128 .LEHE30-.LEHB30
	.uleb128 .L246-.LFB1689
	.uleb128 0
	.uleb128 .LEHB31-.LFB1689
	.uleb128 .LEHE31-.LEHB31
	.uleb128 .L245-.LFB1689
	.uleb128 0
	.uleb128 .LEHB32-.LFB1689
	.uleb128 .LEHE32-.LEHB32
	.uleb128 0
	.uleb128 0
.LLSDACSE1689:
	.section	".text"
	.size	_ZN11PathBrowser13OnButtonClickEP9GuiButtoniRK6_POINT, .-_ZN11PathBrowser13OnButtonClickEP9GuiButtoniRK6_POINT
	.align 2
	.globl _ZN11PathBrowser17OnWifiButtonClickEP9GuiButtoniRK6_POINT
	.type	_ZN11PathBrowser17OnWifiButtonClickEP9GuiButtoniRK6_POINT, @function
_ZN11PathBrowser17OnWifiButtonClickEP9GuiButtoniRK6_POINT:
.LFB1692:
	.loc 4 224 0
	.cfi_startproc
	.cfi_personality 0,__gxx_personality_v0
	.cfi_lsda 0,.LLSDA1692
.LVL294:
	mflr 0
	stwu 1,-80(1)
.LCFI64:
	.cfi_def_cfa_offset 80
	.cfi_register 65, 0
	stw 31,76(1)
	mr 31,3
	.cfi_offset 31, -4
	stw 0,84(1)
	stw 23,44(1)
.LBB4088:
	.loc 4 225 0
	lwz 4,228(3)
.LVL295:
	addi 3,1,36
.LVL296:
.LBE4088:
	.loc 4 224 0
	stw 24,48(1)
.LBB4221:
	.loc 4 225 0
	lwz 9,0(4)
.LBE4221:
	.loc 4 224 0
	stw 25,52(1)
.LBB4222:
	.loc 4 225 0
	lwz 0,72(9)
	.cfi_offset 25, -28
	.cfi_offset 24, -32
	.cfi_offset 23, -36
	.cfi_offset 65, 4
.LBE4222:
	.loc 4 224 0
	stw 26,56(1)
	stw 27,60(1)
.LBB4223:
	.loc 4 225 0
	mtctr 0
.LBE4223:
	.loc 4 224 0
	stw 28,64(1)
	stw 29,68(1)
	stw 30,72(1)
.LEHB33:
.LBB4224:
	.loc 4 225 0
	.cfi_offset 30, -8
	.cfi_offset 29, -12
	.cfi_offset 28, -16
	.cfi_offset 27, -20
	.cfi_offset 26, -24
	bctrl
.LEHE33:
.LVL297:
	.loc 4 227 0
	lis 3,.LC6@ha
	la 3,.LC6@l(3)
.LEHB34:
	bl gettext
	lis 28,.LC7@ha
	mr 25,3
.LVL298:
	la 28,.LC7@l(28)
.LBB4089:
.LBB4090:
.LBB4091:
	.loc 7 288 0
	lwz 26,36(1)
.LBE4091:
.LBE4090:
.LBE4089:
	.loc 4 227 0
	mr 3,28
	bl gettext
	.loc 4 227 0 is_stmt 0 discriminator 1
	mr 27,3
	lis 3,.LC8@ha
	la 3,.LC8@l(3)
	bl gettext
	.loc 4 227 0 discriminator 3
	lis 29,.LC9@ha
	mr 24,3
	la 29,.LC9@l(29)
	mr 3,29
	bl gettext
	.loc 4 227 0 discriminator 4
	lis 30,.LC10@ha
	mr 23,3
	la 30,.LC10@l(30)
	mr 3,30
	bl gettext
	.loc 4 227 0 discriminator 5
	mr 8,3
	mr 4,26
	mr 3,25
	mr 5,27
	mr 6,24
	mr 7,23
	bl _Z12WindowPromptPKcS0_S0_S0_S0_S0_
.LVL299:
.LBB4092:
	.loc 4 228 0 is_stmt 1 discriminator 6
	cmpwi 7,3,1
	beq- 7,.L307
.LBB4093:
	.loc 4 234 0
	cmpwi 7,3,2
	beq- 7,.L308
	.loc 4 247 0
	cmpwi 7,3,3
	beq- 7,.L304
	lis 27,_ZNSs4_Rep20_S_empty_rep_storageE@ha
	la 27,_ZNSs4_Rep20_S_empty_rep_storageE@l(27)
.LVL300:
.L258:
.LBE4093:
.LBE4092:
.LBB4199:
.LBB4200:
.LBB4201:
.LBB4202:
.LBB4203:
.LBB4204:
	.loc 7 288 0
	lwz 9,36(1)
.LBE4204:
.LBE4203:
.LBE4202:
	.loc 7 534 0
	addi 3,9,-12
.LVL301:
.LBB4205:
.LBB4206:
	.loc 7 235 0
	cmpw 7,3,27
	bne- 7,.L309
.LVL302:
.L250:
.LBE4206:
.LBE4205:
.LBE4201:
.LBE4200:
.LBE4199:
.LBE4224:
	.loc 4 253 0
	lwz 0,84(1)
	lwz 23,44(1)
	mtlr 0
	lwz 24,48(1)
	lwz 25,52(1)
	lwz 26,56(1)
	lwz 27,60(1)
	lwz 28,64(1)
	lwz 29,68(1)
	lwz 30,72(1)
	lwz 31,76(1)
.LVL303:
	addi 1,1,80
	.cfi_remember_state
.LCFI65:
	.cfi_def_cfa_offset 0
	.cfi_restore 31
	.cfi_restore 30
	.cfi_restore 29
	.cfi_restore 28
	.cfi_restore 27
	.cfi_restore 26
	.cfi_restore 25
	.cfi_restore 24
	.cfi_restore 23
	blr
.LVL304:
.L304:
.LCFI66:
	.cfi_restore_state
.LBB4225:
.LBB4217:
.LBB4178:
	.loc 4 249 0
	addi 3,1,16
.LVL305:
	addi 4,1,36
.LVL306:
	bl _ZNSsC1ERKSs
.LEHE34:
.LVL307:
	.loc 4 249 0 is_stmt 0 discriminator 1
	addi 3,1,16
.LEHB35:
	bl _Z19SelectLanguageFilesSs
.LEHE35:
.LVL308:
.LBB4094:
.LBB4095:
.LBB4096:
.LBB4097:
.LBB4098:
.LBB4099:
	.loc 7 288 0 is_stmt 1
	lwz 9,16(1)
.LBE4099:
.LBE4098:
.LBE4097:
.LBB4100:
.LBB4101:
	.loc 7 235 0
	lis 27,_ZNSs4_Rep20_S_empty_rep_storageE@ha
	la 27,_ZNSs4_Rep20_S_empty_rep_storageE@l(27)
.LBE4101:
.LBE4100:
	.loc 7 534 0
	addi 3,9,-12
.LVL309:
.LBB4110:
.LBB4108:
	.loc 7 235 0
	cmpw 7,3,27
	bne- 7,.L310
.LVL310:
.L284:
.LBE4108:
.LBE4110:
.LBE4096:
.LBE4095:
.LBE4094:
	.loc 4 251 0 discriminator 1
	lwz 3,232(31)
	lwz 9,0(3)
	lwz 0,204(9)
	mtctr 0
.LEHB36:
	bctrl
	b .L258
.LVL311:
.L307:
.LBE4178:
	.loc 4 230 0
	addi 3,1,32
.LVL312:
	addi 4,1,36
.LVL313:
	bl _ZNSsC1ERKSs
.LEHE36:
.LVL314:
	.loc 4 230 0 is_stmt 0 discriminator 1
	addi 3,1,32
.LEHB37:
	bl _Z24DownloadAllLanguageFilesSs
.LEHE37:
.LVL315:
.LBB4179:
.LBB4180:
.LBB4181:
.LBB4182:
.LBB4183:
.LBB4184:
	.loc 7 288 0 is_stmt 1
	lwz 9,32(1)
.LBE4184:
.LBE4183:
.LBE4182:
.LBB4185:
.LBB4186:
	.loc 7 235 0
	lis 27,_ZNSs4_Rep20_S_empty_rep_storageE@ha
	la 27,_ZNSs4_Rep20_S_empty_rep_storageE@l(27)
.LBE4186:
.LBE4185:
	.loc 7 534 0
	addi 3,9,-12
.LVL316:
.LBB4194:
.LBB4193:
	.loc 7 235 0
	cmpw 7,3,27
	beq+ 7,.L284
.LVL317:
.LBB4187:
.LBB4188:
.LBB4189:
	.loc 8 66 0
	lwz 11,-4(9)
.LVL318:
.LBE4189:
.LBE4188:
.LBE4187:
	.loc 7 240 0
	cmpwi 7,11,0
.LBB4192:
.LBB4191:
.LBB4190:
	.loc 8 67 0
	addi 11,11,-1
	stw 11,-4(9)
.LBE4190:
.LBE4191:
.LBE4192:
	.loc 7 240 0
	bgt+ 7,.L284
	.loc 7 244 0
	addi 4,1,13
	bl _ZNSs4_Rep10_M_destroyERKSaIcE
.LVL319:
	b .L284
.LVL320:
.L308:
.LBE4193:
.LBE4194:
.LBE4181:
.LBE4180:
.LBE4179:
.LBB4195:
.LBB4114:
.LBB4115:
	.loc 4 236 0
	addi 3,1,28
.LVL321:
	addi 4,1,36
.LVL322:
.LEHB38:
	bl _ZNSsC1ERKSs
.LEHE38:
.LVL323:
	.loc 4 236 0 is_stmt 0 discriminator 1
	addi 3,1,28
.LEHB39:
	bl _Z19UpdateLanguageFilesSs
.LEHE39:
.LBB4116:
.LBB4117:
.LBB4118:
.LBB4119:
.LBB4120:
.LBB4121:
	.loc 7 288 0 is_stmt 1 discriminator 1
	lwz 9,28(1)
.LBE4121:
.LBE4120:
.LBE4119:
.LBB4122:
.LBB4123:
	.loc 7 235 0 discriminator 1
	lis 27,_ZNSs4_Rep20_S_empty_rep_storageE@ha
.LBE4123:
.LBE4122:
.LBE4118:
.LBE4117:
.LBE4116:
	.loc 4 236 0 discriminator 1
	mr 26,3
.LVL324:
.LBB4140:
.LBB4138:
.LBB4136:
.LBB4133:
.LBB4130:
	.loc 7 235 0 discriminator 1
	la 27,_ZNSs4_Rep20_S_empty_rep_storageE@l(27)
.LBE4130:
.LBE4133:
	.loc 7 534 0 discriminator 1
	addi 3,9,-12
.LVL325:
.LBB4134:
.LBB4131:
	.loc 7 235 0 discriminator 1
	cmpw 7,3,27
	bne- 7,.L311
.LVL326:
.L265:
.LBE4131:
.LBE4134:
.LBE4136:
.LBE4138:
.LBE4140:
	.loc 4 236 0 discriminator 2
	cmpwi 7,26,0
	bne- 7,.L284
.LBB4141:
	.loc 4 238 0
	lis 3,.LC11@ha
	la 3,.LC11@l(3)
.LEHB40:
	bl gettext
	mr 25,3
	lis 3,.LC12@ha
	la 3,.LC12@l(3)
	bl gettext
	.loc 4 238 0 is_stmt 0 discriminator 1
	mr 26,3
	mr 3,28
	bl gettext
	.loc 4 238 0 discriminator 2
	mr 28,3
	mr 3,29
	bl gettext
	.loc 4 238 0 discriminator 3
	mr 29,3
	mr 3,30
	bl gettext
	.loc 4 238 0 discriminator 4
	mr 7,3
	mr 4,26
	mr 3,25
	mr 5,28
	mr 6,29
	li 8,0
	bl _Z12WindowPromptPKcS0_S0_S0_S0_S0_
.LVL327:
	.loc 4 239 0 is_stmt 1 discriminator 5
	cmpwi 7,3,1
	beq- 7,.L312
	.loc 4 241 0
	cmpwi 7,3,2
	bne+ 7,.L284
	.loc 4 242 0
	addi 3,1,20
.LVL328:
	addi 4,1,36
.LVL329:
	bl _ZNSsC1ERKSs
.LEHE40:
.LVL330:
	.loc 4 242 0 is_stmt 0 discriminator 1
	addi 3,1,20
.LEHB41:
	bl _Z19SelectLanguageFilesSs
.LEHE41:
.LVL331:
.LBB4142:
.LBB4143:
.LBB4144:
.LBB4145:
.LBB4146:
.LBB4147:
	.loc 7 288 0 is_stmt 1
	lwz 9,20(1)
.LBE4147:
.LBE4146:
.LBE4145:
	.loc 7 534 0
	addi 3,9,-12
.LVL332:
.LBB4148:
.LBB4149:
	.loc 7 235 0
	cmpw 7,3,27
	beq+ 7,.L284
.LVL333:
.LBB4150:
.LBB4151:
.LBB4152:
	.loc 8 66 0
	lwz 11,-4(9)
.LVL334:
.LBE4152:
.LBE4151:
.LBE4150:
	.loc 7 240 0
	cmpwi 7,11,0
.LBB4155:
.LBB4154:
.LBB4153:
	.loc 8 67 0
	addi 11,11,-1
	stw 11,-4(9)
.LBE4153:
.LBE4154:
.LBE4155:
	.loc 7 240 0
	bgt+ 7,.L284
	.loc 7 244 0
	addi 4,1,10
	bl _ZNSs4_Rep10_M_destroyERKSaIcE
.LVL335:
	b .L284
.LVL336:
.L312:
.LBE4149:
.LBE4148:
.LBE4144:
.LBE4143:
.LBE4142:
	.loc 4 240 0
	addi 3,1,24
.LVL337:
	addi 4,1,36
.LVL338:
.LEHB42:
	bl _ZNSsC1ERKSs
.LEHE42:
.LVL339:
	.loc 4 240 0 is_stmt 0 discriminator 1
	addi 3,1,24
.LEHB43:
	bl _Z24DownloadAllLanguageFilesSs
.LEHE43:
.LVL340:
.LBB4156:
.LBB4157:
.LBB4158:
.LBB4159:
.LBB4160:
.LBB4161:
	.loc 7 288 0 is_stmt 1
	lwz 9,24(1)
.LBE4161:
.LBE4160:
.LBE4159:
	.loc 7 534 0
	addi 3,9,-12
.LVL341:
.LBB4162:
.LBB4163:
	.loc 7 235 0
	cmpw 7,3,27
	beq+ 7,.L284
.LVL342:
.LBB4164:
.LBB4165:
.LBB4166:
	.loc 8 66 0
	lwz 11,-4(9)
.LVL343:
.LBE4166:
.LBE4165:
.LBE4164:
	.loc 7 240 0
	cmpwi 7,11,0
.LBB4169:
.LBB4168:
.LBB4167:
	.loc 8 67 0
	addi 11,11,-1
	stw 11,-4(9)
.LBE4167:
.LBE4168:
.LBE4169:
	.loc 7 240 0
	bgt+ 7,.L284
	.loc 7 244 0
	addi 4,1,11
	bl _ZNSs4_Rep10_M_destroyERKSaIcE
.LVL344:
	b .L284
.LVL345:
.L309:
.LBE4163:
.LBE4162:
.LBE4158:
.LBE4157:
.LBE4156:
.LBE4141:
.LBE4115:
.LBE4114:
.LBE4195:
.LBE4217:
.LBB4218:
.LBB4216:
.LBB4215:
.LBB4214:
.LBB4213:
.LBB4207:
.LBB4208:
.LBB4209:
	.loc 8 66 0
	lwz 11,-4(9)
.LVL346:
.LBE4209:
.LBE4208:
.LBE4207:
	.loc 7 240 0
	cmpwi 7,11,0
.LBB4212:
.LBB4211:
.LBB4210:
	.loc 8 67 0
	addi 11,11,-1
	stw 11,-4(9)
.LBE4210:
.LBE4211:
.LBE4212:
	.loc 7 240 0
	bgt+ 7,.L250
	.loc 7 244 0
	addi 4,1,8
	bl _ZNSs4_Rep10_M_destroyERKSaIcE
.LVL347:
	b .L250
.LVL348:
.L310:
.LBE4213:
.LBE4214:
.LBE4215:
.LBE4216:
.LBE4218:
.LBB4219:
.LBB4196:
.LBB4175:
.LBB4113:
.LBB4112:
.LBB4111:
.LBB4109:
.LBB4102:
.LBB4103:
.LBB4104:
	.loc 8 66 0
	lwz 11,-4(9)
.LVL349:
.LBE4104:
.LBE4103:
.LBE4102:
	.loc 7 240 0
	cmpwi 7,11,0
.LBB4107:
.LBB4106:
.LBB4105:
	.loc 8 67 0
	addi 11,11,-1
	stw 11,-4(9)
.LBE4105:
.LBE4106:
.LBE4107:
	.loc 7 240 0
	bgt+ 7,.L284
	.loc 7 244 0
	addi 4,1,9
	bl _ZNSs4_Rep10_M_destroyERKSaIcE
.LVL350:
	b .L284
.LVL351:
.L302:
	mr 31,3
.LVL352:
.LBE4109:
.LBE4111:
.LBE4112:
.LBE4113:
.LBE4175:
	.loc 4 249 0
	addi 3,1,16
	bl _ZNSsD1Ev
.LVL353:
.L292:
.LBE4196:
.LBE4219:
	.loc 4 252 0
	addi 3,1,36
	bl _ZNSsD1Ev
	mr 3,31
.LEHB44:
	bl _Unwind_Resume
.LEHE44:
.LVL354:
.L297:
	mr 31,3
.LVL355:
	b .L292
.LVL356:
.L300:
	mr 31,3
.LVL357:
.LBB4220:
.LBB4197:
.LBB4176:
.LBB4173:
.LBB4170:
	.loc 4 240 0
	addi 3,1,24
	bl _ZNSsD1Ev
	b .L292
.LVL358:
.L311:
.LBE4170:
.LBB4171:
.LBB4139:
.LBB4137:
.LBB4135:
.LBB4132:
.LBB4124:
.LBB4125:
.LBB4126:
	.loc 8 66 0
	lwz 11,-4(9)
.LVL359:
.LBE4126:
.LBE4125:
.LBE4124:
	.loc 7 240 0
	cmpwi 7,11,0
.LBB4129:
.LBB4128:
.LBB4127:
	.loc 8 67 0
	addi 11,11,-1
	stw 11,-4(9)
.LBE4127:
.LBE4128:
.LBE4129:
	.loc 7 240 0
	bgt+ 7,.L265
	.loc 7 244 0
	addi 4,1,12
	bl _ZNSs4_Rep10_M_destroyERKSaIcE
.LVL360:
	b .L265
.LVL361:
.L299:
	mr 31,3
.LVL362:
.LBE4132:
.LBE4135:
.LBE4137:
.LBE4139:
.LBE4171:
	.loc 4 236 0
	addi 3,1,28
	bl _ZNSsD1Ev
	b .L292
.LVL363:
.L298:
	mr 31,3
.LVL364:
.LBE4173:
.LBE4176:
.LBE4197:
	.loc 4 230 0
	addi 3,1,32
	bl _ZNSsD1Ev
	b .L292
.LVL365:
.L301:
	mr 31,3
.LVL366:
.LBB4198:
.LBB4177:
.LBB4174:
.LBB4172:
	.loc 4 242 0
	addi 3,1,20
	bl _ZNSsD1Ev
	b .L292
.LBE4172:
.LBE4174:
.LBE4177:
.LBE4198:
.LBE4220:
.LBE4225:
	.cfi_endproc
.LFE1692:
	.section	.gcc_except_table
.LLSDA1692:
	.byte	0xff
	.byte	0xff
	.byte	0x1
	.uleb128 .LLSDACSE1692-.LLSDACSB1692
.LLSDACSB1692:
	.uleb128 .LEHB33-.LFB1692
	.uleb128 .LEHE33-.LEHB33
	.uleb128 0
	.uleb128 0
	.uleb128 .LEHB34-.LFB1692
	.uleb128 .LEHE34-.LEHB34
	.uleb128 .L297-.LFB1692
	.uleb128 0
	.uleb128 .LEHB35-.LFB1692
	.uleb128 .LEHE35-.LEHB35
	.uleb128 .L302-.LFB1692
	.uleb128 0
	.uleb128 .LEHB36-.LFB1692
	.uleb128 .LEHE36-.LEHB36
	.uleb128 .L297-.LFB1692
	.uleb128 0
	.uleb128 .LEHB37-.LFB1692
	.uleb128 .LEHE37-.LEHB37
	.uleb128 .L298-.LFB1692
	.uleb128 0
	.uleb128 .LEHB38-.LFB1692
	.uleb128 .LEHE38-.LEHB38
	.uleb128 .L297-.LFB1692
	.uleb128 0
	.uleb128 .LEHB39-.LFB1692
	.uleb128 .LEHE39-.LEHB39
	.uleb128 .L299-.LFB1692
	.uleb128 0
	.uleb128 .LEHB40-.LFB1692
	.uleb128 .LEHE40-.LEHB40
	.uleb128 .L297-.LFB1692
	.uleb128 0
	.uleb128 .LEHB41-.LFB1692
	.uleb128 .LEHE41-.LEHB41
	.uleb128 .L301-.LFB1692
	.uleb128 0
	.uleb128 .LEHB42-.LFB1692
	.uleb128 .LEHE42-.LEHB42
	.uleb128 .L297-.LFB1692
	.uleb128 0
	.uleb128 .LEHB43-.LFB1692
	.uleb128 .LEHE43-.LEHB43
	.uleb128 .L300-.LFB1692
	.uleb128 0
	.uleb128 .LEHB44-.LFB1692
	.uleb128 .LEHE44-.LEHB44
	.uleb128 0
	.uleb128 0
.LLSDACSE1692:
	.section	".text"
	.size	_ZN11PathBrowser17OnWifiButtonClickEP9GuiButtoniRK6_POINT, .-_ZN11PathBrowser17OnWifiButtonClickEP9GuiButtoniRK6_POINT
	.align 2
	.globl _ZN11PathBrowser14SetDeviceImageEv
	.type	_ZN11PathBrowser14SetDeviceImageEv, @function
_ZN11PathBrowser14SetDeviceImageEv:
.LFB1688:
	.loc 4 174 0
	.cfi_startproc
	.cfi_personality 0,__gxx_personality_v0
	.cfi_lsda 0,.LLSDA1688
.LVL367:
	mflr 0
	stwu 1,-16(1)
.LCFI67:
	.cfi_def_cfa_offset 16
	.cfi_register 65, 0
	stw 31,12(1)
	mr 31,3
	.cfi_offset 31, -4
	stw 0,20(1)
	stw 30,8(1)
	.loc 4 175 0
	lwz 3,268(3)
.LVL368:
	cmpwi 7,3,0
	beq- 7,.L314
	.cfi_offset 30, -8
	.cfi_offset 65, 4
	.loc 4 176 0 discriminator 1
	lwz 9,0(3)
	lwz 0,4(9)
	mtctr 0
.LEHB45:
	bctrl
.L314:
	.loc 4 178 0
	lwz 0,220(31)
	.loc 4 179 0
	li 3,196
	.loc 4 178 0
	cmpwi 7,0,0
	bne- 7,.L315
	.loc 4 179 0
	bl _Znwj
.LEHE45:
	lwz 4,248(31)
	mr 30,3
.LEHB46:
	bl _ZN8GuiImageC1EP12GuiImageData
.LEHE46:
	.loc 4 181 0 discriminator 1
	stw 30,268(31)
	.loc 4 183 0 discriminator 1
	mr 4,30
	lwz 3,288(31)
.LEHB47:
	bl _ZN9GuiButton8SetImageEP8GuiImage
	.loc 4 184 0 discriminator 1
	lwz 3,288(31)
	lwz 4,268(31)
	bl _ZN9GuiButton12SetImageOverEP8GuiImage
	.loc 4 185 0 discriminator 1
	lwz 0,20(1)
	lwz 30,8(1)
	mtlr 0
	lwz 31,12(1)
.LVL369:
	addi 1,1,16
	.cfi_remember_state
.LCFI68:
	.cfi_def_cfa_offset 0
	.cfi_restore 31
	.cfi_restore 30
	blr
.LVL370:
.L315:
.LCFI69:
	.cfi_restore_state
	.loc 4 181 0
	bl _Znwj
.LEHE47:
	lwz 4,252(31)
	mr 30,3
.LEHB48:
	bl _ZN8GuiImageC1EP12GuiImageData
.LEHE48:
	stw 30,268(31)
	.loc 4 183 0
	mr 4,30
	lwz 3,288(31)
.LEHB49:
	bl _ZN9GuiButton8SetImageEP8GuiImage
	.loc 4 184 0
	lwz 3,288(31)
	lwz 4,268(31)
	bl _ZN9GuiButton12SetImageOverEP8GuiImage
	.loc 4 185 0
	lwz 0,20(1)
	lwz 30,8(1)
	mtlr 0
	lwz 31,12(1)
.LVL371:
	addi 1,1,16
	.cfi_remember_state
	.cfi_restore 30
	.cfi_restore 31
.LCFI70:
	.cfi_def_cfa_offset 0
	blr
.LVL372:
.L319:
.L322:
.LCFI71:
	.cfi_restore_state
	mr 31,3
.LVL373:
	.loc 4 181 0
	mr 3,30
	bl _ZdlPv
	mr 3,31
	bl _Unwind_Resume
.LEHE49:
.LVL374:
.L320:
	b .L322
	.cfi_endproc
.LFE1688:
	.section	.gcc_except_table
.LLSDA1688:
	.byte	0xff
	.byte	0xff
	.byte	0x1
	.uleb128 .LLSDACSE1688-.LLSDACSB1688
.LLSDACSB1688:
	.uleb128 .LEHB45-.LFB1688
	.uleb128 .LEHE45-.LEHB45
	.uleb128 0
	.uleb128 0
	.uleb128 .LEHB46-.LFB1688
	.uleb128 .LEHE46-.LEHB46
	.uleb128 .L319-.LFB1688
	.uleb128 0
	.uleb128 .LEHB47-.LFB1688
	.uleb128 .LEHE47-.LEHB47
	.uleb128 0
	.uleb128 0
	.uleb128 .LEHB48-.LFB1688
	.uleb128 .LEHE48-.LEHB48
	.uleb128 .L320-.LFB1688
	.uleb128 0
	.uleb128 .LEHB49-.LFB1688
	.uleb128 .LEHE49-.LEHB49
	.uleb128 0
	.uleb128 0
.LLSDACSE1688:
	.section	".text"
	.size	_ZN11PathBrowser14SetDeviceImageEv, .-_ZN11PathBrowser14SetDeviceImageEv
	.align 2
	.globl _ZN11PathBrowser16OnDevButtonClickEP9GuiButtoniRK6_POINT
	.type	_ZN11PathBrowser16OnDevButtonClickEP9GuiButtoniRK6_POINT, @function
_ZN11PathBrowser16OnDevButtonClickEP9GuiButtoniRK6_POINT:
.LFB1691:
	.loc 4 208 0
	.cfi_startproc
	.cfi_personality 0,__gxx_personality_v0
	.cfi_lsda 0,.LLSDA1691
.LVL375:
	mflr 0
	stwu 1,-40(1)
.LCFI72:
	.cfi_def_cfa_offset 40
	.cfi_register 65, 0
	stw 28,24(1)
	stw 0,44(1)
	stw 29,28(1)
	stw 30,32(1)
	stw 31,36(1)
	mr 31,3
	.cfi_offset 31, -4
	.cfi_offset 30, -8
	.cfi_offset 29, -12
	.cfi_offset 65, 4
	.cfi_offset 28, -16
.LVL376:
.L325:
	.loc 4 211 0
	lwz 9,220(31)
	addi 0,9,1
	.loc 4 212 0
	cmpwi 7,0,10
	.loc 4 211 0
	stw 0,220(31)
	.loc 4 212 0
	ble- 7,.L324
	.loc 4 213 0
	li 0,0
	stw 0,220(31)
.L324:
.LEHB50:
	.loc 4 215 0
	bl _ZN13DeviceHandler8InstanceEv
	lwz 4,220(31)
	bl _ZN13DeviceHandler10IsInsertedEi
	.loc 4 209 0
	cmpwi 7,3,0
	beq+ 7,.L325
	.loc 4 217 0
	lwz 0,220(31)
	lis 4,.LANCHOR0@ha
	lwz 30,224(31)
	la 4,.LANCHOR0@l(4)
	mulli 0,0,6
	lis 3,.LC13@ha
	lwz 9,0(30)
	la 3,.LC13@l(3)
	add 4,4,0
	lwz 29,8(9)
	crxor 6,6,6
	bl _Z3fmtPKcz
	mr 4,3
	addi 5,1,10
	addi 3,1,16
	bl _ZNSsC1EPKcRKSaIcE
.LEHE50:
	mr 3,30
	addi 4,1,16
	mtctr 29
.LEHB51:
	bctrl
.LEHE51:
.LVL377:
.LBB4272:
.LBB4273:
.LBB4274:
.LBB4275:
.LBB4276:
.LBB4277:
	.loc 7 288 0
	lwz 9,16(1)
.LBE4277:
.LBE4276:
.LBE4275:
.LBB4278:
.LBB4279:
	.loc 7 235 0
	lis 30,_ZNSs4_Rep20_S_empty_rep_storageE@ha
	la 30,_ZNSs4_Rep20_S_empty_rep_storageE@l(30)
.LBE4279:
.LBE4278:
	.loc 7 534 0
	addi 3,9,-12
.LVL378:
.LBB4288:
.LBB4286:
	.loc 7 235 0
	cmpw 7,3,30
	bne- 7,.L345
.LVL379:
.L333:
.LBE4286:
.LBE4288:
.LBE4274:
.LBE4273:
.LBE4272:
	.loc 4 218 0 discriminator 1
	lwz 4,228(31)
	addi 3,1,12
	lwz 29,284(31)
	lwz 9,0(4)
	lwz 0,72(9)
	lwz 9,0(29)
	mtctr 0
	lwz 28,204(9)
.LEHB52:
	bctrl
.LEHE52:
	mr 3,29
	addi 4,1,12
	mtctr 28
.LEHB53:
	bctrl
.LEHE53:
.LVL380:
.LBB4292:
.LBB4293:
.LBB4294:
.LBB4295:
.LBB4296:
.LBB4297:
	.loc 7 288 0
	lwz 9,12(1)
.LBE4297:
.LBE4296:
.LBE4295:
	.loc 7 534 0
	addi 3,9,-12
.LVL381:
.LBB4298:
.LBB4299:
	.loc 7 235 0
	cmpw 7,3,30
	bne- 7,.L346
.LVL382:
.L339:
.LBE4299:
.LBE4298:
.LBE4294:
.LBE4293:
.LBE4292:
	.loc 4 220 0 discriminator 1
	mr 3,31
.LEHB54:
	bl _ZN11PathBrowser14SetDeviceImageEv
	.loc 4 221 0 discriminator 1
	lwz 0,44(1)
	lwz 28,24(1)
	mtlr 0
	lwz 29,28(1)
	lwz 30,32(1)
	lwz 31,36(1)
.LVL383:
	addi 1,1,40
	.cfi_remember_state
.LCFI73:
	.cfi_def_cfa_offset 0
	.cfi_restore 31
	.cfi_restore 30
	.cfi_restore 29
	.cfi_restore 28
	blr
.LVL384:
.L345:
.LCFI74:
	.cfi_restore_state
.LBB4310:
.LBB4291:
.LBB4290:
.LBB4289:
.LBB4287:
.LBB4280:
.LBB4281:
.LBB4282:
	.loc 8 66 0
	lwz 11,-4(9)
.LVL385:
.LBE4282:
.LBE4281:
.LBE4280:
	.loc 7 240 0
	cmpwi 7,11,0
.LBB4285:
.LBB4284:
.LBB4283:
	.loc 8 67 0
	addi 11,11,-1
	stw 11,-4(9)
.LBE4283:
.LBE4284:
.LBE4285:
	.loc 7 240 0
	bgt+ 7,.L333
	.loc 7 244 0
	addi 4,1,9
	bl _ZNSs4_Rep10_M_destroyERKSaIcE
.LVL386:
	b .L333
.LVL387:
.L346:
.LBE4287:
.LBE4289:
.LBE4290:
.LBE4291:
.LBE4310:
.LBB4311:
.LBB4309:
.LBB4308:
.LBB4307:
.LBB4306:
.LBB4300:
.LBB4301:
.LBB4302:
	.loc 8 66 0
	lwz 11,-4(9)
.LVL388:
.LBE4302:
.LBE4301:
.LBE4300:
	.loc 7 240 0
	cmpwi 7,11,0
.LBB4305:
.LBB4304:
.LBB4303:
	.loc 8 67 0
	addi 11,11,-1
	stw 11,-4(9)
.LBE4303:
.LBE4304:
.LBE4305:
	.loc 7 240 0
	bgt+ 7,.L339
	.loc 7 244 0
	addi 4,1,8
	bl _ZNSs4_Rep10_M_destroyERKSaIcE
.LVL389:
	b .L339
.LVL390:
.L342:
	mr 31,3
.LVL391:
.LBE4306:
.LBE4307:
.LBE4308:
.LBE4309:
.LBE4311:
	.loc 4 217 0
	addi 3,1,16
	bl _ZNSsD1Ev
	mr 3,31
	bl _Unwind_Resume
.LVL392:
.L343:
	mr 31,3
.LVL393:
	.loc 4 218 0
	addi 3,1,12
	bl _ZNSsD1Ev
	mr 3,31
	bl _Unwind_Resume
.LEHE54:
	.cfi_endproc
.LFE1691:
	.section	.gcc_except_table
.LLSDA1691:
	.byte	0xff
	.byte	0xff
	.byte	0x1
	.uleb128 .LLSDACSE1691-.LLSDACSB1691
.LLSDACSB1691:
	.uleb128 .LEHB50-.LFB1691
	.uleb128 .LEHE50-.LEHB50
	.uleb128 0
	.uleb128 0
	.uleb128 .LEHB51-.LFB1691
	.uleb128 .LEHE51-.LEHB51
	.uleb128 .L342-.LFB1691
	.uleb128 0
	.uleb128 .LEHB52-.LFB1691
	.uleb128 .LEHE52-.LEHB52
	.uleb128 0
	.uleb128 0
	.uleb128 .LEHB53-.LFB1691
	.uleb128 .LEHE53-.LEHB53
	.uleb128 .L343-.LFB1691
	.uleb128 0
	.uleb128 .LEHB54-.LFB1691
	.uleb128 .LEHE54-.LEHB54
	.uleb128 0
	.uleb128 0
.LLSDACSE1691:
	.section	".text"
	.size	_ZN11PathBrowser16OnDevButtonClickEP9GuiButtoniRK6_POINT, .-_ZN11PathBrowser16OnDevButtonClickEP9GuiButtoniRK6_POINT
	.section	.text._ZNSt6vectorIP10GuiElementSaIS1_EE13_M_insert_auxEN9__gnu_cxx17__normal_iteratorIPS1_S3_EERKS1_,"axG",@progbits,_ZNSt6vectorIP10GuiElementSaIS1_EE13_M_insert_auxEN9__gnu_cxx17__normal_iteratorIPS1_S3_EERKS1_,comdat
	.align 2
	.weak	_ZNSt6vectorIP10GuiElementSaIS1_EE13_M_insert_auxEN9__gnu_cxx17__normal_iteratorIPS1_S3_EERKS1_
	.type	_ZNSt6vectorIP10GuiElementSaIS1_EE13_M_insert_auxEN9__gnu_cxx17__normal_iteratorIPS1_S3_EERKS1_, @function
_ZNSt6vectorIP10GuiElementSaIS1_EE13_M_insert_auxEN9__gnu_cxx17__normal_iteratorIPS1_S3_EERKS1_:
.LFB1882:
	.file 9 "d:\\devkitpro\\devkitppc\\bin\\../lib/gcc/powerpc-eabi/4.6.3/../../../../powerpc-eabi/include/c++/4.6.3/bits/vector.tcc"
	.loc 9 300 0
	.cfi_startproc
.LVL394:
	mflr 0
	stwu 1,-40(1)
.LCFI75:
	.cfi_def_cfa_offset 40
	.cfi_register 65, 0
	stw 27,20(1)
	stw 0,44(1)
	stw 30,32(1)
.LBB4374:
	.loc 9 304 0
	lwz 27,4(3)
	.cfi_offset 30, -8
	.cfi_offset 65, 4
	.cfi_offset 27, -20
	lwz 0,8(3)
.LBE4374:
	.loc 9 300 0
	stw 31,36(1)
	mr 31,3
	.cfi_offset 31, -4
.LBB4499:
	.loc 9 304 0
	cmpw 7,27,0
.LBE4499:
	.loc 9 300 0
	stw 26,16(1)
	stw 28,24(1)
	stw 29,28(1)
	.loc 9 300 0
	lwz 30,0(4)
.LVL395:
.LBB4500:
	.loc 9 304 0
	beq- 7,.L348
	.cfi_offset 29, -12
	.cfi_offset 28, -16
	.cfi_offset 26, -24
.LVL396:
.LBB4375:
.LBB4376:
.LBB4377:
	.loc 6 108 0
	cmpwi 7,27,0
	li 3,0
.LVL397:
	beq- 7,.L349
	lwz 0,-4(27)
	stw 0,0(27)
	lwz 3,4(31)
.L349:
.LBE4377:
.LBE4376:
	.loc 9 313 0
	addi 0,3,-4
	.loc 9 309 0
	addi 9,3,4
.LBB4378:
.LBB4379:
.LBB4380:
.LBB4381:
.LBB4382:
.LBB4383:
	.file 10 "d:\\devkitpro\\devkitppc\\bin\\../lib/gcc/powerpc-eabi/4.6.3/../../../../powerpc-eabi/include/c++/4.6.3/bits/stl_algobase.h"
	.loc 10 559 0
	subf 0,30,0
.LBE4383:
.LBE4382:
.LBE4381:
.LBE4380:
.LBE4379:
.LBE4378:
	.loc 9 309 0
	stw 9,4(31)
.LBB4399:
.LBB4396:
.LBB4393:
.LBB4390:
.LBB4387:
.LBB4384:
	.loc 10 560 0
	srawi. 0,0,2
.LBE4384:
.LBE4387:
.LBE4390:
.LBE4393:
.LBE4396:
.LBE4399:
	.loc 9 311 0
	lwz 31,0(5)
.LVL398:
.LBB4400:
.LBB4397:
.LBB4394:
.LBB4391:
.LBB4388:
.LBB4385:
	.loc 10 560 0
	bne- 0,.L364
.LVL399:
.L350:
.LBE4385:
.LBE4388:
.LBE4391:
.LBE4394:
.LBE4397:
.LBE4400:
.LBE4375:
.LBE4500:
	.loc 9 373 0
	lwz 0,44(1)
.LBB4501:
.LBB4402:
	.loc 9 317 0
	stw 31,0(30)
.LBE4402:
.LBE4501:
	.loc 9 373 0
	mtlr 0
	lwz 26,16(1)
	lwz 27,20(1)
.LVL400:
	lwz 28,24(1)
	lwz 29,28(1)
	lwz 30,32(1)
.LVL401:
	lwz 31,36(1)
.LVL402:
	addi 1,1,40
	.cfi_remember_state
.LCFI76:
	.cfi_def_cfa_offset 0
	.cfi_restore 31
	.cfi_restore 30
	.cfi_restore 29
	.cfi_restore 28
	.cfi_restore 27
	.cfi_restore 26
	blr
.LVL403:
.L364:
.LCFI77:
	.cfi_restore_state
.LBB4502:
.LBB4403:
.LBB4401:
.LBB4398:
.LBB4395:
.LBB4392:
.LBB4389:
.LBB4386:
	.loc 10 561 0
	slwi 5,0,2
.LVL404:
	mr 4,30
	subf 3,5,3
.LVL405:
	bl memmove
.LVL406:
	b .L350
.LVL407:
.L348:
.LBE4386:
.LBE4389:
.LBE4392:
.LBE4395:
.LBE4398:
.LBE4401:
.LBE4403:
.LBB4404:
.LBB4405:
.LBB4406:
.LBB4407:
.LBB4408:
	.file 11 "d:\\devkitpro\\devkitppc\\bin\\../lib/gcc/powerpc-eabi/4.6.3/../../../../powerpc-eabi/include/c++/4.6.3/bits/stl_vector.h"
	.loc 11 571 0
	lwz 28,0(3)
	subf 27,28,27
.LBE4408:
.LBE4407:
.LBB4409:
.LBB4410:
	.loc 10 215 0
	srawi. 27,27,2
	beq- 0,.L352
.LBE4410:
.LBE4409:
	.loc 11 1244 0
	slwi 0,27,1
.LVL408:
	.loc 11 1245 0
	cmplw 7,27,0
	ble- 7,.L365
.L353:
.LVL409:
.LBE4406:
.LBE4405:
.LBB4413:
.LBB4414:
	.file 12 "d:\\devkitpro\\devkitppc\\bin\\../lib/gcc/powerpc-eabi/4.6.3/../../../../powerpc-eabi/include/c++/4.6.3/bits/stl_iterator.h"
	.loc 12 892 0
	subf 28,28,30
.LBE4414:
.LBE4413:
	.loc 9 326 0
	li 27,-4
.LBB4420:
.LBB4415:
	.loc 12 892 0
	srawi 28,28,2
.LVL410:
.L359:
.LBE4415:
.LBE4420:
.LBB4421:
.LBB4422:
.LBB4423:
.LBB4424:
	.loc 6 92 0
	mr 3,27
.LVL411:
	stw 5,8(1)
	bl _Znwj
.LVL412:
	lwz 5,8(1)
	mr 29,3
.L354:
.LVL413:
.LBE4424:
.LBE4423:
.LBE4422:
.LBE4421:
	.loc 9 335 0
	slwi 28,28,2
.LVL414:
	add 0,29,28
.LVL415:
.LBB4427:
.LBB4428:
	.loc 6 108 0
	cmpwi 7,0,0
	beq- 7,.L355
	lwz 0,0(5)
.LVL416:
	stwx 0,29,28
.L355:
.LVL417:
.LBE4428:
.LBE4427:
	.loc 9 343 0
	lwz 4,0(31)
.LVL418:
.LBB4429:
.LBB4430:
.LBB4431:
.LBB4432:
.LBB4433:
.LBB4434:
.LBB4435:
.LBB4436:
.LBB4437:
.LBB4438:
.LBB4439:
	.loc 10 365 0
	li 28,0
	.loc 10 364 0
	subf 0,4,30
.LVL419:
	.loc 10 365 0
	srawi. 0,0,2
.LVL420:
	beq+ 0,.L356
	.loc 10 366 0
	slwi 28,0,2
	mr 3,29
	mr 5,28
.LVL421:
	bl memmove
.LVL422:
.L356:
.LBE4439:
.LBE4438:
.LBE4437:
.LBE4436:
.LBE4435:
.LBE4434:
.LBE4433:
.LBE4432:
.LBE4431:
.LBE4430:
.LBE4429:
.LBB4450:
.LBB4451:
.LBB4452:
.LBB4453:
.LBB4454:
.LBB4455:
.LBB4456:
.LBB4457:
.LBB4458:
.LBB4459:
.LBB4460:
	.loc 10 364 0
	lwz 0,4(31)
.LBE4460:
.LBE4459:
.LBE4458:
.LBE4457:
.LBE4456:
.LBE4455:
.LBE4454:
.LBE4453:
.LBE4452:
.LBE4451:
.LBE4450:
.LBB4481:
.LBB4449:
.LBB4448:
.LBB4447:
.LBB4446:
.LBB4445:
.LBB4444:
.LBB4443:
.LBB4442:
.LBB4441:
.LBB4440:
	.loc 10 367 0
	add 28,29,28
.LVL423:
.LBE4440:
.LBE4441:
.LBE4442:
.LBE4443:
.LBE4444:
.LBE4445:
.LBE4446:
.LBE4447:
.LBE4448:
.LBE4449:
.LBE4481:
	.loc 9 347 0
	addi 26,28,4
.LBB4482:
.LBB4479:
.LBB4477:
.LBB4475:
.LBB4473:
.LBB4471:
.LBB4469:
.LBB4467:
.LBB4465:
.LBB4463:
.LBB4461:
	.loc 10 365 0
	li 28,0
	.loc 10 364 0
	subf 0,30,0
.LVL424:
	.loc 10 365 0
	srawi. 0,0,2
.LVL425:
	beq+ 0,.L357
	.loc 10 366 0
	slwi 28,0,2
	mr 3,26
	mr 4,30
	mr 5,28
	bl memmove
.LVL426:
.L357:
.LBE4461:
.LBE4463:
.LBE4465:
.LBE4467:
.LBE4469:
.LBE4471:
.LBE4473:
.LBE4475:
.LBE4477:
.LBE4479:
.LBE4482:
	.loc 9 366 0
	lwz 3,0(31)
.LBB4483:
.LBB4480:
.LBB4478:
.LBB4476:
.LBB4474:
.LBB4472:
.LBB4470:
.LBB4468:
.LBB4466:
.LBB4464:
.LBB4462:
	.loc 10 367 0
	add 28,26,28
.LVL427:
.LBE4462:
.LBE4464:
.LBE4466:
.LBE4468:
.LBE4470:
.LBE4472:
.LBE4474:
.LBE4476:
.LBE4478:
.LBE4480:
.LBE4483:
.LBB4484:
.LBB4485:
	.loc 11 155 0
	cmpwi 7,3,0
	beq- 7,.L358
.LVL428:
.LBB4486:
.LBB4487:
	.loc 6 98 0
	bl _ZdlPv
.LVL429:
.L358:
.LBE4487:
.LBE4486:
.LBE4485:
.LBE4484:
.LBE4404:
.LBE4502:
	.loc 9 373 0
	lwz 0,44(1)
.LBB4503:
.LBB4496:
	.loc 9 371 0
	add 27,29,27
	.loc 9 369 0
	stw 29,0(31)
.LBE4496:
.LBE4503:
	.loc 9 373 0
	mtlr 0
.LBB4504:
.LBB4497:
	.loc 9 370 0
	stw 28,4(31)
	.loc 9 371 0
	stw 27,8(31)
.LBE4497:
.LBE4504:
	.loc 9 373 0
	lwz 26,16(1)
.LVL430:
	lwz 27,20(1)
	lwz 28,24(1)
	lwz 29,28(1)
.LVL431:
	lwz 30,32(1)
.LVL432:
	lwz 31,36(1)
.LVL433:
	addi 1,1,40
	.cfi_remember_state
	.cfi_restore 26
	.cfi_restore 27
	.cfi_restore 28
	.cfi_restore 29
	.cfi_restore 30
	.cfi_restore 31
.LCFI78:
	.cfi_def_cfa_offset 0
	blr
.LVL434:
.L352:
.LCFI79:
	.cfi_restore_state
.LBB4505:
.LBB4498:
.LBB4488:
.LBB4416:
	.loc 12 892 0
	subf 28,28,30
.LBE4416:
.LBE4488:
	.loc 9 326 0
	li 27,4
.LBB4489:
.LBB4417:
	.loc 12 892 0
	srawi 28,28,2
.LVL435:
	b .L359
.LVL436:
.L365:
.LBE4417:
.LBE4489:
.LBB4490:
.LBB4411:
	.loc 11 1245 0
	lis 9,0x3fff
	ori 9,9,65535
	cmplw 7,0,9
	bgt+ 7,.L353
.LBE4411:
.LBE4490:
.LBB4491:
.LBB4425:
	.loc 11 150 0
	cmpwi 7,0,0
.LBE4425:
.LBE4491:
.LBB4492:
.LBB4418:
	.loc 12 892 0
	subf 28,28,30
.LBE4418:
.LBE4492:
.LBB4493:
.LBB4412:
	.loc 11 1245 0
	slwi 27,27,3
.LVL437:
.LBE4412:
.LBE4493:
.LBB4494:
.LBB4419:
	.loc 12 892 0
	srawi 28,28,2
.LVL438:
.LBE4419:
.LBE4494:
.LBB4495:
.LBB4426:
	.loc 11 150 0
	li 29,0
	beq+ 7,.L354
	b .L359
.LBE4426:
.LBE4495:
.LBE4498:
.LBE4505:
	.cfi_endproc
.LFE1882:
	.size	_ZNSt6vectorIP10GuiElementSaIS1_EE13_M_insert_auxEN9__gnu_cxx17__normal_iteratorIPS1_S3_EERKS1_, .-_ZNSt6vectorIP10GuiElementSaIS1_EE13_M_insert_auxEN9__gnu_cxx17__normal_iteratorIPS1_S3_EERKS1_
	.section	.text._ZNSt8_Rb_treeIPN7sigslot12_signal_baseINS0_15single_threadedEEES4_St9_IdentityIS4_ESt4lessIS4_ESaIS4_EE8_M_eraseEPSt13_Rb_tree_nodeIS4_E,"axG",@progbits,_ZNSt8_Rb_treeIPN7sigslot12_signal_baseINS0_15single_threadedEEES4_St9_IdentityIS4_ESt4lessIS4_ESaIS4_EE8_M_eraseEPSt13_Rb_tree_nodeIS4_E,comdat
	.align 2
	.weak	_ZNSt8_Rb_treeIPN7sigslot12_signal_baseINS0_15single_threadedEEES4_St9_IdentityIS4_ESt4lessIS4_ESaIS4_EE8_M_eraseEPSt13_Rb_tree_nodeIS4_E
	.type	_ZNSt8_Rb_treeIPN7sigslot12_signal_baseINS0_15single_threadedEEES4_St9_IdentityIS4_ESt4lessIS4_ESaIS4_EE8_M_eraseEPSt13_Rb_tree_nodeIS4_E, @function
_ZNSt8_Rb_treeIPN7sigslot12_signal_baseINS0_15single_threadedEEES4_St9_IdentityIS4_ESt4lessIS4_ESaIS4_EE8_M_eraseEPSt13_Rb_tree_nodeIS4_E:
.LFB2010:
	.file 13 "d:\\devkitpro\\devkitppc\\bin\\../lib/gcc/powerpc-eabi/4.6.3/../../../../powerpc-eabi/include/c++/4.6.3/bits/stl_tree.h"
	.loc 13 1068 0
	.cfi_startproc
.LVL439:
	stwu 1,-56(1)
.LCFI80:
	.cfi_def_cfa_offset 56
	mflr 0
	stw 22,16(1)
.LBB4622:
	.loc 13 1072 0
	mr. 22,4
	.cfi_offset 22, -40
	.cfi_register 65, 0
.LBE4622:
	.loc 13 1068 0
	stw 30,48(1)
	mr 30,3
	.cfi_offset 30, -8
	stw 0,60(1)
	stw 21,12(1)
	stw 23,20(1)
	stw 24,24(1)
	stw 25,28(1)
	stw 26,32(1)
	stw 27,36(1)
	stw 28,40(1)
	stw 29,44(1)
	stw 31,52(1)
.LBB4707:
	.loc 13 1072 0
	beq- 0,.L366
	.cfi_offset 31, -4
	.cfi_offset 29, -12
	.cfi_offset 28, -16
	.cfi_offset 27, -20
	.cfi_offset 26, -24
	.cfi_offset 25, -28
	.cfi_offset 24, -32
	.cfi_offset 23, -36
	.cfi_offset 21, -44
	.cfi_offset 65, 4
.LVL440:
.L412:
	.loc 4 285 0
	lwz 27,12(22)
.LVL441:
.LBB4623:
.LBB4624:
.LBB4625:
	.loc 13 1072 0
	cmpwi 7,27,0
	beq- 7,.L368
.LVL442:
.L413:
.LBE4625:
	.loc 4 285 0
	lwz 26,12(27)
.LVL443:
.LBB4701:
.LBB4626:
.LBB4627:
.LBB4628:
	.loc 13 1072 0
	cmpwi 7,26,0
	beq- 7,.L369
.LVL444:
.L414:
.LBE4628:
	.loc 4 285 0
	lwz 25,12(26)
.LVL445:
.LBB4694:
.LBB4629:
.LBB4630:
.LBB4631:
	.loc 13 1072 0
	cmpwi 7,25,0
	beq- 7,.L370
.LVL446:
.L415:
.LBE4631:
	.loc 4 285 0
	lwz 24,12(25)
.LVL447:
.LBB4687:
.LBB4632:
.LBB4633:
.LBB4634:
	.loc 13 1072 0
	cmpwi 7,24,0
	beq- 7,.L371
.LVL448:
.L416:
.LBE4634:
	.loc 4 285 0
	lwz 23,12(24)
.LVL449:
.LBB4680:
.LBB4635:
.LBB4636:
.LBB4637:
	.loc 13 1072 0
	cmpwi 7,23,0
	beq- 7,.L372
.LVL450:
.L417:
.LBE4637:
	.loc 4 285 0
	lwz 28,12(23)
.LVL451:
.LBB4673:
.LBB4638:
.LBB4639:
.LBB4640:
	.loc 13 1072 0
	cmpwi 7,28,0
	beq- 7,.L373
.LVL452:
.L418:
.LBE4640:
	.loc 4 285 0
	lwz 29,12(28)
.LVL453:
.LBB4666:
.LBB4641:
.LBB4642:
.LBB4643:
	.loc 13 1072 0
	cmpwi 7,29,0
	beq- 7,.L374
.LVL454:
.L419:
.LBE4643:
	.loc 4 285 0
	lwz 31,12(29)
.LVL455:
.LBB4659:
.LBB4644:
.LBB4645:
.LBB4646:
	.loc 13 1072 0
	cmpwi 7,31,0
	beq- 7,.L375
.LVL456:
.L420:
.LBB4647:
	.loc 13 1074 0
	lwz 4,12(31)
	mr 3,30
	bl _ZNSt8_Rb_treeIPN7sigslot12_signal_baseINS0_15single_threadedEEES4_St9_IdentityIS4_ESt4lessIS4_ESaIS4_EE8_M_eraseEPSt13_Rb_tree_nodeIS4_E
.LBE4647:
.LBE4646:
	.loc 4 285 0
	lwz 21,8(31)
.LVL457:
.LBB4653:
.LBB4652:
.LBB4648:
.LBB4649:
.LBB4650:
.LBB4651:
	.loc 6 98 0
	mr 3,31
	bl _ZdlPv
.LVL458:
.LBE4651:
.LBE4650:
.LBE4649:
.LBE4648:
.LBE4652:
	.loc 13 1072 0
	cmpwi 7,21,0
	.loc 13 1077 0
	mr 31,21
.LVL459:
	.loc 13 1072 0
	bne+ 7,.L420
.LVL460:
.L375:
.LBE4653:
.LBE4645:
.LBE4644:
.LBE4659:
	.loc 4 285 0
	lwz 31,8(29)
.LVL461:
.LBB4660:
.LBB4658:
.LBB4654:
.LBB4655:
.LBB4656:
.LBB4657:
	.loc 6 98 0
	mr 3,29
	bl _ZdlPv
.LVL462:
.LBE4657:
.LBE4656:
.LBE4655:
.LBE4654:
.LBE4658:
	.loc 13 1072 0
	cmpwi 7,31,0
	beq- 7,.L374
	.loc 13 1077 0
	mr 29,31
.LVL463:
	b .L419
.LVL464:
.L374:
.LBE4660:
.LBE4642:
.LBE4641:
.LBE4666:
	.loc 4 285 0
	lwz 31,8(28)
.LVL465:
.LBB4667:
.LBB4665:
.LBB4661:
.LBB4662:
.LBB4663:
.LBB4664:
	.loc 6 98 0
	mr 3,28
	bl _ZdlPv
.LVL466:
.LBE4664:
.LBE4663:
.LBE4662:
.LBE4661:
.LBE4665:
	.loc 13 1072 0
	cmpwi 7,31,0
	beq- 7,.L373
	.loc 13 1077 0
	mr 28,31
.LVL467:
	b .L418
.LVL468:
.L373:
.LBE4667:
.LBE4639:
.LBE4638:
.LBE4673:
	.loc 4 285 0
	lwz 31,8(23)
.LVL469:
.LBB4674:
.LBB4672:
.LBB4668:
.LBB4669:
.LBB4670:
.LBB4671:
	.loc 6 98 0
	mr 3,23
	bl _ZdlPv
.LVL470:
.LBE4671:
.LBE4670:
.LBE4669:
.LBE4668:
.LBE4672:
	.loc 13 1072 0
	cmpwi 7,31,0
	beq- 7,.L372
	.loc 13 1077 0
	mr 23,31
.LVL471:
	b .L417
.LVL472:
.L372:
.LBE4674:
.LBE4636:
.LBE4635:
.LBE4680:
	.loc 4 285 0
	lwz 31,8(24)
.LVL473:
.LBB4681:
.LBB4679:
.LBB4675:
.LBB4676:
.LBB4677:
.LBB4678:
	.loc 6 98 0
	mr 3,24
	bl _ZdlPv
.LVL474:
.LBE4678:
.LBE4677:
.LBE4676:
.LBE4675:
.LBE4679:
	.loc 13 1072 0
	cmpwi 7,31,0
	beq- 7,.L371
	.loc 13 1077 0
	mr 24,31
.LVL475:
	b .L416
.LVL476:
.L371:
.LBE4681:
.LBE4633:
.LBE4632:
.LBE4687:
	.loc 4 285 0
	lwz 31,8(25)
.LVL477:
.LBB4688:
.LBB4686:
.LBB4682:
.LBB4683:
.LBB4684:
.LBB4685:
	.loc 6 98 0
	mr 3,25
	bl _ZdlPv
.LVL478:
.LBE4685:
.LBE4684:
.LBE4683:
.LBE4682:
.LBE4686:
	.loc 13 1072 0
	cmpwi 7,31,0
	beq- 7,.L370
	.loc 13 1077 0
	mr 25,31
.LVL479:
	b .L415
.LVL480:
.L370:
.LBE4688:
.LBE4630:
.LBE4629:
.LBE4694:
	.loc 4 285 0
	lwz 31,8(26)
.LVL481:
.LBB4695:
.LBB4693:
.LBB4689:
.LBB4690:
.LBB4691:
.LBB4692:
	.loc 6 98 0
	mr 3,26
	bl _ZdlPv
.LVL482:
.LBE4692:
.LBE4691:
.LBE4690:
.LBE4689:
.LBE4693:
	.loc 13 1072 0
	cmpwi 7,31,0
	beq- 7,.L369
	.loc 13 1077 0
	mr 26,31
.LVL483:
	b .L414
.LVL484:
.L369:
.LBE4695:
.LBE4627:
.LBE4626:
.LBE4701:
	.loc 4 285 0
	lwz 31,8(27)
.LVL485:
.LBB4702:
.LBB4700:
.LBB4696:
.LBB4697:
.LBB4698:
.LBB4699:
	.loc 6 98 0
	mr 3,27
	bl _ZdlPv
.LVL486:
.LBE4699:
.LBE4698:
.LBE4697:
.LBE4696:
.LBE4700:
	.loc 13 1072 0
	cmpwi 7,31,0
	beq- 7,.L368
	.loc 13 1077 0
	mr 27,31
.LVL487:
	b .L413
.LVL488:
.L368:
	.loc 4 285 0
	lwz 31,8(22)
.LVL489:
.LBE4702:
.LBE4624:
.LBB4703:
.LBB4704:
.LBB4705:
.LBB4706:
	.loc 6 98 0
	mr 3,22
	bl _ZdlPv
.LVL490:
.LBE4706:
.LBE4705:
.LBE4704:
.LBE4703:
.LBE4623:
	.loc 13 1072 0
	cmpwi 7,31,0
	beq- 7,.L366
	.loc 13 1077 0
	mr 22,31
.LVL491:
	b .L412
.LVL492:
.L366:
.LBE4707:
	.loc 13 1079 0
	lwz 0,60(1)
	lwz 21,12(1)
	mtlr 0
	lwz 22,16(1)
	lwz 23,20(1)
	lwz 24,24(1)
	lwz 25,28(1)
	lwz 26,32(1)
	lwz 27,36(1)
	lwz 28,40(1)
	lwz 29,44(1)
	lwz 30,48(1)
.LVL493:
	lwz 31,52(1)
	addi 1,1,56
.LCFI81:
	.cfi_def_cfa_offset 0
	.cfi_restore 31
	.cfi_restore 30
	.cfi_restore 29
	.cfi_restore 28
	.cfi_restore 27
	.cfi_restore 26
	.cfi_restore 25
	.cfi_restore 24
	.cfi_restore 23
	.cfi_restore 22
	.cfi_restore 21
	blr
	.cfi_endproc
.LFE2010:
	.size	_ZNSt8_Rb_treeIPN7sigslot12_signal_baseINS0_15single_threadedEEES4_St9_IdentityIS4_ESt4lessIS4_ESaIS4_EE8_M_eraseEPSt13_Rb_tree_nodeIS4_E, .-_ZNSt8_Rb_treeIPN7sigslot12_signal_baseINS0_15single_threadedEEES4_St9_IdentityIS4_ESt4lessIS4_ESaIS4_EE8_M_eraseEPSt13_Rb_tree_nodeIS4_E
	.section	.text._ZN7sigslot9has_slotsINS_15single_threadedEED2Ev,"axG",@progbits,_ZN7sigslot9has_slotsINS_15single_threadedEED5Ev,comdat
	.align 2
	.weak	_ZN7sigslot9has_slotsINS_15single_threadedEED2Ev
	.type	_ZN7sigslot9has_slotsINS_15single_threadedEED2Ev, @function
_ZN7sigslot9has_slotsINS_15single_threadedEED2Ev:
.LFB1779:
	.loc 1 513 0
	.cfi_startproc
	.cfi_personality 0,__gxx_personality_v0
	.cfi_lsda 0,.LLSDA1779
.LVL494:
	mflr 0
	stwu 1,-32(1)
.LCFI82:
	.cfi_def_cfa_offset 32
	.cfi_register 65, 0
.LBB4854:
	.loc 1 516 0
	lis 9,_ZTVN7sigslot9has_slotsINS_15single_threadedEEE+8@ha
.LBE4854:
	.loc 1 513 0
	stw 28,16(1)
	addi 28,3,4
	.cfi_offset 28, -16
	stw 0,36(1)
.LBB4930:
	.loc 1 516 0
	la 0,_ZTVN7sigslot9has_slotsINS_15single_threadedEEE+8@l(9)
	.cfi_offset 65, 4
.LBE4930:
	.loc 1 513 0
	stw 29,20(1)
	mr 29,3
	.cfi_offset 29, -12
	stw 26,8(1)
	stw 27,12(1)
	stw 30,24(1)
	stw 31,28(1)
.LBB4931:
	.loc 1 516 0
	stw 0,0(3)
.LVL495:
.LEHB55:
.LBB4855:
.LBB4856:
.LBB4857:
.LBB4858:
	.loc 1 338 0
	.cfi_offset 31, -4
	.cfi_offset 30, -8
	.cfi_offset 27, -20
	.cfi_offset 26, -24
	bl _ZN7sigslot15single_threaded4lockEv
.LEHE55:
.LVL496:
.LBE4858:
.LBE4857:
.LBB4859:
	.loc 4 285 0
	lwz 31,16(29)
.LVL497:
.LBE4859:
.LBB4860:
.LBB4861:
.LBB4862:
	.loc 13 671 0
	addi 30,28,4
.LVL498:
.LBE4862:
.LBE4861:
.LBE4860:
	.loc 1 524 0
	cmpw 7,31,30
	beq- 7,.L422
.LVL499:
.L449:
	.loc 1 526 0
	lwz 3,16(31)
	mr 4,29
	lwz 9,0(3)
	lwz 0,16(9)
	mtctr 0
.LEHB56:
	bctrl
.LEHE56:
.LVL500:
.LBB4863:
.LBB4864:
	.loc 13 269 0
	mr 3,31
	bl _ZSt18_Rb_tree_incrementPKSt18_Rb_tree_node_base
.LBE4864:
.LBE4863:
	.loc 1 524 0
	cmpw 7,30,3
.LBB4866:
.LBB4865:
	.loc 13 269 0
	mr 31,3
.LVL501:
.LBE4865:
.LBE4866:
	.loc 1 524 0
	bne+ 7,.L449
	lwz 31,16(29)
.LVL502:
.L422:
.LBB4867:
.LBB4868:
.LBB4869:
.LBB4870:
.LBB4871:
.LBB4872:
.LBB4873:
	.loc 13 665 0
	addi 26,28,4
.LBE4873:
.LBE4872:
	.loc 13 1500 0
	cmpw 7,30,26
	beq- 7,.L424
.LVL503:
	.loc 13 1503 0
	cmpw 7,30,31
	bne+ 7,.L451
	b .L425
.LVL504:
.L446:
	.loc 13 277 0
	mr 31,27
.LVL505:
.L451:
.LBB4874:
.LBB4875:
	mr 3,31
	bl _ZSt18_Rb_tree_incrementPKSt18_Rb_tree_node_base
.LBE4875:
.LBE4874:
.LBB4877:
.LBB4878:
.LBB4879:
	.loc 13 1489 0
	mr 4,26
.LBE4879:
.LBE4878:
.LBE4877:
.LBB4888:
.LBB4876:
	.loc 13 277 0
	mr 27,3
.LVL506:
.LBE4876:
.LBE4888:
.LBB4889:
.LBB4886:
.LBB4884:
	.loc 13 1489 0
	mr 3,31
.LVL507:
	bl _ZSt28_Rb_tree_rebalance_for_erasePSt18_Rb_tree_node_baseRS_
.LBB4880:
.LBB4881:
.LBB4882:
.LBB4883:
	.loc 6 98 0
	bl _ZdlPv
.LBE4883:
.LBE4882:
.LBE4881:
.LBE4880:
.LBE4884:
.LBE4886:
.LBE4889:
	.loc 13 1503 0
	cmpw 7,30,27
.LBB4890:
.LBB4887:
.LBB4885:
	.loc 13 1491 0
	lwz 9,20(28)
	addi 0,9,-1
	stw 0,20(28)
.LBE4885:
.LBE4887:
.LBE4890:
	.loc 13 1503 0
	bne+ 7,.L446
.LVL508:
.L425:
.LBE4871:
.LBE4870:
.LBE4869:
.LBE4868:
.LBE4867:
.LBB4899:
.LBB4900:
.LBB4901:
	.loc 1 343 0
	lwz 9,0(29)
	mr 3,29
	lwz 0,12(9)
	mtctr 0
.LEHB57:
	bctrl
.LEHE57:
.LVL509:
.LBE4901:
.LBE4900:
.LBE4899:
.LBE4856:
.LBE4855:
.LBB4908:
.LBB4909:
.LBB4910:
.LBB4911:
.LBB4912:
	.loc 13 639 0
	lwz 4,12(29)
	mr 3,28
	bl _ZNSt8_Rb_treeIPN7sigslot12_signal_baseINS0_15single_threadedEEES4_St9_IdentityIS4_ESt4lessIS4_ESaIS4_EE8_M_eraseEPSt13_Rb_tree_nodeIS4_E
.LVL510:
.LBE4912:
.LBE4911:
.LBE4910:
.LBE4909:
.LBE4908:
.LBB4913:
.LBB4914:
.LBB4915:
	.loc 1 105 0
	lis 9,_ZTVN7sigslot15single_threadedE+8@ha
	la 0,_ZTVN7sigslot15single_threadedE+8@l(9)
.LBE4915:
.LBE4914:
.LBE4913:
.LBE4931:
	.loc 1 516 0
	lwz 26,8(1)
.LBB4932:
.LBB4918:
.LBB4917:
.LBB4916:
	.loc 1 105 0
	stw 0,0(29)
.LBE4916:
.LBE4917:
.LBE4918:
.LBE4932:
	.loc 1 516 0
	lwz 0,36(1)
	lwz 27,12(1)
	mtlr 0
	lwz 28,16(1)
.LVL511:
	lwz 29,20(1)
.LVL512:
	lwz 30,24(1)
.LVL513:
	lwz 31,28(1)
	addi 1,1,32
	.cfi_remember_state
.LCFI83:
	.cfi_def_cfa_offset 0
	.cfi_restore 31
	.cfi_restore 30
	.cfi_restore 29
	.cfi_restore 28
	.cfi_restore 27
	.cfi_restore 26
	blr
.LVL514:
.L424:
.LCFI84:
	.cfi_restore_state
.LBB4933:
.LBB4919:
.LBB4906:
.LBB4902:
.LBB4898:
.LBB4897:
.LBB4896:
.LBB4895:
.LBB4891:
.LBB4892:
.LBB4893:
.LBB4894:
	.loc 13 809 0
	lwz 4,12(29)
	mr 3,28
	bl _ZNSt8_Rb_treeIPN7sigslot12_signal_baseINS0_15single_threadedEEES4_St9_IdentityIS4_ESt4lessIS4_ESaIS4_EE8_M_eraseEPSt13_Rb_tree_nodeIS4_E
.LVL515:
	.loc 13 811 0
	li 0,0
	.loc 13 810 0
	stw 30,16(29)
.LVL516:
	.loc 13 811 0
	stw 0,12(29)
.LVL517:
	.loc 13 812 0
	stw 30,20(29)
	.loc 13 813 0
	stw 0,24(29)
	b .L425
.LVL518:
.L447:
	mr 31,3
.L432:
.LVL519:
.LBE4894:
.LBE4893:
.LBE4892:
.LBE4891:
.LBE4895:
.LBE4896:
.LBE4897:
.LBE4898:
.LBE4902:
.LBE4906:
.LBE4919:
.LBB4920:
.LBB4921:
.LBB4922:
.LBB4923:
.LBB4924:
.LBB4925:
	.loc 13 639 0
	lwz 4,12(29)
	mr 3,28
	bl _ZNSt8_Rb_treeIPN7sigslot12_signal_baseINS0_15single_threadedEEES4_St9_IdentityIS4_ESt4lessIS4_ESaIS4_EE8_M_eraseEPSt13_Rb_tree_nodeIS4_E
.LVL520:
.LBE4925:
.LBE4924:
.LBE4923:
.LBE4922:
.LBE4921:
.LBE4920:
.LBB4926:
.LBB4927:
.LBB4928:
	.loc 1 105 0
	lis 9,_ZTVN7sigslot15single_threadedE+8@ha
	la 0,_ZTVN7sigslot15single_threadedE+8@l(9)
	mr 3,31
	stw 0,0(29)
.LEHB58:
	bl _Unwind_Resume
.LEHE58:
.LVL521:
.L448:
.LBE4928:
.LBE4927:
.LBE4926:
.LBB4929:
.LBB4907:
.LBB4903:
.LBB4904:
.LBB4905:
	.loc 1 343 0
	lwz 9,0(29)
	mr 31,3
.LVL522:
	mr 3,29
	lwz 0,12(9)
	mtctr 0
	bctrl
	b .L432
.LBE4905:
.LBE4904:
.LBE4903:
.LBE4907:
.LBE4929:
.LBE4933:
	.cfi_endproc
.LFE1779:
	.section	.gcc_except_table
.LLSDA1779:
	.byte	0xff
	.byte	0xff
	.byte	0x1
	.uleb128 .LLSDACSE1779-.LLSDACSB1779
.LLSDACSB1779:
	.uleb128 .LEHB55-.LFB1779
	.uleb128 .LEHE55-.LEHB55
	.uleb128 .L447-.LFB1779
	.uleb128 0
	.uleb128 .LEHB56-.LFB1779
	.uleb128 .LEHE56-.LEHB56
	.uleb128 .L448-.LFB1779
	.uleb128 0
	.uleb128 .LEHB57-.LFB1779
	.uleb128 .LEHE57-.LEHB57
	.uleb128 .L447-.LFB1779
	.uleb128 0
	.uleb128 .LEHB58-.LFB1779
	.uleb128 .LEHE58-.LEHB58
	.uleb128 0
	.uleb128 0
.LLSDACSE1779:
	.section	.text._ZN7sigslot9has_slotsINS_15single_threadedEED2Ev,"axG",@progbits,_ZN7sigslot9has_slotsINS_15single_threadedEED5Ev,comdat
	.size	_ZN7sigslot9has_slotsINS_15single_threadedEED2Ev, .-_ZN7sigslot9has_slotsINS_15single_threadedEED2Ev
	.section	.text._ZN7sigslot9has_slotsINS_15single_threadedEED0Ev,"axG",@progbits,_ZN7sigslot9has_slotsINS_15single_threadedEED5Ev,comdat
	.align 2
	.weak	_ZN7sigslot9has_slotsINS_15single_threadedEED0Ev
	.type	_ZN7sigslot9has_slotsINS_15single_threadedEED0Ev, @function
_ZN7sigslot9has_slotsINS_15single_threadedEED0Ev:
.LFB1781:
	.loc 1 513 0
	.cfi_startproc
	.cfi_personality 0,__gxx_personality_v0
	.cfi_lsda 0,.LLSDA1781
.LVL523:
	mflr 0
	stwu 1,-32(1)
.LCFI85:
	.cfi_def_cfa_offset 32
	.cfi_register 65, 0
.LBB5027:
.LBB5028:
.LBB5029:
	.loc 1 516 0
	lis 9,_ZTVN7sigslot9has_slotsINS_15single_threadedEEE+8@ha
.LBE5029:
.LBE5028:
.LBE5027:
	.loc 1 513 0
	stw 28,16(1)
	addi 28,3,4
	.cfi_offset 28, -16
	stw 0,36(1)
.LBB5113:
.LBB5109:
.LBB5105:
	.loc 1 516 0
	la 0,_ZTVN7sigslot9has_slotsINS_15single_threadedEEE+8@l(9)
	.cfi_offset 65, 4
.LBE5105:
.LBE5109:
.LBE5113:
	.loc 1 513 0
	stw 29,20(1)
	mr 29,3
	.cfi_offset 29, -12
.LVL524:
	stw 26,8(1)
	stw 27,12(1)
	stw 30,24(1)
	stw 31,28(1)
.LBB5114:
.LBB5110:
.LBB5106:
	.loc 1 516 0
	stw 0,0(3)
.LVL525:
.LEHB59:
.LBB5030:
.LBB5031:
.LBB5032:
.LBB5033:
	.loc 1 338 0
	.cfi_offset 31, -4
	.cfi_offset 30, -8
	.cfi_offset 27, -20
	.cfi_offset 26, -24
	bl _ZN7sigslot15single_threaded4lockEv
.LEHE59:
.LVL526:
.LBE5033:
.LBE5032:
.LBB5034:
	.loc 4 285 0
	lwz 31,16(29)
.LVL527:
.LBE5034:
.LBB5035:
.LBB5036:
.LBB5037:
	.loc 13 671 0
	addi 30,28,4
.LVL528:
.LBE5037:
.LBE5036:
.LBE5035:
	.loc 1 524 0
	cmpw 7,31,30
	beq- 7,.L454
.LVL529:
.L482:
	.loc 1 526 0
	lwz 3,16(31)
	mr 4,29
	lwz 9,0(3)
	lwz 0,16(9)
	mtctr 0
.LEHB60:
	bctrl
.LEHE60:
.LVL530:
.LBB5038:
.LBB5039:
	.loc 13 269 0
	mr 3,31
	bl _ZSt18_Rb_tree_incrementPKSt18_Rb_tree_node_base
.LBE5039:
.LBE5038:
	.loc 1 524 0
	cmpw 7,30,3
.LBB5041:
.LBB5040:
	.loc 13 269 0
	mr 31,3
.LVL531:
.LBE5040:
.LBE5041:
	.loc 1 524 0
	bne+ 7,.L482
	lwz 31,16(29)
.LVL532:
.L454:
.LBB5042:
.LBB5043:
.LBB5044:
.LBB5045:
.LBB5046:
.LBB5047:
.LBB5048:
	.loc 13 665 0
	addi 26,28,4
.LBE5048:
.LBE5047:
	.loc 13 1500 0
	cmpw 7,30,26
	beq- 7,.L456
.LVL533:
	.loc 13 1503 0
	cmpw 7,30,31
	bne+ 7,.L484
	b .L457
.LVL534:
.L479:
	.loc 13 277 0
	mr 31,27
.LVL535:
.L484:
.LBB5049:
.LBB5050:
	mr 3,31
	bl _ZSt18_Rb_tree_incrementPKSt18_Rb_tree_node_base
.LBE5050:
.LBE5049:
.LBB5052:
.LBB5053:
.LBB5054:
	.loc 13 1489 0
	mr 4,26
.LBE5054:
.LBE5053:
.LBE5052:
.LBB5063:
.LBB5051:
	.loc 13 277 0
	mr 27,3
.LVL536:
.LBE5051:
.LBE5063:
.LBB5064:
.LBB5061:
.LBB5059:
	.loc 13 1489 0
	mr 3,31
.LVL537:
	bl _ZSt28_Rb_tree_rebalance_for_erasePSt18_Rb_tree_node_baseRS_
.LBB5055:
.LBB5056:
.LBB5057:
.LBB5058:
	.loc 6 98 0
	bl _ZdlPv
.LBE5058:
.LBE5057:
.LBE5056:
.LBE5055:
.LBE5059:
.LBE5061:
.LBE5064:
	.loc 13 1503 0
	cmpw 7,30,27
.LBB5065:
.LBB5062:
.LBB5060:
	.loc 13 1491 0
	lwz 9,20(28)
	addi 0,9,-1
	stw 0,20(28)
.LBE5060:
.LBE5062:
.LBE5065:
	.loc 13 1503 0
	bne+ 7,.L479
.LVL538:
.L457:
.LBE5046:
.LBE5045:
.LBE5044:
.LBE5043:
.LBE5042:
.LBB5074:
.LBB5075:
.LBB5076:
	.loc 1 343 0
	lwz 9,0(29)
	mr 3,29
	lwz 0,12(9)
	mtctr 0
.LEHB61:
	bctrl
.LEHE61:
.LVL539:
.LBE5076:
.LBE5075:
.LBE5074:
.LBE5031:
.LBE5030:
.LBB5083:
.LBB5084:
.LBB5085:
.LBB5086:
.LBB5087:
	.loc 13 639 0
	lwz 4,12(29)
	mr 3,28
	bl _ZNSt8_Rb_treeIPN7sigslot12_signal_baseINS0_15single_threadedEEES4_St9_IdentityIS4_ESt4lessIS4_ESaIS4_EE8_M_eraseEPSt13_Rb_tree_nodeIS4_E
.LVL540:
.LBE5087:
.LBE5086:
.LBE5085:
.LBE5084:
.LBE5083:
.LBB5088:
.LBB5089:
.LBB5090:
	.loc 1 105 0
	lis 9,_ZTVN7sigslot15single_threadedE+8@ha
	la 0,_ZTVN7sigslot15single_threadedE+8@l(9)
.LBE5090:
.LBE5089:
.LBE5088:
.LBE5106:
.LBE5110:
.LBE5114:
	.loc 1 516 0
	mr 3,29
.LBB5115:
.LBB5111:
.LBB5107:
.LBB5093:
.LBB5092:
.LBB5091:
	.loc 1 105 0
	stw 0,0(29)
.LBE5091:
.LBE5092:
.LBE5093:
.LBE5107:
.LBE5111:
.LBE5115:
	.loc 1 516 0
	bl _ZdlPv
	lwz 0,36(1)
	lwz 26,8(1)
	mtlr 0
	lwz 27,12(1)
	lwz 28,16(1)
.LVL541:
	lwz 29,20(1)
.LVL542:
	lwz 30,24(1)
.LVL543:
	lwz 31,28(1)
	addi 1,1,32
	.cfi_remember_state
.LCFI86:
	.cfi_def_cfa_offset 0
	.cfi_restore 31
	.cfi_restore 30
	.cfi_restore 29
	.cfi_restore 28
	.cfi_restore 27
	.cfi_restore 26
	blr
.LVL544:
.L456:
.LCFI87:
	.cfi_restore_state
.LBB5116:
.LBB5112:
.LBB5108:
.LBB5094:
.LBB5081:
.LBB5077:
.LBB5073:
.LBB5072:
.LBB5071:
.LBB5070:
.LBB5066:
.LBB5067:
.LBB5068:
.LBB5069:
	.loc 13 809 0
	lwz 4,12(29)
	mr 3,28
	bl _ZNSt8_Rb_treeIPN7sigslot12_signal_baseINS0_15single_threadedEEES4_St9_IdentityIS4_ESt4lessIS4_ESaIS4_EE8_M_eraseEPSt13_Rb_tree_nodeIS4_E
.LVL545:
	.loc 13 811 0
	li 0,0
	.loc 13 810 0
	stw 30,16(29)
.LVL546:
	.loc 13 811 0
	stw 0,12(29)
.LVL547:
	.loc 13 812 0
	stw 30,20(29)
	.loc 13 813 0
	stw 0,24(29)
	b .L457
.LVL548:
.L480:
	mr 31,3
.L464:
.LVL549:
.LBE5069:
.LBE5068:
.LBE5067:
.LBE5066:
.LBE5070:
.LBE5071:
.LBE5072:
.LBE5073:
.LBE5077:
.LBE5081:
.LBE5094:
.LBB5095:
.LBB5096:
.LBB5097:
.LBB5098:
.LBB5099:
.LBB5100:
	.loc 13 639 0
	lwz 4,12(29)
	mr 3,28
	bl _ZNSt8_Rb_treeIPN7sigslot12_signal_baseINS0_15single_threadedEEES4_St9_IdentityIS4_ESt4lessIS4_ESaIS4_EE8_M_eraseEPSt13_Rb_tree_nodeIS4_E
.LVL550:
.LBE5100:
.LBE5099:
.LBE5098:
.LBE5097:
.LBE5096:
.LBE5095:
.LBB5101:
.LBB5102:
.LBB5103:
	.loc 1 105 0
	lis 9,_ZTVN7sigslot15single_threadedE+8@ha
	la 0,_ZTVN7sigslot15single_threadedE+8@l(9)
	mr 3,31
	stw 0,0(29)
.LEHB62:
	bl _Unwind_Resume
.LEHE62:
.LVL551:
.L481:
.LBE5103:
.LBE5102:
.LBE5101:
.LBB5104:
.LBB5082:
.LBB5078:
.LBB5079:
.LBB5080:
	.loc 1 343 0
	lwz 9,0(29)
	mr 31,3
.LVL552:
	mr 3,29
	lwz 0,12(9)
	mtctr 0
	bctrl
	b .L464
.LBE5080:
.LBE5079:
.LBE5078:
.LBE5082:
.LBE5104:
.LBE5108:
.LBE5112:
.LBE5116:
	.cfi_endproc
.LFE1781:
	.section	.gcc_except_table
.LLSDA1781:
	.byte	0xff
	.byte	0xff
	.byte	0x1
	.uleb128 .LLSDACSE1781-.LLSDACSB1781
.LLSDACSB1781:
	.uleb128 .LEHB59-.LFB1781
	.uleb128 .LEHE59-.LEHB59
	.uleb128 .L480-.LFB1781
	.uleb128 0
	.uleb128 .LEHB60-.LFB1781
	.uleb128 .LEHE60-.LEHB60
	.uleb128 .L481-.LFB1781
	.uleb128 0
	.uleb128 .LEHB61-.LFB1781
	.uleb128 .LEHE61-.LEHB61
	.uleb128 .L480-.LFB1781
	.uleb128 0
	.uleb128 .LEHB62-.LFB1781
	.uleb128 .LEHE62-.LEHB62
	.uleb128 0
	.uleb128 0
.LLSDACSE1781:
	.section	.text._ZN7sigslot9has_slotsINS_15single_threadedEED0Ev,"axG",@progbits,_ZN7sigslot9has_slotsINS_15single_threadedEED5Ev,comdat
	.size	_ZN7sigslot9has_slotsINS_15single_threadedEED0Ev, .-_ZN7sigslot9has_slotsINS_15single_threadedEED0Ev
	.section	.text._ZNSt8_Rb_treeIPN7sigslot12_signal_baseINS0_15single_threadedEEES4_St9_IdentityIS4_ESt4lessIS4_ESaIS4_EE16_M_insert_uniqueERKS4_,"axG",@progbits,_ZNSt8_Rb_treeIPN7sigslot12_signal_baseINS0_15single_threadedEEES4_St9_IdentityIS4_ESt4lessIS4_ESaIS4_EE16_M_insert_uniqueERKS4_,comdat
	.align 2
	.weak	_ZNSt8_Rb_treeIPN7sigslot12_signal_baseINS0_15single_threadedEEES4_St9_IdentityIS4_ESt4lessIS4_ESaIS4_EE16_M_insert_uniqueERKS4_
	.type	_ZNSt8_Rb_treeIPN7sigslot12_signal_baseINS0_15single_threadedEEES4_St9_IdentityIS4_ESt4lessIS4_ESaIS4_EE16_M_insert_uniqueERKS4_, @function
_ZNSt8_Rb_treeIPN7sigslot12_signal_baseINS0_15single_threadedEEES4_St9_IdentityIS4_ESt4lessIS4_ESaIS4_EE16_M_insert_uniqueERKS4_:
.LFB2142:
	.loc 13 1264 0
	.cfi_startproc
.LVL553:
	mflr 0
	stwu 1,-32(1)
.LCFI88:
	.cfi_def_cfa_offset 32
	.cfi_register 65, 0
	stw 28,16(1)
	stw 0,36(1)
	stw 27,12(1)
	mr 27,4
	.cfi_offset 27, -20
	.cfi_offset 65, 4
	.cfi_offset 28, -16
.LBB5156:
.LBB5157:
.LBB5158:
	.loc 4 285 0
	lwz 28,8(3)
.LVL554:
.LBE5158:
.LBE5157:
.LBE5156:
	.loc 13 1264 0
	stw 29,20(1)
.LBB5183:
.LBB5175:
.LBB5171:
	.loc 13 1272 0
	addi 29,3,4
	.cfi_offset 29, -12
.LVL555:
.LBE5171:
.LBE5175:
	.loc 13 1274 0
	cmpwi 7,28,0
.LBE5183:
	.loc 13 1264 0
	stw 31,28(1)
	stw 26,8(1)
	mr 31,3
	.cfi_offset 26, -24
	.cfi_offset 31, -4
	stw 30,24(1)
.LBB5184:
	.loc 13 1274 0
	beq- 7,.L501
	.cfi_offset 30, -8
.LVL556:
	lwz 10,0(4)
	b .L490
.LVL557:
.L509:
	.loc 4 285 0 discriminator 1
	lwz 0,8(28)
.LVL558:
	.loc 13 1274 0 discriminator 1
	cmpwi 7,0,0
	beq- 7,.L508
.LVL559:
.L502:
	.loc 13 1274 0 is_stmt 0
	mr 28,0
.LVL560:
.L490:
	.loc 4 285 0 is_stmt 1
	lwz 9,16(28)
	li 11,1
	.loc 13 1278 0
	cmplw 7,9,10
	bgt- 7,.L509
.LVL561:
	.loc 4 285 0 discriminator 2
	lwz 0,12(28)
	li 11,0
.LVL562:
	.loc 13 1274 0 discriminator 2
	cmpwi 7,0,0
	bne+ 7,.L502
.LVL563:
.L508:
	.loc 13 1281 0
	cmpwi 7,11,0
	mr 3,28
.LVL564:
	bne- 7,.L487
.LVL565:
	.loc 13 1289 0
	cmplw 7,10,9
	bgt- 7,.L510
.LVL566:
.L497:
	.loc 13 1292 0
	li 0,0
	li 4,0
	rlwimi 4,0,24,0,7
.LBE5184:
	.loc 13 1293 0
	lwz 0,36(1)
	lwz 26,8(1)
	mtlr 0
	lwz 27,12(1)
.LVL567:
	lwz 28,16(1)
	lwz 29,20(1)
	lwz 30,24(1)
	lwz 31,28(1)
.LVL568:
	addi 1,1,32
	.cfi_remember_state
.LCFI89:
	.cfi_def_cfa_offset 0
	.cfi_restore 31
	.cfi_restore 30
	.cfi_restore 29
	.cfi_restore 28
	.cfi_restore 27
	.cfi_restore 26
	blr
.LVL569:
.L501:
.LCFI90:
	.cfi_restore_state
.LBB5185:
	.loc 13 1272 0
	mr 28,29
.LVL570:
.L487:
	.loc 13 1283 0
	lwz 0,12(31)
	cmpw 7,28,0
	beq- 7,.L511
.LVL571:
.LBB5176:
.LBB5177:
	.loc 13 203 0
	mr 3,28
	bl _ZSt18_Rb_tree_decrementPSt18_Rb_tree_node_base
.LVL572:
	lwz 10,0(27)
	lwz 9,16(3)
.LVL573:
.LBE5177:
.LBE5176:
	.loc 13 1289 0
	cmplw 7,10,9
	ble+ 7,.L497
.LVL574:
.L510:
.LBB5178:
.LBB5172:
	.loc 13 969 0
	cmpw 7,28,29
	li 26,1
	beq- 7,.L498
.LVL575:
	.loc 13 1264 0
	lwz 26,16(28)
	subfc 26,26,10
	subfe 26,26,26
	neg 26,26
	b .L498
.LVL576:
.L511:
.LBE5172:
.LBE5178:
.LBB5179:
.LBB5180:
	.loc 13 969 0
	cmpw 7,28,29
	li 26,1
	beq- 7,.L498
.LVL577:
	.loc 13 1264 0
	lwz 26,0(27)
	lwz 0,16(28)
.LVL578:
	subfc 26,0,26
	subfe 26,26,26
	neg 26,26
.LVL579:
.L498:
.LBE5180:
.LBE5179:
.LBB5181:
.LBB5173:
.LBB5159:
.LBB5160:
.LBB5161:
.LBB5162:
.LBB5163:
	.loc 6 92 0
	li 3,20
	bl _Znwj
.LBE5163:
.LBE5162:
.LBE5161:
.LBB5166:
.LBB5167:
	.loc 6 108 0
	cmpwi 7,3,-16
.LBE5167:
.LBE5166:
.LBB5169:
.LBB5165:
.LBB5164:
	.loc 6 92 0
	mr 30,3
.LVL580:
.LBE5164:
.LBE5165:
.LBE5169:
.LBB5170:
.LBB5168:
	.loc 6 108 0
	beq- 7,.L500
	lwz 0,0(27)
	stw 0,16(3)
.L500:
.LVL581:
.LBE5168:
.LBE5170:
.LBE5160:
.LBE5159:
	.loc 13 973 0
	mr 3,26
.LVL582:
	mr 4,30
	mr 5,28
	mr 6,29
	bl _ZSt29_Rb_tree_insert_and_rebalancebPSt18_Rb_tree_node_baseS0_RS_
	.loc 13 976 0
	lwz 9,20(31)
	.loc 13 1291 0
	li 4,0
	mr 3,30
	.loc 13 976 0
	addi 0,9,1
.LBE5173:
.LBE5181:
.LBE5185:
	.loc 13 1293 0
	lwz 26,8(1)
.LVL583:
.LBB5186:
.LBB5182:
.LBB5174:
	.loc 13 976 0
	stw 0,20(31)
.LVL584:
	.loc 13 1291 0
	li 0,1
	rlwimi 4,0,24,0,7
.LBE5174:
.LBE5182:
.LBE5186:
	.loc 13 1293 0
	lwz 0,36(1)
	lwz 27,12(1)
.LVL585:
	mtlr 0
	lwz 28,16(1)
	lwz 29,20(1)
	lwz 30,24(1)
.LVL586:
	lwz 31,28(1)
.LVL587:
	addi 1,1,32
	.cfi_restore 26
	.cfi_restore 27
	.cfi_restore 28
	.cfi_restore 29
	.cfi_restore 30
	.cfi_restore 31
.LCFI91:
	.cfi_def_cfa_offset 0
	blr
	.cfi_endproc
.LFE2142:
	.size	_ZNSt8_Rb_treeIPN7sigslot12_signal_baseINS0_15single_threadedEEES4_St9_IdentityIS4_ESt4lessIS4_ESaIS4_EE16_M_insert_uniqueERKS4_, .-_ZNSt8_Rb_treeIPN7sigslot12_signal_baseINS0_15single_threadedEEES4_St9_IdentityIS4_ESt4lessIS4_ESaIS4_EE16_M_insert_uniqueERKS4_
	.section	.text._ZN7sigslot7signal3IP9GuiButtoniRK6_POINTNS_15single_threadedEE7connectI11PathBrowserEEvPT_MSA_FvS2_iS5_E,"axG",@progbits,_ZN7sigslot7signal3IP9GuiButtoniRK6_POINTNS_15single_threadedEE7connectI11PathBrowserEEvPT_MSA_FvS2_iS5_E,comdat
	.align 2
	.weak	_ZN7sigslot7signal3IP9GuiButtoniRK6_POINTNS_15single_threadedEE7connectI11PathBrowserEEvPT_MSA_FvS2_iS5_E
	.type	_ZN7sigslot7signal3IP9GuiButtoniRK6_POINTNS_15single_threadedEE7connectI11PathBrowserEEvPT_MSA_FvS2_iS5_E, @function
_ZN7sigslot7signal3IP9GuiButtoniRK6_POINTNS_15single_threadedEE7connectI11PathBrowserEEvPT_MSA_FvS2_iS5_E:
.LFB1789:
	.loc 1 2308 0
	.cfi_startproc
	.cfi_personality 0,__gxx_personality_v0
	.cfi_lsda 0,.LLSDA1789
.LVL588:
	mflr 0
	stwu 1,-48(1)
.LCFI92:
	.cfi_def_cfa_offset 48
	.cfi_register 65, 0
	stw 27,28(1)
	stw 0,52(1)
	stw 30,40(1)
	mr 30,4
	.cfi_offset 30, -8
	.cfi_offset 65, 4
	.cfi_offset 27, -20
.LBB5229:
.LBB5230:
.LBB5231:
	.loc 1 338 0
	lwz 9,0(3)
.LBE5231:
.LBE5230:
.LBE5229:
	.loc 1 2308 0
	stw 31,44(1)
	mr 31,3
	.cfi_offset 31, -4
.LVL589:
.LBB5284:
.LBB5235:
.LBB5232:
	.loc 1 338 0
	lwz 0,8(9)
.LBE5232:
.LBE5235:
.LBE5284:
	.loc 1 2308 0
	stw 28,32(1)
	stw 29,36(1)
.LBB5285:
.LBB5236:
.LBB5233:
	.loc 1 338 0
	mtctr 0
.LBE5233:
.LBE5236:
.LBE5285:
	.loc 1 2308 0
	lwz 27,0(5)
	lwz 28,4(5)
	.cfi_offset 29, -12
	.cfi_offset 28, -16
.LEHB63:
.LBB5286:
.LBB5237:
.LBB5234:
	.loc 1 338 0
	bctrl
.LEHE63:
.LVL590:
.LBE5234:
.LBE5237:
	.loc 1 2314 0
	li 3,16
.LEHB64:
	bl _Znwj
.LBB5238:
.LBB5239:
	.loc 1 1778 0
	lis 9,_ZTVN7sigslot12_connection3I11PathBrowserP9GuiButtoniRK6_POINTNS_15single_threadedEEE+8@ha
	.loc 1 1779 0
	stw 30,4(3)
	.loc 1 1778 0
	la 0,_ZTVN7sigslot12_connection3I11PathBrowserP9GuiButtoniRK6_POINTNS_15single_threadedEEE+8@l(9)
	.loc 1 1780 0
	stw 27,8(3)
	.loc 1 1778 0
	stw 0,0(3)
.LBE5239:
.LBE5238:
	.loc 1 2314 0
	mr 29,3
.LVL591:
.LBB5241:
.LBB5240:
	.loc 1 1780 0
	stw 28,12(3)
.LVL592:
.LBE5240:
.LBE5241:
.LBB5242:
.LBB5243:
.LBB5244:
.LBB5245:
.LBB5246:
.LBB5247:
.LBB5248:
.LBB5249:
	.loc 6 92 0
	li 3,12
.LVL593:
	bl _Znwj
.LVL594:
.LBE5249:
.LBE5248:
.LBE5247:
.LBB5250:
.LBB5251:
	.loc 6 108 0 discriminator 1
	cmpwi 7,3,-8
	beq- 7,.L514
	.loc 6 108 0 is_stmt 0
	stw 29,8(3)
.L514:
.LVL595:
.LBE5251:
.LBE5250:
.LBE5246:
.LBE5245:
	.loc 5 1516 0 is_stmt 1
	addi 4,31,4
.LBE5244:
.LBE5243:
.LBE5242:
.LBB5256:
.LBB5257:
	.loc 1 503 0
	addi 29,30,176
.LVL596:
.LBE5257:
.LBE5256:
.LBB5273:
.LBB5254:
.LBB5252:
	.loc 5 1516 0
	bl _ZNSt8__detail15_List_node_base7_M_hookEPS0_
.LVL597:
.LBE5252:
.LBE5254:
.LBE5273:
.LBB5274:
.LBB5270:
.LBB5258:
.LBB5259:
	.loc 1 338 0
	lwz 9,176(30)
.LBE5259:
.LBE5258:
.LBE5270:
.LBE5274:
.LBB5275:
.LBB5255:
.LBB5253:
	.loc 5 1516 0
	stw 31,8(1)
.LVL598:
.LBE5253:
.LBE5255:
.LBE5275:
.LBB5276:
.LBB5271:
.LBB5261:
.LBB5260:
	.loc 1 338 0
	mr 3,29
	lwz 0,8(9)
	mtctr 0
	bctrl
.LEHE64:
.LVL599:
.LBE5260:
.LBE5261:
.LBB5262:
.LBB5263:
	.file 14 "d:\\devkitpro\\devkitppc\\bin\\../lib/gcc/powerpc-eabi/4.6.3/../../../../powerpc-eabi/include/c++/4.6.3/bits/stl_set.h"
	.loc 14 410 0
	addi 3,30,180
	addi 4,1,8
.LEHB65:
	bl _ZNSt8_Rb_treeIPN7sigslot12_signal_baseINS0_15single_threadedEEES4_St9_IdentityIS4_ESt4lessIS4_ESaIS4_EE16_M_insert_uniqueERKS4_
.LEHE65:
.LVL600:
.LBE5263:
.LBE5262:
.LBB5264:
.LBB5265:
.LBB5266:
	.loc 1 343 0
	lwz 9,176(30)
	mr 3,29
	lwz 0,12(9)
	mtctr 0
.LEHB66:
	bctrl
.LEHE66:
.LVL601:
.LBE5266:
.LBE5265:
.LBE5264:
.LBE5271:
.LBE5276:
.LBB5277:
.LBB5278:
.LBB5279:
	lwz 9,0(31)
	mr 3,31
	lwz 0,12(9)
	mtctr 0
.LEHB67:
	bctrl
.LEHE67:
.LBE5279:
.LBE5278:
.LBE5277:
.LBE5286:
	.loc 1 2317 0
	lwz 0,52(1)
	lwz 27,28(1)
.LVL602:
	mtlr 0
	lwz 28,32(1)
.LVL603:
	lwz 29,36(1)
.LVL604:
	lwz 30,40(1)
.LVL605:
	lwz 31,44(1)
.LVL606:
	addi 1,1,48
	.cfi_remember_state
.LCFI93:
	.cfi_def_cfa_offset 0
	.cfi_restore 31
	.cfi_restore 30
	.cfi_restore 29
	.cfi_restore 28
	.cfi_restore 27
	blr
.LVL607:
.L521:
.LCFI94:
	.cfi_restore_state
	mr 30,3
.LVL608:
.L518:
.LBB5287:
.LBB5280:
.LBB5281:
.LBB5282:
	.loc 1 343 0
	lwz 9,0(31)
	mr 3,31
	lwz 0,12(9)
	mtctr 0
	bctrl
	mr 3,30
.LEHB68:
	bl _Unwind_Resume
.LEHE68:
.LVL609:
.L522:
.LBE5282:
.LBE5281:
.LBE5280:
.LBB5283:
.LBB5272:
.LBB5267:
.LBB5268:
.LBB5269:
	lwz 9,176(30)
	mr 30,3
.LVL610:
	mr 3,29
	lwz 0,12(9)
	mtctr 0
	bctrl
	b .L518
.LBE5269:
.LBE5268:
.LBE5267:
.LBE5272:
.LBE5283:
.LBE5287:
	.cfi_endproc
.LFE1789:
	.section	.gcc_except_table
.LLSDA1789:
	.byte	0xff
	.byte	0xff
	.byte	0x1
	.uleb128 .LLSDACSE1789-.LLSDACSB1789
.LLSDACSB1789:
	.uleb128 .LEHB63-.LFB1789
	.uleb128 .LEHE63-.LEHB63
	.uleb128 0
	.uleb128 0
	.uleb128 .LEHB64-.LFB1789
	.uleb128 .LEHE64-.LEHB64
	.uleb128 .L521-.LFB1789
	.uleb128 0
	.uleb128 .LEHB65-.LFB1789
	.uleb128 .LEHE65-.LEHB65
	.uleb128 .L522-.LFB1789
	.uleb128 0
	.uleb128 .LEHB66-.LFB1789
	.uleb128 .LEHE66-.LEHB66
	.uleb128 .L521-.LFB1789
	.uleb128 0
	.uleb128 .LEHB67-.LFB1789
	.uleb128 .LEHE67-.LEHB67
	.uleb128 0
	.uleb128 0
	.uleb128 .LEHB68-.LFB1789
	.uleb128 .LEHE68-.LEHB68
	.uleb128 0
	.uleb128 0
.LLSDACSE1789:
	.section	.text._ZN7sigslot7signal3IP9GuiButtoniRK6_POINTNS_15single_threadedEE7connectI11PathBrowserEEvPT_MSA_FvS2_iS5_E,"axG",@progbits,_ZN7sigslot7signal3IP9GuiButtoniRK6_POINTNS_15single_threadedEE7connectI11PathBrowserEEvPT_MSA_FvS2_iS5_E,comdat
	.size	_ZN7sigslot7signal3IP9GuiButtoniRK6_POINTNS_15single_threadedEE7connectI11PathBrowserEEvPT_MSA_FvS2_iS5_E, .-_ZN7sigslot7signal3IP9GuiButtoniRK6_POINTNS_15single_threadedEE7connectI11PathBrowserEEvPT_MSA_FvS2_iS5_E
	.section	.text._ZNSt8_Rb_treeIPN7sigslot12_signal_baseINS0_15single_threadedEEES4_St9_IdentityIS4_ESt4lessIS4_ESaIS4_EE5eraseERKS4_,"axG",@progbits,_ZNSt8_Rb_treeIPN7sigslot12_signal_baseINS0_15single_threadedEEES4_St9_IdentityIS4_ESt4lessIS4_ESaIS4_EE5eraseERKS4_,comdat
	.align 2
	.weak	_ZNSt8_Rb_treeIPN7sigslot12_signal_baseINS0_15single_threadedEEES4_St9_IdentityIS4_ESt4lessIS4_ESaIS4_EE5eraseERKS4_
	.type	_ZNSt8_Rb_treeIPN7sigslot12_signal_baseINS0_15single_threadedEEES4_St9_IdentityIS4_ESt4lessIS4_ESaIS4_EE5eraseERKS4_, @function
_ZNSt8_Rb_treeIPN7sigslot12_signal_baseINS0_15single_threadedEEES4_St9_IdentityIS4_ESt4lessIS4_ESaIS4_EE5eraseERKS4_:
.LFB2281:
	.loc 13 1510 0
	.cfi_startproc
.LVL611:
	mflr 0
	stwu 1,-32(1)
.LCFI95:
	.cfi_def_cfa_offset 32
	.cfi_register 65, 0
	stw 28,16(1)
.LBB5340:
.LBB5341:
	.loc 13 1155 0
	addi 28,3,4
	.cfi_offset 28, -16
.LBE5341:
.LBE5340:
	.loc 13 1510 0
	stw 0,36(1)
	stw 26,8(1)
.LBB5400:
.LBB5362:
.LBB5342:
	.loc 13 1155 0
	mr 26,28
	.cfi_offset 26, -24
	.cfi_offset 65, 4
.LBE5342:
	.loc 4 285 0
	lwz 0,8(3)
.LBE5362:
.LBE5400:
	.loc 13 1510 0
	stw 29,20(1)
.LBB5401:
.LBB5363:
.LBB5355:
	.loc 13 1155 0
	mr 29,28
	.cfi_offset 29, -12
	.loc 13 1156 0
	cmpwi 7,0,0
.LBE5355:
.LBE5363:
.LBE5401:
	.loc 13 1510 0
	stw 30,24(1)
	stw 27,12(1)
	mr 30,3
	.cfi_offset 27, -20
	.cfi_offset 30, -8
.LVL612:
	stw 31,28(1)
.LBB5402:
.LBB5364:
.LBB5356:
	.loc 13 1156 0
	beq- 7,.L525
	.cfi_offset 31, -4
.LVL613:
	lwz 11,0(4)
	mr 26,0
	b .L536
.LVL614:
.L554:
.LBE5356:
	.loc 4 285 0
	lwz 26,12(26)
.LVL615:
.LBB5357:
	.loc 13 1156 0
	cmpwi 7,26,0
	beq- 7,.L553
.L536:
.LVL616:
.LBE5357:
	.loc 4 285 0
	lwz 9,16(26)
.LBB5358:
.LBB5343:
	.loc 13 1158 0
	cmplw 7,9,11
	blt- 7,.L554
.LVL617:
.LBB5344:
	.loc 13 1160 0
	ble- 7,.L528
.LVL618:
.LBE5344:
.LBE5343:
.LBE5358:
	.loc 4 285 0
	mr 29,26
	.loc 13 1161 0
	lwz 26,8(26)
.LVL619:
.LBB5359:
	.loc 13 1156 0
	cmpwi 7,26,0
	bne+ 7,.L536
.LVL620:
.L553:
	mr 26,29
.LVL621:
.L525:
.LBE5359:
.LBE5364:
.LBB5365:
.LBB5366:
.LBB5367:
	.loc 13 1500 0
	lwz 9,12(30)
.LBE5367:
.LBE5366:
.LBE5365:
.LBB5396:
.LBB5360:
	.loc 4 285 0
	lwz 27,20(30)
.LVL622:
.LBE5360:
.LBE5396:
.LBB5397:
.LBB5394:
.LBB5392:
	.loc 13 1500 0
	cmpw 7,26,9
	beq- 7,.L555
.L537:
.LVL623:
	.loc 13 1503 0
	cmpw 7,29,26
	beq- 7,.L544
.LVL624:
.L551:
.LBB5368:
.LBB5369:
	.loc 13 277 0
	mr 3,26
	bl _ZSt18_Rb_tree_incrementPKSt18_Rb_tree_node_base
.LBE5369:
.LBE5368:
.LBB5371:
.LBB5372:
.LBB5373:
	.loc 13 1489 0
	mr 4,28
.LBE5373:
.LBE5372:
.LBE5371:
.LBB5384:
.LBB5370:
	.loc 13 277 0
	mr 31,3
.LVL625:
.LBE5370:
.LBE5384:
.LBB5385:
.LBB5381:
.LBB5378:
	.loc 13 1489 0
	mr 3,26
.LVL626:
	bl _ZSt28_Rb_tree_rebalance_for_erasePSt18_Rb_tree_node_baseRS_
.LBE5378:
.LBE5381:
.LBE5385:
	.loc 13 277 0
	mr 26,31
.LVL627:
.LBB5386:
.LBB5382:
.LBB5379:
.LBB5374:
.LBB5375:
.LBB5376:
.LBB5377:
	.loc 6 98 0
	bl _ZdlPv
.LBE5377:
.LBE5376:
.LBE5375:
.LBE5374:
.LBE5379:
.LBE5382:
.LBE5386:
	.loc 13 1503 0
	cmpw 7,29,31
.LBB5387:
.LBB5383:
.LBB5380:
	.loc 13 1491 0
	lwz 9,20(30)
	addi 0,9,-1
	stw 0,20(30)
.LBE5380:
.LBE5383:
.LBE5387:
	.loc 13 1503 0
	bne+ 7,.L551
	subf 27,0,27
.LVL628:
.L539:
.LBE5392:
.LBE5394:
.LBE5397:
.LBE5402:
	.loc 13 1517 0
	lwz 0,36(1)
	mr 3,27
	lwz 26,8(1)
	mtlr 0
	lwz 27,12(1)
	lwz 28,16(1)
	lwz 29,20(1)
.LVL629:
	lwz 30,24(1)
.LVL630:
	lwz 31,28(1)
	addi 1,1,32
	.cfi_remember_state
.LCFI96:
	.cfi_def_cfa_offset 0
	.cfi_restore 31
	.cfi_restore 30
	.cfi_restore 29
	.cfi_restore 28
	.cfi_restore 27
	.cfi_restore 26
	blr
.LVL631:
.L528:
.LCFI97:
	.cfi_restore_state
.LBB5403:
.LBB5398:
	.loc 4 285 0
	lwz 10,8(26)
.LVL632:
	lwz 9,12(26)
.LVL633:
.L552:
.LBB5361:
.LBB5354:
.LBB5353:
.LBB5345:
.LBB5346:
.LBB5347:
	.loc 13 1089 0
	cmpwi 7,10,0
	beq- 7,.L529
.L556:
.LVL634:
	.loc 13 1090 0
	lwz 8,16(10)
	cmplw 7,8,11
	blt- 7,.L530
.LVL635:
.LBE5347:
	.loc 4 285 0
	mr 26,10
	.loc 13 1091 0
	lwz 10,8(10)
.LVL636:
.LBB5348:
	.loc 13 1089 0
	cmpwi 7,10,0
	bne+ 7,.L556
.LVL637:
.L529:
.LBE5348:
.LBE5346:
.LBB5349:
.LBB5350:
	.loc 13 1121 0
	cmpwi 7,9,0
	beq- 7,.L525
.LVL638:
	.loc 13 1122 0
	lwz 10,16(9)
	cmplw 7,10,11
	ble- 7,.L533
.LVL639:
.L557:
.LBE5350:
	.loc 4 285 0
	mr 29,9
	.loc 13 1123 0
	lwz 9,8(9)
.LVL640:
.LBB5351:
	.loc 13 1121 0
	cmpwi 7,9,0
	beq- 7,.L525
.LVL641:
	.loc 13 1122 0
	lwz 10,16(9)
	cmplw 7,10,11
	bgt- 7,.L557
.LVL642:
.L533:
.LBE5351:
	.loc 4 285 0
	lwz 9,12(9)
.LVL643:
	b .L529
.LVL644:
.L530:
.LBE5349:
.LBB5352:
	lwz 10,12(10)
.LVL645:
	b .L552
.LVL646:
.L555:
.LBE5352:
.LBE5345:
.LBE5353:
.LBE5354:
.LBE5361:
.LBE5398:
.LBB5399:
.LBB5395:
.LBB5393:
	.loc 13 1500 0
	cmpw 7,28,29
	bne+ 7,.L537
.LVL647:
.LBB5388:
.LBB5389:
.LBB5390:
.LBB5391:
	.loc 13 809 0
	mr 4,0
.LVL648:
	mr 3,30
.LVL649:
	bl _ZNSt8_Rb_treeIPN7sigslot12_signal_baseINS0_15single_threadedEEES4_St9_IdentityIS4_ESt4lessIS4_ESaIS4_EE8_M_eraseEPSt13_Rb_tree_nodeIS4_E
.LVL650:
	.loc 13 811 0
	li 0,0
	.loc 13 810 0
	stw 28,12(30)
.LVL651:
	.loc 13 811 0
	stw 0,8(30)
.LVL652:
	.loc 13 812 0
	stw 28,16(30)
	.loc 13 813 0
	stw 0,20(30)
	b .L539
.LVL653:
.L544:
.LBE5391:
.LBE5390:
.LBE5389:
.LBE5388:
	.loc 13 1503 0
	li 27,0
	b .L539
.LBE5393:
.LBE5395:
.LBE5399:
.LBE5403:
	.cfi_endproc
.LFE2281:
	.size	_ZNSt8_Rb_treeIPN7sigslot12_signal_baseINS0_15single_threadedEEES4_St9_IdentityIS4_ESt4lessIS4_ESaIS4_EE5eraseERKS4_, .-_ZNSt8_Rb_treeIPN7sigslot12_signal_baseINS0_15single_threadedEEES4_St9_IdentityIS4_ESt4lessIS4_ESaIS4_EE5eraseERKS4_
	.section	.text._ZN7sigslot7signal4IP11PathBrowserhbRKSsNS_15single_threadedEED2Ev,"axG",@progbits,_ZN7sigslot7signal4IP11PathBrowserhbRKSsNS_15single_threadedEED5Ev,comdat
	.align 2
	.weak	_ZN7sigslot7signal4IP11PathBrowserhbRKSsNS_15single_threadedEED2Ev
	.type	_ZN7sigslot7signal4IP11PathBrowserhbRKSsNS_15single_threadedEED2Ev, @function
_ZN7sigslot7signal4IP11PathBrowserhbRKSsNS_15single_threadedEED2Ev:
.LFB1786:
	.loc 1 2371 0
	.cfi_startproc
	.cfi_personality 0,__gxx_personality_v0
	.cfi_lsda 0,.LLSDA1786
.LVL654:
	mflr 0
	stwu 1,-40(1)
.LCFI98:
	.cfi_def_cfa_offset 40
	.cfi_register 65, 0
.LBB5501:
.LBB5502:
.LBB5503:
.LBB5504:
	.loc 1 1066 0
	lis 9,_ZTVN7sigslot13_signal_base4IP11PathBrowserhbRKSsNS_15single_threadedEEE+8@ha
.LBE5504:
.LBE5503:
.LBE5502:
.LBE5501:
	.loc 1 2371 0
	stw 28,24(1)
	mr 28,3
	.cfi_offset 28, -16
.LVL655:
	stw 0,44(1)
.LBB5602:
.LBB5597:
.LBB5592:
.LBB5587:
	.loc 1 1066 0
	la 0,_ZTVN7sigslot13_signal_base4IP11PathBrowserhbRKSsNS_15single_threadedEEE+8@l(9)
	.cfi_offset 65, 4
.LBE5587:
.LBE5592:
.LBE5597:
.LBE5602:
	.loc 1 2371 0
	stw 29,28(1)
	addi 29,3,4
	.cfi_offset 29, -12
	stw 30,32(1)
	stw 31,36(1)
.LBB5603:
.LBB5598:
.LBB5593:
.LBB5588:
	.loc 1 1066 0
	stw 0,0(3)
.LVL656:
.LEHB69:
.LBB5505:
.LBB5506:
.LBB5507:
.LBB5508:
	.loc 1 338 0
	.cfi_offset 31, -4
	.cfi_offset 30, -8
	bl _ZN7sigslot15single_threaded4lockEv
.LEHE69:
.LVL657:
.LBE5508:
.LBE5507:
.LBE5506:
	.loc 4 285 0
	mr 29,28
.LVL658:
	lwzu 31,4(29)
.LVL659:
.LBB5539:
	.loc 1 1074 0
	cmpw 7,31,29
	beq- 7,.L559
.LVL660:
.L597:
	.loc 1 1076 0
	lwz 3,8(31)
	lwz 9,0(3)
	lwz 0,8(9)
	mtctr 0
.LEHB70:
	bctrl
.LBB5509:
.LBB5510:
.LBB5511:
.LBB5512:
	.loc 1 338 0
	lwz 9,0(3)
.LBE5512:
.LBE5511:
.LBE5510:
.LBE5509:
	.loc 1 1076 0
	mr 30,3
.LVL661:
	stw 28,8(1)
.LVL662:
.LBB5521:
.LBB5520:
.LBB5514:
.LBB5513:
	.loc 1 338 0
	lwz 0,8(9)
	mtctr 0
	bctrl
.LVL663:
.LBE5513:
.LBE5514:
.LBB5515:
.LBB5516:
	.loc 14 528 0
	addi 3,30,4
	addi 4,1,8
	bl _ZNSt8_Rb_treeIPN7sigslot12_signal_baseINS0_15single_threadedEEES4_St9_IdentityIS4_ESt4lessIS4_ESaIS4_EE5eraseERKS4_
.LVL664:
.LBE5516:
.LBE5515:
.LBB5517:
.LBB5518:
.LBB5519:
	.loc 1 343 0
	lwz 9,0(30)
	mr 3,30
	lwz 0,12(9)
	mtctr 0
	bctrl
.LVL665:
.LBE5519:
.LBE5518:
.LBE5517:
.LBE5520:
.LBE5521:
	.loc 1 1077 0
	lwz 3,8(31)
	cmpwi 7,3,0
	beq- 7,.L561
	lwz 9,0(3)
	lwz 0,4(9)
	mtctr 0
	bctrl
.LEHE70:
.L561:
.LVL666:
.LBB5522:
.LBB5523:
	.loc 5 234 0
	lwz 31,0(31)
.LVL667:
.LBE5523:
.LBE5522:
	.loc 1 1074 0
	cmpw 7,29,31
	bne+ 7,.L597
.LBE5539:
	.loc 4 285 0
	lwz 31,4(28)
.LVL668:
.LBB5540:
.LBB5524:
.LBB5525:
	.loc 5 1162 0
	cmpw 7,29,31
	bne+ 7,.L599
	b .L559
.LVL669:
.L592:
	.loc 5 1163 0
	mr 31,30
.LVL670:
.L599:
.LBB5526:
.LBB5527:
	.file 15 "d:\\devkitpro\\devkitppc\\bin\\../lib/gcc/powerpc-eabi/4.6.3/../../../../powerpc-eabi/include/c++/4.6.3/bits/list.tcc"
	.loc 15 112 0
	lwz 30,0(31)
.LVL671:
.LBB5528:
.LBB5529:
	.loc 5 1532 0
	mr 3,31
	bl _ZNSt8__detail15_List_node_base9_M_unhookEv
.LVL672:
.LBB5530:
.LBB5531:
.LBB5532:
	.loc 6 98 0
	mr 3,31
	bl _ZdlPv
.LVL673:
.LBE5532:
.LBE5531:
.LBE5530:
.LBE5529:
.LBE5528:
.LBE5527:
.LBE5526:
	.loc 5 1162 0
	cmpw 7,29,30
	bne+ 7,.L592
.LVL674:
.L559:
.LBE5525:
.LBE5524:
.LBB5533:
.LBB5534:
.LBB5535:
	.loc 1 343 0
	lwz 9,0(28)
	mr 3,28
	lwz 0,12(9)
	mtctr 0
.LEHB71:
	bctrl
.LEHE71:
.LBE5535:
.LBE5534:
.LBE5533:
.LBE5540:
.LBE5505:
.LBB5542:
.LBB5543:
.LBB5544:
.LBB5545:
.LBB5546:
.LBB5547:
	.loc 15 70 0
	lwz 3,4(28)
.LVL675:
	.loc 15 71 0
	cmpw 7,3,29
	bne+ 7,.L601
	b .L577
.LVL676:
.L593:
	.loc 15 74 0
	mr 3,31
.LVL677:
.L601:
.LBB5548:
	lwz 31,0(3)
.LVL678:
.LBB5549:
.LBB5550:
.LBB5551:
	.loc 6 98 0
	bl _ZdlPv
.LVL679:
.LBE5551:
.LBE5550:
.LBE5549:
.LBE5548:
	.loc 15 71 0
	cmpw 7,31,29
	bne+ 7,.L593
.LVL680:
.L577:
.LBE5547:
.LBE5546:
.LBE5545:
.LBE5544:
.LBE5543:
.LBE5542:
.LBB5552:
.LBB5553:
.LBB5554:
.LBB5555:
.LBB5556:
.LBB5557:
	.loc 1 105 0
	lis 9,_ZTVN7sigslot15single_threadedE+8@ha
.LBE5557:
.LBE5556:
.LBE5555:
.LBE5554:
.LBE5553:
.LBE5552:
.LBE5588:
.LBE5593:
.LBE5598:
.LBE5603:
	.loc 1 2374 0
	lwz 29,28(1)
.LVL681:
.LBB5604:
.LBB5599:
.LBB5594:
.LBB5589:
.LBB5568:
.LBB5566:
.LBB5564:
.LBB5562:
.LBB5560:
.LBB5558:
	.loc 1 105 0
	la 0,_ZTVN7sigslot15single_threadedE+8@l(9)
.LBE5558:
.LBE5560:
.LBE5562:
.LBE5564:
.LBE5566:
.LBE5568:
.LBE5589:
.LBE5594:
.LBE5599:
.LBE5604:
	.loc 1 2374 0
	lwz 30,32(1)
.LBB5605:
.LBB5600:
.LBB5595:
.LBB5590:
.LBB5569:
.LBB5567:
.LBB5565:
.LBB5563:
.LBB5561:
.LBB5559:
	.loc 1 105 0
	stw 0,0(28)
.LBE5559:
.LBE5561:
.LBE5563:
.LBE5565:
.LBE5567:
.LBE5569:
.LBE5590:
.LBE5595:
.LBE5600:
.LBE5605:
	.loc 1 2374 0
	lwz 0,44(1)
	lwz 28,24(1)
.LVL682:
	mtlr 0
	lwz 31,36(1)
	addi 1,1,40
	.cfi_remember_state
.LCFI99:
	.cfi_def_cfa_offset 0
	.cfi_restore 31
	.cfi_restore 30
	.cfi_restore 29
	.cfi_restore 28
	blr
.LVL683:
.L595:
.LCFI100:
	.cfi_restore_state
	mr 31,3
.L569:
.LBB5606:
.LBB5601:
.LBB5596:
.LBB5591:
.LBB5570:
.LBB5571:
.LBB5572:
.LBB5573:
.LBB5574:
.LBB5575:
	.loc 15 70 0
	lwz 3,4(28)
.LVL684:
	.loc 15 71 0
	cmpw 7,3,29
	beq- 7,.L586
.LVL685:
.L602:
.LBB5576:
	.loc 15 74 0
	lwz 30,0(3)
.LVL686:
.LBB5577:
.LBB5578:
.LBB5579:
	.loc 6 98 0
	bl _ZdlPv
.LVL687:
.LBE5579:
.LBE5578:
.LBE5577:
.LBE5576:
	.loc 15 71 0
	cmpw 7,30,29
	beq- 7,.L586
	.loc 15 74 0
	mr 3,30
	b .L602
.LVL688:
.L596:
.LBE5575:
.LBE5574:
.LBE5573:
.LBE5572:
.LBE5571:
.LBE5570:
.LBB5580:
.LBB5541:
.LBB5536:
.LBB5537:
.LBB5538:
	.loc 1 343 0
	lwz 9,0(28)
	mr 31,3
.LVL689:
	mr 3,28
	lwz 0,12(9)
	mtctr 0
	bctrl
	b .L569
.LVL690:
.L586:
.LBE5538:
.LBE5537:
.LBE5536:
.LBE5541:
.LBE5580:
.LBB5581:
.LBB5582:
.LBB5583:
.LBB5584:
.LBB5585:
.LBB5586:
	.loc 1 105 0
	lis 9,_ZTVN7sigslot15single_threadedE+8@ha
	mr 3,31
	la 0,_ZTVN7sigslot15single_threadedE+8@l(9)
	stw 0,0(28)
.LEHB72:
	bl _Unwind_Resume
.LEHE72:
.LBE5586:
.LBE5585:
.LBE5584:
.LBE5583:
.LBE5582:
.LBE5581:
.LBE5591:
.LBE5596:
.LBE5601:
.LBE5606:
	.cfi_endproc
.LFE1786:
	.section	.gcc_except_table
.LLSDA1786:
	.byte	0xff
	.byte	0xff
	.byte	0x1
	.uleb128 .LLSDACSE1786-.LLSDACSB1786
.LLSDACSB1786:
	.uleb128 .LEHB69-.LFB1786
	.uleb128 .LEHE69-.LEHB69
	.uleb128 .L595-.LFB1786
	.uleb128 0
	.uleb128 .LEHB70-.LFB1786
	.uleb128 .LEHE70-.LEHB70
	.uleb128 .L596-.LFB1786
	.uleb128 0
	.uleb128 .LEHB71-.LFB1786
	.uleb128 .LEHE71-.LEHB71
	.uleb128 .L595-.LFB1786
	.uleb128 0
	.uleb128 .LEHB72-.LFB1786
	.uleb128 .LEHE72-.LEHB72
	.uleb128 0
	.uleb128 0
.LLSDACSE1786:
	.section	.text._ZN7sigslot7signal4IP11PathBrowserhbRKSsNS_15single_threadedEED2Ev,"axG",@progbits,_ZN7sigslot7signal4IP11PathBrowserhbRKSsNS_15single_threadedEED5Ev,comdat
	.size	_ZN7sigslot7signal4IP11PathBrowserhbRKSsNS_15single_threadedEED2Ev, .-_ZN7sigslot7signal4IP11PathBrowserhbRKSsNS_15single_threadedEED2Ev
	.section	".text"
	.align 2
	.globl _ZN11PathBrowserC2ERKSsh
	.type	_ZN11PathBrowserC2ERKSsh, @function
_ZN11PathBrowserC2ERKSsh:
.LFB1678:
	.loc 4 26 0
	.cfi_startproc
	.cfi_personality 0,__gxx_personality_v0
	.cfi_lsda 0,.LLSDA1678
.LVL691:
	stwu 1,-96(1)
.LCFI101:
	.cfi_def_cfa_offset 96
	mflr 0
.LBB5763:
	.loc 4 27 0
	li 6,0
.LBE5763:
	.loc 4 26 0
	stw 24,64(1)
	mr 24,4
	.cfi_offset 24, -32
	.cfi_register 65, 0
	stw 28,80(1)
.LBB5985:
	.loc 4 27 0
	li 4,0
.LVL692:
.LBE5985:
	.loc 4 26 0
	stw 31,92(1)
	mr 28,5
	.cfi_offset 31, -4
	.cfi_offset 28, -16
	mr 31,3
.LBB5986:
	.loc 4 27 0
	li 5,0
.LVL693:
.LBE5986:
	.loc 4 26 0
	stw 0,100(1)
	stw 30,88(1)
.LBB5987:
	.loc 4 27 0
	addi 30,31,312
	.cfi_offset 30, -8
	.cfi_offset 65, 4
.LBE5987:
	.loc 4 26 0
	stw 25,68(1)
	stw 26,72(1)
	stw 27,76(1)
	stw 29,84(1)
.LEHB73:
.LBB5988:
	.loc 4 27 0
	.cfi_offset 29, -12
	.cfi_offset 27, -20
	.cfi_offset 26, -24
	.cfi_offset 25, -28
	bl _ZN8GuiFrameC2EiiPS_
.LEHE73:
.LVL694:
.LBB5764:
.LBB5765:
.LBB5766:
.LBB5767:
.LBB5768:
.LBB5769:
.LBB5770:
.LBB5771:
	.loc 5 380 0
	addi 9,31,208
.LBE5771:
.LBE5770:
.LBE5769:
.LBE5768:
.LBE5767:
.LBE5766:
.LBE5765:
.LBE5764:
	.loc 4 27 0
	lis 11,_ZTV11PathBrowser+8@ha
.LBB5788:
.LBB5789:
.LBB5790:
.LBB5791:
.LBB5792:
.LBB5793:
	.loc 13 445 0
	li 0,0
.LBE5793:
.LBE5792:
.LBE5791:
.LBE5790:
.LBE5789:
.LBE5788:
	.loc 4 27 0
	la 11,_ZTV11PathBrowser+8@l(11)
.LBB5818:
.LBB5784:
.LBB5782:
.LBB5780:
.LBB5778:
.LBB5776:
.LBB5774:
.LBB5772:
	.loc 5 380 0
	stw 9,208(31)
.LBE5772:
.LBE5774:
.LBE5776:
.LBE5778:
.LBE5780:
.LBE5782:
.LBE5784:
.LBE5818:
.LBB5819:
.LBB5814:
.LBB5810:
.LBB5806:
.LBB5802:
.LBB5798:
.LBB5794:
.LBB5795:
	.loc 13 459 0
	addi 10,31,184
.LBE5795:
.LBE5794:
.LBE5798:
.LBE5802:
.LBE5806:
.LBE5810:
.LBE5814:
.LBE5819:
.LBB5820:
.LBB5785:
.LBB5783:
.LBB5781:
.LBB5779:
.LBB5777:
.LBB5775:
.LBB5773:
	.loc 5 381 0
	stw 9,212(31)
.LBE5773:
.LBE5775:
.LBE5777:
.LBE5779:
.LBE5781:
.LBE5783:
	.loc 1 2361 0
	lis 9,_ZTVN7sigslot7signal4IP11PathBrowserhbRKSsNS_15single_threadedEEE+8@ha
.LBE5785:
.LBE5820:
	.loc 4 27 0
	addi 8,11,228
.LBB5821:
.LBB5815:
.LBB5811:
.LBB5807:
.LBB5803:
.LBB5799:
	.loc 13 445 0
	stw 0,184(31)
	stw 0,188(31)
.LBE5799:
.LBE5803:
.LBE5807:
.LBE5811:
.LBE5815:
.LBE5821:
	.loc 4 27 0
	mr 3,30
.LBB5822:
.LBB5816:
.LBB5812:
.LBB5808:
.LBB5804:
.LBB5800:
	.loc 13 445 0
	stw 0,200(31)
.LVL695:
.LBE5800:
.LBE5804:
.LBE5808:
.LBE5812:
.LBE5816:
.LBE5822:
.LBB5823:
.LBB5786:
	.loc 1 2361 0
	la 0,_ZTVN7sigslot7signal4IP11PathBrowserhbRKSsNS_15single_threadedEEE+8@l(9)
.LBE5786:
.LBE5823:
.LBB5824:
.LBB5817:
.LBB5813:
.LBB5809:
.LBB5805:
.LBB5801:
.LBB5797:
.LBB5796:
	.loc 13 459 0
	stw 10,192(31)
	.loc 13 460 0
	stw 10,196(31)
.LBE5796:
.LBE5797:
.LBE5801:
.LBE5805:
.LBE5809:
.LBE5813:
.LBE5817:
.LBE5824:
	.loc 4 27 0
	stw 11,0(31)
	stw 8,176(31)
.LVL696:
.LBB5825:
.LBB5787:
	.loc 1 2361 0
	stw 0,204(31)
.LEHB74:
.LBE5787:
.LBE5825:
	.loc 4 27 0
	bl _ZN10GuiTriggerC1Ev
.LEHE74:
	.loc 4 27 0 is_stmt 0 discriminator 3
	addi 29,31,680
	mr 3,29
.LEHB75:
	bl _ZN10GuiTriggerC1Ev
.LEHE75:
	.loc 4 30 0 is_stmt 1
	li 0,0
	.loc 4 32 0
	lis 3,.LC14@ha
	.loc 4 29 0
	stb 28,216(31)
	.loc 4 32 0
	la 3,.LC14@l(3)
	.loc 4 30 0
	stw 0,220(31)
.LEHB76:
	.loc 4 32 0
	bl _ZN9Resources8GetSoundEPKc
	stw 3,236(31)
	.loc 4 33 0
	lis 3,.LC15@ha
	la 3,.LC15@l(3)
	bl _ZN9Resources8GetSoundEPKc
	.loc 4 34 0 discriminator 1
	lis 28,Settings@ha
	.loc 4 33 0 discriminator 1
	stw 3,240(31)
	.loc 4 34 0 discriminator 1
	la 28,Settings@l(28)
	lwz 3,236(31)
	lwz 4,1248(28)
	bl _ZN8GuiSound9SetVolumeEi
	.loc 4 35 0
	lwz 3,240(31)
	lwz 4,1248(28)
	bl _ZN8GuiSound9SetVolumeEi
	.loc 4 37 0
	lhz 5,2644(28)
	mr 3,30
	lhz 0,2616(28)
	li 4,-1
	slwi 5,5,16
	lhz 6,2672(28)
	or 5,5,0
	bl _ZN10GuiTrigger16SetSimpleTriggerEijt
	.loc 4 38 0
	lhz 5,2646(28)
	mr 3,29
	lhz 0,2618(28)
	li 4,-1
	slwi 5,5,16
	lhz 6,2674(28)
	or 5,5,0
	bl _ZN10GuiTrigger20SetButtonOnlyTriggerEijt
	.loc 4 40 0
	lis 3,.LC16@ha
	la 3,.LC16@l(3)
	bl _ZN9Resources12GetImageDataEPKc
	stw 3,244(31)
	.loc 4 41 0
	li 3,196
	bl _Znwj
.LEHE76:
	.loc 4 41 0 is_stmt 0 discriminator 1
	lwz 4,244(31)
	mr 28,3
.LEHB77:
	bl _ZN8GuiImageC1EP12GuiImageData
.LEHE77:
	stw 28,264(31)
	.loc 4 45 0 is_stmt 1 discriminator 1
	lis 3,.LC17@ha
	.loc 4 42 0 discriminator 1
	lwz 9,244(31)
	.loc 4 45 0 discriminator 1
	la 3,.LC17@l(3)
	.loc 4 285 0 discriminator 1
	lwz 0,12(9)
	.loc 4 42 0 discriminator 1
	stw 0,36(31)
	.loc 4 285 0 discriminator 1
	lwz 0,8(9)
	.loc 4 43 0 discriminator 1
	stw 0,40(31)
.LEHB78:
	.loc 4 45 0 discriminator 1
	bl _ZN9Resources12GetImageDataEPKc
	stw 3,260(31)
	.loc 4 46 0 discriminator 1
	li 3,196
	bl _Znwj
.LEHE78:
	lwz 4,260(31)
	mr 28,3
.LEHB79:
	bl _ZN8GuiImageC1EP12GuiImageData
.LEHE79:
	stw 28,272(31)
	.loc 4 47 0 discriminator 1
	mr 3,28
	lwz 9,0(28)
	li 4,20
	lwz 0,180(9)
	mtctr 0
.LEHB80:
	bctrl
	.loc 4 48 0
	lwz 3,272(31)
	li 4,-18
	li 5,15
	lwz 9,0(3)
	lwz 0,168(9)
	mtctr 0
	bctrl
	.loc 4 49 0
	li 3,196
	bl _Znwj
.LEHE80:
	lwz 4,260(31)
	mr 28,3
.LEHB81:
	bl _ZN8GuiImageC1EP12GuiImageData
.LEHE81:
	.loc 4 49 0 is_stmt 0 discriminator 1
	stw 28,276(31)
	.loc 4 50 0 is_stmt 1 discriminator 1
	mr 3,28
	lwz 9,0(28)
	li 4,20
	lwz 0,180(9)
	mtctr 0
.LEHB82:
	bctrl
	.loc 4 51 0
	lwz 3,276(31)
	li 4,-58
	li 5,15
	lwz 9,0(3)
	lwz 0,168(9)
	mtctr 0
	bctrl
	.loc 4 53 0
	lis 27,.LC18@ha
	la 27,.LC18@l(27)
	mr 3,27
	bl _ZN9Resources12GetImageDataEPKc
	stw 3,248(31)
	.loc 4 54 0
	lis 3,.LC19@ha
	la 3,.LC19@l(3)
	bl _ZN9Resources12GetImageDataEPKc
	.loc 4 54 0 is_stmt 0 discriminator 1
	stw 3,252(31)
	.loc 4 55 0 is_stmt 1 discriminator 1
	lis 3,.LC20@ha
	la 3,.LC20@l(3)
	bl _ZN9Resources12GetImageDataEPKc
	.loc 4 56 0 discriminator 1
	li 0,0
	.loc 4 55 0 discriminator 1
	stw 3,256(31)
	.loc 4 56 0 discriminator 1
	stw 0,268(31)
	.loc 4 58 0 discriminator 1
	li 3,196
	bl _Znwj
.LEHE82:
	lwz 4,256(31)
	mr 28,3
.LEHB83:
	bl _ZN8GuiImageC1EP12GuiImageData
.LEHE83:
	.loc 4 59 0 discriminator 1
	lwz 9,0(28)
	mr 3,28
	.loc 4 58 0 discriminator 1
	stw 28,280(31)
	.loc 4 59 0 discriminator 1
	lwz 0,104(9)
	lis 9,.LC21@ha
	lfs 1,.LC21@l(9)
	mtctr 0
.LEHB84:
	bctrl
	.loc 4 60 0
	lwz 3,280(31)
	li 4,0
	li 5,-7
	lwz 9,0(3)
	lwz 0,168(9)
	mtctr 0
	bctrl
	.loc 4 61 0
	lwz 3,280(31)
	lwz 9,0(3)
	lwz 0,36(9)
	mtctr 0
	bctrl
	mr 25,3
	lwz 3,280(31)
	lwz 9,0(3)
	lwz 0,40(9)
	mtctr 0
	bctrl
	.loc 4 61 0 is_stmt 0 discriminator 1
	mr 26,3
	li 3,312
	bl _Znwj
.LEHE84:
	lis 0,0x4330
	xoris 25,25,0x8000
	xoris 26,26,0x8000
	stw 25,28(1)
	stw 0,24(1)
	lis 9,.LC1@ha
	stw 26,36(1)
	addi 8,1,56
	stw 0,32(1)
	mr 28,3
	lfs 0,.LC1@l(9)
	lis 9,.LC22@ha
	lfd 13,24(1)
	lfd 12,32(1)
	fsub 13,13,0
	fsub 12,12,0
	lfd 0,.LC22@l(9)
	addi 9,1,60
	fmul 13,13,0
	fmul 0,12,0
	fctiwz 13,13
	fctiwz 0,0
	stfiwx 13,0,8
	stfiwx 0,0,9
	lwz 4,56(1)
	lwz 5,60(1)
.LEHB85:
	bl _ZN9GuiButtonC1Eii
.LEHE85:
	stw 28,304(31)
	.loc 4 62 0 is_stmt 1 discriminator 1
	mr 3,28
	lwz 9,0(28)
	li 4,17
	lwz 0,180(9)
	mtctr 0
.LEHB86:
	bctrl
	.loc 4 63 0
	lwz 3,304(31)
	li 4,10
	li 5,15
	lwz 9,0(3)
	lwz 0,168(9)
	mtctr 0
	bctrl
	.loc 4 64 0
	lwz 3,304(31)
	lwz 4,280(31)
	bl _ZN9GuiButton8SetImageEP8GuiImage
	.loc 4 65 0
	lwz 3,304(31)
	lwz 4,236(31)
	bl _ZN9GuiButton13SetSoundClickEP8GuiSound
	.loc 4 66 0
	lwz 3,304(31)
	lwz 4,240(31)
	bl _ZN9GuiButton12SetSoundOverEP8GuiSound
	.loc 4 67 0
	lwz 3,304(31)
	mr 4,30
	bl _ZN9GuiButton10SetTriggerEP10GuiTrigger
	.loc 4 68 0
	lwz 3,304(31)
	lwz 9,0(3)
	lwz 0,144(9)
	mtctr 0
	bctrl
	.loc 4 69 0
	lwz 3,304(31)
	lis 9,_ZN11PathBrowser19OnFolderButtonClickEP9GuiButtoniRK6_POINT@ha
	la 0,_ZN11PathBrowser19OnFolderButtonClickEP9GuiButtoniRK6_POINT@l(9)
	mr 4,31
	stw 0,40(1)
	addi 3,3,144
	li 0,0
	addi 5,1,40
	stw 0,44(1)
	bl _ZN7sigslot7signal3IP9GuiButtoniRK6_POINTNS_15single_threadedEE7connectI11PathBrowserEEvPT_MSA_FvS2_iS5_E
	.loc 4 71 0
	li 3,320
	bl _Znwj
.LEHE86:
	lwz 6,236(31)
	mr 4,27
	lwz 7,240(31)
	mr 5,27
	mr 28,3
.LEHB87:
	bl _ZN13PictureButtonC1EPKcS1_P8GuiSoundS3_
.LEHE87:
	.loc 4 71 0 is_stmt 0 discriminator 1
	stw 28,288(31)
	.loc 4 72 0 is_stmt 1 discriminator 1
	mr 3,28
	lwz 9,0(28)
	li 4,17
	lwz 0,180(9)
	mtctr 0
.LEHB88:
	bctrl
	.loc 4 73 0
	lwz 3,288(31)
	li 4,58
	li 5,17
	lwz 9,0(3)
	lwz 0,168(9)
	mtctr 0
	bctrl
	.loc 4 74 0
	lwz 3,288(31)
	mr 4,30
	bl _ZN9GuiButton10SetTriggerEP10GuiTrigger
	.loc 4 75 0
	lwz 3,288(31)
	lis 9,_ZN11PathBrowser16OnDevButtonClickEP9GuiButtoniRK6_POINT@ha
	la 0,_ZN11PathBrowser16OnDevButtonClickEP9GuiButtoniRK6_POINT@l(9)
	mr 4,31
	stw 0,40(1)
	addi 3,3,144
	li 0,0
	addi 5,1,40
	stw 0,44(1)
	bl _ZN7sigslot7signal3IP9GuiButtoniRK6_POINTNS_15single_threadedEE7connectI11PathBrowserEEvPT_MSA_FvS2_iS5_E
	.loc 4 77 0
	li 3,320
	bl _Znwj
.LEHE88:
	lis 4,.LC23@ha
	lis 5,.LC24@ha
	lwz 6,236(31)
	la 4,.LC23@l(4)
	lwz 7,240(31)
	la 5,.LC24@l(5)
	mr 28,3
.LEHB89:
	bl _ZN13PictureButtonC1EPKcS1_P8GuiSoundS3_
.LEHE89:
	.loc 4 77 0 is_stmt 0 discriminator 1
	stw 28,292(31)
	.loc 4 78 0 is_stmt 1 discriminator 1
	mr 3,28
	lwz 9,0(28)
	li 4,20
	lwz 0,180(9)
	mtctr 0
.LEHB90:
	bctrl
	.loc 4 79 0
	lwz 3,292(31)
	li 4,-21
	li 5,17
	lwz 9,0(3)
	lwz 0,168(9)
	mtctr 0
	bctrl
	.loc 4 80 0
	lwz 3,292(31)
	mr 4,30
	bl _ZN9GuiButton10SetTriggerEP10GuiTrigger
	.loc 4 81 0
	lwz 3,292(31)
	lis 27,_ZN11PathBrowser13OnButtonClickEP9GuiButtoniRK6_POINT@ha
	la 27,_ZN11PathBrowser13OnButtonClickEP9GuiButtoniRK6_POINT@l(27)
	li 0,0
	addi 3,3,144
	mr 4,31
	addi 5,1,40
	stw 27,40(1)
	stw 0,44(1)
	bl _ZN7sigslot7signal3IP9GuiButtoniRK6_POINTNS_15single_threadedEE7connectI11PathBrowserEEvPT_MSA_FvS2_iS5_E
	.loc 4 83 0
	li 3,320
	bl _Znwj
.LEHE90:
	lis 4,.LC25@ha
	lis 5,.LC26@ha
	lwz 6,236(31)
	la 4,.LC25@l(4)
	lwz 7,240(31)
	la 5,.LC26@l(5)
	mr 28,3
.LEHB91:
	bl _ZN13PictureButtonC1EPKcS1_P8GuiSoundS3_
.LEHE91:
	.loc 4 83 0 is_stmt 0 discriminator 1
	stw 28,296(31)
	.loc 4 84 0 is_stmt 1 discriminator 1
	mr 3,28
	lwz 9,0(28)
	li 4,20
	lwz 0,180(9)
	mtctr 0
.LEHB92:
	bctrl
	.loc 4 85 0
	lwz 3,296(31)
	li 4,-61
	li 5,17
	lwz 9,0(3)
	lwz 0,168(9)
	mtctr 0
	bctrl
	.loc 4 86 0
	lwz 3,296(31)
	mr 4,30
	bl _ZN9GuiButton10SetTriggerEP10GuiTrigger
	.loc 4 87 0
	lwz 3,296(31)
	lis 9,_ZN11PathBrowser17OnWifiButtonClickEP9GuiButtoniRK6_POINT@ha
	la 0,_ZN11PathBrowser17OnWifiButtonClickEP9GuiButtoniRK6_POINT@l(9)
	mr 4,31
	stw 0,40(1)
	addi 3,3,144
	li 0,0
	addi 5,1,40
	stw 0,44(1)
	bl _ZN7sigslot7signal3IP9GuiButtoniRK6_POINTNS_15single_threadedEE7connectI11PathBrowserEEvPT_MSA_FvS2_iS5_E
	.loc 4 89 0
	li 3,320
	bl _Znwj
.LEHE92:
	lis 4,.LC27@ha
	lis 5,.LC28@ha
	lwz 6,236(31)
	la 4,.LC27@l(4)
	lwz 7,240(31)
	la 5,.LC28@l(5)
	mr 28,3
.LEHB93:
	bl _ZN13PictureButtonC1EPKcS1_P8GuiSoundS3_
.LEHE93:
	.loc 4 89 0 is_stmt 0 discriminator 1
	stw 28,300(31)
	.loc 4 90 0 is_stmt 1 discriminator 1
	mr 3,28
	lwz 9,0(28)
	li 4,20
	lwz 0,180(9)
	mtctr 0
.LEHB94:
	bctrl
	.loc 4 91 0
	lwz 3,300(31)
	li 4,-61
	li 5,17
	lwz 9,0(3)
	lwz 0,168(9)
	mtctr 0
	bctrl
	.loc 4 92 0
	lwz 3,300(31)
	mr 4,30
	bl _ZN9GuiButton10SetTriggerEP10GuiTrigger
	.loc 4 93 0
	lwz 3,300(31)
	li 0,0
	mr 4,31
	addi 5,1,40
	addi 3,3,144
	stw 27,40(1)
	stw 0,44(1)
	bl _ZN7sigslot7signal3IP9GuiButtoniRK6_POINTNS_15single_threadedEE7connectI11PathBrowserEEvPT_MSA_FvS2_iS5_E
	.loc 4 95 0
	li 3,312
	bl _Znwj
.LEHE94:
	li 4,0
	li 5,0
	mr 28,3
.LEHB95:
	bl _ZN9GuiButtonC1Eii
.LEHE95:
	.loc 4 95 0 is_stmt 0 discriminator 1
	stw 28,308(31)
	.loc 4 96 0 is_stmt 1 discriminator 1
	mr 3,28
	mr 4,29
.LEHB96:
	bl _ZN9GuiButton10SetTriggerEP10GuiTrigger
	.loc 4 97 0
	lwz 3,308(31)
	lis 9,_ZN11PathBrowser16OnBackInDirClickEP9GuiButtoniRK6_POINT@ha
	la 0,_ZN11PathBrowser16OnBackInDirClickEP9GuiButtoniRK6_POINT@l(9)
	mr 4,31
	stw 0,40(1)
	addi 3,3,144
	li 0,0
	addi 5,1,40
	stw 0,44(1)
	bl _ZN7sigslot7signal3IP9GuiButtoniRK6_POINTNS_15single_threadedEE7connectI11PathBrowserEEvPT_MSA_FvS2_iS5_E
	.loc 4 99 0
	li 0,0
	.loc 4 102 0
	li 3,76
	.loc 4 99 0
	stw 0,232(31)
	.loc 4 100 0
	stw 0,228(31)
	.loc 4 102 0
	bl _Znwj
.LEHE96:
	mr 28,3
.LEHB97:
	bl _ZN13CustomBrowserC1Ev
.LEHE97:
	.loc 4 102 0 is_stmt 0 discriminator 2
	stw 28,224(31)
	.loc 4 104 0 is_stmt 1 discriminator 2
	li 3,292
	.loc 4 103 0 discriminator 2
	stw 28,228(31)
.LEHB98:
	.loc 4 104 0 discriminator 2
	bl _Znwj
.LEHE98:
	lwz 4,228(31)
	li 5,315
	li 6,270
	mr 28,3
.LEHB99:
	bl _ZN17CustomFileBrowserC1EP7Browserii
.LEHE99:
	.loc 4 104 0 is_stmt 0 discriminator 1
	stw 28,232(31)
	.loc 4 105 0 is_stmt 1 discriminator 1
	mr 3,28
	lwz 9,0(28)
	li 4,30
	li 5,56
	lwz 0,168(9)
	mtctr 0
.LEHB100:
	bctrl
	.loc 4 106 0
	lwz 27,232(31)
.LVL697:
.LBB5826:
.LBB5827:
.LBB5828:
.LBB5829:
	.loc 1 338 0
	lwz 9,144(27)
.LBE5829:
.LBE5828:
	.loc 1 2177 0
	addi 26,27,144
.LVL698:
.LBB5831:
.LBB5830:
	.loc 1 338 0
	mr 3,26
	lwz 0,8(9)
	mtctr 0
	bctrl
.LEHE100:
.LVL699:
.LBE5830:
.LBE5831:
	.loc 1 2179 0
	li 3,16
.LEHB101:
	bl _Znwj
.LBB5832:
.LBB5833:
	.loc 1 1683 0
	lis 9,_ZTVN7sigslot12_connection1I11PathBrowseriNS_15single_threadedEEE+8@ha
	.loc 1 1684 0
	stw 31,4(3)
	.loc 1 1683 0
	la 0,_ZTVN7sigslot12_connection1I11PathBrowseriNS_15single_threadedEEE+8@l(9)
.LBE5833:
.LBE5832:
.LBE5827:
	.loc 1 1685 0
	lis 9,_ZN11PathBrowser16OnBrowserChangesEi@ha
.LBB5871:
.LBB5835:
.LBB5834:
	.loc 1 1683 0
	stw 0,0(3)
.LBE5834:
.LBE5835:
.LBE5871:
	.loc 1 1685 0
	la 0,_ZN11PathBrowser16OnBrowserChangesEi@l(9)
	stw 0,8(3)
	li 0,0
	stw 0,12(3)
.LBB5872:
	.loc 1 2179 0
	mr 28,3
.LVL700:
.LBB5836:
.LBB5837:
.LBB5838:
.LBB5839:
.LBB5840:
.LBB5841:
.LBB5842:
.LBB5843:
	.loc 6 92 0
	li 3,12
.LVL701:
	bl _Znwj
.LVL702:
.LBE5843:
.LBE5842:
.LBE5841:
.LBB5844:
.LBB5845:
	.loc 6 108 0
	cmpwi 7,3,-8
	beq- 7,.L605
	stw 28,8(3)
.L605:
.LVL703:
.LBE5845:
.LBE5844:
.LBE5840:
.LBE5839:
	.loc 5 1516 0
	addi 4,27,148
.LBE5838:
.LBE5837:
.LBE5836:
.LBB5848:
.LBB5849:
	.loc 1 503 0
	addi 28,31,176
.LVL704:
.LBE5849:
.LBE5848:
.LBB5862:
.LBB5847:
.LBB5846:
	.loc 5 1516 0
	bl _ZNSt8__detail15_List_node_base7_M_hookEPS0_
.LVL705:
	stw 26,12(1)
.LVL706:
.LBE5846:
.LBE5847:
.LBE5862:
.LBB5863:
.LBB5860:
.LBB5850:
.LBB5851:
	.loc 1 338 0
	lwz 9,176(31)
	mr 3,28
	lwz 0,8(9)
	mtctr 0
	bctrl
.LEHE101:
.LVL707:
.LBE5851:
.LBE5850:
.LBB5852:
.LBB5853:
	.loc 14 410 0
	addi 3,31,180
	addi 4,1,12
.LEHB102:
	bl _ZNSt8_Rb_treeIPN7sigslot12_signal_baseINS0_15single_threadedEEES4_St9_IdentityIS4_ESt4lessIS4_ESaIS4_EE16_M_insert_uniqueERKS4_
.LEHE102:
.LVL708:
.LBE5853:
.LBE5852:
.LBB5854:
.LBB5855:
.LBB5856:
	.loc 1 343 0
	lwz 9,176(31)
	mr 3,28
	lwz 0,12(9)
	mtctr 0
.LEHB103:
	bctrl
.LEHE103:
.LVL709:
.LBE5856:
.LBE5855:
.LBE5854:
.LBE5860:
.LBE5863:
.LBB5864:
.LBB5865:
.LBB5866:
	lwz 9,144(27)
	mr 3,26
	lwz 0,12(9)
	mtctr 0
.LEHB104:
	bctrl
.LBE5866:
.LBE5865:
.LBE5864:
.LBE5872:
.LBE5826:
	.loc 4 108 0
	lwz 9,224(31)
	.loc 4 109 0
	addi 3,1,20
	.loc 4 108 0
	lbz 0,216(31)
.LVL710:
	.loc 4 109 0
	mr 4,24
.LBB5874:
.LBB5875:
	.file 16 "d:/Projects/SaveGameManager/savegame-manager-gx/trunk/source/Prompts/../Files/custombrowser.h"
	.loc 16 46 0
	stb 0,74(9)
.LBE5875:
.LBE5874:
	.loc 4 109 0
	lwz 28,224(31)
.LVL711:
	lwz 9,0(28)
	lwz 27,8(9)
.LVL712:
	bl _ZNSsC1ERKSs
.LEHE104:
.LVL713:
	.loc 4 109 0 is_stmt 0 discriminator 1
	mr 3,28
	addi 4,1,20
	mtctr 27
.LEHB105:
	bctrl
.LEHE105:
.LVL714:
.LBB5876:
.LBB5877:
.LBB5878:
.LBB5879:
.LBB5880:
.LBB5881:
	.loc 7 288 0 is_stmt 1
	lwz 9,20(1)
.LBE5881:
.LBE5880:
.LBE5879:
.LBB5882:
.LBB5883:
	.loc 7 235 0
	lis 27,_ZNSs4_Rep20_S_empty_rep_storageE@ha
	la 27,_ZNSs4_Rep20_S_empty_rep_storageE@l(27)
.LBE5883:
.LBE5882:
	.loc 7 534 0
	addi 3,9,-12
.LVL715:
.LBB5892:
.LBB5890:
	.loc 7 235 0
	cmpw 7,3,27
	bne- 7,.L687
.LVL716:
.L618:
.LBE5890:
.LBE5892:
.LBE5878:
.LBE5877:
.LBE5876:
	.loc 4 111 0 discriminator 1
	lwz 4,228(31)
	addi 3,1,16
	lwz 9,0(4)
	lwz 0,72(9)
	mtctr 0
.LEHB106:
	bctrl
.LEHE106:
.LVL717:
	.loc 4 111 0 is_stmt 0
	lis 3,.LC29@ha
.LBB5896:
.LBB5897:
.LBB5898:
	.loc 7 288 0 is_stmt 1
	lwz 26,16(1)
.LVL718:
.LBE5898:
.LBE5897:
.LBE5896:
	.loc 4 111 0
	la 3,.LC29@l(3)
.LEHB107:
	bl getThemeColor
	mr 25,3
	li 3,208
	bl _Znwj
.LEHE107:
	.loc 4 111 0 is_stmt 0 discriminator 2
	mr 6,1
	mr 4,26
	stwu 25,48(6)
	li 5,18
	mr 28,3
.LEHB108:
	bl _ZN7GuiTextC1EPKci9_gx_color
.LEHE108:
.LBB5899:
.LBB5900:
.LBB5901:
.LBB5902:
.LBB5903:
.LBB5904:
	.loc 7 288 0 is_stmt 1 discriminator 1
	lwz 9,16(1)
.LBE5904:
.LBE5903:
.LBE5902:
.LBE5901:
.LBE5900:
.LBE5899:
	.loc 4 111 0 discriminator 1
	stw 28,284(31)
.LVL719:
.LBB5919:
.LBB5917:
.LBB5915:
	.loc 7 534 0 discriminator 1
	addi 3,9,-12
.LVL720:
.LBB5905:
.LBB5906:
	.loc 7 235 0 discriminator 1
	cmpw 7,3,27
	bne- 7,.L688
.LVL721:
.L624:
.LBE5906:
.LBE5905:
.LBE5915:
.LBE5917:
.LBE5919:
	.loc 4 112 0 discriminator 1
	lwz 9,0(28)
	mr 3,28
	li 4,17
	lwz 0,180(9)
	mtctr 0
.LEHB109:
	bctrl
	.loc 4 113 0
	lwz 3,284(31)
	li 4,76
	li 5,17
	lwz 9,0(3)
	lwz 0,168(9)
	mtctr 0
	bctrl
	.loc 4 114 0
	lwz 3,284(31)
	li 4,237
	li 5,2
	bl _ZN7GuiText11SetMaxWidthEii
	.loc 4 116 0
	lwz 4,264(31)
	mr 3,31
	bl _ZN8GuiFrame6AppendEP10GuiElement
	.loc 4 117 0
	lwz 4,304(31)
	mr 3,31
	bl _ZN8GuiFrame6AppendEP10GuiElement
	.loc 4 118 0
	lwz 4,288(31)
	mr 3,31
	bl _ZN8GuiFrame6AppendEP10GuiElement
	.loc 4 119 0
	lwz 4,272(31)
	mr 3,31
	bl _ZN8GuiFrame6AppendEP10GuiElement
	.loc 4 120 0
	lwz 4,292(31)
	mr 3,31
	bl _ZN8GuiFrame6AppendEP10GuiElement
	.loc 4 121 0
	lbz 0,216(31)
	cmpwi 7,0,2
	beq- 7,.L625
	.loc 4 122 0
	lwz 4,276(31)
	mr 3,31
	bl _ZN8GuiFrame6AppendEP10GuiElement
	.loc 4 123 0
	lbz 0,216(31)
	cmpwi 7,0,4
	beq- 7,.L689
	.loc 4 125 0
	cmpwi 7,0,1
	beq- 7,.L690
.L625:
	.loc 4 127 0
	lwz 4,284(31)
	mr 3,31
	bl _ZN8GuiFrame6AppendEP10GuiElement
	.loc 4 128 0
	lwz 4,232(31)
	mr 3,31
	bl _ZN8GuiFrame6AppendEP10GuiElement
	.loc 4 129 0
	lwz 4,308(31)
	mr 3,31
	bl _ZN8GuiFrame6AppendEP10GuiElement
	.loc 4 131 0
	mr 3,31
	li 4,1
	bl _ZN8GuiFrame13DimBackgroundEb
.LVL722:
.LBB5920:
.LBB5921:
	.loc 2 316 0
	li 0,34
.LBE5921:
.LBE5920:
	.loc 4 133 0
	mr 3,31
.LBB5923:
.LBB5922:
	.loc 2 316 0
	stw 0,68(31)
.LBE5922:
.LBE5923:
	.loc 4 133 0
	li 4,128
	li 5,20
	li 6,0
	bl _ZN10GuiElement9SetEffectEiii
.LBB5924:
.LBB5925:
	.file 17 "d:/Projects/SaveGameManager/savegame-manager-gx/trunk/source/Prompts/../Controls/Application.h"
	.loc 17 27 0
	lis 25,_ZN11Application8instanceE@ha
	lwz 26,_ZN11Application8instanceE@l(25)
	cmpwi 7,26,0
	beq- 7,.L691
.L627:
	stw 31,12(1)
.LVL723:
.LBE5925:
.LBE5924:
.LBB5929:
.LBB5930:
.LBB5931:
.LBB5932:
	.loc 17 69 0
	li 28,0
.LBE5932:
	.loc 4 285 0
	lwz 9,604(26)
	lwz 11,608(26)
.LBB5960:
	.loc 17 69 0
	mr 0,9
.LBB5933:
.LBB5934:
	.loc 11 571 0
	subf 10,9,11
.LBE5934:
.LBE5933:
	.loc 17 69 0
	srwi. 8,10,2
	bne+ 0,.L681
	b .L629
.LVL724:
.L631:
.LBB5938:
.LBB5935:
	.loc 11 571 0
	subf 9,0,11
.LBE5935:
.LBE5938:
	.loc 17 69 0
	addi 28,28,1
.LVL725:
.LBB5939:
.LBB5936:
	.loc 11 571 0
	srawi 9,9,2
.LBE5936:
.LBE5939:
	.loc 17 69 0
	cmplw 7,28,9
	bge- 7,.L629
.LVL726:
.L657:
	.loc 4 285 0
	mr 9,0
.LVL727:
.L681:
.LBE5960:
.LBE5931:
.LBE5930:
.LBE5929:
.LBB5971:
.LBB5926:
	.loc 4 26 0
	slwi 27,28,2
.LBE5926:
.LBE5971:
.LBB5972:
.LBB5969:
.LBB5962:
.LBB5961:
	.loc 17 70 0
	lwzx 9,9,27
	cmpw 7,31,9
	bne+ 7,.L631
	.loc 17 71 0
	lwz 3,628(26)
	bl LWP_MutexLock
.LBB5940:
.LBB5941:
	.loc 12 773 0
	lwz 3,604(26)
.LBE5941:
.LBE5940:
.LBB5943:
.LBB5944:
.LBB5945:
	.loc 4 285 0
	lwz 9,608(26)
.LBE5945:
.LBE5944:
.LBE5943:
.LBB5956:
.LBB5942:
	.loc 12 773 0
	add 3,3,27
.LVL728:
.LBE5942:
.LBE5956:
.LBB5957:
.LBB5954:
.LBB5946:
.LBB5947:
	addi 4,3,4
.LBE5947:
.LBE5946:
	.loc 9 138 0
	cmpw 7,4,9
	beq- 7,.L632
.LVL729:
.LBB5948:
.LBB5949:
.LBB5950:
.LBB5951:
.LBB5952:
.LBB5953:
	.loc 10 364 0
	subf 5,4,9
.LVL730:
	.loc 10 365 0
	srawi. 5,5,2
.LVL731:
	beq+ 0,.L632
	.loc 10 366 0
	slwi 5,5,2
.LVL732:
	bl memmove
.LVL733:
	lwz 9,608(26)
.LVL734:
.L632:
.LBE5953:
.LBE5952:
.LBE5951:
.LBE5950:
.LBE5949:
.LBE5948:
	.loc 9 140 0
	addi 9,9,-4
.LBE5954:
.LBE5957:
	.loc 17 73 0
	lwz 3,628(26)
.LBB5958:
.LBB5955:
	.loc 9 140 0
	stw 9,608(26)
.LBE5955:
.LBE5958:
	.loc 17 73 0
	bl LWP_MutexUnlock
	lwz 0,604(26)
	.loc 17 69 0
	addi 28,28,1
.LVL735:
	.loc 17 73 0
	lwz 11,608(26)
.LBB5959:
.LBB5937:
	.loc 11 571 0
	subf 9,0,11
	srawi 9,9,2
.LBE5937:
.LBE5959:
	.loc 17 69 0
	cmplw 7,28,9
	blt+ 7,.L657
.LVL736:
.L629:
.LBE5961:
.LBE5962:
	.loc 17 62 0
	lwz 3,628(26)
	bl LWP_MutexLock
.LVL737:
.LBB5963:
.LBB5964:
	.loc 11 828 0
	lwz 9,608(26)
	lwz 0,612(26)
	cmpw 7,9,0
	beq- 7,.L633
.LVL738:
.LBB5965:
.LBB5966:
	.loc 6 108 0
	cmpwi 7,9,0
	li 11,0
	beq- 7,.L634
	lwz 0,12(1)
	stw 0,0(9)
	lwz 11,608(26)
.L634:
.LBE5966:
.LBE5965:
	.loc 11 831 0
	addi 11,11,4
	stw 11,608(26)
.LVL739:
.L635:
.LBE5964:
.LBE5963:
	.loc 17 64 0
	lwz 3,628(26)
	bl LWP_MutexUnlock
.LBE5969:
.LBE5972:
.LBB5973:
.LBB5974:
	.loc 17 27 0
	lwz 28,_ZN11Application8instanceE@l(25)
	cmpwi 7,28,0
	beq- 7,.L692
.L636:
.LVL740:
.LBE5974:
.LBE5973:
.LBB5976:
.LBB5977:
	.loc 17 51 0
	lwz 3,628(28)
	bl LWP_MutexLock
	.loc 17 52 0
	mr 3,28
	mr 4,31
	bl _ZN8GuiFrame6AppendEP10GuiElement
	.loc 17 53 0
	lwz 3,628(28)
	bl LWP_MutexUnlock
.LBE5977:
.LBE5976:
.LBE5988:
	.loc 4 137 0
	lwz 0,100(1)
	lwz 24,64(1)
.LVL741:
	mtlr 0
	lwz 25,68(1)
	lwz 26,72(1)
.LVL742:
	lwz 27,76(1)
	lwz 28,80(1)
	lwz 29,84(1)
	lwz 30,88(1)
	lwz 31,92(1)
.LVL743:
	addi 1,1,96
	.cfi_remember_state
.LCFI102:
	.cfi_def_cfa_offset 0
	.cfi_restore 31
	.cfi_restore 30
	.cfi_restore 29
	.cfi_restore 28
	.cfi_restore 27
	.cfi_restore 26
	.cfi_restore 25
	.cfi_restore 24
	blr
.LVL744:
.L689:
.LCFI103:
	.cfi_restore_state
.LBB5989:
	.loc 4 124 0
	lwz 4,296(31)
	mr 3,31
	bl _ZN8GuiFrame6AppendEP10GuiElement
	b .L625
.L690:
	.loc 4 126 0
	lwz 4,300(31)
	mr 3,31
	bl _ZN8GuiFrame6AppendEP10GuiElement
	b .L625
.LVL745:
.L691:
.LBB5978:
.LBB5927:
	.loc 17 27 0
	li 3,632
	bl _Znwj
.LEHE109:
	mr 26,3
.LEHB110:
	bl _ZN11ApplicationC1Ev
.LEHE110:
	stw 26,_ZN11Application8instanceE@l(25)
	b .L627
.LVL746:
.L692:
.LBE5927:
.LBE5978:
.LBB5979:
.LBB5975:
	li 3,632
.LEHB111:
	bl _Znwj
.LEHE111:
	mr 28,3
.LEHB112:
	bl _ZN11ApplicationC1Ev
.LEHE112:
	stw 28,_ZN11Application8instanceE@l(25)
	b .L636
.L633:
.LVL747:
.LBE5975:
.LBE5979:
.LBB5980:
.LBB5970:
.LBB5968:
.LBB5967:
	.loc 11 834 0
	mr 4,1
	addi 3,26,604
	stwu 9,52(4)
	addi 5,1,12
.LEHB113:
	bl _ZNSt6vectorIP10GuiElementSaIS1_EE13_M_insert_auxEN9__gnu_cxx17__normal_iteratorIPS1_S3_EERKS1_
.LEHE113:
	b .L635
.LVL748:
.L679:
	mr 28,3
.LBE5967:
.LBE5968:
.LBE5970:
.LBE5980:
.LBB5981:
.LBB5928:
	.loc 17 27 0
	mr 3,26
	bl _ZdlPv
.LVL749:
.L612:
.LBE5928:
.LBE5981:
	.loc 4 27 0
	mr 3,29
	bl _ZN10GuiTriggerD1Ev
.L654:
	mr 3,30
	mr 30,28
	bl _ZN10GuiTriggerD1Ev
.L655:
	addi 3,31,204
	bl _ZN7sigslot7signal4IP11PathBrowserhbRKSsNS_15single_threadedEED1Ev
	addi 3,31,176
	bl _ZN7sigslot9has_slotsINS_15single_threadedEED2Ev
	mr 3,31
	bl _ZN8GuiFrameD2Ev
	mr 3,30
.LEHB114:
	bl _Unwind_Resume
.LEHE114:
.LVL750:
.L660:
	mr 28,3
	b .L654
.LVL751:
.L676:
	mr 27,3
	.loc 4 111 0
	mr 3,28
	bl _ZdlPv
	mr 28,27
.L653:
	addi 3,1,16
.LVL752:
	bl _ZNSsD1Ev
.LVL753:
	b .L612
.L675:
	mr 28,3
	b .L653
.LVL754:
.L687:
.LBB5982:
.LBB5895:
.LBB5894:
.LBB5893:
.LBB5891:
.LBB5884:
.LBB5885:
.LBB5886:
	.loc 8 66 0
	lwz 11,-4(9)
.LVL755:
.LBE5886:
.LBE5885:
.LBE5884:
	.loc 7 240 0
	cmpwi 7,11,0
.LBB5889:
.LBB5888:
.LBB5887:
	.loc 8 67 0
	addi 11,11,-1
	stw 11,-4(9)
.LBE5887:
.LBE5888:
.LBE5889:
	.loc 7 240 0
	bgt+ 7,.L618
	.loc 7 244 0
	addi 4,1,9
	bl _ZNSs4_Rep10_M_destroyERKSaIcE
.LVL756:
	b .L618
.LVL757:
.L674:
	mr 28,3
.LBE5891:
.LBE5893:
.LBE5894:
.LBE5895:
.LBE5982:
	.loc 4 109 0
	addi 3,1,20
	bl _ZNSsD1Ev
	b .L612
.LVL758:
.L678:
.LBB5983:
.LBB5873:
.LBB5867:
.LBB5861:
.LBB5857:
.LBB5858:
.LBB5859:
	.loc 1 343 0
	lwz 9,176(31)
	mr 25,3
.LVL759:
	mr 3,28
	mr 28,25
.LVL760:
	lwz 0,12(9)
	mtctr 0
	bctrl
.LVL761:
.L609:
.LBE5859:
.LBE5858:
.LBE5857:
.LBE5861:
.LBE5867:
.LBB5868:
.LBB5869:
.LBB5870:
	lwz 9,144(27)
	mr 3,26
	lwz 0,12(9)
	mtctr 0
	bctrl
	b .L612
.LVL762:
.L677:
	mr 28,3
	b .L609
.LVL763:
.L673:
.L686:
	mr 27,3
.LBE5870:
.LBE5869:
.LBE5868:
.LBE5873:
.LBE5983:
	.loc 4 95 0
	mr 3,28
	bl _ZdlPv
	mr 28,27
	b .L612
.LVL764:
.L672:
	b .L686
.L671:
	b .L686
.L670:
	b .L686
.L669:
	b .L686
.L668:
	b .L686
.L667:
	b .L686
.L666:
	b .L686
.L665:
	b .L686
.L659:
	mr 30,3
	b .L655
.L663:
	b .L686
.L662:
	b .L686
.LVL765:
.L661:
	mr 28,3
	b .L612
.LVL766:
.L688:
.LBB5984:
.LBB5918:
.LBB5916:
.LBB5914:
.LBB5913:
.LBB5907:
.LBB5908:
.LBB5909:
	.loc 8 66 0
	lwz 11,-4(9)
.LVL767:
.LBE5909:
.LBE5908:
.LBE5907:
	.loc 7 240 0
	cmpwi 7,11,0
.LBB5912:
.LBB5911:
.LBB5910:
	.loc 8 67 0
	addi 11,11,-1
	stw 11,-4(9)
.LBE5910:
.LBE5911:
.LBE5912:
	.loc 7 240 0
	bgt+ 7,.L624
	.loc 7 244 0
	addi 4,1,8
	bl _ZNSs4_Rep10_M_destroyERKSaIcE
.LVL768:
	lwz 28,284(31)
	b .L624
.LVL769:
.L664:
	b .L686
.LVL770:
.L680:
	b .L686
.LBE5913:
.LBE5914:
.LBE5916:
.LBE5918:
.LBE5984:
.LBE5989:
	.cfi_endproc
.LFE1678:
	.section	.gcc_except_table
.LLSDA1678:
	.byte	0xff
	.byte	0xff
	.byte	0x1
	.uleb128 .LLSDACSE1678-.LLSDACSB1678
.LLSDACSB1678:
	.uleb128 .LEHB73-.LFB1678
	.uleb128 .LEHE73-.LEHB73
	.uleb128 0
	.uleb128 0
	.uleb128 .LEHB74-.LFB1678
	.uleb128 .LEHE74-.LEHB74
	.uleb128 .L659-.LFB1678
	.uleb128 0
	.uleb128 .LEHB75-.LFB1678
	.uleb128 .LEHE75-.LEHB75
	.uleb128 .L660-.LFB1678
	.uleb128 0
	.uleb128 .LEHB76-.LFB1678
	.uleb128 .LEHE76-.LEHB76
	.uleb128 .L661-.LFB1678
	.uleb128 0
	.uleb128 .LEHB77-.LFB1678
	.uleb128 .LEHE77-.LEHB77
	.uleb128 .L662-.LFB1678
	.uleb128 0
	.uleb128 .LEHB78-.LFB1678
	.uleb128 .LEHE78-.LEHB78
	.uleb128 .L661-.LFB1678
	.uleb128 0
	.uleb128 .LEHB79-.LFB1678
	.uleb128 .LEHE79-.LEHB79
	.uleb128 .L663-.LFB1678
	.uleb128 0
	.uleb128 .LEHB80-.LFB1678
	.uleb128 .LEHE80-.LEHB80
	.uleb128 .L661-.LFB1678
	.uleb128 0
	.uleb128 .LEHB81-.LFB1678
	.uleb128 .LEHE81-.LEHB81
	.uleb128 .L664-.LFB1678
	.uleb128 0
	.uleb128 .LEHB82-.LFB1678
	.uleb128 .LEHE82-.LEHB82
	.uleb128 .L661-.LFB1678
	.uleb128 0
	.uleb128 .LEHB83-.LFB1678
	.uleb128 .LEHE83-.LEHB83
	.uleb128 .L665-.LFB1678
	.uleb128 0
	.uleb128 .LEHB84-.LFB1678
	.uleb128 .LEHE84-.LEHB84
	.uleb128 .L661-.LFB1678
	.uleb128 0
	.uleb128 .LEHB85-.LFB1678
	.uleb128 .LEHE85-.LEHB85
	.uleb128 .L666-.LFB1678
	.uleb128 0
	.uleb128 .LEHB86-.LFB1678
	.uleb128 .LEHE86-.LEHB86
	.uleb128 .L661-.LFB1678
	.uleb128 0
	.uleb128 .LEHB87-.LFB1678
	.uleb128 .LEHE87-.LEHB87
	.uleb128 .L667-.LFB1678
	.uleb128 0
	.uleb128 .LEHB88-.LFB1678
	.uleb128 .LEHE88-.LEHB88
	.uleb128 .L661-.LFB1678
	.uleb128 0
	.uleb128 .LEHB89-.LFB1678
	.uleb128 .LEHE89-.LEHB89
	.uleb128 .L668-.LFB1678
	.uleb128 0
	.uleb128 .LEHB90-.LFB1678
	.uleb128 .LEHE90-.LEHB90
	.uleb128 .L661-.LFB1678
	.uleb128 0
	.uleb128 .LEHB91-.LFB1678
	.uleb128 .LEHE91-.LEHB91
	.uleb128 .L669-.LFB1678
	.uleb128 0
	.uleb128 .LEHB92-.LFB1678
	.uleb128 .LEHE92-.LEHB92
	.uleb128 .L661-.LFB1678
	.uleb128 0
	.uleb128 .LEHB93-.LFB1678
	.uleb128 .LEHE93-.LEHB93
	.uleb128 .L670-.LFB1678
	.uleb128 0
	.uleb128 .LEHB94-.LFB1678
	.uleb128 .LEHE94-.LEHB94
	.uleb128 .L661-.LFB1678
	.uleb128 0
	.uleb128 .LEHB95-.LFB1678
	.uleb128 .LEHE95-.LEHB95
	.uleb128 .L671-.LFB1678
	.uleb128 0
	.uleb128 .LEHB96-.LFB1678
	.uleb128 .LEHE96-.LEHB96
	.uleb128 .L661-.LFB1678
	.uleb128 0
	.uleb128 .LEHB97-.LFB1678
	.uleb128 .LEHE97-.LEHB97
	.uleb128 .L672-.LFB1678
	.uleb128 0
	.uleb128 .LEHB98-.LFB1678
	.uleb128 .LEHE98-.LEHB98
	.uleb128 .L661-.LFB1678
	.uleb128 0
	.uleb128 .LEHB99-.LFB1678
	.uleb128 .LEHE99-.LEHB99
	.uleb128 .L673-.LFB1678
	.uleb128 0
	.uleb128 .LEHB100-.LFB1678
	.uleb128 .LEHE100-.LEHB100
	.uleb128 .L661-.LFB1678
	.uleb128 0
	.uleb128 .LEHB101-.LFB1678
	.uleb128 .LEHE101-.LEHB101
	.uleb128 .L677-.LFB1678
	.uleb128 0
	.uleb128 .LEHB102-.LFB1678
	.uleb128 .LEHE102-.LEHB102
	.uleb128 .L678-.LFB1678
	.uleb128 0
	.uleb128 .LEHB103-.LFB1678
	.uleb128 .LEHE103-.LEHB103
	.uleb128 .L677-.LFB1678
	.uleb128 0
	.uleb128 .LEHB104-.LFB1678
	.uleb128 .LEHE104-.LEHB104
	.uleb128 .L661-.LFB1678
	.uleb128 0
	.uleb128 .LEHB105-.LFB1678
	.uleb128 .LEHE105-.LEHB105
	.uleb128 .L674-.LFB1678
	.uleb128 0
	.uleb128 .LEHB106-.LFB1678
	.uleb128 .LEHE106-.LEHB106
	.uleb128 .L661-.LFB1678
	.uleb128 0
	.uleb128 .LEHB107-.LFB1678
	.uleb128 .LEHE107-.LEHB107
	.uleb128 .L675-.LFB1678
	.uleb128 0
	.uleb128 .LEHB108-.LFB1678
	.uleb128 .LEHE108-.LEHB108
	.uleb128 .L676-.LFB1678
	.uleb128 0
	.uleb128 .LEHB109-.LFB1678
	.uleb128 .LEHE109-.LEHB109
	.uleb128 .L661-.LFB1678
	.uleb128 0
	.uleb128 .LEHB110-.LFB1678
	.uleb128 .LEHE110-.LEHB110
	.uleb128 .L679-.LFB1678
	.uleb128 0
	.uleb128 .LEHB111-.LFB1678
	.uleb128 .LEHE111-.LEHB111
	.uleb128 .L661-.LFB1678
	.uleb128 0
	.uleb128 .LEHB112-.LFB1678
	.uleb128 .LEHE112-.LEHB112
	.uleb128 .L680-.LFB1678
	.uleb128 0
	.uleb128 .LEHB113-.LFB1678
	.uleb128 .LEHE113-.LEHB113
	.uleb128 .L661-.LFB1678
	.uleb128 0
	.uleb128 .LEHB114-.LFB1678
	.uleb128 .LEHE114-.LEHB114
	.uleb128 0
	.uleb128 0
.LLSDACSE1678:
	.section	".text"
	.size	_ZN11PathBrowserC2ERKSsh, .-_ZN11PathBrowserC2ERKSsh
	.align 2
	.globl _ZThn176_N11PathBrowserD1Ev
	.type	_ZThn176_N11PathBrowserD1Ev, @function
_ZThn176_N11PathBrowserD1Ev:
.LFB2674:
	.cfi_startproc
	addi 3,3,-176
	b .LTHUNK0
	.cfi_endproc
.LFE2674:
	.size	_ZThn176_N11PathBrowserD1Ev, .-_ZThn176_N11PathBrowserD1Ev
	.align 2
	.globl _ZN11PathBrowserD2Ev
	.type	_ZN11PathBrowserD2Ev, @function
_ZN11PathBrowserD2Ev:
.LFB1685:
	.loc 4 139 0
	.cfi_startproc
	.cfi_personality 0,__gxx_personality_v0
	.cfi_lsda 0,.LLSDA1685
.LVL771:
	stwu 1,-48(1)
.LCFI104:
	.cfi_def_cfa_offset 48
	mflr 0
.LBB6184:
	lis 9,_ZTV11PathBrowser+8@ha
.LBE6184:
	stw 30,40(1)
.LBB6407:
.LBB6185:
.LBB6186:
	.loc 17 27 0
	lis 30,_ZN11Application8instanceE@ha
	.cfi_offset 30, -8
	.cfi_register 65, 0
.LBE6186:
.LBE6185:
.LBE6407:
	.loc 4 139 0
	stw 31,44(1)
.LBB6408:
	la 9,_ZTV11PathBrowser+8@l(9)
.LBB6191:
.LBB6187:
	.loc 17 27 0
	lwz 31,_ZN11Application8instanceE@l(30)
	.cfi_offset 31, -4
.LBE6187:
.LBE6191:
.LBE6408:
	.loc 4 139 0
	stw 0,52(1)
.LBB6409:
	addi 0,9,228
	.cfi_offset 65, 4
.LBB6192:
.LBB6188:
	.loc 17 27 0
	cmpwi 7,31,0
.LBE6188:
.LBE6192:
.LBE6409:
	.loc 4 139 0
	stw 28,32(1)
	stw 27,28(1)
	mr 28,3
	.cfi_offset 27, -20
	.cfi_offset 28, -16
	stw 29,36(1)
.LBB6410:
	.loc 4 139 0
	stw 9,0(3)
	stw 0,176(3)
.LBB6193:
.LBB6189:
	.loc 17 27 0
	beq- 7,.L797
	.cfi_offset 29, -12
.LVL772:
.L694:
.LBE6189:
.LBE6193:
	.loc 4 141 0
	mr 3,31
	mr 4,28
.LEHB115:
	bl _ZN8GuiFrame6RemoveEP10GuiElement
	.loc 4 142 0
	mr 3,28
	bl _ZN8GuiFrame9RemoveAllEv
	.loc 4 144 0
	lwz 3,244(28)
	bl _ZN9Resources6RemoveEP12GuiImageData
	.loc 4 145 0
	lwz 3,248(28)
	bl _ZN9Resources6RemoveEP12GuiImageData
	.loc 4 146 0
	lwz 3,252(28)
	bl _ZN9Resources6RemoveEP12GuiImageData
	.loc 4 147 0
	lwz 3,256(28)
	bl _ZN9Resources6RemoveEP12GuiImageData
	.loc 4 148 0
	lwz 3,260(28)
	bl _ZN9Resources6RemoveEP12GuiImageData
	.loc 4 150 0
	lwz 3,236(28)
	bl _ZN9Resources6RemoveEP8GuiSound
	.loc 4 151 0
	lwz 3,240(28)
	bl _ZN9Resources6RemoveEP8GuiSound
	.loc 4 153 0
	lwz 3,264(28)
	cmpwi 7,3,0
	beq- 7,.L698
	.loc 4 153 0 is_stmt 0 discriminator 1
	lwz 9,0(3)
	lwz 0,4(9)
	mtctr 0
	bctrl
.L698:
	.loc 4 154 0 is_stmt 1
	lwz 3,272(28)
	cmpwi 7,3,0
	beq- 7,.L699
	.loc 4 154 0 is_stmt 0 discriminator 1
	lwz 9,0(3)
	lwz 0,4(9)
	mtctr 0
	bctrl
.L699:
	.loc 4 155 0 is_stmt 1
	lwz 3,276(28)
	cmpwi 7,3,0
	beq- 7,.L700
	.loc 4 155 0 is_stmt 0 discriminator 1
	lwz 9,0(3)
	lwz 0,4(9)
	mtctr 0
	bctrl
.L700:
	.loc 4 156 0 is_stmt 1
	lwz 3,280(28)
	cmpwi 7,3,0
	beq- 7,.L701
	.loc 4 156 0 is_stmt 0 discriminator 1
	lwz 9,0(3)
	lwz 0,4(9)
	mtctr 0
	bctrl
.L701:
	.loc 4 157 0 is_stmt 1
	lwz 3,268(28)
	cmpwi 7,3,0
	beq- 7,.L702
	.loc 4 158 0 discriminator 1
	lwz 9,0(3)
	lwz 0,4(9)
	mtctr 0
	bctrl
.L702:
	.loc 4 160 0
	lwz 3,284(28)
	cmpwi 7,3,0
	beq- 7,.L703
	.loc 4 160 0 is_stmt 0 discriminator 1
	lwz 9,0(3)
	lwz 0,4(9)
	mtctr 0
	bctrl
.L703:
	.loc 4 162 0 is_stmt 1
	lwz 3,288(28)
	cmpwi 7,3,0
	beq- 7,.L704
	.loc 4 162 0 is_stmt 0 discriminator 1
	lwz 9,0(3)
	lwz 0,4(9)
	mtctr 0
	bctrl
.L704:
	.loc 4 163 0 is_stmt 1
	lwz 3,292(28)
	cmpwi 7,3,0
	beq- 7,.L705
	.loc 4 163 0 is_stmt 0 discriminator 1
	lwz 9,0(3)
	lwz 0,4(9)
	mtctr 0
	bctrl
.L705:
	.loc 4 164 0 is_stmt 1
	lwz 3,296(28)
	cmpwi 7,3,0
	beq- 7,.L706
	.loc 4 164 0 is_stmt 0 discriminator 1
	lwz 9,0(3)
	lwz 0,4(9)
	mtctr 0
	bctrl
.L706:
	.loc 4 165 0 is_stmt 1
	lwz 3,300(28)
	cmpwi 7,3,0
	beq- 7,.L707
	.loc 4 165 0 is_stmt 0 discriminator 1
	lwz 9,0(3)
	lwz 0,4(9)
	mtctr 0
	bctrl
.L707:
	.loc 4 166 0 is_stmt 1
	lwz 3,304(28)
	cmpwi 7,3,0
	beq- 7,.L708
	.loc 4 166 0 is_stmt 0 discriminator 1
	lwz 9,0(3)
	lwz 0,4(9)
	mtctr 0
	bctrl
.L708:
	.loc 4 167 0 is_stmt 1
	lwz 3,308(28)
	cmpwi 7,3,0
	beq- 7,.L709
	.loc 4 167 0 is_stmt 0 discriminator 1
	lwz 9,0(3)
	lwz 0,4(9)
	mtctr 0
	bctrl
.L709:
	.loc 4 169 0 is_stmt 1
	lwz 3,224(28)
	cmpwi 7,3,0
	beq- 7,.L710
	.loc 4 169 0 is_stmt 0 discriminator 1
	lwz 9,0(3)
	lwz 0,4(9)
	mtctr 0
	bctrl
.L710:
	.loc 4 170 0 is_stmt 1
	lwz 3,232(28)
	cmpwi 7,3,0
	beq- 7,.L711
	.loc 4 170 0 is_stmt 0 discriminator 1
	lwz 9,0(3)
	lwz 0,4(9)
	mtctr 0
	bctrl
.LEHE115:
.L711:
	.loc 4 139 0 is_stmt 1
	addi 3,28,680
.LEHB116:
	bl _ZN10GuiTriggerD1Ev
.LEHE116:
	.loc 4 139 0 is_stmt 0 discriminator 1
	addi 3,28,312
.LEHB117:
	bl _ZN10GuiTriggerD1Ev
.LEHE117:
.LVL773:
.LBB6194:
.LBB6195:
.LBB6196:
.LBB6197:
.LBB6198:
.LBB6199:
	.loc 1 1066 0 is_stmt 1 discriminator 2
	lis 9,_ZTVN7sigslot13_signal_base4IP11PathBrowserhbRKSsNS_15single_threadedEEE+8@ha
.LBE6199:
.LBE6198:
.LBE6197:
	.loc 1 2374 0 discriminator 2
	addi 27,28,204
.LVL774:
.LBB6296:
.LBB6291:
.LBB6286:
	.loc 1 1066 0 discriminator 2
	la 0,_ZTVN7sigslot13_signal_base4IP11PathBrowserhbRKSsNS_15single_threadedEEE+8@l(9)
.LBB6200:
.LBB6201:
.LBB6202:
.LBB6203:
	.loc 1 338 0 discriminator 2
	lis 9,_ZN7sigslot15single_threaded4lockEv@ha
	la 9,_ZN7sigslot15single_threaded4lockEv@l(9)
.LBE6203:
.LBE6202:
.LBE6201:
.LBE6200:
	.loc 1 1066 0 discriminator 2
	stw 0,204(28)
.LVL775:
.LBB6240:
.LBB6236:
.LBB6205:
.LBB6204:
	.loc 1 338 0 discriminator 2
	mr 3,27
	mtctr 9
	addi 29,28,208
.LEHB118:
	bctrl
.LEHE118:
.LBE6204:
.LBE6205:
.LBE6236:
	.loc 4 285 0
	mr 29,28
	lwzu 31,208(29)
.LVL776:
.LBB6237:
	.loc 1 1074 0
	cmpw 7,31,29
	beq- 7,.L712
.LVL777:
.L787:
	.loc 1 1076 0
	lwz 3,8(31)
	lwz 9,0(3)
	lwz 0,8(9)
	mtctr 0
.LEHB119:
	bctrl
.LBB6206:
.LBB6207:
.LBB6208:
.LBB6209:
	.loc 1 338 0
	lwz 9,0(3)
.LBE6209:
.LBE6208:
.LBE6207:
.LBE6206:
	.loc 1 1076 0
	mr 30,3
.LVL778:
	stw 27,8(1)
.LVL779:
.LBB6218:
.LBB6217:
.LBB6211:
.LBB6210:
	.loc 1 338 0
	lwz 0,8(9)
	mtctr 0
	bctrl
.LVL780:
.LBE6210:
.LBE6211:
.LBB6212:
.LBB6213:
	.loc 14 528 0
	addi 3,30,4
	addi 4,1,8
	bl _ZNSt8_Rb_treeIPN7sigslot12_signal_baseINS0_15single_threadedEEES4_St9_IdentityIS4_ESt4lessIS4_ESaIS4_EE5eraseERKS4_
.LVL781:
.LBE6213:
.LBE6212:
.LBB6214:
.LBB6215:
.LBB6216:
	.loc 1 343 0
	lwz 9,0(30)
	mr 3,30
	lwz 0,12(9)
	mtctr 0
	bctrl
.LVL782:
.LBE6216:
.LBE6215:
.LBE6214:
.LBE6217:
.LBE6218:
	.loc 1 1077 0
	lwz 3,8(31)
	cmpwi 7,3,0
	beq- 7,.L714
	lwz 9,0(3)
	lwz 0,4(9)
	mtctr 0
	bctrl
.LEHE119:
.L714:
.LVL783:
.LBB6219:
.LBB6220:
	.loc 5 234 0
	lwz 31,0(31)
.LVL784:
.LBE6220:
.LBE6219:
	.loc 1 1074 0
	cmpw 7,29,31
	bne+ 7,.L787
.LBE6237:
	.loc 4 285 0
	lwz 31,208(28)
.LVL785:
.LBB6238:
.LBB6221:
.LBB6222:
	.loc 5 1162 0
	cmpw 7,29,31
	bne+ 7,.L791
	b .L712
.LVL786:
.L774:
	.loc 5 1163 0
	mr 31,30
.LVL787:
.L791:
.LBB6223:
.LBB6224:
	.loc 15 112 0
	lwz 30,0(31)
.LVL788:
.LBB6225:
.LBB6226:
	.loc 5 1532 0
	mr 3,31
	bl _ZNSt8__detail15_List_node_base9_M_unhookEv
.LVL789:
.LBB6227:
.LBB6228:
.LBB6229:
	.loc 6 98 0
	mr 3,31
	bl _ZdlPv
.LVL790:
.LBE6229:
.LBE6228:
.LBE6227:
.LBE6226:
.LBE6225:
.LBE6224:
.LBE6223:
	.loc 5 1162 0
	cmpw 7,29,30
	bne+ 7,.L774
.LVL791:
.L712:
.LBE6222:
.LBE6221:
.LBB6230:
.LBB6231:
.LBB6232:
	.loc 1 343 0
	lwz 9,204(28)
	mr 3,27
	lwz 0,12(9)
	mtctr 0
.LEHB120:
	bctrl
.LEHE120:
.LBE6232:
.LBE6231:
.LBE6230:
.LBE6238:
.LBE6240:
.LBB6241:
.LBB6242:
.LBB6243:
.LBB6244:
.LBB6245:
.LBB6246:
	.loc 15 70 0
	lwz 3,208(28)
.LVL792:
	.loc 15 71 0
	cmpw 7,3,29
	bne+ 7,.L793
	b .L730
.LVL793:
.L775:
	.loc 15 74 0
	mr 3,31
.LVL794:
.L793:
.LBB6247:
	lwz 31,0(3)
.LVL795:
.LBB6248:
.LBB6249:
.LBB6250:
	.loc 6 98 0
	bl _ZdlPv
.LVL796:
.LBE6250:
.LBE6249:
.LBE6248:
.LBE6247:
	.loc 15 71 0
	cmpw 7,31,29
	bne+ 7,.L775
.LVL797:
.L730:
.LBE6246:
.LBE6245:
.LBE6244:
.LBE6243:
.LBE6242:
.LBE6241:
.LBE6286:
.LBE6291:
.LBE6296:
.LBE6196:
.LBE6195:
.LBE6194:
.LBB6309:
.LBB6310:
.LBB6311:
	.loc 1 516 0
	lis 9,_ZTVN7sigslot9has_slotsINS_15single_threadedEEE+8@ha
.LBE6311:
.LBE6310:
.LBE6309:
.LBB6398:
.LBB6305:
.LBB6301:
.LBB6297:
.LBB6292:
.LBB6287:
.LBB6251:
.LBB6252:
.LBB6253:
.LBB6254:
.LBB6255:
.LBB6256:
	.loc 1 105 0
	lis 27,_ZTVN7sigslot15single_threadedE+8@ha
.LBE6256:
.LBE6255:
.LBE6254:
.LBE6253:
.LBE6252:
.LBE6251:
.LBE6287:
.LBE6292:
.LBE6297:
.LBE6301:
.LBE6305:
.LBE6398:
.LBB6399:
.LBB6394:
.LBB6390:
	.loc 1 516 0
	la 0,_ZTVN7sigslot9has_slotsINS_15single_threadedEEE+8@l(9)
.LBB6312:
.LBB6313:
.LBB6314:
.LBB6315:
	.loc 1 338 0
	lis 9,_ZN7sigslot15single_threaded4lockEv@ha
.LBE6315:
.LBE6314:
.LBE6313:
.LBE6312:
.LBE6390:
.LBE6394:
.LBE6399:
.LBB6400:
.LBB6306:
.LBB6302:
.LBB6298:
.LBB6293:
.LBB6288:
.LBB6267:
.LBB6265:
.LBB6263:
.LBB6261:
.LBB6259:
.LBB6257:
	.loc 1 105 0
	la 27,_ZTVN7sigslot15single_threadedE+8@l(27)
.LBE6257:
.LBE6259:
.LBE6261:
.LBE6263:
.LBE6265:
.LBE6267:
.LBE6288:
.LBE6293:
.LBE6298:
.LBE6302:
.LBE6306:
.LBE6400:
	.loc 4 139 0
	addi 29,28,176
.LVL798:
.LBB6401:
.LBB6395:
.LBB6391:
.LBB6370:
.LBB6367:
.LBB6318:
.LBB6316:
	.loc 1 338 0
	la 9,_ZN7sigslot15single_threaded4lockEv@l(9)
.LBE6316:
.LBE6318:
.LBE6367:
.LBE6370:
.LBE6391:
.LBE6395:
.LBE6401:
.LBB6402:
.LBB6307:
.LBB6303:
.LBB6299:
.LBB6294:
.LBB6289:
.LBB6268:
.LBB6266:
.LBB6264:
.LBB6262:
.LBB6260:
.LBB6258:
	.loc 1 105 0
	stw 27,204(28)
.LBE6258:
.LBE6260:
.LBE6262:
.LBE6264:
.LBE6266:
.LBE6268:
.LBE6289:
.LBE6294:
.LBE6299:
.LBE6303:
.LBE6307:
.LBE6402:
.LBB6403:
.LBB6396:
.LBB6392:
	.loc 1 516 0
	stw 0,176(28)
.LVL799:
.LBB6371:
.LBB6368:
.LBB6319:
.LBB6317:
	.loc 1 338 0
	mr 3,29
	mtctr 9
	addi 31,28,180
.LEHB121:
	bctrl
.LEHE121:
.LVL800:
.LBE6317:
.LBE6319:
.LBB6320:
	.loc 4 285 0
	lwz 31,192(28)
.LVL801:
.LBE6320:
.LBB6321:
.LBB6322:
.LBB6323:
	.loc 13 671 0
	addi 30,28,184
.LVL802:
.LBE6323:
.LBE6322:
.LBE6321:
	.loc 1 524 0
	cmpw 7,31,30
	beq- 7,.L746
.LVL803:
.L786:
	.loc 1 526 0
	lwz 3,16(31)
	mr 4,29
	lwz 9,0(3)
	lwz 0,16(9)
	mtctr 0
.LEHB122:
	bctrl
.LEHE122:
.LVL804:
.LBB6324:
.LBB6325:
	.loc 13 269 0
	mr 3,31
	bl _ZSt18_Rb_tree_incrementPKSt18_Rb_tree_node_base
.LBE6325:
.LBE6324:
	.loc 1 524 0
	cmpw 7,30,3
.LBB6327:
.LBB6326:
	.loc 13 269 0
	mr 31,3
.LVL805:
.LBE6326:
.LBE6327:
	.loc 1 524 0
	bne+ 7,.L786
.LVL806:
.L746:
.LBB6328:
.LBB6329:
	.loc 14 562 0
	addi 31,28,180
.LVL807:
.LBB6330:
.LBB6331:
.LBB6332:
.LBB6333:
.LBB6334:
.LBB6335:
.LBB6336:
	.loc 13 809 0
	lwz 4,188(28)
	mr 3,31
	bl _ZNSt8_Rb_treeIPN7sigslot12_signal_baseINS0_15single_threadedEEES4_St9_IdentityIS4_ESt4lessIS4_ESaIS4_EE8_M_eraseEPSt13_Rb_tree_nodeIS4_E
.LVL808:
	.loc 13 811 0
	li 0,0
	.loc 13 810 0
	stw 30,192(28)
.LVL809:
.LBE6336:
.LBE6335:
.LBE6334:
.LBE6333:
.LBE6332:
.LBE6331:
.LBE6330:
.LBE6329:
.LBE6328:
.LBB6353:
.LBB6354:
.LBB6355:
	.loc 1 343 0
	mr 3,29
.LBE6355:
.LBE6354:
.LBE6353:
.LBB6360:
.LBB6351:
.LBB6349:
.LBB6347:
.LBB6345:
.LBB6343:
.LBB6341:
.LBB6339:
.LBB6337:
	.loc 13 811 0
	stw 0,188(28)
.LVL810:
	.loc 13 812 0
	stw 30,196(28)
.LBE6337:
.LBE6339:
.LBE6341:
.LBE6343:
.LBE6345:
.LBE6347:
.LBE6349:
.LBE6351:
.LBE6360:
.LBB6361:
.LBB6358:
.LBB6356:
	.loc 1 343 0
	lwz 9,176(28)
.LBE6356:
.LBE6358:
.LBE6361:
.LBB6362:
.LBB6352:
.LBB6350:
.LBB6348:
.LBB6346:
.LBB6344:
.LBB6342:
.LBB6340:
.LBB6338:
	.loc 13 813 0
	stw 0,200(28)
.LVL811:
.LBE6338:
.LBE6340:
.LBE6342:
.LBE6344:
.LBE6346:
.LBE6348:
.LBE6350:
.LBE6352:
.LBE6362:
.LBB6363:
.LBB6359:
.LBB6357:
	.loc 1 343 0
	lwz 0,12(9)
	mtctr 0
.LEHB123:
	bctrl
.LEHE123:
.LVL812:
.LBE6357:
.LBE6359:
.LBE6363:
.LBE6368:
.LBE6371:
.LBB6372:
.LBB6373:
.LBB6374:
.LBB6375:
.LBB6376:
	.loc 13 639 0
	lwz 4,188(28)
	mr 3,31
	bl _ZNSt8_Rb_treeIPN7sigslot12_signal_baseINS0_15single_threadedEEES4_St9_IdentityIS4_ESt4lessIS4_ESaIS4_EE8_M_eraseEPSt13_Rb_tree_nodeIS4_E
.LBE6376:
.LBE6375:
.LBE6374:
.LBE6373:
.LBE6372:
.LBB6377:
.LBB6378:
.LBB6379:
	.loc 1 105 0
	stw 27,176(28)
.LBE6379:
.LBE6378:
.LBE6377:
.LBE6392:
.LBE6396:
.LBE6403:
	.loc 4 139 0
	mr 3,28
.LEHB124:
	bl _ZN8GuiFrameD2Ev
.LEHE124:
.LBE6410:
	.loc 4 171 0
	lwz 0,52(1)
	lwz 27,28(1)
	mtlr 0
	lwz 28,32(1)
.LVL813:
	lwz 29,36(1)
.LVL814:
	lwz 30,40(1)
.LVL815:
	lwz 31,44(1)
.LVL816:
	addi 1,1,48
	.cfi_remember_state
.LCFI105:
	.cfi_def_cfa_offset 0
	.cfi_restore 31
	.cfi_restore 30
	.cfi_restore 29
	.cfi_restore 28
	.cfi_restore 27
	blr
.LVL817:
.L797:
.LCFI106:
	.cfi_restore_state
.LBB6411:
.LBB6404:
.LBB6190:
	.loc 17 27 0
	li 3,632
.LVL818:
.LEHB125:
	bl _Znwj
.LEHE125:
	mr 31,3
.LEHB126:
	bl _ZN11ApplicationC1Ev
.LEHE126:
	stw 31,_ZN11Application8instanceE@l(30)
	b .L694
.L781:
	mr 30,3
	mr 3,31
	bl _ZdlPv
.L697:
.LBE6190:
.LBE6404:
	.loc 4 139 0
	addi 3,28,680
	bl _ZN10GuiTriggerD1Ev
.L772:
	addi 3,28,312
	bl _ZN10GuiTriggerD1Ev
.L773:
	addi 3,28,204
	bl _ZN7sigslot7signal4IP11PathBrowserhbRKSsNS_15single_threadedEED1Ev
.LVL819:
.L742:
	addi 3,28,176
	bl _ZN7sigslot9has_slotsINS_15single_threadedEED2Ev
.L769:
	mr 3,28
	bl _ZN8GuiFrameD2Ev
	mr 3,30
.LEHB127:
	bl _Unwind_Resume
.LEHE127:
.LVL820:
.L785:
.LBB6405:
.LBB6397:
.LBB6393:
.LBB6380:
.LBB6369:
.LBB6364:
.LBB6365:
.LBB6366:
	.loc 1 343 0
	lwz 9,176(28)
	mr 30,3
.LVL821:
	mr 3,29
	addi 31,28,180
.LVL822:
	lwz 0,12(9)
	mtctr 0
	bctrl
.LVL823:
.L756:
.LBE6366:
.LBE6365:
.LBE6364:
.LBE6369:
.LBE6380:
.LBB6381:
.LBB6382:
.LBB6383:
.LBB6384:
.LBB6385:
.LBB6386:
	.loc 13 639 0
	lwz 4,188(28)
	mr 3,31
	bl _ZNSt8_Rb_treeIPN7sigslot12_signal_baseINS0_15single_threadedEEES4_St9_IdentityIS4_ESt4lessIS4_ESaIS4_EE8_M_eraseEPSt13_Rb_tree_nodeIS4_E
.LBE6386:
.LBE6385:
.LBE6384:
.LBE6383:
.LBE6382:
.LBE6381:
.LBB6387:
.LBB6388:
.LBB6389:
	.loc 1 105 0
	stw 27,176(28)
	b .L769
.LVL824:
.L784:
	mr 30,3
	b .L756
.LVL825:
.L783:
.LBE6389:
.LBE6388:
.LBE6387:
.LBE6393:
.LBE6397:
.LBE6405:
.LBB6406:
.LBB6308:
.LBB6304:
.LBB6300:
.LBB6295:
.LBB6290:
.LBB6269:
.LBB6239:
.LBB6233:
.LBB6234:
.LBB6235:
	.loc 1 343 0
	lwz 9,204(28)
	mr 30,3
.LVL826:
	mr 3,27
	lwz 0,12(9)
	mtctr 0
	bctrl
.LVL827:
.L722:
.LBE6235:
.LBE6234:
.LBE6233:
.LBE6239:
.LBE6269:
.LBB6270:
.LBB6271:
.LBB6272:
.LBB6273:
.LBB6274:
.LBB6275:
	.loc 15 70 0
	lwz 3,208(28)
.LVL828:
	.loc 15 71 0
	cmpw 7,3,29
	beq- 7,.L739
.LVL829:
.L795:
.LBB6276:
	.loc 15 74 0
	lwz 31,0(3)
.LVL830:
.LBB6277:
.LBB6278:
.LBB6279:
	.loc 6 98 0
	bl _ZdlPv
.LVL831:
.LBE6279:
.LBE6278:
.LBE6277:
.LBE6276:
	.loc 15 71 0
	cmpw 7,31,29
	beq- 7,.L739
	.loc 15 74 0
	mr 3,31
	b .L795
.LVL832:
.L782:
	mr 30,3
	b .L722
.LVL833:
.L779:
	mr 30,3
	b .L772
.L778:
	mr 30,3
	b .L697
.L780:
	mr 30,3
	b .L773
.LVL834:
.L739:
.LBE6275:
.LBE6274:
.LBE6273:
.LBE6272:
.LBE6271:
.LBE6270:
.LBB6280:
.LBB6281:
.LBB6282:
.LBB6283:
.LBB6284:
.LBB6285:
	.loc 1 105 0
	lis 9,_ZTVN7sigslot15single_threadedE+8@ha
	la 0,_ZTVN7sigslot15single_threadedE+8@l(9)
	stw 0,204(28)
	b .L742
.LBE6285:
.LBE6284:
.LBE6283:
.LBE6282:
.LBE6281:
.LBE6280:
.LBE6290:
.LBE6295:
.LBE6300:
.LBE6304:
.LBE6308:
.LBE6406:
.LBE6411:
	.cfi_endproc
.LFE1685:
	.section	.gcc_except_table
.LLSDA1685:
	.byte	0xff
	.byte	0xff
	.byte	0x1
	.uleb128 .LLSDACSE1685-.LLSDACSB1685
.LLSDACSB1685:
	.uleb128 .LEHB115-.LFB1685
	.uleb128 .LEHE115-.LEHB115
	.uleb128 .L778-.LFB1685
	.uleb128 0
	.uleb128 .LEHB116-.LFB1685
	.uleb128 .LEHE116-.LEHB116
	.uleb128 .L779-.LFB1685
	.uleb128 0
	.uleb128 .LEHB117-.LFB1685
	.uleb128 .LEHE117-.LEHB117
	.uleb128 .L780-.LFB1685
	.uleb128 0
	.uleb128 .LEHB118-.LFB1685
	.uleb128 .LEHE118-.LEHB118
	.uleb128 .L782-.LFB1685
	.uleb128 0
	.uleb128 .LEHB119-.LFB1685
	.uleb128 .LEHE119-.LEHB119
	.uleb128 .L783-.LFB1685
	.uleb128 0
	.uleb128 .LEHB120-.LFB1685
	.uleb128 .LEHE120-.LEHB120
	.uleb128 .L782-.LFB1685
	.uleb128 0
	.uleb128 .LEHB121-.LFB1685
	.uleb128 .LEHE121-.LEHB121
	.uleb128 .L784-.LFB1685
	.uleb128 0
	.uleb128 .LEHB122-.LFB1685
	.uleb128 .LEHE122-.LEHB122
	.uleb128 .L785-.LFB1685
	.uleb128 0
	.uleb128 .LEHB123-.LFB1685
	.uleb128 .LEHE123-.LEHB123
	.uleb128 .L784-.LFB1685
	.uleb128 0
	.uleb128 .LEHB124-.LFB1685
	.uleb128 .LEHE124-.LEHB124
	.uleb128 0
	.uleb128 0
	.uleb128 .LEHB125-.LFB1685
	.uleb128 .LEHE125-.LEHB125
	.uleb128 .L778-.LFB1685
	.uleb128 0
	.uleb128 .LEHB126-.LFB1685
	.uleb128 .LEHE126-.LEHB126
	.uleb128 .L781-.LFB1685
	.uleb128 0
	.uleb128 .LEHB127-.LFB1685
	.uleb128 .LEHE127-.LEHB127
	.uleb128 0
	.uleb128 0
.LLSDACSE1685:
	.section	".text"
	.size	_ZN11PathBrowserD2Ev, .-_ZN11PathBrowserD2Ev
	.align 2
	.globl _ZThn176_N11PathBrowserD0Ev
	.type	_ZThn176_N11PathBrowserD0Ev, @function
_ZThn176_N11PathBrowserD0Ev:
.LFB2675:
	.cfi_startproc
	addi 3,3,-176
	b .LTHUNK1
	.cfi_endproc
.LFE2675:
	.size	_ZThn176_N11PathBrowserD0Ev, .-_ZThn176_N11PathBrowserD0Ev
	.align 2
	.globl _ZN11PathBrowserD0Ev
	.type	_ZN11PathBrowserD0Ev, @function
_ZN11PathBrowserD0Ev:
.LFB1687:
	.loc 4 139 0
	.cfi_startproc
.LVL835:
	stwu 1,-16(1)
.LCFI107:
	.cfi_def_cfa_offset 16
	mflr 0
	stw 31,12(1)
	mr 31,3
	.cfi_offset 31, -4
	.cfi_register 65, 0
	stw 0,20(1)
	.loc 4 171 0
	.cfi_offset 65, 4
	bl _ZN11PathBrowserD1Ev
.LVL836:
	mr 3,31
	bl _ZdlPv
	lwz 0,20(1)
	lwz 31,12(1)
.LVL837:
	mtlr 0
	addi 1,1,16
.LCFI108:
	.cfi_def_cfa_offset 0
	.cfi_restore 31
	blr
	.cfi_endproc
.LFE1687:
	.size	_ZN11PathBrowserD0Ev, .-_ZN11PathBrowserD0Ev
	.section	.text._ZN7sigslot13_signal_base4IP11PathBrowserhbRKSsNS_15single_threadedEED2Ev,"axG",@progbits,_ZN7sigslot13_signal_base4IP11PathBrowserhbRKSsNS_15single_threadedEED5Ev,comdat
	.align 2
	.weak	_ZN7sigslot13_signal_base4IP11PathBrowserhbRKSsNS_15single_threadedEED2Ev
	.type	_ZN7sigslot13_signal_base4IP11PathBrowserhbRKSsNS_15single_threadedEED2Ev, @function
_ZN7sigslot13_signal_base4IP11PathBrowserhbRKSsNS_15single_threadedEED2Ev:
.LFB1907:
	.loc 1 1063 0
	.cfi_startproc
	.cfi_personality 0,__gxx_personality_v0
	.cfi_lsda 0,.LLSDA1907
.LVL838:
	mflr 0
	stwu 1,-40(1)
.LCFI109:
	.cfi_def_cfa_offset 40
	.cfi_register 65, 0
.LBB6558:
	.loc 1 1066 0
	lis 9,_ZTVN7sigslot13_signal_base4IP11PathBrowserhbRKSsNS_15single_threadedEEE+8@ha
.LBE6558:
	.loc 1 1063 0
	stw 28,24(1)
	mr 28,3
	.cfi_offset 28, -16
	stw 0,44(1)
.LBB6641:
	.loc 1 1066 0
	la 0,_ZTVN7sigslot13_signal_base4IP11PathBrowserhbRKSsNS_15single_threadedEEE+8@l(9)
	.cfi_offset 65, 4
.LBE6641:
	.loc 1 1063 0
	stw 29,28(1)
	addi 29,3,4
	.cfi_offset 29, -12
	stw 30,32(1)
	stw 31,36(1)
.LBB6642:
	.loc 1 1066 0
	stw 0,0(3)
.LVL839:
.LEHB128:
.LBB6559:
.LBB6560:
.LBB6561:
.LBB6562:
	.loc 1 338 0
	.cfi_offset 31, -4
	.cfi_offset 30, -8
	bl _ZN7sigslot15single_threaded4lockEv
.LEHE128:
.LVL840:
.LBE6562:
.LBE6561:
.LBE6560:
	.loc 4 285 0
	mr 29,28
	lwzu 31,4(29)
.LVL841:
.LBB6593:
	.loc 1 1074 0
	cmpw 7,31,29
	beq- 7,.L801
.LVL842:
.L838:
	.loc 1 1076 0
	lwz 3,8(31)
	lwz 9,0(3)
	lwz 0,8(9)
	mtctr 0
.LEHB129:
	bctrl
.LBB6563:
.LBB6564:
.LBB6565:
.LBB6566:
	.loc 1 338 0
	lwz 9,0(3)
.LBE6566:
.LBE6565:
.LBE6564:
.LBE6563:
	.loc 1 1076 0
	mr 30,3
.LVL843:
	stw 28,8(1)
.LVL844:
.LBB6575:
.LBB6574:
.LBB6568:
.LBB6567:
	.loc 1 338 0
	lwz 0,8(9)
	mtctr 0
	bctrl
.LVL845:
.LBE6567:
.LBE6568:
.LBB6569:
.LBB6570:
	.loc 14 528 0
	addi 3,30,4
	addi 4,1,8
	bl _ZNSt8_Rb_treeIPN7sigslot12_signal_baseINS0_15single_threadedEEES4_St9_IdentityIS4_ESt4lessIS4_ESaIS4_EE5eraseERKS4_
.LVL846:
.LBE6570:
.LBE6569:
.LBB6571:
.LBB6572:
.LBB6573:
	.loc 1 343 0
	lwz 9,0(30)
	mr 3,30
	lwz 0,12(9)
	mtctr 0
	bctrl
.LVL847:
.LBE6573:
.LBE6572:
.LBE6571:
.LBE6574:
.LBE6575:
	.loc 1 1077 0
	lwz 3,8(31)
	cmpwi 7,3,0
	beq- 7,.L803
	lwz 9,0(3)
	lwz 0,4(9)
	mtctr 0
	bctrl
.LEHE129:
.L803:
.LVL848:
.LBB6576:
.LBB6577:
	.loc 5 234 0
	lwz 31,0(31)
.LVL849:
.LBE6577:
.LBE6576:
	.loc 1 1074 0
	cmpw 7,29,31
	bne+ 7,.L838
.LBE6593:
	.loc 4 285 0
	lwz 31,4(28)
.LVL850:
.LBB6594:
.LBB6578:
.LBB6579:
	.loc 5 1162 0
	cmpw 7,29,31
	bne+ 7,.L840
	b .L801
.LVL851:
.L833:
	.loc 5 1163 0
	mr 31,30
.LVL852:
.L840:
.LBB6580:
.LBB6581:
	.loc 15 112 0
	lwz 30,0(31)
.LVL853:
.LBB6582:
.LBB6583:
	.loc 5 1532 0
	mr 3,31
	bl _ZNSt8__detail15_List_node_base9_M_unhookEv
.LVL854:
.LBB6584:
.LBB6585:
.LBB6586:
	.loc 6 98 0
	mr 3,31
	bl _ZdlPv
.LVL855:
.LBE6586:
.LBE6585:
.LBE6584:
.LBE6583:
.LBE6582:
.LBE6581:
.LBE6580:
	.loc 5 1162 0
	cmpw 7,29,30
	bne+ 7,.L833
.LVL856:
.L801:
.LBE6579:
.LBE6578:
.LBB6587:
.LBB6588:
.LBB6589:
	.loc 1 343 0
	lwz 9,0(28)
	mr 3,28
	lwz 0,12(9)
	mtctr 0
.LEHB130:
	bctrl
.LEHE130:
.LVL857:
.LBE6589:
.LBE6588:
.LBE6587:
.LBE6594:
.LBE6559:
.LBB6596:
.LBB6597:
.LBB6598:
.LBB6599:
.LBB6600:
.LBB6601:
	.loc 15 70 0
	lwz 3,4(28)
.LVL858:
	.loc 15 71 0
	cmpw 7,3,29
	bne+ 7,.L842
	b .L819
.LVL859:
.L834:
	.loc 15 74 0
	mr 3,31
.LVL860:
.L842:
.LBB6602:
	lwz 31,0(3)
.LVL861:
.LBB6603:
.LBB6604:
.LBB6605:
	.loc 6 98 0
	bl _ZdlPv
.LVL862:
.LBE6605:
.LBE6604:
.LBE6603:
.LBE6602:
	.loc 15 71 0
	cmpw 7,31,29
	bne+ 7,.L834
.LVL863:
.L819:
.LBE6601:
.LBE6600:
.LBE6599:
.LBE6598:
.LBE6597:
.LBE6596:
.LBB6606:
.LBB6607:
.LBB6608:
.LBB6609:
.LBB6610:
.LBB6611:
	.loc 1 105 0
	lis 9,_ZTVN7sigslot15single_threadedE+8@ha
.LBE6611:
.LBE6610:
.LBE6609:
.LBE6608:
.LBE6607:
.LBE6606:
.LBE6642:
	.loc 1 1066 0
	lwz 29,28(1)
.LVL864:
.LBB6643:
.LBB6622:
.LBB6620:
.LBB6618:
.LBB6616:
.LBB6614:
.LBB6612:
	.loc 1 105 0
	la 0,_ZTVN7sigslot15single_threadedE+8@l(9)
.LBE6612:
.LBE6614:
.LBE6616:
.LBE6618:
.LBE6620:
.LBE6622:
.LBE6643:
	.loc 1 1066 0
	lwz 30,32(1)
.LBB6644:
.LBB6623:
.LBB6621:
.LBB6619:
.LBB6617:
.LBB6615:
.LBB6613:
	.loc 1 105 0
	stw 0,0(28)
.LBE6613:
.LBE6615:
.LBE6617:
.LBE6619:
.LBE6621:
.LBE6623:
.LBE6644:
	.loc 1 1066 0
	lwz 0,44(1)
	lwz 28,24(1)
.LVL865:
	mtlr 0
	lwz 31,36(1)
	addi 1,1,40
	.cfi_remember_state
.LCFI110:
	.cfi_def_cfa_offset 0
	.cfi_restore 31
	.cfi_restore 30
	.cfi_restore 29
	.cfi_restore 28
	blr
.LVL866:
.L836:
.LCFI111:
	.cfi_restore_state
	mr 31,3
.L811:
.LVL867:
.LBB6645:
.LBB6624:
.LBB6625:
.LBB6626:
.LBB6627:
.LBB6628:
.LBB6629:
	.loc 15 70 0
	lwz 3,4(28)
.LVL868:
	.loc 15 71 0
	cmpw 7,3,29
	beq- 7,.L830
.LVL869:
.L843:
.LBB6630:
	.loc 15 74 0
	lwz 30,0(3)
.LVL870:
.LBB6631:
.LBB6632:
.LBB6633:
	.loc 6 98 0
	bl _ZdlPv
.LVL871:
.LBE6633:
.LBE6632:
.LBE6631:
.LBE6630:
	.loc 15 71 0
	cmpw 7,30,29
	beq- 7,.L830
	.loc 15 74 0
	mr 3,30
	b .L843
.LVL872:
.L837:
.LBE6629:
.LBE6628:
.LBE6627:
.LBE6626:
.LBE6625:
.LBE6624:
.LBB6634:
.LBB6595:
.LBB6590:
.LBB6591:
.LBB6592:
	.loc 1 343 0
	lwz 9,0(28)
	mr 31,3
.LVL873:
	mr 3,28
	lwz 0,12(9)
	mtctr 0
	bctrl
	b .L811
.LVL874:
.L830:
.LBE6592:
.LBE6591:
.LBE6590:
.LBE6595:
.LBE6634:
.LBB6635:
.LBB6636:
.LBB6637:
.LBB6638:
.LBB6639:
.LBB6640:
	.loc 1 105 0
	lis 9,_ZTVN7sigslot15single_threadedE+8@ha
	mr 3,31
	la 0,_ZTVN7sigslot15single_threadedE+8@l(9)
	stw 0,0(28)
.LEHB131:
	bl _Unwind_Resume
.LEHE131:
.LBE6640:
.LBE6639:
.LBE6638:
.LBE6637:
.LBE6636:
.LBE6635:
.LBE6645:
	.cfi_endproc
.LFE1907:
	.section	.gcc_except_table
.LLSDA1907:
	.byte	0xff
	.byte	0xff
	.byte	0x1
	.uleb128 .LLSDACSE1907-.LLSDACSB1907
.LLSDACSB1907:
	.uleb128 .LEHB128-.LFB1907
	.uleb128 .LEHE128-.LEHB128
	.uleb128 .L836-.LFB1907
	.uleb128 0
	.uleb128 .LEHB129-.LFB1907
	.uleb128 .LEHE129-.LEHB129
	.uleb128 .L837-.LFB1907
	.uleb128 0
	.uleb128 .LEHB130-.LFB1907
	.uleb128 .LEHE130-.LEHB130
	.uleb128 .L836-.LFB1907
	.uleb128 0
	.uleb128 .LEHB131-.LFB1907
	.uleb128 .LEHE131-.LEHB131
	.uleb128 0
	.uleb128 0
.LLSDACSE1907:
	.section	.text._ZN7sigslot13_signal_base4IP11PathBrowserhbRKSsNS_15single_threadedEED2Ev,"axG",@progbits,_ZN7sigslot13_signal_base4IP11PathBrowserhbRKSsNS_15single_threadedEED5Ev,comdat
	.size	_ZN7sigslot13_signal_base4IP11PathBrowserhbRKSsNS_15single_threadedEED2Ev, .-_ZN7sigslot13_signal_base4IP11PathBrowserhbRKSsNS_15single_threadedEED2Ev
	.section	.text._ZN7sigslot7signal4IP11PathBrowserhbRKSsNS_15single_threadedEED0Ev,"axG",@progbits,_ZN7sigslot7signal4IP11PathBrowserhbRKSsNS_15single_threadedEED5Ev,comdat
	.align 2
	.weak	_ZN7sigslot7signal4IP11PathBrowserhbRKSsNS_15single_threadedEED0Ev
	.type	_ZN7sigslot7signal4IP11PathBrowserhbRKSsNS_15single_threadedEED0Ev, @function
_ZN7sigslot7signal4IP11PathBrowserhbRKSsNS_15single_threadedEED0Ev:
.LFB1788:
	.loc 1 2371 0
	.cfi_startproc
	.cfi_personality 0,__gxx_personality_v0
	.cfi_lsda 0,.LLSDA1788
.LVL875:
	mflr 0
	stwu 1,-40(1)
.LCFI112:
	.cfi_def_cfa_offset 40
	.cfi_register 65, 0
.LBB6744:
.LBB6745:
.LBB6746:
.LBB6747:
.LBB6748:
.LBB6749:
	.loc 1 1066 0
	lis 9,_ZTVN7sigslot13_signal_base4IP11PathBrowserhbRKSsNS_15single_threadedEEE+8@ha
.LBE6749:
.LBE6748:
.LBE6747:
.LBE6746:
.LBE6745:
.LBE6744:
	.loc 1 2371 0
	stw 28,24(1)
	mr 28,3
	.cfi_offset 28, -16
.LVL876:
	stw 0,44(1)
.LBB6846:
.LBB6842:
.LBB6838:
.LBB6834:
.LBB6830:
.LBB6826:
	.loc 1 1066 0
	la 0,_ZTVN7sigslot13_signal_base4IP11PathBrowserhbRKSsNS_15single_threadedEEE+8@l(9)
	.cfi_offset 65, 4
.LBE6826:
.LBE6830:
.LBE6834:
.LBE6838:
.LBE6842:
.LBE6846:
	.loc 1 2371 0
	stw 29,28(1)
	addi 29,3,4
	.cfi_offset 29, -12
	stw 30,32(1)
	stw 31,36(1)
.LBB6847:
.LBB6843:
.LBB6839:
.LBB6835:
.LBB6831:
.LBB6827:
	.loc 1 1066 0
	stw 0,0(3)
.LVL877:
.LEHB132:
.LBB6750:
.LBB6751:
.LBB6752:
.LBB6753:
	.loc 1 338 0
	.cfi_offset 31, -4
	.cfi_offset 30, -8
	bl _ZN7sigslot15single_threaded4lockEv
.LEHE132:
.LVL878:
.LBE6753:
.LBE6752:
.LBE6751:
	.loc 4 285 0
	mr 29,28
.LVL879:
	lwzu 31,4(29)
.LVL880:
.LBB6784:
	.loc 1 1074 0
	cmpw 7,31,29
	beq- 7,.L845
.LVL881:
.L884:
	.loc 1 1076 0
	lwz 3,8(31)
	lwz 9,0(3)
	lwz 0,8(9)
	mtctr 0
.LEHB133:
	bctrl
.LBB6754:
.LBB6755:
.LBB6756:
.LBB6757:
	.loc 1 338 0
	lwz 9,0(3)
.LBE6757:
.LBE6756:
.LBE6755:
.LBE6754:
	.loc 1 1076 0
	mr 30,3
.LVL882:
	stw 28,8(1)
.LVL883:
.LBB6766:
.LBB6765:
.LBB6759:
.LBB6758:
	.loc 1 338 0
	lwz 0,8(9)
	mtctr 0
	bctrl
.LVL884:
.LBE6758:
.LBE6759:
.LBB6760:
.LBB6761:
	.loc 14 528 0
	addi 3,30,4
	addi 4,1,8
	bl _ZNSt8_Rb_treeIPN7sigslot12_signal_baseINS0_15single_threadedEEES4_St9_IdentityIS4_ESt4lessIS4_ESaIS4_EE5eraseERKS4_
.LVL885:
.LBE6761:
.LBE6760:
.LBB6762:
.LBB6763:
.LBB6764:
	.loc 1 343 0
	lwz 9,0(30)
	mr 3,30
	lwz 0,12(9)
	mtctr 0
	bctrl
.LVL886:
.LBE6764:
.LBE6763:
.LBE6762:
.LBE6765:
.LBE6766:
	.loc 1 1077 0
	lwz 3,8(31)
	cmpwi 7,3,0
	beq- 7,.L847
	lwz 9,0(3)
	lwz 0,4(9)
	mtctr 0
	bctrl
.LEHE133:
.L847:
.LVL887:
.LBB6767:
.LBB6768:
	.loc 5 234 0
	lwz 31,0(31)
.LVL888:
.LBE6768:
.LBE6767:
	.loc 1 1074 0
	cmpw 7,29,31
	bne+ 7,.L884
.LBE6784:
	.loc 4 285 0
	lwz 31,4(28)
.LVL889:
.LBB6785:
.LBB6769:
.LBB6770:
	.loc 5 1162 0
	cmpw 7,29,31
	bne+ 7,.L886
	b .L845
.LVL890:
.L879:
	.loc 5 1163 0
	mr 31,30
.LVL891:
.L886:
.LBB6771:
.LBB6772:
	.loc 15 112 0
	lwz 30,0(31)
.LVL892:
.LBB6773:
.LBB6774:
	.loc 5 1532 0
	mr 3,31
	bl _ZNSt8__detail15_List_node_base9_M_unhookEv
.LVL893:
.LBB6775:
.LBB6776:
.LBB6777:
	.loc 6 98 0
	mr 3,31
	bl _ZdlPv
.LVL894:
.LBE6777:
.LBE6776:
.LBE6775:
.LBE6774:
.LBE6773:
.LBE6772:
.LBE6771:
	.loc 5 1162 0
	cmpw 7,29,30
	bne+ 7,.L879
.LVL895:
.L845:
.LBE6770:
.LBE6769:
.LBB6778:
.LBB6779:
.LBB6780:
	.loc 1 343 0
	lwz 9,0(28)
	mr 3,28
	lwz 0,12(9)
	mtctr 0
.LEHB134:
	bctrl
.LEHE134:
.LBE6780:
.LBE6779:
.LBE6778:
.LBE6785:
.LBE6750:
.LBB6787:
.LBB6788:
.LBB6789:
.LBB6790:
.LBB6791:
.LBB6792:
	.loc 15 70 0
	lwz 3,4(28)
.LVL896:
	.loc 15 71 0
	cmpw 7,3,29
	bne+ 7,.L888
	b .L863
.LVL897:
.L880:
	.loc 15 74 0
	mr 3,31
.LVL898:
.L888:
.LBB6793:
	lwz 31,0(3)
.LVL899:
.LBB6794:
.LBB6795:
.LBB6796:
	.loc 6 98 0
	bl _ZdlPv
.LVL900:
.LBE6796:
.LBE6795:
.LBE6794:
.LBE6793:
	.loc 15 71 0
	cmpw 7,31,29
	bne+ 7,.L880
.LVL901:
.L863:
.LBE6792:
.LBE6791:
.LBE6790:
.LBE6789:
.LBE6788:
.LBE6787:
.LBB6797:
.LBB6798:
.LBB6799:
.LBB6800:
.LBB6801:
.LBB6802:
	.loc 1 105 0
	lis 9,_ZTVN7sigslot15single_threadedE+8@ha
.LBE6802:
.LBE6801:
.LBE6800:
.LBE6799:
.LBE6798:
.LBE6797:
.LBE6827:
.LBE6831:
.LBE6835:
.LBE6839:
.LBE6843:
.LBE6847:
	.loc 1 2374 0
	mr 3,28
.LBB6848:
.LBB6844:
.LBB6840:
.LBB6836:
.LBB6832:
.LBB6828:
.LBB6808:
.LBB6807:
.LBB6806:
.LBB6805:
.LBB6804:
.LBB6803:
	.loc 1 105 0
	la 0,_ZTVN7sigslot15single_threadedE+8@l(9)
	stw 0,0(28)
.LBE6803:
.LBE6804:
.LBE6805:
.LBE6806:
.LBE6807:
.LBE6808:
.LBE6828:
.LBE6832:
.LBE6836:
.LBE6840:
.LBE6844:
.LBE6848:
	.loc 1 2374 0
	bl _ZdlPv
	lwz 0,44(1)
	lwz 28,24(1)
.LVL902:
	mtlr 0
	lwz 29,28(1)
.LVL903:
	lwz 30,32(1)
	lwz 31,36(1)
	addi 1,1,40
	.cfi_remember_state
.LCFI113:
	.cfi_def_cfa_offset 0
	.cfi_restore 31
	.cfi_restore 30
	.cfi_restore 29
	.cfi_restore 28
	blr
.LVL904:
.L882:
.LCFI114:
	.cfi_restore_state
	mr 31,3
.L855:
.LBB6849:
.LBB6845:
.LBB6841:
.LBB6837:
.LBB6833:
.LBB6829:
.LBB6809:
.LBB6810:
.LBB6811:
.LBB6812:
.LBB6813:
.LBB6814:
	.loc 15 70 0
	lwz 3,4(28)
.LVL905:
	.loc 15 71 0
	cmpw 7,3,29
	beq- 7,.L872
.LVL906:
.L889:
.LBB6815:
	.loc 15 74 0
	lwz 30,0(3)
.LVL907:
.LBB6816:
.LBB6817:
.LBB6818:
	.loc 6 98 0
	bl _ZdlPv
.LVL908:
.LBE6818:
.LBE6817:
.LBE6816:
.LBE6815:
	.loc 15 71 0
	cmpw 7,30,29
	beq- 7,.L872
	.loc 15 74 0
	mr 3,30
	b .L889
.LVL909:
.L883:
.LBE6814:
.LBE6813:
.LBE6812:
.LBE6811:
.LBE6810:
.LBE6809:
.LBB6819:
.LBB6786:
.LBB6781:
.LBB6782:
.LBB6783:
	.loc 1 343 0
	lwz 9,0(28)
	mr 31,3
.LVL910:
	mr 3,28
	lwz 0,12(9)
	mtctr 0
	bctrl
	b .L855
.LVL911:
.L872:
.LBE6783:
.LBE6782:
.LBE6781:
.LBE6786:
.LBE6819:
.LBB6820:
.LBB6821:
.LBB6822:
.LBB6823:
.LBB6824:
.LBB6825:
	.loc 1 105 0
	lis 9,_ZTVN7sigslot15single_threadedE+8@ha
	mr 3,31
	la 0,_ZTVN7sigslot15single_threadedE+8@l(9)
	stw 0,0(28)
.LEHB135:
	bl _Unwind_Resume
.LEHE135:
.LBE6825:
.LBE6824:
.LBE6823:
.LBE6822:
.LBE6821:
.LBE6820:
.LBE6829:
.LBE6833:
.LBE6837:
.LBE6841:
.LBE6845:
.LBE6849:
	.cfi_endproc
.LFE1788:
	.section	.gcc_except_table
.LLSDA1788:
	.byte	0xff
	.byte	0xff
	.byte	0x1
	.uleb128 .LLSDACSE1788-.LLSDACSB1788
.LLSDACSB1788:
	.uleb128 .LEHB132-.LFB1788
	.uleb128 .LEHE132-.LEHB132
	.uleb128 .L882-.LFB1788
	.uleb128 0
	.uleb128 .LEHB133-.LFB1788
	.uleb128 .LEHE133-.LEHB133
	.uleb128 .L883-.LFB1788
	.uleb128 0
	.uleb128 .LEHB134-.LFB1788
	.uleb128 .LEHE134-.LEHB134
	.uleb128 .L882-.LFB1788
	.uleb128 0
	.uleb128 .LEHB135-.LFB1788
	.uleb128 .LEHE135-.LEHB135
	.uleb128 0
	.uleb128 0
.LLSDACSE1788:
	.section	.text._ZN7sigslot7signal4IP11PathBrowserhbRKSsNS_15single_threadedEED0Ev,"axG",@progbits,_ZN7sigslot7signal4IP11PathBrowserhbRKSsNS_15single_threadedEED5Ev,comdat
	.size	_ZN7sigslot7signal4IP11PathBrowserhbRKSsNS_15single_threadedEED0Ev, .-_ZN7sigslot7signal4IP11PathBrowserhbRKSsNS_15single_threadedEED0Ev
	.section	.text._ZN7sigslot13_signal_base4IP11PathBrowserhbRKSsNS_15single_threadedEED0Ev,"axG",@progbits,_ZN7sigslot13_signal_base4IP11PathBrowserhbRKSsNS_15single_threadedEED5Ev,comdat
	.align 2
	.weak	_ZN7sigslot13_signal_base4IP11PathBrowserhbRKSsNS_15single_threadedEED0Ev
	.type	_ZN7sigslot13_signal_base4IP11PathBrowserhbRKSsNS_15single_threadedEED0Ev, @function
_ZN7sigslot13_signal_base4IP11PathBrowserhbRKSsNS_15single_threadedEED0Ev:
.LFB1909:
	.loc 1 1063 0
	.cfi_startproc
	.cfi_personality 0,__gxx_personality_v0
	.cfi_lsda 0,.LLSDA1909
.LVL912:
	mflr 0
	stwu 1,-40(1)
.LCFI115:
	.cfi_def_cfa_offset 40
	.cfi_register 65, 0
.LBB6945:
.LBB6946:
.LBB6947:
	.loc 1 1066 0
	lis 9,_ZTVN7sigslot13_signal_base4IP11PathBrowserhbRKSsNS_15single_threadedEEE+8@ha
.LBE6947:
.LBE6946:
.LBE6945:
	.loc 1 1063 0
	stw 28,24(1)
	mr 28,3
	.cfi_offset 28, -16
.LVL913:
	stw 0,44(1)
.LBB7032:
.LBB7028:
.LBB7024:
	.loc 1 1066 0
	la 0,_ZTVN7sigslot13_signal_base4IP11PathBrowserhbRKSsNS_15single_threadedEEE+8@l(9)
	.cfi_offset 65, 4
.LBE7024:
.LBE7028:
.LBE7032:
	.loc 1 1063 0
	stw 29,28(1)
	addi 29,3,4
	.cfi_offset 29, -12
	stw 30,32(1)
	stw 31,36(1)
.LBB7033:
.LBB7029:
.LBB7025:
	.loc 1 1066 0
	stw 0,0(3)
.LVL914:
.LEHB136:
.LBB6948:
.LBB6949:
.LBB6950:
.LBB6951:
	.loc 1 338 0
	.cfi_offset 31, -4
	.cfi_offset 30, -8
	bl _ZN7sigslot15single_threaded4lockEv
.LEHE136:
.LVL915:
.LBE6951:
.LBE6950:
.LBE6949:
	.loc 4 285 0
	mr 29,28
.LVL916:
	lwzu 31,4(29)
.LVL917:
.LBB6982:
	.loc 1 1074 0
	cmpw 7,31,29
	beq- 7,.L891
.LVL918:
.L929:
	.loc 1 1076 0
	lwz 3,8(31)
	lwz 9,0(3)
	lwz 0,8(9)
	mtctr 0
.LEHB137:
	bctrl
.LBB6952:
.LBB6953:
.LBB6954:
.LBB6955:
	.loc 1 338 0
	lwz 9,0(3)
.LBE6955:
.LBE6954:
.LBE6953:
.LBE6952:
	.loc 1 1076 0
	mr 30,3
.LVL919:
	stw 28,8(1)
.LVL920:
.LBB6964:
.LBB6963:
.LBB6957:
.LBB6956:
	.loc 1 338 0
	lwz 0,8(9)
	mtctr 0
	bctrl
.LVL921:
.LBE6956:
.LBE6957:
.LBB6958:
.LBB6959:
	.loc 14 528 0
	addi 3,30,4
	addi 4,1,8
	bl _ZNSt8_Rb_treeIPN7sigslot12_signal_baseINS0_15single_threadedEEES4_St9_IdentityIS4_ESt4lessIS4_ESaIS4_EE5eraseERKS4_
.LVL922:
.LBE6959:
.LBE6958:
.LBB6960:
.LBB6961:
.LBB6962:
	.loc 1 343 0
	lwz 9,0(30)
	mr 3,30
	lwz 0,12(9)
	mtctr 0
	bctrl
.LVL923:
.LBE6962:
.LBE6961:
.LBE6960:
.LBE6963:
.LBE6964:
	.loc 1 1077 0
	lwz 3,8(31)
	cmpwi 7,3,0
	beq- 7,.L893
	lwz 9,0(3)
	lwz 0,4(9)
	mtctr 0
	bctrl
.LEHE137:
.L893:
.LVL924:
.LBB6965:
.LBB6966:
	.loc 5 234 0
	lwz 31,0(31)
.LVL925:
.LBE6966:
.LBE6965:
	.loc 1 1074 0
	cmpw 7,29,31
	bne+ 7,.L929
.LBE6982:
	.loc 4 285 0
	lwz 31,4(28)
.LVL926:
.LBB6983:
.LBB6967:
.LBB6968:
	.loc 5 1162 0
	cmpw 7,29,31
	bne+ 7,.L931
	b .L891
.LVL927:
.L924:
	.loc 5 1163 0
	mr 31,30
.LVL928:
.L931:
.LBB6969:
.LBB6970:
	.loc 15 112 0
	lwz 30,0(31)
.LVL929:
.LBB6971:
.LBB6972:
	.loc 5 1532 0
	mr 3,31
	bl _ZNSt8__detail15_List_node_base9_M_unhookEv
.LVL930:
.LBB6973:
.LBB6974:
.LBB6975:
	.loc 6 98 0
	mr 3,31
	bl _ZdlPv
.LVL931:
.LBE6975:
.LBE6974:
.LBE6973:
.LBE6972:
.LBE6971:
.LBE6970:
.LBE6969:
	.loc 5 1162 0
	cmpw 7,29,30
	bne+ 7,.L924
.LVL932:
.L891:
.LBE6968:
.LBE6967:
.LBB6976:
.LBB6977:
.LBB6978:
	.loc 1 343 0
	lwz 9,0(28)
	mr 3,28
	lwz 0,12(9)
	mtctr 0
.LEHB138:
	bctrl
.LEHE138:
.LVL933:
.LBE6978:
.LBE6977:
.LBE6976:
.LBE6983:
.LBE6948:
.LBB6985:
.LBB6986:
.LBB6987:
.LBB6988:
.LBB6989:
.LBB6990:
	.loc 15 70 0
	lwz 3,4(28)
.LVL934:
	.loc 15 71 0
	cmpw 7,3,29
	bne+ 7,.L933
	b .L909
.LVL935:
.L925:
	.loc 15 74 0
	mr 3,31
.LVL936:
.L933:
.LBB6991:
	lwz 31,0(3)
.LVL937:
.LBB6992:
.LBB6993:
.LBB6994:
	.loc 6 98 0
	bl _ZdlPv
.LVL938:
.LBE6994:
.LBE6993:
.LBE6992:
.LBE6991:
	.loc 15 71 0
	cmpw 7,31,29
	bne+ 7,.L925
.LVL939:
.L909:
.LBE6990:
.LBE6989:
.LBE6988:
.LBE6987:
.LBE6986:
.LBE6985:
.LBB6995:
.LBB6996:
.LBB6997:
.LBB6998:
.LBB6999:
.LBB7000:
	.loc 1 105 0
	lis 9,_ZTVN7sigslot15single_threadedE+8@ha
.LBE7000:
.LBE6999:
.LBE6998:
.LBE6997:
.LBE6996:
.LBE6995:
.LBE7025:
.LBE7029:
.LBE7033:
	.loc 1 1066 0
	mr 3,28
.LBB7034:
.LBB7030:
.LBB7026:
.LBB7006:
.LBB7005:
.LBB7004:
.LBB7003:
.LBB7002:
.LBB7001:
	.loc 1 105 0
	la 0,_ZTVN7sigslot15single_threadedE+8@l(9)
	stw 0,0(28)
.LBE7001:
.LBE7002:
.LBE7003:
.LBE7004:
.LBE7005:
.LBE7006:
.LBE7026:
.LBE7030:
.LBE7034:
	.loc 1 1066 0
	bl _ZdlPv
	lwz 0,44(1)
	lwz 28,24(1)
.LVL940:
	mtlr 0
	lwz 29,28(1)
.LVL941:
	lwz 30,32(1)
	lwz 31,36(1)
	addi 1,1,40
	.cfi_remember_state
.LCFI116:
	.cfi_def_cfa_offset 0
	.cfi_restore 31
	.cfi_restore 30
	.cfi_restore 29
	.cfi_restore 28
	blr
.LVL942:
.L927:
.LCFI117:
	.cfi_restore_state
	mr 31,3
.L901:
.LVL943:
.LBB7035:
.LBB7031:
.LBB7027:
.LBB7007:
.LBB7008:
.LBB7009:
.LBB7010:
.LBB7011:
.LBB7012:
	.loc 15 70 0
	lwz 3,4(28)
.LVL944:
	.loc 15 71 0
	cmpw 7,3,29
	beq- 7,.L918
.LVL945:
.L934:
.LBB7013:
	.loc 15 74 0
	lwz 30,0(3)
.LVL946:
.LBB7014:
.LBB7015:
.LBB7016:
	.loc 6 98 0
	bl _ZdlPv
.LVL947:
.LBE7016:
.LBE7015:
.LBE7014:
.LBE7013:
	.loc 15 71 0
	cmpw 7,30,29
	beq- 7,.L918
	.loc 15 74 0
	mr 3,30
	b .L934
.LVL948:
.L928:
.LBE7012:
.LBE7011:
.LBE7010:
.LBE7009:
.LBE7008:
.LBE7007:
.LBB7017:
.LBB6984:
.LBB6979:
.LBB6980:
.LBB6981:
	.loc 1 343 0
	lwz 9,0(28)
	mr 31,3
.LVL949:
	mr 3,28
	lwz 0,12(9)
	mtctr 0
	bctrl
	b .L901
.LVL950:
.L918:
.LBE6981:
.LBE6980:
.LBE6979:
.LBE6984:
.LBE7017:
.LBB7018:
.LBB7019:
.LBB7020:
.LBB7021:
.LBB7022:
.LBB7023:
	.loc 1 105 0
	lis 9,_ZTVN7sigslot15single_threadedE+8@ha
	mr 3,31
	la 0,_ZTVN7sigslot15single_threadedE+8@l(9)
	stw 0,0(28)
.LEHB139:
	bl _Unwind_Resume
.LEHE139:
.LBE7023:
.LBE7022:
.LBE7021:
.LBE7020:
.LBE7019:
.LBE7018:
.LBE7027:
.LBE7031:
.LBE7035:
	.cfi_endproc
.LFE1909:
	.section	.gcc_except_table
.LLSDA1909:
	.byte	0xff
	.byte	0xff
	.byte	0x1
	.uleb128 .LLSDACSE1909-.LLSDACSB1909
.LLSDACSB1909:
	.uleb128 .LEHB136-.LFB1909
	.uleb128 .LEHE136-.LEHB136
	.uleb128 .L927-.LFB1909
	.uleb128 0
	.uleb128 .LEHB137-.LFB1909
	.uleb128 .LEHE137-.LEHB137
	.uleb128 .L928-.LFB1909
	.uleb128 0
	.uleb128 .LEHB138-.LFB1909
	.uleb128 .LEHE138-.LEHB138
	.uleb128 .L927-.LFB1909
	.uleb128 0
	.uleb128 .LEHB139-.LFB1909
	.uleb128 .LEHE139-.LEHB139
	.uleb128 0
	.uleb128 0
.LLSDACSE1909:
	.section	.text._ZN7sigslot13_signal_base4IP11PathBrowserhbRKSsNS_15single_threadedEED0Ev,"axG",@progbits,_ZN7sigslot13_signal_base4IP11PathBrowserhbRKSsNS_15single_threadedEED5Ev,comdat
	.size	_ZN7sigslot13_signal_base4IP11PathBrowserhbRKSsNS_15single_threadedEED0Ev, .-_ZN7sigslot13_signal_base4IP11PathBrowserhbRKSsNS_15single_threadedEED0Ev
	.weak	_ZTS11PathBrowser
	.section	.rodata._ZTS11PathBrowser,"aG",@progbits,_ZTS11PathBrowser,comdat
	.align 2
	.type	_ZTS11PathBrowser, @object
	.size	_ZTS11PathBrowser, 14
_ZTS11PathBrowser:
	.string	"11PathBrowser"
	.weak	_ZTI11PathBrowser
	.section	.rodata._ZTI11PathBrowser,"aG",@progbits,_ZTI11PathBrowser,comdat
	.align 2
	.type	_ZTI11PathBrowser, @object
	.size	_ZTI11PathBrowser, 32
_ZTI11PathBrowser:
	.long	_ZTVN10__cxxabiv121__vmi_class_type_infoE+8
	.long	_ZTS11PathBrowser
	.long	0
	.long	2
	.long	_ZTI8GuiFrame
	.long	2
	.long	_ZTIN7sigslot9has_slotsINS_15single_threadedEEE
	.long	45058
	.weak	_ZTV11PathBrowser
	.section	.rodata._ZTV11PathBrowser,"aG",@progbits,_ZTV11PathBrowser,comdat
	.align 3
	.type	_ZTV11PathBrowser, @object
	.size	_ZTV11PathBrowser, 252
_ZTV11PathBrowser:
	.long	0
	.long	_ZTI11PathBrowser
	.long	_ZN11PathBrowserD1Ev
	.long	_ZN11PathBrowserD0Ev
	.long	_ZN10GuiElement9SetParentEPS_
	.long	_ZN10GuiElement9GetParentEv
	.long	_ZN10GuiElement7GetLeftEv
	.long	_ZN10GuiElement6GetTopEv
	.long	_ZN10GuiElement12GetZPositionEv
	.long	_ZN10GuiElement10GetLeftPosEv
	.long	_ZN10GuiElement9GetTopPosEv
	.long	_ZN10GuiElement8GetWidthEv
	.long	_ZN10GuiElement9GetHeightEv
	.long	_ZN10GuiElement7SetSizeEii
	.long	_ZN8GuiFrame10SetVisibleEb
	.long	_ZN10GuiElement9IsVisibleEv
	.long	_ZN10GuiElement12IsSelectableEv
	.long	_ZN10GuiElement11IsClickableEv
	.long	_ZN10GuiElement10IsHoldableEv
	.long	_ZN10GuiElement13SetSelectableEb
	.long	_ZN10GuiElement12SetClickableEb
	.long	_ZN10GuiElement11SetHoldableEb
	.long	_ZN10GuiElement8SetStateEii
	.long	_ZN10GuiElement8GetStateEv
	.long	_ZN10GuiElement12GetStateChanEv
	.long	_ZN8GuiFrame10ResetStateEv
	.long	_ZN10GuiElement8SetAlphaEi
	.long	_ZN10GuiElement8GetAlphaEv
	.long	_ZN10GuiElement8SetScaleEf
	.long	_ZN10GuiElement9SetScaleXEf
	.long	_ZN10GuiElement9SetScaleYEf
	.long	_ZN10GuiElement8GetScaleEv
	.long	_ZN10GuiElement9GetScaleXEv
	.long	_ZN10GuiElement9GetScaleYEv
	.long	_ZN10GuiElement6RumbleEv
	.long	_ZN10GuiElement9SetRumbleEb
	.long	_ZN10GuiElement9SetEffectEiii
	.long	_ZN10GuiElement15SetEffectOnOverEiii
	.long	_ZN10GuiElement13SetEffectGrowEv
	.long	_ZN10GuiElement12ResetEffectsEv
	.long	_ZNK10GuiElement9GetEffectEv
	.long	_ZNK10GuiElement10IsAnimatedEv
	.long	_ZN8GuiFrame9SetBoundsE4RectIiE
	.long	_ZN10GuiElement8IsInsideEii
	.long	_ZN10GuiElement11SetPositionEii
	.long	_ZN10GuiElement11SetPositionEiii
	.long	_ZN8GuiFrame11GetSelectedEv
	.long	_ZN10GuiElement12SetAlignmentEi
	.long	_ZNK10GuiElement12GetAlignmentEv
	.long	_ZN8GuiFrame6UpdateEP10GuiTrigger
	.long	_ZN8GuiFrame4DrawEv
	.long	_ZN10GuiElement13UpdateEffectsEv
	.long	_ZN8GuiFrame5CloseEv
	.long	_ZN8GuiFrame4showEv
	.long	_ZN8GuiFrame4hideEv
	.long	_ZN8GuiFrame4execEv
	.long	_ZN8GuiFrame12updateEventsEv
	.long	-176
	.long	_ZTI11PathBrowser
	.long	_ZThn176_N11PathBrowserD1Ev
	.long	_ZThn176_N11PathBrowserD0Ev
	.long	_ZN7sigslot15single_threaded4lockEv
	.long	_ZN7sigslot15single_threaded6unlockEv
	.weak	_ZTVN7sigslot15single_threadedE
	.section	.rodata._ZTVN7sigslot15single_threadedE,"aG",@progbits,_ZTVN7sigslot15single_threadedE,comdat
	.align 3
	.type	_ZTVN7sigslot15single_threadedE, @object
	.size	_ZTVN7sigslot15single_threadedE, 24
_ZTVN7sigslot15single_threadedE:
	.long	0
	.long	_ZTIN7sigslot15single_threadedE
	.long	_ZN7sigslot15single_threadedD1Ev
	.long	_ZN7sigslot15single_threadedD0Ev
	.long	_ZN7sigslot15single_threaded4lockEv
	.long	_ZN7sigslot15single_threaded6unlockEv
	.weak	_ZTVN7sigslot9has_slotsINS_15single_threadedEEE
	.section	.rodata._ZTVN7sigslot9has_slotsINS_15single_threadedEEE,"aG",@progbits,_ZTVN7sigslot9has_slotsINS_15single_threadedEEE,comdat
	.align 3
	.type	_ZTVN7sigslot9has_slotsINS_15single_threadedEEE, @object
	.size	_ZTVN7sigslot9has_slotsINS_15single_threadedEEE, 24
_ZTVN7sigslot9has_slotsINS_15single_threadedEEE:
	.long	0
	.long	_ZTIN7sigslot9has_slotsINS_15single_threadedEEE
	.long	_ZN7sigslot9has_slotsINS_15single_threadedEED1Ev
	.long	_ZN7sigslot9has_slotsINS_15single_threadedEED0Ev
	.long	_ZN7sigslot15single_threaded4lockEv
	.long	_ZN7sigslot15single_threaded6unlockEv
	.weak	_ZTVN7sigslot12_signal_baseINS_15single_threadedEEE
	.section	.rodata._ZTVN7sigslot12_signal_baseINS_15single_threadedEEE,"aG",@progbits,_ZTVN7sigslot12_signal_baseINS_15single_threadedEEE,comdat
	.align 3
	.type	_ZTVN7sigslot12_signal_baseINS_15single_threadedEEE, @object
	.size	_ZTVN7sigslot12_signal_baseINS_15single_threadedEEE, 32
_ZTVN7sigslot12_signal_baseINS_15single_threadedEEE:
	.long	0
	.long	_ZTIN7sigslot12_signal_baseINS_15single_threadedEEE
	.long	_ZN7sigslot12_signal_baseINS_15single_threadedEED1Ev
	.long	_ZN7sigslot12_signal_baseINS_15single_threadedEED0Ev
	.long	_ZN7sigslot15single_threaded4lockEv
	.long	_ZN7sigslot15single_threaded6unlockEv
	.long	__cxa_pure_virtual
	.long	__cxa_pure_virtual
	.weak	_ZTVN7sigslot13_signal_base4IP11PathBrowserhbRKSsNS_15single_threadedEEE
	.section	.rodata._ZTVN7sigslot13_signal_base4IP11PathBrowserhbRKSsNS_15single_threadedEEE,"aG",@progbits,_ZTVN7sigslot13_signal_base4IP11PathBrowserhbRKSsNS_15single_threadedEEE,comdat
	.align 3
	.type	_ZTVN7sigslot13_signal_base4IP11PathBrowserhbRKSsNS_15single_threadedEEE, @object
	.size	_ZTVN7sigslot13_signal_base4IP11PathBrowserhbRKSsNS_15single_threadedEEE, 32
_ZTVN7sigslot13_signal_base4IP11PathBrowserhbRKSsNS_15single_threadedEEE:
	.long	0
	.long	_ZTIN7sigslot13_signal_base4IP11PathBrowserhbRKSsNS_15single_threadedEEE
	.long	_ZN7sigslot13_signal_base4IP11PathBrowserhbRKSsNS_15single_threadedEED1Ev
	.long	_ZN7sigslot13_signal_base4IP11PathBrowserhbRKSsNS_15single_threadedEED0Ev
	.long	_ZN7sigslot15single_threaded4lockEv
	.long	_ZN7sigslot15single_threaded6unlockEv
	.long	_ZN7sigslot13_signal_base4IP11PathBrowserhbRKSsNS_15single_threadedEE15slot_disconnectEPNS_9has_slotsIS5_EE
	.long	_ZN7sigslot13_signal_base4IP11PathBrowserhbRKSsNS_15single_threadedEE14slot_duplicateEPKNS_9has_slotsIS5_EEPS8_
	.weak	_ZTVN7sigslot7signal4IP11PathBrowserhbRKSsNS_15single_threadedEEE
	.section	.rodata._ZTVN7sigslot7signal4IP11PathBrowserhbRKSsNS_15single_threadedEEE,"aG",@progbits,_ZTVN7sigslot7signal4IP11PathBrowserhbRKSsNS_15single_threadedEEE,comdat
	.align 3
	.type	_ZTVN7sigslot7signal4IP11PathBrowserhbRKSsNS_15single_threadedEEE, @object
	.size	_ZTVN7sigslot7signal4IP11PathBrowserhbRKSsNS_15single_threadedEEE, 32
_ZTVN7sigslot7signal4IP11PathBrowserhbRKSsNS_15single_threadedEEE:
	.long	0
	.long	_ZTIN7sigslot7signal4IP11PathBrowserhbRKSsNS_15single_threadedEEE
	.long	_ZN7sigslot7signal4IP11PathBrowserhbRKSsNS_15single_threadedEED1Ev
	.long	_ZN7sigslot7signal4IP11PathBrowserhbRKSsNS_15single_threadedEED0Ev
	.long	_ZN7sigslot15single_threaded4lockEv
	.long	_ZN7sigslot15single_threaded6unlockEv
	.long	_ZN7sigslot13_signal_base4IP11PathBrowserhbRKSsNS_15single_threadedEE15slot_disconnectEPNS_9has_slotsIS5_EE
	.long	_ZN7sigslot13_signal_base4IP11PathBrowserhbRKSsNS_15single_threadedEE14slot_duplicateEPKNS_9has_slotsIS5_EEPS8_
	.weak	_ZTVN7sigslot17_connection_base1IiNS_15single_threadedEEE
	.section	.rodata._ZTVN7sigslot17_connection_base1IiNS_15single_threadedEEE,"aG",@progbits,_ZTVN7sigslot17_connection_base1IiNS_15single_threadedEEE,comdat
	.align 3
	.type	_ZTVN7sigslot17_connection_base1IiNS_15single_threadedEEE, @object
	.size	_ZTVN7sigslot17_connection_base1IiNS_15single_threadedEEE, 32
_ZTVN7sigslot17_connection_base1IiNS_15single_threadedEEE:
	.long	0
	.long	_ZTIN7sigslot17_connection_base1IiNS_15single_threadedEEE
	.long	_ZN7sigslot17_connection_base1IiNS_15single_threadedEED1Ev
	.long	_ZN7sigslot17_connection_base1IiNS_15single_threadedEED0Ev
	.long	__cxa_pure_virtual
	.long	__cxa_pure_virtual
	.long	__cxa_pure_virtual
	.long	__cxa_pure_virtual
	.weak	_ZTVN7sigslot12_connection1I11PathBrowseriNS_15single_threadedEEE
	.section	.rodata._ZTVN7sigslot12_connection1I11PathBrowseriNS_15single_threadedEEE,"aG",@progbits,_ZTVN7sigslot12_connection1I11PathBrowseriNS_15single_threadedEEE,comdat
	.align 3
	.type	_ZTVN7sigslot12_connection1I11PathBrowseriNS_15single_threadedEEE, @object
	.size	_ZTVN7sigslot12_connection1I11PathBrowseriNS_15single_threadedEEE, 32
_ZTVN7sigslot12_connection1I11PathBrowseriNS_15single_threadedEEE:
	.long	0
	.long	_ZTIN7sigslot12_connection1I11PathBrowseriNS_15single_threadedEEE
	.long	_ZN7sigslot12_connection1I11PathBrowseriNS_15single_threadedEED1Ev
	.long	_ZN7sigslot12_connection1I11PathBrowseriNS_15single_threadedEED0Ev
	.long	_ZNK7sigslot12_connection1I11PathBrowseriNS_15single_threadedEE7getdestEv
	.long	_ZN7sigslot12_connection1I11PathBrowseriNS_15single_threadedEE4emitEi
	.long	_ZN7sigslot12_connection1I11PathBrowseriNS_15single_threadedEE5cloneEv
	.long	_ZN7sigslot12_connection1I11PathBrowseriNS_15single_threadedEE9duplicateEPNS_9has_slotsIS2_EE
	.weak	_ZTVN7sigslot17_connection_base3IP9GuiButtoniRK6_POINTNS_15single_threadedEEE
	.section	.rodata._ZTVN7sigslot17_connection_base3IP9GuiButtoniRK6_POINTNS_15single_threadedEEE,"aG",@progbits,_ZTVN7sigslot17_connection_base3IP9GuiButtoniRK6_POINTNS_15single_threadedEEE,comdat
	.align 3
	.type	_ZTVN7sigslot17_connection_base3IP9GuiButtoniRK6_POINTNS_15single_threadedEEE, @object
	.size	_ZTVN7sigslot17_connection_base3IP9GuiButtoniRK6_POINTNS_15single_threadedEEE, 32
_ZTVN7sigslot17_connection_base3IP9GuiButtoniRK6_POINTNS_15single_threadedEEE:
	.long	0
	.long	_ZTIN7sigslot17_connection_base3IP9GuiButtoniRK6_POINTNS_15single_threadedEEE
	.long	_ZN7sigslot17_connection_base3IP9GuiButtoniRK6_POINTNS_15single_threadedEED1Ev
	.long	_ZN7sigslot17_connection_base3IP9GuiButtoniRK6_POINTNS_15single_threadedEED0Ev
	.long	__cxa_pure_virtual
	.long	__cxa_pure_virtual
	.long	__cxa_pure_virtual
	.long	__cxa_pure_virtual
	.weak	_ZTVN7sigslot12_connection3I11PathBrowserP9GuiButtoniRK6_POINTNS_15single_threadedEEE
	.section	.rodata._ZTVN7sigslot12_connection3I11PathBrowserP9GuiButtoniRK6_POINTNS_15single_threadedEEE,"aG",@progbits,_ZTVN7sigslot12_connection3I11PathBrowserP9GuiButtoniRK6_POINTNS_15single_threadedEEE,comdat
	.align 3
	.type	_ZTVN7sigslot12_connection3I11PathBrowserP9GuiButtoniRK6_POINTNS_15single_threadedEEE, @object
	.size	_ZTVN7sigslot12_connection3I11PathBrowserP9GuiButtoniRK6_POINTNS_15single_threadedEEE, 32
_ZTVN7sigslot12_connection3I11PathBrowserP9GuiButtoniRK6_POINTNS_15single_threadedEEE:
	.long	0
	.long	_ZTIN7sigslot12_connection3I11PathBrowserP9GuiButtoniRK6_POINTNS_15single_threadedEEE
	.long	_ZN7sigslot12_connection3I11PathBrowserP9GuiButtoniRK6_POINTNS_15single_threadedEED1Ev
	.long	_ZN7sigslot12_connection3I11PathBrowserP9GuiButtoniRK6_POINTNS_15single_threadedEED0Ev
	.long	_ZNK7sigslot12_connection3I11PathBrowserP9GuiButtoniRK6_POINTNS_15single_threadedEE7getdestEv
	.long	_ZN7sigslot12_connection3I11PathBrowserP9GuiButtoniRK6_POINTNS_15single_threadedEE4emitES3_iS6_
	.long	_ZN7sigslot12_connection3I11PathBrowserP9GuiButtoniRK6_POINTNS_15single_threadedEE5cloneEv
	.long	_ZN7sigslot12_connection3I11PathBrowserP9GuiButtoniRK6_POINTNS_15single_threadedEE9duplicateEPNS_9has_slotsIS7_EE
	.weak	_ZTIN7sigslot9has_slotsINS_15single_threadedEEE
	.section	.rodata._ZTIN7sigslot9has_slotsINS_15single_threadedEEE,"aG",@progbits,_ZTIN7sigslot9has_slotsINS_15single_threadedEEE,comdat
	.align 2
	.type	_ZTIN7sigslot9has_slotsINS_15single_threadedEEE, @object
	.size	_ZTIN7sigslot9has_slotsINS_15single_threadedEEE, 12
_ZTIN7sigslot9has_slotsINS_15single_threadedEEE:
	.long	_ZTVN10__cxxabiv120__si_class_type_infoE+8
	.long	_ZTSN7sigslot9has_slotsINS_15single_threadedEEE
	.long	_ZTIN7sigslot15single_threadedE
	.weak	_ZTIN7sigslot15single_threadedE
	.section	.sdata._ZTIN7sigslot15single_threadedE,"awG",@progbits,_ZTIN7sigslot15single_threadedE,comdat
	.align 2
	.type	_ZTIN7sigslot15single_threadedE, @object
	.size	_ZTIN7sigslot15single_threadedE, 8
_ZTIN7sigslot15single_threadedE:
	.long	_ZTVN10__cxxabiv117__class_type_infoE+8
	.long	_ZTSN7sigslot15single_threadedE
	.weak	_ZTIN7sigslot12_signal_baseINS_15single_threadedEEE
	.section	.rodata._ZTIN7sigslot12_signal_baseINS_15single_threadedEEE,"aG",@progbits,_ZTIN7sigslot12_signal_baseINS_15single_threadedEEE,comdat
	.align 2
	.type	_ZTIN7sigslot12_signal_baseINS_15single_threadedEEE, @object
	.size	_ZTIN7sigslot12_signal_baseINS_15single_threadedEEE, 12
_ZTIN7sigslot12_signal_baseINS_15single_threadedEEE:
	.long	_ZTVN10__cxxabiv120__si_class_type_infoE+8
	.long	_ZTSN7sigslot12_signal_baseINS_15single_threadedEEE
	.long	_ZTIN7sigslot15single_threadedE
	.weak	_ZTIN7sigslot13_signal_base4IP11PathBrowserhbRKSsNS_15single_threadedEEE
	.section	.rodata._ZTIN7sigslot13_signal_base4IP11PathBrowserhbRKSsNS_15single_threadedEEE,"aG",@progbits,_ZTIN7sigslot13_signal_base4IP11PathBrowserhbRKSsNS_15single_threadedEEE,comdat
	.align 2
	.type	_ZTIN7sigslot13_signal_base4IP11PathBrowserhbRKSsNS_15single_threadedEEE, @object
	.size	_ZTIN7sigslot13_signal_base4IP11PathBrowserhbRKSsNS_15single_threadedEEE, 12
_ZTIN7sigslot13_signal_base4IP11PathBrowserhbRKSsNS_15single_threadedEEE:
	.long	_ZTVN10__cxxabiv120__si_class_type_infoE+8
	.long	_ZTSN7sigslot13_signal_base4IP11PathBrowserhbRKSsNS_15single_threadedEEE
	.long	_ZTIN7sigslot12_signal_baseINS_15single_threadedEEE
	.weak	_ZTIN7sigslot7signal4IP11PathBrowserhbRKSsNS_15single_threadedEEE
	.section	.rodata._ZTIN7sigslot7signal4IP11PathBrowserhbRKSsNS_15single_threadedEEE,"aG",@progbits,_ZTIN7sigslot7signal4IP11PathBrowserhbRKSsNS_15single_threadedEEE,comdat
	.align 2
	.type	_ZTIN7sigslot7signal4IP11PathBrowserhbRKSsNS_15single_threadedEEE, @object
	.size	_ZTIN7sigslot7signal4IP11PathBrowserhbRKSsNS_15single_threadedEEE, 12
_ZTIN7sigslot7signal4IP11PathBrowserhbRKSsNS_15single_threadedEEE:
	.long	_ZTVN10__cxxabiv120__si_class_type_infoE+8
	.long	_ZTSN7sigslot7signal4IP11PathBrowserhbRKSsNS_15single_threadedEEE
	.long	_ZTIN7sigslot13_signal_base4IP11PathBrowserhbRKSsNS_15single_threadedEEE
	.weak	_ZTIN7sigslot17_connection_base1IiNS_15single_threadedEEE
	.section	.sdata._ZTIN7sigslot17_connection_base1IiNS_15single_threadedEEE,"awG",@progbits,_ZTIN7sigslot17_connection_base1IiNS_15single_threadedEEE,comdat
	.align 2
	.type	_ZTIN7sigslot17_connection_base1IiNS_15single_threadedEEE, @object
	.size	_ZTIN7sigslot17_connection_base1IiNS_15single_threadedEEE, 8
_ZTIN7sigslot17_connection_base1IiNS_15single_threadedEEE:
	.long	_ZTVN10__cxxabiv117__class_type_infoE+8
	.long	_ZTSN7sigslot17_connection_base1IiNS_15single_threadedEEE
	.weak	_ZTIN7sigslot12_connection1I11PathBrowseriNS_15single_threadedEEE
	.section	.rodata._ZTIN7sigslot12_connection1I11PathBrowseriNS_15single_threadedEEE,"aG",@progbits,_ZTIN7sigslot12_connection1I11PathBrowseriNS_15single_threadedEEE,comdat
	.align 2
	.type	_ZTIN7sigslot12_connection1I11PathBrowseriNS_15single_threadedEEE, @object
	.size	_ZTIN7sigslot12_connection1I11PathBrowseriNS_15single_threadedEEE, 12
_ZTIN7sigslot12_connection1I11PathBrowseriNS_15single_threadedEEE:
	.long	_ZTVN10__cxxabiv120__si_class_type_infoE+8
	.long	_ZTSN7sigslot12_connection1I11PathBrowseriNS_15single_threadedEEE
	.long	_ZTIN7sigslot17_connection_base1IiNS_15single_threadedEEE
	.weak	_ZTIN7sigslot17_connection_base3IP9GuiButtoniRK6_POINTNS_15single_threadedEEE
	.section	.sdata._ZTIN7sigslot17_connection_base3IP9GuiButtoniRK6_POINTNS_15single_threadedEEE,"awG",@progbits,_ZTIN7sigslot17_connection_base3IP9GuiButtoniRK6_POINTNS_15single_threadedEEE,comdat
	.align 2
	.type	_ZTIN7sigslot17_connection_base3IP9GuiButtoniRK6_POINTNS_15single_threadedEEE, @object
	.size	_ZTIN7sigslot17_connection_base3IP9GuiButtoniRK6_POINTNS_15single_threadedEEE, 8
_ZTIN7sigslot17_connection_base3IP9GuiButtoniRK6_POINTNS_15single_threadedEEE:
	.long	_ZTVN10__cxxabiv117__class_type_infoE+8
	.long	_ZTSN7sigslot17_connection_base3IP9GuiButtoniRK6_POINTNS_15single_threadedEEE
	.weak	_ZTIN7sigslot12_connection3I11PathBrowserP9GuiButtoniRK6_POINTNS_15single_threadedEEE
	.section	.rodata._ZTIN7sigslot12_connection3I11PathBrowserP9GuiButtoniRK6_POINTNS_15single_threadedEEE,"aG",@progbits,_ZTIN7sigslot12_connection3I11PathBrowserP9GuiButtoniRK6_POINTNS_15single_threadedEEE,comdat
	.align 2
	.type	_ZTIN7sigslot12_connection3I11PathBrowserP9GuiButtoniRK6_POINTNS_15single_threadedEEE, @object
	.size	_ZTIN7sigslot12_connection3I11PathBrowserP9GuiButtoniRK6_POINTNS_15single_threadedEEE, 12
_ZTIN7sigslot12_connection3I11PathBrowserP9GuiButtoniRK6_POINTNS_15single_threadedEEE:
	.long	_ZTVN10__cxxabiv120__si_class_type_infoE+8
	.long	_ZTSN7sigslot12_connection3I11PathBrowserP9GuiButtoniRK6_POINTNS_15single_threadedEEE
	.long	_ZTIN7sigslot17_connection_base3IP9GuiButtoniRK6_POINTNS_15single_threadedEEE
	.weak	_ZTSN7sigslot9has_slotsINS_15single_threadedEEE
	.section	.rodata._ZTSN7sigslot9has_slotsINS_15single_threadedEEE,"aG",@progbits,_ZTSN7sigslot9has_slotsINS_15single_threadedEEE,comdat
	.align 2
	.type	_ZTSN7sigslot9has_slotsINS_15single_threadedEEE, @object
	.size	_ZTSN7sigslot9has_slotsINS_15single_threadedEEE, 44
_ZTSN7sigslot9has_slotsINS_15single_threadedEEE:
	.string	"N7sigslot9has_slotsINS_15single_threadedEEE"
	.weak	_ZTSN7sigslot15single_threadedE
	.section	.rodata._ZTSN7sigslot15single_threadedE,"aG",@progbits,_ZTSN7sigslot15single_threadedE,comdat
	.align 2
	.type	_ZTSN7sigslot15single_threadedE, @object
	.size	_ZTSN7sigslot15single_threadedE, 28
_ZTSN7sigslot15single_threadedE:
	.string	"N7sigslot15single_threadedE"
	.weak	_ZTSN7sigslot12_signal_baseINS_15single_threadedEEE
	.section	.rodata._ZTSN7sigslot12_signal_baseINS_15single_threadedEEE,"aG",@progbits,_ZTSN7sigslot12_signal_baseINS_15single_threadedEEE,comdat
	.align 2
	.type	_ZTSN7sigslot12_signal_baseINS_15single_threadedEEE, @object
	.size	_ZTSN7sigslot12_signal_baseINS_15single_threadedEEE, 48
_ZTSN7sigslot12_signal_baseINS_15single_threadedEEE:
	.string	"N7sigslot12_signal_baseINS_15single_threadedEEE"
	.weak	_ZTSN7sigslot13_signal_base4IP11PathBrowserhbRKSsNS_15single_threadedEEE
	.section	.rodata._ZTSN7sigslot13_signal_base4IP11PathBrowserhbRKSsNS_15single_threadedEEE,"aG",@progbits,_ZTSN7sigslot13_signal_base4IP11PathBrowserhbRKSsNS_15single_threadedEEE,comdat
	.align 2
	.type	_ZTSN7sigslot13_signal_base4IP11PathBrowserhbRKSsNS_15single_threadedEEE, @object
	.size	_ZTSN7sigslot13_signal_base4IP11PathBrowserhbRKSsNS_15single_threadedEEE, 69
_ZTSN7sigslot13_signal_base4IP11PathBrowserhbRKSsNS_15single_threadedEEE:
	.string	"N7sigslot13_signal_base4IP11PathBrowserhbRKSsNS_15single_threadedEEE"
	.weak	_ZTSN7sigslot7signal4IP11PathBrowserhbRKSsNS_15single_threadedEEE
	.section	.rodata._ZTSN7sigslot7signal4IP11PathBrowserhbRKSsNS_15single_threadedEEE,"aG",@progbits,_ZTSN7sigslot7signal4IP11PathBrowserhbRKSsNS_15single_threadedEEE,comdat
	.align 2
	.type	_ZTSN7sigslot7signal4IP11PathBrowserhbRKSsNS_15single_threadedEEE, @object
	.size	_ZTSN7sigslot7signal4IP11PathBrowserhbRKSsNS_15single_threadedEEE, 62
_ZTSN7sigslot7signal4IP11PathBrowserhbRKSsNS_15single_threadedEEE:
	.string	"N7sigslot7signal4IP11PathBrowserhbRKSsNS_15single_threadedEEE"
	.weak	_ZTSN7sigslot17_connection_base1IiNS_15single_threadedEEE
	.section	.rodata._ZTSN7sigslot17_connection_base1IiNS_15single_threadedEEE,"aG",@progbits,_ZTSN7sigslot17_connection_base1IiNS_15single_threadedEEE,comdat
	.align 2
	.type	_ZTSN7sigslot17_connection_base1IiNS_15single_threadedEEE, @object
	.size	_ZTSN7sigslot17_connection_base1IiNS_15single_threadedEEE, 54
_ZTSN7sigslot17_connection_base1IiNS_15single_threadedEEE:
	.string	"N7sigslot17_connection_base1IiNS_15single_threadedEEE"
	.weak	_ZTSN7sigslot12_connection1I11PathBrowseriNS_15single_threadedEEE
	.section	.rodata._ZTSN7sigslot12_connection1I11PathBrowseriNS_15single_threadedEEE,"aG",@progbits,_ZTSN7sigslot12_connection1I11PathBrowseriNS_15single_threadedEEE,comdat
	.align 2
	.type	_ZTSN7sigslot12_connection1I11PathBrowseriNS_15single_threadedEEE, @object
	.size	_ZTSN7sigslot12_connection1I11PathBrowseriNS_15single_threadedEEE, 62
_ZTSN7sigslot12_connection1I11PathBrowseriNS_15single_threadedEEE:
	.string	"N7sigslot12_connection1I11PathBrowseriNS_15single_threadedEEE"
	.weak	_ZTSN7sigslot17_connection_base3IP9GuiButtoniRK6_POINTNS_15single_threadedEEE
	.section	.rodata._ZTSN7sigslot17_connection_base3IP9GuiButtoniRK6_POINTNS_15single_threadedEEE,"aG",@progbits,_ZTSN7sigslot17_connection_base3IP9GuiButtoniRK6_POINTNS_15single_threadedEEE,comdat
	.align 2
	.type	_ZTSN7sigslot17_connection_base3IP9GuiButtoniRK6_POINTNS_15single_threadedEEE, @object
	.size	_ZTSN7sigslot17_connection_base3IP9GuiButtoniRK6_POINTNS_15single_threadedEEE, 74
_ZTSN7sigslot17_connection_base3IP9GuiButtoniRK6_POINTNS_15single_threadedEEE:
	.string	"N7sigslot17_connection_base3IP9GuiButtoniRK6_POINTNS_15single_threadedEEE"
	.weak	_ZTSN7sigslot12_connection3I11PathBrowserP9GuiButtoniRK6_POINTNS_15single_threadedEEE
	.section	.rodata._ZTSN7sigslot12_connection3I11PathBrowserP9GuiButtoniRK6_POINTNS_15single_threadedEEE,"aG",@progbits,_ZTSN7sigslot12_connection3I11PathBrowserP9GuiButtoniRK6_POINTNS_15single_threadedEEE,comdat
	.align 2
	.type	_ZTSN7sigslot12_connection3I11PathBrowserP9GuiButtoniRK6_POINTNS_15single_threadedEEE, @object
	.size	_ZTSN7sigslot12_connection3I11PathBrowserP9GuiButtoniRK6_POINTNS_15single_threadedEEE, 82
_ZTSN7sigslot12_connection3I11PathBrowserP9GuiButtoniRK6_POINTNS_15single_threadedEEE:
	.string	"N7sigslot12_connection3I11PathBrowserP9GuiButtoniRK6_POINTNS_15single_threadedEEE"
	.weak	_ZN7sigslot15single_threadedD1Ev
	.set	_ZN7sigslot15single_threadedD1Ev,_ZN7sigslot15single_threadedD2Ev
	.weak	_ZN7sigslot12_signal_baseINS_15single_threadedEED1Ev
	.set	_ZN7sigslot12_signal_baseINS_15single_threadedEED1Ev,_ZN7sigslot12_signal_baseINS_15single_threadedEED2Ev
	.weak	_ZN7sigslot17_connection_base3IP9GuiButtoniRK6_POINTNS_15single_threadedEED1Ev
	.set	_ZN7sigslot17_connection_base3IP9GuiButtoniRK6_POINTNS_15single_threadedEED1Ev,_ZN7sigslot17_connection_base3IP9GuiButtoniRK6_POINTNS_15single_threadedEED2Ev
	.weak	_ZN7sigslot17_connection_base1IiNS_15single_threadedEED1Ev
	.set	_ZN7sigslot17_connection_base1IiNS_15single_threadedEED1Ev,_ZN7sigslot17_connection_base1IiNS_15single_threadedEED2Ev
	.weak	_ZN7sigslot12_connection1I11PathBrowseriNS_15single_threadedEED1Ev
	.set	_ZN7sigslot12_connection1I11PathBrowseriNS_15single_threadedEED1Ev,_ZN7sigslot12_connection1I11PathBrowseriNS_15single_threadedEED2Ev
	.weak	_ZN7sigslot12_connection3I11PathBrowserP9GuiButtoniRK6_POINTNS_15single_threadedEED1Ev
	.set	_ZN7sigslot12_connection3I11PathBrowserP9GuiButtoniRK6_POINTNS_15single_threadedEED1Ev,_ZN7sigslot12_connection3I11PathBrowserP9GuiButtoniRK6_POINTNS_15single_threadedEED2Ev
	.weak	_ZN7sigslot9has_slotsINS_15single_threadedEED1Ev
	.set	_ZN7sigslot9has_slotsINS_15single_threadedEED1Ev,_ZN7sigslot9has_slotsINS_15single_threadedEED2Ev
	.weak	_ZN7sigslot7signal4IP11PathBrowserhbRKSsNS_15single_threadedEED1Ev
	.set	_ZN7sigslot7signal4IP11PathBrowserhbRKSsNS_15single_threadedEED1Ev,_ZN7sigslot7signal4IP11PathBrowserhbRKSsNS_15single_threadedEED2Ev
	.globl _ZN11PathBrowserC1ERKSsh
	.set	_ZN11PathBrowserC1ERKSsh,_ZN11PathBrowserC2ERKSsh
	.globl _ZN11PathBrowserD1Ev
	.set	_ZN11PathBrowserD1Ev,_ZN11PathBrowserD2Ev
	.set	.LTHUNK0,_ZN11PathBrowserD1Ev
	.set	.LTHUNK1,_ZN11PathBrowserD0Ev
	.weak	_ZN7sigslot13_signal_base4IP11PathBrowserhbRKSsNS_15single_threadedEED1Ev
	.set	_ZN7sigslot13_signal_base4IP11PathBrowserhbRKSsNS_15single_threadedEED1Ev,_ZN7sigslot13_signal_base4IP11PathBrowserhbRKSsNS_15single_threadedEED2Ev
	.section	.rodata
	.align 2
	.set	.LANCHOR0,. + 0
	.type	_ZL10DeviceName, @object
	.size	_ZL10DeviceName, 66
_ZL10DeviceName:
	.string	"sd"
	.zero	3
	.string	"usb1"
	.zero	1
	.string	"usb2"
	.zero	1
	.string	"usb3"
	.zero	1
	.string	"usb4"
	.zero	1
	.string	"usb5"
	.zero	1
	.string	"usb6"
	.zero	1
	.string	"usb7"
	.zero	1
	.string	"usb8"
	.zero	1
	.string	"usb9"
	.zero	1
	.string	"usb10"
	.section	.rodata.cst4,"aM",@progbits,4
	.align 2
.LC1:
	.4byte	1501560836
.LC2:
	.4byte	1132396544
.LC3:
	.4byte	1056964608
.LC21:
	.4byte	1059766403
	.section	.rodata.cst8,"aM",@progbits,8
	.align 3
.LC22:
	.4byte	1071994896
	.4byte	1649267442
	.section	.rodata.str1.4,"aMS",@progbits,1
	.align 2
.LC4:
	.string	"%s"
	.zero	1
.LC5:
	.string	"Can't browse that path."
.LC6:
	.string	"Download/Update Languages Files to:"
.LC7:
	.string	"All Files"
	.zero	2
.LC8:
	.string	"Installed Files"
.LC9:
	.string	"Select Files"
	.zero	3
.LC10:
	.string	"Cancel"
	.zero	1
.LC11:
	.string	"No Language File found"
	.zero	1
.LC12:
	.string	"Download"
	.zero	3
.LC13:
	.string	"%s:/"
	.zero	3
.LC14:
	.string	"button_click.wav"
	.zero	3
.LC15:
	.string	"button_over.wav"
.LC16:
	.string	"browser_select.png"
	.zero	1
.LC17:
	.string	"browser_select_button_box.png"
	.zero	2
.LC18:
	.string	"storage_sd.png"
	.zero	1
.LC19:
	.string	"storage_usb.png"
.LC20:
	.string	"icon_brows_folder.png"
	.zero	2
.LC23:
	.string	"button_close.png"
	.zero	3
.LC24:
	.string	"button_close_over.png"
	.zero	2
.LC25:
	.string	"button_wifi.png"
.LC26:
	.string	"button_wifi_over.png"
	.zero	3
.LC27:
	.string	"button_valid.png"
	.zero	3
.LC28:
	.string	"button_valid_over.png"
	.zero	2
.LC29:
	.string	"r=0 g=0 b=0 a=255 - select browser adress text color"
	.section	".text"
.Letext0:
	.file 18 "d:\\devkitpro\\devkitppc\\bin\\../lib/gcc/powerpc-eabi/4.6.3/../../../../powerpc-eabi/include/stdint.h"
	.file 19 "d:/devkitPro/libogc/include/gctypes.h"
	.file 20 "d:/devkitPro/libogc/include/ogc/gx.h"
	.file 21 "d:\\devkitpro\\devkitppc\\bin\\../lib/gcc/powerpc-eabi/4.6.3/../../../../powerpc-eabi/include/machine/_types.h"
	.file 22 "d:\\devkitpro\\devkitppc\\bin\\../lib/gcc/powerpc-eabi/4.6.3/../../../../powerpc-eabi/include/sys/lock.h"
	.file 23 "d:\\devkitpro\\devkitppc\\bin\\../lib/gcc/powerpc-eabi/4.6.3/include/stddef.h"
	.file 24 "d:\\devkitpro\\devkitppc\\bin\\../lib/gcc/powerpc-eabi/4.6.3/../../../../powerpc-eabi/include/sys/_types.h"
	.file 25 "d:\\devkitpro\\devkitppc\\bin\\../lib/gcc/powerpc-eabi/4.6.3/../../../../powerpc-eabi/include/sys/reent.h"
	.file 26 "d:\\devkitpro\\devkitppc\\bin\\../lib/gcc/powerpc-eabi/4.6.3/../../../../powerpc-eabi/include/time.h"
	.file 27 "<built-in>"
	.file 28 "d:\\devkitpro\\devkitppc\\bin\\../lib/gcc/powerpc-eabi/4.6.3/../../../../powerpc-eabi/include/stdio.h"
	.file 29 "d:\\devkitpro\\devkitppc\\bin\\../lib/gcc/powerpc-eabi/4.6.3/../../../../powerpc-eabi/include/wchar.h"
	.file 30 "d:\\devkitpro\\devkitppc\\bin\\../lib/gcc/powerpc-eabi/4.6.3/../../../../powerpc-eabi/include/c++/4.6.3/cwchar"
	.file 31 "d:\\devkitpro\\devkitppc\\bin\\../lib/gcc/powerpc-eabi/4.6.3/../../../../powerpc-eabi/include/c++/4.6.3/powerpc-eabi/bits/c++config.h"
	.file 32 "d:\\devkitpro\\devkitppc\\bin\\../lib/gcc/powerpc-eabi/4.6.3/../../../../powerpc-eabi/include/c++/4.6.3/clocale"
	.file 33 "d:\\devkitpro\\devkitppc\\bin\\../lib/gcc/powerpc-eabi/4.6.3/../../../../powerpc-eabi/include/c++/4.6.3/bits/stringfwd.h"
	.file 34 "d:\\devkitpro\\devkitppc\\bin\\../lib/gcc/powerpc-eabi/4.6.3/../../../../powerpc-eabi/include/c++/4.6.3/bits/stl_construct.h"
	.file 35 "d:\\devkitpro\\devkitppc\\bin\\../lib/gcc/powerpc-eabi/4.6.3/../../../../powerpc-eabi/include/c++/4.6.3/bits/move.h"
	.file 36 "d:\\devkitpro\\devkitppc\\bin\\../lib/gcc/powerpc-eabi/4.6.3/../../../../powerpc-eabi/include/c++/4.6.3/bits/stl_uninitialized.h"
	.file 37 "d:\\devkitpro\\devkitppc\\bin\\../lib/gcc/powerpc-eabi/4.6.3/../../../../powerpc-eabi/include/c++/4.6.3/bits/cpp_type_traits.h"
	.file 38 "d:\\devkitpro\\devkitppc\\bin\\../lib/gcc/powerpc-eabi/4.6.3/../../../../powerpc-eabi/include/c++/4.6.3/debug/debug.h"
	.file 39 "d:\\devkitpro\\devkitppc\\bin\\../lib/gcc/powerpc-eabi/4.6.3/../../../../powerpc-eabi/include/c++/4.6.3/bits/char_traits.h"
	.file 40 "d:\\devkitpro\\devkitppc\\bin\\../lib/gcc/powerpc-eabi/4.6.3/../../../../powerpc-eabi/include/c++/4.6.3/bits/allocator.h"
	.file 41 "d:\\devkitpro\\devkitppc\\bin\\../lib/gcc/powerpc-eabi/4.6.3/../../../../powerpc-eabi/include/locale.h"
	.file 42 "d:\\devkitpro\\devkitppc\\bin\\../lib/gcc/powerpc-eabi/4.6.3/../../../../powerpc-eabi/include/c++/4.6.3/powerpc-eabi/bits/atomic_word.h"
	.file 43 "d:\\devkitpro\\devkitppc\\bin\\../lib/gcc/powerpc-eabi/4.6.3/../../../../powerpc-eabi/include/c++/4.6.3/ext/numeric_traits.h"
	.file 44 "d:\\devkitpro\\devkitppc\\bin\\../lib/gcc/powerpc-eabi/4.6.3/../../../../powerpc-eabi/include/c++/4.6.3/bits/basic_string.tcc"
	.file 45 "d:\\devkitpro\\devkitppc\\bin\\../lib/gcc/powerpc-eabi/4.6.3/../../../../powerpc-eabi/include/c++/4.6.3/bits/stl_iterator_base_types.h"
	.file 46 "d:/Projects/SaveGameManager/savegame-manager-gx/trunk/source/Prompts/../GUI/../Settings/../FileOperations/FileExtensions.h"
	.file 47 "d:/Projects/SaveGameManager/savegame-manager-gx/trunk/source/Prompts/../GUI/../Settings/../Controls/AppControls.hpp"
	.file 48 "d:/Projects/SaveGameManager/savegame-manager-gx/trunk/source/Prompts/../GUI/../Settings/CSettings.h"
	.file 49 "d:/Projects/SaveGameManager/savegame-manager-gx/trunk/source/Prompts/../GUI/../Tools/Rect.h"
	.file 50 "d:/Projects/SaveGameManager/savegame-manager-gx/trunk/source/Prompts/../Files/filebrowser.h"
	.file 51 "d:\\devkitpro\\devkitppc\\bin\\../lib/gcc/powerpc-eabi/4.6.3/../../../../powerpc-eabi/include/c++/4.6.3/bits/stl_function.h"
	.file 52 "d:/Projects/SaveGameManager/savegame-manager-gx/trunk/source/Prompts/../GUI/gui_imagedata.h"
	.file 53 "d:/Projects/SaveGameManager/savegame-manager-gx/trunk/source/Prompts/../DeviceControls/DeviceHandler.hpp"
	.file 54 "d:\\devkitpro\\devkitppc\\bin\\../lib/gcc/powerpc-eabi/4.6.3/../../../../powerpc-eabi/include/c++/4.6.3/bits/stl_pair.h"
	.file 55 "d:/Projects/SaveGameManager/savegame-manager-gx/trunk/source/Prompts/PathBrowser.h"
	.file 56 "d:/Projects/SaveGameManager/savegame-manager-gx/trunk/source/Prompts/../Files/Browser.hpp"
	.file 57 "d:/Projects/SaveGameManager/savegame-manager-gx/trunk/source/Prompts/../Files/GuiFileBrowser.hpp"
	.file 58 "d:\\devkitpro\\devkitppc\\bin\\../lib/gcc/powerpc-eabi/4.6.3/../../../../powerpc-eabi/include/c++/4.6.3/new"