   1              		.file	"PathBrowser.cpp"
   2              		.section	".text"
   3              	.Ltext0:
   4              		.section	.text._ZN7sigslot15single_threadedD2Ev,"axG",@progbits,_ZN7sigslot15single_threadedD5Ev,c
   5              		.align 2
   6              		.weak	_ZN7sigslot15single_threadedD2Ev
   7              		.type	_ZN7sigslot15single_threadedD2Ev, @function
   8              	_ZN7sigslot15single_threadedD2Ev:
   9              	.LFB1148:
  10              		.file 1 "d:/Projects/SaveGameManager/savegame-manager-gx/trunk/source/Prompts/../GUI/../sigslot.h"
  11              		.loc 1 104 0
  12              		.cfi_startproc
  13              	.LVL0:
  14              	.LBB3369:
  15              		.loc 1 105 0
  16 0000 3D200000 		lis 9,_ZTVN7sigslot15single_threadedE+8@ha
  17              	.LBE3369:
  18              		.loc 1 107 0
  19              	.LBB3370:
  20              		.loc 1 105 0
  21 0004 38090008 		la 0,_ZTVN7sigslot15single_threadedE+8@l(9)
  22 0008 90030000 		stw 0,0(3)
  23              	.LBE3370:
  24              		.loc 1 107 0
  25 000c 4E800020 		blr
  26              		.cfi_endproc
  27              	.LFE1148:
  28              		.size	_ZN7sigslot15single_threadedD2Ev, .-_ZN7sigslot15single_threadedD2Ev
  29              		.section	.text._ZN7sigslot15single_threaded4lockEv,"axG",@progbits,_ZN7sigslot15single_threaded4lo
  30              		.align 2
  31              		.weak	_ZN7sigslot15single_threaded4lockEv
  32              		.type	_ZN7sigslot15single_threaded4lockEv, @function
  33              	_ZN7sigslot15single_threaded4lockEv:
  34              	.LFB1151:
  35              		.loc 1 109 0
  36              		.cfi_startproc
  37              	.LVL1:
  38              		.loc 1 112 0
  39 0000 4E800020 		blr
  40              		.cfi_endproc
  41              	.LFE1151:
  42              		.size	_ZN7sigslot15single_threaded4lockEv, .-_ZN7sigslot15single_threaded4lockEv
  43              		.section	.text._ZN7sigslot15single_threaded6unlockEv,"axG",@progbits,_ZN7sigslot15single_threaded6
  44              		.align 2
  45              		.weak	_ZN7sigslot15single_threaded6unlockEv
  46              		.type	_ZN7sigslot15single_threaded6unlockEv, @function
  47              	_ZN7sigslot15single_threaded6unlockEv:
  48              	.LFB1152:
  49              		.loc 1 114 0
  50              		.cfi_startproc
  51              	.LVL2:
  52              		.loc 1 117 0
  53 0000 4E800020 		blr
  54              		.cfi_endproc
  55              	.LFE1152:
  56              		.size	_ZN7sigslot15single_threaded6unlockEv, .-_ZN7sigslot15single_threaded6unlockEv
  57              		.section	.text._ZN10GuiElement9SetParentEPS_,"axG",@progbits,_ZN10GuiElement9SetParentEPS_,comdat
  58              		.align 2
  59              		.weak	_ZN10GuiElement9SetParentEPS_
  60              		.type	_ZN10GuiElement9SetParentEPS_, @function
  61              	_ZN10GuiElement9SetParentEPS_:
  62              	.LFB1384:
  63              		.file 2 "d:/Projects/SaveGameManager/savegame-manager-gx/trunk/source/Prompts/../GUI/gui_element.h
  64              		.loc 2 92 0
  65              		.cfi_startproc
  66              	.LVL3:
  67              		.loc 2 92 0
  68 0000 90830060 		stw 4,96(3)
  69 0004 4E800020 		blr
  70              		.cfi_endproc
  71              	.LFE1384:
  72              		.size	_ZN10GuiElement9SetParentEPS_, .-_ZN10GuiElement9SetParentEPS_
  73              		.section	.text._ZN10GuiElement9GetParentEv,"axG",@progbits,_ZN10GuiElement9GetParentEv,comdat
  74              		.align 2
  75              		.weak	_ZN10GuiElement9GetParentEv
  76              		.type	_ZN10GuiElement9GetParentEv, @function
  77              	_ZN10GuiElement9GetParentEv:
  78              	.LFB1385:
  79              		.loc 2 95 0
  80              		.cfi_startproc
  81              	.LVL4:
  82              		.loc 2 95 0
  83 0000 80630060 		lwz 3,96(3)
  84              	.LVL5:
  85 0004 4E800020 		blr
  86              		.cfi_endproc
  87              	.LFE1385:
  88              		.size	_ZN10GuiElement9GetParentEv, .-_ZN10GuiElement9GetParentEv
  89              		.section	.text._ZN10GuiElement12GetZPositionEv,"axG",@progbits,_ZN10GuiElement12GetZPositionEv,com
  90              		.align 2
  91              		.weak	_ZN10GuiElement12GetZPositionEv
  92              		.type	_ZN10GuiElement12GetZPositionEv, @function
  93              	_ZN10GuiElement12GetZPositionEv:
  94              	.LFB1386:
  95              		.loc 2 106 0
  96              		.cfi_startproc
  97              	.LVL6:
  98 0000 7C0802A6 		mflr 0
  99 0004 9421FFF0 		stwu 1,-16(1)
 100              	.LCFI0:
 101              		.cfi_def_cfa_offset 16
 102              		.cfi_register 65, 0
 103 0008 93E1000C 		stw 31,12(1)
 104 000c 7C7F1B78 		mr 31,3
 105              		.cfi_offset 31, -4
 106 0010 90010014 		stw 0,20(1)
 107              	.LBB3371:
 108              		.loc 2 110 0
 109 0014 81630060 		lwz 11,96(3)
 110              		.loc 2 108 0
 111 0018 38600000 		li 3,0
 112              	.LVL7:
 113              		.loc 2 110 0
 114 001c 2F8B0000 		cmpwi 7,11,0
 115 0020 419E0018 		beq- 7,.L8
 116              		.cfi_offset 65, 4
 117              		.loc 2 111 0
 118 0024 812B0000 		lwz 9,0(11)
 119 0028 7D635B78 		mr 3,11
 120 002c 80090018 		lwz 0,24(9)
 121 0030 7C0903A6 		mtctr 0
 122 0034 4E800421 		bctrl
 123              	.LVL8:
 124              	.L8:
 125              		.loc 2 113 0
 126 0038 801F0034 		lwz 0,52(31)
 127              	.LBE3371:
 128              		.loc 2 114 0
 129 003c 83E1000C 		lwz 31,12(1)
 130              	.LVL9:
 131 0040 7C630214 		add 3,3,0
 132              	.LVL10:
 133 0044 80010014 		lwz 0,20(1)
 134 0048 38210010 		addi 1,1,16
 135              	.LCFI1:
 136              		.cfi_def_cfa_offset 0
 137              		.cfi_restore 31
 138 004c 7C0803A6 		mtlr 0
 139 0050 4E800020 		blr
 140              		.cfi_endproc
 141              	.LFE1386:
 142              		.size	_ZN10GuiElement12GetZPositionEv, .-_ZN10GuiElement12GetZPositionEv
 143              		.section	.text._ZN10GuiElement10GetLeftPosEv,"axG",@progbits,_ZN10GuiElement10GetLeftPosEv,comdat
 144              		.align 2
 145              		.weak	_ZN10GuiElement10GetLeftPosEv
 146              		.type	_ZN10GuiElement10GetLeftPosEv, @function
 147              	_ZN10GuiElement10GetLeftPosEv:
 148              	.LFB1387:
 149              		.loc 2 116 0
 150              		.cfi_startproc
 151              	.LVL11:
 152              		.loc 2 116 0
 153 0000 8063002C 		lwz 3,44(3)
 154              	.LVL12:
 155 0004 4E800020 		blr
 156              		.cfi_endproc
 157              	.LFE1387:
 158              		.size	_ZN10GuiElement10GetLeftPosEv, .-_ZN10GuiElement10GetLeftPosEv
 159              		.section	.text._ZN10GuiElement9GetTopPosEv,"axG",@progbits,_ZN10GuiElement9GetTopPosEv,comdat
 160              		.align 2
 161              		.weak	_ZN10GuiElement9GetTopPosEv
 162              		.type	_ZN10GuiElement9GetTopPosEv, @function
 163              	_ZN10GuiElement9GetTopPosEv:
 164              	.LFB1388:
 165              		.loc 2 118 0
 166              		.cfi_startproc
 167              	.LVL13:
 168              		.loc 2 118 0
 169 0000 80630030 		lwz 3,48(3)
 170              	.LVL14:
 171 0004 4E800020 		blr
 172              		.cfi_endproc
 173              	.LFE1388:
 174              		.size	_ZN10GuiElement9GetTopPosEv, .-_ZN10GuiElement9GetTopPosEv
 175              		.section	.text._ZN10GuiElement8GetWidthEv,"axG",@progbits,_ZN10GuiElement8GetWidthEv,comdat
 176              		.align 2
 177              		.weak	_ZN10GuiElement8GetWidthEv
 178              		.type	_ZN10GuiElement8GetWidthEv, @function
 179              	_ZN10GuiElement8GetWidthEv:
 180              	.LFB1389:
 181              		.loc 2 121 0
 182              		.cfi_startproc
 183              	.LVL15:
 184              		.loc 2 121 0
 185 0000 80630024 		lwz 3,36(3)
 186              	.LVL16:
 187 0004 4E800020 		blr
 188              		.cfi_endproc
 189              	.LFE1389:
 190              		.size	_ZN10GuiElement8GetWidthEv, .-_ZN10GuiElement8GetWidthEv
 191              		.section	.text._ZN10GuiElement9GetHeightEv,"axG",@progbits,_ZN10GuiElement9GetHeightEv,comdat
 192              		.align 2
 193              		.weak	_ZN10GuiElement9GetHeightEv
 194              		.type	_ZN10GuiElement9GetHeightEv, @function
 195              	_ZN10GuiElement9GetHeightEv:
 196              	.LFB1390:
 197              		.loc 2 124 0
 198              		.cfi_startproc
 199              	.LVL17:
 200              		.loc 2 124 0
 201 0000 80630028 		lwz 3,40(3)
 202              	.LVL18:
 203 0004 4E800020 		blr
 204              		.cfi_endproc
 205              	.LFE1390:
 206              		.size	_ZN10GuiElement9GetHeightEv, .-_ZN10GuiElement9GetHeightEv
 207              		.section	.text._ZN10GuiElement7SetSizeEii,"axG",@progbits,_ZN10GuiElement7SetSizeEii,comdat
 208              		.align 2
 209              		.weak	_ZN10GuiElement7SetSizeEii
 210              		.type	_ZN10GuiElement7SetSizeEii, @function
 211              	_ZN10GuiElement7SetSizeEii:
 212              	.LFB1391:
 213              		.loc 2 128 0
 214              		.cfi_startproc
 215              	.LVL19:
 216              		.loc 2 130 0
 217 0000 90830024 		stw 4,36(3)
 218              		.loc 2 132 0
 219              		.loc 2 131 0
 220 0004 90A30028 		stw 5,40(3)
 221              		.loc 2 132 0
 222 0008 4E800020 		blr
 223              		.cfi_endproc
 224              	.LFE1391:
 225              		.size	_ZN10GuiElement7SetSizeEii, .-_ZN10GuiElement7SetSizeEii
 226              		.section	.text._ZN10GuiElement9IsVisibleEv,"axG",@progbits,_ZN10GuiElement9IsVisibleEv,comdat
 227              		.align 2
 228              		.weak	_ZN10GuiElement9IsVisibleEv
 229              		.type	_ZN10GuiElement9IsVisibleEv, @function
 230              	_ZN10GuiElement9IsVisibleEv:
 231              	.LFB1393:
 232              		.loc 2 142 0
 233              		.cfi_startproc
 234              	.LVL20:
 235              		.loc 2 142 0
 236 0000 8863001D 		lbz 3,29(3)
 237              	.LVL21:
 238 0004 4E800020 		blr
 239              		.cfi_endproc
 240              	.LFE1393:
 241              		.size	_ZN10GuiElement9IsVisibleEv, .-_ZN10GuiElement9IsVisibleEv
 242              		.section	.text._ZN10GuiElement12IsSelectableEv,"axG",@progbits,_ZN10GuiElement12IsSelectableEv,com
 243              		.align 2
 244              		.weak	_ZN10GuiElement12IsSelectableEv
 245              		.type	_ZN10GuiElement12IsSelectableEv, @function
 246              	_ZN10GuiElement12IsSelectableEv:
 247              	.LFB1394:
 248              		.loc 2 145 0
 249              		.cfi_startproc
 250              	.LVL22:
 251              		.loc 2 149 0
 252 0000 80030048 		lwz 0,72(3)
 253 0004 39200000 		li 9,0
 254 0008 2F800004 		cmpwi 7,0,4
 255 000c 419E0010 		beq- 7,.L18
 256              		.loc 2 149 0 is_stmt 0 discriminator 1
 257 0010 2F800002 		cmpwi 7,0,2
 258 0014 419E0008 		beq- 7,.L18
 259              		.loc 2 149 0 discriminator 3
 260 0018 8923001E 		lbz 9,30(3)
 261              	.L18:
 262              		.loc 2 150 0 is_stmt 1 discriminator 5
 263 001c 7D234B78 		mr 3,9
 264              	.LVL23:
 265 0020 4E800020 		blr
 266              		.cfi_endproc
 267              	.LFE1394:
 268              		.size	_ZN10GuiElement12IsSelectableEv, .-_ZN10GuiElement12IsSelectableEv
 269              		.section	.text._ZN10GuiElement11IsClickableEv,"axG",@progbits,_ZN10GuiElement11IsClickableEv,comda
 270              		.align 2
 271              		.weak	_ZN10GuiElement11IsClickableEv
 272              		.type	_ZN10GuiElement11IsClickableEv, @function
 273              	_ZN10GuiElement11IsClickableEv:
 274              	.LFB1395:
 275              		.loc 2 153 0
 276              		.cfi_startproc
 277              	.LVL24:
 278              		.loc 2 158 0
 279 0000 80030048 		lwz 0,72(3)
 280 0004 39200000 		li 9,0
 281 0008 2F800004 		cmpwi 7,0,4
 282 000c 419E0018 		beq- 7,.L22
 283              		.loc 2 158 0 is_stmt 0 discriminator 1
 284 0010 2F800002 		cmpwi 7,0,2
 285 0014 419E0010 		beq- 7,.L22
 286              		.loc 2 158 0 discriminator 3
 287 0018 2F800003 		cmpwi 7,0,3
 288 001c 419E0008 		beq- 7,.L22
 289              		.loc 2 158 0 discriminator 4
 290 0020 8923001F 		lbz 9,31(3)
 291              	.L22:
 292              		.loc 2 159 0 is_stmt 1 discriminator 6
 293 0024 7D234B78 		mr 3,9
 294              	.LVL25:
 295 0028 4E800020 		blr
 296              		.cfi_endproc
 297              	.LFE1395:
 298              		.size	_ZN10GuiElement11IsClickableEv, .-_ZN10GuiElement11IsClickableEv
 299              		.section	.text._ZN10GuiElement10IsHoldableEv,"axG",@progbits,_ZN10GuiElement10IsHoldableEv,comdat
 300              		.align 2
 301              		.weak	_ZN10GuiElement10IsHoldableEv
 302              		.type	_ZN10GuiElement10IsHoldableEv, @function
 303              	_ZN10GuiElement10IsHoldableEv:
 304              	.LFB1396:
 305              		.loc 2 162 0
 306              		.cfi_startproc
 307              	.LVL26:
 308              		.loc 2 162 0
 309 0000 81230048 		lwz 9,72(3)
 310 0004 38000000 		li 0,0
 311 0008 2F890004 		cmpwi 7,9,4
 312 000c 419E0008 		beq- 7,.L27
 313              		.loc 2 162 0 is_stmt 0 discriminator 1
 314 0010 88030020 		lbz 0,32(3)
 315              	.L27:
 316              		.loc 2 162 0 discriminator 4
 317 0014 7C030378 		mr 3,0
 318              	.LVL27:
 319 0018 4E800020 		blr
 320              		.cfi_endproc
 321              	.LFE1396:
 322              		.size	_ZN10GuiElement10IsHoldableEv, .-_ZN10GuiElement10IsHoldableEv
 323              		.section	.text._ZN10GuiElement13SetSelectableEb,"axG",@progbits,_ZN10GuiElement13SetSelectableEb,c
 324              		.align 2
 325              		.weak	_ZN10GuiElement13SetSelectableEb
 326              		.type	_ZN10GuiElement13SetSelectableEb, @function
 327              	_ZN10GuiElement13SetSelectableEb:
 328              	.LFB1397:
 329              		.loc 2 165 0 is_stmt 1
 330              		.cfi_startproc
 331              	.LVL28:
 332              		.loc 2 165 0
 333 0000 9883001E 		stb 4,30(3)
 334 0004 4E800020 		blr
 335              		.cfi_endproc
 336              	.LFE1397:
 337              		.size	_ZN10GuiElement13SetSelectableEb, .-_ZN10GuiElement13SetSelectableEb
 338              		.section	.text._ZN10GuiElement12SetClickableEb,"axG",@progbits,_ZN10GuiElement12SetClickableEb,com
 339              		.align 2
 340              		.weak	_ZN10GuiElement12SetClickableEb
 341              		.type	_ZN10GuiElement12SetClickableEb, @function
 342              	_ZN10GuiElement12SetClickableEb:
 343              	.LFB1398:
 344              		.loc 2 168 0
 345              		.cfi_startproc
 346              	.LVL29:
 347              		.loc 2 168 0
 348 0000 9883001F 		stb 4,31(3)
 349 0004 4E800020 		blr
 350              		.cfi_endproc
 351              	.LFE1398:
 352              		.size	_ZN10GuiElement12SetClickableEb, .-_ZN10GuiElement12SetClickableEb
 353              		.section	.text._ZN10GuiElement11SetHoldableEb,"axG",@progbits,_ZN10GuiElement11SetHoldableEb,comda
 354              		.align 2
 355              		.weak	_ZN10GuiElement11SetHoldableEb
 356              		.type	_ZN10GuiElement11SetHoldableEb, @function
 357              	_ZN10GuiElement11SetHoldableEb:
 358              	.LFB1399:
 359              		.loc 2 171 0
 360              		.cfi_startproc
 361              	.LVL30:
 362              		.loc 2 171 0
 363 0000 98830020 		stb 4,32(3)
 364 0004 4E800020 		blr
 365              		.cfi_endproc
 366              	.LFE1399:
 367              		.size	_ZN10GuiElement11SetHoldableEb, .-_ZN10GuiElement11SetHoldableEb
 368              		.section	.text._ZN10GuiElement8GetStateEv,"axG",@progbits,_ZN10GuiElement8GetStateEv,comdat
 369              		.align 2
 370              		.weak	_ZN10GuiElement8GetStateEv
 371              		.type	_ZN10GuiElement8GetStateEv, @function
 372              	_ZN10GuiElement8GetStateEv:
 373              	.LFB1400:
 374              		.loc 2 178 0
 375              		.cfi_startproc
 376              	.LVL31:
 377              		.loc 2 178 0
 378 0000 80630048 		lwz 3,72(3)
 379              	.LVL32:
 380 0004 4E800020 		blr
 381              		.cfi_endproc
 382              	.LFE1400:
 383              		.size	_ZN10GuiElement8GetStateEv, .-_ZN10GuiElement8GetStateEv
 384              		.section	.text._ZN10GuiElement12GetStateChanEv,"axG",@progbits,_ZN10GuiElement12GetStateChanEv,com
 385              		.align 2
 386              		.weak	_ZN10GuiElement12GetStateChanEv
 387              		.type	_ZN10GuiElement12GetStateChanEv, @function
 388              	_ZN10GuiElement12GetStateChanEv:
 389              	.LFB1401:
 390              		.loc 2 181 0
 391              		.cfi_startproc
 392              	.LVL33:
 393              		.loc 2 181 0
 394 0000 8063004C 		lwz 3,76(3)
 395              	.LVL34:
 396 0004 4E800020 		blr
 397              		.cfi_endproc
 398              	.LFE1401:
 399              		.size	_ZN10GuiElement12GetStateChanEv, .-_ZN10GuiElement12GetStateChanEv
 400              		.section	.text._ZN10GuiElement8SetAlphaEi,"axG",@progbits,_ZN10GuiElement8SetAlphaEi,comdat
 401              		.align 2
 402              		.weak	_ZN10GuiElement8SetAlphaEi
 403              		.type	_ZN10GuiElement8SetAlphaEi, @function
 404              	_ZN10GuiElement8SetAlphaEi:
 405              	.LFB1403:
 406              		.loc 2 190 0
 407              		.cfi_startproc
 408              	.LVL35:
 409              		.loc 2 190 0
 410 0000 90830038 		stw 4,56(3)
 411 0004 4E800020 		blr
 412              		.cfi_endproc
 413              	.LFE1403:
 414              		.size	_ZN10GuiElement8SetAlphaEi, .-_ZN10GuiElement8SetAlphaEi
 415              		.section	.text._ZN10GuiElement8GetAlphaEv,"axG",@progbits,_ZN10GuiElement8GetAlphaEv,comdat
 416              		.align 2
 417              		.weak	_ZN10GuiElement8GetAlphaEv
 418              		.type	_ZN10GuiElement8GetAlphaEv, @function
 419              	_ZN10GuiElement8GetAlphaEv:
 420              	.LFB1404:
 421              		.loc 2 194 0
 422              		.cfi_startproc
 423              	.LVL36:
 424 0000 7C0802A6 		mflr 0
 425 0004 9421FFD8 		stwu 1,-40(1)
 426              	.LCFI2:
 427              		.cfi_def_cfa_offset 40
 428              		.cfi_register 65, 0
 429 0008 93E10024 		stw 31,36(1)
 430 000c 9001002C 		stw 0,44(1)
 431              	.LBB3372:
 432              		.loc 2 198 0
 433 0010 83E3006C 		lwz 31,108(3)
 434              		.cfi_offset 65, 4
 435              		.cfi_offset 31, -4
 436 0014 2F9F0000 		cmpwi 7,31,0
 437 0018 419C0094 		blt- 7,.L38
 438              	.L36:
 439              	.LVL37:
 440              		.loc 2 203 0
 441 001c 80630060 		lwz 3,96(3)
 442              	.LVL38:
 443 0020 2F830000 		cmpwi 7,3,0
 444 0024 419E0070 		beq- 7,.L37
 445              		.loc 2 204 0
 446 0028 81230000 		lwz 9,0(3)
 447 002c 6FFF8000 		xoris 31,31,0x8000
 448              	.LVL39:
 449 0030 80090064 		lwz 0,100(9)
 450 0034 7C0903A6 		mtctr 0
 451 0038 4E800421 		bctrl
 452 003c 3C004330 		lis 0,0x4330
 453 0040 6C638000 		xoris 3,3,0x8000
 454 0044 90010010 		stw 0,16(1)
 455 0048 90610014 		stw 3,20(1)
 456 004c 3D200000 		lis 9,.LC1@ha
 457 0050 C0090000 		lfs 0,.LC1@l(9)
 458 0054 3D200000 		lis 9,.LC2@ha
 459 0058 C9A10010 		lfd 13,16(1)
 460 005c C1890004 		lfs 12,.LC2@l(9)
 461 0060 39210018 		addi 9,1,24
 462 0064 FDAD0028 		fsub 13,13,0
 463 0068 93E1000C 		stw 31,12(1)
 464 006c 90010008 		stw 0,8(1)
 465 0070 FDA06818 		frsp 13,13
 466 0074 EDAD6024 		fdivs 13,13,12
 467 0078 C9810008 		lfd 12,8(1)
 468 007c FC0C0028 		fsub 0,12,0
 469 0080 FC000018 		frsp 0,0
 470 0084 EC000372 		fmuls 0,0,13
 471 0088 FC00001E 		fctiwz 0,0
 472 008c 7C004FAE 		stfiwx 0,0,9
 473 0090 83E10018 		lwz 31,24(1)
 474              	.LVL40:
 475              	.L37:
 476              	.LBE3372:
 477              		.loc 2 207 0
 478 0094 8001002C 		lwz 0,44(1)
 479 0098 7FE3FB78 		mr 3,31
 480 009c 83E10024 		lwz 31,36(1)
 481              	.LVL41:
 482 00a0 7C0803A6 		mtlr 0
 483 00a4 38210028 		addi 1,1,40
 484              		.cfi_remember_state
 485              	.LCFI3:
 486              		.cfi_def_cfa_offset 0
 487              		.cfi_restore 31
 488 00a8 4E800020 		blr
 489              	.LVL42:
 490              	.L38:
 491              	.LCFI4:
 492              		.cfi_restore_state
 493              	.LBB3373:
 494              		.loc 2 201 0
 495 00ac 83E30038 		lwz 31,56(3)
 496              	.LVL43:
 497 00b0 4BFFFF6C 		b .L36
 498              	.LBE3373:
 499              		.cfi_endproc
 500              	.LFE1404:
 501              		.size	_ZN10GuiElement8GetAlphaEv, .-_ZN10GuiElement8GetAlphaEv
 502              		.section	.text._ZN10GuiElement8SetScaleEf,"axG",@progbits,_ZN10GuiElement8SetScaleEf,comdat
 503              		.align 2
 504              		.weak	_ZN10GuiElement8SetScaleEf
 505              		.type	_ZN10GuiElement8SetScaleEf, @function
 506              	_ZN10GuiElement8SetScaleEf:
 507              	.LFB1405:
 508              		.loc 2 210 0
 509              		.cfi_startproc
 510              	.LVL44:
 511              		.loc 2 212 0
 512 0000 D023003C 		stfs 1,60(3)
 513              		.loc 2 214 0
 514              		.loc 2 213 0
 515 0004 D0230040 		stfs 1,64(3)
 516              		.loc 2 214 0
 517 0008 4E800020 		blr
 518              		.cfi_endproc
 519              	.LFE1405:
 520              		.size	_ZN10GuiElement8SetScaleEf, .-_ZN10GuiElement8SetScaleEf
 521              		.section	.text._ZN10GuiElement9SetScaleXEf,"axG",@progbits,_ZN10GuiElement9SetScaleXEf,comdat
 522              		.align 2
 523              		.weak	_ZN10GuiElement9SetScaleXEf
 524              		.type	_ZN10GuiElement9SetScaleXEf, @function
 525              	_ZN10GuiElement9SetScaleXEf:
 526              	.LFB1406:
 527              		.loc 2 217 0
 528              		.cfi_startproc
 529              	.LVL45:
 530              		.loc 2 217 0
 531 0000 D023003C 		stfs 1,60(3)
 532 0004 4E800020 		blr
 533              		.cfi_endproc
 534              	.LFE1406:
 535              		.size	_ZN10GuiElement9SetScaleXEf, .-_ZN10GuiElement9SetScaleXEf
 536              		.section	.text._ZN10GuiElement9SetScaleYEf,"axG",@progbits,_ZN10GuiElement9SetScaleYEf,comdat
 537              		.align 2
 538              		.weak	_ZN10GuiElement9SetScaleYEf
 539              		.type	_ZN10GuiElement9SetScaleYEf, @function
 540              	_ZN10GuiElement9SetScaleYEf:
 541              	.LFB1407:
 542              		.loc 2 220 0
 543              		.cfi_startproc
 544              	.LVL46:
 545              		.loc 2 220 0
 546 0000 D0230040 		stfs 1,64(3)
 547 0004 4E800020 		blr
 548              		.cfi_endproc
 549              	.LFE1407:
 550              		.size	_ZN10GuiElement9SetScaleYEf, .-_ZN10GuiElement9SetScaleYEf
 551              		.section	.text._ZN10GuiElement8GetScaleEv,"axG",@progbits,_ZN10GuiElement8GetScaleEv,comdat
 552              		.align 2
 553              		.weak	_ZN10GuiElement8GetScaleEv
 554              		.type	_ZN10GuiElement8GetScaleEv, @function
 555              	_ZN10GuiElement8GetScaleEv:
 556              	.LFB1408:
 557              		.loc 2 223 0
 558              		.cfi_startproc
 559              	.LVL47:
 560 0000 7C0802A6 		mflr 0
 561 0004 9421FFF0 		stwu 1,-16(1)
 562              	.LCFI5:
 563              		.cfi_def_cfa_offset 16
 564              		.cfi_register 65, 0
 565              	.LBB3374:
 566              		.loc 2 225 0
 567 0008 3D200000 		lis 9,.LC3@ha
 568              	.LBE3374:
 569              		.loc 2 223 0
 570 000c DBE10008 		stfd 31,8(1)
 571 0010 90010014 		stw 0,20(1)
 572              	.LBB3375:
 573              		.loc 2 225 0
 574 0014 C0030040 		lfs 0,64(3)
 575 0018 C3E3003C 		lfs 31,60(3)
 576              		.cfi_offset 65, 4
 577              		.cfi_offset 63, -8
 578              		.loc 2 227 0
 579 001c 81630060 		lwz 11,96(3)
 580              		.loc 2 225 0
 581 0020 EFFF002A 		fadds 31,31,0
 582 0024 C0090008 		lfs 0,.LC3@l(9)
 583              		.loc 2 227 0
 584 0028 2F8B0000 		cmpwi 7,11,0
 585              		.loc 2 225 0
 586 002c EFFF0032 		fmuls 31,31,0
 587 0030 C0030070 		lfs 0,112(3)
 588 0034 EFFF0032 		fmuls 31,31,0
 589              	.LVL48:
 590              		.loc 2 227 0
 591 0038 419E001C 		beq- 7,.L43
 592              		.loc 2 228 0
 593 003c 812B0000 		lwz 9,0(11)
 594 0040 7D635B78 		mr 3,11
 595              	.LVL49:
 596 0044 80090074 		lwz 0,116(9)
 597 0048 7C0903A6 		mtctr 0
 598 004c 4E800421 		bctrl
 599 0050 EFFF0072 		fmuls 31,31,1
 600              	.LVL50:
 601              	.L43:
 602              	.LBE3375:
 603              		.loc 2 231 0
 604 0054 80010014 		lwz 0,20(1)
 605 0058 FC20F890 		fmr 1,31
 606 005c CBE10008 		lfd 31,8(1)
 607              	.LVL51:
 608 0060 7C0803A6 		mtlr 0
 609 0064 38210010 		addi 1,1,16
 610              	.LCFI6:
 611              		.cfi_def_cfa_offset 0
 612              		.cfi_restore 63
 613 0068 4E800020 		blr
 614              		.cfi_endproc
 615              	.LFE1408:
 616              		.size	_ZN10GuiElement8GetScaleEv, .-_ZN10GuiElement8GetScaleEv
 617              		.section	.text._ZN10GuiElement9GetScaleXEv,"axG",@progbits,_ZN10GuiElement9GetScaleXEv,comdat
 618              		.align 2
 619              		.weak	_ZN10GuiElement9GetScaleXEv
 620              		.type	_ZN10GuiElement9GetScaleXEv, @function
 621              	_ZN10GuiElement9GetScaleXEv:
 622              	.LFB1409:
 623              		.loc 2 234 0
 624              		.cfi_startproc
 625              	.LVL52:
 626 0000 7C0802A6 		mflr 0
 627 0004 9421FFF0 		stwu 1,-16(1)
 628              	.LCFI7:
 629              		.cfi_def_cfa_offset 16
 630              		.cfi_register 65, 0
 631 0008 DBE10008 		stfd 31,8(1)
 632 000c 90010014 		stw 0,20(1)
 633              	.LBB3376:
 634              		.loc 2 238 0
 635 0010 81630060 		lwz 11,96(3)
 636              		.loc 2 236 0
 637 0014 C3E3003C 		lfs 31,60(3)
 638              		.cfi_offset 65, 4
 639              		.cfi_offset 63, -8
 640              		.loc 2 238 0
 641 0018 2F8B0000 		cmpwi 7,11,0
 642              		.loc 2 236 0
 643 001c C0030070 		lfs 0,112(3)
 644 0020 EFFF0032 		fmuls 31,31,0
 645              	.LVL53:
 646              		.loc 2 238 0
 647 0024 419E001C 		beq- 7,.L45
 648              		.loc 2 239 0
 649 0028 812B0000 		lwz 9,0(11)
 650 002c 7D635B78 		mr 3,11
 651              	.LVL54:
 652 0030 80090078 		lwz 0,120(9)
 653 0034 7C0903A6 		mtctr 0
 654 0038 4E800421 		bctrl
 655 003c EFFF0072 		fmuls 31,31,1
 656              	.LVL55:
 657              	.L45:
 658              	.LBE3376:
 659              		.loc 2 242 0
 660 0040 80010014 		lwz 0,20(1)
 661 0044 FC20F890 		fmr 1,31
 662 0048 CBE10008 		lfd 31,8(1)
 663              	.LVL56:
 664 004c 7C0803A6 		mtlr 0
 665 0050 38210010 		addi 1,1,16
 666              	.LCFI8:
 667              		.cfi_def_cfa_offset 0
 668              		.cfi_restore 63
 669 0054 4E800020 		blr
 670              		.cfi_endproc
 671              	.LFE1409:
 672              		.size	_ZN10GuiElement9GetScaleXEv, .-_ZN10GuiElement9GetScaleXEv
 673              		.section	.text._ZN10GuiElement9GetScaleYEv,"axG",@progbits,_ZN10GuiElement9GetScaleYEv,comdat
 674              		.align 2
 675              		.weak	_ZN10GuiElement9GetScaleYEv
 676              		.type	_ZN10GuiElement9GetScaleYEv, @function
 677              	_ZN10GuiElement9GetScaleYEv:
 678              	.LFB1410:
 679              		.loc 2 245 0
 680              		.cfi_startproc
 681              	.LVL57:
 682 0000 7C0802A6 		mflr 0
 683 0004 9421FFF0 		stwu 1,-16(1)
 684              	.LCFI9:
 685              		.cfi_def_cfa_offset 16
 686              		.cfi_register 65, 0
 687 0008 DBE10008 		stfd 31,8(1)
 688 000c 90010014 		stw 0,20(1)
 689              	.LBB3377:
 690              		.loc 2 249 0
 691 0010 81630060 		lwz 11,96(3)
 692              		.loc 2 247 0
 693 0014 C3E30040 		lfs 31,64(3)
 694              		.cfi_offset 65, 4
 695              		.cfi_offset 63, -8
 696              		.loc 2 249 0
 697 0018 2F8B0000 		cmpwi 7,11,0
 698              		.loc 2 247 0
 699 001c C0030070 		lfs 0,112(3)
 700 0020 EFFF0032 		fmuls 31,31,0
 701              	.LVL58:
 702              		.loc 2 249 0
 703 0024 419E001C 		beq- 7,.L47
 704              		.loc 2 250 0
 705 0028 812B0000 		lwz 9,0(11)
 706 002c 7D635B78 		mr 3,11
 707              	.LVL59:
 708 0030 8009007C 		lwz 0,124(9)
 709 0034 7C0903A6 		mtctr 0
 710 0038 4E800421 		bctrl
 711 003c EFFF0072 		fmuls 31,31,1
 712              	.LVL60:
 713              	.L47:
 714              	.LBE3377:
 715              		.loc 2 253 0
 716 0040 80010014 		lwz 0,20(1)
 717 0044 FC20F890 		fmr 1,31
 718 0048 CBE10008 		lfd 31,8(1)
 719              	.LVL61:
 720 004c 7C0803A6 		mtlr 0
 721 0050 38210010 		addi 1,1,16
 722              	.LCFI10:
 723              		.cfi_def_cfa_offset 0
 724              		.cfi_restore 63
 725 0054 4E800020 		blr
 726              		.cfi_endproc
 727              	.LFE1410:
 728              		.size	_ZN10GuiElement9GetScaleYEv, .-_ZN10GuiElement9GetScaleYEv
 729              		.section	.text._ZN10GuiElement6RumbleEv,"axG",@progbits,_ZN10GuiElement6RumbleEv,comdat
 730              		.align 2
 731              		.weak	_ZN10GuiElement6RumbleEv
 732              		.type	_ZN10GuiElement6RumbleEv, @function
 733              	_ZN10GuiElement6RumbleEv:
 734              	.LFB1411:
 735              		.loc 2 256 0
 736              		.cfi_startproc
 737              	.LVL62:
 738              		.loc 2 256 0
 739 0000 8863001C 		lbz 3,28(3)
 740              	.LVL63:
 741 0004 4E800020 		blr
 742              		.cfi_endproc
 743              	.LFE1411:
 744              		.size	_ZN10GuiElement6RumbleEv, .-_ZN10GuiElement6RumbleEv
 745              		.section	.text._ZN10GuiElement9SetRumbleEb,"axG",@progbits,_ZN10GuiElement9SetRumbleEb,comdat
 746              		.align 2
 747              		.weak	_ZN10GuiElement9SetRumbleEb
 748              		.type	_ZN10GuiElement9SetRumbleEb, @function
 749              	_ZN10GuiElement9SetRumbleEb:
 750              	.LFB1412:
 751              		.loc 2 259 0
 752              		.cfi_startproc
 753              	.LVL64:
 754              		.loc 2 259 0
 755 0000 9883001C 		stb 4,28(3)
 756 0004 4E800020 		blr
 757              		.cfi_endproc
 758              	.LFE1412:
 759              		.size	_ZN10GuiElement9SetRumbleEb, .-_ZN10GuiElement9SetRumbleEb
 760              		.section	.text._ZN10GuiElement13SetEffectGrowEv,"axG",@progbits,_ZN10GuiElement13SetEffectGrowEv,c
 761              		.align 2
 762              		.weak	_ZN10GuiElement13SetEffectGrowEv
 763              		.type	_ZN10GuiElement13SetEffectGrowEv, @function
 764              	_ZN10GuiElement13SetEffectGrowEv:
 765              	.LFB1413:
 766              		.loc 2 271 0
 767              		.cfi_startproc
 768              	.LVL65:
 769 0000 7C0802A6 		mflr 0
 770 0004 9421FFF8 		stwu 1,-8(1)
 771              	.LCFI11:
 772              		.cfi_def_cfa_offset 8
 773              		.cfi_register 65, 0
 774 0008 81230000 		lwz 9,0(3)
 775 000c 38800100 		li 4,256
 776 0010 38A00004 		li 5,4
 777 0014 38C0006E 		li 6,110
 778 0018 9001000C 		stw 0,12(1)
 779              		.loc 2 271 0
 780 001c 8009008C 		lwz 0,140(9)
 781              		.cfi_offset 65, 4
 782 0020 7C0903A6 		mtctr 0
 783 0024 4E800421 		bctrl
 784              	.LVL66:
 785 0028 8001000C 		lwz 0,12(1)
 786 002c 38210008 		addi 1,1,8
 787              	.LCFI12:
 788              		.cfi_def_cfa_offset 0
 789 0030 7C0803A6 		mtlr 0
 790 0034 4E800020 		blr
 791              		.cfi_endproc
 792              	.LFE1413:
 793              		.size	_ZN10GuiElement13SetEffectGrowEv, .-_ZN10GuiElement13SetEffectGrowEv
 794              		.section	.text._ZNK10GuiElement9GetEffectEv,"axG",@progbits,_ZNK10GuiElement9GetEffectEv,comdat
 795              		.align 2
 796              		.weak	_ZNK10GuiElement9GetEffectEv
 797              		.type	_ZNK10GuiElement9GetEffectEv, @function
 798              	_ZNK10GuiElement9GetEffectEv:
 799              	.LFB1414:
 800              		.loc 2 276 0
 801              		.cfi_startproc
 802              	.LVL67:
 803              		.loc 2 276 0
 804 0000 80630078 		lwz 3,120(3)
 805              	.LVL68:
 806 0004 4E800020 		blr
 807              		.cfi_endproc
 808              	.LFE1414:
 809              		.size	_ZNK10GuiElement9GetEffectEv, .-_ZNK10GuiElement9GetEffectEv
 810              		.section	.text._ZNK10GuiElement10IsAnimatedEv,"axG",@progbits,_ZNK10GuiElement10IsAnimatedEv,comda
 811              		.align 2
 812              		.weak	_ZNK10GuiElement10IsAnimatedEv
 813              		.type	_ZNK10GuiElement10IsAnimatedEv, @function
 814              	_ZNK10GuiElement10IsAnimatedEv:
 815              	.LFB1415:
 816              		.loc 2 278 0
 817              		.cfi_startproc
 818              	.LVL69:
 819 0000 7C0802A6 		mflr 0
 820 0004 9421FFF8 		stwu 1,-8(1)
 821              	.LCFI13:
 822              		.cfi_def_cfa_offset 8
 823              		.cfi_register 65, 0
 824 0008 9001000C 		stw 0,12(1)
 825              		.loc 2 278 0
 826 000c 81230000 		lwz 9,0(3)
 827 0010 80090098 		lwz 0,152(9)
 828              		.cfi_offset 65, 4
 829 0014 7C0903A6 		mtctr 0
 830 0018 4E800421 		bctrl
 831              	.LVL70:
 832 001c 7C60FE70 		srawi 0,3,31
 833 0020 7C630050 		subf 3,3,0
 834 0024 8001000C 		lwz 0,12(1)
 835 0028 54630FFE 		srwi 3,3,31
 836 002c 7C0803A6 		mtlr 0
 837 0030 38210008 		addi 1,1,8
 838              	.LCFI14:
 839              		.cfi_def_cfa_offset 0
 840 0034 4E800020 		blr
 841              		.cfi_endproc
 842              	.LFE1415:
 843              		.size	_ZNK10GuiElement10IsAnimatedEv, .-_ZNK10GuiElement10IsAnimatedEv
 844              		.section	.text._ZN10GuiElement8IsInsideEii,"axG",@progbits,_ZN10GuiElement8IsInsideEii,comdat
 845              		.align 2
 846              		.weak	_ZN10GuiElement8IsInsideEii
 847              		.type	_ZN10GuiElement8IsInsideEii, @function
 848              	_ZN10GuiElement8IsInsideEii:
 849              	.LFB1417:
 850              		.loc 2 285 0
 851              		.cfi_startproc
 852              	.LVL71:
 853 0000 7C0802A6 		mflr 0
 854 0004 9421FFE8 		stwu 1,-24(1)
 855              	.LCFI15:
 856              		.cfi_def_cfa_offset 24
 857              		.cfi_register 65, 0
 858 0008 93810008 		stw 28,8(1)
 859 000c 7CBC2B78 		mr 28,5
 860              		.cfi_offset 28, -16
 861 0010 9001001C 		stw 0,28(1)
 862 0014 93A1000C 		stw 29,12(1)
 863              		.loc 2 290 0
 864 0018 3BA00000 		li 29,0
 865              		.cfi_offset 29, -12
 866              		.cfi_offset 65, 4
 867              		.loc 2 287 0
 868 001c 81230000 		lwz 9,0(3)
 869              		.loc 2 285 0
 870 0020 93C10010 		stw 30,16(1)
 871 0024 7C9E2378 		mr 30,4
 872              		.cfi_offset 30, -8
 873              		.loc 2 287 0
 874 0028 80090010 		lwz 0,16(9)
 875              		.loc 2 285 0
 876 002c 93E10014 		stw 31,20(1)
 877              		.loc 2 285 0
 878 0030 7C7F1B78 		mr 31,3
 879              		.cfi_offset 31, -4
 880              		.loc 2 287 0
 881 0034 7C0903A6 		mtctr 0
 882 0038 4E800421 		bctrl
 883              	.LVL72:
 884              		.loc 2 290 0
 885 003c 7F83F000 		cmpw 7,3,30
 886 0040 419C0028 		blt- 7,.L58
 887              	.L54:
 888              		.loc 2 291 0 discriminator 6
 889 0044 8001001C 		lwz 0,28(1)
 890 0048 7FA3EB78 		mr 3,29
 891 004c 83810008 		lwz 28,8(1)
 892              	.LVL73:
 893 0050 7C0803A6 		mtlr 0
 894 0054 83A1000C 		lwz 29,12(1)
 895 0058 83C10010 		lwz 30,16(1)
 896              	.LVL74:
 897 005c 83E10014 		lwz 31,20(1)
 898              	.LVL75:
 899 0060 38210018 		addi 1,1,24
 900              		.cfi_remember_state
 901              	.LCFI16:
 902              		.cfi_def_cfa_offset 0
 903              		.cfi_restore 31
 904              		.cfi_restore 30
 905              		.cfi_restore 29
 906              		.cfi_restore 28
 907 0064 4E800020 		blr
 908              	.LVL76:
 909              	.L58:
 910              	.LCFI17:
 911              		.cfi_restore_state
 912              		.loc 2 288 0 discriminator 1
 913 0068 813F0000 		lwz 9,0(31)
 914 006c 7FE3FB78 		mr 3,31
 915 0070 80090010 		lwz 0,16(9)
 916 0074 7C0903A6 		mtctr 0
 917 0078 4E800421 		bctrl
 918              		.loc 2 290 0 discriminator 1
 919 007c 801F0024 		lwz 0,36(31)
 920 0080 7C030214 		add 0,3,0
 921 0084 7F9E0000 		cmpw 7,30,0
 922 0088 409CFFBC 		bge+ 7,.L54
 923              		.loc 2 289 0 discriminator 3
 924 008c 813F0000 		lwz 9,0(31)
 925 0090 7FE3FB78 		mr 3,31
 926 0094 80090014 		lwz 0,20(9)
 927 0098 7C0903A6 		mtctr 0
 928 009c 4E800421 		bctrl
 929              		.loc 2 290 0 discriminator 3
 930 00a0 7F83E000 		cmpw 7,3,28
 931 00a4 409CFFA0 		bge+ 7,.L54
 932              		.loc 2 290 0 is_stmt 0 discriminator 4
 933 00a8 813F0000 		lwz 9,0(31)
 934 00ac 7FE3FB78 		mr 3,31
 935 00b0 80090014 		lwz 0,20(9)
 936 00b4 7C0903A6 		mtctr 0
 937 00b8 4E800421 		bctrl
 938 00bc 801F0028 		lwz 0,40(31)
 939 00c0 7C030214 		add 0,3,0
 940              		.loc 2 285 0 is_stmt 1 discriminator 4
 941 00c4 7F9C0000 		cmpw 7,28,0
 942 00c8 7FA00026 		mfcr 29
 943 00cc 57BDEFFE 		rlwinm 29,29,29,1
 944 00d0 4BFFFF74 		b .L54
 945              		.cfi_endproc
 946              	.LFE1417:
 947              		.size	_ZN10GuiElement8IsInsideEii, .-_ZN10GuiElement8IsInsideEii
 948              		.section	.text._ZN10GuiElement11SetPositionEii,"axG",@progbits,_ZN10GuiElement11SetPositionEii,com
 949              		.align 2
 950              		.weak	_ZN10GuiElement11SetPositionEii
 951              		.type	_ZN10GuiElement11SetPositionEii, @function
 952              	_ZN10GuiElement11SetPositionEii:
 953              	.LFB1418:
 954              		.loc 2 295 0
 955              		.cfi_startproc
 956              	.LVL77:
 957              		.loc 2 297 0
 958 0000 9083002C 		stw 4,44(3)
 959              		.loc 2 299 0
 960              		.loc 2 298 0
 961 0004 90A30030 		stw 5,48(3)
 962              		.loc 2 299 0
 963 0008 4E800020 		blr
 964              		.cfi_endproc
 965              	.LFE1418:
 966              		.size	_ZN10GuiElement11SetPositionEii, .-_ZN10GuiElement11SetPositionEii
 967              		.section	.text._ZN10GuiElement11SetPositionEiii,"axG",@progbits,_ZN10GuiElement11SetPositionEiii,c
 968              		.align 2
 969              		.weak	_ZN10GuiElement11SetPositionEiii
 970              		.type	_ZN10GuiElement11SetPositionEiii, @function
 971              	_ZN10GuiElement11SetPositionEiii:
 972              	.LFB1419:
 973              		.loc 2 304 0
 974              		.cfi_startproc
 975              	.LVL78:
 976              		.loc 2 306 0
 977 0000 9083002C 		stw 4,44(3)
 978              		.loc 2 309 0
 979              		.loc 2 307 0
 980 0004 90A30030 		stw 5,48(3)
 981              		.loc 2 308 0
 982 0008 90C30034 		stw 6,52(3)
 983              		.loc 2 309 0
 984 000c 4E800020 		blr
 985              		.cfi_endproc
 986              	.LFE1419:
 987              		.size	_ZN10GuiElement11SetPositionEiii, .-_ZN10GuiElement11SetPositionEiii
 988              		.section	.text._ZN10GuiElement12SetAlignmentEi,"axG",@progbits,_ZN10GuiElement12SetAlignmentEi,com
 989              		.align 2
 990              		.weak	_ZN10GuiElement12SetAlignmentEi
 991              		.type	_ZN10GuiElement12SetAlignmentEi, @function
 992              	_ZN10GuiElement12SetAlignmentEi:
 993              	.LFB1421:
 994              		.loc 2 316 0
 995              		.cfi_startproc
 996              	.LVL79:
 997              		.loc 2 316 0
 998 0000 90830044 		stw 4,68(3)
 999 0004 4E800020 		blr
 1000              		.cfi_endproc
 1001              	.LFE1421:
 1002              		.size	_ZN10GuiElement12SetAlignmentEi, .-_ZN10GuiElement12SetAlignmentEi
 1003              		.section	.text._ZNK10GuiElement12GetAlignmentEv,"axG",@progbits,_ZNK10GuiElement12GetAlignmentEv,c
 1004              		.align 2
 1005              		.weak	_ZNK10GuiElement12GetAlignmentEv
 1006              		.type	_ZNK10GuiElement12GetAlignmentEv, @function
 1007              	_ZNK10GuiElement12GetAlignmentEv:
 1008              	.LFB1422:
 1009              		.loc 2 318 0
 1010              		.cfi_startproc
 1011              	.LVL80:
 1012              		.loc 2 318 0
 1013 0000 80630044 		lwz 3,68(3)
 1014              	.LVL81:
 1015 0004 4E800020 		blr
 1016              		.cfi_endproc
 1017              	.LFE1422:
 1018              		.size	_ZNK10GuiElement12GetAlignmentEv, .-_ZNK10GuiElement12GetAlignmentEv
 1019              		.section	.text._ZN8GuiFrame4showEv,"axG",@progbits,_ZN8GuiFrame4showEv,comdat
 1020              		.align 2
 1021              		.weak	_ZN8GuiFrame4showEv
 1022              		.type	_ZN8GuiFrame4showEv, @function
 1023              	_ZN8GuiFrame4showEv:
 1024              	.LFB1431:
 1025              		.file 3 "d:/Projects/SaveGameManager/savegame-manager-gx/trunk/source/Prompts/../GUI/gui_frame.h"
 1026              		.loc 3 79 0
 1027              		.cfi_startproc
 1028              	.LVL82:
 1029              		.loc 3 79 0
 1030 0000 4E800020 		blr
 1031              		.cfi_endproc
 1032              	.LFE1431:
 1033              		.size	_ZN8GuiFrame4showEv, .-_ZN8GuiFrame4showEv
 1034              		.section	.text._ZN8GuiFrame4hideEv,"axG",@progbits,_ZN8GuiFrame4hideEv,comdat
 1035              		.align 2
 1036              		.weak	_ZN8GuiFrame4hideEv
 1037              		.type	_ZN8GuiFrame4hideEv, @function
 1038              	_ZN8GuiFrame4hideEv:
 1039              	.LFB1432:
 1040              		.loc 3 81 0
 1041              		.cfi_startproc
 1042              	.LVL83:
 1043              		.loc 3 81 0
 1044 0000 4E800020 		blr
 1045              		.cfi_endproc
 1046              	.LFE1432:
 1047              		.size	_ZN8GuiFrame4hideEv, .-_ZN8GuiFrame4hideEv
 1048              		.section	.text._ZN8GuiFrame4execEv,"axG",@progbits,_ZN8GuiFrame4execEv,comdat
 1049              		.align 2
 1050              		.weak	_ZN8GuiFrame4execEv
 1051              		.type	_ZN8GuiFrame4execEv, @function
 1052              	_ZN8GuiFrame4execEv:
 1053              	.LFB1433:
 1054              		.loc 3 83 0
 1055              		.cfi_startproc
 1056              	.LVL84:
 1057              		.loc 3 83 0
 1058 0000 4E800020 		blr
 1059              		.cfi_endproc
 1060              	.LFE1433:
 1061              		.size	_ZN8GuiFrame4execEv, .-_ZN8GuiFrame4execEv
 1062              		.section	.text._ZN8GuiFrame12updateEventsEv,"axG",@progbits,_ZN8GuiFrame12updateEventsEv,comdat
 1063              		.align 2
 1064              		.weak	_ZN8GuiFrame12updateEventsEv
 1065              		.type	_ZN8GuiFrame12updateEventsEv, @function
 1066              	_ZN8GuiFrame12updateEventsEv:
 1067              	.LFB1434:
 1068              		.loc 3 85 0
 1069              		.cfi_startproc
 1070              	.LVL85:
 1071              		.loc 3 85 0
 1072 0000 4E800020 		blr
 1073              		.cfi_endproc
 1074              	.LFE1434:
 1075              		.size	_ZN8GuiFrame12updateEventsEv, .-_ZN8GuiFrame12updateEventsEv
 1076              		.section	.text._ZN7sigslot12_signal_baseINS_15single_threadedEED2Ev,"axG",@progbits,_ZN7sigslot12_
 1077              		.align 2
 1078              		.weak	_ZN7sigslot12_signal_baseINS_15single_threadedEED2Ev
 1079              		.type	_ZN7sigslot12_signal_baseINS_15single_threadedEED2Ev, @function
 1080              	_ZN7sigslot12_signal_baseINS_15single_threadedEED2Ev:
 1081              	.LFB1801:
 1082              		.loc 1 466 0
 1083              		.cfi_startproc
 1084              	.LVL86:
 1085              	.LBB3378:
 1086              	.LBB3379:
 1087              	.LBB3380:
 1088              	.LBB3381:
 1089              		.loc 1 105 0
 1090 0000 3D200000 		lis 9,_ZTVN7sigslot15single_threadedE+8@ha
 1091              	.LBE3381:
 1092              	.LBE3380:
 1093              	.LBE3379:
 1094              	.LBE3378:
 1095              		.loc 1 466 0
 1096              	.LBB3385:
 1097              	.LBB3384:
 1098              	.LBB3383:
 1099              	.LBB3382:
 1100              		.loc 1 105 0
 1101 0004 38090008 		la 0,_ZTVN7sigslot15single_threadedE+8@l(9)
 1102 0008 90030000 		stw 0,0(3)
 1103              	.LBE3382:
 1104              	.LBE3383:
 1105              	.LBE3384:
 1106              	.LBE3385:
 1107              		.loc 1 466 0
 1108 000c 4E800020 		blr
 1109              		.cfi_endproc
 1110              	.LFE1801:
 1111              		.size	_ZN7sigslot12_signal_baseINS_15single_threadedEED2Ev, .-_ZN7sigslot12_signal_baseINS_15singl
 1112              		.section	.text._ZN7sigslot17_connection_base3IP9GuiButtoniRK6_POINTNS_15single_threadedEED2Ev,"axG
 1113              		.align 2
 1114              		.weak	_ZN7sigslot17_connection_base3IP9GuiButtoniRK6_POINTNS_15single_threadedEED2Ev
 1115              		.type	_ZN7sigslot17_connection_base3IP9GuiButtoniRK6_POINTNS_15single_threadedEED2Ev, @function
 1116              	_ZN7sigslot17_connection_base3IP9GuiButtoniRK6_POINTNS_15single_threadedEED2Ev:
 1117              	.LFB2029:
 1118              		.loc 1 387 0
 1119              		.cfi_startproc
 1120              	.LVL87:
 1121              	.LBB3386:
 1122              		.loc 1 387 0
 1123 0000 3D200000 		lis 9,_ZTVN7sigslot17_connection_base3IP9GuiButtoniRK6_POINTNS_15single_threadedEEE+8@ha
 1124              	.LBE3386:
 1125              	.LBB3387:
 1126 0004 38090008 		la 0,_ZTVN7sigslot17_connection_base3IP9GuiButtoniRK6_POINTNS_15single_threadedEEE+8@l(9)
 1127 0008 90030000 		stw 0,0(3)
 1128              	.LBE3387:
 1129 000c 4E800020 		blr
 1130              		.cfi_endproc
 1131              	.LFE2029:
 1132              		.size	_ZN7sigslot17_connection_base3IP9GuiButtoniRK6_POINTNS_15single_threadedEED2Ev, .-_ZN7sigslo
 1133              		.section	.text._ZN7sigslot17_connection_base1IiNS_15single_threadedEED2Ev,"axG",@progbits,_ZN7sigs
 1134              		.align 2
 1135              		.weak	_ZN7sigslot17_connection_base1IiNS_15single_threadedEED2Ev
 1136              		.type	_ZN7sigslot17_connection_base1IiNS_15single_threadedEED2Ev, @function
 1137              	_ZN7sigslot17_connection_base1IiNS_15single_threadedEED2Ev:
 1138              	.LFB2036:
 1139              		.loc 1 365 0
 1140              		.cfi_startproc
 1141              	.LVL88:
 1142              	.LBB3388:
 1143              		.loc 1 365 0
 1144 0000 3D200000 		lis 9,_ZTVN7sigslot17_connection_base1IiNS_15single_threadedEEE+8@ha
 1145              	.LBE3388:
 1146              	.LBB3389:
 1147 0004 38090008 		la 0,_ZTVN7sigslot17_connection_base1IiNS_15single_threadedEEE+8@l(9)
 1148 0008 90030000 		stw 0,0(3)
 1149              	.LBE3389:
 1150 000c 4E800020 		blr
 1151              		.cfi_endproc
 1152              	.LFE2036:
 1153              		.size	_ZN7sigslot17_connection_base1IiNS_15single_threadedEED2Ev, .-_ZN7sigslot17_connection_base1
 1154              		.section	.text._ZN7sigslot12_connection1I11PathBrowseriNS_15single_threadedEED2Ev,"axG",@progbits,
 1155              		.align 2
 1156              		.weak	_ZN7sigslot12_connection1I11PathBrowseriNS_15single_threadedEED2Ev
 1157              		.type	_ZN7sigslot12_connection1I11PathBrowseriNS_15single_threadedEED2Ev, @function
 1158              	_ZN7sigslot12_connection1I11PathBrowseriNS_15single_threadedEED2Ev:
 1159              	.LFB2433:
 1160              		.loc 1 1688 0
 1161              		.cfi_startproc
 1162              	.LVL89:
 1163              	.LBB3390:
 1164              	.LBB3391:
 1165              	.LBB3392:
 1166              	.LBB3393:
 1167              		.loc 1 365 0
 1168 0000 3D200000 		lis 9,_ZTVN7sigslot17_connection_base1IiNS_15single_threadedEEE+8@ha
 1169              	.LBE3393:
 1170              	.LBE3392:
 1171              	.LBE3391:
 1172              	.LBE3390:
 1173              		.loc 1 1691 0
 1174              	.LBB3397:
 1175              	.LBB3396:
 1176              	.LBB3395:
 1177              	.LBB3394:
 1178              		.loc 1 365 0
 1179 0004 38090008 		la 0,_ZTVN7sigslot17_connection_base1IiNS_15single_threadedEEE+8@l(9)
 1180 0008 90030000 		stw 0,0(3)
 1181              	.LBE3394:
 1182              	.LBE3395:
 1183              	.LBE3396:
 1184              	.LBE3397:
 1185              		.loc 1 1691 0
 1186 000c 4E800020 		blr
 1187              		.cfi_endproc
 1188              	.LFE2433:
 1189              		.size	_ZN7sigslot12_connection1I11PathBrowseriNS_15single_threadedEED2Ev, .-_ZN7sigslot12_connecti
 1190              		.section	.text._ZNK7sigslot12_connection1I11PathBrowseriNS_15single_threadedEE7getdestEv,"axG",@pr
 1191              		.align 2
 1192              		.weak	_ZNK7sigslot12_connection1I11PathBrowseriNS_15single_threadedEE7getdestEv
 1193              		.type	_ZNK7sigslot12_connection1I11PathBrowseriNS_15single_threadedEE7getdestEv, @function
 1194              	_ZNK7sigslot12_connection1I11PathBrowseriNS_15single_threadedEE7getdestEv:
 1195              	.LFB2436:
 1196              		.loc 1 1708 0
 1197              		.cfi_startproc
 1198              	.LVL90:
 1199              		.loc 1 1710 0
 1200 0000 81230004 		lwz 9,4(3)
 1201 0004 38600000 		li 3,0
 1202              	.LVL91:
 1203 0008 2F890000 		cmpwi 7,9,0
 1204 000c 4D9E0020 		beqlr- 7
 1205              		.loc 1 1710 0 is_stmt 0 discriminator 1
 1206 0010 386900B0 		addi 3,9,176
 1207              		.loc 1 1711 0 is_stmt 1 discriminator 1
 1208 0014 4E800020 		blr
 1209              		.cfi_endproc
 1210              	.LFE2436:
 1211              		.size	_ZNK7sigslot12_connection1I11PathBrowseriNS_15single_threadedEE7getdestEv, .-_ZNK7sigslot12_
 1212              		.section	.text._ZN7sigslot12_connection1I11PathBrowseriNS_15single_threadedEE4emitEi,"axG",@progbi
 1213              		.align 2
 1214              		.weak	_ZN7sigslot12_connection1I11PathBrowseriNS_15single_threadedEE4emitEi
 1215              		.type	_ZN7sigslot12_connection1I11PathBrowseriNS_15single_threadedEE4emitEi, @function
 1216              	_ZN7sigslot12_connection1I11PathBrowseriNS_15single_threadedEE4emitEi:
 1217              	.LFB2437:
 1218              		.loc 1 1703 0
 1219              		.cfi_startproc
 1220              	.LVL92:
 1221 0000 7C0802A6 		mflr 0
 1222 0004 9421FFF8 		stwu 1,-8(1)
 1223              	.LCFI18:
 1224              		.cfi_def_cfa_offset 8
 1225              		.cfi_register 65, 0
 1226 0008 9001000C 		stw 0,12(1)
 1227              		.loc 1 1705 0
 1228 000c 80030008 		lwz 0,8(3)
 1229              		.cfi_offset 65, 4
 1230 0010 81630004 		lwz 11,4(3)
 1231 0014 70090001 		andi. 9,0,1
 1232 0018 8123000C 		lwz 9,12(3)
 1233 001c 40820020 		bne- 0,.L81
 1234 0020 7C0903A6 		mtctr 0
 1235 0024 7C6B4A14 		add 3,11,9
 1236              	.LVL93:
 1237 0028 4E800421 		bctrl
 1238              	.LVL94:
 1239              		.loc 1 1706 0
 1240 002c 8001000C 		lwz 0,12(1)
 1241 0030 38210008 		addi 1,1,8
 1242              		.cfi_remember_state
 1243              	.LCFI19:
 1244              		.cfi_def_cfa_offset 0
 1245 0034 7C0803A6 		mtlr 0
 1246 0038 4E800020 		blr
 1247              	.LVL95:
 1248              	.L81:
 1249              	.LCFI20:
 1250              		.cfi_restore_state
 1251              		.loc 1 1705 0 discriminator 1
 1252 003c 7D4B482E 		lwzx 10,11,9
 1253 0040 7C6B4A14 		add 3,11,9
 1254              	.LVL96:
 1255 0044 7D2A0214 		add 9,10,0
 1256 0048 8009FFFF 		lwz 0,-1(9)
 1257 004c 7C0903A6 		mtctr 0
 1258 0050 4E800421 		bctrl
 1259              	.LVL97:
 1260              		.loc 1 1706 0 discriminator 1
 1261 0054 8001000C 		lwz 0,12(1)
 1262 0058 38210008 		addi 1,1,8
 1263              	.LCFI21:
 1264              		.cfi_def_cfa_offset 0
 1265 005c 7C0803A6 		mtlr 0
 1266 0060 4E800020 		blr
 1267              		.cfi_endproc
 1268              	.LFE2437:
 1269              		.size	_ZN7sigslot12_connection1I11PathBrowseriNS_15single_threadedEE4emitEi, .-_ZN7sigslot12_conne
 1270              		.section	.text._ZN7sigslot12_connection3I11PathBrowserP9GuiButtoniRK6_POINTNS_15single_threadedEED
 1271              		.align 2
 1272              		.weak	_ZN7sigslot12_connection3I11PathBrowserP9GuiButtoniRK6_POINTNS_15single_threadedEED2Ev
 1273              		.type	_ZN7sigslot12_connection3I11PathBrowserP9GuiButtoniRK6_POINTNS_15single_threadedEED2Ev, @fun
 1274              	_ZN7sigslot12_connection3I11PathBrowserP9GuiButtoniRK6_POINTNS_15single_threadedEED2Ev:
 1275              	.LFB2447:
 1276              		.loc 1 1783 0
 1277              		.cfi_startproc
 1278              	.LVL98:
 1279              	.LBB3398:
 1280              	.LBB3399:
 1281              	.LBB3400:
 1282              	.LBB3401:
 1283              		.loc 1 387 0
 1284 0000 3D200000 		lis 9,_ZTVN7sigslot17_connection_base3IP9GuiButtoniRK6_POINTNS_15single_threadedEEE+8@ha
 1285              	.LBE3401:
 1286              	.LBE3400:
 1287              	.LBE3399:
 1288              	.LBE3398:
 1289              		.loc 1 1786 0
 1290              	.LBB3405:
 1291              	.LBB3404:
 1292              	.LBB3403:
 1293              	.LBB3402:
 1294              		.loc 1 387 0
 1295 0004 38090008 		la 0,_ZTVN7sigslot17_connection_base3IP9GuiButtoniRK6_POINTNS_15single_threadedEEE+8@l(9)
 1296 0008 90030000 		stw 0,0(3)
 1297              	.LBE3402:
 1298              	.LBE3403:
 1299              	.LBE3404:
 1300              	.LBE3405:
 1301              		.loc 1 1786 0
 1302 000c 4E800020 		blr
 1303              		.cfi_endproc
 1304              	.LFE2447:
 1305              		.size	_ZN7sigslot12_connection3I11PathBrowserP9GuiButtoniRK6_POINTNS_15single_threadedEED2Ev, .-_Z
 1306              		.section	.text._ZNK7sigslot12_connection3I11PathBrowserP9GuiButtoniRK6_POINTNS_15single_threadedEE
 1307              		.align 2
 1308              		.weak	_ZNK7sigslot12_connection3I11PathBrowserP9GuiButtoniRK6_POINTNS_15single_threadedEE7getdestE
 1309              		.type	_ZNK7sigslot12_connection3I11PathBrowserP9GuiButtoniRK6_POINTNS_15single_threadedEE7getdestE
 1310              	_ZNK7sigslot12_connection3I11PathBrowserP9GuiButtoniRK6_POINTNS_15single_threadedEE7getdestEv:
 1311              	.LFB2450:
 1312              		.loc 1 1804 0
 1313              		.cfi_startproc
 1314              	.LVL99:
 1315              		.loc 1 1806 0
 1316 0000 81230004 		lwz 9,4(3)
 1317 0004 38600000 		li 3,0
 1318              	.LVL100:
 1319 0008 2F890000 		cmpwi 7,9,0
 1320 000c 4D9E0020 		beqlr- 7
 1321              		.loc 1 1806 0 is_stmt 0 discriminator 1
 1322 0010 386900B0 		addi 3,9,176
 1323              		.loc 1 1807 0 is_stmt 1 discriminator 1
 1324 0014 4E800020 		blr
 1325              		.cfi_endproc
 1326              	.LFE2450:
 1327              		.size	_ZNK7sigslot12_connection3I11PathBrowserP9GuiButtoniRK6_POINTNS_15single_threadedEE7getdestE
 1328              		.section	.text._ZN7sigslot12_connection3I11PathBrowserP9GuiButtoniRK6_POINTNS_15single_threadedEE4
 1329              		.align 2
 1330              		.weak	_ZN7sigslot12_connection3I11PathBrowserP9GuiButtoniRK6_POINTNS_15single_threadedEE4emitES3_i
 1331              		.type	_ZN7sigslot12_connection3I11PathBrowserP9GuiButtoniRK6_POINTNS_15single_threadedEE4emitES3_i
 1332              	_ZN7sigslot12_connection3I11PathBrowserP9GuiButtoniRK6_POINTNS_15single_threadedEE4emitES3_iS6_:
 1333              	.LFB2451:
 1334              		.loc 1 1799 0
 1335              		.cfi_startproc
 1336              	.LVL101:
 1337 0000 7C0802A6 		mflr 0
 1338 0004 9421FFF8 		stwu 1,-8(1)
 1339              	.LCFI22:
 1340              		.cfi_def_cfa_offset 8
 1341              		.cfi_register 65, 0
 1342 0008 9001000C 		stw 0,12(1)
 1343              		.loc 1 1801 0
 1344 000c 80030008 		lwz 0,8(3)
 1345              		.cfi_offset 65, 4
 1346 0010 81630004 		lwz 11,4(3)
 1347 0014 70090001 		andi. 9,0,1
 1348 0018 8123000C 		lwz 9,12(3)
 1349 001c 40820020 		bne- 0,.L90
 1350 0020 7C0903A6 		mtctr 0
 1351 0024 7C6B4A14 		add 3,11,9
 1352              	.LVL102:
 1353 0028 4E800421 		bctrl
 1354              	.LVL103:
 1355              		.loc 1 1802 0
 1356 002c 8001000C 		lwz 0,12(1)
 1357 0030 38210008 		addi 1,1,8
 1358              		.cfi_remember_state
 1359              	.LCFI23:
 1360              		.cfi_def_cfa_offset 0
 1361 0034 7C0803A6 		mtlr 0
 1362 0038 4E800020 		blr
 1363              	.LVL104:
 1364              	.L90:
 1365              	.LCFI24:
 1366              		.cfi_restore_state
 1367              		.loc 1 1801 0 discriminator 1
 1368 003c 7D4B482E 		lwzx 10,11,9
 1369 0040 7C6B4A14 		add 3,11,9
 1370              	.LVL105:
 1371 0044 7D2A0214 		add 9,10,0
 1372 0048 8009FFFF 		lwz 0,-1(9)
 1373 004c 7C0903A6 		mtctr 0
 1374 0050 4E800421 		bctrl
 1375              	.LVL106:
 1376              		.loc 1 1802 0 discriminator 1
 1377 0054 8001000C 		lwz 0,12(1)
 1378 0058 38210008 		addi 1,1,8
 1379              	.LCFI25:
 1380              		.cfi_def_cfa_offset 0
 1381 005c 7C0803A6 		mtlr 0
 1382 0060 4E800020 		blr
 1383              		.cfi_endproc
 1384              	.LFE2451:
 1385              		.size	_ZN7sigslot12_connection3I11PathBrowserP9GuiButtoniRK6_POINTNS_15single_threadedEE4emitES3_i
 1386              		.section	.text._ZN7sigslot12_connection3I11PathBrowserP9GuiButtoniRK6_POINTNS_15single_threadedEE9
 1387              		.align 2
 1388              		.weak	_ZN7sigslot12_connection3I11PathBrowserP9GuiButtoniRK6_POINTNS_15single_threadedEE9duplicate
 1389              		.type	_ZN7sigslot12_connection3I11PathBrowserP9GuiButtoniRK6_POINTNS_15single_threadedEE9duplicate
 1390              	_ZN7sigslot12_connection3I11PathBrowserP9GuiButtoniRK6_POINTNS_15single_threadedEE9duplicateEPNS_9h
 1391              	.LFB2459:
 1392              		.loc 1 1794 0
 1393              		.cfi_startproc
 1394              	.LVL107:
 1395 0000 9421FFF0 		stwu 1,-16(1)
 1396              	.LCFI26:
 1397              		.cfi_def_cfa_offset 16
 1398 0004 7C0802A6 		mflr 0
 1399 0008 93C10008 		stw 30,8(1)
 1400 000c 7C9E2378 		mr 30,4
 1401              		.cfi_offset 30, -8
 1402              		.cfi_register 65, 0
 1403 0010 93E1000C 		stw 31,12(1)
 1404 0014 7C7F1B78 		mr 31,3
 1405              		.cfi_offset 31, -4
 1406              		.loc 1 1796 0
 1407 0018 38600010 		li 3,16
 1408              	.LVL108:
 1409              		.loc 1 1794 0
 1410 001c 90010014 		stw 0,20(1)
 1411              		.loc 1 1796 0
 1412              		.cfi_offset 65, 4
 1413 0020 48000001 		bl _Znwj
 1414              	.LVL109:
 1415 0024 2F9E0000 		cmpwi 7,30,0
 1416 0028 38000000 		li 0,0
 1417 002c 419E0008 		beq- 7,.L93
 1418              		.loc 1 1796 0 is_stmt 0 discriminator 1
 1419 0030 381EFF50 		addi 0,30,-176
 1420              	.L93:
 1421              	.LVL110:
 1422              		.loc 1 1796 0 discriminator 3
 1423 0034 817F0008 		lwz 11,8(31)
 1424              	.LVL111:
 1425              	.LBB3406:
 1426              	.LBB3407:
 1427              		.loc 1 1778 0 is_stmt 1 discriminator 3
 1428 0038 3D400000 		lis 10,_ZTVN7sigslot12_connection3I11PathBrowserP9GuiButtoniRK6_POINTNS_15single_threadedEEE+8@ha
 1429              	.LBE3407:
 1430              	.LBE3406:
 1431              		.loc 1 1796 0 discriminator 3
 1432 003c 813F000C 		lwz 9,12(31)
 1433              	.LVL112:
 1434              	.LBB3410:
 1435              	.LBB3408:
 1436              		.loc 1 1778 0 discriminator 3
 1437 0040 394A0008 		la 10,_ZTVN7sigslot12_connection3I11PathBrowserP9GuiButtoniRK6_POINTNS_15single_threadedEEE+8@l(10
 1438              		.loc 1 1780 0 discriminator 3
 1439 0044 91630008 		stw 11,8(3)
 1440 0048 9123000C 		stw 9,12(3)
 1441              		.loc 1 1779 0 discriminator 3
 1442 004c 90030004 		stw 0,4(3)
 1443              	.LBE3408:
 1444              	.LBE3410:
 1445              		.loc 1 1797 0 discriminator 3
 1446 0050 80010014 		lwz 0,20(1)
 1447              	.LVL113:
 1448 0054 83C10008 		lwz 30,8(1)
 1449              	.LVL114:
 1450 0058 7C0803A6 		mtlr 0
 1451 005c 83E1000C 		lwz 31,12(1)
 1452              	.LVL115:
 1453              	.LBB3411:
 1454              	.LBB3409:
 1455              		.loc 1 1778 0 discriminator 3
 1456 0060 91430000 		stw 10,0(3)
 1457              	.LBE3409:
 1458              	.LBE3411:
 1459              		.loc 1 1797 0 discriminator 3
 1460 0064 38210010 		addi 1,1,16
 1461              	.LCFI27:
 1462              		.cfi_def_cfa_offset 0
 1463              		.cfi_restore 31
 1464              		.cfi_restore 30
 1465 0068 4E800020 		blr
 1466              		.cfi_endproc
 1467              	.LFE2459:
 1468              		.size	_ZN7sigslot12_connection3I11PathBrowserP9GuiButtoniRK6_POINTNS_15single_threadedEE9duplicate
 1469              		.section	.text._ZN7sigslot12_connection1I11PathBrowseriNS_15single_threadedEE9duplicateEPNS_9has_s
 1470              		.align 2
 1471              		.weak	_ZN7sigslot12_connection1I11PathBrowseriNS_15single_threadedEE9duplicateEPNS_9has_slotsIS2_E
 1472              		.type	_ZN7sigslot12_connection1I11PathBrowseriNS_15single_threadedEE9duplicateEPNS_9has_slotsIS2_E
 1473              	_ZN7sigslot12_connection1I11PathBrowseriNS_15single_threadedEE9duplicateEPNS_9has_slotsIS2_EE:
 1474              	.LFB2445:
 1475              		.loc 1 1698 0
 1476              		.cfi_startproc
 1477              	.LVL116:
 1478 0000 9421FFF0 		stwu 1,-16(1)
 1479              	.LCFI28:
 1480              		.cfi_def_cfa_offset 16
 1481 0004 7C0802A6 		mflr 0
 1482 0008 93C10008 		stw 30,8(1)
 1483 000c 7C9E2378 		mr 30,4
 1484              		.cfi_offset 30, -8
 1485              		.cfi_register 65, 0
 1486 0010 93E1000C 		stw 31,12(1)
 1487 0014 7C7F1B78 		mr 31,3
 1488              		.cfi_offset 31, -4
 1489              		.loc 1 1700 0
 1490 0018 38600010 		li 3,16
 1491              	.LVL117:
 1492              		.loc 1 1698 0
 1493 001c 90010014 		stw 0,20(1)
 1494              		.loc 1 1700 0
 1495              		.cfi_offset 65, 4
 1496 0020 48000001 		bl _Znwj
 1497              	.LVL118:
 1498 0024 2F9E0000 		cmpwi 7,30,0
 1499 0028 38000000 		li 0,0
 1500 002c 419E0008 		beq- 7,.L96
 1501              		.loc 1 1700 0 is_stmt 0 discriminator 1
 1502 0030 381EFF50 		addi 0,30,-176
 1503              	.L96:
 1504              	.LVL119:
 1505              		.loc 1 1700 0 discriminator 3
 1506 0034 817F0008 		lwz 11,8(31)
 1507              	.LVL120:
 1508              	.LBB3412:
 1509              	.LBB3413:
 1510              		.loc 1 1683 0 is_stmt 1 discriminator 3
 1511 0038 3D400000 		lis 10,_ZTVN7sigslot12_connection1I11PathBrowseriNS_15single_threadedEEE+8@ha
 1512              	.LBE3413:
 1513              	.LBE3412:
 1514              		.loc 1 1700 0 discriminator 3
 1515 003c 813F000C 		lwz 9,12(31)
 1516              	.LVL121:
 1517              	.LBB3416:
 1518              	.LBB3414:
 1519              		.loc 1 1683 0 discriminator 3
 1520 0040 394A0008 		la 10,_ZTVN7sigslot12_connection1I11PathBrowseriNS_15single_threadedEEE+8@l(10)
 1521              		.loc 1 1685 0 discriminator 3
 1522 0044 91630008 		stw 11,8(3)
 1523 0048 9123000C 		stw 9,12(3)
 1524              		.loc 1 1684 0 discriminator 3
 1525 004c 90030004 		stw 0,4(3)
 1526              	.LBE3414:
 1527              	.LBE3416:
 1528              		.loc 1 1701 0 discriminator 3
 1529 0050 80010014 		lwz 0,20(1)
 1530              	.LVL122:
 1531 0054 83C10008 		lwz 30,8(1)
 1532              	.LVL123:
 1533 0058 7C0803A6 		mtlr 0
 1534 005c 83E1000C 		lwz 31,12(1)
 1535              	.LVL124:
 1536              	.LBB3417:
 1537              	.LBB3415:
 1538              		.loc 1 1683 0 discriminator 3
 1539 0060 91430000 		stw 10,0(3)
 1540              	.LBE3415:
 1541              	.LBE3417:
 1542              		.loc 1 1701 0 discriminator 3
 1543 0064 38210010 		addi 1,1,16
 1544              	.LCFI29:
 1545              		.cfi_def_cfa_offset 0
 1546              		.cfi_restore 31
 1547              		.cfi_restore 30
 1548 0068 4E800020 		blr
 1549              		.cfi_endproc
 1550              	.LFE2445:
 1551              		.size	_ZN7sigslot12_connection1I11PathBrowseriNS_15single_threadedEE9duplicateEPNS_9has_slotsIS2_E
 1552              		.section	.text._ZN7sigslot12_connection1I11PathBrowseriNS_15single_threadedEE5cloneEv,"axG",@progb
 1553              		.align 2
 1554              		.weak	_ZN7sigslot12_connection1I11PathBrowseriNS_15single_threadedEE5cloneEv
 1555              		.type	_ZN7sigslot12_connection1I11PathBrowseriNS_15single_threadedEE5cloneEv, @function
 1556              	_ZN7sigslot12_connection1I11PathBrowseriNS_15single_threadedEE5cloneEv:
 1557              	.LFB2438:
 1558              		.loc 1 1693 0
 1559              		.cfi_startproc
 1560              	.LVL125:
 1561 0000 9421FFF0 		stwu 1,-16(1)
 1562              	.LCFI30:
 1563              		.cfi_def_cfa_offset 16
 1564 0004 7C0802A6 		mflr 0
 1565 0008 93E1000C 		stw 31,12(1)
 1566 000c 7C7F1B78 		mr 31,3
 1567              		.cfi_offset 31, -4
 1568              		.cfi_register 65, 0
 1569              		.loc 1 1695 0
 1570 0010 38600010 		li 3,16
 1571              	.LVL126:
 1572              		.loc 1 1693 0
 1573 0014 90010014 		stw 0,20(1)
 1574              		.loc 1 1695 0
 1575              		.cfi_offset 65, 4
 1576 0018 48000001 		bl _Znwj
 1577              		.file 4 "d:/Projects/SaveGameManager/savegame-manager-gx/trunk/source/Prompts/PathBrowser.cpp"
 1578              		.loc 4 285 0
 1579 001c 801F0004 		lwz 0,4(31)
 1580              	.LVL127:
 1581              	.LBB3418:
 1582              	.LBB3419:
 1583              		.loc 1 1673 0
 1584 0020 3D600000 		lis 11,_ZTVN7sigslot12_connection1I11PathBrowseriNS_15single_threadedEEE+8@ha
 1585 0024 396B0008 		la 11,_ZTVN7sigslot12_connection1I11PathBrowseriNS_15single_threadedEEE+8@l(11)
 1586 0028 90030004 		stw 0,4(3)
 1587 002c 91630000 		stw 11,0(3)
 1588 0030 815F0008 		lwz 10,8(31)
 1589 0034 817F000C 		lwz 11,12(31)
 1590 0038 91430008 		stw 10,8(3)
 1591 003c 9163000C 		stw 11,12(3)
 1592              	.LBE3419:
 1593              	.LBE3418:
 1594              		.loc 1 1696 0
 1595 0040 80010014 		lwz 0,20(1)
 1596 0044 83E1000C 		lwz 31,12(1)
 1597              	.LVL128:
 1598 0048 7C0803A6 		mtlr 0
 1599 004c 38210010 		addi 1,1,16
 1600              	.LCFI31:
 1601              		.cfi_def_cfa_offset 0
 1602              		.cfi_restore 31
 1603 0050 4E800020 		blr
 1604              		.cfi_endproc
 1605              	.LFE2438:
 1606              		.size	_ZN7sigslot12_connection1I11PathBrowseriNS_15single_threadedEE5cloneEv, .-_ZN7sigslot12_conn
 1607              		.section	.text._ZN7sigslot12_connection3I11PathBrowserP9GuiButtoniRK6_POINTNS_15single_threadedEE5
 1608              		.align 2
 1609              		.weak	_ZN7sigslot12_connection3I11PathBrowserP9GuiButtoniRK6_POINTNS_15single_threadedEE5cloneEv
 1610              		.type	_ZN7sigslot12_connection3I11PathBrowserP9GuiButtoniRK6_POINTNS_15single_threadedEE5cloneEv, 
 1611              	_ZN7sigslot12_connection3I11PathBrowserP9GuiButtoniRK6_POINTNS_15single_threadedEE5cloneEv:
 1612              	.LFB2452:
 1613              		.loc 1 1789 0
 1614              		.cfi_startproc
 1615              	.LVL129:
 1616 0000 9421FFF0 		stwu 1,-16(1)
 1617              	.LCFI32:
 1618              		.cfi_def_cfa_offset 16
 1619 0004 7C0802A6 		mflr 0
 1620 0008 93E1000C 		stw 31,12(1)
 1621 000c 7C7F1B78 		mr 31,3
 1622              		.cfi_offset 31, -4
 1623              		.cfi_register 65, 0
 1624              		.loc 1 1791 0
 1625 0010 38600010 		li 3,16
 1626              	.LVL130:
 1627              		.loc 1 1789 0
 1628 0014 90010014 		stw 0,20(1)
 1629              		.loc 1 1791 0
 1630              		.cfi_offset 65, 4
 1631 0018 48000001 		bl _Znwj
 1632              		.loc 4 285 0
 1633 001c 801F0004 		lwz 0,4(31)
 1634              	.LVL131:
 1635              	.LBB3420:
 1636              	.LBB3421:
 1637              		.loc 1 1767 0
 1638 0020 3D600000 		lis 11,_ZTVN7sigslot12_connection3I11PathBrowserP9GuiButtoniRK6_POINTNS_15single_threadedEEE+8@ha
 1639 0024 396B0008 		la 11,_ZTVN7sigslot12_connection3I11PathBrowserP9GuiButtoniRK6_POINTNS_15single_threadedEEE+8@l(11
 1640 0028 90030004 		stw 0,4(3)
 1641 002c 91630000 		stw 11,0(3)
 1642 0030 815F0008 		lwz 10,8(31)
 1643 0034 817F000C 		lwz 11,12(31)
 1644 0038 91430008 		stw 10,8(3)
 1645 003c 9163000C 		stw 11,12(3)
 1646              	.LBE3421:
 1647              	.LBE3420:
 1648              		.loc 1 1792 0
 1649 0040 80010014 		lwz 0,20(1)
 1650 0044 83E1000C 		lwz 31,12(1)
 1651              	.LVL132:
 1652 0048 7C0803A6 		mtlr 0
 1653 004c 38210010 		addi 1,1,16
 1654              	.LCFI33:
 1655              		.cfi_def_cfa_offset 0
 1656              		.cfi_restore 31
 1657 0050 4E800020 		blr
 1658              		.cfi_endproc
 1659              	.LFE2452:
 1660              		.size	_ZN7sigslot12_connection3I11PathBrowserP9GuiButtoniRK6_POINTNS_15single_threadedEE5cloneEv, 
 1661              		.section	.text._ZN7sigslot13_signal_base4IP11PathBrowserhbRKSsNS_15single_threadedEE14slot_duplica
 1662              		.align 2
 1663              		.weak	_ZN7sigslot13_signal_base4IP11PathBrowserhbRKSsNS_15single_threadedEE14slot_duplicateEPKNS_9
 1664              		.type	_ZN7sigslot13_signal_base4IP11PathBrowserhbRKSsNS_15single_threadedEE14slot_duplicateEPKNS_9
 1665              	_ZN7sigslot13_signal_base4IP11PathBrowserhbRKSsNS_15single_threadedEE14slot_duplicateEPKNS_9has_slo
 1666              	.LFB2461:
 1667              		.loc 1 1046 0
 1668              		.cfi_startproc
 1669              		.cfi_personality 0,__gxx_personality_v0
 1670              		.cfi_lsda 0,.LLSDA2461
 1671              	.LVL133:
 1672 0000 7C0802A6 		mflr 0
 1673 0004 9421FFE0 		stwu 1,-32(1)
 1674              	.LCFI34:
 1675              		.cfi_def_cfa_offset 32
 1676              		.cfi_register 65, 0
 1677 0008 93410008 		stw 26,8(1)
 1678 000c 7CBA2B78 		mr 26,5
 1679              		.cfi_offset 26, -24
 1680 0010 90010024 		stw 0,36(1)
 1681 0014 9361000C 		stw 27,12(1)
 1682 0018 7C7B1B78 		mr 27,3
 1683              		.cfi_offset 27, -20
 1684              		.cfi_offset 65, 4
 1685              	.LVL134:
 1686              	.LBB3422:
 1687              	.LBB3423:
 1688              	.LBB3424:
 1689              		.loc 1 338 0
 1690 001c 81230000 		lwz 9,0(3)
 1691              	.LBE3424:
 1692              	.LBE3423:
 1693              	.LBE3422:
 1694              		.loc 1 1046 0
 1695 0020 93A10014 		stw 29,20(1)
 1696 0024 7C9D2378 		mr 29,4
 1697              		.cfi_offset 29, -12
 1698              	.LBB3453:
 1699              	.LBB3429:
 1700              	.LBB3425:
 1701              		.loc 1 338 0
 1702 0028 80090008 		lwz 0,8(9)
 1703              	.LBE3425:
 1704              	.LBE3429:
 1705              	.LBE3453:
 1706              		.loc 1 1046 0
 1707 002c 93C10018 		stw 30,24(1)
 1708              	.LBB3454:
 1709              	.LBB3430:
 1710              	.LBB3426:
 1711              		.loc 4 285 0
 1712 0030 7F7EDB78 		mr 30,27
 1713              		.cfi_offset 30, -8
 1714              	.LBE3426:
 1715              	.LBE3430:
 1716              	.LBE3454:
 1717              		.loc 1 1046 0
 1718 0034 93E1001C 		stw 31,28(1)
 1719              	.LBB3455:
 1720              	.LBB3431:
 1721              	.LBB3427:
 1722              		.loc 1 338 0
 1723 0038 7C0903A6 		mtctr 0
 1724              	.LBE3427:
 1725              	.LBE3431:
 1726              	.LBE3455:
 1727              		.loc 1 1046 0
 1728 003c 93810010 		stw 28,16(1)
 1729              	.LEHB0:
 1730              	.LBB3456:
 1731              	.LBB3432:
 1732              	.LBB3428:
 1733              		.loc 1 338 0
 1734              		.cfi_offset 28, -16
 1735              		.cfi_offset 31, -4
 1736 0040 4E800421 		bctrl
 1737              	.LEHE0:
 1738              	.LVL135:
 1739              		.loc 4 285 0
 1740 0044 87FE0004 		lwzu 31,4(30)
 1741              	.LVL136:
 1742              	.LBE3428:
 1743              	.LBE3432:
 1744              		.loc 1 1052 0
 1745 0048 7F9FF000 		cmpw 7,31,30
 1746 004c 40BE0014 		bne+ 7,.L110
 1747 0050 48000070 		b .L101
 1748              	.LVL137:
 1749              	.L102:
 1750              	.LBB3433:
 1751              	.LBB3434:
 1752              		.file 5 "d:\\devkitpro\\devkitppc\\bin\\../lib/gcc/powerpc-eabi/4.6.3/../../../../powerpc-eabi/inc
 1753              		.loc 5 154 0
 1754 0054 83FF0000 		lwz 31,0(31)
 1755              	.LVL138:
 1756              	.LBE3434:
 1757              	.LBE3433:
 1758              		.loc 1 1052 0
 1759 0058 7F9EF800 		cmpw 7,30,31
 1760 005c 419E0064 		beq- 7,.L101
 1761              	.LVL139:
 1762              	.L110:
 1763              		.loc 1 1054 0
 1764 0060 807F0008 		lwz 3,8(31)
 1765 0064 81230000 		lwz 9,0(3)
 1766 0068 80090008 		lwz 0,8(9)
 1767 006c 7C0903A6 		mtctr 0
 1768              	.LEHB1:
 1769 0070 4E800421 		bctrl
 1770 0074 7F9D1800 		cmpw 7,29,3
 1771 0078 409EFFDC 		bne+ 7,.L102
 1772              	.LVL140:
 1773              		.loc 1 1056 0
 1774 007c 807F0008 		lwz 3,8(31)
 1775 0080 7F44D378 		mr 4,26
 1776 0084 81230000 		lwz 9,0(3)
 1777 0088 80090014 		lwz 0,20(9)
 1778 008c 7C0903A6 		mtctr 0
 1779 0090 4E800421 		bctrl
 1780 0094 7C7C1B78 		mr 28,3
 1781              	.LVL141:
 1782              	.LBB3436:
 1783              	.LBB3437:
 1784              	.LBB3438:
 1785              	.LBB3439:
 1786              	.LBB3440:
 1787              	.LBB3441:
 1788              	.LBB3442:
 1789              	.LBB3443:
 1790              		.file 6 "d:\\devkitpro\\devkitppc\\bin\\../lib/gcc/powerpc-eabi/4.6.3/../../../../powerpc-eabi/inc
 1791              		.loc 6 92 0
 1792 0098 3860000C 		li 3,12
 1793 009c 48000001 		bl _Znwj
 1794              	.LEHE1:
 1795              	.LVL142:
 1796              	.LBE3443:
 1797              	.LBE3442:
 1798              	.LBE3441:
 1799              	.LBB3444:
 1800              	.LBB3445:
 1801              		.loc 6 108 0 discriminator 1
 1802 00a0 2F83FFF8 		cmpwi 7,3,-8
 1803 00a4 419E0008 		beq- 7,.L104
 1804              		.loc 6 108 0 is_stmt 0
 1805 00a8 93830008 		stw 28,8(3)
 1806              	.L104:
 1807              	.LVL143:
 1808              	.LBE3445:
 1809              	.LBE3444:
 1810              	.LBE3440:
 1811              	.LBE3439:
 1812              		.loc 5 1516 0 is_stmt 1
 1813 00ac 7FC4F378 		mr 4,30
 1814 00b0 48000001 		bl _ZNSt8__detail15_List_node_base7_M_hookEPS0_
 1815              	.LVL144:
 1816              	.LBE3438:
 1817              	.LBE3437:
 1818              	.LBE3436:
 1819              	.LBB3446:
 1820              	.LBB3435:
 1821              		.loc 5 154 0
 1822 00b4 83FF0000 		lwz 31,0(31)
 1823              	.LVL145:
 1824              	.LBE3435:
 1825              	.LBE3446:
 1826              		.loc 1 1052 0
 1827 00b8 7F9EF800 		cmpw 7,30,31
 1828 00bc 409EFFA4 		bne+ 7,.L110
 1829              	.LVL146:
 1830              	.L101:
 1831              	.LBB3447:
 1832              	.LBB3448:
 1833              	.LBB3449:
 1834              		.loc 1 343 0
 1835 00c0 813B0000 		lwz 9,0(27)
 1836 00c4 7F63DB78 		mr 3,27
 1837 00c8 8009000C 		lwz 0,12(9)
 1838 00cc 7C0903A6 		mtctr 0
 1839              	.LEHB2:
 1840 00d0 4E800421 		bctrl
 1841              	.LEHE2:
 1842              	.LBE3449:
 1843              	.LBE3448:
 1844              	.LBE3447:
 1845              	.LBE3456:
 1846              		.loc 1 1061 0
 1847 00d4 80010024 		lwz 0,36(1)
 1848 00d8 83410008 		lwz 26,8(1)
 1849              	.LVL147:
 1850 00dc 7C0803A6 		mtlr 0
 1851 00e0 8361000C 		lwz 27,12(1)
 1852              	.LVL148:
 1853 00e4 83810010 		lwz 28,16(1)
 1854 00e8 83A10014 		lwz 29,20(1)
 1855              	.LVL149:
 1856 00ec 83C10018 		lwz 30,24(1)
 1857              	.LVL150:
 1858 00f0 83E1001C 		lwz 31,28(1)
 1859              	.LVL151:
 1860 00f4 38210020 		addi 1,1,32
 1861              		.cfi_remember_state
 1862              	.LCFI35:
 1863              		.cfi_def_cfa_offset 0
 1864              		.cfi_restore 31
 1865              		.cfi_restore 30
 1866              		.cfi_restore 29
 1867              		.cfi_restore 28
 1868              		.cfi_restore 27
 1869              		.cfi_restore 26
 1870 00f8 4E800020 		blr
 1871              	.LVL152:
 1872              	.L109:
 1873              	.LCFI36:
 1874              		.cfi_restore_state
 1875              	.LBB3457:
 1876              	.LBB3450:
 1877              	.LBB3451:
 1878              	.LBB3452:
 1879              		.loc 1 343 0
 1880 00fc 813B0000 		lwz 9,0(27)
 1881 0100 7C7F1B78 		mr 31,3
 1882              	.LVL153:
 1883 0104 7F63DB78 		mr 3,27
 1884 0108 8009000C 		lwz 0,12(9)
 1885 010c 7C0903A6 		mtctr 0
 1886 0110 4E800421 		bctrl
 1887 0114 7FE3FB78 		mr 3,31
 1888              	.LEHB3:
 1889 0118 48000001 		bl _Unwind_Resume
 1890              	.LEHE3:
 1891              	.LBE3452:
 1892              	.LBE3451:
 1893              	.LBE3450:
 1894              	.LBE3457:
 1895              		.cfi_endproc
 1896              	.LFE2461:
 1897              		.globl __gxx_personality_v0
 1898              		.section	.gcc_except_table,"a",@progbits
 1899              	.LLSDA2461:
 1900 0000 FF       		.byte	0xff
 1901 0001 FF       		.byte	0xff
 1902 0002 01       		.byte	0x1
 1903 0003 13       		.uleb128 .LLSDACSE2461-.LLSDACSB2461
 1904              	.LLSDACSB2461:
 1905 0004 40       		.uleb128 .LEHB0-.LFB2461
 1906 0005 04       		.uleb128 .LEHE0-.LEHB0
 1907 0006 00       		.uleb128 0
 1908 0007 00       		.uleb128 0
 1909 0008 70       		.uleb128 .LEHB1-.LFB2461
 1910 0009 30       		.uleb128 .LEHE1-.LEHB1
 1911 000a FC01     		.uleb128 .L109-.LFB2461
 1912 000c 00       		.uleb128 0
 1913 000d D001     		.uleb128 .LEHB2-.LFB2461
 1914 000f 04       		.uleb128 .LEHE2-.LEHB2
 1915 0010 00       		.uleb128 0
 1916 0011 00       		.uleb128 0
 1917 0012 9802     		.uleb128 .LEHB3-.LFB2461
 1918 0014 04       		.uleb128 .LEHE3-.LEHB3
 1919 0015 00       		.uleb128 0
 1920 0016 00       		.uleb128 0
 1921              	.LLSDACSE2461:
 1922              		.section	.text._ZN7sigslot13_signal_base4IP11PathBrowserhbRKSsNS_15single_threadedEE14slot_duplica
 1923              		.size	_ZN7sigslot13_signal_base4IP11PathBrowserhbRKSsNS_15single_threadedEE14slot_duplicateEPKNS_9
 1924              		.section	.text._ZN7sigslot12_connection3I11PathBrowserP9GuiButtoniRK6_POINTNS_15single_threadedEED
 1925              		.align 2
 1926              		.weak	_ZN7sigslot12_connection3I11PathBrowserP9GuiButtoniRK6_POINTNS_15single_threadedEED0Ev
 1927              		.type	_ZN7sigslot12_connection3I11PathBrowserP9GuiButtoniRK6_POINTNS_15single_threadedEED0Ev, @fun
 1928              	_ZN7sigslot12_connection3I11PathBrowserP9GuiButtoniRK6_POINTNS_15single_threadedEED0Ev:
 1929              	.LFB2449:
 1930              		.loc 1 1783 0
 1931              		.cfi_startproc
 1932              	.LVL154:
 1933 0000 7C0802A6 		mflr 0
 1934 0004 9421FFF8 		stwu 1,-8(1)
 1935              	.LCFI37:
 1936              		.cfi_def_cfa_offset 8
 1937              		.cfi_register 65, 0
 1938              	.LBB3458:
 1939              	.LBB3459:
 1940              	.LBB3460:
 1941              	.LBB3461:
 1942              	.LBB3462:
 1943              	.LBB3463:
 1944              		.loc 1 387 0
 1945 0008 3D200000 		lis 9,_ZTVN7sigslot17_connection_base3IP9GuiButtoniRK6_POINTNS_15single_threadedEEE+8@ha
 1946              	.LBE3463:
 1947              	.LBE3462:
 1948              	.LBE3461:
 1949              	.LBE3460:
 1950              	.LBE3459:
 1951              	.LBE3458:
 1952              		.loc 1 1783 0
 1953 000c 9001000C 		stw 0,12(1)
 1954              	.LBB3469:
 1955              	.LBB3468:
 1956              	.LBB3467:
 1957              	.LBB3466:
 1958              	.LBB3465:
 1959              	.LBB3464:
 1960              		.loc 1 387 0
 1961 0010 38090008 		la 0,_ZTVN7sigslot17_connection_base3IP9GuiButtoniRK6_POINTNS_15single_threadedEEE+8@l(9)
 1962              		.cfi_offset 65, 4
 1963 0014 90030000 		stw 0,0(3)
 1964              	.LBE3464:
 1965              	.LBE3465:
 1966              	.LBE3466:
 1967              	.LBE3467:
 1968              	.LBE3468:
 1969              	.LBE3469:
 1970              		.loc 1 1786 0
 1971 0018 48000001 		bl _ZdlPv
 1972              	.LVL155:
 1973 001c 8001000C 		lwz 0,12(1)
 1974 0020 38210008 		addi 1,1,8
 1975              	.LCFI38:
 1976              		.cfi_def_cfa_offset 0
 1977 0024 7C0803A6 		mtlr 0
 1978 0028 4E800020 		blr
 1979              		.cfi_endproc
 1980              	.LFE2449:
 1981              		.size	_ZN7sigslot12_connection3I11PathBrowserP9GuiButtoniRK6_POINTNS_15single_threadedEED0Ev, .-_Z
 1982              		.section	.text._ZN7sigslot12_connection1I11PathBrowseriNS_15single_threadedEED0Ev,"axG",@progbits,
 1983              		.align 2
 1984              		.weak	_ZN7sigslot12_connection1I11PathBrowseriNS_15single_threadedEED0Ev
 1985              		.type	_ZN7sigslot12_connection1I11PathBrowseriNS_15single_threadedEED0Ev, @function
 1986              	_ZN7sigslot12_connection1I11PathBrowseriNS_15single_threadedEED0Ev:
 1987              	.LFB2435:
 1988              		.loc 1 1688 0
 1989              		.cfi_startproc
 1990              	.LVL156:
 1991 0000 7C0802A6 		mflr 0
 1992 0004 9421FFF8 		stwu 1,-8(1)
 1993              	.LCFI39:
 1994              		.cfi_def_cfa_offset 8
 1995              		.cfi_register 65, 0
 1996              	.LBB3470:
 1997              	.LBB3471:
 1998              	.LBB3472:
 1999              	.LBB3473:
 2000              	.LBB3474:
 2001              	.LBB3475:
 2002              		.loc 1 365 0
 2003 0008 3D200000 		lis 9,_ZTVN7sigslot17_connection_base1IiNS_15single_threadedEEE+8@ha
 2004              	.LBE3475:
 2005              	.LBE3474:
 2006              	.LBE3473:
 2007              	.LBE3472:
 2008              	.LBE3471:
 2009              	.LBE3470:
 2010              		.loc 1 1688 0
 2011 000c 9001000C 		stw 0,12(1)
 2012              	.LBB3481:
 2013              	.LBB3480:
 2014              	.LBB3479:
 2015              	.LBB3478:
 2016              	.LBB3477:
 2017              	.LBB3476:
 2018              		.loc 1 365 0
 2019 0010 38090008 		la 0,_ZTVN7sigslot17_connection_base1IiNS_15single_threadedEEE+8@l(9)
 2020              		.cfi_offset 65, 4
 2021 0014 90030000 		stw 0,0(3)
 2022              	.LBE3476:
 2023              	.LBE3477:
 2024              	.LBE3478:
 2025              	.LBE3479:
 2026              	.LBE3480:
 2027              	.LBE3481:
 2028              		.loc 1 1691 0
 2029 0018 48000001 		bl _ZdlPv
 2030              	.LVL157:
 2031 001c 8001000C 		lwz 0,12(1)
 2032 0020 38210008 		addi 1,1,8
 2033              	.LCFI40:
 2034              		.cfi_def_cfa_offset 0
 2035 0024 7C0803A6 		mtlr 0
 2036 0028 4E800020 		blr
 2037              		.cfi_endproc
 2038              	.LFE2435:
 2039              		.size	_ZN7sigslot12_connection1I11PathBrowseriNS_15single_threadedEED0Ev, .-_ZN7sigslot12_connecti
 2040              		.section	.text._ZN7sigslot17_connection_base1IiNS_15single_threadedEED0Ev,"axG",@progbits,_ZN7sigs
 2041              		.align 2
 2042              		.weak	_ZN7sigslot17_connection_base1IiNS_15single_threadedEED0Ev
 2043              		.type	_ZN7sigslot17_connection_base1IiNS_15single_threadedEED0Ev, @function
 2044              	_ZN7sigslot17_connection_base1IiNS_15single_threadedEED0Ev:
 2045              	.LFB2038:
 2046              		.loc 1 365 0
 2047              		.cfi_startproc
 2048              	.LVL158:
 2049 0000 7C0802A6 		mflr 0
 2050 0004 9421FFF8 		stwu 1,-8(1)
 2051              	.LCFI41:
 2052              		.cfi_def_cfa_offset 8
 2053              		.cfi_register 65, 0
 2054              	.LBB3482:
 2055              	.LBB3483:
 2056              	.LBB3484:
 2057 0008 3D200000 		lis 9,_ZTVN7sigslot17_connection_base1IiNS_15single_threadedEEE+8@ha
 2058              	.LBE3484:
 2059              	.LBE3483:
 2060              	.LBE3482:
 2061 000c 9001000C 		stw 0,12(1)
 2062              	.LBB3487:
 2063              	.LBB3486:
 2064              	.LBB3485:
 2065              		.loc 1 365 0
 2066 0010 38090008 		la 0,_ZTVN7sigslot17_connection_base1IiNS_15single_threadedEEE+8@l(9)
 2067              		.cfi_offset 65, 4
 2068 0014 90030000 		stw 0,0(3)
 2069              	.LBE3485:
 2070              	.LBE3486:
 2071              	.LBE3487:
 2072 0018 48000001 		bl _ZdlPv
 2073              	.LVL159:
 2074 001c 8001000C 		lwz 0,12(1)
 2075 0020 38210008 		addi 1,1,8
 2076              	.LCFI42:
 2077              		.cfi_def_cfa_offset 0
 2078 0024 7C0803A6 		mtlr 0
 2079 0028 4E800020 		blr
 2080              		.cfi_endproc
 2081              	.LFE2038:
 2082              		.size	_ZN7sigslot17_connection_base1IiNS_15single_threadedEED0Ev, .-_ZN7sigslot17_connection_base1
 2083              		.section	.text._ZN7sigslot17_connection_base3IP9GuiButtoniRK6_POINTNS_15single_threadedEED0Ev,"axG
 2084              		.align 2
 2085              		.weak	_ZN7sigslot17_connection_base3IP9GuiButtoniRK6_POINTNS_15single_threadedEED0Ev
 2086              		.type	_ZN7sigslot17_connection_base3IP9GuiButtoniRK6_POINTNS_15single_threadedEED0Ev, @function
 2087              	_ZN7sigslot17_connection_base3IP9GuiButtoniRK6_POINTNS_15single_threadedEED0Ev:
 2088              	.LFB2031:
 2089              		.loc 1 387 0
 2090              		.cfi_startproc
 2091              	.LVL160:
 2092 0000 7C0802A6 		mflr 0
 2093 0004 9421FFF8 		stwu 1,-8(1)
 2094              	.LCFI43:
 2095              		.cfi_def_cfa_offset 8
 2096              		.cfi_register 65, 0
 2097              	.LBB3488:
 2098              	.LBB3489:
 2099              	.LBB3490:
 2100 0008 3D200000 		lis 9,_ZTVN7sigslot17_connection_base3IP9GuiButtoniRK6_POINTNS_15single_threadedEEE+8@ha
 2101              	.LBE3490:
 2102              	.LBE3489:
 2103              	.LBE3488:
 2104 000c 9001000C 		stw 0,12(1)
 2105              	.LBB3493:
 2106              	.LBB3492:
 2107              	.LBB3491:
 2108              		.loc 1 387 0
 2109 0010 38090008 		la 0,_ZTVN7sigslot17_connection_base3IP9GuiButtoniRK6_POINTNS_15single_threadedEEE+8@l(9)
 2110              		.cfi_offset 65, 4
 2111 0014 90030000 		stw 0,0(3)
 2112              	.LBE3491:
 2113              	.LBE3492:
 2114              	.LBE3493:
 2115 0018 48000001 		bl _ZdlPv
 2116              	.LVL161:
 2117 001c 8001000C 		lwz 0,12(1)
 2118 0020 38210008 		addi 1,1,8
 2119              	.LCFI44:
 2120              		.cfi_def_cfa_offset 0
 2121 0024 7C0803A6 		mtlr 0
 2122 0028 4E800020 		blr
 2123              		.cfi_endproc
 2124              	.LFE2031:
 2125              		.size	_ZN7sigslot17_connection_base3IP9GuiButtoniRK6_POINTNS_15single_threadedEED0Ev, .-_ZN7sigslo
 2126              		.section	.text._ZN7sigslot12_signal_baseINS_15single_threadedEED0Ev,"axG",@progbits,_ZN7sigslot12_
 2127              		.align 2
 2128              		.weak	_ZN7sigslot12_signal_baseINS_15single_threadedEED0Ev
 2129              		.type	_ZN7sigslot12_signal_baseINS_15single_threadedEED0Ev, @function
 2130              	_ZN7sigslot12_signal_baseINS_15single_threadedEED0Ev:
 2131              	.LFB1803:
 2132              		.loc 1 466 0
 2133              		.cfi_startproc
 2134              	.LVL162:
 2135 0000 7C0802A6 		mflr 0
 2136 0004 9421FFF8 		stwu 1,-8(1)
 2137              	.LCFI45:
 2138              		.cfi_def_cfa_offset 8
 2139              		.cfi_register 65, 0
 2140              	.LBB3494:
 2141              	.LBB3495:
 2142              	.LBB3496:
 2143              	.LBB3497:
 2144              	.LBB3498:
 2145              	.LBB3499:
 2146              		.loc 1 105 0
 2147 0008 3D200000 		lis 9,_ZTVN7sigslot15single_threadedE+8@ha
 2148              	.LBE3499:
 2149              	.LBE3498:
 2150              	.LBE3497:
 2151              	.LBE3496:
 2152              	.LBE3495:
 2153              	.LBE3494:
 2154              		.loc 1 466 0
 2155 000c 9001000C 		stw 0,12(1)
 2156              	.LBB3505:
 2157              	.LBB3504:
 2158              	.LBB3503:
 2159              	.LBB3502:
 2160              	.LBB3501:
 2161              	.LBB3500:
 2162              		.loc 1 105 0
 2163 0010 38090008 		la 0,_ZTVN7sigslot15single_threadedE+8@l(9)
 2164              		.cfi_offset 65, 4
 2165 0014 90030000 		stw 0,0(3)
 2166              	.LBE3500:
 2167              	.LBE3501:
 2168              	.LBE3502:
 2169              	.LBE3503:
 2170              	.LBE3504:
 2171              	.LBE3505:
 2172              		.loc 1 466 0
 2173 0018 48000001 		bl _ZdlPv
 2174              	.LVL163:
 2175 001c 8001000C 		lwz 0,12(1)
 2176 0020 38210008 		addi 1,1,8
 2177              	.LCFI46:
 2178              		.cfi_def_cfa_offset 0
 2179 0024 7C0803A6 		mtlr 0
 2180 0028 4E800020 		blr
 2181              		.cfi_endproc
 2182              	.LFE1803:
 2183              		.size	_ZN7sigslot12_signal_baseINS_15single_threadedEED0Ev, .-_ZN7sigslot12_signal_baseINS_15singl
 2184              		.section	.text._ZN7sigslot15single_threadedD0Ev,"axG",@progbits,_ZN7sigslot15single_threadedD5Ev,c
 2185              		.align 2
 2186              		.weak	_ZN7sigslot15single_threadedD0Ev
 2187              		.type	_ZN7sigslot15single_threadedD0Ev, @function
 2188              	_ZN7sigslot15single_threadedD0Ev:
 2189              	.LFB1150:
 2190              		.loc 1 104 0
 2191              		.cfi_startproc
 2192              	.LVL164:
 2193 0000 7C0802A6 		mflr 0
 2194 0004 9421FFF8 		stwu 1,-8(1)
 2195              	.LCFI47:
 2196              		.cfi_def_cfa_offset 8
 2197              		.cfi_register 65, 0
 2198              	.LBB3506:
 2199              	.LBB3507:
 2200              	.LBB3508:
 2201              		.loc 1 105 0
 2202 0008 3D200000 		lis 9,_ZTVN7sigslot15single_threadedE+8@ha
 2203              	.LBE3508:
 2204              	.LBE3507:
 2205              	.LBE3506:
 2206              		.loc 1 104 0
 2207 000c 9001000C 		stw 0,12(1)
 2208              	.LBB3511:
 2209              	.LBB3510:
 2210              	.LBB3509:
 2211              		.loc 1 105 0
 2212 0010 38090008 		la 0,_ZTVN7sigslot15single_threadedE+8@l(9)
 2213              		.cfi_offset 65, 4
 2214 0014 90030000 		stw 0,0(3)
 2215              	.LBE3509:
 2216              	.LBE3510:
 2217              	.LBE3511:
 2218              		.loc 1 107 0
 2219 0018 48000001 		bl _ZdlPv
 2220              	.LVL165:
 2221 001c 8001000C 		lwz 0,12(1)
 2222 0020 38210008 		addi 1,1,8
 2223              	.LCFI48:
 2224              		.cfi_def_cfa_offset 0
 2225 0024 7C0803A6 		mtlr 0
 2226 0028 4E800020 		blr
 2227              		.cfi_endproc
 2228              	.LFE1150:
 2229              		.size	_ZN7sigslot15single_threadedD0Ev, .-_ZN7sigslot15single_threadedD0Ev
 2230              		.section	.text._ZN7sigslot13_signal_base4IP11PathBrowserhbRKSsNS_15single_threadedEE15slot_disconn
 2231              		.align 2
 2232              		.weak	_ZN7sigslot13_signal_base4IP11PathBrowserhbRKSsNS_15single_threadedEE15slot_disconnectEPNS_9
 2233              		.type	_ZN7sigslot13_signal_base4IP11PathBrowserhbRKSsNS_15single_threadedEE15slot_disconnectEPNS_9
 2234              	_ZN7sigslot13_signal_base4IP11PathBrowserhbRKSsNS_15single_threadedEE15slot_disconnectEPNS_9has_slo
 2235              	.LFB2460:
 2236              		.loc 1 1110 0
 2237              		.cfi_startproc
 2238              		.cfi_personality 0,__gxx_personality_v0
 2239              		.cfi_lsda 0,.LLSDA2460
 2240              	.LVL166:
 2241 0000 7C0802A6 		mflr 0
 2242 0004 9421FFE0 		stwu 1,-32(1)
 2243              	.LCFI49:
 2244              		.cfi_def_cfa_offset 32
 2245              		.cfi_register 65, 0
 2246 0008 9361000C 		stw 27,12(1)
 2247 000c 7C7B1B78 		mr 27,3
 2248              		.cfi_offset 27, -20
 2249              	.LVL167:
 2250 0010 90010024 		stw 0,36(1)
 2251 0014 93810010 		stw 28,16(1)
 2252 0018 7C9C2378 		mr 28,4
 2253              		.cfi_offset 28, -16
 2254              		.cfi_offset 65, 4
 2255              	.LBB3512:
 2256              	.LBB3513:
 2257              	.LBB3514:
 2258              		.loc 1 338 0
 2259 001c 81230000 		lwz 9,0(3)
 2260              	.LBE3514:
 2261              	.LBE3513:
 2262              	.LBE3512:
 2263              		.loc 1 1110 0
 2264 0020 93A10014 		stw 29,20(1)
 2265              	.LBB3535:
 2266              	.LBB3517:
 2267              	.LBB3515:
 2268              		.loc 4 285 0
 2269 0024 7F7DDB78 		mr 29,27
 2270              		.cfi_offset 29, -12
 2271              		.loc 1 338 0
 2272 0028 80090008 		lwz 0,8(9)
 2273              	.LBE3515:
 2274              	.LBE3517:
 2275              	.LBE3535:
 2276              		.loc 1 1110 0
 2277 002c 93E1001C 		stw 31,28(1)
 2278 0030 93C10018 		stw 30,24(1)
 2279              	.LBB3536:
 2280              	.LBB3518:
 2281              	.LBB3516:
 2282              		.loc 1 338 0
 2283 0034 7C0903A6 		mtctr 0
 2284              	.LEHB4:
 2285              		.cfi_offset 30, -8
 2286              		.cfi_offset 31, -4
 2287 0038 4E800421 		bctrl
 2288              	.LEHE4:
 2289              	.LVL168:
 2290              		.loc 4 285 0
 2291 003c 87FD0004 		lwzu 31,4(29)
 2292              	.LVL169:
 2293              	.LBE3516:
 2294              	.LBE3518:
 2295              		.loc 1 1116 0
 2296 0040 7F9FE800 		cmpw 7,31,29
 2297 0044 40BE0014 		bne+ 7,.L145
 2298 0048 48000064 		b .L134
 2299              	.LVL170:
 2300              	.L135:
 2301              		.loc 1 1116 0 is_stmt 0 discriminator 1
 2302 004c 7F9DF000 		cmpw 7,29,30
 2303 0050 419E005C 		beq- 7,.L134
 2304              	.L143:
 2305              		.loc 1 1116 0
 2306 0054 7FDFF378 		mr 31,30
 2307              	.LVL171:
 2308              	.L145:
 2309              	.LBB3519:
 2310              		.loc 1 1121 0 is_stmt 1
 2311 0058 807F0008 		lwz 3,8(31)
 2312              	.LBB3520:
 2313              	.LBB3521:
 2314              		.loc 5 154 0
 2315 005c 83DF0000 		lwz 30,0(31)
 2316              	.LVL172:
 2317              	.LBE3521:
 2318              	.LBE3520:
 2319              		.loc 1 1121 0
 2320 0060 81230000 		lwz 9,0(3)
 2321 0064 80090008 		lwz 0,8(9)
 2322 0068 7C0903A6 		mtctr 0
 2323              	.LEHB5:
 2324 006c 4E800421 		bctrl
 2325              	.LVL173:
 2326 0070 7F9C1800 		cmpw 7,28,3
 2327 0074 409EFFD8 		bne+ 7,.L135
 2328              	.LVL174:
 2329              		.loc 1 1123 0
 2330 0078 807F0008 		lwz 3,8(31)
 2331 007c 2F830000 		cmpwi 7,3,0
 2332 0080 419E0014 		beq- 7,.L136
 2333              		.loc 1 1123 0 is_stmt 0 discriminator 1
 2334 0084 81230000 		lwz 9,0(3)
 2335 0088 80090004 		lwz 0,4(9)
 2336 008c 7C0903A6 		mtctr 0
 2337 0090 4E800421 		bctrl
 2338              	.LEHE5:
 2339              	.L136:
 2340              	.LVL175:
 2341              	.LBB3522:
 2342              	.LBB3523:
 2343              	.LBB3524:
 2344              	.LBB3525:
 2345              		.loc 5 1532 0 is_stmt 1
 2346 0094 7FE3FB78 		mr 3,31
 2347 0098 48000001 		bl _ZNSt8__detail15_List_node_base9_M_unhookEv
 2348              	.LVL176:
 2349              	.LBB3526:
 2350              	.LBB3527:
 2351              	.LBB3528:
 2352              		.loc 6 98 0
 2353 009c 7FE3FB78 		mr 3,31
 2354 00a0 48000001 		bl _ZdlPv
 2355              	.LVL177:
 2356              	.LBE3528:
 2357              	.LBE3527:
 2358              	.LBE3526:
 2359              	.LBE3525:
 2360              	.LBE3524:
 2361              	.LBE3523:
 2362              	.LBE3522:
 2363              	.LBE3519:
 2364              		.loc 1 1116 0
 2365 00a4 7F9DF000 		cmpw 7,29,30
 2366 00a8 409EFFAC 		bne+ 7,.L143
 2367              	.LVL178:
 2368              	.L134:
 2369              	.LBB3529:
 2370              	.LBB3530:
 2371              	.LBB3531:
 2372              		.loc 1 343 0
 2373 00ac 813B0000 		lwz 9,0(27)
 2374 00b0 7F63DB78 		mr 3,27
 2375 00b4 8009000C 		lwz 0,12(9)
 2376 00b8 7C0903A6 		mtctr 0
 2377              	.LEHB6:
 2378 00bc 4E800421 		bctrl
 2379              	.LEHE6:
 2380              	.LBE3531:
 2381              	.LBE3530:
 2382              	.LBE3529:
 2383              	.LBE3536:
 2384              		.loc 1 1130 0
 2385 00c0 80010024 		lwz 0,36(1)
 2386 00c4 8361000C 		lwz 27,12(1)
 2387              	.LVL179:
 2388 00c8 7C0803A6 		mtlr 0
 2389 00cc 83810010 		lwz 28,16(1)
 2390              	.LVL180:
 2391 00d0 83A10014 		lwz 29,20(1)
 2392              	.LVL181:
 2393 00d4 83C10018 		lwz 30,24(1)
 2394 00d8 83E1001C 		lwz 31,28(1)
 2395 00dc 38210020 		addi 1,1,32
 2396              		.cfi_remember_state
 2397              	.LCFI50:
 2398              		.cfi_def_cfa_offset 0
 2399              		.cfi_restore 31
 2400              		.cfi_restore 30
 2401              		.cfi_restore 29
 2402              		.cfi_restore 28
 2403              		.cfi_restore 27
 2404 00e0 4E800020 		blr
 2405              	.LVL182:
 2406              	.L144:
 2407              	.LCFI51:
 2408              		.cfi_restore_state
 2409              	.LBB3537:
 2410              	.LBB3532:
 2411              	.LBB3533:
 2412              	.LBB3534:
 2413              		.loc 1 343 0
 2414 00e4 813B0000 		lwz 9,0(27)
 2415 00e8 7C7F1B78 		mr 31,3
 2416              	.LVL183:
 2417 00ec 7F63DB78 		mr 3,27
 2418 00f0 8009000C 		lwz 0,12(9)
 2419 00f4 7C0903A6 		mtctr 0
 2420 00f8 4E800421 		bctrl
 2421 00fc 7FE3FB78 		mr 3,31
 2422              	.LEHB7:
 2423 0100 48000001 		bl _Unwind_Resume
 2424              	.LEHE7:
 2425              	.LBE3534:
 2426              	.LBE3533:
 2427              	.LBE3532:
 2428              	.LBE3537:
 2429              		.cfi_endproc
 2430              	.LFE2460:
 2431              		.section	.gcc_except_table
 2432              	.LLSDA2460:
 2433 0017 FF       		.byte	0xff
 2434 0018 FF       		.byte	0xff
 2435 0019 01       		.byte	0x1
 2436 001a 13       		.uleb128 .LLSDACSE2460-.LLSDACSB2460
 2437              	.LLSDACSB2460:
 2438 001b 38       		.uleb128 .LEHB4-.LFB2460
 2439 001c 04       		.uleb128 .LEHE4-.LEHB4
 2440 001d 00       		.uleb128 0
 2441 001e 00       		.uleb128 0
 2442 001f 6C       		.uleb128 .LEHB5-.LFB2460
 2443 0020 28       		.uleb128 .LEHE5-.LEHB5
 2444 0021 E401     		.uleb128 .L144-.LFB2460
 2445 0023 00       		.uleb128 0
 2446 0024 BC01     		.uleb128 .LEHB6-.LFB2460
 2447 0026 04       		.uleb128 .LEHE6-.LEHB6
 2448 0027 00       		.uleb128 0
 2449 0028 00       		.uleb128 0
 2450 0029 8002     		.uleb128 .LEHB7-.LFB2460
 2451 002b 04       		.uleb128 .LEHE7-.LEHB7
 2452 002c 00       		.uleb128 0
 2453 002d 00       		.uleb128 0
 2454              	.LLSDACSE2460:
 2455              		.section	.text._ZN7sigslot13_signal_base4IP11PathBrowserhbRKSsNS_15single_threadedEE15slot_disconn
 2456              		.size	_ZN7sigslot13_signal_base4IP11PathBrowserhbRKSsNS_15single_threadedEE15slot_disconnectEPNS_9
 2457              		.section	".text"
 2458              		.align 2
 2459              		.globl _ZN11PathBrowser16OnBackInDirClickEP9GuiButtoniRK6_POINT
 2460              		.type	_ZN11PathBrowser16OnBackInDirClickEP9GuiButtoniRK6_POINT, @function
 2461              	_ZN11PathBrowser16OnBackInDirClickEP9GuiButtoniRK6_POINT:
 2462              	.LFB1693:
 2463              		.loc 4 256 0
 2464              		.cfi_startproc
 2465              		.cfi_personality 0,__gxx_personality_v0
 2466              		.cfi_lsda 0,.LLSDA1693
 2467              	.LVL184:
 2468 0000 7C0802A6 		mflr 0
 2469 0004 9421FFE0 		stwu 1,-32(1)
 2470              	.LCFI52:
 2471              		.cfi_def_cfa_offset 32
 2472              		.cfi_register 65, 0
 2473 0008 93E1001C 		stw 31,28(1)
 2474 000c 7C7F1B78 		mr 31,3
 2475              		.cfi_offset 31, -4
 2476 0010 90010024 		stw 0,36(1)
 2477 0014 93C10018 		stw 30,24(1)
 2478              		.loc 4 257 0
 2479 0018 806300E4 		lwz 3,228(3)
 2480              	.LVL185:
 2481 001c 81230000 		lwz 9,0(3)
 2482 0020 8009005C 		lwz 0,92(9)
 2483              		.cfi_offset 30, -8
 2484              		.cfi_offset 65, 4
 2485 0024 7C0903A6 		mtctr 0
 2486              	.LEHB8:
 2487 0028 4E800421 		bctrl
 2488              	.LVL186:
 2489              		.loc 4 258 0
 2490 002c 807F00E8 		lwz 3,232(31)
 2491 0030 38800000 		li 4,0
 2492 0034 81230000 		lwz 9,0(3)
 2493 0038 800900D0 		lwz 0,208(9)
 2494 003c 7C0903A6 		mtctr 0
 2495 0040 4E800421 		bctrl
 2496              		.loc 4 259 0
 2497 0044 807F00E4 		lwz 3,228(31)
 2498 0048 38800000 		li 4,0
 2499 004c 81230000 		lwz 9,0(3)
 2500 0050 80090014 		lwz 0,20(9)
 2501 0054 7C0903A6 		mtctr 0
 2502 0058 4E800421 		bctrl
 2503              		.loc 4 260 0
 2504 005c 807F00E8 		lwz 3,232(31)
 2505 0060 81230000 		lwz 9,0(3)
 2506 0064 800900CC 		lwz 0,204(9)
 2507 0068 7C0903A6 		mtctr 0
 2508 006c 4E800421 		bctrl
 2509              		.loc 4 261 0
 2510 0070 809F00E4 		lwz 4,228(31)
 2511 0074 83FF011C 		lwz 31,284(31)
 2512              	.LVL187:
 2513 0078 3861000C 		addi 3,1,12
 2514 007c 81240000 		lwz 9,0(4)
 2515 0080 80090048 		lwz 0,72(9)
 2516 0084 813F0000 		lwz 9,0(31)
 2517 0088 7C0903A6 		mtctr 0
 2518 008c 83C900CC 		lwz 30,204(9)
 2519 0090 4E800421 		bctrl
 2520              	.LEHE8:
 2521 0094 7FE3FB78 		mr 3,31
 2522 0098 3881000C 		addi 4,1,12
 2523 009c 7FC903A6 		mtctr 30
 2524              	.LEHB9:
 2525 00a0 4E800421 		bctrl
 2526              	.LEHE9:
 2527              	.LVL188:
 2528              	.LBB3559:
 2529              	.LBB3560:
 2530              	.LBB3561:
 2531              	.LBB3562:
 2532              	.LBB3563:
 2533              	.LBB3564:
 2534              		.file 7 "d:\\devkitpro\\devkitppc\\bin\\../lib/gcc/powerpc-eabi/4.6.3/../../../../powerpc-eabi/inc
 2535              		.loc 7 288 0
 2536 00a4 8121000C 		lwz 9,12(1)
 2537              	.LBE3564:
 2538              	.LBE3563:
 2539              	.LBE3562:
 2540              	.LBB3565:
 2541              	.LBB3566:
 2542              		.loc 7 235 0
 2543 00a8 3D600000 		lis 11,_ZNSs4_Rep20_S_empty_rep_storageE@ha
 2544 00ac 380B0000 		la 0,_ZNSs4_Rep20_S_empty_rep_storageE@l(11)
 2545              	.LBE3566:
 2546              	.LBE3565:
 2547              		.loc 7 534 0
 2548 00b0 3869FFF4 		addi 3,9,-12
 2549              	.LVL189:
 2550              	.LBB3575:
 2551              	.LBB3573:
 2552              		.loc 7 235 0
 2553 00b4 7F830000 		cmpw 7,3,0
 2554 00b8 409E001C 		bne- 7,.L155
 2555              	.LVL190:
 2556              	.L146:
 2557              	.LBE3573:
 2558              	.LBE3575:
 2559              	.LBE3561:
 2560              	.LBE3560:
 2561              	.LBE3559:
 2562              		.loc 4 262 0
 2563 00bc 80010024 		lwz 0,36(1)
 2564 00c0 83C10018 		lwz 30,24(1)
 2565 00c4 7C0803A6 		mtlr 0
 2566 00c8 83E1001C 		lwz 31,28(1)
 2567 00cc 38210020 		addi 1,1,32
 2568              		.cfi_remember_state
 2569              	.LCFI53:
 2570              		.cfi_def_cfa_offset 0
 2571              		.cfi_restore 31
 2572              		.cfi_restore 30
 2573 00d0 4E800020 		blr
 2574              	.LVL191:
 2575              	.L155:
 2576              	.LCFI54:
 2577              		.cfi_restore_state
 2578              	.LBB3579:
 2579              	.LBB3578:
 2580              	.LBB3577:
 2581              	.LBB3576:
 2582              	.LBB3574:
 2583              	.LBB3567:
 2584              	.LBB3568:
 2585              	.LBB3569:
 2586              		.file 8 "d:\\devkitpro\\devkitppc\\bin\\../lib/gcc/powerpc-eabi/4.6.3/../../../../powerpc-eabi/inc
 2587              		.loc 8 66 0
 2588 00d4 8169FFFC 		lwz 11,-4(9)
 2589              	.LVL192:
 2590              	.LBE3569:
 2591              	.LBE3568:
 2592              	.LBE3567:
 2593              		.loc 7 240 0
 2594 00d8 2F8B0000 		cmpwi 7,11,0
 2595              	.LBB3572:
 2596              	.LBB3571:
 2597              	.LBB3570:
 2598              		.loc 8 67 0
 2599 00dc 396BFFFF 		addi 11,11,-1
 2600 00e0 9169FFFC 		stw 11,-4(9)
 2601              	.LBE3570:
 2602              	.LBE3571:
 2603              	.LBE3572:
 2604              		.loc 7 240 0
 2605 00e4 419DFFD8 		bgt+ 7,.L146
 2606              		.loc 7 244 0
 2607 00e8 38810008 		addi 4,1,8
 2608 00ec 48000001 		bl _ZNSs4_Rep10_M_destroyERKSaIcE
 2609              	.LVL193:
 2610 00f0 4BFFFFCC 		b .L146
 2611              	.LVL194:
 2612              	.L154:
 2613 00f4 7C7F1B78 		mr 31,3
 2614              	.LBE3574:
 2615              	.LBE3576:
 2616              	.LBE3577:
 2617              	.LBE3578:
 2618              	.LBE3579:
 2619              		.loc 4 261 0
 2620 00f8 3861000C 		addi 3,1,12
 2621 00fc 48000001 		bl _ZNSsD1Ev
 2622 0100 7FE3FB78 		mr 3,31
 2623              	.LEHB10:
 2624 0104 48000001 		bl _Unwind_Resume
 2625              	.LEHE10:
 2626              		.cfi_endproc
 2627              	.LFE1693:
 2628              		.section	.gcc_except_table
 2629              	.LLSDA1693:
 2630 002e FF       		.byte	0xff
 2631 002f FF       		.byte	0xff
 2632 0030 01       		.byte	0x1
 2633 0031 0F       		.uleb128 .LLSDACSE1693-.LLSDACSB1693
 2634              	.LLSDACSB1693:
 2635 0032 28       		.uleb128 .LEHB8-.LFB1693
 2636 0033 6C       		.uleb128 .LEHE8-.LEHB8
 2637 0034 00       		.uleb128 0
 2638 0035 00       		.uleb128 0
 2639 0036 A001     		.uleb128 .LEHB9-.LFB1693
 2640 0038 04       		.uleb128 .LEHE9-.LEHB9
 2641 0039 F401     		.uleb128 .L154-.LFB1693
 2642 003b 00       		.uleb128 0
 2643 003c 8402     		.uleb128 .LEHB10-.LFB1693
 2644 003e 04       		.uleb128 .LEHE10-.LEHB10
 2645 003f 00       		.uleb128 0
 2646 0040 00       		.uleb128 0
 2647              	.LLSDACSE1693:
 2648              		.section	".text"
 2649              		.size	_ZN11PathBrowser16OnBackInDirClickEP9GuiButtoniRK6_POINT, .-_ZN11PathBrowser16OnBackInDirCli
 2650              		.align 2
 2651              		.globl _ZN11PathBrowser19OnFolderButtonClickEP9GuiButtoniRK6_POINT
 2652              		.type	_ZN11PathBrowser19OnFolderButtonClickEP9GuiButtoniRK6_POINT, @function
 2653              	_ZN11PathBrowser19OnFolderButtonClickEP9GuiButtoniRK6_POINT:
 2654              	.LFB1690:
 2655              		.loc 4 193 0
 2656              		.cfi_startproc
 2657              		.cfi_personality 0,__gxx_personality_v0
 2658              		.cfi_lsda 0,.LLSDA1690
 2659              	.LVL195:
 2660 0108 7C0802A6 		mflr 0
 2661 010c 9421FBC8 		stwu 1,-1080(1)
 2662              	.LCFI55:
 2663              		.cfi_def_cfa_offset 1080
 2664              		.cfi_register 65, 0
 2665 0110 93E10434 		stw 31,1076(1)
 2666 0114 7C7F1B78 		mr 31,3
 2667              		.cfi_offset 31, -4
 2668 0118 9001043C 		stw 0,1084(1)
 2669 011c 93810428 		stw 28,1064(1)
 2670              	.LBB3676:
 2671              		.loc 4 195 0
 2672 0120 808300E4 		lwz 4,228(3)
 2673              	.LVL196:
 2674 0124 3861001C 		addi 3,1,28
 2675              	.LVL197:
 2676              	.LBE3676:
 2677              		.loc 4 193 0
 2678 0128 93A1042C 		stw 29,1068(1)
 2679              	.LBB3755:
 2680              		.loc 4 195 0
 2681 012c 81240000 		lwz 9,0(4)
 2682              	.LBE3755:
 2683              		.loc 4 193 0
 2684 0130 93C10430 		stw 30,1072(1)
 2685              	.LBB3756:
 2686              		.loc 4 195 0
 2687 0134 80090048 		lwz 0,72(9)
 2688              		.cfi_offset 30, -8
 2689              		.cfi_offset 29, -12
 2690              		.cfi_offset 28, -16
 2691              		.cfi_offset 65, 4
 2692 0138 7C0903A6 		mtctr 0
 2693              	.LEHB11:
 2694 013c 4E800421 		bctrl
 2695              	.LEHE11:
 2696              	.LVL198:
 2697 0140 3CA00000 		lis 5,.LC4@ha
 2698 0144 80C1001C 		lwz 6,28(1)
 2699 0148 38610020 		addi 3,1,32
 2700 014c 38800400 		li 4,1024
 2701 0150 38A50000 		la 5,.LC4@l(5)
 2702              	.LEHB12:
 2703 0154 4CC63182 		crxor 6,6,6
 2704 0158 48000001 		bl snprintf
 2705              	.LEHE12:
 2706              	.LVL199:
 2707              	.LBB3677:
 2708              	.LBB3678:
 2709              	.LBB3679:
 2710              	.LBB3680:
 2711              	.LBB3681:
 2712              	.LBB3682:
 2713              		.loc 7 288 0
 2714 015c 8121001C 		lwz 9,28(1)
 2715              	.LBE3682:
 2716              	.LBE3681:
 2717              	.LBE3680:
 2718              	.LBB3683:
 2719              	.LBB3684:
 2720              		.loc 7 235 0
 2721 0160 3FC00000 		lis 30,_ZNSs4_Rep20_S_empty_rep_storageE@ha
 2722 0164 3BDE0000 		la 30,_ZNSs4_Rep20_S_empty_rep_storageE@l(30)
 2723              	.LBE3684:
 2724              	.LBE3683:
 2725              		.loc 7 534 0
 2726 0168 3869FFF4 		addi 3,9,-12
 2727              	.LVL200:
 2728              	.LBB3693:
 2729              	.LBB3691:
 2730              		.loc 7 235 0
 2731 016c 7F83F000 		cmpw 7,3,30
 2732 0170 409E0120 		bne- 7,.L197
 2733              	.LVL201:
 2734              	.L162:
 2735              	.LBE3691:
 2736              	.LBE3693:
 2737              	.LBE3679:
 2738              	.LBE3678:
 2739              	.LBE3677:
 2740              		.loc 4 196 0 discriminator 1
 2741 0174 38610020 		addi 3,1,32
 2742 0178 38800400 		li 4,1024
 2743              	.LEHB13:
 2744 017c 48000001 		bl _Z16OnScreenKeyboardPct
 2745 0180 2F830000 		cmpwi 7,3,0
 2746 0184 419E00CC 		beq- 7,.L156
 2747              	.L165:
 2748              		.loc 4 198 0 discriminator 1
 2749 0188 38610020 		addi 3,1,32
 2750 018c 48000001 		bl strlen
 2751 0190 38010008 		addi 0,1,8
 2752 0194 3923FFFF 		addi 9,3,-1
 2753 0198 7D204A14 		add 9,0,9
 2754 019c 88090018 		lbz 0,24(9)
 2755 01a0 2F80002F 		cmpwi 7,0,47
 2756 01a4 419E00CC 		beq- 7,.L198
 2757              	.L164:
 2758              		.loc 4 201 0
 2759 01a8 38610018 		addi 3,1,24
 2760 01ac 38810020 		addi 4,1,32
 2761 01b0 38A1000D 		addi 5,1,13
 2762 01b4 48000001 		bl _ZNSsC1EPKcRKSaIcE
 2763              	.LEHE13:
 2764 01b8 38610018 		addi 3,1,24
 2765              	.LEHB14:
 2766 01bc 48000001 		bl _Z15CreateSubfolderSs
 2767              	.LEHE14:
 2768              	.LVL202:
 2769              	.LBB3697:
 2770              	.LBB3698:
 2771              	.LBB3699:
 2772              	.LBB3700:
 2773              	.LBB3701:
 2774              	.LBB3702:
 2775              		.loc 7 288 0
 2776 01c0 81210018 		lwz 9,24(1)
 2777              	.LBE3702:
 2778              	.LBE3701:
 2779              	.LBE3700:
 2780              		.loc 7 534 0
 2781 01c4 3869FFF4 		addi 3,9,-12
 2782              	.LVL203:
 2783              	.LBB3703:
 2784              	.LBB3704:
 2785              		.loc 7 235 0
 2786 01c8 7F83F000 		cmpw 7,3,30
 2787 01cc 409E0160 		bne- 7,.L199
 2788              	.LVL204:
 2789              	.L173:
 2790              	.LBE3704:
 2791              	.LBE3703:
 2792              	.LBE3699:
 2793              	.LBE3698:
 2794              	.LBE3697:
 2795              		.loc 4 202 0 discriminator 1
 2796 01d0 83BF00E0 		lwz 29,224(31)
 2797 01d4 38610014 		addi 3,1,20
 2798 01d8 38810020 		addi 4,1,32
 2799 01dc 38A1000C 		addi 5,1,12
 2800 01e0 813D0000 		lwz 9,0(29)
 2801 01e4 83890008 		lwz 28,8(9)
 2802              	.LEHB15:
 2803 01e8 48000001 		bl _ZNSsC1EPKcRKSaIcE
 2804              	.LEHE15:
 2805 01ec 7FA3EB78 		mr 3,29
 2806 01f0 38810014 		addi 4,1,20
 2807 01f4 7F8903A6 		mtctr 28
 2808              	.LEHB16:
 2809 01f8 4E800421 		bctrl
 2810              	.LEHE16:
 2811              	.LVL205:
 2812              	.LBB3715:
 2813              	.LBB3716:
 2814              	.LBB3717:
 2815              	.LBB3718:
 2816              	.LBB3719:
 2817              	.LBB3720:
 2818              		.loc 7 288 0
 2819 01fc 81210014 		lwz 9,20(1)
 2820              	.LBE3720:
 2821              	.LBE3719:
 2822              	.LBE3718:
 2823              		.loc 7 534 0
 2824 0200 3869FFF4 		addi 3,9,-12
 2825              	.LVL206:
 2826              	.LBB3721:
 2827              	.LBB3722:
 2828              		.loc 7 235 0
 2829 0204 7F83F000 		cmpw 7,3,30
 2830 0208 409E00F0 		bne- 7,.L200
 2831              	.LVL207:
 2832              	.L181:
 2833              	.LBE3722:
 2834              	.LBE3721:
 2835              	.LBE3717:
 2836              	.LBE3716:
 2837              	.LBE3715:
 2838              		.loc 4 203 0 discriminator 1
 2839 020c 809F00E4 		lwz 4,228(31)
 2840 0210 38610010 		addi 3,1,16
 2841 0214 83FF011C 		lwz 31,284(31)
 2842              	.LVL208:
 2843 0218 81240000 		lwz 9,0(4)
 2844 021c 80090048 		lwz 0,72(9)
 2845 0220 813F0000 		lwz 9,0(31)
 2846 0224 7C0903A6 		mtctr 0
 2847 0228 83A900CC 		lwz 29,204(9)
 2848              	.LEHB17:
 2849 022c 4E800421 		bctrl
 2850              	.LEHE17:
 2851 0230 7FE3FB78 		mr 3,31
 2852 0234 38810010 		addi 4,1,16
 2853 0238 7FA903A6 		mtctr 29
 2854              	.LEHB18:
 2855 023c 4E800421 		bctrl
 2856              	.LEHE18:
 2857              	.LVL209:
 2858              	.LBB3733:
 2859              	.LBB3734:
 2860              	.LBB3735:
 2861              	.LBB3736:
 2862              	.LBB3737:
 2863              	.LBB3738:
 2864              		.loc 7 288 0
 2865 0240 81210010 		lwz 9,16(1)
 2866              	.LBE3738:
 2867              	.LBE3737:
 2868              	.LBE3736:
 2869              		.loc 7 534 0
 2870 0244 3869FFF4 		addi 3,9,-12
 2871              	.LVL210:
 2872              	.LBB3739:
 2873              	.LBB3740:
 2874              		.loc 7 235 0
 2875 0248 7F83F000 		cmpw 7,3,30
 2876 024c 409E0078 		bne- 7,.L201
 2877              	.LVL211:
 2878              	.L156:
 2879              	.LBE3740:
 2880              	.LBE3739:
 2881              	.LBE3735:
 2882              	.LBE3734:
 2883              	.LBE3733:
 2884              	.LBE3756:
 2885              		.loc 4 205 0
 2886 0250 8001043C 		lwz 0,1084(1)
 2887 0254 83810428 		lwz 28,1064(1)
 2888 0258 7C0803A6 		mtlr 0
 2889 025c 83A1042C 		lwz 29,1068(1)
 2890 0260 83C10430 		lwz 30,1072(1)
 2891 0264 83E10434 		lwz 31,1076(1)
 2892 0268 38210438 		addi 1,1,1080
 2893              		.cfi_remember_state
 2894              	.LCFI56:
 2895              		.cfi_def_cfa_offset 0
 2896              		.cfi_restore 31
 2897              		.cfi_restore 30
 2898              		.cfi_restore 29
 2899              		.cfi_restore 28
 2900 026c 4E800020 		blr
 2901              	.LVL212:
 2902              	.L198:
 2903              	.LCFI57:
 2904              		.cfi_restore_state
 2905              	.LBB3757:
 2906              		.loc 4 198 0 discriminator 2
 2907 0270 38010008 		addi 0,1,8
 2908 0274 7C601A14 		add 3,0,3
 2909 0278 88030016 		lbz 0,22(3)
 2910 027c 2F80003A 		cmpwi 7,0,58
 2911 0280 41BEFF28 		beq- 7,.L164
 2912              		.loc 4 199 0 discriminator 5
 2913 0284 38000000 		li 0,0
 2914 0288 98090018 		stb 0,24(9)
 2915 028c 4BFFFEFC 		b .L165
 2916              	.LVL213:
 2917              	.L197:
 2918              	.LBB3751:
 2919              	.LBB3696:
 2920              	.LBB3695:
 2921              	.LBB3694:
 2922              	.LBB3692:
 2923              	.LBB3685:
 2924              	.LBB3686:
 2925              	.LBB3687:
 2926              		.loc 8 66 0
 2927 0290 8169FFFC 		lwz 11,-4(9)
 2928              	.LVL214:
 2929              	.LBE3687:
 2930              	.LBE3686:
 2931              	.LBE3685:
 2932              		.loc 7 240 0
 2933 0294 2F8B0000 		cmpwi 7,11,0
 2934              	.LBB3690:
 2935              	.LBB3689:
 2936              	.LBB3688:
 2937              		.loc 8 67 0
 2938 0298 396BFFFF 		addi 11,11,-1
 2939 029c 9169FFFC 		stw 11,-4(9)
 2940              	.LBE3688:
 2941              	.LBE3689:
 2942              	.LBE3690:
 2943              		.loc 7 240 0
 2944 02a0 419DFED4 		bgt+ 7,.L162
 2945              		.loc 7 244 0
 2946 02a4 3881000B 		addi 4,1,11
 2947 02a8 48000001 		bl _ZNSs4_Rep10_M_destroyERKSaIcE
 2948              	.LVL215:
 2949 02ac 4BFFFEC8 		b .L162
 2950              	.LVL216:
 2951              	.L192:
 2952 02b0 7C7F1B78 		mr 31,3
 2953              	.LVL217:
 2954              	.LBE3692:
 2955              	.LBE3694:
 2956              	.LBE3695:
 2957              	.LBE3696:
 2958              	.LBE3751:
 2959              		.loc 4 195 0
 2960 02b4 3861001C 		addi 3,1,28
 2961              	.LVL218:
 2962 02b8 48000001 		bl _ZNSsD1Ev
 2963              	.LVL219:
 2964 02bc 7FE3FB78 		mr 3,31
 2965              	.LEHB19:
 2966 02c0 48000001 		bl _Unwind_Resume
 2967              	.LVL220:
 2968              	.L201:
 2969              	.LBB3752:
 2970              	.LBB3750:
 2971              	.LBB3749:
 2972              	.LBB3748:
 2973              	.LBB3747:
 2974              	.LBB3741:
 2975              	.LBB3742:
 2976              	.LBB3743:
 2977              		.loc 8 66 0
 2978 02c4 8169FFFC 		lwz 11,-4(9)
 2979              	.LVL221:
 2980              	.LBE3743:
 2981              	.LBE3742:
 2982              	.LBE3741:
 2983              		.loc 7 240 0
 2984 02c8 2F8B0000 		cmpwi 7,11,0
 2985              	.LBB3746:
 2986              	.LBB3745:
 2987              	.LBB3744:
 2988              		.loc 8 67 0
 2989 02cc 396BFFFF 		addi 11,11,-1
 2990 02d0 9169FFFC 		stw 11,-4(9)
 2991              	.LBE3744:
 2992              	.LBE3745:
 2993              	.LBE3746:
 2994              		.loc 7 240 0
 2995 02d4 419DFF7C 		bgt+ 7,.L156
 2996              		.loc 7 244 0
 2997 02d8 38810008 		addi 4,1,8
 2998              	.LVL222:
 2999 02dc 48000001 		bl _ZNSs4_Rep10_M_destroyERKSaIcE
 3000              	.LVL223:
 3001 02e0 4BFFFF70 		b .L156
 3002              	.LVL224:
 3003              	.L195:
 3004 02e4 7C7F1B78 		mr 31,3
 3005              	.LBE3747:
 3006              	.LBE3748:
 3007              	.LBE3749:
 3008              	.LBE3750:
 3009              	.LBE3752:
 3010              		.loc 4 203 0
 3011 02e8 38610010 		addi 3,1,16
 3012 02ec 48000001 		bl _ZNSsD1Ev
 3013 02f0 7FE3FB78 		mr 3,31
 3014 02f4 48000001 		bl _Unwind_Resume
 3015              	.LVL225:
 3016              	.L200:
 3017              	.LBB3753:
 3018              	.LBB3732:
 3019              	.LBB3731:
 3020              	.LBB3730:
 3021              	.LBB3729:
 3022              	.LBB3723:
 3023              	.LBB3724:
 3024              	.LBB3725:
 3025              		.loc 8 66 0
 3026 02f8 8169FFFC 		lwz 11,-4(9)
 3027              	.LVL226:
 3028              	.LBE3725:
 3029              	.LBE3724:
 3030              	.LBE3723:
 3031              		.loc 7 240 0
 3032 02fc 2F8B0000 		cmpwi 7,11,0
 3033              	.LBB3728:
 3034              	.LBB3727:
 3035              	.LBB3726:
 3036              		.loc 8 67 0
 3037 0300 396BFFFF 		addi 11,11,-1
 3038 0304 9169FFFC 		stw 11,-4(9)
 3039              	.LBE3726:
 3040              	.LBE3727:
 3041              	.LBE3728:
 3042              		.loc 7 240 0
 3043 0308 419DFF04 		bgt+ 7,.L181
 3044              		.loc 7 244 0
 3045 030c 38810009 		addi 4,1,9
 3046 0310 48000001 		bl _ZNSs4_Rep10_M_destroyERKSaIcE
 3047              	.LVL227:
 3048 0314 4BFFFEF8 		b .L181
 3049              	.LVL228:
 3050              	.L194:
 3051 0318 7C7F1B78 		mr 31,3
 3052              	.LVL229:
 3053              	.LBE3729:
 3054              	.LBE3730:
 3055              	.LBE3731:
 3056              	.LBE3732:
 3057              	.LBE3753:
 3058              		.loc 4 202 0
 3059 031c 38610014 		addi 3,1,20
 3060 0320 48000001 		bl _ZNSsD1Ev
 3061 0324 7FE3FB78 		mr 3,31
 3062 0328 48000001 		bl _Unwind_Resume
 3063              	.LVL230:
 3064              	.L199:
 3065              	.LBB3754:
 3066              	.LBB3714:
 3067              	.LBB3713:
 3068              	.LBB3712:
 3069              	.LBB3711:
 3070              	.LBB3705:
 3071              	.LBB3706:
 3072              	.LBB3707:
 3073              		.loc 8 66 0
 3074 032c 8169FFFC 		lwz 11,-4(9)
 3075              	.LVL231:
 3076              	.LBE3707:
 3077              	.LBE3706:
 3078              	.LBE3705:
 3079              		.loc 7 240 0
 3080 0330 2F8B0000 		cmpwi 7,11,0
 3081              	.LBB3710:
 3082              	.LBB3709:
 3083              	.LBB3708:
 3084              		.loc 8 67 0
 3085 0334 396BFFFF 		addi 11,11,-1
 3086 0338 9169FFFC 		stw 11,-4(9)
 3087              	.LBE3708:
 3088              	.LBE3709:
 3089              	.LBE3710:
 3090              		.loc 7 240 0
 3091 033c 419DFE94 		bgt+ 7,.L173
 3092              		.loc 7 244 0
 3093 0340 3881000A 		addi 4,1,10
 3094 0344 48000001 		bl _ZNSs4_Rep10_M_destroyERKSaIcE
 3095              	.LVL232:
 3096 0348 4BFFFE88 		b .L173
 3097              	.LVL233:
 3098              	.L193:
 3099 034c 7C7F1B78 		mr 31,3
 3100              	.LVL234:
 3101              	.LBE3711:
 3102              	.LBE3712:
 3103              	.LBE3713:
 3104              	.LBE3714:
 3105              	.LBE3754:
 3106              		.loc 4 201 0
 3107 0350 38610018 		addi 3,1,24
 3108 0354 48000001 		bl _ZNSsD1Ev
 3109 0358 7FE3FB78 		mr 3,31
 3110 035c 48000001 		bl _Unwind_Resume
 3111              	.LEHE19:
 3112              	.LBE3757:
 3113              		.cfi_endproc
 3114              	.LFE1690:
 3115              		.section	.gcc_except_table
 3116              	.LLSDA1690:
 3117 0041 FF       		.byte	0xff
 3118 0042 FF       		.byte	0xff
 3119 0043 01       		.byte	0x1
 3120 0044 2F       		.uleb128 .LLSDACSE1690-.LLSDACSB1690
 3121              	.LLSDACSB1690:
 3122 0045 34       		.uleb128 .LEHB11-.LFB1690
 3123 0046 04       		.uleb128 .LEHE11-.LEHB11
 3124 0047 00       		.uleb128 0
 3125 0048 00       		.uleb128 0
 3126 0049 4C       		.uleb128 .LEHB12-.LFB1690
 3127 004a 08       		.uleb128 .LEHE12-.LEHB12
 3128 004b A803     		.uleb128 .L192-.LFB1690
 3129 004d 00       		.uleb128 0
 3130 004e 74       		.uleb128 .LEHB13-.LFB1690
 3131 004f 3C       		.uleb128 .LEHE13-.LEHB13
 3132 0050 00       		.uleb128 0
 3133 0051 00       		.uleb128 0
 3134 0052 B401     		.uleb128 .LEHB14-.LFB1690
 3135 0054 04       		.uleb128 .LEHE14-.LEHB14
 3136 0055 C404     		.uleb128 .L193-.LFB1690
 3137 0057 00       		.uleb128 0
 3138 0058 E001     		.uleb128 .LEHB15-.LFB1690
 3139 005a 04       		.uleb128 .LEHE15-.LEHB15
 3140 005b 00       		.uleb128 0
 3141 005c 00       		.uleb128 0
 3142 005d F001     		.uleb128 .LEHB16-.LFB1690
 3143 005f 04       		.uleb128 .LEHE16-.LEHB16
 3144 0060 9004     		.uleb128 .L194-.LFB1690
 3145 0062 00       		.uleb128 0
 3146 0063 A402     		.uleb128 .LEHB17-.LFB1690
 3147 0065 04       		.uleb128 .LEHE17-.LEHB17
 3148 0066 00       		.uleb128 0
 3149 0067 00       		.uleb128 0
 3150 0068 B402     		.uleb128 .LEHB18-.LFB1690
 3151 006a 04       		.uleb128 .LEHE18-.LEHB18
 3152 006b DC03     		.uleb128 .L195-.LFB1690
 3153 006d 00       		.uleb128 0
 3154 006e B803     		.uleb128 .LEHB19-.LFB1690
 3155 0070 A001     		.uleb128 .LEHE19-.LEHB19
 3156 0072 00       		.uleb128 0
 3157 0073 00       		.uleb128 0
 3158              	.LLSDACSE1690:
 3159              		.section	".text"
 3160              		.size	_ZN11PathBrowser19OnFolderButtonClickEP9GuiButtoniRK6_POINT, .-_ZN11PathBrowser19OnFolderBut
 3161              		.align 2
 3162              		.globl _ZN11PathBrowser16OnBrowserChangesEi
 3163              		.type	_ZN11PathBrowser16OnBrowserChangesEi, @function
 3164              	_ZN11PathBrowser16OnBrowserChangesEi:
 3165              	.LFB1694:
 3166              		.loc 4 265 0
 3167              		.cfi_startproc
 3168              		.cfi_personality 0,__gxx_personality_v0
 3169              		.cfi_lsda 0,.LLSDA1694
 3170              	.LVL235:
 3171 0360 7C0802A6 		mflr 0
 3172 0364 9421FFD0 		stwu 1,-48(1)
 3173              	.LCFI58:
 3174              		.cfi_def_cfa_offset 48
 3175              		.cfi_register 65, 0
 3176 0368 93C10028 		stw 30,40(1)
 3177 036c 7C7E1B78 		mr 30,3
 3178              		.cfi_offset 30, -8
 3179 0370 90010034 		stw 0,52(1)
 3180 0374 9361001C 		stw 27,28(1)
 3181              	.LBB3817:
 3182              		.loc 4 266 0
 3183 0378 806300E4 		lwz 3,228(3)
 3184              	.LVL236:
 3185              	.LBE3817:
 3186              		.loc 4 265 0
 3187 037c 93810020 		stw 28,32(1)
 3188              	.LBB3875:
 3189              		.loc 4 266 0
 3190 0380 81230000 		lwz 9,0(3)
 3191              	.LBE3875:
 3192              		.loc 4 265 0
 3193 0384 93A10024 		stw 29,36(1)
 3194              	.LBB3876:
 3195              		.loc 4 266 0
 3196 0388 8009003C 		lwz 0,60(9)
 3197              		.cfi_offset 29, -12
 3198              		.cfi_offset 28, -16
 3199              		.cfi_offset 27, -20
 3200              		.cfi_offset 65, 4
 3201              	.LBE3876:
 3202              		.loc 4 265 0
 3203 038c 93E1002C 		stw 31,44(1)
 3204              	.LBB3877:
 3205              		.loc 4 266 0
 3206 0390 7C0903A6 		mtctr 0
 3207              	.LEHB20:
 3208              		.cfi_offset 31, -4
 3209 0394 4E800421 		bctrl
 3210              	.LVL237:
 3211 0398 2F830000 		cmpwi 7,3,0
 3212 039c 419E00D0 		beq- 7,.L203
 3213              	.LBB3818:
 3214              		.loc 4 268 0
 3215 03a0 807E00E4 		lwz 3,228(30)
 3216 03a4 81230000 		lwz 9,0(3)
 3217 03a8 80090058 		lwz 0,88(9)
 3218 03ac 7C0903A6 		mtctr 0
 3219 03b0 4E800421 		bctrl
 3220              	.LVL238:
 3221              		.loc 4 269 0
 3222 03b4 2F830000 		cmpwi 7,3,0
 3223 03b8 419C0178 		blt- 7,.L204
 3224              		.loc 4 271 0
 3225 03bc 807E00E8 		lwz 3,232(30)
 3226              	.LVL239:
 3227 03c0 38800000 		li 4,0
 3228 03c4 81230000 		lwz 9,0(3)
 3229 03c8 800900D0 		lwz 0,208(9)
 3230 03cc 7C0903A6 		mtctr 0
 3231 03d0 4E800421 		bctrl
 3232              		.loc 4 272 0
 3233 03d4 807E00E4 		lwz 3,228(30)
 3234 03d8 38800000 		li 4,0
 3235 03dc 81230000 		lwz 9,0(3)
 3236 03e0 80090014 		lwz 0,20(9)
 3237 03e4 7C0903A6 		mtctr 0
 3238 03e8 4E800421 		bctrl
 3239              		.loc 4 273 0
 3240 03ec 807E00E8 		lwz 3,232(30)
 3241 03f0 81230000 		lwz 9,0(3)
 3242 03f4 800900CC 		lwz 0,204(9)
 3243 03f8 7C0903A6 		mtctr 0
 3244 03fc 4E800421 		bctrl
 3245              		.loc 4 274 0
 3246 0400 809E00E4 		lwz 4,228(30)
 3247 0404 83FE011C 		lwz 31,284(30)
 3248 0408 38610010 		addi 3,1,16
 3249 040c 81240000 		lwz 9,0(4)
 3250 0410 80090048 		lwz 0,72(9)
 3251 0414 813F0000 		lwz 9,0(31)
 3252 0418 7C0903A6 		mtctr 0
 3253 041c 83C900CC 		lwz 30,204(9)
 3254              	.LVL240:
 3255 0420 4E800421 		bctrl
 3256              	.LEHE20:
 3257 0424 7FE3FB78 		mr 3,31
 3258 0428 38810010 		addi 4,1,16
 3259 042c 7FC903A6 		mtctr 30
 3260              	.LEHB21:
 3261 0430 4E800421 		bctrl
 3262              	.LEHE21:
 3263              	.LVL241:
 3264              	.LBB3819:
 3265              	.LBB3820:
 3266              	.LBB3821:
 3267              	.LBB3822:
 3268              	.LBB3823:
 3269              	.LBB3824:
 3270              		.loc 7 288 0
 3271 0434 81210010 		lwz 9,16(1)
 3272              	.LBE3824:
 3273              	.LBE3823:
 3274              	.LBE3822:
 3275              	.LBB3825:
 3276              	.LBB3826:
 3277              		.loc 7 235 0
 3278 0438 3D600000 		lis 11,_ZNSs4_Rep20_S_empty_rep_storageE@ha
 3279 043c 380B0000 		la 0,_ZNSs4_Rep20_S_empty_rep_storageE@l(11)
 3280              	.LBE3826:
 3281              	.LBE3825:
 3282              		.loc 7 534 0
 3283 0440 3869FFF4 		addi 3,9,-12
 3284              	.LVL242:
 3285              	.LBB3834:
 3286              	.LBB3833:
 3287              		.loc 7 235 0
 3288 0444 7F830000 		cmpw 7,3,0
 3289 0448 41BE00C4 		beq+ 7,.L202
 3290              	.LVL243:
 3291              	.LBB3827:
 3292              	.LBB3828:
 3293              	.LBB3829:
 3294              		.loc 8 66 0
 3295 044c 8169FFFC 		lwz 11,-4(9)
 3296              	.LVL244:
 3297              	.LBE3829:
 3298              	.LBE3828:
 3299              	.LBE3827:
 3300              		.loc 7 240 0
 3301 0450 2F8B0000 		cmpwi 7,11,0
 3302              	.LBB3832:
 3303              	.LBB3831:
 3304              	.LBB3830:
 3305              		.loc 8 67 0
 3306 0454 396BFFFF 		addi 11,11,-1
 3307 0458 9169FFFC 		stw 11,-4(9)
 3308              	.LBE3830:
 3309              	.LBE3831:
 3310              	.LBE3832:
 3311              		.loc 7 240 0
 3312 045c 41BD00B0 		bgt+ 7,.L202
 3313              		.loc 7 244 0
 3314 0460 38810009 		addi 4,1,9
 3315 0464 48000001 		bl _ZNSs4_Rep10_M_destroyERKSaIcE
 3316              	.LVL245:
 3317 0468 480000A4 		b .L202
 3318              	.LVL246:
 3319              	.L203:
 3320              	.LBE3833:
 3321              	.LBE3834:
 3322              	.LBE3821:
 3323              	.LBE3820:
 3324              	.LBE3819:
 3325              	.LBE3818:
 3326              		.loc 4 283 0
 3327 046c 809E00E4 		lwz 4,228(30)
 3328 0470 3861000C 		addi 3,1,12
 3329 0474 8B9E00D8 		lbz 28,216(30)
 3330              	.LBB3835:
 3331              	.LBB3836:
 3332              		.loc 1 2407 0
 3333 0478 3B7E00CC 		addi 27,30,204
 3334              	.LBE3836:
 3335              	.LBE3835:
 3336              		.loc 4 283 0
 3337 047c 81240000 		lwz 9,0(4)
 3338 0480 8009004C 		lwz 0,76(9)
 3339 0484 7C0903A6 		mtctr 0
 3340              	.LEHB22:
 3341 0488 4E800421 		bctrl
 3342              	.LEHE22:
 3343              	.LVL247:
 3344              	.LBB3850:
 3345              	.LBB3847:
 3346              	.LBB3837:
 3347              	.LBB3838:
 3348              		.loc 1 338 0
 3349 048c 813E00CC 		lwz 9,204(30)
 3350 0490 7F63DB78 		mr 3,27
 3351 0494 80090008 		lwz 0,8(9)
 3352 0498 7C0903A6 		mtctr 0
 3353              	.LEHB23:
 3354 049c 4E800421 		bctrl
 3355              	.LEHE23:
 3356              	.LVL248:
 3357              	.LBE3838:
 3358              	.LBE3837:
 3359              	.LBE3847:
 3360              		.loc 4 285 0
 3361 04a0 7FDDF378 		mr 29,30
 3362 04a4 87FD00D0 		lwzu 31,208(29)
 3363              	.LVL249:
 3364              	.LBB3848:
 3365              		.loc 1 2411 0
 3366 04a8 7F9FE800 		cmpw 7,31,29
 3367 04ac 419E0034 		beq- 7,.L206
 3368              	.LVL250:
 3369              	.L228:
 3370              		.loc 1 2416 0
 3371 04b0 807F0008 		lwz 3,8(31)
 3372 04b4 7FC4F378 		mr 4,30
 3373 04b8 7F85E378 		mr 5,28
 3374 04bc 38C00001 		li 6,1
 3375 04c0 81230000 		lwz 9,0(3)
 3376 04c4 38E1000C 		addi 7,1,12
 3377              	.LVL251:
 3378              	.LBB3839:
 3379              	.LBB3840:
 3380              		.loc 5 234 0
 3381 04c8 83FF0000 		lwz 31,0(31)
 3382              	.LVL252:
 3383              	.LBE3840:
 3384              	.LBE3839:
 3385              		.loc 1 2416 0
 3386 04cc 8009000C 		lwz 0,12(9)
 3387 04d0 7C0903A6 		mtctr 0
 3388              	.LEHB24:
 3389 04d4 4E800421 		bctrl
 3390              	.LEHE24:
 3391              	.LVL253:
 3392              		.loc 1 2411 0
 3393 04d8 7F9DF800 		cmpw 7,29,31
 3394 04dc 409EFFD4 		bne+ 7,.L228
 3395              	.LVL254:
 3396              	.L206:
 3397              	.LBB3841:
 3398              	.LBB3842:
 3399              	.LBB3843:
 3400              		.loc 1 343 0
 3401 04e0 813E00CC 		lwz 9,204(30)
 3402 04e4 7F63DB78 		mr 3,27
 3403 04e8 8009000C 		lwz 0,12(9)
 3404 04ec 7C0903A6 		mtctr 0
 3405              	.LEHB25:
 3406 04f0 4E800421 		bctrl
 3407              	.LEHE25:
 3408              	.LVL255:
 3409              	.LBE3843:
 3410              	.LBE3842:
 3411              	.LBE3841:
 3412              	.LBE3848:
 3413              	.LBE3850:
 3414              	.LBB3851:
 3415              	.LBB3852:
 3416              	.LBB3853:
 3417              	.LBB3854:
 3418              	.LBB3855:
 3419              	.LBB3856:
 3420              		.loc 7 288 0
 3421 04f4 8121000C 		lwz 9,12(1)
 3422              	.LBE3856:
 3423              	.LBE3855:
 3424              	.LBE3854:
 3425              	.LBB3857:
 3426              	.LBB3858:
 3427              		.loc 7 235 0
 3428 04f8 3D600000 		lis 11,_ZNSs4_Rep20_S_empty_rep_storageE@ha
 3429 04fc 380B0000 		la 0,_ZNSs4_Rep20_S_empty_rep_storageE@l(11)
 3430              	.LBE3858:
 3431              	.LBE3857:
 3432              		.loc 7 534 0
 3433 0500 3869FFF4 		addi 3,9,-12
 3434              	.LVL256:
 3435              	.LBB3867:
 3436              	.LBB3865:
 3437              		.loc 7 235 0
 3438 0504 7F830000 		cmpw 7,3,0
 3439 0508 409E0054 		bne- 7,.L230
 3440              	.LVL257:
 3441              	.L202:
 3442              	.LBE3865:
 3443              	.LBE3867:
 3444              	.LBE3853:
 3445              	.LBE3852:
 3446              	.LBE3851:
 3447              	.LBE3877:
 3448              		.loc 4 285 0
 3449 050c 80010034 		lwz 0,52(1)
 3450 0510 8361001C 		lwz 27,28(1)
 3451 0514 7C0803A6 		mtlr 0
 3452 0518 83810020 		lwz 28,32(1)
 3453 051c 83A10024 		lwz 29,36(1)
 3454 0520 83C10028 		lwz 30,40(1)
 3455 0524 83E1002C 		lwz 31,44(1)
 3456 0528 38210030 		addi 1,1,48
 3457              		.cfi_remember_state
 3458              	.LCFI59:
 3459              		.cfi_def_cfa_offset 0
 3460              		.cfi_restore 31
 3461              		.cfi_restore 30
 3462              		.cfi_restore 29
 3463              		.cfi_restore 28
 3464              		.cfi_restore 27
 3465 052c 4E800020 		blr
 3466              	.LVL258:
 3467              	.L204:
 3468              	.LCFI60:
 3469              		.cfi_restore_state
 3470              	.LBB3878:
 3471              	.LBB3871:
 3472              		.loc 4 278 0
 3473 0530 3C600000 		lis 3,.LC5@ha
 3474              	.LVL259:
 3475 0534 38630004 		la 3,.LC5@l(3)
 3476              	.LEHB26:
 3477 0538 48000001 		bl gettext
 3478 053c 4CC63182 		crxor 6,6,6
 3479 0540 48000001 		bl ShowError
 3480 0544 4BFFFFC8 		b .L202
 3481              	.LVL260:
 3482              	.L226:
 3483 0548 7C7F1B78 		mr 31,3
 3484              	.L211:
 3485              	.LBE3871:
 3486              		.loc 4 283 0
 3487 054c 3861000C 		addi 3,1,12
 3488              	.LVL261:
 3489 0550 48000001 		bl _ZNSsD1Ev
 3490              	.LVL262:
 3491 0554 7FE3FB78 		mr 3,31
 3492 0558 48000001 		bl _Unwind_Resume
 3493              	.LEHE26:
 3494              	.LVL263:
 3495              	.L230:
 3496              	.LBB3872:
 3497              	.LBB3870:
 3498              	.LBB3869:
 3499              	.LBB3868:
 3500              	.LBB3866:
 3501              	.LBB3859:
 3502              	.LBB3860:
 3503              	.LBB3861:
 3504              		.loc 8 66 0
 3505 055c 8169FFFC 		lwz 11,-4(9)
 3506              	.LVL264:
 3507              	.LBE3861:
 3508              	.LBE3860:
 3509              	.LBE3859:
 3510              		.loc 7 240 0
 3511 0560 2F8B0000 		cmpwi 7,11,0
 3512              	.LBB3864:
 3513              	.LBB3863:
 3514              	.LBB3862:
 3515              		.loc 8 67 0
 3516 0564 396BFFFF 		addi 11,11,-1
 3517 0568 9169FFFC 		stw 11,-4(9)
 3518              	.LBE3862:
 3519              	.LBE3863:
 3520              	.LBE3864:
 3521              		.loc 7 240 0
 3522 056c 419DFFA0 		bgt+ 7,.L202
 3523              		.loc 7 244 0
 3524 0570 38810008 		addi 4,1,8
 3525 0574 48000001 		bl _ZNSs4_Rep10_M_destroyERKSaIcE
 3526              	.LVL265:
 3527 0578 4BFFFF94 		b .L202
 3528              	.LVL266:
 3529              	.L227:
 3530              	.LBE3866:
 3531              	.LBE3868:
 3532              	.LBE3869:
 3533              	.LBE3870:
 3534              	.LBE3872:
 3535              	.LBB3873:
 3536              	.LBB3849:
 3537              	.LBB3844:
 3538              	.LBB3845:
 3539              	.LBB3846:
 3540              		.loc 1 343 0
 3541 057c 813E00CC 		lwz 9,204(30)
 3542 0580 7C7F1B78 		mr 31,3
 3543              	.LVL267:
 3544 0584 7F63DB78 		mr 3,27
 3545 0588 8009000C 		lwz 0,12(9)
 3546 058c 7C0903A6 		mtctr 0
 3547 0590 4E800421 		bctrl
 3548 0594 4BFFFFB8 		b .L211
 3549              	.LVL268:
 3550              	.L225:
 3551 0598 7C7F1B78 		mr 31,3
 3552              	.LBE3846:
 3553              	.LBE3845:
 3554              	.LBE3844:
 3555              	.LBE3849:
 3556              	.LBE3873:
 3557              	.LBB3874:
 3558              		.loc 4 274 0
 3559 059c 38610010 		addi 3,1,16
 3560 05a0 48000001 		bl _ZNSsD1Ev
 3561 05a4 7FE3FB78 		mr 3,31
 3562              	.LEHB27:
 3563 05a8 48000001 		bl _Unwind_Resume
 3564              	.LEHE27:
 3565              	.LBE3874:
 3566              	.LBE3878:
 3567              		.cfi_endproc
 3568              	.LFE1694:
 3569              		.section	.gcc_except_table
 3570              	.LLSDA1694:
 3571 0074 FF       		.byte	0xff
 3572 0075 FF       		.byte	0xff
 3573 0076 01       		.byte	0x1
 3574 0077 2C       		.uleb128 .LLSDACSE1694-.LLSDACSB1694
 3575              	.LLSDACSB1694:
 3576 0078 34       		.uleb128 .LEHB20-.LFB1694
 3577 0079 9001     		.uleb128 .LEHE20-.LEHB20
 3578 007b 00       		.uleb128 0
 3579 007c 00       		.uleb128 0
 3580 007d D001     		.uleb128 .LEHB21-.LFB1694
 3581 007f 04       		.uleb128 .LEHE21-.LEHB21
 3582 0080 B804     		.uleb128 .L225-.LFB1694
 3583 0082 00       		.uleb128 0
 3584 0083 A802     		.uleb128 .LEHB22-.LFB1694
 3585 0085 04       		.uleb128 .LEHE22-.LEHB22
 3586 0086 00       		.uleb128 0
 3587 0087 00       		.uleb128 0
 3588 0088 BC02     		.uleb128 .LEHB23-.LFB1694
 3589 008a 04       		.uleb128 .LEHE23-.LEHB23
 3590 008b E803     		.uleb128 .L226-.LFB1694
 3591 008d 00       		.uleb128 0
 3592 008e F402     		.uleb128 .LEHB24-.LFB1694
 3593 0090 04       		.uleb128 .LEHE24-.LEHB24
 3594 0091 9C04     		.uleb128 .L227-.LFB1694
 3595 0093 00       		.uleb128 0
 3596 0094 9003     		.uleb128 .LEHB25-.LFB1694
 3597 0096 04       		.uleb128 .LEHE25-.LEHB25
 3598 0097 E803     		.uleb128 .L226-.LFB1694
 3599 0099 00       		.uleb128 0
 3600 009a D803     		.uleb128 .LEHB26-.LFB1694
 3601 009c 24       		.uleb128 .LEHE26-.LEHB26
 3602 009d 00       		.uleb128 0
 3603 009e 00       		.uleb128 0
 3604 009f C804     		.uleb128 .LEHB27-.LFB1694
 3605 00a1 04       		.uleb128 .LEHE27-.LEHB27
 3606 00a2 00       		.uleb128 0
 3607 00a3 00       		.uleb128 0
 3608              	.LLSDACSE1694:
 3609              		.section	".text"
 3610              		.size	_ZN11PathBrowser16OnBrowserChangesEi, .-_ZN11PathBrowser16OnBrowserChangesEi
 3611              		.align 2
 3612              		.globl _ZN11PathBrowser13OnButtonClickEP9GuiButtoniRK6_POINT
 3613              		.type	_ZN11PathBrowser13OnButtonClickEP9GuiButtoniRK6_POINT, @function
 3614              	_ZN11PathBrowser13OnButtonClickEP9GuiButtoniRK6_POINT:
 3615              	.LFB1689:
 3616              		.loc 4 188 0
 3617              		.cfi_startproc
 3618              		.cfi_personality 0,__gxx_personality_v0
 3619              		.cfi_lsda 0,.LLSDA1689
 3620              	.LVL269:
 3621 05ac 7C0802A6 		mflr 0
 3622 05b0 9421FFD0 		stwu 1,-48(1)
 3623              	.LCFI61:
 3624              		.cfi_def_cfa_offset 48
 3625              		.cfi_register 65, 0
 3626 05b4 93A10024 		stw 29,36(1)
 3627 05b8 90010034 		stw 0,52(1)
 3628 05bc 93410018 		stw 26,24(1)
 3629              		.loc 4 189 0
 3630 05c0 812300E4 		lwz 9,228(3)
 3631 05c4 83A3012C 		lwz 29,300(3)
 3632              		.cfi_offset 26, -24
 3633              		.cfi_offset 65, 4
 3634              		.cfi_offset 29, -12
 3635 05c8 81690000 		lwz 11,0(9)
 3636              		.loc 4 188 0
 3637 05cc 93C10028 		stw 30,40(1)
 3638              		.loc 4 189 0
 3639 05d0 7FBD2278 		xor 29,29,4
 3640 05d4 800B0048 		lwz 0,72(11)
 3641              		.loc 4 188 0
 3642 05d8 7C7E1B78 		mr 30,3
 3643              		.cfi_offset 30, -8
 3644 05dc 9361001C 		stw 27,28(1)
 3645              		.loc 4 189 0
 3646 05e0 3861000C 		addi 3,1,12
 3647              	.LVL270:
 3648 05e4 7C0903A6 		mtctr 0
 3649              		.loc 4 188 0
 3650 05e8 93810020 		stw 28,32(1)
 3651 05ec 93E1002C 		stw 31,44(1)
 3652              		.loc 4 189 0
 3653 05f0 7D244B78 		mr 4,9
 3654              	.LVL271:
 3655              	.LBB3915:
 3656              	.LBB3916:
 3657              		.loc 1 2407 0
 3658 05f4 3B5E00CC 		addi 26,30,204
 3659              	.LBE3916:
 3660              	.LBE3915:
 3661              		.loc 4 189 0
 3662 05f8 7FBD0034 		cntlzw 29,29
 3663 05fc 8B7E00D8 		lbz 27,216(30)
 3664              		.cfi_offset 31, -4
 3665              		.cfi_offset 28, -16
 3666              		.cfi_offset 27, -20
 3667 0600 57BDD97E 		srwi 29,29,5
 3668              	.LEHB28:
 3669 0604 4E800421 		bctrl
 3670              	.LEHE28:
 3671              	.LVL272:
 3672              	.LBB3930:
 3673              	.LBB3927:
 3674              	.LBB3917:
 3675              	.LBB3918:
 3676              		.loc 1 338 0
 3677 0608 813E00CC 		lwz 9,204(30)
 3678 060c 7F43D378 		mr 3,26
 3679 0610 80090008 		lwz 0,8(9)
 3680 0614 7C0903A6 		mtctr 0
 3681              	.LEHB29:
 3682 0618 4E800421 		bctrl
 3683              	.LEHE29:
 3684              	.LVL273:
 3685              	.LBE3918:
 3686              	.LBE3917:
 3687              	.LBE3927:
 3688              		.loc 4 285 0
 3689 061c 7FDCF378 		mr 28,30
 3690 0620 87FC00D0 		lwzu 31,208(28)
 3691              	.LVL274:
 3692              	.LBB3928:
 3693              		.loc 1 2411 0
 3694 0624 7F9FE000 		cmpw 7,31,28
 3695 0628 419E0034 		beq- 7,.L232
 3696              	.LVL275:
 3697              	.L247:
 3698              		.loc 1 2416 0
 3699 062c 807F0008 		lwz 3,8(31)
 3700 0630 7FC4F378 		mr 4,30
 3701 0634 7F65DB78 		mr 5,27
 3702 0638 7FA6EB78 		mr 6,29
 3703 063c 81230000 		lwz 9,0(3)
 3704 0640 38E1000C 		addi 7,1,12
 3705              	.LVL276:
 3706              	.LBB3919:
 3707              	.LBB3920:
 3708              		.loc 5 234 0
 3709 0644 83FF0000 		lwz 31,0(31)
 3710              	.LVL277:
 3711              	.LBE3920:
 3712              	.LBE3919:
 3713              		.loc 1 2416 0
 3714 0648 8009000C 		lwz 0,12(9)
 3715 064c 7C0903A6 		mtctr 0
 3716              	.LEHB30:
 3717 0650 4E800421 		bctrl
 3718              	.LEHE30:
 3719              	.LVL278:
 3720              		.loc 1 2411 0
 3721 0654 7F9CF800 		cmpw 7,28,31
 3722 0658 409EFFD4 		bne+ 7,.L247
 3723              	.LVL279:
 3724              	.L232:
 3725              	.LBB3921:
 3726              	.LBB3922:
 3727              	.LBB3923:
 3728              		.loc 1 343 0
 3729 065c 813E00CC 		lwz 9,204(30)
 3730 0660 7F43D378 		mr 3,26
 3731 0664 8009000C 		lwz 0,12(9)
 3732 0668 7C0903A6 		mtctr 0
 3733              	.LEHB31:
 3734 066c 4E800421 		bctrl
 3735              	.LEHE31:
 3736              	.LVL280:
 3737              	.LBE3923:
 3738              	.LBE3922:
 3739              	.LBE3921:
 3740              	.LBE3928:
 3741              	.LBE3930:
 3742              	.LBB3931:
 3743              	.LBB3932:
 3744              	.LBB3933:
 3745              	.LBB3934:
 3746              	.LBB3935:
 3747              	.LBB3936:
 3748              		.loc 7 288 0
 3749 0670 8121000C 		lwz 9,12(1)
 3750              	.LBE3936:
 3751              	.LBE3935:
 3752              	.LBE3934:
 3753              	.LBB3937:
 3754              	.LBB3938:
 3755              		.loc 7 235 0
 3756 0674 3D600000 		lis 11,_ZNSs4_Rep20_S_empty_rep_storageE@ha
 3757 0678 380B0000 		la 0,_ZNSs4_Rep20_S_empty_rep_storageE@l(11)
 3758              	.LBE3938:
 3759              	.LBE3937:
 3760              		.loc 7 534 0
 3761 067c 3869FFF4 		addi 3,9,-12
 3762              	.LVL281:
 3763              	.LBB3947:
 3764              	.LBB3945:
 3765              		.loc 7 235 0
 3766 0680 7F830000 		cmpw 7,3,0
 3767 0684 409E0040 		bne- 7,.L249
 3768              	.LVL282:
 3769              	.L231:
 3770              	.LBE3945:
 3771              	.LBE3947:
 3772              	.LBE3933:
 3773              	.LBE3932:
 3774              	.LBE3931:
 3775              		.loc 4 190 0
 3776 0688 80010034 		lwz 0,52(1)
 3777 068c 83410018 		lwz 26,24(1)
 3778 0690 7C0803A6 		mtlr 0
 3779 0694 8361001C 		lwz 27,28(1)
 3780              	.LVL283:
 3781 0698 83810020 		lwz 28,32(1)
 3782 069c 83A10024 		lwz 29,36(1)
 3783 06a0 83C10028 		lwz 30,40(1)
 3784              	.LVL284:
 3785 06a4 83E1002C 		lwz 31,44(1)
 3786              	.LVL285:
 3787 06a8 38210030 		addi 1,1,48
 3788              		.cfi_remember_state
 3789              	.LCFI62:
 3790              		.cfi_def_cfa_offset 0
 3791              		.cfi_restore 31
 3792              		.cfi_restore 30
 3793              		.cfi_restore 29
 3794              		.cfi_restore 28
 3795              		.cfi_restore 27
 3796              		.cfi_restore 26
 3797 06ac 4E800020 		blr
 3798              	.LVL286:
 3799              	.L245:
 3800              	.LCFI63:
 3801              		.cfi_restore_state
 3802 06b0 7C7F1B78 		mr 31,3
 3803              	.L237:
 3804              		.loc 4 189 0
 3805 06b4 3861000C 		addi 3,1,12
 3806              	.LVL287:
 3807 06b8 48000001 		bl _ZNSsD1Ev
 3808              	.LVL288:
 3809 06bc 7FE3FB78 		mr 3,31
 3810              	.LEHB32:
 3811 06c0 48000001 		bl _Unwind_Resume
 3812              	.LEHE32:
 3813              	.LVL289:
 3814              	.L249:
 3815              	.LBB3951:
 3816              	.LBB3950:
 3817              	.LBB3949:
 3818              	.LBB3948:
 3819              	.LBB3946:
 3820              	.LBB3939:
 3821              	.LBB3940:
 3822              	.LBB3941:
 3823              		.loc 8 66 0
 3824 06c4 8169FFFC 		lwz 11,-4(9)
 3825              	.LVL290:
 3826              	.LBE3941:
 3827              	.LBE3940:
 3828              	.LBE3939:
 3829              		.loc 7 240 0
 3830 06c8 2F8B0000 		cmpwi 7,11,0
 3831              	.LBB3944:
 3832              	.LBB3943:
 3833              	.LBB3942:
 3834              		.loc 8 67 0
 3835 06cc 396BFFFF 		addi 11,11,-1
 3836 06d0 9169FFFC 		stw 11,-4(9)
 3837              	.LBE3942:
 3838              	.LBE3943:
 3839              	.LBE3944:
 3840              		.loc 7 240 0
 3841 06d4 419DFFB4 		bgt+ 7,.L231
 3842              		.loc 7 244 0
 3843 06d8 38810008 		addi 4,1,8
 3844 06dc 48000001 		bl _ZNSs4_Rep10_M_destroyERKSaIcE
 3845              	.LVL291:
 3846 06e0 4BFFFFA8 		b .L231
 3847              	.LVL292:
 3848              	.L246:
 3849              	.LBE3946:
 3850              	.LBE3948:
 3851              	.LBE3949:
 3852              	.LBE3950:
 3853              	.LBE3951:
 3854              	.LBB3952:
 3855              	.LBB3929:
 3856              	.LBB3924:
 3857              	.LBB3925:
 3858              	.LBB3926:
 3859              		.loc 1 343 0
 3860 06e4 813E00CC 		lwz 9,204(30)
 3861 06e8 7C7F1B78 		mr 31,3
 3862              	.LVL293:
 3863 06ec 7F43D378 		mr 3,26
 3864 06f0 8009000C 		lwz 0,12(9)
 3865 06f4 7C0903A6 		mtctr 0
 3866 06f8 4E800421 		bctrl
 3867 06fc 4BFFFFB8 		b .L237
 3868              	.LBE3926:
 3869              	.LBE3925:
 3870              	.LBE3924:
 3871              	.LBE3929:
 3872              	.LBE3952:
 3873              		.cfi_endproc
 3874              	.LFE1689:
 3875              		.section	.gcc_except_table
 3876              	.LLSDA1689:
 3877 00a4 FF       		.byte	0xff
 3878 00a5 FF       		.byte	0xff
 3879 00a6 01       		.byte	0x1
 3880 00a7 1A       		.uleb128 .LLSDACSE1689-.LLSDACSB1689
 3881              	.LLSDACSB1689:
 3882 00a8 58       		.uleb128 .LEHB28-.LFB1689
 3883 00a9 04       		.uleb128 .LEHE28-.LEHB28
 3884 00aa 00       		.uleb128 0
 3885 00ab 00       		.uleb128 0
 3886 00ac 6C       		.uleb128 .LEHB29-.LFB1689
 3887 00ad 04       		.uleb128 .LEHE29-.LEHB29
 3888 00ae 8402     		.uleb128 .L245-.LFB1689
 3889 00b0 00       		.uleb128 0
 3890 00b1 A401     		.uleb128 .LEHB30-.LFB1689
 3891 00b3 04       		.uleb128 .LEHE30-.LEHB30
 3892 00b4 B802     		.uleb128 .L246-.LFB1689
 3893 00b6 00       		.uleb128 0
 3894 00b7 C001     		.uleb128 .LEHB31-.LFB1689
 3895 00b9 04       		.uleb128 .LEHE31-.LEHB31
 3896 00ba 8402     		.uleb128 .L245-.LFB1689
 3897 00bc 00       		.uleb128 0
 3898 00bd 9402     		.uleb128 .LEHB32-.LFB1689
 3899 00bf 04       		.uleb128 .LEHE32-.LEHB32
 3900 00c0 00       		.uleb128 0
 3901 00c1 00       		.uleb128 0
 3902              	.LLSDACSE1689:
 3903              		.section	".text"
 3904              		.size	_ZN11PathBrowser13OnButtonClickEP9GuiButtoniRK6_POINT, .-_ZN11PathBrowser13OnButtonClickEP9G
 3905              		.align 2
 3906              		.globl _ZN11PathBrowser17OnWifiButtonClickEP9GuiButtoniRK6_POINT
 3907              		.type	_ZN11PathBrowser17OnWifiButtonClickEP9GuiButtoniRK6_POINT, @function
 3908              	_ZN11PathBrowser17OnWifiButtonClickEP9GuiButtoniRK6_POINT:
 3909              	.LFB1692:
 3910              		.loc 4 224 0
 3911              		.cfi_startproc
 3912              		.cfi_personality 0,__gxx_personality_v0
 3913              		.cfi_lsda 0,.LLSDA1692
 3914              	.LVL294:
 3915 0700 7C0802A6 		mflr 0
 3916 0704 9421FFB0 		stwu 1,-80(1)
 3917              	.LCFI64:
 3918              		.cfi_def_cfa_offset 80
 3919              		.cfi_register 65, 0
 3920 0708 93E1004C 		stw 31,76(1)
 3921 070c 7C7F1B78 		mr 31,3
 3922              		.cfi_offset 31, -4
 3923 0710 90010054 		stw 0,84(1)
 3924 0714 92E1002C 		stw 23,44(1)
 3925              	.LBB4088:
 3926              		.loc 4 225 0
 3927 0718 808300E4 		lwz 4,228(3)
 3928              	.LVL295:
 3929 071c 38610024 		addi 3,1,36
 3930              	.LVL296:
 3931              	.LBE4088:
 3932              		.loc 4 224 0
 3933 0720 93010030 		stw 24,48(1)
 3934              	.LBB4221:
 3935              		.loc 4 225 0
 3936 0724 81240000 		lwz 9,0(4)
 3937              	.LBE4221:
 3938              		.loc 4 224 0
 3939 0728 93210034 		stw 25,52(1)
 3940              	.LBB4222:
 3941              		.loc 4 225 0
 3942 072c 80090048 		lwz 0,72(9)
 3943              		.cfi_offset 25, -28
 3944              		.cfi_offset 24, -32
 3945              		.cfi_offset 23, -36
 3946              		.cfi_offset 65, 4
 3947              	.LBE4222:
 3948              		.loc 4 224 0
 3949 0730 93410038 		stw 26,56(1)
 3950 0734 9361003C 		stw 27,60(1)
 3951              	.LBB4223:
 3952              		.loc 4 225 0
 3953 0738 7C0903A6 		mtctr 0
 3954              	.LBE4223:
 3955              		.loc 4 224 0
 3956 073c 93810040 		stw 28,64(1)
 3957 0740 93A10044 		stw 29,68(1)
 3958 0744 93C10048 		stw 30,72(1)
 3959              	.LEHB33:
 3960              	.LBB4224:
 3961              		.loc 4 225 0
 3962              		.cfi_offset 30, -8
 3963              		.cfi_offset 29, -12
 3964              		.cfi_offset 28, -16
 3965              		.cfi_offset 27, -20
 3966              		.cfi_offset 26, -24
 3967 0748 4E800421 		bctrl
 3968              	.LEHE33:
 3969              	.LVL297:
 3970              		.loc 4 227 0
 3971 074c 3C600000 		lis 3,.LC6@ha
 3972 0750 3863001C 		la 3,.LC6@l(3)
 3973              	.LEHB34:
 3974 0754 48000001 		bl gettext
 3975 0758 3F800000 		lis 28,.LC7@ha
 3976 075c 7C791B78 		mr 25,3
 3977              	.LVL298:
 3978 0760 3B9C0040 		la 28,.LC7@l(28)
 3979              	.LBB4089:
 3980              	.LBB4090:
 3981              	.LBB4091:
 3982              		.loc 7 288 0
 3983 0764 83410024 		lwz 26,36(1)
 3984              	.LBE4091:
 3985              	.LBE4090:
 3986              	.LBE4089:
 3987              		.loc 4 227 0
 3988 0768 7F83E378 		mr 3,28
 3989 076c 48000001 		bl gettext
 3990              		.loc 4 227 0 is_stmt 0 discriminator 1
 3991 0770 7C7B1B78 		mr 27,3
 3992 0774 3C600000 		lis 3,.LC8@ha
 3993 0778 3863004C 		la 3,.LC8@l(3)
 3994 077c 48000001 		bl gettext
 3995              		.loc 4 227 0 discriminator 3
 3996 0780 3FA00000 		lis 29,.LC9@ha
 3997 0784 7C781B78 		mr 24,3
 3998 0788 3BBD005C 		la 29,.LC9@l(29)
 3999 078c 7FA3EB78 		mr 3,29
 4000 0790 48000001 		bl gettext
 4001              		.loc 4 227 0 discriminator 4
 4002 0794 3FC00000 		lis 30,.LC10@ha
 4003 0798 7C771B78 		mr 23,3
 4004 079c 3BDE006C 		la 30,.LC10@l(30)
 4005 07a0 7FC3F378 		mr 3,30
 4006 07a4 48000001 		bl gettext
 4007              		.loc 4 227 0 discriminator 5
 4008 07a8 7C681B78 		mr 8,3
 4009 07ac 7F44D378 		mr 4,26
 4010 07b0 7F23CB78 		mr 3,25
 4011 07b4 7F65DB78 		mr 5,27
 4012 07b8 7F06C378 		mr 6,24
 4013 07bc 7EE7BB78 		mr 7,23
 4014 07c0 48000001 		bl _Z12WindowPromptPKcS0_S0_S0_S0_S0_
 4015              	.LVL299:
 4016              	.LBB4092:
 4017              		.loc 4 228 0 is_stmt 1 discriminator 6
 4018 07c4 2F830001 		cmpwi 7,3,1
 4019 07c8 419E00A4 		beq- 7,.L307
 4020              	.LBB4093:
 4021              		.loc 4 234 0
 4022 07cc 2F830002 		cmpwi 7,3,2
 4023 07d0 419E00E8 		beq- 7,.L308
 4024              		.loc 4 247 0
 4025 07d4 2F830003 		cmpwi 7,3,3
 4026 07d8 419E0050 		beq- 7,.L304
 4027 07dc 3F600000 		lis 27,_ZNSs4_Rep20_S_empty_rep_storageE@ha
 4028 07e0 3B7B0000 		la 27,_ZNSs4_Rep20_S_empty_rep_storageE@l(27)
 4029              	.LVL300:
 4030              	.L258:
 4031              	.LBE4093:
 4032              	.LBE4092:
 4033              	.LBB4199:
 4034              	.LBB4200:
 4035              	.LBB4201:
 4036              	.LBB4202:
 4037              	.LBB4203:
 4038              	.LBB4204:
 4039              		.loc 7 288 0
 4040 07e4 81210024 		lwz 9,36(1)
 4041              	.LBE4204:
 4042              	.LBE4203:
 4043              	.LBE4202:
 4044              		.loc 7 534 0
 4045 07e8 3869FFF4 		addi 3,9,-12
 4046              	.LVL301:
 4047              	.LBB4205:
 4048              	.LBB4206:
 4049              		.loc 7 235 0
 4050 07ec 7F83D800 		cmpw 7,3,27
 4051 07f0 409E01F4 		bne- 7,.L309
 4052              	.LVL302:
 4053              	.L250:
 4054              	.LBE4206:
 4055              	.LBE4205:
 4056              	.LBE4201:
 4057              	.LBE4200:
 4058              	.LBE4199:
 4059              	.LBE4224:
 4060              		.loc 4 253 0
 4061 07f4 80010054 		lwz 0,84(1)
 4062 07f8 82E1002C 		lwz 23,44(1)
 4063 07fc 7C0803A6 		mtlr 0
 4064 0800 83010030 		lwz 24,48(1)
 4065 0804 83210034 		lwz 25,52(1)
 4066 0808 83410038 		lwz 26,56(1)
 4067 080c 8361003C 		lwz 27,60(1)
 4068 0810 83810040 		lwz 28,64(1)
 4069 0814 83A10044 		lwz 29,68(1)
 4070 0818 83C10048 		lwz 30,72(1)
 4071 081c 83E1004C 		lwz 31,76(1)
 4072              	.LVL303:
 4073 0820 38210050 		addi 1,1,80
 4074              		.cfi_remember_state
 4075              	.LCFI65:
 4076              		.cfi_def_cfa_offset 0
 4077              		.cfi_restore 31
 4078              		.cfi_restore 30
 4079              		.cfi_restore 29
 4080              		.cfi_restore 28
 4081              		.cfi_restore 27
 4082              		.cfi_restore 26
 4083              		.cfi_restore 25
 4084              		.cfi_restore 24
 4085              		.cfi_restore 23
 4086 0824 4E800020 		blr
 4087              	.LVL304:
 4088              	.L304:
 4089              	.LCFI66:
 4090              		.cfi_restore_state
 4091              	.LBB4225:
 4092              	.LBB4217:
 4093              	.LBB4178:
 4094              		.loc 4 249 0
 4095 0828 38610010 		addi 3,1,16
 4096              	.LVL305:
 4097 082c 38810024 		addi 4,1,36
 4098              	.LVL306:
 4099 0830 48000001 		bl _ZNSsC1ERKSs
 4100              	.LEHE34:
 4101              	.LVL307:
 4102              		.loc 4 249 0 is_stmt 0 discriminator 1
 4103 0834 38610010 		addi 3,1,16
 4104              	.LEHB35:
 4105 0838 48000001 		bl _Z19SelectLanguageFilesSs
 4106              	.LEHE35:
 4107              	.LVL308:
 4108              	.LBB4094:
 4109              	.LBB4095:
 4110              	.LBB4096:
 4111              	.LBB4097:
 4112              	.LBB4098:
 4113              	.LBB4099:
 4114              		.loc 7 288 0 is_stmt 1
 4115 083c 81210010 		lwz 9,16(1)
 4116              	.LBE4099:
 4117              	.LBE4098:
 4118              	.LBE4097:
 4119              	.LBB4100:
 4120              	.LBB4101:
 4121              		.loc 7 235 0
 4122 0840 3F600000 		lis 27,_ZNSs4_Rep20_S_empty_rep_storageE@ha
 4123 0844 3B7B0000 		la 27,_ZNSs4_Rep20_S_empty_rep_storageE@l(27)
 4124              	.LBE4101:
 4125              	.LBE4100:
 4126              		.loc 7 534 0
 4127 0848 3869FFF4 		addi 3,9,-12
 4128              	.LVL309:
 4129              	.LBB4110:
 4130              	.LBB4108:
 4131              		.loc 7 235 0
 4132 084c 7F83D800 		cmpw 7,3,27
 4133 0850 409E01B4 		bne- 7,.L310
 4134              	.LVL310:
 4135              	.L284:
 4136              	.LBE4108:
 4137              	.LBE4110:
 4138              	.LBE4096:
 4139              	.LBE4095:
 4140              	.LBE4094:
 4141              		.loc 4 251 0 discriminator 1
 4142 0854 807F00E8 		lwz 3,232(31)
 4143 0858 81230000 		lwz 9,0(3)
 4144 085c 800900CC 		lwz 0,204(9)
 4145 0860 7C0903A6 		mtctr 0
 4146              	.LEHB36:
 4147 0864 4E800421 		bctrl
 4148 0868 4BFFFF7C 		b .L258
 4149              	.LVL311:
 4150              	.L307:
 4151              	.LBE4178:
 4152              		.loc 4 230 0
 4153 086c 38610020 		addi 3,1,32
 4154              	.LVL312:
 4155 0870 38810024 		addi 4,1,36
 4156              	.LVL313:
 4157 0874 48000001 		bl _ZNSsC1ERKSs
 4158              	.LEHE36:
 4159              	.LVL314:
 4160              		.loc 4 230 0 is_stmt 0 discriminator 1
 4161 0878 38610020 		addi 3,1,32
 4162              	.LEHB37:
 4163 087c 48000001 		bl _Z24DownloadAllLanguageFilesSs
 4164              	.LEHE37:
 4165              	.LVL315:
 4166              	.LBB4179:
 4167              	.LBB4180:
 4168              	.LBB4181:
 4169              	.LBB4182:
 4170              	.LBB4183:
 4171              	.LBB4184:
 4172              		.loc 7 288 0 is_stmt 1
 4173 0880 81210020 		lwz 9,32(1)
 4174              	.LBE4184:
 4175              	.LBE4183:
 4176              	.LBE4182:
 4177              	.LBB4185:
 4178              	.LBB4186:
 4179              		.loc 7 235 0
 4180 0884 3F600000 		lis 27,_ZNSs4_Rep20_S_empty_rep_storageE@ha
 4181 0888 3B7B0000 		la 27,_ZNSs4_Rep20_S_empty_rep_storageE@l(27)
 4182              	.LBE4186:
 4183              	.LBE4185:
 4184              		.loc 7 534 0
 4185 088c 3869FFF4 		addi 3,9,-12
 4186              	.LVL316:
 4187              	.LBB4194:
 4188              	.LBB4193:
 4189              		.loc 7 235 0
 4190 0890 7F83D800 		cmpw 7,3,27
 4191 0894 419EFFC0 		beq+ 7,.L284
 4192              	.LVL317:
 4193              	.LBB4187:
 4194              	.LBB4188:
 4195              	.LBB4189:
 4196              		.loc 8 66 0
 4197 0898 8169FFFC 		lwz 11,-4(9)
 4198              	.LVL318:
 4199              	.LBE4189:
 4200              	.LBE4188:
 4201              	.LBE4187:
 4202              		.loc 7 240 0
 4203 089c 2F8B0000 		cmpwi 7,11,0
 4204              	.LBB4192:
 4205              	.LBB4191:
 4206              	.LBB4190:
 4207              		.loc 8 67 0
 4208 08a0 396BFFFF 		addi 11,11,-1
 4209 08a4 9169FFFC 		stw 11,-4(9)
 4210              	.LBE4190:
 4211              	.LBE4191:
 4212              	.LBE4192:
 4213              		.loc 7 240 0
 4214 08a8 419DFFAC 		bgt+ 7,.L284
 4215              		.loc 7 244 0
 4216 08ac 3881000D 		addi 4,1,13
 4217 08b0 48000001 		bl _ZNSs4_Rep10_M_destroyERKSaIcE
 4218              	.LVL319:
 4219 08b4 4BFFFFA0 		b .L284
 4220              	.LVL320:
 4221              	.L308:
 4222              	.LBE4193:
 4223              	.LBE4194:
 4224              	.LBE4181:
 4225              	.LBE4180:
 4226              	.LBE4179:
 4227              	.LBB4195:
 4228              	.LBB4114:
 4229              	.LBB4115:
 4230              		.loc 4 236 0
 4231 08b8 3861001C 		addi 3,1,28
 4232              	.LVL321:
 4233 08bc 38810024 		addi 4,1,36
 4234              	.LVL322:
 4235              	.LEHB38:
 4236 08c0 48000001 		bl _ZNSsC1ERKSs
 4237              	.LEHE38:
 4238              	.LVL323:
 4239              		.loc 4 236 0 is_stmt 0 discriminator 1
 4240 08c4 3861001C 		addi 3,1,28
 4241              	.LEHB39:
 4242 08c8 48000001 		bl _Z19UpdateLanguageFilesSs
 4243              	.LEHE39:
 4244              	.LBB4116:
 4245              	.LBB4117:
 4246              	.LBB4118:
 4247              	.LBB4119:
 4248              	.LBB4120:
 4249              	.LBB4121:
 4250              		.loc 7 288 0 is_stmt 1 discriminator 1
 4251 08cc 8121001C 		lwz 9,28(1)
 4252              	.LBE4121:
 4253              	.LBE4120:
 4254              	.LBE4119:
 4255              	.LBB4122:
 4256              	.LBB4123:
 4257              		.loc 7 235 0 discriminator 1
 4258 08d0 3F600000 		lis 27,_ZNSs4_Rep20_S_empty_rep_storageE@ha
 4259              	.LBE4123:
 4260              	.LBE4122:
 4261              	.LBE4118:
 4262              	.LBE4117:
 4263              	.LBE4116:
 4264              		.loc 4 236 0 discriminator 1
 4265 08d4 7C7A1B78 		mr 26,3
 4266              	.LVL324:
 4267              	.LBB4140:
 4268              	.LBB4138:
 4269              	.LBB4136:
 4270              	.LBB4133:
 4271              	.LBB4130:
 4272              		.loc 7 235 0 discriminator 1
 4273 08d8 3B7B0000 		la 27,_ZNSs4_Rep20_S_empty_rep_storageE@l(27)
 4274              	.LBE4130:
 4275              	.LBE4133:
 4276              		.loc 7 534 0 discriminator 1
 4277 08dc 3869FFF4 		addi 3,9,-12
 4278              	.LVL325:
 4279              	.LBB4134:
 4280              	.LBB4131:
 4281              		.loc 7 235 0 discriminator 1
 4282 08e0 7F83D800 		cmpw 7,3,27
 4283 08e4 409E0174 		bne- 7,.L311
 4284              	.LVL326:
 4285              	.L265:
 4286              	.LBE4131:
 4287              	.LBE4134:
 4288              	.LBE4136:
 4289              	.LBE4138:
 4290              	.LBE4140:
 4291              		.loc 4 236 0 discriminator 2
 4292 08e8 2F9A0000 		cmpwi 7,26,0
 4293 08ec 40BEFF68 		bne- 7,.L284
 4294              	.LBB4141:
 4295              		.loc 4 238 0
 4296 08f0 3C600000 		lis 3,.LC11@ha
 4297 08f4 38630074 		la 3,.LC11@l(3)
 4298              	.LEHB40:
 4299 08f8 48000001 		bl gettext
 4300 08fc 7C791B78 		mr 25,3
 4301 0900 3C600000 		lis 3,.LC12@ha
 4302 0904 3863008C 		la 3,.LC12@l(3)
 4303 0908 48000001 		bl gettext
 4304              		.loc 4 238 0 is_stmt 0 discriminator 1
 4305 090c 7C7A1B78 		mr 26,3
 4306 0910 7F83E378 		mr 3,28
 4307 0914 48000001 		bl gettext
 4308              		.loc 4 238 0 discriminator 2
 4309 0918 7C7C1B78 		mr 28,3
 4310 091c 7FA3EB78 		mr 3,29
 4311 0920 48000001 		bl gettext
 4312              		.loc 4 238 0 discriminator 3
 4313 0924 7C7D1B78 		mr 29,3
 4314 0928 7FC3F378 		mr 3,30
 4315 092c 48000001 		bl gettext
 4316              		.loc 4 238 0 discriminator 4
 4317 0930 7C671B78 		mr 7,3
 4318 0934 7F44D378 		mr 4,26
 4319 0938 7F23CB78 		mr 3,25
 4320 093c 7F85E378 		mr 5,28
 4321 0940 7FA6EB78 		mr 6,29
 4322 0944 39000000 		li 8,0
 4323 0948 48000001 		bl _Z12WindowPromptPKcS0_S0_S0_S0_S0_
 4324              	.LVL327:
 4325              		.loc 4 239 0 is_stmt 1 discriminator 5
 4326 094c 2F830001 		cmpwi 7,3,1
 4327 0950 419E0050 		beq- 7,.L312
 4328              		.loc 4 241 0
 4329 0954 2F830002 		cmpwi 7,3,2
 4330 0958 409EFEFC 		bne+ 7,.L284
 4331              		.loc 4 242 0
 4332 095c 38610014 		addi 3,1,20
 4333              	.LVL328:
 4334 0960 38810024 		addi 4,1,36
 4335              	.LVL329:
 4336 0964 48000001 		bl _ZNSsC1ERKSs
 4337              	.LEHE40:
 4338              	.LVL330:
 4339              		.loc 4 242 0 is_stmt 0 discriminator 1
 4340 0968 38610014 		addi 3,1,20
 4341              	.LEHB41:
 4342 096c 48000001 		bl _Z19SelectLanguageFilesSs
 4343              	.LEHE41:
 4344              	.LVL331:
 4345              	.LBB4142:
 4346              	.LBB4143:
 4347              	.LBB4144:
 4348              	.LBB4145:
 4349              	.LBB4146:
 4350              	.LBB4147:
 4351              		.loc 7 288 0 is_stmt 1
 4352 0970 81210014 		lwz 9,20(1)
 4353              	.LBE4147:
 4354              	.LBE4146:
 4355              	.LBE4145:
 4356              		.loc 7 534 0
 4357 0974 3869FFF4 		addi 3,9,-12
 4358              	.LVL332:
 4359              	.LBB4148:
 4360              	.LBB4149:
 4361              		.loc 7 235 0
 4362 0978 7F83D800 		cmpw 7,3,27
 4363 097c 419EFED8 		beq+ 7,.L284
 4364              	.LVL333:
 4365              	.LBB4150:
 4366              	.LBB4151:
 4367              	.LBB4152:
 4368              		.loc 8 66 0
 4369 0980 8169FFFC 		lwz 11,-4(9)
 4370              	.LVL334:
 4371              	.LBE4152:
 4372              	.LBE4151:
 4373              	.LBE4150:
 4374              		.loc 7 240 0
 4375 0984 2F8B0000 		cmpwi 7,11,0
 4376              	.LBB4155:
 4377              	.LBB4154:
 4378              	.LBB4153:
 4379              		.loc 8 67 0
 4380 0988 396BFFFF 		addi 11,11,-1
 4381 098c 9169FFFC 		stw 11,-4(9)
 4382              	.LBE4153:
 4383              	.LBE4154:
 4384              	.LBE4155:
 4385              		.loc 7 240 0
 4386 0990 419DFEC4 		bgt+ 7,.L284
 4387              		.loc 7 244 0
 4388 0994 3881000A 		addi 4,1,10
 4389 0998 48000001 		bl _ZNSs4_Rep10_M_destroyERKSaIcE
 4390              	.LVL335:
 4391 099c 4BFFFEB8 		b .L284
 4392              	.LVL336:
 4393              	.L312:
 4394              	.LBE4149:
 4395              	.LBE4148:
 4396              	.LBE4144:
 4397              	.LBE4143:
 4398              	.LBE4142:
 4399              		.loc 4 240 0
 4400 09a0 38610018 		addi 3,1,24
 4401              	.LVL337:
 4402 09a4 38810024 		addi 4,1,36
 4403              	.LVL338:
 4404              	.LEHB42:
 4405 09a8 48000001 		bl _ZNSsC1ERKSs
 4406              	.LEHE42:
 4407              	.LVL339:
 4408              		.loc 4 240 0 is_stmt 0 discriminator 1
 4409 09ac 38610018 		addi 3,1,24
 4410              	.LEHB43:
 4411 09b0 48000001 		bl _Z24DownloadAllLanguageFilesSs
 4412              	.LEHE43:
 4413              	.LVL340:
 4414              	.LBB4156:
 4415              	.LBB4157:
 4416              	.LBB4158:
 4417              	.LBB4159:
 4418              	.LBB4160:
 4419              	.LBB4161:
 4420              		.loc 7 288 0 is_stmt 1
 4421 09b4 81210018 		lwz 9,24(1)
 4422              	.LBE4161:
 4423              	.LBE4160:
 4424              	.LBE4159:
 4425              		.loc 7 534 0
 4426 09b8 3869FFF4 		addi 3,9,-12
 4427              	.LVL341:
 4428              	.LBB4162:
 4429              	.LBB4163:
 4430              		.loc 7 235 0
 4431 09bc 7F83D800 		cmpw 7,3,27
 4432 09c0 419EFE94 		beq+ 7,.L284
 4433              	.LVL342:
 4434              	.LBB4164:
 4435              	.LBB4165:
 4436              	.LBB4166:
 4437              		.loc 8 66 0
 4438 09c4 8169FFFC 		lwz 11,-4(9)
 4439              	.LVL343:
 4440              	.LBE4166:
 4441              	.LBE4165:
 4442              	.LBE4164:
 4443              		.loc 7 240 0
 4444 09c8 2F8B0000 		cmpwi 7,11,0
 4445              	.LBB4169:
 4446              	.LBB4168:
 4447              	.LBB4167:
 4448              		.loc 8 67 0
 4449 09cc 396BFFFF 		addi 11,11,-1
 4450 09d0 9169FFFC 		stw 11,-4(9)
 4451              	.LBE4167:
 4452              	.LBE4168:
 4453              	.LBE4169:
 4454              		.loc 7 240 0
 4455 09d4 419DFE80 		bgt+ 7,.L284
 4456              		.loc 7 244 0
 4457 09d8 3881000B 		addi 4,1,11
 4458 09dc 48000001 		bl _ZNSs4_Rep10_M_destroyERKSaIcE
 4459              	.LVL344:
 4460 09e0 4BFFFE74 		b .L284
 4461              	.LVL345:
 4462              	.L309:
 4463              	.LBE4163:
 4464              	.LBE4162:
 4465              	.LBE4158:
 4466              	.LBE4157:
 4467              	.LBE4156:
 4468              	.LBE4141:
 4469              	.LBE4115:
 4470              	.LBE4114:
 4471              	.LBE4195:
 4472              	.LBE4217:
 4473              	.LBB4218:
 4474              	.LBB4216:
 4475              	.LBB4215:
 4476              	.LBB4214:
 4477              	.LBB4213:
 4478              	.LBB4207:
 4479              	.LBB4208:
 4480              	.LBB4209:
 4481              		.loc 8 66 0
 4482 09e4 8169FFFC 		lwz 11,-4(9)
 4483              	.LVL346:
 4484              	.LBE4209:
 4485              	.LBE4208:
 4486              	.LBE4207:
 4487              		.loc 7 240 0
 4488 09e8 2F8B0000 		cmpwi 7,11,0
 4489              	.LBB4212:
 4490              	.LBB4211:
 4491              	.LBB4210:
 4492              		.loc 8 67 0
 4493 09ec 396BFFFF 		addi 11,11,-1
 4494 09f0 9169FFFC 		stw 11,-4(9)
 4495              	.LBE4210:
 4496              	.LBE4211:
 4497              	.LBE4212:
 4498              		.loc 7 240 0
 4499 09f4 419DFE00 		bgt+ 7,.L250
 4500              		.loc 7 244 0
 4501 09f8 38810008 		addi 4,1,8
 4502 09fc 48000001 		bl _ZNSs4_Rep10_M_destroyERKSaIcE
 4503              	.LVL347:
 4504 0a00 4BFFFDF4 		b .L250
 4505              	.LVL348:
 4506              	.L310:
 4507              	.LBE4213:
 4508              	.LBE4214:
 4509              	.LBE4215:
 4510              	.LBE4216:
 4511              	.LBE4218:
 4512              	.LBB4219:
 4513              	.LBB4196:
 4514              	.LBB4175:
 4515              	.LBB4113:
 4516              	.LBB4112:
 4517              	.LBB4111:
 4518              	.LBB4109:
 4519              	.LBB4102:
 4520              	.LBB4103:
 4521              	.LBB4104:
 4522              		.loc 8 66 0
 4523 0a04 8169FFFC 		lwz 11,-4(9)
 4524              	.LVL349:
 4525              	.LBE4104:
 4526              	.LBE4103:
 4527              	.LBE4102:
 4528              		.loc 7 240 0
 4529 0a08 2F8B0000 		cmpwi 7,11,0
 4530              	.LBB4107:
 4531              	.LBB4106:
 4532              	.LBB4105:
 4533              		.loc 8 67 0
 4534 0a0c 396BFFFF 		addi 11,11,-1
 4535 0a10 9169FFFC 		stw 11,-4(9)
 4536              	.LBE4105:
 4537              	.LBE4106:
 4538              	.LBE4107:
 4539              		.loc 7 240 0
 4540 0a14 419DFE40 		bgt+ 7,.L284
 4541              		.loc 7 244 0
 4542 0a18 38810009 		addi 4,1,9
 4543 0a1c 48000001 		bl _ZNSs4_Rep10_M_destroyERKSaIcE
 4544              	.LVL350:
 4545 0a20 4BFFFE34 		b .L284
 4546              	.LVL351:
 4547              	.L302:
 4548 0a24 7C7F1B78 		mr 31,3
 4549              	.LVL352:
 4550              	.LBE4109:
 4551              	.LBE4111:
 4552              	.LBE4112:
 4553              	.LBE4113:
 4554              	.LBE4175:
 4555              		.loc 4 249 0
 4556 0a28 38610010 		addi 3,1,16
 4557 0a2c 48000001 		bl _ZNSsD1Ev
 4558              	.LVL353:
 4559              	.L292:
 4560              	.LBE4196:
 4561              	.LBE4219:
 4562              		.loc 4 252 0
 4563 0a30 38610024 		addi 3,1,36
 4564 0a34 48000001 		bl _ZNSsD1Ev
 4565 0a38 7FE3FB78 		mr 3,31
 4566              	.LEHB44:
 4567 0a3c 48000001 		bl _Unwind_Resume
 4568              	.LEHE44:
 4569              	.LVL354:
 4570              	.L297:
 4571 0a40 7C7F1B78 		mr 31,3
 4572              	.LVL355:
 4573 0a44 4BFFFFEC 		b .L292
 4574              	.LVL356:
 4575              	.L300:
 4576 0a48 7C7F1B78 		mr 31,3
 4577              	.LVL357:
 4578              	.LBB4220:
 4579              	.LBB4197:
 4580              	.LBB4176:
 4581              	.LBB4173:
 4582              	.LBB4170:
 4583              		.loc 4 240 0
 4584 0a4c 38610018 		addi 3,1,24
 4585 0a50 48000001 		bl _ZNSsD1Ev
 4586 0a54 4BFFFFDC 		b .L292
 4587              	.LVL358:
 4588              	.L311:
 4589              	.LBE4170:
 4590              	.LBB4171:
 4591              	.LBB4139:
 4592              	.LBB4137:
 4593              	.LBB4135:
 4594              	.LBB4132:
 4595              	.LBB4124:
 4596              	.LBB4125:
 4597              	.LBB4126:
 4598              		.loc 8 66 0
 4599 0a58 8169FFFC 		lwz 11,-4(9)
 4600              	.LVL359:
 4601              	.LBE4126:
 4602              	.LBE4125:
 4603              	.LBE4124:
 4604              		.loc 7 240 0
 4605 0a5c 2F8B0000 		cmpwi 7,11,0
 4606              	.LBB4129:
 4607              	.LBB4128:
 4608              	.LBB4127:
 4609              		.loc 8 67 0
 4610 0a60 396BFFFF 		addi 11,11,-1
 4611 0a64 9169FFFC 		stw 11,-4(9)
 4612              	.LBE4127:
 4613              	.LBE4128:
 4614              	.LBE4129:
 4615              		.loc 7 240 0
 4616 0a68 419DFE80 		bgt+ 7,.L265
 4617              		.loc 7 244 0
 4618 0a6c 3881000C 		addi 4,1,12
 4619 0a70 48000001 		bl _ZNSs4_Rep10_M_destroyERKSaIcE
 4620              	.LVL360:
 4621 0a74 4BFFFE74 		b .L265
 4622              	.LVL361:
 4623              	.L299:
 4624 0a78 7C7F1B78 		mr 31,3
 4625              	.LVL362:
 4626              	.LBE4132:
 4627              	.LBE4135:
 4628              	.LBE4137:
 4629              	.LBE4139:
 4630              	.LBE4171:
 4631              		.loc 4 236 0
 4632 0a7c 3861001C 		addi 3,1,28
 4633 0a80 48000001 		bl _ZNSsD1Ev
 4634 0a84 4BFFFFAC 		b .L292
 4635              	.LVL363:
 4636              	.L298:
 4637 0a88 7C7F1B78 		mr 31,3
 4638              	.LVL364:
 4639              	.LBE4173:
 4640              	.LBE4176:
 4641              	.LBE4197:
 4642              		.loc 4 230 0
 4643 0a8c 38610020 		addi 3,1,32
 4644 0a90 48000001 		bl _ZNSsD1Ev
 4645 0a94 4BFFFF9C 		b .L292
 4646              	.LVL365:
 4647              	.L301:
 4648 0a98 7C7F1B78 		mr 31,3
 4649              	.LVL366:
 4650              	.LBB4198:
 4651              	.LBB4177:
 4652              	.LBB4174:
 4653              	.LBB4172:
 4654              		.loc 4 242 0
 4655 0a9c 38610014 		addi 3,1,20
 4656 0aa0 48000001 		bl _ZNSsD1Ev
 4657 0aa4 4BFFFF8C 		b .L292
 4658              	.LBE4172:
 4659              	.LBE4174:
 4660              	.LBE4177:
 4661              	.LBE4198:
 4662              	.LBE4220:
 4663              	.LBE4225:
 4664              		.cfi_endproc
 4665              	.LFE1692:
 4666              		.section	.gcc_except_table
 4667              	.LLSDA1692:
 4668 00c2 FF       		.byte	0xff
 4669 00c3 FF       		.byte	0xff
 4670 00c4 01       		.byte	0x1
 4671 00c5 45       		.uleb128 .LLSDACSE1692-.LLSDACSB1692
 4672              	.LLSDACSB1692:
 4673 00c6 48       		.uleb128 .LEHB33-.LFB1692
 4674 00c7 04       		.uleb128 .LEHE33-.LEHB33
 4675 00c8 00       		.uleb128 0
 4676 00c9 00       		.uleb128 0
 4677 00ca 54       		.uleb128 .LEHB34-.LFB1692
 4678 00cb E001     		.uleb128 .LEHE34-.LEHB34
 4679 00cd C006     		.uleb128 .L297-.LFB1692
 4680 00cf 00       		.uleb128 0
 4681 00d0 B802     		.uleb128 .LEHB35-.LFB1692
 4682 00d2 04       		.uleb128 .LEHE35-.LEHB35
 4683 00d3 A406     		.uleb128 .L302-.LFB1692
 4684 00d5 00       		.uleb128 0
 4685 00d6 E402     		.uleb128 .LEHB36-.LFB1692
 4686 00d8 14       		.uleb128 .LEHE36-.LEHB36
 4687 00d9 C006     		.uleb128 .L297-.LFB1692
 4688 00db 00       		.uleb128 0
 4689 00dc FC02     		.uleb128 .LEHB37-.LFB1692
 4690 00de 04       		.uleb128 .LEHE37-.LEHB37
 4691 00df 8807     		.uleb128 .L298-.LFB1692
 4692 00e1 00       		.uleb128 0
 4693 00e2 C003     		.uleb128 .LEHB38-.LFB1692
 4694 00e4 04       		.uleb128 .LEHE38-.LEHB38
 4695 00e5 C006     		.uleb128 .L297-.LFB1692
 4696 00e7 00       		.uleb128 0
 4697 00e8 C803     		.uleb128 .LEHB39-.LFB1692
 4698 00ea 04       		.uleb128 .LEHE39-.LEHB39
 4699 00eb F806     		.uleb128 .L299-.LFB1692
 4700 00ed 00       		.uleb128 0
 4701 00ee F803     		.uleb128 .LEHB40-.LFB1692
 4702 00f0 70       		.uleb128 .LEHE40-.LEHB40
 4703 00f1 C006     		.uleb128 .L297-.LFB1692
 4704 00f3 00       		.uleb128 0
 4705 00f4 EC04     		.uleb128 .LEHB41-.LFB1692
 4706 00f6 04       		.uleb128 .LEHE41-.LEHB41
 4707 00f7 9807     		.uleb128 .L301-.LFB1692
 4708 00f9 00       		.uleb128 0
 4709 00fa A805     		.uleb128 .LEHB42-.LFB1692
 4710 00fc 04       		.uleb128 .LEHE42-.LEHB42
 4711 00fd C006     		.uleb128 .L297-.LFB1692
 4712 00ff 00       		.uleb128 0
 4713 0100 B005     		.uleb128 .LEHB43-.LFB1692
 4714 0102 04       		.uleb128 .LEHE43-.LEHB43
 4715 0103 C806     		.uleb128 .L300-.LFB1692
 4716 0105 00       		.uleb128 0
 4717 0106 BC06     		.uleb128 .LEHB44-.LFB1692
 4718 0108 04       		.uleb128 .LEHE44-.LEHB44
 4719 0109 00       		.uleb128 0
 4720 010a 00       		.uleb128 0
 4721              	.LLSDACSE1692:
 4722              		.section	".text"
 4723              		.size	_ZN11PathBrowser17OnWifiButtonClickEP9GuiButtoniRK6_POINT, .-_ZN11PathBrowser17OnWifiButtonC
 4724              		.align 2
 4725              		.globl _ZN11PathBrowser14SetDeviceImageEv
 4726              		.type	_ZN11PathBrowser14SetDeviceImageEv, @function
 4727              	_ZN11PathBrowser14SetDeviceImageEv:
 4728              	.LFB1688:
 4729              		.loc 4 174 0
 4730              		.cfi_startproc
 4731              		.cfi_personality 0,__gxx_personality_v0
 4732              		.cfi_lsda 0,.LLSDA1688
 4733              	.LVL367:
 4734 0aa8 7C0802A6 		mflr 0
 4735 0aac 9421FFF0 		stwu 1,-16(1)
 4736              	.LCFI67:
 4737              		.cfi_def_cfa_offset 16
 4738              		.cfi_register 65, 0
 4739 0ab0 93E1000C 		stw 31,12(1)
 4740 0ab4 7C7F1B78 		mr 31,3
 4741              		.cfi_offset 31, -4
 4742 0ab8 90010014 		stw 0,20(1)
 4743 0abc 93C10008 		stw 30,8(1)
 4744              		.loc 4 175 0
 4745 0ac0 8063010C 		lwz 3,268(3)
 4746              	.LVL368:
 4747 0ac4 2F830000 		cmpwi 7,3,0
 4748 0ac8 419E0014 		beq- 7,.L314
 4749              		.cfi_offset 30, -8
 4750              		.cfi_offset 65, 4
 4751              		.loc 4 176 0 discriminator 1
 4752 0acc 81230000 		lwz 9,0(3)
 4753 0ad0 80090004 		lwz 0,4(9)
 4754 0ad4 7C0903A6 		mtctr 0
 4755              	.LEHB45:
 4756 0ad8 4E800421 		bctrl
 4757              	.L314:
 4758              		.loc 4 178 0
 4759 0adc 801F00DC 		lwz 0,220(31)
 4760              		.loc 4 179 0
 4761 0ae0 386000C4 		li 3,196
 4762              		.loc 4 178 0
 4763 0ae4 2F800000 		cmpwi 7,0,0
 4764 0ae8 409E0048 		bne- 7,.L315
 4765              		.loc 4 179 0
 4766 0aec 48000001 		bl _Znwj
 4767              	.LEHE45:
 4768 0af0 809F00F8 		lwz 4,248(31)
 4769 0af4 7C7E1B78 		mr 30,3
 4770              	.LEHB46:
 4771 0af8 48000001 		bl _ZN8GuiImageC1EP12GuiImageData
 4772              	.LEHE46:
 4773              		.loc 4 181 0 discriminator 1
 4774 0afc 93DF010C 		stw 30,268(31)
 4775              		.loc 4 183 0 discriminator 1
 4776 0b00 7FC4F378 		mr 4,30
 4777 0b04 807F0120 		lwz 3,288(31)
 4778              	.LEHB47:
 4779 0b08 48000001 		bl _ZN9GuiButton8SetImageEP8GuiImage
 4780              		.loc 4 184 0 discriminator 1
 4781 0b0c 807F0120 		lwz 3,288(31)
 4782 0b10 809F010C 		lwz 4,268(31)
 4783 0b14 48000001 		bl _ZN9GuiButton12SetImageOverEP8GuiImage
 4784              		.loc 4 185 0 discriminator 1
 4785 0b18 80010014 		lwz 0,20(1)
 4786 0b1c 83C10008 		lwz 30,8(1)
 4787 0b20 7C0803A6 		mtlr 0
 4788 0b24 83E1000C 		lwz 31,12(1)
 4789              	.LVL369:
 4790 0b28 38210010 		addi 1,1,16
 4791              		.cfi_remember_state
 4792              	.LCFI68:
 4793              		.cfi_def_cfa_offset 0
 4794              		.cfi_restore 31
 4795              		.cfi_restore 30
 4796 0b2c 4E800020 		blr
 4797              	.LVL370:
 4798              	.L315:
 4799              	.LCFI69:
 4800              		.cfi_restore_state
 4801              		.loc 4 181 0
 4802 0b30 48000001 		bl _Znwj
 4803              	.LEHE47:
 4804 0b34 809F00FC 		lwz 4,252(31)
 4805 0b38 7C7E1B78 		mr 30,3
 4806              	.LEHB48:
 4807 0b3c 48000001 		bl _ZN8GuiImageC1EP12GuiImageData
 4808              	.LEHE48:
 4809 0b40 93DF010C 		stw 30,268(31)
 4810              		.loc 4 183 0
 4811 0b44 7FC4F378 		mr 4,30
 4812 0b48 807F0120 		lwz 3,288(31)
 4813              	.LEHB49:
 4814 0b4c 48000001 		bl _ZN9GuiButton8SetImageEP8GuiImage
 4815              		.loc 4 184 0
 4816 0b50 807F0120 		lwz 3,288(31)
 4817 0b54 809F010C 		lwz 4,268(31)
 4818 0b58 48000001 		bl _ZN9GuiButton12SetImageOverEP8GuiImage
 4819              		.loc 4 185 0
 4820 0b5c 80010014 		lwz 0,20(1)
 4821 0b60 83C10008 		lwz 30,8(1)
 4822 0b64 7C0803A6 		mtlr 0
 4823 0b68 83E1000C 		lwz 31,12(1)
 4824              	.LVL371:
 4825 0b6c 38210010 		addi 1,1,16
 4826              		.cfi_remember_state
 4827              		.cfi_restore 30
 4828              		.cfi_restore 31
 4829              	.LCFI70:
 4830              		.cfi_def_cfa_offset 0
 4831 0b70 4E800020 		blr
 4832              	.LVL372:
 4833              	.L319:
 4834              	.L322:
 4835              	.LCFI71:
 4836              		.cfi_restore_state
 4837 0b74 7C7F1B78 		mr 31,3
 4838              	.LVL373:
 4839              		.loc 4 181 0
 4840 0b78 7FC3F378 		mr 3,30
 4841 0b7c 48000001 		bl _ZdlPv
 4842 0b80 7FE3FB78 		mr 3,31
 4843 0b84 48000001 		bl _Unwind_Resume
 4844              	.LEHE49:
 4845              	.LVL374:
 4846              	.L320:
 4847 0b88 4BFFFFEC 		b .L322
 4848              		.cfi_endproc
 4849              	.LFE1688:
 4850              		.section	.gcc_except_table
 4851              	.LLSDA1688:
 4852 010b FF       		.byte	0xff
 4853 010c FF       		.byte	0xff
 4854 010d 01       		.byte	0x1
 4855 010e 18       		.uleb128 .LLSDACSE1688-.LLSDACSB1688
 4856              	.LLSDACSB1688:
 4857 010f 30       		.uleb128 .LEHB45-.LFB1688
 4858 0110 18       		.uleb128 .LEHE45-.LEHB45
 4859 0111 00       		.uleb128 0
 4860 0112 00       		.uleb128 0
 4861 0113 50       		.uleb128 .LEHB46-.LFB1688
 4862 0114 04       		.uleb128 .LEHE46-.LEHB46
 4863 0115 CC01     		.uleb128 .L319-.LFB1688
 4864 0117 00       		.uleb128 0
 4865 0118 60       		.uleb128 .LEHB47-.LFB1688
 4866 0119 2C       		.uleb128 .LEHE47-.LEHB47
 4867 011a 00       		.uleb128 0
 4868 011b 00       		.uleb128 0
 4869 011c 9401     		.uleb128 .LEHB48-.LFB1688
 4870 011e 04       		.uleb128 .LEHE48-.LEHB48
 4871 011f E001     		.uleb128 .L320-.LFB1688
 4872 0121 00       		.uleb128 0
 4873 0122 A401     		.uleb128 .LEHB49-.LFB1688
 4874 0124 3C       		.uleb128 .LEHE49-.LEHB49
 4875 0125 00       		.uleb128 0
 4876 0126 00       		.uleb128 0
 4877              	.LLSDACSE1688:
 4878              		.section	".text"
 4879              		.size	_ZN11PathBrowser14SetDeviceImageEv, .-_ZN11PathBrowser14SetDeviceImageEv
 4880              		.align 2
 4881              		.globl _ZN11PathBrowser16OnDevButtonClickEP9GuiButtoniRK6_POINT
 4882              		.type	_ZN11PathBrowser16OnDevButtonClickEP9GuiButtoniRK6_POINT, @function
 4883              	_ZN11PathBrowser16OnDevButtonClickEP9GuiButtoniRK6_POINT:
 4884              	.LFB1691:
 4885              		.loc 4 208 0
 4886              		.cfi_startproc
 4887              		.cfi_personality 0,__gxx_personality_v0
 4888              		.cfi_lsda 0,.LLSDA1691
 4889              	.LVL375:
 4890 0b8c 7C0802A6 		mflr 0
 4891 0b90 9421FFD8 		stwu 1,-40(1)
 4892              	.LCFI72:
 4893              		.cfi_def_cfa_offset 40
 4894              		.cfi_register 65, 0
 4895 0b94 93810018 		stw 28,24(1)
 4896 0b98 9001002C 		stw 0,44(1)
 4897 0b9c 93A1001C 		stw 29,28(1)
 4898 0ba0 93C10020 		stw 30,32(1)
 4899 0ba4 93E10024 		stw 31,36(1)
 4900 0ba8 7C7F1B78 		mr 31,3
 4901              		.cfi_offset 31, -4
 4902              		.cfi_offset 30, -8
 4903              		.cfi_offset 29, -12
 4904              		.cfi_offset 65, 4
 4905              		.cfi_offset 28, -16
 4906              	.LVL376:
 4907              	.L325:
 4908              		.loc 4 211 0
 4909 0bac 813F00DC 		lwz 9,220(31)
 4910 0bb0 38090001 		addi 0,9,1
 4911              		.loc 4 212 0
 4912 0bb4 2F80000A 		cmpwi 7,0,10
 4913              		.loc 4 211 0
 4914 0bb8 901F00DC 		stw 0,220(31)
 4915              		.loc 4 212 0
 4916 0bbc 409D000C 		ble- 7,.L324
 4917              		.loc 4 213 0
 4918 0bc0 38000000 		li 0,0
 4919 0bc4 901F00DC 		stw 0,220(31)
 4920              	.L324:
 4921              	.LEHB50:
 4922              		.loc 4 215 0
 4923 0bc8 48000001 		bl _ZN13DeviceHandler8InstanceEv
 4924 0bcc 809F00DC 		lwz 4,220(31)
 4925 0bd0 48000001 		bl _ZN13DeviceHandler10IsInsertedEi
 4926              		.loc 4 209 0
 4927 0bd4 2F830000 		cmpwi 7,3,0
 4928 0bd8 419EFFD4 		beq+ 7,.L325
 4929              		.loc 4 217 0
 4930 0bdc 801F00DC 		lwz 0,220(31)
 4931 0be0 3C800000 		lis 4,.LANCHOR0@ha
 4932 0be4 83DF00E0 		lwz 30,224(31)
 4933 0be8 38840000 		la 4,.LANCHOR0@l(4)
 4934 0bec 1C000006 		mulli 0,0,6
 4935 0bf0 3C600000 		lis 3,.LC13@ha
 4936 0bf4 813E0000 		lwz 9,0(30)
 4937 0bf8 38630098 		la 3,.LC13@l(3)
 4938 0bfc 7C840214 		add 4,4,0
 4939 0c00 83A90008 		lwz 29,8(9)
 4940 0c04 4CC63182 		crxor 6,6,6
 4941 0c08 48000001 		bl _Z3fmtPKcz
 4942 0c0c 7C641B78 		mr 4,3
 4943 0c10 38A1000A 		addi 5,1,10
 4944 0c14 38610010 		addi 3,1,16
 4945 0c18 48000001 		bl _ZNSsC1EPKcRKSaIcE
 4946              	.LEHE50:
 4947 0c1c 7FC3F378 		mr 3,30
 4948 0c20 38810010 		addi 4,1,16
 4949 0c24 7FA903A6 		mtctr 29
 4950              	.LEHB51:
 4951 0c28 4E800421 		bctrl
 4952              	.LEHE51:
 4953              	.LVL377:
 4954              	.LBB4272:
 4955              	.LBB4273:
 4956              	.LBB4274:
 4957              	.LBB4275:
 4958              	.LBB4276:
 4959              	.LBB4277:
 4960              		.loc 7 288 0
 4961 0c2c 81210010 		lwz 9,16(1)
 4962              	.LBE4277:
 4963              	.LBE4276:
 4964              	.LBE4275:
 4965              	.LBB4278:
 4966              	.LBB4279:
 4967              		.loc 7 235 0
 4968 0c30 3FC00000 		lis 30,_ZNSs4_Rep20_S_empty_rep_storageE@ha
 4969 0c34 3BDE0000 		la 30,_ZNSs4_Rep20_S_empty_rep_storageE@l(30)
 4970              	.LBE4279:
 4971              	.LBE4278:
 4972              		.loc 7 534 0
 4973 0c38 3869FFF4 		addi 3,9,-12
 4974              	.LVL378:
 4975              	.LBB4288:
 4976              	.LBB4286:
 4977              		.loc 7 235 0
 4978 0c3c 7F83F000 		cmpw 7,3,30
 4979 0c40 409E0070 		bne- 7,.L345
 4980              	.LVL379:
 4981              	.L333:
 4982              	.LBE4286:
 4983              	.LBE4288:
 4984              	.LBE4274:
 4985              	.LBE4273:
 4986              	.LBE4272:
 4987              		.loc 4 218 0 discriminator 1
 4988 0c44 809F00E4 		lwz 4,228(31)
 4989 0c48 3861000C 		addi 3,1,12
 4990 0c4c 83BF011C 		lwz 29,284(31)
 4991 0c50 81240000 		lwz 9,0(4)
 4992 0c54 80090048 		lwz 0,72(9)
 4993 0c58 813D0000 		lwz 9,0(29)
 4994 0c5c 7C0903A6 		mtctr 0
 4995 0c60 838900CC 		lwz 28,204(9)
 4996              	.LEHB52:
 4997 0c64 4E800421 		bctrl
 4998              	.LEHE52:
 4999 0c68 7FA3EB78 		mr 3,29
 5000 0c6c 3881000C 		addi 4,1,12
 5001 0c70 7F8903A6 		mtctr 28
 5002              	.LEHB53:
 5003 0c74 4E800421 		bctrl
 5004              	.LEHE53:
 5005              	.LVL380:
 5006              	.LBB4292:
 5007              	.LBB4293:
 5008              	.LBB4294:
 5009              	.LBB4295:
 5010              	.LBB4296:
 5011              	.LBB4297:
 5012              		.loc 7 288 0
 5013 0c78 8121000C 		lwz 9,12(1)
 5014              	.LBE4297:
 5015              	.LBE4296:
 5016              	.LBE4295:
 5017              		.loc 7 534 0
 5018 0c7c 3869FFF4 		addi 3,9,-12
 5019              	.LVL381:
 5020              	.LBB4298:
 5021              	.LBB4299:
 5022              		.loc 7 235 0
 5023 0c80 7F83F000 		cmpw 7,3,30
 5024 0c84 409E004C 		bne- 7,.L346
 5025              	.LVL382:
 5026              	.L339:
 5027              	.LBE4299:
 5028              	.LBE4298:
 5029              	.LBE4294:
 5030              	.LBE4293:
 5031              	.LBE4292:
 5032              		.loc 4 220 0 discriminator 1
 5033 0c88 7FE3FB78 		mr 3,31
 5034              	.LEHB54:
 5035 0c8c 48000001 		bl _ZN11PathBrowser14SetDeviceImageEv
 5036              		.loc 4 221 0 discriminator 1
 5037 0c90 8001002C 		lwz 0,44(1)
 5038 0c94 83810018 		lwz 28,24(1)
 5039 0c98 7C0803A6 		mtlr 0
 5040 0c9c 83A1001C 		lwz 29,28(1)
 5041 0ca0 83C10020 		lwz 30,32(1)
 5042 0ca4 83E10024 		lwz 31,36(1)
 5043              	.LVL383:
 5044 0ca8 38210028 		addi 1,1,40
 5045              		.cfi_remember_state
 5046              	.LCFI73:
 5047              		.cfi_def_cfa_offset 0
 5048              		.cfi_restore 31
 5049              		.cfi_restore 30
 5050              		.cfi_restore 29
 5051              		.cfi_restore 28
 5052 0cac 4E800020 		blr
 5053              	.LVL384:
 5054              	.L345:
 5055              	.LCFI74:
 5056              		.cfi_restore_state
 5057              	.LBB4310:
 5058              	.LBB4291:
 5059              	.LBB4290:
 5060              	.LBB4289:
 5061              	.LBB4287:
 5062              	.LBB4280:
 5063              	.LBB4281:
 5064              	.LBB4282:
 5065              		.loc 8 66 0
 5066 0cb0 8169FFFC 		lwz 11,-4(9)
 5067              	.LVL385:
 5068              	.LBE4282:
 5069              	.LBE4281:
 5070              	.LBE4280:
 5071              		.loc 7 240 0
 5072 0cb4 2F8B0000 		cmpwi 7,11,0
 5073              	.LBB4285:
 5074              	.LBB4284:
 5075              	.LBB4283:
 5076              		.loc 8 67 0
 5077 0cb8 396BFFFF 		addi 11,11,-1
 5078 0cbc 9169FFFC 		stw 11,-4(9)
 5079              	.LBE4283:
 5080              	.LBE4284:
 5081              	.LBE4285:
 5082              		.loc 7 240 0
 5083 0cc0 419DFF84 		bgt+ 7,.L333
 5084              		.loc 7 244 0
 5085 0cc4 38810009 		addi 4,1,9
 5086 0cc8 48000001 		bl _ZNSs4_Rep10_M_destroyERKSaIcE
 5087              	.LVL386:
 5088 0ccc 4BFFFF78 		b .L333
 5089              	.LVL387:
 5090              	.L346:
 5091              	.LBE4287:
 5092              	.LBE4289:
 5093              	.LBE4290:
 5094              	.LBE4291:
 5095              	.LBE4310:
 5096              	.LBB4311:
 5097              	.LBB4309:
 5098              	.LBB4308:
 5099              	.LBB4307:
 5100              	.LBB4306:
 5101              	.LBB4300:
 5102              	.LBB4301:
 5103              	.LBB4302:
 5104              		.loc 8 66 0
 5105 0cd0 8169FFFC 		lwz 11,-4(9)
 5106              	.LVL388:
 5107              	.LBE4302:
 5108              	.LBE4301:
 5109              	.LBE4300:
 5110              		.loc 7 240 0
 5111 0cd4 2F8B0000 		cmpwi 7,11,0
 5112              	.LBB4305:
 5113              	.LBB4304:
 5114              	.LBB4303:
 5115              		.loc 8 67 0
 5116 0cd8 396BFFFF 		addi 11,11,-1
 5117 0cdc 9169FFFC 		stw 11,-4(9)
 5118              	.LBE4303:
 5119              	.LBE4304:
 5120              	.LBE4305:
 5121              		.loc 7 240 0
 5122 0ce0 419DFFA8 		bgt+ 7,.L339
 5123              		.loc 7 244 0
 5124 0ce4 38810008 		addi 4,1,8
 5125 0ce8 48000001 		bl _ZNSs4_Rep10_M_destroyERKSaIcE
 5126              	.LVL389:
 5127 0cec 4BFFFF9C 		b .L339
 5128              	.LVL390:
 5129              	.L342:
 5130 0cf0 7C7F1B78 		mr 31,3
 5131              	.LVL391:
 5132              	.LBE4306:
 5133              	.LBE4307:
 5134              	.LBE4308:
 5135              	.LBE4309:
 5136              	.LBE4311:
 5137              		.loc 4 217 0
 5138 0cf4 38610010 		addi 3,1,16
 5139 0cf8 48000001 		bl _ZNSsD1Ev
 5140 0cfc 7FE3FB78 		mr 3,31
 5141 0d00 48000001 		bl _Unwind_Resume
 5142              	.LVL392:
 5143              	.L343:
 5144 0d04 7C7F1B78 		mr 31,3
 5145              	.LVL393:
 5146              		.loc 4 218 0
 5147 0d08 3861000C 		addi 3,1,12
 5148 0d0c 48000001 		bl _ZNSsD1Ev
 5149 0d10 7FE3FB78 		mr 3,31
 5150 0d14 48000001 		bl _Unwind_Resume
 5151              	.LEHE54:
 5152              		.cfi_endproc
 5153              	.LFE1691:
 5154              		.section	.gcc_except_table
 5155              	.LLSDA1691:
 5156 0127 FF       		.byte	0xff
 5157 0128 FF       		.byte	0xff
 5158 0129 01       		.byte	0x1
 5159 012a 1B       		.uleb128 .LLSDACSE1691-.LLSDACSB1691
 5160              	.LLSDACSB1691:
 5161 012b 3C       		.uleb128 .LEHB50-.LFB1691
 5162 012c 54       		.uleb128 .LEHE50-.LEHB50
 5163 012d 00       		.uleb128 0
 5164 012e 00       		.uleb128 0
 5165 012f 9C01     		.uleb128 .LEHB51-.LFB1691
 5166 0131 04       		.uleb128 .LEHE51-.LEHB51
 5167 0132 E402     		.uleb128 .L342-.LFB1691
 5168 0134 00       		.uleb128 0
 5169 0135 D801     		.uleb128 .LEHB52-.LFB1691
 5170 0137 04       		.uleb128 .LEHE52-.LEHB52
 5171 0138 00       		.uleb128 0
 5172 0139 00       		.uleb128 0
 5173 013a E801     		.uleb128 .LEHB53-.LFB1691
 5174 013c 04       		.uleb128 .LEHE53-.LEHB53
 5175 013d F802     		.uleb128 .L343-.LFB1691
 5176 013f 00       		.uleb128 0
 5177 0140 8002     		.uleb128 .LEHB54-.LFB1691
 5178 0142 8C01     		.uleb128 .LEHE54-.LEHB54
 5179 0144 00       		.uleb128 0
 5180 0145 00       		.uleb128 0
 5181              	.LLSDACSE1691:
 5182              		.section	".text"
 5183              		.size	_ZN11PathBrowser16OnDevButtonClickEP9GuiButtoniRK6_POINT, .-_ZN11PathBrowser16OnDevButtonCli
 5184              		.section	.text._ZNSt6vectorIP10GuiElementSaIS1_EE13_M_insert_auxEN9__gnu_cxx17__normal_iteratorIPS
 5185              		.align 2
 5186              		.weak	_ZNSt6vectorIP10GuiElementSaIS1_EE13_M_insert_auxEN9__gnu_cxx17__normal_iteratorIPS1_S3_EERK
 5187              		.type	_ZNSt6vectorIP10GuiElementSaIS1_EE13_M_insert_auxEN9__gnu_cxx17__normal_iteratorIPS1_S3_EERK
 5188              	_ZNSt6vectorIP10GuiElementSaIS1_EE13_M_insert_auxEN9__gnu_cxx17__normal_iteratorIPS1_S3_EERKS1_:
 5189              	.LFB1882:
 5190              		.file 9 "d:\\devkitpro\\devkitppc\\bin\\../lib/gcc/powerpc-eabi/4.6.3/../../../../powerpc-eabi/inc
 5191              		.loc 9 300 0
 5192              		.cfi_startproc
 5193              	.LVL394:
 5194 0000 7C0802A6 		mflr 0
 5195 0004 9421FFD8 		stwu 1,-40(1)
 5196              	.LCFI75:
 5197              		.cfi_def_cfa_offset 40
 5198              		.cfi_register 65, 0
 5199 0008 93610014 		stw 27,20(1)
 5200 000c 9001002C 		stw 0,44(1)
 5201 0010 93C10020 		stw 30,32(1)
 5202              	.LBB4374:
 5203              		.loc 9 304 0
 5204 0014 83630004 		lwz 27,4(3)
 5205              		.cfi_offset 30, -8
 5206              		.cfi_offset 65, 4
 5207              		.cfi_offset 27, -20
 5208 0018 80030008 		lwz 0,8(3)
 5209              	.LBE4374:
 5210              		.loc 9 300 0
 5211 001c 93E10024 		stw 31,36(1)
 5212 0020 7C7F1B78 		mr 31,3
 5213              		.cfi_offset 31, -4
 5214              	.LBB4499:
 5215              		.loc 9 304 0
 5216 0024 7F9B0000 		cmpw 7,27,0
 5217              	.LBE4499:
 5218              		.loc 9 300 0
 5219 0028 93410010 		stw 26,16(1)
 5220 002c 93810018 		stw 28,24(1)
 5221 0030 93A1001C 		stw 29,28(1)
 5222              		.loc 9 300 0
 5223 0034 83C40000 		lwz 30,0(4)
 5224              	.LVL395:
 5225              	.LBB4500:
 5226              		.loc 9 304 0
 5227 0038 419E0078 		beq- 7,.L348
 5228              		.cfi_offset 29, -12
 5229              		.cfi_offset 28, -16
 5230              		.cfi_offset 26, -24
 5231              	.LVL396:
 5232              	.LBB4375:
 5233              	.LBB4376:
 5234              	.LBB4377:
 5235              		.loc 6 108 0
 5236 003c 2F9B0000 		cmpwi 7,27,0
 5237 0040 38600000 		li 3,0
 5238              	.LVL397:
 5239 0044 419E0010 		beq- 7,.L349
 5240 0048 801BFFFC 		lwz 0,-4(27)
 5241 004c 901B0000 		stw 0,0(27)
 5242 0050 807F0004 		lwz 3,4(31)
 5243              	.L349:
 5244              	.LBE4377:
 5245              	.LBE4376:
 5246              		.loc 9 313 0
 5247 0054 3803FFFC 		addi 0,3,-4
 5248              		.loc 9 309 0
 5249 0058 39230004 		addi 9,3,4
 5250              	.LBB4378:
 5251              	.LBB4379:
 5252              	.LBB4380:
 5253              	.LBB4381:
 5254              	.LBB4382:
 5255              	.LBB4383:
 5256              		.file 10 "d:\\devkitpro\\devkitppc\\bin\\../lib/gcc/powerpc-eabi/4.6.3/../../../../powerpc-eabi/in
 5257              		.loc 10 559 0
 5258 005c 7C1E0050 		subf 0,30,0
 5259              	.LBE4383:
 5260              	.LBE4382:
 5261              	.LBE4381:
 5262              	.LBE4380:
 5263              	.LBE4379:
 5264              	.LBE4378:
 5265              		.loc 9 309 0
 5266 0060 913F0004 		stw 9,4(31)
 5267              	.LBB4399:
 5268              	.LBB4396:
 5269              	.LBB4393:
 5270              	.LBB4390:
 5271              	.LBB4387:
 5272              	.LBB4384:
 5273              		.loc 10 560 0
 5274 0064 7C001671 		srawi. 0,0,2
 5275              	.LBE4384:
 5276              	.LBE4387:
 5277              	.LBE4390:
 5278              	.LBE4393:
 5279              	.LBE4396:
 5280              	.LBE4399:
 5281              		.loc 9 311 0
 5282 0068 83E50000 		lwz 31,0(5)
 5283              	.LVL398:
 5284              	.LBB4400:
 5285              	.LBB4397:
 5286              	.LBB4394:
 5287              	.LBB4391:
 5288              	.LBB4388:
 5289              	.LBB4385:
 5290              		.loc 10 560 0
 5291 006c 40820030 		bne- 0,.L364
 5292              	.LVL399:
 5293              	.L350:
 5294              	.LBE4385:
 5295              	.LBE4388:
 5296              	.LBE4391:
 5297              	.LBE4394:
 5298              	.LBE4397:
 5299              	.LBE4400:
 5300              	.LBE4375:
 5301              	.LBE4500:
 5302              		.loc 9 373 0
 5303 0070 8001002C 		lwz 0,44(1)
 5304              	.LBB4501:
 5305              	.LBB4402:
 5306              		.loc 9 317 0
 5307 0074 93FE0000 		stw 31,0(30)
 5308              	.LBE4402:
 5309              	.LBE4501:
 5310              		.loc 9 373 0
 5311 0078 7C0803A6 		mtlr 0
 5312 007c 83410010 		lwz 26,16(1)
 5313 0080 83610014 		lwz 27,20(1)
 5314              	.LVL400:
 5315 0084 83810018 		lwz 28,24(1)
 5316 0088 83A1001C 		lwz 29,28(1)
 5317 008c 83C10020 		lwz 30,32(1)
 5318              	.LVL401:
 5319 0090 83E10024 		lwz 31,36(1)
 5320              	.LVL402:
 5321 0094 38210028 		addi 1,1,40
 5322              		.cfi_remember_state
 5323              	.LCFI76:
 5324              		.cfi_def_cfa_offset 0
 5325              		.cfi_restore 31
 5326              		.cfi_restore 30
 5327              		.cfi_restore 29
 5328              		.cfi_restore 28
 5329              		.cfi_restore 27
 5330              		.cfi_restore 26
 5331 0098 4E800020 		blr
 5332              	.LVL403:
 5333              	.L364:
 5334              	.LCFI77:
 5335              		.cfi_restore_state
 5336              	.LBB4502:
 5337              	.LBB4403:
 5338              	.LBB4401:
 5339              	.LBB4398:
 5340              	.LBB4395:
 5341              	.LBB4392:
 5342              	.LBB4389:
 5343              	.LBB4386:
 5344              		.loc 10 561 0
 5345 009c 5405103A 		slwi 5,0,2
 5346              	.LVL404:
 5347 00a0 7FC4F378 		mr 4,30
 5348 00a4 7C651850 		subf 3,5,3
 5349              	.LVL405:
 5350 00a8 48000001 		bl memmove
 5351              	.LVL406:
 5352 00ac 4BFFFFC4 		b .L350
 5353              	.LVL407:
 5354              	.L348:
 5355              	.LBE4386:
 5356              	.LBE4389:
 5357              	.LBE4392:
 5358              	.LBE4395:
 5359              	.LBE4398:
 5360              	.LBE4401:
 5361              	.LBE4403:
 5362              	.LBB4404:
 5363              	.LBB4405:
 5364              	.LBB4406:
 5365              	.LBB4407:
 5366              	.LBB4408:
 5367              		.file 11 "d:\\devkitpro\\devkitppc\\bin\\../lib/gcc/powerpc-eabi/4.6.3/../../../../powerpc-eabi/in
 5368              		.loc 11 571 0
 5369 00b0 83830000 		lwz 28,0(3)
 5370 00b4 7F7CD850 		subf 27,28,27
 5371              	.LBE4408:
 5372              	.LBE4407:
 5373              	.LBB4409:
 5374              	.LBB4410:
 5375              		.loc 10 215 0
 5376 00b8 7F7B1671 		srawi. 27,27,2
 5377 00bc 418200E8 		beq- 0,.L352
 5378              	.LBE4410:
 5379              	.LBE4409:
 5380              		.loc 11 1244 0
 5381 00c0 5760083C 		slwi 0,27,1
 5382              	.LVL408:
 5383              		.loc 11 1245 0
 5384 00c4 7F9B0040 		cmplw 7,27,0
 5385 00c8 409D00EC 		ble- 7,.L365
 5386              	.L353:
 5387              	.LVL409:
 5388              	.LBE4406:
 5389              	.LBE4405:
 5390              	.LBB4413:
 5391              	.LBB4414:
 5392              		.file 12 "d:\\devkitpro\\devkitppc\\bin\\../lib/gcc/powerpc-eabi/4.6.3/../../../../powerpc-eabi/in
 5393              		.loc 12 892 0
 5394 00cc 7F9CF050 		subf 28,28,30
 5395              	.LBE4414:
 5396              	.LBE4413:
 5397              		.loc 9 326 0
 5398 00d0 3B60FFFC 		li 27,-4
 5399              	.LBB4420:
 5400              	.LBB4415:
 5401              		.loc 12 892 0
 5402 00d4 7F9C1670 		srawi 28,28,2
 5403              	.LVL410:
 5404              	.L359:
 5405              	.LBE4415:
 5406              	.LBE4420:
 5407              	.LBB4421:
 5408              	.LBB4422:
 5409              	.LBB4423:
 5410              	.LBB4424:
 5411              		.loc 6 92 0
 5412 00d8 7F63DB78 		mr 3,27
 5413              	.LVL411:
 5414 00dc 90A10008 		stw 5,8(1)
 5415 00e0 48000001 		bl _Znwj
 5416              	.LVL412:
 5417 00e4 80A10008 		lwz 5,8(1)
 5418 00e8 7C7D1B78 		mr 29,3
 5419              	.L354:
 5420              	.LVL413:
 5421              	.LBE4424:
 5422              	.LBE4423:
 5423              	.LBE4422:
 5424              	.LBE4421:
 5425              		.loc 9 335 0
 5426 00ec 579C103A 		slwi 28,28,2
 5427              	.LVL414:
 5428 00f0 7C1DE214 		add 0,29,28
 5429              	.LVL415:
 5430              	.LBB4427:
 5431              	.LBB4428:
 5432              		.loc 6 108 0
 5433 00f4 2F800000 		cmpwi 7,0,0
 5434 00f8 419E000C 		beq- 7,.L355
 5435 00fc 80050000 		lwz 0,0(5)
 5436              	.LVL416:
 5437 0100 7C1DE12E 		stwx 0,29,28
 5438              	.L355:
 5439              	.LVL417:
 5440              	.LBE4428:
 5441              	.LBE4427:
 5442              		.loc 9 343 0
 5443 0104 809F0000 		lwz 4,0(31)
 5444              	.LVL418:
 5445              	.LBB4429:
 5446              	.LBB4430:
 5447              	.LBB4431:
 5448              	.LBB4432:
 5449              	.LBB4433:
 5450              	.LBB4434:
 5451              	.LBB4435:
 5452              	.LBB4436:
 5453              	.LBB4437:
 5454              	.LBB4438:
 5455              	.LBB4439:
 5456              		.loc 10 365 0
 5457 0108 3B800000 		li 28,0
 5458              		.loc 10 364 0
 5459 010c 7C04F050 		subf 0,4,30
 5460              	.LVL419:
 5461              		.loc 10 365 0
 5462 0110 7C001671 		srawi. 0,0,2
 5463              	.LVL420:
 5464 0114 41A20014 		beq+ 0,.L356
 5465              		.loc 10 366 0
 5466 0118 541C103A 		slwi 28,0,2
 5467 011c 7FA3EB78 		mr 3,29
 5468 0120 7F85E378 		mr 5,28
 5469              	.LVL421:
 5470 0124 48000001 		bl memmove
 5471              	.LVL422:
 5472              	.L356:
 5473              	.LBE4439:
 5474              	.LBE4438:
 5475              	.LBE4437:
 5476              	.LBE4436:
 5477              	.LBE4435:
 5478              	.LBE4434:
 5479              	.LBE4433:
 5480              	.LBE4432:
 5481              	.LBE4431:
 5482              	.LBE4430:
 5483              	.LBE4429:
 5484              	.LBB4450:
 5485              	.LBB4451:
 5486              	.LBB4452:
 5487              	.LBB4453:
 5488              	.LBB4454:
 5489              	.LBB4455:
 5490              	.LBB4456:
 5491              	.LBB4457:
 5492              	.LBB4458:
 5493              	.LBB4459:
 5494              	.LBB4460:
 5495              		.loc 10 364 0
 5496 0128 801F0004 		lwz 0,4(31)
 5497              	.LBE4460:
 5498              	.LBE4459:
 5499              	.LBE4458:
 5500              	.LBE4457:
 5501              	.LBE4456:
 5502              	.LBE4455:
 5503              	.LBE4454:
 5504              	.LBE4453:
 5505              	.LBE4452:
 5506              	.LBE4451:
 5507              	.LBE4450:
 5508              	.LBB4481:
 5509              	.LBB4449:
 5510              	.LBB4448:
 5511              	.LBB4447:
 5512              	.LBB4446:
 5513              	.LBB4445:
 5514              	.LBB4444:
 5515              	.LBB4443:
 5516              	.LBB4442:
 5517              	.LBB4441:
 5518              	.LBB4440:
 5519              		.loc 10 367 0
 5520 012c 7F9DE214 		add 28,29,28
 5521              	.LVL423:
 5522              	.LBE4440:
 5523              	.LBE4441:
 5524              	.LBE4442:
 5525              	.LBE4443:
 5526              	.LBE4444:
 5527              	.LBE4445:
 5528              	.LBE4446:
 5529              	.LBE4447:
 5530              	.LBE4448:
 5531              	.LBE4449:
 5532              	.LBE4481:
 5533              		.loc 9 347 0
 5534 0130 3B5C0004 		addi 26,28,4
 5535              	.LBB4482:
 5536              	.LBB4479:
 5537              	.LBB4477:
 5538              	.LBB4475:
 5539              	.LBB4473:
 5540              	.LBB4471:
 5541              	.LBB4469:
 5542              	.LBB4467:
 5543              	.LBB4465:
 5544              	.LBB4463:
 5545              	.LBB4461:
 5546              		.loc 10 365 0
 5547 0134 3B800000 		li 28,0
 5548              		.loc 10 364 0
 5549 0138 7C1E0050 		subf 0,30,0
 5550              	.LVL424:
 5551              		.loc 10 365 0
 5552 013c 7C001671 		srawi. 0,0,2
 5553              	.LVL425:
 5554 0140 41A20018 		beq+ 0,.L357
 5555              		.loc 10 366 0
 5556 0144 541C103A 		slwi 28,0,2
 5557 0148 7F43D378 		mr 3,26
 5558 014c 7FC4F378 		mr 4,30
 5559 0150 7F85E378 		mr 5,28
 5560 0154 48000001 		bl memmove
 5561              	.LVL426:
 5562              	.L357:
 5563              	.LBE4461:
 5564              	.LBE4463:
 5565              	.LBE4465:
 5566              	.LBE4467:
 5567              	.LBE4469:
 5568              	.LBE4471:
 5569              	.LBE4473:
 5570              	.LBE4475:
 5571              	.LBE4477:
 5572              	.LBE4479:
 5573              	.LBE4482:
 5574              		.loc 9 366 0
 5575 0158 807F0000 		lwz 3,0(31)
 5576              	.LBB4483:
 5577              	.LBB4480:
 5578              	.LBB4478:
 5579              	.LBB4476:
 5580              	.LBB4474:
 5581              	.LBB4472:
 5582              	.LBB4470:
 5583              	.LBB4468:
 5584              	.LBB4466:
 5585              	.LBB4464:
 5586              	.LBB4462:
 5587              		.loc 10 367 0
 5588 015c 7F9AE214 		add 28,26,28
 5589              	.LVL427:
 5590              	.LBE4462:
 5591              	.LBE4464:
 5592              	.LBE4466:
 5593              	.LBE4468:
 5594              	.LBE4470:
 5595              	.LBE4472:
 5596              	.LBE4474:
 5597              	.LBE4476:
 5598              	.LBE4478:
 5599              	.LBE4480:
 5600              	.LBE4483:
 5601              	.LBB4484:
 5602              	.LBB4485:
 5603              		.loc 11 155 0
 5604 0160 2F830000 		cmpwi 7,3,0
 5605 0164 419E0008 		beq- 7,.L358
 5606              	.LVL428:
 5607              	.LBB4486:
 5608              	.LBB4487:
 5609              		.loc 6 98 0
 5610 0168 48000001 		bl _ZdlPv
 5611              	.LVL429:
 5612              	.L358:
 5613              	.LBE4487:
 5614              	.LBE4486:
 5615              	.LBE4485:
 5616              	.LBE4484:
 5617              	.LBE4404:
 5618              	.LBE4502:
 5619              		.loc 9 373 0
 5620 016c 8001002C 		lwz 0,44(1)
 5621              	.LBB4503:
 5622              	.LBB4496:
 5623              		.loc 9 371 0
 5624 0170 7F7DDA14 		add 27,29,27
 5625              		.loc 9 369 0
 5626 0174 93BF0000 		stw 29,0(31)
 5627              	.LBE4496:
 5628              	.LBE4503:
 5629              		.loc 9 373 0
 5630 0178 7C0803A6 		mtlr 0
 5631              	.LBB4504:
 5632              	.LBB4497:
 5633              		.loc 9 370 0
 5634 017c 939F0004 		stw 28,4(31)
 5635              		.loc 9 371 0
 5636 0180 937F0008 		stw 27,8(31)
 5637              	.LBE4497:
 5638              	.LBE4504:
 5639              		.loc 9 373 0
 5640 0184 83410010 		lwz 26,16(1)
 5641              	.LVL430:
 5642 0188 83610014 		lwz 27,20(1)
 5643 018c 83810018 		lwz 28,24(1)
 5644 0190 83A1001C 		lwz 29,28(1)
 5645              	.LVL431:
 5646 0194 83C10020 		lwz 30,32(1)
 5647              	.LVL432:
 5648 0198 83E10024 		lwz 31,36(1)
 5649              	.LVL433:
 5650 019c 38210028 		addi 1,1,40
 5651              		.cfi_remember_state
 5652              		.cfi_restore 26
 5653              		.cfi_restore 27
 5654              		.cfi_restore 28
 5655              		.cfi_restore 29
 5656              		.cfi_restore 30
 5657              		.cfi_restore 31
 5658              	.LCFI78:
 5659              		.cfi_def_cfa_offset 0
 5660 01a0 4E800020 		blr
 5661              	.LVL434:
 5662              	.L352:
 5663              	.LCFI79:
 5664              		.cfi_restore_state
 5665              	.LBB4505:
 5666              	.LBB4498:
 5667              	.LBB4488:
 5668              	.LBB4416:
 5669              		.loc 12 892 0
 5670 01a4 7F9CF050 		subf 28,28,30
 5671              	.LBE4416:
 5672              	.LBE4488:
 5673              		.loc 9 326 0
 5674 01a8 3B600004 		li 27,4
 5675              	.LBB4489:
 5676              	.LBB4417:
 5677              		.loc 12 892 0
 5678 01ac 7F9C1670 		srawi 28,28,2
 5679              	.LVL435:
 5680 01b0 4BFFFF28 		b .L359
 5681              	.LVL436:
 5682              	.L365:
 5683              	.LBE4417:
 5684              	.LBE4489:
 5685              	.LBB4490:
 5686              	.LBB4411:
 5687              		.loc 11 1245 0
 5688 01b4 3D203FFF 		lis 9,0x3fff
 5689 01b8 6129FFFF 		ori 9,9,65535
 5690 01bc 7F804840 		cmplw 7,0,9
 5691 01c0 419DFF0C 		bgt+ 7,.L353
 5692              	.LBE4411:
 5693              	.LBE4490:
 5694              	.LBB4491:
 5695              	.LBB4425:
 5696              		.loc 11 150 0
 5697 01c4 2F800000 		cmpwi 7,0,0
 5698              	.LBE4425:
 5699              	.LBE4491:
 5700              	.LBB4492:
 5701              	.LBB4418:
 5702              		.loc 12 892 0
 5703 01c8 7F9CF050 		subf 28,28,30
 5704              	.LBE4418:
 5705              	.LBE4492:
 5706              	.LBB4493:
 5707              	.LBB4412:
 5708              		.loc 11 1245 0
 5709 01cc 577B1838 		slwi 27,27,3
 5710              	.LVL437:
 5711              	.LBE4412:
 5712              	.LBE4493:
 5713              	.LBB4494:
 5714              	.LBB4419:
 5715              		.loc 12 892 0
 5716 01d0 7F9C1670 		srawi 28,28,2
 5717              	.LVL438:
 5718              	.LBE4419:
 5719              	.LBE4494:
 5720              	.LBB4495:
 5721              	.LBB4426:
 5722              		.loc 11 150 0
 5723 01d4 3BA00000 		li 29,0
 5724 01d8 419EFF14 		beq+ 7,.L354
 5725 01dc 4BFFFEFC 		b .L359
 5726              	.LBE4426:
 5727              	.LBE4495:
 5728              	.LBE4498:
 5729              	.LBE4505:
 5730              		.cfi_endproc
 5731              	.LFE1882:
 5732              		.size	_ZNSt6vectorIP10GuiElementSaIS1_EE13_M_insert_auxEN9__gnu_cxx17__normal_iteratorIPS1_S3_EERK
 5733              		.section	.text._ZNSt8_Rb_treeIPN7sigslot12_signal_baseINS0_15single_threadedEEES4_St9_IdentityIS4_
 5734              		.align 2
 5735              		.weak	_ZNSt8_Rb_treeIPN7sigslot12_signal_baseINS0_15single_threadedEEES4_St9_IdentityIS4_ESt4lessI
 5736              		.type	_ZNSt8_Rb_treeIPN7sigslot12_signal_baseINS0_15single_threadedEEES4_St9_IdentityIS4_ESt4lessI
 5737              	_ZNSt8_Rb_treeIPN7sigslot12_signal_baseINS0_15single_threadedEEES4_St9_IdentityIS4_ESt4lessIS4_ESaI
 5738              	.LFB2010:
 5739              		.file 13 "d:\\devkitpro\\devkitppc\\bin\\../lib/gcc/powerpc-eabi/4.6.3/../../../../powerpc-eabi/in
 5740              		.loc 13 1068 0
 5741              		.cfi_startproc
 5742              	.LVL439:
 5743 0000 9421FFC8 		stwu 1,-56(1)
 5744              	.LCFI80:
 5745              		.cfi_def_cfa_offset 56
 5746 0004 7C0802A6 		mflr 0
 5747 0008 92C10010 		stw 22,16(1)
 5748              	.LBB4622:
 5749              		.loc 13 1072 0
 5750 000c 7C962379 		mr. 22,4
 5751              		.cfi_offset 22, -40
 5752              		.cfi_register 65, 0
 5753              	.LBE4622:
 5754              		.loc 13 1068 0
 5755 0010 93C10030 		stw 30,48(1)
 5756 0014 7C7E1B78 		mr 30,3
 5757              		.cfi_offset 30, -8
 5758 0018 9001003C 		stw 0,60(1)
 5759 001c 92A1000C 		stw 21,12(1)
 5760 0020 92E10014 		stw 23,20(1)
 5761 0024 93010018 		stw 24,24(1)
 5762 0028 9321001C 		stw 25,28(1)
 5763 002c 93410020 		stw 26,32(1)
 5764 0030 93610024 		stw 27,36(1)
 5765 0034 93810028 		stw 28,40(1)
 5766 0038 93A1002C 		stw 29,44(1)
 5767 003c 93E10034 		stw 31,52(1)
 5768              	.LBB4707:
 5769              		.loc 13 1072 0
 5770 0040 41820168 		beq- 0,.L366
 5771              		.cfi_offset 31, -4
 5772              		.cfi_offset 29, -12
 5773              		.cfi_offset 28, -16
 5774              		.cfi_offset 27, -20
 5775              		.cfi_offset 26, -24
 5776              		.cfi_offset 25, -28
 5777              		.cfi_offset 24, -32
 5778              		.cfi_offset 23, -36
 5779              		.cfi_offset 21, -44
 5780              		.cfi_offset 65, 4
 5781              	.LVL440:
 5782              	.L412:
 5783              		.loc 4 285 0
 5784 0044 8376000C 		lwz 27,12(22)
 5785              	.LVL441:
 5786              	.LBB4623:
 5787              	.LBB4624:
 5788              	.LBB4625:
 5789              		.loc 13 1072 0
 5790 0048 2F9B0000 		cmpwi 7,27,0
 5791 004c 419E0140 		beq- 7,.L368
 5792              	.LVL442:
 5793              	.L413:
 5794              	.LBE4625:
 5795              		.loc 4 285 0
 5796 0050 835B000C 		lwz 26,12(27)
 5797              	.LVL443:
 5798              	.LBB4701:
 5799              	.LBB4626:
 5800              	.LBB4627:
 5801              	.LBB4628:
 5802              		.loc 13 1072 0
 5803 0054 2F9A0000 		cmpwi 7,26,0
 5804 0058 419E0118 		beq- 7,.L369
 5805              	.LVL444:
 5806              	.L414:
 5807              	.LBE4628:
 5808              		.loc 4 285 0
 5809 005c 833A000C 		lwz 25,12(26)
 5810              	.LVL445:
 5811              	.LBB4694:
 5812              	.LBB4629:
 5813              	.LBB4630:
 5814              	.LBB4631:
 5815              		.loc 13 1072 0
 5816 0060 2F990000 		cmpwi 7,25,0
 5817 0064 419E00F0 		beq- 7,.L370
 5818              	.LVL446:
 5819              	.L415:
 5820              	.LBE4631:
 5821              		.loc 4 285 0
 5822 0068 8319000C 		lwz 24,12(25)
 5823              	.LVL447:
 5824              	.LBB4687:
 5825              	.LBB4632:
 5826              	.LBB4633:
 5827              	.LBB4634:
 5828              		.loc 13 1072 0
 5829 006c 2F980000 		cmpwi 7,24,0
 5830 0070 419E00C8 		beq- 7,.L371
 5831              	.LVL448:
 5832              	.L416:
 5833              	.LBE4634:
 5834              		.loc 4 285 0
 5835 0074 82F8000C 		lwz 23,12(24)
 5836              	.LVL449:
 5837              	.LBB4680:
 5838              	.LBB4635:
 5839              	.LBB4636:
 5840              	.LBB4637:
 5841              		.loc 13 1072 0
 5842 0078 2F970000 		cmpwi 7,23,0
 5843 007c 419E00A0 		beq- 7,.L372
 5844              	.LVL450:
 5845              	.L417:
 5846              	.LBE4637:
 5847              		.loc 4 285 0
 5848 0080 8397000C 		lwz 28,12(23)
 5849              	.LVL451:
 5850              	.LBB4673:
 5851              	.LBB4638:
 5852              	.LBB4639:
 5853              	.LBB4640:
 5854              		.loc 13 1072 0
 5855 0084 2F9C0000 		cmpwi 7,28,0
 5856 0088 419E0078 		beq- 7,.L373
 5857              	.LVL452:
 5858              	.L418:
 5859              	.LBE4640:
 5860              		.loc 4 285 0
 5861 008c 83BC000C 		lwz 29,12(28)
 5862              	.LVL453:
 5863              	.LBB4666:
 5864              	.LBB4641:
 5865              	.LBB4642:
 5866              	.LBB4643:
 5867              		.loc 13 1072 0
 5868 0090 2F9D0000 		cmpwi 7,29,0
 5869 0094 419E0050 		beq- 7,.L374
 5870              	.LVL454:
 5871              	.L419:
 5872              	.LBE4643:
 5873              		.loc 4 285 0
 5874 0098 83FD000C 		lwz 31,12(29)
 5875              	.LVL455:
 5876              	.LBB4659:
 5877              	.LBB4644:
 5878              	.LBB4645:
 5879              	.LBB4646:
 5880              		.loc 13 1072 0
 5881 009c 2F9F0000 		cmpwi 7,31,0
 5882 00a0 419E0028 		beq- 7,.L375
 5883              	.LVL456:
 5884              	.L420:
 5885              	.LBB4647:
 5886              		.loc 13 1074 0
 5887 00a4 809F000C 		lwz 4,12(31)
 5888 00a8 7FC3F378 		mr 3,30
 5889 00ac 48000001 		bl _ZNSt8_Rb_treeIPN7sigslot12_signal_baseINS0_15single_threadedEEES4_St9_IdentityIS4_ESt4lessIS4_
 5890              	.LBE4647:
 5891              	.LBE4646:
 5892              		.loc 4 285 0
 5893 00b0 82BF0008 		lwz 21,8(31)
 5894              	.LVL457:
 5895              	.LBB4653:
 5896              	.LBB4652:
 5897              	.LBB4648:
 5898              	.LBB4649:
 5899              	.LBB4650:
 5900              	.LBB4651:
 5901              		.loc 6 98 0
 5902 00b4 7FE3FB78 		mr 3,31
 5903 00b8 48000001 		bl _ZdlPv
 5904              	.LVL458:
 5905              	.LBE4651:
 5906              	.LBE4650:
 5907              	.LBE4649:
 5908              	.LBE4648:
 5909              	.LBE4652:
 5910              		.loc 13 1072 0
 5911 00bc 2F950000 		cmpwi 7,21,0
 5912              		.loc 13 1077 0
 5913 00c0 7EBFAB78 		mr 31,21
 5914              	.LVL459:
 5915              		.loc 13 1072 0
 5916 00c4 409EFFE0 		bne+ 7,.L420
 5917              	.LVL460:
 5918              	.L375:
 5919              	.LBE4653:
 5920              	.LBE4645:
 5921              	.LBE4644:
 5922              	.LBE4659:
 5923              		.loc 4 285 0
 5924 00c8 83FD0008 		lwz 31,8(29)
 5925              	.LVL461:
 5926              	.LBB4660:
 5927              	.LBB4658:
 5928              	.LBB4654:
 5929              	.LBB4655:
 5930              	.LBB4656:
 5931              	.LBB4657:
 5932              		.loc 6 98 0
 5933 00cc 7FA3EB78 		mr 3,29
 5934 00d0 48000001 		bl _ZdlPv
 5935              	.LVL462:
 5936              	.LBE4657:
 5937              	.LBE4656:
 5938              	.LBE4655:
 5939              	.LBE4654:
 5940              	.LBE4658:
 5941              		.loc 13 1072 0
 5942 00d4 2F9F0000 		cmpwi 7,31,0
 5943 00d8 419E000C 		beq- 7,.L374
 5944              		.loc 13 1077 0
 5945 00dc 7FFDFB78 		mr 29,31
 5946              	.LVL463:
 5947 00e0 4BFFFFB8 		b .L419
 5948              	.LVL464:
 5949              	.L374:
 5950              	.LBE4660:
 5951              	.LBE4642:
 5952              	.LBE4641:
 5953              	.LBE4666:
 5954              		.loc 4 285 0
 5955 00e4 83FC0008 		lwz 31,8(28)
 5956              	.LVL465:
 5957              	.LBB4667:
 5958              	.LBB4665:
 5959              	.LBB4661:
 5960              	.LBB4662:
 5961              	.LBB4663:
 5962              	.LBB4664:
 5963              		.loc 6 98 0
 5964 00e8 7F83E378 		mr 3,28
 5965 00ec 48000001 		bl _ZdlPv
 5966              	.LVL466:
 5967              	.LBE4664:
 5968              	.LBE4663:
 5969              	.LBE4662:
 5970              	.LBE4661:
 5971              	.LBE4665:
 5972              		.loc 13 1072 0
 5973 00f0 2F9F0000 		cmpwi 7,31,0
 5974 00f4 419E000C 		beq- 7,.L373
 5975              		.loc 13 1077 0
 5976 00f8 7FFCFB78 		mr 28,31
 5977              	.LVL467:
 5978 00fc 4BFFFF90 		b .L418
 5979              	.LVL468:
 5980              	.L373:
 5981              	.LBE4667:
 5982              	.LBE4639:
 5983              	.LBE4638:
 5984              	.LBE4673:
 5985              		.loc 4 285 0
 5986 0100 83F70008 		lwz 31,8(23)
 5987              	.LVL469:
 5988              	.LBB4674:
 5989              	.LBB4672:
 5990              	.LBB4668:
 5991              	.LBB4669:
 5992              	.LBB4670:
 5993              	.LBB4671:
 5994              		.loc 6 98 0
 5995 0104 7EE3BB78 		mr 3,23
 5996 0108 48000001 		bl _ZdlPv
 5997              	.LVL470:
 5998              	.LBE4671:
 5999              	.LBE4670:
 6000              	.LBE4669:
 6001              	.LBE4668:
 6002              	.LBE4672:
 6003              		.loc 13 1072 0
 6004 010c 2F9F0000 		cmpwi 7,31,0
 6005 0110 419E000C 		beq- 7,.L372
 6006              		.loc 13 1077 0
 6007 0114 7FF7FB78 		mr 23,31
 6008              	.LVL471:
 6009 0118 4BFFFF68 		b .L417
 6010              	.LVL472:
 6011              	.L372:
 6012              	.LBE4674:
 6013              	.LBE4636:
 6014              	.LBE4635:
 6015              	.LBE4680:
 6016              		.loc 4 285 0
 6017 011c 83F80008 		lwz 31,8(24)
 6018              	.LVL473:
 6019              	.LBB4681:
 6020              	.LBB4679:
 6021              	.LBB4675:
 6022              	.LBB4676:
 6023              	.LBB4677:
 6024              	.LBB4678:
 6025              		.loc 6 98 0
 6026 0120 7F03C378 		mr 3,24
 6027 0124 48000001 		bl _ZdlPv
 6028              	.LVL474:
 6029              	.LBE4678:
 6030              	.LBE4677:
 6031              	.LBE4676:
 6032              	.LBE4675:
 6033              	.LBE4679:
 6034              		.loc 13 1072 0
 6035 0128 2F9F0000 		cmpwi 7,31,0
 6036 012c 419E000C 		beq- 7,.L371
 6037              		.loc 13 1077 0
 6038 0130 7FF8FB78 		mr 24,31
 6039              	.LVL475:
 6040 0134 4BFFFF40 		b .L416
 6041              	.LVL476:
 6042              	.L371:
 6043              	.LBE4681:
 6044              	.LBE4633:
 6045              	.LBE4632:
 6046              	.LBE4687:
 6047              		.loc 4 285 0
 6048 0138 83F90008 		lwz 31,8(25)
 6049              	.LVL477:
 6050              	.LBB4688:
 6051              	.LBB4686:
 6052              	.LBB4682:
 6053              	.LBB4683:
 6054              	.LBB4684:
 6055              	.LBB4685:
 6056              		.loc 6 98 0
 6057 013c 7F23CB78 		mr 3,25
 6058 0140 48000001 		bl _ZdlPv
 6059              	.LVL478:
 6060              	.LBE4685:
 6061              	.LBE4684:
 6062              	.LBE4683:
 6063              	.LBE4682:
 6064              	.LBE4686:
 6065              		.loc 13 1072 0
 6066 0144 2F9F0000 		cmpwi 7,31,0
 6067 0148 419E000C 		beq- 7,.L370
 6068              		.loc 13 1077 0
 6069 014c 7FF9FB78 		mr 25,31
 6070              	.LVL479:
 6071 0150 4BFFFF18 		b .L415
 6072              	.LVL480:
 6073              	.L370:
 6074              	.LBE4688:
 6075              	.LBE4630:
 6076              	.LBE4629:
 6077              	.LBE4694:
 6078              		.loc 4 285 0
 6079 0154 83FA0008 		lwz 31,8(26)
 6080              	.LVL481:
 6081              	.LBB4695:
 6082              	.LBB4693:
 6083              	.LBB4689:
 6084              	.LBB4690:
 6085              	.LBB4691:
 6086              	.LBB4692:
 6087              		.loc 6 98 0
 6088 0158 7F43D378 		mr 3,26
 6089 015c 48000001 		bl _ZdlPv
 6090              	.LVL482:
 6091              	.LBE4692:
 6092              	.LBE4691:
 6093              	.LBE4690:
 6094              	.LBE4689:
 6095              	.LBE4693:
 6096              		.loc 13 1072 0
 6097 0160 2F9F0000 		cmpwi 7,31,0
 6098 0164 419E000C 		beq- 7,.L369
 6099              		.loc 13 1077 0
 6100 0168 7FFAFB78 		mr 26,31
 6101              	.LVL483:
 6102 016c 4BFFFEF0 		b .L414
 6103              	.LVL484:
 6104              	.L369:
 6105              	.LBE4695:
 6106              	.LBE4627:
 6107              	.LBE4626:
 6108              	.LBE4701:
 6109              		.loc 4 285 0
 6110 0170 83FB0008 		lwz 31,8(27)
 6111              	.LVL485:
 6112              	.LBB4702:
 6113              	.LBB4700:
 6114              	.LBB4696:
 6115              	.LBB4697:
 6116              	.LBB4698:
 6117              	.LBB4699:
 6118              		.loc 6 98 0
 6119 0174 7F63DB78 		mr 3,27
 6120 0178 48000001 		bl _ZdlPv
 6121              	.LVL486:
 6122              	.LBE4699:
 6123              	.LBE4698:
 6124              	.LBE4697:
 6125              	.LBE4696:
 6126              	.LBE4700:
 6127              		.loc 13 1072 0
 6128 017c 2F9F0000 		cmpwi 7,31,0
 6129 0180 419E000C 		beq- 7,.L368
 6130              		.loc 13 1077 0
 6131 0184 7FFBFB78 		mr 27,31
 6132              	.LVL487:
 6133 0188 4BFFFEC8 		b .L413
 6134              	.LVL488:
 6135              	.L368:
 6136              		.loc 4 285 0
 6137 018c 83F60008 		lwz 31,8(22)
 6138              	.LVL489:
 6139              	.LBE4702:
 6140              	.LBE4624:
 6141              	.LBB4703:
 6142              	.LBB4704:
 6143              	.LBB4705:
 6144              	.LBB4706:
 6145              		.loc 6 98 0
 6146 0190 7EC3B378 		mr 3,22
 6147 0194 48000001 		bl _ZdlPv
 6148              	.LVL490:
 6149              	.LBE4706:
 6150              	.LBE4705:
 6151              	.LBE4704:
 6152              	.LBE4703:
 6153              	.LBE4623:
 6154              		.loc 13 1072 0
 6155 0198 2F9F0000 		cmpwi 7,31,0
 6156 019c 419E000C 		beq- 7,.L366
 6157              		.loc 13 1077 0
 6158 01a0 7FF6FB78 		mr 22,31
 6159              	.LVL491:
 6160 01a4 4BFFFEA0 		b .L412
 6161              	.LVL492:
 6162              	.L366:
 6163              	.LBE4707:
 6164              		.loc 13 1079 0
 6165 01a8 8001003C 		lwz 0,60(1)
 6166 01ac 82A1000C 		lwz 21,12(1)
 6167 01b0 7C0803A6 		mtlr 0
 6168 01b4 82C10010 		lwz 22,16(1)
 6169 01b8 82E10014 		lwz 23,20(1)
 6170 01bc 83010018 		lwz 24,24(1)
 6171 01c0 8321001C 		lwz 25,28(1)
 6172 01c4 83410020 		lwz 26,32(1)
 6173 01c8 83610024 		lwz 27,36(1)
 6174 01cc 83810028 		lwz 28,40(1)
 6175 01d0 83A1002C 		lwz 29,44(1)
 6176 01d4 83C10030 		lwz 30,48(1)
 6177              	.LVL493:
 6178 01d8 83E10034 		lwz 31,52(1)
 6179 01dc 38210038 		addi 1,1,56
 6180              	.LCFI81:
 6181              		.cfi_def_cfa_offset 0
 6182              		.cfi_restore 31
 6183              		.cfi_restore 30
 6184              		.cfi_restore 29
 6185              		.cfi_restore 28
 6186              		.cfi_restore 27
 6187              		.cfi_restore 26
 6188              		.cfi_restore 25
 6189              		.cfi_restore 24
 6190              		.cfi_restore 23
 6191              		.cfi_restore 22
 6192              		.cfi_restore 21
 6193 01e0 4E800020 		blr
 6194              		.cfi_endproc
 6195              	.LFE2010:
 6196              		.size	_ZNSt8_Rb_treeIPN7sigslot12_signal_baseINS0_15single_threadedEEES4_St9_IdentityIS4_ESt4lessI
 6197              		.section	.text._ZN7sigslot9has_slotsINS_15single_threadedEED2Ev,"axG",@progbits,_ZN7sigslot9has_sl
 6198              		.align 2
 6199              		.weak	_ZN7sigslot9has_slotsINS_15single_threadedEED2Ev
 6200              		.type	_ZN7sigslot9has_slotsINS_15single_threadedEED2Ev, @function
 6201              	_ZN7sigslot9has_slotsINS_15single_threadedEED2Ev:
 6202              	.LFB1779:
 6203              		.loc 1 513 0
 6204              		.cfi_startproc
 6205              		.cfi_personality 0,__gxx_personality_v0
 6206              		.cfi_lsda 0,.LLSDA1779
 6207              	.LVL494:
 6208 0000 7C0802A6 		mflr 0
 6209 0004 9421FFE0 		stwu 1,-32(1)
 6210              	.LCFI82:
 6211              		.cfi_def_cfa_offset 32
 6212              		.cfi_register 65, 0
 6213              	.LBB4854:
 6214              		.loc 1 516 0
 6215 0008 3D200000 		lis 9,_ZTVN7sigslot9has_slotsINS_15single_threadedEEE+8@ha
 6216              	.LBE4854:
 6217              		.loc 1 513 0
 6218 000c 93810010 		stw 28,16(1)
 6219 0010 3B830004 		addi 28,3,4
 6220              		.cfi_offset 28, -16
 6221 0014 90010024 		stw 0,36(1)
 6222              	.LBB4930:
 6223              		.loc 1 516 0
 6224 0018 38090008 		la 0,_ZTVN7sigslot9has_slotsINS_15single_threadedEEE+8@l(9)
 6225              		.cfi_offset 65, 4
 6226              	.LBE4930:
 6227              		.loc 1 513 0
 6228 001c 93A10014 		stw 29,20(1)
 6229 0020 7C7D1B78 		mr 29,3
 6230              		.cfi_offset 29, -12
 6231 0024 93410008 		stw 26,8(1)
 6232 0028 9361000C 		stw 27,12(1)
 6233 002c 93C10018 		stw 30,24(1)
 6234 0030 93E1001C 		stw 31,28(1)
 6235              	.LBB4931:
 6236              		.loc 1 516 0
 6237 0034 90030000 		stw 0,0(3)
 6238              	.LVL495:
 6239              	.LEHB55:
 6240              	.LBB4855:
 6241              	.LBB4856:
 6242              	.LBB4857:
 6243              	.LBB4858:
 6244              		.loc 1 338 0
 6245              		.cfi_offset 31, -4
 6246              		.cfi_offset 30, -8
 6247              		.cfi_offset 27, -20
 6248              		.cfi_offset 26, -24
 6249 0038 48000001 		bl _ZN7sigslot15single_threaded4lockEv
 6250              	.LEHE55:
 6251              	.LVL496:
 6252              	.LBE4858:
 6253              	.LBE4857:
 6254              	.LBB4859:
 6255              		.loc 4 285 0
 6256 003c 83FD0010 		lwz 31,16(29)
 6257              	.LVL497:
 6258              	.LBE4859:
 6259              	.LBB4860:
 6260              	.LBB4861:
 6261              	.LBB4862:
 6262              		.loc 13 671 0
 6263 0040 3BDC0004 		addi 30,28,4
 6264              	.LVL498:
 6265              	.LBE4862:
 6266              	.LBE4861:
 6267              	.LBE4860:
 6268              		.loc 1 524 0
 6269 0044 7F9FF000 		cmpw 7,31,30
 6270 0048 419E0034 		beq- 7,.L422
 6271              	.LVL499:
 6272              	.L449:
 6273              		.loc 1 526 0
 6274 004c 807F0010 		lwz 3,16(31)
 6275 0050 7FA4EB78 		mr 4,29
 6276 0054 81230000 		lwz 9,0(3)
 6277 0058 80090010 		lwz 0,16(9)
 6278 005c 7C0903A6 		mtctr 0
 6279              	.LEHB56:
 6280 0060 4E800421 		bctrl
 6281              	.LEHE56:
 6282              	.LVL500:
 6283              	.LBB4863:
 6284              	.LBB4864:
 6285              		.loc 13 269 0
 6286 0064 7FE3FB78 		mr 3,31
 6287 0068 48000001 		bl _ZSt18_Rb_tree_incrementPKSt18_Rb_tree_node_base
 6288              	.LBE4864:
 6289              	.LBE4863:
 6290              		.loc 1 524 0
 6291 006c 7F9E1800 		cmpw 7,30,3
 6292              	.LBB4866:
 6293              	.LBB4865:
 6294              		.loc 13 269 0
 6295 0070 7C7F1B78 		mr 31,3
 6296              	.LVL501:
 6297              	.LBE4865:
 6298              	.LBE4866:
 6299              		.loc 1 524 0
 6300 0074 409EFFD8 		bne+ 7,.L449
 6301 0078 83FD0010 		lwz 31,16(29)
 6302              	.LVL502:
 6303              	.L422:
 6304              	.LBB4867:
 6305              	.LBB4868:
 6306              	.LBB4869:
 6307              	.LBB4870:
 6308              	.LBB4871:
 6309              	.LBB4872:
 6310              	.LBB4873:
 6311              		.loc 13 665 0
 6312 007c 3B5C0004 		addi 26,28,4
 6313              	.LBE4873:
 6314              	.LBE4872:
 6315              		.loc 13 1500 0
 6316 0080 7F9ED000 		cmpw 7,30,26
 6317 0084 419E0098 		beq- 7,.L424
 6318              	.LVL503:
 6319              		.loc 13 1503 0
 6320 0088 7F9EF800 		cmpw 7,30,31
 6321 008c 40BE000C 		bne+ 7,.L451
 6322 0090 48000038 		b .L425
 6323              	.LVL504:
 6324              	.L446:
 6325              		.loc 13 277 0
 6326 0094 7F7FDB78 		mr 31,27
 6327              	.LVL505:
 6328              	.L451:
 6329              	.LBB4874:
 6330              	.LBB4875:
 6331 0098 7FE3FB78 		mr 3,31
 6332 009c 48000001 		bl _ZSt18_Rb_tree_incrementPKSt18_Rb_tree_node_base
 6333              	.LBE4875:
 6334              	.LBE4874:
 6335              	.LBB4877:
 6336              	.LBB4878:
 6337              	.LBB4879:
 6338              		.loc 13 1489 0
 6339 00a0 7F44D378 		mr 4,26
 6340              	.LBE4879:
 6341              	.LBE4878:
 6342              	.LBE4877:
 6343              	.LBB4888:
 6344              	.LBB4876:
 6345              		.loc 13 277 0
 6346 00a4 7C7B1B78 		mr 27,3
 6347              	.LVL506:
 6348              	.LBE4876:
 6349              	.LBE4888:
 6350              	.LBB4889:
 6351              	.LBB4886:
 6352              	.LBB4884:
 6353              		.loc 13 1489 0
 6354 00a8 7FE3FB78 		mr 3,31
 6355              	.LVL507:
 6356 00ac 48000001 		bl _ZSt28_Rb_tree_rebalance_for_erasePSt18_Rb_tree_node_baseRS_
 6357              	.LBB4880:
 6358              	.LBB4881:
 6359              	.LBB4882:
 6360              	.LBB4883:
 6361              		.loc 6 98 0
 6362 00b0 48000001 		bl _ZdlPv
 6363              	.LBE4883:
 6364              	.LBE4882:
 6365              	.LBE4881:
 6366              	.LBE4880:
 6367              	.LBE4884:
 6368              	.LBE4886:
 6369              	.LBE4889:
 6370              		.loc 13 1503 0
 6371 00b4 7F9ED800 		cmpw 7,30,27
 6372              	.LBB4890:
 6373              	.LBB4887:
 6374              	.LBB4885:
 6375              		.loc 13 1491 0
 6376 00b8 813C0014 		lwz 9,20(28)
 6377 00bc 3809FFFF 		addi 0,9,-1
 6378 00c0 901C0014 		stw 0,20(28)
 6379              	.LBE4885:
 6380              	.LBE4887:
 6381              	.LBE4890:
 6382              		.loc 13 1503 0
 6383 00c4 409EFFD0 		bne+ 7,.L446
 6384              	.LVL508:
 6385              	.L425:
 6386              	.LBE4871:
 6387              	.LBE4870:
 6388              	.LBE4869:
 6389              	.LBE4868:
 6390              	.LBE4867:
 6391              	.LBB4899:
 6392              	.LBB4900:
 6393              	.LBB4901:
 6394              		.loc 1 343 0
 6395 00c8 813D0000 		lwz 9,0(29)
 6396 00cc 7FA3EB78 		mr 3,29
 6397 00d0 8009000C 		lwz 0,12(9)
 6398 00d4 7C0903A6 		mtctr 0
 6399              	.LEHB57:
 6400 00d8 4E800421 		bctrl
 6401              	.LEHE57:
 6402              	.LVL509:
 6403              	.LBE4901:
 6404              	.LBE4900:
 6405              	.LBE4899:
 6406              	.LBE4856:
 6407              	.LBE4855:
 6408              	.LBB4908:
 6409              	.LBB4909:
 6410              	.LBB4910:
 6411              	.LBB4911:
 6412              	.LBB4912:
 6413              		.loc 13 639 0
 6414 00dc 809D000C 		lwz 4,12(29)
 6415 00e0 7F83E378 		mr 3,28
 6416 00e4 48000001 		bl _ZNSt8_Rb_treeIPN7sigslot12_signal_baseINS0_15single_threadedEEES4_St9_IdentityIS4_ESt4lessIS4_
 6417              	.LVL510:
 6418              	.LBE4912:
 6419              	.LBE4911:
 6420              	.LBE4910:
 6421              	.LBE4909:
 6422              	.LBE4908:
 6423              	.LBB4913:
 6424              	.LBB4914:
 6425              	.LBB4915:
 6426              		.loc 1 105 0
 6427 00e8 3D200000 		lis 9,_ZTVN7sigslot15single_threadedE+8@ha
 6428 00ec 38090008 		la 0,_ZTVN7sigslot15single_threadedE+8@l(9)
 6429              	.LBE4915:
 6430              	.LBE4914:
 6431              	.LBE4913:
 6432              	.LBE4931:
 6433              		.loc 1 516 0
 6434 00f0 83410008 		lwz 26,8(1)
 6435              	.LBB4932:
 6436              	.LBB4918:
 6437              	.LBB4917:
 6438              	.LBB4916:
 6439              		.loc 1 105 0
 6440 00f4 901D0000 		stw 0,0(29)
 6441              	.LBE4916:
 6442              	.LBE4917:
 6443              	.LBE4918:
 6444              	.LBE4932:
 6445              		.loc 1 516 0
 6446 00f8 80010024 		lwz 0,36(1)
 6447 00fc 8361000C 		lwz 27,12(1)
 6448 0100 7C0803A6 		mtlr 0
 6449 0104 83810010 		lwz 28,16(1)
 6450              	.LVL511:
 6451 0108 83A10014 		lwz 29,20(1)
 6452              	.LVL512:
 6453 010c 83C10018 		lwz 30,24(1)
 6454              	.LVL513:
 6455 0110 83E1001C 		lwz 31,28(1)
 6456 0114 38210020 		addi 1,1,32
 6457              		.cfi_remember_state
 6458              	.LCFI83:
 6459              		.cfi_def_cfa_offset 0
 6460              		.cfi_restore 31
 6461              		.cfi_restore 30
 6462              		.cfi_restore 29
 6463              		.cfi_restore 28
 6464              		.cfi_restore 27
 6465              		.cfi_restore 26
 6466 0118 4E800020 		blr
 6467              	.LVL514:
 6468              	.L424:
 6469              	.LCFI84:
 6470              		.cfi_restore_state
 6471              	.LBB4933:
 6472              	.LBB4919:
 6473              	.LBB4906:
 6474              	.LBB4902:
 6475              	.LBB4898:
 6476              	.LBB4897:
 6477              	.LBB4896:
 6478              	.LBB4895:
 6479              	.LBB4891:
 6480              	.LBB4892:
 6481              	.LBB4893:
 6482              	.LBB4894:
 6483              		.loc 13 809 0
 6484 011c 809D000C 		lwz 4,12(29)
 6485 0120 7F83E378 		mr 3,28
 6486 0124 48000001 		bl _ZNSt8_Rb_treeIPN7sigslot12_signal_baseINS0_15single_threadedEEES4_St9_IdentityIS4_ESt4lessIS4_
 6487              	.LVL515:
 6488              		.loc 13 811 0
 6489 0128 38000000 		li 0,0
 6490              		.loc 13 810 0
 6491 012c 93DD0010 		stw 30,16(29)
 6492              	.LVL516:
 6493              		.loc 13 811 0
 6494 0130 901D000C 		stw 0,12(29)
 6495              	.LVL517:
 6496              		.loc 13 812 0
 6497 0134 93DD0014 		stw 30,20(29)
 6498              		.loc 13 813 0
 6499 0138 901D0018 		stw 0,24(29)
 6500 013c 4BFFFF8C 		b .L425
 6501              	.LVL518:
 6502              	.L447:
 6503 0140 7C7F1B78 		mr 31,3
 6504              	.L432:
 6505              	.LVL519:
 6506              	.LBE4894:
 6507              	.LBE4893:
 6508              	.LBE4892:
 6509              	.LBE4891:
 6510              	.LBE4895:
 6511              	.LBE4896:
 6512              	.LBE4897:
 6513              	.LBE4898:
 6514              	.LBE4902:
 6515              	.LBE4906:
 6516              	.LBE4919:
 6517              	.LBB4920:
 6518              	.LBB4921:
 6519              	.LBB4922:
 6520              	.LBB4923:
 6521              	.LBB4924:
 6522              	.LBB4925:
 6523              		.loc 13 639 0
 6524 0144 809D000C 		lwz 4,12(29)
 6525 0148 7F83E378 		mr 3,28
 6526 014c 48000001 		bl _ZNSt8_Rb_treeIPN7sigslot12_signal_baseINS0_15single_threadedEEES4_St9_IdentityIS4_ESt4lessIS4_
 6527              	.LVL520:
 6528              	.LBE4925:
 6529              	.LBE4924:
 6530              	.LBE4923:
 6531              	.LBE4922:
 6532              	.LBE4921:
 6533              	.LBE4920:
 6534              	.LBB4926:
 6535              	.LBB4927:
 6536              	.LBB4928:
 6537              		.loc 1 105 0
 6538 0150 3D200000 		lis 9,_ZTVN7sigslot15single_threadedE+8@ha
 6539 0154 38090008 		la 0,_ZTVN7sigslot15single_threadedE+8@l(9)
 6540 0158 7FE3FB78 		mr 3,31
 6541 015c 901D0000 		stw 0,0(29)
 6542              	.LEHB58:
 6543 0160 48000001 		bl _Unwind_Resume
 6544              	.LEHE58:
 6545              	.LVL521:
 6546              	.L448:
 6547              	.LBE4928:
 6548              	.LBE4927:
 6549              	.LBE4926:
 6550              	.LBB4929:
 6551              	.LBB4907:
 6552              	.LBB4903:
 6553              	.LBB4904:
 6554              	.LBB4905:
 6555              		.loc 1 343 0
 6556 0164 813D0000 		lwz 9,0(29)
 6557 0168 7C7F1B78 		mr 31,3
 6558              	.LVL522:
 6559 016c 7FA3EB78 		mr 3,29
 6560 0170 8009000C 		lwz 0,12(9)
 6561 0174 7C0903A6 		mtctr 0
 6562 0178 4E800421 		bctrl
 6563 017c 4BFFFFC8 		b .L432
 6564              	.LBE4905:
 6565              	.LBE4904:
 6566              	.LBE4903:
 6567              	.LBE4907:
 6568              	.LBE4929:
 6569              	.LBE4933:
 6570              		.cfi_endproc
 6571              	.LFE1779:
 6572              		.section	.gcc_except_table
 6573              	.LLSDA1779:
 6574 0146 FF       		.byte	0xff
 6575 0147 FF       		.byte	0xff
 6576 0148 01       		.byte	0x1
 6577 0149 15       		.uleb128 .LLSDACSE1779-.LLSDACSB1779
 6578              	.LLSDACSB1779:
 6579 014a 38       		.uleb128 .LEHB55-.LFB1779
 6580 014b 04       		.uleb128 .LEHE55-.LEHB55
 6581 014c C002     		.uleb128 .L447-.LFB1779
 6582 014e 00       		.uleb128 0
 6583 014f 60       		.uleb128 .LEHB56-.LFB1779
 6584 0150 04       		.uleb128 .LEHE56-.LEHB56
 6585 0151 E402     		.uleb128 .L448-.LFB1779
 6586 0153 00       		.uleb128 0
 6587 0154 D801     		.uleb128 .LEHB57-.LFB1779
 6588 0156 04       		.uleb128 .LEHE57-.LEHB57
 6589 0157 C002     		.uleb128 .L447-.LFB1779
 6590 0159 00       		.uleb128 0
 6591 015a E002     		.uleb128 .LEHB58-.LFB1779
 6592 015c 04       		.uleb128 .LEHE58-.LEHB58
 6593 015d 00       		.uleb128 0
 6594 015e 00       		.uleb128 0
 6595              	.LLSDACSE1779:
 6596              		.section	.text._ZN7sigslot9has_slotsINS_15single_threadedEED2Ev,"axG",@progbits,_ZN7sigslot9has_sl
 6597              		.size	_ZN7sigslot9has_slotsINS_15single_threadedEED2Ev, .-_ZN7sigslot9has_slotsINS_15single_thread
 6598              		.section	.text._ZN7sigslot9has_slotsINS_15single_threadedEED0Ev,"axG",@progbits,_ZN7sigslot9has_sl
 6599              		.align 2
 6600              		.weak	_ZN7sigslot9has_slotsINS_15single_threadedEED0Ev
 6601              		.type	_ZN7sigslot9has_slotsINS_15single_threadedEED0Ev, @function
 6602              	_ZN7sigslot9has_slotsINS_15single_threadedEED0Ev:
 6603              	.LFB1781:
 6604              		.loc 1 513 0
 6605              		.cfi_startproc
 6606              		.cfi_personality 0,__gxx_personality_v0
 6607              		.cfi_lsda 0,.LLSDA1781
 6608              	.LVL523:
 6609 0000 7C0802A6 		mflr 0
 6610 0004 9421FFE0 		stwu 1,-32(1)
 6611              	.LCFI85:
 6612              		.cfi_def_cfa_offset 32
 6613              		.cfi_register 65, 0
 6614              	.LBB5027:
 6615              	.LBB5028:
 6616              	.LBB5029:
 6617              		.loc 1 516 0
 6618 0008 3D200000 		lis 9,_ZTVN7sigslot9has_slotsINS_15single_threadedEEE+8@ha
 6619              	.LBE5029:
 6620              	.LBE5028:
 6621              	.LBE5027:
 6622              		.loc 1 513 0
 6623 000c 93810010 		stw 28,16(1)
 6624 0010 3B830004 		addi 28,3,4
 6625              		.cfi_offset 28, -16
 6626 0014 90010024 		stw 0,36(1)
 6627              	.LBB5113:
 6628              	.LBB5109:
 6629              	.LBB5105:
 6630              		.loc 1 516 0
 6631 0018 38090008 		la 0,_ZTVN7sigslot9has_slotsINS_15single_threadedEEE+8@l(9)
 6632              		.cfi_offset 65, 4
 6633              	.LBE5105:
 6634              	.LBE5109:
 6635              	.LBE5113:
 6636              		.loc 1 513 0
 6637 001c 93A10014 		stw 29,20(1)
 6638 0020 7C7D1B78 		mr 29,3
 6639              		.cfi_offset 29, -12
 6640              	.LVL524:
 6641 0024 93410008 		stw 26,8(1)
 6642 0028 9361000C 		stw 27,12(1)
 6643 002c 93C10018 		stw 30,24(1)
 6644 0030 93E1001C 		stw 31,28(1)
 6645              	.LBB5114:
 6646              	.LBB5110:
 6647              	.LBB5106:
 6648              		.loc 1 516 0
 6649 0034 90030000 		stw 0,0(3)
 6650              	.LVL525:
 6651              	.LEHB59:
 6652              	.LBB5030:
 6653              	.LBB5031:
 6654              	.LBB5032:
 6655              	.LBB5033:
 6656              		.loc 1 338 0
 6657              		.cfi_offset 31, -4
 6658              		.cfi_offset 30, -8
 6659              		.cfi_offset 27, -20
 6660              		.cfi_offset 26, -24
 6661 0038 48000001 		bl _ZN7sigslot15single_threaded4lockEv
 6662              	.LEHE59:
 6663              	.LVL526:
 6664              	.LBE5033:
 6665              	.LBE5032:
 6666              	.LBB5034:
 6667              		.loc 4 285 0
 6668 003c 83FD0010 		lwz 31,16(29)
 6669              	.LVL527:
 6670              	.LBE5034:
 6671              	.LBB5035:
 6672              	.LBB5036:
 6673              	.LBB5037:
 6674              		.loc 13 671 0
 6675 0040 3BDC0004 		addi 30,28,4
 6676              	.LVL528:
 6677              	.LBE5037:
 6678              	.LBE5036:
 6679              	.LBE5035:
 6680              		.loc 1 524 0
 6681 0044 7F9FF000 		cmpw 7,31,30
 6682 0048 419E0034 		beq- 7,.L454
 6683              	.LVL529:
 6684              	.L482:
 6685              		.loc 1 526 0
 6686 004c 807F0010 		lwz 3,16(31)
 6687 0050 7FA4EB78 		mr 4,29
 6688 0054 81230000 		lwz 9,0(3)
 6689 0058 80090010 		lwz 0,16(9)
 6690 005c 7C0903A6 		mtctr 0
 6691              	.LEHB60:
 6692 0060 4E800421 		bctrl
 6693              	.LEHE60:
 6694              	.LVL530:
 6695              	.LBB5038:
 6696              	.LBB5039:
 6697              		.loc 13 269 0
 6698 0064 7FE3FB78 		mr 3,31
 6699 0068 48000001 		bl _ZSt18_Rb_tree_incrementPKSt18_Rb_tree_node_base
 6700              	.LBE5039:
 6701              	.LBE5038:
 6702              		.loc 1 524 0
 6703 006c 7F9E1800 		cmpw 7,30,3
 6704              	.LBB5041:
 6705              	.LBB5040:
 6706              		.loc 13 269 0
 6707 0070 7C7F1B78 		mr 31,3
 6708              	.LVL531:
 6709              	.LBE5040:
 6710              	.LBE5041:
 6711              		.loc 1 524 0
 6712 0074 409EFFD8 		bne+ 7,.L482
 6713 0078 83FD0010 		lwz 31,16(29)
 6714              	.LVL532:
 6715              	.L454:
 6716              	.LBB5042:
 6717              	.LBB5043:
 6718              	.LBB5044:
 6719              	.LBB5045:
 6720              	.LBB5046:
 6721              	.LBB5047:
 6722              	.LBB5048:
 6723              		.loc 13 665 0
 6724 007c 3B5C0004 		addi 26,28,4
 6725              	.LBE5048:
 6726              	.LBE5047:
 6727              		.loc 13 1500 0
 6728 0080 7F9ED000 		cmpw 7,30,26
 6729 0084 419E00A0 		beq- 7,.L456
 6730              	.LVL533:
 6731              		.loc 13 1503 0
 6732 0088 7F9EF800 		cmpw 7,30,31
 6733 008c 40BE000C 		bne+ 7,.L484
 6734 0090 48000038 		b .L457
 6735              	.LVL534:
 6736              	.L479:
 6737              		.loc 13 277 0
 6738 0094 7F7FDB78 		mr 31,27
 6739              	.LVL535:
 6740              	.L484:
 6741              	.LBB5049:
 6742              	.LBB5050:
 6743 0098 7FE3FB78 		mr 3,31
 6744 009c 48000001 		bl _ZSt18_Rb_tree_incrementPKSt18_Rb_tree_node_base
 6745              	.LBE5050:
 6746              	.LBE5049:
 6747              	.LBB5052:
 6748              	.LBB5053:
 6749              	.LBB5054:
 6750              		.loc 13 1489 0
 6751 00a0 7F44D378 		mr 4,26
 6752              	.LBE5054:
 6753              	.LBE5053:
 6754              	.LBE5052:
 6755              	.LBB5063:
 6756              	.LBB5051:
 6757              		.loc 13 277 0
 6758 00a4 7C7B1B78 		mr 27,3
 6759              	.LVL536:
 6760              	.LBE5051:
 6761              	.LBE5063:
 6762              	.LBB5064:
 6763              	.LBB5061:
 6764              	.LBB5059:
 6765              		.loc 13 1489 0
 6766 00a8 7FE3FB78 		mr 3,31
 6767              	.LVL537:
 6768 00ac 48000001 		bl _ZSt28_Rb_tree_rebalance_for_erasePSt18_Rb_tree_node_baseRS_
 6769              	.LBB5055:
 6770              	.LBB5056:
 6771              	.LBB5057:
 6772              	.LBB5058:
 6773              		.loc 6 98 0
 6774 00b0 48000001 		bl _ZdlPv
 6775              	.LBE5058:
 6776              	.LBE5057:
 6777              	.LBE5056:
 6778              	.LBE5055:
 6779              	.LBE5059:
 6780              	.LBE5061:
 6781              	.LBE5064:
 6782              		.loc 13 1503 0
 6783 00b4 7F9ED800 		cmpw 7,30,27
 6784              	.LBB5065:
 6785              	.LBB5062:
 6786              	.LBB5060:
 6787              		.loc 13 1491 0
 6788 00b8 813C0014 		lwz 9,20(28)
 6789 00bc 3809FFFF 		addi 0,9,-1
 6790 00c0 901C0014 		stw 0,20(28)
 6791              	.LBE5060:
 6792              	.LBE5062:
 6793              	.LBE5065:
 6794              		.loc 13 1503 0
 6795 00c4 409EFFD0 		bne+ 7,.L479
 6796              	.LVL538:
 6797              	.L457:
 6798              	.LBE5046:
 6799              	.LBE5045:
 6800              	.LBE5044:
 6801              	.LBE5043:
 6802              	.LBE5042:
 6803              	.LBB5074:
 6804              	.LBB5075:
 6805              	.LBB5076:
 6806              		.loc 1 343 0
 6807 00c8 813D0000 		lwz 9,0(29)
 6808 00cc 7FA3EB78 		mr 3,29
 6809 00d0 8009000C 		lwz 0,12(9)
 6810 00d4 7C0903A6 		mtctr 0
 6811              	.LEHB61:
 6812 00d8 4E800421 		bctrl
 6813              	.LEHE61:
 6814              	.LVL539:
 6815              	.LBE5076:
 6816              	.LBE5075:
 6817              	.LBE5074:
 6818              	.LBE5031:
 6819              	.LBE5030:
 6820              	.LBB5083:
 6821              	.LBB5084:
 6822              	.LBB5085:
 6823              	.LBB5086:
 6824              	.LBB5087:
 6825              		.loc 13 639 0
 6826 00dc 809D000C 		lwz 4,12(29)
 6827 00e0 7F83E378 		mr 3,28
 6828 00e4 48000001 		bl _ZNSt8_Rb_treeIPN7sigslot12_signal_baseINS0_15single_threadedEEES4_St9_IdentityIS4_ESt4lessIS4_
 6829              	.LVL540:
 6830              	.LBE5087:
 6831              	.LBE5086:
 6832              	.LBE5085:
 6833              	.LBE5084:
 6834              	.LBE5083:
 6835              	.LBB5088:
 6836              	.LBB5089:
 6837              	.LBB5090:
 6838              		.loc 1 105 0
 6839 00e8 3D200000 		lis 9,_ZTVN7sigslot15single_threadedE+8@ha
 6840 00ec 38090008 		la 0,_ZTVN7sigslot15single_threadedE+8@l(9)
 6841              	.LBE5090:
 6842              	.LBE5089:
 6843              	.LBE5088:
 6844              	.LBE5106:
 6845              	.LBE5110:
 6846              	.LBE5114:
 6847              		.loc 1 516 0
 6848 00f0 7FA3EB78 		mr 3,29
 6849              	.LBB5115:
 6850              	.LBB5111:
 6851              	.LBB5107:
 6852              	.LBB5093:
 6853              	.LBB5092:
 6854              	.LBB5091:
 6855              		.loc 1 105 0
 6856 00f4 901D0000 		stw 0,0(29)
 6857              	.LBE5091:
 6858              	.LBE5092:
 6859              	.LBE5093:
 6860              	.LBE5107:
 6861              	.LBE5111:
 6862              	.LBE5115:
 6863              		.loc 1 516 0
 6864 00f8 48000001 		bl _ZdlPv
 6865 00fc 80010024 		lwz 0,36(1)
 6866 0100 83410008 		lwz 26,8(1)
 6867 0104 7C0803A6 		mtlr 0
 6868 0108 8361000C 		lwz 27,12(1)
 6869 010c 83810010 		lwz 28,16(1)
