   1              		.file	"PlayList.cpp"
   2              		.section	".text"
   3              	.Ltext0:
   4              		.section	.text._ZN7sigslot15single_threadedD2Ev,"axG",@progbits,_ZN7sigslot15single_threadedD5Ev,c
   5              		.align 2
   6              		.weak	_ZN7sigslot15single_threadedD2Ev
   7              		.type	_ZN7sigslot15single_threadedD2Ev, @function
   8              	_ZN7sigslot15single_threadedD2Ev:
   9              	.LFB1148:
  10              		.file 1 "d:/Projects/SaveGameManager/savegame-manager-gx/trunk/source/SoundOperations/../Controls/
  11              		.loc 1 104 0
  12              		.cfi_startproc
  13              	.LVL0:
  14              	.LBB4471:
  15              		.loc 1 105 0
  16 0000 3D200000 		lis 9,_ZTVN7sigslot15single_threadedE+8@ha
  17              	.LBE4471:
  18              		.loc 1 107 0
  19              	.LBB4472:
  20              		.loc 1 105 0
  21 0004 38090008 		la 0,_ZTVN7sigslot15single_threadedE+8@l(9)
  22 0008 90030000 		stw 0,0(3)
  23              	.LBE4472:
  24              		.loc 1 107 0
  25 000c 4E800020 		blr
  26              		.cfi_endproc
  27              	.LFE1148:
  28              		.size	_ZN7sigslot15single_threadedD2Ev, .-_ZN7sigslot15single_threadedD2Ev
  29              		.section	.text._ZN7sigslot15single_threaded4lockEv,"axG",@progbits,_ZN7sigslot15single_threaded4lo
  30              		.align 2
  31              		.weak	_ZN7sigslot15single_threaded4lockEv
  32              		.type	_ZN7sigslot15single_threaded4lockEv, @function
  33              	_ZN7sigslot15single_threaded4lockEv:
  34              	.LFB1151:
  35              		.loc 1 109 0
  36              		.cfi_startproc
  37              	.LVL1:
  38              		.loc 1 112 0
  39 0000 4E800020 		blr
  40              		.cfi_endproc
  41              	.LFE1151:
  42              		.size	_ZN7sigslot15single_threaded4lockEv, .-_ZN7sigslot15single_threaded4lockEv
  43              		.section	.text._ZN7sigslot15single_threaded6unlockEv,"axG",@progbits,_ZN7sigslot15single_threaded6
  44              		.align 2
  45              		.weak	_ZN7sigslot15single_threaded6unlockEv
  46              		.type	_ZN7sigslot15single_threaded6unlockEv, @function
  47              	_ZN7sigslot15single_threaded6unlockEv:
  48              	.LFB1152:
  49              		.loc 1 114 0
  50              		.cfi_startproc
  51              	.LVL2:
  52              		.loc 1 117 0
  53 0000 4E800020 		blr
  54              		.cfi_endproc
  55              	.LFE1152:
  56              		.size	_ZN7sigslot15single_threaded6unlockEv, .-_ZN7sigslot15single_threaded6unlockEv
  57              		.section	.text._ZN10GuiElement9SetParentEPS_,"axG",@progbits,_ZN10GuiElement9SetParentEPS_,comdat
  58              		.align 2
  59              		.weak	_ZN10GuiElement9SetParentEPS_
  60              		.type	_ZN10GuiElement9SetParentEPS_, @function
  61              	_ZN10GuiElement9SetParentEPS_:
  62              	.LFB1384:
  63              		.file 2 "d:/Projects/SaveGameManager/savegame-manager-gx/trunk/source/SoundOperations/../Controls/
  64              		.loc 2 92 0
  65              		.cfi_startproc
  66              	.LVL3:
  67              		.loc 2 92 0
  68 0000 90830060 		stw 4,96(3)
  69 0004 4E800020 		blr
  70              		.cfi_endproc
  71              	.LFE1384:
  72              		.size	_ZN10GuiElement9SetParentEPS_, .-_ZN10GuiElement9SetParentEPS_
  73              		.section	.text._ZN10GuiElement9GetParentEv,"axG",@progbits,_ZN10GuiElement9GetParentEv,comdat
  74              		.align 2
  75              		.weak	_ZN10GuiElement9GetParentEv
  76              		.type	_ZN10GuiElement9GetParentEv, @function
  77              	_ZN10GuiElement9GetParentEv:
  78              	.LFB1385:
  79              		.loc 2 95 0
  80              		.cfi_startproc
  81              	.LVL4:
  82              		.loc 2 95 0
  83 0000 80630060 		lwz 3,96(3)
  84              	.LVL5:
  85 0004 4E800020 		blr
  86              		.cfi_endproc
  87              	.LFE1385:
  88              		.size	_ZN10GuiElement9GetParentEv, .-_ZN10GuiElement9GetParentEv
  89              		.section	.text._ZN10GuiElement12GetZPositionEv,"axG",@progbits,_ZN10GuiElement12GetZPositionEv,com
  90              		.align 2
  91              		.weak	_ZN10GuiElement12GetZPositionEv
  92              		.type	_ZN10GuiElement12GetZPositionEv, @function
  93              	_ZN10GuiElement12GetZPositionEv:
  94              	.LFB1386:
  95              		.loc 2 106 0
  96              		.cfi_startproc
  97              	.LVL6:
  98 0000 7C0802A6 		mflr 0
  99 0004 9421FFF0 		stwu 1,-16(1)
 100              	.LCFI0:
 101              		.cfi_def_cfa_offset 16
 102              		.cfi_register 65, 0
 103 0008 93E1000C 		stw 31,12(1)
 104 000c 7C7F1B78 		mr 31,3
 105              		.cfi_offset 31, -4
 106 0010 90010014 		stw 0,20(1)
 107              	.LBB4473:
 108              		.loc 2 110 0
 109 0014 81630060 		lwz 11,96(3)
 110              		.loc 2 108 0
 111 0018 38600000 		li 3,0
 112              	.LVL7:
 113              		.loc 2 110 0
 114 001c 2F8B0000 		cmpwi 7,11,0
 115 0020 419E0018 		beq- 7,.L8
 116              		.cfi_offset 65, 4
 117              		.loc 2 111 0
 118 0024 812B0000 		lwz 9,0(11)
 119 0028 7D635B78 		mr 3,11
 120 002c 80090018 		lwz 0,24(9)
 121 0030 7C0903A6 		mtctr 0
 122 0034 4E800421 		bctrl
 123              	.LVL8:
 124              	.L8:
 125              		.loc 2 113 0
 126 0038 801F0034 		lwz 0,52(31)
 127              	.LBE4473:
 128              		.loc 2 114 0
 129 003c 83E1000C 		lwz 31,12(1)
 130              	.LVL9:
 131 0040 7C630214 		add 3,3,0
 132              	.LVL10:
 133 0044 80010014 		lwz 0,20(1)
 134 0048 38210010 		addi 1,1,16
 135              	.LCFI1:
 136              		.cfi_def_cfa_offset 0
 137              		.cfi_restore 31
 138 004c 7C0803A6 		mtlr 0
 139 0050 4E800020 		blr
 140              		.cfi_endproc
 141              	.LFE1386:
 142              		.size	_ZN10GuiElement12GetZPositionEv, .-_ZN10GuiElement12GetZPositionEv
 143              		.section	.text._ZN10GuiElement10GetLeftPosEv,"axG",@progbits,_ZN10GuiElement10GetLeftPosEv,comdat
 144              		.align 2
 145              		.weak	_ZN10GuiElement10GetLeftPosEv
 146              		.type	_ZN10GuiElement10GetLeftPosEv, @function
 147              	_ZN10GuiElement10GetLeftPosEv:
 148              	.LFB1387:
 149              		.loc 2 116 0
 150              		.cfi_startproc
 151              	.LVL11:
 152              		.loc 2 116 0
 153 0000 8063002C 		lwz 3,44(3)
 154              	.LVL12:
 155 0004 4E800020 		blr
 156              		.cfi_endproc
 157              	.LFE1387:
 158              		.size	_ZN10GuiElement10GetLeftPosEv, .-_ZN10GuiElement10GetLeftPosEv
 159              		.section	.text._ZN10GuiElement9GetTopPosEv,"axG",@progbits,_ZN10GuiElement9GetTopPosEv,comdat
 160              		.align 2
 161              		.weak	_ZN10GuiElement9GetTopPosEv
 162              		.type	_ZN10GuiElement9GetTopPosEv, @function
 163              	_ZN10GuiElement9GetTopPosEv:
 164              	.LFB1388:
 165              		.loc 2 118 0
 166              		.cfi_startproc
 167              	.LVL13:
 168              		.loc 2 118 0
 169 0000 80630030 		lwz 3,48(3)
 170              	.LVL14:
 171 0004 4E800020 		blr
 172              		.cfi_endproc
 173              	.LFE1388:
 174              		.size	_ZN10GuiElement9GetTopPosEv, .-_ZN10GuiElement9GetTopPosEv
 175              		.section	.text._ZN10GuiElement8GetWidthEv,"axG",@progbits,_ZN10GuiElement8GetWidthEv,comdat
 176              		.align 2
 177              		.weak	_ZN10GuiElement8GetWidthEv
 178              		.type	_ZN10GuiElement8GetWidthEv, @function
 179              	_ZN10GuiElement8GetWidthEv:
 180              	.LFB1389:
 181              		.loc 2 121 0
 182              		.cfi_startproc
 183              	.LVL15:
 184              		.loc 2 121 0
 185 0000 80630024 		lwz 3,36(3)
 186              	.LVL16:
 187 0004 4E800020 		blr
 188              		.cfi_endproc
 189              	.LFE1389:
 190              		.size	_ZN10GuiElement8GetWidthEv, .-_ZN10GuiElement8GetWidthEv
 191              		.section	.text._ZN10GuiElement9GetHeightEv,"axG",@progbits,_ZN10GuiElement9GetHeightEv,comdat
 192              		.align 2
 193              		.weak	_ZN10GuiElement9GetHeightEv
 194              		.type	_ZN10GuiElement9GetHeightEv, @function
 195              	_ZN10GuiElement9GetHeightEv:
 196              	.LFB1390:
 197              		.loc 2 124 0
 198              		.cfi_startproc
 199              	.LVL17:
 200              		.loc 2 124 0
 201 0000 80630028 		lwz 3,40(3)
 202              	.LVL18:
 203 0004 4E800020 		blr
 204              		.cfi_endproc
 205              	.LFE1390:
 206              		.size	_ZN10GuiElement9GetHeightEv, .-_ZN10GuiElement9GetHeightEv
 207              		.section	.text._ZN10GuiElement7SetSizeEii,"axG",@progbits,_ZN10GuiElement7SetSizeEii,comdat
 208              		.align 2
 209              		.weak	_ZN10GuiElement7SetSizeEii
 210              		.type	_ZN10GuiElement7SetSizeEii, @function
 211              	_ZN10GuiElement7SetSizeEii:
 212              	.LFB1391:
 213              		.loc 2 128 0
 214              		.cfi_startproc
 215              	.LVL19:
 216              		.loc 2 130 0
 217 0000 90830024 		stw 4,36(3)
 218              		.loc 2 132 0
 219              		.loc 2 131 0
 220 0004 90A30028 		stw 5,40(3)
 221              		.loc 2 132 0
 222 0008 4E800020 		blr
 223              		.cfi_endproc
 224              	.LFE1391:
 225              		.size	_ZN10GuiElement7SetSizeEii, .-_ZN10GuiElement7SetSizeEii
 226              		.section	.text._ZN10GuiElement9IsVisibleEv,"axG",@progbits,_ZN10GuiElement9IsVisibleEv,comdat
 227              		.align 2
 228              		.weak	_ZN10GuiElement9IsVisibleEv
 229              		.type	_ZN10GuiElement9IsVisibleEv, @function
 230              	_ZN10GuiElement9IsVisibleEv:
 231              	.LFB1393:
 232              		.loc 2 142 0
 233              		.cfi_startproc
 234              	.LVL20:
 235              		.loc 2 142 0
 236 0000 8863001D 		lbz 3,29(3)
 237              	.LVL21:
 238 0004 4E800020 		blr
 239              		.cfi_endproc
 240              	.LFE1393:
 241              		.size	_ZN10GuiElement9IsVisibleEv, .-_ZN10GuiElement9IsVisibleEv
 242              		.section	.text._ZN10GuiElement12IsSelectableEv,"axG",@progbits,_ZN10GuiElement12IsSelectableEv,com
 243              		.align 2
 244              		.weak	_ZN10GuiElement12IsSelectableEv
 245              		.type	_ZN10GuiElement12IsSelectableEv, @function
 246              	_ZN10GuiElement12IsSelectableEv:
 247              	.LFB1394:
 248              		.loc 2 145 0
 249              		.cfi_startproc
 250              	.LVL22:
 251              		.loc 2 149 0
 252 0000 80030048 		lwz 0,72(3)
 253 0004 39200000 		li 9,0
 254 0008 2F800004 		cmpwi 7,0,4
 255 000c 419E0010 		beq- 7,.L18
 256              		.loc 2 149 0 is_stmt 0 discriminator 1
 257 0010 2F800002 		cmpwi 7,0,2
 258 0014 419E0008 		beq- 7,.L18
 259              		.loc 2 149 0 discriminator 3
 260 0018 8923001E 		lbz 9,30(3)
 261              	.L18:
 262              		.loc 2 150 0 is_stmt 1 discriminator 5
 263 001c 7D234B78 		mr 3,9
 264              	.LVL23:
 265 0020 4E800020 		blr
 266              		.cfi_endproc
 267              	.LFE1394:
 268              		.size	_ZN10GuiElement12IsSelectableEv, .-_ZN10GuiElement12IsSelectableEv
 269              		.section	.text._ZN10GuiElement11IsClickableEv,"axG",@progbits,_ZN10GuiElement11IsClickableEv,comda
 270              		.align 2
 271              		.weak	_ZN10GuiElement11IsClickableEv
 272              		.type	_ZN10GuiElement11IsClickableEv, @function
 273              	_ZN10GuiElement11IsClickableEv:
 274              	.LFB1395:
 275              		.loc 2 153 0
 276              		.cfi_startproc
 277              	.LVL24:
 278              		.loc 2 158 0
 279 0000 80030048 		lwz 0,72(3)
 280 0004 39200000 		li 9,0
 281 0008 2F800004 		cmpwi 7,0,4
 282 000c 419E0018 		beq- 7,.L22
 283              		.loc 2 158 0 is_stmt 0 discriminator 1
 284 0010 2F800002 		cmpwi 7,0,2
 285 0014 419E0010 		beq- 7,.L22
 286              		.loc 2 158 0 discriminator 3
 287 0018 2F800003 		cmpwi 7,0,3
 288 001c 419E0008 		beq- 7,.L22
 289              		.loc 2 158 0 discriminator 4
 290 0020 8923001F 		lbz 9,31(3)
 291              	.L22:
 292              		.loc 2 159 0 is_stmt 1 discriminator 6
 293 0024 7D234B78 		mr 3,9
 294              	.LVL25:
 295 0028 4E800020 		blr
 296              		.cfi_endproc
 297              	.LFE1395:
 298              		.size	_ZN10GuiElement11IsClickableEv, .-_ZN10GuiElement11IsClickableEv
 299              		.section	.text._ZN10GuiElement10IsHoldableEv,"axG",@progbits,_ZN10GuiElement10IsHoldableEv,comdat
 300              		.align 2
 301              		.weak	_ZN10GuiElement10IsHoldableEv
 302              		.type	_ZN10GuiElement10IsHoldableEv, @function
 303              	_ZN10GuiElement10IsHoldableEv:
 304              	.LFB1396:
 305              		.loc 2 162 0
 306              		.cfi_startproc
 307              	.LVL26:
 308              		.loc 2 162 0
 309 0000 81230048 		lwz 9,72(3)
 310 0004 38000000 		li 0,0
 311 0008 2F890004 		cmpwi 7,9,4
 312 000c 419E0008 		beq- 7,.L27
 313              		.loc 2 162 0 is_stmt 0 discriminator 1
 314 0010 88030020 		lbz 0,32(3)
 315              	.L27:
 316              		.loc 2 162 0 discriminator 4
 317 0014 7C030378 		mr 3,0
 318              	.LVL27:
 319 0018 4E800020 		blr
 320              		.cfi_endproc
 321              	.LFE1396:
 322              		.size	_ZN10GuiElement10IsHoldableEv, .-_ZN10GuiElement10IsHoldableEv
 323              		.section	.text._ZN10GuiElement13SetSelectableEb,"axG",@progbits,_ZN10GuiElement13SetSelectableEb,c
 324              		.align 2
 325              		.weak	_ZN10GuiElement13SetSelectableEb
 326              		.type	_ZN10GuiElement13SetSelectableEb, @function
 327              	_ZN10GuiElement13SetSelectableEb:
 328              	.LFB1397:
 329              		.loc 2 165 0 is_stmt 1
 330              		.cfi_startproc
 331              	.LVL28:
 332              		.loc 2 165 0
 333 0000 9883001E 		stb 4,30(3)
 334 0004 4E800020 		blr
 335              		.cfi_endproc
 336              	.LFE1397:
 337              		.size	_ZN10GuiElement13SetSelectableEb, .-_ZN10GuiElement13SetSelectableEb
 338              		.section	.text._ZN10GuiElement12SetClickableEb,"axG",@progbits,_ZN10GuiElement12SetClickableEb,com
 339              		.align 2
 340              		.weak	_ZN10GuiElement12SetClickableEb
 341              		.type	_ZN10GuiElement12SetClickableEb, @function
 342              	_ZN10GuiElement12SetClickableEb:
 343              	.LFB1398:
 344              		.loc 2 168 0
 345              		.cfi_startproc
 346              	.LVL29:
 347              		.loc 2 168 0
 348 0000 9883001F 		stb 4,31(3)
 349 0004 4E800020 		blr
 350              		.cfi_endproc
 351              	.LFE1398:
 352              		.size	_ZN10GuiElement12SetClickableEb, .-_ZN10GuiElement12SetClickableEb
 353              		.section	.text._ZN10GuiElement11SetHoldableEb,"axG",@progbits,_ZN10GuiElement11SetHoldableEb,comda
 354              		.align 2
 355              		.weak	_ZN10GuiElement11SetHoldableEb
 356              		.type	_ZN10GuiElement11SetHoldableEb, @function
 357              	_ZN10GuiElement11SetHoldableEb:
 358              	.LFB1399:
 359              		.loc 2 171 0
 360              		.cfi_startproc
 361              	.LVL30:
 362              		.loc 2 171 0
 363 0000 98830020 		stb 4,32(3)
 364 0004 4E800020 		blr
 365              		.cfi_endproc
 366              	.LFE1399:
 367              		.size	_ZN10GuiElement11SetHoldableEb, .-_ZN10GuiElement11SetHoldableEb
 368              		.section	.text._ZN10GuiElement8GetStateEv,"axG",@progbits,_ZN10GuiElement8GetStateEv,comdat
 369              		.align 2
 370              		.weak	_ZN10GuiElement8GetStateEv
 371              		.type	_ZN10GuiElement8GetStateEv, @function
 372              	_ZN10GuiElement8GetStateEv:
 373              	.LFB1400:
 374              		.loc 2 178 0
 375              		.cfi_startproc
 376              	.LVL31:
 377              		.loc 2 178 0
 378 0000 80630048 		lwz 3,72(3)
 379              	.LVL32:
 380 0004 4E800020 		blr
 381              		.cfi_endproc
 382              	.LFE1400:
 383              		.size	_ZN10GuiElement8GetStateEv, .-_ZN10GuiElement8GetStateEv
 384              		.section	.text._ZN10GuiElement12GetStateChanEv,"axG",@progbits,_ZN10GuiElement12GetStateChanEv,com
 385              		.align 2
 386              		.weak	_ZN10GuiElement12GetStateChanEv
 387              		.type	_ZN10GuiElement12GetStateChanEv, @function
 388              	_ZN10GuiElement12GetStateChanEv:
 389              	.LFB1401:
 390              		.loc 2 181 0
 391              		.cfi_startproc
 392              	.LVL33:
 393              		.loc 2 181 0
 394 0000 8063004C 		lwz 3,76(3)
 395              	.LVL34:
 396 0004 4E800020 		blr
 397              		.cfi_endproc
 398              	.LFE1401:
 399              		.size	_ZN10GuiElement12GetStateChanEv, .-_ZN10GuiElement12GetStateChanEv
 400              		.section	.text._ZN10GuiElement8SetAlphaEi,"axG",@progbits,_ZN10GuiElement8SetAlphaEi,comdat
 401              		.align 2
 402              		.weak	_ZN10GuiElement8SetAlphaEi
 403              		.type	_ZN10GuiElement8SetAlphaEi, @function
 404              	_ZN10GuiElement8SetAlphaEi:
 405              	.LFB1403:
 406              		.loc 2 190 0
 407              		.cfi_startproc
 408              	.LVL35:
 409              		.loc 2 190 0
 410 0000 90830038 		stw 4,56(3)
 411 0004 4E800020 		blr
 412              		.cfi_endproc
 413              	.LFE1403:
 414              		.size	_ZN10GuiElement8SetAlphaEi, .-_ZN10GuiElement8SetAlphaEi
 415              		.section	.text._ZN10GuiElement8GetAlphaEv,"axG",@progbits,_ZN10GuiElement8GetAlphaEv,comdat
 416              		.align 2
 417              		.weak	_ZN10GuiElement8GetAlphaEv
 418              		.type	_ZN10GuiElement8GetAlphaEv, @function
 419              	_ZN10GuiElement8GetAlphaEv:
 420              	.LFB1404:
 421              		.loc 2 194 0
 422              		.cfi_startproc
 423              	.LVL36:
 424 0000 7C0802A6 		mflr 0
 425 0004 9421FFD8 		stwu 1,-40(1)
 426              	.LCFI2:
 427              		.cfi_def_cfa_offset 40
 428              		.cfi_register 65, 0
 429 0008 93E10024 		stw 31,36(1)
 430 000c 9001002C 		stw 0,44(1)
 431              	.LBB4474:
 432              		.loc 2 198 0
 433 0010 83E3006C 		lwz 31,108(3)
 434              		.cfi_offset 65, 4
 435              		.cfi_offset 31, -4
 436 0014 2F9F0000 		cmpwi 7,31,0
 437 0018 419C0094 		blt- 7,.L38
 438              	.L36:
 439              	.LVL37:
 440              		.loc 2 203 0
 441 001c 80630060 		lwz 3,96(3)
 442              	.LVL38:
 443 0020 2F830000 		cmpwi 7,3,0
 444 0024 419E0070 		beq- 7,.L37
 445              		.loc 2 204 0
 446 0028 81230000 		lwz 9,0(3)
 447 002c 6FFF8000 		xoris 31,31,0x8000
 448              	.LVL39:
 449 0030 80090064 		lwz 0,100(9)
 450 0034 7C0903A6 		mtctr 0
 451 0038 4E800421 		bctrl
 452 003c 3C004330 		lis 0,0x4330
 453 0040 6C638000 		xoris 3,3,0x8000
 454 0044 90010010 		stw 0,16(1)
 455 0048 90610014 		stw 3,20(1)
 456 004c 3D200000 		lis 9,.LC1@ha
 457 0050 C0090000 		lfs 0,.LC1@l(9)
 458 0054 3D200000 		lis 9,.LC2@ha
 459 0058 C9A10010 		lfd 13,16(1)
 460 005c C1890004 		lfs 12,.LC2@l(9)
 461 0060 39210018 		addi 9,1,24
 462 0064 FDAD0028 		fsub 13,13,0
 463 0068 93E1000C 		stw 31,12(1)
 464 006c 90010008 		stw 0,8(1)
 465 0070 FDA06818 		frsp 13,13
 466 0074 EDAD6024 		fdivs 13,13,12
 467 0078 C9810008 		lfd 12,8(1)
 468 007c FC0C0028 		fsub 0,12,0
 469 0080 FC000018 		frsp 0,0
 470 0084 EC000372 		fmuls 0,0,13
 471 0088 FC00001E 		fctiwz 0,0
 472 008c 7C004FAE 		stfiwx 0,0,9
 473 0090 83E10018 		lwz 31,24(1)
 474              	.LVL40:
 475              	.L37:
 476              	.LBE4474:
 477              		.loc 2 207 0
 478 0094 8001002C 		lwz 0,44(1)
 479 0098 7FE3FB78 		mr 3,31
 480 009c 83E10024 		lwz 31,36(1)
 481              	.LVL41:
 482 00a0 7C0803A6 		mtlr 0
 483 00a4 38210028 		addi 1,1,40
 484              		.cfi_remember_state
 485              	.LCFI3:
 486              		.cfi_def_cfa_offset 0
 487              		.cfi_restore 31
 488 00a8 4E800020 		blr
 489              	.LVL42:
 490              	.L38:
 491              	.LCFI4:
 492              		.cfi_restore_state
 493              	.LBB4475:
 494              		.loc 2 201 0
 495 00ac 83E30038 		lwz 31,56(3)
 496              	.LVL43:
 497 00b0 4BFFFF6C 		b .L36
 498              	.LBE4475:
 499              		.cfi_endproc
 500              	.LFE1404:
 501              		.size	_ZN10GuiElement8GetAlphaEv, .-_ZN10GuiElement8GetAlphaEv
 502              		.section	.text._ZN10GuiElement8SetScaleEf,"axG",@progbits,_ZN10GuiElement8SetScaleEf,comdat
 503              		.align 2
 504              		.weak	_ZN10GuiElement8SetScaleEf
 505              		.type	_ZN10GuiElement8SetScaleEf, @function
 506              	_ZN10GuiElement8SetScaleEf:
 507              	.LFB1405:
 508              		.loc 2 210 0
 509              		.cfi_startproc
 510              	.LVL44:
 511              		.loc 2 212 0
 512 0000 D023003C 		stfs 1,60(3)
 513              		.loc 2 214 0
 514              		.loc 2 213 0
 515 0004 D0230040 		stfs 1,64(3)
 516              		.loc 2 214 0
 517 0008 4E800020 		blr
 518              		.cfi_endproc
 519              	.LFE1405:
 520              		.size	_ZN10GuiElement8SetScaleEf, .-_ZN10GuiElement8SetScaleEf
 521              		.section	.text._ZN10GuiElement9SetScaleXEf,"axG",@progbits,_ZN10GuiElement9SetScaleXEf,comdat
 522              		.align 2
 523              		.weak	_ZN10GuiElement9SetScaleXEf
 524              		.type	_ZN10GuiElement9SetScaleXEf, @function
 525              	_ZN10GuiElement9SetScaleXEf:
 526              	.LFB1406:
 527              		.loc 2 217 0
 528              		.cfi_startproc
 529              	.LVL45:
 530              		.loc 2 217 0
 531 0000 D023003C 		stfs 1,60(3)
 532 0004 4E800020 		blr
 533              		.cfi_endproc
 534              	.LFE1406:
 535              		.size	_ZN10GuiElement9SetScaleXEf, .-_ZN10GuiElement9SetScaleXEf
 536              		.section	.text._ZN10GuiElement9SetScaleYEf,"axG",@progbits,_ZN10GuiElement9SetScaleYEf,comdat
 537              		.align 2
 538              		.weak	_ZN10GuiElement9SetScaleYEf
 539              		.type	_ZN10GuiElement9SetScaleYEf, @function
 540              	_ZN10GuiElement9SetScaleYEf:
 541              	.LFB1407:
 542              		.loc 2 220 0
 543              		.cfi_startproc
 544              	.LVL46:
 545              		.loc 2 220 0
 546 0000 D0230040 		stfs 1,64(3)
 547 0004 4E800020 		blr
 548              		.cfi_endproc
 549              	.LFE1407:
 550              		.size	_ZN10GuiElement9SetScaleYEf, .-_ZN10GuiElement9SetScaleYEf
 551              		.section	.text._ZN10GuiElement8GetScaleEv,"axG",@progbits,_ZN10GuiElement8GetScaleEv,comdat
 552              		.align 2
 553              		.weak	_ZN10GuiElement8GetScaleEv
 554              		.type	_ZN10GuiElement8GetScaleEv, @function
 555              	_ZN10GuiElement8GetScaleEv:
 556              	.LFB1408:
 557              		.loc 2 223 0
 558              		.cfi_startproc
 559              	.LVL47:
 560 0000 7C0802A6 		mflr 0
 561 0004 9421FFF0 		stwu 1,-16(1)
 562              	.LCFI5:
 563              		.cfi_def_cfa_offset 16
 564              		.cfi_register 65, 0
 565              	.LBB4476:
 566              		.loc 2 225 0
 567 0008 3D200000 		lis 9,.LC3@ha
 568              	.LBE4476:
 569              		.loc 2 223 0
 570 000c DBE10008 		stfd 31,8(1)
 571 0010 90010014 		stw 0,20(1)
 572              	.LBB4477:
 573              		.loc 2 225 0
 574 0014 C0030040 		lfs 0,64(3)
 575 0018 C3E3003C 		lfs 31,60(3)
 576              		.cfi_offset 65, 4
 577              		.cfi_offset 63, -8
 578              		.loc 2 227 0
 579 001c 81630060 		lwz 11,96(3)
 580              		.loc 2 225 0
 581 0020 EFFF002A 		fadds 31,31,0
 582 0024 C0090008 		lfs 0,.LC3@l(9)
 583              		.loc 2 227 0
 584 0028 2F8B0000 		cmpwi 7,11,0
 585              		.loc 2 225 0
 586 002c EFFF0032 		fmuls 31,31,0
 587 0030 C0030070 		lfs 0,112(3)
 588 0034 EFFF0032 		fmuls 31,31,0
 589              	.LVL48:
 590              		.loc 2 227 0
 591 0038 419E001C 		beq- 7,.L43
 592              		.loc 2 228 0
 593 003c 812B0000 		lwz 9,0(11)
 594 0040 7D635B78 		mr 3,11
 595              	.LVL49:
 596 0044 80090074 		lwz 0,116(9)
 597 0048 7C0903A6 		mtctr 0
 598 004c 4E800421 		bctrl
 599 0050 EFFF0072 		fmuls 31,31,1
 600              	.LVL50:
 601              	.L43:
 602              	.LBE4477:
 603              		.loc 2 231 0
 604 0054 80010014 		lwz 0,20(1)
 605 0058 FC20F890 		fmr 1,31
 606 005c CBE10008 		lfd 31,8(1)
 607              	.LVL51:
 608 0060 7C0803A6 		mtlr 0
 609 0064 38210010 		addi 1,1,16
 610              	.LCFI6:
 611              		.cfi_def_cfa_offset 0
 612              		.cfi_restore 63
 613 0068 4E800020 		blr
 614              		.cfi_endproc
 615              	.LFE1408:
 616              		.size	_ZN10GuiElement8GetScaleEv, .-_ZN10GuiElement8GetScaleEv
 617              		.section	.text._ZN10GuiElement9GetScaleXEv,"axG",@progbits,_ZN10GuiElement9GetScaleXEv,comdat
 618              		.align 2
 619              		.weak	_ZN10GuiElement9GetScaleXEv
 620              		.type	_ZN10GuiElement9GetScaleXEv, @function
 621              	_ZN10GuiElement9GetScaleXEv:
 622              	.LFB1409:
 623              		.loc 2 234 0
 624              		.cfi_startproc
 625              	.LVL52:
 626 0000 7C0802A6 		mflr 0
 627 0004 9421FFF0 		stwu 1,-16(1)
 628              	.LCFI7:
 629              		.cfi_def_cfa_offset 16
 630              		.cfi_register 65, 0
 631 0008 DBE10008 		stfd 31,8(1)
 632 000c 90010014 		stw 0,20(1)
 633              	.LBB4478:
 634              		.loc 2 238 0
 635 0010 81630060 		lwz 11,96(3)
 636              		.loc 2 236 0
 637 0014 C3E3003C 		lfs 31,60(3)
 638              		.cfi_offset 65, 4
 639              		.cfi_offset 63, -8
 640              		.loc 2 238 0
 641 0018 2F8B0000 		cmpwi 7,11,0
 642              		.loc 2 236 0
 643 001c C0030070 		lfs 0,112(3)
 644 0020 EFFF0032 		fmuls 31,31,0
 645              	.LVL53:
 646              		.loc 2 238 0
 647 0024 419E001C 		beq- 7,.L45
 648              		.loc 2 239 0
 649 0028 812B0000 		lwz 9,0(11)
 650 002c 7D635B78 		mr 3,11
 651              	.LVL54:
 652 0030 80090078 		lwz 0,120(9)
 653 0034 7C0903A6 		mtctr 0
 654 0038 4E800421 		bctrl
 655 003c EFFF0072 		fmuls 31,31,1
 656              	.LVL55:
 657              	.L45:
 658              	.LBE4478:
 659              		.loc 2 242 0
 660 0040 80010014 		lwz 0,20(1)
 661 0044 FC20F890 		fmr 1,31
 662 0048 CBE10008 		lfd 31,8(1)
 663              	.LVL56:
 664 004c 7C0803A6 		mtlr 0
 665 0050 38210010 		addi 1,1,16
 666              	.LCFI8:
 667              		.cfi_def_cfa_offset 0
 668              		.cfi_restore 63
 669 0054 4E800020 		blr
 670              		.cfi_endproc
 671              	.LFE1409:
 672              		.size	_ZN10GuiElement9GetScaleXEv, .-_ZN10GuiElement9GetScaleXEv
 673              		.section	.text._ZN10GuiElement9GetScaleYEv,"axG",@progbits,_ZN10GuiElement9GetScaleYEv,comdat
 674              		.align 2
 675              		.weak	_ZN10GuiElement9GetScaleYEv
 676              		.type	_ZN10GuiElement9GetScaleYEv, @function
 677              	_ZN10GuiElement9GetScaleYEv:
 678              	.LFB1410:
 679              		.loc 2 245 0
 680              		.cfi_startproc
 681              	.LVL57:
 682 0000 7C0802A6 		mflr 0
 683 0004 9421FFF0 		stwu 1,-16(1)
 684              	.LCFI9:
 685              		.cfi_def_cfa_offset 16
 686              		.cfi_register 65, 0
 687 0008 DBE10008 		stfd 31,8(1)
 688 000c 90010014 		stw 0,20(1)
 689              	.LBB4479:
 690              		.loc 2 249 0
 691 0010 81630060 		lwz 11,96(3)
 692              		.loc 2 247 0
 693 0014 C3E30040 		lfs 31,64(3)
 694              		.cfi_offset 65, 4
 695              		.cfi_offset 63, -8
 696              		.loc 2 249 0
 697 0018 2F8B0000 		cmpwi 7,11,0
 698              		.loc 2 247 0
 699 001c C0030070 		lfs 0,112(3)
 700 0020 EFFF0032 		fmuls 31,31,0
 701              	.LVL58:
 702              		.loc 2 249 0
 703 0024 419E001C 		beq- 7,.L47
 704              		.loc 2 250 0
 705 0028 812B0000 		lwz 9,0(11)
 706 002c 7D635B78 		mr 3,11
 707              	.LVL59:
 708 0030 8009007C 		lwz 0,124(9)
 709 0034 7C0903A6 		mtctr 0
 710 0038 4E800421 		bctrl
 711 003c EFFF0072 		fmuls 31,31,1
 712              	.LVL60:
 713              	.L47:
 714              	.LBE4479:
 715              		.loc 2 253 0
 716 0040 80010014 		lwz 0,20(1)
 717 0044 FC20F890 		fmr 1,31
 718 0048 CBE10008 		lfd 31,8(1)
 719              	.LVL61:
 720 004c 7C0803A6 		mtlr 0
 721 0050 38210010 		addi 1,1,16
 722              	.LCFI10:
 723              		.cfi_def_cfa_offset 0
 724              		.cfi_restore 63
 725 0054 4E800020 		blr
 726              		.cfi_endproc
 727              	.LFE1410:
 728              		.size	_ZN10GuiElement9GetScaleYEv, .-_ZN10GuiElement9GetScaleYEv
 729              		.section	.text._ZN10GuiElement6RumbleEv,"axG",@progbits,_ZN10GuiElement6RumbleEv,comdat
 730              		.align 2
 731              		.weak	_ZN10GuiElement6RumbleEv
 732              		.type	_ZN10GuiElement6RumbleEv, @function
 733              	_ZN10GuiElement6RumbleEv:
 734              	.LFB1411:
 735              		.loc 2 256 0
 736              		.cfi_startproc
 737              	.LVL62:
 738              		.loc 2 256 0
 739 0000 8863001C 		lbz 3,28(3)
 740              	.LVL63:
 741 0004 4E800020 		blr
 742              		.cfi_endproc
 743              	.LFE1411:
 744              		.size	_ZN10GuiElement6RumbleEv, .-_ZN10GuiElement6RumbleEv
 745              		.section	.text._ZN10GuiElement9SetRumbleEb,"axG",@progbits,_ZN10GuiElement9SetRumbleEb,comdat
 746              		.align 2
 747              		.weak	_ZN10GuiElement9SetRumbleEb
 748              		.type	_ZN10GuiElement9SetRumbleEb, @function
 749              	_ZN10GuiElement9SetRumbleEb:
 750              	.LFB1412:
 751              		.loc 2 259 0
 752              		.cfi_startproc
 753              	.LVL64:
 754              		.loc 2 259 0
 755 0000 9883001C 		stb 4,28(3)
 756 0004 4E800020 		blr
 757              		.cfi_endproc
 758              	.LFE1412:
 759              		.size	_ZN10GuiElement9SetRumbleEb, .-_ZN10GuiElement9SetRumbleEb
 760              		.section	.text._ZN10GuiElement13SetEffectGrowEv,"axG",@progbits,_ZN10GuiElement13SetEffectGrowEv,c
 761              		.align 2
 762              		.weak	_ZN10GuiElement13SetEffectGrowEv
 763              		.type	_ZN10GuiElement13SetEffectGrowEv, @function
 764              	_ZN10GuiElement13SetEffectGrowEv:
 765              	.LFB1413:
 766              		.loc 2 271 0
 767              		.cfi_startproc
 768              	.LVL65:
 769 0000 7C0802A6 		mflr 0
 770 0004 9421FFF8 		stwu 1,-8(1)
 771              	.LCFI11:
 772              		.cfi_def_cfa_offset 8
 773              		.cfi_register 65, 0
 774 0008 81230000 		lwz 9,0(3)
 775 000c 38800100 		li 4,256
 776 0010 38A00004 		li 5,4
 777 0014 38C0006E 		li 6,110
 778 0018 9001000C 		stw 0,12(1)
 779              		.loc 2 271 0
 780 001c 8009008C 		lwz 0,140(9)
 781              		.cfi_offset 65, 4
 782 0020 7C0903A6 		mtctr 0
 783 0024 4E800421 		bctrl
 784              	.LVL66:
 785 0028 8001000C 		lwz 0,12(1)
 786 002c 38210008 		addi 1,1,8
 787              	.LCFI12:
 788              		.cfi_def_cfa_offset 0
 789 0030 7C0803A6 		mtlr 0
 790 0034 4E800020 		blr
 791              		.cfi_endproc
 792              	.LFE1413:
 793              		.size	_ZN10GuiElement13SetEffectGrowEv, .-_ZN10GuiElement13SetEffectGrowEv
 794              		.section	.text._ZNK10GuiElement9GetEffectEv,"axG",@progbits,_ZNK10GuiElement9GetEffectEv,comdat
 795              		.align 2
 796              		.weak	_ZNK10GuiElement9GetEffectEv
 797              		.type	_ZNK10GuiElement9GetEffectEv, @function
 798              	_ZNK10GuiElement9GetEffectEv:
 799              	.LFB1414:
 800              		.loc 2 276 0
 801              		.cfi_startproc
 802              	.LVL67:
 803              		.loc 2 276 0
 804 0000 80630078 		lwz 3,120(3)
 805              	.LVL68:
 806 0004 4E800020 		blr
 807              		.cfi_endproc
 808              	.LFE1414:
 809              		.size	_ZNK10GuiElement9GetEffectEv, .-_ZNK10GuiElement9GetEffectEv
 810              		.section	.text._ZNK10GuiElement10IsAnimatedEv,"axG",@progbits,_ZNK10GuiElement10IsAnimatedEv,comda
 811              		.align 2
 812              		.weak	_ZNK10GuiElement10IsAnimatedEv
 813              		.type	_ZNK10GuiElement10IsAnimatedEv, @function
 814              	_ZNK10GuiElement10IsAnimatedEv:
 815              	.LFB1415:
 816              		.loc 2 278 0
 817              		.cfi_startproc
 818              	.LVL69:
 819 0000 7C0802A6 		mflr 0
 820 0004 9421FFF8 		stwu 1,-8(1)
 821              	.LCFI13:
 822              		.cfi_def_cfa_offset 8
 823              		.cfi_register 65, 0
 824 0008 9001000C 		stw 0,12(1)
 825              		.loc 2 278 0
 826 000c 81230000 		lwz 9,0(3)
 827 0010 80090098 		lwz 0,152(9)
 828              		.cfi_offset 65, 4
 829 0014 7C0903A6 		mtctr 0
 830 0018 4E800421 		bctrl
 831              	.LVL70:
 832 001c 7C60FE70 		srawi 0,3,31
 833 0020 7C630050 		subf 3,3,0
 834 0024 8001000C 		lwz 0,12(1)
 835 0028 54630FFE 		srwi 3,3,31
 836 002c 7C0803A6 		mtlr 0
 837 0030 38210008 		addi 1,1,8
 838              	.LCFI14:
 839              		.cfi_def_cfa_offset 0
 840 0034 4E800020 		blr
 841              		.cfi_endproc
 842              	.LFE1415:
 843              		.size	_ZNK10GuiElement10IsAnimatedEv, .-_ZNK10GuiElement10IsAnimatedEv
 844              		.section	.text._ZN10GuiElement8IsInsideEii,"axG",@progbits,_ZN10GuiElement8IsInsideEii,comdat
 845              		.align 2
 846              		.weak	_ZN10GuiElement8IsInsideEii
 847              		.type	_ZN10GuiElement8IsInsideEii, @function
 848              	_ZN10GuiElement8IsInsideEii:
 849              	.LFB1417:
 850              		.loc 2 285 0
 851              		.cfi_startproc
 852              	.LVL71:
 853 0000 7C0802A6 		mflr 0
 854 0004 9421FFE8 		stwu 1,-24(1)
 855              	.LCFI15:
 856              		.cfi_def_cfa_offset 24
 857              		.cfi_register 65, 0
 858 0008 93810008 		stw 28,8(1)
 859 000c 7CBC2B78 		mr 28,5
 860              		.cfi_offset 28, -16
 861 0010 9001001C 		stw 0,28(1)
 862 0014 93A1000C 		stw 29,12(1)
 863              		.loc 2 290 0
 864 0018 3BA00000 		li 29,0
 865              		.cfi_offset 29, -12
 866              		.cfi_offset 65, 4
 867              		.loc 2 287 0
 868 001c 81230000 		lwz 9,0(3)
 869              		.loc 2 285 0
 870 0020 93C10010 		stw 30,16(1)
 871 0024 7C9E2378 		mr 30,4
 872              		.cfi_offset 30, -8
 873              		.loc 2 287 0
 874 0028 80090010 		lwz 0,16(9)
 875              		.loc 2 285 0
 876 002c 93E10014 		stw 31,20(1)
 877              		.loc 2 285 0
 878 0030 7C7F1B78 		mr 31,3
 879              		.cfi_offset 31, -4
 880              		.loc 2 287 0
 881 0034 7C0903A6 		mtctr 0
 882 0038 4E800421 		bctrl
 883              	.LVL72:
 884              		.loc 2 290 0
 885 003c 7F83F000 		cmpw 7,3,30
 886 0040 419C0028 		blt- 7,.L58
 887              	.L54:
 888              		.loc 2 291 0 discriminator 6
 889 0044 8001001C 		lwz 0,28(1)
 890 0048 7FA3EB78 		mr 3,29
 891 004c 83810008 		lwz 28,8(1)
 892              	.LVL73:
 893 0050 7C0803A6 		mtlr 0
 894 0054 83A1000C 		lwz 29,12(1)
 895 0058 83C10010 		lwz 30,16(1)
 896              	.LVL74:
 897 005c 83E10014 		lwz 31,20(1)
 898              	.LVL75:
 899 0060 38210018 		addi 1,1,24
 900              		.cfi_remember_state
 901              	.LCFI16:
 902              		.cfi_def_cfa_offset 0
 903              		.cfi_restore 31
 904              		.cfi_restore 30
 905              		.cfi_restore 29
 906              		.cfi_restore 28
 907 0064 4E800020 		blr
 908              	.LVL76:
 909              	.L58:
 910              	.LCFI17:
 911              		.cfi_restore_state
 912              		.loc 2 288 0 discriminator 1
 913 0068 813F0000 		lwz 9,0(31)
 914 006c 7FE3FB78 		mr 3,31
 915 0070 80090010 		lwz 0,16(9)
 916 0074 7C0903A6 		mtctr 0
 917 0078 4E800421 		bctrl
 918              		.loc 2 290 0 discriminator 1
 919 007c 801F0024 		lwz 0,36(31)
 920 0080 7C030214 		add 0,3,0
 921 0084 7F9E0000 		cmpw 7,30,0
 922 0088 409CFFBC 		bge+ 7,.L54
 923              		.loc 2 289 0 discriminator 3
 924 008c 813F0000 		lwz 9,0(31)
 925 0090 7FE3FB78 		mr 3,31
 926 0094 80090014 		lwz 0,20(9)
 927 0098 7C0903A6 		mtctr 0
 928 009c 4E800421 		bctrl
 929              		.loc 2 290 0 discriminator 3
 930 00a0 7F83E000 		cmpw 7,3,28
 931 00a4 409CFFA0 		bge+ 7,.L54
 932              		.loc 2 290 0 is_stmt 0 discriminator 4
 933 00a8 813F0000 		lwz 9,0(31)
 934 00ac 7FE3FB78 		mr 3,31
 935 00b0 80090014 		lwz 0,20(9)
 936 00b4 7C0903A6 		mtctr 0
 937 00b8 4E800421 		bctrl
 938 00bc 801F0028 		lwz 0,40(31)
 939 00c0 7C030214 		add 0,3,0
 940              		.loc 2 285 0 is_stmt 1 discriminator 4
 941 00c4 7F9C0000 		cmpw 7,28,0
 942 00c8 7FA00026 		mfcr 29
 943 00cc 57BDEFFE 		rlwinm 29,29,29,1
 944 00d0 4BFFFF74 		b .L54
 945              		.cfi_endproc
 946              	.LFE1417:
 947              		.size	_ZN10GuiElement8IsInsideEii, .-_ZN10GuiElement8IsInsideEii
 948              		.section	.text._ZN10GuiElement11SetPositionEii,"axG",@progbits,_ZN10GuiElement11SetPositionEii,com
 949              		.align 2
 950              		.weak	_ZN10GuiElement11SetPositionEii
 951              		.type	_ZN10GuiElement11SetPositionEii, @function
 952              	_ZN10GuiElement11SetPositionEii:
 953              	.LFB1418:
 954              		.loc 2 295 0
 955              		.cfi_startproc
 956              	.LVL77:
 957              		.loc 2 297 0
 958 0000 9083002C 		stw 4,44(3)
 959              		.loc 2 299 0
 960              		.loc 2 298 0
 961 0004 90A30030 		stw 5,48(3)
 962              		.loc 2 299 0
 963 0008 4E800020 		blr
 964              		.cfi_endproc
 965              	.LFE1418:
 966              		.size	_ZN10GuiElement11SetPositionEii, .-_ZN10GuiElement11SetPositionEii
 967              		.section	.text._ZN10GuiElement11SetPositionEiii,"axG",@progbits,_ZN10GuiElement11SetPositionEiii,c
 968              		.align 2
 969              		.weak	_ZN10GuiElement11SetPositionEiii
 970              		.type	_ZN10GuiElement11SetPositionEiii, @function
 971              	_ZN10GuiElement11SetPositionEiii:
 972              	.LFB1419:
 973              		.loc 2 304 0
 974              		.cfi_startproc
 975              	.LVL78:
 976              		.loc 2 306 0
 977 0000 9083002C 		stw 4,44(3)
 978              		.loc 2 309 0
 979              		.loc 2 307 0
 980 0004 90A30030 		stw 5,48(3)
 981              		.loc 2 308 0
 982 0008 90C30034 		stw 6,52(3)
 983              		.loc 2 309 0
 984 000c 4E800020 		blr
 985              		.cfi_endproc
 986              	.LFE1419:
 987              		.size	_ZN10GuiElement11SetPositionEiii, .-_ZN10GuiElement11SetPositionEiii
 988              		.section	.text._ZN10GuiElement12SetAlignmentEi,"axG",@progbits,_ZN10GuiElement12SetAlignmentEi,com
 989              		.align 2
 990              		.weak	_ZN10GuiElement12SetAlignmentEi
 991              		.type	_ZN10GuiElement12SetAlignmentEi, @function
 992              	_ZN10GuiElement12SetAlignmentEi:
 993              	.LFB1421:
 994              		.loc 2 316 0
 995              		.cfi_startproc
 996              	.LVL79:
 997              		.loc 2 316 0
 998 0000 90830044 		stw 4,68(3)
 999 0004 4E800020 		blr
 1000              		.cfi_endproc
 1001              	.LFE1421:
 1002              		.size	_ZN10GuiElement12SetAlignmentEi, .-_ZN10GuiElement12SetAlignmentEi
 1003              		.section	.text._ZNK10GuiElement12GetAlignmentEv,"axG",@progbits,_ZNK10GuiElement12GetAlignmentEv,c
 1004              		.align 2
 1005              		.weak	_ZNK10GuiElement12GetAlignmentEv
 1006              		.type	_ZNK10GuiElement12GetAlignmentEv, @function
 1007              	_ZNK10GuiElement12GetAlignmentEv:
 1008              	.LFB1422:
 1009              		.loc 2 318 0
 1010              		.cfi_startproc
 1011              	.LVL80:
 1012              		.loc 2 318 0
 1013 0000 80630044 		lwz 3,68(3)
 1014              	.LVL81:
 1015 0004 4E800020 		blr
 1016              		.cfi_endproc
 1017              	.LFE1422:
 1018              		.size	_ZNK10GuiElement12GetAlignmentEv, .-_ZNK10GuiElement12GetAlignmentEv
 1019              		.section	.text._ZN8GuiFrame4showEv,"axG",@progbits,_ZN8GuiFrame4showEv,comdat
 1020              		.align 2
 1021              		.weak	_ZN8GuiFrame4showEv
 1022              		.type	_ZN8GuiFrame4showEv, @function
 1023              	_ZN8GuiFrame4showEv:
 1024              	.LFB1431:
 1025              		.file 3 "d:/Projects/SaveGameManager/savegame-manager-gx/trunk/source/SoundOperations/../Controls/
 1026              		.loc 3 79 0
 1027              		.cfi_startproc
 1028              	.LVL82:
 1029              		.loc 3 79 0
 1030 0000 4E800020 		blr
 1031              		.cfi_endproc
 1032              	.LFE1431:
 1033              		.size	_ZN8GuiFrame4showEv, .-_ZN8GuiFrame4showEv
 1034              		.section	.text._ZN8GuiFrame4hideEv,"axG",@progbits,_ZN8GuiFrame4hideEv,comdat
 1035              		.align 2
 1036              		.weak	_ZN8GuiFrame4hideEv
 1037              		.type	_ZN8GuiFrame4hideEv, @function
 1038              	_ZN8GuiFrame4hideEv:
 1039              	.LFB1432:
 1040              		.loc 3 81 0
 1041              		.cfi_startproc
 1042              	.LVL83:
 1043              		.loc 3 81 0
 1044 0000 4E800020 		blr
 1045              		.cfi_endproc
 1046              	.LFE1432:
 1047              		.size	_ZN8GuiFrame4hideEv, .-_ZN8GuiFrame4hideEv
 1048              		.section	.text._ZN8GuiFrame4execEv,"axG",@progbits,_ZN8GuiFrame4execEv,comdat
 1049              		.align 2
 1050              		.weak	_ZN8GuiFrame4execEv
 1051              		.type	_ZN8GuiFrame4execEv, @function
 1052              	_ZN8GuiFrame4execEv:
 1053              	.LFB1433:
 1054              		.loc 3 83 0
 1055              		.cfi_startproc
 1056              	.LVL84:
 1057              		.loc 3 83 0
 1058 0000 4E800020 		blr
 1059              		.cfi_endproc
 1060              	.LFE1433:
 1061              		.size	_ZN8GuiFrame4execEv, .-_ZN8GuiFrame4execEv
 1062              		.section	.text._ZN8GuiFrame12updateEventsEv,"axG",@progbits,_ZN8GuiFrame12updateEventsEv,comdat
 1063              		.align 2
 1064              		.weak	_ZN8GuiFrame12updateEventsEv
 1065              		.type	_ZN8GuiFrame12updateEventsEv, @function
 1066              	_ZN8GuiFrame12updateEventsEv:
 1067              	.LFB1434:
 1068              		.loc 3 85 0
 1069              		.cfi_startproc
 1070              	.LVL85:
 1071              		.loc 3 85 0
 1072 0000 4E800020 		blr
 1073              		.cfi_endproc
 1074              	.LFE1434:
 1075              		.size	_ZN8GuiFrame12updateEventsEv, .-_ZN8GuiFrame12updateEventsEv
 1076              		.section	".text"
 1077              		.align 2
 1078              		.globl _ZN8PlayList17OnButtonListClickEP9GuiButtoniRK6_POINT
 1079              		.type	_ZN8PlayList17OnButtonListClickEP9GuiButtoniRK6_POINT, @function
 1080              	_ZN8PlayList17OnButtonListClickEP9GuiButtoniRK6_POINT:
 1081              	.LFB1602:
 1082              		.file 4 "d:/Projects/SaveGameManager/savegame-manager-gx/trunk/source/SoundOperations/PlayList.cpp
 1083              		.loc 4 173 0
 1084              		.cfi_startproc
 1085              		.cfi_personality 0,__gxx_personality_v0
 1086              		.cfi_lsda 0,.LLSDA1602
 1087              	.LVL86:
 1088 0000 7C0802A6 		mflr 0
 1089 0004 9421FFE0 		stwu 1,-32(1)
 1090              	.LCFI18:
 1091              		.cfi_def_cfa_offset 32
 1092              		.cfi_register 65, 0
 1093 0008 93C10018 		stw 30,24(1)
 1094 000c 7C7E1B78 		mr 30,3
 1095              		.cfi_offset 30, -8
 1096 0010 90010024 		stw 0,36(1)
 1097 0014 9361000C 		stw 27,12(1)
 1098              	.LBB4480:
 1099              		.loc 4 503 0
 1100 0018 812300F0 		lwz 9,240(3)
 1101              	.LBB4481:
 1102              	.LBB4482:
 1103              		.file 5 "d:\\devkitpro\\devkitppc\\bin\\../lib/gcc/powerpc-eabi/4.6.3/../../../../powerpc-eabi/inc
 1104              		.loc 5 571 0
 1105 001c 800300F4 		lwz 0,244(3)
 1106              		.cfi_offset 27, -20
 1107              		.cfi_offset 65, 4
 1108              	.LBE4482:
 1109              	.LBE4481:
 1110              	.LBE4480:
 1111              		.loc 4 173 0
 1112 0020 93810010 		stw 28,16(1)
 1113              	.LBB4505:
 1114              	.LBB4484:
 1115              	.LBB4483:
 1116              		.loc 5 571 0
 1117 0024 7C090050 		subf 0,9,0
 1118              	.LBE4483:
 1119              	.LBE4484:
 1120              	.LBE4505:
 1121              		.loc 4 173 0
 1122 0028 93A10014 		stw 29,20(1)
 1123              	.LBB4506:
 1124              		.loc 4 174 0
 1125 002c 7C001671 		srawi. 0,0,2
 1126              	.LBE4506:
 1127              		.loc 4 173 0
 1128 0030 93E1001C 		stw 31,28(1)
 1129              	.LBB4507:
 1130              		.loc 4 174 0
 1131 0034 41820034 		beq- 0,.L67
 1132              		.cfi_offset 31, -4
 1133              		.cfi_offset 29, -12
 1134              		.cfi_offset 28, -16
 1135              	.LVL87:
 1136              		.loc 4 176 0
 1137 0038 81690000 		lwz 11,0(9)
 1138 003c 3B800000 		li 28,0
 1139              		.loc 4 174 0
 1140 0040 7C0903A6 		mtctr 0
 1141              		.loc 4 176 0
 1142 0044 7F8B2000 		cmpw 7,11,4
 1143 0048 40BE0018 		bne+ 7,.L70
 1144 004c 48000040 		b .L69
 1145              	.LVL88:
 1146              	.L75:
 1147 0050 5780103A 		slwi 0,28,2
 1148 0054 7C09002E 		lwzx 0,9,0
 1149 0058 7F802000 		cmpw 7,0,4
 1150 005c 419E0030 		beq- 7,.L69
 1151              	.LVL89:
 1152              	.L70:
 1153              		.loc 4 174 0
 1154 0060 3B9C0001 		addi 28,28,1
 1155              	.LVL90:
 1156 0064 4200FFEC 		bdnz .L75
 1157              	.LVL91:
 1158              	.L67:
 1159              	.LBE4507:
 1160              		.loc 4 182 0
 1161 0068 80010024 		lwz 0,36(1)
 1162 006c 8361000C 		lwz 27,12(1)
 1163 0070 7C0803A6 		mtlr 0
 1164 0074 83810010 		lwz 28,16(1)
 1165 0078 83A10014 		lwz 29,20(1)
 1166 007c 83C10018 		lwz 30,24(1)
 1167 0080 83E1001C 		lwz 31,28(1)
 1168 0084 38210020 		addi 1,1,32
 1169              		.cfi_remember_state
 1170              	.LCFI19:
 1171              		.cfi_def_cfa_offset 0
 1172              		.cfi_restore 31
 1173              		.cfi_restore 30
 1174              		.cfi_restore 29
 1175              		.cfi_restore 28
 1176              		.cfi_restore 27
 1177 0088 4E800020 		blr
 1178              	.L69:
 1179              	.LCFI20:
 1180              		.cfi_restore_state
 1181              	.LVL92:
 1182              	.LBB4508:
 1183              	.LBB4485:
 1184              	.LBB4486:
 1185              	.LBB4487:
 1186              	.LBB4488:
 1187              		.loc 1 338 0
 1188 008c 813E00CC 		lwz 9,204(30)
 1189              	.LBE4488:
 1190              	.LBE4487:
 1191              		.loc 1 2270 0
 1192 0090 3B7E00CC 		addi 27,30,204
 1193              	.LVL93:
 1194              	.LBB4491:
 1195              	.LBB4489:
 1196              		.loc 1 338 0
 1197 0094 7F63DB78 		mr 3,27
 1198              	.LVL94:
 1199              	.LBE4489:
 1200              	.LBE4491:
 1201              	.LBE4486:
 1202              		.loc 4 503 0
 1203 0098 7FDDF378 		mr 29,30
 1204              	.LBB4501:
 1205              	.LBB4492:
 1206              	.LBB4490:
 1207              		.loc 1 338 0
 1208 009c 80090008 		lwz 0,8(9)
 1209 00a0 7C0903A6 		mtctr 0
 1210              	.LEHB0:
 1211 00a4 4E800421 		bctrl
 1212              	.LEHE0:
 1213              	.LVL95:
 1214              	.LBE4490:
 1215              	.LBE4492:
 1216              	.LBE4501:
 1217              		.loc 4 503 0
 1218 00a8 87FD00D0 		lwzu 31,208(29)
 1219              	.LVL96:
 1220              	.LBB4502:
 1221              		.loc 1 2274 0
 1222 00ac 7F9FE800 		cmpw 7,31,29
 1223 00b0 419E002C 		beq- 7,.L71
 1224              	.LVL97:
 1225              	.L80:
 1226              		.loc 1 2279 0
 1227 00b4 807F0008 		lwz 3,8(31)
 1228 00b8 7FC4F378 		mr 4,30
 1229 00bc 7F85E378 		mr 5,28
 1230              	.LBB4493:
 1231              	.LBB4494:
 1232              		.file 6 "d:\\devkitpro\\devkitppc\\bin\\../lib/gcc/powerpc-eabi/4.6.3/../../../../powerpc-eabi/inc
 1233              		.loc 6 234 0
 1234 00c0 83FF0000 		lwz 31,0(31)
 1235              	.LVL98:
 1236              	.LBE4494:
 1237              	.LBE4493:
 1238              		.loc 1 2279 0
 1239 00c4 81230000 		lwz 9,0(3)
 1240 00c8 8009000C 		lwz 0,12(9)
 1241 00cc 7C0903A6 		mtctr 0
 1242              	.LEHB1:
 1243 00d0 4E800421 		bctrl
 1244              	.LEHE1:
 1245              	.LVL99:
 1246              		.loc 1 2274 0
 1247 00d4 7F9DF800 		cmpw 7,29,31
 1248 00d8 409EFFDC 		bne+ 7,.L80
 1249              	.LVL100:
 1250              	.L71:
 1251              	.LBB4495:
 1252              	.LBB4496:
 1253              	.LBB4497:
 1254              		.loc 1 343 0
 1255 00dc 813E00CC 		lwz 9,204(30)
 1256 00e0 7F63DB78 		mr 3,27
 1257 00e4 8009000C 		lwz 0,12(9)
 1258 00e8 7C0903A6 		mtctr 0
 1259              	.LEHB2:
 1260 00ec 4E800421 		bctrl
 1261              	.LEHE2:
 1262              	.LBE4497:
 1263              	.LBE4496:
 1264              	.LBE4495:
 1265              	.LBE4502:
 1266              	.LBE4485:
 1267              	.LBE4508:
 1268              		.loc 4 182 0
 1269 00f0 80010024 		lwz 0,36(1)
 1270 00f4 8361000C 		lwz 27,12(1)
 1271 00f8 7C0803A6 		mtlr 0
 1272 00fc 83810010 		lwz 28,16(1)
 1273              	.LVL101:
 1274 0100 83A10014 		lwz 29,20(1)
 1275 0104 83C10018 		lwz 30,24(1)
 1276              	.LVL102:
 1277 0108 83E1001C 		lwz 31,28(1)
 1278              	.LVL103:
 1279 010c 38210020 		addi 1,1,32
 1280              		.cfi_remember_state
 1281              		.cfi_restore 27
 1282              		.cfi_restore 28
 1283              		.cfi_restore 29
 1284              		.cfi_restore 30
 1285              		.cfi_restore 31
 1286              	.LCFI21:
 1287              		.cfi_def_cfa_offset 0
 1288 0110 4E800020 		blr
 1289              	.LVL104:
 1290              	.L78:
 1291              	.LCFI22:
 1292              		.cfi_restore_state
 1293              	.LBB4509:
 1294              	.LBB4504:
 1295              	.LBB4503:
 1296              	.LBB4498:
 1297              	.LBB4499:
 1298              	.LBB4500:
 1299              		.loc 1 343 0
 1300 0114 813E00CC 		lwz 9,204(30)
 1301 0118 7C7F1B78 		mr 31,3
 1302              	.LVL105:
 1303 011c 7F63DB78 		mr 3,27
 1304 0120 8009000C 		lwz 0,12(9)
 1305 0124 7C0903A6 		mtctr 0
 1306 0128 4E800421 		bctrl
 1307 012c 7FE3FB78 		mr 3,31
 1308              	.LEHB3:
 1309 0130 48000001 		bl _Unwind_Resume
 1310              	.LEHE3:
 1311              	.LBE4500:
 1312              	.LBE4499:
 1313              	.LBE4498:
 1314              	.LBE4503:
 1315              	.LBE4504:
 1316              	.LBE4509:
 1317              		.cfi_endproc
 1318              	.LFE1602:
 1319              		.globl __gxx_personality_v0
 1320              		.section	.gcc_except_table,"a",@progbits
 1321              	.LLSDA1602:
 1322 0000 FF       		.byte	0xff
 1323 0001 FF       		.byte	0xff
 1324 0002 01       		.byte	0x1
 1325 0003 15       		.uleb128 .LLSDACSE1602-.LLSDACSB1602
 1326              	.LLSDACSB1602:
 1327 0004 A401     		.uleb128 .LEHB0-.LFB1602
 1328 0006 04       		.uleb128 .LEHE0-.LEHB0
 1329 0007 00       		.uleb128 0
 1330 0008 00       		.uleb128 0
 1331 0009 D001     		.uleb128 .LEHB1-.LFB1602
 1332 000b 04       		.uleb128 .LEHE1-.LEHB1
 1333 000c 9402     		.uleb128 .L78-.LFB1602
 1334 000e 00       		.uleb128 0
 1335 000f EC01     		.uleb128 .LEHB2-.LFB1602
 1336 0011 04       		.uleb128 .LEHE2-.LEHB2
 1337 0012 00       		.uleb128 0
 1338 0013 00       		.uleb128 0
 1339 0014 B002     		.uleb128 .LEHB3-.LFB1602
 1340 0016 04       		.uleb128 .LEHE3-.LEHB3
 1341 0017 00       		.uleb128 0
 1342 0018 00       		.uleb128 0
 1343              	.LLSDACSE1602:
 1344              		.section	".text"
 1345              		.size	_ZN8PlayList17OnButtonListClickEP9GuiButtoniRK6_POINT, .-_ZN8PlayList17OnButtonListClickEP9G
 1346              		.section	.text._ZN7sigslot12_signal_baseINS_15single_threadedEED2Ev,"axG",@progbits,_ZN7sigslot12_
 1347              		.align 2
 1348              		.weak	_ZN7sigslot12_signal_baseINS_15single_threadedEED2Ev
 1349              		.type	_ZN7sigslot12_signal_baseINS_15single_threadedEED2Ev, @function
 1350              	_ZN7sigslot12_signal_baseINS_15single_threadedEED2Ev:
 1351              	.LFB1738:
 1352              		.loc 1 466 0
 1353              		.cfi_startproc
 1354              	.LVL106:
 1355              	.LBB4510:
 1356              	.LBB4511:
 1357              	.LBB4512:
 1358              	.LBB4513:
 1359              		.loc 1 105 0
 1360 0000 3D200000 		lis 9,_ZTVN7sigslot15single_threadedE+8@ha
 1361              	.LBE4513:
 1362              	.LBE4512:
 1363              	.LBE4511:
 1364              	.LBE4510:
 1365              		.loc 1 466 0
 1366              	.LBB4517:
 1367              	.LBB4516:
 1368              	.LBB4515:
 1369              	.LBB4514:
 1370              		.loc 1 105 0
 1371 0004 38090008 		la 0,_ZTVN7sigslot15single_threadedE+8@l(9)
 1372 0008 90030000 		stw 0,0(3)
 1373              	.LBE4514:
 1374              	.LBE4515:
 1375              	.LBE4516:
 1376              	.LBE4517:
 1377              		.loc 1 466 0
 1378 000c 4E800020 		blr
 1379              		.cfi_endproc
 1380              	.LFE1738:
 1381              		.size	_ZN7sigslot12_signal_baseINS_15single_threadedEED2Ev, .-_ZN7sigslot12_signal_baseINS_15singl
 1382              		.section	.text._ZN7sigslot17_connection_base2IiiNS_15single_threadedEED2Ev,"axG",@progbits,_ZN7sig
 1383              		.align 2
 1384              		.weak	_ZN7sigslot17_connection_base2IiiNS_15single_threadedEED2Ev
 1385              		.type	_ZN7sigslot17_connection_base2IiiNS_15single_threadedEED2Ev, @function
 1386              	_ZN7sigslot17_connection_base2IiiNS_15single_threadedEED2Ev:
 1387              	.LFB2028:
 1388              		.loc 1 376 0
 1389              		.cfi_startproc
 1390              	.LVL107:
 1391              	.LBB4518:
 1392              		.loc 1 376 0
 1393 0000 3D200000 		lis 9,_ZTVN7sigslot17_connection_base2IiiNS_15single_threadedEEE+8@ha
 1394              	.LBE4518:
 1395              	.LBB4519:
 1396 0004 38090008 		la 0,_ZTVN7sigslot17_connection_base2IiiNS_15single_threadedEEE+8@l(9)
 1397 0008 90030000 		stw 0,0(3)
 1398              	.LBE4519:
 1399 000c 4E800020 		blr
 1400              		.cfi_endproc
 1401              	.LFE2028:
 1402              		.size	_ZN7sigslot17_connection_base2IiiNS_15single_threadedEED2Ev, .-_ZN7sigslot17_connection_base
 1403              		.section	.text._ZN7sigslot17_connection_base3IP9GuiButtoniRK6_POINTNS_15single_threadedEED2Ev,"axG
 1404              		.align 2
 1405              		.weak	_ZN7sigslot17_connection_base3IP9GuiButtoniRK6_POINTNS_15single_threadedEED2Ev
 1406              		.type	_ZN7sigslot17_connection_base3IP9GuiButtoniRK6_POINTNS_15single_threadedEED2Ev, @function
 1407              	_ZN7sigslot17_connection_base3IP9GuiButtoniRK6_POINTNS_15single_threadedEED2Ev:
 1408              	.LFB2035:
 1409              		.loc 1 387 0
 1410              		.cfi_startproc
 1411              	.LVL108:
 1412              	.LBB4520:
 1413              		.loc 1 387 0
 1414 0000 3D200000 		lis 9,_ZTVN7sigslot17_connection_base3IP9GuiButtoniRK6_POINTNS_15single_threadedEEE+8@ha
 1415              	.LBE4520:
 1416              	.LBB4521:
 1417 0004 38090008 		la 0,_ZTVN7sigslot17_connection_base3IP9GuiButtoniRK6_POINTNS_15single_threadedEEE+8@l(9)
 1418 0008 90030000 		stw 0,0(3)
 1419              	.LBE4521:
 1420 000c 4E800020 		blr
 1421              		.cfi_endproc
 1422              	.LFE2035:
 1423              		.size	_ZN7sigslot17_connection_base3IP9GuiButtoniRK6_POINTNS_15single_threadedEED2Ev, .-_ZN7sigslo
 1424              		.section	.text._ZN7sigslot17_connection_base3IP10GuiElementiiNS_15single_threadedEED2Ev,"axG",@pro
 1425              		.align 2
 1426              		.weak	_ZN7sigslot17_connection_base3IP10GuiElementiiNS_15single_threadedEED2Ev
 1427              		.type	_ZN7sigslot17_connection_base3IP10GuiElementiiNS_15single_threadedEED2Ev, @function
 1428              	_ZN7sigslot17_connection_base3IP10GuiElementiiNS_15single_threadedEED2Ev:
 1429              	.LFB2065:
 1430              		.loc 1 387 0
 1431              		.cfi_startproc
 1432              	.LVL109:
 1433              	.LBB4522:
 1434              		.loc 1 387 0
 1435 0000 3D200000 		lis 9,_ZTVN7sigslot17_connection_base3IP10GuiElementiiNS_15single_threadedEEE+8@ha
 1436              	.LBE4522:
 1437              	.LBB4523:
 1438 0004 38090008 		la 0,_ZTVN7sigslot17_connection_base3IP10GuiElementiiNS_15single_threadedEEE+8@l(9)
 1439 0008 90030000 		stw 0,0(3)
 1440              	.LBE4523:
 1441 000c 4E800020 		blr
 1442              		.cfi_endproc
 1443              	.LFE2065:
 1444              		.size	_ZN7sigslot17_connection_base3IP10GuiElementiiNS_15single_threadedEED2Ev, .-_ZN7sigslot17_co
 1445              		.section	.text._ZN7sigslot12_connection3I8PlayListP10GuiElementiiNS_15single_threadedEED2Ev,"axG",
 1446              		.align 2
 1447              		.weak	_ZN7sigslot12_connection3I8PlayListP10GuiElementiiNS_15single_threadedEED2Ev
 1448              		.type	_ZN7sigslot12_connection3I8PlayListP10GuiElementiiNS_15single_threadedEED2Ev, @function
 1449              	_ZN7sigslot12_connection3I8PlayListP10GuiElementiiNS_15single_threadedEED2Ev:
 1450              	.LFB2550:
 1451              		.loc 1 1783 0
 1452              		.cfi_startproc
 1453              	.LVL110:
 1454              	.LBB4524:
 1455              	.LBB4525:
 1456              	.LBB4526:
 1457              	.LBB4527:
 1458              		.loc 1 387 0
 1459 0000 3D200000 		lis 9,_ZTVN7sigslot17_connection_base3IP10GuiElementiiNS_15single_threadedEEE+8@ha
 1460              	.LBE4527:
 1461              	.LBE4526:
 1462              	.LBE4525:
 1463              	.LBE4524:
 1464              		.loc 1 1786 0
 1465              	.LBB4531:
 1466              	.LBB4530:
 1467              	.LBB4529:
 1468              	.LBB4528:
 1469              		.loc 1 387 0
 1470 0004 38090008 		la 0,_ZTVN7sigslot17_connection_base3IP10GuiElementiiNS_15single_threadedEEE+8@l(9)
 1471 0008 90030000 		stw 0,0(3)
 1472              	.LBE4528:
 1473              	.LBE4529:
 1474              	.LBE4530:
 1475              	.LBE4531:
 1476              		.loc 1 1786 0
 1477 000c 4E800020 		blr
 1478              		.cfi_endproc
 1479              	.LFE2550:
 1480              		.size	_ZN7sigslot12_connection3I8PlayListP10GuiElementiiNS_15single_threadedEED2Ev, .-_ZN7sigslot1
 1481              		.section	.text._ZNK7sigslot12_connection3I8PlayListP10GuiElementiiNS_15single_threadedEE7getdestEv
 1482              		.align 2
 1483              		.weak	_ZNK7sigslot12_connection3I8PlayListP10GuiElementiiNS_15single_threadedEE7getdestEv
 1484              		.type	_ZNK7sigslot12_connection3I8PlayListP10GuiElementiiNS_15single_threadedEE7getdestEv, @functi
 1485              	_ZNK7sigslot12_connection3I8PlayListP10GuiElementiiNS_15single_threadedEE7getdestEv:
 1486              	.LFB2553:
 1487              		.loc 1 1804 0
 1488              		.cfi_startproc
 1489              	.LVL111:
 1490              		.loc 1 1806 0
 1491 0000 81230004 		lwz 9,4(3)
 1492 0004 38600000 		li 3,0
 1493              	.LVL112:
 1494 0008 2F890000 		cmpwi 7,9,0
 1495 000c 4D9E0020 		beqlr- 7
 1496              		.loc 1 1806 0 is_stmt 0 discriminator 1
 1497 0010 386900B0 		addi 3,9,176
 1498              		.loc 1 1807 0 is_stmt 1 discriminator 1
 1499 0014 4E800020 		blr
 1500              		.cfi_endproc
 1501              	.LFE2553:
 1502              		.size	_ZNK7sigslot12_connection3I8PlayListP10GuiElementiiNS_15single_threadedEE7getdestEv, .-_ZNK7
 1503              		.section	.text._ZN7sigslot12_connection3I8PlayListP10GuiElementiiNS_15single_threadedEE4emitES3_ii
 1504              		.align 2
 1505              		.weak	_ZN7sigslot12_connection3I8PlayListP10GuiElementiiNS_15single_threadedEE4emitES3_ii
 1506              		.type	_ZN7sigslot12_connection3I8PlayListP10GuiElementiiNS_15single_threadedEE4emitES3_ii, @functi
 1507              	_ZN7sigslot12_connection3I8PlayListP10GuiElementiiNS_15single_threadedEE4emitES3_ii:
 1508              	.LFB2554:
 1509              		.loc 1 1799 0
 1510              		.cfi_startproc
 1511              	.LVL113:
 1512 0000 7C0802A6 		mflr 0
 1513 0004 9421FFF8 		stwu 1,-8(1)
 1514              	.LCFI23:
 1515              		.cfi_def_cfa_offset 8
 1516              		.cfi_register 65, 0
 1517 0008 9001000C 		stw 0,12(1)
 1518              		.loc 1 1801 0
 1519 000c 80030008 		lwz 0,8(3)
 1520              		.cfi_offset 65, 4
 1521 0010 81630004 		lwz 11,4(3)
 1522 0014 70090001 		andi. 9,0,1
 1523 0018 8123000C 		lwz 9,12(3)
 1524 001c 40820020 		bne- 0,.L97
 1525 0020 7C0903A6 		mtctr 0
 1526 0024 7C6B4A14 		add 3,11,9
 1527              	.LVL114:
 1528 0028 4E800421 		bctrl
 1529              	.LVL115:
 1530              		.loc 1 1802 0
 1531 002c 8001000C 		lwz 0,12(1)
 1532 0030 38210008 		addi 1,1,8
 1533              		.cfi_remember_state
 1534              	.LCFI24:
 1535              		.cfi_def_cfa_offset 0
 1536 0034 7C0803A6 		mtlr 0
 1537 0038 4E800020 		blr
 1538              	.LVL116:
 1539              	.L97:
 1540              	.LCFI25:
 1541              		.cfi_restore_state
 1542              		.loc 1 1801 0 discriminator 1
 1543 003c 7D4B482E 		lwzx 10,11,9
 1544 0040 7C6B4A14 		add 3,11,9
 1545              	.LVL117:
 1546 0044 7D2A0214 		add 9,10,0
 1547 0048 8009FFFF 		lwz 0,-1(9)
 1548 004c 7C0903A6 		mtctr 0
 1549 0050 4E800421 		bctrl
 1550              	.LVL118:
 1551              		.loc 1 1802 0 discriminator 1
 1552 0054 8001000C 		lwz 0,12(1)
 1553 0058 38210008 		addi 1,1,8
 1554              	.LCFI26:
 1555              		.cfi_def_cfa_offset 0
 1556 005c 7C0803A6 		mtlr 0
 1557 0060 4E800020 		blr
 1558              		.cfi_endproc
 1559              	.LFE2554:
 1560              		.size	_ZN7sigslot12_connection3I8PlayListP10GuiElementiiNS_15single_threadedEE4emitES3_ii, .-_ZN7s
 1561              		.section	.text._ZN7sigslot12_connection3I8PlayListP9GuiButtoniRK6_POINTNS_15single_threadedEED2Ev,
 1562              		.align 2
 1563              		.weak	_ZN7sigslot12_connection3I8PlayListP9GuiButtoniRK6_POINTNS_15single_threadedEED2Ev
 1564              		.type	_ZN7sigslot12_connection3I8PlayListP9GuiButtoniRK6_POINTNS_15single_threadedEED2Ev, @functio
 1565              	_ZN7sigslot12_connection3I8PlayListP9GuiButtoniRK6_POINTNS_15single_threadedEED2Ev:
 1566              	.LFB2564:
 1567              		.loc 1 1783 0
 1568              		.cfi_startproc
 1569              	.LVL119:
 1570              	.LBB4532:
 1571              	.LBB4533:
 1572              	.LBB4534:
 1573              	.LBB4535:
 1574              		.loc 1 387 0
 1575 0000 3D200000 		lis 9,_ZTVN7sigslot17_connection_base3IP9GuiButtoniRK6_POINTNS_15single_threadedEEE+8@ha
 1576              	.LBE4535:
 1577              	.LBE4534:
 1578              	.LBE4533:
 1579              	.LBE4532:
 1580              		.loc 1 1786 0
 1581              	.LBB4539:
 1582              	.LBB4538:
 1583              	.LBB4537:
 1584              	.LBB4536:
 1585              		.loc 1 387 0
 1586 0004 38090008 		la 0,_ZTVN7sigslot17_connection_base3IP9GuiButtoniRK6_POINTNS_15single_threadedEEE+8@l(9)
 1587 0008 90030000 		stw 0,0(3)
 1588              	.LBE4536:
 1589              	.LBE4537:
 1590              	.LBE4538:
 1591              	.LBE4539:
 1592              		.loc 1 1786 0
 1593 000c 4E800020 		blr
 1594              		.cfi_endproc
 1595              	.LFE2564:
 1596              		.size	_ZN7sigslot12_connection3I8PlayListP9GuiButtoniRK6_POINTNS_15single_threadedEED2Ev, .-_ZN7si
 1597              		.section	.text._ZNK7sigslot12_connection3I8PlayListP9GuiButtoniRK6_POINTNS_15single_threadedEE7get
 1598              		.align 2
 1599              		.weak	_ZNK7sigslot12_connection3I8PlayListP9GuiButtoniRK6_POINTNS_15single_threadedEE7getdestEv
 1600              		.type	_ZNK7sigslot12_connection3I8PlayListP9GuiButtoniRK6_POINTNS_15single_threadedEE7getdestEv, @
 1601              	_ZNK7sigslot12_connection3I8PlayListP9GuiButtoniRK6_POINTNS_15single_threadedEE7getdestEv:
 1602              	.LFB2567:
 1603              		.loc 1 1804 0
 1604              		.cfi_startproc
 1605              	.LVL120:
 1606              		.loc 1 1806 0
 1607 0000 81230004 		lwz 9,4(3)
 1608 0004 38600000 		li 3,0
 1609              	.LVL121:
 1610 0008 2F890000 		cmpwi 7,9,0
 1611 000c 4D9E0020 		beqlr- 7
 1612              		.loc 1 1806 0 is_stmt 0 discriminator 1
 1613 0010 386900B0 		addi 3,9,176
 1614              		.loc 1 1807 0 is_stmt 1 discriminator 1
 1615 0014 4E800020 		blr
 1616              		.cfi_endproc
 1617              	.LFE2567:
 1618              		.size	_ZNK7sigslot12_connection3I8PlayListP9GuiButtoniRK6_POINTNS_15single_threadedEE7getdestEv, .
 1619              		.section	.text._ZN7sigslot12_connection3I8PlayListP9GuiButtoniRK6_POINTNS_15single_threadedEE4emit
 1620              		.align 2
 1621              		.weak	_ZN7sigslot12_connection3I8PlayListP9GuiButtoniRK6_POINTNS_15single_threadedEE4emitES3_iS6_
 1622              		.type	_ZN7sigslot12_connection3I8PlayListP9GuiButtoniRK6_POINTNS_15single_threadedEE4emitES3_iS6_,
 1623              	_ZN7sigslot12_connection3I8PlayListP9GuiButtoniRK6_POINTNS_15single_threadedEE4emitES3_iS6_:
 1624              	.LFB2568:
 1625              		.loc 1 1799 0
 1626              		.cfi_startproc
 1627              	.LVL122:
 1628 0000 7C0802A6 		mflr 0
 1629 0004 9421FFF8 		stwu 1,-8(1)
 1630              	.LCFI27:
 1631              		.cfi_def_cfa_offset 8
 1632              		.cfi_register 65, 0
 1633 0008 9001000C 		stw 0,12(1)
 1634              		.loc 1 1801 0
 1635 000c 80030008 		lwz 0,8(3)
 1636              		.cfi_offset 65, 4
 1637 0010 81630004 		lwz 11,4(3)
 1638 0014 70090001 		andi. 9,0,1
 1639 0018 8123000C 		lwz 9,12(3)
 1640 001c 40820020 		bne- 0,.L106
 1641 0020 7C0903A6 		mtctr 0
 1642 0024 7C6B4A14 		add 3,11,9
 1643              	.LVL123:
 1644 0028 4E800421 		bctrl
 1645              	.LVL124:
 1646              		.loc 1 1802 0
 1647 002c 8001000C 		lwz 0,12(1)
 1648 0030 38210008 		addi 1,1,8
 1649              		.cfi_remember_state
 1650              	.LCFI28:
 1651              		.cfi_def_cfa_offset 0
 1652 0034 7C0803A6 		mtlr 0
 1653 0038 4E800020 		blr
 1654              	.LVL125:
 1655              	.L106:
 1656              	.LCFI29:
 1657              		.cfi_restore_state
 1658              		.loc 1 1801 0 discriminator 1
 1659 003c 7D4B482E 		lwzx 10,11,9
 1660 0040 7C6B4A14 		add 3,11,9
 1661              	.LVL126:
 1662 0044 7D2A0214 		add 9,10,0
 1663 0048 8009FFFF 		lwz 0,-1(9)
 1664 004c 7C0903A6 		mtctr 0
 1665 0050 4E800421 		bctrl
 1666              	.LVL127:
 1667              		.loc 1 1802 0 discriminator 1
 1668 0054 8001000C 		lwz 0,12(1)
 1669 0058 38210008 		addi 1,1,8
 1670              	.LCFI30:
 1671              		.cfi_def_cfa_offset 0
 1672 005c 7C0803A6 		mtlr 0
 1673 0060 4E800020 		blr
 1674              		.cfi_endproc
 1675              	.LFE2568:
 1676              		.size	_ZN7sigslot12_connection3I8PlayListP9GuiButtoniRK6_POINTNS_15single_threadedEE4emitES3_iS6_,
 1677              		.section	.text._ZN7sigslot12_connection2I8PlayListiiNS_15single_threadedEED2Ev,"axG",@progbits,_ZN
 1678              		.align 2
 1679              		.weak	_ZN7sigslot12_connection2I8PlayListiiNS_15single_threadedEED2Ev
 1680              		.type	_ZN7sigslot12_connection2I8PlayListiiNS_15single_threadedEED2Ev, @function
 1681              	_ZN7sigslot12_connection2I8PlayListiiNS_15single_threadedEED2Ev:
 1682              	.LFB2578:
 1683              		.loc 1 1735 0
 1684              		.cfi_startproc
 1685              	.LVL128:
 1686              	.LBB4540:
 1687              	.LBB4541:
 1688              	.LBB4542:
 1689              	.LBB4543:
 1690              		.loc 1 376 0
 1691 0000 3D200000 		lis 9,_ZTVN7sigslot17_connection_base2IiiNS_15single_threadedEEE+8@ha
 1692              	.LBE4543:
 1693              	.LBE4542:
 1694              	.LBE4541:
 1695              	.LBE4540:
 1696              		.loc 1 1738 0
 1697              	.LBB4547:
 1698              	.LBB4546:
 1699              	.LBB4545:
 1700              	.LBB4544:
 1701              		.loc 1 376 0
 1702 0004 38090008 		la 0,_ZTVN7sigslot17_connection_base2IiiNS_15single_threadedEEE+8@l(9)
 1703 0008 90030000 		stw 0,0(3)
 1704              	.LBE4544:
 1705              	.LBE4545:
 1706              	.LBE4546:
 1707              	.LBE4547:
 1708              		.loc 1 1738 0
 1709 000c 4E800020 		blr
 1710              		.cfi_endproc
 1711              	.LFE2578:
 1712              		.size	_ZN7sigslot12_connection2I8PlayListiiNS_15single_threadedEED2Ev, .-_ZN7sigslot12_connection2
 1713              		.section	.text._ZNK7sigslot12_connection2I8PlayListiiNS_15single_threadedEE7getdestEv,"axG",@progb
 1714              		.align 2
 1715              		.weak	_ZNK7sigslot12_connection2I8PlayListiiNS_15single_threadedEE7getdestEv
 1716              		.type	_ZNK7sigslot12_connection2I8PlayListiiNS_15single_threadedEE7getdestEv, @function
 1717              	_ZNK7sigslot12_connection2I8PlayListiiNS_15single_threadedEE7getdestEv:
 1718              	.LFB2581:
 1719              		.loc 1 1756 0
 1720              		.cfi_startproc
 1721              	.LVL129:
 1722              		.loc 1 1758 0
 1723 0000 81230004 		lwz 9,4(3)
 1724 0004 38600000 		li 3,0
 1725              	.LVL130:
 1726 0008 2F890000 		cmpwi 7,9,0
 1727 000c 4D9E0020 		beqlr- 7
 1728              		.loc 1 1758 0 is_stmt 0 discriminator 1
 1729 0010 386900B0 		addi 3,9,176
 1730              		.loc 1 1759 0 is_stmt 1 discriminator 1
 1731 0014 4E800020 		blr
 1732              		.cfi_endproc
 1733              	.LFE2581:
 1734              		.size	_ZNK7sigslot12_connection2I8PlayListiiNS_15single_threadedEE7getdestEv, .-_ZNK7sigslot12_con
 1735              		.section	.text._ZN7sigslot12_connection2I8PlayListiiNS_15single_threadedEE4emitEii,"axG",@progbits
 1736              		.align 2
 1737              		.weak	_ZN7sigslot12_connection2I8PlayListiiNS_15single_threadedEE4emitEii
 1738              		.type	_ZN7sigslot12_connection2I8PlayListiiNS_15single_threadedEE4emitEii, @function
 1739              	_ZN7sigslot12_connection2I8PlayListiiNS_15single_threadedEE4emitEii:
 1740              	.LFB2582:
 1741              		.loc 1 1751 0
 1742              		.cfi_startproc
 1743              	.LVL131:
 1744 0000 7C0802A6 		mflr 0
 1745 0004 9421FFF8 		stwu 1,-8(1)
 1746              	.LCFI31:
 1747              		.cfi_def_cfa_offset 8
 1748              		.cfi_register 65, 0
 1749 0008 9001000C 		stw 0,12(1)
 1750              		.loc 1 1753 0
 1751 000c 80030008 		lwz 0,8(3)
 1752              		.cfi_offset 65, 4
 1753 0010 81630004 		lwz 11,4(3)
 1754 0014 70090001 		andi. 9,0,1
 1755 0018 8123000C 		lwz 9,12(3)
 1756 001c 40820020 		bne- 0,.L115
 1757 0020 7C0903A6 		mtctr 0
 1758 0024 7C6B4A14 		add 3,11,9
 1759              	.LVL132:
 1760 0028 4E800421 		bctrl
 1761              	.LVL133:
 1762              		.loc 1 1754 0
 1763 002c 8001000C 		lwz 0,12(1)
 1764 0030 38210008 		addi 1,1,8
 1765              		.cfi_remember_state
 1766              	.LCFI32:
 1767              		.cfi_def_cfa_offset 0
 1768 0034 7C0803A6 		mtlr 0
 1769 0038 4E800020 		blr
 1770              	.LVL134:
 1771              	.L115:
 1772              	.LCFI33:
 1773              		.cfi_restore_state
 1774              		.loc 1 1753 0 discriminator 1
 1775 003c 7D4B482E 		lwzx 10,11,9
 1776 0040 7C6B4A14 		add 3,11,9
 1777              	.LVL135:
 1778 0044 7D2A0214 		add 9,10,0
 1779 0048 8009FFFF 		lwz 0,-1(9)
 1780 004c 7C0903A6 		mtctr 0
 1781 0050 4E800421 		bctrl
 1782              	.LVL136:
 1783              		.loc 1 1754 0 discriminator 1
 1784 0054 8001000C 		lwz 0,12(1)
 1785 0058 38210008 		addi 1,1,8
 1786              	.LCFI34:
 1787              		.cfi_def_cfa_offset 0
 1788 005c 7C0803A6 		mtlr 0
 1789 0060 4E800020 		blr
 1790              		.cfi_endproc
 1791              	.LFE2582:
 1792              		.size	_ZN7sigslot12_connection2I8PlayListiiNS_15single_threadedEE4emitEii, .-_ZN7sigslot12_connect
 1793              		.section	.text._ZN7sigslot12_connection2I8PlayListiiNS_15single_threadedEE9duplicateEPNS_9has_slot
 1794              		.align 2
 1795              		.weak	_ZN7sigslot12_connection2I8PlayListiiNS_15single_threadedEE9duplicateEPNS_9has_slotsIS2_EE
 1796              		.type	_ZN7sigslot12_connection2I8PlayListiiNS_15single_threadedEE9duplicateEPNS_9has_slotsIS2_EE, 
 1797              	_ZN7sigslot12_connection2I8PlayListiiNS_15single_threadedEE9duplicateEPNS_9has_slotsIS2_EE:
 1798              	.LFB2590:
 1799              		.loc 1 1746 0
 1800              		.cfi_startproc
 1801              	.LVL137:
 1802 0000 9421FFF0 		stwu 1,-16(1)
 1803              	.LCFI35:
 1804              		.cfi_def_cfa_offset 16
 1805 0004 7C0802A6 		mflr 0
 1806 0008 93C10008 		stw 30,8(1)
 1807 000c 7C9E2378 		mr 30,4
 1808              		.cfi_offset 30, -8
 1809              		.cfi_register 65, 0
 1810 0010 93E1000C 		stw 31,12(1)
 1811 0014 7C7F1B78 		mr 31,3
 1812              		.cfi_offset 31, -4
 1813              		.loc 1 1748 0
 1814 0018 38600010 		li 3,16
 1815              	.LVL138:
 1816              		.loc 1 1746 0
 1817 001c 90010014 		stw 0,20(1)
 1818              		.loc 1 1748 0
 1819              		.cfi_offset 65, 4
 1820 0020 48000001 		bl _Znwj
 1821              	.LVL139:
 1822 0024 2F9E0000 		cmpwi 7,30,0
 1823 0028 38000000 		li 0,0
 1824 002c 419E0008 		beq- 7,.L118
 1825              		.loc 1 1748 0 is_stmt 0 discriminator 1
 1826 0030 381EFF50 		addi 0,30,-176
 1827              	.L118:
 1828              	.LVL140:
 1829              		.loc 1 1748 0 discriminator 3
 1830 0034 817F0008 		lwz 11,8(31)
 1831              	.LVL141:
 1832              	.LBB4548:
 1833              	.LBB4549:
 1834              		.loc 1 1730 0 is_stmt 1 discriminator 3
 1835 0038 3D400000 		lis 10,_ZTVN7sigslot12_connection2I8PlayListiiNS_15single_threadedEEE+8@ha
 1836              	.LBE4549:
 1837              	.LBE4548:
 1838              		.loc 1 1748 0 discriminator 3
 1839 003c 813F000C 		lwz 9,12(31)
 1840              	.LVL142:
 1841              	.LBB4552:
 1842              	.LBB4550:
 1843              		.loc 1 1730 0 discriminator 3
 1844 0040 394A0008 		la 10,_ZTVN7sigslot12_connection2I8PlayListiiNS_15single_threadedEEE+8@l(10)
 1845              		.loc 1 1732 0 discriminator 3
 1846 0044 91630008 		stw 11,8(3)
 1847 0048 9123000C 		stw 9,12(3)
 1848              		.loc 1 1731 0 discriminator 3
 1849 004c 90030004 		stw 0,4(3)
 1850              	.LBE4550:
 1851              	.LBE4552:
 1852              		.loc 1 1749 0 discriminator 3
 1853 0050 80010014 		lwz 0,20(1)
 1854              	.LVL143:
 1855 0054 83C10008 		lwz 30,8(1)
 1856              	.LVL144:
 1857 0058 7C0803A6 		mtlr 0
 1858 005c 83E1000C 		lwz 31,12(1)
 1859              	.LVL145:
 1860              	.LBB4553:
 1861              	.LBB4551:
 1862              		.loc 1 1730 0 discriminator 3
 1863 0060 91430000 		stw 10,0(3)
 1864              	.LBE4551:
 1865              	.LBE4553:
 1866              		.loc 1 1749 0 discriminator 3
 1867 0064 38210010 		addi 1,1,16
 1868              	.LCFI36:
 1869              		.cfi_def_cfa_offset 0
 1870              		.cfi_restore 31
 1871              		.cfi_restore 30
 1872 0068 4E800020 		blr
 1873              		.cfi_endproc
 1874              	.LFE2590:
 1875              		.size	_ZN7sigslot12_connection2I8PlayListiiNS_15single_threadedEE9duplicateEPNS_9has_slotsIS2_EE, 
 1876              		.section	.text._ZN7sigslot12_connection3I8PlayListP9GuiButtoniRK6_POINTNS_15single_threadedEE9dupl
 1877              		.align 2
 1878              		.weak	_ZN7sigslot12_connection3I8PlayListP9GuiButtoniRK6_POINTNS_15single_threadedEE9duplicateEPNS
 1879              		.type	_ZN7sigslot12_connection3I8PlayListP9GuiButtoniRK6_POINTNS_15single_threadedEE9duplicateEPNS
 1880              	_ZN7sigslot12_connection3I8PlayListP9GuiButtoniRK6_POINTNS_15single_threadedEE9duplicateEPNS_9has_s
 1881              	.LFB2576:
 1882              		.loc 1 1794 0
 1883              		.cfi_startproc
 1884              	.LVL146:
 1885 0000 9421FFF0 		stwu 1,-16(1)
 1886              	.LCFI37:
 1887              		.cfi_def_cfa_offset 16
 1888 0004 7C0802A6 		mflr 0
 1889 0008 93C10008 		stw 30,8(1)
 1890 000c 7C9E2378 		mr 30,4
 1891              		.cfi_offset 30, -8
 1892              		.cfi_register 65, 0
 1893 0010 93E1000C 		stw 31,12(1)
 1894 0014 7C7F1B78 		mr 31,3
 1895              		.cfi_offset 31, -4
 1896              		.loc 1 1796 0
 1897 0018 38600010 		li 3,16
 1898              	.LVL147:
 1899              		.loc 1 1794 0
 1900 001c 90010014 		stw 0,20(1)
 1901              		.loc 1 1796 0
 1902              		.cfi_offset 65, 4
 1903 0020 48000001 		bl _Znwj
 1904              	.LVL148:
 1905 0024 2F9E0000 		cmpwi 7,30,0
 1906 0028 38000000 		li 0,0
 1907 002c 419E0008 		beq- 7,.L121
 1908              		.loc 1 1796 0 is_stmt 0 discriminator 1
 1909 0030 381EFF50 		addi 0,30,-176
 1910              	.L121:
 1911              	.LVL149:
 1912              		.loc 1 1796 0 discriminator 3
 1913 0034 817F0008 		lwz 11,8(31)
 1914              	.LVL150:
 1915              	.LBB4554:
 1916              	.LBB4555:
 1917              		.loc 1 1778 0 is_stmt 1 discriminator 3
 1918 0038 3D400000 		lis 10,_ZTVN7sigslot12_connection3I8PlayListP9GuiButtoniRK6_POINTNS_15single_threadedEEE+8@ha
 1919              	.LBE4555:
 1920              	.LBE4554:
 1921              		.loc 1 1796 0 discriminator 3
 1922 003c 813F000C 		lwz 9,12(31)
 1923              	.LVL151:
 1924              	.LBB4558:
 1925              	.LBB4556:
 1926              		.loc 1 1778 0 discriminator 3
 1927 0040 394A0008 		la 10,_ZTVN7sigslot12_connection3I8PlayListP9GuiButtoniRK6_POINTNS_15single_threadedEEE+8@l(10)
 1928              		.loc 1 1780 0 discriminator 3
 1929 0044 91630008 		stw 11,8(3)
 1930 0048 9123000C 		stw 9,12(3)
 1931              		.loc 1 1779 0 discriminator 3
 1932 004c 90030004 		stw 0,4(3)
 1933              	.LBE4556:
 1934              	.LBE4558:
 1935              		.loc 1 1797 0 discriminator 3
 1936 0050 80010014 		lwz 0,20(1)
 1937              	.LVL152:
 1938 0054 83C10008 		lwz 30,8(1)
 1939              	.LVL153:
 1940 0058 7C0803A6 		mtlr 0
 1941 005c 83E1000C 		lwz 31,12(1)
 1942              	.LVL154:
 1943              	.LBB4559:
 1944              	.LBB4557:
 1945              		.loc 1 1778 0 discriminator 3
 1946 0060 91430000 		stw 10,0(3)
 1947              	.LBE4557:
 1948              	.LBE4559:
 1949              		.loc 1 1797 0 discriminator 3
 1950 0064 38210010 		addi 1,1,16
 1951              	.LCFI38:
 1952              		.cfi_def_cfa_offset 0
 1953              		.cfi_restore 31
 1954              		.cfi_restore 30
 1955 0068 4E800020 		blr
 1956              		.cfi_endproc
 1957              	.LFE2576:
 1958              		.size	_ZN7sigslot12_connection3I8PlayListP9GuiButtoniRK6_POINTNS_15single_threadedEE9duplicateEPNS
 1959              		.section	.text._ZN7sigslot12_connection3I8PlayListP10GuiElementiiNS_15single_threadedEE9duplicateE
 1960              		.align 2
 1961              		.weak	_ZN7sigslot12_connection3I8PlayListP10GuiElementiiNS_15single_threadedEE9duplicateEPNS_9has_
 1962              		.type	_ZN7sigslot12_connection3I8PlayListP10GuiElementiiNS_15single_threadedEE9duplicateEPNS_9has_
 1963              	_ZN7sigslot12_connection3I8PlayListP10GuiElementiiNS_15single_threadedEE9duplicateEPNS_9has_slotsIS
 1964              	.LFB2562:
 1965              		.loc 1 1794 0
 1966              		.cfi_startproc
 1967              	.LVL155:
 1968 0000 9421FFF0 		stwu 1,-16(1)
 1969              	.LCFI39:
 1970              		.cfi_def_cfa_offset 16
 1971 0004 7C0802A6 		mflr 0
 1972 0008 93C10008 		stw 30,8(1)
 1973 000c 7C9E2378 		mr 30,4
 1974              		.cfi_offset 30, -8
 1975              		.cfi_register 65, 0
 1976 0010 93E1000C 		stw 31,12(1)
 1977 0014 7C7F1B78 		mr 31,3
 1978              		.cfi_offset 31, -4
 1979              		.loc 1 1796 0
 1980 0018 38600010 		li 3,16
 1981              	.LVL156:
 1982              		.loc 1 1794 0
 1983 001c 90010014 		stw 0,20(1)
 1984              		.loc 1 1796 0
 1985              		.cfi_offset 65, 4
 1986 0020 48000001 		bl _Znwj
 1987              	.LVL157:
 1988 0024 2F9E0000 		cmpwi 7,30,0
 1989 0028 38000000 		li 0,0
 1990 002c 419E0008 		beq- 7,.L124
 1991              		.loc 1 1796 0 is_stmt 0 discriminator 1
 1992 0030 381EFF50 		addi 0,30,-176
 1993              	.L124:
 1994              	.LVL158:
 1995              		.loc 1 1796 0 discriminator 3
 1996 0034 817F0008 		lwz 11,8(31)
 1997              	.LVL159:
 1998              	.LBB4560:
 1999              	.LBB4561:
 2000              		.loc 1 1778 0 is_stmt 1 discriminator 3
 2001 0038 3D400000 		lis 10,_ZTVN7sigslot12_connection3I8PlayListP10GuiElementiiNS_15single_threadedEEE+8@ha
 2002              	.LBE4561:
 2003              	.LBE4560:
 2004              		.loc 1 1796 0 discriminator 3
 2005 003c 813F000C 		lwz 9,12(31)
 2006              	.LVL160:
 2007              	.LBB4564:
 2008              	.LBB4562:
 2009              		.loc 1 1778 0 discriminator 3
 2010 0040 394A0008 		la 10,_ZTVN7sigslot12_connection3I8PlayListP10GuiElementiiNS_15single_threadedEEE+8@l(10)
 2011              		.loc 1 1780 0 discriminator 3
 2012 0044 91630008 		stw 11,8(3)
 2013 0048 9123000C 		stw 9,12(3)
 2014              		.loc 1 1779 0 discriminator 3
 2015 004c 90030004 		stw 0,4(3)
 2016              	.LBE4562:
 2017              	.LBE4564:
 2018              		.loc 1 1797 0 discriminator 3
 2019 0050 80010014 		lwz 0,20(1)
 2020              	.LVL161:
 2021 0054 83C10008 		lwz 30,8(1)
 2022              	.LVL162:
 2023 0058 7C0803A6 		mtlr 0
 2024 005c 83E1000C 		lwz 31,12(1)
 2025              	.LVL163:
 2026              	.LBB4565:
 2027              	.LBB4563:
 2028              		.loc 1 1778 0 discriminator 3
 2029 0060 91430000 		stw 10,0(3)
 2030              	.LBE4563:
 2031              	.LBE4565:
 2032              		.loc 1 1797 0 discriminator 3
 2033 0064 38210010 		addi 1,1,16
 2034              	.LCFI40:
 2035              		.cfi_def_cfa_offset 0
 2036              		.cfi_restore 31
 2037              		.cfi_restore 30
 2038 0068 4E800020 		blr
 2039              		.cfi_endproc
 2040              	.LFE2562:
 2041              		.size	_ZN7sigslot12_connection3I8PlayListP10GuiElementiiNS_15single_threadedEE9duplicateEPNS_9has_
 2042              		.section	.text._ZN7sigslot12_connection3I8PlayListP10GuiElementiiNS_15single_threadedEE5cloneEv,"a
 2043              		.align 2
 2044              		.weak	_ZN7sigslot12_connection3I8PlayListP10GuiElementiiNS_15single_threadedEE5cloneEv
 2045              		.type	_ZN7sigslot12_connection3I8PlayListP10GuiElementiiNS_15single_threadedEE5cloneEv, @function
 2046              	_ZN7sigslot12_connection3I8PlayListP10GuiElementiiNS_15single_threadedEE5cloneEv:
 2047              	.LFB2555:
 2048              		.loc 1 1789 0
 2049              		.cfi_startproc
 2050              	.LVL164:
 2051 0000 9421FFF0 		stwu 1,-16(1)
 2052              	.LCFI41:
 2053              		.cfi_def_cfa_offset 16
 2054 0004 7C0802A6 		mflr 0
 2055 0008 93E1000C 		stw 31,12(1)
 2056 000c 7C7F1B78 		mr 31,3
 2057              		.cfi_offset 31, -4
 2058              		.cfi_register 65, 0
 2059              		.loc 1 1791 0
 2060 0010 38600010 		li 3,16
 2061              	.LVL165:
 2062              		.loc 1 1789 0
 2063 0014 90010014 		stw 0,20(1)
 2064              		.loc 1 1791 0
 2065              		.cfi_offset 65, 4
 2066 0018 48000001 		bl _Znwj
 2067              		.loc 4 503 0
 2068 001c 801F0004 		lwz 0,4(31)
 2069              	.LVL166:
 2070              	.LBB4566:
 2071              	.LBB4567:
 2072              		.loc 1 1767 0
 2073 0020 3D600000 		lis 11,_ZTVN7sigslot12_connection3I8PlayListP10GuiElementiiNS_15single_threadedEEE+8@ha
 2074 0024 396B0008 		la 11,_ZTVN7sigslot12_connection3I8PlayListP10GuiElementiiNS_15single_threadedEEE+8@l(11)
 2075 0028 90030004 		stw 0,4(3)
 2076 002c 91630000 		stw 11,0(3)
 2077 0030 815F0008 		lwz 10,8(31)
 2078 0034 817F000C 		lwz 11,12(31)
 2079 0038 91430008 		stw 10,8(3)
 2080 003c 9163000C 		stw 11,12(3)
 2081              	.LBE4567:
 2082              	.LBE4566:
 2083              		.loc 1 1792 0
 2084 0040 80010014 		lwz 0,20(1)
 2085 0044 83E1000C 		lwz 31,12(1)
 2086              	.LVL167:
 2087 0048 7C0803A6 		mtlr 0
 2088 004c 38210010 		addi 1,1,16
 2089              	.LCFI42:
 2090              		.cfi_def_cfa_offset 0
 2091              		.cfi_restore 31
 2092 0050 4E800020 		blr
 2093              		.cfi_endproc
 2094              	.LFE2555:
 2095              		.size	_ZN7sigslot12_connection3I8PlayListP10GuiElementiiNS_15single_threadedEE5cloneEv, .-_ZN7sigs
 2096              		.section	.text._ZN7sigslot12_connection3I8PlayListP9GuiButtoniRK6_POINTNS_15single_threadedEE5clon
 2097              		.align 2
 2098              		.weak	_ZN7sigslot12_connection3I8PlayListP9GuiButtoniRK6_POINTNS_15single_threadedEE5cloneEv
 2099              		.type	_ZN7sigslot12_connection3I8PlayListP9GuiButtoniRK6_POINTNS_15single_threadedEE5cloneEv, @fun
 2100              	_ZN7sigslot12_connection3I8PlayListP9GuiButtoniRK6_POINTNS_15single_threadedEE5cloneEv:
 2101              	.LFB2569:
 2102              		.loc 1 1789 0
 2103              		.cfi_startproc
 2104              	.LVL168:
 2105 0000 9421FFF0 		stwu 1,-16(1)
 2106              	.LCFI43:
 2107              		.cfi_def_cfa_offset 16
 2108 0004 7C0802A6 		mflr 0
 2109 0008 93E1000C 		stw 31,12(1)
 2110 000c 7C7F1B78 		mr 31,3
 2111              		.cfi_offset 31, -4
 2112              		.cfi_register 65, 0
 2113              		.loc 1 1791 0
 2114 0010 38600010 		li 3,16
 2115              	.LVL169:
 2116              		.loc 1 1789 0
 2117 0014 90010014 		stw 0,20(1)
 2118              		.loc 1 1791 0
 2119              		.cfi_offset 65, 4
 2120 0018 48000001 		bl _Znwj
 2121              		.loc 4 503 0
 2122 001c 801F0004 		lwz 0,4(31)
 2123              	.LVL170:
 2124              	.LBB4568:
 2125              	.LBB4569:
 2126              		.loc 1 1767 0
 2127 0020 3D600000 		lis 11,_ZTVN7sigslot12_connection3I8PlayListP9GuiButtoniRK6_POINTNS_15single_threadedEEE+8@ha
 2128 0024 396B0008 		la 11,_ZTVN7sigslot12_connection3I8PlayListP9GuiButtoniRK6_POINTNS_15single_threadedEEE+8@l(11)
 2129 0028 90030004 		stw 0,4(3)
 2130 002c 91630000 		stw 11,0(3)
 2131 0030 815F0008 		lwz 10,8(31)
 2132 0034 817F000C 		lwz 11,12(31)
 2133 0038 91430008 		stw 10,8(3)
 2134 003c 9163000C 		stw 11,12(3)
 2135              	.LBE4569:
 2136              	.LBE4568:
 2137              		.loc 1 1792 0
 2138 0040 80010014 		lwz 0,20(1)
 2139 0044 83E1000C 		lwz 31,12(1)
 2140              	.LVL171:
 2141 0048 7C0803A6 		mtlr 0
 2142 004c 38210010 		addi 1,1,16
 2143              	.LCFI44:
 2144              		.cfi_def_cfa_offset 0
 2145              		.cfi_restore 31
 2146 0050 4E800020 		blr
 2147              		.cfi_endproc
 2148              	.LFE2569:
 2149              		.size	_ZN7sigslot12_connection3I8PlayListP9GuiButtoniRK6_POINTNS_15single_threadedEE5cloneEv, .-_Z
 2150              		.section	.text._ZN7sigslot12_connection2I8PlayListiiNS_15single_threadedEE5cloneEv,"axG",@progbits
 2151              		.align 2
 2152              		.weak	_ZN7sigslot12_connection2I8PlayListiiNS_15single_threadedEE5cloneEv
 2153              		.type	_ZN7sigslot12_connection2I8PlayListiiNS_15single_threadedEE5cloneEv, @function
 2154              	_ZN7sigslot12_connection2I8PlayListiiNS_15single_threadedEE5cloneEv:
 2155              	.LFB2583:
 2156              		.loc 1 1741 0
 2157              		.cfi_startproc
 2158              	.LVL172:
 2159 0000 9421FFF0 		stwu 1,-16(1)
 2160              	.LCFI45:
 2161              		.cfi_def_cfa_offset 16
 2162 0004 7C0802A6 		mflr 0
 2163 0008 93E1000C 		stw 31,12(1)
 2164 000c 7C7F1B78 		mr 31,3
 2165              		.cfi_offset 31, -4
 2166              		.cfi_register 65, 0
 2167              		.loc 1 1743 0
 2168 0010 38600010 		li 3,16
 2169              	.LVL173:
 2170              		.loc 1 1741 0
 2171 0014 90010014 		stw 0,20(1)
 2172              		.loc 1 1743 0
 2173              		.cfi_offset 65, 4
 2174 0018 48000001 		bl _Znwj
 2175              		.loc 4 503 0
 2176 001c 801F0004 		lwz 0,4(31)
 2177              	.LVL174:
 2178              	.LBB4570:
 2179              	.LBB4571:
 2180              		.loc 1 1719 0
 2181 0020 3D600000 		lis 11,_ZTVN7sigslot12_connection2I8PlayListiiNS_15single_threadedEEE+8@ha
 2182 0024 396B0008 		la 11,_ZTVN7sigslot12_connection2I8PlayListiiNS_15single_threadedEEE+8@l(11)
 2183 0028 90030004 		stw 0,4(3)
 2184 002c 91630000 		stw 11,0(3)
 2185 0030 815F0008 		lwz 10,8(31)
 2186 0034 817F000C 		lwz 11,12(31)
 2187 0038 91430008 		stw 10,8(3)
 2188 003c 9163000C 		stw 11,12(3)
 2189              	.LBE4571:
 2190              	.LBE4570:
 2191              		.loc 1 1744 0
 2192 0040 80010014 		lwz 0,20(1)
 2193 0044 83E1000C 		lwz 31,12(1)
 2194              	.LVL175:
 2195 0048 7C0803A6 		mtlr 0
 2196 004c 38210010 		addi 1,1,16
 2197              	.LCFI46:
 2198              		.cfi_def_cfa_offset 0
 2199              		.cfi_restore 31
 2200 0050 4E800020 		blr
 2201              		.cfi_endproc
 2202              	.LFE2583:
 2203              		.size	_ZN7sigslot12_connection2I8PlayListiiNS_15single_threadedEE5cloneEv, .-_ZN7sigslot12_connect
 2204              		.section	.text._ZN7sigslot13_signal_base2IP8PlayListiNS_15single_threadedEE14slot_duplicateEPKNS_9
 2205              		.align 2
 2206              		.weak	_ZN7sigslot13_signal_base2IP8PlayListiNS_15single_threadedEE14slot_duplicateEPKNS_9has_slots
 2207              		.type	_ZN7sigslot13_signal_base2IP8PlayListiNS_15single_threadedEE14slot_duplicateEPKNS_9has_slots
 2208              	_ZN7sigslot13_signal_base2IP8PlayListiNS_15single_threadedEE14slot_duplicateEPKNS_9has_slotsIS3_EEP
 2209              	.LFB2592:
 2210              		.loc 1 806 0
 2211              		.cfi_startproc
 2212              		.cfi_personality 0,__gxx_personality_v0
 2213              		.cfi_lsda 0,.LLSDA2592
 2214              	.LVL176:
 2215 0000 7C0802A6 		mflr 0
 2216 0004 9421FFE0 		stwu 1,-32(1)
 2217              	.LCFI47:
 2218              		.cfi_def_cfa_offset 32
 2219              		.cfi_register 65, 0
 2220 0008 93410008 		stw 26,8(1)
 2221 000c 7CBA2B78 		mr 26,5
 2222              		.cfi_offset 26, -24
 2223 0010 90010024 		stw 0,36(1)
 2224 0014 9361000C 		stw 27,12(1)
 2225 0018 7C7B1B78 		mr 27,3
 2226              		.cfi_offset 27, -20
 2227              		.cfi_offset 65, 4
 2228              	.LVL177:
 2229              	.LBB4572:
 2230              	.LBB4573:
 2231              	.LBB4574:
 2232              		.loc 1 338 0
 2233 001c 81230000 		lwz 9,0(3)
 2234              	.LBE4574:
 2235              	.LBE4573:
 2236              	.LBE4572:
 2237              		.loc 1 806 0
 2238 0020 93A10014 		stw 29,20(1)
 2239 0024 7C9D2378 		mr 29,4
 2240              		.cfi_offset 29, -12
 2241              	.LBB4603:
 2242              	.LBB4579:
 2243              	.LBB4575:
 2244              		.loc 1 338 0
 2245 0028 80090008 		lwz 0,8(9)
 2246              	.LBE4575:
 2247              	.LBE4579:
 2248              	.LBE4603:
 2249              		.loc 1 806 0
 2250 002c 93C10018 		stw 30,24(1)
 2251              	.LBB4604:
 2252              	.LBB4580:
 2253              	.LBB4576:
 2254              		.loc 4 503 0
 2255 0030 7F7EDB78 		mr 30,27
 2256              		.cfi_offset 30, -8
 2257              	.LBE4576:
 2258              	.LBE4580:
 2259              	.LBE4604:
 2260              		.loc 1 806 0
 2261 0034 93E1001C 		stw 31,28(1)
 2262              	.LBB4605:
 2263              	.LBB4581:
 2264              	.LBB4577:
 2265              		.loc 1 338 0
 2266 0038 7C0903A6 		mtctr 0
 2267              	.LBE4577:
 2268              	.LBE4581:
 2269              	.LBE4605:
 2270              		.loc 1 806 0
 2271 003c 93810010 		stw 28,16(1)
 2272              	.LEHB4:
 2273              	.LBB4606:
 2274              	.LBB4582:
 2275              	.LBB4578:
 2276              		.loc 1 338 0
 2277              		.cfi_offset 28, -16
 2278              		.cfi_offset 31, -4
 2279 0040 4E800421 		bctrl
 2280              	.LEHE4:
 2281              	.LVL178:
 2282              		.loc 4 503 0
 2283 0044 87FE0004 		lwzu 31,4(30)
 2284              	.LVL179:
 2285              	.LBE4578:
 2286              	.LBE4582:
 2287              		.loc 1 812 0
 2288 0048 7F9FF000 		cmpw 7,31,30
 2289 004c 40BE0014 		bne+ 7,.L139
 2290 0050 48000070 		b .L130
 2291              	.LVL180:
 2292              	.L131:
 2293              	.LBB4583:
 2294              	.LBB4584:
 2295              		.loc 6 154 0
 2296 0054 83FF0000 		lwz 31,0(31)
 2297              	.LVL181:
 2298              	.LBE4584:
 2299              	.LBE4583:
 2300              		.loc 1 812 0
 2301 0058 7F9EF800 		cmpw 7,30,31
 2302 005c 419E0064 		beq- 7,.L130
 2303              	.LVL182:
 2304              	.L139:
 2305              		.loc 1 814 0
 2306 0060 807F0008 		lwz 3,8(31)
 2307 0064 81230000 		lwz 9,0(3)
 2308 0068 80090008 		lwz 0,8(9)
 2309 006c 7C0903A6 		mtctr 0
 2310              	.LEHB5:
 2311 0070 4E800421 		bctrl
 2312 0074 7F9D1800 		cmpw 7,29,3
 2313 0078 409EFFDC 		bne+ 7,.L131
 2314              	.LVL183:
 2315              		.loc 1 816 0
 2316 007c 807F0008 		lwz 3,8(31)
 2317 0080 7F44D378 		mr 4,26
 2318 0084 81230000 		lwz 9,0(3)
 2319 0088 80090014 		lwz 0,20(9)
 2320 008c 7C0903A6 		mtctr 0
 2321 0090 4E800421 		bctrl
 2322 0094 7C7C1B78 		mr 28,3
 2323              	.LVL184:
 2324              	.LBB4586:
 2325              	.LBB4587:
 2326              	.LBB4588:
 2327              	.LBB4589:
 2328              	.LBB4590:
 2329              	.LBB4591:
 2330              	.LBB4592:
 2331              	.LBB4593:
 2332              		.file 7 "d:\\devkitpro\\devkitppc\\bin\\../lib/gcc/powerpc-eabi/4.6.3/../../../../powerpc-eabi/inc
 2333              		.loc 7 92 0
 2334 0098 3860000C 		li 3,12
 2335 009c 48000001 		bl _Znwj
 2336              	.LEHE5:
 2337              	.LVL185:
 2338              	.LBE4593:
 2339              	.LBE4592:
 2340              	.LBE4591:
 2341              	.LBB4594:
 2342              	.LBB4595:
 2343              		.loc 7 108 0 discriminator 1
 2344 00a0 2F83FFF8 		cmpwi 7,3,-8
 2345 00a4 419E0008 		beq- 7,.L133
 2346              		.loc 7 108 0 is_stmt 0
 2347 00a8 93830008 		stw 28,8(3)
 2348              	.L133:
 2349              	.LVL186:
 2350              	.LBE4595:
 2351              	.LBE4594:
 2352              	.LBE4590:
 2353              	.LBE4589:
 2354              		.loc 6 1516 0 is_stmt 1
 2355 00ac 7FC4F378 		mr 4,30
 2356 00b0 48000001 		bl _ZNSt8__detail15_List_node_base7_M_hookEPS0_
 2357              	.LVL187:
 2358              	.LBE4588:
 2359              	.LBE4587:
 2360              	.LBE4586:
 2361              	.LBB4596:
 2362              	.LBB4585:
 2363              		.loc 6 154 0
 2364 00b4 83FF0000 		lwz 31,0(31)
 2365              	.LVL188:
 2366              	.LBE4585:
 2367              	.LBE4596:
 2368              		.loc 1 812 0
 2369 00b8 7F9EF800 		cmpw 7,30,31
 2370 00bc 409EFFA4 		bne+ 7,.L139
 2371              	.LVL189:
 2372              	.L130:
 2373              	.LBB4597:
 2374              	.LBB4598:
 2375              	.LBB4599:
 2376              		.loc 1 343 0
 2377 00c0 813B0000 		lwz 9,0(27)
 2378 00c4 7F63DB78 		mr 3,27
 2379 00c8 8009000C 		lwz 0,12(9)
 2380 00cc 7C0903A6 		mtctr 0
 2381              	.LEHB6:
 2382 00d0 4E800421 		bctrl
 2383              	.LEHE6:
 2384              	.LBE4599:
 2385              	.LBE4598:
 2386              	.LBE4597:
 2387              	.LBE4606:
 2388              		.loc 1 821 0
 2389 00d4 80010024 		lwz 0,36(1)
 2390 00d8 83410008 		lwz 26,8(1)
 2391              	.LVL190:
 2392 00dc 7C0803A6 		mtlr 0
 2393 00e0 8361000C 		lwz 27,12(1)
 2394              	.LVL191:
 2395 00e4 83810010 		lwz 28,16(1)
 2396 00e8 83A10014 		lwz 29,20(1)
 2397              	.LVL192:
 2398 00ec 83C10018 		lwz 30,24(1)
 2399              	.LVL193:
 2400 00f0 83E1001C 		lwz 31,28(1)
 2401              	.LVL194:
 2402 00f4 38210020 		addi 1,1,32
 2403              		.cfi_remember_state
 2404              	.LCFI48:
 2405              		.cfi_def_cfa_offset 0
 2406              		.cfi_restore 31
 2407              		.cfi_restore 30
 2408              		.cfi_restore 29
 2409              		.cfi_restore 28
 2410              		.cfi_restore 27
 2411              		.cfi_restore 26
 2412 00f8 4E800020 		blr
 2413              	.LVL195:
 2414              	.L138:
 2415              	.LCFI49:
 2416              		.cfi_restore_state
 2417              	.LBB4607:
 2418              	.LBB4600:
 2419              	.LBB4601:
 2420              	.LBB4602:
 2421              		.loc 1 343 0
 2422 00fc 813B0000 		lwz 9,0(27)
 2423 0100 7C7F1B78 		mr 31,3
 2424              	.LVL196:
 2425 0104 7F63DB78 		mr 3,27
 2426 0108 8009000C 		lwz 0,12(9)
 2427 010c 7C0903A6 		mtctr 0
 2428 0110 4E800421 		bctrl
 2429 0114 7FE3FB78 		mr 3,31
 2430              	.LEHB7:
 2431 0118 48000001 		bl _Unwind_Resume
 2432              	.LEHE7:
 2433              	.LBE4602:
 2434              	.LBE4601:
 2435              	.LBE4600:
 2436              	.LBE4607:
 2437              		.cfi_endproc
 2438              	.LFE2592:
 2439              		.section	.gcc_except_table
 2440              	.LLSDA2592:
 2441 0019 FF       		.byte	0xff
 2442 001a FF       		.byte	0xff
 2443 001b 01       		.byte	0x1
 2444 001c 13       		.uleb128 .LLSDACSE2592-.LLSDACSB2592
 2445              	.LLSDACSB2592:
 2446 001d 40       		.uleb128 .LEHB4-.LFB2592
 2447 001e 04       		.uleb128 .LEHE4-.LEHB4
 2448 001f 00       		.uleb128 0
 2449 0020 00       		.uleb128 0
 2450 0021 70       		.uleb128 .LEHB5-.LFB2592
 2451 0022 30       		.uleb128 .LEHE5-.LEHB5
 2452 0023 FC01     		.uleb128 .L138-.LFB2592
 2453 0025 00       		.uleb128 0
 2454 0026 D001     		.uleb128 .LEHB6-.LFB2592
 2455 0028 04       		.uleb128 .LEHE6-.LEHB6
 2456 0029 00       		.uleb128 0
 2457 002a 00       		.uleb128 0
 2458 002b 9802     		.uleb128 .LEHB7-.LFB2592
 2459 002d 04       		.uleb128 .LEHE7-.LEHB7
 2460 002e 00       		.uleb128 0
 2461 002f 00       		.uleb128 0
 2462              	.LLSDACSE2592:
 2463              		.section	.text._ZN7sigslot13_signal_base2IP8PlayListiNS_15single_threadedEE14slot_duplicateEPKNS_9
 2464              		.size	_ZN7sigslot13_signal_base2IP8PlayListiNS_15single_threadedEE14slot_duplicateEPKNS_9has_slots
 2465              		.section	.text._ZN7sigslot12_connection2I8PlayListiiNS_15single_threadedEED0Ev,"axG",@progbits,_ZN
 2466              		.align 2
 2467              		.weak	_ZN7sigslot12_connection2I8PlayListiiNS_15single_threadedEED0Ev
 2468              		.type	_ZN7sigslot12_connection2I8PlayListiiNS_15single_threadedEED0Ev, @function
 2469              	_ZN7sigslot12_connection2I8PlayListiiNS_15single_threadedEED0Ev:
 2470              	.LFB2580:
 2471              		.loc 1 1735 0
 2472              		.cfi_startproc
 2473              	.LVL197:
 2474 0000 7C0802A6 		mflr 0
 2475 0004 9421FFF8 		stwu 1,-8(1)
 2476              	.LCFI50:
 2477              		.cfi_def_cfa_offset 8
 2478              		.cfi_register 65, 0
 2479              	.LBB4608:
 2480              	.LBB4609:
 2481              	.LBB4610:
 2482              	.LBB4611:
 2483              	.LBB4612:
 2484              	.LBB4613:
 2485              		.loc 1 376 0
 2486 0008 3D200000 		lis 9,_ZTVN7sigslot17_connection_base2IiiNS_15single_threadedEEE+8@ha
 2487              	.LBE4613:
 2488              	.LBE4612:
 2489              	.LBE4611:
 2490              	.LBE4610:
 2491              	.LBE4609:
 2492              	.LBE4608:
 2493              		.loc 1 1735 0
 2494 000c 9001000C 		stw 0,12(1)
 2495              	.LBB4619:
 2496              	.LBB4618:
 2497              	.LBB4617:
 2498              	.LBB4616:
 2499              	.LBB4615:
 2500              	.LBB4614:
 2501              		.loc 1 376 0
 2502 0010 38090008 		la 0,_ZTVN7sigslot17_connection_base2IiiNS_15single_threadedEEE+8@l(9)
 2503              		.cfi_offset 65, 4
 2504 0014 90030000 		stw 0,0(3)
 2505              	.LBE4614:
 2506              	.LBE4615:
 2507              	.LBE4616:
 2508              	.LBE4617:
 2509              	.LBE4618:
 2510              	.LBE4619:
 2511              		.loc 1 1738 0
 2512 0018 48000001 		bl _ZdlPv
 2513              	.LVL198:
 2514 001c 8001000C 		lwz 0,12(1)
 2515 0020 38210008 		addi 1,1,8
 2516              	.LCFI51:
 2517              		.cfi_def_cfa_offset 0
 2518 0024 7C0803A6 		mtlr 0
 2519 0028 4E800020 		blr
 2520              		.cfi_endproc
 2521              	.LFE2580:
 2522              		.size	_ZN7sigslot12_connection2I8PlayListiiNS_15single_threadedEED0Ev, .-_ZN7sigslot12_connection2
 2523              		.section	.text._ZN7sigslot12_connection3I8PlayListP9GuiButtoniRK6_POINTNS_15single_threadedEED0Ev,
 2524              		.align 2
 2525              		.weak	_ZN7sigslot12_connection3I8PlayListP9GuiButtoniRK6_POINTNS_15single_threadedEED0Ev
 2526              		.type	_ZN7sigslot12_connection3I8PlayListP9GuiButtoniRK6_POINTNS_15single_threadedEED0Ev, @functio
 2527              	_ZN7sigslot12_connection3I8PlayListP9GuiButtoniRK6_POINTNS_15single_threadedEED0Ev:
 2528              	.LFB2566:
 2529              		.loc 1 1783 0
 2530              		.cfi_startproc
 2531              	.LVL199:
 2532 0000 7C0802A6 		mflr 0
 2533 0004 9421FFF8 		stwu 1,-8(1)
 2534              	.LCFI52:
 2535              		.cfi_def_cfa_offset 8
 2536              		.cfi_register 65, 0
 2537              	.LBB4620:
 2538              	.LBB4621:
 2539              	.LBB4622:
 2540              	.LBB4623:
 2541              	.LBB4624:
 2542              	.LBB4625:
 2543              		.loc 1 387 0
 2544 0008 3D200000 		lis 9,_ZTVN7sigslot17_connection_base3IP9GuiButtoniRK6_POINTNS_15single_threadedEEE+8@ha
 2545              	.LBE4625:
 2546              	.LBE4624:
 2547              	.LBE4623:
 2548              	.LBE4622:
 2549              	.LBE4621:
 2550              	.LBE4620:
 2551              		.loc 1 1783 0
 2552 000c 9001000C 		stw 0,12(1)
 2553              	.LBB4631:
 2554              	.LBB4630:
 2555              	.LBB4629:
 2556              	.LBB4628:
 2557              	.LBB4627:
 2558              	.LBB4626:
 2559              		.loc 1 387 0
 2560 0010 38090008 		la 0,_ZTVN7sigslot17_connection_base3IP9GuiButtoniRK6_POINTNS_15single_threadedEEE+8@l(9)
 2561              		.cfi_offset 65, 4
 2562 0014 90030000 		stw 0,0(3)
 2563              	.LBE4626:
 2564              	.LBE4627:
 2565              	.LBE4628:
 2566              	.LBE4629:
 2567              	.LBE4630:
 2568              	.LBE4631:
 2569              		.loc 1 1786 0
 2570 0018 48000001 		bl _ZdlPv
 2571              	.LVL200:
 2572 001c 8001000C 		lwz 0,12(1)
 2573 0020 38210008 		addi 1,1,8
 2574              	.LCFI53:
 2575              		.cfi_def_cfa_offset 0
 2576 0024 7C0803A6 		mtlr 0
 2577 0028 4E800020 		blr
 2578              		.cfi_endproc
 2579              	.LFE2566:
 2580              		.size	_ZN7sigslot12_connection3I8PlayListP9GuiButtoniRK6_POINTNS_15single_threadedEED0Ev, .-_ZN7si
 2581              		.section	.text._ZN7sigslot12_connection3I8PlayListP10GuiElementiiNS_15single_threadedEED0Ev,"axG",
 2582              		.align 2
 2583              		.weak	_ZN7sigslot12_connection3I8PlayListP10GuiElementiiNS_15single_threadedEED0Ev
 2584              		.type	_ZN7sigslot12_connection3I8PlayListP10GuiElementiiNS_15single_threadedEED0Ev, @function
 2585              	_ZN7sigslot12_connection3I8PlayListP10GuiElementiiNS_15single_threadedEED0Ev:
 2586              	.LFB2552:
 2587              		.loc 1 1783 0
 2588              		.cfi_startproc
 2589              	.LVL201:
 2590 0000 7C0802A6 		mflr 0
 2591 0004 9421FFF8 		stwu 1,-8(1)
 2592              	.LCFI54:
 2593              		.cfi_def_cfa_offset 8
 2594              		.cfi_register 65, 0
 2595              	.LBB4632:
 2596              	.LBB4633:
 2597              	.LBB4634:
 2598              	.LBB4635:
 2599              	.LBB4636:
 2600              	.LBB4637:
 2601              		.loc 1 387 0
 2602 0008 3D200000 		lis 9,_ZTVN7sigslot17_connection_base3IP10GuiElementiiNS_15single_threadedEEE+8@ha
 2603              	.LBE4637:
 2604              	.LBE4636:
 2605              	.LBE4635:
 2606              	.LBE4634:
 2607              	.LBE4633:
 2608              	.LBE4632:
 2609              		.loc 1 1783 0
 2610 000c 9001000C 		stw 0,12(1)
 2611              	.LBB4643:
 2612              	.LBB4642:
 2613              	.LBB4641:
 2614              	.LBB4640:
 2615              	.LBB4639:
 2616              	.LBB4638:
 2617              		.loc 1 387 0
 2618 0010 38090008 		la 0,_ZTVN7sigslot17_connection_base3IP10GuiElementiiNS_15single_threadedEEE+8@l(9)
 2619              		.cfi_offset 65, 4
 2620 0014 90030000 		stw 0,0(3)
 2621              	.LBE4638:
 2622              	.LBE4639:
 2623              	.LBE4640:
 2624              	.LBE4641:
 2625              	.LBE4642:
 2626              	.LBE4643:
 2627              		.loc 1 1786 0
 2628 0018 48000001 		bl _ZdlPv
 2629              	.LVL202:
 2630 001c 8001000C 		lwz 0,12(1)
 2631 0020 38210008 		addi 1,1,8
 2632              	.LCFI55:
 2633              		.cfi_def_cfa_offset 0
 2634 0024 7C0803A6 		mtlr 0
 2635 0028 4E800020 		blr
 2636              		.cfi_endproc
 2637              	.LFE2552:
 2638              		.size	_ZN7sigslot12_connection3I8PlayListP10GuiElementiiNS_15single_threadedEED0Ev, .-_ZN7sigslot1
 2639              		.section	.text._ZN7sigslot17_connection_base3IP10GuiElementiiNS_15single_threadedEED0Ev,"axG",@pro
 2640              		.align 2
 2641              		.weak	_ZN7sigslot17_connection_base3IP10GuiElementiiNS_15single_threadedEED0Ev
 2642              		.type	_ZN7sigslot17_connection_base3IP10GuiElementiiNS_15single_threadedEED0Ev, @function
 2643              	_ZN7sigslot17_connection_base3IP10GuiElementiiNS_15single_threadedEED0Ev:
 2644              	.LFB2067:
 2645              		.loc 1 387 0
 2646              		.cfi_startproc
 2647              	.LVL203:
 2648 0000 7C0802A6 		mflr 0
 2649 0004 9421FFF8 		stwu 1,-8(1)
 2650              	.LCFI56:
 2651              		.cfi_def_cfa_offset 8
 2652              		.cfi_register 65, 0
 2653              	.LBB4644:
 2654              	.LBB4645:
 2655              	.LBB4646:
 2656 0008 3D200000 		lis 9,_ZTVN7sigslot17_connection_base3IP10GuiElementiiNS_15single_threadedEEE+8@ha
 2657              	.LBE4646:
 2658              	.LBE4645:
 2659              	.LBE4644:
 2660 000c 9001000C 		stw 0,12(1)
 2661              	.LBB4649:
 2662              	.LBB4648:
 2663              	.LBB4647:
 2664              		.loc 1 387 0
 2665 0010 38090008 		la 0,_ZTVN7sigslot17_connection_base3IP10GuiElementiiNS_15single_threadedEEE+8@l(9)
 2666              		.cfi_offset 65, 4
 2667 0014 90030000 		stw 0,0(3)
 2668              	.LBE4647:
 2669              	.LBE4648:
 2670              	.LBE4649:
 2671 0018 48000001 		bl _ZdlPv
 2672              	.LVL204:
 2673 001c 8001000C 		lwz 0,12(1)
 2674 0020 38210008 		addi 1,1,8
 2675              	.LCFI57:
 2676              		.cfi_def_cfa_offset 0
 2677 0024 7C0803A6 		mtlr 0
 2678 0028 4E800020 		blr
 2679              		.cfi_endproc
 2680              	.LFE2067:
 2681              		.size	_ZN7sigslot17_connection_base3IP10GuiElementiiNS_15single_threadedEED0Ev, .-_ZN7sigslot17_co
 2682              		.section	.text._ZN7sigslot17_connection_base3IP9GuiButtoniRK6_POINTNS_15single_threadedEED0Ev,"axG
 2683              		.align 2
 2684              		.weak	_ZN7sigslot17_connection_base3IP9GuiButtoniRK6_POINTNS_15single_threadedEED0Ev
 2685              		.type	_ZN7sigslot17_connection_base3IP9GuiButtoniRK6_POINTNS_15single_threadedEED0Ev, @function
 2686              	_ZN7sigslot17_connection_base3IP9GuiButtoniRK6_POINTNS_15single_threadedEED0Ev:
 2687              	.LFB2037:
 2688              		.loc 1 387 0
 2689              		.cfi_startproc
 2690              	.LVL205:
 2691 0000 7C0802A6 		mflr 0
 2692 0004 9421FFF8 		stwu 1,-8(1)
 2693              	.LCFI58:
 2694              		.cfi_def_cfa_offset 8
 2695              		.cfi_register 65, 0
 2696              	.LBB4650:
 2697              	.LBB4651:
 2698              	.LBB4652:
 2699 0008 3D200000 		lis 9,_ZTVN7sigslot17_connection_base3IP9GuiButtoniRK6_POINTNS_15single_threadedEEE+8@ha
 2700              	.LBE4652:
 2701              	.LBE4651:
 2702              	.LBE4650:
 2703 000c 9001000C 		stw 0,12(1)
 2704              	.LBB4655:
 2705              	.LBB4654:
 2706              	.LBB4653:
 2707              		.loc 1 387 0
 2708 0010 38090008 		la 0,_ZTVN7sigslot17_connection_base3IP9GuiButtoniRK6_POINTNS_15single_threadedEEE+8@l(9)
 2709              		.cfi_offset 65, 4
 2710 0014 90030000 		stw 0,0(3)
 2711              	.LBE4653:
 2712              	.LBE4654:
 2713              	.LBE4655:
 2714 0018 48000001 		bl _ZdlPv
 2715              	.LVL206:
 2716 001c 8001000C 		lwz 0,12(1)
 2717 0020 38210008 		addi 1,1,8
 2718              	.LCFI59:
 2719              		.cfi_def_cfa_offset 0
 2720 0024 7C0803A6 		mtlr 0
 2721 0028 4E800020 		blr
 2722              		.cfi_endproc
 2723              	.LFE2037:
 2724              		.size	_ZN7sigslot17_connection_base3IP9GuiButtoniRK6_POINTNS_15single_threadedEED0Ev, .-_ZN7sigslo
 2725              		.section	.text._ZN7sigslot17_connection_base2IiiNS_15single_threadedEED0Ev,"axG",@progbits,_ZN7sig
 2726              		.align 2
 2727              		.weak	_ZN7sigslot17_connection_base2IiiNS_15single_threadedEED0Ev
 2728              		.type	_ZN7sigslot17_connection_base2IiiNS_15single_threadedEED0Ev, @function
 2729              	_ZN7sigslot17_connection_base2IiiNS_15single_threadedEED0Ev:
 2730              	.LFB2030:
 2731              		.loc 1 376 0
 2732              		.cfi_startproc
 2733              	.LVL207:
 2734 0000 7C0802A6 		mflr 0
 2735 0004 9421FFF8 		stwu 1,-8(1)
 2736              	.LCFI60:
 2737              		.cfi_def_cfa_offset 8
 2738              		.cfi_register 65, 0
 2739              	.LBB4656:
 2740              	.LBB4657:
 2741              	.LBB4658:
 2742 0008 3D200000 		lis 9,_ZTVN7sigslot17_connection_base2IiiNS_15single_threadedEEE+8@ha
 2743              	.LBE4658:
 2744              	.LBE4657:
 2745              	.LBE4656:
 2746 000c 9001000C 		stw 0,12(1)
 2747              	.LBB4661:
 2748              	.LBB4660:
 2749              	.LBB4659:
 2750              		.loc 1 376 0
 2751 0010 38090008 		la 0,_ZTVN7sigslot17_connection_base2IiiNS_15single_threadedEEE+8@l(9)
 2752              		.cfi_offset 65, 4
 2753 0014 90030000 		stw 0,0(3)
 2754              	.LBE4659:
 2755              	.LBE4660:
 2756              	.LBE4661:
 2757 0018 48000001 		bl _ZdlPv
 2758              	.LVL208:
 2759 001c 8001000C 		lwz 0,12(1)
 2760 0020 38210008 		addi 1,1,8
 2761              	.LCFI61:
 2762              		.cfi_def_cfa_offset 0
 2763 0024 7C0803A6 		mtlr 0
 2764 0028 4E800020 		blr
 2765              		.cfi_endproc
 2766              	.LFE2030:
 2767              		.size	_ZN7sigslot17_connection_base2IiiNS_15single_threadedEED0Ev, .-_ZN7sigslot17_connection_base
 2768              		.section	.text._ZN7sigslot12_signal_baseINS_15single_threadedEED0Ev,"axG",@progbits,_ZN7sigslot12_
 2769              		.align 2
 2770              		.weak	_ZN7sigslot12_signal_baseINS_15single_threadedEED0Ev
 2771              		.type	_ZN7sigslot12_signal_baseINS_15single_threadedEED0Ev, @function
 2772              	_ZN7sigslot12_signal_baseINS_15single_threadedEED0Ev:
 2773              	.LFB1740:
 2774              		.loc 1 466 0
 2775              		.cfi_startproc
 2776              	.LVL209:
 2777 0000 7C0802A6 		mflr 0
 2778 0004 9421FFF8 		stwu 1,-8(1)
 2779              	.LCFI62:
 2780              		.cfi_def_cfa_offset 8
 2781              		.cfi_register 65, 0
 2782              	.LBB4662:
 2783              	.LBB4663:
 2784              	.LBB4664:
 2785              	.LBB4665:
 2786              	.LBB4666:
 2787              	.LBB4667:
 2788              		.loc 1 105 0
 2789 0008 3D200000 		lis 9,_ZTVN7sigslot15single_threadedE+8@ha
 2790              	.LBE4667:
 2791              	.LBE4666:
 2792              	.LBE4665:
 2793              	.LBE4664:
 2794              	.LBE4663:
 2795              	.LBE4662:
 2796              		.loc 1 466 0
 2797 000c 9001000C 		stw 0,12(1)
 2798              	.LBB4673:
 2799              	.LBB4672:
 2800              	.LBB4671:
 2801              	.LBB4670:
 2802              	.LBB4669:
 2803              	.LBB4668:
 2804              		.loc 1 105 0
 2805 0010 38090008 		la 0,_ZTVN7sigslot15single_threadedE+8@l(9)
 2806              		.cfi_offset 65, 4
 2807 0014 90030000 		stw 0,0(3)
 2808              	.LBE4668:
 2809              	.LBE4669:
 2810              	.LBE4670:
 2811              	.LBE4671:
 2812              	.LBE4672:
 2813              	.LBE4673:
 2814              		.loc 1 466 0
 2815 0018 48000001 		bl _ZdlPv
 2816              	.LVL210:
 2817 001c 8001000C 		lwz 0,12(1)
 2818 0020 38210008 		addi 1,1,8
 2819              	.LCFI63:
 2820              		.cfi_def_cfa_offset 0
 2821 0024 7C0803A6 		mtlr 0
 2822 0028 4E800020 		blr
 2823              		.cfi_endproc
 2824              	.LFE1740:
 2825              		.size	_ZN7sigslot12_signal_baseINS_15single_threadedEED0Ev, .-_ZN7sigslot12_signal_baseINS_15singl
 2826              		.section	.text._ZN7sigslot15single_threadedD0Ev,"axG",@progbits,_ZN7sigslot15single_threadedD5Ev,c
 2827              		.align 2
 2828              		.weak	_ZN7sigslot15single_threadedD0Ev
 2829              		.type	_ZN7sigslot15single_threadedD0Ev, @function
 2830              	_ZN7sigslot15single_threadedD0Ev:
 2831              	.LFB1150:
 2832              		.loc 1 104 0
 2833              		.cfi_startproc
 2834              	.LVL211:
 2835 0000 7C0802A6 		mflr 0
 2836 0004 9421FFF8 		stwu 1,-8(1)
 2837              	.LCFI64:
 2838              		.cfi_def_cfa_offset 8
 2839              		.cfi_register 65, 0
 2840              	.LBB4674:
 2841              	.LBB4675:
 2842              	.LBB4676:
 2843              		.loc 1 105 0
 2844 0008 3D200000 		lis 9,_ZTVN7sigslot15single_threadedE+8@ha
 2845              	.LBE4676:
 2846              	.LBE4675:
 2847              	.LBE4674:
 2848              		.loc 1 104 0
 2849 000c 9001000C 		stw 0,12(1)
 2850              	.LBB4679:
 2851              	.LBB4678:
 2852              	.LBB4677:
 2853              		.loc 1 105 0
 2854 0010 38090008 		la 0,_ZTVN7sigslot15single_threadedE+8@l(9)
 2855              		.cfi_offset 65, 4
 2856 0014 90030000 		stw 0,0(3)
 2857              	.LBE4677:
 2858              	.LBE4678:
 2859              	.LBE4679:
 2860              		.loc 1 107 0
 2861 0018 48000001 		bl _ZdlPv
 2862              	.LVL212:
 2863 001c 8001000C 		lwz 0,12(1)
 2864 0020 38210008 		addi 1,1,8
 2865              	.LCFI65:
 2866              		.cfi_def_cfa_offset 0
 2867 0024 7C0803A6 		mtlr 0
 2868 0028 4E800020 		blr
 2869              		.cfi_endproc
 2870              	.LFE1150:
 2871              		.size	_ZN7sigslot15single_threadedD0Ev, .-_ZN7sigslot15single_threadedD0Ev
 2872              		.section	.text._ZN7sigslot13_signal_base2IP8PlayListiNS_15single_threadedEE15slot_disconnectEPNS_9
 2873              		.align 2
 2874              		.weak	_ZN7sigslot13_signal_base2IP8PlayListiNS_15single_threadedEE15slot_disconnectEPNS_9has_slots
 2875              		.type	_ZN7sigslot13_signal_base2IP8PlayListiNS_15single_threadedEE15slot_disconnectEPNS_9has_slots
 2876              	_ZN7sigslot13_signal_base2IP8PlayListiNS_15single_threadedEE15slot_disconnectEPNS_9has_slotsIS3_EE:
 2877              	.LFB2591:
 2878              		.loc 1 870 0
 2879              		.cfi_startproc
 2880              		.cfi_personality 0,__gxx_personality_v0
 2881              		.cfi_lsda 0,.LLSDA2591
 2882              	.LVL213:
 2883 0000 7C0802A6 		mflr 0
 2884 0004 9421FFE0 		stwu 1,-32(1)
 2885              	.LCFI66:
 2886              		.cfi_def_cfa_offset 32
 2887              		.cfi_register 65, 0
 2888 0008 9361000C 		stw 27,12(1)
 2889 000c 7C7B1B78 		mr 27,3
 2890              		.cfi_offset 27, -20
 2891              	.LVL214:
 2892 0010 90010024 		stw 0,36(1)
 2893 0014 93810010 		stw 28,16(1)
 2894 0018 7C9C2378 		mr 28,4
 2895              		.cfi_offset 28, -16
 2896              		.cfi_offset 65, 4
 2897              	.LBB4680:
 2898              	.LBB4681:
 2899              	.LBB4682:
 2900              		.loc 1 338 0
 2901 001c 81230000 		lwz 9,0(3)
 2902              	.LBE4682:
 2903              	.LBE4681:
 2904              	.LBE4680:
 2905              		.loc 1 870 0
 2906 0020 93A10014 		stw 29,20(1)
 2907              	.LBB4703:
 2908              	.LBB4685:
 2909              	.LBB4683:
 2910              		.loc 4 503 0
 2911 0024 7F7DDB78 		mr 29,27
 2912              		.cfi_offset 29, -12
 2913              		.loc 1 338 0
 2914 0028 80090008 		lwz 0,8(9)
 2915              	.LBE4683:
 2916              	.LBE4685:
 2917              	.LBE4703:
 2918              		.loc 1 870 0
 2919 002c 93E1001C 		stw 31,28(1)
 2920 0030 93C10018 		stw 30,24(1)
 2921              	.LBB4704:
 2922              	.LBB4686:
 2923              	.LBB4684:
 2924              		.loc 1 338 0
 2925 0034 7C0903A6 		mtctr 0
 2926              	.LEHB8:
 2927              		.cfi_offset 30, -8
 2928              		.cfi_offset 31, -4
 2929 0038 4E800421 		bctrl
 2930              	.LEHE8:
 2931              	.LVL215:
 2932              		.loc 4 503 0
 2933 003c 87FD0004 		lwzu 31,4(29)
 2934              	.LVL216:
 2935              	.LBE4684:
 2936              	.LBE4686:
 2937              		.loc 1 876 0
 2938 0040 7F9FE800 		cmpw 7,31,29
 2939 0044 40BE0014 		bne+ 7,.L181
 2940 0048 48000064 		b .L170
 2941              	.LVL217:
 2942              	.L171:
 2943              		.loc 1 876 0 is_stmt 0 discriminator 1
 2944 004c 7F9DF000 		cmpw 7,29,30
 2945 0050 419E005C 		beq- 7,.L170
 2946              	.L179:
 2947              		.loc 1 876 0
 2948 0054 7FDFF378 		mr 31,30
 2949              	.LVL218:
 2950              	.L181:
 2951              	.LBB4687:
 2952              		.loc 1 881 0 is_stmt 1
 2953 0058 807F0008 		lwz 3,8(31)
 2954              	.LBB4688:
 2955              	.LBB4689:
 2956              		.loc 6 154 0
 2957 005c 83DF0000 		lwz 30,0(31)
 2958              	.LVL219:
 2959              	.LBE4689:
 2960              	.LBE4688:
 2961              		.loc 1 881 0
 2962 0060 81230000 		lwz 9,0(3)
 2963 0064 80090008 		lwz 0,8(9)
 2964 0068 7C0903A6 		mtctr 0
 2965              	.LEHB9:
 2966 006c 4E800421 		bctrl
 2967              	.LVL220:
 2968 0070 7F9C1800 		cmpw 7,28,3
 2969 0074 409EFFD8 		bne+ 7,.L171
 2970              	.LVL221:
 2971              		.loc 1 883 0
 2972 0078 807F0008 		lwz 3,8(31)
 2973 007c 2F830000 		cmpwi 7,3,0
 2974 0080 419E0014 		beq- 7,.L172
 2975              		.loc 1 883 0 is_stmt 0 discriminator 1
 2976 0084 81230000 		lwz 9,0(3)
 2977 0088 80090004 		lwz 0,4(9)
 2978 008c 7C0903A6 		mtctr 0
 2979 0090 4E800421 		bctrl
 2980              	.LEHE9:
 2981              	.L172:
 2982              	.LVL222:
 2983              	.LBB4690:
 2984              	.LBB4691:
 2985              	.LBB4692:
 2986              	.LBB4693:
 2987              		.loc 6 1532 0 is_stmt 1
 2988 0094 7FE3FB78 		mr 3,31
 2989 0098 48000001 		bl _ZNSt8__detail15_List_node_base9_M_unhookEv
 2990              	.LVL223:
 2991              	.LBB4694:
 2992              	.LBB4695:
 2993              	.LBB4696:
 2994              		.loc 7 98 0
 2995 009c 7FE3FB78 		mr 3,31
 2996 00a0 48000001 		bl _ZdlPv
 2997              	.LVL224:
 2998              	.LBE4696:
 2999              	.LBE4695:
 3000              	.LBE4694:
 3001              	.LBE4693:
 3002              	.LBE4692:
 3003              	.LBE4691:
 3004              	.LBE4690:
 3005              	.LBE4687:
 3006              		.loc 1 876 0
 3007 00a4 7F9DF000 		cmpw 7,29,30
 3008 00a8 409EFFAC 		bne+ 7,.L179
 3009              	.LVL225:
 3010              	.L170:
 3011              	.LBB4697:
 3012              	.LBB4698:
 3013              	.LBB4699:
 3014              		.loc 1 343 0
 3015 00ac 813B0000 		lwz 9,0(27)
 3016 00b0 7F63DB78 		mr 3,27
 3017 00b4 8009000C 		lwz 0,12(9)
 3018 00b8 7C0903A6 		mtctr 0
 3019              	.LEHB10:
 3020 00bc 4E800421 		bctrl
 3021              	.LEHE10:
 3022              	.LBE4699:
 3023              	.LBE4698:
 3024              	.LBE4697:
 3025              	.LBE4704:
 3026              		.loc 1 890 0
 3027 00c0 80010024 		lwz 0,36(1)
 3028 00c4 8361000C 		lwz 27,12(1)
 3029              	.LVL226:
 3030 00c8 7C0803A6 		mtlr 0
 3031 00cc 83810010 		lwz 28,16(1)
 3032              	.LVL227:
 3033 00d0 83A10014 		lwz 29,20(1)
 3034              	.LVL228:
 3035 00d4 83C10018 		lwz 30,24(1)
 3036 00d8 83E1001C 		lwz 31,28(1)
 3037 00dc 38210020 		addi 1,1,32
 3038              		.cfi_remember_state
 3039              	.LCFI67:
 3040              		.cfi_def_cfa_offset 0
 3041              		.cfi_restore 31
 3042              		.cfi_restore 30
 3043              		.cfi_restore 29
 3044              		.cfi_restore 28
 3045              		.cfi_restore 27
 3046 00e0 4E800020 		blr
 3047              	.LVL229:
 3048              	.L180:
 3049              	.LCFI68:
 3050              		.cfi_restore_state
 3051              	.LBB4705:
 3052              	.LBB4700:
 3053              	.LBB4701:
 3054              	.LBB4702:
 3055              		.loc 1 343 0
 3056 00e4 813B0000 		lwz 9,0(27)
 3057 00e8 7C7F1B78 		mr 31,3
 3058              	.LVL230:
 3059 00ec 7F63DB78 		mr 3,27
 3060 00f0 8009000C 		lwz 0,12(9)
 3061 00f4 7C0903A6 		mtctr 0
 3062 00f8 4E800421 		bctrl
 3063 00fc 7FE3FB78 		mr 3,31
 3064              	.LEHB11:
 3065 0100 48000001 		bl _Unwind_Resume
 3066              	.LEHE11:
 3067              	.LBE4702:
 3068              	.LBE4701:
 3069              	.LBE4700:
 3070              	.LBE4705:
 3071              		.cfi_endproc
 3072              	.LFE2591:
 3073              		.section	.gcc_except_table
 3074              	.LLSDA2591:
 3075 0030 FF       		.byte	0xff
 3076 0031 FF       		.byte	0xff
 3077 0032 01       		.byte	0x1
 3078 0033 13       		.uleb128 .LLSDACSE2591-.LLSDACSB2591
 3079              	.LLSDACSB2591:
 3080 0034 38       		.uleb128 .LEHB8-.LFB2591
 3081 0035 04       		.uleb128 .LEHE8-.LEHB8
 3082 0036 00       		.uleb128 0
 3083 0037 00       		.uleb128 0
 3084 0038 6C       		.uleb128 .LEHB9-.LFB2591
 3085 0039 28       		.uleb128 .LEHE9-.LEHB9
 3086 003a E401     		.uleb128 .L180-.LFB2591
 3087 003c 00       		.uleb128 0
 3088 003d BC01     		.uleb128 .LEHB10-.LFB2591
 3089 003f 04       		.uleb128 .LEHE10-.LEHB10
 3090 0040 00       		.uleb128 0
 3091 0041 00       		.uleb128 0
 3092 0042 8002     		.uleb128 .LEHB11-.LFB2591
 3093 0044 04       		.uleb128 .LEHE11-.LEHB11
 3094 0045 00       		.uleb128 0
 3095 0046 00       		.uleb128 0
 3096              	.LLSDACSE2591:
 3097              		.section	.text._ZN7sigslot13_signal_base2IP8PlayListiNS_15single_threadedEE15slot_disconnectEPNS_9
 3098              		.size	_ZN7sigslot13_signal_base2IP8PlayListiNS_15single_threadedEE15slot_disconnectEPNS_9has_slots
 3099              		.section	".text"
 3100              		.align 2
 3101              		.globl _ZN8PlayList12OnListChangeEii
 3102              		.type	_ZN8PlayList12OnListChangeEii, @function
 3103              	_ZN8PlayList12OnListChangeEii:
 3104              	.LFB1612:
 3105              		.loc 4 406 0
 3106              		.cfi_startproc
 3107              	.LVL231:
 3108 0134 7C0802A6 		mflr 0
 3109 0138 9421FFE8 		stwu 1,-24(1)
 3110              	.LCFI69:
 3111              		.cfi_def_cfa_offset 24
 3112              		.cfi_register 65, 0
 3113 013c 93E10014 		stw 31,20(1)
 3114 0140 7C7F1B78 		mr 31,3
 3115              		.cfi_offset 31, -4
 3116 0144 9001001C 		stw 0,28(1)
 3117 0148 93A1000C 		stw 29,12(1)
 3118              	.LBB4706:
 3119              		.loc 4 410 0
 3120 014c 880300E1 		lbz 0,225(3)
 3121              		.cfi_offset 29, -12
 3122              		.cfi_offset 65, 4
 3123              	.LBE4706:
 3124              		.loc 4 406 0
 3125 0150 93C10010 		stw 30,16(1)
 3126              	.LBB4738:
 3127              		.loc 4 410 0
 3128 0154 2F800000 		cmpwi 7,0,0
 3129              		.loc 4 407 0
 3130 0158 908300DC 		stw 4,220(3)
 3131              		.loc 4 408 0
 3132 015c 90A300D8 		stw 5,216(3)
 3133              		.loc 4 410 0
 3134 0160 419E001C 		beq- 7,.L183
 3135              		.cfi_offset 30, -8
 3136              	.LBB4707:
 3137              	.LBB4708:
 3138              		.loc 5 571 0 discriminator 1
 3139 0164 816300E8 		lwz 11,232(3)
 3140 0168 800300E4 		lwz 0,228(3)
 3141 016c 7D605850 		subf 11,0,11
 3142 0170 7D6B1670 		srawi 11,11,2
 3143              	.LBE4708:
 3144              	.LBE4707:
 3145              		.loc 4 410 0 discriminator 1
 3146 0174 2B8B0008 		cmplwi 7,11,8
 3147 0178 419D012C 		bgt- 7,.L194
 3148              	.LVL232:
 3149              	.L183:
 3150              		.loc 4 412 0 discriminator 1
 3151 017c 3BA00000 		li 29,0
 3152 0180 3BC00000 		li 30,0
 3153 0184 48000084 		b .L185
 3154              	.LVL233:
 3155              	.L197:
 3156              	.LBB4709:
 3157              	.LBB4710:
 3158              	.LBB4711:
 3159              	.LBB4712:
 3160              		.loc 4 423 0
 3161 0188 80090054 		lwz 0,84(9)
 3162 018c 7C0903A6 		mtctr 0
 3163 0190 4E800421 		bctrl
 3164 0194 2F830004 		cmpwi 7,3,4
 3165 0198 419E0144 		beq- 7,.L195
 3166              	.L189:
 3167              	.LVL234:
 3168              		.loc 4 426 0
 3169 019c 813F00F0 		lwz 9,240(31)
 3170 01a0 38800001 		li 4,1
 3171 01a4 7C69E82E 		lwzx 3,9,29
 3172 01a8 81230000 		lwz 9,0(3)
 3173 01ac 80090030 		lwz 0,48(9)
 3174 01b0 7C0903A6 		mtctr 0
 3175 01b4 4E800421 		bctrl
 3176              	.LVL235:
 3177              	.LBB4713:
 3178              	.LBB4714:
 3179              		.loc 5 696 0
 3180 01b8 801F00D8 		lwz 0,216(31)
 3181              	.LBE4714:
 3182              	.LBE4713:
 3183              		.loc 4 428 0
 3184 01bc 813F00E4 		lwz 9,228(31)
 3185 01c0 3880002F 		li 4,47
 3186              	.LBB4716:
 3187              	.LBB4715:
 3188              		.loc 5 696 0
 3189 01c4 7C1E0214 		add 0,30,0
 3190              	.LBE4715:
 3191              	.LBE4716:
 3192              		.loc 4 428 0
 3193 01c8 5400103A 		slwi 0,0,2
 3194 01cc 7C69002E 		lwzx 3,9,0
 3195 01d0 48000001 		bl strrchr
 3196              	.LVL236:
 3197              		.loc 4 429 0
 3198 01d4 7C641B79 		mr. 4,3
 3199 01d8 41820008 		beq- 0,.L190
 3200              		.loc 4 430 0
 3201 01dc 38840001 		addi 4,4,1
 3202              	.LVL237:
 3203              	.L190:
 3204              		.loc 4 432 0
 3205 01e0 813F00FC 		lwz 9,252(31)
 3206 01e4 7C69E82E 		lwzx 3,9,29
 3207 01e8 81230000 		lwz 9,0(3)
 3208 01ec 800900C8 		lwz 0,200(9)
 3209 01f0 7C0903A6 		mtctr 0
 3210 01f4 4E800421 		bctrl
 3211              	.LVL238:
 3212              	.L187:
 3213              	.LBE4712:
 3214              	.LBE4711:
 3215              	.LBE4710:
 3216              		.loc 4 416 0
 3217 01f8 2F9E0007 		cmpwi 7,30,7
 3218 01fc 3BBD0004 		addi 29,29,4
 3219 0200 3BDE0001 		addi 30,30,1
 3220              	.LVL239:
 3221 0204 419E0084 		beq- 7,.L196
 3222              	.LVL240:
 3223              	.L185:
 3224              	.LBE4709:
 3225              		.loc 4 503 0
 3226 0208 813F00F0 		lwz 9,240(31)
 3227              	.LBB4736:
 3228              	.LBB4733:
 3229              	.LBB4728:
 3230              	.LBB4729:
 3231              		.loc 5 571 0
 3232 020c 801F00F4 		lwz 0,244(31)
 3233 0210 7C090050 		subf 0,9,0
 3234 0214 7C001670 		srawi 0,0,2
 3235              	.LBE4729:
 3236              	.LBE4728:
 3237              		.loc 4 418 0
 3238 0218 7F9E0000 		cmpw 7,30,0
 3239 021c 40BCFFDC 		bge- 7,.L187
 3240              	.LBB4730:
 3241              	.LBB4717:
 3242              	.LBB4718:
 3243              		.loc 5 571 0
 3244 0220 815F00E8 		lwz 10,232(31)
 3245              	.LBE4718:
 3246              	.LBE4717:
 3247              		.loc 4 436 0
 3248 0224 38800000 		li 4,0
 3249              	.LBB4722:
 3250              	.LBB4719:
 3251              		.loc 5 571 0
 3252 0228 801F00E4 		lwz 0,228(31)
 3253              	.LBE4719:
 3254              	.LBE4722:
 3255              		.loc 4 421 0
 3256 022c 817F00D8 		lwz 11,216(31)
 3257              	.LBB4723:
 3258              	.LBB4720:
 3259              		.loc 5 571 0
 3260 0230 7C005050 		subf 0,0,10
 3261              	.LBE4720:
 3262              	.LBE4723:
 3263              	.LBB4724:
 3264              		.loc 4 423 0
 3265 0234 7C69E82E 		lwzx 3,9,29
 3266              	.LBE4724:
 3267              		.loc 4 421 0
 3268 0238 7D7E5A14 		add 11,30,11
 3269              	.LBB4725:
 3270              	.LBB4721:
 3271              		.loc 5 571 0
 3272 023c 7C001670 		srawi 0,0,2
 3273              	.LBE4721:
 3274              	.LBE4725:
 3275              		.loc 4 421 0
 3276 0240 7F8B0000 		cmpw 7,11,0
 3277              	.LBB4726:
 3278              		.loc 4 423 0
 3279 0244 81230000 		lwz 9,0(3)
 3280              	.LBE4726:
 3281              		.loc 4 421 0
 3282 0248 41BCFF40 		blt- 7,.L197
 3283              	.LVL241:
 3284              		.loc 4 436 0
 3285 024c 80090030 		lwz 0,48(9)
 3286 0250 7C0903A6 		mtctr 0
 3287 0254 4E800421 		bctrl
 3288              	.LVL242:
 3289              		.loc 4 437 0
 3290 0258 813F00F0 		lwz 9,240(31)
 3291 025c 38800004 		li 4,4
 3292 0260 38A0FFFF 		li 5,-1
 3293 0264 7C69E82E 		lwzx 3,9,29
 3294              	.LBE4730:
 3295              	.LBE4733:
 3296              		.loc 4 416 0
 3297 0268 3BBD0004 		addi 29,29,4
 3298              	.LBB4734:
 3299              	.LBB4731:
 3300              		.loc 4 437 0
 3301 026c 81230000 		lwz 9,0(3)
 3302 0270 80090050 		lwz 0,80(9)
 3303 0274 7C0903A6 		mtctr 0
 3304 0278 4E800421 		bctrl
 3305              	.LVL243:
 3306              	.LBE4731:
 3307              	.LBE4734:
 3308              		.loc 4 416 0
 3309 027c 2F9E0007 		cmpwi 7,30,7
 3310 0280 3BDE0001 		addi 30,30,1
 3311              	.LVL244:
 3312 0284 409EFF84 		bne+ 7,.L185
 3313              	.LVL245:
 3314              	.L196:
 3315              	.LBE4736:
 3316              	.LBE4738:
 3317              		.loc 4 440 0
 3318 0288 8001001C 		lwz 0,28(1)
 3319 028c 83A1000C 		lwz 29,12(1)
 3320 0290 7C0803A6 		mtlr 0
 3321 0294 83C10010 		lwz 30,16(1)
 3322              	.LVL246:
 3323 0298 83E10014 		lwz 31,20(1)
 3324              	.LVL247:
 3325 029c 38210018 		addi 1,1,24
 3326              		.cfi_remember_state
 3327              	.LCFI70:
 3328              		.cfi_def_cfa_offset 0
 3329              		.cfi_restore 31
 3330              		.cfi_restore 30
 3331              		.cfi_restore 29
 3332 02a0 4E800020 		blr
 3333              	.LVL248:
 3334              	.L194:
 3335              	.LCFI71:
 3336              		.cfi_restore_state
 3337              	.LBB4739:
 3338              		.loc 4 412 0 discriminator 1
 3339 02a4 38050007 		addi 0,5,7
 3340 02a8 7CA92B78 		mr 9,5
 3341 02ac 7F805800 		cmpw 7,0,11
 3342 02b0 41BCFECC 		blt- 7,.L183
 3343              	.L191:
 3344              		.loc 4 412 0 is_stmt 0
 3345 02b4 3929FFFF 		addi 9,9,-1
 3346              		.loc 4 405 0 is_stmt 1
 3347 02b8 38090007 		addi 0,9,7
 3348              		.loc 4 412 0
 3349 02bc 7F8B0000 		cmpw 7,11,0
 3350 02c0 409DFFF4 		ble+ 7,.L191
 3351              		.loc 4 405 0
 3352 02c4 2005FFF9 		subfic 0,5,-7
 3353 02c8 38A5FFFF 		addi 5,5,-1
 3354              	.LVL249:
 3355 02cc 7D605A14 		add 11,0,11
 3356              		.loc 4 412 0
 3357 02d0 7D655A14 		add 11,5,11
 3358 02d4 917F00D8 		stw 11,216(31)
 3359 02d8 4BFFFEA4 		b .L183
 3360              	.LVL250:
 3361              	.L195:
 3362              	.LBB4737:
 3363              	.LBB4735:
 3364              	.LBB4732:
 3365              	.LBB4727:
 3366              		.loc 4 424 0
 3367 02dc 813F00F0 		lwz 9,240(31)
 3368 02e0 38A0FFFF 		li 5,-1
 3369 02e4 38800000 		li 4,0
 3370 02e8 7C69E82E 		lwzx 3,9,29
 3371 02ec 81230000 		lwz 9,0(3)
 3372 02f0 80090050 		lwz 0,80(9)
 3373 02f4 7C0903A6 		mtctr 0
 3374 02f8 4E800421 		bctrl
 3375 02fc 4BFFFEA0 		b .L189
 3376              	.LBE4727:
 3377              	.LBE4732:
 3378              	.LBE4735:
 3379              	.LBE4737:
 3380              	.LBE4739:
 3381              		.cfi_endproc
 3382              	.LFE1612:
 3383              		.size	_ZN8PlayList12OnListChangeEii, .-_ZN8PlayList12OnListChangeEii
 3384              		.align 2
 3385              		.globl _ZN8PlayList4DrawEv
 3386              		.type	_ZN8PlayList4DrawEv, @function
 3387              	_ZN8PlayList4DrawEv:
 3388              	.LFB1613:
 3389              		.loc 4 443 0
 3390              		.cfi_startproc
 3391              	.LVL251:
 3392 0300 7C0802A6 		mflr 0
 3393 0304 9421FFF0 		stwu 1,-16(1)
 3394              	.LCFI72:
 3395              		.cfi_def_cfa_offset 16
 3396              		.cfi_register 65, 0
 3397 0308 93C10008 		stw 30,8(1)
 3398 030c 7C7E1B78 		mr 30,3
 3399              		.cfi_offset 30, -8
 3400 0310 90010014 		stw 0,20(1)
 3401 0314 93E1000C 		stw 31,12(1)
 3402              	.LBB4750:
 3403              		.loc 4 444 0
 3404 0318 81230000 		lwz 9,0(3)
 3405 031c 80090034 		lwz 0,52(9)
 3406              		.cfi_offset 31, -4
 3407              		.cfi_offset 65, 4
 3408 0320 7C0903A6 		mtctr 0
 3409 0324 4E800421 		bctrl
 3410              	.LVL252:
 3411 0328 2F830000 		cmpwi 7,3,0
 3412 032c 409E001C 		bne- 7,.L202
 3413              	.L198:
 3414              	.LBE4750:
 3415              		.loc 4 457 0
 3416 0330 80010014 		lwz 0,20(1)
 3417 0334 83C10008 		lwz 30,8(1)
 3418              	.LVL253:
 3419 0338 7C0803A6 		mtlr 0
 3420 033c 83E1000C 		lwz 31,12(1)
 3421 0340 38210010 		addi 1,1,16
 3422              		.cfi_remember_state
 3423              	.LCFI73:
 3424              		.cfi_def_cfa_offset 0
 3425              		.cfi_restore 31
 3426              		.cfi_restore 30
 3427 0344 4E800020 		blr
 3428              	.LVL254:
 3429              	.L202:
 3430              	.LCFI74:
 3431              		.cfi_restore_state
 3432              	.LBB4751:
 3433              		.loc 4 447 0
 3434 0348 807E0120 		lwz 3,288(30)
 3435 034c 81230000 		lwz 9,0(3)
 3436 0350 800900C0 		lwz 0,192(9)
 3437 0354 7C0903A6 		mtctr 0
 3438 0358 4E800421 		bctrl
 3439              		.loc 4 448 0
 3440 035c 807E012C 		lwz 3,300(30)
 3441 0360 81230000 		lwz 9,0(3)
 3442 0364 800900C0 		lwz 0,192(9)
 3443 0368 7C0903A6 		mtctr 0
 3444 036c 4E800421 		bctrl
 3445              		.loc 4 450 0
 3446 0370 881E00E0 		lbz 0,224(30)
 3447 0374 2F800000 		cmpwi 7,0,0
 3448 0378 40BEFFB8 		bne- 7,.L198
 3449              	.LVL255:
 3450              	.LBE4751:
 3451              	.LBB4752:
 3452              		.loc 4 503 0
 3453 037c 813E00F0 		lwz 9,240(30)
 3454              	.LBB4753:
 3455              	.LBB4754:
 3456              	.LBB4755:
 3457              		.loc 5 571 0
 3458 0380 801E00F4 		lwz 0,244(30)
 3459 0384 7C090050 		subf 0,9,0
 3460              	.LBE4755:
 3461              	.LBE4754:
 3462              		.loc 4 453 0
 3463 0388 540BF0BF 		srwi. 11,0,2
 3464 038c 41A2FFA4 		beq- 0,.L198
 3465 0390 3BE00000 		li 31,0
 3466              	.LVL256:
 3467              	.L200:
 3468              		.loc 4 455 0
 3469 0394 57E0103A 		slwi 0,31,2
 3470              		.loc 4 453 0
 3471 0398 3BFF0001 		addi 31,31,1
 3472              	.LVL257:
 3473              		.loc 4 455 0
 3474 039c 7C69002E 		lwzx 3,9,0
 3475 03a0 81230000 		lwz 9,0(3)
 3476 03a4 800900C0 		lwz 0,192(9)
 3477 03a8 7C0903A6 		mtctr 0
 3478 03ac 4E800421 		bctrl
 3479              	.LVL258:
 3480              	.LBE4753:
 3481              		.loc 4 503 0
 3482 03b0 813E00F0 		lwz 9,240(30)
 3483              	.LBB4758:
 3484              	.LBB4757:
 3485              	.LBB4756:
 3486              		.loc 5 571 0
 3487 03b4 801E00F4 		lwz 0,244(30)
 3488 03b8 7C090050 		subf 0,9,0
 3489 03bc 7C001670 		srawi 0,0,2
 3490              	.LBE4756:
 3491              	.LBE4757:
 3492              		.loc 4 453 0
 3493 03c0 7F9F0040 		cmplw 7,31,0
 3494 03c4 419CFFD0 		blt+ 7,.L200
 3495              	.LBE4758:
 3496              	.LBE4752:
 3497              		.loc 4 457 0
 3498 03c8 80010014 		lwz 0,20(1)
 3499 03cc 83C10008 		lwz 30,8(1)
 3500              	.LVL259:
 3501 03d0 7C0803A6 		mtlr 0
 3502 03d4 83E1000C 		lwz 31,12(1)
 3503              	.LVL260:
 3504 03d8 38210010 		addi 1,1,16
 3505              		.cfi_restore 30
 3506              		.cfi_restore 31
 3507              	.LCFI75:
 3508              		.cfi_def_cfa_offset 0
 3509 03dc 4E800020 		blr
 3510              		.cfi_endproc
 3511              	.LFE1613:
 3512              		.size	_ZN8PlayList4DrawEv, .-_ZN8PlayList4DrawEv
 3513              		.align 2
 3514              		.globl _ZN8PlayList6UpdateEP10GuiTrigger
 3515              		.type	_ZN8PlayList6UpdateEP10GuiTrigger, @function
 3516              	_ZN8PlayList6UpdateEP10GuiTrigger:
 3517              	.LFB1614:
 3518              		.loc 4 460 0
 3519              		.cfi_startproc
 3520              	.LVL261:
 3521 03e0 7C0802A6 		mflr 0
 3522 03e4 9421FFD8 		stwu 1,-40(1)
 3523              	.LCFI76:
 3524              		.cfi_def_cfa_offset 40
 3525              		.cfi_register 65, 0
 3526 03e8 93810018 		stw 28,24(1)
 3527 03ec 7C9C2378 		mr 28,4
 3528              		.cfi_offset 28, -16
 3529 03f0 9001002C 		stw 0,44(1)
 3530 03f4 93E10024 		stw 31,36(1)
 3531 03f8 7C7F1B78 		mr 31,3
 3532              		.cfi_offset 31, -4
 3533              		.cfi_offset 65, 4
 3534              	.LBB4789:
 3535              		.loc 4 461 0
 3536 03fc 81230000 		lwz 9,0(3)
 3537              	.LBE4789:
 3538              		.loc 4 460 0
 3539 0400 93610014 		stw 27,20(1)
 3540              	.LBB4790:
 3541              		.loc 4 461 0
 3542 0404 80090034 		lwz 0,52(9)
 3543              	.LBE4790:
 3544              		.loc 4 460 0
 3545 0408 93A1001C 		stw 29,28(1)
 3546 040c 93C10020 		stw 30,32(1)
 3547              	.LBB4791:
 3548              		.loc 4 461 0
 3549 0410 7C0903A6 		mtctr 0
 3550              		.cfi_offset 30, -8
 3551              		.cfi_offset 29, -12
 3552              		.cfi_offset 27, -20
 3553 0414 4E800421 		bctrl
 3554              	.LVL262:
 3555 0418 2F830000 		cmpwi 7,3,0
 3556 041c 409E0028 		bne- 7,.L219
 3557              	.LBE4791:
 3558              		.loc 4 503 0
 3559 0420 8001002C 		lwz 0,44(1)
 3560 0424 83610014 		lwz 27,20(1)
 3561 0428 7C0803A6 		mtlr 0
 3562 042c 83810018 		lwz 28,24(1)
 3563              	.LVL263:
 3564 0430 83A1001C 		lwz 29,28(1)
 3565 0434 83C10020 		lwz 30,32(1)
 3566 0438 83E10024 		lwz 31,36(1)
 3567              	.LVL264:
 3568 043c 38210028 		addi 1,1,40
 3569              		.cfi_remember_state
 3570              	.LCFI77:
 3571              		.cfi_def_cfa_offset 0
 3572              		.cfi_restore 31
 3573              		.cfi_restore 30
 3574              		.cfi_restore 29
 3575              		.cfi_restore 28
 3576              		.cfi_restore 27
 3577 0440 4E800020 		blr
 3578              	.LVL265:
 3579              	.L219:
 3580              	.LCFI78:
 3581              		.cfi_restore_state
 3582              	.LBB4792:
 3583              	.LBB4793:
 3584              		.loc 4 464 0
 3585 0444 807F0114 		lwz 3,276(31)
 3586 0448 7F84E378 		mr 4,28
 3587 044c 81230000 		lwz 9,0(3)
 3588 0450 800900BC 		lwz 0,188(9)
 3589 0454 7C0903A6 		mtctr 0
 3590 0458 4E800421 		bctrl
 3591              		.loc 4 465 0
 3592 045c 807F012C 		lwz 3,300(31)
 3593 0460 7F84E378 		mr 4,28
 3594 0464 81230000 		lwz 9,0(3)
 3595 0468 800900BC 		lwz 0,188(9)
 3596 046c 7C0903A6 		mtctr 0
 3597 0470 4E800421 		bctrl
 3598              		.loc 4 467 0
 3599 0474 881F00E1 		lbz 0,225(31)
 3600 0478 2F800000 		cmpwi 7,0,0
 3601 047c 419E0054 		beq- 7,.L205
 3602              	.LBB4794:
 3603              	.LBB4795:
 3604              		.loc 5 571 0
 3605 0480 817F00E8 		lwz 11,232(31)
 3606 0484 801F00E4 		lwz 0,228(31)
 3607 0488 7D605850 		subf 11,0,11
 3608 048c 7D6B1670 		srawi 11,11,2
 3609              	.LBE4795:
 3610              	.LBE4794:
 3611              		.loc 4 467 0
 3612 0490 2B8B0008 		cmplwi 7,11,8
 3613 0494 409D003C 		ble- 7,.L205
 3614              		.loc 4 469 0
 3615 0498 815F00D8 		lwz 10,216(31)
 3616 049c 380A0007 		addi 0,10,7
 3617 04a0 7F8B0000 		cmpw 7,11,0
 3618 04a4 419D002C 		bgt- 7,.L205
 3619 04a8 7D495378 		mr 9,10
 3620              	.L206:
 3621 04ac 3929FFFF 		addi 9,9,-1
 3622              		.loc 4 459 0
 3623 04b0 38090007 		addi 0,9,7
 3624              		.loc 4 469 0
 3625 04b4 7F8B0000 		cmpw 7,11,0
 3626 04b8 409DFFF4 		ble+ 7,.L206
 3627              		.loc 4 459 0
 3628 04bc 200AFFF9 		subfic 0,10,-7
 3629 04c0 394AFFFF 		addi 10,10,-1
 3630 04c4 7D6B0214 		add 11,11,0
 3631              		.loc 4 469 0
 3632 04c8 7D6A5A14 		add 11,10,11
 3633 04cc 917F00D8 		stw 11,216(31)
 3634              	.L205:
 3635              	.LVL266:
 3636 04d0 3BA00000 		li 29,0
 3637 04d4 3BC00000 		li 30,0
 3638              	.LVL267:
 3639              	.L214:
 3640              	.LBE4793:
 3641              		.loc 4 503 0
 3642 04d8 813F00F0 		lwz 9,240(31)
 3643              	.LBB4808:
 3644              	.LBB4796:
 3645              	.LBB4797:
 3646              	.LBB4798:
 3647              	.LBB4799:
 3648              		.loc 5 571 0
 3649 04dc 801F00F4 		lwz 0,244(31)
 3650 04e0 7C090050 		subf 0,9,0
 3651 04e4 7C001670 		srawi 0,0,2
 3652              	.LBE4799:
 3653              	.LBE4798:
 3654              		.loc 4 475 0
 3655 04e8 7F80F000 		cmpw 7,0,30
 3656 04ec 409D0080 		ble- 7,.L207
 3657              		.loc 4 478 0
 3658 04f0 801F00DC 		lwz 0,220(31)
 3659 04f4 7F9E0000 		cmpw 7,30,0
 3660 04f8 409E00F0 		bne- 7,.L220
 3661              	.L208:
 3662              	.LVL268:
 3663              		.loc 4 483 0
 3664 04fc 7C69E82E 		lwzx 3,9,29
 3665 0500 81230000 		lwz 9,0(3)
 3666 0504 80090054 		lwz 0,84(9)
 3667 0508 7C0903A6 		mtctr 0
 3668 050c 4E800421 		bctrl
 3669 0510 2F830000 		cmpwi 7,3,0
 3670 0514 419E01D0 		beq- 7,.L211
 3671              	.LVL269:
 3672              	.L215:
 3673              		.loc 4 488 0
 3674 0518 813C000C 		lwz 9,12(28)
 3675              		.loc 4 486 0
 3676 051c 837C0008 		lwz 27,8(28)
 3677              	.LVL270:
 3678              		.loc 4 488 0
 3679 0520 800900AC 		lwz 0,172(9)
 3680 0524 2F800000 		cmpwi 7,0,0
 3681 0528 409E00F0 		bne- 7,.L221
 3682              	.LVL271:
 3683              	.L216:
 3684              		.loc 4 491 0
 3685 052c 813F00F0 		lwz 9,240(31)
 3686 0530 7F84E378 		mr 4,28
 3687 0534 7C69E82E 		lwzx 3,9,29
 3688 0538 81230000 		lwz 9,0(3)
 3689 053c 800900BC 		lwz 0,188(9)
 3690 0540 7C0903A6 		mtctr 0
 3691 0544 4E800421 		bctrl
 3692              		.loc 4 494 0
 3693 0548 813F00F0 		lwz 9,240(31)
 3694              		.loc 4 492 0
 3695 054c 937C0008 		stw 27,8(28)
 3696              		.loc 4 494 0
 3697 0550 7C69E82E 		lwzx 3,9,29
 3698 0554 81230000 		lwz 9,0(3)
 3699 0558 80090054 		lwz 0,84(9)
 3700 055c 7C0903A6 		mtctr 0
 3701 0560 4E800421 		bctrl
 3702 0564 2F830001 		cmpwi 7,3,1
 3703 0568 419E0140 		beq- 7,.L222
 3704              	.LVL272:
 3705              	.L207:
 3706              	.LBE4797:
 3707              		.loc 4 473 0
 3708 056c 2F9E0007 		cmpwi 7,30,7
 3709 0570 3BBD0004 		addi 29,29,4
 3710 0574 3BDE0001 		addi 30,30,1
 3711              	.LVL273:
 3712 0578 409EFF60 		bne+ 7,.L214
 3713              	.LBE4796:
 3714              		.loc 4 498 0
 3715 057c 807F012C 		lwz 3,300(31)
 3716 0580 38800008 		li 4,8
 3717 0584 48000001 		bl _ZN9Scrollbar11SetPageSizeEi
 3718              		.loc 4 499 0
 3719 0588 807F012C 		lwz 3,300(31)
 3720 058c 38800000 		li 4,0
 3721 0590 48000001 		bl _ZN9Scrollbar10SetRowSizeEi
 3722              		.loc 4 500 0
 3723 0594 807F012C 		lwz 3,300(31)
 3724 0598 809F00DC 		lwz 4,220(31)
 3725 059c 48000001 		bl _ZN9Scrollbar15SetSelectedItemEi
 3726              		.loc 4 501 0
 3727 05a0 807F012C 		lwz 3,300(31)
 3728 05a4 809F00D8 		lwz 4,216(31)
 3729 05a8 48000001 		bl _ZN9Scrollbar16SetSelectedIndexEi
 3730              	.LBB4803:
 3731              	.LBB4804:
 3732              		.loc 5 571 0
 3733 05ac 801F00E4 		lwz 0,228(31)
 3734 05b0 809F00E8 		lwz 4,232(31)
 3735              	.LBE4804:
 3736              	.LBE4803:
 3737              		.loc 4 502 0
 3738 05b4 807F012C 		lwz 3,300(31)
 3739              	.LBB4806:
 3740              	.LBB4805:
 3741              		.loc 5 571 0
 3742 05b8 7C802050 		subf 4,0,4
 3743              	.LBE4805:
 3744              	.LBE4806:
 3745              		.loc 4 502 0
 3746 05bc 7C841670 		srawi 4,4,2
 3747 05c0 48000001 		bl _ZN9Scrollbar14SetEntrieCountEi
 3748              	.LBE4808:
 3749              	.LBE4792:
 3750              		.loc 4 503 0
 3751 05c4 8001002C 		lwz 0,44(1)
 3752 05c8 83610014 		lwz 27,20(1)
 3753 05cc 7C0803A6 		mtlr 0
 3754 05d0 83810018 		lwz 28,24(1)
 3755              	.LVL274:
 3756 05d4 83A1001C 		lwz 29,28(1)
 3757 05d8 83C10020 		lwz 30,32(1)
 3758              	.LVL275:
 3759 05dc 83E10024 		lwz 31,36(1)
 3760              	.LVL276:
 3761 05e0 38210028 		addi 1,1,40
 3762              		.cfi_remember_state
 3763              		.cfi_restore 27
 3764              		.cfi_restore 28
 3765              		.cfi_restore 29
 3766              		.cfi_restore 30
 3767              		.cfi_restore 31
 3768              	.LCFI79:
 3769              		.cfi_def_cfa_offset 0
 3770 05e4 4E800020 		blr
 3771              	.LVL277:
 3772              	.L220:
 3773              	.LCFI80:
 3774              		.cfi_restore_state
 3775              	.LBB4810:
 3776              	.LBB4809:
 3777              	.LBB4807:
 3778              	.LBB4802:
 3779              		.loc 4 478 0
 3780 05e8 7C69E82E 		lwzx 3,9,29
 3781 05ec 81230000 		lwz 9,0(3)
 3782 05f0 80090054 		lwz 0,84(9)
 3783 05f4 7C0903A6 		mtctr 0
 3784 05f8 4E800421 		bctrl
 3785 05fc 2F830001 		cmpwi 7,3,1
 3786 0600 419E00B0 		beq- 7,.L209
 3787              		.loc 4 483 0
 3788 0604 801F00DC 		lwz 0,220(31)
 3789 0608 7F9E0000 		cmpw 7,30,0
 3790 060c 409EFF0C 		bne+ 7,.L215
 3791 0610 813F00F0 		lwz 9,240(31)
 3792 0614 4BFFFEE8 		b .L208
 3793              	.LVL278:
 3794              	.L221:
 3795              		.loc 4 488 0
 3796 0618 817F00F0 		lwz 11,240(31)
 3797 061c C1A900B0 		lfs 13,176(9)
 3798 0620 7C6BE82E 		lwzx 3,11,29
 3799 0624 C00900B4 		lfs 0,180(9)
 3800 0628 FDA0681E 		fctiwz 13,13
 3801 062c 81230000 		lwz 9,0(3)
 3802 0630 FC00001E 		fctiwz 0,0
 3803 0634 800900A4 		lwz 0,164(9)
 3804 0638 39210008 		addi 9,1,8
 3805 063c 7DA04FAE 		stfiwx 13,0,9
 3806 0640 3921000C 		addi 9,1,12
 3807 0644 7C004FAE 		stfiwx 0,0,9
 3808 0648 7C0903A6 		mtctr 0
 3809 064c 80810008 		lwz 4,8(1)
 3810 0650 80A1000C 		lwz 5,12(1)
 3811 0654 4E800421 		bctrl
 3812 0658 2F830000 		cmpwi 7,3,0
 3813 065c 40BEFED0 		bne- 7,.L216
 3814              		.loc 4 491 0
 3815 0660 813F00F0 		lwz 9,240(31)
 3816              		.loc 4 489 0
 3817 0664 3800FFFF 		li 0,-1
 3818 0668 901C0008 		stw 0,8(28)
 3819              		.loc 4 491 0
 3820 066c 7F84E378 		mr 4,28
 3821 0670 7C69E82E 		lwzx 3,9,29
 3822 0674 81230000 		lwz 9,0(3)
 3823 0678 800900BC 		lwz 0,188(9)
 3824 067c 7C0903A6 		mtctr 0
 3825 0680 4E800421 		bctrl
 3826              		.loc 4 494 0
 3827 0684 813F00F0 		lwz 9,240(31)
 3828              		.loc 4 492 0
 3829 0688 937C0008 		stw 27,8(28)
 3830              		.loc 4 494 0
 3831 068c 7C69E82E 		lwzx 3,9,29
 3832 0690 81230000 		lwz 9,0(3)
 3833 0694 80090054 		lwz 0,84(9)
 3834 0698 7C0903A6 		mtctr 0
 3835 069c 4E800421 		bctrl
 3836 06a0 2F830001 		cmpwi 7,3,1
 3837 06a4 409EFEC8 		bne+ 7,.L207
 3838              	.L222:
 3839              		.loc 4 495 0
 3840 06a8 93DF00DC 		stw 30,220(31)
 3841 06ac 4BFFFEC0 		b .L207
 3842              	.LVL279:
 3843              	.L209:
 3844              		.loc 4 480 0
 3845 06b0 813F00F0 		lwz 9,240(31)
 3846 06b4 7C69E82E 		lwzx 3,9,29
 3847 06b8 81230000 		lwz 9,0(3)
 3848 06bc 8009005C 		lwz 0,92(9)
 3849 06c0 7C0903A6 		mtctr 0
 3850 06c4 4E800421 		bctrl
 3851              	.LVL280:
 3852              		.loc 4 481 0
 3853 06c8 813F00FC 		lwz 9,252(31)
 3854 06cc 809F0024 		lwz 4,36(31)
 3855 06d0 38A00001 		li 5,1
 3856 06d4 7C69E82E 		lwzx 3,9,29
 3857 06d8 3884FFA1 		addi 4,4,-95
 3858 06dc 48000001 		bl _ZN7GuiText11SetMaxWidthEii
 3859 06e0 4BFFFE38 		b .L215
 3860              	.LVL281:
 3861              	.L211:
 3862              	.LBB4800:
 3863              	.LBB4801:
 3864              		.loc 5 696 0
 3865 06e4 801F00DC 		lwz 0,220(31)
 3866              	.LBE4801:
 3867              	.LBE4800:
 3868              		.loc 4 484 0
 3869 06e8 38800001 		li 4,1
 3870 06ec 813F00F0 		lwz 9,240(31)
 3871 06f0 5400103A 		slwi 0,0,2
 3872 06f4 80BC0008 		lwz 5,8(28)
 3873 06f8 7C69002E 		lwzx 3,9,0
 3874 06fc 81230000 		lwz 9,0(3)
 3875 0700 80090050 		lwz 0,80(9)
 3876 0704 7C0903A6 		mtctr 0
 3877 0708 4E800421 		bctrl
 3878              	.LVL282:
 3879 070c 4BFFFE0C 		b .L215
 3880              	.LBE4802:
 3881              	.LBE4807:
 3882              	.LBE4809:
 3883              	.LBE4810:
 3884              		.cfi_endproc
 3885              	.LFE1614:
 3886              		.size	_ZN8PlayList6UpdateEP10GuiTrigger, .-_ZN8PlayList6UpdateEP10GuiTrigger
 3887              		.align 2
 3888              		.globl _ZN8PlayList17OnListStateChangeEP10GuiElementii
 3889              		.type	_ZN8PlayList17OnListStateChangeEP10GuiElementii, @function
 3890              	_ZN8PlayList17OnListStateChangeEP10GuiElementii:
 3891              	.LFB1611:
 3892              		.loc 4 387 0
 3893              		.cfi_startproc
 3894              	.LVL283:
 3895              	.LBB4823:
 3896              		.loc 4 388 0
 3897 0710 2F850001 		cmpwi 7,5,1
 3898              	.LBE4823:
 3899              		.loc 4 387 0
 3900 0714 7C0802A6 		mflr 0
 3901 0718 9421FFF0 		stwu 1,-16(1)
 3902              	.LCFI81:
 3903              		.cfi_def_cfa_offset 16
 3904              		.cfi_register 65, 0
 3905 071c 93E1000C 		stw 31,12(1)
 3906 0720 7C7F1B78 		mr 31,3
 3907              		.cfi_offset 31, -4
 3908 0724 90010014 		stw 0,20(1)
 3909 0728 93C10008 		stw 30,8(1)
 3910              	.LBB4824:
 3911              		.loc 4 388 0
 3912 072c 419E001C 		beq- 7,.L233
 3913              		.cfi_offset 30, -8
 3914              		.cfi_offset 65, 4
 3915              	.L223:
 3916              	.LBE4824:
 3917              		.loc 4 403 0
 3918 0730 80010014 		lwz 0,20(1)
 3919 0734 83C10008 		lwz 30,8(1)
 3920 0738 7C0803A6 		mtlr 0
 3921 073c 83E1000C 		lwz 31,12(1)
 3922 0740 38210010 		addi 1,1,16
 3923              		.cfi_remember_state
 3924              	.LCFI82:
 3925              		.cfi_def_cfa_offset 0
 3926              		.cfi_restore 31
 3927              		.cfi_restore 30
 3928 0744 4E800020 		blr
 3929              	.LVL284:
 3930              	.L233:
 3931              	.LCFI83:
 3932              		.cfi_restore_state
 3933              	.LBB4825:
 3934              		.loc 4 388 0
 3935 0748 812300F0 		lwz 9,240(3)
 3936              	.LVL285:
 3937              	.LBE4825:
 3938              	.LBB4826:
 3939              	.LBB4827:
 3940              	.LBB4828:
 3941              		.loc 4 393 0
 3942 074c 80090000 		lwz 0,0(9)
 3943 0750 7F840000 		cmpw 7,4,0
 3944 0754 419E00AC 		beq- 7,.L226
 3945              	.LVL286:
 3946 0758 80090004 		lwz 0,4(9)
 3947 075c 7F840000 		cmpw 7,4,0
 3948 0760 419E00A8 		beq- 7,.L227
 3949              	.LVL287:
 3950 0764 80090008 		lwz 0,8(9)
 3951 0768 7F840000 		cmpw 7,4,0
 3952 076c 419E00A4 		beq- 7,.L228
 3953              	.LVL288:
 3954 0770 8009000C 		lwz 0,12(9)
 3955 0774 7F840000 		cmpw 7,4,0
 3956 0778 419E00A0 		beq- 7,.L229
 3957              	.LVL289:
 3958 077c 80090010 		lwz 0,16(9)
 3959 0780 7F840000 		cmpw 7,4,0
 3960 0784 419E009C 		beq- 7,.L230
 3961              	.LVL290:
 3962 0788 80090014 		lwz 0,20(9)
 3963 078c 7F840000 		cmpw 7,4,0
 3964 0790 419E0098 		beq- 7,.L231
 3965              	.LVL291:
 3966 0794 80090018 		lwz 0,24(9)
 3967 0798 7F840000 		cmpw 7,4,0
 3968 079c 419E0094 		beq- 7,.L232
 3969              	.LVL292:
 3970 07a0 8009001C 		lwz 0,28(9)
 3971              		.loc 5 696 0
 3972 07a4 3BC0001C 		li 30,28
 3973              		.loc 4 393 0
 3974 07a8 7F840000 		cmpw 7,4,0
 3975 07ac 409EFF84 		bne+ 7,.L223
 3976              	.LVL293:
 3977              	.L225:
 3978              	.LBB4829:
 3979              	.LBB4830:
 3980              		.loc 5 696 0
 3981 07b0 801F00DC 		lwz 0,220(31)
 3982              	.LBE4830:
 3983              	.LBE4829:
 3984              		.loc 4 397 0
 3985 07b4 38A00001 		li 5,1
 3986              	.LVL294:
 3987 07b8 813F00FC 		lwz 9,252(31)
 3988 07bc 5400103A 		slwi 0,0,2
 3989 07c0 809F0024 		lwz 4,36(31)
 3990              	.LVL295:
 3991 07c4 7C69002E 		lwzx 3,9,0
 3992              	.LVL296:
 3993 07c8 3884FFA1 		addi 4,4,-95
 3994 07cc 48000001 		bl _ZN7GuiText11SetMaxWidthEii
 3995              	.LVL297:
 3996              		.loc 4 398 0
 3997 07d0 813F00FC 		lwz 9,252(31)
 3998 07d4 809F0024 		lwz 4,36(31)
 3999 07d8 38A00002 		li 5,2
 4000 07dc 7C69F02E 		lwzx 3,9,30
 4001 07e0 3884FF8D 		addi 4,4,-115
 4002 07e4 48000001 		bl _ZN7GuiText11SetMaxWidthEii
 4003              	.LBE4828:
 4004              	.LBE4827:
 4005              	.LBE4826:
 4006              		.loc 4 403 0
 4007 07e8 80010014 		lwz 0,20(1)
 4008 07ec 83C10008 		lwz 30,8(1)
 4009 07f0 7C0803A6 		mtlr 0
 4010 07f4 83E1000C 		lwz 31,12(1)
 4011              	.LVL298:
 4012 07f8 38210010 		addi 1,1,16
 4013              		.cfi_remember_state
 4014              		.cfi_restore 30
 4015              		.cfi_restore 31
 4016              	.LCFI84:
 4017              		.cfi_def_cfa_offset 0
 4018 07fc 4E800020 		blr
 4019              	.LVL299:
 4020              	.L226:
 4021              	.LCFI85:
 4022              		.cfi_restore_state
 4023              	.LBB4833:
 4024              	.LBB4832:
 4025              	.LBB4831:
 4026              		.loc 5 696 0
 4027 0800 3BC00000 		li 30,0
 4028 0804 4BFFFFAC 		b .L225
 4029              	.LVL300:
 4030              	.L227:
 4031 0808 3BC00004 		li 30,4
 4032 080c 4BFFFFA4 		b .L225
 4033              	.LVL301:
 4034              	.L228:
 4035 0810 3BC00008 		li 30,8
 4036 0814 4BFFFF9C 		b .L225
 4037              	.LVL302:
 4038              	.L229:
 4039 0818 3BC0000C 		li 30,12
 4040 081c 4BFFFF94 		b .L225
 4041              	.LVL303:
 4042              	.L230:
 4043 0820 3BC00010 		li 30,16
 4044 0824 4BFFFF8C 		b .L225
 4045              	.LVL304:
 4046              	.L231:
 4047 0828 3BC00014 		li 30,20
 4048 082c 4BFFFF84 		b .L225
 4049              	.LVL305:
 4050              	.L232:
 4051 0830 3BC00018 		li 30,24
 4052 0834 4BFFFF7C 		b .L225
 4053              	.LBE4831:
 4054              	.LBE4832:
 4055              	.LBE4833:
 4056              		.cfi_endproc
 4057              	.LFE1611:
 4058              		.size	_ZN8PlayList17OnListStateChangeEP10GuiElementii, .-_ZN8PlayList17OnListStateChangeEP10GuiEle
 4059              		.align 2
 4060              		.globl _ZN8PlayList13OnButtonClickEP9GuiButtoniRK6_POINT
 4061              		.type	_ZN8PlayList13OnButtonClickEP9GuiButtoniRK6_POINT, @function
 4062              	_ZN8PlayList13OnButtonClickEP9GuiButtoniRK6_POINT:
 4063              	.LFB1601:
 4064              		.loc 4 140 0
 4065              		.cfi_startproc
 4066              		.cfi_personality 0,__gxx_personality_v0
 4067              		.cfi_lsda 0,.LLSDA1601
 4068              	.LVL306:
 4069 0838 7C0802A6 		mflr 0
 4070 083c 9421FFE0 		stwu 1,-32(1)
 4071              	.LCFI86:
 4072              		.cfi_def_cfa_offset 32
 4073              		.cfi_register 65, 0
 4074 0840 93E1001C 		stw 31,28(1)
 4075 0844 7C7F1B78 		mr 31,3
 4076              		.cfi_offset 31, -4
 4077 0848 90010024 		stw 0,36(1)
 4078 084c 93410008 		stw 26,8(1)
 4079              	.LBB4846:
 4080              		.loc 4 141 0
 4081 0850 80030114 		lwz 0,276(3)
 4082              		.cfi_offset 26, -24
 4083              		.cfi_offset 65, 4
 4084              	.LBE4846:
 4085              		.loc 4 140 0
 4086 0854 9361000C 		stw 27,12(1)
 4087              	.LBB4847:
 4088              		.loc 4 141 0
 4089 0858 7F802000 		cmpw 7,0,4
 4090              	.LBE4847:
 4091              		.loc 4 140 0
 4092 085c 93810010 		stw 28,16(1)
 4093 0860 93A10014 		stw 29,20(1)
 4094 0864 93C10018 		stw 30,24(1)
 4095              	.LBB4848:
 4096              		.loc 4 141 0
 4097 0868 419E002C 		beq- 7,.L248
 4098              		.cfi_offset 30, -8
 4099              		.cfi_offset 29, -12
 4100              		.cfi_offset 28, -16
 4101              		.cfi_offset 27, -20
 4102              	.LVL307:
 4103              	.L234:
 4104              	.LBE4848:
 4105              		.loc 4 170 0
 4106 086c 80010024 		lwz 0,36(1)
 4107 0870 83410008 		lwz 26,8(1)
 4108 0874 7C0803A6 		mtlr 0
 4109 0878 8361000C 		lwz 27,12(1)
 4110 087c 83810010 		lwz 28,16(1)
 4111 0880 83A10014 		lwz 29,20(1)
 4112 0884 83C10018 		lwz 30,24(1)
 4113 0888 83E1001C 		lwz 31,28(1)
 4114              	.LVL308:
 4115 088c 38210020 		addi 1,1,32
 4116              		.cfi_remember_state
 4117              	.LCFI87:
 4118              		.cfi_def_cfa_offset 0
 4119              		.cfi_restore 31
 4120              		.cfi_restore 30
 4121              		.cfi_restore 29
 4122              		.cfi_restore 28
 4123              		.cfi_restore 27
 4124              		.cfi_restore 26
 4125 0890 4E800020 		blr
 4126              	.LVL309:
 4127              	.L248:
 4128              	.LCFI88:
 4129              		.cfi_restore_state
 4130              	.LBB4849:
 4131              	.LBB4850:
 4132              	.LBB4851:
 4133              		.loc 4 143 0
 4134 0894 880300E0 		lbz 0,224(3)
 4135 0898 2F800000 		cmpwi 7,0,0
 4136 089c 80030060 		lwz 0,96(3)
 4137 08a0 419E00F8 		beq- 7,.L236
 4138 08a4 2F800000 		cmpwi 7,0,0
 4139 08a8 41BEFFC4 		beq- 7,.L234
 4140              	.LBB4852:
 4141              		.loc 4 145 0
 4142 08ac 81230000 		lwz 9,0(3)
 4143              		.loc 4 147 0
 4144 08b0 3BA00000 		li 29,0
 4145              		.loc 4 145 0
 4146 08b4 80090010 		lwz 0,16(9)
 4147 08b8 7C0903A6 		mtctr 0
 4148              	.LEHB12:
 4149 08bc 4E800421 		bctrl
 4150              	.LVL310:
 4151 08c0 7C7A1B78 		mr 26,3
 4152 08c4 807F0060 		lwz 3,96(31)
 4153 08c8 81230000 		lwz 9,0(3)
 4154 08cc 80090010 		lwz 0,16(9)
 4155 08d0 7C0903A6 		mtctr 0
 4156 08d4 4E800421 		bctrl
 4157              		.loc 4 146 0
 4158 08d8 813F0000 		lwz 9,0(31)
 4159              		.loc 4 145 0
 4160 08dc 7F43D050 		subf 26,3,26
 4161              	.LVL311:
 4162              		.loc 4 146 0
 4163 08e0 7FE3FB78 		mr 3,31
 4164 08e4 80090014 		lwz 0,20(9)
 4165 08e8 7C0903A6 		mtctr 0
 4166 08ec 4E800421 		bctrl
 4167 08f0 7C7B1B78 		mr 27,3
 4168 08f4 807F0060 		lwz 3,96(31)
 4169 08f8 81230000 		lwz 9,0(3)
 4170 08fc 80090014 		lwz 0,20(9)
 4171 0900 7C0903A6 		mtctr 0
 4172 0904 4E800421 		bctrl
 4173 0908 7F63D850 		subf 27,3,27
 4174              	.LVL312:
 4175 090c 48000018 		b .L237
 4176              	.LVL313:
 4177              	.L238:
 4178              		.loc 4 152 0
 4179 0910 813E0000 		lwz 9,0(30)
 4180 0914 7FC3F378 		mr 3,30
 4181 0918 800900D8 		lwz 0,216(9)
 4182 091c 7C0903A6 		mtctr 0
 4183 0920 4E800421 		bctrl
 4184              	.LVL314:
 4185              	.L237:
 4186              		.loc 4 148 0
 4187 0924 813F0000 		lwz 9,0(31)
 4188 0928 7FE3FB78 		mr 3,31
 4189 092c 80090028 		lwz 0,40(9)
 4190 0930 7C0903A6 		mtctr 0
 4191 0934 4E800421 		bctrl
 4192 0938 7C630E70 		srawi 3,3,1
 4193 093c 7C630194 		addze 3,3
 4194 0940 3863005C 		addi 3,3,92
 4195 0944 7F9D1800 		cmpw 7,29,3
 4196 0948 419D014C 		bgt- 7,.L249
 4197              		.loc 4 151 0
 4198 094c 813F0000 		lwz 9,0(31)
 4199              		.loc 4 150 0
 4200 0950 3BBD000F 		addi 29,29,15
 4201              	.LVL315:
 4202              		.loc 4 151 0
 4203 0954 7FE3FB78 		mr 3,31
 4204 0958 7F44D378 		mr 4,26
 4205 095c 800900A8 		lwz 0,168(9)
 4206 0960 7CBDD850 		subf 5,29,27
 4207              	.LBB4853:
 4208              	.LBB4854:
 4209              		.file 8 "d:/Projects/SaveGameManager/savegame-manager-gx/trunk/source/SoundOperations/../Controls/
 4210              		.loc 8 27 0
 4211 0964 3F800000 		lis 28,_ZN11Application8instanceE@ha
 4212              	.LBE4854:
 4213              	.LBE4853:
 4214              		.loc 4 151 0
 4215 0968 7C0903A6 		mtctr 0
 4216 096c 4E800421 		bctrl
 4217              	.LBB4856:
 4218              	.LBB4855:
 4219              		.loc 8 27 0
 4220 0970 83DC0000 		lwz 30,_ZN11Application8instanceE@l(28)
 4221 0974 3B9C0000 		la 28,_ZN11Application8instanceE@l(28)
 4222 0978 2F9E0000 		cmpwi 7,30,0
 4223 097c 409EFF94 		bne+ 7,.L238
 4224 0980 38600278 		li 3,632
 4225 0984 48000001 		bl _Znwj
 4226              	.LEHE12:
 4227 0988 7C7E1B78 		mr 30,3
 4228              	.LEHB13:
 4229 098c 48000001 		bl _ZN11ApplicationC1Ev
 4230              	.LEHE13:
 4231 0990 93DC0000 		stw 30,0(28)
 4232 0994 4BFFFF7C 		b .L238
 4233              	.LVL316:
 4234              	.L236:
 4235              	.LBE4855:
 4236              	.LBE4856:
 4237              	.LBE4852:
 4238              	.LBB4857:
 4239              		.loc 4 156 0
 4240 0998 2F800000 		cmpwi 7,0,0
 4241 099c 41BEFED0 		beq- 7,.L234
 4242              	.LBB4858:
 4243              		.loc 4 159 0
 4244 09a0 81230000 		lwz 9,0(3)
 4245              		.loc 4 161 0
 4246 09a4 3BA00000 		li 29,0
 4247              		.loc 4 159 0
 4248 09a8 80090010 		lwz 0,16(9)
 4249              		.loc 4 158 0
 4250 09ac 39200001 		li 9,1
 4251 09b0 992300E0 		stb 9,224(3)
 4252              		.loc 4 159 0
 4253 09b4 7C0903A6 		mtctr 0
 4254              	.LEHB14:
 4255 09b8 4E800421 		bctrl
 4256              	.LVL317:
 4257 09bc 7C7A1B78 		mr 26,3
 4258 09c0 807F0060 		lwz 3,96(31)
 4259 09c4 81230000 		lwz 9,0(3)
 4260 09c8 80090010 		lwz 0,16(9)
 4261 09cc 7C0903A6 		mtctr 0
 4262 09d0 4E800421 		bctrl
 4263              		.loc 4 160 0
 4264 09d4 813F0000 		lwz 9,0(31)
 4265              		.loc 4 159 0
 4266 09d8 7F43D050 		subf 26,3,26
 4267              	.LVL318:
 4268              		.loc 4 160 0
 4269 09dc 7FE3FB78 		mr 3,31
 4270 09e0 80090014 		lwz 0,20(9)
 4271 09e4 7C0903A6 		mtctr 0
 4272 09e8 4E800421 		bctrl
 4273 09ec 7C7B1B78 		mr 27,3
 4274 09f0 807F0060 		lwz 3,96(31)
 4275 09f4 81230000 		lwz 9,0(3)
 4276 09f8 80090014 		lwz 0,20(9)
 4277 09fc 7C0903A6 		mtctr 0
 4278 0a00 4E800421 		bctrl
 4279 0a04 7F63D850 		subf 27,3,27
 4280              	.LVL319:
 4281 0a08 48000018 		b .L241
 4282              	.LVL320:
 4283              	.L242:
 4284              		.loc 4 166 0
 4285 0a0c 813E0000 		lwz 9,0(30)
 4286 0a10 7FC3F378 		mr 3,30
 4287 0a14 800900D8 		lwz 0,216(9)
 4288 0a18 7C0903A6 		mtctr 0
 4289 0a1c 4E800421 		bctrl
 4290              	.LVL321:
 4291              	.L241:
 4292              		.loc 4 162 0
 4293 0a20 813F0000 		lwz 9,0(31)
 4294 0a24 7FE3FB78 		mr 3,31
 4295 0a28 80090028 		lwz 0,40(9)
 4296 0a2c 7C0903A6 		mtctr 0
 4297 0a30 4E800421 		bctrl
 4298 0a34 7C630E70 		srawi 3,3,1
 4299 0a38 7C630194 		addze 3,3
 4300 0a3c 3863005C 		addi 3,3,92
 4301 0a40 7F9D1800 		cmpw 7,29,3
 4302 0a44 41BDFE28 		bgt- 7,.L234
 4303              		.loc 4 165 0
 4304 0a48 813F0000 		lwz 9,0(31)
 4305              		.loc 4 164 0
 4306 0a4c 3BBD000F 		addi 29,29,15
 4307              	.LVL322:
 4308              		.loc 4 165 0
 4309 0a50 7FE3FB78 		mr 3,31
 4310 0a54 7F44D378 		mr 4,26
 4311 0a58 800900A8 		lwz 0,168(9)
 4312 0a5c 7CBDDA14 		add 5,29,27
 4313              	.LBB4859:
 4314              	.LBB4860:
 4315              		.loc 8 27 0
 4316 0a60 3F800000 		lis 28,_ZN11Application8instanceE@ha
 4317              	.LBE4860:
 4318              	.LBE4859:
 4319              		.loc 4 165 0
 4320 0a64 7C0903A6 		mtctr 0
 4321 0a68 4E800421 		bctrl
 4322              	.LBB4863:
 4323              	.LBB4861:
 4324              		.loc 8 27 0
 4325 0a6c 83DC0000 		lwz 30,_ZN11Application8instanceE@l(28)
 4326 0a70 3B9C0000 		la 28,_ZN11Application8instanceE@l(28)
 4327 0a74 2F9E0000 		cmpwi 7,30,0
 4328 0a78 409EFF94 		bne+ 7,.L242
 4329 0a7c 38600278 		li 3,632
 4330 0a80 48000001 		bl _Znwj
 4331              	.LEHE14:
 4332 0a84 7C7E1B78 		mr 30,3
 4333              	.LEHB15:
 4334 0a88 48000001 		bl _ZN11ApplicationC1Ev
 4335              	.LEHE15:
 4336 0a8c 93DC0000 		stw 30,0(28)
 4337 0a90 4BFFFF7C 		b .L242
 4338              	.LVL323:
 4339              	.L249:
 4340              	.LBE4861:
 4341              	.LBE4863:
 4342              	.LBE4858:
 4343              	.LBE4857:
 4344              	.LBB4866:
 4345              		.loc 4 154 0
 4346 0a94 38000000 		li 0,0
 4347 0a98 981F00E0 		stb 0,224(31)
 4348 0a9c 4BFFFDD0 		b .L234
 4349              	.LVL324:
 4350              	.L246:
 4351              	.L247:
 4352 0aa0 7C7F1B78 		mr 31,3
 4353              	.LVL325:
 4354              	.LBE4866:
 4355              	.LBB4867:
 4356              	.LBB4865:
 4357              	.LBB4864:
 4358              	.LBB4862:
 4359              		.loc 8 27 0
 4360 0aa4 7FC3F378 		mr 3,30
 4361 0aa8 48000001 		bl _ZdlPv
 4362 0aac 7FE3FB78 		mr 3,31
 4363              	.LEHB16:
 4364 0ab0 48000001 		bl _Unwind_Resume
 4365              	.LEHE16:
 4366              	.LVL326:
 4367              	.L245:
 4368 0ab4 4BFFFFEC 		b .L247
 4369              	.LBE4862:
 4370              	.LBE4864:
 4371              	.LBE4865:
 4372              	.LBE4867:
 4373              	.LBE4851:
 4374              	.LBE4850:
 4375              	.LBE4849:
 4376              		.cfi_endproc
 4377              	.LFE1601:
 4378              		.section	.gcc_except_table
 4379              	.LLSDA1601:
 4380 0047 FF       		.byte	0xff
 4381 0048 FF       		.byte	0xff
 4382 0049 01       		.byte	0x1
 4383 004a 1D       		.uleb128 .LLSDACSE1601-.LLSDACSB1601
 4384              	.LLSDACSB1601:
 4385 004b 8401     		.uleb128 .LEHB12-.LFB1601
 4386 004d CC01     		.uleb128 .LEHE12-.LEHB12
 4387 004f 00       		.uleb128 0
 4388 0050 00       		.uleb128 0
 4389 0051 D402     		.uleb128 .LEHB13-.LFB1601
 4390 0053 04       		.uleb128 .LEHE13-.LEHB13
 4391 0054 FC04     		.uleb128 .L245-.LFB1601
 4392 0056 00       		.uleb128 0
 4393 0057 8003     		.uleb128 .LEHB14-.LFB1601
 4394 0059 CC01     		.uleb128 .LEHE14-.LEHB14
 4395 005b 00       		.uleb128 0
 4396 005c 00       		.uleb128 0
 4397 005d D004     		.uleb128 .LEHB15-.LFB1601
 4398 005f 04       		.uleb128 .LEHE15-.LEHB15
 4399 0060 E804     		.uleb128 .L246-.LFB1601
 4400 0062 00       		.uleb128 0
 4401 0063 F804     		.uleb128 .LEHB16-.LFB1601
 4402 0065 04       		.uleb128 .LEHE16-.LEHB16
 4403 0066 00       		.uleb128 0
 4404 0067 00       		.uleb128 0
 4405              	.LLSDACSE1601:
 4406              		.section	".text"
 4407              		.size	_ZN8PlayList13OnButtonClickEP9GuiButtoniRK6_POINT, .-_ZN8PlayList13OnButtonClickEP9GuiButton
 4408              		.align 2
 4409              		.globl _ZN8PlayList4SaveEv
 4410              		.type	_ZN8PlayList4SaveEv, @function
 4411              	_ZN8PlayList4SaveEv:
 4412              	.LFB1599:
 4413              		.loc 4 65 0
 4414              		.cfi_startproc
 4415              	.LVL327:
 4416 0ab8 9421FBE8 		stwu 1,-1048(1)
 4417              	.LCFI89:
 4418              		.cfi_def_cfa_offset 1048
 4419 0abc 7C0802A6 		mflr 0
 4420              	.LBB4880:
 4421              		.loc 4 67 0
 4422 0ac0 3CA00000 		lis 5,.LC4@ha
 4423 0ac4 3CC00000 		lis 6,Settings+14@ha
 4424              	.LBE4880:
 4425              		.loc 4 65 0
 4426 0ac8 93C10410 		stw 30,1040(1)
 4427              	.LBB4886:
 4428              		.loc 4 67 0
 4429 0acc 3BC10008 		addi 30,1,8
 4430              		.cfi_offset 30, -8
 4431              		.cfi_register 65, 0
 4432              	.LBE4886:
 4433              		.loc 4 65 0
 4434 0ad0 93E10414 		stw 31,1044(1)
 4435              	.LBB4887:
 4436              		.loc 4 67 0
 4437 0ad4 38800400 		li 4,1024
 4438              	.LBE4887:
 4439              		.loc 4 65 0
 4440 0ad8 7C7F1B78 		mr 31,3
 4441              		.cfi_offset 31, -4
 4442              	.LBB4888:
 4443              		.loc 4 67 0
 4444 0adc 38A50000 		la 5,.LC4@l(5)
 4445 0ae0 7FC3F378 		mr 3,30
 4446              	.LVL328:
 4447 0ae4 38C6000E 		la 6,Settings+14@l(6)
 4448              	.LBE4888:
 4449              		.loc 4 65 0
 4450 0ae8 9001041C 		stw 0,1052(1)
 4451 0aec 93810408 		stw 28,1032(1)
 4452 0af0 93A1040C 		stw 29,1036(1)
 4453              	.LBB4889:
 4454              		.loc 4 67 0
 4455              		.cfi_offset 29, -12
 4456              		.cfi_offset 28, -16
 4457              		.cfi_offset 65, 4
 4458 0af4 4CC63182 		crxor 6,6,6
 4459 0af8 48000001 		bl snprintf
 4460              		.loc 4 69 0
 4461 0afc 4800000C 		b .L251
 4462              	.L252:
 4463              		.loc 4 70 0
 4464 0b00 38000000 		li 0,0
 4465 0b04 980B0008 		stb 0,8(11)
 4466              	.L251:
 4467              		.loc 4 69 0 discriminator 1
 4468 0b08 7FC3F378 		mr 3,30
 4469 0b0c 48000001 		bl strlen
 4470 0b10 3963FFFF 		addi 11,3,-1
 4471 0b14 7C691B78 		mr 9,3
 4472 0b18 7D615A14 		add 11,1,11
 4473 0b1c 880B0008 		lbz 0,8(11)
 4474 0b20 2F80002F 		cmpwi 7,0,47
 4475 0b24 419EFFDC 		beq+ 7,.L252
 4476              		.loc 4 72 0
 4477 0b28 3D400000 		lis 10,.LC5@ha
 4478              		.loc 4 74 0
 4479 0b2c 3C800000 		lis 4,.LC6@ha
 4480              		.loc 4 72 0
 4481 0b30 396A0004 		la 11,.LC5@l(10)
 4482 0b34 83AA0004 		lwz 29,.LC5@l(10)
 4483 0b38 80AB0004 		lwz 5,4(11)
 4484              		.loc 4 74 0
 4485 0b3c 38840020 		la 4,.LC6@l(4)
 4486              		.loc 4 72 0
 4487 0b40 80CB0008 		lwz 6,8(11)
 4488 0b44 80EB000C 		lwz 7,12(11)
 4489 0b48 810B0010 		lwz 8,16(11)
 4490 0b4c 814B0014 		lwz 10,20(11)
 4491 0b50 880B0018 		lbz 0,24(11)
 4492 0b54 7D7E1A14 		add 11,30,3
 4493 0b58 7FBE492E 		stwx 29,30,9
 4494              		.loc 4 74 0
 4495 0b5c 7FC3F378 		mr 3,30
 4496              		.loc 4 72 0
 4497 0b60 90AB0004 		stw 5,4(11)
 4498 0b64 90CB0008 		stw 6,8(11)
 4499 0b68 90EB000C 		stw 7,12(11)
 4500 0b6c 910B0010 		stw 8,16(11)
 4501 0b70 914B0014 		stw 10,20(11)
 4502 0b74 980B0018 		stb 0,24(11)
 4503              		.loc 4 74 0
 4504 0b78 48000001 		bl fopen
 4505              	.LVL329:
 4506              		.loc 4 75 0
 4507 0b7c 7C7E1B79 		mr. 30,3
 4508              		.loc 4 76 0
 4509 0b80 38600000 		li 3,0
 4510              	.LVL330:
 4511              		.loc 4 75 0
 4512 0b84 41820094 		beq- 0,.L253
 4513              		.loc 4 78 0
 4514 0b88 3C600000 		lis 3,.LC7@ha
 4515 0b8c 38800001 		li 4,1
 4516 0b90 38A0001C 		li 5,28
 4517 0b94 7FC6F378 		mr 6,30
 4518 0b98 38630024 		la 3,.LC7@l(3)
 4519 0b9c 48000001 		bl fwrite
 4520              		.loc 4 79 0
 4521 0ba0 3C600000 		lis 3,.LC8@ha
 4522 0ba4 38630044 		la 3,.LC8@l(3)
 4523 0ba8 38800001 		li 4,1
 4524 0bac 38A0002E 		li 5,46
 4525 0bb0 7FC6F378 		mr 6,30
 4526 0bb4 48000001 		bl fwrite
 4527              	.LVL331:
 4528              		.loc 4 503 0
 4529 0bb8 813F00E4 		lwz 9,228(31)
 4530              	.LBB4881:
 4531              	.LBB4882:
 4532              	.LBB4883:
 4533              		.loc 5 571 0
 4534 0bbc 801F00E8 		lwz 0,232(31)
 4535 0bc0 7C090050 		subf 0,9,0
 4536              	.LBE4883:
 4537              	.LBE4882:
 4538              		.loc 4 81 0
 4539 0bc4 540BF0BF 		srwi. 11,0,2
 4540 0bc8 41820044 		beq- 0,.L254
 4541 0bcc 3F800000 		lis 28,.LC9@ha
 4542 0bd0 3BA00000 		li 29,0
 4543 0bd4 3B9C0074 		la 28,.LC9@l(28)
 4544              	.LVL332:
 4545              	.L255:
 4546              		.loc 4 82 0
 4547 0bd8 57A0103A 		slwi 0,29,2
 4548 0bdc 7FC3F378 		mr 3,30
 4549 0be0 7CA9002E 		lwzx 5,9,0
 4550 0be4 7F84E378 		mr 4,28
 4551              		.loc 4 81 0
 4552 0be8 3BBD0001 		addi 29,29,1
 4553              	.LVL333:
 4554              		.loc 4 82 0
 4555 0bec 4CC63182 		crxor 6,6,6
 4556 0bf0 48000001 		bl fprintf
 4557              	.LVL334:
 4558              		.loc 4 503 0
 4559 0bf4 813F00E4 		lwz 9,228(31)
 4560              	.LBB4885:
 4561              	.LBB4884:
 4562              		.loc 5 571 0
 4563 0bf8 801F00E8 		lwz 0,232(31)
 4564 0bfc 7C090050 		subf 0,9,0
 4565 0c00 7C001670 		srawi 0,0,2
 4566              	.LBE4884:
 4567              	.LBE4885:
 4568              		.loc 4 81 0
 4569 0c04 7F9D0040 		cmplw 7,29,0
 4570 0c08 419CFFD0 		blt+ 7,.L255
 4571              	.LVL335:
 4572              	.L254:
 4573              	.LBE4881:
 4574              		.loc 4 84 0
 4575 0c0c 7FC3F378 		mr 3,30
 4576 0c10 48000001 		bl fclose
 4577              		.loc 4 86 0
 4578 0c14 38600001 		li 3,1
 4579              	.L253:
 4580              	.LBE4889:
 4581              		.loc 4 87 0
 4582 0c18 8001041C 		lwz 0,1052(1)
 4583 0c1c 83810408 		lwz 28,1032(1)
 4584 0c20 7C0803A6 		mtlr 0
 4585 0c24 83A1040C 		lwz 29,1036(1)
 4586 0c28 83C10410 		lwz 30,1040(1)
 4587              	.LVL336:
 4588 0c2c 83E10414 		lwz 31,1044(1)
 4589              	.LVL337:
 4590 0c30 38210418 		addi 1,1,1048
 4591              	.LCFI90:
 4592              		.cfi_def_cfa_offset 0
 4593              		.cfi_restore 31
 4594              		.cfi_restore 30
 4595              		.cfi_restore 29
 4596              		.cfi_restore 28
 4597 0c34 4E800020 		blr
 4598              		.cfi_endproc
 4599              	.LFE1599:
 4600              		.size	_ZN8PlayList4SaveEv, .-_ZN8PlayList4SaveEv
 4601              		.align 2
 4602              		.globl _ZN8PlayList4HideEv
 4603              		.type	_ZN8PlayList4HideEv, @function
 4604              	_ZN8PlayList4HideEv:
 4605              	.LFB1604:
 4606              		.loc 4 250 0
 4607              		.cfi_startproc
 4608              	.LVL338:
 4609 0c38 7C0802A6 		mflr 0
 4610 0c3c 9421FFE8 		stwu 1,-24(1)
 4611              	.LCFI91:
 4612              		.cfi_def_cfa_offset 24
 4613              		.cfi_register 65, 0
 4614              	.LBB4890:
 4615              		.loc 4 251 0
 4616 0c40 38800000 		li 4,0
 4617              	.LBE4890:
 4618              		.loc 4 250 0
 4619 0c44 93E10014 		stw 31,20(1)
 4620 0c48 7C7F1B78 		mr 31,3
 4621              		.cfi_offset 31, -4
 4622 0c4c 9001001C 		stw 0,28(1)
 4623 0c50 93A1000C 		stw 29,12(1)
 4624              	.LBB4915:
 4625              		.loc 4 251 0
 4626 0c54 81230000 		lwz 9,0(3)
 4627              	.LBE4915:
 4628              		.loc 4 250 0
 4629 0c58 93C10010 		stw 30,16(1)
 4630              	.LBB4916:
 4631              		.loc 4 251 0
 4632 0c5c 80090030 		lwz 0,48(9)
 4633              		.cfi_offset 30, -8
 4634              		.cfi_offset 29, -12
 4635              		.cfi_offset 65, 4
 4636 0c60 7C0903A6 		mtctr 0
 4637 0c64 4E800421 		bctrl
 4638              	.LVL339:
 4639              		.loc 4 253 0
 4640 0c68 7FE3FB78 		mr 3,31
 4641 0c6c 48000001 		bl _ZN8GuiFrame9RemoveAllEv
 4642              		.loc 4 255 0
 4643 0c70 807F0124 		lwz 3,292(31)
 4644 0c74 48000001 		bl _ZN9Resources6RemoveEP8GuiSound
 4645              		.loc 4 256 0
 4646 0c78 807F0128 		lwz 3,296(31)
 4647 0c7c 48000001 		bl _ZN9Resources6RemoveEP8GuiSound
 4648              		.loc 4 257 0
 4649 0c80 807F0118 		lwz 3,280(31)
 4650 0c84 48000001 		bl _ZN9Resources6RemoveEP12GuiImageData
 4651              		.loc 4 258 0
 4652 0c88 807F011C 		lwz 3,284(31)
 4653 0c8c 48000001 		bl _ZN9Resources6RemoveEP12GuiImageData
 4654              	.LVL340:
 4655              		.loc 4 503 0
 4656 0c90 813F00F0 		lwz 9,240(31)
 4657              	.LBB4891:
 4658              	.LBB4892:
 4659              	.LBB4893:
 4660              		.loc 5 571 0
 4661 0c94 801F00F4 		lwz 0,244(31)
 4662 0c98 7C090050 		subf 0,9,0
 4663              	.LBE4893:
 4664              	.LBE4892:
 4665              		.loc 4 260 0
 4666 0c9c 540BF0BF 		srwi. 11,0,2
 4667 0ca0 41820090 		beq- 0,.L259
 4668 0ca4 3BC00000 		li 30,0
 4669              	.LVL341:
 4670              	.L263:
 4671              		.loc 4 249 0
 4672 0ca8 57DD103A 		slwi 29,30,2
 4673              		.loc 4 260 0
 4674 0cac 3BDE0001 		addi 30,30,1
 4675              	.LVL342:
 4676              		.loc 4 262 0
 4677 0cb0 7D29E82E 		lwzx 9,9,29
 4678 0cb4 2F890000 		cmpwi 7,9,0
 4679 0cb8 7D234B78 		mr 3,9
 4680 0cbc 419E0014 		beq- 7,.L260
 4681              		.loc 4 262 0 is_stmt 0 discriminator 1
 4682 0cc0 81290000 		lwz 9,0(9)
 4683 0cc4 80090004 		lwz 0,4(9)
 4684 0cc8 7C0903A6 		mtctr 0
 4685 0ccc 4E800421 		bctrl
 4686              	.L260:
 4687              		.loc 4 263 0 is_stmt 1
 4688 0cd0 813F00FC 		lwz 9,252(31)
 4689 0cd4 7D29E82E 		lwzx 9,9,29
 4690 0cd8 2F890000 		cmpwi 7,9,0
 4691 0cdc 7D234B78 		mr 3,9
 4692 0ce0 419E0014 		beq- 7,.L261
 4693              		.loc 4 263 0 is_stmt 0 discriminator 1
 4694 0ce4 81290000 		lwz 9,0(9)
 4695 0ce8 80090004 		lwz 0,4(9)
 4696 0cec 7C0903A6 		mtctr 0
 4697 0cf0 4E800421 		bctrl
 4698              	.L261:
 4699              		.loc 4 264 0 is_stmt 1
 4700 0cf4 813F0108 		lwz 9,264(31)
 4701 0cf8 7D29E82E 		lwzx 9,9,29
 4702 0cfc 2F890000 		cmpwi 7,9,0
 4703 0d00 7D234B78 		mr 3,9
 4704 0d04 419E0014 		beq- 7,.L262
 4705              		.loc 4 264 0 is_stmt 0 discriminator 1
 4706 0d08 81290000 		lwz 9,0(9)
 4707 0d0c 80090004 		lwz 0,4(9)
 4708 0d10 7C0903A6 		mtctr 0
 4709 0d14 4E800421 		bctrl
 4710              	.L262:
 4711              	.LVL343:
 4712              		.loc 4 503 0 is_stmt 1
 4713 0d18 813F00F0 		lwz 9,240(31)
 4714              	.LBB4895:
 4715              	.LBB4894:
 4716              		.loc 5 571 0
 4717 0d1c 801F00F4 		lwz 0,244(31)
 4718 0d20 7C090050 		subf 0,9,0
 4719 0d24 7C001670 		srawi 0,0,2
 4720              	.LBE4894:
 4721              	.LBE4895:
 4722              		.loc 4 260 0
 4723 0d28 7F9E0040 		cmplw 7,30,0
 4724 0d2c 419CFF7C 		blt+ 7,.L263
 4725              	.LVL344:
 4726              	.L259:
 4727              	.LBE4891:
 4728              		.loc 4 270 0
 4729 0d30 807F0130 		lwz 3,304(31)
 4730              	.LBB4896:
 4731              	.LBB4897:
 4732              	.LBB4898:
 4733              	.LBB4899:
 4734              		.loc 5 1256 0
 4735 0d34 817F00FC 		lwz 11,252(31)
 4736              	.LBE4899:
 4737              	.LBE4898:
 4738              	.LBE4897:
 4739              	.LBE4896:
 4740              		.loc 4 270 0
 4741 0d38 2F830000 		cmpwi 7,3,0
 4742              	.LBB4903:
 4743              	.LBB4904:
 4744              	.LBB4905:
 4745              	.LBB4906:
 4746              		.loc 5 1256 0
 4747 0d3c 801F0108 		lwz 0,264(31)
 4748              	.LBE4906:
 4749              	.LBE4905:
 4750              	.LBE4904:
 4751              	.LBE4903:
 4752              	.LBB4910:
 4753              	.LBB4911:
 4754              	.LBB4912:
 4755 0d40 913F00F4 		stw 9,244(31)
 4756              	.LVL345:
 4757              	.LBE4912:
 4758              	.LBE4911:
 4759              	.LBE4910:
 4760              	.LBB4913:
 4761              	.LBB4902:
 4762              	.LBB4901:
 4763              	.LBB4900:
 4764 0d44 917F0100 		stw 11,256(31)
 4765              	.LVL346:
 4766              	.LBE4900:
 4767              	.LBE4901:
 4768              	.LBE4902:
 4769              	.LBE4913:
 4770              	.LBB4914:
 4771              	.LBB4909:
 4772              	.LBB4908:
 4773              	.LBB4907:
 4774 0d48 901F010C 		stw 0,268(31)
 4775              	.LBE4907:
 4776              	.LBE4908:
 4777              	.LBE4909:
 4778              	.LBE4914:
 4779              		.loc 4 270 0
 4780 0d4c 419E0014 		beq- 7,.L264
 4781              		.loc 4 271 0 discriminator 1
 4782 0d50 81230000 		lwz 9,0(3)
 4783              	.LVL347:
 4784 0d54 80090004 		lwz 0,4(9)
 4785 0d58 7C0903A6 		mtctr 0
 4786 0d5c 4E800421 		bctrl
 4787              	.LVL348:
 4788              	.L264:
 4789              		.loc 4 272 0
 4790 0d60 807F0120 		lwz 3,288(31)
 4791 0d64 2F830000 		cmpwi 7,3,0
 4792 0d68 419E0014 		beq- 7,.L265
 4793              		.loc 4 273 0 discriminator 1
 4794 0d6c 81230000 		lwz 9,0(3)
 4795 0d70 80090004 		lwz 0,4(9)
 4796 0d74 7C0903A6 		mtctr 0
 4797 0d78 4E800421 		bctrl
 4798              	.L265:
 4799              		.loc 4 274 0
 4800 0d7c 807F0114 		lwz 3,276(31)
 4801 0d80 2F830000 		cmpwi 7,3,0
 4802 0d84 419E0014 		beq- 7,.L266
 4803              		.loc 4 275 0 discriminator 1
 4804 0d88 81230000 		lwz 9,0(3)
 4805 0d8c 80090004 		lwz 0,4(9)
 4806 0d90 7C0903A6 		mtctr 0
 4807 0d94 4E800421 		bctrl
 4808              	.L266:
 4809              		.loc 4 276 0
 4810 0d98 807F012C 		lwz 3,300(31)
 4811 0d9c 2F830000 		cmpwi 7,3,0
 4812 0da0 419E0014 		beq- 7,.L267
 4813              		.loc 4 277 0 discriminator 1
 4814 0da4 81230000 		lwz 9,0(3)
 4815 0da8 80090004 		lwz 0,4(9)
 4816 0dac 7C0903A6 		mtctr 0
 4817 0db0 4E800421 		bctrl
 4818              	.L267:
 4819              		.loc 4 279 0
 4820 0db4 38000000 		li 0,0
 4821              	.LBE4916:
 4822              		.loc 4 287 0
 4823 0db8 83A1000C 		lwz 29,12(1)
 4824              	.LBB4917:
 4825              		.loc 4 279 0
 4826 0dbc 901F0128 		stw 0,296(31)
 4827              		.loc 4 280 0
 4828 0dc0 901F0124 		stw 0,292(31)
 4829              		.loc 4 281 0
 4830 0dc4 901F0118 		stw 0,280(31)
 4831              		.loc 4 282 0
 4832 0dc8 901F011C 		stw 0,284(31)
 4833              		.loc 4 283 0
 4834 0dcc 901F0130 		stw 0,304(31)
 4835              		.loc 4 284 0
 4836 0dd0 901F0120 		stw 0,288(31)
 4837              		.loc 4 285 0
 4838 0dd4 901F0114 		stw 0,276(31)
 4839              		.loc 4 286 0
 4840 0dd8 901F012C 		stw 0,300(31)
 4841              	.LBE4917:
 4842              		.loc 4 287 0
 4843 0ddc 8001001C 		lwz 0,28(1)
 4844 0de0 83C10010 		lwz 30,16(1)
 4845 0de4 7C0803A6 		mtlr 0
 4846 0de8 83E10014 		lwz 31,20(1)
 4847              	.LVL349:
 4848 0dec 38210018 		addi 1,1,24
 4849              	.LCFI92:
 4850              		.cfi_def_cfa_offset 0
 4851              		.cfi_restore 31
 4852              		.cfi_restore 30
 4853              		.cfi_restore 29
 4854 0df0 4E800020 		blr
 4855              		.cfi_endproc
 4856              	.LFE1604:
 4857              		.size	_ZN8PlayList4HideEv, .-_ZN8PlayList4HideEv
 4858              		.align 2
 4859              		.globl _ZN8PlayList12RemoveEntrieEi
 4860              		.type	_ZN8PlayList12RemoveEntrieEi, @function
 4861              	_ZN8PlayList12RemoveEntrieEi:
 4862              	.LFB1606:
 4863              		.loc 4 306 0
 4864              		.cfi_startproc
 4865              	.LVL350:
 4866              		.loc 4 307 0
 4867 0df4 2C040000 		cmpwi 0,4,0
 4868              		.loc 4 306 0
 4869 0df8 7C0802A6 		mflr 0
 4870 0dfc 9421FFF0 		stwu 1,-16(1)
 4871              	.LCFI93:
 4872              		.cfi_def_cfa_offset 16
 4873              		.cfi_register 65, 0
 4874 0e00 93E1000C 		stw 31,12(1)
 4875 0e04 7C7F1B78 		mr 31,3
 4876              		.cfi_offset 31, -4
 4877 0e08 90010014 		stw 0,20(1)
 4878 0e0c 93C10008 		stw 30,8(1)
 4879              		.loc 4 307 0
 4880 0e10 41800070 		blt- 0,.L269
 4881              		.cfi_offset 30, -8
 4882              		.cfi_offset 65, 4
 4883              		.loc 4 503 0 discriminator 2
 4884 0e14 816300E4 		lwz 11,228(3)
 4885 0e18 812300E8 		lwz 9,232(3)
 4886              	.LBB4955:
 4887              	.LBB4956:
 4888              		.loc 5 571 0 discriminator 2
 4889 0e1c 7C0B4850 		subf 0,11,9
 4890 0e20 7C001670 		srawi 0,0,2
 4891              	.LBE4956:
 4892              	.LBE4955:
 4893              		.loc 4 307 0 discriminator 2
 4894 0e24 7F802000 		cmpw 7,0,4
 4895 0e28 409D0058 		ble- 7,.L269
 4896              	.LVL351:
 4897              	.LBB4957:
 4898              	.LBB4958:
 4899              	.LBB4959:
 4900              		.loc 5 718 0
 4901 0e2c 7F840040 		cmplw 7,4,0
 4902 0e30 409C008C 		bge- 7,.L278
 4903              	.LVL352:
 4904              	.LBE4959:
 4905              	.LBE4958:
 4906              	.LBB4961:
 4907              	.LBB4962:
 4908              		.loc 5 696 0
 4909 0e34 549E103A 		slwi 30,4,2
 4910              	.LBE4962:
 4911              	.LBE4961:
 4912              	.LBE4957:
 4913              		.loc 4 310 0
 4914 0e38 7C6BF02E 		lwzx 3,11,30
 4915              	.LVL353:
 4916              	.LBB4966:
 4917              	.LBB4964:
 4918              	.LBB4963:
 4919              		.loc 5 696 0
 4920 0e3c 7D6BF214 		add 11,11,30
 4921              	.LBE4963:
 4922              	.LBE4964:
 4923              	.LBE4966:
 4924              		.loc 4 310 0
 4925 0e40 2F830000 		cmpwi 7,3,0
 4926 0e44 419E0014 		beq- 7,.L272
 4927              	.LVL354:
 4928              		.loc 4 311 0
 4929 0e48 48000001 		bl _ZdaPv
 4930              	.LVL355:
 4931 0e4c 817F00E4 		lwz 11,228(31)
 4932 0e50 813F00E8 		lwz 9,232(31)
 4933 0e54 7D6BF214 		add 11,11,30
 4934              	.LVL356:
 4935              	.L272:
 4936              	.LBB4967:
 4937              	.LBB4968:
 4938              	.LBB4969:
 4939              	.LBB4970:
 4940              		.file 9 "d:\\devkitpro\\devkitppc\\bin\\../lib/gcc/powerpc-eabi/4.6.3/../../../../powerpc-eabi/inc
 4941              		.loc 9 773 0
 4942 0e58 388B0004 		addi 4,11,4
 4943              	.LVL357:
 4944              	.LBE4970:
 4945              	.LBE4969:
 4946              		.file 10 "d:\\devkitpro\\devkitppc\\bin\\../lib/gcc/powerpc-eabi/4.6.3/../../../../powerpc-eabi/in
 4947              		.loc 10 138 0
 4948 0e5c 7F844800 		cmpw 7,4,9
 4949 0e60 419E0010 		beq- 7,.L273
 4950              	.LVL358:
 4951              	.LBB4971:
 4952              	.LBB4972:
 4953              	.LBB4973:
 4954              	.LBB4974:
 4955              	.LBB4975:
 4956              	.LBB4976:
 4957              		.file 11 "d:\\devkitpro\\devkitppc\\bin\\../lib/gcc/powerpc-eabi/4.6.3/../../../../powerpc-eabi/in
 4958              		.loc 11 364 0
 4959 0e64 7CA44850 		subf 5,4,9
 4960              	.LVL359:
 4961              		.loc 11 365 0
 4962 0e68 7CA51671 		srawi. 5,5,2
 4963              	.LVL360:
 4964 0e6c 4082002C 		bne- 0,.L279
 4965              	.LVL361:
 4966              	.L273:
 4967              	.LBE4976:
 4968              	.LBE4975:
 4969              	.LBE4974:
 4970              	.LBE4973:
 4971              	.LBE4972:
 4972              	.LBE4971:
 4973              		.loc 10 140 0
 4974 0e70 3929FFFC 		addi 9,9,-4
 4975              	.LBE4968:
 4976              	.LBE4967:
 4977              		.loc 4 314 0
 4978 0e74 38000001 		li 0,1
 4979              	.LBB4987:
 4980              	.LBB4983:
 4981              		.loc 10 140 0
 4982 0e78 913F00E8 		stw 9,232(31)
 4983              	.LBE4983:
 4984              	.LBE4987:
 4985              		.loc 4 314 0
 4986 0e7c 981F00E1 		stb 0,225(31)
 4987              	.LVL362:
 4988              	.L269:
 4989              		.loc 4 315 0
 4990 0e80 80010014 		lwz 0,20(1)
 4991 0e84 83C10008 		lwz 30,8(1)
 4992 0e88 7C0803A6 		mtlr 0
 4993 0e8c 83E1000C 		lwz 31,12(1)
 4994              	.LVL363:
 4995 0e90 38210010 		addi 1,1,16
 4996              		.cfi_remember_state
 4997              	.LCFI94:
 4998              		.cfi_def_cfa_offset 0
 4999              		.cfi_restore 31
 5000              		.cfi_restore 30
 5001 0e94 4E800020 		blr
 5002              	.LVL364:
 5003              	.L279:
 5004              	.LCFI95:
 5005              		.cfi_restore_state
 5006              	.LBB4988:
 5007              	.LBB4984:
 5008              	.LBB4982:
 5009              	.LBB4981:
 5010              	.LBB4980:
 5011              	.LBB4979:
 5012              	.LBB4978:
 5013              	.LBB4977:
 5014              		.loc 11 366 0
 5015 0e98 7D635B78 		mr 3,11
 5016 0e9c 54A5103A 		slwi 5,5,2
 5017              	.LVL365:
 5018 0ea0 48000001 		bl memmove
 5019              	.LVL366:
 5020 0ea4 813F00E8 		lwz 9,232(31)
 5021              	.LBE4977:
 5022              	.LBE4978:
 5023              	.LBE4979:
 5024              	.LBE4980:
 5025              	.LBE4981:
 5026              	.LBE4982:
 5027              	.LBE4984:
 5028              	.LBE4988:
 5029              		.loc 4 314 0
 5030 0ea8 38000001 		li 0,1
 5031              	.LBB4989:
 5032              	.LBB4985:
 5033              		.loc 10 140 0
 5034 0eac 3929FFFC 		addi 9,9,-4
 5035              	.LBE4985:
 5036              	.LBE4989:
 5037              		.loc 4 314 0
 5038 0eb0 981F00E1 		stb 0,225(31)
 5039              	.LBB4990:
 5040              	.LBB4986:
 5041              		.loc 10 140 0
 5042 0eb4 913F00E8 		stw 9,232(31)
 5043 0eb8 4BFFFFC8 		b .L269
 5044              	.LVL367:
 5045              	.L278:
 5046              	.LBE4986:
 5047              	.LBE4990:
 5048              	.LBB4991:
 5049              	.LBB4965:
 5050              	.LBB4960:
 5051              		.loc 5 719 0
 5052 0ebc 3C600000 		lis 3,.LC10@ha
 5053 0ec0 38630078 		la 3,.LC10@l(3)
 5054 0ec4 48000001 		bl _ZSt20__throw_out_of_rangePKc
 5055              	.LVL368:
 5056              	.LVL369:
 5057              	.LVL370:
 5058              	.LBE4960:
 5059              	.LBE4965:
 5060              	.LBE4991:
 5061              		.cfi_endproc
 5062              	.LFE1606:
 5063              		.size	_ZN8PlayList12RemoveEntrieEi, .-_ZN8PlayList12RemoveEntrieEi
 5064              		.align 2
 5065              		.globl _ZN8PlayList9ClearListEv
 5066              		.type	_ZN8PlayList9ClearListEv, @function
 5067              	_ZN8PlayList9ClearListEv:
 5068              	.LFB1607:
 5069              		.loc 4 318 0
 5070              		.cfi_startproc
 5071              	.LVL371:
 5072 0ec8 7C0802A6 		mflr 0
 5073 0ecc 9421FFE8 		stwu 1,-24(1)
 5074              	.LCFI96:
 5075              		.cfi_def_cfa_offset 24
 5076              		.cfi_register 65, 0
 5077 0ed0 93E10014 		stw 31,20(1)
 5078 0ed4 7C7F1B78 		mr 31,3
 5079              		.cfi_offset 31, -4
 5080 0ed8 9001001C 		stw 0,28(1)
 5081 0edc 93A1000C 		stw 29,12(1)
 5082              	.LBB5056:
 5083              	.LBB5057:
 5084              		.loc 4 503 0
 5085 0ee0 816300E4 		lwz 11,228(3)
 5086 0ee4 814300E8 		lwz 10,232(3)
 5087              	.LBE5057:
 5088              	.LBE5056:
 5089              		.loc 4 318 0
 5090 0ee8 93C10010 		stw 30,16(1)
 5091              	.LBB5107:
 5092              	.LBB5064:
 5093              		.loc 4 319 0
 5094 0eec 7D605B78 		mr 0,11
 5095              		.cfi_offset 30, -8
 5096              		.cfi_offset 29, -12
 5097              		.cfi_offset 65, 4
 5098              	.LBB5065:
 5099              	.LBB5066:
 5100              		.loc 5 571 0
 5101 0ef0 7D2B5050 		subf 9,11,10
 5102              	.LBE5066:
 5103              	.LBE5065:
 5104              		.loc 4 319 0
 5105 0ef4 7D291671 		srawi. 9,9,2
 5106 0ef8 41820068 		beq- 0,.L281
 5107 0efc 3BC00000 		li 30,0
 5108 0f00 48000008 		b .L285
 5109              	.LVL372:
 5110              	.L294:
 5111              		.loc 4 503 0
 5112 0f04 7C0B0378 		mr 11,0
 5113              	.LVL373:
 5114              	.L285:
 5115              		.loc 4 317 0
 5116 0f08 57DD103A 		slwi 29,30,2
 5117              		.loc 4 321 0
 5118 0f0c 7C6BE82E 		lwzx 3,11,29
 5119 0f10 2F830000 		cmpwi 7,3,0
 5120 0f14 419E0038 		beq- 7,.L282
 5121              	.LVL374:
 5122              	.LBB5069:
 5123              	.LBB5070:
 5124              	.LBB5071:
 5125              		.loc 5 718 0
 5126 0f18 7F89F040 		cmplw 7,9,30
 5127 0f1c 409D0104 		ble- 7,.L296
 5128              	.LBE5071:
 5129              	.LBE5070:
 5130              	.LBE5069:
 5131              		.loc 4 323 0
 5132 0f20 48000001 		bl _ZdaPv
 5133              	.LVL375:
 5134              	.LBB5072:
 5135              	.LBB5073:
 5136              		.loc 4 503 0
 5137 0f24 813F00E4 		lwz 9,228(31)
 5138              	.LBB5074:
 5139              	.LBB5075:
 5140              	.LBB5076:
 5141              		.loc 5 571 0
 5142 0f28 801F00E8 		lwz 0,232(31)
 5143 0f2c 7C090050 		subf 0,9,0
 5144 0f30 7C001670 		srawi 0,0,2
 5145              	.LBE5076:
 5146              	.LBE5075:
 5147              		.loc 5 718 0
 5148 0f34 7F9E0040 		cmplw 7,30,0
 5149 0f38 409C00E8 		bge- 7,.L296
 5150              	.LBE5074:
 5151              	.LBE5073:
 5152              	.LBE5072:
 5153              		.loc 4 324 0
 5154 0f3c 38000000 		li 0,0
 5155 0f40 7C09E92E 		stwx 0,9,29
 5156 0f44 801F00E4 		lwz 0,228(31)
 5157 0f48 815F00E8 		lwz 10,232(31)
 5158              	.LVL376:
 5159              	.L282:
 5160              	.LBB5079:
 5161              	.LBB5067:
 5162              		.loc 5 571 0
 5163 0f4c 7D205050 		subf 9,0,10
 5164              	.LBE5067:
 5165              	.LBE5079:
 5166              		.loc 4 319 0
 5167 0f50 3BDE0001 		addi 30,30,1
 5168              	.LVL377:
 5169              	.LBB5080:
 5170              	.LBB5068:
 5171              		.loc 5 571 0
 5172 0f54 7D291670 		srawi 9,9,2
 5173              	.LBE5068:
 5174              	.LBE5080:
 5175              		.loc 4 319 0
 5176 0f58 7F9E4840 		cmplw 7,30,9
 5177 0f5c 419CFFA8 		blt+ 7,.L294
 5178              	.LVL378:
 5179              	.L281:
 5180              	.LBE5064:
 5181              	.LBB5082:
 5182              	.LBB5083:
 5183              	.LBB5084:
 5184              	.LBB5085:
 5185              	.LBB5086:
 5186              	.LBB5087:
 5187              		.loc 5 155 0
 5188 0f60 2F800000 		cmpwi 7,0,0
 5189              	.LBE5087:
 5190              	.LBE5086:
 5191              	.LBE5085:
 5192              	.LBE5084:
 5193              	.LBE5083:
 5194              	.LBE5082:
 5195              	.LBB5095:
 5196              	.LBB5096:
 5197              	.LBB5097:
 5198              		.file 12 "d:\\devkitpro\\devkitppc\\bin\\../lib/gcc/powerpc-eabi/4.6.3/../../../../powerpc-eabi/in
 5199              		.loc 12 129 0
 5200 0f64 39200000 		li 9,0
 5201 0f68 913F00E4 		stw 9,228(31)
 5202              	.LVL379:
 5203              	.LBE5097:
 5204              	.LBE5096:
 5205              	.LBB5098:
 5206              	.LBB5099:
 5207 0f6c 913F00E8 		stw 9,232(31)
 5208              	.LVL380:
 5209              	.LBE5099:
 5210              	.LBE5098:
 5211              	.LBB5100:
 5212              	.LBB5101:
 5213 0f70 913F00EC 		stw 9,236(31)
 5214              	.LVL381:
 5215              	.LBE5101:
 5216              	.LBE5100:
 5217              	.LBE5095:
 5218              	.LBB5102:
 5219              	.LBB5094:
 5220              	.LBB5093:
 5221              	.LBB5092:
 5222              	.LBB5091:
 5223              	.LBB5090:
 5224              		.loc 5 155 0
 5225 0f74 419E000C 		beq- 7,.L290
 5226              	.LVL382:
 5227              	.LBB5088:
 5228              	.LBB5089:
 5229              		.loc 7 98 0
 5230 0f78 7C030378 		mr 3,0
 5231 0f7c 48000001 		bl _ZdlPv
 5232              	.LVL383:
 5233              	.L290:
 5234              	.LBE5089:
 5235              	.LBE5088:
 5236              	.LBE5090:
 5237              	.LBE5091:
 5238              	.LBE5092:
 5239              	.LBE5093:
 5240              	.LBE5094:
 5241              	.LBE5102:
 5242              		.loc 4 503 0
 5243 0f80 813F00F0 		lwz 9,240(31)
 5244              		.loc 4 330 0
 5245 0f84 38000000 		li 0,0
 5246              	.LBB5103:
 5247              	.LBB5058:
 5248              	.LBB5059:
 5249              		.loc 5 571 0
 5250 0f88 817F00F4 		lwz 11,244(31)
 5251              	.LBE5059:
 5252              	.LBE5058:
 5253              	.LBE5103:
 5254              		.loc 4 330 0
 5255 0f8c 901F00D8 		stw 0,216(31)
 5256              	.LBB5104:
 5257              	.LBB5062:
 5258              	.LBB5060:
 5259              		.loc 5 571 0
 5260 0f90 7D695850 		subf 11,9,11
 5261              	.LBE5060:
 5262              	.LBE5062:
 5263              	.LBE5104:
 5264              		.loc 4 331 0
 5265 0f94 901F00DC 		stw 0,220(31)
 5266              	.LVL384:
 5267              	.LBB5105:
 5268              		.loc 4 333 0
 5269 0f98 556AF0BF 		srwi. 10,11,2
 5270 0f9c 41820060 		beq- 0,.L291
 5271 0fa0 3BC00000 		li 30,0
 5272              	.LVL385:
 5273              	.L292:
 5274              		.loc 4 317 0 discriminator 2
 5275 0fa4 57DD103A 		slwi 29,30,2
 5276              		.loc 4 335 0 discriminator 2
 5277 0fa8 38800000 		li 4,0
 5278 0fac 7C69E82E 		lwzx 3,9,29
 5279              		.loc 4 333 0 discriminator 2
 5280 0fb0 3BDE0001 		addi 30,30,1
 5281              	.LVL386:
 5282              		.loc 4 335 0 discriminator 2
 5283 0fb4 81230000 		lwz 9,0(3)
 5284 0fb8 80090030 		lwz 0,48(9)
 5285 0fbc 7C0903A6 		mtctr 0
 5286 0fc0 4E800421 		bctrl
 5287              		.loc 4 336 0 discriminator 2
 5288 0fc4 813F00F0 		lwz 9,240(31)
 5289 0fc8 38800004 		li 4,4
 5290 0fcc 38A0FFFF 		li 5,-1
 5291 0fd0 7C69E82E 		lwzx 3,9,29
 5292 0fd4 81230000 		lwz 9,0(3)
 5293 0fd8 80090050 		lwz 0,80(9)
 5294 0fdc 7C0903A6 		mtctr 0
 5295 0fe0 4E800421 		bctrl
 5296              	.LVL387:
 5297              		.loc 4 503 0 discriminator 2
 5298 0fe4 813F00F0 		lwz 9,240(31)
 5299              	.LBB5063:
 5300              	.LBB5061:
 5301              		.loc 5 571 0 discriminator 2
 5302 0fe8 801F00F4 		lwz 0,244(31)
 5303 0fec 7C090050 		subf 0,9,0
 5304 0ff0 7C001670 		srawi 0,0,2
 5305              	.LBE5061:
 5306              	.LBE5063:
 5307              		.loc 4 333 0 discriminator 2
 5308 0ff4 7F9E0040 		cmplw 7,30,0
 5309 0ff8 419CFFAC 		blt+ 7,.L292
 5310              	.LVL388:
 5311              	.L291:
 5312              	.LBE5105:
 5313              		.loc 4 339 0
 5314 0ffc 38000001 		li 0,1
 5315              	.LBE5107:
 5316              		.loc 4 340 0
 5317 1000 83A1000C 		lwz 29,12(1)
 5318              	.LBB5108:
 5319              		.loc 4 339 0
 5320 1004 981F00E1 		stb 0,225(31)
 5321              	.LBE5108:
 5322              		.loc 4 340 0
 5323 1008 8001001C 		lwz 0,28(1)
 5324 100c 83C10010 		lwz 30,16(1)
 5325 1010 7C0803A6 		mtlr 0
 5326 1014 83E10014 		lwz 31,20(1)
 5327              	.LVL389:
 5328 1018 38210018 		addi 1,1,24
 5329              		.cfi_remember_state
 5330              	.LCFI97:
 5331              		.cfi_def_cfa_offset 0
 5332              		.cfi_restore 31
 5333              		.cfi_restore 30
 5334              		.cfi_restore 29
 5335 101c 4E800020 		blr
 5336              	.LVL390:
 5337              	.L296:
 5338              	.LCFI98:
 5339              		.cfi_restore_state
 5340              	.LBB5109:
 5341              	.LBB5106:
 5342              	.LBB5081:
 5343              	.LBB5078:
 5344              	.LBB5077:
 5345              		.loc 5 719 0
 5346 1020 3C600000 		lis 3,.LC10@ha
 5347 1024 38630078 		la 3,.LC10@l(3)
 5348 1028 48000001 		bl _ZSt20__throw_out_of_rangePKc
 5349              	.LBE5077:
 5350              	.LBE5078:
 5351              	.LBE5081:
 5352              	.LBE5106:
 5353              	.LBE5109:
 5354              		.cfi_endproc
 5355              	.LFE1607:
 5356              		.size	_ZN8PlayList9ClearListEv, .-_ZN8PlayList9ClearListEv
 5357              		.align 2
 5358              		.globl _ZN8PlayList8FindFileEPKc
 5359              		.type	_ZN8PlayList8FindFileEPKc, @function
 5360              	_ZN8PlayList8FindFileEPKc:
 5361              	.LFB1608:
 5362              		.loc 4 343 0
 5363              		.cfi_startproc
 5364              	.LVL391:
 5365 102c 9421FFE8 		stwu 1,-24(1)
 5366              	.LCFI99:
 5367              		.cfi_def_cfa_offset 24
 5368 1030 7C0802A6 		mflr 0
 5369 1034 7C691B78 		mr 9,3
 5370              	.LBB5110:
 5371              		.loc 4 345 0
 5372 1038 3860FFFF 		li 3,-1
 5373              	.LVL392:
 5374              	.LBE5110:
 5375              		.loc 4 343 0
 5376 103c 93A1000C 		stw 29,12(1)
 5377              	.LBB5115:
 5378              		.loc 4 344 0
 5379 1040 7C9D2379 		mr. 29,4
 5380              		.cfi_offset 29, -12
 5381              		.cfi_register 65, 0
 5382              	.LBE5115:
 5383              		.loc 4 343 0
 5384 1044 9001001C 		stw 0,28(1)
 5385 1048 93810008 		stw 28,8(1)
 5386 104c 93C10010 		stw 30,16(1)
 5387 1050 93E10014 		stw 31,20(1)
 5388              	.LBB5116:
 5389              		.loc 4 344 0
 5390 1054 41820048 		beq- 0,.L298
 5391              		.cfi_offset 31, -4
 5392              		.cfi_offset 30, -8
 5393              		.cfi_offset 28, -16
 5394              		.cfi_offset 65, 4
 5395              	.LVL393:
 5396              		.loc 4 503 0 discriminator 1
 5397 1058 83C900E4 		lwz 30,228(9)
 5398              	.LBB5111:
 5399              	.LBB5112:
 5400              	.LBB5113:
 5401              		.loc 5 571 0 discriminator 1
 5402 105c 838900E8 		lwz 28,232(9)
 5403 1060 7F9EE050 		subf 28,30,28
 5404              	.LBE5113:
 5405              	.LBE5112:
 5406              		.loc 4 347 0 discriminator 1
 5407 1064 7F9C1671 		srawi. 28,28,2
 5408 1068 41820034 		beq- 0,.L298
 5409              		.loc 4 347 0 is_stmt 0
 5410 106c 3BE00000 		li 31,0
 5411 1070 48000010 		b .L300
 5412              	.LVL394:
 5413              	.L299:
 5414 1074 3BFF0001 		addi 31,31,1
 5415              	.LVL395:
 5416 1078 7F9FE000 		cmpw 7,31,28
 5417 107c 419E0040 		beq- 7,.L304
 5418              	.LVL396:
 5419              	.L300:
 5420              		.loc 4 349 0 is_stmt 1
 5421 1080 57E0103A 		slwi 0,31,2
 5422 1084 7FA3EB78 		mr 3,29
 5423 1088 7C9E002E 		lwzx 4,30,0
 5424 108c 48000001 		bl strcasecmp
 5425 1090 2F830000 		cmpwi 7,3,0
 5426 1094 409EFFE0 		bne+ 7,.L299
 5427              		.loc 4 350 0
 5428 1098 7FE3FB78 		mr 3,31
 5429              	.LVL397:
 5430              	.L298:
 5431              	.LBE5111:
 5432              	.LBE5116:
 5433              		.loc 4 354 0
 5434 109c 8001001C 		lwz 0,28(1)
 5435 10a0 83810008 		lwz 28,8(1)
 5436 10a4 7C0803A6 		mtlr 0
 5437 10a8 83A1000C 		lwz 29,12(1)
 5438              	.LVL398:
 5439 10ac 83C10010 		lwz 30,16(1)
 5440 10b0 83E10014 		lwz 31,20(1)
 5441 10b4 38210018 		addi 1,1,24
 5442              		.cfi_remember_state
 5443              	.LCFI100:
 5444              		.cfi_def_cfa_offset 0
 5445              		.cfi_restore 31
 5446              		.cfi_restore 30
 5447              		.cfi_restore 29
 5448              		.cfi_restore 28
 5449 10b8 4E800020 		blr
 5450              	.LVL399:
 5451              	.L304:
 5452              	.LCFI101:
 5453              		.cfi_restore_state
 5454 10bc 8001001C 		lwz 0,28(1)
 5455              	.LBB5117:
 5456              	.LBB5114:
 5457              		.loc 4 353 0
 5458 10c0 3860FFFF 		li 3,-1
 5459              	.LBE5114:
 5460              	.LBE5117:
 5461              		.loc 4 354 0
 5462 10c4 83810008 		lwz 28,8(1)
 5463 10c8 7C0803A6 		mtlr 0
 5464 10cc 83A1000C 		lwz 29,12(1)
 5465              	.LVL400:
 5466 10d0 83C10010 		lwz 30,16(1)
 5467 10d4 83E10014 		lwz 31,20(1)
 5468              	.LVL401:
 5469 10d8 38210018 		addi 1,1,24
 5470              		.cfi_restore 28
 5471              		.cfi_restore 29
 5472              		.cfi_restore 30
 5473              		.cfi_restore 31
 5474              	.LCFI102:
 5475              		.cfi_def_cfa_offset 0
 5476 10dc 4E800020 		blr
 5477              		.cfi_endproc
 5478              	.LFE1608:
 5479              		.size	_ZN8PlayList8FindFileEPKc, .-_ZN8PlayList8FindFileEPKc
 5480              		.align 2
 5481              		.globl _ZN8PlayList2atEi
 5482              		.type	_ZN8PlayList2atEi, @function
 5483              	_ZN8PlayList2atEi:
 5484              	.LFB1609:
 5485              		.loc 4 357 0
 5486              		.cfi_startproc
 5487              	.LVL402:
 5488              		.loc 4 358 0
 5489 10e0 2C040000 		cmpwi 0,4,0
 5490              		.loc 4 357 0
 5491 10e4 7C691B78 		mr 9,3
 5492              		.loc 4 359 0
 5493 10e8 38600000 		li 3,0
 5494              	.LVL403:
 5495              		.loc 4 358 0
 5496 10ec 4D800020 		bltlr- 0
 5497              		.loc 4 503 0 discriminator 2
 5498 10f0 816900E4 		lwz 11,228(9)
 5499              	.LBB5118:
 5500              	.LBB5119:
 5501              		.loc 5 571 0 discriminator 2
 5502 10f4 800900E8 		lwz 0,232(9)
 5503 10f8 7C0B0050 		subf 0,11,0
 5504 10fc 7C001670 		srawi 0,0,2
 5505              	.LBE5119:
 5506              	.LBE5118:
 5507              		.loc 4 358 0 discriminator 2
 5508 1100 7F840000 		cmpw 7,4,0
 5509 1104 419C0008 		blt- 7,.L307
 5510              		.loc 4 362 0
 5511 1108 4E800020 		blr
 5512              	.L307:
 5513              	.LVL404:
 5514              		.loc 4 361 0
 5515 110c 5484103A 		slwi 4,4,2
 5516              	.LVL405:
 5517 1110 7C6B202E 		lwzx 3,11,4
 5518 1114 4E800020 		blr
 5519              		.cfi_endproc
 5520              	.LFE1609:
 5521              		.size	_ZN8PlayList2atEi, .-_ZN8PlayList2atEi
 5522              		.section	.text._ZNSt6vectorIP8GuiImageSaIS1_EE13_M_insert_auxEN9__gnu_cxx17__normal_iteratorIPS1_S
 5523              		.align 2
 5524              		.weak	_ZNSt6vectorIP8GuiImageSaIS1_EE13_M_insert_auxEN9__gnu_cxx17__normal_iteratorIPS1_S3_EERKS1_
 5525              		.type	_ZNSt6vectorIP8GuiImageSaIS1_EE13_M_insert_auxEN9__gnu_cxx17__normal_iteratorIPS1_S3_EERKS1_
 5526              	_ZNSt6vectorIP8GuiImageSaIS1_EE13_M_insert_auxEN9__gnu_cxx17__normal_iteratorIPS1_S3_EERKS1_:
 5527              	.LFB1895:
 5528              		.loc 10 300 0
 5529              		.cfi_startproc
 5530              	.LVL406:
 5531 0000 7C0802A6 		mflr 0
 5532 0004 9421FFD8 		stwu 1,-40(1)
 5533              	.LCFI103:
 5534              		.cfi_def_cfa_offset 40
 5535              		.cfi_register 65, 0
 5536 0008 93810018 		stw 28,24(1)
 5537 000c 9001002C 		stw 0,44(1)
 5538 0010 93C10020 		stw 30,32(1)
 5539              	.LBB5120:
 5540              		.loc 10 304 0
 5541 0014 83830004 		lwz 28,4(3)
 5542              		.cfi_offset 30, -8
 5543              		.cfi_offset 65, 4
 5544              		.cfi_offset 28, -16
 5545 0018 80030008 		lwz 0,8(3)
 5546              	.LBE5120:
 5547              		.loc 10 300 0
 5548 001c 93E10024 		stw 31,36(1)
 5549 0020 7C7F1B78 		mr 31,3
 5550              		.cfi_offset 31, -4
 5551              	.LBB5267:
 5552              		.loc 10 304 0
 5553 0024 7F9C0000 		cmpw 7,28,0
 5554              	.LBE5267:
 5555              		.loc 10 300 0
 5556 0028 93410010 		stw 26,16(1)
 5557 002c 93610014 		stw 27,20(1)
 5558 0030 93A1001C 		stw 29,28(1)
 5559              		.loc 10 300 0
 5560 0034 83C40000 		lwz 30,0(4)
 5561              	.LVL407:
 5562              	.LBB5268:
 5563              		.loc 10 304 0
 5564 0038 419E0078 		beq- 7,.L310
 5565              		.cfi_offset 29, -12
 5566              		.cfi_offset 27, -20
 5567              		.cfi_offset 26, -24
 5568              	.LVL408:
 5569              	.LBB5121:
 5570              	.LBB5122:
 5571              	.LBB5123:
 5572              		.loc 7 108 0
 5573 003c 2F9C0000 		cmpwi 7,28,0
 5574 0040 38600000 		li 3,0
 5575              	.LVL409:
 5576 0044 419E0010 		beq- 7,.L311
 5577 0048 801CFFFC 		lwz 0,-4(28)
 5578 004c 901C0000 		stw 0,0(28)
 5579 0050 807F0004 		lwz 3,4(31)
 5580              	.L311:
 5581              	.LBE5123:
 5582              	.LBE5122:
 5583              		.loc 10 313 0
 5584 0054 3803FFFC 		addi 0,3,-4
 5585              		.loc 10 309 0
 5586 0058 39230004 		addi 9,3,4
 5587              	.LBB5124:
 5588              	.LBB5125:
 5589              	.LBB5126:
 5590              	.LBB5127:
 5591              	.LBB5128:
 5592              	.LBB5129:
 5593              		.loc 11 559 0
 5594 005c 7C1E0050 		subf 0,30,0
 5595              	.LBE5129:
 5596              	.LBE5128:
 5597              	.LBE5127:
 5598              	.LBE5126:
 5599              	.LBE5125:
 5600              	.LBE5124:
 5601              		.loc 10 309 0
 5602 0060 913F0004 		stw 9,4(31)
 5603              	.LBB5145:
 5604              	.LBB5142:
 5605              	.LBB5139:
 5606              	.LBB5136:
 5607              	.LBB5133:
 5608              	.LBB5130:
 5609              		.loc 11 560 0
 5610 0064 7C001671 		srawi. 0,0,2
 5611              	.LBE5130:
 5612              	.LBE5133:
 5613              	.LBE5136:
 5614              	.LBE5139:
 5615              	.LBE5142:
 5616              	.LBE5145:
 5617              		.loc 10 311 0
 5618 0068 83E50000 		lwz 31,0(5)
 5619              	.LVL410:
 5620              	.LBB5146:
 5621              	.LBB5143:
 5622              	.LBB5140:
 5623              	.LBB5137:
 5624              	.LBB5134:
 5625              	.LBB5131:
 5626              		.loc 11 560 0
 5627 006c 40820030 		bne- 0,.L326
 5628              	.LVL411:
 5629              	.L312:
 5630              	.LBE5131:
 5631              	.LBE5134:
 5632              	.LBE5137:
 5633              	.LBE5140:
 5634              	.LBE5143:
 5635              	.LBE5146:
 5636              	.LBE5121:
 5637              	.LBE5268:
 5638              		.loc 10 373 0
 5639 0070 8001002C 		lwz 0,44(1)
 5640              	.LBB5269:
 5641              	.LBB5148:
 5642              		.loc 10 317 0
 5643 0074 93FE0000 		stw 31,0(30)
 5644              	.LBE5148:
 5645              	.LBE5269:
 5646              		.loc 10 373 0
 5647 0078 7C0803A6 		mtlr 0
 5648 007c 83410010 		lwz 26,16(1)
 5649 0080 83610014 		lwz 27,20(1)
 5650 0084 83810018 		lwz 28,24(1)
 5651              	.LVL412:
 5652 0088 83A1001C 		lwz 29,28(1)
 5653 008c 83C10020 		lwz 30,32(1)
 5654              	.LVL413:
 5655 0090 83E10024 		lwz 31,36(1)
 5656              	.LVL414:
 5657 0094 38210028 		addi 1,1,40
 5658              		.cfi_remember_state
 5659              	.LCFI104:
 5660              		.cfi_def_cfa_offset 0
 5661              		.cfi_restore 31
 5662              		.cfi_restore 30
 5663              		.cfi_restore 29
 5664              		.cfi_restore 28
 5665              		.cfi_restore 27
 5666              		.cfi_restore 26
 5667 0098 4E800020 		blr
 5668              	.LVL415:
 5669              	.L326:
 5670              	.LCFI105:
 5671              		.cfi_restore_state
 5672              	.LBB5270:
 5673              	.LBB5149:
 5674              	.LBB5147:
 5675              	.LBB5144:
 5676              	.LBB5141:
 5677              	.LBB5138:
 5678              	.LBB5135:
 5679              	.LBB5132:
 5680              		.loc 11 561 0
 5681 009c 5405103A 		slwi 5,0,2
 5682              	.LVL416:
 5683 00a0 7FC4F378 		mr 4,30
 5684 00a4 7C651850 		subf 3,5,3
 5685              	.LVL417:
 5686 00a8 48000001 		bl memmove
 5687              	.LVL418:
 5688 00ac 4BFFFFC4 		b .L312
 5689              	.LVL419:
 5690              	.L310:
 5691              	.LBE5132:
 5692              	.LBE5135:
 5693              	.LBE5138:
 5694              	.LBE5141:
 5695              	.LBE5144:
 5696              	.LBE5147:
 5697              	.LBE5149:
 5698              	.LBB5150:
 5699              	.LBB5151:
 5700              	.LBB5152:
 5701              	.LBB5153:
 5702              	.LBB5154:
 5703              		.loc 5 571 0
 5704 00b0 83630000 		lwz 27,0(3)
 5705 00b4 7F9BE050 		subf 28,27,28
 5706              	.LBE5154:
 5707              	.LBE5153:
 5708              	.LBB5155:
 5709              	.LBB5156:
 5710              		.loc 11 215 0
 5711 00b8 7F9C1671 		srawi. 28,28,2
 5712 00bc 418200C4 		beq- 0,.L314
 5713              	.LBE5156:
 5714              	.LBE5155:
 5715              		.loc 5 1244 0
 5716 00c0 5780083C 		slwi 0,28,1
 5717              	.LVL420:
 5718              		.loc 5 1245 0
 5719 00c4 7F9C0040 		cmplw 7,28,0
 5720 00c8 409D00F4 		ble- 7,.L327
 5721              	.L315:
 5722              	.LVL421:
 5723              	.LBE5152:
 5724              	.LBE5151:
 5725              	.LBB5159:
 5726              	.LBB5160:
 5727              		.loc 9 892 0
 5728 00cc 7F7BF050 		subf 27,27,30
 5729              	.LBE5160:
 5730              	.LBE5159:
 5731              		.loc 10 326 0
 5732 00d0 3B80FFFC 		li 28,-4
 5733              	.LBB5166:
 5734              	.LBB5161:
 5735              		.loc 9 892 0
 5736 00d4 7F7B1670 		srawi 27,27,2
 5737              	.LVL422:
 5738              	.L321:
 5739              	.LBE5161:
 5740              	.LBE5166:
 5741              	.LBB5167:
 5742              	.LBB5168:
 5743              	.LBB5169:
 5744              	.LBB5170:
 5745              		.loc 7 92 0
 5746 00d8 7F83E378 		mr 3,28
 5747              	.LVL423:
 5748 00dc 90A10008 		stw 5,8(1)
 5749 00e0 48000001 		bl _Znwj
 5750              	.LVL424:
 5751 00e4 80A10008 		lwz 5,8(1)
 5752 00e8 7C7D1B78 		mr 29,3
 5753              	.L316:
 5754              	.LVL425:
 5755              	.LBE5170:
 5756              	.LBE5169:
 5757              	.LBE5168:
 5758              	.LBE5167:
 5759              		.loc 10 335 0
 5760 00ec 577B103A 		slwi 27,27,2
 5761              	.LVL426:
 5762 00f0 7C1DDA14 		add 0,29,27
 5763              	.LVL427:
 5764              	.LBB5173:
 5765              	.LBB5174:
 5766              		.loc 7 108 0
 5767 00f4 2F800000 		cmpwi 7,0,0
 5768 00f8 419E000C 		beq- 7,.L317
 5769 00fc 80050000 		lwz 0,0(5)
 5770              	.LVL428:
 5771 0100 7C1DD92E 		stwx 0,29,27
 5772              	.L317:
 5773              	.LVL429:
 5774              	.LBE5174:
 5775              	.LBE5173:
 5776              		.loc 10 343 0
 5777 0104 809F0000 		lwz 4,0(31)
 5778              	.LVL430:
 5779              	.LBB5175:
 5780              	.LBB5176:
 5781              	.LBB5177:
 5782              	.LBB5178:
 5783              	.LBB5179:
 5784              	.LBB5180:
 5785              	.LBB5181:
 5786              	.LBB5182:
 5787              	.LBB5183:
 5788              	.LBB5184:
 5789              	.LBB5185:
 5790              		.loc 11 365 0
 5791 0108 3B600000 		li 27,0
 5792              		.loc 11 364 0
 5793 010c 7C04F050 		subf 0,4,30
 5794              	.LVL431:
 5795              		.loc 11 365 0
 5796 0110 7C001671 		srawi. 0,0,2
 5797              	.LVL432:
 5798 0114 4082007C 		bne- 0,.L328
 5799              	.LVL433:
 5800              	.L318:
 5801              	.LBE5185:
 5802              	.LBE5184:
 5803              	.LBE5183:
 5804              	.LBE5182:
 5805              	.LBE5181:
 5806              	.LBE5180:
 5807              	.LBE5179:
 5808              	.LBE5178:
 5809              	.LBE5177:
 5810              	.LBE5176:
 5811              	.LBE5175:
 5812              	.LBB5206:
 5813              	.LBB5207:
 5814              	.LBB5208:
 5815              	.LBB5209:
 5816              	.LBB5210:
 5817              	.LBB5211:
 5818              	.LBB5212:
 5819              	.LBB5213:
 5820              	.LBB5214:
 5821              	.LBB5215:
 5822              	.LBB5216:
 5823              		.loc 11 364 0
 5824 0118 801F0004 		lwz 0,4(31)
 5825              	.LBE5216:
 5826              	.LBE5215:
 5827              	.LBE5214:
 5828              	.LBE5213:
 5829              	.LBE5212:
 5830              	.LBE5211:
 5831              	.LBE5210:
 5832              	.LBE5209:
 5833              	.LBE5208:
 5834              	.LBE5207:
 5835              	.LBE5206:
 5836              	.LBB5247:
 5837              	.LBB5204:
 5838              	.LBB5202:
 5839              	.LBB5200:
 5840              	.LBB5198:
 5841              	.LBB5196:
 5842              	.LBB5194:
 5843              	.LBB5192:
 5844              	.LBB5190:
 5845              	.LBB5188:
 5846              	.LBB5186:
 5847              		.loc 11 367 0
 5848 011c 7F7DDA14 		add 27,29,27
 5849              	.LVL434:
 5850              	.LBE5186:
 5851              	.LBE5188:
 5852              	.LBE5190:
 5853              	.LBE5192:
 5854              	.LBE5194:
 5855              	.LBE5196:
 5856              	.LBE5198:
 5857              	.LBE5200:
 5858              	.LBE5202:
 5859              	.LBE5204:
 5860              	.LBE5247:
 5861              		.loc 10 347 0
 5862 0120 3B5B0004 		addi 26,27,4
 5863              	.LBB5248:
 5864              	.LBB5244:
 5865              	.LBB5241:
 5866              	.LBB5238:
 5867              	.LBB5235:
 5868              	.LBB5232:
 5869              	.LBB5229:
 5870              	.LBB5226:
 5871              	.LBB5223:
 5872              	.LBB5220:
 5873              	.LBB5217:
 5874              		.loc 11 365 0
 5875 0124 3B600000 		li 27,0
 5876              	.LVL435:
 5877              		.loc 11 364 0
 5878 0128 7C1E0050 		subf 0,30,0
 5879              	.LVL436:
 5880              		.loc 11 365 0
 5881 012c 7C001671 		srawi. 0,0,2
 5882              	.LVL437:
 5883 0130 40820074 		bne- 0,.L329
 5884              	.LVL438:
 5885              	.L319:
 5886              	.LBE5217:
 5887              	.LBE5220:
 5888              	.LBE5223:
 5889              	.LBE5226:
 5890              	.LBE5229:
 5891              	.LBE5232:
 5892              	.LBE5235:
 5893              	.LBE5238:
 5894              	.LBE5241:
 5895              	.LBE5244:
 5896              	.LBE5248:
 5897              		.loc 10 366 0
 5898 0134 807F0000 		lwz 3,0(31)
 5899              	.LBB5249:
 5900              	.LBB5245:
 5901              	.LBB5242:
 5902              	.LBB5239:
 5903              	.LBB5236:
 5904              	.LBB5233:
 5905              	.LBB5230:
 5906              	.LBB5227:
 5907              	.LBB5224:
 5908              	.LBB5221:
 5909              	.LBB5218:
 5910              		.loc 11 367 0
 5911 0138 7F7ADA14 		add 27,26,27
 5912              	.LVL439:
 5913              	.LBE5218:
 5914              	.LBE5221:
 5915              	.LBE5224:
 5916              	.LBE5227:
 5917              	.LBE5230:
 5918              	.LBE5233:
 5919              	.LBE5236:
 5920              	.LBE5239:
 5921              	.LBE5242:
 5922              	.LBE5245:
 5923              	.LBE5249:
 5924              	.LBB5250:
 5925              	.LBB5251:
 5926              		.loc 5 155 0
 5927 013c 2F830000 		cmpwi 7,3,0
 5928 0140 419E0008 		beq- 7,.L320
 5929              	.LVL440:
 5930              	.LBB5252:
 5931              	.LBB5253:
 5932              		.loc 7 98 0
 5933 0144 48000001 		bl _ZdlPv
 5934              	.LVL441:
 5935              	.L320:
 5936              	.LBE5253:
 5937              	.LBE5252:
 5938              	.LBE5251:
 5939              	.LBE5250:
 5940              	.LBE5150:
 5941              	.LBE5270:
 5942              		.loc 10 373 0
 5943 0148 8001002C 		lwz 0,44(1)
 5944              	.LBB5271:
 5945              	.LBB5264:
 5946              		.loc 10 371 0
 5947 014c 7F9DE214 		add 28,29,28
 5948              		.loc 10 369 0
 5949 0150 93BF0000 		stw 29,0(31)
 5950              	.LBE5264:
 5951              	.LBE5271:
 5952              		.loc 10 373 0
 5953 0154 7C0803A6 		mtlr 0
 5954              	.LBB5272:
 5955              	.LBB5265:
 5956              		.loc 10 370 0
 5957 0158 937F0004 		stw 27,4(31)
 5958              		.loc 10 371 0
 5959 015c 939F0008 		stw 28,8(31)
 5960              	.LBE5265:
 5961              	.LBE5272:
 5962              		.loc 10 373 0
 5963 0160 83410010 		lwz 26,16(1)
 5964              	.LVL442:
 5965 0164 83610014 		lwz 27,20(1)
 5966              	.LVL443:
 5967 0168 83810018 		lwz 28,24(1)
 5968 016c 83A1001C 		lwz 29,28(1)
 5969              	.LVL444:
 5970 0170 83C10020 		lwz 30,32(1)
 5971              	.LVL445:
 5972 0174 83E10024 		lwz 31,36(1)
 5973              	.LVL446:
 5974 0178 38210028 		addi 1,1,40
 5975              		.cfi_remember_state
 5976              		.cfi_restore 26
 5977              		.cfi_restore 27
 5978              		.cfi_restore 28
 5979              		.cfi_restore 29
 5980              		.cfi_restore 30
 5981              		.cfi_restore 31
 5982              	.LCFI106:
 5983              		.cfi_def_cfa_offset 0
 5984 017c 4E800020 		blr
 5985              	.LVL447:
 5986              	.L314:
 5987              	.LCFI107:
 5988              		.cfi_restore_state
 5989              	.LBB5273:
 5990              	.LBB5266:
 5991              	.LBB5254:
 5992              	.LBB5162:
 5993              		.loc 9 892 0
 5994 0180 7F7BF050 		subf 27,27,30
 5995              	.LBE5162:
 5996              	.LBE5254:
 5997              		.loc 10 326 0
 5998 0184 3B800004 		li 28,4
 5999              	.LBB5255:
 6000              	.LBB5163:
 6001              		.loc 9 892 0
 6002 0188 7F7B1670 		srawi 27,27,2
 6003              	.LVL448:
 6004 018c 4BFFFF4C 		b .L321
 6005              	.LVL449:
 6006              	.L328:
 6007              	.LBE5163:
 6008              	.LBE5255:
 6009              	.LBB5256:
 6010              	.LBB5205:
 6011              	.LBB5203:
 6012              	.LBB5201:
 6013              	.LBB5199:
 6014              	.LBB5197:
 6015              	.LBB5195:
 6016              	.LBB5193:
 6017              	.LBB5191:
 6018              	.LBB5189:
 6019              	.LBB5187:
 6020              		.loc 11 366 0
 6021 0190 541B103A 		slwi 27,0,2
 6022 0194 7FA3EB78 		mr 3,29
 6023 0198 7F65DB78 		mr 5,27
 6024              	.LVL450:
 6025 019c 48000001 		bl memmove
 6026              	.LVL451:
 6027 01a0 4BFFFF78 		b .L318
 6028              	.LVL452:
 6029              	.L329:
 6030              	.LBE5187:
 6031              	.LBE5189:
 6032              	.LBE5191:
 6033              	.LBE5193:
 6034              	.LBE5195:
 6035              	.LBE5197:
 6036              	.LBE5199:
 6037              	.LBE5201:
 6038              	.LBE5203:
 6039              	.LBE5205:
 6040              	.LBE5256:
 6041              	.LBB5257:
 6042              	.LBB5246:
 6043              	.LBB5243:
 6044              	.LBB5240:
 6045              	.LBB5237:
 6046              	.LBB5234:
 6047              	.LBB5231:
 6048              	.LBB5228:
 6049              	.LBB5225:
 6050              	.LBB5222:
 6051              	.LBB5219:
 6052 01a4 541B103A 		slwi 27,0,2
 6053 01a8 7F43D378 		mr 3,26
 6054 01ac 7FC4F378 		mr 4,30
 6055 01b0 7F65DB78 		mr 5,27
 6056 01b4 48000001 		bl memmove
 6057              	.LVL453:
 6058 01b8 4BFFFF7C 		b .L319
 6059              	.LVL454:
 6060              	.L327:
 6061              	.LBE5219:
 6062              	.LBE5222:
 6063              	.LBE5225:
 6064              	.LBE5228:
 6065              	.LBE5231:
 6066              	.LBE5234:
 6067              	.LBE5237:
 6068              	.LBE5240:
 6069              	.LBE5243:
 6070              	.LBE5246:
 6071              	.LBE5257:
 6072              	.LBB5258:
 6073              	.LBB5157:
 6074              		.loc 5 1245 0
 6075 01bc 3D203FFF 		lis 9,0x3fff
 6076 01c0 6129FFFF 		ori 9,9,65535
 6077 01c4 7F804840 		cmplw 7,0,9
 6078 01c8 419DFF04 		bgt+ 7,.L315
 6079              	.LBE5157:
 6080              	.LBE5258:
 6081              	.LBB5259:
 6082              	.LBB5171:
 6083              		.loc 5 150 0
 6084 01cc 2F800000 		cmpwi 7,0,0
 6085              	.LBE5171:
 6086              	.LBE5259:
 6087              	.LBB5260:
 6088              	.LBB5164:
 6089              		.loc 9 892 0
 6090 01d0 7F7BF050 		subf 27,27,30
 6091              	.LBE5164:
 6092              	.LBE5260:
 6093              	.LBB5261:
 6094              	.LBB5158:
 6095              		.loc 5 1245 0
 6096 01d4 579C1838 		slwi 28,28,3
 6097              	.LVL455:
 6098              	.LBE5158:
 6099              	.LBE5261:
 6100              	.LBB5262:
 6101              	.LBB5165:
 6102              		.loc 9 892 0
 6103 01d8 7F7B1670 		srawi 27,27,2
 6104              	.LVL456:
 6105              	.LBE5165:
 6106              	.LBE5262:
 6107              	.LBB5263:
 6108              	.LBB5172:
 6109              		.loc 5 150 0
 6110 01dc 3BA00000 		li 29,0
 6111 01e0 419EFF0C 		beq+ 7,.L316
 6112 01e4 4BFFFEF4 		b .L321
 6113              	.LBE5172:
 6114              	.LBE5263:
 6115              	.LBE5266:
 6116              	.LBE5273:
 6117              		.cfi_endproc
 6118              	.LFE1895:
 6119              		.size	_ZNSt6vectorIP8GuiImageSaIS1_EE13_M_insert_auxEN9__gnu_cxx17__normal_iteratorIPS1_S3_EERKS1_
 6120              		.section	.text._ZNSt6vectorIP7GuiTextSaIS1_EE13_M_insert_auxEN9__gnu_cxx17__normal_iteratorIPS1_S3
 6121              		.align 2
 6122              		.weak	_ZNSt6vectorIP7GuiTextSaIS1_EE13_M_insert_auxEN9__gnu_cxx17__normal_iteratorIPS1_S3_EERKS1_
 6123              		.type	_ZNSt6vectorIP7GuiTextSaIS1_EE13_M_insert_auxEN9__gnu_cxx17__normal_iteratorIPS1_S3_EERKS1_,
 6124              	_ZNSt6vectorIP7GuiTextSaIS1_EE13_M_insert_auxEN9__gnu_cxx17__normal_iteratorIPS1_S3_EERKS1_:
 6125              	.LFB1898:
 6126              		.loc 10 300 0
 6127              		.cfi_startproc
 6128              	.LVL457:
 6129 0000 7C0802A6 		mflr 0
 6130 0004 9421FFD8 		stwu 1,-40(1)
 6131              	.LCFI108:
 6132              		.cfi_def_cfa_offset 40
 6133              		.cfi_register 65, 0
 6134 0008 93810018 		stw 28,24(1)
 6135 000c 9001002C 		stw 0,44(1)
 6136 0010 93C10020 		stw 30,32(1)
 6137              	.LBB5274:
 6138              		.loc 10 304 0
 6139 0014 83830004 		lwz 28,4(3)
 6140              		.cfi_offset 30, -8
 6141              		.cfi_offset 65, 4
 6142              		.cfi_offset 28, -16
 6143 0018 80030008 		lwz 0,8(3)
 6144              	.LBE5274:
 6145              		.loc 10 300 0
 6146 001c 93E10024 		stw 31,36(1)
 6147 0020 7C7F1B78 		mr 31,3
 6148              		.cfi_offset 31, -4
 6149              	.LBB5421:
 6150              		.loc 10 304 0
 6151 0024 7F9C0000 		cmpw 7,28,0
 6152              	.LBE5421:
 6153              		.loc 10 300 0
 6154 0028 93410010 		stw 26,16(1)
 6155 002c 93610014 		stw 27,20(1)
 6156 0030 93A1001C 		stw 29,28(1)
 6157              		.loc 10 300 0
 6158 0034 83C40000 		lwz 30,0(4)
 6159              	.LVL458:
 6160              	.LBB5422:
 6161              		.loc 10 304 0
 6162 0038 419E0078 		beq- 7,.L331
 6163              		.cfi_offset 29, -12
 6164              		.cfi_offset 27, -20
 6165              		.cfi_offset 26, -24
 6166              	.LVL459:
 6167              	.LBB5275:
 6168              	.LBB5276:
 6169              	.LBB5277:
 6170              		.loc 7 108 0
 6171 003c 2F9C0000 		cmpwi 7,28,0
 6172 0040 38600000 		li 3,0
 6173              	.LVL460:
 6174 0044 419E0010 		beq- 7,.L332
 6175 0048 801CFFFC 		lwz 0,-4(28)
 6176 004c 901C0000 		stw 0,0(28)
 6177 0050 807F0004 		lwz 3,4(31)
 6178              	.L332:
 6179              	.LBE5277:
 6180              	.LBE5276:
 6181              		.loc 10 313 0
 6182 0054 3803FFFC 		addi 0,3,-4
 6183              		.loc 10 309 0
 6184 0058 39230004 		addi 9,3,4
 6185              	.LBB5278:
 6186              	.LBB5279:
 6187              	.LBB5280:
 6188              	.LBB5281:
 6189              	.LBB5282:
 6190              	.LBB5283:
 6191              		.loc 11 559 0
 6192 005c 7C1E0050 		subf 0,30,0
 6193              	.LBE5283:
 6194              	.LBE5282:
 6195              	.LBE5281:
 6196              	.LBE5280:
 6197              	.LBE5279:
 6198              	.LBE5278:
 6199              		.loc 10 309 0
 6200 0060 913F0004 		stw 9,4(31)
 6201              	.LBB5299:
 6202              	.LBB5296:
 6203              	.LBB5293:
 6204              	.LBB5290:
 6205              	.LBB5287:
 6206              	.LBB5284:
 6207              		.loc 11 560 0
 6208 0064 7C001671 		srawi. 0,0,2
 6209              	.LBE5284:
 6210              	.LBE5287:
 6211              	.LBE5290:
 6212              	.LBE5293:
 6213              	.LBE5296:
 6214              	.LBE5299:
 6215              		.loc 10 311 0
 6216 0068 83E50000 		lwz 31,0(5)
 6217              	.LVL461:
 6218              	.LBB5300:
 6219              	.LBB5297:
 6220              	.LBB5294:
 6221              	.LBB5291:
 6222              	.LBB5288:
 6223              	.LBB5285:
 6224              		.loc 11 560 0
 6225 006c 40820030 		bne- 0,.L347
 6226              	.LVL462:
 6227              	.L333:
 6228              	.LBE5285:
 6229              	.LBE5288:
 6230              	.LBE5291:
 6231              	.LBE5294:
 6232              	.LBE5297:
 6233              	.LBE5300:
 6234              	.LBE5275:
 6235              	.LBE5422:
 6236              		.loc 10 373 0
 6237 0070 8001002C 		lwz 0,44(1)
 6238              	.LBB5423:
 6239              	.LBB5302:
 6240              		.loc 10 317 0
 6241 0074 93FE0000 		stw 31,0(30)
 6242              	.LBE5302:
 6243              	.LBE5423:
 6244              		.loc 10 373 0
 6245 0078 7C0803A6 		mtlr 0
 6246 007c 83410010 		lwz 26,16(1)
 6247 0080 83610014 		lwz 27,20(1)
 6248 0084 83810018 		lwz 28,24(1)
 6249              	.LVL463:
 6250 0088 83A1001C 		lwz 29,28(1)
 6251 008c 83C10020 		lwz 30,32(1)
 6252              	.LVL464:
 6253 0090 83E10024 		lwz 31,36(1)
 6254              	.LVL465:
 6255 0094 38210028 		addi 1,1,40
 6256              		.cfi_remember_state
 6257              	.LCFI109:
 6258              		.cfi_def_cfa_offset 0
 6259              		.cfi_restore 31
 6260              		.cfi_restore 30
 6261              		.cfi_restore 29
 6262              		.cfi_restore 28
 6263              		.cfi_restore 27
 6264              		.cfi_restore 26
 6265 0098 4E800020 		blr
 6266              	.LVL466:
 6267              	.L347:
 6268              	.LCFI110:
 6269              		.cfi_restore_state
 6270              	.LBB5424:
 6271              	.LBB5303:
 6272              	.LBB5301:
 6273              	.LBB5298:
 6274              	.LBB5295:
 6275              	.LBB5292:
 6276              	.LBB5289:
 6277              	.LBB5286:
 6278              		.loc 11 561 0
 6279 009c 5405103A 		slwi 5,0,2
 6280              	.LVL467:
 6281 00a0 7FC4F378 		mr 4,30
 6282 00a4 7C651850 		subf 3,5,3
 6283              	.LVL468:
 6284 00a8 48000001 		bl memmove
 6285              	.LVL469:
 6286 00ac 4BFFFFC4 		b .L333
 6287              	.LVL470:
 6288              	.L331:
 6289              	.LBE5286:
 6290              	.LBE5289:
 6291              	.LBE5292:
 6292              	.LBE5295:
 6293              	.LBE5298:
 6294              	.LBE5301:
 6295              	.LBE5303:
 6296              	.LBB5304:
 6297              	.LBB5305:
 6298              	.LBB5306:
 6299              	.LBB5307:
 6300              	.LBB5308:
 6301              		.loc 5 571 0
 6302 00b0 83630000 		lwz 27,0(3)
 6303 00b4 7F9BE050 		subf 28,27,28
 6304              	.LBE5308:
 6305              	.LBE5307:
 6306              	.LBB5309:
 6307              	.LBB5310:
 6308              		.loc 11 215 0
 6309 00b8 7F9C1671 		srawi. 28,28,2
 6310 00bc 418200C4 		beq- 0,.L335
 6311              	.LBE5310:
 6312              	.LBE5309:
 6313              		.loc 5 1244 0
 6314 00c0 5780083C 		slwi 0,28,1
 6315              	.LVL471:
 6316              		.loc 5 1245 0
 6317 00c4 7F9C0040 		cmplw 7,28,0
 6318 00c8 409D00F4 		ble- 7,.L348
 6319              	.L336:
 6320              	.LVL472:
 6321              	.LBE5306:
 6322              	.LBE5305:
 6323              	.LBB5313:
 6324              	.LBB5314:
 6325              		.loc 9 892 0
 6326 00cc 7F7BF050 		subf 27,27,30
 6327              	.LBE5314:
 6328              	.LBE5313:
 6329              		.loc 10 326 0
 6330 00d0 3B80FFFC 		li 28,-4
 6331              	.LBB5320:
 6332              	.LBB5315:
 6333              		.loc 9 892 0
 6334 00d4 7F7B1670 		srawi 27,27,2
 6335              	.LVL473:
 6336              	.L342:
 6337              	.LBE5315:
 6338              	.LBE5320:
 6339              	.LBB5321:
 6340              	.LBB5322:
 6341              	.LBB5323:
 6342              	.LBB5324:
 6343              		.loc 7 92 0
 6344 00d8 7F83E378 		mr 3,28
 6345              	.LVL474:
 6346 00dc 90A10008 		stw 5,8(1)
 6347 00e0 48000001 		bl _Znwj
 6348              	.LVL475:
 6349 00e4 80A10008 		lwz 5,8(1)
 6350 00e8 7C7D1B78 		mr 29,3
 6351              	.L337:
 6352              	.LVL476:
 6353              	.LBE5324:
 6354              	.LBE5323:
 6355              	.LBE5322:
 6356              	.LBE5321:
 6357              		.loc 10 335 0
 6358 00ec 577B103A 		slwi 27,27,2
 6359              	.LVL477:
 6360 00f0 7C1DDA14 		add 0,29,27
 6361              	.LVL478:
 6362              	.LBB5327:
 6363              	.LBB5328:
 6364              		.loc 7 108 0
 6365 00f4 2F800000 		cmpwi 7,0,0
 6366 00f8 419E000C 		beq- 7,.L338
 6367 00fc 80050000 		lwz 0,0(5)
 6368              	.LVL479:
 6369 0100 7C1DD92E 		stwx 0,29,27
 6370              	.L338:
 6371              	.LVL480:
 6372              	.LBE5328:
 6373              	.LBE5327:
 6374              		.loc 10 343 0
 6375 0104 809F0000 		lwz 4,0(31)
 6376              	.LVL481:
 6377              	.LBB5329:
 6378              	.LBB5330:
 6379              	.LBB5331:
 6380              	.LBB5332:
 6381              	.LBB5333:
 6382              	.LBB5334:
 6383              	.LBB5335:
 6384              	.LBB5336:
 6385              	.LBB5337:
 6386              	.LBB5338:
 6387              	.LBB5339:
 6388              		.loc 11 365 0
 6389 0108 3B600000 		li 27,0
 6390              		.loc 11 364 0
 6391 010c 7C04F050 		subf 0,4,30
 6392              	.LVL482:
 6393              		.loc 11 365 0
 6394 0110 7C001671 		srawi. 0,0,2
 6395              	.LVL483:
 6396 0114 4082007C 		bne- 0,.L349
 6397              	.LVL484:
 6398              	.L339:
 6399              	.LBE5339:
 6400              	.LBE5338:
 6401              	.LBE5337:
 6402              	.LBE5336:
 6403              	.LBE5335:
 6404              	.LBE5334:
 6405              	.LBE5333:
 6406              	.LBE5332:
 6407              	.LBE5331:
 6408              	.LBE5330:
 6409              	.LBE5329:
 6410              	.LBB5360:
 6411              	.LBB5361:
 6412              	.LBB5362:
 6413              	.LBB5363:
 6414              	.LBB5364:
 6415              	.LBB5365:
 6416              	.LBB5366:
 6417              	.LBB5367:
 6418              	.LBB5368:
 6419              	.LBB5369:
 6420              	.LBB5370:
 6421              		.loc 11 364 0
 6422 0118 801F0004 		lwz 0,4(31)
 6423              	.LBE5370:
 6424              	.LBE5369:
 6425              	.LBE5368:
 6426              	.LBE5367:
 6427              	.LBE5366:
 6428              	.LBE5365:
 6429              	.LBE5364:
 6430              	.LBE5363:
 6431              	.LBE5362:
 6432              	.LBE5361:
 6433              	.LBE5360:
 6434              	.LBB5401:
 6435              	.LBB5358:
 6436              	.LBB5356:
 6437              	.LBB5354:
 6438              	.LBB5352:
 6439              	.LBB5350:
 6440              	.LBB5348:
 6441              	.LBB5346:
 6442              	.LBB5344:
 6443              	.LBB5342:
 6444              	.LBB5340:
 6445              		.loc 11 367 0
 6446 011c 7F7DDA14 		add 27,29,27
 6447              	.LVL485:
 6448              	.LBE5340:
 6449              	.LBE5342:
 6450              	.LBE5344:
 6451              	.LBE5346:
 6452              	.LBE5348:
 6453              	.LBE5350:
 6454              	.LBE5352:
 6455              	.LBE5354:
 6456              	.LBE5356:
 6457              	.LBE5358:
 6458              	.LBE5401:
 6459              		.loc 10 347 0
 6460 0120 3B5B0004 		addi 26,27,4
 6461              	.LBB5402:
 6462              	.LBB5398:
 6463              	.LBB5395:
 6464              	.LBB5392:
 6465              	.LBB5389:
 6466              	.LBB5386:
 6467              	.LBB5383:
 6468              	.LBB5380:
 6469              	.LBB5377:
 6470              	.LBB5374:
 6471              	.LBB5371:
 6472              		.loc 11 365 0
 6473 0124 3B600000 		li 27,0
 6474              	.LVL486:
 6475              		.loc 11 364 0
 6476 0128 7C1E0050 		subf 0,30,0
 6477              	.LVL487:
 6478              		.loc 11 365 0
 6479 012c 7C001671 		srawi. 0,0,2
 6480              	.LVL488:
 6481 0130 40820074 		bne- 0,.L350
 6482              	.LVL489:
 6483              	.L340:
 6484              	.LBE5371:
 6485              	.LBE5374:
 6486              	.LBE5377:
 6487              	.LBE5380:
 6488              	.LBE5383:
 6489              	.LBE5386:
 6490              	.LBE5389:
 6491              	.LBE5392:
 6492              	.LBE5395:
 6493              	.LBE5398:
 6494              	.LBE5402:
 6495              		.loc 10 366 0
 6496 0134 807F0000 		lwz 3,0(31)
 6497              	.LBB5403:
 6498              	.LBB5399:
 6499              	.LBB5396:
 6500              	.LBB5393:
 6501              	.LBB5390:
 6502              	.LBB5387:
 6503              	.LBB5384:
 6504              	.LBB5381:
 6505              	.LBB5378:
 6506              	.LBB5375:
 6507              	.LBB5372:
 6508              		.loc 11 367 0
 6509 0138 7F7ADA14 		add 27,26,27
 6510              	.LVL490:
 6511              	.LBE5372:
 6512              	.LBE5375:
 6513              	.LBE5378:
 6514              	.LBE5381:
 6515              	.LBE5384:
 6516              	.LBE5387:
 6517              	.LBE5390:
 6518              	.LBE5393:
 6519              	.LBE5396:
 6520              	.LBE5399:
 6521              	.LBE5403:
 6522              	.LBB5404:
 6523              	.LBB5405:
 6524              		.loc 5 155 0
 6525 013c 2F830000 		cmpwi 7,3,0
 6526 0140 419E0008 		beq- 7,.L341
 6527              	.LVL491:
 6528              	.LBB5406:
 6529              	.LBB5407:
 6530              		.loc 7 98 0
 6531 0144 48000001 		bl _ZdlPv
 6532              	.LVL492:
 6533              	.L341:
 6534              	.LBE5407:
 6535              	.LBE5406:
 6536              	.LBE5405:
 6537              	.LBE5404:
 6538              	.LBE5304:
 6539              	.LBE5424:
 6540              		.loc 10 373 0
 6541 0148 8001002C 		lwz 0,44(1)
 6542              	.LBB5425:
 6543              	.LBB5418:
 6544              		.loc 10 371 0
 6545 014c 7F9DE214 		add 28,29,28
 6546              		.loc 10 369 0
 6547 0150 93BF0000 		stw 29,0(31)
 6548              	.LBE5418:
 6549              	.LBE5425:
 6550              		.loc 10 373 0
 6551 0154 7C0803A6 		mtlr 0
 6552              	.LBB5426:
 6553              	.LBB5419:
 6554              		.loc 10 370 0
 6555 0158 937F0004 		stw 27,4(31)
 6556              		.loc 10 371 0
 6557 015c 939F0008 		stw 28,8(31)
 6558              	.LBE5419:
 6559              	.LBE5426:
 6560              		.loc 10 373 0
 6561 0160 83410010 		lwz 26,16(1)
 6562              	.LVL493:
 6563 0164 83610014 		lwz 27,20(1)
 6564              	.LVL494:
 6565 0168 83810018 		lwz 28,24(1)
 6566 016c 83A1001C 		lwz 29,28(1)
 6567              	.LVL495:
 6568 0170 83C10020 		lwz 30,32(1)
 6569              	.LVL496:
 6570 0174 83E10024 		lwz 31,36(1)
 6571              	.LVL497:
 6572 0178 38210028 		addi 1,1,40
 6573              		.cfi_remember_state
 6574              		.cfi_restore 26
 6575              		.cfi_restore 27
 6576              		.cfi_restore 28
 6577              		.cfi_restore 29
 6578              		.cfi_restore 30
 6579              		.cfi_restore 31
 6580              	.LCFI111:
 6581              		.cfi_def_cfa_offset 0
 6582 017c 4E800020 		blr
 6583              	.LVL498:
 6584              	.L335:
 6585              	.LCFI112:
 6586              		.cfi_restore_state
 6587              	.LBB5427:
 6588              	.LBB5420:
 6589              	.LBB5408:
 6590              	.LBB5316:
 6591              		.loc 9 892 0
 6592 0180 7F7BF050 		subf 27,27,30
 6593              	.LBE5316:
 6594              	.LBE5408:
 6595              		.loc 10 326 0
 6596 0184 3B800004 		li 28,4
 6597              	.LBB5409:
 6598              	.LBB5317:
 6599              		.loc 9 892 0
 6600 0188 7F7B1670 		srawi 27,27,2
 6601              	.LVL499:
 6602 018c 4BFFFF4C 		b .L342
 6603              	.LVL500:
 6604              	.L349:
 6605              	.LBE5317:
 6606              	.LBE5409:
 6607              	.LBB5410:
 6608              	.LBB5359:
 6609              	.LBB5357:
 6610              	.LBB5355:
 6611              	.LBB5353:
 6612              	.LBB5351:
 6613              	.LBB5349:
 6614              	.LBB5347:
 6615              	.LBB5345:
 6616              	.LBB5343:
 6617              	.LBB5341:
 6618              		.loc 11 366 0
 6619 0190 541B103A 		slwi 27,0,2
 6620 0194 7FA3EB78 		mr 3,29
 6621 0198 7F65DB78 		mr 5,27
 6622              	.LVL501:
 6623 019c 48000001 		bl memmove
 6624              	.LVL502:
 6625 01a0 4BFFFF78 		b .L339
 6626              	.LVL503:
 6627              	.L350:
 6628              	.LBE5341:
 6629              	.LBE5343:
 6630              	.LBE5345:
 6631              	.LBE5347:
 6632              	.LBE5349:
 6633              	.LBE5351:
 6634              	.LBE5353:
 6635              	.LBE5355:
 6636              	.LBE5357:
 6637              	.LBE5359:
 6638              	.LBE5410:
 6639              	.LBB5411:
 6640              	.LBB5400:
 6641              	.LBB5397:
 6642              	.LBB5394:
 6643              	.LBB5391:
 6644              	.LBB5388:
 6645              	.LBB5385:
 6646              	.LBB5382:
 6647              	.LBB5379:
 6648              	.LBB5376:
 6649              	.LBB5373:
 6650 01a4 541B103A 		slwi 27,0,2
 6651 01a8 7F43D378 		mr 3,26
 6652 01ac 7FC4F378 		mr 4,30
 6653 01b0 7F65DB78 		mr 5,27
 6654 01b4 48000001 		bl memmove
 6655              	.LVL504:
 6656 01b8 4BFFFF7C 		b .L340
 6657              	.LVL505:
 6658              	.L348:
 6659              	.LBE5373:
 6660              	.LBE5376:
 6661              	.LBE5379:
 6662              	.LBE5382:
 6663              	.LBE5385:
 6664              	.LBE5388:
 6665              	.LBE5391:
 6666              	.LBE5394:
 6667              	.LBE5397:
 6668              	.LBE5400:
 6669              	.LBE5411:
 6670              	.LBB5412:
 6671              	.LBB5311:
 6672              		.loc 5 1245 0
 6673 01bc 3D203FFF 		lis 9,0x3fff
 6674 01c0 6129FFFF 		ori 9,9,65535
 6675 01c4 7F804840 		cmplw 7,0,9
 6676 01c8 419DFF04 		bgt+ 7,.L336
 6677              	.LBE5311:
 6678              	.LBE5412:
 6679              	.LBB5413:
 6680              	.LBB5325:
 6681              		.loc 5 150 0
 6682 01cc 2F800000 		cmpwi 7,0,0
 6683              	.LBE5325:
 6684              	.LBE5413:
 6685              	.LBB5414:
 6686              	.LBB5318:
 6687              		.loc 9 892 0
 6688 01d0 7F7BF050 		subf 27,27,30
 6689              	.LBE5318:
 6690              	.LBE5414:
 6691              	.LBB5415:
 6692              	.LBB5312:
 6693              		.loc 5 1245 0
 6694 01d4 579C1838 		slwi 28,28,3
 6695              	.LVL506:
 6696              	.LBE5312:
 6697              	.LBE5415:
 6698              	.LBB5416:
 6699              	.LBB5319:
 6700              		.loc 9 892 0
 6701 01d8 7F7B1670 		srawi 27,27,2
 6702              	.LVL507:
 6703              	.LBE5319:
 6704              	.LBE5416:
 6705              	.LBB5417:
 6706              	.LBB5326:
 6707              		.loc 5 150 0
 6708 01dc 3BA00000 		li 29,0
 6709 01e0 419EFF0C 		beq+ 7,.L337
 6710 01e4 4BFFFEF4 		b .L342
 6711              	.LBE5326:
 6712              	.LBE5417:
 6713              	.LBE5420:
 6714              	.LBE5427:
 6715              		.cfi_endproc
 6716              	.LFE1898:
 6717              		.size	_ZNSt6vectorIP7GuiTextSaIS1_EE13_M_insert_auxEN9__gnu_cxx17__normal_iteratorIPS1_S3_EERKS1_,
 6718              		.section	.text._ZNSt6vectorIP9GuiButtonSaIS1_EE13_M_insert_auxEN9__gnu_cxx17__normal_iteratorIPS1_
 6719              		.align 2
 6720              		.weak	_ZNSt6vectorIP9GuiButtonSaIS1_EE13_M_insert_auxEN9__gnu_cxx17__normal_iteratorIPS1_S3_EERKS1
 6721              		.type	_ZNSt6vectorIP9GuiButtonSaIS1_EE13_M_insert_auxEN9__gnu_cxx17__normal_iteratorIPS1_S3_EERKS1
 6722              	_ZNSt6vectorIP9GuiButtonSaIS1_EE13_M_insert_auxEN9__gnu_cxx17__normal_iteratorIPS1_S3_EERKS1_:
 6723              	.LFB1908:
 6724              		.loc 10 300 0
 6725              		.cfi_startproc
 6726              	.LVL508:
 6727 0000 7C0802A6 		mflr 0
 6728 0004 9421FFD8 		stwu 1,-40(1)
 6729              	.LCFI113:
 6730              		.cfi_def_cfa_offset 40
 6731              		.cfi_register 65, 0
 6732 0008 93810018 		stw 28,24(1)
 6733 000c 9001002C 		stw 0,44(1)
 6734 0010 93C10020 		stw 30,32(1)
 6735              	.LBB5428:
 6736              		.loc 10 304 0
 6737 0014 83830004 		lwz 28,4(3)
 6738              		.cfi_offset 30, -8
 6739              		.cfi_offset 65, 4
 6740              		.cfi_offset 28, -16
 6741 0018 80030008 		lwz 0,8(3)
 6742              	.LBE5428:
 6743              		.loc 10 300 0
 6744 001c 93E10024 		stw 31,36(1)
 6745 0020 7C7F1B78 		mr 31,3
 6746              		.cfi_offset 31, -4
 6747              	.LBB5575:
 6748              		.loc 10 304 0
 6749 0024 7F9C0000 		cmpw 7,28,0
 6750              	.LBE5575:
 6751              		.loc 10 300 0
 6752 0028 93410010 		stw 26,16(1)
 6753 002c 93610014 		stw 27,20(1)
 6754 0030 93A1001C 		stw 29,28(1)
 6755              		.loc 10 300 0
 6756 0034 83C40000 		lwz 30,0(4)
 6757              	.LVL509:
 6758              	.LBB5576:
 6759              		.loc 10 304 0
 6760 0038 419E0078 		beq- 7,.L352
 6761              		.cfi_offset 29, -12
 6762              		.cfi_offset 27, -20
 6763              		.cfi_offset 26, -24
 6764              	.LVL510:
 6765              	.LBB5429:
 6766              	.LBB5430:
 6767              	.LBB5431:
 6768              		.loc 7 108 0
 6769 003c 2F9C0000 		cmpwi 7,28,0
 6770 0040 38600000 		li 3,0
 6771              	.LVL511:
 6772 0044 419E0010 		beq- 7,.L353
 6773 0048 801CFFFC 		lwz 0,-4(28)
 6774 004c 901C0000 		stw 0,0(28)
 6775 0050 807F0004 		lwz 3,4(31)
 6776              	.L353:
 6777              	.LBE5431:
 6778              	.LBE5430:
 6779              		.loc 10 313 0
 6780 0054 3803FFFC 		addi 0,3,-4
 6781              		.loc 10 309 0
 6782 0058 39230004 		addi 9,3,4
 6783              	.LBB5432:
 6784              	.LBB5433:
 6785              	.LBB5434:
 6786              	.LBB5435:
 6787              	.LBB5436:
 6788              	.LBB5437:
 6789              		.loc 11 559 0
 6790 005c 7C1E0050 		subf 0,30,0
 6791              	.LBE5437:
 6792              	.LBE5436:
 6793              	.LBE5435:
 6794              	.LBE5434:
 6795              	.LBE5433:
 6796              	.LBE5432:
 6797              		.loc 10 309 0
 6798 0060 913F0004 		stw 9,4(31)
 6799              	.LBB5453:
 6800              	.LBB5450:
 6801              	.LBB5447:
 6802              	.LBB5444:
 6803              	.LBB5441:
 6804              	.LBB5438:
 6805              		.loc 11 560 0
 6806 0064 7C001671 		srawi. 0,0,2
 6807              	.LBE5438:
 6808              	.LBE5441:
 6809              	.LBE5444:
 6810              	.LBE5447:
 6811              	.LBE5450:
 6812              	.LBE5453:
 6813              		.loc 10 311 0
 6814 0068 83E50000 		lwz 31,0(5)
 6815              	.LVL512:
 6816              	.LBB5454:
 6817              	.LBB5451:
 6818              	.LBB5448:
 6819              	.LBB5445:
 6820              	.LBB5442:
 6821              	.LBB5439:
 6822              		.loc 11 560 0
 6823 006c 40820030 		bne- 0,.L368
 6824              	.LVL513:
 6825              	.L354:
 6826              	.LBE5439:
 6827              	.LBE5442:
 6828              	.LBE5445:
 6829              	.LBE5448:
 6830              	.LBE5451:
 6831              	.LBE5454:
 6832              	.LBE5429:
 6833              	.LBE5576:
 6834              		.loc 10 373 0
 6835 0070 8001002C 		lwz 0,44(1)
 6836              	.LBB5577:
 6837              	.LBB5456:
 6838              		.loc 10 317 0
 6839 0074 93FE0000 		stw 31,0(30)
 6840              	.LBE5456:
 6841              	.LBE5577:
 6842              		.loc 10 373 0
