	.file	"PlayList.cpp"
	.section	".text"
.Ltext0:
	.section	.text._ZN7sigslot15single_threadedD2Ev,"axG",@progbits,_ZN7sigslot15single_threadedD5Ev,comdat
	.align 2
	.weak	_ZN7sigslot15single_threadedD2Ev
	.type	_ZN7sigslot15single_threadedD2Ev, @function
_ZN7sigslot15single_threadedD2Ev:
.LFB1148:
	.file 1 "d:/Projects/SaveGameManager/savegame-manager-gx/trunk/source/SoundOperations/../Controls/../GUI/../sigslot.h"
	.loc 1 104 0
	.cfi_startproc
.LVL0:
.LBB4471:
	.loc 1 105 0
	lis 9,_ZTVN7sigslot15single_threadedE+8@ha
.LBE4471:
	.loc 1 107 0
.LBB4472:
	.loc 1 105 0
	la 0,_ZTVN7sigslot15single_threadedE+8@l(9)
	stw 0,0(3)
.LBE4472:
	.loc 1 107 0
	blr
	.cfi_endproc
.LFE1148:
	.size	_ZN7sigslot15single_threadedD2Ev, .-_ZN7sigslot15single_threadedD2Ev
	.section	.text._ZN7sigslot15single_threaded4lockEv,"axG",@progbits,_ZN7sigslot15single_threaded4lockEv,comdat
	.align 2
	.weak	_ZN7sigslot15single_threaded4lockEv
	.type	_ZN7sigslot15single_threaded4lockEv, @function
_ZN7sigslot15single_threaded4lockEv:
.LFB1151:
	.loc 1 109 0
	.cfi_startproc
.LVL1:
	.loc 1 112 0
	blr
	.cfi_endproc
.LFE1151:
	.size	_ZN7sigslot15single_threaded4lockEv, .-_ZN7sigslot15single_threaded4lockEv
	.section	.text._ZN7sigslot15single_threaded6unlockEv,"axG",@progbits,_ZN7sigslot15single_threaded6unlockEv,comdat
	.align 2
	.weak	_ZN7sigslot15single_threaded6unlockEv
	.type	_ZN7sigslot15single_threaded6unlockEv, @function
_ZN7sigslot15single_threaded6unlockEv:
.LFB1152:
	.loc 1 114 0
	.cfi_startproc
.LVL2:
	.loc 1 117 0
	blr
	.cfi_endproc
.LFE1152:
	.size	_ZN7sigslot15single_threaded6unlockEv, .-_ZN7sigslot15single_threaded6unlockEv
	.section	.text._ZN10GuiElement9SetParentEPS_,"axG",@progbits,_ZN10GuiElement9SetParentEPS_,comdat
	.align 2
	.weak	_ZN10GuiElement9SetParentEPS_
	.type	_ZN10GuiElement9SetParentEPS_, @function
_ZN10GuiElement9SetParentEPS_:
.LFB1384:
	.file 2 "d:/Projects/SaveGameManager/savegame-manager-gx/trunk/source/SoundOperations/../Controls/../GUI/gui_element.h"
	.loc 2 92 0
	.cfi_startproc
.LVL3:
	.loc 2 92 0
	stw 4,96(3)
	blr
	.cfi_endproc
.LFE1384:
	.size	_ZN10GuiElement9SetParentEPS_, .-_ZN10GuiElement9SetParentEPS_
	.section	.text._ZN10GuiElement9GetParentEv,"axG",@progbits,_ZN10GuiElement9GetParentEv,comdat
	.align 2
	.weak	_ZN10GuiElement9GetParentEv
	.type	_ZN10GuiElement9GetParentEv, @function
_ZN10GuiElement9GetParentEv:
.LFB1385:
	.loc 2 95 0
	.cfi_startproc
.LVL4:
	.loc 2 95 0
	lwz 3,96(3)
.LVL5:
	blr
	.cfi_endproc
.LFE1385:
	.size	_ZN10GuiElement9GetParentEv, .-_ZN10GuiElement9GetParentEv
	.section	.text._ZN10GuiElement12GetZPositionEv,"axG",@progbits,_ZN10GuiElement12GetZPositionEv,comdat
	.align 2
	.weak	_ZN10GuiElement12GetZPositionEv
	.type	_ZN10GuiElement12GetZPositionEv, @function
_ZN10GuiElement12GetZPositionEv:
.LFB1386:
	.loc 2 106 0
	.cfi_startproc
.LVL6:
	mflr 0
	stwu 1,-16(1)
.LCFI0:
	.cfi_def_cfa_offset 16
	.cfi_register 65, 0
	stw 31,12(1)
	mr 31,3
	.cfi_offset 31, -4
	stw 0,20(1)
.LBB4473:
	.loc 2 110 0
	lwz 11,96(3)
	.loc 2 108 0
	li 3,0
.LVL7:
	.loc 2 110 0
	cmpwi 7,11,0
	beq- 7,.L8
	.cfi_offset 65, 4
	.loc 2 111 0
	lwz 9,0(11)
	mr 3,11
	lwz 0,24(9)
	mtctr 0
	bctrl
.LVL8:
.L8:
	.loc 2 113 0
	lwz 0,52(31)
.LBE4473:
	.loc 2 114 0
	lwz 31,12(1)
.LVL9:
	add 3,3,0
.LVL10:
	lwz 0,20(1)
	addi 1,1,16
.LCFI1:
	.cfi_def_cfa_offset 0
	.cfi_restore 31
	mtlr 0
	blr
	.cfi_endproc
.LFE1386:
	.size	_ZN10GuiElement12GetZPositionEv, .-_ZN10GuiElement12GetZPositionEv
	.section	.text._ZN10GuiElement10GetLeftPosEv,"axG",@progbits,_ZN10GuiElement10GetLeftPosEv,comdat
	.align 2
	.weak	_ZN10GuiElement10GetLeftPosEv
	.type	_ZN10GuiElement10GetLeftPosEv, @function
_ZN10GuiElement10GetLeftPosEv:
.LFB1387:
	.loc 2 116 0
	.cfi_startproc
.LVL11:
	.loc 2 116 0
	lwz 3,44(3)
.LVL12:
	blr
	.cfi_endproc
.LFE1387:
	.size	_ZN10GuiElement10GetLeftPosEv, .-_ZN10GuiElement10GetLeftPosEv
	.section	.text._ZN10GuiElement9GetTopPosEv,"axG",@progbits,_ZN10GuiElement9GetTopPosEv,comdat
	.align 2
	.weak	_ZN10GuiElement9GetTopPosEv
	.type	_ZN10GuiElement9GetTopPosEv, @function
_ZN10GuiElement9GetTopPosEv:
.LFB1388:
	.loc 2 118 0
	.cfi_startproc
.LVL13:
	.loc 2 118 0
	lwz 3,48(3)
.LVL14:
	blr
	.cfi_endproc
.LFE1388:
	.size	_ZN10GuiElement9GetTopPosEv, .-_ZN10GuiElement9GetTopPosEv
	.section	.text._ZN10GuiElement8GetWidthEv,"axG",@progbits,_ZN10GuiElement8GetWidthEv,comdat
	.align 2
	.weak	_ZN10GuiElement8GetWidthEv
	.type	_ZN10GuiElement8GetWidthEv, @function
_ZN10GuiElement8GetWidthEv:
.LFB1389:
	.loc 2 121 0
	.cfi_startproc
.LVL15:
	.loc 2 121 0
	lwz 3,36(3)
.LVL16:
	blr
	.cfi_endproc
.LFE1389:
	.size	_ZN10GuiElement8GetWidthEv, .-_ZN10GuiElement8GetWidthEv
	.section	.text._ZN10GuiElement9GetHeightEv,"axG",@progbits,_ZN10GuiElement9GetHeightEv,comdat
	.align 2
	.weak	_ZN10GuiElement9GetHeightEv
	.type	_ZN10GuiElement9GetHeightEv, @function
_ZN10GuiElement9GetHeightEv:
.LFB1390:
	.loc 2 124 0
	.cfi_startproc
.LVL17:
	.loc 2 124 0
	lwz 3,40(3)
.LVL18:
	blr
	.cfi_endproc
.LFE1390:
	.size	_ZN10GuiElement9GetHeightEv, .-_ZN10GuiElement9GetHeightEv
	.section	.text._ZN10GuiElement7SetSizeEii,"axG",@progbits,_ZN10GuiElement7SetSizeEii,comdat
	.align 2
	.weak	_ZN10GuiElement7SetSizeEii
	.type	_ZN10GuiElement7SetSizeEii, @function
_ZN10GuiElement7SetSizeEii:
.LFB1391:
	.loc 2 128 0
	.cfi_startproc
.LVL19:
	.loc 2 130 0
	stw 4,36(3)
	.loc 2 132 0
	.loc 2 131 0
	stw 5,40(3)
	.loc 2 132 0
	blr
	.cfi_endproc
.LFE1391:
	.size	_ZN10GuiElement7SetSizeEii, .-_ZN10GuiElement7SetSizeEii
	.section	.text._ZN10GuiElement9IsVisibleEv,"axG",@progbits,_ZN10GuiElement9IsVisibleEv,comdat
	.align 2
	.weak	_ZN10GuiElement9IsVisibleEv
	.type	_ZN10GuiElement9IsVisibleEv, @function
_ZN10GuiElement9IsVisibleEv:
.LFB1393:
	.loc 2 142 0
	.cfi_startproc
.LVL20:
	.loc 2 142 0
	lbz 3,29(3)
.LVL21:
	blr
	.cfi_endproc
.LFE1393:
	.size	_ZN10GuiElement9IsVisibleEv, .-_ZN10GuiElement9IsVisibleEv
	.section	.text._ZN10GuiElement12IsSelectableEv,"axG",@progbits,_ZN10GuiElement12IsSelectableEv,comdat
	.align 2
	.weak	_ZN10GuiElement12IsSelectableEv
	.type	_ZN10GuiElement12IsSelectableEv, @function
_ZN10GuiElement12IsSelectableEv:
.LFB1394:
	.loc 2 145 0
	.cfi_startproc
.LVL22:
	.loc 2 149 0
	lwz 0,72(3)
	li 9,0
	cmpwi 7,0,4
	beq- 7,.L18
	.loc 2 149 0 is_stmt 0 discriminator 1
	cmpwi 7,0,2
	beq- 7,.L18
	.loc 2 149 0 discriminator 3
	lbz 9,30(3)
.L18:
	.loc 2 150 0 is_stmt 1 discriminator 5
	mr 3,9
.LVL23:
	blr
	.cfi_endproc
.LFE1394:
	.size	_ZN10GuiElement12IsSelectableEv, .-_ZN10GuiElement12IsSelectableEv
	.section	.text._ZN10GuiElement11IsClickableEv,"axG",@progbits,_ZN10GuiElement11IsClickableEv,comdat
	.align 2
	.weak	_ZN10GuiElement11IsClickableEv
	.type	_ZN10GuiElement11IsClickableEv, @function
_ZN10GuiElement11IsClickableEv:
.LFB1395:
	.loc 2 153 0
	.cfi_startproc
.LVL24:
	.loc 2 158 0
	lwz 0,72(3)
	li 9,0
	cmpwi 7,0,4
	beq- 7,.L22
	.loc 2 158 0 is_stmt 0 discriminator 1
	cmpwi 7,0,2
	beq- 7,.L22
	.loc 2 158 0 discriminator 3
	cmpwi 7,0,3
	beq- 7,.L22
	.loc 2 158 0 discriminator 4
	lbz 9,31(3)
.L22:
	.loc 2 159 0 is_stmt 1 discriminator 6
	mr 3,9
.LVL25:
	blr
	.cfi_endproc
.LFE1395:
	.size	_ZN10GuiElement11IsClickableEv, .-_ZN10GuiElement11IsClickableEv
	.section	.text._ZN10GuiElement10IsHoldableEv,"axG",@progbits,_ZN10GuiElement10IsHoldableEv,comdat
	.align 2
	.weak	_ZN10GuiElement10IsHoldableEv
	.type	_ZN10GuiElement10IsHoldableEv, @function
_ZN10GuiElement10IsHoldableEv:
.LFB1396:
	.loc 2 162 0
	.cfi_startproc
.LVL26:
	.loc 2 162 0
	lwz 9,72(3)
	li 0,0
	cmpwi 7,9,4
	beq- 7,.L27
	.loc 2 162 0 is_stmt 0 discriminator 1
	lbz 0,32(3)
.L27:
	.loc 2 162 0 discriminator 4
	mr 3,0
.LVL27:
	blr
	.cfi_endproc
.LFE1396:
	.size	_ZN10GuiElement10IsHoldableEv, .-_ZN10GuiElement10IsHoldableEv
	.section	.text._ZN10GuiElement13SetSelectableEb,"axG",@progbits,_ZN10GuiElement13SetSelectableEb,comdat
	.align 2
	.weak	_ZN10GuiElement13SetSelectableEb
	.type	_ZN10GuiElement13SetSelectableEb, @function
_ZN10GuiElement13SetSelectableEb:
.LFB1397:
	.loc 2 165 0 is_stmt 1
	.cfi_startproc
.LVL28:
	.loc 2 165 0
	stb 4,30(3)
	blr
	.cfi_endproc
.LFE1397:
	.size	_ZN10GuiElement13SetSelectableEb, .-_ZN10GuiElement13SetSelectableEb
	.section	.text._ZN10GuiElement12SetClickableEb,"axG",@progbits,_ZN10GuiElement12SetClickableEb,comdat
	.align 2
	.weak	_ZN10GuiElement12SetClickableEb
	.type	_ZN10GuiElement12SetClickableEb, @function
_ZN10GuiElement12SetClickableEb:
.LFB1398:
	.loc 2 168 0
	.cfi_startproc
.LVL29:
	.loc 2 168 0
	stb 4,31(3)
	blr
	.cfi_endproc
.LFE1398:
	.size	_ZN10GuiElement12SetClickableEb, .-_ZN10GuiElement12SetClickableEb
	.section	.text._ZN10GuiElement11SetHoldableEb,"axG",@progbits,_ZN10GuiElement11SetHoldableEb,comdat
	.align 2
	.weak	_ZN10GuiElement11SetHoldableEb
	.type	_ZN10GuiElement11SetHoldableEb, @function
_ZN10GuiElement11SetHoldableEb:
.LFB1399:
	.loc 2 171 0
	.cfi_startproc
.LVL30:
	.loc 2 171 0
	stb 4,32(3)
	blr
	.cfi_endproc
.LFE1399:
	.size	_ZN10GuiElement11SetHoldableEb, .-_ZN10GuiElement11SetHoldableEb
	.section	.text._ZN10GuiElement8GetStateEv,"axG",@progbits,_ZN10GuiElement8GetStateEv,comdat
	.align 2
	.weak	_ZN10GuiElement8GetStateEv
	.type	_ZN10GuiElement8GetStateEv, @function
_ZN10GuiElement8GetStateEv:
.LFB1400:
	.loc 2 178 0
	.cfi_startproc
.LVL31:
	.loc 2 178 0
	lwz 3,72(3)
.LVL32:
	blr
	.cfi_endproc
.LFE1400:
	.size	_ZN10GuiElement8GetStateEv, .-_ZN10GuiElement8GetStateEv
	.section	.text._ZN10GuiElement12GetStateChanEv,"axG",@progbits,_ZN10GuiElement12GetStateChanEv,comdat
	.align 2
	.weak	_ZN10GuiElement12GetStateChanEv
	.type	_ZN10GuiElement12GetStateChanEv, @function
_ZN10GuiElement12GetStateChanEv:
.LFB1401:
	.loc 2 181 0
	.cfi_startproc
.LVL33:
	.loc 2 181 0
	lwz 3,76(3)
.LVL34:
	blr
	.cfi_endproc
.LFE1401:
	.size	_ZN10GuiElement12GetStateChanEv, .-_ZN10GuiElement12GetStateChanEv
	.section	.text._ZN10GuiElement8SetAlphaEi,"axG",@progbits,_ZN10GuiElement8SetAlphaEi,comdat
	.align 2
	.weak	_ZN10GuiElement8SetAlphaEi
	.type	_ZN10GuiElement8SetAlphaEi, @function
_ZN10GuiElement8SetAlphaEi:
.LFB1403:
	.loc 2 190 0
	.cfi_startproc
.LVL35:
	.loc 2 190 0
	stw 4,56(3)
	blr
	.cfi_endproc
.LFE1403:
	.size	_ZN10GuiElement8SetAlphaEi, .-_ZN10GuiElement8SetAlphaEi
	.section	.text._ZN10GuiElement8GetAlphaEv,"axG",@progbits,_ZN10GuiElement8GetAlphaEv,comdat
	.align 2
	.weak	_ZN10GuiElement8GetAlphaEv
	.type	_ZN10GuiElement8GetAlphaEv, @function
_ZN10GuiElement8GetAlphaEv:
.LFB1404:
	.loc 2 194 0
	.cfi_startproc
.LVL36:
	mflr 0
	stwu 1,-40(1)
.LCFI2:
	.cfi_def_cfa_offset 40
	.cfi_register 65, 0
	stw 31,36(1)
	stw 0,44(1)
.LBB4474:
	.loc 2 198 0
	lwz 31,108(3)
	.cfi_offset 65, 4
	.cfi_offset 31, -4
	cmpwi 7,31,0
	blt- 7,.L38
.L36:
.LVL37:
	.loc 2 203 0
	lwz 3,96(3)
.LVL38:
	cmpwi 7,3,0
	beq- 7,.L37
	.loc 2 204 0
	lwz 9,0(3)
	xoris 31,31,0x8000
.LVL39:
	lwz 0,100(9)
	mtctr 0
	bctrl
	lis 0,0x4330
	xoris 3,3,0x8000
	stw 0,16(1)
	stw 3,20(1)
	lis 9,.LC1@ha
	lfs 0,.LC1@l(9)
	lis 9,.LC2@ha
	lfd 13,16(1)
	lfs 12,.LC2@l(9)
	addi 9,1,24
	fsub 13,13,0
	stw 31,12(1)
	stw 0,8(1)
	frsp 13,13
	fdivs 13,13,12
	lfd 12,8(1)
	fsub 0,12,0
	frsp 0,0
	fmuls 0,0,13
	fctiwz 0,0
	stfiwx 0,0,9
	lwz 31,24(1)
.LVL40:
.L37:
.LBE4474:
	.loc 2 207 0
	lwz 0,44(1)
	mr 3,31
	lwz 31,36(1)
.LVL41:
	mtlr 0
	addi 1,1,40
	.cfi_remember_state
.LCFI3:
	.cfi_def_cfa_offset 0
	.cfi_restore 31
	blr
.LVL42:
.L38:
.LCFI4:
	.cfi_restore_state
.LBB4475:
	.loc 2 201 0
	lwz 31,56(3)
.LVL43:
	b .L36
.LBE4475:
	.cfi_endproc
.LFE1404:
	.size	_ZN10GuiElement8GetAlphaEv, .-_ZN10GuiElement8GetAlphaEv
	.section	.text._ZN10GuiElement8SetScaleEf,"axG",@progbits,_ZN10GuiElement8SetScaleEf,comdat
	.align 2
	.weak	_ZN10GuiElement8SetScaleEf
	.type	_ZN10GuiElement8SetScaleEf, @function
_ZN10GuiElement8SetScaleEf:
.LFB1405:
	.loc 2 210 0
	.cfi_startproc
.LVL44:
	.loc 2 212 0
	stfs 1,60(3)
	.loc 2 214 0
	.loc 2 213 0
	stfs 1,64(3)
	.loc 2 214 0
	blr
	.cfi_endproc
.LFE1405:
	.size	_ZN10GuiElement8SetScaleEf, .-_ZN10GuiElement8SetScaleEf
	.section	.text._ZN10GuiElement9SetScaleXEf,"axG",@progbits,_ZN10GuiElement9SetScaleXEf,comdat
	.align 2
	.weak	_ZN10GuiElement9SetScaleXEf
	.type	_ZN10GuiElement9SetScaleXEf, @function
_ZN10GuiElement9SetScaleXEf:
.LFB1406:
	.loc 2 217 0
	.cfi_startproc
.LVL45:
	.loc 2 217 0
	stfs 1,60(3)
	blr
	.cfi_endproc
.LFE1406:
	.size	_ZN10GuiElement9SetScaleXEf, .-_ZN10GuiElement9SetScaleXEf
	.section	.text._ZN10GuiElement9SetScaleYEf,"axG",@progbits,_ZN10GuiElement9SetScaleYEf,comdat
	.align 2
	.weak	_ZN10GuiElement9SetScaleYEf
	.type	_ZN10GuiElement9SetScaleYEf, @function
_ZN10GuiElement9SetScaleYEf:
.LFB1407:
	.loc 2 220 0
	.cfi_startproc
.LVL46:
	.loc 2 220 0
	stfs 1,64(3)
	blr
	.cfi_endproc
.LFE1407:
	.size	_ZN10GuiElement9SetScaleYEf, .-_ZN10GuiElement9SetScaleYEf
	.section	.text._ZN10GuiElement8GetScaleEv,"axG",@progbits,_ZN10GuiElement8GetScaleEv,comdat
	.align 2
	.weak	_ZN10GuiElement8GetScaleEv
	.type	_ZN10GuiElement8GetScaleEv, @function
_ZN10GuiElement8GetScaleEv:
.LFB1408:
	.loc 2 223 0
	.cfi_startproc
.LVL47:
	mflr 0
	stwu 1,-16(1)
.LCFI5:
	.cfi_def_cfa_offset 16
	.cfi_register 65, 0
.LBB4476:
	.loc 2 225 0
	lis 9,.LC3@ha
.LBE4476:
	.loc 2 223 0
	stfd 31,8(1)
	stw 0,20(1)
.LBB4477:
	.loc 2 225 0
	lfs 0,64(3)
	lfs 31,60(3)
	.cfi_offset 65, 4
	.cfi_offset 63, -8
	.loc 2 227 0
	lwz 11,96(3)
	.loc 2 225 0
	fadds 31,31,0
	lfs 0,.LC3@l(9)
	.loc 2 227 0
	cmpwi 7,11,0
	.loc 2 225 0
	fmuls 31,31,0
	lfs 0,112(3)
	fmuls 31,31,0
.LVL48:
	.loc 2 227 0
	beq- 7,.L43
	.loc 2 228 0
	lwz 9,0(11)
	mr 3,11
.LVL49:
	lwz 0,116(9)
	mtctr 0
	bctrl
	fmuls 31,31,1
.LVL50:
.L43:
.LBE4477:
	.loc 2 231 0
	lwz 0,20(1)
	fmr 1,31
	lfd 31,8(1)
.LVL51:
	mtlr 0
	addi 1,1,16
.LCFI6:
	.cfi_def_cfa_offset 0
	.cfi_restore 63
	blr
	.cfi_endproc
.LFE1408:
	.size	_ZN10GuiElement8GetScaleEv, .-_ZN10GuiElement8GetScaleEv
	.section	.text._ZN10GuiElement9GetScaleXEv,"axG",@progbits,_ZN10GuiElement9GetScaleXEv,comdat
	.align 2
	.weak	_ZN10GuiElement9GetScaleXEv
	.type	_ZN10GuiElement9GetScaleXEv, @function
_ZN10GuiElement9GetScaleXEv:
.LFB1409:
	.loc 2 234 0
	.cfi_startproc
.LVL52:
	mflr 0
	stwu 1,-16(1)
.LCFI7:
	.cfi_def_cfa_offset 16
	.cfi_register 65, 0
	stfd 31,8(1)
	stw 0,20(1)
.LBB4478:
	.loc 2 238 0
	lwz 11,96(3)
	.loc 2 236 0
	lfs 31,60(3)
	.cfi_offset 65, 4
	.cfi_offset 63, -8
	.loc 2 238 0
	cmpwi 7,11,0
	.loc 2 236 0
	lfs 0,112(3)
	fmuls 31,31,0
.LVL53:
	.loc 2 238 0
	beq- 7,.L45
	.loc 2 239 0
	lwz 9,0(11)
	mr 3,11
.LVL54:
	lwz 0,120(9)
	mtctr 0
	bctrl
	fmuls 31,31,1
.LVL55:
.L45:
.LBE4478:
	.loc 2 242 0
	lwz 0,20(1)
	fmr 1,31
	lfd 31,8(1)
.LVL56:
	mtlr 0
	addi 1,1,16
.LCFI8:
	.cfi_def_cfa_offset 0
	.cfi_restore 63
	blr
	.cfi_endproc
.LFE1409:
	.size	_ZN10GuiElement9GetScaleXEv, .-_ZN10GuiElement9GetScaleXEv
	.section	.text._ZN10GuiElement9GetScaleYEv,"axG",@progbits,_ZN10GuiElement9GetScaleYEv,comdat
	.align 2
	.weak	_ZN10GuiElement9GetScaleYEv
	.type	_ZN10GuiElement9GetScaleYEv, @function
_ZN10GuiElement9GetScaleYEv:
.LFB1410:
	.loc 2 245 0
	.cfi_startproc
.LVL57:
	mflr 0
	stwu 1,-16(1)
.LCFI9:
	.cfi_def_cfa_offset 16
	.cfi_register 65, 0
	stfd 31,8(1)
	stw 0,20(1)
.LBB4479:
	.loc 2 249 0
	lwz 11,96(3)
	.loc 2 247 0
	lfs 31,64(3)
	.cfi_offset 65, 4
	.cfi_offset 63, -8
	.loc 2 249 0
	cmpwi 7,11,0
	.loc 2 247 0
	lfs 0,112(3)
	fmuls 31,31,0
.LVL58:
	.loc 2 249 0
	beq- 7,.L47
	.loc 2 250 0
	lwz 9,0(11)
	mr 3,11
.LVL59:
	lwz 0,124(9)
	mtctr 0
	bctrl
	fmuls 31,31,1
.LVL60:
.L47:
.LBE4479:
	.loc 2 253 0
	lwz 0,20(1)
	fmr 1,31
	lfd 31,8(1)
.LVL61:
	mtlr 0
	addi 1,1,16
.LCFI10:
	.cfi_def_cfa_offset 0
	.cfi_restore 63
	blr
	.cfi_endproc
.LFE1410:
	.size	_ZN10GuiElement9GetScaleYEv, .-_ZN10GuiElement9GetScaleYEv
	.section	.text._ZN10GuiElement6RumbleEv,"axG",@progbits,_ZN10GuiElement6RumbleEv,comdat
	.align 2
	.weak	_ZN10GuiElement6RumbleEv
	.type	_ZN10GuiElement6RumbleEv, @function
_ZN10GuiElement6RumbleEv:
.LFB1411:
	.loc 2 256 0
	.cfi_startproc
.LVL62:
	.loc 2 256 0
	lbz 3,28(3)
.LVL63:
	blr
	.cfi_endproc
.LFE1411:
	.size	_ZN10GuiElement6RumbleEv, .-_ZN10GuiElement6RumbleEv
	.section	.text._ZN10GuiElement9SetRumbleEb,"axG",@progbits,_ZN10GuiElement9SetRumbleEb,comdat
	.align 2
	.weak	_ZN10GuiElement9SetRumbleEb
	.type	_ZN10GuiElement9SetRumbleEb, @function
_ZN10GuiElement9SetRumbleEb:
.LFB1412:
	.loc 2 259 0
	.cfi_startproc
.LVL64:
	.loc 2 259 0
	stb 4,28(3)
	blr
	.cfi_endproc
.LFE1412:
	.size	_ZN10GuiElement9SetRumbleEb, .-_ZN10GuiElement9SetRumbleEb
	.section	.text._ZN10GuiElement13SetEffectGrowEv,"axG",@progbits,_ZN10GuiElement13SetEffectGrowEv,comdat
	.align 2
	.weak	_ZN10GuiElement13SetEffectGrowEv
	.type	_ZN10GuiElement13SetEffectGrowEv, @function
_ZN10GuiElement13SetEffectGrowEv:
.LFB1413:
	.loc 2 271 0
	.cfi_startproc
.LVL65:
	mflr 0
	stwu 1,-8(1)
.LCFI11:
	.cfi_def_cfa_offset 8
	.cfi_register 65, 0
	lwz 9,0(3)
	li 4,256
	li 5,4
	li 6,110
	stw 0,12(1)
	.loc 2 271 0
	lwz 0,140(9)
	.cfi_offset 65, 4
	mtctr 0
	bctrl
.LVL66:
	lwz 0,12(1)
	addi 1,1,8
.LCFI12:
	.cfi_def_cfa_offset 0
	mtlr 0
	blr
	.cfi_endproc
.LFE1413:
	.size	_ZN10GuiElement13SetEffectGrowEv, .-_ZN10GuiElement13SetEffectGrowEv
	.section	.text._ZNK10GuiElement9GetEffectEv,"axG",@progbits,_ZNK10GuiElement9GetEffectEv,comdat
	.align 2
	.weak	_ZNK10GuiElement9GetEffectEv
	.type	_ZNK10GuiElement9GetEffectEv, @function
_ZNK10GuiElement9GetEffectEv:
.LFB1414:
	.loc 2 276 0
	.cfi_startproc
.LVL67:
	.loc 2 276 0
	lwz 3,120(3)
.LVL68:
	blr
	.cfi_endproc
.LFE1414:
	.size	_ZNK10GuiElement9GetEffectEv, .-_ZNK10GuiElement9GetEffectEv
	.section	.text._ZNK10GuiElement10IsAnimatedEv,"axG",@progbits,_ZNK10GuiElement10IsAnimatedEv,comdat
	.align 2
	.weak	_ZNK10GuiElement10IsAnimatedEv
	.type	_ZNK10GuiElement10IsAnimatedEv, @function
_ZNK10GuiElement10IsAnimatedEv:
.LFB1415:
	.loc 2 278 0
	.cfi_startproc
.LVL69:
	mflr 0
	stwu 1,-8(1)
.LCFI13:
	.cfi_def_cfa_offset 8
	.cfi_register 65, 0
	stw 0,12(1)
	.loc 2 278 0
	lwz 9,0(3)
	lwz 0,152(9)
	.cfi_offset 65, 4
	mtctr 0
	bctrl
.LVL70:
	srawi 0,3,31
	subf 3,3,0
	lwz 0,12(1)
	srwi 3,3,31
	mtlr 0
	addi 1,1,8
.LCFI14:
	.cfi_def_cfa_offset 0
	blr
	.cfi_endproc
.LFE1415:
	.size	_ZNK10GuiElement10IsAnimatedEv, .-_ZNK10GuiElement10IsAnimatedEv
	.section	.text._ZN10GuiElement8IsInsideEii,"axG",@progbits,_ZN10GuiElement8IsInsideEii,comdat
	.align 2
	.weak	_ZN10GuiElement8IsInsideEii
	.type	_ZN10GuiElement8IsInsideEii, @function
_ZN10GuiElement8IsInsideEii:
.LFB1417:
	.loc 2 285 0
	.cfi_startproc
.LVL71:
	mflr 0
	stwu 1,-24(1)
.LCFI15:
	.cfi_def_cfa_offset 24
	.cfi_register 65, 0
	stw 28,8(1)
	mr 28,5
	.cfi_offset 28, -16
	stw 0,28(1)
	stw 29,12(1)
	.loc 2 290 0
	li 29,0
	.cfi_offset 29, -12
	.cfi_offset 65, 4
	.loc 2 287 0
	lwz 9,0(3)
	.loc 2 285 0
	stw 30,16(1)
	mr 30,4
	.cfi_offset 30, -8
	.loc 2 287 0
	lwz 0,16(9)
	.loc 2 285 0
	stw 31,20(1)
	.loc 2 285 0
	mr 31,3
	.cfi_offset 31, -4
	.loc 2 287 0
	mtctr 0
	bctrl
.LVL72:
	.loc 2 290 0
	cmpw 7,3,30
	blt- 7,.L58
.L54:
	.loc 2 291 0 discriminator 6
	lwz 0,28(1)
	mr 3,29
	lwz 28,8(1)
.LVL73:
	mtlr 0
	lwz 29,12(1)
	lwz 30,16(1)
.LVL74:
	lwz 31,20(1)
.LVL75:
	addi 1,1,24
	.cfi_remember_state
.LCFI16:
	.cfi_def_cfa_offset 0
	.cfi_restore 31
	.cfi_restore 30
	.cfi_restore 29
	.cfi_restore 28
	blr
.LVL76:
.L58:
.LCFI17:
	.cfi_restore_state
	.loc 2 288 0 discriminator 1
	lwz 9,0(31)
	mr 3,31
	lwz 0,16(9)
	mtctr 0
	bctrl
	.loc 2 290 0 discriminator 1
	lwz 0,36(31)
	add 0,3,0
	cmpw 7,30,0
	bge+ 7,.L54
	.loc 2 289 0 discriminator 3
	lwz 9,0(31)
	mr 3,31
	lwz 0,20(9)
	mtctr 0
	bctrl
	.loc 2 290 0 discriminator 3
	cmpw 7,3,28
	bge+ 7,.L54
	.loc 2 290 0 is_stmt 0 discriminator 4
	lwz 9,0(31)
	mr 3,31
	lwz 0,20(9)
	mtctr 0
	bctrl
	lwz 0,40(31)
	add 0,3,0
	.loc 2 285 0 is_stmt 1 discriminator 4
	cmpw 7,28,0
	mfcr 29
	rlwinm 29,29,29,1
	b .L54
	.cfi_endproc
.LFE1417:
	.size	_ZN10GuiElement8IsInsideEii, .-_ZN10GuiElement8IsInsideEii
	.section	.text._ZN10GuiElement11SetPositionEii,"axG",@progbits,_ZN10GuiElement11SetPositionEii,comdat
	.align 2
	.weak	_ZN10GuiElement11SetPositionEii
	.type	_ZN10GuiElement11SetPositionEii, @function
_ZN10GuiElement11SetPositionEii:
.LFB1418:
	.loc 2 295 0
	.cfi_startproc
.LVL77:
	.loc 2 297 0
	stw 4,44(3)
	.loc 2 299 0
	.loc 2 298 0
	stw 5,48(3)
	.loc 2 299 0
	blr
	.cfi_endproc
.LFE1418:
	.size	_ZN10GuiElement11SetPositionEii, .-_ZN10GuiElement11SetPositionEii
	.section	.text._ZN10GuiElement11SetPositionEiii,"axG",@progbits,_ZN10GuiElement11SetPositionEiii,comdat
	.align 2
	.weak	_ZN10GuiElement11SetPositionEiii
	.type	_ZN10GuiElement11SetPositionEiii, @function
_ZN10GuiElement11SetPositionEiii:
.LFB1419:
	.loc 2 304 0
	.cfi_startproc
.LVL78:
	.loc 2 306 0
	stw 4,44(3)
	.loc 2 309 0
	.loc 2 307 0
	stw 5,48(3)
	.loc 2 308 0
	stw 6,52(3)
	.loc 2 309 0
	blr
	.cfi_endproc
.LFE1419:
	.size	_ZN10GuiElement11SetPositionEiii, .-_ZN10GuiElement11SetPositionEiii
	.section	.text._ZN10GuiElement12SetAlignmentEi,"axG",@progbits,_ZN10GuiElement12SetAlignmentEi,comdat
	.align 2
	.weak	_ZN10GuiElement12SetAlignmentEi
	.type	_ZN10GuiElement12SetAlignmentEi, @function
_ZN10GuiElement12SetAlignmentEi:
.LFB1421:
	.loc 2 316 0
	.cfi_startproc
.LVL79:
	.loc 2 316 0
	stw 4,68(3)
	blr
	.cfi_endproc
.LFE1421:
	.size	_ZN10GuiElement12SetAlignmentEi, .-_ZN10GuiElement12SetAlignmentEi
	.section	.text._ZNK10GuiElement12GetAlignmentEv,"axG",@progbits,_ZNK10GuiElement12GetAlignmentEv,comdat
	.align 2
	.weak	_ZNK10GuiElement12GetAlignmentEv
	.type	_ZNK10GuiElement12GetAlignmentEv, @function
_ZNK10GuiElement12GetAlignmentEv:
.LFB1422:
	.loc 2 318 0
	.cfi_startproc
.LVL80:
	.loc 2 318 0
	lwz 3,68(3)
.LVL81:
	blr
	.cfi_endproc
.LFE1422:
	.size	_ZNK10GuiElement12GetAlignmentEv, .-_ZNK10GuiElement12GetAlignmentEv
	.section	.text._ZN8GuiFrame4showEv,"axG",@progbits,_ZN8GuiFrame4showEv,comdat
	.align 2
	.weak	_ZN8GuiFrame4showEv
	.type	_ZN8GuiFrame4showEv, @function
_ZN8GuiFrame4showEv:
.LFB1431:
	.file 3 "d:/Projects/SaveGameManager/savegame-manager-gx/trunk/source/SoundOperations/../Controls/../GUI/gui_frame.h"
	.loc 3 79 0
	.cfi_startproc
.LVL82:
	.loc 3 79 0
	blr
	.cfi_endproc
.LFE1431:
	.size	_ZN8GuiFrame4showEv, .-_ZN8GuiFrame4showEv
	.section	.text._ZN8GuiFrame4hideEv,"axG",@progbits,_ZN8GuiFrame4hideEv,comdat
	.align 2
	.weak	_ZN8GuiFrame4hideEv
	.type	_ZN8GuiFrame4hideEv, @function
_ZN8GuiFrame4hideEv:
.LFB1432:
	.loc 3 81 0
	.cfi_startproc
.LVL83:
	.loc 3 81 0
	blr
	.cfi_endproc
.LFE1432:
	.size	_ZN8GuiFrame4hideEv, .-_ZN8GuiFrame4hideEv
	.section	.text._ZN8GuiFrame4execEv,"axG",@progbits,_ZN8GuiFrame4execEv,comdat
	.align 2
	.weak	_ZN8GuiFrame4execEv
	.type	_ZN8GuiFrame4execEv, @function
_ZN8GuiFrame4execEv:
.LFB1433:
	.loc 3 83 0
	.cfi_startproc
.LVL84:
	.loc 3 83 0
	blr
	.cfi_endproc
.LFE1433:
	.size	_ZN8GuiFrame4execEv, .-_ZN8GuiFrame4execEv
	.section	.text._ZN8GuiFrame12updateEventsEv,"axG",@progbits,_ZN8GuiFrame12updateEventsEv,comdat
	.align 2
	.weak	_ZN8GuiFrame12updateEventsEv
	.type	_ZN8GuiFrame12updateEventsEv, @function
_ZN8GuiFrame12updateEventsEv:
.LFB1434:
	.loc 3 85 0
	.cfi_startproc
.LVL85:
	.loc 3 85 0
	blr
	.cfi_endproc
.LFE1434:
	.size	_ZN8GuiFrame12updateEventsEv, .-_ZN8GuiFrame12updateEventsEv
	.section	".text"
	.align 2
	.globl _ZN8PlayList17OnButtonListClickEP9GuiButtoniRK6_POINT
	.type	_ZN8PlayList17OnButtonListClickEP9GuiButtoniRK6_POINT, @function
_ZN8PlayList17OnButtonListClickEP9GuiButtoniRK6_POINT:
.LFB1602:
	.file 4 "d:/Projects/SaveGameManager/savegame-manager-gx/trunk/source/SoundOperations/PlayList.cpp"
	.loc 4 173 0
	.cfi_startproc
	.cfi_personality 0,__gxx_personality_v0
	.cfi_lsda 0,.LLSDA1602
.LVL86:
	mflr 0
	stwu 1,-32(1)
.LCFI18:
	.cfi_def_cfa_offset 32
	.cfi_register 65, 0
	stw 30,24(1)
	mr 30,3
	.cfi_offset 30, -8
	stw 0,36(1)
	stw 27,12(1)
.LBB4480:
	.loc 4 503 0
	lwz 9,240(3)
.LBB4481:
.LBB4482:
	.file 5 "d:\\devkitpro\\devkitppc\\bin\\../lib/gcc/powerpc-eabi/4.6.3/../../../../powerpc-eabi/include/c++/4.6.3/bits/stl_vector.h"
	.loc 5 571 0
	lwz 0,244(3)
	.cfi_offset 27, -20
	.cfi_offset 65, 4
.LBE4482:
.LBE4481:
.LBE4480:
	.loc 4 173 0
	stw 28,16(1)
.LBB4505:
.LBB4484:
.LBB4483:
	.loc 5 571 0
	subf 0,9,0
.LBE4483:
.LBE4484:
.LBE4505:
	.loc 4 173 0
	stw 29,20(1)
.LBB4506:
	.loc 4 174 0
	srawi. 0,0,2
.LBE4506:
	.loc 4 173 0
	stw 31,28(1)
.LBB4507:
	.loc 4 174 0
	beq- 0,.L67
	.cfi_offset 31, -4
	.cfi_offset 29, -12
	.cfi_offset 28, -16
.LVL87:
	.loc 4 176 0
	lwz 11,0(9)
	li 28,0
	.loc 4 174 0
	mtctr 0
	.loc 4 176 0
	cmpw 7,11,4
	bne+ 7,.L70
	b .L69
.LVL88:
.L75:
	slwi 0,28,2
	lwzx 0,9,0
	cmpw 7,0,4
	beq- 7,.L69
.LVL89:
.L70:
	.loc 4 174 0
	addi 28,28,1
.LVL90:
	bdnz .L75
.LVL91:
.L67:
.LBE4507:
	.loc 4 182 0
	lwz 0,36(1)
	lwz 27,12(1)
	mtlr 0
	lwz 28,16(1)
	lwz 29,20(1)
	lwz 30,24(1)
	lwz 31,28(1)
	addi 1,1,32
	.cfi_remember_state
.LCFI19:
	.cfi_def_cfa_offset 0
	.cfi_restore 31
	.cfi_restore 30
	.cfi_restore 29
	.cfi_restore 28
	.cfi_restore 27
	blr
.L69:
.LCFI20:
	.cfi_restore_state
.LVL92:
.LBB4508:
.LBB4485:
.LBB4486:
.LBB4487:
.LBB4488:
	.loc 1 338 0
	lwz 9,204(30)
.LBE4488:
.LBE4487:
	.loc 1 2270 0
	addi 27,30,204
.LVL93:
.LBB4491:
.LBB4489:
	.loc 1 338 0
	mr 3,27
.LVL94:
.LBE4489:
.LBE4491:
.LBE4486:
	.loc 4 503 0
	mr 29,30
.LBB4501:
.LBB4492:
.LBB4490:
	.loc 1 338 0
	lwz 0,8(9)
	mtctr 0
.LEHB0:
	bctrl
.LEHE0:
.LVL95:
.LBE4490:
.LBE4492:
.LBE4501:
	.loc 4 503 0
	lwzu 31,208(29)
.LVL96:
.LBB4502:
	.loc 1 2274 0
	cmpw 7,31,29
	beq- 7,.L71
.LVL97:
.L80:
	.loc 1 2279 0
	lwz 3,8(31)
	mr 4,30
	mr 5,28
.LBB4493:
.LBB4494:
	.file 6 "d:\\devkitpro\\devkitppc\\bin\\../lib/gcc/powerpc-eabi/4.6.3/../../../../powerpc-eabi/include/c++/4.6.3/bits/stl_list.h"
	.loc 6 234 0
	lwz 31,0(31)
.LVL98:
.LBE4494:
.LBE4493:
	.loc 1 2279 0
	lwz 9,0(3)
	lwz 0,12(9)
	mtctr 0
.LEHB1:
	bctrl
.LEHE1:
.LVL99:
	.loc 1 2274 0
	cmpw 7,29,31
	bne+ 7,.L80
.LVL100:
.L71:
.LBB4495:
.LBB4496:
.LBB4497:
	.loc 1 343 0
	lwz 9,204(30)
	mr 3,27
	lwz 0,12(9)
	mtctr 0
.LEHB2:
	bctrl
.LEHE2:
.LBE4497:
.LBE4496:
.LBE4495:
.LBE4502:
.LBE4485:
.LBE4508:
	.loc 4 182 0
	lwz 0,36(1)
	lwz 27,12(1)
	mtlr 0
	lwz 28,16(1)
.LVL101:
	lwz 29,20(1)
	lwz 30,24(1)
.LVL102:
	lwz 31,28(1)
.LVL103:
	addi 1,1,32
	.cfi_remember_state
	.cfi_restore 27
	.cfi_restore 28
	.cfi_restore 29
	.cfi_restore 30
	.cfi_restore 31
.LCFI21:
	.cfi_def_cfa_offset 0
	blr
.LVL104:
.L78:
.LCFI22:
	.cfi_restore_state
.LBB4509:
.LBB4504:
.LBB4503:
.LBB4498:
.LBB4499:
.LBB4500:
	.loc 1 343 0
	lwz 9,204(30)
	mr 31,3
.LVL105:
	mr 3,27
	lwz 0,12(9)
	mtctr 0
	bctrl
	mr 3,31
.LEHB3:
	bl _Unwind_Resume
.LEHE3:
.LBE4500:
.LBE4499:
.LBE4498:
.LBE4503:
.LBE4504:
.LBE4509:
	.cfi_endproc
.LFE1602:
	.globl __gxx_personality_v0
	.section	.gcc_except_table,"a",@progbits
.LLSDA1602:
	.byte	0xff
	.byte	0xff
	.byte	0x1
	.uleb128 .LLSDACSE1602-.LLSDACSB1602
.LLSDACSB1602:
	.uleb128 .LEHB0-.LFB1602
	.uleb128 .LEHE0-.LEHB0
	.uleb128 0
	.uleb128 0
	.uleb128 .LEHB1-.LFB1602
	.uleb128 .LEHE1-.LEHB1
	.uleb128 .L78-.LFB1602
	.uleb128 0
	.uleb128 .LEHB2-.LFB1602
	.uleb128 .LEHE2-.LEHB2
	.uleb128 0
	.uleb128 0
	.uleb128 .LEHB3-.LFB1602
	.uleb128 .LEHE3-.LEHB3
	.uleb128 0
	.uleb128 0
.LLSDACSE1602:
	.section	".text"
	.size	_ZN8PlayList17OnButtonListClickEP9GuiButtoniRK6_POINT, .-_ZN8PlayList17OnButtonListClickEP9GuiButtoniRK6_POINT
	.section	.text._ZN7sigslot12_signal_baseINS_15single_threadedEED2Ev,"axG",@progbits,_ZN7sigslot12_signal_baseINS_15single_threadedEED5Ev,comdat
	.align 2
	.weak	_ZN7sigslot12_signal_baseINS_15single_threadedEED2Ev
	.type	_ZN7sigslot12_signal_baseINS_15single_threadedEED2Ev, @function
_ZN7sigslot12_signal_baseINS_15single_threadedEED2Ev:
.LFB1738:
	.loc 1 466 0
	.cfi_startproc
.LVL106:
.LBB4510:
.LBB4511:
.LBB4512:
.LBB4513:
	.loc 1 105 0
	lis 9,_ZTVN7sigslot15single_threadedE+8@ha
.LBE4513:
.LBE4512:
.LBE4511:
.LBE4510:
	.loc 1 466 0
.LBB4517:
.LBB4516:
.LBB4515:
.LBB4514:
	.loc 1 105 0
	la 0,_ZTVN7sigslot15single_threadedE+8@l(9)
	stw 0,0(3)
.LBE4514:
.LBE4515:
.LBE4516:
.LBE4517:
	.loc 1 466 0
	blr
	.cfi_endproc
.LFE1738:
	.size	_ZN7sigslot12_signal_baseINS_15single_threadedEED2Ev, .-_ZN7sigslot12_signal_baseINS_15single_threadedEED2Ev
	.section	.text._ZN7sigslot17_connection_base2IiiNS_15single_threadedEED2Ev,"axG",@progbits,_ZN7sigslot17_connection_base2IiiNS_15single_threadedEED5Ev,comdat
	.align 2
	.weak	_ZN7sigslot17_connection_base2IiiNS_15single_threadedEED2Ev
	.type	_ZN7sigslot17_connection_base2IiiNS_15single_threadedEED2Ev, @function
_ZN7sigslot17_connection_base2IiiNS_15single_threadedEED2Ev:
.LFB2028:
	.loc 1 376 0
	.cfi_startproc
.LVL107:
.LBB4518:
	.loc 1 376 0
	lis 9,_ZTVN7sigslot17_connection_base2IiiNS_15single_threadedEEE+8@ha
.LBE4518:
.LBB4519:
	la 0,_ZTVN7sigslot17_connection_base2IiiNS_15single_threadedEEE+8@l(9)
	stw 0,0(3)
.LBE4519:
	blr
	.cfi_endproc
.LFE2028:
	.size	_ZN7sigslot17_connection_base2IiiNS_15single_threadedEED2Ev, .-_ZN7sigslot17_connection_base2IiiNS_15single_threadedEED2Ev
	.section	.text._ZN7sigslot17_connection_base3IP9GuiButtoniRK6_POINTNS_15single_threadedEED2Ev,"axG",@progbits,_ZN7sigslot17_connection_base3IP9GuiButtoniRK6_POINTNS_15single_threadedEED5Ev,comdat
	.align 2
	.weak	_ZN7sigslot17_connection_base3IP9GuiButtoniRK6_POINTNS_15single_threadedEED2Ev
	.type	_ZN7sigslot17_connection_base3IP9GuiButtoniRK6_POINTNS_15single_threadedEED2Ev, @function
_ZN7sigslot17_connection_base3IP9GuiButtoniRK6_POINTNS_15single_threadedEED2Ev:
.LFB2035:
	.loc 1 387 0
	.cfi_startproc
.LVL108:
.LBB4520:
	.loc 1 387 0
	lis 9,_ZTVN7sigslot17_connection_base3IP9GuiButtoniRK6_POINTNS_15single_threadedEEE+8@ha
.LBE4520:
.LBB4521:
	la 0,_ZTVN7sigslot17_connection_base3IP9GuiButtoniRK6_POINTNS_15single_threadedEEE+8@l(9)
	stw 0,0(3)
.LBE4521:
	blr
	.cfi_endproc
.LFE2035:
	.size	_ZN7sigslot17_connection_base3IP9GuiButtoniRK6_POINTNS_15single_threadedEED2Ev, .-_ZN7sigslot17_connection_base3IP9GuiButtoniRK6_POINTNS_15single_threadedEED2Ev
	.section	.text._ZN7sigslot17_connection_base3IP10GuiElementiiNS_15single_threadedEED2Ev,"axG",@progbits,_ZN7sigslot17_connection_base3IP10GuiElementiiNS_15single_threadedEED5Ev,comdat
	.align 2
	.weak	_ZN7sigslot17_connection_base3IP10GuiElementiiNS_15single_threadedEED2Ev
	.type	_ZN7sigslot17_connection_base3IP10GuiElementiiNS_15single_threadedEED2Ev, @function
_ZN7sigslot17_connection_base3IP10GuiElementiiNS_15single_threadedEED2Ev:
.LFB2065:
	.loc 1 387 0
	.cfi_startproc
.LVL109:
.LBB4522:
	.loc 1 387 0
	lis 9,_ZTVN7sigslot17_connection_base3IP10GuiElementiiNS_15single_threadedEEE+8@ha
.LBE4522:
.LBB4523:
	la 0,_ZTVN7sigslot17_connection_base3IP10GuiElementiiNS_15single_threadedEEE+8@l(9)
	stw 0,0(3)
.LBE4523:
	blr
	.cfi_endproc
.LFE2065:
	.size	_ZN7sigslot17_connection_base3IP10GuiElementiiNS_15single_threadedEED2Ev, .-_ZN7sigslot17_connection_base3IP10GuiElementiiNS_15single_threadedEED2Ev
	.section	.text._ZN7sigslot12_connection3I8PlayListP10GuiElementiiNS_15single_threadedEED2Ev,"axG",@progbits,_ZN7sigslot12_connection3I8PlayListP10GuiElementiiNS_15single_threadedEED5Ev,comdat
	.align 2
	.weak	_ZN7sigslot12_connection3I8PlayListP10GuiElementiiNS_15single_threadedEED2Ev
	.type	_ZN7sigslot12_connection3I8PlayListP10GuiElementiiNS_15single_threadedEED2Ev, @function
_ZN7sigslot12_connection3I8PlayListP10GuiElementiiNS_15single_threadedEED2Ev:
.LFB2550:
	.loc 1 1783 0
	.cfi_startproc
.LVL110:
.LBB4524:
.LBB4525:
.LBB4526:
.LBB4527:
	.loc 1 387 0
	lis 9,_ZTVN7sigslot17_connection_base3IP10GuiElementiiNS_15single_threadedEEE+8@ha
.LBE4527:
.LBE4526:
.LBE4525:
.LBE4524:
	.loc 1 1786 0
.LBB4531:
.LBB4530:
.LBB4529:
.LBB4528:
	.loc 1 387 0
	la 0,_ZTVN7sigslot17_connection_base3IP10GuiElementiiNS_15single_threadedEEE+8@l(9)
	stw 0,0(3)
.LBE4528:
.LBE4529:
.LBE4530:
.LBE4531:
	.loc 1 1786 0
	blr
	.cfi_endproc
.LFE2550:
	.size	_ZN7sigslot12_connection3I8PlayListP10GuiElementiiNS_15single_threadedEED2Ev, .-_ZN7sigslot12_connection3I8PlayListP10GuiElementiiNS_15single_threadedEED2Ev
	.section	.text._ZNK7sigslot12_connection3I8PlayListP10GuiElementiiNS_15single_threadedEE7getdestEv,"axG",@progbits,_ZNK7sigslot12_connection3I8PlayListP10GuiElementiiNS_15single_threadedEE7getdestEv,comdat
	.align 2
	.weak	_ZNK7sigslot12_connection3I8PlayListP10GuiElementiiNS_15single_threadedEE7getdestEv
	.type	_ZNK7sigslot12_connection3I8PlayListP10GuiElementiiNS_15single_threadedEE7getdestEv, @function
_ZNK7sigslot12_connection3I8PlayListP10GuiElementiiNS_15single_threadedEE7getdestEv:
.LFB2553:
	.loc 1 1804 0
	.cfi_startproc
.LVL111:
	.loc 1 1806 0
	lwz 9,4(3)
	li 3,0
.LVL112:
	cmpwi 7,9,0
	beqlr- 7
	.loc 1 1806 0 is_stmt 0 discriminator 1
	addi 3,9,176
	.loc 1 1807 0 is_stmt 1 discriminator 1
	blr
	.cfi_endproc
.LFE2553:
	.size	_ZNK7sigslot12_connection3I8PlayListP10GuiElementiiNS_15single_threadedEE7getdestEv, .-_ZNK7sigslot12_connection3I8PlayListP10GuiElementiiNS_15single_threadedEE7getdestEv
	.section	.text._ZN7sigslot12_connection3I8PlayListP10GuiElementiiNS_15single_threadedEE4emitES3_ii,"axG",@progbits,_ZN7sigslot12_connection3I8PlayListP10GuiElementiiNS_15single_threadedEE4emitES3_ii,comdat
	.align 2
	.weak	_ZN7sigslot12_connection3I8PlayListP10GuiElementiiNS_15single_threadedEE4emitES3_ii
	.type	_ZN7sigslot12_connection3I8PlayListP10GuiElementiiNS_15single_threadedEE4emitES3_ii, @function
_ZN7sigslot12_connection3I8PlayListP10GuiElementiiNS_15single_threadedEE4emitES3_ii:
.LFB2554:
	.loc 1 1799 0
	.cfi_startproc
.LVL113:
	mflr 0
	stwu 1,-8(1)
.LCFI23:
	.cfi_def_cfa_offset 8
	.cfi_register 65, 0
	stw 0,12(1)
	.loc 1 1801 0
	lwz 0,8(3)
	.cfi_offset 65, 4
	lwz 11,4(3)
	andi. 9,0,1
	lwz 9,12(3)
	bne- 0,.L97
	mtctr 0
	add 3,11,9
.LVL114:
	bctrl
.LVL115:
	.loc 1 1802 0
	lwz 0,12(1)
	addi 1,1,8
	.cfi_remember_state
.LCFI24:
	.cfi_def_cfa_offset 0
	mtlr 0
	blr
.LVL116:
.L97:
.LCFI25:
	.cfi_restore_state
	.loc 1 1801 0 discriminator 1
	lwzx 10,11,9
	add 3,11,9
.LVL117:
	add 9,10,0
	lwz 0,-1(9)
	mtctr 0
	bctrl
.LVL118:
	.loc 1 1802 0 discriminator 1
	lwz 0,12(1)
	addi 1,1,8
.LCFI26:
	.cfi_def_cfa_offset 0
	mtlr 0
	blr
	.cfi_endproc
.LFE2554:
	.size	_ZN7sigslot12_connection3I8PlayListP10GuiElementiiNS_15single_threadedEE4emitES3_ii, .-_ZN7sigslot12_connection3I8PlayListP10GuiElementiiNS_15single_threadedEE4emitES3_ii
	.section	.text._ZN7sigslot12_connection3I8PlayListP9GuiButtoniRK6_POINTNS_15single_threadedEED2Ev,"axG",@progbits,_ZN7sigslot12_connection3I8PlayListP9GuiButtoniRK6_POINTNS_15single_threadedEED5Ev,comdat
	.align 2
	.weak	_ZN7sigslot12_connection3I8PlayListP9GuiButtoniRK6_POINTNS_15single_threadedEED2Ev
	.type	_ZN7sigslot12_connection3I8PlayListP9GuiButtoniRK6_POINTNS_15single_threadedEED2Ev, @function
_ZN7sigslot12_connection3I8PlayListP9GuiButtoniRK6_POINTNS_15single_threadedEED2Ev:
.LFB2564:
	.loc 1 1783 0
	.cfi_startproc
.LVL119:
.LBB4532:
.LBB4533:
.LBB4534:
.LBB4535:
	.loc 1 387 0
	lis 9,_ZTVN7sigslot17_connection_base3IP9GuiButtoniRK6_POINTNS_15single_threadedEEE+8@ha
.LBE4535:
.LBE4534:
.LBE4533:
.LBE4532:
	.loc 1 1786 0
.LBB4539:
.LBB4538:
.LBB4537:
.LBB4536:
	.loc 1 387 0
	la 0,_ZTVN7sigslot17_connection_base3IP9GuiButtoniRK6_POINTNS_15single_threadedEEE+8@l(9)
	stw 0,0(3)
.LBE4536:
.LBE4537:
.LBE4538:
.LBE4539:
	.loc 1 1786 0
	blr
	.cfi_endproc
.LFE2564:
	.size	_ZN7sigslot12_connection3I8PlayListP9GuiButtoniRK6_POINTNS_15single_threadedEED2Ev, .-_ZN7sigslot12_connection3I8PlayListP9GuiButtoniRK6_POINTNS_15single_threadedEED2Ev
	.section	.text._ZNK7sigslot12_connection3I8PlayListP9GuiButtoniRK6_POINTNS_15single_threadedEE7getdestEv,"axG",@progbits,_ZNK7sigslot12_connection3I8PlayListP9GuiButtoniRK6_POINTNS_15single_threadedEE7getdestEv,comdat
	.align 2
	.weak	_ZNK7sigslot12_connection3I8PlayListP9GuiButtoniRK6_POINTNS_15single_threadedEE7getdestEv
	.type	_ZNK7sigslot12_connection3I8PlayListP9GuiButtoniRK6_POINTNS_15single_threadedEE7getdestEv, @function
_ZNK7sigslot12_connection3I8PlayListP9GuiButtoniRK6_POINTNS_15single_threadedEE7getdestEv:
.LFB2567:
	.loc 1 1804 0
	.cfi_startproc
.LVL120:
	.loc 1 1806 0
	lwz 9,4(3)
	li 3,0
.LVL121:
	cmpwi 7,9,0
	beqlr- 7
	.loc 1 1806 0 is_stmt 0 discriminator 1
	addi 3,9,176
	.loc 1 1807 0 is_stmt 1 discriminator 1
	blr
	.cfi_endproc
.LFE2567:
	.size	_ZNK7sigslot12_connection3I8PlayListP9GuiButtoniRK6_POINTNS_15single_threadedEE7getdestEv, .-_ZNK7sigslot12_connection3I8PlayListP9GuiButtoniRK6_POINTNS_15single_threadedEE7getdestEv
	.section	.text._ZN7sigslot12_connection3I8PlayListP9GuiButtoniRK6_POINTNS_15single_threadedEE4emitES3_iS6_,"axG",@progbits,_ZN7sigslot12_connection3I8PlayListP9GuiButtoniRK6_POINTNS_15single_threadedEE4emitES3_iS6_,comdat
	.align 2
	.weak	_ZN7sigslot12_connection3I8PlayListP9GuiButtoniRK6_POINTNS_15single_threadedEE4emitES3_iS6_
	.type	_ZN7sigslot12_connection3I8PlayListP9GuiButtoniRK6_POINTNS_15single_threadedEE4emitES3_iS6_, @function
_ZN7sigslot12_connection3I8PlayListP9GuiButtoniRK6_POINTNS_15single_threadedEE4emitES3_iS6_:
.LFB2568:
	.loc 1 1799 0
	.cfi_startproc
.LVL122:
	mflr 0
	stwu 1,-8(1)
.LCFI27:
	.cfi_def_cfa_offset 8
	.cfi_register 65, 0
	stw 0,12(1)
	.loc 1 1801 0
	lwz 0,8(3)
	.cfi_offset 65, 4
	lwz 11,4(3)
	andi. 9,0,1
	lwz 9,12(3)
	bne- 0,.L106
	mtctr 0
	add 3,11,9
.LVL123:
	bctrl
.LVL124:
	.loc 1 1802 0
	lwz 0,12(1)
	addi 1,1,8
	.cfi_remember_state
.LCFI28:
	.cfi_def_cfa_offset 0
	mtlr 0
	blr
.LVL125:
.L106:
.LCFI29:
	.cfi_restore_state
	.loc 1 1801 0 discriminator 1
	lwzx 10,11,9
	add 3,11,9
.LVL126:
	add 9,10,0
	lwz 0,-1(9)
	mtctr 0
	bctrl
.LVL127:
	.loc 1 1802 0 discriminator 1
	lwz 0,12(1)
	addi 1,1,8
.LCFI30:
	.cfi_def_cfa_offset 0
	mtlr 0
	blr
	.cfi_endproc
.LFE2568:
	.size	_ZN7sigslot12_connection3I8PlayListP9GuiButtoniRK6_POINTNS_15single_threadedEE4emitES3_iS6_, .-_ZN7sigslot12_connection3I8PlayListP9GuiButtoniRK6_POINTNS_15single_threadedEE4emitES3_iS6_
	.section	.text._ZN7sigslot12_connection2I8PlayListiiNS_15single_threadedEED2Ev,"axG",@progbits,_ZN7sigslot12_connection2I8PlayListiiNS_15single_threadedEED5Ev,comdat
	.align 2
	.weak	_ZN7sigslot12_connection2I8PlayListiiNS_15single_threadedEED2Ev
	.type	_ZN7sigslot12_connection2I8PlayListiiNS_15single_threadedEED2Ev, @function
_ZN7sigslot12_connection2I8PlayListiiNS_15single_threadedEED2Ev:
.LFB2578:
	.loc 1 1735 0
	.cfi_startproc
.LVL128:
.LBB4540:
.LBB4541:
.LBB4542:
.LBB4543:
	.loc 1 376 0
	lis 9,_ZTVN7sigslot17_connection_base2IiiNS_15single_threadedEEE+8@ha
.LBE4543:
.LBE4542:
.LBE4541:
.LBE4540:
	.loc 1 1738 0
.LBB4547:
.LBB4546:
.LBB4545:
.LBB4544:
	.loc 1 376 0
	la 0,_ZTVN7sigslot17_connection_base2IiiNS_15single_threadedEEE+8@l(9)
	stw 0,0(3)
.LBE4544:
.LBE4545:
.LBE4546:
.LBE4547:
	.loc 1 1738 0
	blr
	.cfi_endproc
.LFE2578:
	.size	_ZN7sigslot12_connection2I8PlayListiiNS_15single_threadedEED2Ev, .-_ZN7sigslot12_connection2I8PlayListiiNS_15single_threadedEED2Ev
	.section	.text._ZNK7sigslot12_connection2I8PlayListiiNS_15single_threadedEE7getdestEv,"axG",@progbits,_ZNK7sigslot12_connection2I8PlayListiiNS_15single_threadedEE7getdestEv,comdat
	.align 2
	.weak	_ZNK7sigslot12_connection2I8PlayListiiNS_15single_threadedEE7getdestEv
	.type	_ZNK7sigslot12_connection2I8PlayListiiNS_15single_threadedEE7getdestEv, @function
_ZNK7sigslot12_connection2I8PlayListiiNS_15single_threadedEE7getdestEv:
.LFB2581:
	.loc 1 1756 0
	.cfi_startproc
.LVL129:
	.loc 1 1758 0
	lwz 9,4(3)
	li 3,0
.LVL130:
	cmpwi 7,9,0
	beqlr- 7
	.loc 1 1758 0 is_stmt 0 discriminator 1
	addi 3,9,176
	.loc 1 1759 0 is_stmt 1 discriminator 1
	blr
	.cfi_endproc
.LFE2581:
	.size	_ZNK7sigslot12_connection2I8PlayListiiNS_15single_threadedEE7getdestEv, .-_ZNK7sigslot12_connection2I8PlayListiiNS_15single_threadedEE7getdestEv
	.section	.text._ZN7sigslot12_connection2I8PlayListiiNS_15single_threadedEE4emitEii,"axG",@progbits,_ZN7sigslot12_connection2I8PlayListiiNS_15single_threadedEE4emitEii,comdat
	.align 2
	.weak	_ZN7sigslot12_connection2I8PlayListiiNS_15single_threadedEE4emitEii
	.type	_ZN7sigslot12_connection2I8PlayListiiNS_15single_threadedEE4emitEii, @function
_ZN7sigslot12_connection2I8PlayListiiNS_15single_threadedEE4emitEii:
.LFB2582:
	.loc 1 1751 0
	.cfi_startproc
.LVL131:
	mflr 0
	stwu 1,-8(1)
.LCFI31:
	.cfi_def_cfa_offset 8
	.cfi_register 65, 0
	stw 0,12(1)
	.loc 1 1753 0
	lwz 0,8(3)
	.cfi_offset 65, 4
	lwz 11,4(3)
	andi. 9,0,1
	lwz 9,12(3)
	bne- 0,.L115
	mtctr 0
	add 3,11,9
.LVL132:
	bctrl
.LVL133:
	.loc 1 1754 0
	lwz 0,12(1)
	addi 1,1,8
	.cfi_remember_state
.LCFI32:
	.cfi_def_cfa_offset 0
	mtlr 0
	blr
.LVL134:
.L115:
.LCFI33:
	.cfi_restore_state
	.loc 1 1753 0 discriminator 1
	lwzx 10,11,9
	add 3,11,9
.LVL135:
	add 9,10,0
	lwz 0,-1(9)
	mtctr 0
	bctrl
.LVL136:
	.loc 1 1754 0 discriminator 1
	lwz 0,12(1)
	addi 1,1,8
.LCFI34:
	.cfi_def_cfa_offset 0
	mtlr 0
	blr
	.cfi_endproc
.LFE2582:
	.size	_ZN7sigslot12_connection2I8PlayListiiNS_15single_threadedEE4emitEii, .-_ZN7sigslot12_connection2I8PlayListiiNS_15single_threadedEE4emitEii
	.section	.text._ZN7sigslot12_connection2I8PlayListiiNS_15single_threadedEE9duplicateEPNS_9has_slotsIS2_EE,"axG",@progbits,_ZN7sigslot12_connection2I8PlayListiiNS_15single_threadedEE9duplicateEPNS_9has_slotsIS2_EE,comdat
	.align 2
	.weak	_ZN7sigslot12_connection2I8PlayListiiNS_15single_threadedEE9duplicateEPNS_9has_slotsIS2_EE
	.type	_ZN7sigslot12_connection2I8PlayListiiNS_15single_threadedEE9duplicateEPNS_9has_slotsIS2_EE, @function
_ZN7sigslot12_connection2I8PlayListiiNS_15single_threadedEE9duplicateEPNS_9has_slotsIS2_EE:
.LFB2590:
	.loc 1 1746 0
	.cfi_startproc
.LVL137:
	stwu 1,-16(1)
.LCFI35:
	.cfi_def_cfa_offset 16
	mflr 0
	stw 30,8(1)
	mr 30,4
	.cfi_offset 30, -8
	.cfi_register 65, 0
	stw 31,12(1)
	mr 31,3
	.cfi_offset 31, -4
	.loc 1 1748 0
	li 3,16
.LVL138:
	.loc 1 1746 0
	stw 0,20(1)
	.loc 1 1748 0
	.cfi_offset 65, 4
	bl _Znwj
.LVL139:
	cmpwi 7,30,0
	li 0,0
	beq- 7,.L118
	.loc 1 1748 0 is_stmt 0 discriminator 1
	addi 0,30,-176
.L118:
.LVL140:
	.loc 1 1748 0 discriminator 3
	lwz 11,8(31)
.LVL141:
.LBB4548:
.LBB4549:
	.loc 1 1730 0 is_stmt 1 discriminator 3
	lis 10,_ZTVN7sigslot12_connection2I8PlayListiiNS_15single_threadedEEE+8@ha
.LBE4549:
.LBE4548:
	.loc 1 1748 0 discriminator 3
	lwz 9,12(31)
.LVL142:
.LBB4552:
.LBB4550:
	.loc 1 1730 0 discriminator 3
	la 10,_ZTVN7sigslot12_connection2I8PlayListiiNS_15single_threadedEEE+8@l(10)
	.loc 1 1732 0 discriminator 3
	stw 11,8(3)
	stw 9,12(3)
	.loc 1 1731 0 discriminator 3
	stw 0,4(3)
.LBE4550:
.LBE4552:
	.loc 1 1749 0 discriminator 3
	lwz 0,20(1)
.LVL143:
	lwz 30,8(1)
.LVL144:
	mtlr 0
	lwz 31,12(1)
.LVL145:
.LBB4553:
.LBB4551:
	.loc 1 1730 0 discriminator 3
	stw 10,0(3)
.LBE4551:
.LBE4553:
	.loc 1 1749 0 discriminator 3
	addi 1,1,16
.LCFI36:
	.cfi_def_cfa_offset 0
	.cfi_restore 31
	.cfi_restore 30
	blr
	.cfi_endproc
.LFE2590:
	.size	_ZN7sigslot12_connection2I8PlayListiiNS_15single_threadedEE9duplicateEPNS_9has_slotsIS2_EE, .-_ZN7sigslot12_connection2I8PlayListiiNS_15single_threadedEE9duplicateEPNS_9has_slotsIS2_EE
	.section	.text._ZN7sigslot12_connection3I8PlayListP9GuiButtoniRK6_POINTNS_15single_threadedEE9duplicateEPNS_9has_slotsIS7_EE,"axG",@progbits,_ZN7sigslot12_connection3I8PlayListP9GuiButtoniRK6_POINTNS_15single_threadedEE9duplicateEPNS_9has_slotsIS7_EE,comdat
	.align 2
	.weak	_ZN7sigslot12_connection3I8PlayListP9GuiButtoniRK6_POINTNS_15single_threadedEE9duplicateEPNS_9has_slotsIS7_EE
	.type	_ZN7sigslot12_connection3I8PlayListP9GuiButtoniRK6_POINTNS_15single_threadedEE9duplicateEPNS_9has_slotsIS7_EE, @function
_ZN7sigslot12_connection3I8PlayListP9GuiButtoniRK6_POINTNS_15single_threadedEE9duplicateEPNS_9has_slotsIS7_EE:
.LFB2576:
	.loc 1 1794 0
	.cfi_startproc
.LVL146:
	stwu 1,-16(1)
.LCFI37:
	.cfi_def_cfa_offset 16
	mflr 0
	stw 30,8(1)
	mr 30,4
	.cfi_offset 30, -8
	.cfi_register 65, 0
	stw 31,12(1)
	mr 31,3
	.cfi_offset 31, -4
	.loc 1 1796 0
	li 3,16
.LVL147:
	.loc 1 1794 0
	stw 0,20(1)
	.loc 1 1796 0
	.cfi_offset 65, 4
	bl _Znwj
.LVL148:
	cmpwi 7,30,0
	li 0,0
	beq- 7,.L121
	.loc 1 1796 0 is_stmt 0 discriminator 1
	addi 0,30,-176
.L121:
.LVL149:
	.loc 1 1796 0 discriminator 3
	lwz 11,8(31)
.LVL150:
.LBB4554:
.LBB4555:
	.loc 1 1778 0 is_stmt 1 discriminator 3
	lis 10,_ZTVN7sigslot12_connection3I8PlayListP9GuiButtoniRK6_POINTNS_15single_threadedEEE+8@ha
.LBE4555:
.LBE4554:
	.loc 1 1796 0 discriminator 3
	lwz 9,12(31)
.LVL151:
.LBB4558:
.LBB4556:
	.loc 1 1778 0 discriminator 3
	la 10,_ZTVN7sigslot12_connection3I8PlayListP9GuiButtoniRK6_POINTNS_15single_threadedEEE+8@l(10)
	.loc 1 1780 0 discriminator 3
	stw 11,8(3)
	stw 9,12(3)
	.loc 1 1779 0 discriminator 3
	stw 0,4(3)
.LBE4556:
.LBE4558:
	.loc 1 1797 0 discriminator 3
	lwz 0,20(1)
.LVL152:
	lwz 30,8(1)
.LVL153:
	mtlr 0
	lwz 31,12(1)
.LVL154:
.LBB4559:
.LBB4557:
	.loc 1 1778 0 discriminator 3
	stw 10,0(3)
.LBE4557:
.LBE4559:
	.loc 1 1797 0 discriminator 3
	addi 1,1,16
.LCFI38:
	.cfi_def_cfa_offset 0
	.cfi_restore 31
	.cfi_restore 30
	blr
	.cfi_endproc
.LFE2576:
	.size	_ZN7sigslot12_connection3I8PlayListP9GuiButtoniRK6_POINTNS_15single_threadedEE9duplicateEPNS_9has_slotsIS7_EE, .-_ZN7sigslot12_connection3I8PlayListP9GuiButtoniRK6_POINTNS_15single_threadedEE9duplicateEPNS_9has_slotsIS7_EE
	.section	.text._ZN7sigslot12_connection3I8PlayListP10GuiElementiiNS_15single_threadedEE9duplicateEPNS_9has_slotsIS4_EE,"axG",@progbits,_ZN7sigslot12_connection3I8PlayListP10GuiElementiiNS_15single_threadedEE9duplicateEPNS_9has_slotsIS4_EE,comdat
	.align 2
	.weak	_ZN7sigslot12_connection3I8PlayListP10GuiElementiiNS_15single_threadedEE9duplicateEPNS_9has_slotsIS4_EE
	.type	_ZN7sigslot12_connection3I8PlayListP10GuiElementiiNS_15single_threadedEE9duplicateEPNS_9has_slotsIS4_EE, @function
_ZN7sigslot12_connection3I8PlayListP10GuiElementiiNS_15single_threadedEE9duplicateEPNS_9has_slotsIS4_EE:
.LFB2562:
	.loc 1 1794 0
	.cfi_startproc
.LVL155:
	stwu 1,-16(1)
.LCFI39:
	.cfi_def_cfa_offset 16
	mflr 0
	stw 30,8(1)
	mr 30,4
	.cfi_offset 30, -8
	.cfi_register 65, 0
	stw 31,12(1)
	mr 31,3
	.cfi_offset 31, -4
	.loc 1 1796 0
	li 3,16
.LVL156:
	.loc 1 1794 0
	stw 0,20(1)
	.loc 1 1796 0
	.cfi_offset 65, 4
	bl _Znwj
.LVL157:
	cmpwi 7,30,0
	li 0,0
	beq- 7,.L124
	.loc 1 1796 0 is_stmt 0 discriminator 1
	addi 0,30,-176
.L124:
.LVL158:
	.loc 1 1796 0 discriminator 3
	lwz 11,8(31)
.LVL159:
.LBB4560:
.LBB4561:
	.loc 1 1778 0 is_stmt 1 discriminator 3
	lis 10,_ZTVN7sigslot12_connection3I8PlayListP10GuiElementiiNS_15single_threadedEEE+8@ha
.LBE4561:
.LBE4560:
	.loc 1 1796 0 discriminator 3
	lwz 9,12(31)
.LVL160:
.LBB4564:
.LBB4562:
	.loc 1 1778 0 discriminator 3
	la 10,_ZTVN7sigslot12_connection3I8PlayListP10GuiElementiiNS_15single_threadedEEE+8@l(10)
	.loc 1 1780 0 discriminator 3
	stw 11,8(3)
	stw 9,12(3)
	.loc 1 1779 0 discriminator 3
	stw 0,4(3)
.LBE4562:
.LBE4564:
	.loc 1 1797 0 discriminator 3
	lwz 0,20(1)
.LVL161:
	lwz 30,8(1)
.LVL162:
	mtlr 0
	lwz 31,12(1)
.LVL163:
.LBB4565:
.LBB4563:
	.loc 1 1778 0 discriminator 3
	stw 10,0(3)
.LBE4563:
.LBE4565:
	.loc 1 1797 0 discriminator 3
	addi 1,1,16
.LCFI40:
	.cfi_def_cfa_offset 0
	.cfi_restore 31
	.cfi_restore 30
	blr
	.cfi_endproc
.LFE2562:
	.size	_ZN7sigslot12_connection3I8PlayListP10GuiElementiiNS_15single_threadedEE9duplicateEPNS_9has_slotsIS4_EE, .-_ZN7sigslot12_connection3I8PlayListP10GuiElementiiNS_15single_threadedEE9duplicateEPNS_9has_slotsIS4_EE
	.section	.text._ZN7sigslot12_connection3I8PlayListP10GuiElementiiNS_15single_threadedEE5cloneEv,"axG",@progbits,_ZN7sigslot12_connection3I8PlayListP10GuiElementiiNS_15single_threadedEE5cloneEv,comdat
	.align 2
	.weak	_ZN7sigslot12_connection3I8PlayListP10GuiElementiiNS_15single_threadedEE5cloneEv
	.type	_ZN7sigslot12_connection3I8PlayListP10GuiElementiiNS_15single_threadedEE5cloneEv, @function
_ZN7sigslot12_connection3I8PlayListP10GuiElementiiNS_15single_threadedEE5cloneEv:
.LFB2555:
	.loc 1 1789 0
	.cfi_startproc
.LVL164:
	stwu 1,-16(1)
.LCFI41:
	.cfi_def_cfa_offset 16
	mflr 0
	stw 31,12(1)
	mr 31,3
	.cfi_offset 31, -4
	.cfi_register 65, 0
	.loc 1 1791 0
	li 3,16
.LVL165:
	.loc 1 1789 0
	stw 0,20(1)
	.loc 1 1791 0
	.cfi_offset 65, 4
	bl _Znwj
	.loc 4 503 0
	lwz 0,4(31)
.LVL166:
.LBB4566:
.LBB4567:
	.loc 1 1767 0
	lis 11,_ZTVN7sigslot12_connection3I8PlayListP10GuiElementiiNS_15single_threadedEEE+8@ha
	la 11,_ZTVN7sigslot12_connection3I8PlayListP10GuiElementiiNS_15single_threadedEEE+8@l(11)
	stw 0,4(3)
	stw 11,0(3)
	lwz 10,8(31)
	lwz 11,12(31)
	stw 10,8(3)
	stw 11,12(3)
.LBE4567:
.LBE4566:
	.loc 1 1792 0
	lwz 0,20(1)
	lwz 31,12(1)
.LVL167:
	mtlr 0
	addi 1,1,16
.LCFI42:
	.cfi_def_cfa_offset 0
	.cfi_restore 31
	blr
	.cfi_endproc
.LFE2555:
	.size	_ZN7sigslot12_connection3I8PlayListP10GuiElementiiNS_15single_threadedEE5cloneEv, .-_ZN7sigslot12_connection3I8PlayListP10GuiElementiiNS_15single_threadedEE5cloneEv
	.section	.text._ZN7sigslot12_connection3I8PlayListP9GuiButtoniRK6_POINTNS_15single_threadedEE5cloneEv,"axG",@progbits,_ZN7sigslot12_connection3I8PlayListP9GuiButtoniRK6_POINTNS_15single_threadedEE5cloneEv,comdat
	.align 2
	.weak	_ZN7sigslot12_connection3I8PlayListP9GuiButtoniRK6_POINTNS_15single_threadedEE5cloneEv
	.type	_ZN7sigslot12_connection3I8PlayListP9GuiButtoniRK6_POINTNS_15single_threadedEE5cloneEv, @function
_ZN7sigslot12_connection3I8PlayListP9GuiButtoniRK6_POINTNS_15single_threadedEE5cloneEv:
.LFB2569:
	.loc 1 1789 0
	.cfi_startproc
.LVL168:
	stwu 1,-16(1)
.LCFI43:
	.cfi_def_cfa_offset 16
	mflr 0
	stw 31,12(1)
	mr 31,3
	.cfi_offset 31, -4
	.cfi_register 65, 0
	.loc 1 1791 0
	li 3,16
.LVL169:
	.loc 1 1789 0
	stw 0,20(1)
	.loc 1 1791 0
	.cfi_offset 65, 4
	bl _Znwj
	.loc 4 503 0
	lwz 0,4(31)
.LVL170:
.LBB4568:
.LBB4569:
	.loc 1 1767 0
	lis 11,_ZTVN7sigslot12_connection3I8PlayListP9GuiButtoniRK6_POINTNS_15single_threadedEEE+8@ha
	la 11,_ZTVN7sigslot12_connection3I8PlayListP9GuiButtoniRK6_POINTNS_15single_threadedEEE+8@l(11)
	stw 0,4(3)
	stw 11,0(3)
	lwz 10,8(31)
	lwz 11,12(31)
	stw 10,8(3)
	stw 11,12(3)
.LBE4569:
.LBE4568:
	.loc 1 1792 0
	lwz 0,20(1)
	lwz 31,12(1)
.LVL171:
	mtlr 0
	addi 1,1,16
.LCFI44:
	.cfi_def_cfa_offset 0
	.cfi_restore 31
	blr
	.cfi_endproc
.LFE2569:
	.size	_ZN7sigslot12_connection3I8PlayListP9GuiButtoniRK6_POINTNS_15single_threadedEE5cloneEv, .-_ZN7sigslot12_connection3I8PlayListP9GuiButtoniRK6_POINTNS_15single_threadedEE5cloneEv
	.section	.text._ZN7sigslot12_connection2I8PlayListiiNS_15single_threadedEE5cloneEv,"axG",@progbits,_ZN7sigslot12_connection2I8PlayListiiNS_15single_threadedEE5cloneEv,comdat
	.align 2
	.weak	_ZN7sigslot12_connection2I8PlayListiiNS_15single_threadedEE5cloneEv
	.type	_ZN7sigslot12_connection2I8PlayListiiNS_15single_threadedEE5cloneEv, @function
_ZN7sigslot12_connection2I8PlayListiiNS_15single_threadedEE5cloneEv:
.LFB2583:
	.loc 1 1741 0
	.cfi_startproc
.LVL172:
	stwu 1,-16(1)
.LCFI45:
	.cfi_def_cfa_offset 16
	mflr 0
	stw 31,12(1)
	mr 31,3
	.cfi_offset 31, -4
	.cfi_register 65, 0
	.loc 1 1743 0
	li 3,16
.LVL173:
	.loc 1 1741 0
	stw 0,20(1)
	.loc 1 1743 0
	.cfi_offset 65, 4
	bl _Znwj
	.loc 4 503 0
	lwz 0,4(31)
.LVL174:
.LBB4570:
.LBB4571:
	.loc 1 1719 0
	lis 11,_ZTVN7sigslot12_connection2I8PlayListiiNS_15single_threadedEEE+8@ha
	la 11,_ZTVN7sigslot12_connection2I8PlayListiiNS_15single_threadedEEE+8@l(11)
	stw 0,4(3)
	stw 11,0(3)
	lwz 10,8(31)
	lwz 11,12(31)
	stw 10,8(3)
	stw 11,12(3)
.LBE4571:
.LBE4570:
	.loc 1 1744 0
	lwz 0,20(1)
	lwz 31,12(1)
.LVL175:
	mtlr 0
	addi 1,1,16
.LCFI46:
	.cfi_def_cfa_offset 0
	.cfi_restore 31
	blr
	.cfi_endproc
.LFE2583:
	.size	_ZN7sigslot12_connection2I8PlayListiiNS_15single_threadedEE5cloneEv, .-_ZN7sigslot12_connection2I8PlayListiiNS_15single_threadedEE5cloneEv
	.section	.text._ZN7sigslot13_signal_base2IP8PlayListiNS_15single_threadedEE14slot_duplicateEPKNS_9has_slotsIS3_EEPS6_,"axG",@progbits,_ZN7sigslot13_signal_base2IP8PlayListiNS_15single_threadedEE14slot_duplicateEPKNS_9has_slotsIS3_EEPS6_,comdat
	.align 2
	.weak	_ZN7sigslot13_signal_base2IP8PlayListiNS_15single_threadedEE14slot_duplicateEPKNS_9has_slotsIS3_EEPS6_
	.type	_ZN7sigslot13_signal_base2IP8PlayListiNS_15single_threadedEE14slot_duplicateEPKNS_9has_slotsIS3_EEPS6_, @function
_ZN7sigslot13_signal_base2IP8PlayListiNS_15single_threadedEE14slot_duplicateEPKNS_9has_slotsIS3_EEPS6_:
.LFB2592:
	.loc 1 806 0
	.cfi_startproc
	.cfi_personality 0,__gxx_personality_v0
	.cfi_lsda 0,.LLSDA2592
.LVL176:
	mflr 0
	stwu 1,-32(1)
.LCFI47:
	.cfi_def_cfa_offset 32
	.cfi_register 65, 0
	stw 26,8(1)
	mr 26,5
	.cfi_offset 26, -24
	stw 0,36(1)
	stw 27,12(1)
	mr 27,3
	.cfi_offset 27, -20
	.cfi_offset 65, 4
.LVL177:
.LBB4572:
.LBB4573:
.LBB4574:
	.loc 1 338 0
	lwz 9,0(3)
.LBE4574:
.LBE4573:
.LBE4572:
	.loc 1 806 0
	stw 29,20(1)
	mr 29,4
	.cfi_offset 29, -12
.LBB4603:
.LBB4579:
.LBB4575:
	.loc 1 338 0
	lwz 0,8(9)
.LBE4575:
.LBE4579:
.LBE4603:
	.loc 1 806 0
	stw 30,24(1)
.LBB4604:
.LBB4580:
.LBB4576:
	.loc 4 503 0
	mr 30,27
	.cfi_offset 30, -8
.LBE4576:
.LBE4580:
.LBE4604:
	.loc 1 806 0
	stw 31,28(1)
.LBB4605:
.LBB4581:
.LBB4577:
	.loc 1 338 0
	mtctr 0
.LBE4577:
.LBE4581:
.LBE4605:
	.loc 1 806 0
	stw 28,16(1)
.LEHB4:
.LBB4606:
.LBB4582:
.LBB4578:
	.loc 1 338 0
	.cfi_offset 28, -16
	.cfi_offset 31, -4
	bctrl
.LEHE4:
.LVL178:
	.loc 4 503 0
	lwzu 31,4(30)
.LVL179:
.LBE4578:
.LBE4582:
	.loc 1 812 0
	cmpw 7,31,30
	bne+ 7,.L139
	b .L130
.LVL180:
.L131:
.LBB4583:
.LBB4584:
	.loc 6 154 0
	lwz 31,0(31)
.LVL181:
.LBE4584:
.LBE4583:
	.loc 1 812 0
	cmpw 7,30,31
	beq- 7,.L130
.LVL182:
.L139:
	.loc 1 814 0
	lwz 3,8(31)
	lwz 9,0(3)
	lwz 0,8(9)
	mtctr 0
.LEHB5:
	bctrl
	cmpw 7,29,3
	bne+ 7,.L131
.LVL183:
	.loc 1 816 0
	lwz 3,8(31)
	mr 4,26
	lwz 9,0(3)
	lwz 0,20(9)
	mtctr 0
	bctrl
	mr 28,3
.LVL184:
.LBB4586:
.LBB4587:
.LBB4588:
.LBB4589:
.LBB4590:
.LBB4591:
.LBB4592:
.LBB4593:
	.file 7 "d:\\devkitpro\\devkitppc\\bin\\../lib/gcc/powerpc-eabi/4.6.3/../../../../powerpc-eabi/include/c++/4.6.3/ext/new_allocator.h"
	.loc 7 92 0
	li 3,12
	bl _Znwj
.LEHE5:
.LVL185:
.LBE4593:
.LBE4592:
.LBE4591:
.LBB4594:
.LBB4595:
	.loc 7 108 0 discriminator 1
	cmpwi 7,3,-8
	beq- 7,.L133
	.loc 7 108 0 is_stmt 0
	stw 28,8(3)
.L133:
.LVL186:
.LBE4595:
.LBE4594:
.LBE4590:
.LBE4589:
	.loc 6 1516 0 is_stmt 1
	mr 4,30
	bl _ZNSt8__detail15_List_node_base7_M_hookEPS0_
.LVL187:
.LBE4588:
.LBE4587:
.LBE4586:
.LBB4596:
.LBB4585:
	.loc 6 154 0
	lwz 31,0(31)
.LVL188:
.LBE4585:
.LBE4596:
	.loc 1 812 0
	cmpw 7,30,31
	bne+ 7,.L139
.LVL189:
.L130:
.LBB4597:
.LBB4598:
.LBB4599:
	.loc 1 343 0
	lwz 9,0(27)
	mr 3,27
	lwz 0,12(9)
	mtctr 0
.LEHB6:
	bctrl
.LEHE6:
.LBE4599:
.LBE4598:
.LBE4597:
.LBE4606:
	.loc 1 821 0
	lwz 0,36(1)
	lwz 26,8(1)
.LVL190:
	mtlr 0
	lwz 27,12(1)
.LVL191:
	lwz 28,16(1)
	lwz 29,20(1)
.LVL192:
	lwz 30,24(1)
.LVL193:
	lwz 31,28(1)
.LVL194:
	addi 1,1,32
	.cfi_remember_state
.LCFI48:
	.cfi_def_cfa_offset 0
	.cfi_restore 31
	.cfi_restore 30
	.cfi_restore 29
	.cfi_restore 28
	.cfi_restore 27
	.cfi_restore 26
	blr
.LVL195:
.L138:
.LCFI49:
	.cfi_restore_state
.LBB4607:
.LBB4600:
.LBB4601:
.LBB4602:
	.loc 1 343 0
	lwz 9,0(27)
	mr 31,3
.LVL196:
	mr 3,27
	lwz 0,12(9)
	mtctr 0
	bctrl
	mr 3,31
.LEHB7:
	bl _Unwind_Resume
.LEHE7:
.LBE4602:
.LBE4601:
.LBE4600:
.LBE4607:
	.cfi_endproc
.LFE2592:
	.section	.gcc_except_table
.LLSDA2592:
	.byte	0xff
	.byte	0xff
	.byte	0x1
	.uleb128 .LLSDACSE2592-.LLSDACSB2592
.LLSDACSB2592:
	.uleb128 .LEHB4-.LFB2592
	.uleb128 .LEHE4-.LEHB4
	.uleb128 0
	.uleb128 0
	.uleb128 .LEHB5-.LFB2592
	.uleb128 .LEHE5-.LEHB5
	.uleb128 .L138-.LFB2592
	.uleb128 0
	.uleb128 .LEHB6-.LFB2592
	.uleb128 .LEHE6-.LEHB6
	.uleb128 0
	.uleb128 0
	.uleb128 .LEHB7-.LFB2592
	.uleb128 .LEHE7-.LEHB7
	.uleb128 0
	.uleb128 0
.LLSDACSE2592:
	.section	.text._ZN7sigslot13_signal_base2IP8PlayListiNS_15single_threadedEE14slot_duplicateEPKNS_9has_slotsIS3_EEPS6_,"axG",@progbits,_ZN7sigslot13_signal_base2IP8PlayListiNS_15single_threadedEE14slot_duplicateEPKNS_9has_slotsIS3_EEPS6_,comdat
	.size	_ZN7sigslot13_signal_base2IP8PlayListiNS_15single_threadedEE14slot_duplicateEPKNS_9has_slotsIS3_EEPS6_, .-_ZN7sigslot13_signal_base2IP8PlayListiNS_15single_threadedEE14slot_duplicateEPKNS_9has_slotsIS3_EEPS6_
	.section	.text._ZN7sigslot12_connection2I8PlayListiiNS_15single_threadedEED0Ev,"axG",@progbits,_ZN7sigslot12_connection2I8PlayListiiNS_15single_threadedEED5Ev,comdat
	.align 2
	.weak	_ZN7sigslot12_connection2I8PlayListiiNS_15single_threadedEED0Ev
	.type	_ZN7sigslot12_connection2I8PlayListiiNS_15single_threadedEED0Ev, @function
_ZN7sigslot12_connection2I8PlayListiiNS_15single_threadedEED0Ev:
.LFB2580:
	.loc 1 1735 0
	.cfi_startproc
.LVL197:
	mflr 0
	stwu 1,-8(1)
.LCFI50:
	.cfi_def_cfa_offset 8
	.cfi_register 65, 0
.LBB4608:
.LBB4609:
.LBB4610:
.LBB4611:
.LBB4612:
.LBB4613:
	.loc 1 376 0
	lis 9,_ZTVN7sigslot17_connection_base2IiiNS_15single_threadedEEE+8@ha
.LBE4613:
.LBE4612:
.LBE4611:
.LBE4610:
.LBE4609:
.LBE4608:
	.loc 1 1735 0
	stw 0,12(1)
.LBB4619:
.LBB4618:
.LBB4617:
.LBB4616:
.LBB4615:
.LBB4614:
	.loc 1 376 0
	la 0,_ZTVN7sigslot17_connection_base2IiiNS_15single_threadedEEE+8@l(9)
	.cfi_offset 65, 4
	stw 0,0(3)
.LBE4614:
.LBE4615:
.LBE4616:
.LBE4617:
.LBE4618:
.LBE4619:
	.loc 1 1738 0
	bl _ZdlPv
.LVL198:
	lwz 0,12(1)
	addi 1,1,8
.LCFI51:
	.cfi_def_cfa_offset 0
	mtlr 0
	blr
	.cfi_endproc
.LFE2580:
	.size	_ZN7sigslot12_connection2I8PlayListiiNS_15single_threadedEED0Ev, .-_ZN7sigslot12_connection2I8PlayListiiNS_15single_threadedEED0Ev
	.section	.text._ZN7sigslot12_connection3I8PlayListP9GuiButtoniRK6_POINTNS_15single_threadedEED0Ev,"axG",@progbits,_ZN7sigslot12_connection3I8PlayListP9GuiButtoniRK6_POINTNS_15single_threadedEED5Ev,comdat
	.align 2
	.weak	_ZN7sigslot12_connection3I8PlayListP9GuiButtoniRK6_POINTNS_15single_threadedEED0Ev
	.type	_ZN7sigslot12_connection3I8PlayListP9GuiButtoniRK6_POINTNS_15single_threadedEED0Ev, @function
_ZN7sigslot12_connection3I8PlayListP9GuiButtoniRK6_POINTNS_15single_threadedEED0Ev:
.LFB2566:
	.loc 1 1783 0
	.cfi_startproc
.LVL199:
	mflr 0
	stwu 1,-8(1)
.LCFI52:
	.cfi_def_cfa_offset 8
	.cfi_register 65, 0
.LBB4620:
.LBB4621:
.LBB4622:
.LBB4623:
.LBB4624:
.LBB4625:
	.loc 1 387 0
	lis 9,_ZTVN7sigslot17_connection_base3IP9GuiButtoniRK6_POINTNS_15single_threadedEEE+8@ha
.LBE4625:
.LBE4624:
.LBE4623:
.LBE4622:
.LBE4621:
.LBE4620:
	.loc 1 1783 0
	stw 0,12(1)
.LBB4631:
.LBB4630:
.LBB4629:
.LBB4628:
.LBB4627:
.LBB4626:
	.loc 1 387 0
	la 0,_ZTVN7sigslot17_connection_base3IP9GuiButtoniRK6_POINTNS_15single_threadedEEE+8@l(9)
	.cfi_offset 65, 4
	stw 0,0(3)
.LBE4626:
.LBE4627:
.LBE4628:
.LBE4629:
.LBE4630:
.LBE4631:
	.loc 1 1786 0
	bl _ZdlPv
.LVL200:
	lwz 0,12(1)
	addi 1,1,8
.LCFI53:
	.cfi_def_cfa_offset 0
	mtlr 0
	blr
	.cfi_endproc
.LFE2566:
	.size	_ZN7sigslot12_connection3I8PlayListP9GuiButtoniRK6_POINTNS_15single_threadedEED0Ev, .-_ZN7sigslot12_connection3I8PlayListP9GuiButtoniRK6_POINTNS_15single_threadedEED0Ev
	.section	.text._ZN7sigslot12_connection3I8PlayListP10GuiElementiiNS_15single_threadedEED0Ev,"axG",@progbits,_ZN7sigslot12_connection3I8PlayListP10GuiElementiiNS_15single_threadedEED5Ev,comdat
	.align 2
	.weak	_ZN7sigslot12_connection3I8PlayListP10GuiElementiiNS_15single_threadedEED0Ev
	.type	_ZN7sigslot12_connection3I8PlayListP10GuiElementiiNS_15single_threadedEED0Ev, @function
_ZN7sigslot12_connection3I8PlayListP10GuiElementiiNS_15single_threadedEED0Ev:
.LFB2552:
	.loc 1 1783 0
	.cfi_startproc
.LVL201:
	mflr 0
	stwu 1,-8(1)
.LCFI54:
	.cfi_def_cfa_offset 8
	.cfi_register 65, 0
.LBB4632:
.LBB4633:
.LBB4634:
.LBB4635:
.LBB4636:
.LBB4637:
	.loc 1 387 0
	lis 9,_ZTVN7sigslot17_connection_base3IP10GuiElementiiNS_15single_threadedEEE+8@ha
.LBE4637:
.LBE4636:
.LBE4635:
.LBE4634:
.LBE4633:
.LBE4632:
	.loc 1 1783 0
	stw 0,12(1)
.LBB4643:
.LBB4642:
.LBB4641:
.LBB4640:
.LBB4639:
.LBB4638:
	.loc 1 387 0
	la 0,_ZTVN7sigslot17_connection_base3IP10GuiElementiiNS_15single_threadedEEE+8@l(9)
	.cfi_offset 65, 4
	stw 0,0(3)
.LBE4638:
.LBE4639:
.LBE4640:
.LBE4641:
.LBE4642:
.LBE4643:
	.loc 1 1786 0
	bl _ZdlPv
.LVL202:
	lwz 0,12(1)
	addi 1,1,8
.LCFI55:
	.cfi_def_cfa_offset 0
	mtlr 0
	blr
	.cfi_endproc
.LFE2552:
	.size	_ZN7sigslot12_connection3I8PlayListP10GuiElementiiNS_15single_threadedEED0Ev, .-_ZN7sigslot12_connection3I8PlayListP10GuiElementiiNS_15single_threadedEED0Ev
	.section	.text._ZN7sigslot17_connection_base3IP10GuiElementiiNS_15single_threadedEED0Ev,"axG",@progbits,_ZN7sigslot17_connection_base3IP10GuiElementiiNS_15single_threadedEED5Ev,comdat
	.align 2
	.weak	_ZN7sigslot17_connection_base3IP10GuiElementiiNS_15single_threadedEED0Ev
	.type	_ZN7sigslot17_connection_base3IP10GuiElementiiNS_15single_threadedEED0Ev, @function
_ZN7sigslot17_connection_base3IP10GuiElementiiNS_15single_threadedEED0Ev:
.LFB2067:
	.loc 1 387 0
	.cfi_startproc
.LVL203:
	mflr 0
	stwu 1,-8(1)
.LCFI56:
	.cfi_def_cfa_offset 8
	.cfi_register 65, 0
.LBB4644:
.LBB4645:
.LBB4646:
	lis 9,_ZTVN7sigslot17_connection_base3IP10GuiElementiiNS_15single_threadedEEE+8@ha
.LBE4646:
.LBE4645:
.LBE4644:
	stw 0,12(1)
.LBB4649:
.LBB4648:
.LBB4647:
	.loc 1 387 0
	la 0,_ZTVN7sigslot17_connection_base3IP10GuiElementiiNS_15single_threadedEEE+8@l(9)
	.cfi_offset 65, 4
	stw 0,0(3)
.LBE4647:
.LBE4648:
.LBE4649:
	bl _ZdlPv
.LVL204:
	lwz 0,12(1)
	addi 1,1,8
.LCFI57:
	.cfi_def_cfa_offset 0
	mtlr 0
	blr
	.cfi_endproc
.LFE2067:
	.size	_ZN7sigslot17_connection_base3IP10GuiElementiiNS_15single_threadedEED0Ev, .-_ZN7sigslot17_connection_base3IP10GuiElementiiNS_15single_threadedEED0Ev
	.section	.text._ZN7sigslot17_connection_base3IP9GuiButtoniRK6_POINTNS_15single_threadedEED0Ev,"axG",@progbits,_ZN7sigslot17_connection_base3IP9GuiButtoniRK6_POINTNS_15single_threadedEED5Ev,comdat
	.align 2
	.weak	_ZN7sigslot17_connection_base3IP9GuiButtoniRK6_POINTNS_15single_threadedEED0Ev
	.type	_ZN7sigslot17_connection_base3IP9GuiButtoniRK6_POINTNS_15single_threadedEED0Ev, @function
_ZN7sigslot17_connection_base3IP9GuiButtoniRK6_POINTNS_15single_threadedEED0Ev:
.LFB2037:
	.loc 1 387 0
	.cfi_startproc
.LVL205:
	mflr 0
	stwu 1,-8(1)
.LCFI58:
	.cfi_def_cfa_offset 8
	.cfi_register 65, 0
.LBB4650:
.LBB4651:
.LBB4652:
	lis 9,_ZTVN7sigslot17_connection_base3IP9GuiButtoniRK6_POINTNS_15single_threadedEEE+8@ha
.LBE4652:
.LBE4651:
.LBE4650:
	stw 0,12(1)
.LBB4655:
.LBB4654:
.LBB4653:
	.loc 1 387 0
	la 0,_ZTVN7sigslot17_connection_base3IP9GuiButtoniRK6_POINTNS_15single_threadedEEE+8@l(9)
	.cfi_offset 65, 4
	stw 0,0(3)
.LBE4653:
.LBE4654:
.LBE4655:
	bl _ZdlPv
.LVL206:
	lwz 0,12(1)
	addi 1,1,8
.LCFI59:
	.cfi_def_cfa_offset 0
	mtlr 0
	blr
	.cfi_endproc
.LFE2037:
	.size	_ZN7sigslot17_connection_base3IP9GuiButtoniRK6_POINTNS_15single_threadedEED0Ev, .-_ZN7sigslot17_connection_base3IP9GuiButtoniRK6_POINTNS_15single_threadedEED0Ev
	.section	.text._ZN7sigslot17_connection_base2IiiNS_15single_threadedEED0Ev,"axG",@progbits,_ZN7sigslot17_connection_base2IiiNS_15single_threadedEED5Ev,comdat
	.align 2
	.weak	_ZN7sigslot17_connection_base2IiiNS_15single_threadedEED0Ev
	.type	_ZN7sigslot17_connection_base2IiiNS_15single_threadedEED0Ev, @function
_ZN7sigslot17_connection_base2IiiNS_15single_threadedEED0Ev:
.LFB2030:
	.loc 1 376 0
	.cfi_startproc
.LVL207:
	mflr 0
	stwu 1,-8(1)
.LCFI60:
	.cfi_def_cfa_offset 8
	.cfi_register 65, 0
.LBB4656:
.LBB4657:
.LBB4658:
	lis 9,_ZTVN7sigslot17_connection_base2IiiNS_15single_threadedEEE+8@ha
.LBE4658:
.LBE4657:
.LBE4656:
	stw 0,12(1)
.LBB4661:
.LBB4660:
.LBB4659:
	.loc 1 376 0
	la 0,_ZTVN7sigslot17_connection_base2IiiNS_15single_threadedEEE+8@l(9)
	.cfi_offset 65, 4
	stw 0,0(3)
.LBE4659:
.LBE4660:
.LBE4661:
	bl _ZdlPv
.LVL208:
	lwz 0,12(1)
	addi 1,1,8
.LCFI61:
	.cfi_def_cfa_offset 0
	mtlr 0
	blr
	.cfi_endproc
.LFE2030:
	.size	_ZN7sigslot17_connection_base2IiiNS_15single_threadedEED0Ev, .-_ZN7sigslot17_connection_base2IiiNS_15single_threadedEED0Ev
	.section	.text._ZN7sigslot12_signal_baseINS_15single_threadedEED0Ev,"axG",@progbits,_ZN7sigslot12_signal_baseINS_15single_threadedEED5Ev,comdat
	.align 2
	.weak	_ZN7sigslot12_signal_baseINS_15single_threadedEED0Ev
	.type	_ZN7sigslot12_signal_baseINS_15single_threadedEED0Ev, @function
_ZN7sigslot12_signal_baseINS_15single_threadedEED0Ev:
.LFB1740:
	.loc 1 466 0
	.cfi_startproc
.LVL209:
	mflr 0
	stwu 1,-8(1)
.LCFI62:
	.cfi_def_cfa_offset 8
	.cfi_register 65, 0
.LBB4662:
.LBB4663:
.LBB4664:
.LBB4665:
.LBB4666:
.LBB4667:
	.loc 1 105 0
	lis 9,_ZTVN7sigslot15single_threadedE+8@ha
.LBE4667:
.LBE4666:
.LBE4665:
.LBE4664:
.LBE4663:
.LBE4662:
	.loc 1 466 0
	stw 0,12(1)
.LBB4673:
.LBB4672:
.LBB4671:
.LBB4670:
.LBB4669:
.LBB4668:
	.loc 1 105 0
	la 0,_ZTVN7sigslot15single_threadedE+8@l(9)
	.cfi_offset 65, 4
	stw 0,0(3)
.LBE4668:
.LBE4669:
.LBE4670:
.LBE4671:
.LBE4672:
.LBE4673:
	.loc 1 466 0
	bl _ZdlPv
.LVL210:
	lwz 0,12(1)
	addi 1,1,8
.LCFI63:
	.cfi_def_cfa_offset 0
	mtlr 0
	blr
	.cfi_endproc
.LFE1740:
	.size	_ZN7sigslot12_signal_baseINS_15single_threadedEED0Ev, .-_ZN7sigslot12_signal_baseINS_15single_threadedEED0Ev
	.section	.text._ZN7sigslot15single_threadedD0Ev,"axG",@progbits,_ZN7sigslot15single_threadedD5Ev,comdat
	.align 2
	.weak	_ZN7sigslot15single_threadedD0Ev
	.type	_ZN7sigslot15single_threadedD0Ev, @function
_ZN7sigslot15single_threadedD0Ev:
.LFB1150:
	.loc 1 104 0
	.cfi_startproc
.LVL211:
	mflr 0
	stwu 1,-8(1)
.LCFI64:
	.cfi_def_cfa_offset 8
	.cfi_register 65, 0
.LBB4674:
.LBB4675:
.LBB4676:
	.loc 1 105 0
	lis 9,_ZTVN7sigslot15single_threadedE+8@ha
.LBE4676:
.LBE4675:
.LBE4674:
	.loc 1 104 0
	stw 0,12(1)
.LBB4679:
.LBB4678:
.LBB4677:
	.loc 1 105 0
	la 0,_ZTVN7sigslot15single_threadedE+8@l(9)
	.cfi_offset 65, 4
	stw 0,0(3)
.LBE4677:
.LBE4678:
.LBE4679:
	.loc 1 107 0
	bl _ZdlPv
.LVL212:
	lwz 0,12(1)
	addi 1,1,8
.LCFI65:
	.cfi_def_cfa_offset 0
	mtlr 0
	blr
	.cfi_endproc
.LFE1150:
	.size	_ZN7sigslot15single_threadedD0Ev, .-_ZN7sigslot15single_threadedD0Ev
	.section	.text._ZN7sigslot13_signal_base2IP8PlayListiNS_15single_threadedEE15slot_disconnectEPNS_9has_slotsIS3_EE,"axG",@progbits,_ZN7sigslot13_signal_base2IP8PlayListiNS_15single_threadedEE15slot_disconnectEPNS_9has_slotsIS3_EE,comdat
	.align 2
	.weak	_ZN7sigslot13_signal_base2IP8PlayListiNS_15single_threadedEE15slot_disconnectEPNS_9has_slotsIS3_EE
	.type	_ZN7sigslot13_signal_base2IP8PlayListiNS_15single_threadedEE15slot_disconnectEPNS_9has_slotsIS3_EE, @function
_ZN7sigslot13_signal_base2IP8PlayListiNS_15single_threadedEE15slot_disconnectEPNS_9has_slotsIS3_EE:
.LFB2591:
	.loc 1 870 0
	.cfi_startproc
	.cfi_personality 0,__gxx_personality_v0
	.cfi_lsda 0,.LLSDA2591
.LVL213:
	mflr 0
	stwu 1,-32(1)
.LCFI66:
	.cfi_def_cfa_offset 32
	.cfi_register 65, 0
	stw 27,12(1)
	mr 27,3
	.cfi_offset 27, -20
.LVL214:
	stw 0,36(1)
	stw 28,16(1)
	mr 28,4
	.cfi_offset 28, -16
	.cfi_offset 65, 4
.LBB4680:
.LBB4681:
.LBB4682:
	.loc 1 338 0
	lwz 9,0(3)
.LBE4682:
.LBE4681:
.LBE4680:
	.loc 1 870 0
	stw 29,20(1)
.LBB4703:
.LBB4685:
.LBB4683:
	.loc 4 503 0
	mr 29,27
	.cfi_offset 29, -12
	.loc 1 338 0
	lwz 0,8(9)
.LBE4683:
.LBE4685:
.LBE4703:
	.loc 1 870 0
	stw 31,28(1)
	stw 30,24(1)
.LBB4704:
.LBB4686:
.LBB4684:
	.loc 1 338 0
	mtctr 0
.LEHB8:
	.cfi_offset 30, -8
	.cfi_offset 31, -4
	bctrl
.LEHE8:
.LVL215:
	.loc 4 503 0
	lwzu 31,4(29)
.LVL216:
.LBE4684:
.LBE4686:
	.loc 1 876 0
	cmpw 7,31,29
	bne+ 7,.L181
	b .L170
.LVL217:
.L171:
	.loc 1 876 0 is_stmt 0 discriminator 1
	cmpw 7,29,30
	beq- 7,.L170
.L179:
	.loc 1 876 0
	mr 31,30
.LVL218:
.L181:
.LBB4687:
	.loc 1 881 0 is_stmt 1
	lwz 3,8(31)
.LBB4688:
.LBB4689:
	.loc 6 154 0
	lwz 30,0(31)
.LVL219:
.LBE4689:
.LBE4688:
	.loc 1 881 0
	lwz 9,0(3)
	lwz 0,8(9)
	mtctr 0
.LEHB9:
	bctrl
.LVL220:
	cmpw 7,28,3
	bne+ 7,.L171
.LVL221:
	.loc 1 883 0
	lwz 3,8(31)
	cmpwi 7,3,0
	beq- 7,.L172
	.loc 1 883 0 is_stmt 0 discriminator 1
	lwz 9,0(3)
	lwz 0,4(9)
	mtctr 0
	bctrl
.LEHE9:
.L172:
.LVL222:
.LBB4690:
.LBB4691:
.LBB4692:
.LBB4693:
	.loc 6 1532 0 is_stmt 1
	mr 3,31
	bl _ZNSt8__detail15_List_node_base9_M_unhookEv
.LVL223:
.LBB4694:
.LBB4695:
.LBB4696:
	.loc 7 98 0
	mr 3,31
	bl _ZdlPv
.LVL224:
.LBE4696:
.LBE4695:
.LBE4694:
.LBE4693:
.LBE4692:
.LBE4691:
.LBE4690:
.LBE4687:
	.loc 1 876 0
	cmpw 7,29,30
	bne+ 7,.L179
.LVL225:
.L170:
.LBB4697:
.LBB4698:
.LBB4699:
	.loc 1 343 0
	lwz 9,0(27)
	mr 3,27
	lwz 0,12(9)
	mtctr 0
.LEHB10:
	bctrl
.LEHE10:
.LBE4699:
.LBE4698:
.LBE4697:
.LBE4704:
	.loc 1 890 0
	lwz 0,36(1)
	lwz 27,12(1)
.LVL226:
	mtlr 0
	lwz 28,16(1)
.LVL227:
	lwz 29,20(1)
.LVL228:
	lwz 30,24(1)
	lwz 31,28(1)
	addi 1,1,32
	.cfi_remember_state
.LCFI67:
	.cfi_def_cfa_offset 0
	.cfi_restore 31
	.cfi_restore 30
	.cfi_restore 29
	.cfi_restore 28
	.cfi_restore 27
	blr
.LVL229:
.L180:
.LCFI68:
	.cfi_restore_state
.LBB4705:
.LBB4700:
.LBB4701:
.LBB4702:
	.loc 1 343 0
	lwz 9,0(27)
	mr 31,3
.LVL230:
	mr 3,27
	lwz 0,12(9)
	mtctr 0
	bctrl
	mr 3,31
.LEHB11:
	bl _Unwind_Resume
.LEHE11:
.LBE4702:
.LBE4701:
.LBE4700:
.LBE4705:
	.cfi_endproc
.LFE2591:
	.section	.gcc_except_table
.LLSDA2591:
	.byte	0xff
	.byte	0xff
	.byte	0x1
	.uleb128 .LLSDACSE2591-.LLSDACSB2591
.LLSDACSB2591:
	.uleb128 .LEHB8-.LFB2591
	.uleb128 .LEHE8-.LEHB8
	.uleb128 0
	.uleb128 0
	.uleb128 .LEHB9-.LFB2591
	.uleb128 .LEHE9-.LEHB9
	.uleb128 .L180-.LFB2591
	.uleb128 0
	.uleb128 .LEHB10-.LFB2591
	.uleb128 .LEHE10-.LEHB10
	.uleb128 0
	.uleb128 0
	.uleb128 .LEHB11-.LFB2591
	.uleb128 .LEHE11-.LEHB11
	.uleb128 0
	.uleb128 0
.LLSDACSE2591:
	.section	.text._ZN7sigslot13_signal_base2IP8PlayListiNS_15single_threadedEE15slot_disconnectEPNS_9has_slotsIS3_EE,"axG",@progbits,_ZN7sigslot13_signal_base2IP8PlayListiNS_15single_threadedEE15slot_disconnectEPNS_9has_slotsIS3_EE,comdat
	.size	_ZN7sigslot13_signal_base2IP8PlayListiNS_15single_threadedEE15slot_disconnectEPNS_9has_slotsIS3_EE, .-_ZN7sigslot13_signal_base2IP8PlayListiNS_15single_threadedEE15slot_disconnectEPNS_9has_slotsIS3_EE
	.section	".text"
	.align 2
	.globl _ZN8PlayList12OnListChangeEii
	.type	_ZN8PlayList12OnListChangeEii, @function
_ZN8PlayList12OnListChangeEii:
.LFB1612:
	.loc 4 406 0
	.cfi_startproc
.LVL231:
	mflr 0
	stwu 1,-24(1)
.LCFI69:
	.cfi_def_cfa_offset 24
	.cfi_register 65, 0
	stw 31,20(1)
	mr 31,3
	.cfi_offset 31, -4
	stw 0,28(1)
	stw 29,12(1)
.LBB4706:
	.loc 4 410 0
	lbz 0,225(3)
	.cfi_offset 29, -12
	.cfi_offset 65, 4
.LBE4706:
	.loc 4 406 0
	stw 30,16(1)
.LBB4738:
	.loc 4 410 0
	cmpwi 7,0,0
	.loc 4 407 0
	stw 4,220(3)
	.loc 4 408 0
	stw 5,216(3)
	.loc 4 410 0
	beq- 7,.L183
	.cfi_offset 30, -8
.LBB4707:
.LBB4708:
	.loc 5 571 0 discriminator 1
	lwz 11,232(3)
	lwz 0,228(3)
	subf 11,0,11
	srawi 11,11,2
.LBE4708:
.LBE4707:
	.loc 4 410 0 discriminator 1
	cmplwi 7,11,8
	bgt- 7,.L194
.LVL232:
.L183:
	.loc 4 412 0 discriminator 1
	li 29,0
	li 30,0
	b .L185
.LVL233:
.L197:
.LBB4709:
.LBB4710:
.LBB4711:
.LBB4712:
	.loc 4 423 0
	lwz 0,84(9)
	mtctr 0
	bctrl
	cmpwi 7,3,4
	beq- 7,.L195
.L189:
.LVL234:
	.loc 4 426 0
	lwz 9,240(31)
	li 4,1
	lwzx 3,9,29
	lwz 9,0(3)
	lwz 0,48(9)
	mtctr 0
	bctrl
.LVL235:
.LBB4713:
.LBB4714:
	.loc 5 696 0
	lwz 0,216(31)
.LBE4714:
.LBE4713:
	.loc 4 428 0
	lwz 9,228(31)
	li 4,47
.LBB4716:
.LBB4715:
	.loc 5 696 0
	add 0,30,0
.LBE4715:
.LBE4716:
	.loc 4 428 0
	slwi 0,0,2
	lwzx 3,9,0
	bl strrchr
.LVL236:
	.loc 4 429 0
	mr. 4,3
	beq- 0,.L190
	.loc 4 430 0
	addi 4,4,1
.LVL237:
.L190:
	.loc 4 432 0
	lwz 9,252(31)
	lwzx 3,9,29
	lwz 9,0(3)
	lwz 0,200(9)
	mtctr 0
	bctrl
.LVL238:
.L187:
.LBE4712:
.LBE4711:
.LBE4710:
	.loc 4 416 0
	cmpwi 7,30,7
	addi 29,29,4
	addi 30,30,1
.LVL239:
	beq- 7,.L196
.LVL240:
.L185:
.LBE4709:
	.loc 4 503 0
	lwz 9,240(31)
.LBB4736:
.LBB4733:
.LBB4728:
.LBB4729:
	.loc 5 571 0
	lwz 0,244(31)
	subf 0,9,0
	srawi 0,0,2
.LBE4729:
.LBE4728:
	.loc 4 418 0
	cmpw 7,30,0
	bge- 7,.L187
.LBB4730:
.LBB4717:
.LBB4718:
	.loc 5 571 0
	lwz 10,232(31)
.LBE4718:
.LBE4717:
	.loc 4 436 0
	li 4,0
.LBB4722:
.LBB4719:
	.loc 5 571 0
	lwz 0,228(31)
.LBE4719:
.LBE4722:
	.loc 4 421 0
	lwz 11,216(31)
.LBB4723:
.LBB4720:
	.loc 5 571 0
	subf 0,0,10
.LBE4720:
.LBE4723:
.LBB4724:
	.loc 4 423 0
	lwzx 3,9,29
.LBE4724:
	.loc 4 421 0
	add 11,30,11
.LBB4725:
.LBB4721:
	.loc 5 571 0
	srawi 0,0,2
.LBE4721:
.LBE4725:
	.loc 4 421 0
	cmpw 7,11,0
.LBB4726:
	.loc 4 423 0
	lwz 9,0(3)
.LBE4726:
	.loc 4 421 0
	blt- 7,.L197
.LVL241:
	.loc 4 436 0
	lwz 0,48(9)
	mtctr 0
	bctrl
.LVL242:
	.loc 4 437 0
	lwz 9,240(31)
	li 4,4
	li 5,-1
	lwzx 3,9,29
.LBE4730:
.LBE4733:
	.loc 4 416 0
	addi 29,29,4
.LBB4734:
.LBB4731:
	.loc 4 437 0
	lwz 9,0(3)
	lwz 0,80(9)
	mtctr 0
	bctrl
.LVL243:
.LBE4731:
.LBE4734:
	.loc 4 416 0
	cmpwi 7,30,7
	addi 30,30,1
.LVL244:
	bne+ 7,.L185
.LVL245:
.L196:
.LBE4736:
.LBE4738:
	.loc 4 440 0
	lwz 0,28(1)
	lwz 29,12(1)
	mtlr 0
	lwz 30,16(1)
.LVL246:
	lwz 31,20(1)
.LVL247:
	addi 1,1,24
	.cfi_remember_state
.LCFI70:
	.cfi_def_cfa_offset 0
	.cfi_restore 31
	.cfi_restore 30
	.cfi_restore 29
	blr
.LVL248:
.L194:
.LCFI71:
	.cfi_restore_state
.LBB4739:
	.loc 4 412 0 discriminator 1
	addi 0,5,7
	mr 9,5
	cmpw 7,0,11
	blt- 7,.L183
.L191:
	.loc 4 412 0 is_stmt 0
	addi 9,9,-1
	.loc 4 405 0 is_stmt 1
	addi 0,9,7
	.loc 4 412 0
	cmpw 7,11,0
	ble+ 7,.L191
	.loc 4 405 0
	subfic 0,5,-7
	addi 5,5,-1
.LVL249:
	add 11,0,11
	.loc 4 412 0
	add 11,5,11
	stw 11,216(31)
	b .L183
.LVL250:
.L195:
.LBB4737:
.LBB4735:
.LBB4732:
.LBB4727:
	.loc 4 424 0
	lwz 9,240(31)
	li 5,-1
	li 4,0
	lwzx 3,9,29
	lwz 9,0(3)
	lwz 0,80(9)
	mtctr 0
	bctrl
	b .L189
.LBE4727:
.LBE4732:
.LBE4735:
.LBE4737:
.LBE4739:
	.cfi_endproc
.LFE1612:
	.size	_ZN8PlayList12OnListChangeEii, .-_ZN8PlayList12OnListChangeEii
	.align 2
	.globl _ZN8PlayList4DrawEv
	.type	_ZN8PlayList4DrawEv, @function
_ZN8PlayList4DrawEv:
.LFB1613:
	.loc 4 443 0
	.cfi_startproc
.LVL251:
	mflr 0
	stwu 1,-16(1)
.LCFI72:
	.cfi_def_cfa_offset 16
	.cfi_register 65, 0
	stw 30,8(1)
	mr 30,3
	.cfi_offset 30, -8
	stw 0,20(1)
	stw 31,12(1)
.LBB4750:
	.loc 4 444 0
	lwz 9,0(3)
	lwz 0,52(9)
	.cfi_offset 31, -4
	.cfi_offset 65, 4
	mtctr 0
	bctrl
.LVL252:
	cmpwi 7,3,0
	bne- 7,.L202
.L198:
.LBE4750:
	.loc 4 457 0
	lwz 0,20(1)
	lwz 30,8(1)
.LVL253:
	mtlr 0
	lwz 31,12(1)
	addi 1,1,16
	.cfi_remember_state
.LCFI73:
	.cfi_def_cfa_offset 0
	.cfi_restore 31
	.cfi_restore 30
	blr
.LVL254:
.L202:
.LCFI74:
	.cfi_restore_state
.LBB4751:
	.loc 4 447 0
	lwz 3,288(30)
	lwz 9,0(3)
	lwz 0,192(9)
	mtctr 0
	bctrl
	.loc 4 448 0
	lwz 3,300(30)
	lwz 9,0(3)
	lwz 0,192(9)
	mtctr 0
	bctrl
	.loc 4 450 0
	lbz 0,224(30)
	cmpwi 7,0,0
	bne- 7,.L198
.LVL255:
.LBE4751:
.LBB4752:
	.loc 4 503 0
	lwz 9,240(30)
.LBB4753:
.LBB4754:
.LBB4755:
	.loc 5 571 0
	lwz 0,244(30)
	subf 0,9,0
.LBE4755:
.LBE4754:
	.loc 4 453 0
	srwi. 11,0,2
	beq- 0,.L198
	li 31,0
.LVL256:
.L200:
	.loc 4 455 0
	slwi 0,31,2
	.loc 4 453 0
	addi 31,31,1
.LVL257:
	.loc 4 455 0
	lwzx 3,9,0
	lwz 9,0(3)
	lwz 0,192(9)
	mtctr 0
	bctrl
.LVL258:
.LBE4753:
	.loc 4 503 0
	lwz 9,240(30)
.LBB4758:
.LBB4757:
.LBB4756:
	.loc 5 571 0
	lwz 0,244(30)
	subf 0,9,0
	srawi 0,0,2
.LBE4756:
.LBE4757:
	.loc 4 453 0
	cmplw 7,31,0
	blt+ 7,.L200
.LBE4758:
.LBE4752:
	.loc 4 457 0
	lwz 0,20(1)
	lwz 30,8(1)
.LVL259:
	mtlr 0
	lwz 31,12(1)
.LVL260:
	addi 1,1,16
	.cfi_restore 30
	.cfi_restore 31
.LCFI75:
	.cfi_def_cfa_offset 0
	blr
	.cfi_endproc
.LFE1613:
	.size	_ZN8PlayList4DrawEv, .-_ZN8PlayList4DrawEv
	.align 2
	.globl _ZN8PlayList6UpdateEP10GuiTrigger
	.type	_ZN8PlayList6UpdateEP10GuiTrigger, @function
_ZN8PlayList6UpdateEP10GuiTrigger:
.LFB1614:
	.loc 4 460 0
	.cfi_startproc
.LVL261:
	mflr 0
	stwu 1,-40(1)
.LCFI76:
	.cfi_def_cfa_offset 40
	.cfi_register 65, 0
	stw 28,24(1)
	mr 28,4
	.cfi_offset 28, -16
	stw 0,44(1)
	stw 31,36(1)
	mr 31,3
	.cfi_offset 31, -4
	.cfi_offset 65, 4
.LBB4789:
	.loc 4 461 0
	lwz 9,0(3)
.LBE4789:
	.loc 4 460 0
	stw 27,20(1)
.LBB4790:
	.loc 4 461 0
	lwz 0,52(9)
.LBE4790:
	.loc 4 460 0
	stw 29,28(1)
	stw 30,32(1)
.LBB4791:
	.loc 4 461 0
	mtctr 0
	.cfi_offset 30, -8
	.cfi_offset 29, -12
	.cfi_offset 27, -20
	bctrl
.LVL262:
	cmpwi 7,3,0
	bne- 7,.L219
.LBE4791:
	.loc 4 503 0
	lwz 0,44(1)
	lwz 27,20(1)
	mtlr 0
	lwz 28,24(1)
.LVL263:
	lwz 29,28(1)
	lwz 30,32(1)
	lwz 31,36(1)
.LVL264:
	addi 1,1,40
	.cfi_remember_state
.LCFI77:
	.cfi_def_cfa_offset 0
	.cfi_restore 31
	.cfi_restore 30
	.cfi_restore 29
	.cfi_restore 28
	.cfi_restore 27
	blr
.LVL265:
.L219:
.LCFI78:
	.cfi_restore_state
.LBB4792:
.LBB4793:
	.loc 4 464 0
	lwz 3,276(31)
	mr 4,28
	lwz 9,0(3)
	lwz 0,188(9)
	mtctr 0
	bctrl
	.loc 4 465 0
	lwz 3,300(31)
	mr 4,28
	lwz 9,0(3)
	lwz 0,188(9)
	mtctr 0
	bctrl
	.loc 4 467 0
	lbz 0,225(31)
	cmpwi 7,0,0
	beq- 7,.L205
.LBB4794:
.LBB4795:
	.loc 5 571 0
	lwz 11,232(31)
	lwz 0,228(31)
	subf 11,0,11
	srawi 11,11,2
.LBE4795:
.LBE4794:
	.loc 4 467 0
	cmplwi 7,11,8
	ble- 7,.L205
	.loc 4 469 0
	lwz 10,216(31)
	addi 0,10,7
	cmpw 7,11,0
	bgt- 7,.L205
	mr 9,10
.L206:
	addi 9,9,-1
	.loc 4 459 0
	addi 0,9,7
	.loc 4 469 0
	cmpw 7,11,0
	ble+ 7,.L206
	.loc 4 459 0
	subfic 0,10,-7
	addi 10,10,-1
	add 11,11,0
	.loc 4 469 0
	add 11,10,11
	stw 11,216(31)
.L205:
.LVL266:
	li 29,0
	li 30,0
.LVL267:
.L214:
.LBE4793:
	.loc 4 503 0
	lwz 9,240(31)
.LBB4808:
.LBB4796:
.LBB4797:
.LBB4798:
.LBB4799:
	.loc 5 571 0
	lwz 0,244(31)
	subf 0,9,0
	srawi 0,0,2
.LBE4799:
.LBE4798:
	.loc 4 475 0
	cmpw 7,0,30
	ble- 7,.L207
	.loc 4 478 0
	lwz 0,220(31)
	cmpw 7,30,0
	bne- 7,.L220
.L208:
.LVL268:
	.loc 4 483 0
	lwzx 3,9,29
	lwz 9,0(3)
	lwz 0,84(9)
	mtctr 0
	bctrl
	cmpwi 7,3,0
	beq- 7,.L211
.LVL269:
.L215:
	.loc 4 488 0
	lwz 9,12(28)
	.loc 4 486 0
	lwz 27,8(28)
.LVL270:
	.loc 4 488 0
	lwz 0,172(9)
	cmpwi 7,0,0
	bne- 7,.L221
.LVL271:
.L216:
	.loc 4 491 0
	lwz 9,240(31)
	mr 4,28
	lwzx 3,9,29
	lwz 9,0(3)
	lwz 0,188(9)
	mtctr 0
	bctrl
	.loc 4 494 0
	lwz 9,240(31)
	.loc 4 492 0
	stw 27,8(28)
	.loc 4 494 0
	lwzx 3,9,29
	lwz 9,0(3)
	lwz 0,84(9)
	mtctr 0
	bctrl
	cmpwi 7,3,1
	beq- 7,.L222
.LVL272:
.L207:
.LBE4797:
	.loc 4 473 0
	cmpwi 7,30,7
	addi 29,29,4
	addi 30,30,1
.LVL273:
	bne+ 7,.L214
.LBE4796:
	.loc 4 498 0
	lwz 3,300(31)
	li 4,8
	bl _ZN9Scrollbar11SetPageSizeEi
	.loc 4 499 0
	lwz 3,300(31)
	li 4,0
	bl _ZN9Scrollbar10SetRowSizeEi
	.loc 4 500 0
	lwz 3,300(31)
	lwz 4,220(31)
	bl _ZN9Scrollbar15SetSelectedItemEi
	.loc 4 501 0
	lwz 3,300(31)
	lwz 4,216(31)
	bl _ZN9Scrollbar16SetSelectedIndexEi
.LBB4803:
.LBB4804:
	.loc 5 571 0
	lwz 0,228(31)
	lwz 4,232(31)
.LBE4804:
.LBE4803:
	.loc 4 502 0
	lwz 3,300(31)
.LBB4806:
.LBB4805:
	.loc 5 571 0
	subf 4,0,4
.LBE4805:
.LBE4806:
	.loc 4 502 0
	srawi 4,4,2
	bl _ZN9Scrollbar14SetEntrieCountEi
.LBE4808:
.LBE4792:
	.loc 4 503 0
	lwz 0,44(1)
	lwz 27,20(1)
	mtlr 0
	lwz 28,24(1)
.LVL274:
	lwz 29,28(1)
	lwz 30,32(1)
.LVL275:
	lwz 31,36(1)
.LVL276:
	addi 1,1,40
	.cfi_remember_state
	.cfi_restore 27
	.cfi_restore 28
	.cfi_restore 29
	.cfi_restore 30
	.cfi_restore 31
.LCFI79:
	.cfi_def_cfa_offset 0
	blr
.LVL277:
.L220:
.LCFI80:
	.cfi_restore_state
.LBB4810:
.LBB4809:
.LBB4807:
.LBB4802:
	.loc 4 478 0
	lwzx 3,9,29
	lwz 9,0(3)
	lwz 0,84(9)
	mtctr 0
	bctrl
	cmpwi 7,3,1
	beq- 7,.L209
	.loc 4 483 0
	lwz 0,220(31)
	cmpw 7,30,0
	bne+ 7,.L215
	lwz 9,240(31)
	b .L208
.LVL278:
.L221:
	.loc 4 488 0
	lwz 11,240(31)
	lfs 13,176(9)
	lwzx 3,11,29
	lfs 0,180(9)
	fctiwz 13,13
	lwz 9,0(3)
	fctiwz 0,0
	lwz 0,164(9)
	addi 9,1,8
	stfiwx 13,0,9
	addi 9,1,12
	stfiwx 0,0,9
	mtctr 0
	lwz 4,8(1)
	lwz 5,12(1)
	bctrl
	cmpwi 7,3,0
	bne- 7,.L216
	.loc 4 491 0
	lwz 9,240(31)
	.loc 4 489 0
	li 0,-1
	stw 0,8(28)
	.loc 4 491 0
	mr 4,28
	lwzx 3,9,29
	lwz 9,0(3)
	lwz 0,188(9)
	mtctr 0
	bctrl
	.loc 4 494 0
	lwz 9,240(31)
	.loc 4 492 0
	stw 27,8(28)
	.loc 4 494 0
	lwzx 3,9,29
	lwz 9,0(3)
	lwz 0,84(9)
	mtctr 0
	bctrl
	cmpwi 7,3,1
	bne+ 7,.L207
.L222:
	.loc 4 495 0
	stw 30,220(31)
	b .L207
.LVL279:
.L209:
	.loc 4 480 0
	lwz 9,240(31)
	lwzx 3,9,29
	lwz 9,0(3)
	lwz 0,92(9)
	mtctr 0
	bctrl
.LVL280:
	.loc 4 481 0
	lwz 9,252(31)
	lwz 4,36(31)
	li 5,1
	lwzx 3,9,29
	addi 4,4,-95
	bl _ZN7GuiText11SetMaxWidthEii
	b .L215
.LVL281:
.L211:
.LBB4800:
.LBB4801:
	.loc 5 696 0
	lwz 0,220(31)
.LBE4801:
.LBE4800:
	.loc 4 484 0
	li 4,1
	lwz 9,240(31)
	slwi 0,0,2
	lwz 5,8(28)
	lwzx 3,9,0
	lwz 9,0(3)
	lwz 0,80(9)
	mtctr 0
	bctrl
.LVL282:
	b .L215
.LBE4802:
.LBE4807:
.LBE4809:
.LBE4810:
	.cfi_endproc
.LFE1614:
	.size	_ZN8PlayList6UpdateEP10GuiTrigger, .-_ZN8PlayList6UpdateEP10GuiTrigger
	.align 2
	.globl _ZN8PlayList17OnListStateChangeEP10GuiElementii
	.type	_ZN8PlayList17OnListStateChangeEP10GuiElementii, @function
_ZN8PlayList17OnListStateChangeEP10GuiElementii:
.LFB1611:
	.loc 4 387 0
	.cfi_startproc
.LVL283:
.LBB4823:
	.loc 4 388 0
	cmpwi 7,5,1
.LBE4823:
	.loc 4 387 0
	mflr 0
	stwu 1,-16(1)
.LCFI81:
	.cfi_def_cfa_offset 16
	.cfi_register 65, 0
	stw 31,12(1)
	mr 31,3
	.cfi_offset 31, -4
	stw 0,20(1)
	stw 30,8(1)
.LBB4824:
	.loc 4 388 0
	beq- 7,.L233
	.cfi_offset 30, -8
	.cfi_offset 65, 4
.L223:
.LBE4824:
	.loc 4 403 0
	lwz 0,20(1)
	lwz 30,8(1)
	mtlr 0
	lwz 31,12(1)
	addi 1,1,16
	.cfi_remember_state
.LCFI82:
	.cfi_def_cfa_offset 0
	.cfi_restore 31
	.cfi_restore 30
	blr
.LVL284:
.L233:
.LCFI83:
	.cfi_restore_state
.LBB4825:
	.loc 4 388 0
	lwz 9,240(3)
.LVL285:
.LBE4825:
.LBB4826:
.LBB4827:
.LBB4828:
	.loc 4 393 0
	lwz 0,0(9)
	cmpw 7,4,0
	beq- 7,.L226
.LVL286:
	lwz 0,4(9)
	cmpw 7,4,0
	beq- 7,.L227
.LVL287:
	lwz 0,8(9)
	cmpw 7,4,0
	beq- 7,.L228
.LVL288:
	lwz 0,12(9)
	cmpw 7,4,0
	beq- 7,.L229
.LVL289:
	lwz 0,16(9)
	cmpw 7,4,0
	beq- 7,.L230
.LVL290:
	lwz 0,20(9)
	cmpw 7,4,0
	beq- 7,.L231
.LVL291:
	lwz 0,24(9)
	cmpw 7,4,0
	beq- 7,.L232
.LVL292:
	lwz 0,28(9)
	.loc 5 696 0
	li 30,28
	.loc 4 393 0
	cmpw 7,4,0
	bne+ 7,.L223
.LVL293:
.L225:
.LBB4829:
.LBB4830:
	.loc 5 696 0
	lwz 0,220(31)
.LBE4830:
.LBE4829:
	.loc 4 397 0
	li 5,1
.LVL294:
	lwz 9,252(31)
	slwi 0,0,2
	lwz 4,36(31)
.LVL295:
	lwzx 3,9,0
.LVL296:
	addi 4,4,-95
	bl _ZN7GuiText11SetMaxWidthEii
.LVL297:
	.loc 4 398 0
	lwz 9,252(31)
	lwz 4,36(31)
	li 5,2
	lwzx 3,9,30
	addi 4,4,-115
	bl _ZN7GuiText11SetMaxWidthEii
.LBE4828:
.LBE4827:
.LBE4826:
	.loc 4 403 0
	lwz 0,20(1)
	lwz 30,8(1)
	mtlr 0
	lwz 31,12(1)
.LVL298:
	addi 1,1,16
	.cfi_remember_state
	.cfi_restore 30
	.cfi_restore 31
.LCFI84:
	.cfi_def_cfa_offset 0
	blr
.LVL299:
.L226:
.LCFI85:
	.cfi_restore_state
.LBB4833:
.LBB4832:
.LBB4831:
	.loc 5 696 0
	li 30,0
	b .L225
.LVL300:
.L227:
	li 30,4
	b .L225
.LVL301:
.L228:
	li 30,8
	b .L225
.LVL302:
.L229:
	li 30,12
	b .L225
.LVL303:
.L230:
	li 30,16
	b .L225
.LVL304:
.L231:
	li 30,20
	b .L225
.LVL305:
.L232:
	li 30,24
	b .L225
.LBE4831:
.LBE4832:
.LBE4833:
	.cfi_endproc
.LFE1611:
	.size	_ZN8PlayList17OnListStateChangeEP10GuiElementii, .-_ZN8PlayList17OnListStateChangeEP10GuiElementii
	.align 2
	.globl _ZN8PlayList13OnButtonClickEP9GuiButtoniRK6_POINT
	.type	_ZN8PlayList13OnButtonClickEP9GuiButtoniRK6_POINT, @function
_ZN8PlayList13OnButtonClickEP9GuiButtoniRK6_POINT:
.LFB1601:
	.loc 4 140 0
	.cfi_startproc
	.cfi_personality 0,__gxx_personality_v0
	.cfi_lsda 0,.LLSDA1601
.LVL306:
	mflr 0
	stwu 1,-32(1)
.LCFI86:
	.cfi_def_cfa_offset 32
	.cfi_register 65, 0
	stw 31,28(1)
	mr 31,3
	.cfi_offset 31, -4
	stw 0,36(1)
	stw 26,8(1)
.LBB4846:
	.loc 4 141 0
	lwz 0,276(3)
	.cfi_offset 26, -24
	.cfi_offset 65, 4
.LBE4846:
	.loc 4 140 0
	stw 27,12(1)
.LBB4847:
	.loc 4 141 0
	cmpw 7,0,4
.LBE4847:
	.loc 4 140 0
	stw 28,16(1)
	stw 29,20(1)
	stw 30,24(1)
.LBB4848:
	.loc 4 141 0
	beq- 7,.L248
	.cfi_offset 30, -8
	.cfi_offset 29, -12
	.cfi_offset 28, -16
	.cfi_offset 27, -20
.LVL307:
.L234:
.LBE4848:
	.loc 4 170 0
	lwz 0,36(1)
	lwz 26,8(1)
	mtlr 0
	lwz 27,12(1)
	lwz 28,16(1)
	lwz 29,20(1)
	lwz 30,24(1)
	lwz 31,28(1)
.LVL308:
	addi 1,1,32
	.cfi_remember_state
.LCFI87:
	.cfi_def_cfa_offset 0
	.cfi_restore 31
	.cfi_restore 30
	.cfi_restore 29
	.cfi_restore 28
	.cfi_restore 27
	.cfi_restore 26
	blr
.LVL309:
.L248:
.LCFI88:
	.cfi_restore_state
.LBB4849:
.LBB4850:
.LBB4851:
	.loc 4 143 0
	lbz 0,224(3)
	cmpwi 7,0,0
	lwz 0,96(3)
	beq- 7,.L236
	cmpwi 7,0,0
	beq- 7,.L234
.LBB4852:
	.loc 4 145 0
	lwz 9,0(3)
	.loc 4 147 0
	li 29,0
	.loc 4 145 0
	lwz 0,16(9)
	mtctr 0
.LEHB12:
	bctrl
.LVL310:
	mr 26,3
	lwz 3,96(31)
	lwz 9,0(3)
	lwz 0,16(9)
	mtctr 0
	bctrl
	.loc 4 146 0
	lwz 9,0(31)
	.loc 4 145 0
	subf 26,3,26
.LVL311:
	.loc 4 146 0
	mr 3,31
	lwz 0,20(9)
	mtctr 0
	bctrl
	mr 27,3
	lwz 3,96(31)
	lwz 9,0(3)
	lwz 0,20(9)
	mtctr 0
	bctrl
	subf 27,3,27
.LVL312:
	b .L237
.LVL313:
.L238:
	.loc 4 152 0
	lwz 9,0(30)
	mr 3,30
	lwz 0,216(9)
	mtctr 0
	bctrl
.LVL314:
.L237:
	.loc 4 148 0
	lwz 9,0(31)
	mr 3,31
	lwz 0,40(9)
	mtctr 0
	bctrl
	srawi 3,3,1
	addze 3,3
	addi 3,3,92
	cmpw 7,29,3
	bgt- 7,.L249
	.loc 4 151 0
	lwz 9,0(31)
	.loc 4 150 0
	addi 29,29,15
.LVL315:
	.loc 4 151 0
	mr 3,31
	mr 4,26
	lwz 0,168(9)
	subf 5,29,27
.LBB4853:
.LBB4854:
	.file 8 "d:/Projects/SaveGameManager/savegame-manager-gx/trunk/source/SoundOperations/../Controls/Application.h"
	.loc 8 27 0
	lis 28,_ZN11Application8instanceE@ha
.LBE4854:
.LBE4853:
	.loc 4 151 0
	mtctr 0
	bctrl
.LBB4856:
.LBB4855:
	.loc 8 27 0
	lwz 30,_ZN11Application8instanceE@l(28)
	la 28,_ZN11Application8instanceE@l(28)
	cmpwi 7,30,0
	bne+ 7,.L238
	li 3,632
	bl _Znwj
.LEHE12:
	mr 30,3
.LEHB13:
	bl _ZN11ApplicationC1Ev
.LEHE13:
	stw 30,0(28)
	b .L238
.LVL316:
.L236:
.LBE4855:
.LBE4856:
.LBE4852:
.LBB4857:
	.loc 4 156 0
	cmpwi 7,0,0
	beq- 7,.L234
.LBB4858:
	.loc 4 159 0
	lwz 9,0(3)
	.loc 4 161 0
	li 29,0
	.loc 4 159 0
	lwz 0,16(9)
	.loc 4 158 0
	li 9,1
	stb 9,224(3)
	.loc 4 159 0
	mtctr 0
.LEHB14:
	bctrl
.LVL317:
	mr 26,3
	lwz 3,96(31)
	lwz 9,0(3)
	lwz 0,16(9)
	mtctr 0
	bctrl
	.loc 4 160 0
	lwz 9,0(31)
	.loc 4 159 0
	subf 26,3,26
.LVL318:
	.loc 4 160 0
	mr 3,31
	lwz 0,20(9)
	mtctr 0
	bctrl
	mr 27,3
	lwz 3,96(31)
	lwz 9,0(3)
	lwz 0,20(9)
	mtctr 0
	bctrl
	subf 27,3,27
.LVL319:
	b .L241
.LVL320:
.L242:
	.loc 4 166 0
	lwz 9,0(30)
	mr 3,30
	lwz 0,216(9)
	mtctr 0
	bctrl
.LVL321:
.L241:
	.loc 4 162 0
	lwz 9,0(31)
	mr 3,31
	lwz 0,40(9)
	mtctr 0
	bctrl
	srawi 3,3,1
	addze 3,3
	addi 3,3,92
	cmpw 7,29,3
	bgt- 7,.L234
	.loc 4 165 0
	lwz 9,0(31)
	.loc 4 164 0
	addi 29,29,15
.LVL322:
	.loc 4 165 0
	mr 3,31
	mr 4,26
	lwz 0,168(9)
	add 5,29,27
.LBB4859:
.LBB4860:
	.loc 8 27 0
	lis 28,_ZN11Application8instanceE@ha
.LBE4860:
.LBE4859:
	.loc 4 165 0
	mtctr 0
	bctrl
.LBB4863:
.LBB4861:
	.loc 8 27 0
	lwz 30,_ZN11Application8instanceE@l(28)
	la 28,_ZN11Application8instanceE@l(28)
	cmpwi 7,30,0
	bne+ 7,.L242
	li 3,632
	bl _Znwj
.LEHE14:
	mr 30,3
.LEHB15:
	bl _ZN11ApplicationC1Ev
.LEHE15:
	stw 30,0(28)
	b .L242
.LVL323:
.L249:
.LBE4861:
.LBE4863:
.LBE4858:
.LBE4857:
.LBB4866:
	.loc 4 154 0
	li 0,0
	stb 0,224(31)
	b .L234
.LVL324:
.L246:
.L247:
	mr 31,3
.LVL325:
.LBE4866:
.LBB4867:
.LBB4865:
.LBB4864:
.LBB4862:
	.loc 8 27 0
	mr 3,30
	bl _ZdlPv
	mr 3,31
.LEHB16:
	bl _Unwind_Resume
.LEHE16:
.LVL326:
.L245:
	b .L247
.LBE4862:
.LBE4864:
.LBE4865:
.LBE4867:
.LBE4851:
.LBE4850:
.LBE4849:
	.cfi_endproc
.LFE1601:
	.section	.gcc_except_table
.LLSDA1601:
	.byte	0xff
	.byte	0xff
	.byte	0x1
	.uleb128 .LLSDACSE1601-.LLSDACSB1601
.LLSDACSB1601:
	.uleb128 .LEHB12-.LFB1601
	.uleb128 .LEHE12-.LEHB12
	.uleb128 0
	.uleb128 0
	.uleb128 .LEHB13-.LFB1601
	.uleb128 .LEHE13-.LEHB13
	.uleb128 .L245-.LFB1601
	.uleb128 0
	.uleb128 .LEHB14-.LFB1601
	.uleb128 .LEHE14-.LEHB14
	.uleb128 0
	.uleb128 0
	.uleb128 .LEHB15-.LFB1601
	.uleb128 .LEHE15-.LEHB15
	.uleb128 .L246-.LFB1601
	.uleb128 0
	.uleb128 .LEHB16-.LFB1601
	.uleb128 .LEHE16-.LEHB16
	.uleb128 0
	.uleb128 0
.LLSDACSE1601:
	.section	".text"
	.size	_ZN8PlayList13OnButtonClickEP9GuiButtoniRK6_POINT, .-_ZN8PlayList13OnButtonClickEP9GuiButtoniRK6_POINT
	.align 2
	.globl _ZN8PlayList4SaveEv
	.type	_ZN8PlayList4SaveEv, @function
_ZN8PlayList4SaveEv:
.LFB1599:
	.loc 4 65 0
	.cfi_startproc
.LVL327:
	stwu 1,-1048(1)
.LCFI89:
	.cfi_def_cfa_offset 1048
	mflr 0
.LBB4880:
	.loc 4 67 0
	lis 5,.LC4@ha
	lis 6,Settings+14@ha
.LBE4880:
	.loc 4 65 0
	stw 30,1040(1)
.LBB4886:
	.loc 4 67 0
	addi 30,1,8
	.cfi_offset 30, -8
	.cfi_register 65, 0
.LBE4886:
	.loc 4 65 0
	stw 31,1044(1)
.LBB4887:
	.loc 4 67 0
	li 4,1024
.LBE4887:
	.loc 4 65 0
	mr 31,3
	.cfi_offset 31, -4
.LBB4888:
	.loc 4 67 0
	la 5,.LC4@l(5)
	mr 3,30
.LVL328:
	la 6,Settings+14@l(6)
.LBE4888:
	.loc 4 65 0
	stw 0,1052(1)
	stw 28,1032(1)
	stw 29,1036(1)
.LBB4889:
	.loc 4 67 0
	.cfi_offset 29, -12
	.cfi_offset 28, -16
	.cfi_offset 65, 4
	crxor 6,6,6
	bl snprintf
	.loc 4 69 0
	b .L251
.L252:
	.loc 4 70 0
	li 0,0
	stb 0,8(11)
.L251:
	.loc 4 69 0 discriminator 1
	mr 3,30
	bl strlen
	addi 11,3,-1
	mr 9,3
	add 11,1,11
	lbz 0,8(11)
	cmpwi 7,0,47
	beq+ 7,.L252
	.loc 4 72 0
	lis 10,.LC5@ha
	.loc 4 74 0
	lis 4,.LC6@ha
	.loc 4 72 0
	la 11,.LC5@l(10)
	lwz 29,.LC5@l(10)
	lwz 5,4(11)
	.loc 4 74 0
	la 4,.LC6@l(4)
	.loc 4 72 0
	lwz 6,8(11)
	lwz 7,12(11)
	lwz 8,16(11)
	lwz 10,20(11)
	lbz 0,24(11)
	add 11,30,3
	stwx 29,30,9
	.loc 4 74 0
	mr 3,30
	.loc 4 72 0
	stw 5,4(11)
	stw 6,8(11)
	stw 7,12(11)
	stw 8,16(11)
	stw 10,20(11)
	stb 0,24(11)
	.loc 4 74 0
	bl fopen
.LVL329:
	.loc 4 75 0
	mr. 30,3
	.loc 4 76 0
	li 3,0
.LVL330:
	.loc 4 75 0
	beq- 0,.L253
	.loc 4 78 0
	lis 3,.LC7@ha
	li 4,1
	li 5,28
	mr 6,30
	la 3,.LC7@l(3)
	bl fwrite
	.loc 4 79 0
	lis 3,.LC8@ha
	la 3,.LC8@l(3)
	li 4,1
	li 5,46
	mr 6,30
	bl fwrite
.LVL331:
	.loc 4 503 0
	lwz 9,228(31)
.LBB4881:
.LBB4882:
.LBB4883:
	.loc 5 571 0
	lwz 0,232(31)
	subf 0,9,0
.LBE4883:
.LBE4882:
	.loc 4 81 0
	srwi. 11,0,2
	beq- 0,.L254
	lis 28,.LC9@ha
	li 29,0
	la 28,.LC9@l(28)
.LVL332:
.L255:
	.loc 4 82 0
	slwi 0,29,2
	mr 3,30
	lwzx 5,9,0
	mr 4,28
	.loc 4 81 0
	addi 29,29,1
.LVL333:
	.loc 4 82 0
	crxor 6,6,6
	bl fprintf
.LVL334:
	.loc 4 503 0
	lwz 9,228(31)
.LBB4885:
.LBB4884:
	.loc 5 571 0
	lwz 0,232(31)
	subf 0,9,0
	srawi 0,0,2
.LBE4884:
.LBE4885:
	.loc 4 81 0
	cmplw 7,29,0
	blt+ 7,.L255
.LVL335:
.L254:
.LBE4881:
	.loc 4 84 0
	mr 3,30
	bl fclose
	.loc 4 86 0
	li 3,1
.L253:
.LBE4889:
	.loc 4 87 0
	lwz 0,1052(1)
	lwz 28,1032(1)
	mtlr 0
	lwz 29,1036(1)
	lwz 30,1040(1)
.LVL336:
	lwz 31,1044(1)
.LVL337:
	addi 1,1,1048
.LCFI90:
	.cfi_def_cfa_offset 0
	.cfi_restore 31
	.cfi_restore 30
	.cfi_restore 29
	.cfi_restore 28
	blr
	.cfi_endproc
.LFE1599:
	.size	_ZN8PlayList4SaveEv, .-_ZN8PlayList4SaveEv
	.align 2
	.globl _ZN8PlayList4HideEv
	.type	_ZN8PlayList4HideEv, @function
_ZN8PlayList4HideEv:
.LFB1604:
	.loc 4 250 0
	.cfi_startproc
.LVL338:
	mflr 0
	stwu 1,-24(1)
.LCFI91:
	.cfi_def_cfa_offset 24
	.cfi_register 65, 0
.LBB4890:
	.loc 4 251 0
	li 4,0
.LBE4890:
	.loc 4 250 0
	stw 31,20(1)
	mr 31,3
	.cfi_offset 31, -4
	stw 0,28(1)
	stw 29,12(1)
.LBB4915:
	.loc 4 251 0
	lwz 9,0(3)
.LBE4915:
	.loc 4 250 0
	stw 30,16(1)
.LBB4916:
	.loc 4 251 0
	lwz 0,48(9)
	.cfi_offset 30, -8
	.cfi_offset 29, -12
	.cfi_offset 65, 4
	mtctr 0
	bctrl
.LVL339:
	.loc 4 253 0
	mr 3,31
	bl _ZN8GuiFrame9RemoveAllEv
	.loc 4 255 0
	lwz 3,292(31)
	bl _ZN9Resources6RemoveEP8GuiSound
	.loc 4 256 0
	lwz 3,296(31)
	bl _ZN9Resources6RemoveEP8GuiSound
	.loc 4 257 0
	lwz 3,280(31)
	bl _ZN9Resources6RemoveEP12GuiImageData
	.loc 4 258 0
	lwz 3,284(31)
	bl _ZN9Resources6RemoveEP12GuiImageData
.LVL340:
	.loc 4 503 0
	lwz 9,240(31)
.LBB4891:
.LBB4892:
.LBB4893:
	.loc 5 571 0
	lwz 0,244(31)
	subf 0,9,0
.LBE4893:
.LBE4892:
	.loc 4 260 0
	srwi. 11,0,2
	beq- 0,.L259
	li 30,0
.LVL341:
.L263:
	.loc 4 249 0
	slwi 29,30,2
	.loc 4 260 0
	addi 30,30,1
.LVL342:
	.loc 4 262 0
	lwzx 9,9,29
	cmpwi 7,9,0
	mr 3,9
	beq- 7,.L260
	.loc 4 262 0 is_stmt 0 discriminator 1
	lwz 9,0(9)
	lwz 0,4(9)
	mtctr 0
	bctrl
.L260:
	.loc 4 263 0 is_stmt 1
	lwz 9,252(31)
	lwzx 9,9,29
	cmpwi 7,9,0
	mr 3,9
	beq- 7,.L261
	.loc 4 263 0 is_stmt 0 discriminator 1
	lwz 9,0(9)
	lwz 0,4(9)
	mtctr 0
	bctrl
.L261:
	.loc 4 264 0 is_stmt 1
	lwz 9,264(31)
	lwzx 9,9,29
	cmpwi 7,9,0
	mr 3,9
	beq- 7,.L262
	.loc 4 264 0 is_stmt 0 discriminator 1
	lwz 9,0(9)
	lwz 0,4(9)
	mtctr 0
	bctrl
.L262:
.LVL343:
	.loc 4 503 0 is_stmt 1
	lwz 9,240(31)
.LBB4895:
.LBB4894:
	.loc 5 571 0
	lwz 0,244(31)
	subf 0,9,0
	srawi 0,0,2
.LBE4894:
.LBE4895:
	.loc 4 260 0
	cmplw 7,30,0
	blt+ 7,.L263
.LVL344:
.L259:
.LBE4891:
	.loc 4 270 0
	lwz 3,304(31)
.LBB4896:
.LBB4897:
.LBB4898:
.LBB4899:
	.loc 5 1256 0
	lwz 11,252(31)
.LBE4899:
.LBE4898:
.LBE4897:
.LBE4896:
	.loc 4 270 0
	cmpwi 7,3,0
.LBB4903:
.LBB4904:
.LBB4905:
.LBB4906:
	.loc 5 1256 0
	lwz 0,264(31)
.LBE4906:
.LBE4905:
.LBE4904:
.LBE4903:
.LBB4910:
.LBB4911:
.LBB4912:
	stw 9,244(31)
.LVL345:
.LBE4912:
.LBE4911:
.LBE4910:
.LBB4913:
.LBB4902:
.LBB4901:
.LBB4900:
	stw 11,256(31)
.LVL346:
.LBE4900:
.LBE4901:
.LBE4902:
.LBE4913:
.LBB4914:
.LBB4909:
.LBB4908:
.LBB4907:
	stw 0,268(31)
.LBE4907:
.LBE4908:
.LBE4909:
.LBE4914:
	.loc 4 270 0
	beq- 7,.L264
	.loc 4 271 0 discriminator 1
	lwz 9,0(3)
.LVL347:
	lwz 0,4(9)
	mtctr 0
	bctrl
.LVL348:
.L264:
	.loc 4 272 0
	lwz 3,288(31)
	cmpwi 7,3,0
	beq- 7,.L265
	.loc 4 273 0 discriminator 1
	lwz 9,0(3)
	lwz 0,4(9)
	mtctr 0
	bctrl
.L265:
	.loc 4 274 0
	lwz 3,276(31)
	cmpwi 7,3,0
	beq- 7,.L266
	.loc 4 275 0 discriminator 1
	lwz 9,0(3)
	lwz 0,4(9)
	mtctr 0
	bctrl
.L266:
	.loc 4 276 0
	lwz 3,300(31)
	cmpwi 7,3,0
	beq- 7,.L267
	.loc 4 277 0 discriminator 1
	lwz 9,0(3)
	lwz 0,4(9)
	mtctr 0
	bctrl
.L267:
	.loc 4 279 0
	li 0,0
.LBE4916:
	.loc 4 287 0
	lwz 29,12(1)
.LBB4917:
	.loc 4 279 0
	stw 0,296(31)
	.loc 4 280 0
	stw 0,292(31)
	.loc 4 281 0
	stw 0,280(31)
	.loc 4 282 0
	stw 0,284(31)
	.loc 4 283 0
	stw 0,304(31)
	.loc 4 284 0
	stw 0,288(31)
	.loc 4 285 0
	stw 0,276(31)
	.loc 4 286 0
	stw 0,300(31)
.LBE4917:
	.loc 4 287 0
	lwz 0,28(1)
	lwz 30,16(1)
	mtlr 0
	lwz 31,20(1)
.LVL349:
	addi 1,1,24
.LCFI92:
	.cfi_def_cfa_offset 0
	.cfi_restore 31
	.cfi_restore 30
	.cfi_restore 29
	blr
	.cfi_endproc
.LFE1604:
	.size	_ZN8PlayList4HideEv, .-_ZN8PlayList4HideEv
	.align 2
	.globl _ZN8PlayList12RemoveEntrieEi
	.type	_ZN8PlayList12RemoveEntrieEi, @function
_ZN8PlayList12RemoveEntrieEi:
.LFB1606:
	.loc 4 306 0
	.cfi_startproc
.LVL350:
	.loc 4 307 0
	cmpwi 0,4,0
	.loc 4 306 0
	mflr 0
	stwu 1,-16(1)
.LCFI93:
	.cfi_def_cfa_offset 16
	.cfi_register 65, 0
	stw 31,12(1)
	mr 31,3
	.cfi_offset 31, -4
	stw 0,20(1)
	stw 30,8(1)
	.loc 4 307 0
	blt- 0,.L269
	.cfi_offset 30, -8
	.cfi_offset 65, 4
	.loc 4 503 0 discriminator 2
	lwz 11,228(3)
	lwz 9,232(3)
.LBB4955:
.LBB4956:
	.loc 5 571 0 discriminator 2
	subf 0,11,9
	srawi 0,0,2
.LBE4956:
.LBE4955:
	.loc 4 307 0 discriminator 2
	cmpw 7,0,4
	ble- 7,.L269
.LVL351:
.LBB4957:
.LBB4958:
.LBB4959:
	.loc 5 718 0
	cmplw 7,4,0
	bge- 7,.L278
.LVL352:
.LBE4959:
.LBE4958:
.LBB4961:
.LBB4962:
	.loc 5 696 0
	slwi 30,4,2
.LBE4962:
.LBE4961:
.LBE4957:
	.loc 4 310 0
	lwzx 3,11,30
.LVL353:
.LBB4966:
.LBB4964:
.LBB4963:
	.loc 5 696 0
	add 11,11,30
.LBE4963:
.LBE4964:
.LBE4966:
	.loc 4 310 0
	cmpwi 7,3,0
	beq- 7,.L272
.LVL354:
	.loc 4 311 0
	bl _ZdaPv
.LVL355:
	lwz 11,228(31)
	lwz 9,232(31)
	add 11,11,30
.LVL356:
.L272:
.LBB4967:
.LBB4968:
.LBB4969:
.LBB4970:
	.file 9 "d:\\devkitpro\\devkitppc\\bin\\../lib/gcc/powerpc-eabi/4.6.3/../../../../powerpc-eabi/include/c++/4.6.3/bits/stl_iterator.h"
	.loc 9 773 0
	addi 4,11,4
.LVL357:
.LBE4970:
.LBE4969:
	.file 10 "d:\\devkitpro\\devkitppc\\bin\\../lib/gcc/powerpc-eabi/4.6.3/../../../../powerpc-eabi/include/c++/4.6.3/bits/vector.tcc"
	.loc 10 138 0
	cmpw 7,4,9
	beq- 7,.L273
.LVL358:
.LBB4971:
.LBB4972:
.LBB4973:
.LBB4974:
.LBB4975:
.LBB4976:
	.file 11 "d:\\devkitpro\\devkitppc\\bin\\../lib/gcc/powerpc-eabi/4.6.3/../../../../powerpc-eabi/include/c++/4.6.3/bits/stl_algobase.h"
	.loc 11 364 0
	subf 5,4,9
.LVL359:
	.loc 11 365 0
	srawi. 5,5,2
.LVL360:
	bne- 0,.L279
.LVL361:
.L273:
.LBE4976:
.LBE4975:
.LBE4974:
.LBE4973:
.LBE4972:
.LBE4971:
	.loc 10 140 0
	addi 9,9,-4
.LBE4968:
.LBE4967:
	.loc 4 314 0
	li 0,1
.LBB4987:
.LBB4983:
	.loc 10 140 0
	stw 9,232(31)
.LBE4983:
.LBE4987:
	.loc 4 314 0
	stb 0,225(31)
.LVL362:
.L269:
	.loc 4 315 0
	lwz 0,20(1)
	lwz 30,8(1)
	mtlr 0
	lwz 31,12(1)
.LVL363:
	addi 1,1,16
	.cfi_remember_state
.LCFI94:
	.cfi_def_cfa_offset 0
	.cfi_restore 31
	.cfi_restore 30
	blr
.LVL364:
.L279:
.LCFI95:
	.cfi_restore_state
.LBB4988:
.LBB4984:
.LBB4982:
.LBB4981:
.LBB4980:
.LBB4979:
.LBB4978:
.LBB4977:
	.loc 11 366 0
	mr 3,11
	slwi 5,5,2
.LVL365:
	bl memmove
.LVL366:
	lwz 9,232(31)
.LBE4977:
.LBE4978:
.LBE4979:
.LBE4980:
.LBE4981:
.LBE4982:
.LBE4984:
.LBE4988:
	.loc 4 314 0
	li 0,1
.LBB4989:
.LBB4985:
	.loc 10 140 0
	addi 9,9,-4
.LBE4985:
.LBE4989:
	.loc 4 314 0
	stb 0,225(31)
.LBB4990:
.LBB4986:
	.loc 10 140 0
	stw 9,232(31)
	b .L269
.LVL367:
.L278:
.LBE4986:
.LBE4990:
.LBB4991:
.LBB4965:
.LBB4960:
	.loc 5 719 0
	lis 3,.LC10@ha
	la 3,.LC10@l(3)
	bl _ZSt20__throw_out_of_rangePKc
.LVL368:
.LVL369:
.LVL370:
.LBE4960:
.LBE4965:
.LBE4991:
	.cfi_endproc
.LFE1606:
	.size	_ZN8PlayList12RemoveEntrieEi, .-_ZN8PlayList12RemoveEntrieEi
	.align 2
	.globl _ZN8PlayList9ClearListEv
	.type	_ZN8PlayList9ClearListEv, @function
_ZN8PlayList9ClearListEv:
.LFB1607:
	.loc 4 318 0
	.cfi_startproc
.LVL371:
	mflr 0
	stwu 1,-24(1)
.LCFI96:
	.cfi_def_cfa_offset 24
	.cfi_register 65, 0
	stw 31,20(1)
	mr 31,3
	.cfi_offset 31, -4
	stw 0,28(1)
	stw 29,12(1)
.LBB5056:
.LBB5057:
	.loc 4 503 0
	lwz 11,228(3)
	lwz 10,232(3)
.LBE5057:
.LBE5056:
	.loc 4 318 0
	stw 30,16(1)
.LBB5107:
.LBB5064:
	.loc 4 319 0
	mr 0,11
	.cfi_offset 30, -8
	.cfi_offset 29, -12
	.cfi_offset 65, 4
.LBB5065:
.LBB5066:
	.loc 5 571 0
	subf 9,11,10
.LBE5066:
.LBE5065:
	.loc 4 319 0
	srawi. 9,9,2
	beq- 0,.L281
	li 30,0
	b .L285
.LVL372:
.L294:
	.loc 4 503 0
	mr 11,0
.LVL373:
.L285:
	.loc 4 317 0
	slwi 29,30,2
	.loc 4 321 0
	lwzx 3,11,29
	cmpwi 7,3,0
	beq- 7,.L282
.LVL374:
.LBB5069:
.LBB5070:
.LBB5071:
	.loc 5 718 0
	cmplw 7,9,30
	ble- 7,.L296
.LBE5071:
.LBE5070:
.LBE5069:
	.loc 4 323 0
	bl _ZdaPv
.LVL375:
.LBB5072:
.LBB5073:
	.loc 4 503 0
	lwz 9,228(31)
.LBB5074:
.LBB5075:
.LBB5076:
	.loc 5 571 0
	lwz 0,232(31)
	subf 0,9,0
	srawi 0,0,2
.LBE5076:
.LBE5075:
	.loc 5 718 0
	cmplw 7,30,0
	bge- 7,.L296
.LBE5074:
.LBE5073:
.LBE5072:
	.loc 4 324 0
	li 0,0
	stwx 0,9,29
	lwz 0,228(31)
	lwz 10,232(31)
.LVL376:
.L282:
.LBB5079:
.LBB5067:
	.loc 5 571 0
	subf 9,0,10
.LBE5067:
.LBE5079:
	.loc 4 319 0
	addi 30,30,1
.LVL377:
.LBB5080:
.LBB5068:
	.loc 5 571 0
	srawi 9,9,2
.LBE5068:
.LBE5080:
	.loc 4 319 0
	cmplw 7,30,9
	blt+ 7,.L294
.LVL378:
.L281:
.LBE5064:
.LBB5082:
.LBB5083:
.LBB5084:
.LBB5085:
.LBB5086:
.LBB5087:
	.loc 5 155 0
	cmpwi 7,0,0
.LBE5087:
.LBE5086:
.LBE5085:
.LBE5084:
.LBE5083:
.LBE5082:
.LBB5095:
.LBB5096:
.LBB5097:
	.file 12 "d:\\devkitpro\\devkitppc\\bin\\../lib/gcc/powerpc-eabi/4.6.3/../../../../powerpc-eabi/include/c++/4.6.3/bits/move.h"
	.loc 12 129 0
	li 9,0
	stw 9,228(31)
.LVL379:
.LBE5097:
.LBE5096:
.LBB5098:
.LBB5099:
	stw 9,232(31)
.LVL380:
.LBE5099:
.LBE5098:
.LBB5100:
.LBB5101:
	stw 9,236(31)
.LVL381:
.LBE5101:
.LBE5100:
.LBE5095:
.LBB5102:
.LBB5094:
.LBB5093:
.LBB5092:
.LBB5091:
.LBB5090:
	.loc 5 155 0
	beq- 7,.L290
.LVL382:
.LBB5088:
.LBB5089:
	.loc 7 98 0
	mr 3,0
	bl _ZdlPv
.LVL383:
.L290:
.LBE5089:
.LBE5088:
.LBE5090:
.LBE5091:
.LBE5092:
.LBE5093:
.LBE5094:
.LBE5102:
	.loc 4 503 0
	lwz 9,240(31)
	.loc 4 330 0
	li 0,0
.LBB5103:
.LBB5058:
.LBB5059:
	.loc 5 571 0
	lwz 11,244(31)
.LBE5059:
.LBE5058:
.LBE5103:
	.loc 4 330 0
	stw 0,216(31)
.LBB5104:
.LBB5062:
.LBB5060:
	.loc 5 571 0
	subf 11,9,11
.LBE5060:
.LBE5062:
.LBE5104:
	.loc 4 331 0
	stw 0,220(31)
.LVL384:
.LBB5105:
	.loc 4 333 0
	srwi. 10,11,2
	beq- 0,.L291
	li 30,0
.LVL385:
.L292:
	.loc 4 317 0 discriminator 2
	slwi 29,30,2
	.loc 4 335 0 discriminator 2
	li 4,0
	lwzx 3,9,29
	.loc 4 333 0 discriminator 2
	addi 30,30,1
.LVL386:
	.loc 4 335 0 discriminator 2
	lwz 9,0(3)
	lwz 0,48(9)
	mtctr 0
	bctrl
	.loc 4 336 0 discriminator 2
	lwz 9,240(31)
	li 4,4
	li 5,-1
	lwzx 3,9,29
	lwz 9,0(3)
	lwz 0,80(9)
	mtctr 0
	bctrl
.LVL387:
	.loc 4 503 0 discriminator 2
	lwz 9,240(31)
.LBB5063:
.LBB5061:
	.loc 5 571 0 discriminator 2
	lwz 0,244(31)
	subf 0,9,0
	srawi 0,0,2
.LBE5061:
.LBE5063:
	.loc 4 333 0 discriminator 2
	cmplw 7,30,0
	blt+ 7,.L292
.LVL388:
.L291:
.LBE5105:
	.loc 4 339 0
	li 0,1
.LBE5107:
	.loc 4 340 0
	lwz 29,12(1)
.LBB5108:
	.loc 4 339 0
	stb 0,225(31)
.LBE5108:
	.loc 4 340 0
	lwz 0,28(1)
	lwz 30,16(1)
	mtlr 0
	lwz 31,20(1)
.LVL389:
	addi 1,1,24
	.cfi_remember_state
.LCFI97:
	.cfi_def_cfa_offset 0
	.cfi_restore 31
	.cfi_restore 30
	.cfi_restore 29
	blr
.LVL390:
.L296:
.LCFI98:
	.cfi_restore_state
.LBB5109:
.LBB5106:
.LBB5081:
.LBB5078:
.LBB5077:
	.loc 5 719 0
	lis 3,.LC10@ha
	la 3,.LC10@l(3)
	bl _ZSt20__throw_out_of_rangePKc
.LBE5077:
.LBE5078:
.LBE5081:
.LBE5106:
.LBE5109:
	.cfi_endproc
.LFE1607:
	.size	_ZN8PlayList9ClearListEv, .-_ZN8PlayList9ClearListEv
	.align 2
	.globl _ZN8PlayList8FindFileEPKc
	.type	_ZN8PlayList8FindFileEPKc, @function
_ZN8PlayList8FindFileEPKc:
.LFB1608:
	.loc 4 343 0
	.cfi_startproc
.LVL391:
	stwu 1,-24(1)
.LCFI99:
	.cfi_def_cfa_offset 24
	mflr 0
	mr 9,3
.LBB5110:
	.loc 4 345 0
	li 3,-1
.LVL392:
.LBE5110:
	.loc 4 343 0
	stw 29,12(1)
.LBB5115:
	.loc 4 344 0
	mr. 29,4
	.cfi_offset 29, -12
	.cfi_register 65, 0
.LBE5115:
	.loc 4 343 0
	stw 0,28(1)
	stw 28,8(1)
	stw 30,16(1)
	stw 31,20(1)
.LBB5116:
	.loc 4 344 0
	beq- 0,.L298
	.cfi_offset 31, -4
	.cfi_offset 30, -8
	.cfi_offset 28, -16
	.cfi_offset 65, 4
.LVL393:
	.loc 4 503 0 discriminator 1
	lwz 30,228(9)
.LBB5111:
.LBB5112:
.LBB5113:
	.loc 5 571 0 discriminator 1
	lwz 28,232(9)
	subf 28,30,28
.LBE5113:
.LBE5112:
	.loc 4 347 0 discriminator 1
	srawi. 28,28,2
	beq- 0,.L298
	.loc 4 347 0 is_stmt 0
	li 31,0
	b .L300
.LVL394:
.L299:
	addi 31,31,1
.LVL395:
	cmpw 7,31,28
	beq- 7,.L304
.LVL396:
.L300:
	.loc 4 349 0 is_stmt 1
	slwi 0,31,2
	mr 3,29
	lwzx 4,30,0
	bl strcasecmp
	cmpwi 7,3,0
	bne+ 7,.L299
	.loc 4 350 0
	mr 3,31
.LVL397:
.L298:
.LBE5111:
.LBE5116:
	.loc 4 354 0
	lwz 0,28(1)
	lwz 28,8(1)
	mtlr 0
	lwz 29,12(1)
.LVL398:
	lwz 30,16(1)
	lwz 31,20(1)
	addi 1,1,24
	.cfi_remember_state
.LCFI100:
	.cfi_def_cfa_offset 0
	.cfi_restore 31
	.cfi_restore 30
	.cfi_restore 29
	.cfi_restore 28
	blr
.LVL399:
.L304:
.LCFI101:
	.cfi_restore_state
	lwz 0,28(1)
.LBB5117:
.LBB5114:
	.loc 4 353 0
	li 3,-1
.LBE5114:
.LBE5117:
	.loc 4 354 0
	lwz 28,8(1)
	mtlr 0
	lwz 29,12(1)
.LVL400:
	lwz 30,16(1)
	lwz 31,20(1)
.LVL401:
	addi 1,1,24
	.cfi_restore 28
	.cfi_restore 29
	.cfi_restore 30
	.cfi_restore 31
.LCFI102:
	.cfi_def_cfa_offset 0
	blr
	.cfi_endproc
.LFE1608:
	.size	_ZN8PlayList8FindFileEPKc, .-_ZN8PlayList8FindFileEPKc
	.align 2
	.globl _ZN8PlayList2atEi
	.type	_ZN8PlayList2atEi, @function
_ZN8PlayList2atEi:
.LFB1609:
	.loc 4 357 0
	.cfi_startproc
.LVL402:
	.loc 4 358 0
	cmpwi 0,4,0
	.loc 4 357 0
	mr 9,3
	.loc 4 359 0
	li 3,0
.LVL403:
	.loc 4 358 0
	bltlr- 0
	.loc 4 503 0 discriminator 2
	lwz 11,228(9)
.LBB5118:
.LBB5119:
	.loc 5 571 0 discriminator 2
	lwz 0,232(9)
	subf 0,11,0
	srawi 0,0,2
.LBE5119:
.LBE5118:
	.loc 4 358 0 discriminator 2
	cmpw 7,4,0
	blt- 7,.L307
	.loc 4 362 0
	blr
.L307:
.LVL404:
	.loc 4 361 0
	slwi 4,4,2
.LVL405:
	lwzx 3,11,4
	blr
	.cfi_endproc
.LFE1609:
	.size	_ZN8PlayList2atEi, .-_ZN8PlayList2atEi
	.section	.text._ZNSt6vectorIP8GuiImageSaIS1_EE13_M_insert_auxEN9__gnu_cxx17__normal_iteratorIPS1_S3_EERKS1_,"axG",@progbits,_ZNSt6vectorIP8GuiImageSaIS1_EE13_M_insert_auxEN9__gnu_cxx17__normal_iteratorIPS1_S3_EERKS1_,comdat
	.align 2
	.weak	_ZNSt6vectorIP8GuiImageSaIS1_EE13_M_insert_auxEN9__gnu_cxx17__normal_iteratorIPS1_S3_EERKS1_
	.type	_ZNSt6vectorIP8GuiImageSaIS1_EE13_M_insert_auxEN9__gnu_cxx17__normal_iteratorIPS1_S3_EERKS1_, @function
_ZNSt6vectorIP8GuiImageSaIS1_EE13_M_insert_auxEN9__gnu_cxx17__normal_iteratorIPS1_S3_EERKS1_:
.LFB1895:
	.loc 10 300 0
	.cfi_startproc
.LVL406:
	mflr 0
	stwu 1,-40(1)
.LCFI103:
	.cfi_def_cfa_offset 40
	.cfi_register 65, 0
	stw 28,24(1)
	stw 0,44(1)
	stw 30,32(1)
.LBB5120:
	.loc 10 304 0
	lwz 28,4(3)
	.cfi_offset 30, -8
	.cfi_offset 65, 4
	.cfi_offset 28, -16
	lwz 0,8(3)
.LBE5120:
	.loc 10 300 0
	stw 31,36(1)
	mr 31,3
	.cfi_offset 31, -4
.LBB5267:
	.loc 10 304 0
	cmpw 7,28,0
.LBE5267:
	.loc 10 300 0
	stw 26,16(1)
	stw 27,20(1)
	stw 29,28(1)
	.loc 10 300 0
	lwz 30,0(4)
.LVL407:
.LBB5268:
	.loc 10 304 0
	beq- 7,.L310
	.cfi_offset 29, -12
	.cfi_offset 27, -20
	.cfi_offset 26, -24
.LVL408:
.LBB5121:
.LBB5122:
.LBB5123:
	.loc 7 108 0
	cmpwi 7,28,0
	li 3,0
.LVL409:
	beq- 7,.L311
	lwz 0,-4(28)
	stw 0,0(28)
	lwz 3,4(31)
.L311:
.LBE5123:
.LBE5122:
	.loc 10 313 0
	addi 0,3,-4
	.loc 10 309 0
	addi 9,3,4
.LBB5124:
.LBB5125:
.LBB5126:
.LBB5127:
.LBB5128:
.LBB5129:
	.loc 11 559 0
	subf 0,30,0
.LBE5129:
.LBE5128:
.LBE5127:
.LBE5126:
.LBE5125:
.LBE5124:
	.loc 10 309 0
	stw 9,4(31)
.LBB5145:
.LBB5142:
.LBB5139:
.LBB5136:
.LBB5133:
.LBB5130:
	.loc 11 560 0
	srawi. 0,0,2
.LBE5130:
.LBE5133:
.LBE5136:
.LBE5139:
.LBE5142:
.LBE5145:
	.loc 10 311 0
	lwz 31,0(5)
.LVL410:
.LBB5146:
.LBB5143:
.LBB5140:
.LBB5137:
.LBB5134:
.LBB5131:
	.loc 11 560 0
	bne- 0,.L326
.LVL411:
.L312:
.LBE5131:
.LBE5134:
.LBE5137:
.LBE5140:
.LBE5143:
.LBE5146:
.LBE5121:
.LBE5268:
	.loc 10 373 0
	lwz 0,44(1)
.LBB5269:
.LBB5148:
	.loc 10 317 0
	stw 31,0(30)
.LBE5148:
.LBE5269:
	.loc 10 373 0
	mtlr 0
	lwz 26,16(1)
	lwz 27,20(1)
	lwz 28,24(1)
.LVL412:
	lwz 29,28(1)
	lwz 30,32(1)
.LVL413:
	lwz 31,36(1)
.LVL414:
	addi 1,1,40
	.cfi_remember_state
.LCFI104:
	.cfi_def_cfa_offset 0
	.cfi_restore 31
	.cfi_restore 30
	.cfi_restore 29
	.cfi_restore 28
	.cfi_restore 27
	.cfi_restore 26
	blr
.LVL415:
.L326:
.LCFI105:
	.cfi_restore_state
.LBB5270:
.LBB5149:
.LBB5147:
.LBB5144:
.LBB5141:
.LBB5138:
.LBB5135:
.LBB5132:
	.loc 11 561 0
	slwi 5,0,2
.LVL416:
	mr 4,30
	subf 3,5,3
.LVL417:
	bl memmove
.LVL418:
	b .L312
.LVL419:
.L310:
.LBE5132:
.LBE5135:
.LBE5138:
.LBE5141:
.LBE5144:
.LBE5147:
.LBE5149:
.LBB5150:
.LBB5151:
.LBB5152:
.LBB5153:
.LBB5154:
	.loc 5 571 0
	lwz 27,0(3)
	subf 28,27,28
.LBE5154:
.LBE5153:
.LBB5155:
.LBB5156:
	.loc 11 215 0
	srawi. 28,28,2
	beq- 0,.L314
.LBE5156:
.LBE5155:
	.loc 5 1244 0
	slwi 0,28,1
.LVL420:
	.loc 5 1245 0
	cmplw 7,28,0
	ble- 7,.L327
.L315:
.LVL421:
.LBE5152:
.LBE5151:
.LBB5159:
.LBB5160:
	.loc 9 892 0
	subf 27,27,30
.LBE5160:
.LBE5159:
	.loc 10 326 0
	li 28,-4
.LBB5166:
.LBB5161:
	.loc 9 892 0
	srawi 27,27,2
.LVL422:
.L321:
.LBE5161:
.LBE5166:
.LBB5167:
.LBB5168:
.LBB5169:
.LBB5170:
	.loc 7 92 0
	mr 3,28
.LVL423:
	stw 5,8(1)
	bl _Znwj
.LVL424:
	lwz 5,8(1)
	mr 29,3
.L316:
.LVL425:
.LBE5170:
.LBE5169:
.LBE5168:
.LBE5167:
	.loc 10 335 0
	slwi 27,27,2
.LVL426:
	add 0,29,27
.LVL427:
.LBB5173:
.LBB5174:
	.loc 7 108 0
	cmpwi 7,0,0
	beq- 7,.L317
	lwz 0,0(5)
.LVL428:
	stwx 0,29,27
.L317:
.LVL429:
.LBE5174:
.LBE5173:
	.loc 10 343 0
	lwz 4,0(31)
.LVL430:
.LBB5175:
.LBB5176:
.LBB5177:
.LBB5178:
.LBB5179:
.LBB5180:
.LBB5181:
.LBB5182:
.LBB5183:
.LBB5184:
.LBB5185:
	.loc 11 365 0
	li 27,0
	.loc 11 364 0
	subf 0,4,30
.LVL431:
	.loc 11 365 0
	srawi. 0,0,2
.LVL432:
	bne- 0,.L328
.LVL433:
.L318:
.LBE5185:
.LBE5184:
.LBE5183:
.LBE5182:
.LBE5181:
.LBE5180:
.LBE5179:
.LBE5178:
.LBE5177:
.LBE5176:
.LBE5175:
.LBB5206:
.LBB5207:
.LBB5208:
.LBB5209:
.LBB5210:
.LBB5211:
.LBB5212:
.LBB5213:
.LBB5214:
.LBB5215:
.LBB5216:
	.loc 11 364 0
	lwz 0,4(31)
.LBE5216:
.LBE5215:
.LBE5214:
.LBE5213:
.LBE5212:
.LBE5211:
.LBE5210:
.LBE5209:
.LBE5208:
.LBE5207:
.LBE5206:
.LBB5247:
.LBB5204:
.LBB5202:
.LBB5200:
.LBB5198:
.LBB5196:
.LBB5194:
.LBB5192:
.LBB5190:
.LBB5188:
.LBB5186:
	.loc 11 367 0
	add 27,29,27
.LVL434:
.LBE5186:
.LBE5188:
.LBE5190:
.LBE5192:
.LBE5194:
.LBE5196:
.LBE5198:
.LBE5200:
.LBE5202:
.LBE5204:
.LBE5247:
	.loc 10 347 0
	addi 26,27,4
.LBB5248:
.LBB5244:
.LBB5241:
.LBB5238:
.LBB5235:
.LBB5232:
.LBB5229:
.LBB5226:
.LBB5223:
.LBB5220:
.LBB5217:
	.loc 11 365 0
	li 27,0
.LVL435:
	.loc 11 364 0
	subf 0,30,0
.LVL436:
	.loc 11 365 0
	srawi. 0,0,2
.LVL437:
	bne- 0,.L329
.LVL438:
.L319:
.LBE5217:
.LBE5220:
.LBE5223:
.LBE5226:
.LBE5229:
.LBE5232:
.LBE5235:
.LBE5238:
.LBE5241:
.LBE5244:
.LBE5248:
	.loc 10 366 0
	lwz 3,0(31)
.LBB5249:
.LBB5245:
.LBB5242:
.LBB5239:
.LBB5236:
.LBB5233:
.LBB5230:
.LBB5227:
.LBB5224:
.LBB5221:
.LBB5218:
	.loc 11 367 0
	add 27,26,27
.LVL439:
.LBE5218:
.LBE5221:
.LBE5224:
.LBE5227:
.LBE5230:
.LBE5233:
.LBE5236:
.LBE5239:
.LBE5242:
.LBE5245:
.LBE5249:
.LBB5250:
.LBB5251:
	.loc 5 155 0
	cmpwi 7,3,0
	beq- 7,.L320
.LVL440:
.LBB5252:
.LBB5253:
	.loc 7 98 0
	bl _ZdlPv
.LVL441:
.L320:
.LBE5253:
.LBE5252:
.LBE5251:
.LBE5250:
.LBE5150:
.LBE5270:
	.loc 10 373 0
	lwz 0,44(1)
.LBB5271:
.LBB5264:
	.loc 10 371 0
	add 28,29,28
	.loc 10 369 0
	stw 29,0(31)
.LBE5264:
.LBE5271:
	.loc 10 373 0
	mtlr 0
.LBB5272:
.LBB5265:
	.loc 10 370 0
	stw 27,4(31)
	.loc 10 371 0
	stw 28,8(31)
.LBE5265:
.LBE5272:
	.loc 10 373 0
	lwz 26,16(1)
.LVL442:
	lwz 27,20(1)
.LVL443:
	lwz 28,24(1)
	lwz 29,28(1)
.LVL444:
	lwz 30,32(1)
.LVL445:
	lwz 31,36(1)
.LVL446:
	addi 1,1,40
	.cfi_remember_state
	.cfi_restore 26
	.cfi_restore 27
	.cfi_restore 28
	.cfi_restore 29
	.cfi_restore 30
	.cfi_restore 31
.LCFI106:
	.cfi_def_cfa_offset 0
	blr
.LVL447:
.L314:
.LCFI107:
	.cfi_restore_state
.LBB5273:
.LBB5266:
.LBB5254:
.LBB5162:
	.loc 9 892 0
	subf 27,27,30
.LBE5162:
.LBE5254:
	.loc 10 326 0
	li 28,4
.LBB5255:
.LBB5163:
	.loc 9 892 0
	srawi 27,27,2
.LVL448:
	b .L321
.LVL449:
.L328:
.LBE5163:
.LBE5255:
.LBB5256:
.LBB5205:
.LBB5203:
.LBB5201:
.LBB5199:
.LBB5197:
.LBB5195:
.LBB5193:
.LBB5191:
.LBB5189:
.LBB5187:
	.loc 11 366 0
	slwi 27,0,2
	mr 3,29
	mr 5,27
.LVL450:
	bl memmove
.LVL451:
	b .L318
.LVL452:
.L329:
.LBE5187:
.LBE5189:
.LBE5191:
.LBE5193:
.LBE5195:
.LBE5197:
.LBE5199:
.LBE5201:
.LBE5203:
.LBE5205:
.LBE5256:
.LBB5257:
.LBB5246:
.LBB5243:
.LBB5240:
.LBB5237:
.LBB5234:
.LBB5231:
.LBB5228:
.LBB5225:
.LBB5222:
.LBB5219:
	slwi 27,0,2
	mr 3,26
	mr 4,30
	mr 5,27
	bl memmove
.LVL453:
	b .L319
.LVL454:
.L327:
.LBE5219:
.LBE5222:
.LBE5225:
.LBE5228:
.LBE5231:
.LBE5234:
.LBE5237:
.LBE5240:
.LBE5243:
.LBE5246:
.LBE5257:
.LBB5258:
.LBB5157:
	.loc 5 1245 0
	lis 9,0x3fff
	ori 9,9,65535
	cmplw 7,0,9
	bgt+ 7,.L315
.LBE5157:
.LBE5258:
.LBB5259:
.LBB5171:
	.loc 5 150 0
	cmpwi 7,0,0
.LBE5171:
.LBE5259:
.LBB5260:
.LBB5164:
	.loc 9 892 0
	subf 27,27,30
.LBE5164:
.LBE5260:
.LBB5261:
.LBB5158:
	.loc 5 1245 0
	slwi 28,28,3
.LVL455:
.LBE5158:
.LBE5261:
.LBB5262:
.LBB5165:
	.loc 9 892 0
	srawi 27,27,2
.LVL456:
.LBE5165:
.LBE5262:
.LBB5263:
.LBB5172:
	.loc 5 150 0
	li 29,0
	beq+ 7,.L316
	b .L321
.LBE5172:
.LBE5263:
.LBE5266:
.LBE5273:
	.cfi_endproc
.LFE1895:
	.size	_ZNSt6vectorIP8GuiImageSaIS1_EE13_M_insert_auxEN9__gnu_cxx17__normal_iteratorIPS1_S3_EERKS1_, .-_ZNSt6vectorIP8GuiImageSaIS1_EE13_M_insert_auxEN9__gnu_cxx17__normal_iteratorIPS1_S3_EERKS1_
	.section	.text._ZNSt6vectorIP7GuiTextSaIS1_EE13_M_insert_auxEN9__gnu_cxx17__normal_iteratorIPS1_S3_EERKS1_,"axG",@progbits,_ZNSt6vectorIP7GuiTextSaIS1_EE13_M_insert_auxEN9__gnu_cxx17__normal_iteratorIPS1_S3_EERKS1_,comdat
	.align 2
	.weak	_ZNSt6vectorIP7GuiTextSaIS1_EE13_M_insert_auxEN9__gnu_cxx17__normal_iteratorIPS1_S3_EERKS1_
	.type	_ZNSt6vectorIP7GuiTextSaIS1_EE13_M_insert_auxEN9__gnu_cxx17__normal_iteratorIPS1_S3_EERKS1_, @function
_ZNSt6vectorIP7GuiTextSaIS1_EE13_M_insert_auxEN9__gnu_cxx17__normal_iteratorIPS1_S3_EERKS1_:
.LFB1898:
	.loc 10 300 0
	.cfi_startproc
.LVL457:
	mflr 0
	stwu 1,-40(1)
.LCFI108:
	.cfi_def_cfa_offset 40
	.cfi_register 65, 0
	stw 28,24(1)
	stw 0,44(1)
	stw 30,32(1)
.LBB5274:
	.loc 10 304 0
	lwz 28,4(3)
	.cfi_offset 30, -8
	.cfi_offset 65, 4
	.cfi_offset 28, -16
	lwz 0,8(3)
.LBE5274:
	.loc 10 300 0
	stw 31,36(1)
	mr 31,3
	.cfi_offset 31, -4
.LBB5421:
	.loc 10 304 0
	cmpw 7,28,0
.LBE5421:
	.loc 10 300 0
	stw 26,16(1)
	stw 27,20(1)
	stw 29,28(1)
	.loc 10 300 0
	lwz 30,0(4)
.LVL458:
.LBB5422:
	.loc 10 304 0
	beq- 7,.L331
	.cfi_offset 29, -12
	.cfi_offset 27, -20
	.cfi_offset 26, -24
.LVL459:
.LBB5275:
.LBB5276:
.LBB5277:
	.loc 7 108 0
	cmpwi 7,28,0
	li 3,0
.LVL460:
	beq- 7,.L332
	lwz 0,-4(28)
	stw 0,0(28)
	lwz 3,4(31)
.L332:
.LBE5277:
.LBE5276:
	.loc 10 313 0
	addi 0,3,-4
	.loc 10 309 0
	addi 9,3,4
.LBB5278:
.LBB5279:
.LBB5280:
.LBB5281:
.LBB5282:
.LBB5283:
	.loc 11 559 0
	subf 0,30,0
.LBE5283:
.LBE5282:
.LBE5281:
.LBE5280:
.LBE5279:
.LBE5278:
	.loc 10 309 0
	stw 9,4(31)
.LBB5299:
.LBB5296:
.LBB5293:
.LBB5290:
.LBB5287:
.LBB5284:
	.loc 11 560 0
	srawi. 0,0,2
.LBE5284:
.LBE5287:
.LBE5290:
.LBE5293:
.LBE5296:
.LBE5299:
	.loc 10 311 0
	lwz 31,0(5)
.LVL461:
.LBB5300:
.LBB5297:
.LBB5294:
.LBB5291:
.LBB5288:
.LBB5285:
	.loc 11 560 0
	bne- 0,.L347
.LVL462:
.L333:
.LBE5285:
.LBE5288:
.LBE5291:
.LBE5294:
.LBE5297:
.LBE5300:
.LBE5275:
.LBE5422:
	.loc 10 373 0
	lwz 0,44(1)
.LBB5423:
.LBB5302:
	.loc 10 317 0
	stw 31,0(30)
.LBE5302:
.LBE5423:
	.loc 10 373 0
	mtlr 0
	lwz 26,16(1)
	lwz 27,20(1)
	lwz 28,24(1)
.LVL463:
	lwz 29,28(1)
	lwz 30,32(1)
.LVL464:
	lwz 31,36(1)
.LVL465:
	addi 1,1,40
	.cfi_remember_state
.LCFI109:
	.cfi_def_cfa_offset 0
	.cfi_restore 31
	.cfi_restore 30
	.cfi_restore 29
	.cfi_restore 28
	.cfi_restore 27
	.cfi_restore 26
	blr
.LVL466:
.L347:
.LCFI110:
	.cfi_restore_state
.LBB5424:
.LBB5303:
.LBB5301:
.LBB5298:
.LBB5295:
.LBB5292:
.LBB5289:
.LBB5286:
	.loc 11 561 0
	slwi 5,0,2
.LVL467:
	mr 4,30
	subf 3,5,3
.LVL468:
	bl memmove
.LVL469:
	b .L333
.LVL470:
.L331:
.LBE5286:
.LBE5289:
.LBE5292:
.LBE5295:
.LBE5298:
.LBE5301:
.LBE5303:
.LBB5304:
.LBB5305:
.LBB5306:
.LBB5307:
.LBB5308:
	.loc 5 571 0
	lwz 27,0(3)
	subf 28,27,28
.LBE5308:
.LBE5307:
.LBB5309:
.LBB5310:
	.loc 11 215 0
	srawi. 28,28,2
	beq- 0,.L335
.LBE5310:
.LBE5309:
	.loc 5 1244 0
	slwi 0,28,1
.LVL471:
	.loc 5 1245 0
	cmplw 7,28,0
	ble- 7,.L348
.L336:
.LVL472:
.LBE5306:
.LBE5305:
.LBB5313:
.LBB5314:
	.loc 9 892 0
	subf 27,27,30
.LBE5314:
.LBE5313:
	.loc 10 326 0
	li 28,-4
.LBB5320:
.LBB5315:
	.loc 9 892 0
	srawi 27,27,2
.LVL473:
.L342:
.LBE5315:
.LBE5320:
.LBB5321:
.LBB5322:
.LBB5323:
.LBB5324:
	.loc 7 92 0
	mr 3,28
.LVL474:
	stw 5,8(1)
	bl _Znwj
.LVL475:
	lwz 5,8(1)
	mr 29,3
.L337:
.LVL476:
.LBE5324:
.LBE5323:
.LBE5322:
.LBE5321:
	.loc 10 335 0
	slwi 27,27,2
.LVL477:
	add 0,29,27
.LVL478:
.LBB5327:
.LBB5328:
	.loc 7 108 0
	cmpwi 7,0,0
	beq- 7,.L338
	lwz 0,0(5)
.LVL479:
	stwx 0,29,27
.L338:
.LVL480:
.LBE5328:
.LBE5327:
	.loc 10 343 0
	lwz 4,0(31)
.LVL481:
.LBB5329:
.LBB5330:
.LBB5331:
.LBB5332:
.LBB5333:
.LBB5334:
.LBB5335:
.LBB5336:
.LBB5337:
.LBB5338:
.LBB5339:
	.loc 11 365 0
	li 27,0
	.loc 11 364 0
	subf 0,4,30
.LVL482:
	.loc 11 365 0
	srawi. 0,0,2
.LVL483:
	bne- 0,.L349
.LVL484:
.L339:
.LBE5339:
.LBE5338:
.LBE5337:
.LBE5336:
.LBE5335:
.LBE5334:
.LBE5333:
.LBE5332:
.LBE5331:
.LBE5330:
.LBE5329:
.LBB5360:
.LBB5361:
.LBB5362:
.LBB5363:
.LBB5364:
.LBB5365:
.LBB5366:
.LBB5367:
.LBB5368:
.LBB5369:
.LBB5370:
	.loc 11 364 0
	lwz 0,4(31)
.LBE5370:
.LBE5369:
.LBE5368:
.LBE5367:
.LBE5366:
.LBE5365:
.LBE5364:
.LBE5363:
.LBE5362:
.LBE5361:
.LBE5360:
.LBB5401:
.LBB5358:
.LBB5356:
.LBB5354:
.LBB5352:
.LBB5350:
.LBB5348:
.LBB5346:
.LBB5344:
.LBB5342:
.LBB5340:
	.loc 11 367 0
	add 27,29,27
.LVL485:
.LBE5340:
.LBE5342:
.LBE5344:
.LBE5346:
.LBE5348:
.LBE5350:
.LBE5352:
.LBE5354:
.LBE5356:
.LBE5358:
.LBE5401:
	.loc 10 347 0
	addi 26,27,4
.LBB5402:
.LBB5398:
.LBB5395:
.LBB5392:
.LBB5389:
.LBB5386:
.LBB5383:
.LBB5380:
.LBB5377:
.LBB5374:
.LBB5371:
	.loc 11 365 0
	li 27,0
.LVL486:
	.loc 11 364 0
	subf 0,30,0
.LVL487:
	.loc 11 365 0
	srawi. 0,0,2
.LVL488:
	bne- 0,.L350
.LVL489:
.L340:
.LBE5371:
.LBE5374:
.LBE5377:
.LBE5380:
.LBE5383:
.LBE5386:
.LBE5389:
.LBE5392:
.LBE5395:
.LBE5398:
.LBE5402:
	.loc 10 366 0
	lwz 3,0(31)
.LBB5403:
.LBB5399:
.LBB5396:
.LBB5393:
.LBB5390:
.LBB5387:
.LBB5384:
.LBB5381:
.LBB5378:
.LBB5375:
.LBB5372:
	.loc 11 367 0
	add 27,26,27
.LVL490:
.LBE5372:
.LBE5375:
.LBE5378:
.LBE5381:
.LBE5384:
.LBE5387:
.LBE5390:
.LBE5393:
.LBE5396:
.LBE5399:
.LBE5403:
.LBB5404:
.LBB5405:
	.loc 5 155 0
	cmpwi 7,3,0
	beq- 7,.L341
.LVL491:
.LBB5406:
.LBB5407:
	.loc 7 98 0
	bl _ZdlPv
.LVL492:
.L341:
.LBE5407:
.LBE5406:
.LBE5405:
.LBE5404:
.LBE5304:
.LBE5424:
	.loc 10 373 0
	lwz 0,44(1)
.LBB5425:
.LBB5418:
	.loc 10 371 0
	add 28,29,28
	.loc 10 369 0
	stw 29,0(31)
.LBE5418:
.LBE5425:
	.loc 10 373 0
	mtlr 0
.LBB5426:
.LBB5419:
	.loc 10 370 0
	stw 27,4(31)
	.loc 10 371 0
	stw 28,8(31)
.LBE5419:
.LBE5426:
	.loc 10 373 0
	lwz 26,16(1)
.LVL493:
	lwz 27,20(1)
.LVL494:
	lwz 28,24(1)
	lwz 29,28(1)
.LVL495:
	lwz 30,32(1)
.LVL496:
	lwz 31,36(1)
.LVL497:
	addi 1,1,40
	.cfi_remember_state
	.cfi_restore 26
	.cfi_restore 27
	.cfi_restore 28
	.cfi_restore 29
	.cfi_restore 30
	.cfi_restore 31
.LCFI111:
	.cfi_def_cfa_offset 0
	blr
.LVL498:
.L335:
.LCFI112:
	.cfi_restore_state
.LBB5427:
.LBB5420:
.LBB5408:
.LBB5316:
	.loc 9 892 0
	subf 27,27,30
.LBE5316:
.LBE5408:
	.loc 10 326 0
	li 28,4
.LBB5409:
.LBB5317:
	.loc 9 892 0
	srawi 27,27,2
.LVL499:
	b .L342
.LVL500:
.L349:
.LBE5317:
.LBE5409:
.LBB5410:
.LBB5359:
.LBB5357:
.LBB5355:
.LBB5353:
.LBB5351:
.LBB5349:
.LBB5347:
.LBB5345:
.LBB5343:
.LBB5341:
	.loc 11 366 0
	slwi 27,0,2
	mr 3,29
	mr 5,27
.LVL501:
	bl memmove
.LVL502:
	b .L339
.LVL503:
.L350:
.LBE5341:
.LBE5343:
.LBE5345:
.LBE5347:
.LBE5349:
.LBE5351:
.LBE5353:
.LBE5355:
.LBE5357:
.LBE5359:
.LBE5410:
.LBB5411:
.LBB5400:
.LBB5397:
.LBB5394:
.LBB5391:
.LBB5388:
.LBB5385:
.LBB5382:
.LBB5379:
.LBB5376:
.LBB5373:
	slwi 27,0,2
	mr 3,26
	mr 4,30
	mr 5,27
	bl memmove
.LVL504:
	b .L340
.LVL505:
.L348:
.LBE5373:
.LBE5376:
.LBE5379:
.LBE5382:
.LBE5385:
.LBE5388:
.LBE5391:
.LBE5394:
.LBE5397:
.LBE5400:
.LBE5411:
.LBB5412:
.LBB5311:
	.loc 5 1245 0
	lis 9,0x3fff
	ori 9,9,65535
	cmplw 7,0,9
	bgt+ 7,.L336
.LBE5311:
.LBE5412:
.LBB5413:
.LBB5325:
	.loc 5 150 0
	cmpwi 7,0,0
.LBE5325:
.LBE5413:
.LBB5414:
.LBB5318:
	.loc 9 892 0
	subf 27,27,30
.LBE5318:
.LBE5414:
.LBB5415:
.LBB5312:
	.loc 5 1245 0
	slwi 28,28,3
.LVL506:
.LBE5312:
.LBE5415:
.LBB5416:
.LBB5319:
	.loc 9 892 0
	srawi 27,27,2
.LVL507:
.LBE5319:
.LBE5416:
.LBB5417:
.LBB5326:
	.loc 5 150 0
	li 29,0
	beq+ 7,.L337
	b .L342
.LBE5326:
.LBE5417:
.LBE5420:
.LBE5427:
	.cfi_endproc
.LFE1898:
	.size	_ZNSt6vectorIP7GuiTextSaIS1_EE13_M_insert_auxEN9__gnu_cxx17__normal_iteratorIPS1_S3_EERKS1_, .-_ZNSt6vectorIP7GuiTextSaIS1_EE13_M_insert_auxEN9__gnu_cxx17__normal_iteratorIPS1_S3_EERKS1_
	.section	.text._ZNSt6vectorIP9GuiButtonSaIS1_EE13_M_insert_auxEN9__gnu_cxx17__normal_iteratorIPS1_S3_EERKS1_,"axG",@progbits,_ZNSt6vectorIP9GuiButtonSaIS1_EE13_M_insert_auxEN9__gnu_cxx17__normal_iteratorIPS1_S3_EERKS1_,comdat
	.align 2
	.weak	_ZNSt6vectorIP9GuiButtonSaIS1_EE13_M_insert_auxEN9__gnu_cxx17__normal_iteratorIPS1_S3_EERKS1_
	.type	_ZNSt6vectorIP9GuiButtonSaIS1_EE13_M_insert_auxEN9__gnu_cxx17__normal_iteratorIPS1_S3_EERKS1_, @function
_ZNSt6vectorIP9GuiButtonSaIS1_EE13_M_insert_auxEN9__gnu_cxx17__normal_iteratorIPS1_S3_EERKS1_:
.LFB1908:
	.loc 10 300 0
	.cfi_startproc
.LVL508:
	mflr 0
	stwu 1,-40(1)
.LCFI113:
	.cfi_def_cfa_offset 40
	.cfi_register 65, 0
	stw 28,24(1)
	stw 0,44(1)
	stw 30,32(1)
.LBB5428:
	.loc 10 304 0
	lwz 28,4(3)
	.cfi_offset 30, -8
	.cfi_offset 65, 4
	.cfi_offset 28, -16
	lwz 0,8(3)
.LBE5428:
	.loc 10 300 0
	stw 31,36(1)
	mr 31,3
	.cfi_offset 31, -4
.LBB5575:
	.loc 10 304 0
	cmpw 7,28,0
.LBE5575:
	.loc 10 300 0
	stw 26,16(1)
	stw 27,20(1)
	stw 29,28(1)
	.loc 10 300 0
	lwz 30,0(4)
.LVL509:
.LBB5576:
	.loc 10 304 0
	beq- 7,.L352
	.cfi_offset 29, -12
	.cfi_offset 27, -20
	.cfi_offset 26, -24
.LVL510:
.LBB5429:
.LBB5430:
.LBB5431:
	.loc 7 108 0
	cmpwi 7,28,0
	li 3,0
.LVL511:
	beq- 7,.L353
	lwz 0,-4(28)
	stw 0,0(28)
	lwz 3,4(31)
.L353:
.LBE5431:
.LBE5430:
	.loc 10 313 0
	addi 0,3,-4
	.loc 10 309 0
	addi 9,3,4
.LBB5432:
.LBB5433:
.LBB5434:
.LBB5435:
.LBB5436:
.LBB5437:
	.loc 11 559 0
	subf 0,30,0
.LBE5437:
.LBE5436:
.LBE5435:
.LBE5434:
.LBE5433:
.LBE5432:
	.loc 10 309 0
	stw 9,4(31)
.LBB5453:
.LBB5450:
.LBB5447:
.LBB5444:
.LBB5441:
.LBB5438:
	.loc 11 560 0
	srawi. 0,0,2
.LBE5438:
.LBE5441:
.LBE5444:
.LBE5447:
.LBE5450:
.LBE5453:
	.loc 10 311 0
	lwz 31,0(5)
.LVL512:
.LBB5454:
.LBB5451:
.LBB5448:
.LBB5445:
.LBB5442:
.LBB5439:
	.loc 11 560 0
	bne- 0,.L368
.LVL513:
.L354:
.LBE5439:
.LBE5442:
.LBE5445:
.LBE5448:
.LBE5451:
.LBE5454:
.LBE5429:
.LBE5576:
	.loc 10 373 0
	lwz 0,44(1)
.LBB5577:
.LBB5456:
	.loc 10 317 0
	stw 31,0(30)
.LBE5456:
.LBE5577:
	.loc 10 373 0
	mtlr 0
	lwz 26,16(1)
	lwz 27,20(1)
	lwz 28,24(1)
.LVL514:
	lwz 29,28(1)
	lwz 30,32(1)
.LVL515:
	lwz 31,36(1)
.LVL516:
	addi 1,1,40
	.cfi_remember_state
.LCFI114:
	.cfi_def_cfa_offset 0
	.cfi_restore 31
	.cfi_restore 30
	.cfi_restore 29
	.cfi_restore 28
	.cfi_restore 27
	.cfi_restore 26
	blr
.LVL517:
.L368:
.LCFI115:
	.cfi_restore_state
.LBB5578:
.LBB5457:
.LBB5455:
.LBB5452:
.LBB5449:
.LBB5446:
.LBB5443:
.LBB5440:
	.loc 11 561 0
	slwi 5,0,2
.LVL518:
	mr 4,30
	subf 3,5,3
.LVL519:
	bl memmove
.LVL520:
	b .L354
.LVL521:
.L352:
.LBE5440:
.LBE5443:
.LBE5446:
.LBE5449:
.LBE5452:
.LBE5455:
.LBE5457:
.LBB5458:
.LBB5459:
.LBB5460:
.LBB5461:
.LBB5462:
	.loc 5 571 0
	lwz 27,0(3)
	subf 28,27,28
.LBE5462:
.LBE5461:
.LBB5463:
.LBB5464:
	.loc 11 215 0
	srawi. 28,28,2
	beq- 0,.L356
.LBE5464:
.LBE5463:
	.loc 5 1244 0
	slwi 0,28,1
.LVL522:
	.loc 5 1245 0
	cmplw 7,28,0
	ble- 7,.L369
.L357:
.LVL523:
.LBE5460:
.LBE5459:
.LBB5467:
.LBB5468:
	.loc 9 892 0
	subf 27,27,30
.LBE5468:
.LBE5467:
	.loc 10 326 0
	li 28,-4
.LBB5474:
.LBB5469:
	.loc 9 892 0
	srawi 27,27,2
.LVL524:
.L363:
.LBE5469:
.LBE5474:
.LBB5475:
.LBB5476:
.LBB5477:
.LBB5478:
	.loc 7 92 0
	mr 3,28
.LVL525:
	stw 5,8(1)
	bl _Znwj
.LVL526:
	lwz 5,8(1)
	mr 29,3
.L358:
.LVL527:
.LBE5478:
.LBE5477:
.LBE5476:
.LBE5475:
	.loc 10 335 0
	slwi 27,27,2
.LVL528:
	add 0,29,27
.LVL529:
.LBB5481:
.LBB5482:
	.loc 7 108 0
	cmpwi 7,0,0
	beq- 7,.L359
	lwz 0,0(5)
.LVL530:
	stwx 0,29,27
.L359:
.LVL531:
.LBE5482:
.LBE5481:
	.loc 10 343 0
	lwz 4,0(31)
.LVL532:
.LBB5483:
.LBB5484:
.LBB5485:
.LBB5486:
.LBB5487:
.LBB5488:
.LBB5489:
.LBB5490:
.LBB5491:
.LBB5492:
.LBB5493:
	.loc 11 365 0
	li 27,0
	.loc 11 364 0
	subf 0,4,30
.LVL533:
	.loc 11 365 0
	srawi. 0,0,2
.LVL534:
	bne- 0,.L370
.LVL535:
.L360:
.LBE5493:
.LBE5492:
.LBE5491:
.LBE5490:
.LBE5489:
.LBE5488:
.LBE5487:
.LBE5486:
.LBE5485:
.LBE5484:
.LBE5483:
.LBB5514:
.LBB5515:
.LBB5516:
.LBB5517:
.LBB5518:
.LBB5519:
.LBB5520:
.LBB5521:
.LBB5522:
.LBB5523:
.LBB5524:
	.loc 11 364 0
	lwz 0,4(31)
.LBE5524:
.LBE5523:
.LBE5522:
.LBE5521:
.LBE5520:
.LBE5519:
.LBE5518:
.LBE5517:
.LBE5516:
.LBE5515:
.LBE5514:
.LBB5555:
.LBB5512:
.LBB5510:
.LBB5508:
.LBB5506:
.LBB5504:
.LBB5502:
.LBB5500:
.LBB5498:
.LBB5496:
.LBB5494:
	.loc 11 367 0
	add 27,29,27
.LVL536:
.LBE5494:
.LBE5496:
.LBE5498:
.LBE5500:
.LBE5502:
.LBE5504:
.LBE5506:
.LBE5508:
.LBE5510:
.LBE5512:
.LBE5555:
	.loc 10 347 0
	addi 26,27,4
.LBB5556:
.LBB5552:
.LBB5549:
.LBB5546:
.LBB5543:
.LBB5540:
.LBB5537:
.LBB5534:
.LBB5531:
.LBB5528:
.LBB5525:
	.loc 11 365 0
	li 27,0
.LVL537:
	.loc 11 364 0
	subf 0,30,0
.LVL538:
	.loc 11 365 0
	srawi. 0,0,2
.LVL539:
	bne- 0,.L371
.LVL540:
.L361:
.LBE5525:
.LBE5528:
.LBE5531:
.LBE5534:
.LBE5537:
.LBE5540:
.LBE5543:
.LBE5546:
.LBE5549:
.LBE5552:
.LBE5556:
	.loc 10 366 0
	lwz 3,0(31)
.LBB5557:
.LBB5553:
.LBB5550:
.LBB5547:
.LBB5544:
.LBB5541:
.LBB5538:
.LBB5535:
.LBB5532:
.LBB5529:
.LBB5526:
	.loc 11 367 0
	add 27,26,27
.LVL541:
.LBE5526:
.LBE5529:
.LBE5532:
.LBE5535:
.LBE5538:
.LBE5541:
.LBE5544:
.LBE5547:
.LBE5550:
.LBE5553:
.LBE5557:
.LBB5558:
.LBB5559:
	.loc 5 155 0
	cmpwi 7,3,0
	beq- 7,.L362
.LVL542:
.LBB5560:
.LBB5561:
	.loc 7 98 0
	bl _ZdlPv
.LVL543:
.L362:
.LBE5561:
.LBE5560:
.LBE5559:
.LBE5558:
.LBE5458:
.LBE5578:
	.loc 10 373 0
	lwz 0,44(1)
.LBB5579:
.LBB5572:
	.loc 10 371 0
	add 28,29,28
	.loc 10 369 0
	stw 29,0(31)
.LBE5572:
.LBE5579:
	.loc 10 373 0
	mtlr 0
.LBB5580:
.LBB5573:
	.loc 10 370 0
	stw 27,4(31)
	.loc 10 371 0
	stw 28,8(31)
.LBE5573:
.LBE5580:
	.loc 10 373 0
	lwz 26,16(1)
.LVL544:
	lwz 27,20(1)
.LVL545:
	lwz 28,24(1)
	lwz 29,28(1)
.LVL546:
	lwz 30,32(1)
.LVL547:
	lwz 31,36(1)
.LVL548:
	addi 1,1,40
	.cfi_remember_state
	.cfi_restore 26
	.cfi_restore 27
	.cfi_restore 28
	.cfi_restore 29
	.cfi_restore 30
	.cfi_restore 31
.LCFI116:
	.cfi_def_cfa_offset 0
	blr
.LVL549:
.L356:
.LCFI117:
	.cfi_restore_state
.LBB5581:
.LBB5574:
.LBB5562:
.LBB5470:
	.loc 9 892 0
	subf 27,27,30
.LBE5470:
.LBE5562:
	.loc 10 326 0
	li 28,4
.LBB5563:
.LBB5471:
	.loc 9 892 0
	srawi 27,27,2
.LVL550:
	b .L363
.LVL551:
.L370:
.LBE5471:
.LBE5563:
.LBB5564:
.LBB5513:
.LBB5511:
.LBB5509:
.LBB5507:
.LBB5505:
.LBB5503:
.LBB5501:
.LBB5499:
.LBB5497:
.LBB5495:
	.loc 11 366 0
	slwi 27,0,2
	mr 3,29
	mr 5,27
.LVL552:
	bl memmove
.LVL553:
	b .L360
.LVL554:
.L371:
.LBE5495:
.LBE5497:
.LBE5499:
.LBE5501:
.LBE5503:
.LBE5505:
.LBE5507:
.LBE5509:
.LBE5511:
.LBE5513:
.LBE5564:
.LBB5565:
.LBB5554:
.LBB5551:
.LBB5548:
.LBB5545:
.LBB5542:
.LBB5539:
.LBB5536:
.LBB5533:
.LBB5530:
.LBB5527:
	slwi 27,0,2
	mr 3,26
	mr 4,30
	mr 5,27
	bl memmove
.LVL555:
	b .L361
.LVL556:
.L369:
.LBE5527:
.LBE5530:
.LBE5533:
.LBE5536:
.LBE5539:
.LBE5542:
.LBE5545:
.LBE5548:
.LBE5551:
.LBE5554:
.LBE5565:
.LBB5566:
.LBB5465:
	.loc 5 1245 0
	lis 9,0x3fff
	ori 9,9,65535
	cmplw 7,0,9
	bgt+ 7,.L357
.LBE5465:
.LBE5566:
.LBB5567:
.LBB5479:
	.loc 5 150 0
	cmpwi 7,0,0
.LBE5479:
.LBE5567:
.LBB5568:
.LBB5472:
	.loc 9 892 0
	subf 27,27,30
.LBE5472:
.LBE5568:
.LBB5569:
.LBB5466:
	.loc 5 1245 0
	slwi 28,28,3
.LVL557:
.LBE5466:
.LBE5569:
.LBB5570:
.LBB5473:
	.loc 9 892 0
	srawi 27,27,2
.LVL558:
.LBE5473:
.LBE5570:
.LBB5571:
.LBB5480:
	.loc 5 150 0
	li 29,0
	beq+ 7,.L358
	b .L363
.LBE5480:
.LBE5571:
.LBE5574:
.LBE5581:
	.cfi_endproc
.LFE1908:
	.size	_ZNSt6vectorIP9GuiButtonSaIS1_EE13_M_insert_auxEN9__gnu_cxx17__normal_iteratorIPS1_S3_EERKS1_, .-_ZNSt6vectorIP9GuiButtonSaIS1_EE13_M_insert_auxEN9__gnu_cxx17__normal_iteratorIPS1_S3_EERKS1_
	.section	.text._ZNSt6vectorIPcSaIS0_EE13_M_insert_auxEN9__gnu_cxx17__normal_iteratorIPS0_S2_EERKS0_,"axG",@progbits,_ZNSt6vectorIPcSaIS0_EE13_M_insert_auxEN9__gnu_cxx17__normal_iteratorIPS0_S2_EERKS0_,comdat
	.align 2
	.weak	_ZNSt6vectorIPcSaIS0_EE13_M_insert_auxEN9__gnu_cxx17__normal_iteratorIPS0_S2_EERKS0_
	.type	_ZNSt6vectorIPcSaIS0_EE13_M_insert_auxEN9__gnu_cxx17__normal_iteratorIPS0_S2_EERKS0_, @function
_ZNSt6vectorIPcSaIS0_EE13_M_insert_auxEN9__gnu_cxx17__normal_iteratorIPS0_S2_EERKS0_:
.LFB1914:
	.loc 10 300 0
	.cfi_startproc
.LVL559:
	mflr 0
	stwu 1,-40(1)
.LCFI118:
	.cfi_def_cfa_offset 40
	.cfi_register 65, 0
	stw 27,20(1)
	stw 0,44(1)
	stw 30,32(1)
.LBB5644:
	.loc 10 304 0
	lwz 27,4(3)
	.cfi_offset 30, -8
	.cfi_offset 65, 4
	.cfi_offset 27, -20
	lwz 0,8(3)
.LBE5644:
	.loc 10 300 0
	stw 31,36(1)
	mr 31,3
	.cfi_offset 31, -4
.LBB5769:
	.loc 10 304 0
	cmpw 7,27,0
.LBE5769:
	.loc 10 300 0
	stw 26,16(1)
	stw 28,24(1)
	stw 29,28(1)
	.loc 10 300 0
	lwz 30,0(4)
.LVL560:
.LBB5770:
	.loc 10 304 0
	beq- 7,.L373
	.cfi_offset 29, -12
	.cfi_offset 28, -16
	.cfi_offset 26, -24
.LVL561:
.LBB5645:
.LBB5646:
.LBB5647:
	.loc 7 108 0
	cmpwi 7,27,0
	li 3,0
.LVL562:
	beq- 7,.L374
	lwz 0,-4(27)
	stw 0,0(27)
	lwz 3,4(31)
.L374:
.LBE5647:
.LBE5646:
	.loc 10 313 0
	addi 0,3,-4
	.loc 10 309 0
	addi 9,3,4
.LBB5648:
.LBB5649:
.LBB5650:
.LBB5651:
.LBB5652:
.LBB5653:
	.loc 11 559 0
	subf 0,30,0
.LBE5653:
.LBE5652:
.LBE5651:
.LBE5650:
.LBE5649:
.LBE5648:
	.loc 10 309 0
	stw 9,4(31)
.LBB5669:
.LBB5666:
.LBB5663:
.LBB5660:
.LBB5657:
.LBB5654:
	.loc 11 560 0
	srawi. 0,0,2
.LBE5654:
.LBE5657:
.LBE5660:
.LBE5663:
.LBE5666:
.LBE5669:
	.loc 10 311 0
	lwz 31,0(5)
.LVL563:
.LBB5670:
.LBB5667:
.LBB5664:
.LBB5661:
.LBB5658:
.LBB5655:
	.loc 11 560 0
	bne- 0,.L389
.LVL564:
.L375:
.LBE5655:
.LBE5658:
.LBE5661:
.LBE5664:
.LBE5667:
.LBE5670:
.LBE5645:
.LBE5770:
	.loc 10 373 0
	lwz 0,44(1)
.LBB5771:
.LBB5672:
	.loc 10 317 0
	stw 31,0(30)
.LBE5672:
.LBE5771:
	.loc 10 373 0
	mtlr 0
	lwz 26,16(1)
	lwz 27,20(1)
.LVL565:
	lwz 28,24(1)
	lwz 29,28(1)
	lwz 30,32(1)
.LVL566:
	lwz 31,36(1)
.LVL567:
	addi 1,1,40
	.cfi_remember_state
.LCFI119:
	.cfi_def_cfa_offset 0
	.cfi_restore 31
	.cfi_restore 30
	.cfi_restore 29
	.cfi_restore 28
	.cfi_restore 27
	.cfi_restore 26
	blr
.LVL568:
.L389:
.LCFI120:
	.cfi_restore_state
.LBB5772:
.LBB5673:
.LBB5671:
.LBB5668:
.LBB5665:
.LBB5662:
.LBB5659:
.LBB5656:
	.loc 11 561 0
	slwi 5,0,2
.LVL569:
	mr 4,30
	subf 3,5,3
.LVL570:
	bl memmove
.LVL571:
	b .L375
.LVL572:
.L373:
.LBE5656:
.LBE5659:
.LBE5662:
.LBE5665:
.LBE5668:
.LBE5671:
.LBE5673:
.LBB5674:
.LBB5675:
.LBB5676:
.LBB5677:
.LBB5678:
	.loc 5 571 0
	lwz 28,0(3)
	subf 27,28,27
.LBE5678:
.LBE5677:
.LBB5679:
.LBB5680:
	.loc 11 215 0
	srawi. 27,27,2
	beq- 0,.L377
.LBE5680:
.LBE5679:
	.loc 5 1244 0
	slwi 0,27,1
.LVL573:
	.loc 5 1245 0
	cmplw 7,27,0
	ble- 7,.L390
.L378:
.LVL574:
.LBE5676:
.LBE5675:
.LBB5683:
.LBB5684:
	.loc 9 892 0
	subf 28,28,30
.LBE5684:
.LBE5683:
	.loc 10 326 0
	li 27,-4
.LBB5690:
.LBB5685:
	.loc 9 892 0
	srawi 28,28,2
.LVL575:
.L384:
.LBE5685:
.LBE5690:
.LBB5691:
.LBB5692:
.LBB5693:
.LBB5694:
	.loc 7 92 0
	mr 3,27
.LVL576:
	stw 5,8(1)
	bl _Znwj
.LVL577:
	lwz 5,8(1)
	mr 29,3
.L379:
.LVL578:
.LBE5694:
.LBE5693:
.LBE5692:
.LBE5691:
	.loc 10 335 0
	slwi 28,28,2
.LVL579:
	add 0,29,28
.LVL580:
.LBB5697:
.LBB5698:
	.loc 7 108 0
	cmpwi 7,0,0
	beq- 7,.L380
	lwz 0,0(5)
.LVL581:
	stwx 0,29,28
.L380:
.LVL582:
.LBE5698:
.LBE5697:
	.loc 10 343 0
	lwz 4,0(31)
.LVL583:
.LBB5699:
.LBB5700:
.LBB5701:
.LBB5702:
.LBB5703:
.LBB5704:
.LBB5705:
.LBB5706:
.LBB5707:
.LBB5708:
.LBB5709:
	.loc 11 365 0
	li 28,0
	.loc 11 364 0
	subf 0,4,30
.LVL584:
	.loc 11 365 0
	srawi. 0,0,2
.LVL585:
	beq+ 0,.L381
	.loc 11 366 0
	slwi 28,0,2
	mr 3,29
	mr 5,28
.LVL586:
	bl memmove
.LVL587:
.L381:
.LBE5709:
.LBE5708:
.LBE5707:
.LBE5706:
.LBE5705:
.LBE5704:
.LBE5703:
.LBE5702:
.LBE5701:
.LBE5700:
.LBE5699:
.LBB5720:
.LBB5721:
.LBB5722:
.LBB5723:
.LBB5724:
.LBB5725:
.LBB5726:
.LBB5727:
.LBB5728:
.LBB5729:
.LBB5730:
	.loc 11 364 0
	lwz 0,4(31)
.LBE5730:
.LBE5729:
.LBE5728:
.LBE5727:
.LBE5726:
.LBE5725:
.LBE5724:
.LBE5723:
.LBE5722:
.LBE5721:
.LBE5720:
.LBB5751:
.LBB5719:
.LBB5718:
.LBB5717:
.LBB5716:
.LBB5715:
.LBB5714:
.LBB5713:
.LBB5712:
.LBB5711:
.LBB5710:
	.loc 11 367 0
	add 28,29,28
.LVL588:
.LBE5710:
.LBE5711:
.LBE5712:
.LBE5713:
.LBE5714:
.LBE5715:
.LBE5716:
.LBE5717:
.LBE5718:
.LBE5719:
.LBE5751:
	.loc 10 347 0
	addi 26,28,4
.LBB5752:
.LBB5749:
.LBB5747:
.LBB5745:
.LBB5743:
.LBB5741:
.LBB5739:
.LBB5737:
.LBB5735:
.LBB5733:
.LBB5731:
	.loc 11 365 0
	li 28,0
	.loc 11 364 0
	subf 0,30,0
.LVL589:
	.loc 11 365 0
	srawi. 0,0,2
.LVL590:
	beq+ 0,.L382
	.loc 11 366 0
	slwi 28,0,2
	mr 3,26
	mr 4,30
	mr 5,28
	bl memmove
.LVL591:
.L382:
.LBE5731:
.LBE5733:
.LBE5735:
.LBE5737:
.LBE5739:
.LBE5741:
.LBE5743:
.LBE5745:
.LBE5747:
.LBE5749:
.LBE5752:
	.loc 10 366 0
	lwz 3,0(31)
.LBB5753:
.LBB5750:
.LBB5748:
.LBB5746:
.LBB5744:
.LBB5742:
.LBB5740:
.LBB5738:
.LBB5736:
.LBB5734:
.LBB5732:
	.loc 11 367 0
	add 28,26,28
.LVL592:
.LBE5732:
.LBE5734:
.LBE5736:
.LBE5738:
.LBE5740:
.LBE5742:
.LBE5744:
.LBE5746:
.LBE5748:
.LBE5750:
.LBE5753:
.LBB5754:
.LBB5755:
	.loc 5 155 0
	cmpwi 7,3,0
	beq- 7,.L383
.LVL593:
.LBB5756:
.LBB5757:
	.loc 7 98 0
	bl _ZdlPv
.LVL594:
.L383:
.LBE5757:
.LBE5756:
.LBE5755:
.LBE5754:
.LBE5674:
.LBE5772:
	.loc 10 373 0
	lwz 0,44(1)
.LBB5773:
.LBB5766:
	.loc 10 371 0
	add 27,29,27
	.loc 10 369 0
	stw 29,0(31)
.LBE5766:
.LBE5773:
	.loc 10 373 0
	mtlr 0
.LBB5774:
.LBB5767:
	.loc 10 370 0
	stw 28,4(31)
	.loc 10 371 0
	stw 27,8(31)
.LBE5767:
.LBE5774:
	.loc 10 373 0
	lwz 26,16(1)
.LVL595:
	lwz 27,20(1)
	lwz 28,24(1)
	lwz 29,28(1)
.LVL596:
	lwz 30,32(1)
.LVL597:
	lwz 31,36(1)
.LVL598:
	addi 1,1,40
	.cfi_remember_state
	.cfi_restore 26
	.cfi_restore 27
	.cfi_restore 28
	.cfi_restore 29
	.cfi_restore 30
	.cfi_restore 31
.LCFI121:
	.cfi_def_cfa_offset 0
	blr
.LVL599:
.L377:
.LCFI122:
	.cfi_restore_state
.LBB5775:
.LBB5768:
.LBB5758:
.LBB5686:
	.loc 9 892 0
	subf 28,28,30
.LBE5686:
.LBE5758:
	.loc 10 326 0
	li 27,4
.LBB5759:
.LBB5687:
	.loc 9 892 0
	srawi 28,28,2
.LVL600:
	b .L384
.LVL601:
.L390:
.LBE5687:
.LBE5759:
.LBB5760:
.LBB5681:
	.loc 5 1245 0
	lis 9,0x3fff
	ori 9,9,65535
	cmplw 7,0,9
	bgt+ 7,.L378
.LBE5681:
.LBE5760:
.LBB5761:
.LBB5695:
	.loc 5 150 0
	cmpwi 7,0,0
.LBE5695:
.LBE5761:
.LBB5762:
.LBB5688:
	.loc 9 892 0
	subf 28,28,30
.LBE5688:
.LBE5762:
.LBB5763:
.LBB5682:
	.loc 5 1245 0
	slwi 27,27,3
.LVL602:
.LBE5682:
.LBE5763:
.LBB5764:
.LBB5689:
	.loc 9 892 0
	srawi 28,28,2
.LVL603:
.LBE5689:
.LBE5764:
.LBB5765:
.LBB5696:
	.loc 5 150 0
	li 29,0
	beq+ 7,.L379
	b .L384
.LBE5696:
.LBE5765:
.LBE5768:
.LBE5775:
	.cfi_endproc
.LFE1914:
	.size	_ZNSt6vectorIPcSaIS0_EE13_M_insert_auxEN9__gnu_cxx17__normal_iteratorIPS0_S2_EERKS0_, .-_ZNSt6vectorIPcSaIS0_EE13_M_insert_auxEN9__gnu_cxx17__normal_iteratorIPS0_S2_EERKS0_
	.section	".text"
	.align 2
	.globl _ZN8PlayList9AddEntrieEPKc
	.type	_ZN8PlayList9AddEntrieEPKc, @function
_ZN8PlayList9AddEntrieEPKc:
.LFB1605:
	.loc 4 290 0
	.cfi_startproc
.LVL604:
	stwu 1,-40(1)
.LCFI123:
	.cfi_def_cfa_offset 40
	mflr 0
	stw 30,32(1)
.LBB5776:
	.loc 4 291 0
	mr. 30,4
	.cfi_offset 30, -8
	.cfi_register 65, 0
.LBE5776:
	.loc 4 290 0
	stw 31,36(1)
	mr 31,3
	.cfi_offset 31, -4
	stw 0,44(1)
.LBB5783:
	.loc 4 291 0
	beq- 0,.L391
	.cfi_offset 65, 4
	.loc 4 294 0
	mr 3,30
.LVL605:
	bl strlen
.LVL606:
	addi 3,3,1
	bl _Znaj
.LVL607:
	.loc 4 296 0
	cmpwi 7,3,0
	.loc 4 294 0
	stw 3,8(1)
	.loc 4 296 0
	beq- 7,.L391
	.loc 4 299 0
	mr 4,30
	bl strcpy
.LVL608:
.LBB5777:
.LBB5778:
	.loc 5 828 0
	lwz 9,232(31)
	lwz 0,236(31)
	cmpw 7,9,0
	beq- 7,.L393
.LVL609:
.LBB5779:
.LBB5780:
	.loc 7 108 0
	cmpwi 7,9,0
	li 11,0
	beq- 7,.L394
	lwz 0,8(1)
	stw 0,0(9)
	lwz 11,232(31)
.L394:
.LBE5780:
.LBE5779:
	.loc 5 831 0
	addi 11,11,4
	stw 11,232(31)
.LVL610:
.L395:
.LBE5778:
.LBE5777:
	.loc 4 302 0
	li 0,1
	stb 0,225(31)
.LVL611:
.L391:
.LBE5783:
	.loc 4 303 0
	lwz 0,44(1)
	lwz 30,32(1)
.LVL612:
	mtlr 0
	lwz 31,36(1)
.LVL613:
	addi 1,1,40
	.cfi_remember_state
.LCFI124:
	.cfi_def_cfa_offset 0
	.cfi_restore 31
	.cfi_restore 30
	blr
.LVL614:
.L393:
.LCFI125:
	.cfi_restore_state
.LBB5784:
.LBB5782:
.LBB5781:
	.loc 5 834 0
	mr 4,1
	addi 3,31,228
	stwu 9,24(4)
	addi 5,1,8
	bl _ZNSt6vectorIPcSaIS0_EE13_M_insert_auxEN9__gnu_cxx17__normal_iteratorIPS0_S2_EERKS0_
	b .L395
.LBE5781:
.LBE5782:
.LBE5784:
	.cfi_endproc
.LFE1605:
	.size	_ZN8PlayList9AddEntrieEPKc, .-_ZN8PlayList9AddEntrieEPKc
	.align 2
	.globl _ZN8PlayList9ParsePathEPKc
	.type	_ZN8PlayList9ParsePathEPKc, @function
_ZN8PlayList9ParsePathEPKc:
.LFB1610:
	.loc 4 365 0
	.cfi_startproc
	.cfi_personality 0,__gxx_personality_v0
	.cfi_lsda 0,.LLSDA1610
.LVL615:
	stwu 1,-1080(1)
.LCFI126:
	.cfi_def_cfa_offset 1080
	mflr 0
	stw 29,1068(1)
	mr 29,3
	.cfi_offset 29, -12
	.cfi_register 65, 0
.LBB5824:
	.loc 4 367 0
	addi 3,1,28
.LVL616:
.LBE5824:
	.loc 4 365 0
	stw 0,1084(1)
	stw 30,1072(1)
	stw 31,1076(1)
.LBB5863:
	.loc 4 367 0
	.cfi_offset 31, -4
	.cfi_offset 30, -8
	.cfi_offset 65, 4
	bl strcpy
.LVL617:
	.loc 4 369 0
	addi 3,1,28
	li 4,47
	bl strrchr
.LVL618:
	.loc 4 370 0
	cmpwi 0,3,0
	beq- 0,.L405
.LVL619:
	.loc 4 373 0
	li 0,0
	.loc 4 378 0
	addi 4,1,28
	.loc 4 373 0
	stb 0,1(3)
	.loc 4 378 0
	addi 5,1,9
	addi 3,1,12
.LVL620:
.LEHB17:
	bl _ZNSsC1EPKcRKSaIcE
.LEHE17:
	lis 9,Settings+2580@ha
	lwz 5,Settings+2580@l(9)
	addi 3,1,16
	addi 4,1,12
	li 6,9
.LEHB18:
	bl _ZN7DirListC1ESsPKcj
.LEHE18:
.LVL621:
.LBB5825:
.LBB5826:
.LBB5827:
.LBB5828:
.LBB5829:
	.file 13 "d:\\devkitpro\\devkitppc\\bin\\../lib/gcc/powerpc-eabi/4.6.3/../../../../powerpc-eabi/include/c++/4.6.3/bits/basic_string.h"
	.loc 13 288 0
	lwz 9,12(1)
.LBE5829:
.LBE5828:
.LBE5827:
.LBB5830:
.LBB5831:
	.loc 13 235 0
	lis 11,_ZNSs4_Rep20_S_empty_rep_storageE@ha
	la 0,_ZNSs4_Rep20_S_empty_rep_storageE@l(11)
.LBE5831:
.LBE5830:
	.loc 13 534 0
	addi 3,9,-12
.LVL622:
.LBB5840:
.LBB5838:
	.loc 13 235 0
	cmpw 7,3,0
	bne- 7,.L410
.LVL623:
.L399:
.LBE5838:
.LBE5840:
.LBE5826:
.LBE5825:
.LBB5843:
.LBB5844:
	.loc 4 503 0 discriminator 1
	lwz 9,16(1)
.LBB5845:
.LBB5846:
	.loc 5 571 0 discriminator 1
	lis 0,0xaaaa
	lwz 11,20(1)
	ori 0,0,43691
	subf 11,9,11
	srawi 11,11,3
.LBE5846:
.LBE5845:
.LBE5844:
	.loc 4 380 0 discriminator 1
	mullw. 0,11,0
	ble- 0,.L400
	.loc 4 380 0 is_stmt 0
	li 30,0
	li 31,0
	cmpw 7,30,0
.LVL624:
.L402:
.LBB5851:
.LBB5852:
.LBB5853:
.LBB5854:
	.file 14 "d:/Projects/SaveGameManager/savegame-manager-gx/trunk/source/SoundOperations/../FileOperations/DirList.h"
	.loc 14 90 0 is_stmt 1
	bge- 7,.L406
.LVL625:
.LBE5854:
.LBE5853:
	.loc 14 60 0
	lwzx 4,9,30
.LVL626:
.L401:
.LBE5852:
.LBE5851:
	.loc 4 381 0
	mr 3,29
.LEHB19:
	bl _ZN8PlayList9AddEntrieEPKc
.LEHE19:
.LBB5858:
	.loc 4 503 0
	lwz 9,16(1)
.LBB5849:
.LBB5847:
	.loc 5 571 0
	lis 0,0xaaaa
	lwz 11,20(1)
	ori 0,0,43691
.LBE5847:
.LBE5849:
.LBE5858:
	.loc 4 380 0
	addi 31,31,1
.LVL627:
.LBB5859:
.LBB5850:
.LBB5848:
	.loc 5 571 0
	addi 30,30,24
	subf 11,9,11
	srawi 11,11,3
	mullw 0,11,0
.LBE5848:
.LBE5850:
.LBE5859:
	.loc 4 380 0
	cmpw 7,31,0
	blt+ 7,.L402
.LVL628:
.L400:
.LBE5843:
	.loc 4 383 0
	addi 3,1,16
.LVL629:
.LEHB20:
	bl _ZN7DirListD1Ev
.LEHE20:
.LVL630:
.LBE5863:
	.loc 4 384 0
	lwz 0,1084(1)
	lwz 29,1068(1)
.LVL631:
.LBB5864:
	.loc 4 383 0
	li 3,1
.LBE5864:
	.loc 4 384 0
	mtlr 0
	lwz 30,1072(1)
	lwz 31,1076(1)
	addi 1,1,1080
	.cfi_remember_state
.LCFI127:
	.cfi_def_cfa_offset 0
	.cfi_restore 31
	.cfi_restore 30
	.cfi_restore 29
	blr
.LVL632:
.L406:
.LCFI128:
	.cfi_restore_state
.LBB5865:
.LBB5861:
.LBB5860:
.LBB5857:
.LBB5856:
.LBB5855:
	.loc 14 60 0
	li 4,0
	b .L401
.LVL633:
.L405:
.LBE5855:
.LBE5856:
.LBE5857:
.LBE5860:
.LBE5861:
.LBE5865:
	.loc 4 384 0
	lwz 0,1084(1)
.LBB5866:
	.loc 4 376 0
	li 3,0
.LVL634:
.LBE5866:
	.loc 4 384 0
	lwz 29,1068(1)
.LVL635:
	mtlr 0
	lwz 30,1072(1)
	lwz 31,1076(1)
	addi 1,1,1080
	.cfi_remember_state
	.cfi_restore 29
	.cfi_restore 30
	.cfi_restore 31
.LCFI129:
	.cfi_def_cfa_offset 0
	blr
.LVL636:
.L408:
.LCFI130:
	.cfi_restore_state
	mr 31,3
.LVL637:
.LBB5867:
	.loc 4 383 0
	addi 3,1,16
.LVL638:
	bl _ZN7DirListD1Ev
.LVL639:
	mr 3,31
.LEHB21:
	bl _Unwind_Resume
.LVL640:
.L410:
.LBB5862:
.LBB5842:
.LBB5841:
.LBB5839:
.LBB5832:
.LBB5833:
.LBB5834:
	.file 15 "d:\\devkitpro\\devkitppc\\bin\\../lib/gcc/powerpc-eabi/4.6.3/../../../../powerpc-eabi/include/c++/4.6.3/ext/atomicity.h"
	.loc 15 66 0
	lwz 11,-4(9)
.LVL641:
.LBE5834:
.LBE5833:
.LBE5832:
	.loc 13 240 0
	cmpwi 7,11,0
.LBB5837:
.LBB5836:
.LBB5835:
	.loc 15 67 0
	addi 11,11,-1
	stw 11,-4(9)
.LBE5835:
.LBE5836:
.LBE5837:
	.loc 13 240 0
	bgt+ 7,.L399
	.loc 13 244 0
	addi 4,1,8
	bl _ZNSs4_Rep10_M_destroyERKSaIcE
.LVL642:
	b .L399
.LVL643:
.L407:
	mr 31,3
.LBE5839:
.LBE5841:
.LBE5842:
.LBE5862:
	.loc 4 378 0
	addi 3,1,12
	bl _ZNSsD1Ev
	mr 3,31
	bl _Unwind_Resume
.LEHE21:
.LBE5867:
	.cfi_endproc
.LFE1610:
	.section	.gcc_except_table
.LLSDA1610:
	.byte	0xff
	.byte	0xff
	.byte	0x1
	.uleb128 .LLSDACSE1610-.LLSDACSB1610
.LLSDACSB1610:
	.uleb128 .LEHB17-.LFB1610
	.uleb128 .LEHE17-.LEHB17
	.uleb128 0
	.uleb128 0
	.uleb128 .LEHB18-.LFB1610
	.uleb128 .LEHE18-.LEHB18
	.uleb128 .L407-.LFB1610
	.uleb128 0
	.uleb128 .LEHB19-.LFB1610
	.uleb128 .LEHE19-.LEHB19
	.uleb128 .L408-.LFB1610
	.uleb128 0
	.uleb128 .LEHB20-.LFB1610
	.uleb128 .LEHE20-.LEHB20
	.uleb128 0
	.uleb128 0
	.uleb128 .LEHB21-.LFB1610
	.uleb128 .LEHE21-.LEHB21
	.uleb128 0
	.uleb128 0
.LLSDACSE1610:
	.section	".text"
	.size	_ZN8PlayList9ParsePathEPKc, .-_ZN8PlayList9ParsePathEPKc
	.align 2
	.globl _ZN8PlayList8LoadListEv
	.type	_ZN8PlayList8LoadListEv, @function
_ZN8PlayList8LoadListEv:
.LFB1600:
	.loc 4 90 0
	.cfi_startproc
	.cfi_personality 0,__gxx_personality_v0
	.cfi_lsda 0,.LLSDA1600
.LVL644:
	stwu 1,-2080(1)
.LCFI131:
	.cfi_def_cfa_offset 2080
	mflr 0
.LBB5974:
	.loc 4 93 0
	lis 5,.LC4@ha
	lis 6,Settings+14@ha
.LBE5974:
	.loc 4 90 0
	stw 30,2072(1)
.LBB6037:
	.loc 4 93 0
	addi 30,1,1040
	.cfi_offset 30, -8
	.cfi_register 65, 0
.LBE6037:
	.loc 4 90 0
	stw 31,2076(1)
.LBB6038:
	.loc 4 93 0
	li 4,1024
.LBE6038:
	.loc 4 90 0
	mr 31,3
	.cfi_offset 31, -4
.LBB6039:
	.loc 4 93 0
	la 5,.LC4@l(5)
	mr 3,30
.LVL645:
	la 6,Settings+14@l(6)
.LBE6039:
	.loc 4 90 0
	stw 0,2084(1)
.LEHB22:
.LBB6040:
	.loc 4 93 0
	.cfi_offset 65, 4
	crxor 6,6,6
	bl snprintf
	.loc 4 95 0
	b .L412
.L413:
	.loc 4 96 0
	li 0,0
	stb 0,1032(11)
.L412:
	.loc 4 95 0 discriminator 1
	mr 3,30
	bl strlen
	addi 0,1,8
	addi 11,3,-1
	mr 9,3
	add 11,0,11
	lbz 0,1032(11)
	cmpwi 7,0,47
	beq+ 7,.L413
	.loc 4 98 0
	lis 10,.LC5@ha
	.loc 4 100 0
	lis 4,.LC11@ha
	.loc 4 98 0
	la 11,.LC5@l(10)
	lwz 12,.LC5@l(10)
	lwz 5,4(11)
	.loc 4 100 0
	la 4,.LC11@l(4)
	.loc 4 98 0
	lwz 6,8(11)
	lwz 7,12(11)
	lwz 8,16(11)
	lwz 10,20(11)
	lbz 0,24(11)
	add 11,30,3
	stwx 12,30,9
	.loc 4 100 0
	mr 3,30
	.loc 4 98 0
	stw 5,4(11)
	stw 6,8(11)
	stw 7,12(11)
	stw 8,16(11)
	stw 10,20(11)
	stb 0,24(11)
	.loc 4 100 0
	bl fopen
.LVL646:
	.loc 4 101 0
	mr. 30,3
	beq- 0,.L429
.LVL647:
.L435:
	.loc 4 104 0 discriminator 1
	addi 3,1,16
	li 4,1024
	mr 5,30
	bl fgets
	cmpwi 7,3,0
	beq- 7,.L436
.LBB5975:
	.loc 4 106 0
	lbz 0,16(1)
	cmpwi 7,0,35
	beq- 7,.L435
	.loc 4 108 0
	addi 3,1,12
	addi 4,1,16
	addi 5,1,10
	bl _ZNSsC1EPKcRKSaIcE
.LEHE22:
.LVL648:
.LBB5976:
.LBB5977:
.LBB5978:
.LBB5979:
.LBB5980:
	.loc 13 288 0
	lwz 9,12(1)
.LBE5980:
.LBE5979:
.LBE5978:
.LBE5977:
.LBE5976:
	.loc 4 110 0
	lwz 0,-12(9)
	cmplwi 7,0,3
	ble- 7,.L437
.L433:
.LVL649:
.LBB5981:
.LBB5982:
	.loc 13 1961 0
	addi 3,1,12
.LVL650:
	li 4,10
	li 5,0
.LEHB23:
	bl _ZNKSs4findEcj
.LVL651:
.LBE5982:
.LBE5981:
	.loc 4 118 0
	cmpwi 7,3,-1
.LBB5984:
.LBB5983:
	.loc 13 1961 0
	mr 4,3
.LVL652:
.LBE5983:
.LBE5984:
	.loc 4 118 0
	beq- 7,.L434
.LVL653:
.LBB5985:
.LBB5986:
.LBB5987:
.LBB5988:
.LBB5989:
.LBB5990:
	.loc 13 711 0
	lwz 9,12(1)
	lwz 5,-12(9)
.LBE5990:
.LBE5989:
	.loc 13 318 0
	cmplw 7,3,5
	bgt- 7,.L438
.LVL654:
.LBE5988:
.LBE5987:
	.loc 13 1349 0
	subf. 5,3,5
	beq- 0,.L423
	li 5,1
.L423:
	addi 3,1,12
.LVL655:
	li 6,0
	bl _ZNSs9_M_mutateEjjj
.LVL656:
	b .L433
.LVL657:
.L434:
.LBE5986:
.LBE5985:
.LBB5994:
.LBB5995:
	.loc 13 1961 0
	addi 3,1,12
.LVL658:
	li 4,13
	li 5,0
	bl _ZNKSs4findEcj
.LVL659:
.LBE5995:
.LBE5994:
	.loc 4 127 0
	cmpwi 7,3,-1
.LBB5997:
.LBB5996:
	.loc 13 1961 0
	mr 4,3
.LVL660:
.LBE5996:
.LBE5997:
	.loc 4 127 0
	beq- 7,.L424
.LVL661:
.LBB5998:
.LBB5999:
.LBB6000:
.LBB6001:
.LBB6002:
.LBB6003:
	.loc 13 711 0
	lwz 9,12(1)
	lwz 5,-12(9)
.LBE6003:
.LBE6002:
	.loc 13 318 0
	cmplw 7,3,5
	bgt- 7,.L439
.LVL662:
.LBE6001:
.LBE6000:
	.loc 13 1349 0
	subf. 5,3,5
	beq- 0,.L426
	li 5,1
.L426:
	addi 3,1,12
.LVL663:
	li 6,0
	bl _ZNSs9_M_mutateEjjj
.LVL664:
	b .L434
.LVL665:
.L424:
.LBE5999:
.LBE5998:
	.loc 4 132 0
	lwz 4,12(1)
	mr 3,31
.LVL666:
	bl _ZN8PlayList9AddEntrieEPKc
.LEHE23:
.LVL667:
.LBB6007:
.LBB6008:
.LBB6009:
.LBB6010:
.LBB6011:
	.loc 13 288 0
	lwz 9,12(1)
.LBE6011:
.LBE6010:
.LBE6009:
.LBB6012:
.LBB6013:
	.loc 13 235 0
	lis 11,_ZNSs4_Rep20_S_empty_rep_storageE@ha
	la 0,_ZNSs4_Rep20_S_empty_rep_storageE@l(11)
.LBE6013:
.LBE6012:
	.loc 13 534 0
	addi 3,9,-12
.LVL668:
.LBB6021:
.LBB6020:
	.loc 13 235 0
	cmpw 7,3,0
	beq+ 7,.L435
.LVL669:
.LBB6014:
.LBB6015:
.LBB6016:
	.loc 15 66 0
	lwz 11,-4(9)
.LVL670:
.LBE6016:
.LBE6015:
.LBE6014:
	.loc 13 240 0
	cmpwi 7,11,0
.LBB6019:
.LBB6018:
.LBB6017:
	.loc 15 67 0
	addi 11,11,-1
	stw 11,-4(9)
.LBE6017:
.LBE6018:
.LBE6019:
	.loc 13 240 0
	bgt+ 7,.L435
	.loc 13 244 0
	addi 4,1,8
.LVL671:
	bl _ZNSs4_Rep10_M_destroyERKSaIcE
.LVL672:
	b .L435
.LVL673:
.L437:
.LBE6020:
.LBE6021:
.LBE6008:
.LBE6007:
.LBB6022:
.LBB6023:
.LBB6024:
.LBB6025:
	.loc 13 235 0 discriminator 1
	lis 11,_ZNSs4_Rep20_S_empty_rep_storageE@ha
.LBE6025:
.LBE6024:
	.loc 13 534 0 discriminator 1
	addi 3,9,-12
.LVL674:
.LBB6033:
.LBB6032:
	.loc 13 235 0 discriminator 1
	la 0,_ZNSs4_Rep20_S_empty_rep_storageE@l(11)
	cmpw 7,3,0
	beq+ 7,.L435
.LVL675:
.LBB6026:
.LBB6027:
.LBB6028:
	.loc 15 66 0
	lwz 11,-4(9)
.LVL676:
.LBE6028:
.LBE6027:
.LBE6026:
	.loc 13 240 0
	cmpwi 7,11,0
.LBB6031:
.LBB6030:
.LBB6029:
	.loc 15 67 0
	addi 11,11,-1
	stw 11,-4(9)
.LBE6029:
.LBE6030:
.LBE6031:
	.loc 13 240 0
	bgt+ 7,.L435
	.loc 13 244 0
	addi 4,1,9
	bl _ZNSs4_Rep10_M_destroyERKSaIcE
.LVL677:
	b .L435
.LVL678:
.L436:
.LBE6032:
.LBE6033:
.LBE6023:
.LBE6022:
.LBE5975:
	.loc 4 134 0
	mr 3,30
.LEHB24:
	bl fclose
.LEHE24:
.LBE6040:
	.loc 4 137 0
	lwz 0,2084(1)
	lwz 30,2072(1)
.LVL679:
.LBB6041:
	.loc 4 136 0
	li 3,1
.LBE6041:
	.loc 4 137 0
	mtlr 0
	lwz 31,2076(1)
.LVL680:
	addi 1,1,2080
	.cfi_remember_state
.LCFI132:
	.cfi_def_cfa_offset 0
	.cfi_restore 31
	.cfi_restore 30
	blr
.LVL681:
.L429:
.LCFI133:
	.cfi_restore_state
	lwz 0,2084(1)
.LBB6042:
	.loc 4 102 0
	li 3,0
.LVL682:
.LBE6042:
	.loc 4 137 0
	lwz 30,2072(1)
.LVL683:
	mtlr 0
	lwz 31,2076(1)
.LVL684:
	addi 1,1,2080
	.cfi_remember_state
	.cfi_restore 30
	.cfi_restore 31
.LCFI134:
	.cfi_def_cfa_offset 0
	blr
.LVL685:
.L438:
.LCFI135:
	.cfi_restore_state
.LBB6043:
.LBB6036:
.LBB6034:
.LBB5993:
.LBB5992:
.LBB5991:
	.loc 13 319 0
	lis 3,.LC12@ha
.LVL686:
	la 3,.LC12@l(3)
.LEHB25:
	bl _ZSt20__throw_out_of_rangePKc
.LEHE25:
.LVL687:
.L430:
	mr 31,3
.LVL688:
.LBE5991:
.LBE5992:
.LBE5993:
.LBE6034:
	.loc 4 133 0
	addi 3,1,12
.LVL689:
	bl _ZNSsD1Ev
.LVL690:
	mr 3,31
.LEHB26:
	bl _Unwind_Resume
.LEHE26:
.LVL691:
.L439:
.LBB6035:
.LBB6006:
.LBB6005:
.LBB6004:
	.loc 13 319 0
	lis 3,.LC12@ha
.LVL692:
	la 3,.LC12@l(3)
.LEHB27:
	bl _ZSt20__throw_out_of_rangePKc
.LEHE27:
.LVL693:
.LVL694:
.LVL695:
.LBE6004:
.LBE6005:
.LBE6006:
.LBE6035:
.LBE6036:
.LBE6043:
	.cfi_endproc
.LFE1600:
	.section	.gcc_except_table
.LLSDA1600:
	.byte	0xff
	.byte	0xff
	.byte	0x1
	.uleb128 .LLSDACSE1600-.LLSDACSB1600
.LLSDACSB1600:
	.uleb128 .LEHB22-.LFB1600
	.uleb128 .LEHE22-.LEHB22
	.uleb128 0
	.uleb128 0
	.uleb128 .LEHB23-.LFB1600
	.uleb128 .LEHE23-.LEHB23
	.uleb128 .L430-.LFB1600
	.uleb128 0
	.uleb128 .LEHB24-.LFB1600
	.uleb128 .LEHE24-.LEHB24
	.uleb128 0
	.uleb128 0
	.uleb128 .LEHB25-.LFB1600
	.uleb128 .LEHE25-.LEHB25
	.uleb128 .L430-.LFB1600
	.uleb128 0
	.uleb128 .LEHB26-.LFB1600
	.uleb128 .LEHE26-.LEHB26
	.uleb128 0
	.uleb128 0
	.uleb128 .LEHB27-.LFB1600
	.uleb128 .LEHE27-.LEHB27
	.uleb128 .L430-.LFB1600
	.uleb128 0
.LLSDACSE1600:
	.section	".text"
	.size	_ZN8PlayList8LoadListEv, .-_ZN8PlayList8LoadListEv
	.section	.text._ZNSt8_Rb_treeIPN7sigslot12_signal_baseINS0_15single_threadedEEES4_St9_IdentityIS4_ESt4lessIS4_ESaIS4_EE8_M_eraseEPSt13_Rb_tree_nodeIS4_E,"axG",@progbits,_ZNSt8_Rb_treeIPN7sigslot12_signal_baseINS0_15single_threadedEEES4_St9_IdentityIS4_ESt4lessIS4_ESaIS4_EE8_M_eraseEPSt13_Rb_tree_nodeIS4_E,comdat
	.align 2
	.weak	_ZNSt8_Rb_treeIPN7sigslot12_signal_baseINS0_15single_threadedEEES4_St9_IdentityIS4_ESt4lessIS4_ESaIS4_EE8_M_eraseEPSt13_Rb_tree_nodeIS4_E
	.type	_ZNSt8_Rb_treeIPN7sigslot12_signal_baseINS0_15single_threadedEEES4_St9_IdentityIS4_ESt4lessIS4_ESaIS4_EE8_M_eraseEPSt13_Rb_tree_nodeIS4_E, @function
_ZNSt8_Rb_treeIPN7sigslot12_signal_baseINS0_15single_threadedEEES4_St9_IdentityIS4_ESt4lessIS4_ESaIS4_EE8_M_eraseEPSt13_Rb_tree_nodeIS4_E:
.LFB1970:
	.file 16 "d:\\devkitpro\\devkitppc\\bin\\../lib/gcc/powerpc-eabi/4.6.3/../../../../powerpc-eabi/include/c++/4.6.3/bits/stl_tree.h"
	.loc 16 1068 0
	.cfi_startproc
.LVL696:
	stwu 1,-56(1)
.LCFI136:
	.cfi_def_cfa_offset 56
	mflr 0
	stw 22,16(1)
.LBB6160:
	.loc 16 1072 0
	mr. 22,4
	.cfi_offset 22, -40
	.cfi_register 65, 0
.LBE6160:
	.loc 16 1068 0
	stw 30,48(1)
	mr 30,3
	.cfi_offset 30, -8
	stw 0,60(1)
	stw 21,12(1)
	stw 23,20(1)
	stw 24,24(1)
	stw 25,28(1)
	stw 26,32(1)
	stw 27,36(1)
	stw 28,40(1)
	stw 29,44(1)
	stw 31,52(1)
.LBB6245:
	.loc 16 1072 0
	beq- 0,.L440
	.cfi_offset 31, -4
	.cfi_offset 29, -12
	.cfi_offset 28, -16
	.cfi_offset 27, -20
	.cfi_offset 26, -24
	.cfi_offset 25, -28
	.cfi_offset 24, -32
	.cfi_offset 23, -36
	.cfi_offset 21, -44
	.cfi_offset 65, 4
.LVL697:
.L486:
	.loc 4 503 0
	lwz 27,12(22)
.LVL698:
.LBB6161:
.LBB6162:
.LBB6163:
	.loc 16 1072 0
	cmpwi 7,27,0
	beq- 7,.L442
.LVL699:
.L487:
.LBE6163:
	.loc 4 503 0
	lwz 26,12(27)
.LVL700:
.LBB6239:
.LBB6164:
.LBB6165:
.LBB6166:
	.loc 16 1072 0
	cmpwi 7,26,0
	beq- 7,.L443
.LVL701:
.L488:
.LBE6166:
	.loc 4 503 0
	lwz 25,12(26)
.LVL702:
.LBB6232:
.LBB6167:
.LBB6168:
.LBB6169:
	.loc 16 1072 0
	cmpwi 7,25,0
	beq- 7,.L444
.LVL703:
.L489:
.LBE6169:
	.loc 4 503 0
	lwz 24,12(25)
.LVL704:
.LBB6225:
.LBB6170:
.LBB6171:
.LBB6172:
	.loc 16 1072 0
	cmpwi 7,24,0
	beq- 7,.L445
.LVL705:
.L490:
.LBE6172:
	.loc 4 503 0
	lwz 23,12(24)
.LVL706:
.LBB6218:
.LBB6173:
.LBB6174:
.LBB6175:
	.loc 16 1072 0
	cmpwi 7,23,0
	beq- 7,.L446
.LVL707:
.L491:
.LBE6175:
	.loc 4 503 0
	lwz 28,12(23)
.LVL708:
.LBB6211:
.LBB6176:
.LBB6177:
.LBB6178:
	.loc 16 1072 0
	cmpwi 7,28,0
	beq- 7,.L447
.LVL709:
.L492:
.LBE6178:
	.loc 4 503 0
	lwz 29,12(28)
.LVL710:
.LBB6204:
.LBB6179:
.LBB6180:
.LBB6181:
	.loc 16 1072 0
	cmpwi 7,29,0
	beq- 7,.L448
.LVL711:
.L493:
.LBE6181:
	.loc 4 503 0
	lwz 31,12(29)
.LVL712:
.LBB6197:
.LBB6182:
.LBB6183:
.LBB6184:
	.loc 16 1072 0
	cmpwi 7,31,0
	beq- 7,.L449
.LVL713:
.L494:
.LBB6185:
	.loc 16 1074 0
	lwz 4,12(31)
	mr 3,30
	bl _ZNSt8_Rb_treeIPN7sigslot12_signal_baseINS0_15single_threadedEEES4_St9_IdentityIS4_ESt4lessIS4_ESaIS4_EE8_M_eraseEPSt13_Rb_tree_nodeIS4_E
.LBE6185:
.LBE6184:
	.loc 4 503 0
	lwz 21,8(31)
.LVL714:
.LBB6191:
.LBB6190:
.LBB6186:
.LBB6187:
.LBB6188:
.LBB6189:
	.loc 7 98 0
	mr 3,31
	bl _ZdlPv
.LVL715:
.LBE6189:
.LBE6188:
.LBE6187:
.LBE6186:
.LBE6190:
	.loc 16 1072 0
	cmpwi 7,21,0
	.loc 16 1077 0
	mr 31,21
.LVL716:
	.loc 16 1072 0
	bne+ 7,.L494
.LVL717:
.L449:
.LBE6191:
.LBE6183:
.LBE6182:
.LBE6197:
	.loc 4 503 0
	lwz 31,8(29)
.LVL718:
.LBB6198:
.LBB6196:
.LBB6192:
.LBB6193:
.LBB6194:
.LBB6195:
	.loc 7 98 0
	mr 3,29
	bl _ZdlPv
.LVL719:
.LBE6195:
.LBE6194:
.LBE6193:
.LBE6192:
.LBE6196:
	.loc 16 1072 0
	cmpwi 7,31,0
	beq- 7,.L448
	.loc 16 1077 0
	mr 29,31
.LVL720:
	b .L493
.LVL721:
.L448:
.LBE6198:
.LBE6180:
.LBE6179:
.LBE6204:
	.loc 4 503 0
	lwz 31,8(28)
.LVL722:
.LBB6205:
.LBB6203:
.LBB6199:
.LBB6200:
.LBB6201:
.LBB6202:
	.loc 7 98 0
	mr 3,28
	bl _ZdlPv
.LVL723:
.LBE6202:
.LBE6201:
.LBE6200:
.LBE6199:
.LBE6203:
	.loc 16 1072 0
	cmpwi 7,31,0
	beq- 7,.L447
	.loc 16 1077 0
	mr 28,31
.LVL724:
	b .L492
.LVL725:
.L447:
.LBE6205:
.LBE6177:
.LBE6176:
.LBE6211:
	.loc 4 503 0
	lwz 31,8(23)
.LVL726:
.LBB6212:
.LBB6210:
.LBB6206:
.LBB6207:
.LBB6208:
.LBB6209:
	.loc 7 98 0
	mr 3,23
	bl _ZdlPv
.LVL727:
.LBE6209:
.LBE6208:
.LBE6207:
.LBE6206:
.LBE6210:
	.loc 16 1072 0
	cmpwi 7,31,0
	beq- 7,.L446
	.loc 16 1077 0
	mr 23,31
.LVL728:
	b .L491
.LVL729:
.L446:
.LBE6212:
.LBE6174:
.LBE6173:
.LBE6218:
	.loc 4 503 0
	lwz 31,8(24)
.LVL730:
.LBB6219:
.LBB6217:
.LBB6213:
.LBB6214:
.LBB6215:
.LBB6216:
	.loc 7 98 0
	mr 3,24
	bl _ZdlPv
.LVL731:
.LBE6216:
.LBE6215:
.LBE6214:
.LBE6213:
.LBE6217:
	.loc 16 1072 0
	cmpwi 7,31,0
	beq- 7,.L445
	.loc 16 1077 0
	mr 24,31
.LVL732:
	b .L490
.LVL733:
.L445:
.LBE6219:
.LBE6171:
.LBE6170:
.LBE6225:
	.loc 4 503 0
	lwz 31,8(25)
.LVL734:
.LBB6226:
.LBB6224:
.LBB6220:
.LBB6221:
.LBB6222:
.LBB6223:
	.loc 7 98 0
	mr 3,25
	bl _ZdlPv
.LVL735:
.LBE6223:
.LBE6222:
.LBE6221:
.LBE6220:
.LBE6224:
	.loc 16 1072 0
	cmpwi 7,31,0
	beq- 7,.L444
	.loc 16 1077 0
	mr 25,31
.LVL736:
	b .L489
.LVL737:
.L444:
.LBE6226:
.LBE6168:
.LBE6167:
.LBE6232:
	.loc 4 503 0
	lwz 31,8(26)
.LVL738:
.LBB6233:
.LBB6231:
.LBB6227:
.LBB6228:
.LBB6229:
.LBB6230:
	.loc 7 98 0
	mr 3,26
	bl _ZdlPv
.LVL739:
.LBE6230:
.LBE6229:
.LBE6228:
.LBE6227:
.LBE6231:
	.loc 16 1072 0
	cmpwi 7,31,0
	beq- 7,.L443
	.loc 16 1077 0
	mr 26,31
.LVL740:
	b .L488
.LVL741:
.L443:
.LBE6233:
.LBE6165:
.LBE6164:
.LBE6239:
	.loc 4 503 0
	lwz 31,8(27)
.LVL742:
.LBB6240:
.LBB6238:
.LBB6234:
.LBB6235:
.LBB6236:
.LBB6237:
	.loc 7 98 0
	mr 3,27
	bl _ZdlPv
.LVL743:
.LBE6237:
.LBE6236:
.LBE6235:
.LBE6234:
.LBE6238:
	.loc 16 1072 0
	cmpwi 7,31,0
	beq- 7,.L442
	.loc 16 1077 0
	mr 27,31
.LVL744:
	b .L487
.LVL745:
.L442:
	.loc 4 503 0
	lwz 31,8(22)
.LVL746:
.LBE6240:
.LBE6162:
.LBB6241:
.LBB6242:
.LBB6243:
.LBB6244:
	.loc 7 98 0
	mr 3,22
	bl _ZdlPv
.LVL747:
.LBE6244:
.LBE6243:
.LBE6242:
.LBE6241:
.LBE6161:
	.loc 16 1072 0
	cmpwi 7,31,0
	beq- 7,.L440
	.loc 16 1077 0
	mr 22,31
.LVL748:
	b .L486
.LVL749:
.L440:
.LBE6245:
	.loc 16 1079 0
	lwz 0,60(1)
	lwz 21,12(1)
	mtlr 0
	lwz 22,16(1)
	lwz 23,20(1)
	lwz 24,24(1)
	lwz 25,28(1)
	lwz 26,32(1)
	lwz 27,36(1)
	lwz 28,40(1)
	lwz 29,44(1)
	lwz 30,48(1)
.LVL750:
	lwz 31,52(1)
	addi 1,1,56
.LCFI137:
	.cfi_def_cfa_offset 0
	.cfi_restore 31
	.cfi_restore 30
	.cfi_restore 29
	.cfi_restore 28
	.cfi_restore 27
	.cfi_restore 26
	.cfi_restore 25
	.cfi_restore 24
	.cfi_restore 23
	.cfi_restore 22
	.cfi_restore 21
	blr
	.cfi_endproc
.LFE1970:
	.size	_ZNSt8_Rb_treeIPN7sigslot12_signal_baseINS0_15single_threadedEEES4_St9_IdentityIS4_ESt4lessIS4_ESaIS4_EE8_M_eraseEPSt13_Rb_tree_nodeIS4_E, .-_ZNSt8_Rb_treeIPN7sigslot12_signal_baseINS0_15single_threadedEEES4_St9_IdentityIS4_ESt4lessIS4_ESaIS4_EE8_M_eraseEPSt13_Rb_tree_nodeIS4_E
	.section	.text._ZN7sigslot9has_slotsINS_15single_threadedEED2Ev,"axG",@progbits,_ZN7sigslot9has_slotsINS_15single_threadedEED5Ev,comdat
	.align 2
	.weak	_ZN7sigslot9has_slotsINS_15single_threadedEED2Ev
	.type	_ZN7sigslot9has_slotsINS_15single_threadedEED2Ev, @function
_ZN7sigslot9has_slotsINS_15single_threadedEED2Ev:
.LFB1657:
	.loc 1 513 0
	.cfi_startproc
	.cfi_personality 0,__gxx_personality_v0
	.cfi_lsda 0,.LLSDA1657
.LVL751:
	mflr 0
	stwu 1,-32(1)
.LCFI138:
	.cfi_def_cfa_offset 32
	.cfi_register 65, 0
.LBB6392:
	.loc 1 516 0
	lis 9,_ZTVN7sigslot9has_slotsINS_15single_threadedEEE+8@ha
.LBE6392:
	.loc 1 513 0
	stw 28,16(1)
	addi 28,3,4
	.cfi_offset 28, -16
	stw 0,36(1)
.LBB6468:
	.loc 1 516 0
	la 0,_ZTVN7sigslot9has_slotsINS_15single_threadedEEE+8@l(9)
	.cfi_offset 65, 4
.LBE6468:
	.loc 1 513 0
	stw 29,20(1)
	mr 29,3
	.cfi_offset 29, -12
	stw 26,8(1)
	stw 27,12(1)
	stw 30,24(1)
	stw 31,28(1)
.LBB6469:
	.loc 1 516 0
	stw 0,0(3)
.LVL752:
.LEHB28:
.LBB6393:
.LBB6394:
.LBB6395:
.LBB6396:
	.loc 1 338 0
	.cfi_offset 31, -4
	.cfi_offset 30, -8
	.cfi_offset 27, -20
	.cfi_offset 26, -24
	bl _ZN7sigslot15single_threaded4lockEv
.LEHE28:
.LVL753:
.LBE6396:
.LBE6395:
.LBB6397:
	.loc 4 503 0
	lwz 31,16(29)
.LVL754:
.LBE6397:
.LBB6398:
.LBB6399:
.LBB6400:
	.loc 16 671 0
	addi 30,28,4
.LVL755:
.LBE6400:
.LBE6399:
.LBE6398:
	.loc 1 524 0
	cmpw 7,31,30
	beq- 7,.L496
.LVL756:
.L523:
	.loc 1 526 0
	lwz 3,16(31)
	mr 4,29
	lwz 9,0(3)
	lwz 0,16(9)
	mtctr 0
.LEHB29:
	bctrl
.LEHE29:
.LVL757:
.LBB6401:
.LBB6402:
	.loc 16 269 0
	mr 3,31
	bl _ZSt18_Rb_tree_incrementPKSt18_Rb_tree_node_base
.LBE6402:
.LBE6401:
	.loc 1 524 0
	cmpw 7,30,3
.LBB6404:
.LBB6403:
	.loc 16 269 0
	mr 31,3
.LVL758:
.LBE6403:
.LBE6404:
	.loc 1 524 0
	bne+ 7,.L523
	lwz 31,16(29)
.LVL759:
.L496:
.LBB6405:
.LBB6406:
.LBB6407:
.LBB6408:
.LBB6409:
.LBB6410:
.LBB6411:
	.loc 16 665 0
	addi 26,28,4
.LBE6411:
.LBE6410:
	.loc 16 1500 0
	cmpw 7,30,26
	beq- 7,.L498
.LVL760:
	.loc 16 1503 0
	cmpw 7,30,31
	bne+ 7,.L525
	b .L499
.LVL761:
.L520:
	.loc 16 277 0
	mr 31,27
.LVL762:
.L525:
.LBB6412:
.LBB6413:
	mr 3,31
	bl _ZSt18_Rb_tree_incrementPKSt18_Rb_tree_node_base
.LBE6413:
.LBE6412:
.LBB6415:
.LBB6416:
.LBB6417:
	.loc 16 1489 0
	mr 4,26
.LBE6417:
.LBE6416:
.LBE6415:
.LBB6426:
.LBB6414:
	.loc 16 277 0
	mr 27,3
.LVL763:
.LBE6414:
.LBE6426:
.LBB6427:
.LBB6424:
.LBB6422:
	.loc 16 1489 0
	mr 3,31
.LVL764:
	bl _ZSt28_Rb_tree_rebalance_for_erasePSt18_Rb_tree_node_baseRS_
.LBB6418:
.LBB6419:
.LBB6420:
.LBB6421:
	.loc 7 98 0
	bl _ZdlPv
.LBE6421:
.LBE6420:
.LBE6419:
.LBE6418:
.LBE6422:
.LBE6424:
.LBE6427:
	.loc 16 1503 0
	cmpw 7,30,27
.LBB6428:
.LBB6425:
.LBB6423:
	.loc 16 1491 0
	lwz 9,20(28)
	addi 0,9,-1
	stw 0,20(28)
.LBE6423:
.LBE6425:
.LBE6428:
	.loc 16 1503 0
	bne+ 7,.L520
.LVL765:
.L499:
.LBE6409:
.LBE6408:
.LBE6407:
.LBE6406:
.LBE6405:
.LBB6437:
.LBB6438:
.LBB6439:
	.loc 1 343 0
	lwz 9,0(29)
	mr 3,29
	lwz 0,12(9)
	mtctr 0
.LEHB30:
	bctrl
.LEHE30:
.LVL766:
.LBE6439:
.LBE6438:
.LBE6437:
.LBE6394:
.LBE6393:
.LBB6446:
.LBB6447:
.LBB6448:
.LBB6449:
.LBB6450:
	.loc 16 639 0
	lwz 4,12(29)
	mr 3,28
	bl _ZNSt8_Rb_treeIPN7sigslot12_signal_baseINS0_15single_threadedEEES4_St9_IdentityIS4_ESt4lessIS4_ESaIS4_EE8_M_eraseEPSt13_Rb_tree_nodeIS4_E
.LVL767:
.LBE6450:
.LBE6449:
.LBE6448:
.LBE6447:
.LBE6446:
.LBB6451:
.LBB6452:
.LBB6453:
	.loc 1 105 0
	lis 9,_ZTVN7sigslot15single_threadedE+8@ha
	la 0,_ZTVN7sigslot15single_threadedE+8@l(9)
.LBE6453:
.LBE6452:
.LBE6451:
.LBE6469:
	.loc 1 516 0
	lwz 26,8(1)
.LBB6470:
.LBB6456:
.LBB6455:
.LBB6454:
	.loc 1 105 0
	stw 0,0(29)
.LBE6454:
.LBE6455:
.LBE6456:
.LBE6470:
	.loc 1 516 0
	lwz 0,36(1)
	lwz 27,12(1)
	mtlr 0
	lwz 28,16(1)
.LVL768:
	lwz 29,20(1)
.LVL769:
	lwz 30,24(1)
.LVL770:
	lwz 31,28(1)
	addi 1,1,32
	.cfi_remember_state
.LCFI139:
	.cfi_def_cfa_offset 0
	.cfi_restore 31
	.cfi_restore 30
	.cfi_restore 29
	.cfi_restore 28
	.cfi_restore 27
	.cfi_restore 26
	blr
.LVL771:
.L498:
.LCFI140:
	.cfi_restore_state
.LBB6471:
.LBB6457:
.LBB6444:
.LBB6440:
.LBB6436:
.LBB6435:
.LBB6434:
.LBB6433:
.LBB6429:
.LBB6430:
.LBB6431:
.LBB6432:
	.loc 16 809 0
	lwz 4,12(29)
	mr 3,28
	bl _ZNSt8_Rb_treeIPN7sigslot12_signal_baseINS0_15single_threadedEEES4_St9_IdentityIS4_ESt4lessIS4_ESaIS4_EE8_M_eraseEPSt13_Rb_tree_nodeIS4_E
.LVL772:
	.loc 16 811 0
	li 0,0
	.loc 16 810 0
	stw 30,16(29)
.LVL773:
	.loc 16 811 0
	stw 0,12(29)
.LVL774:
	.loc 16 812 0
	stw 30,20(29)
	.loc 16 813 0
	stw 0,24(29)
	b .L499
.LVL775:
.L521:
	mr 31,3
.L506:
.LVL776:
.LBE6432:
.LBE6431:
.LBE6430:
.LBE6429:
.LBE6433:
.LBE6434:
.LBE6435:
.LBE6436:
.LBE6440:
.LBE6444:
.LBE6457:
.LBB6458:
.LBB6459:
.LBB6460:
.LBB6461:
.LBB6462:
.LBB6463:
	.loc 16 639 0
	lwz 4,12(29)
	mr 3,28
	bl _ZNSt8_Rb_treeIPN7sigslot12_signal_baseINS0_15single_threadedEEES4_St9_IdentityIS4_ESt4lessIS4_ESaIS4_EE8_M_eraseEPSt13_Rb_tree_nodeIS4_E
.LVL777:
.LBE6463:
.LBE6462:
.LBE6461:
.LBE6460:
.LBE6459:
.LBE6458:
.LBB6464:
.LBB6465:
.LBB6466:
	.loc 1 105 0
	lis 9,_ZTVN7sigslot15single_threadedE+8@ha
	la 0,_ZTVN7sigslot15single_threadedE+8@l(9)
	mr 3,31
	stw 0,0(29)
.LEHB31:
	bl _Unwind_Resume
.LEHE31:
.LVL778:
.L522:
.LBE6466:
.LBE6465:
.LBE6464:
.LBB6467:
.LBB6445:
.LBB6441:
.LBB6442:
.LBB6443:
	.loc 1 343 0
	lwz 9,0(29)
	mr 31,3
.LVL779:
	mr 3,29
	lwz 0,12(9)
	mtctr 0
	bctrl
	b .L506
.LBE6443:
.LBE6442:
.LBE6441:
.LBE6445:
.LBE6467:
.LBE6471:
	.cfi_endproc
.LFE1657:
	.section	.gcc_except_table
.LLSDA1657:
	.byte	0xff
	.byte	0xff
	.byte	0x1
	.uleb128 .LLSDACSE1657-.LLSDACSB1657
.LLSDACSB1657:
	.uleb128 .LEHB28-.LFB1657
	.uleb128 .LEHE28-.LEHB28
	.uleb128 .L521-.LFB1657
	.uleb128 0
	.uleb128 .LEHB29-.LFB1657
	.uleb128 .LEHE29-.LEHB29
	.uleb128 .L522-.LFB1657
	.uleb128 0
	.uleb128 .LEHB30-.LFB1657
	.uleb128 .LEHE30-.LEHB30
	.uleb128 .L521-.LFB1657
	.uleb128 0
	.uleb128 .LEHB31-.LFB1657
	.uleb128 .LEHE31-.LEHB31
	.uleb128 0
	.uleb128 0
.LLSDACSE1657:
	.section	.text._ZN7sigslot9has_slotsINS_15single_threadedEED2Ev,"axG",@progbits,_ZN7sigslot9has_slotsINS_15single_threadedEED5Ev,comdat
	.size	_ZN7sigslot9has_slotsINS_15single_threadedEED2Ev, .-_ZN7sigslot9has_slotsINS_15single_threadedEED2Ev
	.section	.text._ZN7sigslot9has_slotsINS_15single_threadedEED0Ev,"axG",@progbits,_ZN7sigslot9has_slotsINS_15single_threadedEED5Ev,comdat
	.align 2
	.weak	_ZN7sigslot9has_slotsINS_15single_threadedEED0Ev
	.type	_ZN7sigslot9has_slotsINS_15single_threadedEED0Ev, @function
_ZN7sigslot9has_slotsINS_15single_threadedEED0Ev:
.LFB1659:
	.loc 1 513 0
	.cfi_startproc
	.cfi_personality 0,__gxx_personality_v0
	.cfi_lsda 0,.LLSDA1659
.LVL780:
	mflr 0
	stwu 1,-32(1)
.LCFI141:
	.cfi_def_cfa_offset 32
	.cfi_register 65, 0
.LBB6565:
.LBB6566:
.LBB6567:
	.loc 1 516 0
	lis 9,_ZTVN7sigslot9has_slotsINS_15single_threadedEEE+8@ha
.LBE6567:
.LBE6566:
.LBE6565:
	.loc 1 513 0
	stw 28,16(1)
	addi 28,3,4
	.cfi_offset 28, -16
	stw 0,36(1)
.LBB6651:
.LBB6647:
.LBB6643:
	.loc 1 516 0
	la 0,_ZTVN7sigslot9has_slotsINS_15single_threadedEEE+8@l(9)
	.cfi_offset 65, 4
.LBE6643:
.LBE6647:
.LBE6651:
	.loc 1 513 0
	stw 29,20(1)
	mr 29,3
	.cfi_offset 29, -12
.LVL781:
	stw 26,8(1)
	stw 27,12(1)
	stw 30,24(1)
	stw 31,28(1)
.LBB6652:
.LBB6648:
.LBB6644:
	.loc 1 516 0
	stw 0,0(3)
.LVL782:
.LEHB32:
.LBB6568:
.LBB6569:
.LBB6570:
.LBB6571:
	.loc 1 338 0
	.cfi_offset 31, -4
	.cfi_offset 30, -8
	.cfi_offset 27, -20
	.cfi_offset 26, -24
	bl _ZN7sigslot15single_threaded4lockEv
.LEHE32:
.LVL783:
.LBE6571:
.LBE6570:
.LBB6572:
	.loc 4 503 0
	lwz 31,16(29)
.LVL784:
.LBE6572:
.LBB6573:
.LBB6574:
.LBB6575:
	.loc 16 671 0
	addi 30,28,4
.LVL785:
.LBE6575:
.LBE6574:
.LBE6573:
	.loc 1 524 0
	cmpw 7,31,30
	beq- 7,.L528
.LVL786:
.L556:
	.loc 1 526 0
	lwz 3,16(31)
	mr 4,29
	lwz 9,0(3)
	lwz 0,16(9)
	mtctr 0
.LEHB33:
	bctrl
.LEHE33:
.LVL787:
.LBB6576:
.LBB6577:
	.loc 16 269 0
	mr 3,31
	bl _ZSt18_Rb_tree_incrementPKSt18_Rb_tree_node_base
.LBE6577:
.LBE6576:
	.loc 1 524 0
	cmpw 7,30,3
.LBB6579:
.LBB6578:
	.loc 16 269 0
	mr 31,3
.LVL788:
.LBE6578:
.LBE6579:
	.loc 1 524 0
	bne+ 7,.L556
	lwz 31,16(29)
.LVL789:
.L528:
.LBB6580:
.LBB6581:
.LBB6582:
.LBB6583:
.LBB6584:
.LBB6585:
.LBB6586:
	.loc 16 665 0
	addi 26,28,4
.LBE6586:
.LBE6585:
	.loc 16 1500 0
	cmpw 7,30,26
	beq- 7,.L530
.LVL790:
	.loc 16 1503 0
	cmpw 7,30,31
	bne+ 7,.L558
	b .L531
.LVL791:
.L553:
	.loc 16 277 0
	mr 31,27
.LVL792:
.L558:
.LBB6587:
.LBB6588:
	mr 3,31
	bl _ZSt18_Rb_tree_incrementPKSt18_Rb_tree_node_base
.LBE6588:
.LBE6587:
.LBB6590:
.LBB6591:
.LBB6592:
	.loc 16 1489 0
	mr 4,26
.LBE6592:
.LBE6591:
.LBE6590:
.LBB6601:
.LBB6589:
	.loc 16 277 0
	mr 27,3
.LVL793:
.LBE6589:
.LBE6601:
.LBB6602:
.LBB6599:
.LBB6597:
	.loc 16 1489 0
	mr 3,31
.LVL794:
	bl _ZSt28_Rb_tree_rebalance_for_erasePSt18_Rb_tree_node_baseRS_
.LBB6593:
.LBB6594:
.LBB6595:
.LBB6596:
	.loc 7 98 0
	bl _ZdlPv
.LBE6596:
.LBE6595:
.LBE6594:
.LBE6593:
.LBE6597:
.LBE6599:
.LBE6602:
	.loc 16 1503 0
	cmpw 7,30,27
.LBB6603:
.LBB6600:
.LBB6598:
	.loc 16 1491 0
	lwz 9,20(28)
	addi 0,9,-1
	stw 0,20(28)
.LBE6598:
.LBE6600:
.LBE6603:
	.loc 16 1503 0
	bne+ 7,.L553
.LVL795:
.L531:
.LBE6584:
.LBE6583:
.LBE6582:
.LBE6581:
.LBE6580:
.LBB6612:
.LBB6613:
.LBB6614:
	.loc 1 343 0
	lwz 9,0(29)
	mr 3,29
	lwz 0,12(9)
	mtctr 0
.LEHB34:
	bctrl
.LEHE34:
.LVL796:
.LBE6614:
.LBE6613:
.LBE6612:
.LBE6569:
.LBE6568:
.LBB6621:
.LBB6622:
.LBB6623:
.LBB6624:
.LBB6625:
	.loc 16 639 0
	lwz 4,12(29)
	mr 3,28
	bl _ZNSt8_Rb_treeIPN7sigslot12_signal_baseINS0_15single_threadedEEES4_St9_IdentityIS4_ESt4lessIS4_ESaIS4_EE8_M_eraseEPSt13_Rb_tree_nodeIS4_E
.LVL797:
.LBE6625:
.LBE6624:
.LBE6623:
.LBE6622:
.LBE6621:
.LBB6626:
.LBB6627:
.LBB6628:
	.loc 1 105 0
	lis 9,_ZTVN7sigslot15single_threadedE+8@ha
	la 0,_ZTVN7sigslot15single_threadedE+8@l(9)
.LBE6628:
.LBE6627:
.LBE6626:
.LBE6644:
.LBE6648:
.LBE6652:
	.loc 1 516 0
	mr 3,29
.LBB6653:
.LBB6649:
.LBB6645:
.LBB6631:
.LBB6630:
.LBB6629:
	.loc 1 105 0
	stw 0,0(29)
.LBE6629:
.LBE6630:
.LBE6631:
.LBE6645:
.LBE6649:
.LBE6653:
	.loc 1 516 0
	bl _ZdlPv
	lwz 0,36(1)
	lwz 26,8(1)
	mtlr 0
	lwz 27,12(1)
	lwz 28,16(1)
.LVL798:
	lwz 29,20(1)
.LVL799:
	lwz 30,24(1)
.LVL800:
	lwz 31,28(1)
	addi 1,1,32
	.cfi_remember_state
.LCFI142:
	.cfi_def_cfa_offset 0
	.cfi_restore 31
	.cfi_restore 30
	.cfi_restore 29
	.cfi_restore 28
	.cfi_restore 27
	.cfi_restore 26
	blr
.LVL801:
.L530:
.LCFI143:
	.cfi_restore_state
.LBB6654:
.LBB6650:
.LBB6646:
.LBB6632:
.LBB6619:
.LBB6615:
.LBB6611:
.LBB6610:
.LBB6609:
.LBB6608:
.LBB6604:
.LBB6605:
.LBB6606:
.LBB6607:
	.loc 16 809 0
	lwz 4,12(29)
	mr 3,28
	bl _ZNSt8_Rb_treeIPN7sigslot12_signal_baseINS0_15single_threadedEEES4_St9_IdentityIS4_ESt4lessIS4_ESaIS4_EE8_M_eraseEPSt13_Rb_tree_nodeIS4_E
.LVL802:
	.loc 16 811 0
	li 0,0
	.loc 16 810 0
	stw 30,16(29)
.LVL803:
	.loc 16 811 0
	stw 0,12(29)
.LVL804:
	.loc 16 812 0
	stw 30,20(29)
	.loc 16 813 0
	stw 0,24(29)
	b .L531
.LVL805:
.L554:
	mr 31,3
.L538:
.LVL806:
.LBE6607:
.LBE6606:
.LBE6605:
.LBE6604:
.LBE6608:
.LBE6609:
.LBE6610:
.LBE6611:
.LBE6615:
.LBE6619:
.LBE6632:
.LBB6633:
.LBB6634:
.LBB6635:
.LBB6636:
.LBB6637:
.LBB6638:
	.loc 16 639 0
	lwz 4,12(29)
	mr 3,28
	bl _ZNSt8_Rb_treeIPN7sigslot12_signal_baseINS0_15single_threadedEEES4_St9_IdentityIS4_ESt4lessIS4_ESaIS4_EE8_M_eraseEPSt13_Rb_tree_nodeIS4_E
.LVL807:
.LBE6638:
.LBE6637:
.LBE6636:
.LBE6635:
.LBE6634:
.LBE6633:
.LBB6639:
.LBB6640:
.LBB6641:
	.loc 1 105 0
	lis 9,_ZTVN7sigslot15single_threadedE+8@ha
	la 0,_ZTVN7sigslot15single_threadedE+8@l(9)
	mr 3,31
	stw 0,0(29)
.LEHB35:
	bl _Unwind_Resume
.LEHE35:
.LVL808:
.L555:
.LBE6641:
.LBE6640:
.LBE6639:
.LBB6642:
.LBB6620:
.LBB6616:
.LBB6617:
.LBB6618:
	.loc 1 343 0
	lwz 9,0(29)
	mr 31,3
.LVL809:
	mr 3,29
	lwz 0,12(9)
	mtctr 0
	bctrl
	b .L538
.LBE6618:
.LBE6617:
.LBE6616:
.LBE6620:
.LBE6642:
.LBE6646:
.LBE6650:
.LBE6654:
	.cfi_endproc
.LFE1659:
	.section	.gcc_except_table
.LLSDA1659:
	.byte	0xff
	.byte	0xff
	.byte	0x1
	.uleb128 .LLSDACSE1659-.LLSDACSB1659
.LLSDACSB1659:
	.uleb128 .LEHB32-.LFB1659
	.uleb128 .LEHE32-.LEHB32
	.uleb128 .L554-.LFB1659
	.uleb128 0
	.uleb128 .LEHB33-.LFB1659
	.uleb128 .LEHE33-.LEHB33
	.uleb128 .L555-.LFB1659
	.uleb128 0
	.uleb128 .LEHB34-.LFB1659
	.uleb128 .LEHE34-.LEHB34
	.uleb128 .L554-.LFB1659
	.uleb128 0
	.uleb128 .LEHB35-.LFB1659
	.uleb128 .LEHE35-.LEHB35
	.uleb128 0
	.uleb128 0
.LLSDACSE1659:
	.section	.text._ZN7sigslot9has_slotsINS_15single_threadedEED0Ev,"axG",@progbits,_ZN7sigslot9has_slotsINS_15single_threadedEED5Ev,comdat
	.size	_ZN7sigslot9has_slotsINS_15single_threadedEED0Ev, .-_ZN7sigslot9has_slotsINS_15single_threadedEED0Ev
	.section	.text._ZNSt8_Rb_treeIPN7sigslot12_signal_baseINS0_15single_threadedEEES4_St9_IdentityIS4_ESt4lessIS4_ESaIS4_EE16_M_insert_uniqueERKS4_,"axG",@progbits,_ZNSt8_Rb_treeIPN7sigslot12_signal_baseINS0_15single_threadedEEES4_St9_IdentityIS4_ESt4lessIS4_ESaIS4_EE16_M_insert_uniqueERKS4_,comdat
	.align 2
	.weak	_ZNSt8_Rb_treeIPN7sigslot12_signal_baseINS0_15single_threadedEEES4_St9_IdentityIS4_ESt4lessIS4_ESaIS4_EE16_M_insert_uniqueERKS4_
	.type	_ZNSt8_Rb_treeIPN7sigslot12_signal_baseINS0_15single_threadedEEES4_St9_IdentityIS4_ESt4lessIS4_ESaIS4_EE16_M_insert_uniqueERKS4_, @function
_ZNSt8_Rb_treeIPN7sigslot12_signal_baseINS0_15single_threadedEEES4_St9_IdentityIS4_ESt4lessIS4_ESaIS4_EE16_M_insert_uniqueERKS4_:
.LFB2195:
	.loc 16 1264 0
	.cfi_startproc
.LVL810:
	mflr 0
	stwu 1,-32(1)
.LCFI144:
	.cfi_def_cfa_offset 32
	.cfi_register 65, 0
	stw 28,16(1)
	stw 0,36(1)
	stw 27,12(1)
	mr 27,4
	.cfi_offset 27, -20
	.cfi_offset 65, 4
	.cfi_offset 28, -16
.LBB6694:
.LBB6695:
.LBB6696:
	.loc 4 503 0
	lwz 28,8(3)
.LVL811:
.LBE6696:
.LBE6695:
.LBE6694:
	.loc 16 1264 0
	stw 29,20(1)
.LBB6721:
.LBB6713:
.LBB6709:
	.loc 16 1272 0
	addi 29,3,4
	.cfi_offset 29, -12
.LVL812:
.LBE6709:
.LBE6713:
	.loc 16 1274 0
	cmpwi 7,28,0
.LBE6721:
	.loc 16 1264 0
	stw 31,28(1)
	stw 26,8(1)
	mr 31,3
	.cfi_offset 26, -24
	.cfi_offset 31, -4
	stw 30,24(1)
.LBB6722:
	.loc 16 1274 0
	beq- 7,.L575
	.cfi_offset 30, -8
	lwz 10,0(4)
	b .L564
.LVL813:
.L583:
	.loc 4 503 0 discriminator 1
	lwz 0,8(28)
.LVL814:
	.loc 16 1274 0 discriminator 1
	cmpwi 7,0,0
	beq- 7,.L582
.LVL815:
.L576:
	.loc 16 1274 0 is_stmt 0
	mr 28,0
.LVL816:
.L564:
	.loc 4 503 0 is_stmt 1
	lwz 9,16(28)
	li 11,1
	.loc 16 1278 0
	cmplw 7,9,10
	bgt- 7,.L583
.LVL817:
	.loc 4 503 0 discriminator 2
	lwz 0,12(28)
	li 11,0
.LVL818:
	.loc 16 1274 0 discriminator 2
	cmpwi 7,0,0
	bne+ 7,.L576
.LVL819:
.L582:
	.loc 16 1281 0
	cmpwi 7,11,0
	mr 3,28
.LVL820:
	bne- 7,.L561
.LVL821:
	.loc 16 1289 0
	cmplw 7,10,9
	bgt- 7,.L584
.LVL822:
.L571:
	.loc 16 1292 0
	li 0,0
	li 4,0
	rlwimi 4,0,24,0,7
.LBE6722:
	.loc 16 1293 0
	lwz 0,36(1)
	lwz 26,8(1)
	mtlr 0
	lwz 27,12(1)
.LVL823:
	lwz 28,16(1)
	lwz 29,20(1)
	lwz 30,24(1)
	lwz 31,28(1)
.LVL824:
	addi 1,1,32
	.cfi_remember_state
.LCFI145:
	.cfi_def_cfa_offset 0
	.cfi_restore 31
	.cfi_restore 30
	.cfi_restore 29
	.cfi_restore 28
	.cfi_restore 27
	.cfi_restore 26
	blr
.LVL825:
.L575:
.LCFI146:
	.cfi_restore_state
.LBB6723:
	.loc 16 1272 0
	mr 28,29
.LVL826:
.L561:
	.loc 16 1283 0
	lwz 0,12(31)
	cmpw 7,28,0
	beq- 7,.L585
.LVL827:
.LBB6714:
.LBB6715:
	.loc 16 203 0
	mr 3,28
	bl _ZSt18_Rb_tree_decrementPSt18_Rb_tree_node_base
.LVL828:
	lwz 10,0(27)
	lwz 9,16(3)
.LVL829:
.LBE6715:
.LBE6714:
	.loc 16 1289 0
	cmplw 7,10,9
	ble+ 7,.L571
.LVL830:
.L584:
.LBB6716:
.LBB6710:
	.loc 16 969 0
	cmpw 7,28,29
	li 26,1
	beq- 7,.L572
.LVL831:
	.loc 16 1264 0
	lwz 26,16(28)
	subfc 26,26,10
	subfe 26,26,26
	neg 26,26
	b .L572
.LVL832:
.L585:
.LBE6710:
.LBE6716:
.LBB6717:
.LBB6718:
	.loc 16 969 0
	cmpw 7,28,29
	li 26,1
	beq- 7,.L572
.LVL833:
	.loc 16 1264 0
	lwz 26,0(27)
	lwz 0,16(28)
.LVL834:
	subfc 26,0,26
	subfe 26,26,26
	neg 26,26
.LVL835:
.L572:
.LBE6718:
.LBE6717:
.LBB6719:
.LBB6711:
.LBB6697:
.LBB6698:
.LBB6699:
.LBB6700:
.LBB6701:
	.loc 7 92 0
	li 3,20
	bl _Znwj
.LBE6701:
.LBE6700:
.LBE6699:
.LBB6704:
.LBB6705:
	.loc 7 108 0
	cmpwi 7,3,-16
.LBE6705:
.LBE6704:
.LBB6707:
.LBB6703:
.LBB6702:
	.loc 7 92 0
	mr 30,3
.LVL836:
.LBE6702:
.LBE6703:
.LBE6707:
.LBB6708:
.LBB6706:
	.loc 7 108 0
	beq- 7,.L574
	lwz 0,0(27)
	stw 0,16(3)
.L574:
.LVL837:
.LBE6706:
.LBE6708:
.LBE6698:
.LBE6697:
	.loc 16 973 0
	mr 3,26
.LVL838:
	mr 4,30
	mr 5,28
	mr 6,29
	bl _ZSt29_Rb_tree_insert_and_rebalancebPSt18_Rb_tree_node_baseS0_RS_
	.loc 16 976 0
	lwz 9,20(31)
	.loc 16 1291 0
	li 4,0
	mr 3,30
	.loc 16 976 0
	addi 0,9,1
.LBE6711:
.LBE6719:
.LBE6723:
	.loc 16 1293 0
	lwz 26,8(1)
.LVL839:
.LBB6724:
.LBB6720:
.LBB6712:
	.loc 16 976 0
	stw 0,20(31)
.LVL840:
	.loc 16 1291 0
	li 0,1
	rlwimi 4,0,24,0,7
.LBE6712:
.LBE6720:
.LBE6724:
	.loc 16 1293 0
	lwz 0,36(1)
	lwz 27,12(1)
.LVL841:
	mtlr 0
	lwz 28,16(1)
	lwz 29,20(1)
	lwz 30,24(1)
.LVL842:
	lwz 31,28(1)
.LVL843:
	addi 1,1,32
	.cfi_restore 26
	.cfi_restore 27
	.cfi_restore 28
	.cfi_restore 29
	.cfi_restore 30
	.cfi_restore 31
.LCFI147:
	.cfi_def_cfa_offset 0
	blr
	.cfi_endproc
.LFE2195:
	.size	_ZNSt8_Rb_treeIPN7sigslot12_signal_baseINS0_15single_threadedEEES4_St9_IdentityIS4_ESt4lessIS4_ESaIS4_EE16_M_insert_uniqueERKS4_, .-_ZNSt8_Rb_treeIPN7sigslot12_signal_baseINS0_15single_threadedEEES4_St9_IdentityIS4_ESt4lessIS4_ESaIS4_EE16_M_insert_uniqueERKS4_
	.section	.text._ZN7sigslot7signal3IP10GuiElementiiNS_15single_threadedEE7connectI8PlayListEEvPT_MS7_FvS2_iiE,"axG",@progbits,_ZN7sigslot7signal3IP10GuiElementiiNS_15single_threadedEE7connectI8PlayListEEvPT_MS7_FvS2_iiE,comdat
	.align 2
	.weak	_ZN7sigslot7signal3IP10GuiElementiiNS_15single_threadedEE7connectI8PlayListEEvPT_MS7_FvS2_iiE
	.type	_ZN7sigslot7signal3IP10GuiElementiiNS_15single_threadedEE7connectI8PlayListEEvPT_MS7_FvS2_iiE, @function
_ZN7sigslot7signal3IP10GuiElementiiNS_15single_threadedEE7connectI8PlayListEEvPT_MS7_FvS2_iiE:
.LFB1715:
	.loc 1 2308 0
	.cfi_startproc
	.cfi_personality 0,__gxx_personality_v0
	.cfi_lsda 0,.LLSDA1715
.LVL844:
	mflr 0
	stwu 1,-48(1)
.LCFI148:
	.cfi_def_cfa_offset 48
	.cfi_register 65, 0
	stw 27,28(1)
	stw 0,52(1)
	stw 30,40(1)
	mr 30,4
	.cfi_offset 30, -8
	.cfi_offset 65, 4
	.cfi_offset 27, -20
.LBB6768:
.LBB6769:
.LBB6770:
	.loc 1 338 0
	lwz 9,0(3)
.LBE6770:
.LBE6769:
.LBE6768:
	.loc 1 2308 0
	stw 31,44(1)
	mr 31,3
	.cfi_offset 31, -4
.LVL845:
.LBB6823:
.LBB6774:
.LBB6771:
	.loc 1 338 0
	lwz 0,8(9)
.LBE6771:
.LBE6774:
.LBE6823:
	.loc 1 2308 0
	stw 28,32(1)
	stw 29,36(1)
.LBB6824:
.LBB6775:
.LBB6772:
	.loc 1 338 0
	mtctr 0
.LBE6772:
.LBE6775:
.LBE6824:
	.loc 1 2308 0
	lwz 27,0(5)
	lwz 28,4(5)
	.cfi_offset 29, -12
	.cfi_offset 28, -16
.LEHB36:
.LBB6825:
.LBB6776:
.LBB6773:
	.loc 1 338 0
	bctrl
.LEHE36:
.LVL846:
.LBE6773:
.LBE6776:
	.loc 1 2314 0
	li 3,16
.LEHB37:
	bl _Znwj
.LBB6777:
.LBB6778:
	.loc 1 1778 0
	lis 9,_ZTVN7sigslot12_connection3I8PlayListP10GuiElementiiNS_15single_threadedEEE+8@ha
	.loc 1 1779 0
	stw 30,4(3)
	.loc 1 1778 0
	la 0,_ZTVN7sigslot12_connection3I8PlayListP10GuiElementiiNS_15single_threadedEEE+8@l(9)
	.loc 1 1780 0
	stw 27,8(3)
	.loc 1 1778 0
	stw 0,0(3)
.LBE6778:
.LBE6777:
	.loc 1 2314 0
	mr 29,3
.LVL847:
.LBB6780:
.LBB6779:
	.loc 1 1780 0
	stw 28,12(3)
.LVL848:
.LBE6779:
.LBE6780:
.LBB6781:
.LBB6782:
.LBB6783:
.LBB6784:
.LBB6785:
.LBB6786:
.LBB6787:
.LBB6788:
	.loc 7 92 0
	li 3,12
.LVL849:
	bl _Znwj
.LVL850:
.LBE6788:
.LBE6787:
.LBE6786:
.LBB6789:
.LBB6790:
	.loc 7 108 0 discriminator 1
	cmpwi 7,3,-8
	beq- 7,.L588
	.loc 7 108 0 is_stmt 0
	stw 29,8(3)
.L588:
.LVL851:
.LBE6790:
.LBE6789:
.LBE6785:
.LBE6784:
	.loc 6 1516 0 is_stmt 1
	addi 4,31,4
.LBE6783:
.LBE6782:
.LBE6781:
.LBB6795:
.LBB6796:
	.loc 1 503 0
	addi 29,30,176
.LVL852:
.LBE6796:
.LBE6795:
.LBB6812:
.LBB6793:
.LBB6791:
	.loc 6 1516 0
	bl _ZNSt8__detail15_List_node_base7_M_hookEPS0_
.LVL853:
.LBE6791:
.LBE6793:
.LBE6812:
.LBB6813:
.LBB6809:
.LBB6797:
.LBB6798:
	.loc 1 338 0
	lwz 9,176(30)
.LBE6798:
.LBE6797:
.LBE6809:
.LBE6813:
.LBB6814:
.LBB6794:
.LBB6792:
	.loc 6 1516 0
	stw 31,8(1)
.LVL854:
.LBE6792:
.LBE6794:
.LBE6814:
.LBB6815:
.LBB6810:
.LBB6800:
.LBB6799:
	.loc 1 338 0
	mr 3,29
	lwz 0,8(9)
	mtctr 0
	bctrl
.LEHE37:
.LVL855:
.LBE6799:
.LBE6800:
.LBB6801:
.LBB6802:
	.file 17 "d:\\devkitpro\\devkitppc\\bin\\../lib/gcc/powerpc-eabi/4.6.3/../../../../powerpc-eabi/include/c++/4.6.3/bits/stl_set.h"
	.loc 17 410 0
	addi 3,30,180
	addi 4,1,8
.LEHB38:
	bl _ZNSt8_Rb_treeIPN7sigslot12_signal_baseINS0_15single_threadedEEES4_St9_IdentityIS4_ESt4lessIS4_ESaIS4_EE16_M_insert_uniqueERKS4_
.LEHE38:
.LVL856:
.LBE6802:
.LBE6801:
.LBB6803:
.LBB6804:
.LBB6805:
	.loc 1 343 0
	lwz 9,176(30)
	mr 3,29
	lwz 0,12(9)
	mtctr 0
.LEHB39:
	bctrl
.LEHE39:
.LVL857:
.LBE6805:
.LBE6804:
.LBE6803:
.LBE6810:
.LBE6815:
.LBB6816:
.LBB6817:
.LBB6818:
	lwz 9,0(31)
	mr 3,31
	lwz 0,12(9)
	mtctr 0
.LEHB40:
	bctrl
.LEHE40:
.LBE6818:
.LBE6817:
.LBE6816:
.LBE6825:
	.loc 1 2317 0
	lwz 0,52(1)
	lwz 27,28(1)
.LVL858:
	mtlr 0
	lwz 28,32(1)
.LVL859:
	lwz 29,36(1)
.LVL860:
	lwz 30,40(1)
.LVL861:
	lwz 31,44(1)
.LVL862:
	addi 1,1,48
	.cfi_remember_state
.LCFI149:
	.cfi_def_cfa_offset 0
	.cfi_restore 31
	.cfi_restore 30
	.cfi_restore 29
	.cfi_restore 28
	.cfi_restore 27
	blr
.LVL863:
.L595:
.LCFI150:
	.cfi_restore_state
	mr 30,3
.LVL864:
.L592:
.LBB6826:
.LBB6819:
.LBB6820:
.LBB6821:
	.loc 1 343 0
	lwz 9,0(31)
	mr 3,31
	lwz 0,12(9)
	mtctr 0
	bctrl
	mr 3,30
.LEHB41:
	bl _Unwind_Resume
.LEHE41:
.LVL865:
.L596:
.LBE6821:
.LBE6820:
.LBE6819:
.LBB6822:
.LBB6811:
.LBB6806:
.LBB6807:
.LBB6808:
	lwz 9,176(30)
	mr 30,3
.LVL866:
	mr 3,29
	lwz 0,12(9)
	mtctr 0
	bctrl
	b .L592
.LBE6808:
.LBE6807:
.LBE6806:
.LBE6811:
.LBE6822:
.LBE6826:
	.cfi_endproc
.LFE1715:
	.section	.gcc_except_table
.LLSDA1715:
	.byte	0xff
	.byte	0xff
	.byte	0x1
	.uleb128 .LLSDACSE1715-.LLSDACSB1715
.LLSDACSB1715:
	.uleb128 .LEHB36-.LFB1715
	.uleb128 .LEHE36-.LEHB36
	.uleb128 0
	.uleb128 0
	.uleb128 .LEHB37-.LFB1715
	.uleb128 .LEHE37-.LEHB37
	.uleb128 .L595-.LFB1715
	.uleb128 0
	.uleb128 .LEHB38-.LFB1715
	.uleb128 .LEHE38-.LEHB38
	.uleb128 .L596-.LFB1715
	.uleb128 0
	.uleb128 .LEHB39-.LFB1715
	.uleb128 .LEHE39-.LEHB39
	.uleb128 .L595-.LFB1715
	.uleb128 0
	.uleb128 .LEHB40-.LFB1715
	.uleb128 .LEHE40-.LEHB40
	.uleb128 0
	.uleb128 0
	.uleb128 .LEHB41-.LFB1715
	.uleb128 .LEHE41-.LEHB41
	.uleb128 0
	.uleb128 0
.LLSDACSE1715:
	.section	.text._ZN7sigslot7signal3IP10GuiElementiiNS_15single_threadedEE7connectI8PlayListEEvPT_MS7_FvS2_iiE,"axG",@progbits,_ZN7sigslot7signal3IP10GuiElementiiNS_15single_threadedEE7connectI8PlayListEEvPT_MS7_FvS2_iiE,comdat
	.size	_ZN7sigslot7signal3IP10GuiElementiiNS_15single_threadedEE7connectI8PlayListEEvPT_MS7_FvS2_iiE, .-_ZN7sigslot7signal3IP10GuiElementiiNS_15single_threadedEE7connectI8PlayListEEvPT_MS7_FvS2_iiE
	.section	.text._ZN7sigslot7signal3IP9GuiButtoniRK6_POINTNS_15single_threadedEE7connectI8PlayListEEvPT_MSA_FvS2_iS5_E,"axG",@progbits,_ZN7sigslot7signal3IP9GuiButtoniRK6_POINTNS_15single_threadedEE7connectI8PlayListEEvPT_MSA_FvS2_iS5_E,comdat
	.align 2
	.weak	_ZN7sigslot7signal3IP9GuiButtoniRK6_POINTNS_15single_threadedEE7connectI8PlayListEEvPT_MSA_FvS2_iS5_E
	.type	_ZN7sigslot7signal3IP9GuiButtoniRK6_POINTNS_15single_threadedEE7connectI8PlayListEEvPT_MSA_FvS2_iS5_E, @function
_ZN7sigslot7signal3IP9GuiButtoniRK6_POINTNS_15single_threadedEE7connectI8PlayListEEvPT_MSA_FvS2_iS5_E:
.LFB1712:
	.loc 1 2308 0
	.cfi_startproc
	.cfi_personality 0,__gxx_personality_v0
	.cfi_lsda 0,.LLSDA1712
.LVL867:
	mflr 0
	stwu 1,-48(1)
.LCFI151:
	.cfi_def_cfa_offset 48
	.cfi_register 65, 0
	stw 27,28(1)
	stw 0,52(1)
	stw 30,40(1)
	mr 30,4
	.cfi_offset 30, -8
	.cfi_offset 65, 4
	.cfi_offset 27, -20
.LBB6869:
.LBB6870:
.LBB6871:
	.loc 1 338 0
	lwz 9,0(3)
.LBE6871:
.LBE6870:
.LBE6869:
	.loc 1 2308 0
	stw 31,44(1)
	mr 31,3
	.cfi_offset 31, -4
.LVL868:
.LBB6924:
.LBB6875:
.LBB6872:
	.loc 1 338 0
	lwz 0,8(9)
.LBE6872:
.LBE6875:
.LBE6924:
	.loc 1 2308 0
	stw 28,32(1)
	stw 29,36(1)
.LBB6925:
.LBB6876:
.LBB6873:
	.loc 1 338 0
	mtctr 0
.LBE6873:
.LBE6876:
.LBE6925:
	.loc 1 2308 0
	lwz 27,0(5)
	lwz 28,4(5)
	.cfi_offset 29, -12
	.cfi_offset 28, -16
.LEHB42:
.LBB6926:
.LBB6877:
.LBB6874:
	.loc 1 338 0
	bctrl
.LEHE42:
.LVL869:
.LBE6874:
.LBE6877:
	.loc 1 2314 0
	li 3,16
.LEHB43:
	bl _Znwj
.LBB6878:
.LBB6879:
	.loc 1 1778 0
	lis 9,_ZTVN7sigslot12_connection3I8PlayListP9GuiButtoniRK6_POINTNS_15single_threadedEEE+8@ha
	.loc 1 1779 0
	stw 30,4(3)
	.loc 1 1778 0
	la 0,_ZTVN7sigslot12_connection3I8PlayListP9GuiButtoniRK6_POINTNS_15single_threadedEEE+8@l(9)
	.loc 1 1780 0
	stw 27,8(3)
	.loc 1 1778 0
	stw 0,0(3)
.LBE6879:
.LBE6878:
	.loc 1 2314 0
	mr 29,3
.LVL870:
.LBB6881:
.LBB6880:
	.loc 1 1780 0
	stw 28,12(3)
.LVL871:
.LBE6880:
.LBE6881:
.LBB6882:
.LBB6883:
.LBB6884:
.LBB6885:
.LBB6886:
.LBB6887:
.LBB6888:
.LBB6889:
	.loc 7 92 0
	li 3,12
.LVL872:
	bl _Znwj
.LVL873:
.LBE6889:
.LBE6888:
.LBE6887:
.LBB6890:
.LBB6891:
	.loc 7 108 0 discriminator 1
	cmpwi 7,3,-8
	beq- 7,.L600
	.loc 7 108 0 is_stmt 0
	stw 29,8(3)
.LVL874:
.L600:
.LBE6891:
.LBE6890:
.LBE6886:
.LBE6885:
	.loc 6 1516 0 is_stmt 1
	addi 4,31,4
.LBE6884:
.LBE6883:
.LBE6882:
.LBB6896:
.LBB6897:
	.loc 1 503 0
	addi 29,30,176
.LVL875:
.LBE6897:
.LBE6896:
.LBB6913:
.LBB6894:
.LBB6892:
	.loc 6 1516 0
	bl _ZNSt8__detail15_List_node_base7_M_hookEPS0_
.LVL876:
.LBE6892:
.LBE6894:
.LBE6913:
.LBB6914:
.LBB6910:
.LBB6898:
.LBB6899:
	.loc 1 338 0
	lwz 9,176(30)
.LBE6899:
.LBE6898:
.LBE6910:
.LBE6914:
.LBB6915:
.LBB6895:
.LBB6893:
	.loc 6 1516 0
	stw 31,8(1)
.LVL877:
.LBE6893:
.LBE6895:
.LBE6915:
.LBB6916:
.LBB6911:
.LBB6901:
.LBB6900:
	.loc 1 338 0
	mr 3,29
	lwz 0,8(9)
	mtctr 0
	bctrl
.LEHE43:
.LVL878:
.LBE6900:
.LBE6901:
.LBB6902:
.LBB6903:
	.loc 17 410 0
	addi 3,30,180
	addi 4,1,8
.LEHB44:
	bl _ZNSt8_Rb_treeIPN7sigslot12_signal_baseINS0_15single_threadedEEES4_St9_IdentityIS4_ESt4lessIS4_ESaIS4_EE16_M_insert_uniqueERKS4_
.LEHE44:
.LVL879:
.LBE6903:
.LBE6902:
.LBB6904:
.LBB6905:
.LBB6906:
	.loc 1 343 0
	lwz 9,176(30)
	mr 3,29
	lwz 0,12(9)
	mtctr 0
.LEHB45:
	bctrl
.LEHE45:
.LVL880:
.LBE6906:
.LBE6905:
.LBE6904:
.LBE6911:
.LBE6916:
.LBB6917:
.LBB6918:
.LBB6919:
	lwz 9,0(31)
	mr 3,31
	lwz 0,12(9)
	mtctr 0
.LEHB46:
	bctrl
.LEHE46:
.LBE6919:
.LBE6918:
.LBE6917:
.LBE6926:
	.loc 1 2317 0
	lwz 0,52(1)
	lwz 27,28(1)
.LVL881:
	mtlr 0
	lwz 28,32(1)
.LVL882:
	lwz 29,36(1)
.LVL883:
	lwz 30,40(1)
.LVL884:
	lwz 31,44(1)
.LVL885:
	addi 1,1,48
	.cfi_remember_state
.LCFI152:
	.cfi_def_cfa_offset 0
	.cfi_restore 31
	.cfi_restore 30
	.cfi_restore 29
	.cfi_restore 28
	.cfi_restore 27
	blr
.LVL886:
.L607:
.LCFI153:
	.cfi_restore_state
	mr 30,3
.LVL887:
.L604:
.LBB6927:
.LBB6920:
.LBB6921:
.LBB6922:
	.loc 1 343 0
	lwz 9,0(31)
	mr 3,31
	lwz 0,12(9)
	mtctr 0
	bctrl
	mr 3,30
.LEHB47:
	bl _Unwind_Resume
.LEHE47:
.LVL888:
.L608:
.LBE6922:
.LBE6921:
.LBE6920:
.LBB6923:
.LBB6912:
.LBB6907:
.LBB6908:
.LBB6909:
	lwz 9,176(30)
	mr 30,3
.LVL889:
	mr 3,29
	lwz 0,12(9)
	mtctr 0
	bctrl
	b .L604
.LBE6909:
.LBE6908:
.LBE6907:
.LBE6912:
.LBE6923:
.LBE6927:
	.cfi_endproc
.LFE1712:
	.section	.gcc_except_table
.LLSDA1712:
	.byte	0xff
	.byte	0xff
	.byte	0x1
	.uleb128 .LLSDACSE1712-.LLSDACSB1712
.LLSDACSB1712:
	.uleb128 .LEHB42-.LFB1712
	.uleb128 .LEHE42-.LEHB42
	.uleb128 0
	.uleb128 0
	.uleb128 .LEHB43-.LFB1712
	.uleb128 .LEHE43-.LEHB43
	.uleb128 .L607-.LFB1712
	.uleb128 0
	.uleb128 .LEHB44-.LFB1712
	.uleb128 .LEHE44-.LEHB44
	.uleb128 .L608-.LFB1712
	.uleb128 0
	.uleb128 .LEHB45-.LFB1712
	.uleb128 .LEHE45-.LEHB45
	.uleb128 .L607-.LFB1712
	.uleb128 0
	.uleb128 .LEHB46-.LFB1712
	.uleb128 .LEHE46-.LEHB46
	.uleb128 0
	.uleb128 0
	.uleb128 .LEHB47-.LFB1712
	.uleb128 .LEHE47-.LEHB47
	.uleb128 0
	.uleb128 0
.LLSDACSE1712:
	.section	.text._ZN7sigslot7signal3IP9GuiButtoniRK6_POINTNS_15single_threadedEE7connectI8PlayListEEvPT_MSA_FvS2_iS5_E,"axG",@progbits,_ZN7sigslot7signal3IP9GuiButtoniRK6_POINTNS_15single_threadedEE7connectI8PlayListEEvPT_MSA_FvS2_iS5_E,comdat
	.size	_ZN7sigslot7signal3IP9GuiButtoniRK6_POINTNS_15single_threadedEE7connectI8PlayListEEvPT_MSA_FvS2_iS5_E, .-_ZN7sigslot7signal3IP9GuiButtoniRK6_POINTNS_15single_threadedEE7connectI8PlayListEEvPT_MSA_FvS2_iS5_E
	.section	".text"
	.align 2
	.globl _ZN8PlayList4ShowEv
	.type	_ZN8PlayList4ShowEv, @function
_ZN8PlayList4ShowEv:
.LFB1603:
	.loc 4 185 0
	.cfi_startproc
	.cfi_personality 0,__gxx_personality_v0
	.cfi_lsda 0,.LLSDA1603
.LVL890:
	stwu 1,-96(1)
.LCFI154:
	.cfi_def_cfa_offset 96
	mflr 0
	stw 31,92(1)
	mr 31,3
	.cfi_offset 31, -4
	.cfi_register 65, 0
.LBB7003:
	.loc 4 186 0
	lis 3,.LC13@ha
.LVL891:
.LBE7003:
	.loc 4 185 0
	stw 0,100(1)
.LBB7095:
	.loc 4 186 0
	la 3,.LC13@l(3)
.LBE7095:
	.loc 4 185 0
	stw 29,84(1)
	stw 28,80(1)
	stw 30,88(1)
.LEHB48:
.LBB7096:
	.loc 4 186 0
	.cfi_offset 30, -8
	.cfi_offset 28, -16
	.cfi_offset 29, -12
	.cfi_offset 65, 4
	bl _ZN9Resources8GetSoundEPKc
	stw 3,292(31)
	.loc 4 187 0
	lis 3,.LC14@ha
	la 3,.LC14@l(3)
	bl _ZN9Resources8GetSoundEPKc
	stw 3,296(31)
	.loc 4 189 0
	li 3,368
	bl _Znwj
.LEHE48:
	mr 29,3
.LEHB49:
	bl _ZN10GuiTriggerC1Ev
.LEHE49:
	.loc 4 190 0 discriminator 1
	lis 30,Settings@ha
	li 4,-1
	la 30,Settings@l(30)
	mr 3,29
	lhz 5,2644(30)
	lhz 0,2616(30)
	lhz 6,2672(30)
	slwi 5,5,16
	.loc 4 189 0 discriminator 1
	stw 29,304(31)
	.loc 4 190 0 discriminator 1
	or 5,5,0
.LEHB50:
	bl _ZN10GuiTrigger16SetSimpleTriggerEijt
	.loc 4 192 0 discriminator 1
	lis 3,.LC15@ha
	la 3,.LC15@l(3)
	bl _ZN9Resources12GetImageDataEPKc
	stw 3,280(31)
	.loc 4 194 0 discriminator 1
	lis 3,.LC16@ha
	la 3,.LC16@l(3)
	bl _ZN9Resources12GetImageDataEPKc
	stw 3,284(31)
	.loc 4 195 0 discriminator 1
	li 3,196
	bl _Znwj
.LEHE50:
	lwz 4,284(31)
	mr 29,3
.LEHB51:
	bl _ZN8GuiImageC1EP12GuiImageData
.LEHE51:
	.loc 4 196 0 discriminator 1
	lwz 7,0(29)
	mr 3,29
	.loc 4 195 0 discriminator 1
	stw 29,288(31)
	.loc 4 196 0 discriminator 1
	addi 4,1,36
.LBB7004:
.LBB7005:
	.file 18 "d:/Projects/SaveGameManager/savegame-manager-gx/trunk/source/SoundOperations/../Controls/../GUI/../Tools/Rect.h"
	.loc 18 13 0 discriminator 1
	lwz 8,80(31)
	lwz 10,84(31)
	lwz 11,88(31)
	lwz 9,92(31)
.LBE7005:
.LBE7004:
	.loc 4 196 0 discriminator 1
	lwz 0,160(7)
.LVL892:
.LBB7008:
.LBB7006:
	.loc 18 13 0 discriminator 1
	stw 8,36(1)
	stw 10,40(1)
.LBE7006:
.LBE7008:
	.loc 4 196 0 discriminator 1
	mtctr 0
.LBB7009:
.LBB7007:
	.loc 18 13 0 discriminator 1
	stw 11,44(1)
	stw 9,48(1)
.LEHB52:
.LBE7007:
.LBE7009:
	.loc 4 196 0 discriminator 1
	bctrl
.LVL893:
	.loc 4 197 0 discriminator 1
	lwz 4,288(31)
	mr 3,31
	bl _ZN8GuiFrame6AppendEP10GuiElement
	.loc 4 199 0 discriminator 1
	li 3,300
	bl _Znwj
.LEHE52:
	li 4,240
	li 5,2
	mr 29,3
.LEHB53:
	bl _ZN9ScrollbarC1Eih
.LEHE53:
	.loc 4 200 0 discriminator 1
	lwz 9,0(29)
	mr 3,29
	.loc 4 199 0 discriminator 1
	stw 29,300(31)
	.loc 4 200 0 discriminator 1
	li 4,20
	lwz 0,180(9)
	mtctr 0
.LEHB54:
	bctrl
	.loc 4 201 0 discriminator 1
	lwz 3,300(31)
	li 5,50
	li 4,-30
	lwz 9,0(3)
	lwz 0,168(9)
	mtctr 0
	bctrl
	.loc 4 202 0 discriminator 1
	lwz 9,300(31)
.LVL894:
.LBB7010:
.LBB7011:
	.loc 18 13 0 discriminator 1
	lwz 7,80(31)
.LBE7011:
.LBE7010:
	.loc 4 203 0 discriminator 1
	addi 4,1,20
	lwz 5,0(9)
	mr 3,9
.LBB7016:
.LBB7012:
	.loc 18 13 0 discriminator 1
	lwz 8,84(31)
.LBE7012:
.LBE7016:
	.loc 4 203 0 discriminator 1
	lwz 0,160(5)
.LVL895:
.LBB7017:
.LBB7013:
	.loc 18 13 0 discriminator 1
	lwz 10,88(31)
	lwz 11,92(31)
.LBE7013:
.LBE7017:
	.loc 4 203 0 discriminator 1
	mtctr 0
.LBB7018:
.LBB7019:
	.file 19 "d:/Projects/SaveGameManager/savegame-manager-gx/trunk/source/SoundOperations/../Controls/Scrollbar.hpp"
	.loc 19 43 0 discriminator 1
	lhz 6,124(30)
.LBE7019:
.LBE7018:
.LBB7021:
.LBB7014:
	.loc 18 13 0 discriminator 1
	stw 7,20(1)
.LBE7014:
.LBE7021:
.LBB7022:
.LBB7020:
	.loc 19 43 0 discriminator 1
	sth 6,192(9)
.LBE7020:
.LBE7022:
.LBB7023:
.LBB7015:
	.loc 18 13 0 discriminator 1
	stw 8,24(1)
	stw 10,28(1)
	stw 11,32(1)
.LBE7015:
.LBE7023:
	.loc 4 203 0 discriminator 1
	bctrl
.LVL896:
	.loc 4 204 0 discriminator 1
	lwz 29,300(31)
.LVL897:
.LBB7024:
.LBB7025:
.LBB7026:
.LBB7027:
	.loc 1 338 0 discriminator 1
	lwz 9,172(29)
.LBE7027:
.LBE7026:
	.loc 1 2244 0 discriminator 1
	addi 28,29,172
.LVL898:
.LBB7029:
.LBB7028:
	.loc 1 338 0 discriminator 1
	mr 3,28
	lwz 0,8(9)
	mtctr 0
	bctrl
.LEHE54:
.LVL899:
.LBE7028:
.LBE7029:
	.loc 1 2246 0 discriminator 1
	li 3,16
.LEHB55:
	bl _Znwj
.LBB7030:
.LBB7031:
	.loc 1 1730 0 discriminator 1
	lis 9,_ZTVN7sigslot12_connection2I8PlayListiiNS_15single_threadedEEE+8@ha
	.loc 1 1731 0 discriminator 1
	stw 31,4(3)
	.loc 1 1730 0 discriminator 1
	la 0,_ZTVN7sigslot12_connection2I8PlayListiiNS_15single_threadedEEE+8@l(9)
.LBE7031:
.LBE7030:
.LBE7025:
	.loc 1 1732 0 discriminator 1
	lis 9,_ZN8PlayList12OnListChangeEii@ha
.LBB7069:
.LBB7033:
.LBB7032:
	.loc 1 1730 0 discriminator 1
	stw 0,0(3)
.LBE7032:
.LBE7033:
.LBE7069:
	.loc 1 1732 0 discriminator 1
	la 0,_ZN8PlayList12OnListChangeEii@l(9)
	stw 0,8(3)
	li 0,0
	stw 0,12(3)
.LBB7070:
	.loc 1 2246 0 discriminator 1
	mr 30,3
.LVL900:
.LBB7034:
.LBB7035:
.LBB7036:
.LBB7037:
.LBB7038:
.LBB7039:
.LBB7040:
.LBB7041:
	.loc 7 92 0 discriminator 1
	li 3,12
.LVL901:
	bl _Znwj
.LVL902:
.LBE7041:
.LBE7040:
.LBE7039:
.LBB7042:
.LBB7043:
	.loc 7 108 0
	cmpwi 7,3,-8
	beq- 7,.L614
	stw 30,8(3)
.L614:
.LVL903:
.LBE7043:
.LBE7042:
.LBE7038:
.LBE7037:
	.loc 6 1516 0
	addi 4,29,176
.LBE7036:
.LBE7035:
.LBE7034:
.LBB7046:
.LBB7047:
	.loc 1 503 0
	addi 30,31,176
.LVL904:
.LBE7047:
.LBE7046:
.LBB7060:
.LBB7045:
.LBB7044:
	.loc 6 1516 0
	bl _ZNSt8__detail15_List_node_base7_M_hookEPS0_
.LVL905:
	stw 28,8(1)
.LVL906:
.LBE7044:
.LBE7045:
.LBE7060:
.LBB7061:
.LBB7058:
.LBB7048:
.LBB7049:
	.loc 1 338 0
	lwz 9,176(31)
	mr 3,30
	lwz 0,8(9)
	mtctr 0
	bctrl
.LEHE55:
.LVL907:
.LBE7049:
.LBE7048:
.LBB7050:
.LBB7051:
	.loc 17 410 0
	addi 3,31,180
	addi 4,1,8
.LEHB56:
	bl _ZNSt8_Rb_treeIPN7sigslot12_signal_baseINS0_15single_threadedEEES4_St9_IdentityIS4_ESt4lessIS4_ESaIS4_EE16_M_insert_uniqueERKS4_
.LEHE56:
.LVL908:
.LBE7051:
.LBE7050:
.LBB7052:
.LBB7053:
.LBB7054:
	.loc 1 343 0
	lwz 9,176(31)
	mr 3,30
	lwz 0,12(9)
	mtctr 0
.LEHB57:
	bctrl
.LEHE57:
.LVL909:
.LBE7054:
.LBE7053:
.LBE7052:
.LBE7058:
.LBE7061:
.LBB7062:
.LBB7063:
.LBB7064:
	lwz 9,172(29)
	mr 3,28
	lwz 0,12(9)
	mtctr 0
.LEHB58:
	bctrl
.LBE7064:
.LBE7063:
.LBE7062:
.LBE7070:
.LBE7024:
	.loc 4 205 0
	lwz 4,300(31)
	mr 3,31
	bl _ZN8GuiFrame6AppendEP10GuiElement
	.loc 4 207 0
	li 3,312
	bl _Znwj
.LEHE58:
	li 4,50
	li 5,33
	mr 30,3
.LVL910:
.LEHB59:
	bl _ZN9GuiButtonC1Eii
.LEHE59:
	.loc 4 208 0 discriminator 1
	lwz 9,0(30)
	li 5,10
	.loc 4 207 0 discriminator 1
	stw 30,276(31)
	.loc 4 208 0 discriminator 1
	mr 3,30
	li 4,115
	.loc 4 216 0 discriminator 1
	li 30,65
	.loc 4 208 0 discriminator 1
	lwz 0,168(9)
	mtctr 0
.LEHB60:
	bctrl
	.loc 4 209 0 discriminator 1
	lwz 3,276(31)
	lwz 4,292(31)
	bl _ZN9GuiButton13SetSoundClickEP8GuiSound
	.loc 4 210 0 discriminator 1
	lwz 3,276(31)
	lwz 4,296(31)
	bl _ZN9GuiButton12SetSoundOverEP8GuiSound
	.loc 4 211 0 discriminator 1
	lwz 3,276(31)
	lwz 4,304(31)
	bl _ZN9GuiButton10SetTriggerEP10GuiTrigger
	.loc 4 212 0 discriminator 1
	lwz 3,276(31)
	lis 9,_ZN8PlayList13OnButtonClickEP9GuiButtoniRK6_POINT@ha
	mr 4,31
	la 0,_ZN8PlayList13OnButtonClickEP9GuiButtoniRK6_POINT@l(9)
	addi 5,1,56
	addi 3,3,144
	stw 0,56(1)
	li 0,0
	stw 0,60(1)
	bl _ZN7sigslot7signal3IP9GuiButtoniRK6_POINTNS_15single_threadedEE7connectI8PlayListEEvPT_MSA_FvS2_iS5_E
	.loc 4 213 0 discriminator 1
	lwz 4,276(31)
	mr 3,31
	bl _ZN8GuiFrame6AppendEP10GuiElement
	.loc 4 215 0 discriminator 1
	lwz 9,284(31)
	.loc 4 503 0 discriminator 1
	lwz 0,12(9)
	.loc 4 215 0 discriminator 1
	stw 0,36(31)
	.loc 4 503 0 discriminator 1
	lwz 0,8(9)
	.loc 4 216 0 discriminator 1
	stw 0,40(31)
.LVL911:
.L630:
.LBB7072:
.LBB7073:
	.loc 4 220 0
	li 3,196
	bl _Znwj
.LEHE60:
	lwz 4,280(31)
	mr 29,3
.LVL912:
.LEHB61:
	bl _ZN8GuiImageC1EP12GuiImageData
.LEHE61:
	.loc 4 221 0 discriminator 1
	lwz 9,0(29)
.LVL913:
	mr 3,29
	li 4,34
	.loc 4 220 0 discriminator 1
	stw 29,16(1)
	.loc 4 221 0 discriminator 1
	lwz 0,180(9)
	mtctr 0
.LEHB62:
	bctrl
	.loc 4 222 0 discriminator 1
	lwz 3,16(1)
	lwz 9,0(3)
	lwz 0,108(9)
	lis 9,.LC3@ha
	lfs 1,.LC3@l(9)
	mtctr 0
	bctrl
.LVL914:
.LBB7074:
.LBB7075:
	.loc 5 828 0 discriminator 1
	lwz 9,268(31)
	lwz 0,272(31)
	cmpw 7,9,0
	beq- 7,.L621
.LVL915:
.LBB7076:
.LBB7077:
	.loc 7 108 0
	cmpwi 7,9,0
	li 11,0
	beq- 7,.L622
	lwz 0,16(1)
	stw 0,0(9)
	lwz 11,268(31)
.L622:
.LBE7077:
.LBE7076:
	.loc 5 831 0
	addi 11,11,4
	stw 11,268(31)
.LVL916:
.L623:
.LBE7075:
.LBE7074:
	.loc 4 225 0 discriminator 1
	lis 3,.LC17@ha
	la 3,.LC17@l(3)
	bl getThemeColor
	mr 28,3
	li 3,208
	bl _Znwj
.LEHE62:
	mr 6,1
	stwu 28,68(6)
	li 4,0
	li 5,18
	mr 29,3
.LVL917:
.LEHB63:
	bl _ZN7GuiTextC1EPKci9_gx_color
.LEHE63:
	.loc 4 226 0 discriminator 1
	lwz 9,0(29)
.LVL918:
	mr 3,29
	li 4,33
	.loc 4 225 0 discriminator 1
	stw 29,12(1)
	.loc 4 226 0 discriminator 1
	lwz 0,180(9)
	mtctr 0
.LEHB64:
	bctrl
	.loc 4 227 0 discriminator 1
	lwz 4,36(31)
	lwz 3,12(1)
	li 5,1
	addi 4,4,-95
	bl _ZN7GuiText11SetMaxWidthEii
.LVL919:
.LBB7079:
.LBB7080:
	.loc 5 828 0 discriminator 1
	lwz 9,256(31)
	lwz 0,260(31)
	cmpw 7,9,0
	beq- 7,.L624
.LVL920:
.LBB7081:
.LBB7082:
	.loc 7 108 0
	cmpwi 7,9,0
	li 11,0
	beq- 7,.L625
	lwz 0,12(1)
	stw 0,0(9)
	lwz 11,256(31)
.L625:
.LBE7082:
.LBE7081:
	.loc 5 831 0
	addi 11,11,4
	stw 11,256(31)
.LVL921:
.L626:
.LBE7080:
.LBE7079:
	.loc 4 230 0 discriminator 1
	li 3,312
	bl _Znwj
.LEHE64:
	lwz 4,36(31)
	li 5,20
	mr 29,3
.LVL922:
	addi 4,4,-100
.LEHB65:
	bl _ZN9GuiButtonC1Eii
.LEHE65:
	.loc 4 231 0 discriminator 1
	lwz 4,12(1)
	li 5,0
	mr 3,29
.LVL923:
	.loc 4 230 0 discriminator 1
	stw 29,8(1)
.LEHB66:
	.loc 4 231 0 discriminator 1
	bl _ZN9GuiButton8SetLabelEP7GuiTexti
	.loc 4 232 0 discriminator 1
	lwz 3,8(1)
	lwz 4,16(1)
	.loc 4 238 0 discriminator 1
	li 29,0
.LVL924:
	.loc 4 232 0 discriminator 1
	bl _ZN9GuiButton12SetImageOverEP8GuiImage
	.loc 4 233 0 discriminator 1
	lwz 3,8(1)
	mr 5,30
	li 4,40
	lwz 9,0(3)
	lwz 0,168(9)
	mtctr 0
	bctrl
	.loc 4 234 0 discriminator 1
	lwz 3,8(1)
	lwz 4,304(31)
	bl _ZN9GuiButton10SetTriggerEP10GuiTrigger
	.loc 4 235 0 discriminator 1
	lwz 3,8(1)
	lwz 4,292(31)
	bl _ZN9GuiButton13SetSoundClickEP8GuiSound
	.loc 4 236 0 discriminator 1
	lwz 3,8(1)
	li 5,-1
	li 4,4
	lwz 9,0(3)
	lwz 0,80(9)
	mtctr 0
	bctrl
	.loc 4 237 0 discriminator 1
	lwz 3,8(1)
	li 4,0
	lwz 9,0(3)
	lwz 0,48(9)
	mtctr 0
	bctrl
	.loc 4 238 0 discriminator 1
	lwz 3,8(1)
	lis 9,_ZN8PlayList17OnListStateChangeEP10GuiElementii@ha
	mr 4,31
	la 0,_ZN8PlayList17OnListStateChangeEP10GuiElementii@l(9)
	addi 3,3,16
	addi 5,1,56
	stw 0,56(1)
	stw 29,60(1)
	bl _ZN7sigslot7signal3IP10GuiElementiiNS_15single_threadedEE7connectI8PlayListEEvPT_MS7_FvS2_iiE
	.loc 4 239 0 discriminator 1
	lwz 3,8(1)
	lis 9,_ZN8PlayList17OnButtonListClickEP9GuiButtoniRK6_POINT@ha
	la 0,_ZN8PlayList17OnButtonListClickEP9GuiButtoniRK6_POINT@l(9)
	mr 4,31
	addi 3,3,144
	addi 5,1,56
	stw 0,56(1)
	stw 29,60(1)
	bl _ZN7sigslot7signal3IP9GuiButtoniRK6_POINTNS_15single_threadedEE7connectI8PlayListEEvPT_MSA_FvS2_iS5_E
.LVL925:
.LBB7084:
.LBB7085:
	.loc 5 828 0 discriminator 1
	lwz 9,244(31)
	lwz 0,248(31)
	cmpw 7,9,0
	beq- 7,.L627
.LVL926:
.LBB7086:
.LBB7087:
	.loc 7 108 0
	cmpwi 7,9,0
	li 11,0
	beq- 7,.L628
	lwz 0,8(1)
	stw 0,0(9)
	lwz 11,244(31)
.L628:
.LBE7087:
.LBE7086:
	.loc 5 831 0
	addi 11,11,4
	stw 11,244(31)
.LVL927:
.L629:
.LBE7085:
.LBE7084:
	.loc 4 242 0 discriminator 1
	lwz 4,8(1)
	mr 3,31
	bl _ZN8GuiFrame6AppendEP10GuiElement
.LBE7073:
	.loc 4 218 0 discriminator 1
	cmpwi 7,30,275
	addi 30,30,30
	bne+ 7,.L630
.LBE7072:
	.loc 4 245 0
	lwz 9,0(31)
	mr 3,31
	li 4,1
	lwz 0,48(9)
	mtctr 0
	bctrl
	.loc 4 246 0
	li 0,1
	stb 0,225(31)
.LBE7096:
	.loc 4 247 0
	lwz 0,100(1)
	lwz 28,80(1)
	mtlr 0
	lwz 29,84(1)
	lwz 30,88(1)
	lwz 31,92(1)
.LVL928:
	addi 1,1,96
	.cfi_remember_state
.LCFI155:
	.cfi_def_cfa_offset 0
	.cfi_restore 31
	.cfi_restore 30
	.cfi_restore 29
	.cfi_restore 28
	blr
.LVL929:
.L627:
.LCFI156:
	.cfi_restore_state
.LBB7097:
.LBB7093:
.LBB7092:
.LBB7089:
.LBB7088:
	.loc 5 834 0
	mr 4,1
	addi 3,31,240
	stwu 9,76(4)
	addi 5,1,8
	bl _ZNSt6vectorIP9GuiButtonSaIS1_EE13_M_insert_auxEN9__gnu_cxx17__normal_iteratorIPS1_S3_EERKS1_
	b .L629
.LVL930:
.L624:
.LBE7088:
.LBE7089:
.LBB7090:
.LBB7083:
	mr 4,1
	addi 3,31,252
	stwu 9,72(4)
	addi 5,1,12
	bl _ZNSt6vectorIP7GuiTextSaIS1_EE13_M_insert_auxEN9__gnu_cxx17__normal_iteratorIPS1_S3_EERKS1_
	b .L626
.LVL931:
.L621:
.LBE7083:
.LBE7090:
.LBB7091:
.LBB7078:
	mr 4,1
	addi 3,31,264
	stwu 9,64(4)
	addi 5,1,16
	bl _ZNSt6vectorIP8GuiImageSaIS1_EE13_M_insert_auxEN9__gnu_cxx17__normal_iteratorIPS1_S3_EERKS1_
	b .L623
.LVL932:
.L641:
.L653:
	mr 31,3
.LVL933:
.LBE7078:
.LBE7091:
.LBE7092:
.LBE7093:
	.loc 4 195 0
	mr 3,29
	bl _ZdlPv
	mr 3,31
	bl _Unwind_Resume
.LVL934:
.L647:
	b .L653
.LVL935:
.L646:
	b .L653
.LVL936:
.L645:
	b .L653
.LVL937:
.L644:
	mr 31,3
.LVL938:
	.loc 4 207 0
	mr 3,30
	bl _ZdlPv
	mr 3,31
	bl _Unwind_Resume
.LEHE66:
.LVL939:
.L649:
.LBB7094:
.LBB7071:
.LBB7065:
.LBB7059:
.LBB7055:
.LBB7056:
.LBB7057:
	.loc 1 343 0
	lwz 9,176(31)
	mr 31,3
.LVL940:
	mr 3,30
	lwz 0,12(9)
	mtctr 0
	bctrl
.LVL941:
.L618:
.LBE7057:
.LBE7056:
.LBE7055:
.LBE7059:
.LBE7065:
.LBB7066:
.LBB7067:
.LBB7068:
	lwz 9,172(29)
	mr 3,28
	lwz 0,12(9)
	mtctr 0
	bctrl
	mr 3,31
.LEHB67:
	bl _Unwind_Resume
.LEHE67:
.LVL942:
.L648:
	mr 31,3
.LVL943:
	b .L618
.LVL944:
.L643:
	b .L653
.LVL945:
.L642:
	b .L653
.LBE7068:
.LBE7067:
.LBE7066:
.LBE7071:
.LBE7094:
.LBE7097:
	.cfi_endproc
.LFE1603:
	.section	.gcc_except_table
.LLSDA1603:
	.byte	0xff
	.byte	0xff
	.byte	0x1
	.uleb128 .LLSDACSE1603-.LLSDACSB1603
.LLSDACSB1603:
	.uleb128 .LEHB48-.LFB1603
	.uleb128 .LEHE48-.LEHB48
	.uleb128 0
	.uleb128 0
	.uleb128 .LEHB49-.LFB1603
	.uleb128 .LEHE49-.LEHB49
	.uleb128 .L641-.LFB1603
	.uleb128 0
	.uleb128 .LEHB50-.LFB1603
	.uleb128 .LEHE50-.LEHB50
	.uleb128 0
	.uleb128 0
	.uleb128 .LEHB51-.LFB1603
	.uleb128 .LEHE51-.LEHB51
	.uleb128 .L642-.LFB1603
	.uleb128 0
	.uleb128 .LEHB52-.LFB1603
	.uleb128 .LEHE52-.LEHB52
	.uleb128 0
	.uleb128 0
	.uleb128 .LEHB53-.LFB1603
	.uleb128 .LEHE53-.LEHB53
	.uleb128 .L643-.LFB1603
	.uleb128 0
	.uleb128 .LEHB54-.LFB1603
	.uleb128 .LEHE54-.LEHB54
	.uleb128 0
	.uleb128 0
	.uleb128 .LEHB55-.LFB1603
	.uleb128 .LEHE55-.LEHB55
	.uleb128 .L648-.LFB1603
	.uleb128 0
	.uleb128 .LEHB56-.LFB1603
	.uleb128 .LEHE56-.LEHB56
	.uleb128 .L649-.LFB1603
	.uleb128 0
	.uleb128 .LEHB57-.LFB1603
	.uleb128 .LEHE57-.LEHB57
	.uleb128 .L648-.LFB1603
	.uleb128 0
	.uleb128 .LEHB58-.LFB1603
	.uleb128 .LEHE58-.LEHB58
	.uleb128 0
	.uleb128 0
	.uleb128 .LEHB59-.LFB1603
	.uleb128 .LEHE59-.LEHB59
	.uleb128 .L644-.LFB1603
	.uleb128 0
	.uleb128 .LEHB60-.LFB1603
	.uleb128 .LEHE60-.LEHB60
	.uleb128 0
	.uleb128 0
	.uleb128 .LEHB61-.LFB1603
	.uleb128 .LEHE61-.LEHB61
	.uleb128 .L645-.LFB1603
	.uleb128 0
	.uleb128 .LEHB62-.LFB1603
	.uleb128 .LEHE62-.LEHB62
	.uleb128 0
	.uleb128 0
	.uleb128 .LEHB63-.LFB1603
	.uleb128 .LEHE63-.LEHB63
	.uleb128 .L646-.LFB1603
	.uleb128 0
	.uleb128 .LEHB64-.LFB1603
	.uleb128 .LEHE64-.LEHB64
	.uleb128 0
	.uleb128 0
	.uleb128 .LEHB65-.LFB1603
	.uleb128 .LEHE65-.LEHB65
	.uleb128 .L647-.LFB1603
	.uleb128 0
	.uleb128 .LEHB66-.LFB1603
	.uleb128 .LEHE66-.LEHB66
	.uleb128 0
	.uleb128 0
	.uleb128 .LEHB67-.LFB1603
	.uleb128 .LEHE67-.LEHB67
	.uleb128 0
	.uleb128 0
.LLSDACSE1603:
	.section	".text"
	.size	_ZN8PlayList4ShowEv, .-_ZN8PlayList4ShowEv
	.section	.text._ZNSt8_Rb_treeIPN7sigslot12_signal_baseINS0_15single_threadedEEES4_St9_IdentityIS4_ESt4lessIS4_ESaIS4_EE5eraseERKS4_,"axG",@progbits,_ZNSt8_Rb_treeIPN7sigslot12_signal_baseINS0_15single_threadedEEES4_St9_IdentityIS4_ESt4lessIS4_ESaIS4_EE5eraseERKS4_,comdat
	.align 2
	.weak	_ZNSt8_Rb_treeIPN7sigslot12_signal_baseINS0_15single_threadedEEES4_St9_IdentityIS4_ESt4lessIS4_ESaIS4_EE5eraseERKS4_
	.type	_ZNSt8_Rb_treeIPN7sigslot12_signal_baseINS0_15single_threadedEEES4_St9_IdentityIS4_ESt4lessIS4_ESaIS4_EE5eraseERKS4_, @function
_ZNSt8_Rb_treeIPN7sigslot12_signal_baseINS0_15single_threadedEEES4_St9_IdentityIS4_ESt4lessIS4_ESaIS4_EE5eraseERKS4_:
.LFB2385:
	.loc 16 1510 0
	.cfi_startproc
.LVL946:
	mflr 0
	stwu 1,-32(1)
.LCFI157:
	.cfi_def_cfa_offset 32
	.cfi_register 65, 0
	stw 28,16(1)
.LBB7150:
.LBB7151:
	.loc 16 1155 0
	addi 28,3,4
	.cfi_offset 28, -16
.LBE7151:
.LBE7150:
	.loc 16 1510 0
	stw 0,36(1)
	stw 26,8(1)
.LBB7210:
.LBB7172:
.LBB7152:
	.loc 16 1155 0
	mr 26,28
	.cfi_offset 26, -24
	.cfi_offset 65, 4
.LBE7152:
	.loc 4 503 0
	lwz 0,8(3)
.LBE7172:
.LBE7210:
	.loc 16 1510 0
	stw 29,20(1)
.LBB7211:
.LBB7173:
.LBB7165:
	.loc 16 1155 0
	mr 29,28
	.cfi_offset 29, -12
	.loc 16 1156 0
	cmpwi 7,0,0
.LBE7165:
.LBE7173:
.LBE7211:
	.loc 16 1510 0
	stw 30,24(1)
	stw 27,12(1)
	mr 30,3
	.cfi_offset 27, -20
	.cfi_offset 30, -8
.LVL947:
	stw 31,28(1)
.LBB7212:
.LBB7174:
.LBB7166:
	.loc 16 1156 0
	beq- 7,.L655
	.cfi_offset 31, -4
.LVL948:
	lwz 11,0(4)
	mr 26,0
	b .L666
.LVL949:
.L684:
.LBE7166:
	.loc 4 503 0
	lwz 26,12(26)
.LVL950:
.LBB7167:
	.loc 16 1156 0
	cmpwi 7,26,0
	beq- 7,.L683
.L666:
.LVL951:
.LBE7167:
	.loc 4 503 0
	lwz 9,16(26)
.LBB7168:
.LBB7153:
	.loc 16 1158 0
	cmplw 7,9,11
	blt- 7,.L684
.LVL952:
.LBB7154:
	.loc 16 1160 0
	ble- 7,.L658
.LVL953:
.LBE7154:
.LBE7153:
.LBE7168:
	.loc 4 503 0
	mr 29,26
	.loc 16 1161 0
	lwz 26,8(26)
.LVL954:
.LBB7169:
	.loc 16 1156 0
	cmpwi 7,26,0
	bne+ 7,.L666
.LVL955:
.L683:
	mr 26,29
.LVL956:
.L655:
.LBE7169:
.LBE7174:
.LBB7175:
.LBB7176:
.LBB7177:
	.loc 16 1500 0
	lwz 9,12(30)
.LBE7177:
.LBE7176:
.LBE7175:
.LBB7206:
.LBB7170:
	.loc 4 503 0
	lwz 27,20(30)
.LVL957:
.LBE7170:
.LBE7206:
.LBB7207:
.LBB7204:
.LBB7202:
	.loc 16 1500 0
	cmpw 7,26,9
	beq- 7,.L685
.L667:
.LVL958:
	.loc 16 1503 0
	cmpw 7,29,26
	beq- 7,.L674
.LVL959:
.L681:
.LBB7178:
.LBB7179:
	.loc 16 277 0
	mr 3,26
	bl _ZSt18_Rb_tree_incrementPKSt18_Rb_tree_node_base
.LBE7179:
.LBE7178:
.LBB7181:
.LBB7182:
.LBB7183:
	.loc 16 1489 0
	mr 4,28
.LBE7183:
.LBE7182:
.LBE7181:
.LBB7194:
.LBB7180:
	.loc 16 277 0
	mr 31,3
.LVL960:
.LBE7180:
.LBE7194:
.LBB7195:
.LBB7191:
.LBB7188:
	.loc 16 1489 0
	mr 3,26
.LVL961:
	bl _ZSt28_Rb_tree_rebalance_for_erasePSt18_Rb_tree_node_baseRS_
.LBE7188:
.LBE7191:
.LBE7195:
	.loc 16 277 0
	mr 26,31
.LVL962:
.LBB7196:
.LBB7192:
.LBB7189:
.LBB7184:
.LBB7185:
.LBB7186:
.LBB7187:
	.loc 7 98 0
	bl _ZdlPv
.LBE7187:
.LBE7186:
.LBE7185:
.LBE7184:
.LBE7189:
.LBE7192:
.LBE7196:
	.loc 16 1503 0
	cmpw 7,29,31
.LBB7197:
.LBB7193:
.LBB7190:
	.loc 16 1491 0
	lwz 9,20(30)
	addi 0,9,-1
	stw 0,20(30)
.LBE7190:
.LBE7193:
.LBE7197:
	.loc 16 1503 0
	bne+ 7,.L681
	subf 27,0,27
.LVL963:
.L669:
.LBE7202:
.LBE7204:
.LBE7207:
.LBE7212:
	.loc 16 1517 0
	lwz 0,36(1)
	mr 3,27
	lwz 26,8(1)
	mtlr 0
	lwz 27,12(1)
	lwz 28,16(1)
	lwz 29,20(1)
.LVL964:
	lwz 30,24(1)
.LVL965:
	lwz 31,28(1)
	addi 1,1,32
	.cfi_remember_state
.LCFI158:
	.cfi_def_cfa_offset 0
	.cfi_restore 31
	.cfi_restore 30
	.cfi_restore 29
	.cfi_restore 28
	.cfi_restore 27
	.cfi_restore 26
	blr
.LVL966:
.L658:
.LCFI159:
	.cfi_restore_state
.LBB7213:
.LBB7208:
	.loc 4 503 0
	lwz 10,8(26)
.LVL967:
	lwz 9,12(26)
.LVL968:
.L682:
.LBB7171:
.LBB7164:
.LBB7163:
.LBB7155:
.LBB7156:
.LBB7157:
	.loc 16 1089 0
	cmpwi 7,10,0
	beq- 7,.L659
.L686:
.LVL969:
	.loc 16 1090 0
	lwz 8,16(10)
	cmplw 7,8,11
	blt- 7,.L660
.LVL970:
.LBE7157:
	.loc 4 503 0
	mr 26,10
	.loc 16 1091 0
	lwz 10,8(10)
.LVL971:
.LBB7158:
	.loc 16 1089 0
	cmpwi 7,10,0
	bne+ 7,.L686
.LVL972:
.L659:
.LBE7158:
.LBE7156:
.LBB7159:
.LBB7160:
	.loc 16 1121 0
	cmpwi 7,9,0
	beq- 7,.L655
.LVL973:
	.loc 16 1122 0
	lwz 10,16(9)
	cmplw 7,10,11
	ble- 7,.L663
.LVL974:
.L687:
.LBE7160:
	.loc 4 503 0
	mr 29,9
	.loc 16 1123 0
	lwz 9,8(9)
.LVL975:
.LBB7161:
	.loc 16 1121 0
	cmpwi 7,9,0
	beq- 7,.L655
.LVL976:
	.loc 16 1122 0
	lwz 10,16(9)
	cmplw 7,10,11
	bgt- 7,.L687
.LVL977:
.L663:
.LBE7161:
	.loc 4 503 0
	lwz 9,12(9)
.LVL978:
	b .L659
.LVL979:
.L660:
.LBE7159:
.LBB7162:
	lwz 10,12(10)
.LVL980:
	b .L682
.LVL981:
.L685:
.LBE7162:
.LBE7155:
.LBE7163:
.LBE7164:
.LBE7171:
.LBE7208:
.LBB7209:
.LBB7205:
.LBB7203:
	.loc 16 1500 0
	cmpw 7,28,29
	bne+ 7,.L667
.LVL982:
.LBB7198:
.LBB7199:
.LBB7200:
.LBB7201:
	.loc 16 809 0
	mr 4,0
.LVL983:
	mr 3,30
.LVL984:
	bl _ZNSt8_Rb_treeIPN7sigslot12_signal_baseINS0_15single_threadedEEES4_St9_IdentityIS4_ESt4lessIS4_ESaIS4_EE8_M_eraseEPSt13_Rb_tree_nodeIS4_E
.LVL985:
	.loc 16 811 0
	li 0,0
	.loc 16 810 0
	stw 28,12(30)
.LVL986:
	.loc 16 811 0
	stw 0,8(30)
.LVL987:
	.loc 16 812 0
	stw 28,16(30)
	.loc 16 813 0
	stw 0,20(30)
	b .L669
.LVL988:
.L674:
.LBE7201:
.LBE7200:
.LBE7199:
.LBE7198:
	.loc 16 1503 0
	li 27,0
	b .L669
.LBE7203:
.LBE7205:
.LBE7209:
.LBE7213:
	.cfi_endproc
.LFE2385:
	.size	_ZNSt8_Rb_treeIPN7sigslot12_signal_baseINS0_15single_threadedEEES4_St9_IdentityIS4_ESt4lessIS4_ESaIS4_EE5eraseERKS4_, .-_ZNSt8_Rb_treeIPN7sigslot12_signal_baseINS0_15single_threadedEEES4_St9_IdentityIS4_ESt4lessIS4_ESaIS4_EE5eraseERKS4_
	.section	.text._ZN7sigslot7signal2IP8PlayListiNS_15single_threadedEED2Ev,"axG",@progbits,_ZN7sigslot7signal2IP8PlayListiNS_15single_threadedEED5Ev,comdat
	.align 2
	.weak	_ZN7sigslot7signal2IP8PlayListiNS_15single_threadedEED2Ev
	.type	_ZN7sigslot7signal2IP8PlayListiNS_15single_threadedEED2Ev, @function
_ZN7sigslot7signal2IP8PlayListiNS_15single_threadedEED2Ev:
.LFB1664:
	.loc 1 2235 0
	.cfi_startproc
	.cfi_personality 0,__gxx_personality_v0
	.cfi_lsda 0,.LLSDA1664
.LVL989:
	mflr 0
	stwu 1,-40(1)
.LCFI160:
	.cfi_def_cfa_offset 40
	.cfi_register 65, 0
.LBB7311:
.LBB7312:
.LBB7313:
.LBB7314:
	.loc 1 826 0
	lis 9,_ZTVN7sigslot13_signal_base2IP8PlayListiNS_15single_threadedEEE+8@ha
.LBE7314:
.LBE7313:
.LBE7312:
.LBE7311:
	.loc 1 2235 0
	stw 28,24(1)
	mr 28,3
	.cfi_offset 28, -16
.LVL990:
	stw 0,44(1)
.LBB7412:
.LBB7407:
.LBB7402:
.LBB7397:
	.loc 1 826 0
	la 0,_ZTVN7sigslot13_signal_base2IP8PlayListiNS_15single_threadedEEE+8@l(9)
	.cfi_offset 65, 4
.LBE7397:
.LBE7402:
.LBE7407:
.LBE7412:
	.loc 1 2235 0
	stw 29,28(1)
	addi 29,3,4
	.cfi_offset 29, -12
	stw 30,32(1)
	stw 31,36(1)
.LBB7413:
.LBB7408:
.LBB7403:
.LBB7398:
	.loc 1 826 0
	stw 0,0(3)
.LVL991:
.LEHB68:
.LBB7315:
.LBB7316:
.LBB7317:
.LBB7318:
	.loc 1 338 0
	.cfi_offset 31, -4
	.cfi_offset 30, -8
	bl _ZN7sigslot15single_threaded4lockEv
.LEHE68:
.LVL992:
.LBE7318:
.LBE7317:
.LBE7316:
	.loc 4 503 0
	mr 29,28
.LVL993:
	lwzu 31,4(29)
.LVL994:
.LBB7349:
	.loc 1 834 0
	cmpw 7,31,29
	beq- 7,.L689
.LVL995:
.L727:
	.loc 1 836 0
	lwz 3,8(31)
	lwz 9,0(3)
	lwz 0,8(9)
	mtctr 0
.LEHB69:
	bctrl
.LBB7319:
.LBB7320:
.LBB7321:
.LBB7322:
	.loc 1 338 0
	lwz 9,0(3)
.LBE7322:
.LBE7321:
.LBE7320:
.LBE7319:
	.loc 1 836 0
	mr 30,3
.LVL996:
	stw 28,8(1)
.LVL997:
.LBB7331:
.LBB7330:
.LBB7324:
.LBB7323:
	.loc 1 338 0
	lwz 0,8(9)
	mtctr 0
	bctrl
.LVL998:
.LBE7323:
.LBE7324:
.LBB7325:
.LBB7326:
	.loc 17 528 0
	addi 3,30,4
	addi 4,1,8
	bl _ZNSt8_Rb_treeIPN7sigslot12_signal_baseINS0_15single_threadedEEES4_St9_IdentityIS4_ESt4lessIS4_ESaIS4_EE5eraseERKS4_
.LVL999:
.LBE7326:
.LBE7325:
.LBB7327:
.LBB7328:
.LBB7329:
	.loc 1 343 0
	lwz 9,0(30)
	mr 3,30
	lwz 0,12(9)
	mtctr 0
	bctrl
.LVL1000:
.LBE7329:
.LBE7328:
.LBE7327:
.LBE7330:
.LBE7331:
	.loc 1 837 0
	lwz 3,8(31)
	cmpwi 7,3,0
	beq- 7,.L691
	lwz 9,0(3)
	lwz 0,4(9)
	mtctr 0
	bctrl
.LEHE69:
.L691:
.LVL1001:
.LBB7332:
.LBB7333:
	.loc 6 234 0
	lwz 31,0(31)
.LVL1002:
.LBE7333:
.LBE7332:
	.loc 1 834 0
	cmpw 7,29,31
	bne+ 7,.L727
.LBE7349:
	.loc 4 503 0
	lwz 31,4(28)
.LVL1003:
.LBB7350:
.LBB7334:
.LBB7335:
	.loc 6 1162 0
	cmpw 7,29,31
	bne+ 7,.L729
	b .L689
.LVL1004:
.L722:
	.loc 6 1163 0
	mr 31,30
.LVL1005:
.L729:
.LBB7336:
.LBB7337:
	.file 20 "d:\\devkitpro\\devkitppc\\bin\\../lib/gcc/powerpc-eabi/4.6.3/../../../../powerpc-eabi/include/c++/4.6.3/bits/list.tcc"
	.loc 20 112 0
	lwz 30,0(31)
.LVL1006:
.LBB7338:
.LBB7339:
	.loc 6 1532 0
	mr 3,31
	bl _ZNSt8__detail15_List_node_base9_M_unhookEv
.LVL1007:
.LBB7340:
.LBB7341:
.LBB7342:
	.loc 7 98 0
	mr 3,31
	bl _ZdlPv
.LVL1008:
.LBE7342:
.LBE7341:
.LBE7340:
.LBE7339:
.LBE7338:
.LBE7337:
.LBE7336:
	.loc 6 1162 0
	cmpw 7,29,30
	bne+ 7,.L722
.LVL1009:
.L689:
.LBE7335:
.LBE7334:
.LBB7343:
.LBB7344:
.LBB7345:
	.loc 1 343 0
	lwz 9,0(28)
	mr 3,28
	lwz 0,12(9)
	mtctr 0
.LEHB70:
	bctrl
.LEHE70:
.LBE7345:
.LBE7344:
.LBE7343:
.LBE7350:
.LBE7315:
.LBB7352:
.LBB7353:
.LBB7354:
.LBB7355:
.LBB7356:
.LBB7357:
	.loc 20 70 0
	lwz 3,4(28)
.LVL1010:
	.loc 20 71 0
	cmpw 7,3,29
	bne+ 7,.L731
	b .L707
.LVL1011:
.L723:
	.loc 20 74 0
	mr 3,31
.LVL1012:
.L731:
.LBB7358:
	lwz 31,0(3)
.LVL1013:
.LBB7359:
.LBB7360:
.LBB7361:
	.loc 7 98 0
	bl _ZdlPv
.LVL1014:
.LBE7361:
.LBE7360:
.LBE7359:
.LBE7358:
	.loc 20 71 0
	cmpw 7,31,29
	bne+ 7,.L723
.LVL1015:
.L707:
.LBE7357:
.LBE7356:
.LBE7355:
.LBE7354:
.LBE7353:
.LBE7352:
.LBB7362:
.LBB7363:
.LBB7364:
.LBB7365:
.LBB7366:
.LBB7367:
	.loc 1 105 0
	lis 9,_ZTVN7sigslot15single_threadedE+8@ha
.LBE7367:
.LBE7366:
.LBE7365:
.LBE7364:
.LBE7363:
.LBE7362:
.LBE7398:
.LBE7403:
.LBE7408:
.LBE7413:
	.loc 1 2238 0
	lwz 29,28(1)
.LVL1016:
.LBB7414:
.LBB7409:
.LBB7404:
.LBB7399:
.LBB7378:
.LBB7376:
.LBB7374:
.LBB7372:
.LBB7370:
.LBB7368:
	.loc 1 105 0
	la 0,_ZTVN7sigslot15single_threadedE+8@l(9)
.LBE7368:
.LBE7370:
.LBE7372:
.LBE7374:
.LBE7376:
.LBE7378:
.LBE7399:
.LBE7404:
.LBE7409:
.LBE7414:
	.loc 1 2238 0
	lwz 30,32(1)
.LBB7415:
.LBB7410:
.LBB7405:
.LBB7400:
.LBB7379:
.LBB7377:
.LBB7375:
.LBB7373:
.LBB7371:
.LBB7369:
	.loc 1 105 0
	stw 0,0(28)
.LBE7369:
.LBE7371:
.LBE7373:
.LBE7375:
.LBE7377:
.LBE7379:
.LBE7400:
.LBE7405:
.LBE7410:
.LBE7415:
	.loc 1 2238 0
	lwz 0,44(1)
	lwz 28,24(1)
.LVL1017:
	mtlr 0
	lwz 31,36(1)
	addi 1,1,40
	.cfi_remember_state
.LCFI161:
	.cfi_def_cfa_offset 0
	.cfi_restore 31
	.cfi_restore 30
	.cfi_restore 29
	.cfi_restore 28
	blr
.LVL1018:
.L725:
.LCFI162:
	.cfi_restore_state
	mr 31,3
.L699:
.LBB7416:
.LBB7411:
.LBB7406:
.LBB7401:
.LBB7380:
.LBB7381:
.LBB7382:
.LBB7383:
.LBB7384:
.LBB7385:
	.loc 20 70 0
	lwz 3,4(28)
.LVL1019:
	.loc 20 71 0
	cmpw 7,3,29
	beq- 7,.L716
.LVL1020:
.L732:
.LBB7386:
	.loc 20 74 0
	lwz 30,0(3)
.LVL1021:
.LBB7387:
.LBB7388:
.LBB7389:
	.loc 7 98 0
	bl _ZdlPv
.LVL1022:
.LBE7389:
.LBE7388:
.LBE7387:
.LBE7386:
	.loc 20 71 0
	cmpw 7,30,29
	beq- 7,.L716
	.loc 20 74 0
	mr 3,30
	b .L732
.LVL1023:
.L726:
.LBE7385:
.LBE7384:
.LBE7383:
.LBE7382:
.LBE7381:
.LBE7380:
.LBB7390:
.LBB7351:
.LBB7346:
.LBB7347:
.LBB7348:
	.loc 1 343 0
	lwz 9,0(28)
	mr 31,3
.LVL1024:
	mr 3,28
	lwz 0,12(9)
	mtctr 0
	bctrl
	b .L699
.LVL1025:
.L716:
.LBE7348:
.LBE7347:
.LBE7346:
.LBE7351:
.LBE7390:
.LBB7391:
.LBB7392:
.LBB7393:
.LBB7394:
.LBB7395:
.LBB7396:
	.loc 1 105 0
	lis 9,_ZTVN7sigslot15single_threadedE+8@ha
	mr 3,31
	la 0,_ZTVN7sigslot15single_threadedE+8@l(9)
	stw 0,0(28)
.LEHB71:
	bl _Unwind_Resume
.LEHE71:
.LBE7396:
.LBE7395:
.LBE7394:
.LBE7393:
.LBE7392:
.LBE7391:
.LBE7401:
.LBE7406:
.LBE7411:
.LBE7416:
	.cfi_endproc
.LFE1664:
	.section	.gcc_except_table
.LLSDA1664:
	.byte	0xff
	.byte	0xff
	.byte	0x1
	.uleb128 .LLSDACSE1664-.LLSDACSB1664
.LLSDACSB1664:
	.uleb128 .LEHB68-.LFB1664
	.uleb128 .LEHE68-.LEHB68
	.uleb128 .L725-.LFB1664
	.uleb128 0
	.uleb128 .LEHB69-.LFB1664
	.uleb128 .LEHE69-.LEHB69
	.uleb128 .L726-.LFB1664
	.uleb128 0
	.uleb128 .LEHB70-.LFB1664
	.uleb128 .LEHE70-.LEHB70
	.uleb128 .L725-.LFB1664
	.uleb128 0
	.uleb128 .LEHB71-.LFB1664
	.uleb128 .LEHE71-.LEHB71
	.uleb128 0
	.uleb128 0
.LLSDACSE1664:
	.section	.text._ZN7sigslot7signal2IP8PlayListiNS_15single_threadedEED2Ev,"axG",@progbits,_ZN7sigslot7signal2IP8PlayListiNS_15single_threadedEED5Ev,comdat
	.size	_ZN7sigslot7signal2IP8PlayListiNS_15single_threadedEED2Ev, .-_ZN7sigslot7signal2IP8PlayListiNS_15single_threadedEED2Ev
	.section	".text"
	.align 2
	.globl _ZN8PlayListC2Ev
	.type	_ZN8PlayListC2Ev, @function
_ZN8PlayListC2Ev:
.LFB1593:
	.loc 4 36 0
	.cfi_startproc
	.cfi_personality 0,__gxx_personality_v0
	.cfi_lsda 0,.LLSDA1593
.LVL1026:
	stwu 1,-16(1)
.LCFI163:
	.cfi_def_cfa_offset 16
	mflr 0
.LBB7514:
	.loc 4 37 0
	li 4,0
	li 5,0
.LBE7514:
	.loc 4 36 0
	stw 31,12(1)
.LBB7611:
	.loc 4 37 0
	li 6,0
.LBE7611:
	.loc 4 36 0
	mr 31,3
	.cfi_offset 31, -4
	.cfi_register 65, 0
	stw 0,20(1)
	stw 30,8(1)
.LEHB72:
.LBB7612:
	.loc 4 37 0
	.cfi_offset 30, -8
	.cfi_offset 65, 4
	bl _ZN8GuiFrameC2EiiPS_
.LEHE72:
.LVL1027:
.LBB7515:
.LBB7516:
.LBB7517:
.LBB7518:
.LBB7519:
.LBB7520:
.LBB7521:
.LBB7522:
	.loc 6 380 0
	addi 9,31,208
.LBE7522:
.LBE7521:
.LBE7520:
.LBE7519:
.LBE7518:
.LBE7517:
.LBE7516:
.LBE7515:
	.loc 4 37 0
	lis 11,_ZTV8PlayList+8@ha
	la 11,_ZTV8PlayList+8@l(11)
.LBB7532:
.LBB7529:
.LBB7528:
.LBB7527:
.LBB7526:
.LBB7525:
.LBB7524:
.LBB7523:
	.loc 6 380 0
	stw 9,208(31)
	.loc 6 381 0
	stw 9,212(31)
.LBE7523:
.LBE7524:
.LBE7525:
.LBE7526:
.LBE7527:
.LBE7528:
	.loc 1 2225 0
	lis 9,_ZTVN7sigslot7signal2IP8PlayListiNS_15single_threadedEEE+8@ha
.LBE7529:
.LBE7532:
.LBB7533:
.LBB7534:
.LBB7535:
.LBB7536:
.LBB7537:
.LBB7538:
	.loc 16 445 0
	li 0,0
.LBB7539:
.LBB7540:
	.loc 16 459 0
	addi 10,31,184
.LBE7540:
.LBE7539:
.LBE7538:
.LBE7537:
.LBE7536:
.LBE7535:
.LBE7534:
.LBE7533:
	.loc 4 37 0
	addi 8,11,228
.LBB7558:
.LBB7530:
	.loc 1 2225 0
	la 9,_ZTVN7sigslot7signal2IP8PlayListiNS_15single_threadedEEE+8@l(9)
.LBE7530:
.LBE7558:
.LBB7559:
.LBB7555:
.LBB7552:
.LBB7549:
.LBB7546:
.LBB7543:
	.loc 16 445 0
	stw 0,184(31)
.LBE7543:
.LBE7546:
.LBE7549:
.LBE7552:
.LBE7555:
.LBE7559:
	.loc 4 39 0
	mr 3,31
.LBB7560:
.LBB7556:
.LBB7553:
.LBB7550:
.LBB7547:
.LBB7544:
	.loc 16 445 0
	stw 0,188(31)
.LBE7544:
.LBE7547:
.LBE7550:
.LBE7553:
.LBE7556:
.LBE7560:
	.loc 4 39 0
	li 4,0
.LBB7561:
.LBB7557:
.LBB7554:
.LBB7551:
.LBB7548:
.LBB7545:
	.loc 16 445 0
	stw 0,200(31)
.LVL1028:
.LBB7542:
.LBB7541:
	.loc 16 459 0
	stw 10,192(31)
	.loc 16 460 0
	stw 10,196(31)
.LBE7541:
.LBE7542:
.LBE7545:
.LBE7548:
.LBE7551:
.LBE7554:
.LBE7557:
.LBE7561:
	.loc 4 37 0
	stw 11,0(31)
	stw 8,176(31)
.LVL1029:
.LBB7562:
.LBB7531:
	.loc 1 2225 0
	stw 9,204(31)
.LVL1030:
.LBE7531:
.LBE7562:
.LBB7563:
.LBB7564:
.LBB7565:
.LBB7566:
	.loc 5 83 0
	stw 0,228(31)
	stw 0,232(31)
	stw 0,236(31)
.LVL1031:
.LBE7566:
.LBE7565:
.LBE7564:
.LBE7563:
.LBB7567:
.LBB7568:
.LBB7569:
.LBB7570:
	stw 0,240(31)
	stw 0,244(31)
	stw 0,248(31)
.LVL1032:
.LBE7570:
.LBE7569:
.LBE7568:
.LBE7567:
.LBB7571:
.LBB7572:
.LBB7573:
.LBB7574:
	stw 0,252(31)
	stw 0,256(31)
	stw 0,260(31)
.LVL1033:
.LBE7574:
.LBE7573:
.LBE7572:
.LBE7571:
.LBB7575:
.LBB7576:
.LBB7577:
.LBB7578:
	stw 0,264(31)
	stw 0,268(31)
	stw 0,272(31)
.LEHB73:
.LBE7578:
.LBE7577:
.LBE7576:
.LBE7575:
	.loc 4 39 0
	bl _ZN8GuiFrame10SetVisibleEb
.LEHE73:
	.loc 4 40 0
	li 0,0
	.loc 4 42 0
	li 9,1
	.loc 4 40 0
	stw 0,216(31)
	.loc 4 41 0
	stw 0,220(31)
	.loc 4 47 0
	stw 0,292(31)
	.loc 4 48 0
	stw 0,296(31)
	.loc 4 49 0
	stw 0,280(31)
	.loc 4 50 0
	stw 0,284(31)
	.loc 4 51 0
	stw 0,304(31)
	.loc 4 52 0
	stw 0,288(31)
	.loc 4 53 0
	stw 0,276(31)
	.loc 4 54 0
	stw 0,300(31)
.LBE7612:
	.loc 4 55 0
	lwz 0,20(1)
.LBB7613:
	.loc 4 42 0
	stb 9,225(31)
.LBE7613:
	.loc 4 55 0
	mtlr 0
.LBB7614:
	.loc 4 43 0
	stb 9,224(31)
	.loc 4 44 0
	li 9,332
.LBE7614:
	.loc 4 55 0
	lwz 30,8(1)
.LBB7615:
	.loc 4 44 0
	stw 9,36(31)
	.loc 4 45 0
	li 9,352
	stw 9,40(31)
.LBE7615:
	.loc 4 55 0
	lwz 31,12(1)
.LVL1034:
	addi 1,1,16
	.cfi_remember_state
.LCFI164:
	.cfi_def_cfa_offset 0
	.cfi_restore 31
	.cfi_restore 30
	blr
.LVL1035:
.L755:
.LCFI165:
	.cfi_restore_state
.LBB7616:
.LBB7579:
	.loc 4 503 0
	lwz 0,264(31)
	mr 30,3
.LVL1036:
.LBB7580:
.LBB7581:
.LBB7582:
.LBB7583:
.LBB7584:
	.loc 5 155 0
	cmpwi 7,0,0
	beq- 7,.L739
.LVL1037:
.LBB7585:
.LBB7586:
	.loc 7 98 0
	mr 3,0
	bl _ZdlPv
.LVL1038:
.L739:
.LBE7586:
.LBE7585:
.LBE7584:
.LBE7583:
.LBE7582:
.LBE7581:
.LBE7580:
.LBE7579:
.LBB7587:
	.loc 4 503 0
	lwz 3,252(31)
.LVL1039:
.LBB7588:
.LBB7589:
.LBB7590:
.LBB7591:
.LBB7592:
	.loc 5 155 0
	cmpwi 7,3,0
	beq- 7,.L744
.LVL1040:
.LBB7593:
.LBB7594:
	.loc 7 98 0
	bl _ZdlPv
.LVL1041:
.L744:
.LBE7594:
.LBE7593:
.LBE7592:
.LBE7591:
.LBE7590:
.LBE7589:
.LBE7588:
.LBE7587:
.LBB7595:
	.loc 4 503 0
	lwz 3,240(31)
.LVL1042:
.LBB7596:
.LBB7597:
.LBB7598:
.LBB7599:
.LBB7600:
	.loc 5 155 0
	cmpwi 7,3,0
	beq- 7,.L749
.LVL1043:
.LBB7601:
.LBB7602:
	.loc 7 98 0
	bl _ZdlPv
.LVL1044:
.L749:
.LBE7602:
.LBE7601:
.LBE7600:
.LBE7599:
.LBE7598:
.LBE7597:
.LBE7596:
.LBE7595:
.LBB7603:
	.loc 4 503 0
	lwz 3,228(31)
.LVL1045:
.LBB7604:
.LBB7605:
.LBB7606:
.LBB7607:
.LBB7608:
	.loc 5 155 0
	cmpwi 7,3,0
	beq- 7,.L754
.LVL1046:
.LBB7609:
.LBB7610:
	.loc 7 98 0
	bl _ZdlPv
.LVL1047:
.L754:
.LBE7610:
.LBE7609:
.LBE7608:
.LBE7607:
.LBE7606:
.LBE7605:
.LBE7604:
.LBE7603:
	.loc 4 37 0
	addi 3,31,204
	bl _ZN7sigslot7signal2IP8PlayListiNS_15single_threadedEED1Ev
	addi 3,31,176
	bl _ZN7sigslot9has_slotsINS_15single_threadedEED2Ev
	mr 3,31
	bl _ZN8GuiFrameD2Ev
	mr 3,30
.LEHB74:
	bl _Unwind_Resume
.LEHE74:
.LBE7616:
	.cfi_endproc
.LFE1593:
	.section	.gcc_except_table
.LLSDA1593:
	.byte	0xff
	.byte	0xff
	.byte	0x1
	.uleb128 .LLSDACSE1593-.LLSDACSB1593
.LLSDACSB1593:
	.uleb128 .LEHB72-.LFB1593
	.uleb128 .LEHE72-.LEHB72
	.uleb128 0
	.uleb128 0
	.uleb128 .LEHB73-.LFB1593
	.uleb128 .LEHE73-.LEHB73
	.uleb128 .L755-.LFB1593
	.uleb128 0
	.uleb128 .LEHB74-.LFB1593
	.uleb128 .LEHE74-.LEHB74
	.uleb128 0
	.uleb128 0
.LLSDACSE1593:
	.section	".text"
	.size	_ZN8PlayListC2Ev, .-_ZN8PlayListC2Ev
	.align 2
	.globl _ZThn176_N8PlayListD1Ev
	.type	_ZThn176_N8PlayListD1Ev, @function
_ZThn176_N8PlayListD1Ev:
.LFB2864:
	.cfi_startproc
	addi 3,3,-176
	b .LTHUNK0
	.cfi_endproc
.LFE2864:
	.size	_ZThn176_N8PlayListD1Ev, .-_ZThn176_N8PlayListD1Ev
	.align 2
	.globl _ZN8PlayListD2Ev
	.type	_ZN8PlayListD2Ev, @function
_ZN8PlayListD2Ev:
.LFB1596:
	.loc 4 57 0
	.cfi_startproc
	.cfi_personality 0,__gxx_personality_v0
	.cfi_lsda 0,.LLSDA1596
.LVL1048:
	mflr 0
	stwu 1,-48(1)
.LCFI166:
	.cfi_def_cfa_offset 48
	.cfi_register 65, 0
.LBB7921:
	lis 9,_ZTV8PlayList+8@ha
	la 9,_ZTV8PlayList+8@l(9)
.LBE7921:
	stw 27,28(1)
	stw 0,52(1)
.LBB8198:
	addi 0,9,228
	.cfi_offset 65, 4
	.cfi_offset 27, -20
.LBE8198:
	stw 28,32(1)
	mr 27,3
	stw 29,36(1)
	stw 30,40(1)
	stw 31,44(1)
.LBB8199:
	.loc 4 57 0
	stw 9,0(3)
	stw 0,176(3)
.LEHB75:
	.loc 4 59 0
	.cfi_offset 31, -4
	.cfi_offset 30, -8
	.cfi_offset 29, -12
	.cfi_offset 28, -16
	bl _ZN8PlayList4HideEv
.LVL1049:
	.loc 4 60 0
	mr 3,27
	bl _ZN8PlayList4SaveEv
	.loc 4 61 0
	mr 3,27
	bl _ZN8PlayList9ClearListEv
.LEHE75:
.LVL1050:
.LBB7922:
	.loc 4 503 0
	lwz 3,264(27)
.LVL1051:
.LBB7923:
.LBB7924:
.LBB7925:
.LBB7926:
.LBB7927:
	.loc 5 155 0
	cmpwi 7,3,0
	beq- 7,.L761
.LVL1052:
.LBB7928:
.LBB7929:
	.loc 7 98 0
	bl _ZdlPv
.LVL1053:
.L761:
.LBE7929:
.LBE7928:
.LBE7927:
.LBE7926:
.LBE7925:
.LBE7924:
.LBE7923:
.LBE7922:
.LBB7930:
	.loc 4 503 0
	lwz 3,252(27)
.LVL1054:
.LBB7931:
.LBB7932:
.LBB7933:
.LBB7934:
.LBB7935:
	.loc 5 155 0
	cmpwi 7,3,0
	beq- 7,.L766
.LVL1055:
.LBB7936:
.LBB7937:
	.loc 7 98 0
	bl _ZdlPv
.LVL1056:
.L766:
.LBE7937:
.LBE7936:
.LBE7935:
.LBE7934:
.LBE7933:
.LBE7932:
.LBE7931:
.LBE7930:
.LBB7938:
	.loc 4 503 0
	lwz 3,240(27)
.LVL1057:
.LBB7939:
.LBB7940:
.LBB7941:
.LBB7942:
.LBB7943:
	.loc 5 155 0
	cmpwi 7,3,0
	beq- 7,.L771
.LVL1058:
.LBB7944:
.LBB7945:
	.loc 7 98 0
	bl _ZdlPv
.LVL1059:
.L771:
.LBE7945:
.LBE7944:
.LBE7943:
.LBE7942:
.LBE7941:
.LBE7940:
.LBE7939:
.LBE7938:
.LBB7946:
	.loc 4 503 0
	lwz 3,228(27)
.LVL1060:
.LBB7947:
.LBB7948:
.LBB7949:
.LBB7950:
.LBB7951:
	.loc 5 155 0
	cmpwi 7,3,0
	beq- 7,.L776
.LVL1061:
.LBB7952:
.LBB7953:
	.loc 7 98 0
	bl _ZdlPv
.LVL1062:
.L776:
.LBE7953:
.LBE7952:
.LBE7951:
.LBE7950:
.LBE7949:
.LBE7948:
.LBE7947:
.LBE7946:
.LBB7954:
.LBB7955:
.LBB7956:
.LBB7957:
.LBB7958:
.LBB7959:
	.loc 1 826 0
	lis 9,_ZTVN7sigslot13_signal_base2IP8PlayListiNS_15single_threadedEEE+8@ha
.LBE7959:
.LBE7958:
.LBE7957:
	.loc 1 2238 0
	addi 28,27,204
.LVL1063:
.LBB8056:
.LBB8051:
.LBB8046:
	.loc 1 826 0
	la 0,_ZTVN7sigslot13_signal_base2IP8PlayListiNS_15single_threadedEEE+8@l(9)
.LBB7960:
.LBB7961:
.LBB7962:
.LBB7963:
	.loc 1 338 0
	lis 9,_ZN7sigslot15single_threaded4lockEv@ha
	la 9,_ZN7sigslot15single_threaded4lockEv@l(9)
.LBE7963:
.LBE7962:
.LBE7961:
.LBE7960:
	.loc 1 826 0
	stw 0,204(27)
.LVL1064:
.LBB8000:
.LBB7996:
.LBB7965:
.LBB7964:
	.loc 1 338 0
	mr 3,28
	mtctr 9
	addi 29,27,208
.LEHB76:
	bctrl
.LEHE76:
.LBE7964:
.LBE7965:
.LBE7996:
	.loc 4 503 0
	mr 29,27
	lwzu 31,208(29)
.LVL1065:
.LBB7997:
	.loc 1 834 0
	cmpw 7,31,29
	beq- 7,.L777
.LVL1066:
.L868:
	.loc 1 836 0
	lwz 3,8(31)
	lwz 9,0(3)
	lwz 0,8(9)
	mtctr 0
.LEHB77:
	bctrl
.LBB7966:
.LBB7967:
.LBB7968:
.LBB7969:
	.loc 1 338 0
	lwz 9,0(3)
.LBE7969:
.LBE7968:
.LBE7967:
.LBE7966:
	.loc 1 836 0
	mr 30,3
.LVL1067:
	stw 28,8(1)
.LVL1068:
.LBB7978:
.LBB7977:
.LBB7971:
.LBB7970:
	.loc 1 338 0
	lwz 0,8(9)
	mtctr 0
	bctrl
.LVL1069:
.LBE7970:
.LBE7971:
.LBB7972:
.LBB7973:
	.loc 17 528 0
	addi 3,30,4
	addi 4,1,8
	bl _ZNSt8_Rb_treeIPN7sigslot12_signal_baseINS0_15single_threadedEEES4_St9_IdentityIS4_ESt4lessIS4_ESaIS4_EE5eraseERKS4_
.LVL1070:
.LBE7973:
.LBE7972:
.LBB7974:
.LBB7975:
.LBB7976:
	.loc 1 343 0
	lwz 9,0(30)
	mr 3,30
	lwz 0,12(9)
	mtctr 0
	bctrl
.LVL1071:
.LBE7976:
.LBE7975:
.LBE7974:
.LBE7977:
.LBE7978:
	.loc 1 837 0
	lwz 3,8(31)
	cmpwi 7,3,0
	beq- 7,.L779
	lwz 9,0(3)
	lwz 0,4(9)
	mtctr 0
	bctrl
.LEHE77:
.L779:
.LVL1072:
.LBB7979:
.LBB7980:
	.loc 6 234 0
	lwz 31,0(31)
.LVL1073:
.LBE7980:
.LBE7979:
	.loc 1 834 0
	cmpw 7,29,31
	bne+ 7,.L868
.LBE7997:
	.loc 4 503 0
	lwz 31,208(27)
.LVL1074:
.LBB7998:
.LBB7981:
.LBB7982:
	.loc 6 1162 0
	cmpw 7,29,31
	bne+ 7,.L871
	b .L777
.LVL1075:
.L858:
	.loc 6 1163 0
	mr 31,30
.LVL1076:
.L871:
.LBB7983:
.LBB7984:
	.loc 20 112 0
	lwz 30,0(31)
.LVL1077:
.LBB7985:
.LBB7986:
	.loc 6 1532 0
	mr 3,31
	bl _ZNSt8__detail15_List_node_base9_M_unhookEv
.LVL1078:
.LBB7987:
.LBB7988:
.LBB7989:
	.loc 7 98 0
	mr 3,31
	bl _ZdlPv
.LVL1079:
.LBE7989:
.LBE7988:
.LBE7987:
.LBE7986:
.LBE7985:
.LBE7984:
.LBE7983:
	.loc 6 1162 0
	cmpw 7,29,30
	bne+ 7,.L858
.LVL1080:
.L777:
.LBE7982:
.LBE7981:
.LBB7990:
.LBB7991:
.LBB7992:
	.loc 1 343 0
	lwz 9,204(27)
	mr 3,28
	lwz 0,12(9)
	mtctr 0
.LEHB78:
	bctrl
.LEHE78:
.LBE7992:
.LBE7991:
.LBE7990:
.LBE7998:
.LBE8000:
.LBB8001:
.LBB8002:
.LBB8003:
.LBB8004:
.LBB8005:
.LBB8006:
	.loc 20 70 0
	lwz 3,208(27)
.LVL1081:
	.loc 20 71 0
	cmpw 7,29,3
	bne+ 7,.L873
	b .L795
.LVL1082:
.L859:
	.loc 20 74 0
	mr 3,31
.LVL1083:
.L873:
.LBB8007:
	lwz 31,0(3)
.LVL1084:
.LBB8008:
.LBB8009:
.LBB8010:
	.loc 7 98 0
	bl _ZdlPv
.LVL1085:
.LBE8010:
.LBE8009:
.LBE8008:
.LBE8007:
	.loc 20 71 0
	cmpw 7,29,31
	bne+ 7,.L859
.LVL1086:
.L795:
.LBE8006:
.LBE8005:
.LBE8004:
.LBE8003:
.LBE8002:
.LBE8001:
.LBE8046:
.LBE8051:
.LBE8056:
.LBE7956:
.LBE7955:
.LBE7954:
.LBB8069:
.LBB8070:
.LBB8071:
	.loc 1 516 0
	lis 9,_ZTVN7sigslot9has_slotsINS_15single_threadedEEE+8@ha
.LBE8071:
.LBE8070:
.LBE8069:
.LBB8158:
.LBB8065:
.LBB8061:
.LBB8057:
.LBB8052:
.LBB8047:
.LBB8011:
.LBB8012:
.LBB8013:
.LBB8014:
.LBB8015:
.LBB8016:
	.loc 1 105 0
	lis 28,_ZTVN7sigslot15single_threadedE+8@ha
.LBE8016:
.LBE8015:
.LBE8014:
.LBE8013:
.LBE8012:
.LBE8011:
.LBE8047:
.LBE8052:
.LBE8057:
.LBE8061:
.LBE8065:
.LBE8158:
.LBB8159:
.LBB8154:
.LBB8150:
	.loc 1 516 0
	la 0,_ZTVN7sigslot9has_slotsINS_15single_threadedEEE+8@l(9)
.LBB8072:
.LBB8073:
.LBB8074:
.LBB8075:
	.loc 1 338 0
	lis 9,_ZN7sigslot15single_threaded4lockEv@ha
.LBE8075:
.LBE8074:
.LBE8073:
.LBE8072:
.LBE8150:
.LBE8154:
.LBE8159:
.LBB8160:
.LBB8066:
.LBB8062:
.LBB8058:
.LBB8053:
.LBB8048:
.LBB8027:
.LBB8025:
.LBB8023:
.LBB8021:
.LBB8019:
.LBB8017:
	.loc 1 105 0
	la 28,_ZTVN7sigslot15single_threadedE+8@l(28)
.LBE8017:
.LBE8019:
.LBE8021:
.LBE8023:
.LBE8025:
.LBE8027:
.LBE8048:
.LBE8053:
.LBE8058:
.LBE8062:
.LBE8066:
.LBE8160:
	.loc 4 57 0
	addi 29,27,176
.LVL1087:
.LBB8161:
.LBB8155:
.LBB8151:
.LBB8130:
.LBB8127:
.LBB8078:
.LBB8076:
	.loc 1 338 0
	la 9,_ZN7sigslot15single_threaded4lockEv@l(9)
.LBE8076:
.LBE8078:
.LBE8127:
.LBE8130:
.LBE8151:
.LBE8155:
.LBE8161:
.LBB8162:
.LBB8067:
.LBB8063:
.LBB8059:
.LBB8054:
.LBB8049:
.LBB8028:
.LBB8026:
.LBB8024:
.LBB8022:
.LBB8020:
.LBB8018:
	.loc 1 105 0
	stw 28,204(27)
.LBE8018:
.LBE8020:
.LBE8022:
.LBE8024:
.LBE8026:
.LBE8028:
.LBE8049:
.LBE8054:
.LBE8059:
.LBE8063:
.LBE8067:
.LBE8162:
.LBB8163:
.LBB8156:
.LBB8152:
	.loc 1 516 0
	stw 0,176(27)
.LVL1088:
.LBB8131:
.LBB8128:
.LBB8079:
.LBB8077:
	.loc 1 338 0
	mr 3,29
	mtctr 9
	addi 31,27,180
.LEHB79:
	bctrl
.LEHE79:
.LVL1089:
.LBE8077:
.LBE8079:
.LBB8080:
	.loc 4 503 0
	lwz 31,192(27)
.LVL1090:
.LBE8080:
.LBB8081:
.LBB8082:
.LBB8083:
	.loc 16 671 0
	addi 30,27,184
.LVL1091:
.LBE8083:
.LBE8082:
.LBE8081:
	.loc 1 524 0
	cmpw 7,31,30
	beq- 7,.L811
.LVL1092:
.L867:
	.loc 1 526 0
	lwz 3,16(31)
	mr 4,29
	lwz 9,0(3)
	lwz 0,16(9)
	mtctr 0
.LEHB80:
	bctrl
.LEHE80:
.LVL1093:
.LBB8084:
.LBB8085:
	.loc 16 269 0
	mr 3,31
	bl _ZSt18_Rb_tree_incrementPKSt18_Rb_tree_node_base
.LBE8085:
.LBE8084:
	.loc 1 524 0
	cmpw 7,30,3
.LBB8087:
.LBB8086:
	.loc 16 269 0
	mr 31,3
.LVL1094:
.LBE8086:
.LBE8087:
	.loc 1 524 0
	bne+ 7,.L867
.LVL1095:
.L811:
.LBB8088:
.LBB8089:
	.loc 17 562 0
	addi 31,27,180
.LVL1096:
.LBB8090:
.LBB8091:
.LBB8092:
.LBB8093:
.LBB8094:
.LBB8095:
.LBB8096:
	.loc 16 809 0
	lwz 4,188(27)
	mr 3,31
	bl _ZNSt8_Rb_treeIPN7sigslot12_signal_baseINS0_15single_threadedEEES4_St9_IdentityIS4_ESt4lessIS4_ESaIS4_EE8_M_eraseEPSt13_Rb_tree_nodeIS4_E
.LVL1097:
	.loc 16 811 0
	li 0,0
	.loc 16 810 0
	stw 30,192(27)
.LVL1098:
.LBE8096:
.LBE8095:
.LBE8094:
.LBE8093:
.LBE8092:
.LBE8091:
.LBE8090:
.LBE8089:
.LBE8088:
.LBB8113:
.LBB8114:
.LBB8115:
	.loc 1 343 0
	mr 3,29
.LBE8115:
.LBE8114:
.LBE8113:
.LBB8120:
.LBB8111:
.LBB8109:
.LBB8107:
.LBB8105:
.LBB8103:
.LBB8101:
.LBB8099:
.LBB8097:
	.loc 16 811 0
	stw 0,188(27)
.LVL1099:
	.loc 16 812 0
	stw 30,196(27)
.LBE8097:
.LBE8099:
.LBE8101:
.LBE8103:
.LBE8105:
.LBE8107:
.LBE8109:
.LBE8111:
.LBE8120:
.LBB8121:
.LBB8118:
.LBB8116:
	.loc 1 343 0
	lwz 9,176(27)
.LBE8116:
.LBE8118:
.LBE8121:
.LBB8122:
.LBB8112:
.LBB8110:
.LBB8108:
.LBB8106:
.LBB8104:
.LBB8102:
.LBB8100:
.LBB8098:
	.loc 16 813 0
	stw 0,200(27)
.LVL1100:
.LBE8098:
.LBE8100:
.LBE8102:
.LBE8104:
.LBE8106:
.LBE8108:
.LBE8110:
.LBE8112:
.LBE8122:
.LBB8123:
.LBB8119:
.LBB8117:
	.loc 1 343 0
	lwz 0,12(9)
	mtctr 0
.LEHB81:
	bctrl
.LEHE81:
.LVL1101:
.LBE8117:
.LBE8119:
.LBE8123:
.LBE8128:
.LBE8131:
.LBB8132:
.LBB8133:
.LBB8134:
.LBB8135:
.LBB8136:
	.loc 16 639 0
	lwz 4,188(27)
	mr 3,31
	bl _ZNSt8_Rb_treeIPN7sigslot12_signal_baseINS0_15single_threadedEEES4_St9_IdentityIS4_ESt4lessIS4_ESaIS4_EE8_M_eraseEPSt13_Rb_tree_nodeIS4_E
.LBE8136:
.LBE8135:
.LBE8134:
.LBE8133:
.LBE8132:
.LBB8137:
.LBB8138:
.LBB8139:
	.loc 1 105 0
	stw 28,176(27)
.LBE8139:
.LBE8138:
.LBE8137:
.LBE8152:
.LBE8156:
.LBE8163:
	.loc 4 57 0
	mr 3,27
.LEHB82:
	bl _ZN8GuiFrameD2Ev
.LEHE82:
.LBE8199:
	.loc 4 62 0
	lwz 0,52(1)
	lwz 27,28(1)
.LVL1102:
	mtlr 0
	lwz 28,32(1)
	lwz 29,36(1)
.LVL1103:
	lwz 30,40(1)
.LVL1104:
	lwz 31,44(1)
.LVL1105:
	addi 1,1,48
	.cfi_remember_state
.LCFI167:
	.cfi_def_cfa_offset 0
	.cfi_restore 31
	.cfi_restore 30
	.cfi_restore 29
	.cfi_restore 28
	.cfi_restore 27
	blr
.LVL1106:
.L862:
.LCFI168:
	.cfi_restore_state
.LBB8200:
.LBB8164:
	.loc 4 503 0
	lwz 0,264(27)
	mr 30,3
.LVL1107:
.LBB8165:
.LBB8166:
.LBB8167:
.LBB8168:
.LBB8169:
	.loc 5 155 0
	cmpwi 7,0,0
	beq- 7,.L842
.LVL1108:
.LBB8170:
.LBB8171:
	.loc 7 98 0
	mr 3,0
	bl _ZdlPv
.LVL1109:
.L842:
.LBE8171:
.LBE8170:
.LBE8169:
.LBE8168:
.LBE8167:
.LBE8166:
.LBE8165:
.LBE8164:
.LBB8172:
	.loc 4 503 0
	lwz 3,252(27)
.LVL1110:
.LBB8173:
.LBB8174:
.LBB8175:
.LBB8176:
.LBB8177:
	.loc 5 155 0
	cmpwi 7,3,0
	beq- 7,.L847
.LVL1111:
.LBB8178:
.LBB8179:
	.loc 7 98 0
	bl _ZdlPv
.LVL1112:
.L847:
.LBE8179:
.LBE8178:
.LBE8177:
.LBE8176:
.LBE8175:
.LBE8174:
.LBE8173:
.LBE8172:
.LBB8180:
	.loc 4 503 0
	lwz 3,240(27)
.LVL1113:
.LBB8181:
.LBB8182:
.LBB8183:
.LBB8184:
.LBB8185:
	.loc 5 155 0
	cmpwi 7,3,0
	beq- 7,.L852
.LVL1114:
.LBB8186:
.LBB8187:
	.loc 7 98 0
	bl _ZdlPv
.LVL1115:
.L852:
.LBE8187:
.LBE8186:
.LBE8185:
.LBE8184:
.LBE8183:
.LBE8182:
.LBE8181:
.LBE8180:
.LBB8188:
	.loc 4 503 0
	lwz 3,228(27)
.LVL1116:
.LBB8189:
.LBB8190:
.LBB8191:
.LBB8192:
.LBB8193:
	.loc 5 155 0
	cmpwi 7,3,0
	beq- 7,.L857
.LVL1117:
.LBB8194:
.LBB8195:
	.loc 7 98 0
	bl _ZdlPv
.LVL1118:
.L857:
.LBE8195:
.LBE8194:
.LBE8193:
.LBE8192:
.LBE8191:
.LBE8190:
.LBE8189:
.LBE8188:
	.loc 4 57 0
	addi 3,27,204
	bl _ZN7sigslot7signal2IP8PlayListiNS_15single_threadedEED1Ev
.LVL1119:
.L807:
	addi 3,27,176
	bl _ZN7sigslot9has_slotsINS_15single_threadedEED2Ev
.L834:
	mr 3,27
	bl _ZN8GuiFrameD2Ev
	mr 3,30
.LEHB83:
	bl _Unwind_Resume
.LEHE83:
.LVL1120:
.L866:
.LBB8196:
.LBB8157:
.LBB8153:
.LBB8140:
.LBB8129:
.LBB8124:
.LBB8125:
.LBB8126:
	.loc 1 343 0
	lwz 9,176(27)
	mr 30,3
.LVL1121:
	mr 3,29
	addi 31,27,180
.LVL1122:
	lwz 0,12(9)
	mtctr 0
	bctrl
.LVL1123:
.L821:
.LBE8126:
.LBE8125:
.LBE8124:
.LBE8129:
.LBE8140:
.LBB8141:
.LBB8142:
.LBB8143:
.LBB8144:
.LBB8145:
.LBB8146:
	.loc 16 639 0
	lwz 4,188(27)
	mr 3,31
	bl _ZNSt8_Rb_treeIPN7sigslot12_signal_baseINS0_15single_threadedEEES4_St9_IdentityIS4_ESt4lessIS4_ESaIS4_EE8_M_eraseEPSt13_Rb_tree_nodeIS4_E
.LBE8146:
.LBE8145:
.LBE8144:
.LBE8143:
.LBE8142:
.LBE8141:
.LBB8147:
.LBB8148:
.LBB8149:
	.loc 1 105 0
	stw 28,176(27)
	b .L834
.LVL1124:
.L865:
	mr 30,3
	b .L821
.LVL1125:
.L864:
.LBE8149:
.LBE8148:
.LBE8147:
.LBE8153:
.LBE8157:
.LBE8196:
.LBB8197:
.LBB8068:
.LBB8064:
.LBB8060:
.LBB8055:
.LBB8050:
.LBB8029:
.LBB7999:
.LBB7993:
.LBB7994:
.LBB7995:
	.loc 1 343 0
	lwz 9,204(27)
	mr 30,3
.LVL1126:
	mr 3,28
	lwz 0,12(9)
	mtctr 0
	bctrl
.LVL1127:
.L787:
.LBE7995:
.LBE7994:
.LBE7993:
.LBE7999:
.LBE8029:
.LBB8030:
.LBB8031:
.LBB8032:
.LBB8033:
.LBB8034:
.LBB8035:
	.loc 20 70 0
	lwz 3,208(27)
.LVL1128:
	.loc 20 71 0
	cmpw 7,3,29
	beq- 7,.L804
.LVL1129:
.L875:
.LBB8036:
	.loc 20 74 0
	lwz 31,0(3)
.LVL1130:
.LBB8037:
.LBB8038:
.LBB8039:
	.loc 7 98 0
	bl _ZdlPv
.LVL1131:
.LBE8039:
.LBE8038:
.LBE8037:
.LBE8036:
	.loc 20 71 0
	cmpw 7,31,29
	beq- 7,.L804
	.loc 20 74 0
	mr 3,31
	b .L875
.LVL1132:
.L863:
	mr 30,3
	b .L787
.L804:
.LBE8035:
.LBE8034:
.LBE8033:
.LBE8032:
.LBE8031:
.LBE8030:
.LBB8040:
.LBB8041:
.LBB8042:
.LBB8043:
.LBB8044:
.LBB8045:
	.loc 1 105 0
	lis 9,_ZTVN7sigslot15single_threadedE+8@ha
	la 0,_ZTVN7sigslot15single_threadedE+8@l(9)
	stw 0,204(27)
	b .L807
.LBE8045:
.LBE8044:
.LBE8043:
.LBE8042:
.LBE8041:
.LBE8040:
.LBE8050:
.LBE8055:
.LBE8060:
.LBE8064:
.LBE8068:
.LBE8197:
.LBE8200:
	.cfi_endproc
.LFE1596:
	.section	.gcc_except_table
.LLSDA1596:
	.byte	0xff
	.byte	0xff
	.byte	0x1
	.uleb128 .LLSDACSE1596-.LLSDACSB1596
.LLSDACSB1596:
	.uleb128 .LEHB75-.LFB1596
	.uleb128 .LEHE75-.LEHB75
	.uleb128 .L862-.LFB1596
	.uleb128 0
	.uleb128 .LEHB76-.LFB1596
	.uleb128 .LEHE76-.LEHB76
	.uleb128 .L863-.LFB1596
	.uleb128 0
	.uleb128 .LEHB77-.LFB1596
	.uleb128 .LEHE77-.LEHB77
	.uleb128 .L864-.LFB1596
	.uleb128 0
	.uleb128 .LEHB78-.LFB1596
	.uleb128 .LEHE78-.LEHB78
	.uleb128 .L863-.LFB1596
	.uleb128 0
	.uleb128 .LEHB79-.LFB1596
	.uleb128 .LEHE79-.LEHB79
	.uleb128 .L865-.LFB1596
	.uleb128 0
	.uleb128 .LEHB80-.LFB1596
	.uleb128 .LEHE80-.LEHB80
	.uleb128 .L866-.LFB1596
	.uleb128 0
	.uleb128 .LEHB81-.LFB1596
	.uleb128 .LEHE81-.LEHB81
	.uleb128 .L865-.LFB1596
	.uleb128 0
	.uleb128 .LEHB82-.LFB1596
	.uleb128 .LEHE82-.LEHB82
	.uleb128 0
	.uleb128 0
	.uleb128 .LEHB83-.LFB1596
	.uleb128 .LEHE83-.LEHB83
	.uleb128 0
	.uleb128 0
.LLSDACSE1596:
	.section	".text"
	.size	_ZN8PlayListD2Ev, .-_ZN8PlayListD2Ev
	.align 2
	.globl _ZThn176_N8PlayListD0Ev
	.type	_ZThn176_N8PlayListD0Ev, @function
_ZThn176_N8PlayListD0Ev:
.LFB2865:
	.cfi_startproc
	addi 3,3,-176
	b .LTHUNK1
	.cfi_endproc
.LFE2865:
	.size	_ZThn176_N8PlayListD0Ev, .-_ZThn176_N8PlayListD0Ev
	.align 2
	.globl _ZN8PlayListD0Ev
	.type	_ZN8PlayListD0Ev, @function
_ZN8PlayListD0Ev:
.LFB1598:
	.loc 4 57 0
	.cfi_startproc
.LVL1133:
	stwu 1,-16(1)
.LCFI169:
	.cfi_def_cfa_offset 16
	mflr 0
	stw 31,12(1)
	mr 31,3
	.cfi_offset 31, -4
	.cfi_register 65, 0
	stw 0,20(1)
	.loc 4 62 0
	.cfi_offset 65, 4
	bl _ZN8PlayListD1Ev
.LVL1134:
	mr 3,31
	bl _ZdlPv
	lwz 0,20(1)
	lwz 31,12(1)
.LVL1135:
	mtlr 0
	addi 1,1,16
.LCFI170:
	.cfi_def_cfa_offset 0
	.cfi_restore 31
	blr
	.cfi_endproc
.LFE1598:
	.size	_ZN8PlayListD0Ev, .-_ZN8PlayListD0Ev
	.section	.text._ZN7sigslot13_signal_base2IP8PlayListiNS_15single_threadedEED0Ev,"axG",@progbits,_ZN7sigslot13_signal_base2IP8PlayListiNS_15single_threadedEED5Ev,comdat
	.align 2
	.weak	_ZN7sigslot13_signal_base2IP8PlayListiNS_15single_threadedEED0Ev
	.type	_ZN7sigslot13_signal_base2IP8PlayListiNS_15single_threadedEED0Ev, @function
_ZN7sigslot13_signal_base2IP8PlayListiNS_15single_threadedEED0Ev:
.LFB1814:
	.loc 1 823 0
	.cfi_startproc
	.cfi_personality 0,__gxx_personality_v0
	.cfi_lsda 0,.LLSDA1814
.LVL1136:
	mflr 0
	stwu 1,-40(1)
.LCFI171:
	.cfi_def_cfa_offset 40
	.cfi_register 65, 0
.LBB8296:
.LBB8297:
.LBB8298:
	.loc 1 826 0
	lis 9,_ZTVN7sigslot13_signal_base2IP8PlayListiNS_15single_threadedEEE+8@ha
.LBE8298:
.LBE8297:
.LBE8296:
	.loc 1 823 0
	stw 28,24(1)
	mr 28,3
	.cfi_offset 28, -16
.LVL1137:
	stw 0,44(1)
.LBB8383:
.LBB8379:
.LBB8375:
	.loc 1 826 0
	la 0,_ZTVN7sigslot13_signal_base2IP8PlayListiNS_15single_threadedEEE+8@l(9)
	.cfi_offset 65, 4
.LBE8375:
.LBE8379:
.LBE8383:
	.loc 1 823 0
	stw 29,28(1)
	addi 29,3,4
	.cfi_offset 29, -12
	stw 30,32(1)
	stw 31,36(1)
.LBB8384:
.LBB8380:
.LBB8376:
	.loc 1 826 0
	stw 0,0(3)
.LVL1138:
.LEHB84:
.LBB8299:
.LBB8300:
.LBB8301:
.LBB8302:
	.loc 1 338 0
	.cfi_offset 31, -4
	.cfi_offset 30, -8
	bl _ZN7sigslot15single_threaded4lockEv
.LEHE84:
.LVL1139:
.LBE8302:
.LBE8301:
.LBE8300:
	.loc 4 503 0
	mr 29,28
.LVL1140:
	lwzu 31,4(29)
.LVL1141:
.LBB8333:
	.loc 1 834 0
	cmpw 7,31,29
	beq- 7,.L880
.LVL1142:
.L918:
	.loc 1 836 0
	lwz 3,8(31)
	lwz 9,0(3)
	lwz 0,8(9)
	mtctr 0
.LEHB85:
	bctrl
.LBB8303:
.LBB8304:
.LBB8305:
.LBB8306:
	.loc 1 338 0
	lwz 9,0(3)
.LBE8306:
.LBE8305:
.LBE8304:
.LBE8303:
	.loc 1 836 0
	mr 30,3
.LVL1143:
	stw 28,8(1)
.LVL1144:
.LBB8315:
.LBB8314:
.LBB8308:
.LBB8307:
	.loc 1 338 0
	lwz 0,8(9)
	mtctr 0
	bctrl
.LVL1145:
.LBE8307:
.LBE8308:
.LBB8309:
.LBB8310:
	.loc 17 528 0
	addi 3,30,4
	addi 4,1,8
	bl _ZNSt8_Rb_treeIPN7sigslot12_signal_baseINS0_15single_threadedEEES4_St9_IdentityIS4_ESt4lessIS4_ESaIS4_EE5eraseERKS4_
.LVL1146:
.LBE8310:
.LBE8309:
.LBB8311:
.LBB8312:
.LBB8313:
	.loc 1 343 0
	lwz 9,0(30)
	mr 3,30
	lwz 0,12(9)
	mtctr 0
	bctrl
.LVL1147:
.LBE8313:
.LBE8312:
.LBE8311:
.LBE8314:
.LBE8315:
	.loc 1 837 0
	lwz 3,8(31)
	cmpwi 7,3,0
	beq- 7,.L882
	lwz 9,0(3)
	lwz 0,4(9)
	mtctr 0
	bctrl
.LEHE85:
.L882:
.LVL1148:
.LBB8316:
.LBB8317:
	.loc 6 234 0
	lwz 31,0(31)
.LVL1149:
.LBE8317:
.LBE8316:
	.loc 1 834 0
	cmpw 7,29,31
	bne+ 7,.L918
.LBE8333:
	.loc 4 503 0
	lwz 31,4(28)
.LVL1150:
.LBB8334:
.LBB8318:
.LBB8319:
	.loc 6 1162 0
	cmpw 7,29,31
	bne+ 7,.L920
	b .L880
.LVL1151:
.L913:
	.loc 6 1163 0
	mr 31,30
.LVL1152:
.L920:
.LBB8320:
.LBB8321:
	.loc 20 112 0
	lwz 30,0(31)
.LVL1153:
.LBB8322:
.LBB8323:
	.loc 6 1532 0
	mr 3,31
	bl _ZNSt8__detail15_List_node_base9_M_unhookEv
.LVL1154:
.LBB8324:
.LBB8325:
.LBB8326:
	.loc 7 98 0
	mr 3,31
	bl _ZdlPv
.LVL1155:
.LBE8326:
.LBE8325:
.LBE8324:
.LBE8323:
.LBE8322:
.LBE8321:
.LBE8320:
	.loc 6 1162 0
	cmpw 7,29,30
	bne+ 7,.L913
.LVL1156:
.L880:
.LBE8319:
.LBE8318:
.LBB8327:
.LBB8328:
.LBB8329:
	.loc 1 343 0
	lwz 9,0(28)
	mr 3,28
	lwz 0,12(9)
	mtctr 0
.LEHB86:
	bctrl
.LEHE86:
.LVL1157:
.LBE8329:
.LBE8328:
.LBE8327:
.LBE8334:
.LBE8299:
.LBB8336:
.LBB8337:
.LBB8338:
.LBB8339:
.LBB8340:
.LBB8341:
	.loc 20 70 0
	lwz 3,4(28)
.LVL1158:
	.loc 20 71 0
	cmpw 7,3,29
	bne+ 7,.L922
	b .L898
.LVL1159:
.L914:
	.loc 20 74 0
	mr 3,31
.LVL1160:
.L922:
.LBB8342:
	lwz 31,0(3)
.LVL1161:
.LBB8343:
.LBB8344:
.LBB8345:
	.loc 7 98 0
	bl _ZdlPv
.LVL1162:
.LBE8345:
.LBE8344:
.LBE8343:
.LBE8342:
	.loc 20 71 0
	cmpw 7,31,29
	bne+ 7,.L914
.LVL1163:
.L898:
.LBE8341:
.LBE8340:
.LBE8339:
.LBE8338:
.LBE8337:
.LBE8336:
.LBB8346:
.LBB8347:
.LBB8348:
.LBB8349:
.LBB8350:
.LBB8351:
	.loc 1 105 0
	lis 9,_ZTVN7sigslot15single_threadedE+8@ha
.LBE8351:
.LBE8350:
.LBE8349:
.LBE8348:
.LBE8347:
.LBE8346:
.LBE8376:
.LBE8380:
.LBE8384:
	.loc 1 826 0
	mr 3,28
.LBB8385:
.LBB8381:
.LBB8377:
.LBB8357:
.LBB8356:
.LBB8355:
.LBB8354:
.LBB8353:
.LBB8352:
	.loc 1 105 0
	la 0,_ZTVN7sigslot15single_threadedE+8@l(9)
	stw 0,0(28)
.LBE8352:
.LBE8353:
.LBE8354:
.LBE8355:
.LBE8356:
.LBE8357:
.LBE8377:
.LBE8381:
.LBE8385:
	.loc 1 826 0
	bl _ZdlPv
	lwz 0,44(1)
	lwz 28,24(1)
.LVL1164:
	mtlr 0
	lwz 29,28(1)
.LVL1165:
	lwz 30,32(1)
	lwz 31,36(1)
	addi 1,1,40
	.cfi_remember_state
.LCFI172:
	.cfi_def_cfa_offset 0
	.cfi_restore 31
	.cfi_restore 30
	.cfi_restore 29
	.cfi_restore 28
	blr
.LVL1166:
.L916:
.LCFI173:
	.cfi_restore_state
	mr 31,3
.L890:
.LVL1167:
.LBB8386:
.LBB8382:
.LBB8378:
.LBB8358:
.LBB8359:
.LBB8360:
.LBB8361:
.LBB8362:
.LBB8363:
	.loc 20 70 0
	lwz 3,4(28)
.LVL1168:
	.loc 20 71 0
	cmpw 7,3,29
	beq- 7,.L907
.LVL1169:
.L923:
.LBB8364:
	.loc 20 74 0
	lwz 30,0(3)
.LVL1170:
.LBB8365:
.LBB8366:
.LBB8367:
	.loc 7 98 0
	bl _ZdlPv
.LVL1171:
.LBE8367:
.LBE8366:
.LBE8365:
.LBE8364:
	.loc 20 71 0
	cmpw 7,30,29
	beq- 7,.L907
	.loc 20 74 0
	mr 3,30
	b .L923
.LVL1172:
.L917:
.LBE8363:
.LBE8362:
.LBE8361:
.LBE8360:
.LBE8359:
.LBE8358:
.LBB8368:
.LBB8335:
.LBB8330:
.LBB8331:
.LBB8332:
	.loc 1 343 0
	lwz 9,0(28)
	mr 31,3
.LVL1173:
	mr 3,28
	lwz 0,12(9)
	mtctr 0
	bctrl
	b .L890
.LVL1174:
.L907:
.LBE8332:
.LBE8331:
.LBE8330:
.LBE8335:
.LBE8368:
.LBB8369:
.LBB8370:
.LBB8371:
.LBB8372:
.LBB8373:
.LBB8374:
	.loc 1 105 0
	lis 9,_ZTVN7sigslot15single_threadedE+8@ha
	mr 3,31
	la 0,_ZTVN7sigslot15single_threadedE+8@l(9)
	stw 0,0(28)
.LEHB87:
	bl _Unwind_Resume
.LEHE87:
.LBE8374:
.LBE8373:
.LBE8372:
.LBE8371:
.LBE8370:
.LBE8369:
.LBE8378:
.LBE8382:
.LBE8386:
	.cfi_endproc
.LFE1814:
	.section	.gcc_except_table
.LLSDA1814:
	.byte	0xff
	.byte	0xff
	.byte	0x1
	.uleb128 .LLSDACSE1814-.LLSDACSB1814
.LLSDACSB1814:
	.uleb128 .LEHB84-.LFB1814
	.uleb128 .LEHE84-.LEHB84
	.uleb128 .L916-.LFB1814
	.uleb128 0
	.uleb128 .LEHB85-.LFB1814
	.uleb128 .LEHE85-.LEHB85
	.uleb128 .L917-.LFB1814
	.uleb128 0
	.uleb128 .LEHB86-.LFB1814
	.uleb128 .LEHE86-.LEHB86
	.uleb128 .L916-.LFB1814
	.uleb128 0
	.uleb128 .LEHB87-.LFB1814
	.uleb128 .LEHE87-.LEHB87
	.uleb128 0
	.uleb128 0
.LLSDACSE1814:
	.section	.text._ZN7sigslot13_signal_base2IP8PlayListiNS_15single_threadedEED0Ev,"axG",@progbits,_ZN7sigslot13_signal_base2IP8PlayListiNS_15single_threadedEED5Ev,comdat
	.size	_ZN7sigslot13_signal_base2IP8PlayListiNS_15single_threadedEED0Ev, .-_ZN7sigslot13_signal_base2IP8PlayListiNS_15single_threadedEED0Ev
	.section	.text._ZN7sigslot13_signal_base2IP8PlayListiNS_15single_threadedEED2Ev,"axG",@progbits,_ZN7sigslot13_signal_base2IP8PlayListiNS_15single_threadedEED5Ev,comdat
	.align 2
	.weak	_ZN7sigslot13_signal_base2IP8PlayListiNS_15single_threadedEED2Ev
	.type	_ZN7sigslot13_signal_base2IP8PlayListiNS_15single_threadedEED2Ev, @function
_ZN7sigslot13_signal_base2IP8PlayListiNS_15single_threadedEED2Ev:
.LFB1812:
	.loc 1 823 0
	.cfi_startproc
	.cfi_personality 0,__gxx_personality_v0
	.cfi_lsda 0,.LLSDA1812
.LVL1175:
	mflr 0
	stwu 1,-40(1)
.LCFI174:
	.cfi_def_cfa_offset 40
	.cfi_register 65, 0
.LBB8533:
	.loc 1 826 0
	lis 9,_ZTVN7sigslot13_signal_base2IP8PlayListiNS_15single_threadedEEE+8@ha
.LBE8533:
	.loc 1 823 0
	stw 28,24(1)
	mr 28,3
	.cfi_offset 28, -16
	stw 0,44(1)
.LBB8616:
	.loc 1 826 0
	la 0,_ZTVN7sigslot13_signal_base2IP8PlayListiNS_15single_threadedEEE+8@l(9)
	.cfi_offset 65, 4
.LBE8616:
	.loc 1 823 0
	stw 29,28(1)
	addi 29,3,4
	.cfi_offset 29, -12
	stw 30,32(1)
	stw 31,36(1)
.LBB8617:
	.loc 1 826 0
	stw 0,0(3)
.LVL1176:
.LEHB88:
.LBB8534:
.LBB8535:
.LBB8536:
.LBB8537:
	.loc 1 338 0
	.cfi_offset 31, -4
	.cfi_offset 30, -8
	bl _ZN7sigslot15single_threaded4lockEv
.LEHE88:
.LVL1177:
.LBE8537:
.LBE8536:
.LBE8535:
	.loc 4 503 0
	mr 29,28
.LVL1178:
	lwzu 31,4(29)
.LVL1179:
.LBB8568:
	.loc 1 834 0
	cmpw 7,31,29
	beq- 7,.L925
.LVL1180:
.L962:
	.loc 1 836 0
	lwz 3,8(31)
	lwz 9,0(3)
	lwz 0,8(9)
	mtctr 0
.LEHB89:
	bctrl
.LBB8538:
.LBB8539:
.LBB8540:
.LBB8541:
	.loc 1 338 0
	lwz 9,0(3)
.LBE8541:
.LBE8540:
.LBE8539:
.LBE8538:
	.loc 1 836 0
	mr 30,3
.LVL1181:
	stw 28,8(1)
.LVL1182:
.LBB8550:
.LBB8549:
.LBB8543:
.LBB8542:
	.loc 1 338 0
	lwz 0,8(9)
	mtctr 0
	bctrl
.LVL1183:
.LBE8542:
.LBE8543:
.LBB8544:
.LBB8545:
	.loc 17 528 0
	addi 3,30,4
	addi 4,1,8
	bl _ZNSt8_Rb_treeIPN7sigslot12_signal_baseINS0_15single_threadedEEES4_St9_IdentityIS4_ESt4lessIS4_ESaIS4_EE5eraseERKS4_
.LVL1184:
.LBE8545:
.LBE8544:
.LBB8546:
.LBB8547:
.LBB8548:
	.loc 1 343 0
	lwz 9,0(30)
	mr 3,30
	lwz 0,12(9)
	mtctr 0
	bctrl
.LVL1185:
.LBE8548:
.LBE8547:
.LBE8546:
.LBE8549:
.LBE8550:
	.loc 1 837 0
	lwz 3,8(31)
	cmpwi 7,3,0
	beq- 7,.L927
	lwz 9,0(3)
	lwz 0,4(9)
	mtctr 0
	bctrl
.LEHE89:
.L927:
.LVL1186:
.LBB8551:
.LBB8552:
	.loc 6 234 0
	lwz 31,0(31)
.LVL1187:
.LBE8552:
.LBE8551:
	.loc 1 834 0
	cmpw 7,29,31
	bne+ 7,.L962
.LBE8568:
	.loc 4 503 0
	lwz 31,4(28)
.LVL1188:
.LBB8569:
.LBB8553:
.LBB8554:
	.loc 6 1162 0
	cmpw 7,29,31
	bne+ 7,.L964
	b .L925
.LVL1189:
.L957:
	.loc 6 1163 0
	mr 31,30
.LVL1190:
.L964:
.LBB8555:
.LBB8556:
	.loc 20 112 0
	lwz 30,0(31)
.LVL1191:
.LBB8557:
.LBB8558:
	.loc 6 1532 0
	mr 3,31
	bl _ZNSt8__detail15_List_node_base9_M_unhookEv
.LVL1192:
.LBB8559:
.LBB8560:
.LBB8561:
	.loc 7 98 0
	mr 3,31
	bl _ZdlPv
.LVL1193:
.LBE8561:
.LBE8560:
.LBE8559:
.LBE8558:
.LBE8557:
.LBE8556:
.LBE8555:
	.loc 6 1162 0
	cmpw 7,29,30
	bne+ 7,.L957
.LVL1194:
.L925:
.LBE8554:
.LBE8553:
.LBB8562:
.LBB8563:
.LBB8564:
	.loc 1 343 0
	lwz 9,0(28)
	mr 3,28
	lwz 0,12(9)
	mtctr 0
.LEHB90:
	bctrl
.LEHE90:
.LVL1195:
.LBE8564:
.LBE8563:
.LBE8562:
.LBE8569:
.LBE8534:
.LBB8571:
.LBB8572:
.LBB8573:
.LBB8574:
.LBB8575:
.LBB8576:
	.loc 20 70 0
	lwz 3,4(28)
.LVL1196:
	.loc 20 71 0
	cmpw 7,3,29
	bne+ 7,.L966
	b .L943
.LVL1197:
.L958:
	.loc 20 74 0
	mr 3,31
.LVL1198:
.L966:
.LBB8577:
	lwz 31,0(3)
.LVL1199:
.LBB8578:
.LBB8579:
.LBB8580:
	.loc 7 98 0
	bl _ZdlPv
.LVL1200:
.LBE8580:
.LBE8579:
.LBE8578:
.LBE8577:
	.loc 20 71 0
	cmpw 7,31,29
	bne+ 7,.L958
.LVL1201:
.L943:
.LBE8576:
.LBE8575:
.LBE8574:
.LBE8573:
.LBE8572:
.LBE8571:
.LBB8581:
.LBB8582:
.LBB8583:
.LBB8584:
.LBB8585:
.LBB8586:
	.loc 1 105 0
	lis 9,_ZTVN7sigslot15single_threadedE+8@ha
.LBE8586:
.LBE8585:
.LBE8584:
.LBE8583:
.LBE8582:
.LBE8581:
.LBE8617:
	.loc 1 826 0
	lwz 29,28(1)
.LVL1202:
.LBB8618:
.LBB8597:
.LBB8595:
.LBB8593:
.LBB8591:
.LBB8589:
.LBB8587:
	.loc 1 105 0
	la 0,_ZTVN7sigslot15single_threadedE+8@l(9)
.LBE8587:
.LBE8589:
.LBE8591:
.LBE8593:
.LBE8595:
.LBE8597:
.LBE8618:
	.loc 1 826 0
	lwz 30,32(1)
.LBB8619:
.LBB8598:
.LBB8596:
.LBB8594:
.LBB8592:
.LBB8590:
.LBB8588:
	.loc 1 105 0
	stw 0,0(28)
.LBE8588:
.LBE8590:
.LBE8592:
.LBE8594:
.LBE8596:
.LBE8598:
.LBE8619:
	.loc 1 826 0
	lwz 0,44(1)
	lwz 28,24(1)
.LVL1203:
	mtlr 0
	lwz 31,36(1)
	addi 1,1,40
	.cfi_remember_state
.LCFI175:
	.cfi_def_cfa_offset 0
	.cfi_restore 31
	.cfi_restore 30
	.cfi_restore 29
	.cfi_restore 28
	blr
.LVL1204:
.L960:
.LCFI176:
	.cfi_restore_state
	mr 31,3
.L935:
.LVL1205:
.LBB8620:
.LBB8599:
.LBB8600:
.LBB8601:
.LBB8602:
.LBB8603:
.LBB8604:
	.loc 20 70 0
	lwz 3,4(28)
.LVL1206:
	.loc 20 71 0
	cmpw 7,3,29
	beq- 7,.L954
.LVL1207:
.L967:
.LBB8605:
	.loc 20 74 0
	lwz 30,0(3)
.LVL1208:
.LBB8606:
.LBB8607:
.LBB8608:
	.loc 7 98 0
	bl _ZdlPv
.LVL1209:
.LBE8608:
.LBE8607:
.LBE8606:
.LBE8605:
	.loc 20 71 0
	cmpw 7,30,29
	beq- 7,.L954
	.loc 20 74 0
	mr 3,30
	b .L967
.LVL1210:
.L961:
.LBE8604:
.LBE8603:
.LBE8602:
.LBE8601:
.LBE8600:
.LBE8599:
.LBB8609:
.LBB8570:
.LBB8565:
.LBB8566:
.LBB8567:
	.loc 1 343 0
	lwz 9,0(28)
	mr 31,3
.LVL1211:
	mr 3,28
	lwz 0,12(9)
	mtctr 0
	bctrl
	b .L935
.LVL1212:
.L954:
.LBE8567:
.LBE8566:
.LBE8565:
.LBE8570:
.LBE8609:
.LBB8610:
.LBB8611:
.LBB8612:
.LBB8613:
.LBB8614:
.LBB8615:
	.loc 1 105 0
	lis 9,_ZTVN7sigslot15single_threadedE+8@ha
	mr 3,31
	la 0,_ZTVN7sigslot15single_threadedE+8@l(9)
	stw 0,0(28)
.LEHB91:
	bl _Unwind_Resume
.LEHE91:
.LBE8615:
.LBE8614:
.LBE8613:
.LBE8612:
.LBE8611:
.LBE8610:
.LBE8620:
	.cfi_endproc
.LFE1812:
	.section	.gcc_except_table
.LLSDA1812:
	.byte	0xff
	.byte	0xff
	.byte	0x1
	.uleb128 .LLSDACSE1812-.LLSDACSB1812
.LLSDACSB1812:
	.uleb128 .LEHB88-.LFB1812
	.uleb128 .LEHE88-.LEHB88
	.uleb128 .L960-.LFB1812
	.uleb128 0
	.uleb128 .LEHB89-.LFB1812
	.uleb128 .LEHE89-.LEHB89
	.uleb128 .L961-.LFB1812
	.uleb128 0
	.uleb128 .LEHB90-.LFB1812
	.uleb128 .LEHE90-.LEHB90
	.uleb128 .L960-.LFB1812
	.uleb128 0
	.uleb128 .LEHB91-.LFB1812
	.uleb128 .LEHE91-.LEHB91
	.uleb128 0
	.uleb128 0
.LLSDACSE1812:
	.section	.text._ZN7sigslot13_signal_base2IP8PlayListiNS_15single_threadedEED2Ev,"axG",@progbits,_ZN7sigslot13_signal_base2IP8PlayListiNS_15single_threadedEED5Ev,comdat
	.size	_ZN7sigslot13_signal_base2IP8PlayListiNS_15single_threadedEED2Ev, .-_ZN7sigslot13_signal_base2IP8PlayListiNS_15single_threadedEED2Ev
	.section	.text._ZN7sigslot7signal2IP8PlayListiNS_15single_threadedEED0Ev,"axG",@progbits,_ZN7sigslot7signal2IP8PlayListiNS_15single_threadedEED5Ev,comdat
	.align 2
	.weak	_ZN7sigslot7signal2IP8PlayListiNS_15single_threadedEED0Ev
	.type	_ZN7sigslot7signal2IP8PlayListiNS_15single_threadedEED0Ev, @function
_ZN7sigslot7signal2IP8PlayListiNS_15single_threadedEED0Ev:
.LFB1666:
	.loc 1 2235 0
	.cfi_startproc
	.cfi_personality 0,__gxx_personality_v0
	.cfi_lsda 0,.LLSDA1666
.LVL1213:
	mflr 0
	stwu 1,-40(1)
.LCFI177:
	.cfi_def_cfa_offset 40
	.cfi_register 65, 0
.LBB8719:
.LBB8720:
.LBB8721:
.LBB8722:
.LBB8723:
.LBB8724:
	.loc 1 826 0
	lis 9,_ZTVN7sigslot13_signal_base2IP8PlayListiNS_15single_threadedEEE+8@ha
.LBE8724:
.LBE8723:
.LBE8722:
.LBE8721:
.LBE8720:
.LBE8719:
	.loc 1 2235 0
	stw 28,24(1)
	mr 28,3
	.cfi_offset 28, -16
.LVL1214:
	stw 0,44(1)
.LBB8821:
.LBB8817:
.LBB8813:
.LBB8809:
.LBB8805:
.LBB8801:
	.loc 1 826 0
	la 0,_ZTVN7sigslot13_signal_base2IP8PlayListiNS_15single_threadedEEE+8@l(9)
	.cfi_offset 65, 4
.LBE8801:
.LBE8805:
.LBE8809:
.LBE8813:
.LBE8817:
.LBE8821:
	.loc 1 2235 0
	stw 29,28(1)
	addi 29,3,4
	.cfi_offset 29, -12
	stw 30,32(1)
	stw 31,36(1)
.LBB8822:
.LBB8818:
.LBB8814:
.LBB8810:
.LBB8806:
.LBB8802:
	.loc 1 826 0
	stw 0,0(3)
.LVL1215:
.LEHB92:
.LBB8725:
.LBB8726:
.LBB8727:
.LBB8728:
	.loc 1 338 0
	.cfi_offset 31, -4
	.cfi_offset 30, -8
	bl _ZN7sigslot15single_threaded4lockEv
.LEHE92:
.LVL1216:
.LBE8728:
.LBE8727:
.LBE8726:
	.loc 4 503 0
	mr 29,28
	lwzu 31,4(29)
.LVL1217:
.LBB8759:
	.loc 1 834 0
	cmpw 7,31,29
	beq- 7,.L969
.LVL1218:
.L1008:
	.loc 1 836 0
	lwz 3,8(31)
	lwz 9,0(3)
	lwz 0,8(9)
	mtctr 0
.LEHB93:
	bctrl
.LBB8729:
.LBB8730:
.LBB8731:
.LBB8732:
	.loc 1 338 0
	lwz 9,0(3)
.LBE8732:
.LBE8731:
.LBE8730:
.LBE8729:
	.loc 1 836 0
	mr 30,3
.LVL1219:
	stw 28,8(1)
.LVL1220:
.LBB8741:
.LBB8740:
.LBB8734:
.LBB8733:
	.loc 1 338 0
	lwz 0,8(9)
	mtctr 0
	bctrl
.LVL1221:
.LBE8733:
.LBE8734:
.LBB8735:
.LBB8736:
	.loc 17 528 0
	addi 3,30,4
	addi 4,1,8
	bl _ZNSt8_Rb_treeIPN7sigslot12_signal_baseINS0_15single_threadedEEES4_St9_IdentityIS4_ESt4lessIS4_ESaIS4_EE5eraseERKS4_
.LVL1222:
.LBE8736:
.LBE8735:
.LBB8737:
.LBB8738:
.LBB8739:
	.loc 1 343 0
	lwz 9,0(30)
	mr 3,30
	lwz 0,12(9)
	mtctr 0
	bctrl
.LVL1223:
.LBE8739:
.LBE8738:
.LBE8737:
.LBE8740:
.LBE8741:
	.loc 1 837 0
	lwz 3,8(31)
	cmpwi 7,3,0
	beq- 7,.L971
	lwz 9,0(3)
	lwz 0,4(9)
	mtctr 0
	bctrl
.LEHE93:
.L971:
.LVL1224:
.LBB8742:
.LBB8743:
	.loc 6 234 0
	lwz 31,0(31)
.LVL1225:
.LBE8743:
.LBE8742:
	.loc 1 834 0
	cmpw 7,29,31
	bne+ 7,.L1008
.LBE8759:
	.loc 4 503 0
	lwz 31,4(28)
.LVL1226:
.LBB8760:
.LBB8744:
.LBB8745:
	.loc 6 1162 0
	cmpw 7,29,31
	bne+ 7,.L1010
	b .L969
.LVL1227:
.L1003:
	.loc 6 1163 0
	mr 31,30
.LVL1228:
.L1010:
.LBB8746:
.LBB8747:
	.loc 20 112 0
	lwz 30,0(31)
.LVL1229:
.LBB8748:
.LBB8749:
	.loc 6 1532 0
	mr 3,31
	bl _ZNSt8__detail15_List_node_base9_M_unhookEv
.LVL1230:
.LBB8750:
.LBB8751:
.LBB8752:
	.loc 7 98 0
	mr 3,31
	bl _ZdlPv
.LVL1231:
.LBE8752:
.LBE8751:
.LBE8750:
.LBE8749:
.LBE8748:
.LBE8747:
.LBE8746:
	.loc 6 1162 0
	cmpw 7,29,30
	bne+ 7,.L1003
.LVL1232:
.L969:
.LBE8745:
.LBE8744:
.LBB8753:
.LBB8754:
.LBB8755:
	.loc 1 343 0
	lwz 9,0(28)
	mr 3,28
	lwz 0,12(9)
	mtctr 0
.LEHB94:
	bctrl
.LEHE94:
.LBE8755:
.LBE8754:
.LBE8753:
.LBE8760:
.LBE8725:
.LBB8762:
.LBB8763:
.LBB8764:
.LBB8765:
.LBB8766:
.LBB8767:
	.loc 20 70 0
	lwz 3,4(28)
.LVL1233:
	.loc 20 71 0
	cmpw 7,3,29
	bne+ 7,.L1012
	b .L987
.LVL1234:
.L1004:
	.loc 20 74 0
	mr 3,31
.LVL1235:
.L1012:
.LBB8768:
	lwz 31,0(3)
.LVL1236:
.LBB8769:
.LBB8770:
.LBB8771:
	.loc 7 98 0
	bl _ZdlPv
.LVL1237:
.LBE8771:
.LBE8770:
.LBE8769:
.LBE8768:
	.loc 20 71 0
	cmpw 7,31,29
	bne+ 7,.L1004
.LVL1238:
.L987:
.LBE8767:
.LBE8766:
.LBE8765:
.LBE8764:
.LBE8763:
.LBE8762:
.LBB8772:
.LBB8773:
.LBB8774:
.LBB8775:
.LBB8776:
.LBB8777:
	.loc 1 105 0
	lis 9,_ZTVN7sigslot15single_threadedE+8@ha
.LBE8777:
.LBE8776:
.LBE8775:
.LBE8774:
.LBE8773:
.LBE8772:
.LBE8802:
.LBE8806:
.LBE8810:
.LBE8814:
.LBE8818:
.LBE8822:
	.loc 1 2238 0
	mr 3,28
.LBB8823:
.LBB8819:
.LBB8815:
.LBB8811:
.LBB8807:
.LBB8803:
.LBB8783:
.LBB8782:
.LBB8781:
.LBB8780:
.LBB8779:
.LBB8778:
	.loc 1 105 0
	la 0,_ZTVN7sigslot15single_threadedE+8@l(9)
	stw 0,0(28)
.LBE8778:
.LBE8779:
.LBE8780:
.LBE8781:
.LBE8782:
.LBE8783:
.LBE8803:
.LBE8807:
.LBE8811:
.LBE8815:
.LBE8819:
.LBE8823:
	.loc 1 2238 0
	bl _ZdlPv
	lwz 0,44(1)
	lwz 28,24(1)
.LVL1239:
	mtlr 0
	lwz 29,28(1)
.LVL1240:
	lwz 30,32(1)
	lwz 31,36(1)
	addi 1,1,40
	.cfi_remember_state
.LCFI178:
	.cfi_def_cfa_offset 0
	.cfi_restore 31
	.cfi_restore 30
	.cfi_restore 29
	.cfi_restore 28
	blr
.LVL1241:
.L1006:
.LCFI179:
	.cfi_restore_state
	mr 31,3
.L979:
.LBB8824:
.LBB8820:
.LBB8816:
.LBB8812:
.LBB8808:
.LBB8804:
.LBB8784:
.LBB8785:
.LBB8786:
.LBB8787:
.LBB8788:
.LBB8789:
	.loc 20 70 0
	lwz 3,4(28)
.LVL1242:
	.loc 20 71 0
	cmpw 7,3,29
	beq- 7,.L996
.LVL1243:
.L1013:
.LBB8790:
	.loc 20 74 0
	lwz 30,0(3)
.LVL1244:
.LBB8791:
.LBB8792:
.LBB8793:
	.loc 7 98 0
	bl _ZdlPv
.LVL1245:
.LBE8793:
.LBE8792:
.LBE8791:
.LBE8790:
	.loc 20 71 0
	cmpw 7,30,29
	beq- 7,.L996
	.loc 20 74 0
	mr 3,30
	b .L1013
.LVL1246:
.L1007:
.LBE8789:
.LBE8788:
.LBE8787:
.LBE8786:
.LBE8785:
.LBE8784:
.LBB8794:
.LBB8761:
.LBB8756:
.LBB8757:
.LBB8758:
	.loc 1 343 0
	lwz 9,0(28)
	mr 31,3
.LVL1247:
	mr 3,28
	lwz 0,12(9)
	mtctr 0
	bctrl
	b .L979
.LVL1248:
.L996:
.LBE8758:
.LBE8757:
.LBE8756:
.LBE8761:
.LBE8794:
.LBB8795:
.LBB8796:
.LBB8797:
.LBB8798:
.LBB8799:
.LBB8800:
	.loc 1 105 0
	lis 9,_ZTVN7sigslot15single_threadedE+8@ha
	mr 3,31
	la 0,_ZTVN7sigslot15single_threadedE+8@l(9)
	stw 0,0(28)
.LEHB95:
	bl _Unwind_Resume
.LEHE95:
.LBE8800:
.LBE8799:
.LBE8798:
.LBE8797:
.LBE8796:
.LBE8795:
.LBE8804:
.LBE8808:
.LBE8812:
.LBE8816:
.LBE8820:
.LBE8824:
	.cfi_endproc
.LFE1666:
	.section	.gcc_except_table
.LLSDA1666:
	.byte	0xff
	.byte	0xff
	.byte	0x1
	.uleb128 .LLSDACSE1666-.LLSDACSB1666
.LLSDACSB1666:
	.uleb128 .LEHB92-.LFB1666
	.uleb128 .LEHE92-.LEHB92
	.uleb128 .L1006-.LFB1666
	.uleb128 0
	.uleb128 .LEHB93-.LFB1666
	.uleb128 .LEHE93-.LEHB93
	.uleb128 .L1007-.LFB1666
	.uleb128 0
	.uleb128 .LEHB94-.LFB1666
	.uleb128 .LEHE94-.LEHB94
	.uleb128 .L1006-.LFB1666
	.uleb128 0
	.uleb128 .LEHB95-.LFB1666
	.uleb128 .LEHE95-.LEHB95
	.uleb128 0
	.uleb128 0
.LLSDACSE1666:
	.section	.text._ZN7sigslot7signal2IP8PlayListiNS_15single_threadedEED0Ev,"axG",@progbits,_ZN7sigslot7signal2IP8PlayListiNS_15single_threadedEED5Ev,comdat
	.size	_ZN7sigslot7signal2IP8PlayListiNS_15single_threadedEED0Ev, .-_ZN7sigslot7signal2IP8PlayListiNS_15single_threadedEED0Ev
	.weak	_ZTS8PlayList
	.section	.rodata._ZTS8PlayList,"aG",@progbits,_ZTS8PlayList,comdat
	.align 2
	.type	_ZTS8PlayList, @object
	.size	_ZTS8PlayList, 10
_ZTS8PlayList:
	.string	"8PlayList"
	.weak	_ZTI8PlayList
	.section	.rodata._ZTI8PlayList,"aG",@progbits,_ZTI8PlayList,comdat
	.align 2
	.type	_ZTI8PlayList, @object
	.size	_ZTI8PlayList, 32
_ZTI8PlayList:
	.long	_ZTVN10__cxxabiv121__vmi_class_type_infoE+8
	.long	_ZTS8PlayList
	.long	0
	.long	2
	.long	_ZTI8GuiFrame
	.long	2
	.long	_ZTIN7sigslot9has_slotsINS_15single_threadedEEE
	.long	45058
	.weak	_ZTV8PlayList
	.section	.rodata._ZTV8PlayList,"aG",@progbits,_ZTV8PlayList,comdat
	.align 3
	.type	_ZTV8PlayList, @object
	.size	_ZTV8PlayList, 252
_ZTV8PlayList:
	.long	0
	.long	_ZTI8PlayList
	.long	_ZN8PlayListD1Ev
	.long	_ZN8PlayListD0Ev
	.long	_ZN10GuiElement9SetParentEPS_
	.long	_ZN10GuiElement9GetParentEv
	.long	_ZN10GuiElement7GetLeftEv
	.long	_ZN10GuiElement6GetTopEv
	.long	_ZN10GuiElement12GetZPositionEv
	.long	_ZN10GuiElement10GetLeftPosEv
	.long	_ZN10GuiElement9GetTopPosEv
	.long	_ZN10GuiElement8GetWidthEv
	.long	_ZN10GuiElement9GetHeightEv
	.long	_ZN10GuiElement7SetSizeEii
	.long	_ZN8GuiFrame10SetVisibleEb
	.long	_ZN10GuiElement9IsVisibleEv
	.long	_ZN10GuiElement12IsSelectableEv
	.long	_ZN10GuiElement11IsClickableEv
	.long	_ZN10GuiElement10IsHoldableEv
	.long	_ZN10GuiElement13SetSelectableEb
	.long	_ZN10GuiElement12SetClickableEb
	.long	_ZN10GuiElement11SetHoldableEb
	.long	_ZN10GuiElement8SetStateEii
	.long	_ZN10GuiElement8GetStateEv
	.long	_ZN10GuiElement12GetStateChanEv
	.long	_ZN8GuiFrame10ResetStateEv
	.long	_ZN10GuiElement8SetAlphaEi
	.long	_ZN10GuiElement8GetAlphaEv
	.long	_ZN10GuiElement8SetScaleEf
	.long	_ZN10GuiElement9SetScaleXEf
	.long	_ZN10GuiElement9SetScaleYEf
	.long	_ZN10GuiElement8GetScaleEv
	.long	_ZN10GuiElement9GetScaleXEv
	.long	_ZN10GuiElement9GetScaleYEv
	.long	_ZN10GuiElement6RumbleEv
	.long	_ZN10GuiElement9SetRumbleEb
	.long	_ZN10GuiElement9SetEffectEiii
	.long	_ZN10GuiElement15SetEffectOnOverEiii
	.long	_ZN10GuiElement13SetEffectGrowEv
	.long	_ZN10GuiElement12ResetEffectsEv
	.long	_ZNK10GuiElement9GetEffectEv
	.long	_ZNK10GuiElement10IsAnimatedEv
	.long	_ZN8GuiFrame9SetBoundsE4RectIiE
	.long	_ZN10GuiElement8IsInsideEii
	.long	_ZN10GuiElement11SetPositionEii
	.long	_ZN10GuiElement11SetPositionEiii
	.long	_ZN8GuiFrame11GetSelectedEv
	.long	_ZN10GuiElement12SetAlignmentEi
	.long	_ZNK10GuiElement12GetAlignmentEv
	.long	_ZN8PlayList6UpdateEP10GuiTrigger
	.long	_ZN8PlayList4DrawEv
	.long	_ZN10GuiElement13UpdateEffectsEv
	.long	_ZN8GuiFrame5CloseEv
	.long	_ZN8GuiFrame4showEv
	.long	_ZN8GuiFrame4hideEv
	.long	_ZN8GuiFrame4execEv
	.long	_ZN8GuiFrame12updateEventsEv
	.long	-176
	.long	_ZTI8PlayList
	.long	_ZThn176_N8PlayListD1Ev
	.long	_ZThn176_N8PlayListD0Ev
	.long	_ZN7sigslot15single_threaded4lockEv
	.long	_ZN7sigslot15single_threaded6unlockEv
	.weak	_ZTVN7sigslot15single_threadedE
	.section	.rodata._ZTVN7sigslot15single_threadedE,"aG",@progbits,_ZTVN7sigslot15single_threadedE,comdat
	.align 3
	.type	_ZTVN7sigslot15single_threadedE, @object
	.size	_ZTVN7sigslot15single_threadedE, 24
_ZTVN7sigslot15single_threadedE:
	.long	0
	.long	_ZTIN7sigslot15single_threadedE
	.long	_ZN7sigslot15single_threadedD1Ev
	.long	_ZN7sigslot15single_threadedD0Ev
	.long	_ZN7sigslot15single_threaded4lockEv
	.long	_ZN7sigslot15single_threaded6unlockEv
	.weak	_ZTVN7sigslot9has_slotsINS_15single_threadedEEE
	.section	.rodata._ZTVN7sigslot9has_slotsINS_15single_threadedEEE,"aG",@progbits,_ZTVN7sigslot9has_slotsINS_15single_threadedEEE,comdat
	.align 3
	.type	_ZTVN7sigslot9has_slotsINS_15single_threadedEEE, @object
	.size	_ZTVN7sigslot9has_slotsINS_15single_threadedEEE, 24
_ZTVN7sigslot9has_slotsINS_15single_threadedEEE:
	.long	0
	.long	_ZTIN7sigslot9has_slotsINS_15single_threadedEEE
	.long	_ZN7sigslot9has_slotsINS_15single_threadedEED1Ev
	.long	_ZN7sigslot9has_slotsINS_15single_threadedEED0Ev
	.long	_ZN7sigslot15single_threaded4lockEv
	.long	_ZN7sigslot15single_threaded6unlockEv
	.weak	_ZTVN7sigslot12_signal_baseINS_15single_threadedEEE
	.section	.rodata._ZTVN7sigslot12_signal_baseINS_15single_threadedEEE,"aG",@progbits,_ZTVN7sigslot12_signal_baseINS_15single_threadedEEE,comdat
	.align 3
	.type	_ZTVN7sigslot12_signal_baseINS_15single_threadedEEE, @object
	.size	_ZTVN7sigslot12_signal_baseINS_15single_threadedEEE, 32
_ZTVN7sigslot12_signal_baseINS_15single_threadedEEE:
	.long	0
	.long	_ZTIN7sigslot12_signal_baseINS_15single_threadedEEE
	.long	_ZN7sigslot12_signal_baseINS_15single_threadedEED1Ev
	.long	_ZN7sigslot12_signal_baseINS_15single_threadedEED0Ev
	.long	_ZN7sigslot15single_threaded4lockEv
	.long	_ZN7sigslot15single_threaded6unlockEv
	.long	__cxa_pure_virtual
	.long	__cxa_pure_virtual
	.weak	_ZTVN7sigslot13_signal_base2IP8PlayListiNS_15single_threadedEEE
	.section	.rodata._ZTVN7sigslot13_signal_base2IP8PlayListiNS_15single_threadedEEE,"aG",@progbits,_ZTVN7sigslot13_signal_base2IP8PlayListiNS_15single_threadedEEE,comdat
	.align 3
	.type	_ZTVN7sigslot13_signal_base2IP8PlayListiNS_15single_threadedEEE, @object
	.size	_ZTVN7sigslot13_signal_base2IP8PlayListiNS_15single_threadedEEE, 32
_ZTVN7sigslot13_signal_base2IP8PlayListiNS_15single_threadedEEE:
	.long	0
	.long	_ZTIN7sigslot13_signal_base2IP8PlayListiNS_15single_threadedEEE
	.long	_ZN7sigslot13_signal_base2IP8PlayListiNS_15single_threadedEED1Ev
	.long	_ZN7sigslot13_signal_base2IP8PlayListiNS_15single_threadedEED0Ev
	.long	_ZN7sigslot15single_threaded4lockEv
	.long	_ZN7sigslot15single_threaded6unlockEv
