	.file	"ProgressTask.cpp"
	.section	".text"
.Ltext0:
	.section	.text._ZN6Thread11startThreadEv,"axG",@progbits,_ZN6Thread11startThreadEv,comdat
	.align 2
	.weak	_ZN6Thread11startThreadEv
	.type	_ZN6Thread11startThreadEv, @function
_ZN6Thread11startThreadEv:
.LFB1486:
	.file 1 "d:/Projects/SaveGameManager/savegame-manager-gx/trunk/source/Prompts/../Controls/Thread.h"
	.loc 1 48 0
	.cfi_startproc
.LVL0:
	mflr 0
	stwu 1,-8(1)
.LCFI0:
	.cfi_def_cfa_offset 8
	.cfi_register 65, 0
	lwz 9,0(3)
	stw 0,12(1)
	.loc 1 48 0
	lwz 0,24(9)
	.cfi_offset 65, 4
	mtctr 0
	bctrl
.LVL1:
	lwz 0,12(1)
	addi 1,1,8
.LCFI1:
	.cfi_def_cfa_offset 0
	mtlr 0
	blr
	.cfi_endproc
.LFE1486:
	.size	_ZN6Thread11startThreadEv, .-_ZN6Thread11startThreadEv
	.section	.text._ZNK6Thread9getThreadEv,"axG",@progbits,_ZNK6Thread9getThreadEv,comdat
	.align 2
	.weak	_ZNK6Thread9getThreadEv
	.type	_ZNK6Thread9getThreadEv, @function
_ZNK6Thread9getThreadEv:
.LFB1487:
	.loc 1 50 0
	.cfi_startproc
.LVL2:
	.loc 1 50 0
	lwz 3,4(3)
.LVL3:
	blr
	.cfi_endproc
.LFE1487:
	.size	_ZNK6Thread9getThreadEv, .-_ZNK6Thread9getThreadEv
	.section	.text._ZN6Thread14threadCallbackEPv,"axG",@progbits,_ZN6Thread14threadCallbackEPv,comdat
	.align 2
	.weak	_ZN6Thread14threadCallbackEPv
	.type	_ZN6Thread14threadCallbackEPv, @function
_ZN6Thread14threadCallbackEPv:
.LFB1493:
	.loc 1 78 0
	.cfi_startproc
.LVL4:
	mflr 0
	stwu 1,-16(1)
.LCFI2:
	.cfi_def_cfa_offset 16
	.cfi_register 65, 0
	stw 31,12(1)
	mr 31,3
	.cfi_offset 31, -4
	stw 0,20(1)
	.loc 1 81 0
	lwz 9,0(3)
	lwz 0,20(9)
	.cfi_offset 65, 4
	mtctr 0
	bctrl
.LVL5:
	.loc 1 83 0
	lwz 9,0(31)
	mr 3,31
	lwz 0,16(9)
	mtctr 0
	bctrl
	.loc 1 85 0
	lwz 0,20(1)
	lwz 31,12(1)
.LVL6:
	li 3,0
	mtlr 0
	addi 1,1,16
.LCFI3:
	.cfi_def_cfa_offset 0
	.cfi_restore 31
	blr
	.cfi_endproc
.LFE1493:
	.size	_ZN6Thread14threadCallbackEPv, .-_ZN6Thread14threadCallbackEPv
	.section	".text"
	.align 2
	.globl _ZN12ProgressTask13executeThreadEv
	.type	_ZN12ProgressTask13executeThreadEv, @function
_ZN12ProgressTask13executeThreadEv:
.LFB1503:
	.file 2 "d:/Projects/SaveGameManager/savegame-manager-gx/trunk/source/Prompts/ProgressTask.cpp"
	.loc 2 36 0
	.cfi_startproc
	.cfi_personality 0,__gxx_personality_v0
	.cfi_lsda 0,.LLSDA1503
.LVL7:
	mflr 0
	stwu 1,-24(1)
.LCFI4:
	.cfi_def_cfa_offset 24
	.cfi_register 65, 0
	stw 29,12(1)
	mr 29,3
	.cfi_offset 29, -12
	stw 0,28(1)
	stw 30,16(1)
	.loc 2 37 0
	lbz 0,12(3)
	.cfi_offset 30, -8
	.cfi_offset 65, 4
	.loc 2 36 0
	stw 31,20(1)
	.loc 2 37 0
	cmpwi 7,0,0
	bne- 7,.L4
	.cfi_offset 31, -4
	lis 30,_ZN11Application8instanceE@ha
	la 30,_ZN11Application8instanceE@l(30)
	b .L7
.LVL8:
.L6:
	.loc 2 39 0
	lwz 9,0(31)
	mr 3,31
	lwz 0,216(9)
	mtctr 0
.LEHB0:
	bctrl
	.loc 2 37 0
	lbz 0,12(29)
	cmpwi 7,0,0
	bne- 7,.L4
.L7:
.LBB1267:
.LBB1268:
	.file 3 "d:/Projects/SaveGameManager/savegame-manager-gx/trunk/source/Prompts/../Controls/Application.h"
	.loc 3 27 0
	lwz 31,0(30)
	cmpwi 7,31,0
	bne+ 7,.L6
	li 3,632
	bl _Znwj
.LEHE0:
	mr 31,3
.LEHB1:
	bl _ZN11ApplicationC1Ev
.LEHE1:
.LBE1268:
.LBE1267:
	.loc 2 39 0
	lwz 9,0(31)
	mr 3,31
.LBB1271:
.LBB1269:
	.loc 3 27 0
	stw 31,0(30)
.LBE1269:
.LBE1271:
	.loc 2 39 0
	lwz 0,216(9)
	mtctr 0
.LEHB2:
	bctrl
	.loc 2 37 0
	lbz 0,12(29)
	cmpwi 7,0,0
	beq+ 7,.L7
.L4:
	.loc 2 41 0
	lwz 0,28(1)
	lwz 29,12(1)
.LVL9:
	mtlr 0
	lwz 30,16(1)
	lwz 31,20(1)
	addi 1,1,24
	.cfi_remember_state
.LCFI5:
	.cfi_def_cfa_offset 0
	.cfi_restore 31
	.cfi_restore 30
	.cfi_restore 29
	blr
.LVL10:
.L9:
.LCFI6:
	.cfi_restore_state
	mr 30,3
.LBB1272:
.LBB1270:
	.loc 3 27 0
	mr 3,31
	bl _ZdlPv
	mr 3,30
	bl _Unwind_Resume
.LEHE2:
.LBE1270:
.LBE1272:
	.cfi_endproc
.LFE1503:
	.globl __gxx_personality_v0
	.section	.gcc_except_table,"a",@progbits
.LLSDA1503:
	.byte	0xff
	.byte	0xff
	.byte	0x1
	.uleb128 .LLSDACSE1503-.LLSDACSB1503
.LLSDACSB1503:
	.uleb128 .LEHB0-.LFB1503
	.uleb128 .LEHE0-.LEHB0
	.uleb128 0
	.uleb128 0
	.uleb128 .LEHB1-.LFB1503
	.uleb128 .LEHE1-.LEHB1
	.uleb128 .L9-.LFB1503
	.uleb128 0
	.uleb128 .LEHB2-.LFB1503
	.uleb128 .LEHE2-.LEHB2
	.uleb128 0
	.uleb128 0
.LLSDACSE1503:
	.section	".text"
	.size	_ZN12ProgressTask13executeThreadEv, .-_ZN12ProgressTask13executeThreadEv
	.section	.text._ZN6Thread14shutdownThreadEv,"axG",@progbits,_ZN6Thread14shutdownThreadEv,comdat
	.align 2
	.weak	_ZN6Thread14shutdownThreadEv
	.type	_ZN6Thread14shutdownThreadEv, @function
_ZN6Thread14shutdownThreadEv:
.LFB1492:
	.loc 1 62 0
	.cfi_startproc
.LVL11:
	mflr 0
	stwu 1,-16(1)
.LCFI7:
	.cfi_def_cfa_offset 16
	.cfi_register 65, 0
	stw 31,12(1)
	mr 31,3
	.cfi_offset 31, -4
	stw 0,20(1)
	.loc 1 65 0
	lwz 0,4(3)
	.cfi_offset 65, 4
	cmpwi 7,0,-1
	beq- 7,.L13
	.loc 1 67 0
	lwz 9,0(3)
	lwz 0,24(9)
	mtctr 0
	bctrl
.LVL12:
	.loc 1 68 0
	lwz 3,4(31)
	li 4,0
	bl LWP_JoinThread
.L13:
	.loc 1 71 0
	lwz 3,8(31)
	cmpwi 7,3,0
	beq- 7,.L14
	.loc 1 72 0
	bl free
.L14:
	.loc 1 74 0
	li 0,-1
	stw 0,4(31)
	.loc 1 75 0
	li 0,0
	stw 0,8(31)
	.loc 1 76 0
	lwz 0,20(1)
	lwz 31,12(1)
.LVL13:
	mtlr 0
	addi 1,1,16
.LCFI8:
	.cfi_def_cfa_offset 0
	.cfi_restore 31
	blr
	.cfi_endproc
.LFE1492:
	.size	_ZN6Thread14shutdownThreadEv, .-_ZN6Thread14shutdownThreadEv
	.section	.text._ZN6Thread17setThreadPriorityEi,"axG",@progbits,_ZN6Thread17setThreadPriorityEi,comdat
	.align 2
	.weak	_ZN6Thread17setThreadPriorityEi
	.type	_ZN6Thread17setThreadPriorityEi, @function
_ZN6Thread17setThreadPriorityEi:
.LFB1490:
	.loc 1 58 0
	.cfi_startproc
.LVL14:
	mflr 0
	stwu 1,-8(1)
.LCFI9:
	.cfi_def_cfa_offset 8
	.cfi_register 65, 0
	stw 0,12(1)
	.loc 1 58 0
	lwz 3,4(3)
.LVL15:
	cmpwi 7,3,-1
	beq- 7,.L15
	.cfi_offset 65, 4
	.loc 1 58 0 is_stmt 0 discriminator 1
	bl LWP_SetThreadPriority
.LVL16:
.L15:
	.loc 1 58 0
	lwz 0,12(1)
	addi 1,1,8
.LCFI10:
	.cfi_def_cfa_offset 0
	mtlr 0
	blr
	.cfi_endproc
.LFE1490:
	.size	_ZN6Thread17setThreadPriorityEi, .-_ZN6Thread17setThreadPriorityEi
	.section	.text._ZNK6Thread15isThreadRunningEv,"axG",@progbits,_ZNK6Thread15isThreadRunningEv,comdat
	.align 2
	.weak	_ZNK6Thread15isThreadRunningEv
	.type	_ZNK6Thread15isThreadRunningEv, @function
_ZNK6Thread15isThreadRunningEv:
.LFB1491:
	.loc 1 60 0 is_stmt 1
	.cfi_startproc
.LVL17:
	mflr 0
	stwu 1,-8(1)
.LCFI11:
	.cfi_def_cfa_offset 8
	.cfi_register 65, 0
	stw 0,12(1)
	.loc 1 60 0
	lwz 0,4(3)
	.cfi_offset 65, 4
	li 3,0
.LVL18:
	cmpwi 7,0,-1
	beq- 7,.L18
.LBB1275:
.LBB1276:
	mr 3,0
	bl LWP_ThreadIsSuspended
	cntlzw 3,3
	srwi 3,3,5
.L18:
.LBE1276:
.LBE1275:
	lwz 0,12(1)
	addi 1,1,8
.LCFI12:
	.cfi_def_cfa_offset 0
	mtlr 0
	blr
	.cfi_endproc
.LFE1491:
	.size	_ZNK6Thread15isThreadRunningEv, .-_ZNK6Thread15isThreadRunningEv
	.section	.text._ZN6Thread12resumeThreadEv,"axG",@progbits,_ZN6Thread12resumeThreadEv,comdat
	.align 2
	.weak	_ZN6Thread12resumeThreadEv
	.type	_ZN6Thread12resumeThreadEv, @function
_ZN6Thread12resumeThreadEv:
.LFB1489:
	.loc 1 56 0
	.cfi_startproc
.LVL19:
	mflr 0
	stwu 1,-8(1)
.LCFI13:
	.cfi_def_cfa_offset 8
	.cfi_register 65, 0
	stw 0,12(1)
	.loc 1 56 0
	lwz 3,4(3)
.LVL20:
	cmpwi 7,3,-1
	beq- 7,.L20
	.cfi_offset 65, 4
.LBB1279:
.LBB1280:
	bl LWP_ResumeThread
.L20:
.LBE1280:
.LBE1279:
	lwz 0,12(1)
	addi 1,1,8
.LCFI14:
	.cfi_def_cfa_offset 0
	mtlr 0
	blr
	.cfi_endproc
.LFE1489:
	.size	_ZN6Thread12resumeThreadEv, .-_ZN6Thread12resumeThreadEv
	.section	.text._ZN6Thread13suspendThreadEv,"axG",@progbits,_ZN6Thread13suspendThreadEv,comdat
	.align 2
	.weak	_ZN6Thread13suspendThreadEv
	.type	_ZN6Thread13suspendThreadEv, @function
_ZN6Thread13suspendThreadEv:
.LFB1488:
	.loc 1 54 0
	.cfi_startproc
.LVL21:
	mflr 0
	stwu 1,-8(1)
.LCFI15:
	.cfi_def_cfa_offset 8
	.cfi_register 65, 0
	stw 0,12(1)
	.loc 1 54 0
	lwz 3,4(3)
.LVL22:
	cmpwi 7,3,-1
	beq- 7,.L22
	.cfi_offset 65, 4
.LBB1283:
.LBB1284:
	bl LWP_SuspendThread
.L22:
.LBE1284:
.LBE1283:
	lwz 0,12(1)
	addi 1,1,8
.LCFI16:
	.cfi_def_cfa_offset 0
	mtlr 0
	blr
	.cfi_endproc
.LFE1488:
	.size	_ZN6Thread13suspendThreadEv, .-_ZN6Thread13suspendThreadEv
	.section	.text._ZN6ThreadD2Ev,"axG",@progbits,_ZN6ThreadD5Ev,comdat
	.align 2
	.weak	_ZN6ThreadD2Ev
	.type	_ZN6ThreadD2Ev, @function
_ZN6ThreadD2Ev:
.LFB1483:
	.loc 1 45 0
	.cfi_startproc
.LVL23:
	mflr 0
	stwu 1,-16(1)
.LCFI17:
	.cfi_def_cfa_offset 16
	.cfi_register 65, 0
.LBB1288:
	lis 9,_ZTV6Thread+8@ha
.LBE1288:
	stw 31,12(1)
	mr 31,3
	.cfi_offset 31, -4
	stw 0,20(1)
.LBB1293:
.LBB1289:
.LBB1290:
	.loc 1 65 0
	lwz 0,4(3)
	.cfi_offset 65, 4
	cmpwi 7,0,-1
.LBE1290:
.LBE1289:
	.loc 1 45 0
	la 0,_ZTV6Thread+8@l(9)
	stw 0,0(3)
.LVL24:
.LBB1292:
.LBB1291:
	.loc 1 65 0
	beq- 7,.L25
	.loc 1 67 0
	bl _ZN6Thread12resumeThreadEv
.LVL25:
	.loc 1 68 0
	lwz 3,4(31)
	li 4,0
	bl LWP_JoinThread
.L25:
	.loc 1 71 0
	lwz 3,8(31)
	cmpwi 7,3,0
	beq- 7,.L26
	.loc 1 72 0
	bl free
.L26:
	.loc 1 74 0
	li 0,-1
	stw 0,4(31)
	.loc 1 75 0
	li 0,0
	stw 0,8(31)
.LBE1291:
.LBE1292:
.LBE1293:
	.loc 1 45 0
	lwz 0,20(1)
	lwz 31,12(1)
.LVL26:
	mtlr 0
	addi 1,1,16
.LCFI18:
	.cfi_def_cfa_offset 0
	.cfi_restore 31
	blr
	.cfi_endproc
.LFE1483:
	.size	_ZN6ThreadD2Ev, .-_ZN6ThreadD2Ev
	.section	".text"
	.align 2
	.globl _ZN12ProgressTaskD2Ev
	.type	_ZN12ProgressTaskD2Ev, @function
_ZN12ProgressTaskD2Ev:
.LFB1500:
	.loc 2 30 0
	.cfi_startproc
.LVL27:
	mflr 0
	stwu 1,-16(1)
.LCFI19:
	.cfi_def_cfa_offset 16
	.cfi_register 65, 0
.LBB1304:
.LBB1305:
.LBB1306:
.LBB1307:
	.loc 1 45 0
	lis 9,_ZTV6Thread+8@ha
.LBE1307:
.LBE1306:
.LBE1305:
.LBE1304:
	.loc 2 30 0
	stw 31,12(1)
	mr 31,3
	.cfi_offset 31, -4
	stw 0,20(1)
.LBB1318:
.LBB1316:
.LBB1314:
.LBB1312:
.LBB1308:
.LBB1309:
	.loc 1 65 0
	lwz 0,4(3)
	.cfi_offset 65, 4
	cmpwi 7,0,-1
.LBE1309:
.LBE1308:
.LBE1312:
.LBE1314:
.LBE1316:
	.loc 2 32 0
	li 0,1
	stb 0,12(3)
.LVL28:
.LBB1317:
.LBB1315:
.LBB1313:
	.loc 1 45 0
	la 0,_ZTV6Thread+8@l(9)
	stw 0,0(3)
.LVL29:
.LBB1311:
.LBB1310:
	.loc 1 65 0
	beq- 7,.L29
	.loc 1 67 0
	bl _ZN6Thread12resumeThreadEv
.LVL30:
	.loc 1 68 0
	lwz 3,4(31)
	li 4,0
	bl LWP_JoinThread
.L29:
	.loc 1 71 0
	lwz 3,8(31)
	cmpwi 7,3,0
	beq- 7,.L30
	.loc 1 72 0
	bl free
.L30:
	.loc 1 74 0
	li 0,-1
	stw 0,4(31)
	.loc 1 75 0
	li 0,0
	stw 0,8(31)
.LBE1310:
.LBE1311:
.LBE1313:
.LBE1315:
.LBE1317:
.LBE1318:
	.loc 2 33 0
	lwz 0,20(1)
	lwz 31,12(1)
.LVL31:
	mtlr 0
	addi 1,1,16
.LCFI20:
	.cfi_def_cfa_offset 0
	.cfi_restore 31
	blr
	.cfi_endproc
.LFE1500:
	.size	_ZN12ProgressTaskD2Ev, .-_ZN12ProgressTaskD2Ev
	.section	.text._ZN6ThreadD0Ev,"axG",@progbits,_ZN6ThreadD5Ev,comdat
	.align 2
	.weak	_ZN6ThreadD0Ev
	.type	_ZN6ThreadD0Ev, @function
_ZN6ThreadD0Ev:
.LFB1485:
	.loc 1 45 0
	.cfi_startproc
.LVL32:
	mflr 0
	stwu 1,-16(1)
.LCFI21:
	.cfi_def_cfa_offset 16
	.cfi_register 65, 0
.LBB1324:
.LBB1325:
.LBB1326:
	lis 9,_ZTV6Thread+8@ha
.LBE1326:
.LBE1325:
.LBE1324:
	stw 31,12(1)
	mr 31,3
	.cfi_offset 31, -4
.LVL33:
	stw 0,20(1)
.LBB1337:
.LBB1335:
.LBB1333:
.LBB1327:
.LBB1328:
	.loc 1 65 0
	lwz 0,4(3)
	.cfi_offset 65, 4
	cmpwi 7,0,-1
.LBE1328:
.LBE1327:
	.loc 1 45 0
	la 0,_ZTV6Thread+8@l(9)
	stw 0,0(3)
.LVL34:
.LBB1331:
.LBB1329:
	.loc 1 65 0
	beq- 7,.L34
	.loc 1 67 0
	bl _ZN6Thread12resumeThreadEv
.LVL35:
	.loc 1 68 0
	lwz 3,4(31)
	li 4,0
	bl LWP_JoinThread
.L34:
	.loc 1 71 0
	lwz 3,8(31)
	cmpwi 7,3,0
	beq- 7,.L35
	.loc 1 72 0
	bl free
.L35:
	.loc 1 74 0
	li 0,-1
.LBE1329:
.LBE1331:
.LBE1333:
.LBE1335:
.LBE1337:
	.loc 1 45 0
	mr 3,31
.LBB1338:
.LBB1336:
.LBB1334:
.LBB1332:
.LBB1330:
	.loc 1 74 0
	stw 0,4(31)
	.loc 1 75 0
	li 0,0
	stw 0,8(31)
.LBE1330:
.LBE1332:
.LBE1334:
.LBE1336:
.LBE1338:
	.loc 1 45 0
	bl _ZdlPv
	lwz 0,20(1)
	lwz 31,12(1)
.LVL36:
	mtlr 0
	addi 1,1,16
.LCFI22:
	.cfi_def_cfa_offset 0
	.cfi_restore 31
	blr
	.cfi_endproc
.LFE1485:
	.size	_ZN6ThreadD0Ev, .-_ZN6ThreadD0Ev
	.section	".text"
	.align 2
	.globl _ZN12ProgressTaskD0Ev
	.type	_ZN12ProgressTaskD0Ev, @function
_ZN12ProgressTaskD0Ev:
.LFB1502:
	.loc 2 30 0
	.cfi_startproc
.LVL37:
	mflr 0
	stwu 1,-16(1)
.LCFI23:
	.cfi_def_cfa_offset 16
	.cfi_register 65, 0
.LBB1347:
.LBB1348:
.LBB1349:
.LBB1350:
.LBB1351:
.LBB1352:
	.loc 1 45 0
	lis 9,_ZTV6Thread+8@ha
.LBE1352:
.LBE1351:
.LBE1350:
.LBE1349:
.LBE1348:
.LBE1347:
	.loc 2 30 0
	stw 31,12(1)
	mr 31,3
	.cfi_offset 31, -4
.LVL38:
	stw 0,20(1)
.LBB1372:
.LBB1370:
.LBB1368:
.LBB1365:
.LBB1362:
.LBB1359:
.LBB1353:
.LBB1354:
	.loc 1 65 0
	lwz 0,4(3)
	.cfi_offset 65, 4
	cmpwi 7,0,-1
.LBE1354:
.LBE1353:
.LBE1359:
.LBE1362:
.LBE1365:
	.loc 2 32 0
	li 0,1
	stb 0,12(3)
.LVL39:
.LBB1366:
.LBB1363:
.LBB1360:
	.loc 1 45 0
	la 0,_ZTV6Thread+8@l(9)
	stw 0,0(3)
.LVL40:
.LBB1357:
.LBB1355:
	.loc 1 65 0
	beq- 7,.L39
.LVL41:
	.loc 1 67 0
	bl _ZN6Thread12resumeThreadEv
.LVL42:
	.loc 1 68 0
	lwz 3,4(31)
	li 4,0
	bl LWP_JoinThread
.L39:
	.loc 1 71 0
	lwz 3,8(31)
	cmpwi 7,3,0
	beq- 7,.L40
	.loc 1 72 0
	bl free
.L40:
	.loc 1 74 0
	li 0,-1
.LBE1355:
.LBE1357:
.LBE1360:
.LBE1363:
.LBE1366:
.LBE1368:
.LBE1370:
.LBE1372:
	.loc 2 33 0
	mr 3,31
.LBB1373:
.LBB1371:
.LBB1369:
.LBB1367:
.LBB1364:
.LBB1361:
.LBB1358:
.LBB1356:
	.loc 1 74 0
	stw 0,4(31)
	.loc 1 75 0
	li 0,0
	stw 0,8(31)
.LBE1356:
.LBE1358:
.LBE1361:
.LBE1364:
.LBE1367:
.LBE1369:
.LBE1371:
.LBE1373:
	.loc 2 33 0
	bl _ZdlPv
	lwz 0,20(1)
	lwz 31,12(1)
.LVL43:
	mtlr 0
	addi 1,1,16
.LCFI24:
	.cfi_def_cfa_offset 0
	.cfi_restore 31
	blr
	.cfi_endproc
.LFE1502:
	.size	_ZN12ProgressTaskD0Ev, .-_ZN12ProgressTaskD0Ev
	.align 2
	.globl _ZN12ProgressTaskC2Ev
	.type	_ZN12ProgressTaskC2Ev, @function
_ZN12ProgressTaskC2Ev:
.LFB1497:
	.loc 2 22 0
	.cfi_startproc
	.cfi_personality 0,__gxx_personality_v0
	.cfi_lsda 0,.LLSDA1497
.LVL44:
	mflr 0
	stwu 1,-16(1)
.LCFI25:
	.cfi_def_cfa_offset 16
	.cfi_register 65, 0
.LBB1390:
.LBB1391:
.LBB1392:
	.loc 1 33 0
	li 4,8192
.LBE1392:
.LBE1391:
.LBE1390:
	.loc 2 22 0
	stw 30,8(1)
.LBB1416:
.LBB1401:
.LBB1397:
	.loc 1 30 0
	lis 30,_ZTV6Thread+8@ha
	.cfi_offset 30, -8
.LBE1397:
.LBE1401:
.LBE1416:
	.loc 2 22 0
	stw 0,20(1)
.LBB1417:
.LBB1402:
.LBB1398:
	.loc 1 30 0
	li 0,-1
	.cfi_offset 65, 4
.LBE1398:
.LBE1402:
.LBE1417:
	.loc 2 22 0
	stw 31,12(1)
.LBB1418:
.LBB1403:
.LBB1399:
	.loc 1 30 0
	la 30,_ZTV6Thread+8@l(30)
	stw 0,4(3)
	li 0,0
	stw 30,0(3)
.LBE1399:
.LBE1403:
.LBE1418:
	.loc 2 22 0
	mr 31,3
	.cfi_offset 31, -4
.LVL45:
.LBB1419:
.LBB1404:
.LBB1400:
	.loc 1 30 0
	stw 0,8(3)
	.loc 1 33 0
	li 3,32
.LVL46:
.LEHB3:
	bl memalign
	.loc 1 35 0
	cmpwi 7,3,0
	.loc 1 33 0
	mr 6,3
	stw 3,8(31)
	.loc 1 35 0
	beq- 7,.L45
	.loc 1 38 0
	lis 4,_ZN6Thread14threadCallbackEPv@ha
	addi 3,31,4
	la 4,_ZN6Thread14threadCallbackEPv@l(4)
	mr 5,31
	li 7,8192
	li 8,60
	bl LWP_CreateThread
.LVL47:
.L46:
	.loc 1 40 0
	li 3,1000
	bl usleep
.LVL48:
.LBB1393:
.LBB1394:
	.loc 1 60 0
	lwz 3,4(31)
	cmpwi 7,3,-1
	beq- 7,.L45
.LBB1395:
.LBB1396:
	bl LWP_ThreadIsSuspended
.LEHE3:
.LBE1396:
.LBE1395:
.LBE1394:
.LBE1393:
	.loc 1 40 0
	cmpwi 7,3,0
	beq+ 7,.L46
.LVL49:
.L45:
.LBE1400:
.LBE1404:
	.loc 2 24 0
	lis 9,_ZTV12ProgressTask+8@ha
.LBB1405:
.LBB1406:
	.loc 1 48 0
	mr 3,31
.LBE1406:
.LBE1405:
	.loc 2 24 0
	la 0,_ZTV12ProgressTask+8@l(9)
	stw 0,0(31)
	li 0,0
	stb 0,12(31)
.LVL50:
.LEHB4:
.LBB1408:
.LBB1407:
	.loc 1 48 0
	bl _ZN6Thread12resumeThreadEv
.LVL51:
.LBE1407:
.LBE1408:
.LBB1409:
.LBB1410:
	.loc 1 56 0
	lwz 3,4(31)
	cmpwi 7,3,-1
	beq- 7,.L44
.LVL52:
.LBB1411:
.LBB1412:
	bl LWP_ResumeThread
.LEHE4:
.LVL53:
.L44:
.LBE1412:
.LBE1411:
.LBE1410:
.LBE1409:
.LBE1419:
	.loc 2 28 0
	lwz 0,20(1)
	lwz 30,8(1)
	mtlr 0
	lwz 31,12(1)
.LVL54:
	addi 1,1,16
	.cfi_remember_state
.LCFI26:
	.cfi_def_cfa_offset 0
	.cfi_restore 31
	.cfi_restore 30
	blr
.LVL55:
.L50:
.LCFI27:
	.cfi_restore_state
.LBB1420:
.LBB1413:
.LBB1414:
.LBB1415:
	.loc 1 45 0
	stw 30,0(31)
	mr 30,3
.LVL56:
	mr 3,31
	bl _ZN6Thread14shutdownThreadEv
	mr 3,30
.LEHB5:
	bl _Unwind_Resume
.LEHE5:
.LBE1415:
.LBE1414:
.LBE1413:
.LBE1420:
	.cfi_endproc
.LFE1497:
	.section	.gcc_except_table
.LLSDA1497:
	.byte	0xff
	.byte	0xff
	.byte	0x1
	.uleb128 .LLSDACSE1497-.LLSDACSB1497
.LLSDACSB1497:
	.uleb128 .LEHB3-.LFB1497
	.uleb128 .LEHE3-.LEHB3
	.uleb128 0
	.uleb128 0
	.uleb128 .LEHB4-.LFB1497
	.uleb128 .LEHE4-.LEHB4
	.uleb128 .L50-.LFB1497
	.uleb128 0
	.uleb128 .LEHB5-.LFB1497
	.uleb128 .LEHE5-.LEHB5
	.uleb128 0
	.uleb128 0
.LLSDACSE1497:
	.section	".text"
	.size	_ZN12ProgressTaskC2Ev, .-_ZN12ProgressTaskC2Ev
	.weak	_ZTS12ProgressTask
	.section	.rodata._ZTS12ProgressTask,"aG",@progbits,_ZTS12ProgressTask,comdat
	.align 2
	.type	_ZTS12ProgressTask, @object
	.size	_ZTS12ProgressTask, 15
_ZTS12ProgressTask:
	.string	"12ProgressTask"
	.weak	_ZTI12ProgressTask
	.section	.rodata._ZTI12ProgressTask,"aG",@progbits,_ZTI12ProgressTask,comdat
	.align 2
	.type	_ZTI12ProgressTask, @object
	.size	_ZTI12ProgressTask, 12
_ZTI12ProgressTask:
	.long	_ZTVN10__cxxabiv120__si_class_type_infoE+8
	.long	_ZTS12ProgressTask
	.long	_ZTI6Thread
	.weak	_ZTV12ProgressTask
	.section	.rodata._ZTV12ProgressTask,"aG",@progbits,_ZTV12ProgressTask,comdat
	.align 3
	.type	_ZTV12ProgressTask, @object
	.size	_ZTV12ProgressTask, 48
_ZTV12ProgressTask:
	.long	0
	.long	_ZTI12ProgressTask
	.long	_ZN12ProgressTaskD1Ev
	.long	_ZN12ProgressTaskD0Ev
	.long	_ZN6Thread11startThreadEv
	.long	_ZNK6Thread9getThreadEv
	.long	_ZN12ProgressTask13executeThreadEv
	.long	_ZN6Thread13suspendThreadEv
	.long	_ZN6Thread12resumeThreadEv
	.long	_ZN6Thread17setThreadPriorityEi
	.long	_ZNK6Thread15isThreadRunningEv
	.long	_ZN6Thread14shutdownThreadEv
	.globl _ZN12ProgressTask8instanceE
	.weak	_ZTV6Thread
	.section	.rodata._ZTV6Thread,"aG",@progbits,_ZTV6Thread,comdat
	.align 3
	.type	_ZTV6Thread, @object
	.size	_ZTV6Thread, 48
_ZTV6Thread:
	.long	0
	.long	_ZTI6Thread
	.long	_ZN6ThreadD1Ev
	.long	_ZN6ThreadD0Ev
	.long	_ZN6Thread11startThreadEv
	.long	_ZNK6Thread9getThreadEv
	.long	__cxa_pure_virtual
	.long	_ZN6Thread13suspendThreadEv
	.long	_ZN6Thread12resumeThreadEv
	.long	_ZN6Thread17setThreadPriorityEi
	.long	_ZNK6Thread15isThreadRunningEv
	.long	_ZN6Thread14shutdownThreadEv
	.weak	_ZTI6Thread
	.section	.sdata._ZTI6Thread,"awG",@progbits,_ZTI6Thread,comdat
	.align 2
	.type	_ZTI6Thread, @object
	.size	_ZTI6Thread, 8
_ZTI6Thread:
	.long	_ZTVN10__cxxabiv117__class_type_infoE+8
	.long	_ZTS6Thread
	.weak	_ZTS6Thread
	.section	.sdata._ZTS6Thread,"awG",@progbits,_ZTS6Thread,comdat
	.align 2
	.type	_ZTS6Thread, @object
	.size	_ZTS6Thread, 8
_ZTS6Thread:
	.string	"6Thread"
	.weak	_ZN6ThreadD1Ev
	.set	_ZN6ThreadD1Ev,_ZN6ThreadD2Ev
	.globl _ZN12ProgressTaskD1Ev
	.set	_ZN12ProgressTaskD1Ev,_ZN12ProgressTaskD2Ev
	.globl _ZN12ProgressTaskC1Ev
	.set	_ZN12ProgressTaskC1Ev,_ZN12ProgressTaskC2Ev
	.section	.sbss,"aw",@nobits
	.align 2
	.type	_ZN12ProgressTask8instanceE, @object
	.size	_ZN12ProgressTask8instanceE, 4
_ZN12ProgressTask8instanceE:
	.zero	4
	.section	".text"
.Letext0:
	.file 4 "d:\\devkitpro\\devkitppc\\bin\\../lib/gcc/powerpc-eabi/4.6.3/../../../../powerpc-eabi/include/stdint.h"
	.file 5 "d:/devkitPro/libogc/include/gctypes.h"
	.file 6 "d:/devkitPro/libogc/include/ogc/lwp.h"
	.file 7 "d:/devkitPro/libogc/include/ogc/gx.h"
	.file 8 "d:\\devkitpro\\devkitppc\\bin\\../lib/gcc/powerpc-eabi/4.6.3/../../../../powerpc-eabi/include/machine/_types.h"
	.file 9 "d:\\devkitpro\\devkitppc\\bin\\../lib/gcc/powerpc-eabi/4.6.3/../../../../powerpc-eabi/include/sys/lock.h"
	.file 10 "d:\\devkitpro\\devkitppc\\bin\\../lib/gcc/powerpc-eabi/4.6.3/include/stddef.h"
	.file 11 "d:\\devkitpro\\devkitppc\\bin\\../lib/gcc/powerpc-eabi/4.6.3/../../../../powerpc-eabi/include/sys/_types.h"
	.file 12 "d:\\devkitpro\\devkitppc\\bin\\../lib/gcc/powerpc-eabi/4.6.3/../../../../powerpc-eabi/include/sys/reent.h"
	.file 13 "d:\\devkitpro\\devkitppc\\bin\\../lib/gcc/powerpc-eabi/4.6.3/../../../../powerpc-eabi/include/time.h"
	.file 14 "<built-in>"
	.file 15 "d:\\devkitpro\\devkitppc\\bin\\../lib/gcc/powerpc-eabi/4.6.3/../../../../powerpc-eabi/include/wchar.h"
	.file 16 "d:\\devkitpro\\devkitppc\\bin\\../lib/gcc/powerpc-eabi/4.6.3/../../../../powerpc-eabi/include/c++/4.6.3/cwchar"
	.file 17 "d:\\devkitpro\\devkitppc\\bin\\../lib/gcc/powerpc-eabi/4.6.3/../../../../powerpc-eabi/include/c++/4.6.3/powerpc-eabi/bits/c++config.h"
	.file 18 "d:\\devkitpro\\devkitppc\\bin\\../lib/gcc/powerpc-eabi/4.6.3/../../../../powerpc-eabi/include/c++/4.6.3/clocale"
	.file 19 "d:\\devkitpro\\devkitppc\\bin\\../lib/gcc/powerpc-eabi/4.6.3/../../../../powerpc-eabi/include/c++/4.6.3/bits/basic_string.h"
	.file 20 "d:\\devkitpro\\devkitppc\\bin\\../lib/gcc/powerpc-eabi/4.6.3/../../../../powerpc-eabi/include/c++/4.6.3/bits/stl_list.h"
	.file 21 "d:\\devkitpro\\devkitppc\\bin\\../lib/gcc/powerpc-eabi/4.6.3/../../../../powerpc-eabi/include/c++/4.6.3/bits/stl_tree.h"
	.file 22 "d:\\devkitpro\\devkitppc\\bin\\../lib/gcc/powerpc-eabi/4.6.3/../../../../powerpc-eabi/include/c++/4.6.3/bits/move.h"
	.file 23 "d:\\devkitpro\\devkitppc\\bin\\../lib/gcc/powerpc-eabi/4.6.3/../../../../powerpc-eabi/include/c++/4.6.3/bits/cpp_type_traits.h"
	.file 24 "d:\\devkitpro\\devkitppc\\bin\\../lib/gcc/powerpc-eabi/4.6.3/../../../../powerpc-eabi/include/c++/4.6.3/ext/new_allocator.h"
	.file 25 "d:\\devkitpro\\devkitppc\\bin\\../lib/gcc/powerpc-eabi/4.6.3/../../../../powerpc-eabi/include/c++/4.6.3/debug/debug.h"
	.file 26 "d:\\devkitpro\\devkitppc\\bin\\../lib/gcc/powerpc-eabi/4.6.3/../../../../powerpc-eabi/include/c++/4.6.3/bits/char_traits.h"
	.file 27 "d:\\devkitpro\\devkitppc\\bin\\../lib/gcc/powerpc-eabi/4.6.3/../../../../powerpc-eabi/include/c++/4.6.3/bits/allocator.h"
	.file 28 "d:\\devkitpro\\devkitppc\\bin\\../lib/gcc/powerpc-eabi/4.6.3/../../../../powerpc-eabi/include/locale.h"
	.file 29 "d:\\devkitpro\\devkitppc\\bin\\../lib/gcc/powerpc-eabi/4.6.3/../../../../powerpc-eabi/include/c++/4.6.3/powerpc-eabi/bits/atomic_word.h"
	.file 30 "d:\\devkitpro\\devkitppc\\bin\\../lib/gcc/powerpc-eabi/4.6.3/../../../../powerpc-eabi/include/c++/4.6.3/ext/numeric_traits.h"
	.file 31 "d:\\devkitpro\\devkitppc\\bin\\../lib/gcc/powerpc-eabi/4.6.3/../../../../powerpc-eabi/include/c++/4.6.3/bits/basic_string.tcc"
	.file 32 "d:\\devkitpro\\devkitppc\\bin\\../lib/gcc/powerpc-eabi/4.6.3/../../../../powerpc-eabi/include/c++/4.6.3/bits/stl_iterator_base_types.h"
	.file 33 "d:\\devkitpro\\devkitppc\\bin\\../lib/gcc/powerpc-eabi/4.6.3/../../../../powerpc-eabi/include/c++/4.6.3/bits/stl_iterator.h"
	.file 34 "d:/Projects/SaveGameManager/savegame-manager-gx/trunk/source/Prompts/../Controls/../GUI/../Tools/Rect.h"
	.file 35 "d:/Projects/SaveGameManager/savegame-manager-gx/trunk/source/Prompts/../Controls/../GUI/../sigslot.h"
	.file 36 "d:\\devkitpro\\devkitppc\\bin\\../lib/gcc/powerpc-eabi/4.6.3/../../../../powerpc-eabi/include/c++/4.6.3/bits/list.tcc"
	.file 37 "d:/Projects/SaveGameManager/savegame-manager-gx/trunk/source/Prompts/../Controls/../GUI/gui_element.h"
	.file 38 "d:\\devkitpro\\devkitppc\\bin\\../lib/gcc/powerpc-eabi/4.6.3/../../../../powerpc-eabi/include/c++/4.6.3/bits/stl_function.h"
	.file 39 "d:\\devkitpro\\devkitppc\\bin\\../lib/gcc/powerpc-eabi/4.6.3/../../../../powerpc-eabi/include/c++/4.6.3/bits/stl_set.h"
	.file 40 "d:\\devkitpro\\devkitppc\\bin\\../lib/gcc/powerpc-eabi/4.6.3/../../../../powerpc-eabi/include/c++/4.6.3/bits/stl_pair.h"
	.file 41 "d:/Projects/SaveGameManager/savegame-manager-gx/trunk/source/Prompts/ProgressTask.h"
	.file 42 "d:\\devkitpro\\devkitppc\\bin\\../lib/gcc/powerpc-eabi/4.6.3/../../../../powerpc-eabi/include/c++/4.6.3/new"