   1              		.file	"ProgressWindow.cpp"
   2              		.section	".text"
   3              	.Ltext0:
   4              		.section	.text._ZN7sigslot15single_threadedD2Ev,"axG",@progbits,_ZN7sigslot15single_threadedD5Ev,c
   5              		.align 2
   6              		.weak	_ZN7sigslot15single_threadedD2Ev
   7              		.type	_ZN7sigslot15single_threadedD2Ev, @function
   8              	_ZN7sigslot15single_threadedD2Ev:
   9              	.LFB1148:
  10              		.file 1 "d:/Projects/SaveGameManager/savegame-manager-gx/trunk/source/Prompts/../GUI/../sigslot.h"
  11              		.loc 1 104 0
  12              		.cfi_startproc
  13              	.LVL0:
  14              	.LBB2118:
  15              		.loc 1 105 0
  16 0000 3D200000 		lis 9,_ZTVN7sigslot15single_threadedE+8@ha
  17              	.LBE2118:
  18              		.loc 1 107 0
  19              	.LBB2119:
  20              		.loc 1 105 0
  21 0004 38090008 		la 0,_ZTVN7sigslot15single_threadedE+8@l(9)
  22 0008 90030000 		stw 0,0(3)
  23              	.LBE2119:
  24              		.loc 1 107 0
  25 000c 4E800020 		blr
  26              		.cfi_endproc
  27              	.LFE1148:
  28              		.size	_ZN7sigslot15single_threadedD2Ev, .-_ZN7sigslot15single_threadedD2Ev
  29              		.section	.text._ZN7sigslot15single_threaded4lockEv,"axG",@progbits,_ZN7sigslot15single_threaded4lo
  30              		.align 2
  31              		.weak	_ZN7sigslot15single_threaded4lockEv
  32              		.type	_ZN7sigslot15single_threaded4lockEv, @function
  33              	_ZN7sigslot15single_threaded4lockEv:
  34              	.LFB1151:
  35              		.loc 1 109 0
  36              		.cfi_startproc
  37              	.LVL1:
  38              		.loc 1 112 0
  39 0000 4E800020 		blr
  40              		.cfi_endproc
  41              	.LFE1151:
  42              		.size	_ZN7sigslot15single_threaded4lockEv, .-_ZN7sigslot15single_threaded4lockEv
  43              		.section	.text._ZN7sigslot15single_threaded6unlockEv,"axG",@progbits,_ZN7sigslot15single_threaded6
  44              		.align 2
  45              		.weak	_ZN7sigslot15single_threaded6unlockEv
  46              		.type	_ZN7sigslot15single_threaded6unlockEv, @function
  47              	_ZN7sigslot15single_threaded6unlockEv:
  48              	.LFB1152:
  49              		.loc 1 114 0
  50              		.cfi_startproc
  51              	.LVL2:
  52              		.loc 1 117 0
  53 0000 4E800020 		blr
  54              		.cfi_endproc
  55              	.LFE1152:
  56              		.size	_ZN7sigslot15single_threaded6unlockEv, .-_ZN7sigslot15single_threaded6unlockEv
  57              		.section	.text._ZN10GuiElement9SetParentEPS_,"axG",@progbits,_ZN10GuiElement9SetParentEPS_,comdat
  58              		.align 2
  59              		.weak	_ZN10GuiElement9SetParentEPS_
  60              		.type	_ZN10GuiElement9SetParentEPS_, @function
  61              	_ZN10GuiElement9SetParentEPS_:
  62              	.LFB1384:
  63              		.file 2 "d:/Projects/SaveGameManager/savegame-manager-gx/trunk/source/Prompts/../GUI/gui_element.h
  64              		.loc 2 92 0
  65              		.cfi_startproc
  66              	.LVL3:
  67              		.loc 2 92 0
  68 0000 90830060 		stw 4,96(3)
  69 0004 4E800020 		blr
  70              		.cfi_endproc
  71              	.LFE1384:
  72              		.size	_ZN10GuiElement9SetParentEPS_, .-_ZN10GuiElement9SetParentEPS_
  73              		.section	.text._ZN10GuiElement9GetParentEv,"axG",@progbits,_ZN10GuiElement9GetParentEv,comdat
  74              		.align 2
  75              		.weak	_ZN10GuiElement9GetParentEv
  76              		.type	_ZN10GuiElement9GetParentEv, @function
  77              	_ZN10GuiElement9GetParentEv:
  78              	.LFB1385:
  79              		.loc 2 95 0
  80              		.cfi_startproc
  81              	.LVL4:
  82              		.loc 2 95 0
  83 0000 80630060 		lwz 3,96(3)
  84              	.LVL5:
  85 0004 4E800020 		blr
  86              		.cfi_endproc
  87              	.LFE1385:
  88              		.size	_ZN10GuiElement9GetParentEv, .-_ZN10GuiElement9GetParentEv
  89              		.section	.text._ZN10GuiElement12GetZPositionEv,"axG",@progbits,_ZN10GuiElement12GetZPositionEv,com
  90              		.align 2
  91              		.weak	_ZN10GuiElement12GetZPositionEv
  92              		.type	_ZN10GuiElement12GetZPositionEv, @function
  93              	_ZN10GuiElement12GetZPositionEv:
  94              	.LFB1386:
  95              		.loc 2 106 0
  96              		.cfi_startproc
  97              	.LVL6:
  98 0000 7C0802A6 		mflr 0
  99 0004 9421FFF0 		stwu 1,-16(1)
 100              	.LCFI0:
 101              		.cfi_def_cfa_offset 16
 102              		.cfi_register 65, 0
 103 0008 93E1000C 		stw 31,12(1)
 104 000c 7C7F1B78 		mr 31,3
 105              		.cfi_offset 31, -4
 106 0010 90010014 		stw 0,20(1)
 107              	.LBB2120:
 108              		.loc 2 110 0
 109 0014 81630060 		lwz 11,96(3)
 110              		.loc 2 108 0
 111 0018 38600000 		li 3,0
 112              	.LVL7:
 113              		.loc 2 110 0
 114 001c 2F8B0000 		cmpwi 7,11,0
 115 0020 419E0018 		beq- 7,.L8
 116              		.cfi_offset 65, 4
 117              		.loc 2 111 0
 118 0024 812B0000 		lwz 9,0(11)
 119 0028 7D635B78 		mr 3,11
 120 002c 80090018 		lwz 0,24(9)
 121 0030 7C0903A6 		mtctr 0
 122 0034 4E800421 		bctrl
 123              	.LVL8:
 124              	.L8:
 125              		.loc 2 113 0
 126 0038 801F0034 		lwz 0,52(31)
 127              	.LBE2120:
 128              		.loc 2 114 0
 129 003c 83E1000C 		lwz 31,12(1)
 130              	.LVL9:
 131 0040 7C630214 		add 3,3,0
 132              	.LVL10:
 133 0044 80010014 		lwz 0,20(1)
 134 0048 38210010 		addi 1,1,16
 135              	.LCFI1:
 136              		.cfi_def_cfa_offset 0
 137              		.cfi_restore 31
 138 004c 7C0803A6 		mtlr 0
 139 0050 4E800020 		blr
 140              		.cfi_endproc
 141              	.LFE1386:
 142              		.size	_ZN10GuiElement12GetZPositionEv, .-_ZN10GuiElement12GetZPositionEv
 143              		.section	.text._ZN10GuiElement10GetLeftPosEv,"axG",@progbits,_ZN10GuiElement10GetLeftPosEv,comdat
 144              		.align 2
 145              		.weak	_ZN10GuiElement10GetLeftPosEv
 146              		.type	_ZN10GuiElement10GetLeftPosEv, @function
 147              	_ZN10GuiElement10GetLeftPosEv:
 148              	.LFB1387:
 149              		.loc 2 116 0
 150              		.cfi_startproc
 151              	.LVL11:
 152              		.loc 2 116 0
 153 0000 8063002C 		lwz 3,44(3)
 154              	.LVL12:
 155 0004 4E800020 		blr
 156              		.cfi_endproc
 157              	.LFE1387:
 158              		.size	_ZN10GuiElement10GetLeftPosEv, .-_ZN10GuiElement10GetLeftPosEv
 159              		.section	.text._ZN10GuiElement9GetTopPosEv,"axG",@progbits,_ZN10GuiElement9GetTopPosEv,comdat
 160              		.align 2
 161              		.weak	_ZN10GuiElement9GetTopPosEv
 162              		.type	_ZN10GuiElement9GetTopPosEv, @function
 163              	_ZN10GuiElement9GetTopPosEv:
 164              	.LFB1388:
 165              		.loc 2 118 0
 166              		.cfi_startproc
 167              	.LVL13:
 168              		.loc 2 118 0
 169 0000 80630030 		lwz 3,48(3)
 170              	.LVL14:
 171 0004 4E800020 		blr
 172              		.cfi_endproc
 173              	.LFE1388:
 174              		.size	_ZN10GuiElement9GetTopPosEv, .-_ZN10GuiElement9GetTopPosEv
 175              		.section	.text._ZN10GuiElement8GetWidthEv,"axG",@progbits,_ZN10GuiElement8GetWidthEv,comdat
 176              		.align 2
 177              		.weak	_ZN10GuiElement8GetWidthEv
 178              		.type	_ZN10GuiElement8GetWidthEv, @function
 179              	_ZN10GuiElement8GetWidthEv:
 180              	.LFB1389:
 181              		.loc 2 121 0
 182              		.cfi_startproc
 183              	.LVL15:
 184              		.loc 2 121 0
 185 0000 80630024 		lwz 3,36(3)
 186              	.LVL16:
 187 0004 4E800020 		blr
 188              		.cfi_endproc
 189              	.LFE1389:
 190              		.size	_ZN10GuiElement8GetWidthEv, .-_ZN10GuiElement8GetWidthEv
 191              		.section	.text._ZN10GuiElement9GetHeightEv,"axG",@progbits,_ZN10GuiElement9GetHeightEv,comdat
 192              		.align 2
 193              		.weak	_ZN10GuiElement9GetHeightEv
 194              		.type	_ZN10GuiElement9GetHeightEv, @function
 195              	_ZN10GuiElement9GetHeightEv:
 196              	.LFB1390:
 197              		.loc 2 124 0
 198              		.cfi_startproc
 199              	.LVL17:
 200              		.loc 2 124 0
 201 0000 80630028 		lwz 3,40(3)
 202              	.LVL18:
 203 0004 4E800020 		blr
 204              		.cfi_endproc
 205              	.LFE1390:
 206              		.size	_ZN10GuiElement9GetHeightEv, .-_ZN10GuiElement9GetHeightEv
 207              		.section	.text._ZN10GuiElement7SetSizeEii,"axG",@progbits,_ZN10GuiElement7SetSizeEii,comdat
 208              		.align 2
 209              		.weak	_ZN10GuiElement7SetSizeEii
 210              		.type	_ZN10GuiElement7SetSizeEii, @function
 211              	_ZN10GuiElement7SetSizeEii:
 212              	.LFB1391:
 213              		.loc 2 128 0
 214              		.cfi_startproc
 215              	.LVL19:
 216              		.loc 2 130 0
 217 0000 90830024 		stw 4,36(3)
 218              		.loc 2 132 0
 219              		.loc 2 131 0
 220 0004 90A30028 		stw 5,40(3)
 221              		.loc 2 132 0
 222 0008 4E800020 		blr
 223              		.cfi_endproc
 224              	.LFE1391:
 225              		.size	_ZN10GuiElement7SetSizeEii, .-_ZN10GuiElement7SetSizeEii
 226              		.section	.text._ZN10GuiElement9IsVisibleEv,"axG",@progbits,_ZN10GuiElement9IsVisibleEv,comdat
 227              		.align 2
 228              		.weak	_ZN10GuiElement9IsVisibleEv
 229              		.type	_ZN10GuiElement9IsVisibleEv, @function
 230              	_ZN10GuiElement9IsVisibleEv:
 231              	.LFB1393:
 232              		.loc 2 142 0
 233              		.cfi_startproc
 234              	.LVL20:
 235              		.loc 2 142 0
 236 0000 8863001D 		lbz 3,29(3)
 237              	.LVL21:
 238 0004 4E800020 		blr
 239              		.cfi_endproc
 240              	.LFE1393:
 241              		.size	_ZN10GuiElement9IsVisibleEv, .-_ZN10GuiElement9IsVisibleEv
 242              		.section	.text._ZN10GuiElement12IsSelectableEv,"axG",@progbits,_ZN10GuiElement12IsSelectableEv,com
 243              		.align 2
 244              		.weak	_ZN10GuiElement12IsSelectableEv
 245              		.type	_ZN10GuiElement12IsSelectableEv, @function
 246              	_ZN10GuiElement12IsSelectableEv:
 247              	.LFB1394:
 248              		.loc 2 145 0
 249              		.cfi_startproc
 250              	.LVL22:
 251              		.loc 2 149 0
 252 0000 80030048 		lwz 0,72(3)
 253 0004 39200000 		li 9,0
 254 0008 2F800004 		cmpwi 7,0,4
 255 000c 419E0010 		beq- 7,.L18
 256              		.loc 2 149 0 is_stmt 0 discriminator 1
 257 0010 2F800002 		cmpwi 7,0,2
 258 0014 419E0008 		beq- 7,.L18
 259              		.loc 2 149 0 discriminator 3
 260 0018 8923001E 		lbz 9,30(3)
 261              	.L18:
 262              		.loc 2 150 0 is_stmt 1 discriminator 5
 263 001c 7D234B78 		mr 3,9
 264              	.LVL23:
 265 0020 4E800020 		blr
 266              		.cfi_endproc
 267              	.LFE1394:
 268              		.size	_ZN10GuiElement12IsSelectableEv, .-_ZN10GuiElement12IsSelectableEv
 269              		.section	.text._ZN10GuiElement11IsClickableEv,"axG",@progbits,_ZN10GuiElement11IsClickableEv,comda
 270              		.align 2
 271              		.weak	_ZN10GuiElement11IsClickableEv
 272              		.type	_ZN10GuiElement11IsClickableEv, @function
 273              	_ZN10GuiElement11IsClickableEv:
 274              	.LFB1395:
 275              		.loc 2 153 0
 276              		.cfi_startproc
 277              	.LVL24:
 278              		.loc 2 158 0
 279 0000 80030048 		lwz 0,72(3)
 280 0004 39200000 		li 9,0
 281 0008 2F800004 		cmpwi 7,0,4
 282 000c 419E0018 		beq- 7,.L22
 283              		.loc 2 158 0 is_stmt 0 discriminator 1
 284 0010 2F800002 		cmpwi 7,0,2
 285 0014 419E0010 		beq- 7,.L22
 286              		.loc 2 158 0 discriminator 3
 287 0018 2F800003 		cmpwi 7,0,3
 288 001c 419E0008 		beq- 7,.L22
 289              		.loc 2 158 0 discriminator 4
 290 0020 8923001F 		lbz 9,31(3)
 291              	.L22:
 292              		.loc 2 159 0 is_stmt 1 discriminator 6
 293 0024 7D234B78 		mr 3,9
 294              	.LVL25:
 295 0028 4E800020 		blr
 296              		.cfi_endproc
 297              	.LFE1395:
 298              		.size	_ZN10GuiElement11IsClickableEv, .-_ZN10GuiElement11IsClickableEv
 299              		.section	.text._ZN10GuiElement10IsHoldableEv,"axG",@progbits,_ZN10GuiElement10IsHoldableEv,comdat
 300              		.align 2
 301              		.weak	_ZN10GuiElement10IsHoldableEv
 302              		.type	_ZN10GuiElement10IsHoldableEv, @function
 303              	_ZN10GuiElement10IsHoldableEv:
 304              	.LFB1396:
 305              		.loc 2 162 0
 306              		.cfi_startproc
 307              	.LVL26:
 308              		.loc 2 162 0
 309 0000 81230048 		lwz 9,72(3)
 310 0004 38000000 		li 0,0
 311 0008 2F890004 		cmpwi 7,9,4
 312 000c 419E0008 		beq- 7,.L27
 313              		.loc 2 162 0 is_stmt 0 discriminator 1
 314 0010 88030020 		lbz 0,32(3)
 315              	.L27:
 316              		.loc 2 162 0 discriminator 4
 317 0014 7C030378 		mr 3,0
 318              	.LVL27:
 319 0018 4E800020 		blr
 320              		.cfi_endproc
 321              	.LFE1396:
 322              		.size	_ZN10GuiElement10IsHoldableEv, .-_ZN10GuiElement10IsHoldableEv
 323              		.section	.text._ZN10GuiElement13SetSelectableEb,"axG",@progbits,_ZN10GuiElement13SetSelectableEb,c
 324              		.align 2
 325              		.weak	_ZN10GuiElement13SetSelectableEb
 326              		.type	_ZN10GuiElement13SetSelectableEb, @function
 327              	_ZN10GuiElement13SetSelectableEb:
 328              	.LFB1397:
 329              		.loc 2 165 0 is_stmt 1
 330              		.cfi_startproc
 331              	.LVL28:
 332              		.loc 2 165 0
 333 0000 9883001E 		stb 4,30(3)
 334 0004 4E800020 		blr
 335              		.cfi_endproc
 336              	.LFE1397:
 337              		.size	_ZN10GuiElement13SetSelectableEb, .-_ZN10GuiElement13SetSelectableEb
 338              		.section	.text._ZN10GuiElement12SetClickableEb,"axG",@progbits,_ZN10GuiElement12SetClickableEb,com
 339              		.align 2
 340              		.weak	_ZN10GuiElement12SetClickableEb
 341              		.type	_ZN10GuiElement12SetClickableEb, @function
 342              	_ZN10GuiElement12SetClickableEb:
 343              	.LFB1398:
 344              		.loc 2 168 0
 345              		.cfi_startproc
 346              	.LVL29:
 347              		.loc 2 168 0
 348 0000 9883001F 		stb 4,31(3)
 349 0004 4E800020 		blr
 350              		.cfi_endproc
 351              	.LFE1398:
 352              		.size	_ZN10GuiElement12SetClickableEb, .-_ZN10GuiElement12SetClickableEb
 353              		.section	.text._ZN10GuiElement11SetHoldableEb,"axG",@progbits,_ZN10GuiElement11SetHoldableEb,comda
 354              		.align 2
 355              		.weak	_ZN10GuiElement11SetHoldableEb
 356              		.type	_ZN10GuiElement11SetHoldableEb, @function
 357              	_ZN10GuiElement11SetHoldableEb:
 358              	.LFB1399:
 359              		.loc 2 171 0
 360              		.cfi_startproc
 361              	.LVL30:
 362              		.loc 2 171 0
 363 0000 98830020 		stb 4,32(3)
 364 0004 4E800020 		blr
 365              		.cfi_endproc
 366              	.LFE1399:
 367              		.size	_ZN10GuiElement11SetHoldableEb, .-_ZN10GuiElement11SetHoldableEb
 368              		.section	.text._ZN10GuiElement8GetStateEv,"axG",@progbits,_ZN10GuiElement8GetStateEv,comdat
 369              		.align 2
 370              		.weak	_ZN10GuiElement8GetStateEv
 371              		.type	_ZN10GuiElement8GetStateEv, @function
 372              	_ZN10GuiElement8GetStateEv:
 373              	.LFB1400:
 374              		.loc 2 178 0
 375              		.cfi_startproc
 376              	.LVL31:
 377              		.loc 2 178 0
 378 0000 80630048 		lwz 3,72(3)
 379              	.LVL32:
 380 0004 4E800020 		blr
 381              		.cfi_endproc
 382              	.LFE1400:
 383              		.size	_ZN10GuiElement8GetStateEv, .-_ZN10GuiElement8GetStateEv
 384              		.section	.text._ZN10GuiElement12GetStateChanEv,"axG",@progbits,_ZN10GuiElement12GetStateChanEv,com
 385              		.align 2
 386              		.weak	_ZN10GuiElement12GetStateChanEv
 387              		.type	_ZN10GuiElement12GetStateChanEv, @function
 388              	_ZN10GuiElement12GetStateChanEv:
 389              	.LFB1401:
 390              		.loc 2 181 0
 391              		.cfi_startproc
 392              	.LVL33:
 393              		.loc 2 181 0
 394 0000 8063004C 		lwz 3,76(3)
 395              	.LVL34:
 396 0004 4E800020 		blr
 397              		.cfi_endproc
 398              	.LFE1401:
 399              		.size	_ZN10GuiElement12GetStateChanEv, .-_ZN10GuiElement12GetStateChanEv
 400              		.section	.text._ZN10GuiElement8SetAlphaEi,"axG",@progbits,_ZN10GuiElement8SetAlphaEi,comdat
 401              		.align 2
 402              		.weak	_ZN10GuiElement8SetAlphaEi
 403              		.type	_ZN10GuiElement8SetAlphaEi, @function
 404              	_ZN10GuiElement8SetAlphaEi:
 405              	.LFB1403:
 406              		.loc 2 190 0
 407              		.cfi_startproc
 408              	.LVL35:
 409              		.loc 2 190 0
 410 0000 90830038 		stw 4,56(3)
 411 0004 4E800020 		blr
 412              		.cfi_endproc
 413              	.LFE1403:
 414              		.size	_ZN10GuiElement8SetAlphaEi, .-_ZN10GuiElement8SetAlphaEi
 415              		.section	.text._ZN10GuiElement8GetAlphaEv,"axG",@progbits,_ZN10GuiElement8GetAlphaEv,comdat
 416              		.align 2
 417              		.weak	_ZN10GuiElement8GetAlphaEv
 418              		.type	_ZN10GuiElement8GetAlphaEv, @function
 419              	_ZN10GuiElement8GetAlphaEv:
 420              	.LFB1404:
 421              		.loc 2 194 0
 422              		.cfi_startproc
 423              	.LVL36:
 424 0000 7C0802A6 		mflr 0
 425 0004 9421FFD8 		stwu 1,-40(1)
 426              	.LCFI2:
 427              		.cfi_def_cfa_offset 40
 428              		.cfi_register 65, 0
 429 0008 93E10024 		stw 31,36(1)
 430 000c 9001002C 		stw 0,44(1)
 431              	.LBB2121:
 432              		.loc 2 198 0
 433 0010 83E3006C 		lwz 31,108(3)
 434              		.cfi_offset 65, 4
 435              		.cfi_offset 31, -4
 436 0014 2F9F0000 		cmpwi 7,31,0
 437 0018 419C0094 		blt- 7,.L38
 438              	.L36:
 439              	.LVL37:
 440              		.loc 2 203 0
 441 001c 80630060 		lwz 3,96(3)
 442              	.LVL38:
 443 0020 2F830000 		cmpwi 7,3,0
 444 0024 419E0070 		beq- 7,.L37
 445              		.loc 2 204 0
 446 0028 81230000 		lwz 9,0(3)
 447 002c 6FFF8000 		xoris 31,31,0x8000
 448              	.LVL39:
 449 0030 80090064 		lwz 0,100(9)
 450 0034 7C0903A6 		mtctr 0
 451 0038 4E800421 		bctrl
 452 003c 3C004330 		lis 0,0x4330
 453 0040 6C638000 		xoris 3,3,0x8000
 454 0044 90010010 		stw 0,16(1)
 455 0048 90610014 		stw 3,20(1)
 456 004c 3D200000 		lis 9,.LC1@ha
 457 0050 C0090000 		lfs 0,.LC1@l(9)
 458 0054 3D200000 		lis 9,.LC2@ha
 459 0058 C9A10010 		lfd 13,16(1)
 460 005c C1890004 		lfs 12,.LC2@l(9)
 461 0060 39210018 		addi 9,1,24
 462 0064 FDAD0028 		fsub 13,13,0
 463 0068 93E1000C 		stw 31,12(1)
 464 006c 90010008 		stw 0,8(1)
 465 0070 FDA06818 		frsp 13,13
 466 0074 EDAD6024 		fdivs 13,13,12
 467 0078 C9810008 		lfd 12,8(1)
 468 007c FC0C0028 		fsub 0,12,0
 469 0080 FC000018 		frsp 0,0
 470 0084 EC000372 		fmuls 0,0,13
 471 0088 FC00001E 		fctiwz 0,0
 472 008c 7C004FAE 		stfiwx 0,0,9
 473 0090 83E10018 		lwz 31,24(1)
 474              	.LVL40:
 475              	.L37:
 476              	.LBE2121:
 477              		.loc 2 207 0
 478 0094 8001002C 		lwz 0,44(1)
 479 0098 7FE3FB78 		mr 3,31
 480 009c 83E10024 		lwz 31,36(1)
 481              	.LVL41:
 482 00a0 7C0803A6 		mtlr 0
 483 00a4 38210028 		addi 1,1,40
 484              		.cfi_remember_state
 485              	.LCFI3:
 486              		.cfi_def_cfa_offset 0
 487              		.cfi_restore 31
 488 00a8 4E800020 		blr
 489              	.LVL42:
 490              	.L38:
 491              	.LCFI4:
 492              		.cfi_restore_state
 493              	.LBB2122:
 494              		.loc 2 201 0
 495 00ac 83E30038 		lwz 31,56(3)
 496              	.LVL43:
 497 00b0 4BFFFF6C 		b .L36
 498              	.LBE2122:
 499              		.cfi_endproc
 500              	.LFE1404:
 501              		.size	_ZN10GuiElement8GetAlphaEv, .-_ZN10GuiElement8GetAlphaEv
 502              		.section	.text._ZN10GuiElement8SetScaleEf,"axG",@progbits,_ZN10GuiElement8SetScaleEf,comdat
 503              		.align 2
 504              		.weak	_ZN10GuiElement8SetScaleEf
 505              		.type	_ZN10GuiElement8SetScaleEf, @function
 506              	_ZN10GuiElement8SetScaleEf:
 507              	.LFB1405:
 508              		.loc 2 210 0
 509              		.cfi_startproc
 510              	.LVL44:
 511              		.loc 2 212 0
 512 0000 D023003C 		stfs 1,60(3)
 513              		.loc 2 214 0
 514              		.loc 2 213 0
 515 0004 D0230040 		stfs 1,64(3)
 516              		.loc 2 214 0
 517 0008 4E800020 		blr
 518              		.cfi_endproc
 519              	.LFE1405:
 520              		.size	_ZN10GuiElement8SetScaleEf, .-_ZN10GuiElement8SetScaleEf
 521              		.section	.text._ZN10GuiElement9SetScaleXEf,"axG",@progbits,_ZN10GuiElement9SetScaleXEf,comdat
 522              		.align 2
 523              		.weak	_ZN10GuiElement9SetScaleXEf
 524              		.type	_ZN10GuiElement9SetScaleXEf, @function
 525              	_ZN10GuiElement9SetScaleXEf:
 526              	.LFB1406:
 527              		.loc 2 217 0
 528              		.cfi_startproc
 529              	.LVL45:
 530              		.loc 2 217 0
 531 0000 D023003C 		stfs 1,60(3)
 532 0004 4E800020 		blr
 533              		.cfi_endproc
 534              	.LFE1406:
 535              		.size	_ZN10GuiElement9SetScaleXEf, .-_ZN10GuiElement9SetScaleXEf
 536              		.section	.text._ZN10GuiElement9SetScaleYEf,"axG",@progbits,_ZN10GuiElement9SetScaleYEf,comdat
 537              		.align 2
 538              		.weak	_ZN10GuiElement9SetScaleYEf
 539              		.type	_ZN10GuiElement9SetScaleYEf, @function
 540              	_ZN10GuiElement9SetScaleYEf:
 541              	.LFB1407:
 542              		.loc 2 220 0
 543              		.cfi_startproc
 544              	.LVL46:
 545              		.loc 2 220 0
 546 0000 D0230040 		stfs 1,64(3)
 547 0004 4E800020 		blr
 548              		.cfi_endproc
 549              	.LFE1407:
 550              		.size	_ZN10GuiElement9SetScaleYEf, .-_ZN10GuiElement9SetScaleYEf
 551              		.section	.text._ZN10GuiElement8GetScaleEv,"axG",@progbits,_ZN10GuiElement8GetScaleEv,comdat
 552              		.align 2
 553              		.weak	_ZN10GuiElement8GetScaleEv
 554              		.type	_ZN10GuiElement8GetScaleEv, @function
 555              	_ZN10GuiElement8GetScaleEv:
 556              	.LFB1408:
 557              		.loc 2 223 0
 558              		.cfi_startproc
 559              	.LVL47:
 560 0000 7C0802A6 		mflr 0
 561 0004 9421FFF0 		stwu 1,-16(1)
 562              	.LCFI5:
 563              		.cfi_def_cfa_offset 16
 564              		.cfi_register 65, 0
 565              	.LBB2123:
 566              		.loc 2 225 0
 567 0008 3D200000 		lis 9,.LC3@ha
 568              	.LBE2123:
 569              		.loc 2 223 0
 570 000c DBE10008 		stfd 31,8(1)
 571 0010 90010014 		stw 0,20(1)
 572              	.LBB2124:
 573              		.loc 2 225 0
 574 0014 C0030040 		lfs 0,64(3)
 575 0018 C3E3003C 		lfs 31,60(3)
 576              		.cfi_offset 65, 4
 577              		.cfi_offset 63, -8
 578              		.loc 2 227 0
 579 001c 81630060 		lwz 11,96(3)
 580              		.loc 2 225 0
 581 0020 EFFF002A 		fadds 31,31,0
 582 0024 C0090008 		lfs 0,.LC3@l(9)
 583              		.loc 2 227 0
 584 0028 2F8B0000 		cmpwi 7,11,0
 585              		.loc 2 225 0
 586 002c EFFF0032 		fmuls 31,31,0
 587 0030 C0030070 		lfs 0,112(3)
 588 0034 EFFF0032 		fmuls 31,31,0
 589              	.LVL48:
 590              		.loc 2 227 0
 591 0038 419E001C 		beq- 7,.L43
 592              		.loc 2 228 0
 593 003c 812B0000 		lwz 9,0(11)
 594 0040 7D635B78 		mr 3,11
 595              	.LVL49:
 596 0044 80090074 		lwz 0,116(9)
 597 0048 7C0903A6 		mtctr 0
 598 004c 4E800421 		bctrl
 599 0050 EFFF0072 		fmuls 31,31,1
 600              	.LVL50:
 601              	.L43:
 602              	.LBE2124:
 603              		.loc 2 231 0
 604 0054 80010014 		lwz 0,20(1)
 605 0058 FC20F890 		fmr 1,31
 606 005c CBE10008 		lfd 31,8(1)
 607              	.LVL51:
 608 0060 7C0803A6 		mtlr 0
 609 0064 38210010 		addi 1,1,16
 610              	.LCFI6:
 611              		.cfi_def_cfa_offset 0
 612              		.cfi_restore 63
 613 0068 4E800020 		blr
 614              		.cfi_endproc
 615              	.LFE1408:
 616              		.size	_ZN10GuiElement8GetScaleEv, .-_ZN10GuiElement8GetScaleEv
 617              		.section	.text._ZN10GuiElement9GetScaleXEv,"axG",@progbits,_ZN10GuiElement9GetScaleXEv,comdat
 618              		.align 2
 619              		.weak	_ZN10GuiElement9GetScaleXEv
 620              		.type	_ZN10GuiElement9GetScaleXEv, @function
 621              	_ZN10GuiElement9GetScaleXEv:
 622              	.LFB1409:
 623              		.loc 2 234 0
 624              		.cfi_startproc
 625              	.LVL52:
 626 0000 7C0802A6 		mflr 0
 627 0004 9421FFF0 		stwu 1,-16(1)
 628              	.LCFI7:
 629              		.cfi_def_cfa_offset 16
 630              		.cfi_register 65, 0
 631 0008 DBE10008 		stfd 31,8(1)
 632 000c 90010014 		stw 0,20(1)
 633              	.LBB2125:
 634              		.loc 2 238 0
 635 0010 81630060 		lwz 11,96(3)
 636              		.loc 2 236 0
 637 0014 C3E3003C 		lfs 31,60(3)
 638              		.cfi_offset 65, 4
 639              		.cfi_offset 63, -8
 640              		.loc 2 238 0
 641 0018 2F8B0000 		cmpwi 7,11,0
 642              		.loc 2 236 0
 643 001c C0030070 		lfs 0,112(3)
 644 0020 EFFF0032 		fmuls 31,31,0
 645              	.LVL53:
 646              		.loc 2 238 0
 647 0024 419E001C 		beq- 7,.L45
 648              		.loc 2 239 0
 649 0028 812B0000 		lwz 9,0(11)
 650 002c 7D635B78 		mr 3,11
 651              	.LVL54:
 652 0030 80090078 		lwz 0,120(9)
 653 0034 7C0903A6 		mtctr 0
 654 0038 4E800421 		bctrl
 655 003c EFFF0072 		fmuls 31,31,1
 656              	.LVL55:
 657              	.L45:
 658              	.LBE2125:
 659              		.loc 2 242 0
 660 0040 80010014 		lwz 0,20(1)
 661 0044 FC20F890 		fmr 1,31
 662 0048 CBE10008 		lfd 31,8(1)
 663              	.LVL56:
 664 004c 7C0803A6 		mtlr 0
 665 0050 38210010 		addi 1,1,16
 666              	.LCFI8:
 667              		.cfi_def_cfa_offset 0
 668              		.cfi_restore 63
 669 0054 4E800020 		blr
 670              		.cfi_endproc
 671              	.LFE1409:
 672              		.size	_ZN10GuiElement9GetScaleXEv, .-_ZN10GuiElement9GetScaleXEv
 673              		.section	.text._ZN10GuiElement9GetScaleYEv,"axG",@progbits,_ZN10GuiElement9GetScaleYEv,comdat
 674              		.align 2
 675              		.weak	_ZN10GuiElement9GetScaleYEv
 676              		.type	_ZN10GuiElement9GetScaleYEv, @function
 677              	_ZN10GuiElement9GetScaleYEv:
 678              	.LFB1410:
 679              		.loc 2 245 0
 680              		.cfi_startproc
 681              	.LVL57:
 682 0000 7C0802A6 		mflr 0
 683 0004 9421FFF0 		stwu 1,-16(1)
 684              	.LCFI9:
 685              		.cfi_def_cfa_offset 16
 686              		.cfi_register 65, 0
 687 0008 DBE10008 		stfd 31,8(1)
 688 000c 90010014 		stw 0,20(1)
 689              	.LBB2126:
 690              		.loc 2 249 0
 691 0010 81630060 		lwz 11,96(3)
 692              		.loc 2 247 0
 693 0014 C3E30040 		lfs 31,64(3)
 694              		.cfi_offset 65, 4
 695              		.cfi_offset 63, -8
 696              		.loc 2 249 0
 697 0018 2F8B0000 		cmpwi 7,11,0
 698              		.loc 2 247 0
 699 001c C0030070 		lfs 0,112(3)
 700 0020 EFFF0032 		fmuls 31,31,0
 701              	.LVL58:
 702              		.loc 2 249 0
 703 0024 419E001C 		beq- 7,.L47
 704              		.loc 2 250 0
 705 0028 812B0000 		lwz 9,0(11)
 706 002c 7D635B78 		mr 3,11
 707              	.LVL59:
 708 0030 8009007C 		lwz 0,124(9)
 709 0034 7C0903A6 		mtctr 0
 710 0038 4E800421 		bctrl
 711 003c EFFF0072 		fmuls 31,31,1
 712              	.LVL60:
 713              	.L47:
 714              	.LBE2126:
 715              		.loc 2 253 0
 716 0040 80010014 		lwz 0,20(1)
 717 0044 FC20F890 		fmr 1,31
 718 0048 CBE10008 		lfd 31,8(1)
 719              	.LVL61:
 720 004c 7C0803A6 		mtlr 0
 721 0050 38210010 		addi 1,1,16
 722              	.LCFI10:
 723              		.cfi_def_cfa_offset 0
 724              		.cfi_restore 63
 725 0054 4E800020 		blr
 726              		.cfi_endproc
 727              	.LFE1410:
 728              		.size	_ZN10GuiElement9GetScaleYEv, .-_ZN10GuiElement9GetScaleYEv
 729              		.section	.text._ZN10GuiElement6RumbleEv,"axG",@progbits,_ZN10GuiElement6RumbleEv,comdat
 730              		.align 2
 731              		.weak	_ZN10GuiElement6RumbleEv
 732              		.type	_ZN10GuiElement6RumbleEv, @function
 733              	_ZN10GuiElement6RumbleEv:
 734              	.LFB1411:
 735              		.loc 2 256 0
 736              		.cfi_startproc
 737              	.LVL62:
 738              		.loc 2 256 0
 739 0000 8863001C 		lbz 3,28(3)
 740              	.LVL63:
 741 0004 4E800020 		blr
 742              		.cfi_endproc
 743              	.LFE1411:
 744              		.size	_ZN10GuiElement6RumbleEv, .-_ZN10GuiElement6RumbleEv
 745              		.section	.text._ZN10GuiElement9SetRumbleEb,"axG",@progbits,_ZN10GuiElement9SetRumbleEb,comdat
 746              		.align 2
 747              		.weak	_ZN10GuiElement9SetRumbleEb
 748              		.type	_ZN10GuiElement9SetRumbleEb, @function
 749              	_ZN10GuiElement9SetRumbleEb:
 750              	.LFB1412:
 751              		.loc 2 259 0
 752              		.cfi_startproc
 753              	.LVL64:
 754              		.loc 2 259 0
 755 0000 9883001C 		stb 4,28(3)
 756 0004 4E800020 		blr
 757              		.cfi_endproc
 758              	.LFE1412:
 759              		.size	_ZN10GuiElement9SetRumbleEb, .-_ZN10GuiElement9SetRumbleEb
 760              		.section	.text._ZN10GuiElement13SetEffectGrowEv,"axG",@progbits,_ZN10GuiElement13SetEffectGrowEv,c
 761              		.align 2
 762              		.weak	_ZN10GuiElement13SetEffectGrowEv
 763              		.type	_ZN10GuiElement13SetEffectGrowEv, @function
 764              	_ZN10GuiElement13SetEffectGrowEv:
 765              	.LFB1413:
 766              		.loc 2 271 0
 767              		.cfi_startproc
 768              	.LVL65:
 769 0000 7C0802A6 		mflr 0
 770 0004 9421FFF8 		stwu 1,-8(1)
 771              	.LCFI11:
 772              		.cfi_def_cfa_offset 8
 773              		.cfi_register 65, 0
 774 0008 81230000 		lwz 9,0(3)
 775 000c 38800100 		li 4,256
 776 0010 38A00004 		li 5,4
 777 0014 38C0006E 		li 6,110
 778 0018 9001000C 		stw 0,12(1)
 779              		.loc 2 271 0
 780 001c 8009008C 		lwz 0,140(9)
 781              		.cfi_offset 65, 4
 782 0020 7C0903A6 		mtctr 0
 783 0024 4E800421 		bctrl
 784              	.LVL66:
 785 0028 8001000C 		lwz 0,12(1)
 786 002c 38210008 		addi 1,1,8
 787              	.LCFI12:
 788              		.cfi_def_cfa_offset 0
 789 0030 7C0803A6 		mtlr 0
 790 0034 4E800020 		blr
 791              		.cfi_endproc
 792              	.LFE1413:
 793              		.size	_ZN10GuiElement13SetEffectGrowEv, .-_ZN10GuiElement13SetEffectGrowEv
 794              		.section	.text._ZNK10GuiElement9GetEffectEv,"axG",@progbits,_ZNK10GuiElement9GetEffectEv,comdat
 795              		.align 2
 796              		.weak	_ZNK10GuiElement9GetEffectEv
 797              		.type	_ZNK10GuiElement9GetEffectEv, @function
 798              	_ZNK10GuiElement9GetEffectEv:
 799              	.LFB1414:
 800              		.loc 2 276 0
 801              		.cfi_startproc
 802              	.LVL67:
 803              		.loc 2 276 0
 804 0000 80630078 		lwz 3,120(3)
 805              	.LVL68:
 806 0004 4E800020 		blr
 807              		.cfi_endproc
 808              	.LFE1414:
 809              		.size	_ZNK10GuiElement9GetEffectEv, .-_ZNK10GuiElement9GetEffectEv
 810              		.section	.text._ZNK10GuiElement10IsAnimatedEv,"axG",@progbits,_ZNK10GuiElement10IsAnimatedEv,comda
 811              		.align 2
 812              		.weak	_ZNK10GuiElement10IsAnimatedEv
 813              		.type	_ZNK10GuiElement10IsAnimatedEv, @function
 814              	_ZNK10GuiElement10IsAnimatedEv:
 815              	.LFB1415:
 816              		.loc 2 278 0
 817              		.cfi_startproc
 818              	.LVL69:
 819 0000 7C0802A6 		mflr 0
 820 0004 9421FFF8 		stwu 1,-8(1)
 821              	.LCFI13:
 822              		.cfi_def_cfa_offset 8
 823              		.cfi_register 65, 0
 824 0008 9001000C 		stw 0,12(1)
 825              		.loc 2 278 0
 826 000c 81230000 		lwz 9,0(3)
 827 0010 80090098 		lwz 0,152(9)
 828              		.cfi_offset 65, 4
 829 0014 7C0903A6 		mtctr 0
 830 0018 4E800421 		bctrl
 831              	.LVL70:
 832 001c 7C60FE70 		srawi 0,3,31
 833 0020 7C630050 		subf 3,3,0
 834 0024 8001000C 		lwz 0,12(1)
 835 0028 54630FFE 		srwi 3,3,31
 836 002c 7C0803A6 		mtlr 0
 837 0030 38210008 		addi 1,1,8
 838              	.LCFI14:
 839              		.cfi_def_cfa_offset 0
 840 0034 4E800020 		blr
 841              		.cfi_endproc
 842              	.LFE1415:
 843              		.size	_ZNK10GuiElement10IsAnimatedEv, .-_ZNK10GuiElement10IsAnimatedEv
 844              		.section	.text._ZN10GuiElement8IsInsideEii,"axG",@progbits,_ZN10GuiElement8IsInsideEii,comdat
 845              		.align 2
 846              		.weak	_ZN10GuiElement8IsInsideEii
 847              		.type	_ZN10GuiElement8IsInsideEii, @function
 848              	_ZN10GuiElement8IsInsideEii:
 849              	.LFB1417:
 850              		.loc 2 285 0
 851              		.cfi_startproc
 852              	.LVL71:
 853 0000 7C0802A6 		mflr 0
 854 0004 9421FFE8 		stwu 1,-24(1)
 855              	.LCFI15:
 856              		.cfi_def_cfa_offset 24
 857              		.cfi_register 65, 0
 858 0008 93810008 		stw 28,8(1)
 859 000c 7CBC2B78 		mr 28,5
 860              		.cfi_offset 28, -16
 861 0010 9001001C 		stw 0,28(1)
 862 0014 93A1000C 		stw 29,12(1)
 863              		.loc 2 290 0
 864 0018 3BA00000 		li 29,0
 865              		.cfi_offset 29, -12
 866              		.cfi_offset 65, 4
 867              		.loc 2 287 0
 868 001c 81230000 		lwz 9,0(3)
 869              		.loc 2 285 0
 870 0020 93C10010 		stw 30,16(1)
 871 0024 7C9E2378 		mr 30,4
 872              		.cfi_offset 30, -8
 873              		.loc 2 287 0
 874 0028 80090010 		lwz 0,16(9)
 875              		.loc 2 285 0
 876 002c 93E10014 		stw 31,20(1)
 877              		.loc 2 285 0
 878 0030 7C7F1B78 		mr 31,3
 879              		.cfi_offset 31, -4
 880              		.loc 2 287 0
 881 0034 7C0903A6 		mtctr 0
 882 0038 4E800421 		bctrl
 883              	.LVL72:
 884              		.loc 2 290 0
 885 003c 7F83F000 		cmpw 7,3,30
 886 0040 419C0028 		blt- 7,.L58
 887              	.L54:
 888              		.loc 2 291 0 discriminator 6
 889 0044 8001001C 		lwz 0,28(1)
 890 0048 7FA3EB78 		mr 3,29
 891 004c 83810008 		lwz 28,8(1)
 892              	.LVL73:
 893 0050 7C0803A6 		mtlr 0
 894 0054 83A1000C 		lwz 29,12(1)
 895 0058 83C10010 		lwz 30,16(1)
 896              	.LVL74:
 897 005c 83E10014 		lwz 31,20(1)
 898              	.LVL75:
 899 0060 38210018 		addi 1,1,24
 900              		.cfi_remember_state
 901              	.LCFI16:
 902              		.cfi_def_cfa_offset 0
 903              		.cfi_restore 31
 904              		.cfi_restore 30
 905              		.cfi_restore 29
 906              		.cfi_restore 28
 907 0064 4E800020 		blr
 908              	.LVL76:
 909              	.L58:
 910              	.LCFI17:
 911              		.cfi_restore_state
 912              		.loc 2 288 0 discriminator 1
 913 0068 813F0000 		lwz 9,0(31)
 914 006c 7FE3FB78 		mr 3,31
 915 0070 80090010 		lwz 0,16(9)
 916 0074 7C0903A6 		mtctr 0
 917 0078 4E800421 		bctrl
 918              		.loc 2 290 0 discriminator 1
 919 007c 801F0024 		lwz 0,36(31)
 920 0080 7C030214 		add 0,3,0
 921 0084 7F9E0000 		cmpw 7,30,0
 922 0088 409CFFBC 		bge+ 7,.L54
 923              		.loc 2 289 0 discriminator 3
 924 008c 813F0000 		lwz 9,0(31)
 925 0090 7FE3FB78 		mr 3,31
 926 0094 80090014 		lwz 0,20(9)
 927 0098 7C0903A6 		mtctr 0
 928 009c 4E800421 		bctrl
 929              		.loc 2 290 0 discriminator 3
 930 00a0 7F83E000 		cmpw 7,3,28
 931 00a4 409CFFA0 		bge+ 7,.L54
 932              		.loc 2 290 0 is_stmt 0 discriminator 4
 933 00a8 813F0000 		lwz 9,0(31)
 934 00ac 7FE3FB78 		mr 3,31
 935 00b0 80090014 		lwz 0,20(9)
 936 00b4 7C0903A6 		mtctr 0
 937 00b8 4E800421 		bctrl
 938 00bc 801F0028 		lwz 0,40(31)
 939 00c0 7C030214 		add 0,3,0
 940              		.loc 2 285 0 is_stmt 1 discriminator 4
 941 00c4 7F9C0000 		cmpw 7,28,0
 942 00c8 7FA00026 		mfcr 29
 943 00cc 57BDEFFE 		rlwinm 29,29,29,1
 944 00d0 4BFFFF74 		b .L54
 945              		.cfi_endproc
 946              	.LFE1417:
 947              		.size	_ZN10GuiElement8IsInsideEii, .-_ZN10GuiElement8IsInsideEii
 948              		.section	.text._ZN10GuiElement11SetPositionEii,"axG",@progbits,_ZN10GuiElement11SetPositionEii,com
 949              		.align 2
 950              		.weak	_ZN10GuiElement11SetPositionEii
 951              		.type	_ZN10GuiElement11SetPositionEii, @function
 952              	_ZN10GuiElement11SetPositionEii:
 953              	.LFB1418:
 954              		.loc 2 295 0
 955              		.cfi_startproc
 956              	.LVL77:
 957              		.loc 2 297 0
 958 0000 9083002C 		stw 4,44(3)
 959              		.loc 2 299 0
 960              		.loc 2 298 0
 961 0004 90A30030 		stw 5,48(3)
 962              		.loc 2 299 0
 963 0008 4E800020 		blr
 964              		.cfi_endproc
 965              	.LFE1418:
 966              		.size	_ZN10GuiElement11SetPositionEii, .-_ZN10GuiElement11SetPositionEii
 967              		.section	.text._ZN10GuiElement11SetPositionEiii,"axG",@progbits,_ZN10GuiElement11SetPositionEiii,c
 968              		.align 2
 969              		.weak	_ZN10GuiElement11SetPositionEiii
 970              		.type	_ZN10GuiElement11SetPositionEiii, @function
 971              	_ZN10GuiElement11SetPositionEiii:
 972              	.LFB1419:
 973              		.loc 2 304 0
 974              		.cfi_startproc
 975              	.LVL78:
 976              		.loc 2 306 0
 977 0000 9083002C 		stw 4,44(3)
 978              		.loc 2 309 0
 979              		.loc 2 307 0
 980 0004 90A30030 		stw 5,48(3)
 981              		.loc 2 308 0
 982 0008 90C30034 		stw 6,52(3)
 983              		.loc 2 309 0
 984 000c 4E800020 		blr
 985              		.cfi_endproc
 986              	.LFE1419:
 987              		.size	_ZN10GuiElement11SetPositionEiii, .-_ZN10GuiElement11SetPositionEiii
 988              		.section	.text._ZN10GuiElement12SetAlignmentEi,"axG",@progbits,_ZN10GuiElement12SetAlignmentEi,com
 989              		.align 2
 990              		.weak	_ZN10GuiElement12SetAlignmentEi
 991              		.type	_ZN10GuiElement12SetAlignmentEi, @function
 992              	_ZN10GuiElement12SetAlignmentEi:
 993              	.LFB1421:
 994              		.loc 2 316 0
 995              		.cfi_startproc
 996              	.LVL79:
 997              		.loc 2 316 0
 998 0000 90830044 		stw 4,68(3)
 999 0004 4E800020 		blr
 1000              		.cfi_endproc
 1001              	.LFE1421:
 1002              		.size	_ZN10GuiElement12SetAlignmentEi, .-_ZN10GuiElement12SetAlignmentEi
 1003              		.section	.text._ZNK10GuiElement12GetAlignmentEv,"axG",@progbits,_ZNK10GuiElement12GetAlignmentEv,c
 1004              		.align 2
 1005              		.weak	_ZNK10GuiElement12GetAlignmentEv
 1006              		.type	_ZNK10GuiElement12GetAlignmentEv, @function
 1007              	_ZNK10GuiElement12GetAlignmentEv:
 1008              	.LFB1422:
 1009              		.loc 2 318 0
 1010              		.cfi_startproc
 1011              	.LVL80:
 1012              		.loc 2 318 0
 1013 0000 80630044 		lwz 3,68(3)
 1014              	.LVL81:
 1015 0004 4E800020 		blr
 1016              		.cfi_endproc
 1017              	.LFE1422:
 1018              		.size	_ZNK10GuiElement12GetAlignmentEv, .-_ZNK10GuiElement12GetAlignmentEv
 1019              		.section	.text._ZN8GuiFrame4showEv,"axG",@progbits,_ZN8GuiFrame4showEv,comdat
 1020              		.align 2
 1021              		.weak	_ZN8GuiFrame4showEv
 1022              		.type	_ZN8GuiFrame4showEv, @function
 1023              	_ZN8GuiFrame4showEv:
 1024              	.LFB1431:
 1025              		.file 3 "d:/Projects/SaveGameManager/savegame-manager-gx/trunk/source/Prompts/../GUI/gui_frame.h"
 1026              		.loc 3 79 0
 1027              		.cfi_startproc
 1028              	.LVL82:
 1029              		.loc 3 79 0
 1030 0000 4E800020 		blr
 1031              		.cfi_endproc
 1032              	.LFE1431:
 1033              		.size	_ZN8GuiFrame4showEv, .-_ZN8GuiFrame4showEv
 1034              		.section	.text._ZN8GuiFrame4hideEv,"axG",@progbits,_ZN8GuiFrame4hideEv,comdat
 1035              		.align 2
 1036              		.weak	_ZN8GuiFrame4hideEv
 1037              		.type	_ZN8GuiFrame4hideEv, @function
 1038              	_ZN8GuiFrame4hideEv:
 1039              	.LFB1432:
 1040              		.loc 3 81 0
 1041              		.cfi_startproc
 1042              	.LVL83:
 1043              		.loc 3 81 0
 1044 0000 4E800020 		blr
 1045              		.cfi_endproc
 1046              	.LFE1432:
 1047              		.size	_ZN8GuiFrame4hideEv, .-_ZN8GuiFrame4hideEv
 1048              		.section	.text._ZN8GuiFrame4execEv,"axG",@progbits,_ZN8GuiFrame4execEv,comdat
 1049              		.align 2
 1050              		.weak	_ZN8GuiFrame4execEv
 1051              		.type	_ZN8GuiFrame4execEv, @function
 1052              	_ZN8GuiFrame4execEv:
 1053              	.LFB1433:
 1054              		.loc 3 83 0
 1055              		.cfi_startproc
 1056              	.LVL84:
 1057              		.loc 3 83 0
 1058 0000 4E800020 		blr
 1059              		.cfi_endproc
 1060              	.LFE1433:
 1061              		.size	_ZN8GuiFrame4execEv, .-_ZN8GuiFrame4execEv
 1062              		.section	.text._ZN8GuiFrame12updateEventsEv,"axG",@progbits,_ZN8GuiFrame12updateEventsEv,comdat
 1063              		.align 2
 1064              		.weak	_ZN8GuiFrame12updateEventsEv
 1065              		.type	_ZN8GuiFrame12updateEventsEv, @function
 1066              	_ZN8GuiFrame12updateEventsEv:
 1067              	.LFB1434:
 1068              		.loc 3 85 0
 1069              		.cfi_startproc
 1070              	.LVL85:
 1071              		.loc 3 85 0
 1072 0000 4E800020 		blr
 1073              		.cfi_endproc
 1074              	.LFE1434:
 1075              		.size	_ZN8GuiFrame12updateEventsEv, .-_ZN8GuiFrame12updateEventsEv
 1076              		.section	.text._ZN14ProgressWindow13OnCancelClickEP9GuiButtoniRK6_POINT,"axG",@progbits,_ZN14Progr
 1077              		.align 2
 1078              		.weak	_ZN14ProgressWindow13OnCancelClickEP9GuiButtoniRK6_POINT
 1079              		.type	_ZN14ProgressWindow13OnCancelClickEP9GuiButtoniRK6_POINT, @function
 1080              	_ZN14ProgressWindow13OnCancelClickEP9GuiButtoniRK6_POINT:
 1081              	.LFB1474:
 1082              		.file 4 "d:/Projects/SaveGameManager/savegame-manager-gx/trunk/source/Prompts/ProgressWindow.h"
 1083              		.loc 4 58 0
 1084              		.cfi_startproc
 1085              	.LVL86:
 1086              		.loc 4 58 0
 1087 0000 38000001 		li 0,1
 1088 0004 980300E1 		stb 0,225(3)
 1089 0008 4E800020 		blr
 1090              		.cfi_endproc
 1091              	.LFE1474:
 1092              		.size	_ZN14ProgressWindow13OnCancelClickEP9GuiButtoniRK6_POINT, .-_ZN14ProgressWindow13OnCancelCli
 1093              		.section	.text._ZN7sigslot17_connection_base3IP9GuiButtoniRK6_POINTNS_15single_threadedEED2Ev,"axG
 1094              		.align 2
 1095              		.weak	_ZN7sigslot17_connection_base3IP9GuiButtoniRK6_POINTNS_15single_threadedEED2Ev
 1096              		.type	_ZN7sigslot17_connection_base3IP9GuiButtoniRK6_POINTNS_15single_threadedEED2Ev, @function
 1097              	_ZN7sigslot17_connection_base3IP9GuiButtoniRK6_POINTNS_15single_threadedEED2Ev:
 1098              	.LFB1772:
 1099              		.loc 1 387 0
 1100              		.cfi_startproc
 1101              	.LVL87:
 1102              	.LBB2127:
 1103              		.loc 1 387 0
 1104 0000 3D200000 		lis 9,_ZTVN7sigslot17_connection_base3IP9GuiButtoniRK6_POINTNS_15single_threadedEEE+8@ha
 1105              	.LBE2127:
 1106              	.LBB2128:
 1107 0004 38090008 		la 0,_ZTVN7sigslot17_connection_base3IP9GuiButtoniRK6_POINTNS_15single_threadedEEE+8@l(9)
 1108 0008 90030000 		stw 0,0(3)
 1109              	.LBE2128:
 1110 000c 4E800020 		blr
 1111              		.cfi_endproc
 1112              	.LFE1772:
 1113              		.size	_ZN7sigslot17_connection_base3IP9GuiButtoniRK6_POINTNS_15single_threadedEED2Ev, .-_ZN7sigslo
 1114              		.section	.text._ZN7sigslot12_connection3I14ProgressWindowP9GuiButtoniRK6_POINTNS_15single_threaded
 1115              		.align 2
 1116              		.weak	_ZN7sigslot12_connection3I14ProgressWindowP9GuiButtoniRK6_POINTNS_15single_threadedEED2Ev
 1117              		.type	_ZN7sigslot12_connection3I14ProgressWindowP9GuiButtoniRK6_POINTNS_15single_threadedEED2Ev, @
 1118              	_ZN7sigslot12_connection3I14ProgressWindowP9GuiButtoniRK6_POINTNS_15single_threadedEED2Ev:
 1119              	.LFB2023:
 1120              		.loc 1 1783 0
 1121              		.cfi_startproc
 1122              	.LVL88:
 1123              	.LBB2129:
 1124              	.LBB2130:
 1125              	.LBB2131:
 1126              	.LBB2132:
 1127              		.loc 1 387 0
 1128 0000 3D200000 		lis 9,_ZTVN7sigslot17_connection_base3IP9GuiButtoniRK6_POINTNS_15single_threadedEEE+8@ha
 1129              	.LBE2132:
 1130              	.LBE2131:
 1131              	.LBE2130:
 1132              	.LBE2129:
 1133              		.loc 1 1786 0
 1134              	.LBB2136:
 1135              	.LBB2135:
 1136              	.LBB2134:
 1137              	.LBB2133:
 1138              		.loc 1 387 0
 1139 0004 38090008 		la 0,_ZTVN7sigslot17_connection_base3IP9GuiButtoniRK6_POINTNS_15single_threadedEEE+8@l(9)
 1140 0008 90030000 		stw 0,0(3)
 1141              	.LBE2133:
 1142              	.LBE2134:
 1143              	.LBE2135:
 1144              	.LBE2136:
 1145              		.loc 1 1786 0
 1146 000c 4E800020 		blr
 1147              		.cfi_endproc
 1148              	.LFE2023:
 1149              		.size	_ZN7sigslot12_connection3I14ProgressWindowP9GuiButtoniRK6_POINTNS_15single_threadedEED2Ev, .
 1150              		.section	.text._ZNK7sigslot12_connection3I14ProgressWindowP9GuiButtoniRK6_POINTNS_15single_threade
 1151              		.align 2
 1152              		.weak	_ZNK7sigslot12_connection3I14ProgressWindowP9GuiButtoniRK6_POINTNS_15single_threadedEE7getde
 1153              		.type	_ZNK7sigslot12_connection3I14ProgressWindowP9GuiButtoniRK6_POINTNS_15single_threadedEE7getde
 1154              	_ZNK7sigslot12_connection3I14ProgressWindowP9GuiButtoniRK6_POINTNS_15single_threadedEE7getdestEv:
 1155              	.LFB2026:
 1156              		.loc 1 1804 0
 1157              		.cfi_startproc
 1158              	.LVL89:
 1159              		.loc 1 1806 0
 1160 0000 81230004 		lwz 9,4(3)
 1161 0004 38600000 		li 3,0
 1162              	.LVL90:
 1163 0008 2F890000 		cmpwi 7,9,0
 1164 000c 4D9E0020 		beqlr- 7
 1165              		.loc 1 1806 0 is_stmt 0 discriminator 1
 1166 0010 386900B0 		addi 3,9,176
 1167              		.loc 1 1807 0 is_stmt 1 discriminator 1
 1168 0014 4E800020 		blr
 1169              		.cfi_endproc
 1170              	.LFE2026:
 1171              		.size	_ZNK7sigslot12_connection3I14ProgressWindowP9GuiButtoniRK6_POINTNS_15single_threadedEE7getde
 1172              		.section	.text._ZN7sigslot12_connection3I14ProgressWindowP9GuiButtoniRK6_POINTNS_15single_threaded
 1173              		.align 2
 1174              		.weak	_ZN7sigslot12_connection3I14ProgressWindowP9GuiButtoniRK6_POINTNS_15single_threadedEE4emitES
 1175              		.type	_ZN7sigslot12_connection3I14ProgressWindowP9GuiButtoniRK6_POINTNS_15single_threadedEE4emitES
 1176              	_ZN7sigslot12_connection3I14ProgressWindowP9GuiButtoniRK6_POINTNS_15single_threadedEE4emitES3_iS6_:
 1177              	.LFB2027:
 1178              		.loc 1 1799 0
 1179              		.cfi_startproc
 1180              	.LVL91:
 1181 0000 7C0802A6 		mflr 0
 1182 0004 9421FFF8 		stwu 1,-8(1)
 1183              	.LCFI18:
 1184              		.cfi_def_cfa_offset 8
 1185              		.cfi_register 65, 0
 1186 0008 9001000C 		stw 0,12(1)
 1187              		.loc 1 1801 0
 1188 000c 80030008 		lwz 0,8(3)
 1189              		.cfi_offset 65, 4
 1190 0010 81630004 		lwz 11,4(3)
 1191 0014 70090001 		andi. 9,0,1
 1192 0018 8123000C 		lwz 9,12(3)
 1193 001c 40820020 		bne- 0,.L77
 1194 0020 7C0903A6 		mtctr 0
 1195 0024 7C6B4A14 		add 3,11,9
 1196              	.LVL92:
 1197 0028 4E800421 		bctrl
 1198              	.LVL93:
 1199              		.loc 1 1802 0
 1200 002c 8001000C 		lwz 0,12(1)
 1201 0030 38210008 		addi 1,1,8
 1202              		.cfi_remember_state
 1203              	.LCFI19:
 1204              		.cfi_def_cfa_offset 0
 1205 0034 7C0803A6 		mtlr 0
 1206 0038 4E800020 		blr
 1207              	.LVL94:
 1208              	.L77:
 1209              	.LCFI20:
 1210              		.cfi_restore_state
 1211              		.loc 1 1801 0 discriminator 1
 1212 003c 7D4B482E 		lwzx 10,11,9
 1213 0040 7C6B4A14 		add 3,11,9
 1214              	.LVL95:
 1215 0044 7D2A0214 		add 9,10,0
 1216 0048 8009FFFF 		lwz 0,-1(9)
 1217 004c 7C0903A6 		mtctr 0
 1218 0050 4E800421 		bctrl
 1219              	.LVL96:
 1220              		.loc 1 1802 0 discriminator 1
 1221 0054 8001000C 		lwz 0,12(1)
 1222 0058 38210008 		addi 1,1,8
 1223              	.LCFI21:
 1224              		.cfi_def_cfa_offset 0
 1225 005c 7C0803A6 		mtlr 0
 1226 0060 4E800020 		blr
 1227              		.cfi_endproc
 1228              	.LFE2027:
 1229              		.size	_ZN7sigslot12_connection3I14ProgressWindowP9GuiButtoniRK6_POINTNS_15single_threadedEE4emitES
 1230              		.section	.text._ZN7sigslot12_connection3I14ProgressWindowP9GuiButtoniRK6_POINTNS_15single_threaded
 1231              		.align 2
 1232              		.weak	_ZN7sigslot12_connection3I14ProgressWindowP9GuiButtoniRK6_POINTNS_15single_threadedEE9duplic
 1233              		.type	_ZN7sigslot12_connection3I14ProgressWindowP9GuiButtoniRK6_POINTNS_15single_threadedEE9duplic
 1234              	_ZN7sigslot12_connection3I14ProgressWindowP9GuiButtoniRK6_POINTNS_15single_threadedEE9duplicateEPNS
 1235              	.LFB2035:
 1236              		.loc 1 1794 0
 1237              		.cfi_startproc
 1238              	.LVL97:
 1239 0000 9421FFF0 		stwu 1,-16(1)
 1240              	.LCFI22:
 1241              		.cfi_def_cfa_offset 16
 1242 0004 7C0802A6 		mflr 0
 1243 0008 93C10008 		stw 30,8(1)
 1244 000c 7C9E2378 		mr 30,4
 1245              		.cfi_offset 30, -8
 1246              		.cfi_register 65, 0
 1247 0010 93E1000C 		stw 31,12(1)
 1248 0014 7C7F1B78 		mr 31,3
 1249              		.cfi_offset 31, -4
 1250              		.loc 1 1796 0
 1251 0018 38600010 		li 3,16
 1252              	.LVL98:
 1253              		.loc 1 1794 0
 1254 001c 90010014 		stw 0,20(1)
 1255              		.loc 1 1796 0
 1256              		.cfi_offset 65, 4
 1257 0020 48000001 		bl _Znwj
 1258              	.LVL99:
 1259 0024 2F9E0000 		cmpwi 7,30,0
 1260 0028 38000000 		li 0,0
 1261 002c 419E0008 		beq- 7,.L80
 1262              		.loc 1 1796 0 is_stmt 0 discriminator 1
 1263 0030 381EFF50 		addi 0,30,-176
 1264              	.L80:
 1265              	.LVL100:
 1266              		.loc 1 1796 0 discriminator 3
 1267 0034 817F0008 		lwz 11,8(31)
 1268              	.LVL101:
 1269              	.LBB2137:
 1270              	.LBB2138:
 1271              		.loc 1 1778 0 is_stmt 1 discriminator 3
 1272 0038 3D400000 		lis 10,_ZTVN7sigslot12_connection3I14ProgressWindowP9GuiButtoniRK6_POINTNS_15single_threadedEEE+8@
 1273              	.LBE2138:
 1274              	.LBE2137:
 1275              		.loc 1 1796 0 discriminator 3
 1276 003c 813F000C 		lwz 9,12(31)
 1277              	.LVL102:
 1278              	.LBB2141:
 1279              	.LBB2139:
 1280              		.loc 1 1778 0 discriminator 3
 1281 0040 394A0008 		la 10,_ZTVN7sigslot12_connection3I14ProgressWindowP9GuiButtoniRK6_POINTNS_15single_threadedEEE+8@l
 1282              		.loc 1 1780 0 discriminator 3
 1283 0044 91630008 		stw 11,8(3)
 1284 0048 9123000C 		stw 9,12(3)
 1285              		.loc 1 1779 0 discriminator 3
 1286 004c 90030004 		stw 0,4(3)
 1287              	.LBE2139:
 1288              	.LBE2141:
 1289              		.loc 1 1797 0 discriminator 3
 1290 0050 80010014 		lwz 0,20(1)
 1291              	.LVL103:
 1292 0054 83C10008 		lwz 30,8(1)
 1293              	.LVL104:
 1294 0058 7C0803A6 		mtlr 0
 1295 005c 83E1000C 		lwz 31,12(1)
 1296              	.LVL105:
 1297              	.LBB2142:
 1298              	.LBB2140:
 1299              		.loc 1 1778 0 discriminator 3
 1300 0060 91430000 		stw 10,0(3)
 1301              	.LBE2140:
 1302              	.LBE2142:
 1303              		.loc 1 1797 0 discriminator 3
 1304 0064 38210010 		addi 1,1,16
 1305              	.LCFI23:
 1306              		.cfi_def_cfa_offset 0
 1307              		.cfi_restore 31
 1308              		.cfi_restore 30
 1309 0068 4E800020 		blr
 1310              		.cfi_endproc
 1311              	.LFE2035:
 1312              		.size	_ZN7sigslot12_connection3I14ProgressWindowP9GuiButtoniRK6_POINTNS_15single_threadedEE9duplic
 1313              		.section	.text._ZN7sigslot12_connection3I14ProgressWindowP9GuiButtoniRK6_POINTNS_15single_threaded
 1314              		.align 2
 1315              		.weak	_ZN7sigslot12_connection3I14ProgressWindowP9GuiButtoniRK6_POINTNS_15single_threadedEE5cloneE
 1316              		.type	_ZN7sigslot12_connection3I14ProgressWindowP9GuiButtoniRK6_POINTNS_15single_threadedEE5cloneE
 1317              	_ZN7sigslot12_connection3I14ProgressWindowP9GuiButtoniRK6_POINTNS_15single_threadedEE5cloneEv:
 1318              	.LFB2028:
 1319              		.loc 1 1789 0
 1320              		.cfi_startproc
 1321              	.LVL106:
 1322 0000 9421FFF0 		stwu 1,-16(1)
 1323              	.LCFI24:
 1324              		.cfi_def_cfa_offset 16
 1325 0004 7C0802A6 		mflr 0
 1326 0008 93E1000C 		stw 31,12(1)
 1327 000c 7C7F1B78 		mr 31,3
 1328              		.cfi_offset 31, -4
 1329              		.cfi_register 65, 0
 1330              		.loc 1 1791 0
 1331 0010 38600010 		li 3,16
 1332              	.LVL107:
 1333              		.loc 1 1789 0
 1334 0014 90010014 		stw 0,20(1)
 1335              		.loc 1 1791 0
 1336              		.cfi_offset 65, 4
 1337 0018 48000001 		bl _Znwj
 1338              		.file 5 "d:/Projects/SaveGameManager/savegame-manager-gx/trunk/source/Prompts/ProgressWindow.cpp"
 1339              		.loc 5 404 0
 1340 001c 801F0004 		lwz 0,4(31)
 1341              	.LVL108:
 1342              	.LBB2143:
 1343              	.LBB2144:
 1344              		.loc 1 1767 0
 1345 0020 3D600000 		lis 11,_ZTVN7sigslot12_connection3I14ProgressWindowP9GuiButtoniRK6_POINTNS_15single_threadedEEE+8@
 1346 0024 396B0008 		la 11,_ZTVN7sigslot12_connection3I14ProgressWindowP9GuiButtoniRK6_POINTNS_15single_threadedEEE+8@l
 1347 0028 90030004 		stw 0,4(3)
 1348 002c 91630000 		stw 11,0(3)
 1349 0030 815F0008 		lwz 10,8(31)
 1350 0034 817F000C 		lwz 11,12(31)
 1351 0038 91430008 		stw 10,8(3)
 1352 003c 9163000C 		stw 11,12(3)
 1353              	.LBE2144:
 1354              	.LBE2143:
 1355              		.loc 1 1792 0
 1356 0040 80010014 		lwz 0,20(1)
 1357 0044 83E1000C 		lwz 31,12(1)
 1358              	.LVL109:
 1359 0048 7C0803A6 		mtlr 0
 1360 004c 38210010 		addi 1,1,16
 1361              	.LCFI25:
 1362              		.cfi_def_cfa_offset 0
 1363              		.cfi_restore 31
 1364 0050 4E800020 		blr
 1365              		.cfi_endproc
 1366              	.LFE2028:
 1367              		.size	_ZN7sigslot12_connection3I14ProgressWindowP9GuiButtoniRK6_POINTNS_15single_threadedEE5cloneE
 1368              		.section	.text._ZN7sigslot12_connection3I14ProgressWindowP9GuiButtoniRK6_POINTNS_15single_threaded
 1369              		.align 2
 1370              		.weak	_ZN7sigslot12_connection3I14ProgressWindowP9GuiButtoniRK6_POINTNS_15single_threadedEED0Ev
 1371              		.type	_ZN7sigslot12_connection3I14ProgressWindowP9GuiButtoniRK6_POINTNS_15single_threadedEED0Ev, @
 1372              	_ZN7sigslot12_connection3I14ProgressWindowP9GuiButtoniRK6_POINTNS_15single_threadedEED0Ev:
 1373              	.LFB2025:
 1374              		.loc 1 1783 0
 1375              		.cfi_startproc
 1376              	.LVL110:
 1377 0000 7C0802A6 		mflr 0
 1378 0004 9421FFF8 		stwu 1,-8(1)
 1379              	.LCFI26:
 1380              		.cfi_def_cfa_offset 8
 1381              		.cfi_register 65, 0
 1382              	.LBB2145:
 1383              	.LBB2146:
 1384              	.LBB2147:
 1385              	.LBB2148:
 1386              	.LBB2149:
 1387              	.LBB2150:
 1388              		.loc 1 387 0
 1389 0008 3D200000 		lis 9,_ZTVN7sigslot17_connection_base3IP9GuiButtoniRK6_POINTNS_15single_threadedEEE+8@ha
 1390              	.LBE2150:
 1391              	.LBE2149:
 1392              	.LBE2148:
 1393              	.LBE2147:
 1394              	.LBE2146:
 1395              	.LBE2145:
 1396              		.loc 1 1783 0
 1397 000c 9001000C 		stw 0,12(1)
 1398              	.LBB2156:
 1399              	.LBB2155:
 1400              	.LBB2154:
 1401              	.LBB2153:
 1402              	.LBB2152:
 1403              	.LBB2151:
 1404              		.loc 1 387 0
 1405 0010 38090008 		la 0,_ZTVN7sigslot17_connection_base3IP9GuiButtoniRK6_POINTNS_15single_threadedEEE+8@l(9)
 1406              		.cfi_offset 65, 4
 1407 0014 90030000 		stw 0,0(3)
 1408              	.LBE2151:
 1409              	.LBE2152:
 1410              	.LBE2153:
 1411              	.LBE2154:
 1412              	.LBE2155:
 1413              	.LBE2156:
 1414              		.loc 1 1786 0
 1415 0018 48000001 		bl _ZdlPv
 1416              	.LVL111:
 1417 001c 8001000C 		lwz 0,12(1)
 1418 0020 38210008 		addi 1,1,8
 1419              	.LCFI27:
 1420              		.cfi_def_cfa_offset 0
 1421 0024 7C0803A6 		mtlr 0
 1422 0028 4E800020 		blr
 1423              		.cfi_endproc
 1424              	.LFE2025:
 1425              		.size	_ZN7sigslot12_connection3I14ProgressWindowP9GuiButtoniRK6_POINTNS_15single_threadedEED0Ev, .
 1426              		.section	.text._ZN7sigslot17_connection_base3IP9GuiButtoniRK6_POINTNS_15single_threadedEED0Ev,"axG
 1427              		.align 2
 1428              		.weak	_ZN7sigslot17_connection_base3IP9GuiButtoniRK6_POINTNS_15single_threadedEED0Ev
 1429              		.type	_ZN7sigslot17_connection_base3IP9GuiButtoniRK6_POINTNS_15single_threadedEED0Ev, @function
 1430              	_ZN7sigslot17_connection_base3IP9GuiButtoniRK6_POINTNS_15single_threadedEED0Ev:
 1431              	.LFB1774:
 1432              		.loc 1 387 0
 1433              		.cfi_startproc
 1434              	.LVL112:
 1435 0000 7C0802A6 		mflr 0
 1436 0004 9421FFF8 		stwu 1,-8(1)
 1437              	.LCFI28:
 1438              		.cfi_def_cfa_offset 8
 1439              		.cfi_register 65, 0
 1440              	.LBB2157:
 1441              	.LBB2158:
 1442              	.LBB2159:
 1443 0008 3D200000 		lis 9,_ZTVN7sigslot17_connection_base3IP9GuiButtoniRK6_POINTNS_15single_threadedEEE+8@ha
 1444              	.LBE2159:
 1445              	.LBE2158:
 1446              	.LBE2157:
 1447 000c 9001000C 		stw 0,12(1)
 1448              	.LBB2162:
 1449              	.LBB2161:
 1450              	.LBB2160:
 1451              		.loc 1 387 0
 1452 0010 38090008 		la 0,_ZTVN7sigslot17_connection_base3IP9GuiButtoniRK6_POINTNS_15single_threadedEEE+8@l(9)
 1453              		.cfi_offset 65, 4
 1454 0014 90030000 		stw 0,0(3)
 1455              	.LBE2160:
 1456              	.LBE2161:
 1457              	.LBE2162:
 1458 0018 48000001 		bl _ZdlPv
 1459              	.LVL113:
 1460 001c 8001000C 		lwz 0,12(1)
 1461 0020 38210008 		addi 1,1,8
 1462              	.LCFI29:
 1463              		.cfi_def_cfa_offset 0
 1464 0024 7C0803A6 		mtlr 0
 1465 0028 4E800020 		blr
 1466              		.cfi_endproc
 1467              	.LFE1774:
 1468              		.size	_ZN7sigslot17_connection_base3IP9GuiButtoniRK6_POINTNS_15single_threadedEED0Ev, .-_ZN7sigslo
 1469              		.section	.text._ZN7sigslot15single_threadedD0Ev,"axG",@progbits,_ZN7sigslot15single_threadedD5Ev,c
 1470              		.align 2
 1471              		.weak	_ZN7sigslot15single_threadedD0Ev
 1472              		.type	_ZN7sigslot15single_threadedD0Ev, @function
 1473              	_ZN7sigslot15single_threadedD0Ev:
 1474              	.LFB1150:
 1475              		.loc 1 104 0
 1476              		.cfi_startproc
 1477              	.LVL114:
 1478 0000 7C0802A6 		mflr 0
 1479 0004 9421FFF8 		stwu 1,-8(1)
 1480              	.LCFI30:
 1481              		.cfi_def_cfa_offset 8
 1482              		.cfi_register 65, 0
 1483              	.LBB2163:
 1484              	.LBB2164:
 1485              	.LBB2165:
 1486              		.loc 1 105 0
 1487 0008 3D200000 		lis 9,_ZTVN7sigslot15single_threadedE+8@ha
 1488              	.LBE2165:
 1489              	.LBE2164:
 1490              	.LBE2163:
 1491              		.loc 1 104 0
 1492 000c 9001000C 		stw 0,12(1)
 1493              	.LBB2168:
 1494              	.LBB2167:
 1495              	.LBB2166:
 1496              		.loc 1 105 0
 1497 0010 38090008 		la 0,_ZTVN7sigslot15single_threadedE+8@l(9)
 1498              		.cfi_offset 65, 4
 1499 0014 90030000 		stw 0,0(3)
 1500              	.LBE2166:
 1501              	.LBE2167:
 1502              	.LBE2168:
 1503              		.loc 1 107 0
 1504 0018 48000001 		bl _ZdlPv
 1505              	.LVL115:
 1506 001c 8001000C 		lwz 0,12(1)
 1507 0020 38210008 		addi 1,1,8
 1508              	.LCFI31:
 1509              		.cfi_def_cfa_offset 0
 1510 0024 7C0803A6 		mtlr 0
 1511 0028 4E800020 		blr
 1512              		.cfi_endproc
 1513              	.LFE1150:
 1514              		.size	_ZN7sigslot15single_threadedD0Ev, .-_ZN7sigslot15single_threadedD0Ev
 1515              		.section	".text"
 1516              		.align 2
 1517              		.globl _ZN14ProgressWindow14TryCloseWindowEv
 1518              		.type	_ZN14ProgressWindow14TryCloseWindowEv, @function
 1519              	_ZN14ProgressWindow14TryCloseWindowEv:
 1520              	.LFB1607:
 1521              		.loc 5 147 0
 1522              		.cfi_startproc
 1523              		.cfi_personality 0,__gxx_personality_v0
 1524              		.cfi_lsda 0,.LLSDA1607
 1525              	.LVL116:
 1526 0000 7C0802A6 		mflr 0
 1527 0004 9421FFE0 		stwu 1,-32(1)
 1528              	.LCFI32:
 1529              		.cfi_def_cfa_offset 32
 1530              		.cfi_register 65, 0
 1531 0008 93E1001C 		stw 31,28(1)
 1532 000c 7C7F1B78 		mr 31,3
 1533              		.cfi_offset 31, -4
 1534 0010 90010024 		stw 0,36(1)
 1535 0014 9361000C 		stw 27,12(1)
 1536              	.LBB2207:
 1537              		.loc 5 148 0
 1538 0018 880300E2 		lbz 0,226(3)
 1539              		.cfi_offset 27, -20
 1540              		.cfi_offset 65, 4
 1541              	.LBE2207:
 1542              		.loc 5 147 0
 1543 001c 93810010 		stw 28,16(1)
 1544              	.LBB2216:
 1545              		.loc 5 148 0
 1546 0020 2F800000 		cmpwi 7,0,0
 1547              	.LBE2216:
 1548              		.loc 5 147 0
 1549 0024 93A10014 		stw 29,20(1)
 1550 0028 93C10018 		stw 30,24(1)
 1551              	.LBB2217:
 1552              		.loc 5 148 0
 1553 002c 409E0254 		bne- 7,.L93
 1554              		.cfi_offset 30, -8
 1555              		.cfi_offset 29, -12
 1556              		.cfi_offset 28, -16
 1557              		.loc 5 153 0
 1558 0030 3FA00000 		lis 29,.LANCHOR0@ha
 1559 0034 881D0000 		lbz 0,.LANCHOR0@l(29)
 1560 0038 2F800000 		cmpwi 7,0,0
 1561 003c 419E0268 		beq- 7,.L128
 1562              		.loc 5 160 0
 1563 0040 813F0000 		lwz 9,0(31)
 1564 0044 7FE3FB78 		mr 3,31
 1565              	.LBB2208:
 1566              	.LBB2209:
 1567              		.file 6 "d:/Projects/SaveGameManager/savegame-manager-gx/trunk/source/Prompts/../Controls/Applicat
 1568              		.loc 6 27 0
 1569 0048 3F800000 		lis 28,_ZN11Application8instanceE@ha
 1570              	.LBE2209:
 1571              	.LBE2208:
 1572              		.loc 5 160 0
 1573 004c 80090098 		lwz 0,152(9)
 1574 0050 7C0903A6 		mtctr 0
 1575              	.LEHB0:
 1576 0054 4E800421 		bctrl
 1577              	.LVL117:
 1578 0058 2F830000 		cmpwi 7,3,0
 1579 005c 409D0020 		ble- 7,.L96
 1580              	.L126:
 1581              	.LBB2213:
 1582              	.LBB2210:
 1583              		.loc 6 27 0
 1584 0060 801C0000 		lwz 0,_ZN11Application8instanceE@l(28)
 1585 0064 2F800000 		cmpwi 7,0,0
 1586 0068 419E02D8 		beq- 7,.L129
 1587              	.L97:
 1588              	.LBE2210:
 1589              	.LBE2213:
 1590              		.loc 5 160 0
 1591 006c 3D200000 		lis 9,_ZN11Application15exitApplicationE@ha
 1592 0070 88090000 		lbz 0,_ZN11Application15exitApplicationE@l(9)
 1593 0074 2F800000 		cmpwi 7,0,0
 1594 0078 419E0208 		beq- 7,.L93
 1595              	.L96:
 1596              	.LVL118:
 1597              	.LBE2217:
 1598              	.LBB2218:
 1599              	.LBB2219:
 1600              		.loc 5 163 0
 1601 007c 38000000 		li 0,0
 1602              		.loc 5 166 0
 1603 0080 7FE3FB78 		mr 3,31
 1604              		.loc 5 163 0
 1605 0084 981F00F8 		stb 0,248(31)
 1606              		.loc 5 164 0
 1607 0088 981F012A 		stb 0,298(31)
 1608              		.loc 5 166 0
 1609 008c 48000001 		bl _ZN8GuiFrame9RemoveAllEv
 1610              	.LBB2220:
 1611              	.LBB2221:
 1612              		.loc 6 27 0
 1613 0090 83DC0000 		lwz 30,_ZN11Application8instanceE@l(28)
 1614 0094 2F9E0000 		cmpwi 7,30,0
 1615 0098 419E02C0 		beq- 7,.L130
 1616              	.L119:
 1617              	.LVL119:
 1618              	.LBE2221:
 1619              	.LBE2220:
 1620              	.LBB2224:
 1621              		.loc 5 404 0
 1622 009c 813E025C 		lwz 9,604(30)
 1623              	.LBB2225:
 1624              		.loc 6 69 0
 1625 00a0 3B800000 		li 28,0
 1626              	.LBE2225:
 1627              		.loc 5 404 0
 1628 00a4 817E0260 		lwz 11,608(30)
 1629              	.LBB2251:
 1630              		.loc 6 69 0
 1631 00a8 7D204B78 		mr 0,9
 1632              	.LBB2226:
 1633              	.LBB2227:
 1634              		.file 7 "d:\\devkitpro\\devkitppc\\bin\\../lib/gcc/powerpc-eabi/4.6.3/../../../../powerpc-eabi/inc
 1635              		.loc 7 571 0
 1636 00ac 7D495850 		subf 10,9,11
 1637              	.LBE2227:
 1638              	.LBE2226:
 1639              		.loc 6 69 0
 1640 00b0 5548F0BF 		srwi. 8,10,2
 1641 00b4 40A2000C 		bne+ 0,.L125
 1642 00b8 4800002C 		b .L100
 1643              	.LVL120:
 1644              	.L121:
 1645              		.loc 5 404 0
 1646 00bc 7C090378 		mr 9,0
 1647              	.LVL121:
 1648              	.L125:
 1649              	.LBE2251:
 1650              	.LBE2224:
 1651              	.LBB2254:
 1652              	.LBB2222:
 1653              		.loc 5 146 0
 1654 00c0 579B103A 		slwi 27,28,2
 1655              	.LBE2222:
 1656              	.LBE2254:
 1657              	.LBB2255:
 1658              	.LBB2252:
 1659              		.loc 6 70 0
 1660 00c4 7D29D82E 		lwzx 9,9,27
 1661 00c8 7F9F4800 		cmpw 7,31,9
 1662 00cc 419E0220 		beq- 7,.L131
 1663              	.L102:
 1664              	.LBB2230:
 1665              	.LBB2228:
 1666              		.loc 7 571 0
 1667 00d0 7D205850 		subf 9,0,11
 1668              	.LBE2228:
 1669              	.LBE2230:
 1670              		.loc 6 69 0
 1671 00d4 3B9C0001 		addi 28,28,1
 1672              	.LVL122:
 1673              	.LBB2231:
 1674              	.LBB2229:
 1675              		.loc 7 571 0
 1676 00d8 7D291670 		srawi 9,9,2
 1677              	.LBE2229:
 1678              	.LBE2231:
 1679              		.loc 6 69 0
 1680 00dc 7F9C4840 		cmplw 7,28,9
 1681 00e0 419CFFDC 		blt+ 7,.L121
 1682              	.LVL123:
 1683              	.L100:
 1684              	.LBE2252:
 1685              	.LBE2255:
 1686              		.loc 5 168 0
 1687 00e4 7FE3FB78 		mr 3,31
 1688 00e8 38800000 		li 4,0
 1689 00ec 48000001 		bl _ZN8GuiFrame13DimBackgroundEb
 1690              		.loc 5 170 0
 1691 00f0 807F01A8 		lwz 3,424(31)
 1692 00f4 2F830000 		cmpwi 7,3,0
 1693 00f8 419E0008 		beq- 7,.L104
 1694              		.loc 5 171 0
 1695 00fc 48000001 		bl _ZN9Resources6RemoveEP8GuiSound
 1696              	.L104:
 1697              		.loc 5 172 0
 1698 0100 807F01AC 		lwz 3,428(31)
 1699 0104 2F830000 		cmpwi 7,3,0
 1700 0108 419E0008 		beq- 7,.L105
 1701              		.loc 5 173 0
 1702 010c 48000001 		bl _ZN9Resources6RemoveEP8GuiSound
 1703              	.L105:
 1704              		.loc 5 175 0
 1705 0110 807F0180 		lwz 3,384(31)
 1706 0114 2F830000 		cmpwi 7,3,0
 1707 0118 419E0008 		beq- 7,.L106
 1708              		.loc 5 176 0
 1709 011c 48000001 		bl _ZN9Resources6RemoveEP12GuiImageData
 1710              	.L106:
 1711              		.loc 5 177 0
 1712 0120 807F0184 		lwz 3,388(31)
 1713 0124 2F830000 		cmpwi 7,3,0
 1714 0128 419E0008 		beq- 7,.L107
 1715              		.loc 5 178 0
 1716 012c 48000001 		bl _ZN9Resources6RemoveEP12GuiImageData
 1717              	.L107:
 1718              		.loc 5 179 0
 1719 0130 807F0188 		lwz 3,392(31)
 1720 0134 2F830000 		cmpwi 7,3,0
 1721 0138 419E0008 		beq- 7,.L108
 1722              		.loc 5 180 0
 1723 013c 48000001 		bl _ZN9Resources6RemoveEP12GuiImageData
 1724              	.L108:
 1725              		.loc 5 182 0
 1726 0140 807F017C 		lwz 3,380(31)
 1727 0144 2F830000 		cmpwi 7,3,0
 1728 0148 419E0014 		beq- 7,.L109
 1729              		.loc 5 183 0
 1730 014c 81230000 		lwz 9,0(3)
 1731 0150 80090004 		lwz 0,4(9)
 1732 0154 7C0903A6 		mtctr 0
 1733 0158 4E800421 		bctrl
 1734              	.L109:
 1735              		.loc 5 184 0
 1736 015c 807F0194 		lwz 3,404(31)
 1737 0160 2F830000 		cmpwi 7,3,0
 1738 0164 419E0014 		beq- 7,.L110
 1739              		.loc 5 185 0
 1740 0168 81230000 		lwz 9,0(3)
 1741 016c 80090004 		lwz 0,4(9)
 1742 0170 7C0903A6 		mtctr 0
 1743 0174 4E800421 		bctrl
 1744              	.L110:
 1745              		.loc 5 187 0
 1746 0178 807F018C 		lwz 3,396(31)
 1747 017c 2F830000 		cmpwi 7,3,0
 1748 0180 419E0014 		beq- 7,.L111
 1749 0184 81230000 		lwz 9,0(3)
 1750 0188 80090004 		lwz 0,4(9)
 1751 018c 7C0903A6 		mtctr 0
 1752 0190 4E800421 		bctrl
 1753              	.L111:
 1754              		.loc 5 188 0
 1755 0194 807F0190 		lwz 3,400(31)
 1756 0198 2F830000 		cmpwi 7,3,0
 1757 019c 419E0014 		beq- 7,.L112
 1758 01a0 81230000 		lwz 9,0(3)
 1759 01a4 80090004 		lwz 0,4(9)
 1760 01a8 7C0903A6 		mtctr 0
 1761 01ac 4E800421 		bctrl
 1762              	.L112:
 1763              		.loc 5 190 0
 1764 01b0 807F0198 		lwz 3,408(31)
 1765 01b4 2F830000 		cmpwi 7,3,0
 1766 01b8 419E0014 		beq- 7,.L113
 1767 01bc 81230000 		lwz 9,0(3)
 1768 01c0 80090004 		lwz 0,4(9)
 1769 01c4 7C0903A6 		mtctr 0
 1770 01c8 4E800421 		bctrl
 1771              	.L113:
 1772              		.loc 5 191 0
 1773 01cc 807F019C 		lwz 3,412(31)
 1774 01d0 2F830000 		cmpwi 7,3,0
 1775 01d4 419E0014 		beq- 7,.L114
 1776 01d8 81230000 		lwz 9,0(3)
 1777 01dc 80090004 		lwz 0,4(9)
 1778 01e0 7C0903A6 		mtctr 0
 1779 01e4 4E800421 		bctrl
 1780              	.L114:
 1781              		.loc 5 192 0
 1782 01e8 807F01A0 		lwz 3,416(31)
 1783 01ec 2F830000 		cmpwi 7,3,0
 1784 01f0 419E0014 		beq- 7,.L115
 1785 01f4 81230000 		lwz 9,0(3)
 1786 01f8 80090004 		lwz 0,4(9)
 1787 01fc 7C0903A6 		mtctr 0
 1788 0200 4E800421 		bctrl
 1789              	.L115:
 1790              		.loc 5 194 0
 1791 0204 807F01A4 		lwz 3,420(31)
 1792 0208 2F830000 		cmpwi 7,3,0
 1793 020c 419E0014 		beq- 7,.L116
 1794 0210 81230000 		lwz 9,0(3)
 1795 0214 80090004 		lwz 0,4(9)
 1796 0218 7C0903A6 		mtctr 0
 1797 021c 4E800421 		bctrl
 1798              	.L116:
 1799              		.loc 5 196 0
 1800 0220 807F01B0 		lwz 3,432(31)
 1801 0224 2F830000 		cmpwi 7,3,0
 1802 0228 419E0014 		beq- 7,.L117
 1803 022c 81230000 		lwz 9,0(3)
 1804 0230 80090004 		lwz 0,4(9)
 1805 0234 7C0903A6 		mtctr 0
 1806 0238 4E800421 		bctrl
 1807              	.L117:
 1808              		.loc 5 198 0
 1809 023c 38000000 		li 0,0
 1810 0240 901F017C 		stw 0,380(31)
 1811              		.loc 5 200 0
 1812 0244 901F0180 		stw 0,384(31)
 1813              		.loc 5 201 0
 1814 0248 901F0184 		stw 0,388(31)
 1815              		.loc 5 202 0
 1816 024c 901F0188 		stw 0,392(31)
 1817              		.loc 5 204 0
 1818 0250 901F018C 		stw 0,396(31)
 1819              		.loc 5 205 0
 1820 0254 901F0190 		stw 0,400(31)
 1821              		.loc 5 206 0
 1822 0258 901F0194 		stw 0,404(31)
 1823              		.loc 5 208 0
 1824 025c 901F0198 		stw 0,408(31)
 1825              		.loc 5 209 0
 1826 0260 901F01A0 		stw 0,416(31)
 1827              		.loc 5 211 0
 1828 0264 901F01A4 		stw 0,420(31)
 1829              		.loc 5 213 0
 1830 0268 901F01A8 		stw 0,424(31)
 1831              		.loc 5 214 0
 1832 026c 901F01AC 		stw 0,428(31)
 1833              		.loc 5 216 0
 1834 0270 901F01B0 		stw 0,432(31)
 1835              		.loc 5 218 0
 1836 0274 981D0000 		stb 0,.LANCHOR0@l(29)
 1837              		.loc 5 219 0
 1838 0278 38000001 		li 0,1
 1839 027c 981F00E2 		stb 0,226(31)
 1840              	.LVL124:
 1841              	.L93:
 1842              	.LBE2219:
 1843              	.LBE2218:
 1844              		.loc 5 220 0
 1845 0280 80010024 		lwz 0,36(1)
 1846 0284 8361000C 		lwz 27,12(1)
 1847 0288 7C0803A6 		mtlr 0
 1848 028c 83810010 		lwz 28,16(1)
 1849 0290 83A10014 		lwz 29,20(1)
 1850 0294 83C10018 		lwz 30,24(1)
 1851 0298 83E1001C 		lwz 31,28(1)
 1852              	.LVL125:
 1853 029c 38210020 		addi 1,1,32
 1854              		.cfi_remember_state
 1855              	.LCFI33:
 1856              		.cfi_def_cfa_offset 0
 1857              		.cfi_restore 31
 1858              		.cfi_restore 30
 1859              		.cfi_restore 29
 1860              		.cfi_restore 28
 1861              		.cfi_restore 27
 1862 02a0 4E800020 		blr
 1863              	.LVL126:
 1864              	.L128:
 1865              	.LCFI34:
 1866              		.cfi_restore_state
 1867              	.LBB2260:
 1868              		.loc 5 155 0
 1869 02a4 81230000 		lwz 9,0(3)
 1870 02a8 38800021 		li 4,33
 1871 02ac 38A00032 		li 5,50
 1872 02b0 38C00000 		li 6,0
 1873 02b4 80090088 		lwz 0,136(9)
 1874              	.LBB2214:
 1875              	.LBB2211:
 1876              		.loc 6 27 0
 1877 02b8 3F800000 		lis 28,_ZN11Application8instanceE@ha
 1878              	.LBE2211:
 1879              	.LBE2214:
 1880              		.loc 5 155 0
 1881 02bc 7C0903A6 		mtctr 0
 1882 02c0 4E800421 		bctrl
 1883              	.LVL127:
 1884              		.loc 5 160 0
 1885 02c4 813F0000 		lwz 9,0(31)
 1886              		.loc 5 157 0
 1887 02c8 38000001 		li 0,1
 1888              		.loc 5 160 0
 1889 02cc 7FE3FB78 		mr 3,31
 1890              		.loc 5 157 0
 1891 02d0 981D0000 		stb 0,.LANCHOR0@l(29)
 1892              		.loc 5 160 0
 1893 02d4 80090098 		lwz 0,152(9)
 1894 02d8 7C0903A6 		mtctr 0
 1895 02dc 4E800421 		bctrl
 1896 02e0 2F830000 		cmpwi 7,3,0
 1897 02e4 41BDFD7C 		bgt- 7,.L126
 1898 02e8 4BFFFD94 		b .L96
 1899              	.LVL128:
 1900              	.L131:
 1901              	.LBE2260:
 1902              	.LBB2261:
 1903              	.LBB2258:
 1904              	.LBB2256:
 1905              	.LBB2253:
 1906              		.loc 6 71 0
 1907 02ec 807E0274 		lwz 3,628(30)
 1908 02f0 48000001 		bl LWP_MutexLock
 1909              	.LVL129:
 1910              	.LBB2232:
 1911              	.LBB2233:
 1912              		.file 8 "d:\\devkitpro\\devkitppc\\bin\\../lib/gcc/powerpc-eabi/4.6.3/../../../../powerpc-eabi/inc
 1913              		.loc 8 773 0
 1914 02f4 807E025C 		lwz 3,604(30)
 1915              	.LBE2233:
 1916              	.LBE2232:
 1917              	.LBB2235:
 1918              	.LBB2236:
 1919              	.LBB2237:
 1920              		.loc 5 404 0
 1921 02f8 813E0260 		lwz 9,608(30)
 1922              	.LBE2237:
 1923              	.LBE2236:
 1924              	.LBE2235:
 1925              	.LBB2248:
 1926              	.LBB2234:
 1927              		.loc 8 773 0
 1928 02fc 7C63DA14 		add 3,3,27
 1929              	.LVL130:
 1930              	.LBE2234:
 1931              	.LBE2248:
 1932              	.LBB2249:
 1933              	.LBB2246:
 1934              	.LBB2238:
 1935              	.LBB2239:
 1936 0300 38830004 		addi 4,3,4
 1937              	.LVL131:
 1938              	.LBE2239:
 1939              	.LBE2238:
 1940              		.file 9 "d:\\devkitpro\\devkitppc\\bin\\../lib/gcc/powerpc-eabi/4.6.3/../../../../powerpc-eabi/inc
 1941              		.loc 9 138 0
 1942 0304 7F844800 		cmpw 7,4,9
 1943 0308 419E001C 		beq- 7,.L103
 1944              	.LVL132:
 1945              	.LBB2240:
 1946              	.LBB2241:
 1947              	.LBB2242:
 1948              	.LBB2243:
 1949              	.LBB2244:
 1950              	.LBB2245:
 1951              		.file 10 "d:\\devkitpro\\devkitppc\\bin\\../lib/gcc/powerpc-eabi/4.6.3/../../../../powerpc-eabi/in
 1952              		.loc 10 364 0
 1953 030c 7CA44850 		subf 5,4,9
 1954              	.LVL133:
 1955              		.loc 10 365 0
 1956 0310 7CA51671 		srawi. 5,5,2
 1957              	.LVL134:
 1958 0314 41A20010 		beq+ 0,.L103
 1959              		.loc 10 366 0
 1960 0318 54A5103A 		slwi 5,5,2
 1961              	.LVL135:
 1962 031c 48000001 		bl memmove
 1963              	.LVL136:
 1964 0320 813E0260 		lwz 9,608(30)
 1965              	.LVL137:
 1966              	.L103:
 1967              	.LBE2245:
 1968              	.LBE2244:
 1969              	.LBE2243:
 1970              	.LBE2242:
 1971              	.LBE2241:
 1972              	.LBE2240:
 1973              		.loc 9 140 0
 1974 0324 3929FFFC 		addi 9,9,-4
 1975              	.LBE2246:
 1976              	.LBE2249:
 1977              		.loc 6 73 0
 1978 0328 807E0274 		lwz 3,628(30)
 1979              	.LBB2250:
 1980              	.LBB2247:
 1981              		.loc 9 140 0
 1982 032c 913E0260 		stw 9,608(30)
 1983              	.LBE2247:
 1984              	.LBE2250:
 1985              		.loc 6 73 0
 1986 0330 48000001 		bl LWP_MutexUnlock
 1987 0334 801E025C 		lwz 0,604(30)
 1988 0338 817E0260 		lwz 11,608(30)
 1989 033c 4BFFFD94 		b .L102
 1990              	.LVL138:
 1991              	.L129:
 1992              	.LBE2253:
 1993              	.LBE2256:
 1994              	.LBE2258:
 1995              	.LBE2261:
 1996              	.LBB2262:
 1997              	.LBB2215:
 1998              	.LBB2212:
 1999              		.loc 6 27 0
 2000 0340 38600278 		li 3,632
 2001 0344 48000001 		bl _Znwj
 2002              	.LEHE0:
 2003 0348 7C7E1B78 		mr 30,3
 2004              	.LEHB1:
 2005 034c 48000001 		bl _ZN11ApplicationC1Ev
 2006              	.LEHE1:
 2007 0350 93DC0000 		stw 30,_ZN11Application8instanceE@l(28)
 2008 0354 4BFFFD18 		b .L97
 2009              	.LVL139:
 2010              	.L130:
 2011              	.LBE2212:
 2012              	.LBE2215:
 2013              	.LBE2262:
 2014              	.LBB2263:
 2015              	.LBB2259:
 2016              	.LBB2257:
 2017              	.LBB2223:
 2018 0358 38600278 		li 3,632
 2019              	.LEHB2:
 2020 035c 48000001 		bl _Znwj
 2021              	.LEHE2:
 2022 0360 7C7E1B78 		mr 30,3
 2023              	.LEHB3:
 2024 0364 48000001 		bl _ZN11ApplicationC1Ev
 2025              	.LEHE3:
 2026 0368 93DC0000 		stw 30,_ZN11Application8instanceE@l(28)
 2027 036c 4BFFFD30 		b .L119
 2028              	.LVL140:
 2029              	.L122:
 2030              	.L127:
 2031 0370 7C7F1B78 		mr 31,3
 2032              	.LVL141:
 2033 0374 7FC3F378 		mr 3,30
 2034 0378 48000001 		bl _ZdlPv
 2035 037c 7FE3FB78 		mr 3,31
 2036              	.LEHB4:
 2037 0380 48000001 		bl _Unwind_Resume
 2038              	.LEHE4:
 2039              	.LVL142:
 2040              	.L123:
 2041 0384 4BFFFFEC 		b .L127
 2042              	.LBE2223:
 2043              	.LBE2257:
 2044              	.LBE2259:
 2045              	.LBE2263:
 2046              		.cfi_endproc
 2047              	.LFE1607:
 2048              		.globl __gxx_personality_v0
 2049              		.section	.gcc_except_table,"a",@progbits
 2050              	.LLSDA1607:
 2051 0000 FF       		.byte	0xff
 2052 0001 FF       		.byte	0xff
 2053 0002 01       		.byte	0x1
 2054 0003 1B       		.uleb128 .LLSDACSE1607-.LLSDACSB1607
 2055              	.LLSDACSB1607:
 2056 0004 54       		.uleb128 .LEHB0-.LFB1607
 2057 0005 F405     		.uleb128 .LEHE0-.LEHB0
 2058 0007 00       		.uleb128 0
 2059 0008 00       		.uleb128 0
 2060 0009 CC06     		.uleb128 .LEHB1-.LFB1607
 2061 000b 04       		.uleb128 .LEHE1-.LEHB1
 2062 000c F006     		.uleb128 .L122-.LFB1607
 2063 000e 00       		.uleb128 0
 2064 000f DC06     		.uleb128 .LEHB2-.LFB1607
 2065 0011 04       		.uleb128 .LEHE2-.LEHB2
 2066 0012 00       		.uleb128 0
 2067 0013 00       		.uleb128 0
 2068 0014 E406     		.uleb128 .LEHB3-.LFB1607
 2069 0016 04       		.uleb128 .LEHE3-.LEHB3
 2070 0017 8407     		.uleb128 .L123-.LFB1607
 2071 0019 00       		.uleb128 0
 2072 001a 8007     		.uleb128 .LEHB4-.LFB1607
 2073 001c 04       		.uleb128 .LEHE4-.LEHB4
 2074 001d 00       		.uleb128 0
 2075 001e 00       		.uleb128 0
 2076              	.LLSDACSE1607:
 2077              		.section	".text"
 2078              		.size	_ZN14ProgressWindow14TryCloseWindowEv, .-_ZN14ProgressWindow14TryCloseWindowEv
 2079              		.align 2
 2080              		.globl _ZN14ProgressWindow15AdvanceRotationEv
 2081              		.type	_ZN14ProgressWindow15AdvanceRotationEv, @function
 2082              	_ZN14ProgressWindow15AdvanceRotationEv:
 2083              	.LFB1608:
 2084              		.loc 5 223 0
 2085              		.cfi_startproc
 2086              	.LVL143:
 2087 0388 7C0802A6 		mflr 0
 2088 038c 9421FFE0 		stwu 1,-32(1)
 2089              	.LCFI35:
 2090              		.cfi_def_cfa_offset 32
 2091              		.cfi_register 65, 0
 2092 0390 93E1001C 		stw 31,28(1)
 2093 0394 7C7F1B78 		mr 31,3
 2094              		.cfi_offset 31, -4
 2095 0398 90010024 		stw 0,36(1)
 2096              	.LBB2265:
 2097              		.loc 5 224 0
 2098 039c 80630194 		lwz 3,404(3)
 2099              	.LVL144:
 2100              		.cfi_offset 65, 4
 2101 03a0 48000001 		bl _ZN8GuiImage8GetAngleEv
 2102 03a4 3D200000 		lis 9,.LC4@ha
 2103 03a8 C009000C 		lfs 0,.LC4@l(9)
 2104 03ac 39210010 		addi 9,1,16
 2105 03b0 EC01002A 		fadds 0,1,0
 2106 03b4 FC00001E 		fctiwz 0,0
 2107 03b8 7C004FAE 		stfiwx 0,0,9
 2108 03bc 81210010 		lwz 9,16(1)
 2109              	.LVL145:
 2110              		.loc 5 225 0
 2111 03c0 2F890167 		cmpwi 7,9,359
 2112 03c4 409D0008 		ble- 7,.L133
 2113              		.loc 5 226 0
 2114 03c8 3929FE98 		addi 9,9,-360
 2115              	.LVL146:
 2116              	.L133:
 2117              		.loc 5 228 0
 2118 03cc 3C004330 		lis 0,0x4330
 2119 03d0 6D298000 		xoris 9,9,0x8000
 2120              	.LVL147:
 2121 03d4 9121000C 		stw 9,12(1)
 2122 03d8 3D200000 		lis 9,.LC1@ha
 2123              	.LVL148:
 2124 03dc 90010008 		stw 0,8(1)
 2125 03e0 C0090000 		lfs 0,.LC1@l(9)
 2126 03e4 C8210008 		lfd 1,8(1)
 2127 03e8 807F0194 		lwz 3,404(31)
 2128 03ec FC210028 		fsub 1,1,0
 2129 03f0 FC200818 		frsp 1,1
 2130 03f4 48000001 		bl _ZN8GuiImage8SetAngleEf
 2131              	.LVL149:
 2132              	.LBE2265:
 2133              		.loc 5 229 0
 2134 03f8 80010024 		lwz 0,36(1)
 2135 03fc 83E1001C 		lwz 31,28(1)
 2136              	.LVL150:
 2137 0400 7C0803A6 		mtlr 0
 2138 0404 38210020 		addi 1,1,32
 2139              	.LCFI36:
 2140              		.cfi_def_cfa_offset 0
 2141              		.cfi_restore 31
 2142 0408 4E800020 		blr
 2143              		.cfi_endproc
 2144              	.LFE1608:
 2145              		.size	_ZN14ProgressWindow15AdvanceRotationEv, .-_ZN14ProgressWindow15AdvanceRotationEv
 2146              		.align 2
 2147              		.globl _ZN14ProgressWindow13StartProgressEPKcS1_
 2148              		.type	_ZN14ProgressWindow13StartProgressEPKcS1_, @function
 2149              	_ZN14ProgressWindow13StartProgressEPKcS1_:
 2150              	.LFB1610:
 2151              		.loc 5 276 0
 2152              		.cfi_startproc
 2153              		.cfi_personality 0,__gxx_personality_v0
 2154              		.cfi_lsda 0,.LLSDA1610
 2155              	.LVL151:
 2156 040c 7C0802A6 		mflr 0
 2157 0410 9421FFE0 		stwu 1,-32(1)
 2158              	.LCFI37:
 2159              		.cfi_def_cfa_offset 32
 2160              		.cfi_register 65, 0
 2161 0414 93A10014 		stw 29,20(1)
 2162 0418 7C9D2378 		mr 29,4
 2163              		.cfi_offset 29, -12
 2164 041c 93C10018 		stw 30,24(1)
 2165 0420 7CBE2B78 		mr 30,5
 2166              		.cfi_offset 30, -8
 2167 0424 93E1001C 		stw 31,28(1)
 2168 0428 7C7F1B78 		mr 31,3
 2169              		.cfi_offset 31, -4
 2170 042c 90010024 		stw 0,36(1)
 2171 0430 9361000C 		stw 27,12(1)
 2172 0434 93810010 		stw 28,16(1)
 2173              		.loc 5 277 0
 2174 0438 880300E2 		lbz 0,226(3)
 2175              		.cfi_offset 28, -16
 2176              		.cfi_offset 27, -20
 2177              		.cfi_offset 65, 4
 2178 043c 2F800000 		cmpwi 7,0,0
 2179 0440 409E0010 		bne- 7,.L135
 2180              		.loc 5 277 0 is_stmt 0 discriminator 1
 2181 0444 800300CC 		lwz 0,204(3)
 2182 0448 2F800001 		cmpwi 7,0,1
 2183 044c 419E00B4 		beq- 7,.L143
 2184              	.L135:
 2185              	.LBB2270:
 2186              	.LBB2271:
 2187              		.file 11 "d:/Projects/SaveGameManager/savegame-manager-gx/trunk/source/Prompts/ProgressTask.h"
 2188              		.loc 11 25 0 is_stmt 1
 2189 0450 3F800000 		lis 28,_ZN12ProgressTask8instanceE@ha
 2190 0454 801C0000 		lwz 0,_ZN12ProgressTask8instanceE@l(28)
 2191 0458 2F800000 		cmpwi 7,0,0
 2192              	.LBE2271:
 2193              	.LBE2270:
 2194              		.loc 5 283 0
 2195 045c 38000000 		li 0,0
 2196 0460 901F00CC 		stw 0,204(31)
 2197              	.LBB2276:
 2198              	.LBB2272:
 2199              		.loc 11 25 0
 2200 0464 419E00C8 		beq- 7,.L144
 2201              	.LVL152:
 2202              	.L136:
 2203              	.LBE2272:
 2204              	.LBE2276:
 2205              		.loc 5 287 0
 2206 0468 2F9D0000 		cmpwi 7,29,0
 2207 046c 419E0014 		beq- 7,.L138
 2208              		.loc 5 288 0
 2209 0470 387F00F8 		addi 3,31,248
 2210 0474 7FA4EB78 		mr 4,29
 2211 0478 38A00031 		li 5,49
 2212 047c 48000001 		bl strncpy
 2213              	.L138:
 2214              		.loc 5 290 0
 2215 0480 2F9E0000 		cmpwi 7,30,0
 2216 0484 419E0074 		beq- 7,.L140
 2217              		.loc 5 291 0
 2218 0488 387F012A 		addi 3,31,298
 2219 048c 7FC4F378 		mr 4,30
 2220 0490 38A0004F 		li 5,79
 2221 0494 48000001 		bl strncpy
 2222              	.L141:
 2223              	.LVL153:
 2224              	.LEHB5:
 2225              	.LBB2277:
 2226              	.LBB2278:
 2227              		.file 12 "d:/Projects/SaveGameManager/savegame-manager-gx/trunk/source/Prompts/../GUI/../ImageOper
 2228              		.loc 12 61 0
 2229 0498 48000001 		bl gettime
 2230              	.LBE2278:
 2231              	.LBE2277:
 2232              		.loc 5 301 0
 2233 049c 38000000 		li 0,0
 2234 04a0 981F00E1 		stb 0,225(31)
 2235              		.loc 5 297 0
 2236 04a4 39400000 		li 10,0
 2237              		.loc 5 303 0
 2238 04a8 981F00E4 		stb 0,228(31)
 2239              		.loc 5 297 0
 2240 04ac 39600000 		li 11,0
 2241              		.loc 5 304 0
 2242 04b0 80010024 		lwz 0,36(1)
 2243              		.loc 5 300 0
 2244 04b4 39200001 		li 9,1
 2245              	.LBB2281:
 2246              	.LBB2279:
 2247              		.loc 12 61 0
 2248 04b8 907F00E8 		stw 3,232(31)
 2249              	.LBE2279:
 2250              	.LBE2281:
 2251              		.loc 5 304 0
 2252 04bc 7C0803A6 		mtlr 0
 2253              	.LBB2282:
 2254              	.LBB2280:
 2255              		.loc 12 61 0
 2256 04c0 909F00EC 		stw 4,236(31)
 2257              	.LBE2280:
 2258              	.LBE2282:
 2259              		.loc 5 297 0
 2260 04c4 915F00D0 		stw 10,208(31)
 2261 04c8 917F00D4 		stw 11,212(31)
 2262              		.loc 5 298 0
 2263 04cc 915F00D8 		stw 10,216(31)
 2264 04d0 917F00DC 		stw 11,220(31)
 2265              		.loc 5 300 0
 2266 04d4 993F00E0 		stb 9,224(31)
 2267              		.loc 5 302 0
 2268 04d8 993F00E3 		stb 9,227(31)
 2269              		.loc 5 304 0
 2270 04dc 8361000C 		lwz 27,12(1)
 2271 04e0 83810010 		lwz 28,16(1)
 2272 04e4 83A10014 		lwz 29,20(1)
 2273              	.LVL154:
 2274 04e8 83C10018 		lwz 30,24(1)
 2275              	.LVL155:
 2276 04ec 83E1001C 		lwz 31,28(1)
 2277              	.LVL156:
 2278 04f0 38210020 		addi 1,1,32
 2279              		.cfi_remember_state
 2280              	.LCFI38:
 2281              		.cfi_def_cfa_offset 0
 2282              		.cfi_restore 31
 2283              		.cfi_restore 30
 2284              		.cfi_restore 29
 2285              		.cfi_restore 28
 2286              		.cfi_restore 27
 2287 04f4 4E800020 		blr
 2288              	.LVL157:
 2289              	.L140:
 2290              	.LCFI39:
 2291              		.cfi_restore_state
 2292              		.loc 5 293 0
 2293 04f8 9BDF012A 		stb 30,298(31)
 2294 04fc 4BFFFF9C 		b .L141
 2295              	.L143:
 2296              		.loc 5 279 0 discriminator 4
 2297 0500 8083017C 		lwz 4,380(3)
 2298              	.LBB2283:
 2299              	.LBB2273:
 2300              		.loc 11 25 0 discriminator 4
 2301 0504 3F800000 		lis 28,_ZN12ProgressTask8instanceE@ha
 2302              	.LBE2273:
 2303              	.LBE2283:
 2304              		.loc 5 279 0 discriminator 4
 2305 0508 48000001 		bl _ZN8GuiFrame6AppendEP10GuiElement
 2306              		.loc 5 280 0 discriminator 4
 2307 050c 809F0194 		lwz 4,404(31)
 2308 0510 7FE3FB78 		mr 3,31
 2309 0514 48000001 		bl _ZN8GuiFrame6RemoveEP10GuiElement
 2310              	.LBB2284:
 2311              	.LBB2274:
 2312              		.loc 11 25 0 discriminator 4
 2313 0518 801C0000 		lwz 0,_ZN12ProgressTask8instanceE@l(28)
 2314 051c 2F800000 		cmpwi 7,0,0
 2315              	.LBE2274:
 2316              	.LBE2284:
 2317              		.loc 5 283 0 discriminator 4
 2318 0520 38000000 		li 0,0
 2319 0524 901F00CC 		stw 0,204(31)
 2320              	.LBB2285:
 2321              	.LBB2275:
 2322              		.loc 11 25 0 discriminator 4
 2323 0528 409EFF40 		bne+ 7,.L136
 2324              	.L144:
 2325              		.loc 11 25 0 is_stmt 0
 2326 052c 38600010 		li 3,16
 2327 0530 48000001 		bl _Znwj
 2328              	.LEHE5:
 2329 0534 7C7B1B78 		mr 27,3
 2330              	.LEHB6:
 2331 0538 48000001 		bl _ZN12ProgressTaskC1Ev
 2332              	.LEHE6:
 2333 053c 937C0000 		stw 27,_ZN12ProgressTask8instanceE@l(28)
 2334 0540 4BFFFF28 		b .L136
 2335              	.L142:
 2336 0544 7C7F1B78 		mr 31,3
 2337              	.LVL158:
 2338 0548 7F63DB78 		mr 3,27
 2339 054c 48000001 		bl _ZdlPv
 2340 0550 7FE3FB78 		mr 3,31
 2341              	.LEHB7:
 2342 0554 48000001 		bl _Unwind_Resume
 2343              	.LEHE7:
 2344              	.LBE2275:
 2345              	.LBE2285:
 2346              		.cfi_endproc
 2347              	.LFE1610:
 2348              		.section	.gcc_except_table
 2349              	.LLSDA1610:
 2350 001f FF       		.byte	0xff
 2351 0020 FF       		.byte	0xff
 2352 0021 01       		.byte	0x1
 2353 0022 11       		.uleb128 .LLSDACSE1610-.LLSDACSB1610
 2354              	.LLSDACSB1610:
 2355 0023 8C01     		.uleb128 .LEHB5-.LFB1610
 2356 0025 9C01     		.uleb128 .LEHE5-.LEHB5
 2357 0027 00       		.uleb128 0
 2358 0028 00       		.uleb128 0
 2359 0029 AC02     		.uleb128 .LEHB6-.LFB1610
 2360 002b 04       		.uleb128 .LEHE6-.LEHB6
 2361 002c B802     		.uleb128 .L142-.LFB1610
 2362 002e 00       		.uleb128 0
 2363 002f C802     		.uleb128 .LEHB7-.LFB1610
 2364 0031 04       		.uleb128 .LEHE7-.LEHB7
 2365 0032 00       		.uleb128 0
 2366 0033 00       		.uleb128 0
 2367              	.LLSDACSE1610:
 2368              		.section	".text"
 2369              		.size	_ZN14ProgressWindow13StartProgressEPKcS1_, .-_ZN14ProgressWindow13StartProgressEPKcS1_
 2370              		.align 2
 2371              		.globl _ZN14ProgressWindow13StartThrobberEPKcS1_
 2372              		.type	_ZN14ProgressWindow13StartThrobberEPKcS1_, @function
 2373              	_ZN14ProgressWindow13StartThrobberEPKcS1_:
 2374              	.LFB1611:
 2375              		.loc 5 307 0 is_stmt 1
 2376              		.cfi_startproc
 2377              		.cfi_personality 0,__gxx_personality_v0
 2378              		.cfi_lsda 0,.LLSDA1611
 2379              	.LVL159:
 2380 0558 7C0802A6 		mflr 0
 2381 055c 9421FFE0 		stwu 1,-32(1)
 2382              	.LCFI40:
 2383              		.cfi_def_cfa_offset 32
 2384              		.cfi_register 65, 0
 2385 0560 93A10014 		stw 29,20(1)
 2386 0564 7C9D2378 		mr 29,4
 2387              		.cfi_offset 29, -12
 2388 0568 93C10018 		stw 30,24(1)
 2389 056c 7CBE2B78 		mr 30,5
 2390              		.cfi_offset 30, -8
 2391 0570 93E1001C 		stw 31,28(1)
 2392 0574 7C7F1B78 		mr 31,3
 2393              		.cfi_offset 31, -4
 2394 0578 90010024 		stw 0,36(1)
 2395 057c 9361000C 		stw 27,12(1)
 2396 0580 93810010 		stw 28,16(1)
 2397              		.loc 5 308 0
 2398 0584 880300E2 		lbz 0,226(3)
 2399              		.cfi_offset 28, -16
 2400              		.cfi_offset 27, -20
 2401              		.cfi_offset 65, 4
 2402 0588 2F800000 		cmpwi 7,0,0
 2403 058c 409E0010 		bne- 7,.L146
 2404              		.loc 5 308 0 is_stmt 0 discriminator 1
 2405 0590 800300CC 		lwz 0,204(3)
 2406 0594 2F800000 		cmpwi 7,0,0
 2407 0598 419E00AC 		beq- 7,.L154
 2408              	.L146:
 2409              	.LBB2290:
 2410              	.LBB2291:
 2411              		.loc 11 25 0 is_stmt 1
 2412 059c 3F800000 		lis 28,_ZN12ProgressTask8instanceE@ha
 2413 05a0 801C0000 		lwz 0,_ZN12ProgressTask8instanceE@l(28)
 2414 05a4 2F800000 		cmpwi 7,0,0
 2415              	.LBE2291:
 2416              	.LBE2290:
 2417              		.loc 5 314 0
 2418 05a8 38000001 		li 0,1
 2419 05ac 901F00CC 		stw 0,204(31)
 2420              	.LBB2297:
 2421              	.LBB2292:
 2422              		.loc 11 25 0
 2423 05b0 419E00C0 		beq- 7,.L155
 2424              	.LVL160:
 2425              	.L147:
 2426              	.LBE2292:
 2427              	.LBE2297:
 2428              		.loc 5 318 0
 2429 05b4 2F9D0000 		cmpwi 7,29,0
 2430 05b8 419E0014 		beq- 7,.L149
 2431              		.loc 5 319 0
 2432 05bc 387F00F8 		addi 3,31,248
 2433 05c0 7FA4EB78 		mr 4,29
 2434 05c4 38A00031 		li 5,49
 2435 05c8 48000001 		bl strncpy
 2436              	.L149:
 2437              		.loc 5 321 0
 2438 05cc 2F9E0000 		cmpwi 7,30,0
 2439 05d0 419E00B8 		beq- 7,.L151
 2440              		.loc 5 322 0
 2441 05d4 387F012A 		addi 3,31,298
 2442 05d8 7FC4F378 		mr 4,30
 2443 05dc 38A0004F 		li 5,79
 2444 05e0 48000001 		bl strncpy
 2445              	.L152:
 2446              	.LVL161:
 2447              	.LEHB8:
 2448              	.LBB2298:
 2449              	.LBB2299:
 2450              		.loc 12 61 0
 2451 05e4 48000001 		bl gettime
 2452              	.LBE2299:
 2453              	.LBE2298:
 2454              		.loc 5 332 0
 2455 05e8 38000000 		li 0,0
 2456 05ec 981F00E1 		stb 0,225(31)
 2457              		.loc 5 328 0
 2458 05f0 39400000 		li 10,0
 2459              		.loc 5 334 0
 2460 05f4 981F00E4 		stb 0,228(31)
 2461              		.loc 5 328 0
 2462 05f8 39600000 		li 11,0
 2463              		.loc 5 335 0
 2464 05fc 80010024 		lwz 0,36(1)
 2465              		.loc 5 331 0
 2466 0600 39200001 		li 9,1
 2467              	.LBB2302:
 2468              	.LBB2300:
 2469              		.loc 12 61 0
 2470 0604 907F00E8 		stw 3,232(31)
 2471              	.LBE2300:
 2472              	.LBE2302:
 2473              		.loc 5 335 0
 2474 0608 7C0803A6 		mtlr 0
 2475              	.LBB2303:
 2476              	.LBB2301:
 2477              		.loc 12 61 0
 2478 060c 909F00EC 		stw 4,236(31)
 2479              	.LBE2301:
 2480              	.LBE2303:
 2481              		.loc 5 328 0
 2482 0610 915F00D0 		stw 10,208(31)
 2483 0614 917F00D4 		stw 11,212(31)
 2484              		.loc 5 329 0
 2485 0618 915F00D8 		stw 10,216(31)
 2486 061c 917F00DC 		stw 11,220(31)
 2487              		.loc 5 331 0
 2488 0620 993F00E0 		stb 9,224(31)
 2489              		.loc 5 333 0
 2490 0624 993F00E3 		stb 9,227(31)
 2491              		.loc 5 335 0
 2492 0628 8361000C 		lwz 27,12(1)
 2493 062c 83810010 		lwz 28,16(1)
 2494 0630 83A10014 		lwz 29,20(1)
 2495              	.LVL162:
 2496 0634 83C10018 		lwz 30,24(1)
 2497              	.LVL163:
 2498 0638 83E1001C 		lwz 31,28(1)
 2499              	.LVL164:
 2500 063c 38210020 		addi 1,1,32
 2501              		.cfi_remember_state
 2502              	.LCFI41:
 2503              		.cfi_def_cfa_offset 0
 2504              		.cfi_restore 31
 2505              		.cfi_restore 30
 2506              		.cfi_restore 29
 2507              		.cfi_restore 28
 2508              		.cfi_restore 27
 2509 0640 4E800020 		blr
 2510              	.LVL165:
 2511              	.L154:
 2512              	.LCFI42:
 2513              		.cfi_restore_state
 2514              		.loc 5 310 0 discriminator 4
 2515 0644 8083017C 		lwz 4,380(3)
 2516              	.LVL166:
 2517              	.LBB2304:
 2518              	.LBB2293:
 2519              		.loc 11 25 0 discriminator 4
 2520 0648 3F800000 		lis 28,_ZN12ProgressTask8instanceE@ha
 2521              	.LBE2293:
 2522              	.LBE2304:
 2523              		.loc 5 310 0 discriminator 4
 2524 064c 48000001 		bl _ZN8GuiFrame6RemoveEP10GuiElement
 2525              	.LVL167:
 2526              		.loc 5 311 0 discriminator 4
 2527 0650 809F0194 		lwz 4,404(31)
 2528 0654 7FE3FB78 		mr 3,31
 2529 0658 48000001 		bl _ZN8GuiFrame6AppendEP10GuiElement
 2530              	.LBB2305:
 2531              	.LBB2294:
 2532              		.loc 11 25 0 discriminator 4
 2533 065c 801C0000 		lwz 0,_ZN12ProgressTask8instanceE@l(28)
 2534 0660 2F800000 		cmpwi 7,0,0
 2535              	.LBE2294:
 2536              	.LBE2305:
 2537              		.loc 5 314 0 discriminator 4
 2538 0664 38000001 		li 0,1
 2539 0668 901F00CC 		stw 0,204(31)
 2540              	.LBB2306:
 2541              	.LBB2295:
 2542              		.loc 11 25 0 discriminator 4
 2543 066c 409EFF48 		bne+ 7,.L147
 2544              	.L155:
 2545              		.loc 11 25 0 is_stmt 0
 2546 0670 38600010 		li 3,16
 2547 0674 48000001 		bl _Znwj
 2548              	.LEHE8:
 2549 0678 7C7B1B78 		mr 27,3
 2550              	.LEHB9:
 2551 067c 48000001 		bl _ZN12ProgressTaskC1Ev
 2552              	.LEHE9:
 2553 0680 937C0000 		stw 27,_ZN12ProgressTask8instanceE@l(28)
 2554 0684 4BFFFF30 		b .L147
 2555              	.L151:
 2556              	.LBE2295:
 2557              	.LBE2306:
 2558              		.loc 5 324 0 is_stmt 1
 2559 0688 9BDF012A 		stb 30,298(31)
 2560 068c 4BFFFF58 		b .L152
 2561              	.L153:
 2562 0690 7C7F1B78 		mr 31,3
 2563              	.LVL168:
 2564              	.LBB2307:
 2565              	.LBB2296:
 2566              		.loc 11 25 0
 2567 0694 7F63DB78 		mr 3,27
 2568 0698 48000001 		bl _ZdlPv
 2569 069c 7FE3FB78 		mr 3,31
 2570              	.LEHB10:
 2571 06a0 48000001 		bl _Unwind_Resume
 2572              	.LEHE10:
 2573              	.LBE2296:
 2574              	.LBE2307:
 2575              		.cfi_endproc
 2576              	.LFE1611:
 2577              		.section	.gcc_except_table
 2578              	.LLSDA1611:
 2579 0034 FF       		.byte	0xff
 2580 0035 FF       		.byte	0xff
 2581 0036 01       		.byte	0x1
 2582 0037 11       		.uleb128 .LLSDACSE1611-.LLSDACSB1611
 2583              	.LLSDACSB1611:
 2584 0038 8C01     		.uleb128 .LEHB8-.LFB1611
 2585 003a 9401     		.uleb128 .LEHE8-.LEHB8
 2586 003c 00       		.uleb128 0
 2587 003d 00       		.uleb128 0
 2588 003e A402     		.uleb128 .LEHB9-.LFB1611
 2589 0040 04       		.uleb128 .LEHE9-.LEHB9
 2590 0041 B802     		.uleb128 .L153-.LFB1611
 2591 0043 00       		.uleb128 0
 2592 0044 C802     		.uleb128 .LEHB10-.LFB1611
 2593 0046 04       		.uleb128 .LEHE10-.LEHB10
 2594 0047 00       		.uleb128 0
 2595 0048 00       		.uleb128 0
 2596              	.LLSDACSE1611:
 2597              		.section	".text"
 2598              		.size	_ZN14ProgressWindow13StartThrobberEPKcS1_, .-_ZN14ProgressWindow13StartThrobberEPKcS1_
 2599              		.globl __udivdi3
 2600              		.globl __floatundisf
 2601              		.align 2
 2602              		.globl _ZN14ProgressWindow14FinishProgressEv
 2603              		.type	_ZN14ProgressWindow14FinishProgressEv, @function
 2604              	_ZN14ProgressWindow14FinishProgressEv:
 2605              	.LFB1612:
 2606              		.loc 5 338 0
 2607              		.cfi_startproc
 2608              		.cfi_personality 0,__gxx_personality_v0
 2609              		.cfi_lsda 0,.LLSDA1612
 2610              	.LVL169:
 2611 06a4 9421FFE0 		stwu 1,-32(1)
 2612              	.LCFI43:
 2613              		.cfi_def_cfa_offset 32
 2614 06a8 7C0802A6 		mflr 0
 2615 06ac 93E1001C 		stw 31,28(1)
 2616 06b0 7C7F1B78 		mr 31,3
 2617              		.cfi_offset 31, -4
 2618              		.cfi_register 65, 0
 2619              	.LVL170:
 2620 06b4 90010024 		stw 0,36(1)
 2621 06b8 9361000C 		stw 27,12(1)
 2622 06bc 93810010 		stw 28,16(1)
 2623 06c0 93A10014 		stw 29,20(1)
 2624 06c4 93C10018 		stw 30,24(1)
 2625              	.LEHB11:
 2626              	.LBB2320:
 2627              	.LBB2321:
 2628              		.loc 12 60 0
 2629              		.cfi_offset 30, -8
 2630              		.cfi_offset 29, -12
 2631              		.cfi_offset 28, -16
 2632              		.cfi_offset 27, -20
 2633              		.cfi_offset 65, 4
 2634 06c8 48000001 		bl gettime
 2635              	.LVL171:
 2636 06cc 815F00E8 		lwz 10,232(31)
 2637 06d0 38C00000 		li 6,0
 2638 06d4 817F00EC 		lwz 11,236(31)
 2639 06d8 38A00000 		li 5,0
 2640 06dc 60C6ED4E 		ori 6,6,60750
 2641 06e0 7C8B2010 		subfc 4,11,4
 2642 06e4 7C6A1910 		subfe 3,10,3
 2643 06e8 48000001 		bl __udivdi3
 2644              	.LBE2321:
 2645              	.LBE2320:
 2646              		.loc 5 339 0
 2647 06ec 2B8401F3 		cmplwi 7,4,499
 2648 06f0 419D0028 		bgt- 7,.L164
 2649              	.LVL172:
 2650              	.L156:
 2651              		.loc 5 350 0
 2652 06f4 80010024 		lwz 0,36(1)
 2653 06f8 8361000C 		lwz 27,12(1)
 2654 06fc 7C0803A6 		mtlr 0
 2655 0700 83810010 		lwz 28,16(1)
 2656 0704 83A10014 		lwz 29,20(1)
 2657 0708 83C10018 		lwz 30,24(1)
 2658 070c 83E1001C 		lwz 31,28(1)
 2659              	.LVL173:
 2660 0710 38210020 		addi 1,1,32
 2661              		.cfi_remember_state
 2662              	.LCFI44:
 2663              		.cfi_def_cfa_offset 0
 2664              		.cfi_restore 31
 2665              		.cfi_restore 30
 2666              		.cfi_restore 29
 2667              		.cfi_restore 28
 2668              		.cfi_restore 27
 2669 0714 4E800020 		blr
 2670              	.LVL174:
 2671              	.L164:
 2672              	.LCFI45:
 2673              		.cfi_restore_state
 2674              	.LBB2322:
 2675              	.LBB2323:
 2676              		.loc 11 26 0
 2677 0718 3FC00000 		lis 30,_ZN12ProgressTask8instanceE@ha
 2678              	.LBE2323:
 2679              	.LBE2322:
 2680              	.LBB2327:
 2681              	.LBB2328:
 2682              		.loc 12 61 0
 2683 071c 48000001 		bl gettime
 2684              	.LBE2328:
 2685              	.LBE2327:
 2686              	.LBB2330:
 2687              	.LBB2324:
 2688              		.loc 11 26 0
 2689 0720 813E0000 		lwz 9,_ZN12ProgressTask8instanceE@l(30)
 2690              	.LBE2324:
 2691              	.LBE2330:
 2692              	.LBB2331:
 2693              	.LBB2332:
 2694              		.loc 5 367 0
 2695 0724 38000001 		li 0,1
 2696              		.loc 5 364 0
 2697 0728 815F00D8 		lwz 10,216(31)
 2698              	.LBE2332:
 2699              	.LBE2331:
 2700              	.LBB2335:
 2701              	.LBB2325:
 2702              		.loc 11 26 0
 2703 072c 2F890000 		cmpwi 7,9,0
 2704              	.LBE2325:
 2705              	.LBE2335:
 2706              	.LBB2336:
 2707              	.LBB2333:
 2708              		.loc 5 364 0
 2709 0730 817F00DC 		lwz 11,220(31)
 2710              	.LBE2333:
 2711              	.LBE2336:
 2712              	.LBB2337:
 2713              	.LBB2329:
 2714              		.loc 12 61 0
 2715 0734 907F00F0 		stw 3,240(31)
 2716 0738 909F00F4 		stw 4,244(31)
 2717              	.LVL175:
 2718              	.LBE2329:
 2719              	.LBE2337:
 2720              	.LBB2338:
 2721              	.LBB2334:
 2722              		.loc 5 364 0
 2723 073c 915F00D0 		stw 10,208(31)
 2724 0740 917F00D4 		stw 11,212(31)
 2725              		.loc 5 367 0
 2726 0744 981F00E0 		stb 0,224(31)
 2727              	.LBE2334:
 2728              	.LBE2338:
 2729              	.LBB2339:
 2730              	.LBB2326:
 2731              		.loc 11 26 0
 2732 0748 419E0018 		beq- 7,.L158
 2733 074c 81690000 		lwz 11,0(9)
 2734 0750 7D234B78 		mr 3,9
 2735 0754 800B0004 		lwz 0,4(11)
 2736 0758 7C0903A6 		mtctr 0
 2737 075c 4E800421 		bctrl
 2738              	.L158:
 2739 0760 38000000 		li 0,0
 2740 0764 3F600000 		lis 27,.LC5@ha
 2741 0768 3F800000 		lis 28,.LC6@ha
 2742 076c 901E0000 		stw 0,_ZN12ProgressTask8instanceE@l(30)
 2743 0770 3B7B0010 		la 27,.LC5@l(27)
 2744 0774 3B9C0014 		la 28,.LC6@l(28)
 2745 0778 48000018 		b .L159
 2746              	.LVL176:
 2747              	.L160:
 2748              	.LBE2326:
 2749              	.LBE2339:
 2750              		.loc 5 349 0
 2751 077c 813E0000 		lwz 9,0(30)
 2752 0780 7FC3F378 		mr 3,30
 2753 0784 800900D8 		lwz 0,216(9)
 2754 0788 7C0903A6 		mtctr 0
 2755 078c 4E800421 		bctrl
 2756              	.LVL177:
 2757              	.L159:
 2758              	.LBB2340:
 2759              	.LBB2341:
 2760              		.loc 12 59 0 discriminator 1
 2761 0790 48000001 		bl gettime
 2762 0794 815F00F0 		lwz 10,240(31)
 2763 0798 817F00F4 		lwz 11,244(31)
 2764 079c 7C8B2010 		subfc 4,11,4
 2765 07a0 7C6A1910 		subfe 3,10,3
 2766 07a4 48000001 		bl __floatundisf
 2767 07a8 C1BB0000 		lfs 13,0(27)
 2768              	.LBE2341:
 2769              	.LBE2340:
 2770              		.loc 5 348 0 discriminator 1
 2771 07ac C01C0000 		lfs 0,0(28)
 2772              	.LBB2343:
 2773              	.LBB2342:
 2774              		.loc 12 59 0 discriminator 1
 2775 07b0 EDA16824 		fdivs 13,1,13
 2776              	.LBE2342:
 2777              	.LBE2343:
 2778              		.loc 5 348 0 discriminator 1
 2779 07b4 FF8D0000 		fcmpu 7,13,0
 2780 07b8 4FDCF382 		cror 30,28,30
 2781 07bc 40BEFF38 		bne- 7,.L156
 2782              	.LBB2344:
 2783              	.LBB2345:
 2784              		.loc 6 27 0
 2785 07c0 3FA00000 		lis 29,_ZN11Application8instanceE@ha
 2786 07c4 83DD0000 		lwz 30,_ZN11Application8instanceE@l(29)
 2787 07c8 2F9E0000 		cmpwi 7,30,0
 2788 07cc 409EFFB0 		bne+ 7,.L160
 2789 07d0 38600278 		li 3,632
 2790 07d4 48000001 		bl _Znwj
 2791              	.LEHE11:
 2792 07d8 7C7E1B78 		mr 30,3
 2793              	.LEHB12:
 2794 07dc 48000001 		bl _ZN11ApplicationC1Ev
 2795              	.LEHE12:
 2796 07e0 93DD0000 		stw 30,_ZN11Application8instanceE@l(29)
 2797 07e4 4BFFFF98 		b .L160
 2798              	.L163:
 2799 07e8 7C7F1B78 		mr 31,3
 2800              	.LVL178:
 2801 07ec 7FC3F378 		mr 3,30
 2802 07f0 48000001 		bl _ZdlPv
 2803 07f4 7FE3FB78 		mr 3,31
 2804              	.LEHB13:
 2805 07f8 48000001 		bl _Unwind_Resume
 2806              	.LEHE13:
 2807              	.LBE2345:
 2808              	.LBE2344:
 2809              		.cfi_endproc
 2810              	.LFE1612:
 2811              		.section	.gcc_except_table
 2812              	.LLSDA1612:
 2813 0049 FF       		.byte	0xff
 2814 004a FF       		.byte	0xff
 2815 004b 01       		.byte	0x1
 2816 004c 10       		.uleb128 .LLSDACSE1612-.LLSDACSB1612
 2817              	.LLSDACSB1612:
 2818 004d 24       		.uleb128 .LEHB11-.LFB1612
 2819 004e 9002     		.uleb128 .LEHE11-.LEHB11
 2820 0050 00       		.uleb128 0
 2821 0051 00       		.uleb128 0
 2822 0052 B802     		.uleb128 .LEHB12-.LFB1612
 2823 0054 04       		.uleb128 .LEHE12-.LEHB12
 2824 0055 C402     		.uleb128 .L163-.LFB1612
 2825 0057 00       		.uleb128 0
 2826 0058 D402     		.uleb128 .LEHB13-.LFB1612
 2827 005a 04       		.uleb128 .LEHE13-.LEHB13
 2828 005b 00       		.uleb128 0
 2829 005c 00       		.uleb128 0
 2830              	.LLSDACSE1612:
 2831              		.section	".text"
 2832              		.size	_ZN14ProgressWindow14FinishProgressEv, .-_ZN14ProgressWindow14FinishProgressEv
 2833              		.align 2
 2834              		.globl _ZN14ProgressWindow12StopProgressEv
 2835              		.type	_ZN14ProgressWindow12StopProgressEv, @function
 2836              	_ZN14ProgressWindow12StopProgressEv:
 2837              	.LFB1613:
 2838              		.loc 5 353 0
 2839              		.cfi_startproc
 2840              	.LVL179:
 2841 07fc 9421FFF0 		stwu 1,-16(1)
 2842              	.LCFI46:
 2843              		.cfi_def_cfa_offset 16
 2844 0800 7C0802A6 		mflr 0
 2845              		.loc 5 355 0
 2846 0804 39600001 		li 11,1
 2847              		.loc 5 353 0
 2848 0808 93E1000C 		stw 31,12(1)
 2849              	.LBB2346:
 2850              	.LBB2347:
 2851              		.loc 11 26 0
 2852 080c 3FE00000 		lis 31,_ZN12ProgressTask8instanceE@ha
 2853              		.cfi_offset 31, -4
 2854              		.cfi_register 65, 0
 2855 0810 813F0000 		lwz 9,_ZN12ProgressTask8instanceE@l(31)
 2856              	.LBE2347:
 2857              	.LBE2346:
 2858              		.loc 5 353 0
 2859 0814 90010014 		stw 0,20(1)
 2860              		.loc 5 354 0
 2861 0818 38000000 		li 0,0
 2862              		.cfi_offset 65, 4
 2863              	.LBB2350:
 2864              	.LBB2348:
 2865              		.loc 11 26 0
 2866 081c 2F890000 		cmpwi 7,9,0
 2867              	.LBE2348:
 2868              	.LBE2350:
 2869              		.loc 5 354 0
 2870 0820 980300E3 		stb 0,227(3)
 2871              		.loc 5 355 0
 2872 0824 996300E4 		stb 11,228(3)
 2873              		.loc 5 356 0
 2874 0828 980300F8 		stb 0,248(3)
 2875              		.loc 5 357 0
 2876 082c 9803012A 		stb 0,298(3)
 2877              	.LBB2351:
 2878              	.LBB2349:
 2879              		.loc 11 26 0
 2880 0830 419E0018 		beq- 7,.L166
 2881 0834 81690000 		lwz 11,0(9)
 2882 0838 7D234B78 		mr 3,9
 2883              	.LVL180:
 2884 083c 800B0004 		lwz 0,4(11)
 2885 0840 7C0903A6 		mtctr 0
 2886 0844 4E800421 		bctrl
 2887              	.L166:
 2888 0848 38000000 		li 0,0
 2889 084c 901F0000 		stw 0,_ZN12ProgressTask8instanceE@l(31)
 2890              	.LBE2349:
 2891              	.LBE2351:
 2892              		.loc 5 360 0
 2893 0850 80010014 		lwz 0,20(1)
 2894 0854 83E1000C 		lwz 31,12(1)
 2895 0858 7C0803A6 		mtlr 0
 2896 085c 38210010 		addi 1,1,16
 2897              	.LCFI47:
 2898              		.cfi_def_cfa_offset 0
 2899              		.cfi_restore 31
 2900 0860 4E800020 		blr
 2901              		.cfi_endproc
 2902              	.LFE1613:
 2903              		.size	_ZN14ProgressWindow12StopProgressEv, .-_ZN14ProgressWindow12StopProgressEv
 2904              		.align 2
 2905              		.globl _ZN14ProgressWindow12ShowProgressERKyS1_
 2906              		.type	_ZN14ProgressWindow12ShowProgressERKyS1_, @function
 2907              	_ZN14ProgressWindow12ShowProgressERKyS1_:
 2908              	.LFB1614:
 2909              		.loc 5 363 0
 2910              		.cfi_startproc
 2911              	.LVL181:
 2912              		.loc 5 364 0
 2913 0864 81240000 		lwz 9,0(4)
 2914 0868 80050000 		lwz 0,0(5)
 2915 086c 81440004 		lwz 10,4(4)
 2916 0870 7F804840 		cmplw 7,0,9
 2917 0874 81650004 		lwz 11,4(5)
 2918 0878 419D0038 		bgt- 7,.L169
 2919 087c 7F804800 		cmpw 7,0,9
 2920 0880 419E0028 		beq- 7,.L170
 2921              	.L168:
 2922 0884 900300D0 		stw 0,208(3)
 2923              		.loc 5 367 0
 2924 0888 38000001 		li 0,1
 2925              		.loc 5 364 0
 2926 088c 916300D4 		stw 11,212(3)
 2927              		.loc 5 368 0
 2928              		.loc 5 365 0
 2929 0890 81450000 		lwz 10,0(5)
 2930 0894 81650004 		lwz 11,4(5)
 2931              		.loc 5 367 0
 2932 0898 980300E0 		stb 0,224(3)
 2933              		.loc 5 365 0
 2934 089c 914300D8 		stw 10,216(3)
 2935 08a0 916300DC 		stw 11,220(3)
 2936              		.loc 5 368 0
 2937 08a4 4E800020 		blr
 2938              	.L170:
 2939              		.loc 5 364 0
 2940 08a8 7F8B5040 		cmplw 7,11,10
 2941 08ac 40BDFFD8 		ble- 7,.L168
 2942              	.L169:
 2943 08b0 7D4B5378 		mr 11,10
 2944 08b4 7D204B78 		mr 0,9
 2945 08b8 900300D0 		stw 0,208(3)
 2946              		.loc 5 367 0
 2947 08bc 38000001 		li 0,1
 2948              		.loc 5 364 0
 2949 08c0 916300D4 		stw 11,212(3)
 2950              		.loc 5 368 0
 2951              		.loc 5 365 0
 2952 08c4 81450000 		lwz 10,0(5)
 2953 08c8 81650004 		lwz 11,4(5)
 2954              		.loc 5 367 0
 2955 08cc 980300E0 		stb 0,224(3)
 2956              		.loc 5 365 0
 2957 08d0 914300D8 		stw 10,216(3)
 2958 08d4 916300DC 		stw 11,220(3)
 2959              		.loc 5 368 0
 2960 08d8 4E800020 		blr
 2961              		.cfi_endproc
 2962              	.LFE1614:
 2963              		.size	_ZN14ProgressWindow12ShowProgressERKyS1_, .-_ZN14ProgressWindow12ShowProgressERKyS1_
 2964              		.align 2
 2965              		.globl _ZN14ProgressWindow12ShowProgressERKyS1_PKc
 2966              		.type	_ZN14ProgressWindow12ShowProgressERKyS1_PKc, @function
 2967              	_ZN14ProgressWindow12ShowProgressERKyS1_PKc:
 2968              	.LFB1615:
 2969              		.loc 5 371 0
 2970              		.cfi_startproc
 2971              	.LVL182:
 2972              		.loc 5 372 0
 2973 08dc 2C060000 		cmpwi 0,6,0
 2974              		.loc 5 371 0
 2975 08e0 7C0802A6 		mflr 0
 2976 08e4 9421FFE8 		stwu 1,-24(1)
 2977              	.LCFI48:
 2978              		.cfi_def_cfa_offset 24
 2979              		.cfi_register 65, 0
 2980 08e8 93A1000C 		stw 29,12(1)
 2981 08ec 7C9D2378 		mr 29,4
 2982              		.cfi_offset 29, -12
 2983 08f0 93C10010 		stw 30,16(1)
 2984 08f4 7CBE2B78 		mr 30,5
 2985              		.cfi_offset 30, -8
 2986 08f8 93E10014 		stw 31,20(1)
 2987 08fc 7C7F1B78 		mr 31,3
 2988              		.cfi_offset 31, -4
 2989 0900 9001001C 		stw 0,28(1)
 2990              		.loc 5 372 0
 2991 0904 418200BC 		beq- 0,.L172
 2992              		.cfi_offset 65, 4
 2993              		.loc 5 373 0
 2994 0908 3863012A 		addi 3,3,298
 2995              	.LVL183:
 2996 090c 7CC43378 		mr 4,6
 2997              	.LVL184:
 2998 0910 38A0004F 		li 5,79
 2999              	.LVL185:
 3000 0914 48000001 		bl strncpy
 3001              	.LVL186:
 3002              	.L173:
 3003              	.LBB2352:
 3004              	.LBB2353:
 3005              		.loc 5 364 0
 3006 0918 813D0000 		lwz 9,0(29)
 3007 091c 801E0000 		lwz 0,0(30)
 3008 0920 815D0004 		lwz 10,4(29)
 3009 0924 7F804840 		cmplw 7,0,9
 3010 0928 817E0004 		lwz 11,4(30)
 3011 092c 419D0050 		bgt- 7,.L175
 3012 0930 7F804800 		cmpw 7,0,9
 3013 0934 419E0040 		beq- 7,.L176
 3014              	.L174:
 3015 0938 901F00D0 		stw 0,208(31)
 3016              		.loc 5 367 0
 3017 093c 38000001 		li 0,1
 3018              		.loc 5 364 0
 3019 0940 917F00D4 		stw 11,212(31)
 3020              	.LBE2353:
 3021              	.LBE2352:
 3022              		.loc 5 378 0
 3023 0944 83A1000C 		lwz 29,12(1)
 3024              	.LVL187:
 3025              	.LBB2361:
 3026              	.LBB2354:
 3027              		.loc 5 365 0
 3028 0948 815E0000 		lwz 10,0(30)
 3029 094c 817E0004 		lwz 11,4(30)
 3030              		.loc 5 367 0
 3031 0950 981F00E0 		stb 0,224(31)
 3032              	.LBE2354:
 3033              	.LBE2361:
 3034              		.loc 5 378 0
 3035 0954 8001001C 		lwz 0,28(1)
 3036              	.LBB2362:
 3037              	.LBB2355:
 3038              		.loc 5 365 0
 3039 0958 915F00D8 		stw 10,216(31)
 3040              	.LBE2355:
 3041              	.LBE2362:
 3042              		.loc 5 378 0
 3043 095c 7C0803A6 		mtlr 0
 3044              	.LBB2363:
 3045              	.LBB2356:
 3046              		.loc 5 365 0
 3047 0960 917F00DC 		stw 11,220(31)
 3048              	.LBE2356:
 3049              	.LBE2363:
 3050              		.loc 5 378 0
 3051 0964 83C10010 		lwz 30,16(1)
 3052              	.LVL188:
 3053 0968 83E10014 		lwz 31,20(1)
 3054              	.LVL189:
 3055 096c 38210018 		addi 1,1,24
 3056              		.cfi_remember_state
 3057              	.LCFI49:
 3058              		.cfi_def_cfa_offset 0
 3059              		.cfi_restore 31
 3060              		.cfi_restore 30
 3061              		.cfi_restore 29
 3062 0970 4E800020 		blr
 3063              	.LVL190:
 3064              	.L176:
 3065              	.LCFI50:
 3066              		.cfi_restore_state
 3067              	.LBB2364:
 3068              	.LBB2357:
 3069              		.loc 5 364 0
 3070 0974 7F8B5040 		cmplw 7,11,10
 3071 0978 40BDFFC0 		ble- 7,.L174
 3072              	.L175:
 3073 097c 7D4B5378 		mr 11,10
 3074 0980 7D204B78 		mr 0,9
 3075 0984 901F00D0 		stw 0,208(31)
 3076              		.loc 5 367 0
 3077 0988 38000001 		li 0,1
 3078              		.loc 5 364 0
 3079 098c 917F00D4 		stw 11,212(31)
 3080              	.LBE2357:
 3081              	.LBE2364:
 3082              		.loc 5 378 0
 3083 0990 83A1000C 		lwz 29,12(1)
 3084              	.LVL191:
 3085              	.LBB2365:
 3086              	.LBB2358:
 3087              		.loc 5 365 0
 3088 0994 815E0000 		lwz 10,0(30)
 3089 0998 817E0004 		lwz 11,4(30)
 3090              		.loc 5 367 0
 3091 099c 981F00E0 		stb 0,224(31)
 3092              	.LBE2358:
 3093              	.LBE2365:
 3094              		.loc 5 378 0
 3095 09a0 8001001C 		lwz 0,28(1)
 3096              	.LBB2366:
 3097              	.LBB2359:
 3098              		.loc 5 365 0
 3099 09a4 915F00D8 		stw 10,216(31)
 3100              	.LBE2359:
 3101              	.LBE2366:
 3102              		.loc 5 378 0
 3103 09a8 7C0803A6 		mtlr 0
 3104              	.LBB2367:
 3105              	.LBB2360:
 3106              		.loc 5 365 0
 3107 09ac 917F00DC 		stw 11,220(31)
 3108              	.LBE2360:
 3109              	.LBE2367:
 3110              		.loc 5 378 0
 3111 09b0 83C10010 		lwz 30,16(1)
 3112              	.LVL192:
 3113 09b4 83E10014 		lwz 31,20(1)
 3114              	.LVL193:
 3115 09b8 38210018 		addi 1,1,24
 3116              		.cfi_remember_state
 3117              		.cfi_restore 29
 3118              		.cfi_restore 30
 3119              		.cfi_restore 31
 3120              	.LCFI51:
 3121              		.cfi_def_cfa_offset 0
 3122 09bc 4E800020 		blr
 3123              	.LVL194:
 3124              	.L172:
 3125              	.LCFI52:
 3126              		.cfi_restore_state
 3127              		.loc 5 375 0
 3128 09c0 98C3012A 		stb 6,298(3)
 3129 09c4 4BFFFF54 		b .L173
 3130              		.cfi_endproc
 3131              	.LFE1615:
 3132              		.size	_ZN14ProgressWindow12ShowProgressERKyS1_PKc, .-_ZN14ProgressWindow12ShowProgressERKyS1_PKc
 3133              		.align 2
 3134              		.globl _ZN14ProgressWindow12ShowThrobberEPKc
 3135              		.type	_ZN14ProgressWindow12ShowThrobberEPKc, @function
 3136              	_ZN14ProgressWindow12ShowThrobberEPKc:
 3137              	.LFB1616:
 3138              		.loc 5 381 0
 3139              		.cfi_startproc
 3140              	.LVL195:
 3141 09c8 7C0802A6 		mflr 0
 3142 09cc 9421FFF0 		stwu 1,-16(1)
 3143              	.LCFI53:
 3144              		.cfi_def_cfa_offset 16
 3145              		.cfi_register 65, 0
 3146 09d0 93E1000C 		stw 31,12(1)
 3147 09d4 7C7F1B78 		mr 31,3
 3148              		.cfi_offset 31, -4
 3149 09d8 90010014 		stw 0,20(1)
 3150              		.loc 5 382 0
 3151 09dc 7C802379 		mr. 0,4
 3152              		.cfi_offset 65, 4
 3153 09e0 4182002C 		beq- 0,.L178
 3154              	.LVL196:
 3155              		.loc 5 383 0
 3156 09e4 3863012A 		addi 3,3,298
 3157              	.LVL197:
 3158 09e8 38A0004F 		li 5,79
 3159 09ec 48000001 		bl strncpy
 3160              	.LVL198:
 3161              		.loc 5 387 0
 3162 09f0 38000001 		li 0,1
 3163 09f4 981F00E0 		stb 0,224(31)
 3164              		.loc 5 388 0
 3165 09f8 80010014 		lwz 0,20(1)
 3166 09fc 83E1000C 		lwz 31,12(1)
 3167              	.LVL199:
 3168 0a00 7C0803A6 		mtlr 0
 3169 0a04 38210010 		addi 1,1,16
 3170              		.cfi_remember_state
 3171              	.LCFI54:
 3172              		.cfi_def_cfa_offset 0
 3173              		.cfi_restore 31
 3174 0a08 4E800020 		blr
 3175              	.LVL200:
 3176              	.L178:
 3177              	.LCFI55:
 3178              		.cfi_restore_state
 3179              		.loc 5 385 0
 3180 0a0c 9803012A 		stb 0,298(3)
 3181              		.loc 5 387 0
 3182 0a10 38000001 		li 0,1
 3183              	.LVL201:
 3184 0a14 981F00E0 		stb 0,224(31)
 3185              		.loc 5 388 0
 3186 0a18 80010014 		lwz 0,20(1)
 3187 0a1c 83E1000C 		lwz 31,12(1)
 3188 0a20 7C0803A6 		mtlr 0
 3189 0a24 38210010 		addi 1,1,16
 3190              		.cfi_restore 31
 3191              	.LCFI56:
 3192              		.cfi_def_cfa_offset 0
 3193 0a28 4E800020 		blr
 3194              		.cfi_endproc
 3195              	.LFE1616:
 3196              		.size	_ZN14ProgressWindow12ShowThrobberEPKc, .-_ZN14ProgressWindow12ShowThrobberEPKc
 3197              		.align 2
 3198              		.globl _ZN14ProgressWindow8SetTitleEPKc
 3199              		.type	_ZN14ProgressWindow8SetTitleEPKc, @function
 3200              	_ZN14ProgressWindow8SetTitleEPKc:
 3201              	.LFB1617:
 3202              		.loc 5 391 0
 3203              		.cfi_startproc
 3204              	.LVL202:
 3205 0a2c 7C0802A6 		mflr 0
 3206 0a30 9421FFF8 		stwu 1,-8(1)
 3207              	.LCFI57:
 3208              		.cfi_def_cfa_offset 8
 3209              		.cfi_register 65, 0
 3210 0a34 9001000C 		stw 0,12(1)
 3211              		.loc 5 392 0
 3212 0a38 7C802379 		mr. 0,4
 3213              		.cfi_offset 65, 4
 3214 0a3c 41820020 		beq- 0,.L181
 3215              	.LVL203:
 3216              		.loc 5 393 0
 3217 0a40 386300F8 		addi 3,3,248
 3218              	.LVL204:
 3219 0a44 38A00031 		li 5,49
 3220 0a48 48000001 		bl strncpy
 3221              	.LVL205:
 3222              		.loc 5 396 0
 3223 0a4c 8001000C 		lwz 0,12(1)
 3224 0a50 38210008 		addi 1,1,8
 3225              		.cfi_remember_state
 3226              	.LCFI58:
 3227              		.cfi_def_cfa_offset 0
 3228 0a54 7C0803A6 		mtlr 0
 3229 0a58 4E800020 		blr
 3230              	.LVL206:
 3231              	.L181:
 3232              	.LCFI59:
 3233              		.cfi_restore_state
 3234              		.loc 5 395 0
 3235 0a5c 980300F8 		stb 0,248(3)
 3236              		.loc 5 396 0
 3237 0a60 8001000C 		lwz 0,12(1)
 3238              	.LVL207:
 3239 0a64 38210008 		addi 1,1,8
 3240              	.LCFI60:
 3241              		.cfi_def_cfa_offset 0
 3242 0a68 7C0803A6 		mtlr 0
 3243 0a6c 4E800020 		blr
 3244              		.cfi_endproc
 3245              	.LFE1617:
 3246              		.size	_ZN14ProgressWindow8SetTitleEPKc, .-_ZN14ProgressWindow8SetTitleEPKc
 3247              		.align 2
 3248              		.globl _ZN14ProgressWindow10SetMessageEPKc
 3249              		.type	_ZN14ProgressWindow10SetMessageEPKc, @function
 3250              	_ZN14ProgressWindow10SetMessageEPKc:
 3251              	.LFB1618:
 3252              		.loc 5 399 0
 3253              		.cfi_startproc
 3254              	.LVL208:
 3255 0a70 7C0802A6 		mflr 0
 3256 0a74 9421FFF8 		stwu 1,-8(1)
 3257              	.LCFI61:
 3258              		.cfi_def_cfa_offset 8
 3259              		.cfi_register 65, 0
 3260 0a78 9001000C 		stw 0,12(1)
 3261              		.loc 5 400 0
 3262 0a7c 7C802379 		mr. 0,4
 3263              		.cfi_offset 65, 4
 3264 0a80 41820020 		beq- 0,.L184
 3265              	.LVL209:
 3266              		.loc 5 401 0
 3267 0a84 3863012A 		addi 3,3,298
 3268              	.LVL210:
 3269 0a88 38A0004F 		li 5,79
 3270 0a8c 48000001 		bl strncpy
 3271              	.LVL211:
 3272              		.loc 5 404 0
 3273 0a90 8001000C 		lwz 0,12(1)
 3274 0a94 38210008 		addi 1,1,8
 3275              		.cfi_remember_state
 3276              	.LCFI62:
 3277              		.cfi_def_cfa_offset 0
 3278 0a98 7C0803A6 		mtlr 0
 3279 0a9c 4E800020 		blr
 3280              	.LVL212:
 3281              	.L184:
 3282              	.LCFI63:
 3283              		.cfi_restore_state
 3284              		.loc 5 403 0
 3285 0aa0 9803012A 		stb 0,298(3)
 3286              		.loc 5 404 0
 3287 0aa4 8001000C 		lwz 0,12(1)
 3288              	.LVL213:
 3289 0aa8 38210008 		addi 1,1,8
 3290              	.LCFI64:
 3291              		.cfi_def_cfa_offset 0
 3292 0aac 7C0803A6 		mtlr 0
 3293 0ab0 4E800020 		blr
 3294              		.cfi_endproc
 3295              	.LFE1618:
 3296              		.size	_ZN14ProgressWindow10SetMessageEPKc, .-_ZN14ProgressWindow10SetMessageEPKc
 3297              		.section	.text._ZNSt6vectorIP10GuiElementSaIS1_EE13_M_insert_auxEN9__gnu_cxx17__normal_iteratorIPS
 3298              		.align 2
 3299              		.weak	_ZNSt6vectorIP10GuiElementSaIS1_EE13_M_insert_auxEN9__gnu_cxx17__normal_iteratorIPS1_S3_EERK
 3300              		.type	_ZNSt6vectorIP10GuiElementSaIS1_EE13_M_insert_auxEN9__gnu_cxx17__normal_iteratorIPS1_S3_EERK
 3301              	_ZNSt6vectorIP10GuiElementSaIS1_EE13_M_insert_auxEN9__gnu_cxx17__normal_iteratorIPS1_S3_EERKS1_:
 3302              	.LFB1700:
 3303              		.loc 9 300 0
 3304              		.cfi_startproc
 3305              	.LVL214:
 3306 0000 7C0802A6 		mflr 0
 3307 0004 9421FFD8 		stwu 1,-40(1)
 3308              	.LCFI65:
 3309              		.cfi_def_cfa_offset 40
 3310              		.cfi_register 65, 0
 3311 0008 93610014 		stw 27,20(1)
 3312 000c 9001002C 		stw 0,44(1)
 3313 0010 93C10020 		stw 30,32(1)
 3314              	.LBB2430:
 3315              		.loc 9 304 0
 3316 0014 83630004 		lwz 27,4(3)
 3317              		.cfi_offset 30, -8
 3318              		.cfi_offset 65, 4
 3319              		.cfi_offset 27, -20
 3320 0018 80030008 		lwz 0,8(3)
 3321              	.LBE2430:
 3322              		.loc 9 300 0
 3323 001c 93E10024 		stw 31,36(1)
 3324 0020 7C7F1B78 		mr 31,3
 3325              		.cfi_offset 31, -4
 3326              	.LBB2555:
 3327              		.loc 9 304 0
 3328 0024 7F9B0000 		cmpw 7,27,0
 3329              	.LBE2555:
 3330              		.loc 9 300 0
 3331 0028 93410010 		stw 26,16(1)
 3332 002c 93810018 		stw 28,24(1)
 3333 0030 93A1001C 		stw 29,28(1)
 3334              		.loc 9 300 0
 3335 0034 83C40000 		lwz 30,0(4)
 3336              	.LVL215:
 3337              	.LBB2556:
 3338              		.loc 9 304 0
 3339 0038 419E0078 		beq- 7,.L187
 3340              		.cfi_offset 29, -12
 3341              		.cfi_offset 28, -16
 3342              		.cfi_offset 26, -24
 3343              	.LVL216:
 3344              	.LBB2431:
 3345              	.LBB2432:
 3346              	.LBB2433:
 3347              		.file 13 "d:\\devkitpro\\devkitppc\\bin\\../lib/gcc/powerpc-eabi/4.6.3/../../../../powerpc-eabi/in
 3348              		.loc 13 108 0
 3349 003c 2F9B0000 		cmpwi 7,27,0
 3350 0040 38600000 		li 3,0
 3351              	.LVL217:
 3352 0044 419E0010 		beq- 7,.L188
 3353 0048 801BFFFC 		lwz 0,-4(27)
 3354 004c 901B0000 		stw 0,0(27)
 3355 0050 807F0004 		lwz 3,4(31)
 3356              	.L188:
 3357              	.LBE2433:
 3358              	.LBE2432:
 3359              		.loc 9 313 0
 3360 0054 3803FFFC 		addi 0,3,-4
 3361              		.loc 9 309 0
 3362 0058 39230004 		addi 9,3,4
 3363              	.LBB2434:
 3364              	.LBB2435:
 3365              	.LBB2436:
 3366              	.LBB2437:
 3367              	.LBB2438:
 3368              	.LBB2439:
 3369              		.loc 10 559 0
 3370 005c 7C1E0050 		subf 0,30,0
 3371              	.LBE2439:
 3372              	.LBE2438:
 3373              	.LBE2437:
 3374              	.LBE2436:
 3375              	.LBE2435:
 3376              	.LBE2434:
 3377              		.loc 9 309 0
 3378 0060 913F0004 		stw 9,4(31)
 3379              	.LBB2455:
 3380              	.LBB2452:
 3381              	.LBB2449:
 3382              	.LBB2446:
 3383              	.LBB2443:
 3384              	.LBB2440:
 3385              		.loc 10 560 0
 3386 0064 7C001671 		srawi. 0,0,2
 3387              	.LBE2440:
 3388              	.LBE2443:
 3389              	.LBE2446:
 3390              	.LBE2449:
 3391              	.LBE2452:
 3392              	.LBE2455:
 3393              		.loc 9 311 0
 3394 0068 83E50000 		lwz 31,0(5)
 3395              	.LVL218:
 3396              	.LBB2456:
 3397              	.LBB2453:
 3398              	.LBB2450:
 3399              	.LBB2447:
 3400              	.LBB2444:
 3401              	.LBB2441:
 3402              		.loc 10 560 0
 3403 006c 40820030 		bne- 0,.L203
 3404              	.LVL219:
 3405              	.L189:
 3406              	.LBE2441:
 3407              	.LBE2444:
 3408              	.LBE2447:
 3409              	.LBE2450:
 3410              	.LBE2453:
 3411              	.LBE2456:
 3412              	.LBE2431:
 3413              	.LBE2556:
 3414              		.loc 9 373 0
 3415 0070 8001002C 		lwz 0,44(1)
 3416              	.LBB2557:
 3417              	.LBB2458:
 3418              		.loc 9 317 0
 3419 0074 93FE0000 		stw 31,0(30)
 3420              	.LBE2458:
 3421              	.LBE2557:
 3422              		.loc 9 373 0
 3423 0078 7C0803A6 		mtlr 0
 3424 007c 83410010 		lwz 26,16(1)
 3425 0080 83610014 		lwz 27,20(1)
 3426              	.LVL220:
 3427 0084 83810018 		lwz 28,24(1)
 3428 0088 83A1001C 		lwz 29,28(1)
 3429 008c 83C10020 		lwz 30,32(1)
 3430              	.LVL221:
 3431 0090 83E10024 		lwz 31,36(1)
 3432              	.LVL222:
 3433 0094 38210028 		addi 1,1,40
 3434              		.cfi_remember_state
 3435              	.LCFI66:
 3436              		.cfi_def_cfa_offset 0
 3437              		.cfi_restore 31
 3438              		.cfi_restore 30
 3439              		.cfi_restore 29
 3440              		.cfi_restore 28
 3441              		.cfi_restore 27
 3442              		.cfi_restore 26
 3443 0098 4E800020 		blr
 3444              	.LVL223:
 3445              	.L203:
 3446              	.LCFI67:
 3447              		.cfi_restore_state
 3448              	.LBB2558:
 3449              	.LBB2459:
 3450              	.LBB2457:
 3451              	.LBB2454:
 3452              	.LBB2451:
 3453              	.LBB2448:
 3454              	.LBB2445:
 3455              	.LBB2442:
 3456              		.loc 10 561 0
 3457 009c 5405103A 		slwi 5,0,2
 3458              	.LVL224:
 3459 00a0 7FC4F378 		mr 4,30
 3460 00a4 7C651850 		subf 3,5,3
 3461              	.LVL225:
 3462 00a8 48000001 		bl memmove
 3463              	.LVL226:
 3464 00ac 4BFFFFC4 		b .L189
 3465              	.LVL227:
 3466              	.L187:
 3467              	.LBE2442:
 3468              	.LBE2445:
 3469              	.LBE2448:
 3470              	.LBE2451:
 3471              	.LBE2454:
 3472              	.LBE2457:
 3473              	.LBE2459:
 3474              	.LBB2460:
 3475              	.LBB2461:
 3476              	.LBB2462:
 3477              	.LBB2463:
 3478              	.LBB2464:
 3479              		.loc 7 571 0
 3480 00b0 83830000 		lwz 28,0(3)
 3481 00b4 7F7CD850 		subf 27,28,27
 3482              	.LBE2464:
 3483              	.LBE2463:
 3484              	.LBB2465:
 3485              	.LBB2466:
 3486              		.loc 10 215 0
 3487 00b8 7F7B1671 		srawi. 27,27,2
 3488 00bc 418200E8 		beq- 0,.L191
 3489              	.LBE2466:
 3490              	.LBE2465:
 3491              		.loc 7 1244 0
 3492 00c0 5760083C 		slwi 0,27,1
 3493              	.LVL228:
 3494              		.loc 7 1245 0
 3495 00c4 7F9B0040 		cmplw 7,27,0
 3496 00c8 409D00EC 		ble- 7,.L204
 3497              	.L192:
 3498              	.LVL229:
 3499              	.LBE2462:
 3500              	.LBE2461:
 3501              	.LBB2469:
 3502              	.LBB2470:
 3503              		.loc 8 892 0
 3504 00cc 7F9CF050 		subf 28,28,30
 3505              	.LBE2470:
 3506              	.LBE2469:
 3507              		.loc 9 326 0
 3508 00d0 3B60FFFC 		li 27,-4
 3509              	.LBB2476:
 3510              	.LBB2471:
 3511              		.loc 8 892 0
 3512 00d4 7F9C1670 		srawi 28,28,2
 3513              	.LVL230:
 3514              	.L198:
 3515              	.LBE2471:
 3516              	.LBE2476:
 3517              	.LBB2477:
 3518              	.LBB2478:
 3519              	.LBB2479:
 3520              	.LBB2480:
 3521              		.loc 13 92 0
 3522 00d8 7F63DB78 		mr 3,27
 3523              	.LVL231:
 3524 00dc 90A10008 		stw 5,8(1)
 3525 00e0 48000001 		bl _Znwj
 3526              	.LVL232:
 3527 00e4 80A10008 		lwz 5,8(1)
 3528 00e8 7C7D1B78 		mr 29,3
 3529              	.L193:
 3530              	.LVL233:
 3531              	.LBE2480:
 3532              	.LBE2479:
 3533              	.LBE2478:
 3534              	.LBE2477:
 3535              		.loc 9 335 0
 3536 00ec 579C103A 		slwi 28,28,2
 3537              	.LVL234:
 3538 00f0 7C1DE214 		add 0,29,28
 3539              	.LVL235:
 3540              	.LBB2483:
 3541              	.LBB2484:
 3542              		.loc 13 108 0
 3543 00f4 2F800000 		cmpwi 7,0,0
 3544 00f8 419E000C 		beq- 7,.L194
 3545 00fc 80050000 		lwz 0,0(5)
 3546              	.LVL236:
 3547 0100 7C1DE12E 		stwx 0,29,28
 3548              	.L194:
 3549              	.LVL237:
 3550              	.LBE2484:
 3551              	.LBE2483:
 3552              		.loc 9 343 0
 3553 0104 809F0000 		lwz 4,0(31)
 3554              	.LVL238:
 3555              	.LBB2485:
 3556              	.LBB2486:
 3557              	.LBB2487:
 3558              	.LBB2488:
 3559              	.LBB2489:
 3560              	.LBB2490:
 3561              	.LBB2491:
 3562              	.LBB2492:
 3563              	.LBB2493:
 3564              	.LBB2494:
 3565              	.LBB2495:
 3566              		.loc 10 365 0
 3567 0108 3B800000 		li 28,0
 3568              		.loc 10 364 0
 3569 010c 7C04F050 		subf 0,4,30
 3570              	.LVL239:
 3571              		.loc 10 365 0
 3572 0110 7C001671 		srawi. 0,0,2
 3573              	.LVL240:
 3574 0114 41A20014 		beq+ 0,.L195
 3575              		.loc 10 366 0
 3576 0118 541C103A 		slwi 28,0,2
 3577 011c 7FA3EB78 		mr 3,29
 3578 0120 7F85E378 		mr 5,28
 3579              	.LVL241:
 3580 0124 48000001 		bl memmove
 3581              	.LVL242:
 3582              	.L195:
 3583              	.LBE2495:
 3584              	.LBE2494:
 3585              	.LBE2493:
 3586              	.LBE2492:
 3587              	.LBE2491:
 3588              	.LBE2490:
 3589              	.LBE2489:
 3590              	.LBE2488:
 3591              	.LBE2487:
 3592              	.LBE2486:
 3593              	.LBE2485:
 3594              	.LBB2506:
 3595              	.LBB2507:
 3596              	.LBB2508:
 3597              	.LBB2509:
 3598              	.LBB2510:
 3599              	.LBB2511:
 3600              	.LBB2512:
 3601              	.LBB2513:
 3602              	.LBB2514:
 3603              	.LBB2515:
 3604              	.LBB2516:
 3605              		.loc 10 364 0
 3606 0128 801F0004 		lwz 0,4(31)
 3607              	.LBE2516:
 3608              	.LBE2515:
 3609              	.LBE2514:
 3610              	.LBE2513:
 3611              	.LBE2512:
 3612              	.LBE2511:
 3613              	.LBE2510:
 3614              	.LBE2509:
 3615              	.LBE2508:
 3616              	.LBE2507:
 3617              	.LBE2506:
 3618              	.LBB2537:
 3619              	.LBB2505:
 3620              	.LBB2504:
 3621              	.LBB2503:
 3622              	.LBB2502:
 3623              	.LBB2501:
 3624              	.LBB2500:
 3625              	.LBB2499:
 3626              	.LBB2498:
 3627              	.LBB2497:
 3628              	.LBB2496:
 3629              		.loc 10 367 0
 3630 012c 7F9DE214 		add 28,29,28
 3631              	.LVL243:
 3632              	.LBE2496:
 3633              	.LBE2497:
 3634              	.LBE2498:
 3635              	.LBE2499:
 3636              	.LBE2500:
 3637              	.LBE2501:
 3638              	.LBE2502:
 3639              	.LBE2503:
 3640              	.LBE2504:
 3641              	.LBE2505:
 3642              	.LBE2537:
 3643              		.loc 9 347 0
 3644 0130 3B5C0004 		addi 26,28,4
 3645              	.LBB2538:
 3646              	.LBB2535:
 3647              	.LBB2533:
 3648              	.LBB2531:
 3649              	.LBB2529:
 3650              	.LBB2527:
 3651              	.LBB2525:
 3652              	.LBB2523:
 3653              	.LBB2521:
 3654              	.LBB2519:
 3655              	.LBB2517:
 3656              		.loc 10 365 0
 3657 0134 3B800000 		li 28,0
 3658              		.loc 10 364 0
 3659 0138 7C1E0050 		subf 0,30,0
 3660              	.LVL244:
 3661              		.loc 10 365 0
 3662 013c 7C001671 		srawi. 0,0,2
 3663              	.LVL245:
 3664 0140 41A20018 		beq+ 0,.L196
 3665              		.loc 10 366 0
 3666 0144 541C103A 		slwi 28,0,2
 3667 0148 7F43D378 		mr 3,26
 3668 014c 7FC4F378 		mr 4,30
 3669 0150 7F85E378 		mr 5,28
 3670 0154 48000001 		bl memmove
 3671              	.LVL246:
 3672              	.L196:
 3673              	.LBE2517:
 3674              	.LBE2519:
 3675              	.LBE2521:
 3676              	.LBE2523:
 3677              	.LBE2525:
 3678              	.LBE2527:
 3679              	.LBE2529:
 3680              	.LBE2531:
 3681              	.LBE2533:
 3682              	.LBE2535:
 3683              	.LBE2538:
 3684              		.loc 9 366 0
 3685 0158 807F0000 		lwz 3,0(31)
 3686              	.LBB2539:
 3687              	.LBB2536:
 3688              	.LBB2534:
 3689              	.LBB2532:
 3690              	.LBB2530:
 3691              	.LBB2528:
 3692              	.LBB2526:
 3693              	.LBB2524:
 3694              	.LBB2522:
 3695              	.LBB2520:
 3696              	.LBB2518:
 3697              		.loc 10 367 0
 3698 015c 7F9AE214 		add 28,26,28
 3699              	.LVL247:
 3700              	.LBE2518:
 3701              	.LBE2520:
 3702              	.LBE2522:
 3703              	.LBE2524:
 3704              	.LBE2526:
 3705              	.LBE2528:
 3706              	.LBE2530:
 3707              	.LBE2532:
 3708              	.LBE2534:
 3709              	.LBE2536:
 3710              	.LBE2539:
 3711              	.LBB2540:
 3712              	.LBB2541:
 3713              		.loc 7 155 0
 3714 0160 2F830000 		cmpwi 7,3,0
 3715 0164 419E0008 		beq- 7,.L197
 3716              	.LVL248:
 3717              	.LBB2542:
 3718              	.LBB2543:
 3719              		.loc 13 98 0
 3720 0168 48000001 		bl _ZdlPv
 3721              	.LVL249:
 3722              	.L197:
 3723              	.LBE2543:
 3724              	.LBE2542:
 3725              	.LBE2541:
 3726              	.LBE2540:
 3727              	.LBE2460:
 3728              	.LBE2558:
 3729              		.loc 9 373 0
 3730 016c 8001002C 		lwz 0,44(1)
 3731              	.LBB2559:
 3732              	.LBB2552:
 3733              		.loc 9 371 0
 3734 0170 7F7DDA14 		add 27,29,27
 3735              		.loc 9 369 0
 3736 0174 93BF0000 		stw 29,0(31)
 3737              	.LBE2552:
 3738              	.LBE2559:
 3739              		.loc 9 373 0
 3740 0178 7C0803A6 		mtlr 0
 3741              	.LBB2560:
 3742              	.LBB2553:
 3743              		.loc 9 370 0
 3744 017c 939F0004 		stw 28,4(31)
 3745              		.loc 9 371 0
 3746 0180 937F0008 		stw 27,8(31)
 3747              	.LBE2553:
 3748              	.LBE2560:
 3749              		.loc 9 373 0
 3750 0184 83410010 		lwz 26,16(1)
 3751              	.LVL250:
 3752 0188 83610014 		lwz 27,20(1)
 3753 018c 83810018 		lwz 28,24(1)
 3754 0190 83A1001C 		lwz 29,28(1)
 3755              	.LVL251:
 3756 0194 83C10020 		lwz 30,32(1)
 3757              	.LVL252:
 3758 0198 83E10024 		lwz 31,36(1)
 3759              	.LVL253:
 3760 019c 38210028 		addi 1,1,40
 3761              		.cfi_remember_state
 3762              		.cfi_restore 26
 3763              		.cfi_restore 27
 3764              		.cfi_restore 28
 3765              		.cfi_restore 29
 3766              		.cfi_restore 30
 3767              		.cfi_restore 31
 3768              	.LCFI68:
 3769              		.cfi_def_cfa_offset 0
 3770 01a0 4E800020 		blr
 3771              	.LVL254:
 3772              	.L191:
 3773              	.LCFI69:
 3774              		.cfi_restore_state
 3775              	.LBB2561:
 3776              	.LBB2554:
 3777              	.LBB2544:
 3778              	.LBB2472:
 3779              		.loc 8 892 0
 3780 01a4 7F9CF050 		subf 28,28,30
 3781              	.LBE2472:
 3782              	.LBE2544:
 3783              		.loc 9 326 0
 3784 01a8 3B600004 		li 27,4
 3785              	.LBB2545:
 3786              	.LBB2473:
 3787              		.loc 8 892 0
 3788 01ac 7F9C1670 		srawi 28,28,2
 3789              	.LVL255:
 3790 01b0 4BFFFF28 		b .L198
 3791              	.LVL256:
 3792              	.L204:
 3793              	.LBE2473:
 3794              	.LBE2545:
 3795              	.LBB2546:
 3796              	.LBB2467:
 3797              		.loc 7 1245 0
 3798 01b4 3D203FFF 		lis 9,0x3fff
 3799 01b8 6129FFFF 		ori 9,9,65535
 3800 01bc 7F804840 		cmplw 7,0,9
 3801 01c0 419DFF0C 		bgt+ 7,.L192
 3802              	.LBE2467:
 3803              	.LBE2546:
 3804              	.LBB2547:
 3805              	.LBB2481:
 3806              		.loc 7 150 0
 3807 01c4 2F800000 		cmpwi 7,0,0
 3808              	.LBE2481:
 3809              	.LBE2547:
 3810              	.LBB2548:
 3811              	.LBB2474:
 3812              		.loc 8 892 0
 3813 01c8 7F9CF050 		subf 28,28,30
 3814              	.LBE2474:
 3815              	.LBE2548:
 3816              	.LBB2549:
 3817              	.LBB2468:
 3818              		.loc 7 1245 0
 3819 01cc 577B1838 		slwi 27,27,3
 3820              	.LVL257:
 3821              	.LBE2468:
 3822              	.LBE2549:
 3823              	.LBB2550:
 3824              	.LBB2475:
 3825              		.loc 8 892 0
 3826 01d0 7F9C1670 		srawi 28,28,2
 3827              	.LVL258:
 3828              	.LBE2475:
 3829              	.LBE2550:
 3830              	.LBB2551:
 3831              	.LBB2482:
 3832              		.loc 7 150 0
 3833 01d4 3BA00000 		li 29,0
 3834 01d8 419EFF14 		beq+ 7,.L193
 3835 01dc 4BFFFEFC 		b .L198
 3836              	.LBE2482:
 3837              	.LBE2551:
 3838              	.LBE2554:
 3839              	.LBE2561:
 3840              		.cfi_endproc
 3841              	.LFE1700:
 3842              		.size	_ZNSt6vectorIP10GuiElementSaIS1_EE13_M_insert_auxEN9__gnu_cxx17__normal_iteratorIPS1_S3_EERK
 3843              		.section	.text._ZNSt8_Rb_treeIPN7sigslot12_signal_baseINS0_15single_threadedEEES4_St9_IdentityIS4_
 3844              		.align 2
 3845              		.weak	_ZNSt8_Rb_treeIPN7sigslot12_signal_baseINS0_15single_threadedEEES4_St9_IdentityIS4_ESt4lessI
 3846              		.type	_ZNSt8_Rb_treeIPN7sigslot12_signal_baseINS0_15single_threadedEEES4_St9_IdentityIS4_ESt4lessI
 3847              	_ZNSt8_Rb_treeIPN7sigslot12_signal_baseINS0_15single_threadedEEES4_St9_IdentityIS4_ESt4lessIS4_ESaI
 3848              	.LFB1763:
 3849              		.file 14 "d:\\devkitpro\\devkitppc\\bin\\../lib/gcc/powerpc-eabi/4.6.3/../../../../powerpc-eabi/in
 3850              		.loc 14 1068 0
 3851              		.cfi_startproc
 3852              	.LVL259:
 3853 0000 9421FFC8 		stwu 1,-56(1)
 3854              	.LCFI70:
 3855              		.cfi_def_cfa_offset 56
 3856 0004 7C0802A6 		mflr 0
 3857 0008 92C10010 		stw 22,16(1)
 3858              	.LBB2678:
 3859              		.loc 14 1072 0
 3860 000c 7C962379 		mr. 22,4
 3861              		.cfi_offset 22, -40
 3862              		.cfi_register 65, 0
 3863              	.LBE2678:
 3864              		.loc 14 1068 0
 3865 0010 93C10030 		stw 30,48(1)
 3866 0014 7C7E1B78 		mr 30,3
 3867              		.cfi_offset 30, -8
 3868 0018 9001003C 		stw 0,60(1)
 3869 001c 92A1000C 		stw 21,12(1)
 3870 0020 92E10014 		stw 23,20(1)
 3871 0024 93010018 		stw 24,24(1)
 3872 0028 9321001C 		stw 25,28(1)
 3873 002c 93410020 		stw 26,32(1)
 3874 0030 93610024 		stw 27,36(1)
 3875 0034 93810028 		stw 28,40(1)
 3876 0038 93A1002C 		stw 29,44(1)
 3877 003c 93E10034 		stw 31,52(1)
 3878              	.LBB2763:
 3879              		.loc 14 1072 0
 3880 0040 41820168 		beq- 0,.L205
 3881              		.cfi_offset 31, -4
 3882              		.cfi_offset 29, -12
 3883              		.cfi_offset 28, -16
 3884              		.cfi_offset 27, -20
 3885              		.cfi_offset 26, -24
 3886              		.cfi_offset 25, -28
 3887              		.cfi_offset 24, -32
 3888              		.cfi_offset 23, -36
 3889              		.cfi_offset 21, -44
 3890              		.cfi_offset 65, 4
 3891              	.LVL260:
 3892              	.L251:
 3893              		.loc 5 404 0
 3894 0044 8376000C 		lwz 27,12(22)
 3895              	.LVL261:
 3896              	.LBB2679:
 3897              	.LBB2680:
 3898              	.LBB2681:
 3899              		.loc 14 1072 0
 3900 0048 2F9B0000 		cmpwi 7,27,0
 3901 004c 419E0140 		beq- 7,.L207
 3902              	.LVL262:
 3903              	.L252:
 3904              	.LBE2681:
 3905              		.loc 5 404 0
 3906 0050 835B000C 		lwz 26,12(27)
 3907              	.LVL263:
 3908              	.LBB2757:
 3909              	.LBB2682:
 3910              	.LBB2683:
 3911              	.LBB2684:
 3912              		.loc 14 1072 0
 3913 0054 2F9A0000 		cmpwi 7,26,0
 3914 0058 419E0118 		beq- 7,.L208
 3915              	.LVL264:
 3916              	.L253:
 3917              	.LBE2684:
 3918              		.loc 5 404 0
 3919 005c 833A000C 		lwz 25,12(26)
 3920              	.LVL265:
 3921              	.LBB2750:
 3922              	.LBB2685:
 3923              	.LBB2686:
 3924              	.LBB2687:
 3925              		.loc 14 1072 0
 3926 0060 2F990000 		cmpwi 7,25,0
 3927 0064 419E00F0 		beq- 7,.L209
 3928              	.LVL266:
 3929              	.L254:
 3930              	.LBE2687:
 3931              		.loc 5 404 0
 3932 0068 8319000C 		lwz 24,12(25)
 3933              	.LVL267:
 3934              	.LBB2743:
 3935              	.LBB2688:
 3936              	.LBB2689:
 3937              	.LBB2690:
 3938              		.loc 14 1072 0
 3939 006c 2F980000 		cmpwi 7,24,0
 3940 0070 419E00C8 		beq- 7,.L210
 3941              	.LVL268:
 3942              	.L255:
 3943              	.LBE2690:
 3944              		.loc 5 404 0
 3945 0074 82F8000C 		lwz 23,12(24)
 3946              	.LVL269:
 3947              	.LBB2736:
 3948              	.LBB2691:
 3949              	.LBB2692:
 3950              	.LBB2693:
 3951              		.loc 14 1072 0
 3952 0078 2F970000 		cmpwi 7,23,0
 3953 007c 419E00A0 		beq- 7,.L211
 3954              	.LVL270:
 3955              	.L256:
 3956              	.LBE2693:
 3957              		.loc 5 404 0
 3958 0080 8397000C 		lwz 28,12(23)
 3959              	.LVL271:
 3960              	.LBB2729:
 3961              	.LBB2694:
 3962              	.LBB2695:
 3963              	.LBB2696:
 3964              		.loc 14 1072 0
 3965 0084 2F9C0000 		cmpwi 7,28,0
 3966 0088 419E0078 		beq- 7,.L212
 3967              	.LVL272:
 3968              	.L257:
 3969              	.LBE2696:
 3970              		.loc 5 404 0
 3971 008c 83BC000C 		lwz 29,12(28)
 3972              	.LVL273:
 3973              	.LBB2722:
 3974              	.LBB2697:
 3975              	.LBB2698:
 3976              	.LBB2699:
 3977              		.loc 14 1072 0
 3978 0090 2F9D0000 		cmpwi 7,29,0
 3979 0094 419E0050 		beq- 7,.L213
 3980              	.LVL274:
 3981              	.L258:
 3982              	.LBE2699:
 3983              		.loc 5 404 0
 3984 0098 83FD000C 		lwz 31,12(29)
 3985              	.LVL275:
 3986              	.LBB2715:
 3987              	.LBB2700:
 3988              	.LBB2701:
 3989              	.LBB2702:
 3990              		.loc 14 1072 0
 3991 009c 2F9F0000 		cmpwi 7,31,0
 3992 00a0 419E0028 		beq- 7,.L214
 3993              	.LVL276:
 3994              	.L259:
 3995              	.LBB2703:
 3996              		.loc 14 1074 0
 3997 00a4 809F000C 		lwz 4,12(31)
 3998 00a8 7FC3F378 		mr 3,30
 3999 00ac 48000001 		bl _ZNSt8_Rb_treeIPN7sigslot12_signal_baseINS0_15single_threadedEEES4_St9_IdentityIS4_ESt4lessIS4_
 4000              	.LBE2703:
 4001              	.LBE2702:
 4002              		.loc 5 404 0
 4003 00b0 82BF0008 		lwz 21,8(31)
 4004              	.LVL277:
 4005              	.LBB2709:
 4006              	.LBB2708:
 4007              	.LBB2704:
 4008              	.LBB2705:
 4009              	.LBB2706:
 4010              	.LBB2707:
 4011              		.loc 13 98 0
 4012 00b4 7FE3FB78 		mr 3,31
 4013 00b8 48000001 		bl _ZdlPv
 4014              	.LVL278:
 4015              	.LBE2707:
 4016              	.LBE2706:
 4017              	.LBE2705:
 4018              	.LBE2704:
 4019              	.LBE2708:
 4020              		.loc 14 1072 0
 4021 00bc 2F950000 		cmpwi 7,21,0
 4022              		.loc 14 1077 0
 4023 00c0 7EBFAB78 		mr 31,21
 4024              	.LVL279:
 4025              		.loc 14 1072 0
 4026 00c4 409EFFE0 		bne+ 7,.L259
 4027              	.LVL280:
 4028              	.L214:
 4029              	.LBE2709:
 4030              	.LBE2701:
 4031              	.LBE2700:
 4032              	.LBE2715:
 4033              		.loc 5 404 0
 4034 00c8 83FD0008 		lwz 31,8(29)
 4035              	.LVL281:
 4036              	.LBB2716:
 4037              	.LBB2714:
 4038              	.LBB2710:
 4039              	.LBB2711:
 4040              	.LBB2712:
 4041              	.LBB2713:
 4042              		.loc 13 98 0
 4043 00cc 7FA3EB78 		mr 3,29
 4044 00d0 48000001 		bl _ZdlPv
 4045              	.LVL282:
 4046              	.LBE2713:
 4047              	.LBE2712:
 4048              	.LBE2711:
 4049              	.LBE2710:
 4050              	.LBE2714:
 4051              		.loc 14 1072 0
 4052 00d4 2F9F0000 		cmpwi 7,31,0
 4053 00d8 419E000C 		beq- 7,.L213
 4054              		.loc 14 1077 0
 4055 00dc 7FFDFB78 		mr 29,31
 4056              	.LVL283:
 4057 00e0 4BFFFFB8 		b .L258
 4058              	.LVL284:
 4059              	.L213:
 4060              	.LBE2716:
 4061              	.LBE2698:
 4062              	.LBE2697:
 4063              	.LBE2722:
 4064              		.loc 5 404 0
 4065 00e4 83FC0008 		lwz 31,8(28)
 4066              	.LVL285:
 4067              	.LBB2723:
 4068              	.LBB2721:
 4069              	.LBB2717:
 4070              	.LBB2718:
 4071              	.LBB2719:
 4072              	.LBB2720:
 4073              		.loc 13 98 0
 4074 00e8 7F83E378 		mr 3,28
 4075 00ec 48000001 		bl _ZdlPv
 4076              	.LVL286:
 4077              	.LBE2720:
 4078              	.LBE2719:
 4079              	.LBE2718:
 4080              	.LBE2717:
 4081              	.LBE2721:
 4082              		.loc 14 1072 0
 4083 00f0 2F9F0000 		cmpwi 7,31,0
 4084 00f4 419E000C 		beq- 7,.L212
 4085              		.loc 14 1077 0
 4086 00f8 7FFCFB78 		mr 28,31
 4087              	.LVL287:
 4088 00fc 4BFFFF90 		b .L257
 4089              	.LVL288:
 4090              	.L212:
 4091              	.LBE2723:
 4092              	.LBE2695:
 4093              	.LBE2694:
 4094              	.LBE2729:
 4095              		.loc 5 404 0
 4096 0100 83F70008 		lwz 31,8(23)
 4097              	.LVL289:
 4098              	.LBB2730:
 4099              	.LBB2728:
 4100              	.LBB2724:
 4101              	.LBB2725:
 4102              	.LBB2726:
 4103              	.LBB2727:
 4104              		.loc 13 98 0
 4105 0104 7EE3BB78 		mr 3,23
 4106 0108 48000001 		bl _ZdlPv
 4107              	.LVL290:
 4108              	.LBE2727:
 4109              	.LBE2726:
 4110              	.LBE2725:
 4111              	.LBE2724:
 4112              	.LBE2728:
 4113              		.loc 14 1072 0
 4114 010c 2F9F0000 		cmpwi 7,31,0
 4115 0110 419E000C 		beq- 7,.L211
 4116              		.loc 14 1077 0
 4117 0114 7FF7FB78 		mr 23,31
 4118              	.LVL291:
 4119 0118 4BFFFF68 		b .L256
 4120              	.LVL292:
 4121              	.L211:
 4122              	.LBE2730:
 4123              	.LBE2692:
 4124              	.LBE2691:
 4125              	.LBE2736:
 4126              		.loc 5 404 0
 4127 011c 83F80008 		lwz 31,8(24)
 4128              	.LVL293:
 4129              	.LBB2737:
 4130              	.LBB2735:
 4131              	.LBB2731:
 4132              	.LBB2732:
 4133              	.LBB2733:
 4134              	.LBB2734:
 4135              		.loc 13 98 0
 4136 0120 7F03C378 		mr 3,24
 4137 0124 48000001 		bl _ZdlPv
 4138              	.LVL294:
 4139              	.LBE2734:
 4140              	.LBE2733:
 4141              	.LBE2732:
 4142              	.LBE2731:
 4143              	.LBE2735:
 4144              		.loc 14 1072 0
 4145 0128 2F9F0000 		cmpwi 7,31,0
 4146 012c 419E000C 		beq- 7,.L210
 4147              		.loc 14 1077 0
 4148 0130 7FF8FB78 		mr 24,31
 4149              	.LVL295:
 4150 0134 4BFFFF40 		b .L255
 4151              	.LVL296:
 4152              	.L210:
 4153              	.LBE2737:
 4154              	.LBE2689:
 4155              	.LBE2688:
 4156              	.LBE2743:
 4157              		.loc 5 404 0
 4158 0138 83F90008 		lwz 31,8(25)
 4159              	.LVL297:
 4160              	.LBB2744:
 4161              	.LBB2742:
 4162              	.LBB2738:
 4163              	.LBB2739:
 4164              	.LBB2740:
 4165              	.LBB2741:
 4166              		.loc 13 98 0
 4167 013c 7F23CB78 		mr 3,25
 4168 0140 48000001 		bl _ZdlPv
 4169              	.LVL298:
 4170              	.LBE2741:
 4171              	.LBE2740:
 4172              	.LBE2739:
 4173              	.LBE2738:
 4174              	.LBE2742:
 4175              		.loc 14 1072 0
 4176 0144 2F9F0000 		cmpwi 7,31,0
 4177 0148 419E000C 		beq- 7,.L209
 4178              		.loc 14 1077 0
 4179 014c 7FF9FB78 		mr 25,31
 4180              	.LVL299:
 4181 0150 4BFFFF18 		b .L254
 4182              	.LVL300:
 4183              	.L209:
 4184              	.LBE2744:
 4185              	.LBE2686:
 4186              	.LBE2685:
 4187              	.LBE2750:
 4188              		.loc 5 404 0
 4189 0154 83FA0008 		lwz 31,8(26)
 4190              	.LVL301:
 4191              	.LBB2751:
 4192              	.LBB2749:
 4193              	.LBB2745:
 4194              	.LBB2746:
 4195              	.LBB2747:
 4196              	.LBB2748:
 4197              		.loc 13 98 0
 4198 0158 7F43D378 		mr 3,26
 4199 015c 48000001 		bl _ZdlPv
 4200              	.LVL302:
 4201              	.LBE2748:
 4202              	.LBE2747:
 4203              	.LBE2746:
 4204              	.LBE2745:
 4205              	.LBE2749:
 4206              		.loc 14 1072 0
 4207 0160 2F9F0000 		cmpwi 7,31,0
 4208 0164 419E000C 		beq- 7,.L208
 4209              		.loc 14 1077 0
 4210 0168 7FFAFB78 		mr 26,31
 4211              	.LVL303:
 4212 016c 4BFFFEF0 		b .L253
 4213              	.LVL304:
 4214              	.L208:
 4215              	.LBE2751:
 4216              	.LBE2683:
 4217              	.LBE2682:
 4218              	.LBE2757:
 4219              		.loc 5 404 0
 4220 0170 83FB0008 		lwz 31,8(27)
 4221              	.LVL305:
 4222              	.LBB2758:
 4223              	.LBB2756:
 4224              	.LBB2752:
 4225              	.LBB2753:
 4226              	.LBB2754:
 4227              	.LBB2755:
 4228              		.loc 13 98 0
 4229 0174 7F63DB78 		mr 3,27
 4230 0178 48000001 		bl _ZdlPv
 4231              	.LVL306:
 4232              	.LBE2755:
 4233              	.LBE2754:
 4234              	.LBE2753:
 4235              	.LBE2752:
 4236              	.LBE2756:
 4237              		.loc 14 1072 0
 4238 017c 2F9F0000 		cmpwi 7,31,0
 4239 0180 419E000C 		beq- 7,.L207
 4240              		.loc 14 1077 0
 4241 0184 7FFBFB78 		mr 27,31
 4242              	.LVL307:
 4243 0188 4BFFFEC8 		b .L252
 4244              	.LVL308:
 4245              	.L207:
 4246              		.loc 5 404 0
 4247 018c 83F60008 		lwz 31,8(22)
 4248              	.LVL309:
 4249              	.LBE2758:
 4250              	.LBE2680:
 4251              	.LBB2759:
 4252              	.LBB2760:
 4253              	.LBB2761:
 4254              	.LBB2762:
 4255              		.loc 13 98 0
 4256 0190 7EC3B378 		mr 3,22
 4257 0194 48000001 		bl _ZdlPv
 4258              	.LVL310:
 4259              	.LBE2762:
 4260              	.LBE2761:
 4261              	.LBE2760:
 4262              	.LBE2759:
 4263              	.LBE2679:
 4264              		.loc 14 1072 0
 4265 0198 2F9F0000 		cmpwi 7,31,0
 4266 019c 419E000C 		beq- 7,.L205
 4267              		.loc 14 1077 0
 4268 01a0 7FF6FB78 		mr 22,31
 4269              	.LVL311:
 4270 01a4 4BFFFEA0 		b .L251
 4271              	.LVL312:
 4272              	.L205:
 4273              	.LBE2763:
 4274              		.loc 14 1079 0
 4275 01a8 8001003C 		lwz 0,60(1)
 4276 01ac 82A1000C 		lwz 21,12(1)
 4277 01b0 7C0803A6 		mtlr 0
 4278 01b4 82C10010 		lwz 22,16(1)
 4279 01b8 82E10014 		lwz 23,20(1)
 4280 01bc 83010018 		lwz 24,24(1)
 4281 01c0 8321001C 		lwz 25,28(1)
 4282 01c4 83410020 		lwz 26,32(1)
 4283 01c8 83610024 		lwz 27,36(1)
 4284 01cc 83810028 		lwz 28,40(1)
 4285 01d0 83A1002C 		lwz 29,44(1)
 4286 01d4 83C10030 		lwz 30,48(1)
 4287              	.LVL313:
 4288 01d8 83E10034 		lwz 31,52(1)
 4289 01dc 38210038 		addi 1,1,56
 4290              	.LCFI71:
 4291              		.cfi_def_cfa_offset 0
 4292              		.cfi_restore 31
 4293              		.cfi_restore 30
 4294              		.cfi_restore 29
 4295              		.cfi_restore 28
 4296              		.cfi_restore 27
 4297              		.cfi_restore 26
 4298              		.cfi_restore 25
 4299              		.cfi_restore 24
 4300              		.cfi_restore 23
 4301              		.cfi_restore 22
 4302              		.cfi_restore 21
 4303 01e0 4E800020 		blr
 4304              		.cfi_endproc
 4305              	.LFE1763:
 4306              		.size	_ZNSt8_Rb_treeIPN7sigslot12_signal_baseINS0_15single_threadedEEES4_St9_IdentityIS4_ESt4lessI
 4307              		.section	.text._ZN7sigslot9has_slotsINS_15single_threadedEED2Ev,"axG",@progbits,_ZN7sigslot9has_sl
 4308              		.align 2
 4309              		.weak	_ZN7sigslot9has_slotsINS_15single_threadedEED2Ev
 4310              		.type	_ZN7sigslot9has_slotsINS_15single_threadedEED2Ev, @function
 4311              	_ZN7sigslot9has_slotsINS_15single_threadedEED2Ev:
 4312              	.LFB1652:
 4313              		.loc 1 513 0
 4314              		.cfi_startproc
 4315              		.cfi_personality 0,__gxx_personality_v0
 4316              		.cfi_lsda 0,.LLSDA1652
 4317              	.LVL314:
 4318 0000 7C0802A6 		mflr 0
 4319 0004 9421FFE0 		stwu 1,-32(1)
 4320              	.LCFI72:
 4321              		.cfi_def_cfa_offset 32
 4322              		.cfi_register 65, 0
 4323              	.LBB2910:
 4324              		.loc 1 516 0
 4325 0008 3D200000 		lis 9,_ZTVN7sigslot9has_slotsINS_15single_threadedEEE+8@ha
 4326              	.LBE2910:
 4327              		.loc 1 513 0
 4328 000c 93810010 		stw 28,16(1)
 4329 0010 3B830004 		addi 28,3,4
 4330              		.cfi_offset 28, -16
 4331 0014 90010024 		stw 0,36(1)
 4332              	.LBB2986:
 4333              		.loc 1 516 0
 4334 0018 38090008 		la 0,_ZTVN7sigslot9has_slotsINS_15single_threadedEEE+8@l(9)
 4335              		.cfi_offset 65, 4
 4336              	.LBE2986:
 4337              		.loc 1 513 0
 4338 001c 93A10014 		stw 29,20(1)
 4339 0020 7C7D1B78 		mr 29,3
 4340              		.cfi_offset 29, -12
 4341 0024 93410008 		stw 26,8(1)
 4342 0028 9361000C 		stw 27,12(1)
 4343 002c 93C10018 		stw 30,24(1)
 4344 0030 93E1001C 		stw 31,28(1)
 4345              	.LBB2987:
 4346              		.loc 1 516 0
 4347 0034 90030000 		stw 0,0(3)
 4348              	.LVL315:
 4349              	.LEHB14:
 4350              	.LBB2911:
 4351              	.LBB2912:
 4352              	.LBB2913:
 4353              	.LBB2914:
 4354              		.loc 1 338 0
 4355              		.cfi_offset 31, -4
 4356              		.cfi_offset 30, -8
 4357              		.cfi_offset 27, -20
 4358              		.cfi_offset 26, -24
 4359 0038 48000001 		bl _ZN7sigslot15single_threaded4lockEv
 4360              	.LEHE14:
 4361              	.LVL316:
 4362              	.LBE2914:
 4363              	.LBE2913:
 4364              	.LBB2915:
 4365              		.loc 5 404 0
 4366 003c 83FD0010 		lwz 31,16(29)
 4367              	.LVL317:
 4368              	.LBE2915:
 4369              	.LBB2916:
 4370              	.LBB2917:
 4371              	.LBB2918:
 4372              		.loc 14 671 0
 4373 0040 3BDC0004 		addi 30,28,4
 4374              	.LVL318:
 4375              	.LBE2918:
 4376              	.LBE2917:
 4377              	.LBE2916:
 4378              		.loc 1 524 0
 4379 0044 7F9FF000 		cmpw 7,31,30
 4380 0048 419E0034 		beq- 7,.L261
 4381              	.LVL319:
 4382              	.L288:
 4383              		.loc 1 526 0
 4384 004c 807F0010 		lwz 3,16(31)
 4385 0050 7FA4EB78 		mr 4,29
 4386 0054 81230000 		lwz 9,0(3)
 4387 0058 80090010 		lwz 0,16(9)
 4388 005c 7C0903A6 		mtctr 0
 4389              	.LEHB15:
 4390 0060 4E800421 		bctrl
 4391              	.LEHE15:
 4392              	.LVL320:
 4393              	.LBB2919:
 4394              	.LBB2920:
 4395              		.loc 14 269 0
 4396 0064 7FE3FB78 		mr 3,31
 4397 0068 48000001 		bl _ZSt18_Rb_tree_incrementPKSt18_Rb_tree_node_base
 4398              	.LBE2920:
 4399              	.LBE2919:
 4400              		.loc 1 524 0
 4401 006c 7F9E1800 		cmpw 7,30,3
 4402              	.LBB2922:
 4403              	.LBB2921:
 4404              		.loc 14 269 0
 4405 0070 7C7F1B78 		mr 31,3
 4406              	.LVL321:
 4407              	.LBE2921:
 4408              	.LBE2922:
 4409              		.loc 1 524 0
 4410 0074 409EFFD8 		bne+ 7,.L288
 4411 0078 83FD0010 		lwz 31,16(29)
 4412              	.LVL322:
 4413              	.L261:
 4414              	.LBB2923:
 4415              	.LBB2924:
 4416              	.LBB2925:
 4417              	.LBB2926:
 4418              	.LBB2927:
 4419              	.LBB2928:
 4420              	.LBB2929:
 4421              		.loc 14 665 0
 4422 007c 3B5C0004 		addi 26,28,4
 4423              	.LBE2929:
 4424              	.LBE2928:
 4425              		.loc 14 1500 0
 4426 0080 7F9ED000 		cmpw 7,30,26
 4427 0084 419E0098 		beq- 7,.L263
 4428              	.LVL323:
 4429              		.loc 14 1503 0
 4430 0088 7F9EF800 		cmpw 7,30,31
 4431 008c 40BE000C 		bne+ 7,.L290
 4432 0090 48000038 		b .L264
 4433              	.LVL324:
 4434              	.L285:
 4435              		.loc 14 277 0
 4436 0094 7F7FDB78 		mr 31,27
 4437              	.LVL325:
 4438              	.L290:
 4439              	.LBB2930:
 4440              	.LBB2931:
 4441 0098 7FE3FB78 		mr 3,31
 4442 009c 48000001 		bl _ZSt18_Rb_tree_incrementPKSt18_Rb_tree_node_base
 4443              	.LBE2931:
 4444              	.LBE2930:
 4445              	.LBB2933:
 4446              	.LBB2934:
 4447              	.LBB2935:
 4448              		.loc 14 1489 0
 4449 00a0 7F44D378 		mr 4,26
 4450              	.LBE2935:
 4451              	.LBE2934:
 4452              	.LBE2933:
 4453              	.LBB2944:
 4454              	.LBB2932:
 4455              		.loc 14 277 0
 4456 00a4 7C7B1B78 		mr 27,3
 4457              	.LVL326:
 4458              	.LBE2932:
 4459              	.LBE2944:
 4460              	.LBB2945:
 4461              	.LBB2942:
 4462              	.LBB2940:
 4463              		.loc 14 1489 0
 4464 00a8 7FE3FB78 		mr 3,31
 4465              	.LVL327:
 4466 00ac 48000001 		bl _ZSt28_Rb_tree_rebalance_for_erasePSt18_Rb_tree_node_baseRS_
 4467              	.LBB2936:
 4468              	.LBB2937:
 4469              	.LBB2938:
 4470              	.LBB2939:
 4471              		.loc 13 98 0
 4472 00b0 48000001 		bl _ZdlPv
 4473              	.LBE2939:
 4474              	.LBE2938:
 4475              	.LBE2937:
 4476              	.LBE2936:
 4477              	.LBE2940:
 4478              	.LBE2942:
 4479              	.LBE2945:
 4480              		.loc 14 1503 0
 4481 00b4 7F9ED800 		cmpw 7,30,27
 4482              	.LBB2946:
 4483              	.LBB2943:
 4484              	.LBB2941:
 4485              		.loc 14 1491 0
 4486 00b8 813C0014 		lwz 9,20(28)
 4487 00bc 3809FFFF 		addi 0,9,-1
 4488 00c0 901C0014 		stw 0,20(28)
 4489              	.LBE2941:
 4490              	.LBE2943:
 4491              	.LBE2946:
 4492              		.loc 14 1503 0
 4493 00c4 409EFFD0 		bne+ 7,.L285
 4494              	.LVL328:
 4495              	.L264:
 4496              	.LBE2927:
 4497              	.LBE2926:
 4498              	.LBE2925:
 4499              	.LBE2924:
 4500              	.LBE2923:
 4501              	.LBB2955:
 4502              	.LBB2956:
 4503              	.LBB2957:
 4504              		.loc 1 343 0
 4505 00c8 813D0000 		lwz 9,0(29)
 4506 00cc 7FA3EB78 		mr 3,29
 4507 00d0 8009000C 		lwz 0,12(9)
 4508 00d4 7C0903A6 		mtctr 0
 4509              	.LEHB16:
 4510 00d8 4E800421 		bctrl
 4511              	.LEHE16:
 4512              	.LVL329:
 4513              	.LBE2957:
 4514              	.LBE2956:
 4515              	.LBE2955:
 4516              	.LBE2912:
 4517              	.LBE2911:
 4518              	.LBB2964:
 4519              	.LBB2965:
 4520              	.LBB2966:
 4521              	.LBB2967:
 4522              	.LBB2968:
 4523              		.loc 14 639 0
 4524 00dc 809D000C 		lwz 4,12(29)
 4525 00e0 7F83E378 		mr 3,28
 4526 00e4 48000001 		bl _ZNSt8_Rb_treeIPN7sigslot12_signal_baseINS0_15single_threadedEEES4_St9_IdentityIS4_ESt4lessIS4_
 4527              	.LVL330:
 4528              	.LBE2968:
 4529              	.LBE2967:
 4530              	.LBE2966:
 4531              	.LBE2965:
 4532              	.LBE2964:
 4533              	.LBB2969:
 4534              	.LBB2970:
 4535              	.LBB2971:
 4536              		.loc 1 105 0
 4537 00e8 3D200000 		lis 9,_ZTVN7sigslot15single_threadedE+8@ha
 4538 00ec 38090008 		la 0,_ZTVN7sigslot15single_threadedE+8@l(9)
 4539              	.LBE2971:
 4540              	.LBE2970:
 4541              	.LBE2969:
 4542              	.LBE2987:
 4543              		.loc 1 516 0
 4544 00f0 83410008 		lwz 26,8(1)
 4545              	.LBB2988:
 4546              	.LBB2974:
 4547              	.LBB2973:
 4548              	.LBB2972:
 4549              		.loc 1 105 0
 4550 00f4 901D0000 		stw 0,0(29)
 4551              	.LBE2972:
 4552              	.LBE2973:
 4553              	.LBE2974:
 4554              	.LBE2988:
 4555              		.loc 1 516 0
 4556 00f8 80010024 		lwz 0,36(1)
 4557 00fc 8361000C 		lwz 27,12(1)
 4558 0100 7C0803A6 		mtlr 0
 4559 0104 83810010 		lwz 28,16(1)
 4560              	.LVL331:
 4561 0108 83A10014 		lwz 29,20(1)
 4562              	.LVL332:
 4563 010c 83C10018 		lwz 30,24(1)
 4564              	.LVL333:
 4565 0110 83E1001C 		lwz 31,28(1)
 4566 0114 38210020 		addi 1,1,32
 4567              		.cfi_remember_state
 4568              	.LCFI73:
 4569              		.cfi_def_cfa_offset 0
 4570              		.cfi_restore 31
 4571              		.cfi_restore 30
 4572              		.cfi_restore 29
 4573              		.cfi_restore 28
 4574              		.cfi_restore 27
 4575              		.cfi_restore 26
 4576 0118 4E800020 		blr
 4577              	.LVL334:
 4578              	.L263:
 4579              	.LCFI74:
 4580              		.cfi_restore_state
 4581              	.LBB2989:
 4582              	.LBB2975:
 4583              	.LBB2962:
 4584              	.LBB2958:
 4585              	.LBB2954:
 4586              	.LBB2953:
 4587              	.LBB2952:
 4588              	.LBB2951:
 4589              	.LBB2947:
 4590              	.LBB2948:
 4591              	.LBB2949:
 4592              	.LBB2950:
 4593              		.loc 14 809 0
 4594 011c 809D000C 		lwz 4,12(29)
 4595 0120 7F83E378 		mr 3,28
 4596 0124 48000001 		bl _ZNSt8_Rb_treeIPN7sigslot12_signal_baseINS0_15single_threadedEEES4_St9_IdentityIS4_ESt4lessIS4_
 4597              	.LVL335:
 4598              		.loc 14 811 0
 4599 0128 38000000 		li 0,0
 4600              		.loc 14 810 0
 4601 012c 93DD0010 		stw 30,16(29)
 4602              	.LVL336:
 4603              		.loc 14 811 0
 4604 0130 901D000C 		stw 0,12(29)
 4605              	.LVL337:
 4606              		.loc 14 812 0
 4607 0134 93DD0014 		stw 30,20(29)
 4608              		.loc 14 813 0
 4609 0138 901D0018 		stw 0,24(29)
 4610 013c 4BFFFF8C 		b .L264
 4611              	.LVL338:
 4612              	.L286:
 4613 0140 7C7F1B78 		mr 31,3
 4614              	.L271:
 4615              	.LVL339:
 4616              	.LBE2950:
 4617              	.LBE2949:
 4618              	.LBE2948:
 4619              	.LBE2947:
 4620              	.LBE2951:
 4621              	.LBE2952:
 4622              	.LBE2953:
 4623              	.LBE2954:
 4624              	.LBE2958:
 4625              	.LBE2962:
 4626              	.LBE2975:
 4627              	.LBB2976:
 4628              	.LBB2977:
 4629              	.LBB2978:
 4630              	.LBB2979:
 4631              	.LBB2980:
 4632              	.LBB2981:
 4633              		.loc 14 639 0
 4634 0144 809D000C 		lwz 4,12(29)
 4635 0148 7F83E378 		mr 3,28
 4636 014c 48000001 		bl _ZNSt8_Rb_treeIPN7sigslot12_signal_baseINS0_15single_threadedEEES4_St9_IdentityIS4_ESt4lessIS4_
 4637              	.LVL340:
 4638              	.LBE2981:
 4639              	.LBE2980:
 4640              	.LBE2979:
 4641              	.LBE2978:
 4642              	.LBE2977:
 4643              	.LBE2976:
 4644              	.LBB2982:
 4645              	.LBB2983:
 4646              	.LBB2984:
 4647              		.loc 1 105 0
 4648 0150 3D200000 		lis 9,_ZTVN7sigslot15single_threadedE+8@ha
 4649 0154 38090008 		la 0,_ZTVN7sigslot15single_threadedE+8@l(9)
 4650 0158 7FE3FB78 		mr 3,31
 4651 015c 901D0000 		stw 0,0(29)
 4652              	.LEHB17:
 4653 0160 48000001 		bl _Unwind_Resume
 4654              	.LEHE17:
 4655              	.LVL341:
 4656              	.L287:
 4657              	.LBE2984:
 4658              	.LBE2983:
 4659              	.LBE2982:
 4660              	.LBB2985:
 4661              	.LBB2963:
 4662              	.LBB2959:
 4663              	.LBB2960:
 4664              	.LBB2961:
 4665              		.loc 1 343 0
 4666 0164 813D0000 		lwz 9,0(29)
 4667 0168 7C7F1B78 		mr 31,3
 4668              	.LVL342:
 4669 016c 7FA3EB78 		mr 3,29
 4670 0170 8009000C 		lwz 0,12(9)
 4671 0174 7C0903A6 		mtctr 0
 4672 0178 4E800421 		bctrl
 4673 017c 4BFFFFC8 		b .L271
 4674              	.LBE2961:
 4675              	.LBE2960:
 4676              	.LBE2959:
 4677              	.LBE2963:
 4678              	.LBE2985:
 4679              	.LBE2989:
 4680              		.cfi_endproc
 4681              	.LFE1652:
 4682              		.section	.gcc_except_table
 4683              	.LLSDA1652:
 4684 005d FF       		.byte	0xff
 4685 005e FF       		.byte	0xff
 4686 005f 01       		.byte	0x1
 4687 0060 15       		.uleb128 .LLSDACSE1652-.LLSDACSB1652
 4688              	.LLSDACSB1652:
 4689 0061 38       		.uleb128 .LEHB14-.LFB1652
 4690 0062 04       		.uleb128 .LEHE14-.LEHB14
 4691 0063 C002     		.uleb128 .L286-.LFB1652
 4692 0065 00       		.uleb128 0
 4693 0066 60       		.uleb128 .LEHB15-.LFB1652
 4694 0067 04       		.uleb128 .LEHE15-.LEHB15
 4695 0068 E402     		.uleb128 .L287-.LFB1652
 4696 006a 00       		.uleb128 0
 4697 006b D801     		.uleb128 .LEHB16-.LFB1652
 4698 006d 04       		.uleb128 .LEHE16-.LEHB16
 4699 006e C002     		.uleb128 .L286-.LFB1652
 4700 0070 00       		.uleb128 0
 4701 0071 E002     		.uleb128 .LEHB17-.LFB1652
 4702 0073 04       		.uleb128 .LEHE17-.LEHB17
 4703 0074 00       		.uleb128 0
 4704 0075 00       		.uleb128 0
 4705              	.LLSDACSE1652:
 4706              		.section	.text._ZN7sigslot9has_slotsINS_15single_threadedEED2Ev,"axG",@progbits,_ZN7sigslot9has_sl
 4707              		.size	_ZN7sigslot9has_slotsINS_15single_threadedEED2Ev, .-_ZN7sigslot9has_slotsINS_15single_thread
 4708              		.section	".text"
 4709              		.align 2
 4710              		.globl _ZN14ProgressWindowC2Ev
 4711              		.type	_ZN14ProgressWindowC2Ev, @function
 4712              	_ZN14ProgressWindowC2Ev:
 4713              	.LFB1600:
 4714              		.loc 5 32 0
 4715              		.cfi_startproc
 4716              		.cfi_personality 0,__gxx_personality_v0
 4717              		.cfi_lsda 0,.LLSDA1600
 4718              	.LVL343:
 4719 0ab4 7C0802A6 		mflr 0
 4720 0ab8 9421FFF0 		stwu 1,-16(1)
 4721              	.LCFI75:
 4722              		.cfi_def_cfa_offset 16
 4723              		.cfi_register 65, 0
 4724              	.LBB2990:
 4725              		.loc 5 33 0
 4726 0abc 38800000 		li 4,0
 4727 0ac0 38A00000 		li 5,0
 4728 0ac4 38C00000 		li 6,0
 4729              	.LBE2990:
 4730              		.loc 5 32 0
 4731 0ac8 93E1000C 		stw 31,12(1)
 4732 0acc 90010014 		stw 0,20(1)
 4733 0ad0 7C7F1B78 		mr 31,3
 4734              		.cfi_offset 65, 4
 4735              		.cfi_offset 31, -4
 4736 0ad4 93C10008 		stw 30,8(1)
 4737              	.LEHB18:
 4738              	.LBB3019:
 4739              		.loc 5 33 0
 4740              		.cfi_offset 30, -8
 4741 0ad8 48000001 		bl _ZN8GuiFrameC2EiiPS_
 4742              	.LEHE18:
 4743              	.LVL344:
 4744 0adc 3D200000 		lis 9,_ZTV14ProgressWindow+8@ha
 4745              	.LBB2991:
 4746              	.LBB2992:
 4747              	.LBB2993:
 4748              	.LBB2994:
 4749              	.LBB2995:
 4750              	.LBB2996:
 4751              		.loc 14 445 0
 4752 0ae0 38000000 		li 0,0
 4753              	.LBE2996:
 4754              	.LBE2995:
 4755              	.LBE2994:
 4756              	.LBE2993:
 4757              	.LBE2992:
 4758              	.LBE2991:
 4759              		.loc 5 33 0
 4760 0ae4 39290008 		la 9,_ZTV14ProgressWindow+8@l(9)
 4761              	.LBB3011:
 4762              	.LBB3009:
 4763              	.LBB3007:
 4764              	.LBB3005:
 4765              	.LBB3003:
 4766              	.LBB3001:
 4767              	.LBB2997:
 4768              	.LBB2998:
 4769              		.loc 14 459 0
 4770 0ae8 397F00B8 		addi 11,31,184
 4771              	.LBE2998:
 4772              	.LBE2997:
 4773              	.LBE3001:
 4774              	.LBE3003:
 4775              	.LBE3005:
 4776              	.LBE3007:
 4777              	.LBE3009:
 4778              	.LBE3011:
 4779              		.loc 5 33 0
 4780 0aec 394900E4 		addi 10,9,228
 4781              	.LBB3012:
 4782              	.LBB3010:
 4783              	.LBB3008:
 4784              	.LBB3006:
 4785              	.LBB3004:
 4786              	.LBB3002:
 4787              		.loc 14 445 0
 4788 0af0 901F00B8 		stw 0,184(31)
 4789 0af4 901F00BC 		stw 0,188(31)
 4790 0af8 901F00C8 		stw 0,200(31)
 4791              	.LVL345:
 4792              	.LBB3000:
 4793              	.LBB2999:
 4794              		.loc 14 459 0
 4795 0afc 917F00C0 		stw 11,192(31)
 4796              		.loc 14 460 0
 4797 0b00 917F00C4 		stw 11,196(31)
 4798              	.LBE2999:
 4799              	.LBE3000:
 4800              	.LBE3002:
 4801              	.LBE3004:
 4802              	.LBE3006:
 4803              	.LBE3008:
 4804              	.LBE3010:
 4805              	.LBE3012:
 4806              		.loc 5 33 0
 4807 0b04 913F0000 		stw 9,0(31)
 4808 0b08 915F00B0 		stw 10,176(31)
 4809              	.LVL346:
 4810              	.LEHB19:
 4811              	.LBB3013:
 4812              	.LBB3014:
 4813              		.loc 12 57 0
 4814 0b0c 48000001 		bl gettime
 4815 0b10 907F00E8 		stw 3,232(31)
 4816 0b14 909F00EC 		stw 4,236(31)
 4817              	.LVL347:
 4818              	.LBE3014:
 4819              	.LBE3013:
 4820              	.LBB3015:
 4821              	.LBB3016:
 4822 0b18 48000001 		bl gettime
 4823              	.LEHE19:
 4824              	.LBE3016:
 4825              	.LBE3015:
 4826              		.loc 5 35 0
 4827 0b1c 3BC00000 		li 30,0
 4828              	.LBB3018:
 4829              	.LBB3017:
 4830              		.loc 12 57 0
 4831 0b20 907F00F0 		stw 3,240(31)
 4832 0b24 909F00F4 		stw 4,244(31)
 4833              	.LBE3017:
 4834              	.LBE3018:
 4835              		.loc 5 36 0
 4836 0b28 38A00032 		li 5,50
 4837              		.loc 5 35 0
 4838 0b2c 93DF00CC 		stw 30,204(31)
 4839              		.loc 5 36 0
 4840 0b30 38800000 		li 4,0
 4841 0b34 387F00F8 		addi 3,31,248
 4842 0b38 48000001 		bl memset
 4843              		.loc 5 37 0
 4844 0b3c 387F012A 		addi 3,31,298
 4845 0b40 38800000 		li 4,0
 4846 0b44 38A00050 		li 5,80
 4847 0b48 48000001 		bl memset
 4848              		.loc 5 42 0
 4849 0b4c 38000001 		li 0,1
 4850 0b50 981F00E4 		stb 0,228(31)
 4851              		.loc 5 38 0
 4852 0b54 39400000 		li 10,0
 4853              		.loc 5 43 0
 4854 0b58 981F00E2 		stb 0,226(31)
 4855              		.loc 5 38 0
 4856 0b5c 39600000 		li 11,0
 4857              	.LBE3019:
 4858              		.loc 5 66 0
 4859 0b60 80010014 		lwz 0,20(1)
 4860              	.LBB3020:
 4861              		.loc 5 40 0
 4862 0b64 9BDF00E0 		stb 30,224(31)
 4863              	.LBE3020:
 4864              		.loc 5 66 0
 4865 0b68 7C0803A6 		mtlr 0
 4866              	.LBB3021:
 4867              		.loc 5 41 0
 4868 0b6c 9BDF00E3 		stb 30,227(31)
 4869              		.loc 5 44 0
 4870 0b70 9BDF00E1 		stb 30,225(31)
 4871              		.loc 5 46 0
 4872 0b74 93DF017C 		stw 30,380(31)
 4873              		.loc 5 48 0
 4874 0b78 93DF0180 		stw 30,384(31)
 4875              		.loc 5 49 0
 4876 0b7c 93DF0184 		stw 30,388(31)
 4877              		.loc 5 50 0
 4878 0b80 93DF0188 		stw 30,392(31)
 4879              		.loc 5 52 0
 4880 0b84 93DF018C 		stw 30,396(31)
 4881              		.loc 5 53 0
 4882 0b88 93DF0190 		stw 30,400(31)
 4883              		.loc 5 54 0
 4884 0b8c 93DF0194 		stw 30,404(31)
 4885              		.loc 5 56 0
 4886 0b90 93DF0198 		stw 30,408(31)
 4887              		.loc 5 57 0
 4888 0b94 93DF019C 		stw 30,412(31)
 4889              		.loc 5 58 0
 4890 0b98 93DF01A0 		stw 30,416(31)
 4891              		.loc 5 60 0
 4892 0b9c 93DF01A4 		stw 30,420(31)
 4893              		.loc 5 62 0
 4894 0ba0 93DF01A8 		stw 30,424(31)
 4895              		.loc 5 63 0
 4896 0ba4 93DF01AC 		stw 30,428(31)
 4897              		.loc 5 65 0
 4898 0ba8 93DF01B0 		stw 30,432(31)
 4899              		.loc 5 38 0
 4900 0bac 915F00D0 		stw 10,208(31)
 4901 0bb0 917F00D4 		stw 11,212(31)
 4902              		.loc 5 39 0
 4903 0bb4 915F00D8 		stw 10,216(31)
 4904 0bb8 917F00DC 		stw 11,220(31)
 4905              	.LBE3021:
 4906              		.loc 5 66 0
 4907 0bbc 83C10008 		lwz 30,8(1)
 4908 0bc0 83E1000C 		lwz 31,12(1)
 4909              	.LVL348:
 4910 0bc4 38210010 		addi 1,1,16
 4911              		.cfi_remember_state
 4912              	.LCFI76:
 4913              		.cfi_def_cfa_offset 0
 4914              		.cfi_restore 31
 4915              		.cfi_restore 30
 4916 0bc8 4E800020 		blr
 4917              	.LVL349:
 4918              	.L294:
 4919              	.LCFI77:
 4920              		.cfi_restore_state
 4921 0bcc 7C7E1B78 		mr 30,3
 4922              	.LBB3022:
 4923              		.loc 5 33 0
 4924 0bd0 387F00B0 		addi 3,31,176
 4925 0bd4 48000001 		bl _ZN7sigslot9has_slotsINS_15single_threadedEED2Ev
 4926 0bd8 7FE3FB78 		mr 3,31
 4927 0bdc 48000001 		bl _ZN8GuiFrameD2Ev
 4928 0be0 7FC3F378 		mr 3,30
 4929              	.LEHB20:
 4930 0be4 48000001 		bl _Unwind_Resume
 4931              	.LEHE20:
 4932              	.LBE3022:
 4933              		.cfi_endproc
 4934              	.LFE1600:
 4935              		.section	.gcc_except_table
 4936              	.LLSDA1600:
 4937 0076 FF       		.byte	0xff
 4938 0077 FF       		.byte	0xff
 4939 0078 01       		.byte	0x1
 4940 0079 0E       		.uleb128 .LLSDACSE1600-.LLSDACSB1600
 4941              	.LLSDACSB1600:
 4942 007a 24       		.uleb128 .LEHB18-.LFB1600
 4943 007b 04       		.uleb128 .LEHE18-.LEHB18
 4944 007c 00       		.uleb128 0
 4945 007d 00       		.uleb128 0
 4946 007e 58       		.uleb128 .LEHB19-.LFB1600
 4947 007f 10       		.uleb128 .LEHE19-.LEHB19
 4948 0080 9802     		.uleb128 .L294-.LFB1600
 4949 0082 00       		.uleb128 0
 4950 0083 B002     		.uleb128 .LEHB20-.LFB1600
 4951 0085 04       		.uleb128 .LEHE20-.LEHB20
 4952 0086 00       		.uleb128 0
 4953 0087 00       		.uleb128 0
 4954              	.LLSDACSE1600:
 4955              		.section	".text"
 4956              		.size	_ZN14ProgressWindowC2Ev, .-_ZN14ProgressWindowC2Ev
 4957              		.section	.text._ZN7sigslot9has_slotsINS_15single_threadedEED0Ev,"axG",@progbits,_ZN7sigslot9has_sl
 4958              		.align 2
 4959              		.weak	_ZN7sigslot9has_slotsINS_15single_threadedEED0Ev
 4960              		.type	_ZN7sigslot9has_slotsINS_15single_threadedEED0Ev, @function
 4961              	_ZN7sigslot9has_slotsINS_15single_threadedEED0Ev:
 4962              	.LFB1654:
 4963              		.loc 1 513 0
 4964              		.cfi_startproc
 4965              		.cfi_personality 0,__gxx_personality_v0
 4966              		.cfi_lsda 0,.LLSDA1654
 4967              	.LVL350:
 4968 0000 7C0802A6 		mflr 0
 4969 0004 9421FFE0 		stwu 1,-32(1)
 4970              	.LCFI78:
 4971              		.cfi_def_cfa_offset 32
 4972              		.cfi_register 65, 0
 4973              	.LBB3116:
 4974              	.LBB3117:
 4975              	.LBB3118:
 4976              		.loc 1 516 0
 4977 0008 3D200000 		lis 9,_ZTVN7sigslot9has_slotsINS_15single_threadedEEE+8@ha
 4978              	.LBE3118:
 4979              	.LBE3117:
 4980              	.LBE3116:
 4981              		.loc 1 513 0
 4982 000c 93810010 		stw 28,16(1)
 4983 0010 3B830004 		addi 28,3,4
 4984              		.cfi_offset 28, -16
 4985 0014 90010024 		stw 0,36(1)
 4986              	.LBB3202:
 4987              	.LBB3198:
 4988              	.LBB3194:
 4989              		.loc 1 516 0
 4990 0018 38090008 		la 0,_ZTVN7sigslot9has_slotsINS_15single_threadedEEE+8@l(9)
 4991              		.cfi_offset 65, 4
 4992              	.LBE3194:
 4993              	.LBE3198:
 4994              	.LBE3202:
 4995              		.loc 1 513 0
 4996 001c 93A10014 		stw 29,20(1)
 4997 0020 7C7D1B78 		mr 29,3
 4998              		.cfi_offset 29, -12
 4999              	.LVL351:
 5000 0024 93410008 		stw 26,8(1)
 5001 0028 9361000C 		stw 27,12(1)
 5002 002c 93C10018 		stw 30,24(1)
 5003 0030 93E1001C 		stw 31,28(1)
 5004              	.LBB3203:
 5005              	.LBB3199:
 5006              	.LBB3195:
 5007              		.loc 1 516 0
 5008 0034 90030000 		stw 0,0(3)
 5009              	.LVL352:
 5010              	.LEHB21:
 5011              	.LBB3119:
 5012              	.LBB3120:
 5013              	.LBB3121:
 5014              	.LBB3122:
 5015              		.loc 1 338 0
 5016              		.cfi_offset 31, -4
 5017              		.cfi_offset 30, -8
 5018              		.cfi_offset 27, -20
 5019              		.cfi_offset 26, -24
 5020 0038 48000001 		bl _ZN7sigslot15single_threaded4lockEv
 5021              	.LEHE21:
 5022              	.LVL353:
 5023              	.LBE3122:
 5024              	.LBE3121:
 5025              	.LBB3123:
 5026              		.loc 5 404 0
 5027 003c 83FD0010 		lwz 31,16(29)
 5028              	.LVL354:
 5029              	.LBE3123:
 5030              	.LBB3124:
 5031              	.LBB3125:
 5032              	.LBB3126:
 5033              		.loc 14 671 0
 5034 0040 3BDC0004 		addi 30,28,4
 5035              	.LVL355:
 5036              	.LBE3126:
 5037              	.LBE3125:
 5038              	.LBE3124:
 5039              		.loc 1 524 0
 5040 0044 7F9FF000 		cmpw 7,31,30
 5041 0048 419E0034 		beq- 7,.L296
 5042              	.LVL356:
 5043              	.L324:
 5044              		.loc 1 526 0
 5045 004c 807F0010 		lwz 3,16(31)
 5046 0050 7FA4EB78 		mr 4,29
 5047 0054 81230000 		lwz 9,0(3)
 5048 0058 80090010 		lwz 0,16(9)
 5049 005c 7C0903A6 		mtctr 0
 5050              	.LEHB22:
 5051 0060 4E800421 		bctrl
 5052              	.LEHE22:
 5053              	.LVL357:
 5054              	.LBB3127:
 5055              	.LBB3128:
 5056              		.loc 14 269 0
 5057 0064 7FE3FB78 		mr 3,31
 5058 0068 48000001 		bl _ZSt18_Rb_tree_incrementPKSt18_Rb_tree_node_base
 5059              	.LBE3128:
 5060              	.LBE3127:
 5061              		.loc 1 524 0
 5062 006c 7F9E1800 		cmpw 7,30,3
 5063              	.LBB3130:
 5064              	.LBB3129:
 5065              		.loc 14 269 0
 5066 0070 7C7F1B78 		mr 31,3
 5067              	.LVL358:
 5068              	.LBE3129:
 5069              	.LBE3130:
 5070              		.loc 1 524 0
 5071 0074 409EFFD8 		bne+ 7,.L324
 5072 0078 83FD0010 		lwz 31,16(29)
 5073              	.LVL359:
 5074              	.L296:
 5075              	.LBB3131:
 5076              	.LBB3132:
 5077              	.LBB3133:
 5078              	.LBB3134:
 5079              	.LBB3135:
 5080              	.LBB3136:
 5081              	.LBB3137:
 5082              		.loc 14 665 0
 5083 007c 3B5C0004 		addi 26,28,4
 5084              	.LBE3137:
 5085              	.LBE3136:
 5086              		.loc 14 1500 0
 5087 0080 7F9ED000 		cmpw 7,30,26
 5088 0084 419E00A0 		beq- 7,.L298
 5089              	.LVL360:
 5090              		.loc 14 1503 0
 5091 0088 7F9EF800 		cmpw 7,30,31
 5092 008c 40BE000C 		bne+ 7,.L326
 5093 0090 48000038 		b .L299
 5094              	.LVL361:
 5095              	.L321:
 5096              		.loc 14 277 0
 5097 0094 7F7FDB78 		mr 31,27
 5098              	.LVL362:
 5099              	.L326:
 5100              	.LBB3138:
 5101              	.LBB3139:
 5102 0098 7FE3FB78 		mr 3,31
 5103 009c 48000001 		bl _ZSt18_Rb_tree_incrementPKSt18_Rb_tree_node_base
 5104              	.LBE3139:
 5105              	.LBE3138:
 5106              	.LBB3141:
 5107              	.LBB3142:
 5108              	.LBB3143:
 5109              		.loc 14 1489 0
 5110 00a0 7F44D378 		mr 4,26
 5111              	.LBE3143:
 5112              	.LBE3142:
 5113              	.LBE3141:
 5114              	.LBB3152:
 5115              	.LBB3140:
 5116              		.loc 14 277 0
 5117 00a4 7C7B1B78 		mr 27,3
 5118              	.LVL363:
 5119              	.LBE3140:
 5120              	.LBE3152:
 5121              	.LBB3153:
 5122              	.LBB3150:
 5123              	.LBB3148:
 5124              		.loc 14 1489 0
 5125 00a8 7FE3FB78 		mr 3,31
 5126              	.LVL364:
 5127 00ac 48000001 		bl _ZSt28_Rb_tree_rebalance_for_erasePSt18_Rb_tree_node_baseRS_
 5128              	.LBB3144:
 5129              	.LBB3145:
 5130              	.LBB3146:
 5131              	.LBB3147:
 5132              		.loc 13 98 0
 5133 00b0 48000001 		bl _ZdlPv
 5134              	.LBE3147:
 5135              	.LBE3146:
 5136              	.LBE3145:
 5137              	.LBE3144:
 5138              	.LBE3148:
 5139              	.LBE3150:
 5140              	.LBE3153:
 5141              		.loc 14 1503 0
 5142 00b4 7F9ED800 		cmpw 7,30,27
 5143              	.LBB3154:
 5144              	.LBB3151:
 5145              	.LBB3149:
 5146              		.loc 14 1491 0
 5147 00b8 813C0014 		lwz 9,20(28)
 5148 00bc 3809FFFF 		addi 0,9,-1
 5149 00c0 901C0014 		stw 0,20(28)
 5150              	.LBE3149:
 5151              	.LBE3151:
 5152              	.LBE3154:
 5153              		.loc 14 1503 0
 5154 00c4 409EFFD0 		bne+ 7,.L321
 5155              	.LVL365:
 5156              	.L299:
 5157              	.LBE3135:
 5158              	.LBE3134:
 5159              	.LBE3133:
 5160              	.LBE3132:
 5161              	.LBE3131:
 5162              	.LBB3163:
 5163              	.LBB3164:
 5164              	.LBB3165:
 5165              		.loc 1 343 0
 5166 00c8 813D0000 		lwz 9,0(29)
 5167 00cc 7FA3EB78 		mr 3,29
 5168 00d0 8009000C 		lwz 0,12(9)
 5169 00d4 7C0903A6 		mtctr 0
 5170              	.LEHB23:
 5171 00d8 4E800421 		bctrl
 5172              	.LEHE23:
 5173              	.LVL366:
 5174              	.LBE3165:
 5175              	.LBE3164:
 5176              	.LBE3163:
 5177              	.LBE3120:
 5178              	.LBE3119:
 5179              	.LBB3172:
 5180              	.LBB3173:
 5181              	.LBB3174:
 5182              	.LBB3175:
 5183              	.LBB3176:
 5184              		.loc 14 639 0
 5185 00dc 809D000C 		lwz 4,12(29)
 5186 00e0 7F83E378 		mr 3,28
 5187 00e4 48000001 		bl _ZNSt8_Rb_treeIPN7sigslot12_signal_baseINS0_15single_threadedEEES4_St9_IdentityIS4_ESt4lessIS4_
 5188              	.LVL367:
 5189              	.LBE3176:
 5190              	.LBE3175:
 5191              	.LBE3174:
 5192              	.LBE3173:
 5193              	.LBE3172:
 5194              	.LBB3177:
 5195              	.LBB3178:
 5196              	.LBB3179:
 5197              		.loc 1 105 0
 5198 00e8 3D200000 		lis 9,_ZTVN7sigslot15single_threadedE+8@ha
 5199 00ec 38090008 		la 0,_ZTVN7sigslot15single_threadedE+8@l(9)
 5200              	.LBE3179:
 5201              	.LBE3178:
 5202              	.LBE3177:
 5203              	.LBE3195:
 5204              	.LBE3199:
 5205              	.LBE3203:
 5206              		.loc 1 516 0
 5207 00f0 7FA3EB78 		mr 3,29
 5208              	.LBB3204:
 5209              	.LBB3200:
 5210              	.LBB3196:
 5211              	.LBB3182:
 5212              	.LBB3181:
 5213              	.LBB3180:
 5214              		.loc 1 105 0
 5215 00f4 901D0000 		stw 0,0(29)
 5216              	.LBE3180:
 5217              	.LBE3181:
 5218              	.LBE3182:
 5219              	.LBE3196:
 5220              	.LBE3200:
 5221              	.LBE3204:
 5222              		.loc 1 516 0
 5223 00f8 48000001 		bl _ZdlPv
 5224 00fc 80010024 		lwz 0,36(1)
 5225 0100 83410008 		lwz 26,8(1)
 5226 0104 7C0803A6 		mtlr 0
 5227 0108 8361000C 		lwz 27,12(1)
 5228 010c 83810010 		lwz 28,16(1)
 5229              	.LVL368:
 5230 0110 83A10014 		lwz 29,20(1)
 5231              	.LVL369:
 5232 0114 83C10018 		lwz 30,24(1)
 5233              	.LVL370:
 5234 0118 83E1001C 		lwz 31,28(1)
 5235 011c 38210020 		addi 1,1,32
 5236              		.cfi_remember_state
 5237              	.LCFI79:
 5238              		.cfi_def_cfa_offset 0
 5239              		.cfi_restore 31
 5240              		.cfi_restore 30
 5241              		.cfi_restore 29
 5242              		.cfi_restore 28
 5243              		.cfi_restore 27
 5244              		.cfi_restore 26
 5245 0120 4E800020 		blr
 5246              	.LVL371:
 5247              	.L298:
 5248              	.LCFI80:
 5249              		.cfi_restore_state
 5250              	.LBB3205:
 5251              	.LBB3201:
 5252              	.LBB3197:
 5253              	.LBB3183:
 5254              	.LBB3170:
 5255              	.LBB3166:
 5256              	.LBB3162:
 5257              	.LBB3161:
 5258              	.LBB3160:
 5259              	.LBB3159:
 5260              	.LBB3155:
 5261              	.LBB3156:
 5262              	.LBB3157:
 5263              	.LBB3158:
 5264              		.loc 14 809 0
 5265 0124 809D000C 		lwz 4,12(29)
 5266 0128 7F83E378 		mr 3,28
 5267 012c 48000001 		bl _ZNSt8_Rb_treeIPN7sigslot12_signal_baseINS0_15single_threadedEEES4_St9_IdentityIS4_ESt4lessIS4_
 5268              	.LVL372:
 5269              		.loc 14 811 0
 5270 0130 38000000 		li 0,0
 5271              		.loc 14 810 0
 5272 0134 93DD0010 		stw 30,16(29)
 5273              	.LVL373:
 5274              		.loc 14 811 0
 5275 0138 901D000C 		stw 0,12(29)
 5276              	.LVL374:
 5277              		.loc 14 812 0
 5278 013c 93DD0014 		stw 30,20(29)
 5279              		.loc 14 813 0
 5280 0140 901D0018 		stw 0,24(29)
 5281 0144 4BFFFF84 		b .L299
 5282              	.LVL375:
 5283              	.L322:
 5284 0148 7C7F1B78 		mr 31,3
 5285              	.L306:
 5286              	.LVL376:
 5287              	.LBE3158:
 5288              	.LBE3157:
 5289              	.LBE3156:
 5290              	.LBE3155:
 5291              	.LBE3159:
 5292              	.LBE3160:
 5293              	.LBE3161:
 5294              	.LBE3162:
 5295              	.LBE3166:
 5296              	.LBE3170:
 5297              	.LBE3183:
 5298              	.LBB3184:
 5299              	.LBB3185:
 5300              	.LBB3186:
 5301              	.LBB3187:
 5302              	.LBB3188:
 5303              	.LBB3189:
 5304              		.loc 14 639 0
 5305 014c 809D000C 		lwz 4,12(29)
 5306 0150 7F83E378 		mr 3,28
 5307 0154 48000001 		bl _ZNSt8_Rb_treeIPN7sigslot12_signal_baseINS0_15single_threadedEEES4_St9_IdentityIS4_ESt4lessIS4_
 5308              	.LVL377:
 5309              	.LBE3189:
 5310              	.LBE3188:
 5311              	.LBE3187:
 5312              	.LBE3186:
 5313              	.LBE3185:
 5314              	.LBE3184:
 5315              	.LBB3190:
 5316              	.LBB3191:
 5317              	.LBB3192:
 5318              		.loc 1 105 0
 5319 0158 3D200000 		lis 9,_ZTVN7sigslot15single_threadedE+8@ha
 5320 015c 38090008 		la 0,_ZTVN7sigslot15single_threadedE+8@l(9)
 5321 0160 7FE3FB78 		mr 3,31
 5322 0164 901D0000 		stw 0,0(29)
 5323              	.LEHB24:
 5324 0168 48000001 		bl _Unwind_Resume
 5325              	.LEHE24:
 5326              	.LVL378:
 5327              	.L323:
 5328              	.LBE3192:
 5329              	.LBE3191:
 5330              	.LBE3190:
 5331              	.LBB3193:
 5332              	.LBB3171:
 5333              	.LBB3167:
 5334              	.LBB3168:
 5335              	.LBB3169:
 5336              		.loc 1 343 0
 5337 016c 813D0000 		lwz 9,0(29)
 5338 0170 7C7F1B78 		mr 31,3
 5339              	.LVL379:
 5340 0174 7FA3EB78 		mr 3,29
 5341 0178 8009000C 		lwz 0,12(9)
 5342 017c 7C0903A6 		mtctr 0
 5343 0180 4E800421 		bctrl
 5344 0184 4BFFFFC8 		b .L306
 5345              	.LBE3169:
 5346              	.LBE3168:
 5347              	.LBE3167:
 5348              	.LBE3171:
 5349              	.LBE3193:
 5350              	.LBE3197:
 5351              	.LBE3201:
 5352              	.LBE3205:
 5353              		.cfi_endproc
 5354              	.LFE1654:
 5355              		.section	.gcc_except_table
 5356              	.LLSDA1654:
 5357 0088 FF       		.byte	0xff
 5358 0089 FF       		.byte	0xff
 5359 008a 01       		.byte	0x1
 5360 008b 15       		.uleb128 .LLSDACSE1654-.LLSDACSB1654
 5361              	.LLSDACSB1654:
 5362 008c 38       		.uleb128 .LEHB21-.LFB1654
 5363 008d 04       		.uleb128 .LEHE21-.LEHB21
 5364 008e C802     		.uleb128 .L322-.LFB1654
 5365 0090 00       		.uleb128 0
 5366 0091 60       		.uleb128 .LEHB22-.LFB1654
 5367 0092 04       		.uleb128 .LEHE22-.LEHB22
 5368 0093 EC02     		.uleb128 .L323-.LFB1654
 5369 0095 00       		.uleb128 0
 5370 0096 D801     		.uleb128 .LEHB23-.LFB1654
 5371 0098 04       		.uleb128 .LEHE23-.LEHB23
 5372 0099 C802     		.uleb128 .L322-.LFB1654
 5373 009b 00       		.uleb128 0
 5374 009c E802     		.uleb128 .LEHB24-.LFB1654
 5375 009e 04       		.uleb128 .LEHE24-.LEHB24
 5376 009f 00       		.uleb128 0
 5377 00a0 00       		.uleb128 0
 5378              	.LLSDACSE1654:
 5379              		.section	.text._ZN7sigslot9has_slotsINS_15single_threadedEED0Ev,"axG",@progbits,_ZN7sigslot9has_sl
 5380              		.size	_ZN7sigslot9has_slotsINS_15single_threadedEED0Ev, .-_ZN7sigslot9has_slotsINS_15single_thread
 5381              		.section	".text"
 5382              		.align 2
 5383              		.globl _ZThn176_N14ProgressWindowD1Ev
 5384              		.type	_ZThn176_N14ProgressWindowD1Ev, @function
 5385              	_ZThn176_N14ProgressWindowD1Ev:
 5386              	.LFB2176:
 5387              		.cfi_startproc
 5388 0be8 3863FF50 		addi 3,3,-176
 5389 0bec 48000004 		b .LTHUNK0
 5390              		.cfi_endproc
 5391              	.LFE2176:
 5392              		.size	_ZThn176_N14ProgressWindowD1Ev, .-_ZThn176_N14ProgressWindowD1Ev
 5393              		.align 2
 5394              		.globl _ZN14ProgressWindowD2Ev
 5395              		.type	_ZN14ProgressWindowD2Ev, @function
 5396              	_ZN14ProgressWindowD2Ev:
 5397              	.LFB1603:
 5398              		.loc 5 68 0
 5399              		.cfi_startproc
 5400              		.cfi_personality 0,__gxx_personality_v0
 5401              		.cfi_lsda 0,.LLSDA1603
 5402              	.LVL380:
 5403 0bf0 7C0802A6 		mflr 0
 5404 0bf4 9421FFE8 		stwu 1,-24(1)
 5405              	.LCFI81:
 5406              		.cfi_def_cfa_offset 24
 5407              		.cfi_register 65, 0
 5408              	.LBB3317:
 5409 0bf8 3D200000 		lis 9,_ZTV14ProgressWindow+8@ha
 5410 0bfc 39290008 		la 9,_ZTV14ProgressWindow+8@l(9)
 5411              	.LBE3317:
 5412 0c00 93810008 		stw 28,8(1)
 5413 0c04 9001001C 		stw 0,28(1)
 5414              	.LBB3407:
 5415 0c08 380900E4 		addi 0,9,228
 5416              		.cfi_offset 65, 4
 5417              		.cfi_offset 28, -16
 5418              	.LBE3407:
 5419 0c0c 93A1000C 		stw 29,12(1)
 5420 0c10 7C7C1B78 		mr 28,3
 5421 0c14 93C10010 		stw 30,16(1)
 5422 0c18 93E10014 		stw 31,20(1)
 5423              	.LBB3408:
 5424              		.loc 5 68 0
 5425 0c1c 900300B0 		stw 0,176(3)
 5426              		.loc 5 70 0
 5427 0c20 38000001 		li 0,1
 5428              		.loc 5 68 0
 5429 0c24 91230000 		stw 9,0(3)
 5430              		.loc 5 70 0
 5431 0c28 980300E1 		stb 0,225(3)
 5432              	.LEHB25:
 5433              		.loc 5 71 0
 5434              		.cfi_offset 31, -4
 5435              		.cfi_offset 30, -8
 5436              		.cfi_offset 29, -12
 5437 0c2c 48000001 		bl _ZN14ProgressWindow14TryCloseWindowEv
 5438              	.LEHE25:
 5439              	.LVL381:
 5440              	.LBB3318:
 5441              	.LBB3319:
 5442              	.LBB3320:
 5443              		.loc 1 516 0
 5444 0c30 3D200000 		lis 9,_ZTVN7sigslot9has_slotsINS_15single_threadedEEE+8@ha
 5445              	.LBE3320:
 5446              	.LBE3319:
 5447              	.LBE3318:
 5448              		.loc 5 68 0
 5449 0c34 3BBC00B0 		addi 29,28,176
 5450              	.LVL382:
 5451              	.LBB3404:
 5452              	.LBB3401:
 5453              	.LBB3398:
 5454              		.loc 1 516 0
 5455 0c38 38090008 		la 0,_ZTVN7sigslot9has_slotsINS_15single_threadedEEE+8@l(9)
 5456              	.LBB3321:
 5457              	.LBB3322:
 5458              	.LBB3323:
 5459              	.LBB3324:
 5460              		.loc 1 338 0
 5461 0c3c 7FA3EB78 		mr 3,29
 5462              	.LBE3324:
 5463              	.LBE3323:
 5464              	.LBE3322:
 5465              	.LBE3321:
 5466              		.loc 1 516 0
 5467 0c40 901C00B0 		stw 0,176(28)
 5468              	.LVL383:
 5469 0c44 3BFC00B4 		addi 31,28,180
 5470              	.LEHB26:
 5471              	.LBB3376:
 5472              	.LBB3374:
 5473              	.LBB3326:
 5474              	.LBB3325:
 5475              		.loc 1 338 0
 5476 0c48 48000001 		bl _ZN7sigslot15single_threaded4lockEv
 5477              	.LEHE26:
 5478              	.LVL384:
 5479              	.LBE3325:
 5480              	.LBE3326:
 5481              	.LBB3327:
 5482              		.loc 5 404 0
 5483 0c4c 83FC00C0 		lwz 31,192(28)
 5484              	.LVL385:
 5485              	.LBE3327:
 5486              	.LBB3328:
 5487              	.LBB3329:
 5488              	.LBB3330:
 5489              		.loc 14 671 0
 5490 0c50 3BDC00B8 		addi 30,28,184
 5491              	.LVL386:
 5492              	.LBE3330:
 5493              	.LBE3329:
 5494              	.LBE3328:
 5495              		.loc 1 524 0
 5496 0c54 7F9FF000 		cmpw 7,31,30
 5497 0c58 419E0030 		beq- 7,.L331
 5498              	.LVL387:
 5499              	.L362:
 5500              		.loc 1 526 0
 5501 0c5c 807F0010 		lwz 3,16(31)
 5502 0c60 7FA4EB78 		mr 4,29
 5503 0c64 81230000 		lwz 9,0(3)
 5504 0c68 80090010 		lwz 0,16(9)
 5505 0c6c 7C0903A6 		mtctr 0
 5506              	.LEHB27:
 5507 0c70 4E800421 		bctrl
 5508              	.LEHE27:
 5509              	.LVL388:
 5510              	.LBB3331:
 5511              	.LBB3332:
 5512              		.loc 14 269 0
 5513 0c74 7FE3FB78 		mr 3,31
 5514 0c78 48000001 		bl _ZSt18_Rb_tree_incrementPKSt18_Rb_tree_node_base
 5515              	.LBE3332:
 5516              	.LBE3331:
 5517              		.loc 1 524 0
 5518 0c7c 7F9E1800 		cmpw 7,30,3
 5519              	.LBB3334:
 5520              	.LBB3333:
 5521              		.loc 14 269 0
 5522 0c80 7C7F1B78 		mr 31,3
 5523              	.LVL389:
 5524              	.LBE3333:
 5525              	.LBE3334:
 5526              		.loc 1 524 0
 5527 0c84 409EFFD8 		bne+ 7,.L362
 5528              	.LVL390:
 5529              	.L331:
 5530              	.LBB3335:
 5531              	.LBB3336:
 5532              		.file 15 "d:\\devkitpro\\devkitppc\\bin\\../lib/gcc/powerpc-eabi/4.6.3/../../../../powerpc-eabi/in
 5533              		.loc 15 562 0
 5534 0c88 3BFC00B4 		addi 31,28,180
 5535              	.LVL391:
 5536              	.LBB3337:
 5537              	.LBB3338:
 5538              	.LBB3339:
 5539              	.LBB3340:
 5540              	.LBB3341:
 5541              	.LBB3342:
 5542              	.LBB3343:
 5543              		.loc 14 809 0
 5544 0c8c 809C00BC 		lwz 4,188(28)
 5545 0c90 7FE3FB78 		mr 3,31
 5546 0c94 48000001 		bl _ZNSt8_Rb_treeIPN7sigslot12_signal_baseINS0_15single_threadedEEES4_St9_IdentityIS4_ESt4lessIS4_
 5547              	.LVL392:
 5548              		.loc 14 811 0
 5549 0c98 38000000 		li 0,0
 5550              		.loc 14 810 0
 5551 0c9c 93DC00C0 		stw 30,192(28)
 5552              	.LVL393:
 5553              	.LBE3343:
 5554              	.LBE3342:
 5555              	.LBE3341:
 5556              	.LBE3340:
 5557              	.LBE3339:
 5558              	.LBE3338:
 5559              	.LBE3337:
 5560              	.LBE3336:
 5561              	.LBE3335:
 5562              	.LBB3360:
 5563              	.LBB3361:
 5564              	.LBB3362:
 5565              		.loc 1 343 0
 5566 0ca0 7FA3EB78 		mr 3,29
 5567              	.LBE3362:
 5568              	.LBE3361:
 5569              	.LBE3360:
 5570              	.LBB3367:
 5571              	.LBB3358:
 5572              	.LBB3356:
 5573              	.LBB3354:
 5574              	.LBB3352:
 5575              	.LBB3350:
 5576              	.LBB3348:
 5577              	.LBB3346:
 5578              	.LBB3344:
 5579              		.loc 14 811 0
 5580 0ca4 901C00BC 		stw 0,188(28)
 5581              	.LVL394:
 5582              		.loc 14 812 0
 5583 0ca8 93DC00C4 		stw 30,196(28)
 5584              	.LBE3344:
 5585              	.LBE3346:
 5586              	.LBE3348:
 5587              	.LBE3350:
 5588              	.LBE3352:
 5589              	.LBE3354:
 5590              	.LBE3356:
 5591              	.LBE3358:
 5592              	.LBE3367:
 5593              	.LBB3368:
 5594              	.LBB3365:
 5595              	.LBB3363:
 5596              		.loc 1 343 0
 5597 0cac 813C00B0 		lwz 9,176(28)
 5598              	.LBE3363:
 5599              	.LBE3365:
 5600              	.LBE3368:
 5601              	.LBB3369:
 5602              	.LBB3359:
 5603              	.LBB3357:
 5604              	.LBB3355:
 5605              	.LBB3353:
 5606              	.LBB3351:
 5607              	.LBB3349:
 5608              	.LBB3347:
 5609              	.LBB3345:
 5610              		.loc 14 813 0
 5611 0cb0 901C00C8 		stw 0,200(28)
 5612              	.LVL395:
 5613              	.LBE3345:
 5614              	.LBE3347:
 5615              	.LBE3349:
 5616              	.LBE3351:
 5617              	.LBE3353:
 5618              	.LBE3355:
 5619              	.LBE3357:
 5620              	.LBE3359:
 5621              	.LBE3369:
 5622              	.LBB3370:
 5623              	.LBB3366:
 5624              	.LBB3364:
 5625              		.loc 1 343 0
 5626 0cb4 8009000C 		lwz 0,12(9)
 5627 0cb8 7C0903A6 		mtctr 0
 5628              	.LEHB28:
 5629 0cbc 4E800421 		bctrl
 5630              	.LEHE28:
 5631              	.LVL396:
 5632              	.LBE3364:
 5633              	.LBE3366:
 5634              	.LBE3370:
 5635              	.LBE3374:
 5636              	.LBE3376:
 5637              	.LBB3377:
 5638              	.LBB3378:
 5639              	.LBB3379:
 5640              	.LBB3380:
 5641              	.LBB3381:
 5642              		.loc 14 639 0
 5643 0cc0 809C00BC 		lwz 4,188(28)
 5644 0cc4 7FE3FB78 		mr 3,31
 5645 0cc8 48000001 		bl _ZNSt8_Rb_treeIPN7sigslot12_signal_baseINS0_15single_threadedEEES4_St9_IdentityIS4_ESt4lessIS4_
 5646              	.LBE3381:
 5647              	.LBE3380:
 5648              	.LBE3379:
 5649              	.LBE3378:
 5650              	.LBE3377:
 5651              	.LBB3382:
 5652              	.LBB3383:
 5653              	.LBB3384:
 5654              		.loc 1 105 0
 5655 0ccc 3D200000 		lis 9,_ZTVN7sigslot15single_threadedE+8@ha
 5656 0cd0 38090008 		la 0,_ZTVN7sigslot15single_threadedE+8@l(9)
 5657              	.LBE3384:
 5658              	.LBE3383:
 5659              	.LBE3382:
 5660              	.LBE3398:
 5661              	.LBE3401:
 5662              	.LBE3404:
 5663              		.loc 5 68 0
 5664 0cd4 7F83E378 		mr 3,28
 5665              	.LBB3405:
 5666              	.LBB3402:
 5667              	.LBB3399:
 5668              	.LBB3387:
 5669              	.LBB3386:
 5670              	.LBB3385:
 5671              		.loc 1 105 0
 5672 0cd8 901C00B0 		stw 0,176(28)
 5673              	.LEHB29:
 5674              	.LBE3385:
 5675              	.LBE3386:
 5676              	.LBE3387:
 5677              	.LBE3399:
 5678              	.LBE3402:
 5679              	.LBE3405:
 5680              		.loc 5 68 0
 5681 0cdc 48000001 		bl _ZN8GuiFrameD2Ev
 5682              	.LEHE29:
 5683              	.LBE3408:
 5684              		.loc 5 72 0
 5685 0ce0 8001001C 		lwz 0,28(1)
 5686 0ce4 83810008 		lwz 28,8(1)
 5687              	.LVL397:
 5688 0ce8 7C0803A6 		mtlr 0
 5689 0cec 83A1000C 		lwz 29,12(1)
 5690 0cf0 83C10010 		lwz 30,16(1)
 5691              	.LVL398:
 5692 0cf4 83E10014 		lwz 31,20(1)
 5693              	.LVL399:
 5694 0cf8 38210018 		addi 1,1,24
 5695              		.cfi_remember_state
 5696              	.LCFI82:
 5697              		.cfi_def_cfa_offset 0
 5698              		.cfi_restore 31
 5699              		.cfi_restore 30
 5700              		.cfi_restore 29
 5701              		.cfi_restore 28
 5702 0cfc 4E800020 		blr
 5703              	.LVL400:
 5704              	.L359:
 5705              	.LCFI83:
 5706              		.cfi_restore_state
 5707 0d00 7C7E1B78 		mr 30,3
 5708              	.LBB3409:
 5709              		.loc 5 68 0
 5710 0d04 387C00B0 		addi 3,28,176
 5711 0d08 48000001 		bl _ZN7sigslot9has_slotsINS_15single_threadedEED2Ev
 5712              	.L354:
 5713 0d0c 7F83E378 		mr 3,28
 5714 0d10 48000001 		bl _ZN8GuiFrameD2Ev
 5715 0d14 7FC3F378 		mr 3,30
 5716              	.LEHB30:
 5717 0d18 48000001 		bl _Unwind_Resume
 5718              	.LEHE30:
 5719              	.LVL401:
 5720              	.L361:
 5721              	.LBB3406:
 5722              	.LBB3403:
 5723              	.LBB3400:
 5724              	.LBB3388:
 5725              	.LBB3375:
 5726              	.LBB3371:
 5727              	.LBB3372:
 5728              	.LBB3373:
 5729              		.loc 1 343 0
 5730 0d1c 813C00B0 		lwz 9,176(28)
 5731 0d20 7C7E1B78 		mr 30,3
 5732              	.LVL402:
 5733 0d24 7FA3EB78 		mr 3,29
 5734 0d28 3BFC00B4 		addi 31,28,180
 5735              	.LVL403:
 5736 0d2c 8009000C 		lwz 0,12(9)
 5737 0d30 7C0903A6 		mtctr 0
 5738 0d34 4E800421 		bctrl
 5739              	.LVL404:
 5740              	.L341:
 5741              	.LBE3373:
 5742              	.LBE3372:
 5743              	.LBE3371:
 5744              	.LBE3375:
 5745              	.LBE3388:
 5746              	.LBB3389:
 5747              	.LBB3390:
 5748              	.LBB3391:
 5749              	.LBB3392:
 5750              	.LBB3393:
 5751              	.LBB3394:
 5752              		.loc 14 639 0
 5753 0d38 809C00BC 		lwz 4,188(28)
 5754 0d3c 7FE3FB78 		mr 3,31
 5755 0d40 48000001 		bl _ZNSt8_Rb_treeIPN7sigslot12_signal_baseINS0_15single_threadedEEES4_St9_IdentityIS4_ESt4lessIS4_
 5756              	.LBE3394:
 5757              	.LBE3393:
 5758              	.LBE3392:
 5759              	.LBE3391:
 5760              	.LBE3390:
 5761              	.LBE3389:
 5762              	.LBB3395:
 5763              	.LBB3396:
 5764              	.LBB3397:
 5765              		.loc 1 105 0
 5766 0d44 3D200000 		lis 9,_ZTVN7sigslot15single_threadedE+8@ha
 5767 0d48 38090008 		la 0,_ZTVN7sigslot15single_threadedE+8@l(9)
 5768 0d4c 901C00B0 		stw 0,176(28)
 5769 0d50 4BFFFFBC 		b .L354
 5770              	.LVL405:
 5771              	.L360:
 5772 0d54 7C7E1B78 		mr 30,3
 5773 0d58 4BFFFFE0 		b .L341
 5774              	.LBE3397:
 5775              	.LBE3396:
 5776              	.LBE3395:
 5777              	.LBE3400:
 5778              	.LBE3403:
 5779              	.LBE3406:
 5780              	.LBE3409:
 5781              		.cfi_endproc
 5782              	.LFE1603:
 5783              		.section	.gcc_except_table
 5784              	.LLSDA1603:
 5785 00a1 FF       		.byte	0xff
 5786 00a2 FF       		.byte	0xff
 5787 00a3 01       		.byte	0x1
 5788 00a4 20       		.uleb128 .LLSDACSE1603-.LLSDACSB1603
 5789              	.LLSDACSB1603:
 5790 00a5 3C       		.uleb128 .LEHB25-.LFB1603
 5791 00a6 04       		.uleb128 .LEHE25-.LEHB25
 5792 00a7 9002     		.uleb128 .L359-.LFB1603
 5793 00a9 00       		.uleb128 0
 5794 00aa 58       		.uleb128 .LEHB26-.LFB1603
 5795 00ab 04       		.uleb128 .LEHE26-.LEHB26
 5796 00ac E402     		.uleb128 .L360-.LFB1603
 5797 00ae 00       		.uleb128 0
 5798 00af 8001     		.uleb128 .LEHB27-.LFB1603
 5799 00b1 04       		.uleb128 .LEHE27-.LEHB27
 5800 00b2 AC02     		.uleb128 .L361-.LFB1603
 5801 00b4 00       		.uleb128 0
 5802 00b5 CC01     		.uleb128 .LEHB28-.LFB1603
 5803 00b7 04       		.uleb128 .LEHE28-.LEHB28
 5804 00b8 E402     		.uleb128 .L360-.LFB1603
 5805 00ba 00       		.uleb128 0
 5806 00bb EC01     		.uleb128 .LEHB29-.LFB1603
 5807 00bd 04       		.uleb128 .LEHE29-.LEHB29
 5808 00be 00       		.uleb128 0
 5809 00bf 00       		.uleb128 0
 5810 00c0 A802     		.uleb128 .LEHB30-.LFB1603
 5811 00c2 04       		.uleb128 .LEHE30-.LEHB30
 5812 00c3 00       		.uleb128 0
 5813 00c4 00       		.uleb128 0
 5814              	.LLSDACSE1603:
 5815              		.section	".text"
 5816              		.size	_ZN14ProgressWindowD2Ev, .-_ZN14ProgressWindowD2Ev
 5817              		.align 2
 5818              		.globl _ZThn176_N14ProgressWindowD0Ev
 5819              		.type	_ZThn176_N14ProgressWindowD0Ev, @function
 5820              	_ZThn176_N14ProgressWindowD0Ev:
 5821              	.LFB2178:
 5822              		.cfi_startproc
 5823 0d5c 3863FF50 		addi 3,3,-176
 5824 0d60 48000004 		b .LTHUNK1
 5825              		.cfi_endproc
 5826              	.LFE2178:
 5827              		.size	_ZThn176_N14ProgressWindowD0Ev, .-_ZThn176_N14ProgressWindowD0Ev
 5828              		.align 2
 5829              		.globl _ZN14ProgressWindowD0Ev
 5830              		.type	_ZN14ProgressWindowD0Ev, @function
 5831              	_ZN14ProgressWindowD0Ev:
 5832              	.LFB1605:
 5833              		.loc 5 68 0
 5834              		.cfi_startproc
 5835              		.cfi_personality 0,__gxx_personality_v0
 5836              		.cfi_lsda 0,.LLSDA1605
 5837              	.LVL406:
 5838 0d64 7C0802A6 		mflr 0
 5839 0d68 9421FFE8 		stwu 1,-24(1)
 5840              	.LCFI84:
 5841              		.cfi_def_cfa_offset 24
 5842              		.cfi_register 65, 0
 5843              	.LBB3514:
 5844              	.LBB3515:
 5845              	.LBB3516:
 5846 0d6c 3D200000 		lis 9,_ZTV14ProgressWindow+8@ha
 5847 0d70 39290008 		la 9,_ZTV14ProgressWindow+8@l(9)
 5848              	.LBE3516:
 5849              	.LBE3515:
 5850              	.LBE3514:
 5851 0d74 93810008 		stw 28,8(1)
 5852 0d78 9001001C 		stw 0,28(1)
 5853              	.LBB3612:
 5854              	.LBB3609:
 5855              	.LBB3606:
 5856 0d7c 380900E4 		addi 0,9,228
 5857              		.cfi_offset 65, 4
 5858              		.cfi_offset 28, -16
 5859              	.LBE3606:
 5860              	.LBE3609:
 5861              	.LBE3612:
 5862 0d80 93A1000C 		stw 29,12(1)
 5863 0d84 7C7C1B78 		mr 28,3
 5864              	.LVL407:
 5865 0d88 93C10010 		stw 30,16(1)
 5866 0d8c 93E10014 		stw 31,20(1)
 5867              	.LBB3613:
 5868              	.LBB3610:
 5869              	.LBB3607:
 5870              		.loc 5 68 0
 5871 0d90 900300B0 		stw 0,176(3)
 5872              		.loc 5 70 0
 5873 0d94 38000001 		li 0,1
 5874              		.loc 5 68 0
 5875 0d98 91230000 		stw 9,0(3)
 5876              		.loc 5 70 0
 5877 0d9c 980300E1 		stb 0,225(3)
 5878              	.LEHB31:
 5879              		.loc 5 71 0
 5880              		.cfi_offset 31, -4
 5881              		.cfi_offset 30, -8
 5882              		.cfi_offset 29, -12
 5883 0da0 48000001 		bl _ZN14ProgressWindow14TryCloseWindowEv
 5884              	.LEHE31:
 5885              	.LVL408:
 5886              	.LBB3517:
 5887              	.LBB3518:
 5888              	.LBB3519:
 5889              		.loc 1 516 0
 5890 0da4 3D200000 		lis 9,_ZTVN7sigslot9has_slotsINS_15single_threadedEEE+8@ha
 5891              	.LBE3519:
 5892              	.LBE3518:
 5893              	.LBE3517:
 5894              		.loc 5 68 0
 5895 0da8 3BBC00B0 		addi 29,28,176
 5896              	.LVL409:
 5897              	.LBB3603:
 5898              	.LBB3600:
 5899              	.LBB3597:
 5900              		.loc 1 516 0
 5901 0dac 38090008 		la 0,_ZTVN7sigslot9has_slotsINS_15single_threadedEEE+8@l(9)
 5902              	.LBB3520:
 5903              	.LBB3521:
 5904              	.LBB3522:
 5905              	.LBB3523:
 5906              		.loc 1 338 0
 5907 0db0 7FA3EB78 		mr 3,29
 5908              	.LBE3523:
 5909              	.LBE3522:
 5910              	.LBE3521:
 5911              	.LBE3520:
 5912              		.loc 1 516 0
 5913 0db4 901C00B0 		stw 0,176(28)
 5914              	.LVL410:
 5915 0db8 3BFC00B4 		addi 31,28,180
 5916              	.LVL411:
 5917              	.LEHB32:
 5918              	.LBB3575:
 5919              	.LBB3573:
 5920              	.LBB3525:
 5921              	.LBB3524:
 5922              		.loc 1 338 0
 5923 0dbc 48000001 		bl _ZN7sigslot15single_threaded4lockEv
 5924              	.LEHE32:
 5925              	.LVL412:
 5926              	.LBE3524:
 5927              	.LBE3525:
 5928              	.LBB3526:
 5929              		.loc 5 404 0
 5930 0dc0 83FC00C0 		lwz 31,192(28)
 5931              	.LVL413:
 5932              	.LBE3526:
 5933              	.LBB3527:
 5934              	.LBB3528:
 5935              	.LBB3529:
 5936              		.loc 14 671 0
 5937 0dc4 3BDC00B8 		addi 30,28,184
 5938              	.LVL414:
 5939              	.LBE3529:
 5940              	.LBE3528:
 5941              	.LBE3527:
 5942              		.loc 1 524 0
 5943 0dc8 7F9FF000 		cmpw 7,31,30
 5944 0dcc 419E0030 		beq- 7,.L368
 5945              	.LVL415:
 5946              	.L400:
 5947              		.loc 1 526 0
 5948 0dd0 807F0010 		lwz 3,16(31)
 5949 0dd4 7FA4EB78 		mr 4,29
 5950 0dd8 81230000 		lwz 9,0(3)
 5951 0ddc 80090010 		lwz 0,16(9)
 5952 0de0 7C0903A6 		mtctr 0
 5953              	.LEHB33:
 5954 0de4 4E800421 		bctrl
 5955              	.LEHE33:
 5956              	.LVL416:
 5957              	.LBB3530:
 5958              	.LBB3531:
 5959              		.loc 14 269 0
 5960 0de8 7FE3FB78 		mr 3,31
 5961 0dec 48000001 		bl _ZSt18_Rb_tree_incrementPKSt18_Rb_tree_node_base
 5962              	.LBE3531:
 5963              	.LBE3530:
 5964              		.loc 1 524 0
 5965 0df0 7F9E1800 		cmpw 7,30,3
 5966              	.LBB3533:
 5967              	.LBB3532:
 5968              		.loc 14 269 0
 5969 0df4 7C7F1B78 		mr 31,3
 5970              	.LVL417:
 5971              	.LBE3532:
 5972              	.LBE3533:
 5973              		.loc 1 524 0
 5974 0df8 409EFFD8 		bne+ 7,.L400
 5975              	.LVL418:
 5976              	.L368:
 5977              	.LBB3534:
 5978              	.LBB3535:
 5979              		.loc 15 562 0
 5980 0dfc 3BFC00B4 		addi 31,28,180
 5981              	.LVL419:
 5982              	.LBB3536:
 5983              	.LBB3537:
 5984              	.LBB3538:
 5985              	.LBB3539:
 5986              	.LBB3540:
 5987              	.LBB3541:
 5988              	.LBB3542:
 5989              		.loc 14 809 0
 5990 0e00 809C00BC 		lwz 4,188(28)
 5991 0e04 7FE3FB78 		mr 3,31
 5992 0e08 48000001 		bl _ZNSt8_Rb_treeIPN7sigslot12_signal_baseINS0_15single_threadedEEES4_St9_IdentityIS4_ESt4lessIS4_
 5993              	.LVL420:
 5994              		.loc 14 811 0
 5995 0e0c 38000000 		li 0,0
 5996              		.loc 14 810 0
 5997 0e10 93DC00C0 		stw 30,192(28)
 5998              	.LVL421:
 5999              	.LBE3542:
 6000              	.LBE3541:
 6001              	.LBE3540:
 6002              	.LBE3539:
 6003              	.LBE3538:
 6004              	.LBE3537:
 6005              	.LBE3536:
 6006              	.LBE3535:
 6007              	.LBE3534:
 6008              	.LBB3559:
 6009              	.LBB3560:
 6010              	.LBB3561:
 6011              		.loc 1 343 0
 6012 0e14 7FA3EB78 		mr 3,29
 6013              	.LBE3561:
 6014              	.LBE3560:
 6015              	.LBE3559:
 6016              	.LBB3566:
 6017              	.LBB3557:
 6018              	.LBB3555:
 6019              	.LBB3553:
 6020              	.LBB3551:
 6021              	.LBB3549:
 6022              	.LBB3547:
 6023              	.LBB3545:
 6024              	.LBB3543:
 6025              		.loc 14 811 0
 6026 0e18 901C00BC 		stw 0,188(28)
 6027              	.LVL422:
 6028              		.loc 14 812 0
 6029 0e1c 93DC00C4 		stw 30,196(28)
 6030              	.LBE3543:
 6031              	.LBE3545:
 6032              	.LBE3547:
 6033              	.LBE3549:
 6034              	.LBE3551:
 6035              	.LBE3553:
 6036              	.LBE3555:
 6037              	.LBE3557:
 6038              	.LBE3566:
 6039              	.LBB3567:
 6040              	.LBB3564:
 6041              	.LBB3562:
 6042              		.loc 1 343 0
 6043 0e20 813C00B0 		lwz 9,176(28)
 6044              	.LBE3562:
 6045              	.LBE3564:
 6046              	.LBE3567:
 6047              	.LBB3568:
 6048              	.LBB3558:
 6049              	.LBB3556:
 6050              	.LBB3554:
 6051              	.LBB3552:
 6052              	.LBB3550:
 6053              	.LBB3548:
 6054              	.LBB3546:
 6055              	.LBB3544:
 6056              		.loc 14 813 0
 6057 0e24 901C00C8 		stw 0,200(28)
 6058              	.LVL423:
 6059              	.LBE3544:
 6060              	.LBE3546:
 6061              	.LBE3548:
 6062              	.LBE3550:
 6063              	.LBE3552:
 6064              	.LBE3554:
 6065              	.LBE3556:
 6066              	.LBE3558:
 6067              	.LBE3568:
 6068              	.LBB3569:
 6069              	.LBB3565:
 6070              	.LBB3563:
 6071              		.loc 1 343 0
 6072 0e28 8009000C 		lwz 0,12(9)
 6073 0e2c 7C0903A6 		mtctr 0
 6074              	.LEHB34:
 6075 0e30 4E800421 		bctrl
 6076              	.LEHE34:
 6077              	.LVL424:
 6078              	.LBE3563:
 6079              	.LBE3565:
 6080              	.LBE3569:
 6081              	.LBE3573:
 6082              	.LBE3575:
 6083              	.LBB3576:
 6084              	.LBB3577:
 6085              	.LBB3578:
 6086              	.LBB3579:
 6087              	.LBB3580:
 6088              		.loc 14 639 0
 6089 0e34 809C00BC 		lwz 4,188(28)
 6090 0e38 7FE3FB78 		mr 3,31
 6091 0e3c 48000001 		bl _ZNSt8_Rb_treeIPN7sigslot12_signal_baseINS0_15single_threadedEEES4_St9_IdentityIS4_ESt4lessIS4_
 6092              	.LBE3580:
 6093              	.LBE3579:
 6094              	.LBE3578:
 6095              	.LBE3577:
 6096              	.LBE3576:
 6097              	.LBB3581:
 6098              	.LBB3582:
 6099              	.LBB3583:
 6100              		.loc 1 105 0
 6101 0e40 3D200000 		lis 9,_ZTVN7sigslot15single_threadedE+8@ha
 6102 0e44 38090008 		la 0,_ZTVN7sigslot15single_threadedE+8@l(9)
 6103              	.LBE3583:
 6104              	.LBE3582:
 6105              	.LBE3581:
 6106              	.LBE3597:
 6107              	.LBE3600:
 6108              	.LBE3603:
 6109              		.loc 5 68 0
 6110 0e48 7F83E378 		mr 3,28
 6111              	.LBB3604:
 6112              	.LBB3601:
 6113              	.LBB3598:
 6114              	.LBB3586:
 6115              	.LBB3585:
 6116              	.LBB3584:
 6117              		.loc 1 105 0
 6118 0e4c 901C00B0 		stw 0,176(28)
 6119              	.LEHB35:
 6120              	.LBE3584:
 6121              	.LBE3585:
 6122              	.LBE3586:
 6123              	.LBE3598:
 6124              	.LBE3601:
 6125              	.LBE3604:
 6126              		.loc 5 68 0
 6127 0e50 48000001 		bl _ZN8GuiFrameD2Ev
 6128              	.LEHE35:
 6129              	.LBE3607:
 6130              	.LBE3610:
 6131              	.LBE3613:
 6132              		.loc 5 72 0
 6133 0e54 7F83E378 		mr 3,28
 6134 0e58 48000001 		bl _ZdlPv
 6135 0e5c 8001001C 		lwz 0,28(1)
 6136 0e60 83810008 		lwz 28,8(1)
 6137              	.LVL425:
 6138 0e64 7C0803A6 		mtlr 0
 6139 0e68 83A1000C 		lwz 29,12(1)
 6140 0e6c 83C10010 		lwz 30,16(1)
 6141              	.LVL426:
 6142 0e70 83E10014 		lwz 31,20(1)
 6143              	.LVL427:
 6144 0e74 38210018 		addi 1,1,24
 6145              		.cfi_remember_state
 6146              	.LCFI85:
 6147              		.cfi_def_cfa_offset 0
 6148              		.cfi_restore 31
 6149              		.cfi_restore 30
 6150              		.cfi_restore 29
 6151              		.cfi_restore 28
 6152 0e78 4E800020 		blr
 6153              	.LVL428:
 6154              	.L397:
 6155              	.LCFI86:
 6156              		.cfi_restore_state
 6157 0e7c 7C7E1B78 		mr 30,3
 6158              	.LBB3614:
 6159              	.LBB3611:
 6160              	.LBB3608:
 6161              		.loc 5 68 0
 6162 0e80 387C00B0 		addi 3,28,176
 6163 0e84 48000001 		bl _ZN7sigslot9has_slotsINS_15single_threadedEED2Ev
 6164              	.L391:
 6165 0e88 7F83E378 		mr 3,28
 6166 0e8c 48000001 		bl _ZN8GuiFrameD2Ev
 6167 0e90 7FC3F378 		mr 3,30
 6168              	.LEHB36:
 6169 0e94 48000001 		bl _Unwind_Resume
 6170              	.LEHE36:
 6171              	.LVL429:
 6172              	.L399:
 6173              	.LBB3605:
 6174              	.LBB3602:
 6175              	.LBB3599:
 6176              	.LBB3587:
 6177              	.LBB3574:
 6178              	.LBB3570:
 6179              	.LBB3571:
 6180              	.LBB3572:
 6181              		.loc 1 343 0
 6182 0e98 813C00B0 		lwz 9,176(28)
 6183 0e9c 7C7E1B78 		mr 30,3
 6184              	.LVL430:
 6185 0ea0 7FA3EB78 		mr 3,29
 6186 0ea4 3BFC00B4 		addi 31,28,180
 6187              	.LVL431:
 6188 0ea8 8009000C 		lwz 0,12(9)
 6189 0eac 7C0903A6 		mtctr 0
 6190 0eb0 4E800421 		bctrl
 6191              	.LVL432:
 6192              	.L378:
 6193              	.LBE3572:
 6194              	.LBE3571:
 6195              	.LBE3570:
 6196              	.LBE3574:
 6197              	.LBE3587:
 6198              	.LBB3588:
 6199              	.LBB3589:
 6200              	.LBB3590:
 6201              	.LBB3591:
 6202              	.LBB3592:
 6203              	.LBB3593:
 6204              		.loc 14 639 0
 6205 0eb4 809C00BC 		lwz 4,188(28)
 6206 0eb8 7FE3FB78 		mr 3,31
 6207 0ebc 48000001 		bl _ZNSt8_Rb_treeIPN7sigslot12_signal_baseINS0_15single_threadedEEES4_St9_IdentityIS4_ESt4lessIS4_
 6208              	.LBE3593:
 6209              	.LBE3592:
 6210              	.LBE3591:
 6211              	.LBE3590:
 6212              	.LBE3589:
 6213              	.LBE3588:
 6214              	.LBB3594:
 6215              	.LBB3595:
 6216              	.LBB3596:
 6217              		.loc 1 105 0
 6218 0ec0 3D200000 		lis 9,_ZTVN7sigslot15single_threadedE+8@ha
 6219 0ec4 38090008 		la 0,_ZTVN7sigslot15single_threadedE+8@l(9)
 6220 0ec8 901C00B0 		stw 0,176(28)
 6221 0ecc 4BFFFFBC 		b .L391
 6222              	.LVL433:
 6223              	.L398:
 6224 0ed0 7C7E1B78 		mr 30,3
 6225 0ed4 4BFFFFE0 		b .L378
 6226              	.LBE3596:
 6227              	.LBE3595:
 6228              	.LBE3594:
 6229              	.LBE3599:
 6230              	.LBE3602:
 6231              	.LBE3605:
 6232              	.LBE3608:
 6233              	.LBE3611:
 6234              	.LBE3614:
 6235              		.cfi_endproc
 6236              	.LFE1605:
 6237              		.section	.gcc_except_table
 6238              	.LLSDA1605:
 6239 00c5 FF       		.byte	0xff
 6240 00c6 FF       		.byte	0xff
 6241 00c7 01       		.byte	0x1
 6242 00c8 20       		.uleb128 .LLSDACSE1605-.LLSDACSB1605
 6243              	.LLSDACSB1605:
 6244 00c9 3C       		.uleb128 .LEHB31-.LFB1605
 6245 00ca 04       		.uleb128 .LEHE31-.LEHB31
 6246 00cb 9802     		.uleb128 .L397-.LFB1605
 6247 00cd 00       		.uleb128 0
 6248 00ce 58       		.uleb128 .LEHB32-.LFB1605
 6249 00cf 04       		.uleb128 .LEHE32-.LEHB32
 6250 00d0 EC02     		.uleb128 .L398-.LFB1605
 6251 00d2 00       		.uleb128 0
 6252 00d3 8001     		.uleb128 .LEHB33-.LFB1605
 6253 00d5 04       		.uleb128 .LEHE33-.LEHB33
 6254 00d6 B402     		.uleb128 .L399-.LFB1605
 6255 00d8 00       		.uleb128 0
 6256 00d9 CC01     		.uleb128 .LEHB34-.LFB1605
 6257 00db 04       		.uleb128 .LEHE34-.LEHB34
 6258 00dc EC02     		.uleb128 .L398-.LFB1605
 6259 00de 00       		.uleb128 0
 6260 00df EC01     		.uleb128 .LEHB35-.LFB1605
 6261 00e1 04       		.uleb128 .LEHE35-.LEHB35
 6262 00e2 00       		.uleb128 0
 6263 00e3 00       		.uleb128 0
 6264 00e4 B002     		.uleb128 .LEHB36-.LFB1605
 6265 00e6 04       		.uleb128 .LEHE36-.LEHB36
 6266 00e7 00       		.uleb128 0
 6267 00e8 00       		.uleb128 0
 6268              	.LLSDACSE1605:
 6269              		.section	".text"
 6270              		.size	_ZN14ProgressWindowD0Ev, .-_ZN14ProgressWindowD0Ev
 6271              		.section	.text._ZNSt8_Rb_treeIPN7sigslot12_signal_baseINS0_15single_threadedEEES4_St9_IdentityIS4_
 6272              		.align 2
 6273              		.weak	_ZNSt8_Rb_treeIPN7sigslot12_signal_baseINS0_15single_threadedEEES4_St9_IdentityIS4_ESt4lessI
 6274              		.type	_ZNSt8_Rb_treeIPN7sigslot12_signal_baseINS0_15single_threadedEEES4_St9_IdentityIS4_ESt4lessI
 6275              	_ZNSt8_Rb_treeIPN7sigslot12_signal_baseINS0_15single_threadedEEES4_St9_IdentityIS4_ESt4lessIS4_ESaI
 6276              	.LFB1832:
 6277              		.loc 14 1264 0
 6278              		.cfi_startproc
 6279              	.LVL434:
 6280 0000 7C0802A6 		mflr 0
 6281 0004 9421FFE0 		stwu 1,-32(1)
 6282              	.LCFI87:
 6283              		.cfi_def_cfa_offset 32
 6284              		.cfi_register 65, 0
 6285 0008 93810010 		stw 28,16(1)
 6286 000c 90010024 		stw 0,36(1)
 6287 0010 9361000C 		stw 27,12(1)
 6288 0014 7C9B2378 		mr 27,4
 6289              		.cfi_offset 27, -20
 6290              		.cfi_offset 65, 4
 6291              		.cfi_offset 28, -16
 6292              	.LBB3654:
 6293              	.LBB3655:
 6294              	.LBB3656:
 6295              		.loc 5 404 0
 6296 0018 83830008 		lwz 28,8(3)
 6297              	.LVL435:
 6298              	.LBE3656:
 6299              	.LBE3655:
 6300              	.LBE3654:
 6301              		.loc 14 1264 0
 6302 001c 93A10014 		stw 29,20(1)
 6303              	.LBB3681:
 6304              	.LBB3673:
 6305              	.LBB3669:
 6306              		.loc 14 1272 0
 6307 0020 3BA30004 		addi 29,3,4
 6308              		.cfi_offset 29, -12
 6309              	.LVL436:
 6310              	.LBE3669:
 6311              	.LBE3673:
 6312              		.loc 14 1274 0
 6313 0024 2F9C0000 		cmpwi 7,28,0
 6314              	.LBE3681:
 6315              		.loc 14 1264 0
 6316 0028 93E1001C 		stw 31,28(1)
 6317 002c 93410008 		stw 26,8(1)
 6318 0030 7C7F1B78 		mr 31,3
 6319              		.cfi_offset 26, -24
 6320              		.cfi_offset 31, -4
 6321 0034 93C10018 		stw 30,24(1)
 6322              	.LBB3682:
 6323              		.loc 14 1274 0
 6324 0038 419E0084 		beq- 7,.L418
 6325              		.cfi_offset 30, -8
 6326 003c 81440000 		lwz 10,0(4)
 6327 0040 48000014 		b .L407
 6328              	.LVL437:
 6329              	.L426:
 6330              		.loc 5 404 0 discriminator 1
 6331 0044 801C0008 		lwz 0,8(28)
 6332              	.LVL438:
 6333              		.loc 14 1274 0 discriminator 1
 6334 0048 2F800000 		cmpwi 7,0,0
 6335 004c 419E0028 		beq- 7,.L425
 6336              	.LVL439:
 6337              	.L419:
 6338              		.loc 14 1274 0 is_stmt 0
 6339 0050 7C1C0378 		mr 28,0
 6340              	.LVL440:
 6341              	.L407:
 6342              		.loc 5 404 0 is_stmt 1
 6343 0054 813C0010 		lwz 9,16(28)
 6344 0058 39600001 		li 11,1
 6345              		.loc 14 1278 0
 6346 005c 7F895040 		cmplw 7,9,10
 6347 0060 41BDFFE4 		bgt- 7,.L426
 6348              	.LVL441:
 6349              		.loc 5 404 0 discriminator 2
 6350 0064 801C000C 		lwz 0,12(28)
 6351 0068 39600000 		li 11,0
 6352              	.LVL442:
 6353              		.loc 14 1274 0 discriminator 2
 6354 006c 2F800000 		cmpwi 7,0,0
 6355 0070 409EFFE0 		bne+ 7,.L419
 6356              	.LVL443:
 6357              	.L425:
 6358              		.loc 14 1281 0
 6359 0074 2F8B0000 		cmpwi 7,11,0
 6360 0078 7F83E378 		mr 3,28
 6361              	.LVL444:
 6362 007c 409E0044 		bne- 7,.L404
 6363              	.LVL445:
 6364              		.loc 14 1289 0
 6365 0080 7F8A4840 		cmplw 7,10,9
 6366 0084 419D0060 		bgt- 7,.L427
 6367              	.LVL446:
 6368              	.L414:
 6369              		.loc 14 1292 0
 6370 0088 38000000 		li 0,0
 6371 008c 38800000 		li 4,0
 6372 0090 5004C00E 		rlwimi 4,0,24,0,7
 6373              	.LBE3682:
 6374              		.loc 14 1293 0
 6375 0094 80010024 		lwz 0,36(1)
 6376 0098 83410008 		lwz 26,8(1)
 6377 009c 7C0803A6 		mtlr 0
 6378 00a0 8361000C 		lwz 27,12(1)
 6379              	.LVL447:
 6380 00a4 83810010 		lwz 28,16(1)
 6381 00a8 83A10014 		lwz 29,20(1)
 6382 00ac 83C10018 		lwz 30,24(1)
 6383 00b0 83E1001C 		lwz 31,28(1)
 6384              	.LVL448:
 6385 00b4 38210020 		addi 1,1,32
 6386              		.cfi_remember_state
 6387              	.LCFI88:
 6388              		.cfi_def_cfa_offset 0
 6389              		.cfi_restore 31
 6390              		.cfi_restore 30
 6391              		.cfi_restore 29
 6392              		.cfi_restore 28
 6393              		.cfi_restore 27
 6394              		.cfi_restore 26
 6395 00b8 4E800020 		blr
 6396              	.LVL449:
 6397              	.L418:
 6398              	.LCFI89:
 6399              		.cfi_restore_state
 6400              	.LBB3683:
 6401              		.loc 14 1272 0
 6402 00bc 7FBCEB78 		mr 28,29
 6403              	.LVL450:
 6404              	.L404:
 6405              		.loc 14 1283 0
 6406 00c0 801F000C 		lwz 0,12(31)
 6407 00c4 7F9C0000 		cmpw 7,28,0
 6408 00c8 419E003C 		beq- 7,.L428
 6409              	.LVL451:
 6410              	.LBB3674:
 6411              	.LBB3675:
 6412              		.loc 14 203 0
 6413 00cc 7F83E378 		mr 3,28
 6414 00d0 48000001 		bl _ZSt18_Rb_tree_decrementPSt18_Rb_tree_node_base
 6415              	.LVL452:
 6416 00d4 815B0000 		lwz 10,0(27)
 6417 00d8 81230010 		lwz 9,16(3)
 6418              	.LVL453:
 6419              	.LBE3675:
 6420              	.LBE3674:
 6421              		.loc 14 1289 0
 6422 00dc 7F8A4840 		cmplw 7,10,9
 6423 00e0 409DFFA8 		ble+ 7,.L414
 6424              	.LVL454:
 6425              	.L427:
 6426              	.LBB3676:
 6427              	.LBB3670:
 6428              		.loc 14 969 0
 6429 00e4 7F9CE800 		cmpw 7,28,29
 6430 00e8 3B400001 		li 26,1
 6431 00ec 419E0038 		beq- 7,.L415
 6432              	.LVL455:
 6433              		.loc 14 1264 0
 6434 00f0 835C0010 		lwz 26,16(28)
 6435 00f4 7F5A5010 		subfc 26,26,10
 6436 00f8 7F5AD110 		subfe 26,26,26
 6437 00fc 7F5A00D0 		neg 26,26
 6438 0100 48000024 		b .L415
 6439              	.LVL456:
 6440              	.L428:
 6441              	.LBE3670:
 6442              	.LBE3676:
 6443              	.LBB3677:
 6444              	.LBB3678:
 6445              		.loc 14 969 0
 6446 0104 7F9CE800 		cmpw 7,28,29
 6447 0108 3B400001 		li 26,1
 6448 010c 419E0018 		beq- 7,.L415
 6449              	.LVL457:
 6450              		.loc 14 1264 0
 6451 0110 835B0000 		lwz 26,0(27)
 6452 0114 801C0010 		lwz 0,16(28)
 6453              	.LVL458:
 6454 0118 7F40D010 		subfc 26,0,26
 6455 011c 7F5AD110 		subfe 26,26,26
 6456 0120 7F5A00D0 		neg 26,26
 6457              	.LVL459:
 6458              	.L415:
 6459              	.LBE3678:
 6460              	.LBE3677:
 6461              	.LBB3679:
 6462              	.LBB3671:
 6463              	.LBB3657:
 6464              	.LBB3658:
 6465              	.LBB3659:
 6466              	.LBB3660:
 6467              	.LBB3661:
 6468              		.loc 13 92 0
 6469 0124 38600014 		li 3,20
 6470 0128 48000001 		bl _Znwj
 6471              	.LBE3661:
 6472              	.LBE3660:
 6473              	.LBE3659:
 6474              	.LBB3664:
 6475              	.LBB3665:
 6476              		.loc 13 108 0
 6477 012c 2F83FFF0 		cmpwi 7,3,-16
 6478              	.LBE3665:
 6479              	.LBE3664:
 6480              	.LBB3667:
 6481              	.LBB3663:
 6482              	.LBB3662:
 6483              		.loc 13 92 0
 6484 0130 7C7E1B78 		mr 30,3
 6485              	.LVL460:
 6486              	.LBE3662:
 6487              	.LBE3663:
 6488              	.LBE3667:
 6489              	.LBB3668:
 6490              	.LBB3666:
 6491              		.loc 13 108 0
 6492 0134 419E000C 		beq- 7,.L417
 6493 0138 801B0000 		lwz 0,0(27)
 6494 013c 90030010 		stw 0,16(3)
 6495              	.L417:
 6496              	.LVL461:
 6497              	.LBE3666:
 6498              	.LBE3668:
 6499              	.LBE3658:
 6500              	.LBE3657:
 6501              		.loc 14 973 0
 6502 0140 7F43D378 		mr 3,26
 6503              	.LVL462:
 6504 0144 7FC4F378 		mr 4,30
 6505 0148 7F85E378 		mr 5,28
 6506 014c 7FA6EB78 		mr 6,29
 6507 0150 48000001 		bl _ZSt29_Rb_tree_insert_and_rebalancebPSt18_Rb_tree_node_baseS0_RS_
 6508              		.loc 14 976 0
 6509 0154 813F0014 		lwz 9,20(31)
 6510              		.loc 14 1291 0
 6511 0158 38800000 		li 4,0
 6512 015c 7FC3F378 		mr 3,30
 6513              		.loc 14 976 0
 6514 0160 38090001 		addi 0,9,1
 6515              	.LBE3671:
 6516              	.LBE3679:
 6517              	.LBE3683:
 6518              		.loc 14 1293 0
 6519 0164 83410008 		lwz 26,8(1)
 6520              	.LVL463:
 6521              	.LBB3684:
 6522              	.LBB3680:
 6523              	.LBB3672:
 6524              		.loc 14 976 0
 6525 0168 901F0014 		stw 0,20(31)
 6526              	.LVL464:
 6527              		.loc 14 1291 0
 6528 016c 38000001 		li 0,1
 6529 0170 5004C00E 		rlwimi 4,0,24,0,7
 6530              	.LBE3672:
 6531              	.LBE3680:
 6532              	.LBE3684:
 6533              		.loc 14 1293 0
 6534 0174 80010024 		lwz 0,36(1)
 6535 0178 8361000C 		lwz 27,12(1)
 6536              	.LVL465:
 6537 017c 7C0803A6 		mtlr 0
 6538 0180 83810010 		lwz 28,16(1)
 6539 0184 83A10014 		lwz 29,20(1)
 6540 0188 83C10018 		lwz 30,24(1)
 6541              	.LVL466:
 6542 018c 83E1001C 		lwz 31,28(1)
 6543              	.LVL467:
 6544 0190 38210020 		addi 1,1,32
 6545              		.cfi_restore 26
 6546              		.cfi_restore 27
 6547              		.cfi_restore 28
 6548              		.cfi_restore 29
 6549              		.cfi_restore 30
 6550              		.cfi_restore 31
 6551              	.LCFI90:
 6552              		.cfi_def_cfa_offset 0
 6553 0194 4E800020 		blr
 6554              		.cfi_endproc
 6555              	.LFE1832:
 6556              		.size	_ZNSt8_Rb_treeIPN7sigslot12_signal_baseINS0_15single_threadedEEES4_St9_IdentityIS4_ESt4lessI
 6557              		.section	.text._ZN7sigslot7signal3IP9GuiButtoniRK6_POINTNS_15single_threadedEE7connectI14ProgressW
 6558              		.align 2
 6559              		.weak	_ZN7sigslot7signal3IP9GuiButtoniRK6_POINTNS_15single_threadedEE7connectI14ProgressWindowEEvP
 6560              		.type	_ZN7sigslot7signal3IP9GuiButtoniRK6_POINTNS_15single_threadedEE7connectI14ProgressWindowEEvP
 6561              	_ZN7sigslot7signal3IP9GuiButtoniRK6_POINTNS_15single_threadedEE7connectI14ProgressWindowEEvPT_MSA_F
 6562              	.LFB1655:
 6563              		.loc 1 2308 0
 6564              		.cfi_startproc
 6565              		.cfi_personality 0,__gxx_personality_v0
 6566              		.cfi_lsda 0,.LLSDA1655
 6567              	.LVL468:
 6568 0000 7C0802A6 		mflr 0
 6569 0004 9421FFD0 		stwu 1,-48(1)
 6570              	.LCFI91:
 6571              		.cfi_def_cfa_offset 48
 6572              		.cfi_register 65, 0
 6573 0008 9361001C 		stw 27,28(1)
 6574 000c 90010034 		stw 0,52(1)
 6575 0010 93C10028 		stw 30,40(1)
 6576 0014 7C9E2378 		mr 30,4
 6577              		.cfi_offset 30, -8
 6578              		.cfi_offset 65, 4
 6579              		.cfi_offset 27, -20
 6580              	.LBB3685:
 6581              	.LBB3686:
 6582              	.LBB3687:
 6583              		.loc 1 338 0
 6584 0018 81230000 		lwz 9,0(3)
 6585              	.LBE3687:
 6586              	.LBE3686:
 6587              	.LBE3685:
 6588              		.loc 1 2308 0
 6589 001c 93E1002C 		stw 31,44(1)
 6590 0020 7C7F1B78 		mr 31,3
 6591              		.cfi_offset 31, -4
 6592              	.LVL469:
 6593              	.LBB3740:
 6594              	.LBB3691:
 6595              	.LBB3688:
 6596              		.loc 1 338 0
 6597 0024 80090008 		lwz 0,8(9)
 6598              	.LBE3688:
 6599              	.LBE3691:
 6600              	.LBE3740:
 6601              		.loc 1 2308 0
 6602 0028 93810020 		stw 28,32(1)
 6603 002c 93A10024 		stw 29,36(1)
 6604              	.LBB3741:
 6605              	.LBB3692:
 6606              	.LBB3689:
 6607              		.loc 1 338 0
 6608 0030 7C0903A6 		mtctr 0
 6609              	.LBE3689:
 6610              	.LBE3692:
 6611              	.LBE3741:
 6612              		.loc 1 2308 0
 6613 0034 83650000 		lwz 27,0(5)
 6614 0038 83850004 		lwz 28,4(5)
 6615              		.cfi_offset 29, -12
 6616              		.cfi_offset 28, -16
 6617              	.LEHB37:
 6618              	.LBB3742:
 6619              	.LBB3693:
 6620              	.LBB3690:
 6621              		.loc 1 338 0
 6622 003c 4E800421 		bctrl
 6623              	.LEHE37:
 6624              	.LVL470:
 6625              	.LBE3690:
 6626              	.LBE3693:
 6627              		.loc 1 2314 0
 6628 0040 38600010 		li 3,16
 6629              	.LEHB38:
 6630 0044 48000001 		bl _Znwj
 6631              	.LBB3694:
 6632              	.LBB3695:
 6633              		.loc 1 1778 0
 6634 0048 3D200000 		lis 9,_ZTVN7sigslot12_connection3I14ProgressWindowP9GuiButtoniRK6_POINTNS_15single_threadedEEE+8@h
 6635              		.loc 1 1779 0
 6636 004c 93C30004 		stw 30,4(3)
 6637              		.loc 1 1778 0
 6638 0050 38090008 		la 0,_ZTVN7sigslot12_connection3I14ProgressWindowP9GuiButtoniRK6_POINTNS_15single_threadedEEE+8@l(
 6639              		.loc 1 1780 0
 6640 0054 93630008 		stw 27,8(3)
 6641              		.loc 1 1778 0
 6642 0058 90030000 		stw 0,0(3)
 6643              	.LBE3695:
 6644              	.LBE3694:
 6645              		.loc 1 2314 0
 6646 005c 7C7D1B78 		mr 29,3
 6647              	.LVL471:
 6648              	.LBB3697:
 6649              	.LBB3696:
 6650              		.loc 1 1780 0
 6651 0060 9383000C 		stw 28,12(3)
 6652              	.LVL472:
 6653              	.LBE3696:
 6654              	.LBE3697:
 6655              	.LBB3698:
 6656              	.LBB3699:
 6657              	.LBB3700:
 6658              	.LBB3701:
 6659              	.LBB3702:
 6660              	.LBB3703:
 6661              	.LBB3704:
 6662              	.LBB3705:
 6663              		.loc 13 92 0
 6664 0064 3860000C 		li 3,12
 6665              	.LVL473:
 6666 0068 48000001 		bl _Znwj
 6667              	.LVL474:
 6668              	.LBE3705:
 6669              	.LBE3704:
 6670              	.LBE3703:
 6671              	.LBB3706:
 6672              	.LBB3707:
 6673              		.loc 13 108 0 discriminator 1
 6674 006c 2F83FFF8 		cmpwi 7,3,-8
 6675 0070 419E0008 		beq- 7,.L431
 6676              		.loc 13 108 0 is_stmt 0
 6677 0074 93A30008 		stw 29,8(3)
 6678              	.LVL475:
 6679              	.L431:
 6680              	.LBE3707:
 6681              	.LBE3706:
 6682              	.LBE3702:
 6683              	.LBE3701:
 6684              		.file 16 "d:\\devkitpro\\devkitppc\\bin\\../lib/gcc/powerpc-eabi/4.6.3/../../../../powerpc-eabi/in
 6685              		.loc 16 1516 0 is_stmt 1
 6686 0078 389F0004 		addi 4,31,4
 6687              	.LBE3700:
 6688              	.LBE3699:
 6689              	.LBE3698:
 6690              	.LBB3712:
 6691              	.LBB3713:
 6692              		.loc 1 503 0
 6693 007c 3BBE00B0 		addi 29,30,176
 6694              	.LVL476:
 6695              	.LBE3713:
 6696              	.LBE3712:
 6697              	.LBB3729:
 6698              	.LBB3710:
 6699              	.LBB3708:
 6700              		.loc 16 1516 0
 6701 0080 48000001 		bl _ZNSt8__detail15_List_node_base7_M_hookEPS0_
 6702              	.LVL477:
 6703              	.LBE3708:
 6704              	.LBE3710:
 6705              	.LBE3729:
 6706              	.LBB3730:
 6707              	.LBB3726:
 6708              	.LBB3714:
 6709              	.LBB3715:
 6710              		.loc 1 338 0
 6711 0084 813E00B0 		lwz 9,176(30)
 6712              	.LBE3715:
 6713              	.LBE3714:
 6714              	.LBE3726:
 6715              	.LBE3730:
 6716              	.LBB3731:
 6717              	.LBB3711:
 6718              	.LBB3709:
 6719              		.loc 16 1516 0
 6720 0088 93E10008 		stw 31,8(1)
 6721              	.LVL478:
 6722              	.LBE3709:
 6723              	.LBE3711:
 6724              	.LBE3731:
 6725              	.LBB3732:
 6726              	.LBB3727:
 6727              	.LBB3717:
 6728              	.LBB3716:
 6729              		.loc 1 338 0
 6730 008c 7FA3EB78 		mr 3,29
 6731 0090 80090008 		lwz 0,8(9)
 6732 0094 7C0903A6 		mtctr 0
 6733 0098 4E800421 		bctrl
 6734              	.LEHE38:
 6735              	.LVL479:
 6736              	.LBE3716:
 6737              	.LBE3717:
 6738              	.LBB3718:
 6739              	.LBB3719:
 6740              		.loc 15 410 0
 6741 009c 387E00B4 		addi 3,30,180
 6742 00a0 38810008 		addi 4,1,8
 6743              	.LEHB39:
 6744 00a4 48000001 		bl _ZNSt8_Rb_treeIPN7sigslot12_signal_baseINS0_15single_threadedEEES4_St9_IdentityIS4_ESt4lessIS4_
 6745              	.LEHE39:
 6746              	.LVL480:
 6747              	.LBE3719:
 6748              	.LBE3718:
 6749              	.LBB3720:
 6750              	.LBB3721:
 6751              	.LBB3722:
 6752              		.loc 1 343 0
 6753 00a8 813E00B0 		lwz 9,176(30)
 6754 00ac 7FA3EB78 		mr 3,29
 6755 00b0 8009000C 		lwz 0,12(9)
 6756 00b4 7C0903A6 		mtctr 0
 6757              	.LEHB40:
 6758 00b8 4E800421 		bctrl
 6759              	.LEHE40:
 6760              	.LVL481:
 6761              	.LBE3722:
 6762              	.LBE3721:
 6763              	.LBE3720:
 6764              	.LBE3727:
 6765              	.LBE3732:
 6766              	.LBB3733:
 6767              	.LBB3734:
 6768              	.LBB3735:
 6769 00bc 813F0000 		lwz 9,0(31)
 6770 00c0 7FE3FB78 		mr 3,31
 6771 00c4 8009000C 		lwz 0,12(9)
 6772 00c8 7C0903A6 		mtctr 0
 6773              	.LEHB41:
 6774 00cc 4E800421 		bctrl
 6775              	.LEHE41:
 6776              	.LBE3735:
 6777              	.LBE3734:
 6778              	.LBE3733:
 6779              	.LBE3742:
 6780              		.loc 1 2317 0
 6781 00d0 80010034 		lwz 0,52(1)
 6782 00d4 8361001C 		lwz 27,28(1)
 6783              	.LVL482:
 6784 00d8 7C0803A6 		mtlr 0
 6785 00dc 83810020 		lwz 28,32(1)
 6786              	.LVL483:
 6787 00e0 83A10024 		lwz 29,36(1)
 6788              	.LVL484:
 6789 00e4 83C10028 		lwz 30,40(1)
 6790              	.LVL485:
 6791 00e8 83E1002C 		lwz 31,44(1)
 6792              	.LVL486:
 6793 00ec 38210030 		addi 1,1,48
 6794              		.cfi_remember_state
 6795              	.LCFI92:
 6796              		.cfi_def_cfa_offset 0
 6797              		.cfi_restore 31
 6798              		.cfi_restore 30
 6799              		.cfi_restore 29
 6800              		.cfi_restore 28
 6801              		.cfi_restore 27
 6802 00f0 4E800020 		blr
 6803              	.LVL487:
 6804              	.L438:
 6805              	.LCFI93:
 6806              		.cfi_restore_state
 6807 00f4 7C7E1B78 		mr 30,3
 6808              	.LVL488:
 6809              	.L435:
 6810              	.LBB3743:
 6811              	.LBB3736:
 6812              	.LBB3737:
 6813              	.LBB3738:
 6814              		.loc 1 343 0
 6815 00f8 813F0000 		lwz 9,0(31)
 6816 00fc 7FE3FB78 		mr 3,31
 6817 0100 8009000C 		lwz 0,12(9)
 6818 0104 7C0903A6 		mtctr 0
 6819 0108 4E800421 		bctrl
 6820 010c 7FC3F378 		mr 3,30
 6821              	.LEHB42:
 6822 0110 48000001 		bl _Unwind_Resume
 6823              	.LEHE42:
 6824              	.LVL489:
 6825              	.L439:
 6826              	.LBE3738:
 6827              	.LBE3737:
 6828              	.LBE3736:
 6829              	.LBB3739:
 6830              	.LBB3728:
 6831              	.LBB3723:
 6832              	.LBB3724:
 6833              	.LBB3725:
 6834 0114 813E00B0 		lwz 9,176(30)
 6835 0118 7C7E1B78 		mr 30,3
 6836              	.LVL490:
 6837 011c 7FA3EB78 		mr 3,29
 6838 0120 8009000C 		lwz 0,12(9)
 6839 0124 7C0903A6 		mtctr 0
 6840 0128 4E800421 		bctrl
 6841 012c 4BFFFFCC 		b .L435
 6842              	.LBE3725:
 6843              	.LBE3724:
 6844              	.LBE3723:
 6845              	.LBE3728:
 6846              	.LBE3739:
 6847              	.LBE3743:
 6848              		.cfi_endproc
 6849              	.LFE1655:
 6850              		.section	.gcc_except_table
 6851              	.LLSDA1655:
 6852 00e9 FF       		.byte	0xff
 6853 00ea FF       		.byte	0xff
 6854 00eb 01       		.byte	0x1
 6855 00ec 1F       		.uleb128 .LLSDACSE1655-.LLSDACSB1655
 6856              	.LLSDACSB1655:
 6857 00ed 3C       		.uleb128 .LEHB37-.LFB1655
 6858 00ee 04       		.uleb128 .LEHE37-.LEHB37
 6859 00ef 00       		.uleb128 0
 6860 00f0 00       		.uleb128 0
 6861 00f1 44       		.uleb128 .LEHB38-.LFB1655
 6862 00f2 58       		.uleb128 .LEHE38-.LEHB38
 6863 00f3 F401     		.uleb128 .L438-.LFB1655
 6864 00f5 00       		.uleb128 0
 6865 00f6 A401     		.uleb128 .LEHB39-.LFB1655
 6866 00f8 04       		.uleb128 .LEHE39-.LEHB39
 6867 00f9 9402     		.uleb128 .L439-.LFB1655
 6868 00fb 00       		.uleb128 0
 6869 00fc B801     		.uleb128 .LEHB40-.LFB1655
 6870 00fe 04       		.uleb128 .LEHE40-.LEHB40
 6871 00ff F401     		.uleb128 .L438-.LFB1655
 6872 0101 00       		.uleb128 0
 6873 0102 CC01     		.uleb128 .LEHB41-.LFB1655
 6874 0104 04       		.uleb128 .LEHE41-.LEHB41
 6875 0105 00       		.uleb128 0
 6876 0106 00       		.uleb128 0
 6877 0107 9002     		.uleb128 .LEHB42-.LFB1655
 6878 0109 04       		.uleb128 .LEHE42-.LEHB42
 6879 010a 00       		.uleb128 0
 6880 010b 00       		.uleb128 0
 6881              	.LLSDACSE1655:
 6882              		.section	.text._ZN7sigslot7signal3IP9GuiButtoniRK6_POINTNS_15single_threadedEE7connectI14ProgressW
 6883              		.size	_ZN7sigslot7signal3IP9GuiButtoniRK6_POINTNS_15single_threadedEE7connectI14ProgressWindowEEvP
 6884              		.section	".text"
 6885              		.align 2
 6886              		.globl _ZN14ProgressWindow13TryOpenWindowEv
 6887              		.type	_ZN14ProgressWindow13TryOpenWindowEv, @function
 6888              	_ZN14ProgressWindow13TryOpenWindowEv:
 6889              	.LFB1606:
 6890              		.loc 5 75 0
 6891              		.cfi_startproc
 6892              		.cfi_personality 0,__gxx_personality_v0
 6893              		.cfi_lsda 0,.LLSDA1606
 6894              	.LVL491:
 6895 0ed8 7C0802A6 		mflr 0
 6896 0edc 9421FFB0 		stwu 1,-80(1)
 6897              	.LCFI94:
 6898              		.cfi_def_cfa_offset 80
 6899              		.cfi_register 65, 0
 6900 0ee0 93E1004C 		stw 31,76(1)
 6901 0ee4 7C7F1B78 		mr 31,3
 6902              		.cfi_offset 31, -4
 6903 0ee8 90010054 		stw 0,84(1)
 6904 0eec 93210034 		stw 25,52(1)
 6905              		.loc 5 76 0
 6906 0ef0 880300E2 		lbz 0,226(3)
 6907              		.cfi_offset 25, -28
 6908              		.cfi_offset 65, 4
 6909              		.loc 5 75 0
 6910 0ef4 93410038 		stw 26,56(1)
