   1              		.file	"PromptWindows.cpp"
   2              		.section	".text"
   3              	.Ltext0:
   4              		.align 2
   5              		.globl _Z17NetworkInitPromptv
   6              		.type	_Z17NetworkInitPromptv, @function
   7              	_Z17NetworkInitPromptv:
   8              	.LFB1505:
   9              		.file 1 "d:/Projects/SaveGameManager/savegame-manager-gx/trunk/source/Prompts/PromptWindows.cpp"
  10              		.loc 1 115 0
  11              		.cfi_startproc
  12              		.cfi_personality 0,__gxx_personality_v0
  13              		.cfi_lsda 0,.LLSDA1505
  14 0000 7C0802A6 		mflr 0
  15 0004 9421FFE8 		stwu 1,-24(1)
  16              	.LCFI0:
  17              		.cfi_def_cfa_offset 24
  18              		.cfi_register 65, 0
  19 0008 93A1000C 		stw 29,12(1)
  20 000c 9001001C 		stw 0,28(1)
  21 0010 93C10010 		stw 30,16(1)
  22 0014 93E10014 		stw 31,20(1)
  23              	.LEHB0:
  24              		.loc 1 116 0
  25              		.cfi_offset 31, -4
  26              		.cfi_offset 30, -8
  27              		.cfi_offset 65, 4
  28              		.cfi_offset 29, -12
  29 0018 48000001 		bl _Z13IsNetworkInitv
  30 001c 2F830000 		cmpwi 7,3,0
  31              		.loc 1 117 0
  32 0020 38600001 		li 3,1
  33              		.loc 1 116 0
  34 0024 419E0020 		beq- 7,.L34
  35              	.L2:
  36              		.loc 1 146 0
  37 0028 8001001C 		lwz 0,28(1)
  38 002c 83A1000C 		lwz 29,12(1)
  39 0030 7C0803A6 		mtlr 0
  40 0034 83C10010 		lwz 30,16(1)
  41 0038 83E10014 		lwz 31,20(1)
  42 003c 38210018 		addi 1,1,24
  43              		.cfi_remember_state
  44              	.LCFI1:
  45              		.cfi_def_cfa_offset 0
  46              		.cfi_restore 31
  47              		.cfi_restore 30
  48              		.cfi_restore 29
  49 0040 4E800020 		blr
  50              	.L34:
  51              	.LCFI2:
  52              		.cfi_restore_state
  53              	.LBB1730:
  54              	.LBB1731:
  55              		.file 2 "d:/Projects/SaveGameManager/savegame-manager-gx/trunk/source/Prompts/ProgressWindow.h"
  56              		.loc 2 26 0
  57 0044 3FC00000 		lis 30,_ZN14ProgressWindow8instanceE@ha
  58 0048 83FE0000 		lwz 31,_ZN14ProgressWindow8instanceE@l(30)
  59 004c 2F9F0000 		cmpwi 7,31,0
  60 0050 419E0170 		beq- 7,.L35
  61              	.L3:
  62              	.LBE1731:
  63              	.LBE1730:
  64              		.loc 1 119 0
  65 0054 3C600000 		lis 3,.LC0@ha
  66 0058 38630000 		la 3,.LC0@l(3)
  67 005c 48000001 		bl gettext
  68 0060 7C7D1B78 		mr 29,3
  69 0064 3C600000 		lis 3,.LC1@ha
  70 0068 38630018 		la 3,.LC1@l(3)
  71 006c 48000001 		bl gettext
  72 0070 7FA4EB78 		mr 4,29
  73 0074 7C651B78 		mr 5,3
  74 0078 7FE3FB78 		mr 3,31
  75 007c 48000001 		bl _ZN14ProgressWindow13StartThrobberEPKcS1_
  76              		.loc 1 121 0
  77 0080 3D200000 		lis 9,Settings+1308@ha
  78 0084 A809051C 		lha 0,Settings+1308@l(9)
  79 0088 2F800000 		cmpwi 7,0,0
  80 008c 40BE001C 		bne+ 7,.L29
  81 0090 48000124 		b .L40
  82              	.L8:
  83              		.loc 1 129 0
  84 0094 881F00E1 		lbz 0,225(31)
  85 0098 2F800000 		cmpwi 7,0,0
  86 009c 409E0044 		bne- 7,.L9
  87              	.L30:
  88              		.loc 1 132 0
  89 00a0 38600032 		li 3,50
  90 00a4 48000001 		bl usleep
  91              	.L29:
  92              		.loc 1 127 0 discriminator 1
  93 00a8 48000001 		bl _Z13IsNetworkInitv
  94              	.LBB1733:
  95              	.LBB1734:
  96              		.loc 2 26 0 discriminator 1
  97 00ac 83FE0000 		lwz 31,_ZN14ProgressWindow8instanceE@l(30)
  98              	.LBE1734:
  99              	.LBE1733:
 100              		.loc 1 127 0 discriminator 1
 101 00b0 2F830000 		cmpwi 7,3,0
 102 00b4 409E002C 		bne- 7,.L9
 103              	.LBB1738:
 104              	.LBB1735:
 105              		.loc 2 26 0
 106 00b8 2F9F0000 		cmpwi 7,31,0
 107 00bc 409EFFD8 		bne+ 7,.L8
 108 00c0 386001B8 		li 3,440
 109 00c4 48000001 		bl _Znwj
 110              	.LEHE0:
 111 00c8 7C7F1B78 		mr 31,3
 112              	.LEHB1:
 113 00cc 48000001 		bl _ZN14ProgressWindowC1Ev
 114              	.LEHE1:
 115              	.LBE1735:
 116              	.LBE1738:
 117              		.loc 1 129 0
 118 00d0 881F00E1 		lbz 0,225(31)
 119              	.LBB1739:
 120              	.LBB1736:
 121              		.loc 2 26 0
 122 00d4 93FE0000 		stw 31,_ZN14ProgressWindow8instanceE@l(30)
 123              	.LBE1736:
 124              	.LBE1739:
 125              		.loc 1 129 0
 126 00d8 2F800000 		cmpwi 7,0,0
 127 00dc 419EFFC4 		beq+ 7,.L30
 128              	.L9:
 129              	.LBB1740:
 130              	.LBB1741:
 131              		.loc 2 26 0
 132 00e0 2F9F0000 		cmpwi 7,31,0
 133 00e4 419E00F4 		beq- 7,.L37
 134              	.L13:
 135              	.LBE1741:
 136              	.LBE1740:
 137              		.loc 1 135 0
 138 00e8 7FE3FB78 		mr 3,31
 139 00ec 3FA00000 		lis 29,_ZN14ProgressWindow8instanceE@ha
 140              	.LEHB2:
 141 00f0 48000001 		bl _ZN14ProgressWindow12StopProgressEv
 142 00f4 3BBD0000 		la 29,_ZN14ProgressWindow8instanceE@l(29)
 143              		.loc 1 136 0
 144 00f8 48000034 		b .L14
 145              	.L18:
 146 00fc 881F00E2 		lbz 0,226(31)
 147 0100 2F800000 		cmpwi 7,0,0
 148 0104 409E0054 		bne- 7,.L38
 149              	.L19:
 150              	.LBB1743:
 151              	.LBB1744:
 152              		.file 3 "d:/Projects/SaveGameManager/savegame-manager-gx/trunk/source/Prompts/../Controls/Applicat
 153              		.loc 3 27 0
 154 0108 3FC00000 		lis 30,_ZN11Application8instanceE@ha
 155 010c 83FE0000 		lwz 31,_ZN11Application8instanceE@l(30)
 156 0110 2F9F0000 		cmpwi 7,31,0
 157 0114 419E0088 		beq- 7,.L39
 158              	.L16:
 159              	.LBE1744:
 160              	.LBE1743:
 161              		.loc 1 137 0
 162 0118 813F0000 		lwz 9,0(31)
 163 011c 7FE3FB78 		mr 3,31
 164 0120 800900D8 		lwz 0,216(9)
 165 0124 7C0903A6 		mtctr 0
 166 0128 4E800421 		bctrl
 167              	.L14:
 168              	.LBB1746:
 169              	.LBB1747:
 170              		.loc 2 26 0 discriminator 1
 171 012c 83FD0000 		lwz 31,0(29)
 172 0130 2F9F0000 		cmpwi 7,31,0
 173 0134 409EFFC8 		bne+ 7,.L18
 174              		.loc 2 26 0 is_stmt 0
 175 0138 386001B8 		li 3,440
 176 013c 48000001 		bl _Znwj
 177              	.LEHE2:
 178 0140 7C7F1B78 		mr 31,3
 179              	.LEHB3:
 180 0144 48000001 		bl _ZN14ProgressWindowC1Ev
 181              	.LEHE3:
 182              	.LBE1747:
 183              	.LBE1746:
 184              		.loc 1 136 0 is_stmt 1
 185 0148 881F00E2 		lbz 0,226(31)
 186              	.LBB1749:
 187              	.LBB1748:
 188              		.loc 2 26 0
 189 014c 93FD0000 		stw 31,0(29)
 190              	.LBE1748:
 191              	.LBE1749:
 192              		.loc 1 136 0
 193 0150 2F800000 		cmpwi 7,0,0
 194 0154 419EFFB4 		beq+ 7,.L19
 195              	.L38:
 196              	.LEHB4:
 197              		.loc 1 139 0
 198 0158 48000001 		bl _Z13IsNetworkInitv
 199 015c 2F830000 		cmpwi 7,3,0
 200              		.loc 1 145 0
 201 0160 38600001 		li 3,1
 202              		.loc 1 139 0
 203 0164 409EFEC4 		bne+ 7,.L2
 204              		.loc 1 141 0
 205 0168 3C600000 		lis 3,.LC2@ha
 206 016c 38630028 		la 3,.LC2@l(3)
 207 0170 48000001 		bl gettext
 208 0174 4CC63182 		crxor 6,6,6
 209 0178 48000001 		bl ShowError
 210              		.loc 1 146 0
 211 017c 8001001C 		lwz 0,28(1)
 212 0180 83A1000C 		lwz 29,12(1)
 213              		.loc 1 142 0
 214 0184 38600000 		li 3,0
 215              		.loc 1 146 0
 216 0188 7C0803A6 		mtlr 0
 217 018c 83C10010 		lwz 30,16(1)
 218 0190 83E10014 		lwz 31,20(1)
 219 0194 38210018 		addi 1,1,24
 220              		.cfi_remember_state
 221              		.cfi_restore 29
 222              		.cfi_restore 30
 223              		.cfi_restore 31
 224              	.LCFI3:
 225              		.cfi_def_cfa_offset 0
 226 0198 4E800020 		blr
 227              	.L39:
 228              	.LCFI4:
 229              		.cfi_restore_state
 230              	.LBB1750:
 231              	.LBB1745:
 232              		.loc 3 27 0
 233 019c 38600278 		li 3,632
 234 01a0 48000001 		bl _Znwj
 235              	.LEHE4:
 236 01a4 7C7F1B78 		mr 31,3
 237              	.LEHB5:
 238 01a8 48000001 		bl _ZN11ApplicationC1Ev
 239              	.LEHE5:
 240 01ac 93FE0000 		stw 31,_ZN11Application8instanceE@l(30)
 241 01b0 4BFFFF68 		b .L16
 242              	.L40:
 243              	.LEHB6:
 244              	.LBE1745:
 245              	.LBE1750:
 246              		.loc 1 123 0
 247 01b4 48000001 		bl _Z17InitNetworkThreadv
 248              		.loc 1 124 0
 249 01b8 48000001 		bl _Z19ResumeNetworkThreadv
 250 01bc 4BFFFEEC 		b .L29
 251              	.L35:
 252              	.LBB1751:
 253              	.LBB1732:
 254              		.loc 2 26 0
 255 01c0 386001B8 		li 3,440
 256 01c4 48000001 		bl _Znwj
 257              	.LEHE6:
 258 01c8 7C7F1B78 		mr 31,3
 259              	.LEHB7:
 260 01cc 48000001 		bl _ZN14ProgressWindowC1Ev
 261              	.LEHE7:
 262 01d0 93FE0000 		stw 31,_ZN14ProgressWindow8instanceE@l(30)
 263 01d4 4BFFFE80 		b .L3
 264              	.L37:
 265              	.LBE1732:
 266              	.LBE1751:
 267              	.LBB1752:
 268              	.LBB1742:
 269 01d8 386001B8 		li 3,440
 270              	.LEHB8:
 271 01dc 48000001 		bl _Znwj
 272              	.LEHE8:
 273 01e0 7C7F1B78 		mr 31,3
 274              	.LEHB9:
 275 01e4 48000001 		bl _ZN14ProgressWindowC1Ev
 276              	.LEHE9:
 277 01e8 93FE0000 		stw 31,_ZN14ProgressWindow8instanceE@l(30)
 278 01ec 4BFFFEFC 		b .L13
 279              	.L28:
 280              	.L32:
 281 01f0 7C7E1B78 		mr 30,3
 282              	.LBE1742:
 283              	.LBE1752:
 284              	.LBB1753:
 285              	.LBB1737:
 286 01f4 7FE3FB78 		mr 3,31
 287 01f8 48000001 		bl _ZdlPv
 288 01fc 7FC3F378 		mr 3,30
 289              	.LEHB10:
 290 0200 48000001 		bl _Unwind_Resume
 291              	.LEHE10:
 292              	.L25:
 293 0204 4BFFFFEC 		b .L32
 294              	.L24:
 295 0208 4BFFFFE8 		b .L32
 296              	.L27:
 297 020c 4BFFFFE4 		b .L32
 298              	.L26:
 299 0210 4BFFFFE0 		b .L32
 300              	.LBE1737:
 301              	.LBE1753:
 302              		.cfi_endproc
 303              	.LFE1505:
 304              		.globl __gxx_personality_v0
 305              		.section	.gcc_except_table,"a",@progbits
 306              	.LLSDA1505:
 307 0000 FF       		.byte	0xff
 308 0001 FF       		.byte	0xff
 309 0002 01       		.byte	0x1
 310 0003 3C       		.uleb128 .LLSDACSE1505-.LLSDACSB1505
 311              	.LLSDACSB1505:
 312 0004 18       		.uleb128 .LEHB0-.LFB1505
 313 0005 B001     		.uleb128 .LEHE0-.LEHB0
 314 0007 00       		.uleb128 0
 315 0008 00       		.uleb128 0
 316 0009 CC01     		.uleb128 .LEHB1-.LFB1505
 317 000b 04       		.uleb128 .LEHE1-.LEHB1
 318 000c 8404     		.uleb128 .L25-.LFB1505
 319 000e 00       		.uleb128 0
 320 000f F001     		.uleb128 .LEHB2-.LFB1505
 321 0011 50       		.uleb128 .LEHE2-.LEHB2
 322 0012 00       		.uleb128 0
 323 0013 00       		.uleb128 0
 324 0014 C402     		.uleb128 .LEHB3-.LFB1505
 325 0016 04       		.uleb128 .LEHE3-.LEHB3
 326 0017 F003     		.uleb128 .L28-.LFB1505
 327 0019 00       		.uleb128 0
 328 001a D802     		.uleb128 .LEHB4-.LFB1505
 329 001c 4C       		.uleb128 .LEHE4-.LEHB4
 330 001d 00       		.uleb128 0
 331 001e 00       		.uleb128 0
 332 001f A803     		.uleb128 .LEHB5-.LFB1505
 333 0021 04       		.uleb128 .LEHE5-.LEHB5
 334 0022 8C04     		.uleb128 .L27-.LFB1505
 335 0024 00       		.uleb128 0
 336 0025 B403     		.uleb128 .LEHB6-.LFB1505
 337 0027 14       		.uleb128 .LEHE6-.LEHB6
 338 0028 00       		.uleb128 0
 339 0029 00       		.uleb128 0
 340 002a CC03     		.uleb128 .LEHB7-.LFB1505
 341 002c 04       		.uleb128 .LEHE7-.LEHB7
 342 002d 8804     		.uleb128 .L24-.LFB1505
 343 002f 00       		.uleb128 0
 344 0030 DC03     		.uleb128 .LEHB8-.LFB1505
 345 0032 04       		.uleb128 .LEHE8-.LEHB8
 346 0033 00       		.uleb128 0
 347 0034 00       		.uleb128 0
 348 0035 E403     		.uleb128 .LEHB9-.LFB1505
 349 0037 04       		.uleb128 .LEHE9-.LEHB9
 350 0038 9004     		.uleb128 .L26-.LFB1505
 351 003a 00       		.uleb128 0
 352 003b 8004     		.uleb128 .LEHB10-.LFB1505
 353 003d 04       		.uleb128 .LEHE10-.LEHB10
 354 003e 00       		.uleb128 0
 355 003f 00       		.uleb128 0
 356              	.LLSDACSE1505:
 357              		.section	".text"
 358              		.size	_Z17NetworkInitPromptv, .-_Z17NetworkInitPromptv
 359              		.section	.text._ZNSt6vectorIP10GuiElementSaIS1_EE13_M_insert_auxEN9__gnu_cxx17__normal_iteratorIPS
 360              		.align 2
 361              		.weak	_ZNSt6vectorIP10GuiElementSaIS1_EE13_M_insert_auxEN9__gnu_cxx17__normal_iteratorIPS1_S3_EERK
 362              		.type	_ZNSt6vectorIP10GuiElementSaIS1_EE13_M_insert_auxEN9__gnu_cxx17__normal_iteratorIPS1_S3_EERK
 363              	_ZNSt6vectorIP10GuiElementSaIS1_EE13_M_insert_auxEN9__gnu_cxx17__normal_iteratorIPS1_S3_EERKS1_:
 364              	.LFB1606:
 365              		.file 4 "d:\\devkitpro\\devkitppc\\bin\\../lib/gcc/powerpc-eabi/4.6.3/../../../../powerpc-eabi/inc
 366              		.loc 4 300 0
 367              		.cfi_startproc
 368              	.LVL0:
 369 0000 7C0802A6 		mflr 0
 370 0004 9421FFD8 		stwu 1,-40(1)
 371              	.LCFI5:
 372              		.cfi_def_cfa_offset 40
 373              		.cfi_register 65, 0
 374 0008 93610014 		stw 27,20(1)
 375 000c 9001002C 		stw 0,44(1)
 376 0010 93C10020 		stw 30,32(1)
 377              	.LBB1816:
 378              		.loc 4 304 0
 379 0014 83630004 		lwz 27,4(3)
 380              		.cfi_offset 30, -8
 381              		.cfi_offset 65, 4
 382              		.cfi_offset 27, -20
 383 0018 80030008 		lwz 0,8(3)
 384              	.LBE1816:
 385              		.loc 4 300 0
 386 001c 93E10024 		stw 31,36(1)
 387 0020 7C7F1B78 		mr 31,3
 388              		.cfi_offset 31, -4
 389              	.LBB1941:
 390              		.loc 4 304 0
 391 0024 7F9B0000 		cmpw 7,27,0
 392              	.LBE1941:
 393              		.loc 4 300 0
 394 0028 93410010 		stw 26,16(1)
 395 002c 93810018 		stw 28,24(1)
 396 0030 93A1001C 		stw 29,28(1)
 397              		.loc 4 300 0
 398 0034 83C40000 		lwz 30,0(4)
 399              	.LVL1:
 400              	.LBB1942:
 401              		.loc 4 304 0
 402 0038 419E0078 		beq- 7,.L42
 403              		.cfi_offset 29, -12
 404              		.cfi_offset 28, -16
 405              		.cfi_offset 26, -24
 406              	.LVL2:
 407              	.LBB1817:
 408              	.LBB1818:
 409              	.LBB1819:
 410              		.file 5 "d:\\devkitpro\\devkitppc\\bin\\../lib/gcc/powerpc-eabi/4.6.3/../../../../powerpc-eabi/inc
 411              		.loc 5 108 0
 412 003c 2F9B0000 		cmpwi 7,27,0
 413 0040 38600000 		li 3,0
 414              	.LVL3:
 415 0044 419E0010 		beq- 7,.L43
 416 0048 801BFFFC 		lwz 0,-4(27)
 417 004c 901B0000 		stw 0,0(27)
 418 0050 807F0004 		lwz 3,4(31)
 419              	.L43:
 420              	.LBE1819:
 421              	.LBE1818:
 422              		.loc 4 313 0
 423 0054 3803FFFC 		addi 0,3,-4
 424              		.loc 4 309 0
 425 0058 39230004 		addi 9,3,4
 426              	.LBB1820:
 427              	.LBB1821:
 428              	.LBB1822:
 429              	.LBB1823:
 430              	.LBB1824:
 431              	.LBB1825:
 432              		.file 6 "d:\\devkitpro\\devkitppc\\bin\\../lib/gcc/powerpc-eabi/4.6.3/../../../../powerpc-eabi/inc
 433              		.loc 6 559 0
 434 005c 7C1E0050 		subf 0,30,0
 435              	.LBE1825:
 436              	.LBE1824:
 437              	.LBE1823:
 438              	.LBE1822:
 439              	.LBE1821:
 440              	.LBE1820:
 441              		.loc 4 309 0
 442 0060 913F0004 		stw 9,4(31)
 443              	.LBB1841:
 444              	.LBB1838:
 445              	.LBB1835:
 446              	.LBB1832:
 447              	.LBB1829:
 448              	.LBB1826:
 449              		.loc 6 560 0
 450 0064 7C001671 		srawi. 0,0,2
 451              	.LBE1826:
 452              	.LBE1829:
 453              	.LBE1832:
 454              	.LBE1835:
 455              	.LBE1838:
 456              	.LBE1841:
 457              		.loc 4 311 0
 458 0068 83E50000 		lwz 31,0(5)
 459              	.LVL4:
 460              	.LBB1842:
 461              	.LBB1839:
 462              	.LBB1836:
 463              	.LBB1833:
 464              	.LBB1830:
 465              	.LBB1827:
 466              		.loc 6 560 0
 467 006c 40820030 		bne- 0,.L58
 468              	.LVL5:
 469              	.L44:
 470              	.LBE1827:
 471              	.LBE1830:
 472              	.LBE1833:
 473              	.LBE1836:
 474              	.LBE1839:
 475              	.LBE1842:
 476              	.LBE1817:
 477              	.LBE1942:
 478              		.loc 4 373 0
 479 0070 8001002C 		lwz 0,44(1)
 480              	.LBB1943:
 481              	.LBB1844:
 482              		.loc 4 317 0
 483 0074 93FE0000 		stw 31,0(30)
 484              	.LBE1844:
 485              	.LBE1943:
 486              		.loc 4 373 0
 487 0078 7C0803A6 		mtlr 0
 488 007c 83410010 		lwz 26,16(1)
 489 0080 83610014 		lwz 27,20(1)
 490              	.LVL6:
 491 0084 83810018 		lwz 28,24(1)
 492 0088 83A1001C 		lwz 29,28(1)
 493 008c 83C10020 		lwz 30,32(1)
 494              	.LVL7:
 495 0090 83E10024 		lwz 31,36(1)
 496              	.LVL8:
 497 0094 38210028 		addi 1,1,40
 498              		.cfi_remember_state
 499              	.LCFI6:
 500              		.cfi_def_cfa_offset 0
 501              		.cfi_restore 31
 502              		.cfi_restore 30
 503              		.cfi_restore 29
 504              		.cfi_restore 28
 505              		.cfi_restore 27
 506              		.cfi_restore 26
 507 0098 4E800020 		blr
 508              	.LVL9:
 509              	.L58:
 510              	.LCFI7:
 511              		.cfi_restore_state
 512              	.LBB1944:
 513              	.LBB1845:
 514              	.LBB1843:
 515              	.LBB1840:
 516              	.LBB1837:
 517              	.LBB1834:
 518              	.LBB1831:
 519              	.LBB1828:
 520              		.loc 6 561 0
 521 009c 5405103A 		slwi 5,0,2
 522              	.LVL10:
 523 00a0 7FC4F378 		mr 4,30
 524 00a4 7C651850 		subf 3,5,3
 525              	.LVL11:
 526 00a8 48000001 		bl memmove
 527              	.LVL12:
 528 00ac 4BFFFFC4 		b .L44
 529              	.LVL13:
 530              	.L42:
 531              	.LBE1828:
 532              	.LBE1831:
 533              	.LBE1834:
 534              	.LBE1837:
 535              	.LBE1840:
 536              	.LBE1843:
 537              	.LBE1845:
 538              	.LBB1846:
 539              	.LBB1847:
 540              	.LBB1848:
 541              	.LBB1849:
 542              	.LBB1850:
 543              		.file 7 "d:\\devkitpro\\devkitppc\\bin\\../lib/gcc/powerpc-eabi/4.6.3/../../../../powerpc-eabi/inc
 544              		.loc 7 571 0
 545 00b0 83830000 		lwz 28,0(3)
 546 00b4 7F7CD850 		subf 27,28,27
 547              	.LBE1850:
 548              	.LBE1849:
 549              	.LBB1851:
 550              	.LBB1852:
 551              		.loc 6 215 0
 552 00b8 7F7B1671 		srawi. 27,27,2
 553 00bc 418200E8 		beq- 0,.L46
 554              	.LBE1852:
 555              	.LBE1851:
 556              		.loc 7 1244 0
 557 00c0 5760083C 		slwi 0,27,1
 558              	.LVL14:
 559              		.loc 7 1245 0
 560 00c4 7F9B0040 		cmplw 7,27,0
 561 00c8 409D00EC 		ble- 7,.L59
 562              	.L47:
 563              	.LVL15:
 564              	.LBE1848:
 565              	.LBE1847:
 566              	.LBB1855:
 567              	.LBB1856:
 568              		.file 8 "d:\\devkitpro\\devkitppc\\bin\\../lib/gcc/powerpc-eabi/4.6.3/../../../../powerpc-eabi/inc
 569              		.loc 8 892 0
 570 00cc 7F9CF050 		subf 28,28,30
 571              	.LBE1856:
 572              	.LBE1855:
 573              		.loc 4 326 0
 574 00d0 3B60FFFC 		li 27,-4
 575              	.LBB1862:
 576              	.LBB1857:
 577              		.loc 8 892 0
 578 00d4 7F9C1670 		srawi 28,28,2
 579              	.LVL16:
 580              	.L53:
 581              	.LBE1857:
 582              	.LBE1862:
 583              	.LBB1863:
 584              	.LBB1864:
 585              	.LBB1865:
 586              	.LBB1866:
 587              		.loc 5 92 0
 588 00d8 7F63DB78 		mr 3,27
 589              	.LVL17:
 590 00dc 90A10008 		stw 5,8(1)
 591 00e0 48000001 		bl _Znwj
 592              	.LVL18:
 593 00e4 80A10008 		lwz 5,8(1)
 594 00e8 7C7D1B78 		mr 29,3
 595              	.L48:
 596              	.LVL19:
 597              	.LBE1866:
 598              	.LBE1865:
 599              	.LBE1864:
 600              	.LBE1863:
 601              		.loc 4 335 0
 602 00ec 579C103A 		slwi 28,28,2
 603              	.LVL20:
 604 00f0 7C1DE214 		add 0,29,28
 605              	.LVL21:
 606              	.LBB1869:
 607              	.LBB1870:
 608              		.loc 5 108 0
 609 00f4 2F800000 		cmpwi 7,0,0
 610 00f8 419E000C 		beq- 7,.L49
 611 00fc 80050000 		lwz 0,0(5)
 612              	.LVL22:
 613 0100 7C1DE12E 		stwx 0,29,28
 614              	.L49:
 615              	.LVL23:
 616              	.LBE1870:
 617              	.LBE1869:
 618              		.loc 4 343 0
 619 0104 809F0000 		lwz 4,0(31)
 620              	.LVL24:
 621              	.LBB1871:
 622              	.LBB1872:
 623              	.LBB1873:
 624              	.LBB1874:
 625              	.LBB1875:
 626              	.LBB1876:
 627              	.LBB1877:
 628              	.LBB1878:
 629              	.LBB1879:
 630              	.LBB1880:
 631              	.LBB1881:
 632              		.loc 6 365 0
 633 0108 3B800000 		li 28,0
 634              		.loc 6 364 0
 635 010c 7C04F050 		subf 0,4,30
 636              	.LVL25:
 637              		.loc 6 365 0
 638 0110 7C001671 		srawi. 0,0,2
 639              	.LVL26:
 640 0114 41A20014 		beq+ 0,.L50
 641              		.loc 6 366 0
 642 0118 541C103A 		slwi 28,0,2
 643 011c 7FA3EB78 		mr 3,29
 644 0120 7F85E378 		mr 5,28
 645              	.LVL27:
 646 0124 48000001 		bl memmove
 647              	.LVL28:
 648              	.L50:
 649              	.LBE1881:
 650              	.LBE1880:
 651              	.LBE1879:
 652              	.LBE1878:
 653              	.LBE1877:
 654              	.LBE1876:
 655              	.LBE1875:
 656              	.LBE1874:
 657              	.LBE1873:
 658              	.LBE1872:
 659              	.LBE1871:
 660              	.LBB1892:
 661              	.LBB1893:
 662              	.LBB1894:
 663              	.LBB1895:
 664              	.LBB1896:
 665              	.LBB1897:
 666              	.LBB1898:
 667              	.LBB1899:
 668              	.LBB1900:
 669              	.LBB1901:
 670              	.LBB1902:
 671              		.loc 6 364 0
 672 0128 801F0004 		lwz 0,4(31)
 673              	.LBE1902:
 674              	.LBE1901:
 675              	.LBE1900:
 676              	.LBE1899:
 677              	.LBE1898:
 678              	.LBE1897:
 679              	.LBE1896:
 680              	.LBE1895:
 681              	.LBE1894:
 682              	.LBE1893:
 683              	.LBE1892:
 684              	.LBB1923:
 685              	.LBB1891:
 686              	.LBB1890:
 687              	.LBB1889:
 688              	.LBB1888:
 689              	.LBB1887:
 690              	.LBB1886:
 691              	.LBB1885:
 692              	.LBB1884:
 693              	.LBB1883:
 694              	.LBB1882:
 695              		.loc 6 367 0
 696 012c 7F9DE214 		add 28,29,28
 697              	.LVL29:
 698              	.LBE1882:
 699              	.LBE1883:
 700              	.LBE1884:
 701              	.LBE1885:
 702              	.LBE1886:
 703              	.LBE1887:
 704              	.LBE1888:
 705              	.LBE1889:
 706              	.LBE1890:
 707              	.LBE1891:
 708              	.LBE1923:
 709              		.loc 4 347 0
 710 0130 3B5C0004 		addi 26,28,4
 711              	.LBB1924:
 712              	.LBB1921:
 713              	.LBB1919:
 714              	.LBB1917:
 715              	.LBB1915:
 716              	.LBB1913:
 717              	.LBB1911:
 718              	.LBB1909:
 719              	.LBB1907:
 720              	.LBB1905:
 721              	.LBB1903:
 722              		.loc 6 365 0
 723 0134 3B800000 		li 28,0
 724              		.loc 6 364 0
 725 0138 7C1E0050 		subf 0,30,0
 726              	.LVL30:
 727              		.loc 6 365 0
 728 013c 7C001671 		srawi. 0,0,2
 729              	.LVL31:
 730 0140 41A20018 		beq+ 0,.L51
 731              		.loc 6 366 0
 732 0144 541C103A 		slwi 28,0,2
 733 0148 7F43D378 		mr 3,26
 734 014c 7FC4F378 		mr 4,30
 735 0150 7F85E378 		mr 5,28
 736 0154 48000001 		bl memmove
 737              	.LVL32:
 738              	.L51:
 739              	.LBE1903:
 740              	.LBE1905:
 741              	.LBE1907:
 742              	.LBE1909:
 743              	.LBE1911:
 744              	.LBE1913:
 745              	.LBE1915:
 746              	.LBE1917:
 747              	.LBE1919:
 748              	.LBE1921:
 749              	.LBE1924:
 750              		.loc 4 366 0
 751 0158 807F0000 		lwz 3,0(31)
 752              	.LBB1925:
 753              	.LBB1922:
 754              	.LBB1920:
 755              	.LBB1918:
 756              	.LBB1916:
 757              	.LBB1914:
 758              	.LBB1912:
 759              	.LBB1910:
 760              	.LBB1908:
 761              	.LBB1906:
 762              	.LBB1904:
 763              		.loc 6 367 0
 764 015c 7F9AE214 		add 28,26,28
 765              	.LVL33:
 766              	.LBE1904:
 767              	.LBE1906:
 768              	.LBE1908:
 769              	.LBE1910:
 770              	.LBE1912:
 771              	.LBE1914:
 772              	.LBE1916:
 773              	.LBE1918:
 774              	.LBE1920:
 775              	.LBE1922:
 776              	.LBE1925:
 777              	.LBB1926:
 778              	.LBB1927:
 779              		.loc 7 155 0
 780 0160 2F830000 		cmpwi 7,3,0
 781 0164 419E0008 		beq- 7,.L52
 782              	.LVL34:
 783              	.LBB1928:
 784              	.LBB1929:
 785              		.loc 5 98 0
 786 0168 48000001 		bl _ZdlPv
 787              	.LVL35:
 788              	.L52:
 789              	.LBE1929:
 790              	.LBE1928:
 791              	.LBE1927:
 792              	.LBE1926:
 793              	.LBE1846:
 794              	.LBE1944:
 795              		.loc 4 373 0
 796 016c 8001002C 		lwz 0,44(1)
 797              	.LBB1945:
 798              	.LBB1938:
 799              		.loc 4 371 0
 800 0170 7F7DDA14 		add 27,29,27
 801              		.loc 4 369 0
 802 0174 93BF0000 		stw 29,0(31)
 803              	.LBE1938:
 804              	.LBE1945:
 805              		.loc 4 373 0
 806 0178 7C0803A6 		mtlr 0
 807              	.LBB1946:
 808              	.LBB1939:
 809              		.loc 4 370 0
 810 017c 939F0004 		stw 28,4(31)
 811              		.loc 4 371 0
 812 0180 937F0008 		stw 27,8(31)
 813              	.LBE1939:
 814              	.LBE1946:
 815              		.loc 4 373 0
 816 0184 83410010 		lwz 26,16(1)
 817              	.LVL36:
 818 0188 83610014 		lwz 27,20(1)
 819 018c 83810018 		lwz 28,24(1)
 820 0190 83A1001C 		lwz 29,28(1)
 821              	.LVL37:
 822 0194 83C10020 		lwz 30,32(1)
 823              	.LVL38:
 824 0198 83E10024 		lwz 31,36(1)
 825              	.LVL39:
 826 019c 38210028 		addi 1,1,40
 827              		.cfi_remember_state
 828              		.cfi_restore 26
 829              		.cfi_restore 27
 830              		.cfi_restore 28
 831              		.cfi_restore 29
 832              		.cfi_restore 30
 833              		.cfi_restore 31
 834              	.LCFI8:
 835              		.cfi_def_cfa_offset 0
 836 01a0 4E800020 		blr
 837              	.LVL40:
 838              	.L46:
 839              	.LCFI9:
 840              		.cfi_restore_state
 841              	.LBB1947:
 842              	.LBB1940:
 843              	.LBB1930:
 844              	.LBB1858:
 845              		.loc 8 892 0
 846 01a4 7F9CF050 		subf 28,28,30
 847              	.LBE1858:
 848              	.LBE1930:
 849              		.loc 4 326 0
 850 01a8 3B600004 		li 27,4
 851              	.LBB1931:
 852              	.LBB1859:
 853              		.loc 8 892 0
 854 01ac 7F9C1670 		srawi 28,28,2
 855              	.LVL41:
 856 01b0 4BFFFF28 		b .L53
 857              	.LVL42:
 858              	.L59:
 859              	.LBE1859:
 860              	.LBE1931:
 861              	.LBB1932:
 862              	.LBB1853:
 863              		.loc 7 1245 0
 864 01b4 3D203FFF 		lis 9,0x3fff
 865 01b8 6129FFFF 		ori 9,9,65535
 866 01bc 7F804840 		cmplw 7,0,9
 867 01c0 419DFF0C 		bgt+ 7,.L47
 868              	.LBE1853:
 869              	.LBE1932:
 870              	.LBB1933:
 871              	.LBB1867:
 872              		.loc 7 150 0
 873 01c4 2F800000 		cmpwi 7,0,0
 874              	.LBE1867:
 875              	.LBE1933:
 876              	.LBB1934:
 877              	.LBB1860:
 878              		.loc 8 892 0
 879 01c8 7F9CF050 		subf 28,28,30
 880              	.LBE1860:
 881              	.LBE1934:
 882              	.LBB1935:
 883              	.LBB1854:
 884              		.loc 7 1245 0
 885 01cc 577B1838 		slwi 27,27,3
 886              	.LVL43:
 887              	.LBE1854:
 888              	.LBE1935:
 889              	.LBB1936:
 890              	.LBB1861:
 891              		.loc 8 892 0
 892 01d0 7F9C1670 		srawi 28,28,2
 893              	.LVL44:
 894              	.LBE1861:
 895              	.LBE1936:
 896              	.LBB1937:
 897              	.LBB1868:
 898              		.loc 7 150 0
 899 01d4 3BA00000 		li 29,0
 900 01d8 419EFF14 		beq+ 7,.L48
 901 01dc 4BFFFEFC 		b .L53
 902              	.LBE1868:
 903              	.LBE1937:
 904              	.LBE1940:
 905              	.LBE1947:
 906              		.cfi_endproc
 907              	.LFE1606:
 908              		.size	_ZNSt6vectorIP10GuiElementSaIS1_EE13_M_insert_auxEN9__gnu_cxx17__normal_iteratorIPS1_S3_EERK
 909              		.section	".text"
 910              		.align 2
 911              		.globl _Z14OnScreenNumpadPctb
 912              		.type	_Z14OnScreenNumpadPctb, @function
 913              	_Z14OnScreenNumpadPctb:
 914              	.LFB1499:
 915              		.loc 1 46 0
 916              		.cfi_startproc
 917              		.cfi_personality 0,__gxx_personality_v0
 918              		.cfi_lsda 0,.LLSDA1499
 919              	.LVL45:
 920 0214 9421FFC8 		stwu 1,-56(1)
 921              	.LCFI10:
 922              		.cfi_def_cfa_offset 56
 923 0218 7C0802A6 		mflr 0
 924 021c 93810028 		stw 28,40(1)
 925 0220 7C7C1B78 		mr 28,3
 926              		.cfi_offset 28, -16
 927              		.cfi_register 65, 0
 928 0224 93A1002C 		stw 29,44(1)
 929              	.LBB1993:
 930              		.loc 1 48 0
 931 0228 38600270 		li 3,624
 932              	.LVL46:
 933              	.LBE1993:
 934              		.loc 1 46 0
 935 022c 7C9D2378 		mr 29,4
 936              		.cfi_offset 29, -12
 937 0230 93E10034 		stw 31,52(1)
 938 0234 7CBF2B78 		mr 31,5
 939              		.cfi_offset 31, -4
 940 0238 93C10030 		stw 30,48(1)
 941 023c 9001003C 		stw 0,60(1)
 942 0240 93610024 		stw 27,36(1)
 943              	.LEHB11:
 944              	.LBB2095:
 945              		.loc 1 48 0
 946              		.cfi_offset 27, -20
 947              		.cfi_offset 65, 4
 948              		.cfi_offset 30, -8
 949 0244 48000001 		bl _Znwj
 950              	.LEHE11:
 951              	.LVL47:
 952 0248 7F84E378 		mr 4,28
 953 024c 7FA5EB78 		mr 5,29
 954 0250 7FE6FB78 		mr 6,31
 955 0254 7C7E1B78 		mr 30,3
 956              	.LEHB12:
 957 0258 48000001 		bl _ZN12NumpadWindowC1EPcib
 958              	.LEHE12:
 959              	.LVL48:
 960              		.loc 1 49 0 discriminator 1
 961 025c 7FC3F378 		mr 3,30
 962 0260 38800001 		li 4,1
 963              	.LBB1994:
 964              	.LBB1995:
 965              		.loc 3 27 0 discriminator 1
 966 0264 3F800000 		lis 28,_ZN11Application8instanceE@ha
 967              	.LVL49:
 968              	.LEHB13:
 969              	.LBE1995:
 970              	.LBE1994:
 971              		.loc 1 49 0 discriminator 1
 972 0268 48000001 		bl _ZN8GuiFrame13DimBackgroundEb
 973              	.LBB1999:
 974              	.LBB1996:
 975              		.loc 3 27 0 discriminator 1
 976 026c 83FC0000 		lwz 31,_ZN11Application8instanceE@l(28)
 977 0270 2F9F0000 		cmpwi 7,31,0
 978 0274 419E0200 		beq- 7,.L96
 979              	.LVL50:
 980              	.LBE1996:
 981              	.LBE1999:
 982              	.LBB2000:
 983              	.LBB2001:
 984              		.loc 3 51 0
 985 0278 807F0274 		lwz 3,628(31)
 986 027c 48000001 		bl LWP_MutexLock
 987              	.LVL51:
 988              		.loc 3 52 0
 989 0280 7FE3FB78 		mr 3,31
 990 0284 7FC4F378 		mr 4,30
 991 0288 48000001 		bl _ZN8GuiFrame6AppendEP10GuiElement
 992              		.loc 3 53 0
 993 028c 807F0274 		lwz 3,628(31)
 994 0290 48000001 		bl LWP_MutexUnlock
 995              	.LBE2001:
 996              	.LBE2000:
 997              	.LBB2004:
 998              	.LBB2005:
 999              		.loc 3 27 0
 1000 0294 83FC0000 		lwz 31,_ZN11Application8instanceE@l(28)
 1001              	.LVL52:
 1002 0298 2F9F0000 		cmpwi 7,31,0
 1003 029c 419E0214 		beq- 7,.L97
 1004              	.L63:
 1005              	.LVL53:
 1006              	.LBE2005:
 1007              	.LBE2004:
 1008              	.LBB2010:
 1009              	.LBB2011:
 1010              	.LBB2012:
 1011              		.loc 1 176 0
 1012 02a0 813F025C 		lwz 9,604(31)
 1013              	.LBB2013:
 1014              		.loc 3 69 0
 1015 02a4 3BA00000 		li 29,0
 1016              	.LBE2013:
 1017              		.loc 1 176 0
 1018 02a8 817F0260 		lwz 11,608(31)
 1019              	.LBE2012:
 1020              	.LBE2011:
 1021              	.LBE2010:
 1022              	.LBB2065:
 1023              	.LBB2006:
 1024              		.loc 3 27 0
 1025 02ac 93C10008 		stw 30,8(1)
 1026              	.LVL54:
 1027              	.LBE2006:
 1028              	.LBE2065:
 1029              	.LBB2066:
 1030              	.LBB2061:
 1031              	.LBB2052:
 1032              	.LBB2049:
 1033              	.LBB2014:
 1034              	.LBB2015:
 1035              		.loc 7 571 0
 1036 02b0 7C095850 		subf 0,9,11
 1037              	.LBE2015:
 1038              	.LBE2014:
 1039              		.loc 3 69 0
 1040 02b4 540AF0BF 		srwi. 10,0,2
 1041 02b8 7D204B78 		mr 0,9
 1042 02bc 40A2000C 		bne+ 0,.L93
 1043 02c0 4800002C 		b .L66
 1044              	.LVL55:
 1045              	.L84:
 1046              		.loc 1 176 0
 1047 02c4 7C090378 		mr 9,0
 1048              	.LVL56:
 1049              	.L93:
 1050              	.LBE2049:
 1051              	.LBE2052:
 1052              	.LBE2061:
 1053              	.LBE2066:
 1054              	.LBB2067:
 1055              	.LBB2007:
 1056              		.loc 1 45 0
 1057 02c8 57BB103A 		slwi 27,29,2
 1058              	.LBE2007:
 1059              	.LBE2067:
 1060              	.LBB2068:
 1061              	.LBB2062:
 1062              	.LBB2053:
 1063              	.LBB2050:
 1064              		.loc 3 70 0
 1065 02cc 7D29D82E 		lwzx 9,9,27
 1066 02d0 7F9E4800 		cmpw 7,30,9
 1067 02d4 419E0130 		beq- 7,.L98
 1068              	.L68:
 1069              	.LBB2018:
 1070              	.LBB2016:
 1071              		.loc 7 571 0
 1072 02d8 7D205850 		subf 9,0,11
 1073              	.LBE2016:
 1074              	.LBE2018:
 1075              		.loc 3 69 0
 1076 02dc 3BBD0001 		addi 29,29,1
 1077              	.LVL57:
 1078              	.LBB2019:
 1079              	.LBB2017:
 1080              		.loc 7 571 0
 1081 02e0 7D291670 		srawi 9,9,2
 1082              	.LBE2017:
 1083              	.LBE2019:
 1084              		.loc 3 69 0
 1085 02e4 7F9D4840 		cmplw 7,29,9
 1086 02e8 419CFFDC 		blt+ 7,.L84
 1087              	.LVL58:
 1088              	.L66:
 1089              	.LBE2050:
 1090              	.LBE2053:
 1091              		.loc 3 62 0
 1092 02ec 807F0274 		lwz 3,628(31)
 1093 02f0 48000001 		bl LWP_MutexLock
 1094              	.LVL59:
 1095              	.LBB2054:
 1096              	.LBB2055:
 1097              		.loc 7 828 0
 1098 02f4 813F0260 		lwz 9,608(31)
 1099 02f8 801F0264 		lwz 0,612(31)
 1100 02fc 7F890000 		cmpw 7,9,0
 1101 0300 419E0244 		beq- 7,.L70
 1102              	.LVL60:
 1103              	.LBB2056:
 1104              	.LBB2057:
 1105              		.loc 5 108 0
 1106 0304 2F890000 		cmpwi 7,9,0
 1107 0308 39600000 		li 11,0
 1108 030c 419E0010 		beq- 7,.L71
 1109 0310 80010008 		lwz 0,8(1)
 1110 0314 90090000 		stw 0,0(9)
 1111 0318 817F0260 		lwz 11,608(31)
 1112              	.L71:
 1113              	.LBE2057:
 1114              	.LBE2056:
 1115              		.loc 7 831 0
 1116 031c 396B0004 		addi 11,11,4
 1117 0320 917F0260 		stw 11,608(31)
 1118              	.LVL61:
 1119              	.L72:
 1120              	.LBE2055:
 1121              	.LBE2054:
 1122              		.loc 3 64 0
 1123 0324 807F0274 		lwz 3,628(31)
 1124 0328 48000001 		bl LWP_MutexUnlock
 1125              		.loc 1 176 0
 1126 032c 83FE00DC 		lwz 31,220(30)
 1127              	.LVL62:
 1128              	.LBE2062:
 1129              	.LBE2068:
 1130              		.loc 1 54 0
 1131 0330 2F9F0000 		cmpwi 7,31,0
 1132 0334 409C0070 		bge- 7,.L73
 1133 0338 3FA00000 		lis 29,_ZN11Application8instanceE@ha
 1134 033c 3BBD0000 		la 29,_ZN11Application8instanceE@l(29)
 1135 0340 48000024 		b .L75
 1136              	.L74:
 1137              		.loc 1 56 0
 1138 0344 813F0000 		lwz 9,0(31)
 1139 0348 7FE3FB78 		mr 3,31
 1140 034c 800900D8 		lwz 0,216(9)
 1141 0350 7C0903A6 		mtctr 0
 1142 0354 4E800421 		bctrl
 1143              		.loc 1 176 0
 1144 0358 83FE00DC 		lwz 31,220(30)
 1145              		.loc 1 54 0
 1146 035c 2F9F0000 		cmpwi 7,31,0
 1147 0360 409C0044 		bge- 7,.L73
 1148              	.L75:
 1149              	.LBB2069:
 1150              	.LBB2070:
 1151              		.loc 3 27 0
 1152 0364 83FD0000 		lwz 31,0(29)
 1153 0368 2F9F0000 		cmpwi 7,31,0
 1154 036c 409EFFD8 		bne+ 7,.L74
 1155 0370 38600278 		li 3,632
 1156 0374 48000001 		bl _Znwj
 1157              	.LEHE13:
 1158 0378 7C7F1B78 		mr 31,3
 1159              	.LEHB14:
 1160 037c 48000001 		bl _ZN11ApplicationC1Ev
 1161              	.LEHE14:
 1162              	.LBE2070:
 1163              	.LBE2069:
 1164              		.loc 1 56 0
 1165 0380 813F0000 		lwz 9,0(31)
 1166 0384 7FE3FB78 		mr 3,31
 1167              	.LBB2072:
 1168              	.LBB2071:
 1169              		.loc 3 27 0
 1170 0388 93FD0000 		stw 31,0(29)
 1171              	.LBE2071:
 1172              	.LBE2072:
 1173              		.loc 1 56 0
 1174 038c 800900D8 		lwz 0,216(9)
 1175 0390 7C0903A6 		mtctr 0
 1176              	.LEHB15:
 1177 0394 4E800421 		bctrl
 1178              		.loc 1 176 0
 1179 0398 83FE00DC 		lwz 31,220(30)
 1180              		.loc 1 54 0
 1181 039c 2F9F0000 		cmpwi 7,31,0
 1182 03a0 419CFFC4 		blt+ 7,.L75
 1183              	.L73:
 1184              	.LBB2073:
 1185              	.LBB2074:
 1186              		.loc 3 27 0
 1187 03a4 83BC0000 		lwz 29,_ZN11Application8instanceE@l(28)
 1188 03a8 2F9D0000 		cmpwi 7,29,0
 1189 03ac 419E011C 		beq- 7,.L99
 1190              	.LBE2074:
 1191              	.LBE2073:
 1192              		.loc 1 59 0
 1193 03b0 7FC4F378 		mr 4,30
 1194 03b4 7FA3EB78 		mr 3,29
 1195 03b8 48000001 		bl _ZN11Application13PushForDeleteEP10GuiElement
 1196              	.LBB2078:
 1197              	.LBB2079:
 1198              		.loc 3 27 0
 1199 03bc 83DC0000 		lwz 30,_ZN11Application8instanceE@l(28)
 1200              	.LVL63:
 1201 03c0 2F9E0000 		cmpwi 7,30,0
 1202 03c4 419E0130 		beq- 7,.L100
 1203              	.L79:
 1204              	.LBE2079:
 1205              	.LBE2078:
 1206              		.loc 1 60 0
 1207 03c8 813E0000 		lwz 9,0(30)
 1208 03cc 7FC3F378 		mr 3,30
 1209 03d0 800900D8 		lwz 0,216(9)
 1210 03d4 7C0903A6 		mtctr 0
 1211 03d8 4E800421 		bctrl
 1212              	.LBE2095:
 1213              		.loc 1 63 0
 1214 03dc 8001003C 		lwz 0,60(1)
 1215 03e0 7FE3FB78 		mr 3,31
 1216 03e4 83610024 		lwz 27,36(1)
 1217 03e8 7C0803A6 		mtlr 0
 1218 03ec 83810028 		lwz 28,40(1)
 1219 03f0 83A1002C 		lwz 29,44(1)
 1220 03f4 83C10030 		lwz 30,48(1)
 1221 03f8 83E10034 		lwz 31,52(1)
 1222 03fc 38210038 		addi 1,1,56
 1223              		.cfi_remember_state
 1224              	.LCFI11:
 1225              		.cfi_def_cfa_offset 0
 1226              		.cfi_restore 31
 1227              		.cfi_restore 30
 1228              		.cfi_restore 29
 1229              		.cfi_restore 28
 1230              		.cfi_restore 27
 1231 0400 4E800020 		blr
 1232              	.LVL64:
 1233              	.L98:
 1234              	.LCFI12:
 1235              		.cfi_restore_state
 1236              	.LBB2096:
 1237              	.LBB2082:
 1238              	.LBB2063:
 1239              	.LBB2059:
 1240              	.LBB2051:
 1241              		.loc 3 71 0
 1242 0404 807F0274 		lwz 3,628(31)
 1243 0408 48000001 		bl LWP_MutexLock
 1244              	.LVL65:
 1245              	.LBB2020:
 1246              	.LBB2021:
 1247              		.loc 8 773 0
 1248 040c 807F025C 		lwz 3,604(31)
 1249              	.LBE2021:
 1250              	.LBE2020:
 1251              	.LBB2023:
 1252              	.LBB2024:
 1253              	.LBB2025:
 1254              		.loc 1 176 0
 1255 0410 813F0260 		lwz 9,608(31)
 1256              	.LBE2025:
 1257              	.LBE2024:
 1258              	.LBE2023:
 1259              	.LBB2044:
 1260              	.LBB2022:
 1261              		.loc 8 773 0
 1262 0414 7C63DA14 		add 3,3,27
 1263              	.LVL66:
 1264              	.LBE2022:
 1265              	.LBE2044:
 1266              	.LBB2045:
 1267              	.LBB2040:
 1268              	.LBB2026:
 1269              	.LBB2027:
 1270 0418 38830004 		addi 4,3,4
 1271              	.LVL67:
 1272              	.LBE2027:
 1273              	.LBE2026:
 1274              		.loc 4 138 0
 1275 041c 7F844800 		cmpw 7,4,9
 1276 0420 419E0010 		beq- 7,.L69
 1277              	.LVL68:
 1278              	.LBB2028:
 1279              	.LBB2029:
 1280              	.LBB2030:
 1281              	.LBB2031:
 1282              	.LBB2032:
 1283              	.LBB2033:
 1284              		.loc 6 364 0
 1285 0424 7CA44850 		subf 5,4,9
 1286              	.LVL69:
 1287              		.loc 6 365 0
 1288 0428 7CA51671 		srawi. 5,5,2
 1289              	.LVL70:
 1290 042c 40820020 		bne- 0,.L101
 1291              	.LVL71:
 1292              	.L69:
 1293              	.LBE2033:
 1294              	.LBE2032:
 1295              	.LBE2031:
 1296              	.LBE2030:
 1297              	.LBE2029:
 1298              	.LBE2028:
 1299              		.loc 4 140 0
 1300 0430 3929FFFC 		addi 9,9,-4
 1301              	.LBE2040:
 1302              	.LBE2045:
 1303              		.loc 3 73 0
 1304 0434 807F0274 		lwz 3,628(31)
 1305              	.LVL72:
 1306              	.LBB2046:
 1307              	.LBB2041:
 1308              		.loc 4 140 0
 1309 0438 913F0260 		stw 9,608(31)
 1310              	.LBE2041:
 1311              	.LBE2046:
 1312              		.loc 3 73 0
 1313 043c 48000001 		bl LWP_MutexUnlock
 1314              	.LVL73:
 1315 0440 801F025C 		lwz 0,604(31)
 1316 0444 817F0260 		lwz 11,608(31)
 1317 0448 4BFFFE90 		b .L68
 1318              	.LVL74:
 1319              	.L101:
 1320              	.LBB2047:
 1321              	.LBB2042:
 1322              	.LBB2039:
 1323              	.LBB2038:
 1324              	.LBB2037:
 1325              	.LBB2036:
 1326              	.LBB2035:
 1327              	.LBB2034:
 1328              		.loc 6 366 0
 1329 044c 54A5103A 		slwi 5,5,2
 1330              	.LVL75:
 1331 0450 48000001 		bl memmove
 1332              	.LVL76:
 1333 0454 813F0260 		lwz 9,608(31)
 1334              	.LBE2034:
 1335              	.LBE2035:
 1336              	.LBE2036:
 1337              	.LBE2037:
 1338              	.LBE2038:
 1339              	.LBE2039:
 1340              	.LBE2042:
 1341              	.LBE2047:
 1342              		.loc 3 73 0
 1343 0458 807F0274 		lwz 3,628(31)
 1344              	.LBB2048:
 1345              	.LBB2043:
 1346              		.loc 4 140 0
 1347 045c 3929FFFC 		addi 9,9,-4
 1348 0460 913F0260 		stw 9,608(31)
 1349              	.LBE2043:
 1350              	.LBE2048:
 1351              		.loc 3 73 0
 1352 0464 48000001 		bl LWP_MutexUnlock
 1353 0468 801F025C 		lwz 0,604(31)
 1354 046c 817F0260 		lwz 11,608(31)
 1355 0470 4BFFFE68 		b .L68
 1356              	.LVL77:
 1357              	.L96:
 1358              	.LBE2051:
 1359              	.LBE2059:
 1360              	.LBE2063:
 1361              	.LBE2082:
 1362              	.LBB2083:
 1363              	.LBB1997:
 1364              		.loc 3 27 0
 1365 0474 38600278 		li 3,632
 1366 0478 48000001 		bl _Znwj
 1367              	.LEHE15:
 1368 047c 7C7F1B78 		mr 31,3
 1369              	.LEHB16:
 1370 0480 48000001 		bl _ZN11ApplicationC1Ev
 1371              	.LEHE16:
 1372              	.LBE1997:
 1373              	.LBE2083:
 1374              	.LBB2084:
 1375              	.LBB2002:
 1376              		.loc 3 51 0
 1377 0484 807F0274 		lwz 3,628(31)
 1378              	.LBE2002:
 1379              	.LBE2084:
 1380              	.LBB2085:
 1381              	.LBB1998:
 1382              		.loc 3 27 0
 1383 0488 93FC0000 		stw 31,_ZN11Application8instanceE@l(28)
 1384              	.LVL78:
 1385              	.LEHB17:
 1386              	.LBE1998:
 1387              	.LBE2085:
 1388              	.LBB2086:
 1389              	.LBB2003:
 1390              		.loc 3 51 0
 1391 048c 48000001 		bl LWP_MutexLock
 1392              		.loc 3 52 0
 1393 0490 7FE3FB78 		mr 3,31
 1394 0494 7FC4F378 		mr 4,30
 1395 0498 48000001 		bl _ZN8GuiFrame6AppendEP10GuiElement
 1396              		.loc 3 53 0
 1397 049c 807F0274 		lwz 3,628(31)
 1398 04a0 48000001 		bl LWP_MutexUnlock
 1399              	.LBE2003:
 1400              	.LBE2086:
 1401              	.LBB2087:
 1402              	.LBB2008:
 1403              		.loc 3 27 0
 1404 04a4 83FC0000 		lwz 31,_ZN11Application8instanceE@l(28)
 1405              	.LVL79:
 1406 04a8 2F9F0000 		cmpwi 7,31,0
 1407 04ac 409EFDF4 		bne+ 7,.L63
 1408              	.L97:
 1409 04b0 38600278 		li 3,632
 1410 04b4 48000001 		bl _Znwj
 1411              	.LEHE17:
 1412 04b8 7C7F1B78 		mr 31,3
 1413              	.LEHB18:
 1414 04bc 48000001 		bl _ZN11ApplicationC1Ev
 1415              	.LEHE18:
 1416 04c0 93FC0000 		stw 31,_ZN11Application8instanceE@l(28)
 1417 04c4 4BFFFDDC 		b .L63
 1418              	.LVL80:
 1419              	.L99:
 1420              	.LBE2008:
 1421              	.LBE2087:
 1422              	.LBB2088:
 1423              	.LBB2075:
 1424 04c8 38600278 		li 3,632
 1425              	.LEHB19:
 1426 04cc 48000001 		bl _Znwj
 1427              	.LEHE19:
 1428 04d0 7C7D1B78 		mr 29,3
 1429              	.LEHB20:
 1430 04d4 48000001 		bl _ZN11ApplicationC1Ev
 1431              	.LEHE20:
 1432              	.LBE2075:
 1433              	.LBE2088:
 1434              		.loc 1 59 0
 1435 04d8 7FC4F378 		mr 4,30
 1436 04dc 7FA3EB78 		mr 3,29
 1437              	.LBB2089:
 1438              	.LBB2076:
 1439              		.loc 3 27 0
 1440 04e0 93BC0000 		stw 29,_ZN11Application8instanceE@l(28)
 1441              	.LEHB21:
 1442              	.LBE2076:
 1443              	.LBE2089:
 1444              		.loc 1 59 0
 1445 04e4 48000001 		bl _ZN11Application13PushForDeleteEP10GuiElement
 1446              	.LBB2090:
 1447              	.LBB2080:
 1448              		.loc 3 27 0
 1449 04e8 83DC0000 		lwz 30,_ZN11Application8instanceE@l(28)
 1450              	.LVL81:
 1451 04ec 2F9E0000 		cmpwi 7,30,0
 1452 04f0 409EFED8 		bne+ 7,.L79
 1453              	.L100:
 1454 04f4 38600278 		li 3,632
 1455 04f8 48000001 		bl _Znwj
 1456              	.LEHE21:
 1457 04fc 7C7E1B78 		mr 30,3
 1458              	.LEHB22:
 1459 0500 48000001 		bl _ZN11ApplicationC1Ev
 1460              	.LEHE22:
 1461              	.LBE2080:
 1462              	.LBE2090:
 1463              		.loc 1 60 0
 1464 0504 813E0000 		lwz 9,0(30)
 1465 0508 7FC3F378 		mr 3,30
 1466              	.LBB2091:
 1467              	.LBB2081:
 1468              		.loc 3 27 0
 1469 050c 93DC0000 		stw 30,_ZN11Application8instanceE@l(28)
 1470              	.LBE2081:
 1471              	.LBE2091:
 1472              		.loc 1 60 0
 1473 0510 800900D8 		lwz 0,216(9)
 1474 0514 7C0903A6 		mtctr 0
 1475              	.LEHB23:
 1476 0518 4E800421 		bctrl
 1477              	.LBE2096:
 1478              		.loc 1 63 0
 1479 051c 8001003C 		lwz 0,60(1)
 1480 0520 7FE3FB78 		mr 3,31
 1481 0524 83610024 		lwz 27,36(1)
 1482 0528 7C0803A6 		mtlr 0
 1483 052c 83810028 		lwz 28,40(1)
 1484 0530 83A1002C 		lwz 29,44(1)
 1485 0534 83C10030 		lwz 30,48(1)
 1486 0538 83E10034 		lwz 31,52(1)
 1487 053c 38210038 		addi 1,1,56
 1488              		.cfi_remember_state
 1489              		.cfi_restore 27
 1490              		.cfi_restore 28
 1491              		.cfi_restore 29
 1492              		.cfi_restore 30
 1493              		.cfi_restore 31
 1494              	.LCFI13:
 1495              		.cfi_def_cfa_offset 0
 1496 0540 4E800020 		blr
 1497              	.LVL82:
 1498              	.L70:
 1499              	.LCFI14:
 1500              		.cfi_restore_state
 1501              	.LBB2097:
 1502              	.LBB2092:
 1503              	.LBB2064:
 1504              	.LBB2060:
 1505              	.LBB2058:
 1506              		.loc 7 834 0
 1507 0544 7C240B78 		mr 4,1
 1508 0548 387F025C 		addi 3,31,604
 1509 054c 95240018 		stwu 9,24(4)
 1510 0550 38A10008 		addi 5,1,8
 1511 0554 48000001 		bl _ZNSt6vectorIP10GuiElementSaIS1_EE13_M_insert_auxEN9__gnu_cxx17__normal_iteratorIPS1_S3_EERKS1_
 1512 0558 4BFFFDCC 		b .L72
 1513              	.LVL83:
 1514              	.L87:
 1515              	.L94:
 1516 055c 7C7E1B78 		mr 30,3
 1517              	.LVL84:
 1518              	.LBE2058:
 1519              	.LBE2060:
 1520              	.LBE2064:
 1521              	.LBE2092:
 1522              	.LBB2093:
 1523              	.LBB2009:
 1524              		.loc 3 27 0
 1525 0560 7FE3FB78 		mr 3,31
 1526 0564 48000001 		bl _ZdlPv
 1527 0568 7FC3F378 		mr 3,30
 1528 056c 48000001 		bl _Unwind_Resume
 1529              	.LVL85:
 1530              	.L86:
 1531              	.L95:
 1532 0570 7C7F1B78 		mr 31,3
 1533              	.LBE2009:
 1534              	.LBE2093:
 1535              		.loc 1 48 0
 1536 0574 7FC3F378 		mr 3,30
 1537 0578 48000001 		bl _ZdlPv
 1538 057c 7FE3FB78 		mr 3,31
 1539 0580 48000001 		bl _Unwind_Resume
 1540              	.LVL86:
 1541              	.L89:
 1542 0584 4BFFFFD8 		b .L94
 1543              	.LVL87:
 1544              	.L91:
 1545 0588 4BFFFFE8 		b .L95
 1546              	.LVL88:
 1547              	.L90:
 1548 058c 7C7F1B78 		mr 31,3
 1549              	.LBB2094:
 1550              	.LBB2077:
 1551              		.loc 3 27 0
 1552 0590 7FA3EB78 		mr 3,29
 1553 0594 48000001 		bl _ZdlPv
 1554 0598 7FE3FB78 		mr 3,31
 1555 059c 48000001 		bl _Unwind_Resume
 1556              	.LEHE23:
 1557              	.LVL89:
 1558              	.L88:
 1559 05a0 4BFFFFBC 		b .L94
 1560              	.LBE2077:
 1561              	.LBE2094:
 1562              	.LBE2097:
 1563              		.cfi_endproc
 1564              	.LFE1499:
 1565              		.section	.gcc_except_table
 1566              	.LLSDA1499:
 1567 0040 FF       		.byte	0xff
 1568 0041 FF       		.byte	0xff
 1569 0042 01       		.byte	0x1
 1570 0043 47       		.uleb128 .LLSDACSE1499-.LLSDACSB1499
 1571              	.LLSDACSB1499:
 1572 0044 30       		.uleb128 .LEHB11-.LFB1499
 1573 0045 04       		.uleb128 .LEHE11-.LEHB11
 1574 0046 00       		.uleb128 0
 1575 0047 00       		.uleb128 0
 1576 0048 44       		.uleb128 .LEHB12-.LFB1499
 1577 0049 04       		.uleb128 .LEHE12-.LEHB12
 1578 004a DC06     		.uleb128 .L86-.LFB1499
 1579 004c 00       		.uleb128 0
 1580 004d 54       		.uleb128 .LEHB13-.LFB1499
 1581 004e 9002     		.uleb128 .LEHE13-.LEHB13
 1582 0050 00       		.uleb128 0
 1583 0051 00       		.uleb128 0
 1584 0052 E802     		.uleb128 .LEHB14-.LFB1499
 1585 0054 04       		.uleb128 .LEHE14-.LEHB14
 1586 0055 F006     		.uleb128 .L89-.LFB1499
 1587 0057 00       		.uleb128 0
 1588 0058 8003     		.uleb128 .LEHB15-.LFB1499
 1589 005a E801     		.uleb128 .LEHE15-.LEHB15
 1590 005c 00       		.uleb128 0
 1591 005d 00       		.uleb128 0
 1592 005e EC04     		.uleb128 .LEHB16-.LFB1499
 1593 0060 04       		.uleb128 .LEHE16-.LEHB16
 1594 0061 C806     		.uleb128 .L87-.LFB1499
 1595 0063 00       		.uleb128 0
 1596 0064 F804     		.uleb128 .LEHB17-.LFB1499
 1597 0066 2C       		.uleb128 .LEHE17-.LEHB17
 1598 0067 00       		.uleb128 0
 1599 0068 00       		.uleb128 0
 1600 0069 A805     		.uleb128 .LEHB18-.LFB1499
 1601 006b 04       		.uleb128 .LEHE18-.LEHB18
 1602 006c 8C07     		.uleb128 .L88-.LFB1499
 1603 006e 00       		.uleb128 0
 1604 006f B805     		.uleb128 .LEHB19-.LFB1499
 1605 0071 04       		.uleb128 .LEHE19-.LEHB19
 1606 0072 00       		.uleb128 0
 1607 0073 00       		.uleb128 0
 1608 0074 C005     		.uleb128 .LEHB20-.LFB1499
 1609 0076 04       		.uleb128 .LEHE20-.LEHB20
 1610 0077 F806     		.uleb128 .L90-.LFB1499
 1611 0079 00       		.uleb128 0
 1612 007a D005     		.uleb128 .LEHB21-.LFB1499
 1613 007c 18       		.uleb128 .LEHE21-.LEHB21
 1614 007d 00       		.uleb128 0
 1615 007e 00       		.uleb128 0
 1616 007f EC05     		.uleb128 .LEHB22-.LFB1499
 1617 0081 04       		.uleb128 .LEHE22-.LEHB22
 1618 0082 F406     		.uleb128 .L91-.LFB1499
 1619 0084 00       		.uleb128 0
 1620 0085 8406     		.uleb128 .LEHB23-.LFB1499
 1621 0087 8801     		.uleb128 .LEHE23-.LEHB23
 1622 0089 00       		.uleb128 0
 1623 008a 00       		.uleb128 0
 1624              	.LLSDACSE1499:
 1625              		.section	".text"
 1626              		.size	_Z14OnScreenNumpadPctb, .-_Z14OnScreenNumpadPctb
 1627              		.align 2
 1628              		.globl _Z12WindowPromptPKcS0_S0_S0_S0_S0_
 1629              		.type	_Z12WindowPromptPKcS0_S0_S0_S0_S0_, @function
 1630              	_Z12WindowPromptPKcS0_S0_S0_S0_S0_:
 1631              	.LFB1506:
 1632              		.loc 1 156 0
 1633              		.cfi_startproc
 1634              		.cfi_personality 0,__gxx_personality_v0
 1635              		.cfi_lsda 0,.LLSDA1506
 1636              	.LVL90:
 1637 05a4 9421FFC0 		stwu 1,-64(1)
 1638              	.LCFI15:
 1639              		.cfi_def_cfa_offset 64
 1640 05a8 7C0802A6 		mflr 0
 1641 05ac 93210024 		stw 25,36(1)
 1642 05b0 7C791B78 		mr 25,3
 1643              		.cfi_offset 25, -28
 1644              		.cfi_register 65, 0
 1645 05b4 93410028 		stw 26,40(1)
 1646              	.LBB2143:
 1647              		.loc 1 159 0
 1648 05b8 38600134 		li 3,308
 1649              	.LVL91:
 1650              	.LBE2143:
 1651              		.loc 1 156 0
 1652 05bc 7C9A2378 		mr 26,4
 1653              		.cfi_offset 26, -24
 1654 05c0 9361002C 		stw 27,44(1)
 1655 05c4 93810030 		stw 28,48(1)
 1656 05c8 7CBB2B78 		mr 27,5
 1657              		.cfi_offset 28, -16
 1658              		.cfi_offset 27, -20
 1659 05cc 7CDC3378 		mr 28,6
 1660 05d0 93A10034 		stw 29,52(1)
 1661 05d4 93C10038 		stw 30,56(1)
 1662 05d8 7CFD3B78 		mr 29,7
 1663              		.cfi_offset 30, -8
 1664              		.cfi_offset 29, -12
 1665 05dc 7D1E4378 		mr 30,8
 1666 05e0 93E1003C 		stw 31,60(1)
 1667 05e4 90010044 		stw 0,68(1)
 1668              	.LEHB24:
 1669              	.LBB2241:
 1670              		.loc 1 159 0
 1671              		.cfi_offset 65, 4
 1672              		.cfi_offset 31, -4
 1673 05e8 48000001 		bl _Znwj
 1674              	.LEHE24:
 1675              	.LVL92:
 1676 05ec 7F24CB78 		mr 4,25
 1677 05f0 7F45D378 		mr 5,26
 1678 05f4 7F66DB78 		mr 6,27
 1679 05f8 7F87E378 		mr 7,28
 1680 05fc 7FA8EB78 		mr 8,29
 1681 0600 7FC9F378 		mr 9,30
 1682 0604 7C7F1B78 		mr 31,3
 1683              	.LEHB25:
 1684 0608 48000001 		bl _ZN12PromptWindowC1EPKcS1_S1_S1_S1_S1_
 1685              	.LEHE25:
 1686              	.LVL93:
 1687              		.loc 1 160 0 discriminator 1
 1688 060c 7FE3FB78 		mr 3,31
 1689 0610 38800001 		li 4,1
 1690              	.LBB2144:
 1691              	.LBB2145:
 1692              		.loc 3 27 0 discriminator 1
 1693 0614 3F800000 		lis 28,_ZN11Application8instanceE@ha
 1694              	.LVL94:
 1695              	.LEHB26:
 1696              	.LBE2145:
 1697              	.LBE2144:
 1698              		.loc 1 160 0 discriminator 1
 1699 0618 48000001 		bl _ZN8GuiFrame13DimBackgroundEb
 1700              	.LBB2149:
 1701              	.LBB2146:
 1702              		.loc 3 27 0 discriminator 1
 1703 061c 83DC0000 		lwz 30,_ZN11Application8instanceE@l(28)
 1704              	.LVL95:
 1705 0620 2F9E0000 		cmpwi 7,30,0
 1706 0624 419E025C 		beq- 7,.L138
 1707              	.LVL96:
 1708              	.LBE2146:
 1709              	.LBE2149:
 1710              	.LBB2150:
 1711              	.LBB2151:
 1712              		.loc 3 51 0
 1713 0628 807E0274 		lwz 3,628(30)
 1714 062c 48000001 		bl LWP_MutexLock
 1715              	.LVL97:
 1716              		.loc 3 52 0
 1717 0630 7FC3F378 		mr 3,30
 1718 0634 7FE4FB78 		mr 4,31
 1719 0638 48000001 		bl _ZN8GuiFrame6AppendEP10GuiElement
 1720              		.loc 3 53 0
 1721 063c 807E0274 		lwz 3,628(30)
 1722 0640 48000001 		bl LWP_MutexUnlock
 1723              	.LBE2151:
 1724              	.LBE2150:
 1725              	.LBB2154:
 1726              	.LBB2155:
 1727              		.loc 3 27 0
 1728 0644 83DC0000 		lwz 30,_ZN11Application8instanceE@l(28)
 1729              	.LVL98:
 1730 0648 2F9E0000 		cmpwi 7,30,0
 1731 064c 419E0270 		beq- 7,.L139
 1732              	.L105:
 1733              	.LVL99:
 1734              	.LBE2155:
 1735              	.LBE2154:
 1736              	.LBB2160:
 1737              	.LBB2161:
 1738              	.LBB2162:
 1739              		.loc 1 176 0
 1740 0650 813E025C 		lwz 9,604(30)
 1741              	.LBB2163:
 1742              		.loc 3 69 0
 1743 0654 3BA00000 		li 29,0
 1744              	.LVL100:
 1745              	.LBE2163:
 1746              		.loc 1 176 0
 1747 0658 817E0260 		lwz 11,608(30)
 1748              	.LBE2162:
 1749              	.LBE2161:
 1750              	.LBE2160:
 1751              	.LBB2215:
 1752              	.LBB2156:
 1753              		.loc 3 27 0
 1754 065c 93E10008 		stw 31,8(1)
 1755              	.LVL101:
 1756              	.LBE2156:
 1757              	.LBE2215:
 1758              	.LBB2216:
 1759              	.LBB2211:
 1760              	.LBB2202:
 1761              	.LBB2199:
 1762              	.LBB2164:
 1763              	.LBB2165:
 1764              		.loc 7 571 0
 1765 0660 7C095850 		subf 0,9,11
 1766              	.LBE2165:
 1767              	.LBE2164:
 1768              		.loc 3 69 0
 1769 0664 540AF0BF 		srwi. 10,0,2
 1770 0668 7D204B78 		mr 0,9
 1771 066c 40A2000C 		bne+ 0,.L136
 1772 0670 4800002C 		b .L108
 1773              	.LVL102:
 1774              	.L127:
 1775              		.loc 1 176 0
 1776 0674 7C090378 		mr 9,0
 1777              	.LVL103:
 1778              	.L136:
 1779              	.LBE2199:
 1780              	.LBE2202:
 1781              	.LBE2211:
 1782              	.LBE2216:
 1783              	.LBB2217:
 1784              	.LBB2157:
 1785              		.loc 1 153 0
 1786 0678 57BB103A 		slwi 27,29,2
 1787              	.LBE2157:
 1788              	.LBE2217:
 1789              	.LBB2218:
 1790              	.LBB2212:
 1791              	.LBB2203:
 1792              	.LBB2200:
 1793              		.loc 3 70 0
 1794 067c 7D29D82E 		lwzx 9,9,27
 1795 0680 7F9F4800 		cmpw 7,31,9
 1796 0684 419E018C 		beq- 7,.L140
 1797              	.L110:
 1798              	.LBB2168:
 1799              	.LBB2166:
 1800              		.loc 7 571 0
 1801 0688 7D205850 		subf 9,0,11
 1802              	.LBE2166:
 1803              	.LBE2168:
 1804              		.loc 3 69 0
 1805 068c 3BBD0001 		addi 29,29,1
 1806              	.LVL104:
 1807              	.LBB2169:
 1808              	.LBB2167:
 1809              		.loc 7 571 0
 1810 0690 7D291670 		srawi 9,9,2
 1811              	.LBE2167:
 1812              	.LBE2169:
 1813              		.loc 3 69 0
 1814 0694 7F9D4840 		cmplw 7,29,9
 1815 0698 419CFFDC 		blt+ 7,.L127
 1816              	.LVL105:
 1817              	.L108:
 1818              	.LBE2200:
 1819              	.LBE2203:
 1820              		.loc 3 62 0
 1821 069c 807E0274 		lwz 3,628(30)
 1822 06a0 48000001 		bl LWP_MutexLock
 1823              	.LVL106:
 1824              	.LBB2204:
 1825              	.LBB2205:
 1826              		.loc 7 828 0
 1827 06a4 813E0260 		lwz 9,608(30)
 1828 06a8 801E0264 		lwz 0,612(30)
 1829 06ac 7F890000 		cmpw 7,9,0
 1830 06b0 419E0274 		beq- 7,.L112
 1831              	.LVL107:
 1832              	.LBB2206:
 1833              	.LBB2207:
 1834              		.loc 5 108 0
 1835 06b4 2F890000 		cmpwi 7,9,0
 1836 06b8 39600000 		li 11,0
 1837 06bc 419E0010 		beq- 7,.L113
 1838 06c0 80010008 		lwz 0,8(1)
 1839 06c4 90090000 		stw 0,0(9)
 1840 06c8 817E0260 		lwz 11,608(30)
 1841              	.L113:
 1842              	.LBE2207:
 1843              	.LBE2206:
 1844              		.loc 7 831 0
 1845 06cc 396B0004 		addi 11,11,4
 1846 06d0 917E0260 		stw 11,608(30)
 1847              	.LVL108:
 1848              	.L114:
 1849              	.LBE2205:
 1850              	.LBE2204:
 1851              		.loc 3 64 0
 1852 06d4 807E0274 		lwz 3,628(30)
 1853 06d8 48000001 		bl LWP_MutexUnlock
 1854              		.loc 1 176 0
 1855 06dc 83BF00D8 		lwz 29,216(31)
 1856              	.LVL109:
 1857              	.LBE2212:
 1858              	.LBE2218:
 1859              		.loc 1 164 0
 1860 06e0 2F9D0000 		cmpwi 7,29,0
 1861 06e4 409C0070 		bge- 7,.L115
 1862 06e8 3F600000 		lis 27,_ZN11Application8instanceE@ha
 1863 06ec 3B7B0000 		la 27,_ZN11Application8instanceE@l(27)
 1864 06f0 48000024 		b .L117
 1865              	.LVL110:
 1866              	.L116:
 1867              		.loc 1 166 0
 1868 06f4 813E0000 		lwz 9,0(30)
 1869 06f8 7FC3F378 		mr 3,30
 1870 06fc 800900D8 		lwz 0,216(9)
 1871 0700 7C0903A6 		mtctr 0
 1872 0704 4E800421 		bctrl
 1873              		.loc 1 176 0
 1874 0708 83BF00D8 		lwz 29,216(31)
 1875              		.loc 1 164 0
 1876 070c 2F9D0000 		cmpwi 7,29,0
 1877 0710 409C0044 		bge- 7,.L115
 1878              	.L117:
 1879              	.LBB2219:
 1880              	.LBB2220:
 1881              		.loc 3 27 0
 1882 0714 83DB0000 		lwz 30,0(27)
 1883 0718 2F9E0000 		cmpwi 7,30,0
 1884 071c 409EFFD8 		bne+ 7,.L116
 1885 0720 38600278 		li 3,632
 1886 0724 48000001 		bl _Znwj
 1887              	.LEHE26:
 1888 0728 7C7E1B78 		mr 30,3
 1889              	.LEHB27:
 1890 072c 48000001 		bl _ZN11ApplicationC1Ev
 1891              	.LEHE27:
 1892              	.LBE2220:
 1893              	.LBE2219:
 1894              		.loc 1 166 0
 1895 0730 813E0000 		lwz 9,0(30)
 1896 0734 7FC3F378 		mr 3,30
 1897              	.LBB2222:
 1898              	.LBB2221:
 1899              		.loc 3 27 0
 1900 0738 93DB0000 		stw 30,0(27)
 1901              	.LBE2221:
 1902              	.LBE2222:
 1903              		.loc 1 166 0
 1904 073c 800900D8 		lwz 0,216(9)
 1905 0740 7C0903A6 		mtctr 0
 1906              	.LEHB28:
 1907 0744 4E800421 		bctrl
 1908              		.loc 1 176 0
 1909 0748 83BF00D8 		lwz 29,216(31)
 1910              		.loc 1 164 0
 1911 074c 2F9D0000 		cmpwi 7,29,0
 1912 0750 419CFFC4 		blt+ 7,.L117
 1913              	.L115:
 1914              		.loc 1 169 0
 1915 0754 813F0000 		lwz 9,0(31)
 1916 0758 7FE3FB78 		mr 3,31
 1917 075c 38800021 		li 4,33
 1918 0760 38A00032 		li 5,50
 1919 0764 80090088 		lwz 0,136(9)
 1920 0768 38C00000 		li 6,0
 1921 076c 7C0903A6 		mtctr 0
 1922 0770 4E800421 		bctrl
 1923              		.loc 1 170 0
 1924 0774 48000018 		b .L119
 1925              	.L120:
 1926              		.loc 1 171 0
 1927 0778 813E0000 		lwz 9,0(30)
 1928 077c 7FC3F378 		mr 3,30
 1929 0780 800900D8 		lwz 0,216(9)
 1930 0784 7C0903A6 		mtctr 0
 1931 0788 4E800421 		bctrl
 1932              	.L119:
 1933              		.loc 1 170 0 discriminator 1
 1934 078c 813F0000 		lwz 9,0(31)
 1935 0790 7FE3FB78 		mr 3,31
 1936 0794 8009009C 		lwz 0,156(9)
 1937 0798 7C0903A6 		mtctr 0
 1938 079c 4E800421 		bctrl
 1939              	.LBB2223:
 1940              	.LBB2224:
 1941              		.loc 3 27 0 discriminator 1
 1942 07a0 83DC0000 		lwz 30,_ZN11Application8instanceE@l(28)
 1943              	.LBE2224:
 1944              	.LBE2223:
 1945              		.loc 1 170 0 discriminator 1
 1946 07a4 2F830000 		cmpwi 7,3,0
 1947 07a8 419E0024 		beq- 7,.L141
 1948              	.LBB2226:
 1949              	.LBB2225:
 1950              		.loc 3 27 0
 1951 07ac 2F9E0000 		cmpwi 7,30,0
 1952 07b0 409EFFC8 		bne+ 7,.L120
 1953 07b4 38600278 		li 3,632
 1954 07b8 48000001 		bl _Znwj
 1955              	.LEHE28:
 1956 07bc 7C7E1B78 		mr 30,3
 1957              	.LEHB29:
 1958 07c0 48000001 		bl _ZN11ApplicationC1Ev
 1959              	.LEHE29:
 1960 07c4 93DC0000 		stw 30,_ZN11Application8instanceE@l(28)
 1961 07c8 4BFFFFB0 		b .L120
 1962              	.L141:
 1963              	.LBE2225:
 1964              	.LBE2226:
 1965              	.LBB2227:
 1966              	.LBB2228:
 1967 07cc 2F9E0000 		cmpwi 7,30,0
 1968 07d0 419E0104 		beq- 7,.L142
 1969              	.LBE2228:
 1970              	.LBE2227:
 1971              		.loc 1 173 0
 1972 07d4 7FC3F378 		mr 3,30
 1973 07d8 7FE4FB78 		mr 4,31
 1974              	.LEHB30:
 1975 07dc 48000001 		bl _ZN11Application13PushForDeleteEP10GuiElement
 1976              	.LBE2241:
 1977              		.loc 1 176 0
 1978 07e0 80010044 		lwz 0,68(1)
 1979 07e4 7FA3EB78 		mr 3,29
 1980 07e8 83210024 		lwz 25,36(1)
 1981              	.LVL111:
 1982 07ec 7C0803A6 		mtlr 0
 1983 07f0 83410028 		lwz 26,40(1)
 1984              	.LVL112:
 1985 07f4 8361002C 		lwz 27,44(1)
 1986 07f8 83810030 		lwz 28,48(1)
 1987 07fc 83A10034 		lwz 29,52(1)
 1988 0800 83C10038 		lwz 30,56(1)
 1989 0804 83E1003C 		lwz 31,60(1)
 1990              	.LVL113:
 1991 0808 38210040 		addi 1,1,64
 1992              		.cfi_remember_state
 1993              	.LCFI16:
 1994              		.cfi_def_cfa_offset 0
 1995              		.cfi_restore 31
 1996              		.cfi_restore 30
 1997              		.cfi_restore 29
 1998              		.cfi_restore 28
 1999              		.cfi_restore 27
 2000              		.cfi_restore 26
 2001              		.cfi_restore 25
 2002 080c 4E800020 		blr
 2003              	.LVL114:
 2004              	.L140:
 2005              	.LCFI17:
 2006              		.cfi_restore_state
 2007              	.LBB2242:
 2008              	.LBB2231:
 2009              	.LBB2213:
 2010              	.LBB2209:
 2011              	.LBB2201:
 2012              		.loc 3 71 0
 2013 0810 807E0274 		lwz 3,628(30)
 2014 0814 48000001 		bl LWP_MutexLock
 2015              	.LVL115:
 2016              	.LBB2170:
 2017              	.LBB2171:
 2018              		.loc 8 773 0
 2019 0818 807E025C 		lwz 3,604(30)
 2020              	.LBE2171:
 2021              	.LBE2170:
 2022              	.LBB2173:
 2023              	.LBB2174:
 2024              	.LBB2175:
 2025              		.loc 1 176 0
 2026 081c 813E0260 		lwz 9,608(30)
 2027              	.LBE2175:
 2028              	.LBE2174:
 2029              	.LBE2173:
 2030              	.LBB2194:
 2031              	.LBB2172:
 2032              		.loc 8 773 0
 2033 0820 7C63DA14 		add 3,3,27
 2034              	.LVL116:
 2035              	.LBE2172:
 2036              	.LBE2194:
 2037              	.LBB2195:
 2038              	.LBB2190:
 2039              	.LBB2176:
 2040              	.LBB2177:
 2041 0824 38830004 		addi 4,3,4
 2042              	.LVL117:
 2043              	.LBE2177:
 2044              	.LBE2176:
 2045              		.loc 4 138 0
 2046 0828 7F844800 		cmpw 7,4,9
 2047 082c 419E0010 		beq- 7,.L111
 2048              	.LVL118:
 2049              	.LBB2178:
 2050              	.LBB2179:
 2051              	.LBB2180:
 2052              	.LBB2181:
 2053              	.LBB2182:
 2054              	.LBB2183:
 2055              		.loc 6 364 0
 2056 0830 7CA44850 		subf 5,4,9
 2057              	.LVL119:
 2058              		.loc 6 365 0
 2059 0834 7CA51671 		srawi. 5,5,2
 2060              	.LVL120:
 2061 0838 40820020 		bne- 0,.L143
 2062              	.LVL121:
 2063              	.L111:
 2064              	.LBE2183:
 2065              	.LBE2182:
 2066              	.LBE2181:
 2067              	.LBE2180:
 2068              	.LBE2179:
 2069              	.LBE2178:
 2070              		.loc 4 140 0
 2071 083c 3929FFFC 		addi 9,9,-4
 2072              	.LBE2190:
 2073              	.LBE2195:
 2074              		.loc 3 73 0
 2075 0840 807E0274 		lwz 3,628(30)
 2076              	.LVL122:
 2077              	.LBB2196:
 2078              	.LBB2191:
 2079              		.loc 4 140 0
 2080 0844 913E0260 		stw 9,608(30)
 2081              	.LBE2191:
 2082              	.LBE2196:
 2083              		.loc 3 73 0
 2084 0848 48000001 		bl LWP_MutexUnlock
 2085              	.LVL123:
 2086 084c 801E025C 		lwz 0,604(30)
 2087 0850 817E0260 		lwz 11,608(30)
 2088 0854 4BFFFE34 		b .L110
 2089              	.LVL124:
 2090              	.L143:
 2091              	.LBB2197:
 2092              	.LBB2192:
 2093              	.LBB2189:
 2094              	.LBB2188:
 2095              	.LBB2187:
 2096              	.LBB2186:
 2097              	.LBB2185:
 2098              	.LBB2184:
 2099              		.loc 6 366 0
 2100 0858 54A5103A 		slwi 5,5,2
 2101              	.LVL125:
 2102 085c 48000001 		bl memmove
 2103              	.LVL126:
 2104 0860 813E0260 		lwz 9,608(30)
 2105              	.LBE2184:
 2106              	.LBE2185:
 2107              	.LBE2186:
 2108              	.LBE2187:
 2109              	.LBE2188:
 2110              	.LBE2189:
 2111              	.LBE2192:
 2112              	.LBE2197:
 2113              		.loc 3 73 0
 2114 0864 807E0274 		lwz 3,628(30)
 2115              	.LBB2198:
 2116              	.LBB2193:
 2117              		.loc 4 140 0
 2118 0868 3929FFFC 		addi 9,9,-4
 2119 086c 913E0260 		stw 9,608(30)
 2120              	.LBE2193:
 2121              	.LBE2198:
 2122              		.loc 3 73 0
 2123 0870 48000001 		bl LWP_MutexUnlock
 2124 0874 801E025C 		lwz 0,604(30)
 2125 0878 817E0260 		lwz 11,608(30)
 2126 087c 4BFFFE0C 		b .L110
 2127              	.LVL127:
 2128              	.L138:
 2129              	.LBE2201:
 2130              	.LBE2209:
 2131              	.LBE2213:
 2132              	.LBE2231:
 2133              	.LBB2232:
 2134              	.LBB2147:
 2135              		.loc 3 27 0
 2136 0880 38600278 		li 3,632
 2137 0884 48000001 		bl _Znwj
 2138              	.LEHE30:
 2139 0888 7C7E1B78 		mr 30,3
 2140              	.LEHB31:
 2141 088c 48000001 		bl _ZN11ApplicationC1Ev
 2142              	.LEHE31:
 2143              	.LBE2147:
 2144              	.LBE2232:
 2145              	.LBB2233:
 2146              	.LBB2152:
 2147              		.loc 3 51 0
 2148 0890 807E0274 		lwz 3,628(30)
 2149              	.LBE2152:
 2150              	.LBE2233:
 2151              	.LBB2234:
 2152              	.LBB2148:
 2153              		.loc 3 27 0
 2154 0894 93DC0000 		stw 30,_ZN11Application8instanceE@l(28)
 2155              	.LVL128:
 2156              	.LEHB32:
 2157              	.LBE2148:
 2158              	.LBE2234:
 2159              	.LBB2235:
 2160              	.LBB2153:
 2161              		.loc 3 51 0
 2162 0898 48000001 		bl LWP_MutexLock
 2163              		.loc 3 52 0
 2164 089c 7FC3F378 		mr 3,30
 2165 08a0 7FE4FB78 		mr 4,31
 2166 08a4 48000001 		bl _ZN8GuiFrame6AppendEP10GuiElement
 2167              		.loc 3 53 0
 2168 08a8 807E0274 		lwz 3,628(30)
 2169 08ac 48000001 		bl LWP_MutexUnlock
 2170              	.LBE2153:
 2171              	.LBE2235:
 2172              	.LBB2236:
 2173              	.LBB2158:
 2174              		.loc 3 27 0
 2175 08b0 83DC0000 		lwz 30,_ZN11Application8instanceE@l(28)
 2176              	.LVL129:
 2177 08b4 2F9E0000 		cmpwi 7,30,0
 2178 08b8 409EFD98 		bne+ 7,.L105
 2179              	.L139:
 2180 08bc 38600278 		li 3,632
 2181 08c0 48000001 		bl _Znwj
 2182              	.LEHE32:
 2183 08c4 7C7E1B78 		mr 30,3
 2184              	.LEHB33:
 2185 08c8 48000001 		bl _ZN11ApplicationC1Ev
 2186              	.LEHE33:
 2187 08cc 93DC0000 		stw 30,_ZN11Application8instanceE@l(28)
 2188 08d0 4BFFFD80 		b .L105
 2189              	.LVL130:
 2190              	.L142:
 2191              	.LBE2158:
 2192              	.LBE2236:
 2193              	.LBB2237:
 2194              	.LBB2229:
 2195 08d4 38600278 		li 3,632
 2196              	.LEHB34:
 2197 08d8 48000001 		bl _Znwj
 2198              	.LEHE34:
 2199 08dc 7C7E1B78 		mr 30,3
 2200              	.LEHB35:
 2201 08e0 48000001 		bl _ZN11ApplicationC1Ev
 2202              	.LEHE35:
 2203              	.LBE2229:
 2204              	.LBE2237:
 2205              		.loc 1 173 0
 2206 08e4 7FC3F378 		mr 3,30
 2207 08e8 7FE4FB78 		mr 4,31
 2208              	.LBB2238:
 2209              	.LBB2230:
 2210              		.loc 3 27 0
 2211 08ec 93DC0000 		stw 30,_ZN11Application8instanceE@l(28)
 2212              	.LEHB36:
 2213              	.LBE2230:
 2214              	.LBE2238:
 2215              		.loc 1 173 0
 2216 08f0 48000001 		bl _ZN11Application13PushForDeleteEP10GuiElement
 2217              	.LBE2242:
 2218              		.loc 1 176 0
 2219 08f4 80010044 		lwz 0,68(1)
 2220 08f8 7FA3EB78 		mr 3,29
 2221 08fc 83210024 		lwz 25,36(1)
 2222              	.LVL131:
 2223 0900 7C0803A6 		mtlr 0
 2224 0904 83410028 		lwz 26,40(1)
 2225              	.LVL132:
 2226 0908 8361002C 		lwz 27,44(1)
 2227 090c 83810030 		lwz 28,48(1)
 2228 0910 83A10034 		lwz 29,52(1)
 2229 0914 83C10038 		lwz 30,56(1)
 2230 0918 83E1003C 		lwz 31,60(1)
 2231              	.LVL133:
 2232 091c 38210040 		addi 1,1,64
 2233              		.cfi_remember_state
 2234              		.cfi_restore 25
 2235              		.cfi_restore 26
 2236              		.cfi_restore 27
 2237              		.cfi_restore 28
 2238              		.cfi_restore 29
 2239              		.cfi_restore 30
 2240              		.cfi_restore 31
 2241              	.LCFI18:
 2242              		.cfi_def_cfa_offset 0
 2243 0920 4E800020 		blr
 2244              	.LVL134:
 2245              	.L112:
 2246              	.LCFI19:
 2247              		.cfi_restore_state
 2248              	.LBB2243:
 2249              	.LBB2239:
 2250              	.LBB2214:
 2251              	.LBB2210:
 2252              	.LBB2208:
 2253              		.loc 7 834 0
 2254 0924 7C240B78 		mr 4,1
 2255 0928 387E025C 		addi 3,30,604
 2256 092c 95240018 		stwu 9,24(4)
 2257 0930 38A10008 		addi 5,1,8
 2258 0934 48000001 		bl _ZNSt6vectorIP10GuiElementSaIS1_EE13_M_insert_auxEN9__gnu_cxx17__normal_iteratorIPS1_S3_EERKS1_
 2259 0938 4BFFFD9C 		b .L114
 2260              	.LVL135:
 2261              	.L130:
 2262              	.L137:
 2263 093c 7C7F1B78 		mr 31,3
 2264              	.LVL136:
 2265              	.LBE2208:
 2266              	.LBE2210:
 2267              	.LBE2214:
 2268              	.LBE2239:
 2269              	.LBB2240:
 2270              	.LBB2159:
 2271              		.loc 3 27 0
 2272 0940 7FC3F378 		mr 3,30
 2273 0944 48000001 		bl _ZdlPv
 2274 0948 7FE3FB78 		mr 3,31
 2275 094c 48000001 		bl _Unwind_Resume
 2276              	.LVL137:
 2277              	.L129:
 2278 0950 7C7E1B78 		mr 30,3
 2279              	.LVL138:
 2280              	.LBE2159:
 2281              	.LBE2240:
 2282              		.loc 1 159 0
 2283 0954 7FE3FB78 		mr 3,31
 2284 0958 48000001 		bl _ZdlPv
 2285 095c 7FC3F378 		mr 3,30
 2286 0960 48000001 		bl _Unwind_Resume
 2287              	.LEHE36:
 2288              	.LVL139:
 2289              	.L133:
 2290 0964 4BFFFFD8 		b .L137
 2291              	.L132:
 2292 0968 4BFFFFD4 		b .L137
 2293              	.L134:
 2294 096c 4BFFFFD0 		b .L137
 2295              	.LVL140:
 2296              	.L131:
 2297 0970 4BFFFFCC 		b .L137
 2298              	.LBE2243:
 2299              		.cfi_endproc
 2300              	.LFE1506:
 2301              		.section	.gcc_except_table
 2302              	.LLSDA1506:
 2303 008b FF       		.byte	0xff
 2304 008c FF       		.byte	0xff
 2305 008d 01       		.byte	0x1
 2306 008e 46       		.uleb128 .LLSDACSE1506-.LLSDACSB1506
 2307              	.LLSDACSB1506:
 2308 008f 44       		.uleb128 .LEHB24-.LFB1506
 2309 0090 04       		.uleb128 .LEHE24-.LEHB24
 2310 0091 00       		.uleb128 0
 2311 0092 00       		.uleb128 0
 2312 0093 64       		.uleb128 .LEHB25-.LFB1506
 2313 0094 04       		.uleb128 .LEHE25-.LEHB25
 2314 0095 AC07     		.uleb128 .L129-.LFB1506
 2315 0097 00       		.uleb128 0
 2316 0098 74       		.uleb128 .LEHB26-.LFB1506
 2317 0099 9002     		.uleb128 .LEHE26-.LEHB26
 2318 009b 00       		.uleb128 0
 2319 009c 00       		.uleb128 0
 2320 009d 8803     		.uleb128 .LEHB27-.LFB1506
 2321 009f 04       		.uleb128 .LEHE27-.LEHB27
 2322 00a0 C407     		.uleb128 .L132-.LFB1506
 2323 00a2 00       		.uleb128 0
 2324 00a3 A003     		.uleb128 .LEHB28-.LFB1506
 2325 00a5 78       		.uleb128 .LEHE28-.LEHB28
 2326 00a6 00       		.uleb128 0
 2327 00a7 00       		.uleb128 0
 2328 00a8 9C04     		.uleb128 .LEHB29-.LFB1506
 2329 00aa 04       		.uleb128 .LEHE29-.LEHB29
 2330 00ab C007     		.uleb128 .L133-.LFB1506
 2331 00ad 00       		.uleb128 0
 2332 00ae B804     		.uleb128 .LEHB30-.LFB1506
 2333 00b0 AC01     		.uleb128 .LEHE30-.LEHB30
 2334 00b2 00       		.uleb128 0
 2335 00b3 00       		.uleb128 0
 2336 00b4 E805     		.uleb128 .LEHB31-.LFB1506
 2337 00b6 04       		.uleb128 .LEHE31-.LEHB31
 2338 00b7 9807     		.uleb128 .L130-.LFB1506
 2339 00b9 00       		.uleb128 0
 2340 00ba F405     		.uleb128 .LEHB32-.LFB1506
 2341 00bc 2C       		.uleb128 .LEHE32-.LEHB32
 2342 00bd 00       		.uleb128 0
 2343 00be 00       		.uleb128 0
 2344 00bf A406     		.uleb128 .LEHB33-.LFB1506
 2345 00c1 04       		.uleb128 .LEHE33-.LEHB33
 2346 00c2 CC07     		.uleb128 .L131-.LFB1506
 2347 00c4 00       		.uleb128 0
 2348 00c5 B406     		.uleb128 .LEHB34-.LFB1506
 2349 00c7 04       		.uleb128 .LEHE34-.LEHB34
 2350 00c8 00       		.uleb128 0
 2351 00c9 00       		.uleb128 0
 2352 00ca BC06     		.uleb128 .LEHB35-.LFB1506
 2353 00cc 04       		.uleb128 .LEHE35-.LEHB35
 2354 00cd C807     		.uleb128 .L134-.LFB1506
 2355 00cf 00       		.uleb128 0
 2356 00d0 CC06     		.uleb128 .LEHB36-.LFB1506
 2357 00d2 74       		.uleb128 .LEHE36-.LEHB36
 2358 00d3 00       		.uleb128 0
 2359 00d4 00       		.uleb128 0
 2360              	.LLSDACSE1506:
 2361              		.section	".text"
 2362              		.size	_Z12WindowPromptPKcS0_S0_S0_S0_S0_, .-_Z12WindowPromptPKcS0_S0_S0_S0_S0_
 2363              		.align 2
 2364              		.globl _Z16OnScreenKeyboardPwt
 2365              		.type	_Z16OnScreenKeyboardPwt, @function
 2366              	_Z16OnScreenKeyboardPwt:
 2367              	.LFB1500:
 2368              		.loc 1 69 0
 2369              		.cfi_startproc
 2370              		.cfi_personality 0,__gxx_personality_v0
 2371              		.cfi_lsda 0,.LLSDA1500
 2372              	.LVL141:
 2373 0974 9421FFC8 		stwu 1,-56(1)
 2374              	.LCFI20:
 2375              		.cfi_def_cfa_offset 56
 2376 0978 7C0802A6 		mflr 0
 2377 097c 93A1002C 		stw 29,44(1)
 2378 0980 7C7D1B78 		mr 29,3
 2379              		.cfi_offset 29, -12
 2380              		.cfi_register 65, 0
 2381 0984 93E10034 		stw 31,52(1)
 2382              	.LBB2289:
 2383              		.loc 1 71 0
 2384 0988 3860026C 		li 3,620
 2385              	.LVL142:
 2386              	.LBE2289:
 2387              		.loc 1 69 0
 2388 098c 7C9F2378 		mr 31,4
 2389              		.cfi_offset 31, -4
 2390 0990 93C10030 		stw 30,48(1)
 2391 0994 9001003C 		stw 0,60(1)
 2392 0998 93610024 		stw 27,36(1)
 2393 099c 93810028 		stw 28,40(1)
 2394              	.LEHB37:
 2395              	.LBB2391:
 2396              		.loc 1 71 0
 2397              		.cfi_offset 28, -16
 2398              		.cfi_offset 27, -20
 2399              		.cfi_offset 65, 4
 2400              		.cfi_offset 30, -8
 2401 09a0 48000001 		bl _Znwj
 2402              	.LEHE37:
 2403              	.LVL143:
 2404 09a4 7FA4EB78 		mr 4,29
 2405 09a8 7FE5FB78 		mr 5,31
 2406 09ac 7C7E1B78 		mr 30,3
 2407              	.LEHB38:
 2408 09b0 48000001 		bl _ZN14KeyboardWindowC1EPwi
 2409              	.LEHE38:
 2410              	.LVL144:
 2411              		.loc 1 72 0 discriminator 1
 2412 09b4 7FC3F378 		mr 3,30
 2413 09b8 38800001 		li 4,1
 2414              	.LBB2290:
 2415              	.LBB2291:
 2416              		.loc 3 27 0 discriminator 1
 2417 09bc 3F800000 		lis 28,_ZN11Application8instanceE@ha
 2418              	.LEHB39:
 2419              	.LBE2291:
 2420              	.LBE2290:
 2421              		.loc 1 72 0 discriminator 1
 2422 09c0 48000001 		bl _ZN8GuiFrame13DimBackgroundEb
 2423              	.LBB2295:
 2424              	.LBB2292:
 2425              		.loc 3 27 0 discriminator 1
 2426 09c4 83FC0000 		lwz 31,_ZN11Application8instanceE@l(28)
 2427 09c8 2F9F0000 		cmpwi 7,31,0
 2428 09cc 419E0200 		beq- 7,.L180
 2429              	.LVL145:
 2430              	.LBE2292:
 2431              	.LBE2295:
 2432              	.LBB2296:
 2433              	.LBB2297:
 2434              		.loc 3 51 0
 2435 09d0 807F0274 		lwz 3,628(31)
 2436 09d4 48000001 		bl LWP_MutexLock
 2437              	.LVL146:
 2438              		.loc 3 52 0
 2439 09d8 7FE3FB78 		mr 3,31
 2440 09dc 7FC4F378 		mr 4,30
 2441 09e0 48000001 		bl _ZN8GuiFrame6AppendEP10GuiElement
 2442              		.loc 3 53 0
 2443 09e4 807F0274 		lwz 3,628(31)
 2444 09e8 48000001 		bl LWP_MutexUnlock
 2445              	.LBE2297:
 2446              	.LBE2296:
 2447              	.LBB2300:
 2448              	.LBB2301:
 2449              		.loc 3 27 0
 2450 09ec 83FC0000 		lwz 31,_ZN11Application8instanceE@l(28)
 2451              	.LVL147:
 2452 09f0 2F9F0000 		cmpwi 7,31,0
 2453 09f4 419E0214 		beq- 7,.L181
 2454              	.L147:
 2455              	.LVL148:
 2456              	.LBE2301:
 2457              	.LBE2300:
 2458              	.LBB2306:
 2459              	.LBB2307:
 2460              	.LBB2308:
 2461              		.loc 1 176 0
 2462 09f8 813F025C 		lwz 9,604(31)
 2463              	.LBB2309:
 2464              		.loc 3 69 0
 2465 09fc 3BA00000 		li 29,0
 2466              	.LVL149:
 2467              	.LBE2309:
 2468              		.loc 1 176 0
 2469 0a00 817F0260 		lwz 11,608(31)
 2470              	.LBE2308:
 2471              	.LBE2307:
 2472              	.LBE2306:
 2473              	.LBB2361:
 2474              	.LBB2302:
 2475              		.loc 3 27 0
 2476 0a04 93C10008 		stw 30,8(1)
 2477              	.LVL150:
 2478              	.LBE2302:
 2479              	.LBE2361:
 2480              	.LBB2362:
 2481              	.LBB2357:
 2482              	.LBB2348:
 2483              	.LBB2345:
 2484              	.LBB2310:
 2485              	.LBB2311:
 2486              		.loc 7 571 0
 2487 0a08 7C095850 		subf 0,9,11
 2488              	.LBE2311:
 2489              	.LBE2310:
 2490              		.loc 3 69 0
 2491 0a0c 540AF0BF 		srwi. 10,0,2
 2492 0a10 7D204B78 		mr 0,9
 2493 0a14 40A2000C 		bne+ 0,.L177
 2494 0a18 4800002C 		b .L150
 2495              	.LVL151:
 2496              	.L168:
 2497              		.loc 1 176 0
 2498 0a1c 7C090378 		mr 9,0
 2499              	.LVL152:
 2500              	.L177:
 2501              	.LBE2345:
 2502              	.LBE2348:
 2503              	.LBE2357:
 2504              	.LBE2362:
 2505              	.LBB2363:
 2506              	.LBB2303:
 2507              		.loc 1 68 0
 2508 0a20 57BB103A 		slwi 27,29,2
 2509              	.LBE2303:
 2510              	.LBE2363:
 2511              	.LBB2364:
 2512              	.LBB2358:
 2513              	.LBB2349:
 2514              	.LBB2346:
 2515              		.loc 3 70 0
 2516 0a24 7D29D82E 		lwzx 9,9,27
 2517 0a28 7F9E4800 		cmpw 7,30,9
 2518 0a2c 419E0130 		beq- 7,.L182
 2519              	.L152:
 2520              	.LBB2314:
 2521              	.LBB2312:
 2522              		.loc 7 571 0
 2523 0a30 7D205850 		subf 9,0,11
 2524              	.LBE2312:
 2525              	.LBE2314:
 2526              		.loc 3 69 0
 2527 0a34 3BBD0001 		addi 29,29,1
 2528              	.LVL153:
 2529              	.LBB2315:
 2530              	.LBB2313:
 2531              		.loc 7 571 0
 2532 0a38 7D291670 		srawi 9,9,2
 2533              	.LBE2313:
 2534              	.LBE2315:
 2535              		.loc 3 69 0
 2536 0a3c 7F9D4840 		cmplw 7,29,9
 2537 0a40 419CFFDC 		blt+ 7,.L168
 2538              	.LVL154:
 2539              	.L150:
 2540              	.LBE2346:
 2541              	.LBE2349:
 2542              		.loc 3 62 0
 2543 0a44 807F0274 		lwz 3,628(31)
 2544 0a48 48000001 		bl LWP_MutexLock
 2545              	.LVL155:
 2546              	.LBB2350:
 2547              	.LBB2351:
 2548              		.loc 7 828 0
 2549 0a4c 813F0260 		lwz 9,608(31)
 2550 0a50 801F0264 		lwz 0,612(31)
 2551 0a54 7F890000 		cmpw 7,9,0
 2552 0a58 419E0244 		beq- 7,.L154
 2553              	.LVL156:
 2554              	.LBB2352:
 2555              	.LBB2353:
 2556              		.loc 5 108 0
 2557 0a5c 2F890000 		cmpwi 7,9,0
 2558 0a60 39600000 		li 11,0
 2559 0a64 419E0010 		beq- 7,.L155
 2560 0a68 80010008 		lwz 0,8(1)
 2561 0a6c 90090000 		stw 0,0(9)
 2562 0a70 817F0260 		lwz 11,608(31)
 2563              	.L155:
 2564              	.LBE2353:
 2565              	.LBE2352:
 2566              		.loc 7 831 0
 2567 0a74 396B0004 		addi 11,11,4
 2568 0a78 917F0260 		stw 11,608(31)
 2569              	.LVL157:
 2570              	.L156:
 2571              	.LBE2351:
 2572              	.LBE2350:
 2573              		.loc 3 64 0
 2574 0a7c 807F0274 		lwz 3,628(31)
 2575 0a80 48000001 		bl LWP_MutexUnlock
 2576              		.loc 1 176 0
 2577 0a84 83FE00DC 		lwz 31,220(30)
 2578              	.LVL158:
 2579              	.LBE2358:
 2580              	.LBE2364:
 2581              		.loc 1 77 0
 2582 0a88 2F9F0000 		cmpwi 7,31,0
 2583 0a8c 409C0070 		bge- 7,.L157
 2584 0a90 3FA00000 		lis 29,_ZN11Application8instanceE@ha
 2585 0a94 3BBD0000 		la 29,_ZN11Application8instanceE@l(29)
 2586 0a98 48000024 		b .L159
 2587              	.L158:
 2588              		.loc 1 79 0
 2589 0a9c 813F0000 		lwz 9,0(31)
 2590 0aa0 7FE3FB78 		mr 3,31
 2591 0aa4 800900D8 		lwz 0,216(9)
 2592 0aa8 7C0903A6 		mtctr 0
 2593 0aac 4E800421 		bctrl
 2594              		.loc 1 176 0
 2595 0ab0 83FE00DC 		lwz 31,220(30)
 2596              		.loc 1 77 0
 2597 0ab4 2F9F0000 		cmpwi 7,31,0
 2598 0ab8 409C0044 		bge- 7,.L157
 2599              	.L159:
 2600              	.LBB2365:
 2601              	.LBB2366:
 2602              		.loc 3 27 0
 2603 0abc 83FD0000 		lwz 31,0(29)
 2604 0ac0 2F9F0000 		cmpwi 7,31,0
 2605 0ac4 409EFFD8 		bne+ 7,.L158
 2606 0ac8 38600278 		li 3,632
 2607 0acc 48000001 		bl _Znwj
 2608              	.LEHE39:
 2609 0ad0 7C7F1B78 		mr 31,3
 2610              	.LEHB40:
 2611 0ad4 48000001 		bl _ZN11ApplicationC1Ev
 2612              	.LEHE40:
 2613              	.LBE2366:
 2614              	.LBE2365:
 2615              		.loc 1 79 0
 2616 0ad8 813F0000 		lwz 9,0(31)
 2617 0adc 7FE3FB78 		mr 3,31
 2618              	.LBB2368:
 2619              	.LBB2367:
 2620              		.loc 3 27 0
 2621 0ae0 93FD0000 		stw 31,0(29)
 2622              	.LBE2367:
 2623              	.LBE2368:
 2624              		.loc 1 79 0
 2625 0ae4 800900D8 		lwz 0,216(9)
 2626 0ae8 7C0903A6 		mtctr 0
 2627              	.LEHB41:
 2628 0aec 4E800421 		bctrl
 2629              		.loc 1 176 0
 2630 0af0 83FE00DC 		lwz 31,220(30)
 2631              		.loc 1 77 0
 2632 0af4 2F9F0000 		cmpwi 7,31,0
 2633 0af8 419CFFC4 		blt+ 7,.L159
 2634              	.L157:
 2635              	.LBB2369:
 2636              	.LBB2370:
 2637              		.loc 3 27 0
 2638 0afc 83BC0000 		lwz 29,_ZN11Application8instanceE@l(28)
 2639 0b00 2F9D0000 		cmpwi 7,29,0
 2640 0b04 419E011C 		beq- 7,.L183
 2641              	.LBE2370:
 2642              	.LBE2369:
 2643              		.loc 1 82 0
 2644 0b08 7FC4F378 		mr 4,30
 2645 0b0c 7FA3EB78 		mr 3,29
 2646 0b10 48000001 		bl _ZN11Application13PushForDeleteEP10GuiElement
 2647              	.LBB2374:
 2648              	.LBB2375:
 2649              		.loc 3 27 0
 2650 0b14 83DC0000 		lwz 30,_ZN11Application8instanceE@l(28)
 2651              	.LVL159:
 2652 0b18 2F9E0000 		cmpwi 7,30,0
 2653 0b1c 419E0130 		beq- 7,.L184
 2654              	.L163:
 2655              	.LBE2375:
 2656              	.LBE2374:
 2657              		.loc 1 83 0
 2658 0b20 813E0000 		lwz 9,0(30)
 2659 0b24 7FC3F378 		mr 3,30
 2660 0b28 800900D8 		lwz 0,216(9)
 2661 0b2c 7C0903A6 		mtctr 0
 2662 0b30 4E800421 		bctrl
 2663              	.LBE2391:
 2664              		.loc 1 86 0
 2665 0b34 8001003C 		lwz 0,60(1)
 2666 0b38 7FE3FB78 		mr 3,31
 2667 0b3c 83610024 		lwz 27,36(1)
 2668 0b40 7C0803A6 		mtlr 0
 2669 0b44 83810028 		lwz 28,40(1)
 2670 0b48 83A1002C 		lwz 29,44(1)
 2671 0b4c 83C10030 		lwz 30,48(1)
 2672 0b50 83E10034 		lwz 31,52(1)
 2673 0b54 38210038 		addi 1,1,56
 2674              		.cfi_remember_state
 2675              	.LCFI21:
 2676              		.cfi_def_cfa_offset 0
 2677              		.cfi_restore 31
 2678              		.cfi_restore 30
 2679              		.cfi_restore 29
 2680              		.cfi_restore 28
 2681              		.cfi_restore 27
 2682 0b58 4E800020 		blr
 2683              	.LVL160:
 2684              	.L182:
 2685              	.LCFI22:
 2686              		.cfi_restore_state
 2687              	.LBB2392:
 2688              	.LBB2378:
 2689              	.LBB2359:
 2690              	.LBB2355:
 2691              	.LBB2347:
 2692              		.loc 3 71 0
 2693 0b5c 807F0274 		lwz 3,628(31)
 2694 0b60 48000001 		bl LWP_MutexLock
 2695              	.LVL161:
 2696              	.LBB2316:
 2697              	.LBB2317:
 2698              		.loc 8 773 0
 2699 0b64 807F025C 		lwz 3,604(31)
 2700              	.LBE2317:
 2701              	.LBE2316:
 2702              	.LBB2319:
 2703              	.LBB2320:
 2704              	.LBB2321:
 2705              		.loc 1 176 0
 2706 0b68 813F0260 		lwz 9,608(31)
 2707              	.LBE2321:
 2708              	.LBE2320:
 2709              	.LBE2319:
 2710              	.LBB2340:
 2711              	.LBB2318:
 2712              		.loc 8 773 0
 2713 0b6c 7C63DA14 		add 3,3,27
 2714              	.LVL162:
 2715              	.LBE2318:
 2716              	.LBE2340:
 2717              	.LBB2341:
 2718              	.LBB2336:
 2719              	.LBB2322:
 2720              	.LBB2323:
 2721 0b70 38830004 		addi 4,3,4
 2722              	.LVL163:
 2723              	.LBE2323:
 2724              	.LBE2322:
 2725              		.loc 4 138 0
 2726 0b74 7F844800 		cmpw 7,4,9
 2727 0b78 419E0010 		beq- 7,.L153
 2728              	.LVL164:
 2729              	.LBB2324:
 2730              	.LBB2325:
 2731              	.LBB2326:
 2732              	.LBB2327:
 2733              	.LBB2328:
 2734              	.LBB2329:
 2735              		.loc 6 364 0
 2736 0b7c 7CA44850 		subf 5,4,9
 2737              	.LVL165:
 2738              		.loc 6 365 0
 2739 0b80 7CA51671 		srawi. 5,5,2
 2740              	.LVL166:
 2741 0b84 40820020 		bne- 0,.L185
 2742              	.LVL167:
 2743              	.L153:
 2744              	.LBE2329:
 2745              	.LBE2328:
 2746              	.LBE2327:
 2747              	.LBE2326:
 2748              	.LBE2325:
 2749              	.LBE2324:
 2750              		.loc 4 140 0
 2751 0b88 3929FFFC 		addi 9,9,-4
 2752              	.LBE2336:
 2753              	.LBE2341:
 2754              		.loc 3 73 0
 2755 0b8c 807F0274 		lwz 3,628(31)
 2756              	.LVL168:
 2757              	.LBB2342:
 2758              	.LBB2337:
 2759              		.loc 4 140 0
 2760 0b90 913F0260 		stw 9,608(31)
 2761              	.LBE2337:
 2762              	.LBE2342:
 2763              		.loc 3 73 0
 2764 0b94 48000001 		bl LWP_MutexUnlock
 2765              	.LVL169:
 2766 0b98 801F025C 		lwz 0,604(31)
 2767 0b9c 817F0260 		lwz 11,608(31)
 2768 0ba0 4BFFFE90 		b .L152
 2769              	.LVL170:
 2770              	.L185:
 2771              	.LBB2343:
 2772              	.LBB2338:
 2773              	.LBB2335:
 2774              	.LBB2334:
 2775              	.LBB2333:
 2776              	.LBB2332:
 2777              	.LBB2331:
 2778              	.LBB2330:
 2779              		.loc 6 366 0
 2780 0ba4 54A5103A 		slwi 5,5,2
 2781              	.LVL171:
 2782 0ba8 48000001 		bl memmove
 2783              	.LVL172:
 2784 0bac 813F0260 		lwz 9,608(31)
 2785              	.LBE2330:
 2786              	.LBE2331:
 2787              	.LBE2332:
 2788              	.LBE2333:
 2789              	.LBE2334:
 2790              	.LBE2335:
 2791              	.LBE2338:
 2792              	.LBE2343:
 2793              		.loc 3 73 0
 2794 0bb0 807F0274 		lwz 3,628(31)
 2795              	.LBB2344:
 2796              	.LBB2339:
 2797              		.loc 4 140 0
 2798 0bb4 3929FFFC 		addi 9,9,-4
 2799 0bb8 913F0260 		stw 9,608(31)
 2800              	.LBE2339:
 2801              	.LBE2344:
 2802              		.loc 3 73 0
 2803 0bbc 48000001 		bl LWP_MutexUnlock
 2804 0bc0 801F025C 		lwz 0,604(31)
 2805 0bc4 817F0260 		lwz 11,608(31)
 2806 0bc8 4BFFFE68 		b .L152
 2807              	.LVL173:
 2808              	.L180:
 2809              	.LBE2347:
 2810              	.LBE2355:
 2811              	.LBE2359:
 2812              	.LBE2378:
 2813              	.LBB2379:
 2814              	.LBB2293:
 2815              		.loc 3 27 0
 2816 0bcc 38600278 		li 3,632
 2817 0bd0 48000001 		bl _Znwj
 2818              	.LEHE41:
 2819 0bd4 7C7F1B78 		mr 31,3
 2820              	.LEHB42:
 2821 0bd8 48000001 		bl _ZN11ApplicationC1Ev
 2822              	.LEHE42:
 2823              	.LBE2293:
 2824              	.LBE2379:
 2825              	.LBB2380:
 2826              	.LBB2298:
 2827              		.loc 3 51 0
 2828 0bdc 807F0274 		lwz 3,628(31)
 2829              	.LBE2298:
 2830              	.LBE2380:
 2831              	.LBB2381:
 2832              	.LBB2294:
 2833              		.loc 3 27 0
 2834 0be0 93FC0000 		stw 31,_ZN11Application8instanceE@l(28)
 2835              	.LVL174:
 2836              	.LEHB43:
 2837              	.LBE2294:
 2838              	.LBE2381:
 2839              	.LBB2382:
 2840              	.LBB2299:
 2841              		.loc 3 51 0
 2842 0be4 48000001 		bl LWP_MutexLock
 2843              		.loc 3 52 0
 2844 0be8 7FE3FB78 		mr 3,31
 2845 0bec 7FC4F378 		mr 4,30
 2846 0bf0 48000001 		bl _ZN8GuiFrame6AppendEP10GuiElement
 2847              		.loc 3 53 0
 2848 0bf4 807F0274 		lwz 3,628(31)
 2849 0bf8 48000001 		bl LWP_MutexUnlock
 2850              	.LBE2299:
 2851              	.LBE2382:
 2852              	.LBB2383:
 2853              	.LBB2304:
 2854              		.loc 3 27 0
 2855 0bfc 83FC0000 		lwz 31,_ZN11Application8instanceE@l(28)
 2856              	.LVL175:
 2857 0c00 2F9F0000 		cmpwi 7,31,0
 2858 0c04 409EFDF4 		bne+ 7,.L147
 2859              	.L181:
 2860 0c08 38600278 		li 3,632
 2861 0c0c 48000001 		bl _Znwj
 2862              	.LEHE43:
 2863 0c10 7C7F1B78 		mr 31,3
 2864              	.LEHB44:
 2865 0c14 48000001 		bl _ZN11ApplicationC1Ev
 2866              	.LEHE44:
 2867 0c18 93FC0000 		stw 31,_ZN11Application8instanceE@l(28)
 2868 0c1c 4BFFFDDC 		b .L147
 2869              	.LVL176:
 2870              	.L183:
 2871              	.LBE2304:
 2872              	.LBE2383:
 2873              	.LBB2384:
 2874              	.LBB2371:
 2875 0c20 38600278 		li 3,632
 2876              	.LEHB45:
 2877 0c24 48000001 		bl _Znwj
 2878              	.LEHE45:
 2879 0c28 7C7D1B78 		mr 29,3
 2880              	.LEHB46:
 2881 0c2c 48000001 		bl _ZN11ApplicationC1Ev
 2882              	.LEHE46:
 2883              	.LBE2371:
 2884              	.LBE2384:
 2885              		.loc 1 82 0
 2886 0c30 7FC4F378 		mr 4,30
 2887 0c34 7FA3EB78 		mr 3,29
 2888              	.LBB2385:
 2889              	.LBB2372:
 2890              		.loc 3 27 0
 2891 0c38 93BC0000 		stw 29,_ZN11Application8instanceE@l(28)
 2892              	.LEHB47:
 2893              	.LBE2372:
 2894              	.LBE2385:
 2895              		.loc 1 82 0
 2896 0c3c 48000001 		bl _ZN11Application13PushForDeleteEP10GuiElement
 2897              	.LBB2386:
 2898              	.LBB2376:
 2899              		.loc 3 27 0
 2900 0c40 83DC0000 		lwz 30,_ZN11Application8instanceE@l(28)
 2901              	.LVL177:
 2902 0c44 2F9E0000 		cmpwi 7,30,0
 2903 0c48 409EFED8 		bne+ 7,.L163
 2904              	.L184:
 2905 0c4c 38600278 		li 3,632
 2906 0c50 48000001 		bl _Znwj
 2907              	.LEHE47:
 2908 0c54 7C7E1B78 		mr 30,3
 2909              	.LEHB48:
 2910 0c58 48000001 		bl _ZN11ApplicationC1Ev
 2911              	.LEHE48:
 2912              	.LBE2376:
 2913              	.LBE2386:
 2914              		.loc 1 83 0
 2915 0c5c 813E0000 		lwz 9,0(30)
 2916 0c60 7FC3F378 		mr 3,30
 2917              	.LBB2387:
 2918              	.LBB2377:
 2919              		.loc 3 27 0
 2920 0c64 93DC0000 		stw 30,_ZN11Application8instanceE@l(28)
 2921              	.LBE2377:
 2922              	.LBE2387:
 2923              		.loc 1 83 0
 2924 0c68 800900D8 		lwz 0,216(9)
 2925 0c6c 7C0903A6 		mtctr 0
 2926              	.LEHB49:
 2927 0c70 4E800421 		bctrl
 2928              	.LBE2392:
 2929              		.loc 1 86 0
 2930 0c74 8001003C 		lwz 0,60(1)
 2931 0c78 7FE3FB78 		mr 3,31
 2932 0c7c 83610024 		lwz 27,36(1)
 2933 0c80 7C0803A6 		mtlr 0
 2934 0c84 83810028 		lwz 28,40(1)
 2935 0c88 83A1002C 		lwz 29,44(1)
 2936 0c8c 83C10030 		lwz 30,48(1)
 2937 0c90 83E10034 		lwz 31,52(1)
 2938 0c94 38210038 		addi 1,1,56
 2939              		.cfi_remember_state
 2940              		.cfi_restore 27
 2941              		.cfi_restore 28
 2942              		.cfi_restore 29
 2943              		.cfi_restore 30
 2944              		.cfi_restore 31
 2945              	.LCFI23:
 2946              		.cfi_def_cfa_offset 0
 2947 0c98 4E800020 		blr
 2948              	.LVL178:
 2949              	.L154:
 2950              	.LCFI24:
 2951              		.cfi_restore_state
 2952              	.LBB2393:
 2953              	.LBB2388:
 2954              	.LBB2360:
 2955              	.LBB2356:
 2956              	.LBB2354:
 2957              		.loc 7 834 0
 2958 0c9c 7C240B78 		mr 4,1
 2959 0ca0 387F025C 		addi 3,31,604
 2960 0ca4 95240018 		stwu 9,24(4)
 2961 0ca8 38A10008 		addi 5,1,8
 2962 0cac 48000001 		bl _ZNSt6vectorIP10GuiElementSaIS1_EE13_M_insert_auxEN9__gnu_cxx17__normal_iteratorIPS1_S3_EERKS1_
 2963 0cb0 4BFFFDCC 		b .L156
 2964              	.LVL179:
 2965              	.L171:
 2966              	.L178:
 2967 0cb4 7C7E1B78 		mr 30,3
 2968              	.LVL180:
 2969              	.LBE2354:
 2970              	.LBE2356:
 2971              	.LBE2360:
 2972              	.LBE2388:
 2973              	.LBB2389:
 2974              	.LBB2305:
 2975              		.loc 3 27 0
 2976 0cb8 7FE3FB78 		mr 3,31
 2977 0cbc 48000001 		bl _ZdlPv
 2978 0cc0 7FC3F378 		mr 3,30
 2979 0cc4 48000001 		bl _Unwind_Resume
 2980              	.LVL181:
 2981              	.L170:
 2982              	.L179:
 2983 0cc8 7C7F1B78 		mr 31,3
 2984              	.LBE2305:
 2985              	.LBE2389:
 2986              		.loc 1 71 0
 2987 0ccc 7FC3F378 		mr 3,30
 2988 0cd0 48000001 		bl _ZdlPv
 2989 0cd4 7FE3FB78 		mr 3,31
 2990 0cd8 48000001 		bl _Unwind_Resume
 2991              	.LVL182:
 2992              	.L173:
 2993 0cdc 4BFFFFD8 		b .L178
 2994              	.LVL183:
 2995              	.L175:
 2996 0ce0 4BFFFFE8 		b .L179
 2997              	.LVL184:
 2998              	.L174:
 2999 0ce4 7C7F1B78 		mr 31,3
 3000              	.LBB2390:
 3001              	.LBB2373:
 3002              		.loc 3 27 0
 3003 0ce8 7FA3EB78 		mr 3,29
 3004 0cec 48000001 		bl _ZdlPv
 3005 0cf0 7FE3FB78 		mr 3,31
 3006 0cf4 48000001 		bl _Unwind_Resume
 3007              	.LEHE49:
 3008              	.LVL185:
 3009              	.L172:
 3010 0cf8 4BFFFFBC 		b .L178
 3011              	.LBE2373:
 3012              	.LBE2390:
 3013              	.LBE2393:
 3014              		.cfi_endproc
 3015              	.LFE1500:
 3016              		.section	.gcc_except_table
 3017              	.LLSDA1500:
 3018 00d5 FF       		.byte	0xff
 3019 00d6 FF       		.byte	0xff
 3020 00d7 01       		.byte	0x1
 3021 00d8 47       		.uleb128 .LLSDACSE1500-.LLSDACSB1500
 3022              	.LLSDACSB1500:
 3023 00d9 2C       		.uleb128 .LEHB37-.LFB1500
 3024 00da 04       		.uleb128 .LEHE37-.LEHB37
 3025 00db 00       		.uleb128 0
 3026 00dc 00       		.uleb128 0
 3027 00dd 3C       		.uleb128 .LEHB38-.LFB1500
 3028 00de 04       		.uleb128 .LEHE38-.LEHB38
 3029 00df D406     		.uleb128 .L170-.LFB1500
 3030 00e1 00       		.uleb128 0
 3031 00e2 4C       		.uleb128 .LEHB39-.LFB1500
 3032 00e3 9002     		.uleb128 .LEHE39-.LEHB39
 3033 00e5 00       		.uleb128 0
 3034 00e6 00       		.uleb128 0
 3035 00e7 E002     		.uleb128 .LEHB40-.LFB1500
 3036 00e9 04       		.uleb128 .LEHE40-.LEHB40
 3037 00ea E806     		.uleb128 .L173-.LFB1500
 3038 00ec 00       		.uleb128 0
 3039 00ed F802     		.uleb128 .LEHB41-.LFB1500
 3040 00ef E801     		.uleb128 .LEHE41-.LEHB41
 3041 00f1 00       		.uleb128 0
 3042 00f2 00       		.uleb128 0
 3043 00f3 E404     		.uleb128 .LEHB42-.LFB1500
 3044 00f5 04       		.uleb128 .LEHE42-.LEHB42
 3045 00f6 C006     		.uleb128 .L171-.LFB1500
 3046 00f8 00       		.uleb128 0
 3047 00f9 F004     		.uleb128 .LEHB43-.LFB1500
 3048 00fb 2C       		.uleb128 .LEHE43-.LEHB43
 3049 00fc 00       		.uleb128 0
 3050 00fd 00       		.uleb128 0
 3051 00fe A005     		.uleb128 .LEHB44-.LFB1500
 3052 0100 04       		.uleb128 .LEHE44-.LEHB44
 3053 0101 8407     		.uleb128 .L172-.LFB1500
 3054 0103 00       		.uleb128 0
 3055 0104 B005     		.uleb128 .LEHB45-.LFB1500
 3056 0106 04       		.uleb128 .LEHE45-.LEHB45
 3057 0107 00       		.uleb128 0
 3058 0108 00       		.uleb128 0
 3059 0109 B805     		.uleb128 .LEHB46-.LFB1500
 3060 010b 04       		.uleb128 .LEHE46-.LEHB46
 3061 010c F006     		.uleb128 .L174-.LFB1500
 3062 010e 00       		.uleb128 0
 3063 010f C805     		.uleb128 .LEHB47-.LFB1500
 3064 0111 18       		.uleb128 .LEHE47-.LEHB47
 3065 0112 00       		.uleb128 0
 3066 0113 00       		.uleb128 0
 3067 0114 E405     		.uleb128 .LEHB48-.LFB1500
 3068 0116 04       		.uleb128 .LEHE48-.LEHB48
 3069 0117 EC06     		.uleb128 .L175-.LFB1500
 3070 0119 00       		.uleb128 0
 3071 011a FC05     		.uleb128 .LEHB49-.LFB1500
 3072 011c 8801     		.uleb128 .LEHE49-.LEHB49
 3073 011e 00       		.uleb128 0
 3074 011f 00       		.uleb128 0
 3075              	.LLSDACSE1500:
 3076              		.section	".text"
 3077              		.size	_Z16OnScreenKeyboardPwt, .-_Z16OnScreenKeyboardPwt
 3078              		.align 2
 3079              		.globl _Z16OnScreenKeyboardPct
 3080              		.type	_Z16OnScreenKeyboardPct, @function
 3081              	_Z16OnScreenKeyboardPct:
 3082              	.LFB1501:
 3083              		.loc 1 92 0
 3084              		.cfi_startproc
 3085              		.cfi_personality 0,__gxx_personality_v0
 3086              		.cfi_lsda 0,.LLSDA1501
 3087              	.LVL186:
 3088 0cfc 7C0802A6 		mflr 0
 3089 0d00 9421FFD8 		stwu 1,-40(1)
 3090              	.LCFI25:
 3091              		.cfi_def_cfa_offset 40
 3092              		.cfi_register 65, 0
 3093 0d04 93A1001C 		stw 29,28(1)
 3094 0d08 7C7D1B78 		mr 29,3
 3095              		.cfi_offset 29, -12
 3096 0d0c 9001002C 		stw 0,44(1)
 3097              	.LBB2448:
 3098              		.loc 1 93 0
 3099 0d10 38040002 		addi 0,4,2
 3100              		.cfi_offset 65, 4
 3101 0d14 5403103A 		slwi 3,0,2
 3102              	.LVL187:
 3103              	.LBE2448:
 3104              		.loc 1 92 0
 3105 0d18 93810018 		stw 28,24(1)
 3106 0d1c 93C10020 		stw 30,32(1)
 3107 0d20 7C9E2378 		mr 30,4
 3108              		.cfi_offset 30, -8
 3109              		.cfi_offset 28, -16
 3110 0d24 93E10024 		stw 31,36(1)
 3111              	.LEHB50:
 3112              	.LBB2494:
 3113              		.loc 1 93 0
 3114              		.cfi_offset 31, -4
 3115 0d28 48000001 		bl _Znaj
 3116              	.LVL188:
 3117              		.loc 1 94 0
 3118 0d2c 38000000 		li 0,0
 3119              		.loc 1 93 0
 3120 0d30 7C7F1B78 		mr 31,3
 3121              	.LVL189:
 3122              		.loc 1 94 0
 3123 0d34 90030000 		stw 0,0(3)
 3124              		.loc 1 96 0
 3125 0d38 7FE4FB78 		mr 4,31
 3126 0d3c 7FA3EB78 		mr 3,29
 3127              	.LVL190:
 3128 0d40 48000001 		bl _Z12char2wchar_tPKcPw
 3129              	.LVL191:
 3130              		.loc 1 98 0
 3131 0d44 7FE3FB78 		mr 3,31
 3132 0d48 7FC4F378 		mr 4,30
 3133 0d4c 48000001 		bl _Z16OnScreenKeyboardPwt
 3134              	.LVL192:
 3135              	.LBB2449:
 3136              		.loc 1 100 0
 3137 0d50 7C7C1B79 		mr. 28,3
 3138 0d54 40820030 		bne- 0,.L205
 3139              	.LVL193:
 3140              	.L199:
 3141              	.LBE2449:
 3142              		.loc 1 106 0
 3143 0d58 7FE3FB78 		mr 3,31
 3144 0d5c 48000001 		bl _ZdaPv
 3145              	.LBE2494:
 3146              		.loc 1 109 0
 3147 0d60 8001002C 		lwz 0,44(1)
 3148 0d64 7F83E378 		mr 3,28
 3149 0d68 83A1001C 		lwz 29,28(1)
 3150              	.LVL194:
 3151 0d6c 7C0803A6 		mtlr 0
 3152 0d70 83810018 		lwz 28,24(1)
 3153              	.LVL195:
 3154 0d74 83C10020 		lwz 30,32(1)
 3155 0d78 83E10024 		lwz 31,36(1)
 3156              	.LVL196:
 3157 0d7c 38210028 		addi 1,1,40
 3158              		.cfi_remember_state
 3159              	.LCFI26:
 3160              		.cfi_def_cfa_offset 0
 3161              		.cfi_restore 31
 3162              		.cfi_restore 30
 3163              		.cfi_restore 29
 3164              		.cfi_restore 28
 3165 0d80 4E800020 		blr
 3166              	.LVL197:
 3167              	.L205:
 3168              	.LCFI27:
 3169              		.cfi_restore_state
 3170              	.LBB2495:
 3171              	.LBB2493:
 3172              	.LBB2450:
 3173              		.loc 1 102 0
 3174 0d84 38610010 		addi 3,1,16
 3175              	.LVL198:
 3176 0d88 7FE4FB78 		mr 4,31
 3177 0d8c 48000001 		bl _ZN7wStringC1EPKw
 3178              	.LEHE50:
 3179              		.loc 1 103 0
 3180 0d90 3861000C 		addi 3,1,12
 3181 0d94 38810010 		addi 4,1,16
 3182              	.LEHB51:
 3183 0d98 48000001 		bl _ZNK7wString6toUTF8Ev
 3184              	.LEHE51:
 3185              	.LVL199:
 3186 0d9c 80A1000C 		lwz 5,12(1)
 3187 0da0 7FA3EB78 		mr 3,29
 3188 0da4 7FC4F378 		mr 4,30
 3189              	.LEHB52:
 3190 0da8 4CC63182 		crxor 6,6,6
 3191 0dac 48000001 		bl snprintf
 3192              	.LEHE52:
 3193              	.LVL200:
 3194              	.LBB2451:
 3195              	.LBB2452:
 3196              	.LBB2453:
 3197              	.LBB2454:
 3198              	.LBB2455:
 3199              	.LBB2456:
 3200              		.file 9 "d:\\devkitpro\\devkitppc\\bin\\../lib/gcc/powerpc-eabi/4.6.3/../../../../powerpc-eabi/inc
 3201              		.loc 9 288 0
 3202 0db0 8121000C 		lwz 9,12(1)
 3203              	.LBE2456:
 3204              	.LBE2455:
 3205              	.LBE2454:
 3206              	.LBB2457:
 3207              	.LBB2458:
 3208              		.loc 9 235 0
 3209 0db4 3D600000 		lis 11,_ZNSs4_Rep20_S_empty_rep_storageE@ha
 3210 0db8 380B0000 		la 0,_ZNSs4_Rep20_S_empty_rep_storageE@l(11)
 3211              	.LBE2458:
 3212              	.LBE2457:
 3213              		.loc 9 534 0
 3214 0dbc 3869FFF4 		addi 3,9,-12
 3215              	.LVL201:
 3216              	.LBB2467:
 3217              	.LBB2465:
 3218              		.loc 9 235 0
 3219 0dc0 7F830000 		cmpw 7,3,0
 3220 0dc4 409E003C 		bne- 7,.L206
 3221              	.LVL202:
 3222              	.L193:
 3223              	.LBE2465:
 3224              	.LBE2467:
 3225              	.LBE2453:
 3226              	.LBE2452:
 3227              	.LBE2451:
 3228              	.LBB2471:
 3229              	.LBB2472:
 3230              	.LBB2473:
 3231              	.LBB2474:
 3232              	.LBB2475:
 3233              	.LBB2476:
 3234              	.LBB2477:
 3235              	.LBB2478:
 3236              		.loc 9 288 0
 3237 0dc8 81210010 		lwz 9,16(1)
 3238              	.LBE2478:
 3239              	.LBE2477:
 3240              	.LBE2476:
 3241              	.LBB2479:
 3242              	.LBB2480:
 3243              		.loc 9 235 0
 3244 0dcc 3D600000 		lis 11,_ZNSbIwSt11char_traitsIwESaIwEE4_Rep20_S_empty_rep_storageE@ha
 3245 0dd0 380B0000 		la 0,_ZNSbIwSt11char_traitsIwESaIwEE4_Rep20_S_empty_rep_storageE@l(11)
 3246              	.LBE2480:
 3247              	.LBE2479:
 3248              		.loc 9 534 0
 3249 0dd4 3869FFF4 		addi 3,9,-12
 3250              	.LVL203:
 3251              	.LBB2488:
 3252              	.LBB2487:
 3253              		.loc 9 235 0
 3254 0dd8 7F830000 		cmpw 7,3,0
 3255 0ddc 419EFF7C 		beq+ 7,.L199
 3256              	.LVL204:
 3257              	.LBB2481:
 3258              	.LBB2482:
 3259              	.LBB2483:
 3260              		.file 10 "d:\\devkitpro\\devkitppc\\bin\\../lib/gcc/powerpc-eabi/4.6.3/../../../../powerpc-eabi/in
 3261              		.loc 10 66 0
 3262 0de0 8169FFFC 		lwz 11,-4(9)
 3263              	.LVL205:
 3264              	.LBE2483:
 3265              	.LBE2482:
 3266              	.LBE2481:
 3267              		.loc 9 240 0
 3268 0de4 2F8B0000 		cmpwi 7,11,0
 3269              	.LBB2486:
 3270              	.LBB2485:
 3271              	.LBB2484:
 3272              		.loc 10 67 0
 3273 0de8 396BFFFF 		addi 11,11,-1
 3274 0dec 9169FFFC 		stw 11,-4(9)
 3275              	.LBE2484:
 3276              	.LBE2485:
 3277              	.LBE2486:
 3278              		.loc 9 240 0
 3279 0df0 419DFF68 		bgt+ 7,.L199
 3280              		.loc 9 244 0
 3281 0df4 38810008 		addi 4,1,8
 3282 0df8 48000001 		bl _ZNSbIwSt11char_traitsIwESaIwEE4_Rep10_M_destroyERKS1_
 3283              	.LVL206:
 3284 0dfc 4BFFFF5C 		b .L199
 3285              	.LVL207:
 3286              	.L206:
 3287              	.LBE2487:
 3288              	.LBE2488:
 3289              	.LBE2475:
 3290              	.LBE2474:
 3291              	.LBE2473:
 3292              	.LBE2472:
 3293              	.LBE2471:
 3294              	.LBB2489:
 3295              	.LBB2470:
 3296              	.LBB2469:
 3297              	.LBB2468:
 3298              	.LBB2466:
 3299              	.LBB2459:
 3300              	.LBB2460:
 3301              	.LBB2461:
 3302              		.loc 10 66 0
 3303 0e00 8169FFFC 		lwz 11,-4(9)
 3304              	.LVL208:
 3305              	.LBE2461:
 3306              	.LBE2460:
 3307              	.LBE2459:
 3308              		.loc 9 240 0
 3309 0e04 2F8B0000 		cmpwi 7,11,0
 3310              	.LBB2464:
 3311              	.LBB2463:
 3312              	.LBB2462:
 3313              		.loc 10 67 0
 3314 0e08 396BFFFF 		addi 11,11,-1
 3315 0e0c 9169FFFC 		stw 11,-4(9)
 3316              	.LBE2462:
 3317              	.LBE2463:
 3318              	.LBE2464:
 3319              		.loc 9 240 0
 3320 0e10 419DFFB8 		bgt+ 7,.L193
 3321              		.loc 9 244 0
 3322 0e14 38810009 		addi 4,1,9
 3323 0e18 48000001 		bl _ZNSs4_Rep10_M_destroyERKSaIcE
 3324              	.LVL209:
 3325 0e1c 4BFFFFAC 		b .L193
 3326              	.LVL210:
 3327              	.L203:
 3328 0e20 7C7F1B78 		mr 31,3
 3329              	.LVL211:
 3330              	.L201:
 3331              	.LBE2466:
 3332              	.LBE2468:
 3333              	.LBE2469:
 3334              	.LBE2470:
 3335              	.LBE2489:
 3336              	.LBB2490:
 3337              	.LBB2491:
 3338              	.LBB2492:
 3339              		.file 11 "d:/Projects/SaveGameManager/savegame-manager-gx/trunk/source/Prompts/../GUI/../TextOpera
 3340              		.loc 11 10 0
 3341 0e24 38610010 		addi 3,1,16
 3342              	.LVL212:
 3343 0e28 48000001 		bl _ZNSbIwSt11char_traitsIwESaIwEED2Ev
 3344              	.LVL213:
 3345 0e2c 7FE3FB78 		mr 3,31
 3346              	.LEHB53:
 3347 0e30 48000001 		bl _Unwind_Resume
 3348              	.LEHE53:
 3349              	.LVL214:
 3350              	.L204:
 3351 0e34 7C7F1B78 		mr 31,3
 3352              	.LVL215:
 3353              	.LBE2492:
 3354              	.LBE2491:
 3355              	.LBE2490:
 3356              		.loc 1 103 0
 3357 0e38 3861000C 		addi 3,1,12
 3358              	.LVL216:
 3359 0e3c 48000001 		bl _ZNSsD1Ev
 3360              	.LVL217:
 3361 0e40 4BFFFFE4 		b .L201
 3362              	.LBE2450:
 3363              	.LBE2493:
 3364              	.LBE2495:
 3365              		.cfi_endproc
 3366              	.LFE1501:
 3367              		.section	.gcc_except_table
 3368              	.LLSDA1501:
 3369 0120 FF       		.byte	0xff
 3370 0121 FF       		.byte	0xff
 3371 0122 01       		.byte	0x1
 3372 0123 15       		.uleb128 .LLSDACSE1501-.LLSDACSB1501
 3373              	.LLSDACSB1501:
 3374 0124 2C       		.uleb128 .LEHB50-.LFB1501
 3375 0125 68       		.uleb128 .LEHE50-.LEHB50
 3376 0126 00       		.uleb128 0
 3377 0127 00       		.uleb128 0
 3378 0128 9C01     		.uleb128 .LEHB51-.LFB1501
 3379 012a 04       		.uleb128 .LEHE51-.LEHB51
 3380 012b A402     		.uleb128 .L203-.LFB1501
 3381 012d 00       		.uleb128 0
 3382 012e AC01     		.uleb128 .LEHB52-.LFB1501
 3383 0130 08       		.uleb128 .LEHE52-.LEHB52
 3384 0131 B802     		.uleb128 .L204-.LFB1501
 3385 0133 00       		.uleb128 0
 3386 0134 B402     		.uleb128 .LEHB53-.LFB1501
 3387 0136 04       		.uleb128 .LEHE53-.LEHB53
 3388 0137 00       		.uleb128 0
 3389 0138 00       		.uleb128 0
 3390              	.LLSDACSE1501:
 3391              		.section	".text"
 3392              		.size	_Z16OnScreenKeyboardPct, .-_Z16OnScreenKeyboardPct
 3393              		.section	.rodata.str1.4,"aMS",@progbits,1
 3394              		.align 2
 3395              	.LC0:
 3396 0000 4E657477 		.string	"Network initialising..."
 3396      6F726B20 
 3396      696E6974 
 3396      69616C69 
 3396      73696E67 
 3397              	.LC1:
 3398 0018 506C6561 		.string	"Please wait..."
 3398      73652077 
 3398      6169742E 
 3398      2E2E00
 3399 0027 00       		.zero	1
 3400              	.LC2:
 3401 0028 4E6F206E 		.string	"No network connection."
 3401      6574776F 
 3401      726B2063 
 3401      6F6E6E65 
 3401      6374696F 
 3402              		.section	".text"
 3403              	.Letext0:
 3404              		.file 12 "d:\\devkitpro\\devkitppc\\bin\\../lib/gcc/powerpc-eabi/4.6.3/../../../../powerpc-eabi/in
 3405              		.file 13 "d:/devkitPro/libogc/include/gctypes.h"
 3406              		.file 14 "d:/devkitPro/libogc/include/ogc/gx.h"
 3407              		.file 15 "d:\\devkitpro\\devkitppc\\bin\\../lib/gcc/powerpc-eabi/4.6.3/../../../../powerpc-eabi/in
 3408              		.file 16 "d:\\devkitpro\\devkitppc\\bin\\../lib/gcc/powerpc-eabi/4.6.3/../../../../powerpc-eabi/in
 3409              		.file 17 "d:\\devkitpro\\devkitppc\\bin\\../lib/gcc/powerpc-eabi/4.6.3/include/stddef.h"
 3410              		.file 18 "d:\\devkitpro\\devkitppc\\bin\\../lib/gcc/powerpc-eabi/4.6.3/../../../../powerpc-eabi/in
 3411              		.file 19 "d:\\devkitpro\\devkitppc\\bin\\../lib/gcc/powerpc-eabi/4.6.3/../../../../powerpc-eabi/in
 3412              		.file 20 "d:\\devkitpro\\devkitppc\\bin\\../lib/gcc/powerpc-eabi/4.6.3/../../../../powerpc-eabi/in
 3413              		.file 21 "<built-in>"
 3414              		.file 22 "d:\\devkitpro\\devkitppc\\bin\\../lib/gcc/powerpc-eabi/4.6.3/../../../../powerpc-eabi/in
 3415              		.file 23 "d:\\devkitpro\\devkitppc\\bin\\../lib/gcc/powerpc-eabi/4.6.3/../../../../powerpc-eabi/in
 3416              		.file 24 "d:\\devkitpro\\devkitppc\\bin\\../lib/gcc/powerpc-eabi/4.6.3/../../../../powerpc-eabi/in
 3417              		.file 25 "d:\\devkitpro\\devkitppc\\bin\\../lib/gcc/powerpc-eabi/4.6.3/../../../../powerpc-eabi/in
 3418              		.file 26 "d:\\devkitpro\\devkitppc\\bin\\../lib/gcc/powerpc-eabi/4.6.3/../../../../powerpc-eabi/in
 3419              		.file 27 "d:\\devkitpro\\devkitppc\\bin\\../lib/gcc/powerpc-eabi/4.6.3/../../../../powerpc-eabi/in
 3420              		.file 28 "d:\\devkitpro\\devkitppc\\bin\\../lib/gcc/powerpc-eabi/4.6.3/../../../../powerpc-eabi/in
 3421              		.file 29 "d:\\devkitpro\\devkitppc\\bin\\../lib/gcc/powerpc-eabi/4.6.3/../../../../powerpc-eabi/in
 3422              		.file 30 "d:\\devkitpro\\devkitppc\\bin\\../lib/gcc/powerpc-eabi/4.6.3/../../../../powerpc-eabi/in
 3423              		.file 31 "d:\\devkitpro\\devkitppc\\bin\\../lib/gcc/powerpc-eabi/4.6.3/../../../../powerpc-eabi/in
 3424              		.file 32 "d:\\devkitpro\\devkitppc\\bin\\../lib/gcc/powerpc-eabi/4.6.3/../../../../powerpc-eabi/in
 3425              		.file 33 "d:\\devkitpro\\devkitppc\\bin\\../lib/gcc/powerpc-eabi/4.6.3/../../../../powerpc-eabi/in
 3426              		.file 34 "d:\\devkitpro\\devkitppc\\bin\\../lib/gcc/powerpc-eabi/4.6.3/../../../../powerpc-eabi/in
 3427              		.file 35 "d:\\devkitpro\\devkitppc\\bin\\../lib/gcc/powerpc-eabi/4.6.3/../../../../powerpc-eabi/in
 3428              		.file 36 "d:\\devkitpro\\devkitppc\\bin\\../lib/gcc/powerpc-eabi/4.6.3/../../../../powerpc-eabi/in
 3429              		.file 37 "d:\\devkitpro\\devkitppc\\bin\\../lib/gcc/powerpc-eabi/4.6.3/../../../../powerpc-eabi/in
 3430              		.file 38 "d:\\devkitpro\\devkitppc\\bin\\../lib/gcc/powerpc-eabi/4.6.3/../../../../powerpc-eabi/in
 3431              		.file 39 "d:\\devkitpro\\devkitppc\\bin\\../lib/gcc/powerpc-eabi/4.6.3/../../../../powerpc-eabi/in
 3432              		.file 40 "d:\\devkitpro\\devkitppc\\bin\\../lib/gcc/powerpc-eabi/4.6.3/../../../../powerpc-eabi/in
 3433              		.file 41 "d:\\devkitpro\\devkitppc\\bin\\../lib/gcc/powerpc-eabi/4.6.3/../../../../powerpc-eabi/in
 3434              		.file 42 "d:/Projects/SaveGameManager/savegame-manager-gx/trunk/source/Prompts/../GUI/../Settings/
 3435              		.file 43 "d:/Projects/SaveGameManager/savegame-manager-gx/trunk/source/Prompts/../GUI/../Settings/
 3436              		.file 44 "d:/Projects/SaveGameManager/savegame-manager-gx/trunk/source/Prompts/../GUI/../Settings/
 3437              		.file 45 "d:/Projects/SaveGameManager/savegame-manager-gx/trunk/source/Prompts/../GUI/../Tools/Rec
 3438              		.file 46 "d:/Projects/SaveGameManager/savegame-manager-gx/trunk/source/Prompts/../GUI/../sigslot.h
 3439              		.file 47 "d:\\devkitpro\\devkitppc\\bin\\../lib/gcc/powerpc-eabi/4.6.3/../../../../powerpc-eabi/in
 3440              		.file 48 "d:/Projects/SaveGameManager/savegame-manager-gx/trunk/source/Prompts/../GUI/gui_element.
 3441              		.file 49 "d:\\devkitpro\\devkitppc\\bin\\../lib/gcc/powerpc-eabi/4.6.3/../../../../powerpc-eabi/in
 3442              		.file 50 "d:\\devkitpro\\devkitppc\\bin\\../lib/gcc/powerpc-eabi/4.6.3/../../../../powerpc-eabi/in
 3443              		.file 51 "d:\\devkitpro\\devkitppc\\bin\\../lib/gcc/powerpc-eabi/4.6.3/../../../../powerpc-eabi/in
 3444              		.file 52 "d:\\devkitpro\\devkitppc\\bin\\../lib/gcc/powerpc-eabi/4.6.3/../../../../powerpc-eabi/in
 3445              		.file 53 "d:/Projects/SaveGameManager/savegame-manager-gx/trunk/source/Prompts/PromptWindow.h"
 3446              		.file 54 "d:/Projects/SaveGameManager/savegame-manager-gx/trunk/source/Prompts/KeyboardWindow.h"
 3447              		.file 55 "d:/Projects/SaveGameManager/savegame-manager-gx/trunk/source/Prompts/NumpadWindow.h"