	.file	"RemountTask.cpp"
	.section	".text"
.Ltext0:
	.section	.text._ZN12ThreadedTaskD2Ev,"axG",@progbits,_ZN12ThreadedTaskD5Ev,comdat
	.align 2
	.weak	_ZN12ThreadedTaskD2Ev
	.type	_ZN12ThreadedTaskD2Ev, @function
_ZN12ThreadedTaskD2Ev:
.LFB773:
	.file 1 "d:/Projects/SaveGameManager/savegame-manager-gx/trunk/source/DeviceControls/../Controls/ThreadedTaskHandler.hpp"
	.loc 1 29 0
	.cfi_startproc
.LVL0:
.LBB1371:
	.loc 1 29 0
	lis 9,_ZTV12ThreadedTask+8@ha
.LBE1371:
.LBB1372:
	la 0,_ZTV12ThreadedTask+8@l(9)
	stw 0,0(3)
.LBE1372:
	blr
	.cfi_endproc
.LFE773:
	.size	_ZN12ThreadedTaskD2Ev, .-_ZN12ThreadedTaskD2Ev
	.section	.text._ZN7sigslot15single_threaded4lockEv,"axG",@progbits,_ZN7sigslot15single_threaded4lockEv,comdat
	.align 2
	.weak	_ZN7sigslot15single_threaded4lockEv
	.type	_ZN7sigslot15single_threaded4lockEv, @function
_ZN7sigslot15single_threaded4lockEv:
.LFB1357:
	.file 2 "d:/Projects/SaveGameManager/savegame-manager-gx/trunk/source/DeviceControls/../Controls/../GUI/../sigslot.h"
	.loc 2 109 0
	.cfi_startproc
.LVL1:
	.loc 2 112 0
	blr
	.cfi_endproc
.LFE1357:
	.size	_ZN7sigslot15single_threaded4lockEv, .-_ZN7sigslot15single_threaded4lockEv
	.section	.text._ZN7sigslot15single_threaded6unlockEv,"axG",@progbits,_ZN7sigslot15single_threaded6unlockEv,comdat
	.align 2
	.weak	_ZN7sigslot15single_threaded6unlockEv
	.type	_ZN7sigslot15single_threaded6unlockEv, @function
_ZN7sigslot15single_threaded6unlockEv:
.LFB1358:
	.loc 2 114 0
	.cfi_startproc
.LVL2:
	.loc 2 117 0
	blr
	.cfi_endproc
.LFE1358:
	.size	_ZN7sigslot15single_threaded6unlockEv, .-_ZN7sigslot15single_threaded6unlockEv
	.section	.text._ZN10GuiElement9SetParentEPS_,"axG",@progbits,_ZN10GuiElement9SetParentEPS_,comdat
	.align 2
	.weak	_ZN10GuiElement9SetParentEPS_
	.type	_ZN10GuiElement9SetParentEPS_, @function
_ZN10GuiElement9SetParentEPS_:
.LFB1590:
	.file 3 "d:/Projects/SaveGameManager/savegame-manager-gx/trunk/source/DeviceControls/../Controls/../GUI/gui_element.h"
	.loc 3 92 0
	.cfi_startproc
.LVL3:
	.loc 3 92 0
	stw 4,96(3)
	blr
	.cfi_endproc
.LFE1590:
	.size	_ZN10GuiElement9SetParentEPS_, .-_ZN10GuiElement9SetParentEPS_
	.section	.text._ZN10GuiElement9GetParentEv,"axG",@progbits,_ZN10GuiElement9GetParentEv,comdat
	.align 2
	.weak	_ZN10GuiElement9GetParentEv
	.type	_ZN10GuiElement9GetParentEv, @function
_ZN10GuiElement9GetParentEv:
.LFB1591:
	.loc 3 95 0
	.cfi_startproc
.LVL4:
	.loc 3 95 0
	lwz 3,96(3)
.LVL5:
	blr
	.cfi_endproc
.LFE1591:
	.size	_ZN10GuiElement9GetParentEv, .-_ZN10GuiElement9GetParentEv
	.section	.text._ZN10GuiElement12GetZPositionEv,"axG",@progbits,_ZN10GuiElement12GetZPositionEv,comdat
	.align 2
	.weak	_ZN10GuiElement12GetZPositionEv
	.type	_ZN10GuiElement12GetZPositionEv, @function
_ZN10GuiElement12GetZPositionEv:
.LFB1592:
	.loc 3 106 0
	.cfi_startproc
.LVL6:
	mflr 0
	stwu 1,-16(1)
.LCFI0:
	.cfi_def_cfa_offset 16
	.cfi_register 65, 0
	stw 31,12(1)
	mr 31,3
	.cfi_offset 31, -4
	stw 0,20(1)
.LBB1373:
	.loc 3 110 0
	lwz 11,96(3)
	.loc 3 108 0
	li 3,0
.LVL7:
	.loc 3 110 0
	cmpwi 7,11,0
	beq- 7,.L8
	.cfi_offset 65, 4
	.loc 3 111 0
	lwz 9,0(11)
	mr 3,11
	lwz 0,24(9)
	mtctr 0
	bctrl
.LVL8:
.L8:
	.loc 3 113 0
	lwz 0,52(31)
.LBE1373:
	.loc 3 114 0
	lwz 31,12(1)
.LVL9:
	add 3,3,0
.LVL10:
	lwz 0,20(1)
	addi 1,1,16
.LCFI1:
	.cfi_def_cfa_offset 0
	.cfi_restore 31
	mtlr 0
	blr
	.cfi_endproc
.LFE1592:
	.size	_ZN10GuiElement12GetZPositionEv, .-_ZN10GuiElement12GetZPositionEv
	.section	.text._ZN10GuiElement10GetLeftPosEv,"axG",@progbits,_ZN10GuiElement10GetLeftPosEv,comdat
	.align 2
	.weak	_ZN10GuiElement10GetLeftPosEv
	.type	_ZN10GuiElement10GetLeftPosEv, @function
_ZN10GuiElement10GetLeftPosEv:
.LFB1593:
	.loc 3 116 0
	.cfi_startproc
.LVL11:
	.loc 3 116 0
	lwz 3,44(3)
.LVL12:
	blr
	.cfi_endproc
.LFE1593:
	.size	_ZN10GuiElement10GetLeftPosEv, .-_ZN10GuiElement10GetLeftPosEv
	.section	.text._ZN10GuiElement9GetTopPosEv,"axG",@progbits,_ZN10GuiElement9GetTopPosEv,comdat
	.align 2
	.weak	_ZN10GuiElement9GetTopPosEv
	.type	_ZN10GuiElement9GetTopPosEv, @function
_ZN10GuiElement9GetTopPosEv:
.LFB1594:
	.loc 3 118 0
	.cfi_startproc
.LVL13:
	.loc 3 118 0
	lwz 3,48(3)
.LVL14:
	blr
	.cfi_endproc
.LFE1594:
	.size	_ZN10GuiElement9GetTopPosEv, .-_ZN10GuiElement9GetTopPosEv
	.section	.text._ZN10GuiElement8GetWidthEv,"axG",@progbits,_ZN10GuiElement8GetWidthEv,comdat
	.align 2
	.weak	_ZN10GuiElement8GetWidthEv
	.type	_ZN10GuiElement8GetWidthEv, @function
_ZN10GuiElement8GetWidthEv:
.LFB1595:
	.loc 3 121 0
	.cfi_startproc
.LVL15:
	.loc 3 121 0
	lwz 3,36(3)
.LVL16:
	blr
	.cfi_endproc
.LFE1595:
	.size	_ZN10GuiElement8GetWidthEv, .-_ZN10GuiElement8GetWidthEv
	.section	.text._ZN10GuiElement9GetHeightEv,"axG",@progbits,_ZN10GuiElement9GetHeightEv,comdat
	.align 2
	.weak	_ZN10GuiElement9GetHeightEv
	.type	_ZN10GuiElement9GetHeightEv, @function
_ZN10GuiElement9GetHeightEv:
.LFB1596:
	.loc 3 124 0
	.cfi_startproc
.LVL17:
	.loc 3 124 0
	lwz 3,40(3)
.LVL18:
	blr
	.cfi_endproc
.LFE1596:
	.size	_ZN10GuiElement9GetHeightEv, .-_ZN10GuiElement9GetHeightEv
	.section	.text._ZN10GuiElement7SetSizeEii,"axG",@progbits,_ZN10GuiElement7SetSizeEii,comdat
	.align 2
	.weak	_ZN10GuiElement7SetSizeEii
	.type	_ZN10GuiElement7SetSizeEii, @function
_ZN10GuiElement7SetSizeEii:
.LFB1597:
	.loc 3 128 0
	.cfi_startproc
.LVL19:
	.loc 3 130 0
	stw 4,36(3)
	.loc 3 132 0
	.loc 3 131 0
	stw 5,40(3)
	.loc 3 132 0
	blr
	.cfi_endproc
.LFE1597:
	.size	_ZN10GuiElement7SetSizeEii, .-_ZN10GuiElement7SetSizeEii
	.section	.text._ZN10GuiElement10SetVisibleEb,"axG",@progbits,_ZN10GuiElement10SetVisibleEb,comdat
	.align 2
	.weak	_ZN10GuiElement10SetVisibleEb
	.type	_ZN10GuiElement10SetVisibleEb, @function
_ZN10GuiElement10SetVisibleEb:
.LFB1598:
	.loc 3 135 0
	.cfi_startproc
	.cfi_personality 0,__gxx_personality_v0
	.cfi_lsda 0,.LLSDA1598
.LVL20:
	mflr 0
	stwu 1,-32(1)
.LCFI2:
	.cfi_def_cfa_offset 32
	.cfi_register 65, 0
	stw 27,12(1)
.LBB1374:
.LBB1375:
	.loc 2 2270 0
	addi 27,3,4
	.cfi_offset 27, -20
.LBE1375:
.LBE1374:
	.loc 3 135 0
	stw 0,36(1)
	stw 30,24(1)
	mr 30,3
	.cfi_offset 30, -8
	.cfi_offset 65, 4
.LBB1398:
.LBB1392:
.LBB1376:
.LBB1377:
	.loc 2 338 0
	lwz 9,4(3)
	mr 3,27
.LVL21:
.LBE1377:
.LBE1376:
.LBE1392:
.LBE1398:
	.loc 3 135 0
	stw 28,16(1)
	mr 28,4
	.cfi_offset 28, -16
.LBB1399:
.LBB1393:
.LBB1381:
.LBB1378:
	.loc 2 338 0
	lwz 0,8(9)
.LBE1378:
.LBE1381:
.LBE1393:
.LBE1399:
	.loc 3 135 0
	stw 29,20(1)
.LBB1400:
	.file 4 "d:/Projects/SaveGameManager/savegame-manager-gx/trunk/source/DeviceControls/RemountTask.cpp"
	.loc 4 61 0
	mr 29,30
	.cfi_offset 29, -12
.LBE1400:
	.loc 3 135 0
	stw 31,28(1)
.LBB1401:
.LBB1394:
.LBB1382:
.LBB1379:
	.loc 2 338 0
	mtctr 0
.LBE1379:
.LBE1382:
.LBE1394:
.LBE1401:
	.loc 3 137 0
	stb 4,29(30)
.LVL22:
.LEHB0:
.LBB1402:
.LBB1395:
.LBB1383:
.LBB1380:
	.loc 2 338 0
	.cfi_offset 31, -4
	bctrl
.LEHE0:
.LVL23:
.LBE1380:
.LBE1383:
.LBE1395:
	.loc 4 61 0
	lwzu 31,8(29)
.LVL24:
.LBB1396:
	.loc 2 2274 0
	cmpw 7,31,29
	beq- 7,.L17
.LVL25:
.L24:
	.loc 2 2279 0
	lwz 3,8(31)
	mr 4,30
	mr 5,28
.LBB1384:
.LBB1385:
	.file 5 "d:\\devkitpro\\devkitppc\\bin\\../lib/gcc/powerpc-eabi/4.6.3/../../../../powerpc-eabi/include/c++/4.6.3/bits/stl_list.h"
	.loc 5 234 0
	lwz 31,0(31)
.LVL26:
.LBE1385:
.LBE1384:
	.loc 2 2279 0
	lwz 9,0(3)
	lwz 0,12(9)
	mtctr 0
.LEHB1:
	bctrl
.LEHE1:
.LVL27:
	.loc 2 2274 0
	cmpw 7,29,31
	bne+ 7,.L24
.LVL28:
.L17:
.LBB1386:
.LBB1387:
.LBB1388:
	.loc 2 343 0
	lwz 9,4(30)
	mr 3,27
	lwz 0,12(9)
	mtctr 0
.LEHB2:
	bctrl
.LEHE2:
.LBE1388:
.LBE1387:
.LBE1386:
.LBE1396:
.LBE1402:
	.loc 3 139 0
	lwz 0,36(1)
	lwz 27,12(1)
.LVL29:
	mtlr 0
	lwz 28,16(1)
.LVL30:
	lwz 29,20(1)
	lwz 30,24(1)
.LVL31:
	lwz 31,28(1)
.LVL32:
	addi 1,1,32
	.cfi_remember_state
.LCFI3:
	.cfi_def_cfa_offset 0
	.cfi_restore 31
	.cfi_restore 30
	.cfi_restore 29
	.cfi_restore 28
	.cfi_restore 27
	blr
.LVL33:
.L23:
.LCFI4:
	.cfi_restore_state
.LBB1403:
.LBB1397:
.LBB1389:
.LBB1390:
.LBB1391:
	.loc 2 343 0
	lwz 9,4(30)
	mr 31,3
.LVL34:
	mr 3,27
	lwz 0,12(9)
	mtctr 0
	bctrl
	mr 3,31
.LEHB3:
	bl _Unwind_Resume
.LEHE3:
.LBE1391:
.LBE1390:
.LBE1389:
.LBE1397:
.LBE1403:
	.cfi_endproc
.LFE1598:
	.globl __gxx_personality_v0
	.section	.gcc_except_table,"a",@progbits
.LLSDA1598:
	.byte	0xff
	.byte	0xff
	.byte	0x1
	.uleb128 .LLSDACSE1598-.LLSDACSB1598
.LLSDACSB1598:
	.uleb128 .LEHB0-.LFB1598
	.uleb128 .LEHE0-.LEHB0
	.uleb128 0
	.uleb128 0
	.uleb128 .LEHB1-.LFB1598
	.uleb128 .LEHE1-.LEHB1
	.uleb128 .L23-.LFB1598
	.uleb128 0
	.uleb128 .LEHB2-.LFB1598
	.uleb128 .LEHE2-.LEHB2
	.uleb128 0
	.uleb128 0
	.uleb128 .LEHB3-.LFB1598
	.uleb128 .LEHE3-.LEHB3
	.uleb128 0
	.uleb128 0
.LLSDACSE1598:
	.section	.text._ZN10GuiElement10SetVisibleEb,"axG",@progbits,_ZN10GuiElement10SetVisibleEb,comdat
	.size	_ZN10GuiElement10SetVisibleEb, .-_ZN10GuiElement10SetVisibleEb
	.section	.text._ZN10GuiElement9IsVisibleEv,"axG",@progbits,_ZN10GuiElement9IsVisibleEv,comdat
	.align 2
	.weak	_ZN10GuiElement9IsVisibleEv
	.type	_ZN10GuiElement9IsVisibleEv, @function
_ZN10GuiElement9IsVisibleEv:
.LFB1599:
	.loc 3 142 0
	.cfi_startproc
.LVL35:
	.loc 3 142 0
	lbz 3,29(3)
.LVL36:
	blr
	.cfi_endproc
.LFE1599:
	.size	_ZN10GuiElement9IsVisibleEv, .-_ZN10GuiElement9IsVisibleEv
	.section	.text._ZN10GuiElement12IsSelectableEv,"axG",@progbits,_ZN10GuiElement12IsSelectableEv,comdat
	.align 2
	.weak	_ZN10GuiElement12IsSelectableEv
	.type	_ZN10GuiElement12IsSelectableEv, @function
_ZN10GuiElement12IsSelectableEv:
.LFB1600:
	.loc 3 145 0
	.cfi_startproc
.LVL37:
	.loc 3 149 0
	lwz 0,72(3)
	li 9,0
	cmpwi 7,0,4
	beq- 7,.L27
	.loc 3 149 0 is_stmt 0 discriminator 1
	cmpwi 7,0,2
	beq- 7,.L27
	.loc 3 149 0 discriminator 3
	lbz 9,30(3)
.L27:
	.loc 3 150 0 is_stmt 1 discriminator 5
	mr 3,9
.LVL38:
	blr
	.cfi_endproc
.LFE1600:
	.size	_ZN10GuiElement12IsSelectableEv, .-_ZN10GuiElement12IsSelectableEv
	.section	.text._ZN10GuiElement11IsClickableEv,"axG",@progbits,_ZN10GuiElement11IsClickableEv,comdat
	.align 2
	.weak	_ZN10GuiElement11IsClickableEv
	.type	_ZN10GuiElement11IsClickableEv, @function
_ZN10GuiElement11IsClickableEv:
.LFB1601:
	.loc 3 153 0
	.cfi_startproc
.LVL39:
	.loc 3 158 0
	lwz 0,72(3)
	li 9,0
	cmpwi 7,0,4
	beq- 7,.L31
	.loc 3 158 0 is_stmt 0 discriminator 1
	cmpwi 7,0,2
	beq- 7,.L31
	.loc 3 158 0 discriminator 3
	cmpwi 7,0,3
	beq- 7,.L31
	.loc 3 158 0 discriminator 4
	lbz 9,31(3)
.L31:
	.loc 3 159 0 is_stmt 1 discriminator 6
	mr 3,9
.LVL40:
	blr
	.cfi_endproc
.LFE1601:
	.size	_ZN10GuiElement11IsClickableEv, .-_ZN10GuiElement11IsClickableEv
	.section	.text._ZN10GuiElement10IsHoldableEv,"axG",@progbits,_ZN10GuiElement10IsHoldableEv,comdat
	.align 2
	.weak	_ZN10GuiElement10IsHoldableEv
	.type	_ZN10GuiElement10IsHoldableEv, @function
_ZN10GuiElement10IsHoldableEv:
.LFB1602:
	.loc 3 162 0
	.cfi_startproc
.LVL41:
	.loc 3 162 0
	lwz 9,72(3)
	li 0,0
	cmpwi 7,9,4
	beq- 7,.L36
	.loc 3 162 0 is_stmt 0 discriminator 1
	lbz 0,32(3)
.L36:
	.loc 3 162 0 discriminator 4
	mr 3,0
.LVL42:
	blr
	.cfi_endproc
.LFE1602:
	.size	_ZN10GuiElement10IsHoldableEv, .-_ZN10GuiElement10IsHoldableEv
	.section	.text._ZN10GuiElement13SetSelectableEb,"axG",@progbits,_ZN10GuiElement13SetSelectableEb,comdat
	.align 2
	.weak	_ZN10GuiElement13SetSelectableEb
	.type	_ZN10GuiElement13SetSelectableEb, @function
_ZN10GuiElement13SetSelectableEb:
.LFB1603:
	.loc 3 165 0 is_stmt 1
	.cfi_startproc
.LVL43:
	.loc 3 165 0
	stb 4,30(3)
	blr
	.cfi_endproc
.LFE1603:
	.size	_ZN10GuiElement13SetSelectableEb, .-_ZN10GuiElement13SetSelectableEb
	.section	.text._ZN10GuiElement12SetClickableEb,"axG",@progbits,_ZN10GuiElement12SetClickableEb,comdat
	.align 2
	.weak	_ZN10GuiElement12SetClickableEb
	.type	_ZN10GuiElement12SetClickableEb, @function
_ZN10GuiElement12SetClickableEb:
.LFB1604:
	.loc 3 168 0
	.cfi_startproc
.LVL44:
	.loc 3 168 0
	stb 4,31(3)
	blr
	.cfi_endproc
.LFE1604:
	.size	_ZN10GuiElement12SetClickableEb, .-_ZN10GuiElement12SetClickableEb
	.section	.text._ZN10GuiElement11SetHoldableEb,"axG",@progbits,_ZN10GuiElement11SetHoldableEb,comdat
	.align 2
	.weak	_ZN10GuiElement11SetHoldableEb
	.type	_ZN10GuiElement11SetHoldableEb, @function
_ZN10GuiElement11SetHoldableEb:
.LFB1605:
	.loc 3 171 0
	.cfi_startproc
.LVL45:
	.loc 3 171 0
	stb 4,32(3)
	blr
	.cfi_endproc
.LFE1605:
	.size	_ZN10GuiElement11SetHoldableEb, .-_ZN10GuiElement11SetHoldableEb
	.section	.text._ZN10GuiElement8GetStateEv,"axG",@progbits,_ZN10GuiElement8GetStateEv,comdat
	.align 2
	.weak	_ZN10GuiElement8GetStateEv
	.type	_ZN10GuiElement8GetStateEv, @function
_ZN10GuiElement8GetStateEv:
.LFB1606:
	.loc 3 178 0
	.cfi_startproc
.LVL46:
	.loc 3 178 0
	lwz 3,72(3)
.LVL47:
	blr
	.cfi_endproc
.LFE1606:
	.size	_ZN10GuiElement8GetStateEv, .-_ZN10GuiElement8GetStateEv
	.section	.text._ZN10GuiElement12GetStateChanEv,"axG",@progbits,_ZN10GuiElement12GetStateChanEv,comdat
	.align 2
	.weak	_ZN10GuiElement12GetStateChanEv
	.type	_ZN10GuiElement12GetStateChanEv, @function
_ZN10GuiElement12GetStateChanEv:
.LFB1607:
	.loc 3 181 0
	.cfi_startproc
.LVL48:
	.loc 3 181 0
	lwz 3,76(3)
.LVL49:
	blr
	.cfi_endproc
.LFE1607:
	.size	_ZN10GuiElement12GetStateChanEv, .-_ZN10GuiElement12GetStateChanEv
	.section	.text._ZN10GuiElement8SetAlphaEi,"axG",@progbits,_ZN10GuiElement8SetAlphaEi,comdat
	.align 2
	.weak	_ZN10GuiElement8SetAlphaEi
	.type	_ZN10GuiElement8SetAlphaEi, @function
_ZN10GuiElement8SetAlphaEi:
.LFB1609:
	.loc 3 190 0
	.cfi_startproc
.LVL50:
	.loc 3 190 0
	stw 4,56(3)
	blr
	.cfi_endproc
.LFE1609:
	.size	_ZN10GuiElement8SetAlphaEi, .-_ZN10GuiElement8SetAlphaEi
	.section	.text._ZN10GuiElement8GetAlphaEv,"axG",@progbits,_ZN10GuiElement8GetAlphaEv,comdat
	.align 2
	.weak	_ZN10GuiElement8GetAlphaEv
	.type	_ZN10GuiElement8GetAlphaEv, @function
_ZN10GuiElement8GetAlphaEv:
.LFB1610:
	.loc 3 194 0
	.cfi_startproc
.LVL51:
	mflr 0
	stwu 1,-40(1)
.LCFI5:
	.cfi_def_cfa_offset 40
	.cfi_register 65, 0
	stw 31,36(1)
	stw 0,44(1)
.LBB1404:
	.loc 3 198 0
	lwz 31,108(3)
	.cfi_offset 65, 4
	.cfi_offset 31, -4
	cmpwi 7,31,0
	blt- 7,.L47
.L45:
.LVL52:
	.loc 3 203 0
	lwz 3,96(3)
.LVL53:
	cmpwi 7,3,0
	beq- 7,.L46
	.loc 3 204 0
	lwz 9,0(3)
	xoris 31,31,0x8000
.LVL54:
	lwz 0,100(9)
	mtctr 0
	bctrl
	lis 0,0x4330
	xoris 3,3,0x8000
	stw 0,16(1)
	stw 3,20(1)
	lis 9,.LC1@ha
	lfs 0,.LC1@l(9)
	lis 9,.LC2@ha
	lfd 13,16(1)
	lfs 12,.LC2@l(9)
	addi 9,1,24
	fsub 13,13,0
	stw 31,12(1)
	stw 0,8(1)
	frsp 13,13
	fdivs 13,13,12
	lfd 12,8(1)
	fsub 0,12,0
	frsp 0,0
	fmuls 0,0,13
	fctiwz 0,0
	stfiwx 0,0,9
	lwz 31,24(1)
.LVL55:
.L46:
.LBE1404:
	.loc 3 207 0
	lwz 0,44(1)
	mr 3,31
	lwz 31,36(1)
.LVL56:
	mtlr 0
	addi 1,1,40
	.cfi_remember_state
.LCFI6:
	.cfi_def_cfa_offset 0
	.cfi_restore 31
	blr
.LVL57:
.L47:
.LCFI7:
	.cfi_restore_state
.LBB1405:
	.loc 3 201 0
	lwz 31,56(3)
.LVL58:
	b .L45
.LBE1405:
	.cfi_endproc
.LFE1610:
	.size	_ZN10GuiElement8GetAlphaEv, .-_ZN10GuiElement8GetAlphaEv
	.section	.text._ZN10GuiElement8SetScaleEf,"axG",@progbits,_ZN10GuiElement8SetScaleEf,comdat
	.align 2
	.weak	_ZN10GuiElement8SetScaleEf
	.type	_ZN10GuiElement8SetScaleEf, @function
_ZN10GuiElement8SetScaleEf:
.LFB1611:
	.loc 3 210 0
	.cfi_startproc
.LVL59:
	.loc 3 212 0
	stfs 1,60(3)
	.loc 3 214 0
	.loc 3 213 0
	stfs 1,64(3)
	.loc 3 214 0
	blr
	.cfi_endproc
.LFE1611:
	.size	_ZN10GuiElement8SetScaleEf, .-_ZN10GuiElement8SetScaleEf
	.section	.text._ZN10GuiElement9SetScaleXEf,"axG",@progbits,_ZN10GuiElement9SetScaleXEf,comdat
	.align 2
	.weak	_ZN10GuiElement9SetScaleXEf
	.type	_ZN10GuiElement9SetScaleXEf, @function
_ZN10GuiElement9SetScaleXEf:
.LFB1612:
	.loc 3 217 0
	.cfi_startproc
.LVL60:
	.loc 3 217 0
	stfs 1,60(3)
	blr
	.cfi_endproc
.LFE1612:
	.size	_ZN10GuiElement9SetScaleXEf, .-_ZN10GuiElement9SetScaleXEf
	.section	.text._ZN10GuiElement9SetScaleYEf,"axG",@progbits,_ZN10GuiElement9SetScaleYEf,comdat
	.align 2
	.weak	_ZN10GuiElement9SetScaleYEf
	.type	_ZN10GuiElement9SetScaleYEf, @function
_ZN10GuiElement9SetScaleYEf:
.LFB1613:
	.loc 3 220 0
	.cfi_startproc
.LVL61:
	.loc 3 220 0
	stfs 1,64(3)
	blr
	.cfi_endproc
.LFE1613:
	.size	_ZN10GuiElement9SetScaleYEf, .-_ZN10GuiElement9SetScaleYEf
	.section	.text._ZN10GuiElement8GetScaleEv,"axG",@progbits,_ZN10GuiElement8GetScaleEv,comdat
	.align 2
	.weak	_ZN10GuiElement8GetScaleEv
	.type	_ZN10GuiElement8GetScaleEv, @function
_ZN10GuiElement8GetScaleEv:
.LFB1614:
	.loc 3 223 0
	.cfi_startproc
.LVL62:
	mflr 0
	stwu 1,-16(1)
.LCFI8:
	.cfi_def_cfa_offset 16
	.cfi_register 65, 0
.LBB1406:
	.loc 3 225 0
	lis 9,.LC3@ha
.LBE1406:
	.loc 3 223 0
	stfd 31,8(1)
	stw 0,20(1)
.LBB1407:
	.loc 3 225 0
	lfs 0,64(3)
	lfs 31,60(3)
	.cfi_offset 65, 4
	.cfi_offset 63, -8
	.loc 3 227 0
	lwz 11,96(3)
	.loc 3 225 0
	fadds 31,31,0
	lfs 0,.LC3@l(9)
	.loc 3 227 0
	cmpwi 7,11,0
	.loc 3 225 0
	fmuls 31,31,0
	lfs 0,112(3)
	fmuls 31,31,0
.LVL63:
	.loc 3 227 0
	beq- 7,.L52
	.loc 3 228 0
	lwz 9,0(11)
	mr 3,11
.LVL64:
	lwz 0,116(9)
	mtctr 0
	bctrl
	fmuls 31,31,1
.LVL65:
.L52:
.LBE1407:
	.loc 3 231 0
	lwz 0,20(1)
	fmr 1,31
	lfd 31,8(1)
.LVL66:
	mtlr 0
	addi 1,1,16
.LCFI9:
	.cfi_def_cfa_offset 0
	.cfi_restore 63
	blr
	.cfi_endproc
.LFE1614:
	.size	_ZN10GuiElement8GetScaleEv, .-_ZN10GuiElement8GetScaleEv
	.section	.text._ZN10GuiElement9GetScaleXEv,"axG",@progbits,_ZN10GuiElement9GetScaleXEv,comdat
	.align 2
	.weak	_ZN10GuiElement9GetScaleXEv
	.type	_ZN10GuiElement9GetScaleXEv, @function
_ZN10GuiElement9GetScaleXEv:
.LFB1615:
	.loc 3 234 0
	.cfi_startproc
.LVL67:
	mflr 0
	stwu 1,-16(1)
.LCFI10:
	.cfi_def_cfa_offset 16
	.cfi_register 65, 0
	stfd 31,8(1)
	stw 0,20(1)
.LBB1408:
	.loc 3 238 0
	lwz 11,96(3)
	.loc 3 236 0
	lfs 31,60(3)
	.cfi_offset 65, 4
	.cfi_offset 63, -8
	.loc 3 238 0
	cmpwi 7,11,0
	.loc 3 236 0
	lfs 0,112(3)
	fmuls 31,31,0
.LVL68:
	.loc 3 238 0
	beq- 7,.L54
	.loc 3 239 0
	lwz 9,0(11)
	mr 3,11
.LVL69:
	lwz 0,120(9)
	mtctr 0
	bctrl
	fmuls 31,31,1
.LVL70:
.L54:
.LBE1408:
	.loc 3 242 0
	lwz 0,20(1)
	fmr 1,31
	lfd 31,8(1)
.LVL71:
	mtlr 0
	addi 1,1,16
.LCFI11:
	.cfi_def_cfa_offset 0
	.cfi_restore 63
	blr
	.cfi_endproc
.LFE1615:
	.size	_ZN10GuiElement9GetScaleXEv, .-_ZN10GuiElement9GetScaleXEv
	.section	.text._ZN10GuiElement9GetScaleYEv,"axG",@progbits,_ZN10GuiElement9GetScaleYEv,comdat
	.align 2
	.weak	_ZN10GuiElement9GetScaleYEv
	.type	_ZN10GuiElement9GetScaleYEv, @function
_ZN10GuiElement9GetScaleYEv:
.LFB1616:
	.loc 3 245 0
	.cfi_startproc
.LVL72:
	mflr 0
	stwu 1,-16(1)
.LCFI12:
	.cfi_def_cfa_offset 16
	.cfi_register 65, 0
	stfd 31,8(1)
	stw 0,20(1)
.LBB1409:
	.loc 3 249 0
	lwz 11,96(3)
	.loc 3 247 0
	lfs 31,64(3)
	.cfi_offset 65, 4
	.cfi_offset 63, -8
	.loc 3 249 0
	cmpwi 7,11,0
	.loc 3 247 0
	lfs 0,112(3)
	fmuls 31,31,0
.LVL73:
	.loc 3 249 0
	beq- 7,.L56
	.loc 3 250 0
	lwz 9,0(11)
	mr 3,11
.LVL74:
	lwz 0,124(9)
	mtctr 0
	bctrl
	fmuls 31,31,1
.LVL75:
.L56:
.LBE1409:
	.loc 3 253 0
	lwz 0,20(1)
	fmr 1,31
	lfd 31,8(1)
.LVL76:
	mtlr 0
	addi 1,1,16
.LCFI13:
	.cfi_def_cfa_offset 0
	.cfi_restore 63
	blr
	.cfi_endproc
.LFE1616:
	.size	_ZN10GuiElement9GetScaleYEv, .-_ZN10GuiElement9GetScaleYEv
	.section	.text._ZN10GuiElement6RumbleEv,"axG",@progbits,_ZN10GuiElement6RumbleEv,comdat
	.align 2
	.weak	_ZN10GuiElement6RumbleEv
	.type	_ZN10GuiElement6RumbleEv, @function
_ZN10GuiElement6RumbleEv:
.LFB1617:
	.loc 3 256 0
	.cfi_startproc
.LVL77:
	.loc 3 256 0
	lbz 3,28(3)
.LVL78:
	blr
	.cfi_endproc
.LFE1617:
	.size	_ZN10GuiElement6RumbleEv, .-_ZN10GuiElement6RumbleEv
	.section	.text._ZN10GuiElement9SetRumbleEb,"axG",@progbits,_ZN10GuiElement9SetRumbleEb,comdat
	.align 2
	.weak	_ZN10GuiElement9SetRumbleEb
	.type	_ZN10GuiElement9SetRumbleEb, @function
_ZN10GuiElement9SetRumbleEb:
.LFB1618:
	.loc 3 259 0
	.cfi_startproc
.LVL79:
	.loc 3 259 0
	stb 4,28(3)
	blr
	.cfi_endproc
.LFE1618:
	.size	_ZN10GuiElement9SetRumbleEb, .-_ZN10GuiElement9SetRumbleEb
	.section	.text._ZN10GuiElement13SetEffectGrowEv,"axG",@progbits,_ZN10GuiElement13SetEffectGrowEv,comdat
	.align 2
	.weak	_ZN10GuiElement13SetEffectGrowEv
	.type	_ZN10GuiElement13SetEffectGrowEv, @function
_ZN10GuiElement13SetEffectGrowEv:
.LFB1619:
	.loc 3 271 0
	.cfi_startproc
.LVL80:
	mflr 0
	stwu 1,-8(1)
.LCFI14:
	.cfi_def_cfa_offset 8
	.cfi_register 65, 0
	lwz 9,0(3)
	li 4,256
	li 5,4
	li 6,110
	stw 0,12(1)
	.loc 3 271 0
	lwz 0,140(9)
	.cfi_offset 65, 4
	mtctr 0
	bctrl
.LVL81:
	lwz 0,12(1)
	addi 1,1,8
.LCFI15:
	.cfi_def_cfa_offset 0
	mtlr 0
	blr
	.cfi_endproc
.LFE1619:
	.size	_ZN10GuiElement13SetEffectGrowEv, .-_ZN10GuiElement13SetEffectGrowEv
	.section	.text._ZNK10GuiElement9GetEffectEv,"axG",@progbits,_ZNK10GuiElement9GetEffectEv,comdat
	.align 2
	.weak	_ZNK10GuiElement9GetEffectEv
	.type	_ZNK10GuiElement9GetEffectEv, @function
_ZNK10GuiElement9GetEffectEv:
.LFB1620:
	.loc 3 276 0
	.cfi_startproc
.LVL82:
	.loc 3 276 0
	lwz 3,120(3)
.LVL83:
	blr
	.cfi_endproc
.LFE1620:
	.size	_ZNK10GuiElement9GetEffectEv, .-_ZNK10GuiElement9GetEffectEv
	.section	.text._ZNK10GuiElement10IsAnimatedEv,"axG",@progbits,_ZNK10GuiElement10IsAnimatedEv,comdat
	.align 2
	.weak	_ZNK10GuiElement10IsAnimatedEv
	.type	_ZNK10GuiElement10IsAnimatedEv, @function
_ZNK10GuiElement10IsAnimatedEv:
.LFB1621:
	.loc 3 278 0
	.cfi_startproc
.LVL84:
	mflr 0
	stwu 1,-8(1)
.LCFI16:
	.cfi_def_cfa_offset 8
	.cfi_register 65, 0
	stw 0,12(1)
	.loc 3 278 0
	lwz 9,0(3)
	lwz 0,152(9)
	.cfi_offset 65, 4
	mtctr 0
	bctrl
.LVL85:
	srawi 0,3,31
	subf 3,3,0
	lwz 0,12(1)
	srwi 3,3,31
	mtlr 0
	addi 1,1,8
.LCFI17:
	.cfi_def_cfa_offset 0
	blr
	.cfi_endproc
.LFE1621:
	.size	_ZNK10GuiElement10IsAnimatedEv, .-_ZNK10GuiElement10IsAnimatedEv
	.section	.text._ZN10GuiElement8IsInsideEii,"axG",@progbits,_ZN10GuiElement8IsInsideEii,comdat
	.align 2
	.weak	_ZN10GuiElement8IsInsideEii
	.type	_ZN10GuiElement8IsInsideEii, @function
_ZN10GuiElement8IsInsideEii:
.LFB1623:
	.loc 3 285 0
	.cfi_startproc
.LVL86:
	mflr 0
	stwu 1,-24(1)
.LCFI18:
	.cfi_def_cfa_offset 24
	.cfi_register 65, 0
	stw 28,8(1)
	mr 28,5
	.cfi_offset 28, -16
	stw 0,28(1)
	stw 29,12(1)
	.loc 3 290 0
	li 29,0
	.cfi_offset 29, -12
	.cfi_offset 65, 4
	.loc 3 287 0
	lwz 9,0(3)
	.loc 3 285 0
	stw 30,16(1)
	mr 30,4
	.cfi_offset 30, -8
	.loc 3 287 0
	lwz 0,16(9)
	.loc 3 285 0
	stw 31,20(1)
	.loc 3 285 0
	mr 31,3
	.cfi_offset 31, -4
	.loc 3 287 0
	mtctr 0
	bctrl
.LVL87:
	.loc 3 290 0
	cmpw 7,3,30
	blt- 7,.L67
.L63:
	.loc 3 291 0 discriminator 6
	lwz 0,28(1)
	mr 3,29
	lwz 28,8(1)
.LVL88:
	mtlr 0
	lwz 29,12(1)
	lwz 30,16(1)
.LVL89:
	lwz 31,20(1)
.LVL90:
	addi 1,1,24
	.cfi_remember_state
.LCFI19:
	.cfi_def_cfa_offset 0
	.cfi_restore 31
	.cfi_restore 30
	.cfi_restore 29
	.cfi_restore 28
	blr
.LVL91:
.L67:
.LCFI20:
	.cfi_restore_state
	.loc 3 288 0 discriminator 1
	lwz 9,0(31)
	mr 3,31
	lwz 0,16(9)
	mtctr 0
	bctrl
	.loc 3 290 0 discriminator 1
	lwz 0,36(31)
	add 0,3,0
	cmpw 7,30,0
	bge+ 7,.L63
	.loc 3 289 0 discriminator 3
	lwz 9,0(31)
	mr 3,31
	lwz 0,20(9)
	mtctr 0
	bctrl
	.loc 3 290 0 discriminator 3
	cmpw 7,3,28
	bge+ 7,.L63
	.loc 3 290 0 is_stmt 0 discriminator 4
	lwz 9,0(31)
	mr 3,31
	lwz 0,20(9)
	mtctr 0
	bctrl
	lwz 0,40(31)
	add 0,3,0
	.loc 3 285 0 is_stmt 1 discriminator 4
	cmpw 7,28,0
	mfcr 29
	rlwinm 29,29,29,1
	b .L63
	.cfi_endproc
.LFE1623:
	.size	_ZN10GuiElement8IsInsideEii, .-_ZN10GuiElement8IsInsideEii
	.section	.text._ZN10GuiElement11SetPositionEii,"axG",@progbits,_ZN10GuiElement11SetPositionEii,comdat
	.align 2
	.weak	_ZN10GuiElement11SetPositionEii
	.type	_ZN10GuiElement11SetPositionEii, @function
_ZN10GuiElement11SetPositionEii:
.LFB1624:
	.loc 3 295 0
	.cfi_startproc
.LVL92:
	.loc 3 297 0
	stw 4,44(3)
	.loc 3 299 0
	.loc 3 298 0
	stw 5,48(3)
	.loc 3 299 0
	blr
	.cfi_endproc
.LFE1624:
	.size	_ZN10GuiElement11SetPositionEii, .-_ZN10GuiElement11SetPositionEii
	.section	.text._ZN10GuiElement11SetPositionEiii,"axG",@progbits,_ZN10GuiElement11SetPositionEiii,comdat
	.align 2
	.weak	_ZN10GuiElement11SetPositionEiii
	.type	_ZN10GuiElement11SetPositionEiii, @function
_ZN10GuiElement11SetPositionEiii:
.LFB1625:
	.loc 3 304 0
	.cfi_startproc
.LVL93:
	.loc 3 306 0
	stw 4,44(3)
	.loc 3 309 0
	.loc 3 307 0
	stw 5,48(3)
	.loc 3 308 0
	stw 6,52(3)
	.loc 3 309 0
	blr
	.cfi_endproc
.LFE1625:
	.size	_ZN10GuiElement11SetPositionEiii, .-_ZN10GuiElement11SetPositionEiii
	.section	.text._ZN10GuiElement11GetSelectedEv,"axG",@progbits,_ZN10GuiElement11GetSelectedEv,comdat
	.align 2
	.weak	_ZN10GuiElement11GetSelectedEv
	.type	_ZN10GuiElement11GetSelectedEv, @function
_ZN10GuiElement11GetSelectedEv:
.LFB1626:
	.loc 3 312 0
	.cfi_startproc
.LVL94:
	.loc 3 312 0
	li 3,-1
.LVL95:
	blr
	.cfi_endproc
.LFE1626:
	.size	_ZN10GuiElement11GetSelectedEv, .-_ZN10GuiElement11GetSelectedEv
	.section	.text._ZN10GuiElement12SetAlignmentEi,"axG",@progbits,_ZN10GuiElement12SetAlignmentEi,comdat
	.align 2
	.weak	_ZN10GuiElement12SetAlignmentEi
	.type	_ZN10GuiElement12SetAlignmentEi, @function
_ZN10GuiElement12SetAlignmentEi:
.LFB1627:
	.loc 3 316 0
	.cfi_startproc
.LVL96:
	.loc 3 316 0
	stw 4,68(3)
	blr
	.cfi_endproc
.LFE1627:
	.size	_ZN10GuiElement12SetAlignmentEi, .-_ZN10GuiElement12SetAlignmentEi
	.section	.text._ZNK10GuiElement12GetAlignmentEv,"axG",@progbits,_ZNK10GuiElement12GetAlignmentEv,comdat
	.align 2
	.weak	_ZNK10GuiElement12GetAlignmentEv
	.type	_ZNK10GuiElement12GetAlignmentEv, @function
_ZNK10GuiElement12GetAlignmentEv:
.LFB1628:
	.loc 3 318 0
	.cfi_startproc
.LVL97:
	.loc 3 318 0
	lwz 3,68(3)
.LVL98:
	blr
	.cfi_endproc
.LFE1628:
	.size	_ZNK10GuiElement12GetAlignmentEv, .-_ZNK10GuiElement12GetAlignmentEv
	.section	.text._ZN12ThreadedTaskD0Ev,"axG",@progbits,_ZN12ThreadedTaskD5Ev,comdat
	.align 2
	.weak	_ZN12ThreadedTaskD0Ev
	.type	_ZN12ThreadedTaskD0Ev, @function
_ZN12ThreadedTaskD0Ev:
.LFB775:
	.loc 1 29 0
	.cfi_startproc
.LVL99:
	mflr 0
	stwu 1,-8(1)
.LCFI21:
	.cfi_def_cfa_offset 8
	.cfi_register 65, 0
.LBB1410:
.LBB1411:
.LBB1412:
	lis 9,_ZTV12ThreadedTask+8@ha
.LBE1412:
.LBE1411:
.LBE1410:
	stw 0,12(1)
.LBB1415:
.LBB1414:
.LBB1413:
	.loc 1 29 0
	la 0,_ZTV12ThreadedTask+8@l(9)
	.cfi_offset 65, 4
	stw 0,0(3)
.LBE1413:
.LBE1414:
.LBE1415:
	bl _ZdlPv
.LVL100:
	lwz 0,12(1)
	addi 1,1,8
.LCFI22:
	.cfi_def_cfa_offset 0
	mtlr 0
	blr
	.cfi_endproc
.LFE775:
	.size	_ZN12ThreadedTaskD0Ev, .-_ZN12ThreadedTaskD0Ev
	.section	".text"
	.align 2
	.globl _ZThn320_N11RemountTaskD1Ev
	.type	_ZThn320_N11RemountTaskD1Ev, @function
_ZThn320_N11RemountTaskD1Ev:
.LFB2205:
	.cfi_startproc
	addi 3,3,-320
	b .LTHUNK0
	.cfi_endproc
.LFE2205:
	.size	_ZThn320_N11RemountTaskD1Ev, .-_ZThn320_N11RemountTaskD1Ev
	.align 2
	.globl _ZThn8_N11RemountTaskD1Ev
	.type	_ZThn8_N11RemountTaskD1Ev, @function
_ZThn8_N11RemountTaskD1Ev:
.LFB2206:
	.cfi_startproc
	addi 3,3,-8
	b .LTHUNK1
	.cfi_endproc
.LFE2206:
	.size	_ZThn8_N11RemountTaskD1Ev, .-_ZThn8_N11RemountTaskD1Ev
	.align 2
	.globl _ZN11RemountTaskD2Ev
	.type	_ZN11RemountTaskD2Ev, @function
_ZN11RemountTaskD2Ev:
.LFB1719:
	.loc 4 27 0
	.cfi_startproc
	.cfi_personality 0,__gxx_personality_v0
	.cfi_lsda 0,.LLSDA1719
.LVL101:
	mflr 0
	stwu 1,-16(1)
.LCFI23:
	.cfi_def_cfa_offset 16
	.cfi_register 65, 0
.LBB1423:
	lis 9,_ZTV11RemountTask+8@ha
	la 9,_ZTV11RemountTask+8@l(9)
.LBE1423:
	stw 31,12(1)
	stw 0,20(1)
.LBB1430:
	.loc 4 27 0
	addi 11,9,20
	addi 0,9,228
	.cfi_offset 65, 4
	.cfi_offset 31, -4
	stw 9,0(3)
	stw 11,8(3)
.LBE1430:
	mr 31,3
.LBB1431:
	stw 0,320(3)
	addi 3,3,8
.LVL102:
.LEHB4:
	bl _ZN4TaskD2Ev
.LEHE4:
.LVL103:
.LBB1424:
.LBB1425:
.LBB1426:
	.loc 1 29 0 discriminator 1
	lis 9,_ZTV12ThreadedTask+8@ha
	la 0,_ZTV12ThreadedTask+8@l(9)
	stw 0,0(31)
.LBE1426:
.LBE1425:
.LBE1424:
.LBE1431:
	.loc 4 29 0 discriminator 1
	lwz 0,20(1)
	lwz 31,12(1)
.LVL104:
	mtlr 0
	addi 1,1,16
	.cfi_remember_state
.LCFI24:
	.cfi_def_cfa_offset 0
	.cfi_restore 31
	blr
.LVL105:
.L81:
.LCFI25:
	.cfi_restore_state
.LBB1432:
.LBB1427:
.LBB1428:
.LBB1429:
	.loc 1 29 0
	lis 9,_ZTV12ThreadedTask+8@ha
	la 0,_ZTV12ThreadedTask+8@l(9)
	stw 0,0(31)
.LEHB5:
	bl _Unwind_Resume
.LEHE5:
.LBE1429:
.LBE1428:
.LBE1427:
.LBE1432:
	.cfi_endproc
.LFE1719:
	.section	.gcc_except_table
.LLSDA1719:
	.byte	0xff
	.byte	0xff
	.byte	0x1
	.uleb128 .LLSDACSE1719-.LLSDACSB1719
.LLSDACSB1719:
	.uleb128 .LEHB4-.LFB1719
	.uleb128 .LEHE4-.LEHB4
	.uleb128 .L81-.LFB1719
	.uleb128 0
	.uleb128 .LEHB5-.LFB1719
	.uleb128 .LEHE5-.LEHB5
	.uleb128 0
	.uleb128 0
.LLSDACSE1719:
	.section	".text"
	.size	_ZN11RemountTaskD2Ev, .-_ZN11RemountTaskD2Ev
	.section	.text._ZN10GuiElement10ResetStateEv,"axG",@progbits,_ZN10GuiElement10ResetStateEv,comdat
	.align 2
	.weak	_ZN10GuiElement10ResetStateEv
	.type	_ZN10GuiElement10ResetStateEv, @function
_ZN10GuiElement10ResetStateEv:
.LFB1608:
	.loc 3 183 0
	.cfi_startproc
.LVL106:
	mflr 0
	stwu 1,-8(1)
.LCFI26:
	.cfi_def_cfa_offset 8
	.cfi_register 65, 0
	stw 0,12(1)
	.loc 3 185 0
	lwz 0,72(3)
	.cfi_offset 65, 4
	cmpwi 7,0,4
	beq- 7,.L82
.LVL107:
.LBB1435:
.LBB1436:
	.loc 3 186 0
	lwz 9,0(3)
	li 4,0
	li 5,-1
	lwz 0,80(9)
	mtctr 0
	bctrl
.LVL108:
.L82:
.LBE1436:
.LBE1435:
	.loc 3 187 0
	lwz 0,12(1)
	addi 1,1,8
.LCFI27:
	.cfi_def_cfa_offset 0
	mtlr 0
	blr
	.cfi_endproc
.LFE1608:
	.size	_ZN10GuiElement10ResetStateEv, .-_ZN10GuiElement10ResetStateEv
	.section	".text"
	.align 2
	.globl _ZThn320_N11RemountTaskD0Ev
	.type	_ZThn320_N11RemountTaskD0Ev, @function
_ZThn320_N11RemountTaskD0Ev:
.LFB2208:
	.cfi_startproc
	addi 3,3,-320
	b .LTHUNK2
	.cfi_endproc
.LFE2208:
	.size	_ZThn320_N11RemountTaskD0Ev, .-_ZThn320_N11RemountTaskD0Ev
	.align 2
	.globl _ZThn8_N11RemountTaskD0Ev
	.type	_ZThn8_N11RemountTaskD0Ev, @function
_ZThn8_N11RemountTaskD0Ev:
.LFB2209:
	.cfi_startproc
	addi 3,3,-8
	b .LTHUNK3
	.cfi_endproc
.LFE2209:
	.size	_ZThn8_N11RemountTaskD0Ev, .-_ZThn8_N11RemountTaskD0Ev
	.align 2
	.globl _ZN11RemountTaskD0Ev
	.type	_ZN11RemountTaskD0Ev, @function
_ZN11RemountTaskD0Ev:
.LFB1721:
	.loc 4 27 0
	.cfi_startproc
	.cfi_personality 0,__gxx_personality_v0
	.cfi_lsda 0,.LLSDA1721
.LVL109:
	mflr 0
	stwu 1,-16(1)
.LCFI28:
	.cfi_def_cfa_offset 16
	.cfi_register 65, 0
.LBB1446:
.LBB1447:
.LBB1448:
	lis 9,_ZTV11RemountTask+8@ha
	la 9,_ZTV11RemountTask+8@l(9)
.LBE1448:
.LBE1447:
.LBE1446:
	stw 31,12(1)
	stw 0,20(1)
.LBB1466:
.LBB1462:
.LBB1458:
	.loc 4 27 0
	addi 11,9,20
	addi 0,9,228
	.cfi_offset 65, 4
	.cfi_offset 31, -4
	stw 9,0(3)
	stw 11,8(3)
.LBE1458:
.LBE1462:
.LBE1466:
	mr 31,3
.LVL110:
.LBB1467:
.LBB1463:
.LBB1459:
	stw 0,320(3)
	addi 3,3,8
.LVL111:
.LEHB6:
	bl _ZN4TaskD2Ev
.LEHE6:
.LVL112:
.LBB1449:
.LBB1450:
.LBB1451:
	.loc 1 29 0
	lis 9,_ZTV12ThreadedTask+8@ha
.LBE1451:
.LBE1450:
.LBE1449:
.LBE1459:
.LBE1463:
.LBE1467:
	.loc 4 29 0
	mr 3,31
.LBB1468:
.LBB1464:
.LBB1460:
.LBB1454:
.LBB1453:
.LBB1452:
	.loc 1 29 0
	la 0,_ZTV12ThreadedTask+8@l(9)
	stw 0,0(31)
.LBE1452:
.LBE1453:
.LBE1454:
.LBE1460:
.LBE1464:
.LBE1468:
	.loc 4 29 0
	bl _ZdlPv
	lwz 0,20(1)
	lwz 31,12(1)
.LVL113:
	mtlr 0
	addi 1,1,16
	.cfi_remember_state
.LCFI29:
	.cfi_def_cfa_offset 0
	.cfi_restore 31
	blr
.LVL114:
.L90:
.LCFI30:
	.cfi_restore_state
.LBB1469:
.LBB1465:
.LBB1461:
.LBB1455:
.LBB1456:
.LBB1457:
	.loc 1 29 0
	lis 9,_ZTV12ThreadedTask+8@ha
	la 0,_ZTV12ThreadedTask+8@l(9)
	stw 0,0(31)
.LEHB7:
	bl _Unwind_Resume
.LEHE7:
.LBE1457:
.LBE1456:
.LBE1455:
.LBE1461:
.LBE1465:
.LBE1469:
	.cfi_endproc
.LFE1721:
	.section	.gcc_except_table
.LLSDA1721:
	.byte	0xff
	.byte	0xff
	.byte	0x1
	.uleb128 .LLSDACSE1721-.LLSDACSB1721
.LLSDACSB1721:
	.uleb128 .LEHB6-.LFB1721
	.uleb128 .LEHE6-.LEHB6
	.uleb128 .L90-.LFB1721
	.uleb128 0
	.uleb128 .LEHB7-.LFB1721
	.uleb128 .LEHE7-.LEHB7
	.uleb128 0
	.uleb128 0
.LLSDACSE1721:
	.section	".text"
	.size	_ZN11RemountTaskD0Ev, .-_ZN11RemountTaskD0Ev
	.align 2
	.globl _ZN11RemountTask7ExecuteEv
	.type	_ZN11RemountTask7ExecuteEv, @function
_ZN11RemountTask7ExecuteEv:
.LFB1722:
	.loc 4 32 0
	.cfi_startproc
	.cfi_personality 0,__gxx_personality_v0
	.cfi_lsda 0,.LLSDA1722
.LVL115:
	mflr 0
	stwu 1,-32(1)
.LCFI31:
	.cfi_def_cfa_offset 32
	.cfi_register 65, 0
	stw 27,12(1)
.LBB1504:
.LBB1505:
.LBB1506:
	.loc 2 2203 0
	addi 27,3,360
	.cfi_offset 27, -20
.LBE1506:
.LBE1505:
.LBE1504:
	.loc 4 32 0
	stw 0,36(1)
	stw 28,16(1)
	mr 28,3
	.cfi_offset 28, -16
	.cfi_offset 65, 4
.LBB1554:
.LBB1526:
.LBB1521:
.LBB1507:
.LBB1508:
	.loc 2 338 0
	lwz 9,360(3)
	mr 3,27
.LVL116:
.LBE1508:
.LBE1507:
.LBE1521:
.LBE1526:
.LBE1554:
	.loc 4 32 0
	stw 29,20(1)
.LBB1555:
.LBB1527:
	.loc 4 61 0
	mr 29,28
	.cfi_offset 29, -12
.LBB1522:
.LBB1511:
.LBB1509:
	.loc 2 338 0
	lwz 0,8(9)
.LBE1509:
.LBE1511:
.LBE1522:
.LBE1527:
.LBE1555:
	.loc 4 32 0
	stw 30,24(1)
.LBB1556:
	.loc 4 33 0
	addi 30,28,8
	.cfi_offset 30, -8
.LVL117:
.LBE1556:
	.loc 4 32 0
	stw 31,28(1)
.LBB1557:
.LBB1528:
.LBB1523:
.LBB1512:
.LBB1510:
	.loc 2 338 0
	mtctr 0
.LEHB8:
	.cfi_offset 31, -4
	bctrl
.LEHE8:
.LVL118:
.LBE1510:
.LBE1512:
.LBE1523:
	.loc 4 61 0
	lwzu 31,364(29)
.LVL119:
.LBB1524:
	.loc 2 2207 0
	cmpw 7,31,29
	beq- 7,.L92
.LVL120:
.L108:
	.loc 2 2212 0
	lwz 3,8(31)
	mr 4,30
.LBB1513:
.LBB1514:
	.loc 5 234 0
	lwz 31,0(31)
.LVL121:
.LBE1514:
.LBE1513:
	.loc 2 2212 0
	lwz 9,0(3)
	lwz 0,12(9)
	mtctr 0
.LEHB9:
	bctrl
.LEHE9:
.LVL122:
	.loc 2 2207 0
	cmpw 7,29,31
	bne+ 7,.L108
.LVL123:
.L92:
.LBB1515:
.LBB1516:
.LBB1517:
	.loc 2 343 0
	lwz 9,360(28)
	mr 3,27
	lwz 0,12(9)
	mtctr 0
.LEHB10:
	bctrl
.LBE1517:
.LBE1516:
.LBE1515:
.LBE1524:
.LBE1528:
.LBB1529:
	.loc 4 38 0
	lwz 0,420(28)
	cmpwi 7,0,11
	beq- 7,.L111
	.loc 4 53 0
	bl _ZN13DeviceHandler8InstanceEv
	lwz 4,420(28)
	bl _ZN13DeviceHandler7UnMountEi
	.loc 4 54 0
	bl _ZN13DeviceHandler8InstanceEv
	lwz 4,420(28)
	bl _ZN13DeviceHandler5MountEi
.L98:
.LVL124:
.LBE1529:
.LBB1532:
.LBB1533:
.LBB1534:
.LBB1535:
	.loc 2 338 0
	lwz 9,372(28)
.LBE1535:
.LBE1534:
	.loc 2 2203 0
	addi 27,28,372
.LVL125:
.LBB1538:
.LBB1536:
	.loc 2 338 0
	mr 3,27
.LBE1536:
.LBE1538:
.LBE1533:
	.loc 4 61 0
	mr 29,28
.LBB1548:
.LBB1539:
.LBB1537:
	.loc 2 338 0
	lwz 0,8(9)
	mtctr 0
	bctrl
.LEHE10:
.LVL126:
.LBE1537:
.LBE1539:
.LBE1548:
	.loc 4 61 0
	lwzu 31,376(29)
.LVL127:
.LBB1549:
	.loc 2 2207 0
	cmpw 7,31,29
	beq- 7,.L99
.LVL128:
.L110:
	.loc 2 2212 0
	lwz 3,8(31)
	mr 4,30
.LBB1540:
.LBB1541:
	.loc 5 234 0
	lwz 31,0(31)
.LVL129:
.LBE1541:
.LBE1540:
	.loc 2 2212 0
	lwz 9,0(3)
	lwz 0,12(9)
	mtctr 0
.LEHB11:
	bctrl
.LEHE11:
.LVL130:
	.loc 2 2207 0
	cmpw 7,29,31
	bne+ 7,.L110
.LVL131:
.L99:
.LBB1542:
.LBB1543:
.LBB1544:
	.loc 2 343 0
	lwz 9,372(28)
	mr 3,27
	lwz 0,12(9)
	mtctr 0
.LEHB12:
	bctrl
.LBE1544:
.LBE1543:
.LBE1542:
.LBE1549:
.LBE1532:
.LBE1557:
	.loc 4 61 0
	lwz 0,36(1)
	lwz 27,12(1)
	mtlr 0
	lwz 28,16(1)
.LVL132:
	lwz 29,20(1)
	lwz 30,24(1)
.LVL133:
	lwz 31,28(1)
.LVL134:
	addi 1,1,32
	.cfi_remember_state
.LCFI32:
	.cfi_def_cfa_offset 0
	.cfi_restore 31
	.cfi_restore 30
	.cfi_restore 29
	.cfi_restore 28
	.cfi_restore 27
	blr
.LVL135:
.L111:
.LCFI33:
	.cfi_restore_state
.LBB1558:
.LBB1551:
.LBB1530:
	.loc 4 40 0
	bl _ZN13DeviceHandler8InstanceEv
	bl _ZN13DeviceHandler10UnMountAllEv
.LVL136:
.LBB1531:
	.loc 4 48 0
	bl _ZN13DeviceHandler8InstanceEv
	li 4,0
	bl _ZN13DeviceHandler5MountEi
.LVL137:
	bl _ZN13DeviceHandler8InstanceEv
	li 4,1
	bl _ZN13DeviceHandler5MountEi
.LVL138:
	bl _ZN13DeviceHandler8InstanceEv
	li 4,2
	bl _ZN13DeviceHandler5MountEi
.LVL139:
	bl _ZN13DeviceHandler8InstanceEv
	li 4,3
	bl _ZN13DeviceHandler5MountEi
.LVL140:
	bl _ZN13DeviceHandler8InstanceEv
	li 4,4
	bl _ZN13DeviceHandler5MountEi
.LVL141:
	bl _ZN13DeviceHandler8InstanceEv
	li 4,5
	bl _ZN13DeviceHandler5MountEi
.LVL142:
	bl _ZN13DeviceHandler8InstanceEv
	li 4,6
	bl _ZN13DeviceHandler5MountEi
.LVL143:
	bl _ZN13DeviceHandler8InstanceEv
	li 4,7
	bl _ZN13DeviceHandler5MountEi
.LVL144:
	bl _ZN13DeviceHandler8InstanceEv
	li 4,8
	bl _ZN13DeviceHandler5MountEi
.LVL145:
	bl _ZN13DeviceHandler8InstanceEv
	li 4,9
	bl _ZN13DeviceHandler5MountEi
.LVL146:
	bl _ZN13DeviceHandler8InstanceEv
	li 4,10
	bl _ZN13DeviceHandler5MountEi
.LEHE12:
.LVL147:
	b .L98
.LVL148:
.L106:
.LBE1531:
.LBE1530:
.LBE1551:
.LBB1552:
.LBB1525:
.LBB1518:
.LBB1519:
.LBB1520:
	.loc 2 343 0
	lwz 9,360(28)
	mr 31,3
.LVL149:
	mr 3,27
	lwz 0,12(9)
	mtctr 0
	bctrl
	mr 3,31
.LEHB13:
	bl _Unwind_Resume
.LEHE13:
.LVL150:
.L107:
.LBE1520:
.LBE1519:
.LBE1518:
.LBE1525:
.LBE1552:
.LBB1553:
.LBB1550:
.LBB1545:
.LBB1546:
.LBB1547:
	lwz 9,372(28)
	mr 31,3
.LVL151:
	mr 3,27
	lwz 0,12(9)
	mtctr 0
	bctrl
	mr 3,31
.LEHB14:
	bl _Unwind_Resume
.LEHE14:
.LBE1547:
.LBE1546:
.LBE1545:
.LBE1550:
.LBE1553:
.LBE1558:
	.cfi_endproc
.LFE1722:
	.section	.gcc_except_table
.LLSDA1722:
	.byte	0xff
	.byte	0xff
	.byte	0x1
	.uleb128 .LLSDACSE1722-.LLSDACSB1722
.LLSDACSB1722:
	.uleb128 .LEHB8-.LFB1722
	.uleb128 .LEHE8-.LEHB8
	.uleb128 0
	.uleb128 0
	.uleb128 .LEHB9-.LFB1722
	.uleb128 .LEHE9-.LEHB9
	.uleb128 .L106-.LFB1722
	.uleb128 0
	.uleb128 .LEHB10-.LFB1722
	.uleb128 .LEHE10-.LEHB10
	.uleb128 0
	.uleb128 0
	.uleb128 .LEHB11-.LFB1722
	.uleb128 .LEHE11-.LEHB11
	.uleb128 .L107-.LFB1722
	.uleb128 0
	.uleb128 .LEHB12-.LFB1722
	.uleb128 .LEHE12-.LEHB12
	.uleb128 0
	.uleb128 0
	.uleb128 .LEHB13-.LFB1722
	.uleb128 .LEHE13-.LEHB13
	.uleb128 0
	.uleb128 0
	.uleb128 .LEHB14-.LFB1722
	.uleb128 .LEHE14-.LEHB14
	.uleb128 0
	.uleb128 0
.LLSDACSE1722:
	.section	".text"
	.size	_ZN11RemountTask7ExecuteEv, .-_ZN11RemountTask7ExecuteEv
	.align 2
	.globl _ZN11RemountTaskC2EPKci
	.type	_ZN11RemountTaskC2EPKci, @function
_ZN11RemountTaskC2EPKci:
.LFB1716:
	.loc 4 22 0
	.cfi_startproc
	.cfi_personality 0,__gxx_personality_v0
	.cfi_lsda 0,.LLSDA1716
.LVL152:
	stwu 1,-40(1)
.LCFI34:
	.cfi_def_cfa_offset 40
	mflr 0
	stw 30,32(1)
.LBB1594:
.LBB1595:
.LBB1596:
	.loc 1 28 0
	lis 30,_ZTV12ThreadedTask+8@ha
	.cfi_offset 30, -8
	.cfi_register 65, 0
	la 30,_ZTV12ThreadedTask+8@l(30)
.LBE1596:
.LBE1595:
.LBE1594:
	.loc 4 22 0
	stw 29,28(1)
	stw 31,36(1)
	mr 29,5
	.cfi_offset 31, -4
	.cfi_offset 29, -12
	stw 0,44(1)
	.loc 4 22 0
	mr 31,3
.LVL153:
.LBB1623:
.LBB1598:
.LBB1597:
	.loc 1 28 0
	stw 30,0(3)
.LBE1597:
.LBE1598:
	.loc 4 23 0
	addi 5,1,9
.LVL154:
	addi 3,1,12
.LVL155:
.LEHB15:
	.cfi_offset 65, 4
	bl _ZNSsC1EPKcRKSaIcE
.LEHE15:
.LVL156:
	.loc 4 23 0 is_stmt 0 discriminator 1
	addi 3,31,8
.LVL157:
	addi 4,1,12
.LEHB16:
	bl _ZN4TaskC2ERKSs
.LEHE16:
.LVL158:
.LBB1599:
.LBB1600:
.LBB1601:
.LBB1602:
.LBB1603:
.LBB1604:
	.file 6 "d:\\devkitpro\\devkitppc\\bin\\../lib/gcc/powerpc-eabi/4.6.3/../../../../powerpc-eabi/include/c++/4.6.3/bits/basic_string.h"
	.loc 6 288 0 is_stmt 1
	lwz 9,12(1)
.LBE1604:
.LBE1603:
.LBE1602:
.LBB1605:
.LBB1606:
	.loc 6 235 0
	lis 11,_ZNSs4_Rep20_S_empty_rep_storageE@ha
	la 0,_ZNSs4_Rep20_S_empty_rep_storageE@l(11)
.LBE1606:
.LBE1605:
	.loc 6 534 0
	addi 3,9,-12
.LVL159:
.LBB1615:
.LBB1613:
	.loc 6 235 0
	cmpw 7,3,0
	bne- 7,.L128
.LVL160:
.L120:
.LBE1613:
.LBE1615:
.LBE1601:
.LBE1600:
.LBE1599:
	.loc 4 23 0 discriminator 2
	lis 9,_ZTV11RemountTask+8@ha
	stw 29,420(31)
	la 9,_ZTV11RemountTask+8@l(9)
.LBE1623:
	.loc 4 25 0 discriminator 2
	lwz 29,28(1)
.LVL161:
.LBB1624:
	.loc 4 23 0 discriminator 2
	addi 0,9,228
	addi 11,9,20
	stw 0,320(31)
.LBE1624:
	.loc 4 25 0 discriminator 2
	lwz 0,44(1)
.LBB1625:
	.loc 4 23 0 discriminator 2
	stw 9,0(31)
.LBE1625:
	.loc 4 25 0 discriminator 2
	mtlr 0
.LBB1626:
	.loc 4 23 0 discriminator 2
	stw 11,8(31)
.LBE1626:
	.loc 4 25 0 discriminator 2
	lwz 30,32(1)
	lwz 31,36(1)
.LVL162:
	addi 1,1,40
	.cfi_remember_state
.LCFI35:
	.cfi_def_cfa_offset 0
	.cfi_restore 31
	.cfi_restore 30
	.cfi_restore 29
	blr
.LVL163:
.L128:
.LCFI36:
	.cfi_restore_state
.LBB1627:
.LBB1619:
.LBB1618:
.LBB1617:
.LBB1616:
.LBB1614:
.LBB1607:
.LBB1608:
.LBB1609:
	.file 7 "d:\\devkitpro\\devkitppc\\bin\\../lib/gcc/powerpc-eabi/4.6.3/../../../../powerpc-eabi/include/c++/4.6.3/ext/atomicity.h"
	.loc 7 66 0
	lwz 11,-4(9)
.LVL164:
.LBE1609:
.LBE1608:
.LBE1607:
	.loc 6 240 0
	cmpwi 7,11,0
.LBB1612:
.LBB1611:
.LBB1610:
	.loc 7 67 0
	addi 11,11,-1
	stw 11,-4(9)
.LBE1610:
.LBE1611:
.LBE1612:
	.loc 6 240 0
	bgt+ 7,.L120
	.loc 6 244 0
	addi 4,1,8
	bl _ZNSs4_Rep10_M_destroyERKSaIcE
.LVL165:
	b .L120
.LVL166:
.L127:
	mr 29,3
.LVL167:
.LBE1614:
.LBE1616:
.LBE1617:
.LBE1618:
.LBE1619:
	.loc 4 23 0
	addi 3,1,12
	bl _ZNSsD1Ev
	mr 3,29
.L124:
.LVL168:
.LBB1620:
.LBB1621:
.LBB1622:
	.loc 1 29 0
	stw 30,0(31)
.LEHB17:
	bl _Unwind_Resume
.LEHE17:
.LVL169:
.L126:
	b .L124
.LBE1622:
.LBE1621:
.LBE1620:
.LBE1627:
	.cfi_endproc
.LFE1716:
	.section	.gcc_except_table
.LLSDA1716:
	.byte	0xff
	.byte	0xff
	.byte	0x1
	.uleb128 .LLSDACSE1716-.LLSDACSB1716
.LLSDACSB1716:
	.uleb128 .LEHB15-.LFB1716
	.uleb128 .LEHE15-.LEHB15
	.uleb128 .L126-.LFB1716
	.uleb128 0
	.uleb128 .LEHB16-.LFB1716
	.uleb128 .LEHE16-.LEHB16
	.uleb128 .L127-.LFB1716
	.uleb128 0
	.uleb128 .LEHB17-.LFB1716
	.uleb128 .LEHE17-.LEHB17
	.uleb128 0
	.uleb128 0
.LLSDACSE1716:
	.section	".text"
	.size	_ZN11RemountTaskC2EPKci, .-_ZN11RemountTaskC2EPKci
	.weak	_ZTS11RemountTask
	.section	.rodata._ZTS11RemountTask,"aG",@progbits,_ZTS11RemountTask,comdat
	.align 2
	.type	_ZTS11RemountTask, @object
	.size	_ZTS11RemountTask, 14
_ZTS11RemountTask:
	.string	"11RemountTask"
	.weak	_ZTI11RemountTask
	.section	.rodata._ZTI11RemountTask,"aG",@progbits,_ZTI11RemountTask,comdat
	.align 2
	.type	_ZTI11RemountTask, @object
	.size	_ZTI11RemountTask, 32
_ZTI11RemountTask:
	.long	_ZTVN10__cxxabiv121__vmi_class_type_infoE+8
	.long	_ZTS11RemountTask
	.long	0
	.long	2
	.long	_ZTI12ThreadedTask
	.long	2
	.long	_ZTI4Task
	.long	2050
	.weak	_ZTV11RemountTask
	.section	.rodata._ZTV11RemountTask,"aG",@progbits,_ZTV11RemountTask,comdat
	.align 3
	.type	_ZTV11RemountTask, @object
	.size	_ZTV11RemountTask, 252
_ZTV11RemountTask:
	.long	0
	.long	_ZTI11RemountTask
	.long	_ZN11RemountTaskD1Ev
	.long	_ZN11RemountTaskD0Ev
	.long	_ZN11RemountTask7ExecuteEv
	.long	-8
	.long	_ZTI11RemountTask
	.long	_ZThn8_N11RemountTaskD1Ev
	.long	_ZThn8_N11RemountTaskD0Ev
	.long	_ZN10GuiElement9SetParentEPS_
	.long	_ZN10GuiElement9GetParentEv
	.long	_ZN10GuiElement7GetLeftEv
	.long	_ZN10GuiElement6GetTopEv
	.long	_ZN10GuiElement12GetZPositionEv
	.long	_ZN10GuiElement10GetLeftPosEv
	.long	_ZN10GuiElement9GetTopPosEv
	.long	_ZN10GuiElement8GetWidthEv
	.long	_ZN10GuiElement9GetHeightEv
	.long	_ZN10GuiElement7SetSizeEii
	.long	_ZN10GuiElement10SetVisibleEb
	.long	_ZN10GuiElement9IsVisibleEv
	.long	_ZN10GuiElement12IsSelectableEv
	.long	_ZN10GuiElement11IsClickableEv
	.long	_ZN10GuiElement10IsHoldableEv
	.long	_ZN10GuiElement13SetSelectableEb
	.long	_ZN10GuiElement12SetClickableEb
	.long	_ZN10GuiElement11SetHoldableEb
	.long	_ZN10GuiElement8SetStateEii
	.long	_ZN10GuiElement8GetStateEv
	.long	_ZN10GuiElement12GetStateChanEv
	.long	_ZN10GuiElement10ResetStateEv
	.long	_ZN10GuiElement8SetAlphaEi
	.long	_ZN10GuiElement8GetAlphaEv
	.long	_ZN10GuiElement8SetScaleEf
	.long	_ZN10GuiElement9SetScaleXEf
	.long	_ZN10GuiElement9SetScaleYEf
	.long	_ZN10GuiElement8GetScaleEv
	.long	_ZN10GuiElement9GetScaleXEv
	.long	_ZN10GuiElement9GetScaleYEv
	.long	_ZN10GuiElement6RumbleEv
	.long	_ZN10GuiElement9SetRumbleEb
	.long	_ZN10GuiElement9SetEffectEiii
	.long	_ZN10GuiElement15SetEffectOnOverEiii
	.long	_ZN10GuiElement13SetEffectGrowEv
	.long	_ZN10GuiElement12ResetEffectsEv
	.long	_ZNK10GuiElement9GetEffectEv
	.long	_ZNK10GuiElement10IsAnimatedEv
	.long	_ZN9GuiButton9SetBoundsE4RectIiE
	.long	_ZN10GuiElement8IsInsideEii
	.long	_ZN10GuiElement11SetPositionEii
	.long	_ZN10GuiElement11SetPositionEiii
	.long	_ZN10GuiElement11GetSelectedEv
	.long	_ZN10GuiElement12SetAlignmentEi
	.long	_ZNK10GuiElement12GetAlignmentEv
	.long	_ZN9GuiButton6UpdateEP10GuiTrigger
	.long	_ZN9GuiButton4DrawEv
	.long	_ZN10GuiElement13UpdateEffectsEv
	.long	-320
	.long	_ZTI11RemountTask
	.long	_ZThn320_N11RemountTaskD1Ev
	.long	_ZThn320_N11RemountTaskD0Ev
	.long	_ZN7sigslot15single_threaded4lockEv
	.long	_ZN7sigslot15single_threaded6unlockEv
	.weak	_ZTV12ThreadedTask
	.section	.rodata._ZTV12ThreadedTask,"aG",@progbits,_ZTV12ThreadedTask,comdat
	.align 3
	.type	_ZTV12ThreadedTask, @object
	.size	_ZTV12ThreadedTask, 20
_ZTV12ThreadedTask:
	.long	0
	.long	_ZTI12ThreadedTask
	.long	_ZN12ThreadedTaskD1Ev
	.long	_ZN12ThreadedTaskD0Ev
	.long	__cxa_pure_virtual
	.weak	_ZTI12ThreadedTask
	.section	.sdata._ZTI12ThreadedTask,"awG",@progbits,_ZTI12ThreadedTask,comdat
	.align 2
	.type	_ZTI12ThreadedTask, @object
	.size	_ZTI12ThreadedTask, 8
_ZTI12ThreadedTask:
	.long	_ZTVN10__cxxabiv117__class_type_infoE+8
	.long	_ZTS12ThreadedTask
	.weak	_ZTS12ThreadedTask
	.section	.rodata._ZTS12ThreadedTask,"aG",@progbits,_ZTS12ThreadedTask,comdat
	.align 2
	.type	_ZTS12ThreadedTask, @object
	.size	_ZTS12ThreadedTask, 15
_ZTS12ThreadedTask:
	.string	"12ThreadedTask"
	.weak	_ZN12ThreadedTaskD1Ev
	.set	_ZN12ThreadedTaskD1Ev,_ZN12ThreadedTaskD2Ev
	.globl _ZN11RemountTaskD1Ev
	.set	_ZN11RemountTaskD1Ev,_ZN11RemountTaskD2Ev
	.set	.LTHUNK0,_ZN11RemountTaskD1Ev
	.set	.LTHUNK1,_ZN11RemountTaskD1Ev
	.set	.LTHUNK2,_ZN11RemountTaskD0Ev
	.set	.LTHUNK3,_ZN11RemountTaskD0Ev
	.globl _ZN11RemountTaskC1EPKci
	.set	_ZN11RemountTaskC1EPKci,_ZN11RemountTaskC2EPKci
	.section	.rodata.cst4,"aM",@progbits,4
	.align 2
.LC1:
	.4byte	1501560836
.LC2:
	.4byte	1132396544
.LC3:
	.4byte	1056964608
	.section	".text"
.Letext0:
	.file 8 "d:\\devkitpro\\devkitppc\\bin\\../lib/gcc/powerpc-eabi/4.6.3/../../../../powerpc-eabi/include/stdint.h"
	.file 9 "d:/devkitPro/libogc/include/gctypes.h"
	.file 10 "d:/devkitPro/libogc/include/ogc/lwp.h"
	.file 11 "d:/devkitPro/libogc/include/ogc/gx.h"
	.file 12 "d:\\devkitpro\\devkitppc\\bin\\../lib/gcc/powerpc-eabi/4.6.3/../../../../powerpc-eabi/include/machine/_types.h"
	.file 13 "d:\\devkitpro\\devkitppc\\bin\\../lib/gcc/powerpc-eabi/4.6.3/../../../../powerpc-eabi/include/sys/lock.h"
	.file 14 "d:\\devkitpro\\devkitppc\\bin\\../lib/gcc/powerpc-eabi/4.6.3/include/stddef.h"
	.file 15 "d:\\devkitpro\\devkitppc\\bin\\../lib/gcc/powerpc-eabi/4.6.3/../../../../powerpc-eabi/include/sys/_types.h"
	.file 16 "d:\\devkitpro\\devkitppc\\bin\\../lib/gcc/powerpc-eabi/4.6.3/../../../../powerpc-eabi/include/sys/reent.h"
	.file 17 "d:\\devkitpro\\devkitppc\\bin\\../lib/gcc/powerpc-eabi/4.6.3/../../../../powerpc-eabi/include/time.h"
	.file 18 "d:\\devkitpro\\devkitppc\\bin\\../lib/gcc/powerpc-eabi/4.6.3/../../../../powerpc-eabi/include/c++/4.6.3/powerpc-eabi/bits/c++config.h"
	.file 19 "d:\\devkitpro\\devkitppc\\bin\\../lib/gcc/powerpc-eabi/4.6.3/../../../../powerpc-eabi/include/c++/4.6.3/cwchar"
	.file 20 "d:\\devkitpro\\devkitppc\\bin\\../lib/gcc/powerpc-eabi/4.6.3/../../../../powerpc-eabi/include/c++/4.6.3/clocale"
	.file 21 "d:\\devkitpro\\devkitppc\\bin\\../lib/gcc/powerpc-eabi/4.6.3/../../../../powerpc-eabi/include/c++/4.6.3/bits/stl_tree.h"
	.file 22 "d:\\devkitpro\\devkitppc\\bin\\../lib/gcc/powerpc-eabi/4.6.3/../../../../powerpc-eabi/include/c++/4.6.3/bits/move.h"
	.file 23 "d:\\devkitpro\\devkitppc\\bin\\../lib/gcc/powerpc-eabi/4.6.3/../../../../powerpc-eabi/include/c++/4.6.3/bits/cpp_type_traits.h"
	.file 24 "d:\\devkitpro\\devkitppc\\bin\\../lib/gcc/powerpc-eabi/4.6.3/../../../../powerpc-eabi/include/c++/4.6.3/ext/new_allocator.h"
	.file 25 "d:\\devkitpro\\devkitppc\\bin\\../lib/gcc/powerpc-eabi/4.6.3/../../../../powerpc-eabi/include/c++/4.6.3/debug/debug.h"
	.file 26 "d:\\devkitpro\\devkitppc\\bin\\../lib/gcc/powerpc-eabi/4.6.3/../../../../powerpc-eabi/include/c++/4.6.3/bits/allocator.h"
	.file 27 "d:\\devkitpro\\devkitppc\\bin\\../lib/gcc/powerpc-eabi/4.6.3/../../../../powerpc-eabi/include/c++/4.6.3/ext/numeric_traits.h"
	.file 28 "<built-in>"
	.file 29 "d:\\devkitpro\\devkitppc\\bin\\../lib/gcc/powerpc-eabi/4.6.3/../../../../powerpc-eabi/include/wchar.h"
	.file 30 "d:\\devkitpro\\devkitppc\\bin\\../lib/gcc/powerpc-eabi/4.6.3/../../../../powerpc-eabi/include/c++/4.6.3/bits/char_traits.h"
	.file 31 "d:\\devkitpro\\devkitppc\\bin\\../lib/gcc/powerpc-eabi/4.6.3/../../../../powerpc-eabi/include/locale.h"
	.file 32 "d:\\devkitpro\\devkitppc\\bin\\../lib/gcc/powerpc-eabi/4.6.3/../../../../powerpc-eabi/include/c++/4.6.3/powerpc-eabi/bits/atomic_word.h"
	.file 33 "d:\\devkitpro\\devkitppc\\bin\\../lib/gcc/powerpc-eabi/4.6.3/../../../../powerpc-eabi/include/c++/4.6.3/bits/basic_string.tcc"
	.file 34 "d:\\devkitpro\\devkitppc\\bin\\../lib/gcc/powerpc-eabi/4.6.3/../../../../powerpc-eabi/include/c++/4.6.3/bits/stl_iterator_base_types.h"
	.file 35 "d:\\devkitpro\\devkitppc\\bin\\../lib/gcc/powerpc-eabi/4.6.3/../../../../powerpc-eabi/include/c++/4.6.3/bits/stl_iterator.h"
	.file 36 "d:/Projects/SaveGameManager/savegame-manager-gx/trunk/source/DeviceControls/../Controls/../GUI/../Tools/Rect.h"
	.file 37 "d:\\devkitpro\\devkitppc\\bin\\../lib/gcc/powerpc-eabi/4.6.3/../../../../powerpc-eabi/include/c++/4.6.3/bits/list.tcc"
	.file 38 "d:\\devkitpro\\devkitppc\\bin\\../lib/gcc/powerpc-eabi/4.6.3/../../../../powerpc-eabi/include/c++/4.6.3/bits/stl_function.h"
	.file 39 "d:\\devkitpro\\devkitppc\\bin\\../lib/gcc/powerpc-eabi/4.6.3/../../../../powerpc-eabi/include/c++/4.6.3/bits/stl_set.h"
	.file 40 "d:/Projects/SaveGameManager/savegame-manager-gx/trunk/source/DeviceControls/DeviceHandler.hpp"
	.file 41 "d:\\devkitpro\\devkitppc\\bin\\../lib/gcc/powerpc-eabi/4.6.3/../../../../powerpc-eabi/include/c++/4.6.3/bits/stl_pair.h"
	.file 42 "d:/Projects/SaveGameManager/savegame-manager-gx/trunk/source/DeviceControls/RemountTask.h"
	.file 43 "d:/Projects/SaveGameManager/savegame-manager-gx/trunk/source/DeviceControls/../Controls/Thread.h"
	.file 44 "d:\\devkitpro\\devkitppc\\bin\\../lib/gcc/powerpc-eabi/4.6.3/../../../../powerpc-eabi/include/c++/4.6.3/new"