   1              		.file	"Resources.cpp"
   2              		.section	".text"
   3              	.Ltext0:
   4              		.align 2
   5              		.type	_ZNSt8_Rb_treeIPKhSt4pairIKS1_P12GuiImageDataESt10_Select1stIS6_ESt4lessIS1_ESaIS6_EE16_M_in
   6              	_ZNSt8_Rb_treeIPKhSt4pairIKS1_P12GuiImageDataESt10_Select1stIS6_ESt4lessIS1_ESaIS6_EE16_M_insert_un
   7              	.LFB2537:
   8              		.file 1 "d:\\devkitpro\\devkitppc\\bin\\../lib/gcc/powerpc-eabi/4.6.3/../../../../powerpc-eabi/inc
   9              		.loc 1 1264 0
  10              		.cfi_startproc
  11              	.LVL0:
  12 0000 7C0802A6 		mflr 0
  13 0004 9421FFE0 		stwu 1,-32(1)
  14              	.LCFI0:
  15              		.cfi_def_cfa_offset 32
  16              		.cfi_register 65, 0
  17 0008 93C10018 		stw 30,24(1)
  18 000c 90010024 		stw 0,36(1)
  19 0010 9361000C 		stw 27,12(1)
  20 0014 7C9B2378 		mr 27,4
  21              		.cfi_offset 27, -20
  22              		.cfi_offset 65, 4
  23              		.cfi_offset 30, -8
  24              	.LBB3804:
  25              	.LBB3805:
  26              	.LBB3806:
  27              		.file 2 "d:/Projects/SaveGameManager/savegame-manager-gx/trunk/source/Themes/Resources.cpp"
  28              		.loc 2 266 0
  29 0018 83C30008 		lwz 30,8(3)
  30              	.LVL1:
  31              	.LBE3806:
  32              	.LBE3805:
  33              	.LBE3804:
  34              		.loc 1 1264 0
  35 001c 93810010 		stw 28,16(1)
  36              	.LBB3843:
  37              	.LBB3823:
  38              	.LBB3819:
  39              		.loc 1 1272 0
  40 0020 3B830004 		addi 28,3,4
  41              		.cfi_offset 28, -16
  42              	.LVL2:
  43              	.LBE3819:
  44              	.LBE3823:
  45              		.loc 1 1274 0
  46 0024 2F9E0000 		cmpwi 7,30,0
  47              	.LBE3843:
  48              		.loc 1 1264 0
  49 0028 93E1001C 		stw 31,28(1)
  50 002c 93410008 		stw 26,8(1)
  51 0030 7C7F1B78 		mr 31,3
  52              		.cfi_offset 26, -24
  53              		.cfi_offset 31, -4
  54 0034 93A10014 		stw 29,20(1)
  55              	.LBB3844:
  56              		.loc 1 1274 0
  57 0038 419E0088 		beq- 7,.L16
  58              		.cfi_offset 29, -12
  59              	.LVL3:
  60 003c 81440000 		lwz 10,0(4)
  61 0040 48000014 		b .L5
  62              	.LVL4:
  63              	.L23:
  64              		.loc 2 266 0
  65 0044 801E0008 		lwz 0,8(30)
  66              	.LVL5:
  67              		.loc 1 1274 0
  68 0048 2F800000 		cmpwi 7,0,0
  69 004c 419E0028 		beq- 7,.L22
  70              	.LVL6:
  71              	.L17:
  72 0050 7C1E0378 		mr 30,0
  73              	.LVL7:
  74              	.L5:
  75              		.loc 2 266 0
  76 0054 813E0010 		lwz 9,16(30)
  77 0058 39600001 		li 11,1
  78              		.loc 1 1278 0
  79 005c 7F895040 		cmplw 7,9,10
  80 0060 41BDFFE4 		bgt- 7,.L23
  81              	.LVL8:
  82              		.loc 2 266 0
  83 0064 801E000C 		lwz 0,12(30)
  84 0068 39600000 		li 11,0
  85              	.LVL9:
  86              		.loc 1 1274 0
  87 006c 2F800000 		cmpwi 7,0,0
  88 0070 409EFFE0 		bne+ 7,.L17
  89              	.LVL10:
  90              	.L22:
  91              		.loc 1 1281 0
  92 0074 2F8B0000 		cmpwi 7,11,0
  93 0078 7FDDF378 		mr 29,30
  94 007c 409E0048 		bne- 7,.L2
  95              	.LVL11:
  96              		.loc 1 1289 0
  97 0080 7F895040 		cmplw 7,9,10
  98 0084 419C006C 		blt- 7,.L24
  99              	.LVL12:
 100              	.L12:
 101              	.LBB3824:
 102              	.LBB3820:
 103              		.loc 1 1292 0
 104 0088 38800000 		li 4,0
 105 008c 38000000 		li 0,0
 106 0090 7FC3F378 		mr 3,30
 107 0094 5004C00E 		rlwimi 4,0,24,0,7
 108              	.LVL13:
 109              	.L11:
 110              	.LBE3820:
 111              	.LBE3824:
 112              	.LBE3844:
 113              		.loc 1 1293 0
 114 0098 80010024 		lwz 0,36(1)
 115 009c 83410008 		lwz 26,8(1)
 116 00a0 7C0803A6 		mtlr 0
 117 00a4 8361000C 		lwz 27,12(1)
 118              	.LVL14:
 119 00a8 83810010 		lwz 28,16(1)
 120 00ac 83A10014 		lwz 29,20(1)
 121 00b0 83C10018 		lwz 30,24(1)
 122 00b4 83E1001C 		lwz 31,28(1)
 123              	.LVL15:
 124 00b8 38210020 		addi 1,1,32
 125              		.cfi_remember_state
 126              	.LCFI1:
 127              		.cfi_def_cfa_offset 0
 128              		.cfi_restore 31
 129              		.cfi_restore 30
 130              		.cfi_restore 29
 131              		.cfi_restore 28
 132              		.cfi_restore 27
 133              		.cfi_restore 26
 134 00bc 4E800020 		blr
 135              	.LVL16:
 136              	.L16:
 137              	.LCFI2:
 138              		.cfi_restore_state
 139              	.LBB3845:
 140              		.loc 1 1272 0
 141 00c0 7F9EE378 		mr 30,28
 142              	.LVL17:
 143              	.L2:
 144              		.loc 2 266 0
 145 00c4 801F000C 		lwz 0,12(31)
 146              	.LVL18:
 147              		.loc 1 1283 0
 148 00c8 7F80F000 		cmpw 7,0,30
 149 00cc 419E00BC 		beq- 7,.L25
 150              	.LVL19:
 151              	.LBB3825:
 152              	.LBB3826:
 153              		.loc 1 203 0
 154 00d0 7FC3F378 		mr 3,30
 155              	.LVL20:
 156 00d4 7FDDF378 		mr 29,30
 157 00d8 48000001 		bl _ZSt18_Rb_tree_decrementPSt18_Rb_tree_node_base
 158              	.LVL21:
 159 00dc 815B0000 		lwz 10,0(27)
 160 00e0 81230010 		lwz 9,16(3)
 161 00e4 7C7E1B78 		mr 30,3
 162              	.LVL22:
 163              	.LBE3826:
 164              	.LBE3825:
 165              		.loc 1 1289 0
 166 00e8 7F895040 		cmplw 7,9,10
 167 00ec 409CFF9C 		bge+ 7,.L12
 168              	.LVL23:
 169              	.L24:
 170              	.LBB3827:
 171              	.LBB3821:
 172              		.loc 1 969 0
 173 00f0 7F9CE800 		cmpw 7,28,29
 174 00f4 3B400001 		li 26,1
 175 00f8 419E0014 		beq- 7,.L13
 176              	.LVL24:
 177              		.loc 1 1264 0
 178 00fc 835D0010 		lwz 26,16(29)
 179 0100 7F5A5010 		subfc 26,26,10
 180 0104 7F5AD110 		subfe 26,26,26
 181 0108 7F5A00D0 		neg 26,26
 182              	.LVL25:
 183              	.L13:
 184              	.LBB3807:
 185              	.LBB3808:
 186              	.LBB3809:
 187              	.LBB3810:
 188              	.LBB3811:
 189              		.file 3 "d:\\devkitpro\\devkitppc\\bin\\../lib/gcc/powerpc-eabi/4.6.3/../../../../powerpc-eabi/inc
 190              		.loc 3 92 0
 191 010c 38600018 		li 3,24
 192 0110 48000001 		bl _Znwj
 193              	.LBE3811:
 194              	.LBE3810:
 195              	.LBE3809:
 196              	.LBB3814:
 197              	.LBB3815:
 198              		.loc 3 108 0
 199 0114 2F83FFF0 		cmpwi 7,3,-16
 200              	.LBE3815:
 201              	.LBE3814:
 202              	.LBB3817:
 203              	.LBB3813:
 204              	.LBB3812:
 205              		.loc 3 92 0
 206 0118 7C7E1B78 		mr 30,3
 207              	.LVL26:
 208              	.LBE3812:
 209              	.LBE3813:
 210              	.LBE3817:
 211              	.LBB3818:
 212              	.LBB3816:
 213              		.loc 3 108 0
 214 011c 419E0014 		beq- 7,.L15
 215 0120 815B0000 		lwz 10,0(27)
 216 0124 817B0004 		lwz 11,4(27)
 217 0128 91430010 		stw 10,16(3)
 218 012c 91630014 		stw 11,20(3)
 219              	.L15:
 220              	.LVL27:
 221              	.LBE3816:
 222              	.LBE3818:
 223              	.LBE3808:
 224              	.LBE3807:
 225              		.loc 1 973 0
 226 0130 7F43D378 		mr 3,26
 227              	.LVL28:
 228 0134 7FC4F378 		mr 4,30
 229 0138 7FA5EB78 		mr 5,29
 230 013c 7F86E378 		mr 6,28
 231 0140 48000001 		bl _ZSt29_Rb_tree_insert_and_rebalancebPSt18_Rb_tree_node_baseS0_RS_
 232              		.loc 1 976 0
 233 0144 813F0014 		lwz 9,20(31)
 234              		.loc 1 1291 0
 235 0148 38800000 		li 4,0
 236 014c 7FC3F378 		mr 3,30
 237              		.loc 1 976 0
 238 0150 38090001 		addi 0,9,1
 239              	.LBE3821:
 240              	.LBE3827:
 241              	.LBE3845:
 242              		.loc 1 1293 0
 243 0154 83410008 		lwz 26,8(1)
 244              	.LVL29:
 245              	.LBB3846:
 246              	.LBB3828:
 247              	.LBB3822:
 248              		.loc 1 976 0
 249 0158 901F0014 		stw 0,20(31)
 250              	.LVL30:
 251              		.loc 1 1291 0
 252 015c 38000001 		li 0,1
 253 0160 5004C00E 		rlwimi 4,0,24,0,7
 254              	.LBE3822:
 255              	.LBE3828:
 256              	.LBE3846:
 257              		.loc 1 1293 0
 258 0164 80010024 		lwz 0,36(1)
 259 0168 8361000C 		lwz 27,12(1)
 260              	.LVL31:
 261 016c 7C0803A6 		mtlr 0
 262 0170 83810010 		lwz 28,16(1)
 263 0174 83A10014 		lwz 29,20(1)
 264              	.LVL32:
 265 0178 83C10018 		lwz 30,24(1)
 266              	.LVL33:
 267 017c 83E1001C 		lwz 31,28(1)
 268              	.LVL34:
 269 0180 38210020 		addi 1,1,32
 270              		.cfi_remember_state
 271              		.cfi_restore 26
 272              		.cfi_restore 27
 273              		.cfi_restore 28
 274              		.cfi_restore 29
 275              		.cfi_restore 30
 276              		.cfi_restore 31
 277              	.LCFI3:
 278              		.cfi_def_cfa_offset 0
 279 0184 4E800020 		blr
 280              	.LVL35:
 281              	.L25:
 282              	.LCFI4:
 283              		.cfi_restore_state
 284              	.LBB3847:
 285              	.LBB3829:
 286              	.LBB3830:
 287              		.loc 1 969 0
 288 0188 7F9CF000 		cmpw 7,28,30
 289 018c 3B400001 		li 26,1
 290 0190 419E0018 		beq- 7,.L8
 291              	.LVL36:
 292              		.loc 1 1264 0
 293 0194 835B0000 		lwz 26,0(27)
 294 0198 801E0010 		lwz 0,16(30)
 295              	.LVL37:
 296 019c 7F40D010 		subfc 26,0,26
 297 01a0 7F5AD110 		subfe 26,26,26
 298 01a4 7F5A00D0 		neg 26,26
 299              	.LVL38:
 300              	.L8:
 301              	.LBB3831:
 302              	.LBB3832:
 303              	.LBB3833:
 304              	.LBB3834:
 305              	.LBB3835:
 306              		.loc 3 92 0
 307 01a8 38600018 		li 3,24
 308              	.LVL39:
 309 01ac 48000001 		bl _Znwj
 310              	.LVL40:
 311              	.LBE3835:
 312              	.LBE3834:
 313              	.LBE3833:
 314              	.LBB3838:
 315              	.LBB3839:
 316              		.loc 3 108 0
 317 01b0 2F83FFF0 		cmpwi 7,3,-16
 318              	.LBE3839:
 319              	.LBE3838:
 320              	.LBB3841:
 321              	.LBB3837:
 322              	.LBB3836:
 323              		.loc 3 92 0
 324 01b4 7C7D1B78 		mr 29,3
 325              	.LVL41:
 326              	.LBE3836:
 327              	.LBE3837:
 328              	.LBE3841:
 329              	.LBB3842:
 330              	.LBB3840:
 331              		.loc 3 108 0
 332 01b8 419E0014 		beq- 7,.L10
 333 01bc 815B0000 		lwz 10,0(27)
 334 01c0 817B0004 		lwz 11,4(27)
 335 01c4 91430010 		stw 10,16(3)
 336 01c8 91630014 		stw 11,20(3)
 337              	.L10:
 338              	.LVL42:
 339              	.LBE3840:
 340              	.LBE3842:
 341              	.LBE3832:
 342              	.LBE3831:
 343              		.loc 1 973 0
 344 01cc 7F43D378 		mr 3,26
 345              	.LVL43:
 346 01d0 7FA4EB78 		mr 4,29
 347 01d4 7FC5F378 		mr 5,30
 348 01d8 7F86E378 		mr 6,28
 349 01dc 48000001 		bl _ZSt29_Rb_tree_insert_and_rebalancebPSt18_Rb_tree_node_baseS0_RS_
 350              		.loc 1 976 0
 351 01e0 813F0014 		lwz 9,20(31)
 352              		.loc 1 1285 0
 353 01e4 38800000 		li 4,0
 354 01e8 7FA3EB78 		mr 3,29
 355              		.loc 1 976 0
 356 01ec 38090001 		addi 0,9,1
 357 01f0 901F0014 		stw 0,20(31)
 358              	.LVL44:
 359              		.loc 1 1285 0
 360 01f4 38000001 		li 0,1
 361 01f8 5004C00E 		rlwimi 4,0,24,0,7
 362 01fc 4BFFFE9C 		b .L11
 363              	.LBE3830:
 364              	.LBE3829:
 365              	.LBE3847:
 366              		.cfi_endproc
 367              	.LFE2537:
 368              		.size	_ZNSt8_Rb_treeIPKhSt4pairIKS1_P12GuiImageDataESt10_Select1stIS6_ESt4lessIS1_ESaIS6_EE16_M_in
 369              		.align 2
 370              		.type	_ZNSt8_Rb_treeIP8GuiSoundSt4pairIKS1_iESt10_Select1stIS4_ESt4lessIS1_ESaIS4_EE16_M_insert_un
 371              	_ZNSt8_Rb_treeIP8GuiSoundSt4pairIKS1_iESt10_Select1stIS4_ESt4lessIS1_ESaIS4_EE16_M_insert_uniqueERK
 372              	.LFB2540:
 373              		.loc 1 1264 0
 374              		.cfi_startproc
 375              	.LVL45:
 376 0200 7C0802A6 		mflr 0
 377 0204 9421FFE0 		stwu 1,-32(1)
 378              	.LCFI5:
 379              		.cfi_def_cfa_offset 32
 380              		.cfi_register 65, 0
 381 0208 93C10018 		stw 30,24(1)
 382 020c 90010024 		stw 0,36(1)
 383 0210 9361000C 		stw 27,12(1)
 384 0214 7C9B2378 		mr 27,4
 385              		.cfi_offset 27, -20
 386              		.cfi_offset 65, 4
 387              		.cfi_offset 30, -8
 388              	.LBB3887:
 389              	.LBB3888:
 390              	.LBB3889:
 391              		.loc 2 266 0
 392 0218 83C30008 		lwz 30,8(3)
 393              	.LVL46:
 394              	.LBE3889:
 395              	.LBE3888:
 396              	.LBE3887:
 397              		.loc 1 1264 0
 398 021c 93810010 		stw 28,16(1)
 399              	.LBB3926:
 400              	.LBB3906:
 401              	.LBB3902:
 402              		.loc 1 1272 0
 403 0220 3B830004 		addi 28,3,4
 404              		.cfi_offset 28, -16
 405              	.LVL47:
 406              	.LBE3902:
 407              	.LBE3906:
 408              		.loc 1 1274 0
 409 0224 2F9E0000 		cmpwi 7,30,0
 410              	.LBE3926:
 411              		.loc 1 1264 0
 412 0228 93E1001C 		stw 31,28(1)
 413 022c 93410008 		stw 26,8(1)
 414 0230 7C7F1B78 		mr 31,3
 415              		.cfi_offset 26, -24
 416              		.cfi_offset 31, -4
 417 0234 93A10014 		stw 29,20(1)
 418              	.LBB3927:
 419              		.loc 1 1274 0
 420 0238 419E0088 		beq- 7,.L41
 421              		.cfi_offset 29, -12
 422              	.LVL48:
 423 023c 81440000 		lwz 10,0(4)
 424 0240 48000014 		b .L30
 425              	.LVL49:
 426              	.L47:
 427              		.loc 2 266 0
 428 0244 801E0008 		lwz 0,8(30)
 429              	.LVL50:
 430              		.loc 1 1274 0
 431 0248 2F800000 		cmpwi 7,0,0
 432 024c 419E0028 		beq- 7,.L46
 433              	.LVL51:
 434              	.L42:
 435 0250 7C1E0378 		mr 30,0
 436              	.LVL52:
 437              	.L30:
 438              		.loc 2 266 0
 439 0254 813E0010 		lwz 9,16(30)
 440 0258 39600001 		li 11,1
 441              		.loc 1 1278 0
 442 025c 7F895040 		cmplw 7,9,10
 443 0260 41BDFFE4 		bgt- 7,.L47
 444              	.LVL53:
 445              		.loc 2 266 0
 446 0264 801E000C 		lwz 0,12(30)
 447 0268 39600000 		li 11,0
 448              	.LVL54:
 449              		.loc 1 1274 0
 450 026c 2F800000 		cmpwi 7,0,0
 451 0270 409EFFE0 		bne+ 7,.L42
 452              	.LVL55:
 453              	.L46:
 454              		.loc 1 1281 0
 455 0274 2F8B0000 		cmpwi 7,11,0
 456 0278 7FDDF378 		mr 29,30
 457 027c 409E0048 		bne- 7,.L27
 458              	.LVL56:
 459              		.loc 1 1289 0
 460 0280 7F895040 		cmplw 7,9,10
 461 0284 419C006C 		blt- 7,.L48
 462              	.LVL57:
 463              	.L37:
 464              	.LBB3907:
 465              	.LBB3903:
 466              		.loc 1 1292 0
 467 0288 38800000 		li 4,0
 468 028c 38000000 		li 0,0
 469 0290 7FC3F378 		mr 3,30
 470 0294 5004C00E 		rlwimi 4,0,24,0,7
 471              	.LVL58:
 472              	.L36:
 473              	.LBE3903:
 474              	.LBE3907:
 475              	.LBE3927:
 476              		.loc 1 1293 0
 477 0298 80010024 		lwz 0,36(1)
 478 029c 83410008 		lwz 26,8(1)
 479 02a0 7C0803A6 		mtlr 0
 480 02a4 8361000C 		lwz 27,12(1)
 481              	.LVL59:
 482 02a8 83810010 		lwz 28,16(1)
 483 02ac 83A10014 		lwz 29,20(1)
 484 02b0 83C10018 		lwz 30,24(1)
 485 02b4 83E1001C 		lwz 31,28(1)
 486              	.LVL60:
 487 02b8 38210020 		addi 1,1,32
 488              		.cfi_remember_state
 489              	.LCFI6:
 490              		.cfi_def_cfa_offset 0
 491              		.cfi_restore 31
 492              		.cfi_restore 30
 493              		.cfi_restore 29
 494              		.cfi_restore 28
 495              		.cfi_restore 27
 496              		.cfi_restore 26
 497 02bc 4E800020 		blr
 498              	.LVL61:
 499              	.L41:
 500              	.LCFI7:
 501              		.cfi_restore_state
 502              	.LBB3928:
 503              		.loc 1 1272 0
 504 02c0 7F9EE378 		mr 30,28
 505              	.LVL62:
 506              	.L27:
 507              		.loc 2 266 0
 508 02c4 801F000C 		lwz 0,12(31)
 509              	.LVL63:
 510              		.loc 1 1283 0
 511 02c8 7F80F000 		cmpw 7,0,30
 512 02cc 419E00BC 		beq- 7,.L49
 513              	.LVL64:
 514              	.LBB3908:
 515              	.LBB3909:
 516              		.loc 1 203 0
 517 02d0 7FC3F378 		mr 3,30
 518              	.LVL65:
 519 02d4 7FDDF378 		mr 29,30
 520 02d8 48000001 		bl _ZSt18_Rb_tree_decrementPSt18_Rb_tree_node_base
 521              	.LVL66:
 522 02dc 815B0000 		lwz 10,0(27)
 523 02e0 81230010 		lwz 9,16(3)
 524 02e4 7C7E1B78 		mr 30,3
 525              	.LVL67:
 526              	.LBE3909:
 527              	.LBE3908:
 528              		.loc 1 1289 0
 529 02e8 7F895040 		cmplw 7,9,10
 530 02ec 409CFF9C 		bge+ 7,.L37
 531              	.LVL68:
 532              	.L48:
 533              	.LBB3910:
 534              	.LBB3904:
 535              		.loc 1 969 0
 536 02f0 7F9CE800 		cmpw 7,28,29
 537 02f4 3B400001 		li 26,1
 538 02f8 419E0014 		beq- 7,.L38
 539              	.LVL69:
 540              		.loc 1 1264 0
 541 02fc 835D0010 		lwz 26,16(29)
 542 0300 7F5A5010 		subfc 26,26,10
 543 0304 7F5AD110 		subfe 26,26,26
 544 0308 7F5A00D0 		neg 26,26
 545              	.LVL70:
 546              	.L38:
 547              	.LBB3890:
 548              	.LBB3891:
 549              	.LBB3892:
 550              	.LBB3893:
 551              	.LBB3894:
 552              		.loc 3 92 0
 553 030c 38600018 		li 3,24
 554 0310 48000001 		bl _Znwj
 555              	.LBE3894:
 556              	.LBE3893:
 557              	.LBE3892:
 558              	.LBB3897:
 559              	.LBB3898:
 560              		.loc 3 108 0
 561 0314 2F83FFF0 		cmpwi 7,3,-16
 562              	.LBE3898:
 563              	.LBE3897:
 564              	.LBB3900:
 565              	.LBB3896:
 566              	.LBB3895:
 567              		.loc 3 92 0
 568 0318 7C7E1B78 		mr 30,3
 569              	.LVL71:
 570              	.LBE3895:
 571              	.LBE3896:
 572              	.LBE3900:
 573              	.LBB3901:
 574              	.LBB3899:
 575              		.loc 3 108 0
 576 031c 419E0014 		beq- 7,.L40
 577 0320 815B0000 		lwz 10,0(27)
 578 0324 817B0004 		lwz 11,4(27)
 579 0328 91430010 		stw 10,16(3)
 580 032c 91630014 		stw 11,20(3)
 581              	.L40:
 582              	.LVL72:
 583              	.LBE3899:
 584              	.LBE3901:
 585              	.LBE3891:
 586              	.LBE3890:
 587              		.loc 1 973 0
 588 0330 7F43D378 		mr 3,26
 589              	.LVL73:
 590 0334 7FC4F378 		mr 4,30
 591 0338 7FA5EB78 		mr 5,29
 592 033c 7F86E378 		mr 6,28
 593 0340 48000001 		bl _ZSt29_Rb_tree_insert_and_rebalancebPSt18_Rb_tree_node_baseS0_RS_
 594              		.loc 1 976 0
 595 0344 813F0014 		lwz 9,20(31)
 596              		.loc 1 1291 0
 597 0348 38800000 		li 4,0
 598 034c 7FC3F378 		mr 3,30
 599              		.loc 1 976 0
 600 0350 38090001 		addi 0,9,1
 601              	.LBE3904:
 602              	.LBE3910:
 603              	.LBE3928:
 604              		.loc 1 1293 0
 605 0354 83410008 		lwz 26,8(1)
 606              	.LVL74:
 607              	.LBB3929:
 608              	.LBB3911:
 609              	.LBB3905:
 610              		.loc 1 976 0
 611 0358 901F0014 		stw 0,20(31)
 612              	.LVL75:
 613              		.loc 1 1291 0
 614 035c 38000001 		li 0,1
 615 0360 5004C00E 		rlwimi 4,0,24,0,7
 616              	.LBE3905:
 617              	.LBE3911:
 618              	.LBE3929:
 619              		.loc 1 1293 0
 620 0364 80010024 		lwz 0,36(1)
 621 0368 8361000C 		lwz 27,12(1)
 622              	.LVL76:
 623 036c 7C0803A6 		mtlr 0
 624 0370 83810010 		lwz 28,16(1)
 625 0374 83A10014 		lwz 29,20(1)
 626              	.LVL77:
 627 0378 83C10018 		lwz 30,24(1)
 628              	.LVL78:
 629 037c 83E1001C 		lwz 31,28(1)
 630              	.LVL79:
 631 0380 38210020 		addi 1,1,32
 632              		.cfi_remember_state
 633              		.cfi_restore 26
 634              		.cfi_restore 27
 635              		.cfi_restore 28
 636              		.cfi_restore 29
 637              		.cfi_restore 30
 638              		.cfi_restore 31
 639              	.LCFI8:
 640              		.cfi_def_cfa_offset 0
 641 0384 4E800020 		blr
 642              	.LVL80:
 643              	.L49:
 644              	.LCFI9:
 645              		.cfi_restore_state
 646              	.LBB3930:
 647              	.LBB3912:
 648              	.LBB3913:
 649              		.loc 1 969 0
 650 0388 7F9CF000 		cmpw 7,28,30
 651 038c 3B400001 		li 26,1
 652 0390 419E0018 		beq- 7,.L33
 653              	.LVL81:
 654              		.loc 1 1264 0
 655 0394 835B0000 		lwz 26,0(27)
 656 0398 801E0010 		lwz 0,16(30)
 657              	.LVL82:
 658 039c 7F40D010 		subfc 26,0,26
 659 03a0 7F5AD110 		subfe 26,26,26
 660 03a4 7F5A00D0 		neg 26,26
 661              	.LVL83:
 662              	.L33:
 663              	.LBB3914:
 664              	.LBB3915:
 665              	.LBB3916:
 666              	.LBB3917:
 667              	.LBB3918:
 668              		.loc 3 92 0
 669 03a8 38600018 		li 3,24
 670              	.LVL84:
 671 03ac 48000001 		bl _Znwj
 672              	.LVL85:
 673              	.LBE3918:
 674              	.LBE3917:
 675              	.LBE3916:
 676              	.LBB3921:
 677              	.LBB3922:
 678              		.loc 3 108 0
 679 03b0 2F83FFF0 		cmpwi 7,3,-16
 680              	.LBE3922:
 681              	.LBE3921:
 682              	.LBB3924:
 683              	.LBB3920:
 684              	.LBB3919:
 685              		.loc 3 92 0
 686 03b4 7C7D1B78 		mr 29,3
 687              	.LVL86:
 688              	.LBE3919:
 689              	.LBE3920:
 690              	.LBE3924:
 691              	.LBB3925:
 692              	.LBB3923:
 693              		.loc 3 108 0
 694 03b8 419E0014 		beq- 7,.L35
 695 03bc 815B0000 		lwz 10,0(27)
 696 03c0 817B0004 		lwz 11,4(27)
 697 03c4 91430010 		stw 10,16(3)
 698 03c8 91630014 		stw 11,20(3)
 699              	.L35:
 700              	.LVL87:
 701              	.LBE3923:
 702              	.LBE3925:
 703              	.LBE3915:
 704              	.LBE3914:
 705              		.loc 1 973 0
 706 03cc 7F43D378 		mr 3,26
 707              	.LVL88:
 708 03d0 7FA4EB78 		mr 4,29
 709 03d4 7FC5F378 		mr 5,30
 710 03d8 7F86E378 		mr 6,28
 711 03dc 48000001 		bl _ZSt29_Rb_tree_insert_and_rebalancebPSt18_Rb_tree_node_baseS0_RS_
 712              		.loc 1 976 0
 713 03e0 813F0014 		lwz 9,20(31)
 714              		.loc 1 1285 0
 715 03e4 38800000 		li 4,0
 716 03e8 7FA3EB78 		mr 3,29
 717              		.loc 1 976 0
 718 03ec 38090001 		addi 0,9,1
 719 03f0 901F0014 		stw 0,20(31)
 720              	.LVL89:
 721              		.loc 1 1285 0
 722 03f4 38000001 		li 0,1
 723 03f8 5004C00E 		rlwimi 4,0,24,0,7
 724 03fc 4BFFFE9C 		b .L36
 725              	.LBE3913:
 726              	.LBE3912:
 727              	.LBE3930:
 728              		.cfi_endproc
 729              	.LFE2540:
 730              		.size	_ZNSt8_Rb_treeIP8GuiSoundSt4pairIKS1_iESt10_Select1stIS4_ESt4lessIS1_ESaIS4_EE16_M_insert_un
 731              		.align 2
 732              		.type	_ZNSt8_Rb_treeIP12GuiImageDataSt4pairIKS1_iESt10_Select1stIS4_ESt4lessIS1_ESaIS4_EE16_M_inse
 733              	_ZNSt8_Rb_treeIP12GuiImageDataSt4pairIKS1_iESt10_Select1stIS4_ESt4lessIS1_ESaIS4_EE16_M_insert_uniq
 734              	.LFB2543:
 735              		.loc 1 1264 0
 736              		.cfi_startproc
 737              	.LVL90:
 738 0400 7C0802A6 		mflr 0
 739 0404 9421FFE0 		stwu 1,-32(1)
 740              	.LCFI10:
 741              		.cfi_def_cfa_offset 32
 742              		.cfi_register 65, 0
 743 0408 93C10018 		stw 30,24(1)
 744 040c 90010024 		stw 0,36(1)
 745 0410 9361000C 		stw 27,12(1)
 746 0414 7C9B2378 		mr 27,4
 747              		.cfi_offset 27, -20
 748              		.cfi_offset 65, 4
 749              		.cfi_offset 30, -8
 750              	.LBB3970:
 751              	.LBB3971:
 752              	.LBB3972:
 753              		.loc 2 266 0
 754 0418 83C30008 		lwz 30,8(3)
 755              	.LVL91:
 756              	.LBE3972:
 757              	.LBE3971:
 758              	.LBE3970:
 759              		.loc 1 1264 0
 760 041c 93810010 		stw 28,16(1)
 761              	.LBB4009:
 762              	.LBB3989:
 763              	.LBB3985:
 764              		.loc 1 1272 0
 765 0420 3B830004 		addi 28,3,4
 766              		.cfi_offset 28, -16
 767              	.LVL92:
 768              	.LBE3985:
 769              	.LBE3989:
 770              		.loc 1 1274 0
 771 0424 2F9E0000 		cmpwi 7,30,0
 772              	.LBE4009:
 773              		.loc 1 1264 0
 774 0428 93E1001C 		stw 31,28(1)
 775 042c 93410008 		stw 26,8(1)
 776 0430 7C7F1B78 		mr 31,3
 777              		.cfi_offset 26, -24
 778              		.cfi_offset 31, -4
 779 0434 93A10014 		stw 29,20(1)
 780              	.LBB4010:
 781              		.loc 1 1274 0
 782 0438 419E0088 		beq- 7,.L65
 783              		.cfi_offset 29, -12
 784 043c 81440000 		lwz 10,0(4)
 785 0440 48000014 		b .L54
 786              	.LVL93:
 787              	.L71:
 788              		.loc 2 266 0
 789 0444 801E0008 		lwz 0,8(30)
 790              	.LVL94:
 791              		.loc 1 1274 0
 792 0448 2F800000 		cmpwi 7,0,0
 793 044c 419E0028 		beq- 7,.L70
 794              	.LVL95:
 795              	.L66:
 796 0450 7C1E0378 		mr 30,0
 797              	.LVL96:
 798              	.L54:
 799              		.loc 2 266 0
 800 0454 813E0010 		lwz 9,16(30)
 801 0458 39600001 		li 11,1
 802              		.loc 1 1278 0
 803 045c 7F895040 		cmplw 7,9,10
 804 0460 41BDFFE4 		bgt- 7,.L71
 805              	.LVL97:
 806              		.loc 2 266 0
 807 0464 801E000C 		lwz 0,12(30)
 808 0468 39600000 		li 11,0
 809              	.LVL98:
 810              		.loc 1 1274 0
 811 046c 2F800000 		cmpwi 7,0,0
 812 0470 409EFFE0 		bne+ 7,.L66
 813              	.LVL99:
 814              	.L70:
 815              		.loc 1 1281 0
 816 0474 2F8B0000 		cmpwi 7,11,0
 817 0478 7FDDF378 		mr 29,30
 818 047c 409E0048 		bne- 7,.L51
 819              	.LVL100:
 820              		.loc 1 1289 0
 821 0480 7F895040 		cmplw 7,9,10
 822 0484 419C006C 		blt- 7,.L72
 823              	.LVL101:
 824              	.L61:
 825              	.LBB3990:
 826              	.LBB3986:
 827              		.loc 1 1292 0
 828 0488 38800000 		li 4,0
 829 048c 38000000 		li 0,0
 830 0490 7FC3F378 		mr 3,30
 831 0494 5004C00E 		rlwimi 4,0,24,0,7
 832              	.LVL102:
 833              	.L60:
 834              	.LBE3986:
 835              	.LBE3990:
 836              	.LBE4010:
 837              		.loc 1 1293 0
 838 0498 80010024 		lwz 0,36(1)
 839 049c 83410008 		lwz 26,8(1)
 840 04a0 7C0803A6 		mtlr 0
 841 04a4 8361000C 		lwz 27,12(1)
 842              	.LVL103:
 843 04a8 83810010 		lwz 28,16(1)
 844 04ac 83A10014 		lwz 29,20(1)
 845 04b0 83C10018 		lwz 30,24(1)
 846 04b4 83E1001C 		lwz 31,28(1)
 847              	.LVL104:
 848 04b8 38210020 		addi 1,1,32
 849              		.cfi_remember_state
 850              	.LCFI11:
 851              		.cfi_def_cfa_offset 0
 852              		.cfi_restore 31
 853              		.cfi_restore 30
 854              		.cfi_restore 29
 855              		.cfi_restore 28
 856              		.cfi_restore 27
 857              		.cfi_restore 26
 858 04bc 4E800020 		blr
 859              	.LVL105:
 860              	.L65:
 861              	.LCFI12:
 862              		.cfi_restore_state
 863              	.LBB4011:
 864              		.loc 1 1272 0
 865 04c0 7F9EE378 		mr 30,28
 866              	.LVL106:
 867              	.L51:
 868              		.loc 2 266 0
 869 04c4 801F000C 		lwz 0,12(31)
 870              	.LVL107:
 871              		.loc 1 1283 0
 872 04c8 7F80F000 		cmpw 7,0,30
 873 04cc 419E00BC 		beq- 7,.L73
 874              	.LVL108:
 875              	.LBB3991:
 876              	.LBB3992:
 877              		.loc 1 203 0
 878 04d0 7FC3F378 		mr 3,30
 879              	.LVL109:
 880 04d4 7FDDF378 		mr 29,30
 881 04d8 48000001 		bl _ZSt18_Rb_tree_decrementPSt18_Rb_tree_node_base
 882              	.LVL110:
 883 04dc 815B0000 		lwz 10,0(27)
 884 04e0 81230010 		lwz 9,16(3)
 885 04e4 7C7E1B78 		mr 30,3
 886              	.LVL111:
 887              	.LBE3992:
 888              	.LBE3991:
 889              		.loc 1 1289 0
 890 04e8 7F895040 		cmplw 7,9,10
 891 04ec 409CFF9C 		bge+ 7,.L61
 892              	.LVL112:
 893              	.L72:
 894              	.LBB3993:
 895              	.LBB3987:
 896              		.loc 1 969 0
 897 04f0 7F9CE800 		cmpw 7,28,29
 898 04f4 3B400001 		li 26,1
 899 04f8 419E0014 		beq- 7,.L62
 900              	.LVL113:
 901              		.loc 1 1264 0
 902 04fc 835D0010 		lwz 26,16(29)
 903 0500 7F5A5010 		subfc 26,26,10
 904 0504 7F5AD110 		subfe 26,26,26
 905 0508 7F5A00D0 		neg 26,26
 906              	.LVL114:
 907              	.L62:
 908              	.LBB3973:
 909              	.LBB3974:
 910              	.LBB3975:
 911              	.LBB3976:
 912              	.LBB3977:
 913              		.loc 3 92 0
 914 050c 38600018 		li 3,24
 915 0510 48000001 		bl _Znwj
 916              	.LBE3977:
 917              	.LBE3976:
 918              	.LBE3975:
 919              	.LBB3980:
 920              	.LBB3981:
 921              		.loc 3 108 0
 922 0514 2F83FFF0 		cmpwi 7,3,-16
 923              	.LBE3981:
 924              	.LBE3980:
 925              	.LBB3983:
 926              	.LBB3979:
 927              	.LBB3978:
 928              		.loc 3 92 0
 929 0518 7C7E1B78 		mr 30,3
 930              	.LVL115:
 931              	.LBE3978:
 932              	.LBE3979:
 933              	.LBE3983:
 934              	.LBB3984:
 935              	.LBB3982:
 936              		.loc 3 108 0
 937 051c 419E0014 		beq- 7,.L64
 938 0520 815B0000 		lwz 10,0(27)
 939 0524 817B0004 		lwz 11,4(27)
 940 0528 91430010 		stw 10,16(3)
 941 052c 91630014 		stw 11,20(3)
 942              	.L64:
 943              	.LVL116:
 944              	.LBE3982:
 945              	.LBE3984:
 946              	.LBE3974:
 947              	.LBE3973:
 948              		.loc 1 973 0
 949 0530 7F43D378 		mr 3,26
 950              	.LVL117:
 951 0534 7FC4F378 		mr 4,30
 952 0538 7FA5EB78 		mr 5,29
 953 053c 7F86E378 		mr 6,28
 954 0540 48000001 		bl _ZSt29_Rb_tree_insert_and_rebalancebPSt18_Rb_tree_node_baseS0_RS_
 955              		.loc 1 976 0
 956 0544 813F0014 		lwz 9,20(31)
 957              		.loc 1 1291 0
 958 0548 38800000 		li 4,0
 959 054c 7FC3F378 		mr 3,30
 960              		.loc 1 976 0
 961 0550 38090001 		addi 0,9,1
 962              	.LBE3987:
 963              	.LBE3993:
 964              	.LBE4011:
 965              		.loc 1 1293 0
 966 0554 83410008 		lwz 26,8(1)
 967              	.LVL118:
 968              	.LBB4012:
 969              	.LBB3994:
 970              	.LBB3988:
 971              		.loc 1 976 0
 972 0558 901F0014 		stw 0,20(31)
 973              	.LVL119:
 974              		.loc 1 1291 0
 975 055c 38000001 		li 0,1
 976 0560 5004C00E 		rlwimi 4,0,24,0,7
 977              	.LBE3988:
 978              	.LBE3994:
 979              	.LBE4012:
 980              		.loc 1 1293 0
 981 0564 80010024 		lwz 0,36(1)
 982 0568 8361000C 		lwz 27,12(1)
 983              	.LVL120:
 984 056c 7C0803A6 		mtlr 0
 985 0570 83810010 		lwz 28,16(1)
 986 0574 83A10014 		lwz 29,20(1)
 987              	.LVL121:
 988 0578 83C10018 		lwz 30,24(1)
 989              	.LVL122:
 990 057c 83E1001C 		lwz 31,28(1)
 991              	.LVL123:
 992 0580 38210020 		addi 1,1,32
 993              		.cfi_remember_state
 994              		.cfi_restore 26
 995              		.cfi_restore 27
 996              		.cfi_restore 28
 997              		.cfi_restore 29
 998              		.cfi_restore 30
 999              		.cfi_restore 31
 1000              	.LCFI13:
 1001              		.cfi_def_cfa_offset 0
 1002 0584 4E800020 		blr
 1003              	.LVL124:
 1004              	.L73:
 1005              	.LCFI14:
 1006              		.cfi_restore_state
 1007              	.LBB4013:
 1008              	.LBB3995:
 1009              	.LBB3996:
 1010              		.loc 1 969 0
 1011 0588 7F9CF000 		cmpw 7,28,30
 1012 058c 3B400001 		li 26,1
 1013 0590 419E0018 		beq- 7,.L57
 1014              	.LVL125:
 1015              		.loc 1 1264 0
 1016 0594 835B0000 		lwz 26,0(27)
 1017 0598 801E0010 		lwz 0,16(30)
 1018              	.LVL126:
 1019 059c 7F40D010 		subfc 26,0,26
 1020 05a0 7F5AD110 		subfe 26,26,26
 1021 05a4 7F5A00D0 		neg 26,26
 1022              	.LVL127:
 1023              	.L57:
 1024              	.LBB3997:
 1025              	.LBB3998:
 1026              	.LBB3999:
 1027              	.LBB4000:
 1028              	.LBB4001:
 1029              		.loc 3 92 0
 1030 05a8 38600018 		li 3,24
 1031              	.LVL128:
 1032 05ac 48000001 		bl _Znwj
 1033              	.LVL129:
 1034              	.LBE4001:
 1035              	.LBE4000:
 1036              	.LBE3999:
 1037              	.LBB4004:
 1038              	.LBB4005:
 1039              		.loc 3 108 0
 1040 05b0 2F83FFF0 		cmpwi 7,3,-16
 1041              	.LBE4005:
 1042              	.LBE4004:
 1043              	.LBB4007:
 1044              	.LBB4003:
 1045              	.LBB4002:
 1046              		.loc 3 92 0
 1047 05b4 7C7D1B78 		mr 29,3
 1048              	.LVL130:
 1049              	.LBE4002:
 1050              	.LBE4003:
 1051              	.LBE4007:
 1052              	.LBB4008:
 1053              	.LBB4006:
 1054              		.loc 3 108 0
 1055 05b8 419E0014 		beq- 7,.L59
 1056 05bc 815B0000 		lwz 10,0(27)
 1057 05c0 817B0004 		lwz 11,4(27)
 1058 05c4 91430010 		stw 10,16(3)
 1059 05c8 91630014 		stw 11,20(3)
 1060              	.L59:
 1061              	.LVL131:
 1062              	.LBE4006:
 1063              	.LBE4008:
 1064              	.LBE3998:
 1065              	.LBE3997:
 1066              		.loc 1 973 0
 1067 05cc 7F43D378 		mr 3,26
 1068              	.LVL132:
 1069 05d0 7FA4EB78 		mr 4,29
 1070 05d4 7FC5F378 		mr 5,30
 1071 05d8 7F86E378 		mr 6,28
 1072 05dc 48000001 		bl _ZSt29_Rb_tree_insert_and_rebalancebPSt18_Rb_tree_node_baseS0_RS_
 1073              		.loc 1 976 0
 1074 05e0 813F0014 		lwz 9,20(31)
 1075              		.loc 1 1285 0
 1076 05e4 38800000 		li 4,0
 1077 05e8 7FA3EB78 		mr 3,29
 1078              		.loc 1 976 0
 1079 05ec 38090001 		addi 0,9,1
 1080 05f0 901F0014 		stw 0,20(31)
 1081              	.LVL133:
 1082              		.loc 1 1285 0
 1083 05f4 38000001 		li 0,1
 1084 05f8 5004C00E 		rlwimi 4,0,24,0,7
 1085 05fc 4BFFFE9C 		b .L60
 1086              	.LBE3996:
 1087              	.LBE3995:
 1088              	.LBE4013:
 1089              		.cfi_endproc
 1090              	.LFE2543:
 1091              		.size	_ZNSt8_Rb_treeIP12GuiImageDataSt4pairIKS1_iESt10_Select1stIS4_ESt4lessIS1_ESaIS4_EE16_M_inse
 1092              		.align 2
 1093              		.type	_ZNSt8_Rb_treeIPKhSt4pairIKS1_P8GuiSoundESt10_Select1stIS6_ESt4lessIS1_ESaIS6_EE16_M_insert_
 1094              	_ZNSt8_Rb_treeIPKhSt4pairIKS1_P8GuiSoundESt10_Select1stIS6_ESt4lessIS1_ESaIS6_EE16_M_insert_uniqueE
 1095              	.LFB2534:
 1096              		.loc 1 1264 0
 1097              		.cfi_startproc
 1098              	.LVL134:
 1099 0600 7C0802A6 		mflr 0
 1100 0604 9421FFE0 		stwu 1,-32(1)
 1101              	.LCFI15:
 1102              		.cfi_def_cfa_offset 32
 1103              		.cfi_register 65, 0
 1104 0608 93C10018 		stw 30,24(1)
 1105 060c 90010024 		stw 0,36(1)
 1106 0610 9361000C 		stw 27,12(1)
 1107 0614 7C9B2378 		mr 27,4
 1108              		.cfi_offset 27, -20
 1109              		.cfi_offset 65, 4
 1110              		.cfi_offset 30, -8
 1111              	.LBB4053:
 1112              	.LBB4054:
 1113              	.LBB4055:
 1114              		.loc 2 266 0
 1115 0618 83C30008 		lwz 30,8(3)
 1116              	.LVL135:
 1117              	.LBE4055:
 1118              	.LBE4054:
 1119              	.LBE4053:
 1120              		.loc 1 1264 0
 1121 061c 93810010 		stw 28,16(1)
 1122              	.LBB4092:
 1123              	.LBB4072:
 1124              	.LBB4068:
 1125              		.loc 1 1272 0
 1126 0620 3B830004 		addi 28,3,4
 1127              		.cfi_offset 28, -16
 1128              	.LVL136:
 1129              	.LBE4068:
 1130              	.LBE4072:
 1131              		.loc 1 1274 0
 1132 0624 2F9E0000 		cmpwi 7,30,0
 1133              	.LBE4092:
 1134              		.loc 1 1264 0
 1135 0628 93E1001C 		stw 31,28(1)
 1136 062c 93410008 		stw 26,8(1)
 1137 0630 7C7F1B78 		mr 31,3
 1138              		.cfi_offset 26, -24
 1139              		.cfi_offset 31, -4
 1140 0634 93A10014 		stw 29,20(1)
 1141              	.LBB4093:
 1142              		.loc 1 1274 0
 1143 0638 419E0088 		beq- 7,.L89
 1144              		.cfi_offset 29, -12
 1145              	.LVL137:
 1146 063c 81440000 		lwz 10,0(4)
 1147 0640 48000014 		b .L78
 1148              	.LVL138:
 1149              	.L95:
 1150              		.loc 2 266 0
 1151 0644 801E0008 		lwz 0,8(30)
 1152              	.LVL139:
 1153              		.loc 1 1274 0
 1154 0648 2F800000 		cmpwi 7,0,0
 1155 064c 419E0028 		beq- 7,.L94
 1156              	.LVL140:
 1157              	.L90:
 1158 0650 7C1E0378 		mr 30,0
 1159              	.LVL141:
 1160              	.L78:
 1161              		.loc 2 266 0
 1162 0654 813E0010 		lwz 9,16(30)
 1163 0658 39600001 		li 11,1
 1164              		.loc 1 1278 0
 1165 065c 7F895040 		cmplw 7,9,10
 1166 0660 41BDFFE4 		bgt- 7,.L95
 1167              	.LVL142:
 1168              		.loc 2 266 0
 1169 0664 801E000C 		lwz 0,12(30)
 1170 0668 39600000 		li 11,0
 1171              	.LVL143:
 1172              		.loc 1 1274 0
 1173 066c 2F800000 		cmpwi 7,0,0
 1174 0670 409EFFE0 		bne+ 7,.L90
 1175              	.LVL144:
 1176              	.L94:
 1177              		.loc 1 1281 0
 1178 0674 2F8B0000 		cmpwi 7,11,0
 1179 0678 7FDDF378 		mr 29,30
 1180 067c 409E0048 		bne- 7,.L75
 1181              	.LVL145:
 1182              		.loc 1 1289 0
 1183 0680 7F895040 		cmplw 7,9,10
 1184 0684 419C006C 		blt- 7,.L96
 1185              	.LVL146:
 1186              	.L85:
 1187              	.LBB4073:
 1188              	.LBB4069:
 1189              		.loc 1 1292 0
 1190 0688 38800000 		li 4,0
 1191 068c 38000000 		li 0,0
 1192 0690 7FC3F378 		mr 3,30
 1193 0694 5004C00E 		rlwimi 4,0,24,0,7
 1194              	.LVL147:
 1195              	.L84:
 1196              	.LBE4069:
 1197              	.LBE4073:
 1198              	.LBE4093:
 1199              		.loc 1 1293 0
 1200 0698 80010024 		lwz 0,36(1)
 1201 069c 83410008 		lwz 26,8(1)
 1202 06a0 7C0803A6 		mtlr 0
 1203 06a4 8361000C 		lwz 27,12(1)
 1204              	.LVL148:
 1205 06a8 83810010 		lwz 28,16(1)
 1206 06ac 83A10014 		lwz 29,20(1)
 1207 06b0 83C10018 		lwz 30,24(1)
 1208 06b4 83E1001C 		lwz 31,28(1)
 1209              	.LVL149:
 1210 06b8 38210020 		addi 1,1,32
 1211              		.cfi_remember_state
 1212              	.LCFI16:
 1213              		.cfi_def_cfa_offset 0
 1214              		.cfi_restore 31
 1215              		.cfi_restore 30
 1216              		.cfi_restore 29
 1217              		.cfi_restore 28
 1218              		.cfi_restore 27
 1219              		.cfi_restore 26
 1220 06bc 4E800020 		blr
 1221              	.LVL150:
 1222              	.L89:
 1223              	.LCFI17:
 1224              		.cfi_restore_state
 1225              	.LBB4094:
 1226              		.loc 1 1272 0
 1227 06c0 7F9EE378 		mr 30,28
 1228              	.LVL151:
 1229              	.L75:
 1230              		.loc 2 266 0
 1231 06c4 801F000C 		lwz 0,12(31)
 1232              	.LVL152:
 1233              		.loc 1 1283 0
 1234 06c8 7F80F000 		cmpw 7,0,30
 1235 06cc 419E00BC 		beq- 7,.L97
 1236              	.LVL153:
 1237              	.LBB4074:
 1238              	.LBB4075:
 1239              		.loc 1 203 0
 1240 06d0 7FC3F378 		mr 3,30
 1241              	.LVL154:
 1242 06d4 7FDDF378 		mr 29,30
 1243 06d8 48000001 		bl _ZSt18_Rb_tree_decrementPSt18_Rb_tree_node_base
 1244              	.LVL155:
 1245 06dc 815B0000 		lwz 10,0(27)
 1246 06e0 81230010 		lwz 9,16(3)
 1247 06e4 7C7E1B78 		mr 30,3
 1248              	.LVL156:
 1249              	.LBE4075:
 1250              	.LBE4074:
 1251              		.loc 1 1289 0
 1252 06e8 7F895040 		cmplw 7,9,10
 1253 06ec 409CFF9C 		bge+ 7,.L85
 1254              	.LVL157:
 1255              	.L96:
 1256              	.LBB4076:
 1257              	.LBB4070:
 1258              		.loc 1 969 0
 1259 06f0 7F9CE800 		cmpw 7,28,29
 1260 06f4 3B400001 		li 26,1
 1261 06f8 419E0014 		beq- 7,.L86
 1262              	.LVL158:
 1263              		.loc 1 1264 0
 1264 06fc 835D0010 		lwz 26,16(29)
 1265 0700 7F5A5010 		subfc 26,26,10
 1266 0704 7F5AD110 		subfe 26,26,26
 1267 0708 7F5A00D0 		neg 26,26
 1268              	.LVL159:
 1269              	.L86:
 1270              	.LBB4056:
 1271              	.LBB4057:
 1272              	.LBB4058:
 1273              	.LBB4059:
 1274              	.LBB4060:
 1275              		.loc 3 92 0
 1276 070c 38600018 		li 3,24
 1277 0710 48000001 		bl _Znwj
 1278              	.LBE4060:
 1279              	.LBE4059:
 1280              	.LBE4058:
 1281              	.LBB4063:
 1282              	.LBB4064:
 1283              		.loc 3 108 0
 1284 0714 2F83FFF0 		cmpwi 7,3,-16
 1285              	.LBE4064:
 1286              	.LBE4063:
 1287              	.LBB4066:
 1288              	.LBB4062:
 1289              	.LBB4061:
 1290              		.loc 3 92 0
 1291 0718 7C7E1B78 		mr 30,3
 1292              	.LVL160:
 1293              	.LBE4061:
 1294              	.LBE4062:
 1295              	.LBE4066:
 1296              	.LBB4067:
 1297              	.LBB4065:
 1298              		.loc 3 108 0
 1299 071c 419E0014 		beq- 7,.L88
 1300 0720 815B0000 		lwz 10,0(27)
 1301 0724 817B0004 		lwz 11,4(27)
 1302 0728 91430010 		stw 10,16(3)
 1303 072c 91630014 		stw 11,20(3)
 1304              	.L88:
 1305              	.LVL161:
 1306              	.LBE4065:
 1307              	.LBE4067:
 1308              	.LBE4057:
 1309              	.LBE4056:
 1310              		.loc 1 973 0
 1311 0730 7F43D378 		mr 3,26
 1312              	.LVL162:
 1313 0734 7FC4F378 		mr 4,30
 1314 0738 7FA5EB78 		mr 5,29
 1315 073c 7F86E378 		mr 6,28
 1316 0740 48000001 		bl _ZSt29_Rb_tree_insert_and_rebalancebPSt18_Rb_tree_node_baseS0_RS_
 1317              		.loc 1 976 0
 1318 0744 813F0014 		lwz 9,20(31)
 1319              		.loc 1 1291 0
 1320 0748 38800000 		li 4,0
 1321 074c 7FC3F378 		mr 3,30
 1322              		.loc 1 976 0
 1323 0750 38090001 		addi 0,9,1
 1324              	.LBE4070:
 1325              	.LBE4076:
 1326              	.LBE4094:
 1327              		.loc 1 1293 0
 1328 0754 83410008 		lwz 26,8(1)
 1329              	.LVL163:
 1330              	.LBB4095:
 1331              	.LBB4077:
 1332              	.LBB4071:
 1333              		.loc 1 976 0
 1334 0758 901F0014 		stw 0,20(31)
 1335              	.LVL164:
 1336              		.loc 1 1291 0
 1337 075c 38000001 		li 0,1
 1338 0760 5004C00E 		rlwimi 4,0,24,0,7
 1339              	.LBE4071:
 1340              	.LBE4077:
 1341              	.LBE4095:
 1342              		.loc 1 1293 0
 1343 0764 80010024 		lwz 0,36(1)
 1344 0768 8361000C 		lwz 27,12(1)
 1345              	.LVL165:
 1346 076c 7C0803A6 		mtlr 0
 1347 0770 83810010 		lwz 28,16(1)
 1348 0774 83A10014 		lwz 29,20(1)
 1349              	.LVL166:
 1350 0778 83C10018 		lwz 30,24(1)
 1351              	.LVL167:
 1352 077c 83E1001C 		lwz 31,28(1)
 1353              	.LVL168:
 1354 0780 38210020 		addi 1,1,32
 1355              		.cfi_remember_state
 1356              		.cfi_restore 26
 1357              		.cfi_restore 27
 1358              		.cfi_restore 28
 1359              		.cfi_restore 29
 1360              		.cfi_restore 30
 1361              		.cfi_restore 31
 1362              	.LCFI18:
 1363              		.cfi_def_cfa_offset 0
 1364 0784 4E800020 		blr
 1365              	.LVL169:
 1366              	.L97:
 1367              	.LCFI19:
 1368              		.cfi_restore_state
 1369              	.LBB4096:
 1370              	.LBB4078:
 1371              	.LBB4079:
 1372              		.loc 1 969 0
 1373 0788 7F9CF000 		cmpw 7,28,30
 1374 078c 3B400001 		li 26,1
 1375 0790 419E0018 		beq- 7,.L81
 1376              	.LVL170:
 1377              		.loc 1 1264 0
 1378 0794 835B0000 		lwz 26,0(27)
 1379 0798 801E0010 		lwz 0,16(30)
 1380              	.LVL171:
 1381 079c 7F40D010 		subfc 26,0,26
 1382 07a0 7F5AD110 		subfe 26,26,26
 1383 07a4 7F5A00D0 		neg 26,26
 1384              	.LVL172:
 1385              	.L81:
 1386              	.LBB4080:
 1387              	.LBB4081:
 1388              	.LBB4082:
 1389              	.LBB4083:
 1390              	.LBB4084:
 1391              		.loc 3 92 0
 1392 07a8 38600018 		li 3,24
 1393              	.LVL173:
 1394 07ac 48000001 		bl _Znwj
 1395              	.LVL174:
 1396              	.LBE4084:
 1397              	.LBE4083:
 1398              	.LBE4082:
 1399              	.LBB4087:
 1400              	.LBB4088:
 1401              		.loc 3 108 0
 1402 07b0 2F83FFF0 		cmpwi 7,3,-16
 1403              	.LBE4088:
 1404              	.LBE4087:
 1405              	.LBB4090:
 1406              	.LBB4086:
 1407              	.LBB4085:
 1408              		.loc 3 92 0
 1409 07b4 7C7D1B78 		mr 29,3
 1410              	.LVL175:
 1411              	.LBE4085:
 1412              	.LBE4086:
 1413              	.LBE4090:
 1414              	.LBB4091:
 1415              	.LBB4089:
 1416              		.loc 3 108 0
 1417 07b8 419E0014 		beq- 7,.L83
 1418 07bc 815B0000 		lwz 10,0(27)
 1419 07c0 817B0004 		lwz 11,4(27)
 1420 07c4 91430010 		stw 10,16(3)
 1421 07c8 91630014 		stw 11,20(3)
 1422              	.L83:
 1423              	.LVL176:
 1424              	.LBE4089:
 1425              	.LBE4091:
 1426              	.LBE4081:
 1427              	.LBE4080:
 1428              		.loc 1 973 0
 1429 07cc 7F43D378 		mr 3,26
 1430              	.LVL177:
 1431 07d0 7FA4EB78 		mr 4,29
 1432 07d4 7FC5F378 		mr 5,30
 1433 07d8 7F86E378 		mr 6,28
 1434 07dc 48000001 		bl _ZSt29_Rb_tree_insert_and_rebalancebPSt18_Rb_tree_node_baseS0_RS_
 1435              		.loc 1 976 0
 1436 07e0 813F0014 		lwz 9,20(31)
 1437              		.loc 1 1285 0
 1438 07e4 38800000 		li 4,0
 1439 07e8 7FA3EB78 		mr 3,29
 1440              		.loc 1 976 0
 1441 07ec 38090001 		addi 0,9,1
 1442 07f0 901F0014 		stw 0,20(31)
 1443              	.LVL178:
 1444              		.loc 1 1285 0
 1445 07f4 38000001 		li 0,1
 1446 07f8 5004C00E 		rlwimi 4,0,24,0,7
 1447 07fc 4BFFFE9C 		b .L84
 1448              	.LBE4079:
 1449              	.LBE4078:
 1450              	.LBE4096:
 1451              		.cfi_endproc
 1452              	.LFE2534:
 1453              		.size	_ZNSt8_Rb_treeIPKhSt4pairIKS1_P8GuiSoundESt10_Select1stIS6_ESt4lessIS1_ESaIS6_EE16_M_insert_
 1454              		.align 2
 1455              		.type	_ZNSt8_Rb_treeIP12GuiImageDataSt4pairIKS1_iESt10_Select1stIS4_ESt4lessIS1_ESaIS4_EE17_M_inse
 1456              	_ZNSt8_Rb_treeIP12GuiImageDataSt4pairIKS1_iESt10_Select1stIS4_ESt4lessIS1_ESaIS4_EE17_M_insert_uniq
 1457              	.LFB2545:
 1458              		.loc 1 1325 0
 1459              		.cfi_startproc
 1460              	.LVL179:
 1461 0800 7C0802A6 		mflr 0
 1462 0804 9421FFD8 		stwu 1,-40(1)
 1463              	.LCFI20:
 1464              		.cfi_def_cfa_offset 40
 1465              		.cfi_register 65, 0
 1466 0808 9321000C 		stw 25,12(1)
 1467 080c 9001002C 		stw 0,44(1)
 1468 0810 93A1001C 		stw 29,28(1)
 1469              	.LBB4205:
 1470              	.LBB4206:
 1471              	.LBB4207:
 1472              	.LBB4208:
 1473              	.LBB4209:
 1474              		.loc 1 1333 0
 1475 0814 3BA30004 		addi 29,3,4
 1476              		.cfi_offset 29, -12
 1477              		.cfi_offset 65, 4
 1478              		.cfi_offset 25, -28
 1479              	.LBE4209:
 1480              	.LBE4208:
 1481              	.LBE4207:
 1482              	.LBE4206:
 1483              	.LBE4205:
 1484              		.loc 1 1325 0
 1485 0818 83240000 		lwz 25,0(4)
 1486              	.LVL180:
 1487 081c 93010008 		stw 24,8(1)
 1488 0820 7CB82B78 		mr 24,5
 1489              		.cfi_offset 24, -32
 1490              	.LBB4349:
 1491              		.loc 1 1333 0
 1492 0824 7F99E800 		cmpw 7,25,29
 1493              	.LBE4349:
 1494              		.loc 1 1325 0
 1495 0828 93E10024 		stw 31,36(1)
 1496 082c 93410010 		stw 26,16(1)
 1497 0830 7C7F1B78 		mr 31,3
 1498              		.cfi_offset 26, -24
 1499              		.cfi_offset 31, -4
 1500 0834 93610014 		stw 27,20(1)
 1501 0838 93810018 		stw 28,24(1)
 1502 083c 93C10020 		stw 30,32(1)
 1503              	.LBB4350:
 1504              		.loc 1 1333 0
 1505 0840 419E0124 		beq- 7,.L130
 1506              		.cfi_offset 30, -8
 1507              		.cfi_offset 28, -16
 1508              		.cfi_offset 27, -20
 1509              	.LVL181:
 1510              	.LBB4327:
 1511              	.LBB4328:
 1512              		.loc 2 266 0
 1513 0844 83C50000 		lwz 30,0(5)
 1514 0848 80190010 		lwz 0,16(25)
 1515              	.LBE4328:
 1516              	.LBE4327:
 1517              	.LBB4344:
 1518              		.loc 1 1342 0
 1519 084c 7F9E0040 		cmplw 7,30,0
 1520 0850 409C00AC 		bge- 7,.L105
 1521              	.LVL182:
 1522              	.LBB4263:
 1523              		.loc 1 1347 0
 1524 0854 8003000C 		lwz 0,12(3)
 1525 0858 7F990000 		cmpw 7,25,0
 1526 085c 419E0264 		beq- 7,.L131
 1527              	.LBB4231:
 1528              	.LBB4232:
 1529              		.loc 1 284 0
 1530 0860 7F23CB78 		mr 3,25
 1531              	.LVL183:
 1532 0864 48000001 		bl _ZSt18_Rb_tree_decrementPKSt18_Rb_tree_node_base
 1533              	.LVL184:
 1534              		.loc 2 266 0
 1535 0868 80030010 		lwz 0,16(3)
 1536              		.loc 1 284 0
 1537 086c 7C7C1B78 		mr 28,3
 1538              	.LVL185:
 1539              	.LBE4232:
 1540              	.LBE4231:
 1541              		.loc 1 1350 0
 1542 0870 7F9E0040 		cmplw 7,30,0
 1543 0874 409D0110 		ble- 7,.L100
 1544              		.loc 1 1353 0
 1545 0878 8003000C 		lwz 0,12(3)
 1546              	.LBB4233:
 1547              	.LBB4229:
 1548              	.LBB4210:
 1549              	.LBB4211:
 1550              	.LBB4212:
 1551              	.LBB4213:
 1552              	.LBB4214:
 1553              		.loc 3 92 0
 1554 087c 38600018 		li 3,24
 1555              	.LVL186:
 1556              	.LBE4214:
 1557              	.LBE4213:
 1558              	.LBE4212:
 1559              	.LBE4211:
 1560              	.LBE4210:
 1561              	.LBE4229:
 1562              	.LBE4233:
 1563              		.loc 1 1353 0
 1564 0880 2F800000 		cmpwi 7,0,0
 1565 0884 419E01C4 		beq- 7,.L132
 1566              	.LVL187:
 1567              	.LBB4234:
 1568              	.LBB4235:
 1569              	.LBB4236:
 1570              	.LBB4237:
 1571              	.LBB4238:
 1572              	.LBB4239:
 1573              	.LBB4240:
 1574              		.loc 3 92 0
 1575 0888 48000001 		bl _Znwj
 1576              	.LBE4240:
 1577              	.LBE4239:
 1578              	.LBE4238:
 1579              	.LBB4243:
 1580              	.LBB4244:
 1581              		.loc 3 108 0
 1582 088c 2F83FFF0 		cmpwi 7,3,-16
 1583              	.LBE4244:
 1584              	.LBE4243:
 1585              	.LBB4246:
 1586              	.LBB4242:
 1587              	.LBB4241:
 1588              		.loc 3 92 0
 1589 0890 7C7E1B78 		mr 30,3
 1590              	.LVL188:
 1591              	.LBE4241:
 1592              	.LBE4242:
 1593              	.LBE4246:
 1594              	.LBB4247:
 1595              	.LBB4245:
 1596              		.loc 3 108 0
 1597 0894 419E0014 		beq- 7,.L115
 1598 0898 81580000 		lwz 10,0(24)
 1599 089c 81780004 		lwz 11,4(24)
 1600 08a0 91430010 		stw 10,16(3)
 1601 08a4 91630014 		stw 11,20(3)
 1602              	.L115:
 1603              	.LVL189:
 1604              	.LBE4245:
 1605              	.LBE4247:
 1606              	.LBE4237:
 1607              	.LBE4236:
 1608              		.loc 1 973 0
 1609 08a8 38600001 		li 3,1
 1610              	.LVL190:
 1611 08ac 7FC4F378 		mr 4,30
 1612 08b0 7F25CB78 		mr 5,25
 1613              	.LVL191:
 1614              	.L128:
 1615 08b4 7FA6EB78 		mr 6,29
 1616 08b8 48000001 		bl _ZSt29_Rb_tree_insert_and_rebalancebPSt18_Rb_tree_node_baseS0_RS_
 1617              	.LVL192:
 1618              		.loc 1 976 0
 1619 08bc 813F0014 		lwz 9,20(31)
 1620 08c0 7FC3F378 		mr 3,30
 1621 08c4 38090001 		addi 0,9,1
 1622 08c8 901F0014 		stw 0,20(31)
 1623              	.LVL193:
 1624              	.L104:
 1625              	.LBE4235:
 1626              	.LBE4234:
 1627              	.LBE4263:
 1628              	.LBE4344:
 1629              	.LBE4350:
 1630              		.loc 1 1388 0
 1631 08cc 8001002C 		lwz 0,44(1)
 1632 08d0 83010008 		lwz 24,8(1)
 1633              	.LVL194:
 1634 08d4 7C0803A6 		mtlr 0
 1635 08d8 8321000C 		lwz 25,12(1)
 1636              	.LVL195:
 1637 08dc 83410010 		lwz 26,16(1)
 1638 08e0 83610014 		lwz 27,20(1)
 1639 08e4 83810018 		lwz 28,24(1)
 1640 08e8 83A1001C 		lwz 29,28(1)
 1641 08ec 83C10020 		lwz 30,32(1)
 1642 08f0 83E10024 		lwz 31,36(1)
 1643              	.LVL196:
 1644 08f4 38210028 		addi 1,1,40
 1645              		.cfi_remember_state
 1646              	.LCFI21:
 1647              		.cfi_def_cfa_offset 0
 1648              		.cfi_restore 31
 1649              		.cfi_restore 30
 1650              		.cfi_restore 29
 1651              		.cfi_restore 28
 1652              		.cfi_restore 27
 1653              		.cfi_restore 26
 1654              		.cfi_restore 25
 1655              		.cfi_restore 24
 1656 08f8 4E800020 		blr
 1657              	.LVL197:
 1658              	.L105:
 1659              	.LCFI22:
 1660              		.cfi_restore_state
 1661              	.LBB4351:
 1662              	.LBB4345:
 1663              	.LBB4264:
 1664              		.loc 1 1364 0
 1665 08fc 409D00C4 		ble- 7,.L116
 1666              	.LVL198:
 1667              	.LBB4265:
 1668              		.loc 1 1369 0
 1669 0900 80030010 		lwz 0,16(3)
 1670 0904 7F990000 		cmpw 7,25,0
 1671 0908 419E0204 		beq- 7,.L133
 1672              	.LVL199:
 1673              	.LBB4266:
 1674              	.LBB4267:
 1675              		.loc 1 269 0
 1676 090c 7F23CB78 		mr 3,25
 1677              	.LVL200:
 1678 0910 48000001 		bl _ZSt18_Rb_tree_incrementPKSt18_Rb_tree_node_base
 1679              	.LVL201:
 1680              	.LBE4267:
 1681              	.LBE4266:
 1682              		.loc 1 1372 0
 1683 0914 80030010 		lwz 0,16(3)
 1684              	.LBB4269:
 1685              	.LBB4268:
 1686              		.loc 1 269 0
 1687 0918 7C7C1B78 		mr 28,3
 1688              	.LVL202:
 1689              	.LBE4268:
 1690              	.LBE4269:
 1691              		.loc 1 1372 0
 1692 091c 7F9E0040 		cmplw 7,30,0
 1693 0920 409C0064 		bge- 7,.L100
 1694              		.loc 1 1375 0
 1695 0924 8019000C 		lwz 0,12(25)
 1696              	.LBB4270:
 1697              	.LBB4271:
 1698              	.LBB4272:
 1699              	.LBB4273:
 1700              	.LBB4274:
 1701              	.LBB4275:
 1702              	.LBB4276:
 1703              		.loc 3 92 0
 1704 0928 38600018 		li 3,24
 1705              	.LVL203:
 1706              	.LBE4276:
 1707              	.LBE4275:
 1708              	.LBE4274:
 1709              	.LBE4273:
 1710              	.LBE4272:
 1711              	.LBE4271:
 1712              	.LBE4270:
 1713              		.loc 1 1375 0
 1714 092c 2F800000 		cmpwi 7,0,0
 1715 0930 419E0148 		beq- 7,.L134
 1716              	.LVL204:
 1717              	.LBB4290:
 1718              	.LBB4291:
 1719              	.LBB4292:
 1720              	.LBB4293:
 1721              	.LBB4294:
 1722              	.LBB4295:
 1723              	.LBB4296:
 1724              		.loc 3 92 0
 1725 0934 48000001 		bl _Znwj
 1726              	.LBE4296:
 1727              	.LBE4295:
 1728              	.LBE4294:
 1729              	.LBB4299:
 1730              	.LBB4300:
 1731              		.loc 3 108 0
 1732 0938 2F83FFF0 		cmpwi 7,3,-16
 1733              	.LBE4300:
 1734              	.LBE4299:
 1735              	.LBB4302:
 1736              	.LBB4298:
 1737              	.LBB4297:
 1738              		.loc 3 92 0
 1739 093c 7C7E1B78 		mr 30,3
 1740              	.LVL205:
 1741              	.LBE4297:
 1742              	.LBE4298:
 1743              	.LBE4302:
 1744              	.LBB4303:
 1745              	.LBB4301:
 1746              		.loc 3 108 0
 1747 0940 419E0014 		beq- 7,.L125
 1748 0944 81580000 		lwz 10,0(24)
 1749 0948 81780004 		lwz 11,4(24)
 1750 094c 91430010 		stw 10,16(3)
 1751 0950 91630014 		stw 11,20(3)
 1752              	.L125:
 1753              	.LVL206:
 1754              	.LBE4301:
 1755              	.LBE4303:
 1756              	.LBE4293:
 1757              	.LBE4292:
 1758              		.loc 1 973 0
 1759 0954 38600001 		li 3,1
 1760              	.LVL207:
 1761              	.L129:
 1762 0958 7FC4F378 		mr 4,30
 1763 095c 7F85E378 		mr 5,28
 1764 0960 4BFFFF54 		b .L128
 1765              	.LVL208:
 1766              	.L130:
 1767              	.LBE4291:
 1768              	.LBE4290:
 1769              	.LBE4265:
 1770              	.LBE4264:
 1771              	.LBE4345:
 1772              		.loc 1 1335 0
 1773 0964 80030014 		lwz 0,20(3)
 1774 0968 2F800000 		cmpwi 7,0,0
 1775 096c 419E0018 		beq- 7,.L100
 1776              	.LVL209:
 1777 0970 83C30010 		lwz 30,16(3)
 1778              	.LVL210:
 1779              		.loc 2 266 0
 1780 0974 80050000 		lwz 0,0(5)
 1781 0978 813E0010 		lwz 9,16(30)
 1782              		.loc 1 1335 0
 1783 097c 7F890040 		cmplw 7,9,0
 1784 0980 419C0074 		blt- 7,.L135
 1785              	.LVL211:
 1786              	.L100:
 1787              		.loc 1 1340 0
 1788 0984 7FE3FB78 		mr 3,31
 1789 0988 7F04C378 		mr 4,24
 1790 098c 4BFFFA75 		bl _ZNSt8_Rb_treeIP12GuiImageDataSt4pairIKS1_iESt10_Select1stIS4_ESt4lessIS1_ESaIS4_EE16_M_insert_
 1791              	.LBE4351:
 1792              		.loc 1 1388 0
 1793 0990 8001002C 		lwz 0,44(1)
 1794 0994 83010008 		lwz 24,8(1)
 1795              	.LVL212:
 1796 0998 7C0803A6 		mtlr 0
 1797 099c 8321000C 		lwz 25,12(1)
 1798              	.LVL213:
 1799 09a0 83410010 		lwz 26,16(1)
 1800 09a4 83610014 		lwz 27,20(1)
 1801 09a8 83810018 		lwz 28,24(1)
 1802 09ac 83A1001C 		lwz 29,28(1)
 1803 09b0 83C10020 		lwz 30,32(1)
 1804 09b4 83E10024 		lwz 31,36(1)
 1805              	.LVL214:
 1806 09b8 38210028 		addi 1,1,40
 1807              		.cfi_remember_state
 1808              		.cfi_restore 24
 1809              		.cfi_restore 25
 1810              		.cfi_restore 26
 1811              		.cfi_restore 27
 1812              		.cfi_restore 28
 1813              		.cfi_restore 29
 1814              		.cfi_restore 30
 1815              		.cfi_restore 31
 1816              	.LCFI23:
 1817              		.cfi_def_cfa_offset 0
 1818 09bc 4E800020 		blr
 1819              	.LVL215:
 1820              	.L116:
 1821              	.LCFI24:
 1822              		.cfi_restore_state
 1823 09c0 8001002C 		lwz 0,44(1)
 1824              	.LBB4352:
 1825              	.LBB4346:
 1826              	.LBB4322:
 1827              	.LBB4319:
 1828              		.loc 1 1383 0
 1829 09c4 7F23CB78 		mr 3,25
 1830              	.LVL216:
 1831              	.LBE4319:
 1832              	.LBE4322:
 1833              	.LBE4346:
 1834              	.LBE4352:
 1835              		.loc 1 1388 0
 1836 09c8 83010008 		lwz 24,8(1)
 1837 09cc 7C0803A6 		mtlr 0
 1838 09d0 8321000C 		lwz 25,12(1)
 1839              	.LVL217:
 1840 09d4 83410010 		lwz 26,16(1)
 1841 09d8 83610014 		lwz 27,20(1)
 1842 09dc 83810018 		lwz 28,24(1)
 1843 09e0 83A1001C 		lwz 29,28(1)
 1844 09e4 83C10020 		lwz 30,32(1)
 1845 09e8 83E10024 		lwz 31,36(1)
 1846              	.LVL218:
 1847 09ec 38210028 		addi 1,1,40
 1848              		.cfi_remember_state
 1849              		.cfi_restore 24
 1850              		.cfi_restore 25
 1851              		.cfi_restore 26
 1852              		.cfi_restore 27
 1853              		.cfi_restore 28
 1854              		.cfi_restore 29
 1855              		.cfi_restore 30
 1856              		.cfi_restore 31
 1857              	.LCFI25:
 1858              		.cfi_def_cfa_offset 0
 1859 09f0 4E800020 		blr
 1860              	.LVL219:
 1861              	.L135:
 1862              	.LCFI26:
 1863              		.cfi_restore_state
 1864              	.LBB4353:
 1865              	.LBB4347:
 1866              	.LBB4343:
 1867              	.LBB4329:
 1868              	.LBB4330:
 1869              	.LBB4331:
 1870              	.LBB4332:
 1871              	.LBB4333:
 1872              		.loc 3 92 0
 1873 09f4 38600018 		li 3,24
 1874              	.LVL220:
 1875 09f8 48000001 		bl _Znwj
 1876              	.LVL221:
 1877              	.LBE4333:
 1878              	.LBE4332:
 1879              	.LBE4331:
 1880              	.LBB4336:
 1881              	.LBB4337:
 1882              		.loc 3 108 0
 1883 09fc 2F83FFF0 		cmpwi 7,3,-16
 1884              	.LBE4337:
 1885              	.LBE4336:
 1886              	.LBB4339:
 1887              	.LBB4335:
 1888              	.LBB4334:
 1889              		.loc 3 92 0
 1890 0a00 7C7D1B78 		mr 29,3
 1891              	.LBE4334:
 1892              	.LBE4335:
 1893              	.LBE4339:
 1894              	.LBE4330:
 1895              	.LBE4329:
 1896              		.loc 1 1325 0
 1897 0a04 7FC3CA78 		xor 3,30,25
 1898 0a08 7C630034 		cntlzw 3,3
 1899 0a0c 5463D97E 		srwi 3,3,5
 1900              	.LVL222:
 1901              	.LBB4342:
 1902              	.LBB4341:
 1903              	.LBB4340:
 1904              	.LBB4338:
 1905              		.loc 3 108 0
 1906 0a10 419E0014 		beq- 7,.L103
 1907 0a14 81580000 		lwz 10,0(24)
 1908 0a18 81780004 		lwz 11,4(24)
 1909 0a1c 915D0010 		stw 10,16(29)
 1910 0a20 917D0014 		stw 11,20(29)
 1911              	.L103:
 1912              	.LVL223:
 1913              	.LBE4338:
 1914              	.LBE4340:
 1915              	.LBE4341:
 1916              	.LBE4342:
 1917              		.loc 1 973 0
 1918 0a24 7FA4EB78 		mr 4,29
 1919 0a28 7FC5F378 		mr 5,30
 1920 0a2c 7F26CB78 		mr 6,25
 1921 0a30 48000001 		bl _ZSt29_Rb_tree_insert_and_rebalancebPSt18_Rb_tree_node_baseS0_RS_
 1922              	.LVL224:
 1923              		.loc 1 976 0
 1924 0a34 813F0014 		lwz 9,20(31)
 1925 0a38 7FA3EB78 		mr 3,29
 1926 0a3c 38090001 		addi 0,9,1
 1927 0a40 901F0014 		stw 0,20(31)
 1928              	.LVL225:
 1929 0a44 4BFFFE88 		b .L104
 1930              	.LVL226:
 1931              	.L132:
 1932              	.LBE4343:
 1933              	.LBE4347:
 1934              	.LBB4348:
 1935              	.LBB4323:
 1936              	.LBB4248:
 1937              	.LBB4230:
 1938              	.LBB4227:
 1939              	.LBB4225:
 1940              	.LBB4219:
 1941              	.LBB4217:
 1942              	.LBB4215:
 1943              		.loc 3 92 0
 1944 0a48 48000001 		bl _Znwj
 1945              	.LBE4215:
 1946              	.LBE4217:
 1947              	.LBE4219:
 1948              	.LBB4220:
 1949              	.LBB4221:
 1950              		.loc 3 108 0
 1951 0a4c 2F83FFF0 		cmpwi 7,3,-16
 1952              	.LBE4221:
 1953              	.LBE4220:
 1954              	.LBB4223:
 1955              	.LBB4218:
 1956              	.LBB4216:
 1957              		.loc 3 92 0
 1958 0a50 7C7E1B78 		mr 30,3
 1959              	.LBE4216:
 1960              	.LBE4218:
 1961              	.LBE4223:
 1962              	.LBE4225:
 1963              	.LBE4227:
 1964              		.loc 1 1325 0
 1965 0a54 7FA3E278 		xor 3,29,28
 1966 0a58 7C630034 		cntlzw 3,3
 1967 0a5c 5463D97E 		srwi 3,3,5
 1968              	.LVL227:
 1969              	.LBB4228:
 1970              	.LBB4226:
 1971              	.LBB4224:
 1972              	.LBB4222:
 1973              		.loc 3 108 0
 1974 0a60 41BEFEF8 		beq- 7,.L129
 1975 0a64 81580000 		lwz 10,0(24)
 1976 0a68 81780004 		lwz 11,4(24)
 1977 0a6c 915E0010 		stw 10,16(30)
 1978 0a70 917E0014 		stw 11,20(30)
 1979              	.LVL228:
 1980 0a74 4BFFFEE4 		b .L129
 1981              	.LVL229:
 1982              	.L134:
 1983              	.LBE4222:
 1984              	.LBE4224:
 1985              	.LBE4226:
 1986              	.LBE4228:
 1987              	.LBE4230:
 1988              	.LBE4248:
 1989              	.LBE4323:
 1990              	.LBB4324:
 1991              	.LBB4320:
 1992              	.LBB4304:
 1993              	.LBB4289:
 1994              	.LBB4288:
 1995              	.LBB4287:
 1996              	.LBB4281:
 1997              	.LBB4279:
 1998              	.LBB4277:
 1999              		.loc 3 92 0
 2000 0a78 48000001 		bl _Znwj
 2001              	.LBE4277:
 2002              	.LBE4279:
 2003              	.LBE4281:
 2004              	.LBB4282:
 2005              	.LBB4283:
 2006              		.loc 3 108 0
 2007 0a7c 2F83FFF0 		cmpwi 7,3,-16
 2008              	.LBE4283:
 2009              	.LBE4282:
 2010              	.LBB4285:
 2011              	.LBB4280:
 2012              	.LBB4278:
 2013              		.loc 3 92 0
 2014 0a80 7C7C1B78 		mr 28,3
 2015              	.LVL230:
 2016              	.LBE4278:
 2017              	.LBE4280:
 2018              	.LBE4285:
 2019              	.LBB4286:
 2020              	.LBB4284:
 2021              		.loc 3 108 0
 2022 0a84 419E0014 		beq- 7,.L123
 2023 0a88 81580000 		lwz 10,0(24)
 2024 0a8c 81780004 		lwz 11,4(24)
 2025 0a90 91430010 		stw 10,16(3)
 2026 0a94 91630014 		stw 11,20(3)
 2027              	.L123:
 2028              	.LVL231:
 2029              	.LBE4284:
 2030              	.LBE4286:
 2031              	.LBE4287:
 2032              	.LBE4288:
 2033              		.loc 1 973 0
 2034 0a98 38600000 		li 3,0
 2035              	.LVL232:
 2036 0a9c 7F84E378 		mr 4,28
 2037 0aa0 7F25CB78 		mr 5,25
 2038 0aa4 7FA6EB78 		mr 6,29
 2039 0aa8 48000001 		bl _ZSt29_Rb_tree_insert_and_rebalancebPSt18_Rb_tree_node_baseS0_RS_
 2040              		.loc 1 976 0
 2041 0aac 813F0014 		lwz 9,20(31)
 2042 0ab0 7F83E378 		mr 3,28
 2043 0ab4 38090001 		addi 0,9,1
 2044 0ab8 901F0014 		stw 0,20(31)
 2045              	.LVL233:
 2046 0abc 4BFFFE10 		b .L104
 2047              	.LVL234:
 2048              	.L131:
 2049              	.LBE4289:
 2050              	.LBE4304:
 2051              	.LBE4320:
 2052              	.LBE4324:
 2053              	.LBB4325:
 2054              	.LBB4249:
 2055              	.LBB4250:
 2056              	.LBB4251:
 2057              	.LBB4252:
 2058              	.LBB4253:
 2059              	.LBB4254:
 2060              	.LBB4255:
 2061              		.loc 3 92 0
 2062 0ac0 38600018 		li 3,24
 2063 0ac4 48000001 		bl _Znwj
 2064              	.LBE4255:
 2065              	.LBE4254:
 2066              	.LBE4253:
 2067              	.LBB4258:
 2068              	.LBB4259:
 2069              		.loc 3 108 0
 2070 0ac8 2F83FFF0 		cmpwi 7,3,-16
 2071              	.LBE4259:
 2072              	.LBE4258:
 2073              	.LBB4261:
 2074              	.LBB4257:
 2075              	.LBB4256:
 2076              		.loc 3 92 0
 2077 0acc 7C7B1B78 		mr 27,3
 2078              	.LVL235:
 2079              	.LBE4256:
 2080              	.LBE4257:
 2081              	.LBE4261:
 2082              	.LBB4262:
 2083              	.LBB4260:
 2084              		.loc 3 108 0
 2085 0ad0 419E0014 		beq- 7,.L108
 2086 0ad4 81580000 		lwz 10,0(24)
 2087 0ad8 81780004 		lwz 11,4(24)
 2088 0adc 91430010 		stw 10,16(3)
 2089 0ae0 91630014 		stw 11,20(3)
 2090              	.L108:
 2091              	.LVL236:
 2092              	.LBE4260:
 2093              	.LBE4262:
 2094              	.LBE4252:
 2095              	.LBE4251:
 2096              		.loc 1 973 0
 2097 0ae4 38600001 		li 3,1
 2098              	.LVL237:
 2099 0ae8 7F64DB78 		mr 4,27
 2100 0aec 7F25CB78 		mr 5,25
 2101 0af0 7FA6EB78 		mr 6,29
 2102 0af4 48000001 		bl _ZSt29_Rb_tree_insert_and_rebalancebPSt18_Rb_tree_node_baseS0_RS_
 2103              		.loc 1 976 0
 2104 0af8 813F0014 		lwz 9,20(31)
 2105 0afc 7F63DB78 		mr 3,27
 2106 0b00 38090001 		addi 0,9,1
 2107 0b04 901F0014 		stw 0,20(31)
 2108              	.LVL238:
 2109 0b08 4BFFFDC4 		b .L104
 2110              	.LVL239:
 2111              	.L133:
 2112              	.LBE4250:
 2113              	.LBE4249:
 2114              	.LBE4325:
 2115              	.LBB4326:
 2116              	.LBB4321:
 2117              	.LBB4305:
 2118              	.LBB4306:
 2119              	.LBB4307:
 2120              	.LBB4308:
 2121              	.LBB4309:
 2122              	.LBB4310:
 2123              	.LBB4311:
 2124              		.loc 3 92 0
 2125 0b0c 38600018 		li 3,24
 2126 0b10 48000001 		bl _Znwj
 2127              	.LBE4311:
 2128              	.LBE4310:
 2129              	.LBE4309:
 2130              	.LBB4314:
 2131              	.LBB4315:
 2132              		.loc 3 108 0
 2133 0b14 2F83FFF0 		cmpwi 7,3,-16
 2134              	.LBE4315:
 2135              	.LBE4314:
 2136              	.LBB4317:
 2137              	.LBB4313:
 2138              	.LBB4312:
 2139              		.loc 3 92 0
 2140 0b18 7C7A1B78 		mr 26,3
 2141              	.LVL240:
 2142              	.LBE4312:
 2143              	.LBE4313:
 2144              	.LBE4317:
 2145              	.LBB4318:
 2146              	.LBB4316:
 2147              		.loc 3 108 0
 2148 0b1c 419E0014 		beq- 7,.L119
 2149 0b20 81580000 		lwz 10,0(24)
 2150 0b24 81780004 		lwz 11,4(24)
 2151 0b28 91430010 		stw 10,16(3)
 2152 0b2c 91630014 		stw 11,20(3)
 2153              	.L119:
 2154              	.LVL241:
 2155              	.LBE4316:
 2156              	.LBE4318:
 2157              	.LBE4308:
 2158              	.LBE4307:
 2159              		.loc 1 973 0
 2160 0b30 38600000 		li 3,0
 2161              	.LVL242:
 2162 0b34 7F44D378 		mr 4,26
 2163 0b38 7F25CB78 		mr 5,25
 2164 0b3c 7FA6EB78 		mr 6,29
 2165 0b40 48000001 		bl _ZSt29_Rb_tree_insert_and_rebalancebPSt18_Rb_tree_node_baseS0_RS_
 2166              		.loc 1 976 0
 2167 0b44 813F0014 		lwz 9,20(31)
 2168 0b48 7F43D378 		mr 3,26
 2169 0b4c 38090001 		addi 0,9,1
 2170 0b50 901F0014 		stw 0,20(31)
 2171              	.LVL243:
 2172 0b54 4BFFFD78 		b .L104
 2173              	.LBE4306:
 2174              	.LBE4305:
 2175              	.LBE4321:
 2176              	.LBE4326:
 2177              	.LBE4348:
 2178              	.LBE4353:
 2179              		.cfi_endproc
 2180              	.LFE2545:
 2181              		.size	_ZNSt8_Rb_treeIP12GuiImageDataSt4pairIKS1_iESt10_Select1stIS4_ESt4lessIS1_ESaIS4_EE17_M_inse
 2182              		.align 2
 2183              		.type	_ZNSt8_Rb_treeIP8GuiSoundSt4pairIKS1_iESt10_Select1stIS4_ESt4lessIS1_ESaIS4_EE17_M_insert_un
 2184              	_ZNSt8_Rb_treeIP8GuiSoundSt4pairIKS1_iESt10_Select1stIS4_ESt4lessIS1_ESaIS4_EE17_M_insert_unique_ES
 2185              	.LFB2542:
 2186              		.loc 1 1325 0
 2187              		.cfi_startproc
 2188              	.LVL244:
 2189 0b58 7C0802A6 		mflr 0
 2190 0b5c 9421FFD8 		stwu 1,-40(1)
 2191              	.LCFI27:
 2192              		.cfi_def_cfa_offset 40
 2193              		.cfi_register 65, 0
 2194 0b60 9321000C 		stw 25,12(1)
 2195 0b64 9001002C 		stw 0,44(1)
 2196 0b68 93A1001C 		stw 29,28(1)
 2197              	.LBB4462:
 2198              	.LBB4463:
 2199              	.LBB4464:
 2200              	.LBB4465:
 2201              	.LBB4466:
 2202              		.loc 1 1333 0
 2203 0b6c 3BA30004 		addi 29,3,4
 2204              		.cfi_offset 29, -12
 2205              		.cfi_offset 65, 4
 2206              		.cfi_offset 25, -28
 2207              	.LBE4466:
 2208              	.LBE4465:
 2209              	.LBE4464:
 2210              	.LBE4463:
 2211              	.LBE4462:
 2212              		.loc 1 1325 0
 2213 0b70 83240000 		lwz 25,0(4)
 2214              	.LVL245:
 2215 0b74 93010008 		stw 24,8(1)
 2216 0b78 7CB82B78 		mr 24,5
 2217              		.cfi_offset 24, -32
 2218              	.LBB4606:
 2219              		.loc 1 1333 0
 2220 0b7c 7F99E800 		cmpw 7,25,29
 2221              	.LBE4606:
 2222              		.loc 1 1325 0
 2223 0b80 93E10024 		stw 31,36(1)
 2224 0b84 93410010 		stw 26,16(1)
 2225 0b88 7C7F1B78 		mr 31,3
 2226              		.cfi_offset 26, -24
 2227              		.cfi_offset 31, -4
 2228 0b8c 93610014 		stw 27,20(1)
 2229 0b90 93810018 		stw 28,24(1)
 2230 0b94 93C10020 		stw 30,32(1)
 2231              	.LBB4607:
 2232              		.loc 1 1333 0
 2233 0b98 419E0124 		beq- 7,.L168
 2234              		.cfi_offset 30, -8
 2235              		.cfi_offset 28, -16
 2236              		.cfi_offset 27, -20
 2237              	.LVL246:
 2238              	.LBB4584:
 2239              	.LBB4585:
 2240              		.loc 2 266 0
 2241 0b9c 83C50000 		lwz 30,0(5)
 2242 0ba0 80190010 		lwz 0,16(25)
 2243              	.LBE4585:
 2244              	.LBE4584:
 2245              	.LBB4601:
 2246              		.loc 1 1342 0
 2247 0ba4 7F9E0040 		cmplw 7,30,0
 2248 0ba8 409C00AC 		bge- 7,.L143
 2249              	.LVL247:
 2250              	.LBB4520:
 2251              		.loc 1 1347 0
 2252 0bac 8003000C 		lwz 0,12(3)
 2253 0bb0 7F990000 		cmpw 7,25,0
 2254 0bb4 419E0264 		beq- 7,.L169
 2255              	.LBB4488:
 2256              	.LBB4489:
 2257              		.loc 1 284 0
 2258 0bb8 7F23CB78 		mr 3,25
 2259              	.LVL248:
 2260 0bbc 48000001 		bl _ZSt18_Rb_tree_decrementPKSt18_Rb_tree_node_base
 2261              	.LVL249:
 2262              		.loc 2 266 0
 2263 0bc0 80030010 		lwz 0,16(3)
 2264              		.loc 1 284 0
 2265 0bc4 7C7C1B78 		mr 28,3
 2266              	.LVL250:
 2267              	.LBE4489:
 2268              	.LBE4488:
 2269              		.loc 1 1350 0
 2270 0bc8 7F9E0040 		cmplw 7,30,0
 2271 0bcc 409D0110 		ble- 7,.L138
 2272              		.loc 1 1353 0
 2273 0bd0 8003000C 		lwz 0,12(3)
 2274              	.LBB4490:
 2275              	.LBB4486:
 2276              	.LBB4467:
 2277              	.LBB4468:
 2278              	.LBB4469:
 2279              	.LBB4470:
 2280              	.LBB4471:
 2281              		.loc 3 92 0
 2282 0bd4 38600018 		li 3,24
 2283              	.LVL251:
 2284              	.LBE4471:
 2285              	.LBE4470:
 2286              	.LBE4469:
 2287              	.LBE4468:
 2288              	.LBE4467:
 2289              	.LBE4486:
 2290              	.LBE4490:
 2291              		.loc 1 1353 0
 2292 0bd8 2F800000 		cmpwi 7,0,0
 2293 0bdc 419E01C4 		beq- 7,.L170
 2294              	.LVL252:
 2295              	.LBB4491:
 2296              	.LBB4492:
 2297              	.LBB4493:
 2298              	.LBB4494:
 2299              	.LBB4495:
 2300              	.LBB4496:
 2301              	.LBB4497:
 2302              		.loc 3 92 0
 2303 0be0 48000001 		bl _Znwj
 2304              	.LBE4497:
 2305              	.LBE4496:
 2306              	.LBE4495:
 2307              	.LBB4500:
 2308              	.LBB4501:
 2309              		.loc 3 108 0
 2310 0be4 2F83FFF0 		cmpwi 7,3,-16
 2311              	.LBE4501:
 2312              	.LBE4500:
 2313              	.LBB4503:
 2314              	.LBB4499:
 2315              	.LBB4498:
 2316              		.loc 3 92 0
 2317 0be8 7C7E1B78 		mr 30,3
 2318              	.LVL253:
 2319              	.LBE4498:
 2320              	.LBE4499:
 2321              	.LBE4503:
 2322              	.LBB4504:
 2323              	.LBB4502:
 2324              		.loc 3 108 0
 2325 0bec 419E0014 		beq- 7,.L153
 2326 0bf0 81580000 		lwz 10,0(24)
 2327 0bf4 81780004 		lwz 11,4(24)
 2328 0bf8 91430010 		stw 10,16(3)
 2329 0bfc 91630014 		stw 11,20(3)
 2330              	.L153:
 2331              	.LVL254:
 2332              	.LBE4502:
 2333              	.LBE4504:
 2334              	.LBE4494:
 2335              	.LBE4493:
 2336              		.loc 1 973 0
 2337 0c00 38600001 		li 3,1
 2338              	.LVL255:
 2339 0c04 7FC4F378 		mr 4,30
 2340 0c08 7F25CB78 		mr 5,25
 2341              	.LVL256:
 2342              	.L166:
 2343 0c0c 7FA6EB78 		mr 6,29
 2344 0c10 48000001 		bl _ZSt29_Rb_tree_insert_and_rebalancebPSt18_Rb_tree_node_baseS0_RS_
 2345              	.LVL257:
 2346              		.loc 1 976 0
 2347 0c14 813F0014 		lwz 9,20(31)
 2348 0c18 7FC3F378 		mr 3,30
 2349 0c1c 38090001 		addi 0,9,1
 2350 0c20 901F0014 		stw 0,20(31)
 2351              	.LVL258:
 2352              	.L142:
 2353              	.LBE4492:
 2354              	.LBE4491:
 2355              	.LBE4520:
 2356              	.LBE4601:
 2357              	.LBE4607:
 2358              		.loc 1 1388 0
 2359 0c24 8001002C 		lwz 0,44(1)
 2360 0c28 83010008 		lwz 24,8(1)
 2361              	.LVL259:
 2362 0c2c 7C0803A6 		mtlr 0
 2363 0c30 8321000C 		lwz 25,12(1)
 2364              	.LVL260:
 2365 0c34 83410010 		lwz 26,16(1)
 2366 0c38 83610014 		lwz 27,20(1)
 2367 0c3c 83810018 		lwz 28,24(1)
 2368 0c40 83A1001C 		lwz 29,28(1)
 2369 0c44 83C10020 		lwz 30,32(1)
 2370 0c48 83E10024 		lwz 31,36(1)
 2371              	.LVL261:
 2372 0c4c 38210028 		addi 1,1,40
 2373              		.cfi_remember_state
 2374              	.LCFI28:
 2375              		.cfi_def_cfa_offset 0
 2376              		.cfi_restore 31
 2377              		.cfi_restore 30
 2378              		.cfi_restore 29
 2379              		.cfi_restore 28
 2380              		.cfi_restore 27
 2381              		.cfi_restore 26
 2382              		.cfi_restore 25
 2383              		.cfi_restore 24
 2384 0c50 4E800020 		blr
 2385              	.LVL262:
 2386              	.L143:
 2387              	.LCFI29:
 2388              		.cfi_restore_state
 2389              	.LBB4608:
 2390              	.LBB4602:
 2391              	.LBB4521:
 2392              		.loc 1 1364 0
 2393 0c54 409D00C4 		ble- 7,.L154
 2394              	.LVL263:
 2395              	.LBB4522:
 2396              		.loc 1 1369 0
 2397 0c58 80030010 		lwz 0,16(3)
 2398 0c5c 7F990000 		cmpw 7,25,0
 2399 0c60 419E0204 		beq- 7,.L171
 2400              	.LVL264:
 2401              	.LBB4523:
 2402              	.LBB4524:
 2403              		.loc 1 269 0
 2404 0c64 7F23CB78 		mr 3,25
 2405              	.LVL265:
 2406 0c68 48000001 		bl _ZSt18_Rb_tree_incrementPKSt18_Rb_tree_node_base
 2407              	.LVL266:
 2408              	.LBE4524:
 2409              	.LBE4523:
 2410              		.loc 1 1372 0
 2411 0c6c 80030010 		lwz 0,16(3)
 2412              	.LBB4526:
 2413              	.LBB4525:
 2414              		.loc 1 269 0
 2415 0c70 7C7C1B78 		mr 28,3
 2416              	.LVL267:
 2417              	.LBE4525:
 2418              	.LBE4526:
 2419              		.loc 1 1372 0
 2420 0c74 7F9E0040 		cmplw 7,30,0
 2421 0c78 409C0064 		bge- 7,.L138
 2422              		.loc 1 1375 0
 2423 0c7c 8019000C 		lwz 0,12(25)
 2424              	.LBB4527:
 2425              	.LBB4528:
 2426              	.LBB4529:
 2427              	.LBB4530:
 2428              	.LBB4531:
 2429              	.LBB4532:
 2430              	.LBB4533:
 2431              		.loc 3 92 0
 2432 0c80 38600018 		li 3,24
 2433              	.LVL268:
 2434              	.LBE4533:
 2435              	.LBE4532:
 2436              	.LBE4531:
 2437              	.LBE4530:
 2438              	.LBE4529:
 2439              	.LBE4528:
 2440              	.LBE4527:
 2441              		.loc 1 1375 0
 2442 0c84 2F800000 		cmpwi 7,0,0
 2443 0c88 419E0148 		beq- 7,.L172
 2444              	.LVL269:
 2445              	.LBB4547:
 2446              	.LBB4548:
 2447              	.LBB4549:
 2448              	.LBB4550:
 2449              	.LBB4551:
 2450              	.LBB4552:
 2451              	.LBB4553:
 2452              		.loc 3 92 0
 2453 0c8c 48000001 		bl _Znwj
 2454              	.LBE4553:
 2455              	.LBE4552:
 2456              	.LBE4551:
 2457              	.LBB4556:
 2458              	.LBB4557:
 2459              		.loc 3 108 0
 2460 0c90 2F83FFF0 		cmpwi 7,3,-16
 2461              	.LBE4557:
 2462              	.LBE4556:
 2463              	.LBB4559:
 2464              	.LBB4555:
 2465              	.LBB4554:
 2466              		.loc 3 92 0
 2467 0c94 7C7E1B78 		mr 30,3
 2468              	.LVL270:
 2469              	.LBE4554:
 2470              	.LBE4555:
 2471              	.LBE4559:
 2472              	.LBB4560:
 2473              	.LBB4558:
 2474              		.loc 3 108 0
 2475 0c98 419E0014 		beq- 7,.L163
 2476 0c9c 81580000 		lwz 10,0(24)
 2477 0ca0 81780004 		lwz 11,4(24)
 2478 0ca4 91430010 		stw 10,16(3)
 2479 0ca8 91630014 		stw 11,20(3)
 2480              	.L163:
 2481              	.LVL271:
 2482              	.LBE4558:
 2483              	.LBE4560:
 2484              	.LBE4550:
 2485              	.LBE4549:
 2486              		.loc 1 973 0
 2487 0cac 38600001 		li 3,1
 2488              	.LVL272:
 2489              	.L167:
 2490 0cb0 7FC4F378 		mr 4,30
 2491 0cb4 7F85E378 		mr 5,28
 2492 0cb8 4BFFFF54 		b .L166
 2493              	.LVL273:
 2494              	.L168:
 2495              	.LBE4548:
 2496              	.LBE4547:
 2497              	.LBE4522:
 2498              	.LBE4521:
 2499              	.LBE4602:
 2500              		.loc 1 1335 0
 2501 0cbc 80030014 		lwz 0,20(3)
 2502 0cc0 2F800000 		cmpwi 7,0,0
 2503 0cc4 419E0018 		beq- 7,.L138
 2504              	.LVL274:
 2505 0cc8 83C30010 		lwz 30,16(3)
 2506              	.LVL275:
 2507              		.loc 2 266 0
 2508 0ccc 80050000 		lwz 0,0(5)
 2509 0cd0 813E0010 		lwz 9,16(30)
 2510              		.loc 1 1335 0
 2511 0cd4 7F890040 		cmplw 7,9,0
 2512 0cd8 419C0074 		blt- 7,.L173
 2513              	.LVL276:
 2514              	.L138:
 2515              		.loc 1 1340 0
 2516 0cdc 7FE3FB78 		mr 3,31
 2517 0ce0 7F04C378 		mr 4,24
 2518 0ce4 4BFFF51D 		bl _ZNSt8_Rb_treeIP8GuiSoundSt4pairIKS1_iESt10_Select1stIS4_ESt4lessIS1_ESaIS4_EE16_M_insert_uniqu
 2519              	.LBE4608:
 2520              		.loc 1 1388 0
 2521 0ce8 8001002C 		lwz 0,44(1)
 2522 0cec 83010008 		lwz 24,8(1)
 2523              	.LVL277:
 2524 0cf0 7C0803A6 		mtlr 0
 2525 0cf4 8321000C 		lwz 25,12(1)
 2526              	.LVL278:
 2527 0cf8 83410010 		lwz 26,16(1)
 2528 0cfc 83610014 		lwz 27,20(1)
 2529 0d00 83810018 		lwz 28,24(1)
 2530 0d04 83A1001C 		lwz 29,28(1)
 2531 0d08 83C10020 		lwz 30,32(1)
 2532 0d0c 83E10024 		lwz 31,36(1)
 2533              	.LVL279:
 2534 0d10 38210028 		addi 1,1,40
 2535              		.cfi_remember_state
 2536              		.cfi_restore 24
 2537              		.cfi_restore 25
 2538              		.cfi_restore 26
 2539              		.cfi_restore 27
 2540              		.cfi_restore 28
 2541              		.cfi_restore 29
 2542              		.cfi_restore 30
 2543              		.cfi_restore 31
 2544              	.LCFI30:
 2545              		.cfi_def_cfa_offset 0
 2546 0d14 4E800020 		blr
 2547              	.LVL280:
 2548              	.L154:
 2549              	.LCFI31:
 2550              		.cfi_restore_state
 2551 0d18 8001002C 		lwz 0,44(1)
 2552              	.LBB4609:
 2553              	.LBB4603:
 2554              	.LBB4579:
 2555              	.LBB4576:
 2556              		.loc 1 1383 0
 2557 0d1c 7F23CB78 		mr 3,25
 2558              	.LVL281:
 2559              	.LBE4576:
 2560              	.LBE4579:
 2561              	.LBE4603:
 2562              	.LBE4609:
 2563              		.loc 1 1388 0
 2564 0d20 83010008 		lwz 24,8(1)
 2565 0d24 7C0803A6 		mtlr 0
 2566 0d28 8321000C 		lwz 25,12(1)
 2567              	.LVL282:
 2568 0d2c 83410010 		lwz 26,16(1)
 2569 0d30 83610014 		lwz 27,20(1)
 2570 0d34 83810018 		lwz 28,24(1)
 2571 0d38 83A1001C 		lwz 29,28(1)
 2572 0d3c 83C10020 		lwz 30,32(1)
 2573 0d40 83E10024 		lwz 31,36(1)
 2574              	.LVL283:
 2575 0d44 38210028 		addi 1,1,40
 2576              		.cfi_remember_state
 2577              		.cfi_restore 24
 2578              		.cfi_restore 25
 2579              		.cfi_restore 26
 2580              		.cfi_restore 27
 2581              		.cfi_restore 28
 2582              		.cfi_restore 29
 2583              		.cfi_restore 30
 2584              		.cfi_restore 31
 2585              	.LCFI32:
 2586              		.cfi_def_cfa_offset 0
 2587 0d48 4E800020 		blr
 2588              	.LVL284:
 2589              	.L173:
 2590              	.LCFI33:
 2591              		.cfi_restore_state
 2592              	.LBB4610:
 2593              	.LBB4604:
 2594              	.LBB4600:
 2595              	.LBB4586:
 2596              	.LBB4587:
 2597              	.LBB4588:
 2598              	.LBB4589:
 2599              	.LBB4590:
 2600              		.loc 3 92 0
 2601 0d4c 38600018 		li 3,24
 2602              	.LVL285:
 2603 0d50 48000001 		bl _Znwj
 2604              	.LVL286:
 2605              	.LBE4590:
 2606              	.LBE4589:
 2607              	.LBE4588:
 2608              	.LBB4593:
 2609              	.LBB4594:
 2610              		.loc 3 108 0
 2611 0d54 2F83FFF0 		cmpwi 7,3,-16
 2612              	.LBE4594:
 2613              	.LBE4593:
 2614              	.LBB4596:
 2615              	.LBB4592:
 2616              	.LBB4591:
 2617              		.loc 3 92 0
 2618 0d58 7C7D1B78 		mr 29,3
 2619              	.LBE4591:
 2620              	.LBE4592:
 2621              	.LBE4596:
 2622              	.LBE4587:
 2623              	.LBE4586:
 2624              		.loc 1 1325 0
 2625 0d5c 7FC3CA78 		xor 3,30,25
 2626 0d60 7C630034 		cntlzw 3,3
 2627 0d64 5463D97E 		srwi 3,3,5
 2628              	.LVL287:
 2629              	.LBB4599:
 2630              	.LBB4598:
 2631              	.LBB4597:
 2632              	.LBB4595:
 2633              		.loc 3 108 0
 2634 0d68 419E0014 		beq- 7,.L141
 2635 0d6c 81580000 		lwz 10,0(24)
 2636 0d70 81780004 		lwz 11,4(24)
 2637 0d74 915D0010 		stw 10,16(29)
 2638 0d78 917D0014 		stw 11,20(29)
 2639              	.L141:
 2640              	.LVL288:
 2641              	.LBE4595:
 2642              	.LBE4597:
 2643              	.LBE4598:
 2644              	.LBE4599:
 2645              		.loc 1 973 0
 2646 0d7c 7FA4EB78 		mr 4,29
 2647 0d80 7FC5F378 		mr 5,30
 2648 0d84 7F26CB78 		mr 6,25
 2649 0d88 48000001 		bl _ZSt29_Rb_tree_insert_and_rebalancebPSt18_Rb_tree_node_baseS0_RS_
 2650              	.LVL289:
 2651              		.loc 1 976 0
 2652 0d8c 813F0014 		lwz 9,20(31)
 2653 0d90 7FA3EB78 		mr 3,29
 2654 0d94 38090001 		addi 0,9,1
 2655 0d98 901F0014 		stw 0,20(31)
 2656              	.LVL290:
 2657 0d9c 4BFFFE88 		b .L142
 2658              	.LVL291:
 2659              	.L170:
 2660              	.LBE4600:
 2661              	.LBE4604:
 2662              	.LBB4605:
 2663              	.LBB4580:
 2664              	.LBB4505:
 2665              	.LBB4487:
 2666              	.LBB4484:
 2667              	.LBB4482:
 2668              	.LBB4476:
 2669              	.LBB4474:
 2670              	.LBB4472:
 2671              		.loc 3 92 0
 2672 0da0 48000001 		bl _Znwj
 2673              	.LBE4472:
 2674              	.LBE4474:
 2675              	.LBE4476:
 2676              	.LBB4477:
 2677              	.LBB4478:
 2678              		.loc 3 108 0
 2679 0da4 2F83FFF0 		cmpwi 7,3,-16
 2680              	.LBE4478:
 2681              	.LBE4477:
 2682              	.LBB4480:
 2683              	.LBB4475:
 2684              	.LBB4473:
 2685              		.loc 3 92 0
 2686 0da8 7C7E1B78 		mr 30,3
 2687              	.LBE4473:
 2688              	.LBE4475:
 2689              	.LBE4480:
 2690              	.LBE4482:
 2691              	.LBE4484:
 2692              		.loc 1 1325 0
 2693 0dac 7FA3E278 		xor 3,29,28
 2694 0db0 7C630034 		cntlzw 3,3
 2695 0db4 5463D97E 		srwi 3,3,5
 2696              	.LVL292:
 2697              	.LBB4485:
 2698              	.LBB4483:
 2699              	.LBB4481:
 2700              	.LBB4479:
 2701              		.loc 3 108 0
 2702 0db8 41BEFEF8 		beq- 7,.L167
 2703 0dbc 81580000 		lwz 10,0(24)
 2704 0dc0 81780004 		lwz 11,4(24)
 2705 0dc4 915E0010 		stw 10,16(30)
 2706 0dc8 917E0014 		stw 11,20(30)
 2707              	.LVL293:
 2708 0dcc 4BFFFEE4 		b .L167
 2709              	.LVL294:
 2710              	.L172:
 2711              	.LBE4479:
 2712              	.LBE4481:
 2713              	.LBE4483:
 2714              	.LBE4485:
 2715              	.LBE4487:
 2716              	.LBE4505:
 2717              	.LBE4580:
 2718              	.LBB4581:
 2719              	.LBB4577:
 2720              	.LBB4561:
 2721              	.LBB4546:
 2722              	.LBB4545:
 2723              	.LBB4544:
 2724              	.LBB4538:
 2725              	.LBB4536:
 2726              	.LBB4534:
 2727              		.loc 3 92 0
 2728 0dd0 48000001 		bl _Znwj
 2729              	.LBE4534:
 2730              	.LBE4536:
 2731              	.LBE4538:
 2732              	.LBB4539:
 2733              	.LBB4540:
 2734              		.loc 3 108 0
 2735 0dd4 2F83FFF0 		cmpwi 7,3,-16
 2736              	.LBE4540:
 2737              	.LBE4539:
 2738              	.LBB4542:
 2739              	.LBB4537:
 2740              	.LBB4535:
 2741              		.loc 3 92 0
 2742 0dd8 7C7C1B78 		mr 28,3
 2743              	.LVL295:
 2744              	.LBE4535:
 2745              	.LBE4537:
 2746              	.LBE4542:
 2747              	.LBB4543:
 2748              	.LBB4541:
 2749              		.loc 3 108 0
 2750 0ddc 419E0014 		beq- 7,.L161
 2751 0de0 81580000 		lwz 10,0(24)
 2752 0de4 81780004 		lwz 11,4(24)
 2753 0de8 91430010 		stw 10,16(3)
 2754 0dec 91630014 		stw 11,20(3)
 2755              	.L161:
 2756              	.LVL296:
 2757              	.LBE4541:
 2758              	.LBE4543:
 2759              	.LBE4544:
 2760              	.LBE4545:
 2761              		.loc 1 973 0
 2762 0df0 38600000 		li 3,0
 2763              	.LVL297:
 2764 0df4 7F84E378 		mr 4,28
 2765 0df8 7F25CB78 		mr 5,25
 2766 0dfc 7FA6EB78 		mr 6,29
 2767 0e00 48000001 		bl _ZSt29_Rb_tree_insert_and_rebalancebPSt18_Rb_tree_node_baseS0_RS_
 2768              		.loc 1 976 0
 2769 0e04 813F0014 		lwz 9,20(31)
 2770 0e08 7F83E378 		mr 3,28
 2771 0e0c 38090001 		addi 0,9,1
 2772 0e10 901F0014 		stw 0,20(31)
 2773              	.LVL298:
 2774 0e14 4BFFFE10 		b .L142
 2775              	.LVL299:
 2776              	.L169:
 2777              	.LBE4546:
 2778              	.LBE4561:
 2779              	.LBE4577:
 2780              	.LBE4581:
 2781              	.LBB4582:
 2782              	.LBB4506:
 2783              	.LBB4507:
 2784              	.LBB4508:
 2785              	.LBB4509:
 2786              	.LBB4510:
 2787              	.LBB4511:
 2788              	.LBB4512:
 2789              		.loc 3 92 0
 2790 0e18 38600018 		li 3,24
 2791 0e1c 48000001 		bl _Znwj
 2792              	.LBE4512:
 2793              	.LBE4511:
 2794              	.LBE4510:
 2795              	.LBB4515:
 2796              	.LBB4516:
 2797              		.loc 3 108 0
 2798 0e20 2F83FFF0 		cmpwi 7,3,-16
 2799              	.LBE4516:
 2800              	.LBE4515:
 2801              	.LBB4518:
 2802              	.LBB4514:
 2803              	.LBB4513:
 2804              		.loc 3 92 0
 2805 0e24 7C7B1B78 		mr 27,3
 2806              	.LVL300:
 2807              	.LBE4513:
 2808              	.LBE4514:
 2809              	.LBE4518:
 2810              	.LBB4519:
 2811              	.LBB4517:
 2812              		.loc 3 108 0
 2813 0e28 419E0014 		beq- 7,.L146
 2814 0e2c 81580000 		lwz 10,0(24)
 2815 0e30 81780004 		lwz 11,4(24)
 2816 0e34 91430010 		stw 10,16(3)
 2817 0e38 91630014 		stw 11,20(3)
 2818              	.L146:
 2819              	.LVL301:
 2820              	.LBE4517:
 2821              	.LBE4519:
 2822              	.LBE4509:
 2823              	.LBE4508:
 2824              		.loc 1 973 0
 2825 0e3c 38600001 		li 3,1
 2826              	.LVL302:
 2827 0e40 7F64DB78 		mr 4,27
 2828 0e44 7F25CB78 		mr 5,25
 2829 0e48 7FA6EB78 		mr 6,29
 2830 0e4c 48000001 		bl _ZSt29_Rb_tree_insert_and_rebalancebPSt18_Rb_tree_node_baseS0_RS_
 2831              		.loc 1 976 0
 2832 0e50 813F0014 		lwz 9,20(31)
 2833 0e54 7F63DB78 		mr 3,27
 2834 0e58 38090001 		addi 0,9,1
 2835 0e5c 901F0014 		stw 0,20(31)
 2836              	.LVL303:
 2837 0e60 4BFFFDC4 		b .L142
 2838              	.LVL304:
 2839              	.L171:
 2840              	.LBE4507:
 2841              	.LBE4506:
 2842              	.LBE4582:
 2843              	.LBB4583:
 2844              	.LBB4578:
 2845              	.LBB4562:
 2846              	.LBB4563:
 2847              	.LBB4564:
 2848              	.LBB4565:
 2849              	.LBB4566:
 2850              	.LBB4567:
 2851              	.LBB4568:
 2852              		.loc 3 92 0
 2853 0e64 38600018 		li 3,24
 2854 0e68 48000001 		bl _Znwj
 2855              	.LBE4568:
 2856              	.LBE4567:
 2857              	.LBE4566:
 2858              	.LBB4571:
 2859              	.LBB4572:
 2860              		.loc 3 108 0
 2861 0e6c 2F83FFF0 		cmpwi 7,3,-16
 2862              	.LBE4572:
 2863              	.LBE4571:
 2864              	.LBB4574:
 2865              	.LBB4570:
 2866              	.LBB4569:
 2867              		.loc 3 92 0
 2868 0e70 7C7A1B78 		mr 26,3
 2869              	.LVL305:
 2870              	.LBE4569:
 2871              	.LBE4570:
 2872              	.LBE4574:
 2873              	.LBB4575:
 2874              	.LBB4573:
 2875              		.loc 3 108 0
 2876 0e74 419E0014 		beq- 7,.L157
 2877 0e78 81580000 		lwz 10,0(24)
 2878 0e7c 81780004 		lwz 11,4(24)
 2879 0e80 91430010 		stw 10,16(3)
 2880 0e84 91630014 		stw 11,20(3)
 2881              	.L157:
 2882              	.LVL306:
 2883              	.LBE4573:
 2884              	.LBE4575:
 2885              	.LBE4565:
 2886              	.LBE4564:
 2887              		.loc 1 973 0
 2888 0e88 38600000 		li 3,0
 2889              	.LVL307:
 2890 0e8c 7F44D378 		mr 4,26
 2891 0e90 7F25CB78 		mr 5,25
 2892 0e94 7FA6EB78 		mr 6,29
 2893 0e98 48000001 		bl _ZSt29_Rb_tree_insert_and_rebalancebPSt18_Rb_tree_node_baseS0_RS_
 2894              		.loc 1 976 0
 2895 0e9c 813F0014 		lwz 9,20(31)
 2896 0ea0 7F43D378 		mr 3,26
 2897 0ea4 38090001 		addi 0,9,1
 2898 0ea8 901F0014 		stw 0,20(31)
 2899              	.LVL308:
 2900 0eac 4BFFFD78 		b .L142
 2901              	.LBE4563:
 2902              	.LBE4562:
 2903              	.LBE4578:
 2904              	.LBE4583:
 2905              	.LBE4605:
 2906              	.LBE4610:
 2907              		.cfi_endproc
 2908              	.LFE2542:
 2909              		.size	_ZNSt8_Rb_treeIP8GuiSoundSt4pairIKS1_iESt10_Select1stIS4_ESt4lessIS1_ESaIS4_EE17_M_insert_un
 2910              		.align 2
 2911              		.globl _ZN9Resources8InstanceEv
 2912              		.type	_ZN9Resources8InstanceEv, @function
 2913              	_ZN9Resources8InstanceEv:
 2914              	.LFB1541:
 2915              		.loc 2 35 0
 2916              		.cfi_startproc
 2917 0eb0 9421FFF0 		stwu 1,-16(1)
 2918              	.LCFI34:
 2919              		.cfi_def_cfa_offset 16
 2920 0eb4 7C0802A6 		mflr 0
 2921 0eb8 93C10008 		stw 30,8(1)
 2922              		.loc 2 36 0
 2923 0ebc 3FC00000 		lis 30,_ZN9Resources8instanceE@ha
 2924              		.cfi_offset 30, -8
 2925              		.cfi_register 65, 0
 2926              		.loc 2 35 0
 2927 0ec0 93E1000C 		stw 31,12(1)
 2928              		.loc 2 36 0
 2929 0ec4 83FE0000 		lwz 31,_ZN9Resources8instanceE@l(30)
 2930              		.cfi_offset 31, -4
 2931              		.loc 2 35 0
 2932 0ec8 90010014 		stw 0,20(1)
 2933              		.loc 2 36 0
 2934 0ecc 2F9F0000 		cmpwi 7,31,0
 2935 0ed0 419E0020 		beq- 7,.L176
 2936              		.cfi_offset 65, 4
 2937              		.loc 2 41 0
 2938 0ed4 80010014 		lwz 0,20(1)
 2939 0ed8 7FE3FB78 		mr 3,31
 2940 0edc 83C10008 		lwz 30,8(1)
 2941 0ee0 7C0803A6 		mtlr 0
 2942 0ee4 83E1000C 		lwz 31,12(1)
 2943 0ee8 38210010 		addi 1,1,16
 2944              		.cfi_remember_state
 2945              	.LCFI35:
 2946              		.cfi_def_cfa_offset 0
 2947              		.cfi_restore 31
 2948              		.cfi_restore 30
 2949 0eec 4E800020 		blr
 2950              	.L176:
 2951              	.LCFI36:
 2952              		.cfi_restore_state
 2953              		.loc 2 38 0
 2954 0ef0 38600060 		li 3,96
 2955 0ef4 48000001 		bl _Znwj
 2956 0ef8 38800000 		li 4,0
 2957 0efc 7C7F1B78 		mr 31,3
 2958 0f00 38A00060 		li 5,96
 2959 0f04 48000001 		bl memset
 2960              	.LVL309:
 2961              	.LBB4611:
 2962              	.LBB4612:
 2963              	.LBB4613:
 2964              	.LBB4614:
 2965              	.LBB4615:
 2966              	.LBB4616:
 2967              	.LBB4617:
 2968              		.loc 1 459 0
 2969 0f08 381F004C 		addi 0,31,76
 2970 0f0c 901F0054 		stw 0,84(31)
 2971              	.LBE4617:
 2972              	.LBE4616:
 2973              	.LBE4615:
 2974              	.LBE4614:
 2975              	.LBE4613:
 2976              	.LBE4612:
 2977              	.LBB4623:
 2978              	.LBB4624:
 2979              	.LBB4625:
 2980              	.LBB4626:
 2981              	.LBB4627:
 2982              	.LBB4628:
 2983 0f10 395F0004 		addi 10,31,4
 2984              	.LBE4628:
 2985              	.LBE4627:
 2986              	.LBE4626:
 2987              	.LBE4625:
 2988              	.LBE4624:
 2989              	.LBE4623:
 2990              	.LBB4639:
 2991              	.LBB4622:
 2992              	.LBB4621:
 2993              	.LBB4620:
 2994              	.LBB4619:
 2995              	.LBB4618:
 2996              		.loc 1 460 0
 2997 0f14 901F0058 		stw 0,88(31)
 2998              	.LBE4618:
 2999              	.LBE4619:
 3000              	.LBE4620:
 3001              	.LBE4621:
 3002              	.LBE4622:
 3003              	.LBE4639:
 3004              	.LBB4640:
 3005              	.LBB4641:
 3006              	.LBB4642:
 3007              	.LBB4643:
 3008              	.LBB4644:
 3009              	.LBB4645:
 3010              		.loc 1 459 0
 3011 0f18 397F001C 		addi 11,31,28
 3012              	.LBE4645:
 3013              	.LBE4644:
 3014              	.LBE4643:
 3015              	.LBE4642:
 3016              	.LBE4641:
 3017              	.LBE4640:
 3018              	.LBE4611:
 3019              		.loc 2 41 0
 3020 0f1c 80010014 		lwz 0,20(1)
 3021              	.LBB4666:
 3022              	.LBB4651:
 3023              	.LBB4652:
 3024              	.LBB4653:
 3025              	.LBB4654:
 3026              	.LBB4655:
 3027              	.LBB4656:
 3028              		.loc 1 459 0
 3029 0f20 393F0034 		addi 9,31,52
 3030              	.LBE4656:
 3031              	.LBE4655:
 3032              	.LBE4654:
 3033              	.LBE4653:
 3034              	.LBE4652:
 3035              	.LBE4651:
 3036              	.LBB4662:
 3037              	.LBB4637:
 3038              	.LBB4635:
 3039              	.LBB4633:
 3040              	.LBB4631:
 3041              	.LBB4629:
 3042 0f24 915F000C 		stw 10,12(31)
 3043              	.LBE4629:
 3044              	.LBE4631:
 3045              	.LBE4633:
 3046              	.LBE4635:
 3047              	.LBE4637:
 3048              	.LBE4662:
 3049              	.LBE4666:
 3050              		.loc 2 41 0
 3051 0f28 7FE3FB78 		mr 3,31
 3052 0f2c 7C0803A6 		mtlr 0
 3053              	.LBB4667:
 3054              	.LBB4663:
 3055              	.LBB4638:
 3056              	.LBB4636:
 3057              	.LBB4634:
 3058              	.LBB4632:
 3059              	.LBB4630:
 3060              		.loc 1 460 0
 3061 0f30 915F0010 		stw 10,16(31)
 3062              	.LVL310:
 3063              	.LBE4630:
 3064              	.LBE4632:
 3065              	.LBE4634:
 3066              	.LBE4636:
 3067              	.LBE4638:
 3068              	.LBE4663:
 3069              	.LBB4664:
 3070              	.LBB4650:
 3071              	.LBB4649:
 3072              	.LBB4648:
 3073              	.LBB4647:
 3074              	.LBB4646:
 3075              		.loc 1 459 0
 3076 0f34 917F0024 		stw 11,36(31)
 3077              		.loc 1 460 0
 3078 0f38 917F0028 		stw 11,40(31)
 3079              	.LVL311:
 3080              	.LBE4646:
 3081              	.LBE4647:
 3082              	.LBE4648:
 3083              	.LBE4649:
 3084              	.LBE4650:
 3085              	.LBE4664:
 3086              	.LBB4665:
 3087              	.LBB4661:
 3088              	.LBB4660:
 3089              	.LBB4659:
 3090              	.LBB4658:
 3091              	.LBB4657:
 3092              		.loc 1 459 0
 3093 0f3c 913F003C 		stw 9,60(31)
 3094              		.loc 1 460 0
 3095 0f40 913F0040 		stw 9,64(31)
 3096              	.LVL312:
 3097              	.LBE4657:
 3098              	.LBE4658:
 3099              	.LBE4659:
 3100              	.LBE4660:
 3101              	.LBE4661:
 3102              	.LBE4665:
 3103              	.LBE4667:
 3104              		.loc 2 38 0
 3105 0f44 93FE0000 		stw 31,_ZN9Resources8instanceE@l(30)
 3106              		.loc 2 41 0
 3107 0f48 83C10008 		lwz 30,8(1)
 3108 0f4c 83E1000C 		lwz 31,12(1)
 3109              	.LVL313:
 3110 0f50 38210010 		addi 1,1,16
 3111              		.cfi_restore 30
 3112              		.cfi_restore 31
 3113              	.LCFI37:
 3114              		.cfi_def_cfa_offset 0
 3115 0f54 4E800020 		blr
 3116              		.cfi_endproc
 3117              	.LFE1541:
 3118              		.size	_ZN9Resources8InstanceEv, .-_ZN9Resources8InstanceEv
 3119              		.align 2
 3120              		.globl _ZN9Resources7GetFileEPKc
 3121              		.type	_ZN9Resources7GetFileEPKc, @function
 3122              	_ZN9Resources7GetFileEPKc:
 3123              	.LFB1563:
 3124              		.loc 2 110 0
 3125              		.cfi_startproc
 3126              	.LVL314:
 3127 0f58 9421FFE8 		stwu 1,-24(1)
 3128              	.LCFI38:
 3129              		.cfi_def_cfa_offset 24
 3130 0f5c 7C0802A6 		mflr 0
 3131 0f60 93A1000C 		stw 29,12(1)
 3132              	.LBB4668:
 3133              		.loc 2 111 0
 3134 0f64 7C7D1B79 		mr. 29,3
 3135              		.cfi_offset 29, -12
 3136              		.cfi_register 65, 0
 3137              	.LBE4668:
 3138              		.loc 2 110 0
 3139 0f68 9001001C 		stw 0,28(1)
 3140              	.LBB4672:
 3141              		.loc 2 112 0
 3142 0f6c 38600000 		li 3,0
 3143              	.LVL315:
 3144              	.LBE4672:
 3145              		.loc 2 110 0
 3146 0f70 93810008 		stw 28,8(1)
 3147 0f74 93C10010 		stw 30,16(1)
 3148 0f78 93E10014 		stw 31,20(1)
 3149              	.LBB4673:
 3150              		.loc 2 111 0
 3151 0f7c 4182005C 		beq- 0,.L178
 3152              		.cfi_offset 31, -4
 3153              		.cfi_offset 30, -8
 3154              		.cfi_offset 28, -16
 3155              		.cfi_offset 65, 4
 3156              	.LVL316:
 3157              	.LBB4669:
 3158              		.loc 2 114 0 discriminator 1
 3159 0f80 3F800000 		lis 28,.LANCHOR0@ha
 3160 0f84 809C0000 		lwz 4,.LANCHOR0@l(28)
 3161 0f88 3B9C0000 		la 28,.LANCHOR0@l(28)
 3162 0f8c 2F840000 		cmpwi 7,4,0
 3163 0f90 419E0048 		beq- 7,.L178
 3164              		.loc 2 114 0 is_stmt 0
 3165 0f94 3BFC0014 		addi 31,28,20
 3166 0f98 3BC00000 		li 30,0
 3167 0f9c 48000014 		b .L180
 3168              	.LVL317:
 3169              	.L179:
 3170 0fa0 809FFFEC 		lwz 4,-20(31)
 3171 0fa4 3BDE0001 		addi 30,30,1
 3172              	.LVL318:
 3173 0fa8 2F840000 		cmpwi 7,4,0
 3174 0fac 419E004C 		beq- 7,.L184
 3175              	.LVL319:
 3176              	.L180:
 3177              		.loc 2 116 0 is_stmt 1
 3178 0fb0 7FA3EB78 		mr 3,29
 3179              		.loc 2 114 0
 3180 0fb4 3BFF0014 		addi 31,31,20
 3181              		.loc 2 116 0
 3182 0fb8 48000001 		bl strcasecmp
 3183 0fbc 2F830000 		cmpwi 7,3,0
 3184 0fc0 409EFFE0 		bne+ 7,.L179
 3185              		.loc 2 118 0
 3186 0fc4 1FDE0014 		mulli 30,30,20
 3187 0fc8 7F9CF214 		add 28,28,30
 3188 0fcc 807C000C 		lwz 3,12(28)
 3189 0fd0 2F830000 		cmpwi 7,3,0
 3190 0fd4 419E0048 		beq- 7,.L185
 3191              	.L178:
 3192              	.LBE4669:
 3193              	.LBE4673:
 3194              		.loc 2 123 0
 3195 0fd8 8001001C 		lwz 0,28(1)
 3196 0fdc 83810008 		lwz 28,8(1)
 3197 0fe0 7C0803A6 		mtlr 0
 3198 0fe4 83A1000C 		lwz 29,12(1)
 3199              	.LVL320:
 3200 0fe8 83C10010 		lwz 30,16(1)
 3201 0fec 83E10014 		lwz 31,20(1)
 3202 0ff0 38210018 		addi 1,1,24
 3203              		.cfi_remember_state
 3204              	.LCFI39:
 3205              		.cfi_def_cfa_offset 0
 3206              		.cfi_restore 31
 3207              		.cfi_restore 30
 3208              		.cfi_restore 29
 3209              		.cfi_restore 28
 3210 0ff4 4E800020 		blr
 3211              	.LVL321:
 3212              	.L184:
 3213              	.LCFI40:
 3214              		.cfi_restore_state
 3215 0ff8 8001001C 		lwz 0,28(1)
 3216              	.LBB4674:
 3217              	.LBB4670:
 3218              		.loc 2 122 0
 3219 0ffc 38600000 		li 3,0
 3220              	.LBE4670:
 3221              	.LBE4674:
 3222              		.loc 2 123 0
 3223 1000 83810008 		lwz 28,8(1)
 3224 1004 7C0803A6 		mtlr 0
 3225 1008 83A1000C 		lwz 29,12(1)
 3226              	.LVL322:
 3227 100c 83C10010 		lwz 30,16(1)
 3228              	.LVL323:
 3229 1010 83E10014 		lwz 31,20(1)
 3230 1014 38210018 		addi 1,1,24
 3231              		.cfi_remember_state
 3232              		.cfi_restore 28
 3233              		.cfi_restore 29
 3234              		.cfi_restore 30
 3235              		.cfi_restore 31
 3236              	.LCFI41:
 3237              		.cfi_def_cfa_offset 0
 3238 1018 4E800020 		blr
 3239              	.LVL324:
 3240              	.L185:
 3241              	.LCFI42:
 3242              		.cfi_restore_state
 3243              	.LBB4675:
 3244              	.LBB4671:
 3245              		.loc 2 118 0 discriminator 2
 3246 101c 807C0004 		lwz 3,4(28)
 3247 1020 4BFFFFB8 		b .L178
 3248              	.LBE4671:
 3249              	.LBE4675:
 3250              		.cfi_endproc
 3251              	.LFE1563:
 3252              		.size	_ZN9Resources7GetFileEPKc, .-_ZN9Resources7GetFileEPKc
 3253              		.align 2
 3254              		.globl _ZN9Resources11GetFileSizeEPKc
 3255              		.type	_ZN9Resources11GetFileSizeEPKc, @function
 3256              	_ZN9Resources11GetFileSizeEPKc:
 3257              	.LFB1564:
 3258              		.loc 2 126 0
 3259              		.cfi_startproc
 3260              	.LVL325:
 3261 1024 9421FFE8 		stwu 1,-24(1)
 3262              	.LCFI43:
 3263              		.cfi_def_cfa_offset 24
 3264 1028 7C0802A6 		mflr 0
 3265 102c 93A1000C 		stw 29,12(1)
 3266              	.LBB4676:
 3267              		.loc 2 127 0
 3268 1030 7C7D1B79 		mr. 29,3
 3269              		.cfi_offset 29, -12
 3270              		.cfi_register 65, 0
 3271              	.LBE4676:
 3272              		.loc 2 126 0
 3273 1034 9001001C 		stw 0,28(1)
 3274              	.LBB4680:
 3275              		.loc 2 128 0
 3276 1038 38600000 		li 3,0
 3277              	.LVL326:
 3278              	.LBE4680:
 3279              		.loc 2 126 0
 3280 103c 93810008 		stw 28,8(1)
 3281 1040 93C10010 		stw 30,16(1)
 3282 1044 93E10014 		stw 31,20(1)
 3283              	.LBB4681:
 3284              		.loc 2 127 0
 3285 1048 41820060 		beq- 0,.L187
 3286              		.cfi_offset 31, -4
 3287              		.cfi_offset 30, -8
 3288              		.cfi_offset 28, -16
 3289              		.cfi_offset 65, 4
 3290              	.LVL327:
 3291              	.LBB4677:
 3292              		.loc 2 130 0 discriminator 1
 3293 104c 3F800000 		lis 28,.LANCHOR0@ha
 3294 1050 809C0000 		lwz 4,.LANCHOR0@l(28)
 3295 1054 3B9C0000 		la 28,.LANCHOR0@l(28)
 3296 1058 2F840000 		cmpwi 7,4,0
 3297 105c 419E004C 		beq- 7,.L187
 3298              		.loc 2 130 0 is_stmt 0
 3299 1060 3BFC0014 		addi 31,28,20
 3300 1064 3BC00000 		li 30,0
 3301 1068 48000014 		b .L190
 3302              	.LVL328:
 3303              	.L188:
 3304 106c 809FFFEC 		lwz 4,-20(31)
 3305 1070 3BDE0001 		addi 30,30,1
 3306              	.LVL329:
 3307 1074 2F840000 		cmpwi 7,4,0
 3308 1078 419E0050 		beq- 7,.L194
 3309              	.LVL330:
 3310              	.L190:
 3311              		.loc 2 132 0 is_stmt 1
 3312 107c 7FA3EB78 		mr 3,29
 3313              		.loc 2 130 0
 3314 1080 3BFF0014 		addi 31,31,20
 3315              		.loc 2 132 0
 3316 1084 48000001 		bl strcasecmp
 3317 1088 2F830000 		cmpwi 7,3,0
 3318 108c 409EFFE0 		bne+ 7,.L188
 3319              		.loc 2 134 0
 3320 1090 1FDE0014 		mulli 30,30,20
 3321 1094 7F9CF214 		add 28,28,30
 3322 1098 801C000C 		lwz 0,12(28)
 3323 109c 2F800000 		cmpwi 7,0,0
 3324 10a0 419E004C 		beq- 7,.L189
 3325              		.loc 2 134 0 is_stmt 0 discriminator 1
 3326 10a4 807C0010 		lwz 3,16(28)
 3327              	.L187:
 3328              	.LBE4677:
 3329              	.LBE4681:
 3330              		.loc 2 139 0 is_stmt 1
 3331 10a8 8001001C 		lwz 0,28(1)
 3332 10ac 83810008 		lwz 28,8(1)
 3333 10b0 7C0803A6 		mtlr 0
 3334 10b4 83A1000C 		lwz 29,12(1)
 3335              	.LVL331:
 3336 10b8 83C10010 		lwz 30,16(1)
 3337 10bc 83E10014 		lwz 31,20(1)
 3338 10c0 38210018 		addi 1,1,24
 3339              		.cfi_remember_state
 3340              	.LCFI44:
 3341              		.cfi_def_cfa_offset 0
 3342              		.cfi_restore 31
 3343              		.cfi_restore 30
 3344              		.cfi_restore 29
 3345              		.cfi_restore 28
 3346 10c4 4E800020 		blr
 3347              	.LVL332:
 3348              	.L194:
 3349              	.LCFI45:
 3350              		.cfi_restore_state
 3351 10c8 8001001C 		lwz 0,28(1)
 3352              	.LBB4682:
 3353              	.LBB4678:
 3354              		.loc 2 138 0
 3355 10cc 38600000 		li 3,0
 3356              	.LBE4678:
 3357              	.LBE4682:
 3358              		.loc 2 139 0
 3359 10d0 83810008 		lwz 28,8(1)
 3360 10d4 7C0803A6 		mtlr 0
 3361 10d8 83A1000C 		lwz 29,12(1)
 3362              	.LVL333:
 3363 10dc 83C10010 		lwz 30,16(1)
 3364              	.LVL334:
 3365 10e0 83E10014 		lwz 31,20(1)
 3366 10e4 38210018 		addi 1,1,24
 3367              		.cfi_remember_state
 3368              		.cfi_restore 28
 3369              		.cfi_restore 29
 3370              		.cfi_restore 30
 3371              		.cfi_restore 31
 3372              	.LCFI46:
 3373              		.cfi_def_cfa_offset 0
 3374 10e8 4E800020 		blr
 3375              	.LVL335:
 3376              	.L189:
 3377              	.LCFI47:
 3378              		.cfi_restore_state
 3379              	.LBB4683:
 3380              	.LBB4679:
 3381              		.loc 2 134 0 discriminator 2
 3382 10ec 807C0008 		lwz 3,8(28)
 3383 10f0 4BFFFFB8 		b .L187
 3384              	.LBE4679:
 3385              	.LBE4683:
 3386              		.cfi_endproc
 3387              	.LFE1564:
 3388              		.size	_ZN9Resources11GetFileSizeEPKc, .-_ZN9Resources11GetFileSizeEPKc
 3389              		.align 2
 3390              		.globl _ZN9Resources20InternalGetImageDataEPKhj
 3391              		.type	_ZN9Resources20InternalGetImageDataEPKhj, @function
 3392              	_ZN9Resources20InternalGetImageDataEPKhj:
 3393              	.LFB1569:
 3394              		.loc 2 186 0
 3395              		.cfi_startproc
 3396              		.cfi_personality 0,__gxx_personality_v0
 3397              		.cfi_lsda 0,.LLSDA1569
 3398              	.LVL336:
 3399 10f4 7C0802A6 		mflr 0
 3400 10f8 9421FFB8 		stwu 1,-72(1)
 3401              	.LCFI48:
 3402              		.cfi_def_cfa_offset 72
 3403              		.cfi_register 65, 0
 3404 10fc 93810038 		stw 28,56(1)
 3405 1100 7C9C2378 		mr 28,4
 3406              		.cfi_offset 28, -16
 3407 1104 9001004C 		stw 0,76(1)
 3408 1108 93A1003C 		stw 29,60(1)
 3409              	.LBB4856:
 3410              	.LBB4857:
 3411              	.LBB4858:
 3412              		.loc 1 1536 0
 3413 110c 3BA30004 		addi 29,3,4
 3414              		.cfi_offset 29, -12
 3415              		.cfi_offset 65, 4
 3416              		.loc 2 266 0
 3417 1110 81230008 		lwz 9,8(3)
 3418              	.LBE4858:
 3419              	.LBE4857:
 3420              	.LBE4856:
 3421              		.loc 2 186 0
 3422 1114 93C10040 		stw 30,64(1)
 3423 1118 7C7E1B78 		mr 30,3
 3424              		.cfi_offset 30, -8
 3425              	.LVL337:
 3426              	.LBB5043:
 3427              	.LBB4869:
 3428              	.LBB4867:
 3429              	.LBB4859:
 3430              	.LBB4860:
 3431              	.LBB4861:
 3432              		.loc 1 1089 0
 3433 111c 2F890000 		cmpwi 7,9,0
 3434              	.LBE4861:
 3435              	.LBE4860:
 3436              	.LBE4859:
 3437              	.LBE4867:
 3438              	.LBE4869:
 3439              	.LBE5043:
 3440              		.loc 2 186 0
 3441 1120 93410030 		stw 26,48(1)
 3442 1124 93610034 		stw 27,52(1)
 3443 1128 93E10044 		stw 31,68(1)
 3444              	.LBB5044:
 3445              	.LBB4870:
 3446              	.LBB4868:
 3447              	.LBB4866:
 3448              	.LBB4865:
 3449              	.LBB4862:
 3450              		.loc 1 1089 0
 3451 112c 419E00FC 		beq- 7,.L196
 3452              		.cfi_offset 31, -4
 3453              		.cfi_offset 27, -20
 3454              		.cfi_offset 26, -24
 3455              	.LVL338:
 3456 1130 7FBBEB78 		mr 27,29
 3457 1134 48000014 		b .L199
 3458              	.LVL339:
 3459              	.L249:
 3460              	.LBE4862:
 3461              		.loc 2 266 0
 3462 1138 7D3B4B78 		mr 27,9
 3463              		.loc 1 1091 0
 3464 113c 81290008 		lwz 9,8(9)
 3465              	.LVL340:
 3466              	.LBB4863:
 3467              		.loc 1 1089 0
 3468 1140 2F890000 		cmpwi 7,9,0
 3469 1144 419E001C 		beq- 7,.L248
 3470              	.LVL341:
 3471              	.L199:
 3472              		.loc 1 1090 0
 3473 1148 80090010 		lwz 0,16(9)
 3474 114c 7F80E040 		cmplw 7,0,28
 3475 1150 40BCFFE8 		bge- 7,.L249
 3476              	.LVL342:
 3477              	.LBE4863:
 3478              		.loc 2 266 0
 3479 1154 8129000C 		lwz 9,12(9)
 3480              	.LVL343:
 3481              	.LBB4864:
 3482              		.loc 1 1089 0
 3483 1158 2F890000 		cmpwi 7,9,0
 3484 115c 409EFFEC 		bne+ 7,.L199
 3485              	.L248:
 3486              	.LVL344:
 3487              	.LBE4864:
 3488              	.LBE4865:
 3489              		.loc 1 1539 0
 3490 1160 7F9DD800 		cmpw 7,29,27
 3491 1164 419E00C4 		beq- 7,.L196
 3492              	.LVL345:
 3493 1168 801B0010 		lwz 0,16(27)
 3494 116c 7F80E040 		cmplw 7,0,28
 3495 1170 419D00B8 		bgt- 7,.L196
 3496              	.LVL346:
 3497              	.LBE4866:
 3498              	.LBE4868:
 3499              	.LBE4870:
 3500              	.LBB4871:
 3501              	.LBB4872:
 3502              	.LBB4873:
 3503              	.LBB4874:
 3504              		.loc 2 266 0
 3505 1174 813E0038 		lwz 9,56(30)
 3506              	.LVL347:
 3507              		.loc 1 828 0
 3508 1178 397E0034 		addi 11,30,52
 3509              	.LVL348:
 3510              	.LBE4874:
 3511              	.LBE4873:
 3512              	.LBE4872:
 3513              	.LBE4871:
 3514              	.LBB4892:
 3515              		.loc 2 194 0
 3516 117c 83FB0014 		lwz 31,20(27)
 3517              	.LBE4892:
 3518              	.LBB5039:
 3519              	.LBB4891:
 3520              	.LBB4880:
 3521              	.LBB4879:
 3522              	.LBB4875:
 3523              	.LBB4876:
 3524              		.loc 1 828 0
 3525 1180 7D635B78 		mr 3,11
 3526              	.LVL349:
 3527              		.loc 1 1089 0
 3528 1184 2F890000 		cmpwi 7,9,0
 3529 1188 40BE0018 		bne+ 7,.L230
 3530 118c 48000040 		b .L201
 3531              	.LVL350:
 3532              	.L251:
 3533              	.LBE4876:
 3534              		.loc 2 266 0
 3535 1190 7D234B78 		mr 3,9
 3536              		.loc 1 1091 0
 3537 1194 81290008 		lwz 9,8(9)
 3538              	.LVL351:
 3539              	.LBB4877:
 3540              		.loc 1 1089 0
 3541 1198 2F890000 		cmpwi 7,9,0
 3542 119c 419E001C 		beq- 7,.L250
 3543              	.LVL352:
 3544              	.L230:
 3545              		.loc 1 1090 0
 3546 11a0 80090010 		lwz 0,16(9)
 3547 11a4 7F9F0040 		cmplw 7,31,0
 3548 11a8 40BDFFE8 		ble- 7,.L251
 3549              	.LBE4877:
 3550              		.loc 2 266 0
 3551 11ac 8129000C 		lwz 9,12(9)
 3552              	.LVL353:
 3553              	.LBB4878:
 3554              		.loc 1 1089 0
 3555 11b0 2F890000 		cmpwi 7,9,0
 3556 11b4 409EFFEC 		bne+ 7,.L230
 3557              	.L250:
 3558              	.LVL354:
 3559              	.LBE4878:
 3560              	.LBE4875:
 3561              	.LBE4879:
 3562              	.LBE4880:
 3563              		.file 4 "d:\\devkitpro\\devkitppc\\bin\\../lib/gcc/powerpc-eabi/4.6.3/../../../../powerpc-eabi/inc
 3564              		.loc 4 452 0
 3565 11b8 7F8B1800 		cmpw 7,11,3
 3566 11bc 419E0010 		beq- 7,.L201
 3567              	.LVL355:
 3568 11c0 80030010 		lwz 0,16(3)
 3569 11c4 7F9F0040 		cmplw 7,31,0
 3570 11c8 409C0028 		bge- 7,.L231
 3571              	.LVL356:
 3572              	.L201:
 3573              	.LBB4881:
 3574              	.LBB4882:
 3575              		.loc 4 571 0
 3576 11cc 7C240B78 		mr 4,1
 3577              	.LVL357:
 3578              	.LBE4882:
 3579              	.LBE4881:
 3580              	.LBB4885:
 3581              	.LBB4886:
 3582              		.file 5 "d:\\devkitpro\\devkitppc\\bin\\../lib/gcc/powerpc-eabi/4.6.3/../../../../powerpc-eabi/inc
 3583              		.loc 5 104 0
 3584 11d0 38000000 		li 0,0
 3585 11d4 93E10008 		stw 31,8(1)
 3586              	.LBE4886:
 3587              	.LBE4885:
 3588              	.LBB4888:
 3589              	.LBB4883:
 3590              		.loc 4 571 0
 3591 11d8 38A10008 		addi 5,1,8
 3592              	.LVL358:
 3593              	.LBE4883:
 3594              	.LBE4888:
 3595              	.LBB4889:
 3596              	.LBB4887:
 3597              		.loc 5 104 0
 3598 11dc 9001000C 		stw 0,12(1)
 3599              	.LVL359:
 3600              	.LBE4887:
 3601              	.LBE4889:
 3602              	.LBB4890:
 3603              	.LBB4884:
 3604              		.loc 4 571 0
 3605 11e0 94640028 		stwu 3,40(4)
 3606 11e4 387E0030 		addi 3,30,48
 3607              	.LVL360:
 3608              	.LEHB0:
 3609 11e8 4BFFF619 		bl _ZNSt8_Rb_treeIP12GuiImageDataSt4pairIKS1_iESt10_Select1stIS4_ESt4lessIS1_ESaIS4_EE17_M_insert_
 3610              	.LVL361:
 3611 11ec 83FB0014 		lwz 31,20(27)
 3612              	.LVL362:
 3613              	.L231:
 3614              	.LBE4884:
 3615              	.LBE4890:
 3616              	.LBE4891:
 3617              	.LBE5039:
 3618              		.loc 2 197 0
 3619 11f0 81230014 		lwz 9,20(3)
 3620              	.LBE5044:
 3621              		.loc 2 199 0
 3622 11f4 83410030 		lwz 26,48(1)
 3623              	.LBB5045:
 3624              		.loc 2 197 0
 3625 11f8 38090001 		addi 0,9,1
 3626              	.LBE5045:
 3627              		.loc 2 199 0
 3628 11fc 83610034 		lwz 27,52(1)
 3629              	.LVL363:
 3630              	.LBB5046:
 3631              		.loc 2 197 0
 3632 1200 90030014 		stw 0,20(3)
 3633              	.LVL364:
 3634              	.LBE5046:
 3635              		.loc 2 199 0
 3636 1204 7FE3FB78 		mr 3,31
 3637              	.LVL365:
 3638 1208 8001004C 		lwz 0,76(1)
 3639 120c 83810038 		lwz 28,56(1)
 3640              	.LVL366:
 3641 1210 7C0803A6 		mtlr 0
 3642 1214 83A1003C 		lwz 29,60(1)
 3643              	.LVL367:
 3644 1218 83C10040 		lwz 30,64(1)
 3645              	.LVL368:
 3646 121c 83E10044 		lwz 31,68(1)
 3647 1220 38210048 		addi 1,1,72
 3648              		.cfi_remember_state
 3649              	.LCFI49:
 3650              		.cfi_def_cfa_offset 0
 3651              		.cfi_restore 31
 3652              		.cfi_restore 30
 3653              		.cfi_restore 29
 3654              		.cfi_restore 28
 3655              		.cfi_restore 27
 3656              		.cfi_restore 26
 3657 1224 4E800020 		blr
 3658              	.LVL369:
 3659              	.L196:
 3660              	.LCFI50:
 3661              		.cfi_restore_state
 3662              	.LBB5047:
 3663              	.LBB5040:
 3664              		.loc 2 191 0
 3665 1228 38600018 		li 3,24
 3666              	.LVL370:
 3667 122c 90A1002C 		stw 5,44(1)
 3668 1230 48000001 		bl _Znwj
 3669              	.LEHE0:
 3670              	.LVL371:
 3671 1234 80A1002C 		lwz 5,44(1)
 3672 1238 7F84E378 		mr 4,28
 3673 123c 7C7F1B78 		mr 31,3
 3674              	.LEHB1:
 3675 1240 48000001 		bl _ZN12GuiImageDataC1EPKhi
 3676              	.LEHE1:
 3677              	.LVL372:
 3678              	.LBB4893:
 3679              	.LBB4894:
 3680              	.LBB4895:
 3681              	.LBB4896:
 3682              		.loc 2 266 0 discriminator 1
 3683 1244 813E0008 		lwz 9,8(30)
 3684              	.LVL373:
 3685              	.LBB4897:
 3686              	.LBB4898:
 3687              		.loc 1 1089 0 discriminator 1
 3688 1248 2F890000 		cmpwi 7,9,0
 3689 124c 419E0174 		beq- 7,.L202
 3690              		.loc 1 1089 0 is_stmt 0
 3691 1250 7FBBEB78 		mr 27,29
 3692 1254 48000014 		b .L205
 3693              	.LVL374:
 3694              	.L253:
 3695              	.LBE4898:
 3696              		.loc 2 266 0 is_stmt 1
 3697 1258 7D3B4B78 		mr 27,9
 3698              		.loc 1 1091 0
 3699 125c 81290008 		lwz 9,8(9)
 3700              	.LVL375:
 3701              	.LBB4899:
 3702              		.loc 1 1089 0
 3703 1260 2F890000 		cmpwi 7,9,0
 3704 1264 419E001C 		beq- 7,.L252
 3705              	.LVL376:
 3706              	.L205:
 3707              		.loc 1 1090 0
 3708 1268 80090010 		lwz 0,16(9)
 3709 126c 7F80E040 		cmplw 7,0,28
 3710 1270 40BCFFE8 		bge- 7,.L253
 3711              	.LVL377:
 3712              	.LBE4899:
 3713              		.loc 2 266 0
 3714 1274 8129000C 		lwz 9,12(9)
 3715              	.LVL378:
 3716              	.LBB4900:
 3717              		.loc 1 1089 0
 3718 1278 2F890000 		cmpwi 7,9,0
 3719 127c 409EFFEC 		bne+ 7,.L205
 3720              	.L252:
 3721              	.LBE4900:
 3722              	.LBE4897:
 3723              	.LBE4896:
 3724              	.LBE4895:
 3725              		.loc 4 452 0
 3726 1280 7F9DD800 		cmpw 7,29,27
 3727              	.LBB4904:
 3728              	.LBB4903:
 3729              	.LBB4902:
 3730              	.LBB4901:
 3731              		.loc 1 1089 0
 3732 1284 7F7ADB78 		mr 26,27
 3733              	.LVL379:
 3734              	.LBE4901:
 3735              	.LBE4902:
 3736              	.LBE4903:
 3737              	.LBE4904:
 3738              		.loc 4 452 0
 3739 1288 419E0138 		beq- 7,.L202
 3740              	.LVL380:
 3741 128c 801B0010 		lwz 0,16(27)
 3742 1290 7F80E040 		cmplw 7,0,28
 3743 1294 409D0080 		ble- 7,.L207
 3744              	.LVL381:
 3745              	.LBB4905:
 3746              	.LBB4906:
 3747              	.LBB4907:
 3748              	.LBB4908:
 3749              	.LBB4909:
 3750              		.loc 1 1347 0
 3751 1298 80BE000C 		lwz 5,12(30)
 3752              	.LBE4909:
 3753              	.LBE4908:
 3754              	.LBE4907:
 3755              	.LBE4906:
 3756              	.LBE4905:
 3757              	.LBB5004:
 3758              	.LBB5005:
 3759              		.loc 5 104 0
 3760 129c 93810018 		stw 28,24(1)
 3761              	.LBE5005:
 3762              	.LBE5004:
 3763              	.LBB5009:
 3764              	.LBB4999:
 3765              	.LBB4994:
 3766              	.LBB4987:
 3767              	.LBB4967:
 3768              		.loc 1 1347 0
 3769 12a0 7F85D800 		cmpw 7,5,27
 3770              	.LBE4967:
 3771              	.LBE4987:
 3772              	.LBE4994:
 3773              	.LBE4999:
 3774              	.LBE5009:
 3775              	.LBB5010:
 3776              	.LBB5006:
 3777              		.loc 5 104 0
 3778 12a4 9121001C 		stw 9,28(1)
 3779              	.LVL382:
 3780              	.LBE5006:
 3781              	.LBE5010:
 3782              	.LBB5011:
 3783              	.LBB5000:
 3784              	.LBB4995:
 3785              	.LBB4988:
 3786              	.LBB4968:
 3787              		.loc 1 1347 0
 3788 12a8 419E01C4 		beq- 7,.L254
 3789              	.LBB4910:
 3790              	.LBB4911:
 3791              		.loc 1 284 0
 3792 12ac 7F63DB78 		mr 3,27
 3793 12b0 48000001 		bl _ZSt18_Rb_tree_decrementPKSt18_Rb_tree_node_base
 3794              	.LVL383:
 3795              	.LBE4911:
 3796              	.LBE4910:
 3797              	.LBE4968:
 3798              	.LBE4988:
 3799              		.loc 2 266 0
 3800 12b4 80030010 		lwz 0,16(3)
 3801              	.LBB4989:
 3802              	.LBB4969:
 3803              	.LBB4913:
 3804              	.LBB4912:
 3805              		.loc 1 284 0
 3806 12b8 7C651B78 		mr 5,3
 3807              	.LVL384:
 3808              	.LBE4912:
 3809              	.LBE4913:
 3810              		.loc 1 1350 0
 3811 12bc 7F9C0040 		cmplw 7,28,0
 3812 12c0 409D015C 		ble- 7,.L215
 3813              		.loc 1 1353 0
 3814 12c4 8003000C 		lwz 0,12(3)
 3815              	.LBB4914:
 3816              	.LBB4915:
 3817              	.LBB4916:
 3818              	.LBB4917:
 3819              	.LBB4918:
 3820              	.LBB4919:
 3821              	.LBB4920:
 3822              		.loc 3 92 0
 3823 12c8 38600018 		li 3,24
 3824              	.LVL385:
 3825              	.LBE4920:
 3826              	.LBE4919:
 3827              	.LBE4918:
 3828              	.LBE4917:
 3829              	.LBE4916:
 3830              	.LBE4915:
 3831              	.LBE4914:
 3832              		.loc 1 1353 0
 3833 12cc 2F800000 		cmpwi 7,0,0
 3834 12d0 419E0160 		beq- 7,.L255
 3835              	.LVL386:
 3836              	.LEHB2:
 3837              	.LBB4938:
 3838              	.LBB4939:
 3839              	.LBB4940:
 3840              	.LBB4941:
 3841              	.LBB4942:
 3842              	.LBB4943:
 3843              	.LBB4944:
 3844              		.loc 3 92 0
 3845 12d4 48000001 		bl _Znwj
 3846              	.LVL387:
 3847              	.LBE4944:
 3848              	.LBE4943:
 3849              	.LBE4942:
 3850              	.LBB4947:
 3851              	.LBB4948:
 3852              		.loc 3 108 0
 3853 12d8 2F83FFF0 		cmpwi 7,3,-16
 3854              	.LBE4948:
 3855              	.LBE4947:
 3856              	.LBB4950:
 3857              	.LBB4946:
 3858              	.LBB4945:
 3859              		.loc 3 92 0
 3860 12dc 7C7B1B78 		mr 27,3
 3861              	.LVL388:
 3862              	.LBE4945:
 3863              	.LBE4946:
 3864              	.LBE4950:
 3865              	.LBB4951:
 3866              	.LBB4949:
 3867              		.loc 3 108 0
 3868 12e0 419E0014 		beq- 7,.L221
 3869 12e4 81410018 		lwz 10,24(1)
 3870 12e8 8161001C 		lwz 11,28(1)
 3871 12ec 91430010 		stw 10,16(3)
 3872 12f0 91630014 		stw 11,20(3)
 3873              	.L221:
 3874              	.LVL389:
 3875              	.LBE4949:
 3876              	.LBE4951:
 3877              	.LBE4941:
 3878              	.LBE4940:
 3879              		.loc 1 973 0
 3880 12f4 38600001 		li 3,1
 3881              	.LVL390:
 3882              	.L246:
 3883 12f8 7F64DB78 		mr 4,27
 3884 12fc 7F45D378 		mr 5,26
 3885              	.LVL391:
 3886              	.L247:
 3887 1300 7FA6EB78 		mr 6,29
 3888 1304 48000001 		bl _ZSt29_Rb_tree_insert_and_rebalancebPSt18_Rb_tree_node_baseS0_RS_
 3889              	.LVL392:
 3890              		.loc 1 976 0
 3891 1308 801E0014 		lwz 0,20(30)
 3892 130c 30000001 		addic 0,0,1
 3893 1310 901E0014 		stw 0,20(30)
 3894              	.LVL393:
 3895              	.L207:
 3896              	.LBE4939:
 3897              	.LBE4938:
 3898              	.LBE4969:
 3899              	.LBE4989:
 3900              	.LBE4995:
 3901              	.LBE5000:
 3902              	.LBE5011:
 3903              	.LBE4894:
 3904              	.LBE4893:
 3905              		.loc 2 192 0
 3906 1314 93FB0014 		stw 31,20(27)
 3907              	.LVL394:
 3908              	.LBB5018:
 3909              	.LBB5019:
 3910              	.LBB5020:
 3911              	.LBB5021:
 3912              		.loc 1 828 0
 3913 1318 397E0034 		addi 11,30,52
 3914              	.LBB5022:
 3915              	.LBB5023:
 3916              		.loc 1 1089 0
 3917 131c 7D635B78 		mr 3,11
 3918              	.LBE5023:
 3919              	.LBE5022:
 3920              		.loc 2 266 0
 3921 1320 813E0038 		lwz 9,56(30)
 3922              	.LVL395:
 3923              	.LBB5027:
 3924              	.LBB5024:
 3925              		.loc 1 1089 0
 3926 1324 2F890000 		cmpwi 7,9,0
 3927 1328 40BE0018 		bne+ 7,.L225
 3928 132c 48000040 		b .L222
 3929              	.LVL396:
 3930              	.L257:
 3931              	.LBE5024:
 3932              		.loc 2 266 0
 3933 1330 7D234B78 		mr 3,9
 3934              		.loc 1 1091 0
 3935 1334 81290008 		lwz 9,8(9)
 3936              	.LVL397:
 3937              	.LBB5025:
 3938              		.loc 1 1089 0
 3939 1338 2F890000 		cmpwi 7,9,0
 3940 133c 419E001C 		beq- 7,.L256
 3941              	.LVL398:
 3942              	.L225:
 3943              		.loc 1 1090 0
 3944 1340 80090010 		lwz 0,16(9)
 3945 1344 7F9F0040 		cmplw 7,31,0
 3946 1348 40BDFFE8 		ble- 7,.L257
 3947              	.LBE5025:
 3948              		.loc 2 266 0
 3949 134c 8129000C 		lwz 9,12(9)
 3950              	.LVL399:
 3951              	.LBB5026:
 3952              		.loc 1 1089 0
 3953 1350 2F890000 		cmpwi 7,9,0
 3954 1354 409EFFEC 		bne+ 7,.L225
 3955              	.L256:
 3956              	.LVL400:
 3957              	.LBE5026:
 3958              	.LBE5027:
 3959              	.LBE5021:
 3960              	.LBE5020:
 3961              		.loc 4 452 0
 3962 1358 7F8B1800 		cmpw 7,11,3
 3963 135c 419E0010 		beq- 7,.L222
 3964              	.LVL401:
 3965 1360 80030010 		lwz 0,16(3)
 3966 1364 7F9F0040 		cmplw 7,31,0
 3967 1368 409C0024 		bge- 7,.L226
 3968              	.LVL402:
 3969              	.L222:
 3970              	.LBB5028:
 3971              	.LBB5029:
 3972              		.loc 4 571 0
 3973 136c 7C240B78 		mr 4,1
 3974              	.LBE5029:
 3975              	.LBE5028:
 3976              	.LBB5032:
 3977              	.LBB5033:
 3978              		.loc 5 104 0
 3979 1370 38000000 		li 0,0
 3980 1374 93E10010 		stw 31,16(1)
 3981              	.LBE5033:
 3982              	.LBE5032:
 3983              	.LBB5035:
 3984              	.LBB5030:
 3985              		.loc 4 571 0
 3986 1378 38A10010 		addi 5,1,16
 3987              	.LBE5030:
 3988              	.LBE5035:
 3989              	.LBB5036:
 3990              	.LBB5034:
 3991              		.loc 5 104 0
 3992 137c 90010014 		stw 0,20(1)
 3993              	.LVL403:
 3994              	.LBE5034:
 3995              	.LBE5036:
 3996              	.LBB5037:
 3997              	.LBB5031:
 3998              		.loc 4 571 0
 3999 1380 94640028 		stwu 3,40(4)
 4000 1384 387E0030 		addi 3,30,48
 4001              	.LVL404:
 4002 1388 4BFFF479 		bl _ZNSt8_Rb_treeIP12GuiImageDataSt4pairIKS1_iESt10_Select1stIS4_ESt4lessIS1_ESaIS4_EE17_M_insert_
 4003              	.LVL405:
 4004              	.L226:
 4005              	.LBE5031:
 4006              	.LBE5037:
 4007              	.LBE5019:
 4008              	.LBE5018:
 4009              		.loc 2 193 0
 4010 138c 38000001 		li 0,1
 4011              	.LBE5040:
 4012              	.LBE5047:
 4013              		.loc 2 199 0
 4014 1390 83410030 		lwz 26,48(1)
 4015              	.LBB5048:
 4016              	.LBB5041:
 4017              		.loc 2 193 0
 4018 1394 90030014 		stw 0,20(3)
 4019              	.LBE5041:
 4020              	.LBE5048:
 4021              		.loc 2 199 0
 4022 1398 7FE3FB78 		mr 3,31
 4023              	.LVL406:
 4024 139c 8001004C 		lwz 0,76(1)
 4025 13a0 83610034 		lwz 27,52(1)
 4026              	.LVL407:
 4027 13a4 7C0803A6 		mtlr 0
 4028 13a8 83810038 		lwz 28,56(1)
 4029              	.LVL408:
 4030 13ac 83A1003C 		lwz 29,60(1)
 4031              	.LVL409:
 4032 13b0 83C10040 		lwz 30,64(1)
 4033              	.LVL410:
 4034 13b4 83E10044 		lwz 31,68(1)
 4035              	.LVL411:
 4036 13b8 38210048 		addi 1,1,72
 4037              		.cfi_remember_state
 4038              		.cfi_restore 26
 4039              		.cfi_restore 27
 4040              		.cfi_restore 28
 4041              		.cfi_restore 29
 4042              		.cfi_restore 30
 4043              		.cfi_restore 31
 4044              	.LCFI51:
 4045              		.cfi_def_cfa_offset 0
 4046 13bc 4E800020 		blr
 4047              	.LVL412:
 4048              	.L202:
 4049              	.LCFI52:
 4050              		.cfi_restore_state
 4051              	.LBB5049:
 4052              	.LBB5042:
 4053              	.LBB5038:
 4054              	.LBB5017:
 4055              	.LBB5012:
 4056              	.LBB5001:
 4057              	.LBB4996:
 4058              	.LBB4990:
 4059              		.loc 1 1335 0
 4060 13c0 801E0014 		lwz 0,20(30)
 4061              	.LBE4990:
 4062              	.LBE4996:
 4063              	.LBE5001:
 4064              	.LBE5012:
 4065              	.LBB5013:
 4066              	.LBB5007:
 4067              		.loc 5 104 0
 4068 13c4 93810018 		stw 28,24(1)
 4069              	.LBE5007:
 4070              	.LBE5013:
 4071              	.LBB5014:
 4072              	.LBB5002:
 4073              	.LBB4997:
 4074              	.LBB4991:
 4075              		.loc 1 1335 0
 4076 13c8 2F800000 		cmpwi 7,0,0
 4077              	.LBE4991:
 4078              	.LBE4997:
 4079              	.LBE5002:
 4080              	.LBE5014:
 4081              	.LBB5015:
 4082              	.LBB5008:
 4083              		.loc 5 104 0
 4084 13cc 38000000 		li 0,0
 4085 13d0 9001001C 		stw 0,28(1)
 4086              	.LVL413:
 4087              	.LBE5008:
 4088              	.LBE5015:
 4089              	.LBB5016:
 4090              	.LBB5003:
 4091              	.LBB4998:
 4092              	.LBB4992:
 4093              		.loc 1 1335 0
 4094 13d4 419E0048 		beq- 7,.L215
 4095              	.LVL414:
 4096 13d8 835E0010 		lwz 26,16(30)
 4097              	.LVL415:
 4098              	.LBE4992:
 4099              		.loc 2 266 0
 4100 13dc 801A0010 		lwz 0,16(26)
 4101              	.LBB4993:
 4102              		.loc 1 1335 0
 4103 13e0 7F9C0040 		cmplw 7,28,0
 4104 13e4 409D0038 		ble- 7,.L215
 4105              	.LVL416:
 4106              	.LBB4970:
 4107              	.LBB4971:
 4108              	.LBB4972:
 4109              	.LBB4973:
 4110              	.LBB4974:
 4111              	.LBB4975:
 4112              	.LBB4976:
 4113              		.loc 3 92 0
 4114 13e8 38600018 		li 3,24
 4115 13ec 48000001 		bl _Znwj
 4116              	.LVL417:
 4117              	.LBE4976:
 4118              	.LBE4975:
 4119              	.LBE4974:
 4120              	.LBB4979:
 4121              	.LBB4980:
 4122              		.loc 3 108 0
 4123 13f0 2F83FFF0 		cmpwi 7,3,-16
 4124              	.LBE4980:
 4125              	.LBE4979:
 4126              	.LBB4982:
 4127              	.LBB4978:
 4128              	.LBB4977:
 4129              		.loc 3 92 0
 4130 13f4 7C7B1B78 		mr 27,3
 4131              	.LBE4977:
 4132              	.LBE4978:
 4133              	.LBE4982:
 4134              	.LBE4973:
 4135              	.LBE4972:
 4136              		.loc 2 185 0
 4137 13f8 7FA3D278 		xor 3,29,26
 4138 13fc 7C630034 		cntlzw 3,3
 4139 1400 5463D97E 		srwi 3,3,5
 4140              	.LVL418:
 4141              	.LBB4985:
 4142              	.LBB4984:
 4143              	.LBB4983:
 4144              	.LBB4981:
 4145              		.loc 3 108 0
 4146 1404 41BEFEF4 		beq- 7,.L246
 4147 1408 81410018 		lwz 10,24(1)
 4148 140c 8161001C 		lwz 11,28(1)
 4149 1410 915B0010 		stw 10,16(27)
 4150 1414 917B0014 		stw 11,20(27)
 4151              	.LVL419:
 4152 1418 4BFFFEE0 		b .L246
 4153              	.LVL420:
 4154              	.L215:
 4155              	.LBE4981:
 4156              	.LBE4983:
 4157              	.LBE4984:
 4158              	.LBE4985:
 4159              	.LBE4971:
 4160              	.LBE4970:
 4161              	.LBB4986:
 4162              		.loc 1 1362 0
 4163 141c 7FC3F378 		mr 3,30
 4164 1420 38810018 		addi 4,1,24
 4165              	.LVL421:
 4166 1424 4BFFEBDD 		bl _ZNSt8_Rb_treeIPKhSt4pairIKS1_P12GuiImageDataESt10_Select1stIS6_ESt4lessIS1_ESaIS6_EE16_M_inser
 4167              	.LVL422:
 4168 1428 7C7B1B78 		mr 27,3
 4169              	.LVL423:
 4170 142c 4BFFFEE8 		b .L207
 4171              	.LVL424:
 4172              	.L255:
 4173              	.LBB4952:
 4174              	.LBB4937:
 4175              	.LBB4934:
 4176              	.LBB4931:
 4177              	.LBB4925:
 4178              	.LBB4923:
 4179              	.LBB4921:
 4180              		.loc 3 92 0
 4181 1430 90A1002C 		stw 5,44(1)
 4182 1434 48000001 		bl _Znwj
 4183              	.LVL425:
 4184              	.LBE4921:
 4185              	.LBE4923:
 4186              	.LBE4925:
 4187              	.LBB4926:
 4188              	.LBB4927:
 4189              		.loc 3 108 0
 4190 1438 2F83FFF0 		cmpwi 7,3,-16
 4191              	.LBE4927:
 4192              	.LBE4926:
 4193              	.LBE4931:
 4194              	.LBE4934:
 4195              		.loc 2 185 0
 4196 143c 80A1002C 		lwz 5,44(1)
 4197              	.LBB4935:
 4198              	.LBB4932:
 4199              	.LBB4929:
 4200              	.LBB4924:
 4201              	.LBB4922:
 4202              		.loc 3 92 0
 4203 1440 7C7B1B78 		mr 27,3
 4204              	.LBE4922:
 4205              	.LBE4924:
 4206              	.LBE4929:
 4207              	.LBE4932:
 4208              	.LBE4935:
 4209              		.loc 2 185 0
 4210 1444 7FA32A78 		xor 3,29,5
 4211 1448 7C630034 		cntlzw 3,3
 4212 144c 5463D97E 		srwi 3,3,5
 4213              	.LVL426:
 4214              	.LBB4936:
 4215              	.LBB4933:
 4216              	.LBB4930:
 4217              	.LBB4928:
 4218              		.loc 3 108 0
 4219 1450 419E0014 		beq- 7,.L219
 4220 1454 81410018 		lwz 10,24(1)
 4221 1458 8161001C 		lwz 11,28(1)
 4222 145c 915B0010 		stw 10,16(27)
 4223 1460 917B0014 		stw 11,20(27)
 4224              	.L219:
 4225              	.LVL427:
 4226              	.LBE4928:
 4227              	.LBE4930:
 4228              	.LBE4933:
 4229              	.LBE4936:
 4230              		.loc 1 973 0
 4231 1464 7F64DB78 		mr 4,27
 4232 1468 4BFFFE98 		b .L247
 4233              	.LVL428:
 4234              	.L254:
 4235              	.LBE4937:
 4236              	.LBE4952:
 4237              	.LBB4953:
 4238              	.LBB4954:
 4239              	.LBB4955:
 4240              	.LBB4956:
 4241              	.LBB4957:
 4242              	.LBB4958:
 4243              	.LBB4959:
 4244              		.loc 3 92 0
 4245 146c 38600018 		li 3,24
 4246 1470 90A1002C 		stw 5,44(1)
 4247 1474 48000001 		bl _Znwj
 4248              	.LVL429:
 4249              	.LBE4959:
 4250              	.LBE4958:
 4251              	.LBE4957:
 4252              	.LBB4962:
 4253              	.LBB4963:
 4254              		.loc 3 108 0
 4255 1478 80A1002C 		lwz 5,44(1)
 4256 147c 2F83FFF0 		cmpwi 7,3,-16
 4257              	.LBE4963:
 4258              	.LBE4962:
 4259              	.LBB4965:
 4260              	.LBB4961:
 4261              	.LBB4960:
 4262              		.loc 3 92 0
 4263 1480 7C7B1B78 		mr 27,3
 4264              	.LVL430:
 4265              	.LBE4960:
 4266              	.LBE4961:
 4267              	.LBE4965:
 4268              	.LBB4966:
 4269              	.LBB4964:
 4270              		.loc 3 108 0
 4271 1484 419E0014 		beq- 7,.L214
 4272 1488 81410018 		lwz 10,24(1)
 4273 148c 8161001C 		lwz 11,28(1)
 4274 1490 91430010 		stw 10,16(3)
 4275 1494 91630014 		stw 11,20(3)
 4276              	.L214:
 4277              	.LVL431:
 4278              	.LBE4964:
 4279              	.LBE4966:
 4280              	.LBE4956:
 4281              	.LBE4955:
 4282              		.loc 1 973 0
 4283 1498 38600001 		li 3,1
 4284              	.LVL432:
 4285 149c 7F64DB78 		mr 4,27
 4286 14a0 4BFFFE60 		b .L247
 4287              	.LVL433:
 4288              	.L239:
 4289 14a4 7C7E1B78 		mr 30,3
 4290              	.LVL434:
 4291              	.LBE4954:
 4292              	.LBE4953:
 4293              	.LBE4986:
 4294              	.LBE4993:
 4295              	.LBE4998:
 4296              	.LBE5003:
 4297              	.LBE5016:
 4298              	.LBE5017:
 4299              	.LBE5038:
 4300              		.loc 2 191 0
 4301 14a8 7FE3FB78 		mr 3,31
 4302 14ac 48000001 		bl _ZdlPv
 4303 14b0 7FC3F378 		mr 3,30
 4304 14b4 48000001 		bl _Unwind_Resume
 4305              	.LEHE2:
 4306              	.LBE5042:
 4307              	.LBE5049:
 4308              		.cfi_endproc
 4309              	.LFE1569:
 4310              		.globl __gxx_personality_v0
 4311              		.section	.gcc_except_table,"a",@progbits
 4312              	.LLSDA1569:
 4313 0000 FF       		.byte	0xff
 4314 0001 FF       		.byte	0xff
 4315 0002 01       		.byte	0x1
 4316 0003 11       		.uleb128 .LLSDACSE1569-.LLSDACSB1569
 4317              	.LLSDACSB1569:
 4318 0004 F401     		.uleb128 .LEHB0-.LFB1569
 4319 0006 4C       		.uleb128 .LEHE0-.LEHB0
 4320 0007 00       		.uleb128 0
 4321 0008 00       		.uleb128 0
 4322 0009 CC02     		.uleb128 .LEHB1-.LFB1569
 4323 000b 04       		.uleb128 .LEHE1-.LEHB1
 4324 000c B007     		.uleb128 .L239-.LFB1569
 4325 000e 00       		.uleb128 0
 4326 000f E003     		.uleb128 .LEHB2-.LFB1569
 4327 0011 E403     		.uleb128 .LEHE2-.LEHB2
 4328 0013 00       		.uleb128 0
 4329 0014 00       		.uleb128 0
 4330              	.LLSDACSE1569:
 4331              		.section	".text"
 4332              		.size	_ZN9Resources20InternalGetImageDataEPKhj, .-_ZN9Resources20InternalGetImageDataEPKhj
 4333              		.align 2
 4334              		.globl _ZN9Resources12GetImageDataEPKc
 4335              		.type	_ZN9Resources12GetImageDataEPKc, @function
 4336              	_ZN9Resources12GetImageDataEPKc:
 4337              	.LFB1565:
 4338              		.loc 2 142 0
 4339              		.cfi_startproc
 4340              	.LVL435:
 4341 14b8 9421FFE8 		stwu 1,-24(1)
 4342              	.LCFI53:
 4343              		.cfi_def_cfa_offset 24
 4344 14bc 7C0802A6 		mflr 0
 4345 14c0 93A1000C 		stw 29,12(1)
 4346              	.LBB5050:
 4347              		.loc 2 143 0
 4348 14c4 7C7D1B79 		mr. 29,3
 4349              		.cfi_offset 29, -12
 4350              		.cfi_register 65, 0
 4351              	.LBE5050:
 4352              		.loc 2 142 0
 4353 14c8 9001001C 		stw 0,28(1)
 4354 14cc 93810008 		stw 28,8(1)
 4355 14d0 93C10010 		stw 30,16(1)
 4356 14d4 93E10014 		stw 31,20(1)
 4357              	.LBB5067:
 4358              		.loc 2 143 0
 4359 14d8 4182008C 		beq- 0,.L259
 4360              		.cfi_offset 31, -4
 4361              		.cfi_offset 30, -8
 4362              		.cfi_offset 28, -16
 4363              		.cfi_offset 65, 4
 4364              	.LVL436:
 4365              	.LBB5051:
 4366              		.loc 2 146 0 discriminator 1
 4367 14dc 3F800000 		lis 28,.LANCHOR0@ha
 4368 14e0 809C0000 		lwz 4,.LANCHOR0@l(28)
 4369 14e4 3B9C0000 		la 28,.LANCHOR0@l(28)
 4370 14e8 2F840000 		cmpwi 7,4,0
 4371 14ec 419E0078 		beq- 7,.L259
 4372              		.loc 2 146 0 is_stmt 0
 4373 14f0 3BFC0014 		addi 31,28,20
 4374 14f4 3BC00000 		li 30,0
 4375 14f8 48000014 		b .L263
 4376              	.LVL437:
 4377              	.L260:
 4378 14fc 809FFFEC 		lwz 4,-20(31)
 4379 1500 3BDE0001 		addi 30,30,1
 4380              	.LVL438:
 4381 1504 2F840000 		cmpwi 7,4,0
 4382 1508 419E005C 		beq- 7,.L259
 4383              	.LVL439:
 4384              	.L263:
 4385              	.LBB5052:
 4386              		.loc 2 148 0 is_stmt 1
 4387 150c 7FA3EB78 		mr 3,29
 4388              	.LBE5052:
 4389              		.loc 2 146 0
 4390 1510 3BFF0014 		addi 31,31,20
 4391              	.LBB5058:
 4392              		.loc 2 148 0
 4393 1514 48000001 		bl strcasecmp
 4394 1518 2F830000 		cmpwi 7,3,0
 4395 151c 409EFFE0 		bne+ 7,.L260
 4396              	.LBB5053:
 4397              		.loc 2 150 0
 4398 1520 1FDE0014 		mulli 30,30,20
 4399 1524 7F9CF214 		add 28,28,30
 4400 1528 83BC000C 		lwz 29,12(28)
 4401              	.LVL440:
 4402 152c 2F9D0000 		cmpwi 7,29,0
 4403 1530 419E0058 		beq- 7,.L267
 4404              	.LVL441:
 4405              		.loc 2 151 0 discriminator 3
 4406 1534 83FC0010 		lwz 31,16(28)
 4407              	.LVL442:
 4408              	.L262:
 4409              		.loc 2 152 0 discriminator 3
 4410 1538 48000001 		bl _ZN9Resources8InstanceEv
 4411              	.LBE5053:
 4412              	.LBE5058:
 4413              	.LBE5051:
 4414              	.LBE5067:
 4415              		.loc 2 156 0 discriminator 3
 4416 153c 8001001C 		lwz 0,28(1)
 4417 1540 83810008 		lwz 28,8(1)
 4418              	.LBB5068:
 4419              	.LBB5063:
 4420              	.LBB5059:
 4421              	.LBB5054:
 4422              		.loc 2 152 0 discriminator 3
 4423 1544 7FA4EB78 		mr 4,29
 4424              	.LBE5054:
 4425              	.LBE5059:
 4426              	.LBE5063:
 4427              	.LBE5068:
 4428              		.loc 2 156 0 discriminator 3
 4429 1548 83C10010 		lwz 30,16(1)
 4430              	.LBB5069:
 4431              	.LBB5064:
 4432              	.LBB5060:
 4433              	.LBB5055:
 4434              		.loc 2 152 0 discriminator 3
 4435 154c 7FE5FB78 		mr 5,31
 4436              	.LBE5055:
 4437              	.LBE5060:
 4438              	.LBE5064:
 4439              	.LBE5069:
 4440              		.loc 2 156 0 discriminator 3
 4441 1550 83A1000C 		lwz 29,12(1)
 4442              	.LVL443:
 4443 1554 7C0803A6 		mtlr 0
 4444 1558 83E10014 		lwz 31,20(1)
 4445              	.LVL444:
 4446 155c 38210018 		addi 1,1,24
 4447              		.cfi_remember_state
 4448              	.LCFI54:
 4449              		.cfi_def_cfa_offset 0
 4450              		.cfi_restore 31
 4451              		.cfi_restore 30
 4452              		.cfi_restore 29
 4453              		.cfi_restore 28
 4454              	.LBB5070:
 4455              	.LBB5065:
 4456              	.LBB5061:
 4457              	.LBB5056:
 4458              		.loc 2 152 0 discriminator 3
 4459 1560 48000000 		b _ZN9Resources20InternalGetImageDataEPKhj
 4460              	.LVL445:
 4461              	.L259:
 4462              	.LCFI55:
 4463              		.cfi_restore_state
 4464              	.LBE5056:
 4465              	.LBE5061:
 4466              	.LBE5065:
 4467              	.LBE5070:
 4468              		.loc 2 156 0
 4469 1564 8001001C 		lwz 0,28(1)
 4470 1568 38600000 		li 3,0
 4471 156c 83810008 		lwz 28,8(1)
 4472 1570 7C0803A6 		mtlr 0
 4473 1574 83A1000C 		lwz 29,12(1)
 4474              	.LVL446:
 4475 1578 83C10010 		lwz 30,16(1)
 4476 157c 83E10014 		lwz 31,20(1)
 4477 1580 38210018 		addi 1,1,24
 4478              		.cfi_remember_state
 4479              	.LCFI56:
 4480              		.cfi_def_cfa_offset 0
 4481              		.cfi_restore 31
 4482              		.cfi_restore 30
 4483              		.cfi_restore 29
 4484              		.cfi_restore 28
 4485 1584 4E800020 		blr
 4486              	.L267:
 4487              	.LCFI57:
 4488              		.cfi_restore_state
 4489              	.LBB5071:
 4490              	.LBB5066:
 4491              	.LBB5062:
 4492              	.LBB5057:
 4493              		.loc 2 150 0 discriminator 2
 4494 1588 83BC0004 		lwz 29,4(28)
 4495              	.LVL447:
 4496              		.loc 2 151 0 discriminator 2
 4497 158c 83FC0008 		lwz 31,8(28)
 4498 1590 4BFFFFA8 		b .L262
 4499              	.LBE5057:
 4500              	.LBE5062:
 4501              	.LBE5066:
 4502              	.LBE5071:
 4503              		.cfi_endproc
 4504              	.LFE1565:
 4505              		.size	_ZN9Resources12GetImageDataEPKc, .-_ZN9Resources12GetImageDataEPKc
 4506              		.align 2
 4507              		.globl _ZN9Resources16InternalGetSoundEPKhi
 4508              		.type	_ZN9Resources16InternalGetSoundEPKhi, @function
 4509              	_ZN9Resources16InternalGetSoundEPKhi:
 4510              	.LFB1570:
 4511              		.loc 2 202 0
 4512              		.cfi_startproc
 4513              		.cfi_personality 0,__gxx_personality_v0
 4514              		.cfi_lsda 0,.LLSDA1570
 4515              	.LVL448:
 4516 1594 7C0802A6 		mflr 0
 4517 1598 9421FFB0 		stwu 1,-80(1)
 4518              	.LCFI58:
 4519              		.cfi_def_cfa_offset 80
 4520              		.cfi_register 65, 0
 4521 159c 93810040 		stw 28,64(1)
 4522 15a0 7C9C2378 		mr 28,4
 4523              		.cfi_offset 28, -16
 4524 15a4 90010054 		stw 0,84(1)
 4525 15a8 93A10044 		stw 29,68(1)
 4526              	.LBB5244:
 4527              	.LBB5245:
 4528              	.LBB5246:
 4529              		.loc 1 1536 0
 4530 15ac 3BA3001C 		addi 29,3,28
 4531              		.cfi_offset 29, -12
 4532              		.cfi_offset 65, 4
 4533              		.loc 2 266 0
 4534 15b0 81230020 		lwz 9,32(3)
 4535              	.LBE5246:
 4536              	.LBE5245:
 4537              	.LBE5244:
 4538              		.loc 2 202 0
 4539 15b4 93C10048 		stw 30,72(1)
 4540 15b8 7C7E1B78 		mr 30,3
 4541              		.cfi_offset 30, -8
 4542              	.LVL449:
 4543              	.LBB5432:
 4544              	.LBB5257:
 4545              	.LBB5255:
 4546              	.LBB5247:
 4547              	.LBB5248:
 4548              	.LBB5249:
 4549              		.loc 1 1089 0
 4550 15bc 2F890000 		cmpwi 7,9,0
 4551              	.LBE5249:
 4552              	.LBE5248:
 4553              	.LBE5247:
 4554              	.LBE5255:
 4555              	.LBE5257:
 4556              	.LBE5432:
 4557              		.loc 2 202 0
 4558 15c0 93210034 		stw 25,52(1)
 4559 15c4 93410038 		stw 26,56(1)
 4560 15c8 9361003C 		stw 27,60(1)
 4561 15cc 93E1004C 		stw 31,76(1)
 4562              	.LBB5433:
 4563              	.LBB5258:
 4564              	.LBB5256:
 4565              	.LBB5254:
 4566              	.LBB5253:
 4567              	.LBB5250:
 4568              		.loc 1 1089 0
 4569 15d0 419E0100 		beq- 7,.L269
 4570              		.cfi_offset 31, -4
 4571              		.cfi_offset 27, -20
 4572              		.cfi_offset 26, -24
 4573              		.cfi_offset 25, -28
 4574 15d4 7FBBEB78 		mr 27,29
 4575 15d8 48000014 		b .L272
 4576              	.LVL450:
 4577              	.L322:
 4578              	.LBE5250:
 4579              		.loc 2 266 0
 4580 15dc 7D3B4B78 		mr 27,9
 4581              		.loc 1 1091 0
 4582 15e0 81290008 		lwz 9,8(9)
 4583              	.LVL451:
 4584              	.LBB5251:
 4585              		.loc 1 1089 0
 4586 15e4 2F890000 		cmpwi 7,9,0
 4587 15e8 419E001C 		beq- 7,.L321
 4588              	.LVL452:
 4589              	.L272:
 4590              		.loc 1 1090 0
 4591 15ec 80090010 		lwz 0,16(9)
 4592 15f0 7F80E040 		cmplw 7,0,28
 4593 15f4 40BCFFE8 		bge- 7,.L322
 4594              	.LVL453:
 4595              	.LBE5251:
 4596              		.loc 2 266 0
 4597 15f8 8129000C 		lwz 9,12(9)
 4598              	.LVL454:
 4599              	.LBB5252:
 4600              		.loc 1 1089 0
 4601 15fc 2F890000 		cmpwi 7,9,0
 4602 1600 409EFFEC 		bne+ 7,.L272
 4603              	.L321:
 4604              	.LVL455:
 4605              	.LBE5252:
 4606              	.LBE5253:
 4607              		.loc 1 1539 0
 4608 1604 7F9DD800 		cmpw 7,29,27
 4609 1608 419E00C8 		beq- 7,.L269
 4610              	.LVL456:
 4611 160c 801B0010 		lwz 0,16(27)
 4612 1610 7F80E040 		cmplw 7,0,28
 4613 1614 419D00BC 		bgt- 7,.L269
 4614              	.LVL457:
 4615              	.LBE5254:
 4616              	.LBE5256:
 4617              	.LBE5258:
 4618              	.LBB5259:
 4619              	.LBB5260:
 4620              	.LBB5261:
 4621              	.LBB5262:
 4622              		.loc 2 266 0
 4623 1618 813E0050 		lwz 9,80(30)
 4624              	.LVL458:
 4625              		.loc 1 828 0
 4626 161c 397E004C 		addi 11,30,76
 4627              	.LVL459:
 4628              	.LBE5262:
 4629              	.LBE5261:
 4630              	.LBE5260:
 4631              	.LBE5259:
 4632              	.LBB5280:
 4633              		.loc 2 211 0
 4634 1620 83FB0014 		lwz 31,20(27)
 4635              	.LBE5280:
 4636              	.LBB5428:
 4637              	.LBB5279:
 4638              	.LBB5268:
 4639              	.LBB5267:
 4640              	.LBB5263:
 4641              	.LBB5264:
 4642              		.loc 1 828 0
 4643 1624 7D635B78 		mr 3,11
 4644              	.LVL460:
 4645              		.loc 1 1089 0
 4646 1628 2F890000 		cmpwi 7,9,0
 4647 162c 40BE0018 		bne+ 7,.L303
 4648 1630 48000040 		b .L274
 4649              	.LVL461:
 4650              	.L324:
 4651              	.LBE5264:
 4652              		.loc 2 266 0
 4653 1634 7D234B78 		mr 3,9
 4654              		.loc 1 1091 0
 4655 1638 81290008 		lwz 9,8(9)
 4656              	.LVL462:
 4657              	.LBB5265:
 4658              		.loc 1 1089 0
 4659 163c 2F890000 		cmpwi 7,9,0
 4660 1640 419E001C 		beq- 7,.L323
 4661              	.LVL463:
 4662              	.L303:
 4663              		.loc 1 1090 0
 4664 1644 80090010 		lwz 0,16(9)
 4665 1648 7F9F0040 		cmplw 7,31,0
 4666 164c 40BDFFE8 		ble- 7,.L324
 4667              	.LBE5265:
 4668              		.loc 2 266 0
 4669 1650 8129000C 		lwz 9,12(9)
 4670              	.LVL464:
 4671              	.LBB5266:
 4672              		.loc 1 1089 0
 4673 1654 2F890000 		cmpwi 7,9,0
 4674 1658 409EFFEC 		bne+ 7,.L303
 4675              	.L323:
 4676              	.LVL465:
 4677              	.LBE5266:
 4678              	.LBE5263:
 4679              	.LBE5267:
 4680              	.LBE5268:
 4681              		.loc 4 452 0
 4682 165c 7F8B1800 		cmpw 7,11,3
 4683 1660 419E0010 		beq- 7,.L274
 4684              	.LVL466:
 4685 1664 80030010 		lwz 0,16(3)
 4686 1668 7F9F0040 		cmplw 7,31,0
 4687 166c 409C0028 		bge- 7,.L304
 4688              	.LVL467:
 4689              	.L274:
 4690              	.LBB5269:
 4691              	.LBB5270:
 4692              		.loc 4 571 0
 4693 1670 7C240B78 		mr 4,1
 4694              	.LVL468:
 4695              	.LBE5270:
 4696              	.LBE5269:
 4697              	.LBB5273:
 4698              	.LBB5274:
 4699              		.loc 5 104 0
 4700 1674 38000000 		li 0,0
 4701 1678 93E10008 		stw 31,8(1)
 4702              	.LBE5274:
 4703              	.LBE5273:
 4704              	.LBB5276:
 4705              	.LBB5271:
 4706              		.loc 4 571 0
 4707 167c 38A10008 		addi 5,1,8
 4708              	.LVL469:
 4709              	.LBE5271:
 4710              	.LBE5276:
 4711              	.LBB5277:
 4712              	.LBB5275:
 4713              		.loc 5 104 0
 4714 1680 9001000C 		stw 0,12(1)
 4715              	.LVL470:
 4716              	.LBE5275:
 4717              	.LBE5277:
 4718              	.LBB5278:
 4719              	.LBB5272:
 4720              		.loc 4 571 0
 4721 1684 94640028 		stwu 3,40(4)
 4722 1688 387E0048 		addi 3,30,72
 4723              	.LVL471:
 4724              	.LEHB3:
 4725 168c 4BFFF4CD 		bl _ZNSt8_Rb_treeIP8GuiSoundSt4pairIKS1_iESt10_Select1stIS4_ESt4lessIS1_ESaIS4_EE17_M_insert_uniqu
 4726              	.LVL472:
 4727 1690 83FB0014 		lwz 31,20(27)
 4728              	.LVL473:
 4729              	.L304:
 4730              	.LBE5272:
 4731              	.LBE5278:
 4732              	.LBE5279:
 4733              	.LBE5428:
 4734              		.loc 2 214 0
 4735 1694 81230014 		lwz 9,20(3)
 4736              	.LBE5433:
 4737              		.loc 2 216 0
 4738 1698 83210034 		lwz 25,52(1)
 4739              	.LBB5434:
 4740              		.loc 2 214 0
 4741 169c 38090001 		addi 0,9,1
 4742              	.LBE5434:
 4743              		.loc 2 216 0
 4744 16a0 83410038 		lwz 26,56(1)
 4745              	.LBB5435:
 4746              		.loc 2 214 0
 4747 16a4 90030014 		stw 0,20(3)
 4748              	.LVL474:
 4749              	.LBE5435:
 4750              		.loc 2 216 0
 4751 16a8 7FE3FB78 		mr 3,31
 4752              	.LVL475:
 4753 16ac 80010054 		lwz 0,84(1)
 4754 16b0 8361003C 		lwz 27,60(1)
 4755              	.LVL476:
 4756 16b4 7C0803A6 		mtlr 0
 4757 16b8 83810040 		lwz 28,64(1)
 4758              	.LVL477:
 4759 16bc 83A10044 		lwz 29,68(1)
 4760              	.LVL478:
 4761 16c0 83C10048 		lwz 30,72(1)
 4762              	.LVL479:
 4763 16c4 83E1004C 		lwz 31,76(1)
 4764 16c8 38210050 		addi 1,1,80
 4765              		.cfi_remember_state
 4766              	.LCFI59:
 4767              		.cfi_def_cfa_offset 0
 4768              		.cfi_restore 31
 4769              		.cfi_restore 30
 4770              		.cfi_restore 29
 4771              		.cfi_restore 28
 4772              		.cfi_restore 27
 4773              		.cfi_restore 26
 4774              		.cfi_restore 25
 4775 16cc 4E800020 		blr
 4776              	.LVL480:
 4777              	.L269:
 4778              	.LCFI60:
 4779              		.cfi_restore_state
 4780              	.LBB5436:
 4781              	.LBB5429:
 4782              		.loc 2 208 0
 4783 16d0 38600020 		li 3,32
 4784              	.LVL481:
 4785 16d4 90A1002C 		stw 5,44(1)
 4786 16d8 48000001 		bl _Znwj
 4787              	.LEHE3:
 4788              	.LVL482:
 4789 16dc 80A1002C 		lwz 5,44(1)
 4790 16e0 7F84E378 		mr 4,28
 4791 16e4 38C00000 		li 6,0
 4792 16e8 38E0FFFF 		li 7,-1
 4793 16ec 7C7F1B78 		mr 31,3
 4794              	.LEHB4:
 4795 16f0 48000001 		bl _ZN8GuiSoundC1EPKhibi
 4796              	.LEHE4:
 4797              	.LVL483:
 4798              	.LBB5281:
 4799              	.LBB5282:
 4800              	.LBB5283:
 4801              	.LBB5284:
 4802              		.loc 2 266 0 discriminator 1
 4803 16f4 813E0020 		lwz 9,32(30)
 4804              	.LVL484:
 4805              	.LBB5285:
 4806              	.LBB5286:
 4807              		.loc 1 1089 0 discriminator 1
 4808 16f8 2F890000 		cmpwi 7,9,0
 4809 16fc 419E017C 		beq- 7,.L275
 4810              		.loc 1 1089 0 is_stmt 0
 4811 1700 7FBBEB78 		mr 27,29
 4812 1704 48000014 		b .L278
 4813              	.LVL485:
 4814              	.L326:
 4815              	.LBE5286:
 4816              		.loc 2 266 0 is_stmt 1
 4817 1708 7D3B4B78 		mr 27,9
 4818              		.loc 1 1091 0
 4819 170c 81290008 		lwz 9,8(9)
 4820              	.LVL486:
 4821              	.LBB5287:
 4822              		.loc 1 1089 0
 4823 1710 2F890000 		cmpwi 7,9,0
 4824 1714 419E001C 		beq- 7,.L325
 4825              	.LVL487:
 4826              	.L278:
 4827              		.loc 1 1090 0
 4828 1718 80090010 		lwz 0,16(9)
 4829 171c 7F80E040 		cmplw 7,0,28
 4830 1720 40BCFFE8 		bge- 7,.L326
 4831              	.LVL488:
 4832              	.LBE5287:
 4833              		.loc 2 266 0
 4834 1724 8129000C 		lwz 9,12(9)
 4835              	.LVL489:
 4836              	.LBB5288:
 4837              		.loc 1 1089 0
 4838 1728 2F890000 		cmpwi 7,9,0
 4839 172c 409EFFEC 		bne+ 7,.L278
 4840              	.L325:
 4841              	.LBE5288:
 4842              	.LBE5285:
 4843              	.LBE5284:
 4844              	.LBE5283:
 4845              		.loc 4 452 0
 4846 1730 7F9DD800 		cmpw 7,29,27
 4847              	.LBB5292:
 4848              	.LBB5291:
 4849              	.LBB5290:
 4850              	.LBB5289:
 4851              		.loc 1 1089 0
 4852 1734 7F7ADB78 		mr 26,27
 4853              	.LVL490:
 4854              	.LBE5289:
 4855              	.LBE5290:
 4856              	.LBE5291:
 4857              	.LBE5292:
 4858              		.loc 4 452 0
 4859 1738 419E0140 		beq- 7,.L275
 4860              	.LVL491:
 4861 173c 801B0010 		lwz 0,16(27)
 4862 1740 7F80E040 		cmplw 7,0,28
 4863 1744 409D0084 		ble- 7,.L280
 4864              	.LVL492:
 4865              	.LBB5293:
 4866              	.LBB5294:
 4867              	.LBB5295:
 4868              	.LBB5296:
 4869              	.LBB5297:
 4870              		.loc 1 1347 0
 4871 1748 80BE0024 		lwz 5,36(30)
 4872              	.LBE5297:
 4873              	.LBE5296:
 4874              	.LBE5295:
 4875              		.loc 4 571 0
 4876 174c 3B3E0018 		addi 25,30,24
 4877              	.LBE5294:
 4878              	.LBE5293:
 4879              	.LBB5393:
 4880              	.LBB5394:
 4881              		.loc 5 104 0
 4882 1750 93810018 		stw 28,24(1)
 4883              	.LBE5394:
 4884              	.LBE5393:
 4885              	.LBB5398:
 4886              	.LBB5388:
 4887              	.LBB5383:
 4888              	.LBB5376:
 4889              	.LBB5355:
 4890              		.loc 1 1347 0
 4891 1754 7F85D800 		cmpw 7,5,27
 4892              	.LBE5355:
 4893              	.LBE5376:
 4894              	.LBE5383:
 4895              	.LBE5388:
 4896              	.LBE5398:
 4897              	.LBB5399:
 4898              	.LBB5395:
 4899              		.loc 5 104 0
 4900 1758 9121001C 		stw 9,28(1)
 4901              	.LVL493:
 4902              	.LBE5395:
 4903              	.LBE5399:
 4904              	.LBB5400:
 4905              	.LBB5389:
 4906              	.LBB5384:
 4907              	.LBB5377:
 4908              	.LBB5356:
 4909              		.loc 1 1347 0
 4910 175c 419E01DC 		beq- 7,.L327
 4911              	.LBB5298:
 4912              	.LBB5299:
 4913              		.loc 1 284 0
 4914 1760 7F63DB78 		mr 3,27
 4915 1764 48000001 		bl _ZSt18_Rb_tree_decrementPKSt18_Rb_tree_node_base
 4916              	.LVL494:
 4917              	.LBE5299:
 4918              	.LBE5298:
 4919              	.LBE5356:
 4920              	.LBE5377:
 4921              		.loc 2 266 0
 4922 1768 80030010 		lwz 0,16(3)
 4923              	.LBB5378:
 4924              	.LBB5357:
 4925              	.LBB5301:
 4926              	.LBB5300:
 4927              		.loc 1 284 0
 4928 176c 7C651B78 		mr 5,3
 4929              	.LVL495:
 4930              	.LBE5300:
 4931              	.LBE5301:
 4932              		.loc 1 1350 0
 4933 1770 7F9C0040 		cmplw 7,28,0
 4934 1774 409D0160 		ble- 7,.L288
 4935              		.loc 1 1353 0
 4936 1778 8003000C 		lwz 0,12(3)
 4937              	.LBB5302:
 4938              	.LBB5303:
 4939              	.LBB5304:
 4940              	.LBB5305:
 4941              	.LBB5306:
 4942              	.LBB5307:
 4943              	.LBB5308:
 4944              		.loc 3 92 0
 4945 177c 38600018 		li 3,24
 4946              	.LVL496:
 4947              	.LBE5308:
 4948              	.LBE5307:
 4949              	.LBE5306:
 4950              	.LBE5305:
 4951              	.LBE5304:
 4952              	.LBE5303:
 4953              	.LBE5302:
 4954              		.loc 1 1353 0
 4955 1780 2F800000 		cmpwi 7,0,0
 4956 1784 419E0178 		beq- 7,.L328
 4957              	.LVL497:
 4958              	.LEHB5:
 4959              	.LBB5326:
 4960              	.LBB5327:
 4961              	.LBB5328:
 4962              	.LBB5329:
 4963              	.LBB5330:
 4964              	.LBB5331:
 4965              	.LBB5332:
 4966              		.loc 3 92 0
 4967 1788 48000001 		bl _Znwj
 4968              	.LVL498:
 4969              	.LBE5332:
 4970              	.LBE5331:
 4971              	.LBE5330:
 4972              	.LBB5335:
 4973              	.LBB5336:
 4974              		.loc 3 108 0
 4975 178c 2F83FFF0 		cmpwi 7,3,-16
 4976              	.LBE5336:
 4977              	.LBE5335:
 4978              	.LBB5338:
 4979              	.LBB5334:
 4980              	.LBB5333:
 4981              		.loc 3 92 0
 4982 1790 7C7B1B78 		mr 27,3
 4983              	.LVL499:
 4984              	.LBE5333:
 4985              	.LBE5334:
 4986              	.LBE5338:
 4987              	.LBB5339:
 4988              	.LBB5337:
 4989              		.loc 3 108 0
 4990 1794 419E0014 		beq- 7,.L294
 4991 1798 81410018 		lwz 10,24(1)
 4992 179c 8161001C 		lwz 11,28(1)
 4993 17a0 91430010 		stw 10,16(3)
 4994 17a4 91630014 		stw 11,20(3)
 4995              	.L294:
 4996              	.LVL500:
 4997              	.LBE5337:
 4998              	.LBE5339:
 4999              	.LBE5329:
 5000              	.LBE5328:
 5001              		.loc 1 973 0
 5002 17a8 38600001 		li 3,1
 5003              	.LVL501:
 5004              	.L319:
 5005 17ac 7F64DB78 		mr 4,27
 5006 17b0 7F45D378 		mr 5,26
 5007              	.LVL502:
 5008              	.L320:
 5009 17b4 7FA6EB78 		mr 6,29
 5010 17b8 48000001 		bl _ZSt29_Rb_tree_insert_and_rebalancebPSt18_Rb_tree_node_baseS0_RS_
 5011              	.LVL503:
 5012              		.loc 1 976 0
 5013 17bc 801E002C 		lwz 0,44(30)
 5014 17c0 30000001 		addic 0,0,1
 5015 17c4 901E002C 		stw 0,44(30)
 5016              	.LVL504:
 5017              	.L280:
 5018              	.LBE5327:
 5019              	.LBE5326:
 5020              	.LBE5357:
 5021              	.LBE5378:
 5022              	.LBE5384:
 5023              	.LBE5389:
 5024              	.LBE5400:
 5025              	.LBE5282:
 5026              	.LBE5281:
 5027              		.loc 2 209 0
 5028 17c8 93FB0014 		stw 31,20(27)
 5029              	.LVL505:
 5030              	.LBB5407:
 5031              	.LBB5408:
 5032              	.LBB5409:
 5033              	.LBB5410:
 5034              		.loc 1 828 0
 5035 17cc 397E004C 		addi 11,30,76
 5036              	.LBB5411:
 5037              	.LBB5412:
 5038              		.loc 1 1089 0
 5039 17d0 7D635B78 		mr 3,11
 5040              	.LBE5412:
 5041              	.LBE5411:
 5042              		.loc 2 266 0
 5043 17d4 813E0050 		lwz 9,80(30)
 5044              	.LVL506:
 5045              	.LBB5416:
 5046              	.LBB5413:
 5047              		.loc 1 1089 0
 5048 17d8 2F890000 		cmpwi 7,9,0
 5049 17dc 40BE0018 		bne+ 7,.L298
 5050 17e0 48000040 		b .L295
 5051              	.LVL507:
 5052              	.L330:
 5053              	.LBE5413:
 5054              		.loc 2 266 0
 5055 17e4 7D234B78 		mr 3,9
 5056              		.loc 1 1091 0
 5057 17e8 81290008 		lwz 9,8(9)
 5058              	.LVL508:
 5059              	.LBB5414:
 5060              		.loc 1 1089 0
 5061 17ec 2F890000 		cmpwi 7,9,0
 5062 17f0 419E001C 		beq- 7,.L329
 5063              	.LVL509:
 5064              	.L298:
 5065              		.loc 1 1090 0
 5066 17f4 80090010 		lwz 0,16(9)
 5067 17f8 7F9F0040 		cmplw 7,31,0
 5068 17fc 40BDFFE8 		ble- 7,.L330
 5069              	.LBE5414:
 5070              		.loc 2 266 0
 5071 1800 8129000C 		lwz 9,12(9)
 5072              	.LVL510:
 5073              	.LBB5415:
 5074              		.loc 1 1089 0
 5075 1804 2F890000 		cmpwi 7,9,0
 5076 1808 409EFFEC 		bne+ 7,.L298
 5077              	.L329:
 5078              	.LVL511:
 5079              	.LBE5415:
 5080              	.LBE5416:
 5081              	.LBE5410:
 5082              	.LBE5409:
 5083              		.loc 4 452 0
 5084 180c 7F8B1800 		cmpw 7,11,3
 5085 1810 419E0010 		beq- 7,.L295
 5086              	.LVL512:
 5087 1814 80030010 		lwz 0,16(3)
 5088 1818 7F9F0040 		cmplw 7,31,0
 5089 181c 409C0024 		bge- 7,.L299
 5090              	.LVL513:
 5091              	.L295:
 5092              	.LBB5417:
 5093              	.LBB5418:
 5094              		.loc 4 571 0
 5095 1820 7C240B78 		mr 4,1
 5096              	.LBE5418:
 5097              	.LBE5417:
 5098              	.LBB5421:
 5099              	.LBB5422:
 5100              		.loc 5 104 0
 5101 1824 38000000 		li 0,0
 5102 1828 93E10010 		stw 31,16(1)
 5103              	.LBE5422:
 5104              	.LBE5421:
 5105              	.LBB5424:
 5106              	.LBB5419:
 5107              		.loc 4 571 0
 5108 182c 38A10010 		addi 5,1,16
 5109              	.LBE5419:
 5110              	.LBE5424:
 5111              	.LBB5425:
 5112              	.LBB5423:
 5113              		.loc 5 104 0
 5114 1830 90010014 		stw 0,20(1)
 5115              	.LVL514:
 5116              	.LBE5423:
 5117              	.LBE5425:
 5118              	.LBB5426:
 5119              	.LBB5420:
 5120              		.loc 4 571 0
 5121 1834 94640028 		stwu 3,40(4)
 5122 1838 387E0048 		addi 3,30,72
 5123              	.LVL515:
 5124 183c 4BFFF31D 		bl _ZNSt8_Rb_treeIP8GuiSoundSt4pairIKS1_iESt10_Select1stIS4_ESt4lessIS1_ESaIS4_EE17_M_insert_uniqu
 5125              	.LVL516:
 5126              	.L299:
 5127              	.LBE5420:
 5128              	.LBE5426:
 5129              	.LBE5408:
 5130              	.LBE5407:
 5131              		.loc 2 210 0
 5132 1840 38000001 		li 0,1
 5133              	.LBE5429:
 5134              	.LBE5436:
 5135              		.loc 2 216 0
 5136 1844 83210034 		lwz 25,52(1)
 5137              	.LBB5437:
 5138              	.LBB5430:
 5139              		.loc 2 210 0
 5140 1848 90030014 		stw 0,20(3)
 5141              	.LBE5430:
 5142              	.LBE5437:
 5143              		.loc 2 216 0
 5144 184c 7FE3FB78 		mr 3,31
 5145              	.LVL517:
 5146 1850 80010054 		lwz 0,84(1)
 5147 1854 83410038 		lwz 26,56(1)
 5148 1858 7C0803A6 		mtlr 0
 5149 185c 8361003C 		lwz 27,60(1)
 5150              	.LVL518:
 5151 1860 83810040 		lwz 28,64(1)
 5152              	.LVL519:
 5153 1864 83A10044 		lwz 29,68(1)
 5154              	.LVL520:
 5155 1868 83C10048 		lwz 30,72(1)
 5156              	.LVL521:
 5157 186c 83E1004C 		lwz 31,76(1)
 5158              	.LVL522:
 5159 1870 38210050 		addi 1,1,80
 5160              		.cfi_remember_state
 5161              		.cfi_restore 25
 5162              		.cfi_restore 26
 5163              		.cfi_restore 27
 5164              		.cfi_restore 28
 5165              		.cfi_restore 29
 5166              		.cfi_restore 30
 5167              		.cfi_restore 31
 5168              	.LCFI61:
 5169              		.cfi_def_cfa_offset 0
 5170 1874 4E800020 		blr
 5171              	.LVL523:
 5172              	.L275:
 5173              	.LCFI62:
 5174              		.cfi_restore_state
 5175              	.LBB5438:
 5176              	.LBB5431:
 5177              	.LBB5427:
 5178              	.LBB5406:
 5179              	.LBB5401:
 5180              	.LBB5390:
 5181              	.LBB5385:
 5182              	.LBB5379:
 5183              		.loc 1 1335 0
 5184 1878 801E002C 		lwz 0,44(30)
 5185              	.LBE5379:
 5186              	.LBE5385:
 5187              	.LBE5390:
 5188              	.LBE5401:
 5189              	.LBB5402:
 5190              	.LBB5396:
 5191              		.loc 5 104 0
 5192 187c 93810018 		stw 28,24(1)
 5193              	.LBE5396:
 5194              	.LBE5402:
 5195              	.LBB5403:
 5196              	.LBB5391:
 5197              	.LBB5386:
 5198              	.LBB5380:
 5199              		.loc 1 1335 0
 5200 1880 2F800000 		cmpwi 7,0,0
 5201              	.LBE5380:
 5202              	.LBE5386:
 5203              	.LBE5391:
 5204              	.LBE5403:
 5205              	.LBB5404:
 5206              	.LBB5397:
 5207              		.loc 5 104 0
 5208 1884 38000000 		li 0,0
 5209 1888 9001001C 		stw 0,28(1)
 5210              	.LVL524:
 5211              	.LBE5397:
 5212              	.LBE5404:
 5213              	.LBB5405:
 5214              	.LBB5392:
 5215              	.LBB5387:
 5216              	.LBB5381:
 5217              		.loc 1 1335 0
 5218 188c 419E005C 		beq- 7,.L281
 5219              	.LVL525:
 5220 1890 835E0028 		lwz 26,40(30)
 5221              	.LVL526:
 5222              	.LBE5381:
 5223              		.loc 2 266 0
 5224 1894 801A0010 		lwz 0,16(26)
 5225              	.LBB5382:
 5226              		.loc 1 1335 0
 5227 1898 7F9C0040 		cmplw 7,28,0
 5228 189c 409D004C 		ble- 7,.L281
 5229              	.LVL527:
 5230              	.LBB5358:
 5231              	.LBB5359:
 5232              	.LBB5360:
 5233              	.LBB5361:
 5234              	.LBB5362:
 5235              	.LBB5363:
 5236              	.LBB5364:
 5237              		.loc 3 92 0
 5238 18a0 38600018 		li 3,24
 5239 18a4 48000001 		bl _Znwj
 5240              	.LVL528:
 5241              	.LBE5364:
 5242              	.LBE5363:
 5243              	.LBE5362:
 5244              	.LBB5367:
 5245              	.LBB5368:
 5246              		.loc 3 108 0
 5247 18a8 2F83FFF0 		cmpwi 7,3,-16
 5248              	.LBE5368:
 5249              	.LBE5367:
 5250              	.LBB5370:
 5251              	.LBB5366:
 5252              	.LBB5365:
 5253              		.loc 3 92 0
 5254 18ac 7C7B1B78 		mr 27,3
 5255              	.LBE5365:
 5256              	.LBE5366:
 5257              	.LBE5370:
 5258              	.LBE5361:
 5259              	.LBE5360:
 5260              		.loc 2 201 0
 5261 18b0 7FA3D278 		xor 3,29,26
 5262 18b4 7C630034 		cntlzw 3,3
 5263 18b8 5463D97E 		srwi 3,3,5
 5264              	.LVL529:
 5265              	.LBB5373:
 5266              	.LBB5372:
 5267              	.LBB5371:
 5268              	.LBB5369:
 5269              		.loc 3 108 0
 5270 18bc 41BEFEF0 		beq- 7,.L319
 5271 18c0 81410018 		lwz 10,24(1)
 5272 18c4 8161001C 		lwz 11,28(1)
 5273 18c8 915B0010 		stw 10,16(27)
 5274 18cc 917B0014 		stw 11,20(27)
 5275              	.LVL530:
 5276 18d0 4BFFFEDC 		b .L319
 5277              	.LVL531:
 5278              	.L288:
 5279              	.LBE5369:
 5280              	.LBE5371:
 5281              	.LBE5372:
 5282              	.LBE5373:
 5283              	.LBE5359:
 5284              	.LBE5358:
 5285              	.LBB5374:
 5286              		.loc 1 1362 0
 5287 18d4 7F23CB78 		mr 3,25
 5288              	.LVL532:
 5289 18d8 38810018 		addi 4,1,24
 5290 18dc 4BFFED25 		bl _ZNSt8_Rb_treeIPKhSt4pairIKS1_P8GuiSoundESt10_Select1stIS6_ESt4lessIS1_ESaIS6_EE16_M_insert_uni
 5291              	.LVL533:
 5292 18e0 7C7B1B78 		mr 27,3
 5293              	.LVL534:
 5294 18e4 4BFFFEE4 		b .L280
 5295              	.LVL535:
 5296              	.L281:
 5297              	.LBE5374:
 5298              		.loc 1 1340 0
 5299 18e8 387E0018 		addi 3,30,24
 5300 18ec 38810018 		addi 4,1,24
 5301              	.LVL536:
 5302 18f0 4BFFED11 		bl _ZNSt8_Rb_treeIPKhSt4pairIKS1_P8GuiSoundESt10_Select1stIS6_ESt4lessIS1_ESaIS6_EE16_M_insert_uni
 5303              	.LVL537:
 5304 18f4 7C7B1B78 		mr 27,3
 5305 18f8 4BFFFED0 		b .L280
 5306              	.LVL538:
 5307              	.L328:
 5308              	.LBB5375:
 5309              	.LBB5340:
 5310              	.LBB5325:
 5311              	.LBB5322:
 5312              	.LBB5319:
 5313              	.LBB5313:
 5314              	.LBB5311:
 5315              	.LBB5309:
 5316              		.loc 3 92 0
 5317 18fc 90A1002C 		stw 5,44(1)
 5318 1900 48000001 		bl _Znwj
 5319              	.LVL539:
 5320              	.LBE5309:
 5321              	.LBE5311:
 5322              	.LBE5313:
 5323              	.LBB5314:
 5324              	.LBB5315:
 5325              		.loc 3 108 0
 5326 1904 2F83FFF0 		cmpwi 7,3,-16
 5327              	.LBE5315:
 5328              	.LBE5314:
 5329              	.LBE5319:
 5330              	.LBE5322:
 5331              		.loc 2 201 0
 5332 1908 80A1002C 		lwz 5,44(1)
 5333              	.LBB5323:
 5334              	.LBB5320:
 5335              	.LBB5317:
 5336              	.LBB5312:
 5337              	.LBB5310:
 5338              		.loc 3 92 0
 5339 190c 7C7B1B78 		mr 27,3
 5340              	.LBE5310:
 5341              	.LBE5312:
 5342              	.LBE5317:
 5343              	.LBE5320:
 5344              	.LBE5323:
 5345              		.loc 2 201 0
 5346 1910 7FA32A78 		xor 3,29,5
 5347 1914 7C630034 		cntlzw 3,3
 5348 1918 5463D97E 		srwi 3,3,5
 5349              	.LVL540:
 5350              	.LBB5324:
 5351              	.LBB5321:
 5352              	.LBB5318:
 5353              	.LBB5316:
 5354              		.loc 3 108 0
 5355 191c 419E0014 		beq- 7,.L292
 5356 1920 81410018 		lwz 10,24(1)
 5357 1924 8161001C 		lwz 11,28(1)
 5358 1928 915B0010 		stw 10,16(27)
 5359 192c 917B0014 		stw 11,20(27)
 5360              	.L292:
 5361              	.LVL541:
 5362              	.LBE5316:
 5363              	.LBE5318:
 5364              	.LBE5321:
 5365              	.LBE5324:
 5366              		.loc 1 973 0
 5367 1930 7F64DB78 		mr 4,27
 5368 1934 4BFFFE80 		b .L320
 5369              	.LVL542:
 5370              	.L327:
 5371              	.LBE5325:
 5372              	.LBE5340:
 5373              	.LBB5341:
 5374              	.LBB5342:
 5375              	.LBB5343:
 5376              	.LBB5344:
 5377              	.LBB5345:
 5378              	.LBB5346:
 5379              	.LBB5347:
 5380              		.loc 3 92 0
 5381 1938 38600018 		li 3,24
 5382 193c 90A1002C 		stw 5,44(1)
 5383 1940 48000001 		bl _Znwj
 5384              	.LVL543:
 5385              	.LBE5347:
 5386              	.LBE5346:
 5387              	.LBE5345:
 5388              	.LBB5350:
 5389              	.LBB5351:
 5390              		.loc 3 108 0
 5391 1944 80A1002C 		lwz 5,44(1)
 5392 1948 2F83FFF0 		cmpwi 7,3,-16
 5393              	.LBE5351:
 5394              	.LBE5350:
 5395              	.LBB5353:
 5396              	.LBB5349:
 5397              	.LBB5348:
 5398              		.loc 3 92 0
 5399 194c 7C7B1B78 		mr 27,3
 5400              	.LVL544:
 5401              	.LBE5348:
 5402              	.LBE5349:
 5403              	.LBE5353:
 5404              	.LBB5354:
 5405              	.LBB5352:
 5406              		.loc 3 108 0
 5407 1950 419E0014 		beq- 7,.L287
 5408 1954 81410018 		lwz 10,24(1)
 5409 1958 8161001C 		lwz 11,28(1)
 5410 195c 91430010 		stw 10,16(3)
 5411 1960 91630014 		stw 11,20(3)
 5412              	.L287:
 5413              	.LVL545:
 5414              	.LBE5352:
 5415              	.LBE5354:
 5416              	.LBE5344:
 5417              	.LBE5343:
 5418              		.loc 1 973 0
 5419 1964 38600001 		li 3,1
 5420              	.LVL546:
 5421 1968 7F64DB78 		mr 4,27
 5422 196c 4BFFFE48 		b .L320
 5423              	.LVL547:
 5424              	.L312:
 5425 1970 7C7E1B78 		mr 30,3
 5426              	.LVL548:
 5427              	.LBE5342:
 5428              	.LBE5341:
 5429              	.LBE5375:
 5430              	.LBE5382:
 5431              	.LBE5387:
 5432              	.LBE5392:
 5433              	.LBE5405:
 5434              	.LBE5406:
 5435              	.LBE5427:
 5436              		.loc 2 208 0
 5437 1974 7FE3FB78 		mr 3,31
 5438 1978 48000001 		bl _ZdlPv
 5439 197c 7FC3F378 		mr 3,30
 5440 1980 48000001 		bl _Unwind_Resume
 5441              	.LEHE5:
 5442              	.LBE5431:
 5443              	.LBE5438:
 5444              		.cfi_endproc
 5445              	.LFE1570:
 5446              		.section	.gcc_except_table
 5447              	.LLSDA1570:
 5448 0015 FF       		.byte	0xff
 5449 0016 FF       		.byte	0xff
 5450 0017 01       		.byte	0x1
 5451 0018 11       		.uleb128 .LLSDACSE1570-.LLSDACSB1570
 5452              	.LLSDACSB1570:
 5453 0019 F801     		.uleb128 .LEHB3-.LFB1570
 5454 001b 50       		.uleb128 .LEHE3-.LEHB3
 5455 001c 00       		.uleb128 0
 5456 001d 00       		.uleb128 0
 5457 001e DC02     		.uleb128 .LEHB4-.LFB1570
 5458 0020 04       		.uleb128 .LEHE4-.LEHB4
 5459 0021 DC07     		.uleb128 .L312-.LFB1570
 5460 0023 00       		.uleb128 0
 5461 0024 F403     		.uleb128 .LEHB5-.LFB1570
 5462 0026 FC03     		.uleb128 .LEHE5-.LEHB5
 5463 0028 00       		.uleb128 0
 5464 0029 00       		.uleb128 0
 5465              	.LLSDACSE1570:
 5466              		.section	".text"
 5467              		.size	_ZN9Resources16InternalGetSoundEPKhi, .-_ZN9Resources16InternalGetSoundEPKhi
 5468              		.align 2
 5469              		.globl _ZN9Resources8GetSoundEPKc
 5470              		.type	_ZN9Resources8GetSoundEPKc, @function
 5471              	_ZN9Resources8GetSoundEPKc:
 5472              	.LFB1566:
 5473              		.loc 2 159 0
 5474              		.cfi_startproc
 5475              	.LVL549:
 5476 1984 9421FFE8 		stwu 1,-24(1)
 5477              	.LCFI63:
 5478              		.cfi_def_cfa_offset 24
 5479 1988 7C0802A6 		mflr 0
 5480 198c 93A1000C 		stw 29,12(1)
 5481              	.LBB5439:
 5482              		.loc 2 160 0
 5483 1990 7C7D1B79 		mr. 29,3
 5484              		.cfi_offset 29, -12
 5485              		.cfi_register 65, 0
 5486              	.LBE5439:
 5487              		.loc 2 159 0
 5488 1994 9001001C 		stw 0,28(1)
 5489 1998 93810008 		stw 28,8(1)
 5490 199c 93C10010 		stw 30,16(1)
 5491 19a0 93E10014 		stw 31,20(1)
 5492              	.LBB5456:
 5493              		.loc 2 160 0
 5494 19a4 4182008C 		beq- 0,.L332
 5495              		.cfi_offset 31, -4
 5496              		.cfi_offset 30, -8
 5497              		.cfi_offset 28, -16
 5498              		.cfi_offset 65, 4
 5499              	.LVL550:
 5500              	.LBB5440:
 5501              		.loc 2 163 0 discriminator 1
 5502 19a8 3F800000 		lis 28,.LANCHOR0@ha
 5503 19ac 809C0000 		lwz 4,.LANCHOR0@l(28)
 5504 19b0 3B9C0000 		la 28,.LANCHOR0@l(28)
 5505 19b4 2F840000 		cmpwi 7,4,0
 5506 19b8 419E0078 		beq- 7,.L332
 5507              		.loc 2 163 0 is_stmt 0
 5508 19bc 3BFC0014 		addi 31,28,20
 5509 19c0 3BC00000 		li 30,0
 5510 19c4 48000014 		b .L336
 5511              	.LVL551:
 5512              	.L333:
 5513 19c8 809FFFEC 		lwz 4,-20(31)
 5514 19cc 3BDE0001 		addi 30,30,1
 5515              	.LVL552:
 5516 19d0 2F840000 		cmpwi 7,4,0
 5517 19d4 419E005C 		beq- 7,.L332
 5518              	.LVL553:
 5519              	.L336:
 5520              	.LBB5441:
 5521              		.loc 2 165 0 is_stmt 1
 5522 19d8 7FA3EB78 		mr 3,29
 5523              	.LBE5441:
 5524              		.loc 2 163 0
 5525 19dc 3BFF0014 		addi 31,31,20
 5526              	.LBB5447:
 5527              		.loc 2 165 0
 5528 19e0 48000001 		bl strcasecmp
 5529 19e4 2F830000 		cmpwi 7,3,0
 5530 19e8 409EFFE0 		bne+ 7,.L333
 5531              	.LBB5442:
 5532              		.loc 2 167 0
 5533 19ec 1FDE0014 		mulli 30,30,20
 5534 19f0 7F9CF214 		add 28,28,30
 5535 19f4 83BC000C 		lwz 29,12(28)
 5536              	.LVL554:
 5537 19f8 2F9D0000 		cmpwi 7,29,0
 5538 19fc 419E0058 		beq- 7,.L340
 5539              	.LVL555:
 5540              		.loc 2 168 0 discriminator 3
 5541 1a00 83FC0010 		lwz 31,16(28)
 5542              	.LVL556:
 5543              	.L335:
 5544              		.loc 2 169 0 discriminator 3
 5545 1a04 48000001 		bl _ZN9Resources8InstanceEv
 5546              	.LBE5442:
 5547              	.LBE5447:
 5548              	.LBE5440:
 5549              	.LBE5456:
 5550              		.loc 2 173 0 discriminator 3
 5551 1a08 8001001C 		lwz 0,28(1)
 5552 1a0c 83810008 		lwz 28,8(1)
 5553              	.LBB5457:
 5554              	.LBB5452:
 5555              	.LBB5448:
 5556              	.LBB5443:
 5557              		.loc 2 169 0 discriminator 3
 5558 1a10 7FA4EB78 		mr 4,29
 5559              	.LBE5443:
 5560              	.LBE5448:
 5561              	.LBE5452:
 5562              	.LBE5457:
 5563              		.loc 2 173 0 discriminator 3
 5564 1a14 83C10010 		lwz 30,16(1)
 5565              	.LBB5458:
 5566              	.LBB5453:
 5567              	.LBB5449:
 5568              	.LBB5444:
 5569              		.loc 2 169 0 discriminator 3
 5570 1a18 7FE5FB78 		mr 5,31
 5571              	.LBE5444:
 5572              	.LBE5449:
 5573              	.LBE5453:
 5574              	.LBE5458:
 5575              		.loc 2 173 0 discriminator 3
 5576 1a1c 83A1000C 		lwz 29,12(1)
 5577              	.LVL557:
 5578 1a20 7C0803A6 		mtlr 0
 5579 1a24 83E10014 		lwz 31,20(1)
 5580              	.LVL558:
 5581 1a28 38210018 		addi 1,1,24
 5582              		.cfi_remember_state
 5583              	.LCFI64:
 5584              		.cfi_def_cfa_offset 0
 5585              		.cfi_restore 31
 5586              		.cfi_restore 30
 5587              		.cfi_restore 29
 5588              		.cfi_restore 28
 5589              	.LBB5459:
 5590              	.LBB5454:
 5591              	.LBB5450:
 5592              	.LBB5445:
 5593              		.loc 2 169 0 discriminator 3
 5594 1a2c 48000000 		b _ZN9Resources16InternalGetSoundEPKhi
 5595              	.LVL559:
 5596              	.L332:
 5597              	.LCFI65:
 5598              		.cfi_restore_state
 5599              	.LBE5445:
 5600              	.LBE5450:
 5601              	.LBE5454:
 5602              	.LBE5459:
 5603              		.loc 2 173 0
 5604 1a30 8001001C 		lwz 0,28(1)
 5605 1a34 38600000 		li 3,0
 5606 1a38 83810008 		lwz 28,8(1)
 5607 1a3c 7C0803A6 		mtlr 0
 5608 1a40 83A1000C 		lwz 29,12(1)
 5609              	.LVL560:
 5610 1a44 83C10010 		lwz 30,16(1)
 5611 1a48 83E10014 		lwz 31,20(1)
 5612 1a4c 38210018 		addi 1,1,24
 5613              		.cfi_remember_state
 5614              	.LCFI66:
 5615              		.cfi_def_cfa_offset 0
 5616              		.cfi_restore 31
 5617              		.cfi_restore 30
 5618              		.cfi_restore 29
 5619              		.cfi_restore 28
 5620 1a50 4E800020 		blr
 5621              	.L340:
 5622              	.LCFI67:
 5623              		.cfi_restore_state
 5624              	.LBB5460:
 5625              	.LBB5455:
 5626              	.LBB5451:
 5627              	.LBB5446:
 5628              		.loc 2 167 0 discriminator 2
 5629 1a54 83BC0004 		lwz 29,4(28)
 5630              	.LVL561:
 5631              		.loc 2 168 0 discriminator 2
 5632 1a58 83FC0008 		lwz 31,8(28)
 5633 1a5c 4BFFFFA8 		b .L335
 5634              	.LBE5446:
 5635              	.LBE5451:
 5636              	.LBE5455:
 5637              	.LBE5460:
 5638              		.cfi_endproc
 5639              	.LFE1566:
 5640              		.size	_ZN9Resources8GetSoundEPKc, .-_ZN9Resources8GetSoundEPKc
 5641              		.align 2
 5642              		.globl _ZN9Resources23InternalRemoveImageDataEP12GuiImageData
 5643              		.type	_ZN9Resources23InternalRemoveImageDataEP12GuiImageData, @function
 5644              	_ZN9Resources23InternalRemoveImageDataEP12GuiImageData:
 5645              	.LFB1571:
 5646              		.loc 2 219 0
 5647              		.cfi_startproc
 5648              	.LVL562:
 5649 1a60 7C0802A6 		mflr 0
 5650 1a64 9421FFE8 		stwu 1,-24(1)
 5651              	.LCFI68:
 5652              		.cfi_def_cfa_offset 24
 5653              		.cfi_register 65, 0
 5654 1a68 93A1000C 		stw 29,12(1)
 5655 1a6c 7C7D1B78 		mr 29,3
 5656              		.cfi_offset 29, -12
 5657              	.LVL563:
 5658 1a70 9001001C 		stw 0,28(1)
 5659 1a74 93E10014 		stw 31,20(1)
 5660 1a78 7C9F2378 		mr 31,4
 5661              		.cfi_offset 31, -4
 5662              		.cfi_offset 65, 4
 5663              	.LBB5461:
 5664              	.LBB5462:
 5665              	.LBB5463:
 5666              		.loc 2 266 0
 5667 1a7c 81230038 		lwz 9,56(3)
 5668              	.LVL564:
 5669              	.LBE5463:
 5670              	.LBE5462:
 5671              	.LBE5461:
 5672              		.loc 2 219 0
 5673 1a80 93810008 		stw 28,8(1)
 5674              	.LBB5529:
 5675              	.LBB5476:
 5676              	.LBB5474:
 5677              	.LBB5464:
 5678              	.LBB5465:
 5679              	.LBB5466:
 5680              		.loc 1 1089 0
 5681 1a84 2F890000 		cmpwi 7,9,0
 5682              	.LBE5466:
 5683              	.LBE5465:
 5684              	.LBE5464:
 5685              	.LBE5474:
 5686              	.LBE5476:
 5687              	.LBE5529:
 5688              		.loc 2 219 0
 5689 1a88 93C10010 		stw 30,16(1)
 5690              	.LBB5530:
 5691              	.LBB5477:
 5692              	.LBB5475:
 5693              	.LBB5472:
 5694              	.LBB5470:
 5695              	.LBB5467:
 5696              		.loc 1 1089 0
 5697 1a8c 419E004C 		beq- 7,.L341
 5698              		.cfi_offset 30, -8
 5699              		.cfi_offset 28, -16
 5700              	.LVL565:
 5701              	.LBE5467:
 5702              	.LBE5470:
 5703              	.LBE5472:
 5704              		.loc 1 1536 0
 5705 1a90 38830034 		addi 4,3,52
 5706              	.LVL566:
 5707 1a94 7C832378 		mr 3,4
 5708              	.LVL567:
 5709 1a98 48000014 		b .L345
 5710              	.LVL568:
 5711              	.L362:
 5712              	.LBB5473:
 5713              	.LBB5471:
 5714              		.loc 2 266 0
 5715 1a9c 7D234B78 		mr 3,9
 5716              		.loc 1 1091 0
 5717 1aa0 81290008 		lwz 9,8(9)
 5718              	.LVL569:
 5719              	.LBB5468:
 5720              		.loc 1 1089 0
 5721 1aa4 2F890000 		cmpwi 7,9,0
 5722 1aa8 419E001C 		beq- 7,.L361
 5723              	.LVL570:
 5724              	.L345:
 5725              		.loc 1 1090 0
 5726 1aac 80090010 		lwz 0,16(9)
 5727 1ab0 7F80F840 		cmplw 7,0,31
 5728 1ab4 40BCFFE8 		bge- 7,.L362
 5729              	.LBE5468:
 5730              		.loc 2 266 0
 5731 1ab8 8129000C 		lwz 9,12(9)
 5732              	.LVL571:
 5733              	.LBB5469:
 5734              		.loc 1 1089 0
 5735 1abc 2F890000 		cmpwi 7,9,0
 5736 1ac0 409EFFEC 		bne+ 7,.L345
 5737              	.L361:
 5738              	.LVL572:
 5739              	.LBE5469:
 5740              	.LBE5471:
 5741              		.loc 1 1539 0
 5742 1ac4 7F841800 		cmpw 7,4,3
 5743 1ac8 419E0010 		beq- 7,.L341
 5744              	.LVL573:
 5745 1acc 80030010 		lwz 0,16(3)
 5746 1ad0 7F80F840 		cmplw 7,0,31
 5747 1ad4 409D0024 		ble- 7,.L363
 5748              	.LVL574:
 5749              	.L341:
 5750              	.LBE5473:
 5751              	.LBE5475:
 5752              	.LBE5477:
 5753              	.LBE5530:
 5754              		.loc 2 241 0
 5755 1ad8 8001001C 		lwz 0,28(1)
 5756 1adc 83810008 		lwz 28,8(1)
 5757 1ae0 7C0803A6 		mtlr 0
 5758 1ae4 83A1000C 		lwz 29,12(1)
 5759              	.LVL575:
 5760 1ae8 83C10010 		lwz 30,16(1)
 5761 1aec 83E10014 		lwz 31,20(1)
 5762              	.LVL576:
 5763 1af0 38210018 		addi 1,1,24
 5764              		.cfi_remember_state
 5765              	.LCFI69:
 5766              		.cfi_def_cfa_offset 0
 5767              		.cfi_restore 31
 5768              		.cfi_restore 30
 5769              		.cfi_restore 29
 5770              		.cfi_restore 28
 5771 1af4 4E800020 		blr
 5772              	.LVL577:
 5773              	.L363:
 5774              	.LCFI70:
 5775              		.cfi_restore_state
 5776              	.LBB5531:
 5777              		.loc 2 224 0
 5778 1af8 81230014 		lwz 9,20(3)
 5779              	.LVL578:
 5780 1afc 3809FFFF 		addi 0,9,-1
 5781              	.LBB5478:
 5782              		.loc 2 226 0
 5783 1b00 2F800000 		cmpwi 7,0,0
 5784              	.LBE5478:
 5785              		.loc 2 224 0
 5786 1b04 90030014 		stw 0,20(3)
 5787              	.LVL579:
 5788              	.LBB5526:
 5789              		.loc 2 226 0
 5790 1b08 409EFFD0 		bne+ 7,.L341
 5791              	.LVL580:
 5792              	.LBB5479:
 5793              	.LBB5480:
 5794              	.LBB5481:
 5795              	.LBB5482:
 5796              	.LBB5483:
 5797              		.loc 1 1489 0
 5798 1b0c 48000001 		bl _ZSt28_Rb_tree_rebalance_for_erasePSt18_Rb_tree_node_baseRS_
 5799              	.LVL581:
 5800              	.LBE5483:
 5801              	.LBE5482:
 5802              	.LBE5481:
 5803              	.LBE5480:
 5804              	.LBB5497:
 5805              	.LBB5498:
 5806              	.LBB5499:
 5807              		.loc 1 665 0
 5808 1b10 3B9D0004 		addi 28,29,4
 5809              	.LBE5499:
 5810              	.LBE5498:
 5811              	.LBE5497:
 5812              	.LBB5500:
 5813              	.LBB5494:
 5814              	.LBB5491:
 5815              	.LBB5488:
 5816              	.LBB5484:
 5817              	.LBB5485:
 5818              	.LBB5486:
 5819              	.LBB5487:
 5820              		.loc 3 98 0
 5821 1b14 48000001 		bl _ZdlPv
 5822              	.LBE5487:
 5823              	.LBE5486:
 5824              	.LBE5485:
 5825              	.LBE5484:
 5826              	.LBE5488:
 5827              	.LBE5491:
 5828              	.LBE5494:
 5829              	.LBE5500:
 5830              	.LBB5501:
 5831              		.loc 2 266 0
 5832 1b18 83DD000C 		lwz 30,12(29)
 5833              	.LBE5501:
 5834              	.LBB5502:
 5835              	.LBB5495:
 5836              	.LBB5492:
 5837              	.LBB5489:
 5838              		.loc 1 1491 0
 5839 1b1c 813D0044 		lwz 9,68(29)
 5840              	.LBE5489:
 5841              	.LBE5492:
 5842              	.LBE5495:
 5843              	.LBE5502:
 5844              		.loc 2 231 0
 5845 1b20 7F9EE000 		cmpw 7,30,28
 5846              	.LBB5503:
 5847              	.LBB5496:
 5848              	.LBB5493:
 5849              	.LBB5490:
 5850              		.loc 1 1491 0
 5851 1b24 3809FFFF 		addi 0,9,-1
 5852 1b28 901D0044 		stw 0,68(29)
 5853              	.LVL582:
 5854              	.LBE5490:
 5855              	.LBE5493:
 5856              	.LBE5496:
 5857              	.LBE5503:
 5858              		.loc 2 231 0
 5859 1b2c 40BE001C 		bne+ 7,.L356
 5860 1b30 4BFFFFA8 		b .L341
 5861              	.LVL583:
 5862              	.L357:
 5863              	.LBB5504:
 5864              	.LBB5505:
 5865              		.loc 1 196 0
 5866 1b34 7FC3F378 		mr 3,30
 5867 1b38 48000001 		bl _ZSt18_Rb_tree_incrementPSt18_Rb_tree_node_base
 5868              	.LBE5505:
 5869              	.LBE5504:
 5870              		.loc 2 231 0
 5871 1b3c 7F83E000 		cmpw 7,3,28
 5872              	.LBB5507:
 5873              	.LBB5506:
 5874              		.loc 1 196 0
 5875 1b40 7C7E1B78 		mr 30,3
 5876              	.LVL584:
 5877              	.LBE5506:
 5878              	.LBE5507:
 5879              		.loc 2 231 0
 5880 1b44 41BEFF94 		beq- 7,.L341
 5881              	.LVL585:
 5882              	.L356:
 5883              		.loc 2 233 0
 5884 1b48 807E0014 		lwz 3,20(30)
 5885 1b4c 7F83F800 		cmpw 7,3,31
 5886 1b50 409EFFE4 		bne+ 7,.L357
 5887              	.LVL586:
 5888              		.loc 2 235 0
 5889 1b54 2F830000 		cmpwi 7,3,0
 5890 1b58 419E0014 		beq- 7,.L352
 5891              		.loc 2 235 0 is_stmt 0 discriminator 1
 5892 1b5c 81230000 		lwz 9,0(3)
 5893 1b60 80090004 		lwz 0,4(9)
 5894 1b64 7C0903A6 		mtctr 0
 5895 1b68 4E800421 		bctrl
 5896              	.LVL587:
 5897              	.L352:
 5898              	.LBB5508:
 5899              	.LBB5509:
 5900              	.LBB5510:
 5901              	.LBB5511:
 5902              		.loc 1 1489 0 is_stmt 1
 5903 1b6c 7F84E378 		mr 4,28
 5904 1b70 7FC3F378 		mr 3,30
 5905 1b74 48000001 		bl _ZSt28_Rb_tree_rebalance_for_erasePSt18_Rb_tree_node_baseRS_
 5906              	.LBB5512:
 5907              	.LBB5513:
 5908              	.LBB5514:
 5909              	.LBB5515:
 5910              		.loc 3 98 0
 5911 1b78 48000001 		bl _ZdlPv
 5912              	.LBE5515:
 5913              	.LBE5514:
 5914              	.LBE5513:
 5915              	.LBE5512:
 5916              		.loc 1 1491 0
 5917 1b7c 813D0014 		lwz 9,20(29)
 5918              	.LBE5511:
 5919              	.LBE5510:
 5920              	.LBE5509:
 5921              	.LBE5508:
 5922              	.LBE5479:
 5923              	.LBE5526:
 5924              	.LBE5531:
 5925              		.loc 2 241 0
 5926 1b80 83810008 		lwz 28,8(1)
 5927              	.LVL588:
 5928              	.LBB5532:
 5929              	.LBB5527:
 5930              	.LBB5524:
 5931              	.LBB5522:
 5932              	.LBB5520:
 5933              	.LBB5518:
 5934              	.LBB5516:
 5935              		.loc 1 1491 0
 5936 1b84 3809FFFF 		addi 0,9,-1
 5937              	.LBE5516:
 5938              	.LBE5518:
 5939              	.LBE5520:
 5940              	.LBE5522:
 5941              	.LBE5524:
 5942              	.LBE5527:
 5943              	.LBE5532:
 5944              		.loc 2 241 0
 5945 1b88 83C10010 		lwz 30,16(1)
 5946              	.LVL589:
 5947              	.LBB5533:
 5948              	.LBB5528:
 5949              	.LBB5525:
 5950              	.LBB5523:
 5951              	.LBB5521:
 5952              	.LBB5519:
 5953              	.LBB5517:
 5954              		.loc 1 1491 0
 5955 1b8c 901D0014 		stw 0,20(29)
 5956              	.LBE5517:
 5957              	.LBE5519:
 5958              	.LBE5521:
 5959              	.LBE5523:
 5960              	.LBE5525:
 5961              	.LBE5528:
 5962              	.LBE5533:
 5963              		.loc 2 241 0
 5964 1b90 8001001C 		lwz 0,28(1)
 5965 1b94 83A1000C 		lwz 29,12(1)
 5966              	.LVL590:
 5967 1b98 7C0803A6 		mtlr 0
 5968 1b9c 83E10014 		lwz 31,20(1)
 5969              	.LVL591:
 5970 1ba0 38210018 		addi 1,1,24
 5971              		.cfi_restore 28
 5972              		.cfi_restore 29
 5973              		.cfi_restore 30
 5974              		.cfi_restore 31
 5975              	.LCFI71:
 5976              		.cfi_def_cfa_offset 0
 5977 1ba4 4E800020 		blr
 5978              		.cfi_endproc
 5979              	.LFE1571:
 5980              		.size	_ZN9Resources23InternalRemoveImageDataEP12GuiImageData, .-_ZN9Resources23InternalRemoveImage
 5981              		.align 2
 5982              		.globl _ZN9Resources6RemoveEP12GuiImageData
 5983              		.type	_ZN9Resources6RemoveEP12GuiImageData, @function
 5984              	_ZN9Resources6RemoveEP12GuiImageData:
 5985              	.LFB1567:
 5986              		.loc 2 176 0
 5987              		.cfi_startproc
 5988              	.LVL592:
 5989 1ba8 7C0802A6 		mflr 0
 5990 1bac 9421FFF0 		stwu 1,-16(1)
 5991              	.LCFI72:
 5992              		.cfi_def_cfa_offset 16
 5993              		.cfi_register 65, 0
 5994 1bb0 93E1000C 		stw 31,12(1)
 5995 1bb4 7C7F1B78 		mr 31,3
 5996              		.cfi_offset 31, -4
 5997 1bb8 90010014 		stw 0,20(1)
 5998              		.loc 2 177 0
 5999              		.cfi_offset 65, 4
 6000 1bbc 48000001 		bl _ZN9Resources8InstanceEv
 6001              	.LVL593:
 6002              		.loc 2 178 0
 6003 1bc0 80010014 		lwz 0,20(1)
 6004              		.loc 2 177 0
 6005 1bc4 7FE4FB78 		mr 4,31
 6006              		.loc 2 178 0
 6007 1bc8 83E1000C 		lwz 31,12(1)
 6008              	.LVL594:
 6009 1bcc 7C0803A6 		mtlr 0
 6010 1bd0 38210010 		addi 1,1,16
 6011              	.LCFI73:
 6012              		.cfi_def_cfa_offset 0
 6013              		.cfi_restore 31
 6014              		.loc 2 177 0
 6015 1bd4 48000000 		b _ZN9Resources23InternalRemoveImageDataEP12GuiImageData
 6016              	.LVL595:
 6017              		.cfi_endproc
 6018              	.LFE1567:
 6019              		.size	_ZN9Resources6RemoveEP12GuiImageData, .-_ZN9Resources6RemoveEP12GuiImageData
 6020              		.align 2
 6021              		.globl _ZN9Resources19InternalRemoveSoundEP8GuiSound
 6022              		.type	_ZN9Resources19InternalRemoveSoundEP8GuiSound, @function
 6023              	_ZN9Resources19InternalRemoveSoundEP8GuiSound:
 6024              	.LFB1572:
 6025              		.loc 2 244 0
 6026              		.cfi_startproc
 6027              	.LVL596:
 6028 1bd8 7C0802A6 		mflr 0
 6029 1bdc 9421FFE8 		stwu 1,-24(1)
 6030              	.LCFI74:
 6031              		.cfi_def_cfa_offset 24
 6032              		.cfi_register 65, 0
 6033 1be0 93A1000C 		stw 29,12(1)
 6034 1be4 7C7D1B78 		mr 29,3
 6035              		.cfi_offset 29, -12
 6036              	.LVL597:
 6037 1be8 9001001C 		stw 0,28(1)
 6038 1bec 93E10014 		stw 31,20(1)
 6039 1bf0 7C9F2378 		mr 31,4
 6040              		.cfi_offset 31, -4
 6041              		.cfi_offset 65, 4
 6042              	.LBB5534:
 6043              	.LBB5535:
 6044              	.LBB5536:
 6045              		.loc 2 266 0
 6046 1bf4 81230050 		lwz 9,80(3)
 6047              	.LVL598:
 6048              	.LBE5536:
 6049              	.LBE5535:
 6050              	.LBE5534:
 6051              		.loc 2 244 0
 6052 1bf8 93810008 		stw 28,8(1)
 6053              	.LBB5602:
 6054              	.LBB5549:
 6055              	.LBB5547:
 6056              	.LBB5537:
 6057              	.LBB5538:
 6058              	.LBB5539:
 6059              		.loc 1 1089 0
 6060 1bfc 2F890000 		cmpwi 7,9,0
 6061              	.LBE5539:
 6062              	.LBE5538:
 6063              	.LBE5537:
 6064              	.LBE5547:
 6065              	.LBE5549:
 6066              	.LBE5602:
 6067              		.loc 2 244 0
 6068 1c00 93C10010 		stw 30,16(1)
 6069              	.LBB5603:
 6070              	.LBB5550:
 6071              	.LBB5548:
 6072              	.LBB5545:
 6073              	.LBB5543:
 6074              	.LBB5540:
 6075              		.loc 1 1089 0
 6076 1c04 419E004C 		beq- 7,.L365
 6077              		.cfi_offset 30, -8
 6078              		.cfi_offset 28, -16
 6079              	.LVL599:
 6080              	.LBE5540:
 6081              	.LBE5543:
 6082              	.LBE5545:
 6083              		.loc 1 1536 0
 6084 1c08 3883004C 		addi 4,3,76
 6085              	.LVL600:
 6086 1c0c 7C832378 		mr 3,4
 6087              	.LVL601:
 6088 1c10 48000014 		b .L369
 6089              	.LVL602:
 6090              	.L386:
 6091              	.LBB5546:
 6092              	.LBB5544:
 6093              		.loc 2 266 0
 6094 1c14 7D234B78 		mr 3,9
 6095              		.loc 1 1091 0
 6096 1c18 81290008 		lwz 9,8(9)
 6097              	.LVL603:
 6098              	.LBB5541:
 6099              		.loc 1 1089 0
 6100 1c1c 2F890000 		cmpwi 7,9,0
 6101 1c20 419E001C 		beq- 7,.L385
 6102              	.LVL604:
 6103              	.L369:
 6104              		.loc 1 1090 0
 6105 1c24 80090010 		lwz 0,16(9)
 6106 1c28 7F80F840 		cmplw 7,0,31
 6107 1c2c 40BCFFE8 		bge- 7,.L386
 6108              	.LBE5541:
 6109              		.loc 2 266 0
 6110 1c30 8129000C 		lwz 9,12(9)
 6111              	.LVL605:
 6112              	.LBB5542:
 6113              		.loc 1 1089 0
 6114 1c34 2F890000 		cmpwi 7,9,0
 6115 1c38 409EFFEC 		bne+ 7,.L369
 6116              	.L385:
 6117              	.LVL606:
 6118              	.LBE5542:
 6119              	.LBE5544:
 6120              		.loc 1 1539 0
 6121 1c3c 7F841800 		cmpw 7,4,3
 6122 1c40 419E0010 		beq- 7,.L365
 6123              	.LVL607:
 6124 1c44 80030010 		lwz 0,16(3)
 6125 1c48 7F80F840 		cmplw 7,0,31
 6126 1c4c 409D0024 		ble- 7,.L387
 6127              	.LVL608:
 6128              	.L365:
 6129              	.LBE5546:
 6130              	.LBE5548:
 6131              	.LBE5550:
 6132              	.LBE5603:
 6133              		.loc 2 266 0
 6134 1c50 8001001C 		lwz 0,28(1)
 6135 1c54 83810008 		lwz 28,8(1)
 6136 1c58 7C0803A6 		mtlr 0
 6137 1c5c 83A1000C 		lwz 29,12(1)
 6138              	.LVL609:
 6139 1c60 83C10010 		lwz 30,16(1)
 6140 1c64 83E10014 		lwz 31,20(1)
 6141              	.LVL610:
 6142 1c68 38210018 		addi 1,1,24
 6143              		.cfi_remember_state
 6144              	.LCFI75:
 6145              		.cfi_def_cfa_offset 0
 6146              		.cfi_restore 31
 6147              		.cfi_restore 30
 6148              		.cfi_restore 29
 6149              		.cfi_restore 28
 6150 1c6c 4E800020 		blr
 6151              	.LVL611:
 6152              	.L387:
 6153              	.LCFI76:
 6154              		.cfi_restore_state
 6155              	.LBB5604:
 6156              		.loc 2 249 0
 6157 1c70 81230014 		lwz 9,20(3)
 6158              	.LVL612:
 6159 1c74 3809FFFF 		addi 0,9,-1
 6160              	.LBB5551:
 6161              		.loc 2 251 0
 6162 1c78 2F800000 		cmpwi 7,0,0
 6163              	.LBE5551:
 6164              		.loc 2 249 0
 6165 1c7c 90030014 		stw 0,20(3)
 6166              	.LVL613:
 6167              	.LBB5599:
 6168              		.loc 2 251 0
 6169 1c80 409EFFD0 		bne+ 7,.L365
 6170              	.LVL614:
 6171              	.LBB5552:
 6172              	.LBB5553:
 6173              	.LBB5554:
 6174              	.LBB5555:
 6175              	.LBB5556:
 6176              		.loc 1 1489 0
 6177 1c84 48000001 		bl _ZSt28_Rb_tree_rebalance_for_erasePSt18_Rb_tree_node_baseRS_
 6178              	.LVL615:
 6179              	.LBE5556:
 6180              	.LBE5555:
 6181              	.LBE5554:
 6182              	.LBE5553:
 6183              	.LBB5570:
 6184              	.LBB5571:
 6185              	.LBB5572:
 6186              		.loc 1 665 0
 6187 1c88 3B9D001C 		addi 28,29,28
 6188              	.LBE5572:
 6189              	.LBE5571:
 6190              	.LBE5570:
 6191              	.LBB5573:
 6192              	.LBB5567:
 6193              	.LBB5564:
 6194              	.LBB5561:
 6195              	.LBB5557:
 6196              	.LBB5558:
 6197              	.LBB5559:
 6198              	.LBB5560:
 6199              		.loc 3 98 0
 6200 1c8c 48000001 		bl _ZdlPv
 6201              	.LBE5560:
 6202              	.LBE5559:
 6203              	.LBE5558:
 6204              	.LBE5557:
 6205              	.LBE5561:
 6206              	.LBE5564:
 6207              	.LBE5567:
 6208              	.LBE5573:
 6209              	.LBB5574:
 6210              		.loc 2 266 0
 6211 1c90 83DD0024 		lwz 30,36(29)
 6212              	.LBE5574:
 6213              	.LBB5575:
 6214              	.LBB5568:
 6215              	.LBB5565:
 6216              	.LBB5562:
 6217              		.loc 1 1491 0
 6218 1c94 813D005C 		lwz 9,92(29)
 6219              	.LBE5562:
 6220              	.LBE5565:
 6221              	.LBE5568:
 6222              	.LBE5575:
 6223              		.loc 2 256 0
 6224 1c98 7F9EE000 		cmpw 7,30,28
 6225              	.LBB5576:
 6226              	.LBB5569:
 6227              	.LBB5566:
 6228              	.LBB5563:
 6229              		.loc 1 1491 0
 6230 1c9c 3809FFFF 		addi 0,9,-1
 6231 1ca0 901D005C 		stw 0,92(29)
 6232              	.LVL616:
 6233              	.LBE5563:
 6234              	.LBE5566:
 6235              	.LBE5569:
 6236              	.LBE5576:
 6237              		.loc 2 256 0
 6238 1ca4 40BE001C 		bne+ 7,.L380
 6239 1ca8 4BFFFFA8 		b .L365
 6240              	.LVL617:
 6241              	.L381:
 6242              	.LBB5577:
 6243              	.LBB5578:
 6244              		.loc 1 196 0
 6245 1cac 7FC3F378 		mr 3,30
 6246 1cb0 48000001 		bl _ZSt18_Rb_tree_incrementPSt18_Rb_tree_node_base
 6247              	.LBE5578:
 6248              	.LBE5577:
 6249              		.loc 2 256 0
 6250 1cb4 7F83E000 		cmpw 7,3,28
 6251              	.LBB5580:
 6252              	.LBB5579:
 6253              		.loc 1 196 0
 6254 1cb8 7C7E1B78 		mr 30,3
 6255              	.LVL618:
 6256              	.LBE5579:
 6257              	.LBE5580:
 6258              		.loc 2 256 0
 6259 1cbc 41BEFF94 		beq- 7,.L365
 6260              	.LVL619:
 6261              	.L380:
 6262              		.loc 2 258 0
 6263 1cc0 807E0014 		lwz 3,20(30)
 6264 1cc4 7F83F800 		cmpw 7,3,31
 6265 1cc8 409EFFE4 		bne+ 7,.L381
 6266              	.LVL620:
 6267              		.loc 2 260 0
 6268 1ccc 2F830000 		cmpwi 7,3,0
 6269 1cd0 419E0014 		beq- 7,.L376
 6270              		.loc 2 260 0 is_stmt 0 discriminator 1
 6271 1cd4 81230000 		lwz 9,0(3)
 6272 1cd8 80090004 		lwz 0,4(9)
 6273 1cdc 7C0903A6 		mtctr 0
 6274 1ce0 4E800421 		bctrl
 6275              	.LVL621:
 6276              	.L376:
 6277              	.LBB5581:
 6278              	.LBB5582:
 6279              	.LBB5583:
 6280              	.LBB5584:
 6281              		.loc 1 1489 0 is_stmt 1
 6282 1ce4 7F84E378 		mr 4,28
 6283 1ce8 7FC3F378 		mr 3,30
 6284 1cec 48000001 		bl _ZSt28_Rb_tree_rebalance_for_erasePSt18_Rb_tree_node_baseRS_
 6285              	.LBB5585:
 6286              	.LBB5586:
 6287              	.LBB5587:
 6288              	.LBB5588:
 6289              		.loc 3 98 0
 6290 1cf0 48000001 		bl _ZdlPv
 6291              	.LBE5588:
 6292              	.LBE5587:
 6293              	.LBE5586:
 6294              	.LBE5585:
 6295              		.loc 1 1491 0
 6296 1cf4 813D002C 		lwz 9,44(29)
 6297              	.LBE5584:
 6298              	.LBE5583:
 6299              	.LBE5582:
 6300              	.LBE5581:
 6301              	.LBE5552:
 6302              	.LBE5599:
 6303              	.LBE5604:
 6304              		.loc 2 266 0
 6305 1cf8 83810008 		lwz 28,8(1)
 6306              	.LVL622:
 6307              	.LBB5605:
 6308              	.LBB5600:
 6309              	.LBB5597:
 6310              	.LBB5595:
 6311              	.LBB5593:
 6312              	.LBB5591:
 6313              	.LBB5589:
 6314              		.loc 1 1491 0
 6315 1cfc 3809FFFF 		addi 0,9,-1
 6316              	.LBE5589:
 6317              	.LBE5591:
 6318              	.LBE5593:
 6319              	.LBE5595:
 6320              	.LBE5597:
 6321              	.LBE5600:
 6322              	.LBE5605:
 6323              		.loc 2 266 0
 6324 1d00 83C10010 		lwz 30,16(1)
 6325              	.LVL623:
 6326              	.LBB5606:
 6327              	.LBB5601:
 6328              	.LBB5598:
 6329              	.LBB5596:
 6330              	.LBB5594:
 6331              	.LBB5592:
 6332              	.LBB5590:
 6333              		.loc 1 1491 0
 6334 1d04 901D002C 		stw 0,44(29)
 6335              	.LBE5590:
 6336              	.LBE5592:
 6337              	.LBE5594:
 6338              	.LBE5596:
 6339              	.LBE5598:
 6340              	.LBE5601:
 6341              	.LBE5606:
 6342              		.loc 2 266 0
 6343 1d08 8001001C 		lwz 0,28(1)
 6344 1d0c 83A1000C 		lwz 29,12(1)
 6345              	.LVL624:
 6346 1d10 7C0803A6 		mtlr 0
 6347 1d14 83E10014 		lwz 31,20(1)
 6348              	.LVL625:
 6349 1d18 38210018 		addi 1,1,24
 6350              		.cfi_restore 28
 6351              		.cfi_restore 29
 6352              		.cfi_restore 30
 6353              		.cfi_restore 31
 6354              	.LCFI77:
 6355              		.cfi_def_cfa_offset 0
 6356 1d1c 4E800020 		blr
 6357              		.cfi_endproc
 6358              	.LFE1572:
 6359              		.size	_ZN9Resources19InternalRemoveSoundEP8GuiSound, .-_ZN9Resources19InternalRemoveSoundEP8GuiSou
 6360              		.align 2
 6361              		.globl _ZN9Resources6RemoveEP8GuiSound
 6362              		.type	_ZN9Resources6RemoveEP8GuiSound, @function
 6363              	_ZN9Resources6RemoveEP8GuiSound:
 6364              	.LFB1568:
 6365              		.loc 2 181 0
 6366              		.cfi_startproc
 6367              	.LVL626:
 6368 1d20 7C0802A6 		mflr 0
 6369 1d24 9421FFF0 		stwu 1,-16(1)
 6370              	.LCFI78:
 6371              		.cfi_def_cfa_offset 16
 6372              		.cfi_register 65, 0
 6373 1d28 93E1000C 		stw 31,12(1)
 6374 1d2c 7C7F1B78 		mr 31,3
 6375              		.cfi_offset 31, -4
 6376 1d30 90010014 		stw 0,20(1)
 6377              		.loc 2 182 0
 6378              		.cfi_offset 65, 4
 6379 1d34 48000001 		bl _ZN9Resources8InstanceEv
 6380              	.LVL627:
 6381              		.loc 2 183 0
 6382 1d38 80010014 		lwz 0,20(1)
 6383              		.loc 2 182 0
 6384 1d3c 7FE4FB78 		mr 4,31
 6385              		.loc 2 183 0
 6386 1d40 83E1000C 		lwz 31,12(1)
 6387              	.LVL628:
 6388 1d44 7C0803A6 		mtlr 0
 6389 1d48 38210010 		addi 1,1,16
 6390              	.LCFI79:
 6391              		.cfi_def_cfa_offset 0
 6392              		.cfi_restore 31
 6393              		.loc 2 182 0
 6394 1d4c 48000000 		b _ZN9Resources19InternalRemoveSoundEP8GuiSound
 6395              	.LVL629:
 6396              		.cfi_endproc
 6397              	.LFE1568:
 6398              		.size	_ZN9Resources6RemoveEP8GuiSound, .-_ZN9Resources6RemoveEP8GuiSound
 6399              		.section	.text._ZNSt8_Rb_treeIPKhSt4pairIKS1_P12GuiImageDataESt10_Select1stIS6_ESt4lessIS1_ESaIS6_
 6400              		.align 2
 6401              		.weak	_ZNSt8_Rb_treeIPKhSt4pairIKS1_P12GuiImageDataESt10_Select1stIS6_ESt4lessIS1_ESaIS6_EE8_M_era
 6402              		.type	_ZNSt8_Rb_treeIPKhSt4pairIKS1_P12GuiImageDataESt10_Select1stIS6_ESt4lessIS1_ESaIS6_EE8_M_era
 6403              	_ZNSt8_Rb_treeIPKhSt4pairIKS1_P12GuiImageDataESt10_Select1stIS6_ESt4lessIS1_ESaIS6_EE8_M_eraseEPSt1
 6404              	.LFB1727:
 6405              		.loc 1 1068 0
 6406              		.cfi_startproc
 6407              	.LVL630:
 6408 0000 9421FFC8 		stwu 1,-56(1)
 6409              	.LCFI80:
 6410              		.cfi_def_cfa_offset 56
 6411 0004 7C0802A6 		mflr 0
 6412 0008 92C10010 		stw 22,16(1)
 6413              	.LBB5753:
 6414              		.loc 1 1072 0
 6415 000c 7C962379 		mr. 22,4
 6416              		.cfi_offset 22, -40
 6417              		.cfi_register 65, 0
 6418              	.LBE5753:
 6419              		.loc 1 1068 0
 6420 0010 93C10030 		stw 30,48(1)
 6421 0014 7C7E1B78 		mr 30,3
 6422              		.cfi_offset 30, -8
 6423 0018 9001003C 		stw 0,60(1)
 6424 001c 92A1000C 		stw 21,12(1)
 6425 0020 92E10014 		stw 23,20(1)
 6426 0024 93010018 		stw 24,24(1)
 6427 0028 9321001C 		stw 25,28(1)
 6428 002c 93410020 		stw 26,32(1)
 6429 0030 93610024 		stw 27,36(1)
 6430 0034 93810028 		stw 28,40(1)
 6431 0038 93A1002C 		stw 29,44(1)
 6432 003c 93E10034 		stw 31,52(1)
 6433              	.LBB5838:
 6434              		.loc 1 1072 0
 6435 0040 41820168 		beq- 0,.L389
 6436              		.cfi_offset 31, -4
 6437              		.cfi_offset 29, -12
 6438              		.cfi_offset 28, -16
 6439              		.cfi_offset 27, -20
 6440              		.cfi_offset 26, -24
 6441              		.cfi_offset 25, -28
 6442              		.cfi_offset 24, -32
 6443              		.cfi_offset 23, -36
 6444              		.cfi_offset 21, -44
 6445              		.cfi_offset 65, 4
 6446              	.LVL631:
 6447              	.L444:
 6448              		.loc 2 266 0
 6449 0044 8376000C 		lwz 27,12(22)
 6450              	.LVL632:
 6451              	.LBB5754:
 6452              	.LBB5755:
 6453              	.LBB5756:
 6454              		.loc 1 1072 0
 6455 0048 2F9B0000 		cmpwi 7,27,0
 6456 004c 419E0140 		beq- 7,.L391
 6457              	.LVL633:
 6458              	.L445:
 6459              	.LBE5756:
 6460              		.loc 2 266 0
 6461 0050 835B000C 		lwz 26,12(27)
 6462              	.LVL634:
 6463              	.LBB5832:
 6464              	.LBB5757:
 6465              	.LBB5758:
 6466              	.LBB5759:
 6467              		.loc 1 1072 0
 6468 0054 2F9A0000 		cmpwi 7,26,0
 6469 0058 419E0118 		beq- 7,.L392
 6470              	.LVL635:
 6471              	.L446:
 6472              	.LBE5759:
 6473              		.loc 2 266 0
 6474 005c 833A000C 		lwz 25,12(26)
 6475              	.LVL636:
 6476              	.LBB5825:
 6477              	.LBB5760:
 6478              	.LBB5761:
 6479              	.LBB5762:
 6480              		.loc 1 1072 0
 6481 0060 2F990000 		cmpwi 7,25,0
 6482 0064 419E00F0 		beq- 7,.L393
 6483              	.LVL637:
 6484              	.L447:
 6485              	.LBE5762:
 6486              		.loc 2 266 0
 6487 0068 8319000C 		lwz 24,12(25)
 6488              	.LVL638:
 6489              	.LBB5818:
 6490              	.LBB5763:
 6491              	.LBB5764:
 6492              	.LBB5765:
 6493              		.loc 1 1072 0
 6494 006c 2F980000 		cmpwi 7,24,0
 6495 0070 419E00C8 		beq- 7,.L394
 6496              	.LVL639:
 6497              	.L448:
 6498              	.LBE5765:
 6499              		.loc 2 266 0
 6500 0074 82F8000C 		lwz 23,12(24)
 6501              	.LVL640:
 6502              	.LBB5811:
 6503              	.LBB5766:
 6504              	.LBB5767:
 6505              	.LBB5768:
 6506              		.loc 1 1072 0
 6507 0078 2F970000 		cmpwi 7,23,0
 6508 007c 419E00A0 		beq- 7,.L395
 6509              	.LVL641:
 6510              	.L449:
 6511              	.LBE5768:
 6512              		.loc 2 266 0
 6513 0080 8397000C 		lwz 28,12(23)
 6514              	.LVL642:
 6515              	.LBB5804:
 6516              	.LBB5769:
 6517              	.LBB5770:
 6518              	.LBB5771:
 6519              		.loc 1 1072 0
 6520 0084 2F9C0000 		cmpwi 7,28,0
 6521 0088 419E0078 		beq- 7,.L396
 6522              	.LVL643:
 6523              	.L450:
 6524              	.LBE5771:
 6525              		.loc 2 266 0
 6526 008c 83BC000C 		lwz 29,12(28)
 6527              	.LVL644:
 6528              	.LBB5797:
 6529              	.LBB5772:
 6530              	.LBB5773:
 6531              	.LBB5774:
 6532              		.loc 1 1072 0
 6533 0090 2F9D0000 		cmpwi 7,29,0
 6534 0094 419E0050 		beq- 7,.L397
 6535              	.LVL645:
 6536              	.L451:
 6537              	.LBE5774:
 6538              		.loc 2 266 0
 6539 0098 83FD000C 		lwz 31,12(29)
 6540              	.LVL646:
 6541              	.LBB5790:
 6542              	.LBB5775:
 6543              	.LBB5776:
 6544              	.LBB5777:
 6545              		.loc 1 1072 0
 6546 009c 2F9F0000 		cmpwi 7,31,0
 6547 00a0 419E0028 		beq- 7,.L398
 6548              	.LVL647:
 6549              	.L452:
 6550              	.LBB5778:
 6551              		.loc 1 1074 0
 6552 00a4 809F000C 		lwz 4,12(31)
 6553 00a8 7FC3F378 		mr 3,30
 6554 00ac 48000001 		bl _ZNSt8_Rb_treeIPKhSt4pairIKS1_P12GuiImageDataESt10_Select1stIS6_ESt4lessIS1_ESaIS6_EE8_M_eraseE
 6555              	.LBE5778:
 6556              	.LBE5777:
 6557              		.loc 2 266 0
 6558 00b0 82BF0008 		lwz 21,8(31)
 6559              	.LVL648:
 6560              	.LBB5784:
 6561              	.LBB5783:
 6562              	.LBB5779:
 6563              	.LBB5780:
 6564              	.LBB5781:
 6565              	.LBB5782:
 6566              		.loc 3 98 0
 6567 00b4 7FE3FB78 		mr 3,31
 6568 00b8 48000001 		bl _ZdlPv
 6569              	.LVL649:
 6570              	.LBE5782:
 6571              	.LBE5781:
 6572              	.LBE5780:
 6573              	.LBE5779:
 6574              	.LBE5783:
 6575              		.loc 1 1072 0
 6576 00bc 2F950000 		cmpwi 7,21,0
 6577              		.loc 1 1077 0
 6578 00c0 7EBFAB78 		mr 31,21
 6579              	.LVL650:
 6580              		.loc 1 1072 0
 6581 00c4 409EFFE0 		bne+ 7,.L452
 6582              	.LVL651:
 6583              	.L398:
 6584              	.LBE5784:
 6585              	.LBE5776:
 6586              	.LBE5775:
 6587              	.LBE5790:
 6588              		.loc 2 266 0
 6589 00c8 83FD0008 		lwz 31,8(29)
 6590              	.LVL652:
 6591              	.LBB5791:
 6592              	.LBB5789:
 6593              	.LBB5785:
 6594              	.LBB5786:
 6595              	.LBB5787:
 6596              	.LBB5788:
 6597              		.loc 3 98 0
 6598 00cc 7FA3EB78 		mr 3,29
 6599 00d0 48000001 		bl _ZdlPv
 6600              	.LVL653:
 6601              	.LBE5788:
 6602              	.LBE5787:
 6603              	.LBE5786:
 6604              	.LBE5785:
 6605              	.LBE5789:
 6606              		.loc 1 1072 0
 6607 00d4 2F9F0000 		cmpwi 7,31,0
 6608 00d8 419E000C 		beq- 7,.L397
 6609              		.loc 1 1077 0
 6610 00dc 7FFDFB78 		mr 29,31
 6611              	.LVL654:
 6612 00e0 4BFFFFB8 		b .L451
 6613              	.LVL655:
 6614              	.L397:
 6615              	.LBE5791:
 6616              	.LBE5773:
 6617              	.LBE5772:
 6618              	.LBE5797:
 6619              		.loc 2 266 0
 6620 00e4 83FC0008 		lwz 31,8(28)
 6621              	.LVL656:
 6622              	.LBB5798:
 6623              	.LBB5796:
 6624              	.LBB5792:
 6625              	.LBB5793:
 6626              	.LBB5794:
 6627              	.LBB5795:
 6628              		.loc 3 98 0
 6629 00e8 7F83E378 		mr 3,28
 6630 00ec 48000001 		bl _ZdlPv
 6631              	.LVL657:
 6632              	.LBE5795:
 6633              	.LBE5794:
 6634              	.LBE5793:
 6635              	.LBE5792:
 6636              	.LBE5796:
 6637              		.loc 1 1072 0
 6638 00f0 2F9F0000 		cmpwi 7,31,0
 6639 00f4 419E000C 		beq- 7,.L396
 6640              		.loc 1 1077 0
 6641 00f8 7FFCFB78 		mr 28,31
 6642              	.LVL658:
 6643 00fc 4BFFFF90 		b .L450
 6644              	.LVL659:
 6645              	.L396:
 6646              	.LBE5798:
 6647              	.LBE5770:
 6648              	.LBE5769:
 6649              	.LBE5804:
 6650              		.loc 2 266 0
 6651 0100 83F70008 		lwz 31,8(23)
 6652              	.LVL660:
 6653              	.LBB5805:
 6654              	.LBB5803:
 6655              	.LBB5799:
 6656              	.LBB5800:
 6657              	.LBB5801:
 6658              	.LBB5802:
 6659              		.loc 3 98 0
 6660 0104 7EE3BB78 		mr 3,23
 6661 0108 48000001 		bl _ZdlPv
 6662              	.LVL661:
 6663              	.LBE5802:
 6664              	.LBE5801:
 6665              	.LBE5800:
 6666              	.LBE5799:
 6667              	.LBE5803:
 6668              		.loc 1 1072 0
 6669 010c 2F9F0000 		cmpwi 7,31,0
 6670 0110 419E000C 		beq- 7,.L395
 6671              		.loc 1 1077 0
 6672 0114 7FF7FB78 		mr 23,31
 6673              	.LVL662:
 6674 0118 4BFFFF68 		b .L449
 6675              	.LVL663:
 6676              	.L395:
 6677              	.LBE5805:
 6678              	.LBE5767:
 6679              	.LBE5766:
 6680              	.LBE5811:
 6681              		.loc 2 266 0
 6682 011c 83F80008 		lwz 31,8(24)
 6683              	.LVL664:
 6684              	.LBB5812:
 6685              	.LBB5810:
 6686              	.LBB5806:
 6687              	.LBB5807:
 6688              	.LBB5808:
 6689              	.LBB5809:
 6690              		.loc 3 98 0
 6691 0120 7F03C378 		mr 3,24
 6692 0124 48000001 		bl _ZdlPv
 6693              	.LVL665:
 6694              	.LBE5809:
 6695              	.LBE5808:
 6696              	.LBE5807:
 6697              	.LBE5806:
 6698              	.LBE5810:
 6699              		.loc 1 1072 0
 6700 0128 2F9F0000 		cmpwi 7,31,0
 6701 012c 419E000C 		beq- 7,.L394
 6702              		.loc 1 1077 0
 6703 0130 7FF8FB78 		mr 24,31
 6704              	.LVL666:
 6705 0134 4BFFFF40 		b .L448
 6706              	.LVL667:
 6707              	.L394:
 6708              	.LBE5812:
 6709              	.LBE5764:
 6710              	.LBE5763:
 6711              	.LBE5818:
 6712              		.loc 2 266 0
 6713 0138 83F90008 		lwz 31,8(25)
 6714              	.LVL668:
 6715              	.LBB5819:
 6716              	.LBB5817:
 6717              	.LBB5813:
 6718              	.LBB5814:
 6719              	.LBB5815:
 6720              	.LBB5816:
 6721              		.loc 3 98 0
 6722 013c 7F23CB78 		mr 3,25
 6723 0140 48000001 		bl _ZdlPv
 6724              	.LVL669:
 6725              	.LBE5816:
 6726              	.LBE5815:
 6727              	.LBE5814:
 6728              	.LBE5813:
 6729              	.LBE5817:
 6730              		.loc 1 1072 0
 6731 0144 2F9F0000 		cmpwi 7,31,0
 6732 0148 419E000C 		beq- 7,.L393
 6733              		.loc 1 1077 0
 6734 014c 7FF9FB78 		mr 25,31
 6735              	.LVL670:
 6736 0150 4BFFFF18 		b .L447
 6737              	.LVL671:
 6738              	.L393:
 6739              	.LBE5819:
 6740              	.LBE5761:
 6741              	.LBE5760:
 6742              	.LBE5825:
 6743              		.loc 2 266 0
 6744 0154 83FA0008 		lwz 31,8(26)
 6745              	.LVL672:
 6746              	.LBB5826:
 6747              	.LBB5824:
 6748              	.LBB5820:
 6749              	.LBB5821:
 6750              	.LBB5822:
 6751              	.LBB5823:
 6752              		.loc 3 98 0
 6753 0158 7F43D378 		mr 3,26
 6754 015c 48000001 		bl _ZdlPv
 6755              	.LVL673:
 6756              	.LBE5823:
 6757              	.LBE5822:
 6758              	.LBE5821:
 6759              	.LBE5820:
 6760              	.LBE5824:
 6761              		.loc 1 1072 0
 6762 0160 2F9F0000 		cmpwi 7,31,0
 6763 0164 419E000C 		beq- 7,.L392
 6764              		.loc 1 1077 0
 6765 0168 7FFAFB78 		mr 26,31
 6766              	.LVL674:
 6767 016c 4BFFFEF0 		b .L446
 6768              	.LVL675:
 6769              	.L392:
 6770              	.LBE5826:
 6771              	.LBE5758:
 6772              	.LBE5757:
 6773              	.LBE5832:
 6774              		.loc 2 266 0
 6775 0170 83FB0008 		lwz 31,8(27)
 6776              	.LVL676:
 6777              	.LBB5833:
 6778              	.LBB5831:
 6779              	.LBB5827:
 6780              	.LBB5828:
 6781              	.LBB5829:
 6782              	.LBB5830:
 6783              		.loc 3 98 0
 6784 0174 7F63DB78 		mr 3,27
 6785 0178 48000001 		bl _ZdlPv
 6786              	.LVL677:
 6787              	.LBE5830:
 6788              	.LBE5829:
 6789              	.LBE5828:
 6790              	.LBE5827:
 6791              	.LBE5831:
 6792              		.loc 1 1072 0
 6793 017c 2F9F0000 		cmpwi 7,31,0
 6794 0180 419E000C 		beq- 7,.L391
 6795              		.loc 1 1077 0
 6796 0184 7FFBFB78 		mr 27,31
 6797              	.LVL678:
 6798 0188 4BFFFEC8 		b .L445
 6799              	.LVL679:
 6800              	.L391:
 6801              		.loc 2 266 0
 6802 018c 83F60008 		lwz 31,8(22)
 6803              	.LVL680:
 6804              	.LBE5833:
 6805              	.LBE5755:
 6806              	.LBB5834:
 6807              	.LBB5835:
 6808              	.LBB5836:
 6809              	.LBB5837:
 6810              		.loc 3 98 0
 6811 0190 7EC3B378 		mr 3,22
 6812 0194 48000001 		bl _ZdlPv
 6813              	.LVL681:
 6814              	.LBE5837:
 6815              	.LBE5836:
 6816              	.LBE5835:
 6817              	.LBE5834:
 6818              	.LBE5754:
 6819              		.loc 1 1072 0
 6820 0198 2F9F0000 		cmpwi 7,31,0
 6821 019c 419E000C 		beq- 7,.L389
 6822              		.loc 1 1077 0
 6823 01a0 7FF6FB78 		mr 22,31
 6824              	.LVL682:
 6825 01a4 4BFFFEA0 		b .L444
 6826              	.LVL683:
 6827              	.L389:
 6828              	.LBE5838:
 6829              		.loc 1 1079 0
 6830 01a8 8001003C 		lwz 0,60(1)
 6831 01ac 82A1000C 		lwz 21,12(1)
 6832 01b0 7C0803A6 		mtlr 0
 6833 01b4 82C10010 		lwz 22,16(1)
 6834 01b8 82E10014 		lwz 23,20(1)
 6835 01bc 83010018 		lwz 24,24(1)
 6836 01c0 8321001C 		lwz 25,28(1)
 6837 01c4 83410020 		lwz 26,32(1)
 6838 01c8 83610024 		lwz 27,36(1)
 6839 01cc 83810028 		lwz 28,40(1)
 6840 01d0 83A1002C 		lwz 29,44(1)
 6841 01d4 83C10030 		lwz 30,48(1)
 6842              	.LVL684:
 6843 01d8 83E10034 		lwz 31,52(1)
 6844 01dc 38210038 		addi 1,1,56
 6845              	.LCFI81:
 6846              		.cfi_def_cfa_offset 0
 6847              		.cfi_restore 31
 6848              		.cfi_restore 30
 6849              		.cfi_restore 29
 6850              		.cfi_restore 28
 6851              		.cfi_restore 27
 6852              		.cfi_restore 26
 6853              		.cfi_restore 25
 6854              		.cfi_restore 24
 6855              		.cfi_restore 23
 6856              		.cfi_restore 22
 6857              		.cfi_restore 21
 6858 01e0 4E800020 		blr
 6859              		.cfi_endproc
 6860              	.LFE1727:
 6861              		.size	_ZNSt8_Rb_treeIPKhSt4pairIKS1_P12GuiImageDataESt10_Select1stIS6_ESt4lessIS1_ESaIS6_EE8_M_era
 6862              		.section	.text._ZNSt8_Rb_treeIPKhSt4pairIKS1_P8GuiSoundESt10_Select1stIS6_ESt4lessIS1_ESaIS6_EE8_M
 6863              		.align 2
 6864              		.weak	_ZNSt8_Rb_treeIPKhSt4pairIKS1_P8GuiSoundESt10_Select1stIS6_ESt4lessIS1_ESaIS6_EE8_M_eraseEPS
 6865              		.type	_ZNSt8_Rb_treeIPKhSt4pairIKS1_P8GuiSoundESt10_Select1stIS6_ESt4lessIS1_ESaIS6_EE8_M_eraseEPS
 6866              	_ZNSt8_Rb_treeIPKhSt4pairIKS1_P8GuiSoundESt10_Select1stIS6_ESt4lessIS1_ESaIS6_EE8_M_eraseEPSt13_Rb_
 6867              	.LFB1735:
 6868              		.loc 1 1068 0
 6869              		.cfi_startproc
 6870              	.LVL685:
 6871 0000 9421FFC8 		stwu 1,-56(1)
 6872              	.LCFI82:
 6873              		.cfi_def_cfa_offset 56
 6874 0004 7C0802A6 		mflr 0
 6875 0008 92C10010 		stw 22,16(1)
 6876              	.LBB5985:
 6877              		.loc 1 1072 0
 6878 000c 7C962379 		mr. 22,4
 6879              		.cfi_offset 22, -40
 6880              		.cfi_register 65, 0
 6881              	.LBE5985:
 6882              		.loc 1 1068 0
 6883 0010 93C10030 		stw 30,48(1)
 6884 0014 7C7E1B78 		mr 30,3
 6885              		.cfi_offset 30, -8
 6886 0018 9001003C 		stw 0,60(1)
 6887 001c 92A1000C 		stw 21,12(1)
 6888 0020 92E10014 		stw 23,20(1)
 6889 0024 93010018 		stw 24,24(1)
 6890 0028 9321001C 		stw 25,28(1)
 6891 002c 93410020 		stw 26,32(1)
 6892 0030 93610024 		stw 27,36(1)
 6893 0034 93810028 		stw 28,40(1)
 6894 0038 93A1002C 		stw 29,44(1)
 6895 003c 93E10034 		stw 31,52(1)
 6896              	.LBB6070:
 6897              		.loc 1 1072 0
 6898 0040 41820168 		beq- 0,.L453
 6899              		.cfi_offset 31, -4
 6900              		.cfi_offset 29, -12
 6901              		.cfi_offset 28, -16
 6902              		.cfi_offset 27, -20
 6903              		.cfi_offset 26, -24
 6904              		.cfi_offset 25, -28
 6905              		.cfi_offset 24, -32
 6906              		.cfi_offset 23, -36
 6907              		.cfi_offset 21, -44
 6908              		.cfi_offset 65, 4
 6909              	.LVL686:
 6910              	.L508:
 6911              		.loc 2 266 0
 6912 0044 8376000C 		lwz 27,12(22)
 6913              	.LVL687:
 6914              	.LBB5986:
 6915              	.LBB5987:
 6916              	.LBB5988:
 6917              		.loc 1 1072 0
 6918 0048 2F9B0000 		cmpwi 7,27,0
 6919 004c 419E0140 		beq- 7,.L455
 6920              	.LVL688:
 6921              	.L509:
 6922              	.LBE5988:
 6923              		.loc 2 266 0
 6924 0050 835B000C 		lwz 26,12(27)
 6925              	.LVL689:
 6926              	.LBB6064:
 6927              	.LBB5989:
 6928              	.LBB5990:
 6929              	.LBB5991:
 6930              		.loc 1 1072 0
 6931 0054 2F9A0000 		cmpwi 7,26,0
 6932 0058 419E0118 		beq- 7,.L456
 6933              	.LVL690:
 6934              	.L510:
 6935              	.LBE5991:
 6936              		.loc 2 266 0
 6937 005c 833A000C 		lwz 25,12(26)
 6938              	.LVL691:
 6939              	.LBB6057:
 6940              	.LBB5992:
 6941              	.LBB5993:
 6942              	.LBB5994:
 6943              		.loc 1 1072 0
 6944 0060 2F990000 		cmpwi 7,25,0
 6945 0064 419E00F0 		beq- 7,.L457
 6946              	.LVL692:
 6947              	.L511:
 6948              	.LBE5994:
 6949              		.loc 2 266 0
 6950 0068 8319000C 		lwz 24,12(25)
 6951              	.LVL693:
 6952              	.LBB6050:
 6953              	.LBB5995:
 6954              	.LBB5996:
 6955              	.LBB5997:
 6956              		.loc 1 1072 0
 6957 006c 2F980000 		cmpwi 7,24,0
 6958 0070 419E00C8 		beq- 7,.L458
 6959              	.LVL694:
 6960              	.L512:
 6961              	.LBE5997:
 6962              		.loc 2 266 0
 6963 0074 82F8000C 		lwz 23,12(24)
 6964              	.LVL695:
 6965              	.LBB6043:
 6966              	.LBB5998:
 6967              	.LBB5999:
 6968              	.LBB6000:
 6969              		.loc 1 1072 0
 6970 0078 2F970000 		cmpwi 7,23,0
 6971 007c 419E00A0 		beq- 7,.L459
 6972              	.LVL696:
 6973              	.L513:
 6974              	.LBE6000:
 6975              		.loc 2 266 0
 6976 0080 8397000C 		lwz 28,12(23)
 6977              	.LVL697:
 6978              	.LBB6036:
 6979              	.LBB6001:
 6980              	.LBB6002:
 6981              	.LBB6003:
 6982              		.loc 1 1072 0
 6983 0084 2F9C0000 		cmpwi 7,28,0
 6984 0088 419E0078 		beq- 7,.L460
 6985              	.LVL698:
 6986              	.L514:
 6987              	.LBE6003:
 6988              		.loc 2 266 0
 6989 008c 83BC000C 		lwz 29,12(28)
 6990              	.LVL699:
 6991              	.LBB6029:
 6992              	.LBB6004:
 6993              	.LBB6005:
 6994              	.LBB6006:
 6995              		.loc 1 1072 0
 6996 0090 2F9D0000 		cmpwi 7,29,0
 6997 0094 419E0050 		beq- 7,.L461
 6998              	.LVL700:
 6999              	.L515:
 7000              	.LBE6006:
 7001              		.loc 2 266 0
 7002 0098 83FD000C 		lwz 31,12(29)
 7003              	.LVL701:
 7004              	.LBB6022:
 7005              	.LBB6007:
 7006              	.LBB6008:
 7007              	.LBB6009:
 7008              		.loc 1 1072 0
 7009 009c 2F9F0000 		cmpwi 7,31,0
 7010 00a0 419E0028 		beq- 7,.L462
 7011              	.LVL702:
 7012              	.L516:
 7013              	.LBB6010:
 7014              		.loc 1 1074 0
 7015 00a4 809F000C 		lwz 4,12(31)
 7016 00a8 7FC3F378 		mr 3,30
 7017 00ac 48000001 		bl _ZNSt8_Rb_treeIPKhSt4pairIKS1_P8GuiSoundESt10_Select1stIS6_ESt4lessIS1_ESaIS6_EE8_M_eraseEPSt13
 7018              	.LBE6010:
 7019              	.LBE6009:
 7020              		.loc 2 266 0
 7021 00b0 82BF0008 		lwz 21,8(31)
 7022              	.LVL703:
 7023              	.LBB6016:
 7024              	.LBB6015:
 7025              	.LBB6011:
 7026              	.LBB6012:
 7027              	.LBB6013:
 7028              	.LBB6014:
 7029              		.loc 3 98 0
 7030 00b4 7FE3FB78 		mr 3,31
 7031 00b8 48000001 		bl _ZdlPv
 7032              	.LVL704:
 7033              	.LBE6014:
 7034              	.LBE6013:
 7035              	.LBE6012:
 7036              	.LBE6011:
 7037              	.LBE6015:
 7038              		.loc 1 1072 0
 7039 00bc 2F950000 		cmpwi 7,21,0
 7040              		.loc 1 1077 0
 7041 00c0 7EBFAB78 		mr 31,21
 7042              	.LVL705:
 7043              		.loc 1 1072 0
 7044 00c4 409EFFE0 		bne+ 7,.L516
 7045              	.LVL706:
 7046              	.L462:
 7047              	.LBE6016:
 7048              	.LBE6008:
 7049              	.LBE6007:
 7050              	.LBE6022:
 7051              		.loc 2 266 0
 7052 00c8 83FD0008 		lwz 31,8(29)
 7053              	.LVL707:
 7054              	.LBB6023:
 7055              	.LBB6021:
 7056              	.LBB6017:
 7057              	.LBB6018:
 7058              	.LBB6019:
 7059              	.LBB6020:
 7060              		.loc 3 98 0
 7061 00cc 7FA3EB78 		mr 3,29
 7062 00d0 48000001 		bl _ZdlPv
 7063              	.LVL708:
 7064              	.LBE6020:
 7065              	.LBE6019:
 7066              	.LBE6018:
 7067              	.LBE6017:
 7068              	.LBE6021:
 7069              		.loc 1 1072 0
 7070 00d4 2F9F0000 		cmpwi 7,31,0
 7071 00d8 419E000C 		beq- 7,.L461
 7072              		.loc 1 1077 0
 7073 00dc 7FFDFB78 		mr 29,31
 7074              	.LVL709:
 7075 00e0 4BFFFFB8 		b .L515
 7076              	.LVL710:
 7077              	.L461:
 7078              	.LBE6023:
 7079              	.LBE6005:
 7080              	.LBE6004:
 7081              	.LBE6029:
 7082              		.loc 2 266 0
 7083 00e4 83FC0008 		lwz 31,8(28)
 7084              	.LVL711:
 7085              	.LBB6030:
 7086              	.LBB6028:
 7087              	.LBB6024:
 7088              	.LBB6025:
 7089              	.LBB6026:
 7090              	.LBB6027:
 7091              		.loc 3 98 0
 7092 00e8 7F83E378 		mr 3,28
 7093 00ec 48000001 		bl _ZdlPv
 7094              	.LVL712:
 7095              	.LBE6027:
 7096              	.LBE6026:
 7097              	.LBE6025:
 7098              	.LBE6024:
 7099              	.LBE6028:
 7100              		.loc 1 1072 0
 7101 00f0 2F9F0000 		cmpwi 7,31,0
 7102 00f4 419E000C 		beq- 7,.L460
 7103              		.loc 1 1077 0
 7104 00f8 7FFCFB78 		mr 28,31
 7105              	.LVL713:
 7106 00fc 4BFFFF90 		b .L514
 7107              	.LVL714:
 7108              	.L460:
 7109              	.LBE6030:
 7110              	.LBE6002:
 7111              	.LBE6001:
 7112              	.LBE6036:
 7113              		.loc 2 266 0
 7114 0100 83F70008 		lwz 31,8(23)
 7115              	.LVL715:
 7116              	.LBB6037:
 7117              	.LBB6035:
 7118              	.LBB6031:
 7119              	.LBB6032:
 7120              	.LBB6033:
 7121              	.LBB6034:
 7122              		.loc 3 98 0
 7123 0104 7EE3BB78 		mr 3,23
 7124 0108 48000001 		bl _ZdlPv
 7125              	.LVL716:
 7126              	.LBE6034:
 7127              	.LBE6033:
 7128              	.LBE6032:
 7129              	.LBE6031:
 7130              	.LBE6035:
 7131              		.loc 1 1072 0
 7132 010c 2F9F0000 		cmpwi 7,31,0
 7133 0110 419E000C 		beq- 7,.L459
 7134              		.loc 1 1077 0
 7135 0114 7FF7FB78 		mr 23,31
 7136              	.LVL717:
 7137 0118 4BFFFF68 		b .L513
 7138              	.LVL718:
 7139              	.L459:
 7140              	.LBE6037:
 7141              	.LBE5999:
 7142              	.LBE5998:
 7143              	.LBE6043:
 7144              		.loc 2 266 0
 7145 011c 83F80008 		lwz 31,8(24)
 7146              	.LVL719:
 7147              	.LBB6044:
 7148              	.LBB6042:
 7149              	.LBB6038:
 7150              	.LBB6039:
 7151              	.LBB6040:
 7152              	.LBB6041:
 7153              		.loc 3 98 0
 7154 0120 7F03C378 		mr 3,24
 7155 0124 48000001 		bl _ZdlPv
 7156              	.LVL720:
 7157              	.LBE6041:
 7158              	.LBE6040:
 7159              	.LBE6039:
 7160              	.LBE6038:
 7161              	.LBE6042:
 7162              		.loc 1 1072 0
 7163 0128 2F9F0000 		cmpwi 7,31,0
 7164 012c 419E000C 		beq- 7,.L458
 7165              		.loc 1 1077 0
 7166 0130 7FF8FB78 		mr 24,31
 7167              	.LVL721:
 7168 0134 4BFFFF40 		b .L512
 7169              	.LVL722:
 7170              	.L458:
 7171              	.LBE6044:
 7172              	.LBE5996:
 7173              	.LBE5995:
 7174              	.LBE6050:
 7175              		.loc 2 266 0
 7176 0138 83F90008 		lwz 31,8(25)
 7177              	.LVL723:
 7178              	.LBB6051:
 7179              	.LBB6049:
 7180              	.LBB6045:
 7181              	.LBB6046:
 7182              	.LBB6047:
 7183              	.LBB6048:
 7184              		.loc 3 98 0
 7185 013c 7F23CB78 		mr 3,25
 7186 0140 48000001 		bl _ZdlPv
 7187              	.LVL724:
 7188              	.LBE6048:
 7189              	.LBE6047:
 7190              	.LBE6046:
 7191              	.LBE6045:
 7192              	.LBE6049:
 7193              		.loc 1 1072 0
 7194 0144 2F9F0000 		cmpwi 7,31,0
 7195 0148 419E000C 		beq- 7,.L457
 7196              		.loc 1 1077 0
 7197 014c 7FF9FB78 		mr 25,31
 7198              	.LVL725:
 7199 0150 4BFFFF18 		b .L511
 7200              	.LVL726:
 7201              	.L457:
 7202              	.LBE6051:
 7203              	.LBE5993:
 7204              	.LBE5992:
 7205              	.LBE6057:
 7206              		.loc 2 266 0
 7207 0154 83FA0008 		lwz 31,8(26)
 7208              	.LVL727:
 7209              	.LBB6058:
 7210              	.LBB6056:
 7211              	.LBB6052:
 7212              	.LBB6053:
 7213              	.LBB6054:
 7214              	.LBB6055:
 7215              		.loc 3 98 0
 7216 0158 7F43D378 		mr 3,26
 7217 015c 48000001 		bl _ZdlPv
 7218              	.LVL728:
 7219              	.LBE6055:
 7220              	.LBE6054:
 7221              	.LBE6053:
 7222              	.LBE6052:
 7223              	.LBE6056:
 7224              		.loc 1 1072 0
 7225 0160 2F9F0000 		cmpwi 7,31,0
 7226 0164 419E000C 		beq- 7,.L456
 7227              		.loc 1 1077 0
 7228 0168 7FFAFB78 		mr 26,31
 7229              	.LVL729:
 7230 016c 4BFFFEF0 		b .L510
 7231              	.LVL730:
 7232              	.L456:
 7233              	.LBE6058:
 7234              	.LBE5990:
 7235              	.LBE5989:
 7236              	.LBE6064:
 7237              		.loc 2 266 0
 7238 0170 83FB0008 		lwz 31,8(27)
 7239              	.LVL731:
 7240              	.LBB6065:
 7241              	.LBB6063:
 7242              	.LBB6059:
 7243              	.LBB6060:
 7244              	.LBB6061:
 7245              	.LBB6062:
 7246              		.loc 3 98 0
 7247 0174 7F63DB78 		mr 3,27
 7248 0178 48000001 		bl _ZdlPv
 7249              	.LVL732:
 7250              	.LBE6062:
 7251              	.LBE6061:
 7252              	.LBE6060:
 7253              	.LBE6059:
 7254              	.LBE6063:
 7255              		.loc 1 1072 0
 7256 017c 2F9F0000 		cmpwi 7,31,0
 7257 0180 419E000C 		beq- 7,.L455
 7258              		.loc 1 1077 0
 7259 0184 7FFBFB78 		mr 27,31
 7260              	.LVL733:
 7261 0188 4BFFFEC8 		b .L509
 7262              	.LVL734:
 7263              	.L455:
 7264              		.loc 2 266 0
 7265 018c 83F60008 		lwz 31,8(22)
 7266              	.LVL735:
 7267              	.LBE6065:
 7268              	.LBE5987:
 7269              	.LBB6066:
 7270              	.LBB6067:
 7271              	.LBB6068:
 7272              	.LBB6069:
 7273              		.loc 3 98 0
 7274 0190 7EC3B378 		mr 3,22
 7275 0194 48000001 		bl _ZdlPv
 7276              	.LVL736:
 7277              	.LBE6069:
 7278              	.LBE6068:
 7279              	.LBE6067:
 7280              	.LBE6066:
 7281              	.LBE5986:
 7282              		.loc 1 1072 0
 7283 0198 2F9F0000 		cmpwi 7,31,0
 7284 019c 419E000C 		beq- 7,.L453
 7285              		.loc 1 1077 0
 7286 01a0 7FF6FB78 		mr 22,31
 7287              	.LVL737:
 7288 01a4 4BFFFEA0 		b .L508
 7289              	.LVL738:
 7290              	.L453:
 7291              	.LBE6070:
 7292              		.loc 1 1079 0
 7293 01a8 8001003C 		lwz 0,60(1)
 7294 01ac 82A1000C 		lwz 21,12(1)
 7295 01b0 7C0803A6 		mtlr 0
 7296 01b4 82C10010 		lwz 22,16(1)
 7297 01b8 82E10014 		lwz 23,20(1)
 7298 01bc 83010018 		lwz 24,24(1)
 7299 01c0 8321001C 		lwz 25,28(1)
 7300 01c4 83410020 		lwz 26,32(1)
 7301 01c8 83610024 		lwz 27,36(1)
 7302 01cc 83810028 		lwz 28,40(1)
 7303 01d0 83A1002C 		lwz 29,44(1)
 7304 01d4 83C10030 		lwz 30,48(1)
 7305              	.LVL739:
 7306 01d8 83E10034 		lwz 31,52(1)
 7307 01dc 38210038 		addi 1,1,56
 7308              	.LCFI83:
 7309              		.cfi_def_cfa_offset 0
 7310              		.cfi_restore 31
 7311              		.cfi_restore 30
 7312              		.cfi_restore 29
 7313              		.cfi_restore 28
 7314              		.cfi_restore 27
 7315              		.cfi_restore 26
 7316              		.cfi_restore 25
 7317              		.cfi_restore 24
 7318              		.cfi_restore 23
 7319              		.cfi_restore 22
 7320              		.cfi_restore 21
 7321 01e0 4E800020 		blr
 7322              		.cfi_endproc
 7323              	.LFE1735:
 7324              		.size	_ZNSt8_Rb_treeIPKhSt4pairIKS1_P8GuiSoundESt10_Select1stIS6_ESt4lessIS1_ESaIS6_EE8_M_eraseEPS
 7325              		.section	.text._ZNSt8_Rb_treeIP12GuiImageDataSt4pairIKS1_iESt10_Select1stIS4_ESt4lessIS1_ESaIS4_EE
 7326              		.align 2
 7327              		.weak	_ZNSt8_Rb_treeIP12GuiImageDataSt4pairIKS1_iESt10_Select1stIS4_ESt4lessIS1_ESaIS4_EE8_M_erase
 7328              		.type	_ZNSt8_Rb_treeIP12GuiImageDataSt4pairIKS1_iESt10_Select1stIS4_ESt4lessIS1_ESaIS4_EE8_M_erase
 7329              	_ZNSt8_Rb_treeIP12GuiImageDataSt4pairIKS1_iESt10_Select1stIS4_ESt4lessIS1_ESaIS4_EE8_M_eraseEPSt13_
 7330              	.LFB1743:
 7331              		.loc 1 1068 0
 7332              		.cfi_startproc
 7333              	.LVL740:
 7334 0000 9421FFC8 		stwu 1,-56(1)
 7335              	.LCFI84:
 7336              		.cfi_def_cfa_offset 56
 7337 0004 7C0802A6 		mflr 0
 7338 0008 92C10010 		stw 22,16(1)
 7339              	.LBB6217:
 7340              		.loc 1 1072 0
 7341 000c 7C962379 		mr. 22,4
 7342              		.cfi_offset 22, -40
 7343              		.cfi_register 65, 0
 7344              	.LBE6217:
 7345              		.loc 1 1068 0
 7346 0010 93C10030 		stw 30,48(1)
 7347 0014 7C7E1B78 		mr 30,3
 7348              		.cfi_offset 30, -8
 7349 0018 9001003C 		stw 0,60(1)
 7350 001c 92A1000C 		stw 21,12(1)
 7351 0020 92E10014 		stw 23,20(1)
 7352 0024 93010018 		stw 24,24(1)
 7353 0028 9321001C 		stw 25,28(1)
 7354 002c 93410020 		stw 26,32(1)
 7355 0030 93610024 		stw 27,36(1)
 7356 0034 93810028 		stw 28,40(1)
 7357 0038 93A1002C 		stw 29,44(1)
 7358 003c 93E10034 		stw 31,52(1)
 7359              	.LBB6302:
 7360              		.loc 1 1072 0
 7361 0040 41820168 		beq- 0,.L517
 7362              		.cfi_offset 31, -4
 7363              		.cfi_offset 29, -12
 7364              		.cfi_offset 28, -16
 7365              		.cfi_offset 27, -20
 7366              		.cfi_offset 26, -24
 7367              		.cfi_offset 25, -28
 7368              		.cfi_offset 24, -32
 7369              		.cfi_offset 23, -36
 7370              		.cfi_offset 21, -44
 7371              		.cfi_offset 65, 4
 7372              	.LVL741:
 7373              	.L572:
 7374              		.loc 2 266 0
 7375 0044 8376000C 		lwz 27,12(22)
 7376              	.LVL742:
 7377              	.LBB6218:
 7378              	.LBB6219:
 7379              	.LBB6220:
 7380              		.loc 1 1072 0
 7381 0048 2F9B0000 		cmpwi 7,27,0
 7382 004c 419E0140 		beq- 7,.L519
 7383              	.LVL743:
 7384              	.L573:
 7385              	.LBE6220:
 7386              		.loc 2 266 0
 7387 0050 835B000C 		lwz 26,12(27)
 7388              	.LVL744:
 7389              	.LBB6296:
 7390              	.LBB6221:
 7391              	.LBB6222:
 7392              	.LBB6223:
 7393              		.loc 1 1072 0
 7394 0054 2F9A0000 		cmpwi 7,26,0
 7395 0058 419E0118 		beq- 7,.L520
 7396              	.LVL745:
 7397              	.L574:
 7398              	.LBE6223:
 7399              		.loc 2 266 0
 7400 005c 833A000C 		lwz 25,12(26)
 7401              	.LVL746:
 7402              	.LBB6289:
 7403              	.LBB6224:
 7404              	.LBB6225:
 7405              	.LBB6226:
 7406              		.loc 1 1072 0
 7407 0060 2F990000 		cmpwi 7,25,0
 7408 0064 419E00F0 		beq- 7,.L521
 7409              	.LVL747:
 7410              	.L575:
 7411              	.LBE6226:
 7412              		.loc 2 266 0
 7413 0068 8319000C 		lwz 24,12(25)
 7414              	.LVL748:
 7415              	.LBB6282:
 7416              	.LBB6227:
 7417              	.LBB6228:
 7418              	.LBB6229:
 7419              		.loc 1 1072 0
 7420 006c 2F980000 		cmpwi 7,24,0
 7421 0070 419E00C8 		beq- 7,.L522
 7422              	.LVL749:
 7423              	.L576:
 7424              	.LBE6229:
 7425              		.loc 2 266 0
 7426 0074 82F8000C 		lwz 23,12(24)
 7427              	.LVL750:
 7428              	.LBB6275:
 7429              	.LBB6230:
 7430              	.LBB6231:
 7431              	.LBB6232:
 7432              		.loc 1 1072 0
 7433 0078 2F970000 		cmpwi 7,23,0
 7434 007c 419E00A0 		beq- 7,.L523
 7435              	.LVL751:
 7436              	.L577:
 7437              	.LBE6232:
 7438              		.loc 2 266 0
 7439 0080 8397000C 		lwz 28,12(23)
 7440              	.LVL752:
 7441              	.LBB6268:
 7442              	.LBB6233:
 7443              	.LBB6234:
 7444              	.LBB6235:
 7445              		.loc 1 1072 0
 7446 0084 2F9C0000 		cmpwi 7,28,0
 7447 0088 419E0078 		beq- 7,.L524
 7448              	.LVL753:
 7449              	.L578:
 7450              	.LBE6235:
 7451              		.loc 2 266 0
 7452 008c 83BC000C 		lwz 29,12(28)
 7453              	.LVL754:
 7454              	.LBB6261:
 7455              	.LBB6236:
 7456              	.LBB6237:
 7457              	.LBB6238:
 7458              		.loc 1 1072 0
 7459 0090 2F9D0000 		cmpwi 7,29,0
 7460 0094 419E0050 		beq- 7,.L525
 7461              	.LVL755:
 7462              	.L579:
 7463              	.LBE6238:
 7464              		.loc 2 266 0
 7465 0098 83FD000C 		lwz 31,12(29)
 7466              	.LVL756:
 7467              	.LBB6254:
 7468              	.LBB6239:
 7469              	.LBB6240:
 7470              	.LBB6241:
 7471              		.loc 1 1072 0
 7472 009c 2F9F0000 		cmpwi 7,31,0
 7473 00a0 419E0028 		beq- 7,.L526
 7474              	.LVL757:
 7475              	.L580:
 7476              	.LBB6242:
 7477              		.loc 1 1074 0
 7478 00a4 809F000C 		lwz 4,12(31)
 7479 00a8 7FC3F378 		mr 3,30
 7480 00ac 48000001 		bl _ZNSt8_Rb_treeIP12GuiImageDataSt4pairIKS1_iESt10_Select1stIS4_ESt4lessIS1_ESaIS4_EE8_M_eraseEPS
 7481              	.LBE6242:
 7482              	.LBE6241:
 7483              		.loc 2 266 0
 7484 00b0 82BF0008 		lwz 21,8(31)
 7485              	.LVL758:
 7486              	.LBB6248:
 7487              	.LBB6247:
 7488              	.LBB6243:
 7489              	.LBB6244:
 7490              	.LBB6245:
 7491              	.LBB6246:
 7492              		.loc 3 98 0
 7493 00b4 7FE3FB78 		mr 3,31
 7494 00b8 48000001 		bl _ZdlPv
 7495              	.LVL759:
 7496              	.LBE6246:
 7497              	.LBE6245:
 7498              	.LBE6244:
 7499              	.LBE6243:
 7500              	.LBE6247:
 7501              		.loc 1 1072 0
 7502 00bc 2F950000 		cmpwi 7,21,0
 7503              		.loc 1 1077 0
 7504 00c0 7EBFAB78 		mr 31,21
 7505              	.LVL760:
 7506              		.loc 1 1072 0
 7507 00c4 409EFFE0 		bne+ 7,.L580
 7508              	.LVL761:
 7509              	.L526:
 7510              	.LBE6248:
 7511              	.LBE6240:
 7512              	.LBE6239:
 7513              	.LBE6254:
 7514              		.loc 2 266 0
 7515 00c8 83FD0008 		lwz 31,8(29)
 7516              	.LVL762:
 7517              	.LBB6255:
 7518              	.LBB6253:
 7519              	.LBB6249:
 7520              	.LBB6250:
 7521              	.LBB6251:
 7522              	.LBB6252:
 7523              		.loc 3 98 0
 7524 00cc 7FA3EB78 		mr 3,29
 7525 00d0 48000001 		bl _ZdlPv
 7526              	.LVL763:
 7527              	.LBE6252:
 7528              	.LBE6251:
 7529              	.LBE6250:
 7530              	.LBE6249:
 7531              	.LBE6253:
 7532              		.loc 1 1072 0
 7533 00d4 2F9F0000 		cmpwi 7,31,0
 7534 00d8 419E000C 		beq- 7,.L525
 7535              		.loc 1 1077 0
 7536 00dc 7FFDFB78 		mr 29,31
 7537              	.LVL764:
 7538 00e0 4BFFFFB8 		b .L579
 7539              	.LVL765:
 7540              	.L525:
 7541              	.LBE6255:
 7542              	.LBE6237:
 7543              	.LBE6236:
 7544              	.LBE6261:
 7545              		.loc 2 266 0
 7546 00e4 83FC0008 		lwz 31,8(28)
 7547              	.LVL766:
 7548              	.LBB6262:
 7549              	.LBB6260:
 7550              	.LBB6256:
 7551              	.LBB6257:
 7552              	.LBB6258:
 7553              	.LBB6259:
 7554              		.loc 3 98 0
 7555 00e8 7F83E378 		mr 3,28
 7556 00ec 48000001 		bl _ZdlPv
 7557              	.LVL767:
 7558              	.LBE6259:
 7559              	.LBE6258:
 7560              	.LBE6257:
 7561              	.LBE6256:
 7562              	.LBE6260:
 7563              		.loc 1 1072 0
 7564 00f0 2F9F0000 		cmpwi 7,31,0
 7565 00f4 419E000C 		beq- 7,.L524
 7566              		.loc 1 1077 0
 7567 00f8 7FFCFB78 		mr 28,31
 7568              	.LVL768:
 7569 00fc 4BFFFF90 		b .L578
 7570              	.LVL769:
 7571              	.L524:
 7572              	.LBE6262:
 7573              	.LBE6234:
 7574              	.LBE6233:
 7575              	.LBE6268:
 7576              		.loc 2 266 0
 7577 0100 83F70008 		lwz 31,8(23)
