	.file	"Resources.cpp"
	.section	".text"
.Ltext0:
	.align 2
	.type	_ZNSt8_Rb_treeIPKhSt4pairIKS1_P12GuiImageDataESt10_Select1stIS6_ESt4lessIS1_ESaIS6_EE16_M_insert_uniqueERKS6_.constprop.213, @function
_ZNSt8_Rb_treeIPKhSt4pairIKS1_P12GuiImageDataESt10_Select1stIS6_ESt4lessIS1_ESaIS6_EE16_M_insert_uniqueERKS6_.constprop.213:
.LFB2537:
	.file 1 "d:\\devkitpro\\devkitppc\\bin\\../lib/gcc/powerpc-eabi/4.6.3/../../../../powerpc-eabi/include/c++/4.6.3/bits/stl_tree.h"
	.loc 1 1264 0
	.cfi_startproc
.LVL0:
	mflr 0
	stwu 1,-32(1)
.LCFI0:
	.cfi_def_cfa_offset 32
	.cfi_register 65, 0
	stw 30,24(1)
	stw 0,36(1)
	stw 27,12(1)
	mr 27,4
	.cfi_offset 27, -20
	.cfi_offset 65, 4
	.cfi_offset 30, -8
.LBB3804:
.LBB3805:
.LBB3806:
	.file 2 "d:/Projects/SaveGameManager/savegame-manager-gx/trunk/source/Themes/Resources.cpp"
	.loc 2 266 0
	lwz 30,8(3)
.LVL1:
.LBE3806:
.LBE3805:
.LBE3804:
	.loc 1 1264 0
	stw 28,16(1)
.LBB3843:
.LBB3823:
.LBB3819:
	.loc 1 1272 0
	addi 28,3,4
	.cfi_offset 28, -16
.LVL2:
.LBE3819:
.LBE3823:
	.loc 1 1274 0
	cmpwi 7,30,0
.LBE3843:
	.loc 1 1264 0
	stw 31,28(1)
	stw 26,8(1)
	mr 31,3
	.cfi_offset 26, -24
	.cfi_offset 31, -4
	stw 29,20(1)
.LBB3844:
	.loc 1 1274 0
	beq- 7,.L16
	.cfi_offset 29, -12
.LVL3:
	lwz 10,0(4)
	b .L5
.LVL4:
.L23:
	.loc 2 266 0
	lwz 0,8(30)
.LVL5:
	.loc 1 1274 0
	cmpwi 7,0,0
	beq- 7,.L22
.LVL6:
.L17:
	mr 30,0
.LVL7:
.L5:
	.loc 2 266 0
	lwz 9,16(30)
	li 11,1
	.loc 1 1278 0
	cmplw 7,9,10
	bgt- 7,.L23
.LVL8:
	.loc 2 266 0
	lwz 0,12(30)
	li 11,0
.LVL9:
	.loc 1 1274 0
	cmpwi 7,0,0
	bne+ 7,.L17
.LVL10:
.L22:
	.loc 1 1281 0
	cmpwi 7,11,0
	mr 29,30
	bne- 7,.L2
.LVL11:
	.loc 1 1289 0
	cmplw 7,9,10
	blt- 7,.L24
.LVL12:
.L12:
.LBB3824:
.LBB3820:
	.loc 1 1292 0
	li 4,0
	li 0,0
	mr 3,30
	rlwimi 4,0,24,0,7
.LVL13:
.L11:
.LBE3820:
.LBE3824:
.LBE3844:
	.loc 1 1293 0
	lwz 0,36(1)
	lwz 26,8(1)
	mtlr 0
	lwz 27,12(1)
.LVL14:
	lwz 28,16(1)
	lwz 29,20(1)
	lwz 30,24(1)
	lwz 31,28(1)
.LVL15:
	addi 1,1,32
	.cfi_remember_state
.LCFI1:
	.cfi_def_cfa_offset 0
	.cfi_restore 31
	.cfi_restore 30
	.cfi_restore 29
	.cfi_restore 28
	.cfi_restore 27
	.cfi_restore 26
	blr
.LVL16:
.L16:
.LCFI2:
	.cfi_restore_state
.LBB3845:
	.loc 1 1272 0
	mr 30,28
.LVL17:
.L2:
	.loc 2 266 0
	lwz 0,12(31)
.LVL18:
	.loc 1 1283 0
	cmpw 7,0,30
	beq- 7,.L25
.LVL19:
.LBB3825:
.LBB3826:
	.loc 1 203 0
	mr 3,30
.LVL20:
	mr 29,30
	bl _ZSt18_Rb_tree_decrementPSt18_Rb_tree_node_base
.LVL21:
	lwz 10,0(27)
	lwz 9,16(3)
	mr 30,3
.LVL22:
.LBE3826:
.LBE3825:
	.loc 1 1289 0
	cmplw 7,9,10
	bge+ 7,.L12
.LVL23:
.L24:
.LBB3827:
.LBB3821:
	.loc 1 969 0
	cmpw 7,28,29
	li 26,1
	beq- 7,.L13
.LVL24:
	.loc 1 1264 0
	lwz 26,16(29)
	subfc 26,26,10
	subfe 26,26,26
	neg 26,26
.LVL25:
.L13:
.LBB3807:
.LBB3808:
.LBB3809:
.LBB3810:
.LBB3811:
	.file 3 "d:\\devkitpro\\devkitppc\\bin\\../lib/gcc/powerpc-eabi/4.6.3/../../../../powerpc-eabi/include/c++/4.6.3/ext/new_allocator.h"
	.loc 3 92 0
	li 3,24
	bl _Znwj
.LBE3811:
.LBE3810:
.LBE3809:
.LBB3814:
.LBB3815:
	.loc 3 108 0
	cmpwi 7,3,-16
.LBE3815:
.LBE3814:
.LBB3817:
.LBB3813:
.LBB3812:
	.loc 3 92 0
	mr 30,3
.LVL26:
.LBE3812:
.LBE3813:
.LBE3817:
.LBB3818:
.LBB3816:
	.loc 3 108 0
	beq- 7,.L15
	lwz 10,0(27)
	lwz 11,4(27)
	stw 10,16(3)
	stw 11,20(3)
.L15:
.LVL27:
.LBE3816:
.LBE3818:
.LBE3808:
.LBE3807:
	.loc 1 973 0
	mr 3,26
.LVL28:
	mr 4,30
	mr 5,29
	mr 6,28
	bl _ZSt29_Rb_tree_insert_and_rebalancebPSt18_Rb_tree_node_baseS0_RS_
	.loc 1 976 0
	lwz 9,20(31)
	.loc 1 1291 0
	li 4,0
	mr 3,30
	.loc 1 976 0
	addi 0,9,1
.LBE3821:
.LBE3827:
.LBE3845:
	.loc 1 1293 0
	lwz 26,8(1)
.LVL29:
.LBB3846:
.LBB3828:
.LBB3822:
	.loc 1 976 0
	stw 0,20(31)
.LVL30:
	.loc 1 1291 0
	li 0,1
	rlwimi 4,0,24,0,7
.LBE3822:
.LBE3828:
.LBE3846:
	.loc 1 1293 0
	lwz 0,36(1)
	lwz 27,12(1)
.LVL31:
	mtlr 0
	lwz 28,16(1)
	lwz 29,20(1)
.LVL32:
	lwz 30,24(1)
.LVL33:
	lwz 31,28(1)
.LVL34:
	addi 1,1,32
	.cfi_remember_state
	.cfi_restore 26
	.cfi_restore 27
	.cfi_restore 28
	.cfi_restore 29
	.cfi_restore 30
	.cfi_restore 31
.LCFI3:
	.cfi_def_cfa_offset 0
	blr
.LVL35:
.L25:
.LCFI4:
	.cfi_restore_state
.LBB3847:
.LBB3829:
.LBB3830:
	.loc 1 969 0
	cmpw 7,28,30
	li 26,1
	beq- 7,.L8
.LVL36:
	.loc 1 1264 0
	lwz 26,0(27)
	lwz 0,16(30)
.LVL37:
	subfc 26,0,26
	subfe 26,26,26
	neg 26,26
.LVL38:
.L8:
.LBB3831:
.LBB3832:
.LBB3833:
.LBB3834:
.LBB3835:
	.loc 3 92 0
	li 3,24
.LVL39:
	bl _Znwj
.LVL40:
.LBE3835:
.LBE3834:
.LBE3833:
.LBB3838:
.LBB3839:
	.loc 3 108 0
	cmpwi 7,3,-16
.LBE3839:
.LBE3838:
.LBB3841:
.LBB3837:
.LBB3836:
	.loc 3 92 0
	mr 29,3
.LVL41:
.LBE3836:
.LBE3837:
.LBE3841:
.LBB3842:
.LBB3840:
	.loc 3 108 0
	beq- 7,.L10
	lwz 10,0(27)
	lwz 11,4(27)
	stw 10,16(3)
	stw 11,20(3)
.L10:
.LVL42:
.LBE3840:
.LBE3842:
.LBE3832:
.LBE3831:
	.loc 1 973 0
	mr 3,26
.LVL43:
	mr 4,29
	mr 5,30
	mr 6,28
	bl _ZSt29_Rb_tree_insert_and_rebalancebPSt18_Rb_tree_node_baseS0_RS_
	.loc 1 976 0
	lwz 9,20(31)
	.loc 1 1285 0
	li 4,0
	mr 3,29
	.loc 1 976 0
	addi 0,9,1
	stw 0,20(31)
.LVL44:
	.loc 1 1285 0
	li 0,1
	rlwimi 4,0,24,0,7
	b .L11
.LBE3830:
.LBE3829:
.LBE3847:
	.cfi_endproc
.LFE2537:
	.size	_ZNSt8_Rb_treeIPKhSt4pairIKS1_P12GuiImageDataESt10_Select1stIS6_ESt4lessIS1_ESaIS6_EE16_M_insert_uniqueERKS6_.constprop.213, .-_ZNSt8_Rb_treeIPKhSt4pairIKS1_P12GuiImageDataESt10_Select1stIS6_ESt4lessIS1_ESaIS6_EE16_M_insert_uniqueERKS6_.constprop.213
	.align 2
	.type	_ZNSt8_Rb_treeIP8GuiSoundSt4pairIKS1_iESt10_Select1stIS4_ESt4lessIS1_ESaIS4_EE16_M_insert_uniqueERKS4_.constprop.210, @function
_ZNSt8_Rb_treeIP8GuiSoundSt4pairIKS1_iESt10_Select1stIS4_ESt4lessIS1_ESaIS4_EE16_M_insert_uniqueERKS4_.constprop.210:
.LFB2540:
	.loc 1 1264 0
	.cfi_startproc
.LVL45:
	mflr 0
	stwu 1,-32(1)
.LCFI5:
	.cfi_def_cfa_offset 32
	.cfi_register 65, 0
	stw 30,24(1)
	stw 0,36(1)
	stw 27,12(1)
	mr 27,4
	.cfi_offset 27, -20
	.cfi_offset 65, 4
	.cfi_offset 30, -8
.LBB3887:
.LBB3888:
.LBB3889:
	.loc 2 266 0
	lwz 30,8(3)
.LVL46:
.LBE3889:
.LBE3888:
.LBE3887:
	.loc 1 1264 0
	stw 28,16(1)
.LBB3926:
.LBB3906:
.LBB3902:
	.loc 1 1272 0
	addi 28,3,4
	.cfi_offset 28, -16
.LVL47:
.LBE3902:
.LBE3906:
	.loc 1 1274 0
	cmpwi 7,30,0
.LBE3926:
	.loc 1 1264 0
	stw 31,28(1)
	stw 26,8(1)
	mr 31,3
	.cfi_offset 26, -24
	.cfi_offset 31, -4
	stw 29,20(1)
.LBB3927:
	.loc 1 1274 0
	beq- 7,.L41
	.cfi_offset 29, -12
.LVL48:
	lwz 10,0(4)
	b .L30
.LVL49:
.L47:
	.loc 2 266 0
	lwz 0,8(30)
.LVL50:
	.loc 1 1274 0
	cmpwi 7,0,0
	beq- 7,.L46
.LVL51:
.L42:
	mr 30,0
.LVL52:
.L30:
	.loc 2 266 0
	lwz 9,16(30)
	li 11,1
	.loc 1 1278 0
	cmplw 7,9,10
	bgt- 7,.L47
.LVL53:
	.loc 2 266 0
	lwz 0,12(30)
	li 11,0
.LVL54:
	.loc 1 1274 0
	cmpwi 7,0,0
	bne+ 7,.L42
.LVL55:
.L46:
	.loc 1 1281 0
	cmpwi 7,11,0
	mr 29,30
	bne- 7,.L27
.LVL56:
	.loc 1 1289 0
	cmplw 7,9,10
	blt- 7,.L48
.LVL57:
.L37:
.LBB3907:
.LBB3903:
	.loc 1 1292 0
	li 4,0
	li 0,0
	mr 3,30
	rlwimi 4,0,24,0,7
.LVL58:
.L36:
.LBE3903:
.LBE3907:
.LBE3927:
	.loc 1 1293 0
	lwz 0,36(1)
	lwz 26,8(1)
	mtlr 0
	lwz 27,12(1)
.LVL59:
	lwz 28,16(1)
	lwz 29,20(1)
	lwz 30,24(1)
	lwz 31,28(1)
.LVL60:
	addi 1,1,32
	.cfi_remember_state
.LCFI6:
	.cfi_def_cfa_offset 0
	.cfi_restore 31
	.cfi_restore 30
	.cfi_restore 29
	.cfi_restore 28
	.cfi_restore 27
	.cfi_restore 26
	blr
.LVL61:
.L41:
.LCFI7:
	.cfi_restore_state
.LBB3928:
	.loc 1 1272 0
	mr 30,28
.LVL62:
.L27:
	.loc 2 266 0
	lwz 0,12(31)
.LVL63:
	.loc 1 1283 0
	cmpw 7,0,30
	beq- 7,.L49
.LVL64:
.LBB3908:
.LBB3909:
	.loc 1 203 0
	mr 3,30
.LVL65:
	mr 29,30
	bl _ZSt18_Rb_tree_decrementPSt18_Rb_tree_node_base
.LVL66:
	lwz 10,0(27)
	lwz 9,16(3)
	mr 30,3
.LVL67:
.LBE3909:
.LBE3908:
	.loc 1 1289 0
	cmplw 7,9,10
	bge+ 7,.L37
.LVL68:
.L48:
.LBB3910:
.LBB3904:
	.loc 1 969 0
	cmpw 7,28,29
	li 26,1
	beq- 7,.L38
.LVL69:
	.loc 1 1264 0
	lwz 26,16(29)
	subfc 26,26,10
	subfe 26,26,26
	neg 26,26
.LVL70:
.L38:
.LBB3890:
.LBB3891:
.LBB3892:
.LBB3893:
.LBB3894:
	.loc 3 92 0
	li 3,24
	bl _Znwj
.LBE3894:
.LBE3893:
.LBE3892:
.LBB3897:
.LBB3898:
	.loc 3 108 0
	cmpwi 7,3,-16
.LBE3898:
.LBE3897:
.LBB3900:
.LBB3896:
.LBB3895:
	.loc 3 92 0
	mr 30,3
.LVL71:
.LBE3895:
.LBE3896:
.LBE3900:
.LBB3901:
.LBB3899:
	.loc 3 108 0
	beq- 7,.L40
	lwz 10,0(27)
	lwz 11,4(27)
	stw 10,16(3)
	stw 11,20(3)
.L40:
.LVL72:
.LBE3899:
.LBE3901:
.LBE3891:
.LBE3890:
	.loc 1 973 0
	mr 3,26
.LVL73:
	mr 4,30
	mr 5,29
	mr 6,28
	bl _ZSt29_Rb_tree_insert_and_rebalancebPSt18_Rb_tree_node_baseS0_RS_
	.loc 1 976 0
	lwz 9,20(31)
	.loc 1 1291 0
	li 4,0
	mr 3,30
	.loc 1 976 0
	addi 0,9,1
.LBE3904:
.LBE3910:
.LBE3928:
	.loc 1 1293 0
	lwz 26,8(1)
.LVL74:
.LBB3929:
.LBB3911:
.LBB3905:
	.loc 1 976 0
	stw 0,20(31)
.LVL75:
	.loc 1 1291 0
	li 0,1
	rlwimi 4,0,24,0,7
.LBE3905:
.LBE3911:
.LBE3929:
	.loc 1 1293 0
	lwz 0,36(1)
	lwz 27,12(1)
.LVL76:
	mtlr 0
	lwz 28,16(1)
	lwz 29,20(1)
.LVL77:
	lwz 30,24(1)
.LVL78:
	lwz 31,28(1)
.LVL79:
	addi 1,1,32
	.cfi_remember_state
	.cfi_restore 26
	.cfi_restore 27
	.cfi_restore 28
	.cfi_restore 29
	.cfi_restore 30
	.cfi_restore 31
.LCFI8:
	.cfi_def_cfa_offset 0
	blr
.LVL80:
.L49:
.LCFI9:
	.cfi_restore_state
.LBB3930:
.LBB3912:
.LBB3913:
	.loc 1 969 0
	cmpw 7,28,30
	li 26,1
	beq- 7,.L33
.LVL81:
	.loc 1 1264 0
	lwz 26,0(27)
	lwz 0,16(30)
.LVL82:
	subfc 26,0,26
	subfe 26,26,26
	neg 26,26
.LVL83:
.L33:
.LBB3914:
.LBB3915:
.LBB3916:
.LBB3917:
.LBB3918:
	.loc 3 92 0
	li 3,24
.LVL84:
	bl _Znwj
.LVL85:
.LBE3918:
.LBE3917:
.LBE3916:
.LBB3921:
.LBB3922:
	.loc 3 108 0
	cmpwi 7,3,-16
.LBE3922:
.LBE3921:
.LBB3924:
.LBB3920:
.LBB3919:
	.loc 3 92 0
	mr 29,3
.LVL86:
.LBE3919:
.LBE3920:
.LBE3924:
.LBB3925:
.LBB3923:
	.loc 3 108 0
	beq- 7,.L35
	lwz 10,0(27)
	lwz 11,4(27)
	stw 10,16(3)
	stw 11,20(3)
.L35:
.LVL87:
.LBE3923:
.LBE3925:
.LBE3915:
.LBE3914:
	.loc 1 973 0
	mr 3,26
.LVL88:
	mr 4,29
	mr 5,30
	mr 6,28
	bl _ZSt29_Rb_tree_insert_and_rebalancebPSt18_Rb_tree_node_baseS0_RS_
	.loc 1 976 0
	lwz 9,20(31)
	.loc 1 1285 0
	li 4,0
	mr 3,29
	.loc 1 976 0
	addi 0,9,1
	stw 0,20(31)
.LVL89:
	.loc 1 1285 0
	li 0,1
	rlwimi 4,0,24,0,7
	b .L36
.LBE3913:
.LBE3912:
.LBE3930:
	.cfi_endproc
.LFE2540:
	.size	_ZNSt8_Rb_treeIP8GuiSoundSt4pairIKS1_iESt10_Select1stIS4_ESt4lessIS1_ESaIS4_EE16_M_insert_uniqueERKS4_.constprop.210, .-_ZNSt8_Rb_treeIP8GuiSoundSt4pairIKS1_iESt10_Select1stIS4_ESt4lessIS1_ESaIS4_EE16_M_insert_uniqueERKS4_.constprop.210
	.align 2
	.type	_ZNSt8_Rb_treeIP12GuiImageDataSt4pairIKS1_iESt10_Select1stIS4_ESt4lessIS1_ESaIS4_EE16_M_insert_uniqueERKS4_.constprop.207, @function
_ZNSt8_Rb_treeIP12GuiImageDataSt4pairIKS1_iESt10_Select1stIS4_ESt4lessIS1_ESaIS4_EE16_M_insert_uniqueERKS4_.constprop.207:
.LFB2543:
	.loc 1 1264 0
	.cfi_startproc
.LVL90:
	mflr 0
	stwu 1,-32(1)
.LCFI10:
	.cfi_def_cfa_offset 32
	.cfi_register 65, 0
	stw 30,24(1)
	stw 0,36(1)
	stw 27,12(1)
	mr 27,4
	.cfi_offset 27, -20
	.cfi_offset 65, 4
	.cfi_offset 30, -8
.LBB3970:
.LBB3971:
.LBB3972:
	.loc 2 266 0
	lwz 30,8(3)
.LVL91:
.LBE3972:
.LBE3971:
.LBE3970:
	.loc 1 1264 0
	stw 28,16(1)
.LBB4009:
.LBB3989:
.LBB3985:
	.loc 1 1272 0
	addi 28,3,4
	.cfi_offset 28, -16
.LVL92:
.LBE3985:
.LBE3989:
	.loc 1 1274 0
	cmpwi 7,30,0
.LBE4009:
	.loc 1 1264 0
	stw 31,28(1)
	stw 26,8(1)
	mr 31,3
	.cfi_offset 26, -24
	.cfi_offset 31, -4
	stw 29,20(1)
.LBB4010:
	.loc 1 1274 0
	beq- 7,.L65
	.cfi_offset 29, -12
	lwz 10,0(4)
	b .L54
.LVL93:
.L71:
	.loc 2 266 0
	lwz 0,8(30)
.LVL94:
	.loc 1 1274 0
	cmpwi 7,0,0
	beq- 7,.L70
.LVL95:
.L66:
	mr 30,0
.LVL96:
.L54:
	.loc 2 266 0
	lwz 9,16(30)
	li 11,1
	.loc 1 1278 0
	cmplw 7,9,10
	bgt- 7,.L71
.LVL97:
	.loc 2 266 0
	lwz 0,12(30)
	li 11,0
.LVL98:
	.loc 1 1274 0
	cmpwi 7,0,0
	bne+ 7,.L66
.LVL99:
.L70:
	.loc 1 1281 0
	cmpwi 7,11,0
	mr 29,30
	bne- 7,.L51
.LVL100:
	.loc 1 1289 0
	cmplw 7,9,10
	blt- 7,.L72
.LVL101:
.L61:
.LBB3990:
.LBB3986:
	.loc 1 1292 0
	li 4,0
	li 0,0
	mr 3,30
	rlwimi 4,0,24,0,7
.LVL102:
.L60:
.LBE3986:
.LBE3990:
.LBE4010:
	.loc 1 1293 0
	lwz 0,36(1)
	lwz 26,8(1)
	mtlr 0
	lwz 27,12(1)
.LVL103:
	lwz 28,16(1)
	lwz 29,20(1)
	lwz 30,24(1)
	lwz 31,28(1)
.LVL104:
	addi 1,1,32
	.cfi_remember_state
.LCFI11:
	.cfi_def_cfa_offset 0
	.cfi_restore 31
	.cfi_restore 30
	.cfi_restore 29
	.cfi_restore 28
	.cfi_restore 27
	.cfi_restore 26
	blr
.LVL105:
.L65:
.LCFI12:
	.cfi_restore_state
.LBB4011:
	.loc 1 1272 0
	mr 30,28
.LVL106:
.L51:
	.loc 2 266 0
	lwz 0,12(31)
.LVL107:
	.loc 1 1283 0
	cmpw 7,0,30
	beq- 7,.L73
.LVL108:
.LBB3991:
.LBB3992:
	.loc 1 203 0
	mr 3,30
.LVL109:
	mr 29,30
	bl _ZSt18_Rb_tree_decrementPSt18_Rb_tree_node_base
.LVL110:
	lwz 10,0(27)
	lwz 9,16(3)
	mr 30,3
.LVL111:
.LBE3992:
.LBE3991:
	.loc 1 1289 0
	cmplw 7,9,10
	bge+ 7,.L61
.LVL112:
.L72:
.LBB3993:
.LBB3987:
	.loc 1 969 0
	cmpw 7,28,29
	li 26,1
	beq- 7,.L62
.LVL113:
	.loc 1 1264 0
	lwz 26,16(29)
	subfc 26,26,10
	subfe 26,26,26
	neg 26,26
.LVL114:
.L62:
.LBB3973:
.LBB3974:
.LBB3975:
.LBB3976:
.LBB3977:
	.loc 3 92 0
	li 3,24
	bl _Znwj
.LBE3977:
.LBE3976:
.LBE3975:
.LBB3980:
.LBB3981:
	.loc 3 108 0
	cmpwi 7,3,-16
.LBE3981:
.LBE3980:
.LBB3983:
.LBB3979:
.LBB3978:
	.loc 3 92 0
	mr 30,3
.LVL115:
.LBE3978:
.LBE3979:
.LBE3983:
.LBB3984:
.LBB3982:
	.loc 3 108 0
	beq- 7,.L64
	lwz 10,0(27)
	lwz 11,4(27)
	stw 10,16(3)
	stw 11,20(3)
.L64:
.LVL116:
.LBE3982:
.LBE3984:
.LBE3974:
.LBE3973:
	.loc 1 973 0
	mr 3,26
.LVL117:
	mr 4,30
	mr 5,29
	mr 6,28
	bl _ZSt29_Rb_tree_insert_and_rebalancebPSt18_Rb_tree_node_baseS0_RS_
	.loc 1 976 0
	lwz 9,20(31)
	.loc 1 1291 0
	li 4,0
	mr 3,30
	.loc 1 976 0
	addi 0,9,1
.LBE3987:
.LBE3993:
.LBE4011:
	.loc 1 1293 0
	lwz 26,8(1)
.LVL118:
.LBB4012:
.LBB3994:
.LBB3988:
	.loc 1 976 0
	stw 0,20(31)
.LVL119:
	.loc 1 1291 0
	li 0,1
	rlwimi 4,0,24,0,7
.LBE3988:
.LBE3994:
.LBE4012:
	.loc 1 1293 0
	lwz 0,36(1)
	lwz 27,12(1)
.LVL120:
	mtlr 0
	lwz 28,16(1)
	lwz 29,20(1)
.LVL121:
	lwz 30,24(1)
.LVL122:
	lwz 31,28(1)
.LVL123:
	addi 1,1,32
	.cfi_remember_state
	.cfi_restore 26
	.cfi_restore 27
	.cfi_restore 28
	.cfi_restore 29
	.cfi_restore 30
	.cfi_restore 31
.LCFI13:
	.cfi_def_cfa_offset 0
	blr
.LVL124:
.L73:
.LCFI14:
	.cfi_restore_state
.LBB4013:
.LBB3995:
.LBB3996:
	.loc 1 969 0
	cmpw 7,28,30
	li 26,1
	beq- 7,.L57
.LVL125:
	.loc 1 1264 0
	lwz 26,0(27)
	lwz 0,16(30)
.LVL126:
	subfc 26,0,26
	subfe 26,26,26
	neg 26,26
.LVL127:
.L57:
.LBB3997:
.LBB3998:
.LBB3999:
.LBB4000:
.LBB4001:
	.loc 3 92 0
	li 3,24
.LVL128:
	bl _Znwj
.LVL129:
.LBE4001:
.LBE4000:
.LBE3999:
.LBB4004:
.LBB4005:
	.loc 3 108 0
	cmpwi 7,3,-16
.LBE4005:
.LBE4004:
.LBB4007:
.LBB4003:
.LBB4002:
	.loc 3 92 0
	mr 29,3
.LVL130:
.LBE4002:
.LBE4003:
.LBE4007:
.LBB4008:
.LBB4006:
	.loc 3 108 0
	beq- 7,.L59
	lwz 10,0(27)
	lwz 11,4(27)
	stw 10,16(3)
	stw 11,20(3)
.L59:
.LVL131:
.LBE4006:
.LBE4008:
.LBE3998:
.LBE3997:
	.loc 1 973 0
	mr 3,26
.LVL132:
	mr 4,29
	mr 5,30
	mr 6,28
	bl _ZSt29_Rb_tree_insert_and_rebalancebPSt18_Rb_tree_node_baseS0_RS_
	.loc 1 976 0
	lwz 9,20(31)
	.loc 1 1285 0
	li 4,0
	mr 3,29
	.loc 1 976 0
	addi 0,9,1
	stw 0,20(31)
.LVL133:
	.loc 1 1285 0
	li 0,1
	rlwimi 4,0,24,0,7
	b .L60
.LBE3996:
.LBE3995:
.LBE4013:
	.cfi_endproc
.LFE2543:
	.size	_ZNSt8_Rb_treeIP12GuiImageDataSt4pairIKS1_iESt10_Select1stIS4_ESt4lessIS1_ESaIS4_EE16_M_insert_uniqueERKS4_.constprop.207, .-_ZNSt8_Rb_treeIP12GuiImageDataSt4pairIKS1_iESt10_Select1stIS4_ESt4lessIS1_ESaIS4_EE16_M_insert_uniqueERKS4_.constprop.207
	.align 2
	.type	_ZNSt8_Rb_treeIPKhSt4pairIKS1_P8GuiSoundESt10_Select1stIS6_ESt4lessIS1_ESaIS6_EE16_M_insert_uniqueERKS6_.constprop.216, @function
_ZNSt8_Rb_treeIPKhSt4pairIKS1_P8GuiSoundESt10_Select1stIS6_ESt4lessIS1_ESaIS6_EE16_M_insert_uniqueERKS6_.constprop.216:
.LFB2534:
	.loc 1 1264 0
	.cfi_startproc
.LVL134:
	mflr 0
	stwu 1,-32(1)
.LCFI15:
	.cfi_def_cfa_offset 32
	.cfi_register 65, 0
	stw 30,24(1)
	stw 0,36(1)
	stw 27,12(1)
	mr 27,4
	.cfi_offset 27, -20
	.cfi_offset 65, 4
	.cfi_offset 30, -8
.LBB4053:
.LBB4054:
.LBB4055:
	.loc 2 266 0
	lwz 30,8(3)
.LVL135:
.LBE4055:
.LBE4054:
.LBE4053:
	.loc 1 1264 0
	stw 28,16(1)
.LBB4092:
.LBB4072:
.LBB4068:
	.loc 1 1272 0
	addi 28,3,4
	.cfi_offset 28, -16
.LVL136:
.LBE4068:
.LBE4072:
	.loc 1 1274 0
	cmpwi 7,30,0
.LBE4092:
	.loc 1 1264 0
	stw 31,28(1)
	stw 26,8(1)
	mr 31,3
	.cfi_offset 26, -24
	.cfi_offset 31, -4
	stw 29,20(1)
.LBB4093:
	.loc 1 1274 0
	beq- 7,.L89
	.cfi_offset 29, -12
.LVL137:
	lwz 10,0(4)
	b .L78
.LVL138:
.L95:
	.loc 2 266 0
	lwz 0,8(30)
.LVL139:
	.loc 1 1274 0
	cmpwi 7,0,0
	beq- 7,.L94
.LVL140:
.L90:
	mr 30,0
.LVL141:
.L78:
	.loc 2 266 0
	lwz 9,16(30)
	li 11,1
	.loc 1 1278 0
	cmplw 7,9,10
	bgt- 7,.L95
.LVL142:
	.loc 2 266 0
	lwz 0,12(30)
	li 11,0
.LVL143:
	.loc 1 1274 0
	cmpwi 7,0,0
	bne+ 7,.L90
.LVL144:
.L94:
	.loc 1 1281 0
	cmpwi 7,11,0
	mr 29,30
	bne- 7,.L75
.LVL145:
	.loc 1 1289 0
	cmplw 7,9,10
	blt- 7,.L96
.LVL146:
.L85:
.LBB4073:
.LBB4069:
	.loc 1 1292 0
	li 4,0
	li 0,0
	mr 3,30
	rlwimi 4,0,24,0,7
.LVL147:
.L84:
.LBE4069:
.LBE4073:
.LBE4093:
	.loc 1 1293 0
	lwz 0,36(1)
	lwz 26,8(1)
	mtlr 0
	lwz 27,12(1)
.LVL148:
	lwz 28,16(1)
	lwz 29,20(1)
	lwz 30,24(1)
	lwz 31,28(1)
.LVL149:
	addi 1,1,32
	.cfi_remember_state
.LCFI16:
	.cfi_def_cfa_offset 0
	.cfi_restore 31
	.cfi_restore 30
	.cfi_restore 29
	.cfi_restore 28
	.cfi_restore 27
	.cfi_restore 26
	blr
.LVL150:
.L89:
.LCFI17:
	.cfi_restore_state
.LBB4094:
	.loc 1 1272 0
	mr 30,28
.LVL151:
.L75:
	.loc 2 266 0
	lwz 0,12(31)
.LVL152:
	.loc 1 1283 0
	cmpw 7,0,30
	beq- 7,.L97
.LVL153:
.LBB4074:
.LBB4075:
	.loc 1 203 0
	mr 3,30
.LVL154:
	mr 29,30
	bl _ZSt18_Rb_tree_decrementPSt18_Rb_tree_node_base
.LVL155:
	lwz 10,0(27)
	lwz 9,16(3)
	mr 30,3
.LVL156:
.LBE4075:
.LBE4074:
	.loc 1 1289 0
	cmplw 7,9,10
	bge+ 7,.L85
.LVL157:
.L96:
.LBB4076:
.LBB4070:
	.loc 1 969 0
	cmpw 7,28,29
	li 26,1
	beq- 7,.L86
.LVL158:
	.loc 1 1264 0
	lwz 26,16(29)
	subfc 26,26,10
	subfe 26,26,26
	neg 26,26
.LVL159:
.L86:
.LBB4056:
.LBB4057:
.LBB4058:
.LBB4059:
.LBB4060:
	.loc 3 92 0
	li 3,24
	bl _Znwj
.LBE4060:
.LBE4059:
.LBE4058:
.LBB4063:
.LBB4064:
	.loc 3 108 0
	cmpwi 7,3,-16
.LBE4064:
.LBE4063:
.LBB4066:
.LBB4062:
.LBB4061:
	.loc 3 92 0
	mr 30,3
.LVL160:
.LBE4061:
.LBE4062:
.LBE4066:
.LBB4067:
.LBB4065:
	.loc 3 108 0
	beq- 7,.L88
	lwz 10,0(27)
	lwz 11,4(27)
	stw 10,16(3)
	stw 11,20(3)
.L88:
.LVL161:
.LBE4065:
.LBE4067:
.LBE4057:
.LBE4056:
	.loc 1 973 0
	mr 3,26
.LVL162:
	mr 4,30
	mr 5,29
	mr 6,28
	bl _ZSt29_Rb_tree_insert_and_rebalancebPSt18_Rb_tree_node_baseS0_RS_
	.loc 1 976 0
	lwz 9,20(31)
	.loc 1 1291 0
	li 4,0
	mr 3,30
	.loc 1 976 0
	addi 0,9,1
.LBE4070:
.LBE4076:
.LBE4094:
	.loc 1 1293 0
	lwz 26,8(1)
.LVL163:
.LBB4095:
.LBB4077:
.LBB4071:
	.loc 1 976 0
	stw 0,20(31)
.LVL164:
	.loc 1 1291 0
	li 0,1
	rlwimi 4,0,24,0,7
.LBE4071:
.LBE4077:
.LBE4095:
	.loc 1 1293 0
	lwz 0,36(1)
	lwz 27,12(1)
.LVL165:
	mtlr 0
	lwz 28,16(1)
	lwz 29,20(1)
.LVL166:
	lwz 30,24(1)
.LVL167:
	lwz 31,28(1)
.LVL168:
	addi 1,1,32
	.cfi_remember_state
	.cfi_restore 26
	.cfi_restore 27
	.cfi_restore 28
	.cfi_restore 29
	.cfi_restore 30
	.cfi_restore 31
.LCFI18:
	.cfi_def_cfa_offset 0
	blr
.LVL169:
.L97:
.LCFI19:
	.cfi_restore_state
.LBB4096:
.LBB4078:
.LBB4079:
	.loc 1 969 0
	cmpw 7,28,30
	li 26,1
	beq- 7,.L81
.LVL170:
	.loc 1 1264 0
	lwz 26,0(27)
	lwz 0,16(30)
.LVL171:
	subfc 26,0,26
	subfe 26,26,26
	neg 26,26
.LVL172:
.L81:
.LBB4080:
.LBB4081:
.LBB4082:
.LBB4083:
.LBB4084:
	.loc 3 92 0
	li 3,24
.LVL173:
	bl _Znwj
.LVL174:
.LBE4084:
.LBE4083:
.LBE4082:
.LBB4087:
.LBB4088:
	.loc 3 108 0
	cmpwi 7,3,-16
.LBE4088:
.LBE4087:
.LBB4090:
.LBB4086:
.LBB4085:
	.loc 3 92 0
	mr 29,3
.LVL175:
.LBE4085:
.LBE4086:
.LBE4090:
.LBB4091:
.LBB4089:
	.loc 3 108 0
	beq- 7,.L83
	lwz 10,0(27)
	lwz 11,4(27)
	stw 10,16(3)
	stw 11,20(3)
.L83:
.LVL176:
.LBE4089:
.LBE4091:
.LBE4081:
.LBE4080:
	.loc 1 973 0
	mr 3,26
.LVL177:
	mr 4,29
	mr 5,30
	mr 6,28
	bl _ZSt29_Rb_tree_insert_and_rebalancebPSt18_Rb_tree_node_baseS0_RS_
	.loc 1 976 0
	lwz 9,20(31)
	.loc 1 1285 0
	li 4,0
	mr 3,29
	.loc 1 976 0
	addi 0,9,1
	stw 0,20(31)
.LVL178:
	.loc 1 1285 0
	li 0,1
	rlwimi 4,0,24,0,7
	b .L84
.LBE4079:
.LBE4078:
.LBE4096:
	.cfi_endproc
.LFE2534:
	.size	_ZNSt8_Rb_treeIPKhSt4pairIKS1_P8GuiSoundESt10_Select1stIS6_ESt4lessIS1_ESaIS6_EE16_M_insert_uniqueERKS6_.constprop.216, .-_ZNSt8_Rb_treeIPKhSt4pairIKS1_P8GuiSoundESt10_Select1stIS6_ESt4lessIS1_ESaIS6_EE16_M_insert_uniqueERKS6_.constprop.216
	.align 2
	.type	_ZNSt8_Rb_treeIP12GuiImageDataSt4pairIKS1_iESt10_Select1stIS4_ESt4lessIS1_ESaIS4_EE17_M_insert_unique_ESt23_Rb_tree_const_iteratorIS4_ERKS4_.constprop.205, @function
_ZNSt8_Rb_treeIP12GuiImageDataSt4pairIKS1_iESt10_Select1stIS4_ESt4lessIS1_ESaIS4_EE17_M_insert_unique_ESt23_Rb_tree_const_iteratorIS4_ERKS4_.constprop.205:
.LFB2545:
	.loc 1 1325 0
	.cfi_startproc
.LVL179:
	mflr 0
	stwu 1,-40(1)
.LCFI20:
	.cfi_def_cfa_offset 40
	.cfi_register 65, 0
	stw 25,12(1)
	stw 0,44(1)
	stw 29,28(1)
.LBB4205:
.LBB4206:
.LBB4207:
.LBB4208:
.LBB4209:
	.loc 1 1333 0
	addi 29,3,4
	.cfi_offset 29, -12
	.cfi_offset 65, 4
	.cfi_offset 25, -28
.LBE4209:
.LBE4208:
.LBE4207:
.LBE4206:
.LBE4205:
	.loc 1 1325 0
	lwz 25,0(4)
.LVL180:
	stw 24,8(1)
	mr 24,5
	.cfi_offset 24, -32
.LBB4349:
	.loc 1 1333 0
	cmpw 7,25,29
.LBE4349:
	.loc 1 1325 0
	stw 31,36(1)
	stw 26,16(1)
	mr 31,3
	.cfi_offset 26, -24
	.cfi_offset 31, -4
	stw 27,20(1)
	stw 28,24(1)
	stw 30,32(1)
.LBB4350:
	.loc 1 1333 0
	beq- 7,.L130
	.cfi_offset 30, -8
	.cfi_offset 28, -16
	.cfi_offset 27, -20
.LVL181:
.LBB4327:
.LBB4328:
	.loc 2 266 0
	lwz 30,0(5)
	lwz 0,16(25)
.LBE4328:
.LBE4327:
.LBB4344:
	.loc 1 1342 0
	cmplw 7,30,0
	bge- 7,.L105
.LVL182:
.LBB4263:
	.loc 1 1347 0
	lwz 0,12(3)
	cmpw 7,25,0
	beq- 7,.L131
.LBB4231:
.LBB4232:
	.loc 1 284 0
	mr 3,25
.LVL183:
	bl _ZSt18_Rb_tree_decrementPKSt18_Rb_tree_node_base
.LVL184:
	.loc 2 266 0
	lwz 0,16(3)
	.loc 1 284 0
	mr 28,3
.LVL185:
.LBE4232:
.LBE4231:
	.loc 1 1350 0
	cmplw 7,30,0
	ble- 7,.L100
	.loc 1 1353 0
	lwz 0,12(3)
.LBB4233:
.LBB4229:
.LBB4210:
.LBB4211:
.LBB4212:
.LBB4213:
.LBB4214:
	.loc 3 92 0
	li 3,24
.LVL186:
.LBE4214:
.LBE4213:
.LBE4212:
.LBE4211:
.LBE4210:
.LBE4229:
.LBE4233:
	.loc 1 1353 0
	cmpwi 7,0,0
	beq- 7,.L132
.LVL187:
.LBB4234:
.LBB4235:
.LBB4236:
.LBB4237:
.LBB4238:
.LBB4239:
.LBB4240:
	.loc 3 92 0
	bl _Znwj
.LBE4240:
.LBE4239:
.LBE4238:
.LBB4243:
.LBB4244:
	.loc 3 108 0
	cmpwi 7,3,-16
.LBE4244:
.LBE4243:
.LBB4246:
.LBB4242:
.LBB4241:
	.loc 3 92 0
	mr 30,3
.LVL188:
.LBE4241:
.LBE4242:
.LBE4246:
.LBB4247:
.LBB4245:
	.loc 3 108 0
	beq- 7,.L115
	lwz 10,0(24)
	lwz 11,4(24)
	stw 10,16(3)
	stw 11,20(3)
.L115:
.LVL189:
.LBE4245:
.LBE4247:
.LBE4237:
.LBE4236:
	.loc 1 973 0
	li 3,1
.LVL190:
	mr 4,30
	mr 5,25
.LVL191:
.L128:
	mr 6,29
	bl _ZSt29_Rb_tree_insert_and_rebalancebPSt18_Rb_tree_node_baseS0_RS_
.LVL192:
	.loc 1 976 0
	lwz 9,20(31)
	mr 3,30
	addi 0,9,1
	stw 0,20(31)
.LVL193:
.L104:
.LBE4235:
.LBE4234:
.LBE4263:
.LBE4344:
.LBE4350:
	.loc 1 1388 0
	lwz 0,44(1)
	lwz 24,8(1)
.LVL194:
	mtlr 0
	lwz 25,12(1)
.LVL195:
	lwz 26,16(1)
	lwz 27,20(1)
	lwz 28,24(1)
	lwz 29,28(1)
	lwz 30,32(1)
	lwz 31,36(1)
.LVL196:
	addi 1,1,40
	.cfi_remember_state
.LCFI21:
	.cfi_def_cfa_offset 0
	.cfi_restore 31
	.cfi_restore 30
	.cfi_restore 29
	.cfi_restore 28
	.cfi_restore 27
	.cfi_restore 26
	.cfi_restore 25
	.cfi_restore 24
	blr
.LVL197:
.L105:
.LCFI22:
	.cfi_restore_state
.LBB4351:
.LBB4345:
.LBB4264:
	.loc 1 1364 0
	ble- 7,.L116
.LVL198:
.LBB4265:
	.loc 1 1369 0
	lwz 0,16(3)
	cmpw 7,25,0
	beq- 7,.L133
.LVL199:
.LBB4266:
.LBB4267:
	.loc 1 269 0
	mr 3,25
.LVL200:
	bl _ZSt18_Rb_tree_incrementPKSt18_Rb_tree_node_base
.LVL201:
.LBE4267:
.LBE4266:
	.loc 1 1372 0
	lwz 0,16(3)
.LBB4269:
.LBB4268:
	.loc 1 269 0
	mr 28,3
.LVL202:
.LBE4268:
.LBE4269:
	.loc 1 1372 0
	cmplw 7,30,0
	bge- 7,.L100
	.loc 1 1375 0
	lwz 0,12(25)
.LBB4270:
.LBB4271:
.LBB4272:
.LBB4273:
.LBB4274:
.LBB4275:
.LBB4276:
	.loc 3 92 0
	li 3,24
.LVL203:
.LBE4276:
.LBE4275:
.LBE4274:
.LBE4273:
.LBE4272:
.LBE4271:
.LBE4270:
	.loc 1 1375 0
	cmpwi 7,0,0
	beq- 7,.L134
.LVL204:
.LBB4290:
.LBB4291:
.LBB4292:
.LBB4293:
.LBB4294:
.LBB4295:
.LBB4296:
	.loc 3 92 0
	bl _Znwj
.LBE4296:
.LBE4295:
.LBE4294:
.LBB4299:
.LBB4300:
	.loc 3 108 0
	cmpwi 7,3,-16
.LBE4300:
.LBE4299:
.LBB4302:
.LBB4298:
.LBB4297:
	.loc 3 92 0
	mr 30,3
.LVL205:
.LBE4297:
.LBE4298:
.LBE4302:
.LBB4303:
.LBB4301:
	.loc 3 108 0
	beq- 7,.L125
	lwz 10,0(24)
	lwz 11,4(24)
	stw 10,16(3)
	stw 11,20(3)
.L125:
.LVL206:
.LBE4301:
.LBE4303:
.LBE4293:
.LBE4292:
	.loc 1 973 0
	li 3,1
.LVL207:
.L129:
	mr 4,30
	mr 5,28
	b .L128
.LVL208:
.L130:
.LBE4291:
.LBE4290:
.LBE4265:
.LBE4264:
.LBE4345:
	.loc 1 1335 0
	lwz 0,20(3)
	cmpwi 7,0,0
	beq- 7,.L100
.LVL209:
	lwz 30,16(3)
.LVL210:
	.loc 2 266 0
	lwz 0,0(5)
	lwz 9,16(30)
	.loc 1 1335 0
	cmplw 7,9,0
	blt- 7,.L135
.LVL211:
.L100:
	.loc 1 1340 0
	mr 3,31
	mr 4,24
	bl _ZNSt8_Rb_treeIP12GuiImageDataSt4pairIKS1_iESt10_Select1stIS4_ESt4lessIS1_ESaIS4_EE16_M_insert_uniqueERKS4_.constprop.207
.LBE4351:
	.loc 1 1388 0
	lwz 0,44(1)
	lwz 24,8(1)
.LVL212:
	mtlr 0
	lwz 25,12(1)
.LVL213:
	lwz 26,16(1)
	lwz 27,20(1)
	lwz 28,24(1)
	lwz 29,28(1)
	lwz 30,32(1)
	lwz 31,36(1)
.LVL214:
	addi 1,1,40
	.cfi_remember_state
	.cfi_restore 24
	.cfi_restore 25
	.cfi_restore 26
	.cfi_restore 27
	.cfi_restore 28
	.cfi_restore 29
	.cfi_restore 30
	.cfi_restore 31
.LCFI23:
	.cfi_def_cfa_offset 0
	blr
.LVL215:
.L116:
.LCFI24:
	.cfi_restore_state
	lwz 0,44(1)
.LBB4352:
.LBB4346:
.LBB4322:
.LBB4319:
	.loc 1 1383 0
	mr 3,25
.LVL216:
.LBE4319:
.LBE4322:
.LBE4346:
.LBE4352:
	.loc 1 1388 0
	lwz 24,8(1)
	mtlr 0
	lwz 25,12(1)
.LVL217:
	lwz 26,16(1)
	lwz 27,20(1)
	lwz 28,24(1)
	lwz 29,28(1)
	lwz 30,32(1)
	lwz 31,36(1)
.LVL218:
	addi 1,1,40
	.cfi_remember_state
	.cfi_restore 24
	.cfi_restore 25
	.cfi_restore 26
	.cfi_restore 27
	.cfi_restore 28
	.cfi_restore 29
	.cfi_restore 30
	.cfi_restore 31
.LCFI25:
	.cfi_def_cfa_offset 0
	blr
.LVL219:
.L135:
.LCFI26:
	.cfi_restore_state
.LBB4353:
.LBB4347:
.LBB4343:
.LBB4329:
.LBB4330:
.LBB4331:
.LBB4332:
.LBB4333:
	.loc 3 92 0
	li 3,24
.LVL220:
	bl _Znwj
.LVL221:
.LBE4333:
.LBE4332:
.LBE4331:
.LBB4336:
.LBB4337:
	.loc 3 108 0
	cmpwi 7,3,-16
.LBE4337:
.LBE4336:
.LBB4339:
.LBB4335:
.LBB4334:
	.loc 3 92 0
	mr 29,3
.LBE4334:
.LBE4335:
.LBE4339:
.LBE4330:
.LBE4329:
	.loc 1 1325 0
	xor 3,30,25
	cntlzw 3,3
	srwi 3,3,5
.LVL222:
.LBB4342:
.LBB4341:
.LBB4340:
.LBB4338:
	.loc 3 108 0
	beq- 7,.L103
	lwz 10,0(24)
	lwz 11,4(24)
	stw 10,16(29)
	stw 11,20(29)
.L103:
.LVL223:
.LBE4338:
.LBE4340:
.LBE4341:
.LBE4342:
	.loc 1 973 0
	mr 4,29
	mr 5,30
	mr 6,25
	bl _ZSt29_Rb_tree_insert_and_rebalancebPSt18_Rb_tree_node_baseS0_RS_
.LVL224:
	.loc 1 976 0
	lwz 9,20(31)
	mr 3,29
	addi 0,9,1
	stw 0,20(31)
.LVL225:
	b .L104
.LVL226:
.L132:
.LBE4343:
.LBE4347:
.LBB4348:
.LBB4323:
.LBB4248:
.LBB4230:
.LBB4227:
.LBB4225:
.LBB4219:
.LBB4217:
.LBB4215:
	.loc 3 92 0
	bl _Znwj
.LBE4215:
.LBE4217:
.LBE4219:
.LBB4220:
.LBB4221:
	.loc 3 108 0
	cmpwi 7,3,-16
.LBE4221:
.LBE4220:
.LBB4223:
.LBB4218:
.LBB4216:
	.loc 3 92 0
	mr 30,3
.LBE4216:
.LBE4218:
.LBE4223:
.LBE4225:
.LBE4227:
	.loc 1 1325 0
	xor 3,29,28
	cntlzw 3,3
	srwi 3,3,5
.LVL227:
.LBB4228:
.LBB4226:
.LBB4224:
.LBB4222:
	.loc 3 108 0
	beq- 7,.L129
	lwz 10,0(24)
	lwz 11,4(24)
	stw 10,16(30)
	stw 11,20(30)
.LVL228:
	b .L129
.LVL229:
.L134:
.LBE4222:
.LBE4224:
.LBE4226:
.LBE4228:
.LBE4230:
.LBE4248:
.LBE4323:
.LBB4324:
.LBB4320:
.LBB4304:
.LBB4289:
.LBB4288:
.LBB4287:
.LBB4281:
.LBB4279:
.LBB4277:
	.loc 3 92 0
	bl _Znwj
.LBE4277:
.LBE4279:
.LBE4281:
.LBB4282:
.LBB4283:
	.loc 3 108 0
	cmpwi 7,3,-16
.LBE4283:
.LBE4282:
.LBB4285:
.LBB4280:
.LBB4278:
	.loc 3 92 0
	mr 28,3
.LVL230:
.LBE4278:
.LBE4280:
.LBE4285:
.LBB4286:
.LBB4284:
	.loc 3 108 0
	beq- 7,.L123
	lwz 10,0(24)
	lwz 11,4(24)
	stw 10,16(3)
	stw 11,20(3)
.L123:
.LVL231:
.LBE4284:
.LBE4286:
.LBE4287:
.LBE4288:
	.loc 1 973 0
	li 3,0
.LVL232:
	mr 4,28
	mr 5,25
	mr 6,29
	bl _ZSt29_Rb_tree_insert_and_rebalancebPSt18_Rb_tree_node_baseS0_RS_
	.loc 1 976 0
	lwz 9,20(31)
	mr 3,28
	addi 0,9,1
	stw 0,20(31)
.LVL233:
	b .L104
.LVL234:
.L131:
.LBE4289:
.LBE4304:
.LBE4320:
.LBE4324:
.LBB4325:
.LBB4249:
.LBB4250:
.LBB4251:
.LBB4252:
.LBB4253:
.LBB4254:
.LBB4255:
	.loc 3 92 0
	li 3,24
	bl _Znwj
.LBE4255:
.LBE4254:
.LBE4253:
.LBB4258:
.LBB4259:
	.loc 3 108 0
	cmpwi 7,3,-16
.LBE4259:
.LBE4258:
.LBB4261:
.LBB4257:
.LBB4256:
	.loc 3 92 0
	mr 27,3
.LVL235:
.LBE4256:
.LBE4257:
.LBE4261:
.LBB4262:
.LBB4260:
	.loc 3 108 0
	beq- 7,.L108
	lwz 10,0(24)
	lwz 11,4(24)
	stw 10,16(3)
	stw 11,20(3)
.L108:
.LVL236:
.LBE4260:
.LBE4262:
.LBE4252:
.LBE4251:
	.loc 1 973 0
	li 3,1
.LVL237:
	mr 4,27
	mr 5,25
	mr 6,29
	bl _ZSt29_Rb_tree_insert_and_rebalancebPSt18_Rb_tree_node_baseS0_RS_
	.loc 1 976 0
	lwz 9,20(31)
	mr 3,27
	addi 0,9,1
	stw 0,20(31)
.LVL238:
	b .L104
.LVL239:
.L133:
.LBE4250:
.LBE4249:
.LBE4325:
.LBB4326:
.LBB4321:
.LBB4305:
.LBB4306:
.LBB4307:
.LBB4308:
.LBB4309:
.LBB4310:
.LBB4311:
	.loc 3 92 0
	li 3,24
	bl _Znwj
.LBE4311:
.LBE4310:
.LBE4309:
.LBB4314:
.LBB4315:
	.loc 3 108 0
	cmpwi 7,3,-16
.LBE4315:
.LBE4314:
.LBB4317:
.LBB4313:
.LBB4312:
	.loc 3 92 0
	mr 26,3
.LVL240:
.LBE4312:
.LBE4313:
.LBE4317:
.LBB4318:
.LBB4316:
	.loc 3 108 0
	beq- 7,.L119
	lwz 10,0(24)
	lwz 11,4(24)
	stw 10,16(3)
	stw 11,20(3)
.L119:
.LVL241:
.LBE4316:
.LBE4318:
.LBE4308:
.LBE4307:
	.loc 1 973 0
	li 3,0
.LVL242:
	mr 4,26
	mr 5,25
	mr 6,29
	bl _ZSt29_Rb_tree_insert_and_rebalancebPSt18_Rb_tree_node_baseS0_RS_
	.loc 1 976 0
	lwz 9,20(31)
	mr 3,26
	addi 0,9,1
	stw 0,20(31)
.LVL243:
	b .L104
.LBE4306:
.LBE4305:
.LBE4321:
.LBE4326:
.LBE4348:
.LBE4353:
	.cfi_endproc
.LFE2545:
	.size	_ZNSt8_Rb_treeIP12GuiImageDataSt4pairIKS1_iESt10_Select1stIS4_ESt4lessIS1_ESaIS4_EE17_M_insert_unique_ESt23_Rb_tree_const_iteratorIS4_ERKS4_.constprop.205, .-_ZNSt8_Rb_treeIP12GuiImageDataSt4pairIKS1_iESt10_Select1stIS4_ESt4lessIS1_ESaIS4_EE17_M_insert_unique_ESt23_Rb_tree_const_iteratorIS4_ERKS4_.constprop.205
	.align 2
	.type	_ZNSt8_Rb_treeIP8GuiSoundSt4pairIKS1_iESt10_Select1stIS4_ESt4lessIS1_ESaIS4_EE17_M_insert_unique_ESt23_Rb_tree_const_iteratorIS4_ERKS4_.constprop.208, @function
_ZNSt8_Rb_treeIP8GuiSoundSt4pairIKS1_iESt10_Select1stIS4_ESt4lessIS1_ESaIS4_EE17_M_insert_unique_ESt23_Rb_tree_const_iteratorIS4_ERKS4_.constprop.208:
.LFB2542:
	.loc 1 1325 0
	.cfi_startproc
.LVL244:
	mflr 0
	stwu 1,-40(1)
.LCFI27:
	.cfi_def_cfa_offset 40
	.cfi_register 65, 0
	stw 25,12(1)
	stw 0,44(1)
	stw 29,28(1)
.LBB4462:
.LBB4463:
.LBB4464:
.LBB4465:
.LBB4466:
	.loc 1 1333 0
	addi 29,3,4
	.cfi_offset 29, -12
	.cfi_offset 65, 4
	.cfi_offset 25, -28
.LBE4466:
.LBE4465:
.LBE4464:
.LBE4463:
.LBE4462:
	.loc 1 1325 0
	lwz 25,0(4)
.LVL245:
	stw 24,8(1)
	mr 24,5
	.cfi_offset 24, -32
.LBB4606:
	.loc 1 1333 0
	cmpw 7,25,29
.LBE4606:
	.loc 1 1325 0
	stw 31,36(1)
	stw 26,16(1)
	mr 31,3
	.cfi_offset 26, -24
	.cfi_offset 31, -4
	stw 27,20(1)
	stw 28,24(1)
	stw 30,32(1)
.LBB4607:
	.loc 1 1333 0
	beq- 7,.L168
	.cfi_offset 30, -8
	.cfi_offset 28, -16
	.cfi_offset 27, -20
.LVL246:
.LBB4584:
.LBB4585:
	.loc 2 266 0
	lwz 30,0(5)
	lwz 0,16(25)
.LBE4585:
.LBE4584:
.LBB4601:
	.loc 1 1342 0
	cmplw 7,30,0
	bge- 7,.L143
.LVL247:
.LBB4520:
	.loc 1 1347 0
	lwz 0,12(3)
	cmpw 7,25,0
	beq- 7,.L169
.LBB4488:
.LBB4489:
	.loc 1 284 0
	mr 3,25
.LVL248:
	bl _ZSt18_Rb_tree_decrementPKSt18_Rb_tree_node_base
.LVL249:
	.loc 2 266 0
	lwz 0,16(3)
	.loc 1 284 0
	mr 28,3
.LVL250:
.LBE4489:
.LBE4488:
	.loc 1 1350 0
	cmplw 7,30,0
	ble- 7,.L138
	.loc 1 1353 0
	lwz 0,12(3)
.LBB4490:
.LBB4486:
.LBB4467:
.LBB4468:
.LBB4469:
.LBB4470:
.LBB4471:
	.loc 3 92 0
	li 3,24
.LVL251:
.LBE4471:
.LBE4470:
.LBE4469:
.LBE4468:
.LBE4467:
.LBE4486:
.LBE4490:
	.loc 1 1353 0
	cmpwi 7,0,0
	beq- 7,.L170
.LVL252:
.LBB4491:
.LBB4492:
.LBB4493:
.LBB4494:
.LBB4495:
.LBB4496:
.LBB4497:
	.loc 3 92 0
	bl _Znwj
.LBE4497:
.LBE4496:
.LBE4495:
.LBB4500:
.LBB4501:
	.loc 3 108 0
	cmpwi 7,3,-16
.LBE4501:
.LBE4500:
.LBB4503:
.LBB4499:
.LBB4498:
	.loc 3 92 0
	mr 30,3
.LVL253:
.LBE4498:
.LBE4499:
.LBE4503:
.LBB4504:
.LBB4502:
	.loc 3 108 0
	beq- 7,.L153
	lwz 10,0(24)
	lwz 11,4(24)
	stw 10,16(3)
	stw 11,20(3)
.L153:
.LVL254:
.LBE4502:
.LBE4504:
.LBE4494:
.LBE4493:
	.loc 1 973 0
	li 3,1
.LVL255:
	mr 4,30
	mr 5,25
.LVL256:
.L166:
	mr 6,29
	bl _ZSt29_Rb_tree_insert_and_rebalancebPSt18_Rb_tree_node_baseS0_RS_
.LVL257:
	.loc 1 976 0
	lwz 9,20(31)
	mr 3,30
	addi 0,9,1
	stw 0,20(31)
.LVL258:
.L142:
.LBE4492:
.LBE4491:
.LBE4520:
.LBE4601:
.LBE4607:
	.loc 1 1388 0
	lwz 0,44(1)
	lwz 24,8(1)
.LVL259:
	mtlr 0
	lwz 25,12(1)
.LVL260:
	lwz 26,16(1)
	lwz 27,20(1)
	lwz 28,24(1)
	lwz 29,28(1)
	lwz 30,32(1)
	lwz 31,36(1)
.LVL261:
	addi 1,1,40
	.cfi_remember_state
.LCFI28:
	.cfi_def_cfa_offset 0
	.cfi_restore 31
	.cfi_restore 30
	.cfi_restore 29
	.cfi_restore 28
	.cfi_restore 27
	.cfi_restore 26
	.cfi_restore 25
	.cfi_restore 24
	blr
.LVL262:
.L143:
.LCFI29:
	.cfi_restore_state
.LBB4608:
.LBB4602:
.LBB4521:
	.loc 1 1364 0
	ble- 7,.L154
.LVL263:
.LBB4522:
	.loc 1 1369 0
	lwz 0,16(3)
	cmpw 7,25,0
	beq- 7,.L171
.LVL264:
.LBB4523:
.LBB4524:
	.loc 1 269 0
	mr 3,25
.LVL265:
	bl _ZSt18_Rb_tree_incrementPKSt18_Rb_tree_node_base
.LVL266:
.LBE4524:
.LBE4523:
	.loc 1 1372 0
	lwz 0,16(3)
.LBB4526:
.LBB4525:
	.loc 1 269 0
	mr 28,3
.LVL267:
.LBE4525:
.LBE4526:
	.loc 1 1372 0
	cmplw 7,30,0
	bge- 7,.L138
	.loc 1 1375 0
	lwz 0,12(25)
.LBB4527:
.LBB4528:
.LBB4529:
.LBB4530:
.LBB4531:
.LBB4532:
.LBB4533:
	.loc 3 92 0
	li 3,24
.LVL268:
.LBE4533:
.LBE4532:
.LBE4531:
.LBE4530:
.LBE4529:
.LBE4528:
.LBE4527:
	.loc 1 1375 0
	cmpwi 7,0,0
	beq- 7,.L172
.LVL269:
.LBB4547:
.LBB4548:
.LBB4549:
.LBB4550:
.LBB4551:
.LBB4552:
.LBB4553:
	.loc 3 92 0
	bl _Znwj
.LBE4553:
.LBE4552:
.LBE4551:
.LBB4556:
.LBB4557:
	.loc 3 108 0
	cmpwi 7,3,-16
.LBE4557:
.LBE4556:
.LBB4559:
.LBB4555:
.LBB4554:
	.loc 3 92 0
	mr 30,3
.LVL270:
.LBE4554:
.LBE4555:
.LBE4559:
.LBB4560:
.LBB4558:
	.loc 3 108 0
	beq- 7,.L163
	lwz 10,0(24)
	lwz 11,4(24)
	stw 10,16(3)
	stw 11,20(3)
.L163:
.LVL271:
.LBE4558:
.LBE4560:
.LBE4550:
.LBE4549:
	.loc 1 973 0
	li 3,1
.LVL272:
.L167:
	mr 4,30
	mr 5,28
	b .L166
.LVL273:
.L168:
.LBE4548:
.LBE4547:
.LBE4522:
.LBE4521:
.LBE4602:
	.loc 1 1335 0
	lwz 0,20(3)
	cmpwi 7,0,0
	beq- 7,.L138
.LVL274:
	lwz 30,16(3)
.LVL275:
	.loc 2 266 0
	lwz 0,0(5)
	lwz 9,16(30)
	.loc 1 1335 0
	cmplw 7,9,0
	blt- 7,.L173
.LVL276:
.L138:
	.loc 1 1340 0
	mr 3,31
	mr 4,24
	bl _ZNSt8_Rb_treeIP8GuiSoundSt4pairIKS1_iESt10_Select1stIS4_ESt4lessIS1_ESaIS4_EE16_M_insert_uniqueERKS4_.constprop.210
.LBE4608:
	.loc 1 1388 0
	lwz 0,44(1)
	lwz 24,8(1)
.LVL277:
	mtlr 0
	lwz 25,12(1)
.LVL278:
	lwz 26,16(1)
	lwz 27,20(1)
	lwz 28,24(1)
	lwz 29,28(1)
	lwz 30,32(1)
	lwz 31,36(1)
.LVL279:
	addi 1,1,40
	.cfi_remember_state
	.cfi_restore 24
	.cfi_restore 25
	.cfi_restore 26
	.cfi_restore 27
	.cfi_restore 28
	.cfi_restore 29
	.cfi_restore 30
	.cfi_restore 31
.LCFI30:
	.cfi_def_cfa_offset 0
	blr
.LVL280:
.L154:
.LCFI31:
	.cfi_restore_state
	lwz 0,44(1)
.LBB4609:
.LBB4603:
.LBB4579:
.LBB4576:
	.loc 1 1383 0
	mr 3,25
.LVL281:
.LBE4576:
.LBE4579:
.LBE4603:
.LBE4609:
	.loc 1 1388 0
	lwz 24,8(1)
	mtlr 0
	lwz 25,12(1)
.LVL282:
	lwz 26,16(1)
	lwz 27,20(1)
	lwz 28,24(1)
	lwz 29,28(1)
	lwz 30,32(1)
	lwz 31,36(1)
.LVL283:
	addi 1,1,40
	.cfi_remember_state
	.cfi_restore 24
	.cfi_restore 25
	.cfi_restore 26
	.cfi_restore 27
	.cfi_restore 28
	.cfi_restore 29
	.cfi_restore 30
	.cfi_restore 31
.LCFI32:
	.cfi_def_cfa_offset 0
	blr
.LVL284:
.L173:
.LCFI33:
	.cfi_restore_state
.LBB4610:
.LBB4604:
.LBB4600:
.LBB4586:
.LBB4587:
.LBB4588:
.LBB4589:
.LBB4590:
	.loc 3 92 0
	li 3,24
.LVL285:
	bl _Znwj
.LVL286:
.LBE4590:
.LBE4589:
.LBE4588:
.LBB4593:
.LBB4594:
	.loc 3 108 0
	cmpwi 7,3,-16
.LBE4594:
.LBE4593:
.LBB4596:
.LBB4592:
.LBB4591:
	.loc 3 92 0
	mr 29,3
.LBE4591:
.LBE4592:
.LBE4596:
.LBE4587:
.LBE4586:
	.loc 1 1325 0
	xor 3,30,25
	cntlzw 3,3
	srwi 3,3,5
.LVL287:
.LBB4599:
.LBB4598:
.LBB4597:
.LBB4595:
	.loc 3 108 0
	beq- 7,.L141
	lwz 10,0(24)
	lwz 11,4(24)
	stw 10,16(29)
	stw 11,20(29)
.L141:
.LVL288:
.LBE4595:
.LBE4597:
.LBE4598:
.LBE4599:
	.loc 1 973 0
	mr 4,29
	mr 5,30
	mr 6,25
	bl _ZSt29_Rb_tree_insert_and_rebalancebPSt18_Rb_tree_node_baseS0_RS_
.LVL289:
	.loc 1 976 0
	lwz 9,20(31)
	mr 3,29
	addi 0,9,1
	stw 0,20(31)
.LVL290:
	b .L142
.LVL291:
.L170:
.LBE4600:
.LBE4604:
.LBB4605:
.LBB4580:
.LBB4505:
.LBB4487:
.LBB4484:
.LBB4482:
.LBB4476:
.LBB4474:
.LBB4472:
	.loc 3 92 0
	bl _Znwj
.LBE4472:
.LBE4474:
.LBE4476:
.LBB4477:
.LBB4478:
	.loc 3 108 0
	cmpwi 7,3,-16
.LBE4478:
.LBE4477:
.LBB4480:
.LBB4475:
.LBB4473:
	.loc 3 92 0
	mr 30,3
.LBE4473:
.LBE4475:
.LBE4480:
.LBE4482:
.LBE4484:
	.loc 1 1325 0
	xor 3,29,28
	cntlzw 3,3
	srwi 3,3,5
.LVL292:
.LBB4485:
.LBB4483:
.LBB4481:
.LBB4479:
	.loc 3 108 0
	beq- 7,.L167
	lwz 10,0(24)
	lwz 11,4(24)
	stw 10,16(30)
	stw 11,20(30)
.LVL293:
	b .L167
.LVL294:
.L172:
.LBE4479:
.LBE4481:
.LBE4483:
.LBE4485:
.LBE4487:
.LBE4505:
.LBE4580:
.LBB4581:
.LBB4577:
.LBB4561:
.LBB4546:
.LBB4545:
.LBB4544:
.LBB4538:
.LBB4536:
.LBB4534:
	.loc 3 92 0
	bl _Znwj
.LBE4534:
.LBE4536:
.LBE4538:
.LBB4539:
.LBB4540:
	.loc 3 108 0
	cmpwi 7,3,-16
.LBE4540:
.LBE4539:
.LBB4542:
.LBB4537:
.LBB4535:
	.loc 3 92 0
	mr 28,3
.LVL295:
.LBE4535:
.LBE4537:
.LBE4542:
.LBB4543:
.LBB4541:
	.loc 3 108 0
	beq- 7,.L161
	lwz 10,0(24)
	lwz 11,4(24)
	stw 10,16(3)
	stw 11,20(3)
.L161:
.LVL296:
.LBE4541:
.LBE4543:
.LBE4544:
.LBE4545:
	.loc 1 973 0
	li 3,0
.LVL297:
	mr 4,28
	mr 5,25
	mr 6,29
	bl _ZSt29_Rb_tree_insert_and_rebalancebPSt18_Rb_tree_node_baseS0_RS_
	.loc 1 976 0
	lwz 9,20(31)
	mr 3,28
	addi 0,9,1
	stw 0,20(31)
.LVL298:
	b .L142
.LVL299:
.L169:
.LBE4546:
.LBE4561:
.LBE4577:
.LBE4581:
.LBB4582:
.LBB4506:
.LBB4507:
.LBB4508:
.LBB4509:
.LBB4510:
.LBB4511:
.LBB4512:
	.loc 3 92 0
	li 3,24
	bl _Znwj
.LBE4512:
.LBE4511:
.LBE4510:
.LBB4515:
.LBB4516:
	.loc 3 108 0
	cmpwi 7,3,-16
.LBE4516:
.LBE4515:
.LBB4518:
.LBB4514:
.LBB4513:
	.loc 3 92 0
	mr 27,3
.LVL300:
.LBE4513:
.LBE4514:
.LBE4518:
.LBB4519:
.LBB4517:
	.loc 3 108 0
	beq- 7,.L146
	lwz 10,0(24)
	lwz 11,4(24)
	stw 10,16(3)
	stw 11,20(3)
.L146:
.LVL301:
.LBE4517:
.LBE4519:
.LBE4509:
.LBE4508:
	.loc 1 973 0
	li 3,1
.LVL302:
	mr 4,27
	mr 5,25
	mr 6,29
	bl _ZSt29_Rb_tree_insert_and_rebalancebPSt18_Rb_tree_node_baseS0_RS_
	.loc 1 976 0
	lwz 9,20(31)
	mr 3,27
	addi 0,9,1
	stw 0,20(31)
.LVL303:
	b .L142
.LVL304:
.L171:
.LBE4507:
.LBE4506:
.LBE4582:
.LBB4583:
.LBB4578:
.LBB4562:
.LBB4563:
.LBB4564:
.LBB4565:
.LBB4566:
.LBB4567:
.LBB4568:
	.loc 3 92 0
	li 3,24
	bl _Znwj
.LBE4568:
.LBE4567:
.LBE4566:
.LBB4571:
.LBB4572:
	.loc 3 108 0
	cmpwi 7,3,-16
.LBE4572:
.LBE4571:
.LBB4574:
.LBB4570:
.LBB4569:
	.loc 3 92 0
	mr 26,3
.LVL305:
.LBE4569:
.LBE4570:
.LBE4574:
.LBB4575:
.LBB4573:
	.loc 3 108 0
	beq- 7,.L157
	lwz 10,0(24)
	lwz 11,4(24)
	stw 10,16(3)
	stw 11,20(3)
.L157:
.LVL306:
.LBE4573:
.LBE4575:
.LBE4565:
.LBE4564:
	.loc 1 973 0
	li 3,0
.LVL307:
	mr 4,26
	mr 5,25
	mr 6,29
	bl _ZSt29_Rb_tree_insert_and_rebalancebPSt18_Rb_tree_node_baseS0_RS_
	.loc 1 976 0
	lwz 9,20(31)
	mr 3,26
	addi 0,9,1
	stw 0,20(31)
.LVL308:
	b .L142
.LBE4563:
.LBE4562:
.LBE4578:
.LBE4583:
.LBE4605:
.LBE4610:
	.cfi_endproc
.LFE2542:
	.size	_ZNSt8_Rb_treeIP8GuiSoundSt4pairIKS1_iESt10_Select1stIS4_ESt4lessIS1_ESaIS4_EE17_M_insert_unique_ESt23_Rb_tree_const_iteratorIS4_ERKS4_.constprop.208, .-_ZNSt8_Rb_treeIP8GuiSoundSt4pairIKS1_iESt10_Select1stIS4_ESt4lessIS1_ESaIS4_EE17_M_insert_unique_ESt23_Rb_tree_const_iteratorIS4_ERKS4_.constprop.208
	.align 2
	.globl _ZN9Resources8InstanceEv
	.type	_ZN9Resources8InstanceEv, @function
_ZN9Resources8InstanceEv:
.LFB1541:
	.loc 2 35 0
	.cfi_startproc
	stwu 1,-16(1)
.LCFI34:
	.cfi_def_cfa_offset 16
	mflr 0
	stw 30,8(1)
	.loc 2 36 0
	lis 30,_ZN9Resources8instanceE@ha
	.cfi_offset 30, -8
	.cfi_register 65, 0
	.loc 2 35 0
	stw 31,12(1)
	.loc 2 36 0
	lwz 31,_ZN9Resources8instanceE@l(30)
	.cfi_offset 31, -4
	.loc 2 35 0
	stw 0,20(1)
	.loc 2 36 0
	cmpwi 7,31,0
	beq- 7,.L176
	.cfi_offset 65, 4
	.loc 2 41 0
	lwz 0,20(1)
	mr 3,31
	lwz 30,8(1)
	mtlr 0
	lwz 31,12(1)
	addi 1,1,16
	.cfi_remember_state
.LCFI35:
	.cfi_def_cfa_offset 0
	.cfi_restore 31
	.cfi_restore 30
	blr
.L176:
.LCFI36:
	.cfi_restore_state
	.loc 2 38 0
	li 3,96
	bl _Znwj
	li 4,0
	mr 31,3
	li 5,96
	bl memset
.LVL309:
.LBB4611:
.LBB4612:
.LBB4613:
.LBB4614:
.LBB4615:
.LBB4616:
.LBB4617:
	.loc 1 459 0
	addi 0,31,76
	stw 0,84(31)
.LBE4617:
.LBE4616:
.LBE4615:
.LBE4614:
.LBE4613:
.LBE4612:
.LBB4623:
.LBB4624:
.LBB4625:
.LBB4626:
.LBB4627:
.LBB4628:
	addi 10,31,4
.LBE4628:
.LBE4627:
.LBE4626:
.LBE4625:
.LBE4624:
.LBE4623:
.LBB4639:
.LBB4622:
.LBB4621:
.LBB4620:
.LBB4619:
.LBB4618:
	.loc 1 460 0
	stw 0,88(31)
.LBE4618:
.LBE4619:
.LBE4620:
.LBE4621:
.LBE4622:
.LBE4639:
.LBB4640:
.LBB4641:
.LBB4642:
.LBB4643:
.LBB4644:
.LBB4645:
	.loc 1 459 0
	addi 11,31,28
.LBE4645:
.LBE4644:
.LBE4643:
.LBE4642:
.LBE4641:
.LBE4640:
.LBE4611:
	.loc 2 41 0
	lwz 0,20(1)
.LBB4666:
.LBB4651:
.LBB4652:
.LBB4653:
.LBB4654:
.LBB4655:
.LBB4656:
	.loc 1 459 0
	addi 9,31,52
.LBE4656:
.LBE4655:
.LBE4654:
.LBE4653:
.LBE4652:
.LBE4651:
.LBB4662:
.LBB4637:
.LBB4635:
.LBB4633:
.LBB4631:
.LBB4629:
	stw 10,12(31)
.LBE4629:
.LBE4631:
.LBE4633:
.LBE4635:
.LBE4637:
.LBE4662:
.LBE4666:
	.loc 2 41 0
	mr 3,31
	mtlr 0
.LBB4667:
.LBB4663:
.LBB4638:
.LBB4636:
.LBB4634:
.LBB4632:
.LBB4630:
	.loc 1 460 0
	stw 10,16(31)
.LVL310:
.LBE4630:
.LBE4632:
.LBE4634:
.LBE4636:
.LBE4638:
.LBE4663:
.LBB4664:
.LBB4650:
.LBB4649:
.LBB4648:
.LBB4647:
.LBB4646:
	.loc 1 459 0
	stw 11,36(31)
	.loc 1 460 0
	stw 11,40(31)
.LVL311:
.LBE4646:
.LBE4647:
.LBE4648:
.LBE4649:
.LBE4650:
.LBE4664:
.LBB4665:
.LBB4661:
.LBB4660:
.LBB4659:
.LBB4658:
.LBB4657:
	.loc 1 459 0
	stw 9,60(31)
	.loc 1 460 0
	stw 9,64(31)
.LVL312:
.LBE4657:
.LBE4658:
.LBE4659:
.LBE4660:
.LBE4661:
.LBE4665:
.LBE4667:
	.loc 2 38 0
	stw 31,_ZN9Resources8instanceE@l(30)
	.loc 2 41 0
	lwz 30,8(1)
	lwz 31,12(1)
.LVL313:
	addi 1,1,16
	.cfi_restore 30
	.cfi_restore 31
.LCFI37:
	.cfi_def_cfa_offset 0
	blr
	.cfi_endproc
.LFE1541:
	.size	_ZN9Resources8InstanceEv, .-_ZN9Resources8InstanceEv
	.align 2
	.globl _ZN9Resources7GetFileEPKc
	.type	_ZN9Resources7GetFileEPKc, @function
_ZN9Resources7GetFileEPKc:
.LFB1563:
	.loc 2 110 0
	.cfi_startproc
.LVL314:
	stwu 1,-24(1)
.LCFI38:
	.cfi_def_cfa_offset 24
	mflr 0
	stw 29,12(1)
.LBB4668:
	.loc 2 111 0
	mr. 29,3
	.cfi_offset 29, -12
	.cfi_register 65, 0
.LBE4668:
	.loc 2 110 0
	stw 0,28(1)
.LBB4672:
	.loc 2 112 0
	li 3,0
.LVL315:
.LBE4672:
	.loc 2 110 0
	stw 28,8(1)
	stw 30,16(1)
	stw 31,20(1)
.LBB4673:
	.loc 2 111 0
	beq- 0,.L178
	.cfi_offset 31, -4
	.cfi_offset 30, -8
	.cfi_offset 28, -16
	.cfi_offset 65, 4
.LVL316:
.LBB4669:
	.loc 2 114 0 discriminator 1
	lis 28,.LANCHOR0@ha
	lwz 4,.LANCHOR0@l(28)
	la 28,.LANCHOR0@l(28)
	cmpwi 7,4,0
	beq- 7,.L178
	.loc 2 114 0 is_stmt 0
	addi 31,28,20
	li 30,0
	b .L180
.LVL317:
.L179:
	lwz 4,-20(31)
	addi 30,30,1
.LVL318:
	cmpwi 7,4,0
	beq- 7,.L184
.LVL319:
.L180:
	.loc 2 116 0 is_stmt 1
	mr 3,29
	.loc 2 114 0
	addi 31,31,20
	.loc 2 116 0
	bl strcasecmp
	cmpwi 7,3,0
	bne+ 7,.L179
	.loc 2 118 0
	mulli 30,30,20
	add 28,28,30
	lwz 3,12(28)
	cmpwi 7,3,0
	beq- 7,.L185
.L178:
.LBE4669:
.LBE4673:
	.loc 2 123 0
	lwz 0,28(1)
	lwz 28,8(1)
	mtlr 0
	lwz 29,12(1)
.LVL320:
	lwz 30,16(1)
	lwz 31,20(1)
	addi 1,1,24
	.cfi_remember_state
.LCFI39:
	.cfi_def_cfa_offset 0
	.cfi_restore 31
	.cfi_restore 30
	.cfi_restore 29
	.cfi_restore 28
	blr
.LVL321:
.L184:
.LCFI40:
	.cfi_restore_state
	lwz 0,28(1)
.LBB4674:
.LBB4670:
	.loc 2 122 0
	li 3,0
.LBE4670:
.LBE4674:
	.loc 2 123 0
	lwz 28,8(1)
	mtlr 0
	lwz 29,12(1)
.LVL322:
	lwz 30,16(1)
.LVL323:
	lwz 31,20(1)
	addi 1,1,24
	.cfi_remember_state
	.cfi_restore 28
	.cfi_restore 29
	.cfi_restore 30
	.cfi_restore 31
.LCFI41:
	.cfi_def_cfa_offset 0
	blr
.LVL324:
.L185:
.LCFI42:
	.cfi_restore_state
.LBB4675:
.LBB4671:
	.loc 2 118 0 discriminator 2
	lwz 3,4(28)
	b .L178
.LBE4671:
.LBE4675:
	.cfi_endproc
.LFE1563:
	.size	_ZN9Resources7GetFileEPKc, .-_ZN9Resources7GetFileEPKc
	.align 2
	.globl _ZN9Resources11GetFileSizeEPKc
	.type	_ZN9Resources11GetFileSizeEPKc, @function
_ZN9Resources11GetFileSizeEPKc:
.LFB1564:
	.loc 2 126 0
	.cfi_startproc
.LVL325:
	stwu 1,-24(1)
.LCFI43:
	.cfi_def_cfa_offset 24
	mflr 0
	stw 29,12(1)
.LBB4676:
	.loc 2 127 0
	mr. 29,3
	.cfi_offset 29, -12
	.cfi_register 65, 0
.LBE4676:
	.loc 2 126 0
	stw 0,28(1)
.LBB4680:
	.loc 2 128 0
	li 3,0
.LVL326:
.LBE4680:
	.loc 2 126 0
	stw 28,8(1)
	stw 30,16(1)
	stw 31,20(1)
.LBB4681:
	.loc 2 127 0
	beq- 0,.L187
	.cfi_offset 31, -4
	.cfi_offset 30, -8
	.cfi_offset 28, -16
	.cfi_offset 65, 4
.LVL327:
.LBB4677:
	.loc 2 130 0 discriminator 1
	lis 28,.LANCHOR0@ha
	lwz 4,.LANCHOR0@l(28)
	la 28,.LANCHOR0@l(28)
	cmpwi 7,4,0
	beq- 7,.L187
	.loc 2 130 0 is_stmt 0
	addi 31,28,20
	li 30,0
	b .L190
.LVL328:
.L188:
	lwz 4,-20(31)
	addi 30,30,1
.LVL329:
	cmpwi 7,4,0
	beq- 7,.L194
.LVL330:
.L190:
	.loc 2 132 0 is_stmt 1
	mr 3,29
	.loc 2 130 0
	addi 31,31,20
	.loc 2 132 0
	bl strcasecmp
	cmpwi 7,3,0
	bne+ 7,.L188
	.loc 2 134 0
	mulli 30,30,20
	add 28,28,30
	lwz 0,12(28)
	cmpwi 7,0,0
	beq- 7,.L189
	.loc 2 134 0 is_stmt 0 discriminator 1
	lwz 3,16(28)
.L187:
.LBE4677:
.LBE4681:
	.loc 2 139 0 is_stmt 1
	lwz 0,28(1)
	lwz 28,8(1)
	mtlr 0
	lwz 29,12(1)
.LVL331:
	lwz 30,16(1)
	lwz 31,20(1)
	addi 1,1,24
	.cfi_remember_state
.LCFI44:
	.cfi_def_cfa_offset 0
	.cfi_restore 31
	.cfi_restore 30
	.cfi_restore 29
	.cfi_restore 28
	blr
.LVL332:
.L194:
.LCFI45:
	.cfi_restore_state
	lwz 0,28(1)
.LBB4682:
.LBB4678:
	.loc 2 138 0
	li 3,0
.LBE4678:
.LBE4682:
	.loc 2 139 0
	lwz 28,8(1)
	mtlr 0
	lwz 29,12(1)
.LVL333:
	lwz 30,16(1)
.LVL334:
	lwz 31,20(1)
	addi 1,1,24
	.cfi_remember_state
	.cfi_restore 28
	.cfi_restore 29
	.cfi_restore 30
	.cfi_restore 31
.LCFI46:
	.cfi_def_cfa_offset 0
	blr
.LVL335:
.L189:
.LCFI47:
	.cfi_restore_state
.LBB4683:
.LBB4679:
	.loc 2 134 0 discriminator 2
	lwz 3,8(28)
	b .L187
.LBE4679:
.LBE4683:
	.cfi_endproc
.LFE1564:
	.size	_ZN9Resources11GetFileSizeEPKc, .-_ZN9Resources11GetFileSizeEPKc
	.align 2
	.globl _ZN9Resources20InternalGetImageDataEPKhj
	.type	_ZN9Resources20InternalGetImageDataEPKhj, @function
_ZN9Resources20InternalGetImageDataEPKhj:
.LFB1569:
	.loc 2 186 0
	.cfi_startproc
	.cfi_personality 0,__gxx_personality_v0
	.cfi_lsda 0,.LLSDA1569
.LVL336:
	mflr 0
	stwu 1,-72(1)
.LCFI48:
	.cfi_def_cfa_offset 72
	.cfi_register 65, 0
	stw 28,56(1)
	mr 28,4
	.cfi_offset 28, -16
	stw 0,76(1)
	stw 29,60(1)
.LBB4856:
.LBB4857:
.LBB4858:
	.loc 1 1536 0
	addi 29,3,4
	.cfi_offset 29, -12
	.cfi_offset 65, 4
	.loc 2 266 0
	lwz 9,8(3)
.LBE4858:
.LBE4857:
.LBE4856:
	.loc 2 186 0
	stw 30,64(1)
	mr 30,3
	.cfi_offset 30, -8
.LVL337:
.LBB5043:
.LBB4869:
.LBB4867:
.LBB4859:
.LBB4860:
.LBB4861:
	.loc 1 1089 0
	cmpwi 7,9,0
.LBE4861:
.LBE4860:
.LBE4859:
.LBE4867:
.LBE4869:
.LBE5043:
	.loc 2 186 0
	stw 26,48(1)
	stw 27,52(1)
	stw 31,68(1)
.LBB5044:
.LBB4870:
.LBB4868:
.LBB4866:
.LBB4865:
.LBB4862:
	.loc 1 1089 0
	beq- 7,.L196
	.cfi_offset 31, -4
	.cfi_offset 27, -20
	.cfi_offset 26, -24
.LVL338:
	mr 27,29
	b .L199
.LVL339:
.L249:
.LBE4862:
	.loc 2 266 0
	mr 27,9
	.loc 1 1091 0
	lwz 9,8(9)
.LVL340:
.LBB4863:
	.loc 1 1089 0
	cmpwi 7,9,0
	beq- 7,.L248
.LVL341:
.L199:
	.loc 1 1090 0
	lwz 0,16(9)
	cmplw 7,0,28
	bge- 7,.L249
.LVL342:
.LBE4863:
	.loc 2 266 0
	lwz 9,12(9)
.LVL343:
.LBB4864:
	.loc 1 1089 0
	cmpwi 7,9,0
	bne+ 7,.L199
.L248:
.LVL344:
.LBE4864:
.LBE4865:
	.loc 1 1539 0
	cmpw 7,29,27
	beq- 7,.L196
.LVL345:
	lwz 0,16(27)
	cmplw 7,0,28
	bgt- 7,.L196
.LVL346:
.LBE4866:
.LBE4868:
.LBE4870:
.LBB4871:
.LBB4872:
.LBB4873:
.LBB4874:
	.loc 2 266 0
	lwz 9,56(30)
.LVL347:
	.loc 1 828 0
	addi 11,30,52
.LVL348:
.LBE4874:
.LBE4873:
.LBE4872:
.LBE4871:
.LBB4892:
	.loc 2 194 0
	lwz 31,20(27)
.LBE4892:
.LBB5039:
.LBB4891:
.LBB4880:
.LBB4879:
.LBB4875:
.LBB4876:
	.loc 1 828 0
	mr 3,11
.LVL349:
	.loc 1 1089 0
	cmpwi 7,9,0
	bne+ 7,.L230
	b .L201
.LVL350:
.L251:
.LBE4876:
	.loc 2 266 0
	mr 3,9
	.loc 1 1091 0
	lwz 9,8(9)
.LVL351:
.LBB4877:
	.loc 1 1089 0
	cmpwi 7,9,0
	beq- 7,.L250
.LVL352:
.L230:
	.loc 1 1090 0
	lwz 0,16(9)
	cmplw 7,31,0
	ble- 7,.L251
.LBE4877:
	.loc 2 266 0
	lwz 9,12(9)
.LVL353:
.LBB4878:
	.loc 1 1089 0
	cmpwi 7,9,0
	bne+ 7,.L230
.L250:
.LVL354:
.LBE4878:
.LBE4875:
.LBE4879:
.LBE4880:
	.file 4 "d:\\devkitpro\\devkitppc\\bin\\../lib/gcc/powerpc-eabi/4.6.3/../../../../powerpc-eabi/include/c++/4.6.3/bits/stl_map.h"
	.loc 4 452 0
	cmpw 7,11,3
	beq- 7,.L201
.LVL355:
	lwz 0,16(3)
	cmplw 7,31,0
	bge- 7,.L231
.LVL356:
.L201:
.LBB4881:
.LBB4882:
	.loc 4 571 0
	mr 4,1
.LVL357:
.LBE4882:
.LBE4881:
.LBB4885:
.LBB4886:
	.file 5 "d:\\devkitpro\\devkitppc\\bin\\../lib/gcc/powerpc-eabi/4.6.3/../../../../powerpc-eabi/include/c++/4.6.3/bits/stl_pair.h"
	.loc 5 104 0
	li 0,0
	stw 31,8(1)
.LBE4886:
.LBE4885:
.LBB4888:
.LBB4883:
	.loc 4 571 0
	addi 5,1,8
.LVL358:
.LBE4883:
.LBE4888:
.LBB4889:
.LBB4887:
	.loc 5 104 0
	stw 0,12(1)
.LVL359:
.LBE4887:
.LBE4889:
.LBB4890:
.LBB4884:
	.loc 4 571 0
	stwu 3,40(4)
	addi 3,30,48
.LVL360:
.LEHB0:
	bl _ZNSt8_Rb_treeIP12GuiImageDataSt4pairIKS1_iESt10_Select1stIS4_ESt4lessIS1_ESaIS4_EE17_M_insert_unique_ESt23_Rb_tree_const_iteratorIS4_ERKS4_.constprop.205
.LVL361:
	lwz 31,20(27)
.LVL362:
.L231:
.LBE4884:
.LBE4890:
.LBE4891:
.LBE5039:
	.loc 2 197 0
	lwz 9,20(3)
.LBE5044:
	.loc 2 199 0
	lwz 26,48(1)
.LBB5045:
	.loc 2 197 0
	addi 0,9,1
.LBE5045:
	.loc 2 199 0
	lwz 27,52(1)
.LVL363:
.LBB5046:
	.loc 2 197 0
	stw 0,20(3)
.LVL364:
.LBE5046:
	.loc 2 199 0
	mr 3,31
.LVL365:
	lwz 0,76(1)
	lwz 28,56(1)
.LVL366:
	mtlr 0
	lwz 29,60(1)
.LVL367:
	lwz 30,64(1)
.LVL368:
	lwz 31,68(1)
	addi 1,1,72
	.cfi_remember_state
.LCFI49:
	.cfi_def_cfa_offset 0
	.cfi_restore 31
	.cfi_restore 30
	.cfi_restore 29
	.cfi_restore 28
	.cfi_restore 27
	.cfi_restore 26
	blr
.LVL369:
.L196:
.LCFI50:
	.cfi_restore_state
.LBB5047:
.LBB5040:
	.loc 2 191 0
	li 3,24
.LVL370:
	stw 5,44(1)
	bl _Znwj
.LEHE0:
.LVL371:
	lwz 5,44(1)
	mr 4,28
	mr 31,3
.LEHB1:
	bl _ZN12GuiImageDataC1EPKhi
.LEHE1:
.LVL372:
.LBB4893:
.LBB4894:
.LBB4895:
.LBB4896:
	.loc 2 266 0 discriminator 1
	lwz 9,8(30)
.LVL373:
.LBB4897:
.LBB4898:
	.loc 1 1089 0 discriminator 1
	cmpwi 7,9,0
	beq- 7,.L202
	.loc 1 1089 0 is_stmt 0
	mr 27,29
	b .L205
.LVL374:
.L253:
.LBE4898:
	.loc 2 266 0 is_stmt 1
	mr 27,9
	.loc 1 1091 0
	lwz 9,8(9)
.LVL375:
.LBB4899:
	.loc 1 1089 0
	cmpwi 7,9,0
	beq- 7,.L252
.LVL376:
.L205:
	.loc 1 1090 0
	lwz 0,16(9)
	cmplw 7,0,28
	bge- 7,.L253
.LVL377:
.LBE4899:
	.loc 2 266 0
	lwz 9,12(9)
.LVL378:
.LBB4900:
	.loc 1 1089 0
	cmpwi 7,9,0
	bne+ 7,.L205
.L252:
.LBE4900:
.LBE4897:
.LBE4896:
.LBE4895:
	.loc 4 452 0
	cmpw 7,29,27
.LBB4904:
.LBB4903:
.LBB4902:
.LBB4901:
	.loc 1 1089 0
	mr 26,27
.LVL379:
.LBE4901:
.LBE4902:
.LBE4903:
.LBE4904:
	.loc 4 452 0
	beq- 7,.L202
.LVL380:
	lwz 0,16(27)
	cmplw 7,0,28
	ble- 7,.L207
.LVL381:
.LBB4905:
.LBB4906:
.LBB4907:
.LBB4908:
.LBB4909:
	.loc 1 1347 0
	lwz 5,12(30)
.LBE4909:
.LBE4908:
.LBE4907:
.LBE4906:
.LBE4905:
.LBB5004:
.LBB5005:
	.loc 5 104 0
	stw 28,24(1)
.LBE5005:
.LBE5004:
.LBB5009:
.LBB4999:
.LBB4994:
.LBB4987:
.LBB4967:
	.loc 1 1347 0
	cmpw 7,5,27
.LBE4967:
.LBE4987:
.LBE4994:
.LBE4999:
.LBE5009:
.LBB5010:
.LBB5006:
	.loc 5 104 0
	stw 9,28(1)
.LVL382:
.LBE5006:
.LBE5010:
.LBB5011:
.LBB5000:
.LBB4995:
.LBB4988:
.LBB4968:
	.loc 1 1347 0
	beq- 7,.L254
.LBB4910:
.LBB4911:
	.loc 1 284 0
	mr 3,27
	bl _ZSt18_Rb_tree_decrementPKSt18_Rb_tree_node_base
.LVL383:
.LBE4911:
.LBE4910:
.LBE4968:
.LBE4988:
	.loc 2 266 0
	lwz 0,16(3)
.LBB4989:
.LBB4969:
.LBB4913:
.LBB4912:
	.loc 1 284 0
	mr 5,3
.LVL384:
.LBE4912:
.LBE4913:
	.loc 1 1350 0
	cmplw 7,28,0
	ble- 7,.L215
	.loc 1 1353 0
	lwz 0,12(3)
.LBB4914:
.LBB4915:
.LBB4916:
.LBB4917:
.LBB4918:
.LBB4919:
.LBB4920:
	.loc 3 92 0
	li 3,24
.LVL385:
.LBE4920:
.LBE4919:
.LBE4918:
.LBE4917:
.LBE4916:
.LBE4915:
.LBE4914:
	.loc 1 1353 0
	cmpwi 7,0,0
	beq- 7,.L255
.LVL386:
.LEHB2:
.LBB4938:
.LBB4939:
.LBB4940:
.LBB4941:
.LBB4942:
.LBB4943:
.LBB4944:
	.loc 3 92 0
	bl _Znwj
.LVL387:
.LBE4944:
.LBE4943:
.LBE4942:
.LBB4947:
.LBB4948:
	.loc 3 108 0
	cmpwi 7,3,-16
.LBE4948:
.LBE4947:
.LBB4950:
.LBB4946:
.LBB4945:
	.loc 3 92 0
	mr 27,3
.LVL388:
.LBE4945:
.LBE4946:
.LBE4950:
.LBB4951:
.LBB4949:
	.loc 3 108 0
	beq- 7,.L221
	lwz 10,24(1)
	lwz 11,28(1)
	stw 10,16(3)
	stw 11,20(3)
.L221:
.LVL389:
.LBE4949:
.LBE4951:
.LBE4941:
.LBE4940:
	.loc 1 973 0
	li 3,1
.LVL390:
.L246:
	mr 4,27
	mr 5,26
.LVL391:
.L247:
	mr 6,29
	bl _ZSt29_Rb_tree_insert_and_rebalancebPSt18_Rb_tree_node_baseS0_RS_
.LVL392:
	.loc 1 976 0
	lwz 0,20(30)
	addic 0,0,1
	stw 0,20(30)
.LVL393:
.L207:
.LBE4939:
.LBE4938:
.LBE4969:
.LBE4989:
.LBE4995:
.LBE5000:
.LBE5011:
.LBE4894:
.LBE4893:
	.loc 2 192 0
	stw 31,20(27)
.LVL394:
.LBB5018:
.LBB5019:
.LBB5020:
.LBB5021:
	.loc 1 828 0
	addi 11,30,52
.LBB5022:
.LBB5023:
	.loc 1 1089 0
	mr 3,11
.LBE5023:
.LBE5022:
	.loc 2 266 0
	lwz 9,56(30)
.LVL395:
.LBB5027:
.LBB5024:
	.loc 1 1089 0
	cmpwi 7,9,0
	bne+ 7,.L225
	b .L222
.LVL396:
.L257:
.LBE5024:
	.loc 2 266 0
	mr 3,9
	.loc 1 1091 0
	lwz 9,8(9)
.LVL397:
.LBB5025:
	.loc 1 1089 0
	cmpwi 7,9,0
	beq- 7,.L256
.LVL398:
.L225:
	.loc 1 1090 0
	lwz 0,16(9)
	cmplw 7,31,0
	ble- 7,.L257
.LBE5025:
	.loc 2 266 0
	lwz 9,12(9)
.LVL399:
.LBB5026:
	.loc 1 1089 0
	cmpwi 7,9,0
	bne+ 7,.L225
.L256:
.LVL400:
.LBE5026:
.LBE5027:
.LBE5021:
.LBE5020:
	.loc 4 452 0
	cmpw 7,11,3
	beq- 7,.L222
.LVL401:
	lwz 0,16(3)
	cmplw 7,31,0
	bge- 7,.L226
.LVL402:
.L222:
.LBB5028:
.LBB5029:
	.loc 4 571 0
	mr 4,1
.LBE5029:
.LBE5028:
.LBB5032:
.LBB5033:
	.loc 5 104 0
	li 0,0
	stw 31,16(1)
.LBE5033:
.LBE5032:
.LBB5035:
.LBB5030:
	.loc 4 571 0
	addi 5,1,16
.LBE5030:
.LBE5035:
.LBB5036:
.LBB5034:
	.loc 5 104 0
	stw 0,20(1)
.LVL403:
.LBE5034:
.LBE5036:
.LBB5037:
.LBB5031:
	.loc 4 571 0
	stwu 3,40(4)
	addi 3,30,48
.LVL404:
	bl _ZNSt8_Rb_treeIP12GuiImageDataSt4pairIKS1_iESt10_Select1stIS4_ESt4lessIS1_ESaIS4_EE17_M_insert_unique_ESt23_Rb_tree_const_iteratorIS4_ERKS4_.constprop.205
.LVL405:
.L226:
.LBE5031:
.LBE5037:
.LBE5019:
.LBE5018:
	.loc 2 193 0
	li 0,1
.LBE5040:
.LBE5047:
	.loc 2 199 0
	lwz 26,48(1)
.LBB5048:
.LBB5041:
	.loc 2 193 0
	stw 0,20(3)
.LBE5041:
.LBE5048:
	.loc 2 199 0
	mr 3,31
.LVL406:
	lwz 0,76(1)
	lwz 27,52(1)
.LVL407:
	mtlr 0
	lwz 28,56(1)
.LVL408:
	lwz 29,60(1)
.LVL409:
	lwz 30,64(1)
.LVL410:
	lwz 31,68(1)
.LVL411:
	addi 1,1,72
	.cfi_remember_state
	.cfi_restore 26
	.cfi_restore 27
	.cfi_restore 28
	.cfi_restore 29
	.cfi_restore 30
	.cfi_restore 31
.LCFI51:
	.cfi_def_cfa_offset 0
	blr
.LVL412:
.L202:
.LCFI52:
	.cfi_restore_state
.LBB5049:
.LBB5042:
.LBB5038:
.LBB5017:
.LBB5012:
.LBB5001:
.LBB4996:
.LBB4990:
	.loc 1 1335 0
	lwz 0,20(30)
.LBE4990:
.LBE4996:
.LBE5001:
.LBE5012:
.LBB5013:
.LBB5007:
	.loc 5 104 0
	stw 28,24(1)
.LBE5007:
.LBE5013:
.LBB5014:
.LBB5002:
.LBB4997:
.LBB4991:
	.loc 1 1335 0
	cmpwi 7,0,0
.LBE4991:
.LBE4997:
.LBE5002:
.LBE5014:
.LBB5015:
.LBB5008:
	.loc 5 104 0
	li 0,0
	stw 0,28(1)
.LVL413:
.LBE5008:
.LBE5015:
.LBB5016:
.LBB5003:
.LBB4998:
.LBB4992:
	.loc 1 1335 0
	beq- 7,.L215
.LVL414:
	lwz 26,16(30)
.LVL415:
.LBE4992:
	.loc 2 266 0
	lwz 0,16(26)
.LBB4993:
	.loc 1 1335 0
	cmplw 7,28,0
	ble- 7,.L215
.LVL416:
.LBB4970:
.LBB4971:
.LBB4972:
.LBB4973:
.LBB4974:
.LBB4975:
.LBB4976:
	.loc 3 92 0
	li 3,24
	bl _Znwj
.LVL417:
.LBE4976:
.LBE4975:
.LBE4974:
.LBB4979:
.LBB4980:
	.loc 3 108 0
	cmpwi 7,3,-16
.LBE4980:
.LBE4979:
.LBB4982:
.LBB4978:
.LBB4977:
	.loc 3 92 0
	mr 27,3
.LBE4977:
.LBE4978:
.LBE4982:
.LBE4973:
.LBE4972:
	.loc 2 185 0
	xor 3,29,26
	cntlzw 3,3
	srwi 3,3,5
.LVL418:
.LBB4985:
.LBB4984:
.LBB4983:
.LBB4981:
	.loc 3 108 0
	beq- 7,.L246
	lwz 10,24(1)
	lwz 11,28(1)
	stw 10,16(27)
	stw 11,20(27)
.LVL419:
	b .L246
.LVL420:
.L215:
.LBE4981:
.LBE4983:
.LBE4984:
.LBE4985:
.LBE4971:
.LBE4970:
.LBB4986:
	.loc 1 1362 0
	mr 3,30
	addi 4,1,24
.LVL421:
	bl _ZNSt8_Rb_treeIPKhSt4pairIKS1_P12GuiImageDataESt10_Select1stIS6_ESt4lessIS1_ESaIS6_EE16_M_insert_uniqueERKS6_.constprop.213
.LVL422:
	mr 27,3
.LVL423:
	b .L207
.LVL424:
.L255:
.LBB4952:
.LBB4937:
.LBB4934:
.LBB4931:
.LBB4925:
.LBB4923:
.LBB4921:
	.loc 3 92 0
	stw 5,44(1)
	bl _Znwj
.LVL425:
.LBE4921:
.LBE4923:
.LBE4925:
.LBB4926:
.LBB4927:
	.loc 3 108 0
	cmpwi 7,3,-16
.LBE4927:
.LBE4926:
.LBE4931:
.LBE4934:
	.loc 2 185 0
	lwz 5,44(1)
.LBB4935:
.LBB4932:
.LBB4929:
.LBB4924:
.LBB4922:
	.loc 3 92 0
	mr 27,3
.LBE4922:
.LBE4924:
.LBE4929:
.LBE4932:
.LBE4935:
	.loc 2 185 0
	xor 3,29,5
	cntlzw 3,3
	srwi 3,3,5
.LVL426:
.LBB4936:
.LBB4933:
.LBB4930:
.LBB4928:
	.loc 3 108 0
	beq- 7,.L219
	lwz 10,24(1)
	lwz 11,28(1)
	stw 10,16(27)
	stw 11,20(27)
.L219:
.LVL427:
.LBE4928:
.LBE4930:
.LBE4933:
.LBE4936:
	.loc 1 973 0
	mr 4,27
	b .L247
.LVL428:
.L254:
.LBE4937:
.LBE4952:
.LBB4953:
.LBB4954:
.LBB4955:
.LBB4956:
.LBB4957:
.LBB4958:
.LBB4959:
	.loc 3 92 0
	li 3,24
	stw 5,44(1)
	bl _Znwj
.LVL429:
.LBE4959:
.LBE4958:
.LBE4957:
.LBB4962:
.LBB4963:
	.loc 3 108 0
	lwz 5,44(1)
	cmpwi 7,3,-16
.LBE4963:
.LBE4962:
.LBB4965:
.LBB4961:
.LBB4960:
	.loc 3 92 0
	mr 27,3
.LVL430:
.LBE4960:
.LBE4961:
.LBE4965:
.LBB4966:
.LBB4964:
	.loc 3 108 0
	beq- 7,.L214
	lwz 10,24(1)
	lwz 11,28(1)
	stw 10,16(3)
	stw 11,20(3)
.L214:
.LVL431:
.LBE4964:
.LBE4966:
.LBE4956:
.LBE4955:
	.loc 1 973 0
	li 3,1
.LVL432:
	mr 4,27
	b .L247
.LVL433:
.L239:
	mr 30,3
.LVL434:
.LBE4954:
.LBE4953:
.LBE4986:
.LBE4993:
.LBE4998:
.LBE5003:
.LBE5016:
.LBE5017:
.LBE5038:
	.loc 2 191 0
	mr 3,31
	bl _ZdlPv
	mr 3,30
	bl _Unwind_Resume
.LEHE2:
.LBE5042:
.LBE5049:
	.cfi_endproc
.LFE1569:
	.globl __gxx_personality_v0
	.section	.gcc_except_table,"a",@progbits
.LLSDA1569:
	.byte	0xff
	.byte	0xff
	.byte	0x1
	.uleb128 .LLSDACSE1569-.LLSDACSB1569
.LLSDACSB1569:
	.uleb128 .LEHB0-.LFB1569
	.uleb128 .LEHE0-.LEHB0
	.uleb128 0
	.uleb128 0
	.uleb128 .LEHB1-.LFB1569
	.uleb128 .LEHE1-.LEHB1
	.uleb128 .L239-.LFB1569
	.uleb128 0
	.uleb128 .LEHB2-.LFB1569
	.uleb128 .LEHE2-.LEHB2
	.uleb128 0
	.uleb128 0
.LLSDACSE1569:
	.section	".text"
	.size	_ZN9Resources20InternalGetImageDataEPKhj, .-_ZN9Resources20InternalGetImageDataEPKhj
	.align 2
	.globl _ZN9Resources12GetImageDataEPKc
	.type	_ZN9Resources12GetImageDataEPKc, @function
_ZN9Resources12GetImageDataEPKc:
.LFB1565:
	.loc 2 142 0
	.cfi_startproc
.LVL435:
	stwu 1,-24(1)
.LCFI53:
	.cfi_def_cfa_offset 24
	mflr 0
	stw 29,12(1)
.LBB5050:
	.loc 2 143 0
	mr. 29,3
	.cfi_offset 29, -12
	.cfi_register 65, 0
.LBE5050:
	.loc 2 142 0
	stw 0,28(1)
	stw 28,8(1)
	stw 30,16(1)
	stw 31,20(1)
.LBB5067:
	.loc 2 143 0
	beq- 0,.L259
	.cfi_offset 31, -4
	.cfi_offset 30, -8
	.cfi_offset 28, -16
	.cfi_offset 65, 4
.LVL436:
.LBB5051:
	.loc 2 146 0 discriminator 1
	lis 28,.LANCHOR0@ha
	lwz 4,.LANCHOR0@l(28)
	la 28,.LANCHOR0@l(28)
	cmpwi 7,4,0
	beq- 7,.L259
	.loc 2 146 0 is_stmt 0
	addi 31,28,20
	li 30,0
	b .L263
.LVL437:
.L260:
	lwz 4,-20(31)
	addi 30,30,1
.LVL438:
	cmpwi 7,4,0
	beq- 7,.L259
.LVL439:
.L263:
.LBB5052:
	.loc 2 148 0 is_stmt 1
	mr 3,29
.LBE5052:
	.loc 2 146 0
	addi 31,31,20
.LBB5058:
	.loc 2 148 0
	bl strcasecmp
	cmpwi 7,3,0
	bne+ 7,.L260
.LBB5053:
	.loc 2 150 0
	mulli 30,30,20
	add 28,28,30
	lwz 29,12(28)
.LVL440:
	cmpwi 7,29,0
	beq- 7,.L267
.LVL441:
	.loc 2 151 0 discriminator 3
	lwz 31,16(28)
.LVL442:
.L262:
	.loc 2 152 0 discriminator 3
	bl _ZN9Resources8InstanceEv
.LBE5053:
.LBE5058:
.LBE5051:
.LBE5067:
	.loc 2 156 0 discriminator 3
	lwz 0,28(1)
	lwz 28,8(1)
.LBB5068:
.LBB5063:
.LBB5059:
.LBB5054:
	.loc 2 152 0 discriminator 3
	mr 4,29
.LBE5054:
.LBE5059:
.LBE5063:
.LBE5068:
	.loc 2 156 0 discriminator 3
	lwz 30,16(1)
.LBB5069:
.LBB5064:
.LBB5060:
.LBB5055:
	.loc 2 152 0 discriminator 3
	mr 5,31
.LBE5055:
.LBE5060:
.LBE5064:
.LBE5069:
	.loc 2 156 0 discriminator 3
	lwz 29,12(1)
.LVL443:
	mtlr 0
	lwz 31,20(1)
.LVL444:
	addi 1,1,24
	.cfi_remember_state
.LCFI54:
	.cfi_def_cfa_offset 0
	.cfi_restore 31
	.cfi_restore 30
	.cfi_restore 29
	.cfi_restore 28
.LBB5070:
.LBB5065:
.LBB5061:
.LBB5056:
	.loc 2 152 0 discriminator 3
	b _ZN9Resources20InternalGetImageDataEPKhj
.LVL445:
.L259:
.LCFI55:
	.cfi_restore_state
.LBE5056:
.LBE5061:
.LBE5065:
.LBE5070:
	.loc 2 156 0
	lwz 0,28(1)
	li 3,0
	lwz 28,8(1)
	mtlr 0
	lwz 29,12(1)
.LVL446:
	lwz 30,16(1)
	lwz 31,20(1)
	addi 1,1,24
	.cfi_remember_state
.LCFI56:
	.cfi_def_cfa_offset 0
	.cfi_restore 31
	.cfi_restore 30
	.cfi_restore 29
	.cfi_restore 28
	blr
.L267:
.LCFI57:
	.cfi_restore_state
.LBB5071:
.LBB5066:
.LBB5062:
.LBB5057:
	.loc 2 150 0 discriminator 2
	lwz 29,4(28)
.LVL447:
	.loc 2 151 0 discriminator 2
	lwz 31,8(28)
	b .L262
.LBE5057:
.LBE5062:
.LBE5066:
.LBE5071:
	.cfi_endproc
.LFE1565:
	.size	_ZN9Resources12GetImageDataEPKc, .-_ZN9Resources12GetImageDataEPKc
	.align 2
	.globl _ZN9Resources16InternalGetSoundEPKhi
	.type	_ZN9Resources16InternalGetSoundEPKhi, @function
_ZN9Resources16InternalGetSoundEPKhi:
.LFB1570:
	.loc 2 202 0
	.cfi_startproc
	.cfi_personality 0,__gxx_personality_v0
	.cfi_lsda 0,.LLSDA1570
.LVL448:
	mflr 0
	stwu 1,-80(1)
.LCFI58:
	.cfi_def_cfa_offset 80
	.cfi_register 65, 0
	stw 28,64(1)
	mr 28,4
	.cfi_offset 28, -16
	stw 0,84(1)
	stw 29,68(1)
.LBB5244:
.LBB5245:
.LBB5246:
	.loc 1 1536 0
	addi 29,3,28
	.cfi_offset 29, -12
	.cfi_offset 65, 4
	.loc 2 266 0
	lwz 9,32(3)
.LBE5246:
.LBE5245:
.LBE5244:
	.loc 2 202 0
	stw 30,72(1)
	mr 30,3
	.cfi_offset 30, -8
.LVL449:
.LBB5432:
.LBB5257:
.LBB5255:
.LBB5247:
.LBB5248:
.LBB5249:
	.loc 1 1089 0
	cmpwi 7,9,0
.LBE5249:
.LBE5248:
.LBE5247:
.LBE5255:
.LBE5257:
.LBE5432:
	.loc 2 202 0
	stw 25,52(1)
	stw 26,56(1)
	stw 27,60(1)
	stw 31,76(1)
.LBB5433:
.LBB5258:
.LBB5256:
.LBB5254:
.LBB5253:
.LBB5250:
	.loc 1 1089 0
	beq- 7,.L269
	.cfi_offset 31, -4
	.cfi_offset 27, -20
	.cfi_offset 26, -24
	.cfi_offset 25, -28
	mr 27,29
	b .L272
.LVL450:
.L322:
.LBE5250:
	.loc 2 266 0
	mr 27,9
	.loc 1 1091 0
	lwz 9,8(9)
.LVL451:
.LBB5251:
	.loc 1 1089 0
	cmpwi 7,9,0
	beq- 7,.L321
.LVL452:
.L272:
	.loc 1 1090 0
	lwz 0,16(9)
	cmplw 7,0,28
	bge- 7,.L322
.LVL453:
.LBE5251:
	.loc 2 266 0
	lwz 9,12(9)
.LVL454:
.LBB5252:
	.loc 1 1089 0
	cmpwi 7,9,0
	bne+ 7,.L272
.L321:
.LVL455:
.LBE5252:
.LBE5253:
	.loc 1 1539 0
	cmpw 7,29,27
	beq- 7,.L269
.LVL456:
	lwz 0,16(27)
	cmplw 7,0,28
	bgt- 7,.L269
.LVL457:
.LBE5254:
.LBE5256:
.LBE5258:
.LBB5259:
.LBB5260:
.LBB5261:
.LBB5262:
	.loc 2 266 0
	lwz 9,80(30)
.LVL458:
	.loc 1 828 0
	addi 11,30,76
.LVL459:
.LBE5262:
.LBE5261:
.LBE5260:
.LBE5259:
.LBB5280:
	.loc 2 211 0
	lwz 31,20(27)
.LBE5280:
.LBB5428:
.LBB5279:
.LBB5268:
.LBB5267:
.LBB5263:
.LBB5264:
	.loc 1 828 0
	mr 3,11
.LVL460:
	.loc 1 1089 0
	cmpwi 7,9,0
	bne+ 7,.L303
	b .L274
.LVL461:
.L324:
.LBE5264:
	.loc 2 266 0
	mr 3,9
	.loc 1 1091 0
	lwz 9,8(9)
.LVL462:
.LBB5265:
	.loc 1 1089 0
	cmpwi 7,9,0
	beq- 7,.L323
.LVL463:
.L303:
	.loc 1 1090 0
	lwz 0,16(9)
	cmplw 7,31,0
	ble- 7,.L324
.LBE5265:
	.loc 2 266 0
	lwz 9,12(9)
.LVL464:
.LBB5266:
	.loc 1 1089 0
	cmpwi 7,9,0
	bne+ 7,.L303
.L323:
.LVL465:
.LBE5266:
.LBE5263:
.LBE5267:
.LBE5268:
	.loc 4 452 0
	cmpw 7,11,3
	beq- 7,.L274
.LVL466:
	lwz 0,16(3)
	cmplw 7,31,0
	bge- 7,.L304
.LVL467:
.L274:
.LBB5269:
.LBB5270:
	.loc 4 571 0
	mr 4,1
.LVL468:
.LBE5270:
.LBE5269:
.LBB5273:
.LBB5274:
	.loc 5 104 0
	li 0,0
	stw 31,8(1)
.LBE5274:
.LBE5273:
.LBB5276:
.LBB5271:
	.loc 4 571 0
	addi 5,1,8
.LVL469:
.LBE5271:
.LBE5276:
.LBB5277:
.LBB5275:
	.loc 5 104 0
	stw 0,12(1)
.LVL470:
.LBE5275:
.LBE5277:
.LBB5278:
.LBB5272:
	.loc 4 571 0
	stwu 3,40(4)
	addi 3,30,72
.LVL471:
.LEHB3:
	bl _ZNSt8_Rb_treeIP8GuiSoundSt4pairIKS1_iESt10_Select1stIS4_ESt4lessIS1_ESaIS4_EE17_M_insert_unique_ESt23_Rb_tree_const_iteratorIS4_ERKS4_.constprop.208
.LVL472:
	lwz 31,20(27)
.LVL473:
.L304:
.LBE5272:
.LBE5278:
.LBE5279:
.LBE5428:
	.loc 2 214 0
	lwz 9,20(3)
.LBE5433:
	.loc 2 216 0
	lwz 25,52(1)
.LBB5434:
	.loc 2 214 0
	addi 0,9,1
.LBE5434:
	.loc 2 216 0
	lwz 26,56(1)
.LBB5435:
	.loc 2 214 0
	stw 0,20(3)
.LVL474:
.LBE5435:
	.loc 2 216 0
	mr 3,31
.LVL475:
	lwz 0,84(1)
	lwz 27,60(1)
.LVL476:
	mtlr 0
	lwz 28,64(1)
.LVL477:
	lwz 29,68(1)
.LVL478:
	lwz 30,72(1)
.LVL479:
	lwz 31,76(1)
	addi 1,1,80
	.cfi_remember_state
.LCFI59:
	.cfi_def_cfa_offset 0
	.cfi_restore 31
	.cfi_restore 30
	.cfi_restore 29
	.cfi_restore 28
	.cfi_restore 27
	.cfi_restore 26
	.cfi_restore 25
	blr
.LVL480:
.L269:
.LCFI60:
	.cfi_restore_state
.LBB5436:
.LBB5429:
	.loc 2 208 0
	li 3,32
.LVL481:
	stw 5,44(1)
	bl _Znwj
.LEHE3:
.LVL482:
	lwz 5,44(1)
	mr 4,28
	li 6,0
	li 7,-1
	mr 31,3
.LEHB4:
	bl _ZN8GuiSoundC1EPKhibi
.LEHE4:
.LVL483:
.LBB5281:
.LBB5282:
.LBB5283:
.LBB5284:
	.loc 2 266 0 discriminator 1
	lwz 9,32(30)
.LVL484:
.LBB5285:
.LBB5286:
	.loc 1 1089 0 discriminator 1
	cmpwi 7,9,0
	beq- 7,.L275
	.loc 1 1089 0 is_stmt 0
	mr 27,29
	b .L278
.LVL485:
.L326:
.LBE5286:
	.loc 2 266 0 is_stmt 1
	mr 27,9
	.loc 1 1091 0
	lwz 9,8(9)
.LVL486:
.LBB5287:
	.loc 1 1089 0
	cmpwi 7,9,0
	beq- 7,.L325
.LVL487:
.L278:
	.loc 1 1090 0
	lwz 0,16(9)
	cmplw 7,0,28
	bge- 7,.L326
.LVL488:
.LBE5287:
	.loc 2 266 0
	lwz 9,12(9)
.LVL489:
.LBB5288:
	.loc 1 1089 0
	cmpwi 7,9,0
	bne+ 7,.L278
.L325:
.LBE5288:
.LBE5285:
.LBE5284:
.LBE5283:
	.loc 4 452 0
	cmpw 7,29,27
.LBB5292:
.LBB5291:
.LBB5290:
.LBB5289:
	.loc 1 1089 0
	mr 26,27
.LVL490:
.LBE5289:
.LBE5290:
.LBE5291:
.LBE5292:
	.loc 4 452 0
	beq- 7,.L275
.LVL491:
	lwz 0,16(27)
	cmplw 7,0,28
	ble- 7,.L280
.LVL492:
.LBB5293:
.LBB5294:
.LBB5295:
.LBB5296:
.LBB5297:
	.loc 1 1347 0
	lwz 5,36(30)
.LBE5297:
.LBE5296:
.LBE5295:
	.loc 4 571 0
	addi 25,30,24
.LBE5294:
.LBE5293:
.LBB5393:
.LBB5394:
	.loc 5 104 0
	stw 28,24(1)
.LBE5394:
.LBE5393:
.LBB5398:
.LBB5388:
.LBB5383:
.LBB5376:
.LBB5355:
	.loc 1 1347 0
	cmpw 7,5,27
.LBE5355:
.LBE5376:
.LBE5383:
.LBE5388:
.LBE5398:
.LBB5399:
.LBB5395:
	.loc 5 104 0
	stw 9,28(1)
.LVL493:
.LBE5395:
.LBE5399:
.LBB5400:
.LBB5389:
.LBB5384:
.LBB5377:
.LBB5356:
	.loc 1 1347 0
	beq- 7,.L327
.LBB5298:
.LBB5299:
	.loc 1 284 0
	mr 3,27
	bl _ZSt18_Rb_tree_decrementPKSt18_Rb_tree_node_base
.LVL494:
.LBE5299:
.LBE5298:
.LBE5356:
.LBE5377:
	.loc 2 266 0
	lwz 0,16(3)
.LBB5378:
.LBB5357:
.LBB5301:
.LBB5300:
	.loc 1 284 0
	mr 5,3
.LVL495:
.LBE5300:
.LBE5301:
	.loc 1 1350 0
	cmplw 7,28,0
	ble- 7,.L288
	.loc 1 1353 0
	lwz 0,12(3)
.LBB5302:
.LBB5303:
.LBB5304:
.LBB5305:
.LBB5306:
.LBB5307:
.LBB5308:
	.loc 3 92 0
	li 3,24
.LVL496:
.LBE5308:
.LBE5307:
.LBE5306:
.LBE5305:
.LBE5304:
.LBE5303:
.LBE5302:
	.loc 1 1353 0
	cmpwi 7,0,0
	beq- 7,.L328
.LVL497:
.LEHB5:
.LBB5326:
.LBB5327:
.LBB5328:
.LBB5329:
.LBB5330:
.LBB5331:
.LBB5332:
	.loc 3 92 0
	bl _Znwj
.LVL498:
.LBE5332:
.LBE5331:
.LBE5330:
.LBB5335:
.LBB5336:
	.loc 3 108 0
	cmpwi 7,3,-16
.LBE5336:
.LBE5335:
.LBB5338:
.LBB5334:
.LBB5333:
	.loc 3 92 0
	mr 27,3
.LVL499:
.LBE5333:
.LBE5334:
.LBE5338:
.LBB5339:
.LBB5337:
	.loc 3 108 0
	beq- 7,.L294
	lwz 10,24(1)
	lwz 11,28(1)
	stw 10,16(3)
	stw 11,20(3)
.L294:
.LVL500:
.LBE5337:
.LBE5339:
.LBE5329:
.LBE5328:
	.loc 1 973 0
	li 3,1
.LVL501:
.L319:
	mr 4,27
	mr 5,26
.LVL502:
.L320:
	mr 6,29
	bl _ZSt29_Rb_tree_insert_and_rebalancebPSt18_Rb_tree_node_baseS0_RS_
.LVL503:
	.loc 1 976 0
	lwz 0,44(30)
	addic 0,0,1
	stw 0,44(30)
.LVL504:
.L280:
.LBE5327:
.LBE5326:
.LBE5357:
.LBE5378:
.LBE5384:
.LBE5389:
.LBE5400:
.LBE5282:
.LBE5281:
	.loc 2 209 0
	stw 31,20(27)
.LVL505:
.LBB5407:
.LBB5408:
.LBB5409:
.LBB5410:
	.loc 1 828 0
	addi 11,30,76
.LBB5411:
.LBB5412:
	.loc 1 1089 0
	mr 3,11
.LBE5412:
.LBE5411:
	.loc 2 266 0
	lwz 9,80(30)
.LVL506:
.LBB5416:
.LBB5413:
	.loc 1 1089 0
	cmpwi 7,9,0
	bne+ 7,.L298
	b .L295
.LVL507:
.L330:
.LBE5413:
	.loc 2 266 0
	mr 3,9
	.loc 1 1091 0
	lwz 9,8(9)
.LVL508:
.LBB5414:
	.loc 1 1089 0
	cmpwi 7,9,0
	beq- 7,.L329
.LVL509:
.L298:
	.loc 1 1090 0
	lwz 0,16(9)
	cmplw 7,31,0
	ble- 7,.L330
.LBE5414:
	.loc 2 266 0
	lwz 9,12(9)
.LVL510:
.LBB5415:
	.loc 1 1089 0
	cmpwi 7,9,0
	bne+ 7,.L298
.L329:
.LVL511:
.LBE5415:
.LBE5416:
.LBE5410:
.LBE5409:
	.loc 4 452 0
	cmpw 7,11,3
	beq- 7,.L295
.LVL512:
	lwz 0,16(3)
	cmplw 7,31,0
	bge- 7,.L299
.LVL513:
.L295:
.LBB5417:
.LBB5418:
	.loc 4 571 0
	mr 4,1
.LBE5418:
.LBE5417:
.LBB5421:
.LBB5422:
	.loc 5 104 0
	li 0,0
	stw 31,16(1)
.LBE5422:
.LBE5421:
.LBB5424:
.LBB5419:
	.loc 4 571 0
	addi 5,1,16
.LBE5419:
.LBE5424:
.LBB5425:
.LBB5423:
	.loc 5 104 0
	stw 0,20(1)
.LVL514:
.LBE5423:
.LBE5425:
.LBB5426:
.LBB5420:
	.loc 4 571 0
	stwu 3,40(4)
	addi 3,30,72
.LVL515:
	bl _ZNSt8_Rb_treeIP8GuiSoundSt4pairIKS1_iESt10_Select1stIS4_ESt4lessIS1_ESaIS4_EE17_M_insert_unique_ESt23_Rb_tree_const_iteratorIS4_ERKS4_.constprop.208
.LVL516:
.L299:
.LBE5420:
.LBE5426:
.LBE5408:
.LBE5407:
	.loc 2 210 0
	li 0,1
.LBE5429:
.LBE5436:
	.loc 2 216 0
	lwz 25,52(1)
.LBB5437:
.LBB5430:
	.loc 2 210 0
	stw 0,20(3)
.LBE5430:
.LBE5437:
	.loc 2 216 0
	mr 3,31
.LVL517:
	lwz 0,84(1)
	lwz 26,56(1)
	mtlr 0
	lwz 27,60(1)
.LVL518:
	lwz 28,64(1)
.LVL519:
	lwz 29,68(1)
.LVL520:
	lwz 30,72(1)
.LVL521:
	lwz 31,76(1)
.LVL522:
	addi 1,1,80
	.cfi_remember_state
	.cfi_restore 25
	.cfi_restore 26
	.cfi_restore 27
	.cfi_restore 28
	.cfi_restore 29
	.cfi_restore 30
	.cfi_restore 31
.LCFI61:
	.cfi_def_cfa_offset 0
	blr
.LVL523:
.L275:
.LCFI62:
	.cfi_restore_state
.LBB5438:
.LBB5431:
.LBB5427:
.LBB5406:
.LBB5401:
.LBB5390:
.LBB5385:
.LBB5379:
	.loc 1 1335 0
	lwz 0,44(30)
.LBE5379:
.LBE5385:
.LBE5390:
.LBE5401:
.LBB5402:
.LBB5396:
	.loc 5 104 0
	stw 28,24(1)
.LBE5396:
.LBE5402:
.LBB5403:
.LBB5391:
.LBB5386:
.LBB5380:
	.loc 1 1335 0
	cmpwi 7,0,0
.LBE5380:
.LBE5386:
.LBE5391:
.LBE5403:
.LBB5404:
.LBB5397:
	.loc 5 104 0
	li 0,0
	stw 0,28(1)
.LVL524:
.LBE5397:
.LBE5404:
.LBB5405:
.LBB5392:
.LBB5387:
.LBB5381:
	.loc 1 1335 0
	beq- 7,.L281
.LVL525:
	lwz 26,40(30)
.LVL526:
.LBE5381:
	.loc 2 266 0
	lwz 0,16(26)
.LBB5382:
	.loc 1 1335 0
	cmplw 7,28,0
	ble- 7,.L281
.LVL527:
.LBB5358:
.LBB5359:
.LBB5360:
.LBB5361:
.LBB5362:
.LBB5363:
.LBB5364:
	.loc 3 92 0
	li 3,24
	bl _Znwj
.LVL528:
.LBE5364:
.LBE5363:
.LBE5362:
.LBB5367:
.LBB5368:
	.loc 3 108 0
	cmpwi 7,3,-16
.LBE5368:
.LBE5367:
.LBB5370:
.LBB5366:
.LBB5365:
	.loc 3 92 0
	mr 27,3
.LBE5365:
.LBE5366:
.LBE5370:
.LBE5361:
.LBE5360:
	.loc 2 201 0
	xor 3,29,26
	cntlzw 3,3
	srwi 3,3,5
.LVL529:
.LBB5373:
.LBB5372:
.LBB5371:
.LBB5369:
	.loc 3 108 0
	beq- 7,.L319
	lwz 10,24(1)
	lwz 11,28(1)
	stw 10,16(27)
	stw 11,20(27)
.LVL530:
	b .L319
.LVL531:
.L288:
.LBE5369:
.LBE5371:
.LBE5372:
.LBE5373:
.LBE5359:
.LBE5358:
.LBB5374:
	.loc 1 1362 0
	mr 3,25
.LVL532:
	addi 4,1,24
	bl _ZNSt8_Rb_treeIPKhSt4pairIKS1_P8GuiSoundESt10_Select1stIS6_ESt4lessIS1_ESaIS6_EE16_M_insert_uniqueERKS6_.constprop.216
.LVL533:
	mr 27,3
.LVL534:
	b .L280
.LVL535:
.L281:
.LBE5374:
	.loc 1 1340 0
	addi 3,30,24
	addi 4,1,24
.LVL536:
	bl _ZNSt8_Rb_treeIPKhSt4pairIKS1_P8GuiSoundESt10_Select1stIS6_ESt4lessIS1_ESaIS6_EE16_M_insert_uniqueERKS6_.constprop.216
.LVL537:
	mr 27,3
	b .L280
.LVL538:
.L328:
.LBB5375:
.LBB5340:
.LBB5325:
.LBB5322:
.LBB5319:
.LBB5313:
.LBB5311:
.LBB5309:
	.loc 3 92 0
	stw 5,44(1)
	bl _Znwj
.LVL539:
.LBE5309:
.LBE5311:
.LBE5313:
.LBB5314:
.LBB5315:
	.loc 3 108 0
	cmpwi 7,3,-16
.LBE5315:
.LBE5314:
.LBE5319:
.LBE5322:
	.loc 2 201 0
	lwz 5,44(1)
.LBB5323:
.LBB5320:
.LBB5317:
.LBB5312:
.LBB5310:
	.loc 3 92 0
	mr 27,3
.LBE5310:
.LBE5312:
.LBE5317:
.LBE5320:
.LBE5323:
	.loc 2 201 0
	xor 3,29,5
	cntlzw 3,3
	srwi 3,3,5
.LVL540:
.LBB5324:
.LBB5321:
.LBB5318:
.LBB5316:
	.loc 3 108 0
	beq- 7,.L292
	lwz 10,24(1)
	lwz 11,28(1)
	stw 10,16(27)
	stw 11,20(27)
.L292:
.LVL541:
.LBE5316:
.LBE5318:
.LBE5321:
.LBE5324:
	.loc 1 973 0
	mr 4,27
	b .L320
.LVL542:
.L327:
.LBE5325:
.LBE5340:
.LBB5341:
.LBB5342:
.LBB5343:
.LBB5344:
.LBB5345:
.LBB5346:
.LBB5347:
	.loc 3 92 0
	li 3,24
	stw 5,44(1)
	bl _Znwj
.LVL543:
.LBE5347:
.LBE5346:
.LBE5345:
.LBB5350:
.LBB5351:
	.loc 3 108 0
	lwz 5,44(1)
	cmpwi 7,3,-16
.LBE5351:
.LBE5350:
.LBB5353:
.LBB5349:
.LBB5348:
	.loc 3 92 0
	mr 27,3
.LVL544:
.LBE5348:
.LBE5349:
.LBE5353:
.LBB5354:
.LBB5352:
	.loc 3 108 0
	beq- 7,.L287
	lwz 10,24(1)
	lwz 11,28(1)
	stw 10,16(3)
	stw 11,20(3)
.L287:
.LVL545:
.LBE5352:
.LBE5354:
.LBE5344:
.LBE5343:
	.loc 1 973 0
	li 3,1
.LVL546:
	mr 4,27
	b .L320
.LVL547:
.L312:
	mr 30,3
.LVL548:
.LBE5342:
.LBE5341:
.LBE5375:
.LBE5382:
.LBE5387:
.LBE5392:
.LBE5405:
.LBE5406:
.LBE5427:
	.loc 2 208 0
	mr 3,31
	bl _ZdlPv
	mr 3,30
	bl _Unwind_Resume
.LEHE5:
.LBE5431:
.LBE5438:
	.cfi_endproc
.LFE1570:
	.section	.gcc_except_table
.LLSDA1570:
	.byte	0xff
	.byte	0xff
	.byte	0x1
	.uleb128 .LLSDACSE1570-.LLSDACSB1570
.LLSDACSB1570:
	.uleb128 .LEHB3-.LFB1570
	.uleb128 .LEHE3-.LEHB3
	.uleb128 0
	.uleb128 0
	.uleb128 .LEHB4-.LFB1570
	.uleb128 .LEHE4-.LEHB4
	.uleb128 .L312-.LFB1570
	.uleb128 0
	.uleb128 .LEHB5-.LFB1570
	.uleb128 .LEHE5-.LEHB5
	.uleb128 0
	.uleb128 0
.LLSDACSE1570:
	.section	".text"
	.size	_ZN9Resources16InternalGetSoundEPKhi, .-_ZN9Resources16InternalGetSoundEPKhi
	.align 2
	.globl _ZN9Resources8GetSoundEPKc
	.type	_ZN9Resources8GetSoundEPKc, @function
_ZN9Resources8GetSoundEPKc:
.LFB1566:
	.loc 2 159 0
	.cfi_startproc
.LVL549:
	stwu 1,-24(1)
.LCFI63:
	.cfi_def_cfa_offset 24
	mflr 0
	stw 29,12(1)
.LBB5439:
	.loc 2 160 0
	mr. 29,3
	.cfi_offset 29, -12
	.cfi_register 65, 0
.LBE5439:
	.loc 2 159 0
	stw 0,28(1)
	stw 28,8(1)
	stw 30,16(1)
	stw 31,20(1)
.LBB5456:
	.loc 2 160 0
	beq- 0,.L332
	.cfi_offset 31, -4
	.cfi_offset 30, -8
	.cfi_offset 28, -16
	.cfi_offset 65, 4
.LVL550:
.LBB5440:
	.loc 2 163 0 discriminator 1
	lis 28,.LANCHOR0@ha
	lwz 4,.LANCHOR0@l(28)
	la 28,.LANCHOR0@l(28)
	cmpwi 7,4,0
	beq- 7,.L332
	.loc 2 163 0 is_stmt 0
	addi 31,28,20
	li 30,0
	b .L336
.LVL551:
.L333:
	lwz 4,-20(31)
	addi 30,30,1
.LVL552:
	cmpwi 7,4,0
	beq- 7,.L332
.LVL553:
.L336:
.LBB5441:
	.loc 2 165 0 is_stmt 1
	mr 3,29
.LBE5441:
	.loc 2 163 0
	addi 31,31,20
.LBB5447:
	.loc 2 165 0
	bl strcasecmp
	cmpwi 7,3,0
	bne+ 7,.L333
.LBB5442:
	.loc 2 167 0
	mulli 30,30,20
	add 28,28,30
	lwz 29,12(28)
.LVL554:
	cmpwi 7,29,0
	beq- 7,.L340
.LVL555:
	.loc 2 168 0 discriminator 3
	lwz 31,16(28)
.LVL556:
.L335:
	.loc 2 169 0 discriminator 3
	bl _ZN9Resources8InstanceEv
.LBE5442:
.LBE5447:
.LBE5440:
.LBE5456:
	.loc 2 173 0 discriminator 3
	lwz 0,28(1)
	lwz 28,8(1)
.LBB5457:
.LBB5452:
.LBB5448:
.LBB5443:
	.loc 2 169 0 discriminator 3
	mr 4,29
.LBE5443:
.LBE5448:
.LBE5452:
.LBE5457:
	.loc 2 173 0 discriminator 3
	lwz 30,16(1)
.LBB5458:
.LBB5453:
.LBB5449:
.LBB5444:
	.loc 2 169 0 discriminator 3
	mr 5,31
.LBE5444:
.LBE5449:
.LBE5453:
.LBE5458:
	.loc 2 173 0 discriminator 3
	lwz 29,12(1)
.LVL557:
	mtlr 0
	lwz 31,20(1)
.LVL558:
	addi 1,1,24
	.cfi_remember_state
.LCFI64:
	.cfi_def_cfa_offset 0
	.cfi_restore 31
	.cfi_restore 30
	.cfi_restore 29
	.cfi_restore 28
.LBB5459:
.LBB5454:
.LBB5450:
.LBB5445:
	.loc 2 169 0 discriminator 3
	b _ZN9Resources16InternalGetSoundEPKhi
.LVL559:
.L332:
.LCFI65:
	.cfi_restore_state
.LBE5445:
.LBE5450:
.LBE5454:
.LBE5459:
	.loc 2 173 0
	lwz 0,28(1)
	li 3,0
	lwz 28,8(1)
	mtlr 0
	lwz 29,12(1)
.LVL560:
	lwz 30,16(1)
	lwz 31,20(1)
	addi 1,1,24
	.cfi_remember_state
.LCFI66:
	.cfi_def_cfa_offset 0
	.cfi_restore 31
	.cfi_restore 30
	.cfi_restore 29
	.cfi_restore 28
	blr
.L340:
.LCFI67:
	.cfi_restore_state
.LBB5460:
.LBB5455:
.LBB5451:
.LBB5446:
	.loc 2 167 0 discriminator 2
	lwz 29,4(28)
.LVL561:
	.loc 2 168 0 discriminator 2
	lwz 31,8(28)
	b .L335
.LBE5446:
.LBE5451:
.LBE5455:
.LBE5460:
	.cfi_endproc
.LFE1566:
	.size	_ZN9Resources8GetSoundEPKc, .-_ZN9Resources8GetSoundEPKc
	.align 2
	.globl _ZN9Resources23InternalRemoveImageDataEP12GuiImageData
	.type	_ZN9Resources23InternalRemoveImageDataEP12GuiImageData, @function
_ZN9Resources23InternalRemoveImageDataEP12GuiImageData:
.LFB1571:
	.loc 2 219 0
	.cfi_startproc
.LVL562:
	mflr 0
	stwu 1,-24(1)
.LCFI68:
	.cfi_def_cfa_offset 24
	.cfi_register 65, 0
	stw 29,12(1)
	mr 29,3
	.cfi_offset 29, -12
.LVL563:
	stw 0,28(1)
	stw 31,20(1)
	mr 31,4
	.cfi_offset 31, -4
	.cfi_offset 65, 4
.LBB5461:
.LBB5462:
.LBB5463:
	.loc 2 266 0
	lwz 9,56(3)
.LVL564:
.LBE5463:
.LBE5462:
.LBE5461:
	.loc 2 219 0
	stw 28,8(1)
.LBB5529:
.LBB5476:
.LBB5474:
.LBB5464:
.LBB5465:
.LBB5466:
	.loc 1 1089 0
	cmpwi 7,9,0
.LBE5466:
.LBE5465:
.LBE5464:
.LBE5474:
.LBE5476:
.LBE5529:
	.loc 2 219 0
	stw 30,16(1)
.LBB5530:
.LBB5477:
.LBB5475:
.LBB5472:
.LBB5470:
.LBB5467:
	.loc 1 1089 0
	beq- 7,.L341
	.cfi_offset 30, -8
	.cfi_offset 28, -16
.LVL565:
.LBE5467:
.LBE5470:
.LBE5472:
	.loc 1 1536 0
	addi 4,3,52
.LVL566:
	mr 3,4
.LVL567:
	b .L345
.LVL568:
.L362:
.LBB5473:
.LBB5471:
	.loc 2 266 0
	mr 3,9
	.loc 1 1091 0
	lwz 9,8(9)
.LVL569:
.LBB5468:
	.loc 1 1089 0
	cmpwi 7,9,0
	beq- 7,.L361
.LVL570:
.L345:
	.loc 1 1090 0
	lwz 0,16(9)
	cmplw 7,0,31
	bge- 7,.L362
.LBE5468:
	.loc 2 266 0
	lwz 9,12(9)
.LVL571:
.LBB5469:
	.loc 1 1089 0
	cmpwi 7,9,0
	bne+ 7,.L345
.L361:
.LVL572:
.LBE5469:
.LBE5471:
	.loc 1 1539 0
	cmpw 7,4,3
	beq- 7,.L341
.LVL573:
	lwz 0,16(3)
	cmplw 7,0,31
	ble- 7,.L363
.LVL574:
.L341:
.LBE5473:
.LBE5475:
.LBE5477:
.LBE5530:
	.loc 2 241 0
	lwz 0,28(1)
	lwz 28,8(1)
	mtlr 0
	lwz 29,12(1)
.LVL575:
	lwz 30,16(1)
	lwz 31,20(1)
.LVL576:
	addi 1,1,24
	.cfi_remember_state
.LCFI69:
	.cfi_def_cfa_offset 0
	.cfi_restore 31
	.cfi_restore 30
	.cfi_restore 29
	.cfi_restore 28
	blr
.LVL577:
.L363:
.LCFI70:
	.cfi_restore_state
.LBB5531:
	.loc 2 224 0
	lwz 9,20(3)
.LVL578:
	addi 0,9,-1
.LBB5478:
	.loc 2 226 0
	cmpwi 7,0,0
.LBE5478:
	.loc 2 224 0
	stw 0,20(3)
.LVL579:
.LBB5526:
	.loc 2 226 0
	bne+ 7,.L341
.LVL580:
.LBB5479:
.LBB5480:
.LBB5481:
.LBB5482:
.LBB5483:
	.loc 1 1489 0
	bl _ZSt28_Rb_tree_rebalance_for_erasePSt18_Rb_tree_node_baseRS_
.LVL581:
.LBE5483:
.LBE5482:
.LBE5481:
.LBE5480:
.LBB5497:
.LBB5498:
.LBB5499:
	.loc 1 665 0
	addi 28,29,4
.LBE5499:
.LBE5498:
.LBE5497:
.LBB5500:
.LBB5494:
.LBB5491:
.LBB5488:
.LBB5484:
.LBB5485:
.LBB5486:
.LBB5487:
	.loc 3 98 0
	bl _ZdlPv
.LBE5487:
.LBE5486:
.LBE5485:
.LBE5484:
.LBE5488:
.LBE5491:
.LBE5494:
.LBE5500:
.LBB5501:
	.loc 2 266 0
	lwz 30,12(29)
.LBE5501:
.LBB5502:
.LBB5495:
.LBB5492:
.LBB5489:
	.loc 1 1491 0
	lwz 9,68(29)
.LBE5489:
.LBE5492:
.LBE5495:
.LBE5502:
	.loc 2 231 0
	cmpw 7,30,28
.LBB5503:
.LBB5496:
.LBB5493:
.LBB5490:
	.loc 1 1491 0
	addi 0,9,-1
	stw 0,68(29)
.LVL582:
.LBE5490:
.LBE5493:
.LBE5496:
.LBE5503:
	.loc 2 231 0
	bne+ 7,.L356
	b .L341
.LVL583:
.L357:
.LBB5504:
.LBB5505:
	.loc 1 196 0
	mr 3,30
	bl _ZSt18_Rb_tree_incrementPSt18_Rb_tree_node_base
.LBE5505:
.LBE5504:
	.loc 2 231 0
	cmpw 7,3,28
.LBB5507:
.LBB5506:
	.loc 1 196 0
	mr 30,3
.LVL584:
.LBE5506:
.LBE5507:
	.loc 2 231 0
	beq- 7,.L341
.LVL585:
.L356:
	.loc 2 233 0
	lwz 3,20(30)
	cmpw 7,3,31
	bne+ 7,.L357
.LVL586:
	.loc 2 235 0
	cmpwi 7,3,0
	beq- 7,.L352
	.loc 2 235 0 is_stmt 0 discriminator 1
	lwz 9,0(3)
	lwz 0,4(9)
	mtctr 0
	bctrl
.LVL587:
.L352:
.LBB5508:
.LBB5509:
.LBB5510:
.LBB5511:
	.loc 1 1489 0 is_stmt 1
	mr 4,28
	mr 3,30
	bl _ZSt28_Rb_tree_rebalance_for_erasePSt18_Rb_tree_node_baseRS_
.LBB5512:
.LBB5513:
.LBB5514:
.LBB5515:
	.loc 3 98 0
	bl _ZdlPv
.LBE5515:
.LBE5514:
.LBE5513:
.LBE5512:
	.loc 1 1491 0
	lwz 9,20(29)
.LBE5511:
.LBE5510:
.LBE5509:
.LBE5508:
.LBE5479:
.LBE5526:
.LBE5531:
	.loc 2 241 0
	lwz 28,8(1)
.LVL588:
.LBB5532:
.LBB5527:
.LBB5524:
.LBB5522:
.LBB5520:
.LBB5518:
.LBB5516:
	.loc 1 1491 0
	addi 0,9,-1
.LBE5516:
.LBE5518:
.LBE5520:
.LBE5522:
.LBE5524:
.LBE5527:
.LBE5532:
	.loc 2 241 0
	lwz 30,16(1)
.LVL589:
.LBB5533:
.LBB5528:
.LBB5525:
.LBB5523:
.LBB5521:
.LBB5519:
.LBB5517:
	.loc 1 1491 0
	stw 0,20(29)
.LBE5517:
.LBE5519:
.LBE5521:
.LBE5523:
.LBE5525:
.LBE5528:
.LBE5533:
	.loc 2 241 0
	lwz 0,28(1)
	lwz 29,12(1)
.LVL590:
	mtlr 0
	lwz 31,20(1)
.LVL591:
	addi 1,1,24
	.cfi_restore 28
	.cfi_restore 29
	.cfi_restore 30
	.cfi_restore 31
.LCFI71:
	.cfi_def_cfa_offset 0
	blr
	.cfi_endproc
.LFE1571:
	.size	_ZN9Resources23InternalRemoveImageDataEP12GuiImageData, .-_ZN9Resources23InternalRemoveImageDataEP12GuiImageData
	.align 2
	.globl _ZN9Resources6RemoveEP12GuiImageData
	.type	_ZN9Resources6RemoveEP12GuiImageData, @function
_ZN9Resources6RemoveEP12GuiImageData:
.LFB1567:
	.loc 2 176 0
	.cfi_startproc
.LVL592:
	mflr 0
	stwu 1,-16(1)
.LCFI72:
	.cfi_def_cfa_offset 16
	.cfi_register 65, 0
	stw 31,12(1)
	mr 31,3
	.cfi_offset 31, -4
	stw 0,20(1)
	.loc 2 177 0
	.cfi_offset 65, 4
	bl _ZN9Resources8InstanceEv
.LVL593:
	.loc 2 178 0
	lwz 0,20(1)
	.loc 2 177 0
	mr 4,31
	.loc 2 178 0
	lwz 31,12(1)
.LVL594:
	mtlr 0
	addi 1,1,16
.LCFI73:
	.cfi_def_cfa_offset 0
	.cfi_restore 31
	.loc 2 177 0
	b _ZN9Resources23InternalRemoveImageDataEP12GuiImageData
.LVL595:
	.cfi_endproc
.LFE1567:
	.size	_ZN9Resources6RemoveEP12GuiImageData, .-_ZN9Resources6RemoveEP12GuiImageData
	.align 2
	.globl _ZN9Resources19InternalRemoveSoundEP8GuiSound
	.type	_ZN9Resources19InternalRemoveSoundEP8GuiSound, @function
_ZN9Resources19InternalRemoveSoundEP8GuiSound:
.LFB1572:
	.loc 2 244 0
	.cfi_startproc
.LVL596:
	mflr 0
	stwu 1,-24(1)
.LCFI74:
	.cfi_def_cfa_offset 24
	.cfi_register 65, 0
	stw 29,12(1)
	mr 29,3
	.cfi_offset 29, -12
.LVL597:
	stw 0,28(1)
	stw 31,20(1)
	mr 31,4
	.cfi_offset 31, -4
	.cfi_offset 65, 4
.LBB5534:
.LBB5535:
.LBB5536:
	.loc 2 266 0
	lwz 9,80(3)
.LVL598:
.LBE5536:
.LBE5535:
.LBE5534:
	.loc 2 244 0
	stw 28,8(1)
.LBB5602:
.LBB5549:
.LBB5547:
.LBB5537:
.LBB5538:
.LBB5539:
	.loc 1 1089 0
	cmpwi 7,9,0
.LBE5539:
.LBE5538:
.LBE5537:
.LBE5547:
.LBE5549:
.LBE5602:
	.loc 2 244 0
	stw 30,16(1)
.LBB5603:
.LBB5550:
.LBB5548:
.LBB5545:
.LBB5543:
.LBB5540:
	.loc 1 1089 0
	beq- 7,.L365
	.cfi_offset 30, -8
	.cfi_offset 28, -16
.LVL599:
.LBE5540:
.LBE5543:
.LBE5545:
	.loc 1 1536 0
	addi 4,3,76
.LVL600:
	mr 3,4
.LVL601:
	b .L369
.LVL602:
.L386:
.LBB5546:
.LBB5544:
	.loc 2 266 0
	mr 3,9
	.loc 1 1091 0
	lwz 9,8(9)
.LVL603:
.LBB5541:
	.loc 1 1089 0
	cmpwi 7,9,0
	beq- 7,.L385
.LVL604:
.L369:
	.loc 1 1090 0
	lwz 0,16(9)
	cmplw 7,0,31
	bge- 7,.L386
.LBE5541:
	.loc 2 266 0
	lwz 9,12(9)
.LVL605:
.LBB5542:
	.loc 1 1089 0
	cmpwi 7,9,0
	bne+ 7,.L369
.L385:
.LVL606:
.LBE5542:
.LBE5544:
	.loc 1 1539 0
	cmpw 7,4,3
	beq- 7,.L365
.LVL607:
	lwz 0,16(3)
	cmplw 7,0,31
	ble- 7,.L387
.LVL608:
.L365:
.LBE5546:
.LBE5548:
.LBE5550:
.LBE5603:
	.loc 2 266 0
	lwz 0,28(1)
	lwz 28,8(1)
	mtlr 0
	lwz 29,12(1)
.LVL609:
	lwz 30,16(1)
	lwz 31,20(1)
.LVL610:
	addi 1,1,24
	.cfi_remember_state
.LCFI75:
	.cfi_def_cfa_offset 0
	.cfi_restore 31
	.cfi_restore 30
	.cfi_restore 29
	.cfi_restore 28
	blr
.LVL611:
.L387:
.LCFI76:
	.cfi_restore_state
.LBB5604:
	.loc 2 249 0
	lwz 9,20(3)
.LVL612:
	addi 0,9,-1
.LBB5551:
	.loc 2 251 0
	cmpwi 7,0,0
.LBE5551:
	.loc 2 249 0
	stw 0,20(3)
.LVL613:
.LBB5599:
	.loc 2 251 0
	bne+ 7,.L365
.LVL614:
.LBB5552:
.LBB5553:
.LBB5554:
.LBB5555:
.LBB5556:
	.loc 1 1489 0
	bl _ZSt28_Rb_tree_rebalance_for_erasePSt18_Rb_tree_node_baseRS_
.LVL615:
.LBE5556:
.LBE5555:
.LBE5554:
.LBE5553:
.LBB5570:
.LBB5571:
.LBB5572:
	.loc 1 665 0
	addi 28,29,28
.LBE5572:
.LBE5571:
.LBE5570:
.LBB5573:
.LBB5567:
.LBB5564:
.LBB5561:
.LBB5557:
.LBB5558:
.LBB5559:
.LBB5560:
	.loc 3 98 0
	bl _ZdlPv
.LBE5560:
.LBE5559:
.LBE5558:
.LBE5557:
.LBE5561:
.LBE5564:
.LBE5567:
.LBE5573:
.LBB5574:
	.loc 2 266 0
	lwz 30,36(29)
.LBE5574:
.LBB5575:
.LBB5568:
.LBB5565:
.LBB5562:
	.loc 1 1491 0
	lwz 9,92(29)
.LBE5562:
.LBE5565:
.LBE5568:
.LBE5575:
	.loc 2 256 0
	cmpw 7,30,28
.LBB5576:
.LBB5569:
.LBB5566:
.LBB5563:
	.loc 1 1491 0
	addi 0,9,-1
	stw 0,92(29)
.LVL616:
.LBE5563:
.LBE5566:
.LBE5569:
.LBE5576:
	.loc 2 256 0
	bne+ 7,.L380
	b .L365
.LVL617:
.L381:
.LBB5577:
.LBB5578:
	.loc 1 196 0
	mr 3,30
	bl _ZSt18_Rb_tree_incrementPSt18_Rb_tree_node_base
.LBE5578:
.LBE5577:
	.loc 2 256 0
	cmpw 7,3,28
.LBB5580:
.LBB5579:
	.loc 1 196 0
	mr 30,3
.LVL618:
.LBE5579:
.LBE5580:
	.loc 2 256 0
	beq- 7,.L365
.LVL619:
.L380:
	.loc 2 258 0
	lwz 3,20(30)
	cmpw 7,3,31
	bne+ 7,.L381
.LVL620:
	.loc 2 260 0
	cmpwi 7,3,0
	beq- 7,.L376
	.loc 2 260 0 is_stmt 0 discriminator 1
	lwz 9,0(3)
	lwz 0,4(9)
	mtctr 0
	bctrl
.LVL621:
.L376:
.LBB5581:
.LBB5582:
.LBB5583:
.LBB5584:
	.loc 1 1489 0 is_stmt 1
	mr 4,28
	mr 3,30
	bl _ZSt28_Rb_tree_rebalance_for_erasePSt18_Rb_tree_node_baseRS_
.LBB5585:
.LBB5586:
.LBB5587:
.LBB5588:
	.loc 3 98 0
	bl _ZdlPv
.LBE5588:
.LBE5587:
.LBE5586:
.LBE5585:
	.loc 1 1491 0
	lwz 9,44(29)
.LBE5584:
.LBE5583:
.LBE5582:
.LBE5581:
.LBE5552:
.LBE5599:
.LBE5604:
	.loc 2 266 0
	lwz 28,8(1)
.LVL622:
.LBB5605:
.LBB5600:
.LBB5597:
.LBB5595:
.LBB5593:
.LBB5591:
.LBB5589:
	.loc 1 1491 0
	addi 0,9,-1
.LBE5589:
.LBE5591:
.LBE5593:
.LBE5595:
.LBE5597:
.LBE5600:
.LBE5605:
	.loc 2 266 0
	lwz 30,16(1)
.LVL623:
.LBB5606:
.LBB5601:
.LBB5598:
.LBB5596:
.LBB5594:
.LBB5592:
.LBB5590:
	.loc 1 1491 0
	stw 0,44(29)
.LBE5590:
.LBE5592:
.LBE5594:
.LBE5596:
.LBE5598:
.LBE5601:
.LBE5606:
	.loc 2 266 0
	lwz 0,28(1)
	lwz 29,12(1)
.LVL624:
	mtlr 0
	lwz 31,20(1)
.LVL625:
	addi 1,1,24
	.cfi_restore 28
	.cfi_restore 29
	.cfi_restore 30
	.cfi_restore 31
.LCFI77:
	.cfi_def_cfa_offset 0
	blr
	.cfi_endproc
.LFE1572:
	.size	_ZN9Resources19InternalRemoveSoundEP8GuiSound, .-_ZN9Resources19InternalRemoveSoundEP8GuiSound
	.align 2
	.globl _ZN9Resources6RemoveEP8GuiSound
	.type	_ZN9Resources6RemoveEP8GuiSound, @function
_ZN9Resources6RemoveEP8GuiSound:
.LFB1568:
	.loc 2 181 0
	.cfi_startproc
.LVL626:
	mflr 0
	stwu 1,-16(1)
.LCFI78:
	.cfi_def_cfa_offset 16
	.cfi_register 65, 0
	stw 31,12(1)
	mr 31,3
	.cfi_offset 31, -4
	stw 0,20(1)
	.loc 2 182 0
	.cfi_offset 65, 4
	bl _ZN9Resources8InstanceEv
.LVL627:
	.loc 2 183 0
	lwz 0,20(1)
	.loc 2 182 0
	mr 4,31
	.loc 2 183 0
	lwz 31,12(1)
.LVL628:
	mtlr 0
	addi 1,1,16
.LCFI79:
	.cfi_def_cfa_offset 0
	.cfi_restore 31
	.loc 2 182 0
	b _ZN9Resources19InternalRemoveSoundEP8GuiSound
.LVL629:
	.cfi_endproc
.LFE1568:
	.size	_ZN9Resources6RemoveEP8GuiSound, .-_ZN9Resources6RemoveEP8GuiSound
	.section	.text._ZNSt8_Rb_treeIPKhSt4pairIKS1_P12GuiImageDataESt10_Select1stIS6_ESt4lessIS1_ESaIS6_EE8_M_eraseEPSt13_Rb_tree_nodeIS6_E,"axG",@progbits,_ZNSt8_Rb_treeIPKhSt4pairIKS1_P12GuiImageDataESt10_Select1stIS6_ESt4lessIS1_ESaIS6_EE8_M_eraseEPSt13_Rb_tree_nodeIS6_E,comdat
	.align 2
	.weak	_ZNSt8_Rb_treeIPKhSt4pairIKS1_P12GuiImageDataESt10_Select1stIS6_ESt4lessIS1_ESaIS6_EE8_M_eraseEPSt13_Rb_tree_nodeIS6_E
	.type	_ZNSt8_Rb_treeIPKhSt4pairIKS1_P12GuiImageDataESt10_Select1stIS6_ESt4lessIS1_ESaIS6_EE8_M_eraseEPSt13_Rb_tree_nodeIS6_E, @function
_ZNSt8_Rb_treeIPKhSt4pairIKS1_P12GuiImageDataESt10_Select1stIS6_ESt4lessIS1_ESaIS6_EE8_M_eraseEPSt13_Rb_tree_nodeIS6_E:
.LFB1727:
	.loc 1 1068 0
	.cfi_startproc
.LVL630:
	stwu 1,-56(1)
.LCFI80:
	.cfi_def_cfa_offset 56
	mflr 0
	stw 22,16(1)
.LBB5753:
	.loc 1 1072 0
	mr. 22,4
	.cfi_offset 22, -40
	.cfi_register 65, 0
.LBE5753:
	.loc 1 1068 0
	stw 30,48(1)
	mr 30,3
	.cfi_offset 30, -8
	stw 0,60(1)
	stw 21,12(1)
	stw 23,20(1)
	stw 24,24(1)
	stw 25,28(1)
	stw 26,32(1)
	stw 27,36(1)
	stw 28,40(1)
	stw 29,44(1)
	stw 31,52(1)
.LBB5838:
	.loc 1 1072 0
	beq- 0,.L389
	.cfi_offset 31, -4
	.cfi_offset 29, -12
	.cfi_offset 28, -16
	.cfi_offset 27, -20
	.cfi_offset 26, -24
	.cfi_offset 25, -28
	.cfi_offset 24, -32
	.cfi_offset 23, -36
	.cfi_offset 21, -44
	.cfi_offset 65, 4
.LVL631:
.L444:
	.loc 2 266 0
	lwz 27,12(22)
.LVL632:
.LBB5754:
.LBB5755:
.LBB5756:
	.loc 1 1072 0
	cmpwi 7,27,0
	beq- 7,.L391
.LVL633:
.L445:
.LBE5756:
	.loc 2 266 0
	lwz 26,12(27)
.LVL634:
.LBB5832:
.LBB5757:
.LBB5758:
.LBB5759:
	.loc 1 1072 0
	cmpwi 7,26,0
	beq- 7,.L392
.LVL635:
.L446:
.LBE5759:
	.loc 2 266 0
	lwz 25,12(26)
.LVL636:
.LBB5825:
.LBB5760:
.LBB5761:
.LBB5762:
	.loc 1 1072 0
	cmpwi 7,25,0
	beq- 7,.L393
.LVL637:
.L447:
.LBE5762:
	.loc 2 266 0
	lwz 24,12(25)
.LVL638:
.LBB5818:
.LBB5763:
.LBB5764:
.LBB5765:
	.loc 1 1072 0
	cmpwi 7,24,0
	beq- 7,.L394
.LVL639:
.L448:
.LBE5765:
	.loc 2 266 0
	lwz 23,12(24)
.LVL640:
.LBB5811:
.LBB5766:
.LBB5767:
.LBB5768:
	.loc 1 1072 0
	cmpwi 7,23,0
	beq- 7,.L395
.LVL641:
.L449:
.LBE5768:
	.loc 2 266 0
	lwz 28,12(23)
.LVL642:
.LBB5804:
.LBB5769:
.LBB5770:
.LBB5771:
	.loc 1 1072 0
	cmpwi 7,28,0
	beq- 7,.L396
.LVL643:
.L450:
.LBE5771:
	.loc 2 266 0
	lwz 29,12(28)
.LVL644:
.LBB5797:
.LBB5772:
.LBB5773:
.LBB5774:
	.loc 1 1072 0
	cmpwi 7,29,0
	beq- 7,.L397
.LVL645:
.L451:
.LBE5774:
	.loc 2 266 0
	lwz 31,12(29)
.LVL646:
.LBB5790:
.LBB5775:
.LBB5776:
.LBB5777:
	.loc 1 1072 0
	cmpwi 7,31,0
	beq- 7,.L398
.LVL647:
.L452:
.LBB5778:
	.loc 1 1074 0
	lwz 4,12(31)
	mr 3,30
	bl _ZNSt8_Rb_treeIPKhSt4pairIKS1_P12GuiImageDataESt10_Select1stIS6_ESt4lessIS1_ESaIS6_EE8_M_eraseEPSt13_Rb_tree_nodeIS6_E
.LBE5778:
.LBE5777:
	.loc 2 266 0
	lwz 21,8(31)
.LVL648:
.LBB5784:
.LBB5783:
.LBB5779:
.LBB5780:
.LBB5781:
.LBB5782:
	.loc 3 98 0
	mr 3,31
	bl _ZdlPv
.LVL649:
.LBE5782:
.LBE5781:
.LBE5780:
.LBE5779:
.LBE5783:
	.loc 1 1072 0
	cmpwi 7,21,0
	.loc 1 1077 0
	mr 31,21
.LVL650:
	.loc 1 1072 0
	bne+ 7,.L452
.LVL651:
.L398:
.LBE5784:
.LBE5776:
.LBE5775:
.LBE5790:
	.loc 2 266 0
	lwz 31,8(29)
.LVL652:
.LBB5791:
.LBB5789:
.LBB5785:
.LBB5786:
.LBB5787:
.LBB5788:
	.loc 3 98 0
	mr 3,29
	bl _ZdlPv
.LVL653:
.LBE5788:
.LBE5787:
.LBE5786:
.LBE5785:
.LBE5789:
	.loc 1 1072 0
	cmpwi 7,31,0
	beq- 7,.L397
	.loc 1 1077 0
	mr 29,31
.LVL654:
	b .L451
.LVL655:
.L397:
.LBE5791:
.LBE5773:
.LBE5772:
.LBE5797:
	.loc 2 266 0
	lwz 31,8(28)
.LVL656:
.LBB5798:
.LBB5796:
.LBB5792:
.LBB5793:
.LBB5794:
.LBB5795:
	.loc 3 98 0
	mr 3,28
	bl _ZdlPv
.LVL657:
.LBE5795:
.LBE5794:
.LBE5793:
.LBE5792:
.LBE5796:
	.loc 1 1072 0
	cmpwi 7,31,0
	beq- 7,.L396
	.loc 1 1077 0
	mr 28,31
.LVL658:
	b .L450
.LVL659:
.L396:
.LBE5798:
.LBE5770:
.LBE5769:
.LBE5804:
	.loc 2 266 0
	lwz 31,8(23)
.LVL660:
.LBB5805:
.LBB5803:
.LBB5799:
.LBB5800:
.LBB5801:
.LBB5802:
	.loc 3 98 0
	mr 3,23
	bl _ZdlPv
.LVL661:
.LBE5802:
.LBE5801:
.LBE5800:
.LBE5799:
.LBE5803:
	.loc 1 1072 0
	cmpwi 7,31,0
	beq- 7,.L395
	.loc 1 1077 0
	mr 23,31
.LVL662:
	b .L449
.LVL663:
.L395:
.LBE5805:
.LBE5767:
.LBE5766:
.LBE5811:
	.loc 2 266 0
	lwz 31,8(24)
.LVL664:
.LBB5812:
.LBB5810:
.LBB5806:
.LBB5807:
.LBB5808:
.LBB5809:
	.loc 3 98 0
	mr 3,24
	bl _ZdlPv
.LVL665:
.LBE5809:
.LBE5808:
.LBE5807:
.LBE5806:
.LBE5810:
	.loc 1 1072 0
	cmpwi 7,31,0
	beq- 7,.L394
	.loc 1 1077 0
	mr 24,31
.LVL666:
	b .L448
.LVL667:
.L394:
.LBE5812:
.LBE5764:
.LBE5763:
.LBE5818:
	.loc 2 266 0
	lwz 31,8(25)
.LVL668:
.LBB5819:
.LBB5817:
.LBB5813:
.LBB5814:
.LBB5815:
.LBB5816:
	.loc 3 98 0
	mr 3,25
	bl _ZdlPv
.LVL669:
.LBE5816:
.LBE5815:
.LBE5814:
.LBE5813:
.LBE5817:
	.loc 1 1072 0
	cmpwi 7,31,0
	beq- 7,.L393
	.loc 1 1077 0
	mr 25,31
.LVL670:
	b .L447
.LVL671:
.L393:
.LBE5819:
.LBE5761:
.LBE5760:
.LBE5825:
	.loc 2 266 0
	lwz 31,8(26)
.LVL672:
.LBB5826:
.LBB5824:
.LBB5820:
.LBB5821:
.LBB5822:
.LBB5823:
	.loc 3 98 0
	mr 3,26
	bl _ZdlPv
.LVL673:
.LBE5823:
.LBE5822:
.LBE5821:
.LBE5820:
.LBE5824:
	.loc 1 1072 0
	cmpwi 7,31,0
	beq- 7,.L392
	.loc 1 1077 0
	mr 26,31
.LVL674:
	b .L446
.LVL675:
.L392:
.LBE5826:
.LBE5758:
.LBE5757:
.LBE5832:
	.loc 2 266 0
	lwz 31,8(27)
.LVL676:
.LBB5833:
.LBB5831:
.LBB5827:
.LBB5828:
.LBB5829:
.LBB5830:
	.loc 3 98 0
	mr 3,27
	bl _ZdlPv
.LVL677:
.LBE5830:
.LBE5829:
.LBE5828:
.LBE5827:
.LBE5831:
	.loc 1 1072 0
	cmpwi 7,31,0
	beq- 7,.L391
	.loc 1 1077 0
	mr 27,31
.LVL678:
	b .L445
.LVL679:
.L391:
	.loc 2 266 0
	lwz 31,8(22)
.LVL680:
.LBE5833:
.LBE5755:
.LBB5834:
.LBB5835:
.LBB5836:
.LBB5837:
	.loc 3 98 0
	mr 3,22
	bl _ZdlPv
.LVL681:
.LBE5837:
.LBE5836:
.LBE5835:
.LBE5834:
.LBE5754:
	.loc 1 1072 0
	cmpwi 7,31,0
	beq- 7,.L389
	.loc 1 1077 0
	mr 22,31
.LVL682:
	b .L444
.LVL683:
.L389:
.LBE5838:
	.loc 1 1079 0
	lwz 0,60(1)
	lwz 21,12(1)
	mtlr 0
	lwz 22,16(1)
	lwz 23,20(1)
	lwz 24,24(1)
	lwz 25,28(1)
	lwz 26,32(1)
	lwz 27,36(1)
	lwz 28,40(1)
	lwz 29,44(1)
	lwz 30,48(1)
.LVL684:
	lwz 31,52(1)
	addi 1,1,56
.LCFI81:
	.cfi_def_cfa_offset 0
	.cfi_restore 31
	.cfi_restore 30
	.cfi_restore 29
	.cfi_restore 28
	.cfi_restore 27
	.cfi_restore 26
	.cfi_restore 25
	.cfi_restore 24
	.cfi_restore 23
	.cfi_restore 22
	.cfi_restore 21
	blr
	.cfi_endproc
.LFE1727:
	.size	_ZNSt8_Rb_treeIPKhSt4pairIKS1_P12GuiImageDataESt10_Select1stIS6_ESt4lessIS1_ESaIS6_EE8_M_eraseEPSt13_Rb_tree_nodeIS6_E, .-_ZNSt8_Rb_treeIPKhSt4pairIKS1_P12GuiImageDataESt10_Select1stIS6_ESt4lessIS1_ESaIS6_EE8_M_eraseEPSt13_Rb_tree_nodeIS6_E
	.section	.text._ZNSt8_Rb_treeIPKhSt4pairIKS1_P8GuiSoundESt10_Select1stIS6_ESt4lessIS1_ESaIS6_EE8_M_eraseEPSt13_Rb_tree_nodeIS6_E,"axG",@progbits,_ZNSt8_Rb_treeIPKhSt4pairIKS1_P8GuiSoundESt10_Select1stIS6_ESt4lessIS1_ESaIS6_EE8_M_eraseEPSt13_Rb_tree_nodeIS6_E,comdat
	.align 2
	.weak	_ZNSt8_Rb_treeIPKhSt4pairIKS1_P8GuiSoundESt10_Select1stIS6_ESt4lessIS1_ESaIS6_EE8_M_eraseEPSt13_Rb_tree_nodeIS6_E
	.type	_ZNSt8_Rb_treeIPKhSt4pairIKS1_P8GuiSoundESt10_Select1stIS6_ESt4lessIS1_ESaIS6_EE8_M_eraseEPSt13_Rb_tree_nodeIS6_E, @function
_ZNSt8_Rb_treeIPKhSt4pairIKS1_P8GuiSoundESt10_Select1stIS6_ESt4lessIS1_ESaIS6_EE8_M_eraseEPSt13_Rb_tree_nodeIS6_E:
.LFB1735:
	.loc 1 1068 0
	.cfi_startproc
.LVL685:
	stwu 1,-56(1)
.LCFI82:
	.cfi_def_cfa_offset 56
	mflr 0
	stw 22,16(1)
.LBB5985:
	.loc 1 1072 0
	mr. 22,4
	.cfi_offset 22, -40
	.cfi_register 65, 0
.LBE5985:
	.loc 1 1068 0
	stw 30,48(1)
	mr 30,3
	.cfi_offset 30, -8
	stw 0,60(1)
	stw 21,12(1)
	stw 23,20(1)
	stw 24,24(1)
	stw 25,28(1)
	stw 26,32(1)
	stw 27,36(1)
	stw 28,40(1)
	stw 29,44(1)
	stw 31,52(1)
.LBB6070:
	.loc 1 1072 0
	beq- 0,.L453
	.cfi_offset 31, -4
	.cfi_offset 29, -12
	.cfi_offset 28, -16
	.cfi_offset 27, -20
	.cfi_offset 26, -24
	.cfi_offset 25, -28
	.cfi_offset 24, -32
	.cfi_offset 23, -36
	.cfi_offset 21, -44
	.cfi_offset 65, 4
.LVL686:
.L508:
	.loc 2 266 0
	lwz 27,12(22)
.LVL687:
.LBB5986:
.LBB5987:
.LBB5988:
	.loc 1 1072 0
	cmpwi 7,27,0
	beq- 7,.L455
.LVL688:
.L509:
.LBE5988:
	.loc 2 266 0
	lwz 26,12(27)
.LVL689:
.LBB6064:
.LBB5989:
.LBB5990:
.LBB5991:
	.loc 1 1072 0
	cmpwi 7,26,0
	beq- 7,.L456
.LVL690:
.L510:
.LBE5991:
	.loc 2 266 0
	lwz 25,12(26)
.LVL691:
.LBB6057:
.LBB5992:
.LBB5993:
.LBB5994:
	.loc 1 1072 0
	cmpwi 7,25,0
	beq- 7,.L457
.LVL692:
.L511:
.LBE5994:
	.loc 2 266 0
	lwz 24,12(25)
.LVL693:
.LBB6050:
.LBB5995:
.LBB5996:
.LBB5997:
	.loc 1 1072 0
	cmpwi 7,24,0
	beq- 7,.L458
.LVL694:
.L512:
.LBE5997:
	.loc 2 266 0
	lwz 23,12(24)
.LVL695:
.LBB6043:
.LBB5998:
.LBB5999:
.LBB6000:
	.loc 1 1072 0
	cmpwi 7,23,0
	beq- 7,.L459
.LVL696:
.L513:
.LBE6000:
	.loc 2 266 0
	lwz 28,12(23)
.LVL697:
.LBB6036:
.LBB6001:
.LBB6002:
.LBB6003:
	.loc 1 1072 0
	cmpwi 7,28,0
	beq- 7,.L460
.LVL698:
.L514:
.LBE6003:
	.loc 2 266 0
	lwz 29,12(28)
.LVL699:
.LBB6029:
.LBB6004:
.LBB6005:
.LBB6006:
	.loc 1 1072 0
	cmpwi 7,29,0
	beq- 7,.L461
.LVL700:
.L515:
.LBE6006:
	.loc 2 266 0
	lwz 31,12(29)
.LVL701:
.LBB6022:
.LBB6007:
.LBB6008:
.LBB6009:
	.loc 1 1072 0
	cmpwi 7,31,0
	beq- 7,.L462
.LVL702:
.L516:
.LBB6010:
	.loc 1 1074 0
	lwz 4,12(31)
	mr 3,30
	bl _ZNSt8_Rb_treeIPKhSt4pairIKS1_P8GuiSoundESt10_Select1stIS6_ESt4lessIS1_ESaIS6_EE8_M_eraseEPSt13_Rb_tree_nodeIS6_E
.LBE6010:
.LBE6009:
	.loc 2 266 0
	lwz 21,8(31)
.LVL703:
.LBB6016:
.LBB6015:
.LBB6011:
.LBB6012:
.LBB6013:
.LBB6014:
	.loc 3 98 0
	mr 3,31
	bl _ZdlPv
.LVL704:
.LBE6014:
.LBE6013:
.LBE6012:
.LBE6011:
.LBE6015:
	.loc 1 1072 0
	cmpwi 7,21,0
	.loc 1 1077 0
	mr 31,21
.LVL705:
	.loc 1 1072 0
	bne+ 7,.L516
.LVL706:
.L462:
.LBE6016:
.LBE6008:
.LBE6007:
.LBE6022:
	.loc 2 266 0
	lwz 31,8(29)
.LVL707:
.LBB6023:
.LBB6021:
.LBB6017:
.LBB6018:
.LBB6019:
.LBB6020:
	.loc 3 98 0
	mr 3,29
	bl _ZdlPv
.LVL708:
.LBE6020:
.LBE6019:
.LBE6018:
.LBE6017:
.LBE6021:
	.loc 1 1072 0
	cmpwi 7,31,0
	beq- 7,.L461
	.loc 1 1077 0
	mr 29,31
.LVL709:
	b .L515
.LVL710:
.L461:
.LBE6023:
.LBE6005:
.LBE6004:
.LBE6029:
	.loc 2 266 0
	lwz 31,8(28)
.LVL711:
.LBB6030:
.LBB6028:
.LBB6024:
.LBB6025:
.LBB6026:
.LBB6027:
	.loc 3 98 0
	mr 3,28
	bl _ZdlPv
.LVL712:
.LBE6027:
.LBE6026:
.LBE6025:
.LBE6024:
.LBE6028:
	.loc 1 1072 0
	cmpwi 7,31,0
	beq- 7,.L460
	.loc 1 1077 0
	mr 28,31
.LVL713:
	b .L514
.LVL714:
.L460:
.LBE6030:
.LBE6002:
.LBE6001:
.LBE6036:
	.loc 2 266 0
	lwz 31,8(23)
.LVL715:
.LBB6037:
.LBB6035:
.LBB6031:
.LBB6032:
.LBB6033:
.LBB6034:
	.loc 3 98 0
	mr 3,23
	bl _ZdlPv
.LVL716:
.LBE6034:
.LBE6033:
.LBE6032:
.LBE6031:
.LBE6035:
	.loc 1 1072 0
	cmpwi 7,31,0
	beq- 7,.L459
	.loc 1 1077 0
	mr 23,31
.LVL717:
	b .L513
.LVL718:
.L459:
.LBE6037:
.LBE5999:
.LBE5998:
.LBE6043:
	.loc 2 266 0
	lwz 31,8(24)
.LVL719:
.LBB6044:
.LBB6042:
.LBB6038:
.LBB6039:
.LBB6040:
.LBB6041:
	.loc 3 98 0
	mr 3,24
	bl _ZdlPv
.LVL720:
.LBE6041:
.LBE6040:
.LBE6039:
.LBE6038:
.LBE6042:
	.loc 1 1072 0
	cmpwi 7,31,0
	beq- 7,.L458
	.loc 1 1077 0
	mr 24,31
.LVL721:
	b .L512
.LVL722:
.L458:
.LBE6044:
.LBE5996:
.LBE5995:
.LBE6050:
	.loc 2 266 0
	lwz 31,8(25)
.LVL723:
.LBB6051:
.LBB6049:
.LBB6045:
.LBB6046:
.LBB6047:
.LBB6048:
	.loc 3 98 0
	mr 3,25
	bl _ZdlPv
.LVL724:
.LBE6048:
.LBE6047:
.LBE6046:
.LBE6045:
.LBE6049:
	.loc 1 1072 0
	cmpwi 7,31,0
	beq- 7,.L457
	.loc 1 1077 0
	mr 25,31
.LVL725:
	b .L511
.LVL726:
.L457:
.LBE6051:
.LBE5993:
.LBE5992:
.LBE6057:
	.loc 2 266 0
	lwz 31,8(26)
.LVL727:
.LBB6058:
.LBB6056:
.LBB6052:
.LBB6053:
.LBB6054:
.LBB6055:
	.loc 3 98 0
	mr 3,26
	bl _ZdlPv
.LVL728:
.LBE6055:
.LBE6054:
.LBE6053:
.LBE6052:
.LBE6056:
	.loc 1 1072 0
	cmpwi 7,31,0
	beq- 7,.L456
	.loc 1 1077 0
	mr 26,31
.LVL729:
	b .L510
.LVL730:
.L456:
.LBE6058:
.LBE5990:
.LBE5989:
.LBE6064:
	.loc 2 266 0
	lwz 31,8(27)
.LVL731:
.LBB6065:
.LBB6063:
.LBB6059:
.LBB6060:
.LBB6061:
.LBB6062:
	.loc 3 98 0
	mr 3,27
	bl _ZdlPv
.LVL732:
.LBE6062:
.LBE6061:
.LBE6060:
.LBE6059:
.LBE6063:
	.loc 1 1072 0
	cmpwi 7,31,0
	beq- 7,.L455
	.loc 1 1077 0
	mr 27,31
.LVL733:
	b .L509
.LVL734:
.L455:
	.loc 2 266 0
	lwz 31,8(22)
.LVL735:
.LBE6065:
.LBE5987:
.LBB6066:
.LBB6067:
.LBB6068:
.LBB6069:
	.loc 3 98 0
	mr 3,22
	bl _ZdlPv
.LVL736:
.LBE6069:
.LBE6068:
.LBE6067:
.LBE6066:
.LBE5986:
	.loc 1 1072 0
	cmpwi 7,31,0
	beq- 7,.L453
	.loc 1 1077 0
	mr 22,31
.LVL737:
	b .L508
.LVL738:
.L453:
.LBE6070:
	.loc 1 1079 0
	lwz 0,60(1)
	lwz 21,12(1)
	mtlr 0
	lwz 22,16(1)
	lwz 23,20(1)
	lwz 24,24(1)
	lwz 25,28(1)
	lwz 26,32(1)
	lwz 27,36(1)
	lwz 28,40(1)
	lwz 29,44(1)
	lwz 30,48(1)
.LVL739:
	lwz 31,52(1)
	addi 1,1,56
.LCFI83:
	.cfi_def_cfa_offset 0
	.cfi_restore 31
	.cfi_restore 30
	.cfi_restore 29
	.cfi_restore 28
	.cfi_restore 27
	.cfi_restore 26
	.cfi_restore 25
	.cfi_restore 24
	.cfi_restore 23
	.cfi_restore 22
	.cfi_restore 21
	blr
	.cfi_endproc
.LFE1735:
	.size	_ZNSt8_Rb_treeIPKhSt4pairIKS1_P8GuiSoundESt10_Select1stIS6_ESt4lessIS1_ESaIS6_EE8_M_eraseEPSt13_Rb_tree_nodeIS6_E, .-_ZNSt8_Rb_treeIPKhSt4pairIKS1_P8GuiSoundESt10_Select1stIS6_ESt4lessIS1_ESaIS6_EE8_M_eraseEPSt13_Rb_tree_nodeIS6_E
	.section	.text._ZNSt8_Rb_treeIP12GuiImageDataSt4pairIKS1_iESt10_Select1stIS4_ESt4lessIS1_ESaIS4_EE8_M_eraseEPSt13_Rb_tree_nodeIS4_E,"axG",@progbits,_ZNSt8_Rb_treeIP12GuiImageDataSt4pairIKS1_iESt10_Select1stIS4_ESt4lessIS1_ESaIS4_EE8_M_eraseEPSt13_Rb_tree_nodeIS4_E,comdat
	.align 2
	.weak	_ZNSt8_Rb_treeIP12GuiImageDataSt4pairIKS1_iESt10_Select1stIS4_ESt4lessIS1_ESaIS4_EE8_M_eraseEPSt13_Rb_tree_nodeIS4_E
	.type	_ZNSt8_Rb_treeIP12GuiImageDataSt4pairIKS1_iESt10_Select1stIS4_ESt4lessIS1_ESaIS4_EE8_M_eraseEPSt13_Rb_tree_nodeIS4_E, @function
_ZNSt8_Rb_treeIP12GuiImageDataSt4pairIKS1_iESt10_Select1stIS4_ESt4lessIS1_ESaIS4_EE8_M_eraseEPSt13_Rb_tree_nodeIS4_E:
.LFB1743:
	.loc 1 1068 0
	.cfi_startproc
.LVL740:
	stwu 1,-56(1)
.LCFI84:
	.cfi_def_cfa_offset 56
	mflr 0
	stw 22,16(1)
.LBB6217:
	.loc 1 1072 0
	mr. 22,4
	.cfi_offset 22, -40
	.cfi_register 65, 0
.LBE6217:
	.loc 1 1068 0
	stw 30,48(1)
	mr 30,3
	.cfi_offset 30, -8
	stw 0,60(1)
	stw 21,12(1)
	stw 23,20(1)
	stw 24,24(1)
	stw 25,28(1)
	stw 26,32(1)
	stw 27,36(1)
	stw 28,40(1)
	stw 29,44(1)
	stw 31,52(1)
.LBB6302:
	.loc 1 1072 0
	beq- 0,.L517
	.cfi_offset 31, -4
	.cfi_offset 29, -12
	.cfi_offset 28, -16
	.cfi_offset 27, -20
	.cfi_offset 26, -24
	.cfi_offset 25, -28
	.cfi_offset 24, -32
	.cfi_offset 23, -36
	.cfi_offset 21, -44
	.cfi_offset 65, 4
.LVL741:
.L572:
	.loc 2 266 0
	lwz 27,12(22)
.LVL742:
.LBB6218:
.LBB6219:
.LBB6220:
	.loc 1 1072 0
	cmpwi 7,27,0
	beq- 7,.L519
.LVL743:
.L573:
.LBE6220:
	.loc 2 266 0
	lwz 26,12(27)
.LVL744:
.LBB6296:
.LBB6221:
.LBB6222:
.LBB6223:
	.loc 1 1072 0
	cmpwi 7,26,0
	beq- 7,.L520
.LVL745:
.L574:
.LBE6223:
	.loc 2 266 0
	lwz 25,12(26)
.LVL746:
.LBB6289:
.LBB6224:
.LBB6225:
.LBB6226:
	.loc 1 1072 0
	cmpwi 7,25,0
	beq- 7,.L521
.LVL747:
.L575:
.LBE6226:
	.loc 2 266 0
	lwz 24,12(25)
.LVL748:
.LBB6282:
.LBB6227:
.LBB6228:
.LBB6229:
	.loc 1 1072 0
	cmpwi 7,24,0
	beq- 7,.L522
.LVL749:
.L576:
.LBE6229:
	.loc 2 266 0
	lwz 23,12(24)
.LVL750:
.LBB6275:
.LBB6230:
.LBB6231:
.LBB6232:
	.loc 1 1072 0
	cmpwi 7,23,0
	beq- 7,.L523
.LVL751:
.L577:
.LBE6232:
	.loc 2 266 0
	lwz 28,12(23)
.LVL752:
.LBB6268:
.LBB6233:
.LBB6234:
.LBB6235:
	.loc 1 1072 0
	cmpwi 7,28,0
	beq- 7,.L524
.LVL753:
.L578:
.LBE6235:
	.loc 2 266 0
	lwz 29,12(28)
.LVL754:
.LBB6261:
.LBB6236:
.LBB6237:
.LBB6238:
	.loc 1 1072 0
	cmpwi 7,29,0
	beq- 7,.L525
.LVL755:
.L579:
.LBE6238:
	.loc 2 266 0
	lwz 31,12(29)
.LVL756:
.LBB6254:
.LBB6239:
.LBB6240:
.LBB6241:
	.loc 1 1072 0
	cmpwi 7,31,0
	beq- 7,.L526
.LVL757:
.L580:
.LBB6242:
	.loc 1 1074 0
	lwz 4,12(31)
	mr 3,30
	bl _ZNSt8_Rb_treeIP12GuiImageDataSt4pairIKS1_iESt10_Select1stIS4_ESt4lessIS1_ESaIS4_EE8_M_eraseEPSt13_Rb_tree_nodeIS4_E
.LBE6242:
.LBE6241:
	.loc 2 266 0
	lwz 21,8(31)
.LVL758:
.LBB6248:
.LBB6247:
.LBB6243:
.LBB6244:
.LBB6245:
.LBB6246:
	.loc 3 98 0
	mr 3,31
	bl _ZdlPv
.LVL759:
.LBE6246:
.LBE6245:
.LBE6244:
.LBE6243:
.LBE6247:
	.loc 1 1072 0
	cmpwi 7,21,0
	.loc 1 1077 0
	mr 31,21
.LVL760:
	.loc 1 1072 0
	bne+ 7,.L580
.LVL761:
.L526:
.LBE6248:
.LBE6240:
.LBE6239:
.LBE6254:
	.loc 2 266 0
	lwz 31,8(29)
.LVL762:
.LBB6255:
.LBB6253:
.LBB6249:
.LBB6250:
.LBB6251:
.LBB6252:
	.loc 3 98 0
	mr 3,29
	bl _ZdlPv
.LVL763:
.LBE6252:
.LBE6251:
.LBE6250:
.LBE6249:
.LBE6253:
	.loc 1 1072 0
	cmpwi 7,31,0
	beq- 7,.L525
	.loc 1 1077 0
	mr 29,31
.LVL764:
	b .L579
.LVL765:
.L525:
.LBE6255:
.LBE6237:
.LBE6236:
.LBE6261:
	.loc 2 266 0
	lwz 31,8(28)
.LVL766:
.LBB6262:
.LBB6260:
.LBB6256:
.LBB6257:
.LBB6258:
.LBB6259:
	.loc 3 98 0
	mr 3,28
	bl _ZdlPv
.LVL767:
.LBE6259:
.LBE6258:
.LBE6257:
.LBE6256:
.LBE6260:
	.loc 1 1072 0
	cmpwi 7,31,0
	beq- 7,.L524
	.loc 1 1077 0
	mr 28,31
.LVL768:
	b .L578
.LVL769:
.L524:
.LBE6262:
.LBE6234:
.LBE6233:
.LBE6268:
	.loc 2 266 0
	lwz 31,8(23)
.LVL770:
.LBB6269:
.LBB6267:
.LBB6263:
.LBB6264:
.LBB6265:
.LBB6266:
	.loc 3 98 0
	mr 3,23
	bl _ZdlPv
.LVL771:
.LBE6266:
.LBE6265:
.LBE6264:
.LBE6263:
.LBE6267:
	.loc 1 1072 0
	cmpwi 7,31,0
	beq- 7,.L523
	.loc 1 1077 0
	mr 23,31
.LVL772:
	b .L577
.LVL773:
.L523:
.LBE6269:
.LBE6231:
.LBE6230:
.LBE6275:
	.loc 2 266 0
	lwz 31,8(24)
.LVL774:
.LBB6276:
.LBB6274:
.LBB6270:
.LBB6271:
.LBB6272:
.LBB6273:
	.loc 3 98 0
	mr 3,24
	bl _ZdlPv
.LVL775:
.LBE6273:
.LBE6272:
.LBE6271:
.LBE6270:
.LBE6274:
	.loc 1 1072 0
	cmpwi 7,31,0
	beq- 7,.L522
	.loc 1 1077 0
	mr 24,31
.LVL776:
	b .L576
.LVL777:
.L522:
.LBE6276:
.LBE6228:
.LBE6227:
.LBE6282:
	.loc 2 266 0
	lwz 31,8(25)
.LVL778:
.LBB6283:
.LBB6281:
.LBB6277:
.LBB6278:
.LBB6279:
.LBB6280:
	.loc 3 98 0
	mr 3,25
	bl _ZdlPv
.LVL779:
.LBE6280:
.LBE6279:
.LBE6278:
.LBE6277:
.LBE6281:
	.loc 1 1072 0
	cmpwi 7,31,0
	beq- 7,.L521
	.loc 1 1077 0
	mr 25,31
.LVL780:
	b .L575
.LVL781:
.L521:
.LBE6283:
.LBE6225:
.LBE6224:
.LBE6289:
	.loc 2 266 0
	lwz 31,8(26)
.LVL782:
.LBB6290:
.LBB6288:
.LBB6284:
.LBB6285:
.LBB6286:
.LBB6287:
	.loc 3 98 0
	mr 3,26
	bl _ZdlPv
.LVL783:
.LBE6287:
.LBE6286:
.LBE6285:
.LBE6284:
.LBE6288:
	.loc 1 1072 0
	cmpwi 7,31,0
	beq- 7,.L520
	.loc 1 1077 0
	mr 26,31
.LVL784:
	b .L574
.LVL785:
.L520:
.LBE6290:
.LBE6222:
.LBE6221:
.LBE6296:
	.loc 2 266 0
	lwz 31,8(27)
.LVL786:
.LBB6297:
.LBB6295:
.LBB6291:
.LBB6292:
.LBB6293:
.LBB6294:
	.loc 3 98 0
	mr 3,27
	bl _ZdlPv
.LVL787:
.LBE6294:
.LBE6293:
.LBE6292:
.LBE6291:
.LBE6295:
	.loc 1 1072 0
	cmpwi 7,31,0
	beq- 7,.L519
	.loc 1 1077 0
	mr 27,31
.LVL788:
	b .L573
.LVL789:
.L519:
	.loc 2 266 0
	lwz 31,8(22)
.LVL790:
.LBE6297:
.LBE6219:
.LBB6298:
.LBB6299:
.LBB6300:
.LBB6301:
	.loc 3 98 0
	mr 3,22
	bl _ZdlPv
.LVL791:
.LBE6301:
.LBE6300:
.LBE6299:
.LBE6298:
.LBE6218:
	.loc 1 1072 0
	cmpwi 7,31,0
	beq- 7,.L517
	.loc 1 1077 0
	mr 22,31
.LVL792:
	b .L572
.LVL793:
.L517:
.LBE6302:
	.loc 1 1079 0
	lwz 0,60(1)
	lwz 21,12(1)
	mtlr 0
	lwz 22,16(1)
	lwz 23,20(1)
	lwz 24,24(1)
	lwz 25,28(1)
	lwz 26,32(1)
	lwz 27,36(1)
	lwz 28,40(1)
	lwz 29,44(1)
	lwz 30,48(1)
.LVL794:
	lwz 31,52(1)
	addi 1,1,56
.LCFI85:
	.cfi_def_cfa_offset 0
	.cfi_restore 31
	.cfi_restore 30
	.cfi_restore 29
	.cfi_restore 28
	.cfi_restore 27
	.cfi_restore 26
	.cfi_restore 25
	.cfi_restore 24
	.cfi_restore 23
	.cfi_restore 22
	.cfi_restore 21
	blr
	.cfi_endproc
.LFE1743:
	.size	_ZNSt8_Rb_treeIP12GuiImageDataSt4pairIKS1_iESt10_Select1stIS4_ESt4lessIS1_ESaIS4_EE8_M_eraseEPSt13_Rb_tree_nodeIS4_E, .-_ZNSt8_Rb_treeIP12GuiImageDataSt4pairIKS1_iESt10_Select1stIS4_ESt4lessIS1_ESaIS4_EE8_M_eraseEPSt13_Rb_tree_nodeIS4_E
	.section	.text._ZNSt8_Rb_treeIP8GuiSoundSt4pairIKS1_iESt10_Select1stIS4_ESt4lessIS1_ESaIS4_EE8_M_eraseEPSt13_Rb_tree_nodeIS4_E,"axG",@progbits,_ZNSt8_Rb_treeIP8GuiSoundSt4pairIKS1_iESt10_Select1stIS4_ESt4lessIS1_ESaIS4_EE8_M_eraseEPSt13_Rb_tree_nodeIS4_E,comdat
	.align 2
	.weak	_ZNSt8_Rb_treeIP8GuiSoundSt4pairIKS1_iESt10_Select1stIS4_ESt4lessIS1_ESaIS4_EE8_M_eraseEPSt13_Rb_tree_nodeIS4_E
	.type	_ZNSt8_Rb_treeIP8GuiSoundSt4pairIKS1_iESt10_Select1stIS4_ESt4lessIS1_ESaIS4_EE8_M_eraseEPSt13_Rb_tree_nodeIS4_E, @function
_ZNSt8_Rb_treeIP8GuiSoundSt4pairIKS1_iESt10_Select1stIS4_ESt4lessIS1_ESaIS4_EE8_M_eraseEPSt13_Rb_tree_nodeIS4_E:
.LFB1751:
	.loc 1 1068 0
	.cfi_startproc
.LVL795:
	stwu 1,-56(1)
.LCFI86:
	.cfi_def_cfa_offset 56
	mflr 0
	stw 22,16(1)
.LBB6449:
	.loc 1 1072 0
	mr. 22,4
	.cfi_offset 22, -40
	.cfi_register 65, 0
.LBE6449:
	.loc 1 1068 0
	stw 30,48(1)
	mr 30,3
	.cfi_offset 30, -8
	stw 0,60(1)
	stw 21,12(1)
	stw 23,20(1)
	stw 24,24(1)
	stw 25,28(1)
	stw 26,32(1)
	stw 27,36(1)
	stw 28,40(1)
	stw 29,44(1)
	stw 31,52(1)
.LBB6534:
	.loc 1 1072 0
	beq- 0,.L581
	.cfi_offset 31, -4
	.cfi_offset 29, -12
	.cfi_offset 28, -16
	.cfi_offset 27, -20
	.cfi_offset 26, -24
	.cfi_offset 25, -28
	.cfi_offset 24, -32
	.cfi_offset 23, -36
	.cfi_offset 21, -44
	.cfi_offset 65, 4
.LVL796:
.L636:
	.loc 2 266 0
	lwz 27,12(22)
.LVL797:
.LBB6450:
.LBB6451:
.LBB6452:
	.loc 1 1072 0
	cmpwi 7,27,0
	beq- 7,.L583
.LVL798:
.L637:
.LBE6452:
	.loc 2 266 0
	lwz 26,12(27)
.LVL799:
.LBB6528:
.LBB6453:
.LBB6454:
.LBB6455:
	.loc 1 1072 0
	cmpwi 7,26,0
	beq- 7,.L584
.LVL800:
.L638:
.LBE6455:
	.loc 2 266 0
	lwz 25,12(26)
.LVL801:
.LBB6521:
.LBB6456:
.LBB6457:
.LBB6458:
	.loc 1 1072 0
	cmpwi 7,25,0
	beq- 7,.L585
.LVL802:
.L639:
.LBE6458:
	.loc 2 266 0
	lwz 24,12(25)
.LVL803:
.LBB6514:
.LBB6459:
.LBB6460:
.LBB6461:
	.loc 1 1072 0
	cmpwi 7,24,0
	beq- 7,.L586
.LVL804:
.L640:
.LBE6461:
	.loc 2 266 0
	lwz 23,12(24)
.LVL805:
.LBB6507:
.LBB6462:
.LBB6463:
.LBB6464:
	.loc 1 1072 0
	cmpwi 7,23,0
	beq- 7,.L587
.LVL806:
.L641:
.LBE6464:
	.loc 2 266 0
	lwz 28,12(23)
.LVL807:
.LBB6500:
.LBB6465:
.LBB6466:
.LBB6467:
	.loc 1 1072 0
	cmpwi 7,28,0
	beq- 7,.L588
.LVL808:
.L642:
.LBE6467:
	.loc 2 266 0
	lwz 29,12(28)
.LVL809:
.LBB6493:
.LBB6468:
.LBB6469:
.LBB6470:
	.loc 1 1072 0
	cmpwi 7,29,0
	beq- 7,.L589
.LVL810:
.L643:
.LBE6470:
	.loc 2 266 0
	lwz 31,12(29)
.LVL811:
.LBB6486:
.LBB6471:
.LBB6472:
.LBB6473:
	.loc 1 1072 0
	cmpwi 7,31,0
	beq- 7,.L590
.LVL812:
.L644:
.LBB6474:
	.loc 1 1074 0
	lwz 4,12(31)
	mr 3,30
	bl _ZNSt8_Rb_treeIP8GuiSoundSt4pairIKS1_iESt10_Select1stIS4_ESt4lessIS1_ESaIS4_EE8_M_eraseEPSt13_Rb_tree_nodeIS4_E
.LBE6474:
.LBE6473:
	.loc 2 266 0
	lwz 21,8(31)
.LVL813:
.LBB6480:
.LBB6479:
.LBB6475:
.LBB6476:
.LBB6477:
.LBB6478:
	.loc 3 98 0
	mr 3,31
	bl _ZdlPv
.LVL814:
.LBE6478:
.LBE6477:
.LBE6476:
.LBE6475:
.LBE6479:
	.loc 1 1072 0
	cmpwi 7,21,0
	.loc 1 1077 0
	mr 31,21
.LVL815:
	.loc 1 1072 0
	bne+ 7,.L644
.LVL816:
.L590:
.LBE6480:
.LBE6472:
.LBE6471:
.LBE6486:
	.loc 2 266 0
	lwz 31,8(29)
.LVL817:
.LBB6487:
.LBB6485:
.LBB6481:
.LBB6482:
.LBB6483:
.LBB6484:
	.loc 3 98 0
	mr 3,29
	bl _ZdlPv
.LVL818:
.LBE6484:
.LBE6483:
.LBE6482:
.LBE6481:
.LBE6485:
	.loc 1 1072 0
	cmpwi 7,31,0
	beq- 7,.L589
	.loc 1 1077 0
	mr 29,31
.LVL819:
	b .L643
.LVL820:
.L589:
.LBE6487:
.LBE6469:
.LBE6468:
.LBE6493:
	.loc 2 266 0
	lwz 31,8(28)
.LVL821:
.LBB6494:
.LBB6492:
.LBB6488:
.LBB6489:
.LBB6490:
.LBB6491:
	.loc 3 98 0
	mr 3,28
	bl _ZdlPv
.LVL822:
.LBE6491:
.LBE6490:
.LBE6489:
.LBE6488:
.LBE6492:
	.loc 1 1072 0
	cmpwi 7,31,0
	beq- 7,.L588
	.loc 1 1077 0
	mr 28,31
.LVL823:
	b .L642
.LVL824:
.L588:
.LBE6494:
.LBE6466:
.LBE6465:
.LBE6500:
	.loc 2 266 0
	lwz 31,8(23)
.LVL825:
.LBB6501:
.LBB6499:
.LBB6495:
.LBB6496:
.LBB6497:
.LBB6498:
	.loc 3 98 0
	mr 3,23
	bl _ZdlPv
.LVL826:
.LBE6498:
.LBE6497:
.LBE6496:
.LBE6495:
.LBE6499:
	.loc 1 1072 0
	cmpwi 7,31,0
	beq- 7,.L587
	.loc 1 1077 0
	mr 23,31
.LVL827:
	b .L641
.LVL828:
.L587:
.LBE6501:
.LBE6463:
.LBE6462:
.LBE6507:
	.loc 2 266 0
	lwz 31,8(24)
.LVL829:
.LBB6508:
.LBB6506:
.LBB6502:
.LBB6503:
.LBB6504:
.LBB6505:
	.loc 3 98 0
	mr 3,24
	bl _ZdlPv
.LVL830:
.LBE6505:
.LBE6504:
.LBE6503:
.LBE6502:
.LBE6506:
	.loc 1 1072 0
	cmpwi 7,31,0
	beq- 7,.L586
	.loc 1 1077 0
	mr 24,31
.LVL831:
	b .L640
.LVL832:
.L586:
.LBE6508:
.LBE6460:
.LBE6459:
.LBE6514:
	.loc 2 266 0
	lwz 31,8(25)
.LVL833:
.LBB6515:
.LBB6513:
.LBB6509:
.LBB6510:
.LBB6511:
.LBB6512:
	.loc 3 98 0
	mr 3,25
	bl _ZdlPv
.LVL834:
.LBE6512:
.LBE6511:
.LBE6510:
.LBE6509:
.LBE6513:
	.loc 1 1072 0
	cmpwi 7,31,0
	beq- 7,.L585
	.loc 1 1077 0
	mr 25,31
.LVL835:
	b .L639
.LVL836:
.L585:
.LBE6515:
.LBE6457:
.LBE6456:
.LBE6521:
	.loc 2 266 0
	lwz 31,8(26)
.LVL837:
.LBB6522:
.LBB6520:
.LBB6516:
.LBB6517:
.LBB6518:
.LBB6519:
	.loc 3 98 0
	mr 3,26
	bl _ZdlPv
.LVL838:
.LBE6519:
.LBE6518:
.LBE6517:
.LBE6516:
.LBE6520:
	.loc 1 1072 0
	cmpwi 7,31,0
	beq- 7,.L584
	.loc 1 1077 0
	mr 26,31
.LVL839:
	b .L638
.LVL840:
.L584:
.LBE6522:
.LBE6454:
.LBE6453:
.LBE6528:
	.loc 2 266 0
	lwz 31,8(27)
.LVL841:
.LBB6529:
.LBB6527:
.LBB6523:
.LBB6524:
.LBB6525:
.LBB6526:
	.loc 3 98 0
	mr 3,27
	bl _ZdlPv
.LVL842:
.LBE6526:
.LBE6525:
.LBE6524:
.LBE6523:
.LBE6527:
	.loc 1 1072 0
	cmpwi 7,31,0
	beq- 7,.L583
	.loc 1 1077 0
	mr 27,31
.LVL843:
	b .L637
.LVL844:
.L583:
	.loc 2 266 0
	lwz 31,8(22)
.LVL845:
.LBE6529:
.LBE6451:
.LBB6530:
.LBB6531:
.LBB6532:
.LBB6533:
	.loc 3 98 0
	mr 3,22
	bl _ZdlPv
.LVL846:
.LBE6533:
.LBE6532:
.LBE6531:
.LBE6530:
.LBE6450:
	.loc 1 1072 0
	cmpwi 7,31,0
	beq- 7,.L581
	.loc 1 1077 0
	mr 22,31
.LVL847:
	b .L636
.LVL848:
.L581:
.LBE6534:
	.loc 1 1079 0
	lwz 0,60(1)
	lwz 21,12(1)
	mtlr 0
	lwz 22,16(1)
	lwz 23,20(1)
	lwz 24,24(1)
	lwz 25,28(1)
	lwz 26,32(1)
	lwz 27,36(1)
	lwz 28,40(1)
	lwz 29,44(1)
	lwz 30,48(1)
.LVL849:
	lwz 31,52(1)
	addi 1,1,56
.LCFI87:
	.cfi_def_cfa_offset 0
	.cfi_restore 31
	.cfi_restore 30
	.cfi_restore 29
	.cfi_restore 28
	.cfi_restore 27
	.cfi_restore 26
	.cfi_restore 25
	.cfi_restore 24
	.cfi_restore 23
	.cfi_restore 22
	.cfi_restore 21
	blr
	.cfi_endproc
.LFE1751:
	.size	_ZNSt8_Rb_treeIP8GuiSoundSt4pairIKS1_iESt10_Select1stIS4_ESt4lessIS1_ESaIS4_EE8_M_eraseEPSt13_Rb_tree_nodeIS4_E, .-_ZNSt8_Rb_treeIP8GuiSoundSt4pairIKS1_iESt10_Select1stIS4_ESt4lessIS1_ESaIS4_EE8_M_eraseEPSt13_Rb_tree_nodeIS4_E
	.section	".text"
	.align 2
	.globl _ZN9Resources5ClearEv
	.type	_ZN9Resources5ClearEv, @function
_ZN9Resources5ClearEv:
.LFB1561:
	.loc 2 58 0
	.cfi_startproc
.LVL850:
	mflr 0
	stwu 1,-16(1)
.LCFI88:
	.cfi_def_cfa_offset 16
	.cfi_register 65, 0
	stw 31,12(1)
	stw 0,20(1)
	stw 30,8(1)
.LBB6535:
	.loc 2 61 0
	.cfi_offset 30, -8
	.cfi_offset 65, 4
	.cfi_offset 31, -4
	bl _ZN9Resources8InstanceEv
.LVL851:
.LBB6536:
	.loc 2 266 0
	lwz 31,12(3)
.LVL852:
.LBE6536:
	.loc 2 61 0
	b .L646
.LVL853:
.L648:
	.loc 2 63 0
	lwz 9,20(31)
	cmpwi 7,9,0
	mr 3,9
.LVL854:
	beq- 7,.L647
.LVL855:
	.loc 2 63 0 is_stmt 0 discriminator 1
	lwz 9,0(9)
	lwz 0,4(9)
	mtctr 0
	bctrl
.LVL856:
.L647:
.LBB6537:
.LBB6538:
	.loc 1 196 0 is_stmt 1
	mr 3,31
	bl _ZSt18_Rb_tree_incrementPSt18_Rb_tree_node_base
	mr 31,3
.LVL857:
.L646:
.LBE6538:
.LBE6537:
	.loc 2 61 0 discriminator 1
	bl _ZN9Resources8InstanceEv
.LVL858:
.LBB6539:
.LBB6540:
.LBB6541:
	.loc 1 665 0 discriminator 1
	addi 3,3,4
.LVL859:
.LBE6541:
.LBE6540:
.LBE6539:
	.loc 2 61 0 discriminator 1
	cmpw 7,31,3
	bne+ 7,.L648
	.loc 2 65 0
	bl _ZN9Resources8InstanceEv
.LVL860:
.LBB6542:
.LBB6543:
.LBB6544:
.LBB6545:
	.loc 1 809 0
	lwz 4,8(3)
.LBE6545:
.LBE6544:
.LBE6543:
.LBE6542:
	.loc 2 65 0
	mr 31,3
.LVL861:
.LBB6550:
.LBB6549:
.LBB6548:
.LBB6546:
	.loc 1 809 0
	bl _ZNSt8_Rb_treeIPKhSt4pairIKS1_P12GuiImageDataESt10_Select1stIS6_ESt4lessIS1_ESaIS6_EE8_M_eraseEPSt13_Rb_tree_nodeIS6_E
.LVL862:
.LBE6546:
	.loc 1 810 0
	addi 9,31,4
.LBB6547:
	.loc 1 811 0
	li 0,0
	.loc 1 810 0
	stw 9,12(31)
.LVL863:
	.loc 1 811 0
	stw 0,8(31)
.LVL864:
	.loc 1 812 0
	stw 9,16(31)
	.loc 1 813 0
	stw 0,20(31)
.LVL865:
.LBE6547:
.LBE6548:
.LBE6549:
.LBE6550:
	.loc 2 69 0
	bl _ZN9Resources8InstanceEv
.LVL866:
.LBB6551:
	.loc 2 266 0
	lwz 31,36(3)
.LVL867:
.LBE6551:
	.loc 2 69 0
	b .L649
.LVL868:
.L651:
	.loc 2 71 0
	lwz 9,20(31)
	cmpwi 7,9,0
	mr 3,9
.LVL869:
	beq- 7,.L650
	.loc 2 71 0 is_stmt 0 discriminator 1
	lwz 9,0(9)
	lwz 0,4(9)
	mtctr 0
	bctrl
.L650:
.LVL870:
.LBB6552:
.LBB6553:
	.loc 1 196 0 is_stmt 1
	mr 3,31
	bl _ZSt18_Rb_tree_incrementPSt18_Rb_tree_node_base
	mr 31,3
.LVL871:
.L649:
.LBE6553:
.LBE6552:
	.loc 2 69 0 discriminator 1
	bl _ZN9Resources8InstanceEv
.LVL872:
.LBB6554:
.LBB6555:
.LBB6556:
	.loc 1 665 0 discriminator 1
	addi 3,3,28
.LVL873:
.LBE6556:
.LBE6555:
.LBE6554:
	.loc 2 69 0 discriminator 1
	cmpw 7,31,3
	bne+ 7,.L651
	.loc 2 73 0
	bl _ZN9Resources8InstanceEv
.LVL874:
.LBB6557:
.LBB6558:
.LBB6559:
.LBB6560:
	.loc 1 811 0
	li 30,0
	.loc 1 809 0
	lwz 4,32(3)
.LBE6560:
.LBE6559:
.LBE6558:
.LBE6557:
	.loc 2 73 0
	mr 31,3
.LVL875:
.LBB6565:
.LBB6564:
.LBB6563:
.LBB6561:
	.loc 1 809 0
	addi 3,3,24
.LVL876:
	bl _ZNSt8_Rb_treeIPKhSt4pairIKS1_P8GuiSoundESt10_Select1stIS6_ESt4lessIS1_ESaIS6_EE8_M_eraseEPSt13_Rb_tree_nodeIS6_E
.LVL877:
.LBE6561:
	.loc 1 810 0
	addi 0,31,28
.LBB6562:
	stw 0,36(31)
.LVL878:
	.loc 1 812 0
	stw 0,40(31)
	.loc 1 811 0
	stw 30,32(31)
.LVL879:
	.loc 1 813 0
	stw 30,44(31)
.LBE6562:
.LBE6563:
.LBE6564:
.LBE6565:
	.loc 2 75 0
	bl _ZN9Resources8InstanceEv
.LBB6566:
.LBB6567:
.LBB6568:
.LBB6569:
	.loc 1 809 0
	lwz 4,56(3)
.LBE6569:
.LBE6568:
.LBE6567:
.LBE6566:
	.loc 2 75 0
	mr 31,3
.LVL880:
.LBB6574:
.LBB6573:
.LBB6572:
.LBB6570:
	.loc 1 809 0
	addi 3,3,48
.LVL881:
	bl _ZNSt8_Rb_treeIP12GuiImageDataSt4pairIKS1_iESt10_Select1stIS4_ESt4lessIS1_ESaIS4_EE8_M_eraseEPSt13_Rb_tree_nodeIS4_E
.LVL882:
.LBE6570:
	.loc 1 810 0
	addi 0,31,52
.LBB6571:
	stw 0,60(31)
.LVL883:
	.loc 1 812 0
	stw 0,64(31)
	.loc 1 811 0
	stw 30,56(31)
.LVL884:
	.loc 1 813 0
	stw 30,68(31)
.LBE6571:
.LBE6572:
.LBE6573:
.LBE6574:
	.loc 2 76 0
	bl _ZN9Resources8InstanceEv
.LBB6575:
.LBB6576:
.LBB6577:
.LBB6578:
	.loc 1 809 0
	lwz 4,80(3)
.LBE6578:
.LBE6577:
.LBE6576:
.LBE6575:
	.loc 2 76 0
	mr 31,3
.LVL885:
.LBB6589:
.LBB6586:
.LBB6583:
.LBB6579:
	.loc 1 809 0
	addi 3,3,72
.LVL886:
	bl _ZNSt8_Rb_treeIP8GuiSoundSt4pairIKS1_iESt10_Select1stIS4_ESt4lessIS1_ESaIS4_EE8_M_eraseEPSt13_Rb_tree_nodeIS4_E
.LVL887:
.LBE6579:
	.loc 1 810 0
	addi 0,31,76
.LBB6580:
	stw 0,84(31)
.LVL888:
	.loc 1 812 0
	stw 0,88(31)
.LBE6580:
.LBE6583:
.LBE6586:
.LBE6589:
.LBE6535:
	.loc 2 77 0
	lwz 0,20(1)
.LBB6592:
.LBB6590:
.LBB6587:
.LBB6584:
.LBB6581:
	.loc 1 811 0
	stw 30,80(31)
.LVL889:
.LBE6581:
.LBE6584:
.LBE6587:
.LBE6590:
.LBE6592:
	.loc 2 77 0
	mtlr 0
.LBB6593:
.LBB6591:
.LBB6588:
.LBB6585:
.LBB6582:
	.loc 1 813 0
	stw 30,92(31)
.LBE6582:
.LBE6585:
.LBE6588:
.LBE6591:
.LBE6593:
	.loc 2 77 0
	lwz 30,8(1)
	lwz 31,12(1)
.LVL890:
	addi 1,1,16
.LCFI89:
	.cfi_def_cfa_offset 0
	.cfi_restore 31
	.cfi_restore 30
	blr
	.cfi_endproc
.LFE1561:
	.size	_ZN9Resources5ClearEv, .-_ZN9Resources5ClearEv
	.align 2
	.globl _ZN9Resources9LoadFilesEPKc
	.type	_ZN9Resources9LoadFilesEPKc, @function
_ZN9Resources9LoadFilesEPKc:
.LFB1562:
	.loc 2 80 0
	.cfi_startproc
	.cfi_personality 0,__gxx_personality_v0
	.cfi_lsda 0,.LLSDA1562
.LVL891:
	stwu 1,-1088(1)
.LCFI90:
	.cfi_def_cfa_offset 1088
	mflr 0
	stw 29,1076(1)
.LBB6649:
	.loc 2 81 0
	mr. 29,3
	.cfi_offset 29, -12
	.cfi_register 65, 0
.LBE6649:
	.loc 2 80 0
	stw 0,1092(1)
	stw 26,1064(1)
	stw 27,1068(1)
	stw 28,1072(1)
	stw 30,1080(1)
	stw 31,1084(1)
.LBB6709:
	.loc 2 81 0
	beq- 0,.L675
	.cfi_offset 31, -4
	.cfi_offset 30, -8
	.cfi_offset 28, -16
	.cfi_offset 27, -20
	.cfi_offset 26, -24
	.cfi_offset 65, 4
.LVL892:
.LBB6650:
	.loc 2 89 0
	lis 31,.LANCHOR0@ha
.LEHB6:
.LBE6650:
	.loc 2 85 0
	bl _ZN9Resources8InstanceEv
.LVL893:
	bl _ZN9Resources5ClearEv
.LVL894:
.LBB6706:
	.loc 2 89 0
	lwz 7,.LANCHOR0@l(31)
	la 31,.LANCHOR0@l(31)
	cmpwi 7,7,0
	beq- 7,.L675
	lis 28,.LC0@ha
	addi 31,31,20
	.loc 2 84 0
	li 27,0
	la 28,.LC0@l(28)
	b .L671
.LVL895:
.L662:
.LBB6651:
.LBB6652:
.LBB6653:
	.loc 2 101 0
	addi 31,31,20
.LBE6653:
.LBE6652:
.LBE6651:
	.loc 2 89 0
	lwz 7,-20(31)
	cmpwi 7,7,0
	beq- 7,.L653
.LVL896:
.L671:
.LBB6704:
	.loc 2 91 0
	mr 6,29
	li 4,1024
	mr 5,28
	addi 3,1,32
	crxor 6,6,6
	bl snprintf
.LBB6702:
	.loc 2 93 0
	addi 3,1,20
	addi 4,1,32
	addi 5,1,11
	bl _ZNSsC1EPKcRKSaIcE
.LEHE6:
	addi 3,1,20
.LEHB7:
	bl _Z9CheckFileSs
.LEHE7:
.LBB6673:
.LBB6674:
.LBB6675:
.LBB6676:
.LBB6677:
.LBB6678:
	.file 6 "d:\\devkitpro\\devkitppc\\bin\\../lib/gcc/powerpc-eabi/4.6.3/../../../../powerpc-eabi/include/c++/4.6.3/bits/basic_string.h"
	.loc 6 288 0
	lwz 9,20(1)
.LBE6678:
.LBE6677:
.LBE6676:
.LBB6679:
.LBB6680:
	.loc 6 235 0
	lis 30,_ZNSs4_Rep20_S_empty_rep_storageE@ha
.LBE6680:
.LBE6679:
.LBE6675:
.LBE6674:
.LBE6673:
	.loc 2 93 0
	mr 26,3
.LVL897:
.LBB6697:
.LBB6695:
.LBB6693:
.LBB6690:
.LBB6687:
	.loc 6 235 0
	la 30,_ZNSs4_Rep20_S_empty_rep_storageE@l(30)
.LBE6687:
.LBE6690:
	.loc 6 534 0
	addi 3,9,-12
.LVL898:
.LBB6691:
.LBB6688:
	.loc 6 235 0
	cmpw 7,3,30
	bne- 7,.L679
.LVL899:
.L661:
.LBE6688:
.LBE6691:
.LBE6693:
.LBE6695:
.LBE6697:
	.loc 2 93 0 discriminator 1
	cmpwi 7,26,0
	beq+ 7,.L662
.LBB6698:
	.loc 2 98 0
	addi 4,1,32
	addi 5,1,10
	addi 3,1,12
	.loc 2 95 0
	li 0,0
	.loc 2 96 0
	li 10,0
	li 11,0
	.loc 2 95 0
	stw 0,16(1)
	.loc 2 96 0
	stw 10,24(1)
	stw 11,28(1)
.LEHB8:
	.loc 2 98 0
	bl _ZNSsC1EPKcRKSaIcE
.LEHE8:
	addi 3,1,12
	addi 4,1,16
	addi 5,1,24
.LEHB9:
	bl _Z13LoadFileToMemSsPPhPy
.LEHE9:
.LVL900:
.LBB6654:
.LBB6655:
.LBB6656:
.LBB6657:
.LBB6658:
.LBB6659:
	.loc 6 288 0
	lwz 9,12(1)
.LBE6659:
.LBE6658:
.LBE6657:
	.loc 6 534 0
	addi 3,9,-12
.LVL901:
.LBB6660:
.LBB6661:
	.loc 6 235 0
	cmpw 7,3,30
	bne- 7,.L680
.LVL902:
.L670:
.LBE6661:
.LBE6660:
.LBE6656:
.LBE6655:
.LBE6654:
	.loc 2 100 0 discriminator 1
	lwz 0,16(1)
	.loc 2 102 0 discriminator 1
	li 27,1
	.loc 2 100 0 discriminator 1
	stw 0,-8(31)
	.loc 2 101 0 discriminator 1
	lwz 0,28(1)
	stw 0,-4(31)
.LVL903:
	addi 31,31,20
.LBE6698:
.LBE6702:
.LBE6704:
	.loc 2 89 0 discriminator 1
	lwz 7,-20(31)
	cmpwi 7,7,0
	bne+ 7,.L671
.LVL904:
.L653:
.LBE6706:
.LBE6709:
	.loc 2 107 0
	lwz 0,1092(1)
	mr 3,27
	lwz 26,1064(1)
	mtlr 0
	lwz 27,1068(1)
	lwz 28,1072(1)
	lwz 29,1076(1)
.LVL905:
	lwz 30,1080(1)
	lwz 31,1084(1)
	addi 1,1,1088
	.cfi_remember_state
.LCFI91:
	.cfi_def_cfa_offset 0
	.cfi_restore 31
	.cfi_restore 30
	.cfi_restore 29
	.cfi_restore 28
	.cfi_restore 27
	.cfi_restore 26
	blr
.LVL906:
.L675:
.LCFI92:
	.cfi_restore_state
	lwz 0,1092(1)
.LBB6710:
.LBB6707:
	.loc 2 84 0
	li 27,0
.LBE6707:
.LBE6710:
	.loc 2 107 0
	mr 3,27
	lwz 26,1064(1)
	mtlr 0
	lwz 27,1068(1)
	lwz 28,1072(1)
	lwz 29,1076(1)
.LVL907:
	lwz 30,1080(1)
	lwz 31,1084(1)
	addi 1,1,1088
	.cfi_remember_state
	.cfi_restore 26
	.cfi_restore 27
	.cfi_restore 28
	.cfi_restore 29
	.cfi_restore 30
	.cfi_restore 31
.LCFI93:
	.cfi_def_cfa_offset 0
	blr
.LVL908:
.L679:
.LCFI94:
	.cfi_restore_state
.LBB6711:
.LBB6708:
.LBB6705:
.LBB6703:
.LBB6699:
.LBB6696:
.LBB6694:
.LBB6692:
.LBB6689:
.LBB6681:
.LBB6682:
.LBB6683:
	.file 7 "d:\\devkitpro\\devkitppc\\bin\\../lib/gcc/powerpc-eabi/4.6.3/../../../../powerpc-eabi/include/c++/4.6.3/ext/atomicity.h"
	.loc 7 66 0
	lwz 11,-4(9)
.LVL909:
.LBE6683:
.LBE6682:
.LBE6681:
	.loc 6 240 0
	cmpwi 7,11,0
.LBB6686:
.LBB6685:
.LBB6684:
	.loc 7 67 0
	addi 11,11,-1
	stw 11,-4(9)
.LBE6684:
.LBE6685:
.LBE6686:
	.loc 6 240 0
	bgt+ 7,.L661
	.loc 6 244 0
	addi 4,1,9
	bl _ZNSs4_Rep10_M_destroyERKSaIcE
.LVL910:
	b .L661
.LVL911:
.L680:
.LBE6689:
.LBE6692:
.LBE6694:
.LBE6696:
.LBE6699:
.LBB6700:
.LBB6672:
.LBB6671:
.LBB6670:
.LBB6669:
.LBB6668:
.LBB6662:
.LBB6663:
.LBB6664:
	.loc 7 66 0
	lwz 11,-4(9)
.LVL912:
.LBE6664:
.LBE6663:
.LBE6662:
	.loc 6 240 0
	cmpwi 7,11,0
.LBB6667:
.LBB6666:
.LBB6665:
	.loc 7 67 0
	addi 11,11,-1
	stw 11,-4(9)
.LBE6665:
.LBE6666:
.LBE6667:
	.loc 6 240 0
	bgt+ 7,.L670
	.loc 6 244 0
	addi 4,1,8
	bl _ZNSs4_Rep10_M_destroyERKSaIcE
.LVL913:
	b .L670
.LVL914:
.L676:
	mr 31,3
.LBE6668:
.LBE6669:
.LBE6670:
.LBE6671:
.LBE6672:
.LBE6700:
	.loc 2 93 0
	addi 3,1,20
	bl _ZNSsD1Ev
	mr 3,31
.LEHB10:
	bl _Unwind_Resume
.LVL915:
.L677:
	mr 31,3
.LBB6701:
	.loc 2 98 0
	addi 3,1,12
	bl _ZNSsD1Ev
	mr 3,31
	bl _Unwind_Resume
.LEHE10:
.LBE6701:
.LBE6703:
.LBE6705:
.LBE6708:
.LBE6711:
	.cfi_endproc
.LFE1562:
	.section	.gcc_except_table
.LLSDA1562:
	.byte	0xff
	.byte	0xff
	.byte	0x1
	.uleb128 .LLSDACSE1562-.LLSDACSB1562
.LLSDACSB1562:
	.uleb128 .LEHB6-.LFB1562
	.uleb128 .LEHE6-.LEHB6
	.uleb128 0
	.uleb128 0
	.uleb128 .LEHB7-.LFB1562
	.uleb128 .LEHE7-.LEHB7
	.uleb128 .L676-.LFB1562
	.uleb128 0
	.uleb128 .LEHB8-.LFB1562
	.uleb128 .LEHE8-.LEHB8
	.uleb128 0
	.uleb128 0
	.uleb128 .LEHB9-.LFB1562
	.uleb128 .LEHE9-.LEHB9
	.uleb128 .L677-.LFB1562
	.uleb128 0
	.uleb128 .LEHB10-.LFB1562
	.uleb128 .LEHE10-.LEHB10
	.uleb128 0
	.uleb128 0
.LLSDACSE1562:
	.section	".text"
	.size	_ZN9Resources9LoadFilesEPKc, .-_ZN9Resources9LoadFilesEPKc
	.align 2
	.globl _ZN9ResourcesD2Ev
	.type	_ZN9ResourcesD2Ev, @function
_ZN9ResourcesD2Ev:
.LFB1559:
	.loc 2 52 0
	.cfi_startproc
	.cfi_personality 0,__gxx_personality_v0
	.cfi_lsda 0,.LLSDA1559
.LVL916:
	mflr 0
	stwu 1,-16(1)
.LCFI95:
	.cfi_def_cfa_offset 16
	.cfi_register 65, 0
	stw 31,12(1)
	mr 31,3
	.cfi_offset 31, -4
	stw 0,20(1)
	stw 30,8(1)
.LEHB11:
.LBB6712:
	.loc 2 54 0
	.cfi_offset 30, -8
	.cfi_offset 65, 4
	bl _ZN9Resources8InstanceEv
.LVL917:
	.loc 2 54 0 is_stmt 0 discriminator 1
	bl _ZN9Resources5ClearEv
.LEHE11:
.LVL918:
.LBB6713:
.LBB6714:
.LBB6715:
.LBB6716:
.LBB6717:
.LBB6718:
	.loc 1 639 0 is_stmt 1
	lwz 4,80(31)
	addi 3,31,72
	bl _ZNSt8_Rb_treeIP8GuiSoundSt4pairIKS1_iESt10_Select1stIS4_ESt4lessIS1_ESaIS4_EE8_M_eraseEPSt13_Rb_tree_nodeIS4_E
.LVL919:
.LBE6718:
.LBE6717:
.LBE6716:
.LBE6715:
.LBE6714:
.LBE6713:
.LBB6719:
.LBB6720:
.LBB6721:
.LBB6722:
.LBB6723:
.LBB6724:
	lwz 4,56(31)
	addi 3,31,48
	bl _ZNSt8_Rb_treeIP12GuiImageDataSt4pairIKS1_iESt10_Select1stIS4_ESt4lessIS1_ESaIS4_EE8_M_eraseEPSt13_Rb_tree_nodeIS4_E
.LVL920:
.LBE6724:
.LBE6723:
.LBE6722:
.LBE6721:
.LBE6720:
.LBE6719:
.LBB6725:
.LBB6726:
.LBB6727:
.LBB6728:
.LBB6729:
.LBB6730:
	lwz 4,32(31)
	addi 3,31,24
	bl _ZNSt8_Rb_treeIPKhSt4pairIKS1_P8GuiSoundESt10_Select1stIS6_ESt4lessIS1_ESaIS6_EE8_M_eraseEPSt13_Rb_tree_nodeIS6_E
.LVL921:
.LBE6730:
.LBE6729:
.LBE6728:
.LBE6727:
.LBE6726:
.LBE6725:
.LBB6731:
.LBB6732:
.LBB6733:
.LBB6734:
.LBB6735:
.LBB6736:
	lwz 4,8(31)
	mr 3,31
	bl _ZNSt8_Rb_treeIPKhSt4pairIKS1_P12GuiImageDataESt10_Select1stIS6_ESt4lessIS1_ESaIS6_EE8_M_eraseEPSt13_Rb_tree_nodeIS6_E
.LBE6736:
.LBE6735:
.LBE6734:
.LBE6733:
.LBE6732:
.LBE6731:
.LBE6712:
	.loc 2 55 0
	lwz 0,20(1)
	lwz 30,8(1)
	mtlr 0
	lwz 31,12(1)
.LVL922:
	addi 1,1,16
	.cfi_remember_state
.LCFI96:
	.cfi_def_cfa_offset 0
	.cfi_restore 31
	.cfi_restore 30
	blr
.LVL923:
.L724:
.LCFI97:
	.cfi_restore_state
.LBB6761:
.LBB6737:
.LBB6738:
.LBB6739:
.LBB6740:
.LBB6741:
.LBB6742:
	.loc 1 639 0
	lwz 4,80(31)
	mr 30,3
.LVL924:
	addi 3,31,72
	bl _ZNSt8_Rb_treeIP8GuiSoundSt4pairIKS1_iESt10_Select1stIS4_ESt4lessIS1_ESaIS4_EE8_M_eraseEPSt13_Rb_tree_nodeIS4_E
.LVL925:
.LBE6742:
.LBE6741:
.LBE6740:
.LBE6739:
.LBE6738:
.LBE6737:
.LBB6743:
.LBB6744:
.LBB6745:
.LBB6746:
.LBB6747:
.LBB6748:
	lwz 4,56(31)
	addi 3,31,48
	bl _ZNSt8_Rb_treeIP12GuiImageDataSt4pairIKS1_iESt10_Select1stIS4_ESt4lessIS1_ESaIS4_EE8_M_eraseEPSt13_Rb_tree_nodeIS4_E
.LVL926:
.LBE6748:
.LBE6747:
.LBE6746:
.LBE6745:
.LBE6744:
.LBE6743:
.LBB6749:
.LBB6750:
.LBB6751:
.LBB6752:
.LBB6753:
.LBB6754:
	lwz 4,32(31)
	addi 3,31,24
	bl _ZNSt8_Rb_treeIPKhSt4pairIKS1_P8GuiSoundESt10_Select1stIS6_ESt4lessIS1_ESaIS6_EE8_M_eraseEPSt13_Rb_tree_nodeIS6_E
.LVL927:
.LBE6754:
.LBE6753:
.LBE6752:
.LBE6751:
.LBE6750:
.LBE6749:
.LBB6755:
.LBB6756:
.LBB6757:
.LBB6758:
.LBB6759:
.LBB6760:
	lwz 4,8(31)
	mr 3,31
	bl _ZNSt8_Rb_treeIPKhSt4pairIKS1_P12GuiImageDataESt10_Select1stIS6_ESt4lessIS1_ESaIS6_EE8_M_eraseEPSt13_Rb_tree_nodeIS6_E
	mr 3,30
.LEHB12:
	bl _Unwind_Resume
.LEHE12:
.LBE6760:
.LBE6759:
.LBE6758:
.LBE6757:
.LBE6756:
.LBE6755:
.LBE6761:
	.cfi_endproc
.LFE1559:
	.section	.gcc_except_table
.LLSDA1559:
	.byte	0xff
	.byte	0xff
	.byte	0x1
	.uleb128 .LLSDACSE1559-.LLSDACSB1559
.LLSDACSB1559:
	.uleb128 .LEHB11-.LFB1559
	.uleb128 .LEHE11-.LEHB11
	.uleb128 .L724-.LFB1559
	.uleb128 0
	.uleb128 .LEHB12-.LFB1559
	.uleb128 .LEHE12-.LEHB12
	.uleb128 0
	.uleb128 0
.LLSDACSE1559:
	.section	".text"
	.size	_ZN9ResourcesD2Ev, .-_ZN9ResourcesD2Ev
	.align 2
	.globl _ZN9Resources15DestroyInstanceEv
	.type	_ZN9Resources15DestroyInstanceEv, @function
_ZN9Resources15DestroyInstanceEv:
.LFB1557:
	.loc 2 44 0
	.cfi_startproc
	stwu 1,-16(1)
.LCFI98:
	.cfi_def_cfa_offset 16
	mflr 0
	stw 30,8(1)
	.loc 2 45 0
	lis 30,_ZN9Resources8instanceE@ha
	.cfi_offset 30, -8
	.cfi_register 65, 0
	.loc 2 44 0
	stw 31,12(1)
	.loc 2 45 0
	lwz 31,_ZN9Resources8instanceE@l(30)
	.cfi_offset 31, -4
	.loc 2 44 0
	stw 0,20(1)
	.loc 2 45 0
	cmpwi 7,31,0
	beq- 7,.L725
	.cfi_offset 65, 4
	.loc 2 47 0
	mr 3,31
	bl _ZN9ResourcesD1Ev
	mr 3,31
	bl _ZdlPv
	.loc 2 48 0
	li 0,0
	stw 0,_ZN9Resources8instanceE@l(30)
.L725:
	.loc 2 50 0
	lwz 0,20(1)
	lwz 30,8(1)
	mtlr 0
	lwz 31,12(1)
	addi 1,1,16
.LCFI99:
	.cfi_def_cfa_offset 0
	.cfi_restore 31
	.cfi_restore 30
	blr
	.cfi_endproc
.LFE1557:
	.size	_ZN9Resources15DestroyInstanceEv, .-_ZN9Resources15DestroyInstanceEv
	.section	.text.startup,"ax",@progbits
	.align 2
	.type	_GLOBAL__sub_I__ZN9Resources8instanceE, @function
_GLOBAL__sub_I__ZN9Resources8instanceE:
.LFB2329:
	.loc 2 266 0
	.cfi_startproc
.LVL928:
	stwu 1,-40(1)
.LCFI100:
	.cfi_def_cfa_offset 40
.LBB6764:
.LBB6765:
	.file 8 "d:/Projects/SaveGameManager/savegame-manager-gx/trunk/source/Themes/filelist.h"
	.loc 8 666 0
	lis 9,arrow_left_png_size@ha
	lis 12,homemenu_settings_bg_png_size@ha
.LBE6765:
.LBE6764:
	.loc 2 266 0
	stw 24,8(1)
.LBB6775:
.LBB6766:
	.loc 8 666 0
	lwz 24,arrow_left_png_size@l(9)
	.cfi_offset 24, -32
	lis 9,arrow_right_png_size@ha
.LBE6766:
.LBE6775:
	.loc 2 266 0
	stw 25,12(1)
.LBB6776:
.LBB6767:
	.loc 8 666 0
	lwz 25,arrow_right_png_size@l(9)
	.cfi_offset 25, -28
	lis 9,browser_png_size@ha
.LBE6767:
.LBE6776:
	.loc 2 266 0
	stw 26,16(1)
.LBB6777:
.LBB6768:
	.loc 8 666 0
	lwz 26,browser_png_size@l(9)
	.cfi_offset 26, -24
	lis 9,browser_bg_selection_png_size@ha
.LBE6768:
.LBE6777:
	.loc 2 266 0
	stw 27,20(1)
.LBB6778:
.LBB6769:
	.loc 8 666 0
	lwz 27,browser_bg_selection_png_size@l(9)
	.cfi_offset 27, -20
	lis 9,browser_entry_bg_png_size@ha
.LBE6769:
.LBE6778:
	.loc 2 266 0
	stw 28,24(1)
.LBB6779:
.LBB6770:
	.loc 8 666 0
	lwz 28,browser_entry_bg_png_size@l(9)
	.cfi_offset 28, -16
	lis 9,browser_options_png_size@ha
.LBE6770:
.LBE6779:
	.loc 2 266 0
	stw 29,28(1)
.LBB6780:
.LBB6771:
	.loc 8 666 0
	lwz 29,browser_options_png_size@l(9)
	.cfi_offset 29, -12
	lis 9,browser_select_png_size@ha
.LBE6771:
.LBE6780:
	.loc 2 266 0
	stw 30,32(1)
.LBB6781:
.LBB6772:
	.loc 8 666 0
	lwz 30,browser_select_png_size@l(9)
	.cfi_offset 30, -8
	lis 9,browser_select_button_box_png_size@ha
.LBE6772:
.LBE6781:
	.loc 2 266 0
	stw 31,36(1)
.LBB6782:
.LBB6773:
	.loc 8 666 0
	lwz 31,browser_select_button_box_png_size@l(9)
	.cfi_offset 31, -4
	lis 9,browser_separator_png_size@ha
	lwz 3,browser_separator_png_size@l(9)
	lis 9,button_png_size@ha
	lwz 4,button_png_size@l(9)
	lis 9,button_close_png_size@ha
	lwz 5,button_close_png_size@l(9)
	lis 9,button_close_over_png_size@ha
	lwz 6,button_close_over_png_size@l(9)
	lis 9,button_valid_png_size@ha
	lwz 7,button_valid_png_size@l(9)
	lis 9,button_valid_over_png_size@ha
	lwz 8,button_valid_over_png_size@l(9)
	lis 9,button_wifi_png_size@ha
	lwz 10,button_wifi_png_size@l(9)
	lis 9,button_wifi_over_png_size@ha
	lwz 11,button_wifi_over_png_size@l(9)
	lis 9,credits_bg_png_size@ha
	lwz 0,credits_bg_png_size@l(9)
	lis 9,.LANCHOR0@ha
	la 9,.LANCHOR0@l(9)
	stw 24,8(9)
	stw 25,28(9)
	stw 26,48(9)
	stw 27,68(9)
	stw 28,88(9)
	stw 29,108(9)
	stw 30,128(9)
	stw 31,148(9)
	stw 11,308(9)
	lis 11,credits_little_star_png_size@ha
	lwz 24,credits_little_star_png_size@l(11)
	lis 11,deviceselection_png_size@ha
	lwz 25,deviceselection_png_size@l(11)
	lis 11,device_choose_center_png_size@ha
	lwz 26,device_choose_center_png_size@l(11)
	lis 11,device_choose_left_png_size@ha
	lwz 27,device_choose_left_png_size@l(11)
	lis 11,device_choose_right_png_size@ha
	lwz 28,device_choose_right_png_size@l(11)
	lis 11,device_choose_sd_png_size@ha
	lwz 29,device_choose_sd_png_size@l(11)
	lis 11,device_choose_usb_png_size@ha
	lwz 30,device_choose_usb_png_size@l(11)
	lis 11,dialogue_box_png_size@ha
	lwz 31,dialogue_box_png_size@l(11)
	lis 11,homemenu_battery_bar_red_png_size@ha
	stw 3,168(9)
	lwz 3,homemenu_battery_bar_red_png_size@l(11)
	lis 11,homemenu_battery_bar_white_png_size@ha
	stw 4,188(9)
	lwz 4,homemenu_battery_bar_white_png_size@l(11)
	lis 11,homemenu_battery_red_png_size@ha
	stw 5,208(9)
	lwz 5,homemenu_battery_red_png_size@l(11)
	lis 11,homemenu_battery_white_png_size@ha
	stw 6,228(9)
	lwz 6,homemenu_battery_white_png_size@l(11)
	lis 11,homemenu_bottom_png_size@ha
	stw 7,248(9)
	lwz 7,homemenu_bottom_png_size@l(11)
	lis 11,homemenu_bottom_over_png_size@ha
	stw 8,268(9)
	lwz 8,homemenu_bottom_over_png_size@l(11)
	lis 11,homemenu_button_png_size@ha
	stw 10,288(9)
	lwz 10,homemenu_button_png_size@l(11)
	lis 11,homemenu_close_png_size@ha
	lwz 11,homemenu_close_png_size@l(11)
	stw 0,328(9)
	stw 24,348(9)
	lwz 0,homemenu_settings_bg_png_size@l(12)
	lis 12,icon_brows_sound_png_size@ha
	stw 25,368(9)
	stw 26,388(9)
	stw 27,408(9)
	stw 28,428(9)
	stw 29,448(9)
	stw 30,468(9)
	stw 31,488(9)
	stw 11,648(9)
	lis 11,homemenu_top_png_size@ha
	lwz 24,homemenu_top_png_size@l(11)
	lis 11,homemenu_top_over_png_size@ha
	lwz 25,homemenu_top_over_png_size@l(11)
	lis 11,homemenu_wiimote_png_size@ha
	lwz 26,homemenu_wiimote_png_size@l(11)
	lis 11,home_settings_button_png_size@ha
	lwz 27,home_settings_button_png_size@l(11)
	lis 11,home_settings_button_over_png_size@ha
	lwz 28,home_settings_button_over_png_size@l(11)
	lis 11,icon_brows_cfg_png_size@ha
	lwz 29,icon_brows_cfg_png_size@l(11)
	lis 11,icon_brows_databin_png_size@ha
	lwz 30,icon_brows_databin_png_size@l(11)
	lis 11,icon_brows_default_png_size@ha
	lwz 31,icon_brows_default_png_size@l(11)
	lis 11,icon_brows_exe_png_size@ha
	stw 3,508(9)
	lwz 3,icon_brows_exe_png_size@l(11)
	lis 11,icon_brows_folder_png_size@ha
	stw 4,528(9)
	lwz 4,icon_brows_folder_png_size@l(11)
	lis 11,icon_brows_font_png_size@ha
	stw 5,548(9)
	lwz 5,icon_brows_font_png_size@l(11)
	lis 11,icon_brows_img_png_size@ha
	stw 6,568(9)
	lwz 6,icon_brows_img_png_size@l(11)
	lis 11,icon_brows_lang_png_size@ha
	stw 7,588(9)
	lwz 7,icon_brows_lang_png_size@l(11)
	lis 11,icon_brows_mii_png_size@ha
	stw 8,608(9)
	lwz 8,icon_brows_mii_png_size@l(11)
	lis 11,icon_brows_nosave_png_size@ha
	stw 10,628(9)
	lwz 10,icon_brows_nosave_png_size@l(11)
	lis 11,icon_brows_save_png_size@ha
	lwz 11,icon_brows_save_png_size@l(11)
	stw 0,668(9)
	stw 24,688(9)
	lwz 0,icon_brows_sound_png_size@l(12)
	lis 12,icon_type_wiiware_png_size@ha
	stw 25,708(9)
	stw 26,728(9)
	stw 27,748(9)
	stw 28,768(9)
	stw 29,788(9)
	stw 30,808(9)
	stw 31,828(9)
	stw 11,988(9)
	lis 11,icon_brows_theme_png_size@ha
	lwz 24,icon_brows_theme_png_size@l(11)
	lis 11,icon_brows_txt_png_size@ha
	lwz 25,icon_brows_txt_png_size@l(11)
	lis 11,icon_brows_xml_png_size@ha
	lwz 26,icon_brows_xml_png_size@l(11)
	lis 11,icon_type_channel_png_size@ha
	lwz 27,icon_type_channel_png_size@l(11)
	lis 11,icon_type_gamecube_png_size@ha
	lwz 28,icon_type_gamecube_png_size@l(11)
	lis 11,icon_type_unknow_png_size@ha
	lwz 29,icon_type_unknow_png_size@l(11)
	lis 11,icon_type_vc_arcade_png_size@ha
	lwz 30,icon_type_vc_arcade_png_size@l(11)
	lis 11,icon_type_vc_c64_png_size@ha
	lwz 31,icon_type_vc_c64_png_size@l(11)
	lis 11,icon_type_vc_md_png_size@ha
	stw 3,848(9)
	lwz 3,icon_type_vc_md_png_size@l(11)
	lis 11,icon_type_vc_n64_png_size@ha
	stw 4,868(9)
	lwz 4,icon_type_vc_n64_png_size@l(11)
	lis 11,icon_type_vc_neogeo_png_size@ha
	stw 5,888(9)
	lwz 5,icon_type_vc_neogeo_png_size@l(11)
	lis 11,icon_type_vc_nes_png_size@ha
	stw 6,908(9)
	lwz 6,icon_type_vc_nes_png_size@l(11)
	lis 11,icon_type_vc_pce_png_size@ha
	stw 7,928(9)
	lwz 7,icon_type_vc_pce_png_size@l(11)
	lis 11,icon_type_vc_sms_png_size@ha
	stw 8,948(9)
	lwz 8,icon_type_vc_sms_png_size@l(11)
	lis 11,icon_type_vc_snes_png_size@ha
	stw 10,968(9)
	lwz 10,icon_type_vc_snes_png_size@l(11)
	lis 11,icon_type_wii_png_size@ha
	lwz 11,icon_type_wii_png_size@l(11)
	stw 0,1008(9)
	stw 24,1028(9)
	lwz 0,icon_type_wiiware_png_size@l(12)
	lis 12,menu_button_settings_png_size@ha
	stw 25,1048(9)
	stw 26,1068(9)
	stw 27,1088(9)
	stw 28,1108(9)
	stw 29,1128(9)
	stw 30,1148(9)
	stw 31,1168(9)
	stw 11,1328(9)
	lis 11,keyboard_backspace_over_png_size@ha
	lwz 24,keyboard_backspace_over_png_size@l(11)
	lis 11,keyboard_clear_over_png_size@ha
	lwz 25,keyboard_clear_over_png_size@l(11)
	lis 11,keyboard_key_png_size@ha
	lwz 26,keyboard_key_png_size@l(11)
	lis 11,keyboard_key_over_png_size@ha
	lwz 27,keyboard_key_over_png_size@l(11)
	lis 11,keyboard_largekey_png_size@ha
	lwz 28,keyboard_largekey_png_size@l(11)
	lis 11,keyboard_largekey_over_png_size@ha
	lwz 29,keyboard_largekey_over_png_size@l(11)
	lis 11,keyboard_mediumkey_png_size@ha
	lwz 30,keyboard_mediumkey_png_size@l(11)
	lis 11,keyboard_mediumkey_over_png_size@ha
	lwz 31,keyboard_mediumkey_over_png_size@l(11)
	lis 11,keyboard_textbox_png_size@ha
	stw 3,1188(9)
	lwz 3,keyboard_textbox_png_size@l(11)
	lis 11,logo_SGMGX_png_size@ha
	stw 4,1208(9)
	lwz 4,logo_SGMGX_png_size@l(11)
	lis 11,menu_background_png_size@ha
	stw 5,1228(9)
	lwz 5,menu_background_png_size@l(11)
	lis 11,menu_button_music_png_size@ha
	stw 6,1248(9)
	lwz 6,menu_button_music_png_size@l(11)
	lis 11,menu_button_music_over_png_size@ha
	stw 7,1268(9)
	lwz 7,menu_button_music_over_png_size@l(11)
	lis 11,menu_button_sdcard_png_size@ha
	stw 8,1288(9)
	lwz 8,menu_button_sdcard_png_size@l(11)
	lis 11,menu_button_sdcard_gray_png_size@ha
	stw 10,1308(9)
	lwz 10,menu_button_sdcard_gray_png_size@l(11)
	lis 11,menu_button_sdcard_over_png_size@ha
	lwz 11,menu_button_sdcard_over_png_size@l(11)
	stw 0,1348(9)
	stw 24,1368(9)
	lwz 0,menu_button_settings_png_size@l(12)
	lis 12,player4_point_png_size@ha
	stw 25,1388(9)
	stw 26,1408(9)
	stw 27,1428(9)
	stw 28,1448(9)
	stw 29,1468(9)
	stw 30,1488(9)
	stw 31,1508(9)
	stw 11,1668(9)
	lis 11,menu_button_settings_over_png_size@ha
	lwz 24,menu_button_settings_over_png_size@l(11)
	lis 11,menu_button_switch_png_size@ha
	lwz 25,menu_button_switch_png_size@l(11)
	lis 11,menu_button_switch_over_png_size@ha
	lwz 26,menu_button_switch_over_png_size@l(11)
	lis 11,menu_button_wii_png_size@ha
	lwz 27,menu_button_wii_png_size@l(11)
	lis 11,menu_button_wii_over_png_size@ha
	lwz 28,menu_button_wii_over_png_size@l(11)
	lis 11,menu_wbackground_png_size@ha
	lwz 29,menu_wbackground_png_size@l(11)
	lis 11,music_nav_default_png_size@ha
	lwz 30,music_nav_default_png_size@l(11)
	lis 11,music_nav_down_png_size@ha
	lwz 31,music_nav_down_png_size@l(11)
	lis 11,music_nav_left_png_size@ha
	stw 3,1528(9)
	lwz 3,music_nav_left_png_size@l(11)
	lis 11,music_nav_right_png_size@ha
	stw 4,1548(9)
	lwz 4,music_nav_right_png_size@l(11)
	lis 11,music_nav_up_png_size@ha
	stw 5,1568(9)
	lwz 5,music_nav_up_png_size@l(11)
	lis 11,music_player_png_size@ha
	stw 6,1588(9)
	lwz 6,music_player_png_size@l(11)
	lis 11,music_playlist_png_size@ha
	stw 7,1608(9)
	lwz 7,music_playlist_png_size@l(11)
	lis 11,player1_point_png_size@ha
	stw 8,1628(9)
	lwz 8,player1_point_png_size@l(11)
	lis 11,player2_point_png_size@ha
	stw 10,1648(9)
	lwz 10,player2_point_png_size@l(11)
	lis 11,player3_point_png_size@ha
	lwz 11,player3_point_png_size@l(11)
	stw 0,1688(9)
	stw 24,1708(9)
	lwz 0,player4_point_png_size@l(12)
	lis 12,settings_background_png_size@ha
	stw 25,1728(9)
	stw 26,1748(9)
	stw 27,1768(9)
	stw 28,1788(9)
	stw 29,1808(9)
	stw 30,1828(9)
	stw 31,1848(9)
	stw 11,2008(9)
	lis 11,progress_bar_png_size@ha
	lwz 24,progress_bar_png_size@l(11)
	lis 11,progress_bar_empty_png_size@ha
	lwz 25,progress_bar_empty_png_size@l(11)
	lis 11,progress_bar_outline_png_size@ha
	lwz 26,progress_bar_outline_png_size@l(11)
	lis 11,progress_bar_startup_empty_png_size@ha
	lwz 27,progress_bar_startup_empty_png_size@l(11)
	lis 11,progress_bar_startup_outline_png_size@ha
	lwz 28,progress_bar_startup_outline_png_size@l(11)
	lis 11,progress_throbber_png_size@ha
	lwz 29,progress_throbber_png_size@l(11)
	lis 11,scrollbar_arrowdown_png_size@ha
	lwz 30,scrollbar_arrowdown_png_size@l(11)
	lis 11,scrollbar_arrowup_png_size@ha
	lwz 31,scrollbar_arrowup_png_size@l(11)
	lis 11,scrollbar_bottom_png_size@ha
	stw 3,1868(9)
	lwz 3,scrollbar_bottom_png_size@l(11)
	lis 11,scrollbar_box_png_size@ha
	stw 4,1888(9)
	lwz 4,scrollbar_box_png_size@l(11)
	lis 11,scrollbar_custom_bottom_png_size@ha
	stw 5,1908(9)
	lwz 5,scrollbar_custom_bottom_png_size@l(11)
	lis 11,scrollbar_custom_tile_png_size@ha
	stw 6,1928(9)
	lwz 6,scrollbar_custom_tile_png_size@l(11)
	lis 11,scrollbar_custom_top_png_size@ha
	stw 7,1948(9)
	lwz 7,scrollbar_custom_top_png_size@l(11)
	lis 11,scrollbar_tile_png_size@ha
	stw 8,1968(9)
	lwz 8,scrollbar_tile_png_size@l(11)
	lis 11,scrollbar_top_png_size@ha
	stw 10,1988(9)
	lwz 10,scrollbar_top_png_size@l(11)
	lis 11,scroll_one_button_png_size@ha
	lwz 11,scroll_one_button_png_size@l(11)
	stw 0,2028(9)
	stw 24,2048(9)
	lwz 0,settings_background_png_size@l(12)
	lis 12,taskbar_sd_png_size@ha
	stw 25,2068(9)
	stw 26,2088(9)
	stw 27,2108(9)
	stw 28,2128(9)
	stw 29,2148(9)
	stw 30,2168(9)
	stw 31,2188(9)
	stw 11,2348(9)
	lis 11,settings_credits_title_png_size@ha
	lwz 24,settings_credits_title_png_size@l(11)
	lis 11,settings_credits_title_over_png_size@ha
	lwz 25,settings_credits_title_over_png_size@l(11)
	lis 11,settings_menu_button_png_size@ha
	lwz 26,settings_menu_button_png_size@l(11)
	lis 11,settings_pageindicator_png_size@ha
	lwz 27,settings_pageindicator_png_size@l(11)
	lis 11,settings_title_png_size@ha
	lwz 28,settings_title_png_size@l(11)
	lis 11,settings_title_over_png_size@ha
	lwz 29,settings_title_over_png_size@l(11)
	lis 11,storage_sd_png_size@ha
	lwz 30,storage_sd_png_size@l(11)
	lis 11,storage_usb_png_size@ha
	lwz 31,storage_usb_png_size@l(11)
	lis 11,taskbar_arrangeIcon_png_size@ha
	stw 3,2208(9)
	lwz 3,taskbar_arrangeIcon_png_size@l(11)
	lis 11,taskbar_arrangeIcon_gray_png_size@ha
	stw 4,2228(9)
	lwz 4,taskbar_arrangeIcon_gray_png_size@l(11)
	lis 11,taskbar_arrangeList_png_size@ha
	stw 5,2248(9)
	lwz 5,taskbar_arrangeList_png_size@l(11)
	lis 11,taskbar_arrangeList_gray_png_size@ha
	stw 6,2268(9)
	lwz 6,taskbar_arrangeList_gray_png_size@l(11)
	lis 11,taskbar_locked_png_size@ha
	stw 7,2288(9)
	lwz 7,taskbar_locked_png_size@l(11)
	lis 11,taskbar_locked_gray_png_size@ha
	stw 8,2308(9)
	lwz 8,taskbar_locked_gray_png_size@l(11)
	lis 11,taskbar_mii_png_size@ha
	stw 10,2328(9)
	lwz 10,taskbar_mii_png_size@l(11)
	lis 11,taskbar_mii_gray_png_size@ha
	lwz 11,taskbar_mii_gray_png_size@l(11)
	stw 0,2368(9)
	stw 24,2388(9)
	lis 24,bg_music_ogg_size@ha
	lwz 0,taskbar_sd_png_size@l(12)
	stw 25,2408(9)
	stw 26,2428(9)
	stw 27,2448(9)
	stw 28,2468(9)
	stw 29,2488(9)
	stw 30,2508(9)
	stw 31,2528(9)
	stw 11,2688(9)
	lis 11,taskbar_sd_gray_png_size@ha
	lwz 25,taskbar_sd_gray_png_size@l(11)
	lis 11,taskbar_search_png_size@ha
	lwz 26,taskbar_search_png_size@l(11)
	lis 11,taskbar_search_gray_png_size@ha
	lwz 27,taskbar_search_gray_png_size@l(11)
	lis 11,taskbar_unlocked_png_size@ha
	lwz 28,taskbar_unlocked_png_size@l(11)
	lis 11,taskbar_unlocked_gray_png_size@ha
	lwz 29,taskbar_unlocked_gray_png_size@l(11)
	lis 11,taskbar_usb_png_size@ha
	lwz 30,taskbar_usb_png_size@l(11)
	lis 11,taskbar_usb_gray_png_size@ha
	lwz 31,taskbar_usb_gray_png_size@l(11)
	lis 11,taskbar_wii_png_size@ha
	lwz 12,taskbar_wii_png_size@l(11)
	lis 11,taskbar_wii_gray_png_size@ha
	stw 3,2548(9)
	lwz 3,taskbar_wii_gray_png_size@l(11)
	lis 11,textpointer_img_png_size@ha
	stw 4,2568(9)
	lwz 4,textpointer_img_png_size@l(11)
	lis 11,textreader_box_png_size@ha
	stw 5,2588(9)
	lwz 5,textreader_box_png_size@l(11)
	lis 11,theme_box_png_size@ha
	stw 6,2608(9)
	lwz 6,theme_box_png_size@l(11)
	lis 11,theme_dialogue_box_png_size@ha
	stw 7,2628(9)
	lwz 7,theme_dialogue_box_png_size@l(11)
	lis 11,tooltip_left_png_size@ha
	stw 8,2648(9)
	lwz 8,tooltip_left_png_size@l(11)
	lis 11,tooltip_right_png_size@ha
	stw 10,2668(9)
	lwz 10,tooltip_right_png_size@l(11)
	lis 11,tooltip_tile_png_size@ha
	lwz 11,tooltip_tile_png_size@l(11)
	stw 0,2708(9)
	stw 25,2728(9)
	lwz 0,bg_music_ogg_size@l(24)
	stw 26,2748(9)
	stw 27,2768(9)
	stw 28,2788(9)
	stw 29,2808(9)
	stw 30,2828(9)
	stw 31,2848(9)
	stw 12,2868(9)
	stw 11,3028(9)
	lis 11,button_click_wav_size@ha
	stw 5,2928(9)
	lwz 5,button_click_wav_size@l(11)
	lis 11,button_over_wav_size@ha
	stw 6,2948(9)
	lwz 6,button_over_wav_size@l(11)
	lis 11,credits_music_ogg_size@ha
	stw 7,2968(9)
	lwz 7,credits_music_ogg_size@l(11)
	lis 11,menuin_ogg_size@ha
	stw 8,2988(9)
	lwz 8,menuin_ogg_size@l(11)
	lis 11,menuout_ogg_size@ha
	stw 4,2908(9)
	lis 4,font_ttf_size@ha
	stw 10,3008(9)
	lwz 10,menuout_ogg_size@l(11)
	lis 11,clock_ttf_size@ha
	stw 0,3048(9)
	lwz 11,clock_ttf_size@l(11)
	lwz 0,font_ttf_size@l(4)
.LBE6773:
.LBE6782:
	.loc 2 266 0
	lwz 24,8(1)
	lwz 25,12(1)
	lwz 26,16(1)
	lwz 27,20(1)
	lwz 28,24(1)
	lwz 29,28(1)
	lwz 30,32(1)
	lwz 31,36(1)
.LBB6783:
.LBB6774:
	.loc 8 666 0
	stw 3,2888(9)
	stw 5,3068(9)
	stw 6,3088(9)
	stw 7,3108(9)
	stw 8,3128(9)
	stw 10,3148(9)
	stw 11,3168(9)
	stw 0,3188(9)
.LBE6774:
.LBE6783:
	.loc 2 266 0
	addi 1,1,40
.LCFI101:
	.cfi_def_cfa_offset 0
	.cfi_restore 31
	.cfi_restore 30
	.cfi_restore 29
	.cfi_restore 28
	.cfi_restore 27
	.cfi_restore 26
	.cfi_restore 25
	.cfi_restore 24
	blr
	.cfi_endproc
.LFE2329:
	.size	_GLOBAL__sub_I__ZN9Resources8instanceE, .-_GLOBAL__sub_I__ZN9Resources8instanceE
	.section	.ctors,"aw",@progbits
	.align 2
	.long	_GLOBAL__sub_I__ZN9Resources8instanceE
	.globl _ZN9Resources8instanceE
	.globl _ZN9ResourcesD1Ev
	.set	_ZN9ResourcesD1Ev,_ZN9ResourcesD2Ev
	.section	".data"
	.align 2
	.set	.LANCHOR0,. + 0
	.type	_ZL12RecourceList, @object
	.size	_ZL12RecourceList, 3220
_ZL12RecourceList:
	.long	.LC1
	.long	arrow_left_png
	.zero	4
	.long	0
	.long	0
	.long	.LC2
	.long	arrow_right_png
	.zero	4
	.long	0
	.long	0
	.long	.LC3
	.long	browser_png
	.zero	4
	.long	0
	.long	0
	.long	.LC4
	.long	browser_bg_selection_png
	.zero	4
	.long	0
	.long	0
	.long	.LC5
	.long	browser_entry_bg_png
	.zero	4
	.long	0
	.long	0
	.long	.LC6
	.long	browser_options_png
	.zero	4
	.long	0
	.long	0
	.long	.LC7
	.long	browser_select_png
	.zero	4
	.long	0
	.long	0
	.long	.LC8
	.long	browser_select_button_box_png
	.zero	4
	.long	0
	.long	0
	.long	.LC9
	.long	browser_separator_png
	.zero	4
	.long	0
	.long	0
	.long	.LC10
	.long	button_png
	.zero	4
	.long	0
	.long	0
	.long	.LC11
	.long	button_close_png
	.zero	4
	.long	0
	.long	0
	.long	.LC12
	.long	button_close_over_png
	.zero	4
	.long	0
	.long	0
	.long	.LC13
	.long	button_valid_png
	.zero	4
	.long	0
	.long	0
	.long	.LC14
	.long	button_valid_over_png
	.zero	4
	.long	0
	.long	0
	.long	.LC15
	.long	button_wifi_png
	.zero	4
	.long	0
	.long	0
	.long	.LC16
	.long	button_wifi_over_png
	.zero	4
	.long	0
	.long	0
	.long	.LC17
	.long	credits_bg_png
	.zero	4
	.long	0
	.long	0
	.long	.LC18
	.long	credits_little_star_png
	.zero	4
	.long	0
	.long	0
	.long	.LC19
	.long	deviceselection_png
	.zero	4
	.long	0
	.long	0
	.long	.LC20
	.long	device_choose_center_png
	.zero	4
	.long	0
	.long	0
	.long	.LC21
	.long	device_choose_left_png
	.zero	4
	.long	0
	.long	0
	.long	.LC22
	.long	device_choose_right_png
	.zero	4
	.long	0
	.long	0
	.long	.LC23
	.long	device_choose_sd_png
	.zero	4
	.long	0
	.long	0
	.long	.LC24
	.long	device_choose_usb_png
	.zero	4
	.long	0
	.long	0
	.long	.LC25
	.long	dialogue_box_png
	.zero	4
	.long	0
	.long	0
	.long	.LC26
	.long	homemenu_battery_bar_red_png
	.zero	4
	.long	0
	.long	0
	.long	.LC27
	.long	homemenu_battery_bar_white_png
	.zero	4
	.long	0
	.long	0
	.long	.LC28
	.long	homemenu_battery_red_png
	.zero	4
	.long	0
	.long	0
	.long	.LC29
	.long	homemenu_battery_white_png
	.zero	4
	.long	0
	.long	0
	.long	.LC30
	.long	homemenu_bottom_png
	.zero	4
	.long	0
	.long	0
	.long	.LC31
	.long	homemenu_bottom_over_png
	.zero	4
	.long	0
	.long	0
	.long	.LC32
	.long	homemenu_button_png
	.zero	4
	.long	0
	.long	0
	.long	.LC33
	.long	homemenu_close_png
	.zero	4
	.long	0
	.long	0
	.long	.LC34
	.long	homemenu_settings_bg_png
	.zero	4
	.long	0
	.long	0
	.long	.LC35
	.long	homemenu_top_png
	.zero	4
	.long	0
	.long	0
	.long	.LC36
	.long	homemenu_top_over_png
	.zero	4
	.long	0
	.long	0
	.long	.LC37
	.long	homemenu_wiimote_png
	.zero	4
	.long	0
	.long	0
	.long	.LC38
	.long	home_settings_button_png
	.zero	4
	.long	0
	.long	0
	.long	.LC39
	.long	home_settings_button_over_png
	.zero	4
	.long	0
	.long	0
	.long	.LC40
	.long	icon_brows_cfg_png
	.zero	4
	.long	0
	.long	0
	.long	.LC41
	.long	icon_brows_databin_png
	.zero	4
	.long	0
	.long	0
	.long	.LC42
	.long	icon_brows_default_png
	.zero	4
	.long	0
	.long	0
	.long	.LC43
	.long	icon_brows_exe_png
	.zero	4
	.long	0
	.long	0
	.long	.LC44
	.long	icon_brows_folder_png
	.zero	4
	.long	0
	.long	0
	.long	.LC45
	.long	icon_brows_font_png
	.zero	4
	.long	0
	.long	0
	.long	.LC46
	.long	icon_brows_img_png
	.zero	4
	.long	0
	.long	0
	.long	.LC47
	.long	icon_brows_lang_png
	.zero	4
	.long	0
	.long	0
	.long	.LC48
	.long	icon_brows_mii_png
	.zero	4
	.long	0
	.long	0
	.long	.LC49
	.long	icon_brows_nosave_png
	.zero	4
	.long	0
	.long	0
	.long	.LC50
	.long	icon_brows_save_png
	.zero	4
	.long	0
	.long	0
	.long	.LC51
	.long	icon_brows_sound_png
	.zero	4
	.long	0
	.long	0
	.long	.LC52
	.long	icon_brows_theme_png
	.zero	4
	.long	0
	.long	0
	.long	.LC53
	.long	icon_brows_txt_png
	.zero	4
	.long	0
	.long	0
	.long	.LC54
	.long	icon_brows_xml_png
	.zero	4
	.long	0
	.long	0
	.long	.LC55
	.long	icon_type_channel_png
	.zero	4
	.long	0
	.long	0
	.long	.LC56
	.long	icon_type_gamecube_png
	.zero	4
	.long	0
	.long	0
	.long	.LC57
	.long	icon_type_unknow_png
	.zero	4
	.long	0
	.long	0
	.long	.LC58
	.long	icon_type_vc_arcade_png
	.zero	4
	.long	0
	.long	0
	.long	.LC59
	.long	icon_type_vc_c64_png
	.zero	4
	.long	0
	.long	0
	.long	.LC60
	.long	icon_type_vc_md_png
	.zero	4
	.long	0
	.long	0
	.long	.LC61
	.long	icon_type_vc_n64_png
	.zero	4
	.long	0
	.long	0
	.long	.LC62
	.long	icon_type_vc_neogeo_png
	.zero	4
	.long	0
	.long	0
	.long	.LC63
	.long	icon_type_vc_nes_png
	.zero	4
	.long	0
	.long	0
	.long	.LC64
	.long	icon_type_vc_pce_png
	.zero	4
	.long	0
	.long	0
	.long	.LC65
	.long	icon_type_vc_sms_png
	.zero	4
	.long	0
	.long	0
	.long	.LC66
	.long	icon_type_vc_snes_png
	.zero	4
	.long	0
	.long	0
	.long	.LC67
	.long	icon_type_wii_png
	.zero	4
	.long	0
	.long	0
	.long	.LC68
	.long	icon_type_wiiware_png
	.zero	4
	.long	0
	.long	0
	.long	.LC69
	.long	keyboard_backspace_over_png
	.zero	4
	.long	0
	.long	0
	.long	.LC70
	.long	keyboard_clear_over_png
	.zero	4
	.long	0
	.long	0
	.long	.LC71
	.long	keyboard_key_png
	.zero	4
	.long	0
	.long	0
	.long	.LC72
	.long	keyboard_key_over_png
	.zero	4
	.long	0
	.long	0
	.long	.LC73
	.long	keyboard_largekey_png
	.zero	4
	.long	0
	.long	0
	.long	.LC74
	.long	keyboard_largekey_over_png
	.zero	4
	.long	0
	.long	0
	.long	.LC75
	.long	keyboard_mediumkey_png
	.zero	4
	.long	0
	.long	0
	.long	.LC76
	.long	keyboard_mediumkey_over_png
	.zero	4
	.long	0
	.long	0
	.long	.LC77
	.long	keyboard_textbox_png
	.zero	4
	.long	0
	.long	0
	.long	.LC78
	.long	logo_SGMGX_png
	.zero	4
	.long	0
	.long	0
	.long	.LC79
	.long	menu_background_png
	.zero	4
	.long	0
	.long	0
	.long	.LC80
	.long	menu_button_music_png
	.zero	4
	.long	0
	.long	0
	.long	.LC81
	.long	menu_button_music_over_png
	.zero	4
	.long	0
	.long	0
	.long	.LC82
	.long	menu_button_sdcard_png
	.zero	4
	.long	0
	.long	0
	.long	.LC83
	.long	menu_button_sdcard_gray_png
	.zero	4
	.long	0
	.long	0
	.long	.LC84
	.long	menu_button_sdcard_over_png
	.zero	4
	.long	0
	.long	0
	.long	.LC85
	.long	menu_button_settings_png
	.zero	4
	.long	0
	.long	0
	.long	.LC86
	.long	menu_button_settings_over_png
	.zero	4
	.long	0
	.long	0
	.long	.LC87
	.long	menu_button_switch_png
	.zero	4
	.long	0
	.long	0
	.long	.LC88
	.long	menu_button_switch_over_png
	.zero	4
	.long	0
	.long	0
	.long	.LC89
	.long	menu_button_wii_png
	.zero	4
	.long	0
	.long	0
	.long	.LC90
	.long	menu_button_wii_over_png
	.zero	4
	.long	0
	.long	0
	.long	.LC91
	.long	menu_wbackground_png
	.zero	4
	.long	0
	.long	0
	.long	.LC92
	.long	music_nav_default_png
	.zero	4
	.long	0
	.long	0
	.long	.LC93
	.long	music_nav_down_png
	.zero	4
	.long	0
	.long	0
	.long	.LC94
	.long	music_nav_left_png
	.zero	4
	.long	0
	.long	0
	.long	.LC95
	.long	music_nav_right_png
	.zero	4
	.long	0
	.long	0
	.long	.LC96
	.long	music_nav_up_png
	.zero	4
	.long	0
	.long	0
	.long	.LC97
	.long	music_player_png
	.zero	4
	.long	0
	.long	0
	.long	.LC98
	.long	music_playlist_png
	.zero	4
	.long	0
	.long	0
	.long	.LC99
	.long	player1_point_png
	.zero	4
	.long	0
	.long	0
	.long	.LC100
	.long	player2_point_png
	.zero	4
	.long	0
	.long	0
	.long	.LC101
	.long	player3_point_png
	.zero	4
	.long	0
	.long	0
	.long	.LC102
	.long	player4_point_png
	.zero	4
	.long	0
	.long	0
	.long	.LC103
	.long	progress_bar_png
	.zero	4
	.long	0
	.long	0
	.long	.LC104
	.long	progress_bar_empty_png
	.zero	4
	.long	0
	.long	0
	.long	.LC105
	.long	progress_bar_outline_png
	.zero	4
	.long	0
	.long	0
	.long	.LC106
	.long	progress_bar_startup_empty_png
	.zero	4
	.long	0
	.long	0
	.long	.LC107
	.long	progress_bar_startup_outline_png
	.zero	4
	.long	0
	.long	0
	.long	.LC108
	.long	progress_throbber_png
	.zero	4
	.long	0
	.long	0
	.long	.LC109
	.long	scrollbar_arrowdown_png
	.zero	4
	.long	0
	.long	0
	.long	.LC110
	.long	scrollbar_arrowup_png
	.zero	4
	.long	0
	.long	0
	.long	.LC111
	.long	scrollbar_bottom_png
	.zero	4
	.long	0
	.long	0
	.long	.LC112
	.long	scrollbar_box_png
	.zero	4
	.long	0
	.long	0
	.long	.LC113
	.long	scrollbar_custom_bottom_png
	.zero	4
	.long	0
	.long	0
	.long	.LC114
	.long	scrollbar_custom_tile_png
	.zero	4
	.long	0
	.long	0
	.long	.LC115
	.long	scrollbar_custom_top_png
	.zero	4
	.long	0
	.long	0
	.long	.LC116
	.long	scrollbar_tile_png
	.zero	4
	.long	0
	.long	0
	.long	.LC117
	.long	scrollbar_top_png
	.zero	4
	.long	0
	.long	0
	.long	.LC118
	.long	scroll_one_button_png
	.zero	4
	.long	0
	.long	0
	.long	.LC119
	.long	settings_background_png
	.zero	4
	.long	0
	.long	0
	.long	.LC120
	.long	settings_credits_title_png
	.zero	4
	.long	0
	.long	0
	.long	.LC121
	.long	settings_credits_title_over_png
	.zero	4
	.long	0
	.long	0
	.long	.LC122
	.long	settings_menu_button_png
	.zero	4
	.long	0
	.long	0
	.long	.LC123
	.long	settings_pageindicator_png
	.zero	4
	.long	0
	.long	0
	.long	.LC124
	.long	settings_title_png
	.zero	4
	.long	0
	.long	0
	.long	.LC125
	.long	settings_title_over_png
	.zero	4
	.long	0
	.long	0
	.long	.LC126
	.long	storage_sd_png
	.zero	4
	.long	0
	.long	0
	.long	.LC127
	.long	storage_usb_png
	.zero	4
	.long	0
	.long	0
	.long	.LC128
	.long	taskbar_arrangeIcon_png
	.zero	4
	.long	0
	.long	0
	.long	.LC129
	.long	taskbar_arrangeIcon_gray_png
	.zero	4
	.long	0
	.long	0
	.long	.LC130
	.long	taskbar_arrangeList_png
	.zero	4
	.long	0
	.long	0
	.long	.LC131
	.long	taskbar_arrangeList_gray_png
	.zero	4
	.long	0
	.long	0
	.long	.LC132
	.long	taskbar_locked_png
	.zero	4
	.long	0
	.long	0
	.long	.LC133
	.long	taskbar_locked_gray_png
	.zero	4
	.long	0
	.long	0
	.long	.LC134
	.long	taskbar_mii_png
	.zero	4
	.long	0
	.long	0
	.long	.LC135
	.long	taskbar_mii_gray_png
	.zero	4
	.long	0
	.long	0
	.long	.LC136
	.long	taskbar_sd_png
	.zero	4
	.long	0
	.long	0
	.long	.LC137
	.long	taskbar_sd_gray_png
	.zero	4
	.long	0
	.long	0
	.long	.LC138
	.long	taskbar_search_png
	.zero	4
	.long	0
	.long	0
	.long	.LC139
	.long	taskbar_search_gray_png
	.zero	4
	.long	0
	.long	0
	.long	.LC140
	.long	taskbar_unlocked_png
	.zero	4
	.long	0
	.long	0
	.long	.LC141
	.long	taskbar_unlocked_gray_png
	.zero	4
	.long	0
	.long	0
	.long	.LC142
	.long	taskbar_usb_png
	.zero	4
	.long	0
	.long	0
	.long	.LC143
	.long	taskbar_usb_gray_png
	.zero	4
	.long	0
	.long	0
	.long	.LC144
	.long	taskbar_wii_png
	.zero	4
	.long	0
	.long	0
	.long	.LC145
	.long	taskbar_wii_gray_png
	.zero	4
	.long	0
	.long	0
	.long	.LC146
	.long	textpointer_img_png
	.zero	4
	.long	0
	.long	0
	.long	.LC147
	.long	textreader_box_png
	.zero	4
	.long	0
	.long	0
	.long	.LC148
	.long	theme_box_png
	.zero	4
	.long	0
	.long	0
	.long	.LC149
	.long	theme_dialogue_box_png
	.zero	4
	.long	0
	.long	0
	.long	.LC150
	.long	tooltip_left_png
	.zero	4
	.long	0
	.long	0
	.long	.LC151
	.long	tooltip_right_png
	.zero	4
	.long	0
	.long	0
	.long	.LC152
	.long	tooltip_tile_png
	.zero	4
	.long	0
	.long	0
	.long	.LC153
	.long	bg_music_ogg
	.zero	4
	.long	0
	.long	0
	.long	.LC154
	.long	button_click_wav
	.zero	4
	.long	0
	.long	0
	.long	.LC155
	.long	button_over_wav
	.zero	4
	.long	0
	.long	0
	.long	.LC156
	.long	credits_music_ogg
	.zero	4
	.long	0
	.long	0
	.long	.LC157
	.long	menuin_ogg
	.zero	4
	.long	0
	.long	0
	.long	.LC158
	.long	menuout_ogg
	.zero	4
	.long	0
	.long	0
	.long	.LC159
	.long	clock_ttf
	.zero	4
	.long	0
	.long	0
	.long	.LC160
	.long	font_ttf
	.zero	4
	.long	0
	.long	0
	.long	0
	.long	0
	.long	0
	.long	0
	.long	0
	.section	.rodata.str1.4,"aMS",@progbits,1
	.align 2
.LC0:
	.string	"%s/%s"
	.zero	2
.LC1:
	.string	"arrow_left.png"
	.zero	1
.LC2:
	.string	"arrow_right.png"
.LC3:
	.string	"browser.png"
.LC4:
	.string	"browser_bg_selection.png"
	.zero	3
.LC5:
	.string	"browser_entry_bg.png"
	.zero	3
.LC6:
	.string	"browser_options.png"
.LC7:
	.string	"browser_select.png"
	.zero	1
.LC8:
	.string	"browser_select_button_box.png"
	.zero	2
.LC9:
	.string	"browser_separator.png"
	.zero	2
.LC10:
	.string	"button.png"
	.zero	1
.LC11:
	.string	"button_close.png"
	.zero	3
.LC12:
	.string	"button_close_over.png"
	.zero	2
.LC13:
	.string	"button_valid.png"
	.zero	3
.LC14:
	.string	"button_valid_over.png"
	.zero	2
.LC15:
	.string	"button_wifi.png"
.LC16:
	.string	"button_wifi_over.png"
	.zero	3
.LC17:
	.string	"credits_bg.png"
	.zero	1
.LC18:
	.string	"credits_little_star.png"
.LC19:
	.string	"deviceselection.png"
.LC20:
	.string	"device_choose_center.png"
	.zero	3
.LC21:
	.string	"device_choose_left.png"
	.zero	1
.LC22:
	.string	"device_choose_right.png"
.LC23:
	.string	"device_choose_sd.png"
	.zero	3
.LC24:
	.string	"device_choose_usb.png"
	.zero	2
.LC25:
	.string	"dialogue_box.png"
	.zero	3
.LC26:
	.string	"homemenu_battery_bar_red.png"
	.zero	3
.LC27:
	.string	"homemenu_battery_bar_white.png"
	.zero	1
.LC28:
	.string	"homemenu_battery_red.png"
	.zero	3
.LC29:
	.string	"homemenu_battery_white.png"
	.zero	1
.LC30:
	.string	"homemenu_bottom.png"
.LC31:
	.string	"homemenu_bottom_over.png"
	.zero	3
.LC32:
	.string	"homemenu_button.png"
.LC33:
	.string	"homemenu_close.png"
	.zero	1
.LC34:
	.string	"homemenu_settings_bg.png"
	.zero	3
.LC35:
	.string	"homemenu_top.png"
	.zero	3
.LC36:
	.string	"homemenu_top_over.png"
	.zero	2
.LC37:
	.string	"homemenu_wiimote.png"
	.zero	3
.LC38:
	.string	"home_settings_button.png"
	.zero	3
.LC39:
	.string	"home_settings_button_over.png"
	.zero	2
.LC40:
	.string	"icon_brows_cfg.png"
	.zero	1
.LC41:
	.string	"icon_brows_databin.png"
	.zero	1
.LC42:
	.string	"icon_brows_default.png"
	.zero	1
.LC43:
	.string	"icon_brows_exe.png"
	.zero	1
.LC44:
	.string	"icon_brows_folder.png"
	.zero	2
.LC45:
	.string	"icon_brows_font.png"
.LC46:
	.string	"icon_brows_img.png"
	.zero	1
.LC47:
	.string	"icon_brows_lang.png"
.LC48:
	.string	"icon_brows_mii.png"
	.zero	1
.LC49:
	.string	"icon_brows_nosave.png"
	.zero	2
.LC50:
	.string	"icon_brows_save.png"
.LC51:
	.string	"icon_brows_sound.png"
	.zero	3
.LC52:
	.string	"icon_brows_theme.png"
	.zero	3
.LC53:
	.string	"icon_brows_txt.png"
	.zero	1
.LC54:
	.string	"icon_brows_xml.png"
	.zero	1
.LC55:
	.string	"icon_type_channel.png"
	.zero	2
.LC56:
	.string	"icon_type_gamecube.png"
	.zero	1
.LC57:
	.string	"icon_type_unknow.png"
	.zero	3
.LC58:
	.string	"icon_type_vc_arcade.png"
.LC59:
	.string	"icon_type_vc_c64.png"
	.zero	3
.LC60:
	.string	"icon_type_vc_md.png"
.LC61:
	.string	"icon_type_vc_n64.png"
	.zero	3
.LC62:
	.string	"icon_type_vc_neogeo.png"
.LC63:
	.string	"icon_type_vc_nes.png"
	.zero	3
.LC64:
	.string	"icon_type_vc_pce.png"
	.zero	3
.LC65:
	.string	"icon_type_vc_sms.png"
	.zero	3
.LC66:
	.string	"icon_type_vc_snes.png"
	.zero	2
.LC67:
	.string	"icon_type_wii.png"
	.zero	2
.LC68:
	.string	"icon_type_wiiware.png"
	.zero	2
.LC69:
	.string	"keyboard_backspace_over.png"
.LC70:
	.string	"keyboard_clear_over.png"
.LC71:
	.string	"keyboard_key.png"
	.zero	3
.LC72:
	.string	"keyboard_key_over.png"
	.zero	2
.LC73:
	.string	"keyboard_largekey.png"
	.zero	2
.LC74:
	.string	"keyboard_largekey_over.png"
	.zero	1
.LC75:
	.string	"keyboard_mediumkey.png"
	.zero	1
.LC76:
	.string	"keyboard_mediumkey_over.png"
.LC77:
	.string	"keyboard_textbox.png"
	.zero	3
.LC78:
	.string	"logo_SGMGX.png"
	.zero	1
.LC79:
	.string	"menu_background.png"
.LC80:
	.string	"menu_button_music.png"
	.zero	2
.LC81:
	.string	"menu_button_music_over.png"
	.zero	1
.LC82:
	.string	"menu_button_sdcard.png"
	.zero	1
.LC83:
	.string	"menu_button_sdcard_gray.png"
.LC84:
	.string	"menu_button_sdcard_over.png"
.LC85:
	.string	"menu_button_settings.png"
	.zero	3
.LC86:
	.string	"menu_button_settings_over.png"
	.zero	2
.LC87:
	.string	"menu_button_switch.png"
	.zero	1
.LC88:
	.string	"menu_button_switch_over.png"
.LC89:
	.string	"menu_button_wii.png"
.LC90:
	.string	"menu_button_wii_over.png"
	.zero	3
.LC91:
	.string	"menu_wbackground.png"
	.zero	3
.LC92:
	.string	"music_nav_default.png"
	.zero	2
.LC93:
	.string	"music_nav_down.png"
	.zero	1
.LC94:
	.string	"music_nav_left.png"
	.zero	1
.LC95:
	.string	"music_nav_right.png"
.LC96:
	.string	"music_nav_up.png"
	.zero	3
.LC97:
	.string	"music_player.png"
	.zero	3
.LC98:
	.string	"music_playlist.png"
	.zero	1
.LC99:
	.string	"player1_point.png"
	.zero	2
.LC100:
	.string	"player2_point.png"
	.zero	2
.LC101:
	.string	"player3_point.png"
	.zero	2
.LC102:
	.string	"player4_point.png"
	.zero	2
.LC103:
	.string	"progress_bar.png"
	.zero	3
.LC104:
	.string	"progress_bar_empty.png"
	.zero	1
.LC105:
	.string	"progress_bar_outline.png"
	.zero	3
.LC106:
	.string	"progress_bar_startup_empty.png"
	.zero	1
.LC107:
	.string	"progress_bar_startup_outline.png"
	.zero	3
.LC108:
	.string	"progress_throbber.png"
	.zero	2
.LC109:
	.string	"scrollbar_arrowdown.png"
.LC110:
	.string	"scrollbar_arrowup.png"
	.zero	2
.LC111:
	.string	"scrollbar_bottom.png"
	.zero	3
.LC112:
	.string	"scrollbar_box.png"
	.zero	2
.LC113:
	.string	"scrollbar_custom_bottom.png"
.LC114:
	.string	"scrollbar_custom_tile.png"
	.zero	2
.LC115:
	.string	"scrollbar_custom_top.png"
	.zero	3
.LC116:
	.string	"scrollbar_tile.png"
	.zero	1
.LC117:
	.string	"scrollbar_top.png"
	.zero	2
.LC118:
	.string	"scroll_one_button.png"
	.zero	2
.LC119:
	.string	"settings_background.png"
.LC120:
	.string	"settings_credits_title.png"
	.zero	1
.LC121:
	.string	"settings_credits_title_over.png"
.LC122:
	.string	"settings_menu_button.png"
	.zero	3
.LC123:
	.string	"settings_pageindicator.png"
	.zero	1
.LC124:
	.string	"settings_title.png"
	.zero	1
.LC125:
	.string	"settings_title_over.png"
.LC126:
	.string	"storage_sd.png"
	.zero	1
.LC127:
	.string	"storage_usb.png"
.LC128:
	.string	"taskbar_arrangeIcon.png"
.LC129:
	.string	"taskbar_arrangeIcon_gray.png"
	.zero	3
.LC130:
	.string	"taskbar_arrangeList.png"
.LC131:
	.string	"taskbar_arrangeList_gray.png"
	.zero	3
.LC132:
	.string	"taskbar_locked.png"
	.zero	1
.LC133:
	.string	"taskbar_locked_gray.png"
.LC134:
	.string	"taskbar_mii.png"
.LC135:
	.string	"taskbar_mii_gray.png"
	.zero	3
.LC136:
	.string	"taskbar_sd.png"
	.zero	1
.LC137:
	.string	"taskbar_sd_gray.png"
.LC138:
	.string	"taskbar_search.png"
	.zero	1
.LC139:
	.string	"taskbar_search_gray.png"
.LC140:
	.string	"taskbar_unlocked.png"
	.zero	3
.LC141:
	.string	"taskbar_unlocked_gray.png"
	.zero	2
.LC142:
	.string	"taskbar_usb.png"
.LC143:
	.string	"taskbar_usb_gray.png"
	.zero	3
.LC144:
	.string	"taskbar_wii.png"
.LC145:
	.string	"taskbar_wii_gray.png"
	.zero	3
.LC146:
	.string	"textpointer_img.png"
.LC147:
	.string	"textreader_box.png"
	.zero	1
.LC148:
	.string	"theme_box.png"
	.zero	2
.LC149:
	.string	"theme_dialogue_box.png"
	.zero	1
.LC150:
	.string	"tooltip_left.png"
	.zero	3
.LC151:
	.string	"tooltip_right.png"
	.zero	2
.LC152:
	.string	"tooltip_tile.png"
	.zero	3
.LC153:
	.string	"bg_music.ogg"
	.zero	3
.LC154:
	.string	"button_click.wav"
	.zero	3
.LC155:
	.string	"button_over.wav"
.LC156:
	.string	"credits_music.ogg"
	.zero	2
.LC157:
	.string	"menuin.ogg"
	.zero	1
.LC158:
	.string	"menuout.ogg"
.LC159:
	.string	"clock.ttf"
	.zero	2
.LC160:
	.string	"font.ttf"
	.section	.sbss,"aw",@nobits
	.align 2
	.type	_ZN9Resources8instanceE, @object
	.size	_ZN9Resources8instanceE, 4
_ZN9Resources8instanceE:
	.zero	4
	.section	".text"
.Letext0:
	.file 9 "d:\\devkitpro\\devkitppc\\bin\\../lib/gcc/powerpc-eabi/4.6.3/../../../../powerpc-eabi/include/c++/4.6.3/cwchar"
	.file 10 "d:\\devkitpro\\devkitppc\\bin\\../lib/gcc/powerpc-eabi/4.6.3/../../../../powerpc-eabi/include/c++/4.6.3/powerpc-eabi/bits/c++config.h"
	.file 11 "d:\\devkitpro\\devkitppc\\bin\\../lib/gcc/powerpc-eabi/4.6.3/../../../../powerpc-eabi/include/c++/4.6.3/clocale"
	.file 12 "d:\\devkitpro\\devkitppc\\bin\\../lib/gcc/powerpc-eabi/4.6.3/../../../../powerpc-eabi/include/c++/4.6.3/bits/stl_list.h"
	.file 13 "d:\\devkitpro\\devkitppc\\bin\\../lib/gcc/powerpc-eabi/4.6.3/../../../../powerpc-eabi/include/c++/4.6.3/bits/move.h"
	.file 14 "d:\\devkitpro\\devkitppc\\bin\\../lib/gcc/powerpc-eabi/4.6.3/../../../../powerpc-eabi/include/c++/4.6.3/bits/cpp_type_traits.h"
	.file 15 "d:\\devkitpro\\devkitppc\\bin\\../lib/gcc/powerpc-eabi/4.6.3/../../../../powerpc-eabi/include/c++/4.6.3/debug/debug.h"
	.file 16 "d:\\devkitpro\\devkitppc\\bin\\../lib/gcc/powerpc-eabi/4.6.3/../../../../powerpc-eabi/include/machine/_types.h"
	.file 17 "d:\\devkitpro\\devkitppc\\bin\\../lib/gcc/powerpc-eabi/4.6.3/../../../../powerpc-eabi/include/sys/lock.h"
	.file 18 "d:\\devkitpro\\devkitppc\\bin\\../lib/gcc/powerpc-eabi/4.6.3/include/stddef.h"
	.file 19 "d:\\devkitpro\\devkitppc\\bin\\../lib/gcc/powerpc-eabi/4.6.3/../../../../powerpc-eabi/include/sys/_types.h"
	.file 20 "d:\\devkitpro\\devkitppc\\bin\\../lib/gcc/powerpc-eabi/4.6.3/../../../../powerpc-eabi/include/sys/reent.h"
	.file 21 "<built-in>"
	.file 22 "d:\\devkitpro\\devkitppc\\bin\\../lib/gcc/powerpc-eabi/4.6.3/../../../../powerpc-eabi/include/wchar.h"
	.file 23 "d:\\devkitpro\\devkitppc\\bin\\../lib/gcc/powerpc-eabi/4.6.3/../../../../powerpc-eabi/include/time.h"
	.file 24 "d:\\devkitpro\\devkitppc\\bin\\../lib/gcc/powerpc-eabi/4.6.3/../../../../powerpc-eabi/include/c++/4.6.3/bits/char_traits.h"
	.file 25 "d:\\devkitpro\\devkitppc\\bin\\../lib/gcc/powerpc-eabi/4.6.3/../../../../powerpc-eabi/include/c++/4.6.3/bits/allocator.h"
	.file 26 "d:\\devkitpro\\devkitppc\\bin\\../lib/gcc/powerpc-eabi/4.6.3/../../../../powerpc-eabi/include/locale.h"
	.file 27 "d:\\devkitpro\\devkitppc\\bin\\../lib/gcc/powerpc-eabi/4.6.3/../../../../powerpc-eabi/include/c++/4.6.3/powerpc-eabi/bits/atomic_word.h"
	.file 28 "d:\\devkitpro\\devkitppc\\bin\\../lib/gcc/powerpc-eabi/4.6.3/../../../../powerpc-eabi/include/c++/4.6.3/ext/numeric_traits.h"
	.file 29 "d:\\devkitpro\\devkitppc\\bin\\../lib/gcc/powerpc-eabi/4.6.3/../../../../powerpc-eabi/include/c++/4.6.3/bits/basic_string.tcc"
	.file 30 "d:\\devkitpro\\devkitppc\\bin\\../lib/gcc/powerpc-eabi/4.6.3/../../../../powerpc-eabi/include/stdint.h"
	.file 31 "d:/devkitPro/libogc/include/gctypes.h"
	.file 32 "d:/devkitPro/libogc/include/ogc/gx.h"
	.file 33 "d:\\devkitpro\\devkitppc\\bin\\../lib/gcc/powerpc-eabi/4.6.3/../../../../powerpc-eabi/include/c++/4.6.3/bits/stl_iterator_base_types.h"
	.file 34 "d:\\devkitpro\\devkitppc\\bin\\../lib/gcc/powerpc-eabi/4.6.3/../../../../powerpc-eabi/include/c++/4.6.3/bits/stl_iterator.h"
	.file 35 "d:/Projects/SaveGameManager/savegame-manager-gx/trunk/source/GUI/../Tools/Rect.h"
	.file 36 "d:/Projects/SaveGameManager/savegame-manager-gx/trunk/source/GUI/../sigslot.h"
	.file 37 "d:\\devkitpro\\devkitppc\\bin\\../lib/gcc/powerpc-eabi/4.6.3/../../../../powerpc-eabi/include/c++/4.6.3/bits/list.tcc"
	.file 38 "d:\\devkitpro\\devkitppc\\bin\\../lib/gcc/powerpc-eabi/4.6.3/../../../../powerpc-eabi/include/c++/4.6.3/bits/stl_function.h"
	.file 39 "d:/Projects/SaveGameManager/savegame-manager-gx/trunk/source/Themes/Resources.h"
	.file 40 "d:\\devkitpro\\devkitppc\\bin\\../lib/gcc/powerpc-eabi/4.6.3/../../../../powerpc-eabi/include/c++/4.6.3/bits/stl_set.h"
	.file 41 "d:/Projects/SaveGameManager/savegame-manager-gx/trunk/source/GUI/gui_element.h"
	.file 42 "d:\\devkitpro\\devkitppc\\bin\\../lib/gcc/powerpc-eabi/4.6.3/../../../../powerpc-eabi/include/c++/4.6.3/new"