	.file	"ScreenSaver.cpp"
	.section	".text"
.Ltext0:
	.section	.text._ZN7sigslot15single_threadedD2Ev,"axG",@progbits,_ZN7sigslot15single_threadedD5Ev,comdat
	.align 2
	.weak	_ZN7sigslot15single_threadedD2Ev
	.type	_ZN7sigslot15single_threadedD2Ev, @function
_ZN7sigslot15single_threadedD2Ev:
.LFB1148:
	.file 1 "d:/Projects/SaveGameManager/savegame-manager-gx/trunk/source/Prompts/../GUI/../sigslot.h"
	.loc 1 104 0
	.cfi_startproc
.LVL0:
.LBB1816:
	.loc 1 105 0
	lis 9,_ZTVN7sigslot15single_threadedE+8@ha
.LBE1816:
	.loc 1 107 0
.LBB1817:
	.loc 1 105 0
	la 0,_ZTVN7sigslot15single_threadedE+8@l(9)
	stw 0,0(3)
.LBE1817:
	.loc 1 107 0
	blr
	.cfi_endproc
.LFE1148:
	.size	_ZN7sigslot15single_threadedD2Ev, .-_ZN7sigslot15single_threadedD2Ev
	.section	.text._ZN7sigslot15single_threaded4lockEv,"axG",@progbits,_ZN7sigslot15single_threaded4lockEv,comdat
	.align 2
	.weak	_ZN7sigslot15single_threaded4lockEv
	.type	_ZN7sigslot15single_threaded4lockEv, @function
_ZN7sigslot15single_threaded4lockEv:
.LFB1151:
	.loc 1 109 0
	.cfi_startproc
.LVL1:
	.loc 1 112 0
	blr
	.cfi_endproc
.LFE1151:
	.size	_ZN7sigslot15single_threaded4lockEv, .-_ZN7sigslot15single_threaded4lockEv
	.section	.text._ZN7sigslot15single_threaded6unlockEv,"axG",@progbits,_ZN7sigslot15single_threaded6unlockEv,comdat
	.align 2
	.weak	_ZN7sigslot15single_threaded6unlockEv
	.type	_ZN7sigslot15single_threaded6unlockEv, @function
_ZN7sigslot15single_threaded6unlockEv:
.LFB1152:
	.loc 1 114 0
	.cfi_startproc
.LVL2:
	.loc 1 117 0
	blr
	.cfi_endproc
.LFE1152:
	.size	_ZN7sigslot15single_threaded6unlockEv, .-_ZN7sigslot15single_threaded6unlockEv
	.section	.text._ZN10GuiElement9SetParentEPS_,"axG",@progbits,_ZN10GuiElement9SetParentEPS_,comdat
	.align 2
	.weak	_ZN10GuiElement9SetParentEPS_
	.type	_ZN10GuiElement9SetParentEPS_, @function
_ZN10GuiElement9SetParentEPS_:
.LFB1384:
	.file 2 "d:/Projects/SaveGameManager/savegame-manager-gx/trunk/source/Prompts/../GUI/gui_element.h"
	.loc 2 92 0
	.cfi_startproc
.LVL3:
	.loc 2 92 0
	stw 4,96(3)
	blr
	.cfi_endproc
.LFE1384:
	.size	_ZN10GuiElement9SetParentEPS_, .-_ZN10GuiElement9SetParentEPS_
	.section	.text._ZN10GuiElement9GetParentEv,"axG",@progbits,_ZN10GuiElement9GetParentEv,comdat
	.align 2
	.weak	_ZN10GuiElement9GetParentEv
	.type	_ZN10GuiElement9GetParentEv, @function
_ZN10GuiElement9GetParentEv:
.LFB1385:
	.loc 2 95 0
	.cfi_startproc
.LVL4:
	.loc 2 95 0
	lwz 3,96(3)
.LVL5:
	blr
	.cfi_endproc
.LFE1385:
	.size	_ZN10GuiElement9GetParentEv, .-_ZN10GuiElement9GetParentEv
	.section	.text._ZN10GuiElement12GetZPositionEv,"axG",@progbits,_ZN10GuiElement12GetZPositionEv,comdat
	.align 2
	.weak	_ZN10GuiElement12GetZPositionEv
	.type	_ZN10GuiElement12GetZPositionEv, @function
_ZN10GuiElement12GetZPositionEv:
.LFB1386:
	.loc 2 106 0
	.cfi_startproc
.LVL6:
	mflr 0
	stwu 1,-16(1)
.LCFI0:
	.cfi_def_cfa_offset 16
	.cfi_register 65, 0
	stw 31,12(1)
	mr 31,3
	.cfi_offset 31, -4
	stw 0,20(1)
.LBB1818:
	.loc 2 110 0
	lwz 11,96(3)
	.loc 2 108 0
	li 3,0
.LVL7:
	.loc 2 110 0
	cmpwi 7,11,0
	beq- 7,.L8
	.cfi_offset 65, 4
	.loc 2 111 0
	lwz 9,0(11)
	mr 3,11
	lwz 0,24(9)
	mtctr 0
	bctrl
.LVL8:
.L8:
	.loc 2 113 0
	lwz 0,52(31)
.LBE1818:
	.loc 2 114 0
	lwz 31,12(1)
.LVL9:
	add 3,3,0
.LVL10:
	lwz 0,20(1)
	addi 1,1,16
.LCFI1:
	.cfi_def_cfa_offset 0
	.cfi_restore 31
	mtlr 0
	blr
	.cfi_endproc
.LFE1386:
	.size	_ZN10GuiElement12GetZPositionEv, .-_ZN10GuiElement12GetZPositionEv
	.section	.text._ZN10GuiElement10GetLeftPosEv,"axG",@progbits,_ZN10GuiElement10GetLeftPosEv,comdat
	.align 2
	.weak	_ZN10GuiElement10GetLeftPosEv
	.type	_ZN10GuiElement10GetLeftPosEv, @function
_ZN10GuiElement10GetLeftPosEv:
.LFB1387:
	.loc 2 116 0
	.cfi_startproc
.LVL11:
	.loc 2 116 0
	lwz 3,44(3)
.LVL12:
	blr
	.cfi_endproc
.LFE1387:
	.size	_ZN10GuiElement10GetLeftPosEv, .-_ZN10GuiElement10GetLeftPosEv
	.section	.text._ZN10GuiElement9GetTopPosEv,"axG",@progbits,_ZN10GuiElement9GetTopPosEv,comdat
	.align 2
	.weak	_ZN10GuiElement9GetTopPosEv
	.type	_ZN10GuiElement9GetTopPosEv, @function
_ZN10GuiElement9GetTopPosEv:
.LFB1388:
	.loc 2 118 0
	.cfi_startproc
.LVL13:
	.loc 2 118 0
	lwz 3,48(3)
.LVL14:
	blr
	.cfi_endproc
.LFE1388:
	.size	_ZN10GuiElement9GetTopPosEv, .-_ZN10GuiElement9GetTopPosEv
	.section	.text._ZN10GuiElement8GetWidthEv,"axG",@progbits,_ZN10GuiElement8GetWidthEv,comdat
	.align 2
	.weak	_ZN10GuiElement8GetWidthEv
	.type	_ZN10GuiElement8GetWidthEv, @function
_ZN10GuiElement8GetWidthEv:
.LFB1389:
	.loc 2 121 0
	.cfi_startproc
.LVL15:
	.loc 2 121 0
	lwz 3,36(3)
.LVL16:
	blr
	.cfi_endproc
.LFE1389:
	.size	_ZN10GuiElement8GetWidthEv, .-_ZN10GuiElement8GetWidthEv
	.section	.text._ZN10GuiElement9GetHeightEv,"axG",@progbits,_ZN10GuiElement9GetHeightEv,comdat
	.align 2
	.weak	_ZN10GuiElement9GetHeightEv
	.type	_ZN10GuiElement9GetHeightEv, @function
_ZN10GuiElement9GetHeightEv:
.LFB1390:
	.loc 2 124 0
	.cfi_startproc
.LVL17:
	.loc 2 124 0
	lwz 3,40(3)
.LVL18:
	blr
	.cfi_endproc
.LFE1390:
	.size	_ZN10GuiElement9GetHeightEv, .-_ZN10GuiElement9GetHeightEv
	.section	.text._ZN10GuiElement7SetSizeEii,"axG",@progbits,_ZN10GuiElement7SetSizeEii,comdat
	.align 2
	.weak	_ZN10GuiElement7SetSizeEii
	.type	_ZN10GuiElement7SetSizeEii, @function
_ZN10GuiElement7SetSizeEii:
.LFB1391:
	.loc 2 128 0
	.cfi_startproc
.LVL19:
	.loc 2 130 0
	stw 4,36(3)
	.loc 2 132 0
	.loc 2 131 0
	stw 5,40(3)
	.loc 2 132 0
	blr
	.cfi_endproc
.LFE1391:
	.size	_ZN10GuiElement7SetSizeEii, .-_ZN10GuiElement7SetSizeEii
	.section	.text._ZN10GuiElement9IsVisibleEv,"axG",@progbits,_ZN10GuiElement9IsVisibleEv,comdat
	.align 2
	.weak	_ZN10GuiElement9IsVisibleEv
	.type	_ZN10GuiElement9IsVisibleEv, @function
_ZN10GuiElement9IsVisibleEv:
.LFB1393:
	.loc 2 142 0
	.cfi_startproc
.LVL20:
	.loc 2 142 0
	lbz 3,29(3)
.LVL21:
	blr
	.cfi_endproc
.LFE1393:
	.size	_ZN10GuiElement9IsVisibleEv, .-_ZN10GuiElement9IsVisibleEv
	.section	.text._ZN10GuiElement12IsSelectableEv,"axG",@progbits,_ZN10GuiElement12IsSelectableEv,comdat
	.align 2
	.weak	_ZN10GuiElement12IsSelectableEv
	.type	_ZN10GuiElement12IsSelectableEv, @function
_ZN10GuiElement12IsSelectableEv:
.LFB1394:
	.loc 2 145 0
	.cfi_startproc
.LVL22:
	.loc 2 149 0
	lwz 0,72(3)
	li 9,0
	cmpwi 7,0,4
	beq- 7,.L18
	.loc 2 149 0 is_stmt 0 discriminator 1
	cmpwi 7,0,2
	beq- 7,.L18
	.loc 2 149 0 discriminator 3
	lbz 9,30(3)
.L18:
	.loc 2 150 0 is_stmt 1 discriminator 5
	mr 3,9
.LVL23:
	blr
	.cfi_endproc
.LFE1394:
	.size	_ZN10GuiElement12IsSelectableEv, .-_ZN10GuiElement12IsSelectableEv
	.section	.text._ZN10GuiElement11IsClickableEv,"axG",@progbits,_ZN10GuiElement11IsClickableEv,comdat
	.align 2
	.weak	_ZN10GuiElement11IsClickableEv
	.type	_ZN10GuiElement11IsClickableEv, @function
_ZN10GuiElement11IsClickableEv:
.LFB1395:
	.loc 2 153 0
	.cfi_startproc
.LVL24:
	.loc 2 158 0
	lwz 0,72(3)
	li 9,0
	cmpwi 7,0,4
	beq- 7,.L22
	.loc 2 158 0 is_stmt 0 discriminator 1
	cmpwi 7,0,2
	beq- 7,.L22
	.loc 2 158 0 discriminator 3
	cmpwi 7,0,3
	beq- 7,.L22
	.loc 2 158 0 discriminator 4
	lbz 9,31(3)
.L22:
	.loc 2 159 0 is_stmt 1 discriminator 6
	mr 3,9
.LVL25:
	blr
	.cfi_endproc
.LFE1395:
	.size	_ZN10GuiElement11IsClickableEv, .-_ZN10GuiElement11IsClickableEv
	.section	.text._ZN10GuiElement10IsHoldableEv,"axG",@progbits,_ZN10GuiElement10IsHoldableEv,comdat
	.align 2
	.weak	_ZN10GuiElement10IsHoldableEv
	.type	_ZN10GuiElement10IsHoldableEv, @function
_ZN10GuiElement10IsHoldableEv:
.LFB1396:
	.loc 2 162 0
	.cfi_startproc
.LVL26:
	.loc 2 162 0
	lwz 9,72(3)
	li 0,0
	cmpwi 7,9,4
	beq- 7,.L27
	.loc 2 162 0 is_stmt 0 discriminator 1
	lbz 0,32(3)
.L27:
	.loc 2 162 0 discriminator 4
	mr 3,0
.LVL27:
	blr
	.cfi_endproc
.LFE1396:
	.size	_ZN10GuiElement10IsHoldableEv, .-_ZN10GuiElement10IsHoldableEv
	.section	.text._ZN10GuiElement13SetSelectableEb,"axG",@progbits,_ZN10GuiElement13SetSelectableEb,comdat
	.align 2
	.weak	_ZN10GuiElement13SetSelectableEb
	.type	_ZN10GuiElement13SetSelectableEb, @function
_ZN10GuiElement13SetSelectableEb:
.LFB1397:
	.loc 2 165 0 is_stmt 1
	.cfi_startproc
.LVL28:
	.loc 2 165 0
	stb 4,30(3)
	blr
	.cfi_endproc
.LFE1397:
	.size	_ZN10GuiElement13SetSelectableEb, .-_ZN10GuiElement13SetSelectableEb
	.section	.text._ZN10GuiElement12SetClickableEb,"axG",@progbits,_ZN10GuiElement12SetClickableEb,comdat
	.align 2
	.weak	_ZN10GuiElement12SetClickableEb
	.type	_ZN10GuiElement12SetClickableEb, @function
_ZN10GuiElement12SetClickableEb:
.LFB1398:
	.loc 2 168 0
	.cfi_startproc
.LVL29:
	.loc 2 168 0
	stb 4,31(3)
	blr
	.cfi_endproc
.LFE1398:
	.size	_ZN10GuiElement12SetClickableEb, .-_ZN10GuiElement12SetClickableEb
	.section	.text._ZN10GuiElement11SetHoldableEb,"axG",@progbits,_ZN10GuiElement11SetHoldableEb,comdat
	.align 2
	.weak	_ZN10GuiElement11SetHoldableEb
	.type	_ZN10GuiElement11SetHoldableEb, @function
_ZN10GuiElement11SetHoldableEb:
.LFB1399:
	.loc 2 171 0
	.cfi_startproc
.LVL30:
	.loc 2 171 0
	stb 4,32(3)
	blr
	.cfi_endproc
.LFE1399:
	.size	_ZN10GuiElement11SetHoldableEb, .-_ZN10GuiElement11SetHoldableEb
	.section	.text._ZN10GuiElement8GetStateEv,"axG",@progbits,_ZN10GuiElement8GetStateEv,comdat
	.align 2
	.weak	_ZN10GuiElement8GetStateEv
	.type	_ZN10GuiElement8GetStateEv, @function
_ZN10GuiElement8GetStateEv:
.LFB1400:
	.loc 2 178 0
	.cfi_startproc
.LVL31:
	.loc 2 178 0
	lwz 3,72(3)
.LVL32:
	blr
	.cfi_endproc
.LFE1400:
	.size	_ZN10GuiElement8GetStateEv, .-_ZN10GuiElement8GetStateEv
	.section	.text._ZN10GuiElement12GetStateChanEv,"axG",@progbits,_ZN10GuiElement12GetStateChanEv,comdat
	.align 2
	.weak	_ZN10GuiElement12GetStateChanEv
	.type	_ZN10GuiElement12GetStateChanEv, @function
_ZN10GuiElement12GetStateChanEv:
.LFB1401:
	.loc 2 181 0
	.cfi_startproc
.LVL33:
	.loc 2 181 0
	lwz 3,76(3)
.LVL34:
	blr
	.cfi_endproc
.LFE1401:
	.size	_ZN10GuiElement12GetStateChanEv, .-_ZN10GuiElement12GetStateChanEv
	.section	.text._ZN10GuiElement8SetAlphaEi,"axG",@progbits,_ZN10GuiElement8SetAlphaEi,comdat
	.align 2
	.weak	_ZN10GuiElement8SetAlphaEi
	.type	_ZN10GuiElement8SetAlphaEi, @function
_ZN10GuiElement8SetAlphaEi:
.LFB1403:
	.loc 2 190 0
	.cfi_startproc
.LVL35:
	.loc 2 190 0
	stw 4,56(3)
	blr
	.cfi_endproc
.LFE1403:
	.size	_ZN10GuiElement8SetAlphaEi, .-_ZN10GuiElement8SetAlphaEi
	.section	.text._ZN10GuiElement8GetAlphaEv,"axG",@progbits,_ZN10GuiElement8GetAlphaEv,comdat
	.align 2
	.weak	_ZN10GuiElement8GetAlphaEv
	.type	_ZN10GuiElement8GetAlphaEv, @function
_ZN10GuiElement8GetAlphaEv:
.LFB1404:
	.loc 2 194 0
	.cfi_startproc
.LVL36:
	mflr 0
	stwu 1,-40(1)
.LCFI2:
	.cfi_def_cfa_offset 40
	.cfi_register 65, 0
	stw 31,36(1)
	stw 0,44(1)
.LBB1819:
	.loc 2 198 0
	lwz 31,108(3)
	.cfi_offset 65, 4
	.cfi_offset 31, -4
	cmpwi 7,31,0
	blt- 7,.L38
.L36:
.LVL37:
	.loc 2 203 0
	lwz 3,96(3)
.LVL38:
	cmpwi 7,3,0
	beq- 7,.L37
	.loc 2 204 0
	lwz 9,0(3)
	xoris 31,31,0x8000
.LVL39:
	lwz 0,100(9)
	mtctr 0
	bctrl
	lis 0,0x4330
	xoris 3,3,0x8000
	stw 0,16(1)
	stw 3,20(1)
	lis 9,.LC1@ha
	lfs 0,.LC1@l(9)
	lis 9,.LC2@ha
	lfd 13,16(1)
	lfs 12,.LC2@l(9)
	addi 9,1,24
	fsub 13,13,0
	stw 31,12(1)
	stw 0,8(1)
	frsp 13,13
	fdivs 13,13,12
	lfd 12,8(1)
	fsub 0,12,0
	frsp 0,0
	fmuls 0,0,13
	fctiwz 0,0
	stfiwx 0,0,9
	lwz 31,24(1)
.LVL40:
.L37:
.LBE1819:
	.loc 2 207 0
	lwz 0,44(1)
	mr 3,31
	lwz 31,36(1)
.LVL41:
	mtlr 0
	addi 1,1,40
	.cfi_remember_state
.LCFI3:
	.cfi_def_cfa_offset 0
	.cfi_restore 31
	blr
.LVL42:
.L38:
.LCFI4:
	.cfi_restore_state
.LBB1820:
	.loc 2 201 0
	lwz 31,56(3)
.LVL43:
	b .L36
.LBE1820:
	.cfi_endproc
.LFE1404:
	.size	_ZN10GuiElement8GetAlphaEv, .-_ZN10GuiElement8GetAlphaEv
	.section	.text._ZN10GuiElement8SetScaleEf,"axG",@progbits,_ZN10GuiElement8SetScaleEf,comdat
	.align 2
	.weak	_ZN10GuiElement8SetScaleEf
	.type	_ZN10GuiElement8SetScaleEf, @function
_ZN10GuiElement8SetScaleEf:
.LFB1405:
	.loc 2 210 0
	.cfi_startproc
.LVL44:
	.loc 2 212 0
	stfs 1,60(3)
	.loc 2 214 0
	.loc 2 213 0
	stfs 1,64(3)
	.loc 2 214 0
	blr
	.cfi_endproc
.LFE1405:
	.size	_ZN10GuiElement8SetScaleEf, .-_ZN10GuiElement8SetScaleEf
	.section	.text._ZN10GuiElement9SetScaleXEf,"axG",@progbits,_ZN10GuiElement9SetScaleXEf,comdat
	.align 2
	.weak	_ZN10GuiElement9SetScaleXEf
	.type	_ZN10GuiElement9SetScaleXEf, @function
_ZN10GuiElement9SetScaleXEf:
.LFB1406:
	.loc 2 217 0
	.cfi_startproc
.LVL45:
	.loc 2 217 0
	stfs 1,60(3)
	blr
	.cfi_endproc
.LFE1406:
	.size	_ZN10GuiElement9SetScaleXEf, .-_ZN10GuiElement9SetScaleXEf
	.section	.text._ZN10GuiElement9SetScaleYEf,"axG",@progbits,_ZN10GuiElement9SetScaleYEf,comdat
	.align 2
	.weak	_ZN10GuiElement9SetScaleYEf
	.type	_ZN10GuiElement9SetScaleYEf, @function
_ZN10GuiElement9SetScaleYEf:
.LFB1407:
	.loc 2 220 0
	.cfi_startproc
.LVL46:
	.loc 2 220 0
	stfs 1,64(3)
	blr
	.cfi_endproc
.LFE1407:
	.size	_ZN10GuiElement9SetScaleYEf, .-_ZN10GuiElement9SetScaleYEf
	.section	.text._ZN10GuiElement8GetScaleEv,"axG",@progbits,_ZN10GuiElement8GetScaleEv,comdat
	.align 2
	.weak	_ZN10GuiElement8GetScaleEv
	.type	_ZN10GuiElement8GetScaleEv, @function
_ZN10GuiElement8GetScaleEv:
.LFB1408:
	.loc 2 223 0
	.cfi_startproc
.LVL47:
	mflr 0
	stwu 1,-16(1)
.LCFI5:
	.cfi_def_cfa_offset 16
	.cfi_register 65, 0
.LBB1821:
	.loc 2 225 0
	lis 9,.LC3@ha
.LBE1821:
	.loc 2 223 0
	stfd 31,8(1)
	stw 0,20(1)
.LBB1822:
	.loc 2 225 0
	lfs 0,64(3)
	lfs 31,60(3)
	.cfi_offset 65, 4
	.cfi_offset 63, -8
	.loc 2 227 0
	lwz 11,96(3)
	.loc 2 225 0
	fadds 31,31,0
	lfs 0,.LC3@l(9)
	.loc 2 227 0
	cmpwi 7,11,0
	.loc 2 225 0
	fmuls 31,31,0
	lfs 0,112(3)
	fmuls 31,31,0
.LVL48:
	.loc 2 227 0
	beq- 7,.L43
	.loc 2 228 0
	lwz 9,0(11)
	mr 3,11
.LVL49:
	lwz 0,116(9)
	mtctr 0
	bctrl
	fmuls 31,31,1
.LVL50:
.L43:
.LBE1822:
	.loc 2 231 0
	lwz 0,20(1)
	fmr 1,31
	lfd 31,8(1)
.LVL51:
	mtlr 0
	addi 1,1,16
.LCFI6:
	.cfi_def_cfa_offset 0
	.cfi_restore 63
	blr
	.cfi_endproc
.LFE1408:
	.size	_ZN10GuiElement8GetScaleEv, .-_ZN10GuiElement8GetScaleEv
	.section	.text._ZN10GuiElement9GetScaleXEv,"axG",@progbits,_ZN10GuiElement9GetScaleXEv,comdat
	.align 2
	.weak	_ZN10GuiElement9GetScaleXEv
	.type	_ZN10GuiElement9GetScaleXEv, @function
_ZN10GuiElement9GetScaleXEv:
.LFB1409:
	.loc 2 234 0
	.cfi_startproc
.LVL52:
	mflr 0
	stwu 1,-16(1)
.LCFI7:
	.cfi_def_cfa_offset 16
	.cfi_register 65, 0
	stfd 31,8(1)
	stw 0,20(1)
.LBB1823:
	.loc 2 238 0
	lwz 11,96(3)
	.loc 2 236 0
	lfs 31,60(3)
	.cfi_offset 65, 4
	.cfi_offset 63, -8
	.loc 2 238 0
	cmpwi 7,11,0
	.loc 2 236 0
	lfs 0,112(3)
	fmuls 31,31,0
.LVL53:
	.loc 2 238 0
	beq- 7,.L45
	.loc 2 239 0
	lwz 9,0(11)
	mr 3,11
.LVL54:
	lwz 0,120(9)
	mtctr 0
	bctrl
	fmuls 31,31,1
.LVL55:
.L45:
.LBE1823:
	.loc 2 242 0
	lwz 0,20(1)
	fmr 1,31
	lfd 31,8(1)
.LVL56:
	mtlr 0
	addi 1,1,16
.LCFI8:
	.cfi_def_cfa_offset 0
	.cfi_restore 63
	blr
	.cfi_endproc
.LFE1409:
	.size	_ZN10GuiElement9GetScaleXEv, .-_ZN10GuiElement9GetScaleXEv
	.section	.text._ZN10GuiElement9GetScaleYEv,"axG",@progbits,_ZN10GuiElement9GetScaleYEv,comdat
	.align 2
	.weak	_ZN10GuiElement9GetScaleYEv
	.type	_ZN10GuiElement9GetScaleYEv, @function
_ZN10GuiElement9GetScaleYEv:
.LFB1410:
	.loc 2 245 0
	.cfi_startproc
.LVL57:
	mflr 0
	stwu 1,-16(1)
.LCFI9:
	.cfi_def_cfa_offset 16
	.cfi_register 65, 0
	stfd 31,8(1)
	stw 0,20(1)
.LBB1824:
	.loc 2 249 0
	lwz 11,96(3)
	.loc 2 247 0
	lfs 31,64(3)
	.cfi_offset 65, 4
	.cfi_offset 63, -8
	.loc 2 249 0
	cmpwi 7,11,0
	.loc 2 247 0
	lfs 0,112(3)
	fmuls 31,31,0
.LVL58:
	.loc 2 249 0
	beq- 7,.L47
	.loc 2 250 0
	lwz 9,0(11)
	mr 3,11
.LVL59:
	lwz 0,124(9)
	mtctr 0
	bctrl
	fmuls 31,31,1
.LVL60:
.L47:
.LBE1824:
	.loc 2 253 0
	lwz 0,20(1)
	fmr 1,31
	lfd 31,8(1)
.LVL61:
	mtlr 0
	addi 1,1,16
.LCFI10:
	.cfi_def_cfa_offset 0
	.cfi_restore 63
	blr
	.cfi_endproc
.LFE1410:
	.size	_ZN10GuiElement9GetScaleYEv, .-_ZN10GuiElement9GetScaleYEv
	.section	.text._ZN10GuiElement6RumbleEv,"axG",@progbits,_ZN10GuiElement6RumbleEv,comdat
	.align 2
	.weak	_ZN10GuiElement6RumbleEv
	.type	_ZN10GuiElement6RumbleEv, @function
_ZN10GuiElement6RumbleEv:
.LFB1411:
	.loc 2 256 0
	.cfi_startproc
.LVL62:
	.loc 2 256 0
	lbz 3,28(3)
.LVL63:
	blr
	.cfi_endproc
.LFE1411:
	.size	_ZN10GuiElement6RumbleEv, .-_ZN10GuiElement6RumbleEv
	.section	.text._ZN10GuiElement9SetRumbleEb,"axG",@progbits,_ZN10GuiElement9SetRumbleEb,comdat
	.align 2
	.weak	_ZN10GuiElement9SetRumbleEb
	.type	_ZN10GuiElement9SetRumbleEb, @function
_ZN10GuiElement9SetRumbleEb:
.LFB1412:
	.loc 2 259 0
	.cfi_startproc
.LVL64:
	.loc 2 259 0
	stb 4,28(3)
	blr
	.cfi_endproc
.LFE1412:
	.size	_ZN10GuiElement9SetRumbleEb, .-_ZN10GuiElement9SetRumbleEb
	.section	.text._ZN10GuiElement13SetEffectGrowEv,"axG",@progbits,_ZN10GuiElement13SetEffectGrowEv,comdat
	.align 2
	.weak	_ZN10GuiElement13SetEffectGrowEv
	.type	_ZN10GuiElement13SetEffectGrowEv, @function
_ZN10GuiElement13SetEffectGrowEv:
.LFB1413:
	.loc 2 271 0
	.cfi_startproc
.LVL65:
	mflr 0
	stwu 1,-8(1)
.LCFI11:
	.cfi_def_cfa_offset 8
	.cfi_register 65, 0
	lwz 9,0(3)
	li 4,256
	li 5,4
	li 6,110
	stw 0,12(1)
	.loc 2 271 0
	lwz 0,140(9)
	.cfi_offset 65, 4
	mtctr 0
	bctrl
.LVL66:
	lwz 0,12(1)
	addi 1,1,8
.LCFI12:
	.cfi_def_cfa_offset 0
	mtlr 0
	blr
	.cfi_endproc
.LFE1413:
	.size	_ZN10GuiElement13SetEffectGrowEv, .-_ZN10GuiElement13SetEffectGrowEv
	.section	.text._ZNK10GuiElement9GetEffectEv,"axG",@progbits,_ZNK10GuiElement9GetEffectEv,comdat
	.align 2
	.weak	_ZNK10GuiElement9GetEffectEv
	.type	_ZNK10GuiElement9GetEffectEv, @function
_ZNK10GuiElement9GetEffectEv:
.LFB1414:
	.loc 2 276 0
	.cfi_startproc
.LVL67:
	.loc 2 276 0
	lwz 3,120(3)
.LVL68:
	blr
	.cfi_endproc
.LFE1414:
	.size	_ZNK10GuiElement9GetEffectEv, .-_ZNK10GuiElement9GetEffectEv
	.section	.text._ZNK10GuiElement10IsAnimatedEv,"axG",@progbits,_ZNK10GuiElement10IsAnimatedEv,comdat
	.align 2
	.weak	_ZNK10GuiElement10IsAnimatedEv
	.type	_ZNK10GuiElement10IsAnimatedEv, @function
_ZNK10GuiElement10IsAnimatedEv:
.LFB1415:
	.loc 2 278 0
	.cfi_startproc
.LVL69:
	mflr 0
	stwu 1,-8(1)
.LCFI13:
	.cfi_def_cfa_offset 8
	.cfi_register 65, 0
	stw 0,12(1)
	.loc 2 278 0
	lwz 9,0(3)
	lwz 0,152(9)
	.cfi_offset 65, 4
	mtctr 0
	bctrl
.LVL70:
	srawi 0,3,31
	subf 3,3,0
	lwz 0,12(1)
	srwi 3,3,31
	mtlr 0
	addi 1,1,8
.LCFI14:
	.cfi_def_cfa_offset 0
	blr
	.cfi_endproc
.LFE1415:
	.size	_ZNK10GuiElement10IsAnimatedEv, .-_ZNK10GuiElement10IsAnimatedEv
	.section	.text._ZN10GuiElement8IsInsideEii,"axG",@progbits,_ZN10GuiElement8IsInsideEii,comdat
	.align 2
	.weak	_ZN10GuiElement8IsInsideEii
	.type	_ZN10GuiElement8IsInsideEii, @function
_ZN10GuiElement8IsInsideEii:
.LFB1417:
	.loc 2 285 0
	.cfi_startproc
.LVL71:
	mflr 0
	stwu 1,-24(1)
.LCFI15:
	.cfi_def_cfa_offset 24
	.cfi_register 65, 0
	stw 28,8(1)
	mr 28,5
	.cfi_offset 28, -16
	stw 0,28(1)
	stw 29,12(1)
	.loc 2 290 0
	li 29,0
	.cfi_offset 29, -12
	.cfi_offset 65, 4
	.loc 2 287 0
	lwz 9,0(3)
	.loc 2 285 0
	stw 30,16(1)
	mr 30,4
	.cfi_offset 30, -8
	.loc 2 287 0
	lwz 0,16(9)
	.loc 2 285 0
	stw 31,20(1)
	.loc 2 285 0
	mr 31,3
	.cfi_offset 31, -4
	.loc 2 287 0
	mtctr 0
	bctrl
.LVL72:
	.loc 2 290 0
	cmpw 7,3,30
	blt- 7,.L58
.L54:
	.loc 2 291 0 discriminator 6
	lwz 0,28(1)
	mr 3,29
	lwz 28,8(1)
.LVL73:
	mtlr 0
	lwz 29,12(1)
	lwz 30,16(1)
.LVL74:
	lwz 31,20(1)
.LVL75:
	addi 1,1,24
	.cfi_remember_state
.LCFI16:
	.cfi_def_cfa_offset 0
	.cfi_restore 31
	.cfi_restore 30
	.cfi_restore 29
	.cfi_restore 28
	blr
.LVL76:
.L58:
.LCFI17:
	.cfi_restore_state
	.loc 2 288 0 discriminator 1
	lwz 9,0(31)
	mr 3,31
	lwz 0,16(9)
	mtctr 0
	bctrl
	.loc 2 290 0 discriminator 1
	lwz 0,36(31)
	add 0,3,0
	cmpw 7,30,0
	bge+ 7,.L54
	.loc 2 289 0 discriminator 3
	lwz 9,0(31)
	mr 3,31
	lwz 0,20(9)
	mtctr 0
	bctrl
	.loc 2 290 0 discriminator 3
	cmpw 7,3,28
	bge+ 7,.L54
	.loc 2 290 0 is_stmt 0 discriminator 4
	lwz 9,0(31)
	mr 3,31
	lwz 0,20(9)
	mtctr 0
	bctrl
	lwz 0,40(31)
	add 0,3,0
	.loc 2 285 0 is_stmt 1 discriminator 4
	cmpw 7,28,0
	mfcr 29
	rlwinm 29,29,29,1
	b .L54
	.cfi_endproc
.LFE1417:
	.size	_ZN10GuiElement8IsInsideEii, .-_ZN10GuiElement8IsInsideEii
	.section	.text._ZN10GuiElement11SetPositionEii,"axG",@progbits,_ZN10GuiElement11SetPositionEii,comdat
	.align 2
	.weak	_ZN10GuiElement11SetPositionEii
	.type	_ZN10GuiElement11SetPositionEii, @function
_ZN10GuiElement11SetPositionEii:
.LFB1418:
	.loc 2 295 0
	.cfi_startproc
.LVL77:
	.loc 2 297 0
	stw 4,44(3)
	.loc 2 299 0
	.loc 2 298 0
	stw 5,48(3)
	.loc 2 299 0
	blr
	.cfi_endproc
.LFE1418:
	.size	_ZN10GuiElement11SetPositionEii, .-_ZN10GuiElement11SetPositionEii
	.section	.text._ZN10GuiElement11SetPositionEiii,"axG",@progbits,_ZN10GuiElement11SetPositionEiii,comdat
	.align 2
	.weak	_ZN10GuiElement11SetPositionEiii
	.type	_ZN10GuiElement11SetPositionEiii, @function
_ZN10GuiElement11SetPositionEiii:
.LFB1419:
	.loc 2 304 0
	.cfi_startproc
.LVL78:
	.loc 2 306 0
	stw 4,44(3)
	.loc 2 309 0
	.loc 2 307 0
	stw 5,48(3)
	.loc 2 308 0
	stw 6,52(3)
	.loc 2 309 0
	blr
	.cfi_endproc
.LFE1419:
	.size	_ZN10GuiElement11SetPositionEiii, .-_ZN10GuiElement11SetPositionEiii
	.section	.text._ZN10GuiElement12SetAlignmentEi,"axG",@progbits,_ZN10GuiElement12SetAlignmentEi,comdat
	.align 2
	.weak	_ZN10GuiElement12SetAlignmentEi
	.type	_ZN10GuiElement12SetAlignmentEi, @function
_ZN10GuiElement12SetAlignmentEi:
.LFB1421:
	.loc 2 316 0
	.cfi_startproc
.LVL79:
	.loc 2 316 0
	stw 4,68(3)
	blr
	.cfi_endproc
.LFE1421:
	.size	_ZN10GuiElement12SetAlignmentEi, .-_ZN10GuiElement12SetAlignmentEi
	.section	.text._ZNK10GuiElement12GetAlignmentEv,"axG",@progbits,_ZNK10GuiElement12GetAlignmentEv,comdat
	.align 2
	.weak	_ZNK10GuiElement12GetAlignmentEv
	.type	_ZNK10GuiElement12GetAlignmentEv, @function
_ZNK10GuiElement12GetAlignmentEv:
.LFB1422:
	.loc 2 318 0
	.cfi_startproc
.LVL80:
	.loc 2 318 0
	lwz 3,68(3)
.LVL81:
	blr
	.cfi_endproc
.LFE1422:
	.size	_ZNK10GuiElement12GetAlignmentEv, .-_ZNK10GuiElement12GetAlignmentEv
	.section	.text._ZN8GuiFrame4showEv,"axG",@progbits,_ZN8GuiFrame4showEv,comdat
	.align 2
	.weak	_ZN8GuiFrame4showEv
	.type	_ZN8GuiFrame4showEv, @function
_ZN8GuiFrame4showEv:
.LFB1431:
	.file 3 "d:/Projects/SaveGameManager/savegame-manager-gx/trunk/source/Prompts/../GUI/gui_frame.h"
	.loc 3 79 0
	.cfi_startproc
.LVL82:
	.loc 3 79 0
	blr
	.cfi_endproc
.LFE1431:
	.size	_ZN8GuiFrame4showEv, .-_ZN8GuiFrame4showEv
	.section	.text._ZN8GuiFrame4hideEv,"axG",@progbits,_ZN8GuiFrame4hideEv,comdat
	.align 2
	.weak	_ZN8GuiFrame4hideEv
	.type	_ZN8GuiFrame4hideEv, @function
_ZN8GuiFrame4hideEv:
.LFB1432:
	.loc 3 81 0
	.cfi_startproc
.LVL83:
	.loc 3 81 0
	blr
	.cfi_endproc
.LFE1432:
	.size	_ZN8GuiFrame4hideEv, .-_ZN8GuiFrame4hideEv
	.section	.text._ZN8GuiFrame4execEv,"axG",@progbits,_ZN8GuiFrame4execEv,comdat
	.align 2
	.weak	_ZN8GuiFrame4execEv
	.type	_ZN8GuiFrame4execEv, @function
_ZN8GuiFrame4execEv:
.LFB1433:
	.loc 3 83 0
	.cfi_startproc
.LVL84:
	.loc 3 83 0
	blr
	.cfi_endproc
.LFE1433:
	.size	_ZN8GuiFrame4execEv, .-_ZN8GuiFrame4execEv
	.section	.text._ZN8GuiFrame12updateEventsEv,"axG",@progbits,_ZN8GuiFrame12updateEventsEv,comdat
	.align 2
	.weak	_ZN8GuiFrame12updateEventsEv
	.type	_ZN8GuiFrame12updateEventsEv, @function
_ZN8GuiFrame12updateEventsEv:
.LFB1434:
	.loc 3 85 0
	.cfi_startproc
.LVL85:
	.loc 3 85 0
	blr
	.cfi_endproc
.LFE1434:
	.size	_ZN8GuiFrame12updateEventsEv, .-_ZN8GuiFrame12updateEventsEv
	.section	.text._ZN7sigslot15single_threadedD0Ev,"axG",@progbits,_ZN7sigslot15single_threadedD5Ev,comdat
	.align 2
	.weak	_ZN7sigslot15single_threadedD0Ev
	.type	_ZN7sigslot15single_threadedD0Ev, @function
_ZN7sigslot15single_threadedD0Ev:
.LFB1150:
	.loc 1 104 0
	.cfi_startproc
.LVL86:
	mflr 0
	stwu 1,-8(1)
.LCFI18:
	.cfi_def_cfa_offset 8
	.cfi_register 65, 0
.LBB1825:
.LBB1826:
.LBB1827:
	.loc 1 105 0
	lis 9,_ZTVN7sigslot15single_threadedE+8@ha
.LBE1827:
.LBE1826:
.LBE1825:
	.loc 1 104 0
	stw 0,12(1)
.LBB1830:
.LBB1829:
.LBB1828:
	.loc 1 105 0
	la 0,_ZTVN7sigslot15single_threadedE+8@l(9)
	.cfi_offset 65, 4
	stw 0,0(3)
.LBE1828:
.LBE1829:
.LBE1830:
	.loc 1 107 0
	bl _ZdlPv
.LVL87:
	lwz 0,12(1)
	addi 1,1,8
.LCFI19:
	.cfi_def_cfa_offset 0
	mtlr 0
	blr
	.cfi_endproc
.LFE1150:
	.size	_ZN7sigslot15single_threadedD0Ev, .-_ZN7sigslot15single_threadedD0Ev
	.section	".text"
	.align 2
	.globl _ZN11ScreenSaver4quitEv
	.type	_ZN11ScreenSaver4quitEv, @function
_ZN11ScreenSaver4quitEv:
.LFB1581:
	.file 4 "d:/Projects/SaveGameManager/savegame-manager-gx/trunk/source/Prompts/ScreenSaver.cpp"
	.loc 4 70 0
	.cfi_startproc
	.cfi_personality 0,__gxx_personality_v0
	.cfi_lsda 0,.LLSDA1581
.LVL88:
	mflr 0
	stwu 1,-24(1)
.LCFI20:
	.cfi_def_cfa_offset 24
	.cfi_register 65, 0
	.loc 4 71 0
	li 4,128
	li 5,-50
	.loc 4 70 0
	stw 30,16(1)
	.loc 4 71 0
	li 6,0
	.loc 4 70 0
	stw 0,28(1)
	mr 30,3
	.cfi_offset 65, 4
	.cfi_offset 30, -8
	stw 29,12(1)
	.loc 4 71 0
	lwz 9,0(3)
	.loc 4 70 0
	stw 31,20(1)
	.loc 4 71 0
	lwz 0,136(9)
	mtctr 0
.LEHB0:
	.cfi_offset 31, -4
	.cfi_offset 29, -12
	bctrl
.LVL89:
	.loc 4 72 0
	b .L71
.L72:
	lwz 9,0(31)
	mr 3,31
	lwz 0,216(9)
	mtctr 0
	bctrl
.L71:
	.loc 4 72 0 is_stmt 0 discriminator 1
	lwz 9,0(30)
	mr 3,30
	lwz 0,156(9)
	mtctr 0
	bctrl
	cmpwi 7,3,0
	beq- 7,.L76
.LBB1833:
.LBB1834:
	.file 5 "d:/Projects/SaveGameManager/savegame-manager-gx/trunk/source/Prompts/../Controls/Application.h"
	.loc 5 27 0 is_stmt 1
	lis 29,_ZN11Application8instanceE@ha
	lwz 31,_ZN11Application8instanceE@l(29)
	cmpwi 7,31,0
	bne+ 7,.L72
	li 3,632
	bl _Znwj
.LEHE0:
	mr 31,3
.LEHB1:
	bl _ZN11ApplicationC1Ev
.LEHE1:
	stw 31,_ZN11Application8instanceE@l(29)
	b .L72
.L76:
.LBE1834:
.LBE1833:
	.loc 4 74 0
	lwz 9,0(30)
	mr 3,30
	lwz 0,200(9)
	mtctr 0
.LEHB2:
	bctrl
	.loc 4 75 0
	lwz 0,28(1)
	lwz 29,12(1)
	mtlr 0
	lwz 30,16(1)
.LVL90:
	lwz 31,20(1)
	addi 1,1,24
	.cfi_remember_state
.LCFI21:
	.cfi_def_cfa_offset 0
	.cfi_restore 31
	.cfi_restore 30
	.cfi_restore 29
	blr
.LVL91:
.L75:
.LCFI22:
	.cfi_restore_state
	mr 30,3
.LVL92:
.LBB1836:
.LBB1835:
	.loc 5 27 0
	mr 3,31
	bl _ZdlPv
	mr 3,30
	bl _Unwind_Resume
.LEHE2:
.LBE1835:
.LBE1836:
	.cfi_endproc
.LFE1581:
	.globl __gxx_personality_v0
	.section	.gcc_except_table,"a",@progbits
.LLSDA1581:
	.byte	0xff
	.byte	0xff
	.byte	0x1
	.uleb128 .LLSDACSE1581-.LLSDACSB1581
.LLSDACSB1581:
	.uleb128 .LEHB0-.LFB1581
	.uleb128 .LEHE0-.LEHB0
	.uleb128 0
	.uleb128 0
	.uleb128 .LEHB1-.LFB1581
	.uleb128 .LEHE1-.LEHB1
	.uleb128 .L75-.LFB1581
	.uleb128 0
	.uleb128 .LEHB2-.LFB1581
	.uleb128 .LEHE2-.LEHB2
	.uleb128 0
	.uleb128 0
.LLSDACSE1581:
	.section	".text"
	.size	_ZN11ScreenSaver4quitEv, .-_ZN11ScreenSaver4quitEv
	.globl __floatundisf
	.align 2
	.globl _ZN11ScreenSaver4DrawEv
	.type	_ZN11ScreenSaver4DrawEv, @function
_ZN11ScreenSaver4DrawEv:
.LFB1582:
	.loc 4 78 0
	.cfi_startproc
.LVL93:
	mflr 0
	stwu 1,-24(1)
.LCFI23:
	.cfi_def_cfa_offset 24
	.cfi_register 65, 0
	stw 31,20(1)
	mr 31,3
	.cfi_offset 31, -4
	stw 0,28(1)
	stw 28,8(1)
	stw 29,12(1)
	stw 30,16(1)
	.loc 4 79 0
	.cfi_offset 30, -8
	.cfi_offset 29, -12
	.cfi_offset 28, -16
	.cfi_offset 65, 4
	bl _Z22ControlActivityTimeoutv
.LVL94:
	cmpwi 7,3,0
	beq- 7,.L81
.L78:
.LVL95:
.LBB1837:
.LBB1838:
	.file 6 "d:/Projects/SaveGameManager/savegame-manager-gx/trunk/source/Prompts/../GUI/../ImageOperations/../Tools/timer.h"
	.loc 6 59 0
	bl gettime
	lwz 10,216(31)
	lwz 11,220(31)
	subfc 4,11,4
	subfe 3,10,3
	bl __floatundisf
	lis 9,.LC4@ha
	lfs 0,.LC4@l(9)
.LBE1838:
.LBE1837:
	.loc 4 85 0
	lis 9,.LC5@ha
	lfs 13,.LC5@l(9)
.LBB1840:
.LBB1839:
	.loc 6 59 0
	fdivs 0,1,0
.LBE1839:
.LBE1840:
	.loc 4 85 0
	fcmpu 7,0,13
	bgt- 7,.L82
	.loc 4 92 0
	mr 3,31
	bl _ZN8GuiFrame4DrawEv
	.loc 4 93 0
	lwz 0,28(1)
	lwz 28,8(1)
	mtlr 0
	lwz 29,12(1)
	lwz 30,16(1)
	lwz 31,20(1)
.LVL96:
	addi 1,1,24
	.cfi_remember_state
.LCFI24:
	.cfi_def_cfa_offset 0
	.cfi_restore 31
	.cfi_restore 30
	.cfi_restore 29
	.cfi_restore 28
	blr
.LVL97:
.L81:
.LCFI25:
	.cfi_restore_state
	.loc 4 79 0 discriminator 1
	lwz 9,0(31)
	mr 3,31
	lwz 0,156(9)
	mtctr 0
	bctrl
	cmpwi 7,3,0
	bne- 7,.L78
	.loc 4 81 0 discriminator 4
	mr 3,31
	bl _ZN11ScreenSaver4quitEv
	.loc 4 92 0 discriminator 4
	mr 3,31
	bl _ZN8GuiFrame4DrawEv
	.loc 4 93 0 discriminator 4
	lwz 0,28(1)
	lwz 28,8(1)
	mtlr 0
	lwz 29,12(1)
	lwz 30,16(1)
	lwz 31,20(1)
.LVL98:
	addi 1,1,24
	.cfi_remember_state
	.cfi_restore 28
	.cfi_restore 29
	.cfi_restore 30
	.cfi_restore 31
.LCFI26:
	.cfi_def_cfa_offset 0
	blr
.LVL99:
.L82:
.LCFI27:
	.cfi_restore_state
	.loc 4 87 0
	lwz 28,208(31)
	lwz 9,0(28)
	lwz 30,168(9)
	bl rand
	mr 29,3
	bl rand
	lis 4,0x5efa
	lis 5,0x6b6f
	mr 0,3
	ori 4,4,52809
	ori 5,5,41471
	mulhw 4,29,4
	srawi 9,3,31
	mtctr 30
	srawi 11,29,31
	mr 3,28
	mulhw 5,0,5
	srawi 4,4,7
	subf 4,11,4
	srawi 5,5,7
	mulli 4,4,345
	subf 5,9,5
	mulli 5,5,305
	subf 4,4,29
	subf 5,5,0
	bctrl
.LVL100:
.LBB1841:
.LBB1842:
	.loc 6 61 0
	bl gettime
	stw 3,216(31)
.LBE1842:
.LBE1841:
	.loc 4 92 0
	mr 3,31
.LBB1844:
.LBB1843:
	.loc 6 61 0
	stw 4,220(31)
.LBE1843:
.LBE1844:
	.loc 4 92 0
	bl _ZN8GuiFrame4DrawEv
	.loc 4 93 0
	lwz 0,28(1)
	lwz 28,8(1)
	mtlr 0
	lwz 29,12(1)
	lwz 30,16(1)
	lwz 31,20(1)
.LVL101:
	addi 1,1,24
	.cfi_restore 28
	.cfi_restore 29
	.cfi_restore 30
	.cfi_restore 31
.LCFI28:
	.cfi_def_cfa_offset 0
	blr
	.cfi_endproc
.LFE1582:
	.size	_ZN11ScreenSaver4DrawEv, .-_ZN11ScreenSaver4DrawEv
	.section	.text._ZNSt6vectorIP10GuiElementSaIS1_EE13_M_insert_auxEN9__gnu_cxx17__normal_iteratorIPS1_S3_EERKS1_,"axG",@progbits,_ZNSt6vectorIP10GuiElementSaIS1_EE13_M_insert_auxEN9__gnu_cxx17__normal_iteratorIPS1_S3_EERKS1_,comdat
	.align 2
	.weak	_ZNSt6vectorIP10GuiElementSaIS1_EE13_M_insert_auxEN9__gnu_cxx17__normal_iteratorIPS1_S3_EERKS1_
	.type	_ZNSt6vectorIP10GuiElementSaIS1_EE13_M_insert_auxEN9__gnu_cxx17__normal_iteratorIPS1_S3_EERKS1_, @function
_ZNSt6vectorIP10GuiElementSaIS1_EE13_M_insert_auxEN9__gnu_cxx17__normal_iteratorIPS1_S3_EERKS1_:
.LFB1663:
	.file 7 "d:\\devkitpro\\devkitppc\\bin\\../lib/gcc/powerpc-eabi/4.6.3/../../../../powerpc-eabi/include/c++/4.6.3/bits/vector.tcc"
	.loc 7 300 0
	.cfi_startproc
.LVL102:
	mflr 0
	stwu 1,-40(1)
.LCFI29:
	.cfi_def_cfa_offset 40
	.cfi_register 65, 0
	stw 27,20(1)
	stw 0,44(1)
	stw 30,32(1)
.LBB1907:
	.loc 7 304 0
	lwz 27,4(3)
	.cfi_offset 30, -8
	.cfi_offset 65, 4
	.cfi_offset 27, -20
	lwz 0,8(3)
.LBE1907:
	.loc 7 300 0
	stw 31,36(1)
	mr 31,3
	.cfi_offset 31, -4
.LBB2032:
	.loc 7 304 0
	cmpw 7,27,0
.LBE2032:
	.loc 7 300 0
	stw 26,16(1)
	stw 28,24(1)
	stw 29,28(1)
	.loc 7 300 0
	lwz 30,0(4)
.LVL103:
.LBB2033:
	.loc 7 304 0
	beq- 7,.L84
	.cfi_offset 29, -12
	.cfi_offset 28, -16
	.cfi_offset 26, -24
.LVL104:
.LBB1908:
.LBB1909:
.LBB1910:
	.file 8 "d:\\devkitpro\\devkitppc\\bin\\../lib/gcc/powerpc-eabi/4.6.3/../../../../powerpc-eabi/include/c++/4.6.3/ext/new_allocator.h"
	.loc 8 108 0
	cmpwi 7,27,0
	li 3,0
.LVL105:
	beq- 7,.L85
	lwz 0,-4(27)
	stw 0,0(27)
	lwz 3,4(31)
.L85:
.LBE1910:
.LBE1909:
	.loc 7 313 0
	addi 0,3,-4
	.loc 7 309 0
	addi 9,3,4
.LBB1911:
.LBB1912:
.LBB1913:
.LBB1914:
.LBB1915:
.LBB1916:
	.file 9 "d:\\devkitpro\\devkitppc\\bin\\../lib/gcc/powerpc-eabi/4.6.3/../../../../powerpc-eabi/include/c++/4.6.3/bits/stl_algobase.h"
	.loc 9 559 0
	subf 0,30,0
.LBE1916:
.LBE1915:
.LBE1914:
.LBE1913:
.LBE1912:
.LBE1911:
	.loc 7 309 0
	stw 9,4(31)
.LBB1932:
.LBB1929:
.LBB1926:
.LBB1923:
.LBB1920:
.LBB1917:
	.loc 9 560 0
	srawi. 0,0,2
.LBE1917:
.LBE1920:
.LBE1923:
.LBE1926:
.LBE1929:
.LBE1932:
	.loc 7 311 0
	lwz 31,0(5)
.LVL106:
.LBB1933:
.LBB1930:
.LBB1927:
.LBB1924:
.LBB1921:
.LBB1918:
	.loc 9 560 0
	bne- 0,.L100
.LVL107:
.L86:
.LBE1918:
.LBE1921:
.LBE1924:
.LBE1927:
.LBE1930:
.LBE1933:
.LBE1908:
.LBE2033:
	.loc 7 373 0
	lwz 0,44(1)
.LBB2034:
.LBB1935:
	.loc 7 317 0
	stw 31,0(30)
.LBE1935:
.LBE2034:
	.loc 7 373 0
	mtlr 0
	lwz 26,16(1)
	lwz 27,20(1)
.LVL108:
	lwz 28,24(1)
	lwz 29,28(1)
	lwz 30,32(1)
.LVL109:
	lwz 31,36(1)
.LVL110:
	addi 1,1,40
	.cfi_remember_state
.LCFI30:
	.cfi_def_cfa_offset 0
	.cfi_restore 31
	.cfi_restore 30
	.cfi_restore 29
	.cfi_restore 28
	.cfi_restore 27
	.cfi_restore 26
	blr
.LVL111:
.L100:
.LCFI31:
	.cfi_restore_state
.LBB2035:
.LBB1936:
.LBB1934:
.LBB1931:
.LBB1928:
.LBB1925:
.LBB1922:
.LBB1919:
	.loc 9 561 0
	slwi 5,0,2
.LVL112:
	mr 4,30
	subf 3,5,3
.LVL113:
	bl memmove
.LVL114:
	b .L86
.LVL115:
.L84:
.LBE1919:
.LBE1922:
.LBE1925:
.LBE1928:
.LBE1931:
.LBE1934:
.LBE1936:
.LBB1937:
.LBB1938:
.LBB1939:
.LBB1940:
.LBB1941:
	.file 10 "d:\\devkitpro\\devkitppc\\bin\\../lib/gcc/powerpc-eabi/4.6.3/../../../../powerpc-eabi/include/c++/4.6.3/bits/stl_vector.h"
	.loc 10 571 0
	lwz 28,0(3)
	subf 27,28,27
.LBE1941:
.LBE1940:
.LBB1942:
.LBB1943:
	.loc 9 215 0
	srawi. 27,27,2
	beq- 0,.L88
.LBE1943:
.LBE1942:
	.loc 10 1244 0
	slwi 0,27,1
.LVL116:
	.loc 10 1245 0
	cmplw 7,27,0
	ble- 7,.L101
.L89:
.LVL117:
.LBE1939:
.LBE1938:
.LBB1946:
.LBB1947:
	.file 11 "d:\\devkitpro\\devkitppc\\bin\\../lib/gcc/powerpc-eabi/4.6.3/../../../../powerpc-eabi/include/c++/4.6.3/bits/stl_iterator.h"
	.loc 11 892 0
	subf 28,28,30
.LBE1947:
.LBE1946:
	.loc 7 326 0
	li 27,-4
.LBB1953:
.LBB1948:
	.loc 11 892 0
	srawi 28,28,2
.LVL118:
.L95:
.LBE1948:
.LBE1953:
.LBB1954:
.LBB1955:
.LBB1956:
.LBB1957:
	.loc 8 92 0
	mr 3,27
.LVL119:
	stw 5,8(1)
	bl _Znwj
.LVL120:
	lwz 5,8(1)
	mr 29,3
.L90:
.LVL121:
.LBE1957:
.LBE1956:
.LBE1955:
.LBE1954:
	.loc 7 335 0
	slwi 28,28,2
.LVL122:
	add 0,29,28
.LVL123:
.LBB1960:
.LBB1961:
	.loc 8 108 0
	cmpwi 7,0,0
	beq- 7,.L91
	lwz 0,0(5)
.LVL124:
	stwx 0,29,28
.L91:
.LVL125:
.LBE1961:
.LBE1960:
	.loc 7 343 0
	lwz 4,0(31)
.LVL126:
.LBB1962:
.LBB1963:
.LBB1964:
.LBB1965:
.LBB1966:
.LBB1967:
.LBB1968:
.LBB1969:
.LBB1970:
.LBB1971:
.LBB1972:
	.loc 9 365 0
	li 28,0
	.loc 9 364 0
	subf 0,4,30
.LVL127:
	.loc 9 365 0
	srawi. 0,0,2
.LVL128:
	beq+ 0,.L92
	.loc 9 366 0
	slwi 28,0,2
	mr 3,29
	mr 5,28
.LVL129:
	bl memmove
.LVL130:
.L92:
.LBE1972:
.LBE1971:
.LBE1970:
.LBE1969:
.LBE1968:
.LBE1967:
.LBE1966:
.LBE1965:
.LBE1964:
.LBE1963:
.LBE1962:
.LBB1983:
.LBB1984:
.LBB1985:
.LBB1986:
.LBB1987:
.LBB1988:
.LBB1989:
.LBB1990:
.LBB1991:
.LBB1992:
.LBB1993:
	.loc 9 364 0
	lwz 0,4(31)
.LBE1993:
.LBE1992:
.LBE1991:
.LBE1990:
.LBE1989:
.LBE1988:
.LBE1987:
.LBE1986:
.LBE1985:
.LBE1984:
.LBE1983:
.LBB2014:
.LBB1982:
.LBB1981:
.LBB1980:
.LBB1979:
.LBB1978:
.LBB1977:
.LBB1976:
.LBB1975:
.LBB1974:
.LBB1973:
	.loc 9 367 0
	add 28,29,28
.LVL131:
.LBE1973:
.LBE1974:
.LBE1975:
.LBE1976:
.LBE1977:
.LBE1978:
.LBE1979:
.LBE1980:
.LBE1981:
.LBE1982:
.LBE2014:
	.loc 7 347 0
	addi 26,28,4
.LBB2015:
.LBB2012:
.LBB2010:
.LBB2008:
.LBB2006:
.LBB2004:
.LBB2002:
.LBB2000:
.LBB1998:
.LBB1996:
.LBB1994:
	.loc 9 365 0
	li 28,0
	.loc 9 364 0
	subf 0,30,0
.LVL132:
	.loc 9 365 0
	srawi. 0,0,2
.LVL133:
	beq+ 0,.L93
	.loc 9 366 0
	slwi 28,0,2
	mr 3,26
	mr 4,30
	mr 5,28
	bl memmove
.LVL134:
.L93:
.LBE1994:
.LBE1996:
.LBE1998:
.LBE2000:
.LBE2002:
.LBE2004:
.LBE2006:
.LBE2008:
.LBE2010:
.LBE2012:
.LBE2015:
	.loc 7 366 0
	lwz 3,0(31)
.LBB2016:
.LBB2013:
.LBB2011:
.LBB2009:
.LBB2007:
.LBB2005:
.LBB2003:
.LBB2001:
.LBB1999:
.LBB1997:
.LBB1995:
	.loc 9 367 0
	add 28,26,28
.LVL135:
.LBE1995:
.LBE1997:
.LBE1999:
.LBE2001:
.LBE2003:
.LBE2005:
.LBE2007:
.LBE2009:
.LBE2011:
.LBE2013:
.LBE2016:
.LBB2017:
.LBB2018:
	.loc 10 155 0
	cmpwi 7,3,0
	beq- 7,.L94
.LVL136:
.LBB2019:
.LBB2020:
	.loc 8 98 0
	bl _ZdlPv
.LVL137:
.L94:
.LBE2020:
.LBE2019:
.LBE2018:
.LBE2017:
.LBE1937:
.LBE2035:
	.loc 7 373 0
	lwz 0,44(1)
.LBB2036:
.LBB2029:
	.loc 7 371 0
	add 27,29,27
	.loc 7 369 0
	stw 29,0(31)
.LBE2029:
.LBE2036:
	.loc 7 373 0
	mtlr 0
.LBB2037:
.LBB2030:
	.loc 7 370 0
	stw 28,4(31)
	.loc 7 371 0
	stw 27,8(31)
.LBE2030:
.LBE2037:
	.loc 7 373 0
	lwz 26,16(1)
.LVL138:
	lwz 27,20(1)
	lwz 28,24(1)
	lwz 29,28(1)
.LVL139:
	lwz 30,32(1)
.LVL140:
	lwz 31,36(1)
.LVL141:
	addi 1,1,40
	.cfi_remember_state
	.cfi_restore 26
	.cfi_restore 27
	.cfi_restore 28
	.cfi_restore 29
	.cfi_restore 30
	.cfi_restore 31
.LCFI32:
	.cfi_def_cfa_offset 0
	blr
.LVL142:
.L88:
.LCFI33:
	.cfi_restore_state
.LBB2038:
.LBB2031:
.LBB2021:
.LBB1949:
	.loc 11 892 0
	subf 28,28,30
.LBE1949:
.LBE2021:
	.loc 7 326 0
	li 27,4
.LBB2022:
.LBB1950:
	.loc 11 892 0
	srawi 28,28,2
.LVL143:
	b .L95
.LVL144:
.L101:
.LBE1950:
.LBE2022:
.LBB2023:
.LBB1944:
	.loc 10 1245 0
	lis 9,0x3fff
	ori 9,9,65535
	cmplw 7,0,9
	bgt+ 7,.L89
.LBE1944:
.LBE2023:
.LBB2024:
.LBB1958:
	.loc 10 150 0
	cmpwi 7,0,0
.LBE1958:
.LBE2024:
.LBB2025:
.LBB1951:
	.loc 11 892 0
	subf 28,28,30
.LBE1951:
.LBE2025:
.LBB2026:
.LBB1945:
	.loc 10 1245 0
	slwi 27,27,3
.LVL145:
.LBE1945:
.LBE2026:
.LBB2027:
.LBB1952:
	.loc 11 892 0
	srawi 28,28,2
.LVL146:
.LBE1952:
.LBE2027:
.LBB2028:
.LBB1959:
	.loc 10 150 0
	li 29,0
	beq+ 7,.L90
	b .L95
.LBE1959:
.LBE2028:
.LBE2031:
.LBE2038:
	.cfi_endproc
.LFE1663:
	.size	_ZNSt6vectorIP10GuiElementSaIS1_EE13_M_insert_auxEN9__gnu_cxx17__normal_iteratorIPS1_S3_EERKS1_, .-_ZNSt6vectorIP10GuiElementSaIS1_EE13_M_insert_auxEN9__gnu_cxx17__normal_iteratorIPS1_S3_EERKS1_
	.section	.text._ZNSt8_Rb_treeIPN7sigslot12_signal_baseINS0_15single_threadedEEES4_St9_IdentityIS4_ESt4lessIS4_ESaIS4_EE8_M_eraseEPSt13_Rb_tree_nodeIS4_E,"axG",@progbits,_ZNSt8_Rb_treeIPN7sigslot12_signal_baseINS0_15single_threadedEEES4_St9_IdentityIS4_ESt4lessIS4_ESaIS4_EE8_M_eraseEPSt13_Rb_tree_nodeIS4_E,comdat
	.align 2
	.weak	_ZNSt8_Rb_treeIPN7sigslot12_signal_baseINS0_15single_threadedEEES4_St9_IdentityIS4_ESt4lessIS4_ESaIS4_EE8_M_eraseEPSt13_Rb_tree_nodeIS4_E
	.type	_ZNSt8_Rb_treeIPN7sigslot12_signal_baseINS0_15single_threadedEEES4_St9_IdentityIS4_ESt4lessIS4_ESaIS4_EE8_M_eraseEPSt13_Rb_tree_nodeIS4_E, @function
_ZNSt8_Rb_treeIPN7sigslot12_signal_baseINS0_15single_threadedEEES4_St9_IdentityIS4_ESt4lessIS4_ESaIS4_EE8_M_eraseEPSt13_Rb_tree_nodeIS4_E:
.LFB1718:
	.file 12 "d:\\devkitpro\\devkitppc\\bin\\../lib/gcc/powerpc-eabi/4.6.3/../../../../powerpc-eabi/include/c++/4.6.3/bits/stl_tree.h"
	.loc 12 1068 0
	.cfi_startproc
.LVL147:
	stwu 1,-56(1)
.LCFI34:
	.cfi_def_cfa_offset 56
	mflr 0
	stw 22,16(1)
.LBB2155:
	.loc 12 1072 0
	mr. 22,4
	.cfi_offset 22, -40
	.cfi_register 65, 0
.LBE2155:
	.loc 12 1068 0
	stw 30,48(1)
	mr 30,3
	.cfi_offset 30, -8
	stw 0,60(1)
	stw 21,12(1)
	stw 23,20(1)
	stw 24,24(1)
	stw 25,28(1)
	stw 26,32(1)
	stw 27,36(1)
	stw 28,40(1)
	stw 29,44(1)
	stw 31,52(1)
.LBB2240:
	.loc 12 1072 0
	beq- 0,.L102
	.cfi_offset 31, -4
	.cfi_offset 29, -12
	.cfi_offset 28, -16
	.cfi_offset 27, -20
	.cfi_offset 26, -24
	.cfi_offset 25, -28
	.cfi_offset 24, -32
	.cfi_offset 23, -36
	.cfi_offset 21, -44
	.cfi_offset 65, 4
.LVL148:
.L148:
	.loc 4 93 0
	lwz 27,12(22)
.LVL149:
.LBB2156:
.LBB2157:
.LBB2158:
	.loc 12 1072 0
	cmpwi 7,27,0
	beq- 7,.L104
.LVL150:
.L149:
.LBE2158:
	.loc 4 93 0
	lwz 26,12(27)
.LVL151:
.LBB2234:
.LBB2159:
.LBB2160:
.LBB2161:
	.loc 12 1072 0
	cmpwi 7,26,0
	beq- 7,.L105
.LVL152:
.L150:
.LBE2161:
	.loc 4 93 0
	lwz 25,12(26)
.LVL153:
.LBB2227:
.LBB2162:
.LBB2163:
.LBB2164:
	.loc 12 1072 0
	cmpwi 7,25,0
	beq- 7,.L106
.LVL154:
.L151:
.LBE2164:
	.loc 4 93 0
	lwz 24,12(25)
.LVL155:
.LBB2220:
.LBB2165:
.LBB2166:
.LBB2167:
	.loc 12 1072 0
	cmpwi 7,24,0
	beq- 7,.L107
.LVL156:
.L152:
.LBE2167:
	.loc 4 93 0
	lwz 23,12(24)
.LVL157:
.LBB2213:
.LBB2168:
.LBB2169:
.LBB2170:
	.loc 12 1072 0
	cmpwi 7,23,0
	beq- 7,.L108
.LVL158:
.L153:
.LBE2170:
	.loc 4 93 0
	lwz 28,12(23)
.LVL159:
.LBB2206:
.LBB2171:
.LBB2172:
.LBB2173:
	.loc 12 1072 0
	cmpwi 7,28,0
	beq- 7,.L109
.LVL160:
.L154:
.LBE2173:
	.loc 4 93 0
	lwz 29,12(28)
.LVL161:
.LBB2199:
.LBB2174:
.LBB2175:
.LBB2176:
	.loc 12 1072 0
	cmpwi 7,29,0
	beq- 7,.L110
.LVL162:
.L155:
.LBE2176:
	.loc 4 93 0
	lwz 31,12(29)
.LVL163:
.LBB2192:
.LBB2177:
.LBB2178:
.LBB2179:
	.loc 12 1072 0
	cmpwi 7,31,0
	beq- 7,.L111
.LVL164:
.L156:
.LBB2180:
	.loc 12 1074 0
	lwz 4,12(31)
	mr 3,30
	bl _ZNSt8_Rb_treeIPN7sigslot12_signal_baseINS0_15single_threadedEEES4_St9_IdentityIS4_ESt4lessIS4_ESaIS4_EE8_M_eraseEPSt13_Rb_tree_nodeIS4_E
.LBE2180:
.LBE2179:
	.loc 4 93 0
	lwz 21,8(31)
.LVL165:
.LBB2186:
.LBB2185:
.LBB2181:
.LBB2182:
.LBB2183:
.LBB2184:
	.loc 8 98 0
	mr 3,31
	bl _ZdlPv
.LVL166:
.LBE2184:
.LBE2183:
.LBE2182:
.LBE2181:
.LBE2185:
	.loc 12 1072 0
	cmpwi 7,21,0
	.loc 12 1077 0
	mr 31,21
.LVL167:
	.loc 12 1072 0
	bne+ 7,.L156
.LVL168:
.L111:
.LBE2186:
.LBE2178:
.LBE2177:
.LBE2192:
	.loc 4 93 0
	lwz 31,8(29)
.LVL169:
.LBB2193:
.LBB2191:
.LBB2187:
.LBB2188:
.LBB2189:
.LBB2190:
	.loc 8 98 0
	mr 3,29
	bl _ZdlPv
.LVL170:
.LBE2190:
.LBE2189:
.LBE2188:
.LBE2187:
.LBE2191:
	.loc 12 1072 0
	cmpwi 7,31,0
	beq- 7,.L110
	.loc 12 1077 0
	mr 29,31
.LVL171:
	b .L155
.LVL172:
.L110:
.LBE2193:
.LBE2175:
.LBE2174:
.LBE2199:
	.loc 4 93 0
	lwz 31,8(28)
.LVL173:
.LBB2200:
.LBB2198:
.LBB2194:
.LBB2195:
.LBB2196:
.LBB2197:
	.loc 8 98 0
	mr 3,28
	bl _ZdlPv
.LVL174:
.LBE2197:
.LBE2196:
.LBE2195:
.LBE2194:
.LBE2198:
	.loc 12 1072 0
	cmpwi 7,31,0
	beq- 7,.L109
	.loc 12 1077 0
	mr 28,31
.LVL175:
	b .L154
.LVL176:
.L109:
.LBE2200:
.LBE2172:
.LBE2171:
.LBE2206:
	.loc 4 93 0
	lwz 31,8(23)
.LVL177:
.LBB2207:
.LBB2205:
.LBB2201:
.LBB2202:
.LBB2203:
.LBB2204:
	.loc 8 98 0
	mr 3,23
	bl _ZdlPv
.LVL178:
.LBE2204:
.LBE2203:
.LBE2202:
.LBE2201:
.LBE2205:
	.loc 12 1072 0
	cmpwi 7,31,0
	beq- 7,.L108
	.loc 12 1077 0
	mr 23,31
.LVL179:
	b .L153
.LVL180:
.L108:
.LBE2207:
.LBE2169:
.LBE2168:
.LBE2213:
	.loc 4 93 0
	lwz 31,8(24)
.LVL181:
.LBB2214:
.LBB2212:
.LBB2208:
.LBB2209:
.LBB2210:
.LBB2211:
	.loc 8 98 0
	mr 3,24
	bl _ZdlPv
.LVL182:
.LBE2211:
.LBE2210:
.LBE2209:
.LBE2208:
.LBE2212:
	.loc 12 1072 0
	cmpwi 7,31,0
	beq- 7,.L107
	.loc 12 1077 0
	mr 24,31
.LVL183:
	b .L152
.LVL184:
.L107:
.LBE2214:
.LBE2166:
.LBE2165:
.LBE2220:
	.loc 4 93 0
	lwz 31,8(25)
.LVL185:
.LBB2221:
.LBB2219:
.LBB2215:
.LBB2216:
.LBB2217:
.LBB2218:
	.loc 8 98 0
	mr 3,25
	bl _ZdlPv
.LVL186:
.LBE2218:
.LBE2217:
.LBE2216:
.LBE2215:
.LBE2219:
	.loc 12 1072 0
	cmpwi 7,31,0
	beq- 7,.L106
	.loc 12 1077 0
	mr 25,31
.LVL187:
	b .L151
.LVL188:
.L106:
.LBE2221:
.LBE2163:
.LBE2162:
.LBE2227:
	.loc 4 93 0
	lwz 31,8(26)
.LVL189:
.LBB2228:
.LBB2226:
.LBB2222:
.LBB2223:
.LBB2224:
.LBB2225:
	.loc 8 98 0
	mr 3,26
	bl _ZdlPv
.LVL190:
.LBE2225:
.LBE2224:
.LBE2223:
.LBE2222:
.LBE2226:
	.loc 12 1072 0
	cmpwi 7,31,0
	beq- 7,.L105
	.loc 12 1077 0
	mr 26,31
.LVL191:
	b .L150
.LVL192:
.L105:
.LBE2228:
.LBE2160:
.LBE2159:
.LBE2234:
	.loc 4 93 0
	lwz 31,8(27)
.LVL193:
.LBB2235:
.LBB2233:
.LBB2229:
.LBB2230:
.LBB2231:
.LBB2232:
	.loc 8 98 0
	mr 3,27
	bl _ZdlPv
.LVL194:
.LBE2232:
.LBE2231:
.LBE2230:
.LBE2229:
.LBE2233:
	.loc 12 1072 0
	cmpwi 7,31,0
	beq- 7,.L104
	.loc 12 1077 0
	mr 27,31
.LVL195:
	b .L149
.LVL196:
.L104:
	.loc 4 93 0
	lwz 31,8(22)
.LVL197:
.LBE2235:
.LBE2157:
.LBB2236:
.LBB2237:
.LBB2238:
.LBB2239:
	.loc 8 98 0
	mr 3,22
	bl _ZdlPv
.LVL198:
.LBE2239:
.LBE2238:
.LBE2237:
.LBE2236:
.LBE2156:
	.loc 12 1072 0
	cmpwi 7,31,0
	beq- 7,.L102
	.loc 12 1077 0
	mr 22,31
.LVL199:
	b .L148
.LVL200:
.L102:
.LBE2240:
	.loc 12 1079 0
	lwz 0,60(1)
	lwz 21,12(1)
	mtlr 0
	lwz 22,16(1)
	lwz 23,20(1)
	lwz 24,24(1)
	lwz 25,28(1)
	lwz 26,32(1)
	lwz 27,36(1)
	lwz 28,40(1)
	lwz 29,44(1)
	lwz 30,48(1)
.LVL201:
	lwz 31,52(1)
	addi 1,1,56
.LCFI35:
	.cfi_def_cfa_offset 0
	.cfi_restore 31
	.cfi_restore 30
	.cfi_restore 29
	.cfi_restore 28
	.cfi_restore 27
	.cfi_restore 26
	.cfi_restore 25
	.cfi_restore 24
	.cfi_restore 23
	.cfi_restore 22
	.cfi_restore 21
	blr
	.cfi_endproc
.LFE1718:
	.size	_ZNSt8_Rb_treeIPN7sigslot12_signal_baseINS0_15single_threadedEEES4_St9_IdentityIS4_ESt4lessIS4_ESaIS4_EE8_M_eraseEPSt13_Rb_tree_nodeIS4_E, .-_ZNSt8_Rb_treeIPN7sigslot12_signal_baseINS0_15single_threadedEEES4_St9_IdentityIS4_ESt4lessIS4_ESaIS4_EE8_M_eraseEPSt13_Rb_tree_nodeIS4_E
	.section	.text._ZN7sigslot9has_slotsINS_15single_threadedEED2Ev,"axG",@progbits,_ZN7sigslot9has_slotsINS_15single_threadedEED5Ev,comdat
	.align 2
	.weak	_ZN7sigslot9has_slotsINS_15single_threadedEED2Ev
	.type	_ZN7sigslot9has_slotsINS_15single_threadedEED2Ev, @function
_ZN7sigslot9has_slotsINS_15single_threadedEED2Ev:
.LFB1616:
	.loc 1 513 0
	.cfi_startproc
	.cfi_personality 0,__gxx_personality_v0
	.cfi_lsda 0,.LLSDA1616
.LVL202:
	mflr 0
	stwu 1,-32(1)
.LCFI36:
	.cfi_def_cfa_offset 32
	.cfi_register 65, 0
.LBB2387:
	.loc 1 516 0
	lis 9,_ZTVN7sigslot9has_slotsINS_15single_threadedEEE+8@ha
.LBE2387:
	.loc 1 513 0
	stw 28,16(1)
	addi 28,3,4
	.cfi_offset 28, -16
	stw 0,36(1)
.LBB2463:
	.loc 1 516 0
	la 0,_ZTVN7sigslot9has_slotsINS_15single_threadedEEE+8@l(9)
	.cfi_offset 65, 4
.LBE2463:
	.loc 1 513 0
	stw 29,20(1)
	mr 29,3
	.cfi_offset 29, -12
	stw 26,8(1)
	stw 27,12(1)
	stw 30,24(1)
	stw 31,28(1)
.LBB2464:
	.loc 1 516 0
	stw 0,0(3)
.LVL203:
.LEHB3:
.LBB2388:
.LBB2389:
.LBB2390:
.LBB2391:
	.loc 1 338 0
	.cfi_offset 31, -4
	.cfi_offset 30, -8
	.cfi_offset 27, -20
	.cfi_offset 26, -24
	bl _ZN7sigslot15single_threaded4lockEv
.LEHE3:
.LVL204:
.LBE2391:
.LBE2390:
.LBB2392:
	.loc 4 93 0
	lwz 31,16(29)
.LVL205:
.LBE2392:
.LBB2393:
.LBB2394:
.LBB2395:
	.loc 12 671 0
	addi 30,28,4
.LVL206:
.LBE2395:
.LBE2394:
.LBE2393:
	.loc 1 524 0
	cmpw 7,31,30
	beq- 7,.L158
.LVL207:
.L185:
	.loc 1 526 0
	lwz 3,16(31)
	mr 4,29
	lwz 9,0(3)
	lwz 0,16(9)
	mtctr 0
.LEHB4:
	bctrl
.LEHE4:
.LVL208:
.LBB2396:
.LBB2397:
	.loc 12 269 0
	mr 3,31
	bl _ZSt18_Rb_tree_incrementPKSt18_Rb_tree_node_base
.LBE2397:
.LBE2396:
	.loc 1 524 0
	cmpw 7,30,3
.LBB2399:
.LBB2398:
	.loc 12 269 0
	mr 31,3
.LVL209:
.LBE2398:
.LBE2399:
	.loc 1 524 0
	bne+ 7,.L185
	lwz 31,16(29)
.LVL210:
.L158:
.LBB2400:
.LBB2401:
.LBB2402:
.LBB2403:
.LBB2404:
.LBB2405:
.LBB2406:
	.loc 12 665 0
	addi 26,28,4
.LBE2406:
.LBE2405:
	.loc 12 1500 0
	cmpw 7,30,26
	beq- 7,.L160
.LVL211:
	.loc 12 1503 0
	cmpw 7,30,31
	bne+ 7,.L187
	b .L161
.LVL212:
.L182:
	.loc 12 277 0
	mr 31,27
.LVL213:
.L187:
.LBB2407:
.LBB2408:
	mr 3,31
	bl _ZSt18_Rb_tree_incrementPKSt18_Rb_tree_node_base
.LBE2408:
.LBE2407:
.LBB2410:
.LBB2411:
.LBB2412:
	.loc 12 1489 0
	mr 4,26
.LBE2412:
.LBE2411:
.LBE2410:
.LBB2421:
.LBB2409:
	.loc 12 277 0
	mr 27,3
.LVL214:
.LBE2409:
.LBE2421:
.LBB2422:
.LBB2419:
.LBB2417:
	.loc 12 1489 0
	mr 3,31
.LVL215:
	bl _ZSt28_Rb_tree_rebalance_for_erasePSt18_Rb_tree_node_baseRS_
.LBB2413:
.LBB2414:
.LBB2415:
.LBB2416:
	.loc 8 98 0
	bl _ZdlPv
.LBE2416:
.LBE2415:
.LBE2414:
.LBE2413:
.LBE2417:
.LBE2419:
.LBE2422:
	.loc 12 1503 0
	cmpw 7,30,27
.LBB2423:
.LBB2420:
.LBB2418:
	.loc 12 1491 0
	lwz 9,20(28)
	addi 0,9,-1
	stw 0,20(28)
.LBE2418:
.LBE2420:
.LBE2423:
	.loc 12 1503 0
	bne+ 7,.L182
.LVL216:
.L161:
.LBE2404:
.LBE2403:
.LBE2402:
.LBE2401:
.LBE2400:
.LBB2432:
.LBB2433:
.LBB2434:
	.loc 1 343 0
	lwz 9,0(29)
	mr 3,29
	lwz 0,12(9)
	mtctr 0
.LEHB5:
	bctrl
.LEHE5:
.LVL217:
.LBE2434:
.LBE2433:
.LBE2432:
.LBE2389:
.LBE2388:
.LBB2441:
.LBB2442:
.LBB2443:
.LBB2444:
.LBB2445:
	.loc 12 639 0
	lwz 4,12(29)
	mr 3,28
	bl _ZNSt8_Rb_treeIPN7sigslot12_signal_baseINS0_15single_threadedEEES4_St9_IdentityIS4_ESt4lessIS4_ESaIS4_EE8_M_eraseEPSt13_Rb_tree_nodeIS4_E
.LVL218:
.LBE2445:
.LBE2444:
.LBE2443:
.LBE2442:
.LBE2441:
.LBB2446:
.LBB2447:
.LBB2448:
	.loc 1 105 0
	lis 9,_ZTVN7sigslot15single_threadedE+8@ha
	la 0,_ZTVN7sigslot15single_threadedE+8@l(9)
.LBE2448:
.LBE2447:
.LBE2446:
.LBE2464:
	.loc 1 516 0
	lwz 26,8(1)
.LBB2465:
.LBB2451:
.LBB2450:
.LBB2449:
	.loc 1 105 0
	stw 0,0(29)
.LBE2449:
.LBE2450:
.LBE2451:
.LBE2465:
	.loc 1 516 0
	lwz 0,36(1)
	lwz 27,12(1)
	mtlr 0
	lwz 28,16(1)
.LVL219:
	lwz 29,20(1)
.LVL220:
	lwz 30,24(1)
.LVL221:
	lwz 31,28(1)
	addi 1,1,32
	.cfi_remember_state
.LCFI37:
	.cfi_def_cfa_offset 0
	.cfi_restore 31
	.cfi_restore 30
	.cfi_restore 29
	.cfi_restore 28
	.cfi_restore 27
	.cfi_restore 26
	blr
.LVL222:
.L160:
.LCFI38:
	.cfi_restore_state
.LBB2466:
.LBB2452:
.LBB2439:
.LBB2435:
.LBB2431:
.LBB2430:
.LBB2429:
.LBB2428:
.LBB2424:
.LBB2425:
.LBB2426:
.LBB2427:
	.loc 12 809 0
	lwz 4,12(29)
	mr 3,28
	bl _ZNSt8_Rb_treeIPN7sigslot12_signal_baseINS0_15single_threadedEEES4_St9_IdentityIS4_ESt4lessIS4_ESaIS4_EE8_M_eraseEPSt13_Rb_tree_nodeIS4_E
.LVL223:
	.loc 12 811 0
	li 0,0
	.loc 12 810 0
	stw 30,16(29)
.LVL224:
	.loc 12 811 0
	stw 0,12(29)
.LVL225:
	.loc 12 812 0
	stw 30,20(29)
	.loc 12 813 0
	stw 0,24(29)
	b .L161
.LVL226:
.L183:
	mr 31,3
.L168:
.LVL227:
.LBE2427:
.LBE2426:
.LBE2425:
.LBE2424:
.LBE2428:
.LBE2429:
.LBE2430:
.LBE2431:
.LBE2435:
.LBE2439:
.LBE2452:
.LBB2453:
.LBB2454:
.LBB2455:
.LBB2456:
.LBB2457:
.LBB2458:
	.loc 12 639 0
	lwz 4,12(29)
	mr 3,28
	bl _ZNSt8_Rb_treeIPN7sigslot12_signal_baseINS0_15single_threadedEEES4_St9_IdentityIS4_ESt4lessIS4_ESaIS4_EE8_M_eraseEPSt13_Rb_tree_nodeIS4_E
.LVL228:
.LBE2458:
.LBE2457:
.LBE2456:
.LBE2455:
.LBE2454:
.LBE2453:
.LBB2459:
.LBB2460:
.LBB2461:
	.loc 1 105 0
	lis 9,_ZTVN7sigslot15single_threadedE+8@ha
	la 0,_ZTVN7sigslot15single_threadedE+8@l(9)
	mr 3,31
	stw 0,0(29)
.LEHB6:
	bl _Unwind_Resume
.LEHE6:
.LVL229:
.L184:
.LBE2461:
.LBE2460:
.LBE2459:
.LBB2462:
.LBB2440:
.LBB2436:
.LBB2437:
.LBB2438:
	.loc 1 343 0
	lwz 9,0(29)
	mr 31,3
.LVL230:
	mr 3,29
	lwz 0,12(9)
	mtctr 0
	bctrl
	b .L168
.LBE2438:
.LBE2437:
.LBE2436:
.LBE2440:
.LBE2462:
.LBE2466:
	.cfi_endproc
.LFE1616:
	.section	.gcc_except_table
.LLSDA1616:
	.byte	0xff
	.byte	0xff
	.byte	0x1
	.uleb128 .LLSDACSE1616-.LLSDACSB1616
.LLSDACSB1616:
	.uleb128 .LEHB3-.LFB1616
	.uleb128 .LEHE3-.LEHB3
	.uleb128 .L183-.LFB1616
	.uleb128 0
	.uleb128 .LEHB4-.LFB1616
	.uleb128 .LEHE4-.LEHB4
	.uleb128 .L184-.LFB1616
	.uleb128 0
	.uleb128 .LEHB5-.LFB1616
	.uleb128 .LEHE5-.LEHB5
	.uleb128 .L183-.LFB1616
	.uleb128 0
	.uleb128 .LEHB6-.LFB1616
	.uleb128 .LEHE6-.LEHB6
	.uleb128 0
	.uleb128 0
.LLSDACSE1616:
	.section	.text._ZN7sigslot9has_slotsINS_15single_threadedEED2Ev,"axG",@progbits,_ZN7sigslot9has_slotsINS_15single_threadedEED5Ev,comdat
	.size	_ZN7sigslot9has_slotsINS_15single_threadedEED2Ev, .-_ZN7sigslot9has_slotsINS_15single_threadedEED2Ev
	.section	".text"
	.align 2
	.globl _ZN11ScreenSaverC2Ev
	.type	_ZN11ScreenSaverC2Ev, @function
_ZN11ScreenSaverC2Ev:
.LFB1575:
	.loc 4 36 0
	.cfi_startproc
	.cfi_personality 0,__gxx_personality_v0
	.cfi_lsda 0,.LLSDA1575
.LVL231:
	stwu 1,-56(1)
.LCFI39:
	.cfi_def_cfa_offset 56
	mflr 0
.LBB2520:
	.loc 4 37 0
	li 6,0
.LBE2520:
	.loc 4 36 0
	stw 28,40(1)
.LBB2610:
	.loc 4 37 0
	lis 28,screenwidth@ha
	.cfi_offset 28, -16
	.cfi_register 65, 0
.LBE2610:
	.loc 4 36 0
	stw 30,48(1)
.LBB2611:
	.loc 4 37 0
	lis 30,screenheight@ha
	.cfi_offset 30, -8
	lwz 4,screenwidth@l(28)
	lwz 5,screenheight@l(30)
.LBE2611:
	.loc 4 36 0
	stw 0,60(1)
	stw 29,44(1)
	mr 29,3
	.cfi_offset 29, -12
	.cfi_offset 65, 4
	stw 27,36(1)
	stw 31,52(1)
.LEHB7:
.LBB2612:
	.loc 4 37 0
	.cfi_offset 31, -4
	.cfi_offset 27, -20
	bl _ZN8GuiFrameC2EiiPS_
.LEHE7:
.LVL232:
	lis 9,_ZTV11ScreenSaver+8@ha
.LBB2521:
.LBB2522:
.LBB2523:
.LBB2524:
.LBB2525:
.LBB2526:
	.loc 12 445 0
	li 0,0
.LBE2526:
.LBE2525:
.LBE2524:
.LBE2523:
.LBE2522:
.LBE2521:
	.loc 4 37 0
	la 9,_ZTV11ScreenSaver+8@l(9)
.LBB2541:
.LBB2539:
.LBB2537:
.LBB2535:
.LBB2533:
.LBB2531:
.LBB2527:
.LBB2528:
	.loc 12 459 0
	addi 11,29,184
.LBE2528:
.LBE2527:
.LBE2531:
.LBE2533:
.LBE2535:
.LBE2537:
.LBE2539:
.LBE2541:
	.loc 4 37 0
	addi 10,9,228
.LBB2542:
.LBB2540:
.LBB2538:
.LBB2536:
.LBB2534:
.LBB2532:
	.loc 12 445 0
	stw 0,184(29)
	stw 0,188(29)
	stw 0,200(29)
.LVL233:
.LBB2530:
.LBB2529:
	.loc 12 459 0
	stw 11,192(29)
	.loc 12 460 0
	stw 11,196(29)
.LBE2529:
.LBE2530:
.LBE2532:
.LBE2534:
.LBE2536:
.LBE2538:
.LBE2540:
.LBE2542:
	.loc 4 37 0
	stw 9,0(29)
	stw 10,176(29)
.LVL234:
.LEHB8:
.LBB2543:
.LBB2544:
	.loc 6 57 0
	bl gettime
.LEHE8:
	stw 3,216(29)
.LBE2544:
.LBE2543:
	.loc 4 39 0
	li 3,0
.LBB2546:
.LBB2545:
	.loc 6 57 0
	stw 4,220(29)
.LBE2545:
.LBE2546:
	.loc 4 39 0
	bl srand
	.loc 4 41 0
	lis 3,.LC6@ha
	la 3,.LC6@l(3)
.LEHB9:
	bl _ZN9Resources12GetImageDataEPKc
	stw 3,204(29)
	.loc 4 42 0
	li 3,196
	bl _Znwj
.LEHE9:
	.loc 4 42 0 is_stmt 0 discriminator 1
	lwz 4,204(29)
	mr 31,3
.LEHB10:
	bl _ZN8GuiImageC1EP12GuiImageData
.LEHE10:
	stw 31,208(29)
	.loc 4 43 0 is_stmt 1 discriminator 1
	mr 3,31
	lwz 9,0(31)
	li 4,17
	lwz 0,180(9)
	mtctr 0
.LEHB11:
	bctrl
	.loc 4 44 0
	lwz 3,208(29)
	li 4,172
	li 5,152
	lwz 9,0(3)
	lwz 0,168(9)
	mtctr 0
	bctrl
	.loc 4 46 0
	lis 3,.LC7@ha
	la 3,.LC7@l(3)
	bl getThemeColor
	mr 27,3
	li 3,196
	bl _Znwj
.LEHE11:
	.loc 4 46 0 is_stmt 0 discriminator 1
	mr 6,1
	lwz 4,screenwidth@l(28)
	stwu 27,24(6)
	mr 31,3
	lwz 5,screenheight@l(30)
.LEHB12:
	bl _ZN8GuiImageC1Eii9_gx_color
.LEHE12:
	stw 31,212(29)
	.loc 4 47 0 is_stmt 1 discriminator 1
	mr 3,31
	lwz 9,0(31)
	li 4,17
	lwz 0,180(9)
	mtctr 0
.LEHB13:
	bctrl
	.loc 4 49 0
	lwz 4,212(29)
	mr 3,29
	bl _ZN8GuiFrame6AppendEP10GuiElement
	.loc 4 50 0
	lwz 4,208(29)
	mr 3,29
	bl _ZN8GuiFrame6AppendEP10GuiElement
.LBB2547:
.LBB2548:
	.loc 5 27 0
	lis 27,_ZN11Application8instanceE@ha
	lwz 28,_ZN11Application8instanceE@l(27)
	cmpwi 7,28,0
	beq- 7,.L219
.L190:
.LBE2548:
.LBE2547:
.LBB2552:
.LBB2553:
.LBB2554:
	.loc 4 93 0
	lwz 9,604(28)
.LBB2555:
	.loc 5 69 0
	li 31,0
.LBE2555:
	.loc 4 93 0
	lwz 11,608(28)
.LBE2554:
.LBE2553:
.LBE2552:
	.loc 4 52 0
	stw 29,8(1)
.LVL235:
.LBB2596:
.LBB2593:
.LBB2585:
.LBB2583:
.LBB2556:
.LBB2557:
	.loc 10 571 0
	subf 0,9,11
.LBE2557:
.LBE2556:
	.loc 5 69 0
	srwi. 10,0,2
	mr 0,9
	bne+ 0,.L216
	b .L192
.LVL236:
.L195:
.LBB2561:
.LBB2558:
	.loc 10 571 0
	subf 9,0,11
.LBE2558:
.LBE2561:
	.loc 5 69 0
	addi 31,31,1
.LVL237:
.LBB2562:
.LBB2559:
	.loc 10 571 0
	srawi 9,9,2
.LBE2559:
.LBE2562:
	.loc 5 69 0
	cmplw 7,31,9
	bge- 7,.L192
.LVL238:
.L208:
	.loc 4 93 0
	mr 9,0
.LVL239:
.L216:
.LBE2583:
.LBE2585:
.LBE2593:
.LBE2596:
.LBB2597:
.LBB2549:
	.loc 4 36 0
	slwi 30,31,2
.LBE2549:
.LBE2597:
.LBB2598:
.LBB2594:
.LBB2586:
.LBB2584:
	.loc 5 70 0
	lwzx 9,9,30
	cmpw 7,29,9
	bne+ 7,.L195
	.loc 5 71 0
	lwz 3,628(28)
	bl LWP_MutexLock
.LBB2563:
.LBB2564:
	.loc 11 773 0
	lwz 3,604(28)
.LBE2564:
.LBE2563:
.LBB2566:
.LBB2567:
.LBB2568:
	.loc 4 93 0
	lwz 9,608(28)
.LBE2568:
.LBE2567:
.LBE2566:
.LBB2579:
.LBB2565:
	.loc 11 773 0
	add 3,3,30
.LVL240:
.LBE2565:
.LBE2579:
.LBB2580:
.LBB2577:
.LBB2569:
.LBB2570:
	addi 4,3,4
.LBE2570:
.LBE2569:
	.loc 7 138 0
	cmpw 7,4,9
	beq- 7,.L196
.LVL241:
.LBB2571:
.LBB2572:
.LBB2573:
.LBB2574:
.LBB2575:
.LBB2576:
	.loc 9 364 0
	subf 5,4,9
.LVL242:
	.loc 9 365 0
	srawi. 5,5,2
.LVL243:
	beq+ 0,.L196
	.loc 9 366 0
	slwi 5,5,2
.LVL244:
	bl memmove
.LVL245:
	lwz 9,608(28)
.LVL246:
.L196:
.LBE2576:
.LBE2575:
.LBE2574:
.LBE2573:
.LBE2572:
.LBE2571:
	.loc 7 140 0
	addi 9,9,-4
.LBE2577:
.LBE2580:
	.loc 5 73 0
	lwz 3,628(28)
.LBB2581:
.LBB2578:
	.loc 7 140 0
	stw 9,608(28)
.LBE2578:
.LBE2581:
	.loc 5 73 0
	bl LWP_MutexUnlock
	lwz 0,604(28)
	.loc 5 69 0
	addi 31,31,1
.LVL247:
	.loc 5 73 0
	lwz 11,608(28)
.LBB2582:
.LBB2560:
	.loc 10 571 0
	subf 9,0,11
	srawi 9,9,2
.LBE2560:
.LBE2582:
	.loc 5 69 0
	cmplw 7,31,9
	blt+ 7,.L208
.LVL248:
.L192:
.LBE2584:
.LBE2586:
	.loc 5 62 0
	lwz 3,628(28)
	bl LWP_MutexLock
.LVL249:
.LBB2587:
.LBB2588:
	.loc 10 828 0
	lwz 9,608(28)
	lwz 0,612(28)
	cmpw 7,9,0
	beq- 7,.L197
.LVL250:
.LBB2589:
.LBB2590:
	.loc 8 108 0
	cmpwi 7,9,0
	li 11,0
	beq- 7,.L198
	lwz 0,8(1)
	stw 0,0(9)
	lwz 11,608(28)
.L198:
.LBE2590:
.LBE2589:
	.loc 10 831 0
	addi 11,11,4
	stw 11,608(28)
.LVL251:
.L199:
.LBE2588:
.LBE2587:
	.loc 5 64 0
	lwz 3,628(28)
	bl LWP_MutexUnlock
.LBE2594:
.LBE2598:
.LBB2599:
.LBB2600:
	.loc 5 27 0
	lwz 0,_ZN11Application8instanceE@l(27)
	cmpwi 7,0,0
	beq- 7,.L220
.L200:
.LVL252:
.LBE2600:
.LBE2599:
.LBB2602:
.LBB2603:
	.loc 5 39 0
	li 0,0
	lis 9,_ZN11Application18screenSaverEnabledE@ha
.LBE2603:
.LBE2602:
	.loc 4 54 0
	mr 3,29
	li 4,128
	li 5,50
	li 6,0
.LBB2605:
.LBB2604:
	.loc 5 39 0
	stb 0,_ZN11Application18screenSaverEnabledE@l(9)
.LBE2604:
.LBE2605:
	.loc 4 54 0
	bl _ZN10GuiElement9SetEffectEiii
.LBE2612:
	.loc 4 55 0
	lwz 0,60(1)
	lwz 27,36(1)
	mtlr 0
	lwz 28,40(1)
.LVL253:
	lwz 29,44(1)
.LVL254:
	lwz 30,48(1)
	lwz 31,52(1)
	addi 1,1,56
	.cfi_remember_state
.LCFI40:
	.cfi_def_cfa_offset 0
	.cfi_restore 31
	.cfi_restore 30
	.cfi_restore 29
	.cfi_restore 28
	.cfi_restore 27
	blr
.LVL255:
.L219:
.LCFI41:
	.cfi_restore_state
.LBB2613:
.LBB2606:
.LBB2550:
	.loc 5 27 0
	li 3,632
	bl _Znwj
.LEHE13:
	mr 28,3
.LEHB14:
	bl _ZN11ApplicationC1Ev
.LEHE14:
	stw 28,_ZN11Application8instanceE@l(27)
	b .L190
.LVL256:
.L220:
.LBE2550:
.LBE2606:
.LBB2607:
.LBB2601:
	li 3,632
.LEHB15:
	bl _Znwj
.LEHE15:
	mr 31,3
.LEHB16:
	bl _ZN11ApplicationC1Ev
.LEHE16:
	stw 31,_ZN11Application8instanceE@l(27)
	b .L200
.L197:
.LVL257:
.LBE2601:
.LBE2607:
.LBB2608:
.LBB2595:
.LBB2592:
.LBB2591:
	.loc 10 834 0
	mr 4,1
	addi 3,28,604
	stwu 9,28(4)
	addi 5,1,8
.LEHB17:
	bl _ZNSt6vectorIP10GuiElementSaIS1_EE13_M_insert_auxEN9__gnu_cxx17__normal_iteratorIPS1_S3_EERKS1_
.LEHE17:
	b .L199
.LVL258:
.L214:
	mr 31,3
.LBE2591:
.LBE2592:
.LBE2595:
.LBE2608:
.LBB2609:
.LBB2551:
	.loc 5 27 0
	mr 3,28
	bl _ZdlPv
	mr 30,31
.LVL259:
.L205:
.LBE2551:
.LBE2609:
	.loc 4 46 0
	mr 31,30
.L206:
	.loc 4 37 0
	addi 3,29,176
	bl _ZN7sigslot9has_slotsINS_15single_threadedEED2Ev
	mr 3,29
	bl _ZN8GuiFrameD2Ev
	mr 3,31
.LEHB18:
	bl _Unwind_Resume
.LEHE18:
.LVL260:
.L213:
.L218:
	mr 30,3
	.loc 4 46 0
	mr 3,31
	bl _ZdlPv
	b .L205
.LVL261:
.L212:
	b .L218
.LVL262:
.L211:
	mr 30,3
	b .L205
.LVL263:
.L210:
	mr 31,3
	b .L206
.LVL264:
.L215:
	b .L218
.LBE2613:
	.cfi_endproc
.LFE1575:
	.section	.gcc_except_table
.LLSDA1575:
	.byte	0xff
	.byte	0xff
	.byte	0x1
	.uleb128 .LLSDACSE1575-.LLSDACSB1575
.LLSDACSB1575:
	.uleb128 .LEHB7-.LFB1575
	.uleb128 .LEHE7-.LEHB7
	.uleb128 0
	.uleb128 0
	.uleb128 .LEHB8-.LFB1575
	.uleb128 .LEHE8-.LEHB8
	.uleb128 .L210-.LFB1575
	.uleb128 0
	.uleb128 .LEHB9-.LFB1575
	.uleb128 .LEHE9-.LEHB9
	.uleb128 .L211-.LFB1575
	.uleb128 0
	.uleb128 .LEHB10-.LFB1575
	.uleb128 .LEHE10-.LEHB10
	.uleb128 .L212-.LFB1575
	.uleb128 0
	.uleb128 .LEHB11-.LFB1575
	.uleb128 .LEHE11-.LEHB11
	.uleb128 .L211-.LFB1575
	.uleb128 0
	.uleb128 .LEHB12-.LFB1575
	.uleb128 .LEHE12-.LEHB12
	.uleb128 .L213-.LFB1575
	.uleb128 0
	.uleb128 .LEHB13-.LFB1575
	.uleb128 .LEHE13-.LEHB13
	.uleb128 .L211-.LFB1575
	.uleb128 0
	.uleb128 .LEHB14-.LFB1575
	.uleb128 .LEHE14-.LEHB14
	.uleb128 .L214-.LFB1575
	.uleb128 0
	.uleb128 .LEHB15-.LFB1575
	.uleb128 .LEHE15-.LEHB15
	.uleb128 .L211-.LFB1575
	.uleb128 0
	.uleb128 .LEHB16-.LFB1575
	.uleb128 .LEHE16-.LEHB16
	.uleb128 .L215-.LFB1575
	.uleb128 0
	.uleb128 .LEHB17-.LFB1575
	.uleb128 .LEHE17-.LEHB17
	.uleb128 .L211-.LFB1575
	.uleb128 0
	.uleb128 .LEHB18-.LFB1575
	.uleb128 .LEHE18-.LEHB18
	.uleb128 0
	.uleb128 0
.LLSDACSE1575:
	.section	".text"
	.size	_ZN11ScreenSaverC2Ev, .-_ZN11ScreenSaverC2Ev
	.align 2
	.globl _ZThn176_N11ScreenSaverD1Ev
	.type	_ZThn176_N11ScreenSaverD1Ev, @function
_ZThn176_N11ScreenSaverD1Ev:
.LFB2035:
	.cfi_startproc
	addi 3,3,-176
	b .LTHUNK0
	.cfi_endproc
.LFE2035:
	.size	_ZThn176_N11ScreenSaverD1Ev, .-_ZThn176_N11ScreenSaverD1Ev
	.align 2
	.globl _ZN11ScreenSaverD2Ev
	.type	_ZN11ScreenSaverD2Ev, @function
_ZN11ScreenSaverD2Ev:
.LFB1578:
	.loc 4 57 0
	.cfi_startproc
	.cfi_personality 0,__gxx_personality_v0
	.cfi_lsda 0,.LLSDA1578
.LVL265:
	mflr 0
	stwu 1,-24(1)
.LCFI42:
	.cfi_def_cfa_offset 24
	.cfi_register 65, 0
.LBB2716:
	lis 9,_ZTV11ScreenSaver+8@ha
	la 9,_ZTV11ScreenSaver+8@l(9)
.LBE2716:
	stw 28,8(1)
	stw 0,28(1)
.LBB2815:
	addi 0,9,228
	.cfi_offset 65, 4
	.cfi_offset 28, -16
.LBE2815:
	stw 29,12(1)
	mr 28,3
	stw 30,16(1)
	stw 31,20(1)
.LBB2816:
	.loc 4 57 0
	stw 9,0(3)
	stw 0,176(3)
.LEHB19:
	.loc 4 59 0
	.cfi_offset 31, -4
	.cfi_offset 30, -8
	.cfi_offset 29, -12
	bl _ZN8GuiFrame9RemoveAllEv
.LVL266:
	.loc 4 61 0
	lwz 3,208(28)
	cmpwi 7,3,0
	beq- 7,.L222
	.loc 4 61 0 is_stmt 0 discriminator 1
	lwz 9,0(3)
	lwz 0,4(9)
	mtctr 0
	bctrl
.L222:
	.loc 4 62 0 is_stmt 1
	lwz 3,212(28)
	cmpwi 7,3,0
	beq- 7,.L223
	.loc 4 62 0 is_stmt 0 discriminator 1
	lwz 9,0(3)
	lwz 0,4(9)
	mtctr 0
	bctrl
.L223:
	.loc 4 64 0 is_stmt 1
	lwz 3,204(28)
	bl _ZN9Resources6RemoveEP12GuiImageData
.LEHE19:
.LBB2717:
.LBB2718:
	.loc 5 27 0
	lis 31,_ZN11Application8instanceE@ha
	lwz 0,_ZN11Application8instanceE@l(31)
	cmpwi 7,0,0
	beq- 7,.L264
.L224:
.LVL267:
.LBE2718:
.LBE2717:
.LBB2720:
.LBB2721:
.LBB2722:
	.loc 1 516 0
	lis 9,_ZTVN7sigslot9has_slotsINS_15single_threadedEEE+8@ha
.LBE2722:
.LBE2721:
.LBE2720:
	.loc 4 57 0
	addi 29,28,176
.LVL268:
.LBB2808:
.LBB2804:
.LBB2800:
	.loc 1 516 0
	la 0,_ZTVN7sigslot9has_slotsINS_15single_threadedEEE+8@l(9)
.LBB2723:
.LBB2724:
.LBB2725:
.LBB2726:
	.loc 1 338 0
	mr 3,29
.LBE2726:
.LBE2725:
.LBE2724:
.LBE2723:
	.loc 1 516 0
	stw 0,176(28)
.LVL269:
.LBE2800:
.LBE2804:
.LBE2808:
.LBB2809:
.LBB2810:
	.loc 5 39 0
	lis 9,_ZN11Application18screenSaverEnabledE@ha
	li 0,1
	addi 31,28,180
	stb 0,_ZN11Application18screenSaverEnabledE@l(9)
.LEHB20:
.LBE2810:
.LBE2809:
.LBB2811:
.LBB2805:
.LBB2801:
.LBB2778:
.LBB2776:
.LBB2728:
.LBB2727:
	.loc 1 338 0
	bl _ZN7sigslot15single_threaded4lockEv
.LEHE20:
.LVL270:
.LBE2727:
.LBE2728:
.LBB2729:
	.loc 4 93 0
	lwz 31,192(28)
.LVL271:
.LBE2729:
.LBB2730:
.LBB2731:
.LBB2732:
	.loc 12 671 0
	addi 30,28,184
.LVL272:
.LBE2732:
.LBE2731:
.LBE2730:
	.loc 1 524 0
	cmpw 7,31,30
	beq- 7,.L228
.LVL273:
.L260:
	.loc 1 526 0
	lwz 3,16(31)
	mr 4,29
	lwz 9,0(3)
	lwz 0,16(9)
	mtctr 0
.LEHB21:
	bctrl
.LEHE21:
.LVL274:
.LBB2733:
.LBB2734:
	.loc 12 269 0
	mr 3,31
	bl _ZSt18_Rb_tree_incrementPKSt18_Rb_tree_node_base
.LBE2734:
.LBE2733:
	.loc 1 524 0
	cmpw 7,30,3
.LBB2736:
.LBB2735:
	.loc 12 269 0
	mr 31,3
.LVL275:
.LBE2735:
.LBE2736:
	.loc 1 524 0
	bne+ 7,.L260
.LVL276:
.L228:
.LBB2737:
.LBB2738:
	.file 13 "d:\\devkitpro\\devkitppc\\bin\\../lib/gcc/powerpc-eabi/4.6.3/../../../../powerpc-eabi/include/c++/4.6.3/bits/stl_set.h"
	.loc 13 562 0
	addi 31,28,180
.LVL277:
.LBB2739:
.LBB2740:
.LBB2741:
.LBB2742:
.LBB2743:
.LBB2744:
.LBB2745:
	.loc 12 809 0
	lwz 4,188(28)
	mr 3,31
	bl _ZNSt8_Rb_treeIPN7sigslot12_signal_baseINS0_15single_threadedEEES4_St9_IdentityIS4_ESt4lessIS4_ESaIS4_EE8_M_eraseEPSt13_Rb_tree_nodeIS4_E
.LVL278:
	.loc 12 811 0
	li 0,0
	.loc 12 810 0
	stw 30,192(28)
.LVL279:
.LBE2745:
.LBE2744:
.LBE2743:
.LBE2742:
.LBE2741:
.LBE2740:
.LBE2739:
.LBE2738:
.LBE2737:
.LBB2762:
.LBB2763:
.LBB2764:
	.loc 1 343 0
	mr 3,29
.LBE2764:
.LBE2763:
.LBE2762:
.LBB2769:
.LBB2760:
.LBB2758:
.LBB2756:
.LBB2754:
.LBB2752:
.LBB2750:
.LBB2748:
.LBB2746:
	.loc 12 811 0
	stw 0,188(28)
.LVL280:
	.loc 12 812 0
	stw 30,196(28)
.LBE2746:
.LBE2748:
.LBE2750:
.LBE2752:
.LBE2754:
.LBE2756:
.LBE2758:
.LBE2760:
.LBE2769:
.LBB2770:
.LBB2767:
.LBB2765:
	.loc 1 343 0
	lwz 9,176(28)
.LBE2765:
.LBE2767:
.LBE2770:
.LBB2771:
.LBB2761:
.LBB2759:
.LBB2757:
.LBB2755:
.LBB2753:
.LBB2751:
.LBB2749:
.LBB2747:
	.loc 12 813 0
	stw 0,200(28)
.LVL281:
.LBE2747:
.LBE2749:
.LBE2751:
.LBE2753:
.LBE2755:
.LBE2757:
.LBE2759:
.LBE2761:
.LBE2771:
.LBB2772:
.LBB2768:
.LBB2766:
	.loc 1 343 0
	lwz 0,12(9)
	mtctr 0
.LEHB22:
	bctrl
.LEHE22:
.LVL282:
.LBE2766:
.LBE2768:
.LBE2772:
.LBE2776:
.LBE2778:
.LBB2779:
.LBB2780:
.LBB2781:
.LBB2782:
.LBB2783:
	.loc 12 639 0
	lwz 4,188(28)
	mr 3,31
	bl _ZNSt8_Rb_treeIPN7sigslot12_signal_baseINS0_15single_threadedEEES4_St9_IdentityIS4_ESt4lessIS4_ESaIS4_EE8_M_eraseEPSt13_Rb_tree_nodeIS4_E
.LBE2783:
.LBE2782:
.LBE2781:
.LBE2780:
.LBE2779:
.LBB2784:
.LBB2785:
.LBB2786:
	.loc 1 105 0
	lis 9,_ZTVN7sigslot15single_threadedE+8@ha
	la 0,_ZTVN7sigslot15single_threadedE+8@l(9)
.LBE2786:
.LBE2785:
.LBE2784:
.LBE2801:
.LBE2805:
.LBE2811:
	.loc 4 57 0
	mr 3,28
.LBB2812:
.LBB2806:
.LBB2802:
.LBB2789:
.LBB2788:
.LBB2787:
	.loc 1 105 0
	stw 0,176(28)
.LEHB23:
.LBE2787:
.LBE2788:
.LBE2789:
.LBE2802:
.LBE2806:
.LBE2812:
	.loc 4 57 0
	bl _ZN8GuiFrameD2Ev
.LEHE23:
.LBE2816:
	.loc 4 67 0
	lwz 0,28(1)
	lwz 28,8(1)
.LVL283:
	mtlr 0
	lwz 29,12(1)
.LVL284:
	lwz 30,16(1)
.LVL285:
	lwz 31,20(1)
.LVL286:
	addi 1,1,24
	.cfi_remember_state
.LCFI43:
	.cfi_def_cfa_offset 0
	.cfi_restore 31
	.cfi_restore 30
	.cfi_restore 29
	.cfi_restore 28
	blr
.LVL287:
.L264:
.LCFI44:
	.cfi_restore_state
.LBB2817:
.LBB2813:
.LBB2719:
	.loc 5 27 0
	li 3,632
.LEHB24:
	bl _Znwj
.LEHE24:
	mr 30,3
.LEHB25:
	bl _ZN11ApplicationC1Ev
.LEHE25:
	stw 30,_ZN11Application8instanceE@l(31)
	b .L224
.L257:
	mr 31,3
	mr 3,30
	bl _ZdlPv
	mr 30,31
.L254:
.LBE2719:
.LBE2813:
	.loc 4 57 0
	addi 3,28,176
	bl _ZN7sigslot9has_slotsINS_15single_threadedEED2Ev
.L251:
	mr 3,28
	bl _ZN8GuiFrameD2Ev
	mr 3,30
.LEHB26:
	bl _Unwind_Resume
.LEHE26:
.L256:
	mr 30,3
	b .L254
.LVL288:
.L259:
.LBB2814:
.LBB2807:
.LBB2803:
.LBB2790:
.LBB2777:
.LBB2773:
.LBB2774:
.LBB2775:
	.loc 1 343 0
	lwz 9,176(28)
	mr 30,3
.LVL289:
	mr 3,29
	addi 31,28,180
.LVL290:
	lwz 0,12(9)
	mtctr 0
	bctrl
.LVL291:
.L238:
.LBE2775:
.LBE2774:
.LBE2773:
.LBE2777:
.LBE2790:
.LBB2791:
.LBB2792:
.LBB2793:
.LBB2794:
.LBB2795:
.LBB2796:
	.loc 12 639 0
	lwz 4,188(28)
	mr 3,31
	bl _ZNSt8_Rb_treeIPN7sigslot12_signal_baseINS0_15single_threadedEEES4_St9_IdentityIS4_ESt4lessIS4_ESaIS4_EE8_M_eraseEPSt13_Rb_tree_nodeIS4_E
.LBE2796:
.LBE2795:
.LBE2794:
.LBE2793:
.LBE2792:
.LBE2791:
.LBB2797:
.LBB2798:
.LBB2799:
	.loc 1 105 0
	lis 9,_ZTVN7sigslot15single_threadedE+8@ha
	la 0,_ZTVN7sigslot15single_threadedE+8@l(9)
	stw 0,176(28)
	b .L251
.LVL292:
.L258:
	mr 30,3
	b .L238
.LBE2799:
.LBE2798:
.LBE2797:
.LBE2803:
.LBE2807:
.LBE2814:
.LBE2817:
	.cfi_endproc
.LFE1578:
	.section	.gcc_except_table
.LLSDA1578:
	.byte	0xff
	.byte	0xff
	.byte	0x1
	.uleb128 .LLSDACSE1578-.LLSDACSB1578
.LLSDACSB1578:
	.uleb128 .LEHB19-.LFB1578
	.uleb128 .LEHE19-.LEHB19
	.uleb128 .L256-.LFB1578
	.uleb128 0
	.uleb128 .LEHB20-.LFB1578
	.uleb128 .LEHE20-.LEHB20
	.uleb128 .L258-.LFB1578
	.uleb128 0
	.uleb128 .LEHB21-.LFB1578
	.uleb128 .LEHE21-.LEHB21
	.uleb128 .L259-.LFB1578
	.uleb128 0
	.uleb128 .LEHB22-.LFB1578
	.uleb128 .LEHE22-.LEHB22
	.uleb128 .L258-.LFB1578
	.uleb128 0
	.uleb128 .LEHB23-.LFB1578
	.uleb128 .LEHE23-.LEHB23
	.uleb128 0
	.uleb128 0
	.uleb128 .LEHB24-.LFB1578
	.uleb128 .LEHE24-.LEHB24
	.uleb128 .L256-.LFB1578
	.uleb128 0
	.uleb128 .LEHB25-.LFB1578
	.uleb128 .LEHE25-.LEHB25
	.uleb128 .L257-.LFB1578
	.uleb128 0
	.uleb128 .LEHB26-.LFB1578
	.uleb128 .LEHE26-.LEHB26
	.uleb128 0
	.uleb128 0
.LLSDACSE1578:
	.section	".text"
	.size	_ZN11ScreenSaverD2Ev, .-_ZN11ScreenSaverD2Ev
	.align 2
	.globl _ZThn176_N11ScreenSaverD0Ev
	.type	_ZThn176_N11ScreenSaverD0Ev, @function
_ZThn176_N11ScreenSaverD0Ev:
.LFB2036:
	.cfi_startproc
	addi 3,3,-176
	b .LTHUNK1
	.cfi_endproc
.LFE2036:
	.size	_ZThn176_N11ScreenSaverD0Ev, .-_ZThn176_N11ScreenSaverD0Ev
	.align 2
	.globl _ZN11ScreenSaverD0Ev
	.type	_ZN11ScreenSaverD0Ev, @function
_ZN11ScreenSaverD0Ev:
.LFB1580:
	.loc 4 57 0
	.cfi_startproc
.LVL293:
	stwu 1,-16(1)
.LCFI45:
	.cfi_def_cfa_offset 16
	mflr 0
	stw 31,12(1)
	mr 31,3
	.cfi_offset 31, -4
	.cfi_register 65, 0
	stw 0,20(1)
	.loc 4 67 0
	.cfi_offset 65, 4
	bl _ZN11ScreenSaverD1Ev
.LVL294:
	mr 3,31
	bl _ZdlPv
	lwz 0,20(1)
	lwz 31,12(1)
.LVL295:
	mtlr 0
	addi 1,1,16
.LCFI46:
	.cfi_def_cfa_offset 0
	.cfi_restore 31
	blr
	.cfi_endproc
.LFE1580:
	.size	_ZN11ScreenSaverD0Ev, .-_ZN11ScreenSaverD0Ev
	.section	.text._ZN7sigslot9has_slotsINS_15single_threadedEED0Ev,"axG",@progbits,_ZN7sigslot9has_slotsINS_15single_threadedEED5Ev,comdat
	.align 2
	.weak	_ZN7sigslot9has_slotsINS_15single_threadedEED0Ev
	.type	_ZN7sigslot9has_slotsINS_15single_threadedEED0Ev, @function
_ZN7sigslot9has_slotsINS_15single_threadedEED0Ev:
.LFB1618:
	.loc 1 513 0
	.cfi_startproc
	.cfi_personality 0,__gxx_personality_v0
	.cfi_lsda 0,.LLSDA1618
.LVL296:
	mflr 0
	stwu 1,-32(1)
.LCFI47:
	.cfi_def_cfa_offset 32
	.cfi_register 65, 0
.LBB2911:
.LBB2912:
.LBB2913:
	.loc 1 516 0
	lis 9,_ZTVN7sigslot9has_slotsINS_15single_threadedEEE+8@ha
.LBE2913:
.LBE2912:
.LBE2911:
	.loc 1 513 0
	stw 28,16(1)
	addi 28,3,4
	.cfi_offset 28, -16
	stw 0,36(1)
.LBB2997:
.LBB2993:
.LBB2989:
	.loc 1 516 0
	la 0,_ZTVN7sigslot9has_slotsINS_15single_threadedEEE+8@l(9)
	.cfi_offset 65, 4
.LBE2989:
.LBE2993:
.LBE2997:
	.loc 1 513 0
	stw 29,20(1)
	mr 29,3
	.cfi_offset 29, -12
.LVL297:
	stw 26,8(1)
	stw 27,12(1)
	stw 30,24(1)
	stw 31,28(1)
.LBB2998:
.LBB2994:
.LBB2990:
	.loc 1 516 0
	stw 0,0(3)
.LVL298:
.LEHB27:
.LBB2914:
.LBB2915:
.LBB2916:
.LBB2917:
	.loc 1 338 0
	.cfi_offset 31, -4
	.cfi_offset 30, -8
	.cfi_offset 27, -20
	.cfi_offset 26, -24
	bl _ZN7sigslot15single_threaded4lockEv
.LEHE27:
.LVL299:
.LBE2917:
.LBE2916:
.LBB2918:
	.loc 4 93 0
	lwz 31,16(29)
.LVL300:
.LBE2918:
.LBB2919:
.LBB2920:
.LBB2921:
	.loc 12 671 0
	addi 30,28,4
.LVL301:
.LBE2921:
.LBE2920:
.LBE2919:
	.loc 1 524 0
	cmpw 7,31,30
	beq- 7,.L268
.LVL302:
.L296:
	.loc 1 526 0
	lwz 3,16(31)
	mr 4,29
	lwz 9,0(3)
	lwz 0,16(9)
	mtctr 0
.LEHB28:
	bctrl
.LEHE28:
.LVL303:
.LBB2922:
.LBB2923:
	.loc 12 269 0
	mr 3,31
	bl _ZSt18_Rb_tree_incrementPKSt18_Rb_tree_node_base
.LBE2923:
.LBE2922:
	.loc 1 524 0
	cmpw 7,30,3
.LBB2925:
.LBB2924:
	.loc 12 269 0
	mr 31,3
.LVL304:
.LBE2924:
.LBE2925:
	.loc 1 524 0
	bne+ 7,.L296
	lwz 31,16(29)
.LVL305:
.L268:
.LBB2926:
.LBB2927:
.LBB2928:
.LBB2929:
.LBB2930:
.LBB2931:
.LBB2932:
	.loc 12 665 0
	addi 26,28,4
.LBE2932:
.LBE2931:
	.loc 12 1500 0
	cmpw 7,30,26
	beq- 7,.L270
.LVL306:
	.loc 12 1503 0
	cmpw 7,30,31
	bne+ 7,.L298
	b .L271
.LVL307:
.L293:
	.loc 12 277 0
	mr 31,27
.LVL308:
.L298:
.LBB2933:
.LBB2934:
	mr 3,31
	bl _ZSt18_Rb_tree_incrementPKSt18_Rb_tree_node_base
.LBE2934:
.LBE2933:
.LBB2936:
.LBB2937:
.LBB2938:
	.loc 12 1489 0
	mr 4,26
.LBE2938:
.LBE2937:
.LBE2936:
.LBB2947:
.LBB2935:
	.loc 12 277 0
	mr 27,3
.LVL309:
.LBE2935:
.LBE2947:
.LBB2948:
.LBB2945:
.LBB2943:
	.loc 12 1489 0
	mr 3,31
.LVL310:
	bl _ZSt28_Rb_tree_rebalance_for_erasePSt18_Rb_tree_node_baseRS_
.LBB2939:
.LBB2940:
.LBB2941:
.LBB2942:
	.loc 8 98 0
	bl _ZdlPv
.LBE2942:
.LBE2941:
.LBE2940:
.LBE2939:
.LBE2943:
.LBE2945:
.LBE2948:
	.loc 12 1503 0
	cmpw 7,30,27
.LBB2949:
.LBB2946:
.LBB2944:
	.loc 12 1491 0
	lwz 9,20(28)
	addi 0,9,-1
	stw 0,20(28)
.LBE2944:
.LBE2946:
.LBE2949:
	.loc 12 1503 0
	bne+ 7,.L293
.LVL311:
.L271:
.LBE2930:
.LBE2929:
.LBE2928:
.LBE2927:
.LBE2926:
.LBB2958:
.LBB2959:
.LBB2960:
	.loc 1 343 0
	lwz 9,0(29)
	mr 3,29
	lwz 0,12(9)
	mtctr 0
.LEHB29:
	bctrl
.LEHE29:
.LVL312:
.LBE2960:
.LBE2959:
.LBE2958:
.LBE2915:
.LBE2914:
.LBB2967:
.LBB2968:
.LBB2969:
.LBB2970:
.LBB2971:
	.loc 12 639 0
	lwz 4,12(29)
	mr 3,28
	bl _ZNSt8_Rb_treeIPN7sigslot12_signal_baseINS0_15single_threadedEEES4_St9_IdentityIS4_ESt4lessIS4_ESaIS4_EE8_M_eraseEPSt13_Rb_tree_nodeIS4_E
.LVL313:
.LBE2971:
.LBE2970:
.LBE2969:
.LBE2968:
.LBE2967:
.LBB2972:
.LBB2973:
.LBB2974:
	.loc 1 105 0
	lis 9,_ZTVN7sigslot15single_threadedE+8@ha
	la 0,_ZTVN7sigslot15single_threadedE+8@l(9)
.LBE2974:
.LBE2973:
.LBE2972:
.LBE2990:
.LBE2994:
.LBE2998:
	.loc 1 516 0
	mr 3,29
.LBB2999:
.LBB2995:
.LBB2991:
.LBB2977:
.LBB2976:
.LBB2975:
	.loc 1 105 0
	stw 0,0(29)
.LBE2975:
.LBE2976:
.LBE2977:
.LBE2991:
.LBE2995:
.LBE2999:
	.loc 1 516 0
	bl _ZdlPv
	lwz 0,36(1)
	lwz 26,8(1)
	mtlr 0
	lwz 27,12(1)
	lwz 28,16(1)
.LVL314:
	lwz 29,20(1)
.LVL315:
	lwz 30,24(1)
.LVL316:
	lwz 31,28(1)
	addi 1,1,32
	.cfi_remember_state
.LCFI48:
	.cfi_def_cfa_offset 0
	.cfi_restore 31
	.cfi_restore 30
	.cfi_restore 29
	.cfi_restore 28
	.cfi_restore 27
	.cfi_restore 26
	blr
.LVL317:
.L270:
.LCFI49:
	.cfi_restore_state
.LBB3000:
.LBB2996:
.LBB2992:
.LBB2978:
.LBB2965:
.LBB2961:
.LBB2957:
.LBB2956:
.LBB2955:
.LBB2954:
.LBB2950:
.LBB2951:
.LBB2952:
.LBB2953:
	.loc 12 809 0
	lwz 4,12(29)
	mr 3,28
	bl _ZNSt8_Rb_treeIPN7sigslot12_signal_baseINS0_15single_threadedEEES4_St9_IdentityIS4_ESt4lessIS4_ESaIS4_EE8_M_eraseEPSt13_Rb_tree_nodeIS4_E
.LVL318:
	.loc 12 811 0
	li 0,0
	.loc 12 810 0
	stw 30,16(29)
.LVL319:
	.loc 12 811 0
	stw 0,12(29)
.LVL320:
	.loc 12 812 0
	stw 30,20(29)
	.loc 12 813 0
	stw 0,24(29)
	b .L271
.LVL321:
.L294:
	mr 31,3
.L278:
.LVL322:
.LBE2953:
.LBE2952:
.LBE2951:
.LBE2950:
.LBE2954:
.LBE2955:
.LBE2956:
.LBE2957:
.LBE2961:
.LBE2965:
.LBE2978:
.LBB2979:
.LBB2980:
.LBB2981:
.LBB2982:
.LBB2983:
.LBB2984:
	.loc 12 639 0
	lwz 4,12(29)
	mr 3,28
	bl _ZNSt8_Rb_treeIPN7sigslot12_signal_baseINS0_15single_threadedEEES4_St9_IdentityIS4_ESt4lessIS4_ESaIS4_EE8_M_eraseEPSt13_Rb_tree_nodeIS4_E
.LVL323:
.LBE2984:
.LBE2983:
.LBE2982:
.LBE2981:
.LBE2980:
.LBE2979:
.LBB2985:
.LBB2986:
.LBB2987:
	.loc 1 105 0
	lis 9,_ZTVN7sigslot15single_threadedE+8@ha
	la 0,_ZTVN7sigslot15single_threadedE+8@l(9)
	mr 3,31
	stw 0,0(29)
.LEHB30:
	bl _Unwind_Resume
.LEHE30:
.LVL324:
.L295:
.LBE2987:
.LBE2986:
.LBE2985:
.LBB2988:
.LBB2966:
.LBB2962:
.LBB2963:
.LBB2964:
	.loc 1 343 0
	lwz 9,0(29)
	mr 31,3
.LVL325:
	mr 3,29
	lwz 0,12(9)
	mtctr 0
	bctrl
	b .L278
.LBE2964:
.LBE2963:
.LBE2962:
.LBE2966:
.LBE2988:
.LBE2992:
.LBE2996:
.LBE3000:
	.cfi_endproc
.LFE1618:
	.section	.gcc_except_table
.LLSDA1618:
	.byte	0xff
	.byte	0xff
	.byte	0x1
	.uleb128 .LLSDACSE1618-.LLSDACSB1618
.LLSDACSB1618:
	.uleb128 .LEHB27-.LFB1618
	.uleb128 .LEHE27-.LEHB27
	.uleb128 .L294-.LFB1618
	.uleb128 0
	.uleb128 .LEHB28-.LFB1618
	.uleb128 .LEHE28-.LEHB28
	.uleb128 .L295-.LFB1618
	.uleb128 0
	.uleb128 .LEHB29-.LFB1618
	.uleb128 .LEHE29-.LEHB29
	.uleb128 .L294-.LFB1618
	.uleb128 0
	.uleb128 .LEHB30-.LFB1618
	.uleb128 .LEHE30-.LEHB30
	.uleb128 0
	.uleb128 0
.LLSDACSE1618:
	.section	.text._ZN7sigslot9has_slotsINS_15single_threadedEED0Ev,"axG",@progbits,_ZN7sigslot9has_slotsINS_15single_threadedEED5Ev,comdat
	.size	_ZN7sigslot9has_slotsINS_15single_threadedEED0Ev, .-_ZN7sigslot9has_slotsINS_15single_threadedEED0Ev
	.weak	_ZTS11ScreenSaver
	.section	.rodata._ZTS11ScreenSaver,"aG",@progbits,_ZTS11ScreenSaver,comdat
	.align 2
	.type	_ZTS11ScreenSaver, @object
	.size	_ZTS11ScreenSaver, 14
_ZTS11ScreenSaver:
	.string	"11ScreenSaver"
	.weak	_ZTI11ScreenSaver
	.section	.rodata._ZTI11ScreenSaver,"aG",@progbits,_ZTI11ScreenSaver,comdat
	.align 2
	.type	_ZTI11ScreenSaver, @object
	.size	_ZTI11ScreenSaver, 32
_ZTI11ScreenSaver:
	.long	_ZTVN10__cxxabiv121__vmi_class_type_infoE+8
	.long	_ZTS11ScreenSaver
	.long	0
	.long	2
	.long	_ZTI8GuiFrame
	.long	2
	.long	_ZTIN7sigslot9has_slotsINS_15single_threadedEEE
	.long	45058
	.weak	_ZTV11ScreenSaver
	.section	.rodata._ZTV11ScreenSaver,"aG",@progbits,_ZTV11ScreenSaver,comdat
	.align 3
	.type	_ZTV11ScreenSaver, @object
	.size	_ZTV11ScreenSaver, 252
_ZTV11ScreenSaver:
	.long	0
	.long	_ZTI11ScreenSaver
	.long	_ZN11ScreenSaverD1Ev
	.long	_ZN11ScreenSaverD0Ev
	.long	_ZN10GuiElement9SetParentEPS_
	.long	_ZN10GuiElement9GetParentEv
	.long	_ZN10GuiElement7GetLeftEv
	.long	_ZN10GuiElement6GetTopEv
	.long	_ZN10GuiElement12GetZPositionEv
	.long	_ZN10GuiElement10GetLeftPosEv
	.long	_ZN10GuiElement9GetTopPosEv
	.long	_ZN10GuiElement8GetWidthEv
	.long	_ZN10GuiElement9GetHeightEv
	.long	_ZN10GuiElement7SetSizeEii
	.long	_ZN8GuiFrame10SetVisibleEb
	.long	_ZN10GuiElement9IsVisibleEv
	.long	_ZN10GuiElement12IsSelectableEv
	.long	_ZN10GuiElement11IsClickableEv
	.long	_ZN10GuiElement10IsHoldableEv
	.long	_ZN10GuiElement13SetSelectableEb
	.long	_ZN10GuiElement12SetClickableEb
	.long	_ZN10GuiElement11SetHoldableEb
	.long	_ZN10GuiElement8SetStateEii
	.long	_ZN10GuiElement8GetStateEv
	.long	_ZN10GuiElement12GetStateChanEv
	.long	_ZN8GuiFrame10ResetStateEv
	.long	_ZN10GuiElement8SetAlphaEi
	.long	_ZN10GuiElement8GetAlphaEv
	.long	_ZN10GuiElement8SetScaleEf
	.long	_ZN10GuiElement9SetScaleXEf
	.long	_ZN10GuiElement9SetScaleYEf
	.long	_ZN10GuiElement8GetScaleEv
	.long	_ZN10GuiElement9GetScaleXEv
	.long	_ZN10GuiElement9GetScaleYEv
	.long	_ZN10GuiElement6RumbleEv
	.long	_ZN10GuiElement9SetRumbleEb
	.long	_ZN10GuiElement9SetEffectEiii
	.long	_ZN10GuiElement15SetEffectOnOverEiii
	.long	_ZN10GuiElement13SetEffectGrowEv
	.long	_ZN10GuiElement12ResetEffectsEv
	.long	_ZNK10GuiElement9GetEffectEv
	.long	_ZNK10GuiElement10IsAnimatedEv
	.long	_ZN8GuiFrame9SetBoundsE4RectIiE
	.long	_ZN10GuiElement8IsInsideEii
	.long	_ZN10GuiElement11SetPositionEii
	.long	_ZN10GuiElement11SetPositionEiii
	.long	_ZN8GuiFrame11GetSelectedEv
	.long	_ZN10GuiElement12SetAlignmentEi
	.long	_ZNK10GuiElement12GetAlignmentEv
	.long	_ZN8GuiFrame6UpdateEP10GuiTrigger
	.long	_ZN11ScreenSaver4DrawEv
	.long	_ZN10GuiElement13UpdateEffectsEv
	.long	_ZN8GuiFrame5CloseEv
	.long	_ZN8GuiFrame4showEv
	.long	_ZN8GuiFrame4hideEv
	.long	_ZN8GuiFrame4execEv
	.long	_ZN8GuiFrame12updateEventsEv
	.long	-176
	.long	_ZTI11ScreenSaver
	.long	_ZThn176_N11ScreenSaverD1Ev
	.long	_ZThn176_N11ScreenSaverD0Ev
	.long	_ZN7sigslot15single_threaded4lockEv
	.long	_ZN7sigslot15single_threaded6unlockEv
	.weak	_ZTVN7sigslot15single_threadedE
	.section	.rodata._ZTVN7sigslot15single_threadedE,"aG",@progbits,_ZTVN7sigslot15single_threadedE,comdat
	.align 3
	.type	_ZTVN7sigslot15single_threadedE, @object
	.size	_ZTVN7sigslot15single_threadedE, 24
_ZTVN7sigslot15single_threadedE:
	.long	0
	.long	_ZTIN7sigslot15single_threadedE
	.long	_ZN7sigslot15single_threadedD1Ev
	.long	_ZN7sigslot15single_threadedD0Ev
	.long	_ZN7sigslot15single_threaded4lockEv
	.long	_ZN7sigslot15single_threaded6unlockEv
	.weak	_ZTVN7sigslot9has_slotsINS_15single_threadedEEE
	.section	.rodata._ZTVN7sigslot9has_slotsINS_15single_threadedEEE,"aG",@progbits,_ZTVN7sigslot9has_slotsINS_15single_threadedEEE,comdat
	.align 3
	.type	_ZTVN7sigslot9has_slotsINS_15single_threadedEEE, @object
	.size	_ZTVN7sigslot9has_slotsINS_15single_threadedEEE, 24
_ZTVN7sigslot9has_slotsINS_15single_threadedEEE:
	.long	0
	.long	_ZTIN7sigslot9has_slotsINS_15single_threadedEEE
	.long	_ZN7sigslot9has_slotsINS_15single_threadedEED1Ev
	.long	_ZN7sigslot9has_slotsINS_15single_threadedEED0Ev
	.long	_ZN7sigslot15single_threaded4lockEv
	.long	_ZN7sigslot15single_threaded6unlockEv
	.weak	_ZTIN7sigslot9has_slotsINS_15single_threadedEEE
	.section	.rodata._ZTIN7sigslot9has_slotsINS_15single_threadedEEE,"aG",@progbits,_ZTIN7sigslot9has_slotsINS_15single_threadedEEE,comdat
	.align 2
	.type	_ZTIN7sigslot9has_slotsINS_15single_threadedEEE, @object
	.size	_ZTIN7sigslot9has_slotsINS_15single_threadedEEE, 12
_ZTIN7sigslot9has_slotsINS_15single_threadedEEE:
	.long	_ZTVN10__cxxabiv120__si_class_type_infoE+8
	.long	_ZTSN7sigslot9has_slotsINS_15single_threadedEEE
	.long	_ZTIN7sigslot15single_threadedE
	.weak	_ZTIN7sigslot15single_threadedE
	.section	.sdata._ZTIN7sigslot15single_threadedE,"awG",@progbits,_ZTIN7sigslot15single_threadedE,comdat
	.align 2
	.type	_ZTIN7sigslot15single_threadedE, @object
	.size	_ZTIN7sigslot15single_threadedE, 8
_ZTIN7sigslot15single_threadedE:
	.long	_ZTVN10__cxxabiv117__class_type_infoE+8
	.long	_ZTSN7sigslot15single_threadedE
	.weak	_ZTSN7sigslot9has_slotsINS_15single_threadedEEE
	.section	.rodata._ZTSN7sigslot9has_slotsINS_15single_threadedEEE,"aG",@progbits,_ZTSN7sigslot9has_slotsINS_15single_threadedEEE,comdat
	.align 2
	.type	_ZTSN7sigslot9has_slotsINS_15single_threadedEEE, @object
	.size	_ZTSN7sigslot9has_slotsINS_15single_threadedEEE, 44
_ZTSN7sigslot9has_slotsINS_15single_threadedEEE:
	.string	"N7sigslot9has_slotsINS_15single_threadedEEE"
	.weak	_ZTSN7sigslot15single_threadedE
	.section	.rodata._ZTSN7sigslot15single_threadedE,"aG",@progbits,_ZTSN7sigslot15single_threadedE,comdat
	.align 2
	.type	_ZTSN7sigslot15single_threadedE, @object
	.size	_ZTSN7sigslot15single_threadedE, 28
_ZTSN7sigslot15single_threadedE:
	.string	"N7sigslot15single_threadedE"
	.weak	_ZN7sigslot15single_threadedD1Ev
	.set	_ZN7sigslot15single_threadedD1Ev,_ZN7sigslot15single_threadedD2Ev
	.weak	_ZN7sigslot9has_slotsINS_15single_threadedEED1Ev
	.set	_ZN7sigslot9has_slotsINS_15single_threadedEED1Ev,_ZN7sigslot9has_slotsINS_15single_threadedEED2Ev
	.globl _ZN11ScreenSaverC1Ev
	.set	_ZN11ScreenSaverC1Ev,_ZN11ScreenSaverC2Ev
	.globl _ZN11ScreenSaverD1Ev
	.set	_ZN11ScreenSaverD1Ev,_ZN11ScreenSaverD2Ev
	.set	.LTHUNK0,_ZN11ScreenSaverD1Ev
	.set	.LTHUNK1,_ZN11ScreenSaverD0Ev
	.section	.rodata.cst4,"aM",@progbits,4
	.align 2
.LC1:
	.4byte	1501560836
.LC2:
	.4byte	1132396544
.LC3:
	.4byte	1056964608
.LC4:
	.4byte	1281867308
.LC5:
	.4byte	1082130432
	.section	.rodata.str1.4,"aMS",@progbits,1
	.align 2
.LC6:
	.string	"logo_SGMGX.png"
	.zero	1
.LC7:
	.string	"r=0 g=0 b=0 a=255 - screensaver background color"
	.section	".text"
.Letext0:
	.file 14 "d:\\devkitpro\\devkitppc\\bin\\../lib/gcc/powerpc-eabi/4.6.3/../../../../powerpc-eabi/include/machine/_types.h"
	.file 15 "d:\\devkitpro\\devkitppc\\bin\\../lib/gcc/powerpc-eabi/4.6.3/../../../../powerpc-eabi/include/sys/lock.h"
	.file 16 "d:\\devkitpro\\devkitppc\\bin\\../lib/gcc/powerpc-eabi/4.6.3/include/stddef.h"
	.file 17 "d:\\devkitpro\\devkitppc\\bin\\../lib/gcc/powerpc-eabi/4.6.3/../../../../powerpc-eabi/include/sys/_types.h"
	.file 18 "d:\\devkitpro\\devkitppc\\bin\\../lib/gcc/powerpc-eabi/4.6.3/../../../../powerpc-eabi/include/stdint.h"
	.file 19 "d:/devkitPro/libogc/include/gctypes.h"
	.file 20 "d:/devkitPro/libogc/include/ogc/gx.h"
	.file 21 "d:\\devkitpro\\devkitppc\\bin\\../lib/gcc/powerpc-eabi/4.6.3/../../../../powerpc-eabi/include/sys/reent.h"
	.file 22 "d:\\devkitpro\\devkitppc\\bin\\../lib/gcc/powerpc-eabi/4.6.3/../../../../powerpc-eabi/include/time.h"
	.file 23 "<built-in>"
	.file 24 "d:\\devkitpro\\devkitppc\\bin\\../lib/gcc/powerpc-eabi/4.6.3/../../../../powerpc-eabi/include/wchar.h"
	.file 25 "d:\\devkitpro\\devkitppc\\bin\\../lib/gcc/powerpc-eabi/4.6.3/../../../../powerpc-eabi/include/c++/4.6.3/cwchar"
	.file 26 "d:\\devkitpro\\devkitppc\\bin\\../lib/gcc/powerpc-eabi/4.6.3/../../../../powerpc-eabi/include/c++/4.6.3/powerpc-eabi/bits/c++config.h"
	.file 27 "d:\\devkitpro\\devkitppc\\bin\\../lib/gcc/powerpc-eabi/4.6.3/../../../../powerpc-eabi/include/c++/4.6.3/clocale"
	.file 28 "d:\\devkitpro\\devkitppc\\bin\\../lib/gcc/powerpc-eabi/4.6.3/../../../../powerpc-eabi/include/c++/4.6.3/bits/basic_string.h"
	.file 29 "d:\\devkitpro\\devkitppc\\bin\\../lib/gcc/powerpc-eabi/4.6.3/../../../../powerpc-eabi/include/c++/4.6.3/bits/stl_list.h"
	.file 30 "d:\\devkitpro\\devkitppc\\bin\\../lib/gcc/powerpc-eabi/4.6.3/../../../../powerpc-eabi/include/c++/4.6.3/bits/stl_construct.h"
	.file 31 "d:\\devkitpro\\devkitppc\\bin\\../lib/gcc/powerpc-eabi/4.6.3/../../../../powerpc-eabi/include/c++/4.6.3/bits/move.h"
	.file 32 "d:\\devkitpro\\devkitppc\\bin\\../lib/gcc/powerpc-eabi/4.6.3/../../../../powerpc-eabi/include/c++/4.6.3/bits/stl_uninitialized.h"
	.file 33 "d:\\devkitpro\\devkitppc\\bin\\../lib/gcc/powerpc-eabi/4.6.3/../../../../powerpc-eabi/include/c++/4.6.3/bits/cpp_type_traits.h"
	.file 34 "d:\\devkitpro\\devkitppc\\bin\\../lib/gcc/powerpc-eabi/4.6.3/../../../../powerpc-eabi/include/c++/4.6.3/debug/debug.h"
	.file 35 "d:\\devkitpro\\devkitppc\\bin\\../lib/gcc/powerpc-eabi/4.6.3/../../../../powerpc-eabi/include/c++/4.6.3/bits/char_traits.h"
	.file 36 "d:\\devkitpro\\devkitppc\\bin\\../lib/gcc/powerpc-eabi/4.6.3/../../../../powerpc-eabi/include/c++/4.6.3/bits/allocator.h"
	.file 37 "d:\\devkitpro\\devkitppc\\bin\\../lib/gcc/powerpc-eabi/4.6.3/../../../../powerpc-eabi/include/locale.h"
	.file 38 "d:\\devkitpro\\devkitppc\\bin\\../lib/gcc/powerpc-eabi/4.6.3/../../../../powerpc-eabi/include/c++/4.6.3/powerpc-eabi/bits/atomic_word.h"
	.file 39 "d:\\devkitpro\\devkitppc\\bin\\../lib/gcc/powerpc-eabi/4.6.3/../../../../powerpc-eabi/include/c++/4.6.3/ext/numeric_traits.h"
	.file 40 "d:\\devkitpro\\devkitppc\\bin\\../lib/gcc/powerpc-eabi/4.6.3/../../../../powerpc-eabi/include/c++/4.6.3/bits/basic_string.tcc"
	.file 41 "d:\\devkitpro\\devkitppc\\bin\\../lib/gcc/powerpc-eabi/4.6.3/../../../../powerpc-eabi/include/c++/4.6.3/bits/stl_iterator_base_types.h"
	.file 42 "d:/Projects/SaveGameManager/savegame-manager-gx/trunk/source/Prompts/../GUI/../Tools/Rect.h"
	.file 43 "d:\\devkitpro\\devkitppc\\bin\\../lib/gcc/powerpc-eabi/4.6.3/../../../../powerpc-eabi/include/c++/4.6.3/bits/list.tcc"
	.file 44 "d:\\devkitpro\\devkitppc\\bin\\../lib/gcc/powerpc-eabi/4.6.3/../../../../powerpc-eabi/include/c++/4.6.3/bits/stl_function.h"
	.file 45 "d:\\devkitpro\\devkitppc\\bin\\../lib/gcc/powerpc-eabi/4.6.3/../../../../powerpc-eabi/include/c++/4.6.3/bits/stl_pair.h"
	.file 46 "d:/Projects/SaveGameManager/savegame-manager-gx/trunk/source/Prompts/ScreenSaver.hpp"
	.file 47 "d:\\devkitpro\\devkitppc\\bin\\../lib/gcc/powerpc-eabi/4.6.3/../../../../powerpc-eabi/include/c++/4.6.3/new"
	.file 48 "d:/Projects/SaveGameManager/savegame-manager-gx/trunk/source/Prompts/../GUI/../stdafx.h"