   1              		.file	"Scrollbar.cpp"
   2              		.section	".text"
   3              	.Ltext0:
   4              		.section	.text._ZN7sigslot15single_threadedD2Ev,"axG",@progbits,_ZN7sigslot15single_threadedD5Ev,c
   5              		.align 2
   6              		.weak	_ZN7sigslot15single_threadedD2Ev
   7              		.type	_ZN7sigslot15single_threadedD2Ev, @function
   8              	_ZN7sigslot15single_threadedD2Ev:
   9              	.LFB1243:
  10              		.file 1 "d:/Projects/SaveGameManager/savegame-manager-gx/trunk/source/GUI/../sigslot.h"
  11              		.loc 1 104 0
  12              		.cfi_startproc
  13              	.LVL0:
  14              	.LBB2383:
  15              		.loc 1 105 0
  16 0000 3D200000 		lis 9,_ZTVN7sigslot15single_threadedE+8@ha
  17              	.LBE2383:
  18              		.loc 1 107 0
  19              	.LBB2384:
  20              		.loc 1 105 0
  21 0004 38090008 		la 0,_ZTVN7sigslot15single_threadedE+8@l(9)
  22 0008 90030000 		stw 0,0(3)
  23              	.LBE2384:
  24              		.loc 1 107 0
  25 000c 4E800020 		blr
  26              		.cfi_endproc
  27              	.LFE1243:
  28              		.size	_ZN7sigslot15single_threadedD2Ev, .-_ZN7sigslot15single_threadedD2Ev
  29              		.section	.text._ZN7sigslot15single_threaded4lockEv,"axG",@progbits,_ZN7sigslot15single_threaded4lo
  30              		.align 2
  31              		.weak	_ZN7sigslot15single_threaded4lockEv
  32              		.type	_ZN7sigslot15single_threaded4lockEv, @function
  33              	_ZN7sigslot15single_threaded4lockEv:
  34              	.LFB1246:
  35              		.loc 1 109 0
  36              		.cfi_startproc
  37              	.LVL1:
  38              		.loc 1 112 0
  39 0000 4E800020 		blr
  40              		.cfi_endproc
  41              	.LFE1246:
  42              		.size	_ZN7sigslot15single_threaded4lockEv, .-_ZN7sigslot15single_threaded4lockEv
  43              		.section	.text._ZN7sigslot15single_threaded6unlockEv,"axG",@progbits,_ZN7sigslot15single_threaded6
  44              		.align 2
  45              		.weak	_ZN7sigslot15single_threaded6unlockEv
  46              		.type	_ZN7sigslot15single_threaded6unlockEv, @function
  47              	_ZN7sigslot15single_threaded6unlockEv:
  48              	.LFB1247:
  49              		.loc 1 114 0
  50              		.cfi_startproc
  51              	.LVL2:
  52              		.loc 1 117 0
  53 0000 4E800020 		blr
  54              		.cfi_endproc
  55              	.LFE1247:
  56              		.size	_ZN7sigslot15single_threaded6unlockEv, .-_ZN7sigslot15single_threaded6unlockEv
  57              		.section	.text._ZN10GuiElement9SetParentEPS_,"axG",@progbits,_ZN10GuiElement9SetParentEPS_,comdat
  58              		.align 2
  59              		.weak	_ZN10GuiElement9SetParentEPS_
  60              		.type	_ZN10GuiElement9SetParentEPS_, @function
  61              	_ZN10GuiElement9SetParentEPS_:
  62              	.LFB1479:
  63              		.file 2 "d:/Projects/SaveGameManager/savegame-manager-gx/trunk/source/GUI/gui_element.h"
  64              		.loc 2 92 0
  65              		.cfi_startproc
  66              	.LVL3:
  67              		.loc 2 92 0
  68 0000 90830060 		stw 4,96(3)
  69 0004 4E800020 		blr
  70              		.cfi_endproc
  71              	.LFE1479:
  72              		.size	_ZN10GuiElement9SetParentEPS_, .-_ZN10GuiElement9SetParentEPS_
  73              		.section	.text._ZN10GuiElement9GetParentEv,"axG",@progbits,_ZN10GuiElement9GetParentEv,comdat
  74              		.align 2
  75              		.weak	_ZN10GuiElement9GetParentEv
  76              		.type	_ZN10GuiElement9GetParentEv, @function
  77              	_ZN10GuiElement9GetParentEv:
  78              	.LFB1480:
  79              		.loc 2 95 0
  80              		.cfi_startproc
  81              	.LVL4:
  82              		.loc 2 95 0
  83 0000 80630060 		lwz 3,96(3)
  84              	.LVL5:
  85 0004 4E800020 		blr
  86              		.cfi_endproc
  87              	.LFE1480:
  88              		.size	_ZN10GuiElement9GetParentEv, .-_ZN10GuiElement9GetParentEv
  89              		.section	.text._ZN10GuiElement12GetZPositionEv,"axG",@progbits,_ZN10GuiElement12GetZPositionEv,com
  90              		.align 2
  91              		.weak	_ZN10GuiElement12GetZPositionEv
  92              		.type	_ZN10GuiElement12GetZPositionEv, @function
  93              	_ZN10GuiElement12GetZPositionEv:
  94              	.LFB1481:
  95              		.loc 2 106 0
  96              		.cfi_startproc
  97              	.LVL6:
  98 0000 7C0802A6 		mflr 0
  99 0004 9421FFF0 		stwu 1,-16(1)
 100              	.LCFI0:
 101              		.cfi_def_cfa_offset 16
 102              		.cfi_register 65, 0
 103 0008 93E1000C 		stw 31,12(1)
 104 000c 7C7F1B78 		mr 31,3
 105              		.cfi_offset 31, -4
 106 0010 90010014 		stw 0,20(1)
 107              	.LBB2385:
 108              		.loc 2 110 0
 109 0014 81630060 		lwz 11,96(3)
 110              		.loc 2 108 0
 111 0018 38600000 		li 3,0
 112              	.LVL7:
 113              		.loc 2 110 0
 114 001c 2F8B0000 		cmpwi 7,11,0
 115 0020 419E0018 		beq- 7,.L8
 116              		.cfi_offset 65, 4
 117              		.loc 2 111 0
 118 0024 812B0000 		lwz 9,0(11)
 119 0028 7D635B78 		mr 3,11
 120 002c 80090018 		lwz 0,24(9)
 121 0030 7C0903A6 		mtctr 0
 122 0034 4E800421 		bctrl
 123              	.LVL8:
 124              	.L8:
 125              		.loc 2 113 0
 126 0038 801F0034 		lwz 0,52(31)
 127              	.LBE2385:
 128              		.loc 2 114 0
 129 003c 83E1000C 		lwz 31,12(1)
 130              	.LVL9:
 131 0040 7C630214 		add 3,3,0
 132              	.LVL10:
 133 0044 80010014 		lwz 0,20(1)
 134 0048 38210010 		addi 1,1,16
 135              	.LCFI1:
 136              		.cfi_def_cfa_offset 0
 137              		.cfi_restore 31
 138 004c 7C0803A6 		mtlr 0
 139 0050 4E800020 		blr
 140              		.cfi_endproc
 141              	.LFE1481:
 142              		.size	_ZN10GuiElement12GetZPositionEv, .-_ZN10GuiElement12GetZPositionEv
 143              		.section	.text._ZN10GuiElement10GetLeftPosEv,"axG",@progbits,_ZN10GuiElement10GetLeftPosEv,comdat
 144              		.align 2
 145              		.weak	_ZN10GuiElement10GetLeftPosEv
 146              		.type	_ZN10GuiElement10GetLeftPosEv, @function
 147              	_ZN10GuiElement10GetLeftPosEv:
 148              	.LFB1482:
 149              		.loc 2 116 0
 150              		.cfi_startproc
 151              	.LVL11:
 152              		.loc 2 116 0
 153 0000 8063002C 		lwz 3,44(3)
 154              	.LVL12:
 155 0004 4E800020 		blr
 156              		.cfi_endproc
 157              	.LFE1482:
 158              		.size	_ZN10GuiElement10GetLeftPosEv, .-_ZN10GuiElement10GetLeftPosEv
 159              		.section	.text._ZN10GuiElement9GetTopPosEv,"axG",@progbits,_ZN10GuiElement9GetTopPosEv,comdat
 160              		.align 2
 161              		.weak	_ZN10GuiElement9GetTopPosEv
 162              		.type	_ZN10GuiElement9GetTopPosEv, @function
 163              	_ZN10GuiElement9GetTopPosEv:
 164              	.LFB1483:
 165              		.loc 2 118 0
 166              		.cfi_startproc
 167              	.LVL13:
 168              		.loc 2 118 0
 169 0000 80630030 		lwz 3,48(3)
 170              	.LVL14:
 171 0004 4E800020 		blr
 172              		.cfi_endproc
 173              	.LFE1483:
 174              		.size	_ZN10GuiElement9GetTopPosEv, .-_ZN10GuiElement9GetTopPosEv
 175              		.section	.text._ZN10GuiElement8GetWidthEv,"axG",@progbits,_ZN10GuiElement8GetWidthEv,comdat
 176              		.align 2
 177              		.weak	_ZN10GuiElement8GetWidthEv
 178              		.type	_ZN10GuiElement8GetWidthEv, @function
 179              	_ZN10GuiElement8GetWidthEv:
 180              	.LFB1484:
 181              		.loc 2 121 0
 182              		.cfi_startproc
 183              	.LVL15:
 184              		.loc 2 121 0
 185 0000 80630024 		lwz 3,36(3)
 186              	.LVL16:
 187 0004 4E800020 		blr
 188              		.cfi_endproc
 189              	.LFE1484:
 190              		.size	_ZN10GuiElement8GetWidthEv, .-_ZN10GuiElement8GetWidthEv
 191              		.section	.text._ZN10GuiElement9GetHeightEv,"axG",@progbits,_ZN10GuiElement9GetHeightEv,comdat
 192              		.align 2
 193              		.weak	_ZN10GuiElement9GetHeightEv
 194              		.type	_ZN10GuiElement9GetHeightEv, @function
 195              	_ZN10GuiElement9GetHeightEv:
 196              	.LFB1485:
 197              		.loc 2 124 0
 198              		.cfi_startproc
 199              	.LVL17:
 200              		.loc 2 124 0
 201 0000 80630028 		lwz 3,40(3)
 202              	.LVL18:
 203 0004 4E800020 		blr
 204              		.cfi_endproc
 205              	.LFE1485:
 206              		.size	_ZN10GuiElement9GetHeightEv, .-_ZN10GuiElement9GetHeightEv
 207              		.section	.text._ZN10GuiElement7SetSizeEii,"axG",@progbits,_ZN10GuiElement7SetSizeEii,comdat
 208              		.align 2
 209              		.weak	_ZN10GuiElement7SetSizeEii
 210              		.type	_ZN10GuiElement7SetSizeEii, @function
 211              	_ZN10GuiElement7SetSizeEii:
 212              	.LFB1486:
 213              		.loc 2 128 0
 214              		.cfi_startproc
 215              	.LVL19:
 216              		.loc 2 130 0
 217 0000 90830024 		stw 4,36(3)
 218              		.loc 2 132 0
 219              		.loc 2 131 0
 220 0004 90A30028 		stw 5,40(3)
 221              		.loc 2 132 0
 222 0008 4E800020 		blr
 223              		.cfi_endproc
 224              	.LFE1486:
 225              		.size	_ZN10GuiElement7SetSizeEii, .-_ZN10GuiElement7SetSizeEii
 226              		.section	.text._ZN10GuiElement10SetVisibleEb,"axG",@progbits,_ZN10GuiElement10SetVisibleEb,comdat
 227              		.align 2
 228              		.weak	_ZN10GuiElement10SetVisibleEb
 229              		.type	_ZN10GuiElement10SetVisibleEb, @function
 230              	_ZN10GuiElement10SetVisibleEb:
 231              	.LFB1487:
 232              		.loc 2 135 0
 233              		.cfi_startproc
 234              		.cfi_personality 0,__gxx_personality_v0
 235              		.cfi_lsda 0,.LLSDA1487
 236              	.LVL20:
 237 0000 7C0802A6 		mflr 0
 238 0004 9421FFE0 		stwu 1,-32(1)
 239              	.LCFI2:
 240              		.cfi_def_cfa_offset 32
 241              		.cfi_register 65, 0
 242 0008 9361000C 		stw 27,12(1)
 243              	.LBB2386:
 244              	.LBB2387:
 245              		.loc 1 2270 0
 246 000c 3B630004 		addi 27,3,4
 247              		.cfi_offset 27, -20
 248              	.LBE2387:
 249              	.LBE2386:
 250              		.loc 2 135 0
 251 0010 90010024 		stw 0,36(1)
 252 0014 93C10018 		stw 30,24(1)
 253 0018 7C7E1B78 		mr 30,3
 254              		.cfi_offset 30, -8
 255              		.cfi_offset 65, 4
 256              	.LBB2410:
 257              	.LBB2404:
 258              	.LBB2388:
 259              	.LBB2389:
 260              		.loc 1 338 0
 261 001c 81230004 		lwz 9,4(3)
 262 0020 7F63DB78 		mr 3,27
 263              	.LVL21:
 264              	.LBE2389:
 265              	.LBE2388:
 266              	.LBE2404:
 267              	.LBE2410:
 268              		.loc 2 135 0
 269 0024 93810010 		stw 28,16(1)
 270 0028 7C9C2378 		mr 28,4
 271              		.cfi_offset 28, -16
 272              	.LBB2411:
 273              	.LBB2405:
 274              	.LBB2393:
 275              	.LBB2390:
 276              		.loc 1 338 0
 277 002c 80090008 		lwz 0,8(9)
 278              	.LBE2390:
 279              	.LBE2393:
 280              	.LBE2405:
 281              	.LBE2411:
 282              		.loc 2 135 0
 283 0030 93A10014 		stw 29,20(1)
 284              	.LBB2412:
 285              		.file 3 "d:/Projects/SaveGameManager/savegame-manager-gx/trunk/source/Controls/Scrollbar.cpp"
 286              		.loc 3 483 0
 287 0034 7FDDF378 		mr 29,30
 288              		.cfi_offset 29, -12
 289              	.LBE2412:
 290              		.loc 2 135 0
 291 0038 93E1001C 		stw 31,28(1)
 292              	.LBB2413:
 293              	.LBB2406:
 294              	.LBB2394:
 295              	.LBB2391:
 296              		.loc 1 338 0
 297 003c 7C0903A6 		mtctr 0
 298              	.LBE2391:
 299              	.LBE2394:
 300              	.LBE2406:
 301              	.LBE2413:
 302              		.loc 2 137 0
 303 0040 989E001D 		stb 4,29(30)
 304              	.LVL22:
 305              	.LEHB0:
 306              	.LBB2414:
 307              	.LBB2407:
 308              	.LBB2395:
 309              	.LBB2392:
 310              		.loc 1 338 0
 311              		.cfi_offset 31, -4
 312 0044 4E800421 		bctrl
 313              	.LEHE0:
 314              	.LVL23:
 315              	.LBE2392:
 316              	.LBE2395:
 317              	.LBE2407:
 318              		.loc 3 483 0
 319 0048 87FD0008 		lwzu 31,8(29)
 320              	.LVL24:
 321              	.LBB2408:
 322              		.loc 1 2274 0
 323 004c 7F9FE800 		cmpw 7,31,29
 324 0050 419E002C 		beq- 7,.L17
 325              	.LVL25:
 326              	.L24:
 327              		.loc 1 2279 0
 328 0054 807F0008 		lwz 3,8(31)
 329 0058 7FC4F378 		mr 4,30
 330 005c 7F85E378 		mr 5,28
 331              	.LBB2396:
 332              	.LBB2397:
 333              		.file 4 "d:\\devkitpro\\devkitppc\\bin\\../lib/gcc/powerpc-eabi/4.6.3/../../../../powerpc-eabi/inc
 334              		.loc 4 234 0
 335 0060 83FF0000 		lwz 31,0(31)
 336              	.LVL26:
 337              	.LBE2397:
 338              	.LBE2396:
 339              		.loc 1 2279 0
 340 0064 81230000 		lwz 9,0(3)
 341 0068 8009000C 		lwz 0,12(9)
 342 006c 7C0903A6 		mtctr 0
 343              	.LEHB1:
 344 0070 4E800421 		bctrl
 345              	.LEHE1:
 346              	.LVL27:
 347              		.loc 1 2274 0
 348 0074 7F9DF800 		cmpw 7,29,31
 349 0078 409EFFDC 		bne+ 7,.L24
 350              	.LVL28:
 351              	.L17:
 352              	.LBB2398:
 353              	.LBB2399:
 354              	.LBB2400:
 355              		.loc 1 343 0
 356 007c 813E0004 		lwz 9,4(30)
 357 0080 7F63DB78 		mr 3,27
 358 0084 8009000C 		lwz 0,12(9)
 359 0088 7C0903A6 		mtctr 0
 360              	.LEHB2:
 361 008c 4E800421 		bctrl
 362              	.LEHE2:
 363              	.LBE2400:
 364              	.LBE2399:
 365              	.LBE2398:
 366              	.LBE2408:
 367              	.LBE2414:
 368              		.loc 2 139 0
 369 0090 80010024 		lwz 0,36(1)
 370 0094 8361000C 		lwz 27,12(1)
 371              	.LVL29:
 372 0098 7C0803A6 		mtlr 0
 373 009c 83810010 		lwz 28,16(1)
 374              	.LVL30:
 375 00a0 83A10014 		lwz 29,20(1)
 376 00a4 83C10018 		lwz 30,24(1)
 377              	.LVL31:
 378 00a8 83E1001C 		lwz 31,28(1)
 379              	.LVL32:
 380 00ac 38210020 		addi 1,1,32
 381              		.cfi_remember_state
 382              	.LCFI3:
 383              		.cfi_def_cfa_offset 0
 384              		.cfi_restore 31
 385              		.cfi_restore 30
 386              		.cfi_restore 29
 387              		.cfi_restore 28
 388              		.cfi_restore 27
 389 00b0 4E800020 		blr
 390              	.LVL33:
 391              	.L23:
 392              	.LCFI4:
 393              		.cfi_restore_state
 394              	.LBB2415:
 395              	.LBB2409:
 396              	.LBB2401:
 397              	.LBB2402:
 398              	.LBB2403:
 399              		.loc 1 343 0
 400 00b4 813E0004 		lwz 9,4(30)
 401 00b8 7C7F1B78 		mr 31,3
 402              	.LVL34:
 403 00bc 7F63DB78 		mr 3,27
 404 00c0 8009000C 		lwz 0,12(9)
 405 00c4 7C0903A6 		mtctr 0
 406 00c8 4E800421 		bctrl
 407 00cc 7FE3FB78 		mr 3,31
 408              	.LEHB3:
 409 00d0 48000001 		bl _Unwind_Resume
 410              	.LEHE3:
 411              	.LBE2403:
 412              	.LBE2402:
 413              	.LBE2401:
 414              	.LBE2409:
 415              	.LBE2415:
 416              		.cfi_endproc
 417              	.LFE1487:
 418              		.globl __gxx_personality_v0
 419              		.section	.gcc_except_table,"a",@progbits
 420              	.LLSDA1487:
 421 0000 FF       		.byte	0xff
 422 0001 FF       		.byte	0xff
 423 0002 01       		.byte	0x1
 424 0003 13       		.uleb128 .LLSDACSE1487-.LLSDACSB1487
 425              	.LLSDACSB1487:
 426 0004 44       		.uleb128 .LEHB0-.LFB1487
 427 0005 04       		.uleb128 .LEHE0-.LEHB0
 428 0006 00       		.uleb128 0
 429 0007 00       		.uleb128 0
 430 0008 70       		.uleb128 .LEHB1-.LFB1487
 431 0009 04       		.uleb128 .LEHE1-.LEHB1
 432 000a B401     		.uleb128 .L23-.LFB1487
 433 000c 00       		.uleb128 0
 434 000d 8C01     		.uleb128 .LEHB2-.LFB1487
 435 000f 04       		.uleb128 .LEHE2-.LEHB2
 436 0010 00       		.uleb128 0
 437 0011 00       		.uleb128 0
 438 0012 D001     		.uleb128 .LEHB3-.LFB1487
 439 0014 04       		.uleb128 .LEHE3-.LEHB3
 440 0015 00       		.uleb128 0
 441 0016 00       		.uleb128 0
 442              	.LLSDACSE1487:
 443              		.section	.text._ZN10GuiElement10SetVisibleEb,"axG",@progbits,_ZN10GuiElement10SetVisibleEb,comdat
 444              		.size	_ZN10GuiElement10SetVisibleEb, .-_ZN10GuiElement10SetVisibleEb
 445              		.section	.text._ZN10GuiElement9IsVisibleEv,"axG",@progbits,_ZN10GuiElement9IsVisibleEv,comdat
 446              		.align 2
 447              		.weak	_ZN10GuiElement9IsVisibleEv
 448              		.type	_ZN10GuiElement9IsVisibleEv, @function
 449              	_ZN10GuiElement9IsVisibleEv:
 450              	.LFB1488:
 451              		.loc 2 142 0
 452              		.cfi_startproc
 453              	.LVL35:
 454              		.loc 2 142 0
 455 0000 8863001D 		lbz 3,29(3)
 456              	.LVL36:
 457 0004 4E800020 		blr
 458              		.cfi_endproc
 459              	.LFE1488:
 460              		.size	_ZN10GuiElement9IsVisibleEv, .-_ZN10GuiElement9IsVisibleEv
 461              		.section	.text._ZN10GuiElement12IsSelectableEv,"axG",@progbits,_ZN10GuiElement12IsSelectableEv,com
 462              		.align 2
 463              		.weak	_ZN10GuiElement12IsSelectableEv
 464              		.type	_ZN10GuiElement12IsSelectableEv, @function
 465              	_ZN10GuiElement12IsSelectableEv:
 466              	.LFB1489:
 467              		.loc 2 145 0
 468              		.cfi_startproc
 469              	.LVL37:
 470              		.loc 2 149 0
 471 0000 80030048 		lwz 0,72(3)
 472 0004 39200000 		li 9,0
 473 0008 2F800004 		cmpwi 7,0,4
 474 000c 419E0010 		beq- 7,.L27
 475              		.loc 2 149 0 is_stmt 0 discriminator 1
 476 0010 2F800002 		cmpwi 7,0,2
 477 0014 419E0008 		beq- 7,.L27
 478              		.loc 2 149 0 discriminator 3
 479 0018 8923001E 		lbz 9,30(3)
 480              	.L27:
 481              		.loc 2 150 0 is_stmt 1 discriminator 5
 482 001c 7D234B78 		mr 3,9
 483              	.LVL38:
 484 0020 4E800020 		blr
 485              		.cfi_endproc
 486              	.LFE1489:
 487              		.size	_ZN10GuiElement12IsSelectableEv, .-_ZN10GuiElement12IsSelectableEv
 488              		.section	.text._ZN10GuiElement11IsClickableEv,"axG",@progbits,_ZN10GuiElement11IsClickableEv,comda
 489              		.align 2
 490              		.weak	_ZN10GuiElement11IsClickableEv
 491              		.type	_ZN10GuiElement11IsClickableEv, @function
 492              	_ZN10GuiElement11IsClickableEv:
 493              	.LFB1490:
 494              		.loc 2 153 0
 495              		.cfi_startproc
 496              	.LVL39:
 497              		.loc 2 158 0
 498 0000 80030048 		lwz 0,72(3)
 499 0004 39200000 		li 9,0
 500 0008 2F800004 		cmpwi 7,0,4
 501 000c 419E0018 		beq- 7,.L31
 502              		.loc 2 158 0 is_stmt 0 discriminator 1
 503 0010 2F800002 		cmpwi 7,0,2
 504 0014 419E0010 		beq- 7,.L31
 505              		.loc 2 158 0 discriminator 3
 506 0018 2F800003 		cmpwi 7,0,3
 507 001c 419E0008 		beq- 7,.L31
 508              		.loc 2 158 0 discriminator 4
 509 0020 8923001F 		lbz 9,31(3)
 510              	.L31:
 511              		.loc 2 159 0 is_stmt 1 discriminator 6
 512 0024 7D234B78 		mr 3,9
 513              	.LVL40:
 514 0028 4E800020 		blr
 515              		.cfi_endproc
 516              	.LFE1490:
 517              		.size	_ZN10GuiElement11IsClickableEv, .-_ZN10GuiElement11IsClickableEv
 518              		.section	.text._ZN10GuiElement10IsHoldableEv,"axG",@progbits,_ZN10GuiElement10IsHoldableEv,comdat
 519              		.align 2
 520              		.weak	_ZN10GuiElement10IsHoldableEv
 521              		.type	_ZN10GuiElement10IsHoldableEv, @function
 522              	_ZN10GuiElement10IsHoldableEv:
 523              	.LFB1491:
 524              		.loc 2 162 0
 525              		.cfi_startproc
 526              	.LVL41:
 527              		.loc 2 162 0
 528 0000 81230048 		lwz 9,72(3)
 529 0004 38000000 		li 0,0
 530 0008 2F890004 		cmpwi 7,9,4
 531 000c 419E0008 		beq- 7,.L36
 532              		.loc 2 162 0 is_stmt 0 discriminator 1
 533 0010 88030020 		lbz 0,32(3)
 534              	.L36:
 535              		.loc 2 162 0 discriminator 4
 536 0014 7C030378 		mr 3,0
 537              	.LVL42:
 538 0018 4E800020 		blr
 539              		.cfi_endproc
 540              	.LFE1491:
 541              		.size	_ZN10GuiElement10IsHoldableEv, .-_ZN10GuiElement10IsHoldableEv
 542              		.section	.text._ZN10GuiElement13SetSelectableEb,"axG",@progbits,_ZN10GuiElement13SetSelectableEb,c
 543              		.align 2
 544              		.weak	_ZN10GuiElement13SetSelectableEb
 545              		.type	_ZN10GuiElement13SetSelectableEb, @function
 546              	_ZN10GuiElement13SetSelectableEb:
 547              	.LFB1492:
 548              		.loc 2 165 0 is_stmt 1
 549              		.cfi_startproc
 550              	.LVL43:
 551              		.loc 2 165 0
 552 0000 9883001E 		stb 4,30(3)
 553 0004 4E800020 		blr
 554              		.cfi_endproc
 555              	.LFE1492:
 556              		.size	_ZN10GuiElement13SetSelectableEb, .-_ZN10GuiElement13SetSelectableEb
 557              		.section	.text._ZN10GuiElement12SetClickableEb,"axG",@progbits,_ZN10GuiElement12SetClickableEb,com
 558              		.align 2
 559              		.weak	_ZN10GuiElement12SetClickableEb
 560              		.type	_ZN10GuiElement12SetClickableEb, @function
 561              	_ZN10GuiElement12SetClickableEb:
 562              	.LFB1493:
 563              		.loc 2 168 0
 564              		.cfi_startproc
 565              	.LVL44:
 566              		.loc 2 168 0
 567 0000 9883001F 		stb 4,31(3)
 568 0004 4E800020 		blr
 569              		.cfi_endproc
 570              	.LFE1493:
 571              		.size	_ZN10GuiElement12SetClickableEb, .-_ZN10GuiElement12SetClickableEb
 572              		.section	.text._ZN10GuiElement11SetHoldableEb,"axG",@progbits,_ZN10GuiElement11SetHoldableEb,comda
 573              		.align 2
 574              		.weak	_ZN10GuiElement11SetHoldableEb
 575              		.type	_ZN10GuiElement11SetHoldableEb, @function
 576              	_ZN10GuiElement11SetHoldableEb:
 577              	.LFB1494:
 578              		.loc 2 171 0
 579              		.cfi_startproc
 580              	.LVL45:
 581              		.loc 2 171 0
 582 0000 98830020 		stb 4,32(3)
 583 0004 4E800020 		blr
 584              		.cfi_endproc
 585              	.LFE1494:
 586              		.size	_ZN10GuiElement11SetHoldableEb, .-_ZN10GuiElement11SetHoldableEb
 587              		.section	.text._ZN10GuiElement8GetStateEv,"axG",@progbits,_ZN10GuiElement8GetStateEv,comdat
 588              		.align 2
 589              		.weak	_ZN10GuiElement8GetStateEv
 590              		.type	_ZN10GuiElement8GetStateEv, @function
 591              	_ZN10GuiElement8GetStateEv:
 592              	.LFB1495:
 593              		.loc 2 178 0
 594              		.cfi_startproc
 595              	.LVL46:
 596              		.loc 2 178 0
 597 0000 80630048 		lwz 3,72(3)
 598              	.LVL47:
 599 0004 4E800020 		blr
 600              		.cfi_endproc
 601              	.LFE1495:
 602              		.size	_ZN10GuiElement8GetStateEv, .-_ZN10GuiElement8GetStateEv
 603              		.section	.text._ZN10GuiElement12GetStateChanEv,"axG",@progbits,_ZN10GuiElement12GetStateChanEv,com
 604              		.align 2
 605              		.weak	_ZN10GuiElement12GetStateChanEv
 606              		.type	_ZN10GuiElement12GetStateChanEv, @function
 607              	_ZN10GuiElement12GetStateChanEv:
 608              	.LFB1496:
 609              		.loc 2 181 0
 610              		.cfi_startproc
 611              	.LVL48:
 612              		.loc 2 181 0
 613 0000 8063004C 		lwz 3,76(3)
 614              	.LVL49:
 615 0004 4E800020 		blr
 616              		.cfi_endproc
 617              	.LFE1496:
 618              		.size	_ZN10GuiElement12GetStateChanEv, .-_ZN10GuiElement12GetStateChanEv
 619              		.section	.text._ZN10GuiElement8SetAlphaEi,"axG",@progbits,_ZN10GuiElement8SetAlphaEi,comdat
 620              		.align 2
 621              		.weak	_ZN10GuiElement8SetAlphaEi
 622              		.type	_ZN10GuiElement8SetAlphaEi, @function
 623              	_ZN10GuiElement8SetAlphaEi:
 624              	.LFB1498:
 625              		.loc 2 190 0
 626              		.cfi_startproc
 627              	.LVL50:
 628              		.loc 2 190 0
 629 0000 90830038 		stw 4,56(3)
 630 0004 4E800020 		blr
 631              		.cfi_endproc
 632              	.LFE1498:
 633              		.size	_ZN10GuiElement8SetAlphaEi, .-_ZN10GuiElement8SetAlphaEi
 634              		.section	.text._ZN10GuiElement8GetAlphaEv,"axG",@progbits,_ZN10GuiElement8GetAlphaEv,comdat
 635              		.align 2
 636              		.weak	_ZN10GuiElement8GetAlphaEv
 637              		.type	_ZN10GuiElement8GetAlphaEv, @function
 638              	_ZN10GuiElement8GetAlphaEv:
 639              	.LFB1499:
 640              		.loc 2 194 0
 641              		.cfi_startproc
 642              	.LVL51:
 643 0000 7C0802A6 		mflr 0
 644 0004 9421FFD8 		stwu 1,-40(1)
 645              	.LCFI5:
 646              		.cfi_def_cfa_offset 40
 647              		.cfi_register 65, 0
 648 0008 93E10024 		stw 31,36(1)
 649 000c 9001002C 		stw 0,44(1)
 650              	.LBB2416:
 651              		.loc 2 198 0
 652 0010 83E3006C 		lwz 31,108(3)
 653              		.cfi_offset 65, 4
 654              		.cfi_offset 31, -4
 655 0014 2F9F0000 		cmpwi 7,31,0
 656 0018 419C0094 		blt- 7,.L47
 657              	.L45:
 658              	.LVL52:
 659              		.loc 2 203 0
 660 001c 80630060 		lwz 3,96(3)
 661              	.LVL53:
 662 0020 2F830000 		cmpwi 7,3,0
 663 0024 419E0070 		beq- 7,.L46
 664              		.loc 2 204 0
 665 0028 81230000 		lwz 9,0(3)
 666 002c 6FFF8000 		xoris 31,31,0x8000
 667              	.LVL54:
 668 0030 80090064 		lwz 0,100(9)
 669 0034 7C0903A6 		mtctr 0
 670 0038 4E800421 		bctrl
 671 003c 3C004330 		lis 0,0x4330
 672 0040 6C638000 		xoris 3,3,0x8000
 673 0044 90010010 		stw 0,16(1)
 674 0048 90610014 		stw 3,20(1)
 675 004c 3D200000 		lis 9,.LC1@ha
 676 0050 C0090000 		lfs 0,.LC1@l(9)
 677 0054 3D200000 		lis 9,.LC2@ha
 678 0058 C9A10010 		lfd 13,16(1)
 679 005c C1890004 		lfs 12,.LC2@l(9)
 680 0060 39210018 		addi 9,1,24
 681 0064 FDAD0028 		fsub 13,13,0
 682 0068 93E1000C 		stw 31,12(1)
 683 006c 90010008 		stw 0,8(1)
 684 0070 FDA06818 		frsp 13,13
 685 0074 EDAD6024 		fdivs 13,13,12
 686 0078 C9810008 		lfd 12,8(1)
 687 007c FC0C0028 		fsub 0,12,0
 688 0080 FC000018 		frsp 0,0
 689 0084 EC000372 		fmuls 0,0,13
 690 0088 FC00001E 		fctiwz 0,0
 691 008c 7C004FAE 		stfiwx 0,0,9
 692 0090 83E10018 		lwz 31,24(1)
 693              	.LVL55:
 694              	.L46:
 695              	.LBE2416:
 696              		.loc 2 207 0
 697 0094 8001002C 		lwz 0,44(1)
 698 0098 7FE3FB78 		mr 3,31
 699 009c 83E10024 		lwz 31,36(1)
 700              	.LVL56:
 701 00a0 7C0803A6 		mtlr 0
 702 00a4 38210028 		addi 1,1,40
 703              		.cfi_remember_state
 704              	.LCFI6:
 705              		.cfi_def_cfa_offset 0
 706              		.cfi_restore 31
 707 00a8 4E800020 		blr
 708              	.LVL57:
 709              	.L47:
 710              	.LCFI7:
 711              		.cfi_restore_state
 712              	.LBB2417:
 713              		.loc 2 201 0
 714 00ac 83E30038 		lwz 31,56(3)
 715              	.LVL58:
 716 00b0 4BFFFF6C 		b .L45
 717              	.LBE2417:
 718              		.cfi_endproc
 719              	.LFE1499:
 720              		.size	_ZN10GuiElement8GetAlphaEv, .-_ZN10GuiElement8GetAlphaEv
 721              		.section	.text._ZN10GuiElement8SetScaleEf,"axG",@progbits,_ZN10GuiElement8SetScaleEf,comdat
 722              		.align 2
 723              		.weak	_ZN10GuiElement8SetScaleEf
 724              		.type	_ZN10GuiElement8SetScaleEf, @function
 725              	_ZN10GuiElement8SetScaleEf:
 726              	.LFB1500:
 727              		.loc 2 210 0
 728              		.cfi_startproc
 729              	.LVL59:
 730              		.loc 2 212 0
 731 0000 D023003C 		stfs 1,60(3)
 732              		.loc 2 214 0
 733              		.loc 2 213 0
 734 0004 D0230040 		stfs 1,64(3)
 735              		.loc 2 214 0
 736 0008 4E800020 		blr
 737              		.cfi_endproc
 738              	.LFE1500:
 739              		.size	_ZN10GuiElement8SetScaleEf, .-_ZN10GuiElement8SetScaleEf
 740              		.section	.text._ZN10GuiElement9SetScaleXEf,"axG",@progbits,_ZN10GuiElement9SetScaleXEf,comdat
 741              		.align 2
 742              		.weak	_ZN10GuiElement9SetScaleXEf
 743              		.type	_ZN10GuiElement9SetScaleXEf, @function
 744              	_ZN10GuiElement9SetScaleXEf:
 745              	.LFB1501:
 746              		.loc 2 217 0
 747              		.cfi_startproc
 748              	.LVL60:
 749              		.loc 2 217 0
 750 0000 D023003C 		stfs 1,60(3)
 751 0004 4E800020 		blr
 752              		.cfi_endproc
 753              	.LFE1501:
 754              		.size	_ZN10GuiElement9SetScaleXEf, .-_ZN10GuiElement9SetScaleXEf
 755              		.section	.text._ZN10GuiElement9SetScaleYEf,"axG",@progbits,_ZN10GuiElement9SetScaleYEf,comdat
 756              		.align 2
 757              		.weak	_ZN10GuiElement9SetScaleYEf
 758              		.type	_ZN10GuiElement9SetScaleYEf, @function
 759              	_ZN10GuiElement9SetScaleYEf:
 760              	.LFB1502:
 761              		.loc 2 220 0
 762              		.cfi_startproc
 763              	.LVL61:
 764              		.loc 2 220 0
 765 0000 D0230040 		stfs 1,64(3)
 766 0004 4E800020 		blr
 767              		.cfi_endproc
 768              	.LFE1502:
 769              		.size	_ZN10GuiElement9SetScaleYEf, .-_ZN10GuiElement9SetScaleYEf
 770              		.section	.text._ZN10GuiElement8GetScaleEv,"axG",@progbits,_ZN10GuiElement8GetScaleEv,comdat
 771              		.align 2
 772              		.weak	_ZN10GuiElement8GetScaleEv
 773              		.type	_ZN10GuiElement8GetScaleEv, @function
 774              	_ZN10GuiElement8GetScaleEv:
 775              	.LFB1503:
 776              		.loc 2 223 0
 777              		.cfi_startproc
 778              	.LVL62:
 779 0000 7C0802A6 		mflr 0
 780 0004 9421FFF0 		stwu 1,-16(1)
 781              	.LCFI8:
 782              		.cfi_def_cfa_offset 16
 783              		.cfi_register 65, 0
 784              	.LBB2418:
 785              		.loc 2 225 0
 786 0008 3D200000 		lis 9,.LC3@ha
 787              	.LBE2418:
 788              		.loc 2 223 0
 789 000c DBE10008 		stfd 31,8(1)
 790 0010 90010014 		stw 0,20(1)
 791              	.LBB2419:
 792              		.loc 2 225 0
 793 0014 C0030040 		lfs 0,64(3)
 794 0018 C3E3003C 		lfs 31,60(3)
 795              		.cfi_offset 65, 4
 796              		.cfi_offset 63, -8
 797              		.loc 2 227 0
 798 001c 81630060 		lwz 11,96(3)
 799              		.loc 2 225 0
 800 0020 EFFF002A 		fadds 31,31,0
 801 0024 C0090008 		lfs 0,.LC3@l(9)
 802              		.loc 2 227 0
 803 0028 2F8B0000 		cmpwi 7,11,0
 804              		.loc 2 225 0
 805 002c EFFF0032 		fmuls 31,31,0
 806 0030 C0030070 		lfs 0,112(3)
 807 0034 EFFF0032 		fmuls 31,31,0
 808              	.LVL63:
 809              		.loc 2 227 0
 810 0038 419E001C 		beq- 7,.L52
 811              		.loc 2 228 0
 812 003c 812B0000 		lwz 9,0(11)
 813 0040 7D635B78 		mr 3,11
 814              	.LVL64:
 815 0044 80090074 		lwz 0,116(9)
 816 0048 7C0903A6 		mtctr 0
 817 004c 4E800421 		bctrl
 818 0050 EFFF0072 		fmuls 31,31,1
 819              	.LVL65:
 820              	.L52:
 821              	.LBE2419:
 822              		.loc 2 231 0
 823 0054 80010014 		lwz 0,20(1)
 824 0058 FC20F890 		fmr 1,31
 825 005c CBE10008 		lfd 31,8(1)
 826              	.LVL66:
 827 0060 7C0803A6 		mtlr 0
 828 0064 38210010 		addi 1,1,16
 829              	.LCFI9:
 830              		.cfi_def_cfa_offset 0
 831              		.cfi_restore 63
 832 0068 4E800020 		blr
 833              		.cfi_endproc
 834              	.LFE1503:
 835              		.size	_ZN10GuiElement8GetScaleEv, .-_ZN10GuiElement8GetScaleEv
 836              		.section	.text._ZN10GuiElement9GetScaleXEv,"axG",@progbits,_ZN10GuiElement9GetScaleXEv,comdat
 837              		.align 2
 838              		.weak	_ZN10GuiElement9GetScaleXEv
 839              		.type	_ZN10GuiElement9GetScaleXEv, @function
 840              	_ZN10GuiElement9GetScaleXEv:
 841              	.LFB1504:
 842              		.loc 2 234 0
 843              		.cfi_startproc
 844              	.LVL67:
 845 0000 7C0802A6 		mflr 0
 846 0004 9421FFF0 		stwu 1,-16(1)
 847              	.LCFI10:
 848              		.cfi_def_cfa_offset 16
 849              		.cfi_register 65, 0
 850 0008 DBE10008 		stfd 31,8(1)
 851 000c 90010014 		stw 0,20(1)
 852              	.LBB2420:
 853              		.loc 2 238 0
 854 0010 81630060 		lwz 11,96(3)
 855              		.loc 2 236 0
 856 0014 C3E3003C 		lfs 31,60(3)
 857              		.cfi_offset 65, 4
 858              		.cfi_offset 63, -8
 859              		.loc 2 238 0
 860 0018 2F8B0000 		cmpwi 7,11,0
 861              		.loc 2 236 0
 862 001c C0030070 		lfs 0,112(3)
 863 0020 EFFF0032 		fmuls 31,31,0
 864              	.LVL68:
 865              		.loc 2 238 0
 866 0024 419E001C 		beq- 7,.L54
 867              		.loc 2 239 0
 868 0028 812B0000 		lwz 9,0(11)
 869 002c 7D635B78 		mr 3,11
 870              	.LVL69:
 871 0030 80090078 		lwz 0,120(9)
 872 0034 7C0903A6 		mtctr 0
 873 0038 4E800421 		bctrl
 874 003c EFFF0072 		fmuls 31,31,1
 875              	.LVL70:
 876              	.L54:
 877              	.LBE2420:
 878              		.loc 2 242 0
 879 0040 80010014 		lwz 0,20(1)
 880 0044 FC20F890 		fmr 1,31
 881 0048 CBE10008 		lfd 31,8(1)
 882              	.LVL71:
 883 004c 7C0803A6 		mtlr 0
 884 0050 38210010 		addi 1,1,16
 885              	.LCFI11:
 886              		.cfi_def_cfa_offset 0
 887              		.cfi_restore 63
 888 0054 4E800020 		blr
 889              		.cfi_endproc
 890              	.LFE1504:
 891              		.size	_ZN10GuiElement9GetScaleXEv, .-_ZN10GuiElement9GetScaleXEv
 892              		.section	.text._ZN10GuiElement9GetScaleYEv,"axG",@progbits,_ZN10GuiElement9GetScaleYEv,comdat
 893              		.align 2
 894              		.weak	_ZN10GuiElement9GetScaleYEv
 895              		.type	_ZN10GuiElement9GetScaleYEv, @function
 896              	_ZN10GuiElement9GetScaleYEv:
 897              	.LFB1505:
 898              		.loc 2 245 0
 899              		.cfi_startproc
 900              	.LVL72:
 901 0000 7C0802A6 		mflr 0
 902 0004 9421FFF0 		stwu 1,-16(1)
 903              	.LCFI12:
 904              		.cfi_def_cfa_offset 16
 905              		.cfi_register 65, 0
 906 0008 DBE10008 		stfd 31,8(1)
 907 000c 90010014 		stw 0,20(1)
 908              	.LBB2421:
 909              		.loc 2 249 0
 910 0010 81630060 		lwz 11,96(3)
 911              		.loc 2 247 0
 912 0014 C3E30040 		lfs 31,64(3)
 913              		.cfi_offset 65, 4
 914              		.cfi_offset 63, -8
 915              		.loc 2 249 0
 916 0018 2F8B0000 		cmpwi 7,11,0
 917              		.loc 2 247 0
 918 001c C0030070 		lfs 0,112(3)
 919 0020 EFFF0032 		fmuls 31,31,0
 920              	.LVL73:
 921              		.loc 2 249 0
 922 0024 419E001C 		beq- 7,.L56
 923              		.loc 2 250 0
 924 0028 812B0000 		lwz 9,0(11)
 925 002c 7D635B78 		mr 3,11
 926              	.LVL74:
 927 0030 8009007C 		lwz 0,124(9)
 928 0034 7C0903A6 		mtctr 0
 929 0038 4E800421 		bctrl
 930 003c EFFF0072 		fmuls 31,31,1
 931              	.LVL75:
 932              	.L56:
 933              	.LBE2421:
 934              		.loc 2 253 0
 935 0040 80010014 		lwz 0,20(1)
 936 0044 FC20F890 		fmr 1,31
 937 0048 CBE10008 		lfd 31,8(1)
 938              	.LVL76:
 939 004c 7C0803A6 		mtlr 0
 940 0050 38210010 		addi 1,1,16
 941              	.LCFI13:
 942              		.cfi_def_cfa_offset 0
 943              		.cfi_restore 63
 944 0054 4E800020 		blr
 945              		.cfi_endproc
 946              	.LFE1505:
 947              		.size	_ZN10GuiElement9GetScaleYEv, .-_ZN10GuiElement9GetScaleYEv
 948              		.section	.text._ZN10GuiElement6RumbleEv,"axG",@progbits,_ZN10GuiElement6RumbleEv,comdat
 949              		.align 2
 950              		.weak	_ZN10GuiElement6RumbleEv
 951              		.type	_ZN10GuiElement6RumbleEv, @function
 952              	_ZN10GuiElement6RumbleEv:
 953              	.LFB1506:
 954              		.loc 2 256 0
 955              		.cfi_startproc
 956              	.LVL77:
 957              		.loc 2 256 0
 958 0000 8863001C 		lbz 3,28(3)
 959              	.LVL78:
 960 0004 4E800020 		blr
 961              		.cfi_endproc
 962              	.LFE1506:
 963              		.size	_ZN10GuiElement6RumbleEv, .-_ZN10GuiElement6RumbleEv
 964              		.section	.text._ZN10GuiElement9SetRumbleEb,"axG",@progbits,_ZN10GuiElement9SetRumbleEb,comdat
 965              		.align 2
 966              		.weak	_ZN10GuiElement9SetRumbleEb
 967              		.type	_ZN10GuiElement9SetRumbleEb, @function
 968              	_ZN10GuiElement9SetRumbleEb:
 969              	.LFB1507:
 970              		.loc 2 259 0
 971              		.cfi_startproc
 972              	.LVL79:
 973              		.loc 2 259 0
 974 0000 9883001C 		stb 4,28(3)
 975 0004 4E800020 		blr
 976              		.cfi_endproc
 977              	.LFE1507:
 978              		.size	_ZN10GuiElement9SetRumbleEb, .-_ZN10GuiElement9SetRumbleEb
 979              		.section	.text._ZN10GuiElement13SetEffectGrowEv,"axG",@progbits,_ZN10GuiElement13SetEffectGrowEv,c
 980              		.align 2
 981              		.weak	_ZN10GuiElement13SetEffectGrowEv
 982              		.type	_ZN10GuiElement13SetEffectGrowEv, @function
 983              	_ZN10GuiElement13SetEffectGrowEv:
 984              	.LFB1508:
 985              		.loc 2 271 0
 986              		.cfi_startproc
 987              	.LVL80:
 988 0000 7C0802A6 		mflr 0
 989 0004 9421FFF8 		stwu 1,-8(1)
 990              	.LCFI14:
 991              		.cfi_def_cfa_offset 8
 992              		.cfi_register 65, 0
 993 0008 81230000 		lwz 9,0(3)
 994 000c 38800100 		li 4,256
 995 0010 38A00004 		li 5,4
 996 0014 38C0006E 		li 6,110
 997 0018 9001000C 		stw 0,12(1)
 998              		.loc 2 271 0
 999 001c 8009008C 		lwz 0,140(9)
 1000              		.cfi_offset 65, 4
 1001 0020 7C0903A6 		mtctr 0
 1002 0024 4E800421 		bctrl
 1003              	.LVL81:
 1004 0028 8001000C 		lwz 0,12(1)
 1005 002c 38210008 		addi 1,1,8
 1006              	.LCFI15:
 1007              		.cfi_def_cfa_offset 0
 1008 0030 7C0803A6 		mtlr 0
 1009 0034 4E800020 		blr
 1010              		.cfi_endproc
 1011              	.LFE1508:
 1012              		.size	_ZN10GuiElement13SetEffectGrowEv, .-_ZN10GuiElement13SetEffectGrowEv
 1013              		.section	.text._ZNK10GuiElement9GetEffectEv,"axG",@progbits,_ZNK10GuiElement9GetEffectEv,comdat
 1014              		.align 2
 1015              		.weak	_ZNK10GuiElement9GetEffectEv
 1016              		.type	_ZNK10GuiElement9GetEffectEv, @function
 1017              	_ZNK10GuiElement9GetEffectEv:
 1018              	.LFB1509:
 1019              		.loc 2 276 0
 1020              		.cfi_startproc
 1021              	.LVL82:
 1022              		.loc 2 276 0
 1023 0000 80630078 		lwz 3,120(3)
 1024              	.LVL83:
 1025 0004 4E800020 		blr
 1026              		.cfi_endproc
 1027              	.LFE1509:
 1028              		.size	_ZNK10GuiElement9GetEffectEv, .-_ZNK10GuiElement9GetEffectEv
 1029              		.section	.text._ZNK10GuiElement10IsAnimatedEv,"axG",@progbits,_ZNK10GuiElement10IsAnimatedEv,comda
 1030              		.align 2
 1031              		.weak	_ZNK10GuiElement10IsAnimatedEv
 1032              		.type	_ZNK10GuiElement10IsAnimatedEv, @function
 1033              	_ZNK10GuiElement10IsAnimatedEv:
 1034              	.LFB1510:
 1035              		.loc 2 278 0
 1036              		.cfi_startproc
 1037              	.LVL84:
 1038 0000 7C0802A6 		mflr 0
 1039 0004 9421FFF8 		stwu 1,-8(1)
 1040              	.LCFI16:
 1041              		.cfi_def_cfa_offset 8
 1042              		.cfi_register 65, 0
 1043 0008 9001000C 		stw 0,12(1)
 1044              		.loc 2 278 0
 1045 000c 81230000 		lwz 9,0(3)
 1046 0010 80090098 		lwz 0,152(9)
 1047              		.cfi_offset 65, 4
 1048 0014 7C0903A6 		mtctr 0
 1049 0018 4E800421 		bctrl
 1050              	.LVL85:
 1051 001c 7C60FE70 		srawi 0,3,31
 1052 0020 7C630050 		subf 3,3,0
 1053 0024 8001000C 		lwz 0,12(1)
 1054 0028 54630FFE 		srwi 3,3,31
 1055 002c 7C0803A6 		mtlr 0
 1056 0030 38210008 		addi 1,1,8
 1057              	.LCFI17:
 1058              		.cfi_def_cfa_offset 0
 1059 0034 4E800020 		blr
 1060              		.cfi_endproc
 1061              	.LFE1510:
 1062              		.size	_ZNK10GuiElement10IsAnimatedEv, .-_ZNK10GuiElement10IsAnimatedEv
 1063              		.section	.text._ZN10GuiElement8IsInsideEii,"axG",@progbits,_ZN10GuiElement8IsInsideEii,comdat
 1064              		.align 2
 1065              		.weak	_ZN10GuiElement8IsInsideEii
 1066              		.type	_ZN10GuiElement8IsInsideEii, @function
 1067              	_ZN10GuiElement8IsInsideEii:
 1068              	.LFB1512:
 1069              		.loc 2 285 0
 1070              		.cfi_startproc
 1071              	.LVL86:
 1072 0000 7C0802A6 		mflr 0
 1073 0004 9421FFE8 		stwu 1,-24(1)
 1074              	.LCFI18:
 1075              		.cfi_def_cfa_offset 24
 1076              		.cfi_register 65, 0
 1077 0008 93810008 		stw 28,8(1)
 1078 000c 7CBC2B78 		mr 28,5
 1079              		.cfi_offset 28, -16
 1080 0010 9001001C 		stw 0,28(1)
 1081 0014 93A1000C 		stw 29,12(1)
 1082              		.loc 2 290 0
 1083 0018 3BA00000 		li 29,0
 1084              		.cfi_offset 29, -12
 1085              		.cfi_offset 65, 4
 1086              		.loc 2 287 0
 1087 001c 81230000 		lwz 9,0(3)
 1088              		.loc 2 285 0
 1089 0020 93C10010 		stw 30,16(1)
 1090 0024 7C9E2378 		mr 30,4
 1091              		.cfi_offset 30, -8
 1092              		.loc 2 287 0
 1093 0028 80090010 		lwz 0,16(9)
 1094              		.loc 2 285 0
 1095 002c 93E10014 		stw 31,20(1)
 1096              		.loc 2 285 0
 1097 0030 7C7F1B78 		mr 31,3
 1098              		.cfi_offset 31, -4
 1099              		.loc 2 287 0
 1100 0034 7C0903A6 		mtctr 0
 1101 0038 4E800421 		bctrl
 1102              	.LVL87:
 1103              		.loc 2 290 0
 1104 003c 7F83F000 		cmpw 7,3,30
 1105 0040 419C0028 		blt- 7,.L67
 1106              	.L63:
 1107              		.loc 2 291 0 discriminator 6
 1108 0044 8001001C 		lwz 0,28(1)
 1109 0048 7FA3EB78 		mr 3,29
 1110 004c 83810008 		lwz 28,8(1)
 1111              	.LVL88:
 1112 0050 7C0803A6 		mtlr 0
 1113 0054 83A1000C 		lwz 29,12(1)
 1114 0058 83C10010 		lwz 30,16(1)
 1115              	.LVL89:
 1116 005c 83E10014 		lwz 31,20(1)
 1117              	.LVL90:
 1118 0060 38210018 		addi 1,1,24
 1119              		.cfi_remember_state
 1120              	.LCFI19:
 1121              		.cfi_def_cfa_offset 0
 1122              		.cfi_restore 31
 1123              		.cfi_restore 30
 1124              		.cfi_restore 29
 1125              		.cfi_restore 28
 1126 0064 4E800020 		blr
 1127              	.LVL91:
 1128              	.L67:
 1129              	.LCFI20:
 1130              		.cfi_restore_state
 1131              		.loc 2 288 0 discriminator 1
 1132 0068 813F0000 		lwz 9,0(31)
 1133 006c 7FE3FB78 		mr 3,31
 1134 0070 80090010 		lwz 0,16(9)
 1135 0074 7C0903A6 		mtctr 0
 1136 0078 4E800421 		bctrl
 1137              		.loc 2 290 0 discriminator 1
 1138 007c 801F0024 		lwz 0,36(31)
 1139 0080 7C030214 		add 0,3,0
 1140 0084 7F9E0000 		cmpw 7,30,0
 1141 0088 409CFFBC 		bge+ 7,.L63
 1142              		.loc 2 289 0 discriminator 3
 1143 008c 813F0000 		lwz 9,0(31)
 1144 0090 7FE3FB78 		mr 3,31
 1145 0094 80090014 		lwz 0,20(9)
 1146 0098 7C0903A6 		mtctr 0
 1147 009c 4E800421 		bctrl
 1148              		.loc 2 290 0 discriminator 3
 1149 00a0 7F83E000 		cmpw 7,3,28
 1150 00a4 409CFFA0 		bge+ 7,.L63
 1151              		.loc 2 290 0 is_stmt 0 discriminator 4
 1152 00a8 813F0000 		lwz 9,0(31)
 1153 00ac 7FE3FB78 		mr 3,31
 1154 00b0 80090014 		lwz 0,20(9)
 1155 00b4 7C0903A6 		mtctr 0
 1156 00b8 4E800421 		bctrl
 1157 00bc 801F0028 		lwz 0,40(31)
 1158 00c0 7C030214 		add 0,3,0
 1159              		.loc 2 285 0 is_stmt 1 discriminator 4
 1160 00c4 7F9C0000 		cmpw 7,28,0
 1161 00c8 7FA00026 		mfcr 29
 1162 00cc 57BDEFFE 		rlwinm 29,29,29,1
 1163 00d0 4BFFFF74 		b .L63
 1164              		.cfi_endproc
 1165              	.LFE1512:
 1166              		.size	_ZN10GuiElement8IsInsideEii, .-_ZN10GuiElement8IsInsideEii
 1167              		.section	.text._ZN10GuiElement11SetPositionEii,"axG",@progbits,_ZN10GuiElement11SetPositionEii,com
 1168              		.align 2
 1169              		.weak	_ZN10GuiElement11SetPositionEii
 1170              		.type	_ZN10GuiElement11SetPositionEii, @function
 1171              	_ZN10GuiElement11SetPositionEii:
 1172              	.LFB1513:
 1173              		.loc 2 295 0
 1174              		.cfi_startproc
 1175              	.LVL92:
 1176              		.loc 2 297 0
 1177 0000 9083002C 		stw 4,44(3)
 1178              		.loc 2 299 0
 1179              		.loc 2 298 0
 1180 0004 90A30030 		stw 5,48(3)
 1181              		.loc 2 299 0
 1182 0008 4E800020 		blr
 1183              		.cfi_endproc
 1184              	.LFE1513:
 1185              		.size	_ZN10GuiElement11SetPositionEii, .-_ZN10GuiElement11SetPositionEii
 1186              		.section	.text._ZN10GuiElement11SetPositionEiii,"axG",@progbits,_ZN10GuiElement11SetPositionEiii,c
 1187              		.align 2
 1188              		.weak	_ZN10GuiElement11SetPositionEiii
 1189              		.type	_ZN10GuiElement11SetPositionEiii, @function
 1190              	_ZN10GuiElement11SetPositionEiii:
 1191              	.LFB1514:
 1192              		.loc 2 304 0
 1193              		.cfi_startproc
 1194              	.LVL93:
 1195              		.loc 2 306 0
 1196 0000 9083002C 		stw 4,44(3)
 1197              		.loc 2 309 0
 1198              		.loc 2 307 0
 1199 0004 90A30030 		stw 5,48(3)
 1200              		.loc 2 308 0
 1201 0008 90C30034 		stw 6,52(3)
 1202              		.loc 2 309 0
 1203 000c 4E800020 		blr
 1204              		.cfi_endproc
 1205              	.LFE1514:
 1206              		.size	_ZN10GuiElement11SetPositionEiii, .-_ZN10GuiElement11SetPositionEiii
 1207              		.section	.text._ZN10GuiElement11GetSelectedEv,"axG",@progbits,_ZN10GuiElement11GetSelectedEv,comda
 1208              		.align 2
 1209              		.weak	_ZN10GuiElement11GetSelectedEv
 1210              		.type	_ZN10GuiElement11GetSelectedEv, @function
 1211              	_ZN10GuiElement11GetSelectedEv:
 1212              	.LFB1515:
 1213              		.loc 2 312 0
 1214              		.cfi_startproc
 1215              	.LVL94:
 1216              		.loc 2 312 0
 1217 0000 3860FFFF 		li 3,-1
 1218              	.LVL95:
 1219 0004 4E800020 		blr
 1220              		.cfi_endproc
 1221              	.LFE1515:
 1222              		.size	_ZN10GuiElement11GetSelectedEv, .-_ZN10GuiElement11GetSelectedEv
 1223              		.section	.text._ZN10GuiElement12SetAlignmentEi,"axG",@progbits,_ZN10GuiElement12SetAlignmentEi,com
 1224              		.align 2
 1225              		.weak	_ZN10GuiElement12SetAlignmentEi
 1226              		.type	_ZN10GuiElement12SetAlignmentEi, @function
 1227              	_ZN10GuiElement12SetAlignmentEi:
 1228              	.LFB1516:
 1229              		.loc 2 316 0
 1230              		.cfi_startproc
 1231              	.LVL96:
 1232              		.loc 2 316 0
 1233 0000 90830044 		stw 4,68(3)
 1234 0004 4E800020 		blr
 1235              		.cfi_endproc
 1236              	.LFE1516:
 1237              		.size	_ZN10GuiElement12SetAlignmentEi, .-_ZN10GuiElement12SetAlignmentEi
 1238              		.section	.text._ZNK10GuiElement12GetAlignmentEv,"axG",@progbits,_ZNK10GuiElement12GetAlignmentEv,c
 1239              		.align 2
 1240              		.weak	_ZNK10GuiElement12GetAlignmentEv
 1241              		.type	_ZNK10GuiElement12GetAlignmentEv, @function
 1242              	_ZNK10GuiElement12GetAlignmentEv:
 1243              	.LFB1517:
 1244              		.loc 2 318 0
 1245              		.cfi_startproc
 1246              	.LVL97:
 1247              		.loc 2 318 0
 1248 0000 80630044 		lwz 3,68(3)
 1249              	.LVL98:
 1250 0004 4E800020 		blr
 1251              		.cfi_endproc
 1252              	.LFE1517:
 1253              		.size	_ZNK10GuiElement12GetAlignmentEv, .-_ZNK10GuiElement12GetAlignmentEv
 1254              		.section	".text"
 1255              		.align 2
 1256              		.globl _ZN9Scrollbar4DrawEv
 1257              		.type	_ZN9Scrollbar4DrawEv, @function
 1258              	_ZN9Scrollbar4DrawEv:
 1259              	.LFB1584:
 1260              		.loc 3 447 0
 1261              		.cfi_startproc
 1262              	.LVL99:
 1263 0000 7C0802A6 		mflr 0
 1264 0004 9421FFF0 		stwu 1,-16(1)
 1265              	.LCFI21:
 1266              		.cfi_def_cfa_offset 16
 1267              		.cfi_register 65, 0
 1268 0008 93E1000C 		stw 31,12(1)
 1269 000c 7C7F1B78 		mr 31,3
 1270              		.cfi_offset 31, -4
 1271 0010 90010014 		stw 0,20(1)
 1272              		.loc 3 448 0
 1273 0014 80630108 		lwz 3,264(3)
 1274              	.LVL100:
 1275 0018 81230000 		lwz 9,0(3)
 1276 001c 800900C0 		lwz 0,192(9)
 1277              		.cfi_offset 65, 4
 1278 0020 7C0903A6 		mtctr 0
 1279 0024 4E800421 		bctrl
 1280              		.loc 3 449 0
 1281 0028 807F0100 		lwz 3,256(31)
 1282 002c 81230000 		lwz 9,0(3)
 1283 0030 800900C0 		lwz 0,192(9)
 1284 0034 7C0903A6 		mtctr 0
 1285 0038 4E800421 		bctrl
 1286              		.loc 3 450 0
 1287 003c 807F0104 		lwz 3,260(31)
 1288 0040 81230000 		lwz 9,0(3)
 1289 0044 800900C0 		lwz 0,192(9)
 1290 0048 7C0903A6 		mtctr 0
 1291 004c 4E800421 		bctrl
 1292              		.loc 3 451 0
 1293 0050 807F00F4 		lwz 3,244(31)
 1294 0054 81230000 		lwz 9,0(3)
 1295 0058 800900C0 		lwz 0,192(9)
 1296 005c 7C0903A6 		mtctr 0
 1297 0060 4E800421 		bctrl
 1298              		.loc 3 452 0
 1299 0064 807F00F8 		lwz 3,248(31)
 1300 0068 81230000 		lwz 9,0(3)
 1301 006c 800900C0 		lwz 0,192(9)
 1302 0070 7C0903A6 		mtctr 0
 1303 0074 4E800421 		bctrl
 1304              		.loc 3 453 0
 1305 0078 807F00FC 		lwz 3,252(31)
 1306 007c 81230000 		lwz 9,0(3)
 1307 0080 800900C0 		lwz 0,192(9)
 1308 0084 7C0903A6 		mtctr 0
 1309 0088 4E800421 		bctrl
 1310              		.loc 3 454 0
 1311 008c 801F00EC 		lwz 0,236(31)
 1312 0090 2F800000 		cmpwi 7,0,0
 1313 0094 419C0024 		blt- 7,.L74
 1314              		.loc 3 454 0 is_stmt 0 discriminator 1
 1315 0098 1C000170 		mulli 0,0,368
 1316 009c 3D200000 		lis 9,userInput@ha
 1317 00a0 39290000 		la 9,userInput@l(9)
 1318 00a4 7D290214 		add 9,9,0
 1319 00a8 8129000C 		lwz 9,12(9)
 1320 00ac 800900AC 		lwz 0,172(9)
 1321 00b0 2F800000 		cmpwi 7,0,0
 1322 00b4 409E002C 		bne- 7,.L75
 1323              	.L74:
 1324              		.loc 3 457 0 is_stmt 1
 1325 00b8 813F0000 		lwz 9,0(31)
 1326 00bc 7FE3FB78 		mr 3,31
 1327 00c0 800900C4 		lwz 0,196(9)
 1328 00c4 7C0903A6 		mtctr 0
 1329 00c8 4E800421 		bctrl
 1330              		.loc 3 458 0
 1331 00cc 80010014 		lwz 0,20(1)
 1332 00d0 83E1000C 		lwz 31,12(1)
 1333              	.LVL101:
 1334 00d4 7C0803A6 		mtlr 0
 1335 00d8 38210010 		addi 1,1,16
 1336              		.cfi_remember_state
 1337              	.LCFI22:
 1338              		.cfi_def_cfa_offset 0
 1339              		.cfi_restore 31
 1340 00dc 4E800020 		blr
 1341              	.LVL102:
 1342              	.L75:
 1343              	.LCFI23:
 1344              		.cfi_restore_state
 1345              		.loc 3 455 0
 1346 00e0 807F010C 		lwz 3,268(31)
 1347 00e4 81230000 		lwz 9,0(3)
 1348 00e8 800900C0 		lwz 0,192(9)
 1349 00ec 7C0903A6 		mtctr 0
 1350 00f0 4E800421 		bctrl
 1351              		.loc 3 457 0
 1352 00f4 813F0000 		lwz 9,0(31)
 1353 00f8 7FE3FB78 		mr 3,31
 1354 00fc 800900C4 		lwz 0,196(9)
 1355 0100 7C0903A6 		mtctr 0
 1356 0104 4E800421 		bctrl
 1357              		.loc 3 458 0
 1358 0108 80010014 		lwz 0,20(1)
 1359 010c 83E1000C 		lwz 31,12(1)
 1360              	.LVL103:
 1361 0110 7C0803A6 		mtlr 0
 1362 0114 38210010 		addi 1,1,16
 1363              		.cfi_restore 31
 1364              	.LCFI24:
 1365              		.cfi_def_cfa_offset 0
 1366 0118 4E800020 		blr
 1367              		.cfi_endproc
 1368              	.LFE1584:
 1369              		.size	_ZN9Scrollbar4DrawEv, .-_ZN9Scrollbar4DrawEv
 1370              		.align 2
 1371              		.globl _ZN9Scrollbar9SetBoundsE4RectIiE
 1372              		.type	_ZN9Scrollbar9SetBoundsE4RectIiE, @function
 1373              	_ZN9Scrollbar9SetBoundsE4RectIiE:
 1374              	.LFB1586:
 1375              		.loc 3 474 0
 1376              		.cfi_startproc
 1377              	.LVL104:
 1378 011c 7C0802A6 		mflr 0
 1379 0120 9421FF80 		stwu 1,-128(1)
 1380              	.LCFI25:
 1381              		.cfi_def_cfa_offset 128
 1382              		.cfi_register 65, 0
 1383 0124 93C10078 		stw 30,120(1)
 1384 0128 7C7E1B78 		mr 30,3
 1385              		.cfi_offset 30, -8
 1386              	.LVL105:
 1387 012c 90010084 		stw 0,132(1)
 1388 0130 93E1007C 		stw 31,124(1)
 1389              		.loc 3 474 0
 1390 0134 7C9F2378 		mr 31,4
 1391              		.cfi_offset 31, -4
 1392              		.cfi_offset 65, 4
 1393              		.loc 3 476 0
 1394 0138 80630100 		lwz 3,256(3)
 1395              	.LVL106:
 1396              	.LBB2422:
 1397              	.LBB2423:
 1398              		.file 5 "d:/Projects/SaveGameManager/savegame-manager-gx/trunk/source/GUI/../Tools/Rect.h"
 1399              		.loc 5 13 0
 1400 013c 81440000 		lwz 10,0(4)
 1401 0140 81240004 		lwz 9,4(4)
 1402 0144 81640008 		lwz 11,8(4)
 1403 0148 8004000C 		lwz 0,12(4)
 1404              	.LBE2423:
 1405              	.LBE2422:
 1406              		.loc 3 476 0
 1407 014c 80E30000 		lwz 7,0(3)
 1408              	.LBB2424:
 1409              	.LBB2425:
 1410              	.LBB2426:
 1411              		.loc 5 30 0
 1412 0150 915E0050 		stw 10,80(30)
 1413              		.loc 5 32 0
 1414 0154 913E0054 		stw 9,84(30)
 1415              		.loc 5 33 0
 1416 0158 901E005C 		stw 0,92(30)
 1417              		.loc 5 31 0
 1418 015c 917E0058 		stw 11,88(30)
 1419              	.LBE2426:
 1420              	.LBE2425:
 1421              	.LBE2424:
 1422              	.LBB2427:
 1423              	.LBB2428:
 1424              		.loc 5 13 0
 1425 0160 81040000 		lwz 8,0(4)
 1426 0164 81440004 		lwz 10,4(4)
 1427 0168 81640008 		lwz 11,8(4)
 1428 016c 8124000C 		lwz 9,12(4)
 1429              	.LBE2428:
 1430              	.LBE2427:
 1431              		.loc 3 476 0
 1432 0170 38810068 		addi 4,1,104
 1433              	.LVL107:
 1434 0174 800700A0 		lwz 0,160(7)
 1435              	.LVL108:
 1436              	.LBB2431:
 1437              	.LBB2429:
 1438              		.loc 5 13 0
 1439 0178 91010068 		stw 8,104(1)
 1440 017c 9141006C 		stw 10,108(1)
 1441              	.LBE2429:
 1442              	.LBE2431:
 1443              		.loc 3 476 0
 1444 0180 7C0903A6 		mtctr 0
 1445              	.LBB2432:
 1446              	.LBB2430:
 1447              		.loc 5 13 0
 1448 0184 91610070 		stw 11,112(1)
 1449 0188 91210074 		stw 9,116(1)
 1450              	.LBE2430:
 1451              	.LBE2432:
 1452              		.loc 3 476 0
 1453 018c 4E800421 		bctrl
 1454              	.LVL109:
 1455              		.loc 3 477 0
 1456 0190 807E0104 		lwz 3,260(30)
 1457              	.LBB2433:
 1458              	.LBB2434:
 1459              		.loc 5 13 0
 1460 0194 811F0000 		lwz 8,0(31)
 1461              	.LBE2434:
 1462              	.LBE2433:
 1463              		.loc 3 477 0
 1464 0198 38810058 		addi 4,1,88
 1465 019c 80E30000 		lwz 7,0(3)
 1466              	.LBB2438:
 1467              	.LBB2435:
 1468              		.loc 5 13 0
 1469 01a0 815F0004 		lwz 10,4(31)
 1470 01a4 817F0008 		lwz 11,8(31)
 1471 01a8 813F000C 		lwz 9,12(31)
 1472              	.LBE2435:
 1473              	.LBE2438:
 1474              		.loc 3 477 0
 1475 01ac 800700A0 		lwz 0,160(7)
 1476              	.LVL110:
 1477              	.LBB2439:
 1478              	.LBB2436:
 1479              		.loc 5 13 0
 1480 01b0 91010058 		stw 8,88(1)
 1481 01b4 9141005C 		stw 10,92(1)
 1482              	.LBE2436:
 1483              	.LBE2439:
 1484              		.loc 3 477 0
 1485 01b8 7C0903A6 		mtctr 0
 1486              	.LBB2440:
 1487              	.LBB2437:
 1488              		.loc 5 13 0
 1489 01bc 91610060 		stw 11,96(1)
 1490 01c0 91210064 		stw 9,100(1)
 1491              	.LBE2437:
 1492              	.LBE2440:
 1493              		.loc 3 477 0
 1494 01c4 4E800421 		bctrl
 1495              	.LVL111:
 1496              		.loc 3 478 0
 1497 01c8 807E0108 		lwz 3,264(30)
 1498              	.LBB2441:
 1499              	.LBB2442:
 1500              		.loc 5 13 0
 1501 01cc 811F0000 		lwz 8,0(31)
 1502              	.LBE2442:
 1503              	.LBE2441:
 1504              		.loc 3 478 0
 1505 01d0 38810048 		addi 4,1,72
 1506 01d4 80E30000 		lwz 7,0(3)
 1507              	.LBB2446:
 1508              	.LBB2443:
 1509              		.loc 5 13 0
 1510 01d8 815F0004 		lwz 10,4(31)
 1511 01dc 817F0008 		lwz 11,8(31)
 1512 01e0 813F000C 		lwz 9,12(31)
 1513              	.LBE2443:
 1514              	.LBE2446:
 1515              		.loc 3 478 0
 1516 01e4 800700A0 		lwz 0,160(7)
 1517              	.LVL112:
 1518              	.LBB2447:
 1519              	.LBB2444:
 1520              		.loc 5 13 0
 1521 01e8 91010048 		stw 8,72(1)
 1522 01ec 9141004C 		stw 10,76(1)
 1523              	.LBE2444:
 1524              	.LBE2447:
 1525              		.loc 3 478 0
 1526 01f0 7C0903A6 		mtctr 0
 1527              	.LBB2448:
 1528              	.LBB2445:
 1529              		.loc 5 13 0
 1530 01f4 91610050 		stw 11,80(1)
 1531 01f8 91210054 		stw 9,84(1)
 1532              	.LBE2445:
 1533              	.LBE2448:
 1534              		.loc 3 478 0
 1535 01fc 4E800421 		bctrl
 1536              	.LVL113:
 1537              		.loc 3 479 0
 1538 0200 807E010C 		lwz 3,268(30)
 1539              	.LBB2449:
 1540              	.LBB2450:
 1541              		.loc 5 13 0
 1542 0204 811F0000 		lwz 8,0(31)
 1543              	.LBE2450:
 1544              	.LBE2449:
 1545              		.loc 3 479 0
 1546 0208 38810038 		addi 4,1,56
 1547 020c 80E30000 		lwz 7,0(3)
 1548              	.LBB2454:
 1549              	.LBB2451:
 1550              		.loc 5 13 0
 1551 0210 815F0004 		lwz 10,4(31)
 1552 0214 817F0008 		lwz 11,8(31)
 1553 0218 813F000C 		lwz 9,12(31)
 1554              	.LBE2451:
 1555              	.LBE2454:
 1556              		.loc 3 479 0
 1557 021c 800700A0 		lwz 0,160(7)
 1558              	.LVL114:
 1559              	.LBB2455:
 1560              	.LBB2452:
 1561              		.loc 5 13 0
 1562 0220 91010038 		stw 8,56(1)
 1563 0224 9141003C 		stw 10,60(1)
 1564              	.LBE2452:
 1565              	.LBE2455:
 1566              		.loc 3 479 0
 1567 0228 7C0903A6 		mtctr 0
 1568              	.LBB2456:
 1569              	.LBB2453:
 1570              		.loc 5 13 0
 1571 022c 91610040 		stw 11,64(1)
 1572 0230 91210044 		stw 9,68(1)
 1573              	.LBE2453:
 1574              	.LBE2456:
 1575              		.loc 3 479 0
 1576 0234 4E800421 		bctrl
 1577              	.LVL115:
 1578              		.loc 3 480 0
 1579 0238 807E00F4 		lwz 3,244(30)
 1580              	.LBB2457:
 1581              	.LBB2458:
 1582              		.loc 5 13 0
 1583 023c 811F0000 		lwz 8,0(31)
 1584              	.LBE2458:
 1585              	.LBE2457:
 1586              		.loc 3 480 0
 1587 0240 38810028 		addi 4,1,40
 1588 0244 80E30000 		lwz 7,0(3)
 1589              	.LBB2462:
 1590              	.LBB2459:
 1591              		.loc 5 13 0
 1592 0248 815F0004 		lwz 10,4(31)
 1593 024c 817F0008 		lwz 11,8(31)
 1594 0250 813F000C 		lwz 9,12(31)
 1595              	.LBE2459:
 1596              	.LBE2462:
 1597              		.loc 3 480 0
 1598 0254 800700A0 		lwz 0,160(7)
 1599              	.LVL116:
 1600              	.LBB2463:
 1601              	.LBB2460:
 1602              		.loc 5 13 0
 1603 0258 91010028 		stw 8,40(1)
 1604 025c 9141002C 		stw 10,44(1)
 1605              	.LBE2460:
 1606              	.LBE2463:
 1607              		.loc 3 480 0
 1608 0260 7C0903A6 		mtctr 0
 1609              	.LBB2464:
 1610              	.LBB2461:
 1611              		.loc 5 13 0
 1612 0264 91610030 		stw 11,48(1)
 1613 0268 91210034 		stw 9,52(1)
 1614              	.LBE2461:
 1615              	.LBE2464:
 1616              		.loc 3 480 0
 1617 026c 4E800421 		bctrl
 1618              	.LVL117:
 1619              		.loc 3 481 0
 1620 0270 807E00F8 		lwz 3,248(30)
 1621              	.LBB2465:
 1622              	.LBB2466:
 1623              		.loc 5 13 0
 1624 0274 811F0000 		lwz 8,0(31)
 1625              	.LBE2466:
 1626              	.LBE2465:
 1627              		.loc 3 481 0
 1628 0278 38810018 		addi 4,1,24
 1629 027c 80E30000 		lwz 7,0(3)
 1630              	.LBB2470:
 1631              	.LBB2467:
 1632              		.loc 5 13 0
 1633 0280 815F0004 		lwz 10,4(31)
 1634 0284 817F0008 		lwz 11,8(31)
 1635 0288 813F000C 		lwz 9,12(31)
 1636              	.LBE2467:
 1637              	.LBE2470:
 1638              		.loc 3 481 0
 1639 028c 800700A0 		lwz 0,160(7)
 1640              	.LVL118:
 1641              	.LBB2471:
 1642              	.LBB2468:
 1643              		.loc 5 13 0
 1644 0290 91010018 		stw 8,24(1)
 1645 0294 9141001C 		stw 10,28(1)
 1646              	.LBE2468:
 1647              	.LBE2471:
 1648              		.loc 3 481 0
 1649 0298 7C0903A6 		mtctr 0
 1650              	.LBB2472:
 1651              	.LBB2469:
 1652              		.loc 5 13 0
 1653 029c 91610020 		stw 11,32(1)
 1654 02a0 91210024 		stw 9,36(1)
 1655              	.LBE2469:
 1656              	.LBE2472:
 1657              		.loc 3 481 0
 1658 02a4 4E800421 		bctrl
 1659              	.LVL119:
 1660              		.loc 3 482 0
 1661 02a8 807E00FC 		lwz 3,252(30)
 1662              	.LBB2473:
 1663              	.LBB2474:
 1664              		.loc 5 13 0
 1665 02ac 811F0000 		lwz 8,0(31)
 1666              	.LBE2474:
 1667              	.LBE2473:
 1668              		.loc 3 482 0
 1669 02b0 38810008 		addi 4,1,8
 1670 02b4 80E30000 		lwz 7,0(3)
 1671              	.LBB2478:
 1672              	.LBB2475:
 1673              		.loc 5 13 0
 1674 02b8 815F0004 		lwz 10,4(31)
 1675 02bc 817F0008 		lwz 11,8(31)
 1676 02c0 813F000C 		lwz 9,12(31)
 1677              	.LBE2475:
 1678              	.LBE2478:
 1679              		.loc 3 482 0
 1680 02c4 800700A0 		lwz 0,160(7)
 1681              	.LVL120:
 1682              	.LBB2479:
 1683              	.LBB2476:
 1684              		.loc 5 13 0
 1685 02c8 91010008 		stw 8,8(1)
 1686 02cc 9141000C 		stw 10,12(1)
 1687              	.LBE2476:
 1688              	.LBE2479:
 1689              		.loc 3 482 0
 1690 02d0 7C0903A6 		mtctr 0
 1691              	.LBB2480:
 1692              	.LBB2477:
 1693              		.loc 5 13 0
 1694 02d4 91610010 		stw 11,16(1)
 1695 02d8 91210014 		stw 9,20(1)
 1696              	.LBE2477:
 1697              	.LBE2480:
 1698              		.loc 3 482 0
 1699 02dc 4E800421 		bctrl
 1700              	.LVL121:
 1701              		.loc 3 483 0
 1702 02e0 80010084 		lwz 0,132(1)
 1703 02e4 83C10078 		lwz 30,120(1)
 1704              	.LVL122:
 1705 02e8 7C0803A6 		mtlr 0
 1706 02ec 83E1007C 		lwz 31,124(1)
 1707              	.LVL123:
 1708 02f0 38210080 		addi 1,1,128
 1709              	.LCFI26:
 1710              		.cfi_def_cfa_offset 0
 1711              		.cfi_restore 31
 1712              		.cfi_restore 30
 1713 02f4 4E800020 		blr
 1714              		.cfi_endproc
 1715              	.LFE1586:
 1716              		.size	_ZN9Scrollbar9SetBoundsE4RectIiE, .-_ZN9Scrollbar9SetBoundsE4RectIiE
 1717              		.section	.text._ZN7sigslot12_signal_baseINS_15single_threadedEED2Ev,"axG",@progbits,_ZN7sigslot12_
 1718              		.align 2
 1719              		.weak	_ZN7sigslot12_signal_baseINS_15single_threadedEED2Ev
 1720              		.type	_ZN7sigslot12_signal_baseINS_15single_threadedEED2Ev, @function
 1721              	_ZN7sigslot12_signal_baseINS_15single_threadedEED2Ev:
 1722              	.LFB1639:
 1723              		.loc 1 466 0
 1724              		.cfi_startproc
 1725              	.LVL124:
 1726              	.LBB2481:
 1727              	.LBB2482:
 1728              	.LBB2483:
 1729              	.LBB2484:
 1730              		.loc 1 105 0
 1731 0000 3D200000 		lis 9,_ZTVN7sigslot15single_threadedE+8@ha
 1732              	.LBE2484:
 1733              	.LBE2483:
 1734              	.LBE2482:
 1735              	.LBE2481:
 1736              		.loc 1 466 0
 1737              	.LBB2488:
 1738              	.LBB2487:
 1739              	.LBB2486:
 1740              	.LBB2485:
 1741              		.loc 1 105 0
 1742 0004 38090008 		la 0,_ZTVN7sigslot15single_threadedE+8@l(9)
 1743 0008 90030000 		stw 0,0(3)
 1744              	.LBE2485:
 1745              	.LBE2486:
 1746              	.LBE2487:
 1747              	.LBE2488:
 1748              		.loc 1 466 0
 1749 000c 4E800020 		blr
 1750              		.cfi_endproc
 1751              	.LFE1639:
 1752              		.size	_ZN7sigslot12_signal_baseINS_15single_threadedEED2Ev, .-_ZN7sigslot12_signal_baseINS_15singl
 1753              		.section	.text._ZN7sigslot17_connection_base2IiiNS_15single_threadedEED2Ev,"axG",@progbits,_ZN7sig
 1754              		.align 2
 1755              		.weak	_ZN7sigslot17_connection_base2IiiNS_15single_threadedEED2Ev
 1756              		.type	_ZN7sigslot17_connection_base2IiiNS_15single_threadedEED2Ev, @function
 1757              	_ZN7sigslot17_connection_base2IiiNS_15single_threadedEED2Ev:
 1758              	.LFB1766:
 1759              		.loc 1 376 0
 1760              		.cfi_startproc
 1761              	.LVL125:
 1762              	.LBB2489:
 1763              		.loc 1 376 0
 1764 0000 3D200000 		lis 9,_ZTVN7sigslot17_connection_base2IiiNS_15single_threadedEEE+8@ha
 1765              	.LBE2489:
 1766              	.LBB2490:
 1767 0004 38090008 		la 0,_ZTVN7sigslot17_connection_base2IiiNS_15single_threadedEEE+8@l(9)
 1768 0008 90030000 		stw 0,0(3)
 1769              	.LBE2490:
 1770 000c 4E800020 		blr
 1771              		.cfi_endproc
 1772              	.LFE1766:
 1773              		.size	_ZN7sigslot17_connection_base2IiiNS_15single_threadedEED2Ev, .-_ZN7sigslot17_connection_base
 1774              		.section	.text._ZN7sigslot17_connection_base3IP9GuiButtoniRK6_POINTNS_15single_threadedEED2Ev,"axG
 1775              		.align 2
 1776              		.weak	_ZN7sigslot17_connection_base3IP9GuiButtoniRK6_POINTNS_15single_threadedEED2Ev
 1777              		.type	_ZN7sigslot17_connection_base3IP9GuiButtoniRK6_POINTNS_15single_threadedEED2Ev, @function
 1778              	_ZN7sigslot17_connection_base3IP9GuiButtoniRK6_POINTNS_15single_threadedEED2Ev:
 1779              	.LFB1772:
 1780              		.loc 1 387 0
 1781              		.cfi_startproc
 1782              	.LVL126:
 1783              	.LBB2491:
 1784              		.loc 1 387 0
 1785 0000 3D200000 		lis 9,_ZTVN7sigslot17_connection_base3IP9GuiButtoniRK6_POINTNS_15single_threadedEEE+8@ha
 1786              	.LBE2491:
 1787              	.LBB2492:
 1788 0004 38090008 		la 0,_ZTVN7sigslot17_connection_base3IP9GuiButtoniRK6_POINTNS_15single_threadedEEE+8@l(9)
 1789 0008 90030000 		stw 0,0(3)
 1790              	.LBE2492:
 1791 000c 4E800020 		blr
 1792              		.cfi_endproc
 1793              	.LFE1772:
 1794              		.size	_ZN7sigslot17_connection_base3IP9GuiButtoniRK6_POINTNS_15single_threadedEED2Ev, .-_ZN7sigslo
 1795              		.section	.text._ZN7sigslot12_connection3I9ScrollbarP9GuiButtoniRK6_POINTNS_15single_threadedEED2Ev
 1796              		.align 2
 1797              		.weak	_ZN7sigslot12_connection3I9ScrollbarP9GuiButtoniRK6_POINTNS_15single_threadedEED2Ev
 1798              		.type	_ZN7sigslot12_connection3I9ScrollbarP9GuiButtoniRK6_POINTNS_15single_threadedEED2Ev, @functi
 1799              	_ZN7sigslot12_connection3I9ScrollbarP9GuiButtoniRK6_POINTNS_15single_threadedEED2Ev:
 1800              	.LFB2054:
 1801              		.loc 1 1783 0
 1802              		.cfi_startproc
 1803              	.LVL127:
 1804              	.LBB2493:
 1805              	.LBB2494:
 1806              	.LBB2495:
 1807              	.LBB2496:
 1808              		.loc 1 387 0
 1809 0000 3D200000 		lis 9,_ZTVN7sigslot17_connection_base3IP9GuiButtoniRK6_POINTNS_15single_threadedEEE+8@ha
 1810              	.LBE2496:
 1811              	.LBE2495:
 1812              	.LBE2494:
 1813              	.LBE2493:
 1814              		.loc 1 1786 0
 1815              	.LBB2500:
 1816              	.LBB2499:
 1817              	.LBB2498:
 1818              	.LBB2497:
 1819              		.loc 1 387 0
 1820 0004 38090008 		la 0,_ZTVN7sigslot17_connection_base3IP9GuiButtoniRK6_POINTNS_15single_threadedEEE+8@l(9)
 1821 0008 90030000 		stw 0,0(3)
 1822              	.LBE2497:
 1823              	.LBE2498:
 1824              	.LBE2499:
 1825              	.LBE2500:
 1826              		.loc 1 1786 0
 1827 000c 4E800020 		blr
 1828              		.cfi_endproc
 1829              	.LFE2054:
 1830              		.size	_ZN7sigslot12_connection3I9ScrollbarP9GuiButtoniRK6_POINTNS_15single_threadedEED2Ev, .-_ZN7s
 1831              		.section	.text._ZNK7sigslot12_connection3I9ScrollbarP9GuiButtoniRK6_POINTNS_15single_threadedEE7ge
 1832              		.align 2
 1833              		.weak	_ZNK7sigslot12_connection3I9ScrollbarP9GuiButtoniRK6_POINTNS_15single_threadedEE7getdestEv
 1834              		.type	_ZNK7sigslot12_connection3I9ScrollbarP9GuiButtoniRK6_POINTNS_15single_threadedEE7getdestEv, 
 1835              	_ZNK7sigslot12_connection3I9ScrollbarP9GuiButtoniRK6_POINTNS_15single_threadedEE7getdestEv:
 1836              	.LFB2057:
 1837              		.loc 1 1804 0
 1838              		.cfi_startproc
 1839              	.LVL128:
 1840              		.loc 1 1806 0
 1841 0000 81230004 		lwz 9,4(3)
 1842 0004 38600000 		li 3,0
 1843              	.LVL129:
 1844 0008 2F890000 		cmpwi 7,9,0
 1845 000c 4D9E0020 		beqlr- 7
 1846              		.loc 1 1806 0 is_stmt 0 discriminator 1
 1847 0010 38690090 		addi 3,9,144
 1848              		.loc 1 1807 0 is_stmt 1 discriminator 1
 1849 0014 4E800020 		blr
 1850              		.cfi_endproc
 1851              	.LFE2057:
 1852              		.size	_ZNK7sigslot12_connection3I9ScrollbarP9GuiButtoniRK6_POINTNS_15single_threadedEE7getdestEv, 
 1853              		.section	.text._ZN7sigslot12_connection3I9ScrollbarP9GuiButtoniRK6_POINTNS_15single_threadedEE4emi
 1854              		.align 2
 1855              		.weak	_ZN7sigslot12_connection3I9ScrollbarP9GuiButtoniRK6_POINTNS_15single_threadedEE4emitES3_iS6_
 1856              		.type	_ZN7sigslot12_connection3I9ScrollbarP9GuiButtoniRK6_POINTNS_15single_threadedEE4emitES3_iS6_
 1857              	_ZN7sigslot12_connection3I9ScrollbarP9GuiButtoniRK6_POINTNS_15single_threadedEE4emitES3_iS6_:
 1858              	.LFB2058:
 1859              		.loc 1 1799 0
 1860              		.cfi_startproc
 1861              	.LVL130:
 1862 0000 7C0802A6 		mflr 0
 1863 0004 9421FFF8 		stwu 1,-8(1)
 1864              	.LCFI27:
 1865              		.cfi_def_cfa_offset 8
 1866              		.cfi_register 65, 0
 1867 0008 9001000C 		stw 0,12(1)
 1868              		.loc 1 1801 0
 1869 000c 80030008 		lwz 0,8(3)
 1870              		.cfi_offset 65, 4
 1871 0010 81630004 		lwz 11,4(3)
 1872 0014 70090001 		andi. 9,0,1
 1873 0018 8123000C 		lwz 9,12(3)
 1874 001c 40820020 		bne- 0,.L99
 1875 0020 7C0903A6 		mtctr 0
 1876 0024 7C6B4A14 		add 3,11,9
 1877              	.LVL131:
 1878 0028 4E800421 		bctrl
 1879              	.LVL132:
 1880              		.loc 1 1802 0
 1881 002c 8001000C 		lwz 0,12(1)
 1882 0030 38210008 		addi 1,1,8
 1883              		.cfi_remember_state
 1884              	.LCFI28:
 1885              		.cfi_def_cfa_offset 0
 1886 0034 7C0803A6 		mtlr 0
 1887 0038 4E800020 		blr
 1888              	.LVL133:
 1889              	.L99:
 1890              	.LCFI29:
 1891              		.cfi_restore_state
 1892              		.loc 1 1801 0 discriminator 1
 1893 003c 7D4B482E 		lwzx 10,11,9
 1894 0040 7C6B4A14 		add 3,11,9
 1895              	.LVL134:
 1896 0044 7D2A0214 		add 9,10,0
 1897 0048 8009FFFF 		lwz 0,-1(9)
 1898 004c 7C0903A6 		mtctr 0
 1899 0050 4E800421 		bctrl
 1900              	.LVL135:
 1901              		.loc 1 1802 0 discriminator 1
 1902 0054 8001000C 		lwz 0,12(1)
 1903 0058 38210008 		addi 1,1,8
 1904              	.LCFI30:
 1905              		.cfi_def_cfa_offset 0
 1906 005c 7C0803A6 		mtlr 0
 1907 0060 4E800020 		blr
 1908              		.cfi_endproc
 1909              	.LFE2058:
 1910              		.size	_ZN7sigslot12_connection3I9ScrollbarP9GuiButtoniRK6_POINTNS_15single_threadedEE4emitES3_iS6_
 1911              		.section	.text._ZN7sigslot12_connection2I9ScrollbariiNS_15single_threadedEED2Ev,"axG",@progbits,_Z
 1912              		.align 2
 1913              		.weak	_ZN7sigslot12_connection2I9ScrollbariiNS_15single_threadedEED2Ev
 1914              		.type	_ZN7sigslot12_connection2I9ScrollbariiNS_15single_threadedEED2Ev, @function
 1915              	_ZN7sigslot12_connection2I9ScrollbariiNS_15single_threadedEED2Ev:
 1916              	.LFB2068:
 1917              		.loc 1 1735 0
 1918              		.cfi_startproc
 1919              	.LVL136:
 1920              	.LBB2501:
 1921              	.LBB2502:
 1922              	.LBB2503:
 1923              	.LBB2504:
 1924              		.loc 1 376 0
 1925 0000 3D200000 		lis 9,_ZTVN7sigslot17_connection_base2IiiNS_15single_threadedEEE+8@ha
 1926              	.LBE2504:
 1927              	.LBE2503:
 1928              	.LBE2502:
 1929              	.LBE2501:
 1930              		.loc 1 1738 0
 1931              	.LBB2508:
 1932              	.LBB2507:
 1933              	.LBB2506:
 1934              	.LBB2505:
 1935              		.loc 1 376 0
 1936 0004 38090008 		la 0,_ZTVN7sigslot17_connection_base2IiiNS_15single_threadedEEE+8@l(9)
 1937 0008 90030000 		stw 0,0(3)
 1938              	.LBE2505:
 1939              	.LBE2506:
 1940              	.LBE2507:
 1941              	.LBE2508:
 1942              		.loc 1 1738 0
 1943 000c 4E800020 		blr
 1944              		.cfi_endproc
 1945              	.LFE2068:
 1946              		.size	_ZN7sigslot12_connection2I9ScrollbariiNS_15single_threadedEED2Ev, .-_ZN7sigslot12_connection
 1947              		.section	.text._ZNK7sigslot12_connection2I9ScrollbariiNS_15single_threadedEE7getdestEv,"axG",@prog
 1948              		.align 2
 1949              		.weak	_ZNK7sigslot12_connection2I9ScrollbariiNS_15single_threadedEE7getdestEv
 1950              		.type	_ZNK7sigslot12_connection2I9ScrollbariiNS_15single_threadedEE7getdestEv, @function
 1951              	_ZNK7sigslot12_connection2I9ScrollbariiNS_15single_threadedEE7getdestEv:
 1952              	.LFB2071:
 1953              		.loc 1 1756 0
 1954              		.cfi_startproc
 1955              	.LVL137:
 1956              		.loc 1 1758 0
 1957 0000 81230004 		lwz 9,4(3)
 1958 0004 38600000 		li 3,0
 1959              	.LVL138:
 1960 0008 2F890000 		cmpwi 7,9,0
 1961 000c 4D9E0020 		beqlr- 7
 1962              		.loc 1 1758 0 is_stmt 0 discriminator 1
 1963 0010 38690090 		addi 3,9,144
 1964              		.loc 1 1759 0 is_stmt 1 discriminator 1
 1965 0014 4E800020 		blr
 1966              		.cfi_endproc
 1967              	.LFE2071:
 1968              		.size	_ZNK7sigslot12_connection2I9ScrollbariiNS_15single_threadedEE7getdestEv, .-_ZNK7sigslot12_co
 1969              		.section	.text._ZN7sigslot12_connection2I9ScrollbariiNS_15single_threadedEE4emitEii,"axG",@progbit
 1970              		.align 2
 1971              		.weak	_ZN7sigslot12_connection2I9ScrollbariiNS_15single_threadedEE4emitEii
 1972              		.type	_ZN7sigslot12_connection2I9ScrollbariiNS_15single_threadedEE4emitEii, @function
 1973              	_ZN7sigslot12_connection2I9ScrollbariiNS_15single_threadedEE4emitEii:
 1974              	.LFB2072:
 1975              		.loc 1 1751 0
 1976              		.cfi_startproc
 1977              	.LVL139:
 1978 0000 7C0802A6 		mflr 0
 1979 0004 9421FFF8 		stwu 1,-8(1)
 1980              	.LCFI31:
 1981              		.cfi_def_cfa_offset 8
 1982              		.cfi_register 65, 0
 1983 0008 9001000C 		stw 0,12(1)
 1984              		.loc 1 1753 0
 1985 000c 80030008 		lwz 0,8(3)
 1986              		.cfi_offset 65, 4
 1987 0010 81630004 		lwz 11,4(3)
 1988 0014 70090001 		andi. 9,0,1
 1989 0018 8123000C 		lwz 9,12(3)
 1990 001c 40820020 		bne- 0,.L108
 1991 0020 7C0903A6 		mtctr 0
 1992 0024 7C6B4A14 		add 3,11,9
 1993              	.LVL140:
 1994 0028 4E800421 		bctrl
 1995              	.LVL141:
 1996              		.loc 1 1754 0
 1997 002c 8001000C 		lwz 0,12(1)
 1998 0030 38210008 		addi 1,1,8
 1999              		.cfi_remember_state
 2000              	.LCFI32:
 2001              		.cfi_def_cfa_offset 0
 2002 0034 7C0803A6 		mtlr 0
 2003 0038 4E800020 		blr
 2004              	.LVL142:
 2005              	.L108:
 2006              	.LCFI33:
 2007              		.cfi_restore_state
 2008              		.loc 1 1753 0 discriminator 1
 2009 003c 7D4B482E 		lwzx 10,11,9
 2010 0040 7C6B4A14 		add 3,11,9
 2011              	.LVL143:
 2012 0044 7D2A0214 		add 9,10,0
 2013 0048 8009FFFF 		lwz 0,-1(9)
 2014 004c 7C0903A6 		mtctr 0
 2015 0050 4E800421 		bctrl
 2016              	.LVL144:
 2017              		.loc 1 1754 0 discriminator 1
 2018 0054 8001000C 		lwz 0,12(1)
 2019 0058 38210008 		addi 1,1,8
 2020              	.LCFI34:
 2021              		.cfi_def_cfa_offset 0
 2022 005c 7C0803A6 		mtlr 0
 2023 0060 4E800020 		blr
 2024              		.cfi_endproc
 2025              	.LFE2072:
 2026              		.size	_ZN7sigslot12_connection2I9ScrollbariiNS_15single_threadedEE4emitEii, .-_ZN7sigslot12_connec
 2027              		.section	.text._ZN7sigslot12_connection2I9ScrollbariiNS_15single_threadedEE9duplicateEPNS_9has_slo
 2028              		.align 2
 2029              		.weak	_ZN7sigslot12_connection2I9ScrollbariiNS_15single_threadedEE9duplicateEPNS_9has_slotsIS2_EE
 2030              		.type	_ZN7sigslot12_connection2I9ScrollbariiNS_15single_threadedEE9duplicateEPNS_9has_slotsIS2_EE,
 2031              	_ZN7sigslot12_connection2I9ScrollbariiNS_15single_threadedEE9duplicateEPNS_9has_slotsIS2_EE:
 2032              	.LFB2080:
 2033              		.loc 1 1746 0
 2034              		.cfi_startproc
 2035              	.LVL145:
 2036 0000 9421FFF0 		stwu 1,-16(1)
 2037              	.LCFI35:
 2038              		.cfi_def_cfa_offset 16
 2039 0004 7C0802A6 		mflr 0
 2040 0008 93C10008 		stw 30,8(1)
 2041 000c 7C9E2378 		mr 30,4
 2042              		.cfi_offset 30, -8
 2043              		.cfi_register 65, 0
 2044 0010 93E1000C 		stw 31,12(1)
 2045 0014 7C7F1B78 		mr 31,3
 2046              		.cfi_offset 31, -4
 2047              		.loc 1 1748 0
 2048 0018 38600010 		li 3,16
 2049              	.LVL146:
 2050              		.loc 1 1746 0
 2051 001c 90010014 		stw 0,20(1)
 2052              		.loc 1 1748 0
 2053              		.cfi_offset 65, 4
 2054 0020 48000001 		bl _Znwj
 2055              	.LVL147:
 2056 0024 2F9E0000 		cmpwi 7,30,0
 2057 0028 38000000 		li 0,0
 2058 002c 419E0008 		beq- 7,.L111
 2059              		.loc 1 1748 0 is_stmt 0 discriminator 1
 2060 0030 381EFF70 		addi 0,30,-144
 2061              	.L111:
 2062              	.LVL148:
 2063              		.loc 1 1748 0 discriminator 3
 2064 0034 817F0008 		lwz 11,8(31)
 2065              	.LVL149:
 2066              	.LBB2509:
 2067              	.LBB2510:
 2068              		.loc 1 1730 0 is_stmt 1 discriminator 3
 2069 0038 3D400000 		lis 10,_ZTVN7sigslot12_connection2I9ScrollbariiNS_15single_threadedEEE+8@ha
 2070              	.LBE2510:
 2071              	.LBE2509:
 2072              		.loc 1 1748 0 discriminator 3
 2073 003c 813F000C 		lwz 9,12(31)
 2074              	.LVL150:
 2075              	.LBB2513:
 2076              	.LBB2511:
 2077              		.loc 1 1730 0 discriminator 3
 2078 0040 394A0008 		la 10,_ZTVN7sigslot12_connection2I9ScrollbariiNS_15single_threadedEEE+8@l(10)
 2079              		.loc 1 1732 0 discriminator 3
 2080 0044 91630008 		stw 11,8(3)
 2081 0048 9123000C 		stw 9,12(3)
 2082              		.loc 1 1731 0 discriminator 3
 2083 004c 90030004 		stw 0,4(3)
 2084              	.LBE2511:
 2085              	.LBE2513:
 2086              		.loc 1 1749 0 discriminator 3
 2087 0050 80010014 		lwz 0,20(1)
 2088              	.LVL151:
 2089 0054 83C10008 		lwz 30,8(1)
 2090              	.LVL152:
 2091 0058 7C0803A6 		mtlr 0
 2092 005c 83E1000C 		lwz 31,12(1)
 2093              	.LVL153:
 2094              	.LBB2514:
 2095              	.LBB2512:
 2096              		.loc 1 1730 0 discriminator 3
 2097 0060 91430000 		stw 10,0(3)
 2098              	.LBE2512:
 2099              	.LBE2514:
 2100              		.loc 1 1749 0 discriminator 3
 2101 0064 38210010 		addi 1,1,16
 2102              	.LCFI36:
 2103              		.cfi_def_cfa_offset 0
 2104              		.cfi_restore 31
 2105              		.cfi_restore 30
 2106 0068 4E800020 		blr
 2107              		.cfi_endproc
 2108              	.LFE2080:
 2109              		.size	_ZN7sigslot12_connection2I9ScrollbariiNS_15single_threadedEE9duplicateEPNS_9has_slotsIS2_EE,
 2110              		.section	.text._ZN7sigslot12_connection3I9ScrollbarP9GuiButtoniRK6_POINTNS_15single_threadedEE9dup
 2111              		.align 2
 2112              		.weak	_ZN7sigslot12_connection3I9ScrollbarP9GuiButtoniRK6_POINTNS_15single_threadedEE9duplicateEPN
 2113              		.type	_ZN7sigslot12_connection3I9ScrollbarP9GuiButtoniRK6_POINTNS_15single_threadedEE9duplicateEPN
 2114              	_ZN7sigslot12_connection3I9ScrollbarP9GuiButtoniRK6_POINTNS_15single_threadedEE9duplicateEPNS_9has_
 2115              	.LFB2066:
 2116              		.loc 1 1794 0
 2117              		.cfi_startproc
 2118              	.LVL154:
 2119 0000 9421FFF0 		stwu 1,-16(1)
 2120              	.LCFI37:
 2121              		.cfi_def_cfa_offset 16
 2122 0004 7C0802A6 		mflr 0
 2123 0008 93C10008 		stw 30,8(1)
 2124 000c 7C9E2378 		mr 30,4
 2125              		.cfi_offset 30, -8
 2126              		.cfi_register 65, 0
 2127 0010 93E1000C 		stw 31,12(1)
 2128 0014 7C7F1B78 		mr 31,3
 2129              		.cfi_offset 31, -4
 2130              		.loc 1 1796 0
 2131 0018 38600010 		li 3,16
 2132              	.LVL155:
 2133              		.loc 1 1794 0
 2134 001c 90010014 		stw 0,20(1)
 2135              		.loc 1 1796 0
 2136              		.cfi_offset 65, 4
 2137 0020 48000001 		bl _Znwj
 2138              	.LVL156:
 2139 0024 2F9E0000 		cmpwi 7,30,0
 2140 0028 38000000 		li 0,0
 2141 002c 419E0008 		beq- 7,.L114
 2142              		.loc 1 1796 0 is_stmt 0 discriminator 1
 2143 0030 381EFF70 		addi 0,30,-144
 2144              	.L114:
 2145              	.LVL157:
 2146              		.loc 1 1796 0 discriminator 3
 2147 0034 817F0008 		lwz 11,8(31)
 2148              	.LVL158:
 2149              	.LBB2515:
 2150              	.LBB2516:
 2151              		.loc 1 1778 0 is_stmt 1 discriminator 3
 2152 0038 3D400000 		lis 10,_ZTVN7sigslot12_connection3I9ScrollbarP9GuiButtoniRK6_POINTNS_15single_threadedEEE+8@ha
 2153              	.LBE2516:
 2154              	.LBE2515:
 2155              		.loc 1 1796 0 discriminator 3
 2156 003c 813F000C 		lwz 9,12(31)
 2157              	.LVL159:
 2158              	.LBB2519:
 2159              	.LBB2517:
 2160              		.loc 1 1778 0 discriminator 3
 2161 0040 394A0008 		la 10,_ZTVN7sigslot12_connection3I9ScrollbarP9GuiButtoniRK6_POINTNS_15single_threadedEEE+8@l(10)
 2162              		.loc 1 1780 0 discriminator 3
 2163 0044 91630008 		stw 11,8(3)
 2164 0048 9123000C 		stw 9,12(3)
 2165              		.loc 1 1779 0 discriminator 3
 2166 004c 90030004 		stw 0,4(3)
 2167              	.LBE2517:
 2168              	.LBE2519:
 2169              		.loc 1 1797 0 discriminator 3
 2170 0050 80010014 		lwz 0,20(1)
 2171              	.LVL160:
 2172 0054 83C10008 		lwz 30,8(1)
 2173              	.LVL161:
 2174 0058 7C0803A6 		mtlr 0
 2175 005c 83E1000C 		lwz 31,12(1)
 2176              	.LVL162:
 2177              	.LBB2520:
 2178              	.LBB2518:
 2179              		.loc 1 1778 0 discriminator 3
 2180 0060 91430000 		stw 10,0(3)
 2181              	.LBE2518:
 2182              	.LBE2520:
 2183              		.loc 1 1797 0 discriminator 3
 2184 0064 38210010 		addi 1,1,16
 2185              	.LCFI38:
 2186              		.cfi_def_cfa_offset 0
 2187              		.cfi_restore 31
 2188              		.cfi_restore 30
 2189 0068 4E800020 		blr
 2190              		.cfi_endproc
 2191              	.LFE2066:
 2192              		.size	_ZN7sigslot12_connection3I9ScrollbarP9GuiButtoniRK6_POINTNS_15single_threadedEE9duplicateEPN
 2193              		.section	.text._ZN7sigslot12_connection3I9ScrollbarP9GuiButtoniRK6_POINTNS_15single_threadedEE5clo
 2194              		.align 2
 2195              		.weak	_ZN7sigslot12_connection3I9ScrollbarP9GuiButtoniRK6_POINTNS_15single_threadedEE5cloneEv
 2196              		.type	_ZN7sigslot12_connection3I9ScrollbarP9GuiButtoniRK6_POINTNS_15single_threadedEE5cloneEv, @fu
 2197              	_ZN7sigslot12_connection3I9ScrollbarP9GuiButtoniRK6_POINTNS_15single_threadedEE5cloneEv:
 2198              	.LFB2059:
 2199              		.loc 1 1789 0
 2200              		.cfi_startproc
 2201              	.LVL163:
 2202 0000 9421FFF0 		stwu 1,-16(1)
 2203              	.LCFI39:
 2204              		.cfi_def_cfa_offset 16
 2205 0004 7C0802A6 		mflr 0
 2206 0008 93E1000C 		stw 31,12(1)
 2207 000c 7C7F1B78 		mr 31,3
 2208              		.cfi_offset 31, -4
 2209              		.cfi_register 65, 0
 2210              		.loc 1 1791 0
 2211 0010 38600010 		li 3,16
 2212              	.LVL164:
 2213              		.loc 1 1789 0
 2214 0014 90010014 		stw 0,20(1)
 2215              		.loc 1 1791 0
 2216              		.cfi_offset 65, 4
 2217 0018 48000001 		bl _Znwj
 2218              		.loc 3 483 0
 2219 001c 801F0004 		lwz 0,4(31)
 2220              	.LVL165:
 2221              	.LBB2521:
 2222              	.LBB2522:
 2223              		.loc 1 1767 0
 2224 0020 3D600000 		lis 11,_ZTVN7sigslot12_connection3I9ScrollbarP9GuiButtoniRK6_POINTNS_15single_threadedEEE+8@ha
 2225 0024 396B0008 		la 11,_ZTVN7sigslot12_connection3I9ScrollbarP9GuiButtoniRK6_POINTNS_15single_threadedEEE+8@l(11)
 2226 0028 90030004 		stw 0,4(3)
 2227 002c 91630000 		stw 11,0(3)
 2228 0030 815F0008 		lwz 10,8(31)
 2229 0034 817F000C 		lwz 11,12(31)
 2230 0038 91430008 		stw 10,8(3)
 2231 003c 9163000C 		stw 11,12(3)
 2232              	.LBE2522:
 2233              	.LBE2521:
 2234              		.loc 1 1792 0
 2235 0040 80010014 		lwz 0,20(1)
 2236 0044 83E1000C 		lwz 31,12(1)
 2237              	.LVL166:
 2238 0048 7C0803A6 		mtlr 0
 2239 004c 38210010 		addi 1,1,16
 2240              	.LCFI40:
 2241              		.cfi_def_cfa_offset 0
 2242              		.cfi_restore 31
 2243 0050 4E800020 		blr
 2244              		.cfi_endproc
 2245              	.LFE2059:
 2246              		.size	_ZN7sigslot12_connection3I9ScrollbarP9GuiButtoniRK6_POINTNS_15single_threadedEE5cloneEv, .-_
 2247              		.section	.text._ZN7sigslot12_connection2I9ScrollbariiNS_15single_threadedEE5cloneEv,"axG",@progbit
 2248              		.align 2
 2249              		.weak	_ZN7sigslot12_connection2I9ScrollbariiNS_15single_threadedEE5cloneEv
 2250              		.type	_ZN7sigslot12_connection2I9ScrollbariiNS_15single_threadedEE5cloneEv, @function
 2251              	_ZN7sigslot12_connection2I9ScrollbariiNS_15single_threadedEE5cloneEv:
 2252              	.LFB2073:
 2253              		.loc 1 1741 0
 2254              		.cfi_startproc
 2255              	.LVL167:
 2256 0000 9421FFF0 		stwu 1,-16(1)
 2257              	.LCFI41:
 2258              		.cfi_def_cfa_offset 16
 2259 0004 7C0802A6 		mflr 0
 2260 0008 93E1000C 		stw 31,12(1)
 2261 000c 7C7F1B78 		mr 31,3
 2262              		.cfi_offset 31, -4
 2263              		.cfi_register 65, 0
 2264              		.loc 1 1743 0
 2265 0010 38600010 		li 3,16
 2266              	.LVL168:
 2267              		.loc 1 1741 0
 2268 0014 90010014 		stw 0,20(1)
 2269              		.loc 1 1743 0
 2270              		.cfi_offset 65, 4
 2271 0018 48000001 		bl _Znwj
 2272              		.loc 3 483 0
 2273 001c 801F0004 		lwz 0,4(31)
 2274              	.LVL169:
 2275              	.LBB2523:
 2276              	.LBB2524:
 2277              		.loc 1 1719 0
 2278 0020 3D600000 		lis 11,_ZTVN7sigslot12_connection2I9ScrollbariiNS_15single_threadedEEE+8@ha
 2279 0024 396B0008 		la 11,_ZTVN7sigslot12_connection2I9ScrollbariiNS_15single_threadedEEE+8@l(11)
 2280 0028 90030004 		stw 0,4(3)
 2281 002c 91630000 		stw 11,0(3)
 2282 0030 815F0008 		lwz 10,8(31)
 2283 0034 817F000C 		lwz 11,12(31)
 2284 0038 91430008 		stw 10,8(3)
 2285 003c 9163000C 		stw 11,12(3)
 2286              	.LBE2524:
 2287              	.LBE2523:
 2288              		.loc 1 1744 0
 2289 0040 80010014 		lwz 0,20(1)
 2290 0044 83E1000C 		lwz 31,12(1)
 2291              	.LVL170:
 2292 0048 7C0803A6 		mtlr 0
 2293 004c 38210010 		addi 1,1,16
 2294              	.LCFI42:
 2295              		.cfi_def_cfa_offset 0
 2296              		.cfi_restore 31
 2297 0050 4E800020 		blr
 2298              		.cfi_endproc
 2299              	.LFE2073:
 2300              		.size	_ZN7sigslot12_connection2I9ScrollbariiNS_15single_threadedEE5cloneEv, .-_ZN7sigslot12_connec
 2301              		.section	.text._ZN7sigslot13_signal_base3IP10GuiElementiiNS_15single_threadedEE14slot_duplicateEPK
 2302              		.align 2
 2303              		.weak	_ZN7sigslot13_signal_base3IP10GuiElementiiNS_15single_threadedEE14slot_duplicateEPKNS_9has_s
 2304              		.type	_ZN7sigslot13_signal_base3IP10GuiElementiiNS_15single_threadedEE14slot_duplicateEPKNS_9has_s
 2305              	_ZN7sigslot13_signal_base3IP10GuiElementiiNS_15single_threadedEE14slot_duplicateEPKNS_9has_slotsIS3
 2306              	.LFB2084:
 2307              		.loc 1 926 0
 2308              		.cfi_startproc
 2309              		.cfi_personality 0,__gxx_personality_v0
 2310              		.cfi_lsda 0,.LLSDA2084
 2311              	.LVL171:
 2312 0000 7C0802A6 		mflr 0
 2313 0004 9421FFE0 		stwu 1,-32(1)
 2314              	.LCFI43:
 2315              		.cfi_def_cfa_offset 32
 2316              		.cfi_register 65, 0
 2317 0008 93410008 		stw 26,8(1)
 2318 000c 7CBA2B78 		mr 26,5
 2319              		.cfi_offset 26, -24
 2320 0010 90010024 		stw 0,36(1)
 2321 0014 9361000C 		stw 27,12(1)
 2322 0018 7C7B1B78 		mr 27,3
 2323              		.cfi_offset 27, -20
 2324              		.cfi_offset 65, 4
 2325              	.LVL172:
 2326              	.LBB2525:
 2327              	.LBB2526:
 2328              	.LBB2527:
 2329              		.loc 1 338 0
 2330 001c 81230000 		lwz 9,0(3)
 2331              	.LBE2527:
 2332              	.LBE2526:
 2333              	.LBE2525:
 2334              		.loc 1 926 0
 2335 0020 93A10014 		stw 29,20(1)
 2336 0024 7C9D2378 		mr 29,4
 2337              		.cfi_offset 29, -12
 2338              	.LBB2556:
 2339              	.LBB2532:
 2340              	.LBB2528:
 2341              		.loc 1 338 0
 2342 0028 80090008 		lwz 0,8(9)
 2343              	.LBE2528:
 2344              	.LBE2532:
 2345              	.LBE2556:
 2346              		.loc 1 926 0
 2347 002c 93C10018 		stw 30,24(1)
 2348              	.LBB2557:
 2349              	.LBB2533:
 2350              	.LBB2529:
 2351              		.loc 3 483 0
 2352 0030 7F7EDB78 		mr 30,27
 2353              		.cfi_offset 30, -8
 2354              	.LBE2529:
 2355              	.LBE2533:
 2356              	.LBE2557:
 2357              		.loc 1 926 0
 2358 0034 93E1001C 		stw 31,28(1)
 2359              	.LBB2558:
 2360              	.LBB2534:
 2361              	.LBB2530:
 2362              		.loc 1 338 0
 2363 0038 7C0903A6 		mtctr 0
 2364              	.LBE2530:
 2365              	.LBE2534:
 2366              	.LBE2558:
 2367              		.loc 1 926 0
 2368 003c 93810010 		stw 28,16(1)
 2369              	.LEHB4:
 2370              	.LBB2559:
 2371              	.LBB2535:
 2372              	.LBB2531:
 2373              		.loc 1 338 0
 2374              		.cfi_offset 28, -16
 2375              		.cfi_offset 31, -4
 2376 0040 4E800421 		bctrl
 2377              	.LEHE4:
 2378              	.LVL173:
 2379              		.loc 3 483 0
 2380 0044 87FE0004 		lwzu 31,4(30)
 2381              	.LVL174:
 2382              	.LBE2531:
 2383              	.LBE2535:
 2384              		.loc 1 932 0
 2385 0048 7F9FF000 		cmpw 7,31,30
 2386 004c 40BE0014 		bne+ 7,.L128
 2387 0050 48000070 		b .L119
 2388              	.LVL175:
 2389              	.L120:
 2390              	.LBB2536:
 2391              	.LBB2537:
 2392              		.loc 4 154 0
 2393 0054 83FF0000 		lwz 31,0(31)
 2394              	.LVL176:
 2395              	.LBE2537:
 2396              	.LBE2536:
 2397              		.loc 1 932 0
 2398 0058 7F9EF800 		cmpw 7,30,31
 2399 005c 419E0064 		beq- 7,.L119
 2400              	.LVL177:
 2401              	.L128:
 2402              		.loc 1 934 0
 2403 0060 807F0008 		lwz 3,8(31)
 2404 0064 81230000 		lwz 9,0(3)
 2405 0068 80090008 		lwz 0,8(9)
 2406 006c 7C0903A6 		mtctr 0
 2407              	.LEHB5:
 2408 0070 4E800421 		bctrl
 2409 0074 7F9D1800 		cmpw 7,29,3
 2410 0078 409EFFDC 		bne+ 7,.L120
 2411              	.LVL178:
 2412              		.loc 1 936 0
 2413 007c 807F0008 		lwz 3,8(31)
 2414 0080 7F44D378 		mr 4,26
 2415 0084 81230000 		lwz 9,0(3)
 2416 0088 80090014 		lwz 0,20(9)
 2417 008c 7C0903A6 		mtctr 0
 2418 0090 4E800421 		bctrl
 2419 0094 7C7C1B78 		mr 28,3
 2420              	.LVL179:
 2421              	.LBB2539:
 2422              	.LBB2540:
 2423              	.LBB2541:
 2424              	.LBB2542:
 2425              	.LBB2543:
 2426              	.LBB2544:
 2427              	.LBB2545:
 2428              	.LBB2546:
 2429              		.file 6 "d:\\devkitpro\\devkitppc\\bin\\../lib/gcc/powerpc-eabi/4.6.3/../../../../powerpc-eabi/inc
 2430              		.loc 6 92 0
 2431 0098 3860000C 		li 3,12
 2432 009c 48000001 		bl _Znwj
 2433              	.LEHE5:
 2434              	.LVL180:
 2435              	.LBE2546:
 2436              	.LBE2545:
 2437              	.LBE2544:
 2438              	.LBB2547:
 2439              	.LBB2548:
 2440              		.loc 6 108 0 discriminator 1
 2441 00a0 2F83FFF8 		cmpwi 7,3,-8
 2442 00a4 419E0008 		beq- 7,.L122
 2443              		.loc 6 108 0 is_stmt 0
 2444 00a8 93830008 		stw 28,8(3)
 2445              	.L122:
 2446              	.LVL181:
 2447              	.LBE2548:
 2448              	.LBE2547:
 2449              	.LBE2543:
 2450              	.LBE2542:
 2451              		.loc 4 1516 0 is_stmt 1
 2452 00ac 7FC4F378 		mr 4,30
 2453 00b0 48000001 		bl _ZNSt8__detail15_List_node_base7_M_hookEPS0_
 2454              	.LVL182:
 2455              	.LBE2541:
 2456              	.LBE2540:
 2457              	.LBE2539:
 2458              	.LBB2549:
 2459              	.LBB2538:
 2460              		.loc 4 154 0
 2461 00b4 83FF0000 		lwz 31,0(31)
 2462              	.LVL183:
 2463              	.LBE2538:
 2464              	.LBE2549:
 2465              		.loc 1 932 0
 2466 00b8 7F9EF800 		cmpw 7,30,31
 2467 00bc 409EFFA4 		bne+ 7,.L128
 2468              	.LVL184:
 2469              	.L119:
 2470              	.LBB2550:
 2471              	.LBB2551:
 2472              	.LBB2552:
 2473              		.loc 1 343 0
 2474 00c0 813B0000 		lwz 9,0(27)
 2475 00c4 7F63DB78 		mr 3,27
 2476 00c8 8009000C 		lwz 0,12(9)
 2477 00cc 7C0903A6 		mtctr 0
 2478              	.LEHB6:
 2479 00d0 4E800421 		bctrl
 2480              	.LEHE6:
 2481              	.LBE2552:
 2482              	.LBE2551:
 2483              	.LBE2550:
 2484              	.LBE2559:
 2485              		.loc 1 941 0
 2486 00d4 80010024 		lwz 0,36(1)
 2487 00d8 83410008 		lwz 26,8(1)
 2488              	.LVL185:
 2489 00dc 7C0803A6 		mtlr 0
 2490 00e0 8361000C 		lwz 27,12(1)
 2491              	.LVL186:
 2492 00e4 83810010 		lwz 28,16(1)
 2493 00e8 83A10014 		lwz 29,20(1)
 2494              	.LVL187:
 2495 00ec 83C10018 		lwz 30,24(1)
 2496              	.LVL188:
 2497 00f0 83E1001C 		lwz 31,28(1)
 2498              	.LVL189:
 2499 00f4 38210020 		addi 1,1,32
 2500              		.cfi_remember_state
 2501              	.LCFI44:
 2502              		.cfi_def_cfa_offset 0
 2503              		.cfi_restore 31
 2504              		.cfi_restore 30
 2505              		.cfi_restore 29
 2506              		.cfi_restore 28
 2507              		.cfi_restore 27
 2508              		.cfi_restore 26
 2509 00f8 4E800020 		blr
 2510              	.LVL190:
 2511              	.L127:
 2512              	.LCFI45:
 2513              		.cfi_restore_state
 2514              	.LBB2560:
 2515              	.LBB2553:
 2516              	.LBB2554:
 2517              	.LBB2555:
 2518              		.loc 1 343 0
 2519 00fc 813B0000 		lwz 9,0(27)
 2520 0100 7C7F1B78 		mr 31,3
 2521              	.LVL191:
 2522 0104 7F63DB78 		mr 3,27
 2523 0108 8009000C 		lwz 0,12(9)
 2524 010c 7C0903A6 		mtctr 0
 2525 0110 4E800421 		bctrl
 2526 0114 7FE3FB78 		mr 3,31
 2527              	.LEHB7:
 2528 0118 48000001 		bl _Unwind_Resume
 2529              	.LEHE7:
 2530              	.LBE2555:
 2531              	.LBE2554:
 2532              	.LBE2553:
 2533              	.LBE2560:
 2534              		.cfi_endproc
 2535              	.LFE2084:
 2536              		.section	.gcc_except_table
 2537              	.LLSDA2084:
 2538 0017 FF       		.byte	0xff
 2539 0018 FF       		.byte	0xff
 2540 0019 01       		.byte	0x1
 2541 001a 13       		.uleb128 .LLSDACSE2084-.LLSDACSB2084
 2542              	.LLSDACSB2084:
 2543 001b 40       		.uleb128 .LEHB4-.LFB2084
 2544 001c 04       		.uleb128 .LEHE4-.LEHB4
 2545 001d 00       		.uleb128 0
 2546 001e 00       		.uleb128 0
 2547 001f 70       		.uleb128 .LEHB5-.LFB2084
 2548 0020 30       		.uleb128 .LEHE5-.LEHB5
 2549 0021 FC01     		.uleb128 .L127-.LFB2084
 2550 0023 00       		.uleb128 0
 2551 0024 D001     		.uleb128 .LEHB6-.LFB2084
 2552 0026 04       		.uleb128 .LEHE6-.LEHB6
 2553 0027 00       		.uleb128 0
 2554 0028 00       		.uleb128 0
 2555 0029 9802     		.uleb128 .LEHB7-.LFB2084
 2556 002b 04       		.uleb128 .LEHE7-.LEHB7
 2557 002c 00       		.uleb128 0
 2558 002d 00       		.uleb128 0
 2559              	.LLSDACSE2084:
 2560              		.section	.text._ZN7sigslot13_signal_base3IP10GuiElementiiNS_15single_threadedEE14slot_duplicateEPK
 2561              		.size	_ZN7sigslot13_signal_base3IP10GuiElementiiNS_15single_threadedEE14slot_duplicateEPKNS_9has_s
 2562              		.section	.text._ZN7sigslot13_signal_base2IP10GuiElementbNS_15single_threadedEE14slot_duplicateEPKN
 2563              		.align 2
 2564              		.weak	_ZN7sigslot13_signal_base2IP10GuiElementbNS_15single_threadedEE14slot_duplicateEPKNS_9has_sl
 2565              		.type	_ZN7sigslot13_signal_base2IP10GuiElementbNS_15single_threadedEE14slot_duplicateEPKNS_9has_sl
 2566              	_ZN7sigslot13_signal_base2IP10GuiElementbNS_15single_threadedEE14slot_duplicateEPKNS_9has_slotsIS3_
 2567              	.LFB2086:
 2568              		.loc 1 806 0
 2569              		.cfi_startproc
 2570              		.cfi_personality 0,__gxx_personality_v0
 2571              		.cfi_lsda 0,.LLSDA2086
 2572              	.LVL192:
 2573 0000 7C0802A6 		mflr 0
 2574 0004 9421FFE0 		stwu 1,-32(1)
 2575              	.LCFI46:
 2576              		.cfi_def_cfa_offset 32
 2577              		.cfi_register 65, 0
 2578 0008 93410008 		stw 26,8(1)
 2579 000c 7CBA2B78 		mr 26,5
 2580              		.cfi_offset 26, -24
 2581 0010 90010024 		stw 0,36(1)
 2582 0014 9361000C 		stw 27,12(1)
 2583 0018 7C7B1B78 		mr 27,3
 2584              		.cfi_offset 27, -20
 2585              		.cfi_offset 65, 4
 2586              	.LVL193:
 2587              	.LBB2561:
 2588              	.LBB2562:
 2589              	.LBB2563:
 2590              		.loc 1 338 0
 2591 001c 81230000 		lwz 9,0(3)
 2592              	.LBE2563:
 2593              	.LBE2562:
 2594              	.LBE2561:
 2595              		.loc 1 806 0
 2596 0020 93A10014 		stw 29,20(1)
 2597 0024 7C9D2378 		mr 29,4
 2598              		.cfi_offset 29, -12
 2599              	.LBB2592:
 2600              	.LBB2568:
 2601              	.LBB2564:
 2602              		.loc 1 338 0
 2603 0028 80090008 		lwz 0,8(9)
 2604              	.LBE2564:
 2605              	.LBE2568:
 2606              	.LBE2592:
 2607              		.loc 1 806 0
 2608 002c 93C10018 		stw 30,24(1)
 2609              	.LBB2593:
 2610              	.LBB2569:
 2611              	.LBB2565:
 2612              		.loc 3 483 0
 2613 0030 7F7EDB78 		mr 30,27
 2614              		.cfi_offset 30, -8
 2615              	.LBE2565:
 2616              	.LBE2569:
 2617              	.LBE2593:
 2618              		.loc 1 806 0
 2619 0034 93E1001C 		stw 31,28(1)
 2620              	.LBB2594:
 2621              	.LBB2570:
 2622              	.LBB2566:
 2623              		.loc 1 338 0
 2624 0038 7C0903A6 		mtctr 0
 2625              	.LBE2566:
 2626              	.LBE2570:
 2627              	.LBE2594:
 2628              		.loc 1 806 0
 2629 003c 93810010 		stw 28,16(1)
 2630              	.LEHB8:
 2631              	.LBB2595:
 2632              	.LBB2571:
 2633              	.LBB2567:
 2634              		.loc 1 338 0
 2635              		.cfi_offset 28, -16
 2636              		.cfi_offset 31, -4
 2637 0040 4E800421 		bctrl
 2638              	.LEHE8:
 2639              	.LVL194:
 2640              		.loc 3 483 0
 2641 0044 87FE0004 		lwzu 31,4(30)
 2642              	.LVL195:
 2643              	.LBE2567:
 2644              	.LBE2571:
 2645              		.loc 1 812 0
 2646 0048 7F9FF000 		cmpw 7,31,30
 2647 004c 40BE0014 		bne+ 7,.L140
 2648 0050 48000070 		b .L131
 2649              	.LVL196:
 2650              	.L132:
 2651              	.LBB2572:
 2652              	.LBB2573:
 2653              		.loc 4 154 0
 2654 0054 83FF0000 		lwz 31,0(31)
 2655              	.LVL197:
 2656              	.LBE2573:
 2657              	.LBE2572:
 2658              		.loc 1 812 0
 2659 0058 7F9EF800 		cmpw 7,30,31
 2660 005c 419E0064 		beq- 7,.L131
 2661              	.LVL198:
 2662              	.L140:
 2663              		.loc 1 814 0
 2664 0060 807F0008 		lwz 3,8(31)
 2665 0064 81230000 		lwz 9,0(3)
 2666 0068 80090008 		lwz 0,8(9)
 2667 006c 7C0903A6 		mtctr 0
 2668              	.LEHB9:
 2669 0070 4E800421 		bctrl
 2670 0074 7F9D1800 		cmpw 7,29,3
 2671 0078 409EFFDC 		bne+ 7,.L132
 2672              	.LVL199:
 2673              		.loc 1 816 0
 2674 007c 807F0008 		lwz 3,8(31)
 2675 0080 7F44D378 		mr 4,26
 2676 0084 81230000 		lwz 9,0(3)
 2677 0088 80090014 		lwz 0,20(9)
 2678 008c 7C0903A6 		mtctr 0
 2679 0090 4E800421 		bctrl
 2680 0094 7C7C1B78 		mr 28,3
 2681              	.LVL200:
 2682              	.LBB2575:
 2683              	.LBB2576:
 2684              	.LBB2577:
 2685              	.LBB2578:
 2686              	.LBB2579:
 2687              	.LBB2580:
 2688              	.LBB2581:
 2689              	.LBB2582:
 2690              		.loc 6 92 0
 2691 0098 3860000C 		li 3,12
 2692 009c 48000001 		bl _Znwj
 2693              	.LEHE9:
 2694              	.LVL201:
 2695              	.LBE2582:
 2696              	.LBE2581:
 2697              	.LBE2580:
 2698              	.LBB2583:
 2699              	.LBB2584:
 2700              		.loc 6 108 0 discriminator 1
 2701 00a0 2F83FFF8 		cmpwi 7,3,-8
 2702 00a4 419E0008 		beq- 7,.L134
 2703              		.loc 6 108 0 is_stmt 0
 2704 00a8 93830008 		stw 28,8(3)
 2705              	.L134:
 2706              	.LVL202:
 2707              	.LBE2584:
 2708              	.LBE2583:
 2709              	.LBE2579:
 2710              	.LBE2578:
 2711              		.loc 4 1516 0 is_stmt 1
 2712 00ac 7FC4F378 		mr 4,30
 2713 00b0 48000001 		bl _ZNSt8__detail15_List_node_base7_M_hookEPS0_
 2714              	.LVL203:
 2715              	.LBE2577:
 2716              	.LBE2576:
 2717              	.LBE2575:
 2718              	.LBB2585:
 2719              	.LBB2574:
 2720              		.loc 4 154 0
 2721 00b4 83FF0000 		lwz 31,0(31)
 2722              	.LVL204:
 2723              	.LBE2574:
 2724              	.LBE2585:
 2725              		.loc 1 812 0
 2726 00b8 7F9EF800 		cmpw 7,30,31
 2727 00bc 409EFFA4 		bne+ 7,.L140
 2728              	.LVL205:
 2729              	.L131:
 2730              	.LBB2586:
 2731              	.LBB2587:
 2732              	.LBB2588:
 2733              		.loc 1 343 0
 2734 00c0 813B0000 		lwz 9,0(27)
 2735 00c4 7F63DB78 		mr 3,27
 2736 00c8 8009000C 		lwz 0,12(9)
 2737 00cc 7C0903A6 		mtctr 0
 2738              	.LEHB10:
 2739 00d0 4E800421 		bctrl
 2740              	.LEHE10:
 2741              	.LBE2588:
 2742              	.LBE2587:
 2743              	.LBE2586:
 2744              	.LBE2595:
 2745              		.loc 1 821 0
 2746 00d4 80010024 		lwz 0,36(1)
 2747 00d8 83410008 		lwz 26,8(1)
 2748              	.LVL206:
 2749 00dc 7C0803A6 		mtlr 0
 2750 00e0 8361000C 		lwz 27,12(1)
 2751              	.LVL207:
 2752 00e4 83810010 		lwz 28,16(1)
 2753 00e8 83A10014 		lwz 29,20(1)
 2754              	.LVL208:
 2755 00ec 83C10018 		lwz 30,24(1)
 2756              	.LVL209:
 2757 00f0 83E1001C 		lwz 31,28(1)
 2758              	.LVL210:
 2759 00f4 38210020 		addi 1,1,32
 2760              		.cfi_remember_state
 2761              	.LCFI47:
 2762              		.cfi_def_cfa_offset 0
 2763              		.cfi_restore 31
 2764              		.cfi_restore 30
 2765              		.cfi_restore 29
 2766              		.cfi_restore 28
 2767              		.cfi_restore 27
 2768              		.cfi_restore 26
 2769 00f8 4E800020 		blr
 2770              	.LVL211:
 2771              	.L139:
 2772              	.LCFI48:
 2773              		.cfi_restore_state
 2774              	.LBB2596:
 2775              	.LBB2589:
 2776              	.LBB2590:
 2777              	.LBB2591:
 2778              		.loc 1 343 0
 2779 00fc 813B0000 		lwz 9,0(27)
 2780 0100 7C7F1B78 		mr 31,3
 2781              	.LVL212:
 2782 0104 7F63DB78 		mr 3,27
 2783 0108 8009000C 		lwz 0,12(9)
 2784 010c 7C0903A6 		mtctr 0
 2785 0110 4E800421 		bctrl
 2786 0114 7FE3FB78 		mr 3,31
 2787              	.LEHB11:
 2788 0118 48000001 		bl _Unwind_Resume
 2789              	.LEHE11:
 2790              	.LBE2591:
 2791              	.LBE2590:
 2792              	.LBE2589:
 2793              	.LBE2596:
 2794              		.cfi_endproc
 2795              	.LFE2086:
 2796              		.section	.gcc_except_table
 2797              	.LLSDA2086:
 2798 002e FF       		.byte	0xff
 2799 002f FF       		.byte	0xff
 2800 0030 01       		.byte	0x1
 2801 0031 13       		.uleb128 .LLSDACSE2086-.LLSDACSB2086
 2802              	.LLSDACSB2086:
 2803 0032 40       		.uleb128 .LEHB8-.LFB2086
 2804 0033 04       		.uleb128 .LEHE8-.LEHB8
 2805 0034 00       		.uleb128 0
 2806 0035 00       		.uleb128 0
 2807 0036 70       		.uleb128 .LEHB9-.LFB2086
 2808 0037 30       		.uleb128 .LEHE9-.LEHB9
 2809 0038 FC01     		.uleb128 .L139-.LFB2086
 2810 003a 00       		.uleb128 0
 2811 003b D001     		.uleb128 .LEHB10-.LFB2086
 2812 003d 04       		.uleb128 .LEHE10-.LEHB10
 2813 003e 00       		.uleb128 0
 2814 003f 00       		.uleb128 0
 2815 0040 9802     		.uleb128 .LEHB11-.LFB2086
 2816 0042 04       		.uleb128 .LEHE11-.LEHB11
 2817 0043 00       		.uleb128 0
 2818 0044 00       		.uleb128 0
 2819              	.LLSDACSE2086:
 2820              		.section	.text._ZN7sigslot13_signal_base2IP10GuiElementbNS_15single_threadedEE14slot_duplicateEPKN
 2821              		.size	_ZN7sigslot13_signal_base2IP10GuiElementbNS_15single_threadedEE14slot_duplicateEPKNS_9has_sl
 2822              		.section	.text._ZN7sigslot12_connection2I9ScrollbariiNS_15single_threadedEED0Ev,"axG",@progbits,_Z
 2823              		.align 2
 2824              		.weak	_ZN7sigslot12_connection2I9ScrollbariiNS_15single_threadedEED0Ev
 2825              		.type	_ZN7sigslot12_connection2I9ScrollbariiNS_15single_threadedEED0Ev, @function
 2826              	_ZN7sigslot12_connection2I9ScrollbariiNS_15single_threadedEED0Ev:
 2827              	.LFB2070:
 2828              		.loc 1 1735 0
 2829              		.cfi_startproc
 2830              	.LVL213:
 2831 0000 7C0802A6 		mflr 0
 2832 0004 9421FFF8 		stwu 1,-8(1)
 2833              	.LCFI49:
 2834              		.cfi_def_cfa_offset 8
 2835              		.cfi_register 65, 0
 2836              	.LBB2597:
 2837              	.LBB2598:
 2838              	.LBB2599:
 2839              	.LBB2600:
 2840              	.LBB2601:
 2841              	.LBB2602:
 2842              		.loc 1 376 0
 2843 0008 3D200000 		lis 9,_ZTVN7sigslot17_connection_base2IiiNS_15single_threadedEEE+8@ha
 2844              	.LBE2602:
 2845              	.LBE2601:
 2846              	.LBE2600:
 2847              	.LBE2599:
 2848              	.LBE2598:
 2849              	.LBE2597:
 2850              		.loc 1 1735 0
 2851 000c 9001000C 		stw 0,12(1)
 2852              	.LBB2608:
 2853              	.LBB2607:
 2854              	.LBB2606:
 2855              	.LBB2605:
 2856              	.LBB2604:
 2857              	.LBB2603:
 2858              		.loc 1 376 0
 2859 0010 38090008 		la 0,_ZTVN7sigslot17_connection_base2IiiNS_15single_threadedEEE+8@l(9)
 2860              		.cfi_offset 65, 4
 2861 0014 90030000 		stw 0,0(3)
 2862              	.LBE2603:
 2863              	.LBE2604:
 2864              	.LBE2605:
 2865              	.LBE2606:
 2866              	.LBE2607:
 2867              	.LBE2608:
 2868              		.loc 1 1738 0
 2869 0018 48000001 		bl _ZdlPv
 2870              	.LVL214:
 2871 001c 8001000C 		lwz 0,12(1)
 2872 0020 38210008 		addi 1,1,8
 2873              	.LCFI50:
 2874              		.cfi_def_cfa_offset 0
 2875 0024 7C0803A6 		mtlr 0
 2876 0028 4E800020 		blr
 2877              		.cfi_endproc
 2878              	.LFE2070:
 2879              		.size	_ZN7sigslot12_connection2I9ScrollbariiNS_15single_threadedEED0Ev, .-_ZN7sigslot12_connection
 2880              		.section	.text._ZN7sigslot12_connection3I9ScrollbarP9GuiButtoniRK6_POINTNS_15single_threadedEED0Ev
 2881              		.align 2
 2882              		.weak	_ZN7sigslot12_connection3I9ScrollbarP9GuiButtoniRK6_POINTNS_15single_threadedEED0Ev
 2883              		.type	_ZN7sigslot12_connection3I9ScrollbarP9GuiButtoniRK6_POINTNS_15single_threadedEED0Ev, @functi
 2884              	_ZN7sigslot12_connection3I9ScrollbarP9GuiButtoniRK6_POINTNS_15single_threadedEED0Ev:
 2885              	.LFB2056:
 2886              		.loc 1 1783 0
 2887              		.cfi_startproc
 2888              	.LVL215:
 2889 0000 7C0802A6 		mflr 0
 2890 0004 9421FFF8 		stwu 1,-8(1)
 2891              	.LCFI51:
 2892              		.cfi_def_cfa_offset 8
 2893              		.cfi_register 65, 0
 2894              	.LBB2609:
 2895              	.LBB2610:
 2896              	.LBB2611:
 2897              	.LBB2612:
 2898              	.LBB2613:
 2899              	.LBB2614:
 2900              		.loc 1 387 0
 2901 0008 3D200000 		lis 9,_ZTVN7sigslot17_connection_base3IP9GuiButtoniRK6_POINTNS_15single_threadedEEE+8@ha
 2902              	.LBE2614:
 2903              	.LBE2613:
 2904              	.LBE2612:
 2905              	.LBE2611:
 2906              	.LBE2610:
 2907              	.LBE2609:
 2908              		.loc 1 1783 0
 2909 000c 9001000C 		stw 0,12(1)
 2910              	.LBB2620:
 2911              	.LBB2619:
 2912              	.LBB2618:
 2913              	.LBB2617:
 2914              	.LBB2616:
 2915              	.LBB2615:
 2916              		.loc 1 387 0
 2917 0010 38090008 		la 0,_ZTVN7sigslot17_connection_base3IP9GuiButtoniRK6_POINTNS_15single_threadedEEE+8@l(9)
 2918              		.cfi_offset 65, 4
 2919 0014 90030000 		stw 0,0(3)
 2920              	.LBE2615:
 2921              	.LBE2616:
 2922              	.LBE2617:
 2923              	.LBE2618:
 2924              	.LBE2619:
 2925              	.LBE2620:
 2926              		.loc 1 1786 0
 2927 0018 48000001 		bl _ZdlPv
 2928              	.LVL216:
 2929 001c 8001000C 		lwz 0,12(1)
 2930 0020 38210008 		addi 1,1,8
 2931              	.LCFI52:
 2932              		.cfi_def_cfa_offset 0
 2933 0024 7C0803A6 		mtlr 0
 2934 0028 4E800020 		blr
 2935              		.cfi_endproc
 2936              	.LFE2056:
 2937              		.size	_ZN7sigslot12_connection3I9ScrollbarP9GuiButtoniRK6_POINTNS_15single_threadedEED0Ev, .-_ZN7s
 2938              		.section	.text._ZN7sigslot17_connection_base3IP9GuiButtoniRK6_POINTNS_15single_threadedEED0Ev,"axG
 2939              		.align 2
 2940              		.weak	_ZN7sigslot17_connection_base3IP9GuiButtoniRK6_POINTNS_15single_threadedEED0Ev
 2941              		.type	_ZN7sigslot17_connection_base3IP9GuiButtoniRK6_POINTNS_15single_threadedEED0Ev, @function
 2942              	_ZN7sigslot17_connection_base3IP9GuiButtoniRK6_POINTNS_15single_threadedEED0Ev:
 2943              	.LFB1774:
 2944              		.loc 1 387 0
 2945              		.cfi_startproc
 2946              	.LVL217:
 2947 0000 7C0802A6 		mflr 0
 2948 0004 9421FFF8 		stwu 1,-8(1)
 2949              	.LCFI53:
 2950              		.cfi_def_cfa_offset 8
 2951              		.cfi_register 65, 0
 2952              	.LBB2621:
 2953              	.LBB2622:
 2954              	.LBB2623:
 2955 0008 3D200000 		lis 9,_ZTVN7sigslot17_connection_base3IP9GuiButtoniRK6_POINTNS_15single_threadedEEE+8@ha
 2956              	.LBE2623:
 2957              	.LBE2622:
 2958              	.LBE2621:
 2959 000c 9001000C 		stw 0,12(1)
 2960              	.LBB2626:
 2961              	.LBB2625:
 2962              	.LBB2624:
 2963              		.loc 1 387 0
 2964 0010 38090008 		la 0,_ZTVN7sigslot17_connection_base3IP9GuiButtoniRK6_POINTNS_15single_threadedEEE+8@l(9)
 2965              		.cfi_offset 65, 4
 2966 0014 90030000 		stw 0,0(3)
 2967              	.LBE2624:
 2968              	.LBE2625:
 2969              	.LBE2626:
 2970 0018 48000001 		bl _ZdlPv
 2971              	.LVL218:
 2972 001c 8001000C 		lwz 0,12(1)
 2973 0020 38210008 		addi 1,1,8
 2974              	.LCFI54:
 2975              		.cfi_def_cfa_offset 0
 2976 0024 7C0803A6 		mtlr 0
 2977 0028 4E800020 		blr
 2978              		.cfi_endproc
 2979              	.LFE1774:
 2980              		.size	_ZN7sigslot17_connection_base3IP9GuiButtoniRK6_POINTNS_15single_threadedEED0Ev, .-_ZN7sigslo
 2981              		.section	.text._ZN7sigslot17_connection_base2IiiNS_15single_threadedEED0Ev,"axG",@progbits,_ZN7sig
 2982              		.align 2
 2983              		.weak	_ZN7sigslot17_connection_base2IiiNS_15single_threadedEED0Ev
 2984              		.type	_ZN7sigslot17_connection_base2IiiNS_15single_threadedEED0Ev, @function
 2985              	_ZN7sigslot17_connection_base2IiiNS_15single_threadedEED0Ev:
 2986              	.LFB1768:
 2987              		.loc 1 376 0
 2988              		.cfi_startproc
 2989              	.LVL219:
 2990 0000 7C0802A6 		mflr 0
 2991 0004 9421FFF8 		stwu 1,-8(1)
 2992              	.LCFI55:
 2993              		.cfi_def_cfa_offset 8
 2994              		.cfi_register 65, 0
 2995              	.LBB2627:
 2996              	.LBB2628:
 2997              	.LBB2629:
 2998 0008 3D200000 		lis 9,_ZTVN7sigslot17_connection_base2IiiNS_15single_threadedEEE+8@ha
 2999              	.LBE2629:
 3000              	.LBE2628:
 3001              	.LBE2627:
 3002 000c 9001000C 		stw 0,12(1)
 3003              	.LBB2632:
 3004              	.LBB2631:
 3005              	.LBB2630:
 3006              		.loc 1 376 0
 3007 0010 38090008 		la 0,_ZTVN7sigslot17_connection_base2IiiNS_15single_threadedEEE+8@l(9)
 3008              		.cfi_offset 65, 4
 3009 0014 90030000 		stw 0,0(3)
 3010              	.LBE2630:
 3011              	.LBE2631:
 3012              	.LBE2632:
 3013 0018 48000001 		bl _ZdlPv
 3014              	.LVL220:
 3015 001c 8001000C 		lwz 0,12(1)
 3016 0020 38210008 		addi 1,1,8
 3017              	.LCFI56:
 3018              		.cfi_def_cfa_offset 0
 3019 0024 7C0803A6 		mtlr 0
 3020 0028 4E800020 		blr
 3021              		.cfi_endproc
 3022              	.LFE1768:
 3023              		.size	_ZN7sigslot17_connection_base2IiiNS_15single_threadedEED0Ev, .-_ZN7sigslot17_connection_base
 3024              		.section	.text._ZN7sigslot12_signal_baseINS_15single_threadedEED0Ev,"axG",@progbits,_ZN7sigslot12_
 3025              		.align 2
 3026              		.weak	_ZN7sigslot12_signal_baseINS_15single_threadedEED0Ev
 3027              		.type	_ZN7sigslot12_signal_baseINS_15single_threadedEED0Ev, @function
 3028              	_ZN7sigslot12_signal_baseINS_15single_threadedEED0Ev:
 3029              	.LFB1641:
 3030              		.loc 1 466 0
 3031              		.cfi_startproc
 3032              	.LVL221:
 3033 0000 7C0802A6 		mflr 0
 3034 0004 9421FFF8 		stwu 1,-8(1)
 3035              	.LCFI57:
 3036              		.cfi_def_cfa_offset 8
 3037              		.cfi_register 65, 0
 3038              	.LBB2633:
 3039              	.LBB2634:
 3040              	.LBB2635:
 3041              	.LBB2636:
 3042              	.LBB2637:
 3043              	.LBB2638:
 3044              		.loc 1 105 0
 3045 0008 3D200000 		lis 9,_ZTVN7sigslot15single_threadedE+8@ha
 3046              	.LBE2638:
 3047              	.LBE2637:
 3048              	.LBE2636:
 3049              	.LBE2635:
 3050              	.LBE2634:
 3051              	.LBE2633:
 3052              		.loc 1 466 0
 3053 000c 9001000C 		stw 0,12(1)
 3054              	.LBB2644:
 3055              	.LBB2643:
 3056              	.LBB2642:
 3057              	.LBB2641:
 3058              	.LBB2640:
 3059              	.LBB2639:
 3060              		.loc 1 105 0
 3061 0010 38090008 		la 0,_ZTVN7sigslot15single_threadedE+8@l(9)
 3062              		.cfi_offset 65, 4
 3063 0014 90030000 		stw 0,0(3)
 3064              	.LBE2639:
 3065              	.LBE2640:
 3066              	.LBE2641:
 3067              	.LBE2642:
 3068              	.LBE2643:
 3069              	.LBE2644:
 3070              		.loc 1 466 0
 3071 0018 48000001 		bl _ZdlPv
 3072              	.LVL222:
 3073 001c 8001000C 		lwz 0,12(1)
 3074 0020 38210008 		addi 1,1,8
 3075              	.LCFI58:
 3076              		.cfi_def_cfa_offset 0
 3077 0024 7C0803A6 		mtlr 0
 3078 0028 4E800020 		blr
 3079              		.cfi_endproc
 3080              	.LFE1641:
 3081              		.size	_ZN7sigslot12_signal_baseINS_15single_threadedEED0Ev, .-_ZN7sigslot12_signal_baseINS_15singl
 3082              		.section	.text._ZN7sigslot15single_threadedD0Ev,"axG",@progbits,_ZN7sigslot15single_threadedD5Ev,c
 3083              		.align 2
 3084              		.weak	_ZN7sigslot15single_threadedD0Ev
 3085              		.type	_ZN7sigslot15single_threadedD0Ev, @function
 3086              	_ZN7sigslot15single_threadedD0Ev:
 3087              	.LFB1245:
 3088              		.loc 1 104 0
 3089              		.cfi_startproc
 3090              	.LVL223:
 3091 0000 7C0802A6 		mflr 0
 3092 0004 9421FFF8 		stwu 1,-8(1)
 3093              	.LCFI59:
 3094              		.cfi_def_cfa_offset 8
 3095              		.cfi_register 65, 0
 3096              	.LBB2645:
 3097              	.LBB2646:
 3098              	.LBB2647:
 3099              		.loc 1 105 0
 3100 0008 3D200000 		lis 9,_ZTVN7sigslot15single_threadedE+8@ha
 3101              	.LBE2647:
 3102              	.LBE2646:
 3103              	.LBE2645:
 3104              		.loc 1 104 0
 3105 000c 9001000C 		stw 0,12(1)
 3106              	.LBB2650:
 3107              	.LBB2649:
 3108              	.LBB2648:
 3109              		.loc 1 105 0
 3110 0010 38090008 		la 0,_ZTVN7sigslot15single_threadedE+8@l(9)
 3111              		.cfi_offset 65, 4
 3112 0014 90030000 		stw 0,0(3)
 3113              	.LBE2648:
 3114              	.LBE2649:
 3115              	.LBE2650:
 3116              		.loc 1 107 0
 3117 0018 48000001 		bl _ZdlPv
 3118              	.LVL224:
 3119 001c 8001000C 		lwz 0,12(1)
 3120 0020 38210008 		addi 1,1,8
 3121              	.LCFI60:
 3122              		.cfi_def_cfa_offset 0
 3123 0024 7C0803A6 		mtlr 0
 3124 0028 4E800020 		blr
 3125              		.cfi_endproc
 3126              	.LFE1245:
 3127              		.size	_ZN7sigslot15single_threadedD0Ev, .-_ZN7sigslot15single_threadedD0Ev
 3128              		.section	.text._ZN7sigslot13_signal_base2IiiNS_15single_threadedEE15slot_disconnectEPNS_9has_slots
 3129              		.align 2
 3130              		.weak	_ZN7sigslot13_signal_base2IiiNS_15single_threadedEE15slot_disconnectEPNS_9has_slotsIS1_EE
 3131              		.type	_ZN7sigslot13_signal_base2IiiNS_15single_threadedEE15slot_disconnectEPNS_9has_slotsIS1_EE, @
 3132              	_ZN7sigslot13_signal_base2IiiNS_15single_threadedEE15slot_disconnectEPNS_9has_slotsIS1_EE:
 3133              	.LFB2081:
 3134              		.loc 1 870 0
 3135              		.cfi_startproc
 3136              		.cfi_personality 0,__gxx_personality_v0
 3137              		.cfi_lsda 0,.LLSDA2081
 3138              	.LVL225:
 3139 0000 7C0802A6 		mflr 0
 3140 0004 9421FFE0 		stwu 1,-32(1)
 3141              	.LCFI61:
 3142              		.cfi_def_cfa_offset 32
 3143              		.cfi_register 65, 0
 3144 0008 9361000C 		stw 27,12(1)
 3145 000c 7C7B1B78 		mr 27,3
 3146              		.cfi_offset 27, -20
 3147              	.LVL226:
 3148 0010 90010024 		stw 0,36(1)
 3149 0014 93810010 		stw 28,16(1)
 3150 0018 7C9C2378 		mr 28,4
 3151              		.cfi_offset 28, -16
 3152              		.cfi_offset 65, 4
 3153              	.LBB2651:
 3154              	.LBB2652:
 3155              	.LBB2653:
 3156              		.loc 1 338 0
 3157 001c 81230000 		lwz 9,0(3)
 3158              	.LBE2653:
 3159              	.LBE2652:
 3160              	.LBE2651:
 3161              		.loc 1 870 0
 3162 0020 93A10014 		stw 29,20(1)
 3163              	.LBB2674:
 3164              	.LBB2656:
 3165              	.LBB2654:
 3166              		.loc 3 483 0
 3167 0024 7F7DDB78 		mr 29,27
 3168              		.cfi_offset 29, -12
 3169              		.loc 1 338 0
 3170 0028 80090008 		lwz 0,8(9)
 3171              	.LBE2654:
 3172              	.LBE2656:
 3173              	.LBE2674:
 3174              		.loc 1 870 0
 3175 002c 93E1001C 		stw 31,28(1)
 3176 0030 93C10018 		stw 30,24(1)
 3177              	.LBB2675:
 3178              	.LBB2657:
 3179              	.LBB2655:
 3180              		.loc 1 338 0
 3181 0034 7C0903A6 		mtctr 0
 3182              	.LEHB12:
 3183              		.cfi_offset 30, -8
 3184              		.cfi_offset 31, -4
 3185 0038 4E800421 		bctrl
 3186              	.LEHE12:
 3187              	.LVL227:
 3188              		.loc 3 483 0
 3189 003c 87FD0004 		lwzu 31,4(29)
 3190              	.LVL228:
 3191              	.LBE2655:
 3192              	.LBE2657:
 3193              		.loc 1 876 0
 3194 0040 7F9FE800 		cmpw 7,31,29
 3195 0044 40BE0014 		bne+ 7,.L175
 3196 0048 48000064 		b .L164
 3197              	.LVL229:
 3198              	.L165:
 3199              		.loc 1 876 0 is_stmt 0 discriminator 1
 3200 004c 7F9DF000 		cmpw 7,29,30
 3201 0050 419E005C 		beq- 7,.L164
 3202              	.L173:
 3203              		.loc 1 876 0
 3204 0054 7FDFF378 		mr 31,30
 3205              	.LVL230:
 3206              	.L175:
 3207              	.LBB2658:
 3208              		.loc 1 881 0 is_stmt 1
 3209 0058 807F0008 		lwz 3,8(31)
 3210              	.LBB2659:
 3211              	.LBB2660:
 3212              		.loc 4 154 0
 3213 005c 83DF0000 		lwz 30,0(31)
 3214              	.LVL231:
 3215              	.LBE2660:
 3216              	.LBE2659:
 3217              		.loc 1 881 0
 3218 0060 81230000 		lwz 9,0(3)
 3219 0064 80090008 		lwz 0,8(9)
 3220 0068 7C0903A6 		mtctr 0
 3221              	.LEHB13:
 3222 006c 4E800421 		bctrl
 3223              	.LVL232:
 3224 0070 7F9C1800 		cmpw 7,28,3
 3225 0074 409EFFD8 		bne+ 7,.L165
 3226              	.LVL233:
 3227              		.loc 1 883 0
 3228 0078 807F0008 		lwz 3,8(31)
 3229 007c 2F830000 		cmpwi 7,3,0
 3230 0080 419E0014 		beq- 7,.L166
 3231              		.loc 1 883 0 is_stmt 0 discriminator 1
 3232 0084 81230000 		lwz 9,0(3)
 3233 0088 80090004 		lwz 0,4(9)
 3234 008c 7C0903A6 		mtctr 0
 3235 0090 4E800421 		bctrl
 3236              	.LEHE13:
 3237              	.L166:
 3238              	.LVL234:
 3239              	.LBB2661:
 3240              	.LBB2662:
 3241              	.LBB2663:
 3242              	.LBB2664:
 3243              		.loc 4 1532 0 is_stmt 1
 3244 0094 7FE3FB78 		mr 3,31
 3245 0098 48000001 		bl _ZNSt8__detail15_List_node_base9_M_unhookEv
 3246              	.LVL235:
 3247              	.LBB2665:
 3248              	.LBB2666:
 3249              	.LBB2667:
 3250              		.loc 6 98 0
 3251 009c 7FE3FB78 		mr 3,31
 3252 00a0 48000001 		bl _ZdlPv
 3253              	.LVL236:
 3254              	.LBE2667:
 3255              	.LBE2666:
 3256              	.LBE2665:
 3257              	.LBE2664:
 3258              	.LBE2663:
 3259              	.LBE2662:
 3260              	.LBE2661:
 3261              	.LBE2658:
 3262              		.loc 1 876 0
 3263 00a4 7F9DF000 		cmpw 7,29,30
 3264 00a8 409EFFAC 		bne+ 7,.L173
 3265              	.LVL237:
 3266              	.L164:
 3267              	.LBB2668:
 3268              	.LBB2669:
 3269              	.LBB2670:
 3270              		.loc 1 343 0
 3271 00ac 813B0000 		lwz 9,0(27)
 3272 00b0 7F63DB78 		mr 3,27
 3273 00b4 8009000C 		lwz 0,12(9)
 3274 00b8 7C0903A6 		mtctr 0
 3275              	.LEHB14:
 3276 00bc 4E800421 		bctrl
 3277              	.LEHE14:
 3278              	.LBE2670:
 3279              	.LBE2669:
 3280              	.LBE2668:
 3281              	.LBE2675:
 3282              		.loc 1 890 0
 3283 00c0 80010024 		lwz 0,36(1)
 3284 00c4 8361000C 		lwz 27,12(1)
 3285              	.LVL238:
 3286 00c8 7C0803A6 		mtlr 0
 3287 00cc 83810010 		lwz 28,16(1)
 3288              	.LVL239:
 3289 00d0 83A10014 		lwz 29,20(1)
 3290              	.LVL240:
 3291 00d4 83C10018 		lwz 30,24(1)
 3292 00d8 83E1001C 		lwz 31,28(1)
 3293 00dc 38210020 		addi 1,1,32
 3294              		.cfi_remember_state
 3295              	.LCFI62:
 3296              		.cfi_def_cfa_offset 0
 3297              		.cfi_restore 31
 3298              		.cfi_restore 30
 3299              		.cfi_restore 29
 3300              		.cfi_restore 28
 3301              		.cfi_restore 27
 3302 00e0 4E800020 		blr
 3303              	.LVL241:
 3304              	.L174:
 3305              	.LCFI63:
 3306              		.cfi_restore_state
 3307              	.LBB2676:
 3308              	.LBB2671:
 3309              	.LBB2672:
 3310              	.LBB2673:
 3311              		.loc 1 343 0
 3312 00e4 813B0000 		lwz 9,0(27)
 3313 00e8 7C7F1B78 		mr 31,3
 3314              	.LVL242:
 3315 00ec 7F63DB78 		mr 3,27
 3316 00f0 8009000C 		lwz 0,12(9)
 3317 00f4 7C0903A6 		mtctr 0
 3318 00f8 4E800421 		bctrl
 3319 00fc 7FE3FB78 		mr 3,31
 3320              	.LEHB15:
 3321 0100 48000001 		bl _Unwind_Resume
 3322              	.LEHE15:
 3323              	.LBE2673:
 3324              	.LBE2672:
 3325              	.LBE2671:
 3326              	.LBE2676:
 3327              		.cfi_endproc
 3328              	.LFE2081:
 3329              		.section	.gcc_except_table
 3330              	.LLSDA2081:
 3331 0045 FF       		.byte	0xff
 3332 0046 FF       		.byte	0xff
 3333 0047 01       		.byte	0x1
 3334 0048 13       		.uleb128 .LLSDACSE2081-.LLSDACSB2081
 3335              	.LLSDACSB2081:
 3336 0049 38       		.uleb128 .LEHB12-.LFB2081
 3337 004a 04       		.uleb128 .LEHE12-.LEHB12
 3338 004b 00       		.uleb128 0
 3339 004c 00       		.uleb128 0
 3340 004d 6C       		.uleb128 .LEHB13-.LFB2081
 3341 004e 28       		.uleb128 .LEHE13-.LEHB13
 3342 004f E401     		.uleb128 .L174-.LFB2081
 3343 0051 00       		.uleb128 0
 3344 0052 BC01     		.uleb128 .LEHB14-.LFB2081
 3345 0054 04       		.uleb128 .LEHE14-.LEHB14
 3346 0055 00       		.uleb128 0
 3347 0056 00       		.uleb128 0
 3348 0057 8002     		.uleb128 .LEHB15-.LFB2081
 3349 0059 04       		.uleb128 .LEHE15-.LEHB15
 3350 005a 00       		.uleb128 0
 3351 005b 00       		.uleb128 0
 3352              	.LLSDACSE2081:
 3353              		.section	.text._ZN7sigslot13_signal_base2IiiNS_15single_threadedEE15slot_disconnectEPNS_9has_slots
 3354              		.size	_ZN7sigslot13_signal_base2IiiNS_15single_threadedEE15slot_disconnectEPNS_9has_slotsIS1_EE, .
 3355              		.section	.text._ZN7sigslot13_signal_base3IP10GuiElementiiNS_15single_threadedEE15slot_disconnectEP
 3356              		.align 2
 3357              		.weak	_ZN7sigslot13_signal_base3IP10GuiElementiiNS_15single_threadedEE15slot_disconnectEPNS_9has_s
 3358              		.type	_ZN7sigslot13_signal_base3IP10GuiElementiiNS_15single_threadedEE15slot_disconnectEPNS_9has_s
 3359              	_ZN7sigslot13_signal_base3IP10GuiElementiiNS_15single_threadedEE15slot_disconnectEPNS_9has_slotsIS3
 3360              	.LFB2083:
 3361              		.loc 1 990 0
 3362              		.cfi_startproc
 3363              		.cfi_personality 0,__gxx_personality_v0
 3364              		.cfi_lsda 0,.LLSDA2083
 3365              	.LVL243:
 3366 0000 7C0802A6 		mflr 0
 3367 0004 9421FFE0 		stwu 1,-32(1)
 3368              	.LCFI64:
 3369              		.cfi_def_cfa_offset 32
 3370              		.cfi_register 65, 0
 3371 0008 9361000C 		stw 27,12(1)
 3372 000c 7C7B1B78 		mr 27,3
 3373              		.cfi_offset 27, -20
 3374              	.LVL244:
 3375 0010 90010024 		stw 0,36(1)
 3376 0014 93810010 		stw 28,16(1)
 3377 0018 7C9C2378 		mr 28,4
 3378              		.cfi_offset 28, -16
 3379              		.cfi_offset 65, 4
 3380              	.LBB2677:
 3381              	.LBB2678:
 3382              	.LBB2679:
 3383              		.loc 1 338 0
 3384 001c 81230000 		lwz 9,0(3)
 3385              	.LBE2679:
 3386              	.LBE2678:
 3387              	.LBE2677:
 3388              		.loc 1 990 0
 3389 0020 93A10014 		stw 29,20(1)
 3390              	.LBB2700:
 3391              	.LBB2682:
 3392              	.LBB2680:
 3393              		.loc 3 483 0
 3394 0024 7F7DDB78 		mr 29,27
 3395              		.cfi_offset 29, -12
 3396              		.loc 1 338 0
 3397 0028 80090008 		lwz 0,8(9)
 3398              	.LBE2680:
 3399              	.LBE2682:
 3400              	.LBE2700:
 3401              		.loc 1 990 0
 3402 002c 93E1001C 		stw 31,28(1)
 3403 0030 93C10018 		stw 30,24(1)
 3404              	.LBB2701:
 3405              	.LBB2683:
 3406              	.LBB2681:
 3407              		.loc 1 338 0
 3408 0034 7C0903A6 		mtctr 0
 3409              	.LEHB16:
 3410              		.cfi_offset 30, -8
 3411              		.cfi_offset 31, -4
 3412 0038 4E800421 		bctrl
 3413              	.LEHE16:
 3414              	.LVL245:
 3415              		.loc 3 483 0
 3416 003c 87FD0004 		lwzu 31,4(29)
 3417              	.LVL246:
 3418              	.LBE2681:
 3419              	.LBE2683:
 3420              		.loc 1 996 0
 3421 0040 7F9FE800 		cmpw 7,31,29
 3422 0044 40BE0014 		bne+ 7,.L188
 3423 0048 48000064 		b .L177
 3424              	.LVL247:
 3425              	.L178:
 3426              		.loc 1 996 0 is_stmt 0 discriminator 1
 3427 004c 7F9DF000 		cmpw 7,29,30
 3428 0050 419E005C 		beq- 7,.L177
 3429              	.L186:
 3430              		.loc 1 996 0
 3431 0054 7FDFF378 		mr 31,30
 3432              	.LVL248:
 3433              	.L188:
 3434              	.LBB2684:
 3435              		.loc 1 1001 0 is_stmt 1
 3436 0058 807F0008 		lwz 3,8(31)
 3437              	.LBB2685:
 3438              	.LBB2686:
 3439              		.loc 4 154 0
 3440 005c 83DF0000 		lwz 30,0(31)
 3441              	.LVL249:
 3442              	.LBE2686:
 3443              	.LBE2685:
 3444              		.loc 1 1001 0
 3445 0060 81230000 		lwz 9,0(3)
 3446 0064 80090008 		lwz 0,8(9)
 3447 0068 7C0903A6 		mtctr 0
 3448              	.LEHB17:
 3449 006c 4E800421 		bctrl
 3450              	.LVL250:
 3451 0070 7F9C1800 		cmpw 7,28,3
 3452 0074 409EFFD8 		bne+ 7,.L178
 3453              	.LVL251:
 3454              		.loc 1 1003 0
 3455 0078 807F0008 		lwz 3,8(31)
 3456 007c 2F830000 		cmpwi 7,3,0
 3457 0080 419E0014 		beq- 7,.L179
 3458              		.loc 1 1003 0 is_stmt 0 discriminator 1
 3459 0084 81230000 		lwz 9,0(3)
 3460 0088 80090004 		lwz 0,4(9)
 3461 008c 7C0903A6 		mtctr 0
 3462 0090 4E800421 		bctrl
 3463              	.LEHE17:
 3464              	.L179:
 3465              	.LVL252:
 3466              	.LBB2687:
 3467              	.LBB2688:
 3468              	.LBB2689:
 3469              	.LBB2690:
 3470              		.loc 4 1532 0 is_stmt 1
 3471 0094 7FE3FB78 		mr 3,31
 3472 0098 48000001 		bl _ZNSt8__detail15_List_node_base9_M_unhookEv
 3473              	.LVL253:
 3474              	.LBB2691:
 3475              	.LBB2692:
 3476              	.LBB2693:
 3477              		.loc 6 98 0
 3478 009c 7FE3FB78 		mr 3,31
 3479 00a0 48000001 		bl _ZdlPv
 3480              	.LVL254:
 3481              	.LBE2693:
 3482              	.LBE2692:
 3483              	.LBE2691:
 3484              	.LBE2690:
 3485              	.LBE2689:
 3486              	.LBE2688:
 3487              	.LBE2687:
 3488              	.LBE2684:
 3489              		.loc 1 996 0
 3490 00a4 7F9DF000 		cmpw 7,29,30
 3491 00a8 409EFFAC 		bne+ 7,.L186
 3492              	.LVL255:
 3493              	.L177:
 3494              	.LBB2694:
 3495              	.LBB2695:
 3496              	.LBB2696:
 3497              		.loc 1 343 0
 3498 00ac 813B0000 		lwz 9,0(27)
 3499 00b0 7F63DB78 		mr 3,27
 3500 00b4 8009000C 		lwz 0,12(9)
 3501 00b8 7C0903A6 		mtctr 0
 3502              	.LEHB18:
 3503 00bc 4E800421 		bctrl
 3504              	.LEHE18:
 3505              	.LBE2696:
 3506              	.LBE2695:
 3507              	.LBE2694:
 3508              	.LBE2701:
 3509              		.loc 1 1010 0
 3510 00c0 80010024 		lwz 0,36(1)
 3511 00c4 8361000C 		lwz 27,12(1)
 3512              	.LVL256:
 3513 00c8 7C0803A6 		mtlr 0
 3514 00cc 83810010 		lwz 28,16(1)
 3515              	.LVL257:
 3516 00d0 83A10014 		lwz 29,20(1)
 3517              	.LVL258:
 3518 00d4 83C10018 		lwz 30,24(1)
 3519 00d8 83E1001C 		lwz 31,28(1)
 3520 00dc 38210020 		addi 1,1,32
 3521              		.cfi_remember_state
 3522              	.LCFI65:
 3523              		.cfi_def_cfa_offset 0
 3524              		.cfi_restore 31
 3525              		.cfi_restore 30
 3526              		.cfi_restore 29
 3527              		.cfi_restore 28
 3528              		.cfi_restore 27
 3529 00e0 4E800020 		blr
 3530              	.LVL259:
 3531              	.L187:
 3532              	.LCFI66:
 3533              		.cfi_restore_state
 3534              	.LBB2702:
 3535              	.LBB2697:
 3536              	.LBB2698:
 3537              	.LBB2699:
 3538              		.loc 1 343 0
 3539 00e4 813B0000 		lwz 9,0(27)
 3540 00e8 7C7F1B78 		mr 31,3
 3541              	.LVL260:
 3542 00ec 7F63DB78 		mr 3,27
 3543 00f0 8009000C 		lwz 0,12(9)
 3544 00f4 7C0903A6 		mtctr 0
 3545 00f8 4E800421 		bctrl
 3546 00fc 7FE3FB78 		mr 3,31
 3547              	.LEHB19:
 3548 0100 48000001 		bl _Unwind_Resume
 3549              	.LEHE19:
 3550              	.LBE2699:
 3551              	.LBE2698:
 3552              	.LBE2697:
 3553              	.LBE2702:
 3554              		.cfi_endproc
 3555              	.LFE2083:
 3556              		.section	.gcc_except_table
 3557              	.LLSDA2083:
 3558 005c FF       		.byte	0xff
 3559 005d FF       		.byte	0xff
 3560 005e 01       		.byte	0x1
 3561 005f 13       		.uleb128 .LLSDACSE2083-.LLSDACSB2083
 3562              	.LLSDACSB2083:
 3563 0060 38       		.uleb128 .LEHB16-.LFB2083
 3564 0061 04       		.uleb128 .LEHE16-.LEHB16
 3565 0062 00       		.uleb128 0
 3566 0063 00       		.uleb128 0
 3567 0064 6C       		.uleb128 .LEHB17-.LFB2083
 3568 0065 28       		.uleb128 .LEHE17-.LEHB17
 3569 0066 E401     		.uleb128 .L187-.LFB2083
 3570 0068 00       		.uleb128 0
 3571 0069 BC01     		.uleb128 .LEHB18-.LFB2083
 3572 006b 04       		.uleb128 .LEHE18-.LEHB18
 3573 006c 00       		.uleb128 0
 3574 006d 00       		.uleb128 0
 3575 006e 8002     		.uleb128 .LEHB19-.LFB2083
 3576 0070 04       		.uleb128 .LEHE19-.LEHB19
 3577 0071 00       		.uleb128 0
 3578 0072 00       		.uleb128 0
 3579              	.LLSDACSE2083:
 3580              		.section	.text._ZN7sigslot13_signal_base3IP10GuiElementiiNS_15single_threadedEE15slot_disconnectEP
 3581              		.size	_ZN7sigslot13_signal_base3IP10GuiElementiiNS_15single_threadedEE15slot_disconnectEPNS_9has_s
 3582              		.section	.text._ZN7sigslot13_signal_base2IP10GuiElementbNS_15single_threadedEE15slot_disconnectEPN
 3583              		.align 2
 3584              		.weak	_ZN7sigslot13_signal_base2IP10GuiElementbNS_15single_threadedEE15slot_disconnectEPNS_9has_sl
 3585              		.type	_ZN7sigslot13_signal_base2IP10GuiElementbNS_15single_threadedEE15slot_disconnectEPNS_9has_sl
 3586              	_ZN7sigslot13_signal_base2IP10GuiElementbNS_15single_threadedEE15slot_disconnectEPNS_9has_slotsIS3_
 3587              	.LFB2085:
 3588              		.loc 1 870 0
 3589              		.cfi_startproc
 3590              		.cfi_personality 0,__gxx_personality_v0
 3591              		.cfi_lsda 0,.LLSDA2085
 3592              	.LVL261:
 3593 0000 7C0802A6 		mflr 0
 3594 0004 9421FFE0 		stwu 1,-32(1)
 3595              	.LCFI67:
 3596              		.cfi_def_cfa_offset 32
 3597              		.cfi_register 65, 0
 3598 0008 9361000C 		stw 27,12(1)
 3599 000c 7C7B1B78 		mr 27,3
 3600              		.cfi_offset 27, -20
 3601              	.LVL262:
 3602 0010 90010024 		stw 0,36(1)
 3603 0014 93810010 		stw 28,16(1)
 3604 0018 7C9C2378 		mr 28,4
 3605              		.cfi_offset 28, -16
 3606              		.cfi_offset 65, 4
 3607              	.LBB2703:
 3608              	.LBB2704:
 3609              	.LBB2705:
 3610              		.loc 1 338 0
 3611 001c 81230000 		lwz 9,0(3)
 3612              	.LBE2705:
 3613              	.LBE2704:
 3614              	.LBE2703:
 3615              		.loc 1 870 0
 3616 0020 93A10014 		stw 29,20(1)
 3617              	.LBB2726:
 3618              	.LBB2708:
 3619              	.LBB2706:
 3620              		.loc 3 483 0
 3621 0024 7F7DDB78 		mr 29,27
 3622              		.cfi_offset 29, -12
 3623              		.loc 1 338 0
 3624 0028 80090008 		lwz 0,8(9)
 3625              	.LBE2706:
 3626              	.LBE2708:
 3627              	.LBE2726:
 3628              		.loc 1 870 0
 3629 002c 93E1001C 		stw 31,28(1)
 3630 0030 93C10018 		stw 30,24(1)
 3631              	.LBB2727:
 3632              	.LBB2709:
 3633              	.LBB2707:
 3634              		.loc 1 338 0
 3635 0034 7C0903A6 		mtctr 0
 3636              	.LEHB20:
 3637              		.cfi_offset 30, -8
 3638              		.cfi_offset 31, -4
 3639 0038 4E800421 		bctrl
 3640              	.LEHE20:
 3641              	.LVL263:
 3642              		.loc 3 483 0
 3643 003c 87FD0004 		lwzu 31,4(29)
 3644              	.LVL264:
 3645              	.LBE2707:
 3646              	.LBE2709:
 3647              		.loc 1 876 0
 3648 0040 7F9FE800 		cmpw 7,31,29
 3649 0044 40BE0014 		bne+ 7,.L201
 3650 0048 48000064 		b .L190
 3651              	.LVL265:
 3652              	.L191:
 3653              		.loc 1 876 0 is_stmt 0 discriminator 1
 3654 004c 7F9DF000 		cmpw 7,29,30
 3655 0050 419E005C 		beq- 7,.L190
 3656              	.L199:
 3657              		.loc 1 876 0
 3658 0054 7FDFF378 		mr 31,30
 3659              	.LVL266:
 3660              	.L201:
 3661              	.LBB2710:
 3662              		.loc 1 881 0 is_stmt 1
 3663 0058 807F0008 		lwz 3,8(31)
 3664              	.LBB2711:
 3665              	.LBB2712:
 3666              		.loc 4 154 0
 3667 005c 83DF0000 		lwz 30,0(31)
 3668              	.LVL267:
 3669              	.LBE2712:
 3670              	.LBE2711:
 3671              		.loc 1 881 0
 3672 0060 81230000 		lwz 9,0(3)
 3673 0064 80090008 		lwz 0,8(9)
 3674 0068 7C0903A6 		mtctr 0
 3675              	.LEHB21:
 3676 006c 4E800421 		bctrl
 3677              	.LVL268:
 3678 0070 7F9C1800 		cmpw 7,28,3
 3679 0074 409EFFD8 		bne+ 7,.L191
 3680              	.LVL269:
 3681              		.loc 1 883 0
 3682 0078 807F0008 		lwz 3,8(31)
 3683 007c 2F830000 		cmpwi 7,3,0
 3684 0080 419E0014 		beq- 7,.L192
 3685              		.loc 1 883 0 is_stmt 0 discriminator 1
 3686 0084 81230000 		lwz 9,0(3)
 3687 0088 80090004 		lwz 0,4(9)
 3688 008c 7C0903A6 		mtctr 0
 3689 0090 4E800421 		bctrl
 3690              	.LEHE21:
 3691              	.L192:
 3692              	.LVL270:
 3693              	.LBB2713:
 3694              	.LBB2714:
 3695              	.LBB2715:
 3696              	.LBB2716:
 3697              		.loc 4 1532 0 is_stmt 1
 3698 0094 7FE3FB78 		mr 3,31
 3699 0098 48000001 		bl _ZNSt8__detail15_List_node_base9_M_unhookEv
 3700              	.LVL271:
 3701              	.LBB2717:
 3702              	.LBB2718:
 3703              	.LBB2719:
 3704              		.loc 6 98 0
 3705 009c 7FE3FB78 		mr 3,31
 3706 00a0 48000001 		bl _ZdlPv
 3707              	.LVL272:
 3708              	.LBE2719:
 3709              	.LBE2718:
 3710              	.LBE2717:
 3711              	.LBE2716:
 3712              	.LBE2715:
 3713              	.LBE2714:
 3714              	.LBE2713:
 3715              	.LBE2710:
 3716              		.loc 1 876 0
 3717 00a4 7F9DF000 		cmpw 7,29,30
 3718 00a8 409EFFAC 		bne+ 7,.L199
 3719              	.LVL273:
 3720              	.L190:
 3721              	.LBB2720:
 3722              	.LBB2721:
 3723              	.LBB2722:
 3724              		.loc 1 343 0
 3725 00ac 813B0000 		lwz 9,0(27)
 3726 00b0 7F63DB78 		mr 3,27
 3727 00b4 8009000C 		lwz 0,12(9)
 3728 00b8 7C0903A6 		mtctr 0
 3729              	.LEHB22:
 3730 00bc 4E800421 		bctrl
 3731              	.LEHE22:
 3732              	.LBE2722:
 3733              	.LBE2721:
 3734              	.LBE2720:
 3735              	.LBE2727:
 3736              		.loc 1 890 0
 3737 00c0 80010024 		lwz 0,36(1)
 3738 00c4 8361000C 		lwz 27,12(1)
 3739              	.LVL274:
 3740 00c8 7C0803A6 		mtlr 0
 3741 00cc 83810010 		lwz 28,16(1)
 3742              	.LVL275:
 3743 00d0 83A10014 		lwz 29,20(1)
 3744              	.LVL276:
 3745 00d4 83C10018 		lwz 30,24(1)
 3746 00d8 83E1001C 		lwz 31,28(1)
 3747 00dc 38210020 		addi 1,1,32
 3748              		.cfi_remember_state
 3749              	.LCFI68:
 3750              		.cfi_def_cfa_offset 0
 3751              		.cfi_restore 31
 3752              		.cfi_restore 30
 3753              		.cfi_restore 29
 3754              		.cfi_restore 28
 3755              		.cfi_restore 27
 3756 00e0 4E800020 		blr
 3757              	.LVL277:
 3758              	.L200:
 3759              	.LCFI69:
 3760              		.cfi_restore_state
 3761              	.LBB2728:
 3762              	.LBB2723:
 3763              	.LBB2724:
 3764              	.LBB2725:
 3765              		.loc 1 343 0
 3766 00e4 813B0000 		lwz 9,0(27)
 3767 00e8 7C7F1B78 		mr 31,3
 3768              	.LVL278:
 3769 00ec 7F63DB78 		mr 3,27
 3770 00f0 8009000C 		lwz 0,12(9)
 3771 00f4 7C0903A6 		mtctr 0
 3772 00f8 4E800421 		bctrl
 3773 00fc 7FE3FB78 		mr 3,31
 3774              	.LEHB23:
 3775 0100 48000001 		bl _Unwind_Resume
 3776              	.LEHE23:
 3777              	.LBE2725:
 3778              	.LBE2724:
 3779              	.LBE2723:
 3780              	.LBE2728:
 3781              		.cfi_endproc
 3782              	.LFE2085:
 3783              		.section	.gcc_except_table
 3784              	.LLSDA2085:
 3785 0073 FF       		.byte	0xff
 3786 0074 FF       		.byte	0xff
 3787 0075 01       		.byte	0x1
 3788 0076 13       		.uleb128 .LLSDACSE2085-.LLSDACSB2085
 3789              	.LLSDACSB2085:
 3790 0077 38       		.uleb128 .LEHB20-.LFB2085
 3791 0078 04       		.uleb128 .LEHE20-.LEHB20
 3792 0079 00       		.uleb128 0
 3793 007a 00       		.uleb128 0
 3794 007b 6C       		.uleb128 .LEHB21-.LFB2085
 3795 007c 28       		.uleb128 .LEHE21-.LEHB21
 3796 007d E401     		.uleb128 .L200-.LFB2085
 3797 007f 00       		.uleb128 0
 3798 0080 BC01     		.uleb128 .LEHB22-.LFB2085
 3799 0082 04       		.uleb128 .LEHE22-.LEHB22
 3800 0083 00       		.uleb128 0
 3801 0084 00       		.uleb128 0
 3802 0085 8002     		.uleb128 .LEHB23-.LFB2085
 3803 0087 04       		.uleb128 .LEHE23-.LEHB23
 3804 0088 00       		.uleb128 0
 3805 0089 00       		.uleb128 0
 3806              	.LLSDACSE2085:
 3807              		.section	.text._ZN7sigslot13_signal_base2IP10GuiElementbNS_15single_threadedEE15slot_disconnectEPN
 3808              		.size	_ZN7sigslot13_signal_base2IP10GuiElementbNS_15single_threadedEE15slot_disconnectEPNS_9has_sl
 3809              		.section	".text"
 3810              		.align 2
 3811              		.globl _ZN9Scrollbar20setScrollboxPositionEii
 3812              		.type	_ZN9Scrollbar20setScrollboxPositionEii, @function
 3813              	_ZN9Scrollbar20setScrollboxPositionEii:
 3814              	.LFB1581:
 3815              		.loc 3 351 0
 3816              		.cfi_startproc
 3817              	.LVL279:
 3818 02f8 7C0802A6 		mflr 0
 3819 02fc 9421FFD8 		stwu 1,-40(1)
 3820              	.LCFI70:
 3821              		.cfi_def_cfa_offset 40
 3822              		.cfi_register 65, 0
 3823 0300 93E10024 		stw 31,36(1)
 3824 0304 7C7F1B78 		mr 31,3
 3825              		.cfi_offset 31, -4
 3826 0308 9001002C 		stw 0,44(1)
 3827 030c 93C10020 		stw 30,32(1)
 3828              	.LBB2729:
 3829              		.loc 3 352 0
 3830 0310 880300B8 		lbz 0,184(3)
 3831              		.cfi_offset 30, -8
 3832              		.cfi_offset 65, 4
 3833 0314 2F800000 		cmpwi 7,0,0
 3834 0318 409E00D8 		bne- 7,.L203
 3835              	.LBB2730:
 3836              		.loc 3 354 0
 3837 031c 83C300DC 		lwz 30,220(3)
 3838 0320 3C004330 		lis 0,0x4330
 3839 0324 6C848000 		xoris 4,4,0x8000
 3840              	.LVL280:
 3841 0328 90010008 		stw 0,8(1)
 3842 032c 6FC98000 		xoris 9,30,0x8000
 3843 0330 90010010 		stw 0,16(1)
 3844 0334 91210014 		stw 9,20(1)
 3845 0338 3D200000 		lis 9,.LC1@ha
 3846 033c 9081000C 		stw 4,12(1)
 3847 0340 C0090000 		lfs 0,.LC1@l(9)
 3848 0344 C9A10010 		lfd 13,16(1)
 3849 0348 C8210008 		lfd 1,8(1)
 3850 034c 90A1001C 		stw 5,28(1)
 3851 0350 FC210028 		fsub 1,1,0
 3852 0354 FC0D0028 		fsub 0,13,0
 3853 0358 FC200818 		frsp 1,1
 3854 035c FC000018 		frsp 0,0
 3855 0360 EC210024 		fdivs 1,1,0
 3856 0364 48000001 		bl floor
 3857              	.LVL281:
 3858 0368 39210018 		addi 9,1,24
 3859 036c FC20081E 		fctiwz 1,1
 3860              		.loc 3 356 0
 3861 0370 817F00E4 		lwz 11,228(31)
 3862 0374 38000001 		li 0,1
 3863 0378 2F8B0001 		cmpwi 7,11,1
 3864              		.loc 3 354 0
 3865 037c 7C204FAE 		stfiwx 1,0,9
 3866 0380 81010018 		lwz 8,24(1)
 3867              		.loc 3 356 0
 3868 0384 815F00D0 		lwz 10,208(31)
 3869              		.loc 3 354 0
 3870 0388 5508063E 		rlwinm 8,8,0,0xff
 3871              	.LVL282:
 3872              		.loc 3 356 0
 3873 038c 813F00CC 		lwz 9,204(31)
 3874 0390 7FDE41D6 		mullw 30,30,8
 3875 0394 80A1001C 		lwz 5,28(1)
 3876 0398 7CE95050 		subf 7,9,10
 3877 039c 7FDE2A14 		add 30,30,5
 3878 03a0 7FC7F1D6 		mullw 30,7,30
 3879 03a4 409D0008 		ble- 7,.L204
 3880              		.loc 3 356 0 is_stmt 0 discriminator 1
 3881 03a8 380BFFFF 		addi 0,11,-1
 3882              	.L204:
 3883              		.loc 3 356 0 discriminator 3
 3884 03ac 7C1E03D6 		divw 0,30,0
 3885 03b0 7C090214 		add 0,9,0
 3886              	.LVL283:
 3887              		.loc 3 358 0 is_stmt 1 discriminator 3
 3888 03b4 7F090000 		cmpw 6,9,0
 3889 03b8 40990094 		ble- 6,.L217
 3890              	.LVL284:
 3891              	.L208:
 3892              	.LBE2730:
 3893              	.LBB2731:
 3894              		.loc 3 374 0
 3895 03bc 807F00FC 		lwz 3,252(31)
 3896 03c0 7D254B78 		mr 5,9
 3897 03c4 809F00E8 		lwz 4,232(31)
 3898 03c8 81630000 		lwz 11,0(3)
 3899 03cc 800B00A8 		lwz 0,168(11)
 3900 03d0 7C0903A6 		mtctr 0
 3901 03d4 4E800421 		bctrl
 3902              	.LVL285:
 3903              	.LBE2731:
 3904              	.LBE2729:
 3905              		.loc 3 376 0
 3906 03d8 8001002C 		lwz 0,44(1)
 3907 03dc 83C10020 		lwz 30,32(1)
 3908 03e0 7C0803A6 		mtlr 0
 3909 03e4 83E10024 		lwz 31,36(1)
 3910              	.LVL286:
 3911 03e8 38210028 		addi 1,1,40
 3912              		.cfi_remember_state
 3913              	.LCFI71:
 3914              		.cfi_def_cfa_offset 0
 3915              		.cfi_restore 31
 3916              		.cfi_restore 30
 3917 03ec 4E800020 		blr
 3918              	.LVL287:
 3919              	.L203:
 3920              	.LCFI72:
 3921              		.cfi_restore_state
 3922              	.LBB2734:
 3923              	.LBB2732:
 3924              		.loc 3 367 0
 3925 03f0 816300E4 		lwz 11,228(3)
 3926 03f4 7C852214 		add 4,5,4
 3927              	.LVL288:
 3928 03f8 814300D0 		lwz 10,208(3)
 3929 03fc 38000001 		li 0,1
 3930 0400 2F8B0001 		cmpwi 7,11,1
 3931 0404 812300CC 		lwz 9,204(3)
 3932 0408 7D095050 		subf 8,9,10
 3933 040c 7D0821D6 		mullw 8,8,4
 3934 0410 409D0008 		ble- 7,.L207
 3935              		.loc 3 367 0 is_stmt 0 discriminator 1
 3936 0414 380BFFFF 		addi 0,11,-1
 3937              	.L207:
 3938              		.loc 3 367 0 discriminator 3
 3939 0418 7C0803D6 		divw 0,8,0
 3940 041c 7C090214 		add 0,9,0
 3941              	.LVL289:
 3942              		.loc 3 369 0 is_stmt 1 discriminator 3
 3943 0420 7F090000 		cmpw 6,9,0
 3944 0424 41B9FF98 		bgt- 6,.L208
 3945              		.loc 3 369 0 is_stmt 0 discriminator 1
 3946 0428 40BDFF94 		ble- 7,.L208
 3947              		.loc 3 371 0 is_stmt 1
 3948 042c 7F8A0000 		cmpw 7,10,0
 3949 0430 7D495378 		mr 9,10
 3950 0434 41BCFF88 		blt- 7,.L208
 3951              		.loc 3 371 0 is_stmt 0 discriminator 1
 3952 0438 396BFFFF 		addi 11,11,-1
 3953 043c 7F845800 		cmpw 7,4,11
 3954 0440 40BCFF7C 		bge- 7,.L208
 3955              	.LVL290:
 3956              	.L216:
 3957              		.loc 3 371 0
 3958 0444 7C090378 		mr 9,0
 3959 0448 4BFFFF74 		b .L208
 3960              	.LVL291:
 3961              	.L217:
 3962              	.LBE2732:
 3963              	.LBB2733:
 3964              		.loc 3 358 0 is_stmt 1 discriminator 1
 3965 044c 40BDFF70 		ble- 7,.L208
 3966              		.loc 3 360 0
 3967 0450 7F8A0000 		cmpw 7,10,0
 3968 0454 7D495378 		mr 9,10
 3969 0458 41BCFF64 		blt- 7,.L208
 3970              		.loc 3 360 0 is_stmt 0 discriminator 1
 3971 045c 813F00E0 		lwz 9,224(31)
 3972 0460 396BFFFF 		addi 11,11,-1
 3973 0464 7CA54A14 		add 5,5,9
 3974 0468 7C090378 		mr 9,0
 3975 046c 7F855800 		cmpw 7,5,11
 3976 0470 41BCFF4C 		blt- 7,.L208
 3977              		.loc 3 360 0 discriminator 2
 3978 0474 2B880001 		cmplwi 7,8,1
 3979 0478 7D495378 		mr 9,10
 3980 047c 419DFF40 		bgt+ 7,.L208
 3981 0480 4BFFFFC4 		b .L216
 3982              	.LBE2733:
 3983              	.LBE2734:
 3984              		.cfi_endproc
 3985              	.LFE1581:
 3986              		.size	_ZN9Scrollbar20setScrollboxPositionEii, .-_ZN9Scrollbar20setScrollboxPositionEii
 3987              		.section	.text._ZN10GuiElement10ResetStateEv,"axG",@progbits,_ZN10GuiElement10ResetStateEv,comdat
 3988              		.align 2
 3989              		.weak	_ZN10GuiElement10ResetStateEv
 3990              		.type	_ZN10GuiElement10ResetStateEv, @function
 3991              	_ZN10GuiElement10ResetStateEv:
 3992              	.LFB1497:
 3993              		.loc 2 183 0 is_stmt 1
 3994              		.cfi_startproc
 3995              	.LVL292:
 3996 0000 7C0802A6 		mflr 0
 3997 0004 9421FFF8 		stwu 1,-8(1)
 3998              	.LCFI73:
 3999              		.cfi_def_cfa_offset 8
 4000              		.cfi_register 65, 0
 4001 0008 9001000C 		stw 0,12(1)
 4002              		.loc 2 185 0
 4003 000c 80030048 		lwz 0,72(3)
 4004              		.cfi_offset 65, 4
 4005 0010 2F800004 		cmpwi 7,0,4
 4006 0014 419E001C 		beq- 7,.L218
 4007              	.LVL293:
 4008              	.LBB2737:
 4009              	.LBB2738:
 4010              		.loc 2 186 0
 4011 0018 81230000 		lwz 9,0(3)
 4012 001c 38800000 		li 4,0
 4013 0020 38A0FFFF 		li 5,-1
 4014 0024 80090050 		lwz 0,80(9)
 4015 0028 7C0903A6 		mtctr 0
 4016 002c 4E800421 		bctrl
 4017              	.LVL294:
 4018              	.L218:
 4019              	.LBE2738:
 4020              	.LBE2737:
 4021              		.loc 2 187 0
 4022 0030 8001000C 		lwz 0,12(1)
 4023 0034 38210008 		addi 1,1,8
 4024              	.LCFI74:
 4025              		.cfi_def_cfa_offset 0
 4026 0038 7C0803A6 		mtlr 0
 4027 003c 4E800020 		blr
 4028              		.cfi_endproc
 4029              	.LFE1497:
 4030              		.size	_ZN10GuiElement10ResetStateEv, .-_ZN10GuiElement10ResetStateEv
 4031              		.section	".text"
 4032              		.align 2
 4033              		.type	_ZN9Scrollbar13ScrollOneDownEv.part.5, @function
 4034              	_ZN9Scrollbar13ScrollOneDownEv.part.5:
 4035              	.LFB2112:
 4036              		.loc 3 173 0
 4037              		.cfi_startproc
 4038              	.LVL295:
 4039              	.LBB2739:
 4040              		.loc 3 178 0
 4041 0484 810300D8 		lwz 8,216(3)
 4042 0488 812300D4 		lwz 9,212(3)
 4043              		.loc 3 177 0
 4044 048c 800300DC 		lwz 0,220(3)
 4045              	.LVL296:
 4046              		.loc 3 178 0
 4047 0490 816300E4 		lwz 11,228(3)
 4048 0494 7D484A14 		add 10,8,9
 4049 0498 7D405214 		add 10,0,10
 4050 049c 7F8B5000 		cmpw 7,11,10
 4051 04a0 419D0058 		bgt- 7,.L221
 4052 04a4 2F800000 		cmpwi 7,0,0
 4053 04a8 4C9D0020 		blelr- 7
 4054 04ac 2F890000 		cmpwi 7,9,0
 4055 04b0 4C9D0020 		blelr- 7
 4056 04b4 7F805800 		cmpw 7,0,11
 4057              		.loc 3 173 0
 4058 04b8 7CC04850 		subf 6,0,9
 4059 04bc 7CE80214 		add 7,8,0
 4060              		.loc 3 178 0
 4061 04c0 4C9C0020 		bgelr- 7
 4062              	.LVL297:
 4063              		.loc 3 181 0
 4064 04c4 3929FFFF 		addi 9,9,-1
 4065              		.loc 3 173 0
 4066 04c8 7D474A14 		add 10,7,9
 4067              		.loc 3 178 0
 4068 04cc 7F093000 		cmpw 6,9,6
 4069 04d0 7F8A5800 		cmpw 7,10,11
 4070 04d4 419C0024 		blt- 7,.L221
 4071              	.L225:
 4072 04d8 2F890000 		cmpwi 7,9,0
 4073 04dc 419A0038 		beq- 6,.L227
 4074 04e0 419E0034 		beq- 7,.L227
 4075              		.loc 3 181 0
 4076 04e4 3929FFFF 		addi 9,9,-1
 4077              		.loc 3 173 0
 4078 04e8 7D474A14 		add 10,7,9
 4079              		.loc 3 178 0
 4080 04ec 7F093000 		cmpw 6,9,6
 4081 04f0 7F8A5800 		cmpw 7,10,11
 4082 04f4 40BCFFE4 		bge- 7,.L225
 4083              	.L221:
 4084              		.loc 3 186 0
 4085 04f8 814300E0 		lwz 10,224(3)
 4086              		.loc 3 185 0
 4087 04fc 7D604A14 		add 11,0,9
 4088 0500 916300D4 		stw 11,212(3)
 4089              		.loc 3 186 0
 4090 0504 7F8B5000 		cmpw 7,11,10
 4091 0508 4D9C0020 		bltlr- 7
 4092              		.loc 3 189 0
 4093 050c 7C004214 		add 0,0,8
 4094 0510 900300D8 		stw 0,216(3)
 4095              	.L227:
 4096              		.loc 3 190 0
 4097 0514 912300D4 		stw 9,212(3)
 4098 0518 4E800020 		blr
 4099              	.LBE2739:
 4100              		.cfi_endproc
 4101              	.LFE2112:
 4102              		.size	_ZN9Scrollbar13ScrollOneDownEv.part.5, .-_ZN9Scrollbar13ScrollOneDownEv.part.5
 4103              		.section	.text._ZN7sigslot13_signal_base2IiiNS_15single_threadedEE14slot_duplicateEPKNS_9has_slots
 4104              		.align 2
 4105              		.weak	_ZN7sigslot13_signal_base2IiiNS_15single_threadedEE14slot_duplicateEPKNS_9has_slotsIS1_EEPS4
 4106              		.type	_ZN7sigslot13_signal_base2IiiNS_15single_threadedEE14slot_duplicateEPKNS_9has_slotsIS1_EEPS4
 4107              	_ZN7sigslot13_signal_base2IiiNS_15single_threadedEE14slot_duplicateEPKNS_9has_slotsIS1_EEPS4_:
 4108              	.LFB2082:
 4109              		.loc 1 806 0
 4110              		.cfi_startproc
 4111              		.cfi_personality 0,__gxx_personality_v0
 4112              		.cfi_lsda 0,.LLSDA2082
 4113              	.LVL298:
 4114 0000 7C0802A6 		mflr 0
 4115 0004 9421FFE0 		stwu 1,-32(1)
 4116              	.LCFI75:
 4117              		.cfi_def_cfa_offset 32
 4118              		.cfi_register 65, 0
 4119 0008 93410008 		stw 26,8(1)
 4120 000c 7CBA2B78 		mr 26,5
 4121              		.cfi_offset 26, -24
 4122 0010 90010024 		stw 0,36(1)
 4123 0014 9361000C 		stw 27,12(1)
 4124 0018 7C7B1B78 		mr 27,3
 4125              		.cfi_offset 27, -20
 4126              		.cfi_offset 65, 4
 4127              	.LVL299:
 4128              	.LBB2770:
 4129              	.LBB2771:
 4130              	.LBB2772:
 4131              		.loc 1 338 0
 4132 001c 81230000 		lwz 9,0(3)
 4133              	.LBE2772:
 4134              	.LBE2771:
 4135              	.LBE2770:
 4136              		.loc 1 806 0
 4137 0020 93A10014 		stw 29,20(1)
 4138 0024 7C9D2378 		mr 29,4
 4139              		.cfi_offset 29, -12
 4140              	.LBB2801:
 4141              	.LBB2777:
 4142              	.LBB2773:
 4143              		.loc 1 338 0
 4144 0028 80090008 		lwz 0,8(9)
 4145              	.LBE2773:
 4146              	.LBE2777:
 4147              	.LBE2801:
 4148              		.loc 1 806 0
 4149 002c 93C10018 		stw 30,24(1)
 4150              	.LBB2802:
 4151              	.LBB2778:
 4152              	.LBB2774:
 4153              		.loc 3 483 0
 4154 0030 7F7EDB78 		mr 30,27
 4155              		.cfi_offset 30, -8
 4156              	.LBE2774:
 4157              	.LBE2778:
 4158              	.LBE2802:
 4159              		.loc 1 806 0
 4160 0034 93E1001C 		stw 31,28(1)
 4161              	.LBB2803:
 4162              	.LBB2779:
 4163              	.LBB2775:
 4164              		.loc 1 338 0
 4165 0038 7C0903A6 		mtctr 0
 4166              	.LBE2775:
 4167              	.LBE2779:
 4168              	.LBE2803:
 4169              		.loc 1 806 0
 4170 003c 93810010 		stw 28,16(1)
 4171              	.LEHB24:
 4172              	.LBB2804:
 4173              	.LBB2780:
 4174              	.LBB2776:
 4175              		.loc 1 338 0
 4176              		.cfi_offset 28, -16
 4177              		.cfi_offset 31, -4
 4178 0040 4E800421 		bctrl
 4179              	.LEHE24:
 4180              	.LVL300:
 4181              		.loc 3 483 0
 4182 0044 87FE0004 		lwzu 31,4(30)
 4183              	.LVL301:
 4184              	.LBE2776:
 4185              	.LBE2780:
 4186              		.loc 1 812 0
 4187 0048 7F9FF000 		cmpw 7,31,30
 4188 004c 40BE0014 		bne+ 7,.L238
 4189 0050 48000070 		b .L229
 4190              	.LVL302:
 4191              	.L230:
 4192              	.LBB2781:
 4193              	.LBB2782:
 4194              		.loc 4 154 0
 4195 0054 83FF0000 		lwz 31,0(31)
 4196              	.LVL303:
 4197              	.LBE2782:
 4198              	.LBE2781:
 4199              		.loc 1 812 0
 4200 0058 7F9EF800 		cmpw 7,30,31
 4201 005c 419E0064 		beq- 7,.L229
 4202              	.LVL304:
 4203              	.L238:
 4204              		.loc 1 814 0
 4205 0060 807F0008 		lwz 3,8(31)
 4206 0064 81230000 		lwz 9,0(3)
 4207 0068 80090008 		lwz 0,8(9)
 4208 006c 7C0903A6 		mtctr 0
 4209              	.LEHB25:
 4210 0070 4E800421 		bctrl
 4211 0074 7F9D1800 		cmpw 7,29,3
 4212 0078 409EFFDC 		bne+ 7,.L230
 4213              	.LVL305:
 4214              		.loc 1 816 0
 4215 007c 807F0008 		lwz 3,8(31)
 4216 0080 7F44D378 		mr 4,26
 4217 0084 81230000 		lwz 9,0(3)
 4218 0088 80090014 		lwz 0,20(9)
 4219 008c 7C0903A6 		mtctr 0
 4220 0090 4E800421 		bctrl
 4221 0094 7C7C1B78 		mr 28,3
 4222              	.LVL306:
 4223              	.LBB2784:
 4224              	.LBB2785:
 4225              	.LBB2786:
 4226              	.LBB2787:
 4227              	.LBB2788:
 4228              	.LBB2789:
 4229              	.LBB2790:
 4230              	.LBB2791:
 4231              		.loc 6 92 0
 4232 0098 3860000C 		li 3,12
 4233 009c 48000001 		bl _Znwj
 4234              	.LEHE25:
 4235              	.LVL307:
 4236              	.LBE2791:
 4237              	.LBE2790:
 4238              	.LBE2789:
 4239              	.LBB2792:
 4240              	.LBB2793:
 4241              		.loc 6 108 0 discriminator 1
 4242 00a0 2F83FFF8 		cmpwi 7,3,-8
 4243 00a4 419E0008 		beq- 7,.L232
 4244              		.loc 6 108 0 is_stmt 0
 4245 00a8 93830008 		stw 28,8(3)
 4246              	.L232:
 4247              	.LVL308:
 4248              	.LBE2793:
 4249              	.LBE2792:
 4250              	.LBE2788:
 4251              	.LBE2787:
 4252              		.loc 4 1516 0 is_stmt 1
 4253 00ac 7FC4F378 		mr 4,30
 4254 00b0 48000001 		bl _ZNSt8__detail15_List_node_base7_M_hookEPS0_
 4255              	.LVL309:
 4256              	.LBE2786:
 4257              	.LBE2785:
 4258              	.LBE2784:
 4259              	.LBB2794:
 4260              	.LBB2783:
 4261              		.loc 4 154 0
 4262 00b4 83FF0000 		lwz 31,0(31)
 4263              	.LVL310:
 4264              	.LBE2783:
 4265              	.LBE2794:
 4266              		.loc 1 812 0
 4267 00b8 7F9EF800 		cmpw 7,30,31
 4268 00bc 409EFFA4 		bne+ 7,.L238
 4269              	.LVL311:
 4270              	.L229:
 4271              	.LBB2795:
 4272              	.LBB2796:
 4273              	.LBB2797:
 4274              		.loc 1 343 0
 4275 00c0 813B0000 		lwz 9,0(27)
 4276 00c4 7F63DB78 		mr 3,27
 4277 00c8 8009000C 		lwz 0,12(9)
 4278 00cc 7C0903A6 		mtctr 0
 4279              	.LEHB26:
 4280 00d0 4E800421 		bctrl
 4281              	.LEHE26:
 4282              	.LBE2797:
 4283              	.LBE2796:
 4284              	.LBE2795:
 4285              	.LBE2804:
 4286              		.loc 1 821 0
 4287 00d4 80010024 		lwz 0,36(1)
 4288 00d8 83410008 		lwz 26,8(1)
 4289              	.LVL312:
 4290 00dc 7C0803A6 		mtlr 0
 4291 00e0 8361000C 		lwz 27,12(1)
 4292              	.LVL313:
 4293 00e4 83810010 		lwz 28,16(1)
 4294 00e8 83A10014 		lwz 29,20(1)
 4295              	.LVL314:
 4296 00ec 83C10018 		lwz 30,24(1)
 4297              	.LVL315:
 4298 00f0 83E1001C 		lwz 31,28(1)
 4299              	.LVL316:
 4300 00f4 38210020 		addi 1,1,32
 4301              		.cfi_remember_state
 4302              	.LCFI76:
 4303              		.cfi_def_cfa_offset 0
 4304              		.cfi_restore 31
 4305              		.cfi_restore 30
 4306              		.cfi_restore 29
 4307              		.cfi_restore 28
 4308              		.cfi_restore 27
 4309              		.cfi_restore 26
 4310 00f8 4E800020 		blr
 4311              	.LVL317:
 4312              	.L237:
 4313              	.LCFI77:
 4314              		.cfi_restore_state
 4315              	.LBB2805:
 4316              	.LBB2798:
 4317              	.LBB2799:
 4318              	.LBB2800:
 4319              		.loc 1 343 0
 4320 00fc 813B0000 		lwz 9,0(27)
 4321 0100 7C7F1B78 		mr 31,3
 4322              	.LVL318:
 4323 0104 7F63DB78 		mr 3,27
 4324 0108 8009000C 		lwz 0,12(9)
 4325 010c 7C0903A6 		mtctr 0
 4326 0110 4E800421 		bctrl
 4327 0114 7FE3FB78 		mr 3,31
 4328              	.LEHB27:
 4329 0118 48000001 		bl _Unwind_Resume
 4330              	.LEHE27:
 4331              	.LBE2800:
 4332              	.LBE2799:
 4333              	.LBE2798:
 4334              	.LBE2805:
 4335              		.cfi_endproc
 4336              	.LFE2082:
 4337              		.section	.gcc_except_table
 4338              	.LLSDA2082:
 4339 008a FF       		.byte	0xff
 4340 008b FF       		.byte	0xff
 4341 008c 01       		.byte	0x1
 4342 008d 13       		.uleb128 .LLSDACSE2082-.LLSDACSB2082
 4343              	.LLSDACSB2082:
 4344 008e 40       		.uleb128 .LEHB24-.LFB2082
 4345 008f 04       		.uleb128 .LEHE24-.LEHB24
 4346 0090 00       		.uleb128 0
 4347 0091 00       		.uleb128 0
 4348 0092 70       		.uleb128 .LEHB25-.LFB2082
 4349 0093 30       		.uleb128 .LEHE25-.LEHB25
 4350 0094 FC01     		.uleb128 .L237-.LFB2082
 4351 0096 00       		.uleb128 0
 4352 0097 D001     		.uleb128 .LEHB26-.LFB2082
 4353 0099 04       		.uleb128 .LEHE26-.LEHB26
 4354 009a 00       		.uleb128 0
 4355 009b 00       		.uleb128 0
 4356 009c 9802     		.uleb128 .LEHB27-.LFB2082
 4357 009e 04       		.uleb128 .LEHE27-.LEHB27
 4358 009f 00       		.uleb128 0
 4359 00a0 00       		.uleb128 0
 4360              	.LLSDACSE2082:
 4361              		.section	.text._ZN7sigslot13_signal_base2IiiNS_15single_threadedEE14slot_duplicateEPKNS_9has_slots
 4362              		.size	_ZN7sigslot13_signal_base2IiiNS_15single_threadedEE14slot_duplicateEPKNS_9has_slotsIS1_EEPS4
 4363              		.section	".text"
 4364              		.align 2
 4365              		.globl _ZN9Scrollbar15OnBoxButtonHoldEP9GuiButtoniRK6_POINT
 4366              		.type	_ZN9Scrollbar15OnBoxButtonHoldEP9GuiButtoniRK6_POINT, @function
 4367              	_ZN9Scrollbar15OnBoxButtonHoldEP9GuiButtoniRK6_POINT:
 4368              	.LFB1574:
 4369              		.loc 3 234 0
 4370              		.cfi_startproc
 4371              		.cfi_personality 0,__gxx_personality_v0
 4372              		.cfi_lsda 0,.LLSDA1574
 4373              	.LVL319:
 4374 051c 7C0802A6 		mflr 0
 4375 0520 9421FFA8 		stwu 1,-88(1)
 4376              	.LCFI78:
 4377              		.cfi_def_cfa_offset 88
 4378              		.cfi_register 65, 0
 4379 0524 93C10050 		stw 30,80(1)
 4380 0528 7C7E1B78 		mr 30,3
 4381              		.cfi_offset 30, -8
 4382 052c 9001005C 		stw 0,92(1)
 4383 0530 9321003C 		stw 25,60(1)
 4384              	.LBB2835:
 4385              		.loc 3 235 0
 4386 0534 A00300C0 		lhz 0,192(3)
 4387              		.cfi_offset 25, -28
 4388              		.cfi_offset 65, 4
 4389 0538 812300BC 		lwz 9,188(3)
 4390              	.LBE2835:
 4391              		.loc 3 234 0
 4392 053c 93410040 		stw 26,64(1)
 4393              	.LBB2836:
 4394              		.loc 3 235 0
 4395 0540 7F890040 		cmplw 7,9,0
 4396              	.LBE2836:
 4397              		.loc 3 234 0
 4398 0544 93610044 		stw 27,68(1)
 4399 0548 93810048 		stw 28,72(1)
 4400 054c 93A1004C 		stw 29,76(1)
 4401 0550 93E10054 		stw 31,84(1)
 4402              	.LBB2837:
 4403              		.loc 3 235 0
 4404 0554 419C0024 		blt- 7,.L240
 4405              		.cfi_offset 31, -4
 4406              		.cfi_offset 29, -12
 4407              		.cfi_offset 28, -16
 4408              		.cfi_offset 27, -20
 4409              		.cfi_offset 26, -24
 4410              		.loc 3 238 0
 4411 0558 1CA50170 		mulli 5,5,368
 4412              	.LVL320:
 4413 055c 3D200000 		lis 9,userInput@ha
 4414 0560 38090000 		la 0,userInput@l(9)
 4415 0564 7CA02A14 		add 5,0,5
 4416 0568 8125000C 		lwz 9,12(5)
 4417 056c 800900AC 		lwz 0,172(9)
 4418 0570 2F800000 		cmpwi 7,0,0
 4419 0574 409E0030 		bne- 7,.L273
 4420              	.L240:
 4421              	.LBE2837:
 4422              		.loc 3 293 0
 4423 0578 8001005C 		lwz 0,92(1)
 4424 057c 8321003C 		lwz 25,60(1)
 4425 0580 7C0803A6 		mtlr 0
 4426 0584 83410040 		lwz 26,64(1)
 4427 0588 83610044 		lwz 27,68(1)
 4428 058c 83810048 		lwz 28,72(1)
 4429 0590 83A1004C 		lwz 29,76(1)
 4430 0594 83C10050 		lwz 30,80(1)
 4431 0598 83E10054 		lwz 31,84(1)
 4432 059c 38210058 		addi 1,1,88
 4433              		.cfi_remember_state
 4434              	.LCFI79:
 4435              		.cfi_def_cfa_offset 0
 4436              		.cfi_restore 31
 4437              		.cfi_restore 30
 4438              		.cfi_restore 29
 4439              		.cfi_restore 28
 4440              		.cfi_restore 27
 4441              		.cfi_restore 26
 4442              		.cfi_restore 25
 4443 05a0 4E800020 		blr
 4444              	.L273:
 4445              	.LCFI80:
 4446              		.cfi_restore_state
 4447              	.LVL321:
 4448              	.LBB2838:
 4449              	.LBB2839:
 4450              	.LBB2840:
 4451              		.loc 3 241 0
 4452 05a4 81230000 		lwz 9,0(3)
 4453 05a8 83E60004 		lwz 31,4(6)
 4454 05ac 80090014 		lwz 0,20(9)
 4455 05b0 7C0903A6 		mtctr 0
 4456              	.LEHB28:
 4457 05b4 4E800421 		bctrl
 4458              	.LVL322:
 4459 05b8 813E00FC 		lwz 9,252(30)
 4460 05bc 7FE3F850 		subf 31,3,31
 4461 05c0 81690000 		lwz 11,0(9)
 4462 05c4 7D234B78 		mr 3,9
 4463 05c8 800B0028 		lwz 0,40(11)
 4464 05cc 7C0903A6 		mtctr 0
 4465 05d0 4E800421 		bctrl
 4466              	.LVL323:
 4467              	.LBB2841:
 4468              		.loc 3 243 0
 4469 05d4 801E00CC 		lwz 0,204(30)
 4470              	.LBE2841:
 4471              		.loc 3 241 0
 4472 05d8 7C630E70 		srawi 3,3,1
 4473 05dc 7C630194 		addze 3,3
 4474              	.LVL324:
 4475              	.LBB2842:
 4476              		.loc 3 243 0
 4477 05e0 813E00D0 		lwz 9,208(30)
 4478              	.LBE2842:
 4479              		.loc 3 241 0
 4480 05e4 7FE3F850 		subf 31,3,31
 4481              	.LVL325:
 4482              	.LBB2843:
 4483              		.loc 3 243 0
 4484 05e8 7FE0F851 		subf. 31,0,31
 4485              	.LVL326:
 4486 05ec 7C004850 		subf 0,0,9
 4487              	.LVL327:
 4488 05f0 418001FC 		blt- 0,.L266
 4489 05f4 7F9F0000 		cmpw 7,31,0
 4490 05f8 409D0008 		ble- 7,.L243
 4491 05fc 7C1F0378 		mr 31,0
 4492              	.LVL328:
 4493              	.L243:
 4494 0600 6FFF8000 		xoris 31,31,0x8000
 4495 0604 3D204330 		lis 9,0x4330
 4496 0608 93E1000C 		stw 31,12(1)
 4497 060c 3D600000 		lis 11,.LC1@ha
 4498 0610 91210008 		stw 9,8(1)
 4499 0614 C00B0000 		lfs 0,.LC1@l(11)
 4500 0618 C9810008 		lfd 12,8(1)
 4501 061c FD8C0028 		fsub 12,12,0
 4502 0620 FD806018 		frsp 12,12
 4503              	.L242:
 4504              	.LBE2843:
 4505              		.loc 3 245 0
 4506 0624 3D204330 		lis 9,0x4330
 4507 0628 6C008000 		xoris 0,0,0x8000
 4508              	.LVL329:
 4509 062c 90010014 		stw 0,20(1)
 4510 0630 91210010 		stw 9,16(1)
 4511 0634 C00B0000 		lfs 0,.LC1@l(11)
 4512 0638 39610034 		addi 11,1,52
 4513 063c C9A10010 		lfd 13,16(1)
 4514 0640 833E00E4 		lwz 25,228(30)
 4515 0644 FDAD0028 		fsub 13,13,0
 4516 0648 91210018 		stw 9,24(1)
 4517 064c 3B59FFFF 		addi 26,25,-1
 4518 0650 6F408000 		xoris 0,26,0x8000
 4519              	.LVL330:
 4520 0654 FDA06818 		frsp 13,13
 4521 0658 9001001C 		stw 0,28(1)
 4522              	.LBB2844:
 4523              		.loc 3 247 0
 4524 065c 881E00B8 		lbz 0,184(30)
 4525              	.LBE2844:
 4526              		.loc 3 245 0
 4527 0660 ED8C6824 		fdivs 12,12,13
 4528 0664 C9A10018 		lfd 13,24(1)
 4529              	.LBB2874:
 4530              		.loc 3 247 0
 4531 0668 2F800000 		cmpwi 7,0,0
 4532              	.LBE2874:
 4533              		.loc 3 245 0
 4534 066c FDAD0028 		fsub 13,13,0
 4535 0670 FDA06818 		frsp 13,13
 4536 0674 EDAC0372 		fmuls 13,12,13
 4537 0678 FDA0681E 		fctiwz 13,13
 4538 067c 7DA05FAE 		stfiwx 13,0,11
 4539 0680 83A10034 		lwz 29,52(1)
 4540              	.LVL331:
 4541              	.LBB2875:
 4542              		.loc 3 247 0
 4543 0684 409E0178 		bne- 7,.L244
 4544              	.LBB2845:
 4545              		.loc 3 249 0
 4546 0688 837E00D8 		lwz 27,216(30)
 4547 068c 839E00D4 		lwz 28,212(30)
 4548 0690 83FE00DC 		lwz 31,220(30)
 4549 0694 7D7BE850 		subf 11,27,29
 4550              	.LVL332:
 4551 0698 7D7C5850 		subf 11,28,11
 4552 069c 91210020 		stw 9,32(1)
 4553 06a0 6D6B8000 		xoris 11,11,0x8000
 4554 06a4 6FE08000 		xoris 0,31,0x8000
 4555 06a8 91610024 		stw 11,36(1)
 4556 06ac 91210028 		stw 9,40(1)
 4557 06b0 9001002C 		stw 0,44(1)
 4558 06b4 C8210020 		lfd 1,32(1)
 4559 06b8 C9A10028 		lfd 13,40(1)
 4560 06bc FC210028 		fsub 1,1,0
 4561 06c0 FC0D0028 		fsub 0,13,0
 4562 06c4 FC200818 		frsp 1,1
 4563 06c8 FC000018 		frsp 0,0
 4564 06cc EC210024 		fdivs 1,1,0
 4565 06d0 48000001 		bl floor
 4566              	.LVL333:
 4567 06d4 39210030 		addi 9,1,48
 4568 06d8 FC20081E 		fctiwz 1,1
 4569              		.loc 3 251 0
 4570 06dc 815E00E0 		lwz 10,224(30)
 4571 06e0 7D4AC850 		subf 10,10,25
 4572              		.loc 3 249 0
 4573 06e4 7C204FAE 		stfiwx 1,0,9
 4574              		.loc 3 251 0
 4575 06e8 7D5F5214 		add 10,31,10
 4576              		.loc 3 249 0
 4577 06ec 81210030 		lwz 9,48(1)
 4578              	.LVL334:
 4579              		.loc 3 251 0
 4580 06f0 7D7F49D6 		mullw 11,31,9
 4581 06f4 7D7B5A14 		add 11,27,11
 4582 06f8 7F8A5800 		cmpw 7,10,11
 4583 06fc 419D0028 		bgt- 7,.L245
 4584              		.loc 3 233 0
 4585 0700 3809FFFF 		addi 0,9,-1
 4586 0704 7D1F00D0 		neg 8,31
 4587 0708 7C00F9D6 		mullw 0,0,31
 4588 070c 7C00DA14 		add 0,0,27
 4589              	.LVL335:
 4590              	.L246:
 4591              		.loc 3 251 0
 4592 0710 7C0B0378 		mr 11,0
 4593 0714 7C004214 		add 0,0,8
 4594              		.loc 3 233 0
 4595 0718 7D20FA14 		add 9,0,31
 4596              		.loc 3 251 0
 4597 071c 7F895000 		cmpw 7,9,10
 4598 0720 409CFFF0 		bge+ 7,.L246
 4599              	.L245:
 4600              	.LVL336:
 4601              	.LBB2846:
 4602              		.loc 3 254 0
 4603 0724 2F8B0000 		cmpwi 7,11,0
 4604 0728 3B600000 		li 27,0
 4605 072c 419C0014 		blt- 7,.L247
 4606 0730 7FFFD050 		subf 31,31,26
 4607              	.LVL337:
 4608 0734 7D7B5B78 		mr 27,11
 4609 0738 7F8BF800 		cmpw 7,11,31
 4610 073c 419D0150 		bgt- 7,.L274
 4611              	.LVL338:
 4612              	.L247:
 4613              	.LBE2846:
 4614              		.loc 3 256 0
 4615 0740 2F9D0000 		cmpwi 7,29,0
 4616 0744 409D0188 		ble- 7,.L275
 4617              		.loc 3 258 0
 4618 0748 7F9AE800 		cmpw 7,26,29
 4619 074c 409D0134 		ble- 7,.L276
 4620              	.LVL339:
 4621              	.L259:
 4622              	.LBE2845:
 4623              	.LBB2848:
 4624              	.LBB2849:
 4625              	.LBB2850:
 4626              	.LBB2851:
 4627              	.LBB2852:
 4628              	.LBB2853:
 4629              		.loc 3 287 0
 4630 0750 937E00D8 		stw 27,216(30)
 4631              	.L251:
 4632              	.LBE2853:
 4633              	.LBE2852:
 4634              	.LBE2851:
 4635              	.LBE2850:
 4636              	.LBE2849:
 4637              	.LBE2848:
 4638              	.LBE2875:
 4639              	.LBB2876:
 4640              	.LBB2877:
 4641              	.LBB2878:
 4642              	.LBB2879:
 4643              		.loc 1 338 0
 4644 0754 813E00AC 		lwz 9,172(30)
 4645              	.LBE2879:
 4646              	.LBE2878:
 4647              	.LBE2877:
 4648              	.LBE2876:
 4649              		.loc 3 291 0
 4650 0758 38000000 		li 0,0
 4651 075c 901E00BC 		stw 0,188(30)
 4652              	.LVL340:
 4653              	.LBB2896:
 4654              	.LBB2892:
 4655              		.loc 1 2270 0
 4656 0760 3B5E00AC 		addi 26,30,172
 4657              	.LVL341:
 4658              	.LBB2882:
 4659              	.LBB2880:
 4660              		.loc 1 338 0
 4661 0764 80090008 		lwz 0,8(9)
 4662 0768 7F43D378 		mr 3,26
 4663              	.LBE2880:
 4664              	.LBE2882:
 4665              	.LBE2892:
 4666              		.loc 3 483 0
 4667 076c 7FDDF378 		mr 29,30
 4668              	.LBB2893:
 4669              	.LBB2883:
 4670              	.LBB2881:
 4671              		.loc 1 338 0
 4672 0770 7C0903A6 		mtctr 0
 4673 0774 4E800421 		bctrl
 4674              	.LEHE28:
 4675              	.LVL342:
 4676              	.LBE2881:
 4677              	.LBE2883:
 4678              	.LBE2893:
 4679              		.loc 3 483 0
 4680 0778 87FD00B0 		lwzu 31,176(29)
 4681              	.LVL343:
 4682              	.LBB2894:
 4683              		.loc 1 2274 0
 4684 077c 7F9FE800 		cmpw 7,31,29
 4685 0780 419E002C 		beq- 7,.L262
 4686              	.LVL344:
 4687              	.L272:
 4688              		.loc 1 2279 0
 4689 0784 807F0008 		lwz 3,8(31)
 4690 0788 7F84E378 		mr 4,28
 4691 078c 7F65DB78 		mr 5,27
 4692              	.LBB2884:
 4693              	.LBB2885:
 4694              		.loc 4 234 0
 4695 0790 83FF0000 		lwz 31,0(31)
 4696              	.LVL345:
 4697              	.LBE2885:
 4698              	.LBE2884:
 4699              		.loc 1 2279 0
 4700 0794 81230000 		lwz 9,0(3)
 4701 0798 8009000C 		lwz 0,12(9)
 4702 079c 7C0903A6 		mtctr 0
 4703              	.LEHB29:
 4704 07a0 4E800421 		bctrl
 4705              	.LEHE29:
 4706              	.LVL346:
 4707              		.loc 1 2274 0
 4708 07a4 7F9DF800 		cmpw 7,29,31
 4709 07a8 409EFFDC 		bne+ 7,.L272
 4710              	.LVL347:
 4711              	.L262:
 4712              	.LBB2886:
 4713              	.LBB2887:
 4714              	.LBB2888:
 4715              		.loc 1 343 0
 4716 07ac 813E00AC 		lwz 9,172(30)
 4717 07b0 7F43D378 		mr 3,26
 4718 07b4 8009000C 		lwz 0,12(9)
 4719 07b8 7C0903A6 		mtctr 0
 4720              	.LEHB30:
 4721 07bc 4E800421 		bctrl
 4722              	.LEHE30:
 4723              	.LBE2888:
 4724              	.LBE2887:
 4725              	.LBE2886:
 4726              	.LBE2894:
 4727              	.LBE2896:
 4728              	.LBE2840:
 4729              	.LBE2839:
 4730              	.LBE2838:
 4731              		.loc 3 293 0
 4732 07c0 8001005C 		lwz 0,92(1)
 4733 07c4 8321003C 		lwz 25,60(1)
 4734 07c8 7C0803A6 		mtlr 0
 4735 07cc 83410040 		lwz 26,64(1)
 4736 07d0 83610044 		lwz 27,68(1)
 4737              	.LVL348:
 4738 07d4 83810048 		lwz 28,72(1)
 4739              	.LVL349:
 4740 07d8 83A1004C 		lwz 29,76(1)
 4741 07dc 83C10050 		lwz 30,80(1)
 4742              	.LVL350:
 4743 07e0 83E10054 		lwz 31,84(1)
 4744              	.LVL351:
 4745 07e4 38210058 		addi 1,1,88
 4746              		.cfi_remember_state
 4747              		.cfi_restore 25
 4748              		.cfi_restore 26
 4749              		.cfi_restore 27
 4750              		.cfi_restore 28
 4751              		.cfi_restore 29
 4752              		.cfi_restore 30
 4753              		.cfi_restore 31
 4754              	.LCFI81:
 4755              		.cfi_def_cfa_offset 0
 4756 07e8 4E800020 		blr
 4757              	.LVL352:
 4758              	.L266:
 4759              	.LCFI82:
 4760              		.cfi_restore_state
 4761              	.LBB2902:
 4762              	.LBB2901:
 4763              	.LBB2900:
 4764              	.LBB2897:
 4765              		.loc 3 243 0
 4766 07ec 3D200000 		lis 9,.LC4@ha
 4767 07f0 3D600000 		lis 11,.LC1@ha
 4768 07f4 C189000C 		lfs 12,.LC4@l(9)
 4769 07f8 4BFFFE2C 		b .L242
 4770              	.LVL353:
 4771              	.L244:
 4772              	.LBE2897:
 4773              	.LBB2898:
 4774              	.LBB2869:
 4775              	.LBB2864:
 4776              		.loc 3 267 0
 4777 07fc 2F9D0000 		cmpwi 7,29,0
 4778              	.LBE2864:
 4779              		.loc 3 265 0
 4780 0800 837E00D8 		lwz 27,216(30)
 4781 0804 839E00D4 		lwz 28,212(30)
 4782              	.LVL354:
 4783              	.LBB2865:
 4784              		.loc 3 267 0
 4785 0808 409D00AC 		ble- 7,.L277
 4786              	.LBB2860:
 4787              		.loc 3 272 0
 4788 080c 7F9AE800 		cmpw 7,26,29
 4789              		.loc 3 274 0
 4790 0810 813E00E0 		lwz 9,224(30)
 4791              		.loc 3 272 0
 4792 0814 409D0080 		ble- 7,.L278
 4793              	.LBB2857:
 4794              		.loc 3 277 0
 4795 0818 7F9D4800 		cmpw 7,29,9
 4796              	.LBE2857:
 4797              	.LBE2860:
 4798              	.LBE2865:
 4799              		.loc 3 265 0
 4800 081c 7D7BE850 		subf 11,27,29
 4801 0820 7C1C5850 		subf 0,28,11
 4802              	.LBB2866:
 4803              	.LBB2861:
 4804              	.LBB2858:
 4805              		.loc 3 277 0
 4806 0824 409C0014 		bge- 7,.L255
 4807 0828 2F9B0000 		cmpwi 7,27,0
 4808 082c 409E000C 		bne- 7,.L255
 4809 0830 2F800000 		cmpwi 7,0,0
 4810 0834 419C00CC 		blt- 7,.L279
 4811              	.L255:
 4812              	.LBB2855:
 4813              		.loc 3 281 0
 4814 0838 7FBDC850 		subf 29,29,25
 4815              	.LVL355:
 4816 083c 7F89E800 		cmpw 7,9,29
 4817 0840 409D0010 		ble- 7,.L257
 4818 0844 7D49C850 		subf 10,9,25
 4819 0848 7F9B5000 		cmpw 7,27,10
 4820 084c 419E0090 		beq- 7,.L280
 4821              	.L257:
 4822              	.LVL356:
 4823              	.LBB2854:
 4824              		.loc 3 287 0
 4825 0850 7C1B0215 		add. 0,27,0
 4826              	.LVL357:
 4827 0854 3B600000 		li 27,0
 4828 0858 41A0FEF8 		blt- 0,.L259
 4829 085c 7D29C850 		subf 9,9,25
 4830 0860 7C1B0378 		mr 27,0
 4831 0864 7D2B48F8 		nor 11,9,9
 4832 0868 7D6BFE70 		srawi 11,11,31
 4833 086c 7D295838 		and 9,9,11
 4834 0870 7F804800 		cmpw 7,0,9
 4835 0874 40BDFEDC 		ble- 7,.L259
 4836 0878 7D3B4B78 		mr 27,9
 4837 087c 4BFFFED4 		b .L259
 4838              	.LVL358:
 4839              	.L276:
 4840              	.LBE2854:
 4841              	.LBE2855:
 4842              	.LBE2858:
 4843              	.LBE2861:
 4844              	.LBE2866:
 4845              	.LBE2869:
 4846              	.LBB2870:
 4847              		.loc 3 259 0
 4848 0880 7F9BD050 		subf 28,27,26
 4849 0884 939E00D4 		stw 28,212(30)
 4850 0888 4BFFFEC8 		b .L259
 4851              	.LVL359:
 4852              	.L274:
 4853              	.LBB2847:
 4854              		.loc 3 254 0
 4855 088c 7FFBFB78 		mr 27,31
 4856 0890 4BFFFEB0 		b .L247
 4857              	.LVL360:
 4858              	.L278:
 4859              	.LBE2847:
 4860              	.LBE2870:
 4861              	.LBB2871:
 4862              	.LBB2867:
 4863              	.LBB2862:
 4864              		.loc 3 274 0
 4865 0894 7F994800 		cmpw 7,25,9
 4866 0898 409D0008 		ble- 7,.L254
 4867 089c 3B49FFFF 		addi 26,9,-1
 4868              	.L254:
 4869              		.loc 3 275 0
 4870 08a0 7F69C850 		subf 27,9,25
 4871              	.LVL361:
 4872              		.loc 3 274 0
 4873 08a4 935E00D4 		stw 26,212(30)
 4874              		.loc 3 275 0
 4875 08a8 937E00D8 		stw 27,216(30)
 4876 08ac 7F5CD378 		mr 28,26
 4877              	.LVL362:
 4878 08b0 4BFFFEA4 		b .L251
 4879              	.L277:
 4880              	.LBE2862:
 4881              		.loc 3 269 0
 4882 08b4 38000000 		li 0,0
 4883 08b8 3B600000 		li 27,0
 4884 08bc 901E00D4 		stw 0,212(30)
 4885 08c0 3B800000 		li 28,0
 4886              		.loc 3 270 0
 4887 08c4 901E00D8 		stw 0,216(30)
 4888 08c8 4BFFFE8C 		b .L251
 4889              	.LVL363:
 4890              	.L275:
 4891              	.LBE2867:
 4892              	.LBE2871:
 4893              	.LBB2872:
 4894              		.loc 3 257 0
 4895 08cc 38000000 		li 0,0
 4896 08d0 3B800000 		li 28,0
 4897 08d4 901E00D4 		stw 0,212(30)
 4898 08d8 4BFFFE78 		b .L259
 4899              	.LVL364:
 4900              	.L280:
 4901              	.LBE2872:
 4902              	.LBB2873:
 4903              	.LBB2868:
 4904              	.LBB2863:
 4905              	.LBB2859:
 4906              	.LBB2856:
 4907              		.loc 3 281 0
 4908 08dc 2F800000 		cmpwi 7,0,0
 4909 08e0 40BDFF70 		ble- 7,.L257
 4910              		.loc 3 283 0
 4911 08e4 3929FFFF 		addi 9,9,-1
 4912 08e8 7F8B4800 		cmpw 7,11,9
 4913 08ec 409D0008 		ble- 7,.L258
 4914 08f0 7D2B4B78 		mr 11,9
 4915              	.LVL365:
 4916              	.L258:
 4917 08f4 917E00D4 		stw 11,212(30)
 4918 08f8 7D7C5B78 		mr 28,11
 4919              	.LVL366:
 4920 08fc 4BFFFE58 		b .L251
 4921              	.L279:
 4922              	.LBE2856:
 4923              		.loc 3 279 0
 4924 0900 7D6058F8 		nor 0,11,11
 4925 0904 7C00FE70 		srawi 0,0,31
 4926 0908 7D6B0038 		and 11,11,0
 4927 090c 917E00D4 		stw 11,212(30)
 4928 0910 7D7C5B78 		mr 28,11
 4929 0914 4BFFFE40 		b .L251
 4930              	.LVL367:
 4931              	.L270:
 4932              	.LBE2859:
 4933              	.LBE2863:
 4934              	.LBE2868:
 4935              	.LBE2873:
 4936              	.LBE2898:
 4937              	.LBB2899:
 4938              	.LBB2895:
 4939              	.LBB2889:
 4940              	.LBB2890:
 4941              	.LBB2891:
 4942              		.loc 1 343 0
 4943 0918 813E00AC 		lwz 9,172(30)
 4944 091c 7C7F1B78 		mr 31,3
 4945              	.LVL368:
 4946 0920 7F43D378 		mr 3,26
 4947 0924 8009000C 		lwz 0,12(9)
 4948 0928 7C0903A6 		mtctr 0
 4949 092c 4E800421 		bctrl
 4950 0930 7FE3FB78 		mr 3,31
 4951              	.LEHB31:
 4952 0934 48000001 		bl _Unwind_Resume
 4953              	.LEHE31:
 4954              	.LBE2891:
 4955              	.LBE2890:
 4956              	.LBE2889:
 4957              	.LBE2895:
 4958              	.LBE2899:
 4959              	.LBE2900:
 4960              	.LBE2901:
 4961              	.LBE2902:
 4962              		.cfi_endproc
 4963              	.LFE1574:
 4964              		.section	.gcc_except_table
 4965              	.LLSDA1574:
 4966 00a1 FF       		.byte	0xff
 4967 00a2 FF       		.byte	0xff
 4968 00a3 01       		.byte	0x1
 4969 00a4 16       		.uleb128 .LLSDACSE1574-.LLSDACSB1574
 4970              	.LLSDACSB1574:
 4971 00a5 9801     		.uleb128 .LEHB28-.LFB1574
 4972 00a7 C403     		.uleb128 .LEHE28-.LEHB28
 4973 00a9 00       		.uleb128 0
 4974 00aa 00       		.uleb128 0
 4975 00ab 8405     		.uleb128 .LEHB29-.LFB1574
 4976 00ad 04       		.uleb128 .LEHE29-.LEHB29
 4977 00ae FC07     		.uleb128 .L270-.LFB1574
 4978 00b0 00       		.uleb128 0
 4979 00b1 A005     		.uleb128 .LEHB30-.LFB1574
 4980 00b3 04       		.uleb128 .LEHE30-.LEHB30
 4981 00b4 00       		.uleb128 0
 4982 00b5 00       		.uleb128 0
 4983 00b6 9808     		.uleb128 .LEHB31-.LFB1574
 4984 00b8 04       		.uleb128 .LEHE31-.LEHB31
 4985 00b9 00       		.uleb128 0
 4986 00ba 00       		.uleb128 0
 4987              	.LLSDACSE1574:
 4988              		.section	".text"
 4989              		.size	_ZN9Scrollbar15OnBoxButtonHoldEP9GuiButtoniRK6_POINT, .-_ZN9Scrollbar15OnBoxButtonHoldEP9Gui
 4990              		.align 2
 4991              		.globl _ZN9Scrollbar16OnDownButtonHoldEP9GuiButtoniRK6_POINT
 4992              		.type	_ZN9Scrollbar16OnDownButtonHoldEP9GuiButtoniRK6_POINT, @function
 4993              	_ZN9Scrollbar16OnDownButtonHoldEP9GuiButtoniRK6_POINT:
 4994              	.LFB1573:
 4995              		.loc 3 223 0
 4996              		.cfi_startproc
 4997              		.cfi_personality 0,__gxx_personality_v0
 4998              		.cfi_lsda 0,.LLSDA1573
 4999              	.LVL369:
 5000 0938 7C0802A6 		mflr 0
 5001 093c 9421FFE0 		stwu 1,-32(1)
 5002              	.LCFI83:
 5003              		.cfi_def_cfa_offset 32
 5004              		.cfi_register 65, 0
 5005 0940 9361000C 		stw 27,12(1)
 5006 0944 7C7B1B78 		mr 27,3
 5007              		.cfi_offset 27, -20
 5008 0948 90010024 		stw 0,36(1)
 5009 094c 93410008 		stw 26,8(1)
 5010              		.loc 3 224 0
 5011 0950 A00300C0 		lhz 0,192(3)
 5012              		.cfi_offset 26, -24
 5013              		.cfi_offset 65, 4
 5014 0954 812300BC 		lwz 9,188(3)
 5015              		.loc 3 223 0
 5016 0958 93810010 		stw 28,16(1)
 5017              		.loc 3 224 0
 5018 095c 7F890040 		cmplw 7,9,0
 5019              		.loc 3 223 0
 5020 0960 93A10014 		stw 29,20(1)
 5021 0964 93C10018 		stw 30,24(1)
 5022 0968 93E1001C 		stw 31,28(1)
 5023              		.loc 3 224 0
 5024 096c 409C002C 		bge- 7,.L293
 5025              		.cfi_offset 31, -4
 5026              		.cfi_offset 30, -8
 5027              		.cfi_offset 29, -12
 5028              		.cfi_offset 28, -16
 5029              		.loc 3 231 0
 5030 0970 80010024 		lwz 0,36(1)
 5031 0974 83410008 		lwz 26,8(1)
 5032 0978 7C0803A6 		mtlr 0
 5033 097c 8361000C 		lwz 27,12(1)
 5034 0980 83810010 		lwz 28,16(1)
 5035 0984 83A10014 		lwz 29,20(1)
 5036 0988 83C10018 		lwz 30,24(1)
 5037 098c 83E1001C 		lwz 31,28(1)
 5038 0990 38210020 		addi 1,1,32
 5039              		.cfi_remember_state
 5040              	.LCFI84:
 5041              		.cfi_def_cfa_offset 0
 5042              		.cfi_restore 31
 5043              		.cfi_restore 30
 5044              		.cfi_restore 29
 5045              		.cfi_restore 28
 5046              		.cfi_restore 27
 5047              		.cfi_restore 26
 5048 0994 4E800020 		blr
 5049              	.L293:
 5050              	.LCFI85:
 5051              		.cfi_restore_state
 5052              	.LVL370:
 5053              	.LBB2923:
 5054              	.LBB2924:
 5055              	.LBB2925:
 5056              	.LBB2926:
 5057              	.LBB2927:
 5058              		.loc 3 175 0
 5059 0998 880300B8 		lbz 0,184(3)
 5060 099c 2F800000 		cmpwi 7,0,0
 5061 09a0 419E00CC 		beq- 7,.L294
 5062              		.loc 3 196 0
 5063 09a4 838300D8 		lwz 28,216(3)
 5064 09a8 83A300D4 		lwz 29,212(3)
 5065 09ac 800300E4 		lwz 0,228(3)
 5066 09b0 7D3CEA14 		add 9,28,29
 5067 09b4 39290001 		addi 9,9,1
 5068 09b8 7F890000 		cmpw 7,9,0
 5069 09bc 409C001C 		bge- 7,.L284
 5070              		.loc 3 198 0
 5071 09c0 812300E0 		lwz 9,224(3)
 5072 09c4 3809FFFF 		addi 0,9,-1
 5073 09c8 7F9D0000 		cmpw 7,29,0
 5074 09cc 419E00B0 		beq- 7,.L295
 5075              		.loc 3 205 0
 5076 09d0 3BBD0001 		addi 29,29,1
 5077 09d4 93A300D4 		stw 29,212(3)
 5078              	.LVL371:
 5079              	.L284:
 5080              	.LBE2927:
 5081              	.LBE2926:
 5082              	.LBE2925:
 5083              	.LBB2930:
 5084              	.LBB2931:
 5085              	.LBB2932:
 5086              	.LBB2933:
 5087              		.loc 1 338 0
 5088 09d8 813B00AC 		lwz 9,172(27)
 5089              	.LBE2933:
 5090              	.LBE2932:
 5091              	.LBE2931:
 5092              	.LBE2930:
 5093              		.loc 3 229 0
 5094 09dc 38000000 		li 0,0
 5095 09e0 901B00BC 		stw 0,188(27)
 5096              	.LVL372:
 5097              	.LBB2950:
 5098              	.LBB2946:
 5099              		.loc 1 2270 0
 5100 09e4 3B5B00AC 		addi 26,27,172
 5101              	.LVL373:
 5102              	.LBB2936:
 5103              	.LBB2934:
 5104              		.loc 1 338 0
 5105 09e8 80090008 		lwz 0,8(9)
 5106 09ec 7F43D378 		mr 3,26
 5107              	.LBE2934:
 5108              	.LBE2936:
 5109              	.LBE2946:
 5110              		.loc 3 483 0
 5111 09f0 7F7EDB78 		mr 30,27
 5112              	.LBB2947:
 5113              	.LBB2937:
 5114              	.LBB2935:
 5115              		.loc 1 338 0
 5116 09f4 7C0903A6 		mtctr 0
 5117              	.LEHB32:
 5118 09f8 4E800421 		bctrl
 5119              	.LEHE32:
 5120              	.LVL374:
 5121              	.LBE2935:
 5122              	.LBE2937:
 5123              	.LBE2947:
 5124              		.loc 3 483 0
 5125 09fc 87FE00B0 		lwzu 31,176(30)
 5126              	.LVL375:
 5127              	.LBB2948:
 5128              		.loc 1 2274 0
 5129 0a00 7F9FF000 		cmpw 7,31,30
 5130 0a04 419E002C 		beq- 7,.L286
 5131              	.LVL376:
 5132              	.L292:
 5133              		.loc 1 2279 0
 5134 0a08 807F0008 		lwz 3,8(31)
 5135 0a0c 7FA4EB78 		mr 4,29
 5136 0a10 7F85E378 		mr 5,28
 5137              	.LBB2938:
 5138              	.LBB2939:
 5139              		.loc 4 234 0
 5140 0a14 83FF0000 		lwz 31,0(31)
 5141              	.LVL377:
 5142              	.LBE2939:
 5143              	.LBE2938:
 5144              		.loc 1 2279 0
 5145 0a18 81230000 		lwz 9,0(3)
 5146 0a1c 8009000C 		lwz 0,12(9)
 5147 0a20 7C0903A6 		mtctr 0
 5148              	.LEHB33:
 5149 0a24 4E800421 		bctrl
 5150              	.LEHE33:
 5151              	.LVL378:
 5152              		.loc 1 2274 0
 5153 0a28 7F9EF800 		cmpw 7,30,31
 5154 0a2c 409EFFDC 		bne+ 7,.L292
 5155              	.LVL379:
 5156              	.L286:
 5157              	.LBB2940:
 5158              	.LBB2941:
 5159              	.LBB2942:
 5160              		.loc 1 343 0
 5161 0a30 813B00AC 		lwz 9,172(27)
 5162 0a34 7F43D378 		mr 3,26
 5163 0a38 8009000C 		lwz 0,12(9)
 5164 0a3c 7C0903A6 		mtctr 0
 5165              	.LEHB34:
 5166 0a40 4E800421 		bctrl
 5167              	.LEHE34:
 5168              	.LBE2942:
 5169              	.LBE2941:
 5170              	.LBE2940:
 5171              	.LBE2948:
 5172              	.LBE2950:
 5173              	.LBE2924:
 5174              	.LBE2923:
 5175              		.loc 3 231 0
 5176 0a44 80010024 		lwz 0,36(1)
 5177 0a48 83410008 		lwz 26,8(1)
 5178 0a4c 7C0803A6 		mtlr 0
 5179 0a50 8361000C 		lwz 27,12(1)
 5180              	.LVL380:
 5181 0a54 83810010 		lwz 28,16(1)
 5182              	.LVL381:
 5183 0a58 83A10014 		lwz 29,20(1)
 5184              	.LVL382:
 5185 0a5c 83C10018 		lwz 30,24(1)
 5186              	.LVL383:
 5187 0a60 83E1001C 		lwz 31,28(1)
 5188              	.LVL384:
 5189 0a64 38210020 		addi 1,1,32
 5190              		.cfi_remember_state
 5191              		.cfi_restore 26
 5192              		.cfi_restore 27
 5193              		.cfi_restore 28
 5194              		.cfi_restore 29
 5195              		.cfi_restore 30
 5196              		.cfi_restore 31
 5197              	.LCFI86:
 5198              		.cfi_def_cfa_offset 0
 5199 0a68 4E800020 		blr
 5200              	.LVL385:
 5201              	.L294:
 5202              	.LCFI87:
 5203              		.cfi_restore_state
 5204              	.LBB2954:
 5205              	.LBB2953:
 5206              	.LBB2951:
 5207              	.LBB2929:
 5208              	.LBB2928:
 5209              		.loc 3 175 0
 5210 0a6c 4BFFFA19 		bl _ZN9Scrollbar13ScrollOneDownEv.part.5
 5211              	.LVL386:
 5212 0a70 839B00D8 		lwz 28,216(27)
 5213 0a74 83BB00D4 		lwz 29,212(27)
 5214 0a78 4BFFFF60 		b .L284
 5215              	.LVL387:
 5216              	.L295:
 5217              		.loc 3 201 0
 5218 0a7c 3B9C0001 		addi 28,28,1
 5219 0a80 938300D8 		stw 28,216(3)
 5220 0a84 4BFFFF54 		b .L284
 5221              	.LVL388:
 5222              	.L291:
 5223              	.LBE2928:
 5224              	.LBE2929:
 5225              	.LBE2951:
 5226              	.LBB2952:
 5227              	.LBB2949:
 5228              	.LBB2943:
 5229              	.LBB2944:
 5230              	.LBB2945:
 5231              		.loc 1 343 0
 5232 0a88 813B00AC 		lwz 9,172(27)
 5233 0a8c 7C7F1B78 		mr 31,3
 5234              	.LVL389:
 5235 0a90 7F43D378 		mr 3,26
 5236 0a94 8009000C 		lwz 0,12(9)
 5237 0a98 7C0903A6 		mtctr 0
 5238 0a9c 4E800421 		bctrl
 5239 0aa0 7FE3FB78 		mr 3,31
 5240              	.LEHB35:
 5241 0aa4 48000001 		bl _Unwind_Resume
 5242              	.LEHE35:
 5243              	.LBE2945:
 5244              	.LBE2944:
 5245              	.LBE2943:
 5246              	.LBE2949:
 5247              	.LBE2952:
 5248              	.LBE2953:
 5249              	.LBE2954:
 5250              		.cfi_endproc
 5251              	.LFE1573:
 5252              		.section	.gcc_except_table
 5253              	.LLSDA1573:
 5254 00bb FF       		.byte	0xff
 5255 00bc FF       		.byte	0xff
 5256 00bd 01       		.byte	0x1
 5257 00be 15       		.uleb128 .LLSDACSE1573-.LLSDACSB1573
 5258              	.LLSDACSB1573:
 5259 00bf C001     		.uleb128 .LEHB32-.LFB1573
 5260 00c1 04       		.uleb128 .LEHE32-.LEHB32
 5261 00c2 00       		.uleb128 0
 5262 00c3 00       		.uleb128 0
 5263 00c4 EC01     		.uleb128 .LEHB33-.LFB1573
 5264 00c6 04       		.uleb128 .LEHE33-.LEHB33
 5265 00c7 D002     		.uleb128 .L291-.LFB1573
 5266 00c9 00       		.uleb128 0
 5267 00ca 8802     		.uleb128 .LEHB34-.LFB1573
 5268 00cc 04       		.uleb128 .LEHE34-.LEHB34
 5269 00cd 00       		.uleb128 0
 5270 00ce 00       		.uleb128 0
 5271 00cf EC02     		.uleb128 .LEHB35-.LFB1573
 5272 00d1 04       		.uleb128 .LEHE35-.LEHB35
 5273 00d2 00       		.uleb128 0
 5274 00d3 00       		.uleb128 0
 5275              	.LLSDACSE1573:
 5276              		.section	".text"
 5277              		.size	_ZN9Scrollbar16OnDownButtonHoldEP9GuiButtoniRK6_POINT, .-_ZN9Scrollbar16OnDownButtonHoldEP9G
 5278              		.align 2
 5279              		.globl _ZN9Scrollbar11ScrollOneUpEv
 5280              		.type	_ZN9Scrollbar11ScrollOneUpEv, @function
 5281              	_ZN9Scrollbar11ScrollOneUpEv:
 5282              	.LFB1570:
 5283              		.loc 3 145 0
 5284              		.cfi_startproc
 5285              	.LVL390:
 5286              		.loc 3 146 0
 5287 0aa8 880300B8 		lbz 0,184(3)
 5288 0aac 2F800000 		cmpwi 7,0,0
 5289 0ab0 409E003C 		bne- 7,.L297
 5290              		.loc 3 148 0
 5291 0ab4 814300D8 		lwz 10,216(3)
 5292 0ab8 800300D4 		lwz 0,212(3)
 5293 0abc 812300DC 		lwz 9,220(3)
 5294 0ac0 7D6A0214 		add 11,10,0
 5295 0ac4 7D095851 		subf. 8,9,11
 5296 0ac8 4D800020 		bltlr- 0
 5297              		.loc 3 150 0
 5298 0acc 7D690050 		subf 11,9,0
 5299              		.loc 3 151 0
 5300 0ad0 2F8B0000 		cmpwi 7,11,0
 5301              		.loc 3 150 0
 5302 0ad4 916300D4 		stw 11,212(3)
 5303              		.loc 3 151 0
 5304 0ad8 4CBC0020 		bgelr+ 7
 5305              	.LVL391:
 5306              	.LBB2957:
 5307              	.LBB2958:
 5308              		.loc 3 154 0
 5309 0adc 7D295050 		subf 9,9,10
 5310              		.loc 3 155 0
 5311 0ae0 900300D4 		stw 0,212(3)
 5312              		.loc 3 154 0
 5313 0ae4 912300D8 		stw 9,216(3)
 5314 0ae8 4E800020 		blr
 5315              	.LVL392:
 5316              	.L297:
 5317              	.LBE2958:
 5318              	.LBE2957:
 5319              		.loc 3 161 0
 5320 0aec 812300D4 		lwz 9,212(3)
 5321 0af0 2F890000 		cmpwi 7,9,0
 5322 0af4 419E001C 		beq- 7,.L300
 5323              		.loc 3 166 0
 5324 0af8 800300D8 		lwz 0,216(3)
 5325 0afc 7D690215 		add. 11,9,0
 5326 0b00 4C810020 		blelr- 0
 5327              		.loc 3 168 0
 5328 0b04 3929FFFF 		addi 9,9,-1
 5329 0b08 912300D4 		stw 9,212(3)
 5330 0b0c 4E800020 		blr
 5331              	.L300:
 5332              		.loc 3 161 0 discriminator 1
 5333 0b10 812300D8 		lwz 9,216(3)
 5334 0b14 2F890000 		cmpwi 7,9,0
 5335 0b18 4C9D0020 		blelr- 7
 5336              		.loc 3 164 0
 5337 0b1c 3929FFFF 		addi 9,9,-1
 5338 0b20 912300D8 		stw 9,216(3)
 5339 0b24 4E800020 		blr
 5340              		.cfi_endproc
 5341              	.LFE1570:
 5342              		.size	_ZN9Scrollbar11ScrollOneUpEv, .-_ZN9Scrollbar11ScrollOneUpEv
 5343              		.align 2
 5344              		.globl _ZN9Scrollbar14OnUpButtonHoldEP9GuiButtoniRK6_POINT
 5345              		.type	_ZN9Scrollbar14OnUpButtonHoldEP9GuiButtoniRK6_POINT, @function
 5346              	_ZN9Scrollbar14OnUpButtonHoldEP9GuiButtoniRK6_POINT:
 5347              	.LFB1572:
 5348              		.loc 3 212 0
 5349              		.cfi_startproc
 5350              		.cfi_personality 0,__gxx_personality_v0
 5351              		.cfi_lsda 0,.LLSDA1572
 5352              	.LVL393:
 5353 0b28 7C0802A6 		mflr 0
 5354 0b2c 9421FFE0 		stwu 1,-32(1)
 5355              	.LCFI88:
 5356              		.cfi_def_cfa_offset 32
 5357              		.cfi_register 65, 0
 5358 0b30 9361000C 		stw 27,12(1)
 5359 0b34 7C7B1B78 		mr 27,3
 5360              		.cfi_offset 27, -20
 5361 0b38 90010024 		stw 0,36(1)
 5362 0b3c 93410008 		stw 26,8(1)
 5363              		.loc 3 213 0
 5364 0b40 A00300C0 		lhz 0,192(3)
 5365              		.cfi_offset 26, -24
 5366              		.cfi_offset 65, 4
 5367 0b44 812300BC 		lwz 9,188(3)
 5368              		.loc 3 212 0
 5369 0b48 93810010 		stw 28,16(1)
 5370              		.loc 3 213 0
 5371 0b4c 7F890040 		cmplw 7,9,0
 5372              		.loc 3 212 0
 5373 0b50 93A10014 		stw 29,20(1)
 5374 0b54 93C10018 		stw 30,24(1)
 5375 0b58 93E1001C 		stw 31,28(1)
 5376              		.loc 3 213 0
 5377 0b5c 409C002C 		bge- 7,.L310
 5378              		.cfi_offset 31, -4
 5379              		.cfi_offset 30, -8
 5380              		.cfi_offset 29, -12
 5381              		.cfi_offset 28, -16
 5382              		.loc 3 220 0
 5383 0b60 80010024 		lwz 0,36(1)
 5384 0b64 83410008 		lwz 26,8(1)
 5385 0b68 7C0803A6 		mtlr 0
 5386 0b6c 8361000C 		lwz 27,12(1)
 5387 0b70 83810010 		lwz 28,16(1)
 5388 0b74 83A10014 		lwz 29,20(1)
 5389 0b78 83C10018 		lwz 30,24(1)
 5390 0b7c 83E1001C 		lwz 31,28(1)
 5391 0b80 38210020 		addi 1,1,32
 5392              		.cfi_remember_state
 5393              	.LCFI89:
 5394              		.cfi_def_cfa_offset 0
 5395              		.cfi_restore 31
 5396              		.cfi_restore 30
 5397              		.cfi_restore 29
 5398              		.cfi_restore 28
 5399              		.cfi_restore 27
 5400              		.cfi_restore 26
 5401 0b84 4E800020 		blr
 5402              	.L310:
 5403              	.LCFI90:
 5404              		.cfi_restore_state
 5405              	.LVL394:
 5406              	.LBB2976:
 5407              	.LBB2977:
 5408              		.loc 3 216 0
 5409 0b88 48000001 		bl _ZN9Scrollbar11ScrollOneUpEv
 5410              	.LVL395:
 5411              	.LBB2978:
 5412              	.LBB2979:
 5413              	.LBB2980:
 5414              	.LBB2981:
 5415              		.loc 1 338 0
 5416 0b8c 813B00AC 		lwz 9,172(27)
 5417              	.LBE2981:
 5418              	.LBE2980:
 5419              	.LBE2979:
 5420              	.LBE2978:
 5421              		.loc 3 218 0
 5422 0b90 38000000 		li 0,0
 5423              	.LBB3002:
 5424              	.LBB2996:
 5425              		.loc 1 2270 0
 5426 0b94 3B5B00AC 		addi 26,27,172
 5427              	.LBE2996:
 5428              	.LBE3002:
 5429              		.loc 3 218 0
 5430 0b98 901B00BC 		stw 0,188(27)
 5431              	.LBB3003:
 5432              	.LBB2997:
 5433              	.LBB2985:
 5434              	.LBB2982:
 5435              		.loc 1 338 0
 5436 0b9c 7F43D378 		mr 3,26
 5437 0ba0 80090008 		lwz 0,8(9)
 5438              	.LBE2982:
 5439              	.LBE2985:
 5440              	.LBE2997:
 5441              		.loc 3 483 0
 5442 0ba4 7F7EDB78 		mr 30,27
 5443              	.LBE3003:
 5444              		.loc 3 219 0
 5445 0ba8 839B00D4 		lwz 28,212(27)
 5446              	.LBB3004:
 5447              	.LBB2998:
 5448              	.LBB2986:
 5449              	.LBB2983:
 5450              		.loc 1 338 0
 5451 0bac 7C0903A6 		mtctr 0
 5452              	.LBE2983:
 5453              	.LBE2986:
 5454              	.LBE2998:
 5455              	.LBE3004:
 5456              		.loc 3 219 0
 5457 0bb0 83BB00D8 		lwz 29,216(27)
 5458              	.LVL396:
 5459              	.LEHB36:
 5460              	.LBB3005:
 5461              	.LBB2999:
 5462              	.LBB2987:
 5463              	.LBB2984:
 5464              		.loc 1 338 0
 5465 0bb4 4E800421 		bctrl
 5466              	.LEHE36:
 5467              	.LVL397:
 5468              	.LBE2984:
 5469              	.LBE2987:
 5470              	.LBE2999:
 5471              		.loc 3 483 0
 5472 0bb8 87FE00B0 		lwzu 31,176(30)
 5473              	.LVL398:
 5474              	.LBB3000:
 5475              		.loc 1 2274 0
 5476 0bbc 7F9FF000 		cmpw 7,31,30
 5477 0bc0 419E002C 		beq- 7,.L303
 5478              	.LVL399:
 5479              	.L309:
 5480              		.loc 1 2279 0
 5481 0bc4 807F0008 		lwz 3,8(31)
 5482 0bc8 7F84E378 		mr 4,28
 5483 0bcc 7FA5EB78 		mr 5,29
 5484              	.LBB2988:
 5485              	.LBB2989:
 5486              		.loc 4 234 0
 5487 0bd0 83FF0000 		lwz 31,0(31)
 5488              	.LVL400:
 5489              	.LBE2989:
 5490              	.LBE2988:
 5491              		.loc 1 2279 0
 5492 0bd4 81230000 		lwz 9,0(3)
 5493 0bd8 8009000C 		lwz 0,12(9)
 5494 0bdc 7C0903A6 		mtctr 0
 5495              	.LEHB37:
 5496 0be0 4E800421 		bctrl
 5497              	.LEHE37:
 5498              	.LVL401:
 5499              		.loc 1 2274 0
 5500 0be4 7F9EF800 		cmpw 7,30,31
 5501 0be8 409EFFDC 		bne+ 7,.L309
 5502              	.LVL402:
 5503              	.L303:
 5504              	.LBB2990:
 5505              	.LBB2991:
 5506              	.LBB2992:
 5507              		.loc 1 343 0
 5508 0bec 813B00AC 		lwz 9,172(27)
 5509 0bf0 7F43D378 		mr 3,26
 5510 0bf4 8009000C 		lwz 0,12(9)
 5511 0bf8 7C0903A6 		mtctr 0
 5512              	.LEHB38:
 5513 0bfc 4E800421 		bctrl
 5514              	.LEHE38:
 5515              	.LBE2992:
 5516              	.LBE2991:
 5517              	.LBE2990:
 5518              	.LBE3000:
 5519              	.LBE3005:
 5520              	.LBE2977:
 5521              	.LBE2976:
 5522              		.loc 3 220 0
 5523 0c00 80010024 		lwz 0,36(1)
 5524 0c04 83410008 		lwz 26,8(1)
 5525 0c08 7C0803A6 		mtlr 0
 5526 0c0c 8361000C 		lwz 27,12(1)
 5527              	.LVL403:
 5528 0c10 83810010 		lwz 28,16(1)
 5529              	.LVL404:
 5530 0c14 83A10014 		lwz 29,20(1)
 5531              	.LVL405:
 5532 0c18 83C10018 		lwz 30,24(1)
 5533              	.LVL406:
 5534 0c1c 83E1001C 		lwz 31,28(1)
 5535              	.LVL407:
 5536 0c20 38210020 		addi 1,1,32
 5537              		.cfi_remember_state
 5538              		.cfi_restore 26
 5539              		.cfi_restore 27
 5540              		.cfi_restore 28
 5541              		.cfi_restore 29
 5542              		.cfi_restore 30
 5543              		.cfi_restore 31
 5544              	.LCFI91:
 5545              		.cfi_def_cfa_offset 0
 5546 0c24 4E800020 		blr
 5547              	.LVL408:
 5548              	.L308:
 5549              	.LCFI92:
 5550              		.cfi_restore_state
 5551              	.LBB3008:
 5552              	.LBB3007:
 5553              	.LBB3006:
 5554              	.LBB3001:
 5555              	.LBB2993:
 5556              	.LBB2994:
 5557              	.LBB2995:
 5558              		.loc 1 343 0
 5559 0c28 813B00AC 		lwz 9,172(27)
 5560 0c2c 7C7F1B78 		mr 31,3
 5561              	.LVL409:
 5562 0c30 7F43D378 		mr 3,26
 5563 0c34 8009000C 		lwz 0,12(9)
 5564 0c38 7C0903A6 		mtctr 0
 5565 0c3c 4E800421 		bctrl
 5566 0c40 7FE3FB78 		mr 3,31
 5567              	.LEHB39:
 5568 0c44 48000001 		bl _Unwind_Resume
 5569              	.LEHE39:
 5570              	.LBE2995:
 5571              	.LBE2994:
 5572              	.LBE2993:
 5573              	.LBE3001:
 5574              	.LBE3006:
 5575              	.LBE3007:
 5576              	.LBE3008:
 5577              		.cfi_endproc
 5578              	.LFE1572:
 5579              		.section	.gcc_except_table
 5580              	.LLSDA1572:
 5581 00d4 FF       		.byte	0xff
 5582 00d5 FF       		.byte	0xff
 5583 00d6 01       		.byte	0x1
 5584 00d7 15       		.uleb128 .LLSDACSE1572-.LLSDACSB1572
 5585              	.LLSDACSB1572:
 5586 00d8 8C01     		.uleb128 .LEHB36-.LFB1572
 5587 00da 04       		.uleb128 .LEHE36-.LEHB36
 5588 00db 00       		.uleb128 0
 5589 00dc 00       		.uleb128 0
 5590 00dd B801     		.uleb128 .LEHB37-.LFB1572
 5591 00df 04       		.uleb128 .LEHE37-.LEHB37
 5592 00e0 8002     		.uleb128 .L308-.LFB1572
 5593 00e2 00       		.uleb128 0
 5594 00e3 D401     		.uleb128 .LEHB38-.LFB1572
 5595 00e5 04       		.uleb128 .LEHE38-.LEHB38
 5596 00e6 00       		.uleb128 0
 5597 00e7 00       		.uleb128 0
 5598 00e8 9C02     		.uleb128 .LEHB39-.LFB1572
 5599 00ea 04       		.uleb128 .LEHE39-.LEHB39
 5600 00eb 00       		.uleb128 0
 5601 00ec 00       		.uleb128 0
 5602              	.LLSDACSE1572:
 5603              		.section	".text"
 5604              		.size	_ZN9Scrollbar14OnUpButtonHoldEP9GuiButtoniRK6_POINT, .-_ZN9Scrollbar14OnUpButtonHoldEP9GuiBu
 5605              		.align 2
 5606              		.globl _ZN9Scrollbar13ScrollOneDownEv
 5607              		.type	_ZN9Scrollbar13ScrollOneDownEv, @function
 5608              	_ZN9Scrollbar13ScrollOneDownEv:
 5609              	.LFB1571:
 5610              		.loc 3 174 0
 5611              		.cfi_startproc
 5612              	.LVL410:
 5613              	.LBB3010:
 5614              		.loc 3 175 0
 5615 0c48 880300B8 		lbz 0,184(3)
 5616 0c4c 2F800000 		cmpwi 7,0,0
 5617 0c50 409E0008 		bne- 7,.L312
 5618              	.LBE3010:
 5619              		.loc 3 209 0
 5620              	.LBB3011:
 5621              		.loc 3 175 0
 5622 0c54 4BFFF830 		b _ZN9Scrollbar13ScrollOneDownEv.part.5
 5623              	.LVL411:
 5624              	.L312:
 5625              		.loc 3 196 0
 5626 0c58 814300D8 		lwz 10,216(3)
 5627 0c5c 816300D4 		lwz 11,212(3)
 5628 0c60 800300E4 		lwz 0,228(3)
 5629 0c64 7D0A5A14 		add 8,10,11
 5630 0c68 39080001 		addi 8,8,1
 5631 0c6c 7F880000 		cmpw 7,8,0
 5632 0c70 4C9C0020 		bgelr- 7
 5633              		.loc 3 198 0
 5634 0c74 810300E0 		lwz 8,224(3)
 5635 0c78 3808FFFF 		addi 0,8,-1
 5636 0c7c 7F8B0000 		cmpw 7,11,0
 5637 0c80 419E0010 		beq- 7,.L315
 5638              		.loc 3 205 0
 5639 0c84 396B0001 		addi 11,11,1
 5640 0c88 916300D4 		stw 11,212(3)
 5641 0c8c 4E800020 		blr
 5642              	.L315:
 5643              		.loc 3 201 0
 5644 0c90 394A0001 		addi 10,10,1
 5645 0c94 914300D8 		stw 10,216(3)
 5646 0c98 4E800020 		blr
 5647              	.LBE3011:
 5648              		.cfi_endproc
 5649              	.LFE1571:
 5650              		.size	_ZN9Scrollbar13ScrollOneDownEv, .-_ZN9Scrollbar13ScrollOneDownEv
 5651              		.align 2
 5652              		.globl _ZN9Scrollbar11SetPageSizeEi
 5653              		.type	_ZN9Scrollbar11SetPageSizeEi, @function
 5654              	_ZN9Scrollbar11SetPageSizeEi:
 5655              	.LFB1575:
 5656              		.loc 3 296 0
 5657              		.cfi_startproc
 5658              		.cfi_personality 0,__gxx_personality_v0
 5659              		.cfi_lsda 0,.LLSDA1575
 5660              	.LVL412:
 5661 0c9c 7C0802A6 		mflr 0
 5662 0ca0 9421FFE0 		stwu 1,-32(1)
 5663              	.LCFI93:
 5664              		.cfi_def_cfa_offset 32
 5665              		.cfi_register 65, 0
 5666 0ca4 9361000C 		stw 27,12(1)
 5667 0ca8 7C7B1B78 		mr 27,3
 5668              		.cfi_offset 27, -20
 5669 0cac 90010024 		stw 0,36(1)
 5670 0cb0 93410008 		stw 26,8(1)
 5671              		.loc 3 297 0
 5672 0cb4 800300E0 		lwz 0,224(3)
 5673              		.cfi_offset 26, -24
 5674              		.cfi_offset 65, 4
 5675              		.loc 3 296 0
 5676 0cb8 93810010 		stw 28,16(1)
 5677              		.loc 3 297 0
 5678 0cbc 7F802000 		cmpw 7,0,4
 5679              		.loc 3 296 0
 5680 0cc0 93A10014 		stw 29,20(1)
 5681 0cc4 93C10018 		stw 30,24(1)
 5682 0cc8 93E1001C 		stw 31,28(1)
 5683              		.loc 3 297 0
 5684 0ccc 419E0074 		beq- 7,.L316
 5685              		.cfi_offset 31, -4
 5686              		.cfi_offset 30, -8
 5687              		.cfi_offset 29, -12
 5688              		.cfi_offset 28, -16
 5689              	.LBB3027:
 5690              	.LBB3028:
 5691              	.LBB3029:
 5692              	.LBB3030:
 5693              		.loc 1 338 0
 5694 0cd0 812300AC 		lwz 9,172(3)
 5695              	.LBE3030:
 5696              	.LBE3029:
 5697              		.loc 1 2270 0
 5698 0cd4 3B4300AC 		addi 26,3,172
 5699              	.LBE3028:
 5700              	.LBE3027:
 5701              		.loc 3 300 0
 5702 0cd8 908300E0 		stw 4,224(3)
 5703              	.LBB3050:
 5704              	.LBB3045:
 5705              	.LBB3034:
 5706              	.LBB3031:
 5707              		.loc 1 338 0
 5708 0cdc 7F43D378 		mr 3,26
 5709              	.LVL413:
 5710 0ce0 80090008 		lwz 0,8(9)
 5711              	.LBE3031:
 5712              	.LBE3034:
 5713              	.LBE3045:
 5714              		.loc 3 483 0
 5715 0ce4 7F7EDB78 		mr 30,27
 5716              	.LBE3050:
 5717              		.loc 3 301 0
 5718 0ce8 839B00D4 		lwz 28,212(27)
 5719              	.LBB3051:
 5720              	.LBB3046:
 5721              	.LBB3035:
 5722              	.LBB3032:
 5723              		.loc 1 338 0
 5724 0cec 7C0903A6 		mtctr 0
 5725              	.LBE3032:
 5726              	.LBE3035:
 5727              	.LBE3046:
 5728              	.LBE3051:
 5729              		.loc 3 301 0
 5730 0cf0 83BB00D8 		lwz 29,216(27)
 5731              	.LVL414:
 5732              	.LEHB40:
 5733              	.LBB3052:
 5734              	.LBB3047:
 5735              	.LBB3036:
 5736              	.LBB3033:
 5737              		.loc 1 338 0
 5738 0cf4 4E800421 		bctrl
 5739              	.LEHE40:
 5740              	.LVL415:
 5741              	.LBE3033:
 5742              	.LBE3036:
 5743              	.LBE3047:
 5744              		.loc 3 483 0
 5745 0cf8 87FE00B0 		lwzu 31,176(30)
 5746              	.LVL416:
 5747              	.LBB3048:
 5748              		.loc 1 2274 0
 5749 0cfc 7F9FF000 		cmpw 7,31,30
 5750 0d00 419E002C 		beq- 7,.L318
 5751              	.LVL417:
 5752              	.L324:
 5753              		.loc 1 2279 0
 5754 0d04 807F0008 		lwz 3,8(31)
 5755 0d08 7F84E378 		mr 4,28
 5756 0d0c 7FA5EB78 		mr 5,29
 5757              	.LBB3037:
 5758              	.LBB3038:
 5759              		.loc 4 234 0
 5760 0d10 83FF0000 		lwz 31,0(31)
 5761              	.LVL418:
 5762              	.LBE3038:
 5763              	.LBE3037:
 5764              		.loc 1 2279 0
 5765 0d14 81230000 		lwz 9,0(3)
 5766 0d18 8009000C 		lwz 0,12(9)
 5767 0d1c 7C0903A6 		mtctr 0
 5768              	.LEHB41:
 5769 0d20 4E800421 		bctrl
 5770              	.LEHE41:
 5771              	.LVL419:
 5772              		.loc 1 2274 0
 5773 0d24 7F9EF800 		cmpw 7,30,31
 5774 0d28 409EFFDC 		bne+ 7,.L324
 5775              	.LVL420:
 5776              	.L318:
 5777              	.LBB3039:
 5778              	.LBB3040:
 5779              	.LBB3041:
 5780              		.loc 1 343 0
 5781 0d2c 813B00AC 		lwz 9,172(27)
 5782 0d30 7F43D378 		mr 3,26
 5783 0d34 8009000C 		lwz 0,12(9)
 5784 0d38 7C0903A6 		mtctr 0
 5785              	.LEHB42:
 5786 0d3c 4E800421 		bctrl
 5787              	.LEHE42:
 5788              	.LVL421:
 5789              	.L316:
 5790              	.LBE3041:
 5791              	.LBE3040:
 5792              	.LBE3039:
 5793              	.LBE3048:
 5794              	.LBE3052:
 5795              		.loc 3 302 0
 5796 0d40 80010024 		lwz 0,36(1)
 5797 0d44 83410008 		lwz 26,8(1)
 5798 0d48 7C0803A6 		mtlr 0
 5799 0d4c 8361000C 		lwz 27,12(1)
 5800              	.LVL422:
 5801 0d50 83810010 		lwz 28,16(1)
 5802 0d54 83A10014 		lwz 29,20(1)
 5803 0d58 83C10018 		lwz 30,24(1)
 5804 0d5c 83E1001C 		lwz 31,28(1)
 5805 0d60 38210020 		addi 1,1,32
 5806              		.cfi_remember_state
 5807              	.LCFI94:
 5808              		.cfi_def_cfa_offset 0
 5809              		.cfi_restore 31
 5810              		.cfi_restore 30
 5811              		.cfi_restore 29
 5812              		.cfi_restore 28
 5813              		.cfi_restore 27
 5814              		.cfi_restore 26
 5815 0d64 4E800020 		blr
 5816              	.LVL423:
 5817              	.L323:
 5818              	.LCFI95:
 5819              		.cfi_restore_state
 5820              	.LBB3053:
 5821              	.LBB3049:
 5822              	.LBB3042:
 5823              	.LBB3043:
 5824              	.LBB3044:
 5825              		.loc 1 343 0
 5826 0d68 813B00AC 		lwz 9,172(27)
 5827 0d6c 7C7F1B78 		mr 31,3
 5828              	.LVL424:
 5829 0d70 7F43D378 		mr 3,26
 5830 0d74 8009000C 		lwz 0,12(9)
 5831 0d78 7C0903A6 		mtctr 0
 5832 0d7c 4E800421 		bctrl
 5833 0d80 7FE3FB78 		mr 3,31
 5834              	.LEHB43:
 5835 0d84 48000001 		bl _Unwind_Resume
 5836              	.LEHE43:
 5837              	.LBE3044:
 5838              	.LBE3043:
 5839              	.LBE3042:
 5840              	.LBE3049:
 5841              	.LBE3053:
 5842              		.cfi_endproc
 5843              	.LFE1575:
 5844              		.section	.gcc_except_table
 5845              	.LLSDA1575:
 5846 00ed FF       		.byte	0xff
 5847 00ee FF       		.byte	0xff
 5848 00ef 01       		.byte	0x1
 5849 00f0 14       		.uleb128 .LLSDACSE1575-.LLSDACSB1575
 5850              	.LLSDACSB1575:
 5851 00f1 58       		.uleb128 .LEHB40-.LFB1575
 5852 00f2 04       		.uleb128 .LEHE40-.LEHB40
 5853 00f3 00       		.uleb128 0
 5854 00f4 00       		.uleb128 0
 5855 00f5 8401     		.uleb128 .LEHB41-.LFB1575
 5856 00f7 04       		.uleb128 .LEHE41-.LEHB41
 5857 00f8 CC01     		.uleb128 .L323-.LFB1575
 5858 00fa 00       		.uleb128 0
 5859 00fb A001     		.uleb128 .LEHB42-.LFB1575
 5860 00fd 04       		.uleb128 .LEHE42-.LEHB42
 5861 00fe 00       		.uleb128 0
 5862 00ff 00       		.uleb128 0
 5863 0100 E801     		.uleb128 .LEHB43-.LFB1575
 5864 0102 04       		.uleb128 .LEHE43-.LEHB43
 5865 0103 00       		.uleb128 0
 5866 0104 00       		.uleb128 0
 5867              	.LLSDACSE1575:
 5868              		.section	".text"
 5869              		.size	_ZN9Scrollbar11SetPageSizeEi, .-_ZN9Scrollbar11SetPageSizeEi
 5870              		.align 2
 5871              		.globl _ZN9Scrollbar10SetRowSizeEi
 5872              		.type	_ZN9Scrollbar10SetRowSizeEi, @function
 5873              	_ZN9Scrollbar10SetRowSizeEi:
 5874              	.LFB1576:
 5875              		.loc 3 305 0
 5876              		.cfi_startproc
 5877              		.cfi_personality 0,__gxx_personality_v0
 5878              		.cfi_lsda 0,.LLSDA1576
 5879              	.LVL425:
 5880 0d88 7C0802A6 		mflr 0
 5881 0d8c 9421FFE0 		stwu 1,-32(1)
 5882              	.LCFI96:
 5883              		.cfi_def_cfa_offset 32
 5884              		.cfi_register 65, 0
 5885 0d90 9361000C 		stw 27,12(1)
 5886 0d94 7C7B1B78 		mr 27,3
 5887              		.cfi_offset 27, -20
 5888 0d98 90010024 		stw 0,36(1)
 5889 0d9c 93410008 		stw 26,8(1)
 5890              		.loc 3 306 0
 5891 0da0 800300DC 		lwz 0,220(3)
 5892              		.cfi_offset 26, -24
 5893              		.cfi_offset 65, 4
 5894              		.loc 3 305 0
 5895 0da4 93810010 		stw 28,16(1)
 5896              		.loc 3 306 0
 5897 0da8 7F802000 		cmpw 7,0,4
 5898              		.loc 3 305 0
 5899 0dac 93A10014 		stw 29,20(1)
 5900 0db0 93C10018 		stw 30,24(1)
 5901 0db4 93E1001C 		stw 31,28(1)
 5902              		.loc 3 306 0
 5903 0db8 419E0074 		beq- 7,.L325
 5904              		.cfi_offset 31, -4
 5905              		.cfi_offset 30, -8
 5906              		.cfi_offset 29, -12
 5907              		.cfi_offset 28, -16
 5908              	.LBB3069:
 5909              	.LBB3070:
 5910              	.LBB3071:
 5911              	.LBB3072:
 5912              		.loc 1 338 0
 5913 0dbc 812300AC 		lwz 9,172(3)
 5914              	.LBE3072:
 5915              	.LBE3071:
 5916              		.loc 1 2270 0
 5917 0dc0 3B4300AC 		addi 26,3,172
 5918              	.LBE3070:
 5919              	.LBE3069:
 5920              		.loc 3 309 0
 5921 0dc4 908300DC 		stw 4,220(3)
 5922              	.LBB3092:
 5923              	.LBB3087:
 5924              	.LBB3076:
 5925              	.LBB3073:
 5926              		.loc 1 338 0
 5927 0dc8 7F43D378 		mr 3,26
 5928              	.LVL426:
 5929 0dcc 80090008 		lwz 0,8(9)
 5930              	.LBE3073:
 5931              	.LBE3076:
 5932              	.LBE3087:
 5933              		.loc 3 483 0
 5934 0dd0 7F7EDB78 		mr 30,27
 5935              	.LBE3092:
 5936              		.loc 3 310 0
 5937 0dd4 839B00D4 		lwz 28,212(27)
 5938              	.LBB3093:
 5939              	.LBB3088:
 5940              	.LBB3077:
 5941              	.LBB3074:
 5942              		.loc 1 338 0
 5943 0dd8 7C0903A6 		mtctr 0
 5944              	.LBE3074:
 5945              	.LBE3077:
 5946              	.LBE3088:
 5947              	.LBE3093:
 5948              		.loc 3 310 0
 5949 0ddc 83BB00D8 		lwz 29,216(27)
 5950              	.LVL427:
 5951              	.LEHB44:
 5952              	.LBB3094:
 5953              	.LBB3089:
 5954              	.LBB3078:
 5955              	.LBB3075:
 5956              		.loc 1 338 0
 5957 0de0 4E800421 		bctrl
 5958              	.LEHE44:
 5959              	.LVL428:
 5960              	.LBE3075:
 5961              	.LBE3078:
 5962              	.LBE3089:
 5963              		.loc 3 483 0
 5964 0de4 87FE00B0 		lwzu 31,176(30)
 5965              	.LVL429:
 5966              	.LBB3090:
 5967              		.loc 1 2274 0
 5968 0de8 7F9FF000 		cmpw 7,31,30
 5969 0dec 419E002C 		beq- 7,.L327
 5970              	.LVL430:
 5971              	.L333:
 5972              		.loc 1 2279 0
 5973 0df0 807F0008 		lwz 3,8(31)
 5974 0df4 7F84E378 		mr 4,28
 5975 0df8 7FA5EB78 		mr 5,29
 5976              	.LBB3079:
 5977              	.LBB3080:
 5978              		.loc 4 234 0
 5979 0dfc 83FF0000 		lwz 31,0(31)
 5980              	.LVL431:
 5981              	.LBE3080:
 5982              	.LBE3079:
 5983              		.loc 1 2279 0
 5984 0e00 81230000 		lwz 9,0(3)
 5985 0e04 8009000C 		lwz 0,12(9)
 5986 0e08 7C0903A6 		mtctr 0
 5987              	.LEHB45:
 5988 0e0c 4E800421 		bctrl
 5989              	.LEHE45:
 5990              	.LVL432:
 5991              		.loc 1 2274 0
 5992 0e10 7F9EF800 		cmpw 7,30,31
 5993 0e14 409EFFDC 		bne+ 7,.L333
 5994              	.LVL433:
 5995              	.L327:
 5996              	.LBB3081:
 5997              	.LBB3082:
 5998              	.LBB3083:
 5999              		.loc 1 343 0
 6000 0e18 813B00AC 		lwz 9,172(27)
 6001 0e1c 7F43D378 		mr 3,26
 6002 0e20 8009000C 		lwz 0,12(9)
 6003 0e24 7C0903A6 		mtctr 0
 6004              	.LEHB46:
 6005 0e28 4E800421 		bctrl
 6006              	.LEHE46:
 6007              	.LVL434:
 6008              	.L325:
 6009              	.LBE3083:
 6010              	.LBE3082:
 6011              	.LBE3081:
 6012              	.LBE3090:
 6013              	.LBE3094:
 6014              		.loc 3 311 0
 6015 0e2c 80010024 		lwz 0,36(1)
 6016 0e30 83410008 		lwz 26,8(1)
 6017 0e34 7C0803A6 		mtlr 0
 6018 0e38 8361000C 		lwz 27,12(1)
 6019              	.LVL435:
 6020 0e3c 83810010 		lwz 28,16(1)
 6021 0e40 83A10014 		lwz 29,20(1)
 6022 0e44 83C10018 		lwz 30,24(1)
 6023 0e48 83E1001C 		lwz 31,28(1)
 6024 0e4c 38210020 		addi 1,1,32
 6025              		.cfi_remember_state
 6026              	.LCFI97:
 6027              		.cfi_def_cfa_offset 0
 6028              		.cfi_restore 31
 6029              		.cfi_restore 30
 6030              		.cfi_restore 29
 6031              		.cfi_restore 28
 6032              		.cfi_restore 27
 6033              		.cfi_restore 26
 6034 0e50 4E800020 		blr
 6035              	.LVL436:
 6036              	.L332:
 6037              	.LCFI98:
 6038              		.cfi_restore_state
 6039              	.LBB3095:
 6040              	.LBB3091:
 6041              	.LBB3084:
 6042              	.LBB3085:
 6043              	.LBB3086:
 6044              		.loc 1 343 0
 6045 0e54 813B00AC 		lwz 9,172(27)
 6046 0e58 7C7F1B78 		mr 31,3
 6047              	.LVL437:
 6048 0e5c 7F43D378 		mr 3,26
 6049 0e60 8009000C 		lwz 0,12(9)
 6050 0e64 7C0903A6 		mtctr 0
 6051 0e68 4E800421 		bctrl
 6052 0e6c 7FE3FB78 		mr 3,31
 6053              	.LEHB47:
 6054 0e70 48000001 		bl _Unwind_Resume
 6055              	.LEHE47:
 6056              	.LBE3086:
 6057              	.LBE3085:
 6058              	.LBE3084:
 6059              	.LBE3091:
 6060              	.LBE3095:
 6061              		.cfi_endproc
 6062              	.LFE1576:
 6063              		.section	.gcc_except_table
 6064              	.LLSDA1576:
 6065 0105 FF       		.byte	0xff
 6066 0106 FF       		.byte	0xff
 6067 0107 01       		.byte	0x1
 6068 0108 14       		.uleb128 .LLSDACSE1576-.LLSDACSB1576
 6069              	.LLSDACSB1576:
 6070 0109 58       		.uleb128 .LEHB44-.LFB1576
 6071 010a 04       		.uleb128 .LEHE44-.LEHB44
 6072 010b 00       		.uleb128 0
 6073 010c 00       		.uleb128 0
 6074 010d 8401     		.uleb128 .LEHB45-.LFB1576
 6075 010f 04       		.uleb128 .LEHE45-.LEHB45
 6076 0110 CC01     		.uleb128 .L332-.LFB1576
 6077 0112 00       		.uleb128 0
 6078 0113 A001     		.uleb128 .LEHB46-.LFB1576
 6079 0115 04       		.uleb128 .LEHE46-.LEHB46
 6080 0116 00       		.uleb128 0
 6081 0117 00       		.uleb128 0
 6082 0118 E801     		.uleb128 .LEHB47-.LFB1576
 6083 011a 04       		.uleb128 .LEHE47-.LEHB47
 6084 011b 00       		.uleb128 0
 6085 011c 00       		.uleb128 0
 6086              	.LLSDACSE1576:
 6087              		.section	".text"
 6088              		.size	_ZN9Scrollbar10SetRowSizeEi, .-_ZN9Scrollbar10SetRowSizeEi
 6089              		.align 2
 6090              		.globl _ZN9Scrollbar15SetSelectedItemEi
 6091              		.type	_ZN9Scrollbar15SetSelectedItemEi, @function
 6092              	_ZN9Scrollbar15SetSelectedItemEi:
 6093              	.LFB1577:
 6094              		.loc 3 314 0
 6095              		.cfi_startproc
 6096              		.cfi_personality 0,__gxx_personality_v0
 6097              		.cfi_lsda 0,.LLSDA1577
 6098              	.LVL438:
 6099 0e74 7C0802A6 		mflr 0
 6100 0e78 9421FFE0 		stwu 1,-32(1)
 6101              	.LCFI99:
 6102              		.cfi_def_cfa_offset 32
 6103              		.cfi_register 65, 0
 6104 0e7c 9361000C 		stw 27,12(1)
 6105 0e80 7C7B1B78 		mr 27,3
 6106              		.cfi_offset 27, -20
 6107 0e84 90010024 		stw 0,36(1)
 6108 0e88 93C10018 		stw 30,24(1)
 6109 0e8c 7C9E2378 		mr 30,4
 6110              		.cfi_offset 30, -8
 6111              		.cfi_offset 65, 4
 6112              		.loc 3 315 0
 6113 0e90 800300D4 		lwz 0,212(3)
 6114              		.loc 3 314 0
 6115 0e94 93410008 		stw 26,8(1)
 6116              		.loc 3 315 0
 6117 0e98 7F802000 		cmpw 7,0,4
 6118              		.loc 3 314 0
 6119 0e9c 93810010 		stw 28,16(1)
 6120 0ea0 93A10014 		stw 29,20(1)
 6121 0ea4 93E1001C 		stw 31,28(1)
 6122              		.loc 3 315 0
 6123 0ea8 419E0070 		beq- 7,.L334
 6124              		.cfi_offset 31, -4
 6125              		.cfi_offset 29, -12
 6126              		.cfi_offset 28, -16
 6127              		.cfi_offset 26, -24
 6128              	.LBB3111:
 6129              	.LBB3112:
 6130              	.LBB3113:
 6131              	.LBB3114:
 6132              		.loc 1 338 0
 6133 0eac 812300AC 		lwz 9,172(3)
 6134              	.LBE3114:
 6135              	.LBE3113:
 6136              		.loc 1 2270 0
 6137 0eb0 3B4300AC 		addi 26,3,172
 6138              	.LBE3112:
 6139              	.LBE3111:
 6140              		.loc 3 318 0
 6141 0eb4 909B00D4 		stw 4,212(27)
 6142              	.LBB3131:
 6143              	.LBB3127:
 6144              	.LBB3117:
 6145              	.LBB3115:
 6146              		.loc 1 338 0
 6147 0eb8 7F43D378 		mr 3,26
 6148              	.LVL439:
 6149 0ebc 80090008 		lwz 0,8(9)
 6150              	.LBE3115:
 6151              	.LBE3117:
 6152              	.LBE3127:
 6153              		.loc 3 483 0
 6154 0ec0 7F7DDB78 		mr 29,27
 6155              	.LBE3131:
 6156              		.loc 3 319 0
 6157 0ec4 839B00D8 		lwz 28,216(27)
 6158              	.LVL440:
 6159              	.LBB3132:
 6160              	.LBB3128:
 6161              	.LBB3118:
 6162              	.LBB3116:
 6163              		.loc 1 338 0
 6164 0ec8 7C0903A6 		mtctr 0
 6165              	.LEHB48:
 6166 0ecc 4E800421 		bctrl
 6167              	.LEHE48:
 6168              	.LVL441:
 6169              	.LBE3116:
 6170              	.LBE3118:
 6171              	.LBE3128:
 6172              		.loc 3 483 0
 6173 0ed0 87FD00B0 		lwzu 31,176(29)
 6174              	.LVL442:
 6175              	.LBB3129:
 6176              		.loc 1 2274 0
 6177 0ed4 7F9FE800 		cmpw 7,31,29
 6178 0ed8 419E002C 		beq- 7,.L336
 6179              	.LVL443:
 6180              	.L342:
 6181              		.loc 1 2279 0
 6182 0edc 807F0008 		lwz 3,8(31)
 6183 0ee0 7FC4F378 		mr 4,30
 6184 0ee4 7F85E378 		mr 5,28
 6185              	.LBB3119:
 6186              	.LBB3120:
 6187              		.loc 4 234 0
 6188 0ee8 83FF0000 		lwz 31,0(31)
 6189              	.LVL444:
 6190              	.LBE3120:
 6191              	.LBE3119:
 6192              		.loc 1 2279 0
 6193 0eec 81230000 		lwz 9,0(3)
 6194 0ef0 8009000C 		lwz 0,12(9)
 6195 0ef4 7C0903A6 		mtctr 0
 6196              	.LEHB49:
 6197 0ef8 4E800421 		bctrl
 6198              	.LEHE49:
 6199              	.LVL445:
 6200              		.loc 1 2274 0
 6201 0efc 7F9DF800 		cmpw 7,29,31
 6202 0f00 409EFFDC 		bne+ 7,.L342
 6203              	.LVL446:
 6204              	.L336:
 6205              	.LBB3121:
 6206              	.LBB3122:
 6207              	.LBB3123:
 6208              		.loc 1 343 0
 6209 0f04 813B00AC 		lwz 9,172(27)
 6210 0f08 7F43D378 		mr 3,26
 6211 0f0c 8009000C 		lwz 0,12(9)
 6212 0f10 7C0903A6 		mtctr 0
 6213              	.LEHB50:
 6214 0f14 4E800421 		bctrl
 6215              	.LEHE50:
 6216              	.LVL447:
 6217              	.L334:
 6218              	.LBE3123:
 6219              	.LBE3122:
 6220              	.LBE3121:
 6221              	.LBE3129:
 6222              	.LBE3132:
 6223              		.loc 3 320 0
 6224 0f18 80010024 		lwz 0,36(1)
 6225 0f1c 83410008 		lwz 26,8(1)
 6226 0f20 7C0803A6 		mtlr 0
 6227 0f24 8361000C 		lwz 27,12(1)
 6228              	.LVL448:
 6229 0f28 83810010 		lwz 28,16(1)
 6230 0f2c 83A10014 		lwz 29,20(1)
 6231 0f30 83C10018 		lwz 30,24(1)
 6232              	.LVL449:
 6233 0f34 83E1001C 		lwz 31,28(1)
 6234 0f38 38210020 		addi 1,1,32
 6235              		.cfi_remember_state
 6236              	.LCFI100:
 6237              		.cfi_def_cfa_offset 0
 6238              		.cfi_restore 31
 6239              		.cfi_restore 30
 6240              		.cfi_restore 29
 6241              		.cfi_restore 28
 6242              		.cfi_restore 27
 6243              		.cfi_restore 26
 6244 0f3c 4E800020 		blr
 6245              	.LVL450:
 6246              	.L341:
 6247              	.LCFI101:
 6248              		.cfi_restore_state
 6249              	.LBB3133:
 6250              	.LBB3130:
 6251              	.LBB3124:
 6252              	.LBB3125:
 6253              	.LBB3126:
 6254              		.loc 1 343 0
 6255 0f40 813B00AC 		lwz 9,172(27)
 6256 0f44 7C7F1B78 		mr 31,3
 6257              	.LVL451:
 6258 0f48 7F43D378 		mr 3,26
 6259 0f4c 8009000C 		lwz 0,12(9)
 6260 0f50 7C0903A6 		mtctr 0
 6261 0f54 4E800421 		bctrl
 6262 0f58 7FE3FB78 		mr 3,31
 6263              	.LEHB51:
 6264 0f5c 48000001 		bl _Unwind_Resume
 6265              	.LEHE51:
 6266              	.LBE3126:
 6267              	.LBE3125:
 6268              	.LBE3124:
 6269              	.LBE3130:
 6270              	.LBE3133:
 6271              		.cfi_endproc
 6272              	.LFE1577:
 6273              		.section	.gcc_except_table
 6274              	.LLSDA1577:
 6275 011d FF       		.byte	0xff
 6276 011e FF       		.byte	0xff
 6277 011f 01       		.byte	0x1
 6278 0120 14       		.uleb128 .LLSDACSE1577-.LLSDACSB1577
 6279              	.LLSDACSB1577:
 6280 0121 58       		.uleb128 .LEHB48-.LFB1577
 6281 0122 04       		.uleb128 .LEHE48-.LEHB48
 6282 0123 00       		.uleb128 0
 6283 0124 00       		.uleb128 0
 6284 0125 8401     		.uleb128 .LEHB49-.LFB1577
 6285 0127 04       		.uleb128 .LEHE49-.LEHB49
 6286 0128 CC01     		.uleb128 .L341-.LFB1577
 6287 012a 00       		.uleb128 0
 6288 012b A001     		.uleb128 .LEHB50-.LFB1577
 6289 012d 04       		.uleb128 .LEHE50-.LEHB50
 6290 012e 00       		.uleb128 0
 6291 012f 00       		.uleb128 0
 6292 0130 E801     		.uleb128 .LEHB51-.LFB1577
 6293 0132 04       		.uleb128 .LEHE51-.LEHB51
 6294 0133 00       		.uleb128 0
 6295 0134 00       		.uleb128 0
 6296              	.LLSDACSE1577:
 6297              		.section	".text"
 6298              		.size	_ZN9Scrollbar15SetSelectedItemEi, .-_ZN9Scrollbar15SetSelectedItemEi
 6299              		.align 2
 6300              		.globl _ZN9Scrollbar16SetSelectedIndexEi
 6301              		.type	_ZN9Scrollbar16SetSelectedIndexEi, @function
 6302              	_ZN9Scrollbar16SetSelectedIndexEi:
 6303              	.LFB1578:
 6304              		.loc 3 323 0
 6305              		.cfi_startproc
 6306              		.cfi_personality 0,__gxx_personality_v0
 6307              		.cfi_lsda 0,.LLSDA1578
 6308              	.LVL452:
 6309 0f60 7C0802A6 		mflr 0
 6310 0f64 9421FFE0 		stwu 1,-32(1)
 6311              	.LCFI102:
 6312              		.cfi_def_cfa_offset 32
 6313              		.cfi_register 65, 0
 6314 0f68 9361000C 		stw 27,12(1)
 6315 0f6c 7C7B1B78 		mr 27,3
 6316              		.cfi_offset 27, -20
 6317 0f70 90010024 		stw 0,36(1)
 6318 0f74 93C10018 		stw 30,24(1)
 6319 0f78 7C9E2378 		mr 30,4
 6320              		.cfi_offset 30, -8
 6321              		.cfi_offset 65, 4
 6322              		.loc 3 324 0
 6323 0f7c 800300D8 		lwz 0,216(3)
 6324              		.loc 3 323 0
 6325 0f80 93410008 		stw 26,8(1)
 6326              		.loc 3 324 0
 6327 0f84 7F802000 		cmpw 7,0,4
 6328              		.loc 3 323 0
 6329 0f88 93810010 		stw 28,16(1)
 6330 0f8c 93A10014 		stw 29,20(1)
 6331 0f90 93E1001C 		stw 31,28(1)
 6332              		.loc 3 324 0
 6333 0f94 419E0070 		beq- 7,.L343
 6334              		.cfi_offset 31, -4
 6335              		.cfi_offset 29, -12
 6336              		.cfi_offset 28, -16
 6337              		.cfi_offset 26, -24
 6338              	.LBB3149:
 6339              	.LBB3150:
 6340              	.LBB3151:
 6341              	.LBB3152:
 6342              		.loc 1 338 0
 6343 0f98 812300AC 		lwz 9,172(3)
 6344              	.LBE3152:
 6345              	.LBE3151:
 6346              		.loc 1 2270 0
 6347 0f9c 3B4300AC 		addi 26,3,172
 6348              	.LBE3150:
 6349              	.LBE3149:
 6350              		.loc 3 327 0
 6351 0fa0 909B00D8 		stw 4,216(27)
 6352              	.LBB3169:
 6353              	.LBB3165:
 6354              	.LBB3155:
 6355              	.LBB3153:
 6356              		.loc 1 338 0
 6357 0fa4 7F43D378 		mr 3,26
 6358              	.LVL453:
 6359 0fa8 80090008 		lwz 0,8(9)
 6360              	.LBE3153:
 6361              	.LBE3155:
 6362              	.LBE3165:
 6363              		.loc 3 483 0
 6364 0fac 7F7DDB78 		mr 29,27
 6365              	.LBE3169:
 6366              		.loc 3 328 0
 6367 0fb0 839B00D4 		lwz 28,212(27)
 6368              	.LVL454:
 6369              	.LBB3170:
 6370              	.LBB3166:
 6371              	.LBB3156:
 6372              	.LBB3154:
 6373              		.loc 1 338 0
 6374 0fb4 7C0903A6 		mtctr 0
 6375              	.LEHB52:
 6376 0fb8 4E800421 		bctrl
 6377              	.LEHE52:
 6378              	.LVL455:
 6379              	.LBE3154:
 6380              	.LBE3156:
 6381              	.LBE3166:
 6382              		.loc 3 483 0
 6383 0fbc 87FD00B0 		lwzu 31,176(29)
 6384              	.LVL456:
 6385              	.LBB3167:
 6386              		.loc 1 2274 0
 6387 0fc0 7F9FE800 		cmpw 7,31,29
 6388 0fc4 419E002C 		beq- 7,.L345
 6389              	.LVL457:
 6390              	.L351:
 6391              		.loc 1 2279 0
 6392 0fc8 807F0008 		lwz 3,8(31)
 6393 0fcc 7F84E378 		mr 4,28
 6394 0fd0 7FC5F378 		mr 5,30
 6395              	.LBB3157:
 6396              	.LBB3158:
 6397              		.loc 4 234 0
 6398 0fd4 83FF0000 		lwz 31,0(31)
 6399              	.LVL458:
 6400              	.LBE3158:
 6401              	.LBE3157:
 6402              		.loc 1 2279 0
 6403 0fd8 81230000 		lwz 9,0(3)
 6404 0fdc 8009000C 		lwz 0,12(9)
 6405 0fe0 7C0903A6 		mtctr 0
 6406              	.LEHB53:
 6407 0fe4 4E800421 		bctrl
 6408              	.LEHE53:
 6409              	.LVL459:
 6410              		.loc 1 2274 0
 6411 0fe8 7F9DF800 		cmpw 7,29,31
 6412 0fec 409EFFDC 		bne+ 7,.L351
 6413              	.LVL460:
 6414              	.L345:
 6415              	.LBB3159:
 6416              	.LBB3160:
 6417              	.LBB3161:
 6418              		.loc 1 343 0
 6419 0ff0 813B00AC 		lwz 9,172(27)
 6420 0ff4 7F43D378 		mr 3,26
 6421 0ff8 8009000C 		lwz 0,12(9)
 6422 0ffc 7C0903A6 		mtctr 0
 6423              	.LEHB54:
 6424 1000 4E800421 		bctrl
 6425              	.LEHE54:
 6426              	.LVL461:
 6427              	.L343:
 6428              	.LBE3161:
 6429              	.LBE3160:
 6430              	.LBE3159:
 6431              	.LBE3167:
 6432              	.LBE3170:
 6433              		.loc 3 329 0
 6434 1004 80010024 		lwz 0,36(1)
 6435 1008 83410008 		lwz 26,8(1)
 6436 100c 7C0803A6 		mtlr 0
 6437 1010 8361000C 		lwz 27,12(1)
 6438              	.LVL462:
 6439 1014 83810010 		lwz 28,16(1)
 6440 1018 83A10014 		lwz 29,20(1)
 6441 101c 83C10018 		lwz 30,24(1)
 6442              	.LVL463:
 6443 1020 83E1001C 		lwz 31,28(1)
 6444 1024 38210020 		addi 1,1,32
 6445              		.cfi_remember_state
 6446              	.LCFI103:
 6447              		.cfi_def_cfa_offset 0
 6448              		.cfi_restore 31
 6449              		.cfi_restore 30
 6450              		.cfi_restore 29
 6451              		.cfi_restore 28
 6452              		.cfi_restore 27
 6453              		.cfi_restore 26
 6454 1028 4E800020 		blr
 6455              	.LVL464:
 6456              	.L350:
 6457              	.LCFI104:
 6458              		.cfi_restore_state
 6459              	.LBB3171:
 6460              	.LBB3168:
 6461              	.LBB3162:
 6462              	.LBB3163:
 6463              	.LBB3164:
 6464              		.loc 1 343 0
 6465 102c 813B00AC 		lwz 9,172(27)
 6466 1030 7C7F1B78 		mr 31,3
 6467              	.LVL465:
 6468 1034 7F43D378 		mr 3,26
 6469 1038 8009000C 		lwz 0,12(9)
 6470 103c 7C0903A6 		mtctr 0
 6471 1040 4E800421 		bctrl
 6472 1044 7FE3FB78 		mr 3,31
 6473              	.LEHB55:
 6474 1048 48000001 		bl _Unwind_Resume
 6475              	.LEHE55:
 6476              	.LBE3164:
 6477              	.LBE3163:
 6478              	.LBE3162:
 6479              	.LBE3168:
 6480              	.LBE3171:
 6481              		.cfi_endproc
 6482              	.LFE1578:
 6483              		.section	.gcc_except_table
 6484              	.LLSDA1578:
 6485 0135 FF       		.byte	0xff
 6486 0136 FF       		.byte	0xff
 6487 0137 01       		.byte	0x1
 6488 0138 14       		.uleb128 .LLSDACSE1578-.LLSDACSB1578
 6489              	.LLSDACSB1578:
 6490 0139 58       		.uleb128 .LEHB52-.LFB1578
 6491 013a 04       		.uleb128 .LEHE52-.LEHB52
 6492 013b 00       		.uleb128 0
 6493 013c 00       		.uleb128 0
 6494 013d 8401     		.uleb128 .LEHB53-.LFB1578
 6495 013f 04       		.uleb128 .LEHE53-.LEHB53
 6496 0140 CC01     		.uleb128 .L350-.LFB1578
 6497 0142 00       		.uleb128 0
 6498 0143 A001     		.uleb128 .LEHB54-.LFB1578
 6499 0145 04       		.uleb128 .LEHE54-.LEHB54
 6500 0146 00       		.uleb128 0
 6501 0147 00       		.uleb128 0
 6502 0148 E801     		.uleb128 .LEHB55-.LFB1578
 6503 014a 04       		.uleb128 .LEHE55-.LEHB55
 6504 014b 00       		.uleb128 0
 6505 014c 00       		.uleb128 0
 6506              	.LLSDACSE1578:
 6507              		.section	".text"
 6508              		.size	_ZN9Scrollbar16SetSelectedIndexEi, .-_ZN9Scrollbar16SetSelectedIndexEi
 6509              		.align 2
 6510              		.globl _ZN9Scrollbar11SetSelectedEii
 6511              		.type	_ZN9Scrollbar11SetSelectedEii, @function
 6512              	_ZN9Scrollbar11SetSelectedEii:
 6513              	.LFB1579:
 6514              		.loc 3 332 0
 6515              		.cfi_startproc
 6516              		.cfi_personality 0,__gxx_personality_v0
 6517              		.cfi_lsda 0,.LLSDA1579
 6518              	.LVL466:
 6519 104c 7C0802A6 		mflr 0
 6520 1050 9421FFE0 		stwu 1,-32(1)
 6521              	.LCFI105:
 6522              		.cfi_def_cfa_offset 32
 6523              		.cfi_register 65, 0
 6524 1054 9361000C 		stw 27,12(1)
 6525 1058 7C7B1B78 		mr 27,3
 6526              		.cfi_offset 27, -20
 6527 105c 90010024 		stw 0,36(1)
 6528 1060 93810010 		stw 28,16(1)
 6529 1064 7CBC2B78 		mr 28,5
 6530              		.cfi_offset 28, -16
 6531              		.cfi_offset 65, 4
 6532              		.loc 3 333 0
 6533 1068 800300D4 		lwz 0,212(3)
 6534              		.loc 3 332 0
 6535 106c 93A10014 		stw 29,20(1)
 6536 1070 7C9D2378 		mr 29,4
 6537              		.cfi_offset 29, -12
 6538              		.loc 3 333 0
 6539 1074 7F802000 		cmpw 7,0,4
 6540              		.loc 3 332 0
 6541 1078 93410008 		stw 26,8(1)
 6542 107c 93C10018 		stw 30,24(1)
 6543 1080 93E1001C 		stw 31,28(1)
 6544              		.loc 3 333 0
 6545 1084 419E0098 		beq- 7,.L362
 6546              		.cfi_offset 31, -4
 6547              		.cfi_offset 30, -8
 6548              		.cfi_offset 26, -24
 6549              	.L353:
 6550              	.LBB3187:
 6551              	.LBB3188:
 6552              	.LBB3189:
 6553              	.LBB3190:
 6554              		.loc 1 338 0
 6555 1088 813B00AC 		lwz 9,172(27)
 6556              	.LBE3190:
 6557              	.LBE3189:
 6558              		.loc 1 2270 0
 6559 108c 3B5B00AC 		addi 26,27,172
 6560              	.LBE3188:
 6561              	.LBE3187:
 6562              		.loc 3 336 0
 6563 1090 93BB00D4 		stw 29,212(27)
 6564              	.LBB3207:
 6565              	.LBB3203:
 6566              	.LBB3193:
 6567              	.LBB3191:
 6568              		.loc 1 338 0
 6569 1094 7F43D378 		mr 3,26
 6570              	.LVL467:
 6571 1098 80090008 		lwz 0,8(9)
 6572              	.LBE3191:
 6573              	.LBE3193:
 6574              	.LBE3203:
 6575              		.loc 3 483 0
 6576 109c 7F7EDB78 		mr 30,27
 6577              	.LBE3207:
 6578              		.loc 3 337 0
 6579 10a0 939B00D8 		stw 28,216(27)
 6580              	.LVL468:
 6581              	.LBB3208:
 6582              	.LBB3204:
 6583              	.LBB3194:
 6584              	.LBB3192:
 6585              		.loc 1 338 0
 6586 10a4 7C0903A6 		mtctr 0
 6587              	.LEHB56:
 6588 10a8 4E800421 		bctrl
 6589              	.LEHE56:
 6590              	.LVL469:
 6591              	.LBE3192:
 6592              	.LBE3194:
 6593              	.LBE3204:
 6594              		.loc 3 483 0
 6595 10ac 87FE00B0 		lwzu 31,176(30)
 6596              	.LVL470:
 6597              	.LBB3205:
 6598              		.loc 1 2274 0
 6599 10b0 7F9FF000 		cmpw 7,31,30
 6600 10b4 419E002C 		beq- 7,.L355
 6601              	.LVL471:
 6602              	.L361:
 6603              		.loc 1 2279 0
 6604 10b8 807F0008 		lwz 3,8(31)
 6605 10bc 7FA4EB78 		mr 4,29
 6606 10c0 7F85E378 		mr 5,28
 6607              	.LBB3195:
 6608              	.LBB3196:
 6609              		.loc 4 234 0
 6610 10c4 83FF0000 		lwz 31,0(31)
 6611              	.LVL472:
 6612              	.LBE3196:
 6613              	.LBE3195:
 6614              		.loc 1 2279 0
 6615 10c8 81230000 		lwz 9,0(3)
 6616 10cc 8009000C 		lwz 0,12(9)
 6617 10d0 7C0903A6 		mtctr 0
 6618              	.LEHB57:
 6619 10d4 4E800421 		bctrl
 6620              	.LEHE57:
 6621              	.LVL473:
 6622              		.loc 1 2274 0
 6623 10d8 7F9EF800 		cmpw 7,30,31
 6624 10dc 409EFFDC 		bne+ 7,.L361
 6625              	.LVL474:
 6626              	.L355:
 6627              	.LBB3197:
 6628              	.LBB3198:
 6629              	.LBB3199:
 6630              		.loc 1 343 0
 6631 10e0 813B00AC 		lwz 9,172(27)
 6632 10e4 7F43D378 		mr 3,26
 6633 10e8 8009000C 		lwz 0,12(9)
 6634 10ec 7C0903A6 		mtctr 0
 6635              	.LEHB58:
 6636 10f0 4E800421 		bctrl
 6637              	.LEHE58:
 6638              	.LVL475:
 6639              	.L352:
 6640              	.LBE3199:
 6641              	.LBE3198:
 6642              	.LBE3197:
 6643              	.LBE3205:
 6644              	.LBE3208:
 6645              		.loc 3 339 0
 6646 10f4 80010024 		lwz 0,36(1)
 6647 10f8 83410008 		lwz 26,8(1)
 6648 10fc 7C0803A6 		mtlr 0
 6649 1100 8361000C 		lwz 27,12(1)
 6650              	.LVL476:
 6651 1104 83810010 		lwz 28,16(1)
 6652              	.LVL477:
 6653 1108 83A10014 		lwz 29,20(1)
 6654              	.LVL478:
 6655 110c 83C10018 		lwz 30,24(1)
 6656 1110 83E1001C 		lwz 31,28(1)
 6657 1114 38210020 		addi 1,1,32
 6658              		.cfi_remember_state
 6659              	.LCFI106:
 6660              		.cfi_def_cfa_offset 0
 6661              		.cfi_restore 31
 6662              		.cfi_restore 30
 6663              		.cfi_restore 29
 6664              		.cfi_restore 28
 6665              		.cfi_restore 27
 6666              		.cfi_restore 26
 6667 1118 4E800020 		blr
 6668              	.LVL479:
 6669              	.L362:
 6670              	.LCFI107:
 6671              		.cfi_restore_state
 6672              		.loc 3 333 0 discriminator 1
 6673 111c 800300D8 		lwz 0,216(3)
 6674 1120 7F802800 		cmpw 7,0,5
 6675 1124 409EFF64 		bne+ 7,.L353
 6676 1128 4BFFFFCC 		b .L352
 6677              	.LVL480:
 6678              	.L360:
 6679              	.LBB3209:
 6680              	.LBB3206:
 6681              	.LBB3200:
 6682              	.LBB3201:
 6683              	.LBB3202:
 6684              		.loc 1 343 0
 6685 112c 813B00AC 		lwz 9,172(27)
 6686 1130 7C7F1B78 		mr 31,3
 6687              	.LVL481:
 6688 1134 7F43D378 		mr 3,26
 6689 1138 8009000C 		lwz 0,12(9)
 6690 113c 7C0903A6 		mtctr 0
 6691 1140 4E800421 		bctrl
 6692 1144 7FE3FB78 		mr 3,31
 6693              	.LEHB59:
 6694 1148 48000001 		bl _Unwind_Resume
 6695              	.LEHE59:
 6696              	.LBE3202:
 6697              	.LBE3201:
 6698              	.LBE3200:
 6699              	.LBE3206:
 6700              	.LBE3209:
 6701              		.cfi_endproc
 6702              	.LFE1579:
 6703              		.section	.gcc_except_table
 6704              	.LLSDA1579:
 6705 014d FF       		.byte	0xff
 6706 014e FF       		.byte	0xff
 6707 014f 01       		.byte	0x1
 6708 0150 14       		.uleb128 .LLSDACSE1579-.LLSDACSB1579
 6709              	.LLSDACSB1579:
 6710 0151 5C       		.uleb128 .LEHB56-.LFB1579
 6711 0152 04       		.uleb128 .LEHE56-.LEHB56
 6712 0153 00       		.uleb128 0
 6713 0154 00       		.uleb128 0
 6714 0155 8801     		.uleb128 .LEHB57-.LFB1579
 6715 0157 04       		.uleb128 .LEHE57-.LEHB57
 6716 0158 E001     		.uleb128 .L360-.LFB1579
 6717 015a 00       		.uleb128 0
 6718 015b A401     		.uleb128 .LEHB58-.LFB1579
 6719 015d 04       		.uleb128 .LEHE58-.LEHB58
 6720 015e 00       		.uleb128 0
 6721 015f 00       		.uleb128 0
 6722 0160 FC01     		.uleb128 .LEHB59-.LFB1579
 6723 0162 04       		.uleb128 .LEHE59-.LEHB59
 6724 0163 00       		.uleb128 0
 6725 0164 00       		.uleb128 0
 6726              	.LLSDACSE1579:
 6727              		.section	".text"
 6728              		.size	_ZN9Scrollbar11SetSelectedEii, .-_ZN9Scrollbar11SetSelectedEii
 6729              		.align 2
 6730              		.globl _ZN9Scrollbar14SetEntrieCountEi
 6731              		.type	_ZN9Scrollbar14SetEntrieCountEi, @function
 6732              	_ZN9Scrollbar14SetEntrieCountEi:
 6733              	.LFB1580:
 6734              		.loc 3 342 0
 6735              		.cfi_startproc
 6736              		.cfi_personality 0,__gxx_personality_v0
 6737              		.cfi_lsda 0,.LLSDA1580
 6738              	.LVL482:
 6739 114c 7C0802A6 		mflr 0
 6740 1150 9421FFE0 		stwu 1,-32(1)
 6741              	.LCFI108:
 6742              		.cfi_def_cfa_offset 32
 6743              		.cfi_register 65, 0
 6744 1154 9361000C 		stw 27,12(1)
 6745 1158 7C7B1B78 		mr 27,3
 6746              		.cfi_offset 27, -20
 6747 115c 90010024 		stw 0,36(1)
 6748 1160 93410008 		stw 26,8(1)
 6749              		.loc 3 343 0
 6750 1164 800300E4 		lwz 0,228(3)
 6751              		.cfi_offset 26, -24
 6752              		.cfi_offset 65, 4
 6753              		.loc 3 342 0
 6754 1168 93810010 		stw 28,16(1)
 6755              		.loc 3 343 0
 6756 116c 7F802000 		cmpw 7,0,4
 6757              		.loc 3 342 0
 6758 1170 93A10014 		stw 29,20(1)
 6759 1174 93C10018 		stw 30,24(1)
 6760 1178 93E1001C 		stw 31,28(1)
 6761              		.loc 3 343 0
 6762 117c 419E0074 		beq- 7,.L363
 6763              		.cfi_offset 31, -4
 6764              		.cfi_offset 30, -8
 6765              		.cfi_offset 29, -12
 6766              		.cfi_offset 28, -16
 6767              	.LBB3225:
 6768              	.LBB3226:
 6769              	.LBB3227:
 6770              	.LBB3228:
 6771              		.loc 1 338 0
 6772 1180 812300AC 		lwz 9,172(3)
 6773              	.LBE3228:
 6774              	.LBE3227:
 6775              		.loc 1 2270 0
 6776 1184 3B4300AC 		addi 26,3,172
 6777              	.LBE3226:
 6778              	.LBE3225:
 6779              		.loc 3 346 0
 6780 1188 908300E4 		stw 4,228(3)
 6781              	.LBB3248:
 6782              	.LBB3243:
 6783              	.LBB3232:
 6784              	.LBB3229:
 6785              		.loc 1 338 0
 6786 118c 7F43D378 		mr 3,26
 6787              	.LVL483:
 6788 1190 80090008 		lwz 0,8(9)
 6789              	.LBE3229:
 6790              	.LBE3232:
 6791              	.LBE3243:
 6792              		.loc 3 483 0
 6793 1194 7F7EDB78 		mr 30,27
 6794              	.LBE3248:
 6795              		.loc 3 347 0
 6796 1198 839B00D4 		lwz 28,212(27)
 6797              	.LBB3249:
 6798              	.LBB3244:
 6799              	.LBB3233:
 6800              	.LBB3230:
 6801              		.loc 1 338 0
 6802 119c 7C0903A6 		mtctr 0
 6803              	.LBE3230:
 6804              	.LBE3233:
 6805              	.LBE3244:
 6806              	.LBE3249:
 6807              		.loc 3 347 0
 6808 11a0 83BB00D8 		lwz 29,216(27)
 6809              	.LVL484:
 6810              	.LEHB60:
 6811              	.LBB3250:
 6812              	.LBB3245:
 6813              	.LBB3234:
 6814              	.LBB3231:
 6815              		.loc 1 338 0
 6816 11a4 4E800421 		bctrl
 6817              	.LEHE60:
 6818              	.LVL485:
 6819              	.LBE3231:
 6820              	.LBE3234:
 6821              	.LBE3245:
 6822              		.loc 3 483 0
 6823 11a8 87FE00B0 		lwzu 31,176(30)
 6824              	.LVL486:
 6825              	.LBB3246:
 6826              		.loc 1 2274 0
 6827 11ac 7F9FF000 		cmpw 7,31,30
 6828 11b0 419E002C 		beq- 7,.L365
 6829              	.LVL487:
 6830              	.L371:
 6831              		.loc 1 2279 0
 6832 11b4 807F0008 		lwz 3,8(31)
 6833 11b8 7F84E378 		mr 4,28
 6834 11bc 7FA5EB78 		mr 5,29
 6835              	.LBB3235:
 6836              	.LBB3236:
 6837              		.loc 4 234 0
 6838 11c0 83FF0000 		lwz 31,0(31)
 6839              	.LVL488:
 6840              	.LBE3236:
 6841              	.LBE3235:
 6842              		.loc 1 2279 0
 6843 11c4 81230000 		lwz 9,0(3)
 6844 11c8 8009000C 		lwz 0,12(9)
 6845 11cc 7C0903A6 		mtctr 0
 6846              	.LEHB61:
 6847 11d0 4E800421 		bctrl
 6848              	.LEHE61:
 6849              	.LVL489:
 6850              		.loc 1 2274 0
