   1              		.file	"SearchWindow.cpp"
   2              		.section	".text"
   3              	.Ltext0:
   4              		.section	.text._ZN7sigslot15single_threadedD2Ev,"axG",@progbits,_ZN7sigslot15single_threadedD5Ev,c
   5              		.align 2
   6              		.weak	_ZN7sigslot15single_threadedD2Ev
   7              		.type	_ZN7sigslot15single_threadedD2Ev, @function
   8              	_ZN7sigslot15single_threadedD2Ev:
   9              	.LFB1148:
  10              		.file 1 "d:/Projects/SaveGameManager/savegame-manager-gx/trunk/source/Prompts/../GUI/../sigslot.h"
  11              		.loc 1 104 0
  12              		.cfi_startproc
  13              	.LVL0:
  14              	.LBB3722:
  15              		.loc 1 105 0
  16 0000 3D200000 		lis 9,_ZTVN7sigslot15single_threadedE+8@ha
  17              	.LBE3722:
  18              		.loc 1 107 0
  19              	.LBB3723:
  20              		.loc 1 105 0
  21 0004 38090008 		la 0,_ZTVN7sigslot15single_threadedE+8@l(9)
  22 0008 90030000 		stw 0,0(3)
  23              	.LBE3723:
  24              		.loc 1 107 0
  25 000c 4E800020 		blr
  26              		.cfi_endproc
  27              	.LFE1148:
  28              		.size	_ZN7sigslot15single_threadedD2Ev, .-_ZN7sigslot15single_threadedD2Ev
  29              		.section	.text._ZN7sigslot15single_threaded4lockEv,"axG",@progbits,_ZN7sigslot15single_threaded4lo
  30              		.align 2
  31              		.weak	_ZN7sigslot15single_threaded4lockEv
  32              		.type	_ZN7sigslot15single_threaded4lockEv, @function
  33              	_ZN7sigslot15single_threaded4lockEv:
  34              	.LFB1151:
  35              		.loc 1 109 0
  36              		.cfi_startproc
  37              	.LVL1:
  38              		.loc 1 112 0
  39 0000 4E800020 		blr
  40              		.cfi_endproc
  41              	.LFE1151:
  42              		.size	_ZN7sigslot15single_threaded4lockEv, .-_ZN7sigslot15single_threaded4lockEv
  43              		.section	.text._ZN7sigslot15single_threaded6unlockEv,"axG",@progbits,_ZN7sigslot15single_threaded6
  44              		.align 2
  45              		.weak	_ZN7sigslot15single_threaded6unlockEv
  46              		.type	_ZN7sigslot15single_threaded6unlockEv, @function
  47              	_ZN7sigslot15single_threaded6unlockEv:
  48              	.LFB1152:
  49              		.loc 1 114 0
  50              		.cfi_startproc
  51              	.LVL2:
  52              		.loc 1 117 0
  53 0000 4E800020 		blr
  54              		.cfi_endproc
  55              	.LFE1152:
  56              		.size	_ZN7sigslot15single_threaded6unlockEv, .-_ZN7sigslot15single_threaded6unlockEv
  57              		.section	.text._ZN10GuiElement9SetParentEPS_,"axG",@progbits,_ZN10GuiElement9SetParentEPS_,comdat
  58              		.align 2
  59              		.weak	_ZN10GuiElement9SetParentEPS_
  60              		.type	_ZN10GuiElement9SetParentEPS_, @function
  61              	_ZN10GuiElement9SetParentEPS_:
  62              	.LFB1384:
  63              		.file 2 "d:/Projects/SaveGameManager/savegame-manager-gx/trunk/source/Prompts/../GUI/gui_element.h
  64              		.loc 2 92 0
  65              		.cfi_startproc
  66              	.LVL3:
  67              		.loc 2 92 0
  68 0000 90830060 		stw 4,96(3)
  69 0004 4E800020 		blr
  70              		.cfi_endproc
  71              	.LFE1384:
  72              		.size	_ZN10GuiElement9SetParentEPS_, .-_ZN10GuiElement9SetParentEPS_
  73              		.section	.text._ZN10GuiElement9GetParentEv,"axG",@progbits,_ZN10GuiElement9GetParentEv,comdat
  74              		.align 2
  75              		.weak	_ZN10GuiElement9GetParentEv
  76              		.type	_ZN10GuiElement9GetParentEv, @function
  77              	_ZN10GuiElement9GetParentEv:
  78              	.LFB1385:
  79              		.loc 2 95 0
  80              		.cfi_startproc
  81              	.LVL4:
  82              		.loc 2 95 0
  83 0000 80630060 		lwz 3,96(3)
  84              	.LVL5:
  85 0004 4E800020 		blr
  86              		.cfi_endproc
  87              	.LFE1385:
  88              		.size	_ZN10GuiElement9GetParentEv, .-_ZN10GuiElement9GetParentEv
  89              		.section	.text._ZN10GuiElement12GetZPositionEv,"axG",@progbits,_ZN10GuiElement12GetZPositionEv,com
  90              		.align 2
  91              		.weak	_ZN10GuiElement12GetZPositionEv
  92              		.type	_ZN10GuiElement12GetZPositionEv, @function
  93              	_ZN10GuiElement12GetZPositionEv:
  94              	.LFB1386:
  95              		.loc 2 106 0
  96              		.cfi_startproc
  97              	.LVL6:
  98 0000 7C0802A6 		mflr 0
  99 0004 9421FFF0 		stwu 1,-16(1)
 100              	.LCFI0:
 101              		.cfi_def_cfa_offset 16
 102              		.cfi_register 65, 0
 103 0008 93E1000C 		stw 31,12(1)
 104 000c 7C7F1B78 		mr 31,3
 105              		.cfi_offset 31, -4
 106 0010 90010014 		stw 0,20(1)
 107              	.LBB3724:
 108              		.loc 2 110 0
 109 0014 81630060 		lwz 11,96(3)
 110              		.loc 2 108 0
 111 0018 38600000 		li 3,0
 112              	.LVL7:
 113              		.loc 2 110 0
 114 001c 2F8B0000 		cmpwi 7,11,0
 115 0020 419E0018 		beq- 7,.L8
 116              		.cfi_offset 65, 4
 117              		.loc 2 111 0
 118 0024 812B0000 		lwz 9,0(11)
 119 0028 7D635B78 		mr 3,11
 120 002c 80090018 		lwz 0,24(9)
 121 0030 7C0903A6 		mtctr 0
 122 0034 4E800421 		bctrl
 123              	.LVL8:
 124              	.L8:
 125              		.loc 2 113 0
 126 0038 801F0034 		lwz 0,52(31)
 127              	.LBE3724:
 128              		.loc 2 114 0
 129 003c 83E1000C 		lwz 31,12(1)
 130              	.LVL9:
 131 0040 7C630214 		add 3,3,0
 132              	.LVL10:
 133 0044 80010014 		lwz 0,20(1)
 134 0048 38210010 		addi 1,1,16
 135              	.LCFI1:
 136              		.cfi_def_cfa_offset 0
 137              		.cfi_restore 31
 138 004c 7C0803A6 		mtlr 0
 139 0050 4E800020 		blr
 140              		.cfi_endproc
 141              	.LFE1386:
 142              		.size	_ZN10GuiElement12GetZPositionEv, .-_ZN10GuiElement12GetZPositionEv
 143              		.section	.text._ZN10GuiElement10GetLeftPosEv,"axG",@progbits,_ZN10GuiElement10GetLeftPosEv,comdat
 144              		.align 2
 145              		.weak	_ZN10GuiElement10GetLeftPosEv
 146              		.type	_ZN10GuiElement10GetLeftPosEv, @function
 147              	_ZN10GuiElement10GetLeftPosEv:
 148              	.LFB1387:
 149              		.loc 2 116 0
 150              		.cfi_startproc
 151              	.LVL11:
 152              		.loc 2 116 0
 153 0000 8063002C 		lwz 3,44(3)
 154              	.LVL12:
 155 0004 4E800020 		blr
 156              		.cfi_endproc
 157              	.LFE1387:
 158              		.size	_ZN10GuiElement10GetLeftPosEv, .-_ZN10GuiElement10GetLeftPosEv
 159              		.section	.text._ZN10GuiElement9GetTopPosEv,"axG",@progbits,_ZN10GuiElement9GetTopPosEv,comdat
 160              		.align 2
 161              		.weak	_ZN10GuiElement9GetTopPosEv
 162              		.type	_ZN10GuiElement9GetTopPosEv, @function
 163              	_ZN10GuiElement9GetTopPosEv:
 164              	.LFB1388:
 165              		.loc 2 118 0
 166              		.cfi_startproc
 167              	.LVL13:
 168              		.loc 2 118 0
 169 0000 80630030 		lwz 3,48(3)
 170              	.LVL14:
 171 0004 4E800020 		blr
 172              		.cfi_endproc
 173              	.LFE1388:
 174              		.size	_ZN10GuiElement9GetTopPosEv, .-_ZN10GuiElement9GetTopPosEv
 175              		.section	.text._ZN10GuiElement8GetWidthEv,"axG",@progbits,_ZN10GuiElement8GetWidthEv,comdat
 176              		.align 2
 177              		.weak	_ZN10GuiElement8GetWidthEv
 178              		.type	_ZN10GuiElement8GetWidthEv, @function
 179              	_ZN10GuiElement8GetWidthEv:
 180              	.LFB1389:
 181              		.loc 2 121 0
 182              		.cfi_startproc
 183              	.LVL15:
 184              		.loc 2 121 0
 185 0000 80630024 		lwz 3,36(3)
 186              	.LVL16:
 187 0004 4E800020 		blr
 188              		.cfi_endproc
 189              	.LFE1389:
 190              		.size	_ZN10GuiElement8GetWidthEv, .-_ZN10GuiElement8GetWidthEv
 191              		.section	.text._ZN10GuiElement9GetHeightEv,"axG",@progbits,_ZN10GuiElement9GetHeightEv,comdat
 192              		.align 2
 193              		.weak	_ZN10GuiElement9GetHeightEv
 194              		.type	_ZN10GuiElement9GetHeightEv, @function
 195              	_ZN10GuiElement9GetHeightEv:
 196              	.LFB1390:
 197              		.loc 2 124 0
 198              		.cfi_startproc
 199              	.LVL17:
 200              		.loc 2 124 0
 201 0000 80630028 		lwz 3,40(3)
 202              	.LVL18:
 203 0004 4E800020 		blr
 204              		.cfi_endproc
 205              	.LFE1390:
 206              		.size	_ZN10GuiElement9GetHeightEv, .-_ZN10GuiElement9GetHeightEv
 207              		.section	.text._ZN10GuiElement7SetSizeEii,"axG",@progbits,_ZN10GuiElement7SetSizeEii,comdat
 208              		.align 2
 209              		.weak	_ZN10GuiElement7SetSizeEii
 210              		.type	_ZN10GuiElement7SetSizeEii, @function
 211              	_ZN10GuiElement7SetSizeEii:
 212              	.LFB1391:
 213              		.loc 2 128 0
 214              		.cfi_startproc
 215              	.LVL19:
 216              		.loc 2 130 0
 217 0000 90830024 		stw 4,36(3)
 218              		.loc 2 132 0
 219              		.loc 2 131 0
 220 0004 90A30028 		stw 5,40(3)
 221              		.loc 2 132 0
 222 0008 4E800020 		blr
 223              		.cfi_endproc
 224              	.LFE1391:
 225              		.size	_ZN10GuiElement7SetSizeEii, .-_ZN10GuiElement7SetSizeEii
 226              		.section	.text._ZN10GuiElement10SetVisibleEb,"axG",@progbits,_ZN10GuiElement10SetVisibleEb,comdat
 227              		.align 2
 228              		.weak	_ZN10GuiElement10SetVisibleEb
 229              		.type	_ZN10GuiElement10SetVisibleEb, @function
 230              	_ZN10GuiElement10SetVisibleEb:
 231              	.LFB1392:
 232              		.loc 2 135 0
 233              		.cfi_startproc
 234              		.cfi_personality 0,__gxx_personality_v0
 235              		.cfi_lsda 0,.LLSDA1392
 236              	.LVL20:
 237 0000 7C0802A6 		mflr 0
 238 0004 9421FFE0 		stwu 1,-32(1)
 239              	.LCFI2:
 240              		.cfi_def_cfa_offset 32
 241              		.cfi_register 65, 0
 242 0008 9361000C 		stw 27,12(1)
 243              	.LBB3725:
 244              	.LBB3726:
 245              		.loc 1 2270 0
 246 000c 3B630004 		addi 27,3,4
 247              		.cfi_offset 27, -20
 248              	.LBE3726:
 249              	.LBE3725:
 250              		.loc 2 135 0
 251 0010 90010024 		stw 0,36(1)
 252 0014 93C10018 		stw 30,24(1)
 253 0018 7C7E1B78 		mr 30,3
 254              		.cfi_offset 30, -8
 255              		.cfi_offset 65, 4
 256              	.LBB3749:
 257              	.LBB3743:
 258              	.LBB3727:
 259              	.LBB3728:
 260              		.loc 1 338 0
 261 001c 81230004 		lwz 9,4(3)
 262 0020 7F63DB78 		mr 3,27
 263              	.LVL21:
 264              	.LBE3728:
 265              	.LBE3727:
 266              	.LBE3743:
 267              	.LBE3749:
 268              		.loc 2 135 0
 269 0024 93810010 		stw 28,16(1)
 270 0028 7C9C2378 		mr 28,4
 271              		.cfi_offset 28, -16
 272              	.LBB3750:
 273              	.LBB3744:
 274              	.LBB3732:
 275              	.LBB3729:
 276              		.loc 1 338 0
 277 002c 80090008 		lwz 0,8(9)
 278              	.LBE3729:
 279              	.LBE3732:
 280              	.LBE3744:
 281              	.LBE3750:
 282              		.loc 2 135 0
 283 0030 93A10014 		stw 29,20(1)
 284              	.LBB3751:
 285              		.file 3 "d:/Projects/SaveGameManager/savegame-manager-gx/trunk/source/Prompts/SearchWindow.cpp"
 286              		.loc 3 312 0
 287 0034 7FDDF378 		mr 29,30
 288              		.cfi_offset 29, -12
 289              	.LBE3751:
 290              		.loc 2 135 0
 291 0038 93E1001C 		stw 31,28(1)
 292              	.LBB3752:
 293              	.LBB3745:
 294              	.LBB3733:
 295              	.LBB3730:
 296              		.loc 1 338 0
 297 003c 7C0903A6 		mtctr 0
 298              	.LBE3730:
 299              	.LBE3733:
 300              	.LBE3745:
 301              	.LBE3752:
 302              		.loc 2 137 0
 303 0040 989E001D 		stb 4,29(30)
 304              	.LVL22:
 305              	.LEHB0:
 306              	.LBB3753:
 307              	.LBB3746:
 308              	.LBB3734:
 309              	.LBB3731:
 310              		.loc 1 338 0
 311              		.cfi_offset 31, -4
 312 0044 4E800421 		bctrl
 313              	.LEHE0:
 314              	.LVL23:
 315              	.LBE3731:
 316              	.LBE3734:
 317              	.LBE3746:
 318              		.loc 3 312 0
 319 0048 87FD0008 		lwzu 31,8(29)
 320              	.LVL24:
 321              	.LBB3747:
 322              		.loc 1 2274 0
 323 004c 7F9FE800 		cmpw 7,31,29
 324 0050 419E002C 		beq- 7,.L17
 325              	.LVL25:
 326              	.L24:
 327              		.loc 1 2279 0
 328 0054 807F0008 		lwz 3,8(31)
 329 0058 7FC4F378 		mr 4,30
 330 005c 7F85E378 		mr 5,28
 331              	.LBB3735:
 332              	.LBB3736:
 333              		.file 4 "d:\\devkitpro\\devkitppc\\bin\\../lib/gcc/powerpc-eabi/4.6.3/../../../../powerpc-eabi/inc
 334              		.loc 4 234 0
 335 0060 83FF0000 		lwz 31,0(31)
 336              	.LVL26:
 337              	.LBE3736:
 338              	.LBE3735:
 339              		.loc 1 2279 0
 340 0064 81230000 		lwz 9,0(3)
 341 0068 8009000C 		lwz 0,12(9)
 342 006c 7C0903A6 		mtctr 0
 343              	.LEHB1:
 344 0070 4E800421 		bctrl
 345              	.LEHE1:
 346              	.LVL27:
 347              		.loc 1 2274 0
 348 0074 7F9DF800 		cmpw 7,29,31
 349 0078 409EFFDC 		bne+ 7,.L24
 350              	.LVL28:
 351              	.L17:
 352              	.LBB3737:
 353              	.LBB3738:
 354              	.LBB3739:
 355              		.loc 1 343 0
 356 007c 813E0004 		lwz 9,4(30)
 357 0080 7F63DB78 		mr 3,27
 358 0084 8009000C 		lwz 0,12(9)
 359 0088 7C0903A6 		mtctr 0
 360              	.LEHB2:
 361 008c 4E800421 		bctrl
 362              	.LEHE2:
 363              	.LBE3739:
 364              	.LBE3738:
 365              	.LBE3737:
 366              	.LBE3747:
 367              	.LBE3753:
 368              		.loc 2 139 0
 369 0090 80010024 		lwz 0,36(1)
 370 0094 8361000C 		lwz 27,12(1)
 371              	.LVL29:
 372 0098 7C0803A6 		mtlr 0
 373 009c 83810010 		lwz 28,16(1)
 374              	.LVL30:
 375 00a0 83A10014 		lwz 29,20(1)
 376 00a4 83C10018 		lwz 30,24(1)
 377              	.LVL31:
 378 00a8 83E1001C 		lwz 31,28(1)
 379              	.LVL32:
 380 00ac 38210020 		addi 1,1,32
 381              		.cfi_remember_state
 382              	.LCFI3:
 383              		.cfi_def_cfa_offset 0
 384              		.cfi_restore 31
 385              		.cfi_restore 30
 386              		.cfi_restore 29
 387              		.cfi_restore 28
 388              		.cfi_restore 27
 389 00b0 4E800020 		blr
 390              	.LVL33:
 391              	.L23:
 392              	.LCFI4:
 393              		.cfi_restore_state
 394              	.LBB3754:
 395              	.LBB3748:
 396              	.LBB3740:
 397              	.LBB3741:
 398              	.LBB3742:
 399              		.loc 1 343 0
 400 00b4 813E0004 		lwz 9,4(30)
 401 00b8 7C7F1B78 		mr 31,3
 402              	.LVL34:
 403 00bc 7F63DB78 		mr 3,27
 404 00c0 8009000C 		lwz 0,12(9)
 405 00c4 7C0903A6 		mtctr 0
 406 00c8 4E800421 		bctrl
 407 00cc 7FE3FB78 		mr 3,31
 408              	.LEHB3:
 409 00d0 48000001 		bl _Unwind_Resume
 410              	.LEHE3:
 411              	.LBE3742:
 412              	.LBE3741:
 413              	.LBE3740:
 414              	.LBE3748:
 415              	.LBE3754:
 416              		.cfi_endproc
 417              	.LFE1392:
 418              		.globl __gxx_personality_v0
 419              		.section	.gcc_except_table,"a",@progbits
 420              	.LLSDA1392:
 421 0000 FF       		.byte	0xff
 422 0001 FF       		.byte	0xff
 423 0002 01       		.byte	0x1
 424 0003 13       		.uleb128 .LLSDACSE1392-.LLSDACSB1392
 425              	.LLSDACSB1392:
 426 0004 44       		.uleb128 .LEHB0-.LFB1392
 427 0005 04       		.uleb128 .LEHE0-.LEHB0
 428 0006 00       		.uleb128 0
 429 0007 00       		.uleb128 0
 430 0008 70       		.uleb128 .LEHB1-.LFB1392
 431 0009 04       		.uleb128 .LEHE1-.LEHB1
 432 000a B401     		.uleb128 .L23-.LFB1392
 433 000c 00       		.uleb128 0
 434 000d 8C01     		.uleb128 .LEHB2-.LFB1392
 435 000f 04       		.uleb128 .LEHE2-.LEHB2
 436 0010 00       		.uleb128 0
 437 0011 00       		.uleb128 0
 438 0012 D001     		.uleb128 .LEHB3-.LFB1392
 439 0014 04       		.uleb128 .LEHE3-.LEHB3
 440 0015 00       		.uleb128 0
 441 0016 00       		.uleb128 0
 442              	.LLSDACSE1392:
 443              		.section	.text._ZN10GuiElement10SetVisibleEb,"axG",@progbits,_ZN10GuiElement10SetVisibleEb,comdat
 444              		.size	_ZN10GuiElement10SetVisibleEb, .-_ZN10GuiElement10SetVisibleEb
 445              		.section	.text._ZN10GuiElement9IsVisibleEv,"axG",@progbits,_ZN10GuiElement9IsVisibleEv,comdat
 446              		.align 2
 447              		.weak	_ZN10GuiElement9IsVisibleEv
 448              		.type	_ZN10GuiElement9IsVisibleEv, @function
 449              	_ZN10GuiElement9IsVisibleEv:
 450              	.LFB1393:
 451              		.loc 2 142 0
 452              		.cfi_startproc
 453              	.LVL35:
 454              		.loc 2 142 0
 455 0000 8863001D 		lbz 3,29(3)
 456              	.LVL36:
 457 0004 4E800020 		blr
 458              		.cfi_endproc
 459              	.LFE1393:
 460              		.size	_ZN10GuiElement9IsVisibleEv, .-_ZN10GuiElement9IsVisibleEv
 461              		.section	.text._ZN10GuiElement12IsSelectableEv,"axG",@progbits,_ZN10GuiElement12IsSelectableEv,com
 462              		.align 2
 463              		.weak	_ZN10GuiElement12IsSelectableEv
 464              		.type	_ZN10GuiElement12IsSelectableEv, @function
 465              	_ZN10GuiElement12IsSelectableEv:
 466              	.LFB1394:
 467              		.loc 2 145 0
 468              		.cfi_startproc
 469              	.LVL37:
 470              		.loc 2 149 0
 471 0000 80030048 		lwz 0,72(3)
 472 0004 39200000 		li 9,0
 473 0008 2F800004 		cmpwi 7,0,4
 474 000c 419E0010 		beq- 7,.L27
 475              		.loc 2 149 0 is_stmt 0 discriminator 1
 476 0010 2F800002 		cmpwi 7,0,2
 477 0014 419E0008 		beq- 7,.L27
 478              		.loc 2 149 0 discriminator 3
 479 0018 8923001E 		lbz 9,30(3)
 480              	.L27:
 481              		.loc 2 150 0 is_stmt 1 discriminator 5
 482 001c 7D234B78 		mr 3,9
 483              	.LVL38:
 484 0020 4E800020 		blr
 485              		.cfi_endproc
 486              	.LFE1394:
 487              		.size	_ZN10GuiElement12IsSelectableEv, .-_ZN10GuiElement12IsSelectableEv
 488              		.section	.text._ZN10GuiElement11IsClickableEv,"axG",@progbits,_ZN10GuiElement11IsClickableEv,comda
 489              		.align 2
 490              		.weak	_ZN10GuiElement11IsClickableEv
 491              		.type	_ZN10GuiElement11IsClickableEv, @function
 492              	_ZN10GuiElement11IsClickableEv:
 493              	.LFB1395:
 494              		.loc 2 153 0
 495              		.cfi_startproc
 496              	.LVL39:
 497              		.loc 2 158 0
 498 0000 80030048 		lwz 0,72(3)
 499 0004 39200000 		li 9,0
 500 0008 2F800004 		cmpwi 7,0,4
 501 000c 419E0018 		beq- 7,.L31
 502              		.loc 2 158 0 is_stmt 0 discriminator 1
 503 0010 2F800002 		cmpwi 7,0,2
 504 0014 419E0010 		beq- 7,.L31
 505              		.loc 2 158 0 discriminator 3
 506 0018 2F800003 		cmpwi 7,0,3
 507 001c 419E0008 		beq- 7,.L31
 508              		.loc 2 158 0 discriminator 4
 509 0020 8923001F 		lbz 9,31(3)
 510              	.L31:
 511              		.loc 2 159 0 is_stmt 1 discriminator 6
 512 0024 7D234B78 		mr 3,9
 513              	.LVL40:
 514 0028 4E800020 		blr
 515              		.cfi_endproc
 516              	.LFE1395:
 517              		.size	_ZN10GuiElement11IsClickableEv, .-_ZN10GuiElement11IsClickableEv
 518              		.section	.text._ZN10GuiElement10IsHoldableEv,"axG",@progbits,_ZN10GuiElement10IsHoldableEv,comdat
 519              		.align 2
 520              		.weak	_ZN10GuiElement10IsHoldableEv
 521              		.type	_ZN10GuiElement10IsHoldableEv, @function
 522              	_ZN10GuiElement10IsHoldableEv:
 523              	.LFB1396:
 524              		.loc 2 162 0
 525              		.cfi_startproc
 526              	.LVL41:
 527              		.loc 2 162 0
 528 0000 81230048 		lwz 9,72(3)
 529 0004 38000000 		li 0,0
 530 0008 2F890004 		cmpwi 7,9,4
 531 000c 419E0008 		beq- 7,.L36
 532              		.loc 2 162 0 is_stmt 0 discriminator 1
 533 0010 88030020 		lbz 0,32(3)
 534              	.L36:
 535              		.loc 2 162 0 discriminator 4
 536 0014 7C030378 		mr 3,0
 537              	.LVL42:
 538 0018 4E800020 		blr
 539              		.cfi_endproc
 540              	.LFE1396:
 541              		.size	_ZN10GuiElement10IsHoldableEv, .-_ZN10GuiElement10IsHoldableEv
 542              		.section	.text._ZN10GuiElement13SetSelectableEb,"axG",@progbits,_ZN10GuiElement13SetSelectableEb,c
 543              		.align 2
 544              		.weak	_ZN10GuiElement13SetSelectableEb
 545              		.type	_ZN10GuiElement13SetSelectableEb, @function
 546              	_ZN10GuiElement13SetSelectableEb:
 547              	.LFB1397:
 548              		.loc 2 165 0 is_stmt 1
 549              		.cfi_startproc
 550              	.LVL43:
 551              		.loc 2 165 0
 552 0000 9883001E 		stb 4,30(3)
 553 0004 4E800020 		blr
 554              		.cfi_endproc
 555              	.LFE1397:
 556              		.size	_ZN10GuiElement13SetSelectableEb, .-_ZN10GuiElement13SetSelectableEb
 557              		.section	.text._ZN10GuiElement12SetClickableEb,"axG",@progbits,_ZN10GuiElement12SetClickableEb,com
 558              		.align 2
 559              		.weak	_ZN10GuiElement12SetClickableEb
 560              		.type	_ZN10GuiElement12SetClickableEb, @function
 561              	_ZN10GuiElement12SetClickableEb:
 562              	.LFB1398:
 563              		.loc 2 168 0
 564              		.cfi_startproc
 565              	.LVL44:
 566              		.loc 2 168 0
 567 0000 9883001F 		stb 4,31(3)
 568 0004 4E800020 		blr
 569              		.cfi_endproc
 570              	.LFE1398:
 571              		.size	_ZN10GuiElement12SetClickableEb, .-_ZN10GuiElement12SetClickableEb
 572              		.section	.text._ZN10GuiElement11SetHoldableEb,"axG",@progbits,_ZN10GuiElement11SetHoldableEb,comda
 573              		.align 2
 574              		.weak	_ZN10GuiElement11SetHoldableEb
 575              		.type	_ZN10GuiElement11SetHoldableEb, @function
 576              	_ZN10GuiElement11SetHoldableEb:
 577              	.LFB1399:
 578              		.loc 2 171 0
 579              		.cfi_startproc
 580              	.LVL45:
 581              		.loc 2 171 0
 582 0000 98830020 		stb 4,32(3)
 583 0004 4E800020 		blr
 584              		.cfi_endproc
 585              	.LFE1399:
 586              		.size	_ZN10GuiElement11SetHoldableEb, .-_ZN10GuiElement11SetHoldableEb
 587              		.section	.text._ZN10GuiElement8GetStateEv,"axG",@progbits,_ZN10GuiElement8GetStateEv,comdat
 588              		.align 2
 589              		.weak	_ZN10GuiElement8GetStateEv
 590              		.type	_ZN10GuiElement8GetStateEv, @function
 591              	_ZN10GuiElement8GetStateEv:
 592              	.LFB1400:
 593              		.loc 2 178 0
 594              		.cfi_startproc
 595              	.LVL46:
 596              		.loc 2 178 0
 597 0000 80630048 		lwz 3,72(3)
 598              	.LVL47:
 599 0004 4E800020 		blr
 600              		.cfi_endproc
 601              	.LFE1400:
 602              		.size	_ZN10GuiElement8GetStateEv, .-_ZN10GuiElement8GetStateEv
 603              		.section	.text._ZN10GuiElement12GetStateChanEv,"axG",@progbits,_ZN10GuiElement12GetStateChanEv,com
 604              		.align 2
 605              		.weak	_ZN10GuiElement12GetStateChanEv
 606              		.type	_ZN10GuiElement12GetStateChanEv, @function
 607              	_ZN10GuiElement12GetStateChanEv:
 608              	.LFB1401:
 609              		.loc 2 181 0
 610              		.cfi_startproc
 611              	.LVL48:
 612              		.loc 2 181 0
 613 0000 8063004C 		lwz 3,76(3)
 614              	.LVL49:
 615 0004 4E800020 		blr
 616              		.cfi_endproc
 617              	.LFE1401:
 618              		.size	_ZN10GuiElement12GetStateChanEv, .-_ZN10GuiElement12GetStateChanEv
 619              		.section	.text._ZN10GuiElement8SetAlphaEi,"axG",@progbits,_ZN10GuiElement8SetAlphaEi,comdat
 620              		.align 2
 621              		.weak	_ZN10GuiElement8SetAlphaEi
 622              		.type	_ZN10GuiElement8SetAlphaEi, @function
 623              	_ZN10GuiElement8SetAlphaEi:
 624              	.LFB1403:
 625              		.loc 2 190 0
 626              		.cfi_startproc
 627              	.LVL50:
 628              		.loc 2 190 0
 629 0000 90830038 		stw 4,56(3)
 630 0004 4E800020 		blr
 631              		.cfi_endproc
 632              	.LFE1403:
 633              		.size	_ZN10GuiElement8SetAlphaEi, .-_ZN10GuiElement8SetAlphaEi
 634              		.section	.text._ZN10GuiElement8GetAlphaEv,"axG",@progbits,_ZN10GuiElement8GetAlphaEv,comdat
 635              		.align 2
 636              		.weak	_ZN10GuiElement8GetAlphaEv
 637              		.type	_ZN10GuiElement8GetAlphaEv, @function
 638              	_ZN10GuiElement8GetAlphaEv:
 639              	.LFB1404:
 640              		.loc 2 194 0
 641              		.cfi_startproc
 642              	.LVL51:
 643 0000 7C0802A6 		mflr 0
 644 0004 9421FFD8 		stwu 1,-40(1)
 645              	.LCFI5:
 646              		.cfi_def_cfa_offset 40
 647              		.cfi_register 65, 0
 648 0008 93E10024 		stw 31,36(1)
 649 000c 9001002C 		stw 0,44(1)
 650              	.LBB3755:
 651              		.loc 2 198 0
 652 0010 83E3006C 		lwz 31,108(3)
 653              		.cfi_offset 65, 4
 654              		.cfi_offset 31, -4
 655 0014 2F9F0000 		cmpwi 7,31,0
 656 0018 419C0094 		blt- 7,.L47
 657              	.L45:
 658              	.LVL52:
 659              		.loc 2 203 0
 660 001c 80630060 		lwz 3,96(3)
 661              	.LVL53:
 662 0020 2F830000 		cmpwi 7,3,0
 663 0024 419E0070 		beq- 7,.L46
 664              		.loc 2 204 0
 665 0028 81230000 		lwz 9,0(3)
 666 002c 6FFF8000 		xoris 31,31,0x8000
 667              	.LVL54:
 668 0030 80090064 		lwz 0,100(9)
 669 0034 7C0903A6 		mtctr 0
 670 0038 4E800421 		bctrl
 671 003c 3C004330 		lis 0,0x4330
 672 0040 6C638000 		xoris 3,3,0x8000
 673 0044 90010010 		stw 0,16(1)
 674 0048 90610014 		stw 3,20(1)
 675 004c 3D200000 		lis 9,.LC1@ha
 676 0050 C0090000 		lfs 0,.LC1@l(9)
 677 0054 3D200000 		lis 9,.LC2@ha
 678 0058 C9A10010 		lfd 13,16(1)
 679 005c C1890004 		lfs 12,.LC2@l(9)
 680 0060 39210018 		addi 9,1,24
 681 0064 FDAD0028 		fsub 13,13,0
 682 0068 93E1000C 		stw 31,12(1)
 683 006c 90010008 		stw 0,8(1)
 684 0070 FDA06818 		frsp 13,13
 685 0074 EDAD6024 		fdivs 13,13,12
 686 0078 C9810008 		lfd 12,8(1)
 687 007c FC0C0028 		fsub 0,12,0
 688 0080 FC000018 		frsp 0,0
 689 0084 EC000372 		fmuls 0,0,13
 690 0088 FC00001E 		fctiwz 0,0
 691 008c 7C004FAE 		stfiwx 0,0,9
 692 0090 83E10018 		lwz 31,24(1)
 693              	.LVL55:
 694              	.L46:
 695              	.LBE3755:
 696              		.loc 2 207 0
 697 0094 8001002C 		lwz 0,44(1)
 698 0098 7FE3FB78 		mr 3,31
 699 009c 83E10024 		lwz 31,36(1)
 700              	.LVL56:
 701 00a0 7C0803A6 		mtlr 0
 702 00a4 38210028 		addi 1,1,40
 703              		.cfi_remember_state
 704              	.LCFI6:
 705              		.cfi_def_cfa_offset 0
 706              		.cfi_restore 31
 707 00a8 4E800020 		blr
 708              	.LVL57:
 709              	.L47:
 710              	.LCFI7:
 711              		.cfi_restore_state
 712              	.LBB3756:
 713              		.loc 2 201 0
 714 00ac 83E30038 		lwz 31,56(3)
 715              	.LVL58:
 716 00b0 4BFFFF6C 		b .L45
 717              	.LBE3756:
 718              		.cfi_endproc
 719              	.LFE1404:
 720              		.size	_ZN10GuiElement8GetAlphaEv, .-_ZN10GuiElement8GetAlphaEv
 721              		.section	.text._ZN10GuiElement8SetScaleEf,"axG",@progbits,_ZN10GuiElement8SetScaleEf,comdat
 722              		.align 2
 723              		.weak	_ZN10GuiElement8SetScaleEf
 724              		.type	_ZN10GuiElement8SetScaleEf, @function
 725              	_ZN10GuiElement8SetScaleEf:
 726              	.LFB1405:
 727              		.loc 2 210 0
 728              		.cfi_startproc
 729              	.LVL59:
 730              		.loc 2 212 0
 731 0000 D023003C 		stfs 1,60(3)
 732              		.loc 2 214 0
 733              		.loc 2 213 0
 734 0004 D0230040 		stfs 1,64(3)
 735              		.loc 2 214 0
 736 0008 4E800020 		blr
 737              		.cfi_endproc
 738              	.LFE1405:
 739              		.size	_ZN10GuiElement8SetScaleEf, .-_ZN10GuiElement8SetScaleEf
 740              		.section	.text._ZN10GuiElement9SetScaleXEf,"axG",@progbits,_ZN10GuiElement9SetScaleXEf,comdat
 741              		.align 2
 742              		.weak	_ZN10GuiElement9SetScaleXEf
 743              		.type	_ZN10GuiElement9SetScaleXEf, @function
 744              	_ZN10GuiElement9SetScaleXEf:
 745              	.LFB1406:
 746              		.loc 2 217 0
 747              		.cfi_startproc
 748              	.LVL60:
 749              		.loc 2 217 0
 750 0000 D023003C 		stfs 1,60(3)
 751 0004 4E800020 		blr
 752              		.cfi_endproc
 753              	.LFE1406:
 754              		.size	_ZN10GuiElement9SetScaleXEf, .-_ZN10GuiElement9SetScaleXEf
 755              		.section	.text._ZN10GuiElement9SetScaleYEf,"axG",@progbits,_ZN10GuiElement9SetScaleYEf,comdat
 756              		.align 2
 757              		.weak	_ZN10GuiElement9SetScaleYEf
 758              		.type	_ZN10GuiElement9SetScaleYEf, @function
 759              	_ZN10GuiElement9SetScaleYEf:
 760              	.LFB1407:
 761              		.loc 2 220 0
 762              		.cfi_startproc
 763              	.LVL61:
 764              		.loc 2 220 0
 765 0000 D0230040 		stfs 1,64(3)
 766 0004 4E800020 		blr
 767              		.cfi_endproc
 768              	.LFE1407:
 769              		.size	_ZN10GuiElement9SetScaleYEf, .-_ZN10GuiElement9SetScaleYEf
 770              		.section	.text._ZN10GuiElement8GetScaleEv,"axG",@progbits,_ZN10GuiElement8GetScaleEv,comdat
 771              		.align 2
 772              		.weak	_ZN10GuiElement8GetScaleEv
 773              		.type	_ZN10GuiElement8GetScaleEv, @function
 774              	_ZN10GuiElement8GetScaleEv:
 775              	.LFB1408:
 776              		.loc 2 223 0
 777              		.cfi_startproc
 778              	.LVL62:
 779 0000 7C0802A6 		mflr 0
 780 0004 9421FFF0 		stwu 1,-16(1)
 781              	.LCFI8:
 782              		.cfi_def_cfa_offset 16
 783              		.cfi_register 65, 0
 784              	.LBB3757:
 785              		.loc 2 225 0
 786 0008 3D200000 		lis 9,.LC3@ha
 787              	.LBE3757:
 788              		.loc 2 223 0
 789 000c DBE10008 		stfd 31,8(1)
 790 0010 90010014 		stw 0,20(1)
 791              	.LBB3758:
 792              		.loc 2 225 0
 793 0014 C0030040 		lfs 0,64(3)
 794 0018 C3E3003C 		lfs 31,60(3)
 795              		.cfi_offset 65, 4
 796              		.cfi_offset 63, -8
 797              		.loc 2 227 0
 798 001c 81630060 		lwz 11,96(3)
 799              		.loc 2 225 0
 800 0020 EFFF002A 		fadds 31,31,0
 801 0024 C0090008 		lfs 0,.LC3@l(9)
 802              		.loc 2 227 0
 803 0028 2F8B0000 		cmpwi 7,11,0
 804              		.loc 2 225 0
 805 002c EFFF0032 		fmuls 31,31,0
 806 0030 C0030070 		lfs 0,112(3)
 807 0034 EFFF0032 		fmuls 31,31,0
 808              	.LVL63:
 809              		.loc 2 227 0
 810 0038 419E001C 		beq- 7,.L52
 811              		.loc 2 228 0
 812 003c 812B0000 		lwz 9,0(11)
 813 0040 7D635B78 		mr 3,11
 814              	.LVL64:
 815 0044 80090074 		lwz 0,116(9)
 816 0048 7C0903A6 		mtctr 0
 817 004c 4E800421 		bctrl
 818 0050 EFFF0072 		fmuls 31,31,1
 819              	.LVL65:
 820              	.L52:
 821              	.LBE3758:
 822              		.loc 2 231 0
 823 0054 80010014 		lwz 0,20(1)
 824 0058 FC20F890 		fmr 1,31
 825 005c CBE10008 		lfd 31,8(1)
 826              	.LVL66:
 827 0060 7C0803A6 		mtlr 0
 828 0064 38210010 		addi 1,1,16
 829              	.LCFI9:
 830              		.cfi_def_cfa_offset 0
 831              		.cfi_restore 63
 832 0068 4E800020 		blr
 833              		.cfi_endproc
 834              	.LFE1408:
 835              		.size	_ZN10GuiElement8GetScaleEv, .-_ZN10GuiElement8GetScaleEv
 836              		.section	.text._ZN10GuiElement9GetScaleXEv,"axG",@progbits,_ZN10GuiElement9GetScaleXEv,comdat
 837              		.align 2
 838              		.weak	_ZN10GuiElement9GetScaleXEv
 839              		.type	_ZN10GuiElement9GetScaleXEv, @function
 840              	_ZN10GuiElement9GetScaleXEv:
 841              	.LFB1409:
 842              		.loc 2 234 0
 843              		.cfi_startproc
 844              	.LVL67:
 845 0000 7C0802A6 		mflr 0
 846 0004 9421FFF0 		stwu 1,-16(1)
 847              	.LCFI10:
 848              		.cfi_def_cfa_offset 16
 849              		.cfi_register 65, 0
 850 0008 DBE10008 		stfd 31,8(1)
 851 000c 90010014 		stw 0,20(1)
 852              	.LBB3759:
 853              		.loc 2 238 0
 854 0010 81630060 		lwz 11,96(3)
 855              		.loc 2 236 0
 856 0014 C3E3003C 		lfs 31,60(3)
 857              		.cfi_offset 65, 4
 858              		.cfi_offset 63, -8
 859              		.loc 2 238 0
 860 0018 2F8B0000 		cmpwi 7,11,0
 861              		.loc 2 236 0
 862 001c C0030070 		lfs 0,112(3)
 863 0020 EFFF0032 		fmuls 31,31,0
 864              	.LVL68:
 865              		.loc 2 238 0
 866 0024 419E001C 		beq- 7,.L54
 867              		.loc 2 239 0
 868 0028 812B0000 		lwz 9,0(11)
 869 002c 7D635B78 		mr 3,11
 870              	.LVL69:
 871 0030 80090078 		lwz 0,120(9)
 872 0034 7C0903A6 		mtctr 0
 873 0038 4E800421 		bctrl
 874 003c EFFF0072 		fmuls 31,31,1
 875              	.LVL70:
 876              	.L54:
 877              	.LBE3759:
 878              		.loc 2 242 0
 879 0040 80010014 		lwz 0,20(1)
 880 0044 FC20F890 		fmr 1,31
 881 0048 CBE10008 		lfd 31,8(1)
 882              	.LVL71:
 883 004c 7C0803A6 		mtlr 0
 884 0050 38210010 		addi 1,1,16
 885              	.LCFI11:
 886              		.cfi_def_cfa_offset 0
 887              		.cfi_restore 63
 888 0054 4E800020 		blr
 889              		.cfi_endproc
 890              	.LFE1409:
 891              		.size	_ZN10GuiElement9GetScaleXEv, .-_ZN10GuiElement9GetScaleXEv
 892              		.section	.text._ZN10GuiElement9GetScaleYEv,"axG",@progbits,_ZN10GuiElement9GetScaleYEv,comdat
 893              		.align 2
 894              		.weak	_ZN10GuiElement9GetScaleYEv
 895              		.type	_ZN10GuiElement9GetScaleYEv, @function
 896              	_ZN10GuiElement9GetScaleYEv:
 897              	.LFB1410:
 898              		.loc 2 245 0
 899              		.cfi_startproc
 900              	.LVL72:
 901 0000 7C0802A6 		mflr 0
 902 0004 9421FFF0 		stwu 1,-16(1)
 903              	.LCFI12:
 904              		.cfi_def_cfa_offset 16
 905              		.cfi_register 65, 0
 906 0008 DBE10008 		stfd 31,8(1)
 907 000c 90010014 		stw 0,20(1)
 908              	.LBB3760:
 909              		.loc 2 249 0
 910 0010 81630060 		lwz 11,96(3)
 911              		.loc 2 247 0
 912 0014 C3E30040 		lfs 31,64(3)
 913              		.cfi_offset 65, 4
 914              		.cfi_offset 63, -8
 915              		.loc 2 249 0
 916 0018 2F8B0000 		cmpwi 7,11,0
 917              		.loc 2 247 0
 918 001c C0030070 		lfs 0,112(3)
 919 0020 EFFF0032 		fmuls 31,31,0
 920              	.LVL73:
 921              		.loc 2 249 0
 922 0024 419E001C 		beq- 7,.L56
 923              		.loc 2 250 0
 924 0028 812B0000 		lwz 9,0(11)
 925 002c 7D635B78 		mr 3,11
 926              	.LVL74:
 927 0030 8009007C 		lwz 0,124(9)
 928 0034 7C0903A6 		mtctr 0
 929 0038 4E800421 		bctrl
 930 003c EFFF0072 		fmuls 31,31,1
 931              	.LVL75:
 932              	.L56:
 933              	.LBE3760:
 934              		.loc 2 253 0
 935 0040 80010014 		lwz 0,20(1)
 936 0044 FC20F890 		fmr 1,31
 937 0048 CBE10008 		lfd 31,8(1)
 938              	.LVL76:
 939 004c 7C0803A6 		mtlr 0
 940 0050 38210010 		addi 1,1,16
 941              	.LCFI13:
 942              		.cfi_def_cfa_offset 0
 943              		.cfi_restore 63
 944 0054 4E800020 		blr
 945              		.cfi_endproc
 946              	.LFE1410:
 947              		.size	_ZN10GuiElement9GetScaleYEv, .-_ZN10GuiElement9GetScaleYEv
 948              		.section	.text._ZN10GuiElement6RumbleEv,"axG",@progbits,_ZN10GuiElement6RumbleEv,comdat
 949              		.align 2
 950              		.weak	_ZN10GuiElement6RumbleEv
 951              		.type	_ZN10GuiElement6RumbleEv, @function
 952              	_ZN10GuiElement6RumbleEv:
 953              	.LFB1411:
 954              		.loc 2 256 0
 955              		.cfi_startproc
 956              	.LVL77:
 957              		.loc 2 256 0
 958 0000 8863001C 		lbz 3,28(3)
 959              	.LVL78:
 960 0004 4E800020 		blr
 961              		.cfi_endproc
 962              	.LFE1411:
 963              		.size	_ZN10GuiElement6RumbleEv, .-_ZN10GuiElement6RumbleEv
 964              		.section	.text._ZN10GuiElement9SetRumbleEb,"axG",@progbits,_ZN10GuiElement9SetRumbleEb,comdat
 965              		.align 2
 966              		.weak	_ZN10GuiElement9SetRumbleEb
 967              		.type	_ZN10GuiElement9SetRumbleEb, @function
 968              	_ZN10GuiElement9SetRumbleEb:
 969              	.LFB1412:
 970              		.loc 2 259 0
 971              		.cfi_startproc
 972              	.LVL79:
 973              		.loc 2 259 0
 974 0000 9883001C 		stb 4,28(3)
 975 0004 4E800020 		blr
 976              		.cfi_endproc
 977              	.LFE1412:
 978              		.size	_ZN10GuiElement9SetRumbleEb, .-_ZN10GuiElement9SetRumbleEb
 979              		.section	.text._ZN10GuiElement13SetEffectGrowEv,"axG",@progbits,_ZN10GuiElement13SetEffectGrowEv,c
 980              		.align 2
 981              		.weak	_ZN10GuiElement13SetEffectGrowEv
 982              		.type	_ZN10GuiElement13SetEffectGrowEv, @function
 983              	_ZN10GuiElement13SetEffectGrowEv:
 984              	.LFB1413:
 985              		.loc 2 271 0
 986              		.cfi_startproc
 987              	.LVL80:
 988 0000 7C0802A6 		mflr 0
 989 0004 9421FFF8 		stwu 1,-8(1)
 990              	.LCFI14:
 991              		.cfi_def_cfa_offset 8
 992              		.cfi_register 65, 0
 993 0008 81230000 		lwz 9,0(3)
 994 000c 38800100 		li 4,256
 995 0010 38A00004 		li 5,4
 996 0014 38C0006E 		li 6,110
 997 0018 9001000C 		stw 0,12(1)
 998              		.loc 2 271 0
 999 001c 8009008C 		lwz 0,140(9)
 1000              		.cfi_offset 65, 4
 1001 0020 7C0903A6 		mtctr 0
 1002 0024 4E800421 		bctrl
 1003              	.LVL81:
 1004 0028 8001000C 		lwz 0,12(1)
 1005 002c 38210008 		addi 1,1,8
 1006              	.LCFI15:
 1007              		.cfi_def_cfa_offset 0
 1008 0030 7C0803A6 		mtlr 0
 1009 0034 4E800020 		blr
 1010              		.cfi_endproc
 1011              	.LFE1413:
 1012              		.size	_ZN10GuiElement13SetEffectGrowEv, .-_ZN10GuiElement13SetEffectGrowEv
 1013              		.section	.text._ZNK10GuiElement9GetEffectEv,"axG",@progbits,_ZNK10GuiElement9GetEffectEv,comdat
 1014              		.align 2
 1015              		.weak	_ZNK10GuiElement9GetEffectEv
 1016              		.type	_ZNK10GuiElement9GetEffectEv, @function
 1017              	_ZNK10GuiElement9GetEffectEv:
 1018              	.LFB1414:
 1019              		.loc 2 276 0
 1020              		.cfi_startproc
 1021              	.LVL82:
 1022              		.loc 2 276 0
 1023 0000 80630078 		lwz 3,120(3)
 1024              	.LVL83:
 1025 0004 4E800020 		blr
 1026              		.cfi_endproc
 1027              	.LFE1414:
 1028              		.size	_ZNK10GuiElement9GetEffectEv, .-_ZNK10GuiElement9GetEffectEv
 1029              		.section	.text._ZNK10GuiElement10IsAnimatedEv,"axG",@progbits,_ZNK10GuiElement10IsAnimatedEv,comda
 1030              		.align 2
 1031              		.weak	_ZNK10GuiElement10IsAnimatedEv
 1032              		.type	_ZNK10GuiElement10IsAnimatedEv, @function
 1033              	_ZNK10GuiElement10IsAnimatedEv:
 1034              	.LFB1415:
 1035              		.loc 2 278 0
 1036              		.cfi_startproc
 1037              	.LVL84:
 1038 0000 7C0802A6 		mflr 0
 1039 0004 9421FFF8 		stwu 1,-8(1)
 1040              	.LCFI16:
 1041              		.cfi_def_cfa_offset 8
 1042              		.cfi_register 65, 0
 1043 0008 9001000C 		stw 0,12(1)
 1044              		.loc 2 278 0
 1045 000c 81230000 		lwz 9,0(3)
 1046 0010 80090098 		lwz 0,152(9)
 1047              		.cfi_offset 65, 4
 1048 0014 7C0903A6 		mtctr 0
 1049 0018 4E800421 		bctrl
 1050              	.LVL85:
 1051 001c 7C60FE70 		srawi 0,3,31
 1052 0020 7C630050 		subf 3,3,0
 1053 0024 8001000C 		lwz 0,12(1)
 1054 0028 54630FFE 		srwi 3,3,31
 1055 002c 7C0803A6 		mtlr 0
 1056 0030 38210008 		addi 1,1,8
 1057              	.LCFI17:
 1058              		.cfi_def_cfa_offset 0
 1059 0034 4E800020 		blr
 1060              		.cfi_endproc
 1061              	.LFE1415:
 1062              		.size	_ZNK10GuiElement10IsAnimatedEv, .-_ZNK10GuiElement10IsAnimatedEv
 1063              		.section	.text._ZN10GuiElement8IsInsideEii,"axG",@progbits,_ZN10GuiElement8IsInsideEii,comdat
 1064              		.align 2
 1065              		.weak	_ZN10GuiElement8IsInsideEii
 1066              		.type	_ZN10GuiElement8IsInsideEii, @function
 1067              	_ZN10GuiElement8IsInsideEii:
 1068              	.LFB1417:
 1069              		.loc 2 285 0
 1070              		.cfi_startproc
 1071              	.LVL86:
 1072 0000 7C0802A6 		mflr 0
 1073 0004 9421FFE8 		stwu 1,-24(1)
 1074              	.LCFI18:
 1075              		.cfi_def_cfa_offset 24
 1076              		.cfi_register 65, 0
 1077 0008 93810008 		stw 28,8(1)
 1078 000c 7CBC2B78 		mr 28,5
 1079              		.cfi_offset 28, -16
 1080 0010 9001001C 		stw 0,28(1)
 1081 0014 93A1000C 		stw 29,12(1)
 1082              		.loc 2 290 0
 1083 0018 3BA00000 		li 29,0
 1084              		.cfi_offset 29, -12
 1085              		.cfi_offset 65, 4
 1086              		.loc 2 287 0
 1087 001c 81230000 		lwz 9,0(3)
 1088              		.loc 2 285 0
 1089 0020 93C10010 		stw 30,16(1)
 1090 0024 7C9E2378 		mr 30,4
 1091              		.cfi_offset 30, -8
 1092              		.loc 2 287 0
 1093 0028 80090010 		lwz 0,16(9)
 1094              		.loc 2 285 0
 1095 002c 93E10014 		stw 31,20(1)
 1096              		.loc 2 285 0
 1097 0030 7C7F1B78 		mr 31,3
 1098              		.cfi_offset 31, -4
 1099              		.loc 2 287 0
 1100 0034 7C0903A6 		mtctr 0
 1101 0038 4E800421 		bctrl
 1102              	.LVL87:
 1103              		.loc 2 290 0
 1104 003c 7F83F000 		cmpw 7,3,30
 1105 0040 419C0028 		blt- 7,.L67
 1106              	.L63:
 1107              		.loc 2 291 0 discriminator 6
 1108 0044 8001001C 		lwz 0,28(1)
 1109 0048 7FA3EB78 		mr 3,29
 1110 004c 83810008 		lwz 28,8(1)
 1111              	.LVL88:
 1112 0050 7C0803A6 		mtlr 0
 1113 0054 83A1000C 		lwz 29,12(1)
 1114 0058 83C10010 		lwz 30,16(1)
 1115              	.LVL89:
 1116 005c 83E10014 		lwz 31,20(1)
 1117              	.LVL90:
 1118 0060 38210018 		addi 1,1,24
 1119              		.cfi_remember_state
 1120              	.LCFI19:
 1121              		.cfi_def_cfa_offset 0
 1122              		.cfi_restore 31
 1123              		.cfi_restore 30
 1124              		.cfi_restore 29
 1125              		.cfi_restore 28
 1126 0064 4E800020 		blr
 1127              	.LVL91:
 1128              	.L67:
 1129              	.LCFI20:
 1130              		.cfi_restore_state
 1131              		.loc 2 288 0 discriminator 1
 1132 0068 813F0000 		lwz 9,0(31)
 1133 006c 7FE3FB78 		mr 3,31
 1134 0070 80090010 		lwz 0,16(9)
 1135 0074 7C0903A6 		mtctr 0
 1136 0078 4E800421 		bctrl
 1137              		.loc 2 290 0 discriminator 1
 1138 007c 801F0024 		lwz 0,36(31)
 1139 0080 7C030214 		add 0,3,0
 1140 0084 7F9E0000 		cmpw 7,30,0
 1141 0088 409CFFBC 		bge+ 7,.L63
 1142              		.loc 2 289 0 discriminator 3
 1143 008c 813F0000 		lwz 9,0(31)
 1144 0090 7FE3FB78 		mr 3,31
 1145 0094 80090014 		lwz 0,20(9)
 1146 0098 7C0903A6 		mtctr 0
 1147 009c 4E800421 		bctrl
 1148              		.loc 2 290 0 discriminator 3
 1149 00a0 7F83E000 		cmpw 7,3,28
 1150 00a4 409CFFA0 		bge+ 7,.L63
 1151              		.loc 2 290 0 is_stmt 0 discriminator 4
 1152 00a8 813F0000 		lwz 9,0(31)
 1153 00ac 7FE3FB78 		mr 3,31
 1154 00b0 80090014 		lwz 0,20(9)
 1155 00b4 7C0903A6 		mtctr 0
 1156 00b8 4E800421 		bctrl
 1157 00bc 801F0028 		lwz 0,40(31)
 1158 00c0 7C030214 		add 0,3,0
 1159              		.loc 2 285 0 is_stmt 1 discriminator 4
 1160 00c4 7F9C0000 		cmpw 7,28,0
 1161 00c8 7FA00026 		mfcr 29
 1162 00cc 57BDEFFE 		rlwinm 29,29,29,1
 1163 00d0 4BFFFF74 		b .L63
 1164              		.cfi_endproc
 1165              	.LFE1417:
 1166              		.size	_ZN10GuiElement8IsInsideEii, .-_ZN10GuiElement8IsInsideEii
 1167              		.section	.text._ZN10GuiElement11SetPositionEii,"axG",@progbits,_ZN10GuiElement11SetPositionEii,com
 1168              		.align 2
 1169              		.weak	_ZN10GuiElement11SetPositionEii
 1170              		.type	_ZN10GuiElement11SetPositionEii, @function
 1171              	_ZN10GuiElement11SetPositionEii:
 1172              	.LFB1418:
 1173              		.loc 2 295 0
 1174              		.cfi_startproc
 1175              	.LVL92:
 1176              		.loc 2 297 0
 1177 0000 9083002C 		stw 4,44(3)
 1178              		.loc 2 299 0
 1179              		.loc 2 298 0
 1180 0004 90A30030 		stw 5,48(3)
 1181              		.loc 2 299 0
 1182 0008 4E800020 		blr
 1183              		.cfi_endproc
 1184              	.LFE1418:
 1185              		.size	_ZN10GuiElement11SetPositionEii, .-_ZN10GuiElement11SetPositionEii
 1186              		.section	.text._ZN10GuiElement11SetPositionEiii,"axG",@progbits,_ZN10GuiElement11SetPositionEiii,c
 1187              		.align 2
 1188              		.weak	_ZN10GuiElement11SetPositionEiii
 1189              		.type	_ZN10GuiElement11SetPositionEiii, @function
 1190              	_ZN10GuiElement11SetPositionEiii:
 1191              	.LFB1419:
 1192              		.loc 2 304 0
 1193              		.cfi_startproc
 1194              	.LVL93:
 1195              		.loc 2 306 0
 1196 0000 9083002C 		stw 4,44(3)
 1197              		.loc 2 309 0
 1198              		.loc 2 307 0
 1199 0004 90A30030 		stw 5,48(3)
 1200              		.loc 2 308 0
 1201 0008 90C30034 		stw 6,52(3)
 1202              		.loc 2 309 0
 1203 000c 4E800020 		blr
 1204              		.cfi_endproc
 1205              	.LFE1419:
 1206              		.size	_ZN10GuiElement11SetPositionEiii, .-_ZN10GuiElement11SetPositionEiii
 1207              		.section	.text._ZN10GuiElement11GetSelectedEv,"axG",@progbits,_ZN10GuiElement11GetSelectedEv,comda
 1208              		.align 2
 1209              		.weak	_ZN10GuiElement11GetSelectedEv
 1210              		.type	_ZN10GuiElement11GetSelectedEv, @function
 1211              	_ZN10GuiElement11GetSelectedEv:
 1212              	.LFB1420:
 1213              		.loc 2 312 0
 1214              		.cfi_startproc
 1215              	.LVL94:
 1216              		.loc 2 312 0
 1217 0000 3860FFFF 		li 3,-1
 1218              	.LVL95:
 1219 0004 4E800020 		blr
 1220              		.cfi_endproc
 1221              	.LFE1420:
 1222              		.size	_ZN10GuiElement11GetSelectedEv, .-_ZN10GuiElement11GetSelectedEv
 1223              		.section	.text._ZN10GuiElement12SetAlignmentEi,"axG",@progbits,_ZN10GuiElement12SetAlignmentEi,com
 1224              		.align 2
 1225              		.weak	_ZN10GuiElement12SetAlignmentEi
 1226              		.type	_ZN10GuiElement12SetAlignmentEi, @function
 1227              	_ZN10GuiElement12SetAlignmentEi:
 1228              	.LFB1421:
 1229              		.loc 2 316 0
 1230              		.cfi_startproc
 1231              	.LVL96:
 1232              		.loc 2 316 0
 1233 0000 90830044 		stw 4,68(3)
 1234 0004 4E800020 		blr
 1235              		.cfi_endproc
 1236              	.LFE1421:
 1237              		.size	_ZN10GuiElement12SetAlignmentEi, .-_ZN10GuiElement12SetAlignmentEi
 1238              		.section	.text._ZNK10GuiElement12GetAlignmentEv,"axG",@progbits,_ZNK10GuiElement12GetAlignmentEv,c
 1239              		.align 2
 1240              		.weak	_ZNK10GuiElement12GetAlignmentEv
 1241              		.type	_ZNK10GuiElement12GetAlignmentEv, @function
 1242              	_ZNK10GuiElement12GetAlignmentEv:
 1243              	.LFB1422:
 1244              		.loc 2 318 0
 1245              		.cfi_startproc
 1246              	.LVL97:
 1247              		.loc 2 318 0
 1248 0000 80630044 		lwz 3,68(3)
 1249              	.LVL98:
 1250 0004 4E800020 		blr
 1251              		.cfi_endproc
 1252              	.LFE1422:
 1253              		.size	_ZNK10GuiElement12GetAlignmentEv, .-_ZNK10GuiElement12GetAlignmentEv
 1254              		.section	.text._ZN8GuiFrame4showEv,"axG",@progbits,_ZN8GuiFrame4showEv,comdat
 1255              		.align 2
 1256              		.weak	_ZN8GuiFrame4showEv
 1257              		.type	_ZN8GuiFrame4showEv, @function
 1258              	_ZN8GuiFrame4showEv:
 1259              	.LFB1431:
 1260              		.file 5 "d:/Projects/SaveGameManager/savegame-manager-gx/trunk/source/Prompts/../GUI/gui_frame.h"
 1261              		.loc 5 79 0
 1262              		.cfi_startproc
 1263              	.LVL99:
 1264              		.loc 5 79 0
 1265 0000 4E800020 		blr
 1266              		.cfi_endproc
 1267              	.LFE1431:
 1268              		.size	_ZN8GuiFrame4showEv, .-_ZN8GuiFrame4showEv
 1269              		.section	.text._ZN8GuiFrame4hideEv,"axG",@progbits,_ZN8GuiFrame4hideEv,comdat
 1270              		.align 2
 1271              		.weak	_ZN8GuiFrame4hideEv
 1272              		.type	_ZN8GuiFrame4hideEv, @function
 1273              	_ZN8GuiFrame4hideEv:
 1274              	.LFB1432:
 1275              		.loc 5 81 0
 1276              		.cfi_startproc
 1277              	.LVL100:
 1278              		.loc 5 81 0
 1279 0000 4E800020 		blr
 1280              		.cfi_endproc
 1281              	.LFE1432:
 1282              		.size	_ZN8GuiFrame4hideEv, .-_ZN8GuiFrame4hideEv
 1283              		.section	.text._ZN8GuiFrame4execEv,"axG",@progbits,_ZN8GuiFrame4execEv,comdat
 1284              		.align 2
 1285              		.weak	_ZN8GuiFrame4execEv
 1286              		.type	_ZN8GuiFrame4execEv, @function
 1287              	_ZN8GuiFrame4execEv:
 1288              	.LFB1433:
 1289              		.loc 5 83 0
 1290              		.cfi_startproc
 1291              	.LVL101:
 1292              		.loc 5 83 0
 1293 0000 4E800020 		blr
 1294              		.cfi_endproc
 1295              	.LFE1433:
 1296              		.size	_ZN8GuiFrame4execEv, .-_ZN8GuiFrame4execEv
 1297              		.section	.text._ZN8GuiFrame12updateEventsEv,"axG",@progbits,_ZN8GuiFrame12updateEventsEv,comdat
 1298              		.align 2
 1299              		.weak	_ZN8GuiFrame12updateEventsEv
 1300              		.type	_ZN8GuiFrame12updateEventsEv, @function
 1301              	_ZN8GuiFrame12updateEventsEv:
 1302              	.LFB1434:
 1303              		.loc 5 85 0
 1304              		.cfi_startproc
 1305              	.LVL102:
 1306              		.loc 5 85 0
 1307 0000 4E800020 		blr
 1308              		.cfi_endproc
 1309              	.LFE1434:
 1310              		.size	_ZN8GuiFrame12updateEventsEv, .-_ZN8GuiFrame12updateEventsEv
 1311              		.section	.text._ZN7sigslot17_connection_base3IP9GuiButtoniRK6_POINTNS_15single_threadedEED2Ev,"axG
 1312              		.align 2
 1313              		.weak	_ZN7sigslot17_connection_base3IP9GuiButtoniRK6_POINTNS_15single_threadedEED2Ev
 1314              		.type	_ZN7sigslot17_connection_base3IP9GuiButtoniRK6_POINTNS_15single_threadedEED2Ev, @function
 1315              	_ZN7sigslot17_connection_base3IP9GuiButtoniRK6_POINTNS_15single_threadedEED2Ev:
 1316              	.LFB2076:
 1317              		.loc 1 387 0
 1318              		.cfi_startproc
 1319              	.LVL103:
 1320              	.LBB3761:
 1321              		.loc 1 387 0
 1322 0000 3D200000 		lis 9,_ZTVN7sigslot17_connection_base3IP9GuiButtoniRK6_POINTNS_15single_threadedEEE+8@ha
 1323              	.LBE3761:
 1324              	.LBB3762:
 1325 0004 38090008 		la 0,_ZTVN7sigslot17_connection_base3IP9GuiButtoniRK6_POINTNS_15single_threadedEEE+8@l(9)
 1326 0008 90030000 		stw 0,0(3)
 1327              	.LBE3762:
 1328 000c 4E800020 		blr
 1329              		.cfi_endproc
 1330              	.LFE2076:
 1331              		.size	_ZN7sigslot17_connection_base3IP9GuiButtoniRK6_POINTNS_15single_threadedEED2Ev, .-_ZN7sigslo
 1332              		.section	.text._ZN7sigslot12_connection3I12SearchWindowP9GuiButtoniRK6_POINTNS_15single_threadedEE
 1333              		.align 2
 1334              		.weak	_ZN7sigslot12_connection3I12SearchWindowP9GuiButtoniRK6_POINTNS_15single_threadedEED2Ev
 1335              		.type	_ZN7sigslot12_connection3I12SearchWindowP9GuiButtoniRK6_POINTNS_15single_threadedEED2Ev, @fu
 1336              	_ZN7sigslot12_connection3I12SearchWindowP9GuiButtoniRK6_POINTNS_15single_threadedEED2Ev:
 1337              	.LFB2470:
 1338              		.loc 1 1783 0
 1339              		.cfi_startproc
 1340              	.LVL104:
 1341              	.LBB3763:
 1342              	.LBB3764:
 1343              	.LBB3765:
 1344              	.LBB3766:
 1345              		.loc 1 387 0
 1346 0000 3D200000 		lis 9,_ZTVN7sigslot17_connection_base3IP9GuiButtoniRK6_POINTNS_15single_threadedEEE+8@ha
 1347              	.LBE3766:
 1348              	.LBE3765:
 1349              	.LBE3764:
 1350              	.LBE3763:
 1351              		.loc 1 1786 0
 1352              	.LBB3770:
 1353              	.LBB3769:
 1354              	.LBB3768:
 1355              	.LBB3767:
 1356              		.loc 1 387 0
 1357 0004 38090008 		la 0,_ZTVN7sigslot17_connection_base3IP9GuiButtoniRK6_POINTNS_15single_threadedEEE+8@l(9)
 1358 0008 90030000 		stw 0,0(3)
 1359              	.LBE3767:
 1360              	.LBE3768:
 1361              	.LBE3769:
 1362              	.LBE3770:
 1363              		.loc 1 1786 0
 1364 000c 4E800020 		blr
 1365              		.cfi_endproc
 1366              	.LFE2470:
 1367              		.size	_ZN7sigslot12_connection3I12SearchWindowP9GuiButtoniRK6_POINTNS_15single_threadedEED2Ev, .-_
 1368              		.section	.text._ZNK7sigslot12_connection3I12SearchWindowP9GuiButtoniRK6_POINTNS_15single_threadedE
 1369              		.align 2
 1370              		.weak	_ZNK7sigslot12_connection3I12SearchWindowP9GuiButtoniRK6_POINTNS_15single_threadedEE7getdest
 1371              		.type	_ZNK7sigslot12_connection3I12SearchWindowP9GuiButtoniRK6_POINTNS_15single_threadedEE7getdest
 1372              	_ZNK7sigslot12_connection3I12SearchWindowP9GuiButtoniRK6_POINTNS_15single_threadedEE7getdestEv:
 1373              	.LFB2473:
 1374              		.loc 1 1804 0
 1375              		.cfi_startproc
 1376              	.LVL105:
 1377              		.loc 1 1806 0
 1378 0000 81230004 		lwz 9,4(3)
 1379 0004 38600000 		li 3,0
 1380              	.LVL106:
 1381 0008 2F890000 		cmpwi 7,9,0
 1382 000c 4D9E0020 		beqlr- 7
 1383              		.loc 1 1806 0 is_stmt 0 discriminator 1
 1384 0010 386900B0 		addi 3,9,176
 1385              		.loc 1 1807 0 is_stmt 1 discriminator 1
 1386 0014 4E800020 		blr
 1387              		.cfi_endproc
 1388              	.LFE2473:
 1389              		.size	_ZNK7sigslot12_connection3I12SearchWindowP9GuiButtoniRK6_POINTNS_15single_threadedEE7getdest
 1390              		.section	.text._ZN7sigslot12_connection3I12SearchWindowP9GuiButtoniRK6_POINTNS_15single_threadedEE
 1391              		.align 2
 1392              		.weak	_ZN7sigslot12_connection3I12SearchWindowP9GuiButtoniRK6_POINTNS_15single_threadedEE4emitES3_
 1393              		.type	_ZN7sigslot12_connection3I12SearchWindowP9GuiButtoniRK6_POINTNS_15single_threadedEE4emitES3_
 1394              	_ZN7sigslot12_connection3I12SearchWindowP9GuiButtoniRK6_POINTNS_15single_threadedEE4emitES3_iS6_:
 1395              	.LFB2474:
 1396              		.loc 1 1799 0
 1397              		.cfi_startproc
 1398              	.LVL107:
 1399 0000 7C0802A6 		mflr 0
 1400 0004 9421FFF8 		stwu 1,-8(1)
 1401              	.LCFI21:
 1402              		.cfi_def_cfa_offset 8
 1403              		.cfi_register 65, 0
 1404 0008 9001000C 		stw 0,12(1)
 1405              		.loc 1 1801 0
 1406 000c 80030008 		lwz 0,8(3)
 1407              		.cfi_offset 65, 4
 1408 0010 81630004 		lwz 11,4(3)
 1409 0014 70090001 		andi. 9,0,1
 1410 0018 8123000C 		lwz 9,12(3)
 1411 001c 40820020 		bne- 0,.L86
 1412 0020 7C0903A6 		mtctr 0
 1413 0024 7C6B4A14 		add 3,11,9
 1414              	.LVL108:
 1415 0028 4E800421 		bctrl
 1416              	.LVL109:
 1417              		.loc 1 1802 0
 1418 002c 8001000C 		lwz 0,12(1)
 1419 0030 38210008 		addi 1,1,8
 1420              		.cfi_remember_state
 1421              	.LCFI22:
 1422              		.cfi_def_cfa_offset 0
 1423 0034 7C0803A6 		mtlr 0
 1424 0038 4E800020 		blr
 1425              	.LVL110:
 1426              	.L86:
 1427              	.LCFI23:
 1428              		.cfi_restore_state
 1429              		.loc 1 1801 0 discriminator 1
 1430 003c 7D4B482E 		lwzx 10,11,9
 1431 0040 7C6B4A14 		add 3,11,9
 1432              	.LVL111:
 1433 0044 7D2A0214 		add 9,10,0
 1434 0048 8009FFFF 		lwz 0,-1(9)
 1435 004c 7C0903A6 		mtctr 0
 1436 0050 4E800421 		bctrl
 1437              	.LVL112:
 1438              		.loc 1 1802 0 discriminator 1
 1439 0054 8001000C 		lwz 0,12(1)
 1440 0058 38210008 		addi 1,1,8
 1441              	.LCFI24:
 1442              		.cfi_def_cfa_offset 0
 1443 005c 7C0803A6 		mtlr 0
 1444 0060 4E800020 		blr
 1445              		.cfi_endproc
 1446              	.LFE2474:
 1447              		.size	_ZN7sigslot12_connection3I12SearchWindowP9GuiButtoniRK6_POINTNS_15single_threadedEE4emitES3_
 1448              		.section	.text._ZN7sigslot12_connection3I12SearchWindowP9GuiButtoniRK6_POINTNS_15single_threadedEE
 1449              		.align 2
 1450              		.weak	_ZN7sigslot12_connection3I12SearchWindowP9GuiButtoniRK6_POINTNS_15single_threadedEE9duplicat
 1451              		.type	_ZN7sigslot12_connection3I12SearchWindowP9GuiButtoniRK6_POINTNS_15single_threadedEE9duplicat
 1452              	_ZN7sigslot12_connection3I12SearchWindowP9GuiButtoniRK6_POINTNS_15single_threadedEE9duplicateEPNS_9
 1453              	.LFB2482:
 1454              		.loc 1 1794 0
 1455              		.cfi_startproc
 1456              	.LVL113:
 1457 0000 9421FFF0 		stwu 1,-16(1)
 1458              	.LCFI25:
 1459              		.cfi_def_cfa_offset 16
 1460 0004 7C0802A6 		mflr 0
 1461 0008 93C10008 		stw 30,8(1)
 1462 000c 7C9E2378 		mr 30,4
 1463              		.cfi_offset 30, -8
 1464              		.cfi_register 65, 0
 1465 0010 93E1000C 		stw 31,12(1)
 1466 0014 7C7F1B78 		mr 31,3
 1467              		.cfi_offset 31, -4
 1468              		.loc 1 1796 0
 1469 0018 38600010 		li 3,16
 1470              	.LVL114:
 1471              		.loc 1 1794 0
 1472 001c 90010014 		stw 0,20(1)
 1473              		.loc 1 1796 0
 1474              		.cfi_offset 65, 4
 1475 0020 48000001 		bl _Znwj
 1476              	.LVL115:
 1477 0024 2F9E0000 		cmpwi 7,30,0
 1478 0028 38000000 		li 0,0
 1479 002c 419E0008 		beq- 7,.L89
 1480              		.loc 1 1796 0 is_stmt 0 discriminator 1
 1481 0030 381EFF50 		addi 0,30,-176
 1482              	.L89:
 1483              	.LVL116:
 1484              		.loc 1 1796 0 discriminator 3
 1485 0034 817F0008 		lwz 11,8(31)
 1486              	.LVL117:
 1487              	.LBB3771:
 1488              	.LBB3772:
 1489              		.loc 1 1778 0 is_stmt 1 discriminator 3
 1490 0038 3D400000 		lis 10,_ZTVN7sigslot12_connection3I12SearchWindowP9GuiButtoniRK6_POINTNS_15single_threadedEEE+8@ha
 1491              	.LBE3772:
 1492              	.LBE3771:
 1493              		.loc 1 1796 0 discriminator 3
 1494 003c 813F000C 		lwz 9,12(31)
 1495              	.LVL118:
 1496              	.LBB3775:
 1497              	.LBB3773:
 1498              		.loc 1 1778 0 discriminator 3
 1499 0040 394A0008 		la 10,_ZTVN7sigslot12_connection3I12SearchWindowP9GuiButtoniRK6_POINTNS_15single_threadedEEE+8@l(1
 1500              		.loc 1 1780 0 discriminator 3
 1501 0044 91630008 		stw 11,8(3)
 1502 0048 9123000C 		stw 9,12(3)
 1503              		.loc 1 1779 0 discriminator 3
 1504 004c 90030004 		stw 0,4(3)
 1505              	.LBE3773:
 1506              	.LBE3775:
 1507              		.loc 1 1797 0 discriminator 3
 1508 0050 80010014 		lwz 0,20(1)
 1509              	.LVL119:
 1510 0054 83C10008 		lwz 30,8(1)
 1511              	.LVL120:
 1512 0058 7C0803A6 		mtlr 0
 1513 005c 83E1000C 		lwz 31,12(1)
 1514              	.LVL121:
 1515              	.LBB3776:
 1516              	.LBB3774:
 1517              		.loc 1 1778 0 discriminator 3
 1518 0060 91430000 		stw 10,0(3)
 1519              	.LBE3774:
 1520              	.LBE3776:
 1521              		.loc 1 1797 0 discriminator 3
 1522 0064 38210010 		addi 1,1,16
 1523              	.LCFI26:
 1524              		.cfi_def_cfa_offset 0
 1525              		.cfi_restore 31
 1526              		.cfi_restore 30
 1527 0068 4E800020 		blr
 1528              		.cfi_endproc
 1529              	.LFE2482:
 1530              		.size	_ZN7sigslot12_connection3I12SearchWindowP9GuiButtoniRK6_POINTNS_15single_threadedEE9duplicat
 1531              		.section	.text._ZN7sigslot12_connection3I12SearchWindowP9GuiButtoniRK6_POINTNS_15single_threadedEE
 1532              		.align 2
 1533              		.weak	_ZN7sigslot12_connection3I12SearchWindowP9GuiButtoniRK6_POINTNS_15single_threadedEE5cloneEv
 1534              		.type	_ZN7sigslot12_connection3I12SearchWindowP9GuiButtoniRK6_POINTNS_15single_threadedEE5cloneEv,
 1535              	_ZN7sigslot12_connection3I12SearchWindowP9GuiButtoniRK6_POINTNS_15single_threadedEE5cloneEv:
 1536              	.LFB2475:
 1537              		.loc 1 1789 0
 1538              		.cfi_startproc
 1539              	.LVL122:
 1540 0000 9421FFF0 		stwu 1,-16(1)
 1541              	.LCFI27:
 1542              		.cfi_def_cfa_offset 16
 1543 0004 7C0802A6 		mflr 0
 1544 0008 93E1000C 		stw 31,12(1)
 1545 000c 7C7F1B78 		mr 31,3
 1546              		.cfi_offset 31, -4
 1547              		.cfi_register 65, 0
 1548              		.loc 1 1791 0
 1549 0010 38600010 		li 3,16
 1550              	.LVL123:
 1551              		.loc 1 1789 0
 1552 0014 90010014 		stw 0,20(1)
 1553              		.loc 1 1791 0
 1554              		.cfi_offset 65, 4
 1555 0018 48000001 		bl _Znwj
 1556              		.loc 3 312 0
 1557 001c 801F0004 		lwz 0,4(31)
 1558              	.LVL124:
 1559              	.LBB3777:
 1560              	.LBB3778:
 1561              		.loc 1 1767 0
 1562 0020 3D600000 		lis 11,_ZTVN7sigslot12_connection3I12SearchWindowP9GuiButtoniRK6_POINTNS_15single_threadedEEE+8@ha
 1563 0024 396B0008 		la 11,_ZTVN7sigslot12_connection3I12SearchWindowP9GuiButtoniRK6_POINTNS_15single_threadedEEE+8@l(1
 1564 0028 90030004 		stw 0,4(3)
 1565 002c 91630000 		stw 11,0(3)
 1566 0030 815F0008 		lwz 10,8(31)
 1567 0034 817F000C 		lwz 11,12(31)
 1568 0038 91430008 		stw 10,8(3)
 1569 003c 9163000C 		stw 11,12(3)
 1570              	.LBE3778:
 1571              	.LBE3777:
 1572              		.loc 1 1792 0
 1573 0040 80010014 		lwz 0,20(1)
 1574 0044 83E1000C 		lwz 31,12(1)
 1575              	.LVL125:
 1576 0048 7C0803A6 		mtlr 0
 1577 004c 38210010 		addi 1,1,16
 1578              	.LCFI28:
 1579              		.cfi_def_cfa_offset 0
 1580              		.cfi_restore 31
 1581 0050 4E800020 		blr
 1582              		.cfi_endproc
 1583              	.LFE2475:
 1584              		.size	_ZN7sigslot12_connection3I12SearchWindowP9GuiButtoniRK6_POINTNS_15single_threadedEE5cloneEv,
 1585              		.section	.text._ZN7sigslot12_connection3I12SearchWindowP9GuiButtoniRK6_POINTNS_15single_threadedEE
 1586              		.align 2
 1587              		.weak	_ZN7sigslot12_connection3I12SearchWindowP9GuiButtoniRK6_POINTNS_15single_threadedEED0Ev
 1588              		.type	_ZN7sigslot12_connection3I12SearchWindowP9GuiButtoniRK6_POINTNS_15single_threadedEED0Ev, @fu
 1589              	_ZN7sigslot12_connection3I12SearchWindowP9GuiButtoniRK6_POINTNS_15single_threadedEED0Ev:
 1590              	.LFB2472:
 1591              		.loc 1 1783 0
 1592              		.cfi_startproc
 1593              	.LVL126:
 1594 0000 7C0802A6 		mflr 0
 1595 0004 9421FFF8 		stwu 1,-8(1)
 1596              	.LCFI29:
 1597              		.cfi_def_cfa_offset 8
 1598              		.cfi_register 65, 0
 1599              	.LBB3779:
 1600              	.LBB3780:
 1601              	.LBB3781:
 1602              	.LBB3782:
 1603              	.LBB3783:
 1604              	.LBB3784:
 1605              		.loc 1 387 0
 1606 0008 3D200000 		lis 9,_ZTVN7sigslot17_connection_base3IP9GuiButtoniRK6_POINTNS_15single_threadedEEE+8@ha
 1607              	.LBE3784:
 1608              	.LBE3783:
 1609              	.LBE3782:
 1610              	.LBE3781:
 1611              	.LBE3780:
 1612              	.LBE3779:
 1613              		.loc 1 1783 0
 1614 000c 9001000C 		stw 0,12(1)
 1615              	.LBB3790:
 1616              	.LBB3789:
 1617              	.LBB3788:
 1618              	.LBB3787:
 1619              	.LBB3786:
 1620              	.LBB3785:
 1621              		.loc 1 387 0
 1622 0010 38090008 		la 0,_ZTVN7sigslot17_connection_base3IP9GuiButtoniRK6_POINTNS_15single_threadedEEE+8@l(9)
 1623              		.cfi_offset 65, 4
 1624 0014 90030000 		stw 0,0(3)
 1625              	.LBE3785:
 1626              	.LBE3786:
 1627              	.LBE3787:
 1628              	.LBE3788:
 1629              	.LBE3789:
 1630              	.LBE3790:
 1631              		.loc 1 1786 0
 1632 0018 48000001 		bl _ZdlPv
 1633              	.LVL127:
 1634 001c 8001000C 		lwz 0,12(1)
 1635 0020 38210008 		addi 1,1,8
 1636              	.LCFI30:
 1637              		.cfi_def_cfa_offset 0
 1638 0024 7C0803A6 		mtlr 0
 1639 0028 4E800020 		blr
 1640              		.cfi_endproc
 1641              	.LFE2472:
 1642              		.size	_ZN7sigslot12_connection3I12SearchWindowP9GuiButtoniRK6_POINTNS_15single_threadedEED0Ev, .-_
 1643              		.section	.text._ZN7sigslot17_connection_base3IP9GuiButtoniRK6_POINTNS_15single_threadedEED0Ev,"axG
 1644              		.align 2
 1645              		.weak	_ZN7sigslot17_connection_base3IP9GuiButtoniRK6_POINTNS_15single_threadedEED0Ev
 1646              		.type	_ZN7sigslot17_connection_base3IP9GuiButtoniRK6_POINTNS_15single_threadedEED0Ev, @function
 1647              	_ZN7sigslot17_connection_base3IP9GuiButtoniRK6_POINTNS_15single_threadedEED0Ev:
 1648              	.LFB2078:
 1649              		.loc 1 387 0
 1650              		.cfi_startproc
 1651              	.LVL128:
 1652 0000 7C0802A6 		mflr 0
 1653 0004 9421FFF8 		stwu 1,-8(1)
 1654              	.LCFI31:
 1655              		.cfi_def_cfa_offset 8
 1656              		.cfi_register 65, 0
 1657              	.LBB3791:
 1658              	.LBB3792:
 1659              	.LBB3793:
 1660 0008 3D200000 		lis 9,_ZTVN7sigslot17_connection_base3IP9GuiButtoniRK6_POINTNS_15single_threadedEEE+8@ha
 1661              	.LBE3793:
 1662              	.LBE3792:
 1663              	.LBE3791:
 1664 000c 9001000C 		stw 0,12(1)
 1665              	.LBB3796:
 1666              	.LBB3795:
 1667              	.LBB3794:
 1668              		.loc 1 387 0
 1669 0010 38090008 		la 0,_ZTVN7sigslot17_connection_base3IP9GuiButtoniRK6_POINTNS_15single_threadedEEE+8@l(9)
 1670              		.cfi_offset 65, 4
 1671 0014 90030000 		stw 0,0(3)
 1672              	.LBE3794:
 1673              	.LBE3795:
 1674              	.LBE3796:
 1675 0018 48000001 		bl _ZdlPv
 1676              	.LVL129:
 1677 001c 8001000C 		lwz 0,12(1)
 1678 0020 38210008 		addi 1,1,8
 1679              	.LCFI32:
 1680              		.cfi_def_cfa_offset 0
 1681 0024 7C0803A6 		mtlr 0
 1682 0028 4E800020 		blr
 1683              		.cfi_endproc
 1684              	.LFE2078:
 1685              		.size	_ZN7sigslot17_connection_base3IP9GuiButtoniRK6_POINTNS_15single_threadedEED0Ev, .-_ZN7sigslo
 1686              		.section	.text._ZN7sigslot15single_threadedD0Ev,"axG",@progbits,_ZN7sigslot15single_threadedD5Ev,c
 1687              		.align 2
 1688              		.weak	_ZN7sigslot15single_threadedD0Ev
 1689              		.type	_ZN7sigslot15single_threadedD0Ev, @function
 1690              	_ZN7sigslot15single_threadedD0Ev:
 1691              	.LFB1150:
 1692              		.loc 1 104 0
 1693              		.cfi_startproc
 1694              	.LVL130:
 1695 0000 7C0802A6 		mflr 0
 1696 0004 9421FFF8 		stwu 1,-8(1)
 1697              	.LCFI33:
 1698              		.cfi_def_cfa_offset 8
 1699              		.cfi_register 65, 0
 1700              	.LBB3797:
 1701              	.LBB3798:
 1702              	.LBB3799:
 1703              		.loc 1 105 0
 1704 0008 3D200000 		lis 9,_ZTVN7sigslot15single_threadedE+8@ha
 1705              	.LBE3799:
 1706              	.LBE3798:
 1707              	.LBE3797:
 1708              		.loc 1 104 0
 1709 000c 9001000C 		stw 0,12(1)
 1710              	.LBB3802:
 1711              	.LBB3801:
 1712              	.LBB3800:
 1713              		.loc 1 105 0
 1714 0010 38090008 		la 0,_ZTVN7sigslot15single_threadedE+8@l(9)
 1715              		.cfi_offset 65, 4
 1716 0014 90030000 		stw 0,0(3)
 1717              	.LBE3800:
 1718              	.LBE3801:
 1719              	.LBE3802:
 1720              		.loc 1 107 0
 1721 0018 48000001 		bl _ZdlPv
 1722              	.LVL131:
 1723 001c 8001000C 		lwz 0,12(1)
 1724 0020 38210008 		addi 1,1,8
 1725              	.LCFI34:
 1726              		.cfi_def_cfa_offset 0
 1727 0024 7C0803A6 		mtlr 0
 1728 0028 4E800020 		blr
 1729              		.cfi_endproc
 1730              	.LFE1150:
 1731              		.size	_ZN7sigslot15single_threadedD0Ev, .-_ZN7sigslot15single_threadedD0Ev
 1732              		.section	.text._ZN16SimpleGuiTriggerD2Ev,"axG",@progbits,_ZN16SimpleGuiTriggerD5Ev,comdat
 1733              		.align 2
 1734              		.weak	_ZN16SimpleGuiTriggerD2Ev
 1735              		.type	_ZN16SimpleGuiTriggerD2Ev, @function
 1736              	_ZN16SimpleGuiTriggerD2Ev:
 1737              	.LFB1695:
 1738              		.file 6 "d:/Projects/SaveGameManager/savegame-manager-gx/trunk/source/Prompts/../GUI/gui_trigger.h
 1739              		.loc 6 91 0
 1740              		.cfi_startproc
 1741              	.LVL132:
 1742 0000 7C0802A6 		mflr 0
 1743 0004 9421FFF8 		stwu 1,-8(1)
 1744              	.LCFI35:
 1745              		.cfi_def_cfa_offset 8
 1746              		.cfi_register 65, 0
 1747              	.LBB3804:
 1748 0008 3D200000 		lis 9,_ZTV16SimpleGuiTrigger+8@ha
 1749              	.LBE3804:
 1750 000c 9001000C 		stw 0,12(1)
 1751              	.LBB3805:
 1752              		.loc 6 91 0
 1753 0010 38090008 		la 0,_ZTV16SimpleGuiTrigger+8@l(9)
 1754              		.cfi_offset 65, 4
 1755 0014 90030000 		stw 0,0(3)
 1756 0018 48000001 		bl _ZN10GuiTriggerD2Ev
 1757              	.LVL133:
 1758              	.LBE3805:
 1759 001c 8001000C 		lwz 0,12(1)
 1760 0020 38210008 		addi 1,1,8
 1761              	.LCFI36:
 1762              		.cfi_def_cfa_offset 0
 1763 0024 7C0803A6 		mtlr 0
 1764 0028 4E800020 		blr
 1765              		.cfi_endproc
 1766              	.LFE1695:
 1767              		.size	_ZN16SimpleGuiTriggerD2Ev, .-_ZN16SimpleGuiTriggerD2Ev
 1768              		.section	.text._ZN10GuiElement10ResetStateEv,"axG",@progbits,_ZN10GuiElement10ResetStateEv,comdat
 1769              		.align 2
 1770              		.weak	_ZN10GuiElement10ResetStateEv
 1771              		.type	_ZN10GuiElement10ResetStateEv, @function
 1772              	_ZN10GuiElement10ResetStateEv:
 1773              	.LFB1402:
 1774              		.loc 2 183 0
 1775              		.cfi_startproc
 1776              	.LVL134:
 1777 0000 7C0802A6 		mflr 0
 1778 0004 9421FFF8 		stwu 1,-8(1)
 1779              	.LCFI37:
 1780              		.cfi_def_cfa_offset 8
 1781              		.cfi_register 65, 0
 1782 0008 9001000C 		stw 0,12(1)
 1783              		.loc 2 185 0
 1784 000c 80030048 		lwz 0,72(3)
 1785              		.cfi_offset 65, 4
 1786 0010 2F800004 		cmpwi 7,0,4
 1787 0014 419E001C 		beq- 7,.L104
 1788              	.LVL135:
 1789              	.LBB3808:
 1790              	.LBB3809:
 1791              		.loc 2 186 0
 1792 0018 81230000 		lwz 9,0(3)
 1793 001c 38800000 		li 4,0
 1794 0020 38A0FFFF 		li 5,-1
 1795 0024 80090050 		lwz 0,80(9)
 1796 0028 7C0903A6 		mtctr 0
 1797 002c 4E800421 		bctrl
 1798              	.LVL136:
 1799              	.L104:
 1800              	.LBE3809:
 1801              	.LBE3808:
 1802              		.loc 2 187 0
 1803 0030 8001000C 		lwz 0,12(1)
 1804 0034 38210008 		addi 1,1,8
 1805              	.LCFI38:
 1806              		.cfi_def_cfa_offset 0
 1807 0038 7C0803A6 		mtlr 0
 1808 003c 4E800020 		blr
 1809              		.cfi_endproc
 1810              	.LFE1402:
 1811              		.size	_ZN10GuiElement10ResetStateEv, .-_ZN10GuiElement10ResetStateEv
 1812              		.section	".text"
 1813              		.align 2
 1814              		.type	_ZN13cSearchButtonC2ESbIwSt11char_traitsIwESaIwEEPKcS5_iiP10GuiTriggerP8GuiSoundS9_.constpro
 1815              	_ZN13cSearchButtonC2ESbIwSt11char_traitsIwESaIwEEPKcS5_iiP10GuiTriggerP8GuiSoundS9_.constprop.212:
 1816              	.LFB2726:
 1817              		.loc 3 31 0
 1818              		.cfi_startproc
 1819              		.cfi_personality 0,__gxx_personality_v0
 1820              		.cfi_lsda 0,.LLSDA2726
 1821              	.LVL137:
 1822 0000 9421FFD0 		stwu 1,-48(1)
 1823              	.LCFI39:
 1824              		.cfi_def_cfa_offset 48
 1825 0004 7C0802A6 		mflr 0
 1826 0008 9361001C 		stw 27,28(1)
 1827 000c 7CBB2B78 		mr 27,5
 1828              		.cfi_offset 27, -20
 1829              		.cfi_register 65, 0
 1830 0010 93A10024 		stw 29,36(1)
 1831              	.LBB3810:
 1832              		.loc 3 32 0
 1833 0014 3CA00000 		lis 5,.LC5@ha
 1834              	.LVL138:
 1835              	.LBE3810:
 1836              		.loc 3 31 0
 1837 0018 7C9D2378 		mr 29,4
 1838              		.cfi_offset 29, -12
 1839              	.LBB3835:
 1840              		.loc 3 32 0
 1841 001c 3C800000 		lis 4,.LC4@ha
 1842              	.LVL139:
 1843              	.LBE3835:
 1844              		.loc 3 31 0
 1845 0020 93010010 		stw 24,16(1)
 1846              	.LBB3836:
 1847              		.loc 3 32 0
 1848 0024 38840000 		la 4,.LC4@l(4)
 1849              	.LBE3836:
 1850              		.loc 3 31 0
 1851 0028 93810020 		stw 28,32(1)
 1852 002c 7CF83B78 		mr 24,7
 1853              		.cfi_offset 28, -16
 1854              		.cfi_offset 24, -32
 1855 0030 7CDC3378 		mr 28,6
 1856              	.LBB3837:
 1857              		.loc 3 32 0
 1858 0034 7D274B78 		mr 7,9
 1859              	.LVL140:
 1860 0038 38A50014 		la 5,.LC5@l(5)
 1861 003c 7D064378 		mr 6,8
 1862              	.LVL141:
 1863              	.LBE3837:
 1864              		.loc 3 31 0
 1865 0040 90010034 		stw 0,52(1)
 1866 0044 93C10028 		stw 30,40(1)
 1867 0048 93E1002C 		stw 31,44(1)
 1868 004c 7C7F1B78 		mr 31,3
 1869              		.cfi_offset 31, -4
 1870              		.cfi_offset 30, -8
 1871              		.cfi_offset 65, 4
 1872 0050 93210014 		stw 25,20(1)
 1873              	.LBB3838:
 1874              	.LBB3811:
 1875              	.LBB3812:
 1876              	.LBB3813:
 1877              		.file 7 "d:\\devkitpro\\devkitppc\\bin\\../lib/gcc/powerpc-eabi/4.6.3/../../../../powerpc-eabi/inc
 1878              		.loc 7 270 0
 1879 0054 7FFEFB78 		mr 30,31
 1880              	.LBE3813:
 1881              	.LBE3812:
 1882              	.LBE3811:
 1883              	.LBE3838:
 1884              		.loc 3 31 0
 1885 0058 93410018 		stw 26,24(1)
 1886              	.LEHB4:
 1887              	.LBB3839:
 1888              		.loc 3 32 0
 1889              		.cfi_offset 26, -24
 1890              		.cfi_offset 25, -28
 1891 005c 48000001 		bl _ZN13PictureButtonC2EPKcS1_P8GuiSoundS3_
 1892              	.LEHE4:
 1893              	.LVL142:
 1894 0060 3D200000 		lis 9,_ZTV13cSearchButton+8@ha
 1895              	.LBB3818:
 1896              	.LBB3819:
 1897              		.loc 7 542 0
 1898 0064 7FA4EB78 		mr 4,29
 1899              	.LBE3819:
 1900              	.LBE3818:
 1901              		.loc 3 32 0
 1902 0068 38090008 		la 0,_ZTV13cSearchButton+8@l(9)
 1903              	.LBB3821:
 1904              	.LBB3816:
 1905              	.LBB3814:
 1906              		.loc 7 270 0
 1907 006c 3D200000 		lis 9,_ZNSbIwSt11char_traitsIwESaIwEE4_Rep20_S_empty_rep_storageE+12@ha
 1908              	.LBE3814:
 1909              	.LBE3816:
 1910              	.LBE3821:
 1911              		.loc 3 32 0
 1912 0070 901F0000 		stw 0,0(31)
 1913              	.LVL143:
 1914              	.LBB3822:
 1915              	.LBB3817:
 1916              	.LBB3815:
 1917              		.loc 7 270 0
 1918 0074 3809000C 		la 0,_ZNSbIwSt11char_traitsIwESaIwEE4_Rep20_S_empty_rep_storageE+12@l(9)
 1919 0078 941E0140 		stwu 0,320(30)
 1920              	.LVL144:
 1921              	.LBE3815:
 1922              	.LBE3817:
 1923              	.LBE3822:
 1924              	.LBB3823:
 1925              	.LBB3820:
 1926              		.loc 7 542 0
 1927 007c 7FC3F378 		mr 3,30
 1928              	.LEHB5:
 1929 0080 48000001 		bl _ZNSbIwSt11char_traitsIwESaIwEE6assignERKS2_
 1930              	.LVL145:
 1931              	.LBE3820:
 1932              	.LBE3823:
 1933              		.loc 3 37 0
 1934 0084 3C600000 		lis 3,.LC6@ha
 1935              	.LBB3824:
 1936              	.LBB3825:
 1937              	.LBB3826:
 1938              		.loc 7 288 0
 1939 0088 835D0000 		lwz 26,0(29)
 1940              	.LBE3826:
 1941              	.LBE3825:
 1942              	.LBE3824:
 1943              		.loc 3 37 0
 1944 008c 3863002C 		la 3,.LC6@l(3)
 1945 0090 48000001 		bl getThemeColor
 1946 0094 7C791B78 		mr 25,3
 1947 0098 386000D0 		li 3,208
 1948 009c 48000001 		bl _Znwj
 1949              	.LEHE5:
 1950              		.loc 3 35 0
 1951 00a0 7C260B78 		mr 6,1
 1952 00a4 7F44D378 		mr 4,26
 1953 00a8 97260008 		stwu 25,8(6)
 1954 00ac 38A00014 		li 5,20
 1955              		.loc 3 37 0
 1956 00b0 7C7D1B78 		mr 29,3
 1957              	.LVL146:
 1958              	.LEHB6:
 1959              		.loc 3 35 0
 1960 00b4 48000001 		bl _ZN7GuiTextC1EPKwi9_gx_color
 1961              	.LEHE6:
 1962              	.LBB3827:
 1963              	.LBB3828:
 1964              		.loc 2 316 0
 1965 00b8 38000011 		li 0,17
 1966              	.LBE3828:
 1967              	.LBE3827:
 1968              		.loc 3 37 0
 1969 00bc 93BF0144 		stw 29,324(31)
 1970              	.LVL147:
 1971              	.LBB3830:
 1972              	.LBB3829:
 1973              		.loc 2 316 0
 1974 00c0 901F0044 		stw 0,68(31)
 1975              	.LVL148:
 1976              	.LBE3829:
 1977              	.LBE3830:
 1978              		.loc 3 39 0
 1979 00c4 7FE3FB78 		mr 3,31
 1980              	.LBB3831:
 1981              	.LBB3832:
 1982              		.loc 2 297 0
 1983 00c8 937F002C 		stw 27,44(31)
 1984              	.LBE3832:
 1985              	.LBE3831:
 1986              		.loc 3 39 0
 1987 00cc 7FA4EB78 		mr 4,29
 1988              	.LBB3834:
 1989              	.LBB3833:
 1990              		.loc 2 298 0
 1991 00d0 939F0030 		stw 28,48(31)
 1992              	.LBE3833:
 1993              	.LBE3834:
 1994              		.loc 3 39 0
 1995 00d4 38A00000 		li 5,0
 1996              	.LEHB7:
 1997 00d8 48000001 		bl _ZN9GuiButton8SetLabelEP7GuiTexti
 1998              		.loc 3 40 0
 1999 00dc 7FE3FB78 		mr 3,31
 2000 00e0 7F04C378 		mr 4,24
 2001 00e4 48000001 		bl _ZN9GuiButton10SetTriggerEP10GuiTrigger
 2002              	.LEHE7:
 2003              	.LBE3839:
 2004              		.loc 3 41 0
 2005 00e8 80010034 		lwz 0,52(1)
 2006 00ec 83010010 		lwz 24,16(1)
 2007              	.LVL149:
 2008 00f0 7C0803A6 		mtlr 0
 2009 00f4 83210014 		lwz 25,20(1)
 2010 00f8 83410018 		lwz 26,24(1)
 2011 00fc 8361001C 		lwz 27,28(1)
 2012              	.LVL150:
 2013 0100 83810020 		lwz 28,32(1)
 2014              	.LVL151:
 2015 0104 83A10024 		lwz 29,36(1)
 2016 0108 83C10028 		lwz 30,40(1)
 2017 010c 83E1002C 		lwz 31,44(1)
 2018              	.LVL152:
 2019 0110 38210030 		addi 1,1,48
 2020              		.cfi_remember_state
 2021              	.LCFI40:
 2022              		.cfi_def_cfa_offset 0
 2023              		.cfi_restore 31
 2024              		.cfi_restore 30
 2025              		.cfi_restore 29
 2026              		.cfi_restore 28
 2027              		.cfi_restore 27
 2028              		.cfi_restore 26
 2029              		.cfi_restore 25
 2030              		.cfi_restore 24
 2031 0114 4E800020 		blr
 2032              	.LVL153:
 2033              	.L111:
 2034              	.LCFI41:
 2035              		.cfi_restore_state
 2036 0118 7C7D1B78 		mr 29,3
 2037              	.LVL154:
 2038              	.L110:
 2039              	.LBB3840:
 2040              		.loc 3 32 0
 2041 011c 7FC3F378 		mr 3,30
 2042 0120 48000001 		bl _ZNSbIwSt11char_traitsIwESaIwEED1Ev
 2043 0124 7FE3FB78 		mr 3,31
 2044 0128 48000001 		bl _ZN13PictureButtonD2Ev
 2045 012c 7FA3EB78 		mr 3,29
 2046              	.LEHB8:
 2047 0130 48000001 		bl _Unwind_Resume
 2048              	.LEHE8:
 2049              	.LVL155:
 2050              	.L112:
 2051 0134 7C7C1B78 		mr 28,3
 2052              	.LVL156:
 2053              		.loc 3 35 0
 2054 0138 7FA3EB78 		mr 3,29
 2055 013c 48000001 		bl _ZdlPv
 2056 0140 7F9DE378 		mr 29,28
 2057 0144 4BFFFFD8 		b .L110
 2058              	.LBE3840:
 2059              		.cfi_endproc
 2060              	.LFE2726:
 2061              		.section	.gcc_except_table
 2062              	.LLSDA2726:
 2063 0017 FF       		.byte	0xff
 2064 0018 FF       		.byte	0xff
 2065 0019 01       		.byte	0x1
 2066 001a 1B       		.uleb128 .LLSDACSE2726-.LLSDACSB2726
 2067              	.LLSDACSB2726:
 2068 001b 5C       		.uleb128 .LEHB4-.LFB2726
 2069 001c 04       		.uleb128 .LEHE4-.LEHB4
 2070 001d 00       		.uleb128 0
 2071 001e 00       		.uleb128 0
 2072 001f 8001     		.uleb128 .LEHB5-.LFB2726
 2073 0021 20       		.uleb128 .LEHE5-.LEHB5
 2074 0022 9802     		.uleb128 .L111-.LFB2726
 2075 0024 00       		.uleb128 0
 2076 0025 B401     		.uleb128 .LEHB6-.LFB2726
 2077 0027 04       		.uleb128 .LEHE6-.LEHB6
 2078 0028 B402     		.uleb128 .L112-.LFB2726
 2079 002a 00       		.uleb128 0
 2080 002b D801     		.uleb128 .LEHB7-.LFB2726
 2081 002d 10       		.uleb128 .LEHE7-.LEHB7
 2082 002e 9802     		.uleb128 .L111-.LFB2726
 2083 0030 00       		.uleb128 0
 2084 0031 B002     		.uleb128 .LEHB8-.LFB2726
 2085 0033 04       		.uleb128 .LEHE8-.LEHB8
 2086 0034 00       		.uleb128 0
 2087 0035 00       		.uleb128 0
 2088              	.LLSDACSE2726:
 2089              		.section	".text"
 2090              		.size	_ZN13cSearchButtonC2ESbIwSt11char_traitsIwESaIwEEPKcS5_iiP10GuiTriggerP8GuiSoundS9_.constpro
 2091              		.section	.text._ZN16SimpleGuiTriggerD0Ev,"axG",@progbits,_ZN16SimpleGuiTriggerD5Ev,comdat
 2092              		.align 2
 2093              		.weak	_ZN16SimpleGuiTriggerD0Ev
 2094              		.type	_ZN16SimpleGuiTriggerD0Ev, @function
 2095              	_ZN16SimpleGuiTriggerD0Ev:
 2096              	.LFB1697:
 2097              		.loc 6 91 0
 2098              		.cfi_startproc
 2099              	.LVL157:
 2100 0000 7C0802A6 		mflr 0
 2101 0004 9421FFF0 		stwu 1,-16(1)
 2102              	.LCFI42:
 2103              		.cfi_def_cfa_offset 16
 2104              		.cfi_register 65, 0
 2105              	.LBB3844:
 2106              	.LBB3845:
 2107              	.LBB3846:
 2108 0008 3D200000 		lis 9,_ZTV16SimpleGuiTrigger+8@ha
 2109              	.LBE3846:
 2110              	.LBE3845:
 2111              	.LBE3844:
 2112 000c 93E1000C 		stw 31,12(1)
 2113 0010 7C7F1B78 		mr 31,3
 2114              		.cfi_offset 31, -4
 2115              	.LVL158:
 2116 0014 90010014 		stw 0,20(1)
 2117              	.LBB3849:
 2118              	.LBB3848:
 2119              	.LBB3847:
 2120              		.loc 6 91 0
 2121 0018 38090008 		la 0,_ZTV16SimpleGuiTrigger+8@l(9)
 2122              		.cfi_offset 65, 4
 2123 001c 90030000 		stw 0,0(3)
 2124 0020 48000001 		bl _ZN10GuiTriggerD2Ev
 2125              	.LVL159:
 2126              	.LBE3847:
 2127              	.LBE3848:
 2128              	.LBE3849:
 2129 0024 7FE3FB78 		mr 3,31
 2130 0028 48000001 		bl _ZdlPv
 2131 002c 80010014 		lwz 0,20(1)
 2132 0030 83E1000C 		lwz 31,12(1)
 2133              	.LVL160:
 2134 0034 7C0803A6 		mtlr 0
 2135 0038 38210010 		addi 1,1,16
 2136              	.LCFI43:
 2137              		.cfi_def_cfa_offset 0
 2138              		.cfi_restore 31
 2139 003c 4E800020 		blr
 2140              		.cfi_endproc
 2141              	.LFE1697:
 2142              		.size	_ZN16SimpleGuiTriggerD0Ev, .-_ZN16SimpleGuiTriggerD0Ev
 2143              		.section	".text"
 2144              		.align 2
 2145              		.globl _ZN13cSearchButtonD2Ev
 2146              		.type	_ZN13cSearchButtonD2Ev, @function
 2147              	_ZN13cSearchButtonD2Ev:
 2148              	.LFB1687:
 2149              		.loc 3 43 0
 2150              		.cfi_startproc
 2151              		.cfi_personality 0,__gxx_personality_v0
 2152              		.cfi_lsda 0,.LLSDA1687
 2153              	.LVL161:
 2154 0148 7C0802A6 		mflr 0
 2155 014c 9421FFE0 		stwu 1,-32(1)
 2156              	.LCFI44:
 2157              		.cfi_def_cfa_offset 32
 2158              		.cfi_register 65, 0
 2159              	.LBB3873:
 2160 0150 3D200000 		lis 9,_ZTV13cSearchButton+8@ha
 2161              	.LBE3873:
 2162 0154 93E1001C 		stw 31,28(1)
 2163 0158 7C7F1B78 		mr 31,3
 2164              		.cfi_offset 31, -4
 2165 015c 90010024 		stw 0,36(1)
 2166              	.LBB3895:
 2167 0160 38090008 		la 0,_ZTV13cSearchButton+8@l(9)
 2168              		.cfi_offset 65, 4
 2169              	.LBE3895:
 2170 0164 93C10018 		stw 30,24(1)
 2171              	.LBB3896:
 2172              		.loc 3 45 0
 2173 0168 80630144 		lwz 3,324(3)
 2174              	.LVL162:
 2175              		.loc 3 43 0
 2176 016c 901F0000 		stw 0,0(31)
 2177              		.loc 3 45 0
 2178 0170 2F830000 		cmpwi 7,3,0
 2179 0174 419E0014 		beq- 7,.L118
 2180              		.cfi_offset 30, -8
 2181              		.loc 3 45 0 is_stmt 0 discriminator 1
 2182 0178 81230000 		lwz 9,0(3)
 2183 017c 80090004 		lwz 0,4(9)
 2184 0180 7C0903A6 		mtctr 0
 2185              	.LEHB9:
 2186 0184 4E800421 		bctrl
 2187              	.LEHE9:
 2188              	.L118:
 2189              	.LVL163:
 2190              	.LBB3874:
 2191              	.LBB3875:
 2192              	.LBB3876:
 2193              	.LBB3877:
 2194              	.LBB3878:
 2195              	.LBB3879:
 2196              		.loc 7 288 0 is_stmt 1
 2197 0188 813F0140 		lwz 9,320(31)
 2198              	.LBE3879:
 2199              	.LBE3878:
 2200              	.LBE3877:
 2201              	.LBB3880:
 2202              	.LBB3881:
 2203              		.loc 7 235 0
 2204 018c 3D600000 		lis 11,_ZNSbIwSt11char_traitsIwESaIwEE4_Rep20_S_empty_rep_storageE@ha
 2205 0190 380B0000 		la 0,_ZNSbIwSt11char_traitsIwESaIwEE4_Rep20_S_empty_rep_storageE@l(11)
 2206              	.LBE3881:
 2207              	.LBE3880:
 2208              		.loc 7 534 0
 2209 0194 3869FFF4 		addi 3,9,-12
 2210              	.LVL164:
 2211              	.LBB3890:
 2212              	.LBB3888:
 2213              		.loc 7 235 0
 2214 0198 7F830000 		cmpw 7,3,0
 2215 019c 409E0024 		bne- 7,.L128
 2216              	.LVL165:
 2217              	.L124:
 2218              	.LBE3888:
 2219              	.LBE3890:
 2220              	.LBE3876:
 2221              	.LBE3875:
 2222              	.LBE3874:
 2223              		.loc 3 43 0
 2224 01a0 7FE3FB78 		mr 3,31
 2225              	.LEHB10:
 2226 01a4 48000001 		bl _ZN13PictureButtonD2Ev
 2227              	.LEHE10:
 2228              	.LBE3896:
 2229              		.loc 3 46 0
 2230 01a8 80010024 		lwz 0,36(1)
 2231 01ac 83C10018 		lwz 30,24(1)
 2232 01b0 7C0803A6 		mtlr 0
 2233 01b4 83E1001C 		lwz 31,28(1)
 2234              	.LVL166:
 2235 01b8 38210020 		addi 1,1,32
 2236              		.cfi_remember_state
 2237              	.LCFI45:
 2238              		.cfi_def_cfa_offset 0
 2239              		.cfi_restore 31
 2240              		.cfi_restore 30
 2241 01bc 4E800020 		blr
 2242              	.LVL167:
 2243              	.L128:
 2244              	.LCFI46:
 2245              		.cfi_restore_state
 2246              	.LBB3897:
 2247              	.LBB3894:
 2248              	.LBB3893:
 2249              	.LBB3892:
 2250              	.LBB3891:
 2251              	.LBB3889:
 2252              	.LBB3882:
 2253              	.LBB3883:
 2254              	.LBB3884:
 2255              		.file 8 "d:\\devkitpro\\devkitppc\\bin\\../lib/gcc/powerpc-eabi/4.6.3/../../../../powerpc-eabi/inc
 2256              		.loc 8 66 0
 2257 01c0 8169FFFC 		lwz 11,-4(9)
 2258              	.LVL168:
 2259              	.LBE3884:
 2260              	.LBE3883:
 2261              	.LBE3882:
 2262              		.loc 7 240 0
 2263 01c4 2F8B0000 		cmpwi 7,11,0
 2264              	.LBB3887:
 2265              	.LBB3886:
 2266              	.LBB3885:
 2267              		.loc 8 67 0
 2268 01c8 396BFFFF 		addi 11,11,-1
 2269 01cc 9169FFFC 		stw 11,-4(9)
 2270              	.LBE3885:
 2271              	.LBE3886:
 2272              	.LBE3887:
 2273              		.loc 7 240 0
 2274 01d0 419DFFD0 		bgt+ 7,.L124
 2275              		.loc 7 244 0
 2276 01d4 38810008 		addi 4,1,8
 2277 01d8 48000001 		bl _ZNSbIwSt11char_traitsIwESaIwEE4_Rep10_M_destroyERKS1_
 2278              	.LVL169:
 2279 01dc 4BFFFFC4 		b .L124
 2280              	.LVL170:
 2281              	.L127:
 2282 01e0 7C7E1B78 		mr 30,3
 2283              	.LBE3889:
 2284              	.LBE3891:
 2285              	.LBE3892:
 2286              	.LBE3893:
 2287              	.LBE3894:
 2288              		.loc 3 43 0
 2289 01e4 387F0140 		addi 3,31,320
 2290 01e8 48000001 		bl _ZNSbIwSt11char_traitsIwESaIwEED1Ev
 2291 01ec 7FE3FB78 		mr 3,31
 2292 01f0 48000001 		bl _ZN13PictureButtonD2Ev
 2293 01f4 7FC3F378 		mr 3,30
 2294              	.LEHB11:
 2295 01f8 48000001 		bl _Unwind_Resume
 2296              	.LEHE11:
 2297              	.LBE3897:
 2298              		.cfi_endproc
 2299              	.LFE1687:
 2300              		.section	.gcc_except_table
 2301              	.LLSDA1687:
 2302 0036 FF       		.byte	0xff
 2303 0037 FF       		.byte	0xff
 2304 0038 01       		.byte	0x1
 2305 0039 0E       		.uleb128 .LLSDACSE1687-.LLSDACSB1687
 2306              	.LLSDACSB1687:
 2307 003a 3C       		.uleb128 .LEHB9-.LFB1687
 2308 003b 04       		.uleb128 .LEHE9-.LEHB9
 2309 003c 9801     		.uleb128 .L127-.LFB1687
 2310 003e 00       		.uleb128 0
 2311 003f 5C       		.uleb128 .LEHB10-.LFB1687
 2312 0040 04       		.uleb128 .LEHE10-.LEHB10
 2313 0041 00       		.uleb128 0
 2314 0042 00       		.uleb128 0
 2315 0043 B001     		.uleb128 .LEHB11-.LFB1687
 2316 0045 04       		.uleb128 .LEHE11-.LEHB11
 2317 0046 00       		.uleb128 0
 2318 0047 00       		.uleb128 0
 2319              	.LLSDACSE1687:
 2320              		.section	".text"
 2321              		.size	_ZN13cSearchButtonD2Ev, .-_ZN13cSearchButtonD2Ev
 2322              		.align 2
 2323              		.globl _ZN13cSearchButtonD0Ev
 2324              		.type	_ZN13cSearchButtonD0Ev, @function
 2325              	_ZN13cSearchButtonD0Ev:
 2326              	.LFB1689:
 2327              		.loc 3 43 0
 2328              		.cfi_startproc
 2329              		.cfi_personality 0,__gxx_personality_v0
 2330              		.cfi_lsda 0,.LLSDA1689
 2331              	.LVL171:
 2332 01fc 7C0802A6 		mflr 0
 2333 0200 9421FFE0 		stwu 1,-32(1)
 2334              	.LCFI47:
 2335              		.cfi_def_cfa_offset 32
 2336              		.cfi_register 65, 0
 2337              	.LBB3922:
 2338              	.LBB3923:
 2339              	.LBB3924:
 2340 0204 3D200000 		lis 9,_ZTV13cSearchButton+8@ha
 2341              	.LBE3924:
 2342              	.LBE3923:
 2343              	.LBE3922:
 2344 0208 93E1001C 		stw 31,28(1)
 2345 020c 7C7F1B78 		mr 31,3
 2346              		.cfi_offset 31, -4
 2347              	.LVL172:
 2348 0210 90010024 		stw 0,36(1)
 2349              	.LBB3952:
 2350              	.LBB3949:
 2351              	.LBB3946:
 2352 0214 38090008 		la 0,_ZTV13cSearchButton+8@l(9)
 2353              		.cfi_offset 65, 4
 2354              	.LBE3946:
 2355              	.LBE3949:
 2356              	.LBE3952:
 2357 0218 93C10018 		stw 30,24(1)
 2358              	.LBB3953:
 2359              	.LBB3950:
 2360              	.LBB3947:
 2361              		.loc 3 45 0
 2362 021c 80630144 		lwz 3,324(3)
 2363              	.LVL173:
 2364              		.loc 3 43 0
 2365 0220 901F0000 		stw 0,0(31)
 2366              		.loc 3 45 0
 2367 0224 2F830000 		cmpwi 7,3,0
 2368 0228 419E0014 		beq- 7,.L130
 2369              		.cfi_offset 30, -8
 2370 022c 81230000 		lwz 9,0(3)
 2371 0230 80090004 		lwz 0,4(9)
 2372 0234 7C0903A6 		mtctr 0
 2373              	.LEHB12:
 2374 0238 4E800421 		bctrl
 2375              	.LEHE12:
 2376              	.LVL174:
 2377              	.L130:
 2378              	.LBB3925:
 2379              	.LBB3926:
 2380              	.LBB3927:
 2381              	.LBB3928:
 2382              	.LBB3929:
 2383              	.LBB3930:
 2384              		.loc 7 288 0
 2385 023c 813F0140 		lwz 9,320(31)
 2386              	.LBE3930:
 2387              	.LBE3929:
 2388              	.LBE3928:
 2389              	.LBB3931:
 2390              	.LBB3932:
 2391              		.loc 7 235 0
 2392 0240 3D600000 		lis 11,_ZNSbIwSt11char_traitsIwESaIwEE4_Rep20_S_empty_rep_storageE@ha
 2393 0244 380B0000 		la 0,_ZNSbIwSt11char_traitsIwESaIwEE4_Rep20_S_empty_rep_storageE@l(11)
 2394              	.LBE3932:
 2395              	.LBE3931:
 2396              		.loc 7 534 0
 2397 0248 3869FFF4 		addi 3,9,-12
 2398              	.LVL175:
 2399              	.LBB3941:
 2400              	.LBB3939:
 2401              		.loc 7 235 0
 2402 024c 7F830000 		cmpw 7,3,0
 2403 0250 409E002C 		bne- 7,.L141
 2404              	.LVL176:
 2405              	.L136:
 2406              	.LBE3939:
 2407              	.LBE3941:
 2408              	.LBE3927:
 2409              	.LBE3926:
 2410              	.LBE3925:
 2411              		.loc 3 43 0
 2412 0254 7FE3FB78 		mr 3,31
 2413              	.LEHB13:
 2414 0258 48000001 		bl _ZN13PictureButtonD2Ev
 2415              	.LEHE13:
 2416              	.LBE3947:
 2417              	.LBE3950:
 2418              	.LBE3953:
 2419              		.loc 3 46 0
 2420 025c 7FE3FB78 		mr 3,31
 2421 0260 48000001 		bl _ZdlPv
 2422 0264 80010024 		lwz 0,36(1)
 2423 0268 83C10018 		lwz 30,24(1)
 2424 026c 7C0803A6 		mtlr 0
 2425 0270 83E1001C 		lwz 31,28(1)
 2426              	.LVL177:
 2427 0274 38210020 		addi 1,1,32
 2428              		.cfi_remember_state
 2429              	.LCFI48:
 2430              		.cfi_def_cfa_offset 0
 2431              		.cfi_restore 31
 2432              		.cfi_restore 30
 2433 0278 4E800020 		blr
 2434              	.LVL178:
 2435              	.L141:
 2436              	.LCFI49:
 2437              		.cfi_restore_state
 2438              	.LBB3954:
 2439              	.LBB3951:
 2440              	.LBB3948:
 2441              	.LBB3945:
 2442              	.LBB3944:
 2443              	.LBB3943:
 2444              	.LBB3942:
 2445              	.LBB3940:
 2446              	.LBB3933:
 2447              	.LBB3934:
 2448              	.LBB3935:
 2449              		.loc 8 66 0
 2450 027c 8169FFFC 		lwz 11,-4(9)
 2451              	.LVL179:
 2452              	.LBE3935:
 2453              	.LBE3934:
 2454              	.LBE3933:
 2455              		.loc 7 240 0
 2456 0280 2F8B0000 		cmpwi 7,11,0
 2457              	.LBB3938:
 2458              	.LBB3937:
 2459              	.LBB3936:
 2460              		.loc 8 67 0
 2461 0284 396BFFFF 		addi 11,11,-1
 2462 0288 9169FFFC 		stw 11,-4(9)
 2463              	.LBE3936:
 2464              	.LBE3937:
 2465              	.LBE3938:
 2466              		.loc 7 240 0
 2467 028c 419DFFC8 		bgt+ 7,.L136
 2468              		.loc 7 244 0
 2469 0290 38810008 		addi 4,1,8
 2470 0294 48000001 		bl _ZNSbIwSt11char_traitsIwESaIwEE4_Rep10_M_destroyERKS1_
 2471              	.LVL180:
 2472 0298 4BFFFFBC 		b .L136
 2473              	.LVL181:
 2474              	.L140:
 2475 029c 7C7E1B78 		mr 30,3
 2476              	.LBE3940:
 2477              	.LBE3942:
 2478              	.LBE3943:
 2479              	.LBE3944:
 2480              	.LBE3945:
 2481              		.loc 3 43 0
 2482 02a0 387F0140 		addi 3,31,320
 2483 02a4 48000001 		bl _ZNSbIwSt11char_traitsIwESaIwEED1Ev
 2484 02a8 7FE3FB78 		mr 3,31
 2485 02ac 48000001 		bl _ZN13PictureButtonD2Ev
 2486 02b0 7FC3F378 		mr 3,30
 2487              	.LEHB14:
 2488 02b4 48000001 		bl _Unwind_Resume
 2489              	.LEHE14:
 2490              	.LBE3948:
 2491              	.LBE3951:
 2492              	.LBE3954:
 2493              		.cfi_endproc
 2494              	.LFE1689:
 2495              		.section	.gcc_except_table
 2496              	.LLSDA1689:
 2497 0048 FF       		.byte	0xff
 2498 0049 FF       		.byte	0xff
 2499 004a 01       		.byte	0x1
 2500 004b 0E       		.uleb128 .LLSDACSE1689-.LLSDACSB1689
 2501              	.LLSDACSB1689:
 2502 004c 3C       		.uleb128 .LEHB12-.LFB1689
 2503 004d 04       		.uleb128 .LEHE12-.LEHB12
 2504 004e A001     		.uleb128 .L140-.LFB1689
 2505 0050 00       		.uleb128 0
 2506 0051 5C       		.uleb128 .LEHB13-.LFB1689
 2507 0052 04       		.uleb128 .LEHE13-.LEHB13
 2508 0053 00       		.uleb128 0
 2509 0054 00       		.uleb128 0
 2510 0055 B801     		.uleb128 .LEHB14-.LFB1689
 2511 0057 04       		.uleb128 .LEHE14-.LEHB14
 2512 0058 00       		.uleb128 0
 2513 0059 00       		.uleb128 0
 2514              	.LLSDACSE1689:
 2515              		.section	".text"
 2516              		.size	_ZN13cSearchButtonD0Ev, .-_ZN13cSearchButtonD0Ev
 2517              		.align 2
 2518              		.globl _ZN13cSearchButtonC2ESbIwSt11char_traitsIwESaIwEEPKcS5_iiP10GuiTriggerP8GuiSoundS9_
 2519              		.type	_ZN13cSearchButtonC2ESbIwSt11char_traitsIwESaIwEEPKcS5_iiP10GuiTriggerP8GuiSoundS9_, @functi
 2520              	_ZN13cSearchButtonC2ESbIwSt11char_traitsIwESaIwEEPKcS5_iiP10GuiTriggerP8GuiSoundS9_:
 2521              	.LFB1684:
 2522              		.loc 3 31 0
 2523              		.cfi_startproc
 2524              		.cfi_personality 0,__gxx_personality_v0
 2525              		.cfi_lsda 0,.LLSDA1684
 2526              	.LVL182:
 2527 02b8 9421FFD0 		stwu 1,-48(1)
 2528              	.LCFI50:
 2529              		.cfi_def_cfa_offset 48
 2530 02bc 7C0802A6 		mflr 0
 2531 02c0 9361001C 		stw 27,28(1)
 2532 02c4 7CFB3B78 		mr 27,7
 2533              		.cfi_offset 27, -20
 2534              		.cfi_register 65, 0
 2535              	.LBB3955:
 2536              		.loc 3 32 0
 2537 02c8 80E10038 		lwz 7,56(1)
 2538              	.LVL183:
 2539              	.LBE3955:
 2540              		.loc 3 31 0
 2541 02cc 93A10024 		stw 29,36(1)
 2542 02d0 7C9D2378 		mr 29,4
 2543              		.cfi_offset 29, -12
 2544              	.LBB3980:
 2545              		.loc 3 32 0
 2546 02d4 7CA42B78 		mr 4,5
 2547              	.LVL184:
 2548 02d8 7CC53378 		mr 5,6
 2549              	.LVL185:
 2550 02dc 7D465378 		mr 6,10
 2551              	.LVL186:
 2552              	.LBE3980:
 2553              		.loc 3 31 0
 2554 02e0 90010034 		stw 0,52(1)
 2555 02e4 93010010 		stw 24,16(1)
 2556 02e8 7D384B78 		mr 24,9
 2557              		.cfi_offset 24, -32
 2558              		.cfi_offset 65, 4
 2559 02ec 93810020 		stw 28,32(1)
 2560 02f0 7D1C4378 		mr 28,8
 2561              		.cfi_offset 28, -16
 2562 02f4 93C10028 		stw 30,40(1)
 2563 02f8 93E1002C 		stw 31,44(1)
 2564 02fc 7C7F1B78 		mr 31,3
 2565              		.cfi_offset 31, -4
 2566              		.cfi_offset 30, -8
 2567 0300 93210014 		stw 25,20(1)
 2568              	.LBB3981:
 2569              	.LBB3956:
 2570              	.LBB3957:
 2571              	.LBB3958:
 2572              		.loc 7 270 0
 2573 0304 7FFEFB78 		mr 30,31
 2574              	.LBE3958:
 2575              	.LBE3957:
 2576              	.LBE3956:
 2577              	.LBE3981:
 2578              		.loc 3 31 0
 2579 0308 93410018 		stw 26,24(1)
 2580              	.LEHB15:
 2581              	.LBB3982:
 2582              		.loc 3 32 0
 2583              		.cfi_offset 26, -24
 2584              		.cfi_offset 25, -28
 2585 030c 48000001 		bl _ZN13PictureButtonC2EPKcS1_P8GuiSoundS3_
 2586              	.LEHE15:
 2587              	.LVL187:
 2588 0310 3D200000 		lis 9,_ZTV13cSearchButton+8@ha
 2589              	.LBB3963:
 2590              	.LBB3964:
 2591              		.loc 7 542 0
 2592 0314 7FA4EB78 		mr 4,29
 2593              	.LBE3964:
 2594              	.LBE3963:
 2595              		.loc 3 32 0
 2596 0318 38090008 		la 0,_ZTV13cSearchButton+8@l(9)
 2597              	.LBB3966:
 2598              	.LBB3961:
 2599              	.LBB3959:
 2600              		.loc 7 270 0
 2601 031c 3D200000 		lis 9,_ZNSbIwSt11char_traitsIwESaIwEE4_Rep20_S_empty_rep_storageE+12@ha
 2602              	.LBE3959:
 2603              	.LBE3961:
 2604              	.LBE3966:
 2605              		.loc 3 32 0
 2606 0320 901F0000 		stw 0,0(31)
 2607              	.LVL188:
 2608              	.LBB3967:
 2609              	.LBB3962:
 2610              	.LBB3960:
 2611              		.loc 7 270 0
 2612 0324 3809000C 		la 0,_ZNSbIwSt11char_traitsIwESaIwEE4_Rep20_S_empty_rep_storageE+12@l(9)
 2613 0328 941E0140 		stwu 0,320(30)
 2614              	.LVL189:
 2615              	.LBE3960:
 2616              	.LBE3962:
 2617              	.LBE3967:
 2618              	.LBB3968:
 2619              	.LBB3965:
 2620              		.loc 7 542 0
 2621 032c 7FC3F378 		mr 3,30
 2622              	.LEHB16:
 2623 0330 48000001 		bl _ZNSbIwSt11char_traitsIwESaIwEE6assignERKS2_
 2624              	.LVL190:
 2625              	.LBE3965:
 2626              	.LBE3968:
 2627              		.loc 3 37 0
 2628 0334 3C600000 		lis 3,.LC6@ha
 2629              	.LBB3969:
 2630              	.LBB3970:
 2631              	.LBB3971:
 2632              		.loc 7 288 0
 2633 0338 835D0000 		lwz 26,0(29)
 2634              	.LBE3971:
 2635              	.LBE3970:
 2636              	.LBE3969:
 2637              		.loc 3 37 0
 2638 033c 3863002C 		la 3,.LC6@l(3)
 2639 0340 48000001 		bl getThemeColor
 2640 0344 7C791B78 		mr 25,3
 2641 0348 386000D0 		li 3,208
 2642 034c 48000001 		bl _Znwj
 2643              	.LEHE16:
 2644              		.loc 3 35 0 discriminator 2
 2645 0350 7C260B78 		mr 6,1
 2646 0354 7F44D378 		mr 4,26
 2647 0358 97260008 		stwu 25,8(6)
 2648 035c 38A00014 		li 5,20
 2649              		.loc 3 37 0 discriminator 2
 2650 0360 7C7D1B78 		mr 29,3
 2651              	.LVL191:
 2652              	.LEHB17:
 2653              		.loc 3 35 0 discriminator 2
 2654 0364 48000001 		bl _ZN7GuiTextC1EPKwi9_gx_color
 2655              	.LEHE17:
 2656              	.LBB3972:
 2657              	.LBB3973:
 2658              		.loc 2 316 0
 2659 0368 38000011 		li 0,17
 2660              	.LBE3973:
 2661              	.LBE3972:
 2662              		.loc 3 37 0
 2663 036c 93BF0144 		stw 29,324(31)
 2664              	.LVL192:
 2665              	.LBB3975:
 2666              	.LBB3974:
 2667              		.loc 2 316 0
 2668 0370 901F0044 		stw 0,68(31)
 2669              	.LVL193:
 2670              	.LBE3974:
 2671              	.LBE3975:
 2672              		.loc 3 39 0
 2673 0374 7FE3FB78 		mr 3,31
 2674              	.LBB3976:
 2675              	.LBB3977:
 2676              		.loc 2 297 0
 2677 0378 937F002C 		stw 27,44(31)
 2678              	.LBE3977:
 2679              	.LBE3976:
 2680              		.loc 3 39 0
 2681 037c 7FA4EB78 		mr 4,29
 2682              	.LBB3979:
 2683              	.LBB3978:
 2684              		.loc 2 298 0
 2685 0380 939F0030 		stw 28,48(31)
 2686              	.LBE3978:
 2687              	.LBE3979:
 2688              		.loc 3 39 0
 2689 0384 38A00000 		li 5,0
 2690              	.LEHB18:
 2691 0388 48000001 		bl _ZN9GuiButton8SetLabelEP7GuiTexti
 2692              		.loc 3 40 0
 2693 038c 7FE3FB78 		mr 3,31
 2694 0390 7F04C378 		mr 4,24
 2695 0394 48000001 		bl _ZN9GuiButton10SetTriggerEP10GuiTrigger
 2696              	.LEHE18:
 2697              	.LBE3982:
 2698              		.loc 3 41 0
 2699 0398 80010034 		lwz 0,52(1)
 2700 039c 83010010 		lwz 24,16(1)
 2701              	.LVL194:
 2702 03a0 7C0803A6 		mtlr 0
 2703 03a4 83210014 		lwz 25,20(1)
 2704 03a8 83410018 		lwz 26,24(1)
 2705 03ac 8361001C 		lwz 27,28(1)
 2706              	.LVL195:
 2707 03b0 83810020 		lwz 28,32(1)
 2708              	.LVL196:
 2709 03b4 83A10024 		lwz 29,36(1)
 2710 03b8 83C10028 		lwz 30,40(1)
 2711 03bc 83E1002C 		lwz 31,44(1)
 2712              	.LVL197:
 2713 03c0 38210030 		addi 1,1,48
 2714              		.cfi_remember_state
 2715              	.LCFI51:
 2716              		.cfi_def_cfa_offset 0
 2717              		.cfi_restore 31
 2718              		.cfi_restore 30
 2719              		.cfi_restore 29
 2720              		.cfi_restore 28
 2721              		.cfi_restore 27
 2722              		.cfi_restore 26
 2723              		.cfi_restore 25
 2724              		.cfi_restore 24
 2725 03c4 4E800020 		blr
 2726              	.LVL198:
 2727              	.L147:
 2728              	.LCFI52:
 2729              		.cfi_restore_state
 2730 03c8 7C7D1B78 		mr 29,3
 2731              	.LVL199:
 2732              	.L146:
 2733              	.LBB3983:
 2734              		.loc 3 32 0
 2735 03cc 7FC3F378 		mr 3,30
 2736 03d0 48000001 		bl _ZNSbIwSt11char_traitsIwESaIwEED1Ev
 2737 03d4 7FE3FB78 		mr 3,31
 2738 03d8 48000001 		bl _ZN13PictureButtonD2Ev
 2739 03dc 7FA3EB78 		mr 3,29
 2740              	.LEHB19:
 2741 03e0 48000001 		bl _Unwind_Resume
 2742              	.LEHE19:
 2743              	.LVL200:
 2744              	.L148:
 2745 03e4 7C7C1B78 		mr 28,3
 2746              	.LVL201:
 2747              		.loc 3 35 0
 2748 03e8 7FA3EB78 		mr 3,29
 2749 03ec 48000001 		bl _ZdlPv
 2750 03f0 7F9DE378 		mr 29,28
 2751 03f4 4BFFFFD8 		b .L146
 2752              	.LBE3983:
 2753              		.cfi_endproc
 2754              	.LFE1684:
 2755              		.section	.gcc_except_table
 2756              	.LLSDA1684:
 2757 005a FF       		.byte	0xff
 2758 005b FF       		.byte	0xff
 2759 005c 01       		.byte	0x1
 2760 005d 1A       		.uleb128 .LLSDACSE1684-.LLSDACSB1684
 2761              	.LLSDACSB1684:
 2762 005e 54       		.uleb128 .LEHB15-.LFB1684
 2763 005f 04       		.uleb128 .LEHE15-.LEHB15
 2764 0060 00       		.uleb128 0
 2765 0061 00       		.uleb128 0
 2766 0062 78       		.uleb128 .LEHB16-.LFB1684
 2767 0063 20       		.uleb128 .LEHE16-.LEHB16
 2768 0064 9002     		.uleb128 .L147-.LFB1684
 2769 0066 00       		.uleb128 0
 2770 0067 AC01     		.uleb128 .LEHB17-.LFB1684
 2771 0069 04       		.uleb128 .LEHE17-.LEHB17
 2772 006a AC02     		.uleb128 .L148-.LFB1684
 2773 006c 00       		.uleb128 0
 2774 006d D001     		.uleb128 .LEHB18-.LFB1684
 2775 006f 10       		.uleb128 .LEHE18-.LEHB18
 2776 0070 9002     		.uleb128 .L147-.LFB1684
 2777 0072 00       		.uleb128 0
 2778 0073 A802     		.uleb128 .LEHB19-.LFB1684
 2779 0075 04       		.uleb128 .LEHE19-.LEHB19
 2780 0076 00       		.uleb128 0
 2781 0077 00       		.uleb128 0
 2782              	.LLSDACSE1684:
 2783              		.section	".text"
 2784              		.size	_ZN13cSearchButtonC2ESbIwSt11char_traitsIwESaIwEEPKcS5_iiP10GuiTriggerP8GuiSoundS9_, .-_ZN13
 2785              		.align 2
 2786              		.globl _ZN12SearchWindow10AddNewCharEi
 2787              		.type	_ZN12SearchWindow10AddNewCharEi, @function
 2788              	_ZN12SearchWindow10AddNewCharEi:
 2789              	.LFB1711:
 2790              		.loc 3 296 0
 2791              		.cfi_startproc
 2792              		.cfi_personality 0,__gxx_personality_v0
 2793              		.cfi_lsda 0,.LLSDA1711
 2794              	.LVL202:
 2795 03f8 7C0802A6 		mflr 0
 2796 03fc 9421FFD8 		stwu 1,-40(1)
 2797              	.LCFI53:
 2798              		.cfi_def_cfa_offset 40
 2799              		.cfi_register 65, 0
 2800              		.loc 3 297 0
 2801 0400 5484103A 		slwi 4,4,2
 2802              	.LVL203:
 2803              		.loc 3 296 0
 2804 0404 93A1001C 		stw 29,28(1)
 2805              		.loc 3 297 0
 2806 0408 3BA300E8 		addi 29,3,232
 2807              		.cfi_offset 29, -12
 2808              		.loc 3 296 0
 2809 040c 9001002C 		stw 0,44(1)
 2810 0410 93C10020 		stw 30,32(1)
 2811              	.LBB4067:
 2812              	.LBB4068:
 2813              		.file 9 "d:/Projects/SaveGameManager/savegame-manager-gx/trunk/source/Prompts/../Menu/MainMenu.h"
 2814              		.loc 9 47 0
 2815 0414 3FC00000 		lis 30,_ZN8MainMenu8instanceE@ha
 2816              		.cfi_offset 30, -8
 2817              		.cfi_offset 65, 4
 2818              	.LBE4068:
 2819              	.LBE4067:
 2820              		.loc 3 297 0
 2821 0418 81230124 		lwz 9,292(3)
 2822              	.LBB4071:
 2823              	.LBB4072:
 2824              		.loc 7 925 0
 2825 041c 7FA3EB78 		mr 3,29
 2826              	.LVL204:
 2827              	.LBE4072:
 2828              	.LBE4071:
 2829              		.loc 3 296 0
 2830 0420 93E10024 		stw 31,36(1)
 2831              		.loc 3 297 0
 2832 0424 7C89202E 		lwzx 4,9,4
 2833              	.LVL205:
 2834              	.LBB4074:
 2835              	.LBB4073:
 2836              		.loc 7 925 0
 2837 0428 38840140 		addi 4,4,320
 2838              	.LEHB20:
 2839              		.cfi_offset 31, -4
 2840 042c 48000001 		bl _ZNSbIwSt11char_traitsIwESaIwEE6appendERKS2_
 2841              	.LBE4073:
 2842              	.LBE4074:
 2843              	.LBB4075:
 2844              	.LBB4069:
 2845              		.loc 9 47 0
 2846 0430 83FE0000 		lwz 31,_ZN8MainMenu8instanceE@l(30)
 2847 0434 2F9F0000 		cmpwi 7,31,0
 2848 0438 419E00A8 		beq- 7,.L186
 2849              	.L151:
 2850              	.LBE4069:
 2851              	.LBE4075:
 2852              		.loc 3 299 0
 2853 043c 38610014 		addi 3,1,20
 2854 0440 7FA4EB78 		mr 4,29
 2855 0444 48000001 		bl _ZN7wStringC1ERKSbIwSt11char_traitsIwESaIwEE
 2856              	.LEHE20:
 2857              	.LBB4076:
 2858              	.LBB4077:
 2859              		.loc 9 59 0
 2860 0448 3861000C 		addi 3,1,12
 2861 044c 38810014 		addi 4,1,20
 2862              	.LBE4077:
 2863              	.LBE4076:
 2864              		.loc 3 312 0
 2865 0450 83FF00EC 		lwz 31,236(31)
 2866              	.LVL206:
 2867              	.LEHB21:
 2868              	.LBB4130:
 2869              	.LBB4126:
 2870              		.loc 9 59 0
 2871 0454 48000001 		bl _ZNSbIwSt11char_traitsIwESaIwEEC1ERKS2_
 2872              	.LEHE21:
 2873              	.LVL207:
 2874              	.LBB4078:
 2875              	.LBB4079:
 2876              		.file 10 "d:/Projects/SaveGameManager/savegame-manager-gx/trunk/source/Prompts/../Menu/Explorer.h"
 2877              		.loc 10 35 0
 2878 0458 38610010 		addi 3,1,16
 2879 045c 3881000C 		addi 4,1,12
 2880              	.LBE4079:
 2881              	.LBE4078:
 2882              	.LBE4126:
 2883              		.loc 3 312 0
 2884 0460 83FF00CC 		lwz 31,204(31)
 2885              	.LVL208:
 2886              	.LEHB22:
 2887              	.LBB4127:
 2888              	.LBB4104:
 2889              	.LBB4101:
 2890              		.loc 10 35 0
 2891 0464 48000001 		bl _ZNSbIwSt11char_traitsIwESaIwEEC1ERKS2_
 2892              	.LEHE22:
 2893              	.LVL209:
 2894 0468 7FE3FB78 		mr 3,31
 2895 046c 38810010 		addi 4,1,16
 2896 0470 38A00000 		li 5,0
 2897              	.LEHB23:
 2898 0474 48000001 		bl _ZN11FileBrowser10FilterListESbIwSt11char_traitsIwESaIwEEb
 2899              	.LEHE23:
 2900              	.LVL210:
 2901              	.LBB4080:
 2902              	.LBB4081:
 2903              	.LBB4082:
 2904              	.LBB4083:
 2905              	.LBB4084:
 2906              	.LBB4085:
 2907              		.loc 7 288 0
 2908 0478 81210010 		lwz 9,16(1)
 2909              	.LBE4085:
 2910              	.LBE4084:
 2911              	.LBE4083:
 2912              	.LBB4086:
 2913              	.LBB4087:
 2914              		.loc 7 235 0
 2915 047c 3FE00000 		lis 31,_ZNSbIwSt11char_traitsIwESaIwEE4_Rep20_S_empty_rep_storageE@ha
 2916 0480 3BFF0000 		la 31,_ZNSbIwSt11char_traitsIwESaIwEE4_Rep20_S_empty_rep_storageE@l(31)
 2917              	.LBE4087:
 2918              	.LBE4086:
 2919              		.loc 7 534 0
 2920 0484 3869FFF4 		addi 3,9,-12
 2921              	.LVL211:
 2922              	.LBB4096:
 2923              	.LBB4094:
 2924              		.loc 7 235 0
 2925 0488 7F83F800 		cmpw 7,3,31
 2926 048c 409E00E4 		bne- 7,.L187
 2927              	.LVL212:
 2928              	.L159:
 2929              	.LBE4094:
 2930              	.LBE4096:
 2931              	.LBE4082:
 2932              	.LBE4081:
 2933              	.LBE4080:
 2934              	.LBE4101:
 2935              	.LBE4104:
 2936              	.LBB4105:
 2937              	.LBB4106:
 2938              	.LBB4107:
 2939              	.LBB4108:
 2940              	.LBB4109:
 2941              	.LBB4110:
 2942              		.loc 7 288 0
 2943 0490 8121000C 		lwz 9,12(1)
 2944              	.LBE4110:
 2945              	.LBE4109:
 2946              	.LBE4108:
 2947              		.loc 7 534 0
 2948 0494 3869FFF4 		addi 3,9,-12
 2949              	.LVL213:
 2950              	.LBB4111:
 2951              	.LBB4112:
 2952              		.loc 7 235 0
 2953 0498 7F83F800 		cmpw 7,3,31
 2954 049c 409E00B4 		bne- 7,.L188
 2955              	.LVL214:
 2956              	.L168:
 2957              	.LBE4112:
 2958              	.LBE4111:
 2959              	.LBE4107:
 2960              	.LBE4106:
 2961              	.LBE4105:
 2962              	.LBE4127:
 2963              	.LBE4130:
 2964              	.LBB4131:
 2965              	.LBB4132:
 2966              	.LBB4133:
 2967              	.LBB4134:
 2968              	.LBB4135:
 2969              	.LBB4136:
 2970              	.LBB4137:
 2971              	.LBB4138:
 2972              		.loc 7 288 0
 2973 04a0 81210014 		lwz 9,20(1)
 2974              	.LBE4138:
 2975              	.LBE4137:
 2976              	.LBE4136:
 2977              		.loc 7 534 0
 2978 04a4 3869FFF4 		addi 3,9,-12
 2979              	.LVL215:
 2980              	.LBB4139:
 2981              	.LBB4140:
 2982              		.loc 7 235 0
 2983 04a8 7F83F800 		cmpw 7,3,31
 2984 04ac 409E0084 		bne- 7,.L189
 2985              	.LVL216:
 2986              	.L175:
 2987              	.LBE4140:
 2988              	.LBE4139:
 2989              	.LBE4135:
 2990              	.LBE4134:
 2991              	.LBE4133:
 2992              	.LBE4132:
 2993              	.LBE4131:
 2994              	.LBB4153:
 2995              	.LBB4154:
 2996              		.loc 9 47 0
 2997 04b0 83FE0000 		lwz 31,_ZN8MainMenu8instanceE@l(30)
 2998 04b4 2F9F0000 		cmpwi 7,31,0
 2999 04b8 419E0040 		beq- 7,.L190
 3000              	.LVL217:
 3001              	.LBE4154:
 3002              	.LBE4153:
 3003              	.LBB4158:
 3004              	.LBB4159:
 3005              		.loc 9 61 0
 3006 04bc 38000001 		li 0,1
 3007              	.LBE4159:
 3008              	.LBE4158:
 3009              		.loc 3 301 0
 3010 04c0 83A1001C 		lwz 29,28(1)
 3011              	.LVL218:
 3012              	.LBB4163:
 3013              	.LBB4160:
 3014              		.loc 9 61 0
 3015 04c4 981F00E5 		stb 0,229(31)
 3016              	.LBE4160:
 3017              	.LBE4163:
 3018              		.loc 3 301 0
 3019 04c8 8001002C 		lwz 0,44(1)
 3020 04cc 83C10020 		lwz 30,32(1)
 3021 04d0 7C0803A6 		mtlr 0
 3022 04d4 83E10024 		lwz 31,36(1)
 3023 04d8 38210028 		addi 1,1,40
 3024              		.cfi_remember_state
 3025              	.LCFI54:
 3026              		.cfi_def_cfa_offset 0
 3027              		.cfi_restore 31
 3028              		.cfi_restore 30
 3029              		.cfi_restore 29
 3030 04dc 4E800020 		blr
 3031              	.LVL219:
 3032              	.L186:
 3033              	.LCFI55:
 3034              		.cfi_restore_state
 3035              	.LBB4164:
 3036              	.LBB4070:
 3037              		.loc 9 47 0
 3038 04e0 386002A8 		li 3,680
 3039              	.LEHB24:
 3040 04e4 48000001 		bl _Znwj
 3041              	.LEHE24:
 3042 04e8 7C7F1B78 		mr 31,3
 3043              	.LEHB25:
 3044 04ec 48000001 		bl _ZN8MainMenuC1Ev
 3045              	.LEHE25:
 3046 04f0 93FE0000 		stw 31,_ZN8MainMenu8instanceE@l(30)
 3047 04f4 4BFFFF48 		b .L151
 3048              	.LVL220:
 3049              	.L190:
 3050              	.LBE4070:
 3051              	.LBE4164:
 3052              	.LBB4165:
 3053              	.LBB4155:
 3054 04f8 386002A8 		li 3,680
 3055              	.LEHB26:
 3056 04fc 48000001 		bl _Znwj
 3057              	.LEHE26:
 3058 0500 7C7F1B78 		mr 31,3
 3059              	.LEHB27:
 3060 0504 48000001 		bl _ZN8MainMenuC1Ev
 3061              	.LEHE27:
 3062              	.LBE4155:
 3063              	.LBE4165:
 3064              	.LBB4166:
 3065              	.LBB4161:
 3066              		.loc 9 61 0
 3067 0508 38000001 		li 0,1
 3068              	.LBE4161:
 3069              	.LBE4166:
 3070              	.LBB4167:
 3071              	.LBB4156:
 3072              		.loc 9 47 0
 3073 050c 93FE0000 		stw 31,_ZN8MainMenu8instanceE@l(30)
 3074              	.LVL221:
 3075              	.LBE4156:
 3076              	.LBE4167:
 3077              	.LBB4168:
 3078              	.LBB4162:
 3079              		.loc 9 61 0
 3080 0510 981F00E5 		stb 0,229(31)
 3081              	.LBE4162:
 3082              	.LBE4168:
 3083              		.loc 3 301 0
 3084 0514 8001002C 		lwz 0,44(1)
 3085 0518 83A1001C 		lwz 29,28(1)
 3086              	.LVL222:
 3087 051c 7C0803A6 		mtlr 0
 3088 0520 83C10020 		lwz 30,32(1)
 3089 0524 83E10024 		lwz 31,36(1)
 3090 0528 38210028 		addi 1,1,40
 3091              		.cfi_remember_state
 3092              		.cfi_restore 29
 3093              		.cfi_restore 30
 3094              		.cfi_restore 31
 3095              	.LCFI56:
 3096              		.cfi_def_cfa_offset 0
 3097 052c 4E800020 		blr
 3098              	.LVL223:
 3099              	.L189:
 3100              	.LCFI57:
 3101              		.cfi_restore_state
 3102              	.LBB4169:
 3103              	.LBB4152:
 3104              	.LBB4151:
 3105              	.LBB4150:
 3106              	.LBB4149:
 3107              	.LBB4148:
 3108              	.LBB4147:
 3109              	.LBB4141:
 3110              	.LBB4142:
 3111              	.LBB4143:
 3112              		.loc 8 66 0
 3113 0530 8169FFFC 		lwz 11,-4(9)
 3114              	.LVL224:
 3115              	.LBE4143:
 3116              	.LBE4142:
 3117              	.LBE4141:
 3118              		.loc 7 240 0
 3119 0534 2F8B0000 		cmpwi 7,11,0
 3120              	.LBB4146:
 3121              	.LBB4145:
 3122              	.LBB4144:
 3123              		.loc 8 67 0
 3124 0538 396BFFFF 		addi 11,11,-1
 3125 053c 9169FFFC 		stw 11,-4(9)
 3126              	.LBE4144:
 3127              	.LBE4145:
 3128              	.LBE4146:
 3129              		.loc 7 240 0
 3130 0540 419DFF70 		bgt+ 7,.L175
 3131              		.loc 7 244 0
 3132 0544 38810008 		addi 4,1,8
 3133 0548 48000001 		bl _ZNSbIwSt11char_traitsIwESaIwEE4_Rep10_M_destroyERKS1_
 3134              	.LVL225:
 3135 054c 4BFFFF64 		b .L175
 3136              	.LVL226:
 3137              	.L188:
 3138              	.LBE4147:
 3139              	.LBE4148:
 3140              	.LBE4149:
 3141              	.LBE4150:
 3142              	.LBE4151:
 3143              	.LBE4152:
 3144              	.LBE4169:
 3145              	.LBB4170:
 3146              	.LBB4128:
 3147              	.LBB4123:
 3148              	.LBB4122:
 3149              	.LBB4121:
 3150              	.LBB4120:
 3151              	.LBB4119:
 3152              	.LBB4113:
 3153              	.LBB4114:
 3154              	.LBB4115:
 3155              		.loc 8 66 0
 3156 0550 8169FFFC 		lwz 11,-4(9)
 3157              	.LVL227:
 3158              	.LBE4115:
 3159              	.LBE4114:
 3160              	.LBE4113:
 3161              		.loc 7 240 0
 3162 0554 2F8B0000 		cmpwi 7,11,0
 3163              	.LBB4118:
 3164              	.LBB4117:
 3165              	.LBB4116:
 3166              		.loc 8 67 0
 3167 0558 396BFFFF 		addi 11,11,-1
 3168 055c 9169FFFC 		stw 11,-4(9)
 3169              	.LBE4116:
 3170              	.LBE4117:
 3171              	.LBE4118:
 3172              		.loc 7 240 0
 3173 0560 419DFF40 		bgt+ 7,.L168
 3174              		.loc 7 244 0
 3175 0564 38810009 		addi 4,1,9
 3176 0568 48000001 		bl _ZNSbIwSt11char_traitsIwESaIwEE4_Rep10_M_destroyERKS1_
 3177              	.LVL228:
 3178 056c 4BFFFF34 		b .L168
 3179              	.LVL229:
 3180              	.L187:
 3181              	.LBE4119:
 3182              	.LBE4120:
 3183              	.LBE4121:
 3184              	.LBE4122:
 3185              	.LBE4123:
 3186              	.LBB4124:
 3187              	.LBB4102:
 3188              	.LBB4100:
 3189              	.LBB4099:
 3190              	.LBB4098:
 3191              	.LBB4097:
 3192              	.LBB4095:
 3193              	.LBB4088:
 3194              	.LBB4089:
 3195              	.LBB4090:
 3196              		.loc 8 66 0
 3197 0570 8169FFFC 		lwz 11,-4(9)
 3198              	.LVL230:
 3199              	.LBE4090:
 3200              	.LBE4089:
 3201              	.LBE4088:
 3202              		.loc 7 240 0
 3203 0574 2F8B0000 		cmpwi 7,11,0
 3204              	.LBB4093:
 3205              	.LBB4092:
 3206              	.LBB4091:
 3207              		.loc 8 67 0
 3208 0578 396BFFFF 		addi 11,11,-1
 3209 057c 9169FFFC 		stw 11,-4(9)
 3210              	.LBE4091:
 3211              	.LBE4092:
 3212              	.LBE4093:
 3213              		.loc 7 240 0
 3214 0580 419DFF10 		bgt+ 7,.L159
 3215              		.loc 7 244 0
 3216 0584 3881000A 		addi 4,1,10
 3217 0588 48000001 		bl _ZNSbIwSt11char_traitsIwESaIwEE4_Rep10_M_destroyERKS1_
 3218              	.LVL231:
 3219 058c 4BFFFF04 		b .L159
 3220              	.LVL232:
 3221              	.L183:
 3222              	.L185:
 3223 0590 7C7E1B78 		mr 30,3
 3224              	.LBE4095:
 3225              	.LBE4097:
 3226              	.LBE4098:
 3227              	.LBE4099:
 3228              	.LBE4100:
 3229              	.LBE4102:
 3230              	.LBE4124:
 3231              	.LBE4128:
 3232              	.LBE4170:
 3233              	.LBB4171:
 3234              	.LBB4157:
 3235              		.loc 9 47 0
 3236 0594 7FE3FB78 		mr 3,31
 3237 0598 48000001 		bl _ZdlPv
 3238 059c 7FC3F378 		mr 3,30
 3239              	.LEHB28:
 3240 05a0 48000001 		bl _Unwind_Resume
 3241              	.L180:
 3242 05a4 4BFFFFEC 		b .L185
 3243              	.LVL233:
 3244              	.L182:
 3245 05a8 7C7F1B78 		mr 31,3
 3246              	.LBE4157:
 3247              	.LBE4171:
 3248              	.LBB4172:
 3249              	.LBB4129:
 3250              	.LBB4125:
 3251              	.LBB4103:
 3252              		.loc 10 35 0
 3253 05ac 38610010 		addi 3,1,16
 3254 05b0 48000001 		bl _ZNSbIwSt11char_traitsIwESaIwEED1Ev
 3255              	.L162:
 3256              	.LBE4103:
 3257              	.LBE4125:
 3258              		.loc 9 59 0
 3259 05b4 3861000C 		addi 3,1,12
 3260              	.LVL234:
 3261 05b8 48000001 		bl _ZNSbIwSt11char_traitsIwESaIwEED1Ev
 3262              	.LVL235:
 3263              	.L163:
 3264              	.LBE4129:
 3265              	.LBE4172:
 3266              	.LBB4173:
 3267              	.LBB4174:
 3268              	.LBB4175:
 3269              		.file 11 "d:/Projects/SaveGameManager/savegame-manager-gx/trunk/source/Prompts/../Menu/../Files/..
 3270              		.loc 11 10 0
 3271 05bc 38610014 		addi 3,1,20
 3272              	.LVL236:
 3273 05c0 48000001 		bl _ZNSbIwSt11char_traitsIwESaIwEED2Ev
 3274              	.LVL237:
 3275 05c4 7FE3FB78 		mr 3,31
 3276 05c8 48000001 		bl _Unwind_Resume
 3277              	.LEHE28:
 3278              	.LVL238:
 3279              	.L181:
 3280 05cc 7C7F1B78 		mr 31,3
 3281 05d0 4BFFFFE4 		b .L162
 3282              	.LVL239:
 3283              	.L179:
 3284 05d4 7C7F1B78 		mr 31,3
 3285 05d8 4BFFFFE4 		b .L163
 3286              	.LBE4175:
 3287              	.LBE4174:
 3288              	.LBE4173:
 3289              		.cfi_endproc
 3290              	.LFE1711:
 3291              		.section	.gcc_except_table
 3292              	.LLSDA1711:
 3293 0078 FF       		.byte	0xff
 3294 0079 FF       		.byte	0xff
 3295 007a 01       		.byte	0x1
 3296 007b 2E       		.uleb128 .LLSDACSE1711-.LLSDACSB1711
 3297              	.LLSDACSB1711:
 3298 007c 34       		.uleb128 .LEHB20-.LFB1711
 3299 007d 1C       		.uleb128 .LEHE20-.LEHB20
 3300 007e 00       		.uleb128 0
 3301 007f 00       		.uleb128 0
 3302 0080 5C       		.uleb128 .LEHB21-.LFB1711
 3303 0081 04       		.uleb128 .LEHE21-.LEHB21
 3304 0082 DC03     		.uleb128 .L179-.LFB1711
 3305 0084 00       		.uleb128 0
 3306 0085 6C       		.uleb128 .LEHB22-.LFB1711
 3307 0086 04       		.uleb128 .LEHE22-.LEHB22
 3308 0087 D403     		.uleb128 .L181-.LFB1711
 3309 0089 00       		.uleb128 0
 3310 008a 7C       		.uleb128 .LEHB23-.LFB1711
 3311 008b 04       		.uleb128 .LEHE23-.LEHB23
 3312 008c B003     		.uleb128 .L182-.LFB1711
 3313 008e 00       		.uleb128 0
 3314 008f EC01     		.uleb128 .LEHB24-.LFB1711
 3315 0091 04       		.uleb128 .LEHE24-.LEHB24
 3316 0092 00       		.uleb128 0
 3317 0093 00       		.uleb128 0
 3318 0094 F401     		.uleb128 .LEHB25-.LFB1711
 3319 0096 04       		.uleb128 .LEHE25-.LEHB25
 3320 0097 AC03     		.uleb128 .L180-.LFB1711
 3321 0099 00       		.uleb128 0
 3322 009a 8402     		.uleb128 .LEHB26-.LFB1711
 3323 009c 04       		.uleb128 .LEHE26-.LEHB26
 3324 009d 00       		.uleb128 0
 3325 009e 00       		.uleb128 0
 3326 009f 8C02     		.uleb128 .LEHB27-.LFB1711
 3327 00a1 04       		.uleb128 .LEHE27-.LEHB27
 3328 00a2 9803     		.uleb128 .L183-.LFB1711
 3329 00a4 00       		.uleb128 0
 3330 00a5 A803     		.uleb128 .LEHB28-.LFB1711
 3331 00a7 2C       		.uleb128 .LEHE28-.LEHB28
 3332 00a8 00       		.uleb128 0
 3333 00a9 00       		.uleb128 0
 3334              	.LLSDACSE1711:
 3335              		.section	".text"
 3336              		.size	_ZN12SearchWindow10AddNewCharEi, .-_ZN12SearchWindow10AddNewCharEi
 3337              		.align 2
 3338              		.globl _ZN12SearchWindow14RemoveLastCharEv
 3339              		.type	_ZN12SearchWindow14RemoveLastCharEv, @function
 3340              	_ZN12SearchWindow14RemoveLastCharEv:
 3341              	.LFB1712:
 3342              		.loc 3 304 0
 3343              		.cfi_startproc
 3344              		.cfi_personality 0,__gxx_personality_v0
 3345              		.cfi_lsda 0,.LLSDA1712
 3346              	.LVL240:
 3347 05dc 7C0802A6 		mflr 0
 3348 05e0 9421FFD8 		stwu 1,-40(1)
 3349              	.LCFI58:
 3350              		.cfi_def_cfa_offset 40
 3351              		.cfi_register 65, 0
 3352 05e4 93E10024 		stw 31,36(1)
 3353 05e8 7C7F1B78 		mr 31,3
 3354              		.cfi_offset 31, -4
 3355              	.LVL241:
 3356 05ec 9001002C 		stw 0,44(1)
 3357 05f0 93A1001C 		stw 29,28(1)
 3358              	.LBB4303:
 3359              	.LBB4304:
 3360              	.LBB4305:
 3361              	.LBB4306:
 3362              	.LBB4307:
 3363              		.loc 7 288 0
 3364 05f4 812300E8 		lwz 9,232(3)
 3365              	.LBE4307:
 3366              	.LBE4306:
 3367              	.LBE4305:
 3368              	.LBE4304:
 3369              	.LBE4303:
 3370              		.loc 3 304 0
 3371 05f8 93C10020 		stw 30,32(1)
 3372              	.LBB4309:
 3373              	.LBB4308:
 3374              		.loc 7 711 0
 3375 05fc 8089FFF4 		lwz 4,-12(9)
 3376              	.LBE4308:
 3377              	.LBE4309:
 3378              		.loc 3 305 0
 3379 0600 2F840000 		cmpwi 7,4,0
 3380 0604 409E00E4 		bne- 7,.L229
 3381              		.cfi_offset 30, -8
 3382              		.cfi_offset 29, -12
 3383              		.cfi_offset 65, 4
 3384              	.LVL242:
 3385              	.LBB4310:
 3386              	.LBB4311:
 3387              		.loc 9 47 0
 3388 0608 3FA00000 		lis 29,_ZN8MainMenu8instanceE@ha
 3389 060c 83DD0000 		lwz 30,_ZN8MainMenu8instanceE@l(29)
 3390 0610 2F9E0000 		cmpwi 7,30,0
 3391 0614 419E012C 		beq- 7,.L230
 3392              	.LVL243:
 3393              	.L194:
 3394              	.LBE4311:
 3395              	.LBE4310:
 3396              		.loc 3 308 0
 3397 0618 38610014 		addi 3,1,20
 3398 061c 389F00E8 		addi 4,31,232
 3399              	.LEHB29:
 3400 0620 48000001 		bl _ZN7wStringC1ERKSbIwSt11char_traitsIwESaIwEE
 3401              	.LEHE29:
 3402              	.LBB4317:
 3403              	.LBB4318:
 3404              		.loc 9 59 0
 3405 0624 3861000C 		addi 3,1,12
 3406 0628 38810014 		addi 4,1,20
 3407              	.LBE4318:
 3408              	.LBE4317:
 3409              		.loc 3 312 0
 3410 062c 83DE00EC 		lwz 30,236(30)
 3411              	.LVL244:
 3412              	.LEHB30:
 3413              	.LBB4371:
 3414              	.LBB4367:
 3415              		.loc 9 59 0
 3416 0630 48000001 		bl _ZNSbIwSt11char_traitsIwESaIwEEC1ERKS2_
 3417              	.LEHE30:
 3418              	.LVL245:
 3419              	.LBB4319:
 3420              	.LBB4320:
 3421              		.loc 10 35 0
 3422 0634 38610010 		addi 3,1,16
 3423 0638 3881000C 		addi 4,1,12
 3424              	.LBE4320:
 3425              	.LBE4319:
 3426              	.LBE4367:
 3427              		.loc 3 312 0
 3428 063c 83DE00CC 		lwz 30,204(30)
 3429              	.LVL246:
 3430              	.LEHB31:
 3431              	.LBB4368:
 3432              	.LBB4345:
 3433              	.LBB4342:
 3434              		.loc 10 35 0
 3435 0640 48000001 		bl _ZNSbIwSt11char_traitsIwESaIwEEC1ERKS2_
 3436              	.LEHE31:
 3437              	.LVL247:
 3438 0644 7FC3F378 		mr 3,30
 3439 0648 38810010 		addi 4,1,16
 3440 064c 38A00001 		li 5,1
 3441              	.LEHB32:
 3442 0650 48000001 		bl _ZN11FileBrowser10FilterListESbIwSt11char_traitsIwESaIwEEb
 3443              	.LEHE32:
 3444              	.LVL248:
 3445              	.LBB4321:
 3446              	.LBB4322:
 3447              	.LBB4323:
 3448              	.LBB4324:
 3449              	.LBB4325:
 3450              	.LBB4326:
 3451              		.loc 7 288 0
 3452 0654 81210010 		lwz 9,16(1)
 3453              	.LBE4326:
 3454              	.LBE4325:
 3455              	.LBE4324:
 3456              	.LBB4327:
 3457              	.LBB4328:
 3458              		.loc 7 235 0
 3459 0658 3FC00000 		lis 30,_ZNSbIwSt11char_traitsIwESaIwEE4_Rep20_S_empty_rep_storageE@ha
 3460 065c 3BDE0000 		la 30,_ZNSbIwSt11char_traitsIwESaIwEE4_Rep20_S_empty_rep_storageE@l(30)
 3461              	.LBE4328:
 3462              	.LBE4327:
 3463              		.loc 7 534 0
 3464 0660 3869FFF4 		addi 3,9,-12
 3465              	.LVL249:
 3466              	.LBB4337:
 3467              	.LBB4335:
 3468              		.loc 7 235 0
 3469 0664 7F83F000 		cmpw 7,3,30
 3470 0668 409E0148 		bne- 7,.L231
 3471              	.LVL250:
 3472              	.L202:
 3473              	.LBE4335:
 3474              	.LBE4337:
 3475              	.LBE4323:
 3476              	.LBE4322:
 3477              	.LBE4321:
 3478              	.LBE4342:
 3479              	.LBE4345:
 3480              	.LBB4346:
 3481              	.LBB4347:
 3482              	.LBB4348:
 3483              	.LBB4349:
 3484              	.LBB4350:
 3485              	.LBB4351:
 3486              		.loc 7 288 0
 3487 066c 8121000C 		lwz 9,12(1)
 3488              	.LBE4351:
 3489              	.LBE4350:
 3490              	.LBE4349:
 3491              		.loc 7 534 0
 3492 0670 3869FFF4 		addi 3,9,-12
 3493              	.LVL251:
 3494              	.LBB4352:
 3495              	.LBB4353:
 3496              		.loc 7 235 0
 3497 0674 7F83F000 		cmpw 7,3,30
 3498 0678 409E0118 		bne- 7,.L232
 3499              	.LVL252:
 3500              	.L211:
 3501              	.LBE4353:
 3502              	.LBE4352:
 3503              	.LBE4348:
 3504              	.LBE4347:
 3505              	.LBE4346:
 3506              	.LBE4368:
 3507              	.LBE4371:
 3508              	.LBB4372:
 3509              	.LBB4373:
 3510              	.LBB4374:
 3511              	.LBB4375:
 3512              	.LBB4376:
 3513              	.LBB4377:
 3514              	.LBB4378:
 3515              	.LBB4379:
 3516              		.loc 7 288 0
 3517 067c 81210014 		lwz 9,20(1)
 3518              	.LBE4379:
 3519              	.LBE4378:
 3520              	.LBE4377:
 3521              		.loc 7 534 0
 3522 0680 3869FFF4 		addi 3,9,-12
 3523              	.LVL253:
 3524              	.LBB4380:
 3525              	.LBB4381:
 3526              		.loc 7 235 0
 3527 0684 7F83F000 		cmpw 7,3,30
 3528 0688 409E00E8 		bne- 7,.L233
 3529              	.LVL254:
 3530              	.L218:
 3531              	.LBE4381:
 3532              	.LBE4380:
 3533              	.LBE4376:
 3534              	.LBE4375:
 3535              	.LBE4374:
 3536              	.LBE4373:
 3537              	.LBE4372:
 3538              	.LBB4394:
 3539              	.LBB4395:
 3540              		.loc 7 711 0 discriminator 1
 3541 068c 813F00E8 		lwz 9,232(31)
 3542              	.LBE4395:
 3543              	.LBE4394:
 3544              		.loc 3 310 0 discriminator 1
 3545 0690 8009FFF4 		lwz 0,-12(9)
 3546 0694 2F800000 		cmpwi 7,0,0
 3547 0698 419E0020 		beq- 7,.L234
 3548              		.loc 3 312 0
 3549 069c 8001002C 		lwz 0,44(1)
 3550 06a0 83A1001C 		lwz 29,28(1)
 3551 06a4 7C0803A6 		mtlr 0
 3552 06a8 83C10020 		lwz 30,32(1)
 3553 06ac 83E10024 		lwz 31,36(1)
 3554              	.LVL255:
 3555 06b0 38210028 		addi 1,1,40
 3556              		.cfi_remember_state
 3557              	.LCFI59:
 3558              		.cfi_def_cfa_offset 0
 3559              		.cfi_restore 31
 3560              		.cfi_restore 30
 3561              		.cfi_restore 29
 3562 06b4 4E800020 		blr
 3563              	.LVL256:
 3564              	.L234:
 3565              	.LCFI60:
 3566              		.cfi_restore_state
 3567              	.LBB4396:
 3568              	.LBB4397:
 3569              		.loc 9 47 0
 3570 06b8 83FD0000 		lwz 31,_ZN8MainMenu8instanceE@l(29)
 3571              	.LVL257:
 3572 06bc 2F9F0000 		cmpwi 7,31,0
 3573 06c0 419E0098 		beq- 7,.L235
 3574              	.L220:
 3575              	.LVL258:
 3576              	.LBE4397:
 3577              	.LBE4396:
 3578              	.LBB4400:
 3579              	.LBB4401:
 3580              		.loc 9 61 0
 3581 06c4 38000000 		li 0,0
 3582              	.LBE4401:
 3583              	.LBE4400:
 3584              		.loc 3 312 0
 3585 06c8 83A1001C 		lwz 29,28(1)
 3586              	.LBB4403:
 3587              	.LBB4402:
 3588              		.loc 9 61 0
 3589 06cc 981F00E5 		stb 0,229(31)
 3590              	.LBE4402:
 3591              	.LBE4403:
 3592              		.loc 3 312 0
 3593 06d0 8001002C 		lwz 0,44(1)
 3594 06d4 83C10020 		lwz 30,32(1)
 3595 06d8 7C0803A6 		mtlr 0
 3596 06dc 83E10024 		lwz 31,36(1)
 3597 06e0 38210028 		addi 1,1,40
 3598              		.cfi_remember_state
 3599              		.cfi_restore 29
 3600              		.cfi_restore 30
 3601              		.cfi_restore 31
 3602              	.LCFI61:
 3603              		.cfi_def_cfa_offset 0
 3604 06e4 4E800020 		blr
 3605              	.LVL259:
 3606              	.L229:
 3607              	.LCFI62:
 3608              		.cfi_restore_state
 3609              	.LBB4404:
 3610              	.LBB4405:
 3611              	.LBB4406:
 3612              	.LBB4407:
 3613              		.loc 7 311 0
 3614 06e8 8009FFFC 		lwz 0,-4(9)
 3615              	.LBE4407:
 3616              	.LBE4406:
 3617              	.LBE4405:
 3618              	.LBE4404:
 3619              		.loc 3 306 0
 3620 06ec 3BC300E8 		addi 30,3,232
 3621              	.LVL260:
 3622              	.LBB4411:
 3623              	.LBB4410:
 3624              	.LBB4409:
 3625              	.LBB4408:
 3626              		.loc 7 311 0
 3627 06f0 2F800000 		cmpwi 7,0,0
 3628 06f4 419C0014 		blt- 7,.L193
 3629              		.loc 7 312 0
 3630 06f8 7FC3F378 		mr 3,30
 3631              	.LVL261:
 3632              	.LEHB33:
 3633 06fc 48000001 		bl _ZNSbIwSt11char_traitsIwESaIwEE12_M_leak_hardEv
 3634 0700 813F00E8 		lwz 9,232(31)
 3635 0704 8089FFF4 		lwz 4,-12(9)
 3636              	.L193:
 3637              	.LVL262:
 3638              	.LBE4408:
 3639              	.LBE4409:
 3640              		.loc 7 622 0
 3641 0708 5484103A 		slwi 4,4,2
 3642              	.LBE4410:
 3643              	.LBE4411:
 3644              	.LBB4412:
 3645              	.LBB4413:
 3646              		.loc 7 1368 0
 3647 070c 7FC3F378 		mr 3,30
 3648              	.LBB4414:
 3649              	.LBB4415:
 3650              		.file 12 "d:\\devkitpro\\devkitppc\\bin\\../lib/gcc/powerpc-eabi/4.6.3/../../../../powerpc-eabi/in
 3651              		.loc 12 892 0
 3652 0710 3884FFFC 		addi 4,4,-4
 3653              	.LBE4415:
 3654              	.LBE4414:
 3655              		.loc 7 1368 0
 3656 0714 38A00001 		li 5,1
 3657 0718 7C841670 		srawi 4,4,2
 3658 071c 38C00000 		li 6,0
 3659              	.LBE4413:
 3660              	.LBE4412:
 3661              	.LBB4423:
 3662              	.LBB4312:
 3663              		.loc 9 47 0
 3664 0720 3FA00000 		lis 29,_ZN8MainMenu8instanceE@ha
 3665              	.LBE4312:
 3666              	.LBE4423:
 3667              	.LBB4424:
 3668              	.LBB4420:
 3669              		.loc 7 1368 0
 3670 0724 48000001 		bl _ZNSbIwSt11char_traitsIwESaIwEE9_M_mutateEjjj
 3671              	.LVL263:
 3672              	.LBE4420:
 3673              	.LBE4424:
 3674              	.LBB4425:
 3675              	.LBB4313:
 3676              		.loc 9 47 0
 3677 0728 83DD0000 		lwz 30,_ZN8MainMenu8instanceE@l(29)
 3678              	.LVL264:
 3679              	.LBE4313:
 3680              	.LBE4425:
 3681              	.LBB4426:
 3682              	.LBB4421:
 3683              	.LBB4416:
 3684              	.LBB4417:
 3685              		.loc 7 195 0
 3686 072c 3800FFFF 		li 0,-1
 3687 0730 813F00E8 		lwz 9,232(31)
 3688              	.LBE4417:
 3689              	.LBE4416:
 3690              	.LBE4421:
 3691              	.LBE4426:
 3692              	.LBB4427:
 3693              	.LBB4314:
 3694              		.loc 9 47 0
 3695 0734 2F9E0000 		cmpwi 7,30,0
 3696              	.LBE4314:
 3697              	.LBE4427:
 3698              	.LBB4428:
 3699              	.LBB4422:
 3700              	.LBB4419:
 3701              	.LBB4418:
 3702              		.loc 7 195 0
 3703 0738 9009FFFC 		stw 0,-4(9)
 3704              	.LVL265:
 3705              	.LBE4418:
 3706              	.LBE4419:
 3707              	.LBE4422:
 3708              	.LBE4428:
 3709              	.LBB4429:
 3710              	.LBB4315:
 3711              		.loc 9 47 0
 3712 073c 409EFEDC 		bne+ 7,.L194
 3713              	.LVL266:
 3714              	.L230:
 3715 0740 386002A8 		li 3,680
 3716 0744 48000001 		bl _Znwj
 3717              	.LEHE33:
 3718 0748 7C7E1B78 		mr 30,3
 3719              	.LEHB34:
 3720 074c 48000001 		bl _ZN8MainMenuC1Ev
 3721              	.LEHE34:
 3722 0750 93DD0000 		stw 30,_ZN8MainMenu8instanceE@l(29)
 3723 0754 4BFFFEC4 		b .L194
 3724              	.LVL267:
 3725              	.L235:
 3726              	.LBE4315:
 3727              	.LBE4429:
 3728              	.LBB4430:
 3729              	.LBB4398:
 3730 0758 386002A8 		li 3,680
 3731              	.LEHB35:
 3732 075c 48000001 		bl _Znwj
 3733              	.LEHE35:
 3734 0760 7C7F1B78 		mr 31,3
 3735              	.LEHB36:
 3736 0764 48000001 		bl _ZN8MainMenuC1Ev
 3737              	.LEHE36:
 3738 0768 93FD0000 		stw 31,_ZN8MainMenu8instanceE@l(29)
 3739 076c 4BFFFF58 		b .L220
 3740              	.LVL268:
 3741              	.L233:
 3742              	.LBE4398:
 3743              	.LBE4430:
 3744              	.LBB4431:
 3745              	.LBB4393:
 3746              	.LBB4392:
 3747              	.LBB4391:
 3748              	.LBB4390:
 3749              	.LBB4389:
 3750              	.LBB4388:
 3751              	.LBB4382:
 3752              	.LBB4383:
 3753              	.LBB4384:
 3754              		.loc 8 66 0
 3755 0770 8169FFFC 		lwz 11,-4(9)
 3756              	.LVL269:
 3757              	.LBE4384:
 3758              	.LBE4383:
 3759              	.LBE4382:
 3760              		.loc 7 240 0
 3761 0774 2F8B0000 		cmpwi 7,11,0
 3762              	.LBB4387:
 3763              	.LBB4386:
 3764              	.LBB4385:
 3765              		.loc 8 67 0
 3766 0778 396BFFFF 		addi 11,11,-1
 3767 077c 9169FFFC 		stw 11,-4(9)
 3768              	.LBE4385:
 3769              	.LBE4386:
 3770              	.LBE4387:
 3771              		.loc 7 240 0
 3772 0780 419DFF0C 		bgt+ 7,.L218
 3773              		.loc 7 244 0
 3774 0784 38810008 		addi 4,1,8
 3775 0788 48000001 		bl _ZNSbIwSt11char_traitsIwESaIwEE4_Rep10_M_destroyERKS1_
 3776              	.LVL270:
 3777 078c 4BFFFF00 		b .L218
 3778              	.LVL271:
 3779              	.L232:
 3780              	.LBE4388:
 3781              	.LBE4389:
 3782              	.LBE4390:
 3783              	.LBE4391:
 3784              	.LBE4392:
 3785              	.LBE4393:
 3786              	.LBE4431:
 3787              	.LBB4432:
 3788              	.LBB4369:
 3789              	.LBB4364:
 3790              	.LBB4363:
 3791              	.LBB4362:
 3792              	.LBB4361:
 3793              	.LBB4360:
 3794              	.LBB4354:
 3795              	.LBB4355:
 3796              	.LBB4356:
 3797              		.loc 8 66 0
 3798 0790 8169FFFC 		lwz 11,-4(9)
 3799              	.LVL272:
 3800              	.LBE4356:
 3801              	.LBE4355:
 3802              	.LBE4354:
 3803              		.loc 7 240 0
 3804 0794 2F8B0000 		cmpwi 7,11,0
 3805              	.LBB4359:
 3806              	.LBB4358:
 3807              	.LBB4357:
 3808              		.loc 8 67 0
 3809 0798 396BFFFF 		addi 11,11,-1
 3810 079c 9169FFFC 		stw 11,-4(9)
 3811              	.LBE4357:
 3812              	.LBE4358:
 3813              	.LBE4359:
 3814              		.loc 7 240 0
 3815 07a0 419DFEDC 		bgt+ 7,.L211
 3816              		.loc 7 244 0
 3817 07a4 38810009 		addi 4,1,9
 3818 07a8 48000001 		bl _ZNSbIwSt11char_traitsIwESaIwEE4_Rep10_M_destroyERKS1_
 3819              	.LVL273:
 3820 07ac 4BFFFED0 		b .L211
 3821              	.LVL274:
 3822              	.L231:
 3823              	.LBE4360:
 3824              	.LBE4361:
 3825              	.LBE4362:
 3826              	.LBE4363:
 3827              	.LBE4364:
 3828              	.LBB4365:
 3829              	.LBB4343:
 3830              	.LBB4341:
 3831              	.LBB4340:
 3832              	.LBB4339:
 3833              	.LBB4338:
 3834              	.LBB4336:
 3835              	.LBB4329:
 3836              	.LBB4330:
 3837              	.LBB4331:
 3838              		.loc 8 66 0
 3839 07b0 8169FFFC 		lwz 11,-4(9)
 3840              	.LVL275:
 3841              	.LBE4331:
 3842              	.LBE4330:
 3843              	.LBE4329:
 3844              		.loc 7 240 0
 3845 07b4 2F8B0000 		cmpwi 7,11,0
 3846              	.LBB4334:
 3847              	.LBB4333:
 3848              	.LBB4332:
 3849              		.loc 8 67 0
 3850 07b8 396BFFFF 		addi 11,11,-1
 3851 07bc 9169FFFC 		stw 11,-4(9)
 3852              	.LBE4332:
 3853              	.LBE4333:
 3854              	.LBE4334:
 3855              		.loc 7 240 0
 3856 07c0 419DFEAC 		bgt+ 7,.L202
 3857              		.loc 7 244 0
 3858 07c4 3881000A 		addi 4,1,10
 3859 07c8 48000001 		bl _ZNSbIwSt11char_traitsIwESaIwEE4_Rep10_M_destroyERKS1_
 3860              	.LVL276:
 3861 07cc 4BFFFEA0 		b .L202
 3862              	.LVL277:
 3863              	.L224:
 3864 07d0 7C7F1B78 		mr 31,3
 3865              	.LVL278:
 3866              	.LBE4336:
 3867              	.LBE4338:
 3868              	.LBE4339:
 3869              	.LBE4340:
 3870              	.LBE4341:
 3871              	.LBE4343:
 3872              	.LBE4365:
 3873              	.LBE4369:
 3874              	.LBE4432:
 3875              	.LBB4433:
 3876              	.LBB4316:
 3877              		.loc 9 47 0
 3878 07d4 7FC3F378 		mr 3,30
 3879 07d8 48000001 		bl _ZdlPv
 3880 07dc 7FE3FB78 		mr 3,31
 3881              	.LEHB37:
 3882 07e0 48000001 		bl _Unwind_Resume
 3883              	.LVL279:
 3884              	.L226:
 3885 07e4 7C7F1B78 		mr 31,3
 3886              	.LVL280:
 3887              	.LBE4316:
 3888              	.LBE4433:
 3889              	.LBB4434:
 3890              	.LBB4370:
 3891              	.LBB4366:
 3892              	.LBB4344:
 3893              		.loc 10 35 0
 3894 07e8 38610010 		addi 3,1,16
 3895 07ec 48000001 		bl _ZNSbIwSt11char_traitsIwESaIwEED1Ev
 3896              	.L205:
 3897              	.LBE4344:
 3898              	.LBE4366:
 3899              		.loc 9 59 0
 3900 07f0 3861000C 		addi 3,1,12
 3901              	.LVL281:
 3902 07f4 48000001 		bl _ZNSbIwSt11char_traitsIwESaIwEED1Ev
 3903              	.LVL282:
 3904              	.L206:
 3905              	.LBE4370:
 3906              	.LBE4434:
 3907              	.LBB4435:
 3908              	.LBB4436:
 3909              	.LBB4437:
 3910              		.loc 11 10 0
 3911 07f8 38610014 		addi 3,1,20
 3912              	.LVL283:
 3913 07fc 48000001 		bl _ZNSbIwSt11char_traitsIwESaIwEED2Ev
 3914              	.LVL284:
 3915 0800 7FE3FB78 		mr 3,31
 3916 0804 48000001 		bl _Unwind_Resume
 3917              	.LVL285:
 3918              	.L225:
 3919 0808 7C7F1B78 		mr 31,3
 3920              	.LVL286:
 3921 080c 4BFFFFE4 		b .L205
 3922              	.LVL287:
 3923              	.L223:
 3924 0810 7C7F1B78 		mr 31,3
 3925              	.LVL288:
 3926 0814 4BFFFFE4 		b .L206
 3927              	.LVL289:
 3928              	.L227:
 3929 0818 7C7E1B78 		mr 30,3
 3930              	.LBE4437:
 3931              	.LBE4436:
 3932              	.LBE4435:
 3933              	.LBB4438:
 3934              	.LBB4399:
 3935              		.loc 9 47 0
 3936 081c 7FE3FB78 		mr 3,31
 3937 0820 48000001 		bl _ZdlPv
 3938 0824 7FC3F378 		mr 3,30
 3939 0828 48000001 		bl _Unwind_Resume
 3940              	.LEHE37:
 3941              	.LBE4399:
 3942              	.LBE4438:
 3943              		.cfi_endproc
 3944              	.LFE1712:
 3945              		.section	.gcc_except_table
 3946              	.LLSDA1712:
 3947 00aa FF       		.byte	0xff
 3948 00ab FF       		.byte	0xff
 3949 00ac 01       		.byte	0x1
 3950 00ad 2E       		.uleb128 .LLSDACSE1712-.LLSDACSB1712
 3951              	.LLSDACSB1712:
 3952 00ae 44       		.uleb128 .LEHB29-.LFB1712
 3953 00af 04       		.uleb128 .LEHE29-.LEHB29
 3954 00b0 00       		.uleb128 0
 3955 00b1 00       		.uleb128 0
 3956 00b2 54       		.uleb128 .LEHB30-.LFB1712
 3957 00b3 04       		.uleb128 .LEHE30-.LEHB30
 3958 00b4 B404     		.uleb128 .L223-.LFB1712
 3959 00b6 00       		.uleb128 0
 3960 00b7 64       		.uleb128 .LEHB31-.LFB1712
 3961 00b8 04       		.uleb128 .LEHE31-.LEHB31
 3962 00b9 AC04     		.uleb128 .L225-.LFB1712
 3963 00bb 00       		.uleb128 0
 3964 00bc 74       		.uleb128 .LEHB32-.LFB1712
 3965 00bd 04       		.uleb128 .LEHE32-.LEHB32
 3966 00be 8804     		.uleb128 .L226-.LFB1712
 3967 00c0 00       		.uleb128 0
 3968 00c1 A002     		.uleb128 .LEHB33-.LFB1712
 3969 00c3 4C       		.uleb128 .LEHE33-.LEHB33
 3970 00c4 00       		.uleb128 0
 3971 00c5 00       		.uleb128 0
 3972 00c6 F002     		.uleb128 .LEHB34-.LFB1712
 3973 00c8 04       		.uleb128 .LEHE34-.LEHB34
 3974 00c9 F403     		.uleb128 .L224-.LFB1712
 3975 00cb 00       		.uleb128 0
 3976 00cc 8003     		.uleb128 .LEHB35-.LFB1712
 3977 00ce 04       		.uleb128 .LEHE35-.LEHB35
 3978 00cf 00       		.uleb128 0
 3979 00d0 00       		.uleb128 0
 3980 00d1 8803     		.uleb128 .LEHB36-.LFB1712
 3981 00d3 04       		.uleb128 .LEHE36-.LEHB36
 3982 00d4 BC04     		.uleb128 .L227-.LFB1712
 3983 00d6 00       		.uleb128 0
 3984 00d7 8404     		.uleb128 .LEHB37-.LFB1712
 3985 00d9 4C       		.uleb128 .LEHE37-.LEHB37
 3986 00da 00       		.uleb128 0
 3987 00db 00       		.uleb128 0
 3988              	.LLSDACSE1712:
 3989              		.section	".text"
 3990              		.size	_ZN12SearchWindow14RemoveLastCharEv, .-_ZN12SearchWindow14RemoveLastCharEv
 3991              		.align 2
 3992              		.globl _ZN12SearchWindow13OnButtonClickEP9GuiButtoniRK6_POINT
 3993              		.type	_ZN12SearchWindow13OnButtonClickEP9GuiButtoniRK6_POINT, @function
 3994              	_ZN12SearchWindow13OnButtonClickEP9GuiButtoniRK6_POINT:
 3995              	.LFB1704:
 3996              		.loc 3 253 0
 3997              		.cfi_startproc
 3998              		.cfi_personality 0,__gxx_personality_v0
 3999              		.cfi_lsda 0,.LLSDA1704
 4000              	.LVL290:
 4001 082c 7C0802A6 		mflr 0
 4002 0830 9421FFC8 		stwu 1,-56(1)
 4003              	.LCFI63:
 4004              		.cfi_def_cfa_offset 56
 4005              		.cfi_register 65, 0
 4006 0834 93C10030 		stw 30,48(1)
 4007 0838 7C9E2378 		mr 30,4
 4008              		.cfi_offset 30, -8
 4009 083c 9001003C 		stw 0,60(1)
 4010 0840 93E10034 		stw 31,52(1)
 4011 0844 7C7F1B78 		mr 31,3
 4012              		.cfi_offset 31, -4
 4013              		.cfi_offset 65, 4
 4014              	.LBB4623:
 4015              		.loc 3 254 0
 4016 0848 81240000 		lwz 9,0(4)
 4017 084c 7C832378 		mr 3,4
 4018              	.LVL291:
 4019              	.LBE4623:
 4020              		.loc 3 253 0
 4021 0850 93A1002C 		stw 29,44(1)
 4022              	.LBB4852:
 4023              		.loc 3 254 0
 4024 0854 8009005C 		lwz 0,92(9)
 4025 0858 7C0903A6 		mtctr 0
 4026              	.LEHB38:
 4027              		.cfi_offset 29, -12
 4028 085c 4E800421 		bctrl
 4029              	.LVL292:
 4030              	.LBB4624:
 4031              		.loc 3 256 0
 4032 0860 801F0108 		lwz 0,264(31)
 4033 0864 7F80F000 		cmpw 7,0,30
 4034 0868 419E01D8 		beq- 7,.L324
 4035              	.LBB4625:
 4036              		.loc 3 260 0
 4037 086c 801F0118 		lwz 0,280(31)
 4038 0870 7F80F000 		cmpw 7,0,30
 4039 0874 419E01D8 		beq- 7,.L325
 4040              	.LBB4626:
 4041              		.loc 3 266 0
 4042 0878 801F011C 		lwz 0,284(31)
 4043 087c 7F80F000 		cmpw 7,0,30
 4044 0880 419E00A0 		beq- 7,.L326
 4045              	.L267:
 4046              	.LBB4627:
 4047              		.loc 3 271 0
 4048 0884 801F0120 		lwz 0,288(31)
 4049 0888 7F80F000 		cmpw 7,0,30
 4050 088c 419E00DC 		beq- 7,.L327
 4051              	.LVL293:
 4052              	.LBB4628:
 4053              	.LBB4629:
 4054              		.loc 3 312 0
 4055 0890 813F0124 		lwz 9,292(31)
 4056 0894 801F0128 		lwz 0,296(31)
 4057              	.LVL294:
 4058              	.LBE4629:
 4059              		.loc 3 278 0
 4060 0898 7F890000 		cmpw 7,9,0
 4061 089c 419E005C 		beq- 7,.L236
 4062              	.LVL295:
 4063              	.LBB4630:
 4064              	.LBB4631:
 4065              	.LBB4632:
 4066              		.file 13 "d:\\devkitpro\\devkitppc\\bin\\../lib/gcc/powerpc-eabi/4.6.3/../../../../powerpc-eabi/in
 4067              		.loc 13 571 0 discriminator 1
 4068 08a0 7C090050 		subf 0,9,0
 4069              	.LBE4632:
 4070              	.LBE4631:
 4071              		.loc 3 280 0 discriminator 1
 4072 08a4 7C001671 		srawi. 0,0,2
 4073 08a8 41820034 		beq- 0,.L238
 4074              	.LVL296:
 4075              		.loc 3 282 0
 4076 08ac 81690000 		lwz 11,0(9)
 4077 08b0 38800000 		li 4,0
 4078 08b4 7C0903A6 		mtctr 0
 4079 08b8 7F9E5800 		cmpw 7,30,11
 4080 08bc 40BE0018 		bne+ 7,.L300
 4081 08c0 48000054 		b .L299
 4082              	.LVL297:
 4083              	.L301:
 4084 08c4 5480103A 		slwi 0,4,2
 4085 08c8 7C09002E 		lwzx 0,9,0
 4086 08cc 7F9E0000 		cmpw 7,30,0
 4087 08d0 419E0044 		beq- 7,.L299
 4088              	.LVL298:
 4089              	.L300:
 4090              		.loc 3 280 0
 4091 08d4 38840001 		addi 4,4,1
 4092              	.LVL299:
 4093 08d8 4200FFEC 		bdnz .L301
 4094              	.LVL300:
 4095              	.L238:
 4096              	.LBE4630:
 4097              	.LBE4628:
 4098              	.LBE4627:
 4099              	.LBE4626:
 4100              	.LBE4625:
 4101              	.LBE4624:
 4102              	.LBB4843:
 4103              	.LBB4844:
 4104              		.file 14 "d:/Projects/SaveGameManager/savegame-manager-gx/trunk/source/Prompts/../Controls/Applica
 4105              		.loc 14 27 0
 4106 08dc 3FA00000 		lis 29,_ZN11Application8instanceE@ha
 4107 08e0 83DD0000 		lwz 30,_ZN11Application8instanceE@l(29)
 4108 08e4 2F9E0000 		cmpwi 7,30,0
 4109 08e8 419E0140 		beq- 7,.L328
 4110              	.L302:
 4111              	.LBE4844:
 4112              	.LBE4843:
 4113              		.loc 3 292 0
 4114 08ec 7FC3F378 		mr 3,30
 4115 08f0 7FE4FB78 		mr 4,31
 4116 08f4 48000001 		bl _ZN11Application13PushForDeleteEP10GuiElement
 4117              	.L236:
 4118              	.LBE4852:
 4119              		.loc 3 293 0
 4120 08f8 8001003C 		lwz 0,60(1)
 4121 08fc 83A1002C 		lwz 29,44(1)
 4122 0900 7C0803A6 		mtlr 0
 4123 0904 83C10030 		lwz 30,48(1)
 4124 0908 83E10034 		lwz 31,52(1)
 4125              	.LVL301:
 4126 090c 38210038 		addi 1,1,56
 4127              		.cfi_remember_state
 4128              	.LCFI64:
 4129              		.cfi_def_cfa_offset 0
 4130              		.cfi_restore 31
 4131              		.cfi_restore 30
 4132              		.cfi_restore 29
 4133 0910 4E800020 		blr
 4134              	.LVL302:
 4135              	.L299:
 4136              	.LCFI65:
 4137              		.cfi_restore_state
 4138              	.LBB4853:
 4139              	.LBB4847:
 4140              	.LBB4840:
 4141              	.LBB4749:
 4142              	.LBB4736:
 4143              	.LBB4634:
 4144              	.LBB4633:
 4145              		.loc 3 284 0
 4146 0914 7FE3FB78 		mr 3,31
 4147 0918 48000001 		bl _ZN12SearchWindow10AddNewCharEi
 4148              		.loc 3 285 0
 4149 091c 4BFFFFC0 		b .L238
 4150              	.LVL303:
 4151              	.L326:
 4152              	.LBE4633:
 4153              	.LBE4634:
 4154              	.LBE4736:
 4155              		.loc 3 266 0 discriminator 1
 4156 0920 A01F00CC 		lhz 0,204(31)
 4157 0924 2F800000 		cmpwi 7,0,0
 4158 0928 419EFF5C 		beq+ 7,.L267
 4159              		.loc 3 268 0
 4160 092c 813F0000 		lwz 9,0(31)
 4161 0930 7FE3FB78 		mr 3,31
 4162 0934 38800080 		li 4,128
 4163 0938 38A0FFE2 		li 5,-30
 4164 093c 80090088 		lwz 0,136(9)
 4165 0940 38C00000 		li 6,0
 4166              	.LBB4737:
 4167              	.LBB4738:
 4168              		.loc 9 47 0
 4169 0944 3FC00000 		lis 30,_ZN8MainMenu8instanceE@ha
 4170              	.LVL304:
 4171              	.LBE4738:
 4172              	.LBE4737:
 4173              		.loc 3 268 0
 4174 0948 7C0903A6 		mtctr 0
 4175 094c 4E800421 		bctrl
 4176              	.LBB4741:
 4177              	.LBB4739:
 4178              		.loc 9 47 0
 4179 0950 83BE0000 		lwz 29,_ZN8MainMenu8instanceE@l(30)
 4180 0954 2F9D0000 		cmpwi 7,29,0
 4181 0958 419E01E8 		beq- 7,.L329
 4182              	.L268:
 4183              	.LVL305:
 4184              	.LBE4739:
 4185              	.LBE4741:
 4186              	.LBB4742:
 4187              	.LBB4743:
 4188              		.loc 9 60 0
 4189 095c 38000000 		li 0,0
 4190 0960 981D00E4 		stb 0,228(29)
 4191 0964 4BFFFF78 		b .L238
 4192              	.LVL306:
 4193              	.L327:
 4194              	.LBE4743:
 4195              	.LBE4742:
 4196              	.LBB4744:
 4197              	.LBB4635:
 4198              	.LBB4636:
 4199              		.loc 9 47 0
 4200 0968 3FC00000 		lis 30,_ZN8MainMenu8instanceE@ha
 4201              	.LVL307:
 4202              	.LBE4636:
 4203              	.LBE4635:
 4204              		.loc 3 273 0
 4205 096c 3D200000 		lis 9,Settings@ha
 4206              	.LBB4641:
 4207              	.LBB4637:
 4208              		.loc 9 47 0
 4209 0970 83BE0000 		lwz 29,_ZN8MainMenu8instanceE@l(30)
 4210              	.LBE4637:
 4211              	.LBE4641:
 4212              		.loc 3 273 0
 4213 0974 39290000 		la 9,Settings@l(9)
 4214 0978 A8090062 		lha 0,98(9)
 4215              	.LBB4642:
 4216              	.LBB4638:
 4217              		.loc 9 47 0
 4218 097c 2F9D0000 		cmpwi 7,29,0
 4219              	.LBE4638:
 4220              	.LBE4642:
 4221              		.loc 3 273 0
 4222 0980 7C000034 		cntlzw 0,0
 4223 0984 5400D97E 		srwi 0,0,5
 4224 0988 B0090062 		sth 0,98(9)
 4225              	.LBB4643:
 4226              	.LBB4639:
 4227              		.loc 9 47 0
 4228 098c 419E0184 		beq- 7,.L330
 4229              	.L271:
 4230              	.LBE4639:
 4231              	.LBE4643:
 4232              		.loc 3 274 0
 4233 0990 3C800000 		lis 4,.LC7@ha
 4234 0994 38610020 		addi 3,1,32
 4235 0998 38840000 		la 4,.LC7@l(4)
 4236 099c 48000001 		bl _ZN7wStringC1EPKw
 4237              	.LEHE38:
 4238              	.LBB4644:
 4239              	.LBB4645:
 4240              		.loc 9 59 0
 4241 09a0 38610010 		addi 3,1,16
 4242 09a4 38810020 		addi 4,1,32
 4243              	.LBE4645:
 4244              	.LBE4644:
 4245              		.loc 3 312 0
 4246 09a8 83BD00EC 		lwz 29,236(29)
 4247              	.LVL308:
 4248              	.LEHB39:
 4249              	.LBB4698:
 4250              	.LBB4694:
 4251              		.loc 9 59 0
 4252 09ac 48000001 		bl _ZNSbIwSt11char_traitsIwESaIwEEC1ERKS2_
 4253              	.LEHE39:
 4254              	.LVL309:
 4255              	.LBB4646:
 4256              	.LBB4647:
 4257              		.loc 10 35 0
 4258 09b0 38610014 		addi 3,1,20
 4259 09b4 38810010 		addi 4,1,16
 4260              	.LBE4647:
 4261              	.LBE4646:
 4262              	.LBE4694:
 4263              		.loc 3 312 0
 4264 09b8 83BD00CC 		lwz 29,204(29)
 4265              	.LVL310:
 4266              	.LEHB40:
 4267              	.LBB4695:
 4268              	.LBB4672:
 4269              	.LBB4669:
 4270              		.loc 10 35 0
 4271 09bc 48000001 		bl _ZNSbIwSt11char_traitsIwESaIwEEC1ERKS2_
 4272              	.LEHE40:
 4273              	.LVL311:
 4274 09c0 7FA3EB78 		mr 3,29
 4275 09c4 38810014 		addi 4,1,20
 4276 09c8 38A00001 		li 5,1
 4277              	.LEHB41:
 4278 09cc 48000001 		bl _ZN11FileBrowser10FilterListESbIwSt11char_traitsIwESaIwEEb
 4279              	.LEHE41:
 4280              	.LVL312:
 4281              	.LBB4648:
 4282              	.LBB4649:
 4283              	.LBB4650:
 4284              	.LBB4651:
 4285              	.LBB4652:
 4286              	.LBB4653:
 4287              		.loc 7 288 0
 4288 09d0 81210014 		lwz 9,20(1)
 4289              	.LBE4653:
 4290              	.LBE4652:
 4291              	.LBE4651:
 4292              	.LBB4654:
 4293              	.LBB4655:
 4294              		.loc 7 235 0
 4295 09d4 3FA00000 		lis 29,_ZNSbIwSt11char_traitsIwESaIwEE4_Rep20_S_empty_rep_storageE@ha
 4296 09d8 3BBD0000 		la 29,_ZNSbIwSt11char_traitsIwESaIwEE4_Rep20_S_empty_rep_storageE@l(29)
 4297              	.LBE4655:
 4298              	.LBE4654:
 4299              		.loc 7 534 0
 4300 09dc 3869FFF4 		addi 3,9,-12
 4301              	.LVL313:
 4302              	.LBB4664:
 4303              	.LBB4662:
 4304              		.loc 7 235 0
 4305 09e0 7F83E800 		cmpw 7,3,29
 4306 09e4 409E02AC 		bne- 7,.L331
 4307              	.LVL314:
 4308              	.L279:
 4309              	.LBE4662:
 4310              	.LBE4664:
 4311              	.LBE4650:
 4312              	.LBE4649:
 4313              	.LBE4648:
 4314              	.LBE4669:
 4315              	.LBE4672:
 4316              	.LBB4673:
 4317              	.LBB4674:
 4318              	.LBB4675:
 4319              	.LBB4676:
 4320              	.LBB4677:
 4321              	.LBB4678:
 4322              		.loc 7 288 0
 4323 09e8 81210010 		lwz 9,16(1)
 4324              	.LBE4678:
 4325              	.LBE4677:
 4326              	.LBE4676:
 4327              		.loc 7 534 0
 4328 09ec 3869FFF4 		addi 3,9,-12
 4329              	.LVL315:
 4330              	.LBB4679:
 4331              	.LBB4680:
 4332              		.loc 7 235 0
 4333 09f0 7F83E800 		cmpw 7,3,29
 4334 09f4 409E027C 		bne- 7,.L332
 4335              	.LVL316:
 4336              	.L288:
 4337              	.LBE4680:
 4338              	.LBE4679:
 4339              	.LBE4675:
 4340              	.LBE4674:
 4341              	.LBE4673:
 4342              	.LBE4695:
 4343              	.LBE4698:
 4344              	.LBB4699:
 4345              	.LBB4700:
 4346              	.LBB4701:
 4347              	.LBB4702:
 4348              	.LBB4703:
 4349              	.LBB4704:
 4350              	.LBB4705:
 4351              	.LBB4706:
 4352              		.loc 7 288 0
 4353 09f8 81210020 		lwz 9,32(1)
 4354              	.LBE4706:
 4355              	.LBE4705:
 4356              	.LBE4704:
 4357              		.loc 7 534 0
 4358 09fc 3869FFF4 		addi 3,9,-12
 4359              	.LVL317:
 4360              	.LBB4707:
 4361              	.LBB4708:
 4362              		.loc 7 235 0
 4363 0a00 7F83E800 		cmpw 7,3,29
 4364 0a04 409E0154 		bne- 7,.L333
 4365              	.LVL318:
 4366              	.L295:
 4367              	.LBE4708:
 4368              	.LBE4707:
 4369              	.LBE4703:
 4370              	.LBE4702:
 4371              	.LBE4701:
 4372              	.LBE4700:
 4373              	.LBE4699:
 4374              	.LBB4721:
 4375              	.LBB4722:
 4376              		.loc 9 47 0
 4377 0a08 83BE0000 		lwz 29,_ZN8MainMenu8instanceE@l(30)
 4378 0a0c 2F9D0000 		cmpwi 7,29,0
 4379 0a10 419E00E8 		beq- 7,.L334
 4380              	.LVL319:
 4381              	.L296:
 4382              	.LBE4722:
 4383              	.LBE4721:
 4384              	.LBB4724:
 4385              	.LBB4725:
 4386              		.loc 9 61 0
 4387 0a14 38000000 		li 0,0
 4388 0a18 981D00E5 		stb 0,229(29)
 4389              	.LBE4725:
 4390              	.LBE4724:
 4391              	.LBB4726:
 4392              	.LBB4727:
 4393              		.loc 9 62 0
 4394 0a1c 38000001 		li 0,1
 4395 0a20 981D00E6 		stb 0,230(29)
 4396 0a24 4BFFFEB8 		b .L238
 4397              	.LVL320:
 4398              	.L328:
 4399              	.LBE4727:
 4400              	.LBE4726:
 4401              	.LBE4744:
 4402              	.LBE4749:
 4403              	.LBE4840:
 4404              	.LBE4847:
 4405              	.LBB4848:
 4406              	.LBB4845:
 4407              		.loc 14 27 0
 4408 0a28 38600278 		li 3,632
 4409              	.LEHB42:
 4410 0a2c 48000001 		bl _Znwj
 4411              	.LEHE42:
 4412 0a30 7C7E1B78 		mr 30,3
 4413              	.LEHB43:
 4414 0a34 48000001 		bl _ZN11ApplicationC1Ev
 4415              	.LEHE43:
 4416 0a38 93DD0000 		stw 30,_ZN11Application8instanceE@l(29)
 4417 0a3c 4BFFFEB0 		b .L302
 4418              	.LVL321:
 4419              	.L324:
 4420              	.LBE4845:
 4421              	.LBE4848:
 4422              	.LBB4849:
 4423              		.loc 3 258 0
 4424 0a40 7FE3FB78 		mr 3,31
 4425              	.LEHB44:
 4426 0a44 48000001 		bl _ZN12SearchWindow14RemoveLastCharEv
 4427 0a48 4BFFFE94 		b .L238
 4428              	.L325:
 4429              	.LBB4841:
 4430              	.LBB4750:
 4431              	.LBB4751:
 4432              		.loc 9 47 0
 4433 0a4c 3FC00000 		lis 30,_ZN8MainMenu8instanceE@ha
 4434              	.LVL322:
 4435 0a50 83BE0000 		lwz 29,_ZN8MainMenu8instanceE@l(30)
 4436 0a54 2F9D0000 		cmpwi 7,29,0
 4437 0a58 419E00D0 		beq- 7,.L335
 4438              	.L240:
 4439              	.LBE4751:
 4440              	.LBE4750:
 4441              		.loc 3 262 0
 4442 0a5c 3C800000 		lis 4,.LC7@ha
 4443 0a60 38610024 		addi 3,1,36
 4444 0a64 38840000 		la 4,.LC7@l(4)
 4445 0a68 48000001 		bl _ZN7wStringC1EPKw
 4446              	.LEHE44:
 4447              	.LBB4753:
 4448              	.LBB4754:
 4449              		.loc 9 59 0
 4450 0a6c 38610018 		addi 3,1,24
 4451 0a70 38810024 		addi 4,1,36
 4452              	.LBE4754:
 4453              	.LBE4753:
 4454              		.loc 3 312 0
 4455 0a74 83BD00EC 		lwz 29,236(29)
 4456              	.LVL323:
 4457              	.LEHB45:
 4458              	.LBB4804:
 4459              	.LBB4801:
 4460              		.loc 9 59 0
 4461 0a78 48000001 		bl _ZNSbIwSt11char_traitsIwESaIwEEC1ERKS2_
 4462              	.LEHE45:
 4463              	.LVL324:
 4464              	.LBB4755:
 4465              	.LBB4756:
 4466              		.loc 10 35 0
 4467 0a7c 3861001C 		addi 3,1,28
 4468 0a80 38810018 		addi 4,1,24
 4469              	.LBE4756:
 4470              	.LBE4755:
 4471              	.LBE4801:
 4472              		.loc 3 312 0
 4473 0a84 83BD00CC 		lwz 29,204(29)
 4474              	.LVL325:
 4475              	.LEHB46:
 4476              	.LBB4802:
 4477              	.LBB4780:
 4478              	.LBB4778:
 4479              		.loc 10 35 0
 4480 0a88 48000001 		bl _ZNSbIwSt11char_traitsIwESaIwEEC1ERKS2_
 4481              	.LEHE46:
 4482              	.LVL326:
 4483 0a8c 7FA3EB78 		mr 3,29
 4484 0a90 3881001C 		addi 4,1,28
 4485 0a94 38A00001 		li 5,1
 4486              	.LEHB47:
 4487 0a98 48000001 		bl _ZN11FileBrowser10FilterListESbIwSt11char_traitsIwESaIwEEb
 4488              	.LEHE47:
 4489              	.LVL327:
 4490              	.LBB4757:
 4491              	.LBB4758:
 4492              	.LBB4759:
 4493              	.LBB4760:
 4494              	.LBB4761:
 4495              	.LBB4762:
 4496              		.loc 7 288 0
 4497 0a9c 8121001C 		lwz 9,28(1)
 4498              	.LBE4762:
 4499              	.LBE4761:
 4500              	.LBE4760:
 4501              	.LBB4763:
 4502              	.LBB4764:
 4503              		.loc 7 235 0
 4504 0aa0 3FA00000 		lis 29,_ZNSbIwSt11char_traitsIwESaIwEE4_Rep20_S_empty_rep_storageE@ha
 4505 0aa4 3BBD0000 		la 29,_ZNSbIwSt11char_traitsIwESaIwEE4_Rep20_S_empty_rep_storageE@l(29)
 4506              	.LBE4764:
 4507              	.LBE4763:
 4508              		.loc 7 534 0
 4509 0aa8 3869FFF4 		addi 3,9,-12
 4510              	.LVL328:
 4511              	.LBB4773:
 4512              	.LBB4771:
 4513              		.loc 7 235 0
 4514 0aac 7F83E800 		cmpw 7,3,29
 4515 0ab0 409E011C 		bne- 7,.L336
 4516              	.LVL329:
 4517              	.L248:
 4518              	.LBE4771:
 4519              	.LBE4773:
 4520              	.LBE4759:
 4521              	.LBE4758:
 4522              	.LBE4757:
 4523              	.LBE4778:
 4524              	.LBE4780:
 4525              	.LBB4781:
 4526              	.LBB4782:
 4527              	.LBB4783:
 4528              	.LBB4784:
 4529              	.LBB4785:
 4530              	.LBB4786:
 4531              		.loc 7 288 0
 4532 0ab4 81210018 		lwz 9,24(1)
 4533              	.LBE4786:
 4534              	.LBE4785:
 4535              	.LBE4784:
 4536              		.loc 7 534 0
 4537 0ab8 3869FFF4 		addi 3,9,-12
 4538              	.LVL330:
 4539              	.LBB4787:
 4540              	.LBB4788:
 4541              		.loc 7 235 0
 4542 0abc 7F83E800 		cmpw 7,3,29
 4543 0ac0 409E00EC 		bne- 7,.L337
 4544              	.LVL331:
 4545              	.L257:
 4546              	.LBE4788:
 4547              	.LBE4787:
 4548              	.LBE4783:
 4549              	.LBE4782:
 4550              	.LBE4781:
 4551              	.LBE4802:
 4552              	.LBE4804:
 4553              	.LBB4805:
 4554              	.LBB4806:
 4555              	.LBB4807:
 4556              	.LBB4808:
 4557              	.LBB4809:
 4558              	.LBB4810:
 4559              	.LBB4811:
 4560              	.LBB4812:
 4561              		.loc 7 288 0
 4562 0ac4 81210024 		lwz 9,36(1)
 4563              	.LBE4812:
 4564              	.LBE4811:
 4565              	.LBE4810:
 4566              		.loc 7 534 0
 4567 0ac8 3869FFF4 		addi 3,9,-12
 4568              	.LVL332:
 4569              	.LBB4813:
 4570              	.LBB4814:
 4571              		.loc 7 235 0
 4572 0acc 7F83E800 		cmpw 7,3,29
 4573 0ad0 409E00BC 		bne- 7,.L338
 4574              	.LVL333:
 4575              	.L264:
 4576              	.LBE4814:
 4577              	.LBE4813:
 4578              	.LBE4809:
 4579              	.LBE4808:
 4580              	.LBE4807:
 4581              	.LBE4806:
 4582              	.LBE4805:
 4583              	.LBB4827:
 4584              	.LBB4828:
 4585              		.loc 9 47 0
 4586 0ad4 83BE0000 		lwz 29,_ZN8MainMenu8instanceE@l(30)
 4587 0ad8 2F9D0000 		cmpwi 7,29,0
 4588 0adc 409EFF38 		bne+ 7,.L296
 4589 0ae0 386002A8 		li 3,680
 4590              	.LEHB48:
 4591 0ae4 48000001 		bl _Znwj
 4592              	.LEHE48:
 4593 0ae8 7C7D1B78 		mr 29,3
 4594              	.LEHB49:
 4595 0aec 48000001 		bl _ZN8MainMenuC1Ev
 4596              	.LEHE49:
 4597              	.LBE4828:
 4598              	.LBE4827:
 4599              	.LBB4830:
 4600              	.LBB4745:
 4601              	.LBB4728:
 4602              	.LBB4723:
 4603 0af0 93BE0000 		stw 29,_ZN8MainMenu8instanceE@l(30)
 4604 0af4 4BFFFF20 		b .L296
 4605              	.LVL334:
 4606              	.L334:
 4607 0af8 386002A8 		li 3,680
 4608              	.LEHB50:
 4609 0afc 48000001 		bl _Znwj
 4610              	.LEHE50:
 4611 0b00 7C7D1B78 		mr 29,3
 4612              	.LEHB51:
 4613 0b04 48000001 		bl _ZN8MainMenuC1Ev
 4614              	.LEHE51:
 4615 0b08 93BE0000 		stw 29,_ZN8MainMenu8instanceE@l(30)
 4616 0b0c 4BFFFF08 		b .L296
 4617              	.LVL335:
 4618              	.L330:
 4619              	.LBE4723:
 4620              	.LBE4728:
 4621              	.LBB4729:
 4622              	.LBB4640:
 4623 0b10 386002A8 		li 3,680
 4624              	.LEHB52:
 4625 0b14 48000001 		bl _Znwj
 4626              	.LEHE52:
 4627 0b18 7C7D1B78 		mr 29,3
 4628              	.LEHB53:
 4629 0b1c 48000001 		bl _ZN8MainMenuC1Ev
 4630              	.LEHE53:
 4631 0b20 93BE0000 		stw 29,_ZN8MainMenu8instanceE@l(30)
 4632 0b24 4BFFFE6C 		b .L271
 4633              	.L335:
 4634              	.LBE4640:
 4635              	.LBE4729:
 4636              	.LBE4745:
 4637              	.LBE4830:
 4638              	.LBB4831:
 4639              	.LBB4752:
 4640 0b28 386002A8 		li 3,680
 4641              	.LEHB54:
 4642 0b2c 48000001 		bl _Znwj
 4643              	.LEHE54:
 4644 0b30 7C7D1B78 		mr 29,3
 4645              	.LEHB55:
 4646 0b34 48000001 		bl _ZN8MainMenuC1Ev
 4647              	.LEHE55:
 4648 0b38 93BE0000 		stw 29,_ZN8MainMenu8instanceE@l(30)
 4649 0b3c 4BFFFF20 		b .L240
 4650              	.L329:
 4651              	.LBE4752:
 4652              	.LBE4831:
 4653              	.LBB4832:
 4654              	.LBB4746:
 4655              	.LBB4740:
 4656 0b40 386002A8 		li 3,680
 4657              	.LEHB56:
 4658 0b44 48000001 		bl _Znwj
 4659              	.LEHE56:
 4660 0b48 7C7D1B78 		mr 29,3
 4661              	.LEHB57:
 4662 0b4c 48000001 		bl _ZN8MainMenuC1Ev
 4663              	.LEHE57:
 4664 0b50 93BE0000 		stw 29,_ZN8MainMenu8instanceE@l(30)
 4665 0b54 4BFFFE08 		b .L268
 4666              	.LVL336:
 4667              	.L333:
 4668              	.LBE4740:
 4669              	.LBE4746:
 4670              	.LBB4747:
 4671              	.LBB4730:
 4672              	.LBB4720:
 4673              	.LBB4719:
 4674              	.LBB4718:
 4675              	.LBB4717:
 4676              	.LBB4716:
 4677              	.LBB4715:
 4678              	.LBB4709:
 4679              	.LBB4710:
 4680              	.LBB4711:
 4681              		.loc 8 66 0
 4682 0b58 8169FFFC 		lwz 11,-4(9)
 4683              	.LVL337:
 4684              	.LBE4711:
 4685              	.LBE4710:
 4686              	.LBE4709:
 4687              		.loc 7 240 0
 4688 0b5c 2F8B0000 		cmpwi 7,11,0
 4689              	.LBB4714:
 4690              	.LBB4713:
 4691              	.LBB4712:
 4692              		.loc 8 67 0
 4693 0b60 396BFFFF 		addi 11,11,-1
 4694 0b64 9169FFFC 		stw 11,-4(9)
 4695              	.LBE4712:
 4696              	.LBE4713:
 4697              	.LBE4714:
 4698              		.loc 7 240 0
 4699 0b68 419DFEA0 		bgt+ 7,.L295
 4700              		.loc 7 244 0
 4701 0b6c 38810008 		addi 4,1,8
 4702 0b70 48000001 		bl _ZNSbIwSt11char_traitsIwESaIwEE4_Rep10_M_destroyERKS1_
 4703              	.LVL338:
 4704 0b74 4BFFFE94 		b .L295
 4705              	.LVL339:
 4706              	.L313:
 4707              	.L322:
 4708 0b78 7C7F1B78 		mr 31,3
 4709              	.LVL340:
 4710              	.LBE4715:
 4711              	.LBE4716:
 4712              	.LBE4717:
 4713              	.LBE4718:
 4714              	.LBE4719:
 4715              	.LBE4720:
 4716              	.LBE4730:
 4717              	.LBE4747:
 4718              	.LBE4832:
 4719              	.LBB4833:
 4720              	.LBB4829:
 4721              		.loc 9 47 0
 4722 0b7c 7FA3EB78 		mr 3,29
 4723 0b80 48000001 		bl _ZdlPv
 4724 0b84 7FE3FB78 		mr 3,31
 4725              	.LEHB58:
 4726 0b88 48000001 		bl _Unwind_Resume
 4727              	.LVL341:
 4728              	.L338:
 4729              	.LBE4829:
 4730              	.LBE4833:
 4731              	.LBB4834:
 4732              	.LBB4826:
 4733              	.LBB4825:
 4734              	.LBB4824:
 4735              	.LBB4823:
 4736              	.LBB4822:
 4737              	.LBB4821:
 4738              	.LBB4815:
 4739              	.LBB4816:
 4740              	.LBB4817:
 4741              		.loc 8 66 0
 4742 0b8c 8169FFFC 		lwz 11,-4(9)
 4743              	.LVL342:
 4744              	.LBE4817:
 4745              	.LBE4816:
 4746              	.LBE4815:
 4747              		.loc 7 240 0
 4748 0b90 2F8B0000 		cmpwi 7,11,0
 4749              	.LBB4820:
 4750              	.LBB4819:
 4751              	.LBB4818:
 4752              		.loc 8 67 0
 4753 0b94 396BFFFF 		addi 11,11,-1
 4754 0b98 9169FFFC 		stw 11,-4(9)
 4755              	.LBE4818:
 4756              	.LBE4819:
 4757              	.LBE4820:
 4758              		.loc 7 240 0
 4759 0b9c 419DFF38 		bgt+ 7,.L264
 4760              		.loc 7 244 0
 4761 0ba0 3881000B 		addi 4,1,11
 4762 0ba4 48000001 		bl _ZNSbIwSt11char_traitsIwESaIwEE4_Rep10_M_destroyERKS1_
 4763              	.LVL343:
 4764 0ba8 4BFFFF2C 		b .L264
 4765              	.LVL344:
 4766              	.L337:
 4767              	.LBE4821:
 4768              	.LBE4822:
 4769              	.LBE4823:
 4770              	.LBE4824:
 4771              	.LBE4825:
 4772              	.LBE4826:
 4773              	.LBE4834:
 4774              	.LBB4835:
 4775              	.LBB4803:
 4776              	.LBB4799:
 4777              	.LBB4798:
 4778              	.LBB4797:
 4779              	.LBB4796:
 4780              	.LBB4795:
 4781              	.LBB4789:
 4782              	.LBB4790:
 4783              	.LBB4791:
 4784              		.loc 8 66 0
 4785 0bac 8169FFFC 		lwz 11,-4(9)
 4786              	.LVL345:
 4787              	.LBE4791:
 4788              	.LBE4790:
 4789              	.LBE4789:
 4790              		.loc 7 240 0
 4791 0bb0 2F8B0000 		cmpwi 7,11,0
 4792              	.LBB4794:
 4793              	.LBB4793:
 4794              	.LBB4792:
 4795              		.loc 8 67 0
 4796 0bb4 396BFFFF 		addi 11,11,-1
 4797 0bb8 9169FFFC 		stw 11,-4(9)
 4798              	.LBE4792:
 4799              	.LBE4793:
 4800              	.LBE4794:
 4801              		.loc 7 240 0
 4802 0bbc 419DFF08 		bgt+ 7,.L257
 4803              		.loc 7 244 0
 4804 0bc0 3881000C 		addi 4,1,12
 4805 0bc4 48000001 		bl _ZNSbIwSt11char_traitsIwESaIwEE4_Rep10_M_destroyERKS1_
 4806              	.LVL346:
 4807 0bc8 4BFFFEFC 		b .L257
 4808              	.LVL347:
 4809              	.L336:
 4810              	.LBE4795:
 4811              	.LBE4796:
 4812              	.LBE4797:
 4813              	.LBE4798:
 4814              	.LBE4799:
 4815              	.LBB4800:
 4816              	.LBB4779:
 4817              	.LBB4777:
 4818              	.LBB4776:
 4819              	.LBB4775:
 4820              	.LBB4774:
 4821              	.LBB4772:
 4822              	.LBB4765:
 4823              	.LBB4766:
 4824              	.LBB4767:
 4825              		.loc 8 66 0
 4826 0bcc 8169FFFC 		lwz 11,-4(9)
 4827              	.LVL348:
 4828              	.LBE4767:
 4829              	.LBE4766:
 4830              	.LBE4765:
 4831              		.loc 7 240 0
 4832 0bd0 2F8B0000 		cmpwi 7,11,0
 4833              	.LBB4770:
 4834              	.LBB4769:
 4835              	.LBB4768:
 4836              		.loc 8 67 0
 4837 0bd4 396BFFFF 		addi 11,11,-1
 4838 0bd8 9169FFFC 		stw 11,-4(9)
 4839              	.LBE4768:
 4840              	.LBE4769:
 4841              	.LBE4770:
 4842              		.loc 7 240 0
 4843 0bdc 419DFED8 		bgt+ 7,.L248
 4844              		.loc 7 244 0
 4845 0be0 3881000D 		addi 4,1,13
 4846 0be4 48000001 		bl _ZNSbIwSt11char_traitsIwESaIwEE4_Rep10_M_destroyERKS1_
 4847              	.LVL349:
 4848 0be8 4BFFFECC 		b .L248
 4849              	.LVL350:
 4850              	.L311:
 4851 0bec 7C7F1B78 		mr 31,3
 4852              	.LVL351:
 4853              	.LBE4772:
 4854              	.LBE4774:
 4855              	.LBE4775:
 4856              	.LBE4776:
 4857              	.LBE4777:
 4858              		.loc 10 35 0
 4859 0bf0 3861001C 		addi 3,1,28
 4860 0bf4 48000001 		bl _ZNSbIwSt11char_traitsIwESaIwEED1Ev
 4861              	.L251:
 4862              	.LBE4779:
 4863              	.LBE4800:
 4864              		.loc 9 59 0
 4865 0bf8 38610018 		addi 3,1,24
 4866              	.LVL352:
 4867 0bfc 48000001 		bl _ZNSbIwSt11char_traitsIwESaIwEED1Ev
 4868              	.LVL353:
 4869              	.L252:
 4870              	.LBE4803:
 4871              	.LBE4835:
 4872              	.LBB4836:
 4873              	.LBB4837:
 4874              	.LBB4838:
 4875              		.loc 11 10 0
 4876 0c00 38610024 		addi 3,1,36
 4877              	.LVL354:
 4878 0c04 48000001 		bl _ZNSbIwSt11char_traitsIwESaIwEED2Ev
 4879              	.LVL355:
 4880 0c08 7FE3FB78 		mr 3,31
 4881 0c0c 48000001 		bl _Unwind_Resume
 4882              	.LVL356:
 4883              	.L310:
 4884 0c10 7C7F1B78 		mr 31,3
 4885              	.LVL357:
 4886 0c14 4BFFFFE4 		b .L251
 4887              	.LVL358:
 4888              	.L307:
 4889 0c18 7C7F1B78 		mr 31,3
 4890              	.LVL359:
 4891 0c1c 4BFFFFE4 		b .L252
 4892              	.LVL360:
 4893              	.L318:
 4894 0c20 7C7F1B78 		mr 31,3
 4895              	.LVL361:
 4896              	.LBE4838:
 4897              	.LBE4837:
 4898              	.LBE4836:
 4899              	.LBE4841:
 4900              	.LBE4849:
 4901              	.LBB4850:
 4902              	.LBB4846:
 4903              		.loc 14 27 0
 4904 0c24 7FC3F378 		mr 3,30
 4905 0c28 48000001 		bl _ZdlPv
 4906 0c2c 7FE3FB78 		mr 3,31
 4907 0c30 48000001 		bl _Unwind_Resume
 4908              	.LVL362:
 4909              	.L314:
 4910 0c34 4BFFFF44 		b .L322
 4911              	.LVL363:
 4912              	.L316:
 4913 0c38 7C7F1B78 		mr 31,3
 4914              	.LVL364:
 4915              	.LBE4846:
 4916              	.LBE4850:
 4917              	.LBB4851:
 4918              	.LBB4842:
 4919              	.LBB4839:
 4920              	.LBB4748:
 4921              	.LBB4731:
 4922              	.LBB4696:
 4923              	.LBB4691:
 4924              	.LBB4670:
 4925              		.loc 10 35 0
 4926 0c3c 38610014 		addi 3,1,20
 4927 0c40 48000001 		bl _ZNSbIwSt11char_traitsIwESaIwEED1Ev
 4928              	.L282:
 4929              	.LBE4670:
 4930              	.LBE4691:
 4931              		.loc 9 59 0
 4932 0c44 38610010 		addi 3,1,16
 4933              	.LVL365:
 4934 0c48 48000001 		bl _ZNSbIwSt11char_traitsIwESaIwEED1Ev
 4935              	.LVL366:
 4936              	.L283:
 4937              	.LBE4696:
 4938              	.LBE4731:
 4939              	.LBB4732:
 4940              	.LBB4733:
 4941              	.LBB4734:
 4942              		.loc 11 10 0
 4943 0c4c 38610020 		addi 3,1,32
 4944              	.LVL367:
 4945 0c50 48000001 		bl _ZNSbIwSt11char_traitsIwESaIwEED2Ev
 4946              	.LVL368:
 4947 0c54 7FE3FB78 		mr 3,31
 4948 0c58 48000001 		bl _Unwind_Resume
 4949              	.LEHE58:
 4950              	.LVL369:
 4951              	.L315:
 4952 0c5c 7C7F1B78 		mr 31,3
 4953              	.LVL370:
 4954 0c60 4BFFFFE4 		b .L282
 4955              	.LVL371:
 4956              	.L308:
 4957 0c64 7C7F1B78 		mr 31,3
 4958              	.LVL372:
 4959 0c68 4BFFFFE4 		b .L283
 4960              	.LVL373:
 4961              	.L317:
 4962 0c6c 4BFFFF0C 		b .L322
 4963              	.LVL374:
 4964              	.L332:
 4965              	.LBE4734:
 4966              	.LBE4733:
 4967              	.LBE4732:
 4968              	.LBB4735:
 4969              	.LBB4697:
 4970              	.LBB4692:
 4971              	.LBB4690:
 4972              	.LBB4689:
 4973              	.LBB4688:
 4974              	.LBB4687:
 4975              	.LBB4681:
 4976              	.LBB4682:
 4977              	.LBB4683:
 4978              		.loc 8 66 0
 4979 0c70 8169FFFC 		lwz 11,-4(9)
 4980              	.LVL375:
 4981              	.LBE4683:
 4982              	.LBE4682:
 4983              	.LBE4681:
 4984              		.loc 7 240 0
 4985 0c74 2F8B0000 		cmpwi 7,11,0
 4986              	.LBB4686:
 4987              	.LBB4685:
 4988              	.LBB4684:
 4989              		.loc 8 67 0
 4990 0c78 396BFFFF 		addi 11,11,-1
 4991 0c7c 9169FFFC 		stw 11,-4(9)
 4992              	.LBE4684:
 4993              	.LBE4685:
 4994              	.LBE4686:
 4995              		.loc 7 240 0
 4996 0c80 419DFD78 		bgt+ 7,.L288
 4997              		.loc 7 244 0
 4998 0c84 38810009 		addi 4,1,9
 4999 0c88 48000001 		bl _ZNSbIwSt11char_traitsIwESaIwEE4_Rep10_M_destroyERKS1_
 5000              	.LVL376:
 5001 0c8c 4BFFFD6C 		b .L288
 5002              	.LVL377:
 5003              	.L331:
 5004              	.LBE4687:
 5005              	.LBE4688:
 5006              	.LBE4689:
 5007              	.LBE4690:
 5008              	.LBE4692:
 5009              	.LBB4693:
 5010              	.LBB4671:
 5011              	.LBB4668:
 5012              	.LBB4667:
 5013              	.LBB4666:
 5014              	.LBB4665:
 5015              	.LBB4663:
 5016              	.LBB4656:
 5017              	.LBB4657:
 5018              	.LBB4658:
 5019              		.loc 8 66 0
 5020 0c90 8169FFFC 		lwz 11,-4(9)
 5021              	.LVL378:
 5022              	.LBE4658:
 5023              	.LBE4657:
 5024              	.LBE4656:
 5025              		.loc 7 240 0
 5026 0c94 2F8B0000 		cmpwi 7,11,0
 5027              	.LBB4661:
 5028              	.LBB4660:
 5029              	.LBB4659:
 5030              		.loc 8 67 0
 5031 0c98 396BFFFF 		addi 11,11,-1
 5032 0c9c 9169FFFC 		stw 11,-4(9)
 5033              	.LBE4659:
 5034              	.LBE4660:
 5035              	.LBE4661:
 5036              		.loc 7 240 0
 5037 0ca0 419DFD48 		bgt+ 7,.L279
 5038              		.loc 7 244 0
 5039 0ca4 3881000A 		addi 4,1,10
 5040 0ca8 48000001 		bl _ZNSbIwSt11char_traitsIwESaIwEE4_Rep10_M_destroyERKS1_
 5041              	.LVL379:
 5042 0cac 4BFFFD3C 		b .L279
 5043              	.LVL380:
 5044              	.L312:
 5045 0cb0 4BFFFEC8 		b .L322
 5046              	.LVL381:
 5047              	.L309:
 5048 0cb4 4BFFFEC4 		b .L322
 5049              	.LBE4663:
 5050              	.LBE4665:
 5051              	.LBE4666:
 5052              	.LBE4667:
 5053              	.LBE4668:
 5054              	.LBE4671:
 5055              	.LBE4693:
 5056              	.LBE4697:
 5057              	.LBE4735:
 5058              	.LBE4748:
 5059              	.LBE4839:
 5060              	.LBE4842:
 5061              	.LBE4851:
 5062              	.LBE4853:
 5063              		.cfi_endproc
 5064              	.LFE1704:
 5065              		.section	.gcc_except_table
 5066              	.LLSDA1704:
 5067 00dc FF       		.byte	0xff
 5068 00dd FF       		.byte	0xff
 5069 00de 01       		.byte	0x1
 5070 00df 76       		.uleb128 .LLSDACSE1704-.LLSDACSB1704
 5071              	.LLSDACSB1704:
 5072 00e0 30       		.uleb128 .LEHB38-.LFB1704
 5073 00e1 C402     		.uleb128 .LEHE38-.LEHB38
 5074 00e3 00       		.uleb128 0
 5075 00e4 00       		.uleb128 0
 5076 00e5 8003     		.uleb128 .LEHB39-.LFB1704
 5077 00e7 04       		.uleb128 .LEHE39-.LEHB39
 5078 00e8 B808     		.uleb128 .L308-.LFB1704
 5079 00ea 00       		.uleb128 0
 5080 00eb 9003     		.uleb128 .LEHB40-.LFB1704
 5081 00ed 04       		.uleb128 .LEHE40-.LEHB40
 5082 00ee B008     		.uleb128 .L315-.LFB1704
 5083 00f0 00       		.uleb128 0
 5084 00f1 A003     		.uleb128 .LEHB41-.LFB1704
 5085 00f3 04       		.uleb128 .LEHE41-.LEHB41
 5086 00f4 8C08     		.uleb128 .L316-.LFB1704
 5087 00f6 00       		.uleb128 0
 5088 00f7 8004     		.uleb128 .LEHB42-.LFB1704
 5089 00f9 04       		.uleb128 .LEHE42-.LEHB42
 5090 00fa 00       		.uleb128 0
 5091 00fb 00       		.uleb128 0
 5092 00fc 8804     		.uleb128 .LEHB43-.LFB1704
 5093 00fe 04       		.uleb128 .LEHE43-.LEHB43
 5094 00ff F407     		.uleb128 .L318-.LFB1704
 5095 0101 00       		.uleb128 0
 5096 0102 9804     		.uleb128 .LEHB44-.LFB1704
 5097 0104 28       		.uleb128 .LEHE44-.LEHB44
 5098 0105 00       		.uleb128 0
 5099 0106 00       		.uleb128 0
 5100 0107 CC04     		.uleb128 .LEHB45-.LFB1704
 5101 0109 04       		.uleb128 .LEHE45-.LEHB45
 5102 010a EC07     		.uleb128 .L307-.LFB1704
 5103 010c 00       		.uleb128 0
 5104 010d DC04     		.uleb128 .LEHB46-.LFB1704
 5105 010f 04       		.uleb128 .LEHE46-.LEHB46
 5106 0110 E407     		.uleb128 .L310-.LFB1704
 5107 0112 00       		.uleb128 0
 5108 0113 EC04     		.uleb128 .LEHB47-.LFB1704
 5109 0115 04       		.uleb128 .LEHE47-.LEHB47
 5110 0116 C007     		.uleb128 .L311-.LFB1704
 5111 0118 00       		.uleb128 0
 5112 0119 B805     		.uleb128 .LEHB48-.LFB1704
 5113 011b 04       		.uleb128 .LEHE48-.LEHB48
 5114 011c 00       		.uleb128 0
 5115 011d 00       		.uleb128 0
 5116 011e C005     		.uleb128 .LEHB49-.LFB1704
 5117 0120 04       		.uleb128 .LEHE49-.LEHB49
 5118 0121 8409     		.uleb128 .L312-.LFB1704
 5119 0123 00       		.uleb128 0
 5120 0124 D005     		.uleb128 .LEHB50-.LFB1704
 5121 0126 04       		.uleb128 .LEHE50-.LEHB50
 5122 0127 00       		.uleb128 0
 5123 0128 00       		.uleb128 0
 5124 0129 D805     		.uleb128 .LEHB51-.LFB1704
 5125 012b 04       		.uleb128 .LEHE51-.LEHB51
 5126 012c C008     		.uleb128 .L317-.LFB1704
 5127 012e 00       		.uleb128 0
 5128 012f E805     		.uleb128 .LEHB52-.LFB1704
 5129 0131 04       		.uleb128 .LEHE52-.LEHB52
 5130 0132 00       		.uleb128 0
 5131 0133 00       		.uleb128 0
 5132 0134 F005     		.uleb128 .LEHB53-.LFB1704
 5133 0136 04       		.uleb128 .LEHE53-.LEHB53
 5134 0137 8808     		.uleb128 .L314-.LFB1704
 5135 0139 00       		.uleb128 0
 5136 013a 8006     		.uleb128 .LEHB54-.LFB1704
 5137 013c 04       		.uleb128 .LEHE54-.LEHB54
 5138 013d 00       		.uleb128 0
 5139 013e 00       		.uleb128 0
 5140 013f 8806     		.uleb128 .LEHB55-.LFB1704
 5141 0141 04       		.uleb128 .LEHE55-.LEHB55
 5142 0142 8809     		.uleb128 .L309-.LFB1704
 5143 0144 00       		.uleb128 0
 5144 0145 9806     		.uleb128 .LEHB56-.LFB1704
 5145 0147 04       		.uleb128 .LEHE56-.LEHB56
 5146 0148 00       		.uleb128 0
 5147 0149 00       		.uleb128 0
 5148 014a A006     		.uleb128 .LEHB57-.LFB1704
 5149 014c 04       		.uleb128 .LEHE57-.LEHB57
 5150 014d CC06     		.uleb128 .L313-.LFB1704
 5151 014f 00       		.uleb128 0
 5152 0150 DC06     		.uleb128 .LEHB58-.LFB1704
 5153 0152 D401     		.uleb128 .LEHE58-.LEHB58
 5154 0154 00       		.uleb128 0
 5155 0155 00       		.uleb128 0
 5156              	.LLSDACSE1704:
 5157              		.section	".text"
 5158              		.size	_ZN12SearchWindow13OnButtonClickEP9GuiButtoniRK6_POINT, .-_ZN12SearchWindow13OnButtonClickEP
 5159              		.section	.text._ZNSt8_Rb_treeIwwSt9_IdentityIwESt4lessIwESaIwEE8_M_eraseEPSt13_Rb_tree_nodeIwE,"ax
 5160              		.align 2
 5161              		.weak	_ZNSt8_Rb_treeIwwSt9_IdentityIwESt4lessIwESaIwEE8_M_eraseEPSt13_Rb_tree_nodeIwE
 5162              		.type	_ZNSt8_Rb_treeIwwSt9_IdentityIwESt4lessIwESaIwEE8_M_eraseEPSt13_Rb_tree_nodeIwE, @function
 5163              	_ZNSt8_Rb_treeIwwSt9_IdentityIwESt4lessIwESaIwEE8_M_eraseEPSt13_Rb_tree_nodeIwE:
 5164              	.LFB1905:
 5165              		.file 15 "d:\\devkitpro\\devkitppc\\bin\\../lib/gcc/powerpc-eabi/4.6.3/../../../../powerpc-eabi/in
 5166              		.loc 15 1068 0
 5167              		.cfi_startproc
 5168              	.LVL382:
 5169 0000 9421FFC8 		stwu 1,-56(1)
 5170              	.LCFI66:
 5171              		.cfi_def_cfa_offset 56
 5172 0004 7C0802A6 		mflr 0
 5173 0008 92C10010 		stw 22,16(1)
 5174              	.LBB4970:
 5175              		.loc 15 1072 0
 5176 000c 7C962379 		mr. 22,4
 5177              		.cfi_offset 22, -40
 5178              		.cfi_register 65, 0
 5179              	.LBE4970:
 5180              		.loc 15 1068 0
 5181 0010 93C10030 		stw 30,48(1)
 5182 0014 7C7E1B78 		mr 30,3
 5183              		.cfi_offset 30, -8
 5184 0018 9001003C 		stw 0,60(1)
 5185 001c 92A1000C 		stw 21,12(1)
 5186 0020 92E10014 		stw 23,20(1)
 5187 0024 93010018 		stw 24,24(1)
 5188 0028 9321001C 		stw 25,28(1)
 5189 002c 93410020 		stw 26,32(1)
 5190 0030 93610024 		stw 27,36(1)
 5191 0034 93810028 		stw 28,40(1)
 5192 0038 93A1002C 		stw 29,44(1)
 5193 003c 93E10034 		stw 31,52(1)
 5194              	.LBB5055:
 5195              		.loc 15 1072 0
 5196 0040 41820168 		beq- 0,.L339
 5197              		.cfi_offset 31, -4
 5198              		.cfi_offset 29, -12
 5199              		.cfi_offset 28, -16
 5200              		.cfi_offset 27, -20
 5201              		.cfi_offset 26, -24
 5202              		.cfi_offset 25, -28
 5203              		.cfi_offset 24, -32
 5204              		.cfi_offset 23, -36
 5205              		.cfi_offset 21, -44
 5206              		.cfi_offset 65, 4
 5207              	.LVL383:
 5208              	.L385:
 5209              		.loc 3 312 0
 5210 0044 8376000C 		lwz 27,12(22)
 5211              	.LVL384:
 5212              	.LBB4971:
 5213              	.LBB4972:
 5214              	.LBB4973:
 5215              		.loc 15 1072 0
 5216 0048 2F9B0000 		cmpwi 7,27,0
 5217 004c 419E0140 		beq- 7,.L341
 5218              	.LVL385:
 5219              	.L386:
 5220              	.LBE4973:
 5221              		.loc 3 312 0
 5222 0050 835B000C 		lwz 26,12(27)
 5223              	.LVL386:
 5224              	.LBB5049:
 5225              	.LBB4974:
 5226              	.LBB4975:
 5227              	.LBB4976:
 5228              		.loc 15 1072 0
 5229 0054 2F9A0000 		cmpwi 7,26,0
 5230 0058 419E0118 		beq- 7,.L342
 5231              	.LVL387:
 5232              	.L387:
 5233              	.LBE4976:
 5234              		.loc 3 312 0
 5235 005c 833A000C 		lwz 25,12(26)
 5236              	.LVL388:
 5237              	.LBB5042:
 5238              	.LBB4977:
 5239              	.LBB4978:
 5240              	.LBB4979:
 5241              		.loc 15 1072 0
 5242 0060 2F990000 		cmpwi 7,25,0
 5243 0064 419E00F0 		beq- 7,.L343
 5244              	.LVL389:
 5245              	.L388:
 5246              	.LBE4979:
 5247              		.loc 3 312 0
 5248 0068 8319000C 		lwz 24,12(25)
 5249              	.LVL390:
 5250              	.LBB5035:
 5251              	.LBB4980:
 5252              	.LBB4981:
 5253              	.LBB4982:
 5254              		.loc 15 1072 0
 5255 006c 2F980000 		cmpwi 7,24,0
 5256 0070 419E00C8 		beq- 7,.L344
 5257              	.LVL391:
 5258              	.L389:
 5259              	.LBE4982:
 5260              		.loc 3 312 0
 5261 0074 82F8000C 		lwz 23,12(24)
 5262              	.LVL392:
 5263              	.LBB5028:
 5264              	.LBB4983:
 5265              	.LBB4984:
 5266              	.LBB4985:
 5267              		.loc 15 1072 0
 5268 0078 2F970000 		cmpwi 7,23,0
 5269 007c 419E00A0 		beq- 7,.L345
 5270              	.LVL393:
 5271              	.L390:
 5272              	.LBE4985:
 5273              		.loc 3 312 0
 5274 0080 8397000C 		lwz 28,12(23)
 5275              	.LVL394:
 5276              	.LBB5021:
 5277              	.LBB4986:
 5278              	.LBB4987:
 5279              	.LBB4988:
 5280              		.loc 15 1072 0
 5281 0084 2F9C0000 		cmpwi 7,28,0
 5282 0088 419E0078 		beq- 7,.L346
 5283              	.LVL395:
 5284              	.L391:
 5285              	.LBE4988:
 5286              		.loc 3 312 0
 5287 008c 83BC000C 		lwz 29,12(28)
 5288              	.LVL396:
 5289              	.LBB5014:
 5290              	.LBB4989:
 5291              	.LBB4990:
 5292              	.LBB4991:
 5293              		.loc 15 1072 0
 5294 0090 2F9D0000 		cmpwi 7,29,0
 5295 0094 419E0050 		beq- 7,.L347
 5296              	.LVL397:
 5297              	.L392:
 5298              	.LBE4991:
 5299              		.loc 3 312 0
 5300 0098 83FD000C 		lwz 31,12(29)
 5301              	.LVL398:
 5302              	.LBB5007:
 5303              	.LBB4992:
 5304              	.LBB4993:
 5305              	.LBB4994:
 5306              		.loc 15 1072 0
 5307 009c 2F9F0000 		cmpwi 7,31,0
 5308 00a0 419E0028 		beq- 7,.L348
 5309              	.LVL399:
 5310              	.L393:
 5311              	.LBB4995:
 5312              		.loc 15 1074 0
 5313 00a4 809F000C 		lwz 4,12(31)
 5314 00a8 7FC3F378 		mr 3,30
 5315 00ac 48000001 		bl _ZNSt8_Rb_treeIwwSt9_IdentityIwESt4lessIwESaIwEE8_M_eraseEPSt13_Rb_tree_nodeIwE
 5316              	.LBE4995:
 5317              	.LBE4994:
 5318              		.loc 3 312 0
 5319 00b0 82BF0008 		lwz 21,8(31)
 5320              	.LVL400:
 5321              	.LBB5001:
 5322              	.LBB5000:
 5323              	.LBB4996:
 5324              	.LBB4997:
 5325              	.LBB4998:
 5326              	.LBB4999:
 5327              		.file 16 "d:\\devkitpro\\devkitppc\\bin\\../lib/gcc/powerpc-eabi/4.6.3/../../../../powerpc-eabi/in
 5328              		.loc 16 98 0
 5329 00b4 7FE3FB78 		mr 3,31
 5330 00b8 48000001 		bl _ZdlPv
 5331              	.LVL401:
 5332              	.LBE4999:
 5333              	.LBE4998:
 5334              	.LBE4997:
 5335              	.LBE4996:
 5336              	.LBE5000:
 5337              		.loc 15 1072 0
 5338 00bc 2F950000 		cmpwi 7,21,0
 5339              		.loc 15 1077 0
 5340 00c0 7EBFAB78 		mr 31,21
 5341              	.LVL402:
 5342              		.loc 15 1072 0
 5343 00c4 409EFFE0 		bne+ 7,.L393
 5344              	.LVL403:
 5345              	.L348:
 5346              	.LBE5001:
 5347              	.LBE4993:
 5348              	.LBE4992:
 5349              	.LBE5007:
 5350              		.loc 3 312 0
 5351 00c8 83FD0008 		lwz 31,8(29)
 5352              	.LVL404:
 5353              	.LBB5008:
 5354              	.LBB5006:
 5355              	.LBB5002:
 5356              	.LBB5003:
 5357              	.LBB5004:
 5358              	.LBB5005:
 5359              		.loc 16 98 0
 5360 00cc 7FA3EB78 		mr 3,29
 5361 00d0 48000001 		bl _ZdlPv
 5362              	.LVL405:
 5363              	.LBE5005:
 5364              	.LBE5004:
 5365              	.LBE5003:
 5366              	.LBE5002:
 5367              	.LBE5006:
 5368              		.loc 15 1072 0
 5369 00d4 2F9F0000 		cmpwi 7,31,0
 5370 00d8 419E000C 		beq- 7,.L347
 5371              		.loc 15 1077 0
 5372 00dc 7FFDFB78 		mr 29,31
 5373              	.LVL406:
 5374 00e0 4BFFFFB8 		b .L392
 5375              	.LVL407:
 5376              	.L347:
 5377              	.LBE5008:
 5378              	.LBE4990:
 5379              	.LBE4989:
 5380              	.LBE5014:
 5381              		.loc 3 312 0
 5382 00e4 83FC0008 		lwz 31,8(28)
 5383              	.LVL408:
 5384              	.LBB5015:
 5385              	.LBB5013:
 5386              	.LBB5009:
 5387              	.LBB5010:
 5388              	.LBB5011:
 5389              	.LBB5012:
 5390              		.loc 16 98 0
 5391 00e8 7F83E378 		mr 3,28
 5392 00ec 48000001 		bl _ZdlPv
 5393              	.LVL409:
 5394              	.LBE5012:
 5395              	.LBE5011:
 5396              	.LBE5010:
 5397              	.LBE5009:
 5398              	.LBE5013:
 5399              		.loc 15 1072 0
 5400 00f0 2F9F0000 		cmpwi 7,31,0
 5401 00f4 419E000C 		beq- 7,.L346
 5402              		.loc 15 1077 0
 5403 00f8 7FFCFB78 		mr 28,31
 5404              	.LVL410:
 5405 00fc 4BFFFF90 		b .L391
 5406              	.LVL411:
 5407              	.L346:
 5408              	.LBE5015:
 5409              	.LBE4987:
 5410              	.LBE4986:
 5411              	.LBE5021:
 5412              		.loc 3 312 0
 5413 0100 83F70008 		lwz 31,8(23)
 5414              	.LVL412:
 5415              	.LBB5022:
 5416              	.LBB5020:
 5417              	.LBB5016:
 5418              	.LBB5017:
 5419              	.LBB5018:
 5420              	.LBB5019:
 5421              		.loc 16 98 0
 5422 0104 7EE3BB78 		mr 3,23
 5423 0108 48000001 		bl _ZdlPv
 5424              	.LVL413:
 5425              	.LBE5019:
 5426              	.LBE5018:
 5427              	.LBE5017:
 5428              	.LBE5016:
 5429              	.LBE5020:
 5430              		.loc 15 1072 0
 5431 010c 2F9F0000 		cmpwi 7,31,0
 5432 0110 419E000C 		beq- 7,.L345
 5433              		.loc 15 1077 0
 5434 0114 7FF7FB78 		mr 23,31
 5435              	.LVL414:
 5436 0118 4BFFFF68 		b .L390
 5437              	.LVL415:
 5438              	.L345:
 5439              	.LBE5022:
 5440              	.LBE4984:
 5441              	.LBE4983:
 5442              	.LBE5028:
 5443              		.loc 3 312 0
 5444 011c 83F80008 		lwz 31,8(24)
 5445              	.LVL416:
 5446              	.LBB5029:
 5447              	.LBB5027:
 5448              	.LBB5023:
 5449              	.LBB5024:
 5450              	.LBB5025:
 5451              	.LBB5026:
 5452              		.loc 16 98 0
 5453 0120 7F03C378 		mr 3,24
 5454 0124 48000001 		bl _ZdlPv
 5455              	.LVL417:
 5456              	.LBE5026:
 5457              	.LBE5025:
 5458              	.LBE5024:
 5459              	.LBE5023:
 5460              	.LBE5027:
 5461              		.loc 15 1072 0
 5462 0128 2F9F0000 		cmpwi 7,31,0
 5463 012c 419E000C 		beq- 7,.L344
 5464              		.loc 15 1077 0
 5465 0130 7FF8FB78 		mr 24,31
 5466              	.LVL418:
 5467 0134 4BFFFF40 		b .L389
 5468              	.LVL419:
 5469              	.L344:
 5470              	.LBE5029:
 5471              	.LBE4981:
 5472              	.LBE4980:
 5473              	.LBE5035:
 5474              		.loc 3 312 0
 5475 0138 83F90008 		lwz 31,8(25)
 5476              	.LVL420:
 5477              	.LBB5036:
 5478              	.LBB5034:
 5479              	.LBB5030:
 5480              	.LBB5031:
 5481              	.LBB5032:
 5482              	.LBB5033:
 5483              		.loc 16 98 0
 5484 013c 7F23CB78 		mr 3,25
 5485 0140 48000001 		bl _ZdlPv
 5486              	.LVL421:
 5487              	.LBE5033:
 5488              	.LBE5032:
 5489              	.LBE5031:
 5490              	.LBE5030:
 5491              	.LBE5034:
 5492              		.loc 15 1072 0
 5493 0144 2F9F0000 		cmpwi 7,31,0
 5494 0148 419E000C 		beq- 7,.L343
 5495              		.loc 15 1077 0
 5496 014c 7FF9FB78 		mr 25,31
 5497              	.LVL422:
 5498 0150 4BFFFF18 		b .L388
 5499              	.LVL423:
 5500              	.L343:
 5501              	.LBE5036:
 5502              	.LBE4978:
 5503              	.LBE4977:
 5504              	.LBE5042:
 5505              		.loc 3 312 0
 5506 0154 83FA0008 		lwz 31,8(26)
 5507              	.LVL424:
 5508              	.LBB5043:
 5509              	.LBB5041:
 5510              	.LBB5037:
 5511              	.LBB5038:
 5512              	.LBB5039:
 5513              	.LBB5040:
 5514              		.loc 16 98 0
 5515 0158 7F43D378 		mr 3,26
 5516 015c 48000001 		bl _ZdlPv
 5517              	.LVL425:
 5518              	.LBE5040:
 5519              	.LBE5039:
 5520              	.LBE5038:
 5521              	.LBE5037:
 5522              	.LBE5041:
 5523              		.loc 15 1072 0
 5524 0160 2F9F0000 		cmpwi 7,31,0
 5525 0164 419E000C 		beq- 7,.L342
 5526              		.loc 15 1077 0
 5527 0168 7FFAFB78 		mr 26,31
 5528              	.LVL426:
 5529 016c 4BFFFEF0 		b .L387
 5530              	.LVL427:
 5531              	.L342:
 5532              	.LBE5043:
 5533              	.LBE4975:
 5534              	.LBE4974:
 5535              	.LBE5049:
 5536              		.loc 3 312 0
 5537 0170 83FB0008 		lwz 31,8(27)
 5538              	.LVL428:
 5539              	.LBB5050:
 5540              	.LBB5048:
 5541              	.LBB5044:
 5542              	.LBB5045:
 5543              	.LBB5046:
 5544              	.LBB5047:
 5545              		.loc 16 98 0
 5546 0174 7F63DB78 		mr 3,27
 5547 0178 48000001 		bl _ZdlPv
 5548              	.LVL429:
 5549              	.LBE5047:
 5550              	.LBE5046:
 5551              	.LBE5045:
 5552              	.LBE5044:
 5553              	.LBE5048:
 5554              		.loc 15 1072 0
 5555 017c 2F9F0000 		cmpwi 7,31,0
 5556 0180 419E000C 		beq- 7,.L341
 5557              		.loc 15 1077 0
 5558 0184 7FFBFB78 		mr 27,31
 5559              	.LVL430:
 5560 0188 4BFFFEC8 		b .L386
 5561              	.LVL431:
 5562              	.L341:
 5563              		.loc 3 312 0
 5564 018c 83F60008 		lwz 31,8(22)
 5565              	.LVL432:
 5566              	.LBE5050:
 5567              	.LBE4972:
 5568              	.LBB5051:
 5569              	.LBB5052:
 5570              	.LBB5053:
 5571              	.LBB5054:
 5572              		.loc 16 98 0
 5573 0190 7EC3B378 		mr 3,22
 5574 0194 48000001 		bl _ZdlPv
 5575              	.LVL433:
 5576              	.LBE5054:
 5577              	.LBE5053:
 5578              	.LBE5052:
 5579              	.LBE5051:
 5580              	.LBE4971:
 5581              		.loc 15 1072 0
 5582 0198 2F9F0000 		cmpwi 7,31,0
 5583 019c 419E000C 		beq- 7,.L339
 5584              		.loc 15 1077 0
 5585 01a0 7FF6FB78 		mr 22,31
 5586              	.LVL434:
 5587 01a4 4BFFFEA0 		b .L385
 5588              	.LVL435:
 5589              	.L339:
 5590              	.LBE5055:
 5591              		.loc 15 1079 0
 5592 01a8 8001003C 		lwz 0,60(1)
 5593 01ac 82A1000C 		lwz 21,12(1)
 5594 01b0 7C0803A6 		mtlr 0
 5595 01b4 82C10010 		lwz 22,16(1)
 5596 01b8 82E10014 		lwz 23,20(1)
 5597 01bc 83010018 		lwz 24,24(1)
 5598 01c0 8321001C 		lwz 25,28(1)
 5599 01c4 83410020 		lwz 26,32(1)
 5600 01c8 83610024 		lwz 27,36(1)
 5601 01cc 83810028 		lwz 28,40(1)
 5602 01d0 83A1002C 		lwz 29,44(1)
 5603 01d4 83C10030 		lwz 30,48(1)
 5604              	.LVL436:
 5605 01d8 83E10034 		lwz 31,52(1)
 5606 01dc 38210038 		addi 1,1,56
 5607              	.LCFI67:
 5608              		.cfi_def_cfa_offset 0
 5609              		.cfi_restore 31
 5610              		.cfi_restore 30
 5611              		.cfi_restore 29
 5612              		.cfi_restore 28
 5613              		.cfi_restore 27
 5614              		.cfi_restore 26
 5615              		.cfi_restore 25
 5616              		.cfi_restore 24
 5617              		.cfi_restore 23
 5618              		.cfi_restore 22
 5619              		.cfi_restore 21
 5620 01e0 4E800020 		blr
 5621              		.cfi_endproc
 5622              	.LFE1905:
 5623              		.size	_ZNSt8_Rb_treeIwwSt9_IdentityIwESt4lessIwESaIwEE8_M_eraseEPSt13_Rb_tree_nodeIwE, .-_ZNSt8_Rb
 5624              		.section	.text._ZNSt6vectorIP10GuiElementSaIS1_EE13_M_insert_auxEN9__gnu_cxx17__normal_iteratorIPS
 5625              		.align 2
 5626              		.weak	_ZNSt6vectorIP10GuiElementSaIS1_EE13_M_insert_auxEN9__gnu_cxx17__normal_iteratorIPS1_S3_EERK
 5627              		.type	_ZNSt6vectorIP10GuiElementSaIS1_EE13_M_insert_auxEN9__gnu_cxx17__normal_iteratorIPS1_S3_EERK
 5628              	_ZNSt6vectorIP10GuiElementSaIS1_EE13_M_insert_auxEN9__gnu_cxx17__normal_iteratorIPS1_S3_EERKS1_:
 5629              	.LFB1921:
 5630              		.file 17 "d:\\devkitpro\\devkitppc\\bin\\../lib/gcc/powerpc-eabi/4.6.3/../../../../powerpc-eabi/in
 5631              		.loc 17 300 0
 5632              		.cfi_startproc
 5633              	.LVL437:
 5634 0000 7C0802A6 		mflr 0
 5635 0004 9421FFD8 		stwu 1,-40(1)
 5636              	.LCFI68:
 5637              		.cfi_def_cfa_offset 40
 5638              		.cfi_register 65, 0
 5639 0008 93610014 		stw 27,20(1)
 5640 000c 9001002C 		stw 0,44(1)
 5641 0010 93C10020 		stw 30,32(1)
 5642              	.LBB5118:
 5643              		.loc 17 304 0
 5644 0014 83630004 		lwz 27,4(3)
 5645              		.cfi_offset 30, -8
 5646              		.cfi_offset 65, 4
 5647              		.cfi_offset 27, -20
 5648 0018 80030008 		lwz 0,8(3)
 5649              	.LBE5118:
 5650              		.loc 17 300 0
 5651 001c 93E10024 		stw 31,36(1)
 5652 0020 7C7F1B78 		mr 31,3
 5653              		.cfi_offset 31, -4
 5654              	.LBB5243:
 5655              		.loc 17 304 0
 5656 0024 7F9B0000 		cmpw 7,27,0
 5657              	.LBE5243:
 5658              		.loc 17 300 0
 5659 0028 93410010 		stw 26,16(1)
 5660 002c 93810018 		stw 28,24(1)
 5661 0030 93A1001C 		stw 29,28(1)
 5662              		.loc 17 300 0
 5663 0034 83C40000 		lwz 30,0(4)
 5664              	.LVL438:
 5665              	.LBB5244:
 5666              		.loc 17 304 0
 5667 0038 419E0078 		beq- 7,.L395
 5668              		.cfi_offset 29, -12
 5669              		.cfi_offset 28, -16
 5670              		.cfi_offset 26, -24
 5671              	.LVL439:
 5672              	.LBB5119:
 5673              	.LBB5120:
 5674              	.LBB5121:
 5675              		.loc 16 108 0
 5676 003c 2F9B0000 		cmpwi 7,27,0
 5677 0040 38600000 		li 3,0
 5678              	.LVL440:
 5679 0044 419E0010 		beq- 7,.L396
 5680 0048 801BFFFC 		lwz 0,-4(27)
 5681 004c 901B0000 		stw 0,0(27)
 5682 0050 807F0004 		lwz 3,4(31)
 5683              	.L396:
 5684              	.LBE5121:
 5685              	.LBE5120:
 5686              		.loc 17 313 0
 5687 0054 3803FFFC 		addi 0,3,-4
 5688              		.loc 17 309 0
 5689 0058 39230004 		addi 9,3,4
 5690              	.LBB5122:
 5691              	.LBB5123:
 5692              	.LBB5124:
 5693              	.LBB5125:
 5694              	.LBB5126:
 5695              	.LBB5127:
 5696              		.file 18 "d:\\devkitpro\\devkitppc\\bin\\../lib/gcc/powerpc-eabi/4.6.3/../../../../powerpc-eabi/in
 5697              		.loc 18 559 0
 5698 005c 7C1E0050 		subf 0,30,0
 5699              	.LBE5127:
 5700              	.LBE5126:
 5701              	.LBE5125:
 5702              	.LBE5124:
 5703              	.LBE5123:
 5704              	.LBE5122:
 5705              		.loc 17 309 0
 5706 0060 913F0004 		stw 9,4(31)
 5707              	.LBB5143:
 5708              	.LBB5140:
 5709              	.LBB5137:
 5710              	.LBB5134:
 5711              	.LBB5131:
 5712              	.LBB5128:
 5713              		.loc 18 560 0
 5714 0064 7C001671 		srawi. 0,0,2
 5715              	.LBE5128:
 5716              	.LBE5131:
 5717              	.LBE5134:
 5718              	.LBE5137:
 5719              	.LBE5140:
 5720              	.LBE5143:
 5721              		.loc 17 311 0
 5722 0068 83E50000 		lwz 31,0(5)
 5723              	.LVL441:
 5724              	.LBB5144:
 5725              	.LBB5141:
 5726              	.LBB5138:
 5727              	.LBB5135:
 5728              	.LBB5132:
 5729              	.LBB5129:
 5730              		.loc 18 560 0
 5731 006c 40820030 		bne- 0,.L411
 5732              	.LVL442:
 5733              	.L397:
 5734              	.LBE5129:
 5735              	.LBE5132:
 5736              	.LBE5135:
 5737              	.LBE5138:
 5738              	.LBE5141:
 5739              	.LBE5144:
 5740              	.LBE5119:
 5741              	.LBE5244:
 5742              		.loc 17 373 0
 5743 0070 8001002C 		lwz 0,44(1)
 5744              	.LBB5245:
 5745              	.LBB5146:
 5746              		.loc 17 317 0
 5747 0074 93FE0000 		stw 31,0(30)
 5748              	.LBE5146:
 5749              	.LBE5245:
 5750              		.loc 17 373 0
 5751 0078 7C0803A6 		mtlr 0
 5752 007c 83410010 		lwz 26,16(1)
 5753 0080 83610014 		lwz 27,20(1)
 5754              	.LVL443:
 5755 0084 83810018 		lwz 28,24(1)
 5756 0088 83A1001C 		lwz 29,28(1)
 5757 008c 83C10020 		lwz 30,32(1)
 5758              	.LVL444:
 5759 0090 83E10024 		lwz 31,36(1)
 5760              	.LVL445:
 5761 0094 38210028 		addi 1,1,40
 5762              		.cfi_remember_state
 5763              	.LCFI69:
 5764              		.cfi_def_cfa_offset 0
 5765              		.cfi_restore 31
 5766              		.cfi_restore 30
 5767              		.cfi_restore 29
 5768              		.cfi_restore 28
 5769              		.cfi_restore 27
 5770              		.cfi_restore 26
 5771 0098 4E800020 		blr
 5772              	.LVL446:
 5773              	.L411:
 5774              	.LCFI70:
 5775              		.cfi_restore_state
 5776              	.LBB5246:
 5777              	.LBB5147:
 5778              	.LBB5145:
 5779              	.LBB5142:
 5780              	.LBB5139:
 5781              	.LBB5136:
 5782              	.LBB5133:
 5783              	.LBB5130:
 5784              		.loc 18 561 0
 5785 009c 5405103A 		slwi 5,0,2
 5786              	.LVL447:
 5787 00a0 7FC4F378 		mr 4,30
 5788 00a4 7C651850 		subf 3,5,3
 5789              	.LVL448:
 5790 00a8 48000001 		bl memmove
 5791              	.LVL449:
 5792 00ac 4BFFFFC4 		b .L397
 5793              	.LVL450:
 5794              	.L395:
 5795              	.LBE5130:
 5796              	.LBE5133:
 5797              	.LBE5136:
 5798              	.LBE5139:
 5799              	.LBE5142:
 5800              	.LBE5145:
 5801              	.LBE5147:
 5802              	.LBB5148:
 5803              	.LBB5149:
 5804              	.LBB5150:
 5805              	.LBB5151:
 5806              	.LBB5152:
 5807              		.loc 13 571 0
 5808 00b0 83830000 		lwz 28,0(3)
 5809 00b4 7F7CD850 		subf 27,28,27
 5810              	.LBE5152:
 5811              	.LBE5151:
 5812              	.LBB5153:
 5813              	.LBB5154:
 5814              		.loc 18 215 0
 5815 00b8 7F7B1671 		srawi. 27,27,2
 5816 00bc 418200E8 		beq- 0,.L399
 5817              	.LBE5154:
 5818              	.LBE5153:
 5819              		.loc 13 1244 0
 5820 00c0 5760083C 		slwi 0,27,1
 5821              	.LVL451:
 5822              		.loc 13 1245 0
 5823 00c4 7F9B0040 		cmplw 7,27,0
 5824 00c8 409D00EC 		ble- 7,.L412
 5825              	.L400:
 5826              	.LVL452:
 5827              	.LBE5150:
 5828              	.LBE5149:
 5829              	.LBB5157:
 5830              	.LBB5158:
 5831              		.loc 12 892 0
 5832 00cc 7F9CF050 		subf 28,28,30
 5833              	.LBE5158:
 5834              	.LBE5157:
 5835              		.loc 17 326 0
 5836 00d0 3B60FFFC 		li 27,-4
 5837              	.LBB5164:
 5838              	.LBB5159:
 5839              		.loc 12 892 0
 5840 00d4 7F9C1670 		srawi 28,28,2
 5841              	.LVL453:
 5842              	.L406:
 5843              	.LBE5159:
 5844              	.LBE5164:
 5845              	.LBB5165:
 5846              	.LBB5166:
 5847              	.LBB5167:
 5848              	.LBB5168:
 5849              		.loc 16 92 0
 5850 00d8 7F63DB78 		mr 3,27
 5851              	.LVL454:
 5852 00dc 90A10008 		stw 5,8(1)
 5853 00e0 48000001 		bl _Znwj
 5854              	.LVL455:
 5855 00e4 80A10008 		lwz 5,8(1)
 5856 00e8 7C7D1B78 		mr 29,3
 5857              	.L401:
 5858              	.LVL456:
 5859              	.LBE5168:
 5860              	.LBE5167:
 5861              	.LBE5166:
 5862              	.LBE5165:
 5863              		.loc 17 335 0
 5864 00ec 579C103A 		slwi 28,28,2
 5865              	.LVL457:
 5866 00f0 7C1DE214 		add 0,29,28
 5867              	.LVL458:
 5868              	.LBB5171:
 5869              	.LBB5172:
 5870              		.loc 16 108 0
 5871 00f4 2F800000 		cmpwi 7,0,0
 5872 00f8 419E000C 		beq- 7,.L402
 5873 00fc 80050000 		lwz 0,0(5)
 5874              	.LVL459:
 5875 0100 7C1DE12E 		stwx 0,29,28
 5876              	.L402:
 5877              	.LVL460:
 5878              	.LBE5172:
 5879              	.LBE5171:
 5880              		.loc 17 343 0
 5881 0104 809F0000 		lwz 4,0(31)
 5882              	.LVL461:
 5883              	.LBB5173:
 5884              	.LBB5174:
 5885              	.LBB5175:
 5886              	.LBB5176:
 5887              	.LBB5177:
 5888              	.LBB5178:
 5889              	.LBB5179:
 5890              	.LBB5180:
 5891              	.LBB5181:
 5892              	.LBB5182:
 5893              	.LBB5183:
 5894              		.loc 18 365 0
 5895 0108 3B800000 		li 28,0
 5896              		.loc 18 364 0
 5897 010c 7C04F050 		subf 0,4,30
 5898              	.LVL462:
 5899              		.loc 18 365 0
 5900 0110 7C001671 		srawi. 0,0,2
 5901              	.LVL463:
 5902 0114 41A20014 		beq+ 0,.L403
 5903              		.loc 18 366 0
 5904 0118 541C103A 		slwi 28,0,2
 5905 011c 7FA3EB78 		mr 3,29
 5906 0120 7F85E378 		mr 5,28
 5907              	.LVL464:
 5908 0124 48000001 		bl memmove
 5909              	.LVL465:
 5910              	.L403:
 5911              	.LBE5183:
 5912              	.LBE5182:
 5913              	.LBE5181:
 5914              	.LBE5180:
 5915              	.LBE5179:
 5916              	.LBE5178:
 5917              	.LBE5177:
 5918              	.LBE5176:
 5919              	.LBE5175:
 5920              	.LBE5174:
 5921              	.LBE5173:
 5922              	.LBB5194:
 5923              	.LBB5195:
 5924              	.LBB5196:
 5925              	.LBB5197:
 5926              	.LBB5198:
 5927              	.LBB5199:
 5928              	.LBB5200:
 5929              	.LBB5201:
 5930              	.LBB5202:
 5931              	.LBB5203:
 5932              	.LBB5204:
 5933              		.loc 18 364 0
 5934 0128 801F0004 		lwz 0,4(31)
 5935              	.LBE5204:
 5936              	.LBE5203:
 5937              	.LBE5202:
 5938              	.LBE5201:
 5939              	.LBE5200:
 5940              	.LBE5199:
 5941              	.LBE5198:
 5942              	.LBE5197:
 5943              	.LBE5196:
 5944              	.LBE5195:
 5945              	.LBE5194:
 5946              	.LBB5225:
 5947              	.LBB5193:
 5948              	.LBB5192:
 5949              	.LBB5191:
 5950              	.LBB5190:
 5951              	.LBB5189:
 5952              	.LBB5188:
 5953              	.LBB5187:
 5954              	.LBB5186:
 5955              	.LBB5185:
 5956              	.LBB5184:
 5957              		.loc 18 367 0
 5958 012c 7F9DE214 		add 28,29,28
 5959              	.LVL466:
 5960              	.LBE5184:
 5961              	.LBE5185:
 5962              	.LBE5186:
 5963              	.LBE5187:
 5964              	.LBE5188:
 5965              	.LBE5189:
 5966              	.LBE5190:
 5967              	.LBE5191:
 5968              	.LBE5192:
 5969              	.LBE5193:
 5970              	.LBE5225:
 5971              		.loc 17 347 0
 5972 0130 3B5C0004 		addi 26,28,4
 5973              	.LBB5226:
 5974              	.LBB5223:
 5975              	.LBB5221:
 5976              	.LBB5219:
 5977              	.LBB5217:
 5978              	.LBB5215:
 5979              	.LBB5213:
 5980              	.LBB5211:
 5981              	.LBB5209:
 5982              	.LBB5207:
 5983              	.LBB5205:
 5984              		.loc 18 365 0
 5985 0134 3B800000 		li 28,0
 5986              		.loc 18 364 0
 5987 0138 7C1E0050 		subf 0,30,0
 5988              	.LVL467:
 5989              		.loc 18 365 0
 5990 013c 7C001671 		srawi. 0,0,2
 5991              	.LVL468:
 5992 0140 41A20018 		beq+ 0,.L404
 5993              		.loc 18 366 0
 5994 0144 541C103A 		slwi 28,0,2
 5995 0148 7F43D378 		mr 3,26
 5996 014c 7FC4F378 		mr 4,30
 5997 0150 7F85E378 		mr 5,28
 5998 0154 48000001 		bl memmove
 5999              	.LVL469:
 6000              	.L404:
 6001              	.LBE5205:
 6002              	.LBE5207:
 6003              	.LBE5209:
 6004              	.LBE5211:
 6005              	.LBE5213:
 6006              	.LBE5215:
 6007              	.LBE5217:
 6008              	.LBE5219:
 6009              	.LBE5221:
 6010              	.LBE5223:
 6011              	.LBE5226:
 6012              		.loc 17 366 0
 6013 0158 807F0000 		lwz 3,0(31)
 6014              	.LBB5227:
 6015              	.LBB5224:
 6016              	.LBB5222:
 6017              	.LBB5220:
 6018              	.LBB5218:
 6019              	.LBB5216:
 6020              	.LBB5214:
 6021              	.LBB5212:
 6022              	.LBB5210:
 6023              	.LBB5208:
 6024              	.LBB5206:
 6025              		.loc 18 367 0
 6026 015c 7F9AE214 		add 28,26,28
 6027              	.LVL470:
 6028              	.LBE5206:
 6029              	.LBE5208:
 6030              	.LBE5210:
 6031              	.LBE5212:
 6032              	.LBE5214:
 6033              	.LBE5216:
 6034              	.LBE5218:
 6035              	.LBE5220:
 6036              	.LBE5222:
 6037              	.LBE5224:
 6038              	.LBE5227:
 6039              	.LBB5228:
 6040              	.LBB5229:
 6041              		.loc 13 155 0
 6042 0160 2F830000 		cmpwi 7,3,0
 6043 0164 419E0008 		beq- 7,.L405
 6044              	.LVL471:
 6045              	.LBB5230:
 6046              	.LBB5231:
 6047              		.loc 16 98 0
 6048 0168 48000001 		bl _ZdlPv
 6049              	.LVL472:
 6050              	.L405:
 6051              	.LBE5231:
 6052              	.LBE5230:
 6053              	.LBE5229:
 6054              	.LBE5228:
 6055              	.LBE5148:
 6056              	.LBE5246:
 6057              		.loc 17 373 0
 6058 016c 8001002C 		lwz 0,44(1)
 6059              	.LBB5247:
 6060              	.LBB5240:
 6061              		.loc 17 371 0
 6062 0170 7F7DDA14 		add 27,29,27
 6063              		.loc 17 369 0
 6064 0174 93BF0000 		stw 29,0(31)
 6065              	.LBE5240:
 6066              	.LBE5247:
 6067              		.loc 17 373 0
 6068 0178 7C0803A6 		mtlr 0
 6069              	.LBB5248:
 6070              	.LBB5241:
 6071              		.loc 17 370 0
 6072 017c 939F0004 		stw 28,4(31)
 6073              		.loc 17 371 0
 6074 0180 937F0008 		stw 27,8(31)
 6075              	.LBE5241:
 6076              	.LBE5248:
 6077              		.loc 17 373 0
 6078 0184 83410010 		lwz 26,16(1)
 6079              	.LVL473:
 6080 0188 83610014 		lwz 27,20(1)
 6081 018c 83810018 		lwz 28,24(1)
 6082 0190 83A1001C 		lwz 29,28(1)
 6083              	.LVL474:
 6084 0194 83C10020 		lwz 30,32(1)
 6085              	.LVL475:
 6086 0198 83E10024 		lwz 31,36(1)
 6087              	.LVL476:
 6088 019c 38210028 		addi 1,1,40
 6089              		.cfi_remember_state
 6090              		.cfi_restore 26
 6091              		.cfi_restore 27
 6092              		.cfi_restore 28
 6093              		.cfi_restore 29
 6094              		.cfi_restore 30
 6095              		.cfi_restore 31
 6096              	.LCFI71:
 6097              		.cfi_def_cfa_offset 0
 6098 01a0 4E800020 		blr
 6099              	.LVL477:
 6100              	.L399:
 6101              	.LCFI72:
 6102              		.cfi_restore_state
 6103              	.LBB5249:
 6104              	.LBB5242:
 6105              	.LBB5232:
 6106              	.LBB5160:
 6107              		.loc 12 892 0
 6108 01a4 7F9CF050 		subf 28,28,30
 6109              	.LBE5160:
 6110              	.LBE5232:
 6111              		.loc 17 326 0
 6112 01a8 3B600004 		li 27,4
 6113              	.LBB5233:
 6114              	.LBB5161:
 6115              		.loc 12 892 0
 6116 01ac 7F9C1670 		srawi 28,28,2
 6117              	.LVL478:
 6118 01b0 4BFFFF28 		b .L406
 6119              	.LVL479:
 6120              	.L412:
 6121              	.LBE5161:
 6122              	.LBE5233:
 6123              	.LBB5234:
 6124              	.LBB5155:
 6125              		.loc 13 1245 0
 6126 01b4 3D203FFF 		lis 9,0x3fff
 6127 01b8 6129FFFF 		ori 9,9,65535
 6128 01bc 7F804840 		cmplw 7,0,9
 6129 01c0 419DFF0C 		bgt+ 7,.L400
 6130              	.LBE5155:
 6131              	.LBE5234:
 6132              	.LBB5235:
 6133              	.LBB5169:
 6134              		.loc 13 150 0
 6135 01c4 2F800000 		cmpwi 7,0,0
 6136              	.LBE5169:
 6137              	.LBE5235:
 6138              	.LBB5236:
 6139              	.LBB5162:
 6140              		.loc 12 892 0
 6141 01c8 7F9CF050 		subf 28,28,30
 6142              	.LBE5162:
 6143              	.LBE5236:
 6144              	.LBB5237:
 6145              	.LBB5156:
 6146              		.loc 13 1245 0
 6147 01cc 577B1838 		slwi 27,27,3
 6148              	.LVL480:
 6149              	.LBE5156:
 6150              	.LBE5237:
 6151              	.LBB5238:
 6152              	.LBB5163:
 6153              		.loc 12 892 0
 6154 01d0 7F9C1670 		srawi 28,28,2
 6155              	.LVL481:
 6156              	.LBE5163:
 6157              	.LBE5238:
 6158              	.LBB5239:
 6159              	.LBB5170:
 6160              		.loc 13 150 0
 6161 01d4 3BA00000 		li 29,0
 6162 01d8 419EFF14 		beq+ 7,.L401
 6163 01dc 4BFFFEFC 		b .L406
 6164              	.LBE5170:
 6165              	.LBE5239:
 6166              	.LBE5242:
 6167              	.LBE5249:
 6168              		.cfi_endproc
 6169              	.LFE1921:
 6170              		.size	_ZNSt6vectorIP10GuiElementSaIS1_EE13_M_insert_auxEN9__gnu_cxx17__normal_iteratorIPS1_S3_EERK
 6171              		.section	".text"
 6172              		.align 2
 6173              		.globl _ZN12SearchWindow6UpdateEP10GuiTrigger
 6174              		.type	_ZN12SearchWindow6UpdateEP10GuiTrigger, @function
 6175              	_ZN12SearchWindow6UpdateEP10GuiTrigger:
 6176              	.LFB1703:
 6177              		.loc 3 224 0
 6178              		.cfi_startproc
 6179              		.cfi_personality 0,__gxx_personality_v0
 6180              		.cfi_lsda 0,.LLSDA1703
 6181              	.LVL482:
 6182 0cb8 7C0802A6 		mflr 0
 6183 0cbc 9421FFC0 		stwu 1,-64(1)
 6184              	.LCFI73:
 6185              		.cfi_def_cfa_offset 64
 6186              		.cfi_register 65, 0
 6187 0cc0 93C10038 		stw 30,56(1)
 6188 0cc4 7C9E2378 		mr 30,4
 6189              		.cfi_offset 30, -8
 6190 0cc8 90010044 		stw 0,68(1)
 6191 0ccc 93E1003C 		stw 31,60(1)
 6192 0cd0 7C7F1B78 		mr 31,3
 6193              		.cfi_offset 31, -4
 6194              		.cfi_offset 65, 4
 6195              	.LBB5319:
 6196              	.LBB5320:
 6197              		.loc 13 571 0
 6198 0cd4 812300A8 		lwz 9,168(3)
 6199 0cd8 800300A4 		lwz 0,164(3)
 6200              	.LBE5320:
 6201              	.LBE5319:
 6202              		.loc 3 224 0
 6203 0cdc 9361002C 		stw 27,44(1)
 6204              	.LBB5322:
 6205              	.LBB5321:
 6206              		.loc 13 571 0
 6207 0ce0 7C004850 		subf 0,0,9
 6208              	.LBE5321:
 6209              	.LBE5322:
 6210              		.loc 3 224 0
 6211 0ce4 93810030 		stw 28,48(1)
 6212              		.loc 3 225 0
 6213 0ce8 5408F0BF 		srwi. 8,0,2
 6214              		.loc 3 224 0
 6215 0cec 93A10034 		stw 29,52(1)
 6216              		.loc 3 225 0
 6217 0cf0 41820094 		beq- 0,.L413
 6218              		.cfi_offset 29, -12
 6219              		.cfi_offset 28, -16
 6220              		.cfi_offset 27, -20
 6221              		.loc 3 225 0 is_stmt 0 discriminator 2
 6222 0cf4 80030048 		lwz 0,72(3)
 6223 0cf8 2F800004 		cmpwi 7,0,4
 6224 0cfc 419E00AC 		beq- 7,.L446
 6225              	.L415:
 6226              	.LVL483:
 6227              	.LBB5323:
 6228              	.LBB5324:
 6229              		.loc 3 228 0 is_stmt 1
 6230 0d00 813E000C 		lwz 9,12(30)
 6231 0d04 800900AC 		lwz 0,172(9)
 6232 0d08 2F000000 		cmpwi 6,0,0
 6233 0d0c 419A006C 		beq- 6,.L416
 6234 0d10 419E0068 		beq- 7,.L416
 6235              		.loc 3 230 0
 6236 0d14 C1A900B0 		lfs 13,176(9)
 6237 0d18 39410020 		addi 10,1,32
 6238 0d1c C00900B4 		lfs 0,180(9)
 6239 0d20 7FE3FB78 		mr 3,31
 6240              	.LVL484:
 6241 0d24 813F0000 		lwz 9,0(31)
 6242 0d28 FDA0681E 		fctiwz 13,13
 6243 0d2c FC00001E 		fctiwz 0,0
 6244 0d30 800900A4 		lwz 0,164(9)
 6245 0d34 3921001C 		addi 9,1,28
 6246 0d38 7DA04FAE 		stfiwx 13,0,9
 6247 0d3c 7C0057AE 		stfiwx 0,0,10
 6248 0d40 7C0903A6 		mtctr 0
 6249 0d44 8081001C 		lwz 4,28(1)
 6250              	.LVL485:
 6251 0d48 80A10020 		lwz 5,32(1)
 6252              	.LEHB59:
 6253 0d4c 4E800421 		bctrl
 6254              		.loc 3 232 0
 6255 0d50 A01F00CC 		lhz 0,204(31)
 6256              		.loc 3 230 0
 6257 0d54 2F830000 		cmpwi 7,3,0
 6258 0d58 419E0080 		beq- 7,.L417
 6259              		.loc 3 232 0
 6260 0d5c 2F800000 		cmpwi 7,0,0
 6261 0d60 419E0104 		beq- 7,.L447
 6262              	.LVL486:
 6263              	.L418:
 6264              		.loc 3 237 0
 6265 0d64 813E0008 		lwz 9,8(30)
 6266 0d68 39600001 		li 11,1
 6267 0d6c 7D694830 		slw 9,11,9
 6268 0d70 7C004B78 		or 0,0,9
 6269 0d74 B01F00CC 		sth 0,204(31)
 6270              	.L416:
 6271              		.loc 3 249 0
 6272 0d78 7FE3FB78 		mr 3,31
 6273 0d7c 7FC4F378 		mr 4,30
 6274 0d80 48000001 		bl _ZN8GuiFrame6UpdateEP10GuiTrigger
 6275              	.LVL487:
 6276              	.L413:
 6277              	.LBE5324:
 6278              	.LBE5323:
 6279              		.loc 3 250 0
 6280 0d84 80010044 		lwz 0,68(1)
 6281 0d88 8361002C 		lwz 27,44(1)
 6282 0d8c 7C0803A6 		mtlr 0
 6283 0d90 83810030 		lwz 28,48(1)
 6284 0d94 83A10034 		lwz 29,52(1)
 6285 0d98 83C10038 		lwz 30,56(1)
 6286              	.LVL488:
 6287 0d9c 83E1003C 		lwz 31,60(1)
 6288              	.LVL489:
 6289 0da0 38210040 		addi 1,1,64
 6290              		.cfi_remember_state
 6291              	.LCFI74:
 6292              		.cfi_def_cfa_offset 0
 6293              		.cfi_restore 31
 6294              		.cfi_restore 30
 6295              		.cfi_restore 29
 6296              		.cfi_restore 28
 6297              		.cfi_restore 27
 6298 0da4 4E800020 		blr
 6299              	.LVL490:
 6300              	.L446:
 6301              	.LCFI75:
 6302              		.cfi_restore_state
 6303              		.loc 3 225 0 discriminator 3
 6304 0da8 80030060 		lwz 0,96(3)
 6305 0dac 2F000000 		cmpwi 6,0,0
 6306 0db0 41BAFF50 		beq- 6,.L415
 6307              		.loc 3 250 0
 6308 0db4 80010044 		lwz 0,68(1)
 6309 0db8 8361002C 		lwz 27,44(1)
 6310 0dbc 7C0803A6 		mtlr 0
 6311 0dc0 83810030 		lwz 28,48(1)
 6312 0dc4 83A10034 		lwz 29,52(1)
 6313 0dc8 83C10038 		lwz 30,56(1)
 6314 0dcc 83E1003C 		lwz 31,60(1)
 6315 0dd0 38210040 		addi 1,1,64
 6316              		.cfi_remember_state
 6317              		.cfi_restore 27
 6318              		.cfi_restore 28
 6319              		.cfi_restore 29
 6320              		.cfi_restore 30
 6321              		.cfi_restore 31
 6322              	.LCFI76:
 6323              		.cfi_def_cfa_offset 0
 6324 0dd4 4E800020 		blr
 6325              	.LVL491:
 6326              	.L417:
 6327              	.LCFI77:
 6328              		.cfi_restore_state
 6329              	.LBB5421:
 6330              	.LBB5420:
 6331              		.loc 3 239 0
 6332 0dd8 2F800000 		cmpwi 7,0,0
 6333 0ddc 41BEFF9C 		beq- 7,.L416
 6334              		.loc 3 241 0
 6335 0de0 813E0008 		lwz 9,8(30)
 6336 0de4 3960FFFE 		li 11,-2
 6337 0de8 5D69483E 		rlwnm 9,11,9,0xffffffff
 6338 0dec 7D200038 		and 0,9,0
 6339              		.loc 3 242 0
 6340 0df0 2F800000 		cmpwi 7,0,0
 6341              		.loc 3 241 0
 6342 0df4 B01F00CC 		sth 0,204(31)
 6343              		.loc 3 242 0
 6344 0df8 409EFF80 		bne+ 7,.L416
 6345              	.LBB5325:
 6346              	.LBB5326:
 6347              		.loc 14 27 0
 6348 0dfc 3F800000 		lis 28,_ZN11Application8instanceE@ha
 6349 0e00 83BC0000 		lwz 29,_ZN11Application8instanceE@l(28)
 6350 0e04 2F9D0000 		cmpwi 7,29,0
 6351 0e08 419E01E4 		beq- 7,.L448
 6352              	.L428:
 6353              	.LVL492:
 6354              	.LBE5326:
 6355              	.LBE5325:
 6356              	.LBB5329:
 6357              		.loc 3 312 0
 6358 0e0c 813D025C 		lwz 9,604(29)
 6359              	.LBB5330:
 6360              		.loc 14 69 0
 6361 0e10 3B800000 		li 28,0
 6362              	.LBE5330:
 6363              		.loc 3 312 0
 6364 0e14 817D0260 		lwz 11,608(29)
 6365              	.LBB5356:
 6366              		.loc 14 69 0
 6367 0e18 7D204B78 		mr 0,9
 6368              	.LBB5331:
 6369              	.LBB5332:
 6370              		.loc 13 571 0
 6371 0e1c 7D495850 		subf 10,9,11
 6372              	.LBE5332:
 6373              	.LBE5331:
 6374              		.loc 14 69 0
 6375 0e20 5548F0BF 		srwi. 8,10,2
 6376 0e24 40A2000C 		bne+ 0,.L443
 6377 0e28 4800002C 		b .L430
 6378              	.LVL493:
 6379              	.L439:
 6380              		.loc 3 312 0
 6381 0e2c 7C090378 		mr 9,0
 6382              	.LVL494:
 6383              	.L443:
 6384              	.LBE5356:
 6385              	.LBE5329:
 6386              	.LBB5359:
 6387              	.LBB5327:
 6388              		.loc 3 223 0
 6389 0e30 579B103A 		slwi 27,28,2
 6390              	.LBE5327:
 6391              	.LBE5359:
 6392              	.LBB5360:
 6393              	.LBB5357:
 6394              		.loc 14 70 0
 6395 0e34 7D29D82E 		lwzx 9,9,27
 6396 0e38 7F9F4800 		cmpw 7,31,9
 6397 0e3c 419E012C 		beq- 7,.L449
 6398              	.L432:
 6399              	.LBB5335:
 6400              	.LBB5333:
 6401              		.loc 13 571 0
 6402 0e40 7D205850 		subf 9,0,11
 6403              	.LBE5333:
 6404              	.LBE5335:
 6405              		.loc 14 69 0
 6406 0e44 3B9C0001 		addi 28,28,1
 6407              	.LVL495:
 6408              	.LBB5336:
 6409              	.LBB5334:
 6410              		.loc 13 571 0
 6411 0e48 7D291670 		srawi 9,9,2
 6412              	.LBE5334:
 6413              	.LBE5336:
 6414              		.loc 14 69 0
 6415 0e4c 7F9C4840 		cmplw 7,28,9
 6416 0e50 419CFFDC 		blt+ 7,.L439
 6417              	.LVL496:
 6418              	.L430:
 6419              	.LBE5357:
 6420              	.LBE5360:
 6421              		.loc 3 245 0
 6422 0e54 7FE3FB78 		mr 3,31
 6423 0e58 38800000 		li 4,0
 6424 0e5c 48000001 		bl _ZN8GuiFrame13DimBackgroundEb
 6425 0e60 4BFFFF18 		b .L416
 6426              	.LVL497:
 6427              	.L447:
 6428              	.LBB5361:
 6429              	.LBB5362:
 6430              		.loc 14 27 0
 6431 0e64 3F800000 		lis 28,_ZN11Application8instanceE@ha
 6432 0e68 83BC0000 		lwz 29,_ZN11Application8instanceE@l(28)
 6433 0e6c 2F9D0000 		cmpwi 7,29,0
 6434 0e70 419E014C 		beq- 7,.L450
 6435              	.L419:
 6436              	.LBE5362:
 6437              	.LBE5361:
 6438              	.LBB5366:
 6439              	.LBB5367:
 6440              	.LBB5368:
 6441              		.loc 3 312 0
 6442 0e74 813D025C 		lwz 9,604(29)
 6443              	.LBB5369:
 6444              		.loc 14 69 0
 6445 0e78 3B800000 		li 28,0
 6446              	.LBE5369:
 6447              		.loc 3 312 0
 6448 0e7c 817D0260 		lwz 11,608(29)
 6449              	.LBE5368:
 6450              	.LBE5367:
 6451              	.LBE5366:
 6452              	.LBB5411:
 6453              	.LBB5363:
 6454              		.loc 14 27 0
 6455 0e80 93E10008 		stw 31,8(1)
 6456              	.LVL498:
 6457              	.LBE5363:
 6458              	.LBE5411:
 6459              	.LBB5412:
 6460              	.LBB5407:
 6461              	.LBB5398:
 6462              	.LBB5395:
 6463              	.LBB5370:
 6464              	.LBB5371:
 6465              		.loc 13 571 0
 6466 0e84 7C095850 		subf 0,9,11
 6467              	.LBE5371:
 6468              	.LBE5370:
 6469              		.loc 14 69 0
 6470 0e88 5408F0BF 		srwi. 8,0,2
 6471 0e8c 7D204B78 		mr 0,9
 6472 0e90 40A2000C 		bne+ 0,.L442
 6473 0e94 4800002C 		b .L421
 6474              	.LVL499:
 6475              	.L436:
 6476              		.loc 3 312 0
 6477 0e98 7C090378 		mr 9,0
 6478              	.LVL500:
 6479              	.L442:
 6480              	.LBE5395:
 6481              	.LBE5398:
 6482              	.LBE5407:
 6483              	.LBE5412:
 6484              	.LBB5413:
 6485              	.LBB5364:
 6486              		.loc 3 223 0
 6487 0e9c 579B103A 		slwi 27,28,2
 6488              	.LBE5364:
 6489              	.LBE5413:
 6490              	.LBB5414:
 6491              	.LBB5408:
 6492              	.LBB5399:
 6493              	.LBB5396:
 6494              		.loc 14 70 0
 6495 0ea0 7D29D82E 		lwzx 9,9,27
 6496 0ea4 7F9F4800 		cmpw 7,31,9
 6497 0ea8 419E006C 		beq- 7,.L451
 6498              	.L423:
 6499              	.LBB5374:
 6500              	.LBB5372:
 6501              		.loc 13 571 0
 6502 0eac 7D205850 		subf 9,0,11
 6503              	.LBE5372:
 6504              	.LBE5374:
 6505              		.loc 14 69 0
 6506 0eb0 3B9C0001 		addi 28,28,1
 6507              	.LVL501:
 6508              	.LBB5375:
 6509              	.LBB5373:
 6510              		.loc 13 571 0
 6511 0eb4 7D291670 		srawi 9,9,2
 6512              	.LBE5373:
 6513              	.LBE5375:
 6514              		.loc 14 69 0
 6515 0eb8 7F9C4840 		cmplw 7,28,9
 6516 0ebc 419CFFDC 		blt+ 7,.L436
 6517              	.LVL502:
 6518              	.L421:
 6519              	.LBE5396:
 6520              	.LBE5399:
 6521              		.loc 14 62 0
 6522 0ec0 807D0274 		lwz 3,628(29)
 6523 0ec4 48000001 		bl LWP_MutexLock
 6524              	.LVL503:
 6525              	.LBB5400:
 6526              	.LBB5401:
 6527              		.loc 13 828 0
 6528 0ec8 813D0260 		lwz 9,608(29)
 6529 0ecc 801D0264 		lwz 0,612(29)
 6530 0ed0 7F890000 		cmpw 7,9,0
 6531 0ed4 419E0100 		beq- 7,.L425
 6532              	.LVL504:
 6533              	.LBB5402:
 6534              	.LBB5403:
 6535              		.loc 16 108 0
 6536 0ed8 2F890000 		cmpwi 7,9,0
 6537 0edc 39600000 		li 11,0
 6538 0ee0 419E0010 		beq- 7,.L426
 6539 0ee4 80010008 		lwz 0,8(1)
 6540 0ee8 90090000 		stw 0,0(9)
 6541 0eec 817D0260 		lwz 11,608(29)
 6542              	.L426:
 6543              	.LBE5403:
 6544              	.LBE5402:
 6545              		.loc 13 831 0
 6546 0ef0 396B0004 		addi 11,11,4
 6547 0ef4 917D0260 		stw 11,608(29)
 6548              	.LVL505:
 6549              	.L427:
 6550              	.LBE5401:
 6551              	.LBE5400:
 6552              		.loc 14 64 0
 6553 0ef8 807D0274 		lwz 3,628(29)
 6554 0efc 48000001 		bl LWP_MutexUnlock
 6555              	.LBE5408:
 6556              	.LBE5414:
 6557              		.loc 3 235 0
 6558 0f00 7FE3FB78 		mr 3,31
 6559 0f04 38800001 		li 4,1
 6560 0f08 48000001 		bl _ZN8GuiFrame13DimBackgroundEb
 6561 0f0c A01F00CC 		lhz 0,204(31)
 6562 0f10 4BFFFE54 		b .L418
 6563              	.LVL506:
 6564              	.L451:
 6565              	.LBB5415:
 6566              	.LBB5409:
 6567              	.LBB5405:
 6568              	.LBB5397:
 6569              		.loc 14 71 0
 6570 0f14 807D0274 		lwz 3,628(29)
 6571 0f18 48000001 		bl LWP_MutexLock
 6572              	.LVL507:
 6573              	.LBB5376:
 6574              	.LBB5377:
 6575              		.loc 12 773 0
 6576 0f1c 807D025C 		lwz 3,604(29)
 6577              	.LBE5377:
 6578              	.LBE5376:
 6579              	.LBB5379:
 6580              	.LBB5380:
 6581              	.LBB5381:
 6582              		.loc 3 312 0
 6583 0f20 813D0260 		lwz 9,608(29)
 6584              	.LBE5381:
 6585              	.LBE5380:
 6586              	.LBE5379:
 6587              	.LBB5392:
 6588              	.LBB5378:
 6589              		.loc 12 773 0
 6590 0f24 7C63DA14 		add 3,3,27
 6591              	.LVL508:
 6592              	.LBE5378:
 6593              	.LBE5392:
 6594              	.LBB5393:
 6595              	.LBB5390:
 6596              	.LBB5382:
 6597              	.LBB5383:
 6598 0f28 38830004 		addi 4,3,4
 6599              	.LVL509:
 6600              	.LBE5383:
 6601              	.LBE5382:
 6602              		.loc 17 138 0
 6603 0f2c 7F844800 		cmpw 7,4,9
 6604 0f30 419E001C 		beq- 7,.L424
 6605              	.LVL510:
 6606              	.LBB5384:
 6607              	.LBB5385:
 6608              	.LBB5386:
 6609              	.LBB5387:
 6610              	.LBB5388:
 6611              	.LBB5389:
 6612              		.loc 18 364 0
 6613 0f34 7CA44850 		subf 5,4,9
 6614              	.LVL511:
 6615              		.loc 18 365 0
 6616 0f38 7CA51671 		srawi. 5,5,2
 6617              	.LVL512:
 6618 0f3c 41A20010 		beq+ 0,.L424
 6619              		.loc 18 366 0
 6620 0f40 54A5103A 		slwi 5,5,2
 6621              	.LVL513:
 6622 0f44 48000001 		bl memmove
 6623              	.LVL514:
 6624 0f48 813D0260 		lwz 9,608(29)
 6625              	.LVL515:
 6626              	.L424:
 6627              	.LBE5389:
 6628              	.LBE5388:
 6629              	.LBE5387:
 6630              	.LBE5386:
 6631              	.LBE5385:
 6632              	.LBE5384:
 6633              		.loc 17 140 0
 6634 0f4c 3929FFFC 		addi 9,9,-4
 6635              	.LBE5390:
 6636              	.LBE5393:
 6637              		.loc 14 73 0
 6638 0f50 807D0274 		lwz 3,628(29)
 6639              	.LBB5394:
 6640              	.LBB5391:
 6641              		.loc 17 140 0
 6642 0f54 913D0260 		stw 9,608(29)
 6643              	.LBE5391:
 6644              	.LBE5394:
 6645              		.loc 14 73 0
 6646 0f58 48000001 		bl LWP_MutexUnlock
 6647 0f5c 801D025C 		lwz 0,604(29)
 6648 0f60 817D0260 		lwz 11,608(29)
 6649 0f64 4BFFFF48 		b .L423
 6650              	.LVL516:
 6651              	.L449:
 6652              	.LBE5397:
 6653              	.LBE5405:
 6654              	.LBE5409:
 6655              	.LBE5415:
 6656              	.LBB5416:
 6657              	.LBB5358:
 6658              		.loc 14 71 0
 6659 0f68 807D0274 		lwz 3,628(29)
 6660 0f6c 48000001 		bl LWP_MutexLock
 6661              	.LVL517:
 6662              	.LBB5337:
 6663              	.LBB5338:
 6664              		.loc 12 773 0
 6665 0f70 807D025C 		lwz 3,604(29)
 6666              	.LBE5338:
 6667              	.LBE5337:
 6668              	.LBB5340:
 6669              	.LBB5341:
 6670              	.LBB5342:
 6671              		.loc 3 312 0
 6672 0f74 813D0260 		lwz 9,608(29)
 6673              	.LBE5342:
 6674              	.LBE5341:
 6675              	.LBE5340:
 6676              	.LBB5353:
 6677              	.LBB5339:
 6678              		.loc 12 773 0
 6679 0f78 7C63DA14 		add 3,3,27
 6680              	.LVL518:
 6681              	.LBE5339:
 6682              	.LBE5353:
 6683              	.LBB5354:
 6684              	.LBB5351:
 6685              	.LBB5343:
 6686              	.LBB5344:
 6687 0f7c 38830004 		addi 4,3,4
 6688              	.LVL519:
 6689              	.LBE5344:
 6690              	.LBE5343:
 6691              		.loc 17 138 0
 6692 0f80 7F844800 		cmpw 7,4,9
 6693 0f84 419E001C 		beq- 7,.L433
 6694              	.LVL520:
 6695              	.LBB5345:
 6696              	.LBB5346:
 6697              	.LBB5347:
 6698              	.LBB5348:
 6699              	.LBB5349:
 6700              	.LBB5350:
 6701              		.loc 18 364 0
 6702 0f88 7CA44850 		subf 5,4,9
 6703              	.LVL521:
 6704              		.loc 18 365 0
 6705 0f8c 7CA51671 		srawi. 5,5,2
 6706              	.LVL522:
 6707 0f90 41A20010 		beq+ 0,.L433
 6708              		.loc 18 366 0
 6709 0f94 54A5103A 		slwi 5,5,2
 6710              	.LVL523:
 6711 0f98 48000001 		bl memmove
 6712              	.LVL524:
 6713 0f9c 813D0260 		lwz 9,608(29)
 6714              	.LVL525:
 6715              	.L433:
 6716              	.LBE5350:
 6717              	.LBE5349:
 6718              	.LBE5348:
 6719              	.LBE5347:
 6720              	.LBE5346:
 6721              	.LBE5345:
 6722              		.loc 17 140 0
 6723 0fa0 3929FFFC 		addi 9,9,-4
 6724              	.LBE5351:
 6725              	.LBE5354:
 6726              		.loc 14 73 0
 6727 0fa4 807D0274 		lwz 3,628(29)
 6728              	.LBB5355:
 6729              	.LBB5352:
 6730              		.loc 17 140 0
 6731 0fa8 913D0260 		stw 9,608(29)
 6732              	.LBE5352:
 6733              	.LBE5355:
 6734              		.loc 14 73 0
 6735 0fac 48000001 		bl LWP_MutexUnlock
 6736 0fb0 801D025C 		lwz 0,604(29)
 6737 0fb4 817D0260 		lwz 11,608(29)
 6738 0fb8 4BFFFE88 		b .L432
 6739              	.LVL526:
 6740              	.L450:
 6741              	.LBE5358:
 6742              	.LBE5416:
 6743              	.LBB5417:
 6744              	.LBB5365:
 6745              		.loc 14 27 0
 6746 0fbc 38600278 		li 3,632
 6747 0fc0 48000001 		bl _Znwj
 6748              	.LEHE59:
 6749 0fc4 7C7D1B78 		mr 29,3
 6750              	.LEHB60:
 6751 0fc8 48000001 		bl _ZN11ApplicationC1Ev
 6752              	.LEHE60:
 6753 0fcc 93BC0000 		stw 29,_ZN11Application8instanceE@l(28)
 6754 0fd0 4BFFFEA4 		b .L419
 6755              	.LVL527:
 6756              	.L425:
 6757              	.LBE5365:
 6758              	.LBE5417:
 6759              	.LBB5418:
 6760              	.LBB5410:
 6761              	.LBB5406:
 6762              	.LBB5404:
 6763              		.loc 13 834 0
 6764 0fd4 7C240B78 		mr 4,1
 6765 0fd8 387D025C 		addi 3,29,604
 6766 0fdc 95240018 		stwu 9,24(4)
 6767 0fe0 38A10008 		addi 5,1,8
 6768              	.LEHB61:
 6769 0fe4 48000001 		bl _ZNSt6vectorIP10GuiElementSaIS1_EE13_M_insert_auxEN9__gnu_cxx17__normal_iteratorIPS1_S3_EERKS1_
 6770 0fe8 4BFFFF10 		b .L427
 6771              	.LVL528:
 6772              	.L448:
 6773              	.LBE5404:
 6774              	.LBE5406:
 6775              	.LBE5410:
 6776              	.LBE5418:
 6777              	.LBB5419:
 6778              	.LBB5328:
 6779              		.loc 14 27 0
 6780 0fec 38600278 		li 3,632
 6781 0ff0 48000001 		bl _Znwj
 6782              	.LEHE61:
 6783 0ff4 7C7D1B78 		mr 29,3
 6784              	.LEHB62:
 6785 0ff8 48000001 		bl _ZN11ApplicationC1Ev
 6786              	.LEHE62:
 6787 0ffc 93BC0000 		stw 29,_ZN11Application8instanceE@l(28)
 6788 1000 4BFFFE0C 		b .L428
 6789              	.L440:
 6790              	.L444:
 6791 1004 7C7F1B78 		mr 31,3
 6792              	.LVL529:
 6793 1008 7FA3EB78 		mr 3,29
 6794 100c 48000001 		bl _ZdlPv
 6795 1010 7FE3FB78 		mr 3,31
 6796              	.LEHB63:
 6797 1014 48000001 		bl _Unwind_Resume
 6798              	.LEHE63:
 6799              	.LVL530:
 6800              	.L441:
 6801 1018 4BFFFFEC 		b .L444
 6802              	.LBE5328:
 6803              	.LBE5419:
 6804              	.LBE5420:
 6805              	.LBE5421:
 6806              		.cfi_endproc
 6807              	.LFE1703:
 6808              		.section	.gcc_except_table
 6809              	.LLSDA1703:
 6810 0156 FF       		.byte	0xff
 6811 0157 FF       		.byte	0xff
 6812 0158 01       		.byte	0x1
 6813 0159 1C       		.uleb128 .LLSDACSE1703-.LLSDACSB1703
 6814              	.LLSDACSB1703:
 6815 015a 9401     		.uleb128 .LEHB59-.LFB1703
 6816 015c F804     		.uleb128 .LEHE59-.LEHB59
 6817 015e 00       		.uleb128 0
 6818 015f 00       		.uleb128 0
 6819 0160 9006     		.uleb128 .LEHB60-.LFB1703
 6820 0162 04       		.uleb128 .LEHE60-.LEHB60
 6821 0163 CC06     		.uleb128 .L440-.LFB1703
 6822 0165 00       		.uleb128 0
 6823 0166 AC06     		.uleb128 .LEHB61-.LFB1703
 6824 0168 10       		.uleb128 .LEHE61-.LEHB61
 6825 0169 00       		.uleb128 0
 6826 016a 00       		.uleb128 0
 6827 016b C006     		.uleb128 .LEHB62-.LFB1703
 6828 016d 04       		.uleb128 .LEHE62-.LEHB62
 6829 016e E006     		.uleb128 .L441-.LFB1703
 6830 0170 00       		.uleb128 0
 6831 0171 DC06     		.uleb128 .LEHB63-.LFB1703
 6832 0173 04       		.uleb128 .LEHE63-.LEHB63
 6833 0174 00       		.uleb128 0
 6834 0175 00       		.uleb128 0
 6835              	.LLSDACSE1703:
 6836              		.section	".text"
 6837              		.size	_ZN12SearchWindow6UpdateEP10GuiTrigger, .-_ZN12SearchWindow6UpdateEP10GuiTrigger
 6838              		.section	.text._ZNSt6vectorIP13cSearchButtonSaIS1_EE13_M_insert_auxEN9__gnu_cxx17__normal_iterator
 6839              		.align 2
 6840              		.weak	_ZNSt6vectorIP13cSearchButtonSaIS1_EE13_M_insert_auxEN9__gnu_cxx17__normal_iteratorIPS1_S3_E
 6841              		.type	_ZNSt6vectorIP13cSearchButtonSaIS1_EE13_M_insert_auxEN9__gnu_cxx17__normal_iteratorIPS1_S3_E
 6842              	_ZNSt6vectorIP13cSearchButtonSaIS1_EE13_M_insert_auxEN9__gnu_cxx17__normal_iteratorIPS1_S3_EERKS1_:
 6843              	.LFB1973:
 6844              		.loc 17 300 0
 6845              		.cfi_startproc
 6846              	.LVL531:
 6847 0000 7C0802A6 		mflr 0
 6848 0004 9421FFD8 		stwu 1,-40(1)
 6849              	.LCFI78:
 6850              		.cfi_def_cfa_offset 40
 6851              		.cfi_register 65, 0
 6852 0008 93810018 		stw 28,24(1)
 6853 000c 9001002C 		stw 0,44(1)
 6854 0010 93C10020 		stw 30,32(1)
 6855              	.LBB5422:
 6856              		.loc 17 304 0
 6857 0014 83830004 		lwz 28,4(3)
 6858              		.cfi_offset 30, -8
 6859              		.cfi_offset 65, 4
 6860              		.cfi_offset 28, -16
 6861 0018 80030008 		lwz 0,8(3)
 6862              	.LBE5422:
 6863              		.loc 17 300 0
 6864 001c 93E10024 		stw 31,36(1)
 6865 0020 7C7F1B78 		mr 31,3
 6866              		.cfi_offset 31, -4
 6867              	.LBB5569:
 6868              		.loc 17 304 0
 6869 0024 7F9C0000 		cmpw 7,28,0
 6870              	.LBE5569:
 6871              		.loc 17 300 0
 6872 0028 93410010 		stw 26,16(1)
 6873 002c 93610014 		stw 27,20(1)
 6874 0030 93A1001C 		stw 29,28(1)
 6875              		.loc 17 300 0
 6876 0034 83C40000 		lwz 30,0(4)
 6877              	.LVL532:
 6878              	.LBB5570:
 6879              		.loc 17 304 0
 6880 0038 419E0078 		beq- 7,.L453
 6881              		.cfi_offset 29, -12
 6882              		.cfi_offset 27, -20
 6883              		.cfi_offset 26, -24
 6884              	.LVL533:
 6885              	.LBB5423:
 6886              	.LBB5424:
 6887              	.LBB5425:
 6888              		.loc 16 108 0
 6889 003c 2F9C0000 		cmpwi 7,28,0
 6890 0040 38600000 		li 3,0
 6891              	.LVL534:
 6892 0044 419E0010 		beq- 7,.L454
 6893 0048 801CFFFC 		lwz 0,-4(28)
 6894 004c 901C0000 		stw 0,0(28)
 6895 0050 807F0004 		lwz 3,4(31)
 6896              	.L454:
 6897              	.LBE5425:
 6898              	.LBE5424:
 6899              		.loc 17 313 0
 6900 0054 3803FFFC 		addi 0,3,-4
 6901              		.loc 17 309 0
 6902 0058 39230004 		addi 9,3,4
 6903              	.LBB5426:
 6904              	.LBB5427:
 6905              	.LBB5428:
 6906              	.LBB5429:
 6907              	.LBB5430:
 6908              	.LBB5431:
 6909              		.loc 18 559 0
 6910 005c 7C1E0050 		subf 0,30,0
 6911              	.LBE5431:
 6912              	.LBE5430:
 6913              	.LBE5429:
 6914              	.LBE5428:
 6915              	.LBE5427:
 6916              	.LBE5426:
 6917              		.loc 17 309 0
 6918 0060 913F0004 		stw 9,4(31)
 6919              	.LBB5447:
 6920              	.LBB5444:
 6921              	.LBB5441:
 6922              	.LBB5438:
 6923              	.LBB5435:
 6924              	.LBB5432:
 6925              		.loc 18 560 0
 6926 0064 7C001671 		srawi. 0,0,2
 6927              	.LBE5432:
 6928              	.LBE5435:
 6929              	.LBE5438:
 6930              	.LBE5441:
 6931              	.LBE5444:
 6932              	.LBE5447:
 6933              		.loc 17 311 0
 6934 0068 83E50000 		lwz 31,0(5)
 6935              	.LVL535:
 6936              	.LBB5448:
 6937              	.LBB5445:
 6938              	.LBB5442:
 6939              	.LBB5439:
 6940              	.LBB5436:
 6941              	.LBB5433:
 6942              		.loc 18 560 0
 6943 006c 40820030 		bne- 0,.L469
 6944              	.LVL536:
 6945              	.L455:
 6946              	.LBE5433:
 6947              	.LBE5436:
 6948              	.LBE5439:
 6949              	.LBE5442:
 6950              	.LBE5445:
 6951              	.LBE5448:
 6952              	.LBE5423:
 6953              	.LBE5570:
 6954              		.loc 17 373 0
 6955 0070 8001002C 		lwz 0,44(1)
 6956              	.LBB5571:
 6957              	.LBB5450:
 6958              		.loc 17 317 0
 6959 0074 93FE0000 		stw 31,0(30)
 6960              	.LBE5450:
 6961              	.LBE5571:
 6962              		.loc 17 373 0
 6963 0078 7C0803A6 		mtlr 0
 6964 007c 83410010 		lwz 26,16(1)
 6965 0080 83610014 		lwz 27,20(1)
 6966 0084 83810018 		lwz 28,24(1)
 6967              	.LVL537:
 6968 0088 83A1001C 		lwz 29,28(1)
 6969 008c 83C10020 		lwz 30,32(1)
 6970              	.LVL538:
 6971 0090 83E10024 		lwz 31,36(1)
 6972              	.LVL539:
 6973 0094 38210028 		addi 1,1,40
 6974              		.cfi_remember_state
 6975              	.LCFI79:
 6976              		.cfi_def_cfa_offset 0
 6977              		.cfi_restore 31
 6978              		.cfi_restore 30
 6979              		.cfi_restore 29
 6980              		.cfi_restore 28
 6981              		.cfi_restore 27
 6982              		.cfi_restore 26
 6983 0098 4E800020 		blr
 6984              	.LVL540:
 6985              	.L469:
 6986              	.LCFI80:
 6987              		.cfi_restore_state
 6988              	.LBB5572:
 6989              	.LBB5451:
 6990              	.LBB5449:
 6991              	.LBB5446:
 6992              	.LBB5443:
 6993              	.LBB5440:
 6994              	.LBB5437:
 6995              	.LBB5434:
 6996              		.loc 18 561 0
 6997 009c 5405103A 		slwi 5,0,2
 6998              	.LVL541:
 6999 00a0 7FC4F378 		mr 4,30
 7000 00a4 7C651850 		subf 3,5,3
 7001              	.LVL542:
