   1              		.file	"SettingsMenu.cpp"
   2              		.section	".text"
   3              	.Ltext0:
   4              		.section	.text._ZN7sigslot15single_threadedD2Ev,"axG",@progbits,_ZN7sigslot15single_threadedD5Ev,c
   5              		.align 2
   6              		.weak	_ZN7sigslot15single_threadedD2Ev
   7              		.type	_ZN7sigslot15single_threadedD2Ev, @function
   8              	_ZN7sigslot15single_threadedD2Ev:
   9              	.LFB1148:
  10              		.file 1 "d:/Projects/SaveGameManager/savegame-manager-gx/trunk/source/Settings/menus/../../Gui/../
  11              		.loc 1 104 0
  12              		.cfi_startproc
  13              	.LVL0:
  14              	.LBB2924:
  15              		.loc 1 105 0
  16 0000 3D200000 		lis 9,_ZTVN7sigslot15single_threadedE+8@ha
  17              	.LBE2924:
  18              		.loc 1 107 0
  19              	.LBB2925:
  20              		.loc 1 105 0
  21 0004 38090008 		la 0,_ZTVN7sigslot15single_threadedE+8@l(9)
  22 0008 90030000 		stw 0,0(3)
  23              	.LBE2925:
  24              		.loc 1 107 0
  25 000c 4E800020 		blr
  26              		.cfi_endproc
  27              	.LFE1148:
  28              		.size	_ZN7sigslot15single_threadedD2Ev, .-_ZN7sigslot15single_threadedD2Ev
  29              		.section	.text._ZN7sigslot15single_threaded4lockEv,"axG",@progbits,_ZN7sigslot15single_threaded4lo
  30              		.align 2
  31              		.weak	_ZN7sigslot15single_threaded4lockEv
  32              		.type	_ZN7sigslot15single_threaded4lockEv, @function
  33              	_ZN7sigslot15single_threaded4lockEv:
  34              	.LFB1151:
  35              		.loc 1 109 0
  36              		.cfi_startproc
  37              	.LVL1:
  38              		.loc 1 112 0
  39 0000 4E800020 		blr
  40              		.cfi_endproc
  41              	.LFE1151:
  42              		.size	_ZN7sigslot15single_threaded4lockEv, .-_ZN7sigslot15single_threaded4lockEv
  43              		.section	.text._ZN7sigslot15single_threaded6unlockEv,"axG",@progbits,_ZN7sigslot15single_threaded6
  44              		.align 2
  45              		.weak	_ZN7sigslot15single_threaded6unlockEv
  46              		.type	_ZN7sigslot15single_threaded6unlockEv, @function
  47              	_ZN7sigslot15single_threaded6unlockEv:
  48              	.LFB1152:
  49              		.loc 1 114 0
  50              		.cfi_startproc
  51              	.LVL2:
  52              		.loc 1 117 0
  53 0000 4E800020 		blr
  54              		.cfi_endproc
  55              	.LFE1152:
  56              		.size	_ZN7sigslot15single_threaded6unlockEv, .-_ZN7sigslot15single_threaded6unlockEv
  57              		.section	.text._ZN10GuiElement9SetParentEPS_,"axG",@progbits,_ZN10GuiElement9SetParentEPS_,comdat
  58              		.align 2
  59              		.weak	_ZN10GuiElement9SetParentEPS_
  60              		.type	_ZN10GuiElement9SetParentEPS_, @function
  61              	_ZN10GuiElement9SetParentEPS_:
  62              	.LFB1384:
  63              		.file 2 "d:/Projects/SaveGameManager/savegame-manager-gx/trunk/source/Settings/menus/../../Gui/gui
  64              		.loc 2 92 0
  65              		.cfi_startproc
  66              	.LVL3:
  67              		.loc 2 92 0
  68 0000 90830060 		stw 4,96(3)
  69 0004 4E800020 		blr
  70              		.cfi_endproc
  71              	.LFE1384:
  72              		.size	_ZN10GuiElement9SetParentEPS_, .-_ZN10GuiElement9SetParentEPS_
  73              		.section	.text._ZN10GuiElement9GetParentEv,"axG",@progbits,_ZN10GuiElement9GetParentEv,comdat
  74              		.align 2
  75              		.weak	_ZN10GuiElement9GetParentEv
  76              		.type	_ZN10GuiElement9GetParentEv, @function
  77              	_ZN10GuiElement9GetParentEv:
  78              	.LFB1385:
  79              		.loc 2 95 0
  80              		.cfi_startproc
  81              	.LVL4:
  82              		.loc 2 95 0
  83 0000 80630060 		lwz 3,96(3)
  84              	.LVL5:
  85 0004 4E800020 		blr
  86              		.cfi_endproc
  87              	.LFE1385:
  88              		.size	_ZN10GuiElement9GetParentEv, .-_ZN10GuiElement9GetParentEv
  89              		.section	.text._ZN10GuiElement12GetZPositionEv,"axG",@progbits,_ZN10GuiElement12GetZPositionEv,com
  90              		.align 2
  91              		.weak	_ZN10GuiElement12GetZPositionEv
  92              		.type	_ZN10GuiElement12GetZPositionEv, @function
  93              	_ZN10GuiElement12GetZPositionEv:
  94              	.LFB1386:
  95              		.loc 2 106 0
  96              		.cfi_startproc
  97              	.LVL6:
  98 0000 7C0802A6 		mflr 0
  99 0004 9421FFF0 		stwu 1,-16(1)
 100              	.LCFI0:
 101              		.cfi_def_cfa_offset 16
 102              		.cfi_register 65, 0
 103 0008 93E1000C 		stw 31,12(1)
 104 000c 7C7F1B78 		mr 31,3
 105              		.cfi_offset 31, -4
 106 0010 90010014 		stw 0,20(1)
 107              	.LBB2926:
 108              		.loc 2 110 0
 109 0014 81630060 		lwz 11,96(3)
 110              		.loc 2 108 0
 111 0018 38600000 		li 3,0
 112              	.LVL7:
 113              		.loc 2 110 0
 114 001c 2F8B0000 		cmpwi 7,11,0
 115 0020 419E0018 		beq- 7,.L8
 116              		.cfi_offset 65, 4
 117              		.loc 2 111 0
 118 0024 812B0000 		lwz 9,0(11)
 119 0028 7D635B78 		mr 3,11
 120 002c 80090018 		lwz 0,24(9)
 121 0030 7C0903A6 		mtctr 0
 122 0034 4E800421 		bctrl
 123              	.LVL8:
 124              	.L8:
 125              		.loc 2 113 0
 126 0038 801F0034 		lwz 0,52(31)
 127              	.LBE2926:
 128              		.loc 2 114 0
 129 003c 83E1000C 		lwz 31,12(1)
 130              	.LVL9:
 131 0040 7C630214 		add 3,3,0
 132              	.LVL10:
 133 0044 80010014 		lwz 0,20(1)
 134 0048 38210010 		addi 1,1,16
 135              	.LCFI1:
 136              		.cfi_def_cfa_offset 0
 137              		.cfi_restore 31
 138 004c 7C0803A6 		mtlr 0
 139 0050 4E800020 		blr
 140              		.cfi_endproc
 141              	.LFE1386:
 142              		.size	_ZN10GuiElement12GetZPositionEv, .-_ZN10GuiElement12GetZPositionEv
 143              		.section	.text._ZN10GuiElement10GetLeftPosEv,"axG",@progbits,_ZN10GuiElement10GetLeftPosEv,comdat
 144              		.align 2
 145              		.weak	_ZN10GuiElement10GetLeftPosEv
 146              		.type	_ZN10GuiElement10GetLeftPosEv, @function
 147              	_ZN10GuiElement10GetLeftPosEv:
 148              	.LFB1387:
 149              		.loc 2 116 0
 150              		.cfi_startproc
 151              	.LVL11:
 152              		.loc 2 116 0
 153 0000 8063002C 		lwz 3,44(3)
 154              	.LVL12:
 155 0004 4E800020 		blr
 156              		.cfi_endproc
 157              	.LFE1387:
 158              		.size	_ZN10GuiElement10GetLeftPosEv, .-_ZN10GuiElement10GetLeftPosEv
 159              		.section	.text._ZN10GuiElement9GetTopPosEv,"axG",@progbits,_ZN10GuiElement9GetTopPosEv,comdat
 160              		.align 2
 161              		.weak	_ZN10GuiElement9GetTopPosEv
 162              		.type	_ZN10GuiElement9GetTopPosEv, @function
 163              	_ZN10GuiElement9GetTopPosEv:
 164              	.LFB1388:
 165              		.loc 2 118 0
 166              		.cfi_startproc
 167              	.LVL13:
 168              		.loc 2 118 0
 169 0000 80630030 		lwz 3,48(3)
 170              	.LVL14:
 171 0004 4E800020 		blr
 172              		.cfi_endproc
 173              	.LFE1388:
 174              		.size	_ZN10GuiElement9GetTopPosEv, .-_ZN10GuiElement9GetTopPosEv
 175              		.section	.text._ZN10GuiElement8GetWidthEv,"axG",@progbits,_ZN10GuiElement8GetWidthEv,comdat
 176              		.align 2
 177              		.weak	_ZN10GuiElement8GetWidthEv
 178              		.type	_ZN10GuiElement8GetWidthEv, @function
 179              	_ZN10GuiElement8GetWidthEv:
 180              	.LFB1389:
 181              		.loc 2 121 0
 182              		.cfi_startproc
 183              	.LVL15:
 184              		.loc 2 121 0
 185 0000 80630024 		lwz 3,36(3)
 186              	.LVL16:
 187 0004 4E800020 		blr
 188              		.cfi_endproc
 189              	.LFE1389:
 190              		.size	_ZN10GuiElement8GetWidthEv, .-_ZN10GuiElement8GetWidthEv
 191              		.section	.text._ZN10GuiElement9GetHeightEv,"axG",@progbits,_ZN10GuiElement9GetHeightEv,comdat
 192              		.align 2
 193              		.weak	_ZN10GuiElement9GetHeightEv
 194              		.type	_ZN10GuiElement9GetHeightEv, @function
 195              	_ZN10GuiElement9GetHeightEv:
 196              	.LFB1390:
 197              		.loc 2 124 0
 198              		.cfi_startproc
 199              	.LVL17:
 200              		.loc 2 124 0
 201 0000 80630028 		lwz 3,40(3)
 202              	.LVL18:
 203 0004 4E800020 		blr
 204              		.cfi_endproc
 205              	.LFE1390:
 206              		.size	_ZN10GuiElement9GetHeightEv, .-_ZN10GuiElement9GetHeightEv
 207              		.section	.text._ZN10GuiElement7SetSizeEii,"axG",@progbits,_ZN10GuiElement7SetSizeEii,comdat
 208              		.align 2
 209              		.weak	_ZN10GuiElement7SetSizeEii
 210              		.type	_ZN10GuiElement7SetSizeEii, @function
 211              	_ZN10GuiElement7SetSizeEii:
 212              	.LFB1391:
 213              		.loc 2 128 0
 214              		.cfi_startproc
 215              	.LVL19:
 216              		.loc 2 130 0
 217 0000 90830024 		stw 4,36(3)
 218              		.loc 2 132 0
 219              		.loc 2 131 0
 220 0004 90A30028 		stw 5,40(3)
 221              		.loc 2 132 0
 222 0008 4E800020 		blr
 223              		.cfi_endproc
 224              	.LFE1391:
 225              		.size	_ZN10GuiElement7SetSizeEii, .-_ZN10GuiElement7SetSizeEii
 226              		.section	.text._ZN10GuiElement9IsVisibleEv,"axG",@progbits,_ZN10GuiElement9IsVisibleEv,comdat
 227              		.align 2
 228              		.weak	_ZN10GuiElement9IsVisibleEv
 229              		.type	_ZN10GuiElement9IsVisibleEv, @function
 230              	_ZN10GuiElement9IsVisibleEv:
 231              	.LFB1393:
 232              		.loc 2 142 0
 233              		.cfi_startproc
 234              	.LVL20:
 235              		.loc 2 142 0
 236 0000 8863001D 		lbz 3,29(3)
 237              	.LVL21:
 238 0004 4E800020 		blr
 239              		.cfi_endproc
 240              	.LFE1393:
 241              		.size	_ZN10GuiElement9IsVisibleEv, .-_ZN10GuiElement9IsVisibleEv
 242              		.section	.text._ZN10GuiElement12IsSelectableEv,"axG",@progbits,_ZN10GuiElement12IsSelectableEv,com
 243              		.align 2
 244              		.weak	_ZN10GuiElement12IsSelectableEv
 245              		.type	_ZN10GuiElement12IsSelectableEv, @function
 246              	_ZN10GuiElement12IsSelectableEv:
 247              	.LFB1394:
 248              		.loc 2 145 0
 249              		.cfi_startproc
 250              	.LVL22:
 251              		.loc 2 149 0
 252 0000 80030048 		lwz 0,72(3)
 253 0004 39200000 		li 9,0
 254 0008 2F800004 		cmpwi 7,0,4
 255 000c 419E0010 		beq- 7,.L18
 256              		.loc 2 149 0 is_stmt 0 discriminator 1
 257 0010 2F800002 		cmpwi 7,0,2
 258 0014 419E0008 		beq- 7,.L18
 259              		.loc 2 149 0 discriminator 3
 260 0018 8923001E 		lbz 9,30(3)
 261              	.L18:
 262              		.loc 2 150 0 is_stmt 1 discriminator 5
 263 001c 7D234B78 		mr 3,9
 264              	.LVL23:
 265 0020 4E800020 		blr
 266              		.cfi_endproc
 267              	.LFE1394:
 268              		.size	_ZN10GuiElement12IsSelectableEv, .-_ZN10GuiElement12IsSelectableEv
 269              		.section	.text._ZN10GuiElement11IsClickableEv,"axG",@progbits,_ZN10GuiElement11IsClickableEv,comda
 270              		.align 2
 271              		.weak	_ZN10GuiElement11IsClickableEv
 272              		.type	_ZN10GuiElement11IsClickableEv, @function
 273              	_ZN10GuiElement11IsClickableEv:
 274              	.LFB1395:
 275              		.loc 2 153 0
 276              		.cfi_startproc
 277              	.LVL24:
 278              		.loc 2 158 0
 279 0000 80030048 		lwz 0,72(3)
 280 0004 39200000 		li 9,0
 281 0008 2F800004 		cmpwi 7,0,4
 282 000c 419E0018 		beq- 7,.L22
 283              		.loc 2 158 0 is_stmt 0 discriminator 1
 284 0010 2F800002 		cmpwi 7,0,2
 285 0014 419E0010 		beq- 7,.L22
 286              		.loc 2 158 0 discriminator 3
 287 0018 2F800003 		cmpwi 7,0,3
 288 001c 419E0008 		beq- 7,.L22
 289              		.loc 2 158 0 discriminator 4
 290 0020 8923001F 		lbz 9,31(3)
 291              	.L22:
 292              		.loc 2 159 0 is_stmt 1 discriminator 6
 293 0024 7D234B78 		mr 3,9
 294              	.LVL25:
 295 0028 4E800020 		blr
 296              		.cfi_endproc
 297              	.LFE1395:
 298              		.size	_ZN10GuiElement11IsClickableEv, .-_ZN10GuiElement11IsClickableEv
 299              		.section	.text._ZN10GuiElement10IsHoldableEv,"axG",@progbits,_ZN10GuiElement10IsHoldableEv,comdat
 300              		.align 2
 301              		.weak	_ZN10GuiElement10IsHoldableEv
 302              		.type	_ZN10GuiElement10IsHoldableEv, @function
 303              	_ZN10GuiElement10IsHoldableEv:
 304              	.LFB1396:
 305              		.loc 2 162 0
 306              		.cfi_startproc
 307              	.LVL26:
 308              		.loc 2 162 0
 309 0000 81230048 		lwz 9,72(3)
 310 0004 38000000 		li 0,0
 311 0008 2F890004 		cmpwi 7,9,4
 312 000c 419E0008 		beq- 7,.L27
 313              		.loc 2 162 0 is_stmt 0 discriminator 1
 314 0010 88030020 		lbz 0,32(3)
 315              	.L27:
 316              		.loc 2 162 0 discriminator 4
 317 0014 7C030378 		mr 3,0
 318              	.LVL27:
 319 0018 4E800020 		blr
 320              		.cfi_endproc
 321              	.LFE1396:
 322              		.size	_ZN10GuiElement10IsHoldableEv, .-_ZN10GuiElement10IsHoldableEv
 323              		.section	.text._ZN10GuiElement13SetSelectableEb,"axG",@progbits,_ZN10GuiElement13SetSelectableEb,c
 324              		.align 2
 325              		.weak	_ZN10GuiElement13SetSelectableEb
 326              		.type	_ZN10GuiElement13SetSelectableEb, @function
 327              	_ZN10GuiElement13SetSelectableEb:
 328              	.LFB1397:
 329              		.loc 2 165 0 is_stmt 1
 330              		.cfi_startproc
 331              	.LVL28:
 332              		.loc 2 165 0
 333 0000 9883001E 		stb 4,30(3)
 334 0004 4E800020 		blr
 335              		.cfi_endproc
 336              	.LFE1397:
 337              		.size	_ZN10GuiElement13SetSelectableEb, .-_ZN10GuiElement13SetSelectableEb
 338              		.section	.text._ZN10GuiElement12SetClickableEb,"axG",@progbits,_ZN10GuiElement12SetClickableEb,com
 339              		.align 2
 340              		.weak	_ZN10GuiElement12SetClickableEb
 341              		.type	_ZN10GuiElement12SetClickableEb, @function
 342              	_ZN10GuiElement12SetClickableEb:
 343              	.LFB1398:
 344              		.loc 2 168 0
 345              		.cfi_startproc
 346              	.LVL29:
 347              		.loc 2 168 0
 348 0000 9883001F 		stb 4,31(3)
 349 0004 4E800020 		blr
 350              		.cfi_endproc
 351              	.LFE1398:
 352              		.size	_ZN10GuiElement12SetClickableEb, .-_ZN10GuiElement12SetClickableEb
 353              		.section	.text._ZN10GuiElement11SetHoldableEb,"axG",@progbits,_ZN10GuiElement11SetHoldableEb,comda
 354              		.align 2
 355              		.weak	_ZN10GuiElement11SetHoldableEb
 356              		.type	_ZN10GuiElement11SetHoldableEb, @function
 357              	_ZN10GuiElement11SetHoldableEb:
 358              	.LFB1399:
 359              		.loc 2 171 0
 360              		.cfi_startproc
 361              	.LVL30:
 362              		.loc 2 171 0
 363 0000 98830020 		stb 4,32(3)
 364 0004 4E800020 		blr
 365              		.cfi_endproc
 366              	.LFE1399:
 367              		.size	_ZN10GuiElement11SetHoldableEb, .-_ZN10GuiElement11SetHoldableEb
 368              		.section	.text._ZN10GuiElement8GetStateEv,"axG",@progbits,_ZN10GuiElement8GetStateEv,comdat
 369              		.align 2
 370              		.weak	_ZN10GuiElement8GetStateEv
 371              		.type	_ZN10GuiElement8GetStateEv, @function
 372              	_ZN10GuiElement8GetStateEv:
 373              	.LFB1400:
 374              		.loc 2 178 0
 375              		.cfi_startproc
 376              	.LVL31:
 377              		.loc 2 178 0
 378 0000 80630048 		lwz 3,72(3)
 379              	.LVL32:
 380 0004 4E800020 		blr
 381              		.cfi_endproc
 382              	.LFE1400:
 383              		.size	_ZN10GuiElement8GetStateEv, .-_ZN10GuiElement8GetStateEv
 384              		.section	.text._ZN10GuiElement12GetStateChanEv,"axG",@progbits,_ZN10GuiElement12GetStateChanEv,com
 385              		.align 2
 386              		.weak	_ZN10GuiElement12GetStateChanEv
 387              		.type	_ZN10GuiElement12GetStateChanEv, @function
 388              	_ZN10GuiElement12GetStateChanEv:
 389              	.LFB1401:
 390              		.loc 2 181 0
 391              		.cfi_startproc
 392              	.LVL33:
 393              		.loc 2 181 0
 394 0000 8063004C 		lwz 3,76(3)
 395              	.LVL34:
 396 0004 4E800020 		blr
 397              		.cfi_endproc
 398              	.LFE1401:
 399              		.size	_ZN10GuiElement12GetStateChanEv, .-_ZN10GuiElement12GetStateChanEv
 400              		.section	.text._ZN10GuiElement8SetAlphaEi,"axG",@progbits,_ZN10GuiElement8SetAlphaEi,comdat
 401              		.align 2
 402              		.weak	_ZN10GuiElement8SetAlphaEi
 403              		.type	_ZN10GuiElement8SetAlphaEi, @function
 404              	_ZN10GuiElement8SetAlphaEi:
 405              	.LFB1403:
 406              		.loc 2 190 0
 407              		.cfi_startproc
 408              	.LVL35:
 409              		.loc 2 190 0
 410 0000 90830038 		stw 4,56(3)
 411 0004 4E800020 		blr
 412              		.cfi_endproc
 413              	.LFE1403:
 414              		.size	_ZN10GuiElement8SetAlphaEi, .-_ZN10GuiElement8SetAlphaEi
 415              		.section	.text._ZN10GuiElement8GetAlphaEv,"axG",@progbits,_ZN10GuiElement8GetAlphaEv,comdat
 416              		.align 2
 417              		.weak	_ZN10GuiElement8GetAlphaEv
 418              		.type	_ZN10GuiElement8GetAlphaEv, @function
 419              	_ZN10GuiElement8GetAlphaEv:
 420              	.LFB1404:
 421              		.loc 2 194 0
 422              		.cfi_startproc
 423              	.LVL36:
 424 0000 7C0802A6 		mflr 0
 425 0004 9421FFD8 		stwu 1,-40(1)
 426              	.LCFI2:
 427              		.cfi_def_cfa_offset 40
 428              		.cfi_register 65, 0
 429 0008 93E10024 		stw 31,36(1)
 430 000c 9001002C 		stw 0,44(1)
 431              	.LBB2927:
 432              		.loc 2 198 0
 433 0010 83E3006C 		lwz 31,108(3)
 434              		.cfi_offset 65, 4
 435              		.cfi_offset 31, -4
 436 0014 2F9F0000 		cmpwi 7,31,0
 437 0018 419C0094 		blt- 7,.L38
 438              	.L36:
 439              	.LVL37:
 440              		.loc 2 203 0
 441 001c 80630060 		lwz 3,96(3)
 442              	.LVL38:
 443 0020 2F830000 		cmpwi 7,3,0
 444 0024 419E0070 		beq- 7,.L37
 445              		.loc 2 204 0
 446 0028 81230000 		lwz 9,0(3)
 447 002c 6FFF8000 		xoris 31,31,0x8000
 448              	.LVL39:
 449 0030 80090064 		lwz 0,100(9)
 450 0034 7C0903A6 		mtctr 0
 451 0038 4E800421 		bctrl
 452 003c 3C004330 		lis 0,0x4330
 453 0040 6C638000 		xoris 3,3,0x8000
 454 0044 90010010 		stw 0,16(1)
 455 0048 90610014 		stw 3,20(1)
 456 004c 3D200000 		lis 9,.LC1@ha
 457 0050 C0090000 		lfs 0,.LC1@l(9)
 458 0054 3D200000 		lis 9,.LC2@ha
 459 0058 C9A10010 		lfd 13,16(1)
 460 005c C1890004 		lfs 12,.LC2@l(9)
 461 0060 39210018 		addi 9,1,24
 462 0064 FDAD0028 		fsub 13,13,0
 463 0068 93E1000C 		stw 31,12(1)
 464 006c 90010008 		stw 0,8(1)
 465 0070 FDA06818 		frsp 13,13
 466 0074 EDAD6024 		fdivs 13,13,12
 467 0078 C9810008 		lfd 12,8(1)
 468 007c FC0C0028 		fsub 0,12,0
 469 0080 FC000018 		frsp 0,0
 470 0084 EC000372 		fmuls 0,0,13
 471 0088 FC00001E 		fctiwz 0,0
 472 008c 7C004FAE 		stfiwx 0,0,9
 473 0090 83E10018 		lwz 31,24(1)
 474              	.LVL40:
 475              	.L37:
 476              	.LBE2927:
 477              		.loc 2 207 0
 478 0094 8001002C 		lwz 0,44(1)
 479 0098 7FE3FB78 		mr 3,31
 480 009c 83E10024 		lwz 31,36(1)
 481              	.LVL41:
 482 00a0 7C0803A6 		mtlr 0
 483 00a4 38210028 		addi 1,1,40
 484              		.cfi_remember_state
 485              	.LCFI3:
 486              		.cfi_def_cfa_offset 0
 487              		.cfi_restore 31
 488 00a8 4E800020 		blr
 489              	.LVL42:
 490              	.L38:
 491              	.LCFI4:
 492              		.cfi_restore_state
 493              	.LBB2928:
 494              		.loc 2 201 0
 495 00ac 83E30038 		lwz 31,56(3)
 496              	.LVL43:
 497 00b0 4BFFFF6C 		b .L36
 498              	.LBE2928:
 499              		.cfi_endproc
 500              	.LFE1404:
 501              		.size	_ZN10GuiElement8GetAlphaEv, .-_ZN10GuiElement8GetAlphaEv
 502              		.section	.text._ZN10GuiElement8SetScaleEf,"axG",@progbits,_ZN10GuiElement8SetScaleEf,comdat
 503              		.align 2
 504              		.weak	_ZN10GuiElement8SetScaleEf
 505              		.type	_ZN10GuiElement8SetScaleEf, @function
 506              	_ZN10GuiElement8SetScaleEf:
 507              	.LFB1405:
 508              		.loc 2 210 0
 509              		.cfi_startproc
 510              	.LVL44:
 511              		.loc 2 212 0
 512 0000 D023003C 		stfs 1,60(3)
 513              		.loc 2 214 0
 514              		.loc 2 213 0
 515 0004 D0230040 		stfs 1,64(3)
 516              		.loc 2 214 0
 517 0008 4E800020 		blr
 518              		.cfi_endproc
 519              	.LFE1405:
 520              		.size	_ZN10GuiElement8SetScaleEf, .-_ZN10GuiElement8SetScaleEf
 521              		.section	.text._ZN10GuiElement9SetScaleXEf,"axG",@progbits,_ZN10GuiElement9SetScaleXEf,comdat
 522              		.align 2
 523              		.weak	_ZN10GuiElement9SetScaleXEf
 524              		.type	_ZN10GuiElement9SetScaleXEf, @function
 525              	_ZN10GuiElement9SetScaleXEf:
 526              	.LFB1406:
 527              		.loc 2 217 0
 528              		.cfi_startproc
 529              	.LVL45:
 530              		.loc 2 217 0
 531 0000 D023003C 		stfs 1,60(3)
 532 0004 4E800020 		blr
 533              		.cfi_endproc
 534              	.LFE1406:
 535              		.size	_ZN10GuiElement9SetScaleXEf, .-_ZN10GuiElement9SetScaleXEf
 536              		.section	.text._ZN10GuiElement9SetScaleYEf,"axG",@progbits,_ZN10GuiElement9SetScaleYEf,comdat
 537              		.align 2
 538              		.weak	_ZN10GuiElement9SetScaleYEf
 539              		.type	_ZN10GuiElement9SetScaleYEf, @function
 540              	_ZN10GuiElement9SetScaleYEf:
 541              	.LFB1407:
 542              		.loc 2 220 0
 543              		.cfi_startproc
 544              	.LVL46:
 545              		.loc 2 220 0
 546 0000 D0230040 		stfs 1,64(3)
 547 0004 4E800020 		blr
 548              		.cfi_endproc
 549              	.LFE1407:
 550              		.size	_ZN10GuiElement9SetScaleYEf, .-_ZN10GuiElement9SetScaleYEf
 551              		.section	.text._ZN10GuiElement8GetScaleEv,"axG",@progbits,_ZN10GuiElement8GetScaleEv,comdat
 552              		.align 2
 553              		.weak	_ZN10GuiElement8GetScaleEv
 554              		.type	_ZN10GuiElement8GetScaleEv, @function
 555              	_ZN10GuiElement8GetScaleEv:
 556              	.LFB1408:
 557              		.loc 2 223 0
 558              		.cfi_startproc
 559              	.LVL47:
 560 0000 7C0802A6 		mflr 0
 561 0004 9421FFF0 		stwu 1,-16(1)
 562              	.LCFI5:
 563              		.cfi_def_cfa_offset 16
 564              		.cfi_register 65, 0
 565              	.LBB2929:
 566              		.loc 2 225 0
 567 0008 3D200000 		lis 9,.LC3@ha
 568              	.LBE2929:
 569              		.loc 2 223 0
 570 000c DBE10008 		stfd 31,8(1)
 571 0010 90010014 		stw 0,20(1)
 572              	.LBB2930:
 573              		.loc 2 225 0
 574 0014 C0030040 		lfs 0,64(3)
 575 0018 C3E3003C 		lfs 31,60(3)
 576              		.cfi_offset 65, 4
 577              		.cfi_offset 63, -8
 578              		.loc 2 227 0
 579 001c 81630060 		lwz 11,96(3)
 580              		.loc 2 225 0
 581 0020 EFFF002A 		fadds 31,31,0
 582 0024 C0090008 		lfs 0,.LC3@l(9)
 583              		.loc 2 227 0
 584 0028 2F8B0000 		cmpwi 7,11,0
 585              		.loc 2 225 0
 586 002c EFFF0032 		fmuls 31,31,0
 587 0030 C0030070 		lfs 0,112(3)
 588 0034 EFFF0032 		fmuls 31,31,0
 589              	.LVL48:
 590              		.loc 2 227 0
 591 0038 419E001C 		beq- 7,.L43
 592              		.loc 2 228 0
 593 003c 812B0000 		lwz 9,0(11)
 594 0040 7D635B78 		mr 3,11
 595              	.LVL49:
 596 0044 80090074 		lwz 0,116(9)
 597 0048 7C0903A6 		mtctr 0
 598 004c 4E800421 		bctrl
 599 0050 EFFF0072 		fmuls 31,31,1
 600              	.LVL50:
 601              	.L43:
 602              	.LBE2930:
 603              		.loc 2 231 0
 604 0054 80010014 		lwz 0,20(1)
 605 0058 FC20F890 		fmr 1,31
 606 005c CBE10008 		lfd 31,8(1)
 607              	.LVL51:
 608 0060 7C0803A6 		mtlr 0
 609 0064 38210010 		addi 1,1,16
 610              	.LCFI6:
 611              		.cfi_def_cfa_offset 0
 612              		.cfi_restore 63
 613 0068 4E800020 		blr
 614              		.cfi_endproc
 615              	.LFE1408:
 616              		.size	_ZN10GuiElement8GetScaleEv, .-_ZN10GuiElement8GetScaleEv
 617              		.section	.text._ZN10GuiElement9GetScaleXEv,"axG",@progbits,_ZN10GuiElement9GetScaleXEv,comdat
 618              		.align 2
 619              		.weak	_ZN10GuiElement9GetScaleXEv
 620              		.type	_ZN10GuiElement9GetScaleXEv, @function
 621              	_ZN10GuiElement9GetScaleXEv:
 622              	.LFB1409:
 623              		.loc 2 234 0
 624              		.cfi_startproc
 625              	.LVL52:
 626 0000 7C0802A6 		mflr 0
 627 0004 9421FFF0 		stwu 1,-16(1)
 628              	.LCFI7:
 629              		.cfi_def_cfa_offset 16
 630              		.cfi_register 65, 0
 631 0008 DBE10008 		stfd 31,8(1)
 632 000c 90010014 		stw 0,20(1)
 633              	.LBB2931:
 634              		.loc 2 238 0
 635 0010 81630060 		lwz 11,96(3)
 636              		.loc 2 236 0
 637 0014 C3E3003C 		lfs 31,60(3)
 638              		.cfi_offset 65, 4
 639              		.cfi_offset 63, -8
 640              		.loc 2 238 0
 641 0018 2F8B0000 		cmpwi 7,11,0
 642              		.loc 2 236 0
 643 001c C0030070 		lfs 0,112(3)
 644 0020 EFFF0032 		fmuls 31,31,0
 645              	.LVL53:
 646              		.loc 2 238 0
 647 0024 419E001C 		beq- 7,.L45
 648              		.loc 2 239 0
 649 0028 812B0000 		lwz 9,0(11)
 650 002c 7D635B78 		mr 3,11
 651              	.LVL54:
 652 0030 80090078 		lwz 0,120(9)
 653 0034 7C0903A6 		mtctr 0
 654 0038 4E800421 		bctrl
 655 003c EFFF0072 		fmuls 31,31,1
 656              	.LVL55:
 657              	.L45:
 658              	.LBE2931:
 659              		.loc 2 242 0
 660 0040 80010014 		lwz 0,20(1)
 661 0044 FC20F890 		fmr 1,31
 662 0048 CBE10008 		lfd 31,8(1)
 663              	.LVL56:
 664 004c 7C0803A6 		mtlr 0
 665 0050 38210010 		addi 1,1,16
 666              	.LCFI8:
 667              		.cfi_def_cfa_offset 0
 668              		.cfi_restore 63
 669 0054 4E800020 		blr
 670              		.cfi_endproc
 671              	.LFE1409:
 672              		.size	_ZN10GuiElement9GetScaleXEv, .-_ZN10GuiElement9GetScaleXEv
 673              		.section	.text._ZN10GuiElement9GetScaleYEv,"axG",@progbits,_ZN10GuiElement9GetScaleYEv,comdat
 674              		.align 2
 675              		.weak	_ZN10GuiElement9GetScaleYEv
 676              		.type	_ZN10GuiElement9GetScaleYEv, @function
 677              	_ZN10GuiElement9GetScaleYEv:
 678              	.LFB1410:
 679              		.loc 2 245 0
 680              		.cfi_startproc
 681              	.LVL57:
 682 0000 7C0802A6 		mflr 0
 683 0004 9421FFF0 		stwu 1,-16(1)
 684              	.LCFI9:
 685              		.cfi_def_cfa_offset 16
 686              		.cfi_register 65, 0
 687 0008 DBE10008 		stfd 31,8(1)
 688 000c 90010014 		stw 0,20(1)
 689              	.LBB2932:
 690              		.loc 2 249 0
 691 0010 81630060 		lwz 11,96(3)
 692              		.loc 2 247 0
 693 0014 C3E30040 		lfs 31,64(3)
 694              		.cfi_offset 65, 4
 695              		.cfi_offset 63, -8
 696              		.loc 2 249 0
 697 0018 2F8B0000 		cmpwi 7,11,0
 698              		.loc 2 247 0
 699 001c C0030070 		lfs 0,112(3)
 700 0020 EFFF0032 		fmuls 31,31,0
 701              	.LVL58:
 702              		.loc 2 249 0
 703 0024 419E001C 		beq- 7,.L47
 704              		.loc 2 250 0
 705 0028 812B0000 		lwz 9,0(11)
 706 002c 7D635B78 		mr 3,11
 707              	.LVL59:
 708 0030 8009007C 		lwz 0,124(9)
 709 0034 7C0903A6 		mtctr 0
 710 0038 4E800421 		bctrl
 711 003c EFFF0072 		fmuls 31,31,1
 712              	.LVL60:
 713              	.L47:
 714              	.LBE2932:
 715              		.loc 2 253 0
 716 0040 80010014 		lwz 0,20(1)
 717 0044 FC20F890 		fmr 1,31
 718 0048 CBE10008 		lfd 31,8(1)
 719              	.LVL61:
 720 004c 7C0803A6 		mtlr 0
 721 0050 38210010 		addi 1,1,16
 722              	.LCFI10:
 723              		.cfi_def_cfa_offset 0
 724              		.cfi_restore 63
 725 0054 4E800020 		blr
 726              		.cfi_endproc
 727              	.LFE1410:
 728              		.size	_ZN10GuiElement9GetScaleYEv, .-_ZN10GuiElement9GetScaleYEv
 729              		.section	.text._ZN10GuiElement6RumbleEv,"axG",@progbits,_ZN10GuiElement6RumbleEv,comdat
 730              		.align 2
 731              		.weak	_ZN10GuiElement6RumbleEv
 732              		.type	_ZN10GuiElement6RumbleEv, @function
 733              	_ZN10GuiElement6RumbleEv:
 734              	.LFB1411:
 735              		.loc 2 256 0
 736              		.cfi_startproc
 737              	.LVL62:
 738              		.loc 2 256 0
 739 0000 8863001C 		lbz 3,28(3)
 740              	.LVL63:
 741 0004 4E800020 		blr
 742              		.cfi_endproc
 743              	.LFE1411:
 744              		.size	_ZN10GuiElement6RumbleEv, .-_ZN10GuiElement6RumbleEv
 745              		.section	.text._ZN10GuiElement9SetRumbleEb,"axG",@progbits,_ZN10GuiElement9SetRumbleEb,comdat
 746              		.align 2
 747              		.weak	_ZN10GuiElement9SetRumbleEb
 748              		.type	_ZN10GuiElement9SetRumbleEb, @function
 749              	_ZN10GuiElement9SetRumbleEb:
 750              	.LFB1412:
 751              		.loc 2 259 0
 752              		.cfi_startproc
 753              	.LVL64:
 754              		.loc 2 259 0
 755 0000 9883001C 		stb 4,28(3)
 756 0004 4E800020 		blr
 757              		.cfi_endproc
 758              	.LFE1412:
 759              		.size	_ZN10GuiElement9SetRumbleEb, .-_ZN10GuiElement9SetRumbleEb
 760              		.section	.text._ZN10GuiElement13SetEffectGrowEv,"axG",@progbits,_ZN10GuiElement13SetEffectGrowEv,c
 761              		.align 2
 762              		.weak	_ZN10GuiElement13SetEffectGrowEv
 763              		.type	_ZN10GuiElement13SetEffectGrowEv, @function
 764              	_ZN10GuiElement13SetEffectGrowEv:
 765              	.LFB1413:
 766              		.loc 2 271 0
 767              		.cfi_startproc
 768              	.LVL65:
 769 0000 7C0802A6 		mflr 0
 770 0004 9421FFF8 		stwu 1,-8(1)
 771              	.LCFI11:
 772              		.cfi_def_cfa_offset 8
 773              		.cfi_register 65, 0
 774 0008 81230000 		lwz 9,0(3)
 775 000c 38800100 		li 4,256
 776 0010 38A00004 		li 5,4
 777 0014 38C0006E 		li 6,110
 778 0018 9001000C 		stw 0,12(1)
 779              		.loc 2 271 0
 780 001c 8009008C 		lwz 0,140(9)
 781              		.cfi_offset 65, 4
 782 0020 7C0903A6 		mtctr 0
 783 0024 4E800421 		bctrl
 784              	.LVL66:
 785 0028 8001000C 		lwz 0,12(1)
 786 002c 38210008 		addi 1,1,8
 787              	.LCFI12:
 788              		.cfi_def_cfa_offset 0
 789 0030 7C0803A6 		mtlr 0
 790 0034 4E800020 		blr
 791              		.cfi_endproc
 792              	.LFE1413:
 793              		.size	_ZN10GuiElement13SetEffectGrowEv, .-_ZN10GuiElement13SetEffectGrowEv
 794              		.section	.text._ZNK10GuiElement9GetEffectEv,"axG",@progbits,_ZNK10GuiElement9GetEffectEv,comdat
 795              		.align 2
 796              		.weak	_ZNK10GuiElement9GetEffectEv
 797              		.type	_ZNK10GuiElement9GetEffectEv, @function
 798              	_ZNK10GuiElement9GetEffectEv:
 799              	.LFB1414:
 800              		.loc 2 276 0
 801              		.cfi_startproc
 802              	.LVL67:
 803              		.loc 2 276 0
 804 0000 80630078 		lwz 3,120(3)
 805              	.LVL68:
 806 0004 4E800020 		blr
 807              		.cfi_endproc
 808              	.LFE1414:
 809              		.size	_ZNK10GuiElement9GetEffectEv, .-_ZNK10GuiElement9GetEffectEv
 810              		.section	.text._ZNK10GuiElement10IsAnimatedEv,"axG",@progbits,_ZNK10GuiElement10IsAnimatedEv,comda
 811              		.align 2
 812              		.weak	_ZNK10GuiElement10IsAnimatedEv
 813              		.type	_ZNK10GuiElement10IsAnimatedEv, @function
 814              	_ZNK10GuiElement10IsAnimatedEv:
 815              	.LFB1415:
 816              		.loc 2 278 0
 817              		.cfi_startproc
 818              	.LVL69:
 819 0000 7C0802A6 		mflr 0
 820 0004 9421FFF8 		stwu 1,-8(1)
 821              	.LCFI13:
 822              		.cfi_def_cfa_offset 8
 823              		.cfi_register 65, 0
 824 0008 9001000C 		stw 0,12(1)
 825              		.loc 2 278 0
 826 000c 81230000 		lwz 9,0(3)
 827 0010 80090098 		lwz 0,152(9)
 828              		.cfi_offset 65, 4
 829 0014 7C0903A6 		mtctr 0
 830 0018 4E800421 		bctrl
 831              	.LVL70:
 832 001c 7C60FE70 		srawi 0,3,31
 833 0020 7C630050 		subf 3,3,0
 834 0024 8001000C 		lwz 0,12(1)
 835 0028 54630FFE 		srwi 3,3,31
 836 002c 7C0803A6 		mtlr 0
 837 0030 38210008 		addi 1,1,8
 838              	.LCFI14:
 839              		.cfi_def_cfa_offset 0
 840 0034 4E800020 		blr
 841              		.cfi_endproc
 842              	.LFE1415:
 843              		.size	_ZNK10GuiElement10IsAnimatedEv, .-_ZNK10GuiElement10IsAnimatedEv
 844              		.section	.text._ZN10GuiElement8IsInsideEii,"axG",@progbits,_ZN10GuiElement8IsInsideEii,comdat
 845              		.align 2
 846              		.weak	_ZN10GuiElement8IsInsideEii
 847              		.type	_ZN10GuiElement8IsInsideEii, @function
 848              	_ZN10GuiElement8IsInsideEii:
 849              	.LFB1417:
 850              		.loc 2 285 0
 851              		.cfi_startproc
 852              	.LVL71:
 853 0000 7C0802A6 		mflr 0
 854 0004 9421FFE8 		stwu 1,-24(1)
 855              	.LCFI15:
 856              		.cfi_def_cfa_offset 24
 857              		.cfi_register 65, 0
 858 0008 93810008 		stw 28,8(1)
 859 000c 7CBC2B78 		mr 28,5
 860              		.cfi_offset 28, -16
 861 0010 9001001C 		stw 0,28(1)
 862 0014 93A1000C 		stw 29,12(1)
 863              		.loc 2 290 0
 864 0018 3BA00000 		li 29,0
 865              		.cfi_offset 29, -12
 866              		.cfi_offset 65, 4
 867              		.loc 2 287 0
 868 001c 81230000 		lwz 9,0(3)
 869              		.loc 2 285 0
 870 0020 93C10010 		stw 30,16(1)
 871 0024 7C9E2378 		mr 30,4
 872              		.cfi_offset 30, -8
 873              		.loc 2 287 0
 874 0028 80090010 		lwz 0,16(9)
 875              		.loc 2 285 0
 876 002c 93E10014 		stw 31,20(1)
 877              		.loc 2 285 0
 878 0030 7C7F1B78 		mr 31,3
 879              		.cfi_offset 31, -4
 880              		.loc 2 287 0
 881 0034 7C0903A6 		mtctr 0
 882 0038 4E800421 		bctrl
 883              	.LVL72:
 884              		.loc 2 290 0
 885 003c 7F83F000 		cmpw 7,3,30
 886 0040 419C0028 		blt- 7,.L58
 887              	.L54:
 888              		.loc 2 291 0 discriminator 6
 889 0044 8001001C 		lwz 0,28(1)
 890 0048 7FA3EB78 		mr 3,29
 891 004c 83810008 		lwz 28,8(1)
 892              	.LVL73:
 893 0050 7C0803A6 		mtlr 0
 894 0054 83A1000C 		lwz 29,12(1)
 895 0058 83C10010 		lwz 30,16(1)
 896              	.LVL74:
 897 005c 83E10014 		lwz 31,20(1)
 898              	.LVL75:
 899 0060 38210018 		addi 1,1,24
 900              		.cfi_remember_state
 901              	.LCFI16:
 902              		.cfi_def_cfa_offset 0
 903              		.cfi_restore 31
 904              		.cfi_restore 30
 905              		.cfi_restore 29
 906              		.cfi_restore 28
 907 0064 4E800020 		blr
 908              	.LVL76:
 909              	.L58:
 910              	.LCFI17:
 911              		.cfi_restore_state
 912              		.loc 2 288 0 discriminator 1
 913 0068 813F0000 		lwz 9,0(31)
 914 006c 7FE3FB78 		mr 3,31
 915 0070 80090010 		lwz 0,16(9)
 916 0074 7C0903A6 		mtctr 0
 917 0078 4E800421 		bctrl
 918              		.loc 2 290 0 discriminator 1
 919 007c 801F0024 		lwz 0,36(31)
 920 0080 7C030214 		add 0,3,0
 921 0084 7F9E0000 		cmpw 7,30,0
 922 0088 409CFFBC 		bge+ 7,.L54
 923              		.loc 2 289 0 discriminator 3
 924 008c 813F0000 		lwz 9,0(31)
 925 0090 7FE3FB78 		mr 3,31
 926 0094 80090014 		lwz 0,20(9)
 927 0098 7C0903A6 		mtctr 0
 928 009c 4E800421 		bctrl
 929              		.loc 2 290 0 discriminator 3
 930 00a0 7F83E000 		cmpw 7,3,28
 931 00a4 409CFFA0 		bge+ 7,.L54
 932              		.loc 2 290 0 is_stmt 0 discriminator 4
 933 00a8 813F0000 		lwz 9,0(31)
 934 00ac 7FE3FB78 		mr 3,31
 935 00b0 80090014 		lwz 0,20(9)
 936 00b4 7C0903A6 		mtctr 0
 937 00b8 4E800421 		bctrl
 938 00bc 801F0028 		lwz 0,40(31)
 939 00c0 7C030214 		add 0,3,0
 940              		.loc 2 285 0 is_stmt 1 discriminator 4
 941 00c4 7F9C0000 		cmpw 7,28,0
 942 00c8 7FA00026 		mfcr 29
 943 00cc 57BDEFFE 		rlwinm 29,29,29,1
 944 00d0 4BFFFF74 		b .L54
 945              		.cfi_endproc
 946              	.LFE1417:
 947              		.size	_ZN10GuiElement8IsInsideEii, .-_ZN10GuiElement8IsInsideEii
 948              		.section	.text._ZN10GuiElement11SetPositionEii,"axG",@progbits,_ZN10GuiElement11SetPositionEii,com
 949              		.align 2
 950              		.weak	_ZN10GuiElement11SetPositionEii
 951              		.type	_ZN10GuiElement11SetPositionEii, @function
 952              	_ZN10GuiElement11SetPositionEii:
 953              	.LFB1418:
 954              		.loc 2 295 0
 955              		.cfi_startproc
 956              	.LVL77:
 957              		.loc 2 297 0
 958 0000 9083002C 		stw 4,44(3)
 959              		.loc 2 299 0
 960              		.loc 2 298 0
 961 0004 90A30030 		stw 5,48(3)
 962              		.loc 2 299 0
 963 0008 4E800020 		blr
 964              		.cfi_endproc
 965              	.LFE1418:
 966              		.size	_ZN10GuiElement11SetPositionEii, .-_ZN10GuiElement11SetPositionEii
 967              		.section	.text._ZN10GuiElement11SetPositionEiii,"axG",@progbits,_ZN10GuiElement11SetPositionEiii,c
 968              		.align 2
 969              		.weak	_ZN10GuiElement11SetPositionEiii
 970              		.type	_ZN10GuiElement11SetPositionEiii, @function
 971              	_ZN10GuiElement11SetPositionEiii:
 972              	.LFB1419:
 973              		.loc 2 304 0
 974              		.cfi_startproc
 975              	.LVL78:
 976              		.loc 2 306 0
 977 0000 9083002C 		stw 4,44(3)
 978              		.loc 2 309 0
 979              		.loc 2 307 0
 980 0004 90A30030 		stw 5,48(3)
 981              		.loc 2 308 0
 982 0008 90C30034 		stw 6,52(3)
 983              		.loc 2 309 0
 984 000c 4E800020 		blr
 985              		.cfi_endproc
 986              	.LFE1419:
 987              		.size	_ZN10GuiElement11SetPositionEiii, .-_ZN10GuiElement11SetPositionEiii
 988              		.section	.text._ZN10GuiElement12SetAlignmentEi,"axG",@progbits,_ZN10GuiElement12SetAlignmentEi,com
 989              		.align 2
 990              		.weak	_ZN10GuiElement12SetAlignmentEi
 991              		.type	_ZN10GuiElement12SetAlignmentEi, @function
 992              	_ZN10GuiElement12SetAlignmentEi:
 993              	.LFB1421:
 994              		.loc 2 316 0
 995              		.cfi_startproc
 996              	.LVL79:
 997              		.loc 2 316 0
 998 0000 90830044 		stw 4,68(3)
 999 0004 4E800020 		blr
 1000              		.cfi_endproc
 1001              	.LFE1421:
 1002              		.size	_ZN10GuiElement12SetAlignmentEi, .-_ZN10GuiElement12SetAlignmentEi
 1003              		.section	.text._ZNK10GuiElement12GetAlignmentEv,"axG",@progbits,_ZNK10GuiElement12GetAlignmentEv,c
 1004              		.align 2
 1005              		.weak	_ZNK10GuiElement12GetAlignmentEv
 1006              		.type	_ZNK10GuiElement12GetAlignmentEv, @function
 1007              	_ZNK10GuiElement12GetAlignmentEv:
 1008              	.LFB1422:
 1009              		.loc 2 318 0
 1010              		.cfi_startproc
 1011              	.LVL80:
 1012              		.loc 2 318 0
 1013 0000 80630044 		lwz 3,68(3)
 1014              	.LVL81:
 1015 0004 4E800020 		blr
 1016              		.cfi_endproc
 1017              	.LFE1422:
 1018              		.size	_ZNK10GuiElement12GetAlignmentEv, .-_ZNK10GuiElement12GetAlignmentEv
 1019              		.section	.text._ZN8GuiFrame4showEv,"axG",@progbits,_ZN8GuiFrame4showEv,comdat
 1020              		.align 2
 1021              		.weak	_ZN8GuiFrame4showEv
 1022              		.type	_ZN8GuiFrame4showEv, @function
 1023              	_ZN8GuiFrame4showEv:
 1024              	.LFB1431:
 1025              		.file 3 "d:/Projects/SaveGameManager/savegame-manager-gx/trunk/source/Settings/menus/../../Gui/gui
 1026              		.loc 3 79 0
 1027              		.cfi_startproc
 1028              	.LVL82:
 1029              		.loc 3 79 0
 1030 0000 4E800020 		blr
 1031              		.cfi_endproc
 1032              	.LFE1431:
 1033              		.size	_ZN8GuiFrame4showEv, .-_ZN8GuiFrame4showEv
 1034              		.section	.text._ZN8GuiFrame4hideEv,"axG",@progbits,_ZN8GuiFrame4hideEv,comdat
 1035              		.align 2
 1036              		.weak	_ZN8GuiFrame4hideEv
 1037              		.type	_ZN8GuiFrame4hideEv, @function
 1038              	_ZN8GuiFrame4hideEv:
 1039              	.LFB1432:
 1040              		.loc 3 81 0
 1041              		.cfi_startproc
 1042              	.LVL83:
 1043              		.loc 3 81 0
 1044 0000 4E800020 		blr
 1045              		.cfi_endproc
 1046              	.LFE1432:
 1047              		.size	_ZN8GuiFrame4hideEv, .-_ZN8GuiFrame4hideEv
 1048              		.section	.text._ZN8GuiFrame4execEv,"axG",@progbits,_ZN8GuiFrame4execEv,comdat
 1049              		.align 2
 1050              		.weak	_ZN8GuiFrame4execEv
 1051              		.type	_ZN8GuiFrame4execEv, @function
 1052              	_ZN8GuiFrame4execEv:
 1053              	.LFB1433:
 1054              		.loc 3 83 0
 1055              		.cfi_startproc
 1056              	.LVL84:
 1057              		.loc 3 83 0
 1058 0000 4E800020 		blr
 1059              		.cfi_endproc
 1060              	.LFE1433:
 1061              		.size	_ZN8GuiFrame4execEv, .-_ZN8GuiFrame4execEv
 1062              		.section	.text._ZN8GuiFrame12updateEventsEv,"axG",@progbits,_ZN8GuiFrame12updateEventsEv,comdat
 1063              		.align 2
 1064              		.weak	_ZN8GuiFrame12updateEventsEv
 1065              		.type	_ZN8GuiFrame12updateEventsEv, @function
 1066              	_ZN8GuiFrame12updateEventsEv:
 1067              	.LFB1434:
 1068              		.loc 3 85 0
 1069              		.cfi_startproc
 1070              	.LVL85:
 1071              		.loc 3 85 0
 1072 0000 4E800020 		blr
 1073              		.cfi_endproc
 1074              	.LFE1434:
 1075              		.size	_ZN8GuiFrame12updateEventsEv, .-_ZN8GuiFrame12updateEventsEv
 1076              		.section	.text._ZN7sigslot17_connection_base3IP9GuiButtoniRK6_POINTNS_15single_threadedEED2Ev,"axG
 1077              		.align 2
 1078              		.weak	_ZN7sigslot17_connection_base3IP9GuiButtoniRK6_POINTNS_15single_threadedEED2Ev
 1079              		.type	_ZN7sigslot17_connection_base3IP9GuiButtoniRK6_POINTNS_15single_threadedEED2Ev, @function
 1080              	_ZN7sigslot17_connection_base3IP9GuiButtoniRK6_POINTNS_15single_threadedEED2Ev:
 1081              	.LFB1979:
 1082              		.loc 1 387 0
 1083              		.cfi_startproc
 1084              	.LVL86:
 1085              	.LBB2933:
 1086              		.loc 1 387 0
 1087 0000 3D200000 		lis 9,_ZTVN7sigslot17_connection_base3IP9GuiButtoniRK6_POINTNS_15single_threadedEEE+8@ha
 1088              	.LBE2933:
 1089              	.LBB2934:
 1090 0004 38090008 		la 0,_ZTVN7sigslot17_connection_base3IP9GuiButtoniRK6_POINTNS_15single_threadedEEE+8@l(9)
 1091 0008 90030000 		stw 0,0(3)
 1092              	.LBE2934:
 1093 000c 4E800020 		blr
 1094              		.cfi_endproc
 1095              	.LFE1979:
 1096              		.size	_ZN7sigslot17_connection_base3IP9GuiButtoniRK6_POINTNS_15single_threadedEED2Ev, .-_ZN7sigslo
 1097              		.section	.text._ZN7sigslot17_connection_base1IiNS_15single_threadedEED2Ev,"axG",@progbits,_ZN7sigs
 1098              		.align 2
 1099              		.weak	_ZN7sigslot17_connection_base1IiNS_15single_threadedEED2Ev
 1100              		.type	_ZN7sigslot17_connection_base1IiNS_15single_threadedEED2Ev, @function
 1101              	_ZN7sigslot17_connection_base1IiNS_15single_threadedEED2Ev:
 1102              	.LFB1986:
 1103              		.loc 1 365 0
 1104              		.cfi_startproc
 1105              	.LVL87:
 1106              	.LBB2935:
 1107              		.loc 1 365 0
 1108 0000 3D200000 		lis 9,_ZTVN7sigslot17_connection_base1IiNS_15single_threadedEEE+8@ha
 1109              	.LBE2935:
 1110              	.LBB2936:
 1111 0004 38090008 		la 0,_ZTVN7sigslot17_connection_base1IiNS_15single_threadedEEE+8@l(9)
 1112 0008 90030000 		stw 0,0(3)
 1113              	.LBE2936:
 1114 000c 4E800020 		blr
 1115              		.cfi_endproc
 1116              	.LFE1986:
 1117              		.size	_ZN7sigslot17_connection_base1IiNS_15single_threadedEED2Ev, .-_ZN7sigslot17_connection_base1
 1118              		.section	.text._ZN7sigslot17_connection_base1IP13CreditsWindowNS_15single_threadedEED2Ev,"axG",@pr
 1119              		.align 2
 1120              		.weak	_ZN7sigslot17_connection_base1IP13CreditsWindowNS_15single_threadedEED2Ev
 1121              		.type	_ZN7sigslot17_connection_base1IP13CreditsWindowNS_15single_threadedEED2Ev, @function
 1122              	_ZN7sigslot17_connection_base1IP13CreditsWindowNS_15single_threadedEED2Ev:
 1123              	.LFB1992:
 1124              		.loc 1 365 0
 1125              		.cfi_startproc
 1126              	.LVL88:
 1127              	.LBB2937:
 1128              		.loc 1 365 0
 1129 0000 3D200000 		lis 9,_ZTVN7sigslot17_connection_base1IP13CreditsWindowNS_15single_threadedEEE+8@ha
 1130              	.LBE2937:
 1131              	.LBB2938:
 1132 0004 38090008 		la 0,_ZTVN7sigslot17_connection_base1IP13CreditsWindowNS_15single_threadedEEE+8@l(9)
 1133 0008 90030000 		stw 0,0(3)
 1134              	.LBE2938:
 1135 000c 4E800020 		blr
 1136              		.cfi_endproc
 1137              	.LFE1992:
 1138              		.size	_ZN7sigslot17_connection_base1IP13CreditsWindowNS_15single_threadedEED2Ev, .-_ZN7sigslot17_c
 1139              		.section	.text._ZN7sigslot12_connection1I12SettingsMenuP13CreditsWindowNS_15single_threadedEED2Ev,
 1140              		.align 2
 1141              		.weak	_ZN7sigslot12_connection1I12SettingsMenuP13CreditsWindowNS_15single_threadedEED2Ev
 1142              		.type	_ZN7sigslot12_connection1I12SettingsMenuP13CreditsWindowNS_15single_threadedEED2Ev, @functio
 1143              	_ZN7sigslot12_connection1I12SettingsMenuP13CreditsWindowNS_15single_threadedEED2Ev:
 1144              	.LFB2365:
 1145              		.loc 1 1688 0
 1146              		.cfi_startproc
 1147              	.LVL89:
 1148              	.LBB2939:
 1149              	.LBB2940:
 1150              	.LBB2941:
 1151              	.LBB2942:
 1152              		.loc 1 365 0
 1153 0000 3D200000 		lis 9,_ZTVN7sigslot17_connection_base1IP13CreditsWindowNS_15single_threadedEEE+8@ha
 1154              	.LBE2942:
 1155              	.LBE2941:
 1156              	.LBE2940:
 1157              	.LBE2939:
 1158              		.loc 1 1691 0
 1159              	.LBB2946:
 1160              	.LBB2945:
 1161              	.LBB2944:
 1162              	.LBB2943:
 1163              		.loc 1 365 0
 1164 0004 38090008 		la 0,_ZTVN7sigslot17_connection_base1IP13CreditsWindowNS_15single_threadedEEE+8@l(9)
 1165 0008 90030000 		stw 0,0(3)
 1166              	.LBE2943:
 1167              	.LBE2944:
 1168              	.LBE2945:
 1169              	.LBE2946:
 1170              		.loc 1 1691 0
 1171 000c 4E800020 		blr
 1172              		.cfi_endproc
 1173              	.LFE2365:
 1174              		.size	_ZN7sigslot12_connection1I12SettingsMenuP13CreditsWindowNS_15single_threadedEED2Ev, .-_ZN7si
 1175              		.section	.text._ZNK7sigslot12_connection1I12SettingsMenuP13CreditsWindowNS_15single_threadedEE7get
 1176              		.align 2
 1177              		.weak	_ZNK7sigslot12_connection1I12SettingsMenuP13CreditsWindowNS_15single_threadedEE7getdestEv
 1178              		.type	_ZNK7sigslot12_connection1I12SettingsMenuP13CreditsWindowNS_15single_threadedEE7getdestEv, @
 1179              	_ZNK7sigslot12_connection1I12SettingsMenuP13CreditsWindowNS_15single_threadedEE7getdestEv:
 1180              	.LFB2368:
 1181              		.loc 1 1708 0
 1182              		.cfi_startproc
 1183              	.LVL90:
 1184              		.loc 1 1710 0
 1185 0000 81230004 		lwz 9,4(3)
 1186 0004 38600000 		li 3,0
 1187              	.LVL91:
 1188 0008 2F890000 		cmpwi 7,9,0
 1189 000c 4D9E0020 		beqlr- 7
 1190              		.loc 1 1710 0 is_stmt 0 discriminator 1
 1191 0010 386900B0 		addi 3,9,176
 1192              		.loc 1 1711 0 is_stmt 1 discriminator 1
 1193 0014 4E800020 		blr
 1194              		.cfi_endproc
 1195              	.LFE2368:
 1196              		.size	_ZNK7sigslot12_connection1I12SettingsMenuP13CreditsWindowNS_15single_threadedEE7getdestEv, .
 1197              		.section	.text._ZN7sigslot12_connection1I12SettingsMenuP13CreditsWindowNS_15single_threadedEE4emit
 1198              		.align 2
 1199              		.weak	_ZN7sigslot12_connection1I12SettingsMenuP13CreditsWindowNS_15single_threadedEE4emitES3_
 1200              		.type	_ZN7sigslot12_connection1I12SettingsMenuP13CreditsWindowNS_15single_threadedEE4emitES3_, @fu
 1201              	_ZN7sigslot12_connection1I12SettingsMenuP13CreditsWindowNS_15single_threadedEE4emitES3_:
 1202              	.LFB2369:
 1203              		.loc 1 1703 0
 1204              		.cfi_startproc
 1205              	.LVL92:
 1206 0000 7C0802A6 		mflr 0
 1207 0004 9421FFF8 		stwu 1,-8(1)
 1208              	.LCFI18:
 1209              		.cfi_def_cfa_offset 8
 1210              		.cfi_register 65, 0
 1211 0008 9001000C 		stw 0,12(1)
 1212              		.loc 1 1705 0
 1213 000c 80030008 		lwz 0,8(3)
 1214              		.cfi_offset 65, 4
 1215 0010 81630004 		lwz 11,4(3)
 1216 0014 70090001 		andi. 9,0,1
 1217 0018 8123000C 		lwz 9,12(3)
 1218 001c 40820020 		bne- 0,.L80
 1219 0020 7C0903A6 		mtctr 0
 1220 0024 7C6B4A14 		add 3,11,9
 1221              	.LVL93:
 1222 0028 4E800421 		bctrl
 1223              	.LVL94:
 1224              		.loc 1 1706 0
 1225 002c 8001000C 		lwz 0,12(1)
 1226 0030 38210008 		addi 1,1,8
 1227              		.cfi_remember_state
 1228              	.LCFI19:
 1229              		.cfi_def_cfa_offset 0
 1230 0034 7C0803A6 		mtlr 0
 1231 0038 4E800020 		blr
 1232              	.LVL95:
 1233              	.L80:
 1234              	.LCFI20:
 1235              		.cfi_restore_state
 1236              		.loc 1 1705 0 discriminator 1
 1237 003c 7D4B482E 		lwzx 10,11,9
 1238 0040 7C6B4A14 		add 3,11,9
 1239              	.LVL96:
 1240 0044 7D2A0214 		add 9,10,0
 1241 0048 8009FFFF 		lwz 0,-1(9)
 1242 004c 7C0903A6 		mtctr 0
 1243 0050 4E800421 		bctrl
 1244              	.LVL97:
 1245              		.loc 1 1706 0 discriminator 1
 1246 0054 8001000C 		lwz 0,12(1)
 1247 0058 38210008 		addi 1,1,8
 1248              	.LCFI21:
 1249              		.cfi_def_cfa_offset 0
 1250 005c 7C0803A6 		mtlr 0
 1251 0060 4E800020 		blr
 1252              		.cfi_endproc
 1253              	.LFE2369:
 1254              		.size	_ZN7sigslot12_connection1I12SettingsMenuP13CreditsWindowNS_15single_threadedEE4emitES3_, .-_
 1255              		.section	.text._ZN7sigslot12_connection1I12SettingsMenuiNS_15single_threadedEED2Ev,"axG",@progbits
 1256              		.align 2
 1257              		.weak	_ZN7sigslot12_connection1I12SettingsMenuiNS_15single_threadedEED2Ev
 1258              		.type	_ZN7sigslot12_connection1I12SettingsMenuiNS_15single_threadedEED2Ev, @function
 1259              	_ZN7sigslot12_connection1I12SettingsMenuiNS_15single_threadedEED2Ev:
 1260              	.LFB2379:
 1261              		.loc 1 1688 0
 1262              		.cfi_startproc
 1263              	.LVL98:
 1264              	.LBB2947:
 1265              	.LBB2948:
 1266              	.LBB2949:
 1267              	.LBB2950:
 1268              		.loc 1 365 0
 1269 0000 3D200000 		lis 9,_ZTVN7sigslot17_connection_base1IiNS_15single_threadedEEE+8@ha
 1270              	.LBE2950:
 1271              	.LBE2949:
 1272              	.LBE2948:
 1273              	.LBE2947:
 1274              		.loc 1 1691 0
 1275              	.LBB2954:
 1276              	.LBB2953:
 1277              	.LBB2952:
 1278              	.LBB2951:
 1279              		.loc 1 365 0
 1280 0004 38090008 		la 0,_ZTVN7sigslot17_connection_base1IiNS_15single_threadedEEE+8@l(9)
 1281 0008 90030000 		stw 0,0(3)
 1282              	.LBE2951:
 1283              	.LBE2952:
 1284              	.LBE2953:
 1285              	.LBE2954:
 1286              		.loc 1 1691 0
 1287 000c 4E800020 		blr
 1288              		.cfi_endproc
 1289              	.LFE2379:
 1290              		.size	_ZN7sigslot12_connection1I12SettingsMenuiNS_15single_threadedEED2Ev, .-_ZN7sigslot12_connect
 1291              		.section	.text._ZNK7sigslot12_connection1I12SettingsMenuiNS_15single_threadedEE7getdestEv,"axG",@p
 1292              		.align 2
 1293              		.weak	_ZNK7sigslot12_connection1I12SettingsMenuiNS_15single_threadedEE7getdestEv
 1294              		.type	_ZNK7sigslot12_connection1I12SettingsMenuiNS_15single_threadedEE7getdestEv, @function
 1295              	_ZNK7sigslot12_connection1I12SettingsMenuiNS_15single_threadedEE7getdestEv:
 1296              	.LFB2382:
 1297              		.loc 1 1708 0
 1298              		.cfi_startproc
 1299              	.LVL99:
 1300              		.loc 1 1710 0
 1301 0000 81230004 		lwz 9,4(3)
 1302 0004 38600000 		li 3,0
 1303              	.LVL100:
 1304 0008 2F890000 		cmpwi 7,9,0
 1305 000c 4D9E0020 		beqlr- 7
 1306              		.loc 1 1710 0 is_stmt 0 discriminator 1
 1307 0010 386900B0 		addi 3,9,176
 1308              		.loc 1 1711 0 is_stmt 1 discriminator 1
 1309 0014 4E800020 		blr
 1310              		.cfi_endproc
 1311              	.LFE2382:
 1312              		.size	_ZNK7sigslot12_connection1I12SettingsMenuiNS_15single_threadedEE7getdestEv, .-_ZNK7sigslot12
 1313              		.section	.text._ZN7sigslot12_connection1I12SettingsMenuiNS_15single_threadedEE4emitEi,"axG",@progb
 1314              		.align 2
 1315              		.weak	_ZN7sigslot12_connection1I12SettingsMenuiNS_15single_threadedEE4emitEi
 1316              		.type	_ZN7sigslot12_connection1I12SettingsMenuiNS_15single_threadedEE4emitEi, @function
 1317              	_ZN7sigslot12_connection1I12SettingsMenuiNS_15single_threadedEE4emitEi:
 1318              	.LFB2383:
 1319              		.loc 1 1703 0
 1320              		.cfi_startproc
 1321              	.LVL101:
 1322 0000 7C0802A6 		mflr 0
 1323 0004 9421FFF8 		stwu 1,-8(1)
 1324              	.LCFI22:
 1325              		.cfi_def_cfa_offset 8
 1326              		.cfi_register 65, 0
 1327 0008 9001000C 		stw 0,12(1)
 1328              		.loc 1 1705 0
 1329 000c 80030008 		lwz 0,8(3)
 1330              		.cfi_offset 65, 4
 1331 0010 81630004 		lwz 11,4(3)
 1332 0014 70090001 		andi. 9,0,1
 1333 0018 8123000C 		lwz 9,12(3)
 1334 001c 40820020 		bne- 0,.L89
 1335 0020 7C0903A6 		mtctr 0
 1336 0024 7C6B4A14 		add 3,11,9
 1337              	.LVL102:
 1338 0028 4E800421 		bctrl
 1339              	.LVL103:
 1340              		.loc 1 1706 0
 1341 002c 8001000C 		lwz 0,12(1)
 1342 0030 38210008 		addi 1,1,8
 1343              		.cfi_remember_state
 1344              	.LCFI23:
 1345              		.cfi_def_cfa_offset 0
 1346 0034 7C0803A6 		mtlr 0
 1347 0038 4E800020 		blr
 1348              	.LVL104:
 1349              	.L89:
 1350              	.LCFI24:
 1351              		.cfi_restore_state
 1352              		.loc 1 1705 0 discriminator 1
 1353 003c 7D4B482E 		lwzx 10,11,9
 1354 0040 7C6B4A14 		add 3,11,9
 1355              	.LVL105:
 1356 0044 7D2A0214 		add 9,10,0
 1357 0048 8009FFFF 		lwz 0,-1(9)
 1358 004c 7C0903A6 		mtctr 0
 1359 0050 4E800421 		bctrl
 1360              	.LVL106:
 1361              		.loc 1 1706 0 discriminator 1
 1362 0054 8001000C 		lwz 0,12(1)
 1363 0058 38210008 		addi 1,1,8
 1364              	.LCFI25:
 1365              		.cfi_def_cfa_offset 0
 1366 005c 7C0803A6 		mtlr 0
 1367 0060 4E800020 		blr
 1368              		.cfi_endproc
 1369              	.LFE2383:
 1370              		.size	_ZN7sigslot12_connection1I12SettingsMenuiNS_15single_threadedEE4emitEi, .-_ZN7sigslot12_conn
 1371              		.section	.text._ZN7sigslot12_connection3I12SettingsMenuP9GuiButtoniRK6_POINTNS_15single_threadedEE
 1372              		.align 2
 1373              		.weak	_ZN7sigslot12_connection3I12SettingsMenuP9GuiButtoniRK6_POINTNS_15single_threadedEED2Ev
 1374              		.type	_ZN7sigslot12_connection3I12SettingsMenuP9GuiButtoniRK6_POINTNS_15single_threadedEED2Ev, @fu
 1375              	_ZN7sigslot12_connection3I12SettingsMenuP9GuiButtoniRK6_POINTNS_15single_threadedEED2Ev:
 1376              	.LFB2393:
 1377              		.loc 1 1783 0
 1378              		.cfi_startproc
 1379              	.LVL107:
 1380              	.LBB2955:
 1381              	.LBB2956:
 1382              	.LBB2957:
 1383              	.LBB2958:
 1384              		.loc 1 387 0
 1385 0000 3D200000 		lis 9,_ZTVN7sigslot17_connection_base3IP9GuiButtoniRK6_POINTNS_15single_threadedEEE+8@ha
 1386              	.LBE2958:
 1387              	.LBE2957:
 1388              	.LBE2956:
 1389              	.LBE2955:
 1390              		.loc 1 1786 0
 1391              	.LBB2962:
 1392              	.LBB2961:
 1393              	.LBB2960:
 1394              	.LBB2959:
 1395              		.loc 1 387 0
 1396 0004 38090008 		la 0,_ZTVN7sigslot17_connection_base3IP9GuiButtoniRK6_POINTNS_15single_threadedEEE+8@l(9)
 1397 0008 90030000 		stw 0,0(3)
 1398              	.LBE2959:
 1399              	.LBE2960:
 1400              	.LBE2961:
 1401              	.LBE2962:
 1402              		.loc 1 1786 0
 1403 000c 4E800020 		blr
 1404              		.cfi_endproc
 1405              	.LFE2393:
 1406              		.size	_ZN7sigslot12_connection3I12SettingsMenuP9GuiButtoniRK6_POINTNS_15single_threadedEED2Ev, .-_
 1407              		.section	.text._ZNK7sigslot12_connection3I12SettingsMenuP9GuiButtoniRK6_POINTNS_15single_threadedE
 1408              		.align 2
 1409              		.weak	_ZNK7sigslot12_connection3I12SettingsMenuP9GuiButtoniRK6_POINTNS_15single_threadedEE7getdest
 1410              		.type	_ZNK7sigslot12_connection3I12SettingsMenuP9GuiButtoniRK6_POINTNS_15single_threadedEE7getdest
 1411              	_ZNK7sigslot12_connection3I12SettingsMenuP9GuiButtoniRK6_POINTNS_15single_threadedEE7getdestEv:
 1412              	.LFB2396:
 1413              		.loc 1 1804 0
 1414              		.cfi_startproc
 1415              	.LVL108:
 1416              		.loc 1 1806 0
 1417 0000 81230004 		lwz 9,4(3)
 1418 0004 38600000 		li 3,0
 1419              	.LVL109:
 1420 0008 2F890000 		cmpwi 7,9,0
 1421 000c 4D9E0020 		beqlr- 7
 1422              		.loc 1 1806 0 is_stmt 0 discriminator 1
 1423 0010 386900B0 		addi 3,9,176
 1424              		.loc 1 1807 0 is_stmt 1 discriminator 1
 1425 0014 4E800020 		blr
 1426              		.cfi_endproc
 1427              	.LFE2396:
 1428              		.size	_ZNK7sigslot12_connection3I12SettingsMenuP9GuiButtoniRK6_POINTNS_15single_threadedEE7getdest
 1429              		.section	.text._ZN7sigslot12_connection3I12SettingsMenuP9GuiButtoniRK6_POINTNS_15single_threadedEE
 1430              		.align 2
 1431              		.weak	_ZN7sigslot12_connection3I12SettingsMenuP9GuiButtoniRK6_POINTNS_15single_threadedEE4emitES3_
 1432              		.type	_ZN7sigslot12_connection3I12SettingsMenuP9GuiButtoniRK6_POINTNS_15single_threadedEE4emitES3_
 1433              	_ZN7sigslot12_connection3I12SettingsMenuP9GuiButtoniRK6_POINTNS_15single_threadedEE4emitES3_iS6_:
 1434              	.LFB2397:
 1435              		.loc 1 1799 0
 1436              		.cfi_startproc
 1437              	.LVL110:
 1438 0000 7C0802A6 		mflr 0
 1439 0004 9421FFF8 		stwu 1,-8(1)
 1440              	.LCFI26:
 1441              		.cfi_def_cfa_offset 8
 1442              		.cfi_register 65, 0
 1443 0008 9001000C 		stw 0,12(1)
 1444              		.loc 1 1801 0
 1445 000c 80030008 		lwz 0,8(3)
 1446              		.cfi_offset 65, 4
 1447 0010 81630004 		lwz 11,4(3)
 1448 0014 70090001 		andi. 9,0,1
 1449 0018 8123000C 		lwz 9,12(3)
 1450 001c 40820020 		bne- 0,.L98
 1451 0020 7C0903A6 		mtctr 0
 1452 0024 7C6B4A14 		add 3,11,9
 1453              	.LVL111:
 1454 0028 4E800421 		bctrl
 1455              	.LVL112:
 1456              		.loc 1 1802 0
 1457 002c 8001000C 		lwz 0,12(1)
 1458 0030 38210008 		addi 1,1,8
 1459              		.cfi_remember_state
 1460              	.LCFI27:
 1461              		.cfi_def_cfa_offset 0
 1462 0034 7C0803A6 		mtlr 0
 1463 0038 4E800020 		blr
 1464              	.LVL113:
 1465              	.L98:
 1466              	.LCFI28:
 1467              		.cfi_restore_state
 1468              		.loc 1 1801 0 discriminator 1
 1469 003c 7D4B482E 		lwzx 10,11,9
 1470 0040 7C6B4A14 		add 3,11,9
 1471              	.LVL114:
 1472 0044 7D2A0214 		add 9,10,0
 1473 0048 8009FFFF 		lwz 0,-1(9)
 1474 004c 7C0903A6 		mtctr 0
 1475 0050 4E800421 		bctrl
 1476              	.LVL115:
 1477              		.loc 1 1802 0 discriminator 1
 1478 0054 8001000C 		lwz 0,12(1)
 1479 0058 38210008 		addi 1,1,8
 1480              	.LCFI29:
 1481              		.cfi_def_cfa_offset 0
 1482 005c 7C0803A6 		mtlr 0
 1483 0060 4E800020 		blr
 1484              		.cfi_endproc
 1485              	.LFE2397:
 1486              		.size	_ZN7sigslot12_connection3I12SettingsMenuP9GuiButtoniRK6_POINTNS_15single_threadedEE4emitES3_
 1487              		.section	.text._ZN7sigslot12_connection3I12SettingsMenuP9GuiButtoniRK6_POINTNS_15single_threadedEE
 1488              		.align 2
 1489              		.weak	_ZN7sigslot12_connection3I12SettingsMenuP9GuiButtoniRK6_POINTNS_15single_threadedEE9duplicat
 1490              		.type	_ZN7sigslot12_connection3I12SettingsMenuP9GuiButtoniRK6_POINTNS_15single_threadedEE9duplicat
 1491              	_ZN7sigslot12_connection3I12SettingsMenuP9GuiButtoniRK6_POINTNS_15single_threadedEE9duplicateEPNS_9
 1492              	.LFB2405:
 1493              		.loc 1 1794 0
 1494              		.cfi_startproc
 1495              	.LVL116:
 1496 0000 9421FFF0 		stwu 1,-16(1)
 1497              	.LCFI30:
 1498              		.cfi_def_cfa_offset 16
 1499 0004 7C0802A6 		mflr 0
 1500 0008 93C10008 		stw 30,8(1)
 1501 000c 7C9E2378 		mr 30,4
 1502              		.cfi_offset 30, -8
 1503              		.cfi_register 65, 0
 1504 0010 93E1000C 		stw 31,12(1)
 1505 0014 7C7F1B78 		mr 31,3
 1506              		.cfi_offset 31, -4
 1507              		.loc 1 1796 0
 1508 0018 38600010 		li 3,16
 1509              	.LVL117:
 1510              		.loc 1 1794 0
 1511 001c 90010014 		stw 0,20(1)
 1512              		.loc 1 1796 0
 1513              		.cfi_offset 65, 4
 1514 0020 48000001 		bl _Znwj
 1515              	.LVL118:
 1516 0024 2F9E0000 		cmpwi 7,30,0
 1517 0028 38000000 		li 0,0
 1518 002c 419E0008 		beq- 7,.L101
 1519              		.loc 1 1796 0 is_stmt 0 discriminator 1
 1520 0030 381EFF50 		addi 0,30,-176
 1521              	.L101:
 1522              	.LVL119:
 1523              		.loc 1 1796 0 discriminator 3
 1524 0034 817F0008 		lwz 11,8(31)
 1525              	.LVL120:
 1526              	.LBB2963:
 1527              	.LBB2964:
 1528              		.loc 1 1778 0 is_stmt 1 discriminator 3
 1529 0038 3D400000 		lis 10,_ZTVN7sigslot12_connection3I12SettingsMenuP9GuiButtoniRK6_POINTNS_15single_threadedEEE+8@ha
 1530              	.LBE2964:
 1531              	.LBE2963:
 1532              		.loc 1 1796 0 discriminator 3
 1533 003c 813F000C 		lwz 9,12(31)
 1534              	.LVL121:
 1535              	.LBB2967:
 1536              	.LBB2965:
 1537              		.loc 1 1778 0 discriminator 3
 1538 0040 394A0008 		la 10,_ZTVN7sigslot12_connection3I12SettingsMenuP9GuiButtoniRK6_POINTNS_15single_threadedEEE+8@l(1
 1539              		.loc 1 1780 0 discriminator 3
 1540 0044 91630008 		stw 11,8(3)
 1541 0048 9123000C 		stw 9,12(3)
 1542              		.loc 1 1779 0 discriminator 3
 1543 004c 90030004 		stw 0,4(3)
 1544              	.LBE2965:
 1545              	.LBE2967:
 1546              		.loc 1 1797 0 discriminator 3
 1547 0050 80010014 		lwz 0,20(1)
 1548              	.LVL122:
 1549 0054 83C10008 		lwz 30,8(1)
 1550              	.LVL123:
 1551 0058 7C0803A6 		mtlr 0
 1552 005c 83E1000C 		lwz 31,12(1)
 1553              	.LVL124:
 1554              	.LBB2968:
 1555              	.LBB2966:
 1556              		.loc 1 1778 0 discriminator 3
 1557 0060 91430000 		stw 10,0(3)
 1558              	.LBE2966:
 1559              	.LBE2968:
 1560              		.loc 1 1797 0 discriminator 3
 1561 0064 38210010 		addi 1,1,16
 1562              	.LCFI31:
 1563              		.cfi_def_cfa_offset 0
 1564              		.cfi_restore 31
 1565              		.cfi_restore 30
 1566 0068 4E800020 		blr
 1567              		.cfi_endproc
 1568              	.LFE2405:
 1569              		.size	_ZN7sigslot12_connection3I12SettingsMenuP9GuiButtoniRK6_POINTNS_15single_threadedEE9duplicat
 1570              		.section	.text._ZN7sigslot12_connection1I12SettingsMenuiNS_15single_threadedEE9duplicateEPNS_9has_
 1571              		.align 2
 1572              		.weak	_ZN7sigslot12_connection1I12SettingsMenuiNS_15single_threadedEE9duplicateEPNS_9has_slotsIS2_
 1573              		.type	_ZN7sigslot12_connection1I12SettingsMenuiNS_15single_threadedEE9duplicateEPNS_9has_slotsIS2_
 1574              	_ZN7sigslot12_connection1I12SettingsMenuiNS_15single_threadedEE9duplicateEPNS_9has_slotsIS2_EE:
 1575              	.LFB2391:
 1576              		.loc 1 1698 0
 1577              		.cfi_startproc
 1578              	.LVL125:
 1579 0000 9421FFF0 		stwu 1,-16(1)
 1580              	.LCFI32:
 1581              		.cfi_def_cfa_offset 16
 1582 0004 7C0802A6 		mflr 0
 1583 0008 93C10008 		stw 30,8(1)
 1584 000c 7C9E2378 		mr 30,4
 1585              		.cfi_offset 30, -8
 1586              		.cfi_register 65, 0
 1587 0010 93E1000C 		stw 31,12(1)
 1588 0014 7C7F1B78 		mr 31,3
 1589              		.cfi_offset 31, -4
 1590              		.loc 1 1700 0
 1591 0018 38600010 		li 3,16
 1592              	.LVL126:
 1593              		.loc 1 1698 0
 1594 001c 90010014 		stw 0,20(1)
 1595              		.loc 1 1700 0
 1596              		.cfi_offset 65, 4
 1597 0020 48000001 		bl _Znwj
 1598              	.LVL127:
 1599 0024 2F9E0000 		cmpwi 7,30,0
 1600 0028 38000000 		li 0,0
 1601 002c 419E0008 		beq- 7,.L104
 1602              		.loc 1 1700 0 is_stmt 0 discriminator 1
 1603 0030 381EFF50 		addi 0,30,-176
 1604              	.L104:
 1605              	.LVL128:
 1606              		.loc 1 1700 0 discriminator 3
 1607 0034 817F0008 		lwz 11,8(31)
 1608              	.LVL129:
 1609              	.LBB2969:
 1610              	.LBB2970:
 1611              		.loc 1 1683 0 is_stmt 1 discriminator 3
 1612 0038 3D400000 		lis 10,_ZTVN7sigslot12_connection1I12SettingsMenuiNS_15single_threadedEEE+8@ha
 1613              	.LBE2970:
 1614              	.LBE2969:
 1615              		.loc 1 1700 0 discriminator 3
 1616 003c 813F000C 		lwz 9,12(31)
 1617              	.LVL130:
 1618              	.LBB2973:
 1619              	.LBB2971:
 1620              		.loc 1 1683 0 discriminator 3
 1621 0040 394A0008 		la 10,_ZTVN7sigslot12_connection1I12SettingsMenuiNS_15single_threadedEEE+8@l(10)
 1622              		.loc 1 1685 0 discriminator 3
 1623 0044 91630008 		stw 11,8(3)
 1624 0048 9123000C 		stw 9,12(3)
 1625              		.loc 1 1684 0 discriminator 3
 1626 004c 90030004 		stw 0,4(3)
 1627              	.LBE2971:
 1628              	.LBE2973:
 1629              		.loc 1 1701 0 discriminator 3
 1630 0050 80010014 		lwz 0,20(1)
 1631              	.LVL131:
 1632 0054 83C10008 		lwz 30,8(1)
 1633              	.LVL132:
 1634 0058 7C0803A6 		mtlr 0
 1635 005c 83E1000C 		lwz 31,12(1)
 1636              	.LVL133:
 1637              	.LBB2974:
 1638              	.LBB2972:
 1639              		.loc 1 1683 0 discriminator 3
 1640 0060 91430000 		stw 10,0(3)
 1641              	.LBE2972:
 1642              	.LBE2974:
 1643              		.loc 1 1701 0 discriminator 3
 1644 0064 38210010 		addi 1,1,16
 1645              	.LCFI33:
 1646              		.cfi_def_cfa_offset 0
 1647              		.cfi_restore 31
 1648              		.cfi_restore 30
 1649 0068 4E800020 		blr
 1650              		.cfi_endproc
 1651              	.LFE2391:
 1652              		.size	_ZN7sigslot12_connection1I12SettingsMenuiNS_15single_threadedEE9duplicateEPNS_9has_slotsIS2_
 1653              		.section	.text._ZN7sigslot12_connection1I12SettingsMenuP13CreditsWindowNS_15single_threadedEE9dupl
 1654              		.align 2
 1655              		.weak	_ZN7sigslot12_connection1I12SettingsMenuP13CreditsWindowNS_15single_threadedEE9duplicateEPNS
 1656              		.type	_ZN7sigslot12_connection1I12SettingsMenuP13CreditsWindowNS_15single_threadedEE9duplicateEPNS
 1657              	_ZN7sigslot12_connection1I12SettingsMenuP13CreditsWindowNS_15single_threadedEE9duplicateEPNS_9has_s
 1658              	.LFB2377:
 1659              		.loc 1 1698 0
 1660              		.cfi_startproc
 1661              	.LVL134:
 1662 0000 9421FFF0 		stwu 1,-16(1)
 1663              	.LCFI34:
 1664              		.cfi_def_cfa_offset 16
 1665 0004 7C0802A6 		mflr 0
 1666 0008 93C10008 		stw 30,8(1)
 1667 000c 7C9E2378 		mr 30,4
 1668              		.cfi_offset 30, -8
 1669              		.cfi_register 65, 0
 1670 0010 93E1000C 		stw 31,12(1)
 1671 0014 7C7F1B78 		mr 31,3
 1672              		.cfi_offset 31, -4
 1673              		.loc 1 1700 0
 1674 0018 38600010 		li 3,16
 1675              	.LVL135:
 1676              		.loc 1 1698 0
 1677 001c 90010014 		stw 0,20(1)
 1678              		.loc 1 1700 0
 1679              		.cfi_offset 65, 4
 1680 0020 48000001 		bl _Znwj
 1681              	.LVL136:
 1682 0024 2F9E0000 		cmpwi 7,30,0
 1683 0028 38000000 		li 0,0
 1684 002c 419E0008 		beq- 7,.L107
 1685              		.loc 1 1700 0 is_stmt 0 discriminator 1
 1686 0030 381EFF50 		addi 0,30,-176
 1687              	.L107:
 1688              	.LVL137:
 1689              		.loc 1 1700 0 discriminator 3
 1690 0034 817F0008 		lwz 11,8(31)
 1691              	.LVL138:
 1692              	.LBB2975:
 1693              	.LBB2976:
 1694              		.loc 1 1683 0 is_stmt 1 discriminator 3
 1695 0038 3D400000 		lis 10,_ZTVN7sigslot12_connection1I12SettingsMenuP13CreditsWindowNS_15single_threadedEEE+8@ha
 1696              	.LBE2976:
 1697              	.LBE2975:
 1698              		.loc 1 1700 0 discriminator 3
 1699 003c 813F000C 		lwz 9,12(31)
 1700              	.LVL139:
 1701              	.LBB2979:
 1702              	.LBB2977:
 1703              		.loc 1 1683 0 discriminator 3
 1704 0040 394A0008 		la 10,_ZTVN7sigslot12_connection1I12SettingsMenuP13CreditsWindowNS_15single_threadedEEE+8@l(10)
 1705              		.loc 1 1685 0 discriminator 3
 1706 0044 91630008 		stw 11,8(3)
 1707 0048 9123000C 		stw 9,12(3)
 1708              		.loc 1 1684 0 discriminator 3
 1709 004c 90030004 		stw 0,4(3)
 1710              	.LBE2977:
 1711              	.LBE2979:
 1712              		.loc 1 1701 0 discriminator 3
 1713 0050 80010014 		lwz 0,20(1)
 1714              	.LVL140:
 1715 0054 83C10008 		lwz 30,8(1)
 1716              	.LVL141:
 1717 0058 7C0803A6 		mtlr 0
 1718 005c 83E1000C 		lwz 31,12(1)
 1719              	.LVL142:
 1720              	.LBB2980:
 1721              	.LBB2978:
 1722              		.loc 1 1683 0 discriminator 3
 1723 0060 91430000 		stw 10,0(3)
 1724              	.LBE2978:
 1725              	.LBE2980:
 1726              		.loc 1 1701 0 discriminator 3
 1727 0064 38210010 		addi 1,1,16
 1728              	.LCFI35:
 1729              		.cfi_def_cfa_offset 0
 1730              		.cfi_restore 31
 1731              		.cfi_restore 30
 1732 0068 4E800020 		blr
 1733              		.cfi_endproc
 1734              	.LFE2377:
 1735              		.size	_ZN7sigslot12_connection1I12SettingsMenuP13CreditsWindowNS_15single_threadedEE9duplicateEPNS
 1736              		.section	.text._ZN7sigslot12_connection1I12SettingsMenuP13CreditsWindowNS_15single_threadedEE5clon
 1737              		.align 2
 1738              		.weak	_ZN7sigslot12_connection1I12SettingsMenuP13CreditsWindowNS_15single_threadedEE5cloneEv
 1739              		.type	_ZN7sigslot12_connection1I12SettingsMenuP13CreditsWindowNS_15single_threadedEE5cloneEv, @fun
 1740              	_ZN7sigslot12_connection1I12SettingsMenuP13CreditsWindowNS_15single_threadedEE5cloneEv:
 1741              	.LFB2370:
 1742              		.loc 1 1693 0
 1743              		.cfi_startproc
 1744              	.LVL143:
 1745 0000 9421FFF0 		stwu 1,-16(1)
 1746              	.LCFI36:
 1747              		.cfi_def_cfa_offset 16
 1748 0004 7C0802A6 		mflr 0
 1749 0008 93E1000C 		stw 31,12(1)
 1750 000c 7C7F1B78 		mr 31,3
 1751              		.cfi_offset 31, -4
 1752              		.cfi_register 65, 0
 1753              		.loc 1 1695 0
 1754 0010 38600010 		li 3,16
 1755              	.LVL144:
 1756              		.loc 1 1693 0
 1757 0014 90010014 		stw 0,20(1)
 1758              		.loc 1 1695 0
 1759              		.cfi_offset 65, 4
 1760 0018 48000001 		bl _Znwj
 1761              		.file 4 "d:/Projects/SaveGameManager/savegame-manager-gx/trunk/source/Settings/menus/SettingsMenu.
 1762              		.loc 4 454 0
 1763 001c 801F0004 		lwz 0,4(31)
 1764              	.LVL145:
 1765              	.LBB2981:
 1766              	.LBB2982:
 1767              		.loc 1 1673 0
 1768 0020 3D600000 		lis 11,_ZTVN7sigslot12_connection1I12SettingsMenuP13CreditsWindowNS_15single_threadedEEE+8@ha
 1769 0024 396B0008 		la 11,_ZTVN7sigslot12_connection1I12SettingsMenuP13CreditsWindowNS_15single_threadedEEE+8@l(11)
 1770 0028 90030004 		stw 0,4(3)
 1771 002c 91630000 		stw 11,0(3)
 1772 0030 815F0008 		lwz 10,8(31)
 1773 0034 817F000C 		lwz 11,12(31)
 1774 0038 91430008 		stw 10,8(3)
 1775 003c 9163000C 		stw 11,12(3)
 1776              	.LBE2982:
 1777              	.LBE2981:
 1778              		.loc 1 1696 0
 1779 0040 80010014 		lwz 0,20(1)
 1780 0044 83E1000C 		lwz 31,12(1)
 1781              	.LVL146:
 1782 0048 7C0803A6 		mtlr 0
 1783 004c 38210010 		addi 1,1,16
 1784              	.LCFI37:
 1785              		.cfi_def_cfa_offset 0
 1786              		.cfi_restore 31
 1787 0050 4E800020 		blr
 1788              		.cfi_endproc
 1789              	.LFE2370:
 1790              		.size	_ZN7sigslot12_connection1I12SettingsMenuP13CreditsWindowNS_15single_threadedEE5cloneEv, .-_Z
 1791              		.section	.text._ZN7sigslot12_connection1I12SettingsMenuiNS_15single_threadedEE5cloneEv,"axG",@prog
 1792              		.align 2
 1793              		.weak	_ZN7sigslot12_connection1I12SettingsMenuiNS_15single_threadedEE5cloneEv
 1794              		.type	_ZN7sigslot12_connection1I12SettingsMenuiNS_15single_threadedEE5cloneEv, @function
 1795              	_ZN7sigslot12_connection1I12SettingsMenuiNS_15single_threadedEE5cloneEv:
 1796              	.LFB2384:
 1797              		.loc 1 1693 0
 1798              		.cfi_startproc
 1799              	.LVL147:
 1800 0000 9421FFF0 		stwu 1,-16(1)
 1801              	.LCFI38:
 1802              		.cfi_def_cfa_offset 16
 1803 0004 7C0802A6 		mflr 0
 1804 0008 93E1000C 		stw 31,12(1)
 1805 000c 7C7F1B78 		mr 31,3
 1806              		.cfi_offset 31, -4
 1807              		.cfi_register 65, 0
 1808              		.loc 1 1695 0
 1809 0010 38600010 		li 3,16
 1810              	.LVL148:
 1811              		.loc 1 1693 0
 1812 0014 90010014 		stw 0,20(1)
 1813              		.loc 1 1695 0
 1814              		.cfi_offset 65, 4
 1815 0018 48000001 		bl _Znwj
 1816              		.loc 4 454 0
 1817 001c 801F0004 		lwz 0,4(31)
 1818              	.LVL149:
 1819              	.LBB2983:
 1820              	.LBB2984:
 1821              		.loc 1 1673 0
 1822 0020 3D600000 		lis 11,_ZTVN7sigslot12_connection1I12SettingsMenuiNS_15single_threadedEEE+8@ha
 1823 0024 396B0008 		la 11,_ZTVN7sigslot12_connection1I12SettingsMenuiNS_15single_threadedEEE+8@l(11)
 1824 0028 90030004 		stw 0,4(3)
 1825 002c 91630000 		stw 11,0(3)
 1826 0030 815F0008 		lwz 10,8(31)
 1827 0034 817F000C 		lwz 11,12(31)
 1828 0038 91430008 		stw 10,8(3)
 1829 003c 9163000C 		stw 11,12(3)
 1830              	.LBE2984:
 1831              	.LBE2983:
 1832              		.loc 1 1696 0
 1833 0040 80010014 		lwz 0,20(1)
 1834 0044 83E1000C 		lwz 31,12(1)
 1835              	.LVL150:
 1836 0048 7C0803A6 		mtlr 0
 1837 004c 38210010 		addi 1,1,16
 1838              	.LCFI39:
 1839              		.cfi_def_cfa_offset 0
 1840              		.cfi_restore 31
 1841 0050 4E800020 		blr
 1842              		.cfi_endproc
 1843              	.LFE2384:
 1844              		.size	_ZN7sigslot12_connection1I12SettingsMenuiNS_15single_threadedEE5cloneEv, .-_ZN7sigslot12_con
 1845              		.section	.text._ZN7sigslot12_connection3I12SettingsMenuP9GuiButtoniRK6_POINTNS_15single_threadedEE
 1846              		.align 2
 1847              		.weak	_ZN7sigslot12_connection3I12SettingsMenuP9GuiButtoniRK6_POINTNS_15single_threadedEE5cloneEv
 1848              		.type	_ZN7sigslot12_connection3I12SettingsMenuP9GuiButtoniRK6_POINTNS_15single_threadedEE5cloneEv,
 1849              	_ZN7sigslot12_connection3I12SettingsMenuP9GuiButtoniRK6_POINTNS_15single_threadedEE5cloneEv:
 1850              	.LFB2398:
 1851              		.loc 1 1789 0
 1852              		.cfi_startproc
 1853              	.LVL151:
 1854 0000 9421FFF0 		stwu 1,-16(1)
 1855              	.LCFI40:
 1856              		.cfi_def_cfa_offset 16
 1857 0004 7C0802A6 		mflr 0
 1858 0008 93E1000C 		stw 31,12(1)
 1859 000c 7C7F1B78 		mr 31,3
 1860              		.cfi_offset 31, -4
 1861              		.cfi_register 65, 0
 1862              		.loc 1 1791 0
 1863 0010 38600010 		li 3,16
 1864              	.LVL152:
 1865              		.loc 1 1789 0
 1866 0014 90010014 		stw 0,20(1)
 1867              		.loc 1 1791 0
 1868              		.cfi_offset 65, 4
 1869 0018 48000001 		bl _Znwj
 1870              		.loc 4 454 0
 1871 001c 801F0004 		lwz 0,4(31)
 1872              	.LVL153:
 1873              	.LBB2985:
 1874              	.LBB2986:
 1875              		.loc 1 1767 0
 1876 0020 3D600000 		lis 11,_ZTVN7sigslot12_connection3I12SettingsMenuP9GuiButtoniRK6_POINTNS_15single_threadedEEE+8@ha
 1877 0024 396B0008 		la 11,_ZTVN7sigslot12_connection3I12SettingsMenuP9GuiButtoniRK6_POINTNS_15single_threadedEEE+8@l(1
 1878 0028 90030004 		stw 0,4(3)
 1879 002c 91630000 		stw 11,0(3)
 1880 0030 815F0008 		lwz 10,8(31)
 1881 0034 817F000C 		lwz 11,12(31)
 1882 0038 91430008 		stw 10,8(3)
 1883 003c 9163000C 		stw 11,12(3)
 1884              	.LBE2986:
 1885              	.LBE2985:
 1886              		.loc 1 1792 0
 1887 0040 80010014 		lwz 0,20(1)
 1888 0044 83E1000C 		lwz 31,12(1)
 1889              	.LVL154:
 1890 0048 7C0803A6 		mtlr 0
 1891 004c 38210010 		addi 1,1,16
 1892              	.LCFI41:
 1893              		.cfi_def_cfa_offset 0
 1894              		.cfi_restore 31
 1895 0050 4E800020 		blr
 1896              		.cfi_endproc
 1897              	.LFE2398:
 1898              		.size	_ZN7sigslot12_connection3I12SettingsMenuP9GuiButtoniRK6_POINTNS_15single_threadedEE5cloneEv,
 1899              		.section	.text._ZN7sigslot12_connection3I12SettingsMenuP9GuiButtoniRK6_POINTNS_15single_threadedEE
 1900              		.align 2
 1901              		.weak	_ZN7sigslot12_connection3I12SettingsMenuP9GuiButtoniRK6_POINTNS_15single_threadedEED0Ev
 1902              		.type	_ZN7sigslot12_connection3I12SettingsMenuP9GuiButtoniRK6_POINTNS_15single_threadedEED0Ev, @fu
 1903              	_ZN7sigslot12_connection3I12SettingsMenuP9GuiButtoniRK6_POINTNS_15single_threadedEED0Ev:
 1904              	.LFB2395:
 1905              		.loc 1 1783 0
 1906              		.cfi_startproc
 1907              	.LVL155:
 1908 0000 7C0802A6 		mflr 0
 1909 0004 9421FFF8 		stwu 1,-8(1)
 1910              	.LCFI42:
 1911              		.cfi_def_cfa_offset 8
 1912              		.cfi_register 65, 0
 1913              	.LBB2987:
 1914              	.LBB2988:
 1915              	.LBB2989:
 1916              	.LBB2990:
 1917              	.LBB2991:
 1918              	.LBB2992:
 1919              		.loc 1 387 0
 1920 0008 3D200000 		lis 9,_ZTVN7sigslot17_connection_base3IP9GuiButtoniRK6_POINTNS_15single_threadedEEE+8@ha
 1921              	.LBE2992:
 1922              	.LBE2991:
 1923              	.LBE2990:
 1924              	.LBE2989:
 1925              	.LBE2988:
 1926              	.LBE2987:
 1927              		.loc 1 1783 0
 1928 000c 9001000C 		stw 0,12(1)
 1929              	.LBB2998:
 1930              	.LBB2997:
 1931              	.LBB2996:
 1932              	.LBB2995:
 1933              	.LBB2994:
 1934              	.LBB2993:
 1935              		.loc 1 387 0
 1936 0010 38090008 		la 0,_ZTVN7sigslot17_connection_base3IP9GuiButtoniRK6_POINTNS_15single_threadedEEE+8@l(9)
 1937              		.cfi_offset 65, 4
 1938 0014 90030000 		stw 0,0(3)
 1939              	.LBE2993:
 1940              	.LBE2994:
 1941              	.LBE2995:
 1942              	.LBE2996:
 1943              	.LBE2997:
 1944              	.LBE2998:
 1945              		.loc 1 1786 0
 1946 0018 48000001 		bl _ZdlPv
 1947              	.LVL156:
 1948 001c 8001000C 		lwz 0,12(1)
 1949 0020 38210008 		addi 1,1,8
 1950              	.LCFI43:
 1951              		.cfi_def_cfa_offset 0
 1952 0024 7C0803A6 		mtlr 0
 1953 0028 4E800020 		blr
 1954              		.cfi_endproc
 1955              	.LFE2395:
 1956              		.size	_ZN7sigslot12_connection3I12SettingsMenuP9GuiButtoniRK6_POINTNS_15single_threadedEED0Ev, .-_
 1957              		.section	.text._ZN7sigslot12_connection1I12SettingsMenuiNS_15single_threadedEED0Ev,"axG",@progbits
 1958              		.align 2
 1959              		.weak	_ZN7sigslot12_connection1I12SettingsMenuiNS_15single_threadedEED0Ev
 1960              		.type	_ZN7sigslot12_connection1I12SettingsMenuiNS_15single_threadedEED0Ev, @function
 1961              	_ZN7sigslot12_connection1I12SettingsMenuiNS_15single_threadedEED0Ev:
 1962              	.LFB2381:
 1963              		.loc 1 1688 0
 1964              		.cfi_startproc
 1965              	.LVL157:
 1966 0000 7C0802A6 		mflr 0
 1967 0004 9421FFF8 		stwu 1,-8(1)
 1968              	.LCFI44:
 1969              		.cfi_def_cfa_offset 8
 1970              		.cfi_register 65, 0
 1971              	.LBB2999:
 1972              	.LBB3000:
 1973              	.LBB3001:
 1974              	.LBB3002:
 1975              	.LBB3003:
 1976              	.LBB3004:
 1977              		.loc 1 365 0
 1978 0008 3D200000 		lis 9,_ZTVN7sigslot17_connection_base1IiNS_15single_threadedEEE+8@ha
 1979              	.LBE3004:
 1980              	.LBE3003:
 1981              	.LBE3002:
 1982              	.LBE3001:
 1983              	.LBE3000:
 1984              	.LBE2999:
 1985              		.loc 1 1688 0
 1986 000c 9001000C 		stw 0,12(1)
 1987              	.LBB3010:
 1988              	.LBB3009:
 1989              	.LBB3008:
 1990              	.LBB3007:
 1991              	.LBB3006:
 1992              	.LBB3005:
 1993              		.loc 1 365 0
 1994 0010 38090008 		la 0,_ZTVN7sigslot17_connection_base1IiNS_15single_threadedEEE+8@l(9)
 1995              		.cfi_offset 65, 4
 1996 0014 90030000 		stw 0,0(3)
 1997              	.LBE3005:
 1998              	.LBE3006:
 1999              	.LBE3007:
 2000              	.LBE3008:
 2001              	.LBE3009:
 2002              	.LBE3010:
 2003              		.loc 1 1691 0
 2004 0018 48000001 		bl _ZdlPv
 2005              	.LVL158:
 2006 001c 8001000C 		lwz 0,12(1)
 2007 0020 38210008 		addi 1,1,8
 2008              	.LCFI45:
 2009              		.cfi_def_cfa_offset 0
 2010 0024 7C0803A6 		mtlr 0
 2011 0028 4E800020 		blr
 2012              		.cfi_endproc
 2013              	.LFE2381:
 2014              		.size	_ZN7sigslot12_connection1I12SettingsMenuiNS_15single_threadedEED0Ev, .-_ZN7sigslot12_connect
 2015              		.section	.text._ZN7sigslot12_connection1I12SettingsMenuP13CreditsWindowNS_15single_threadedEED0Ev,
 2016              		.align 2
 2017              		.weak	_ZN7sigslot12_connection1I12SettingsMenuP13CreditsWindowNS_15single_threadedEED0Ev
 2018              		.type	_ZN7sigslot12_connection1I12SettingsMenuP13CreditsWindowNS_15single_threadedEED0Ev, @functio
 2019              	_ZN7sigslot12_connection1I12SettingsMenuP13CreditsWindowNS_15single_threadedEED0Ev:
 2020              	.LFB2367:
 2021              		.loc 1 1688 0
 2022              		.cfi_startproc
 2023              	.LVL159:
 2024 0000 7C0802A6 		mflr 0
 2025 0004 9421FFF8 		stwu 1,-8(1)
 2026              	.LCFI46:
 2027              		.cfi_def_cfa_offset 8
 2028              		.cfi_register 65, 0
 2029              	.LBB3011:
 2030              	.LBB3012:
 2031              	.LBB3013:
 2032              	.LBB3014:
 2033              	.LBB3015:
 2034              	.LBB3016:
 2035              		.loc 1 365 0
 2036 0008 3D200000 		lis 9,_ZTVN7sigslot17_connection_base1IP13CreditsWindowNS_15single_threadedEEE+8@ha
 2037              	.LBE3016:
 2038              	.LBE3015:
 2039              	.LBE3014:
 2040              	.LBE3013:
 2041              	.LBE3012:
 2042              	.LBE3011:
 2043              		.loc 1 1688 0
 2044 000c 9001000C 		stw 0,12(1)
 2045              	.LBB3022:
 2046              	.LBB3021:
 2047              	.LBB3020:
 2048              	.LBB3019:
 2049              	.LBB3018:
 2050              	.LBB3017:
 2051              		.loc 1 365 0
 2052 0010 38090008 		la 0,_ZTVN7sigslot17_connection_base1IP13CreditsWindowNS_15single_threadedEEE+8@l(9)
 2053              		.cfi_offset 65, 4
 2054 0014 90030000 		stw 0,0(3)
 2055              	.LBE3017:
 2056              	.LBE3018:
 2057              	.LBE3019:
 2058              	.LBE3020:
 2059              	.LBE3021:
 2060              	.LBE3022:
 2061              		.loc 1 1691 0
 2062 0018 48000001 		bl _ZdlPv
 2063              	.LVL160:
 2064 001c 8001000C 		lwz 0,12(1)
 2065 0020 38210008 		addi 1,1,8
 2066              	.LCFI47:
 2067              		.cfi_def_cfa_offset 0
 2068 0024 7C0803A6 		mtlr 0
 2069 0028 4E800020 		blr
 2070              		.cfi_endproc
 2071              	.LFE2367:
 2072              		.size	_ZN7sigslot12_connection1I12SettingsMenuP13CreditsWindowNS_15single_threadedEED0Ev, .-_ZN7si
 2073              		.section	.text._ZN7sigslot17_connection_base1IP13CreditsWindowNS_15single_threadedEED0Ev,"axG",@pr
 2074              		.align 2
 2075              		.weak	_ZN7sigslot17_connection_base1IP13CreditsWindowNS_15single_threadedEED0Ev
 2076              		.type	_ZN7sigslot17_connection_base1IP13CreditsWindowNS_15single_threadedEED0Ev, @function
 2077              	_ZN7sigslot17_connection_base1IP13CreditsWindowNS_15single_threadedEED0Ev:
 2078              	.LFB1994:
 2079              		.loc 1 365 0
 2080              		.cfi_startproc
 2081              	.LVL161:
 2082 0000 7C0802A6 		mflr 0
 2083 0004 9421FFF8 		stwu 1,-8(1)
 2084              	.LCFI48:
 2085              		.cfi_def_cfa_offset 8
 2086              		.cfi_register 65, 0
 2087              	.LBB3023:
 2088              	.LBB3024:
 2089              	.LBB3025:
 2090 0008 3D200000 		lis 9,_ZTVN7sigslot17_connection_base1IP13CreditsWindowNS_15single_threadedEEE+8@ha
 2091              	.LBE3025:
 2092              	.LBE3024:
 2093              	.LBE3023:
 2094 000c 9001000C 		stw 0,12(1)
 2095              	.LBB3028:
 2096              	.LBB3027:
 2097              	.LBB3026:
 2098              		.loc 1 365 0
 2099 0010 38090008 		la 0,_ZTVN7sigslot17_connection_base1IP13CreditsWindowNS_15single_threadedEEE+8@l(9)
 2100              		.cfi_offset 65, 4
 2101 0014 90030000 		stw 0,0(3)
 2102              	.LBE3026:
 2103              	.LBE3027:
 2104              	.LBE3028:
 2105 0018 48000001 		bl _ZdlPv
 2106              	.LVL162:
 2107 001c 8001000C 		lwz 0,12(1)
 2108 0020 38210008 		addi 1,1,8
 2109              	.LCFI49:
 2110              		.cfi_def_cfa_offset 0
 2111 0024 7C0803A6 		mtlr 0
 2112 0028 4E800020 		blr
 2113              		.cfi_endproc
 2114              	.LFE1994:
 2115              		.size	_ZN7sigslot17_connection_base1IP13CreditsWindowNS_15single_threadedEED0Ev, .-_ZN7sigslot17_c
 2116              		.section	.text._ZN7sigslot17_connection_base1IiNS_15single_threadedEED0Ev,"axG",@progbits,_ZN7sigs
 2117              		.align 2
 2118              		.weak	_ZN7sigslot17_connection_base1IiNS_15single_threadedEED0Ev
 2119              		.type	_ZN7sigslot17_connection_base1IiNS_15single_threadedEED0Ev, @function
 2120              	_ZN7sigslot17_connection_base1IiNS_15single_threadedEED0Ev:
 2121              	.LFB1988:
 2122              		.loc 1 365 0
 2123              		.cfi_startproc
 2124              	.LVL163:
 2125 0000 7C0802A6 		mflr 0
 2126 0004 9421FFF8 		stwu 1,-8(1)
 2127              	.LCFI50:
 2128              		.cfi_def_cfa_offset 8
 2129              		.cfi_register 65, 0
 2130              	.LBB3029:
 2131              	.LBB3030:
 2132              	.LBB3031:
 2133 0008 3D200000 		lis 9,_ZTVN7sigslot17_connection_base1IiNS_15single_threadedEEE+8@ha
 2134              	.LBE3031:
 2135              	.LBE3030:
 2136              	.LBE3029:
 2137 000c 9001000C 		stw 0,12(1)
 2138              	.LBB3034:
 2139              	.LBB3033:
 2140              	.LBB3032:
 2141              		.loc 1 365 0
 2142 0010 38090008 		la 0,_ZTVN7sigslot17_connection_base1IiNS_15single_threadedEEE+8@l(9)
 2143              		.cfi_offset 65, 4
 2144 0014 90030000 		stw 0,0(3)
 2145              	.LBE3032:
 2146              	.LBE3033:
 2147              	.LBE3034:
 2148 0018 48000001 		bl _ZdlPv
 2149              	.LVL164:
 2150 001c 8001000C 		lwz 0,12(1)
 2151 0020 38210008 		addi 1,1,8
 2152              	.LCFI51:
 2153              		.cfi_def_cfa_offset 0
 2154 0024 7C0803A6 		mtlr 0
 2155 0028 4E800020 		blr
 2156              		.cfi_endproc
 2157              	.LFE1988:
 2158              		.size	_ZN7sigslot17_connection_base1IiNS_15single_threadedEED0Ev, .-_ZN7sigslot17_connection_base1
 2159              		.section	.text._ZN7sigslot17_connection_base3IP9GuiButtoniRK6_POINTNS_15single_threadedEED0Ev,"axG
 2160              		.align 2
 2161              		.weak	_ZN7sigslot17_connection_base3IP9GuiButtoniRK6_POINTNS_15single_threadedEED0Ev
 2162              		.type	_ZN7sigslot17_connection_base3IP9GuiButtoniRK6_POINTNS_15single_threadedEED0Ev, @function
 2163              	_ZN7sigslot17_connection_base3IP9GuiButtoniRK6_POINTNS_15single_threadedEED0Ev:
 2164              	.LFB1981:
 2165              		.loc 1 387 0
 2166              		.cfi_startproc
 2167              	.LVL165:
 2168 0000 7C0802A6 		mflr 0
 2169 0004 9421FFF8 		stwu 1,-8(1)
 2170              	.LCFI52:
 2171              		.cfi_def_cfa_offset 8
 2172              		.cfi_register 65, 0
 2173              	.LBB3035:
 2174              	.LBB3036:
 2175              	.LBB3037:
 2176 0008 3D200000 		lis 9,_ZTVN7sigslot17_connection_base3IP9GuiButtoniRK6_POINTNS_15single_threadedEEE+8@ha
 2177              	.LBE3037:
 2178              	.LBE3036:
 2179              	.LBE3035:
 2180 000c 9001000C 		stw 0,12(1)
 2181              	.LBB3040:
 2182              	.LBB3039:
 2183              	.LBB3038:
 2184              		.loc 1 387 0
 2185 0010 38090008 		la 0,_ZTVN7sigslot17_connection_base3IP9GuiButtoniRK6_POINTNS_15single_threadedEEE+8@l(9)
 2186              		.cfi_offset 65, 4
 2187 0014 90030000 		stw 0,0(3)
 2188              	.LBE3038:
 2189              	.LBE3039:
 2190              	.LBE3040:
 2191 0018 48000001 		bl _ZdlPv
 2192              	.LVL166:
 2193 001c 8001000C 		lwz 0,12(1)
 2194 0020 38210008 		addi 1,1,8
 2195              	.LCFI53:
 2196              		.cfi_def_cfa_offset 0
 2197 0024 7C0803A6 		mtlr 0
 2198 0028 4E800020 		blr
 2199              		.cfi_endproc
 2200              	.LFE1981:
 2201              		.size	_ZN7sigslot17_connection_base3IP9GuiButtoniRK6_POINTNS_15single_threadedEED0Ev, .-_ZN7sigslo
 2202              		.section	.text._ZN7sigslot15single_threadedD0Ev,"axG",@progbits,_ZN7sigslot15single_threadedD5Ev,c
 2203              		.align 2
 2204              		.weak	_ZN7sigslot15single_threadedD0Ev
 2205              		.type	_ZN7sigslot15single_threadedD0Ev, @function
 2206              	_ZN7sigslot15single_threadedD0Ev:
 2207              	.LFB1150:
 2208              		.loc 1 104 0
 2209              		.cfi_startproc
 2210              	.LVL167:
 2211 0000 7C0802A6 		mflr 0
 2212 0004 9421FFF8 		stwu 1,-8(1)
 2213              	.LCFI54:
 2214              		.cfi_def_cfa_offset 8
 2215              		.cfi_register 65, 0
 2216              	.LBB3041:
 2217              	.LBB3042:
 2218              	.LBB3043:
 2219              		.loc 1 105 0
 2220 0008 3D200000 		lis 9,_ZTVN7sigslot15single_threadedE+8@ha
 2221              	.LBE3043:
 2222              	.LBE3042:
 2223              	.LBE3041:
 2224              		.loc 1 104 0
 2225 000c 9001000C 		stw 0,12(1)
 2226              	.LBB3046:
 2227              	.LBB3045:
 2228              	.LBB3044:
 2229              		.loc 1 105 0
 2230 0010 38090008 		la 0,_ZTVN7sigslot15single_threadedE+8@l(9)
 2231              		.cfi_offset 65, 4
 2232 0014 90030000 		stw 0,0(3)
 2233              	.LBE3044:
 2234              	.LBE3045:
 2235              	.LBE3046:
 2236              		.loc 1 107 0
 2237 0018 48000001 		bl _ZdlPv
 2238              	.LVL168:
 2239 001c 8001000C 		lwz 0,12(1)
 2240 0020 38210008 		addi 1,1,8
 2241              	.LCFI55:
 2242              		.cfi_def_cfa_offset 0
 2243 0024 7C0803A6 		mtlr 0
 2244 0028 4E800020 		blr
 2245              		.cfi_endproc
 2246              	.LFE1150:
 2247              		.size	_ZN7sigslot15single_threadedD0Ev, .-_ZN7sigslot15single_threadedD0Ev
 2248              		.section	".text"
 2249              		.align 2
 2250              		.globl _ZN12SettingsMenu34OnThemeDownloaderFlyingButtonClickEi
 2251              		.type	_ZN12SettingsMenu34OnThemeDownloaderFlyingButtonClickEi, @function
 2252              	_ZN12SettingsMenu34OnThemeDownloaderFlyingButtonClickEi:
 2253              	.LFB1676:
 2254              		.loc 4 330 0
 2255              		.cfi_startproc
 2256              	.LVL169:
 2257 0000 7C0802A6 		mflr 0
 2258 0004 9421FFE8 		stwu 1,-24(1)
 2259              	.LCFI56:
 2260              		.cfi_def_cfa_offset 24
 2261              		.cfi_register 65, 0
 2262              		.loc 4 331 0
 2263 0008 3C600000 		lis 3,.LC4@ha
 2264              	.LVL170:
 2265 000c 38630000 		la 3,.LC4@l(3)
 2266              		.loc 4 330 0
 2267 0010 93C10010 		stw 30,16(1)
 2268 0014 9001001C 		stw 0,28(1)
 2269 0018 93E10014 		stw 31,20(1)
 2270              		.loc 4 331 0
 2271 001c 90810008 		stw 4,8(1)
 2272              		.cfi_offset 31, -4
 2273              		.cfi_offset 65, 4
 2274              		.cfi_offset 30, -8
 2275 0020 48000001 		bl gettext
 2276              	.LVL171:
 2277 0024 7C7F1B78 		mr 31,3
 2278 0028 80810008 		lwz 4,8(1)
 2279 002c 3C600000 		lis 3,.LC5@ha
 2280 0030 38630028 		la 3,.LC5@l(3)
 2281 0034 4CC63182 		crxor 6,6,6
 2282 0038 48000001 		bl _Z3fmtPKcz
 2283 003c 7C7E1B78 		mr 30,3
 2284 0040 3C600000 		lis 3,.LC6@ha
 2285 0044 3863002C 		la 3,.LC6@l(3)
 2286 0048 48000001 		bl gettext
 2287 004c 7FC4F378 		mr 4,30
 2288 0050 7C651B78 		mr 5,3
 2289 0054 38C00000 		li 6,0
 2290 0058 7FE3FB78 		mr 3,31
 2291 005c 38E00000 		li 7,0
 2292 0060 39000000 		li 8,0
 2293 0064 48000001 		bl _Z12WindowPromptPKcS0_S0_S0_S0_S0_
 2294              		.loc 4 444 0
 2295 0068 8001001C 		lwz 0,28(1)
 2296 006c 83C10010 		lwz 30,16(1)
 2297 0070 7C0803A6 		mtlr 0
 2298 0074 83E10014 		lwz 31,20(1)
 2299 0078 38210018 		addi 1,1,24
 2300              	.LCFI57:
 2301              		.cfi_def_cfa_offset 0
 2302              		.cfi_restore 31
 2303              		.cfi_restore 30
 2304 007c 4E800020 		blr
 2305              		.cfi_endproc
 2306              	.LFE1676:
 2307              		.size	_ZN12SettingsMenu34OnThemeDownloaderFlyingButtonClickEi, .-_ZN12SettingsMenu34OnThemeDownloa
 2308              		.align 2
 2309              		.globl _ZN12SettingsMenu16OnCreditsClickedEP13CreditsWindow
 2310              		.type	_ZN12SettingsMenu16OnCreditsClickedEP13CreditsWindow, @function
 2311              	_ZN12SettingsMenu16OnCreditsClickedEP13CreditsWindow:
 2312              	.LFB1675:
 2313              		.loc 4 321 0
 2314              		.cfi_startproc
 2315              		.cfi_personality 0,__gxx_personality_v0
 2316              		.cfi_lsda 0,.LLSDA1675
 2317              	.LVL172:
 2318 0080 7C0802A6 		mflr 0
 2319 0084 9421FFE8 		stwu 1,-24(1)
 2320              	.LCFI58:
 2321              		.cfi_def_cfa_offset 24
 2322              		.cfi_register 65, 0
 2323              		.loc 4 322 0
 2324 0088 7C832378 		mr 3,4
 2325              	.LVL173:
 2326 008c 38A0FFD8 		li 5,-40
 2327              		.loc 4 321 0
 2328 0090 93A1000C 		stw 29,12(1)
 2329              		.loc 4 322 0
 2330 0094 38C00000 		li 6,0
 2331              		.loc 4 321 0
 2332 0098 9001001C 		stw 0,28(1)
 2333 009c 3FA00000 		lis 29,_ZN11Application8instanceE@ha
 2334              		.cfi_offset 65, 4
 2335              		.cfi_offset 29, -12
 2336 00a0 93C10010 		stw 30,16(1)
 2337 00a4 7C9E2378 		mr 30,4
 2338              		.cfi_offset 30, -8
 2339              		.loc 4 322 0
 2340 00a8 81240000 		lwz 9,0(4)
 2341 00ac 38800080 		li 4,128
 2342              	.LVL174:
 2343              		.loc 4 321 0
 2344 00b0 93E10014 		stw 31,20(1)
 2345              		.loc 4 322 0
 2346 00b4 80090088 		lwz 0,136(9)
 2347 00b8 7C0903A6 		mtctr 0
 2348              	.LEHB0:
 2349              		.cfi_offset 31, -4
 2350 00bc 4E800421 		bctrl
 2351              	.LVL175:
 2352              		.loc 4 323 0
 2353 00c0 48000018 		b .L138
 2354              	.L139:
 2355              		.loc 4 324 0
 2356 00c4 813F0000 		lwz 9,0(31)
 2357 00c8 7FE3FB78 		mr 3,31
 2358 00cc 800900D8 		lwz 0,216(9)
 2359 00d0 7C0903A6 		mtctr 0
 2360 00d4 4E800421 		bctrl
 2361              	.L138:
 2362              		.loc 4 323 0 discriminator 1
 2363 00d8 813E0000 		lwz 9,0(30)
 2364 00dc 7FC3F378 		mr 3,30
 2365 00e0 8009009C 		lwz 0,156(9)
 2366 00e4 7C0903A6 		mtctr 0
 2367 00e8 4E800421 		bctrl
 2368              	.LBB3053:
 2369              	.LBB3054:
 2370              		.file 5 "d:/Projects/SaveGameManager/savegame-manager-gx/trunk/source/Settings/menus/../../Control
 2371              		.loc 5 27 0 discriminator 1
 2372 00ec 83FD0000 		lwz 31,_ZN11Application8instanceE@l(29)
 2373              	.LBE3054:
 2374              	.LBE3053:
 2375              		.loc 4 323 0 discriminator 1
 2376 00f0 2F830000 		cmpwi 7,3,0
 2377 00f4 419E0024 		beq- 7,.L151
 2378              	.LBB3056:
 2379              	.LBB3055:
 2380              		.loc 5 27 0
 2381 00f8 2F9F0000 		cmpwi 7,31,0
 2382 00fc 409EFFC8 		bne+ 7,.L139
 2383 0100 38600278 		li 3,632
 2384 0104 48000001 		bl _Znwj
 2385              	.LEHE0:
 2386 0108 7C7F1B78 		mr 31,3
 2387              	.LEHB1:
 2388 010c 48000001 		bl _ZN11ApplicationC1Ev
 2389              	.LEHE1:
 2390 0110 93FD0000 		stw 31,_ZN11Application8instanceE@l(29)
 2391 0114 4BFFFFB0 		b .L139
 2392              	.L151:
 2393              	.LBE3055:
 2394              	.LBE3056:
 2395              	.LBB3057:
 2396              	.LBB3058:
 2397 0118 2F9F0000 		cmpwi 7,31,0
 2398 011c 419E004C 		beq- 7,.L152
 2399              	.LBE3058:
 2400              	.LBE3057:
 2401              		.loc 4 326 0
 2402 0120 7FE3FB78 		mr 3,31
 2403 0124 7FC4F378 		mr 4,30
 2404              	.LEHB2:
 2405 0128 48000001 		bl _ZN11Application13PushForDeleteEP10GuiElement
 2406              	.LBB3062:
 2407              	.LBB3063:
 2408              		.loc 5 27 0
 2409 012c 83FD0000 		lwz 31,_ZN11Application8instanceE@l(29)
 2410 0130 2F9F0000 		cmpwi 7,31,0
 2411 0134 419E0060 		beq- 7,.L153
 2412              	.L144:
 2413              	.LBE3063:
 2414              	.LBE3062:
 2415              		.loc 4 327 0
 2416 0138 813F0000 		lwz 9,0(31)
 2417 013c 7FE3FB78 		mr 3,31
 2418 0140 800900D8 		lwz 0,216(9)
 2419 0144 7C0903A6 		mtctr 0
 2420 0148 4E800421 		bctrl
 2421              		.loc 4 328 0
 2422 014c 8001001C 		lwz 0,28(1)
 2423 0150 83A1000C 		lwz 29,12(1)
 2424 0154 7C0803A6 		mtlr 0
 2425 0158 83C10010 		lwz 30,16(1)
 2426              	.LVL176:
 2427 015c 83E10014 		lwz 31,20(1)
 2428 0160 38210018 		addi 1,1,24
 2429              		.cfi_remember_state
 2430              	.LCFI59:
 2431              		.cfi_def_cfa_offset 0
 2432              		.cfi_restore 31
 2433              		.cfi_restore 30
 2434              		.cfi_restore 29
 2435 0164 4E800020 		blr
 2436              	.LVL177:
 2437              	.L152:
 2438              	.LCFI60:
 2439              		.cfi_restore_state
 2440              	.LBB3066:
 2441              	.LBB3059:
 2442              		.loc 5 27 0
 2443 0168 38600278 		li 3,632
 2444 016c 48000001 		bl _Znwj
 2445              	.LEHE2:
 2446 0170 7C7F1B78 		mr 31,3
 2447              	.LEHB3:
 2448 0174 48000001 		bl _ZN11ApplicationC1Ev
 2449              	.LEHE3:
 2450              	.LBE3059:
 2451              	.LBE3066:
 2452              		.loc 4 326 0
 2453 0178 7FE3FB78 		mr 3,31
 2454 017c 7FC4F378 		mr 4,30
 2455              	.LBB3067:
 2456              	.LBB3060:
 2457              		.loc 5 27 0
 2458 0180 93FD0000 		stw 31,_ZN11Application8instanceE@l(29)
 2459              	.LEHB4:
 2460              	.LBE3060:
 2461              	.LBE3067:
 2462              		.loc 4 326 0
 2463 0184 48000001 		bl _ZN11Application13PushForDeleteEP10GuiElement
 2464              	.LBB3068:
 2465              	.LBB3064:
 2466              		.loc 5 27 0
 2467 0188 83FD0000 		lwz 31,_ZN11Application8instanceE@l(29)
 2468 018c 2F9F0000 		cmpwi 7,31,0
 2469 0190 409EFFA8 		bne+ 7,.L144
 2470              	.L153:
 2471 0194 38600278 		li 3,632
 2472 0198 48000001 		bl _Znwj
 2473              	.LEHE4:
 2474 019c 7C7F1B78 		mr 31,3
 2475              	.LEHB5:
 2476 01a0 48000001 		bl _ZN11ApplicationC1Ev
 2477              	.LEHE5:
 2478              	.LBE3064:
 2479              	.LBE3068:
 2480              		.loc 4 327 0
 2481 01a4 813F0000 		lwz 9,0(31)
 2482 01a8 7FE3FB78 		mr 3,31
 2483              	.LBB3069:
 2484              	.LBB3065:
 2485              		.loc 5 27 0
 2486 01ac 93FD0000 		stw 31,_ZN11Application8instanceE@l(29)
 2487              	.LBE3065:
 2488              	.LBE3069:
 2489              		.loc 4 327 0
 2490 01b0 800900D8 		lwz 0,216(9)
 2491 01b4 7C0903A6 		mtctr 0
 2492              	.LEHB6:
 2493 01b8 4E800421 		bctrl
 2494              		.loc 4 328 0
 2495 01bc 8001001C 		lwz 0,28(1)
 2496 01c0 83A1000C 		lwz 29,12(1)
 2497 01c4 7C0803A6 		mtlr 0
 2498 01c8 83C10010 		lwz 30,16(1)
 2499              	.LVL178:
 2500 01cc 83E10014 		lwz 31,20(1)
 2501 01d0 38210018 		addi 1,1,24
 2502              		.cfi_remember_state
 2503              		.cfi_restore 29
 2504              		.cfi_restore 30
 2505              		.cfi_restore 31
 2506              	.LCFI61:
 2507              		.cfi_def_cfa_offset 0
 2508 01d4 4E800020 		blr
 2509              	.LVL179:
 2510              	.L148:
 2511              	.L150:
 2512              	.LCFI62:
 2513              		.cfi_restore_state
 2514 01d8 7C7E1B78 		mr 30,3
 2515              	.LVL180:
 2516              	.LBB3070:
 2517              	.LBB3061:
 2518              		.loc 5 27 0
 2519 01dc 7FE3FB78 		mr 3,31
 2520 01e0 48000001 		bl _ZdlPv
 2521 01e4 7FC3F378 		mr 3,30
 2522 01e8 48000001 		bl _Unwind_Resume
 2523              	.LEHE6:
 2524              	.LVL181:
 2525              	.L147:
 2526 01ec 4BFFFFEC 		b .L150
 2527              	.L149:
 2528 01f0 4BFFFFE8 		b .L150
 2529              	.LBE3061:
 2530              	.LBE3070:
 2531              		.cfi_endproc
 2532              	.LFE1675:
 2533              		.globl __gxx_personality_v0
 2534              		.section	.gcc_except_table,"a",@progbits
 2535              	.LLSDA1675:
 2536 0000 FF       		.byte	0xff
 2537 0001 FF       		.byte	0xff
 2538 0002 01       		.byte	0x1
 2539 0003 25       		.uleb128 .LLSDACSE1675-.LLSDACSB1675
 2540              	.LLSDACSB1675:
 2541 0004 3C       		.uleb128 .LEHB0-.LFB1675
 2542 0005 4C       		.uleb128 .LEHE0-.LEHB0
 2543 0006 00       		.uleb128 0
 2544 0007 00       		.uleb128 0
 2545 0008 8C01     		.uleb128 .LEHB1-.LFB1675
 2546 000a 04       		.uleb128 .LEHE1-.LEHB1
 2547 000b EC02     		.uleb128 .L147-.LFB1675
 2548 000d 00       		.uleb128 0
 2549 000e A801     		.uleb128 .LEHB2-.LFB1675
 2550 0010 48       		.uleb128 .LEHE2-.LEHB2
 2551 0011 00       		.uleb128 0
 2552 0012 00       		.uleb128 0
 2553 0013 F401     		.uleb128 .LEHB3-.LFB1675
 2554 0015 04       		.uleb128 .LEHE3-.LEHB3
 2555 0016 D802     		.uleb128 .L148-.LFB1675
 2556 0018 00       		.uleb128 0
 2557 0019 8402     		.uleb128 .LEHB4-.LFB1675
 2558 001b 18       		.uleb128 .LEHE4-.LEHB4
 2559 001c 00       		.uleb128 0
 2560 001d 00       		.uleb128 0
 2561 001e A002     		.uleb128 .LEHB5-.LFB1675
 2562 0020 04       		.uleb128 .LEHE5-.LEHB5
 2563 0021 F002     		.uleb128 .L149-.LFB1675
 2564 0023 00       		.uleb128 0
 2565 0024 B802     		.uleb128 .LEHB6-.LFB1675
 2566 0026 34       		.uleb128 .LEHE6-.LEHB6
 2567 0027 00       		.uleb128 0
 2568 0028 00       		.uleb128 0
 2569              	.LLSDACSE1675:
 2570              		.section	".text"
 2571              		.size	_ZN12SettingsMenu16OnCreditsClickedEP13CreditsWindow, .-_ZN12SettingsMenu16OnCreditsClickedE
 2572              		.align 2
 2573              		.globl _ZN12SettingsMenu5trashEv
 2574              		.type	_ZN12SettingsMenu5trashEv, @function
 2575              	_ZN12SettingsMenu5trashEv:
 2576              	.LFB1669:
 2577              		.loc 4 104 0
 2578              		.cfi_startproc
 2579              		.cfi_personality 0,__gxx_personality_v0
 2580              		.cfi_lsda 0,.LLSDA1669
 2581              	.LVL182:
 2582 01f4 7C0802A6 		mflr 0
 2583 01f8 9421FFE0 		stwu 1,-32(1)
 2584              	.LCFI63:
 2585              		.cfi_def_cfa_offset 32
 2586              		.cfi_register 65, 0
 2587 01fc 93A10014 		stw 29,20(1)
 2588              	.LBB3107:
 2589              	.LBB3108:
 2590              		.loc 5 27 0
 2591 0200 3FA00000 		lis 29,_ZN11Application8instanceE@ha
 2592              		.cfi_offset 29, -12
 2593              	.LBE3108:
 2594              	.LBE3107:
 2595              		.loc 4 104 0
 2596 0204 90010024 		stw 0,36(1)
 2597 0208 93E1001C 		stw 31,28(1)
 2598 020c 7C7F1B78 		mr 31,3
 2599              		.cfi_offset 31, -4
 2600              		.cfi_offset 65, 4
 2601              		.loc 4 105 0
 2602 0210 808300D0 		lwz 4,208(3)
 2603              		.loc 4 104 0
 2604 0214 9361000C 		stw 27,12(1)
 2605              		.loc 4 105 0
 2606 0218 2F840000 		cmpwi 7,4,0
 2607              		.loc 4 104 0
 2608 021c 93810010 		stw 28,16(1)
 2609 0220 93C10018 		stw 30,24(1)
 2610              		.loc 4 105 0
 2611 0224 419E0038 		beq- 7,.L155
 2612              		.cfi_offset 30, -8
 2613              		.cfi_offset 28, -16
 2614              		.cfi_offset 27, -20
 2615              	.LBB3111:
 2616              	.LBB3109:
 2617              		.loc 5 27 0
 2618 0228 83DD0000 		lwz 30,_ZN11Application8instanceE@l(29)
 2619 022c 2F9E0000 		cmpwi 7,30,0
 2620 0230 419E01E0 		beq- 7,.L183
 2621              	.LVL183:
 2622              	.L156:
 2623              	.LBE3109:
 2624              	.LBE3111:
 2625              		.loc 4 107 0
 2626 0234 7FC3F378 		mr 3,30
 2627              	.LEHB7:
 2628 0238 48000001 		bl _ZN11Application13PushForDeleteEP10GuiElement
 2629              	.LBB3112:
 2630              	.LBB3113:
 2631              		.loc 5 27 0
 2632 023c 83DD0000 		lwz 30,_ZN11Application8instanceE@l(29)
 2633 0240 2F9E0000 		cmpwi 7,30,0
 2634 0244 419E01E8 		beq- 7,.L184
 2635              	.L158:
 2636              	.LBE3113:
 2637              	.LBE3112:
 2638              		.loc 4 108 0
 2639 0248 813E0000 		lwz 9,0(30)
 2640 024c 7FC3F378 		mr 3,30
 2641 0250 800900D8 		lwz 0,216(9)
 2642 0254 7C0903A6 		mtctr 0
 2643 0258 4E800421 		bctrl
 2644              	.L155:
 2645              		.loc 4 111 0
 2646 025c 807F00CC 		lwz 3,204(31)
 2647 0260 2F830000 		cmpwi 7,3,0
 2648 0264 419E001C 		beq- 7,.L172
 2649              		.loc 4 111 0 is_stmt 0 discriminator 1
 2650 0268 81230000 		lwz 9,0(3)
 2651 026c 80090054 		lwz 0,84(9)
 2652 0270 7C0903A6 		mtctr 0
 2653 0274 4E800421 		bctrl
 2654 0278 2F830000 		cmpwi 7,3,0
 2655 027c 419E0110 		beq- 7,.L185
 2656              	.L172:
 2657              		.loc 4 114 0 is_stmt 1
 2658 0280 3C600000 		lis 3,Settings@ha
 2659 0284 38630000 		la 3,Settings@l(3)
 2660 0288 48000001 		bl _ZN9CSettings4SaveEv
 2661              	.LBB3115:
 2662              	.LBB3116:
 2663              		.loc 5 27 0
 2664 028c 83DD0000 		lwz 30,_ZN11Application8instanceE@l(29)
 2665 0290 2F9E0000 		cmpwi 7,30,0
 2666 0294 419E0124 		beq- 7,.L186
 2667              	.L162:
 2668              	.LVL184:
 2669              	.LBE3116:
 2670              	.LBE3115:
 2671              	.LBB3119:
 2672              		.loc 4 454 0
 2673 0298 813E025C 		lwz 9,604(30)
 2674              	.LBB3120:
 2675              		.loc 5 69 0
 2676 029c 3B800000 		li 28,0
 2677              	.LBE3120:
 2678              		.loc 4 454 0
 2679 02a0 817E0260 		lwz 11,608(30)
 2680              	.LBB3156:
 2681              		.loc 5 69 0
 2682 02a4 7D204B78 		mr 0,9
 2683              	.LBB3121:
 2684              	.LBB3122:
 2685              		.file 6 "d:\\devkitpro\\devkitppc\\bin\\../lib/gcc/powerpc-eabi/4.6.3/../../../../powerpc-eabi/inc
 2686              		.loc 6 571 0
 2687 02a8 7D495850 		subf 10,9,11
 2688              	.LBE3122:
 2689              	.LBE3121:
 2690              		.loc 5 69 0
 2691 02ac 5548F0BF 		srwi. 8,10,2
 2692 02b0 40A2000C 		bne+ 0,.L180
 2693 02b4 48000030 		b .L164
 2694              	.LVL185:
 2695              	.L174:
 2696              		.loc 4 454 0
 2697 02b8 7C090378 		mr 9,0
 2698              	.LVL186:
 2699              	.L180:
 2700              	.LBE3156:
 2701              	.LBE3119:
 2702              	.LBB3160:
 2703              	.LBB3117:
 2704              		.loc 4 103 0
 2705 02bc 579B103A 		slwi 27,28,2
 2706              	.LBE3117:
 2707              	.LBE3160:
 2708              	.LBB3161:
 2709              	.LBB3157:
 2710              		.loc 5 70 0
 2711 02c0 7D29D82E 		lwzx 9,9,27
 2712 02c4 7F9F4800 		cmpw 7,31,9
 2713 02c8 419E007C 		beq- 7,.L187
 2714              	.L166:
 2715              	.LBB3125:
 2716              	.LBB3123:
 2717              		.loc 6 571 0
 2718 02cc 7D205850 		subf 9,0,11
 2719              	.LBE3123:
 2720              	.LBE3125:
 2721              		.loc 5 69 0
 2722 02d0 3B9C0001 		addi 28,28,1
 2723              	.LVL187:
 2724              	.LBB3126:
 2725              	.LBB3124:
 2726              		.loc 6 571 0
 2727 02d4 7D291670 		srawi 9,9,2
 2728              	.LBE3124:
 2729              	.LBE3126:
 2730              		.loc 5 69 0
 2731 02d8 7F9C4840 		cmplw 7,28,9
 2732 02dc 419CFFDC 		blt+ 7,.L174
 2733 02e0 83DD0000 		lwz 30,_ZN11Application8instanceE@l(29)
 2734              	.LVL188:
 2735              	.L164:
 2736              	.LBE3157:
 2737              	.LBE3161:
 2738              	.LBB3162:
 2739              	.LBB3163:
 2740              		.loc 5 27 0
 2741 02e4 2F9E0000 		cmpwi 7,30,0
 2742 02e8 419E0110 		beq- 7,.L188
 2743              	.L168:
 2744              	.LBE3163:
 2745              	.LBE3162:
 2746              		.loc 4 117 0
 2747 02ec 7FC3F378 		mr 3,30
 2748 02f0 7FE4FB78 		mr 4,31
 2749              	.LBB3165:
 2750              	.LBB3166:
 2751              		.file 7 "d:/Projects/SaveGameManager/savegame-manager-gx/trunk/source/Settings/menus/SettingsMenu.
 2752              		.loc 7 47 0
 2753 02f4 3FE00000 		lis 31,_ZN12SettingsMenu8instanceE@ha
 2754              	.LVL189:
 2755              	.LBE3166:
 2756              	.LBE3165:
 2757              		.loc 4 117 0
 2758 02f8 48000001 		bl _ZN8GuiFrame6RemoveEP10GuiElement
 2759              	.LVL190:
 2760              	.LBB3169:
 2761              	.LBB3167:
 2762              		.loc 7 47 0
 2763 02fc 807F0000 		lwz 3,_ZN12SettingsMenu8instanceE@l(31)
 2764 0300 2F830000 		cmpwi 7,3,0
 2765 0304 419E0014 		beq- 7,.L170
 2766 0308 81230000 		lwz 9,0(3)
 2767 030c 80090004 		lwz 0,4(9)
 2768 0310 7C0903A6 		mtctr 0
 2769 0314 4E800421 		bctrl
 2770              	.L170:
 2771 0318 38000000 		li 0,0
 2772              	.LBE3167:
 2773              	.LBE3169:
 2774              		.loc 4 120 0
 2775 031c 8361000C 		lwz 27,12(1)
 2776              	.LBB3170:
 2777              	.LBB3168:
 2778              		.loc 7 47 0
 2779 0320 901F0000 		stw 0,_ZN12SettingsMenu8instanceE@l(31)
 2780              	.LBE3168:
 2781              	.LBE3170:
 2782              		.loc 4 120 0
 2783 0324 80010024 		lwz 0,36(1)
 2784 0328 83810010 		lwz 28,16(1)
 2785 032c 7C0803A6 		mtlr 0
 2786 0330 83A10014 		lwz 29,20(1)
 2787 0334 83C10018 		lwz 30,24(1)
 2788 0338 83E1001C 		lwz 31,28(1)
 2789 033c 38210020 		addi 1,1,32
 2790              		.cfi_remember_state
 2791              	.LCFI64:
 2792              		.cfi_def_cfa_offset 0
 2793              		.cfi_restore 31
 2794              		.cfi_restore 30
 2795              		.cfi_restore 29
 2796              		.cfi_restore 28
 2797              		.cfi_restore 27
 2798 0340 4E800020 		blr
 2799              	.LVL191:
 2800              	.L187:
 2801              	.LCFI65:
 2802              		.cfi_restore_state
 2803              	.LBB3171:
 2804              	.LBB3158:
 2805              		.loc 5 71 0
 2806 0344 807E0274 		lwz 3,628(30)
 2807 0348 48000001 		bl LWP_MutexLock
 2808              	.LVL192:
 2809              	.LBB3127:
 2810              	.LBB3128:
 2811              		.file 8 "d:\\devkitpro\\devkitppc\\bin\\../lib/gcc/powerpc-eabi/4.6.3/../../../../powerpc-eabi/inc
 2812              		.loc 8 773 0
 2813 034c 807E025C 		lwz 3,604(30)
 2814              	.LBE3128:
 2815              	.LBE3127:
 2816              	.LBB3130:
 2817              	.LBB3131:
 2818              	.LBB3132:
 2819              		.loc 4 454 0
 2820 0350 813E0260 		lwz 9,608(30)
 2821              	.LBE3132:
 2822              	.LBE3131:
 2823              	.LBE3130:
 2824              	.LBB3151:
 2825              	.LBB3129:
 2826              		.loc 8 773 0
 2827 0354 7C63DA14 		add 3,3,27
 2828              	.LVL193:
 2829              	.LBE3129:
 2830              	.LBE3151:
 2831              	.LBB3152:
 2832              	.LBB3147:
 2833              	.LBB3133:
 2834              	.LBB3134:
 2835 0358 38830004 		addi 4,3,4
 2836              	.LVL194:
 2837              	.LBE3134:
 2838              	.LBE3133:
 2839              		.file 9 "d:\\devkitpro\\devkitppc\\bin\\../lib/gcc/powerpc-eabi/4.6.3/../../../../powerpc-eabi/inc
 2840              		.loc 9 138 0
 2841 035c 7F844800 		cmpw 7,4,9
 2842 0360 419E0010 		beq- 7,.L167
 2843              	.LVL195:
 2844              	.LBB3135:
 2845              	.LBB3136:
 2846              	.LBB3137:
 2847              	.LBB3138:
 2848              	.LBB3139:
 2849              	.LBB3140:
 2850              		.file 10 "d:\\devkitpro\\devkitppc\\bin\\../lib/gcc/powerpc-eabi/4.6.3/../../../../powerpc-eabi/in
 2851              		.loc 10 364 0
 2852 0364 7CA44850 		subf 5,4,9
 2853              	.LVL196:
 2854              		.loc 10 365 0
 2855 0368 7CA51671 		srawi. 5,5,2
 2856              	.LVL197:
 2857 036c 40820064 		bne- 0,.L189
 2858              	.LVL198:
 2859              	.L167:
 2860              	.LBE3140:
 2861              	.LBE3139:
 2862              	.LBE3138:
 2863              	.LBE3137:
 2864              	.LBE3136:
 2865              	.LBE3135:
 2866              		.loc 9 140 0
 2867 0370 3929FFFC 		addi 9,9,-4
 2868              	.LBE3147:
 2869              	.LBE3152:
 2870              		.loc 5 73 0
 2871 0374 807E0274 		lwz 3,628(30)
 2872              	.LVL199:
 2873              	.LBB3153:
 2874              	.LBB3148:
 2875              		.loc 9 140 0
 2876 0378 913E0260 		stw 9,608(30)
 2877              	.LBE3148:
 2878              	.LBE3153:
 2879              		.loc 5 73 0
 2880 037c 48000001 		bl LWP_MutexUnlock
 2881              	.LVL200:
 2882 0380 801E025C 		lwz 0,604(30)
 2883 0384 817E0260 		lwz 11,608(30)
 2884 0388 4BFFFF44 		b .L166
 2885              	.LVL201:
 2886              	.L185:
 2887              	.LBE3158:
 2888              	.LBE3171:
 2889              		.loc 4 112 0 discriminator 4
 2890 038c 807F00CC 		lwz 3,204(31)
 2891 0390 81230000 		lwz 9,0(3)
 2892 0394 800900D0 		lwz 0,208(9)
 2893 0398 7C0903A6 		mtctr 0
 2894 039c 4E800421 		bctrl
 2895              		.loc 4 114 0 discriminator 4
 2896 03a0 3C600000 		lis 3,Settings@ha
 2897 03a4 38630000 		la 3,Settings@l(3)
 2898 03a8 48000001 		bl _ZN9CSettings4SaveEv
 2899              	.LBB3172:
 2900              	.LBB3118:
 2901              		.loc 5 27 0 discriminator 4
 2902 03ac 83DD0000 		lwz 30,_ZN11Application8instanceE@l(29)
 2903 03b0 2F9E0000 		cmpwi 7,30,0
 2904 03b4 409EFEE4 		bne+ 7,.L162
 2905              	.L186:
 2906              		.loc 5 27 0 is_stmt 0
 2907 03b8 38600278 		li 3,632
 2908 03bc 48000001 		bl _Znwj
 2909              	.LEHE7:
 2910 03c0 7C7E1B78 		mr 30,3
 2911              	.LEHB8:
 2912 03c4 48000001 		bl _ZN11ApplicationC1Ev
 2913              	.LEHE8:
 2914 03c8 93DD0000 		stw 30,_ZN11Application8instanceE@l(29)
 2915 03cc 4BFFFECC 		b .L162
 2916              	.LVL202:
 2917              	.L189:
 2918              	.LBE3118:
 2919              	.LBE3172:
 2920              	.LBB3173:
 2921              	.LBB3159:
 2922              	.LBB3154:
 2923              	.LBB3149:
 2924              	.LBB3146:
 2925              	.LBB3145:
 2926              	.LBB3144:
 2927              	.LBB3143:
 2928              	.LBB3142:
 2929              	.LBB3141:
 2930              		.loc 10 366 0 is_stmt 1
 2931 03d0 54A5103A 		slwi 5,5,2
 2932              	.LVL203:
 2933 03d4 48000001 		bl memmove
 2934              	.LVL204:
 2935 03d8 813E0260 		lwz 9,608(30)
 2936              	.LBE3141:
 2937              	.LBE3142:
 2938              	.LBE3143:
 2939              	.LBE3144:
 2940              	.LBE3145:
 2941              	.LBE3146:
 2942              	.LBE3149:
 2943              	.LBE3154:
 2944              		.loc 5 73 0
 2945 03dc 807E0274 		lwz 3,628(30)
 2946              	.LBB3155:
 2947              	.LBB3150:
 2948              		.loc 9 140 0
 2949 03e0 3929FFFC 		addi 9,9,-4
 2950 03e4 913E0260 		stw 9,608(30)
 2951              	.LEHB9:
 2952              	.LBE3150:
 2953              	.LBE3155:
 2954              		.loc 5 73 0
 2955 03e8 48000001 		bl LWP_MutexUnlock
 2956 03ec 801E025C 		lwz 0,604(30)
 2957 03f0 817E0260 		lwz 11,608(30)
 2958 03f4 4BFFFED8 		b .L166
 2959              	.LVL205:
 2960              	.L188:
 2961              	.LBE3159:
 2962              	.LBE3173:
 2963              	.LBB3174:
 2964              	.LBB3164:
 2965              		.loc 5 27 0
 2966 03f8 38600278 		li 3,632
 2967 03fc 48000001 		bl _Znwj
 2968              	.LEHE9:
 2969 0400 7C7E1B78 		mr 30,3
 2970              	.LEHB10:
 2971 0404 48000001 		bl _ZN11ApplicationC1Ev
 2972              	.LEHE10:
 2973 0408 93DD0000 		stw 30,_ZN11Application8instanceE@l(29)
 2974 040c 4BFFFEE0 		b .L168
 2975              	.LVL206:
 2976              	.L183:
 2977              	.LBE3164:
 2978              	.LBE3174:
 2979              	.LBB3175:
 2980              	.LBB3110:
 2981 0410 38600278 		li 3,632
 2982              	.LEHB11:
 2983 0414 48000001 		bl _Znwj
 2984              	.LEHE11:
 2985 0418 7C7E1B78 		mr 30,3
 2986              	.LEHB12:
 2987 041c 48000001 		bl _ZN11ApplicationC1Ev
 2988              	.LEHE12:
 2989 0420 93DD0000 		stw 30,_ZN11Application8instanceE@l(29)
 2990 0424 809F00D0 		lwz 4,208(31)
 2991 0428 4BFFFE0C 		b .L156
 2992              	.L184:
 2993              	.LBE3110:
 2994              	.LBE3175:
 2995              	.LBB3176:
 2996              	.LBB3114:
 2997 042c 38600278 		li 3,632
 2998              	.LEHB13:
 2999 0430 48000001 		bl _Znwj
 3000              	.LEHE13:
 3001 0434 7C7E1B78 		mr 30,3
 3002              	.LEHB14:
 3003 0438 48000001 		bl _ZN11ApplicationC1Ev
 3004              	.LEHE14:
 3005 043c 93DD0000 		stw 30,_ZN11Application8instanceE@l(29)
 3006 0440 4BFFFE08 		b .L158
 3007              	.L177:
 3008              	.L182:
 3009 0444 7C7F1B78 		mr 31,3
 3010              	.LVL207:
 3011 0448 7FC3F378 		mr 3,30
 3012 044c 48000001 		bl _ZdlPv
 3013 0450 7FE3FB78 		mr 3,31
 3014              	.LEHB15:
 3015 0454 48000001 		bl _Unwind_Resume
 3016              	.LEHE15:
 3017              	.LVL208:
 3018              	.L176:
 3019 0458 4BFFFFEC 		b .L182
 3020              	.L175:
 3021 045c 4BFFFFE8 		b .L182
 3022              	.LVL209:
 3023              	.L178:
 3024 0460 4BFFFFE4 		b .L182
 3025              	.LBE3114:
 3026              	.LBE3176:
 3027              		.cfi_endproc
 3028              	.LFE1669:
 3029              		.section	.gcc_except_table
 3030              	.LLSDA1669:
 3031 0029 FF       		.byte	0xff
 3032 002a FF       		.byte	0xff
 3033 002b 01       		.byte	0x1
 3034 002c 31       		.uleb128 .LLSDACSE1669-.LLSDACSB1669
 3035              	.LLSDACSB1669:
 3036 002d 44       		.uleb128 .LEHB7-.LFB1669
 3037 002e 8803     		.uleb128 .LEHE7-.LEHB7
 3038 0030 00       		.uleb128 0
 3039 0031 00       		.uleb128 0
 3040 0032 D003     		.uleb128 .LEHB8-.LFB1669
 3041 0034 04       		.uleb128 .LEHE8-.LEHB8
 3042 0035 D004     		.uleb128 .L177-.LFB1669
 3043 0037 00       		.uleb128 0
 3044 0038 F403     		.uleb128 .LEHB9-.LFB1669
 3045 003a 18       		.uleb128 .LEHE9-.LEHB9
 3046 003b 00       		.uleb128 0
 3047 003c 00       		.uleb128 0
 3048 003d 9004     		.uleb128 .LEHB10-.LFB1669
 3049 003f 04       		.uleb128 .LEHE10-.LEHB10
 3050 0040 EC04     		.uleb128 .L178-.LFB1669
 3051 0042 00       		.uleb128 0
 3052 0043 A004     		.uleb128 .LEHB11-.LFB1669
 3053 0045 04       		.uleb128 .LEHE11-.LEHB11
 3054 0046 00       		.uleb128 0
 3055 0047 00       		.uleb128 0
 3056 0048 A804     		.uleb128 .LEHB12-.LFB1669
 3057 004a 04       		.uleb128 .LEHE12-.LEHB12
 3058 004b E804     		.uleb128 .L175-.LFB1669
 3059 004d 00       		.uleb128 0
 3060 004e BC04     		.uleb128 .LEHB13-.LFB1669
 3061 0050 04       		.uleb128 .LEHE13-.LEHB13
 3062 0051 00       		.uleb128 0
 3063 0052 00       		.uleb128 0
 3064 0053 C404     		.uleb128 .LEHB14-.LFB1669
 3065 0055 04       		.uleb128 .LEHE14-.LEHB14
 3066 0056 E404     		.uleb128 .L176-.LFB1669
 3067 0058 00       		.uleb128 0
 3068 0059 E004     		.uleb128 .LEHB15-.LFB1669
 3069 005b 04       		.uleb128 .LEHE15-.LEHB15
 3070 005c 00       		.uleb128 0
 3071 005d 00       		.uleb128 0
 3072              	.LLSDACSE1669:
 3073              		.section	".text"
 3074              		.size	_ZN12SettingsMenu5trashEv, .-_ZN12SettingsMenu5trashEv
 3075              		.align 2
 3076              		.globl _ZN12SettingsMenu4quitEv
 3077              		.type	_ZN12SettingsMenu4quitEv, @function
 3078              	_ZN12SettingsMenu4quitEv:
 3079              	.LFB1670:
 3080              		.loc 4 123 0
 3081              		.cfi_startproc
 3082              		.cfi_personality 0,__gxx_personality_v0
 3083              		.cfi_lsda 0,.LLSDA1670
 3084              	.LVL210:
 3085 0464 7C0802A6 		mflr 0
 3086 0468 9421FFE0 		stwu 1,-32(1)
 3087              	.LCFI66:
 3088              		.cfi_def_cfa_offset 32
 3089              		.cfi_register 65, 0
 3090 046c 93A10014 		stw 29,20(1)
 3091              	.LBB3217:
 3092              	.LBB3218:
 3093              		.loc 5 27 0
 3094 0470 3FA00000 		lis 29,_ZN11Application8instanceE@ha
 3095              		.cfi_offset 29, -12
 3096              	.LBE3218:
 3097              	.LBE3217:
 3098              		.loc 4 123 0
 3099 0474 90010024 		stw 0,36(1)
 3100 0478 93C10018 		stw 30,24(1)
 3101 047c 7C7E1B78 		mr 30,3
 3102              		.cfi_offset 30, -8
 3103              		.cfi_offset 65, 4
 3104              		.loc 4 124 0
 3105 0480 808300D0 		lwz 4,208(3)
 3106              		.loc 4 123 0
 3107 0484 9361000C 		stw 27,12(1)
 3108              		.loc 4 124 0
 3109 0488 2F840000 		cmpwi 7,4,0
 3110              		.loc 4 123 0
 3111 048c 93810010 		stw 28,16(1)
 3112 0490 93E1001C 		stw 31,28(1)
 3113              		.loc 4 124 0
 3114 0494 419E0038 		beq- 7,.L191
 3115              		.cfi_offset 31, -4
 3116              		.cfi_offset 28, -16
 3117              		.cfi_offset 27, -20
 3118              	.LBB3221:
 3119              	.LBB3219:
 3120              		.loc 5 27 0
 3121 0498 83FD0000 		lwz 31,_ZN11Application8instanceE@l(29)
 3122 049c 2F9F0000 		cmpwi 7,31,0
 3123 04a0 419E0294 		beq- 7,.L228
 3124              	.LVL211:
 3125              	.L192:
 3126              	.LBE3219:
 3127              	.LBE3221:
 3128              		.loc 4 126 0
 3129 04a4 7FE3FB78 		mr 3,31
 3130              	.LEHB16:
 3131 04a8 48000001 		bl _ZN11Application13PushForDeleteEP10GuiElement
 3132              	.LBB3222:
 3133              	.LBB3223:
 3134              		.loc 5 27 0
 3135 04ac 83FD0000 		lwz 31,_ZN11Application8instanceE@l(29)
 3136 04b0 2F9F0000 		cmpwi 7,31,0
 3137 04b4 419E0268 		beq- 7,.L229
 3138              	.L194:
 3139              	.LBE3223:
 3140              	.LBE3222:
 3141              		.loc 4 127 0
 3142 04b8 813F0000 		lwz 9,0(31)
 3143 04bc 7FE3FB78 		mr 3,31
 3144 04c0 800900D8 		lwz 0,216(9)
 3145 04c4 7C0903A6 		mtctr 0
 3146 04c8 4E800421 		bctrl
 3147              	.L191:
 3148              		.loc 4 130 0
 3149 04cc 807E00CC 		lwz 3,204(30)
 3150 04d0 2F830000 		cmpwi 7,3,0
 3151 04d4 419E001C 		beq- 7,.L215
 3152              		.loc 4 130 0 is_stmt 0 discriminator 1
 3153 04d8 81230000 		lwz 9,0(3)
 3154 04dc 80090054 		lwz 0,84(9)
 3155 04e0 7C0903A6 		mtctr 0
 3156 04e4 4E800421 		bctrl
 3157 04e8 2F830000 		cmpwi 7,3,0
 3158 04ec 419E01A8 		beq- 7,.L230
 3159              	.L215:
 3160              		.loc 4 133 0 is_stmt 1
 3161 04f0 3C600000 		lis 3,Settings@ha
 3162 04f4 38630000 		la 3,Settings@l(3)
 3163 04f8 48000001 		bl _ZN9CSettings4SaveEv
 3164              		.loc 4 135 0
 3165 04fc 813E0000 		lwz 9,0(30)
 3166 0500 7FC3F378 		mr 3,30
 3167 0504 38800080 		li 4,128
 3168 0508 80090088 		lwz 0,136(9)
 3169 050c 38A0FFEC 		li 5,-20
 3170 0510 38C00000 		li 6,0
 3171 0514 7C0903A6 		mtctr 0
 3172 0518 4E800421 		bctrl
 3173              		.loc 4 136 0
 3174 051c 48000018 		b .L198
 3175              	.L199:
 3176              		.loc 4 137 0
 3177 0520 813F0000 		lwz 9,0(31)
 3178 0524 7FE3FB78 		mr 3,31
 3179 0528 800900D8 		lwz 0,216(9)
 3180 052c 7C0903A6 		mtctr 0
 3181 0530 4E800421 		bctrl
 3182              	.L198:
 3183              		.loc 4 136 0 discriminator 1
 3184 0534 813E0000 		lwz 9,0(30)
 3185 0538 7FC3F378 		mr 3,30
 3186 053c 8009009C 		lwz 0,156(9)
 3187 0540 7C0903A6 		mtctr 0
 3188 0544 4E800421 		bctrl
 3189              	.LBB3226:
 3190              	.LBB3227:
 3191              		.loc 5 27 0 discriminator 1
 3192 0548 83FD0000 		lwz 31,_ZN11Application8instanceE@l(29)
 3193              	.LBE3227:
 3194              	.LBE3226:
 3195              		.loc 4 136 0 discriminator 1
 3196 054c 2F830000 		cmpwi 7,3,0
 3197 0550 419E0028 		beq- 7,.L231
 3198              	.LBB3229:
 3199              	.LBB3228:
 3200              		.loc 5 27 0
 3201 0554 2F9F0000 		cmpwi 7,31,0
 3202 0558 3B9D0000 		la 28,_ZN11Application8instanceE@l(29)
 3203 055c 409EFFC4 		bne+ 7,.L199
 3204 0560 38600278 		li 3,632
 3205 0564 48000001 		bl _Znwj
 3206              	.LEHE16:
 3207 0568 7C7F1B78 		mr 31,3
 3208              	.LEHB17:
 3209 056c 48000001 		bl _ZN11ApplicationC1Ev
 3210              	.LEHE17:
 3211 0570 93FC0000 		stw 31,0(28)
 3212 0574 4BFFFFAC 		b .L199
 3213              	.L231:
 3214              	.LBE3228:
 3215              	.LBE3229:
 3216              	.LBB3230:
 3217              	.LBB3231:
 3218 0578 2F9F0000 		cmpwi 7,31,0
 3219 057c 419E0170 		beq- 7,.L232
 3220              	.L202:
 3221              	.LVL212:
 3222              	.LBE3231:
 3223              	.LBE3230:
 3224              	.LBB3234:
 3225              		.loc 4 454 0
 3226 0580 813F025C 		lwz 9,604(31)
 3227              	.LBB3235:
 3228              		.loc 5 69 0
 3229 0584 3B800000 		li 28,0
 3230              	.LBE3235:
 3231              		.loc 4 454 0
 3232 0588 817F0260 		lwz 11,608(31)
 3233              	.LBB3271:
 3234              		.loc 5 69 0
 3235 058c 7D204B78 		mr 0,9
 3236              	.LBB3236:
 3237              	.LBB3237:
 3238              		.loc 6 571 0
 3239 0590 7D495850 		subf 10,9,11
 3240              	.LBE3237:
 3241              	.LBE3236:
 3242              		.loc 5 69 0
 3243 0594 5548F0BF 		srwi. 8,10,2
 3244 0598 40A2000C 		bne+ 0,.L225
 3245 059c 48000030 		b .L204
 3246              	.LVL213:
 3247              	.L217:
 3248              		.loc 4 454 0
 3249 05a0 7C090378 		mr 9,0
 3250              	.LVL214:
 3251              	.L225:
 3252              	.LBE3271:
 3253              	.LBE3234:
 3254              	.LBB3275:
 3255              	.LBB3232:
 3256              		.loc 4 122 0
 3257 05a4 579B103A 		slwi 27,28,2
 3258              	.LBE3232:
 3259              	.LBE3275:
 3260              	.LBB3276:
 3261              	.LBB3272:
 3262              		.loc 5 70 0
 3263 05a8 7D29D82E 		lwzx 9,9,27
 3264 05ac 7F9E4800 		cmpw 7,30,9
 3265 05b0 419E009C 		beq- 7,.L233
 3266              	.L206:
 3267              	.LBB3240:
 3268              	.LBB3238:
 3269              		.loc 6 571 0
 3270 05b4 7D205850 		subf 9,0,11
 3271              	.LBE3238:
 3272              	.LBE3240:
 3273              		.loc 5 69 0
 3274 05b8 3B9C0001 		addi 28,28,1
 3275              	.LVL215:
 3276              	.LBB3241:
 3277              	.LBB3239:
 3278              		.loc 6 571 0
 3279 05bc 7D291670 		srawi 9,9,2
 3280              	.LBE3239:
 3281              	.LBE3241:
 3282              		.loc 5 69 0
 3283 05c0 7F9C4840 		cmplw 7,28,9
 3284 05c4 419CFFDC 		blt+ 7,.L217
 3285 05c8 83FD0000 		lwz 31,_ZN11Application8instanceE@l(29)
 3286              	.LVL216:
 3287              	.L204:
 3288              	.LBE3272:
 3289              	.LBE3276:
 3290              	.LBB3277:
 3291              	.LBB3278:
 3292              		.loc 5 27 0
 3293 05cc 2F9F0000 		cmpwi 7,31,0
 3294 05d0 419E0134 		beq- 7,.L234
 3295              	.L208:
 3296              	.LBE3278:
 3297              	.LBE3277:
 3298              		.loc 4 140 0
 3299 05d4 7FE3FB78 		mr 3,31
 3300 05d8 7FC4F378 		mr 4,30
 3301              	.LEHB18:
 3302 05dc 48000001 		bl _ZN8GuiFrame6RemoveEP10GuiElement
 3303              	.LBB3280:
 3304              	.LBB3281:
 3305              		.loc 5 27 0
 3306 05e0 83FD0000 		lwz 31,_ZN11Application8instanceE@l(29)
 3307 05e4 2F9F0000 		cmpwi 7,31,0
 3308 05e8 419E00EC 		beq- 7,.L235
 3309              	.L210:
 3310              	.LBE3281:
 3311              	.LBE3280:
 3312              		.loc 4 141 0
 3313 05ec 813F0000 		lwz 9,0(31)
 3314 05f0 7FE3FB78 		mr 3,31
 3315              	.LBB3283:
 3316              	.LBB3284:
 3317              		.loc 7 47 0
 3318 05f4 3FE00000 		lis 31,_ZN12SettingsMenu8instanceE@ha
 3319              	.LBE3284:
 3320              	.LBE3283:
 3321              		.loc 4 141 0
 3322 05f8 800900D8 		lwz 0,216(9)
 3323 05fc 7C0903A6 		mtctr 0
 3324 0600 4E800421 		bctrl
 3325              	.LBB3287:
 3326              	.LBB3285:
 3327              		.loc 7 47 0
 3328 0604 807F0000 		lwz 3,_ZN12SettingsMenu8instanceE@l(31)
 3329 0608 2F830000 		cmpwi 7,3,0
 3330 060c 419E0014 		beq- 7,.L213
 3331 0610 81230000 		lwz 9,0(3)
 3332 0614 80090004 		lwz 0,4(9)
 3333 0618 7C0903A6 		mtctr 0
 3334 061c 4E800421 		bctrl
 3335              	.L213:
 3336 0620 38000000 		li 0,0
 3337              	.LBE3285:
 3338              	.LBE3287:
 3339              		.loc 4 144 0
 3340 0624 8361000C 		lwz 27,12(1)
 3341              	.LBB3288:
 3342              	.LBB3286:
 3343              		.loc 7 47 0
 3344 0628 901F0000 		stw 0,_ZN12SettingsMenu8instanceE@l(31)
 3345              	.LBE3286:
 3346              	.LBE3288:
 3347              		.loc 4 144 0
 3348 062c 80010024 		lwz 0,36(1)
 3349 0630 83810010 		lwz 28,16(1)
 3350 0634 7C0803A6 		mtlr 0
 3351 0638 83A10014 		lwz 29,20(1)
 3352 063c 83C10018 		lwz 30,24(1)
 3353              	.LVL217:
 3354 0640 83E1001C 		lwz 31,28(1)
 3355 0644 38210020 		addi 1,1,32
 3356              		.cfi_remember_state
 3357              	.LCFI67:
 3358              		.cfi_def_cfa_offset 0
 3359              		.cfi_restore 31
 3360              		.cfi_restore 30
 3361              		.cfi_restore 29
 3362              		.cfi_restore 28
 3363              		.cfi_restore 27
 3364 0648 4E800020 		blr
 3365              	.LVL218:
 3366              	.L233:
 3367              	.LCFI68:
 3368              		.cfi_restore_state
 3369              	.LBB3289:
 3370              	.LBB3273:
 3371              		.loc 5 71 0
 3372 064c 807F0274 		lwz 3,628(31)
 3373 0650 48000001 		bl LWP_MutexLock
 3374              	.LVL219:
 3375              	.LBB3242:
 3376              	.LBB3243:
 3377              		.loc 8 773 0
 3378 0654 807F025C 		lwz 3,604(31)
 3379              	.LBE3243:
 3380              	.LBE3242:
 3381              	.LBB3245:
 3382              	.LBB3246:
 3383              	.LBB3247:
 3384              		.loc 4 454 0
 3385 0658 813F0260 		lwz 9,608(31)
 3386              	.LBE3247:
 3387              	.LBE3246:
 3388              	.LBE3245:
 3389              	.LBB3266:
 3390              	.LBB3244:
 3391              		.loc 8 773 0
 3392 065c 7C63DA14 		add 3,3,27
 3393              	.LVL220:
 3394              	.LBE3244:
 3395              	.LBE3266:
 3396              	.LBB3267:
 3397              	.LBB3262:
 3398              	.LBB3248:
 3399              	.LBB3249:
 3400 0660 38830004 		addi 4,3,4
 3401              	.LVL221:
 3402              	.LBE3249:
 3403              	.LBE3248:
 3404              		.loc 9 138 0
 3405 0664 7F844800 		cmpw 7,4,9
 3406 0668 419E0010 		beq- 7,.L207
 3407              	.LVL222:
 3408              	.LBB3250:
 3409              	.LBB3251:
 3410              	.LBB3252:
 3411              	.LBB3253:
 3412              	.LBB3254:
 3413              	.LBB3255:
 3414              		.loc 10 364 0
 3415 066c 7CA44850 		subf 5,4,9
 3416              	.LVL223:
 3417              		.loc 10 365 0
 3418 0670 7CA51671 		srawi. 5,5,2
 3419              	.LVL224:
 3420 0674 40820038 		bne- 0,.L236
 3421              	.LVL225:
 3422              	.L207:
 3423              	.LBE3255:
 3424              	.LBE3254:
 3425              	.LBE3253:
 3426              	.LBE3252:
 3427              	.LBE3251:
 3428              	.LBE3250:
 3429              		.loc 9 140 0
 3430 0678 3929FFFC 		addi 9,9,-4
 3431              	.LBE3262:
 3432              	.LBE3267:
 3433              		.loc 5 73 0
 3434 067c 807F0274 		lwz 3,628(31)
 3435              	.LVL226:
 3436              	.LBB3268:
 3437              	.LBB3263:
 3438              		.loc 9 140 0
 3439 0680 913F0260 		stw 9,608(31)
 3440              	.LBE3263:
 3441              	.LBE3268:
 3442              		.loc 5 73 0
 3443 0684 48000001 		bl LWP_MutexUnlock
 3444              	.LVL227:
 3445 0688 801F025C 		lwz 0,604(31)
 3446 068c 817F0260 		lwz 11,608(31)
 3447 0690 4BFFFF24 		b .L206
 3448              	.LVL228:
 3449              	.L230:
 3450              	.LBE3273:
 3451              	.LBE3289:
 3452              		.loc 4 131 0 discriminator 4
 3453 0694 807E00CC 		lwz 3,204(30)
 3454 0698 81230000 		lwz 9,0(3)
 3455 069c 800900E0 		lwz 0,224(9)
 3456 06a0 7C0903A6 		mtctr 0
 3457 06a4 4E800421 		bctrl
 3458 06a8 4BFFFE48 		b .L215
 3459              	.LVL229:
 3460              	.L236:
 3461              	.LBB3290:
 3462              	.LBB3274:
 3463              	.LBB3269:
 3464              	.LBB3264:
 3465              	.LBB3261:
 3466              	.LBB3260:
 3467              	.LBB3259:
 3468              	.LBB3258:
 3469              	.LBB3257:
 3470              	.LBB3256:
 3471              		.loc 10 366 0
 3472 06ac 54A5103A 		slwi 5,5,2
 3473              	.LVL230:
 3474 06b0 48000001 		bl memmove
 3475              	.LVL231:
 3476 06b4 813F0260 		lwz 9,608(31)
 3477              	.LBE3256:
 3478              	.LBE3257:
 3479              	.LBE3258:
 3480              	.LBE3259:
 3481              	.LBE3260:
 3482              	.LBE3261:
 3483              	.LBE3264:
 3484              	.LBE3269:
 3485              		.loc 5 73 0
 3486 06b8 807F0274 		lwz 3,628(31)
 3487              	.LBB3270:
 3488              	.LBB3265:
 3489              		.loc 9 140 0
 3490 06bc 3929FFFC 		addi 9,9,-4
 3491 06c0 913F0260 		stw 9,608(31)
 3492              	.LBE3265:
 3493              	.LBE3270:
 3494              		.loc 5 73 0
 3495 06c4 48000001 		bl LWP_MutexUnlock
 3496 06c8 801F025C 		lwz 0,604(31)
 3497 06cc 817F0260 		lwz 11,608(31)
 3498 06d0 4BFFFEE4 		b .L206
 3499              	.LVL232:
 3500              	.L235:
 3501              	.LBE3274:
 3502              	.LBE3290:
 3503              	.LBB3291:
 3504              	.LBB3282:
 3505              		.loc 5 27 0
 3506 06d4 38600278 		li 3,632
 3507 06d8 48000001 		bl _Znwj
 3508              	.LEHE18:
 3509 06dc 7C7F1B78 		mr 31,3
 3510              	.LEHB19:
 3511 06e0 48000001 		bl _ZN11ApplicationC1Ev
 3512              	.LEHE19:
 3513 06e4 93FD0000 		stw 31,_ZN11Application8instanceE@l(29)
 3514 06e8 4BFFFF04 		b .L210
 3515              	.LVL233:
 3516              	.L232:
 3517              	.LBE3282:
 3518              	.LBE3291:
 3519              	.LBB3292:
 3520              	.LBB3233:
 3521 06ec 38600278 		li 3,632
 3522              	.LEHB20:
 3523 06f0 48000001 		bl _Znwj
 3524              	.LEHE20:
 3525 06f4 7C7F1B78 		mr 31,3
 3526              	.LEHB21:
 3527 06f8 48000001 		bl _ZN11ApplicationC1Ev
 3528              	.LEHE21:
 3529 06fc 93FD0000 		stw 31,_ZN11Application8instanceE@l(29)
 3530 0700 4BFFFE80 		b .L202
 3531              	.LVL234:
 3532              	.L234:
 3533              	.LBE3233:
 3534              	.LBE3292:
 3535              	.LBB3293:
 3536              	.LBB3279:
 3537 0704 38600278 		li 3,632
 3538              	.LEHB22:
 3539 0708 48000001 		bl _Znwj
 3540              	.LEHE22:
 3541 070c 7C7F1B78 		mr 31,3
 3542              	.LEHB23:
 3543 0710 48000001 		bl _ZN11ApplicationC1Ev
 3544              	.LEHE23:
 3545 0714 93FD0000 		stw 31,_ZN11Application8instanceE@l(29)
 3546 0718 4BFFFEBC 		b .L208
 3547              	.LVL235:
 3548              	.L229:
 3549              	.LBE3279:
 3550              	.LBE3293:
 3551              	.LBB3294:
 3552              	.LBB3224:
 3553 071c 38600278 		li 3,632
 3554              	.LEHB24:
 3555 0720 48000001 		bl _Znwj
 3556              	.LEHE24:
 3557 0724 7C7F1B78 		mr 31,3
 3558              	.LEHB25:
 3559 0728 48000001 		bl _ZN11ApplicationC1Ev
 3560              	.LEHE25:
 3561 072c 93FD0000 		stw 31,_ZN11Application8instanceE@l(29)
 3562 0730 4BFFFD88 		b .L194
 3563              	.L228:
 3564              	.LBE3224:
 3565              	.LBE3294:
 3566              	.LBB3295:
 3567              	.LBB3220:
 3568 0734 38600278 		li 3,632
 3569              	.LEHB26:
 3570 0738 48000001 		bl _Znwj
 3571              	.LEHE26:
 3572 073c 7C7F1B78 		mr 31,3
 3573              	.LEHB27:
 3574 0740 48000001 		bl _ZN11ApplicationC1Ev
 3575              	.LEHE27:
 3576 0744 93FD0000 		stw 31,_ZN11Application8instanceE@l(29)
 3577 0748 809E00D0 		lwz 4,208(30)
 3578 074c 4BFFFD58 		b .L192
 3579              	.LVL236:
 3580              	.L223:
 3581              	.L227:
 3582 0750 7C7E1B78 		mr 30,3
 3583              	.LVL237:
 3584              	.LBE3220:
 3585              	.LBE3295:
 3586              	.LBB3296:
 3587              	.LBB3225:
 3588 0754 7FE3FB78 		mr 3,31
 3589 0758 48000001 		bl _ZdlPv
 3590 075c 7FC3F378 		mr 3,30
 3591              	.LEHB28:
 3592 0760 48000001 		bl _Unwind_Resume
 3593              	.LEHE28:
 3594              	.LVL238:
 3595              	.L220:
 3596 0764 4BFFFFEC 		b .L227
 3597              	.L218:
 3598 0768 4BFFFFE8 		b .L227
 3599              	.L219:
 3600 076c 4BFFFFE4 		b .L227
 3601              	.LVL239:
 3602              	.L222:
 3603 0770 4BFFFFE0 		b .L227
 3604              	.LVL240:
 3605              	.L221:
 3606 0774 4BFFFFDC 		b .L227
 3607              	.LBE3225:
 3608              	.LBE3296:
 3609              		.cfi_endproc
 3610              	.LFE1670:
 3611              		.section	.gcc_except_table
 3612              	.LLSDA1670:
 3613 005e FF       		.byte	0xff
 3614 005f FF       		.byte	0xff
 3615 0060 01       		.byte	0x1
 3616 0061 48       		.uleb128 .LLSDACSE1670-.LLSDACSB1670
 3617              	.LLSDACSB1670:
 3618 0062 44       		.uleb128 .LEHB16-.LFB1670
 3619 0063 C001     		.uleb128 .LEHE16-.LEHB16
 3620 0065 00       		.uleb128 0
 3621 0066 00       		.uleb128 0
 3622 0067 8802     		.uleb128 .LEHB17-.LFB1670
 3623 0069 04       		.uleb128 .LEHE17-.LEHB17
 3624 006a 8006     		.uleb128 .L220-.LFB1670
 3625 006c 00       		.uleb128 0
 3626 006d F802     		.uleb128 .LEHB18-.LFB1670
 3627 006f 8002     		.uleb128 .LEHE18-.LEHB18
 3628 0071 00       		.uleb128 0
 3629 0072 00       		.uleb128 0
 3630 0073 FC04     		.uleb128 .LEHB19-.LFB1670
 3631 0075 04       		.uleb128 .LEHE19-.LEHB19
 3632 0076 EC05     		.uleb128 .L223-.LFB1670
 3633 0078 00       		.uleb128 0
 3634 0079 8C05     		.uleb128 .LEHB20-.LFB1670
 3635 007b 04       		.uleb128 .LEHE20-.LEHB20
 3636 007c 00       		.uleb128 0
 3637 007d 00       		.uleb128 0
 3638 007e 9405     		.uleb128 .LEHB21-.LFB1670
 3639 0080 04       		.uleb128 .LEHE21-.LEHB21
 3640 0081 9006     		.uleb128 .L221-.LFB1670
 3641 0083 00       		.uleb128 0
 3642 0084 A405     		.uleb128 .LEHB22-.LFB1670
 3643 0086 04       		.uleb128 .LEHE22-.LEHB22
 3644 0087 00       		.uleb128 0
 3645 0088 00       		.uleb128 0
 3646 0089 AC05     		.uleb128 .LEHB23-.LFB1670
 3647 008b 04       		.uleb128 .LEHE23-.LEHB23
 3648 008c 8C06     		.uleb128 .L222-.LFB1670
 3649 008e 00       		.uleb128 0
 3650 008f BC05     		.uleb128 .LEHB24-.LFB1670
 3651 0091 04       		.uleb128 .LEHE24-.LEHB24
 3652 0092 00       		.uleb128 0
 3653 0093 00       		.uleb128 0
 3654 0094 C405     		.uleb128 .LEHB25-.LFB1670
 3655 0096 04       		.uleb128 .LEHE25-.LEHB25
 3656 0097 8806     		.uleb128 .L219-.LFB1670
 3657 0099 00       		.uleb128 0
 3658 009a D405     		.uleb128 .LEHB26-.LFB1670
 3659 009c 04       		.uleb128 .LEHE26-.LEHB26
 3660 009d 00       		.uleb128 0
 3661 009e 00       		.uleb128 0
 3662 009f DC05     		.uleb128 .LEHB27-.LFB1670
 3663 00a1 04       		.uleb128 .LEHE27-.LEHB27
 3664 00a2 8406     		.uleb128 .L218-.LFB1670
 3665 00a4 00       		.uleb128 0
 3666 00a5 FC05     		.uleb128 .LEHB28-.LFB1670
 3667 00a7 04       		.uleb128 .LEHE28-.LEHB28
 3668 00a8 00       		.uleb128 0
 3669 00a9 00       		.uleb128 0
 3670              	.LLSDACSE1670:
 3671              		.section	".text"
 3672              		.size	_ZN12SettingsMenu4quitEv, .-_ZN12SettingsMenu4quitEv
 3673              		.align 2
 3674              		.globl _ZN12SettingsMenu17OnBackButtonClickEP9GuiButtoniRK6_POINT
 3675              		.type	_ZN12SettingsMenu17OnBackButtonClickEP9GuiButtoniRK6_POINT, @function
 3676              	_ZN12SettingsMenu17OnBackButtonClickEP9GuiButtoniRK6_POINT:
 3677              	.LFB1672:
 3678              		.loc 4 168 0
 3679              		.cfi_startproc
 3680              		.cfi_personality 0,__gxx_personality_v0
 3681              		.cfi_lsda 0,.LLSDA1672
 3682              	.LVL241:
 3683 0778 7C0802A6 		mflr 0
 3684 077c 9421FFD8 		stwu 1,-40(1)
 3685              	.LCFI69:
 3686              		.cfi_def_cfa_offset 40
 3687              		.cfi_register 65, 0
 3688 0780 93E10024 		stw 31,36(1)
 3689 0784 7C7F1B78 		mr 31,3
 3690              		.cfi_offset 31, -4
 3691 0788 9001002C 		stw 0,44(1)
 3692 078c 93A1001C 		stw 29,28(1)
 3693              		.loc 4 169 0
 3694 0790 808300D0 		lwz 4,208(3)
 3695              	.LVL242:
 3696              		.loc 4 168 0
 3697 0794 93C10020 		stw 30,32(1)
 3698              		.loc 4 169 0
 3699 0798 2F840000 		cmpwi 7,4,0
 3700 079c 419E0100 		beq- 7,.L238
 3701              		.cfi_offset 30, -8
 3702              		.cfi_offset 29, -12
 3703              		.cfi_offset 65, 4
 3704              		.loc 4 169 0 is_stmt 0 discriminator 1
 3705 07a0 800300D4 		lwz 0,212(3)
 3706 07a4 2F800000 		cmpwi 7,0,0
 3707 07a8 419E00F4 		beq- 7,.L238
 3708              	.LBB3397:
 3709              	.LBB3398:
 3710              		.loc 5 27 0 is_stmt 1
 3711 07ac 3FA00000 		lis 29,_ZN11Application8instanceE@ha
 3712 07b0 83DD0000 		lwz 30,_ZN11Application8instanceE@l(29)
 3713 07b4 2F9E0000 		cmpwi 7,30,0
 3714 07b8 419E0120 		beq- 7,.L268
 3715              	.LVL243:
 3716              	.L241:
 3717              	.LBE3398:
 3718              	.LBE3397:
 3719              		.loc 4 173 0
 3720 07bc 7FC3F378 		mr 3,30
 3721              	.LEHB29:
 3722 07c0 48000001 		bl _ZN11Application13PushForDeleteEP10GuiElement
 3723              	.LBB3400:
 3724              	.LBB3401:
 3725              		.loc 5 27 0
 3726 07c4 83DD0000 		lwz 30,_ZN11Application8instanceE@l(29)
 3727 07c8 2F9E0000 		cmpwi 7,30,0
 3728 07cc 419E00F4 		beq- 7,.L269
 3729              	.L243:
 3730              	.LBE3401:
 3731              	.LBE3400:
 3732              		.loc 4 174 0
 3733 07d0 813E0000 		lwz 9,0(30)
 3734 07d4 7FC3F378 		mr 3,30
 3735 07d8 800900D8 		lwz 0,216(9)
 3736 07dc 7C0903A6 		mtctr 0
 3737 07e0 4E800421 		bctrl
 3738              		.loc 4 175 0
 3739 07e4 38000000 		li 0,0
 3740 07e8 901F00D0 		stw 0,208(31)
 3741              		.loc 4 177 0
 3742 07ec 3C600000 		lis 3,.LC7@ha
 3743 07f0 38630030 		la 3,.LC7@l(3)
 3744 07f4 48000001 		bl gettext
 3745 07f8 38A1000A 		addi 5,1,10
 3746 07fc 7C641B78 		mr 4,3
 3747 0800 38610010 		addi 3,1,16
 3748 0804 48000001 		bl _ZNSsC1EPKcRKSaIcE
 3749              	.LEHE29:
 3750              		.loc 4 454 0
 3751 0808 83DF00D8 		lwz 30,216(31)
 3752              	.LVL244:
 3753              	.LBB3404:
 3754              	.LBB3405:
 3755              		.loc 7 52 0
 3756 080c 2F9E0000 		cmpwi 7,30,0
 3757 0810 419E0080 		beq- 7,.L270
 3758 0814 813E0000 		lwz 9,0(30)
 3759 0818 3861000C 		addi 3,1,12
 3760 081c 38810010 		addi 4,1,16
 3761              	.LVL245:
 3762 0820 83A900CC 		lwz 29,204(9)
 3763              	.LEHB30:
 3764 0824 48000001 		bl _ZNSsC1ERKSs
 3765              	.LEHE30:
 3766              	.LVL246:
 3767 0828 7FC3F378 		mr 3,30
 3768 082c 3881000C 		addi 4,1,12
 3769 0830 7FA903A6 		mtctr 29
 3770              	.LEHB31:
 3771 0834 4E800421 		bctrl
 3772              	.LEHE31:
 3773              	.LVL247:
 3774              	.LBB3406:
 3775              	.LBB3407:
 3776              	.LBB3408:
 3777              	.LBB3409:
 3778              	.LBB3410:
 3779              	.LBB3411:
 3780              		.file 11 "d:\\devkitpro\\devkitppc\\bin\\../lib/gcc/powerpc-eabi/4.6.3/../../../../powerpc-eabi/in
 3781              		.loc 11 288 0
 3782 0838 8121000C 		lwz 9,12(1)
 3783              	.LBE3411:
 3784              	.LBE3410:
 3785              	.LBE3409:
 3786              	.LBB3412:
 3787              	.LBB3413:
 3788              		.loc 11 235 0
 3789 083c 3FC00000 		lis 30,_ZNSs4_Rep20_S_empty_rep_storageE@ha
 3790 0840 3BDE0000 		la 30,_ZNSs4_Rep20_S_empty_rep_storageE@l(30)
 3791              	.LBE3413:
 3792              	.LBE3412:
 3793              		.loc 11 534 0
 3794 0844 3869FFF4 		addi 3,9,-12
 3795              	.LVL248:
 3796              	.LBB3422:
 3797              	.LBB3420:
 3798              		.loc 11 235 0
 3799 0848 7F83F000 		cmpw 7,3,30
 3800 084c 409E00C8 		bne- 7,.L271
 3801              	.LVL249:
 3802              	.L254:
 3803              	.LBE3420:
 3804              	.LBE3422:
 3805              	.LBE3408:
 3806              	.LBE3407:
 3807              	.LBE3406:
 3808              	.LBE3405:
 3809              	.LBE3404:
 3810              	.LBB3429:
 3811              	.LBB3430:
 3812              	.LBB3431:
 3813              	.LBB3432:
 3814              	.LBB3433:
 3815              	.LBB3434:
 3816              		.loc 11 288 0
 3817 0850 81210010 		lwz 9,16(1)
 3818              	.LBE3434:
 3819              	.LBE3433:
 3820              	.LBE3432:
 3821              		.loc 11 534 0
 3822 0854 3869FFF4 		addi 3,9,-12
 3823              	.LVL250:
 3824              	.LBB3435:
 3825              	.LBB3436:
 3826              		.loc 11 235 0
 3827 0858 7F83F000 		cmpw 7,3,30
 3828 085c 409E0098 		bne- 7,.L272
 3829              	.LVL251:
 3830              	.L262:
 3831              	.LBE3436:
 3832              	.LBE3435:
 3833              	.LBE3431:
 3834              	.LBE3430:
 3835              	.LBE3429:
 3836              		.loc 4 178 0 discriminator 1
 3837 0860 807F00CC 		lwz 3,204(31)
 3838 0864 81230000 		lwz 9,0(3)
 3839 0868 800900DC 		lwz 0,220(9)
 3840 086c 7C0903A6 		mtctr 0
 3841              	.LEHB32:
 3842 0870 4E800421 		bctrl
 3843              		.loc 4 190 0 discriminator 1
 3844 0874 8001002C 		lwz 0,44(1)
 3845 0878 83A1001C 		lwz 29,28(1)
 3846 087c 7C0803A6 		mtlr 0
 3847 0880 83C10020 		lwz 30,32(1)
 3848 0884 83E10024 		lwz 31,36(1)
 3849              	.LVL252:
 3850 0888 38210028 		addi 1,1,40
 3851              		.cfi_remember_state
 3852              	.LCFI70:
 3853              		.cfi_def_cfa_offset 0
 3854              		.cfi_restore 31
 3855              		.cfi_restore 30
 3856              		.cfi_restore 29
 3857 088c 4E800020 		blr
 3858              	.LVL253:
 3859              	.L270:
 3860              	.LCFI71:
 3861              		.cfi_restore_state
 3862 0890 3FC00000 		lis 30,_ZNSs4_Rep20_S_empty_rep_storageE@ha
 3863 0894 3BDE0000 		la 30,_ZNSs4_Rep20_S_empty_rep_storageE@l(30)
 3864 0898 4BFFFFB8 		b .L254
 3865              	.LVL254:
 3866              	.L238:
 3867              		.loc 4 170 0
 3868 089c 7FE3FB78 		mr 3,31
 3869 08a0 48000001 		bl _ZN12SettingsMenu4quitEv
 3870              	.LVL255:
 3871              		.loc 4 190 0
 3872 08a4 8001002C 		lwz 0,44(1)
 3873 08a8 83A1001C 		lwz 29,28(1)
 3874 08ac 7C0803A6 		mtlr 0
 3875 08b0 83C10020 		lwz 30,32(1)
 3876 08b4 83E10024 		lwz 31,36(1)
 3877              	.LVL256:
 3878 08b8 38210028 		addi 1,1,40
 3879              		.cfi_remember_state
 3880              		.cfi_restore 29
 3881              		.cfi_restore 30
 3882              		.cfi_restore 31
 3883              	.LCFI72:
 3884              		.cfi_def_cfa_offset 0
 3885 08bc 4E800020 		blr
 3886              	.LVL257:
 3887              	.L269:
 3888              	.LCFI73:
 3889              		.cfi_restore_state
 3890              	.LBB3447:
 3891              	.LBB3402:
 3892              		.loc 5 27 0
 3893 08c0 38600278 		li 3,632
 3894 08c4 48000001 		bl _Znwj
 3895              	.LEHE32:
 3896 08c8 7C7E1B78 		mr 30,3
 3897              	.LEHB33:
 3898 08cc 48000001 		bl _ZN11ApplicationC1Ev
 3899              	.LEHE33:
 3900 08d0 93DD0000 		stw 30,_ZN11Application8instanceE@l(29)
 3901 08d4 4BFFFEFC 		b .L243
 3902              	.LVL258:
 3903              	.L268:
 3904              	.LBE3402:
 3905              	.LBE3447:
 3906              	.LBB3448:
 3907              	.LBB3399:
 3908 08d8 38600278 		li 3,632
 3909              	.LEHB34:
 3910 08dc 48000001 		bl _Znwj
 3911              	.LEHE34:
 3912              	.LVL259:
 3913 08e0 7C7E1B78 		mr 30,3
 3914              	.LEHB35:
 3915 08e4 48000001 		bl _ZN11ApplicationC1Ev
 3916              	.LEHE35:
 3917 08e8 93DD0000 		stw 30,_ZN11Application8instanceE@l(29)
 3918 08ec 809F00D0 		lwz 4,208(31)
 3919 08f0 4BFFFECC 		b .L241
 3920              	.LVL260:
 3921              	.L272:
 3922              	.LBE3399:
 3923              	.LBE3448:
 3924              	.LBB3449:
 3925              	.LBB3446:
 3926              	.LBB3445:
 3927              	.LBB3444:
 3928              	.LBB3443:
 3929              	.LBB3437:
 3930              	.LBB3438:
 3931              	.LBB3439:
 3932              		.file 12 "d:\\devkitpro\\devkitppc\\bin\\../lib/gcc/powerpc-eabi/4.6.3/../../../../powerpc-eabi/in
 3933              		.loc 12 66 0
 3934 08f4 8169FFFC 		lwz 11,-4(9)
 3935              	.LVL261:
 3936              	.LBE3439:
 3937              	.LBE3438:
 3938              	.LBE3437:
 3939              		.loc 11 240 0
 3940 08f8 2F8B0000 		cmpwi 7,11,0
 3941              	.LBB3442:
 3942              	.LBB3441:
 3943              	.LBB3440:
 3944              		.loc 12 67 0
 3945 08fc 396BFFFF 		addi 11,11,-1
 3946 0900 9169FFFC 		stw 11,-4(9)
 3947              	.LBE3440:
 3948              	.LBE3441:
 3949              	.LBE3442:
 3950              		.loc 11 240 0
 3951 0904 419DFF5C 		bgt+ 7,.L262
 3952              		.loc 11 244 0
 3953 0908 38810008 		addi 4,1,8
 3954 090c 48000001 		bl _ZNSs4_Rep10_M_destroyERKSaIcE
 3955              	.LVL262:
 3956 0910 4BFFFF50 		b .L262
 3957              	.LVL263:
 3958              	.L271:
 3959              	.LBE3443:
 3960              	.LBE3444:
 3961              	.LBE3445:
 3962              	.LBE3446:
 3963              	.LBE3449:
 3964              	.LBB3450:
 3965              	.LBB3427:
 3966              	.LBB3426:
 3967              	.LBB3425:
 3968              	.LBB3424:
 3969              	.LBB3423:
 3970              	.LBB3421:
 3971              	.LBB3414:
 3972              	.LBB3415:
 3973              	.LBB3416:
 3974              		.loc 12 66 0
 3975 0914 8169FFFC 		lwz 11,-4(9)
 3976              	.LVL264:
 3977              	.LBE3416:
 3978              	.LBE3415:
 3979              	.LBE3414:
 3980              		.loc 11 240 0
 3981 0918 2F8B0000 		cmpwi 7,11,0
 3982              	.LBB3419:
 3983              	.LBB3418:
 3984              	.LBB3417:
 3985              		.loc 12 67 0
 3986 091c 396BFFFF 		addi 11,11,-1
 3987 0920 9169FFFC 		stw 11,-4(9)
 3988              	.LBE3417:
 3989              	.LBE3418:
 3990              	.LBE3419:
 3991              		.loc 11 240 0
 3992 0924 419DFF2C 		bgt+ 7,.L254
 3993              		.loc 11 244 0
 3994 0928 38810009 		addi 4,1,9
 3995 092c 48000001 		bl _ZNSs4_Rep10_M_destroyERKSaIcE
 3996              	.LVL265:
 3997 0930 4BFFFF20 		b .L254
 3998              	.LVL266:
 3999              	.L264:
 4000              	.L267:
 4001 0934 7C7F1B78 		mr 31,3
 4002              	.LVL267:
 4003              	.LBE3421:
 4004              	.LBE3423:
 4005              	.LBE3424:
 4006              	.LBE3425:
 4007              	.LBE3426:
 4008              	.LBE3427:
 4009              	.LBE3450:
 4010              	.LBB3451:
 4011              	.LBB3403:
 4012              		.loc 5 27 0
 4013 0938 7FC3F378 		mr 3,30
 4014 093c 48000001 		bl _ZdlPv
 4015 0940 7FE3FB78 		mr 3,31
 4016              	.LEHB36:
 4017 0944 48000001 		bl _Unwind_Resume
 4018              	.LVL268:
 4019              	.L263:
 4020 0948 7C7F1B78 		mr 31,3
 4021              	.LVL269:
 4022              	.L249:
 4023              	.LBE3403:
 4024              	.LBE3451:
 4025              		.loc 4 177 0
 4026 094c 38610010 		addi 3,1,16
 4027              	.LVL270:
 4028 0950 48000001 		bl _ZNSsD1Ev
 4029              	.LVL271:
 4030 0954 7FE3FB78 		mr 3,31
 4031 0958 48000001 		bl _Unwind_Resume
 4032              	.LEHE36:
 4033              	.LVL272:
 4034              	.L265:
 4035 095c 4BFFFFD8 		b .L267
 4036              	.LVL273:
 4037              	.L266:
 4038 0960 7C7F1B78 		mr 31,3
 4039              	.LVL274:
 4040              	.LBB3452:
 4041              	.LBB3428:
 4042              		.loc 7 52 0
 4043 0964 3861000C 		addi 3,1,12
 4044 0968 48000001 		bl _ZNSsD1Ev
 4045 096c 4BFFFFE0 		b .L249
 4046              	.LBE3428:
 4047              	.LBE3452:
 4048              		.cfi_endproc
 4049              	.LFE1672:
 4050              		.section	.gcc_except_table
 4051              	.LLSDA1672:
 4052 00aa FF       		.byte	0xff
 4053 00ab FF       		.byte	0xff
 4054 00ac 01       		.byte	0x1
 4055 00ad 2B       		.uleb128 .LLSDACSE1672-.LLSDACSB1672
 4056              	.LLSDACSB1672:
 4057 00ae 48       		.uleb128 .LEHB29-.LFB1672
 4058 00af 48       		.uleb128 .LEHE29-.LEHB29
 4059 00b0 00       		.uleb128 0
 4060 00b1 00       		.uleb128 0
 4061 00b2 AC01     		.uleb128 .LEHB30-.LFB1672
 4062 00b4 04       		.uleb128 .LEHE30-.LEHB30
 4063 00b5 D003     		.uleb128 .L263-.LFB1672
 4064 00b7 00       		.uleb128 0
 4065 00b8 BC01     		.uleb128 .LEHB31-.LFB1672
 4066 00ba 04       		.uleb128 .LEHE31-.LEHB31
 4067 00bb E803     		.uleb128 .L266-.LFB1672
 4068 00bd 00       		.uleb128 0
 4069 00be F801     		.uleb128 .LEHB32-.LFB1672
 4070 00c0 58       		.uleb128 .LEHE32-.LEHB32
 4071 00c1 00       		.uleb128 0
 4072 00c2 00       		.uleb128 0
 4073 00c3 D402     		.uleb128 .LEHB33-.LFB1672
 4074 00c5 04       		.uleb128 .LEHE33-.LEHB33
 4075 00c6 E403     		.uleb128 .L265-.LFB1672
 4076 00c8 00       		.uleb128 0
 4077 00c9 E402     		.uleb128 .LEHB34-.LFB1672
 4078 00cb 04       		.uleb128 .LEHE34-.LEHB34
 4079 00cc 00       		.uleb128 0
 4080 00cd 00       		.uleb128 0
 4081 00ce EC02     		.uleb128 .LEHB35-.LFB1672
 4082 00d0 04       		.uleb128 .LEHE35-.LEHB35
 4083 00d1 BC03     		.uleb128 .L264-.LFB1672
 4084 00d3 00       		.uleb128 0
 4085 00d4 CC03     		.uleb128 .LEHB36-.LFB1672
 4086 00d6 18       		.uleb128 .LEHE36-.LEHB36
 4087 00d7 00       		.uleb128 0
 4088 00d8 00       		.uleb128 0
 4089              	.LLSDACSE1672:
 4090              		.section	".text"
 4091              		.size	_ZN12SettingsMenu17OnBackButtonClickEP9GuiButtoniRK6_POINT, .-_ZN12SettingsMenu17OnBackButto
 4092              		.align 2
 4093              		.globl _ZN12SettingsMenu33OnThemeDownloadInfosWindowClickedEP16ThemeInfosWindow
 4094              		.type	_ZN12SettingsMenu33OnThemeDownloadInfosWindowClickedEP16ThemeInfosWindow, @function
 4095              	_ZN12SettingsMenu33OnThemeDownloadInfosWindowClickedEP16ThemeInfosWindow:
 4096              	.LFB1677:
 4097              		.loc 4 447 0
 4098              		.cfi_startproc
 4099              	.LVL275:
 4100              		.loc 4 454 0
 4101 0970 4E800020 		blr
 4102              		.cfi_endproc
 4103              	.LFE1677:
 4104              		.size	_ZN12SettingsMenu33OnThemeDownloadInfosWindowClickedEP16ThemeInfosWindow, .-_ZN12SettingsMen
 4105              		.section	.text._ZNSt6vectorIP10GuiElementSaIS1_EE13_M_insert_auxEN9__gnu_cxx17__normal_iteratorIPS
 4106              		.align 2
 4107              		.weak	_ZNSt6vectorIP10GuiElementSaIS1_EE13_M_insert_auxEN9__gnu_cxx17__normal_iteratorIPS1_S3_EERK
 4108              		.type	_ZNSt6vectorIP10GuiElementSaIS1_EE13_M_insert_auxEN9__gnu_cxx17__normal_iteratorIPS1_S3_EERK
 4109              	_ZNSt6vectorIP10GuiElementSaIS1_EE13_M_insert_auxEN9__gnu_cxx17__normal_iteratorIPS1_S3_EERKS1_:
 4110              	.LFB1856:
 4111              		.loc 9 300 0
 4112              		.cfi_startproc
 4113              	.LVL276:
 4114 0000 7C0802A6 		mflr 0
 4115 0004 9421FFD8 		stwu 1,-40(1)
 4116              	.LCFI74:
 4117              		.cfi_def_cfa_offset 40
 4118              		.cfi_register 65, 0
 4119 0008 93610014 		stw 27,20(1)
 4120 000c 9001002C 		stw 0,44(1)
 4121 0010 93C10020 		stw 30,32(1)
 4122              	.LBB3515:
 4123              		.loc 9 304 0
 4124 0014 83630004 		lwz 27,4(3)
 4125              		.cfi_offset 30, -8
 4126              		.cfi_offset 65, 4
 4127              		.cfi_offset 27, -20
 4128 0018 80030008 		lwz 0,8(3)
 4129              	.LBE3515:
 4130              		.loc 9 300 0
 4131 001c 93E10024 		stw 31,36(1)
 4132 0020 7C7F1B78 		mr 31,3
 4133              		.cfi_offset 31, -4
 4134              	.LBB3640:
 4135              		.loc 9 304 0
 4136 0024 7F9B0000 		cmpw 7,27,0
 4137              	.LBE3640:
 4138              		.loc 9 300 0
 4139 0028 93410010 		stw 26,16(1)
 4140 002c 93810018 		stw 28,24(1)
 4141 0030 93A1001C 		stw 29,28(1)
 4142              		.loc 9 300 0
 4143 0034 83C40000 		lwz 30,0(4)
 4144              	.LVL277:
 4145              	.LBB3641:
 4146              		.loc 9 304 0
 4147 0038 419E0078 		beq- 7,.L275
 4148              		.cfi_offset 29, -12
 4149              		.cfi_offset 28, -16
 4150              		.cfi_offset 26, -24
 4151              	.LVL278:
 4152              	.LBB3516:
 4153              	.LBB3517:
 4154              	.LBB3518:
 4155              		.file 13 "d:\\devkitpro\\devkitppc\\bin\\../lib/gcc/powerpc-eabi/4.6.3/../../../../powerpc-eabi/in
 4156              		.loc 13 108 0
 4157 003c 2F9B0000 		cmpwi 7,27,0
 4158 0040 38600000 		li 3,0
 4159              	.LVL279:
 4160 0044 419E0010 		beq- 7,.L276
 4161 0048 801BFFFC 		lwz 0,-4(27)
 4162 004c 901B0000 		stw 0,0(27)
 4163 0050 807F0004 		lwz 3,4(31)
 4164              	.L276:
 4165              	.LBE3518:
 4166              	.LBE3517:
 4167              		.loc 9 313 0
 4168 0054 3803FFFC 		addi 0,3,-4
 4169              		.loc 9 309 0
 4170 0058 39230004 		addi 9,3,4
 4171              	.LBB3519:
 4172              	.LBB3520:
 4173              	.LBB3521:
 4174              	.LBB3522:
 4175              	.LBB3523:
 4176              	.LBB3524:
 4177              		.loc 10 559 0
 4178 005c 7C1E0050 		subf 0,30,0
 4179              	.LBE3524:
 4180              	.LBE3523:
 4181              	.LBE3522:
 4182              	.LBE3521:
 4183              	.LBE3520:
 4184              	.LBE3519:
 4185              		.loc 9 309 0
 4186 0060 913F0004 		stw 9,4(31)
 4187              	.LBB3540:
 4188              	.LBB3537:
 4189              	.LBB3534:
 4190              	.LBB3531:
 4191              	.LBB3528:
 4192              	.LBB3525:
 4193              		.loc 10 560 0
 4194 0064 7C001671 		srawi. 0,0,2
 4195              	.LBE3525:
 4196              	.LBE3528:
 4197              	.LBE3531:
 4198              	.LBE3534:
 4199              	.LBE3537:
 4200              	.LBE3540:
 4201              		.loc 9 311 0
 4202 0068 83E50000 		lwz 31,0(5)
 4203              	.LVL280:
 4204              	.LBB3541:
 4205              	.LBB3538:
 4206              	.LBB3535:
 4207              	.LBB3532:
 4208              	.LBB3529:
 4209              	.LBB3526:
 4210              		.loc 10 560 0
 4211 006c 40820030 		bne- 0,.L291
 4212              	.LVL281:
 4213              	.L277:
 4214              	.LBE3526:
 4215              	.LBE3529:
 4216              	.LBE3532:
 4217              	.LBE3535:
 4218              	.LBE3538:
 4219              	.LBE3541:
 4220              	.LBE3516:
 4221              	.LBE3641:
 4222              		.loc 9 373 0
 4223 0070 8001002C 		lwz 0,44(1)
 4224              	.LBB3642:
 4225              	.LBB3543:
 4226              		.loc 9 317 0
 4227 0074 93FE0000 		stw 31,0(30)
 4228              	.LBE3543:
 4229              	.LBE3642:
 4230              		.loc 9 373 0
 4231 0078 7C0803A6 		mtlr 0
 4232 007c 83410010 		lwz 26,16(1)
 4233 0080 83610014 		lwz 27,20(1)
 4234              	.LVL282:
 4235 0084 83810018 		lwz 28,24(1)
 4236 0088 83A1001C 		lwz 29,28(1)
 4237 008c 83C10020 		lwz 30,32(1)
 4238              	.LVL283:
 4239 0090 83E10024 		lwz 31,36(1)
 4240              	.LVL284:
 4241 0094 38210028 		addi 1,1,40
 4242              		.cfi_remember_state
 4243              	.LCFI75:
 4244              		.cfi_def_cfa_offset 0
 4245              		.cfi_restore 31
 4246              		.cfi_restore 30
 4247              		.cfi_restore 29
 4248              		.cfi_restore 28
 4249              		.cfi_restore 27
 4250              		.cfi_restore 26
 4251 0098 4E800020 		blr
 4252              	.LVL285:
 4253              	.L291:
 4254              	.LCFI76:
 4255              		.cfi_restore_state
 4256              	.LBB3643:
 4257              	.LBB3544:
 4258              	.LBB3542:
 4259              	.LBB3539:
 4260              	.LBB3536:
 4261              	.LBB3533:
 4262              	.LBB3530:
 4263              	.LBB3527:
 4264              		.loc 10 561 0
 4265 009c 5405103A 		slwi 5,0,2
 4266              	.LVL286:
 4267 00a0 7FC4F378 		mr 4,30
 4268 00a4 7C651850 		subf 3,5,3
 4269              	.LVL287:
 4270 00a8 48000001 		bl memmove
 4271              	.LVL288:
 4272 00ac 4BFFFFC4 		b .L277
 4273              	.LVL289:
 4274              	.L275:
 4275              	.LBE3527:
 4276              	.LBE3530:
 4277              	.LBE3533:
 4278              	.LBE3536:
 4279              	.LBE3539:
 4280              	.LBE3542:
 4281              	.LBE3544:
 4282              	.LBB3545:
 4283              	.LBB3546:
 4284              	.LBB3547:
 4285              	.LBB3548:
 4286              	.LBB3549:
 4287              		.loc 6 571 0
 4288 00b0 83830000 		lwz 28,0(3)
 4289 00b4 7F7CD850 		subf 27,28,27
 4290              	.LBE3549:
 4291              	.LBE3548:
 4292              	.LBB3550:
 4293              	.LBB3551:
 4294              		.loc 10 215 0
 4295 00b8 7F7B1671 		srawi. 27,27,2
 4296 00bc 418200E8 		beq- 0,.L279
 4297              	.LBE3551:
 4298              	.LBE3550:
 4299              		.loc 6 1244 0
 4300 00c0 5760083C 		slwi 0,27,1
 4301              	.LVL290:
 4302              		.loc 6 1245 0
 4303 00c4 7F9B0040 		cmplw 7,27,0
 4304 00c8 409D00EC 		ble- 7,.L292
 4305              	.L280:
 4306              	.LVL291:
 4307              	.LBE3547:
 4308              	.LBE3546:
 4309              	.LBB3554:
 4310              	.LBB3555:
 4311              		.loc 8 892 0
 4312 00cc 7F9CF050 		subf 28,28,30
 4313              	.LBE3555:
 4314              	.LBE3554:
 4315              		.loc 9 326 0
 4316 00d0 3B60FFFC 		li 27,-4
 4317              	.LBB3561:
 4318              	.LBB3556:
 4319              		.loc 8 892 0
 4320 00d4 7F9C1670 		srawi 28,28,2
 4321              	.LVL292:
 4322              	.L286:
 4323              	.LBE3556:
 4324              	.LBE3561:
 4325              	.LBB3562:
 4326              	.LBB3563:
 4327              	.LBB3564:
 4328              	.LBB3565:
 4329              		.loc 13 92 0
 4330 00d8 7F63DB78 		mr 3,27
 4331              	.LVL293:
 4332 00dc 90A10008 		stw 5,8(1)
 4333 00e0 48000001 		bl _Znwj
 4334              	.LVL294:
 4335 00e4 80A10008 		lwz 5,8(1)
 4336 00e8 7C7D1B78 		mr 29,3
 4337              	.L281:
 4338              	.LVL295:
 4339              	.LBE3565:
 4340              	.LBE3564:
 4341              	.LBE3563:
 4342              	.LBE3562:
 4343              		.loc 9 335 0
 4344 00ec 579C103A 		slwi 28,28,2
 4345              	.LVL296:
 4346 00f0 7C1DE214 		add 0,29,28
 4347              	.LVL297:
 4348              	.LBB3568:
 4349              	.LBB3569:
 4350              		.loc 13 108 0
 4351 00f4 2F800000 		cmpwi 7,0,0
 4352 00f8 419E000C 		beq- 7,.L282
 4353 00fc 80050000 		lwz 0,0(5)
 4354              	.LVL298:
 4355 0100 7C1DE12E 		stwx 0,29,28
 4356              	.L282:
 4357              	.LVL299:
 4358              	.LBE3569:
 4359              	.LBE3568:
 4360              		.loc 9 343 0
 4361 0104 809F0000 		lwz 4,0(31)
 4362              	.LVL300:
 4363              	.LBB3570:
 4364              	.LBB3571:
 4365              	.LBB3572:
 4366              	.LBB3573:
 4367              	.LBB3574:
 4368              	.LBB3575:
 4369              	.LBB3576:
 4370              	.LBB3577:
 4371              	.LBB3578:
 4372              	.LBB3579:
 4373              	.LBB3580:
 4374              		.loc 10 365 0
 4375 0108 3B800000 		li 28,0
 4376              		.loc 10 364 0
 4377 010c 7C04F050 		subf 0,4,30
 4378              	.LVL301:
 4379              		.loc 10 365 0
 4380 0110 7C001671 		srawi. 0,0,2
 4381              	.LVL302:
 4382 0114 41A20014 		beq+ 0,.L283
 4383              		.loc 10 366 0
 4384 0118 541C103A 		slwi 28,0,2
 4385 011c 7FA3EB78 		mr 3,29
 4386 0120 7F85E378 		mr 5,28
 4387              	.LVL303:
 4388 0124 48000001 		bl memmove
 4389              	.LVL304:
 4390              	.L283:
 4391              	.LBE3580:
 4392              	.LBE3579:
 4393              	.LBE3578:
 4394              	.LBE3577:
 4395              	.LBE3576:
 4396              	.LBE3575:
 4397              	.LBE3574:
 4398              	.LBE3573:
 4399              	.LBE3572:
 4400              	.LBE3571:
 4401              	.LBE3570:
 4402              	.LBB3591:
 4403              	.LBB3592:
 4404              	.LBB3593:
 4405              	.LBB3594:
 4406              	.LBB3595:
 4407              	.LBB3596:
 4408              	.LBB3597:
 4409              	.LBB3598:
 4410              	.LBB3599:
 4411              	.LBB3600:
 4412              	.LBB3601:
 4413              		.loc 10 364 0
 4414 0128 801F0004 		lwz 0,4(31)
 4415              	.LBE3601:
 4416              	.LBE3600:
 4417              	.LBE3599:
 4418              	.LBE3598:
 4419              	.LBE3597:
 4420              	.LBE3596:
 4421              	.LBE3595:
 4422              	.LBE3594:
 4423              	.LBE3593:
 4424              	.LBE3592:
 4425              	.LBE3591:
 4426              	.LBB3622:
 4427              	.LBB3590:
 4428              	.LBB3589:
 4429              	.LBB3588:
 4430              	.LBB3587:
 4431              	.LBB3586:
 4432              	.LBB3585:
 4433              	.LBB3584:
 4434              	.LBB3583:
 4435              	.LBB3582:
 4436              	.LBB3581:
 4437              		.loc 10 367 0
 4438 012c 7F9DE214 		add 28,29,28
 4439              	.LVL305:
 4440              	.LBE3581:
 4441              	.LBE3582:
 4442              	.LBE3583:
 4443              	.LBE3584:
 4444              	.LBE3585:
 4445              	.LBE3586:
 4446              	.LBE3587:
 4447              	.LBE3588:
 4448              	.LBE3589:
 4449              	.LBE3590:
 4450              	.LBE3622:
 4451              		.loc 9 347 0
 4452 0130 3B5C0004 		addi 26,28,4
 4453              	.LBB3623:
 4454              	.LBB3620:
 4455              	.LBB3618:
 4456              	.LBB3616:
 4457              	.LBB3614:
 4458              	.LBB3612:
 4459              	.LBB3610:
 4460              	.LBB3608:
 4461              	.LBB3606:
 4462              	.LBB3604:
 4463              	.LBB3602:
 4464              		.loc 10 365 0
 4465 0134 3B800000 		li 28,0
 4466              		.loc 10 364 0
 4467 0138 7C1E0050 		subf 0,30,0
 4468              	.LVL306:
 4469              		.loc 10 365 0
 4470 013c 7C001671 		srawi. 0,0,2
 4471              	.LVL307:
 4472 0140 41A20018 		beq+ 0,.L284
 4473              		.loc 10 366 0
 4474 0144 541C103A 		slwi 28,0,2
 4475 0148 7F43D378 		mr 3,26
 4476 014c 7FC4F378 		mr 4,30
 4477 0150 7F85E378 		mr 5,28
 4478 0154 48000001 		bl memmove
 4479              	.LVL308:
 4480              	.L284:
 4481              	.LBE3602:
 4482              	.LBE3604:
 4483              	.LBE3606:
 4484              	.LBE3608:
 4485              	.LBE3610:
 4486              	.LBE3612:
 4487              	.LBE3614:
 4488              	.LBE3616:
 4489              	.LBE3618:
 4490              	.LBE3620:
 4491              	.LBE3623:
 4492              		.loc 9 366 0
 4493 0158 807F0000 		lwz 3,0(31)
 4494              	.LBB3624:
 4495              	.LBB3621:
 4496              	.LBB3619:
 4497              	.LBB3617:
 4498              	.LBB3615:
 4499              	.LBB3613:
 4500              	.LBB3611:
 4501              	.LBB3609:
 4502              	.LBB3607:
 4503              	.LBB3605:
 4504              	.LBB3603:
 4505              		.loc 10 367 0
 4506 015c 7F9AE214 		add 28,26,28
 4507              	.LVL309:
 4508              	.LBE3603:
 4509              	.LBE3605:
 4510              	.LBE3607:
 4511              	.LBE3609:
 4512              	.LBE3611:
 4513              	.LBE3613:
 4514              	.LBE3615:
 4515              	.LBE3617:
 4516              	.LBE3619:
 4517              	.LBE3621:
 4518              	.LBE3624:
 4519              	.LBB3625:
 4520              	.LBB3626:
 4521              		.loc 6 155 0
 4522 0160 2F830000 		cmpwi 7,3,0
 4523 0164 419E0008 		beq- 7,.L285
 4524              	.LVL310:
 4525              	.LBB3627:
 4526              	.LBB3628:
 4527              		.loc 13 98 0
 4528 0168 48000001 		bl _ZdlPv
 4529              	.LVL311:
 4530              	.L285:
 4531              	.LBE3628:
 4532              	.LBE3627:
 4533              	.LBE3626:
 4534              	.LBE3625:
 4535              	.LBE3545:
 4536              	.LBE3643:
 4537              		.loc 9 373 0
 4538 016c 8001002C 		lwz 0,44(1)
 4539              	.LBB3644:
 4540              	.LBB3637:
 4541              		.loc 9 371 0
 4542 0170 7F7DDA14 		add 27,29,27
 4543              		.loc 9 369 0
 4544 0174 93BF0000 		stw 29,0(31)
 4545              	.LBE3637:
 4546              	.LBE3644:
 4547              		.loc 9 373 0
 4548 0178 7C0803A6 		mtlr 0
 4549              	.LBB3645:
 4550              	.LBB3638:
 4551              		.loc 9 370 0
 4552 017c 939F0004 		stw 28,4(31)
 4553              		.loc 9 371 0
 4554 0180 937F0008 		stw 27,8(31)
 4555              	.LBE3638:
 4556              	.LBE3645:
 4557              		.loc 9 373 0
 4558 0184 83410010 		lwz 26,16(1)
 4559              	.LVL312:
 4560 0188 83610014 		lwz 27,20(1)
 4561 018c 83810018 		lwz 28,24(1)
 4562 0190 83A1001C 		lwz 29,28(1)
 4563              	.LVL313:
 4564 0194 83C10020 		lwz 30,32(1)
 4565              	.LVL314:
 4566 0198 83E10024 		lwz 31,36(1)
 4567              	.LVL315:
 4568 019c 38210028 		addi 1,1,40
 4569              		.cfi_remember_state
 4570              		.cfi_restore 26
 4571              		.cfi_restore 27
 4572              		.cfi_restore 28
 4573              		.cfi_restore 29
 4574              		.cfi_restore 30
 4575              		.cfi_restore 31
 4576              	.LCFI77:
 4577              		.cfi_def_cfa_offset 0
 4578 01a0 4E800020 		blr
 4579              	.LVL316:
 4580              	.L279:
 4581              	.LCFI78:
 4582              		.cfi_restore_state
 4583              	.LBB3646:
 4584              	.LBB3639:
 4585              	.LBB3629:
 4586              	.LBB3557:
 4587              		.loc 8 892 0
 4588 01a4 7F9CF050 		subf 28,28,30
 4589              	.LBE3557:
 4590              	.LBE3629:
 4591              		.loc 9 326 0
 4592 01a8 3B600004 		li 27,4
 4593              	.LBB3630:
 4594              	.LBB3558:
 4595              		.loc 8 892 0
 4596 01ac 7F9C1670 		srawi 28,28,2
 4597              	.LVL317:
 4598 01b0 4BFFFF28 		b .L286
 4599              	.LVL318:
 4600              	.L292:
 4601              	.LBE3558:
 4602              	.LBE3630:
 4603              	.LBB3631:
 4604              	.LBB3552:
 4605              		.loc 6 1245 0
 4606 01b4 3D203FFF 		lis 9,0x3fff
 4607 01b8 6129FFFF 		ori 9,9,65535
 4608 01bc 7F804840 		cmplw 7,0,9
 4609 01c0 419DFF0C 		bgt+ 7,.L280
 4610              	.LBE3552:
 4611              	.LBE3631:
 4612              	.LBB3632:
 4613              	.LBB3566:
 4614              		.loc 6 150 0
 4615 01c4 2F800000 		cmpwi 7,0,0
 4616              	.LBE3566:
 4617              	.LBE3632:
 4618              	.LBB3633:
 4619              	.LBB3559:
 4620              		.loc 8 892 0
 4621 01c8 7F9CF050 		subf 28,28,30
 4622              	.LBE3559:
 4623              	.LBE3633:
 4624              	.LBB3634:
 4625              	.LBB3553:
 4626              		.loc 6 1245 0
 4627 01cc 577B1838 		slwi 27,27,3
 4628              	.LVL319:
 4629              	.LBE3553:
 4630              	.LBE3634:
 4631              	.LBB3635:
 4632              	.LBB3560:
 4633              		.loc 8 892 0
 4634 01d0 7F9C1670 		srawi 28,28,2
 4635              	.LVL320:
 4636              	.LBE3560:
 4637              	.LBE3635:
 4638              	.LBB3636:
 4639              	.LBB3567:
 4640              		.loc 6 150 0
 4641 01d4 3BA00000 		li 29,0
 4642 01d8 419EFF14 		beq+ 7,.L281
 4643 01dc 4BFFFEFC 		b .L286
 4644              	.LBE3567:
 4645              	.LBE3636:
 4646              	.LBE3639:
 4647              	.LBE3646:
 4648              		.cfi_endproc
 4649              	.LFE1856:
 4650              		.size	_ZNSt6vectorIP10GuiElementSaIS1_EE13_M_insert_auxEN9__gnu_cxx17__normal_iteratorIPS1_S3_EERK
 4651              		.section	".text"
 4652              		.align 2
 4653              		.globl _ZN12SettingsMenu4showEs
 4654              		.type	_ZN12SettingsMenu4showEs, @function
 4655              	_ZN12SettingsMenu4showEs:
 4656              	.LFB1671:
 4657              		.loc 4 147 0
 4658              		.cfi_startproc
 4659              		.cfi_personality 0,__gxx_personality_v0
 4660              		.cfi_lsda 0,.LLSDA1671
 4661              	.LVL321:
 4662 0974 9421FFC8 		stwu 1,-56(1)
 4663              	.LCFI79:
 4664              		.cfi_def_cfa_offset 56
 4665 0978 7C0802A6 		mflr 0
 4666 097c 93A1002C 		stw 29,44(1)
 4667              	.LBB3688:
 4668              	.LBB3689:
 4669              		.loc 5 27 0
 4670 0980 3FA00000 		lis 29,_ZN11Application8instanceE@ha
 4671              		.cfi_offset 29, -12
 4672              		.cfi_register 65, 0
 4673              	.LBE3689:
 4674              	.LBE3688:
 4675              		.loc 4 147 0
 4676 0984 93E10034 		stw 31,52(1)
 4677              	.LBB3695:
 4678              	.LBB3690:
 4679              		.loc 5 27 0
 4680 0988 83FD0000 		lwz 31,_ZN11Application8instanceE@l(29)
 4681              		.cfi_offset 31, -4
 4682              	.LBE3690:
 4683              	.LBE3695:
 4684              		.loc 4 147 0
 4685 098c 93810028 		stw 28,40(1)
 4686 0990 7C9C2378 		mr 28,4
 4687              		.cfi_offset 28, -16
 4688              	.LBB3696:
 4689              	.LBB3691:
 4690              		.loc 5 27 0
 4691 0994 2F9F0000 		cmpwi 7,31,0
 4692              	.LBE3691:
 4693              	.LBE3696:
 4694              		.loc 4 147 0
 4695 0998 93C10030 		stw 30,48(1)
 4696 099c 9001003C 		stw 0,60(1)
 4697 09a0 7C7E1B78 		mr 30,3
 4698              		.cfi_offset 65, 4
 4699              		.cfi_offset 30, -8
 4700 09a4 93410020 		stw 26,32(1)
 4701 09a8 93610024 		stw 27,36(1)
 4702              	.LBB3697:
 4703              	.LBB3692:
 4704              		.loc 5 27 0
 4705 09ac 419E0228 		beq- 7,.L325
 4706              		.cfi_offset 27, -20
 4707              		.cfi_offset 26, -24
 4708              	.LVL322:
 4709              	.L294:
 4710              	.LBE3692:
 4711              	.LBE3697:
 4712              	.LBB3698:
 4713              	.LBB3699:
 4714              	.LBB3700:
 4715              		.loc 4 454 0
 4716 09b0 813F025C 		lwz 9,604(31)
 4717              	.LBB3701:
 4718              		.loc 5 69 0
 4719 09b4 3B600000 		li 27,0
 4720              	.LBE3701:
 4721              		.loc 4 454 0
 4722 09b8 817F0260 		lwz 11,608(31)
 4723              	.LBE3700:
 4724              	.LBE3699:
 4725              	.LBE3698:
 4726              		.loc 4 148 0
 4727 09bc 93C10008 		stw 30,8(1)
 4728              	.LVL323:
 4729              	.LBB3756:
 4730              	.LBB3751:
 4731              	.LBB3741:
 4732              	.LBB3737:
 4733              	.LBB3702:
 4734              	.LBB3703:
 4735              		.loc 6 571 0
 4736 09c0 7C095850 		subf 0,9,11
 4737              	.LBE3703:
 4738              	.LBE3702:
 4739              		.loc 5 69 0
 4740 09c4 540AF0BF 		srwi. 10,0,2
 4741 09c8 7D204B78 		mr 0,9
 4742 09cc 40A2000C 		bne+ 0,.L322
 4743 09d0 4800002C 		b .L296
 4744              	.LVL324:
 4745              	.L315:
 4746              		.loc 4 454 0
 4747 09d4 7C090378 		mr 9,0
 4748              	.LVL325:
 4749              	.L322:
 4750              	.LBE3737:
 4751              	.LBE3741:
 4752              	.LBE3751:
 4753              	.LBE3756:
 4754              	.LBB3757:
 4755              	.LBB3693:
 4756              		.loc 4 146 0
 4757 09d8 577A103A 		slwi 26,27,2
 4758              	.LBE3693:
 4759              	.LBE3757:
 4760              	.LBB3758:
 4761              	.LBB3752:
 4762              	.LBB3742:
 4763              	.LBB3738:
 4764              		.loc 5 70 0
 4765 09dc 7D29D02E 		lwzx 9,9,26
 4766 09e0 7F9E4800 		cmpw 7,30,9
 4767 09e4 419E0130 		beq- 7,.L326
 4768              	.L298:
 4769              	.LBB3706:
 4770              	.LBB3704:
 4771              		.loc 6 571 0
 4772 09e8 7D205850 		subf 9,0,11
 4773              	.LBE3704:
 4774              	.LBE3706:
 4775              		.loc 5 69 0
 4776 09ec 3B7B0001 		addi 27,27,1
 4777              	.LVL326:
 4778              	.LBB3707:
 4779              	.LBB3705:
 4780              		.loc 6 571 0
 4781 09f0 7D291670 		srawi 9,9,2
 4782              	.LBE3705:
 4783              	.LBE3707:
 4784              		.loc 5 69 0
 4785 09f4 7F9B4840 		cmplw 7,27,9
 4786 09f8 419CFFDC 		blt+ 7,.L315
 4787              	.LVL327:
 4788              	.L296:
 4789              	.LBE3738:
 4790              	.LBE3742:
 4791              		.loc 5 62 0
 4792 09fc 807F0274 		lwz 3,628(31)
 4793              	.LEHB37:
 4794 0a00 48000001 		bl LWP_MutexLock
 4795              	.LVL328:
 4796              	.LBB3743:
 4797              	.LBB3744:
 4798              		.loc 6 828 0
 4799 0a04 813F0260 		lwz 9,608(31)
 4800 0a08 801F0264 		lwz 0,612(31)
 4801 0a0c 7F890000 		cmpw 7,9,0
 4802 0a10 419E01F4 		beq- 7,.L300
 4803              	.LVL329:
 4804              	.LBB3745:
 4805              	.LBB3746:
 4806              		.loc 13 108 0
 4807 0a14 2F890000 		cmpwi 7,9,0
 4808 0a18 39600000 		li 11,0
 4809 0a1c 419E0010 		beq- 7,.L301
 4810 0a20 80010008 		lwz 0,8(1)
 4811 0a24 90090000 		stw 0,0(9)
 4812 0a28 817F0260 		lwz 11,608(31)
 4813              	.L301:
 4814              	.LBE3746:
 4815              	.LBE3745:
 4816              		.loc 6 831 0
 4817 0a2c 396B0004 		addi 11,11,4
 4818 0a30 917F0260 		stw 11,608(31)
 4819              	.LVL330:
 4820              	.L302:
 4821              	.LBE3744:
 4822              	.LBE3743:
 4823              		.loc 5 64 0
 4824 0a34 807F0274 		lwz 3,628(31)
 4825 0a38 48000001 		bl LWP_MutexUnlock
 4826              	.LBE3752:
 4827              	.LBE3758:
 4828              	.LBB3759:
 4829              	.LBB3760:
 4830              		.loc 5 27 0
 4831 0a3c 83FD0000 		lwz 31,_ZN11Application8instanceE@l(29)
 4832              	.LVL331:
 4833 0a40 2F9F0000 		cmpwi 7,31,0
 4834 0a44 419E01A8 		beq- 7,.L327
 4835              	.L303:
 4836              	.LVL332:
 4837              	.LBE3760:
 4838              	.LBE3759:
 4839              	.LBB3763:
 4840              	.LBB3764:
 4841              		.loc 5 51 0
 4842 0a48 807F0274 		lwz 3,628(31)
 4843 0a4c 48000001 		bl LWP_MutexLock
 4844              		.loc 5 52 0
 4845 0a50 7FE3FB78 		mr 3,31
 4846 0a54 7FC4F378 		mr 4,30
 4847 0a58 48000001 		bl _ZN8GuiFrame6AppendEP10GuiElement
 4848              		.loc 5 53 0
 4849 0a5c 807F0274 		lwz 3,628(31)
 4850 0a60 48000001 		bl LWP_MutexUnlock
 4851 0a64 48000018 		b .L304
 4852              	.L306:
 4853              	.LBE3764:
 4854              	.LBE3763:
 4855              		.loc 4 151 0
 4856 0a68 813F0000 		lwz 9,0(31)
 4857 0a6c 7FE3FB78 		mr 3,31
 4858 0a70 800900D8 		lwz 0,216(9)
 4859 0a74 7C0903A6 		mtctr 0
 4860 0a78 4E800421 		bctrl
 4861              	.L304:
 4862              		.loc 4 150 0 discriminator 1
 4863 0a7c 807E00E8 		lwz 3,232(30)
 4864 0a80 81230000 		lwz 9,0(3)
 4865 0a84 8009009C 		lwz 0,156(9)
 4866 0a88 7C0903A6 		mtctr 0
 4867 0a8c 4E800421 		bctrl
 4868 0a90 2F830000 		cmpwi 7,3,0
 4869 0a94 419E0028 		beq- 7,.L328
 4870              	.LBB3765:
 4871              	.LBB3766:
 4872              		.loc 5 27 0
 4873 0a98 83FD0000 		lwz 31,_ZN11Application8instanceE@l(29)
 4874 0a9c 2F9F0000 		cmpwi 7,31,0
 4875 0aa0 409EFFC8 		bne+ 7,.L306
 4876 0aa4 38600278 		li 3,632
 4877 0aa8 48000001 		bl _Znwj
 4878              	.LEHE37:
 4879 0aac 7C7F1B78 		mr 31,3
 4880              	.LEHB38:
 4881 0ab0 48000001 		bl _ZN11ApplicationC1Ev
 4882              	.LEHE38:
 4883 0ab4 93FD0000 		stw 31,_ZN11Application8instanceE@l(29)
 4884 0ab8 4BFFFFB0 		b .L306
 4885              	.L328:
 4886              	.LBE3766:
 4887              	.LBE3765:
 4888              		.loc 4 153 0
 4889 0abc 2F9C0003 		cmpwi 7,28,3
 4890 0ac0 419E0100 		beq- 7,.L329
 4891              		.loc 4 158 0
 4892 0ac4 2F9C0000 		cmpwi 7,28,0
 4893 0ac8 409E0094 		bne- 7,.L311
 4894              		.loc 4 160 0
 4895 0acc 386000D4 		li 3,212
 4896              	.LEHB39:
 4897 0ad0 48000001 		bl _Znwj
 4898              	.LEHE39:
 4899 0ad4 7C7F1B78 		mr 31,3
 4900              	.LEHB40:
 4901 0ad8 48000001 		bl _ZN15GuiSettingsMenuC1Ev
 4902              	.LEHE40:
 4903              	.L323:
 4904              		.loc 4 160 0 is_stmt 0 discriminator 1
 4905 0adc 93FE00D0 		stw 31,208(30)
 4906              		.loc 4 161 0 is_stmt 1 discriminator 1
 4907 0ae0 7FC3F378 		mr 3,30
 4908 0ae4 7FE4FB78 		mr 4,31
 4909              	.LEHB41:
 4910 0ae8 48000001 		bl _ZN8GuiFrame6AppendEP10GuiElement
 4911              		.loc 4 165 0 discriminator 1
 4912 0aec 8001003C 		lwz 0,60(1)
 4913 0af0 83410020 		lwz 26,32(1)
 4914 0af4 7C0803A6 		mtlr 0
 4915 0af8 83610024 		lwz 27,36(1)
 4916 0afc 83810028 		lwz 28,40(1)
 4917 0b00 83A1002C 		lwz 29,44(1)
 4918 0b04 83C10030 		lwz 30,48(1)
 4919              	.LVL333:
 4920 0b08 83E10034 		lwz 31,52(1)
 4921 0b0c 38210038 		addi 1,1,56
 4922              		.cfi_remember_state
 4923              		.cfi_restore 26
 4924              		.cfi_restore 27
 4925              		.cfi_restore 28
 4926              		.cfi_restore 29
 4927              		.cfi_restore 30
 4928              		.cfi_restore 31
 4929              	.LCFI80:
 4930              		.cfi_def_cfa_offset 0
 4931 0b10 4E800020 		blr
 4932              	.LVL334:
 4933              	.L326:
 4934              	.LCFI81:
 4935              		.cfi_restore_state
 4936              	.LBB3767:
 4937              	.LBB3753:
 4938              	.LBB3748:
 4939              	.LBB3739:
 4940              		.loc 5 71 0
 4941 0b14 807F0274 		lwz 3,628(31)
 4942 0b18 48000001 		bl LWP_MutexLock
 4943              	.LVL335:
 4944              	.LBB3708:
 4945              	.LBB3709:
 4946              		.loc 8 773 0
 4947 0b1c 807F025C 		lwz 3,604(31)
 4948              	.LBE3709:
 4949              	.LBE3708:
 4950              	.LBB3711:
 4951              	.LBB3712:
 4952              	.LBB3713:
 4953              		.loc 4 454 0
 4954 0b20 813F0260 		lwz 9,608(31)
 4955              	.LBE3713:
 4956              	.LBE3712:
 4957              	.LBE3711:
 4958              	.LBB3732:
 4959              	.LBB3710:
 4960              		.loc 8 773 0
 4961 0b24 7C63D214 		add 3,3,26
 4962              	.LVL336:
 4963              	.LBE3710:
 4964              	.LBE3732:
 4965              	.LBB3733:
 4966              	.LBB3728:
 4967              	.LBB3714:
 4968              	.LBB3715:
 4969 0b28 38830004 		addi 4,3,4
 4970              	.LVL337:
 4971              	.LBE3715:
 4972              	.LBE3714:
 4973              		.loc 9 138 0
 4974 0b2c 7F844800 		cmpw 7,4,9
 4975 0b30 419E0010 		beq- 7,.L299
 4976              	.LVL338:
 4977              	.LBB3716:
 4978              	.LBB3717:
 4979              	.LBB3718:
 4980              	.LBB3719:
 4981              	.LBB3720:
 4982              	.LBB3721:
 4983              		.loc 10 364 0
 4984 0b34 7CA44850 		subf 5,4,9
 4985              	.LVL339:
 4986              		.loc 10 365 0
 4987 0b38 7CA51671 		srawi. 5,5,2
 4988              	.LVL340:
 4989 0b3c 4082005C 		bne- 0,.L330
 4990              	.LVL341:
 4991              	.L299:
 4992              	.LBE3721:
 4993              	.LBE3720:
 4994              	.LBE3719:
 4995              	.LBE3718:
 4996              	.LBE3717:
 4997              	.LBE3716:
 4998              		.loc 9 140 0
 4999 0b40 3929FFFC 		addi 9,9,-4
 5000              	.LBE3728:
 5001              	.LBE3733:
 5002              		.loc 5 73 0
 5003 0b44 807F0274 		lwz 3,628(31)
 5004              	.LVL342:
 5005              	.LBB3734:
 5006              	.LBB3729:
 5007              		.loc 9 140 0
 5008 0b48 913F0260 		stw 9,608(31)
 5009              	.LBE3729:
 5010              	.LBE3734:
 5011              		.loc 5 73 0
 5012 0b4c 48000001 		bl LWP_MutexUnlock
 5013              	.LVL343:
 5014 0b50 801F025C 		lwz 0,604(31)
 5015 0b54 817F0260 		lwz 11,608(31)
 5016 0b58 4BFFFE90 		b .L298
 5017              	.LVL344:
 5018              	.L311:
 5019              	.LBE3739:
 5020              	.LBE3748:
 5021              	.LBE3753:
 5022              	.LBE3767:
 5023              		.loc 4 164 0
 5024 0b5c 807E00CC 		lwz 3,204(30)
 5025 0b60 81230000 		lwz 9,0(3)
 5026 0b64 800900CC 		lwz 0,204(9)
 5027 0b68 7C0903A6 		mtctr 0
 5028 0b6c 4E800421 		bctrl
 5029              		.loc 4 165 0
 5030 0b70 8001003C 		lwz 0,60(1)
 5031 0b74 83410020 		lwz 26,32(1)
 5032 0b78 7C0803A6 		mtlr 0
 5033 0b7c 83610024 		lwz 27,36(1)
 5034 0b80 83810028 		lwz 28,40(1)
 5035 0b84 83A1002C 		lwz 29,44(1)
 5036 0b88 83C10030 		lwz 30,48(1)
 5037              	.LVL345:
 5038 0b8c 83E10034 		lwz 31,52(1)
 5039 0b90 38210038 		addi 1,1,56
 5040              		.cfi_remember_state
 5041              	.LCFI82:
 5042              		.cfi_def_cfa_offset 0
 5043              		.cfi_restore 31
 5044              		.cfi_restore 30
 5045              		.cfi_restore 29
 5046              		.cfi_restore 28
 5047              		.cfi_restore 27
 5048              		.cfi_restore 26
 5049 0b94 4E800020 		blr
 5050              	.LVL346:
 5051              	.L330:
 5052              	.LCFI83:
 5053              		.cfi_restore_state
 5054              	.LBB3768:
 5055              	.LBB3754:
 5056              	.LBB3749:
 5057              	.LBB3740:
 5058              	.LBB3735:
 5059              	.LBB3730:
 5060              	.LBB3727:
 5061              	.LBB3726:
 5062              	.LBB3725:
 5063              	.LBB3724:
 5064              	.LBB3723:
 5065              	.LBB3722:
 5066              		.loc 10 366 0
 5067 0b98 54A5103A 		slwi 5,5,2
 5068              	.LVL347:
 5069 0b9c 48000001 		bl memmove
 5070              	.LVL348:
 5071 0ba0 813F0260 		lwz 9,608(31)
 5072              	.LBE3722:
 5073              	.LBE3723:
 5074              	.LBE3724:
 5075              	.LBE3725:
 5076              	.LBE3726:
 5077              	.LBE3727:
 5078              	.LBE3730:
 5079              	.LBE3735:
 5080              		.loc 5 73 0
 5081 0ba4 807F0274 		lwz 3,628(31)
 5082              	.LBB3736:
 5083              	.LBB3731:
 5084              		.loc 9 140 0
 5085 0ba8 3929FFFC 		addi 9,9,-4
 5086 0bac 913F0260 		stw 9,608(31)
 5087              	.LBE3731:
 5088              	.LBE3736:
 5089              		.loc 5 73 0
 5090 0bb0 48000001 		bl LWP_MutexUnlock
 5091 0bb4 801F025C 		lwz 0,604(31)
 5092 0bb8 817F0260 		lwz 11,608(31)
 5093 0bbc 4BFFFE2C 		b .L298
 5094              	.LVL349:
 5095              	.L329:
 5096              	.LBE3740:
 5097              	.LBE3749:
 5098              	.LBE3754:
 5099              	.LBE3768:
 5100              		.loc 4 155 0
 5101 0bc0 386000D4 		li 3,212
 5102 0bc4 48000001 		bl _Znwj
 5103              	.LEHE41:
 5104 0bc8 7C7F1B78 		mr 31,3
 5105              	.LEHB42:
 5106 0bcc 48000001 		bl _ZN17ThemeSettingsMenuC1Ev
 5107              	.LEHE42:
 5108 0bd0 4BFFFF0C 		b .L323
 5109              	.LVL350:
 5110              	.L325:
 5111              	.LBB3769:
 5112              	.LBB3694:
 5113              		.loc 5 27 0
 5114 0bd4 38600278 		li 3,632
 5115              	.LEHB43:
 5116 0bd8 48000001 		bl _Znwj
 5117              	.LEHE43:
 5118              	.LVL351:
 5119 0bdc 7C7F1B78 		mr 31,3
 5120              	.LEHB44:
 5121 0be0 48000001 		bl _ZN11ApplicationC1Ev
 5122              	.LEHE44:
 5123 0be4 93FD0000 		stw 31,_ZN11Application8instanceE@l(29)
 5124 0be8 4BFFFDC8 		b .L294
 5125              	.LVL352:
 5126              	.L327:
 5127              	.LBE3694:
 5128              	.LBE3769:
 5129              	.LBB3770:
 5130              	.LBB3761:
 5131 0bec 38600278 		li 3,632
 5132              	.LEHB45:
 5133 0bf0 48000001 		bl _Znwj
 5134              	.LEHE45:
 5135 0bf4 7C7F1B78 		mr 31,3
 5136              	.LEHB46:
 5137 0bf8 48000001 		bl _ZN11ApplicationC1Ev
 5138              	.LEHE46:
 5139 0bfc 93FD0000 		stw 31,_ZN11Application8instanceE@l(29)
 5140 0c00 4BFFFE48 		b .L303
 5141              	.LVL353:
 5142              	.L300:
 5143              	.LBE3761:
 5144              	.LBE3770:
 5145              	.LBB3771:
 5146              	.LBB3755:
 5147              	.LBB3750:
 5148              	.LBB3747:
 5149              		.loc 6 834 0
 5150 0c04 7C240B78 		mr 4,1
 5151 0c08 387F025C 		addi 3,31,604
 5152 0c0c 95240018 		stwu 9,24(4)
 5153 0c10 38A10008 		addi 5,1,8
 5154              	.LEHB47:
 5155 0c14 48000001 		bl _ZNSt6vectorIP10GuiElementSaIS1_EE13_M_insert_auxEN9__gnu_cxx17__normal_iteratorIPS1_S3_EERKS1_
 5156 0c18 4BFFFE1C 		b .L302
 5157              	.LVL354:
 5158              	.L317:
 5159              	.L324:
 5160 0c1c 7C7E1B78 		mr 30,3
 5161              	.LVL355:
 5162              	.LBE3747:
 5163              	.LBE3750:
 5164              	.LBE3755:
 5165              	.LBE3771:
 5166              	.LBB3772:
 5167              	.LBB3762:
 5168              		.loc 5 27 0
 5169 0c20 7FE3FB78 		mr 3,31
 5170 0c24 48000001 		bl _ZdlPv
 5171 0c28 7FC3F378 		mr 3,30
 5172 0c2c 48000001 		bl _Unwind_Resume
 5173              	.LEHE47:
 5174              	.LVL356:
 5175              	.L321:
 5176 0c30 4BFFFFEC 		b .L324
 5177              	.L318:
 5178 0c34 4BFFFFE8 		b .L324
 5179              	.LVL357:
 5180              	.L320:
 5181 0c38 4BFFFFE4 		b .L324
 5182              	.LVL358:
 5183              	.L319:
 5184 0c3c 4BFFFFE0 		b .L324
 5185              	.LBE3762:
 5186              	.LBE3772:
 5187              		.cfi_endproc
 5188              	.LFE1671:
 5189              		.section	.gcc_except_table
 5190              	.LLSDA1671:
 5191 00d9 FF       		.byte	0xff
 5192 00da FF       		.byte	0xff
 5193 00db 01       		.byte	0x1
 5194 00dc 3E       		.uleb128 .LLSDACSE1671-.LLSDACSB1671
 5195              	.LLSDACSB1671:
 5196 00dd 8C01     		.uleb128 .LEHB37-.LFB1671
 5197 00df AC01     		.uleb128 .LEHE37-.LEHB37
 5198 00e1 00       		.uleb128 0
 5199 00e2 00       		.uleb128 0
 5200 00e3 BC02     		.uleb128 .LEHB38-.LFB1671
 5201 00e5 04       		.uleb128 .LEHE38-.LEHB38
 5202 00e6 BC05     		.uleb128 .L321-.LFB1671
 5203 00e8 00       		.uleb128 0
 5204 00e9 DC02     		.uleb128 .LEHB39-.LFB1671
 5205 00eb 04       		.uleb128 .LEHE39-.LEHB39
 5206 00ec 00       		.uleb128 0
 5207 00ed 00       		.uleb128 0
 5208 00ee E402     		.uleb128 .LEHB40-.LFB1671
 5209 00f0 04       		.uleb128 .LEHE40-.LEHB40
 5210 00f1 C005     		.uleb128 .L318-.LFB1671
 5211 00f3 00       		.uleb128 0
 5212 00f4 F402     		.uleb128 .LEHB41-.LFB1671
 5213 00f6 E001     		.uleb128 .LEHE41-.LEHB41
 5214 00f8 00       		.uleb128 0
 5215 00f9 00       		.uleb128 0
 5216 00fa D804     		.uleb128 .LEHB42-.LFB1671
 5217 00fc 04       		.uleb128 .LEHE42-.LEHB42
 5218 00fd A805     		.uleb128 .L317-.LFB1671
 5219 00ff 00       		.uleb128 0
 5220 0100 E404     		.uleb128 .LEHB43-.LFB1671
 5221 0102 04       		.uleb128 .LEHE43-.LEHB43
 5222 0103 00       		.uleb128 0
 5223 0104 00       		.uleb128 0
 5224 0105 EC04     		.uleb128 .LEHB44-.LFB1671
 5225 0107 04       		.uleb128 .LEHE44-.LEHB44
 5226 0108 C805     		.uleb128 .L319-.LFB1671
 5227 010a 00       		.uleb128 0
 5228 010b FC04     		.uleb128 .LEHB45-.LFB1671
 5229 010d 04       		.uleb128 .LEHE45-.LEHB45
 5230 010e 00       		.uleb128 0
 5231 010f 00       		.uleb128 0
 5232 0110 8405     		.uleb128 .LEHB46-.LFB1671
 5233 0112 04       		.uleb128 .LEHE46-.LEHB46
 5234 0113 C405     		.uleb128 .L320-.LFB1671
 5235 0115 00       		.uleb128 0
 5236 0116 A005     		.uleb128 .LEHB47-.LFB1671
 5237 0118 1C       		.uleb128 .LEHE47-.LEHB47
 5238 0119 00       		.uleb128 0
 5239 011a 00       		.uleb128 0
 5240              	.LLSDACSE1671:
 5241              		.section	".text"
 5242              		.size	_ZN12SettingsMenu4showEs, .-_ZN12SettingsMenu4showEs
 5243              		.section	.text._ZNSt8_Rb_treeIPN7sigslot12_signal_baseINS0_15single_threadedEEES4_St9_IdentityIS4_
 5244              		.align 2
 5245              		.weak	_ZNSt8_Rb_treeIPN7sigslot12_signal_baseINS0_15single_threadedEEES4_St9_IdentityIS4_ESt4lessI
 5246              		.type	_ZNSt8_Rb_treeIPN7sigslot12_signal_baseINS0_15single_threadedEEES4_St9_IdentityIS4_ESt4lessI
 5247              	_ZNSt8_Rb_treeIPN7sigslot12_signal_baseINS0_15single_threadedEEES4_St9_IdentityIS4_ESt4lessIS4_ESaI
 5248              	.LFB1970:
 5249              		.file 14 "d:\\devkitpro\\devkitppc\\bin\\../lib/gcc/powerpc-eabi/4.6.3/../../../../powerpc-eabi/in
 5250              		.loc 14 1068 0
 5251              		.cfi_startproc
 5252              	.LVL359:
 5253 0000 9421FFC8 		stwu 1,-56(1)
 5254              	.LCFI84:
 5255              		.cfi_def_cfa_offset 56
 5256 0004 7C0802A6 		mflr 0
 5257 0008 92C10010 		stw 22,16(1)
 5258              	.LBB3889:
 5259              		.loc 14 1072 0
 5260 000c 7C962379 		mr. 22,4
 5261              		.cfi_offset 22, -40
 5262              		.cfi_register 65, 0
 5263              	.LBE3889:
 5264              		.loc 14 1068 0
 5265 0010 93C10030 		stw 30,48(1)
 5266 0014 7C7E1B78 		mr 30,3
 5267              		.cfi_offset 30, -8
 5268 0018 9001003C 		stw 0,60(1)
 5269 001c 92A1000C 		stw 21,12(1)
 5270 0020 92E10014 		stw 23,20(1)
 5271 0024 93010018 		stw 24,24(1)
 5272 0028 9321001C 		stw 25,28(1)
 5273 002c 93410020 		stw 26,32(1)
 5274 0030 93610024 		stw 27,36(1)
 5275 0034 93810028 		stw 28,40(1)
 5276 0038 93A1002C 		stw 29,44(1)
 5277 003c 93E10034 		stw 31,52(1)
 5278              	.LBB3974:
 5279              		.loc 14 1072 0
 5280 0040 41820168 		beq- 0,.L331
 5281              		.cfi_offset 31, -4
 5282              		.cfi_offset 29, -12
 5283              		.cfi_offset 28, -16
 5284              		.cfi_offset 27, -20
 5285              		.cfi_offset 26, -24
 5286              		.cfi_offset 25, -28
 5287              		.cfi_offset 24, -32
 5288              		.cfi_offset 23, -36
 5289              		.cfi_offset 21, -44
 5290              		.cfi_offset 65, 4
 5291              	.LVL360:
 5292              	.L377:
 5293              		.loc 4 454 0
 5294 0044 8376000C 		lwz 27,12(22)
 5295              	.LVL361:
 5296              	.LBB3890:
 5297              	.LBB3891:
 5298              	.LBB3892:
 5299              		.loc 14 1072 0
 5300 0048 2F9B0000 		cmpwi 7,27,0
 5301 004c 419E0140 		beq- 7,.L333
 5302              	.LVL362:
 5303              	.L378:
 5304              	.LBE3892:
 5305              		.loc 4 454 0
 5306 0050 835B000C 		lwz 26,12(27)
 5307              	.LVL363:
 5308              	.LBB3968:
 5309              	.LBB3893:
 5310              	.LBB3894:
 5311              	.LBB3895:
 5312              		.loc 14 1072 0
 5313 0054 2F9A0000 		cmpwi 7,26,0
 5314 0058 419E0118 		beq- 7,.L334
 5315              	.LVL364:
 5316              	.L379:
 5317              	.LBE3895:
 5318              		.loc 4 454 0
 5319 005c 833A000C 		lwz 25,12(26)
 5320              	.LVL365:
 5321              	.LBB3961:
 5322              	.LBB3896:
 5323              	.LBB3897:
 5324              	.LBB3898:
 5325              		.loc 14 1072 0
 5326 0060 2F990000 		cmpwi 7,25,0
 5327 0064 419E00F0 		beq- 7,.L335
 5328              	.LVL366:
 5329              	.L380:
 5330              	.LBE3898:
 5331              		.loc 4 454 0
 5332 0068 8319000C 		lwz 24,12(25)
 5333              	.LVL367:
 5334              	.LBB3954:
 5335              	.LBB3899:
 5336              	.LBB3900:
 5337              	.LBB3901:
 5338              		.loc 14 1072 0
 5339 006c 2F980000 		cmpwi 7,24,0
 5340 0070 419E00C8 		beq- 7,.L336
 5341              	.LVL368:
 5342              	.L381:
 5343              	.LBE3901:
 5344              		.loc 4 454 0
 5345 0074 82F8000C 		lwz 23,12(24)
 5346              	.LVL369:
 5347              	.LBB3947:
 5348              	.LBB3902:
 5349              	.LBB3903:
 5350              	.LBB3904:
 5351              		.loc 14 1072 0
 5352 0078 2F970000 		cmpwi 7,23,0
 5353 007c 419E00A0 		beq- 7,.L337
 5354              	.LVL370:
 5355              	.L382:
 5356              	.LBE3904:
 5357              		.loc 4 454 0
 5358 0080 8397000C 		lwz 28,12(23)
 5359              	.LVL371:
 5360              	.LBB3940:
 5361              	.LBB3905:
 5362              	.LBB3906:
 5363              	.LBB3907:
 5364              		.loc 14 1072 0
 5365 0084 2F9C0000 		cmpwi 7,28,0
 5366 0088 419E0078 		beq- 7,.L338
 5367              	.LVL372:
 5368              	.L383:
 5369              	.LBE3907:
 5370              		.loc 4 454 0
 5371 008c 83BC000C 		lwz 29,12(28)
 5372              	.LVL373:
 5373              	.LBB3933:
 5374              	.LBB3908:
 5375              	.LBB3909:
 5376              	.LBB3910:
 5377              		.loc 14 1072 0
 5378 0090 2F9D0000 		cmpwi 7,29,0
 5379 0094 419E0050 		beq- 7,.L339
 5380              	.LVL374:
 5381              	.L384:
 5382              	.LBE3910:
 5383              		.loc 4 454 0
 5384 0098 83FD000C 		lwz 31,12(29)
 5385              	.LVL375:
 5386              	.LBB3926:
 5387              	.LBB3911:
 5388              	.LBB3912:
 5389              	.LBB3913:
 5390              		.loc 14 1072 0
 5391 009c 2F9F0000 		cmpwi 7,31,0
 5392 00a0 419E0028 		beq- 7,.L340
 5393              	.LVL376:
 5394              	.L385:
 5395              	.LBB3914:
 5396              		.loc 14 1074 0
 5397 00a4 809F000C 		lwz 4,12(31)
 5398 00a8 7FC3F378 		mr 3,30
 5399 00ac 48000001 		bl _ZNSt8_Rb_treeIPN7sigslot12_signal_baseINS0_15single_threadedEEES4_St9_IdentityIS4_ESt4lessIS4_
 5400              	.LBE3914:
 5401              	.LBE3913:
 5402              		.loc 4 454 0
 5403 00b0 82BF0008 		lwz 21,8(31)
 5404              	.LVL377:
 5405              	.LBB3920:
 5406              	.LBB3919:
 5407              	.LBB3915:
 5408              	.LBB3916:
 5409              	.LBB3917:
 5410              	.LBB3918:
 5411              		.loc 13 98 0
 5412 00b4 7FE3FB78 		mr 3,31
 5413 00b8 48000001 		bl _ZdlPv
 5414              	.LVL378:
 5415              	.LBE3918:
 5416              	.LBE3917:
 5417              	.LBE3916:
 5418              	.LBE3915:
 5419              	.LBE3919:
 5420              		.loc 14 1072 0
 5421 00bc 2F950000 		cmpwi 7,21,0
 5422              		.loc 14 1077 0
 5423 00c0 7EBFAB78 		mr 31,21
 5424              	.LVL379:
 5425              		.loc 14 1072 0
 5426 00c4 409EFFE0 		bne+ 7,.L385
 5427              	.LVL380:
 5428              	.L340:
 5429              	.LBE3920:
 5430              	.LBE3912:
 5431              	.LBE3911:
 5432              	.LBE3926:
 5433              		.loc 4 454 0
 5434 00c8 83FD0008 		lwz 31,8(29)
 5435              	.LVL381:
 5436              	.LBB3927:
 5437              	.LBB3925:
 5438              	.LBB3921:
 5439              	.LBB3922:
 5440              	.LBB3923:
 5441              	.LBB3924:
 5442              		.loc 13 98 0
 5443 00cc 7FA3EB78 		mr 3,29
 5444 00d0 48000001 		bl _ZdlPv
 5445              	.LVL382:
 5446              	.LBE3924:
 5447              	.LBE3923:
 5448              	.LBE3922:
 5449              	.LBE3921:
 5450              	.LBE3925:
 5451              		.loc 14 1072 0
 5452 00d4 2F9F0000 		cmpwi 7,31,0
 5453 00d8 419E000C 		beq- 7,.L339
 5454              		.loc 14 1077 0
 5455 00dc 7FFDFB78 		mr 29,31
 5456              	.LVL383:
 5457 00e0 4BFFFFB8 		b .L384
 5458              	.LVL384:
 5459              	.L339:
 5460              	.LBE3927:
 5461              	.LBE3909:
 5462              	.LBE3908:
 5463              	.LBE3933:
 5464              		.loc 4 454 0
 5465 00e4 83FC0008 		lwz 31,8(28)
 5466              	.LVL385:
 5467              	.LBB3934:
 5468              	.LBB3932:
 5469              	.LBB3928:
 5470              	.LBB3929:
 5471              	.LBB3930:
 5472              	.LBB3931:
 5473              		.loc 13 98 0
 5474 00e8 7F83E378 		mr 3,28
 5475 00ec 48000001 		bl _ZdlPv
 5476              	.LVL386:
 5477              	.LBE3931:
 5478              	.LBE3930:
 5479              	.LBE3929:
 5480              	.LBE3928:
 5481              	.LBE3932:
 5482              		.loc 14 1072 0
 5483 00f0 2F9F0000 		cmpwi 7,31,0
 5484 00f4 419E000C 		beq- 7,.L338
 5485              		.loc 14 1077 0
 5486 00f8 7FFCFB78 		mr 28,31
 5487              	.LVL387:
 5488 00fc 4BFFFF90 		b .L383
 5489              	.LVL388:
 5490              	.L338:
 5491              	.LBE3934:
 5492              	.LBE3906:
 5493              	.LBE3905:
 5494              	.LBE3940:
 5495              		.loc 4 454 0
 5496 0100 83F70008 		lwz 31,8(23)
 5497              	.LVL389:
 5498              	.LBB3941:
 5499              	.LBB3939:
 5500              	.LBB3935:
 5501              	.LBB3936:
 5502              	.LBB3937:
 5503              	.LBB3938:
 5504              		.loc 13 98 0
 5505 0104 7EE3BB78 		mr 3,23
 5506 0108 48000001 		bl _ZdlPv
 5507              	.LVL390:
 5508              	.LBE3938:
 5509              	.LBE3937:
 5510              	.LBE3936:
 5511              	.LBE3935:
 5512              	.LBE3939:
 5513              		.loc 14 1072 0
 5514 010c 2F9F0000 		cmpwi 7,31,0
 5515 0110 419E000C 		beq- 7,.L337
 5516              		.loc 14 1077 0
 5517 0114 7FF7FB78 		mr 23,31
 5518              	.LVL391:
 5519 0118 4BFFFF68 		b .L382
 5520              	.LVL392:
 5521              	.L337:
 5522              	.LBE3941:
 5523              	.LBE3903:
 5524              	.LBE3902:
 5525              	.LBE3947:
 5526              		.loc 4 454 0
 5527 011c 83F80008 		lwz 31,8(24)
 5528              	.LVL393:
 5529              	.LBB3948:
 5530              	.LBB3946:
 5531              	.LBB3942:
 5532              	.LBB3943:
 5533              	.LBB3944:
 5534              	.LBB3945:
 5535              		.loc 13 98 0
 5536 0120 7F03C378 		mr 3,24
 5537 0124 48000001 		bl _ZdlPv
 5538              	.LVL394:
 5539              	.LBE3945:
 5540              	.LBE3944:
 5541              	.LBE3943:
 5542              	.LBE3942:
 5543              	.LBE3946:
 5544              		.loc 14 1072 0
 5545 0128 2F9F0000 		cmpwi 7,31,0
 5546 012c 419E000C 		beq- 7,.L336
 5547              		.loc 14 1077 0
 5548 0130 7FF8FB78 		mr 24,31
 5549              	.LVL395:
 5550 0134 4BFFFF40 		b .L381
 5551              	.LVL396:
 5552              	.L336:
 5553              	.LBE3948:
 5554              	.LBE3900:
 5555              	.LBE3899:
 5556              	.LBE3954:
 5557              		.loc 4 454 0
 5558 0138 83F90008 		lwz 31,8(25)
 5559              	.LVL397:
 5560              	.LBB3955:
 5561              	.LBB3953:
 5562              	.LBB3949:
 5563              	.LBB3950:
 5564              	.LBB3951:
 5565              	.LBB3952:
 5566              		.loc 13 98 0
 5567 013c 7F23CB78 		mr 3,25
 5568 0140 48000001 		bl _ZdlPv
 5569              	.LVL398:
 5570              	.LBE3952:
 5571              	.LBE3951:
 5572              	.LBE3950:
 5573              	.LBE3949:
 5574              	.LBE3953:
 5575              		.loc 14 1072 0
 5576 0144 2F9F0000 		cmpwi 7,31,0
 5577 0148 419E000C 		beq- 7,.L335
 5578              		.loc 14 1077 0
 5579 014c 7FF9FB78 		mr 25,31
 5580              	.LVL399:
 5581 0150 4BFFFF18 		b .L380
 5582              	.LVL400:
 5583              	.L335:
 5584              	.LBE3955:
 5585              	.LBE3897:
 5586              	.LBE3896:
 5587              	.LBE3961:
 5588              		.loc 4 454 0
 5589 0154 83FA0008 		lwz 31,8(26)
 5590              	.LVL401:
 5591              	.LBB3962:
 5592              	.LBB3960:
 5593              	.LBB3956:
 5594              	.LBB3957:
 5595              	.LBB3958:
 5596              	.LBB3959:
 5597              		.loc 13 98 0
 5598 0158 7F43D378 		mr 3,26
 5599 015c 48000001 		bl _ZdlPv
 5600              	.LVL402:
 5601              	.LBE3959:
 5602              	.LBE3958:
 5603              	.LBE3957:
 5604              	.LBE3956:
 5605              	.LBE3960:
 5606              		.loc 14 1072 0
 5607 0160 2F9F0000 		cmpwi 7,31,0
 5608 0164 419E000C 		beq- 7,.L334
 5609              		.loc 14 1077 0
 5610 0168 7FFAFB78 		mr 26,31
 5611              	.LVL403:
 5612 016c 4BFFFEF0 		b .L379
 5613              	.LVL404:
 5614              	.L334:
 5615              	.LBE3962:
 5616              	.LBE3894:
 5617              	.LBE3893:
 5618              	.LBE3968:
 5619              		.loc 4 454 0
 5620 0170 83FB0008 		lwz 31,8(27)
 5621              	.LVL405:
 5622              	.LBB3969:
 5623              	.LBB3967:
 5624              	.LBB3963:
 5625              	.LBB3964:
 5626              	.LBB3965:
 5627              	.LBB3966:
 5628              		.loc 13 98 0
 5629 0174 7F63DB78 		mr 3,27
 5630 0178 48000001 		bl _ZdlPv
 5631              	.LVL406:
 5632              	.LBE3966:
 5633              	.LBE3965:
 5634              	.LBE3964:
 5635              	.LBE3963:
 5636              	.LBE3967:
 5637              		.loc 14 1072 0
 5638 017c 2F9F0000 		cmpwi 7,31,0
 5639 0180 419E000C 		beq- 7,.L333
 5640              		.loc 14 1077 0
 5641 0184 7FFBFB78 		mr 27,31
 5642              	.LVL407:
 5643 0188 4BFFFEC8 		b .L378
 5644              	.LVL408:
 5645              	.L333:
 5646              		.loc 4 454 0
 5647 018c 83F60008 		lwz 31,8(22)
 5648              	.LVL409:
 5649              	.LBE3969:
 5650              	.LBE3891:
 5651              	.LBB3970:
 5652              	.LBB3971:
 5653              	.LBB3972:
 5654              	.LBB3973:
 5655              		.loc 13 98 0
 5656 0190 7EC3B378 		mr 3,22
 5657 0194 48000001 		bl _ZdlPv
 5658              	.LVL410:
 5659              	.LBE3973:
 5660              	.LBE3972:
 5661              	.LBE3971:
 5662              	.LBE3970:
 5663              	.LBE3890:
 5664              		.loc 14 1072 0
 5665 0198 2F9F0000 		cmpwi 7,31,0
 5666 019c 419E000C 		beq- 7,.L331
 5667              		.loc 14 1077 0
 5668 01a0 7FF6FB78 		mr 22,31
 5669              	.LVL411:
 5670 01a4 4BFFFEA0 		b .L377
 5671              	.LVL412:
 5672              	.L331:
 5673              	.LBE3974:
 5674              		.loc 14 1079 0
 5675 01a8 8001003C 		lwz 0,60(1)
 5676 01ac 82A1000C 		lwz 21,12(1)
 5677 01b0 7C0803A6 		mtlr 0
 5678 01b4 82C10010 		lwz 22,16(1)
 5679 01b8 82E10014 		lwz 23,20(1)
 5680 01bc 83010018 		lwz 24,24(1)
 5681 01c0 8321001C 		lwz 25,28(1)
 5682 01c4 83410020 		lwz 26,32(1)
 5683 01c8 83610024 		lwz 27,36(1)
 5684 01cc 83810028 		lwz 28,40(1)
 5685 01d0 83A1002C 		lwz 29,44(1)
 5686 01d4 83C10030 		lwz 30,48(1)
 5687              	.LVL413:
 5688 01d8 83E10034 		lwz 31,52(1)
 5689 01dc 38210038 		addi 1,1,56
 5690              	.LCFI85:
 5691              		.cfi_def_cfa_offset 0
 5692              		.cfi_restore 31
 5693              		.cfi_restore 30
 5694              		.cfi_restore 29
 5695              		.cfi_restore 28
 5696              		.cfi_restore 27
 5697              		.cfi_restore 26
 5698              		.cfi_restore 25
 5699              		.cfi_restore 24
 5700              		.cfi_restore 23
 5701              		.cfi_restore 22
 5702              		.cfi_restore 21
 5703 01e0 4E800020 		blr
 5704              		.cfi_endproc
 5705              	.LFE1970:
 5706              		.size	_ZNSt8_Rb_treeIPN7sigslot12_signal_baseINS0_15single_threadedEEES4_St9_IdentityIS4_ESt4lessI
 5707              		.section	.text._ZN7sigslot9has_slotsINS_15single_threadedEED2Ev,"axG",@progbits,_ZN7sigslot9has_sl
 5708              		.align 2
 5709              		.weak	_ZN7sigslot9has_slotsINS_15single_threadedEED2Ev
 5710              		.type	_ZN7sigslot9has_slotsINS_15single_threadedEED2Ev, @function
 5711              	_ZN7sigslot9has_slotsINS_15single_threadedEED2Ev:
 5712              	.LFB1760:
 5713              		.loc 1 513 0
 5714              		.cfi_startproc
 5715              		.cfi_personality 0,__gxx_personality_v0
 5716              		.cfi_lsda 0,.LLSDA1760
 5717              	.LVL414:
 5718 0000 7C0802A6 		mflr 0
 5719 0004 9421FFE0 		stwu 1,-32(1)
 5720              	.LCFI86:
 5721              		.cfi_def_cfa_offset 32
 5722              		.cfi_register 65, 0
 5723              	.LBB4121:
 5724              		.loc 1 516 0
 5725 0008 3D200000 		lis 9,_ZTVN7sigslot9has_slotsINS_15single_threadedEEE+8@ha
 5726              	.LBE4121:
 5727              		.loc 1 513 0
 5728 000c 93810010 		stw 28,16(1)
 5729 0010 3B830004 		addi 28,3,4
 5730              		.cfi_offset 28, -16
 5731 0014 90010024 		stw 0,36(1)
 5732              	.LBB4197:
 5733              		.loc 1 516 0
 5734 0018 38090008 		la 0,_ZTVN7sigslot9has_slotsINS_15single_threadedEEE+8@l(9)
 5735              		.cfi_offset 65, 4
 5736              	.LBE4197:
 5737              		.loc 1 513 0
 5738 001c 93A10014 		stw 29,20(1)
 5739 0020 7C7D1B78 		mr 29,3
 5740              		.cfi_offset 29, -12
 5741 0024 93410008 		stw 26,8(1)
 5742 0028 9361000C 		stw 27,12(1)
 5743 002c 93C10018 		stw 30,24(1)
 5744 0030 93E1001C 		stw 31,28(1)
 5745              	.LBB4198:
 5746              		.loc 1 516 0
 5747 0034 90030000 		stw 0,0(3)
 5748              	.LVL415:
 5749              	.LEHB48:
 5750              	.LBB4122:
 5751              	.LBB4123:
 5752              	.LBB4124:
 5753              	.LBB4125:
 5754              		.loc 1 338 0
 5755              		.cfi_offset 31, -4
 5756              		.cfi_offset 30, -8
 5757              		.cfi_offset 27, -20
 5758              		.cfi_offset 26, -24
 5759 0038 48000001 		bl _ZN7sigslot15single_threaded4lockEv
 5760              	.LEHE48:
 5761              	.LVL416:
 5762              	.LBE4125:
 5763              	.LBE4124:
 5764              	.LBB4126:
 5765              		.loc 4 454 0
 5766 003c 83FD0010 		lwz 31,16(29)
 5767              	.LVL417:
 5768              	.LBE4126:
 5769              	.LBB4127:
 5770              	.LBB4128:
 5771              	.LBB4129:
 5772              		.loc 14 671 0
 5773 0040 3BDC0004 		addi 30,28,4
 5774              	.LVL418:
 5775              	.LBE4129:
 5776              	.LBE4128:
 5777              	.LBE4127:
 5778              		.loc 1 524 0
 5779 0044 7F9FF000 		cmpw 7,31,30
 5780 0048 419E0034 		beq- 7,.L387
 5781              	.LVL419:
 5782              	.L414:
 5783              		.loc 1 526 0
 5784 004c 807F0010 		lwz 3,16(31)
 5785 0050 7FA4EB78 		mr 4,29
 5786 0054 81230000 		lwz 9,0(3)
 5787 0058 80090010 		lwz 0,16(9)
 5788 005c 7C0903A6 		mtctr 0
 5789              	.LEHB49:
 5790 0060 4E800421 		bctrl
 5791              	.LEHE49:
 5792              	.LVL420:
 5793              	.LBB4130:
 5794              	.LBB4131:
 5795              		.loc 14 269 0
 5796 0064 7FE3FB78 		mr 3,31
 5797 0068 48000001 		bl _ZSt18_Rb_tree_incrementPKSt18_Rb_tree_node_base
 5798              	.LBE4131:
 5799              	.LBE4130:
 5800              		.loc 1 524 0
 5801 006c 7F9E1800 		cmpw 7,30,3
 5802              	.LBB4133:
 5803              	.LBB4132:
 5804              		.loc 14 269 0
 5805 0070 7C7F1B78 		mr 31,3
 5806              	.LVL421:
 5807              	.LBE4132:
 5808              	.LBE4133:
 5809              		.loc 1 524 0
 5810 0074 409EFFD8 		bne+ 7,.L414
 5811 0078 83FD0010 		lwz 31,16(29)
 5812              	.LVL422:
 5813              	.L387:
 5814              	.LBB4134:
 5815              	.LBB4135:
 5816              	.LBB4136:
 5817              	.LBB4137:
 5818              	.LBB4138:
 5819              	.LBB4139:
 5820              	.LBB4140:
 5821              		.loc 14 665 0
 5822 007c 3B5C0004 		addi 26,28,4
 5823              	.LBE4140:
 5824              	.LBE4139:
 5825              		.loc 14 1500 0
 5826 0080 7F9ED000 		cmpw 7,30,26
 5827 0084 419E0098 		beq- 7,.L389
 5828              	.LVL423:
 5829              		.loc 14 1503 0
 5830 0088 7F9EF800 		cmpw 7,30,31
 5831 008c 40BE000C 		bne+ 7,.L416
 5832 0090 48000038 		b .L390
 5833              	.LVL424:
 5834              	.L411:
 5835              		.loc 14 277 0
 5836 0094 7F7FDB78 		mr 31,27
 5837              	.LVL425:
 5838              	.L416:
 5839              	.LBB4141:
 5840              	.LBB4142:
 5841 0098 7FE3FB78 		mr 3,31
 5842 009c 48000001 		bl _ZSt18_Rb_tree_incrementPKSt18_Rb_tree_node_base
 5843              	.LBE4142:
 5844              	.LBE4141:
 5845              	.LBB4144:
 5846              	.LBB4145:
 5847              	.LBB4146:
 5848              		.loc 14 1489 0
 5849 00a0 7F44D378 		mr 4,26
 5850              	.LBE4146:
 5851              	.LBE4145:
 5852              	.LBE4144:
 5853              	.LBB4155:
 5854              	.LBB4143:
 5855              		.loc 14 277 0
 5856 00a4 7C7B1B78 		mr 27,3
 5857              	.LVL426:
 5858              	.LBE4143:
 5859              	.LBE4155:
 5860              	.LBB4156:
 5861              	.LBB4153:
 5862              	.LBB4151:
 5863              		.loc 14 1489 0
 5864 00a8 7FE3FB78 		mr 3,31
 5865              	.LVL427:
 5866 00ac 48000001 		bl _ZSt28_Rb_tree_rebalance_for_erasePSt18_Rb_tree_node_baseRS_
 5867              	.LBB4147:
 5868              	.LBB4148:
 5869              	.LBB4149:
 5870              	.LBB4150:
 5871              		.loc 13 98 0
 5872 00b0 48000001 		bl _ZdlPv
 5873              	.LBE4150:
 5874              	.LBE4149:
 5875              	.LBE4148:
 5876              	.LBE4147:
 5877              	.LBE4151:
 5878              	.LBE4153:
 5879              	.LBE4156:
 5880              		.loc 14 1503 0
 5881 00b4 7F9ED800 		cmpw 7,30,27
 5882              	.LBB4157:
 5883              	.LBB4154:
 5884              	.LBB4152:
 5885              		.loc 14 1491 0
 5886 00b8 813C0014 		lwz 9,20(28)
 5887 00bc 3809FFFF 		addi 0,9,-1
 5888 00c0 901C0014 		stw 0,20(28)
 5889              	.LBE4152:
 5890              	.LBE4154:
 5891              	.LBE4157:
 5892              		.loc 14 1503 0
 5893 00c4 409EFFD0 		bne+ 7,.L411
 5894              	.LVL428:
 5895              	.L390:
 5896              	.LBE4138:
 5897              	.LBE4137:
 5898              	.LBE4136:
 5899              	.LBE4135:
 5900              	.LBE4134:
 5901              	.LBB4166:
 5902              	.LBB4167:
 5903              	.LBB4168:
 5904              		.loc 1 343 0
 5905 00c8 813D0000 		lwz 9,0(29)
 5906 00cc 7FA3EB78 		mr 3,29
 5907 00d0 8009000C 		lwz 0,12(9)
 5908 00d4 7C0903A6 		mtctr 0
 5909              	.LEHB50:
 5910 00d8 4E800421 		bctrl
 5911              	.LEHE50:
 5912              	.LVL429:
 5913              	.LBE4168:
 5914              	.LBE4167:
 5915              	.LBE4166:
 5916              	.LBE4123:
 5917              	.LBE4122:
 5918              	.LBB4175:
 5919              	.LBB4176:
 5920              	.LBB4177:
 5921              	.LBB4178:
 5922              	.LBB4179:
 5923              		.loc 14 639 0
 5924 00dc 809D000C 		lwz 4,12(29)
 5925 00e0 7F83E378 		mr 3,28
 5926 00e4 48000001 		bl _ZNSt8_Rb_treeIPN7sigslot12_signal_baseINS0_15single_threadedEEES4_St9_IdentityIS4_ESt4lessIS4_
 5927              	.LVL430:
 5928              	.LBE4179:
 5929              	.LBE4178:
 5930              	.LBE4177:
 5931              	.LBE4176:
 5932              	.LBE4175:
 5933              	.LBB4180:
 5934              	.LBB4181:
 5935              	.LBB4182:
 5936              		.loc 1 105 0
 5937 00e8 3D200000 		lis 9,_ZTVN7sigslot15single_threadedE+8@ha
 5938 00ec 38090008 		la 0,_ZTVN7sigslot15single_threadedE+8@l(9)
 5939              	.LBE4182:
 5940              	.LBE4181:
 5941              	.LBE4180:
 5942              	.LBE4198:
 5943              		.loc 1 516 0
 5944 00f0 83410008 		lwz 26,8(1)
 5945              	.LBB4199:
 5946              	.LBB4185:
 5947              	.LBB4184:
 5948              	.LBB4183:
 5949              		.loc 1 105 0
 5950 00f4 901D0000 		stw 0,0(29)
 5951              	.LBE4183:
 5952              	.LBE4184:
 5953              	.LBE4185:
 5954              	.LBE4199:
 5955              		.loc 1 516 0
 5956 00f8 80010024 		lwz 0,36(1)
 5957 00fc 8361000C 		lwz 27,12(1)
 5958 0100 7C0803A6 		mtlr 0
 5959 0104 83810010 		lwz 28,16(1)
 5960              	.LVL431:
 5961 0108 83A10014 		lwz 29,20(1)
 5962              	.LVL432:
 5963 010c 83C10018 		lwz 30,24(1)
 5964              	.LVL433:
 5965 0110 83E1001C 		lwz 31,28(1)
 5966 0114 38210020 		addi 1,1,32
 5967              		.cfi_remember_state
 5968              	.LCFI87:
 5969              		.cfi_def_cfa_offset 0
 5970              		.cfi_restore 31
 5971              		.cfi_restore 30
 5972              		.cfi_restore 29
 5973              		.cfi_restore 28
 5974              		.cfi_restore 27
 5975              		.cfi_restore 26
 5976 0118 4E800020 		blr
 5977              	.LVL434:
 5978              	.L389:
 5979              	.LCFI88:
 5980              		.cfi_restore_state
 5981              	.LBB4200:
 5982              	.LBB4186:
 5983              	.LBB4173:
 5984              	.LBB4169:
 5985              	.LBB4165:
 5986              	.LBB4164:
 5987              	.LBB4163:
 5988              	.LBB4162:
 5989              	.LBB4158:
 5990              	.LBB4159:
 5991              	.LBB4160:
 5992              	.LBB4161:
 5993              		.loc 14 809 0
 5994 011c 809D000C 		lwz 4,12(29)
 5995 0120 7F83E378 		mr 3,28
 5996 0124 48000001 		bl _ZNSt8_Rb_treeIPN7sigslot12_signal_baseINS0_15single_threadedEEES4_St9_IdentityIS4_ESt4lessIS4_
 5997              	.LVL435:
 5998              		.loc 14 811 0
 5999 0128 38000000 		li 0,0
 6000              		.loc 14 810 0
 6001 012c 93DD0010 		stw 30,16(29)
 6002              	.LVL436:
 6003              		.loc 14 811 0
 6004 0130 901D000C 		stw 0,12(29)
 6005              	.LVL437:
 6006              		.loc 14 812 0
 6007 0134 93DD0014 		stw 30,20(29)
 6008              		.loc 14 813 0
 6009 0138 901D0018 		stw 0,24(29)
 6010 013c 4BFFFF8C 		b .L390
 6011              	.LVL438:
 6012              	.L412:
 6013 0140 7C7F1B78 		mr 31,3
 6014              	.L397:
 6015              	.LVL439:
 6016              	.LBE4161:
 6017              	.LBE4160:
 6018              	.LBE4159:
 6019              	.LBE4158:
 6020              	.LBE4162:
 6021              	.LBE4163:
 6022              	.LBE4164:
 6023              	.LBE4165:
 6024              	.LBE4169:
 6025              	.LBE4173:
 6026              	.LBE4186:
 6027              	.LBB4187:
 6028              	.LBB4188:
 6029              	.LBB4189:
 6030              	.LBB4190:
 6031              	.LBB4191:
 6032              	.LBB4192:
 6033              		.loc 14 639 0
 6034 0144 809D000C 		lwz 4,12(29)
 6035 0148 7F83E378 		mr 3,28
 6036 014c 48000001 		bl _ZNSt8_Rb_treeIPN7sigslot12_signal_baseINS0_15single_threadedEEES4_St9_IdentityIS4_ESt4lessIS4_
 6037              	.LVL440:
 6038              	.LBE4192:
 6039              	.LBE4191:
 6040              	.LBE4190:
 6041              	.LBE4189:
 6042              	.LBE4188:
 6043              	.LBE4187:
 6044              	.LBB4193:
 6045              	.LBB4194:
 6046              	.LBB4195:
 6047              		.loc 1 105 0
 6048 0150 3D200000 		lis 9,_ZTVN7sigslot15single_threadedE+8@ha
 6049 0154 38090008 		la 0,_ZTVN7sigslot15single_threadedE+8@l(9)
 6050 0158 7FE3FB78 		mr 3,31
 6051 015c 901D0000 		stw 0,0(29)
 6052              	.LEHB51:
 6053 0160 48000001 		bl _Unwind_Resume
 6054              	.LEHE51:
 6055              	.LVL441:
 6056              	.L413:
 6057              	.LBE4195:
 6058              	.LBE4194:
 6059              	.LBE4193:
 6060              	.LBB4196:
 6061              	.LBB4174:
 6062              	.LBB4170:
 6063              	.LBB4171:
 6064              	.LBB4172:
 6065              		.loc 1 343 0
 6066 0164 813D0000 		lwz 9,0(29)
 6067 0168 7C7F1B78 		mr 31,3
 6068              	.LVL442:
 6069 016c 7FA3EB78 		mr 3,29
 6070 0170 8009000C 		lwz 0,12(9)
 6071 0174 7C0903A6 		mtctr 0
 6072 0178 4E800421 		bctrl
 6073 017c 4BFFFFC8 		b .L397
 6074              	.LBE4172:
 6075              	.LBE4171:
 6076              	.LBE4170:
 6077              	.LBE4174:
 6078              	.LBE4196:
 6079              	.LBE4200:
 6080              		.cfi_endproc
 6081              	.LFE1760:
 6082              		.section	.gcc_except_table
 6083              	.LLSDA1760:
 6084 011b FF       		.byte	0xff
 6085 011c FF       		.byte	0xff
 6086 011d 01       		.byte	0x1
 6087 011e 15       		.uleb128 .LLSDACSE1760-.LLSDACSB1760
 6088              	.LLSDACSB1760:
 6089 011f 38       		.uleb128 .LEHB48-.LFB1760
 6090 0120 04       		.uleb128 .LEHE48-.LEHB48
 6091 0121 C002     		.uleb128 .L412-.LFB1760
 6092 0123 00       		.uleb128 0
 6093 0124 60       		.uleb128 .LEHB49-.LFB1760
 6094 0125 04       		.uleb128 .LEHE49-.LEHB49
 6095 0126 E402     		.uleb128 .L413-.LFB1760
 6096 0128 00       		.uleb128 0
 6097 0129 D801     		.uleb128 .LEHB50-.LFB1760
 6098 012b 04       		.uleb128 .LEHE50-.LEHB50
 6099 012c C002     		.uleb128 .L412-.LFB1760
 6100 012e 00       		.uleb128 0
 6101 012f E002     		.uleb128 .LEHB51-.LFB1760
 6102 0131 04       		.uleb128 .LEHE51-.LEHB51
 6103 0132 00       		.uleb128 0
 6104 0133 00       		.uleb128 0
 6105              	.LLSDACSE1760:
 6106              		.section	.text._ZN7sigslot9has_slotsINS_15single_threadedEED2Ev,"axG",@progbits,_ZN7sigslot9has_sl
 6107              		.size	_ZN7sigslot9has_slotsINS_15single_threadedEED2Ev, .-_ZN7sigslot9has_slotsINS_15single_thread
 6108              		.section	.text._ZN7sigslot9has_slotsINS_15single_threadedEED0Ev,"axG",@progbits,_ZN7sigslot9has_sl
 6109              		.align 2
 6110              		.weak	_ZN7sigslot9has_slotsINS_15single_threadedEED0Ev
 6111              		.type	_ZN7sigslot9has_slotsINS_15single_threadedEED0Ev, @function
 6112              	_ZN7sigslot9has_slotsINS_15single_threadedEED0Ev:
 6113              	.LFB1762:
 6114              		.loc 1 513 0
 6115              		.cfi_startproc
 6116              		.cfi_personality 0,__gxx_personality_v0
 6117              		.cfi_lsda 0,.LLSDA1762
 6118              	.LVL443:
 6119 0000 7C0802A6 		mflr 0
 6120 0004 9421FFE0 		stwu 1,-32(1)
 6121              	.LCFI89:
 6122              		.cfi_def_cfa_offset 32
 6123              		.cfi_register 65, 0
 6124              	.LBB4294:
 6125              	.LBB4295:
 6126              	.LBB4296:
 6127              		.loc 1 516 0
 6128 0008 3D200000 		lis 9,_ZTVN7sigslot9has_slotsINS_15single_threadedEEE+8@ha
 6129              	.LBE4296:
 6130              	.LBE4295:
 6131              	.LBE4294:
 6132              		.loc 1 513 0
 6133 000c 93810010 		stw 28,16(1)
 6134 0010 3B830004 		addi 28,3,4
 6135              		.cfi_offset 28, -16
 6136 0014 90010024 		stw 0,36(1)
 6137              	.LBB4380:
 6138              	.LBB4376:
 6139              	.LBB4372:
 6140              		.loc 1 516 0
 6141 0018 38090008 		la 0,_ZTVN7sigslot9has_slotsINS_15single_threadedEEE+8@l(9)
 6142              		.cfi_offset 65, 4
 6143              	.LBE4372:
 6144              	.LBE4376:
 6145              	.LBE4380:
 6146              		.loc 1 513 0
 6147 001c 93A10014 		stw 29,20(1)
 6148 0020 7C7D1B78 		mr 29,3
 6149              		.cfi_offset 29, -12
 6150              	.LVL444:
 6151 0024 93410008 		stw 26,8(1)
 6152 0028 9361000C 		stw 27,12(1)
 6153 002c 93C10018 		stw 30,24(1)
 6154 0030 93E1001C 		stw 31,28(1)
 6155              	.LBB4381:
 6156              	.LBB4377:
 6157              	.LBB4373:
 6158              		.loc 1 516 0
 6159 0034 90030000 		stw 0,0(3)
 6160              	.LVL445:
 6161              	.LEHB52:
 6162              	.LBB4297:
 6163              	.LBB4298:
 6164              	.LBB4299:
 6165              	.LBB4300:
 6166              		.loc 1 338 0
 6167              		.cfi_offset 31, -4
 6168              		.cfi_offset 30, -8
 6169              		.cfi_offset 27, -20
 6170              		.cfi_offset 26, -24
 6171 0038 48000001 		bl _ZN7sigslot15single_threaded4lockEv
 6172              	.LEHE52:
 6173              	.LVL446:
 6174              	.LBE4300:
 6175              	.LBE4299:
 6176              	.LBB4301:
 6177              		.loc 4 454 0
 6178 003c 83FD0010 		lwz 31,16(29)
 6179              	.LVL447:
 6180              	.LBE4301:
 6181              	.LBB4302:
 6182              	.LBB4303:
 6183              	.LBB4304:
 6184              		.loc 14 671 0
 6185 0040 3BDC0004 		addi 30,28,4
 6186              	.LVL448:
 6187              	.LBE4304:
 6188              	.LBE4303:
 6189              	.LBE4302:
 6190              		.loc 1 524 0
 6191 0044 7F9FF000 		cmpw 7,31,30
 6192 0048 419E0034 		beq- 7,.L419
 6193              	.LVL449:
 6194              	.L447:
 6195              		.loc 1 526 0
 6196 004c 807F0010 		lwz 3,16(31)
 6197 0050 7FA4EB78 		mr 4,29
 6198 0054 81230000 		lwz 9,0(3)
 6199 0058 80090010 		lwz 0,16(9)
 6200 005c 7C0903A6 		mtctr 0
 6201              	.LEHB53:
 6202 0060 4E800421 		bctrl
 6203              	.LEHE53:
 6204              	.LVL450:
 6205              	.LBB4305:
 6206              	.LBB4306:
 6207              		.loc 14 269 0
 6208 0064 7FE3FB78 		mr 3,31
 6209 0068 48000001 		bl _ZSt18_Rb_tree_incrementPKSt18_Rb_tree_node_base
 6210              	.LBE4306:
 6211              	.LBE4305:
 6212              		.loc 1 524 0
 6213 006c 7F9E1800 		cmpw 7,30,3
 6214              	.LBB4308:
 6215              	.LBB4307:
 6216              		.loc 14 269 0
 6217 0070 7C7F1B78 		mr 31,3
 6218              	.LVL451:
 6219              	.LBE4307:
 6220              	.LBE4308:
 6221              		.loc 1 524 0
 6222 0074 409EFFD8 		bne+ 7,.L447
 6223 0078 83FD0010 		lwz 31,16(29)
 6224              	.LVL452:
 6225              	.L419:
 6226              	.LBB4309:
 6227              	.LBB4310:
 6228              	.LBB4311:
 6229              	.LBB4312:
 6230              	.LBB4313:
 6231              	.LBB4314:
 6232              	.LBB4315:
 6233              		.loc 14 665 0
 6234 007c 3B5C0004 		addi 26,28,4
 6235              	.LBE4315:
 6236              	.LBE4314:
 6237              		.loc 14 1500 0
 6238 0080 7F9ED000 		cmpw 7,30,26
 6239 0084 419E00A0 		beq- 7,.L421
 6240              	.LVL453:
 6241              		.loc 14 1503 0
 6242 0088 7F9EF800 		cmpw 7,30,31
 6243 008c 40BE000C 		bne+ 7,.L449
 6244 0090 48000038 		b .L422
 6245              	.LVL454:
 6246              	.L444:
 6247              		.loc 14 277 0
 6248 0094 7F7FDB78 		mr 31,27
 6249              	.LVL455:
 6250              	.L449:
 6251              	.LBB4316:
 6252              	.LBB4317:
 6253 0098 7FE3FB78 		mr 3,31
 6254 009c 48000001 		bl _ZSt18_Rb_tree_incrementPKSt18_Rb_tree_node_base
 6255              	.LBE4317:
 6256              	.LBE4316:
 6257              	.LBB4319:
 6258              	.LBB4320:
 6259              	.LBB4321:
 6260              		.loc 14 1489 0
 6261 00a0 7F44D378 		mr 4,26
 6262              	.LBE4321:
 6263              	.LBE4320:
 6264              	.LBE4319:
 6265              	.LBB4330:
 6266              	.LBB4318:
 6267              		.loc 14 277 0
 6268 00a4 7C7B1B78 		mr 27,3
 6269              	.LVL456:
 6270              	.LBE4318:
 6271              	.LBE4330:
 6272              	.LBB4331:
 6273              	.LBB4328:
 6274              	.LBB4326:
 6275              		.loc 14 1489 0
 6276 00a8 7FE3FB78 		mr 3,31
 6277              	.LVL457:
 6278 00ac 48000001 		bl _ZSt28_Rb_tree_rebalance_for_erasePSt18_Rb_tree_node_baseRS_
 6279              	.LBB4322:
 6280              	.LBB4323:
 6281              	.LBB4324:
 6282              	.LBB4325:
 6283              		.loc 13 98 0
 6284 00b0 48000001 		bl _ZdlPv
 6285              	.LBE4325:
 6286              	.LBE4324:
 6287              	.LBE4323:
 6288              	.LBE4322:
 6289              	.LBE4326:
 6290              	.LBE4328:
 6291              	.LBE4331:
 6292              		.loc 14 1503 0
 6293 00b4 7F9ED800 		cmpw 7,30,27
 6294              	.LBB4332:
 6295              	.LBB4329:
 6296              	.LBB4327:
 6297              		.loc 14 1491 0
 6298 00b8 813C0014 		lwz 9,20(28)
 6299 00bc 3809FFFF 		addi 0,9,-1
 6300 00c0 901C0014 		stw 0,20(28)
 6301              	.LBE4327:
 6302              	.LBE4329:
 6303              	.LBE4332:
 6304              		.loc 14 1503 0
 6305 00c4 409EFFD0 		bne+ 7,.L444
 6306              	.LVL458:
 6307              	.L422:
 6308              	.LBE4313:
 6309              	.LBE4312:
 6310              	.LBE4311:
 6311              	.LBE4310:
 6312              	.LBE4309:
 6313              	.LBB4341:
 6314              	.LBB4342:
 6315              	.LBB4343:
 6316              		.loc 1 343 0
 6317 00c8 813D0000 		lwz 9,0(29)
 6318 00cc 7FA3EB78 		mr 3,29
 6319 00d0 8009000C 		lwz 0,12(9)
 6320 00d4 7C0903A6 		mtctr 0
 6321              	.LEHB54:
 6322 00d8 4E800421 		bctrl
 6323              	.LEHE54:
 6324              	.LVL459:
 6325              	.LBE4343:
 6326              	.LBE4342:
 6327              	.LBE4341:
 6328              	.LBE4298:
 6329              	.LBE4297:
 6330              	.LBB4350:
 6331              	.LBB4351:
 6332              	.LBB4352:
 6333              	.LBB4353:
 6334              	.LBB4354:
 6335              		.loc 14 639 0
 6336 00dc 809D000C 		lwz 4,12(29)
 6337 00e0 7F83E378 		mr 3,28
 6338 00e4 48000001 		bl _ZNSt8_Rb_treeIPN7sigslot12_signal_baseINS0_15single_threadedEEES4_St9_IdentityIS4_ESt4lessIS4_
 6339              	.LVL460:
 6340              	.LBE4354:
 6341              	.LBE4353:
 6342              	.LBE4352:
 6343              	.LBE4351:
 6344              	.LBE4350:
 6345              	.LBB4355:
 6346              	.LBB4356:
 6347              	.LBB4357:
 6348              		.loc 1 105 0
 6349 00e8 3D200000 		lis 9,_ZTVN7sigslot15single_threadedE+8@ha
 6350 00ec 38090008 		la 0,_ZTVN7sigslot15single_threadedE+8@l(9)
 6351              	.LBE4357:
 6352              	.LBE4356:
 6353              	.LBE4355:
 6354              	.LBE4373:
 6355              	.LBE4377:
 6356              	.LBE4381:
 6357              		.loc 1 516 0
 6358 00f0 7FA3EB78 		mr 3,29
 6359              	.LBB4382:
 6360              	.LBB4378:
 6361              	.LBB4374:
 6362              	.LBB4360:
 6363              	.LBB4359:
 6364              	.LBB4358:
 6365              		.loc 1 105 0
 6366 00f4 901D0000 		stw 0,0(29)
 6367              	.LBE4358:
 6368              	.LBE4359:
 6369              	.LBE4360:
 6370              	.LBE4374:
 6371              	.LBE4378:
 6372              	.LBE4382:
 6373              		.loc 1 516 0
 6374 00f8 48000001 		bl _ZdlPv
 6375 00fc 80010024 		lwz 0,36(1)
 6376 0100 83410008 		lwz 26,8(1)
 6377 0104 7C0803A6 		mtlr 0
 6378 0108 8361000C 		lwz 27,12(1)
 6379 010c 83810010 		lwz 28,16(1)
 6380              	.LVL461:
 6381 0110 83A10014 		lwz 29,20(1)
 6382              	.LVL462:
 6383 0114 83C10018 		lwz 30,24(1)
 6384              	.LVL463:
 6385 0118 83E1001C 		lwz 31,28(1)
 6386 011c 38210020 		addi 1,1,32
 6387              		.cfi_remember_state
 6388              	.LCFI90:
 6389              		.cfi_def_cfa_offset 0
 6390              		.cfi_restore 31
 6391              		.cfi_restore 30
 6392              		.cfi_restore 29
 6393              		.cfi_restore 28
 6394              		.cfi_restore 27
 6395              		.cfi_restore 26
 6396 0120 4E800020 		blr
 6397              	.LVL464:
 6398              	.L421:
 6399              	.LCFI91:
 6400              		.cfi_restore_state
 6401              	.LBB4383:
 6402              	.LBB4379:
 6403              	.LBB4375:
 6404              	.LBB4361:
 6405              	.LBB4348:
 6406              	.LBB4344:
 6407              	.LBB4340:
 6408              	.LBB4339:
 6409              	.LBB4338:
 6410              	.LBB4337:
 6411              	.LBB4333:
 6412              	.LBB4334:
 6413              	.LBB4335:
 6414              	.LBB4336:
 6415              		.loc 14 809 0
 6416 0124 809D000C 		lwz 4,12(29)
 6417 0128 7F83E378 		mr 3,28
 6418 012c 48000001 		bl _ZNSt8_Rb_treeIPN7sigslot12_signal_baseINS0_15single_threadedEEES4_St9_IdentityIS4_ESt4lessIS4_
 6419              	.LVL465:
 6420              		.loc 14 811 0
 6421 0130 38000000 		li 0,0
 6422              		.loc 14 810 0
 6423 0134 93DD0010 		stw 30,16(29)
 6424              	.LVL466:
 6425              		.loc 14 811 0
 6426 0138 901D000C 		stw 0,12(29)
 6427              	.LVL467:
 6428              		.loc 14 812 0
 6429 013c 93DD0014 		stw 30,20(29)
 6430              		.loc 14 813 0
 6431 0140 901D0018 		stw 0,24(29)
 6432 0144 4BFFFF84 		b .L422
 6433              	.LVL468:
 6434              	.L445:
 6435 0148 7C7F1B78 		mr 31,3
 6436              	.L429:
 6437              	.LVL469:
 6438              	.LBE4336:
 6439              	.LBE4335:
 6440              	.LBE4334:
 6441              	.LBE4333:
 6442              	.LBE4337:
 6443              	.LBE4338:
 6444              	.LBE4339:
 6445              	.LBE4340:
 6446              	.LBE4344:
 6447              	.LBE4348:
 6448              	.LBE4361:
 6449              	.LBB4362:
 6450              	.LBB4363:
 6451              	.LBB4364:
 6452              	.LBB4365:
 6453              	.LBB4366:
 6454              	.LBB4367:
 6455              		.loc 14 639 0
 6456 014c 809D000C 		lwz 4,12(29)
 6457 0150 7F83E378 		mr 3,28
 6458 0154 48000001 		bl _ZNSt8_Rb_treeIPN7sigslot12_signal_baseINS0_15single_threadedEEES4_St9_IdentityIS4_ESt4lessIS4_
 6459              	.LVL470:
 6460              	.LBE4367:
 6461              	.LBE4366:
 6462              	.LBE4365:
 6463              	.LBE4364:
 6464              	.LBE4363:
 6465              	.LBE4362:
 6466              	.LBB4368:
 6467              	.LBB4369:
 6468              	.LBB4370:
 6469              		.loc 1 105 0
 6470 0158 3D200000 		lis 9,_ZTVN7sigslot15single_threadedE+8@ha
 6471 015c 38090008 		la 0,_ZTVN7sigslot15single_threadedE+8@l(9)
 6472 0160 7FE3FB78 		mr 3,31
 6473 0164 901D0000 		stw 0,0(29)
 6474              	.LEHB55:
 6475 0168 48000001 		bl _Unwind_Resume
 6476              	.LEHE55:
 6477              	.LVL471:
 6478              	.L446:
 6479              	.LBE4370:
 6480              	.LBE4369:
 6481              	.LBE4368:
 6482              	.LBB4371:
 6483              	.LBB4349:
 6484              	.LBB4345:
 6485              	.LBB4346:
 6486              	.LBB4347:
 6487              		.loc 1 343 0
 6488 016c 813D0000 		lwz 9,0(29)
 6489 0170 7C7F1B78 		mr 31,3
 6490              	.LVL472:
 6491 0174 7FA3EB78 		mr 3,29
 6492 0178 8009000C 		lwz 0,12(9)
 6493 017c 7C0903A6 		mtctr 0
 6494 0180 4E800421 		bctrl
 6495 0184 4BFFFFC8 		b .L429
 6496              	.LBE4347:
 6497              	.LBE4346:
 6498              	.LBE4345:
 6499              	.LBE4349:
 6500              	.LBE4371:
 6501              	.LBE4375:
 6502              	.LBE4379:
 6503              	.LBE4383:
 6504              		.cfi_endproc
 6505              	.LFE1762:
 6506              		.section	.gcc_except_table
 6507              	.LLSDA1762:
 6508 0134 FF       		.byte	0xff
 6509 0135 FF       		.byte	0xff
 6510 0136 01       		.byte	0x1
 6511 0137 15       		.uleb128 .LLSDACSE1762-.LLSDACSB1762
 6512              	.LLSDACSB1762:
 6513 0138 38       		.uleb128 .LEHB52-.LFB1762
 6514 0139 04       		.uleb128 .LEHE52-.LEHB52
 6515 013a C802     		.uleb128 .L445-.LFB1762
 6516 013c 00       		.uleb128 0
 6517 013d 60       		.uleb128 .LEHB53-.LFB1762
 6518 013e 04       		.uleb128 .LEHE53-.LEHB53
 6519 013f EC02     		.uleb128 .L446-.LFB1762
 6520 0141 00       		.uleb128 0
 6521 0142 D801     		.uleb128 .LEHB54-.LFB1762
 6522 0144 04       		.uleb128 .LEHE54-.LEHB54
 6523 0145 C802     		.uleb128 .L445-.LFB1762
 6524 0147 00       		.uleb128 0
 6525 0148 E802     		.uleb128 .LEHB55-.LFB1762
 6526 014a 04       		.uleb128 .LEHE55-.LEHB55
 6527 014b 00       		.uleb128 0
 6528 014c 00       		.uleb128 0
 6529              	.LLSDACSE1762:
 6530              		.section	.text._ZN7sigslot9has_slotsINS_15single_threadedEED0Ev,"axG",@progbits,_ZN7sigslot9has_sl
 6531              		.size	_ZN7sigslot9has_slotsINS_15single_threadedEED0Ev, .-_ZN7sigslot9has_slotsINS_15single_thread
 6532              		.section	".text"
 6533              		.align 2
 6534              		.globl _ZThn176_N12SettingsMenuD1Ev
 6535              		.type	_ZThn176_N12SettingsMenuD1Ev, @function
 6536              	_ZThn176_N12SettingsMenuD1Ev:
 6537              	.LFB2599:
 6538              		.cfi_startproc
 6539 0c40 3863FF50 		addi 3,3,-176
 6540 0c44 48000004 		b .LTHUNK0
 6541              		.cfi_endproc
 6542              	.LFE2599:
 6543              		.size	_ZThn176_N12SettingsMenuD1Ev, .-_ZThn176_N12SettingsMenuD1Ev
 6544              		.align 2
 6545              		.globl _ZN12SettingsMenuD2Ev
 6546              		.type	_ZN12SettingsMenuD2Ev, @function
 6547              	_ZN12SettingsMenuD2Ev:
 6548              	.LFB1666:
 6549              		.loc 4 84 0
 6550              		.cfi_startproc
 6551              		.cfi_personality 0,__gxx_personality_v0
 6552              		.cfi_lsda 0,.LLSDA1666
 6553              	.LVL473:
 6554 0c48 7C0802A6 		mflr 0
 6555 0c4c 9421FFE8 		stwu 1,-24(1)
 6556              	.LCFI92:
 6557              		.cfi_def_cfa_offset 24
 6558              		.cfi_register 65, 0
 6559              	.LBB4478:
 6560 0c50 3D200000 		lis 9,_ZTV12SettingsMenu+8@ha
 6561 0c54 39290008 		la 9,_ZTV12SettingsMenu+8@l(9)
 6562              	.LBE4478:
 6563 0c58 93C10010 		stw 30,16(1)
 6564 0c5c 9001001C 		stw 0,28(1)
 6565              	.LBB4568:
 6566 0c60 380900E4 		addi 0,9,228
 6567              		.cfi_offset 65, 4
 6568              		.cfi_offset 30, -8
 6569              	.LBE4568:
 6570 0c64 93810008 		stw 28,8(1)
 6571 0c68 7C7E1B78 		mr 30,3
 6572 0c6c 93A1000C 		stw 29,12(1)
 6573 0c70 93E10014 		stw 31,20(1)
 6574              	.LBB4569:
 6575              		.loc 4 84 0
 6576 0c74 91230000 		stw 9,0(3)
 6577 0c78 900300B0 		stw 0,176(3)
 6578              	.LEHB56:
 6579              		.loc 4 86 0
 6580              		.cfi_offset 31, -4
 6581              		.cfi_offset 29, -12
 6582              		.cfi_offset 28, -16
 6583 0c7c 48000001 		bl _ZN8GuiFrame9RemoveAllEv
 6584              	.LVL474:
 6585              		.loc 4 88 0
 6586 0c80 807E00CC 		lwz 3,204(30)
 6587 0c84 2F830000 		cmpwi 7,3,0
 6588 0c88 419E0014 		beq- 7,.L452
 6589              		.loc 4 89 0 discriminator 1
 6590 0c8c 81230000 		lwz 9,0(3)
 6591 0c90 80090004 		lwz 0,4(9)
 6592 0c94 7C0903A6 		mtctr 0
 6593 0c98 4E800421 		bctrl
 6594              	.L452:
 6595              		.loc 4 91 0
 6596 0c9c 807E00D8 		lwz 3,216(30)
 6597 0ca0 2F830000 		cmpwi 7,3,0
 6598 0ca4 419E0014 		beq- 7,.L453
 6599              		.loc 4 91 0 is_stmt 0 discriminator 1
 6600 0ca8 81230000 		lwz 9,0(3)
 6601 0cac 80090004 		lwz 0,4(9)
 6602 0cb0 7C0903A6 		mtctr 0
 6603 0cb4 4E800421 		bctrl
 6604              	.L453:
 6605              		.loc 4 93 0 is_stmt 1
 6606 0cb8 807E00E0 		lwz 3,224(30)
 6607 0cbc 2F830000 		cmpwi 7,3,0
 6608 0cc0 419E0014 		beq- 7,.L454
 6609              		.loc 4 93 0 is_stmt 0 discriminator 1
 6610 0cc4 81230000 		lwz 9,0(3)
 6611 0cc8 80090004 		lwz 0,4(9)
 6612 0ccc 7C0903A6 		mtctr 0
 6613 0cd0 4E800421 		bctrl
 6614              	.L454:
 6615              		.loc 4 94 0 is_stmt 1
 6616 0cd4 807E00DC 		lwz 3,220(30)
 6617 0cd8 48000001 		bl _ZN9Resources6RemoveEP12GuiImageData
 6618              		.loc 4 96 0
 6619 0cdc 807E00E4 		lwz 3,228(30)
 6620 0ce0 2F830000 		cmpwi 7,3,0
 6621 0ce4 419E0014 		beq- 7,.L455
 6622              		.loc 4 96 0 is_stmt 0 discriminator 1
 6623 0ce8 81230000 		lwz 9,0(3)
 6624 0cec 80090004 		lwz 0,4(9)
 6625 0cf0 7C0903A6 		mtctr 0
 6626 0cf4 4E800421 		bctrl
 6627              	.L455:
 6628              		.loc 4 97 0 is_stmt 1
 6629 0cf8 807E00E8 		lwz 3,232(30)
 6630 0cfc 2F830000 		cmpwi 7,3,0
 6631 0d00 419E0014 		beq- 7,.L456
 6632              		.loc 4 97 0 is_stmt 0 discriminator 1
 6633 0d04 81230000 		lwz 9,0(3)
 6634 0d08 80090004 		lwz 0,4(9)
 6635 0d0c 7C0903A6 		mtctr 0
 6636 0d10 4E800421 		bctrl
 6637              	.L456:
 6638              		.loc 4 99 0 is_stmt 1
 6639 0d14 807E00EC 		lwz 3,236(30)
 6640 0d18 48000001 		bl _ZN9Resources6RemoveEP8GuiSound
 6641              		.loc 4 100 0
 6642 0d1c 807E00F0 		lwz 3,240(30)
 6643 0d20 48000001 		bl _ZN9Resources6RemoveEP8GuiSound
 6644              	.LEHE56:
 6645              		.loc 4 84 0
 6646 0d24 387E0264 		addi 3,30,612
 6647              	.LEHB57:
 6648 0d28 48000001 		bl _ZN10GuiTriggerD1Ev
 6649              	.LEHE57:
 6650              		.loc 4 84 0 is_stmt 0 discriminator 1
 6651 0d2c 387E00F4 		addi 3,30,244
 6652              	.LEHB58:
 6653 0d30 48000001 		bl _ZN10GuiTriggerD1Ev
 6654              	.LEHE58:
 6655              	.LBB4479:
 6656              	.LBB4480:
 6657              	.LBB4481:
 6658              		.loc 1 516 0 is_stmt 1 discriminator 2
 6659 0d34 3D200000 		lis 9,_ZTVN7sigslot9has_slotsINS_15single_threadedEEE+8@ha
 6660              	.LBE4481:
 6661              	.LBE4480:
 6662              	.LBE4479:
 6663              		.loc 4 84 0 discriminator 2
 6664 0d38 3B9E00B0 		addi 28,30,176
 6665              	.LVL475:
 6666              	.LBB4565:
 6667              	.LBB4562:
 6668              	.LBB4559:
 6669              		.loc 1 516 0 discriminator 2
 6670 0d3c 38090008 		la 0,_ZTVN7sigslot9has_slotsINS_15single_threadedEEE+8@l(9)
 6671              	.LBB4482:
 6672              	.LBB4483:
 6673              	.LBB4484:
 6674              	.LBB4485:
 6675              		.loc 1 338 0 discriminator 2
 6676 0d40 7F83E378 		mr 3,28
 6677              	.LBE4485:
 6678              	.LBE4484:
 6679              	.LBE4483:
 6680              	.LBE4482:
 6681              		.loc 1 516 0 discriminator 2
 6682 0d44 901E00B0 		stw 0,176(30)
 6683              	.LVL476:
 6684 0d48 3BFE00B4 		addi 31,30,180
 6685              	.LEHB59:
 6686              	.LBB4537:
 6687              	.LBB4535:
 6688              	.LBB4487:
 6689              	.LBB4486:
 6690              		.loc 1 338 0 discriminator 2
 6691 0d4c 48000001 		bl _ZN7sigslot15single_threaded4lockEv
 6692              	.LEHE59:
 6693              	.LVL477:
 6694              	.LBE4486:
 6695              	.LBE4487:
 6696              	.LBB4488:
 6697              		.loc 4 454 0
 6698 0d50 83FE00C0 		lwz 31,192(30)
 6699              	.LVL478:
 6700              	.LBE4488:
 6701              	.LBB4489:
 6702              	.LBB4490:
 6703              	.LBB4491:
 6704              		.loc 14 671 0
 6705 0d54 3BBE00B8 		addi 29,30,184
 6706              	.LVL479:
 6707              	.LBE4491:
 6708              	.LBE4490:
 6709              	.LBE4489:
 6710              		.loc 1 524 0
 6711 0d58 7F9FE800 		cmpw 7,31,29
 6712 0d5c 419E0030 		beq- 7,.L457
 6713              	.LVL480:
 6714              	.L492:
 6715              		.loc 1 526 0
 6716 0d60 807F0010 		lwz 3,16(31)
 6717 0d64 7F84E378 		mr 4,28
 6718 0d68 81230000 		lwz 9,0(3)
 6719 0d6c 80090010 		lwz 0,16(9)
 6720 0d70 7C0903A6 		mtctr 0
 6721              	.LEHB60:
 6722 0d74 4E800421 		bctrl
 6723              	.LEHE60:
 6724              	.LVL481:
 6725              	.LBB4492:
 6726              	.LBB4493:
 6727              		.loc 14 269 0
 6728 0d78 7FE3FB78 		mr 3,31
 6729 0d7c 48000001 		bl _ZSt18_Rb_tree_incrementPKSt18_Rb_tree_node_base
 6730              	.LBE4493:
 6731              	.LBE4492:
 6732              		.loc 1 524 0
 6733 0d80 7F9D1800 		cmpw 7,29,3
 6734              	.LBB4495:
 6735              	.LBB4494:
 6736              		.loc 14 269 0
 6737 0d84 7C7F1B78 		mr 31,3
 6738              	.LVL482:
 6739              	.LBE4494:
 6740              	.LBE4495:
 6741              		.loc 1 524 0
 6742 0d88 409EFFD8 		bne+ 7,.L492
 6743              	.LVL483:
 6744              	.L457:
 6745              	.LBB4496:
 6746              	.LBB4497:
 6747              		.file 15 "d:\\devkitpro\\devkitppc\\bin\\../lib/gcc/powerpc-eabi/4.6.3/../../../../powerpc-eabi/in
 6748              		.loc 15 562 0
 6749 0d8c 3BFE00B4 		addi 31,30,180
 6750              	.LVL484:
 6751              	.LBB4498:
 6752              	.LBB4499:
 6753              	.LBB4500:
 6754              	.LBB4501:
