   1              		.file	"SettingsBrowser.cpp"
   2              		.section	".text"
   3              	.Ltext0:
   4              		.section	.text._ZN7sigslot15single_threadedD2Ev,"axG",@progbits,_ZN7sigslot15single_threadedD5Ev,c
   5              		.align 2
   6              		.weak	_ZN7sigslot15single_threadedD2Ev
   7              		.type	_ZN7sigslot15single_threadedD2Ev, @function
   8              	_ZN7sigslot15single_threadedD2Ev:
   9              	.LFB1148:
  10              		.file 1 "d:/Projects/SaveGameManager/savegame-manager-gx/trunk/source/Settings/menus/../../GUI/../
  11              		.loc 1 104 0
  12              		.cfi_startproc
  13              	.LVL0:
  14              	.LBB1771:
  15              		.loc 1 105 0
  16 0000 3D200000 		lis 9,_ZTVN7sigslot15single_threadedE+8@ha
  17              	.LBE1771:
  18              		.loc 1 107 0
  19              	.LBB1772:
  20              		.loc 1 105 0
  21 0004 38090008 		la 0,_ZTVN7sigslot15single_threadedE+8@l(9)
  22 0008 90030000 		stw 0,0(3)
  23              	.LBE1772:
  24              		.loc 1 107 0
  25 000c 4E800020 		blr
  26              		.cfi_endproc
  27              	.LFE1148:
  28              		.size	_ZN7sigslot15single_threadedD2Ev, .-_ZN7sigslot15single_threadedD2Ev
  29              		.section	.text._ZN7sigslot15single_threaded4lockEv,"axG",@progbits,_ZN7sigslot15single_threaded4lo
  30              		.align 2
  31              		.weak	_ZN7sigslot15single_threaded4lockEv
  32              		.type	_ZN7sigslot15single_threaded4lockEv, @function
  33              	_ZN7sigslot15single_threaded4lockEv:
  34              	.LFB1151:
  35              		.loc 1 109 0
  36              		.cfi_startproc
  37              	.LVL1:
  38              		.loc 1 112 0
  39 0000 4E800020 		blr
  40              		.cfi_endproc
  41              	.LFE1151:
  42              		.size	_ZN7sigslot15single_threaded4lockEv, .-_ZN7sigslot15single_threaded4lockEv
  43              		.section	.text._ZN7sigslot15single_threaded6unlockEv,"axG",@progbits,_ZN7sigslot15single_threaded6
  44              		.align 2
  45              		.weak	_ZN7sigslot15single_threaded6unlockEv
  46              		.type	_ZN7sigslot15single_threaded6unlockEv, @function
  47              	_ZN7sigslot15single_threaded6unlockEv:
  48              	.LFB1152:
  49              		.loc 1 114 0
  50              		.cfi_startproc
  51              	.LVL2:
  52              		.loc 1 117 0
  53 0000 4E800020 		blr
  54              		.cfi_endproc
  55              	.LFE1152:
  56              		.size	_ZN7sigslot15single_threaded6unlockEv, .-_ZN7sigslot15single_threaded6unlockEv
  57              		.section	.text._ZN10GuiElement9SetParentEPS_,"axG",@progbits,_ZN10GuiElement9SetParentEPS_,comdat
  58              		.align 2
  59              		.weak	_ZN10GuiElement9SetParentEPS_
  60              		.type	_ZN10GuiElement9SetParentEPS_, @function
  61              	_ZN10GuiElement9SetParentEPS_:
  62              	.LFB1384:
  63              		.file 2 "d:/Projects/SaveGameManager/savegame-manager-gx/trunk/source/Settings/menus/../../GUI/gui
  64              		.loc 2 92 0
  65              		.cfi_startproc
  66              	.LVL3:
  67              		.loc 2 92 0
  68 0000 90830060 		stw 4,96(3)
  69 0004 4E800020 		blr
  70              		.cfi_endproc
  71              	.LFE1384:
  72              		.size	_ZN10GuiElement9SetParentEPS_, .-_ZN10GuiElement9SetParentEPS_
  73              		.section	.text._ZN10GuiElement9GetParentEv,"axG",@progbits,_ZN10GuiElement9GetParentEv,comdat
  74              		.align 2
  75              		.weak	_ZN10GuiElement9GetParentEv
  76              		.type	_ZN10GuiElement9GetParentEv, @function
  77              	_ZN10GuiElement9GetParentEv:
  78              	.LFB1385:
  79              		.loc 2 95 0
  80              		.cfi_startproc
  81              	.LVL4:
  82              		.loc 2 95 0
  83 0000 80630060 		lwz 3,96(3)
  84              	.LVL5:
  85 0004 4E800020 		blr
  86              		.cfi_endproc
  87              	.LFE1385:
  88              		.size	_ZN10GuiElement9GetParentEv, .-_ZN10GuiElement9GetParentEv
  89              		.section	.text._ZN10GuiElement12GetZPositionEv,"axG",@progbits,_ZN10GuiElement12GetZPositionEv,com
  90              		.align 2
  91              		.weak	_ZN10GuiElement12GetZPositionEv
  92              		.type	_ZN10GuiElement12GetZPositionEv, @function
  93              	_ZN10GuiElement12GetZPositionEv:
  94              	.LFB1386:
  95              		.loc 2 106 0
  96              		.cfi_startproc
  97              	.LVL6:
  98 0000 7C0802A6 		mflr 0
  99 0004 9421FFF0 		stwu 1,-16(1)
 100              	.LCFI0:
 101              		.cfi_def_cfa_offset 16
 102              		.cfi_register 65, 0
 103 0008 93E1000C 		stw 31,12(1)
 104 000c 7C7F1B78 		mr 31,3
 105              		.cfi_offset 31, -4
 106 0010 90010014 		stw 0,20(1)
 107              	.LBB1773:
 108              		.loc 2 110 0
 109 0014 81630060 		lwz 11,96(3)
 110              		.loc 2 108 0
 111 0018 38600000 		li 3,0
 112              	.LVL7:
 113              		.loc 2 110 0
 114 001c 2F8B0000 		cmpwi 7,11,0
 115 0020 419E0018 		beq- 7,.L8
 116              		.cfi_offset 65, 4
 117              		.loc 2 111 0
 118 0024 812B0000 		lwz 9,0(11)
 119 0028 7D635B78 		mr 3,11
 120 002c 80090018 		lwz 0,24(9)
 121 0030 7C0903A6 		mtctr 0
 122 0034 4E800421 		bctrl
 123              	.LVL8:
 124              	.L8:
 125              		.loc 2 113 0
 126 0038 801F0034 		lwz 0,52(31)
 127              	.LBE1773:
 128              		.loc 2 114 0
 129 003c 83E1000C 		lwz 31,12(1)
 130              	.LVL9:
 131 0040 7C630214 		add 3,3,0
 132              	.LVL10:
 133 0044 80010014 		lwz 0,20(1)
 134 0048 38210010 		addi 1,1,16
 135              	.LCFI1:
 136              		.cfi_def_cfa_offset 0
 137              		.cfi_restore 31
 138 004c 7C0803A6 		mtlr 0
 139 0050 4E800020 		blr
 140              		.cfi_endproc
 141              	.LFE1386:
 142              		.size	_ZN10GuiElement12GetZPositionEv, .-_ZN10GuiElement12GetZPositionEv
 143              		.section	.text._ZN10GuiElement10GetLeftPosEv,"axG",@progbits,_ZN10GuiElement10GetLeftPosEv,comdat
 144              		.align 2
 145              		.weak	_ZN10GuiElement10GetLeftPosEv
 146              		.type	_ZN10GuiElement10GetLeftPosEv, @function
 147              	_ZN10GuiElement10GetLeftPosEv:
 148              	.LFB1387:
 149              		.loc 2 116 0
 150              		.cfi_startproc
 151              	.LVL11:
 152              		.loc 2 116 0
 153 0000 8063002C 		lwz 3,44(3)
 154              	.LVL12:
 155 0004 4E800020 		blr
 156              		.cfi_endproc
 157              	.LFE1387:
 158              		.size	_ZN10GuiElement10GetLeftPosEv, .-_ZN10GuiElement10GetLeftPosEv
 159              		.section	.text._ZN10GuiElement9GetTopPosEv,"axG",@progbits,_ZN10GuiElement9GetTopPosEv,comdat
 160              		.align 2
 161              		.weak	_ZN10GuiElement9GetTopPosEv
 162              		.type	_ZN10GuiElement9GetTopPosEv, @function
 163              	_ZN10GuiElement9GetTopPosEv:
 164              	.LFB1388:
 165              		.loc 2 118 0
 166              		.cfi_startproc
 167              	.LVL13:
 168              		.loc 2 118 0
 169 0000 80630030 		lwz 3,48(3)
 170              	.LVL14:
 171 0004 4E800020 		blr
 172              		.cfi_endproc
 173              	.LFE1388:
 174              		.size	_ZN10GuiElement9GetTopPosEv, .-_ZN10GuiElement9GetTopPosEv
 175              		.section	.text._ZN10GuiElement8GetWidthEv,"axG",@progbits,_ZN10GuiElement8GetWidthEv,comdat
 176              		.align 2
 177              		.weak	_ZN10GuiElement8GetWidthEv
 178              		.type	_ZN10GuiElement8GetWidthEv, @function
 179              	_ZN10GuiElement8GetWidthEv:
 180              	.LFB1389:
 181              		.loc 2 121 0
 182              		.cfi_startproc
 183              	.LVL15:
 184              		.loc 2 121 0
 185 0000 80630024 		lwz 3,36(3)
 186              	.LVL16:
 187 0004 4E800020 		blr
 188              		.cfi_endproc
 189              	.LFE1389:
 190              		.size	_ZN10GuiElement8GetWidthEv, .-_ZN10GuiElement8GetWidthEv
 191              		.section	.text._ZN10GuiElement9GetHeightEv,"axG",@progbits,_ZN10GuiElement9GetHeightEv,comdat
 192              		.align 2
 193              		.weak	_ZN10GuiElement9GetHeightEv
 194              		.type	_ZN10GuiElement9GetHeightEv, @function
 195              	_ZN10GuiElement9GetHeightEv:
 196              	.LFB1390:
 197              		.loc 2 124 0
 198              		.cfi_startproc
 199              	.LVL17:
 200              		.loc 2 124 0
 201 0000 80630028 		lwz 3,40(3)
 202              	.LVL18:
 203 0004 4E800020 		blr
 204              		.cfi_endproc
 205              	.LFE1390:
 206              		.size	_ZN10GuiElement9GetHeightEv, .-_ZN10GuiElement9GetHeightEv
 207              		.section	.text._ZN10GuiElement7SetSizeEii,"axG",@progbits,_ZN10GuiElement7SetSizeEii,comdat
 208              		.align 2
 209              		.weak	_ZN10GuiElement7SetSizeEii
 210              		.type	_ZN10GuiElement7SetSizeEii, @function
 211              	_ZN10GuiElement7SetSizeEii:
 212              	.LFB1391:
 213              		.loc 2 128 0
 214              		.cfi_startproc
 215              	.LVL19:
 216              		.loc 2 130 0
 217 0000 90830024 		stw 4,36(3)
 218              		.loc 2 132 0
 219              		.loc 2 131 0
 220 0004 90A30028 		stw 5,40(3)
 221              		.loc 2 132 0
 222 0008 4E800020 		blr
 223              		.cfi_endproc
 224              	.LFE1391:
 225              		.size	_ZN10GuiElement7SetSizeEii, .-_ZN10GuiElement7SetSizeEii
 226              		.section	.text._ZN10GuiElement9IsVisibleEv,"axG",@progbits,_ZN10GuiElement9IsVisibleEv,comdat
 227              		.align 2
 228              		.weak	_ZN10GuiElement9IsVisibleEv
 229              		.type	_ZN10GuiElement9IsVisibleEv, @function
 230              	_ZN10GuiElement9IsVisibleEv:
 231              	.LFB1393:
 232              		.loc 2 142 0
 233              		.cfi_startproc
 234              	.LVL20:
 235              		.loc 2 142 0
 236 0000 8863001D 		lbz 3,29(3)
 237              	.LVL21:
 238 0004 4E800020 		blr
 239              		.cfi_endproc
 240              	.LFE1393:
 241              		.size	_ZN10GuiElement9IsVisibleEv, .-_ZN10GuiElement9IsVisibleEv
 242              		.section	.text._ZN10GuiElement12IsSelectableEv,"axG",@progbits,_ZN10GuiElement12IsSelectableEv,com
 243              		.align 2
 244              		.weak	_ZN10GuiElement12IsSelectableEv
 245              		.type	_ZN10GuiElement12IsSelectableEv, @function
 246              	_ZN10GuiElement12IsSelectableEv:
 247              	.LFB1394:
 248              		.loc 2 145 0
 249              		.cfi_startproc
 250              	.LVL22:
 251              		.loc 2 149 0
 252 0000 80030048 		lwz 0,72(3)
 253 0004 39200000 		li 9,0
 254 0008 2F800004 		cmpwi 7,0,4
 255 000c 419E0010 		beq- 7,.L18
 256              		.loc 2 149 0 is_stmt 0 discriminator 1
 257 0010 2F800002 		cmpwi 7,0,2
 258 0014 419E0008 		beq- 7,.L18
 259              		.loc 2 149 0 discriminator 3
 260 0018 8923001E 		lbz 9,30(3)
 261              	.L18:
 262              		.loc 2 150 0 is_stmt 1 discriminator 5
 263 001c 7D234B78 		mr 3,9
 264              	.LVL23:
 265 0020 4E800020 		blr
 266              		.cfi_endproc
 267              	.LFE1394:
 268              		.size	_ZN10GuiElement12IsSelectableEv, .-_ZN10GuiElement12IsSelectableEv
 269              		.section	.text._ZN10GuiElement11IsClickableEv,"axG",@progbits,_ZN10GuiElement11IsClickableEv,comda
 270              		.align 2
 271              		.weak	_ZN10GuiElement11IsClickableEv
 272              		.type	_ZN10GuiElement11IsClickableEv, @function
 273              	_ZN10GuiElement11IsClickableEv:
 274              	.LFB1395:
 275              		.loc 2 153 0
 276              		.cfi_startproc
 277              	.LVL24:
 278              		.loc 2 158 0
 279 0000 80030048 		lwz 0,72(3)
 280 0004 39200000 		li 9,0
 281 0008 2F800004 		cmpwi 7,0,4
 282 000c 419E0018 		beq- 7,.L22
 283              		.loc 2 158 0 is_stmt 0 discriminator 1
 284 0010 2F800002 		cmpwi 7,0,2
 285 0014 419E0010 		beq- 7,.L22
 286              		.loc 2 158 0 discriminator 3
 287 0018 2F800003 		cmpwi 7,0,3
 288 001c 419E0008 		beq- 7,.L22
 289              		.loc 2 158 0 discriminator 4
 290 0020 8923001F 		lbz 9,31(3)
 291              	.L22:
 292              		.loc 2 159 0 is_stmt 1 discriminator 6
 293 0024 7D234B78 		mr 3,9
 294              	.LVL25:
 295 0028 4E800020 		blr
 296              		.cfi_endproc
 297              	.LFE1395:
 298              		.size	_ZN10GuiElement11IsClickableEv, .-_ZN10GuiElement11IsClickableEv
 299              		.section	.text._ZN10GuiElement10IsHoldableEv,"axG",@progbits,_ZN10GuiElement10IsHoldableEv,comdat
 300              		.align 2
 301              		.weak	_ZN10GuiElement10IsHoldableEv
 302              		.type	_ZN10GuiElement10IsHoldableEv, @function
 303              	_ZN10GuiElement10IsHoldableEv:
 304              	.LFB1396:
 305              		.loc 2 162 0
 306              		.cfi_startproc
 307              	.LVL26:
 308              		.loc 2 162 0
 309 0000 81230048 		lwz 9,72(3)
 310 0004 38000000 		li 0,0
 311 0008 2F890004 		cmpwi 7,9,4
 312 000c 419E0008 		beq- 7,.L27
 313              		.loc 2 162 0 is_stmt 0 discriminator 1
 314 0010 88030020 		lbz 0,32(3)
 315              	.L27:
 316              		.loc 2 162 0 discriminator 4
 317 0014 7C030378 		mr 3,0
 318              	.LVL27:
 319 0018 4E800020 		blr
 320              		.cfi_endproc
 321              	.LFE1396:
 322              		.size	_ZN10GuiElement10IsHoldableEv, .-_ZN10GuiElement10IsHoldableEv
 323              		.section	.text._ZN10GuiElement13SetSelectableEb,"axG",@progbits,_ZN10GuiElement13SetSelectableEb,c
 324              		.align 2
 325              		.weak	_ZN10GuiElement13SetSelectableEb
 326              		.type	_ZN10GuiElement13SetSelectableEb, @function
 327              	_ZN10GuiElement13SetSelectableEb:
 328              	.LFB1397:
 329              		.loc 2 165 0 is_stmt 1
 330              		.cfi_startproc
 331              	.LVL28:
 332              		.loc 2 165 0
 333 0000 9883001E 		stb 4,30(3)
 334 0004 4E800020 		blr
 335              		.cfi_endproc
 336              	.LFE1397:
 337              		.size	_ZN10GuiElement13SetSelectableEb, .-_ZN10GuiElement13SetSelectableEb
 338              		.section	.text._ZN10GuiElement12SetClickableEb,"axG",@progbits,_ZN10GuiElement12SetClickableEb,com
 339              		.align 2
 340              		.weak	_ZN10GuiElement12SetClickableEb
 341              		.type	_ZN10GuiElement12SetClickableEb, @function
 342              	_ZN10GuiElement12SetClickableEb:
 343              	.LFB1398:
 344              		.loc 2 168 0
 345              		.cfi_startproc
 346              	.LVL29:
 347              		.loc 2 168 0
 348 0000 9883001F 		stb 4,31(3)
 349 0004 4E800020 		blr
 350              		.cfi_endproc
 351              	.LFE1398:
 352              		.size	_ZN10GuiElement12SetClickableEb, .-_ZN10GuiElement12SetClickableEb
 353              		.section	.text._ZN10GuiElement11SetHoldableEb,"axG",@progbits,_ZN10GuiElement11SetHoldableEb,comda
 354              		.align 2
 355              		.weak	_ZN10GuiElement11SetHoldableEb
 356              		.type	_ZN10GuiElement11SetHoldableEb, @function
 357              	_ZN10GuiElement11SetHoldableEb:
 358              	.LFB1399:
 359              		.loc 2 171 0
 360              		.cfi_startproc
 361              	.LVL30:
 362              		.loc 2 171 0
 363 0000 98830020 		stb 4,32(3)
 364 0004 4E800020 		blr
 365              		.cfi_endproc
 366              	.LFE1399:
 367              		.size	_ZN10GuiElement11SetHoldableEb, .-_ZN10GuiElement11SetHoldableEb
 368              		.section	.text._ZN10GuiElement8GetStateEv,"axG",@progbits,_ZN10GuiElement8GetStateEv,comdat
 369              		.align 2
 370              		.weak	_ZN10GuiElement8GetStateEv
 371              		.type	_ZN10GuiElement8GetStateEv, @function
 372              	_ZN10GuiElement8GetStateEv:
 373              	.LFB1400:
 374              		.loc 2 178 0
 375              		.cfi_startproc
 376              	.LVL31:
 377              		.loc 2 178 0
 378 0000 80630048 		lwz 3,72(3)
 379              	.LVL32:
 380 0004 4E800020 		blr
 381              		.cfi_endproc
 382              	.LFE1400:
 383              		.size	_ZN10GuiElement8GetStateEv, .-_ZN10GuiElement8GetStateEv
 384              		.section	.text._ZN10GuiElement12GetStateChanEv,"axG",@progbits,_ZN10GuiElement12GetStateChanEv,com
 385              		.align 2
 386              		.weak	_ZN10GuiElement12GetStateChanEv
 387              		.type	_ZN10GuiElement12GetStateChanEv, @function
 388              	_ZN10GuiElement12GetStateChanEv:
 389              	.LFB1401:
 390              		.loc 2 181 0
 391              		.cfi_startproc
 392              	.LVL33:
 393              		.loc 2 181 0
 394 0000 8063004C 		lwz 3,76(3)
 395              	.LVL34:
 396 0004 4E800020 		blr
 397              		.cfi_endproc
 398              	.LFE1401:
 399              		.size	_ZN10GuiElement12GetStateChanEv, .-_ZN10GuiElement12GetStateChanEv
 400              		.section	.text._ZN10GuiElement8SetAlphaEi,"axG",@progbits,_ZN10GuiElement8SetAlphaEi,comdat
 401              		.align 2
 402              		.weak	_ZN10GuiElement8SetAlphaEi
 403              		.type	_ZN10GuiElement8SetAlphaEi, @function
 404              	_ZN10GuiElement8SetAlphaEi:
 405              	.LFB1403:
 406              		.loc 2 190 0
 407              		.cfi_startproc
 408              	.LVL35:
 409              		.loc 2 190 0
 410 0000 90830038 		stw 4,56(3)
 411 0004 4E800020 		blr
 412              		.cfi_endproc
 413              	.LFE1403:
 414              		.size	_ZN10GuiElement8SetAlphaEi, .-_ZN10GuiElement8SetAlphaEi
 415              		.section	.text._ZN10GuiElement8GetAlphaEv,"axG",@progbits,_ZN10GuiElement8GetAlphaEv,comdat
 416              		.align 2
 417              		.weak	_ZN10GuiElement8GetAlphaEv
 418              		.type	_ZN10GuiElement8GetAlphaEv, @function
 419              	_ZN10GuiElement8GetAlphaEv:
 420              	.LFB1404:
 421              		.loc 2 194 0
 422              		.cfi_startproc
 423              	.LVL36:
 424 0000 7C0802A6 		mflr 0
 425 0004 9421FFD8 		stwu 1,-40(1)
 426              	.LCFI2:
 427              		.cfi_def_cfa_offset 40
 428              		.cfi_register 65, 0
 429 0008 93E10024 		stw 31,36(1)
 430 000c 9001002C 		stw 0,44(1)
 431              	.LBB1774:
 432              		.loc 2 198 0
 433 0010 83E3006C 		lwz 31,108(3)
 434              		.cfi_offset 65, 4
 435              		.cfi_offset 31, -4
 436 0014 2F9F0000 		cmpwi 7,31,0
 437 0018 419C0094 		blt- 7,.L38
 438              	.L36:
 439              	.LVL37:
 440              		.loc 2 203 0
 441 001c 80630060 		lwz 3,96(3)
 442              	.LVL38:
 443 0020 2F830000 		cmpwi 7,3,0
 444 0024 419E0070 		beq- 7,.L37
 445              		.loc 2 204 0
 446 0028 81230000 		lwz 9,0(3)
 447 002c 6FFF8000 		xoris 31,31,0x8000
 448              	.LVL39:
 449 0030 80090064 		lwz 0,100(9)
 450 0034 7C0903A6 		mtctr 0
 451 0038 4E800421 		bctrl
 452 003c 3C004330 		lis 0,0x4330
 453 0040 6C638000 		xoris 3,3,0x8000
 454 0044 90010010 		stw 0,16(1)
 455 0048 90610014 		stw 3,20(1)
 456 004c 3D200000 		lis 9,.LC1@ha
 457 0050 C0090000 		lfs 0,.LC1@l(9)
 458 0054 3D200000 		lis 9,.LC2@ha
 459 0058 C9A10010 		lfd 13,16(1)
 460 005c C1890004 		lfs 12,.LC2@l(9)
 461 0060 39210018 		addi 9,1,24
 462 0064 FDAD0028 		fsub 13,13,0
 463 0068 93E1000C 		stw 31,12(1)
 464 006c 90010008 		stw 0,8(1)
 465 0070 FDA06818 		frsp 13,13
 466 0074 EDAD6024 		fdivs 13,13,12
 467 0078 C9810008 		lfd 12,8(1)
 468 007c FC0C0028 		fsub 0,12,0
 469 0080 FC000018 		frsp 0,0
 470 0084 EC000372 		fmuls 0,0,13
 471 0088 FC00001E 		fctiwz 0,0
 472 008c 7C004FAE 		stfiwx 0,0,9
 473 0090 83E10018 		lwz 31,24(1)
 474              	.LVL40:
 475              	.L37:
 476              	.LBE1774:
 477              		.loc 2 207 0
 478 0094 8001002C 		lwz 0,44(1)
 479 0098 7FE3FB78 		mr 3,31
 480 009c 83E10024 		lwz 31,36(1)
 481              	.LVL41:
 482 00a0 7C0803A6 		mtlr 0
 483 00a4 38210028 		addi 1,1,40
 484              		.cfi_remember_state
 485              	.LCFI3:
 486              		.cfi_def_cfa_offset 0
 487              		.cfi_restore 31
 488 00a8 4E800020 		blr
 489              	.LVL42:
 490              	.L38:
 491              	.LCFI4:
 492              		.cfi_restore_state
 493              	.LBB1775:
 494              		.loc 2 201 0
 495 00ac 83E30038 		lwz 31,56(3)
 496              	.LVL43:
 497 00b0 4BFFFF6C 		b .L36
 498              	.LBE1775:
 499              		.cfi_endproc
 500              	.LFE1404:
 501              		.size	_ZN10GuiElement8GetAlphaEv, .-_ZN10GuiElement8GetAlphaEv
 502              		.section	.text._ZN10GuiElement8SetScaleEf,"axG",@progbits,_ZN10GuiElement8SetScaleEf,comdat
 503              		.align 2
 504              		.weak	_ZN10GuiElement8SetScaleEf
 505              		.type	_ZN10GuiElement8SetScaleEf, @function
 506              	_ZN10GuiElement8SetScaleEf:
 507              	.LFB1405:
 508              		.loc 2 210 0
 509              		.cfi_startproc
 510              	.LVL44:
 511              		.loc 2 212 0
 512 0000 D023003C 		stfs 1,60(3)
 513              		.loc 2 214 0
 514              		.loc 2 213 0
 515 0004 D0230040 		stfs 1,64(3)
 516              		.loc 2 214 0
 517 0008 4E800020 		blr
 518              		.cfi_endproc
 519              	.LFE1405:
 520              		.size	_ZN10GuiElement8SetScaleEf, .-_ZN10GuiElement8SetScaleEf
 521              		.section	.text._ZN10GuiElement9SetScaleXEf,"axG",@progbits,_ZN10GuiElement9SetScaleXEf,comdat
 522              		.align 2
 523              		.weak	_ZN10GuiElement9SetScaleXEf
 524              		.type	_ZN10GuiElement9SetScaleXEf, @function
 525              	_ZN10GuiElement9SetScaleXEf:
 526              	.LFB1406:
 527              		.loc 2 217 0
 528              		.cfi_startproc
 529              	.LVL45:
 530              		.loc 2 217 0
 531 0000 D023003C 		stfs 1,60(3)
 532 0004 4E800020 		blr
 533              		.cfi_endproc
 534              	.LFE1406:
 535              		.size	_ZN10GuiElement9SetScaleXEf, .-_ZN10GuiElement9SetScaleXEf
 536              		.section	.text._ZN10GuiElement9SetScaleYEf,"axG",@progbits,_ZN10GuiElement9SetScaleYEf,comdat
 537              		.align 2
 538              		.weak	_ZN10GuiElement9SetScaleYEf
 539              		.type	_ZN10GuiElement9SetScaleYEf, @function
 540              	_ZN10GuiElement9SetScaleYEf:
 541              	.LFB1407:
 542              		.loc 2 220 0
 543              		.cfi_startproc
 544              	.LVL46:
 545              		.loc 2 220 0
 546 0000 D0230040 		stfs 1,64(3)
 547 0004 4E800020 		blr
 548              		.cfi_endproc
 549              	.LFE1407:
 550              		.size	_ZN10GuiElement9SetScaleYEf, .-_ZN10GuiElement9SetScaleYEf
 551              		.section	.text._ZN10GuiElement8GetScaleEv,"axG",@progbits,_ZN10GuiElement8GetScaleEv,comdat
 552              		.align 2
 553              		.weak	_ZN10GuiElement8GetScaleEv
 554              		.type	_ZN10GuiElement8GetScaleEv, @function
 555              	_ZN10GuiElement8GetScaleEv:
 556              	.LFB1408:
 557              		.loc 2 223 0
 558              		.cfi_startproc
 559              	.LVL47:
 560 0000 7C0802A6 		mflr 0
 561 0004 9421FFF0 		stwu 1,-16(1)
 562              	.LCFI5:
 563              		.cfi_def_cfa_offset 16
 564              		.cfi_register 65, 0
 565              	.LBB1776:
 566              		.loc 2 225 0
 567 0008 3D200000 		lis 9,.LC3@ha
 568              	.LBE1776:
 569              		.loc 2 223 0
 570 000c DBE10008 		stfd 31,8(1)
 571 0010 90010014 		stw 0,20(1)
 572              	.LBB1777:
 573              		.loc 2 225 0
 574 0014 C0030040 		lfs 0,64(3)
 575 0018 C3E3003C 		lfs 31,60(3)
 576              		.cfi_offset 65, 4
 577              		.cfi_offset 63, -8
 578              		.loc 2 227 0
 579 001c 81630060 		lwz 11,96(3)
 580              		.loc 2 225 0
 581 0020 EFFF002A 		fadds 31,31,0
 582 0024 C0090008 		lfs 0,.LC3@l(9)
 583              		.loc 2 227 0
 584 0028 2F8B0000 		cmpwi 7,11,0
 585              		.loc 2 225 0
 586 002c EFFF0032 		fmuls 31,31,0
 587 0030 C0030070 		lfs 0,112(3)
 588 0034 EFFF0032 		fmuls 31,31,0
 589              	.LVL48:
 590              		.loc 2 227 0
 591 0038 419E001C 		beq- 7,.L43
 592              		.loc 2 228 0
 593 003c 812B0000 		lwz 9,0(11)
 594 0040 7D635B78 		mr 3,11
 595              	.LVL49:
 596 0044 80090074 		lwz 0,116(9)
 597 0048 7C0903A6 		mtctr 0
 598 004c 4E800421 		bctrl
 599 0050 EFFF0072 		fmuls 31,31,1
 600              	.LVL50:
 601              	.L43:
 602              	.LBE1777:
 603              		.loc 2 231 0
 604 0054 80010014 		lwz 0,20(1)
 605 0058 FC20F890 		fmr 1,31
 606 005c CBE10008 		lfd 31,8(1)
 607              	.LVL51:
 608 0060 7C0803A6 		mtlr 0
 609 0064 38210010 		addi 1,1,16
 610              	.LCFI6:
 611              		.cfi_def_cfa_offset 0
 612              		.cfi_restore 63
 613 0068 4E800020 		blr
 614              		.cfi_endproc
 615              	.LFE1408:
 616              		.size	_ZN10GuiElement8GetScaleEv, .-_ZN10GuiElement8GetScaleEv
 617              		.section	.text._ZN10GuiElement9GetScaleXEv,"axG",@progbits,_ZN10GuiElement9GetScaleXEv,comdat
 618              		.align 2
 619              		.weak	_ZN10GuiElement9GetScaleXEv
 620              		.type	_ZN10GuiElement9GetScaleXEv, @function
 621              	_ZN10GuiElement9GetScaleXEv:
 622              	.LFB1409:
 623              		.loc 2 234 0
 624              		.cfi_startproc
 625              	.LVL52:
 626 0000 7C0802A6 		mflr 0
 627 0004 9421FFF0 		stwu 1,-16(1)
 628              	.LCFI7:
 629              		.cfi_def_cfa_offset 16
 630              		.cfi_register 65, 0
 631 0008 DBE10008 		stfd 31,8(1)
 632 000c 90010014 		stw 0,20(1)
 633              	.LBB1778:
 634              		.loc 2 238 0
 635 0010 81630060 		lwz 11,96(3)
 636              		.loc 2 236 0
 637 0014 C3E3003C 		lfs 31,60(3)
 638              		.cfi_offset 65, 4
 639              		.cfi_offset 63, -8
 640              		.loc 2 238 0
 641 0018 2F8B0000 		cmpwi 7,11,0
 642              		.loc 2 236 0
 643 001c C0030070 		lfs 0,112(3)
 644 0020 EFFF0032 		fmuls 31,31,0
 645              	.LVL53:
 646              		.loc 2 238 0
 647 0024 419E001C 		beq- 7,.L45
 648              		.loc 2 239 0
 649 0028 812B0000 		lwz 9,0(11)
 650 002c 7D635B78 		mr 3,11
 651              	.LVL54:
 652 0030 80090078 		lwz 0,120(9)
 653 0034 7C0903A6 		mtctr 0
 654 0038 4E800421 		bctrl
 655 003c EFFF0072 		fmuls 31,31,1
 656              	.LVL55:
 657              	.L45:
 658              	.LBE1778:
 659              		.loc 2 242 0
 660 0040 80010014 		lwz 0,20(1)
 661 0044 FC20F890 		fmr 1,31
 662 0048 CBE10008 		lfd 31,8(1)
 663              	.LVL56:
 664 004c 7C0803A6 		mtlr 0
 665 0050 38210010 		addi 1,1,16
 666              	.LCFI8:
 667              		.cfi_def_cfa_offset 0
 668              		.cfi_restore 63
 669 0054 4E800020 		blr
 670              		.cfi_endproc
 671              	.LFE1409:
 672              		.size	_ZN10GuiElement9GetScaleXEv, .-_ZN10GuiElement9GetScaleXEv
 673              		.section	.text._ZN10GuiElement9GetScaleYEv,"axG",@progbits,_ZN10GuiElement9GetScaleYEv,comdat
 674              		.align 2
 675              		.weak	_ZN10GuiElement9GetScaleYEv
 676              		.type	_ZN10GuiElement9GetScaleYEv, @function
 677              	_ZN10GuiElement9GetScaleYEv:
 678              	.LFB1410:
 679              		.loc 2 245 0
 680              		.cfi_startproc
 681              	.LVL57:
 682 0000 7C0802A6 		mflr 0
 683 0004 9421FFF0 		stwu 1,-16(1)
 684              	.LCFI9:
 685              		.cfi_def_cfa_offset 16
 686              		.cfi_register 65, 0
 687 0008 DBE10008 		stfd 31,8(1)
 688 000c 90010014 		stw 0,20(1)
 689              	.LBB1779:
 690              		.loc 2 249 0
 691 0010 81630060 		lwz 11,96(3)
 692              		.loc 2 247 0
 693 0014 C3E30040 		lfs 31,64(3)
 694              		.cfi_offset 65, 4
 695              		.cfi_offset 63, -8
 696              		.loc 2 249 0
 697 0018 2F8B0000 		cmpwi 7,11,0
 698              		.loc 2 247 0
 699 001c C0030070 		lfs 0,112(3)
 700 0020 EFFF0032 		fmuls 31,31,0
 701              	.LVL58:
 702              		.loc 2 249 0
 703 0024 419E001C 		beq- 7,.L47
 704              		.loc 2 250 0
 705 0028 812B0000 		lwz 9,0(11)
 706 002c 7D635B78 		mr 3,11
 707              	.LVL59:
 708 0030 8009007C 		lwz 0,124(9)
 709 0034 7C0903A6 		mtctr 0
 710 0038 4E800421 		bctrl
 711 003c EFFF0072 		fmuls 31,31,1
 712              	.LVL60:
 713              	.L47:
 714              	.LBE1779:
 715              		.loc 2 253 0
 716 0040 80010014 		lwz 0,20(1)
 717 0044 FC20F890 		fmr 1,31
 718 0048 CBE10008 		lfd 31,8(1)
 719              	.LVL61:
 720 004c 7C0803A6 		mtlr 0
 721 0050 38210010 		addi 1,1,16
 722              	.LCFI10:
 723              		.cfi_def_cfa_offset 0
 724              		.cfi_restore 63
 725 0054 4E800020 		blr
 726              		.cfi_endproc
 727              	.LFE1410:
 728              		.size	_ZN10GuiElement9GetScaleYEv, .-_ZN10GuiElement9GetScaleYEv
 729              		.section	.text._ZN10GuiElement6RumbleEv,"axG",@progbits,_ZN10GuiElement6RumbleEv,comdat
 730              		.align 2
 731              		.weak	_ZN10GuiElement6RumbleEv
 732              		.type	_ZN10GuiElement6RumbleEv, @function
 733              	_ZN10GuiElement6RumbleEv:
 734              	.LFB1411:
 735              		.loc 2 256 0
 736              		.cfi_startproc
 737              	.LVL62:
 738              		.loc 2 256 0
 739 0000 8863001C 		lbz 3,28(3)
 740              	.LVL63:
 741 0004 4E800020 		blr
 742              		.cfi_endproc
 743              	.LFE1411:
 744              		.size	_ZN10GuiElement6RumbleEv, .-_ZN10GuiElement6RumbleEv
 745              		.section	.text._ZN10GuiElement9SetRumbleEb,"axG",@progbits,_ZN10GuiElement9SetRumbleEb,comdat
 746              		.align 2
 747              		.weak	_ZN10GuiElement9SetRumbleEb
 748              		.type	_ZN10GuiElement9SetRumbleEb, @function
 749              	_ZN10GuiElement9SetRumbleEb:
 750              	.LFB1412:
 751              		.loc 2 259 0
 752              		.cfi_startproc
 753              	.LVL64:
 754              		.loc 2 259 0
 755 0000 9883001C 		stb 4,28(3)
 756 0004 4E800020 		blr
 757              		.cfi_endproc
 758              	.LFE1412:
 759              		.size	_ZN10GuiElement9SetRumbleEb, .-_ZN10GuiElement9SetRumbleEb
 760              		.section	.text._ZN10GuiElement13SetEffectGrowEv,"axG",@progbits,_ZN10GuiElement13SetEffectGrowEv,c
 761              		.align 2
 762              		.weak	_ZN10GuiElement13SetEffectGrowEv
 763              		.type	_ZN10GuiElement13SetEffectGrowEv, @function
 764              	_ZN10GuiElement13SetEffectGrowEv:
 765              	.LFB1413:
 766              		.loc 2 271 0
 767              		.cfi_startproc
 768              	.LVL65:
 769 0000 7C0802A6 		mflr 0
 770 0004 9421FFF8 		stwu 1,-8(1)
 771              	.LCFI11:
 772              		.cfi_def_cfa_offset 8
 773              		.cfi_register 65, 0
 774 0008 81230000 		lwz 9,0(3)
 775 000c 38800100 		li 4,256
 776 0010 38A00004 		li 5,4
 777 0014 38C0006E 		li 6,110
 778 0018 9001000C 		stw 0,12(1)
 779              		.loc 2 271 0
 780 001c 8009008C 		lwz 0,140(9)
 781              		.cfi_offset 65, 4
 782 0020 7C0903A6 		mtctr 0
 783 0024 4E800421 		bctrl
 784              	.LVL66:
 785 0028 8001000C 		lwz 0,12(1)
 786 002c 38210008 		addi 1,1,8
 787              	.LCFI12:
 788              		.cfi_def_cfa_offset 0
 789 0030 7C0803A6 		mtlr 0
 790 0034 4E800020 		blr
 791              		.cfi_endproc
 792              	.LFE1413:
 793              		.size	_ZN10GuiElement13SetEffectGrowEv, .-_ZN10GuiElement13SetEffectGrowEv
 794              		.section	.text._ZNK10GuiElement9GetEffectEv,"axG",@progbits,_ZNK10GuiElement9GetEffectEv,comdat
 795              		.align 2
 796              		.weak	_ZNK10GuiElement9GetEffectEv
 797              		.type	_ZNK10GuiElement9GetEffectEv, @function
 798              	_ZNK10GuiElement9GetEffectEv:
 799              	.LFB1414:
 800              		.loc 2 276 0
 801              		.cfi_startproc
 802              	.LVL67:
 803              		.loc 2 276 0
 804 0000 80630078 		lwz 3,120(3)
 805              	.LVL68:
 806 0004 4E800020 		blr
 807              		.cfi_endproc
 808              	.LFE1414:
 809              		.size	_ZNK10GuiElement9GetEffectEv, .-_ZNK10GuiElement9GetEffectEv
 810              		.section	.text._ZNK10GuiElement10IsAnimatedEv,"axG",@progbits,_ZNK10GuiElement10IsAnimatedEv,comda
 811              		.align 2
 812              		.weak	_ZNK10GuiElement10IsAnimatedEv
 813              		.type	_ZNK10GuiElement10IsAnimatedEv, @function
 814              	_ZNK10GuiElement10IsAnimatedEv:
 815              	.LFB1415:
 816              		.loc 2 278 0
 817              		.cfi_startproc
 818              	.LVL69:
 819 0000 7C0802A6 		mflr 0
 820 0004 9421FFF8 		stwu 1,-8(1)
 821              	.LCFI13:
 822              		.cfi_def_cfa_offset 8
 823              		.cfi_register 65, 0
 824 0008 9001000C 		stw 0,12(1)
 825              		.loc 2 278 0
 826 000c 81230000 		lwz 9,0(3)
 827 0010 80090098 		lwz 0,152(9)
 828              		.cfi_offset 65, 4
 829 0014 7C0903A6 		mtctr 0
 830 0018 4E800421 		bctrl
 831              	.LVL70:
 832 001c 7C60FE70 		srawi 0,3,31
 833 0020 7C630050 		subf 3,3,0
 834 0024 8001000C 		lwz 0,12(1)
 835 0028 54630FFE 		srwi 3,3,31
 836 002c 7C0803A6 		mtlr 0
 837 0030 38210008 		addi 1,1,8
 838              	.LCFI14:
 839              		.cfi_def_cfa_offset 0
 840 0034 4E800020 		blr
 841              		.cfi_endproc
 842              	.LFE1415:
 843              		.size	_ZNK10GuiElement10IsAnimatedEv, .-_ZNK10GuiElement10IsAnimatedEv
 844              		.section	.text._ZN10GuiElement8IsInsideEii,"axG",@progbits,_ZN10GuiElement8IsInsideEii,comdat
 845              		.align 2
 846              		.weak	_ZN10GuiElement8IsInsideEii
 847              		.type	_ZN10GuiElement8IsInsideEii, @function
 848              	_ZN10GuiElement8IsInsideEii:
 849              	.LFB1417:
 850              		.loc 2 285 0
 851              		.cfi_startproc
 852              	.LVL71:
 853 0000 7C0802A6 		mflr 0
 854 0004 9421FFE8 		stwu 1,-24(1)
 855              	.LCFI15:
 856              		.cfi_def_cfa_offset 24
 857              		.cfi_register 65, 0
 858 0008 93810008 		stw 28,8(1)
 859 000c 7CBC2B78 		mr 28,5
 860              		.cfi_offset 28, -16
 861 0010 9001001C 		stw 0,28(1)
 862 0014 93A1000C 		stw 29,12(1)
 863              		.loc 2 290 0
 864 0018 3BA00000 		li 29,0
 865              		.cfi_offset 29, -12
 866              		.cfi_offset 65, 4
 867              		.loc 2 287 0
 868 001c 81230000 		lwz 9,0(3)
 869              		.loc 2 285 0
 870 0020 93C10010 		stw 30,16(1)
 871 0024 7C9E2378 		mr 30,4
 872              		.cfi_offset 30, -8
 873              		.loc 2 287 0
 874 0028 80090010 		lwz 0,16(9)
 875              		.loc 2 285 0
 876 002c 93E10014 		stw 31,20(1)
 877              		.loc 2 285 0
 878 0030 7C7F1B78 		mr 31,3
 879              		.cfi_offset 31, -4
 880              		.loc 2 287 0
 881 0034 7C0903A6 		mtctr 0
 882 0038 4E800421 		bctrl
 883              	.LVL72:
 884              		.loc 2 290 0
 885 003c 7F83F000 		cmpw 7,3,30
 886 0040 419C0028 		blt- 7,.L58
 887              	.L54:
 888              		.loc 2 291 0 discriminator 6
 889 0044 8001001C 		lwz 0,28(1)
 890 0048 7FA3EB78 		mr 3,29
 891 004c 83810008 		lwz 28,8(1)
 892              	.LVL73:
 893 0050 7C0803A6 		mtlr 0
 894 0054 83A1000C 		lwz 29,12(1)
 895 0058 83C10010 		lwz 30,16(1)
 896              	.LVL74:
 897 005c 83E10014 		lwz 31,20(1)
 898              	.LVL75:
 899 0060 38210018 		addi 1,1,24
 900              		.cfi_remember_state
 901              	.LCFI16:
 902              		.cfi_def_cfa_offset 0
 903              		.cfi_restore 31
 904              		.cfi_restore 30
 905              		.cfi_restore 29
 906              		.cfi_restore 28
 907 0064 4E800020 		blr
 908              	.LVL76:
 909              	.L58:
 910              	.LCFI17:
 911              		.cfi_restore_state
 912              		.loc 2 288 0 discriminator 1
 913 0068 813F0000 		lwz 9,0(31)
 914 006c 7FE3FB78 		mr 3,31
 915 0070 80090010 		lwz 0,16(9)
 916 0074 7C0903A6 		mtctr 0
 917 0078 4E800421 		bctrl
 918              		.loc 2 290 0 discriminator 1
 919 007c 801F0024 		lwz 0,36(31)
 920 0080 7C030214 		add 0,3,0
 921 0084 7F9E0000 		cmpw 7,30,0
 922 0088 409CFFBC 		bge+ 7,.L54
 923              		.loc 2 289 0 discriminator 3
 924 008c 813F0000 		lwz 9,0(31)
 925 0090 7FE3FB78 		mr 3,31
 926 0094 80090014 		lwz 0,20(9)
 927 0098 7C0903A6 		mtctr 0
 928 009c 4E800421 		bctrl
 929              		.loc 2 290 0 discriminator 3
 930 00a0 7F83E000 		cmpw 7,3,28
 931 00a4 409CFFA0 		bge+ 7,.L54
 932              		.loc 2 290 0 is_stmt 0 discriminator 4
 933 00a8 813F0000 		lwz 9,0(31)
 934 00ac 7FE3FB78 		mr 3,31
 935 00b0 80090014 		lwz 0,20(9)
 936 00b4 7C0903A6 		mtctr 0
 937 00b8 4E800421 		bctrl
 938 00bc 801F0028 		lwz 0,40(31)
 939 00c0 7C030214 		add 0,3,0
 940              		.loc 2 285 0 is_stmt 1 discriminator 4
 941 00c4 7F9C0000 		cmpw 7,28,0
 942 00c8 7FA00026 		mfcr 29
 943 00cc 57BDEFFE 		rlwinm 29,29,29,1
 944 00d0 4BFFFF74 		b .L54
 945              		.cfi_endproc
 946              	.LFE1417:
 947              		.size	_ZN10GuiElement8IsInsideEii, .-_ZN10GuiElement8IsInsideEii
 948              		.section	.text._ZN10GuiElement11SetPositionEii,"axG",@progbits,_ZN10GuiElement11SetPositionEii,com
 949              		.align 2
 950              		.weak	_ZN10GuiElement11SetPositionEii
 951              		.type	_ZN10GuiElement11SetPositionEii, @function
 952              	_ZN10GuiElement11SetPositionEii:
 953              	.LFB1418:
 954              		.loc 2 295 0
 955              		.cfi_startproc
 956              	.LVL77:
 957              		.loc 2 297 0
 958 0000 9083002C 		stw 4,44(3)
 959              		.loc 2 299 0
 960              		.loc 2 298 0
 961 0004 90A30030 		stw 5,48(3)
 962              		.loc 2 299 0
 963 0008 4E800020 		blr
 964              		.cfi_endproc
 965              	.LFE1418:
 966              		.size	_ZN10GuiElement11SetPositionEii, .-_ZN10GuiElement11SetPositionEii
 967              		.section	.text._ZN10GuiElement11SetPositionEiii,"axG",@progbits,_ZN10GuiElement11SetPositionEiii,c
 968              		.align 2
 969              		.weak	_ZN10GuiElement11SetPositionEiii
 970              		.type	_ZN10GuiElement11SetPositionEiii, @function
 971              	_ZN10GuiElement11SetPositionEiii:
 972              	.LFB1419:
 973              		.loc 2 304 0
 974              		.cfi_startproc
 975              	.LVL78:
 976              		.loc 2 306 0
 977 0000 9083002C 		stw 4,44(3)
 978              		.loc 2 309 0
 979              		.loc 2 307 0
 980 0004 90A30030 		stw 5,48(3)
 981              		.loc 2 308 0
 982 0008 90C30034 		stw 6,52(3)
 983              		.loc 2 309 0
 984 000c 4E800020 		blr
 985              		.cfi_endproc
 986              	.LFE1419:
 987              		.size	_ZN10GuiElement11SetPositionEiii, .-_ZN10GuiElement11SetPositionEiii
 988              		.section	.text._ZN10GuiElement12SetAlignmentEi,"axG",@progbits,_ZN10GuiElement12SetAlignmentEi,com
 989              		.align 2
 990              		.weak	_ZN10GuiElement12SetAlignmentEi
 991              		.type	_ZN10GuiElement12SetAlignmentEi, @function
 992              	_ZN10GuiElement12SetAlignmentEi:
 993              	.LFB1421:
 994              		.loc 2 316 0
 995              		.cfi_startproc
 996              	.LVL79:
 997              		.loc 2 316 0
 998 0000 90830044 		stw 4,68(3)
 999 0004 4E800020 		blr
 1000              		.cfi_endproc
 1001              	.LFE1421:
 1002              		.size	_ZN10GuiElement12SetAlignmentEi, .-_ZN10GuiElement12SetAlignmentEi
 1003              		.section	.text._ZNK10GuiElement12GetAlignmentEv,"axG",@progbits,_ZNK10GuiElement12GetAlignmentEv,c
 1004              		.align 2
 1005              		.weak	_ZNK10GuiElement12GetAlignmentEv
 1006              		.type	_ZNK10GuiElement12GetAlignmentEv, @function
 1007              	_ZNK10GuiElement12GetAlignmentEv:
 1008              	.LFB1422:
 1009              		.loc 2 318 0
 1010              		.cfi_startproc
 1011              	.LVL80:
 1012              		.loc 2 318 0
 1013 0000 80630044 		lwz 3,68(3)
 1014              	.LVL81:
 1015 0004 4E800020 		blr
 1016              		.cfi_endproc
 1017              	.LFE1422:
 1018              		.size	_ZNK10GuiElement12GetAlignmentEv, .-_ZNK10GuiElement12GetAlignmentEv
 1019              		.section	.text._ZN8GuiFrame4hideEv,"axG",@progbits,_ZN8GuiFrame4hideEv,comdat
 1020              		.align 2
 1021              		.weak	_ZN8GuiFrame4hideEv
 1022              		.type	_ZN8GuiFrame4hideEv, @function
 1023              	_ZN8GuiFrame4hideEv:
 1024              	.LFB1432:
 1025              		.file 3 "d:/Projects/SaveGameManager/savegame-manager-gx/trunk/source/Settings/menus/../../GUI/gui
 1026              		.loc 3 81 0
 1027              		.cfi_startproc
 1028              	.LVL82:
 1029              		.loc 3 81 0
 1030 0000 4E800020 		blr
 1031              		.cfi_endproc
 1032              	.LFE1432:
 1033              		.size	_ZN8GuiFrame4hideEv, .-_ZN8GuiFrame4hideEv
 1034              		.section	.text._ZN8GuiFrame4execEv,"axG",@progbits,_ZN8GuiFrame4execEv,comdat
 1035              		.align 2
 1036              		.weak	_ZN8GuiFrame4execEv
 1037              		.type	_ZN8GuiFrame4execEv, @function
 1038              	_ZN8GuiFrame4execEv:
 1039              	.LFB1433:
 1040              		.loc 3 83 0
 1041              		.cfi_startproc
 1042              	.LVL83:
 1043              		.loc 3 83 0
 1044 0000 4E800020 		blr
 1045              		.cfi_endproc
 1046              	.LFE1433:
 1047              		.size	_ZN8GuiFrame4execEv, .-_ZN8GuiFrame4execEv
 1048              		.section	.text._ZN8GuiFrame12updateEventsEv,"axG",@progbits,_ZN8GuiFrame12updateEventsEv,comdat
 1049              		.align 2
 1050              		.weak	_ZN8GuiFrame12updateEventsEv
 1051              		.type	_ZN8GuiFrame12updateEventsEv, @function
 1052              	_ZN8GuiFrame12updateEventsEv:
 1053              	.LFB1434:
 1054              		.loc 3 85 0
 1055              		.cfi_startproc
 1056              	.LVL84:
 1057              		.loc 3 85 0
 1058 0000 4E800020 		blr
 1059              		.cfi_endproc
 1060              	.LFE1434:
 1061              		.size	_ZN8GuiFrame12updateEventsEv, .-_ZN8GuiFrame12updateEventsEv
 1062              		.section	.text._ZN15SettingsBrowser15SetupOptionNameEv,"axG",@progbits,_ZN15SettingsBrowser15Setup
 1063              		.align 2
 1064              		.weak	_ZN15SettingsBrowser15SetupOptionNameEv
 1065              		.type	_ZN15SettingsBrowser15SetupOptionNameEv, @function
 1066              	_ZN15SettingsBrowser15SetupOptionNameEv:
 1067              	.LFB1476:
 1068              		.file 4 "d:/Projects/SaveGameManager/savegame-manager-gx/trunk/source/Settings/menus/SettingsBrows
 1069              		.loc 4 38 0
 1070              		.cfi_startproc
 1071              	.LVL85:
 1072              		.loc 4 38 0
 1073 0000 4E800020 		blr
 1074              		.cfi_endproc
 1075              	.LFE1476:
 1076              		.size	_ZN15SettingsBrowser15SetupOptionNameEv, .-_ZN15SettingsBrowser15SetupOptionNameEv
 1077              		.section	.text._ZN15SettingsBrowser15SetOptionValuesEv,"axG",@progbits,_ZN15SettingsBrowser15SetOp
 1078              		.align 2
 1079              		.weak	_ZN15SettingsBrowser15SetOptionValuesEv
 1080              		.type	_ZN15SettingsBrowser15SetOptionValuesEv, @function
 1081              	_ZN15SettingsBrowser15SetOptionValuesEv:
 1082              	.LFB1477:
 1083              		.loc 4 39 0
 1084              		.cfi_startproc
 1085              	.LVL86:
 1086              		.loc 4 39 0
 1087 0000 4E800020 		blr
 1088              		.cfi_endproc
 1089              	.LFE1477:
 1090              		.size	_ZN15SettingsBrowser15SetOptionValuesEv, .-_ZN15SettingsBrowser15SetOptionValuesEv
 1091              		.section	.text._ZN15SettingsBrowser14OnBrowserClickEP16GuiOptionBrowseri,"axG",@progbits,_ZN15Sett
 1092              		.align 2
 1093              		.weak	_ZN15SettingsBrowser14OnBrowserClickEP16GuiOptionBrowseri
 1094              		.type	_ZN15SettingsBrowser14OnBrowserClickEP16GuiOptionBrowseri, @function
 1095              	_ZN15SettingsBrowser14OnBrowserClickEP16GuiOptionBrowseri:
 1096              	.LFB1478:
 1097              		.loc 4 40 0
 1098              		.cfi_startproc
 1099              	.LVL87:
 1100              		.loc 4 40 0
 1101 0000 4E800020 		blr
 1102              		.cfi_endproc
 1103              	.LFE1478:
 1104              		.size	_ZN15SettingsBrowser14OnBrowserClickEP16GuiOptionBrowseri, .-_ZN15SettingsBrowser14OnBrowser
 1105              		.section	.text._ZN7sigslot17_connection_base2IP16GuiOptionBrowseriNS_15single_threadedEED2Ev,"axG"
 1106              		.align 2
 1107              		.weak	_ZN7sigslot17_connection_base2IP16GuiOptionBrowseriNS_15single_threadedEED2Ev
 1108              		.type	_ZN7sigslot17_connection_base2IP16GuiOptionBrowseriNS_15single_threadedEED2Ev, @function
 1109              	_ZN7sigslot17_connection_base2IP16GuiOptionBrowseriNS_15single_threadedEED2Ev:
 1110              	.LFB1653:
 1111              		.loc 1 376 0
 1112              		.cfi_startproc
 1113              	.LVL88:
 1114              	.LBB1780:
 1115              		.loc 1 376 0
 1116 0000 3D200000 		lis 9,_ZTVN7sigslot17_connection_base2IP16GuiOptionBrowseriNS_15single_threadedEEE+8@ha
 1117              	.LBE1780:
 1118              	.LBB1781:
 1119 0004 38090008 		la 0,_ZTVN7sigslot17_connection_base2IP16GuiOptionBrowseriNS_15single_threadedEEE+8@l(9)
 1120 0008 90030000 		stw 0,0(3)
 1121              	.LBE1781:
 1122 000c 4E800020 		blr
 1123              		.cfi_endproc
 1124              	.LFE1653:
 1125              		.size	_ZN7sigslot17_connection_base2IP16GuiOptionBrowseriNS_15single_threadedEED2Ev, .-_ZN7sigslot
 1126              		.section	.text._ZN7sigslot12_connection2I15SettingsBrowserP16GuiOptionBrowseriNS_15single_threaded
 1127              		.align 2
 1128              		.weak	_ZN7sigslot12_connection2I15SettingsBrowserP16GuiOptionBrowseriNS_15single_threadedEED2Ev
 1129              		.type	_ZN7sigslot12_connection2I15SettingsBrowserP16GuiOptionBrowseriNS_15single_threadedEED2Ev, @
 1130              	_ZN7sigslot12_connection2I15SettingsBrowserP16GuiOptionBrowseriNS_15single_threadedEED2Ev:
 1131              	.LFB1904:
 1132              		.loc 1 1735 0
 1133              		.cfi_startproc
 1134              	.LVL89:
 1135              	.LBB1782:
 1136              	.LBB1783:
 1137              	.LBB1784:
 1138              	.LBB1785:
 1139              		.loc 1 376 0
 1140 0000 3D200000 		lis 9,_ZTVN7sigslot17_connection_base2IP16GuiOptionBrowseriNS_15single_threadedEEE+8@ha
 1141              	.LBE1785:
 1142              	.LBE1784:
 1143              	.LBE1783:
 1144              	.LBE1782:
 1145              		.loc 1 1738 0
 1146              	.LBB1789:
 1147              	.LBB1788:
 1148              	.LBB1787:
 1149              	.LBB1786:
 1150              		.loc 1 376 0
 1151 0004 38090008 		la 0,_ZTVN7sigslot17_connection_base2IP16GuiOptionBrowseriNS_15single_threadedEEE+8@l(9)
 1152 0008 90030000 		stw 0,0(3)
 1153              	.LBE1786:
 1154              	.LBE1787:
 1155              	.LBE1788:
 1156              	.LBE1789:
 1157              		.loc 1 1738 0
 1158 000c 4E800020 		blr
 1159              		.cfi_endproc
 1160              	.LFE1904:
 1161              		.size	_ZN7sigslot12_connection2I15SettingsBrowserP16GuiOptionBrowseriNS_15single_threadedEED2Ev, .
 1162              		.section	.text._ZNK7sigslot12_connection2I15SettingsBrowserP16GuiOptionBrowseriNS_15single_threade
 1163              		.align 2
 1164              		.weak	_ZNK7sigslot12_connection2I15SettingsBrowserP16GuiOptionBrowseriNS_15single_threadedEE7getde
 1165              		.type	_ZNK7sigslot12_connection2I15SettingsBrowserP16GuiOptionBrowseriNS_15single_threadedEE7getde
 1166              	_ZNK7sigslot12_connection2I15SettingsBrowserP16GuiOptionBrowseriNS_15single_threadedEE7getdestEv:
 1167              	.LFB1907:
 1168              		.loc 1 1756 0
 1169              		.cfi_startproc
 1170              	.LVL90:
 1171              		.loc 1 1758 0
 1172 0000 81230004 		lwz 9,4(3)
 1173 0004 38600000 		li 3,0
 1174              	.LVL91:
 1175 0008 2F890000 		cmpwi 7,9,0
 1176 000c 4D9E0020 		beqlr- 7
 1177              		.loc 1 1758 0 is_stmt 0 discriminator 1
 1178 0010 386900B0 		addi 3,9,176
 1179              		.loc 1 1759 0 is_stmt 1 discriminator 1
 1180 0014 4E800020 		blr
 1181              		.cfi_endproc
 1182              	.LFE1907:
 1183              		.size	_ZNK7sigslot12_connection2I15SettingsBrowserP16GuiOptionBrowseriNS_15single_threadedEE7getde
 1184              		.section	.text._ZN7sigslot12_connection2I15SettingsBrowserP16GuiOptionBrowseriNS_15single_threaded
 1185              		.align 2
 1186              		.weak	_ZN7sigslot12_connection2I15SettingsBrowserP16GuiOptionBrowseriNS_15single_threadedEE4emitES
 1187              		.type	_ZN7sigslot12_connection2I15SettingsBrowserP16GuiOptionBrowseriNS_15single_threadedEE4emitES
 1188              	_ZN7sigslot12_connection2I15SettingsBrowserP16GuiOptionBrowseriNS_15single_threadedEE4emitES3_i:
 1189              	.LFB1908:
 1190              		.loc 1 1751 0
 1191              		.cfi_startproc
 1192              	.LVL92:
 1193 0000 7C0802A6 		mflr 0
 1194 0004 9421FFF8 		stwu 1,-8(1)
 1195              	.LCFI18:
 1196              		.cfi_def_cfa_offset 8
 1197              		.cfi_register 65, 0
 1198 0008 9001000C 		stw 0,12(1)
 1199              		.loc 1 1753 0
 1200 000c 80030008 		lwz 0,8(3)
 1201              		.cfi_offset 65, 4
 1202 0010 81630004 		lwz 11,4(3)
 1203 0014 70090001 		andi. 9,0,1
 1204 0018 8123000C 		lwz 9,12(3)
 1205 001c 40820020 		bne- 0,.L78
 1206 0020 7C0903A6 		mtctr 0
 1207 0024 7C6B4A14 		add 3,11,9
 1208              	.LVL93:
 1209 0028 4E800421 		bctrl
 1210              	.LVL94:
 1211              		.loc 1 1754 0
 1212 002c 8001000C 		lwz 0,12(1)
 1213 0030 38210008 		addi 1,1,8
 1214              		.cfi_remember_state
 1215              	.LCFI19:
 1216              		.cfi_def_cfa_offset 0
 1217 0034 7C0803A6 		mtlr 0
 1218 0038 4E800020 		blr
 1219              	.LVL95:
 1220              	.L78:
 1221              	.LCFI20:
 1222              		.cfi_restore_state
 1223              		.loc 1 1753 0 discriminator 1
 1224 003c 7D4B482E 		lwzx 10,11,9
 1225 0040 7C6B4A14 		add 3,11,9
 1226              	.LVL96:
 1227 0044 7D2A0214 		add 9,10,0
 1228 0048 8009FFFF 		lwz 0,-1(9)
 1229 004c 7C0903A6 		mtctr 0
 1230 0050 4E800421 		bctrl
 1231              	.LVL97:
 1232              		.loc 1 1754 0 discriminator 1
 1233 0054 8001000C 		lwz 0,12(1)
 1234 0058 38210008 		addi 1,1,8
 1235              	.LCFI21:
 1236              		.cfi_def_cfa_offset 0
 1237 005c 7C0803A6 		mtlr 0
 1238 0060 4E800020 		blr
 1239              		.cfi_endproc
 1240              	.LFE1908:
 1241              		.size	_ZN7sigslot12_connection2I15SettingsBrowserP16GuiOptionBrowseriNS_15single_threadedEE4emitES
 1242              		.section	.text._ZN7sigslot12_connection2I15SettingsBrowserP16GuiOptionBrowseriNS_15single_threaded
 1243              		.align 2
 1244              		.weak	_ZN7sigslot12_connection2I15SettingsBrowserP16GuiOptionBrowseriNS_15single_threadedEE9duplic
 1245              		.type	_ZN7sigslot12_connection2I15SettingsBrowserP16GuiOptionBrowseriNS_15single_threadedEE9duplic
 1246              	_ZN7sigslot12_connection2I15SettingsBrowserP16GuiOptionBrowseriNS_15single_threadedEE9duplicateEPNS
 1247              	.LFB1916:
 1248              		.loc 1 1746 0
 1249              		.cfi_startproc
 1250              	.LVL98:
 1251 0000 9421FFF0 		stwu 1,-16(1)
 1252              	.LCFI22:
 1253              		.cfi_def_cfa_offset 16
 1254 0004 7C0802A6 		mflr 0
 1255 0008 93C10008 		stw 30,8(1)
 1256 000c 7C9E2378 		mr 30,4
 1257              		.cfi_offset 30, -8
 1258              		.cfi_register 65, 0
 1259 0010 93E1000C 		stw 31,12(1)
 1260 0014 7C7F1B78 		mr 31,3
 1261              		.cfi_offset 31, -4
 1262              		.loc 1 1748 0
 1263 0018 38600010 		li 3,16
 1264              	.LVL99:
 1265              		.loc 1 1746 0
 1266 001c 90010014 		stw 0,20(1)
 1267              		.loc 1 1748 0
 1268              		.cfi_offset 65, 4
 1269 0020 48000001 		bl _Znwj
 1270              	.LVL100:
 1271 0024 2F9E0000 		cmpwi 7,30,0
 1272 0028 38000000 		li 0,0
 1273 002c 419E0008 		beq- 7,.L81
 1274              		.loc 1 1748 0 is_stmt 0 discriminator 1
 1275 0030 381EFF50 		addi 0,30,-176
 1276              	.L81:
 1277              	.LVL101:
 1278              		.loc 1 1748 0 discriminator 3
 1279 0034 817F0008 		lwz 11,8(31)
 1280              	.LVL102:
 1281              	.LBB1790:
 1282              	.LBB1791:
 1283              		.loc 1 1730 0 is_stmt 1 discriminator 3
 1284 0038 3D400000 		lis 10,_ZTVN7sigslot12_connection2I15SettingsBrowserP16GuiOptionBrowseriNS_15single_threadedEEE+8@
 1285              	.LBE1791:
 1286              	.LBE1790:
 1287              		.loc 1 1748 0 discriminator 3
 1288 003c 813F000C 		lwz 9,12(31)
 1289              	.LVL103:
 1290              	.LBB1794:
 1291              	.LBB1792:
 1292              		.loc 1 1730 0 discriminator 3
 1293 0040 394A0008 		la 10,_ZTVN7sigslot12_connection2I15SettingsBrowserP16GuiOptionBrowseriNS_15single_threadedEEE+8@l
 1294              		.loc 1 1732 0 discriminator 3
 1295 0044 91630008 		stw 11,8(3)
 1296 0048 9123000C 		stw 9,12(3)
 1297              		.loc 1 1731 0 discriminator 3
 1298 004c 90030004 		stw 0,4(3)
 1299              	.LBE1792:
 1300              	.LBE1794:
 1301              		.loc 1 1749 0 discriminator 3
 1302 0050 80010014 		lwz 0,20(1)
 1303              	.LVL104:
 1304 0054 83C10008 		lwz 30,8(1)
 1305              	.LVL105:
 1306 0058 7C0803A6 		mtlr 0
 1307 005c 83E1000C 		lwz 31,12(1)
 1308              	.LVL106:
 1309              	.LBB1795:
 1310              	.LBB1793:
 1311              		.loc 1 1730 0 discriminator 3
 1312 0060 91430000 		stw 10,0(3)
 1313              	.LBE1793:
 1314              	.LBE1795:
 1315              		.loc 1 1749 0 discriminator 3
 1316 0064 38210010 		addi 1,1,16
 1317              	.LCFI23:
 1318              		.cfi_def_cfa_offset 0
 1319              		.cfi_restore 31
 1320              		.cfi_restore 30
 1321 0068 4E800020 		blr
 1322              		.cfi_endproc
 1323              	.LFE1916:
 1324              		.size	_ZN7sigslot12_connection2I15SettingsBrowserP16GuiOptionBrowseriNS_15single_threadedEE9duplic
 1325              		.section	.text._ZN7sigslot12_connection2I15SettingsBrowserP16GuiOptionBrowseriNS_15single_threaded
 1326              		.align 2
 1327              		.weak	_ZN7sigslot12_connection2I15SettingsBrowserP16GuiOptionBrowseriNS_15single_threadedEE5cloneE
 1328              		.type	_ZN7sigslot12_connection2I15SettingsBrowserP16GuiOptionBrowseriNS_15single_threadedEE5cloneE
 1329              	_ZN7sigslot12_connection2I15SettingsBrowserP16GuiOptionBrowseriNS_15single_threadedEE5cloneEv:
 1330              	.LFB1909:
 1331              		.loc 1 1741 0
 1332              		.cfi_startproc
 1333              	.LVL107:
 1334 0000 9421FFF0 		stwu 1,-16(1)
 1335              	.LCFI24:
 1336              		.cfi_def_cfa_offset 16
 1337 0004 7C0802A6 		mflr 0
 1338 0008 93E1000C 		stw 31,12(1)
 1339 000c 7C7F1B78 		mr 31,3
 1340              		.cfi_offset 31, -4
 1341              		.cfi_register 65, 0
 1342              		.loc 1 1743 0
 1343 0010 38600010 		li 3,16
 1344              	.LVL108:
 1345              		.loc 1 1741 0
 1346 0014 90010014 		stw 0,20(1)
 1347              		.loc 1 1743 0
 1348              		.cfi_offset 65, 4
 1349 0018 48000001 		bl _Znwj
 1350              		.file 5 "d:/Projects/SaveGameManager/savegame-manager-gx/trunk/source/Settings/menus/SettingsBrows
 1351              		.loc 5 56 0
 1352 001c 801F0004 		lwz 0,4(31)
 1353              	.LVL109:
 1354              	.LBB1796:
 1355              	.LBB1797:
 1356              		.loc 1 1719 0
 1357 0020 3D600000 		lis 11,_ZTVN7sigslot12_connection2I15SettingsBrowserP16GuiOptionBrowseriNS_15single_threadedEEE+8@
 1358 0024 396B0008 		la 11,_ZTVN7sigslot12_connection2I15SettingsBrowserP16GuiOptionBrowseriNS_15single_threadedEEE+8@l
 1359 0028 90030004 		stw 0,4(3)
 1360 002c 91630000 		stw 11,0(3)
 1361 0030 815F0008 		lwz 10,8(31)
 1362 0034 817F000C 		lwz 11,12(31)
 1363 0038 91430008 		stw 10,8(3)
 1364 003c 9163000C 		stw 11,12(3)
 1365              	.LBE1797:
 1366              	.LBE1796:
 1367              		.loc 1 1744 0
 1368 0040 80010014 		lwz 0,20(1)
 1369 0044 83E1000C 		lwz 31,12(1)
 1370              	.LVL110:
 1371 0048 7C0803A6 		mtlr 0
 1372 004c 38210010 		addi 1,1,16
 1373              	.LCFI25:
 1374              		.cfi_def_cfa_offset 0
 1375              		.cfi_restore 31
 1376 0050 4E800020 		blr
 1377              		.cfi_endproc
 1378              	.LFE1909:
 1379              		.size	_ZN7sigslot12_connection2I15SettingsBrowserP16GuiOptionBrowseriNS_15single_threadedEE5cloneE
 1380              		.section	.text._ZN7sigslot12_connection2I15SettingsBrowserP16GuiOptionBrowseriNS_15single_threaded
 1381              		.align 2
 1382              		.weak	_ZN7sigslot12_connection2I15SettingsBrowserP16GuiOptionBrowseriNS_15single_threadedEED0Ev
 1383              		.type	_ZN7sigslot12_connection2I15SettingsBrowserP16GuiOptionBrowseriNS_15single_threadedEED0Ev, @
 1384              	_ZN7sigslot12_connection2I15SettingsBrowserP16GuiOptionBrowseriNS_15single_threadedEED0Ev:
 1385              	.LFB1906:
 1386              		.loc 1 1735 0
 1387              		.cfi_startproc
 1388              	.LVL111:
 1389 0000 7C0802A6 		mflr 0
 1390 0004 9421FFF8 		stwu 1,-8(1)
 1391              	.LCFI26:
 1392              		.cfi_def_cfa_offset 8
 1393              		.cfi_register 65, 0
 1394              	.LBB1798:
 1395              	.LBB1799:
 1396              	.LBB1800:
 1397              	.LBB1801:
 1398              	.LBB1802:
 1399              	.LBB1803:
 1400              		.loc 1 376 0
 1401 0008 3D200000 		lis 9,_ZTVN7sigslot17_connection_base2IP16GuiOptionBrowseriNS_15single_threadedEEE+8@ha
 1402              	.LBE1803:
 1403              	.LBE1802:
 1404              	.LBE1801:
 1405              	.LBE1800:
 1406              	.LBE1799:
 1407              	.LBE1798:
 1408              		.loc 1 1735 0
 1409 000c 9001000C 		stw 0,12(1)
 1410              	.LBB1809:
 1411              	.LBB1808:
 1412              	.LBB1807:
 1413              	.LBB1806:
 1414              	.LBB1805:
 1415              	.LBB1804:
 1416              		.loc 1 376 0
 1417 0010 38090008 		la 0,_ZTVN7sigslot17_connection_base2IP16GuiOptionBrowseriNS_15single_threadedEEE+8@l(9)
 1418              		.cfi_offset 65, 4
 1419 0014 90030000 		stw 0,0(3)
 1420              	.LBE1804:
 1421              	.LBE1805:
 1422              	.LBE1806:
 1423              	.LBE1807:
 1424              	.LBE1808:
 1425              	.LBE1809:
 1426              		.loc 1 1738 0
 1427 0018 48000001 		bl _ZdlPv
 1428              	.LVL112:
 1429 001c 8001000C 		lwz 0,12(1)
 1430 0020 38210008 		addi 1,1,8
 1431              	.LCFI27:
 1432              		.cfi_def_cfa_offset 0
 1433 0024 7C0803A6 		mtlr 0
 1434 0028 4E800020 		blr
 1435              		.cfi_endproc
 1436              	.LFE1906:
 1437              		.size	_ZN7sigslot12_connection2I15SettingsBrowserP16GuiOptionBrowseriNS_15single_threadedEED0Ev, .
 1438              		.section	.text._ZN7sigslot17_connection_base2IP16GuiOptionBrowseriNS_15single_threadedEED0Ev,"axG"
 1439              		.align 2
 1440              		.weak	_ZN7sigslot17_connection_base2IP16GuiOptionBrowseriNS_15single_threadedEED0Ev
 1441              		.type	_ZN7sigslot17_connection_base2IP16GuiOptionBrowseriNS_15single_threadedEED0Ev, @function
 1442              	_ZN7sigslot17_connection_base2IP16GuiOptionBrowseriNS_15single_threadedEED0Ev:
 1443              	.LFB1655:
 1444              		.loc 1 376 0
 1445              		.cfi_startproc
 1446              	.LVL113:
 1447 0000 7C0802A6 		mflr 0
 1448 0004 9421FFF8 		stwu 1,-8(1)
 1449              	.LCFI28:
 1450              		.cfi_def_cfa_offset 8
 1451              		.cfi_register 65, 0
 1452              	.LBB1810:
 1453              	.LBB1811:
 1454              	.LBB1812:
 1455 0008 3D200000 		lis 9,_ZTVN7sigslot17_connection_base2IP16GuiOptionBrowseriNS_15single_threadedEEE+8@ha
 1456              	.LBE1812:
 1457              	.LBE1811:
 1458              	.LBE1810:
 1459 000c 9001000C 		stw 0,12(1)
 1460              	.LBB1815:
 1461              	.LBB1814:
 1462              	.LBB1813:
 1463              		.loc 1 376 0
 1464 0010 38090008 		la 0,_ZTVN7sigslot17_connection_base2IP16GuiOptionBrowseriNS_15single_threadedEEE+8@l(9)
 1465              		.cfi_offset 65, 4
 1466 0014 90030000 		stw 0,0(3)
 1467              	.LBE1813:
 1468              	.LBE1814:
 1469              	.LBE1815:
 1470 0018 48000001 		bl _ZdlPv
 1471              	.LVL114:
 1472 001c 8001000C 		lwz 0,12(1)
 1473 0020 38210008 		addi 1,1,8
 1474              	.LCFI29:
 1475              		.cfi_def_cfa_offset 0
 1476 0024 7C0803A6 		mtlr 0
 1477 0028 4E800020 		blr
 1478              		.cfi_endproc
 1479              	.LFE1655:
 1480              		.size	_ZN7sigslot17_connection_base2IP16GuiOptionBrowseriNS_15single_threadedEED0Ev, .-_ZN7sigslot
 1481              		.section	.text._ZN7sigslot15single_threadedD0Ev,"axG",@progbits,_ZN7sigslot15single_threadedD5Ev,c
 1482              		.align 2
 1483              		.weak	_ZN7sigslot15single_threadedD0Ev
 1484              		.type	_ZN7sigslot15single_threadedD0Ev, @function
 1485              	_ZN7sigslot15single_threadedD0Ev:
 1486              	.LFB1150:
 1487              		.loc 1 104 0
 1488              		.cfi_startproc
 1489              	.LVL115:
 1490 0000 7C0802A6 		mflr 0
 1491 0004 9421FFF8 		stwu 1,-8(1)
 1492              	.LCFI30:
 1493              		.cfi_def_cfa_offset 8
 1494              		.cfi_register 65, 0
 1495              	.LBB1816:
 1496              	.LBB1817:
 1497              	.LBB1818:
 1498              		.loc 1 105 0
 1499 0008 3D200000 		lis 9,_ZTVN7sigslot15single_threadedE+8@ha
 1500              	.LBE1818:
 1501              	.LBE1817:
 1502              	.LBE1816:
 1503              		.loc 1 104 0
 1504 000c 9001000C 		stw 0,12(1)
 1505              	.LBB1821:
 1506              	.LBB1820:
 1507              	.LBB1819:
 1508              		.loc 1 105 0
 1509 0010 38090008 		la 0,_ZTVN7sigslot15single_threadedE+8@l(9)
 1510              		.cfi_offset 65, 4
 1511 0014 90030000 		stw 0,0(3)
 1512              	.LBE1819:
 1513              	.LBE1820:
 1514              	.LBE1821:
 1515              		.loc 1 107 0
 1516 0018 48000001 		bl _ZdlPv
 1517              	.LVL116:
 1518 001c 8001000C 		lwz 0,12(1)
 1519 0020 38210008 		addi 1,1,8
 1520              	.LCFI31:
 1521              		.cfi_def_cfa_offset 0
 1522 0024 7C0803A6 		mtlr 0
 1523 0028 4E800020 		blr
 1524              		.cfi_endproc
 1525              	.LFE1150:
 1526              		.size	_ZN7sigslot15single_threadedD0Ev, .-_ZN7sigslot15single_threadedD0Ev
 1527              		.section	.text._ZNSt8_Rb_treeIPN7sigslot12_signal_baseINS0_15single_threadedEEES4_St9_IdentityIS4_
 1528              		.align 2
 1529              		.weak	_ZNSt8_Rb_treeIPN7sigslot12_signal_baseINS0_15single_threadedEEES4_St9_IdentityIS4_ESt4lessI
 1530              		.type	_ZNSt8_Rb_treeIPN7sigslot12_signal_baseINS0_15single_threadedEEES4_St9_IdentityIS4_ESt4lessI
 1531              	_ZNSt8_Rb_treeIPN7sigslot12_signal_baseINS0_15single_threadedEEES4_St9_IdentityIS4_ESt4lessIS4_ESaI
 1532              	.LFB1644:
 1533              		.file 6 "d:\\devkitpro\\devkitppc\\bin\\../lib/gcc/powerpc-eabi/4.6.3/../../../../powerpc-eabi/inc
 1534              		.loc 6 1068 0
 1535              		.cfi_startproc
 1536              	.LVL117:
 1537 0000 9421FFC8 		stwu 1,-56(1)
 1538              	.LCFI32:
 1539              		.cfi_def_cfa_offset 56
 1540 0004 7C0802A6 		mflr 0
 1541 0008 92C10010 		stw 22,16(1)
 1542              	.LBB1938:
 1543              		.loc 6 1072 0
 1544 000c 7C962379 		mr. 22,4
 1545              		.cfi_offset 22, -40
 1546              		.cfi_register 65, 0
 1547              	.LBE1938:
 1548              		.loc 6 1068 0
 1549 0010 93C10030 		stw 30,48(1)
 1550 0014 7C7E1B78 		mr 30,3
 1551              		.cfi_offset 30, -8
 1552 0018 9001003C 		stw 0,60(1)
 1553 001c 92A1000C 		stw 21,12(1)
 1554 0020 92E10014 		stw 23,20(1)
 1555 0024 93010018 		stw 24,24(1)
 1556 0028 9321001C 		stw 25,28(1)
 1557 002c 93410020 		stw 26,32(1)
 1558 0030 93610024 		stw 27,36(1)
 1559 0034 93810028 		stw 28,40(1)
 1560 0038 93A1002C 		stw 29,44(1)
 1561 003c 93E10034 		stw 31,52(1)
 1562              	.LBB2023:
 1563              		.loc 6 1072 0
 1564 0040 41820168 		beq- 0,.L94
 1565              		.cfi_offset 31, -4
 1566              		.cfi_offset 29, -12
 1567              		.cfi_offset 28, -16
 1568              		.cfi_offset 27, -20
 1569              		.cfi_offset 26, -24
 1570              		.cfi_offset 25, -28
 1571              		.cfi_offset 24, -32
 1572              		.cfi_offset 23, -36
 1573              		.cfi_offset 21, -44
 1574              		.cfi_offset 65, 4
 1575              	.LVL118:
 1576              	.L140:
 1577              		.loc 5 56 0
 1578 0044 8376000C 		lwz 27,12(22)
 1579              	.LVL119:
 1580              	.LBB1939:
 1581              	.LBB1940:
 1582              	.LBB1941:
 1583              		.loc 6 1072 0
 1584 0048 2F9B0000 		cmpwi 7,27,0
 1585 004c 419E0140 		beq- 7,.L96
 1586              	.LVL120:
 1587              	.L141:
 1588              	.LBE1941:
 1589              		.loc 5 56 0
 1590 0050 835B000C 		lwz 26,12(27)
 1591              	.LVL121:
 1592              	.LBB2017:
 1593              	.LBB1942:
 1594              	.LBB1943:
 1595              	.LBB1944:
 1596              		.loc 6 1072 0
 1597 0054 2F9A0000 		cmpwi 7,26,0
 1598 0058 419E0118 		beq- 7,.L97
 1599              	.LVL122:
 1600              	.L142:
 1601              	.LBE1944:
 1602              		.loc 5 56 0
 1603 005c 833A000C 		lwz 25,12(26)
 1604              	.LVL123:
 1605              	.LBB2010:
 1606              	.LBB1945:
 1607              	.LBB1946:
 1608              	.LBB1947:
 1609              		.loc 6 1072 0
 1610 0060 2F990000 		cmpwi 7,25,0
 1611 0064 419E00F0 		beq- 7,.L98
 1612              	.LVL124:
 1613              	.L143:
 1614              	.LBE1947:
 1615              		.loc 5 56 0
 1616 0068 8319000C 		lwz 24,12(25)
 1617              	.LVL125:
 1618              	.LBB2003:
 1619              	.LBB1948:
 1620              	.LBB1949:
 1621              	.LBB1950:
 1622              		.loc 6 1072 0
 1623 006c 2F980000 		cmpwi 7,24,0
 1624 0070 419E00C8 		beq- 7,.L99
 1625              	.LVL126:
 1626              	.L144:
 1627              	.LBE1950:
 1628              		.loc 5 56 0
 1629 0074 82F8000C 		lwz 23,12(24)
 1630              	.LVL127:
 1631              	.LBB1996:
 1632              	.LBB1951:
 1633              	.LBB1952:
 1634              	.LBB1953:
 1635              		.loc 6 1072 0
 1636 0078 2F970000 		cmpwi 7,23,0
 1637 007c 419E00A0 		beq- 7,.L100
 1638              	.LVL128:
 1639              	.L145:
 1640              	.LBE1953:
 1641              		.loc 5 56 0
 1642 0080 8397000C 		lwz 28,12(23)
 1643              	.LVL129:
 1644              	.LBB1989:
 1645              	.LBB1954:
 1646              	.LBB1955:
 1647              	.LBB1956:
 1648              		.loc 6 1072 0
 1649 0084 2F9C0000 		cmpwi 7,28,0
 1650 0088 419E0078 		beq- 7,.L101
 1651              	.LVL130:
 1652              	.L146:
 1653              	.LBE1956:
 1654              		.loc 5 56 0
 1655 008c 83BC000C 		lwz 29,12(28)
 1656              	.LVL131:
 1657              	.LBB1982:
 1658              	.LBB1957:
 1659              	.LBB1958:
 1660              	.LBB1959:
 1661              		.loc 6 1072 0
 1662 0090 2F9D0000 		cmpwi 7,29,0
 1663 0094 419E0050 		beq- 7,.L102
 1664              	.LVL132:
 1665              	.L147:
 1666              	.LBE1959:
 1667              		.loc 5 56 0
 1668 0098 83FD000C 		lwz 31,12(29)
 1669              	.LVL133:
 1670              	.LBB1975:
 1671              	.LBB1960:
 1672              	.LBB1961:
 1673              	.LBB1962:
 1674              		.loc 6 1072 0
 1675 009c 2F9F0000 		cmpwi 7,31,0
 1676 00a0 419E0028 		beq- 7,.L103
 1677              	.LVL134:
 1678              	.L148:
 1679              	.LBB1963:
 1680              		.loc 6 1074 0
 1681 00a4 809F000C 		lwz 4,12(31)
 1682 00a8 7FC3F378 		mr 3,30
 1683 00ac 48000001 		bl _ZNSt8_Rb_treeIPN7sigslot12_signal_baseINS0_15single_threadedEEES4_St9_IdentityIS4_ESt4lessIS4_
 1684              	.LBE1963:
 1685              	.LBE1962:
 1686              		.loc 5 56 0
 1687 00b0 82BF0008 		lwz 21,8(31)
 1688              	.LVL135:
 1689              	.LBB1969:
 1690              	.LBB1968:
 1691              	.LBB1964:
 1692              	.LBB1965:
 1693              	.LBB1966:
 1694              	.LBB1967:
 1695              		.file 7 "d:\\devkitpro\\devkitppc\\bin\\../lib/gcc/powerpc-eabi/4.6.3/../../../../powerpc-eabi/inc
 1696              		.loc 7 98 0
 1697 00b4 7FE3FB78 		mr 3,31
 1698 00b8 48000001 		bl _ZdlPv
 1699              	.LVL136:
 1700              	.LBE1967:
 1701              	.LBE1966:
 1702              	.LBE1965:
 1703              	.LBE1964:
 1704              	.LBE1968:
 1705              		.loc 6 1072 0
 1706 00bc 2F950000 		cmpwi 7,21,0
 1707              		.loc 6 1077 0
 1708 00c0 7EBFAB78 		mr 31,21
 1709              	.LVL137:
 1710              		.loc 6 1072 0
 1711 00c4 409EFFE0 		bne+ 7,.L148
 1712              	.LVL138:
 1713              	.L103:
 1714              	.LBE1969:
 1715              	.LBE1961:
 1716              	.LBE1960:
 1717              	.LBE1975:
 1718              		.loc 5 56 0
 1719 00c8 83FD0008 		lwz 31,8(29)
 1720              	.LVL139:
 1721              	.LBB1976:
 1722              	.LBB1974:
 1723              	.LBB1970:
 1724              	.LBB1971:
 1725              	.LBB1972:
 1726              	.LBB1973:
 1727              		.loc 7 98 0
 1728 00cc 7FA3EB78 		mr 3,29
 1729 00d0 48000001 		bl _ZdlPv
 1730              	.LVL140:
 1731              	.LBE1973:
 1732              	.LBE1972:
 1733              	.LBE1971:
 1734              	.LBE1970:
 1735              	.LBE1974:
 1736              		.loc 6 1072 0
 1737 00d4 2F9F0000 		cmpwi 7,31,0
 1738 00d8 419E000C 		beq- 7,.L102
 1739              		.loc 6 1077 0
 1740 00dc 7FFDFB78 		mr 29,31
 1741              	.LVL141:
 1742 00e0 4BFFFFB8 		b .L147
 1743              	.LVL142:
 1744              	.L102:
 1745              	.LBE1976:
 1746              	.LBE1958:
 1747              	.LBE1957:
 1748              	.LBE1982:
 1749              		.loc 5 56 0
 1750 00e4 83FC0008 		lwz 31,8(28)
 1751              	.LVL143:
 1752              	.LBB1983:
 1753              	.LBB1981:
 1754              	.LBB1977:
 1755              	.LBB1978:
 1756              	.LBB1979:
 1757              	.LBB1980:
 1758              		.loc 7 98 0
 1759 00e8 7F83E378 		mr 3,28
 1760 00ec 48000001 		bl _ZdlPv
 1761              	.LVL144:
 1762              	.LBE1980:
 1763              	.LBE1979:
 1764              	.LBE1978:
 1765              	.LBE1977:
 1766              	.LBE1981:
 1767              		.loc 6 1072 0
 1768 00f0 2F9F0000 		cmpwi 7,31,0
 1769 00f4 419E000C 		beq- 7,.L101
 1770              		.loc 6 1077 0
 1771 00f8 7FFCFB78 		mr 28,31
 1772              	.LVL145:
 1773 00fc 4BFFFF90 		b .L146
 1774              	.LVL146:
 1775              	.L101:
 1776              	.LBE1983:
 1777              	.LBE1955:
 1778              	.LBE1954:
 1779              	.LBE1989:
 1780              		.loc 5 56 0
 1781 0100 83F70008 		lwz 31,8(23)
 1782              	.LVL147:
 1783              	.LBB1990:
 1784              	.LBB1988:
 1785              	.LBB1984:
 1786              	.LBB1985:
 1787              	.LBB1986:
 1788              	.LBB1987:
 1789              		.loc 7 98 0
 1790 0104 7EE3BB78 		mr 3,23
 1791 0108 48000001 		bl _ZdlPv
 1792              	.LVL148:
 1793              	.LBE1987:
 1794              	.LBE1986:
 1795              	.LBE1985:
 1796              	.LBE1984:
 1797              	.LBE1988:
 1798              		.loc 6 1072 0
 1799 010c 2F9F0000 		cmpwi 7,31,0
 1800 0110 419E000C 		beq- 7,.L100
 1801              		.loc 6 1077 0
 1802 0114 7FF7FB78 		mr 23,31
 1803              	.LVL149:
 1804 0118 4BFFFF68 		b .L145
 1805              	.LVL150:
 1806              	.L100:
 1807              	.LBE1990:
 1808              	.LBE1952:
 1809              	.LBE1951:
 1810              	.LBE1996:
 1811              		.loc 5 56 0
 1812 011c 83F80008 		lwz 31,8(24)
 1813              	.LVL151:
 1814              	.LBB1997:
 1815              	.LBB1995:
 1816              	.LBB1991:
 1817              	.LBB1992:
 1818              	.LBB1993:
 1819              	.LBB1994:
 1820              		.loc 7 98 0
 1821 0120 7F03C378 		mr 3,24
 1822 0124 48000001 		bl _ZdlPv
 1823              	.LVL152:
 1824              	.LBE1994:
 1825              	.LBE1993:
 1826              	.LBE1992:
 1827              	.LBE1991:
 1828              	.LBE1995:
 1829              		.loc 6 1072 0
 1830 0128 2F9F0000 		cmpwi 7,31,0
 1831 012c 419E000C 		beq- 7,.L99
 1832              		.loc 6 1077 0
 1833 0130 7FF8FB78 		mr 24,31
 1834              	.LVL153:
 1835 0134 4BFFFF40 		b .L144
 1836              	.LVL154:
 1837              	.L99:
 1838              	.LBE1997:
 1839              	.LBE1949:
 1840              	.LBE1948:
 1841              	.LBE2003:
 1842              		.loc 5 56 0
 1843 0138 83F90008 		lwz 31,8(25)
 1844              	.LVL155:
 1845              	.LBB2004:
 1846              	.LBB2002:
 1847              	.LBB1998:
 1848              	.LBB1999:
 1849              	.LBB2000:
 1850              	.LBB2001:
 1851              		.loc 7 98 0
 1852 013c 7F23CB78 		mr 3,25
 1853 0140 48000001 		bl _ZdlPv
 1854              	.LVL156:
 1855              	.LBE2001:
 1856              	.LBE2000:
 1857              	.LBE1999:
 1858              	.LBE1998:
 1859              	.LBE2002:
 1860              		.loc 6 1072 0
 1861 0144 2F9F0000 		cmpwi 7,31,0
 1862 0148 419E000C 		beq- 7,.L98
 1863              		.loc 6 1077 0
 1864 014c 7FF9FB78 		mr 25,31
 1865              	.LVL157:
 1866 0150 4BFFFF18 		b .L143
 1867              	.LVL158:
 1868              	.L98:
 1869              	.LBE2004:
 1870              	.LBE1946:
 1871              	.LBE1945:
 1872              	.LBE2010:
 1873              		.loc 5 56 0
 1874 0154 83FA0008 		lwz 31,8(26)
 1875              	.LVL159:
 1876              	.LBB2011:
 1877              	.LBB2009:
 1878              	.LBB2005:
 1879              	.LBB2006:
 1880              	.LBB2007:
 1881              	.LBB2008:
 1882              		.loc 7 98 0
 1883 0158 7F43D378 		mr 3,26
 1884 015c 48000001 		bl _ZdlPv
 1885              	.LVL160:
 1886              	.LBE2008:
 1887              	.LBE2007:
 1888              	.LBE2006:
 1889              	.LBE2005:
 1890              	.LBE2009:
 1891              		.loc 6 1072 0
 1892 0160 2F9F0000 		cmpwi 7,31,0
 1893 0164 419E000C 		beq- 7,.L97
 1894              		.loc 6 1077 0
 1895 0168 7FFAFB78 		mr 26,31
 1896              	.LVL161:
 1897 016c 4BFFFEF0 		b .L142
 1898              	.LVL162:
 1899              	.L97:
 1900              	.LBE2011:
 1901              	.LBE1943:
 1902              	.LBE1942:
 1903              	.LBE2017:
 1904              		.loc 5 56 0
 1905 0170 83FB0008 		lwz 31,8(27)
 1906              	.LVL163:
 1907              	.LBB2018:
 1908              	.LBB2016:
 1909              	.LBB2012:
 1910              	.LBB2013:
 1911              	.LBB2014:
 1912              	.LBB2015:
 1913              		.loc 7 98 0
 1914 0174 7F63DB78 		mr 3,27
 1915 0178 48000001 		bl _ZdlPv
 1916              	.LVL164:
 1917              	.LBE2015:
 1918              	.LBE2014:
 1919              	.LBE2013:
 1920              	.LBE2012:
 1921              	.LBE2016:
 1922              		.loc 6 1072 0
 1923 017c 2F9F0000 		cmpwi 7,31,0
 1924 0180 419E000C 		beq- 7,.L96
 1925              		.loc 6 1077 0
 1926 0184 7FFBFB78 		mr 27,31
 1927              	.LVL165:
 1928 0188 4BFFFEC8 		b .L141
 1929              	.LVL166:
 1930              	.L96:
 1931              		.loc 5 56 0
 1932 018c 83F60008 		lwz 31,8(22)
 1933              	.LVL167:
 1934              	.LBE2018:
 1935              	.LBE1940:
 1936              	.LBB2019:
 1937              	.LBB2020:
 1938              	.LBB2021:
 1939              	.LBB2022:
 1940              		.loc 7 98 0
 1941 0190 7EC3B378 		mr 3,22
 1942 0194 48000001 		bl _ZdlPv
 1943              	.LVL168:
 1944              	.LBE2022:
 1945              	.LBE2021:
 1946              	.LBE2020:
 1947              	.LBE2019:
 1948              	.LBE1939:
 1949              		.loc 6 1072 0
 1950 0198 2F9F0000 		cmpwi 7,31,0
 1951 019c 419E000C 		beq- 7,.L94
 1952              		.loc 6 1077 0
 1953 01a0 7FF6FB78 		mr 22,31
 1954              	.LVL169:
 1955 01a4 4BFFFEA0 		b .L140
 1956              	.LVL170:
 1957              	.L94:
 1958              	.LBE2023:
 1959              		.loc 6 1079 0
 1960 01a8 8001003C 		lwz 0,60(1)
 1961 01ac 82A1000C 		lwz 21,12(1)
 1962 01b0 7C0803A6 		mtlr 0
 1963 01b4 82C10010 		lwz 22,16(1)
 1964 01b8 82E10014 		lwz 23,20(1)
 1965 01bc 83010018 		lwz 24,24(1)
 1966 01c0 8321001C 		lwz 25,28(1)
 1967 01c4 83410020 		lwz 26,32(1)
 1968 01c8 83610024 		lwz 27,36(1)
 1969 01cc 83810028 		lwz 28,40(1)
 1970 01d0 83A1002C 		lwz 29,44(1)
 1971 01d4 83C10030 		lwz 30,48(1)
 1972              	.LVL171:
 1973 01d8 83E10034 		lwz 31,52(1)
 1974 01dc 38210038 		addi 1,1,56
 1975              	.LCFI33:
 1976              		.cfi_def_cfa_offset 0
 1977              		.cfi_restore 31
 1978              		.cfi_restore 30
 1979              		.cfi_restore 29
 1980              		.cfi_restore 28
 1981              		.cfi_restore 27
 1982              		.cfi_restore 26
 1983              		.cfi_restore 25
 1984              		.cfi_restore 24
 1985              		.cfi_restore 23
 1986              		.cfi_restore 22
 1987              		.cfi_restore 21
 1988 01e0 4E800020 		blr
 1989              		.cfi_endproc
 1990              	.LFE1644:
 1991              		.size	_ZNSt8_Rb_treeIPN7sigslot12_signal_baseINS0_15single_threadedEEES4_St9_IdentityIS4_ESt4lessI
 1992              		.section	.text._ZN7sigslot9has_slotsINS_15single_threadedEED2Ev,"axG",@progbits,_ZN7sigslot9has_sl
 1993              		.align 2
 1994              		.weak	_ZN7sigslot9has_slotsINS_15single_threadedEED2Ev
 1995              		.type	_ZN7sigslot9has_slotsINS_15single_threadedEED2Ev, @function
 1996              	_ZN7sigslot9has_slotsINS_15single_threadedEED2Ev:
 1997              	.LFB1533:
 1998              		.loc 1 513 0
 1999              		.cfi_startproc
 2000              		.cfi_personality 0,__gxx_personality_v0
 2001              		.cfi_lsda 0,.LLSDA1533
 2002              	.LVL172:
 2003 0000 7C0802A6 		mflr 0
 2004 0004 9421FFE0 		stwu 1,-32(1)
 2005              	.LCFI34:
 2006              		.cfi_def_cfa_offset 32
 2007              		.cfi_register 65, 0
 2008              	.LBB2170:
 2009              		.loc 1 516 0
 2010 0008 3D200000 		lis 9,_ZTVN7sigslot9has_slotsINS_15single_threadedEEE+8@ha
 2011              	.LBE2170:
 2012              		.loc 1 513 0
 2013 000c 93810010 		stw 28,16(1)
 2014 0010 3B830004 		addi 28,3,4
 2015              		.cfi_offset 28, -16
 2016 0014 90010024 		stw 0,36(1)
 2017              	.LBB2246:
 2018              		.loc 1 516 0
 2019 0018 38090008 		la 0,_ZTVN7sigslot9has_slotsINS_15single_threadedEEE+8@l(9)
 2020              		.cfi_offset 65, 4
 2021              	.LBE2246:
 2022              		.loc 1 513 0
 2023 001c 93A10014 		stw 29,20(1)
 2024 0020 7C7D1B78 		mr 29,3
 2025              		.cfi_offset 29, -12
 2026 0024 93410008 		stw 26,8(1)
 2027 0028 9361000C 		stw 27,12(1)
 2028 002c 93C10018 		stw 30,24(1)
 2029 0030 93E1001C 		stw 31,28(1)
 2030              	.LBB2247:
 2031              		.loc 1 516 0
 2032 0034 90030000 		stw 0,0(3)
 2033              	.LVL173:
 2034              	.LEHB0:
 2035              	.LBB2171:
 2036              	.LBB2172:
 2037              	.LBB2173:
 2038              	.LBB2174:
 2039              		.loc 1 338 0
 2040              		.cfi_offset 31, -4
 2041              		.cfi_offset 30, -8
 2042              		.cfi_offset 27, -20
 2043              		.cfi_offset 26, -24
 2044 0038 48000001 		bl _ZN7sigslot15single_threaded4lockEv
 2045              	.LEHE0:
 2046              	.LVL174:
 2047              	.LBE2174:
 2048              	.LBE2173:
 2049              	.LBB2175:
 2050              		.loc 5 56 0
 2051 003c 83FD0010 		lwz 31,16(29)
 2052              	.LVL175:
 2053              	.LBE2175:
 2054              	.LBB2176:
 2055              	.LBB2177:
 2056              	.LBB2178:
 2057              		.loc 6 671 0
 2058 0040 3BDC0004 		addi 30,28,4
 2059              	.LVL176:
 2060              	.LBE2178:
 2061              	.LBE2177:
 2062              	.LBE2176:
 2063              		.loc 1 524 0
 2064 0044 7F9FF000 		cmpw 7,31,30
 2065 0048 419E0034 		beq- 7,.L150
 2066              	.LVL177:
 2067              	.L177:
 2068              		.loc 1 526 0
 2069 004c 807F0010 		lwz 3,16(31)
 2070 0050 7FA4EB78 		mr 4,29
 2071 0054 81230000 		lwz 9,0(3)
 2072 0058 80090010 		lwz 0,16(9)
 2073 005c 7C0903A6 		mtctr 0
 2074              	.LEHB1:
 2075 0060 4E800421 		bctrl
 2076              	.LEHE1:
 2077              	.LVL178:
 2078              	.LBB2179:
 2079              	.LBB2180:
 2080              		.loc 6 269 0
 2081 0064 7FE3FB78 		mr 3,31
 2082 0068 48000001 		bl _ZSt18_Rb_tree_incrementPKSt18_Rb_tree_node_base
 2083              	.LBE2180:
 2084              	.LBE2179:
 2085              		.loc 1 524 0
 2086 006c 7F9E1800 		cmpw 7,30,3
 2087              	.LBB2182:
 2088              	.LBB2181:
 2089              		.loc 6 269 0
 2090 0070 7C7F1B78 		mr 31,3
 2091              	.LVL179:
 2092              	.LBE2181:
 2093              	.LBE2182:
 2094              		.loc 1 524 0
 2095 0074 409EFFD8 		bne+ 7,.L177
 2096 0078 83FD0010 		lwz 31,16(29)
 2097              	.LVL180:
 2098              	.L150:
 2099              	.LBB2183:
 2100              	.LBB2184:
 2101              	.LBB2185:
 2102              	.LBB2186:
 2103              	.LBB2187:
 2104              	.LBB2188:
 2105              	.LBB2189:
 2106              		.loc 6 665 0
 2107 007c 3B5C0004 		addi 26,28,4
 2108              	.LBE2189:
 2109              	.LBE2188:
 2110              		.loc 6 1500 0
 2111 0080 7F9ED000 		cmpw 7,30,26
 2112 0084 419E0098 		beq- 7,.L152
 2113              	.LVL181:
 2114              		.loc 6 1503 0
 2115 0088 7F9EF800 		cmpw 7,30,31
 2116 008c 40BE000C 		bne+ 7,.L179
 2117 0090 48000038 		b .L153
 2118              	.LVL182:
 2119              	.L174:
 2120              		.loc 6 277 0
 2121 0094 7F7FDB78 		mr 31,27
 2122              	.LVL183:
 2123              	.L179:
 2124              	.LBB2190:
 2125              	.LBB2191:
 2126 0098 7FE3FB78 		mr 3,31
 2127 009c 48000001 		bl _ZSt18_Rb_tree_incrementPKSt18_Rb_tree_node_base
 2128              	.LBE2191:
 2129              	.LBE2190:
 2130              	.LBB2193:
 2131              	.LBB2194:
 2132              	.LBB2195:
 2133              		.loc 6 1489 0
 2134 00a0 7F44D378 		mr 4,26
 2135              	.LBE2195:
 2136              	.LBE2194:
 2137              	.LBE2193:
 2138              	.LBB2204:
 2139              	.LBB2192:
 2140              		.loc 6 277 0
 2141 00a4 7C7B1B78 		mr 27,3
 2142              	.LVL184:
 2143              	.LBE2192:
 2144              	.LBE2204:
 2145              	.LBB2205:
 2146              	.LBB2202:
 2147              	.LBB2200:
 2148              		.loc 6 1489 0
 2149 00a8 7FE3FB78 		mr 3,31
 2150              	.LVL185:
 2151 00ac 48000001 		bl _ZSt28_Rb_tree_rebalance_for_erasePSt18_Rb_tree_node_baseRS_
 2152              	.LBB2196:
 2153              	.LBB2197:
 2154              	.LBB2198:
 2155              	.LBB2199:
 2156              		.loc 7 98 0
 2157 00b0 48000001 		bl _ZdlPv
 2158              	.LBE2199:
 2159              	.LBE2198:
 2160              	.LBE2197:
 2161              	.LBE2196:
 2162              	.LBE2200:
 2163              	.LBE2202:
 2164              	.LBE2205:
 2165              		.loc 6 1503 0
 2166 00b4 7F9ED800 		cmpw 7,30,27
 2167              	.LBB2206:
 2168              	.LBB2203:
 2169              	.LBB2201:
 2170              		.loc 6 1491 0
 2171 00b8 813C0014 		lwz 9,20(28)
 2172 00bc 3809FFFF 		addi 0,9,-1
 2173 00c0 901C0014 		stw 0,20(28)
 2174              	.LBE2201:
 2175              	.LBE2203:
 2176              	.LBE2206:
 2177              		.loc 6 1503 0
 2178 00c4 409EFFD0 		bne+ 7,.L174
 2179              	.LVL186:
 2180              	.L153:
 2181              	.LBE2187:
 2182              	.LBE2186:
 2183              	.LBE2185:
 2184              	.LBE2184:
 2185              	.LBE2183:
 2186              	.LBB2215:
 2187              	.LBB2216:
 2188              	.LBB2217:
 2189              		.loc 1 343 0
 2190 00c8 813D0000 		lwz 9,0(29)
 2191 00cc 7FA3EB78 		mr 3,29
 2192 00d0 8009000C 		lwz 0,12(9)
 2193 00d4 7C0903A6 		mtctr 0
 2194              	.LEHB2:
 2195 00d8 4E800421 		bctrl
 2196              	.LEHE2:
 2197              	.LVL187:
 2198              	.LBE2217:
 2199              	.LBE2216:
 2200              	.LBE2215:
 2201              	.LBE2172:
 2202              	.LBE2171:
 2203              	.LBB2224:
 2204              	.LBB2225:
 2205              	.LBB2226:
 2206              	.LBB2227:
 2207              	.LBB2228:
 2208              		.loc 6 639 0
 2209 00dc 809D000C 		lwz 4,12(29)
 2210 00e0 7F83E378 		mr 3,28
 2211 00e4 48000001 		bl _ZNSt8_Rb_treeIPN7sigslot12_signal_baseINS0_15single_threadedEEES4_St9_IdentityIS4_ESt4lessIS4_
 2212              	.LVL188:
 2213              	.LBE2228:
 2214              	.LBE2227:
 2215              	.LBE2226:
 2216              	.LBE2225:
 2217              	.LBE2224:
 2218              	.LBB2229:
 2219              	.LBB2230:
 2220              	.LBB2231:
 2221              		.loc 1 105 0
 2222 00e8 3D200000 		lis 9,_ZTVN7sigslot15single_threadedE+8@ha
 2223 00ec 38090008 		la 0,_ZTVN7sigslot15single_threadedE+8@l(9)
 2224              	.LBE2231:
 2225              	.LBE2230:
 2226              	.LBE2229:
 2227              	.LBE2247:
 2228              		.loc 1 516 0
 2229 00f0 83410008 		lwz 26,8(1)
 2230              	.LBB2248:
 2231              	.LBB2234:
 2232              	.LBB2233:
 2233              	.LBB2232:
 2234              		.loc 1 105 0
 2235 00f4 901D0000 		stw 0,0(29)
 2236              	.LBE2232:
 2237              	.LBE2233:
 2238              	.LBE2234:
 2239              	.LBE2248:
 2240              		.loc 1 516 0
 2241 00f8 80010024 		lwz 0,36(1)
 2242 00fc 8361000C 		lwz 27,12(1)
 2243 0100 7C0803A6 		mtlr 0
 2244 0104 83810010 		lwz 28,16(1)
 2245              	.LVL189:
 2246 0108 83A10014 		lwz 29,20(1)
 2247              	.LVL190:
 2248 010c 83C10018 		lwz 30,24(1)
 2249              	.LVL191:
 2250 0110 83E1001C 		lwz 31,28(1)
 2251 0114 38210020 		addi 1,1,32
 2252              		.cfi_remember_state
 2253              	.LCFI35:
 2254              		.cfi_def_cfa_offset 0
 2255              		.cfi_restore 31
 2256              		.cfi_restore 30
 2257              		.cfi_restore 29
 2258              		.cfi_restore 28
 2259              		.cfi_restore 27
 2260              		.cfi_restore 26
 2261 0118 4E800020 		blr
 2262              	.LVL192:
 2263              	.L152:
 2264              	.LCFI36:
 2265              		.cfi_restore_state
 2266              	.LBB2249:
 2267              	.LBB2235:
 2268              	.LBB2222:
 2269              	.LBB2218:
 2270              	.LBB2214:
 2271              	.LBB2213:
 2272              	.LBB2212:
 2273              	.LBB2211:
 2274              	.LBB2207:
 2275              	.LBB2208:
 2276              	.LBB2209:
 2277              	.LBB2210:
 2278              		.loc 6 809 0
 2279 011c 809D000C 		lwz 4,12(29)
 2280 0120 7F83E378 		mr 3,28
 2281 0124 48000001 		bl _ZNSt8_Rb_treeIPN7sigslot12_signal_baseINS0_15single_threadedEEES4_St9_IdentityIS4_ESt4lessIS4_
 2282              	.LVL193:
 2283              		.loc 6 811 0
 2284 0128 38000000 		li 0,0
 2285              		.loc 6 810 0
 2286 012c 93DD0010 		stw 30,16(29)
 2287              	.LVL194:
 2288              		.loc 6 811 0
 2289 0130 901D000C 		stw 0,12(29)
 2290              	.LVL195:
 2291              		.loc 6 812 0
 2292 0134 93DD0014 		stw 30,20(29)
 2293              		.loc 6 813 0
 2294 0138 901D0018 		stw 0,24(29)
 2295 013c 4BFFFF8C 		b .L153
 2296              	.LVL196:
 2297              	.L175:
 2298 0140 7C7F1B78 		mr 31,3
 2299              	.L160:
 2300              	.LVL197:
 2301              	.LBE2210:
 2302              	.LBE2209:
 2303              	.LBE2208:
 2304              	.LBE2207:
 2305              	.LBE2211:
 2306              	.LBE2212:
 2307              	.LBE2213:
 2308              	.LBE2214:
 2309              	.LBE2218:
 2310              	.LBE2222:
 2311              	.LBE2235:
 2312              	.LBB2236:
 2313              	.LBB2237:
 2314              	.LBB2238:
 2315              	.LBB2239:
 2316              	.LBB2240:
 2317              	.LBB2241:
 2318              		.loc 6 639 0
 2319 0144 809D000C 		lwz 4,12(29)
 2320 0148 7F83E378 		mr 3,28
 2321 014c 48000001 		bl _ZNSt8_Rb_treeIPN7sigslot12_signal_baseINS0_15single_threadedEEES4_St9_IdentityIS4_ESt4lessIS4_
 2322              	.LVL198:
 2323              	.LBE2241:
 2324              	.LBE2240:
 2325              	.LBE2239:
 2326              	.LBE2238:
 2327              	.LBE2237:
 2328              	.LBE2236:
 2329              	.LBB2242:
 2330              	.LBB2243:
 2331              	.LBB2244:
 2332              		.loc 1 105 0
 2333 0150 3D200000 		lis 9,_ZTVN7sigslot15single_threadedE+8@ha
 2334 0154 38090008 		la 0,_ZTVN7sigslot15single_threadedE+8@l(9)
 2335 0158 7FE3FB78 		mr 3,31
 2336 015c 901D0000 		stw 0,0(29)
 2337              	.LEHB3:
 2338 0160 48000001 		bl _Unwind_Resume
 2339              	.LEHE3:
 2340              	.LVL199:
 2341              	.L176:
 2342              	.LBE2244:
 2343              	.LBE2243:
 2344              	.LBE2242:
 2345              	.LBB2245:
 2346              	.LBB2223:
 2347              	.LBB2219:
 2348              	.LBB2220:
 2349              	.LBB2221:
 2350              		.loc 1 343 0
 2351 0164 813D0000 		lwz 9,0(29)
 2352 0168 7C7F1B78 		mr 31,3
 2353              	.LVL200:
 2354 016c 7FA3EB78 		mr 3,29
 2355 0170 8009000C 		lwz 0,12(9)
 2356 0174 7C0903A6 		mtctr 0
 2357 0178 4E800421 		bctrl
 2358 017c 4BFFFFC8 		b .L160
 2359              	.LBE2221:
 2360              	.LBE2220:
 2361              	.LBE2219:
 2362              	.LBE2223:
 2363              	.LBE2245:
 2364              	.LBE2249:
 2365              		.cfi_endproc
 2366              	.LFE1533:
 2367              		.globl __gxx_personality_v0
 2368              		.section	.gcc_except_table,"a",@progbits
 2369              	.LLSDA1533:
 2370 0000 FF       		.byte	0xff
 2371 0001 FF       		.byte	0xff
 2372 0002 01       		.byte	0x1
 2373 0003 15       		.uleb128 .LLSDACSE1533-.LLSDACSB1533
 2374              	.LLSDACSB1533:
 2375 0004 38       		.uleb128 .LEHB0-.LFB1533
 2376 0005 04       		.uleb128 .LEHE0-.LEHB0
 2377 0006 C002     		.uleb128 .L175-.LFB1533
 2378 0008 00       		.uleb128 0
 2379 0009 60       		.uleb128 .LEHB1-.LFB1533
 2380 000a 04       		.uleb128 .LEHE1-.LEHB1
 2381 000b E402     		.uleb128 .L176-.LFB1533
 2382 000d 00       		.uleb128 0
 2383 000e D801     		.uleb128 .LEHB2-.LFB1533
 2384 0010 04       		.uleb128 .LEHE2-.LEHB2
 2385 0011 C002     		.uleb128 .L175-.LFB1533
 2386 0013 00       		.uleb128 0
 2387 0014 E002     		.uleb128 .LEHB3-.LFB1533
 2388 0016 04       		.uleb128 .LEHE3-.LEHB3
 2389 0017 00       		.uleb128 0
 2390 0018 00       		.uleb128 0
 2391              	.LLSDACSE1533:
 2392              		.section	.text._ZN7sigslot9has_slotsINS_15single_threadedEED2Ev,"axG",@progbits,_ZN7sigslot9has_sl
 2393              		.size	_ZN7sigslot9has_slotsINS_15single_threadedEED2Ev, .-_ZN7sigslot9has_slotsINS_15single_thread
 2394              		.section	".text"
 2395              		.align 2
 2396              		.globl _ZN15SettingsBrowserC2Ev
 2397              		.type	_ZN15SettingsBrowserC2Ev, @function
 2398              	_ZN15SettingsBrowserC2Ev:
 2399              	.LFB1492:
 2400              		.loc 5 27 0
 2401              		.cfi_startproc
 2402              		.cfi_personality 0,__gxx_personality_v0
 2403              		.cfi_lsda 0,.LLSDA1492
 2404              	.LVL201:
 2405              	.LBB2250:
 2406              		.loc 5 28 0
 2407 0000 3D200000 		lis 9,screenwidth@ha
 2408              	.LBE2250:
 2409              		.loc 5 27 0
 2410 0004 7C0802A6 		mflr 0
 2411              	.LBB2279:
 2412              		.loc 5 28 0
 2413 0008 80890000 		lwz 4,screenwidth@l(9)
 2414 000c 3D200000 		lis 9,screenheight@ha
 2415              	.LBE2279:
 2416              		.loc 5 27 0
 2417 0010 9421FFE8 		stwu 1,-24(1)
 2418              	.LCFI37:
 2419              		.cfi_def_cfa_offset 24
 2420              		.cfi_register 65, 0
 2421              	.LBB2280:
 2422              		.loc 5 28 0
 2423 0014 38C00000 		li 6,0
 2424 0018 80A90000 		lwz 5,screenheight@l(9)
 2425              	.LBE2280:
 2426              		.loc 5 27 0
 2427 001c 9001001C 		stw 0,28(1)
 2428 0020 93E10014 		stw 31,20(1)
 2429 0024 7C7F1B78 		mr 31,3
 2430              		.cfi_offset 31, -4
 2431              		.cfi_offset 65, 4
 2432 0028 93A1000C 		stw 29,12(1)
 2433 002c 93C10010 		stw 30,16(1)
 2434              	.LEHB4:
 2435              	.LBB2281:
 2436              		.loc 5 28 0
 2437              		.cfi_offset 30, -8
 2438              		.cfi_offset 29, -12
 2439 0030 48000001 		bl _ZN8GuiFrameC2EiiPS_
 2440              	.LEHE4:
 2441              	.LVL202:
 2442 0034 3D200000 		lis 9,_ZTV15SettingsBrowser+8@ha
 2443              	.LBB2251:
 2444              	.LBB2252:
 2445              	.LBB2253:
 2446              	.LBB2254:
 2447              	.LBB2255:
 2448              	.LBB2256:
 2449              		.loc 6 445 0
 2450 0038 38000000 		li 0,0
 2451              	.LBE2256:
 2452              	.LBE2255:
 2453              	.LBE2254:
 2454              	.LBE2253:
 2455              	.LBE2252:
 2456              	.LBE2251:
 2457              		.loc 5 28 0
 2458 003c 39290008 		la 9,_ZTV15SettingsBrowser+8@l(9)
 2459              	.LBB2276:
 2460              	.LBB2273:
 2461              	.LBB2270:
 2462              	.LBB2267:
 2463              	.LBB2264:
 2464              	.LBB2261:
 2465              	.LBB2257:
 2466              	.LBB2258:
 2467              		.loc 6 459 0
 2468 0040 397F00B8 		addi 11,31,184
 2469              	.LBE2258:
 2470              	.LBE2257:
 2471              	.LBE2261:
 2472              	.LBE2264:
 2473              	.LBE2267:
 2474              	.LBE2270:
 2475              	.LBE2273:
 2476              	.LBE2276:
 2477              		.loc 5 28 0
 2478 0044 394900F0 		addi 10,9,240
 2479              	.LBB2277:
 2480              	.LBB2274:
 2481              	.LBB2271:
 2482              	.LBB2268:
 2483              	.LBB2265:
 2484              	.LBB2262:
 2485              		.loc 6 445 0
 2486 0048 901F00B8 		stw 0,184(31)
 2487 004c 901F00BC 		stw 0,188(31)
 2488              	.LBE2262:
 2489              	.LBE2265:
 2490              	.LBE2268:
 2491              	.LBE2271:
 2492              	.LBE2274:
 2493              	.LBE2277:
 2494              		.loc 5 33 0
 2495 0050 38600020 		li 3,32
 2496              	.LBB2278:
 2497              	.LBB2275:
 2498              	.LBB2272:
 2499              	.LBB2269:
 2500              	.LBB2266:
 2501              	.LBB2263:
 2502              		.loc 6 445 0
 2503 0054 901F00C8 		stw 0,200(31)
 2504              	.LVL203:
 2505              	.LBB2260:
 2506              	.LBB2259:
 2507              		.loc 6 459 0
 2508 0058 917F00C0 		stw 11,192(31)
 2509              		.loc 6 460 0
 2510 005c 917F00C4 		stw 11,196(31)
 2511              	.LBE2259:
 2512              	.LBE2260:
 2513              	.LBE2263:
 2514              	.LBE2266:
 2515              	.LBE2269:
 2516              	.LBE2272:
 2517              	.LBE2275:
 2518              	.LBE2278:
 2519              		.loc 5 28 0
 2520 0060 913F0000 		stw 9,0(31)
 2521 0064 915F00B0 		stw 10,176(31)
 2522              		.loc 5 30 0
 2523 0068 901F00CC 		stw 0,204(31)
 2524              		.loc 5 31 0
 2525 006c 901F00D0 		stw 0,208(31)
 2526              	.LEHB5:
 2527              		.loc 5 33 0
 2528 0070 48000001 		bl _Znwj
 2529              	.LEHE5:
 2530 0074 7C7E1B78 		mr 30,3
 2531              	.LEHB6:
 2532 0078 48000001 		bl _ZN10OptionListC1Ev
 2533              	.LEHE6:
 2534              	.LBE2281:
 2535              		.loc 5 34 0 discriminator 2
 2536 007c 8001001C 		lwz 0,28(1)
 2537              	.LBB2282:
 2538              		.loc 5 33 0 discriminator 2
 2539 0080 93DF00CC 		stw 30,204(31)
 2540              	.LBE2282:
 2541              		.loc 5 34 0 discriminator 2
 2542 0084 7C0803A6 		mtlr 0
 2543 0088 83A1000C 		lwz 29,12(1)
 2544 008c 83C10010 		lwz 30,16(1)
 2545 0090 83E10014 		lwz 31,20(1)
 2546              	.LVL204:
 2547 0094 38210018 		addi 1,1,24
 2548              		.cfi_remember_state
 2549              	.LCFI38:
 2550              		.cfi_def_cfa_offset 0
 2551              		.cfi_restore 31
 2552              		.cfi_restore 30
 2553              		.cfi_restore 29
 2554 0098 4E800020 		blr
 2555              	.LVL205:
 2556              	.L184:
 2557              	.LCFI39:
 2558              		.cfi_restore_state
 2559 009c 7C7E1B78 		mr 30,3
 2560              	.L183:
 2561              	.LBB2283:
 2562              		.loc 5 28 0
 2563 00a0 387F00B0 		addi 3,31,176
 2564 00a4 48000001 		bl _ZN7sigslot9has_slotsINS_15single_threadedEED2Ev
 2565 00a8 7FE3FB78 		mr 3,31
 2566 00ac 48000001 		bl _ZN8GuiFrameD2Ev
 2567 00b0 7FC3F378 		mr 3,30
 2568              	.LEHB7:
 2569 00b4 48000001 		bl _Unwind_Resume
 2570              	.LEHE7:
 2571              	.L185:
 2572 00b8 7C7D1B78 		mr 29,3
 2573              		.loc 5 33 0
 2574 00bc 7FC3F378 		mr 3,30
 2575 00c0 48000001 		bl _ZdlPv
 2576 00c4 7FBEEB78 		mr 30,29
 2577 00c8 4BFFFFD8 		b .L183
 2578              	.LBE2283:
 2579              		.cfi_endproc
 2580              	.LFE1492:
 2581              		.section	.gcc_except_table
 2582              	.LLSDA1492:
 2583 0019 FF       		.byte	0xff
 2584 001a FF       		.byte	0xff
 2585 001b 01       		.byte	0x1
 2586 001c 13       		.uleb128 .LLSDACSE1492-.LLSDACSB1492
 2587              	.LLSDACSB1492:
 2588 001d 30       		.uleb128 .LEHB4-.LFB1492
 2589 001e 04       		.uleb128 .LEHE4-.LEHB4
 2590 001f 00       		.uleb128 0
 2591 0020 00       		.uleb128 0
 2592 0021 70       		.uleb128 .LEHB5-.LFB1492
 2593 0022 04       		.uleb128 .LEHE5-.LEHB5
 2594 0023 9C01     		.uleb128 .L184-.LFB1492
 2595 0025 00       		.uleb128 0
 2596 0026 78       		.uleb128 .LEHB6-.LFB1492
 2597 0027 04       		.uleb128 .LEHE6-.LEHB6
 2598 0028 B801     		.uleb128 .L185-.LFB1492
 2599 002a 00       		.uleb128 0
 2600 002b B401     		.uleb128 .LEHB7-.LFB1492
 2601 002d 04       		.uleb128 .LEHE7-.LEHB7
 2602 002e 00       		.uleb128 0
 2603 002f 00       		.uleb128 0
 2604              	.LLSDACSE1492:
 2605              		.section	".text"
 2606              		.size	_ZN15SettingsBrowserC2Ev, .-_ZN15SettingsBrowserC2Ev
 2607              		.align 2
 2608              		.globl _ZThn176_N15SettingsBrowserD1Ev
 2609              		.type	_ZThn176_N15SettingsBrowserD1Ev, @function
 2610              	_ZThn176_N15SettingsBrowserD1Ev:
 2611              	.LFB2033:
 2612              		.cfi_startproc
 2613 00cc 3863FF50 		addi 3,3,-176
 2614 00d0 48000004 		b .LTHUNK0
 2615              		.cfi_endproc
 2616              	.LFE2033:
 2617              		.size	_ZThn176_N15SettingsBrowserD1Ev, .-_ZThn176_N15SettingsBrowserD1Ev
 2618              		.align 2
 2619              		.globl _ZN15SettingsBrowserD2Ev
 2620              		.type	_ZN15SettingsBrowserD2Ev, @function
 2621              	_ZN15SettingsBrowserD2Ev:
 2622              	.LFB1495:
 2623              		.loc 5 36 0
 2624              		.cfi_startproc
 2625              		.cfi_personality 0,__gxx_personality_v0
 2626              		.cfi_lsda 0,.LLSDA1495
 2627              	.LVL206:
 2628 00d4 7C0802A6 		mflr 0
 2629 00d8 9421FFE8 		stwu 1,-24(1)
 2630              	.LCFI40:
 2631              		.cfi_def_cfa_offset 24
 2632              		.cfi_register 65, 0
 2633              	.LBB2378:
 2634 00dc 3D200000 		lis 9,_ZTV15SettingsBrowser+8@ha
 2635 00e0 39290008 		la 9,_ZTV15SettingsBrowser+8@l(9)
 2636              	.LBE2378:
 2637 00e4 93810008 		stw 28,8(1)
 2638 00e8 9001001C 		stw 0,28(1)
 2639              	.LBB2464:
 2640 00ec 380900F0 		addi 0,9,240
 2641              		.cfi_offset 65, 4
 2642              		.cfi_offset 28, -16
 2643              	.LBE2464:
 2644 00f0 93A1000C 		stw 29,12(1)
 2645 00f4 7C7C1B78 		mr 28,3
 2646 00f8 93C10010 		stw 30,16(1)
 2647 00fc 93E10014 		stw 31,20(1)
 2648              	.LBB2465:
 2649              		.loc 5 36 0
 2650 0100 91230000 		stw 9,0(3)
 2651 0104 900300B0 		stw 0,176(3)
 2652              	.LEHB8:
 2653              		.loc 5 38 0
 2654              		.cfi_offset 31, -4
 2655              		.cfi_offset 30, -8
 2656              		.cfi_offset 29, -12
 2657 0108 48000001 		bl _ZN8GuiFrame9RemoveAllEv
 2658              	.LVL207:
 2659              		.loc 5 40 0
 2660 010c 807C00D0 		lwz 3,208(28)
 2661 0110 2F830000 		cmpwi 7,3,0
 2662 0114 419E0014 		beq- 7,.L187
 2663              		.loc 5 40 0 is_stmt 0 discriminator 1
 2664 0118 81230000 		lwz 9,0(3)
 2665 011c 80090004 		lwz 0,4(9)
 2666 0120 7C0903A6 		mtctr 0
 2667 0124 4E800421 		bctrl
 2668              	.L187:
 2669              		.loc 5 41 0 is_stmt 1
 2670 0128 807C00CC 		lwz 3,204(28)
 2671 012c 2F830000 		cmpwi 7,3,0
 2672 0130 419E0014 		beq- 7,.L188
 2673              		.loc 5 41 0 is_stmt 0 discriminator 1
 2674 0134 81230000 		lwz 9,0(3)
 2675 0138 80090004 		lwz 0,4(9)
 2676 013c 7C0903A6 		mtctr 0
 2677 0140 4E800421 		bctrl
 2678              	.LEHE8:
 2679              	.L188:
 2680              		.loc 5 43 0 is_stmt 1
 2681 0144 38000000 		li 0,0
 2682              	.LBB2379:
 2683              	.LBB2380:
 2684              	.LBB2381:
 2685              		.loc 1 516 0
 2686 0148 3D200000 		lis 9,_ZTVN7sigslot9has_slotsINS_15single_threadedEEE+8@ha
 2687              	.LBE2381:
 2688              	.LBE2380:
 2689              	.LBE2379:
 2690              		.loc 5 43 0
 2691 014c 901C00D0 		stw 0,208(28)
 2692              		.loc 5 36 0
 2693 0150 3BBC00B0 		addi 29,28,176
 2694              	.LVL208:
 2695              		.loc 5 44 0
 2696 0154 901C00CC 		stw 0,204(28)
 2697              	.LBB2461:
 2698              	.LBB2458:
 2699              	.LBB2455:
 2700              		.loc 1 516 0
 2701 0158 38090008 		la 0,_ZTVN7sigslot9has_slotsINS_15single_threadedEEE+8@l(9)
 2702 015c 901C00B0 		stw 0,176(28)
 2703              	.LVL209:
 2704              	.LBB2382:
 2705              	.LBB2383:
 2706              	.LBB2384:
 2707              	.LBB2385:
 2708              		.loc 1 338 0
 2709 0160 7FA3EB78 		mr 3,29
 2710 0164 3BFC00B4 		addi 31,28,180
 2711              	.LEHB9:
 2712 0168 48000001 		bl _ZN7sigslot15single_threaded4lockEv
 2713              	.LEHE9:
 2714              	.LVL210:
 2715              	.LBE2385:
 2716              	.LBE2384:
 2717              	.LBB2386:
 2718              		.loc 5 56 0
 2719 016c 83FC00C0 		lwz 31,192(28)
 2720              	.LVL211:
 2721              	.LBE2386:
 2722              	.LBB2387:
 2723              	.LBB2388:
 2724              	.LBB2389:
 2725              		.loc 6 671 0
 2726 0170 3BDC00B8 		addi 30,28,184
 2727              	.LVL212:
 2728              	.LBE2389:
 2729              	.LBE2388:
 2730              	.LBE2387:
 2731              		.loc 1 524 0
 2732 0174 7F9FF000 		cmpw 7,31,30
 2733 0178 419E0030 		beq- 7,.L189
 2734              	.LVL213:
 2735              	.L220:
 2736              		.loc 1 526 0
 2737 017c 807F0010 		lwz 3,16(31)
 2738 0180 7FA4EB78 		mr 4,29
 2739 0184 81230000 		lwz 9,0(3)
 2740 0188 80090010 		lwz 0,16(9)
 2741 018c 7C0903A6 		mtctr 0
 2742              	.LEHB10:
 2743 0190 4E800421 		bctrl
 2744              	.LEHE10:
 2745              	.LVL214:
 2746              	.LBB2390:
 2747              	.LBB2391:
 2748              		.loc 6 269 0
 2749 0194 7FE3FB78 		mr 3,31
 2750 0198 48000001 		bl _ZSt18_Rb_tree_incrementPKSt18_Rb_tree_node_base
 2751              	.LBE2391:
 2752              	.LBE2390:
 2753              		.loc 1 524 0
 2754 019c 7F9E1800 		cmpw 7,30,3
 2755              	.LBB2393:
 2756              	.LBB2392:
 2757              		.loc 6 269 0
 2758 01a0 7C7F1B78 		mr 31,3
 2759              	.LVL215:
 2760              	.LBE2392:
 2761              	.LBE2393:
 2762              		.loc 1 524 0
 2763 01a4 409EFFD8 		bne+ 7,.L220
 2764              	.LVL216:
 2765              	.L189:
 2766              	.LBB2394:
 2767              	.LBB2395:
 2768              		.file 8 "d:\\devkitpro\\devkitppc\\bin\\../lib/gcc/powerpc-eabi/4.6.3/../../../../powerpc-eabi/inc
 2769              		.loc 8 562 0
 2770 01a8 3BFC00B4 		addi 31,28,180
 2771              	.LVL217:
 2772              	.LBB2396:
 2773              	.LBB2397:
 2774              	.LBB2398:
 2775              	.LBB2399:
 2776              	.LBB2400:
 2777              	.LBB2401:
 2778              	.LBB2402:
 2779              		.loc 6 809 0
 2780 01ac 809C00BC 		lwz 4,188(28)
 2781 01b0 7FE3FB78 		mr 3,31
 2782 01b4 48000001 		bl _ZNSt8_Rb_treeIPN7sigslot12_signal_baseINS0_15single_threadedEEES4_St9_IdentityIS4_ESt4lessIS4_
 2783              	.LVL218:
 2784              		.loc 6 811 0
 2785 01b8 38000000 		li 0,0
 2786              		.loc 6 810 0
 2787 01bc 93DC00C0 		stw 30,192(28)
 2788              	.LVL219:
 2789              	.LBE2402:
 2790              	.LBE2401:
 2791              	.LBE2400:
 2792              	.LBE2399:
 2793              	.LBE2398:
 2794              	.LBE2397:
 2795              	.LBE2396:
 2796              	.LBE2395:
 2797              	.LBE2394:
 2798              	.LBB2419:
 2799              	.LBB2420:
 2800              	.LBB2421:
 2801              		.loc 1 343 0
 2802 01c0 7FA3EB78 		mr 3,29
 2803              	.LBE2421:
 2804              	.LBE2420:
 2805              	.LBE2419:
 2806              	.LBB2426:
 2807              	.LBB2417:
 2808              	.LBB2415:
 2809              	.LBB2413:
 2810              	.LBB2411:
 2811              	.LBB2409:
 2812              	.LBB2407:
 2813              	.LBB2405:
 2814              	.LBB2403:
 2815              		.loc 6 811 0
 2816 01c4 901C00BC 		stw 0,188(28)
 2817              	.LVL220:
 2818              		.loc 6 812 0
 2819 01c8 93DC00C4 		stw 30,196(28)
 2820              	.LBE2403:
 2821              	.LBE2405:
 2822              	.LBE2407:
 2823              	.LBE2409:
 2824              	.LBE2411:
 2825              	.LBE2413:
 2826              	.LBE2415:
 2827              	.LBE2417:
 2828              	.LBE2426:
 2829              	.LBB2427:
 2830              	.LBB2424:
 2831              	.LBB2422:
 2832              		.loc 1 343 0
 2833 01cc 813C00B0 		lwz 9,176(28)
 2834              	.LBE2422:
 2835              	.LBE2424:
 2836              	.LBE2427:
 2837              	.LBB2428:
 2838              	.LBB2418:
 2839              	.LBB2416:
 2840              	.LBB2414:
 2841              	.LBB2412:
 2842              	.LBB2410:
 2843              	.LBB2408:
 2844              	.LBB2406:
 2845              	.LBB2404:
 2846              		.loc 6 813 0
 2847 01d0 901C00C8 		stw 0,200(28)
 2848              	.LVL221:
 2849              	.LBE2404:
 2850              	.LBE2406:
 2851              	.LBE2408:
 2852              	.LBE2410:
 2853              	.LBE2412:
 2854              	.LBE2414:
 2855              	.LBE2416:
 2856              	.LBE2418:
 2857              	.LBE2428:
 2858              	.LBB2429:
 2859              	.LBB2425:
 2860              	.LBB2423:
 2861              		.loc 1 343 0
 2862 01d4 8009000C 		lwz 0,12(9)
 2863 01d8 7C0903A6 		mtctr 0
 2864              	.LEHB11:
 2865 01dc 4E800421 		bctrl
 2866              	.LEHE11:
 2867              	.LVL222:
 2868              	.LBE2423:
 2869              	.LBE2425:
 2870              	.LBE2429:
 2871              	.LBE2383:
 2872              	.LBE2382:
 2873              	.LBB2434:
 2874              	.LBB2435:
 2875              	.LBB2436:
 2876              	.LBB2437:
 2877              	.LBB2438:
 2878              		.loc 6 639 0
 2879 01e0 809C00BC 		lwz 4,188(28)
 2880 01e4 7FE3FB78 		mr 3,31
 2881 01e8 48000001 		bl _ZNSt8_Rb_treeIPN7sigslot12_signal_baseINS0_15single_threadedEEES4_St9_IdentityIS4_ESt4lessIS4_
 2882              	.LBE2438:
 2883              	.LBE2437:
 2884              	.LBE2436:
 2885              	.LBE2435:
 2886              	.LBE2434:
 2887              	.LBB2439:
 2888              	.LBB2440:
 2889              	.LBB2441:
 2890              		.loc 1 105 0
 2891 01ec 3D200000 		lis 9,_ZTVN7sigslot15single_threadedE+8@ha
 2892 01f0 38090008 		la 0,_ZTVN7sigslot15single_threadedE+8@l(9)
 2893              	.LBE2441:
 2894              	.LBE2440:
 2895              	.LBE2439:
 2896              	.LBE2455:
 2897              	.LBE2458:
 2898              	.LBE2461:
 2899              		.loc 5 36 0
 2900 01f4 7F83E378 		mr 3,28
 2901              	.LBB2462:
 2902              	.LBB2459:
 2903              	.LBB2456:
 2904              	.LBB2444:
 2905              	.LBB2443:
 2906              	.LBB2442:
 2907              		.loc 1 105 0
 2908 01f8 901C00B0 		stw 0,176(28)
 2909              	.LEHB12:
 2910              	.LBE2442:
 2911              	.LBE2443:
 2912              	.LBE2444:
 2913              	.LBE2456:
 2914              	.LBE2459:
 2915              	.LBE2462:
 2916              		.loc 5 36 0
 2917 01fc 48000001 		bl _ZN8GuiFrameD2Ev
 2918              	.LEHE12:
 2919              	.LBE2465:
 2920              		.loc 5 45 0
 2921 0200 8001001C 		lwz 0,28(1)
 2922 0204 83810008 		lwz 28,8(1)
 2923              	.LVL223:
 2924 0208 7C0803A6 		mtlr 0
 2925 020c 83A1000C 		lwz 29,12(1)
 2926              	.LVL224:
 2927 0210 83C10010 		lwz 30,16(1)
 2928              	.LVL225:
 2929 0214 83E10014 		lwz 31,20(1)
 2930              	.LVL226:
 2931 0218 38210018 		addi 1,1,24
 2932              		.cfi_remember_state
 2933              	.LCFI41:
 2934              		.cfi_def_cfa_offset 0
 2935              		.cfi_restore 31
 2936              		.cfi_restore 30
 2937              		.cfi_restore 29
 2938              		.cfi_restore 28
 2939 021c 4E800020 		blr
 2940              	.LVL227:
 2941              	.L217:
 2942              	.LCFI42:
 2943              		.cfi_restore_state
 2944 0220 7C7E1B78 		mr 30,3
 2945              	.LBB2466:
 2946              		.loc 5 36 0
 2947 0224 387C00B0 		addi 3,28,176
 2948 0228 48000001 		bl _ZN7sigslot9has_slotsINS_15single_threadedEED2Ev
 2949              	.L212:
 2950 022c 7F83E378 		mr 3,28
 2951 0230 48000001 		bl _ZN8GuiFrameD2Ev
 2952 0234 7FC3F378 		mr 3,30
 2953              	.LEHB13:
 2954 0238 48000001 		bl _Unwind_Resume
 2955              	.LEHE13:
 2956              	.LVL228:
 2957              	.L219:
 2958              	.LBB2463:
 2959              	.LBB2460:
 2960              	.LBB2457:
 2961              	.LBB2445:
 2962              	.LBB2433:
 2963              	.LBB2430:
 2964              	.LBB2431:
 2965              	.LBB2432:
 2966              		.loc 1 343 0
 2967 023c 813C00B0 		lwz 9,176(28)
 2968 0240 7C7E1B78 		mr 30,3
 2969              	.LVL229:
 2970 0244 7FA3EB78 		mr 3,29
 2971 0248 3BFC00B4 		addi 31,28,180
 2972              	.LVL230:
 2973 024c 8009000C 		lwz 0,12(9)
 2974 0250 7C0903A6 		mtctr 0
 2975 0254 4E800421 		bctrl
 2976              	.LVL231:
 2977              	.L199:
 2978              	.LBE2432:
 2979              	.LBE2431:
 2980              	.LBE2430:
 2981              	.LBE2433:
 2982              	.LBE2445:
 2983              	.LBB2446:
 2984              	.LBB2447:
 2985              	.LBB2448:
 2986              	.LBB2449:
 2987              	.LBB2450:
 2988              	.LBB2451:
 2989              		.loc 6 639 0
 2990 0258 809C00BC 		lwz 4,188(28)
 2991 025c 7FE3FB78 		mr 3,31
 2992 0260 48000001 		bl _ZNSt8_Rb_treeIPN7sigslot12_signal_baseINS0_15single_threadedEEES4_St9_IdentityIS4_ESt4lessIS4_
 2993              	.LBE2451:
 2994              	.LBE2450:
 2995              	.LBE2449:
 2996              	.LBE2448:
 2997              	.LBE2447:
 2998              	.LBE2446:
 2999              	.LBB2452:
 3000              	.LBB2453:
 3001              	.LBB2454:
 3002              		.loc 1 105 0
 3003 0264 3D200000 		lis 9,_ZTVN7sigslot15single_threadedE+8@ha
 3004 0268 38090008 		la 0,_ZTVN7sigslot15single_threadedE+8@l(9)
 3005 026c 901C00B0 		stw 0,176(28)
 3006 0270 4BFFFFBC 		b .L212
 3007              	.LVL232:
 3008              	.L218:
 3009 0274 7C7E1B78 		mr 30,3
 3010 0278 4BFFFFE0 		b .L199
 3011              	.LBE2454:
 3012              	.LBE2453:
 3013              	.LBE2452:
 3014              	.LBE2457:
 3015              	.LBE2460:
 3016              	.LBE2463:
 3017              	.LBE2466:
 3018              		.cfi_endproc
 3019              	.LFE1495:
 3020              		.section	.gcc_except_table
 3021              	.LLSDA1495:
 3022 0030 FF       		.byte	0xff
 3023 0031 FF       		.byte	0xff
 3024 0032 01       		.byte	0x1
 3025 0033 21       		.uleb128 .LLSDACSE1495-.LLSDACSB1495
 3026              	.LLSDACSB1495:
 3027 0034 34       		.uleb128 .LEHB8-.LFB1495
 3028 0035 3C       		.uleb128 .LEHE8-.LEHB8
 3029 0036 CC02     		.uleb128 .L217-.LFB1495
 3030 0038 00       		.uleb128 0
 3031 0039 9401     		.uleb128 .LEHB9-.LFB1495
 3032 003b 04       		.uleb128 .LEHE9-.LEHB9
 3033 003c A003     		.uleb128 .L218-.LFB1495
 3034 003e 00       		.uleb128 0
 3035 003f BC01     		.uleb128 .LEHB10-.LFB1495
 3036 0041 04       		.uleb128 .LEHE10-.LEHB10
 3037 0042 E802     		.uleb128 .L219-.LFB1495
 3038 0044 00       		.uleb128 0
 3039 0045 8802     		.uleb128 .LEHB11-.LFB1495
 3040 0047 04       		.uleb128 .LEHE11-.LEHB11
 3041 0048 A003     		.uleb128 .L218-.LFB1495
 3042 004a 00       		.uleb128 0
 3043 004b A802     		.uleb128 .LEHB12-.LFB1495
 3044 004d 04       		.uleb128 .LEHE12-.LEHB12
 3045 004e 00       		.uleb128 0
 3046 004f 00       		.uleb128 0
 3047 0050 E402     		.uleb128 .LEHB13-.LFB1495
 3048 0052 04       		.uleb128 .LEHE13-.LEHB13
 3049 0053 00       		.uleb128 0
 3050 0054 00       		.uleb128 0
 3051              	.LLSDACSE1495:
 3052              		.section	".text"
 3053              		.size	_ZN15SettingsBrowserD2Ev, .-_ZN15SettingsBrowserD2Ev
 3054              		.align 2
 3055              		.globl _ZThn176_N15SettingsBrowserD0Ev
 3056              		.type	_ZThn176_N15SettingsBrowserD0Ev, @function
 3057              	_ZThn176_N15SettingsBrowserD0Ev:
 3058              	.LFB2034:
 3059              		.cfi_startproc
 3060 027c 3863FF50 		addi 3,3,-176
 3061 0280 48000004 		b .LTHUNK1
 3062              		.cfi_endproc
 3063              	.LFE2034:
 3064              		.size	_ZThn176_N15SettingsBrowserD0Ev, .-_ZThn176_N15SettingsBrowserD0Ev
 3065              		.align 2
 3066              		.globl _ZN15SettingsBrowserD0Ev
 3067              		.type	_ZN15SettingsBrowserD0Ev, @function
 3068              	_ZN15SettingsBrowserD0Ev:
 3069              	.LFB1497:
 3070              		.loc 5 36 0
 3071              		.cfi_startproc
 3072              	.LVL233:
 3073 0284 9421FFF0 		stwu 1,-16(1)
 3074              	.LCFI43:
 3075              		.cfi_def_cfa_offset 16
 3076 0288 7C0802A6 		mflr 0
 3077 028c 93E1000C 		stw 31,12(1)
 3078 0290 7C7F1B78 		mr 31,3
 3079              		.cfi_offset 31, -4
 3080              		.cfi_register 65, 0
 3081 0294 90010014 		stw 0,20(1)
 3082              		.loc 5 45 0
 3083              		.cfi_offset 65, 4
 3084 0298 48000001 		bl _ZN15SettingsBrowserD1Ev
 3085              	.LVL234:
 3086 029c 7FE3FB78 		mr 3,31
 3087 02a0 48000001 		bl _ZdlPv
 3088 02a4 80010014 		lwz 0,20(1)
 3089 02a8 83E1000C 		lwz 31,12(1)
 3090              	.LVL235:
 3091 02ac 7C0803A6 		mtlr 0
 3092 02b0 38210010 		addi 1,1,16
 3093              	.LCFI44:
 3094              		.cfi_def_cfa_offset 0
 3095              		.cfi_restore 31
 3096 02b4 4E800020 		blr
 3097              		.cfi_endproc
 3098              	.LFE1497:
 3099              		.size	_ZN15SettingsBrowserD0Ev, .-_ZN15SettingsBrowserD0Ev
 3100              		.section	.text._ZN7sigslot9has_slotsINS_15single_threadedEED0Ev,"axG",@progbits,_ZN7sigslot9has_sl
 3101              		.align 2
 3102              		.weak	_ZN7sigslot9has_slotsINS_15single_threadedEED0Ev
 3103              		.type	_ZN7sigslot9has_slotsINS_15single_threadedEED0Ev, @function
 3104              	_ZN7sigslot9has_slotsINS_15single_threadedEED0Ev:
 3105              	.LFB1535:
 3106              		.loc 1 513 0
 3107              		.cfi_startproc
 3108              		.cfi_personality 0,__gxx_personality_v0
 3109              		.cfi_lsda 0,.LLSDA1535
 3110              	.LVL236:
 3111 0000 7C0802A6 		mflr 0
 3112 0004 9421FFE0 		stwu 1,-32(1)
 3113              	.LCFI45:
 3114              		.cfi_def_cfa_offset 32
 3115              		.cfi_register 65, 0
 3116              	.LBB2560:
 3117              	.LBB2561:
 3118              	.LBB2562:
 3119              		.loc 1 516 0
 3120 0008 3D200000 		lis 9,_ZTVN7sigslot9has_slotsINS_15single_threadedEEE+8@ha
 3121              	.LBE2562:
 3122              	.LBE2561:
 3123              	.LBE2560:
 3124              		.loc 1 513 0
 3125 000c 93810010 		stw 28,16(1)
 3126 0010 3B830004 		addi 28,3,4
 3127              		.cfi_offset 28, -16
 3128 0014 90010024 		stw 0,36(1)
 3129              	.LBB2646:
 3130              	.LBB2642:
 3131              	.LBB2638:
 3132              		.loc 1 516 0
 3133 0018 38090008 		la 0,_ZTVN7sigslot9has_slotsINS_15single_threadedEEE+8@l(9)
 3134              		.cfi_offset 65, 4
 3135              	.LBE2638:
 3136              	.LBE2642:
 3137              	.LBE2646:
 3138              		.loc 1 513 0
 3139 001c 93A10014 		stw 29,20(1)
 3140 0020 7C7D1B78 		mr 29,3
 3141              		.cfi_offset 29, -12
 3142              	.LVL237:
 3143 0024 93410008 		stw 26,8(1)
 3144 0028 9361000C 		stw 27,12(1)
 3145 002c 93C10018 		stw 30,24(1)
 3146 0030 93E1001C 		stw 31,28(1)
 3147              	.LBB2647:
 3148              	.LBB2643:
 3149              	.LBB2639:
 3150              		.loc 1 516 0
 3151 0034 90030000 		stw 0,0(3)
 3152              	.LVL238:
 3153              	.LEHB14:
 3154              	.LBB2563:
 3155              	.LBB2564:
 3156              	.LBB2565:
 3157              	.LBB2566:
 3158              		.loc 1 338 0
 3159              		.cfi_offset 31, -4
 3160              		.cfi_offset 30, -8
 3161              		.cfi_offset 27, -20
 3162              		.cfi_offset 26, -24
 3163 0038 48000001 		bl _ZN7sigslot15single_threaded4lockEv
 3164              	.LEHE14:
 3165              	.LVL239:
 3166              	.LBE2566:
 3167              	.LBE2565:
 3168              	.LBB2567:
 3169              		.loc 5 56 0
 3170 003c 83FD0010 		lwz 31,16(29)
 3171              	.LVL240:
 3172              	.LBE2567:
 3173              	.LBB2568:
 3174              	.LBB2569:
 3175              	.LBB2570:
 3176              		.loc 6 671 0
 3177 0040 3BDC0004 		addi 30,28,4
 3178              	.LVL241:
 3179              	.LBE2570:
 3180              	.LBE2569:
 3181              	.LBE2568:
 3182              		.loc 1 524 0
 3183 0044 7F9FF000 		cmpw 7,31,30
 3184 0048 419E0034 		beq- 7,.L226
 3185              	.LVL242:
 3186              	.L254:
 3187              		.loc 1 526 0
 3188 004c 807F0010 		lwz 3,16(31)
 3189 0050 7FA4EB78 		mr 4,29
 3190 0054 81230000 		lwz 9,0(3)
 3191 0058 80090010 		lwz 0,16(9)
 3192 005c 7C0903A6 		mtctr 0
 3193              	.LEHB15:
 3194 0060 4E800421 		bctrl
 3195              	.LEHE15:
 3196              	.LVL243:
 3197              	.LBB2571:
 3198              	.LBB2572:
 3199              		.loc 6 269 0
 3200 0064 7FE3FB78 		mr 3,31
 3201 0068 48000001 		bl _ZSt18_Rb_tree_incrementPKSt18_Rb_tree_node_base
 3202              	.LBE2572:
 3203              	.LBE2571:
 3204              		.loc 1 524 0
 3205 006c 7F9E1800 		cmpw 7,30,3
 3206              	.LBB2574:
 3207              	.LBB2573:
 3208              		.loc 6 269 0
 3209 0070 7C7F1B78 		mr 31,3
 3210              	.LVL244:
 3211              	.LBE2573:
 3212              	.LBE2574:
 3213              		.loc 1 524 0
 3214 0074 409EFFD8 		bne+ 7,.L254
 3215 0078 83FD0010 		lwz 31,16(29)
 3216              	.LVL245:
 3217              	.L226:
 3218              	.LBB2575:
 3219              	.LBB2576:
 3220              	.LBB2577:
 3221              	.LBB2578:
 3222              	.LBB2579:
 3223              	.LBB2580:
 3224              	.LBB2581:
 3225              		.loc 6 665 0
 3226 007c 3B5C0004 		addi 26,28,4
 3227              	.LBE2581:
 3228              	.LBE2580:
 3229              		.loc 6 1500 0
 3230 0080 7F9ED000 		cmpw 7,30,26
 3231 0084 419E00A0 		beq- 7,.L228
 3232              	.LVL246:
 3233              		.loc 6 1503 0
 3234 0088 7F9EF800 		cmpw 7,30,31
 3235 008c 40BE000C 		bne+ 7,.L256
 3236 0090 48000038 		b .L229
 3237              	.LVL247:
 3238              	.L251:
 3239              		.loc 6 277 0
 3240 0094 7F7FDB78 		mr 31,27
 3241              	.LVL248:
 3242              	.L256:
 3243              	.LBB2582:
 3244              	.LBB2583:
 3245 0098 7FE3FB78 		mr 3,31
 3246 009c 48000001 		bl _ZSt18_Rb_tree_incrementPKSt18_Rb_tree_node_base
 3247              	.LBE2583:
 3248              	.LBE2582:
 3249              	.LBB2585:
 3250              	.LBB2586:
 3251              	.LBB2587:
 3252              		.loc 6 1489 0
 3253 00a0 7F44D378 		mr 4,26
 3254              	.LBE2587:
 3255              	.LBE2586:
 3256              	.LBE2585:
 3257              	.LBB2596:
 3258              	.LBB2584:
 3259              		.loc 6 277 0
 3260 00a4 7C7B1B78 		mr 27,3
 3261              	.LVL249:
 3262              	.LBE2584:
 3263              	.LBE2596:
 3264              	.LBB2597:
 3265              	.LBB2594:
 3266              	.LBB2592:
 3267              		.loc 6 1489 0
 3268 00a8 7FE3FB78 		mr 3,31
 3269              	.LVL250:
 3270 00ac 48000001 		bl _ZSt28_Rb_tree_rebalance_for_erasePSt18_Rb_tree_node_baseRS_
 3271              	.LBB2588:
 3272              	.LBB2589:
 3273              	.LBB2590:
 3274              	.LBB2591:
 3275              		.loc 7 98 0
 3276 00b0 48000001 		bl _ZdlPv
 3277              	.LBE2591:
 3278              	.LBE2590:
 3279              	.LBE2589:
 3280              	.LBE2588:
 3281              	.LBE2592:
 3282              	.LBE2594:
 3283              	.LBE2597:
 3284              		.loc 6 1503 0
 3285 00b4 7F9ED800 		cmpw 7,30,27
 3286              	.LBB2598:
 3287              	.LBB2595:
 3288              	.LBB2593:
 3289              		.loc 6 1491 0
 3290 00b8 813C0014 		lwz 9,20(28)
 3291 00bc 3809FFFF 		addi 0,9,-1
 3292 00c0 901C0014 		stw 0,20(28)
 3293              	.LBE2593:
 3294              	.LBE2595:
 3295              	.LBE2598:
 3296              		.loc 6 1503 0
 3297 00c4 409EFFD0 		bne+ 7,.L251
 3298              	.LVL251:
 3299              	.L229:
 3300              	.LBE2579:
 3301              	.LBE2578:
 3302              	.LBE2577:
 3303              	.LBE2576:
 3304              	.LBE2575:
 3305              	.LBB2607:
 3306              	.LBB2608:
 3307              	.LBB2609:
 3308              		.loc 1 343 0
 3309 00c8 813D0000 		lwz 9,0(29)
 3310 00cc 7FA3EB78 		mr 3,29
 3311 00d0 8009000C 		lwz 0,12(9)
 3312 00d4 7C0903A6 		mtctr 0
 3313              	.LEHB16:
 3314 00d8 4E800421 		bctrl
 3315              	.LEHE16:
 3316              	.LVL252:
 3317              	.LBE2609:
 3318              	.LBE2608:
 3319              	.LBE2607:
 3320              	.LBE2564:
 3321              	.LBE2563:
 3322              	.LBB2616:
 3323              	.LBB2617:
 3324              	.LBB2618:
 3325              	.LBB2619:
 3326              	.LBB2620:
 3327              		.loc 6 639 0
 3328 00dc 809D000C 		lwz 4,12(29)
 3329 00e0 7F83E378 		mr 3,28
 3330 00e4 48000001 		bl _ZNSt8_Rb_treeIPN7sigslot12_signal_baseINS0_15single_threadedEEES4_St9_IdentityIS4_ESt4lessIS4_
 3331              	.LVL253:
 3332              	.LBE2620:
 3333              	.LBE2619:
 3334              	.LBE2618:
 3335              	.LBE2617:
 3336              	.LBE2616:
 3337              	.LBB2621:
 3338              	.LBB2622:
 3339              	.LBB2623:
 3340              		.loc 1 105 0
 3341 00e8 3D200000 		lis 9,_ZTVN7sigslot15single_threadedE+8@ha
 3342 00ec 38090008 		la 0,_ZTVN7sigslot15single_threadedE+8@l(9)
 3343              	.LBE2623:
 3344              	.LBE2622:
 3345              	.LBE2621:
 3346              	.LBE2639:
 3347              	.LBE2643:
 3348              	.LBE2647:
 3349              		.loc 1 516 0
 3350 00f0 7FA3EB78 		mr 3,29
 3351              	.LBB2648:
 3352              	.LBB2644:
 3353              	.LBB2640:
 3354              	.LBB2626:
 3355              	.LBB2625:
 3356              	.LBB2624:
 3357              		.loc 1 105 0
 3358 00f4 901D0000 		stw 0,0(29)
 3359              	.LBE2624:
 3360              	.LBE2625:
 3361              	.LBE2626:
 3362              	.LBE2640:
 3363              	.LBE2644:
 3364              	.LBE2648:
 3365              		.loc 1 516 0
 3366 00f8 48000001 		bl _ZdlPv
 3367 00fc 80010024 		lwz 0,36(1)
 3368 0100 83410008 		lwz 26,8(1)
 3369 0104 7C0803A6 		mtlr 0
 3370 0108 8361000C 		lwz 27,12(1)
 3371 010c 83810010 		lwz 28,16(1)
 3372              	.LVL254:
 3373 0110 83A10014 		lwz 29,20(1)
 3374              	.LVL255:
 3375 0114 83C10018 		lwz 30,24(1)
 3376              	.LVL256:
 3377 0118 83E1001C 		lwz 31,28(1)
 3378 011c 38210020 		addi 1,1,32
 3379              		.cfi_remember_state
 3380              	.LCFI46:
 3381              		.cfi_def_cfa_offset 0
 3382              		.cfi_restore 31
 3383              		.cfi_restore 30
 3384              		.cfi_restore 29
 3385              		.cfi_restore 28
 3386              		.cfi_restore 27
 3387              		.cfi_restore 26
 3388 0120 4E800020 		blr
 3389              	.LVL257:
 3390              	.L228:
 3391              	.LCFI47:
 3392              		.cfi_restore_state
 3393              	.LBB2649:
 3394              	.LBB2645:
 3395              	.LBB2641:
 3396              	.LBB2627:
 3397              	.LBB2614:
 3398              	.LBB2610:
 3399              	.LBB2606:
 3400              	.LBB2605:
 3401              	.LBB2604:
 3402              	.LBB2603:
 3403              	.LBB2599:
 3404              	.LBB2600:
 3405              	.LBB2601:
 3406              	.LBB2602:
 3407              		.loc 6 809 0
 3408 0124 809D000C 		lwz 4,12(29)
 3409 0128 7F83E378 		mr 3,28
 3410 012c 48000001 		bl _ZNSt8_Rb_treeIPN7sigslot12_signal_baseINS0_15single_threadedEEES4_St9_IdentityIS4_ESt4lessIS4_
 3411              	.LVL258:
 3412              		.loc 6 811 0
 3413 0130 38000000 		li 0,0
 3414              		.loc 6 810 0
 3415 0134 93DD0010 		stw 30,16(29)
 3416              	.LVL259:
 3417              		.loc 6 811 0
 3418 0138 901D000C 		stw 0,12(29)
 3419              	.LVL260:
 3420              		.loc 6 812 0
 3421 013c 93DD0014 		stw 30,20(29)
 3422              		.loc 6 813 0
 3423 0140 901D0018 		stw 0,24(29)
 3424 0144 4BFFFF84 		b .L229
 3425              	.LVL261:
 3426              	.L252:
 3427 0148 7C7F1B78 		mr 31,3
 3428              	.L236:
 3429              	.LVL262:
 3430              	.LBE2602:
 3431              	.LBE2601:
 3432              	.LBE2600:
 3433              	.LBE2599:
 3434              	.LBE2603:
 3435              	.LBE2604:
 3436              	.LBE2605:
 3437              	.LBE2606:
 3438              	.LBE2610:
 3439              	.LBE2614:
 3440              	.LBE2627:
 3441              	.LBB2628:
 3442              	.LBB2629:
 3443              	.LBB2630:
 3444              	.LBB2631:
 3445              	.LBB2632:
 3446              	.LBB2633:
 3447              		.loc 6 639 0
 3448 014c 809D000C 		lwz 4,12(29)
 3449 0150 7F83E378 		mr 3,28
 3450 0154 48000001 		bl _ZNSt8_Rb_treeIPN7sigslot12_signal_baseINS0_15single_threadedEEES4_St9_IdentityIS4_ESt4lessIS4_
 3451              	.LVL263:
 3452              	.LBE2633:
 3453              	.LBE2632:
 3454              	.LBE2631:
 3455              	.LBE2630:
 3456              	.LBE2629:
 3457              	.LBE2628:
 3458              	.LBB2634:
 3459              	.LBB2635:
 3460              	.LBB2636:
 3461              		.loc 1 105 0
 3462 0158 3D200000 		lis 9,_ZTVN7sigslot15single_threadedE+8@ha
 3463 015c 38090008 		la 0,_ZTVN7sigslot15single_threadedE+8@l(9)
 3464 0160 7FE3FB78 		mr 3,31
 3465 0164 901D0000 		stw 0,0(29)
 3466              	.LEHB17:
 3467 0168 48000001 		bl _Unwind_Resume
 3468              	.LEHE17:
 3469              	.LVL264:
 3470              	.L253:
 3471              	.LBE2636:
 3472              	.LBE2635:
 3473              	.LBE2634:
 3474              	.LBB2637:
 3475              	.LBB2615:
 3476              	.LBB2611:
 3477              	.LBB2612:
 3478              	.LBB2613:
 3479              		.loc 1 343 0
 3480 016c 813D0000 		lwz 9,0(29)
 3481 0170 7C7F1B78 		mr 31,3
 3482              	.LVL265:
 3483 0174 7FA3EB78 		mr 3,29
 3484 0178 8009000C 		lwz 0,12(9)
 3485 017c 7C0903A6 		mtctr 0
 3486 0180 4E800421 		bctrl
 3487 0184 4BFFFFC8 		b .L236
 3488              	.LBE2613:
 3489              	.LBE2612:
 3490              	.LBE2611:
 3491              	.LBE2615:
 3492              	.LBE2637:
 3493              	.LBE2641:
 3494              	.LBE2645:
 3495              	.LBE2649:
 3496              		.cfi_endproc
 3497              	.LFE1535:
 3498              		.section	.gcc_except_table
 3499              	.LLSDA1535:
 3500 0055 FF       		.byte	0xff
 3501 0056 FF       		.byte	0xff
 3502 0057 01       		.byte	0x1
 3503 0058 15       		.uleb128 .LLSDACSE1535-.LLSDACSB1535
 3504              	.LLSDACSB1535:
 3505 0059 38       		.uleb128 .LEHB14-.LFB1535
 3506 005a 04       		.uleb128 .LEHE14-.LEHB14
 3507 005b C802     		.uleb128 .L252-.LFB1535
 3508 005d 00       		.uleb128 0
 3509 005e 60       		.uleb128 .LEHB15-.LFB1535
 3510 005f 04       		.uleb128 .LEHE15-.LEHB15
 3511 0060 EC02     		.uleb128 .L253-.LFB1535
 3512 0062 00       		.uleb128 0
 3513 0063 D801     		.uleb128 .LEHB16-.LFB1535
 3514 0065 04       		.uleb128 .LEHE16-.LEHB16
 3515 0066 C802     		.uleb128 .L252-.LFB1535
 3516 0068 00       		.uleb128 0
 3517 0069 E802     		.uleb128 .LEHB17-.LFB1535
 3518 006b 04       		.uleb128 .LEHE17-.LEHB17
 3519 006c 00       		.uleb128 0
 3520 006d 00       		.uleb128 0
 3521              	.LLSDACSE1535:
 3522              		.section	.text._ZN7sigslot9has_slotsINS_15single_threadedEED0Ev,"axG",@progbits,_ZN7sigslot9has_sl
 3523              		.size	_ZN7sigslot9has_slotsINS_15single_threadedEED0Ev, .-_ZN7sigslot9has_slotsINS_15single_thread
 3524              		.section	.text._ZNSt8_Rb_treeIPN7sigslot12_signal_baseINS0_15single_threadedEEES4_St9_IdentityIS4_
 3525              		.align 2
 3526              		.weak	_ZNSt8_Rb_treeIPN7sigslot12_signal_baseINS0_15single_threadedEEES4_St9_IdentityIS4_ESt4lessI
 3527              		.type	_ZNSt8_Rb_treeIPN7sigslot12_signal_baseINS0_15single_threadedEEES4_St9_IdentityIS4_ESt4lessI
 3528              	_ZNSt8_Rb_treeIPN7sigslot12_signal_baseINS0_15single_threadedEEES4_St9_IdentityIS4_ESt4lessIS4_ESaI
 3529              	.LFB1713:
 3530              		.loc 6 1264 0
 3531              		.cfi_startproc
 3532              	.LVL266:
 3533 0000 7C0802A6 		mflr 0
 3534 0004 9421FFE0 		stwu 1,-32(1)
 3535              	.LCFI48:
 3536              		.cfi_def_cfa_offset 32
 3537              		.cfi_register 65, 0
 3538 0008 93810010 		stw 28,16(1)
 3539 000c 90010024 		stw 0,36(1)
 3540 0010 9361000C 		stw 27,12(1)
 3541 0014 7C9B2378 		mr 27,4
 3542              		.cfi_offset 27, -20
 3543              		.cfi_offset 65, 4
 3544              		.cfi_offset 28, -16
 3545              	.LBB2689:
 3546              	.LBB2690:
 3547              	.LBB2691:
 3548              		.loc 5 56 0
 3549 0018 83830008 		lwz 28,8(3)
 3550              	.LVL267:
 3551              	.LBE2691:
 3552              	.LBE2690:
 3553              	.LBE2689:
 3554              		.loc 6 1264 0
 3555 001c 93A10014 		stw 29,20(1)
 3556              	.LBB2716:
 3557              	.LBB2708:
 3558              	.LBB2704:
 3559              		.loc 6 1272 0
 3560 0020 3BA30004 		addi 29,3,4
 3561              		.cfi_offset 29, -12
 3562              	.LVL268:
 3563              	.LBE2704:
 3564              	.LBE2708:
 3565              		.loc 6 1274 0
 3566 0024 2F9C0000 		cmpwi 7,28,0
 3567              	.LBE2716:
 3568              		.loc 6 1264 0
 3569 0028 93E1001C 		stw 31,28(1)
 3570 002c 93410008 		stw 26,8(1)
 3571 0030 7C7F1B78 		mr 31,3
 3572              		.cfi_offset 26, -24
 3573              		.cfi_offset 31, -4
 3574 0034 93C10018 		stw 30,24(1)
 3575              	.LBB2717:
 3576              		.loc 6 1274 0
 3577 0038 419E0084 		beq- 7,.L273
 3578              		.cfi_offset 30, -8
 3579              	.LVL269:
 3580 003c 81440000 		lwz 10,0(4)
 3581 0040 48000014 		b .L262
 3582              	.LVL270:
 3583              	.L281:
 3584              		.loc 5 56 0 discriminator 1
 3585 0044 801C0008 		lwz 0,8(28)
 3586              	.LVL271:
 3587              		.loc 6 1274 0 discriminator 1
 3588 0048 2F800000 		cmpwi 7,0,0
 3589 004c 419E0028 		beq- 7,.L280
 3590              	.LVL272:
 3591              	.L274:
 3592              		.loc 6 1274 0 is_stmt 0
 3593 0050 7C1C0378 		mr 28,0
 3594              	.LVL273:
 3595              	.L262:
 3596              		.loc 5 56 0 is_stmt 1
 3597 0054 813C0010 		lwz 9,16(28)
 3598 0058 39600001 		li 11,1
 3599              		.loc 6 1278 0
 3600 005c 7F895040 		cmplw 7,9,10
 3601 0060 41BDFFE4 		bgt- 7,.L281
 3602              		.loc 5 56 0 discriminator 2
 3603 0064 801C000C 		lwz 0,12(28)
 3604 0068 39600000 		li 11,0
 3605              	.LVL274:
 3606              		.loc 6 1274 0 discriminator 2
 3607 006c 2F800000 		cmpwi 7,0,0
 3608 0070 409EFFE0 		bne+ 7,.L274
 3609              	.LVL275:
 3610              	.L280:
 3611              		.loc 6 1281 0
 3612 0074 2F8B0000 		cmpwi 7,11,0
 3613 0078 7F83E378 		mr 3,28
 3614              	.LVL276:
 3615 007c 409E0044 		bne- 7,.L259
 3616              	.LVL277:
 3617              		.loc 6 1289 0
 3618 0080 7F8A4840 		cmplw 7,10,9
 3619 0084 419D0060 		bgt- 7,.L282
 3620              	.LVL278:
 3621              	.L269:
 3622              		.loc 6 1292 0
 3623 0088 38000000 		li 0,0
 3624 008c 38800000 		li 4,0
 3625 0090 5004C00E 		rlwimi 4,0,24,0,7
 3626              	.LBE2717:
 3627              		.loc 6 1293 0
 3628 0094 80010024 		lwz 0,36(1)
 3629 0098 83410008 		lwz 26,8(1)
 3630 009c 7C0803A6 		mtlr 0
 3631 00a0 8361000C 		lwz 27,12(1)
 3632              	.LVL279:
 3633 00a4 83810010 		lwz 28,16(1)
 3634 00a8 83A10014 		lwz 29,20(1)
 3635 00ac 83C10018 		lwz 30,24(1)
 3636 00b0 83E1001C 		lwz 31,28(1)
 3637              	.LVL280:
 3638 00b4 38210020 		addi 1,1,32
 3639              		.cfi_remember_state
 3640              	.LCFI49:
 3641              		.cfi_def_cfa_offset 0
 3642              		.cfi_restore 31
 3643              		.cfi_restore 30
 3644              		.cfi_restore 29
 3645              		.cfi_restore 28
 3646              		.cfi_restore 27
 3647              		.cfi_restore 26
 3648 00b8 4E800020 		blr
 3649              	.LVL281:
 3650              	.L273:
 3651              	.LCFI50:
 3652              		.cfi_restore_state
 3653              	.LBB2718:
 3654              		.loc 6 1272 0
 3655 00bc 7FBCEB78 		mr 28,29
 3656              	.LVL282:
 3657              	.L259:
 3658              		.loc 6 1283 0
 3659 00c0 801F000C 		lwz 0,12(31)
 3660 00c4 7F9C0000 		cmpw 7,28,0
 3661 00c8 419E003C 		beq- 7,.L283
 3662              	.LVL283:
 3663              	.LBB2709:
 3664              	.LBB2710:
 3665              		.loc 6 203 0
 3666 00cc 7F83E378 		mr 3,28
 3667 00d0 48000001 		bl _ZSt18_Rb_tree_decrementPSt18_Rb_tree_node_base
 3668              	.LVL284:
 3669 00d4 815B0000 		lwz 10,0(27)
 3670 00d8 81230010 		lwz 9,16(3)
 3671              	.LVL285:
 3672              	.LBE2710:
 3673              	.LBE2709:
 3674              		.loc 6 1289 0
 3675 00dc 7F8A4840 		cmplw 7,10,9
 3676 00e0 409DFFA8 		ble+ 7,.L269
 3677              	.LVL286:
 3678              	.L282:
 3679              	.LBB2711:
 3680              	.LBB2705:
 3681              		.loc 6 969 0
 3682 00e4 7F9CE800 		cmpw 7,28,29
 3683 00e8 3B400001 		li 26,1
 3684 00ec 419E0038 		beq- 7,.L270
 3685              	.LVL287:
 3686              		.loc 6 1264 0
 3687 00f0 835C0010 		lwz 26,16(28)
 3688 00f4 7F5A5010 		subfc 26,26,10
 3689 00f8 7F5AD110 		subfe 26,26,26
 3690 00fc 7F5A00D0 		neg 26,26
 3691 0100 48000024 		b .L270
 3692              	.LVL288:
 3693              	.L283:
 3694              	.LBE2705:
 3695              	.LBE2711:
 3696              	.LBB2712:
 3697              	.LBB2713:
 3698              		.loc 6 969 0
 3699 0104 7F9CE800 		cmpw 7,28,29
 3700 0108 3B400001 		li 26,1
 3701 010c 419E0018 		beq- 7,.L270
 3702              	.LVL289:
 3703              		.loc 6 1264 0
 3704 0110 835B0000 		lwz 26,0(27)
 3705 0114 801C0010 		lwz 0,16(28)
 3706              	.LVL290:
 3707 0118 7F40D010 		subfc 26,0,26
 3708 011c 7F5AD110 		subfe 26,26,26
 3709 0120 7F5A00D0 		neg 26,26
 3710              	.LVL291:
 3711              	.L270:
 3712              	.LBE2713:
 3713              	.LBE2712:
 3714              	.LBB2714:
 3715              	.LBB2706:
 3716              	.LBB2692:
 3717              	.LBB2693:
 3718              	.LBB2694:
 3719              	.LBB2695:
 3720              	.LBB2696:
 3721              		.loc 7 92 0
 3722 0124 38600014 		li 3,20
 3723 0128 48000001 		bl _Znwj
 3724              	.LBE2696:
 3725              	.LBE2695:
 3726              	.LBE2694:
 3727              	.LBB2699:
 3728              	.LBB2700:
 3729              		.loc 7 108 0
 3730 012c 2F83FFF0 		cmpwi 7,3,-16
 3731              	.LBE2700:
 3732              	.LBE2699:
 3733              	.LBB2702:
 3734              	.LBB2698:
 3735              	.LBB2697:
 3736              		.loc 7 92 0
 3737 0130 7C7E1B78 		mr 30,3
 3738              	.LVL292:
 3739              	.LBE2697:
 3740              	.LBE2698:
 3741              	.LBE2702:
 3742              	.LBB2703:
 3743              	.LBB2701:
 3744              		.loc 7 108 0
 3745 0134 419E000C 		beq- 7,.L272
 3746 0138 801B0000 		lwz 0,0(27)
 3747 013c 90030010 		stw 0,16(3)
 3748              	.L272:
 3749              	.LVL293:
 3750              	.LBE2701:
 3751              	.LBE2703:
 3752              	.LBE2693:
 3753              	.LBE2692:
 3754              		.loc 6 973 0
 3755 0140 7F43D378 		mr 3,26
 3756              	.LVL294:
 3757 0144 7FC4F378 		mr 4,30
 3758 0148 7F85E378 		mr 5,28
 3759 014c 7FA6EB78 		mr 6,29
 3760 0150 48000001 		bl _ZSt29_Rb_tree_insert_and_rebalancebPSt18_Rb_tree_node_baseS0_RS_
 3761              		.loc 6 976 0
 3762 0154 813F0014 		lwz 9,20(31)
 3763              		.loc 6 1291 0
 3764 0158 38800000 		li 4,0
 3765 015c 7FC3F378 		mr 3,30
 3766              		.loc 6 976 0
 3767 0160 38090001 		addi 0,9,1
 3768              	.LBE2706:
 3769              	.LBE2714:
 3770              	.LBE2718:
 3771              		.loc 6 1293 0
 3772 0164 83410008 		lwz 26,8(1)
 3773              	.LVL295:
 3774              	.LBB2719:
 3775              	.LBB2715:
 3776              	.LBB2707:
 3777              		.loc 6 976 0
 3778 0168 901F0014 		stw 0,20(31)
 3779              	.LVL296:
 3780              		.loc 6 1291 0
 3781 016c 38000001 		li 0,1
 3782 0170 5004C00E 		rlwimi 4,0,24,0,7
 3783              	.LBE2707:
 3784              	.LBE2715:
 3785              	.LBE2719:
 3786              		.loc 6 1293 0
 3787 0174 80010024 		lwz 0,36(1)
 3788 0178 8361000C 		lwz 27,12(1)
 3789              	.LVL297:
 3790 017c 7C0803A6 		mtlr 0
 3791 0180 83810010 		lwz 28,16(1)
 3792 0184 83A10014 		lwz 29,20(1)
 3793 0188 83C10018 		lwz 30,24(1)
 3794              	.LVL298:
 3795 018c 83E1001C 		lwz 31,28(1)
 3796              	.LVL299:
 3797 0190 38210020 		addi 1,1,32
 3798              		.cfi_restore 26
 3799              		.cfi_restore 27
 3800              		.cfi_restore 28
 3801              		.cfi_restore 29
 3802              		.cfi_restore 30
 3803              		.cfi_restore 31
 3804              	.LCFI51:
 3805              		.cfi_def_cfa_offset 0
 3806 0194 4E800020 		blr
 3807              		.cfi_endproc
 3808              	.LFE1713:
 3809              		.size	_ZNSt8_Rb_treeIPN7sigslot12_signal_baseINS0_15single_threadedEEES4_St9_IdentityIS4_ESt4lessI
 3810              		.section	".text"
 3811              		.align 2
 3812              		.globl _ZN15SettingsBrowser4showEv
 3813              		.type	_ZN15SettingsBrowser4showEv, @function
 3814              	_ZN15SettingsBrowser4showEv:
 3815              	.LFB1498:
 3816              		.loc 5 48 0
 3817              		.cfi_startproc
 3818              		.cfi_personality 0,__gxx_personality_v0
 3819              		.cfi_lsda 0,.LLSDA1498
 3820              	.LVL300:
 3821 02b8 9421FFD8 		stwu 1,-40(1)
 3822              	.LCFI52:
 3823              		.cfi_def_cfa_offset 40
 3824 02bc 7C0802A6 		mflr 0
 3825 02c0 93E10024 		stw 31,36(1)
 3826 02c4 7C7F1B78 		mr 31,3
 3827              		.cfi_offset 31, -4
 3828              		.cfi_register 65, 0
 3829              		.loc 5 49 0
 3830 02c8 38600174 		li 3,372
 3831              	.LVL301:
 3832              		.loc 5 48 0
 3833 02cc 93C10020 		stw 30,32(1)
 3834 02d0 9001002C 		stw 0,44(1)
 3835 02d4 93810018 		stw 28,24(1)
 3836 02d8 93A1001C 		stw 29,28(1)
 3837              	.LEHB18:
 3838              		.loc 5 49 0
 3839              		.cfi_offset 29, -12
 3840              		.cfi_offset 28, -16
 3841              		.cfi_offset 65, 4
 3842              		.cfi_offset 30, -8
 3843 02dc 48000001 		bl _Znwj
 3844              	.LEHE18:
 3845 02e0 809F00CC 		lwz 4,204(31)
 3846 02e4 7C7E1B78 		mr 30,3
 3847              	.LEHB19:
 3848 02e8 48000001 		bl _ZN16GuiOptionBrowserC1EP10OptionList
 3849              	.LEHE19:
 3850              		.loc 5 50 0 discriminator 1
 3851 02ec 813E0000 		lwz 9,0(30)
 3852 02f0 38A00055 		li 5,85
 3853              		.loc 5 49 0 discriminator 1
 3854 02f4 93DF00D0 		stw 30,208(31)
 3855              		.loc 5 50 0 discriminator 1
 3856 02f8 7FC3F378 		mr 3,30
 3857 02fc 38800000 		li 4,0
 3858 0300 800900A8 		lwz 0,168(9)
 3859 0304 7C0903A6 		mtctr 0
 3860              	.LEHB20:
 3861 0308 4E800421 		bctrl
 3862              		.loc 5 51 0 discriminator 1
 3863 030c 807F00D0 		lwz 3,208(31)
 3864 0310 38800012 		li 4,18
 3865 0314 81230000 		lwz 9,0(3)
 3866 0318 800900B4 		lwz 0,180(9)
 3867 031c 7C0903A6 		mtctr 0
 3868 0320 4E800421 		bctrl
 3869              		.loc 5 52 0 discriminator 1
 3870 0324 83BF00D0 		lwz 29,208(31)
 3871              	.LVL302:
 3872              	.LBB2720:
 3873              	.LBB2721:
 3874              	.LBB2722:
 3875              	.LBB2723:
 3876              		.loc 1 338 0 discriminator 1
 3877 0328 813D00AC 		lwz 9,172(29)
 3878              	.LBE2723:
 3879              	.LBE2722:
 3880              		.loc 1 2244 0 discriminator 1
 3881 032c 3B9D00AC 		addi 28,29,172
 3882              	.LVL303:
 3883              	.LBB2725:
 3884              	.LBB2724:
 3885              		.loc 1 338 0 discriminator 1
 3886 0330 7F83E378 		mr 3,28
 3887 0334 80090008 		lwz 0,8(9)
 3888 0338 7C0903A6 		mtctr 0
 3889 033c 4E800421 		bctrl
 3890              	.LEHE20:
 3891              	.LVL304:
 3892              	.LBE2724:
 3893              	.LBE2725:
 3894              		.loc 1 2246 0 discriminator 1
 3895 0340 38600010 		li 3,16
 3896              	.LEHB21:
 3897 0344 48000001 		bl _Znwj
 3898              	.LBB2726:
 3899              	.LBB2727:
 3900              		.loc 1 1730 0 discriminator 1
 3901 0348 3D200000 		lis 9,_ZTVN7sigslot12_connection2I15SettingsBrowserP16GuiOptionBrowseriNS_15single_threadedEEE+8@h
 3902              		.loc 1 1731 0 discriminator 1
 3903 034c 93E30004 		stw 31,4(3)
 3904              		.loc 1 1730 0 discriminator 1
 3905 0350 38090008 		la 0,_ZTVN7sigslot12_connection2I15SettingsBrowserP16GuiOptionBrowseriNS_15single_threadedEEE+8@l(
 3906              	.LBE2727:
 3907              	.LBE2726:
 3908              		.loc 1 2246 0 discriminator 1
 3909 0354 7C7E1B78 		mr 30,3
 3910              	.LVL305:
 3911              	.LBB2729:
 3912              	.LBB2728:
 3913              		.loc 1 1730 0 discriminator 1
 3914 0358 90030000 		stw 0,0(3)
 3915              	.LBE2728:
 3916              	.LBE2729:
 3917              	.LBE2721:
 3918              		.loc 1 1732 0 discriminator 1
 3919 035c 380000E5 		li 0,229
 3920 0360 90030008 		stw 0,8(3)
 3921 0364 38000000 		li 0,0
 3922 0368 9003000C 		stw 0,12(3)
 3923              	.LVL306:
 3924              	.LBB2772:
 3925              	.LBB2730:
 3926              	.LBB2731:
 3927              	.LBB2732:
 3928              	.LBB2733:
 3929              	.LBB2734:
 3930              	.LBB2735:
 3931              	.LBB2736:
 3932              	.LBB2737:
 3933              		.loc 7 92 0 discriminator 1
 3934 036c 3860000C 		li 3,12
 3935              	.LVL307:
 3936 0370 48000001 		bl _Znwj
 3937              	.LVL308:
 3938              	.LBE2737:
 3939              	.LBE2736:
 3940              	.LBE2735:
 3941              	.LBB2738:
 3942              	.LBB2739:
 3943              		.loc 7 108 0
 3944 0374 2F83FFF8 		cmpwi 7,3,-8
 3945 0378 419E0008 		beq- 7,.L286
 3946 037c 93C30008 		stw 30,8(3)
 3947              	.L286:
 3948              	.LVL309:
 3949              	.LBE2739:
 3950              	.LBE2738:
 3951              	.LBE2734:
 3952              	.LBE2733:
 3953              		.file 9 "d:\\devkitpro\\devkitppc\\bin\\../lib/gcc/powerpc-eabi/4.6.3/../../../../powerpc-eabi/inc
 3954              		.loc 9 1516 0
 3955 0380 389D00B0 		addi 4,29,176
 3956              	.LBE2732:
 3957              	.LBE2731:
 3958              	.LBE2730:
 3959              	.LBB2744:
 3960              	.LBB2745:
 3961              		.loc 1 503 0
 3962 0384 3BDF00B0 		addi 30,31,176
 3963              	.LVL310:
 3964              	.LBE2745:
 3965              	.LBE2744:
 3966              	.LBB2761:
 3967              	.LBB2742:
 3968              	.LBB2740:
 3969              		.loc 9 1516 0
 3970 0388 48000001 		bl _ZNSt8__detail15_List_node_base7_M_hookEPS0_
 3971              	.LVL311:
 3972              	.LBE2740:
 3973              	.LBE2742:
 3974              	.LBE2761:
 3975              	.LBB2762:
 3976              	.LBB2758:
 3977              	.LBB2746:
 3978              	.LBB2747:
 3979              		.loc 1 338 0
 3980 038c 813F00B0 		lwz 9,176(31)
 3981              	.LBE2747:
 3982              	.LBE2746:
 3983              	.LBE2758:
 3984              	.LBE2762:
 3985              	.LBB2763:
 3986              	.LBB2743:
 3987              	.LBB2741:
 3988              		.loc 9 1516 0
 3989 0390 93810008 		stw 28,8(1)
 3990              	.LVL312:
 3991              	.LBE2741:
 3992              	.LBE2743:
 3993              	.LBE2763:
 3994              	.LBB2764:
 3995              	.LBB2759:
 3996              	.LBB2749:
 3997              	.LBB2748:
 3998              		.loc 1 338 0
 3999 0394 7FC3F378 		mr 3,30
 4000 0398 80090008 		lwz 0,8(9)
 4001 039c 7C0903A6 		mtctr 0
 4002 03a0 4E800421 		bctrl
 4003              	.LEHE21:
 4004              	.LVL313:
 4005              	.LBE2748:
 4006              	.LBE2749:
 4007              	.LBB2750:
 4008              	.LBB2751:
 4009              		.loc 8 410 0
 4010 03a4 387F00B4 		addi 3,31,180
 4011 03a8 38810008 		addi 4,1,8
 4012              	.LEHB22:
 4013 03ac 48000001 		bl _ZNSt8_Rb_treeIPN7sigslot12_signal_baseINS0_15single_threadedEEES4_St9_IdentityIS4_ESt4lessIS4_
 4014              	.LEHE22:
 4015              	.LVL314:
 4016              	.LBE2751:
 4017              	.LBE2750:
 4018              	.LBB2752:
 4019              	.LBB2753:
 4020              	.LBB2754:
 4021              		.loc 1 343 0
 4022 03b0 813F00B0 		lwz 9,176(31)
 4023 03b4 7FC3F378 		mr 3,30
 4024 03b8 8009000C 		lwz 0,12(9)
 4025 03bc 7C0903A6 		mtctr 0
 4026              	.LEHB23:
 4027 03c0 4E800421 		bctrl
 4028              	.LEHE23:
 4029              	.LVL315:
 4030              	.LBE2754:
 4031              	.LBE2753:
 4032              	.LBE2752:
 4033              	.LBE2759:
 4034              	.LBE2764:
 4035              	.LBB2765:
 4036              	.LBB2766:
 4037              	.LBB2767:
 4038 03c4 813D00AC 		lwz 9,172(29)
 4039 03c8 7F83E378 		mr 3,28
 4040 03cc 8009000C 		lwz 0,12(9)
 4041 03d0 7C0903A6 		mtctr 0
 4042              	.LEHB24:
 4043 03d4 4E800421 		bctrl
 4044              	.LBE2767:
 4045              	.LBE2766:
 4046              	.LBE2765:
 4047              	.LBE2772:
 4048              	.LBE2720:
 4049              		.loc 5 53 0
 4050 03d8 809F00D0 		lwz 4,208(31)
 4051 03dc 7FE3FB78 		mr 3,31
 4052 03e0 48000001 		bl _ZN8GuiFrame6AppendEP10GuiElement
 4053              		.loc 5 55 0
 4054 03e4 813F0000 		lwz 9,0(31)
 4055 03e8 7FE3FB78 		mr 3,31
 4056 03ec 38800080 		li 4,128
 4057 03f0 80090088 		lwz 0,136(9)
 4058 03f4 38A00014 		li 5,20
 4059 03f8 38C00000 		li 6,0
 4060 03fc 7C0903A6 		mtctr 0
 4061 0400 4E800421 		bctrl
 4062              		.loc 5 56 0
 4063 0404 8001002C 		lwz 0,44(1)
 4064 0408 83810018 		lwz 28,24(1)
 4065 040c 7C0803A6 		mtlr 0
 4066 0410 83A1001C 		lwz 29,28(1)
 4067              	.LVL316:
 4068 0414 83C10020 		lwz 30,32(1)
 4069              	.LVL317:
 4070 0418 83E10024 		lwz 31,36(1)
 4071              	.LVL318:
 4072 041c 38210028 		addi 1,1,40
 4073              		.cfi_remember_state
 4074              	.LCFI53:
 4075              		.cfi_def_cfa_offset 0
 4076              		.cfi_restore 31
 4077              		.cfi_restore 30
 4078              		.cfi_restore 29
 4079              		.cfi_restore 28
 4080 0420 4E800020 		blr
 4081              	.LVL319:
 4082              	.L294:
 4083              	.LCFI54:
 4084              		.cfi_restore_state
 4085 0424 7C7F1B78 		mr 31,3
 4086              	.LVL320:
 4087              		.loc 5 49 0
 4088 0428 7FC3F378 		mr 3,30
 4089 042c 48000001 		bl _ZdlPv
 4090 0430 7FE3FB78 		mr 3,31
 4091 0434 48000001 		bl _Unwind_Resume
 4092              	.LEHE24:
 4093              	.LVL321:
 4094              	.L296:
 4095              	.LBB2774:
 4096              	.LBB2773:
 4097              	.LBB2768:
 4098              	.LBB2760:
 4099              	.LBB2755:
 4100              	.LBB2756:
 4101              	.LBB2757:
 4102              		.loc 1 343 0
 4103 0438 813F00B0 		lwz 9,176(31)
 4104 043c 7C7F1B78 		mr 31,3
 4105              	.LVL322:
 4106 0440 7FC3F378 		mr 3,30
 4107 0444 8009000C 		lwz 0,12(9)
 4108 0448 7C0903A6 		mtctr 0
 4109 044c 4E800421 		bctrl
 4110              	.LVL323:
 4111              	.L290:
 4112              	.LBE2757:
 4113              	.LBE2756:
 4114              	.LBE2755:
 4115              	.LBE2760:
 4116              	.LBE2768:
 4117              	.LBB2769:
 4118              	.LBB2770:
 4119              	.LBB2771:
 4120 0450 813D00AC 		lwz 9,172(29)
 4121 0454 7F83E378 		mr 3,28
 4122 0458 8009000C 		lwz 0,12(9)
 4123 045c 7C0903A6 		mtctr 0
 4124 0460 4E800421 		bctrl
 4125 0464 7FE3FB78 		mr 3,31
 4126              	.LEHB25:
 4127 0468 48000001 		bl _Unwind_Resume
 4128              	.LEHE25:
 4129              	.LVL324:
 4130              	.L295:
 4131 046c 7C7F1B78 		mr 31,3
 4132              	.LVL325:
 4133 0470 4BFFFFE0 		b .L290
 4134              	.LBE2771:
 4135              	.LBE2770:
 4136              	.LBE2769:
 4137              	.LBE2773:
 4138              	.LBE2774:
 4139              		.cfi_endproc
 4140              	.LFE1498:
 4141              		.section	.gcc_except_table
 4142              	.LLSDA1498:
 4143 006e FF       		.byte	0xff
 4144 006f FF       		.byte	0xff
 4145 0070 01       		.byte	0x1
 4146 0071 29       		.uleb128 .LLSDACSE1498-.LLSDACSB1498
 4147              	.LLSDACSB1498:
 4148 0072 24       		.uleb128 .LEHB18-.LFB1498
 4149 0073 04       		.uleb128 .LEHE18-.LEHB18
 4150 0074 00       		.uleb128 0
 4151 0075 00       		.uleb128 0
 4152 0076 30       		.uleb128 .LEHB19-.LFB1498
 4153 0077 04       		.uleb128 .LEHE19-.LEHB19
 4154 0078 EC02     		.uleb128 .L294-.LFB1498
 4155 007a 00       		.uleb128 0
 4156 007b 50       		.uleb128 .LEHB20-.LFB1498
 4157 007c 38       		.uleb128 .LEHE20-.LEHB20
 4158 007d 00       		.uleb128 0
 4159 007e 00       		.uleb128 0
 4160 007f 8C01     		.uleb128 .LEHB21-.LFB1498
 4161 0081 60       		.uleb128 .LEHE21-.LEHB21
 4162 0082 B403     		.uleb128 .L295-.LFB1498
 4163 0084 00       		.uleb128 0
 4164 0085 F401     		.uleb128 .LEHB22-.LFB1498
 4165 0087 04       		.uleb128 .LEHE22-.LEHB22
 4166 0088 8003     		.uleb128 .L296-.LFB1498
 4167 008a 00       		.uleb128 0
 4168 008b 8802     		.uleb128 .LEHB23-.LFB1498
 4169 008d 04       		.uleb128 .LEHE23-.LEHB23
 4170 008e B403     		.uleb128 .L295-.LFB1498
 4171 0090 00       		.uleb128 0
 4172 0091 9C02     		.uleb128 .LEHB24-.LFB1498
 4173 0093 64       		.uleb128 .LEHE24-.LEHB24
 4174 0094 00       		.uleb128 0
 4175 0095 00       		.uleb128 0
 4176 0096 B003     		.uleb128 .LEHB25-.LFB1498
 4177 0098 04       		.uleb128 .LEHE25-.LEHB25
 4178 0099 00       		.uleb128 0
 4179 009a 00       		.uleb128 0
 4180              	.LLSDACSE1498:
 4181              		.section	".text"
 4182              		.size	_ZN15SettingsBrowser4showEv, .-_ZN15SettingsBrowser4showEv
 4183              		.weak	_ZTS15SettingsBrowser
 4184              		.section	.rodata._ZTS15SettingsBrowser,"aG",@progbits,_ZTS15SettingsBrowser,comdat
 4185              		.align 2
 4186              		.type	_ZTS15SettingsBrowser, @object
 4187              		.size	_ZTS15SettingsBrowser, 18
 4188              	_ZTS15SettingsBrowser:
 4189 0000 31355365 		.string	"15SettingsBrowser"
 4189      7474696E 
 4189      67734272 
 4189      6F777365 
 4189      7200
 4190              		.weak	_ZTI15SettingsBrowser
 4191              		.section	.rodata._ZTI15SettingsBrowser,"aG",@progbits,_ZTI15SettingsBrowser,comdat
 4192              		.align 2
 4193              		.type	_ZTI15SettingsBrowser, @object
 4194              		.size	_ZTI15SettingsBrowser, 32
 4195              	_ZTI15SettingsBrowser:
 4196 0000 00000008 		.long	_ZTVN10__cxxabiv121__vmi_class_type_infoE+8
 4197 0004 00000000 		.long	_ZTS15SettingsBrowser
 4198 0008 00000000 		.long	0
 4199 000c 00000002 		.long	2
 4200 0010 00000000 		.long	_ZTI8GuiFrame
 4201 0014 00000002 		.long	2
 4202 0018 00000000 		.long	_ZTIN7sigslot9has_slotsINS_15single_threadedEEE
 4203 001c 0000B002 		.long	45058
 4204              		.weak	_ZTV15SettingsBrowser
 4205              		.section	.rodata._ZTV15SettingsBrowser,"aG",@progbits,_ZTV15SettingsBrowser,comdat
 4206              		.align 3
 4207              		.type	_ZTV15SettingsBrowser, @object
 4208              		.size	_ZTV15SettingsBrowser, 264
 4209              	_ZTV15SettingsBrowser:
 4210 0000 00000000 		.long	0
 4211 0004 00000000 		.long	_ZTI15SettingsBrowser
 4212 0008 00000000 		.long	_ZN15SettingsBrowserD1Ev
 4213 000c 00000000 		.long	_ZN15SettingsBrowserD0Ev
 4214 0010 00000000 		.long	_ZN10GuiElement9SetParentEPS_
 4215 0014 00000000 		.long	_ZN10GuiElement9GetParentEv
 4216 0018 00000000 		.long	_ZN10GuiElement7GetLeftEv
 4217 001c 00000000 		.long	_ZN10GuiElement6GetTopEv
 4218 0020 00000000 		.long	_ZN10GuiElement12GetZPositionEv
 4219 0024 00000000 		.long	_ZN10GuiElement10GetLeftPosEv
 4220 0028 00000000 		.long	_ZN10GuiElement9GetTopPosEv
 4221 002c 00000000 		.long	_ZN10GuiElement8GetWidthEv
 4222 0030 00000000 		.long	_ZN10GuiElement9GetHeightEv
 4223 0034 00000000 		.long	_ZN10GuiElement7SetSizeEii
 4224 0038 00000000 		.long	_ZN8GuiFrame10SetVisibleEb
 4225 003c 00000000 		.long	_ZN10GuiElement9IsVisibleEv
 4226 0040 00000000 		.long	_ZN10GuiElement12IsSelectableEv
 4227 0044 00000000 		.long	_ZN10GuiElement11IsClickableEv
 4228 0048 00000000 		.long	_ZN10GuiElement10IsHoldableEv
 4229 004c 00000000 		.long	_ZN10GuiElement13SetSelectableEb
 4230 0050 00000000 		.long	_ZN10GuiElement12SetClickableEb
 4231 0054 00000000 		.long	_ZN10GuiElement11SetHoldableEb
 4232 0058 00000000 		.long	_ZN10GuiElement8SetStateEii
 4233 005c 00000000 		.long	_ZN10GuiElement8GetStateEv
 4234 0060 00000000 		.long	_ZN10GuiElement12GetStateChanEv
 4235 0064 00000000 		.long	_ZN8GuiFrame10ResetStateEv
 4236 0068 00000000 		.long	_ZN10GuiElement8SetAlphaEi
 4237 006c 00000000 		.long	_ZN10GuiElement8GetAlphaEv
 4238 0070 00000000 		.long	_ZN10GuiElement8SetScaleEf
 4239 0074 00000000 		.long	_ZN10GuiElement9SetScaleXEf
 4240 0078 00000000 		.long	_ZN10GuiElement9SetScaleYEf
 4241 007c 00000000 		.long	_ZN10GuiElement8GetScaleEv
 4242 0080 00000000 		.long	_ZN10GuiElement9GetScaleXEv
 4243 0084 00000000 		.long	_ZN10GuiElement9GetScaleYEv
 4244 0088 00000000 		.long	_ZN10GuiElement6RumbleEv
 4245 008c 00000000 		.long	_ZN10GuiElement9SetRumbleEb
 4246 0090 00000000 		.long	_ZN10GuiElement9SetEffectEiii
 4247 0094 00000000 		.long	_ZN10GuiElement15SetEffectOnOverEiii
 4248 0098 00000000 		.long	_ZN10GuiElement13SetEffectGrowEv
 4249 009c 00000000 		.long	_ZN10GuiElement12ResetEffectsEv
 4250 00a0 00000000 		.long	_ZNK10GuiElement9GetEffectEv
 4251 00a4 00000000 		.long	_ZNK10GuiElement10IsAnimatedEv
 4252 00a8 00000000 		.long	_ZN8GuiFrame9SetBoundsE4RectIiE
 4253 00ac 00000000 		.long	_ZN10GuiElement8IsInsideEii
 4254 00b0 00000000 		.long	_ZN10GuiElement11SetPositionEii
 4255 00b4 00000000 		.long	_ZN10GuiElement11SetPositionEiii
 4256 00b8 00000000 		.long	_ZN8GuiFrame11GetSelectedEv
 4257 00bc 00000000 		.long	_ZN10GuiElement12SetAlignmentEi
 4258 00c0 00000000 		.long	_ZNK10GuiElement12GetAlignmentEv
 4259 00c4 00000000 		.long	_ZN8GuiFrame6UpdateEP10GuiTrigger
 4260 00c8 00000000 		.long	_ZN8GuiFrame4DrawEv
 4261 00cc 00000000 		.long	_ZN10GuiElement13UpdateEffectsEv
 4262 00d0 00000000 		.long	_ZN8GuiFrame5CloseEv
 4263 00d4 00000000 		.long	_ZN15SettingsBrowser4showEv
 4264 00d8 00000000 		.long	_ZN8GuiFrame4hideEv
 4265 00dc 00000000 		.long	_ZN8GuiFrame4execEv
 4266 00e0 00000000 		.long	_ZN8GuiFrame12updateEventsEv
 4267 00e4 00000000 		.long	_ZN15SettingsBrowser15SetupOptionNameEv
 4268 00e8 00000000 		.long	_ZN15SettingsBrowser15SetOptionValuesEv
 4269 00ec 00000000 		.long	_ZN15SettingsBrowser14OnBrowserClickEP16GuiOptionBrowseri
 4270 00f0 FFFFFF50 		.long	-176
 4271 00f4 00000000 		.long	_ZTI15SettingsBrowser
 4272 00f8 00000000 		.long	_ZThn176_N15SettingsBrowserD1Ev
 4273 00fc 00000000 		.long	_ZThn176_N15SettingsBrowserD0Ev
 4274 0100 00000000 		.long	_ZN7sigslot15single_threaded4lockEv
 4275 0104 00000000 		.long	_ZN7sigslot15single_threaded6unlockEv
 4276              		.weak	_ZTVN7sigslot15single_threadedE
 4277              		.section	.rodata._ZTVN7sigslot15single_threadedE,"aG",@progbits,_ZTVN7sigslot15single_threadedE,co
 4278              		.align 3
 4279              		.type	_ZTVN7sigslot15single_threadedE, @object
 4280              		.size	_ZTVN7sigslot15single_threadedE, 24
 4281              	_ZTVN7sigslot15single_threadedE:
 4282 0000 00000000 		.long	0
 4283 0004 00000000 		.long	_ZTIN7sigslot15single_threadedE
 4284 0008 00000000 		.long	_ZN7sigslot15single_threadedD1Ev
 4285 000c 00000000 		.long	_ZN7sigslot15single_threadedD0Ev
 4286 0010 00000000 		.long	_ZN7sigslot15single_threaded4lockEv
 4287 0014 00000000 		.long	_ZN7sigslot15single_threaded6unlockEv
 4288              		.weak	_ZTVN7sigslot9has_slotsINS_15single_threadedEEE
 4289              		.section	.rodata._ZTVN7sigslot9has_slotsINS_15single_threadedEEE,"aG",@progbits,_ZTVN7sigslot9has_
 4290              		.align 3
 4291              		.type	_ZTVN7sigslot9has_slotsINS_15single_threadedEEE, @object
 4292              		.size	_ZTVN7sigslot9has_slotsINS_15single_threadedEEE, 24
 4293              	_ZTVN7sigslot9has_slotsINS_15single_threadedEEE:
 4294 0000 00000000 		.long	0
 4295 0004 00000000 		.long	_ZTIN7sigslot9has_slotsINS_15single_threadedEEE
 4296 0008 00000000 		.long	_ZN7sigslot9has_slotsINS_15single_threadedEED1Ev
 4297 000c 00000000 		.long	_ZN7sigslot9has_slotsINS_15single_threadedEED0Ev
 4298 0010 00000000 		.long	_ZN7sigslot15single_threaded4lockEv
 4299 0014 00000000 		.long	_ZN7sigslot15single_threaded6unlockEv
 4300              		.weak	_ZTVN7sigslot17_connection_base2IP16GuiOptionBrowseriNS_15single_threadedEEE
 4301              		.section	.rodata._ZTVN7sigslot17_connection_base2IP16GuiOptionBrowseriNS_15single_threadedEEE,"aG"
 4302              		.align 3
 4303              		.type	_ZTVN7sigslot17_connection_base2IP16GuiOptionBrowseriNS_15single_threadedEEE, @object
 4304              		.size	_ZTVN7sigslot17_connection_base2IP16GuiOptionBrowseriNS_15single_threadedEEE, 32
 4305              	_ZTVN7sigslot17_connection_base2IP16GuiOptionBrowseriNS_15single_threadedEEE:
 4306 0000 00000000 		.long	0
 4307 0004 00000000 		.long	_ZTIN7sigslot17_connection_base2IP16GuiOptionBrowseriNS_15single_threadedEEE
 4308 0008 00000000 		.long	_ZN7sigslot17_connection_base2IP16GuiOptionBrowseriNS_15single_threadedEED1Ev
 4309 000c 00000000 		.long	_ZN7sigslot17_connection_base2IP16GuiOptionBrowseriNS_15single_threadedEED0Ev
 4310 0010 00000000 		.long	__cxa_pure_virtual
 4311 0014 00000000 		.long	__cxa_pure_virtual
 4312 0018 00000000 		.long	__cxa_pure_virtual
 4313 001c 00000000 		.long	__cxa_pure_virtual
 4314              		.weak	_ZTVN7sigslot12_connection2I15SettingsBrowserP16GuiOptionBrowseriNS_15single_threadedEEE
 4315              		.section	.rodata._ZTVN7sigslot12_connection2I15SettingsBrowserP16GuiOptionBrowseriNS_15single_thre
 4316              		.align 3
 4317              		.type	_ZTVN7sigslot12_connection2I15SettingsBrowserP16GuiOptionBrowseriNS_15single_threadedEEE, @o
 4318              		.size	_ZTVN7sigslot12_connection2I15SettingsBrowserP16GuiOptionBrowseriNS_15single_threadedEEE, 32
 4319              	_ZTVN7sigslot12_connection2I15SettingsBrowserP16GuiOptionBrowseriNS_15single_threadedEEE:
 4320 0000 00000000 		.long	0
 4321 0004 00000000 		.long	_ZTIN7sigslot12_connection2I15SettingsBrowserP16GuiOptionBrowseriNS_15single_threadedEEE
 4322 0008 00000000 		.long	_ZN7sigslot12_connection2I15SettingsBrowserP16GuiOptionBrowseriNS_15single_threadedEED1Ev
 4323 000c 00000000 		.long	_ZN7sigslot12_connection2I15SettingsBrowserP16GuiOptionBrowseriNS_15single_threadedEED0Ev
 4324 0010 00000000 		.long	_ZNK7sigslot12_connection2I15SettingsBrowserP16GuiOptionBrowseriNS_15single_threadedEE7getde
 4325 0014 00000000 		.long	_ZN7sigslot12_connection2I15SettingsBrowserP16GuiOptionBrowseriNS_15single_threadedEE4emitES
 4326 0018 00000000 		.long	_ZN7sigslot12_connection2I15SettingsBrowserP16GuiOptionBrowseriNS_15single_threadedEE5cloneE
 4327 001c 00000000 		.long	_ZN7sigslot12_connection2I15SettingsBrowserP16GuiOptionBrowseriNS_15single_threadedEE9duplic
 4328              		.weak	_ZTIN7sigslot9has_slotsINS_15single_threadedEEE
 4329              		.section	.rodata._ZTIN7sigslot9has_slotsINS_15single_threadedEEE,"aG",@progbits,_ZTIN7sigslot9has_
 4330              		.align 2
 4331              		.type	_ZTIN7sigslot9has_slotsINS_15single_threadedEEE, @object
 4332              		.size	_ZTIN7sigslot9has_slotsINS_15single_threadedEEE, 12
 4333              	_ZTIN7sigslot9has_slotsINS_15single_threadedEEE:
 4334 0000 00000008 		.long	_ZTVN10__cxxabiv120__si_class_type_infoE+8
 4335 0004 00000000 		.long	_ZTSN7sigslot9has_slotsINS_15single_threadedEEE
 4336 0008 00000000 		.long	_ZTIN7sigslot15single_threadedE
 4337              		.weak	_ZTIN7sigslot15single_threadedE
 4338              		.section	.sdata._ZTIN7sigslot15single_threadedE,"awG",@progbits,_ZTIN7sigslot15single_threadedE,co
 4339              		.align 2
 4340              		.type	_ZTIN7sigslot15single_threadedE, @object
 4341              		.size	_ZTIN7sigslot15single_threadedE, 8
 4342              	_ZTIN7sigslot15single_threadedE:
 4343 0000 00000008 		.long	_ZTVN10__cxxabiv117__class_type_infoE+8
 4344 0004 00000000 		.long	_ZTSN7sigslot15single_threadedE
 4345              		.weak	_ZTIN7sigslot17_connection_base2IP16GuiOptionBrowseriNS_15single_threadedEEE
 4346              		.section	.sdata._ZTIN7sigslot17_connection_base2IP16GuiOptionBrowseriNS_15single_threadedEEE,"awG"
 4347              		.align 2
 4348              		.type	_ZTIN7sigslot17_connection_base2IP16GuiOptionBrowseriNS_15single_threadedEEE, @object
 4349              		.size	_ZTIN7sigslot17_connection_base2IP16GuiOptionBrowseriNS_15single_threadedEEE, 8
 4350              	_ZTIN7sigslot17_connection_base2IP16GuiOptionBrowseriNS_15single_threadedEEE:
 4351 0000 00000008 		.long	_ZTVN10__cxxabiv117__class_type_infoE+8
 4352 0004 00000000 		.long	_ZTSN7sigslot17_connection_base2IP16GuiOptionBrowseriNS_15single_threadedEEE
 4353              		.weak	_ZTIN7sigslot12_connection2I15SettingsBrowserP16GuiOptionBrowseriNS_15single_threadedEEE
 4354              		.section	.rodata._ZTIN7sigslot12_connection2I15SettingsBrowserP16GuiOptionBrowseriNS_15single_thre
 4355              		.align 2
 4356              		.type	_ZTIN7sigslot12_connection2I15SettingsBrowserP16GuiOptionBrowseriNS_15single_threadedEEE, @o
 4357              		.size	_ZTIN7sigslot12_connection2I15SettingsBrowserP16GuiOptionBrowseriNS_15single_threadedEEE, 12
 4358              	_ZTIN7sigslot12_connection2I15SettingsBrowserP16GuiOptionBrowseriNS_15single_threadedEEE:
 4359 0000 00000008 		.long	_ZTVN10__cxxabiv120__si_class_type_infoE+8
 4360 0004 00000000 		.long	_ZTSN7sigslot12_connection2I15SettingsBrowserP16GuiOptionBrowseriNS_15single_threadedEEE
 4361 0008 00000000 		.long	_ZTIN7sigslot17_connection_base2IP16GuiOptionBrowseriNS_15single_threadedEEE
 4362              		.weak	_ZTSN7sigslot9has_slotsINS_15single_threadedEEE
 4363              		.section	.rodata._ZTSN7sigslot9has_slotsINS_15single_threadedEEE,"aG",@progbits,_ZTSN7sigslot9has_
 4364              		.align 2
 4365              		.type	_ZTSN7sigslot9has_slotsINS_15single_threadedEEE, @object
 4366              		.size	_ZTSN7sigslot9has_slotsINS_15single_threadedEEE, 44
 4367              	_ZTSN7sigslot9has_slotsINS_15single_threadedEEE:
 4368 0000 4E377369 		.string	"N7sigslot9has_slotsINS_15single_threadedEEE"
 4368      67736C6F 
 4368      74396861 
 4368      735F736C 
 4368      6F747349 
 4369              		.weak	_ZTSN7sigslot15single_threadedE
 4370              		.section	.rodata._ZTSN7sigslot15single_threadedE,"aG",@progbits,_ZTSN7sigslot15single_threadedE,co
 4371              		.align 2
 4372              		.type	_ZTSN7sigslot15single_threadedE, @object
 4373              		.size	_ZTSN7sigslot15single_threadedE, 28
 4374              	_ZTSN7sigslot15single_threadedE:
 4375 0000 4E377369 		.string	"N7sigslot15single_threadedE"
 4375      67736C6F 
 4375      74313573 
 4375      696E676C 
 4375      655F7468 
 4376              		.weak	_ZTSN7sigslot17_connection_base2IP16GuiOptionBrowseriNS_15single_threadedEEE
 4377              		.section	.rodata._ZTSN7sigslot17_connection_base2IP16GuiOptionBrowseriNS_15single_threadedEEE,"aG"
 4378              		.align 2
 4379              		.type	_ZTSN7sigslot17_connection_base2IP16GuiOptionBrowseriNS_15single_threadedEEE, @object
 4380              		.size	_ZTSN7sigslot17_connection_base2IP16GuiOptionBrowseriNS_15single_threadedEEE, 73
 4381              	_ZTSN7sigslot17_connection_base2IP16GuiOptionBrowseriNS_15single_threadedEEE:
 4382 0000 4E377369 		.string	"N7sigslot17_connection_base2IP16GuiOptionBrowseriNS_15single_threadedEEE"
 4382      67736C6F 
 4382      7431375F 
 4382      636F6E6E 
 4382      65637469 
 4383              		.weak	_ZTSN7sigslot12_connection2I15SettingsBrowserP16GuiOptionBrowseriNS_15single_threadedEEE
 4384              		.section	.rodata._ZTSN7sigslot12_connection2I15SettingsBrowserP16GuiOptionBrowseriNS_15single_thre
 4385              		.align 2
 4386              		.type	_ZTSN7sigslot12_connection2I15SettingsBrowserP16GuiOptionBrowseriNS_15single_threadedEEE, @o
 4387              		.size	_ZTSN7sigslot12_connection2I15SettingsBrowserP16GuiOptionBrowseriNS_15single_threadedEEE, 85
 4388              	_ZTSN7sigslot12_connection2I15SettingsBrowserP16GuiOptionBrowseriNS_15single_threadedEEE:
 4389 0000 4E377369 		.string	"N7sigslot12_connection2I15SettingsBrowserP16GuiOptionBrowseriNS_15single_threadedEEE"
 4389      67736C6F 
 4389      7431325F 
 4389      636F6E6E 
 4389      65637469 
 4390              		.weak	_ZN7sigslot15single_threadedD1Ev
 4391              		.set	_ZN7sigslot15single_threadedD1Ev,_ZN7sigslot15single_threadedD2Ev
 4392              		.weak	_ZN7sigslot17_connection_base2IP16GuiOptionBrowseriNS_15single_threadedEED1Ev
 4393              		.set	_ZN7sigslot17_connection_base2IP16GuiOptionBrowseriNS_15single_threadedEED1Ev,_ZN7sigslot17_c
 4394              		.weak	_ZN7sigslot12_connection2I15SettingsBrowserP16GuiOptionBrowseriNS_15single_threadedEED1Ev
 4395              		.set	_ZN7sigslot12_connection2I15SettingsBrowserP16GuiOptionBrowseriNS_15single_threadedEED1Ev,_ZN
 4396              		.weak	_ZN7sigslot9has_slotsINS_15single_threadedEED1Ev
 4397              		.set	_ZN7sigslot9has_slotsINS_15single_threadedEED1Ev,_ZN7sigslot9has_slotsINS_15single_threadedEE
 4398              		.globl _ZN15SettingsBrowserC1Ev
 4399              		.set	_ZN15SettingsBrowserC1Ev,_ZN15SettingsBrowserC2Ev
 4400              		.globl _ZN15SettingsBrowserD1Ev
 4401              		.set	_ZN15SettingsBrowserD1Ev,_ZN15SettingsBrowserD2Ev
 4402              		.set	.LTHUNK0,_ZN15SettingsBrowserD1Ev
 4403              		.set	.LTHUNK1,_ZN15SettingsBrowserD0Ev
 4404              		.section	.rodata.cst4,"aM",@progbits,4
 4405              		.align 2
 4406              	.LC1:
 4407 0000 59800004 		.4byte	1501560836
 4408              	.LC2:
 4409 0004 437F0000 		.4byte	1132396544
 4410              	.LC3:
 4411 0008 3F000000 		.4byte	1056964608
 4412              		.section	".text"
 4413              	.Letext0:
 4414              		.file 10 "d:\\devkitpro\\devkitppc\\bin\\../lib/gcc/powerpc-eabi/4.6.3/../../../../powerpc-eabi/in
 4415              		.file 11 "d:/devkitPro/libogc/include/gctypes.h"
 4416              		.file 12 "d:/devkitPro/libogc/include/ogc/gx.h"
 4417              		.file 13 "d:\\devkitpro\\devkitppc\\bin\\../lib/gcc/powerpc-eabi/4.6.3/../../../../powerpc-eabi/in
 4418              		.file 14 "d:\\devkitpro\\devkitppc\\bin\\../lib/gcc/powerpc-eabi/4.6.3/../../../../powerpc-eabi/in
 4419              		.file 15 "d:\\devkitpro\\devkitppc\\bin\\../lib/gcc/powerpc-eabi/4.6.3/include/stddef.h"
 4420              		.file 16 "d:\\devkitpro\\devkitppc\\bin\\../lib/gcc/powerpc-eabi/4.6.3/../../../../powerpc-eabi/in
 4421              		.file 17 "d:\\devkitpro\\devkitppc\\bin\\../lib/gcc/powerpc-eabi/4.6.3/../../../../powerpc-eabi/in
 4422              		.file 18 "d:\\devkitpro\\devkitppc\\bin\\../lib/gcc/powerpc-eabi/4.6.3/../../../../powerpc-eabi/in
 4423              		.file 19 "<built-in>"
 4424              		.file 20 "d:\\devkitpro\\devkitppc\\bin\\../lib/gcc/powerpc-eabi/4.6.3/../../../../powerpc-eabi/in
 4425              		.file 21 "d:\\devkitpro\\devkitppc\\bin\\../lib/gcc/powerpc-eabi/4.6.3/../../../../powerpc-eabi/in
 4426              		.file 22 "d:\\devkitpro\\devkitppc\\bin\\../lib/gcc/powerpc-eabi/4.6.3/../../../../powerpc-eabi/in
 4427              		.file 23 "d:\\devkitpro\\devkitppc\\bin\\../lib/gcc/powerpc-eabi/4.6.3/../../../../powerpc-eabi/in
 4428              		.file 24 "d:\\devkitpro\\devkitppc\\bin\\../lib/gcc/powerpc-eabi/4.6.3/../../../../powerpc-eabi/in
 4429              		.file 25 "d:\\devkitpro\\devkitppc\\bin\\../lib/gcc/powerpc-eabi/4.6.3/../../../../powerpc-eabi/in
 4430              		.file 26 "d:\\devkitpro\\devkitppc\\bin\\../lib/gcc/powerpc-eabi/4.6.3/../../../../powerpc-eabi/in
 4431              		.file 27 "d:\\devkitpro\\devkitppc\\bin\\../lib/gcc/powerpc-eabi/4.6.3/../../../../powerpc-eabi/in
 4432              		.file 28 "d:\\devkitpro\\devkitppc\\bin\\../lib/gcc/powerpc-eabi/4.6.3/../../../../powerpc-eabi/in
 4433              		.file 29 "d:\\devkitpro\\devkitppc\\bin\\../lib/gcc/powerpc-eabi/4.6.3/../../../../powerpc-eabi/in
 4434              		.file 30 "d:\\devkitpro\\devkitppc\\bin\\../lib/gcc/powerpc-eabi/4.6.3/../../../../powerpc-eabi/in
 4435              		.file 31 "d:\\devkitpro\\devkitppc\\bin\\../lib/gcc/powerpc-eabi/4.6.3/../../../../powerpc-eabi/in
 4436              		.file 32 "d:\\devkitpro\\devkitppc\\bin\\../lib/gcc/powerpc-eabi/4.6.3/../../../../powerpc-eabi/in
 4437              		.file 33 "d:\\devkitpro\\devkitppc\\bin\\../lib/gcc/powerpc-eabi/4.6.3/../../../../powerpc-eabi/in
 4438              		.file 34 "d:\\devkitpro\\devkitppc\\bin\\../lib/gcc/powerpc-eabi/4.6.3/../../../../powerpc-eabi/in
 4439              		.file 35 "d:\\devkitpro\\devkitppc\\bin\\../lib/gcc/powerpc-eabi/4.6.3/../../../../powerpc-eabi/in
 4440              		.file 36 "d:/Projects/SaveGameManager/savegame-manager-gx/trunk/source/Settings/menus/../../GUI/..
 4441              		.file 37 "d:\\devkitpro\\devkitppc\\bin\\../lib/gcc/powerpc-eabi/4.6.3/../../../../powerpc-eabi/in
 4442              		.file 38 "d:\\devkitpro\\devkitppc\\bin\\../lib/gcc/powerpc-eabi/4.6.3/../../../../powerpc-eabi/in
 4443              		.file 39 "d:\\devkitpro\\devkitppc\\bin\\../lib/gcc/powerpc-eabi/4.6.3/../../../../powerpc-eabi/in
 4444              		.file 40 "d:\\devkitpro\\devkitppc\\bin\\../lib/gcc/powerpc-eabi/4.6.3/../../../../powerpc-eabi/in
 4445              		.file 41 "d:/Projects/SaveGameManager/savegame-manager-gx/trunk/source/Settings/menus/../../GUI/..