   1              		.file	"SoundHandler.cpp"
   2              		.section	".text"
   3              	.Ltext0:
   4              		.align 2
   5              		.globl _ZN12SoundHandler12UpdateThreadEPv
   6              		.type	_ZN12SoundHandler12UpdateThreadEPv, @function
   7              	_ZN12SoundHandler12UpdateThreadEPv:
   8              	.LFB1440:
   9              		.file 1 "d:/Projects/SaveGameManager/savegame-manager-gx/trunk/source/SoundOperations/SoundHandler
  10              		.loc 1 221 0
  11              		.cfi_startproc
  12              	.LVL0:
  13 0000 9421FFF0 		stwu 1,-16(1)
  14              	.LCFI0:
  15              		.cfi_def_cfa_offset 16
  16 0004 7C0802A6 		mflr 0
  17 0008 93E1000C 		stw 31,12(1)
  18 000c 7C7F1B78 		mr 31,3
  19              		.cfi_offset 31, -4
  20              		.cfi_register 65, 0
  21              	.LVL1:
  22              	.LBB245:
  23              	.LBB246:
  24              		.loc 1 229 0
  25 0010 38630008 		addi 3,3,8
  26              	.LVL2:
  27              	.LBE246:
  28              	.LBE245:
  29              		.loc 1 221 0
  30 0014 90010014 		stw 0,20(1)
  31              	.LBB248:
  32              	.LBB247:
  33              		.loc 1 229 0
  34              		.cfi_offset 65, 4
  35 0018 48000001 		bl LWP_InitQueue
  36              		.loc 1 230 0
  37 001c 881F000D 		lbz 0,13(31)
  38 0020 2F800000 		cmpwi 7,0,0
  39 0024 409E0260 		bne- 7,.L2
  40              	.LVL3:
  41              	.L20:
  42              		.loc 1 232 0
  43 0028 807F0008 		lwz 3,8(31)
  44 002c 48000001 		bl LWP_ThreadSleep
  45              	.LVL4:
  46              		.loc 1 236 0
  47 0030 807F0010 		lwz 3,16(31)
  48 0034 2F830000 		cmpwi 7,3,0
  49 0038 419E001C 		beq- 7,.L3
  50              		.loc 1 240 0
  51 003c 81230000 		lwz 9,0(3)
  52              		.loc 1 239 0
  53 0040 38000001 		li 0,1
  54 0044 981F000C 		stb 0,12(31)
  55              		.loc 1 240 0
  56 0048 80090020 		lwz 0,32(9)
  57 004c 7C0903A6 		mtctr 0
  58 0050 4E800421 		bctrl
  59              	.L3:
  60              	.LVL5:
  61              		.loc 1 236 0
  62 0054 807F0014 		lwz 3,20(31)
  63 0058 2F830000 		cmpwi 7,3,0
  64 005c 419E001C 		beq- 7,.L4
  65              		.loc 1 240 0
  66 0060 81230000 		lwz 9,0(3)
  67              		.loc 1 239 0
  68 0064 38000001 		li 0,1
  69 0068 981F000C 		stb 0,12(31)
  70              		.loc 1 240 0
  71 006c 80090020 		lwz 0,32(9)
  72 0070 7C0903A6 		mtctr 0
  73 0074 4E800421 		bctrl
  74              	.L4:
  75              	.LVL6:
  76              		.loc 1 236 0
  77 0078 807F0018 		lwz 3,24(31)
  78 007c 2F830000 		cmpwi 7,3,0
  79 0080 419E001C 		beq- 7,.L5
  80              		.loc 1 240 0
  81 0084 81230000 		lwz 9,0(3)
  82              		.loc 1 239 0
  83 0088 38000001 		li 0,1
  84 008c 981F000C 		stb 0,12(31)
  85              		.loc 1 240 0
  86 0090 80090020 		lwz 0,32(9)
  87 0094 7C0903A6 		mtctr 0
  88 0098 4E800421 		bctrl
  89              	.L5:
  90              	.LVL7:
  91              		.loc 1 236 0
  92 009c 807F001C 		lwz 3,28(31)
  93 00a0 2F830000 		cmpwi 7,3,0
  94 00a4 419E001C 		beq- 7,.L6
  95              		.loc 1 240 0
  96 00a8 81230000 		lwz 9,0(3)
  97              		.loc 1 239 0
  98 00ac 38000001 		li 0,1
  99 00b0 981F000C 		stb 0,12(31)
 100              		.loc 1 240 0
 101 00b4 80090020 		lwz 0,32(9)
 102 00b8 7C0903A6 		mtctr 0
 103 00bc 4E800421 		bctrl
 104              	.L6:
 105              	.LVL8:
 106              		.loc 1 236 0
 107 00c0 807F0020 		lwz 3,32(31)
 108 00c4 2F830000 		cmpwi 7,3,0
 109 00c8 419E001C 		beq- 7,.L7
 110              		.loc 1 240 0
 111 00cc 81230000 		lwz 9,0(3)
 112              		.loc 1 239 0
 113 00d0 38000001 		li 0,1
 114 00d4 981F000C 		stb 0,12(31)
 115              		.loc 1 240 0
 116 00d8 80090020 		lwz 0,32(9)
 117 00dc 7C0903A6 		mtctr 0
 118 00e0 4E800421 		bctrl
 119              	.L7:
 120              	.LVL9:
 121              		.loc 1 236 0
 122 00e4 807F0024 		lwz 3,36(31)
 123 00e8 2F830000 		cmpwi 7,3,0
 124 00ec 419E001C 		beq- 7,.L8
 125              		.loc 1 240 0
 126 00f0 81230000 		lwz 9,0(3)
 127              		.loc 1 239 0
 128 00f4 38000001 		li 0,1
 129 00f8 981F000C 		stb 0,12(31)
 130              		.loc 1 240 0
 131 00fc 80090020 		lwz 0,32(9)
 132 0100 7C0903A6 		mtctr 0
 133 0104 4E800421 		bctrl
 134              	.L8:
 135              	.LVL10:
 136              		.loc 1 236 0
 137 0108 807F0028 		lwz 3,40(31)
 138 010c 2F830000 		cmpwi 7,3,0
 139 0110 419E001C 		beq- 7,.L9
 140              		.loc 1 240 0
 141 0114 81230000 		lwz 9,0(3)
 142              		.loc 1 239 0
 143 0118 38000001 		li 0,1
 144 011c 981F000C 		stb 0,12(31)
 145              		.loc 1 240 0
 146 0120 80090020 		lwz 0,32(9)
 147 0124 7C0903A6 		mtctr 0
 148 0128 4E800421 		bctrl
 149              	.L9:
 150              	.LVL11:
 151              		.loc 1 236 0
 152 012c 807F002C 		lwz 3,44(31)
 153 0130 2F830000 		cmpwi 7,3,0
 154 0134 419E001C 		beq- 7,.L10
 155              		.loc 1 240 0
 156 0138 81230000 		lwz 9,0(3)
 157              		.loc 1 239 0
 158 013c 38000001 		li 0,1
 159 0140 981F000C 		stb 0,12(31)
 160              		.loc 1 240 0
 161 0144 80090020 		lwz 0,32(9)
 162 0148 7C0903A6 		mtctr 0
 163 014c 4E800421 		bctrl
 164              	.L10:
 165              	.LVL12:
 166              		.loc 1 236 0
 167 0150 807F0030 		lwz 3,48(31)
 168 0154 2F830000 		cmpwi 7,3,0
 169 0158 419E001C 		beq- 7,.L11
 170              		.loc 1 240 0
 171 015c 81230000 		lwz 9,0(3)
 172              		.loc 1 239 0
 173 0160 38000001 		li 0,1
 174 0164 981F000C 		stb 0,12(31)
 175              		.loc 1 240 0
 176 0168 80090020 		lwz 0,32(9)
 177 016c 7C0903A6 		mtctr 0
 178 0170 4E800421 		bctrl
 179              	.L11:
 180              	.LVL13:
 181              		.loc 1 236 0
 182 0174 807F0034 		lwz 3,52(31)
 183 0178 2F830000 		cmpwi 7,3,0
 184 017c 419E001C 		beq- 7,.L12
 185              		.loc 1 240 0
 186 0180 81230000 		lwz 9,0(3)
 187              		.loc 1 239 0
 188 0184 38000001 		li 0,1
 189 0188 981F000C 		stb 0,12(31)
 190              		.loc 1 240 0
 191 018c 80090020 		lwz 0,32(9)
 192 0190 7C0903A6 		mtctr 0
 193 0194 4E800421 		bctrl
 194              	.L12:
 195              	.LVL14:
 196              		.loc 1 236 0
 197 0198 807F0038 		lwz 3,56(31)
 198 019c 2F830000 		cmpwi 7,3,0
 199 01a0 419E001C 		beq- 7,.L13
 200              		.loc 1 240 0
 201 01a4 81230000 		lwz 9,0(3)
 202              		.loc 1 239 0
 203 01a8 38000001 		li 0,1
 204 01ac 981F000C 		stb 0,12(31)
 205              		.loc 1 240 0
 206 01b0 80090020 		lwz 0,32(9)
 207 01b4 7C0903A6 		mtctr 0
 208 01b8 4E800421 		bctrl
 209              	.L13:
 210              	.LVL15:
 211              		.loc 1 236 0
 212 01bc 807F003C 		lwz 3,60(31)
 213 01c0 2F830000 		cmpwi 7,3,0
 214 01c4 419E001C 		beq- 7,.L14
 215              		.loc 1 240 0
 216 01c8 81230000 		lwz 9,0(3)
 217              		.loc 1 239 0
 218 01cc 38000001 		li 0,1
 219 01d0 981F000C 		stb 0,12(31)
 220              		.loc 1 240 0
 221 01d4 80090020 		lwz 0,32(9)
 222 01d8 7C0903A6 		mtctr 0
 223 01dc 4E800421 		bctrl
 224              	.L14:
 225              	.LVL16:
 226              		.loc 1 236 0
 227 01e0 807F0040 		lwz 3,64(31)
 228 01e4 2F830000 		cmpwi 7,3,0
 229 01e8 419E001C 		beq- 7,.L15
 230              		.loc 1 240 0
 231 01ec 81230000 		lwz 9,0(3)
 232              		.loc 1 239 0
 233 01f0 38000001 		li 0,1
 234 01f4 981F000C 		stb 0,12(31)
 235              		.loc 1 240 0
 236 01f8 80090020 		lwz 0,32(9)
 237 01fc 7C0903A6 		mtctr 0
 238 0200 4E800421 		bctrl
 239              	.L15:
 240              	.LVL17:
 241              		.loc 1 236 0
 242 0204 807F0044 		lwz 3,68(31)
 243 0208 2F830000 		cmpwi 7,3,0
 244 020c 419E001C 		beq- 7,.L16
 245              		.loc 1 240 0
 246 0210 81230000 		lwz 9,0(3)
 247              		.loc 1 239 0
 248 0214 38000001 		li 0,1
 249 0218 981F000C 		stb 0,12(31)
 250              		.loc 1 240 0
 251 021c 80090020 		lwz 0,32(9)
 252 0220 7C0903A6 		mtctr 0
 253 0224 4E800421 		bctrl
 254              	.L16:
 255              	.LVL18:
 256              		.loc 1 236 0
 257 0228 807F0048 		lwz 3,72(31)
 258 022c 2F830000 		cmpwi 7,3,0
 259 0230 419E001C 		beq- 7,.L17
 260              		.loc 1 240 0
 261 0234 81230000 		lwz 9,0(3)
 262              		.loc 1 239 0
 263 0238 38000001 		li 0,1
 264 023c 981F000C 		stb 0,12(31)
 265              		.loc 1 240 0
 266 0240 80090020 		lwz 0,32(9)
 267 0244 7C0903A6 		mtctr 0
 268 0248 4E800421 		bctrl
 269              	.L17:
 270              	.LVL19:
 271              		.loc 1 236 0
 272 024c 807F004C 		lwz 3,76(31)
 273 0250 2F830000 		cmpwi 7,3,0
 274 0254 419E001C 		beq- 7,.L18
 275              		.loc 1 240 0
 276 0258 81230000 		lwz 9,0(3)
 277              		.loc 1 239 0
 278 025c 38000001 		li 0,1
 279 0260 981F000C 		stb 0,12(31)
 280              		.loc 1 240 0
 281 0264 80090020 		lwz 0,32(9)
 282 0268 7C0903A6 		mtctr 0
 283 026c 4E800421 		bctrl
 284              	.L18:
 285              	.LVL20:
 286              		.loc 1 230 0
 287 0270 881F000D 		lbz 0,13(31)
 288 0274 2F800000 		cmpwi 7,0,0
 289              		.loc 1 242 0
 290 0278 38000000 		li 0,0
 291 027c 981F000C 		stb 0,12(31)
 292              		.loc 1 230 0
 293 0280 419EFDA8 		beq+ 7,.L20
 294              	.LVL21:
 295              	.L2:
 296              		.loc 1 244 0
 297 0284 807F0008 		lwz 3,8(31)
 298 0288 48000001 		bl LWP_CloseQueue
 299              		.loc 1 245 0
 300 028c 3800FFFF 		li 0,-1
 301 0290 901F0008 		stw 0,8(31)
 302              	.LBE247:
 303              	.LBE248:
 304              		.loc 1 224 0
 305 0294 38600000 		li 3,0
 306 0298 80010014 		lwz 0,20(1)
 307 029c 83E1000C 		lwz 31,12(1)
 308              	.LVL22:
 309 02a0 7C0803A6 		mtlr 0
 310 02a4 38210010 		addi 1,1,16
 311              	.LCFI1:
 312              		.cfi_def_cfa_offset 0
 313              		.cfi_restore 31
 314 02a8 4E800020 		blr
 315              		.cfi_endproc
 316              	.LFE1440:
 317              		.size	_ZN12SoundHandler12UpdateThreadEPv, .-_ZN12SoundHandler12UpdateThreadEPv
 318              		.align 2
 319              		.globl _ZN12SoundHandlerC2Ev
 320              		.type	_ZN12SoundHandlerC2Ev, @function
 321              	_ZN12SoundHandlerC2Ev:
 322              	.LFB1428:
 323              		.loc 1 37 0
 324              		.cfi_startproc
 325              	.LVL23:
 326 02ac 7C0802A6 		mflr 0
 327 02b0 9421FFF0 		stwu 1,-16(1)
 328              	.LCFI2:
 329              		.cfi_def_cfa_offset 16
 330              		.cfi_register 65, 0
 331              	.LBB249:
 332              		.loc 1 39 0
 333 02b4 39200000 		li 9,0
 334              		.loc 1 44 0
 335 02b8 38800000 		li 4,0
 336              	.LBE249:
 337              		.loc 1 37 0
 338 02bc 93E1000C 		stw 31,12(1)
 339              	.LBB252:
 340              		.loc 1 44 0
 341 02c0 60848000 		ori 4,4,32768
 342              	.LBE252:
 343              		.loc 1 37 0
 344 02c4 90010014 		stw 0,20(1)
 345              	.LBB253:
 346              	.LBB250:
 347              		.loc 1 42 0
 348 02c8 38000000 		li 0,0
 349              		.cfi_offset 65, 4
 350              		.cfi_offset 31, -4
 351              	.LBE250:
 352              		.loc 1 39 0
 353 02cc 9923000C 		stb 9,12(3)
 354              	.LBE253:
 355              		.loc 1 37 0
 356 02d0 7C7F1B78 		mr 31,3
 357              	.LBB254:
 358              		.loc 1 40 0
 359 02d4 9923000D 		stb 9,13(3)
 360              	.LVL24:
 361              	.LBB251:
 362              		.loc 1 42 0
 363 02d8 90030010 		stw 0,16(3)
 364              	.LVL25:
 365 02dc 90030014 		stw 0,20(3)
 366              	.LVL26:
 367 02e0 90030018 		stw 0,24(3)
 368              	.LVL27:
 369 02e4 9003001C 		stw 0,28(3)
 370              	.LVL28:
 371 02e8 90030020 		stw 0,32(3)
 372              	.LVL29:
 373 02ec 90030024 		stw 0,36(3)
 374              	.LVL30:
 375 02f0 90030028 		stw 0,40(3)
 376              	.LVL31:
 377 02f4 9003002C 		stw 0,44(3)
 378              	.LVL32:
 379 02f8 90030030 		stw 0,48(3)
 380              	.LVL33:
 381 02fc 90030034 		stw 0,52(3)
 382              	.LVL34:
 383 0300 90030038 		stw 0,56(3)
 384              	.LVL35:
 385 0304 9003003C 		stw 0,60(3)
 386              	.LVL36:
 387 0308 90030040 		stw 0,64(3)
 388              	.LVL37:
 389 030c 90030044 		stw 0,68(3)
 390              	.LVL38:
 391 0310 90030048 		stw 0,72(3)
 392              	.LVL39:
 393 0314 9003004C 		stw 0,76(3)
 394              	.LVL40:
 395              	.LBE251:
 396              		.loc 1 44 0
 397 0318 38600020 		li 3,32
 398              	.LVL41:
 399 031c 48000001 		bl memalign
 400              		.loc 1 45 0
 401 0320 2F830000 		cmpwi 7,3,0
 402              		.loc 1 44 0
 403 0324 7C661B78 		mr 6,3
 404 0328 907F0000 		stw 3,0(31)
 405              		.loc 1 45 0
 406 032c 419E0024 		beq- 7,.L23
 407              		.loc 1 48 0
 408 0330 3C800000 		lis 4,_ZN12SoundHandler12UpdateThreadEPv@ha
 409 0334 38E00000 		li 7,0
 410 0338 387F0004 		addi 3,31,4
 411 033c 38840000 		la 4,_ZN12SoundHandler12UpdateThreadEPv@l(4)
 412 0340 7FE5FB78 		mr 5,31
 413 0344 60E78000 		ori 7,7,32768
 414 0348 39000064 		li 8,100
 415 034c 48000001 		bl LWP_CreateThread
 416              	.L23:
 417              	.LBE254:
 418              		.loc 1 49 0
 419 0350 80010014 		lwz 0,20(1)
 420 0354 83E1000C 		lwz 31,12(1)
 421              	.LVL42:
 422 0358 7C0803A6 		mtlr 0
 423 035c 38210010 		addi 1,1,16
 424              	.LCFI3:
 425              		.cfi_def_cfa_offset 0
 426              		.cfi_restore 31
 427 0360 4E800020 		blr
 428              		.cfi_endproc
 429              	.LFE1428:
 430              		.size	_ZN12SoundHandlerC2Ev, .-_ZN12SoundHandlerC2Ev
 431              		.align 2
 432              		.globl _ZN12SoundHandlerD2Ev
 433              		.type	_ZN12SoundHandlerD2Ev, @function
 434              	_ZN12SoundHandlerD2Ev:
 435              	.LFB1431:
 436              		.loc 1 51 0
 437              		.cfi_startproc
 438              	.LVL43:
 439 0364 7C0802A6 		mflr 0
 440 0368 9421FFF0 		stwu 1,-16(1)
 441              	.LCFI4:
 442              		.cfi_def_cfa_offset 16
 443              		.cfi_register 65, 0
 444 036c 93E1000C 		stw 31,12(1)
 445 0370 7C7F1B78 		mr 31,3
 446              		.cfi_offset 31, -4
 447 0374 90010014 		stw 0,20(1)
 448              	.LBB265:
 449              		.loc 1 53 0
 450 0378 38000001 		li 0,1
 451              		.cfi_offset 65, 4
 452              	.LBB266:
 453              	.LBB267:
 454              		.file 2 "d:/Projects/SaveGameManager/savegame-manager-gx/trunk/source/SoundOperations/SoundHandler
 455              		.loc 2 48 0
 456 037c 80630008 		lwz 3,8(3)
 457              	.LVL44:
 458              	.LBE267:
 459              	.LBE266:
 460              		.loc 1 53 0
 461 0380 981F000D 		stb 0,13(31)
 462              	.LBB269:
 463              	.LBB268:
 464              		.loc 2 48 0
 465 0384 48000001 		bl LWP_ThreadSignal
 466              	.LBE268:
 467              	.LBE269:
 468              		.loc 1 55 0
 469 0388 807F0004 		lwz 3,4(31)
 470 038c 38800000 		li 4,0
 471 0390 48000001 		bl LWP_JoinThread
 472              		.loc 1 57 0
 473 0394 807F0000 		lwz 3,0(31)
 474              		.loc 1 56 0
 475 0398 3800FFFF 		li 0,-1
 476              		.loc 1 57 0
 477 039c 2F830000 		cmpwi 7,3,0
 478              		.loc 1 56 0
 479 03a0 901F0004 		stw 0,4(31)
 480              		.loc 1 57 0
 481 03a4 419E0008 		beq- 7,.L26
 482              		.loc 1 58 0
 483 03a8 48000001 		bl free
 484              	.L26:
 485              	.LVL45:
 486              	.LBB270:
 487              	.LBB271:
 488              	.LBB272:
 489              	.LBB273:
 490              	.LBB274:
 491              		.loc 1 90 0
 492 03ac 807F0010 		lwz 3,16(31)
 493 03b0 2F830000 		cmpwi 7,3,0
 494 03b4 419E0014 		beq- 7,.L27
 495              		.loc 1 91 0
 496 03b8 81230000 		lwz 9,0(3)
 497 03bc 80090004 		lwz 0,4(9)
 498 03c0 7C0903A6 		mtctr 0
 499 03c4 4E800421 		bctrl
 500              	.L27:
 501              		.loc 1 90 0
 502 03c8 807F0014 		lwz 3,20(31)
 503              		.loc 1 93 0
 504 03cc 38000000 		li 0,0
 505 03d0 901F0010 		stw 0,16(31)
 506              	.LVL46:
 507              		.loc 1 90 0
 508 03d4 2F830000 		cmpwi 7,3,0
 509 03d8 419E0014 		beq- 7,.L28
 510              		.loc 1 91 0
 511 03dc 81230000 		lwz 9,0(3)
 512 03e0 80090004 		lwz 0,4(9)
 513 03e4 7C0903A6 		mtctr 0
 514 03e8 4E800421 		bctrl
 515              	.L28:
 516              		.loc 1 90 0
 517 03ec 807F0018 		lwz 3,24(31)
 518              		.loc 1 93 0
 519 03f0 38000000 		li 0,0
 520 03f4 901F0014 		stw 0,20(31)
 521              	.LVL47:
 522              		.loc 1 90 0
 523 03f8 2F830000 		cmpwi 7,3,0
 524 03fc 419E0014 		beq- 7,.L29
 525              		.loc 1 91 0
 526 0400 81230000 		lwz 9,0(3)
 527 0404 80090004 		lwz 0,4(9)
 528 0408 7C0903A6 		mtctr 0
 529 040c 4E800421 		bctrl
 530              	.L29:
 531              		.loc 1 90 0
 532 0410 807F001C 		lwz 3,28(31)
 533              		.loc 1 93 0
 534 0414 38000000 		li 0,0
 535 0418 901F0018 		stw 0,24(31)
 536              	.LVL48:
 537              		.loc 1 90 0
 538 041c 2F830000 		cmpwi 7,3,0
 539 0420 419E0014 		beq- 7,.L30
 540              		.loc 1 91 0
 541 0424 81230000 		lwz 9,0(3)
 542 0428 80090004 		lwz 0,4(9)
 543 042c 7C0903A6 		mtctr 0
 544 0430 4E800421 		bctrl
 545              	.L30:
 546              		.loc 1 90 0
 547 0434 807F0020 		lwz 3,32(31)
 548              		.loc 1 93 0
 549 0438 38000000 		li 0,0
 550 043c 901F001C 		stw 0,28(31)
 551              	.LVL49:
 552              		.loc 1 90 0
 553 0440 2F830000 		cmpwi 7,3,0
 554 0444 419E0014 		beq- 7,.L31
 555              		.loc 1 91 0
 556 0448 81230000 		lwz 9,0(3)
 557 044c 80090004 		lwz 0,4(9)
 558 0450 7C0903A6 		mtctr 0
 559 0454 4E800421 		bctrl
 560              	.L31:
 561              		.loc 1 90 0
 562 0458 807F0024 		lwz 3,36(31)
 563              		.loc 1 93 0
 564 045c 38000000 		li 0,0
 565 0460 901F0020 		stw 0,32(31)
 566              	.LVL50:
 567              		.loc 1 90 0
 568 0464 2F830000 		cmpwi 7,3,0
 569 0468 419E0014 		beq- 7,.L32
 570              		.loc 1 91 0
 571 046c 81230000 		lwz 9,0(3)
 572 0470 80090004 		lwz 0,4(9)
 573 0474 7C0903A6 		mtctr 0
 574 0478 4E800421 		bctrl
 575              	.L32:
 576              		.loc 1 90 0
 577 047c 807F0028 		lwz 3,40(31)
 578              		.loc 1 93 0
 579 0480 38000000 		li 0,0
 580 0484 901F0024 		stw 0,36(31)
 581              	.LVL51:
 582              		.loc 1 90 0
 583 0488 2F830000 		cmpwi 7,3,0
 584 048c 419E0014 		beq- 7,.L33
 585              		.loc 1 91 0
 586 0490 81230000 		lwz 9,0(3)
 587 0494 80090004 		lwz 0,4(9)
 588 0498 7C0903A6 		mtctr 0
 589 049c 4E800421 		bctrl
 590              	.L33:
 591              		.loc 1 90 0
 592 04a0 807F002C 		lwz 3,44(31)
 593              		.loc 1 93 0
 594 04a4 38000000 		li 0,0
 595 04a8 901F0028 		stw 0,40(31)
 596              	.LVL52:
 597              		.loc 1 90 0
 598 04ac 2F830000 		cmpwi 7,3,0
 599 04b0 419E0014 		beq- 7,.L34
 600              		.loc 1 91 0
 601 04b4 81230000 		lwz 9,0(3)
 602 04b8 80090004 		lwz 0,4(9)
 603 04bc 7C0903A6 		mtctr 0
 604 04c0 4E800421 		bctrl
 605              	.L34:
 606              		.loc 1 90 0
 607 04c4 807F0030 		lwz 3,48(31)
 608              		.loc 1 93 0
 609 04c8 38000000 		li 0,0
 610 04cc 901F002C 		stw 0,44(31)
 611              	.LVL53:
 612              		.loc 1 90 0
 613 04d0 2F830000 		cmpwi 7,3,0
 614 04d4 419E0014 		beq- 7,.L35
 615              		.loc 1 91 0
 616 04d8 81230000 		lwz 9,0(3)
 617 04dc 80090004 		lwz 0,4(9)
 618 04e0 7C0903A6 		mtctr 0
 619 04e4 4E800421 		bctrl
 620              	.L35:
 621              		.loc 1 90 0
 622 04e8 807F0034 		lwz 3,52(31)
 623              		.loc 1 93 0
 624 04ec 38000000 		li 0,0
 625 04f0 901F0030 		stw 0,48(31)
 626              	.LVL54:
 627              		.loc 1 90 0
 628 04f4 2F830000 		cmpwi 7,3,0
 629 04f8 419E0014 		beq- 7,.L36
 630              		.loc 1 91 0
 631 04fc 81230000 		lwz 9,0(3)
 632 0500 80090004 		lwz 0,4(9)
 633 0504 7C0903A6 		mtctr 0
 634 0508 4E800421 		bctrl
 635              	.L36:
 636              		.loc 1 90 0
 637 050c 807F0038 		lwz 3,56(31)
 638              		.loc 1 93 0
 639 0510 38000000 		li 0,0
 640 0514 901F0034 		stw 0,52(31)
 641              	.LVL55:
 642              		.loc 1 90 0
 643 0518 2F830000 		cmpwi 7,3,0
 644 051c 419E0014 		beq- 7,.L37
 645              		.loc 1 91 0
 646 0520 81230000 		lwz 9,0(3)
 647 0524 80090004 		lwz 0,4(9)
 648 0528 7C0903A6 		mtctr 0
 649 052c 4E800421 		bctrl
 650              	.L37:
 651              		.loc 1 90 0
 652 0530 807F003C 		lwz 3,60(31)
 653              		.loc 1 93 0
 654 0534 38000000 		li 0,0
 655 0538 901F0038 		stw 0,56(31)
 656              	.LVL56:
 657              		.loc 1 90 0
 658 053c 2F830000 		cmpwi 7,3,0
 659 0540 419E0014 		beq- 7,.L38
 660              		.loc 1 91 0
 661 0544 81230000 		lwz 9,0(3)
 662 0548 80090004 		lwz 0,4(9)
 663 054c 7C0903A6 		mtctr 0
 664 0550 4E800421 		bctrl
 665              	.L38:
 666              		.loc 1 90 0
 667 0554 807F0040 		lwz 3,64(31)
 668              		.loc 1 93 0
 669 0558 38000000 		li 0,0
 670 055c 901F003C 		stw 0,60(31)
 671              	.LVL57:
 672              		.loc 1 90 0
 673 0560 2F830000 		cmpwi 7,3,0
 674 0564 419E0014 		beq- 7,.L39
 675              		.loc 1 91 0
 676 0568 81230000 		lwz 9,0(3)
 677 056c 80090004 		lwz 0,4(9)
 678 0570 7C0903A6 		mtctr 0
 679 0574 4E800421 		bctrl
 680              	.L39:
 681              		.loc 1 90 0
 682 0578 807F0044 		lwz 3,68(31)
 683              		.loc 1 93 0
 684 057c 38000000 		li 0,0
 685 0580 901F0040 		stw 0,64(31)
 686              	.LVL58:
 687              		.loc 1 90 0
 688 0584 2F830000 		cmpwi 7,3,0
 689 0588 419E0014 		beq- 7,.L40
 690              		.loc 1 91 0
 691 058c 81230000 		lwz 9,0(3)
 692 0590 80090004 		lwz 0,4(9)
 693 0594 7C0903A6 		mtctr 0
 694 0598 4E800421 		bctrl
 695              	.L40:
 696              		.loc 1 90 0
 697 059c 807F0048 		lwz 3,72(31)
 698              		.loc 1 93 0
 699 05a0 38000000 		li 0,0
 700 05a4 901F0044 		stw 0,68(31)
 701              	.LVL59:
 702              		.loc 1 90 0
 703 05a8 2F830000 		cmpwi 7,3,0
 704 05ac 419E0014 		beq- 7,.L41
 705              		.loc 1 91 0
 706 05b0 81230000 		lwz 9,0(3)
 707 05b4 80090004 		lwz 0,4(9)
 708 05b8 7C0903A6 		mtctr 0
 709 05bc 4E800421 		bctrl
 710              	.L41:
 711              		.loc 1 90 0
 712 05c0 807F004C 		lwz 3,76(31)
 713              		.loc 1 93 0
 714 05c4 38000000 		li 0,0
 715 05c8 901F0048 		stw 0,72(31)
 716              	.LVL60:
 717              		.loc 1 90 0
 718 05cc 2F830000 		cmpwi 7,3,0
 719 05d0 419E0014 		beq- 7,.L42
 720              		.loc 1 91 0
 721 05d4 81230000 		lwz 9,0(3)
 722 05d8 80090004 		lwz 0,4(9)
 723 05dc 7C0903A6 		mtctr 0
 724 05e0 4E800421 		bctrl
 725              	.L42:
 726              		.loc 1 93 0
 727 05e4 38000000 		li 0,0
 728 05e8 901F004C 		stw 0,76(31)
 729              	.LVL61:
 730              	.LBE274:
 731              	.LBE273:
 732              	.LBE272:
 733              	.LBE271:
 734              	.LBE270:
 735              	.LBE265:
 736              		.loc 1 61 0
 737 05ec 80010014 		lwz 0,20(1)
 738 05f0 83E1000C 		lwz 31,12(1)
 739              	.LVL62:
 740 05f4 7C0803A6 		mtlr 0
 741 05f8 38210010 		addi 1,1,16
 742              	.LCFI5:
 743              		.cfi_def_cfa_offset 0
 744              		.cfi_restore 31
 745 05fc 4E800020 		blr
 746              		.cfi_endproc
 747              	.LFE1431:
 748              		.size	_ZN12SoundHandlerD2Ev, .-_ZN12SoundHandlerD2Ev
 749              		.align 2
 750              		.globl _ZN12SoundHandler13RemoveDecoderEi
 751              		.type	_ZN12SoundHandler13RemoveDecoderEi, @function
 752              	_ZN12SoundHandler13RemoveDecoderEi:
 753              	.LFB1435:
 754              		.loc 1 86 0
 755              		.cfi_startproc
 756              	.LVL63:
 757              		.loc 1 87 0
 758 0600 2B84000F 		cmplwi 7,4,15
 759              		.loc 1 86 0
 760 0604 7C0802A6 		mflr 0
 761 0608 9421FFF0 		stwu 1,-16(1)
 762              	.LCFI6:
 763              		.cfi_def_cfa_offset 16
 764              		.cfi_register 65, 0
 765 060c 93E1000C 		stw 31,12(1)
 766 0610 7C7F1B78 		mr 31,3
 767              		.cfi_offset 31, -4
 768 0614 90010014 		stw 0,20(1)
 769 0618 93C10008 		stw 30,8(1)
 770              		.loc 1 87 0
 771 061c 419D0034 		bgt- 7,.L44
 772              		.cfi_offset 30, -8
 773              		.cfi_offset 65, 4
 774              	.LVL64:
 775              	.LBB277:
 776              	.LBB278:
 777              		.loc 1 90 0
 778 0620 3BC40004 		addi 30,4,4
 779 0624 57C0103A 		slwi 0,30,2
 780 0628 7C63002E 		lwzx 3,3,0
 781              	.LVL65:
 782 062c 2F830000 		cmpwi 7,3,0
 783 0630 419E0014 		beq- 7,.L46
 784              		.loc 1 91 0
 785 0634 81230000 		lwz 9,0(3)
 786 0638 80090004 		lwz 0,4(9)
 787 063c 7C0903A6 		mtctr 0
 788 0640 4E800421 		bctrl
 789              	.LVL66:
 790              	.L46:
 791              		.loc 1 93 0
 792 0644 57DE103A 		slwi 30,30,2
 793              	.LVL67:
 794 0648 38000000 		li 0,0
 795 064c 7C1FF12E 		stwx 0,31,30
 796              	.LVL68:
 797              	.L44:
 798              	.LBE278:
 799              	.LBE277:
 800              		.loc 1 94 0
 801 0650 80010014 		lwz 0,20(1)
 802 0654 83C10008 		lwz 30,8(1)
 803 0658 7C0803A6 		mtlr 0
 804 065c 83E1000C 		lwz 31,12(1)
 805              	.LVL69:
 806 0660 38210010 		addi 1,1,16
 807              	.LCFI7:
 808              		.cfi_def_cfa_offset 0
 809              		.cfi_restore 31
 810              		.cfi_restore 30
 811 0664 4E800020 		blr
 812              		.cfi_endproc
 813              	.LFE1435:
 814              		.size	_ZN12SoundHandler13RemoveDecoderEi, .-_ZN12SoundHandler13RemoveDecoderEi
 815              		.align 2
 816              		.globl _ZN12SoundHandler16ClearDecoderListEv
 817              		.type	_ZN12SoundHandler16ClearDecoderListEv, @function
 818              	_ZN12SoundHandler16ClearDecoderListEv:
 819              	.LFB1436:
 820              		.loc 1 97 0
 821              		.cfi_startproc
 822              	.LVL70:
 823 0668 7C0802A6 		mflr 0
 824 066c 9421FFF0 		stwu 1,-16(1)
 825              	.LCFI8:
 826              		.cfi_def_cfa_offset 16
 827              		.cfi_register 65, 0
 828 0670 93E1000C 		stw 31,12(1)
 829 0674 7C7F1B78 		mr 31,3
 830              		.cfi_offset 31, -4
 831              	.LVL71:
 832 0678 90010014 		stw 0,20(1)
 833              	.LBB284:
 834              	.LBB285:
 835              	.LBB286:
 836              	.LBB287:
 837              		.loc 1 90 0
 838 067c 80630010 		lwz 3,16(3)
 839              	.LVL72:
 840 0680 2F830000 		cmpwi 7,3,0
 841 0684 419E0014 		beq- 7,.L48
 842              		.cfi_offset 65, 4
 843              		.loc 1 91 0
 844 0688 81230000 		lwz 9,0(3)
 845 068c 80090004 		lwz 0,4(9)
 846 0690 7C0903A6 		mtctr 0
 847 0694 4E800421 		bctrl
 848              	.L48:
 849              		.loc 1 90 0
 850 0698 807F0014 		lwz 3,20(31)
 851              		.loc 1 93 0
 852 069c 38000000 		li 0,0
 853 06a0 901F0010 		stw 0,16(31)
 854              	.LVL73:
 855              		.loc 1 90 0
 856 06a4 2F830000 		cmpwi 7,3,0
 857 06a8 419E0014 		beq- 7,.L49
 858              		.loc 1 91 0
 859 06ac 81230000 		lwz 9,0(3)
 860 06b0 80090004 		lwz 0,4(9)
 861 06b4 7C0903A6 		mtctr 0
 862 06b8 4E800421 		bctrl
 863              	.L49:
 864              		.loc 1 90 0
 865 06bc 807F0018 		lwz 3,24(31)
 866              		.loc 1 93 0
 867 06c0 38000000 		li 0,0
 868 06c4 901F0014 		stw 0,20(31)
 869              	.LVL74:
 870              		.loc 1 90 0
 871 06c8 2F830000 		cmpwi 7,3,0
 872 06cc 419E0014 		beq- 7,.L50
 873              		.loc 1 91 0
 874 06d0 81230000 		lwz 9,0(3)
 875 06d4 80090004 		lwz 0,4(9)
 876 06d8 7C0903A6 		mtctr 0
 877 06dc 4E800421 		bctrl
 878              	.L50:
 879              		.loc 1 90 0
 880 06e0 807F001C 		lwz 3,28(31)
 881              		.loc 1 93 0
 882 06e4 38000000 		li 0,0
 883 06e8 901F0018 		stw 0,24(31)
 884              	.LVL75:
 885              		.loc 1 90 0
 886 06ec 2F830000 		cmpwi 7,3,0
 887 06f0 419E0014 		beq- 7,.L51
 888              		.loc 1 91 0
 889 06f4 81230000 		lwz 9,0(3)
 890 06f8 80090004 		lwz 0,4(9)
 891 06fc 7C0903A6 		mtctr 0
 892 0700 4E800421 		bctrl
 893              	.L51:
 894              		.loc 1 90 0
 895 0704 807F0020 		lwz 3,32(31)
 896              		.loc 1 93 0
 897 0708 38000000 		li 0,0
 898 070c 901F001C 		stw 0,28(31)
 899              	.LVL76:
 900              		.loc 1 90 0
 901 0710 2F830000 		cmpwi 7,3,0
 902 0714 419E0014 		beq- 7,.L52
 903              		.loc 1 91 0
 904 0718 81230000 		lwz 9,0(3)
 905 071c 80090004 		lwz 0,4(9)
 906 0720 7C0903A6 		mtctr 0
 907 0724 4E800421 		bctrl
 908              	.L52:
 909              		.loc 1 90 0
 910 0728 807F0024 		lwz 3,36(31)
 911              		.loc 1 93 0
 912 072c 38000000 		li 0,0
 913 0730 901F0020 		stw 0,32(31)
 914              	.LVL77:
 915              		.loc 1 90 0
 916 0734 2F830000 		cmpwi 7,3,0
 917 0738 419E0014 		beq- 7,.L53
 918              		.loc 1 91 0
 919 073c 81230000 		lwz 9,0(3)
 920 0740 80090004 		lwz 0,4(9)
 921 0744 7C0903A6 		mtctr 0
 922 0748 4E800421 		bctrl
 923              	.L53:
 924              		.loc 1 90 0
 925 074c 807F0028 		lwz 3,40(31)
 926              		.loc 1 93 0
 927 0750 38000000 		li 0,0
 928 0754 901F0024 		stw 0,36(31)
 929              	.LVL78:
 930              		.loc 1 90 0
 931 0758 2F830000 		cmpwi 7,3,0
 932 075c 419E0014 		beq- 7,.L54
 933              		.loc 1 91 0
 934 0760 81230000 		lwz 9,0(3)
 935 0764 80090004 		lwz 0,4(9)
 936 0768 7C0903A6 		mtctr 0
 937 076c 4E800421 		bctrl
 938              	.L54:
 939              		.loc 1 90 0
 940 0770 807F002C 		lwz 3,44(31)
 941              		.loc 1 93 0
 942 0774 38000000 		li 0,0
 943 0778 901F0028 		stw 0,40(31)
 944              	.LVL79:
 945              		.loc 1 90 0
 946 077c 2F830000 		cmpwi 7,3,0
 947 0780 419E0014 		beq- 7,.L55
 948              		.loc 1 91 0
 949 0784 81230000 		lwz 9,0(3)
 950 0788 80090004 		lwz 0,4(9)
 951 078c 7C0903A6 		mtctr 0
 952 0790 4E800421 		bctrl
 953              	.L55:
 954              		.loc 1 90 0
 955 0794 807F0030 		lwz 3,48(31)
 956              		.loc 1 93 0
 957 0798 38000000 		li 0,0
 958 079c 901F002C 		stw 0,44(31)
 959              	.LVL80:
 960              		.loc 1 90 0
 961 07a0 2F830000 		cmpwi 7,3,0
 962 07a4 419E0014 		beq- 7,.L56
 963              		.loc 1 91 0
 964 07a8 81230000 		lwz 9,0(3)
 965 07ac 80090004 		lwz 0,4(9)
 966 07b0 7C0903A6 		mtctr 0
 967 07b4 4E800421 		bctrl
 968              	.L56:
 969              		.loc 1 90 0
 970 07b8 807F0034 		lwz 3,52(31)
 971              		.loc 1 93 0
 972 07bc 38000000 		li 0,0
 973 07c0 901F0030 		stw 0,48(31)
 974              	.LVL81:
 975              		.loc 1 90 0
 976 07c4 2F830000 		cmpwi 7,3,0
 977 07c8 419E0014 		beq- 7,.L57
 978              		.loc 1 91 0
 979 07cc 81230000 		lwz 9,0(3)
 980 07d0 80090004 		lwz 0,4(9)
 981 07d4 7C0903A6 		mtctr 0
 982 07d8 4E800421 		bctrl
 983              	.L57:
 984              		.loc 1 90 0
 985 07dc 807F0038 		lwz 3,56(31)
 986              		.loc 1 93 0
 987 07e0 38000000 		li 0,0
 988 07e4 901F0034 		stw 0,52(31)
 989              	.LVL82:
 990              		.loc 1 90 0
 991 07e8 2F830000 		cmpwi 7,3,0
 992 07ec 419E0014 		beq- 7,.L58
 993              		.loc 1 91 0
 994 07f0 81230000 		lwz 9,0(3)
 995 07f4 80090004 		lwz 0,4(9)
 996 07f8 7C0903A6 		mtctr 0
 997 07fc 4E800421 		bctrl
 998              	.L58:
 999              		.loc 1 90 0
 1000 0800 807F003C 		lwz 3,60(31)
 1001              		.loc 1 93 0
 1002 0804 38000000 		li 0,0
 1003 0808 901F0038 		stw 0,56(31)
 1004              	.LVL83:
 1005              		.loc 1 90 0
 1006 080c 2F830000 		cmpwi 7,3,0
 1007 0810 419E0014 		beq- 7,.L59
 1008              		.loc 1 91 0
 1009 0814 81230000 		lwz 9,0(3)
 1010 0818 80090004 		lwz 0,4(9)
 1011 081c 7C0903A6 		mtctr 0
 1012 0820 4E800421 		bctrl
 1013              	.L59:
 1014              		.loc 1 90 0
 1015 0824 807F0040 		lwz 3,64(31)
 1016              		.loc 1 93 0
 1017 0828 38000000 		li 0,0
 1018 082c 901F003C 		stw 0,60(31)
 1019              	.LVL84:
 1020              		.loc 1 90 0
 1021 0830 2F830000 		cmpwi 7,3,0
 1022 0834 419E0014 		beq- 7,.L60
 1023              		.loc 1 91 0
 1024 0838 81230000 		lwz 9,0(3)
 1025 083c 80090004 		lwz 0,4(9)
 1026 0840 7C0903A6 		mtctr 0
 1027 0844 4E800421 		bctrl
 1028              	.L60:
 1029              		.loc 1 90 0
 1030 0848 807F0044 		lwz 3,68(31)
 1031              		.loc 1 93 0
 1032 084c 38000000 		li 0,0
 1033 0850 901F0040 		stw 0,64(31)
 1034              	.LVL85:
 1035              		.loc 1 90 0
 1036 0854 2F830000 		cmpwi 7,3,0
 1037 0858 419E0014 		beq- 7,.L61
 1038              		.loc 1 91 0
 1039 085c 81230000 		lwz 9,0(3)
 1040 0860 80090004 		lwz 0,4(9)
 1041 0864 7C0903A6 		mtctr 0
 1042 0868 4E800421 		bctrl
 1043              	.L61:
 1044              		.loc 1 90 0
 1045 086c 807F0048 		lwz 3,72(31)
 1046              		.loc 1 93 0
 1047 0870 38000000 		li 0,0
 1048 0874 901F0044 		stw 0,68(31)
 1049              	.LVL86:
 1050              		.loc 1 90 0
 1051 0878 2F830000 		cmpwi 7,3,0
 1052 087c 419E0014 		beq- 7,.L62
 1053              		.loc 1 91 0
 1054 0880 81230000 		lwz 9,0(3)
 1055 0884 80090004 		lwz 0,4(9)
 1056 0888 7C0903A6 		mtctr 0
 1057 088c 4E800421 		bctrl
 1058              	.L62:
 1059              		.loc 1 90 0
 1060 0890 807F004C 		lwz 3,76(31)
 1061              		.loc 1 93 0
 1062 0894 38000000 		li 0,0
 1063 0898 901F0048 		stw 0,72(31)
 1064              	.LVL87:
 1065              		.loc 1 90 0
 1066 089c 2F830000 		cmpwi 7,3,0
 1067 08a0 419E0014 		beq- 7,.L63
 1068              		.loc 1 91 0
 1069 08a4 81230000 		lwz 9,0(3)
 1070 08a8 80090004 		lwz 0,4(9)
 1071 08ac 7C0903A6 		mtctr 0
 1072 08b0 4E800421 		bctrl
 1073              	.L63:
 1074              		.loc 1 93 0
 1075 08b4 38000000 		li 0,0
 1076 08b8 901F004C 		stw 0,76(31)
 1077              	.LVL88:
 1078              	.LBE287:
 1079              	.LBE286:
 1080              	.LBE285:
 1081              	.LBE284:
 1082              		.loc 1 100 0
 1083 08bc 80010014 		lwz 0,20(1)
 1084 08c0 83E1000C 		lwz 31,12(1)
 1085              	.LVL89:
 1086 08c4 7C0803A6 		mtlr 0
 1087 08c8 38210010 		addi 1,1,16
 1088              	.LCFI9:
 1089              		.cfi_def_cfa_offset 0
 1090              		.cfi_restore 31
 1091 08cc 4E800020 		blr
 1092              		.cfi_endproc
 1093              	.LFE1436:
 1094              		.size	_ZN12SoundHandler16ClearDecoderListEv, .-_ZN12SoundHandler16ClearDecoderListEv
 1095              		.align 2
 1096              		.globl _ZN12SoundHandler15GetSoundDecoderEPKc
 1097              		.type	_ZN12SoundHandler15GetSoundDecoderEPKc, @function
 1098              	_ZN12SoundHandler15GetSoundDecoderEPKc:
 1099              	.LFB1438:
 1100              		.loc 1 137 0
 1101              		.cfi_startproc
 1102              		.cfi_personality 0,__gxx_personality_v0
 1103              		.cfi_lsda 0,.LLSDA1438
 1104              	.LVL90:
 1105 08d0 9421FFA0 		stwu 1,-96(1)
 1106              	.LCFI10:
 1107              		.cfi_def_cfa_offset 96
 1108 08d4 7C0802A6 		mflr 0
 1109              	.LBB299:
 1110              		.loc 1 139 0
 1111 08d8 3CA00000 		lis 5,.LC0@ha
 1112 08dc 38610010 		addi 3,1,16
 1113              	.LVL91:
 1114 08e0 38A50000 		la 5,.LC0@l(5)
 1115              	.LBE299:
 1116              		.loc 1 137 0
 1117 08e4 90010064 		stw 0,100(1)
 1118 08e8 93C10058 		stw 30,88(1)
 1119 08ec 7C9E2378 		mr 30,4
 1120              		.cfi_offset 30, -8
 1121              		.cfi_offset 65, 4
 1122 08f0 93E1005C 		stw 31,92(1)
 1123              	.LEHB0:
 1124              	.LBB310:
 1125              		.loc 1 139 0
 1126              		.cfi_offset 31, -4
 1127 08f4 48000001 		bl _ZN5CFileC1EPKcS1_
 1128              	.LEHE0:
 1129              	.LVL92:
 1130              		.loc 1 140 0
 1131 08f8 8001001C 		lwz 0,28(1)
 1132 08fc 2F800000 		cmpwi 7,0,0
 1133 0900 419E01FC 		beq- 7,.L99
 1134              	.L67:
 1135              		.loc 1 145 0
 1136 0904 38610010 		addi 3,1,16
 1137 0908 38810008 		addi 4,1,8
 1138 090c 38A00001 		li 5,1
 1139              	.LEHB1:
 1140 0910 48000001 		bl _ZN5CFile4readEPhj
 1141              		.loc 1 143 0
 1142 0914 88010008 		lbz 0,8(1)
 1143              		.loc 1 147 0
 1144 0918 80810020 		lwz 4,32(1)
 1145              		.loc 1 143 0
 1146 091c 2F800000 		cmpwi 7,0,0
 1147              	.LBB300:
 1148              	.LBB301:
 1149              		.file 3 "d:/Projects/SaveGameManager/savegame-manager-gx/trunk/source/SoundOperations/../FileOpera
 1150              		.loc 3 21 0
 1151 0920 8001001C 		lwz 0,28(1)
 1152              	.LBE301:
 1153              	.LBE300:
 1154              		.loc 1 143 0
 1155 0924 409E01D0 		bne- 7,.L66
 1156              		.loc 1 143 0 is_stmt 0 discriminator 1
 1157 0928 7F840000 		cmpw 7,4,0
 1158 092c 41BCFFD8 		blt- 7,.L67
 1159              		.loc 1 149 0 is_stmt 1
 1160 0930 419E01CC 		beq- 7,.L99
 1161              	.L108:
 1162              		.loc 1 152 0
 1163 0934 38610010 		addi 3,1,16
 1164 0938 3884FFFF 		addi 4,4,-1
 1165 093c 38A00000 		li 5,0
 1166 0940 48000001 		bl _ZN5CFile4seekEli
 1167              		.loc 1 153 0
 1168 0944 38610010 		addi 3,1,16
 1169 0948 38810008 		addi 4,1,8
 1170 094c 38A00004 		li 5,4
 1171 0950 48000001 		bl _ZN5CFile4readEPhj
 1172              		.loc 1 154 0
 1173 0954 38610010 		addi 3,1,16
 1174 0958 48000001 		bl _ZN5CFile5closeEv
 1175              	.LVL93:
 1176              		.loc 1 156 0
 1177 095c 80010008 		lwz 0,8(1)
 1178 0960 6C094F67 		xoris 9,0,0x4f67
 1179 0964 2F896753 		cmpwi 7,9,26451
 1180 0968 419E0318 		beq 7,.L110
 1181              		.loc 1 160 0
 1182 096c 6C095249 		xoris 9,0,0x5249
 1183 0970 2F894646 		cmpwi 7,9,17990
 1184 0974 419E0344 		beq 7,.L111
 1185              		.loc 1 164 0
 1186 0978 6C09424E 		xoris 9,0,0x424e
 1187 097c 2F895320 		cmpwi 7,9,21280
 1188 0980 419E0370 		beq 7,.L112
 1189              		.loc 1 168 0
 1190 0984 6C09464F 		xoris 9,0,0x464f
 1191 0988 2F89524D 		cmpwi 7,9,21069
 1192 098c 419E0198 		beq 7,.L113
 1193              	.LVL94:
 1194              	.LBB302:
 1195              	.LBB303:
 1196              		.loc 1 119 0
 1197 0990 3960FFFE 		li 11,-2
 1198              		.loc 1 121 0
 1199 0994 89210008 		lbz 9,8(1)
 1200              		.loc 1 119 0
 1201 0998 9961002C 		stb 11,44(1)
 1202 099c 3960FFFA 		li 11,-6
 1203 09a0 99610032 		stb 11,50(1)
 1204 09a4 3960FFFB 		li 11,-5
 1205 09a8 99610035 		stb 11,53(1)
 1206 09ac 3960FFF2 		li 11,-14
 1207 09b0 99610038 		stb 11,56(1)
 1208 09b4 3960FFF3 		li 11,-13
 1209 09b8 9961003B 		stb 11,59(1)
 1210 09bc 3960FFF4 		li 11,-12
 1211 09c0 9961003E 		stb 11,62(1)
 1212              		.loc 1 121 0
 1213 09c4 2F890049 		cmpwi 7,9,73
 1214              		.loc 1 119 0
 1215 09c8 3960FFF5 		li 11,-11
 1216 09cc 3800FFFF 		li 0,-1
 1217 09d0 99610041 		stb 11,65(1)
 1218 09d4 3960FFF6 		li 11,-10
 1219 09d8 99610044 		stb 11,68(1)
 1220 09dc 3960FFF7 		li 11,-9
 1221 09e0 99610047 		stb 11,71(1)
 1222 09e4 3960FFE2 		li 11,-30
 1223 09e8 9801002B 		stb 0,43(1)
 1224 09ec 9801002E 		stb 0,46(1)
 1225 09f0 9801002F 		stb 0,47(1)
 1226 09f4 98010031 		stb 0,49(1)
 1227 09f8 98010034 		stb 0,52(1)
 1228 09fc 98010037 		stb 0,55(1)
 1229 0a00 9801003A 		stb 0,58(1)
 1230 0a04 9801003D 		stb 0,61(1)
 1231 0a08 98010040 		stb 0,64(1)
 1232 0a0c 98010043 		stb 0,67(1)
 1233 0a10 98010046 		stb 0,70(1)
 1234 0a14 98010049 		stb 0,73(1)
 1235 0a18 9801004C 		stb 0,76(1)
 1236 0a1c 9961004A 		stb 11,74(1)
 1237              		.loc 1 121 0
 1238 0a20 88010009 		lbz 0,9(1)
 1239 0a24 419E0118 		beq- 7,.L73
 1240              	.L88:
 1241              	.LBB304:
 1242              		.loc 1 129 0
 1243 0a28 8961002B 		lbz 11,43(1)
 1244 0a2c 5400063E 		rlwinm 0,0,0,0xff
 1245 0a30 7F8B4800 		cmpw 7,11,9
 1246 0a34 419E0138 		beq- 7,.L114
 1247              	.LVL95:
 1248 0a38 8961002E 		lbz 11,46(1)
 1249 0a3c 7F8B4800 		cmpw 7,11,9
 1250 0a40 419E0144 		beq- 7,.L115
 1251              	.L76:
 1252              	.LVL96:
 1253 0a44 89610031 		lbz 11,49(1)
 1254 0a48 7F8B4800 		cmpw 7,11,9
 1255 0a4c 419E0150 		beq- 7,.L116
 1256              	.L77:
 1257              	.LVL97:
 1258 0a50 89610034 		lbz 11,52(1)
 1259 0a54 7F8B4800 		cmpw 7,11,9
 1260 0a58 419E015C 		beq- 7,.L117
 1261              	.L78:
 1262              	.LVL98:
 1263 0a5c 89610037 		lbz 11,55(1)
 1264 0a60 7F8B4800 		cmpw 7,11,9
 1265 0a64 419E0168 		beq- 7,.L118
 1266              	.L79:
 1267              	.LVL99:
 1268 0a68 8961003A 		lbz 11,58(1)
 1269 0a6c 7F8B4800 		cmpw 7,11,9
 1270 0a70 419E0174 		beq- 7,.L119
 1271              	.L80:
 1272              	.LVL100:
 1273 0a74 8961003D 		lbz 11,61(1)
 1274 0a78 7F8B4800 		cmpw 7,11,9
 1275 0a7c 419E0180 		beq- 7,.L120
 1276              	.L81:
 1277              	.LVL101:
 1278 0a80 89610040 		lbz 11,64(1)
 1279 0a84 7F8B4800 		cmpw 7,11,9
 1280 0a88 419E018C 		beq- 7,.L121
 1281              	.L82:
 1282              	.LVL102:
 1283 0a8c 89610043 		lbz 11,67(1)
 1284 0a90 7F8B4800 		cmpw 7,11,9
 1285 0a94 419E0198 		beq- 7,.L122
 1286              	.L83:
 1287              	.LVL103:
 1288 0a98 89610046 		lbz 11,70(1)
 1289 0a9c 7F8B4800 		cmpw 7,11,9
 1290 0aa0 419E01A4 		beq- 7,.L123
 1291              	.L84:
 1292              	.LVL104:
 1293 0aa4 89610049 		lbz 11,73(1)
 1294 0aa8 7F8B4800 		cmpw 7,11,9
 1295 0aac 419E01B0 		beq- 7,.L124
 1296              	.L85:
 1297              	.LVL105:
 1298 0ab0 8961004C 		lbz 11,76(1)
 1299 0ab4 7F8B4800 		cmpw 7,11,9
 1300 0ab8 419E01BC 		beq- 7,.L125
 1301              	.L87:
 1302              	.LVL106:
 1303              	.LBE304:
 1304              	.LBE303:
 1305              	.LBE302:
 1306              		.loc 1 177 0
 1307 0abc 3860004C 		li 3,76
 1308 0ac0 48000001 		bl _Znwj
 1309              	.LEHE1:
 1310 0ac4 7FC4F378 		mr 4,30
 1311 0ac8 7C7F1B78 		mr 31,3
 1312              	.LEHB2:
 1313 0acc 48000001 		bl _ZN12SoundDecoderC1EPKc
 1314              	.LEHE2:
 1315 0ad0 38610010 		addi 3,1,16
 1316              	.LEHB3:
 1317 0ad4 48000001 		bl _ZN5CFileD1Ev
 1318              	.LBE310:
 1319              		.loc 1 178 0
 1320 0ad8 80010064 		lwz 0,100(1)
 1321 0adc 7FE3FB78 		mr 3,31
 1322 0ae0 83C10058 		lwz 30,88(1)
 1323              	.LVL107:
 1324 0ae4 7C0803A6 		mtlr 0
 1325 0ae8 83E1005C 		lwz 31,92(1)
 1326 0aec 38210060 		addi 1,1,96
 1327              		.cfi_remember_state
 1328              		.cfi_restore 30
 1329              		.cfi_restore 31
 1330              	.LCFI11:
 1331              		.cfi_def_cfa_offset 0
 1332 0af0 4E800020 		blr
 1333              	.LVL108:
 1334              	.L66:
 1335              	.LCFI12:
 1336              		.cfi_restore_state
 1337 0af4 7F840000 		cmpw 7,4,0
 1338              	.LBB311:
 1339              		.loc 1 149 0
 1340 0af8 409EFE3C 		bne+ 7,.L108
 1341              	.L99:
 1342              		.loc 1 150 0
 1343 0afc 3BE00000 		li 31,0
 1344              	.LVL109:
 1345              	.L65:
 1346              		.loc 1 177 0
 1347 0b00 38610010 		addi 3,1,16
 1348 0b04 48000001 		bl _ZN5CFileD1Ev
 1349              	.LEHE3:
 1350              	.LBE311:
 1351              		.loc 1 178 0
 1352 0b08 80010064 		lwz 0,100(1)
 1353 0b0c 7FE3FB78 		mr 3,31
 1354 0b10 83C10058 		lwz 30,88(1)
 1355              	.LVL110:
 1356 0b14 7C0803A6 		mtlr 0
 1357 0b18 83E1005C 		lwz 31,92(1)
 1358 0b1c 38210060 		addi 1,1,96
 1359              		.cfi_remember_state
 1360              	.LCFI13:
 1361              		.cfi_def_cfa_offset 0
 1362              		.cfi_restore 31
 1363              		.cfi_restore 30
 1364 0b20 4E800020 		blr
 1365              	.LVL111:
 1366              	.L113:
 1367              	.LCFI14:
 1368              		.cfi_restore_state
 1369              	.LBB312:
 1370              		.loc 1 170 0
 1371 0b24 3860005C 		li 3,92
 1372              	.LEHB4:
 1373 0b28 48000001 		bl _Znwj
 1374              	.LEHE4:
 1375 0b2c 7FC4F378 		mr 4,30
 1376 0b30 7C7F1B78 		mr 31,3
 1377              	.LEHB5:
 1378 0b34 48000001 		bl _ZN10AifDecoderC1EPKc
 1379              	.LEHE5:
 1380 0b38 4BFFFFC8 		b .L65
 1381              	.LVL112:
 1382              	.L73:
 1383              	.LBB308:
 1384              	.LBB306:
 1385              		.loc 1 121 0
 1386 0b3c 540B063E 		rlwinm 11,0,0,0xff
 1387 0b40 2F8B0044 		cmpwi 7,11,68
 1388 0b44 409EFEE4 		bne+ 7,.L88
 1389 0b48 8961000A 		lbz 11,10(1)
 1390 0b4c 2F8B0033 		cmpwi 7,11,51
 1391 0b50 409EFED8 		bne+ 7,.L88
 1392              	.L75:
 1393              	.LBE306:
 1394              	.LBE308:
 1395              		.loc 1 174 0
 1396 0b54 386058E8 		li 3,22760
 1397              	.LEHB6:
 1398 0b58 48000001 		bl _Znwj
 1399              	.LEHE6:
 1400 0b5c 7FC4F378 		mr 4,30
 1401 0b60 7C7F1B78 		mr 31,3
 1402              	.LEHB7:
 1403 0b64 48000001 		bl _ZN10Mp3DecoderC1EPKc
 1404              	.LEHE7:
 1405 0b68 4BFFFF98 		b .L65
 1406              	.L114:
 1407              	.LBB309:
 1408              	.LBB307:
 1409              	.LBB305:
 1410              		.loc 1 129 0
 1411 0b6c 8961002C 		lbz 11,44(1)
 1412 0b70 7F8B0000 		cmpw 7,11,0
 1413 0b74 41BEFFE0 		beq- 7,.L75
 1414              	.LVL113:
 1415 0b78 8961002E 		lbz 11,46(1)
 1416 0b7c 7F8B4800 		cmpw 7,11,9
 1417 0b80 409EFEC4 		bne+ 7,.L76
 1418              	.L115:
 1419 0b84 8961002F 		lbz 11,47(1)
 1420 0b88 7F8B0000 		cmpw 7,11,0
 1421 0b8c 41BEFFC8 		beq- 7,.L75
 1422              	.LVL114:
 1423 0b90 89610031 		lbz 11,49(1)
 1424 0b94 7F8B4800 		cmpw 7,11,9
 1425 0b98 409EFEB8 		bne+ 7,.L77
 1426              	.L116:
 1427 0b9c 89610032 		lbz 11,50(1)
 1428 0ba0 7F8B0000 		cmpw 7,11,0
 1429 0ba4 41BEFFB0 		beq- 7,.L75
 1430              	.LVL115:
 1431 0ba8 89610034 		lbz 11,52(1)
 1432 0bac 7F8B4800 		cmpw 7,11,9
 1433 0bb0 409EFEAC 		bne+ 7,.L78
 1434              	.L117:
 1435 0bb4 89610035 		lbz 11,53(1)
 1436 0bb8 7F8B0000 		cmpw 7,11,0
 1437 0bbc 41BEFF98 		beq- 7,.L75
 1438              	.LVL116:
 1439 0bc0 89610037 		lbz 11,55(1)
 1440 0bc4 7F8B4800 		cmpw 7,11,9
 1441 0bc8 409EFEA0 		bne+ 7,.L79
 1442              	.L118:
 1443 0bcc 89610038 		lbz 11,56(1)
 1444 0bd0 7F8B0000 		cmpw 7,11,0
 1445 0bd4 41BEFF80 		beq- 7,.L75
 1446              	.LVL117:
 1447 0bd8 8961003A 		lbz 11,58(1)
 1448 0bdc 7F8B4800 		cmpw 7,11,9
 1449 0be0 409EFE94 		bne+ 7,.L80
 1450              	.L119:
 1451 0be4 8961003B 		lbz 11,59(1)
 1452 0be8 7F8B0000 		cmpw 7,11,0
 1453 0bec 41BEFF68 		beq- 7,.L75
 1454              	.LVL118:
 1455 0bf0 8961003D 		lbz 11,61(1)
 1456 0bf4 7F8B4800 		cmpw 7,11,9
 1457 0bf8 409EFE88 		bne+ 7,.L81
 1458              	.L120:
 1459 0bfc 8961003E 		lbz 11,62(1)
 1460 0c00 7F8B0000 		cmpw 7,11,0
 1461 0c04 41BEFF50 		beq- 7,.L75
 1462              	.LVL119:
 1463 0c08 89610040 		lbz 11,64(1)
 1464 0c0c 7F8B4800 		cmpw 7,11,9
 1465 0c10 409EFE7C 		bne+ 7,.L82
 1466              	.L121:
 1467 0c14 89610041 		lbz 11,65(1)
 1468 0c18 7F8B0000 		cmpw 7,11,0
 1469 0c1c 41BEFF38 		beq- 7,.L75
 1470              	.LVL120:
 1471 0c20 89610043 		lbz 11,67(1)
 1472 0c24 7F8B4800 		cmpw 7,11,9
 1473 0c28 409EFE70 		bne+ 7,.L83
 1474              	.L122:
 1475 0c2c 89610044 		lbz 11,68(1)
 1476 0c30 7F8B0000 		cmpw 7,11,0
 1477 0c34 41BEFF20 		beq- 7,.L75
 1478              	.LVL121:
 1479 0c38 89610046 		lbz 11,70(1)
 1480 0c3c 7F8B4800 		cmpw 7,11,9
 1481 0c40 409EFE64 		bne+ 7,.L84
 1482              	.L123:
 1483 0c44 89610047 		lbz 11,71(1)
 1484 0c48 7F8B0000 		cmpw 7,11,0
 1485 0c4c 41BEFF08 		beq- 7,.L75
 1486              	.LVL122:
 1487 0c50 89610049 		lbz 11,73(1)
 1488 0c54 7F8B4800 		cmpw 7,11,9
 1489 0c58 409EFE58 		bne+ 7,.L85
 1490              	.L124:
 1491 0c5c 8961004A 		lbz 11,74(1)
 1492 0c60 7F8B0000 		cmpw 7,11,0
 1493 0c64 41BEFEF0 		beq- 7,.L75
 1494              	.LVL123:
 1495 0c68 8961004C 		lbz 11,76(1)
 1496 0c6c 7F8B4800 		cmpw 7,11,9
 1497 0c70 409EFE4C 		bne+ 7,.L87
 1498              	.L125:
 1499 0c74 2F8000E3 		cmpwi 7,0,227
 1500 0c78 409EFE44 		bne+ 7,.L87
 1501 0c7c 4BFFFED8 		b .L75
 1502              	.LVL124:
 1503              	.L110:
 1504              	.LBE305:
 1505              	.LBE307:
 1506              	.LBE309:
 1507              		.loc 1 158 0
 1508 0c80 386000F8 		li 3,248
 1509              	.LEHB8:
 1510 0c84 48000001 		bl _Znwj
 1511              	.LEHE8:
 1512 0c88 7FC4F378 		mr 4,30
 1513 0c8c 7C7F1B78 		mr 31,3
 1514              	.LEHB9:
 1515 0c90 48000001 		bl _ZN10OggDecoderC1EPKc
 1516              	.LEHE9:
 1517              		.loc 1 177 0
 1518 0c94 38610010 		addi 3,1,16
 1519              	.LEHB10:
 1520 0c98 48000001 		bl _ZN5CFileD1Ev
 1521              	.LEHE10:
 1522              	.LBE312:
 1523              		.loc 1 178 0
 1524 0c9c 80010064 		lwz 0,100(1)
 1525 0ca0 7FE3FB78 		mr 3,31
 1526 0ca4 83C10058 		lwz 30,88(1)
 1527              	.LVL125:
 1528 0ca8 7C0803A6 		mtlr 0
 1529 0cac 83E1005C 		lwz 31,92(1)
 1530 0cb0 38210060 		addi 1,1,96
 1531              		.cfi_remember_state
 1532              		.cfi_restore 30
 1533              		.cfi_restore 31
 1534              	.LCFI15:
 1535              		.cfi_def_cfa_offset 0
 1536 0cb4 4E800020 		blr
 1537              	.LVL126:
 1538              	.L111:
 1539              	.LCFI16:
 1540              		.cfi_restore_state
 1541              	.LBB313:
 1542              		.loc 1 162 0
 1543 0cb8 3860005C 		li 3,92
 1544              	.LEHB11:
 1545 0cbc 48000001 		bl _Znwj
 1546              	.LEHE11:
 1547 0cc0 7FC4F378 		mr 4,30
 1548 0cc4 7C7F1B78 		mr 31,3
 1549              	.LEHB12:
 1550 0cc8 48000001 		bl _ZN10WavDecoderC1EPKc
 1551              	.LEHE12:
 1552              		.loc 1 177 0
 1553 0ccc 38610010 		addi 3,1,16
 1554              	.LEHB13:
 1555 0cd0 48000001 		bl _ZN5CFileD1Ev
 1556              	.LEHE13:
 1557              	.LBE313:
 1558              		.loc 1 178 0
 1559 0cd4 80010064 		lwz 0,100(1)
 1560 0cd8 7FE3FB78 		mr 3,31
 1561 0cdc 83C10058 		lwz 30,88(1)
 1562              	.LVL127:
 1563 0ce0 7C0803A6 		mtlr 0
 1564 0ce4 83E1005C 		lwz 31,92(1)
 1565 0ce8 38210060 		addi 1,1,96
 1566              		.cfi_remember_state
 1567              		.cfi_restore 30
 1568              		.cfi_restore 31
 1569              	.LCFI17:
 1570              		.cfi_def_cfa_offset 0
 1571 0cec 4E800020 		blr
 1572              	.LVL128:
 1573              	.L112:
 1574              	.LCFI18:
 1575              		.cfi_restore_state
 1576              	.LBB314:
 1577              		.loc 1 166 0
 1578 0cf0 38600068 		li 3,104
 1579              	.LEHB14:
 1580 0cf4 48000001 		bl _Znwj
 1581              	.LEHE14:
 1582 0cf8 7FC4F378 		mr 4,30
 1583 0cfc 7C7F1B78 		mr 31,3
 1584              	.LEHB15:
 1585 0d00 48000001 		bl _ZN10BNSDecoderC1EPKc
 1586              	.LEHE15:
 1587 0d04 4BFFFDFC 		b .L65
 1588              	.L100:
 1589 0d08 7C7F1B78 		mr 31,3
 1590              	.LVL129:
 1591              	.L91:
 1592              		.loc 1 177 0
 1593 0d0c 38610010 		addi 3,1,16
 1594 0d10 48000001 		bl _ZN5CFileD1Ev
 1595 0d14 7FE3FB78 		mr 3,31
 1596              	.LEHB16:
 1597 0d18 48000001 		bl _Unwind_Resume
 1598              	.LEHE16:
 1599              	.LVL130:
 1600              	.L106:
 1601              	.L109:
 1602 0d1c 7C7E1B78 		mr 30,3
 1603              	.LVL131:
 1604 0d20 7FE3FB78 		mr 3,31
 1605 0d24 48000001 		bl _ZdlPv
 1606 0d28 7FDFF378 		mr 31,30
 1607 0d2c 4BFFFFE0 		b .L91
 1608              	.LVL132:
 1609              	.L105:
 1610 0d30 4BFFFFEC 		b .L109
 1611              	.LVL133:
 1612              	.L104:
 1613 0d34 4BFFFFE8 		b .L109
 1614              	.L101:
 1615 0d38 4BFFFFE4 		b .L109
 1616              	.L103:
 1617 0d3c 4BFFFFE0 		b .L109
 1618              	.L102:
 1619 0d40 4BFFFFDC 		b .L109
 1620              	.LBE314:
 1621              		.cfi_endproc
 1622              	.LFE1438:
 1623              		.globl __gxx_personality_v0
 1624              		.section	.gcc_except_table,"a",@progbits
 1625              	.LLSDA1438:
 1626 0000 FF       		.byte	0xff
 1627 0001 FF       		.byte	0xff
 1628 0002 01       		.byte	0x1
 1629 0003 60       		.uleb128 .LLSDACSE1438-.LLSDACSB1438
 1630              	.LLSDACSB1438:
 1631 0004 24       		.uleb128 .LEHB0-.LFB1438
 1632 0005 04       		.uleb128 .LEHE0-.LEHB0
 1633 0006 00       		.uleb128 0
 1634 0007 00       		.uleb128 0
 1635 0008 40       		.uleb128 .LEHB1-.LFB1438
 1636 0009 B403     		.uleb128 .LEHE1-.LEHB1
 1637 000b B808     		.uleb128 .L100-.LFB1438
 1638 000d 00       		.uleb128 0
 1639 000e FC03     		.uleb128 .LEHB2-.LFB1438
 1640 0010 04       		.uleb128 .LEHE2-.LEHB2
 1641 0011 CC08     		.uleb128 .L106-.LFB1438
 1642 0013 00       		.uleb128 0
 1643 0014 8404     		.uleb128 .LEHB3-.LFB1438
 1644 0016 34       		.uleb128 .LEHE3-.LEHB3
 1645 0017 00       		.uleb128 0
 1646 0018 00       		.uleb128 0
 1647 0019 D804     		.uleb128 .LEHB4-.LFB1438
 1648 001b 04       		.uleb128 .LEHE4-.LEHB4
 1649 001c B808     		.uleb128 .L100-.LFB1438
 1650 001e 00       		.uleb128 0
 1651 001f E404     		.uleb128 .LEHB5-.LFB1438
 1652 0021 04       		.uleb128 .LEHE5-.LEHB5
 1653 0022 E408     		.uleb128 .L104-.LFB1438
 1654 0024 00       		.uleb128 0
 1655 0025 8805     		.uleb128 .LEHB6-.LFB1438
 1656 0027 04       		.uleb128 .LEHE6-.LEHB6
 1657 0028 B808     		.uleb128 .L100-.LFB1438
 1658 002a 00       		.uleb128 0
 1659 002b 9405     		.uleb128 .LEHB7-.LFB1438
 1660 002d 04       		.uleb128 .LEHE7-.LEHB7
 1661 002e E008     		.uleb128 .L105-.LFB1438
 1662 0030 00       		.uleb128 0
 1663 0031 B407     		.uleb128 .LEHB8-.LFB1438
 1664 0033 04       		.uleb128 .LEHE8-.LEHB8
 1665 0034 B808     		.uleb128 .L100-.LFB1438
 1666 0036 00       		.uleb128 0
 1667 0037 C007     		.uleb128 .LEHB9-.LFB1438
 1668 0039 04       		.uleb128 .LEHE9-.LEHB9
 1669 003a E808     		.uleb128 .L101-.LFB1438
 1670 003c 00       		.uleb128 0
 1671 003d C807     		.uleb128 .LEHB10-.LFB1438
 1672 003f 04       		.uleb128 .LEHE10-.LEHB10
 1673 0040 00       		.uleb128 0
 1674 0041 00       		.uleb128 0
 1675 0042 EC07     		.uleb128 .LEHB11-.LFB1438
 1676 0044 04       		.uleb128 .LEHE11-.LEHB11
 1677 0045 B808     		.uleb128 .L100-.LFB1438
 1678 0047 00       		.uleb128 0
 1679 0048 F807     		.uleb128 .LEHB12-.LFB1438
 1680 004a 04       		.uleb128 .LEHE12-.LEHB12
 1681 004b F008     		.uleb128 .L102-.LFB1438
 1682 004d 00       		.uleb128 0
 1683 004e 8008     		.uleb128 .LEHB13-.LFB1438
 1684 0050 04       		.uleb128 .LEHE13-.LEHB13
 1685 0051 00       		.uleb128 0
 1686 0052 00       		.uleb128 0
 1687 0053 A408     		.uleb128 .LEHB14-.LFB1438
 1688 0055 04       		.uleb128 .LEHE14-.LEHB14
 1689 0056 B808     		.uleb128 .L100-.LFB1438
 1690 0058 00       		.uleb128 0
 1691 0059 B008     		.uleb128 .LEHB15-.LFB1438
 1692 005b 04       		.uleb128 .LEHE15-.LEHB15
 1693 005c EC08     		.uleb128 .L103-.LFB1438
 1694 005e 00       		.uleb128 0
 1695 005f C808     		.uleb128 .LEHB16-.LFB1438
 1696 0061 04       		.uleb128 .LEHE16-.LEHB16
 1697 0062 00       		.uleb128 0
 1698 0063 00       		.uleb128 0
 1699              	.LLSDACSE1438:
 1700              		.section	".text"
 1701              		.size	_ZN12SoundHandler15GetSoundDecoderEPKc, .-_ZN12SoundHandler15GetSoundDecoderEPKc
 1702              		.align 2
 1703              		.globl _ZN12SoundHandler10AddDecoderEiPKc
 1704              		.type	_ZN12SoundHandler10AddDecoderEiPKc, @function
 1705              	_ZN12SoundHandler10AddDecoderEiPKc:
 1706              	.LFB1433:
 1707              		.loc 1 64 0
 1708              		.cfi_startproc
 1709              	.LVL134:
 1710              		.loc 1 65 0
 1711 0d44 2B84000F 		cmplwi 7,4,15
 1712              		.loc 1 64 0
 1713 0d48 7C0802A6 		mflr 0
 1714 0d4c 9421FFE0 		stwu 1,-32(1)
 1715              	.LCFI19:
 1716              		.cfi_def_cfa_offset 32
 1717              		.cfi_register 65, 0
 1718 0d50 93E1001C 		stw 31,28(1)
 1719 0d54 7C7F1B78 		mr 31,3
 1720              		.cfi_offset 31, -4
 1721 0d58 90010024 		stw 0,36(1)
 1722 0d5c 93A10014 		stw 29,20(1)
 1723 0d60 93C10018 		stw 30,24(1)
 1724              		.loc 1 65 0
 1725 0d64 419D004C 		bgt- 7,.L126
 1726              		.cfi_offset 30, -8
 1727              		.cfi_offset 29, -12
 1728              		.cfi_offset 65, 4
 1729              		.loc 1 68 0
 1730 0d68 3BC40004 		addi 30,4,4
 1731 0d6c 57DD103A 		slwi 29,30,2
 1732 0d70 7C63E82E 		lwzx 3,3,29
 1733              	.LVL135:
 1734 0d74 2F830000 		cmpwi 7,3,0
 1735 0d78 419E0024 		beq- 7,.L128
 1736              	.LVL136:
 1737              	.LBB319:
 1738              	.LBB320:
 1739              	.LBB321:
 1740              		.loc 1 91 0
 1741 0d7c 81230000 		lwz 9,0(3)
 1742 0d80 80090004 		lwz 0,4(9)
 1743 0d84 90A10008 		stw 5,8(1)
 1744 0d88 7C0903A6 		mtctr 0
 1745 0d8c 4E800421 		bctrl
 1746              	.LVL137:
 1747              		.loc 1 93 0
 1748 0d90 38000000 		li 0,0
 1749 0d94 7C1FE92E 		stwx 0,31,29
 1750 0d98 80A10008 		lwz 5,8(1)
 1751              	.LVL138:
 1752              	.L128:
 1753              	.LBE321:
 1754              	.LBE320:
 1755              	.LBE319:
 1756              		.loc 1 71 0
 1757 0d9c 7FE3FB78 		mr 3,31
 1758 0da0 7CA42B78 		mr 4,5
 1759 0da4 48000001 		bl _ZN12SoundHandler15GetSoundDecoderEPKc
 1760 0da8 57DE103A 		slwi 30,30,2
 1761              	.LVL139:
 1762 0dac 7C7FF12E 		stwx 3,31,30
 1763              	.L126:
 1764              		.loc 1 72 0
 1765 0db0 80010024 		lwz 0,36(1)
 1766 0db4 83A10014 		lwz 29,20(1)
 1767 0db8 7C0803A6 		mtlr 0
 1768 0dbc 83C10018 		lwz 30,24(1)
 1769 0dc0 83E1001C 		lwz 31,28(1)
 1770              	.LVL140:
 1771 0dc4 38210020 		addi 1,1,32
 1772              	.LCFI20:
 1773              		.cfi_def_cfa_offset 0
 1774              		.cfi_restore 31
 1775              		.cfi_restore 30
 1776              		.cfi_restore 29
 1777 0dc8 4E800020 		blr
 1778              		.cfi_endproc
 1779              	.LFE1433:
 1780              		.size	_ZN12SoundHandler10AddDecoderEiPKc, .-_ZN12SoundHandler10AddDecoderEiPKc
 1781              		.align 2
 1782              		.globl _ZN12SoundHandler15GetSoundDecoderEPKhi
 1783              		.type	_ZN12SoundHandler15GetSoundDecoderEPKhi, @function
 1784              	_ZN12SoundHandler15GetSoundDecoderEPKhi:
 1785              	.LFB1439:
 1786              		.loc 1 181 0
 1787              		.cfi_startproc
 1788              		.cfi_personality 0,__gxx_personality_v0
 1789              		.cfi_lsda 0,.LLSDA1439
 1790              	.LVL141:
 1791 0dcc 7C0802A6 		mflr 0
 1792 0dd0 9421FFB8 		stwu 1,-72(1)
 1793              	.LCFI21:
 1794              		.cfi_def_cfa_offset 72
 1795              		.cfi_register 65, 0
 1796              	.LBB327:
 1797              		.loc 1 185 0
 1798 0dd4 7C892378 		mr 9,4
 1799              		.loc 1 183 0
 1800 0dd8 39600000 		li 11,0
 1801              	.LBE327:
 1802              		.loc 1 181 0
 1803 0ddc 93C10040 		stw 30,64(1)
 1804 0de0 9001004C 		stw 0,76(1)
 1805 0de4 93E10044 		stw 31,68(1)
 1806              	.LBB336:
 1807              		.loc 1 185 0
 1808 0de8 88040000 		lbz 0,0(4)
 1809              		.cfi_offset 31, -4
 1810              		.cfi_offset 65, 4
 1811              		.cfi_offset 30, -8
 1812 0dec 2F800000 		cmpwi 7,0,0
 1813 0df0 419E019C 		beq- 7,.L173
 1814              	.LVL142:
 1815              	.L130:
 1816              		.loc 1 191 0
 1817 0df4 7F855800 		cmpw 7,5,11
 1818 0df8 409D01C0 		ble- 7,.L163
 1819              	.LVL143:
 1820              		.loc 1 196 0
 1821 0dfc 81690000 		lwz 11,0(9)
 1822 0e00 6D6A4F67 		xoris 10,11,0x4f67
 1823 0e04 2F8A6753 		cmpwi 7,10,26451
 1824 0e08 419E0374 		beq 7,.L174
 1825              	.LVL144:
 1826              		.loc 1 200 0
 1827 0e0c 6D6A5249 		xoris 10,11,0x5249
 1828 0e10 2F8A4646 		cmpwi 7,10,17990
 1829 0e14 419E03A4 		beq 7,.L175
 1830              		.loc 1 204 0
 1831 0e18 6D6A424E 		xoris 10,11,0x424e
 1832 0e1c 2F8A5320 		cmpwi 7,10,21280
 1833 0e20 419E03D4 		beq 7,.L176
 1834              		.loc 1 208 0
 1835 0e24 6D6A464F 		xoris 10,11,0x464f
 1836 0e28 2F8A524D 		cmpwi 7,10,21069
 1837 0e2c 419E01AC 		beq 7,.L177
 1838              	.LVL145:
 1839              	.LBB328:
 1840              	.LBB329:
 1841              		.loc 1 119 0
 1842 0e30 3940FFFE 		li 10,-2
 1843              		.loc 1 121 0
 1844 0e34 2F800049 		cmpwi 7,0,73
 1845              		.loc 1 119 0
 1846 0e38 9941000C 		stb 10,12(1)
 1847 0e3c 3940FFFA 		li 10,-6
 1848 0e40 99410012 		stb 10,18(1)
 1849 0e44 3940FFFB 		li 10,-5
 1850 0e48 99410015 		stb 10,21(1)
 1851 0e4c 3940FFF2 		li 10,-14
 1852 0e50 99410018 		stb 10,24(1)
 1853 0e54 3940FFF3 		li 10,-13
 1854 0e58 9941001B 		stb 10,27(1)
 1855 0e5c 3940FFF4 		li 10,-12
 1856 0e60 9941001E 		stb 10,30(1)
 1857 0e64 3940FFF5 		li 10,-11
 1858 0e68 99410021 		stb 10,33(1)
 1859 0e6c 3940FFF6 		li 10,-10
 1860 0e70 99410024 		stb 10,36(1)
 1861 0e74 3940FFF7 		li 10,-9
 1862 0e78 3960FFFF 		li 11,-1
 1863 0e7c 99410027 		stb 10,39(1)
 1864 0e80 3940FFE2 		li 10,-30
 1865 0e84 9961000B 		stb 11,11(1)
 1866 0e88 9961000E 		stb 11,14(1)
 1867 0e8c 9961000F 		stb 11,15(1)
 1868 0e90 99610011 		stb 11,17(1)
 1869 0e94 99610014 		stb 11,20(1)
 1870 0e98 99610017 		stb 11,23(1)
 1871 0e9c 9961001A 		stb 11,26(1)
 1872 0ea0 9961001D 		stb 11,29(1)
 1873 0ea4 99610020 		stb 11,32(1)
 1874 0ea8 99610023 		stb 11,35(1)
 1875 0eac 99610026 		stb 11,38(1)
 1876 0eb0 99610029 		stb 11,41(1)
 1877 0eb4 9941002A 		stb 10,42(1)
 1878 0eb8 9961002C 		stb 11,44(1)
 1879              		.loc 1 121 0
 1880 0ebc 419E0140 		beq- 7,.L138
 1881              	.LVL146:
 1882              	.L153:
 1883              	.LBB330:
 1884              		.loc 1 129 0
 1885 0ec0 8961000B 		lbz 11,11(1)
 1886 0ec4 7F8B0000 		cmpw 7,11,0
 1887 0ec8 419E0170 		beq- 7,.L178
 1888              	.LVL147:
 1889 0ecc 8961000E 		lbz 11,14(1)
 1890 0ed0 7F8B0000 		cmpw 7,11,0
 1891 0ed4 419E0180 		beq- 7,.L179
 1892              	.L141:
 1893              	.LVL148:
 1894 0ed8 89610011 		lbz 11,17(1)
 1895 0edc 7F8B0000 		cmpw 7,11,0
 1896 0ee0 419E0190 		beq- 7,.L180
 1897              	.L142:
 1898              	.LVL149:
 1899 0ee4 89610014 		lbz 11,20(1)
 1900 0ee8 7F8B0000 		cmpw 7,11,0
 1901 0eec 419E01A0 		beq- 7,.L181
 1902              	.L143:
 1903              	.LVL150:
 1904 0ef0 89610017 		lbz 11,23(1)
 1905 0ef4 7F8B0000 		cmpw 7,11,0
 1906 0ef8 419E01B0 		beq- 7,.L182
 1907              	.L144:
 1908              	.LVL151:
 1909 0efc 8961001A 		lbz 11,26(1)
 1910 0f00 7F8B0000 		cmpw 7,11,0
 1911 0f04 419E01C0 		beq- 7,.L183
 1912              	.L145:
 1913              	.LVL152:
 1914 0f08 8961001D 		lbz 11,29(1)
 1915 0f0c 7F8B0000 		cmpw 7,11,0
 1916 0f10 419E01D0 		beq- 7,.L184
 1917              	.L146:
 1918              	.LVL153:
 1919 0f14 89610020 		lbz 11,32(1)
 1920 0f18 7F8B0000 		cmpw 7,11,0
 1921 0f1c 419E01E0 		beq- 7,.L185
 1922              	.L147:
 1923              	.LVL154:
 1924 0f20 89610023 		lbz 11,35(1)
 1925 0f24 7F8B0000 		cmpw 7,11,0
 1926 0f28 419E01F0 		beq- 7,.L186
 1927              	.L148:
 1928              	.LVL155:
 1929 0f2c 89610026 		lbz 11,38(1)
 1930 0f30 7F8B0000 		cmpw 7,11,0
 1931 0f34 419E0200 		beq- 7,.L187
 1932              	.L149:
 1933              	.LVL156:
 1934 0f38 89610029 		lbz 11,41(1)
 1935 0f3c 7F8B0000 		cmpw 7,11,0
 1936 0f40 419E0210 		beq- 7,.L188
 1937              	.L150:
 1938              	.LVL157:
 1939 0f44 8961002C 		lbz 11,44(1)
 1940 0f48 7F8B0000 		cmpw 7,11,0
 1941 0f4c 419E0220 		beq- 7,.L189
 1942              	.L152:
 1943              	.LVL158:
 1944              	.LBE330:
 1945              	.LBE329:
 1946              	.LBE328:
 1947              		.loc 1 217 0
 1948 0f50 3860004C 		li 3,76
 1949              	.LVL159:
 1950 0f54 90810038 		stw 4,56(1)
 1951 0f58 90A1003C 		stw 5,60(1)
 1952              	.LEHB17:
 1953 0f5c 48000001 		bl _Znwj
 1954              	.LEHE17:
 1955              	.LVL160:
 1956 0f60 80810038 		lwz 4,56(1)
 1957 0f64 7C7F1B78 		mr 31,3
 1958 0f68 80A1003C 		lwz 5,60(1)
 1959              	.LEHB18:
 1960 0f6c 48000001 		bl _ZN12SoundDecoderC1EPKhi
 1961              	.LEHE18:
 1962              	.LBE336:
 1963              		.loc 1 218 0
 1964 0f70 8001004C 		lwz 0,76(1)
 1965 0f74 7FE3FB78 		mr 3,31
 1966 0f78 83C10040 		lwz 30,64(1)
 1967 0f7c 7C0803A6 		mtlr 0
 1968 0f80 83E10044 		lwz 31,68(1)
 1969 0f84 38210048 		addi 1,1,72
 1970              		.cfi_remember_state
 1971              		.cfi_restore 30
 1972              		.cfi_restore 31
 1973              	.LCFI22:
 1974              		.cfi_def_cfa_offset 0
 1975 0f88 4E800020 		blr
 1976              	.LVL161:
 1977              	.L173:
 1978              	.LCFI23:
 1979              		.cfi_restore_state
 1980              	.LBB337:
 1981              		.loc 1 185 0
 1982 0f8c 2F850000 		cmpwi 7,5,0
 1983 0f90 7C8A2378 		mr 10,4
 1984              	.LBE337:
 1985              		.loc 1 183 0
 1986 0f94 7CA903A6 		mtctr 5
 1987              	.LBB338:
 1988              		.loc 1 192 0
 1989 0f98 3BE00000 		li 31,0
 1990              		.loc 1 185 0
 1991 0f9c 409D0020 		ble- 7,.L131
 1992              	.LVL162:
 1993              	.L132:
 1994              		.loc 1 185 0 is_stmt 0 discriminator 5
 1995 0fa0 8C0A0001 		lbzu 0,1(10)
 1996              		.loc 1 187 0 is_stmt 1 discriminator 5
 1997 0fa4 39290001 		addi 9,9,1
 1998              	.LVL163:
 1999              		.loc 1 188 0 discriminator 5
 2000 0fa8 396B0001 		addi 11,11,1
 2001              	.LVL164:
 2002              		.loc 1 185 0 discriminator 5
 2003 0fac 2F800000 		cmpwi 7,0,0
 2004 0fb0 40BEFE44 		bne- 7,.L130
 2005              		.loc 1 185 0 is_stmt 0 discriminator 2
 2006 0fb4 4200FFEC 		bdnz .L132
 2007              	.LVL165:
 2008              	.L163:
 2009              		.loc 1 192 0 is_stmt 1
 2010 0fb8 3BE00000 		li 31,0
 2011              	.LVL166:
 2012              	.L131:
 2013              	.LBE338:
 2014              		.loc 1 218 0
 2015 0fbc 8001004C 		lwz 0,76(1)
 2016 0fc0 7FE3FB78 		mr 3,31
 2017 0fc4 83C10040 		lwz 30,64(1)
 2018 0fc8 7C0803A6 		mtlr 0
 2019 0fcc 83E10044 		lwz 31,68(1)
 2020 0fd0 38210048 		addi 1,1,72
 2021              		.cfi_remember_state
 2022              	.LCFI24:
 2023              		.cfi_def_cfa_offset 0
 2024              		.cfi_restore 31
 2025              		.cfi_restore 30
 2026 0fd4 4E800020 		blr
 2027              	.LVL167:
 2028              	.L177:
 2029              	.LCFI25:
 2030              		.cfi_restore_state
 2031              	.LBB339:
 2032              		.loc 1 210 0
 2033 0fd8 3860005C 		li 3,92
 2034              	.LVL168:
 2035 0fdc 90810038 		stw 4,56(1)
 2036 0fe0 90A1003C 		stw 5,60(1)
 2037              	.LEHB19:
 2038 0fe4 48000001 		bl _Znwj
 2039              	.LEHE19:
 2040              	.LVL169:
 2041 0fe8 80810038 		lwz 4,56(1)
 2042 0fec 7C7F1B78 		mr 31,3
 2043 0ff0 80A1003C 		lwz 5,60(1)
 2044              	.LEHB20:
 2045 0ff4 48000001 		bl _ZN10AifDecoderC1EPKhi
 2046              	.LEHE20:
 2047 0ff8 4BFFFFC4 		b .L131
 2048              	.LVL170:
 2049              	.L138:
 2050              	.LBB334:
 2051              	.LBB332:
 2052              		.loc 1 121 0
 2053 0ffc 89690001 		lbz 11,1(9)
 2054 1000 2F8B0044 		cmpwi 7,11,68
 2055 1004 409EFEBC 		bne+ 7,.L153
 2056 1008 89690002 		lbz 11,2(9)
 2057 100c 2F8B0033 		cmpwi 7,11,51
 2058 1010 409EFEB0 		bne+ 7,.L153
 2059              	.L140:
 2060              	.LBE332:
 2061              	.LBE334:
 2062              		.loc 1 214 0
 2063 1014 386058E8 		li 3,22760
 2064              	.LVL171:
 2065 1018 90810038 		stw 4,56(1)
 2066 101c 90A1003C 		stw 5,60(1)
 2067              	.LEHB21:
 2068 1020 48000001 		bl _Znwj
 2069              	.LEHE21:
 2070              	.LVL172:
 2071 1024 80810038 		lwz 4,56(1)
 2072 1028 7C7F1B78 		mr 31,3
 2073 102c 80A1003C 		lwz 5,60(1)
 2074              	.LEHB22:
 2075 1030 48000001 		bl _ZN10Mp3DecoderC1EPKhi
 2076              	.LEHE22:
 2077 1034 4BFFFF88 		b .L131
 2078              	.LVL173:
 2079              	.L178:
 2080              	.LBB335:
 2081              	.LBB333:
 2082              	.LBB331:
 2083              		.loc 1 129 0
 2084 1038 89490001 		lbz 10,1(9)
 2085 103c 8961000C 		lbz 11,12(1)
 2086 1040 7F8A5800 		cmpw 7,10,11
 2087 1044 41BEFFD0 		beq- 7,.L140
 2088              	.LVL174:
 2089 1048 8961000E 		lbz 11,14(1)
 2090 104c 7F8B0000 		cmpw 7,11,0
 2091 1050 409EFE88 		bne+ 7,.L141
 2092              	.L179:
 2093 1054 89490001 		lbz 10,1(9)
 2094 1058 8961000F 		lbz 11,15(1)
 2095 105c 7F8A5800 		cmpw 7,10,11
 2096 1060 41BEFFB4 		beq- 7,.L140
 2097              	.LVL175:
 2098 1064 89610011 		lbz 11,17(1)
 2099 1068 7F8B0000 		cmpw 7,11,0
 2100 106c 409EFE78 		bne+ 7,.L142
 2101              	.L180:
 2102 1070 89490001 		lbz 10,1(9)
 2103 1074 89610012 		lbz 11,18(1)
 2104 1078 7F8A5800 		cmpw 7,10,11
 2105 107c 41BEFF98 		beq- 7,.L140
 2106              	.LVL176:
 2107 1080 89610014 		lbz 11,20(1)
 2108 1084 7F8B0000 		cmpw 7,11,0
 2109 1088 409EFE68 		bne+ 7,.L143
 2110              	.L181:
 2111 108c 89490001 		lbz 10,1(9)
 2112 1090 89610015 		lbz 11,21(1)
 2113 1094 7F8A5800 		cmpw 7,10,11
 2114 1098 41BEFF7C 		beq- 7,.L140
 2115              	.LVL177:
 2116 109c 89610017 		lbz 11,23(1)
 2117 10a0 7F8B0000 		cmpw 7,11,0
 2118 10a4 409EFE58 		bne+ 7,.L144
 2119              	.L182:
 2120 10a8 89490001 		lbz 10,1(9)
 2121 10ac 89610018 		lbz 11,24(1)
 2122 10b0 7F8A5800 		cmpw 7,10,11
 2123 10b4 41BEFF60 		beq- 7,.L140
 2124              	.LVL178:
 2125 10b8 8961001A 		lbz 11,26(1)
 2126 10bc 7F8B0000 		cmpw 7,11,0
 2127 10c0 409EFE48 		bne+ 7,.L145
 2128              	.L183:
 2129 10c4 89490001 		lbz 10,1(9)
 2130 10c8 8961001B 		lbz 11,27(1)
 2131 10cc 7F8A5800 		cmpw 7,10,11
 2132 10d0 41BEFF44 		beq- 7,.L140
 2133              	.LVL179:
 2134 10d4 8961001D 		lbz 11,29(1)
 2135 10d8 7F8B0000 		cmpw 7,11,0
 2136 10dc 409EFE38 		bne+ 7,.L146
 2137              	.L184:
 2138 10e0 89490001 		lbz 10,1(9)
 2139 10e4 8961001E 		lbz 11,30(1)
 2140 10e8 7F8A5800 		cmpw 7,10,11
 2141 10ec 41BEFF28 		beq- 7,.L140
 2142              	.LVL180:
 2143 10f0 89610020 		lbz 11,32(1)
 2144 10f4 7F8B0000 		cmpw 7,11,0
 2145 10f8 409EFE28 		bne+ 7,.L147
 2146              	.L185:
 2147 10fc 89490001 		lbz 10,1(9)
 2148 1100 89610021 		lbz 11,33(1)
 2149 1104 7F8A5800 		cmpw 7,10,11
 2150 1108 41BEFF0C 		beq- 7,.L140
 2151              	.LVL181:
 2152 110c 89610023 		lbz 11,35(1)
 2153 1110 7F8B0000 		cmpw 7,11,0
 2154 1114 409EFE18 		bne+ 7,.L148
 2155              	.L186:
 2156 1118 89490001 		lbz 10,1(9)
 2157 111c 89610024 		lbz 11,36(1)
 2158 1120 7F8A5800 		cmpw 7,10,11
 2159 1124 41BEFEF0 		beq- 7,.L140
 2160              	.LVL182:
 2161 1128 89610026 		lbz 11,38(1)
 2162 112c 7F8B0000 		cmpw 7,11,0
 2163 1130 409EFE08 		bne+ 7,.L149
 2164              	.L187:
 2165 1134 89490001 		lbz 10,1(9)
 2166 1138 89610027 		lbz 11,39(1)
 2167 113c 7F8A5800 		cmpw 7,10,11
 2168 1140 41BEFED4 		beq- 7,.L140
 2169              	.LVL183:
 2170 1144 89610029 		lbz 11,41(1)
 2171 1148 7F8B0000 		cmpw 7,11,0
 2172 114c 409EFDF8 		bne+ 7,.L150
 2173              	.L188:
 2174 1150 89490001 		lbz 10,1(9)
 2175 1154 8961002A 		lbz 11,42(1)
 2176 1158 7F8A5800 		cmpw 7,10,11
 2177 115c 41BEFEB8 		beq- 7,.L140
 2178              	.LVL184:
 2179 1160 8961002C 		lbz 11,44(1)
 2180 1164 7F8B0000 		cmpw 7,11,0
 2181 1168 409EFDE8 		bne+ 7,.L152
 2182              	.L189:
 2183 116c 88090001 		lbz 0,1(9)
 2184 1170 2F8000E3 		cmpwi 7,0,227
 2185 1174 409EFDDC 		bne+ 7,.L152
 2186 1178 4BFFFE9C 		b .L140
 2187              	.LVL185:
 2188              	.L174:
 2189              	.LBE331:
 2190              	.LBE333:
 2191              	.LBE335:
 2192              		.loc 1 198 0
 2193 117c 386000F8 		li 3,248
 2194              	.LVL186:
 2195 1180 90810038 		stw 4,56(1)
 2196 1184 90A1003C 		stw 5,60(1)
 2197              	.LEHB23:
 2198 1188 48000001 		bl _Znwj
 2199              	.LEHE23:
 2200              	.LVL187:
 2201 118c 80810038 		lwz 4,56(1)
 2202 1190 7C7F1B78 		mr 31,3
 2203 1194 80A1003C 		lwz 5,60(1)
 2204              	.LEHB24:
 2205 1198 48000001 		bl _ZN10OggDecoderC1EPKhi
 2206              	.LEHE24:
 2207              	.LBE339:
 2208              		.loc 1 218 0
 2209 119c 8001004C 		lwz 0,76(1)
 2210 11a0 7FE3FB78 		mr 3,31
 2211 11a4 83C10040 		lwz 30,64(1)
 2212 11a8 7C0803A6 		mtlr 0
 2213 11ac 83E10044 		lwz 31,68(1)
 2214 11b0 38210048 		addi 1,1,72
 2215              		.cfi_remember_state
 2216              		.cfi_restore 30
 2217              		.cfi_restore 31
 2218              	.LCFI26:
 2219              		.cfi_def_cfa_offset 0
 2220 11b4 4E800020 		blr
 2221              	.LVL188:
 2222              	.L175:
 2223              	.LCFI27:
 2224              		.cfi_restore_state
 2225              	.LBB340:
 2226              		.loc 1 202 0
 2227 11b8 3860005C 		li 3,92
 2228              	.LVL189:
 2229 11bc 90810038 		stw 4,56(1)
 2230 11c0 90A1003C 		stw 5,60(1)
 2231              	.LEHB25:
 2232 11c4 48000001 		bl _Znwj
 2233              	.LEHE25:
 2234              	.LVL190:
 2235 11c8 80810038 		lwz 4,56(1)
 2236 11cc 7C7F1B78 		mr 31,3
 2237 11d0 80A1003C 		lwz 5,60(1)
 2238              	.LEHB26:
 2239 11d4 48000001 		bl _ZN10WavDecoderC1EPKhi
 2240              	.LEHE26:
 2241              	.LBE340:
 2242              		.loc 1 218 0
 2243 11d8 8001004C 		lwz 0,76(1)
 2244 11dc 7FE3FB78 		mr 3,31
 2245 11e0 83C10040 		lwz 30,64(1)
 2246 11e4 7C0803A6 		mtlr 0
 2247 11e8 83E10044 		lwz 31,68(1)
 2248 11ec 38210048 		addi 1,1,72
 2249              		.cfi_remember_state
 2250              		.cfi_restore 30
 2251              		.cfi_restore 31
 2252              	.LCFI28:
 2253              		.cfi_def_cfa_offset 0
 2254 11f0 4E800020 		blr
 2255              	.LVL191:
 2256              	.L176:
 2257              	.LCFI29:
 2258              		.cfi_restore_state
 2259              	.LBB341:
 2260              		.loc 1 206 0
 2261 11f4 38600068 		li 3,104
 2262              	.LVL192:
 2263 11f8 90810038 		stw 4,56(1)
 2264 11fc 90A1003C 		stw 5,60(1)
 2265              	.LEHB27:
 2266 1200 48000001 		bl _Znwj
 2267              	.LEHE27:
 2268              	.LVL193:
 2269 1204 80810038 		lwz 4,56(1)
 2270 1208 7C7F1B78 		mr 31,3
 2271 120c 80A1003C 		lwz 5,60(1)
 2272              	.LEHB28:
 2273 1210 48000001 		bl _ZN10BNSDecoderC1EPKhi
 2274              	.LEHE28:
 2275 1214 4BFFFDA8 		b .L131
 2276              	.L164:
 2277              	.L172:
 2278 1218 7C7E1B78 		mr 30,3
 2279              		.loc 1 202 0
 2280 121c 7FE3FB78 		mr 3,31
 2281 1220 48000001 		bl _ZdlPv
 2282 1224 7FC3F378 		mr 3,30
 2283              	.LEHB29:
 2284 1228 48000001 		bl _Unwind_Resume
 2285              	.LEHE29:
 2286              	.L168:
 2287 122c 4BFFFFEC 		b .L172
 2288              	.L167:
 2289 1230 4BFFFFE8 		b .L172
 2290              	.LVL194:
 2291              	.L169:
 2292 1234 4BFFFFE4 		b .L172
 2293              	.LVL195:
 2294              	.L166:
 2295 1238 4BFFFFE0 		b .L172
 2296              	.L165:
 2297 123c 4BFFFFDC 		b .L172
 2298              	.LBE341:
 2299              		.cfi_endproc
 2300              	.LFE1439:
 2301              		.section	.gcc_except_table
 2302              	.LLSDA1439:
 2303 0064 FF       		.byte	0xff
 2304 0065 FF       		.byte	0xff
 2305 0066 01       		.byte	0x1
 2306 0067 47       		.uleb128 .LLSDACSE1439-.LLSDACSB1439
 2307              	.LLSDACSB1439:
 2308 0068 9003     		.uleb128 .LEHB17-.LFB1439
 2309 006a 04       		.uleb128 .LEHE17-.LEHB17
 2310 006b 00       		.uleb128 0
 2311 006c 00       		.uleb128 0
 2312 006d A003     		.uleb128 .LEHB18-.LFB1439
 2313 006f 04       		.uleb128 .LEHE18-.LEHB18
 2314 0070 E808     		.uleb128 .L169-.LFB1439
 2315 0072 00       		.uleb128 0
 2316 0073 9804     		.uleb128 .LEHB19-.LFB1439
 2317 0075 04       		.uleb128 .LEHE19-.LEHB19
 2318 0076 00       		.uleb128 0
 2319 0077 00       		.uleb128 0
 2320 0078 A804     		.uleb128 .LEHB20-.LFB1439
 2321 007a 04       		.uleb128 .LEHE20-.LEHB20
 2322 007b E408     		.uleb128 .L167-.LFB1439
 2323 007d 00       		.uleb128 0
 2324 007e D404     		.uleb128 .LEHB21-.LFB1439
 2325 0080 04       		.uleb128 .LEHE21-.LEHB21
 2326 0081 00       		.uleb128 0
 2327 0082 00       		.uleb128 0
 2328 0083 E404     		.uleb128 .LEHB22-.LFB1439
 2329 0085 04       		.uleb128 .LEHE22-.LEHB22
 2330 0086 E008     		.uleb128 .L168-.LFB1439
 2331 0088 00       		.uleb128 0
 2332 0089 BC07     		.uleb128 .LEHB23-.LFB1439
 2333 008b 04       		.uleb128 .LEHE23-.LEHB23
 2334 008c 00       		.uleb128 0
 2335 008d 00       		.uleb128 0
 2336 008e CC07     		.uleb128 .LEHB24-.LFB1439
 2337 0090 04       		.uleb128 .LEHE24-.LEHB24
 2338 0091 CC08     		.uleb128 .L164-.LFB1439
 2339 0093 00       		.uleb128 0
 2340 0094 F807     		.uleb128 .LEHB25-.LFB1439
 2341 0096 04       		.uleb128 .LEHE25-.LEHB25
 2342 0097 00       		.uleb128 0
 2343 0098 00       		.uleb128 0
 2344 0099 8808     		.uleb128 .LEHB26-.LFB1439
 2345 009b 04       		.uleb128 .LEHE26-.LEHB26
 2346 009c F008     		.uleb128 .L165-.LFB1439
 2347 009e 00       		.uleb128 0
 2348 009f B408     		.uleb128 .LEHB27-.LFB1439
 2349 00a1 04       		.uleb128 .LEHE27-.LEHB27
 2350 00a2 00       		.uleb128 0
 2351 00a3 00       		.uleb128 0
 2352 00a4 C408     		.uleb128 .LEHB28-.LFB1439
 2353 00a6 04       		.uleb128 .LEHE28-.LEHB28
 2354 00a7 EC08     		.uleb128 .L166-.LFB1439
 2355 00a9 00       		.uleb128 0
 2356 00aa DC08     		.uleb128 .LEHB29-.LFB1439
 2357 00ac 04       		.uleb128 .LEHE29-.LEHB29
 2358 00ad 00       		.uleb128 0
 2359 00ae 00       		.uleb128 0
 2360              	.LLSDACSE1439:
 2361              		.section	".text"
 2362              		.size	_ZN12SoundHandler15GetSoundDecoderEPKhi, .-_ZN12SoundHandler15GetSoundDecoderEPKhi
 2363              		.align 2
 2364              		.globl _ZN12SoundHandler10AddDecoderEiPKhi
 2365              		.type	_ZN12SoundHandler10AddDecoderEiPKhi, @function
 2366              	_ZN12SoundHandler10AddDecoderEiPKhi:
 2367              	.LFB1434:
 2368              		.loc 1 75 0
 2369              		.cfi_startproc
 2370              	.LVL196:
 2371              		.loc 1 76 0
 2372 1240 2B84000F 		cmplwi 7,4,15
 2373              		.loc 1 75 0
 2374 1244 7C0802A6 		mflr 0
 2375 1248 9421FFE0 		stwu 1,-32(1)
 2376              	.LCFI30:
 2377              		.cfi_def_cfa_offset 32
 2378              		.cfi_register 65, 0
 2379 124c 93E1001C 		stw 31,28(1)
 2380 1250 7C7F1B78 		mr 31,3
 2381              		.cfi_offset 31, -4
 2382 1254 90010024 		stw 0,36(1)
 2383 1258 93A10014 		stw 29,20(1)
 2384 125c 93C10018 		stw 30,24(1)
 2385              		.loc 1 76 0
 2386 1260 419D0058 		bgt- 7,.L190
 2387              		.cfi_offset 30, -8
 2388              		.cfi_offset 29, -12
 2389              		.cfi_offset 65, 4
 2390              		.loc 1 79 0
 2391 1264 3BC40004 		addi 30,4,4
 2392 1268 57DD103A 		slwi 29,30,2
 2393 126c 7C63E82E 		lwzx 3,3,29
 2394              	.LVL197:
 2395 1270 2F830000 		cmpwi 7,3,0
 2396 1274 419E002C 		beq- 7,.L192
 2397              	.LVL198:
 2398              	.LBB346:
 2399              	.LBB347:
 2400              	.LBB348:
 2401              		.loc 1 91 0
 2402 1278 81230000 		lwz 9,0(3)
 2403 127c 80090004 		lwz 0,4(9)
 2404 1280 90A10008 		stw 5,8(1)
 2405 1284 90C1000C 		stw 6,12(1)
 2406 1288 7C0903A6 		mtctr 0
 2407 128c 4E800421 		bctrl
 2408              	.LVL199:
 2409              		.loc 1 93 0
 2410 1290 38000000 		li 0,0
 2411 1294 7C1FE92E 		stwx 0,31,29
 2412 1298 80C1000C 		lwz 6,12(1)
 2413 129c 80A10008 		lwz 5,8(1)
 2414              	.LVL200:
 2415              	.L192:
 2416              	.LBE348:
 2417              	.LBE347:
 2418              	.LBE346:
 2419              		.loc 1 82 0
 2420 12a0 7CA42B78 		mr 4,5
 2421 12a4 7FE3FB78 		mr 3,31
 2422 12a8 7CC53378 		mr 5,6
 2423 12ac 57DE103A 		slwi 30,30,2
 2424              	.LVL201:
 2425 12b0 48000001 		bl _ZN12SoundHandler15GetSoundDecoderEPKhi
 2426 12b4 7C7FF12E 		stwx 3,31,30
 2427              	.L190:
 2428              		.loc 1 83 0
 2429 12b8 80010024 		lwz 0,36(1)
 2430 12bc 83A10014 		lwz 29,20(1)
 2431 12c0 7C0803A6 		mtlr 0
 2432 12c4 83C10018 		lwz 30,24(1)
 2433 12c8 83E1001C 		lwz 31,28(1)
 2434              	.LVL202:
 2435 12cc 38210020 		addi 1,1,32
 2436              	.LCFI31:
 2437              		.cfi_def_cfa_offset 0
 2438              		.cfi_restore 31
 2439              		.cfi_restore 30
 2440              		.cfi_restore 29
 2441 12d0 4E800020 		blr
 2442              		.cfi_endproc
 2443              	.LFE1434:
 2444              		.size	_ZN12SoundHandler10AddDecoderEiPKhi, .-_ZN12SoundHandler10AddDecoderEiPKhi
 2445              		.align 2
 2446              		.globl _ZN12SoundHandler20InternalSoundUpdatesEv
 2447              		.type	_ZN12SoundHandler20InternalSoundUpdatesEv, @function
 2448              	_ZN12SoundHandler20InternalSoundUpdatesEv:
 2449              	.LFB1441:
 2450              		.loc 1 227 0
 2451              		.cfi_startproc
 2452              	.LVL203:
 2453 12d4 9421FFF0 		stwu 1,-16(1)
 2454              	.LCFI32:
 2455              		.cfi_def_cfa_offset 16
 2456 12d8 7C0802A6 		mflr 0
 2457 12dc 93E1000C 		stw 31,12(1)
 2458 12e0 7C7F1B78 		mr 31,3
 2459              		.cfi_offset 31, -4
 2460              		.cfi_register 65, 0
 2461              	.LBB349:
 2462              		.loc 1 229 0
 2463 12e4 38630008 		addi 3,3,8
 2464              	.LVL204:
 2465              	.LBE349:
 2466              		.loc 1 227 0
 2467 12e8 90010014 		stw 0,20(1)
 2468              	.LBB350:
 2469              		.loc 1 229 0
 2470              		.cfi_offset 65, 4
 2471 12ec 48000001 		bl LWP_InitQueue
 2472              		.loc 1 230 0
 2473 12f0 881F000D 		lbz 0,13(31)
 2474 12f4 2F800000 		cmpwi 7,0,0
 2475 12f8 409E0260 		bne- 7,.L194
 2476              	.LVL205:
 2477              	.L212:
 2478              		.loc 1 232 0
 2479 12fc 807F0008 		lwz 3,8(31)
 2480 1300 48000001 		bl LWP_ThreadSleep
 2481              	.LVL206:
 2482              		.loc 1 236 0
 2483 1304 807F0010 		lwz 3,16(31)
 2484 1308 2F830000 		cmpwi 7,3,0
 2485 130c 419E001C 		beq- 7,.L195
 2486              		.loc 1 240 0
 2487 1310 81230000 		lwz 9,0(3)
 2488              		.loc 1 239 0
 2489 1314 38000001 		li 0,1
 2490 1318 981F000C 		stb 0,12(31)
 2491              		.loc 1 240 0
 2492 131c 80090020 		lwz 0,32(9)
 2493 1320 7C0903A6 		mtctr 0
 2494 1324 4E800421 		bctrl
 2495              	.L195:
 2496              	.LVL207:
 2497              		.loc 1 236 0
 2498 1328 807F0014 		lwz 3,20(31)
 2499 132c 2F830000 		cmpwi 7,3,0
 2500 1330 419E001C 		beq- 7,.L196
 2501              		.loc 1 240 0
 2502 1334 81230000 		lwz 9,0(3)
 2503              		.loc 1 239 0
 2504 1338 38000001 		li 0,1
 2505 133c 981F000C 		stb 0,12(31)
 2506              		.loc 1 240 0
 2507 1340 80090020 		lwz 0,32(9)
 2508 1344 7C0903A6 		mtctr 0
 2509 1348 4E800421 		bctrl
 2510              	.L196:
 2511              	.LVL208:
 2512              		.loc 1 236 0
 2513 134c 807F0018 		lwz 3,24(31)
 2514 1350 2F830000 		cmpwi 7,3,0
 2515 1354 419E001C 		beq- 7,.L197
 2516              		.loc 1 240 0
 2517 1358 81230000 		lwz 9,0(3)
 2518              		.loc 1 239 0
 2519 135c 38000001 		li 0,1
 2520 1360 981F000C 		stb 0,12(31)
 2521              		.loc 1 240 0
 2522 1364 80090020 		lwz 0,32(9)
 2523 1368 7C0903A6 		mtctr 0
 2524 136c 4E800421 		bctrl
 2525              	.L197:
 2526              	.LVL209:
 2527              		.loc 1 236 0
 2528 1370 807F001C 		lwz 3,28(31)
 2529 1374 2F830000 		cmpwi 7,3,0
 2530 1378 419E001C 		beq- 7,.L198
 2531              		.loc 1 240 0
 2532 137c 81230000 		lwz 9,0(3)
 2533              		.loc 1 239 0
 2534 1380 38000001 		li 0,1
 2535 1384 981F000C 		stb 0,12(31)
 2536              		.loc 1 240 0
 2537 1388 80090020 		lwz 0,32(9)
 2538 138c 7C0903A6 		mtctr 0
 2539 1390 4E800421 		bctrl
 2540              	.L198:
 2541              	.LVL210:
 2542              		.loc 1 236 0
 2543 1394 807F0020 		lwz 3,32(31)
 2544 1398 2F830000 		cmpwi 7,3,0
 2545 139c 419E001C 		beq- 7,.L199
 2546              		.loc 1 240 0
 2547 13a0 81230000 		lwz 9,0(3)
 2548              		.loc 1 239 0
 2549 13a4 38000001 		li 0,1
 2550 13a8 981F000C 		stb 0,12(31)
 2551              		.loc 1 240 0
 2552 13ac 80090020 		lwz 0,32(9)
 2553 13b0 7C0903A6 		mtctr 0
 2554 13b4 4E800421 		bctrl
 2555              	.L199:
 2556              	.LVL211:
 2557              		.loc 1 236 0
 2558 13b8 807F0024 		lwz 3,36(31)
 2559 13bc 2F830000 		cmpwi 7,3,0
 2560 13c0 419E001C 		beq- 7,.L200
 2561              		.loc 1 240 0
 2562 13c4 81230000 		lwz 9,0(3)
 2563              		.loc 1 239 0
 2564 13c8 38000001 		li 0,1
 2565 13cc 981F000C 		stb 0,12(31)
 2566              		.loc 1 240 0
 2567 13d0 80090020 		lwz 0,32(9)
 2568 13d4 7C0903A6 		mtctr 0
 2569 13d8 4E800421 		bctrl
 2570              	.L200:
 2571              	.LVL212:
 2572              		.loc 1 236 0
 2573 13dc 807F0028 		lwz 3,40(31)
 2574 13e0 2F830000 		cmpwi 7,3,0
 2575 13e4 419E001C 		beq- 7,.L201
 2576              		.loc 1 240 0
 2577 13e8 81230000 		lwz 9,0(3)
 2578              		.loc 1 239 0
 2579 13ec 38000001 		li 0,1
 2580 13f0 981F000C 		stb 0,12(31)
 2581              		.loc 1 240 0
 2582 13f4 80090020 		lwz 0,32(9)
 2583 13f8 7C0903A6 		mtctr 0
 2584 13fc 4E800421 		bctrl
 2585              	.L201:
 2586              	.LVL213:
 2587              		.loc 1 236 0
 2588 1400 807F002C 		lwz 3,44(31)
 2589 1404 2F830000 		cmpwi 7,3,0
 2590 1408 419E001C 		beq- 7,.L202
 2591              		.loc 1 240 0
 2592 140c 81230000 		lwz 9,0(3)
 2593              		.loc 1 239 0
 2594 1410 38000001 		li 0,1
 2595 1414 981F000C 		stb 0,12(31)
 2596              		.loc 1 240 0
 2597 1418 80090020 		lwz 0,32(9)
 2598 141c 7C0903A6 		mtctr 0
 2599 1420 4E800421 		bctrl
 2600              	.L202:
 2601              	.LVL214:
 2602              		.loc 1 236 0
 2603 1424 807F0030 		lwz 3,48(31)
 2604 1428 2F830000 		cmpwi 7,3,0
 2605 142c 419E001C 		beq- 7,.L203
 2606              		.loc 1 240 0
 2607 1430 81230000 		lwz 9,0(3)
 2608              		.loc 1 239 0
 2609 1434 38000001 		li 0,1
 2610 1438 981F000C 		stb 0,12(31)
 2611              		.loc 1 240 0
 2612 143c 80090020 		lwz 0,32(9)
 2613 1440 7C0903A6 		mtctr 0
 2614 1444 4E800421 		bctrl
 2615              	.L203:
 2616              	.LVL215:
 2617              		.loc 1 236 0
 2618 1448 807F0034 		lwz 3,52(31)
 2619 144c 2F830000 		cmpwi 7,3,0
 2620 1450 419E001C 		beq- 7,.L204
 2621              		.loc 1 240 0
 2622 1454 81230000 		lwz 9,0(3)
 2623              		.loc 1 239 0
 2624 1458 38000001 		li 0,1
 2625 145c 981F000C 		stb 0,12(31)
 2626              		.loc 1 240 0
 2627 1460 80090020 		lwz 0,32(9)
 2628 1464 7C0903A6 		mtctr 0
 2629 1468 4E800421 		bctrl
 2630              	.L204:
 2631              	.LVL216:
 2632              		.loc 1 236 0
 2633 146c 807F0038 		lwz 3,56(31)
 2634 1470 2F830000 		cmpwi 7,3,0
 2635 1474 419E001C 		beq- 7,.L205
 2636              		.loc 1 240 0
 2637 1478 81230000 		lwz 9,0(3)
 2638              		.loc 1 239 0
 2639 147c 38000001 		li 0,1
 2640 1480 981F000C 		stb 0,12(31)
 2641              		.loc 1 240 0
 2642 1484 80090020 		lwz 0,32(9)
 2643 1488 7C0903A6 		mtctr 0
 2644 148c 4E800421 		bctrl
 2645              	.L205:
 2646              	.LVL217:
 2647              		.loc 1 236 0
 2648 1490 807F003C 		lwz 3,60(31)
 2649 1494 2F830000 		cmpwi 7,3,0
 2650 1498 419E001C 		beq- 7,.L206
 2651              		.loc 1 240 0
 2652 149c 81230000 		lwz 9,0(3)
 2653              		.loc 1 239 0
 2654 14a0 38000001 		li 0,1
 2655 14a4 981F000C 		stb 0,12(31)
 2656              		.loc 1 240 0
 2657 14a8 80090020 		lwz 0,32(9)
 2658 14ac 7C0903A6 		mtctr 0
 2659 14b0 4E800421 		bctrl
 2660              	.L206:
 2661              	.LVL218:
 2662              		.loc 1 236 0
 2663 14b4 807F0040 		lwz 3,64(31)
 2664 14b8 2F830000 		cmpwi 7,3,0
 2665 14bc 419E001C 		beq- 7,.L207
 2666              		.loc 1 240 0
 2667 14c0 81230000 		lwz 9,0(3)
 2668              		.loc 1 239 0
 2669 14c4 38000001 		li 0,1
 2670 14c8 981F000C 		stb 0,12(31)
 2671              		.loc 1 240 0
 2672 14cc 80090020 		lwz 0,32(9)
 2673 14d0 7C0903A6 		mtctr 0
 2674 14d4 4E800421 		bctrl
 2675              	.L207:
 2676              	.LVL219:
 2677              		.loc 1 236 0
 2678 14d8 807F0044 		lwz 3,68(31)
 2679 14dc 2F830000 		cmpwi 7,3,0
 2680 14e0 419E001C 		beq- 7,.L208
 2681              		.loc 1 240 0
 2682 14e4 81230000 		lwz 9,0(3)
 2683              		.loc 1 239 0
 2684 14e8 38000001 		li 0,1
 2685 14ec 981F000C 		stb 0,12(31)
 2686              		.loc 1 240 0
 2687 14f0 80090020 		lwz 0,32(9)
 2688 14f4 7C0903A6 		mtctr 0
 2689 14f8 4E800421 		bctrl
 2690              	.L208:
 2691              	.LVL220:
 2692              		.loc 1 236 0
 2693 14fc 807F0048 		lwz 3,72(31)
 2694 1500 2F830000 		cmpwi 7,3,0
 2695 1504 419E001C 		beq- 7,.L209
 2696              		.loc 1 240 0
 2697 1508 81230000 		lwz 9,0(3)
 2698              		.loc 1 239 0
 2699 150c 38000001 		li 0,1
 2700 1510 981F000C 		stb 0,12(31)
 2701              		.loc 1 240 0
 2702 1514 80090020 		lwz 0,32(9)
 2703 1518 7C0903A6 		mtctr 0
 2704 151c 4E800421 		bctrl
 2705              	.L209:
 2706              	.LVL221:
 2707              		.loc 1 236 0
 2708 1520 807F004C 		lwz 3,76(31)
 2709 1524 2F830000 		cmpwi 7,3,0
 2710 1528 419E001C 		beq- 7,.L210
 2711              		.loc 1 240 0
 2712 152c 81230000 		lwz 9,0(3)
 2713              		.loc 1 239 0
 2714 1530 38000001 		li 0,1
 2715 1534 981F000C 		stb 0,12(31)
 2716              		.loc 1 240 0
 2717 1538 80090020 		lwz 0,32(9)
 2718 153c 7C0903A6 		mtctr 0
 2719 1540 4E800421 		bctrl
 2720              	.L210:
 2721              	.LVL222:
 2722              		.loc 1 230 0
 2723 1544 881F000D 		lbz 0,13(31)
 2724 1548 2F800000 		cmpwi 7,0,0
 2725              		.loc 1 242 0
 2726 154c 38000000 		li 0,0
 2727 1550 981F000C 		stb 0,12(31)
 2728              		.loc 1 230 0
 2729 1554 419EFDA8 		beq+ 7,.L212
 2730              	.LVL223:
 2731              	.L194:
 2732              		.loc 1 244 0
 2733 1558 807F0008 		lwz 3,8(31)
 2734 155c 48000001 		bl LWP_CloseQueue
 2735              		.loc 1 245 0
 2736 1560 3800FFFF 		li 0,-1
 2737 1564 901F0008 		stw 0,8(31)
 2738              	.LBE350:
 2739              		.loc 1 246 0
 2740 1568 80010014 		lwz 0,20(1)
 2741 156c 83E1000C 		lwz 31,12(1)
 2742              	.LVL224:
 2743 1570 7C0803A6 		mtlr 0
 2744 1574 38210010 		addi 1,1,16
 2745              	.LCFI33:
 2746              		.cfi_def_cfa_offset 0
 2747              		.cfi_restore 31
 2748 1578 4E800020 		blr
 2749              		.cfi_endproc
 2750              	.LFE1441:
 2751              		.size	_ZN12SoundHandler20InternalSoundUpdatesEv, .-_ZN12SoundHandler20InternalSoundUpdatesEv
 2752              		.globl _ZN12SoundHandler8instanceE
 2753              		.globl _ZN12SoundHandlerC1Ev
 2754              		.set	_ZN12SoundHandlerC1Ev,_ZN12SoundHandlerC2Ev
 2755              		.globl _ZN12SoundHandlerD1Ev
 2756              		.set	_ZN12SoundHandlerD1Ev,_ZN12SoundHandlerD2Ev
 2757              		.section	.rodata.str1.4,"aMS",@progbits,1
 2758              		.align 2
 2759              	.LC0:
 2760 0000 726200   		.string	"rb"
 2761              		.section	.sbss,"aw",@nobits
 2762              		.align 2
 2763              		.type	_ZN12SoundHandler8instanceE, @object
 2764              		.size	_ZN12SoundHandler8instanceE, 4
 2765              	_ZN12SoundHandler8instanceE:
 2766 0000 00000000 		.zero	4
 2767              		.section	".text"
 2768              	.Letext0:
 2769              		.file 4 "d:\\devkitpro\\devkitppc\\bin\\../lib/gcc/powerpc-eabi/4.6.3/../../../../powerpc-eabi/inc
 2770              		.file 5 "d:\\devkitpro\\devkitppc\\bin\\../lib/gcc/powerpc-eabi/4.6.3/../../../../powerpc-eabi/inc
 2771              		.file 6 "d:\\devkitpro\\devkitppc\\bin\\../lib/gcc/powerpc-eabi/4.6.3/include/stddef.h"
 2772              		.file 7 "d:\\devkitpro\\devkitppc\\bin\\../lib/gcc/powerpc-eabi/4.6.3/../../../../powerpc-eabi/inc
 2773              		.file 8 "d:\\devkitpro\\devkitppc\\bin\\../lib/gcc/powerpc-eabi/4.6.3/../../../../powerpc-eabi/inc
 2774              		.file 9 "d:\\devkitpro\\devkitppc\\bin\\../lib/gcc/powerpc-eabi/4.6.3/../../../../powerpc-eabi/inc
 2775              		.file 10 "d:\\devkitpro\\devkitppc\\bin\\../lib/gcc/powerpc-eabi/4.6.3/../../../../powerpc-eabi/in
 2776              		.file 11 "d:\\devkitpro\\devkitppc\\bin\\../lib/gcc/powerpc-eabi/4.6.3/../../../../powerpc-eabi/in
 2777              		.file 12 "d:\\devkitpro\\devkitppc\\bin\\../lib/gcc/powerpc-eabi/4.6.3/../../../../powerpc-eabi/in
 2778              		.file 13 "d:\\devkitpro\\devkitppc\\bin\\../lib/gcc/powerpc-eabi/4.6.3/../../../../powerpc-eabi/in
 2779              		.file 14 "d:\\devkitpro\\devkitppc\\bin\\../lib/gcc/powerpc-eabi/4.6.3/../../../../powerpc-eabi/in
 2780              		.file 15 "d:\\devkitpro\\devkitppc\\bin\\../lib/gcc/powerpc-eabi/4.6.3/../../../../powerpc-eabi/in
 2781              		.file 16 "d:\\devkitpro\\devkitppc\\bin\\../lib/gcc/powerpc-eabi/4.6.3/../../../../powerpc-eabi/in
 2782              		.file 17 "d:\\devkitpro\\devkitppc\\bin\\../lib/gcc/powerpc-eabi/4.6.3/../../../../powerpc-eabi/in
 2783              		.file 18 "d:\\devkitpro\\devkitppc\\bin\\../lib/gcc/powerpc-eabi/4.6.3/../../../../powerpc-eabi/in
 2784              		.file 19 "d:\\devkitpro\\devkitppc\\bin\\../lib/gcc/powerpc-eabi/4.6.3/../../../../powerpc-eabi/in
 2785              		.file 20 "d:\\devkitpro\\devkitppc\\bin\\../lib/gcc/powerpc-eabi/4.6.3/../../../../powerpc-eabi/in
 2786              		.file 21 "d:\\devkitpro\\devkitppc\\bin\\../lib/gcc/powerpc-eabi/4.6.3/../../../../powerpc-eabi/in
 2787              		.file 22 "d:/devkitPro/libogc/include/gctypes.h"
 2788              		.file 23 "d:/devkitPro/libogc/include/ogc/lwp.h"
 2789              		.file 24 "d:/devkitPro/libogc/include/ogc/gx.h"
 2790              		.file 25 "d:\\devkitpro\\devkitppc\\bin\\../lib/gcc/powerpc-eabi/4.6.3/../../../../powerpc-eabi/in
 2791              		.file 26 "<built-in>"
 2792              		.file 27 "d:\\devkitpro\\devkitppc\\bin\\../lib/gcc/powerpc-eabi/4.6.3/../../../../powerpc-eabi/in
 2793              		.file 28 "d:\\devkitpro\\devkitppc\\bin\\../lib/gcc/powerpc-eabi/4.6.3/../../../../powerpc-eabi/in
 2794              		.file 29 "d:\\devkitpro\\devkitppc\\bin\\../lib/gcc/powerpc-eabi/4.6.3/../../../../powerpc-eabi/in
 2795              		.file 30 "d:/Projects/SaveGameManager/savegame-manager-gx/trunk/source/SoundOperations/BufferCircl
 2796              		.file 31 "d:\\devkitpro\\devkitppc\\bin\\../lib/gcc/powerpc-eabi/4.6.3/../../../../powerpc-eabi/in
 2797              		.file 32 "d:\\devkitpro\\devkitppc\\bin\\../lib/gcc/powerpc-eabi/4.6.3/../../../../powerpc-eabi/in
 2798              		.file 33 "d:/Projects/SaveGameManager/savegame-manager-gx/trunk/source/SoundOperations/../sigslot.