   1              		.file	"SoundDecoder.cpp"
   2              		.section	".text"
   3              	.Ltext0:
   4              		.section	.text._ZN12SoundDecoder4TellEv,"axG",@progbits,_ZN12SoundDecoder4TellEv,comdat
   5              		.align 2
   6              		.weak	_ZN12SoundDecoder4TellEv
   7              		.type	_ZN12SoundDecoder4TellEv, @function
   8              	_ZN12SoundDecoder4TellEv:
   9              	.LFB1396:
  10              		.file 1 "d:/Projects/SaveGameManager/savegame-manager-gx/trunk/source/SoundOperations/SoundDecoder
  11              		.loc 1 54 0
  12              		.cfi_startproc
  13              	.LVL0:
  14              		.loc 1 54 0
  15 0000 80630044 		lwz 3,68(3)
  16              	.LVL1:
  17 0004 4E800020 		blr
  18              		.cfi_endproc
  19              	.LFE1396:
  20              		.size	_ZN12SoundDecoder4TellEv, .-_ZN12SoundDecoder4TellEv
  21              		.section	.text._ZN12SoundDecoder9GetFormatEv,"axG",@progbits,_ZN12SoundDecoder9GetFormatEv,comdat
  22              		.align 2
  23              		.weak	_ZN12SoundDecoder9GetFormatEv
  24              		.type	_ZN12SoundDecoder9GetFormatEv, @function
  25              	_ZN12SoundDecoder9GetFormatEv:
  26              	.LFB1398:
  27              		.loc 1 57 0
  28              		.cfi_startproc
  29              	.LVL2:
  30              		.loc 1 57 0
  31 0000 38600003 		li 3,3
  32              	.LVL3:
  33 0004 4E800020 		blr
  34              		.cfi_endproc
  35              	.LFE1398:
  36              		.size	_ZN12SoundDecoder9GetFormatEv, .-_ZN12SoundDecoder9GetFormatEv
  37              		.section	.text._ZN12SoundDecoder13GetSampleRateEv,"axG",@progbits,_ZN12SoundDecoder13GetSampleRate
  38              		.align 2
  39              		.weak	_ZN12SoundDecoder13GetSampleRateEv
  40              		.type	_ZN12SoundDecoder13GetSampleRateEv, @function
  41              	_ZN12SoundDecoder13GetSampleRateEv:
  42              	.LFB1399:
  43              		.loc 1 58 0
  44              		.cfi_startproc
  45              	.LVL4:
  46              		.loc 1 58 0
  47 0000 38600000 		li 3,0
  48              	.LVL5:
  49 0004 6063BB80 		ori 3,3,48000
  50 0008 4E800020 		blr
  51              		.cfi_endproc
  52              	.LFE1399:
  53              		.size	_ZN12SoundDecoder13GetSampleRateEv, .-_ZN12SoundDecoder13GetSampleRateEv
  54              		.section	.text._ZN12SoundDecoder9GetBufferEv,"axG",@progbits,_ZN12SoundDecoder9GetBufferEv,comdat
  55              		.align 2
  56              		.weak	_ZN12SoundDecoder9GetBufferEv
  57              		.type	_ZN12SoundDecoder9GetBufferEv, @function
  58              	_ZN12SoundDecoder9GetBufferEv:
  59              	.LFB1401:
  60              		.loc 1 61 0
  61              		.cfi_startproc
  62              	.LVL6:
  63              	.LBB345:
  64              	.LBB346:
  65              	.LBB347:
  66              	.LBB348:
  67              	.LBB349:
  68              		.file 2 "d:/Projects/SaveGameManager/savegame-manager-gx/trunk/source/SoundOperations/SoundDecoder
  69              		.loc 2 154 0
  70 0000 81230010 		lwz 9,16(3)
  71              	.LBB350:
  72              	.LBB351:
  73              		.file 3 "d:\\devkitpro\\devkitppc\\bin\\../lib/gcc/powerpc-eabi/4.6.3/../../../../powerpc-eabi/inc
  74              		.loc 3 571 0
  75 0004 81630014 		lwz 11,20(3)
  76              	.LBE351:
  77              	.LBE350:
  78              	.LBE349:
  79              	.LBE348:
  80              	.LBE347:
  81              		.file 4 "d:/Projects/SaveGameManager/savegame-manager-gx/trunk/source/SoundOperations/BufferCircle
  82              		.loc 4 54 0
  83 0008 A0030008 		lhz 0,8(3)
  84              	.LVL7:
  85              	.LBB356:
  86              	.LBB355:
  87 000c 38600000 		li 3,0
  88              	.LVL8:
  89              	.LBB354:
  90              	.LBB353:
  91              	.LBB352:
  92              		.loc 3 571 0
  93 0010 7D695850 		subf 11,9,11
  94 0014 7D6B1670 		srawi 11,11,2
  95              	.LBE352:
  96              	.LBE353:
  97              	.LBE354:
  98              		.loc 4 83 0
  99 0018 7F805800 		cmpw 7,0,11
 100 001c 4C9C0020 		bgelr- 7
 101              	.LVL9:
 102              	.LBE355:
 103              	.LBE356:
 104              		.loc 4 54 0
 105 0020 5400103A 		slwi 0,0,2
 106              	.LVL10:
 107 0024 7C69002E 		lwzx 3,9,0
 108              	.LBE346:
 109              	.LBE345:
 110              		.loc 1 61 0
 111 0028 4E800020 		blr
 112              		.cfi_endproc
 113              	.LFE1401:
 114              		.size	_ZN12SoundDecoder9GetBufferEv, .-_ZN12SoundDecoder9GetBufferEv
 115              		.section	.text._ZN12SoundDecoder13GetNextBufferEv,"axG",@progbits,_ZN12SoundDecoder13GetNextBuffer
 116              		.align 2
 117              		.weak	_ZN12SoundDecoder13GetNextBufferEv
 118              		.type	_ZN12SoundDecoder13GetNextBufferEv, @function
 119              	_ZN12SoundDecoder13GetNextBufferEv:
 120              	.LFB1402:
 121              		.loc 1 62 0
 122              		.cfi_startproc
 123              	.LVL11:
 124              	.LBB357:
 125              	.LBB358:
 126              	.LBB359:
 127              		.loc 2 154 0
 128 0000 81630010 		lwz 11,16(3)
 129              	.LBE359:
 130              	.LBE358:
 131              	.LBE357:
 132              		.loc 1 62 0
 133 0004 7C691B78 		mr 9,3
 134              	.LVL12:
 135              	.LBB367:
 136              	.LBB366:
 137              	.LBB364:
 138              	.LBB360:
 139              	.LBB361:
 140              		.loc 3 571 0
 141 0008 80030014 		lwz 0,20(3)
 142              	.LBE361:
 143              	.LBE360:
 144              	.LBE364:
 145              		.loc 4 58 0
 146 000c 38600000 		li 3,0
 147              	.LVL13:
 148              	.LBB365:
 149              	.LBB363:
 150              	.LBB362:
 151              		.loc 3 571 0
 152 0010 7C0B0050 		subf 0,11,0
 153              	.LBE362:
 154              	.LBE363:
 155              	.LBE365:
 156              		.loc 4 58 0
 157 0014 7C001671 		srawi. 0,0,2
 158 0018 4C810020 		blelr- 0
 159              	.LVL14:
 160 001c A1290008 		lhz 9,8(9)
 161              	.LVL15:
 162 0020 39290001 		addi 9,9,1
 163              	.LVL16:
 164 0024 7D4903D6 		divw 10,9,0
 165 0028 7C0A01D6 		mullw 0,10,0
 166              	.LVL17:
 167 002c 7D204850 		subf 9,0,9
 168 0030 5529103A 		slwi 9,9,2
 169 0034 7C6B482E 		lwzx 3,11,9
 170              	.LBE366:
 171              	.LBE367:
 172              		.loc 1 62 0
 173 0038 4E800020 		blr
 174              		.cfi_endproc
 175              	.LFE1402:
 176              		.size	_ZN12SoundDecoder13GetNextBufferEv, .-_ZN12SoundDecoder13GetNextBufferEv
 177              		.section	.text._ZN12SoundDecoder13GetLastBufferEv,"axG",@progbits,_ZN12SoundDecoder13GetLastBuffer
 178              		.align 2
 179              		.weak	_ZN12SoundDecoder13GetLastBufferEv
 180              		.type	_ZN12SoundDecoder13GetLastBufferEv, @function
 181              	_ZN12SoundDecoder13GetLastBufferEv:
 182              	.LFB1403:
 183              		.loc 1 63 0
 184              		.cfi_startproc
 185              	.LVL18:
 186              	.LBB368:
 187              	.LBB369:
 188              	.LBB370:
 189              		.loc 2 154 0
 190 0000 81630010 		lwz 11,16(3)
 191              	.LBE370:
 192              	.LBE369:
 193              	.LBE368:
 194              		.loc 1 63 0
 195 0004 7C691B78 		mr 9,3
 196              	.LVL19:
 197              	.LBB378:
 198              	.LBB377:
 199              	.LBB375:
 200              	.LBB371:
 201              	.LBB372:
 202              		.loc 3 571 0
 203 0008 80030014 		lwz 0,20(3)
 204              	.LBE372:
 205              	.LBE371:
 206              	.LBE375:
 207              		.loc 4 60 0
 208 000c 38600000 		li 3,0
 209              	.LVL20:
 210              	.LBB376:
 211              	.LBB374:
 212              	.LBB373:
 213              		.loc 3 571 0
 214 0010 7C0B0050 		subf 0,11,0
 215              	.LBE373:
 216              	.LBE374:
 217              	.LBE376:
 218              		.loc 4 60 0
 219 0014 7C001671 		srawi. 0,0,2
 220 0018 4C810020 		blelr- 0
 221              	.LVL21:
 222 001c A1290008 		lhz 9,8(9)
 223              	.LVL22:
 224 0020 7D204A14 		add 9,0,9
 225              	.LVL23:
 226 0024 3929FFFF 		addi 9,9,-1
 227 0028 7D4903D6 		divw 10,9,0
 228 002c 7C0A01D6 		mullw 0,10,0
 229 0030 7D204850 		subf 9,0,9
 230 0034 5529103A 		slwi 9,9,2
 231 0038 7C6B482E 		lwzx 3,11,9
 232              	.LBE377:
 233              	.LBE378:
 234              		.loc 1 63 0
 235 003c 4E800020 		blr
 236              		.cfi_endproc
 237              	.LFE1403:
 238              		.size	_ZN12SoundDecoder13GetLastBufferEv, .-_ZN12SoundDecoder13GetLastBufferEv
 239              		.section	.text._ZN12SoundDecoder17IsNextBufferReadyEv,"axG",@progbits,_ZN12SoundDecoder17IsNextBuf
 240              		.align 2
 241              		.weak	_ZN12SoundDecoder17IsNextBufferReadyEv
 242              		.type	_ZN12SoundDecoder17IsNextBufferReadyEv, @function
 243              	_ZN12SoundDecoder17IsNextBufferReadyEv:
 244              	.LFB1406:
 245              		.loc 1 66 0
 246              		.cfi_startproc
 247              	.LVL24:
 248              	.LBB379:
 249              	.LBB380:
 250              	.LBB381:
 251              	.LBB382:
 252              	.LBB383:
 253              		.loc 3 571 0
 254 0000 81630014 		lwz 11,20(3)
 255              	.LBE383:
 256              	.LBE382:
 257              	.LBE381:
 258              	.LBE380:
 259              	.LBE379:
 260              		.loc 1 66 0
 261 0004 7C691B78 		mr 9,3
 262              	.LVL25:
 263              	.LBB405:
 264              	.LBB404:
 265              	.LBB388:
 266              	.LBB386:
 267              	.LBB384:
 268              		.loc 3 571 0
 269 0008 80030010 		lwz 0,16(3)
 270              	.LBE384:
 271              	.LBE386:
 272              	.LBE388:
 273              		.loc 4 72 0
 274 000c 38600000 		li 3,0
 275              	.LVL26:
 276              	.LBB389:
 277              	.LBB387:
 278              	.LBB385:
 279              		.loc 3 571 0
 280 0010 7C005850 		subf 0,0,11
 281              	.LBE385:
 282              	.LBE387:
 283              	.LBE389:
 284              		.loc 4 72 0
 285 0014 7C001671 		srawi. 0,0,2
 286 0018 4C810020 		blelr- 0
 287              	.LVL27:
 288 001c A1490008 		lhz 10,8(9)
 289              	.LBB390:
 290              	.LBB391:
 291              		.file 5 "d:\\devkitpro\\devkitppc\\bin\\../lib/gcc/powerpc-eabi/4.6.3/../../../../powerpc-eabi/inc
 292              		.loc 5 80 0
 293 0020 81690028 		lwz 11,40(9)
 294              	.LBE391:
 295              	.LBE390:
 296              		.loc 4 72 0
 297 0024 392A0001 		addi 9,10,1
 298              	.LVL28:
 299 0028 7D4903D6 		divw 10,9,0
 300 002c 7C0A01D6 		mullw 0,10,0
 301 0030 7C004850 		subf 0,0,9
 302              	.LVL29:
 303              	.LBB395:
 304              	.LBB392:
 305              		.loc 5 80 0
 306 0034 5409E8FA 		rlwinm 9,0,29,3,29
 307              	.LBE392:
 308              	.LBE395:
 309              	.LBB396:
 310              	.LBB397:
 311              		.loc 5 692 0
 312 0038 540006FE 		rlwinm 0,0,0,27,31
 313              	.LVL30:
 314              	.LBE397:
 315              	.LBE396:
 316              	.LBB401:
 317              	.LBB393:
 318              		.loc 5 80 0
 319 003c 7D2B482E 		lwzx 9,11,9
 320              	.LBE393:
 321              	.LBE401:
 322              	.LBB402:
 323              	.LBB400:
 324              	.LBB398:
 325              	.LBB399:
 326              		.loc 5 200 0
 327 0040 39600001 		li 11,1
 328 0044 7D600030 		slw 0,11,0
 329              	.LVL31:
 330              	.LBE399:
 331              	.LBE398:
 332              	.LBE400:
 333              	.LBE402:
 334              	.LBB403:
 335              	.LBB394:
 336              		.loc 5 80 0
 337 0048 7C0B4839 		and. 11,0,9
 338 004c 7C600026 		mfcr 3
 339 0050 54631FFE 		rlwinm 3,3,3,1
 340 0054 68630001 		xori 3,3,1
 341              	.LBE394:
 342              	.LBE403:
 343              	.LBE404:
 344              	.LBE405:
 345              		.loc 1 66 0
 346 0058 4E800020 		blr
 347              		.cfi_endproc
 348              	.LFE1406:
 349              		.size	_ZN12SoundDecoder17IsNextBufferReadyEv, .-_ZN12SoundDecoder17IsNextBufferReadyEv
 350              		.section	.text._ZN12SoundDecoder17IsLastBufferReadyEv,"axG",@progbits,_ZN12SoundDecoder17IsLastBuf
 351              		.align 2
 352              		.weak	_ZN12SoundDecoder17IsLastBufferReadyEv
 353              		.type	_ZN12SoundDecoder17IsLastBufferReadyEv, @function
 354              	_ZN12SoundDecoder17IsLastBufferReadyEv:
 355              	.LFB1407:
 356              		.loc 1 67 0
 357              		.cfi_startproc
 358              	.LVL32:
 359              	.LBB406:
 360              	.LBB407:
 361              	.LBB408:
 362              	.LBB409:
 363              	.LBB410:
 364              		.loc 3 571 0
 365 0000 81630014 		lwz 11,20(3)
 366              	.LBE410:
 367              	.LBE409:
 368              	.LBE408:
 369              	.LBE407:
 370              	.LBE406:
 371              		.loc 1 67 0
 372 0004 7C691B78 		mr 9,3
 373              	.LVL33:
 374              	.LBB432:
 375              	.LBB431:
 376              	.LBB415:
 377              	.LBB413:
 378              	.LBB411:
 379              		.loc 3 571 0
 380 0008 80030010 		lwz 0,16(3)
 381              	.LBE411:
 382              	.LBE413:
 383              	.LBE415:
 384              		.loc 4 74 0
 385 000c 38600000 		li 3,0
 386              	.LVL34:
 387              	.LBB416:
 388              	.LBB414:
 389              	.LBB412:
 390              		.loc 3 571 0
 391 0010 7C005850 		subf 0,0,11
 392              	.LBE412:
 393              	.LBE414:
 394              	.LBE416:
 395              		.loc 4 74 0
 396 0014 7C001671 		srawi. 0,0,2
 397 0018 4C810020 		blelr- 0
 398              	.LVL35:
 399 001c A1490008 		lhz 10,8(9)
 400              	.LBB417:
 401              	.LBB418:
 402              		.loc 5 80 0
 403 0020 81690028 		lwz 11,40(9)
 404              	.LBE418:
 405              	.LBE417:
 406              		.loc 4 74 0
 407 0024 7D205214 		add 9,0,10
 408              	.LVL36:
 409 0028 3929FFFF 		addi 9,9,-1
 410 002c 7D4903D6 		divw 10,9,0
 411 0030 7C0A01D6 		mullw 0,10,0
 412 0034 7C004850 		subf 0,0,9
 413              	.LVL37:
 414              	.LBB422:
 415              	.LBB419:
 416              		.loc 5 80 0
 417 0038 5409E8FA 		rlwinm 9,0,29,3,29
 418              	.LBE419:
 419              	.LBE422:
 420              	.LBB423:
 421              	.LBB424:
 422              		.loc 5 692 0
 423 003c 540006FE 		rlwinm 0,0,0,27,31
 424              	.LVL38:
 425              	.LBE424:
 426              	.LBE423:
 427              	.LBB428:
 428              	.LBB420:
 429              		.loc 5 80 0
 430 0040 7D2B482E 		lwzx 9,11,9
 431              	.LBE420:
 432              	.LBE428:
 433              	.LBB429:
 434              	.LBB427:
 435              	.LBB425:
 436              	.LBB426:
 437              		.loc 5 200 0
 438 0044 39600001 		li 11,1
 439 0048 7D600030 		slw 0,11,0
 440              	.LVL39:
 441              	.LBE426:
 442              	.LBE425:
 443              	.LBE427:
 444              	.LBE429:
 445              	.LBB430:
 446              	.LBB421:
 447              		.loc 5 80 0
 448 004c 7C0B4839 		and. 11,0,9
 449 0050 7C600026 		mfcr 3
 450 0054 54631FFE 		rlwinm 3,3,3,1
 451 0058 68630001 		xori 3,3,1
 452              	.LBE421:
 453              	.LBE430:
 454              	.LBE431:
 455              	.LBE432:
 456              		.loc 1 67 0
 457 005c 4E800020 		blr
 458              		.cfi_endproc
 459              	.LFE1407:
 460              		.size	_ZN12SoundDecoder17IsLastBufferReadyEv, .-_ZN12SoundDecoder17IsLastBufferReadyEv
 461              		.section	.text._ZN12SoundDecoder5IsEOFEv,"axG",@progbits,_ZN12SoundDecoder5IsEOFEv,comdat
 462              		.align 2
 463              		.weak	_ZN12SoundDecoder5IsEOFEv
 464              		.type	_ZN12SoundDecoder5IsEOFEv, @function
 465              	_ZN12SoundDecoder5IsEOFEv:
 466              	.LFB1408:
 467              		.loc 1 68 0
 468              		.cfi_startproc
 469              	.LVL40:
 470              		.loc 1 68 0
 471 0000 88630049 		lbz 3,73(3)
 472              	.LVL41:
 473 0004 4E800020 		blr
 474              		.cfi_endproc
 475              	.LFE1408:
 476              		.size	_ZN12SoundDecoder5IsEOFEv, .-_ZN12SoundDecoder5IsEOFEv
 477              		.section	.text._ZN12SoundDecoder7SetLoopEb,"axG",@progbits,_ZN12SoundDecoder7SetLoopEb,comdat
 478              		.align 2
 479              		.weak	_ZN12SoundDecoder7SetLoopEb
 480              		.type	_ZN12SoundDecoder7SetLoopEb, @function
 481              	_ZN12SoundDecoder7SetLoopEb:
 482              	.LFB1409:
 483              		.loc 1 69 0
 484              		.cfi_startproc
 485              	.LVL42:
 486              		.loc 1 69 0
 487 0000 98830048 		stb 4,72(3)
 488 0004 4E800020 		blr
 489              		.cfi_endproc
 490              	.LFE1409:
 491              		.size	_ZN12SoundDecoder7SetLoopEb, .-_ZN12SoundDecoder7SetLoopEb
 492              		.section	.text._ZN12SoundDecoder12GetSoundTypeEv,"axG",@progbits,_ZN12SoundDecoder12GetSoundTypeEv
 493              		.align 2
 494              		.weak	_ZN12SoundDecoder12GetSoundTypeEv
 495              		.type	_ZN12SoundDecoder12GetSoundTypeEv, @function
 496              	_ZN12SoundDecoder12GetSoundTypeEv:
 497              	.LFB1410:
 498              		.loc 1 70 0
 499              		.cfi_startproc
 500              	.LVL43:
 501              		.loc 1 70 0
 502 0000 8863003C 		lbz 3,60(3)
 503              	.LVL44:
 504 0004 4E800020 		blr
 505              		.cfi_endproc
 506              	.LFE1410:
 507              		.size	_ZN12SoundDecoder12GetSoundTypeEv, .-_ZN12SoundDecoder12GetSoundTypeEv
 508              		.section	".text"
 509              		.align 2
 510              		.globl _ZN12SoundDecoder4ReadEPhii
 511              		.type	_ZN12SoundDecoder4ReadEPhii, @function
 512              	_ZN12SoundDecoder4ReadEPhii:
 513              	.LFB1429:
 514              		.loc 2 87 0
 515              		.cfi_startproc
 516              	.LVL45:
 517 0000 7C0802A6 		mflr 0
 518 0004 9421FFF0 		stwu 1,-16(1)
 519              	.LCFI0:
 520              		.cfi_def_cfa_offset 16
 521              		.cfi_register 65, 0
 522 0008 93E1000C 		stw 31,12(1)
 523 000c 7C7F1B78 		mr 31,3
 524              		.cfi_offset 31, -4
 525 0010 90010014 		stw 0,20(1)
 526              	.LBB433:
 527              		.loc 2 88 0
 528 0014 80630004 		lwz 3,4(3)
 529              	.LVL46:
 530              		.cfi_offset 65, 4
 531 0018 48000001 		bl _ZN5CFile4readEPhj
 532              	.LVL47:
 533              		.loc 2 89 0
 534 001c 801F0044 		lwz 0,68(31)
 535 0020 7C001A14 		add 0,0,3
 536 0024 901F0044 		stw 0,68(31)
 537              	.LBE433:
 538              		.loc 2 92 0
 539 0028 80010014 		lwz 0,20(1)
 540 002c 83E1000C 		lwz 31,12(1)
 541              	.LVL48:
 542 0030 7C0803A6 		mtlr 0
 543 0034 38210010 		addi 1,1,16
 544              	.LCFI1:
 545              		.cfi_def_cfa_offset 0
 546              		.cfi_restore 31
 547 0038 4E800020 		blr
 548              		.cfi_endproc
 549              	.LFE1429:
 550              		.size	_ZN12SoundDecoder4ReadEPhii, .-_ZN12SoundDecoder4ReadEPhii
 551              		.section	.text._ZN12SoundDecoder4SeekEi,"axG",@progbits,_ZN12SoundDecoder4SeekEi,comdat
 552              		.align 2
 553              		.weak	_ZN12SoundDecoder4SeekEi
 554              		.type	_ZN12SoundDecoder4SeekEi, @function
 555              	_ZN12SoundDecoder4SeekEi:
 556              	.LFB1397:
 557              		.loc 1 55 0
 558              		.cfi_startproc
 559              	.LVL49:
 560 0000 7C0802A6 		mflr 0
 561 0004 9421FFF8 		stwu 1,-8(1)
 562              	.LCFI2:
 563              		.cfi_def_cfa_offset 8
 564              		.cfi_register 65, 0
 565 0008 38A00000 		li 5,0
 566 000c 9001000C 		stw 0,12(1)
 567              		.loc 1 55 0
 568 0010 90830044 		stw 4,68(3)
 569 0014 80630004 		lwz 3,4(3)
 570              	.LVL50:
 571              		.cfi_offset 65, 4
 572 0018 48000001 		bl _ZN5CFile4seekEli
 573              	.LVL51:
 574 001c 8001000C 		lwz 0,12(1)
 575 0020 38210008 		addi 1,1,8
 576              	.LCFI3:
 577              		.cfi_def_cfa_offset 0
 578 0024 7C0803A6 		mtlr 0
 579 0028 4E800020 		blr
 580              		.cfi_endproc
 581              	.LFE1397:
 582              		.size	_ZN12SoundDecoder4SeekEi, .-_ZN12SoundDecoder4SeekEi
 583              		.section	".text"
 584              		.align 2
 585              		.globl _ZN12SoundDecoder6RewindEv
 586              		.type	_ZN12SoundDecoder6RewindEv, @function
 587              	_ZN12SoundDecoder6RewindEv:
 588              	.LFB1428:
 589              		.loc 2 78 0
 590              		.cfi_startproc
 591              	.LVL52:
 592 003c 7C0802A6 		mflr 0
 593 0040 9421FFF8 		stwu 1,-8(1)
 594              	.LCFI4:
 595              		.cfi_def_cfa_offset 8
 596              		.cfi_register 65, 0
 597              	.LBB434:
 598              	.LBB435:
 599              		.file 6 "d:/Projects/SaveGameManager/savegame-manager-gx/trunk/source/SoundOperations/../FileOpera
 600              		.loc 6 22 0
 601 0044 38800000 		li 4,0
 602 0048 38A00000 		li 5,0
 603              	.LBE435:
 604              	.LBE434:
 605              		.loc 2 78 0
 606 004c 9001000C 		stw 0,12(1)
 607              		.loc 2 79 0
 608 0050 38000000 		li 0,0
 609              		.cfi_offset 65, 4
 610 0054 90030044 		stw 0,68(3)
 611              		.loc 2 80 0
 612 0058 98030049 		stb 0,73(3)
 613              	.LVL53:
 614              	.LBB437:
 615              	.LBB436:
 616              		.loc 6 22 0
 617 005c 80630004 		lwz 3,4(3)
 618              	.LVL54:
 619 0060 48000001 		bl _ZN5CFile4seekEli
 620              	.LVL55:
 621              	.LBE436:
 622              	.LBE437:
 623              		.loc 2 84 0
 624 0064 8001000C 		lwz 0,12(1)
 625 0068 38600000 		li 3,0
 626 006c 7C0803A6 		mtlr 0
 627 0070 38210008 		addi 1,1,8
 628              	.LCFI5:
 629              		.cfi_def_cfa_offset 0
 630 0074 4E800020 		blr
 631              		.cfi_endproc
 632              	.LFE1428:
 633              		.size	_ZN12SoundDecoder6RewindEv, .-_ZN12SoundDecoder6RewindEv
 634              		.align 2
 635              		.globl _ZN12SoundDecoderD2Ev
 636              		.type	_ZN12SoundDecoderD2Ev, @function
 637              	_ZN12SoundDecoderD2Ev:
 638              	.LFB1424:
 639              		.loc 2 52 0
 640              		.cfi_startproc
 641              		.cfi_personality 0,__gxx_personality_v0
 642              		.cfi_lsda 0,.LLSDA1424
 643              	.LVL56:
 644 0078 7C0802A6 		mflr 0
 645 007c 9421FFF0 		stwu 1,-16(1)
 646              	.LCFI6:
 647              		.cfi_def_cfa_offset 16
 648              		.cfi_register 65, 0
 649              	.LBB439:
 650 0080 3D200000 		lis 9,_ZTV12SoundDecoder+8@ha
 651              	.LBE439:
 652 0084 93E1000C 		stw 31,12(1)
 653 0088 7C7F1B78 		mr 31,3
 654              		.cfi_offset 31, -4
 655 008c 90010014 		stw 0,20(1)
 656              	.LBB440:
 657 0090 38090008 		la 0,_ZTV12SoundDecoder+8@l(9)
 658              		.cfi_offset 65, 4
 659              	.LBE440:
 660 0094 93C10008 		stw 30,8(1)
 661              	.LBB441:
 662              		.loc 2 52 0
 663 0098 90030000 		stw 0,0(3)
 664              		.loc 2 54 0
 665 009c 38000001 		li 0,1
 666 00a0 9803004B 		stb 0,75(3)
 667              		.loc 2 55 0
 668 00a4 4800000C 		b .L27
 669              		.cfi_offset 30, -8
 670              	.LVL57:
 671              	.L28:
 672              		.loc 2 56 0
 673 00a8 386003E8 		li 3,1000
 674              	.LEHB0:
 675 00ac 48000001 		bl usleep
 676              	.L27:
 677              		.loc 2 55 0 discriminator 1
 678 00b0 881F004A 		lbz 0,74(31)
 679 00b4 2F800000 		cmpwi 7,0,0
 680 00b8 409EFFF0 		bne+ 7,.L28
 681              		.loc 2 58 0
 682 00bc 83DF0004 		lwz 30,4(31)
 683 00c0 2F9E0000 		cmpwi 7,30,0
 684 00c4 419E0014 		beq- 7,.L29
 685              		.loc 2 59 0
 686 00c8 7FC3F378 		mr 3,30
 687 00cc 48000001 		bl _ZN5CFileD1Ev
 688              	.LEHE0:
 689              		.loc 2 59 0 is_stmt 0 discriminator 1
 690 00d0 7FC3F378 		mr 3,30
 691 00d4 48000001 		bl _ZdlPv
 692              	.L29:
 693              		.loc 2 60 0 is_stmt 1
 694 00d8 38000000 		li 0,0
 695              		.loc 2 52 0
 696 00dc 387F0008 		addi 3,31,8
 697              		.loc 2 60 0
 698 00e0 901F0004 		stw 0,4(31)
 699              	.LEHB1:
 700              		.loc 2 52 0
 701 00e4 48000001 		bl _ZN12BufferCircleD1Ev
 702              	.LEHE1:
 703              	.LBE441:
 704              		.loc 2 61 0
 705 00e8 80010014 		lwz 0,20(1)
 706 00ec 83C10008 		lwz 30,8(1)
 707 00f0 7C0803A6 		mtlr 0
 708 00f4 83E1000C 		lwz 31,12(1)
 709              	.LVL58:
 710 00f8 38210010 		addi 1,1,16
 711              		.cfi_remember_state
 712              	.LCFI7:
 713              		.cfi_def_cfa_offset 0
 714              		.cfi_restore 31
 715              		.cfi_restore 30
 716 00fc 4E800020 		blr
 717              	.LVL59:
 718              	.L32:
 719              	.LCFI8:
 720              		.cfi_restore_state
 721 0100 7C7E1B78 		mr 30,3
 722              	.LBB442:
 723              		.loc 2 52 0
 724 0104 387F0008 		addi 3,31,8
 725 0108 48000001 		bl _ZN12BufferCircleD1Ev
 726 010c 7FC3F378 		mr 3,30
 727              	.LEHB2:
 728 0110 48000001 		bl _Unwind_Resume
 729              	.LEHE2:
 730              	.LBE442:
 731              		.cfi_endproc
 732              	.LFE1424:
 733              		.globl __gxx_personality_v0
 734              		.section	.gcc_except_table,"a",@progbits
 735              	.LLSDA1424:
 736 0000 FF       		.byte	0xff
 737 0001 FF       		.byte	0xff
 738 0002 01       		.byte	0x1
 739 0003 0E       		.uleb128 .LLSDACSE1424-.LLSDACSB1424
 740              	.LLSDACSB1424:
 741 0004 34       		.uleb128 .LEHB0-.LFB1424
 742 0005 24       		.uleb128 .LEHE0-.LEHB0
 743 0006 8801     		.uleb128 .L32-.LFB1424
 744 0008 00       		.uleb128 0
 745 0009 6C       		.uleb128 .LEHB1-.LFB1424
 746 000a 04       		.uleb128 .LEHE1-.LEHB1
 747 000b 00       		.uleb128 0
 748 000c 00       		.uleb128 0
 749 000d 9801     		.uleb128 .LEHB2-.LFB1424
 750 000f 04       		.uleb128 .LEHE2-.LEHB2
 751 0010 00       		.uleb128 0
 752 0011 00       		.uleb128 0
 753              	.LLSDACSE1424:
 754              		.section	".text"
 755              		.size	_ZN12SoundDecoderD2Ev, .-_ZN12SoundDecoderD2Ev
 756              		.section	.text._ZN12SoundDecoder11ClearBufferEv,"axG",@progbits,_ZN12SoundDecoder11ClearBufferEv,c
 757              		.align 2
 758              		.weak	_ZN12SoundDecoder11ClearBufferEv
 759              		.type	_ZN12SoundDecoder11ClearBufferEv, @function
 760              	_ZN12SoundDecoder11ClearBufferEv:
 761              	.LFB1411:
 762              		.loc 1 71 0
 763              		.cfi_startproc
 764              	.LVL60:
 765 0000 7C0802A6 		mflr 0
 766 0004 9421FFF8 		stwu 1,-8(1)
 767              	.LCFI9:
 768              		.cfi_def_cfa_offset 8
 769              		.cfi_register 65, 0
 770 0008 38630008 		addi 3,3,8
 771              	.LVL61:
 772 000c 9001000C 		stw 0,12(1)
 773              		.loc 1 71 0
 774              		.cfi_offset 65, 4
 775 0010 48000001 		bl _ZN12BufferCircle11ClearBufferEv
 776              	.LVL62:
 777 0014 8001000C 		lwz 0,12(1)
 778 0018 38210008 		addi 1,1,8
 779              	.LCFI10:
 780              		.cfi_def_cfa_offset 0
 781 001c 7C0803A6 		mtlr 0
 782 0020 4E800020 		blr
 783              		.cfi_endproc
 784              	.LFE1411:
 785              		.size	_ZN12SoundDecoder11ClearBufferEv, .-_ZN12SoundDecoder11ClearBufferEv
 786              		.section	.text._ZN12SoundDecoder8LoadNextEv,"axG",@progbits,_ZN12SoundDecoder8LoadNextEv,comdat
 787              		.align 2
 788              		.weak	_ZN12SoundDecoder8LoadNextEv
 789              		.type	_ZN12SoundDecoder8LoadNextEv, @function
 790              	_ZN12SoundDecoder8LoadNextEv:
 791              	.LFB1404:
 792              		.loc 1 64 0
 793              		.cfi_startproc
 794              	.LVL63:
 795 0000 7C0802A6 		mflr 0
 796 0004 9421FFF8 		stwu 1,-8(1)
 797              	.LCFI11:
 798              		.cfi_def_cfa_offset 8
 799              		.cfi_register 65, 0
 800 0008 38630008 		addi 3,3,8
 801              	.LVL64:
 802 000c 9001000C 		stw 0,12(1)
 803              		.loc 1 64 0
 804              		.cfi_offset 65, 4
 805 0010 48000001 		bl _ZN12BufferCircle8LoadNextEv
 806              	.LVL65:
 807 0014 8001000C 		lwz 0,12(1)
 808 0018 38210008 		addi 1,1,8
 809              	.LCFI12:
 810              		.cfi_def_cfa_offset 0
 811 001c 7C0803A6 		mtlr 0
 812 0020 4E800020 		blr
 813              		.cfi_endproc
 814              	.LFE1404:
 815              		.size	_ZN12SoundDecoder8LoadNextEv, .-_ZN12SoundDecoder8LoadNextEv
 816              		.section	.text._ZN12SoundDecoder8IsStereoEv,"axG",@progbits,_ZN12SoundDecoder8IsStereoEv,comdat
 817              		.align 2
 818              		.weak	_ZN12SoundDecoder8IsStereoEv
 819              		.type	_ZN12SoundDecoder8IsStereoEv, @function
 820              	_ZN12SoundDecoder8IsStereoEv:
 821              	.LFB1412:
 822              		.loc 1 72 0
 823              		.cfi_startproc
 824              	.LVL66:
 825 0000 7C0802A6 		mflr 0
 826 0004 9421FFF0 		stwu 1,-16(1)
 827              	.LCFI13:
 828              		.cfi_def_cfa_offset 16
 829              		.cfi_register 65, 0
 830 0008 93E1000C 		stw 31,12(1)
 831 000c 7C7F1B78 		mr 31,3
 832              		.cfi_offset 31, -4
 833 0010 90010014 		stw 0,20(1)
 834              		.loc 1 72 0
 835 0014 81230000 		lwz 9,0(3)
 836 0018 80090018 		lwz 0,24(9)
 837              		.cfi_offset 65, 4
 838 001c 7C0903A6 		mtctr 0
 839 0020 4E800421 		bctrl
 840              	.LVL67:
 841 0024 2F830003 		cmpwi 7,3,3
 842 0028 38600001 		li 3,1
 843 002c 419E0024 		beq- 7,.L36
 844              	.LVL68:
 845              	.LBB445:
 846              	.LBB446:
 847 0030 813F0000 		lwz 9,0(31)
 848 0034 7FE3FB78 		mr 3,31
 849 0038 80090018 		lwz 0,24(9)
 850 003c 7C0903A6 		mtctr 0
 851 0040 4E800421 		bctrl
 852 0044 68630002 		xori 3,3,2
 853 0048 7C630034 		cntlzw 3,3
 854 004c 5463D97E 		srwi 3,3,5
 855              	.LVL69:
 856              	.L36:
 857              	.LBE446:
 858              	.LBE445:
 859              		.loc 1 72 0 is_stmt 0 discriminator 4
 860 0050 80010014 		lwz 0,20(1)
 861 0054 83E1000C 		lwz 31,12(1)
 862              	.LVL70:
 863 0058 7C0803A6 		mtlr 0
 864 005c 38210010 		addi 1,1,16
 865              	.LCFI14:
 866              		.cfi_def_cfa_offset 0
 867              		.cfi_restore 31
 868 0060 4E800020 		blr
 869              		.cfi_endproc
 870              	.LFE1412:
 871              		.size	_ZN12SoundDecoder8IsStereoEv, .-_ZN12SoundDecoder8IsStereoEv
 872              		.section	.text._ZN12SoundDecoder7Is16BitEv,"axG",@progbits,_ZN12SoundDecoder7Is16BitEv,comdat
 873              		.align 2
 874              		.weak	_ZN12SoundDecoder7Is16BitEv
 875              		.type	_ZN12SoundDecoder7Is16BitEv, @function
 876              	_ZN12SoundDecoder7Is16BitEv:
 877              	.LFB1413:
 878              		.loc 1 73 0 is_stmt 1
 879              		.cfi_startproc
 880              	.LVL71:
 881 0000 7C0802A6 		mflr 0
 882 0004 9421FFF0 		stwu 1,-16(1)
 883              	.LCFI15:
 884              		.cfi_def_cfa_offset 16
 885              		.cfi_register 65, 0
 886 0008 93E1000C 		stw 31,12(1)
 887 000c 7C7F1B78 		mr 31,3
 888              		.cfi_offset 31, -4
 889 0010 90010014 		stw 0,20(1)
 890              		.loc 1 73 0
 891 0014 81230000 		lwz 9,0(3)
 892 0018 80090018 		lwz 0,24(9)
 893              		.cfi_offset 65, 4
 894 001c 7C0903A6 		mtctr 0
 895 0020 4E800421 		bctrl
 896              	.LVL72:
 897 0024 2F830003 		cmpwi 7,3,3
 898 0028 38600001 		li 3,1
 899 002c 419E0024 		beq- 7,.L39
 900              	.LVL73:
 901              	.LBB449:
 902              	.LBB450:
 903 0030 813F0000 		lwz 9,0(31)
 904 0034 7FE3FB78 		mr 3,31
 905 0038 80090018 		lwz 0,24(9)
 906 003c 7C0903A6 		mtctr 0
 907 0040 4E800421 		bctrl
 908 0044 68630001 		xori 3,3,1
 909 0048 7C630034 		cntlzw 3,3
 910 004c 5463D97E 		srwi 3,3,5
 911              	.LVL74:
 912              	.L39:
 913              	.LBE450:
 914              	.LBE449:
 915              		.loc 1 73 0 is_stmt 0 discriminator 4
 916 0050 80010014 		lwz 0,20(1)
 917 0054 83E1000C 		lwz 31,12(1)
 918              	.LVL75:
 919 0058 7C0803A6 		mtlr 0
 920 005c 38210010 		addi 1,1,16
 921              	.LCFI16:
 922              		.cfi_def_cfa_offset 0
 923              		.cfi_restore 31
 924 0060 4E800020 		blr
 925              		.cfi_endproc
 926              	.LFE1413:
 927              		.size	_ZN12SoundDecoder7Is16BitEv, .-_ZN12SoundDecoder7Is16BitEv
 928              		.section	.text._ZN12SoundDecoder13GetBufferSizeEv,"axG",@progbits,_ZN12SoundDecoder13GetBufferSize
 929              		.align 2
 930              		.weak	_ZN12SoundDecoder13GetBufferSizeEv
 931              		.type	_ZN12SoundDecoder13GetBufferSizeEv, @function
 932              	_ZN12SoundDecoder13GetBufferSizeEv:
 933              	.LFB1400:
 934              		.loc 1 60 0 is_stmt 1
 935              		.cfi_startproc
 936              	.LVL76:
 937              	.LBB471:
 938              	.LBB472:
 939              	.LBB473:
 940              	.LBB474:
 941              	.LBB475:
 942              	.LBB476:
 943              	.LBB477:
 944              		.loc 3 571 0
 945 0000 81430014 		lwz 10,20(3)
 946              	.LBE477:
 947              	.LBE476:
 948              	.LBE475:
 949              	.LBE474:
 950              	.LBE473:
 951              	.LBE472:
 952              	.LBE471:
 953              		.loc 1 60 0
 954 0004 7C691B78 		mr 9,3
 955              	.LVL77:
 956              	.LBB489:
 957              	.LBB488:
 958              	.LBB486:
 959              	.LBB484:
 960              	.LBB482:
 961              	.LBB480:
 962              	.LBB478:
 963              		.loc 3 571 0
 964 0008 81630010 		lwz 11,16(3)
 965              	.LBE478:
 966              	.LBE480:
 967              	.LBE482:
 968              	.LBE484:
 969              	.LBE486:
 970              		.loc 4 62 0
 971 000c A0030008 		lhz 0,8(3)
 972              	.LVL78:
 973              	.LBB487:
 974              	.LBB485:
 975 0010 38600000 		li 3,0
 976              	.LVL79:
 977              	.LBB483:
 978              	.LBB481:
 979              	.LBB479:
 980              		.loc 3 571 0
 981 0014 7D6B5050 		subf 11,11,10
 982 0018 7D6B1670 		srawi 11,11,2
 983              	.LBE479:
 984              	.LBE481:
 985              	.LBE483:
 986              		.loc 4 83 0
 987 001c 7F805800 		cmpw 7,0,11
 988 0020 4C9C0020 		bgelr- 7
 989              	.LVL80:
 990              	.LBE485:
 991              	.LBE487:
 992              	.LBE488:
 993              	.LBE489:
 994              	.LBB490:
 995              	.LBB491:
 996              	.LBB492:
 997              		.loc 4 62 0
 998 0024 8129001C 		lwz 9,28(9)
 999              	.LVL81:
 1000 0028 5400103A 		slwi 0,0,2
 1001              	.LVL82:
 1002 002c 7C69002E 		lwzx 3,9,0
 1003              	.LBE492:
 1004              	.LBE491:
 1005              	.LBE490:
 1006              		.loc 1 60 0
 1007 0030 4E800020 		blr
 1008              		.cfi_endproc
 1009              	.LFE1400:
 1010              		.size	_ZN12SoundDecoder13GetBufferSizeEv, .-_ZN12SoundDecoder13GetBufferSizeEv
 1011              		.section	.text._ZN12SoundDecoder13IsBufferReadyEv,"axG",@progbits,_ZN12SoundDecoder13IsBufferReady
 1012              		.align 2
 1013              		.weak	_ZN12SoundDecoder13IsBufferReadyEv
 1014              		.type	_ZN12SoundDecoder13IsBufferReadyEv, @function
 1015              	_ZN12SoundDecoder13IsBufferReadyEv:
 1016              	.LFB1405:
 1017              		.loc 1 65 0
 1018              		.cfi_startproc
 1019              	.LVL83:
 1020              	.LBB517:
 1021              	.LBB518:
 1022              	.LBB519:
 1023              	.LBB520:
 1024              	.LBB521:
 1025              	.LBB522:
 1026              	.LBB523:
 1027              		.loc 3 571 0
 1028 0000 81430014 		lwz 10,20(3)
 1029              	.LBE523:
 1030              	.LBE522:
 1031              	.LBE521:
 1032              	.LBE520:
 1033              	.LBE519:
 1034              	.LBE518:
 1035              	.LBE517:
 1036              		.loc 1 65 0
 1037 0004 7C691B78 		mr 9,3
 1038              	.LVL84:
 1039              	.LBB535:
 1040              	.LBB534:
 1041              	.LBB532:
 1042              	.LBB530:
 1043              	.LBB528:
 1044              	.LBB526:
 1045              	.LBB524:
 1046              		.loc 3 571 0
 1047 0008 81630010 		lwz 11,16(3)
 1048              	.LBE524:
 1049              	.LBE526:
 1050              	.LBE528:
 1051              	.LBE530:
 1052              	.LBE532:
 1053              		.loc 4 68 0
 1054 000c A0030008 		lhz 0,8(3)
 1055              	.LVL85:
 1056              	.LBB533:
 1057              	.LBB531:
 1058 0010 38600000 		li 3,0
 1059              	.LVL86:
 1060              	.LBB529:
 1061              	.LBB527:
 1062              	.LBB525:
 1063              		.loc 3 571 0
 1064 0014 7D6B5050 		subf 11,11,10
 1065 0018 7D6B1670 		srawi 11,11,2
 1066              	.LBE525:
 1067              	.LBE527:
 1068              	.LBE529:
 1069              		.loc 4 83 0
 1070 001c 7F805800 		cmpw 7,0,11
 1071 0020 4C9C0020 		bgelr- 7
 1072              	.LVL87:
 1073              	.LBE531:
 1074              	.LBE533:
 1075              	.LBE534:
 1076              	.LBE535:
 1077              	.LBB536:
 1078              	.LBB537:
 1079              	.LBB538:
 1080              	.LBB539:
 1081              	.LBB540:
 1082              		.loc 5 80 0
 1083 0024 81690028 		lwz 11,40(9)
 1084 0028 5409ECFA 		rlwinm 9,0,29,19,29
 1085              	.LVL88:
 1086              	.LBE540:
 1087              	.LBE539:
 1088              	.LBB543:
 1089              	.LBB544:
 1090              		.loc 5 692 0
 1091 002c 540006FE 		rlwinm 0,0,0,27,31
 1092              	.LVL89:
 1093              	.LBE544:
 1094              	.LBE543:
 1095              	.LBB548:
 1096              	.LBB541:
 1097              		.loc 5 80 0
 1098 0030 7D2B482E 		lwzx 9,11,9
 1099              	.LBE541:
 1100              	.LBE548:
 1101              	.LBB549:
 1102              	.LBB547:
 1103              	.LBB545:
 1104              	.LBB546:
 1105              		.loc 5 200 0
 1106 0034 39600001 		li 11,1
 1107 0038 7D600030 		slw 0,11,0
 1108              	.LVL90:
 1109              	.LBE546:
 1110              	.LBE545:
 1111              	.LBE547:
 1112              	.LBE549:
 1113              	.LBB550:
 1114              	.LBB542:
 1115              		.loc 5 80 0
 1116 003c 7C0B4839 		and. 11,0,9
 1117 0040 7C600026 		mfcr 3
 1118 0044 54631FFE 		rlwinm 3,3,3,1
 1119 0048 68630001 		xori 3,3,1
 1120              	.LBE542:
 1121              	.LBE550:
 1122              	.LBE538:
 1123              	.LBE537:
 1124              	.LBE536:
 1125              		.loc 1 65 0
 1126 004c 4E800020 		blr
 1127              		.cfi_endproc
 1128              	.LFE1405:
 1129              		.size	_ZN12SoundDecoder13IsBufferReadyEv, .-_ZN12SoundDecoder13IsBufferReadyEv
 1130              		.section	".text"
 1131              		.align 2
 1132              		.globl _ZN12SoundDecoder6DecodeEv
 1133              		.type	_ZN12SoundDecoder6DecodeEv, @function
 1134              	_ZN12SoundDecoder6DecodeEv:
 1135              	.LFB1430:
 1136              		.loc 2 95 0
 1137              		.cfi_startproc
 1138              	.LVL91:
 1139 0114 7C0802A6 		mflr 0
 1140 0118 9421FFD8 		stwu 1,-40(1)
 1141              	.LCFI17:
 1142              		.cfi_def_cfa_offset 40
 1143              		.cfi_register 65, 0
 1144 011c 93C10020 		stw 30,32(1)
 1145 0120 7C7E1B78 		mr 30,3
 1146              		.cfi_offset 30, -8
 1147 0124 9001002C 		stw 0,44(1)
 1148 0128 9321000C 		stw 25,12(1)
 1149              	.LBB626:
 1150              		.loc 2 96 0
 1151 012c 80030004 		lwz 0,4(3)
 1152              		.cfi_offset 25, -28
 1153              		.cfi_offset 65, 4
 1154              	.LBE626:
 1155              		.loc 2 95 0
 1156 0130 93410010 		stw 26,16(1)
 1157              	.LBB627:
 1158              		.loc 2 96 0
 1159 0134 2F800000 		cmpwi 7,0,0
 1160              	.LBE627:
 1161              		.loc 2 95 0
 1162 0138 93610014 		stw 27,20(1)
 1163 013c 93810018 		stw 28,24(1)
 1164 0140 93A1001C 		stw 29,28(1)
 1165 0144 93E10024 		stw 31,36(1)
 1166              	.LBB628:
 1167              		.loc 2 96 0
 1168 0148 419E01AC 		beq- 7,.L47
 1169              		.cfi_offset 31, -4
 1170              		.cfi_offset 29, -12
 1171              		.cfi_offset 28, -16
 1172              		.cfi_offset 27, -20
 1173              		.cfi_offset 26, -24
 1174              		.loc 2 96 0 is_stmt 0 discriminator 1
 1175 014c 8803004B 		lbz 0,75(3)
 1176 0150 2F800000 		cmpwi 7,0,0
 1177 0154 409E01A0 		bne- 7,.L47
 1178              		.loc 2 96 0 discriminator 2
 1179 0158 88030049 		lbz 0,73(3)
 1180 015c 2F800000 		cmpwi 7,0,0
 1181 0160 409E0194 		bne- 7,.L47
 1182              	.LVL92:
 1183              	.LBE628:
 1184              	.LBB629:
 1185              	.LBB630:
 1186              	.LBB631:
 1187              		.loc 2 154 0 is_stmt 1
 1188 0164 80830010 		lwz 4,16(3)
 1189              	.LBB632:
 1190              	.LBB633:
 1191              		.loc 3 571 0
 1192 0168 80030014 		lwz 0,20(3)
 1193              	.LBE633:
 1194              	.LBE632:
 1195              	.LBE631:
 1196              	.LBE630:
 1197              		.loc 2 154 0
 1198 016c A3E30008 		lhz 31,8(3)
 1199              	.LVL93:
 1200              	.LBB723:
 1201              	.LBB636:
 1202              	.LBB635:
 1203              	.LBB634:
 1204              		.loc 3 571 0
 1205 0170 7C040050 		subf 0,4,0
 1206 0174 7C001670 		srawi 0,0,2
 1207              	.LBE634:
 1208              	.LBE635:
 1209              	.LBE636:
 1210              		.loc 2 101 0
 1211 0178 3500FFFE 		addic. 8,0,-2
 1212 017c 4081021C 		ble- 0,.L63
 1213              	.LVL94:
 1214              	.LBB637:
 1215              	.LBB638:
 1216              	.LBB639:
 1217              		.loc 4 83 0
 1218 0180 7F80F800 		cmpw 7,0,31
 1219 0184 409D0070 		ble- 7,.L50
 1220              	.LVL95:
 1221              	.LBE639:
 1222              	.LBE638:
 1223              	.LBB642:
 1224              		.loc 2 154 0
 1225 0188 80A30028 		lwz 5,40(3)
 1226              	.LVL96:
 1227              	.LBB643:
 1228              	.LBB644:
 1229              	.LBB645:
 1230              		.loc 5 80 0
 1231 018c 57E9ECFA 		rlwinm 9,31,29,19,29
 1232              	.LBE645:
 1233              	.LBE644:
 1234              	.LBB649:
 1235              	.LBB650:
 1236              		.loc 5 692 0
 1237 0190 57EB06FE 		rlwinm 11,31,0,27,31
 1238              	.LBB651:
 1239              	.LBB652:
 1240              		.loc 5 200 0
 1241 0194 39400001 		li 10,1
 1242              	.LBE652:
 1243              	.LBE651:
 1244              	.LBE650:
 1245              	.LBE649:
 1246              	.LBB663:
 1247              	.LBB646:
 1248              		.loc 5 80 0
 1249 0198 7D25482E 		lwzx 9,5,9
 1250              	.LBE646:
 1251              	.LBE663:
 1252              	.LBB664:
 1253              	.LBB659:
 1254              	.LBB656:
 1255              	.LBB653:
 1256              		.loc 5 200 0
 1257 019c 7D4B5830 		slw 11,10,11
 1258              	.LBE653:
 1259              	.LBE656:
 1260              	.LBE659:
 1261              	.LBE664:
 1262              	.LBE643:
 1263              	.LBE642:
 1264              	.LBE637:
 1265              		.loc 2 103 0
 1266 01a0 7D634839 		and. 3,11,9
 1267              	.LVL97:
 1268 01a4 41820050 		beq- 0,.L50
 1269 01a8 39200000 		li 9,0
 1270              	.LBB680:
 1271              	.LBB674:
 1272              	.LBB670:
 1273              	.LBB665:
 1274              	.LBB660:
 1275              	.LBB657:
 1276              	.LBB654:
 1277              		.loc 5 200 0
 1278 01ac 38C00001 		li 6,1
 1279              	.LVL98:
 1280              	.L51:
 1281              	.LBE654:
 1282              	.LBE657:
 1283              	.LBE660:
 1284              	.LBE665:
 1285              	.LBE670:
 1286              	.LBE674:
 1287              	.LBE680:
 1288              		.loc 2 106 0
 1289 01b0 3BFF0001 		addi 31,31,1
 1290              	.LVL99:
 1291              		.loc 2 101 0
 1292 01b4 39290001 		addi 9,9,1
 1293              		.loc 2 106 0
 1294 01b8 7D7F03D6 		divw 11,31,0
 1295              		.loc 2 101 0
 1296 01bc 5529043E 		rlwinm 9,9,0,0xffff
 1297 01c0 7F894000 		cmpw 7,9,8
 1298 01c4 7D274B78 		mr 7,9
 1299              		.loc 2 106 0
 1300 01c8 7D6B01D6 		mullw 11,11,0
 1301 01cc 7FEBF850 		subf 31,11,31
 1302              	.LVL100:
 1303 01d0 57FF043E 		rlwinm 31,31,0,0xffff
 1304              	.LVL101:
 1305              	.LBB681:
 1306              	.LBB675:
 1307              	.LBB671:
 1308              	.LBB666:
 1309              	.LBB661:
 1310              		.loc 5 692 0
 1311 01d4 57EB06FE 		rlwinm 11,31,0,27,31
 1312              	.LBE661:
 1313              	.LBE666:
 1314              	.LBB667:
 1315              	.LBB647:
 1316              		.loc 5 80 0
 1317 01d8 57EAECFA 		rlwinm 10,31,29,19,29
 1318              	.LBE647:
 1319              	.LBE667:
 1320              	.LBE671:
 1321              	.LBE675:
 1322              	.LBB676:
 1323              	.LBB640:
 1324              		.loc 4 83 0
 1325 01dc 7F1F0000 		cmpw 6,31,0
 1326              	.LBE640:
 1327              	.LBE676:
 1328              	.LBB677:
 1329              	.LBB672:
 1330              	.LBB668:
 1331              	.LBB662:
 1332              	.LBB658:
 1333              	.LBB655:
 1334              		.loc 5 200 0
 1335 01e0 7CCB5830 		slw 11,6,11
 1336              	.LBE655:
 1337              	.LBE658:
 1338              	.LBE662:
 1339              	.LBE668:
 1340              	.LBE672:
 1341              	.LBE677:
 1342              	.LBE681:
 1343              		.loc 2 101 0
 1344 01e4 409C0008 		bge- 7,.L49
 1345              	.LVL102:
 1346              	.LBB682:
 1347              	.LBB678:
 1348              	.LBB641:
 1349              		.loc 4 83 0
 1350 01e8 41980138 		blt- 6,.L69
 1351              	.LVL103:
 1352              	.L49:
 1353              	.LBE641:
 1354              	.LBE678:
 1355              	.LBE682:
 1356              		.loc 2 109 0
 1357 01ec 7F883800 		cmpw 7,8,7
 1358 01f0 419E0104 		beq- 7,.L47
 1359              	.LVL104:
 1360              	.L50:
 1361              	.LBB683:
 1362              	.LBB684:
 1363              	.LBB685:
 1364              	.LBB686:
 1365              		.loc 4 83 0
 1366 01f4 7F9F0000 		cmpw 7,31,0
 1367              	.LBE686:
 1368              	.LBE685:
 1369              	.LBE684:
 1370              	.LBE683:
 1371              		.loc 2 112 0
 1372 01f8 38000001 		li 0,1
 1373 01fc 981E004A 		stb 0,74(30)
 1374              	.LVL105:
 1375              	.LBB691:
 1376              	.LBB689:
 1377              	.LBB688:
 1378              	.LBB687:
 1379              		.loc 4 83 0
 1380 0200 409C0184 		bge- 7,.L53
 1381              	.LVL106:
 1382              	.LBE687:
 1383              	.LBE688:
 1384              		.loc 4 56 0
 1385 0204 57E0103A 		slwi 0,31,2
 1386              	.LBE689:
 1387              	.LBE691:
 1388              		.loc 2 116 0
 1389 0208 3BA00000 		li 29,0
 1390              	.LBB692:
 1391              	.LBB690:
 1392              		.loc 4 56 0
 1393 020c 7F64002E 		lwzx 27,4,0
 1394              	.LVL107:
 1395              	.LBE690:
 1396              	.LBE692:
 1397              		.loc 2 116 0
 1398 0210 2F9B0000 		cmpwi 7,27,0
 1399 0214 419E0170 		beq- 7,.L53
 1400              	.LVL108:
 1401              	.L68:
 1402              		.loc 2 123 0
 1403 0218 801E0040 		lwz 0,64(30)
 1404              	.LBB693:
 1405              		.loc 2 125 0
 1406 021c 7F3BEA14 		add 25,27,29
 1407 0220 7FC3F378 		mr 3,30
 1408              	.LBE693:
 1409              		.loc 2 123 0
 1410 0224 7F9D0000 		cmpw 7,29,0
 1411              	.LBB694:
 1412              		.loc 2 125 0
 1413 0228 7F5D0050 		subf 26,29,0
 1414              	.LBE694:
 1415              		.loc 2 123 0
 1416 022c 409C0054 		bge- 7,.L58
 1417              	.L59:
 1418              	.LBB695:
 1419              		.loc 2 125 0
 1420 0230 813E0000 		lwz 9,0(30)
 1421 0234 8009000C 		lwz 0,12(9)
 1422 0238 83890008 		lwz 28,8(9)
 1423 023c 7C0903A6 		mtctr 0
 1424 0240 4E800421 		bctrl
 1425 0244 7F24CB78 		mr 4,25
 1426 0248 7C661B78 		mr 6,3
 1427 024c 7F45D378 		mr 5,26
 1428 0250 7FC3F378 		mr 3,30
 1429 0254 7F8903A6 		mtctr 28
 1430 0258 4E800421 		bctrl
 1431              	.LVL109:
 1432              		.loc 2 127 0
 1433 025c 2C030000 		cmpwi 0,3,0
 1434 0260 408100D0 		ble- 0,.L70
 1435              	.LBE695:
 1436              		.loc 2 123 0
 1437 0264 801E0040 		lwz 0,64(30)
 1438              	.LBB696:
 1439              		.loc 2 141 0
 1440 0268 7FBD1A14 		add 29,29,3
 1441              	.LVL110:
 1442              		.loc 2 125 0
 1443 026c 7F3BEA14 		add 25,27,29
 1444 0270 7FC3F378 		mr 3,30
 1445              	.LVL111:
 1446              	.LBE696:
 1447              		.loc 2 123 0
 1448 0274 7F9D0000 		cmpw 7,29,0
 1449              	.LBB697:
 1450              		.loc 2 125 0
 1451 0278 7F5D0050 		subf 26,29,0
 1452              	.LBE697:
 1453              		.loc 2 123 0
 1454 027c 419CFFB4 		blt+ 7,.L59
 1455              	.L58:
 1456              		.loc 2 144 0
 1457 0280 2F9D0000 		cmpwi 7,29,0
 1458 0284 409D0028 		ble- 7,.L60
 1459              		.loc 2 146 0
 1460 0288 3B9E0008 		addi 28,30,8
 1461 028c 7FA5EB78 		mr 5,29
 1462 0290 7F83E378 		mr 3,28
 1463 0294 7FE4FB78 		mr 4,31
 1464 0298 48000001 		bl _ZN12BufferCircle13SetBufferSizeEii
 1465              		.loc 2 147 0
 1466 029c 7F83E378 		mr 3,28
 1467 02a0 7FE4FB78 		mr 4,31
 1468 02a4 38A00001 		li 5,1
 1469 02a8 48000001 		bl _ZN12BufferCircle14SetBufferReadyEib
 1470              	.L60:
 1471              	.LVL112:
 1472              	.LBB698:
 1473              	.LBB699:
 1474              	.LBB700:
 1475              		.loc 3 571 0
 1476 02ac 813E0014 		lwz 9,20(30)
 1477              	.LBE700:
 1478              	.LBE699:
 1479              	.LBE698:
 1480              		.loc 2 150 0
 1481 02b0 3BFF0001 		addi 31,31,1
 1482              	.LVL113:
 1483              	.LBB703:
 1484              	.LBB702:
 1485              	.LBB701:
 1486              		.loc 3 571 0
 1487 02b4 801E0010 		lwz 0,16(30)
 1488 02b8 7C004850 		subf 0,0,9
 1489 02bc 7C001670 		srawi 0,0,2
 1490              	.LBE701:
 1491              	.LBE702:
 1492              	.LBE703:
 1493              		.loc 2 150 0
 1494 02c0 7D3F03D6 		divw 9,31,0
 1495 02c4 7D2901D6 		mullw 9,9,0
 1496              	.LVL114:
 1497              	.LBB704:
 1498              	.LBB705:
 1499              	.LBB706:
 1500              		.loc 4 83 0
 1501 02c8 7FE9F851 		subf. 31,9,31
 1502              	.LVL115:
 1503 02cc 4180000C 		blt- 0,.L61
 1504 02d0 7F80F800 		cmpw 7,0,31
 1505 02d4 419D0074 		bgt- 7,.L71
 1506              	.LVL116:
 1507              	.L61:
 1508              	.LBE706:
 1509              	.LBE705:
 1510              	.LBE704:
 1511              		.loc 2 151 0
 1512 02d8 813E0000 		lwz 9,0(30)
 1513 02dc 7FC3F378 		mr 3,30
 1514 02e0 80090020 		lwz 0,32(9)
 1515 02e4 7C0903A6 		mtctr 0
 1516 02e8 4E800421 		bctrl
 1517              	.L62:
 1518              		.loc 2 153 0
 1519 02ec 38000000 		li 0,0
 1520 02f0 981E004A 		stb 0,74(30)
 1521              	.LVL117:
 1522              	.L47:
 1523              	.LBE723:
 1524              	.LBE629:
 1525              		.loc 2 154 0
 1526 02f4 8001002C 		lwz 0,44(1)
 1527 02f8 8321000C 		lwz 25,12(1)
 1528 02fc 7C0803A6 		mtlr 0
 1529 0300 83410010 		lwz 26,16(1)
 1530 0304 83610014 		lwz 27,20(1)
 1531 0308 83810018 		lwz 28,24(1)
 1532 030c 83A1001C 		lwz 29,28(1)
 1533 0310 83C10020 		lwz 30,32(1)
 1534              	.LVL118:
 1535 0314 83E10024 		lwz 31,36(1)
 1536 0318 38210028 		addi 1,1,40
 1537              		.cfi_remember_state
 1538              	.LCFI18:
 1539              		.cfi_def_cfa_offset 0
 1540              		.cfi_restore 31
 1541              		.cfi_restore 30
 1542              		.cfi_restore 29
 1543              		.cfi_restore 28
 1544              		.cfi_restore 27
 1545              		.cfi_restore 26
 1546              		.cfi_restore 25
 1547 031c 4E800020 		blr
 1548              	.LVL119:
 1549              	.L69:
 1550              	.LCFI19:
 1551              		.cfi_restore_state
 1552              	.LBB725:
 1553              	.LBB724:
 1554              	.LBB719:
 1555              	.LBB679:
 1556              	.LBB673:
 1557              	.LBB669:
 1558              	.LBB648:
 1559              		.loc 5 80 0
 1560 0320 7D45502E 		lwzx 10,5,10
 1561              	.LBE648:
 1562              	.LBE669:
 1563              	.LBE673:
 1564              	.LBE679:
 1565              	.LBE719:
 1566              		.loc 2 103 0
 1567 0324 7D635039 		and. 3,11,10
 1568 0328 4082FE88 		bne+ 0,.L51
 1569 032c 4BFFFEC0 		b .L49
 1570              	.LVL120:
 1571              	.L70:
 1572              	.LBB720:
 1573              		.loc 2 129 0
 1574 0330 881E0048 		lbz 0,72(30)
 1575 0334 2F800000 		cmpwi 7,0,0
 1576 0338 409E0034 		bne- 7,.L72
 1577              		.loc 2 136 0
 1578 033c 38000001 		li 0,1
 1579 0340 981E0049 		stb 0,73(30)
 1580 0344 4BFFFF3C 		b .L58
 1581              	.LVL121:
 1582              	.L71:
 1583              	.LBE720:
 1584              	.LBB721:
 1585              	.LBB707:
 1586              	.LBB708:
 1587              	.LBB709:
 1588              	.LBB710:
 1589              		.loc 5 80 0
 1590 0348 813E0028 		lwz 9,40(30)
 1591 034c 57E0E8FA 		rlwinm 0,31,29,3,29
 1592              	.LBE710:
 1593              	.LBE709:
 1594              	.LBB712:
 1595              	.LBB713:
 1596              		.loc 5 692 0
 1597 0350 57FF06FE 		rlwinm 31,31,0,27,31
 1598              	.LVL122:
 1599              	.LBE713:
 1600              	.LBE712:
 1601              	.LBB717:
 1602              	.LBB711:
 1603              		.loc 5 80 0
 1604 0354 7C09002E 		lwzx 0,9,0
 1605              	.LBE711:
 1606              	.LBE717:
 1607              	.LBB718:
 1608              	.LBB716:
 1609              	.LBB714:
 1610              	.LBB715:
 1611              		.loc 5 200 0
 1612 0358 39200001 		li 9,1
 1613 035c 7D3FF830 		slw 31,9,31
 1614              	.LVL123:
 1615              	.LBE715:
 1616              	.LBE714:
 1617              	.LBE716:
 1618              	.LBE718:
 1619              	.LBE708:
 1620              	.LBE707:
 1621              	.LBE721:
 1622              		.loc 2 150 0
 1623 0360 7FE30039 		and. 3,31,0
 1624 0364 4082FF88 		bne+ 0,.L62
 1625 0368 4BFFFF70 		b .L61
 1626              	.LVL124:
 1627              	.L72:
 1628              	.LBB722:
 1629              		.loc 2 131 0
 1630 036c 813E0000 		lwz 9,0(30)
 1631 0370 7FC3F378 		mr 3,30
 1632              	.LVL125:
 1633 0374 80090014 		lwz 0,20(9)
 1634 0378 7C0903A6 		mtctr 0
 1635 037c 4E800421 		bctrl
 1636 0380 4BFFFE98 		b .L68
 1637              	.LVL126:
 1638              	.L53:
 1639              	.LBE722:
 1640              		.loc 2 118 0
 1641 0384 38000001 		li 0,1
 1642 0388 981E004B 		stb 0,75(30)
 1643              		.loc 2 119 0
 1644 038c 38000000 		li 0,0
 1645 0390 981E004A 		stb 0,74(30)
 1646 0394 4BFFFF60 		b .L47
 1647              	.LVL127:
 1648              	.L63:
 1649              		.loc 2 101 0
 1650 0398 38E00000 		li 7,0
 1651 039c 4BFFFE50 		b .L49
 1652              	.LBE724:
 1653              	.LBE725:
 1654              		.cfi_endproc
 1655              	.LFE1430:
 1656              		.size	_ZN12SoundDecoder6DecodeEv, .-_ZN12SoundDecoder6DecodeEv
 1657              		.align 2
 1658              		.globl _ZN12SoundDecoderD0Ev
 1659              		.type	_ZN12SoundDecoderD0Ev, @function
 1660              	_ZN12SoundDecoderD0Ev:
 1661              	.LFB1426:
 1662              		.loc 2 52 0
 1663              		.cfi_startproc
 1664              		.cfi_personality 0,__gxx_personality_v0
 1665              		.cfi_lsda 0,.LLSDA1426
 1666              	.LVL128:
 1667 03a0 7C0802A6 		mflr 0
 1668 03a4 9421FFF0 		stwu 1,-16(1)
 1669              	.LCFI20:
 1670              		.cfi_def_cfa_offset 16
 1671              		.cfi_register 65, 0
 1672              	.LBB729:
 1673              	.LBB730:
 1674              	.LBB731:
 1675 03a8 3D200000 		lis 9,_ZTV12SoundDecoder+8@ha
 1676              	.LBE731:
 1677              	.LBE730:
 1678              	.LBE729:
 1679 03ac 93E1000C 		stw 31,12(1)
 1680 03b0 7C7F1B78 		mr 31,3
 1681              		.cfi_offset 31, -4
 1682              	.LVL129:
 1683 03b4 90010014 		stw 0,20(1)
 1684              	.LBB738:
 1685              	.LBB735:
 1686              	.LBB732:
 1687 03b8 38090008 		la 0,_ZTV12SoundDecoder+8@l(9)
 1688              		.cfi_offset 65, 4
 1689              	.LBE732:
 1690              	.LBE735:
 1691              	.LBE738:
 1692 03bc 93C10008 		stw 30,8(1)
 1693              	.LBB739:
 1694              	.LBB736:
 1695              	.LBB733:
 1696              		.loc 2 52 0
 1697 03c0 90030000 		stw 0,0(3)
 1698              		.loc 2 54 0
 1699 03c4 38000001 		li 0,1
 1700 03c8 9803004B 		stb 0,75(3)
 1701 03cc 4800000C 		b .L74
 1702              		.cfi_offset 30, -8
 1703              	.LVL130:
 1704              	.L75:
 1705              		.loc 2 56 0
 1706 03d0 386003E8 		li 3,1000
 1707              	.LEHB3:
 1708 03d4 48000001 		bl usleep
 1709              	.L74:
 1710              		.loc 2 55 0
 1711 03d8 881F004A 		lbz 0,74(31)
 1712 03dc 2F800000 		cmpwi 7,0,0
 1713 03e0 409EFFF0 		bne+ 7,.L75
 1714              		.loc 2 58 0
 1715 03e4 83DF0004 		lwz 30,4(31)
 1716 03e8 2F9E0000 		cmpwi 7,30,0
 1717 03ec 419E0014 		beq- 7,.L76
 1718              		.loc 2 59 0
 1719 03f0 7FC3F378 		mr 3,30
 1720 03f4 48000001 		bl _ZN5CFileD1Ev
 1721              	.LEHE3:
 1722 03f8 7FC3F378 		mr 3,30
 1723 03fc 48000001 		bl _ZdlPv
 1724              	.L76:
 1725              		.loc 2 60 0
 1726 0400 38000000 		li 0,0
 1727              		.loc 2 52 0
 1728 0404 387F0008 		addi 3,31,8
 1729              		.loc 2 60 0
 1730 0408 901F0004 		stw 0,4(31)
 1731              	.LEHB4:
 1732              		.loc 2 52 0
 1733 040c 48000001 		bl _ZN12BufferCircleD1Ev
 1734              	.LEHE4:
 1735              	.LBE733:
 1736              	.LBE736:
 1737              	.LBE739:
 1738              		.loc 2 61 0
 1739 0410 7FE3FB78 		mr 3,31
 1740 0414 48000001 		bl _ZdlPv
 1741 0418 80010014 		lwz 0,20(1)
 1742 041c 83C10008 		lwz 30,8(1)
 1743 0420 7C0803A6 		mtlr 0
 1744 0424 83E1000C 		lwz 31,12(1)
 1745              	.LVL131:
 1746 0428 38210010 		addi 1,1,16
 1747              		.cfi_remember_state
 1748              	.LCFI21:
 1749              		.cfi_def_cfa_offset 0
 1750              		.cfi_restore 31
 1751              		.cfi_restore 30
 1752 042c 4E800020 		blr
 1753              	.LVL132:
 1754              	.L80:
 1755              	.LCFI22:
 1756              		.cfi_restore_state
 1757 0430 7C7E1B78 		mr 30,3
 1758              	.LBB740:
 1759              	.LBB737:
 1760              	.LBB734:
 1761              		.loc 2 52 0
 1762 0434 387F0008 		addi 3,31,8
 1763 0438 48000001 		bl _ZN12BufferCircleD1Ev
 1764 043c 7FC3F378 		mr 3,30
 1765              	.LEHB5:
 1766 0440 48000001 		bl _Unwind_Resume
 1767              	.LEHE5:
 1768              	.LBE734:
 1769              	.LBE737:
 1770              	.LBE740:
 1771              		.cfi_endproc
 1772              	.LFE1426:
 1773              		.section	.gcc_except_table
 1774              	.LLSDA1426:
 1775 0012 FF       		.byte	0xff
 1776 0013 FF       		.byte	0xff
 1777 0014 01       		.byte	0x1
 1778 0015 0E       		.uleb128 .LLSDACSE1426-.LLSDACSB1426
 1779              	.LLSDACSB1426:
 1780 0016 34       		.uleb128 .LEHB3-.LFB1426
 1781 0017 24       		.uleb128 .LEHE3-.LEHB3
 1782 0018 9001     		.uleb128 .L80-.LFB1426
 1783 001a 00       		.uleb128 0
 1784 001b 6C       		.uleb128 .LEHB4-.LFB1426
 1785 001c 04       		.uleb128 .LEHE4-.LEHB4
 1786 001d 00       		.uleb128 0
 1787 001e 00       		.uleb128 0
 1788 001f A001     		.uleb128 .LEHB5-.LFB1426
 1789 0021 04       		.uleb128 .LEHE5-.LEHB5
 1790 0022 00       		.uleb128 0
 1791 0023 00       		.uleb128 0
 1792              	.LLSDACSE1426:
 1793              		.section	".text"
 1794              		.size	_ZN12SoundDecoderD0Ev, .-_ZN12SoundDecoderD0Ev
 1795              		.align 2
 1796              		.globl _ZN12SoundDecoderC2Ev
 1797              		.type	_ZN12SoundDecoderC2Ev, @function
 1798              	_ZN12SoundDecoderC2Ev:
 1799              	.LFB1415:
 1800              		.loc 2 34 0
 1801              		.cfi_startproc
 1802              		.cfi_personality 0,__gxx_personality_v0
 1803              		.cfi_lsda 0,.LLSDA1415
 1804              	.LVL133:
 1805 0444 7C0802A6 		mflr 0
 1806 0448 9421FFF0 		stwu 1,-16(1)
 1807              	.LCFI23:
 1808              		.cfi_def_cfa_offset 16
 1809              		.cfi_register 65, 0
 1810              	.LBB744:
 1811 044c 3D200000 		lis 9,_ZTV12SoundDecoder+8@ha
 1812              	.LBE744:
 1813 0450 93C10008 		stw 30,8(1)
 1814              	.LBB749:
 1815 0454 3BC30008 		addi 30,3,8
 1816              		.cfi_offset 30, -8
 1817              	.LBE749:
 1818 0458 90010014 		stw 0,20(1)
 1819              	.LBB750:
 1820 045c 38090008 		la 0,_ZTV12SoundDecoder+8@l(9)
 1821              		.cfi_offset 65, 4
 1822              	.LBE750:
 1823 0460 93E1000C 		stw 31,12(1)
 1824              		.loc 2 34 0
 1825 0464 7C7F1B78 		mr 31,3
 1826              		.cfi_offset 31, -4
 1827              	.LBB751:
 1828 0468 90030000 		stw 0,0(3)
 1829 046c 7FC3F378 		mr 3,30
 1830              	.LVL134:
 1831              	.LEHB6:
 1832 0470 48000001 		bl _ZN12BufferCircleC1Ev
 1833              	.LEHE6:
 1834              		.loc 2 36 0
 1835 0474 38000000 		li 0,0
 1836              	.LBB745:
 1837              	.LBB746:
 1838              		.loc 2 65 0
 1839 0478 981F003C 		stb 0,60(31)
 1840              		.loc 2 66 0
 1841 047c 3D200000 		lis 9,Settings@ha
 1842 0480 39290000 		la 9,Settings@l(9)
 1843              		.loc 2 73 0
 1844 0484 7FC3F378 		mr 3,30
 1845              		.loc 2 66 0
 1846 0488 A1690080 		lhz 11,128(9)
 1847              		.loc 2 67 0
 1848 048c 80890084 		lwz 4,132(9)
 1849              	.LBE746:
 1850              	.LBE745:
 1851              		.loc 2 36 0
 1852 0490 901F0004 		stw 0,4(31)
 1853              	.LVL135:
 1854              	.LBB748:
 1855              	.LBB747:
 1856              		.loc 2 66 0
 1857 0494 B17F003E 		sth 11,62(31)
 1858              		.loc 2 67 0
 1859 0498 909F0040 		stw 4,64(31)
 1860              		.loc 2 68 0
 1861 049c 901F0044 		stw 0,68(31)
 1862              		.loc 2 69 0
 1863 04a0 981F0048 		stb 0,72(31)
 1864              		.loc 2 70 0
 1865 04a4 981F0049 		stb 0,73(31)
 1866              		.loc 2 71 0
 1867 04a8 981F004A 		stb 0,74(31)
 1868              		.loc 2 72 0
 1869 04ac 981F004B 		stb 0,75(31)
 1870              	.LEHB7:
 1871              		.loc 2 73 0
 1872 04b0 48000001 		bl _ZN12BufferCircle18SetBufferBlockSizeEi
 1873              		.loc 2 74 0
 1874 04b4 A09F003E 		lhz 4,62(31)
 1875 04b8 7FC3F378 		mr 3,30
 1876 04bc 48000001 		bl _ZN12BufferCircle6ResizeEi
 1877              	.LEHE7:
 1878              	.LBE747:
 1879              	.LBE748:
 1880              	.LBE751:
 1881              		.loc 2 38 0
 1882 04c0 80010014 		lwz 0,20(1)
 1883 04c4 83C10008 		lwz 30,8(1)
 1884 04c8 7C0803A6 		mtlr 0
 1885 04cc 83E1000C 		lwz 31,12(1)
 1886              	.LVL136:
 1887 04d0 38210010 		addi 1,1,16
 1888              		.cfi_remember_state
 1889              	.LCFI24:
 1890              		.cfi_def_cfa_offset 0
 1891              		.cfi_restore 31
 1892              		.cfi_restore 30
 1893 04d4 4E800020 		blr
 1894              	.LVL137:
 1895              	.L83:
 1896              	.LCFI25:
 1897              		.cfi_restore_state
 1898 04d8 7C7F1B78 		mr 31,3
 1899              	.LVL138:
 1900              	.LBB752:
 1901              		.loc 2 34 0
 1902 04dc 7FC3F378 		mr 3,30
 1903 04e0 48000001 		bl _ZN12BufferCircleD1Ev
 1904 04e4 7FE3FB78 		mr 3,31
 1905              	.LEHB8:
 1906 04e8 48000001 		bl _Unwind_Resume
 1907              	.LEHE8:
 1908              	.LBE752:
 1909              		.cfi_endproc
 1910              	.LFE1415:
 1911              		.section	.gcc_except_table
 1912              	.LLSDA1415:
 1913 0024 FF       		.byte	0xff
 1914 0025 FF       		.byte	0xff
 1915 0026 01       		.byte	0x1
 1916 0027 0E       		.uleb128 .LLSDACSE1415-.LLSDACSB1415
 1917              	.LLSDACSB1415:
 1918 0028 2C       		.uleb128 .LEHB6-.LFB1415
 1919 0029 04       		.uleb128 .LEHE6-.LEHB6
 1920 002a 00       		.uleb128 0
 1921 002b 00       		.uleb128 0
 1922 002c 6C       		.uleb128 .LEHB7-.LFB1415
 1923 002d 10       		.uleb128 .LEHE7-.LEHB7
 1924 002e 9401     		.uleb128 .L83-.LFB1415
 1925 0030 00       		.uleb128 0
 1926 0031 A401     		.uleb128 .LEHB8-.LFB1415
 1927 0033 04       		.uleb128 .LEHE8-.LEHB8
 1928 0034 00       		.uleb128 0
 1929 0035 00       		.uleb128 0
 1930              	.LLSDACSE1415:
 1931              		.section	".text"
 1932              		.size	_ZN12SoundDecoderC2Ev, .-_ZN12SoundDecoderC2Ev
 1933              		.align 2
 1934              		.globl _ZN12SoundDecoderC2EPKc
 1935              		.type	_ZN12SoundDecoderC2EPKc, @function
 1936              	_ZN12SoundDecoderC2EPKc:
 1937              	.LFB1418:
 1938              		.loc 2 40 0
 1939              		.cfi_startproc
 1940              		.cfi_personality 0,__gxx_personality_v0
 1941              		.cfi_lsda 0,.LLSDA1418
 1942              	.LVL139:
 1943 04ec 7C0802A6 		mflr 0
 1944 04f0 9421FFE8 		stwu 1,-24(1)
 1945              	.LCFI26:
 1946              		.cfi_def_cfa_offset 24
 1947              		.cfi_register 65, 0
 1948              	.LBB756:
 1949 04f4 3D200000 		lis 9,_ZTV12SoundDecoder+8@ha
 1950              	.LBE756:
 1951 04f8 93810008 		stw 28,8(1)
 1952 04fc 7C9C2378 		mr 28,4
 1953              		.cfi_offset 28, -16
 1954 0500 9001001C 		stw 0,28(1)
 1955              	.LBB761:
 1956 0504 38090008 		la 0,_ZTV12SoundDecoder+8@l(9)
 1957              		.cfi_offset 65, 4
 1958              	.LBE761:
 1959 0508 93C10010 		stw 30,16(1)
 1960              	.LBB762:
 1961 050c 3BC30008 		addi 30,3,8
 1962              		.cfi_offset 30, -8
 1963              	.LBE762:
 1964 0510 93E10014 		stw 31,20(1)
 1965 0514 7C7F1B78 		mr 31,3
 1966              		.cfi_offset 31, -4
 1967 0518 93A1000C 		stw 29,12(1)
 1968              	.LBB763:
 1969              		.loc 2 40 0
 1970 051c 90030000 		stw 0,0(3)
 1971 0520 7FC3F378 		mr 3,30
 1972              	.LVL140:
 1973              	.LEHB9:
 1974              		.cfi_offset 29, -12
 1975 0524 48000001 		bl _ZN12BufferCircleC1Ev
 1976              	.LEHE9:
 1977              	.LVL141:
 1978              		.loc 2 42 0
 1979 0528 38600018 		li 3,24
 1980              	.LEHB10:
 1981 052c 48000001 		bl _Znwj
 1982              	.LEHE10:
 1983 0530 3CA00000 		lis 5,.LC0@ha
 1984 0534 7F84E378 		mr 4,28
 1985 0538 38A50000 		la 5,.LC0@l(5)
 1986 053c 7C7D1B78 		mr 29,3
 1987              	.LEHB11:
 1988 0540 48000001 		bl _ZN5CFileC1EPKcS1_
 1989              	.LEHE11:
 1990              	.LBB757:
 1991              	.LBB758:
 1992              		.loc 2 65 0 discriminator 1
 1993 0544 38000000 		li 0,0
 1994              		.loc 2 66 0 discriminator 1
 1995 0548 3D200000 		lis 9,Settings@ha
 1996              		.loc 2 65 0 discriminator 1
 1997 054c 981F003C 		stb 0,60(31)
 1998              		.loc 2 66 0 discriminator 1
 1999 0550 39290000 		la 9,Settings@l(9)
 2000              		.loc 2 68 0 discriminator 1
 2001 0554 38000000 		li 0,0
 2002              		.loc 2 73 0 discriminator 1
 2003 0558 7FC3F378 		mr 3,30
 2004              		.loc 2 66 0 discriminator 1
 2005 055c A1690080 		lhz 11,128(9)
 2006              		.loc 2 67 0 discriminator 1
 2007 0560 80890084 		lwz 4,132(9)
 2008              	.LBE758:
 2009              	.LBE757:
 2010              		.loc 2 42 0 discriminator 1
 2011 0564 93BF0004 		stw 29,4(31)
 2012              	.LVL142:
 2013              	.LBB760:
 2014              	.LBB759:
 2015              		.loc 2 66 0 discriminator 1
 2016 0568 B17F003E 		sth 11,62(31)
 2017              		.loc 2 67 0 discriminator 1
 2018 056c 909F0040 		stw 4,64(31)
 2019              		.loc 2 68 0 discriminator 1
 2020 0570 901F0044 		stw 0,68(31)
 2021              		.loc 2 69 0 discriminator 1
 2022 0574 981F0048 		stb 0,72(31)
 2023              		.loc 2 70 0 discriminator 1
 2024 0578 981F0049 		stb 0,73(31)
 2025              		.loc 2 71 0 discriminator 1
 2026 057c 981F004A 		stb 0,74(31)
 2027              		.loc 2 72 0 discriminator 1
 2028 0580 981F004B 		stb 0,75(31)
 2029              	.LEHB12:
 2030              		.loc 2 73 0 discriminator 1
 2031 0584 48000001 		bl _ZN12BufferCircle18SetBufferBlockSizeEi
 2032              		.loc 2 74 0
 2033 0588 A09F003E 		lhz 4,62(31)
 2034 058c 7FC3F378 		mr 3,30
 2035 0590 48000001 		bl _ZN12BufferCircle6ResizeEi
 2036              	.LEHE12:
 2037              	.LBE759:
 2038              	.LBE760:
 2039              	.LBE763:
 2040              		.loc 2 44 0
 2041 0594 8001001C 		lwz 0,28(1)
 2042 0598 83810008 		lwz 28,8(1)
 2043              	.LVL143:
 2044 059c 7C0803A6 		mtlr 0
 2045 05a0 83A1000C 		lwz 29,12(1)
 2046 05a4 83C10010 		lwz 30,16(1)
 2047 05a8 83E10014 		lwz 31,20(1)
 2048              	.LVL144:
 2049 05ac 38210018 		addi 1,1,24
 2050              		.cfi_remember_state
 2051              	.LCFI27:
 2052              		.cfi_def_cfa_offset 0
 2053              		.cfi_restore 31
 2054              		.cfi_restore 30
 2055              		.cfi_restore 29
 2056              		.cfi_restore 28
 2057 05b0 4E800020 		blr
 2058              	.LVL145:
 2059              	.L88:
 2060              	.LCFI28:
 2061              		.cfi_restore_state
 2062 05b4 7C7F1B78 		mr 31,3
 2063              	.LVL146:
 2064              	.L87:
 2065              	.LBB764:
 2066              		.loc 2 40 0
 2067 05b8 7FC3F378 		mr 3,30
 2068 05bc 48000001 		bl _ZN12BufferCircleD1Ev
 2069 05c0 7FE3FB78 		mr 3,31
 2070              	.LEHB13:
 2071 05c4 48000001 		bl _Unwind_Resume
 2072              	.LEHE13:
 2073              	.L89:
 2074 05c8 7C7F1B78 		mr 31,3
 2075              		.loc 2 42 0
 2076 05cc 7FA3EB78 		mr 3,29
 2077 05d0 48000001 		bl _ZdlPv
 2078 05d4 4BFFFFE4 		b .L87
 2079              	.LBE764:
 2080              		.cfi_endproc
 2081              	.LFE1418:
 2082              		.section	.gcc_except_table
 2083              	.LLSDA1418:
 2084 0036 FF       		.byte	0xff
 2085 0037 FF       		.byte	0xff
 2086 0038 01       		.byte	0x1
 2087 0039 19       		.uleb128 .LLSDACSE1418-.LLSDACSB1418
 2088              	.LLSDACSB1418:
 2089 003a 38       		.uleb128 .LEHB9-.LFB1418
 2090 003b 04       		.uleb128 .LEHE9-.LEHB9
 2091 003c 00       		.uleb128 0
 2092 003d 00       		.uleb128 0
 2093 003e 40       		.uleb128 .LEHB10-.LFB1418
 2094 003f 04       		.uleb128 .LEHE10-.LEHB10
 2095 0040 C801     		.uleb128 .L88-.LFB1418
 2096 0042 00       		.uleb128 0
 2097 0043 54       		.uleb128 .LEHB11-.LFB1418
 2098 0044 04       		.uleb128 .LEHE11-.LEHB11
 2099 0045 DC01     		.uleb128 .L89-.LFB1418
 2100 0047 00       		.uleb128 0
 2101 0048 9801     		.uleb128 .LEHB12-.LFB1418
 2102 004a 10       		.uleb128 .LEHE12-.LEHB12
 2103 004b C801     		.uleb128 .L88-.LFB1418
 2104 004d 00       		.uleb128 0
 2105 004e D801     		.uleb128 .LEHB13-.LFB1418
 2106 0050 04       		.uleb128 .LEHE13-.LEHB13
 2107 0051 00       		.uleb128 0
 2108 0052 00       		.uleb128 0
 2109              	.LLSDACSE1418:
 2110              		.section	".text"
 2111              		.size	_ZN12SoundDecoderC2EPKc, .-_ZN12SoundDecoderC2EPKc
 2112              		.align 2
 2113              		.globl _ZN12SoundDecoderC2EPKhi
 2114              		.type	_ZN12SoundDecoderC2EPKhi, @function
 2115              	_ZN12SoundDecoderC2EPKhi:
 2116              	.LFB1421:
 2117              		.loc 2 46 0
 2118              		.cfi_startproc
 2119              		.cfi_personality 0,__gxx_personality_v0
 2120              		.cfi_lsda 0,.LLSDA1421
 2121              	.LVL147:
 2122 05d8 7C0802A6 		mflr 0
 2123 05dc 9421FFE0 		stwu 1,-32(1)
 2124              	.LCFI29:
 2125              		.cfi_def_cfa_offset 32
 2126              		.cfi_register 65, 0
 2127              	.LBB768:
 2128 05e0 3D200000 		lis 9,_ZTV12SoundDecoder+8@ha
 2129              	.LBE768:
 2130 05e4 9361000C 		stw 27,12(1)
 2131 05e8 7C9B2378 		mr 27,4
 2132              		.cfi_offset 27, -20
 2133 05ec 90010024 		stw 0,36(1)
 2134              	.LBB773:
 2135 05f0 38090008 		la 0,_ZTV12SoundDecoder+8@l(9)
 2136              		.cfi_offset 65, 4
 2137              	.LBE773:
 2138 05f4 93810010 		stw 28,16(1)
 2139 05f8 7CBC2B78 		mr 28,5
 2140              		.cfi_offset 28, -16
 2141 05fc 93C10018 		stw 30,24(1)
 2142              	.LBB774:
 2143 0600 3BC30008 		addi 30,3,8
 2144              		.cfi_offset 30, -8
 2145              	.LBE774:
 2146 0604 93E1001C 		stw 31,28(1)
 2147 0608 7C7F1B78 		mr 31,3
 2148              		.cfi_offset 31, -4
 2149 060c 93A10014 		stw 29,20(1)
 2150              	.LBB775:
 2151              		.loc 2 46 0
 2152 0610 90030000 		stw 0,0(3)
 2153 0614 7FC3F378 		mr 3,30
 2154              	.LVL148:
 2155              	.LEHB14:
 2156              		.cfi_offset 29, -12
 2157 0618 48000001 		bl _ZN12BufferCircleC1Ev
 2158              	.LEHE14:
 2159              	.LVL149:
 2160              		.loc 2 48 0
 2161 061c 38600018 		li 3,24
 2162              	.LEHB15:
 2163 0620 48000001 		bl _Znwj
 2164              	.LEHE15:
 2165 0624 7F64DB78 		mr 4,27
 2166 0628 7F85E378 		mr 5,28
 2167 062c 7C7D1B78 		mr 29,3
 2168              	.LEHB16:
 2169 0630 48000001 		bl _ZN5CFileC1EPKhi
 2170              	.LEHE16:
 2171              	.LBB769:
 2172              	.LBB770:
 2173              		.loc 2 65 0 discriminator 1
 2174 0634 38000000 		li 0,0
 2175              		.loc 2 66 0 discriminator 1
 2176 0638 3D200000 		lis 9,Settings@ha
 2177              		.loc 2 65 0 discriminator 1
 2178 063c 981F003C 		stb 0,60(31)
 2179              		.loc 2 66 0 discriminator 1
 2180 0640 39290000 		la 9,Settings@l(9)
 2181              		.loc 2 68 0 discriminator 1
 2182 0644 38000000 		li 0,0
 2183              		.loc 2 73 0 discriminator 1
 2184 0648 7FC3F378 		mr 3,30
 2185              		.loc 2 66 0 discriminator 1
 2186 064c A1690080 		lhz 11,128(9)
 2187              		.loc 2 67 0 discriminator 1
 2188 0650 80890084 		lwz 4,132(9)
 2189              	.LBE770:
 2190              	.LBE769:
 2191              		.loc 2 48 0 discriminator 1
 2192 0654 93BF0004 		stw 29,4(31)
 2193              	.LVL150:
 2194              	.LBB772:
 2195              	.LBB771:
 2196              		.loc 2 66 0 discriminator 1
 2197 0658 B17F003E 		sth 11,62(31)
 2198              		.loc 2 67 0 discriminator 1
 2199 065c 909F0040 		stw 4,64(31)
 2200              		.loc 2 68 0 discriminator 1
 2201 0660 901F0044 		stw 0,68(31)
 2202              		.loc 2 69 0 discriminator 1
 2203 0664 981F0048 		stb 0,72(31)
 2204              		.loc 2 70 0 discriminator 1
 2205 0668 981F0049 		stb 0,73(31)
 2206              		.loc 2 71 0 discriminator 1
 2207 066c 981F004A 		stb 0,74(31)
 2208              		.loc 2 72 0 discriminator 1
 2209 0670 981F004B 		stb 0,75(31)
 2210              	.LEHB17:
 2211              		.loc 2 73 0 discriminator 1
 2212 0674 48000001 		bl _ZN12BufferCircle18SetBufferBlockSizeEi
 2213              		.loc 2 74 0
 2214 0678 A09F003E 		lhz 4,62(31)
 2215 067c 7FC3F378 		mr 3,30
 2216 0680 48000001 		bl _ZN12BufferCircle6ResizeEi
 2217              	.LEHE17:
 2218              	.LBE771:
 2219              	.LBE772:
 2220              	.LBE775:
 2221              		.loc 2 50 0
 2222 0684 80010024 		lwz 0,36(1)
 2223 0688 8361000C 		lwz 27,12(1)
 2224              	.LVL151:
 2225 068c 7C0803A6 		mtlr 0
 2226 0690 83810010 		lwz 28,16(1)
 2227              	.LVL152:
 2228 0694 83A10014 		lwz 29,20(1)
 2229 0698 83C10018 		lwz 30,24(1)
 2230 069c 83E1001C 		lwz 31,28(1)
 2231              	.LVL153:
 2232 06a0 38210020 		addi 1,1,32
 2233              		.cfi_remember_state
 2234              	.LCFI30:
 2235              		.cfi_def_cfa_offset 0
 2236              		.cfi_restore 31
 2237              		.cfi_restore 30
 2238              		.cfi_restore 29
 2239              		.cfi_restore 28
 2240              		.cfi_restore 27
 2241 06a4 4E800020 		blr
 2242              	.LVL154:
 2243              	.L94:
 2244              	.LCFI31:
 2245              		.cfi_restore_state
 2246 06a8 7C7F1B78 		mr 31,3
 2247              	.LVL155:
 2248              	.L93:
 2249              	.LBB776:
 2250              		.loc 2 46 0
 2251 06ac 7FC3F378 		mr 3,30
 2252 06b0 48000001 		bl _ZN12BufferCircleD1Ev
 2253 06b4 7FE3FB78 		mr 3,31
 2254              	.LEHB18:
 2255 06b8 48000001 		bl _Unwind_Resume
 2256              	.LEHE18:
 2257              	.L95:
 2258 06bc 7C7F1B78 		mr 31,3
 2259              		.loc 2 48 0
 2260 06c0 7FA3EB78 		mr 3,29
 2261 06c4 48000001 		bl _ZdlPv
 2262 06c8 4BFFFFE4 		b .L93
 2263              	.LBE776:
 2264              		.cfi_endproc
 2265              	.LFE1421:
 2266              		.section	.gcc_except_table
 2267              	.LLSDA1421:
 2268 0053 FF       		.byte	0xff
 2269 0054 FF       		.byte	0xff
 2270 0055 01       		.byte	0x1
 2271 0056 19       		.uleb128 .LLSDACSE1421-.LLSDACSB1421
 2272              	.LLSDACSB1421:
 2273 0057 40       		.uleb128 .LEHB14-.LFB1421
 2274 0058 04       		.uleb128 .LEHE14-.LEHB14
 2275 0059 00       		.uleb128 0
 2276 005a 00       		.uleb128 0
 2277 005b 48       		.uleb128 .LEHB15-.LFB1421
 2278 005c 04       		.uleb128 .LEHE15-.LEHB15
 2279 005d D001     		.uleb128 .L94-.LFB1421
 2280 005f 00       		.uleb128 0
 2281 0060 58       		.uleb128 .LEHB16-.LFB1421
 2282 0061 04       		.uleb128 .LEHE16-.LEHB16
 2283 0062 E401     		.uleb128 .L95-.LFB1421
 2284 0064 00       		.uleb128 0
 2285 0065 9C01     		.uleb128 .LEHB17-.LFB1421
 2286 0067 10       		.uleb128 .LEHE17-.LEHB17
 2287 0068 D001     		.uleb128 .L94-.LFB1421
 2288 006a 00       		.uleb128 0
 2289 006b E001     		.uleb128 .LEHB18-.LFB1421
 2290 006d 04       		.uleb128 .LEHE18-.LEHB18
 2291 006e 00       		.uleb128 0
 2292 006f 00       		.uleb128 0
 2293              	.LLSDACSE1421:
 2294              		.section	".text"
 2295              		.size	_ZN12SoundDecoderC2EPKhi, .-_ZN12SoundDecoderC2EPKhi
 2296              		.align 2
 2297              		.globl _ZN12SoundDecoder4InitEv
 2298              		.type	_ZN12SoundDecoder4InitEv, @function
 2299              	_ZN12SoundDecoder4InitEv:
 2300              	.LFB1427:
 2301              		.loc 2 64 0
 2302              		.cfi_startproc
 2303              	.LVL156:
 2304 06cc 7C0802A6 		mflr 0
 2305 06d0 9421FFF0 		stwu 1,-16(1)
 2306              	.LCFI32:
 2307              		.cfi_def_cfa_offset 16
 2308              		.cfi_register 65, 0
 2309              		.loc 2 66 0
 2310 06d4 3D200000 		lis 9,Settings@ha
 2311              		.loc 2 64 0
 2312 06d8 93C10008 		stw 30,8(1)
 2313              		.loc 2 66 0
 2314 06dc 39290000 		la 9,Settings@l(9)
 2315              		.loc 2 64 0
 2316 06e0 90010014 		stw 0,20(1)
 2317              		.loc 2 65 0
 2318 06e4 38000000 		li 0,0
 2319              		.cfi_offset 65, 4
 2320              		.cfi_offset 30, -8
 2321              		.loc 2 64 0
 2322 06e8 93E1000C 		stw 31,12(1)
 2323              		.loc 2 73 0
 2324 06ec 3BC30008 		addi 30,3,8
 2325              		.loc 2 65 0
 2326 06f0 9803003C 		stb 0,60(3)
 2327              		.loc 2 68 0
 2328 06f4 38000000 		li 0,0
 2329              		.loc 2 64 0
 2330 06f8 7C7F1B78 		mr 31,3
 2331              		.cfi_offset 31, -4
 2332              		.loc 2 67 0
 2333 06fc 80890084 		lwz 4,132(9)
 2334              		.loc 2 66 0
 2335 0700 A1690080 		lhz 11,128(9)
 2336              		.loc 2 68 0
 2337 0704 90030044 		stw 0,68(3)
 2338              		.loc 2 69 0
 2339 0708 98030048 		stb 0,72(3)
 2340              		.loc 2 70 0
 2341 070c 98030049 		stb 0,73(3)
 2342              		.loc 2 71 0
 2343 0710 9803004A 		stb 0,74(3)
 2344              		.loc 2 72 0
 2345 0714 9803004B 		stb 0,75(3)
 2346              		.loc 2 66 0
 2347 0718 B163003E 		sth 11,62(3)
 2348              		.loc 2 67 0
 2349 071c 90830040 		stw 4,64(3)
 2350              		.loc 2 73 0
 2351 0720 7FC3F378 		mr 3,30
 2352              	.LVL157:
 2353 0724 48000001 		bl _ZN12BufferCircle18SetBufferBlockSizeEi
 2354              		.loc 2 74 0
 2355 0728 A09F003E 		lhz 4,62(31)
 2356 072c 7FC3F378 		mr 3,30
 2357 0730 48000001 		bl _ZN12BufferCircle6ResizeEi
 2358              		.loc 2 75 0
 2359 0734 80010014 		lwz 0,20(1)
 2360 0738 83C10008 		lwz 30,8(1)
 2361 073c 7C0803A6 		mtlr 0
 2362 0740 83E1000C 		lwz 31,12(1)
 2363              	.LVL158:
 2364 0744 38210010 		addi 1,1,16
 2365              	.LCFI33:
 2366              		.cfi_def_cfa_offset 0
 2367              		.cfi_restore 31
 2368              		.cfi_restore 30
 2369 0748 4E800020 		blr
 2370              		.cfi_endproc
 2371              	.LFE1427:
 2372              		.size	_ZN12SoundDecoder4InitEv, .-_ZN12SoundDecoder4InitEv
 2373              		.weak	_ZTS12SoundDecoder
 2374              		.section	.rodata._ZTS12SoundDecoder,"aG",@progbits,_ZTS12SoundDecoder,comdat
 2375              		.align 2
 2376              		.type	_ZTS12SoundDecoder, @object
 2377              		.size	_ZTS12SoundDecoder, 15
 2378              	_ZTS12SoundDecoder:
 2379 0000 3132536F 		.string	"12SoundDecoder"
 2379      756E6444 
 2379      65636F64 
 2379      657200
 2380              		.weak	_ZTI12SoundDecoder
 2381              		.section	.sdata._ZTI12SoundDecoder,"awG",@progbits,_ZTI12SoundDecoder,comdat
 2382              		.align 2
 2383              		.type	_ZTI12SoundDecoder, @object
 2384              		.size	_ZTI12SoundDecoder, 8
 2385              	_ZTI12SoundDecoder:
 2386 0000 00000008 		.long	_ZTVN10__cxxabiv117__class_type_infoE+8
 2387 0004 00000000 		.long	_ZTS12SoundDecoder
 2388              		.weak	_ZTV12SoundDecoder
 2389              		.section	.rodata._ZTV12SoundDecoder,"aG",@progbits,_ZTV12SoundDecoder,comdat
 2390              		.align 3
 2391              		.type	_ZTV12SoundDecoder, @object
 2392              		.size	_ZTV12SoundDecoder, 100
 2393              	_ZTV12SoundDecoder:
 2394 0000 00000000 		.long	0
 2395 0004 00000000 		.long	_ZTI12SoundDecoder
 2396 0008 00000000 		.long	_ZN12SoundDecoderD1Ev
 2397 000c 00000000 		.long	_ZN12SoundDecoderD0Ev
 2398 0010 00000000 		.long	_ZN12SoundDecoder4ReadEPhii
 2399 0014 00000000 		.long	_ZN12SoundDecoder4TellEv
 2400 0018 00000000 		.long	_ZN12SoundDecoder4SeekEi
 2401 001c 00000000 		.long	_ZN12SoundDecoder6RewindEv
 2402 0020 00000000 		.long	_ZN12SoundDecoder9GetFormatEv
 2403 0024 00000000 		.long	_ZN12SoundDecoder13GetSampleRateEv
 2404 0028 00000000 		.long	_ZN12SoundDecoder6DecodeEv
 2405 002c 00000000 		.long	_ZN12SoundDecoder13GetBufferSizeEv
 2406 0030 00000000 		.long	_ZN12SoundDecoder9GetBufferEv
 2407 0034 00000000 		.long	_ZN12SoundDecoder13GetNextBufferEv
 2408 0038 00000000 		.long	_ZN12SoundDecoder13GetLastBufferEv
 2409 003c 00000000 		.long	_ZN12SoundDecoder8LoadNextEv
 2410 0040 00000000 		.long	_ZN12SoundDecoder13IsBufferReadyEv
 2411 0044 00000000 		.long	_ZN12SoundDecoder17IsNextBufferReadyEv
 2412 0048 00000000 		.long	_ZN12SoundDecoder17IsLastBufferReadyEv
 2413 004c 00000000 		.long	_ZN12SoundDecoder5IsEOFEv
 2414 0050 00000000 		.long	_ZN12SoundDecoder7SetLoopEb
 2415 0054 00000000 		.long	_ZN12SoundDecoder12GetSoundTypeEv
 2416 0058 00000000 		.long	_ZN12SoundDecoder11ClearBufferEv
 2417 005c 00000000 		.long	_ZN12SoundDecoder8IsStereoEv
 2418 0060 00000000 		.long	_ZN12SoundDecoder7Is16BitEv
 2419              		.globl _ZN12SoundDecoderD1Ev
 2420              		.set	_ZN12SoundDecoderD1Ev,_ZN12SoundDecoderD2Ev
 2421              		.globl _ZN12SoundDecoderC1Ev
 2422              		.set	_ZN12SoundDecoderC1Ev,_ZN12SoundDecoderC2Ev
 2423              		.globl _ZN12SoundDecoderC1EPKc
 2424              		.set	_ZN12SoundDecoderC1EPKc,_ZN12SoundDecoderC2EPKc
 2425              		.globl _ZN12SoundDecoderC1EPKhi
 2426              		.set	_ZN12SoundDecoderC1EPKhi,_ZN12SoundDecoderC2EPKhi
 2427              		.section	.rodata.str1.4,"aMS",@progbits,1
 2428              		.align 2
 2429              	.LC0:
 2430 0000 726200   		.string	"rb"
 2431              		.section	".text"
 2432              	.Letext0:
 2433              		.file 7 "d:\\devkitpro\\devkitppc\\bin\\../lib/gcc/powerpc-eabi/4.6.3/../../../../powerpc-eabi/inc
 2434              		.file 8 "d:/devkitPro/libogc/include/gctypes.h"
 2435              		.file 9 "d:/devkitPro/libogc/include/ogc/gx.h"
 2436              		.file 10 "d:\\devkitpro\\devkitppc\\bin\\../lib/gcc/powerpc-eabi/4.6.3/../../../../powerpc-eabi/in
 2437              		.file 11 "d:\\devkitpro\\devkitppc\\bin\\../lib/gcc/powerpc-eabi/4.6.3/../../../../powerpc-eabi/in
 2438              		.file 12 "d:\\devkitpro\\devkitppc\\bin\\../lib/gcc/powerpc-eabi/4.6.3/include/stddef.h"
 2439              		.file 13 "d:\\devkitpro\\devkitppc\\bin\\../lib/gcc/powerpc-eabi/4.6.3/../../../../powerpc-eabi/in
 2440              		.file 14 "d:\\devkitpro\\devkitppc\\bin\\../lib/gcc/powerpc-eabi/4.6.3/../../../../powerpc-eabi/in
 2441              		.file 15 "d:\\devkitpro\\devkitppc\\bin\\../lib/gcc/powerpc-eabi/4.6.3/../../../../powerpc-eabi/in
 2442              		.file 16 "<built-in>"
 2443              		.file 17 "d:\\devkitpro\\devkitppc\\bin\\../lib/gcc/powerpc-eabi/4.6.3/../../../../powerpc-eabi/in
 2444              		.file 18 "d:\\devkitpro\\devkitppc\\bin\\../lib/gcc/powerpc-eabi/4.6.3/../../../../powerpc-eabi/in
 2445              		.file 19 "d:\\devkitpro\\devkitppc\\bin\\../lib/gcc/powerpc-eabi/4.6.3/../../../../powerpc-eabi/in
 2446              		.file 20 "d:\\devkitpro\\devkitppc\\bin\\../lib/gcc/powerpc-eabi/4.6.3/../../../../powerpc-eabi/in
 2447              		.file 21 "d:\\devkitpro\\devkitppc\\bin\\../lib/gcc/powerpc-eabi/4.6.3/../../../../powerpc-eabi/in
 2448              		.file 22 "d:\\devkitpro\\devkitppc\\bin\\../lib/gcc/powerpc-eabi/4.6.3/../../../../powerpc-eabi/in
 2449              		.file 23 "d:\\devkitpro\\devkitppc\\bin\\../lib/gcc/powerpc-eabi/4.6.3/../../../../powerpc-eabi/in
 2450              		.file 24 "d:\\devkitpro\\devkitppc\\bin\\../lib/gcc/powerpc-eabi/4.6.3/../../../../powerpc-eabi/in
 2451              		.file 25 "d:\\devkitpro\\devkitppc\\bin\\../lib/gcc/powerpc-eabi/4.6.3/../../../../powerpc-eabi/in
 2452              		.file 26 "d:\\devkitpro\\devkitppc\\bin\\../lib/gcc/powerpc-eabi/4.6.3/../../../../powerpc-eabi/in
 2453              		.file 27 "d:\\devkitpro\\devkitppc\\bin\\../lib/gcc/powerpc-eabi/4.6.3/../../../../powerpc-eabi/in
 2454              		.file 28 "d:\\devkitpro\\devkitppc\\bin\\../lib/gcc/powerpc-eabi/4.6.3/../../../../powerpc-eabi/in
 2455              		.file 29 "d:\\devkitpro\\devkitppc\\bin\\../lib/gcc/powerpc-eabi/4.6.3/../../../../powerpc-eabi/in
 2456              		.file 30 "d:\\devkitpro\\devkitppc\\bin\\../lib/gcc/powerpc-eabi/4.6.3/../../../../powerpc-eabi/in
 2457              		.file 31 "d:\\devkitpro\\devkitppc\\bin\\../lib/gcc/powerpc-eabi/4.6.3/../../../../powerpc-eabi/in
 2458              		.file 32 "d:\\devkitpro\\devkitppc\\bin\\../lib/gcc/powerpc-eabi/4.6.3/../../../../powerpc-eabi/in
 2459              		.file 33 "d:\\devkitpro\\devkitppc\\bin\\../lib/gcc/powerpc-eabi/4.6.3/../../../../powerpc-eabi/in
 2460              		.file 34 "d:\\devkitpro\\devkitppc\\bin\\../lib/gcc/powerpc-eabi/4.6.3/../../../../powerpc-eabi/in
 2461              		.file 35 "d:\\devkitpro\\devkitppc\\bin\\../lib/gcc/powerpc-eabi/4.6.3/../../../../powerpc-eabi/in
 2462              		.file 36 "d:\\devkitpro\\devkitppc\\bin\\../lib/gcc/powerpc-eabi/4.6.3/../../../../powerpc-eabi/in
 2463              		.file 37 "d:/Projects/SaveGameManager/savegame-manager-gx/trunk/source/SoundOperations/../Settings
 2464              		.file 38 "d:/Projects/SaveGameManager/savegame-manager-gx/trunk/source/SoundOperations/../Settings
 2465              		.file 39 "d:/Projects/SaveGameManager/savegame-manager-gx/trunk/source/SoundOperations/../Settings
 2466              		.file 40 "d:/Projects/SaveGameManager/savegame-manager-gx/trunk/source/SoundOperations/../sigslot.