   1              		.file	"StartUpProcess.cpp"
   2              		.section	".text"
   3              	.Ltext0:
   4              		.align 2
   5              		.type	_ZN14StartUpProcessD2Ev.constprop.76, @function
   6              	_ZN14StartUpProcessD2Ev.constprop.76:
   7              	.LFB2254:
   8              		.file 1 "d:/Projects/SaveGameManager/savegame-manager-gx/trunk/source/Tools/StartUpProcess.cpp"
   9              		.loc 1 59 0
  10              		.cfi_startproc
  11              	.LVL0:
  12 0000 7C0802A6 		mflr 0
  13 0004 9421FFF0 		stwu 1,-16(1)
  14              	.LCFI0:
  15              		.cfi_def_cfa_offset 16
  16              		.cfi_register 65, 0
  17 0008 93E1000C 		stw 31,12(1)
  18 000c 7C7F1B78 		mr 31,3
  19              		.cfi_offset 31, -4
  20 0010 90010014 		stw 0,20(1)
  21              	.LBB1530:
  22              		.loc 1 61 0
  23 0014 80630014 		lwz 3,20(3)
  24              	.LVL1:
  25 0018 2F830000 		cmpwi 7,3,0
  26 001c 419E0014 		beq- 7,.L2
  27              		.cfi_offset 65, 4
  28 0020 81230000 		lwz 9,0(3)
  29 0024 80090004 		lwz 0,4(9)
  30 0028 7C0903A6 		mtctr 0
  31 002c 4E800421 		bctrl
  32              	.L2:
  33              		.loc 1 62 0
  34 0030 807F0018 		lwz 3,24(31)
  35 0034 2F830000 		cmpwi 7,3,0
  36 0038 419E0014 		beq- 7,.L3
  37 003c 81230000 		lwz 9,0(3)
  38 0040 80090004 		lwz 0,4(9)
  39 0044 7C0903A6 		mtctr 0
  40 0048 4E800421 		bctrl
  41              	.L3:
  42              		.loc 1 63 0
  43 004c 807F001C 		lwz 3,28(31)
  44 0050 2F830000 		cmpwi 7,3,0
  45 0054 419E0014 		beq- 7,.L4
  46 0058 81230000 		lwz 9,0(3)
  47 005c 80090004 		lwz 0,4(9)
  48 0060 7C0903A6 		mtctr 0
  49 0064 4E800421 		bctrl
  50              	.L4:
  51              		.loc 1 64 0
  52 0068 807F0020 		lwz 3,32(31)
  53 006c 2F830000 		cmpwi 7,3,0
  54 0070 419E0014 		beq- 7,.L5
  55 0074 81230000 		lwz 9,0(3)
  56 0078 80090004 		lwz 0,4(9)
  57 007c 7C0903A6 		mtctr 0
  58 0080 4E800421 		bctrl
  59              	.L5:
  60              		.loc 1 65 0
  61 0084 807F0024 		lwz 3,36(31)
  62 0088 2F830000 		cmpwi 7,3,0
  63 008c 419E0014 		beq- 7,.L6
  64 0090 81230000 		lwz 9,0(3)
  65 0094 80090004 		lwz 0,4(9)
  66 0098 7C0903A6 		mtctr 0
  67 009c 4E800421 		bctrl
  68              	.L6:
  69              		.loc 1 67 0
  70 00a0 807F0004 		lwz 3,4(31)
  71 00a4 48000001 		bl _ZN9Resources6RemoveEP12GuiImageData
  72              		.loc 1 68 0
  73 00a8 807F0008 		lwz 3,8(31)
  74 00ac 48000001 		bl _ZN9Resources6RemoveEP12GuiImageData
  75              		.loc 1 69 0
  76 00b0 807F000C 		lwz 3,12(31)
  77 00b4 48000001 		bl _ZN9Resources6RemoveEP12GuiImageData
  78              		.loc 1 70 0
  79 00b8 807F0010 		lwz 3,16(31)
  80 00bc 48000001 		bl _ZN9Resources6RemoveEP12GuiImageData
  81              		.loc 1 72 0
  82 00c0 807F0028 		lwz 3,40(31)
  83 00c4 2F830000 		cmpwi 7,3,0
  84 00c8 419E0014 		beq- 7,.L7
  85 00cc 81230000 		lwz 9,0(3)
  86 00d0 80090004 		lwz 0,4(9)
  87 00d4 7C0903A6 		mtctr 0
  88 00d8 4E800421 		bctrl
  89              	.L7:
  90              		.loc 1 73 0
  91 00dc 807F002C 		lwz 3,44(31)
  92 00e0 2F830000 		cmpwi 7,3,0
  93 00e4 419E0014 		beq- 7,.L1
  94 00e8 81230000 		lwz 9,0(3)
  95 00ec 80090004 		lwz 0,4(9)
  96 00f0 7C0903A6 		mtctr 0
  97 00f4 4E800421 		bctrl
  98              	.L1:
  99              	.LBE1530:
 100              		.loc 1 74 0
 101 00f8 80010014 		lwz 0,20(1)
 102 00fc 83E1000C 		lwz 31,12(1)
 103              	.LVL2:
 104 0100 7C0803A6 		mtlr 0
 105 0104 38210010 		addi 1,1,16
 106              	.LCFI1:
 107              		.cfi_def_cfa_offset 0
 108              		.cfi_restore 31
 109 0108 4E800020 		blr
 110              		.cfi_endproc
 111              	.LFE2254:
 112              		.size	_ZN14StartUpProcessD2Ev.constprop.76, .-_ZN14StartUpProcessD2Ev.constprop.76
 113              		.align 2
 114              		.globl _ZN14StartUpProcessC2Ev
 115              		.type	_ZN14StartUpProcessC2Ev, @function
 116              	_ZN14StartUpProcessC2Ev:
 117              	.LFB1846:
 118              		.loc 1 21 0
 119              		.cfi_startproc
 120              		.cfi_personality 0,__gxx_personality_v0
 121              		.cfi_lsda 0,.LLSDA1846
 122              	.LVL3:
 123 010c 7C0802A6 		mflr 0
 124 0110 9421FFD8 		stwu 1,-40(1)
 125              	.LCFI2:
 126              		.cfi_def_cfa_offset 40
 127              		.cfi_register 65, 0
 128 0114 93610014 		stw 27,20(1)
 129 0118 9001002C 		stw 0,44(1)
 130              	.LBB1531:
 131              		.loc 1 23 0
 132 011c 38000000 		li 0,0
 133              		.cfi_offset 65, 4
 134              		.cfi_offset 27, -20
 135              	.LBE1531:
 136              		.loc 1 21 0
 137 0120 93810018 		stw 28,24(1)
 138              	.LBB1532:
 139              		.loc 1 36 0
 140 0124 3B800000 		li 28,0
 141              		.cfi_offset 28, -16
 142              	.LBE1532:
 143              		.loc 1 21 0
 144 0128 93A1001C 		stw 29,28(1)
 145              	.LBB1533:
 146              		.loc 1 36 0
 147 012c 3FA00000 		lis 29,screenwidth@ha
 148              		.cfi_offset 29, -12
 149              	.LBE1533:
 150              		.loc 1 21 0
 151 0130 93C10020 		stw 30,32(1)
 152              	.LBB1534:
 153              		.loc 1 36 0
 154 0134 7C3E0B78 		mr 30,1
 155              		.cfi_offset 30, -8
 156              	.LBE1534:
 157              		.loc 1 21 0
 158 0138 93E10024 		stw 31,36(1)
 159 013c 7C7F1B78 		mr 31,3
 160              		.cfi_offset 31, -4
 161 0140 93410010 		stw 26,16(1)
 162              	.LBB1535:
 163              		.loc 1 23 0
 164 0144 98030000 		stb 0,0(3)
 165              	.LEHB0:
 166              		.loc 1 25 0
 167              		.cfi_offset 26, -24
 168 0148 48000001 		bl InitGecko
 169              	.LVL4:
 170              		.loc 1 26 0
 171 014c 38600030 		li 3,48
 172 0150 48000001 		bl MEM2_init
 173              		.loc 1 28 0
 174 0154 48000001 		bl IOS_GetVersion
 175 0158 3D200000 		lis 9,Settings+2572@ha
 176 015c 98690A0C 		stb 3,Settings+2572@l(9)
 177              		.loc 1 29 0
 178 0160 48000001 		bl IOS_GetVersion
 179 0164 48000001 		bl _ZN9IosLoader22ReloadIosKeepingRightsEi
 180              		.loc 1 31 0
 181 0168 38600001 		li 3,1
 182 016c 48000001 		bl MagicPatches
 183              		.loc 1 34 0
 184 0170 3C600000 		lis 3,.LC0@ha
 185 0174 38630000 		la 3,.LC0@l(3)
 186 0178 48000001 		bl _ZN5Theme8LoadFontEPKc
 187              		.loc 1 36 0
 188 017c 38000000 		li 0,0
 189 0180 501CC00E 		rlwimi 28,0,24,0,7
 190 0184 386000C4 		li 3,196
 191 0188 501C821E 		rlwimi 28,0,16,8,15
 192 018c 501C442E 		rlwimi 28,0,8,16,23
 193 0190 3800FFFF 		li 0,-1
 194 0194 501C063E 		rlwimi 28,0,0,24,31
 195 0198 48000001 		bl _Znwj
 196              	.LEHE0:
 197 019c 979E0008 		stwu 28,8(30)
 198 01a0 3F800000 		lis 28,screenheight@ha
 199 01a4 809D0000 		lwz 4,screenwidth@l(29)
 200 01a8 7C7B1B78 		mr 27,3
 201 01ac 80BC0000 		lwz 5,screenheight@l(28)
 202 01b0 7FC6F378 		mr 6,30
 203              	.LEHB1:
 204 01b4 48000001 		bl _ZN8GuiImageC1Eii9_gx_color
 205              	.LEHE1:
 206              		.loc 1 36 0 is_stmt 0 discriminator 1
 207 01b8 937F0014 		stw 27,20(31)
 208              		.loc 1 38 0 is_stmt 1 discriminator 1
 209 01bc 3C600000 		lis 3,.LC1@ha
 210 01c0 38630004 		la 3,.LC1@l(3)
 211              	.LEHB2:
 212 01c4 48000001 		bl _ZN9Resources12GetImageDataEPKc
 213 01c8 907F0004 		stw 3,4(31)
 214              		.loc 1 39 0 discriminator 1
 215 01cc 386000C4 		li 3,196
 216 01d0 48000001 		bl _Znwj
 217              	.LEHE2:
 218 01d4 809F0004 		lwz 4,4(31)
 219 01d8 7C7B1B78 		mr 27,3
 220              	.LEHB3:
 221 01dc 48000001 		bl _ZN8GuiImageC1EP12GuiImageData
 222              	.LEHE3:
 223              		.loc 1 40 0 discriminator 1
 224 01e0 813B0000 		lwz 9,0(27)
 225 01e4 7F63DB78 		mr 3,27
 226              		.loc 1 39 0 discriminator 1
 227 01e8 937F0018 		stw 27,24(31)
 228              		.loc 1 40 0 discriminator 1
 229 01ec 38800022 		li 4,34
 230              		.loc 1 43 0 discriminator 1
 231 01f0 3B400000 		li 26,0
 232              		.loc 1 40 0 discriminator 1
 233 01f4 800900B4 		lwz 0,180(9)
 234 01f8 7C0903A6 		mtctr 0
 235              	.LEHB4:
 236 01fc 4E800421 		bctrl
 237              		.loc 1 41 0 discriminator 1
 238 0200 807F0018 		lwz 3,24(31)
 239 0204 80BC0000 		lwz 5,screenheight@l(28)
 240 0208 81230000 		lwz 9,0(3)
 241 020c 809D0000 		lwz 4,screenwidth@l(29)
 242 0210 7CA50E70 		srawi 5,5,1
 243 0214 7CA50194 		addze 5,5
 244 0218 800900A8 		lwz 0,168(9)
 245 021c 38A5FFCE 		addi 5,5,-50
 246 0220 7C840E70 		srawi 4,4,1
 247 0224 7C840194 		addze 4,4
 248 0228 7C0903A6 		mtctr 0
 249 022c 4E800421 		bctrl
 250              		.loc 1 43 0 discriminator 1
 251 0230 3800FFFF 		li 0,-1
 252 0234 501AC00E 		rlwimi 26,0,24,0,7
 253 0238 386000D0 		li 3,208
 254 023c 501A821E 		rlwimi 26,0,16,8,15
 255 0240 501A442E 		rlwimi 26,0,8,16,23
 256 0244 501A063E 		rlwimi 26,0,0,24,31
 257 0248 48000001 		bl _Znwj
 258              	.LEHE4:
 259 024c 3C800000 		lis 4,.LC2@ha
 260 0250 38A00018 		li 5,24
 261 0254 38840014 		la 4,.LC2@l(4)
 262 0258 7FC6F378 		mr 6,30
 263 025c 7C7B1B78 		mr 27,3
 264 0260 93410008 		stw 26,8(1)
 265              	.LEHB5:
 266 0264 48000001 		bl _ZN7GuiTextC1EPKci9_gx_color
 267              	.LEHE5:
 268              		.loc 1 44 0 discriminator 1
 269 0268 813B0000 		lwz 9,0(27)
 270 026c 7F63DB78 		mr 3,27
 271              		.loc 1 43 0 discriminator 1
 272 0270 937F0028 		stw 27,40(31)
 273              		.loc 1 44 0 discriminator 1
 274 0274 38800022 		li 4,34
 275 0278 800900B4 		lwz 0,180(9)
 276 027c 7C0903A6 		mtctr 0
 277              	.LEHB6:
 278 0280 4E800421 		bctrl
 279              		.loc 1 45 0 discriminator 1
 280 0284 807F0028 		lwz 3,40(31)
 281 0288 80BC0000 		lwz 5,screenheight@l(28)
 282 028c 81230000 		lwz 9,0(3)
 283 0290 809D0000 		lwz 4,screenwidth@l(29)
 284 0294 7CA50E70 		srawi 5,5,1
 285 0298 7CA50194 		addze 5,5
 286 029c 800900A8 		lwz 0,168(9)
 287 02a0 38A5001E 		addi 5,5,30
 288 02a4 7C840E70 		srawi 4,4,1
 289 02a8 7C840194 		addze 4,4
 290 02ac 7C0903A6 		mtctr 0
 291 02b0 4E800421 		bctrl
 292              		.loc 1 47 0 discriminator 1
 293 02b4 3C600000 		lis 3,.LC3@ha
 294 02b8 38630020 		la 3,.LC3@l(3)
 295 02bc 48000001 		bl _ZN9Resources12GetImageDataEPKc
 296 02c0 907F0008 		stw 3,8(31)
 297              		.loc 1 48 0 discriminator 1
 298 02c4 3C600000 		lis 3,.LC4@ha
 299 02c8 38630044 		la 3,.LC4@l(3)
 300 02cc 48000001 		bl _ZN9Resources12GetImageDataEPKc
 301 02d0 907F000C 		stw 3,12(31)
 302              		.loc 1 49 0 discriminator 1
 303 02d4 3C600000 		lis 3,.LC5@ha
 304 02d8 38630064 		la 3,.LC5@l(3)
 305 02dc 48000001 		bl _ZN9Resources12GetImageDataEPKc
 306 02e0 907F0010 		stw 3,16(31)
 307              		.loc 1 50 0 discriminator 1
 308 02e4 386000C4 		li 3,196
 309 02e8 48000001 		bl _Znwj
 310              	.LEHE6:
 311 02ec 809F0008 		lwz 4,8(31)
 312 02f0 7C7B1B78 		mr 27,3
 313              	.LEHB7:
 314 02f4 48000001 		bl _ZN8GuiImageC1EP12GuiImageData
 315              	.LEHE7:
 316 02f8 937F001C 		stw 27,28(31)
 317              		.loc 1 51 0 discriminator 1
 318 02fc 386000C4 		li 3,196
 319              	.LEHB8:
 320 0300 48000001 		bl _Znwj
 321              	.LEHE8:
 322 0304 809F000C 		lwz 4,12(31)
 323 0308 7C7B1B78 		mr 27,3
 324              	.LEHB9:
 325 030c 48000001 		bl _ZN8GuiImageC1EP12GuiImageData
 326              	.LEHE9:
 327 0310 937F0020 		stw 27,32(31)
 328              		.loc 1 52 0 discriminator 1
 329 0314 386000C4 		li 3,196
 330              	.LEHB10:
 331 0318 48000001 		bl _Znwj
 332              	.LEHE10:
 333 031c 809F0010 		lwz 4,16(31)
 334 0320 7C7B1B78 		mr 27,3
 335              	.LEHB11:
 336 0324 48000001 		bl _ZN8GuiImageC1EP12GuiImageData
 337              	.LEHE11:
 338              		.loc 1 54 0 discriminator 1
 339 0328 3800FFFF 		li 0,-1
 340 032c 3B400000 		li 26,0
 341 0330 501AC00E 		rlwimi 26,0,24,0,7
 342              		.loc 1 52 0 discriminator 1
 343 0334 937F0024 		stw 27,36(31)
 344              		.loc 1 54 0 discriminator 1
 345 0338 501A821E 		rlwimi 26,0,16,8,15
 346 033c 386000D0 		li 3,208
 347 0340 501A442E 		rlwimi 26,0,8,16,23
 348 0344 501A063E 		rlwimi 26,0,0,24,31
 349              	.LEHB12:
 350 0348 48000001 		bl _Znwj
 351              	.LEHE12:
 352 034c 38800000 		li 4,0
 353 0350 38A00016 		li 5,22
 354 0354 7FC6F378 		mr 6,30
 355 0358 7C7B1B78 		mr 27,3
 356 035c 93410008 		stw 26,8(1)
 357              	.LEHB13:
 358 0360 48000001 		bl _ZN7GuiTextC1EPKci9_gx_color
 359              	.LEHE13:
 360 0364 937F002C 		stw 27,44(31)
 361              		.loc 1 55 0 discriminator 1
 362 0368 7F63DB78 		mr 3,27
 363 036c 813B0000 		lwz 9,0(27)
 364 0370 38800022 		li 4,34
 365 0374 800900B4 		lwz 0,180(9)
 366 0378 7C0903A6 		mtctr 0
 367              	.LEHB14:
 368 037c 4E800421 		bctrl
 369              		.loc 1 56 0 discriminator 1
 370 0380 807F002C 		lwz 3,44(31)
 371 0384 80BC0000 		lwz 5,screenheight@l(28)
 372 0388 81230000 		lwz 9,0(3)
 373 038c 809D0000 		lwz 4,screenwidth@l(29)
 374 0390 7CA50E70 		srawi 5,5,1
 375 0394 7CA50194 		addze 5,5
 376 0398 800900A8 		lwz 0,168(9)
 377 039c 38A50078 		addi 5,5,120
 378 03a0 7C840E70 		srawi 4,4,1
 379 03a4 7C840194 		addze 4,4
 380 03a8 7C0903A6 		mtctr 0
 381 03ac 4E800421 		bctrl
 382              	.LBE1535:
 383              		.loc 1 57 0 discriminator 1
 384 03b0 8001002C 		lwz 0,44(1)
 385 03b4 83410010 		lwz 26,16(1)
 386 03b8 7C0803A6 		mtlr 0
 387 03bc 83610014 		lwz 27,20(1)
 388 03c0 83810018 		lwz 28,24(1)
 389 03c4 83A1001C 		lwz 29,28(1)
 390 03c8 83C10020 		lwz 30,32(1)
 391 03cc 83E10024 		lwz 31,36(1)
 392              	.LVL5:
 393 03d0 38210028 		addi 1,1,40
 394              		.cfi_remember_state
 395              	.LCFI3:
 396              		.cfi_def_cfa_offset 0
 397              		.cfi_restore 31
 398              		.cfi_restore 30
 399              		.cfi_restore 29
 400              		.cfi_restore 28
 401              		.cfi_restore 27
 402              		.cfi_restore 26
 403 03d4 4E800020 		blr
 404              	.LVL6:
 405              	.L18:
 406              	.L25:
 407              	.LCFI4:
 408              		.cfi_restore_state
 409 03d8 7C7F1B78 		mr 31,3
 410              	.LVL7:
 411              	.LBB1536:
 412              		.loc 1 39 0
 413 03dc 7F63DB78 		mr 3,27
 414 03e0 48000001 		bl _ZdlPv
 415 03e4 7FE3FB78 		mr 3,31
 416 03e8 48000001 		bl _Unwind_Resume
 417              	.LEHE14:
 418              	.LVL8:
 419              	.L24:
 420 03ec 4BFFFFEC 		b .L25
 421              	.L23:
 422 03f0 4BFFFFE8 		b .L25
 423              	.L22:
 424 03f4 4BFFFFE4 		b .L25
 425              	.L21:
 426 03f8 4BFFFFE0 		b .L25
 427              	.L20:
 428 03fc 4BFFFFDC 		b .L25
 429              	.L19:
 430 0400 4BFFFFD8 		b .L25
 431              	.LBE1536:
 432              		.cfi_endproc
 433              	.LFE1846:
 434              		.globl __gxx_personality_v0
 435              		.section	.gcc_except_table,"a",@progbits
 436              	.LLSDA1846:
 437 0000 FF       		.byte	0xff
 438 0001 FF       		.byte	0xff
 439 0002 01       		.byte	0x1
 440 0003 51       		.uleb128 .LLSDACSE1846-.LLSDACSB1846
 441              	.LLSDACSB1846:
 442 0004 3C       		.uleb128 .LEHB0-.LFB1846
 443 0005 54       		.uleb128 .LEHE0-.LEHB0
 444 0006 00       		.uleb128 0
 445 0007 00       		.uleb128 0
 446 0008 A801     		.uleb128 .LEHB1-.LFB1846
 447 000a 04       		.uleb128 .LEHE1-.LEHB1
 448 000b CC05     		.uleb128 .L18-.LFB1846
 449 000d 00       		.uleb128 0
 450 000e B801     		.uleb128 .LEHB2-.LFB1846
 451 0010 10       		.uleb128 .LEHE2-.LEHB2
 452 0011 00       		.uleb128 0
 453 0012 00       		.uleb128 0
 454 0013 D001     		.uleb128 .LEHB3-.LFB1846
 455 0015 04       		.uleb128 .LEHE3-.LEHB3
 456 0016 F405     		.uleb128 .L19-.LFB1846
 457 0018 00       		.uleb128 0
 458 0019 F001     		.uleb128 .LEHB4-.LFB1846
 459 001b 50       		.uleb128 .LEHE4-.LEHB4
 460 001c 00       		.uleb128 0
 461 001d 00       		.uleb128 0
 462 001e D802     		.uleb128 .LEHB5-.LFB1846
 463 0020 04       		.uleb128 .LEHE5-.LEHB5
 464 0021 F005     		.uleb128 .L20-.LFB1846
 465 0023 00       		.uleb128 0
 466 0024 F402     		.uleb128 .LEHB6-.LFB1846
 467 0026 6C       		.uleb128 .LEHE6-.LEHB6
 468 0027 00       		.uleb128 0
 469 0028 00       		.uleb128 0
 470 0029 E803     		.uleb128 .LEHB7-.LFB1846
 471 002b 04       		.uleb128 .LEHE7-.LEHB7
 472 002c EC05     		.uleb128 .L21-.LFB1846
 473 002e 00       		.uleb128 0
 474 002f F403     		.uleb128 .LEHB8-.LFB1846
 475 0031 04       		.uleb128 .LEHE8-.LEHB8
 476 0032 00       		.uleb128 0
 477 0033 00       		.uleb128 0
 478 0034 8004     		.uleb128 .LEHB9-.LFB1846
 479 0036 04       		.uleb128 .LEHE9-.LEHB9
 480 0037 E805     		.uleb128 .L22-.LFB1846
 481 0039 00       		.uleb128 0
 482 003a 8C04     		.uleb128 .LEHB10-.LFB1846
 483 003c 04       		.uleb128 .LEHE10-.LEHB10
 484 003d 00       		.uleb128 0
 485 003e 00       		.uleb128 0
 486 003f 9804     		.uleb128 .LEHB11-.LFB1846
 487 0041 04       		.uleb128 .LEHE11-.LEHB11
 488 0042 E405     		.uleb128 .L23-.LFB1846
 489 0044 00       		.uleb128 0
 490 0045 BC04     		.uleb128 .LEHB12-.LFB1846
 491 0047 04       		.uleb128 .LEHE12-.LEHB12
 492 0048 00       		.uleb128 0
 493 0049 00       		.uleb128 0
 494 004a D404     		.uleb128 .LEHB13-.LFB1846
 495 004c 04       		.uleb128 .LEHE13-.LEHB13
 496 004d E005     		.uleb128 .L24-.LFB1846
 497 004f 00       		.uleb128 0
 498 0050 F004     		.uleb128 .LEHB14-.LFB1846
 499 0052 70       		.uleb128 .LEHE14-.LEHB14
 500 0053 00       		.uleb128 0
 501 0054 00       		.uleb128 0
 502              	.LLSDACSE1846:
 503              		.section	".text"
 504              		.size	_ZN14StartUpProcessC2Ev, .-_ZN14StartUpProcessC2Ev
 505              		.align 2
 506              		.globl _ZN14StartUpProcessD2Ev
 507              		.type	_ZN14StartUpProcessD2Ev, @function
 508              	_ZN14StartUpProcessD2Ev:
 509              	.LFB1849:
 510              		.loc 1 59 0
 511              		.cfi_startproc
 512              	.LVL9:
 513 0404 7C0802A6 		mflr 0
 514 0408 9421FFF0 		stwu 1,-16(1)
 515              	.LCFI5:
 516              		.cfi_def_cfa_offset 16
 517              		.cfi_register 65, 0
 518 040c 93E1000C 		stw 31,12(1)
 519 0410 7C7F1B78 		mr 31,3
 520              		.cfi_offset 31, -4
 521 0414 90010014 		stw 0,20(1)
 522              	.LBB1537:
 523              		.loc 1 61 0
 524 0418 80630014 		lwz 3,20(3)
 525              	.LVL10:
 526 041c 2F830000 		cmpwi 7,3,0
 527 0420 419E0014 		beq- 7,.L27
 528              		.cfi_offset 65, 4
 529              		.loc 1 61 0 is_stmt 0 discriminator 1
 530 0424 81230000 		lwz 9,0(3)
 531 0428 80090004 		lwz 0,4(9)
 532 042c 7C0903A6 		mtctr 0
 533 0430 4E800421 		bctrl
 534              	.L27:
 535              		.loc 1 62 0 is_stmt 1
 536 0434 807F0018 		lwz 3,24(31)
 537 0438 2F830000 		cmpwi 7,3,0
 538 043c 419E0014 		beq- 7,.L28
 539              		.loc 1 62 0 is_stmt 0 discriminator 1
 540 0440 81230000 		lwz 9,0(3)
 541 0444 80090004 		lwz 0,4(9)
 542 0448 7C0903A6 		mtctr 0
 543 044c 4E800421 		bctrl
 544              	.L28:
 545              		.loc 1 63 0 is_stmt 1
 546 0450 807F001C 		lwz 3,28(31)
 547 0454 2F830000 		cmpwi 7,3,0
 548 0458 419E0014 		beq- 7,.L29
 549              		.loc 1 63 0 is_stmt 0 discriminator 1
 550 045c 81230000 		lwz 9,0(3)
 551 0460 80090004 		lwz 0,4(9)
 552 0464 7C0903A6 		mtctr 0
 553 0468 4E800421 		bctrl
 554              	.L29:
 555              		.loc 1 64 0 is_stmt 1
 556 046c 807F0020 		lwz 3,32(31)
 557 0470 2F830000 		cmpwi 7,3,0
 558 0474 419E0014 		beq- 7,.L30
 559              		.loc 1 64 0 is_stmt 0 discriminator 1
 560 0478 81230000 		lwz 9,0(3)
 561 047c 80090004 		lwz 0,4(9)
 562 0480 7C0903A6 		mtctr 0
 563 0484 4E800421 		bctrl
 564              	.L30:
 565              		.loc 1 65 0 is_stmt 1
 566 0488 807F0024 		lwz 3,36(31)
 567 048c 2F830000 		cmpwi 7,3,0
 568 0490 419E0014 		beq- 7,.L31
 569              		.loc 1 65 0 is_stmt 0 discriminator 1
 570 0494 81230000 		lwz 9,0(3)
 571 0498 80090004 		lwz 0,4(9)
 572 049c 7C0903A6 		mtctr 0
 573 04a0 4E800421 		bctrl
 574              	.L31:
 575              		.loc 1 67 0 is_stmt 1
 576 04a4 807F0004 		lwz 3,4(31)
 577 04a8 48000001 		bl _ZN9Resources6RemoveEP12GuiImageData
 578              		.loc 1 68 0
 579 04ac 807F0008 		lwz 3,8(31)
 580 04b0 48000001 		bl _ZN9Resources6RemoveEP12GuiImageData
 581              		.loc 1 69 0
 582 04b4 807F000C 		lwz 3,12(31)
 583 04b8 48000001 		bl _ZN9Resources6RemoveEP12GuiImageData
 584              		.loc 1 70 0
 585 04bc 807F0010 		lwz 3,16(31)
 586 04c0 48000001 		bl _ZN9Resources6RemoveEP12GuiImageData
 587              		.loc 1 72 0
 588 04c4 807F0028 		lwz 3,40(31)
 589 04c8 2F830000 		cmpwi 7,3,0
 590 04cc 419E0014 		beq- 7,.L32
 591              		.loc 1 72 0 is_stmt 0 discriminator 1
 592 04d0 81230000 		lwz 9,0(3)
 593 04d4 80090004 		lwz 0,4(9)
 594 04d8 7C0903A6 		mtctr 0
 595 04dc 4E800421 		bctrl
 596              	.L32:
 597              		.loc 1 73 0 is_stmt 1
 598 04e0 807F002C 		lwz 3,44(31)
 599 04e4 2F830000 		cmpwi 7,3,0
 600 04e8 419E0014 		beq- 7,.L26
 601              		.loc 1 73 0 is_stmt 0 discriminator 1
 602 04ec 81230000 		lwz 9,0(3)
 603 04f0 80090004 		lwz 0,4(9)
 604 04f4 7C0903A6 		mtctr 0
 605 04f8 4E800421 		bctrl
 606              	.L26:
 607              	.LBE1537:
 608              		.loc 1 74 0 is_stmt 1
 609 04fc 80010014 		lwz 0,20(1)
 610 0500 83E1000C 		lwz 31,12(1)
 611              	.LVL11:
 612 0504 7C0803A6 		mtlr 0
 613 0508 38210010 		addi 1,1,16
 614              	.LCFI6:
 615              		.cfi_def_cfa_offset 0
 616              		.cfi_restore 31
 617 050c 4E800020 		blr
 618              		.cfi_endproc
 619              	.LFE1849:
 620              		.size	_ZN14StartUpProcessD2Ev, .-_ZN14StartUpProcessD2Ev
 621              		.align 2
 622              		.globl _ZN14StartUpProcess12ShowProgressEi
 623              		.type	_ZN14StartUpProcess12ShowProgressEi, @function
 624              	_ZN14StartUpProcess12ShowProgressEi:
 625              	.LFB1851:
 626              		.loc 1 77 0
 627              		.cfi_startproc
 628              		.cfi_personality 0,__gxx_personality_v0
 629              		.cfi_lsda 0,.LLSDA1851
 630              	.LVL12:
 631 0510 7C0802A6 		mflr 0
 632 0514 9421FFE0 		stwu 1,-32(1)
 633              	.LCFI7:
 634              		.cfi_def_cfa_offset 32
 635              		.cfi_register 65, 0
 636 0518 93E1001C 		stw 31,28(1)
 637 051c 7C7F1B78 		mr 31,3
 638              		.cfi_offset 31, -4
 639 0520 90010024 		stw 0,36(1)
 640              		.loc 1 78 0
 641 0524 38000001 		li 0,1
 642              		.cfi_offset 65, 4
 643              		.loc 1 77 0
 644 0528 93810010 		stw 28,16(1)
 645 052c 7C9C2378 		mr 28,4
 646              		.cfi_offset 28, -16
 647              		.loc 1 80 0
 648 0530 8063001C 		lwz 3,28(3)
 649              	.LVL13:
 650              		.loc 1 77 0
 651 0534 9361000C 		stw 27,12(1)
 652              		.loc 1 80 0
 653 0538 2F830000 		cmpwi 7,3,0
 654              		.loc 1 77 0
 655 053c 93A10014 		stw 29,20(1)
 656 0540 93C10018 		stw 30,24(1)
 657              		.loc 1 78 0
 658 0544 981F0000 		stb 0,0(31)
 659              		.loc 1 80 0
 660 0548 419E0014 		beq- 7,.L35
 661              		.cfi_offset 30, -8
 662              		.cfi_offset 29, -12
 663              		.cfi_offset 27, -20
 664              		.loc 1 80 0 is_stmt 0 discriminator 1
 665 054c 81230000 		lwz 9,0(3)
 666 0550 80090004 		lwz 0,4(9)
 667 0554 7C0903A6 		mtctr 0
 668              	.LEHB15:
 669 0558 4E800421 		bctrl
 670              	.LVL14:
 671              	.L35:
 672              		.loc 1 81 0 is_stmt 1
 673 055c 807F0020 		lwz 3,32(31)
 674 0560 2F830000 		cmpwi 7,3,0
 675 0564 419E0014 		beq- 7,.L36
 676              		.loc 1 81 0 is_stmt 0 discriminator 1
 677 0568 81230000 		lwz 9,0(3)
 678 056c 80090004 		lwz 0,4(9)
 679 0570 7C0903A6 		mtctr 0
 680 0574 4E800421 		bctrl
 681              	.L36:
 682              		.loc 1 82 0 is_stmt 1
 683 0578 807F0024 		lwz 3,36(31)
 684 057c 2F830000 		cmpwi 7,3,0
 685 0580 419E0014 		beq- 7,.L37
 686              		.loc 1 82 0 is_stmt 0 discriminator 1
 687 0584 81230000 		lwz 9,0(3)
 688 0588 80090004 		lwz 0,4(9)
 689 058c 7C0903A6 		mtctr 0
 690 0590 4E800421 		bctrl
 691              	.L37:
 692              		.loc 1 83 0 is_stmt 1
 693 0594 38000000 		li 0,0
 694              		.loc 1 87 0
 695 0598 386000C4 		li 3,196
 696              		.loc 1 83 0
 697 059c 901F001C 		stw 0,28(31)
 698              		.loc 1 84 0
 699 05a0 901F0020 		stw 0,32(31)
 700              		.loc 1 85 0
 701 05a4 901F0024 		stw 0,36(31)
 702              		.loc 1 87 0
 703 05a8 48000001 		bl _Znwj
 704              	.LEHE15:
 705 05ac 809F0008 		lwz 4,8(31)
 706 05b0 7C7E1B78 		mr 30,3
 707              	.LEHB16:
 708 05b4 48000001 		bl _ZN8GuiImageC1EP12GuiImageData
 709              	.LEHE16:
 710              		.loc 1 88 0 discriminator 1
 711 05b8 813E0000 		lwz 9,0(30)
 712 05bc 7FC3F378 		mr 3,30
 713              		.loc 1 87 0 discriminator 1
 714 05c0 93DF001C 		stw 30,28(31)
 715              		.loc 1 88 0 discriminator 1
 716 05c4 38800022 		li 4,34
 717              		.loc 1 89 0 discriminator 1
 718 05c8 3FA00000 		lis 29,screenheight@ha
 719              		.loc 1 88 0 discriminator 1
 720 05cc 800900B4 		lwz 0,180(9)
 721 05d0 7C0903A6 		mtctr 0
 722              	.LEHB17:
 723 05d4 4E800421 		bctrl
 724              		.loc 1 89 0 discriminator 1
 725 05d8 807F001C 		lwz 3,28(31)
 726 05dc 3D600000 		lis 11,screenwidth@ha
 727 05e0 80BD0000 		lwz 5,screenheight@l(29)
 728 05e4 81230000 		lwz 9,0(3)
 729 05e8 808B0000 		lwz 4,screenwidth@l(11)
 730 05ec 7CA50E70 		srawi 5,5,1
 731 05f0 7CA50194 		addze 5,5
 732 05f4 800900A8 		lwz 0,168(9)
 733 05f8 38A5004B 		addi 5,5,75
 734 05fc 7C840E70 		srawi 4,4,1
 735 0600 7C840194 		addze 4,4
 736 0604 7C0903A6 		mtctr 0
 737 0608 4E800421 		bctrl
 738              		.loc 1 91 0 discriminator 1
 739 060c 386000C4 		li 3,196
 740 0610 48000001 		bl _Znwj
 741              	.LEHE17:
 742 0614 809F000C 		lwz 4,12(31)
 743 0618 7C7E1B78 		mr 30,3
 744              	.LEHB18:
 745 061c 48000001 		bl _ZN8GuiImageC1EP12GuiImageData
 746              	.LEHE18:
 747              		.loc 1 92 0 discriminator 1
 748 0620 813E0000 		lwz 9,0(30)
 749 0624 38800021 		li 4,33
 750              		.loc 1 91 0 discriminator 1
 751 0628 93DF0020 		stw 30,32(31)
 752              		.loc 1 92 0 discriminator 1
 753 062c 7FC3F378 		mr 3,30
 754 0630 800900B4 		lwz 0,180(9)
 755 0634 7C0903A6 		mtctr 0
 756              	.LEHB19:
 757 0638 4E800421 		bctrl
 758              		.loc 1 93 0 discriminator 1
 759 063c 807F001C 		lwz 3,28(31)
 760 0640 837F0020 		lwz 27,32(31)
 761 0644 81230000 		lwz 9,0(3)
 762 0648 80090010 		lwz 0,16(9)
 763 064c 813B0000 		lwz 9,0(27)
 764 0650 7C0903A6 		mtctr 0
 765 0654 83C900A8 		lwz 30,168(9)
 766 0658 4E800421 		bctrl
 767 065c 80BD0000 		lwz 5,screenheight@l(29)
 768 0660 7FC903A6 		mtctr 30
 769 0664 7C641B78 		mr 4,3
 770 0668 7CA50E70 		srawi 5,5,1
 771 066c 7CA50194 		addze 5,5
 772 0670 7F63DB78 		mr 3,27
 773 0674 38A5004B 		addi 5,5,75
 774 0678 4E800421 		bctrl
 775              		.loc 1 94 0 discriminator 1
 776 067c 807F0020 		lwz 3,32(31)
 777 0680 38800064 		li 4,100
 778 0684 48000001 		bl _ZN8GuiImage17SetTileHorizontalEi
 779              		.loc 1 96 0 discriminator 1
 780 0688 386000C4 		li 3,196
 781 068c 48000001 		bl _Znwj
 782              	.LEHE19:
 783 0690 809F0010 		lwz 4,16(31)
 784 0694 7C7E1B78 		mr 30,3
 785              	.LEHB20:
 786 0698 48000001 		bl _ZN8GuiImageC1EP12GuiImageData
 787              	.LEHE20:
 788              		.loc 1 97 0 discriminator 1
 789 069c 813E0000 		lwz 9,0(30)
 790 06a0 38800021 		li 4,33
 791              		.loc 1 96 0 discriminator 1
 792 06a4 93DF0024 		stw 30,36(31)
 793              		.loc 1 97 0 discriminator 1
 794 06a8 7FC3F378 		mr 3,30
 795              		.loc 1 99 0 discriminator 1
 796 06ac 1F9C0064 		mulli 28,28,100
 797              	.LVL15:
 798              		.loc 1 97 0 discriminator 1
 799 06b0 800900B4 		lwz 0,180(9)
 800 06b4 7C0903A6 		mtctr 0
 801              	.LEHB21:
 802 06b8 4E800421 		bctrl
 803              		.loc 1 98 0 discriminator 1
 804 06bc 807F001C 		lwz 3,28(31)
 805 06c0 837F0024 		lwz 27,36(31)
 806 06c4 81230000 		lwz 9,0(3)
 807 06c8 80090010 		lwz 0,16(9)
 808 06cc 813B0000 		lwz 9,0(27)
 809 06d0 7C0903A6 		mtctr 0
 810 06d4 83C900A8 		lwz 30,168(9)
 811 06d8 4E800421 		bctrl
 812 06dc 80BD0000 		lwz 5,screenheight@l(29)
 813 06e0 7C641B78 		mr 4,3
 814 06e4 7FC903A6 		mtctr 30
 815 06e8 7CA50E70 		srawi 5,5,1
 816 06ec 7CA50194 		addze 5,5
 817 06f0 7F63DB78 		mr 3,27
 818 06f4 38A5004B 		addi 5,5,75
 819 06f8 4E800421 		bctrl
 820              		.loc 1 99 0 discriminator 1
 821 06fc 3C802AAA 		lis 4,0x2aaa
 822 0700 6084AAAB 		ori 4,4,43691
 823 0704 807F0024 		lwz 3,36(31)
 824 0708 7C9C2096 		mulhw 4,28,4
 825 070c 7F9CFE70 		srawi 28,28,31
 826 0710 7C840E70 		srawi 4,4,1
 827 0714 7C9C2050 		subf 4,28,4
 828 0718 48000001 		bl _ZN8GuiImage17SetTileHorizontalEi
 829              		.loc 1 100 0 discriminator 1
 830 071c 80010024 		lwz 0,36(1)
 831 0720 8361000C 		lwz 27,12(1)
 832 0724 7C0803A6 		mtlr 0
 833 0728 83810010 		lwz 28,16(1)
 834 072c 83A10014 		lwz 29,20(1)
 835 0730 83C10018 		lwz 30,24(1)
 836 0734 83E1001C 		lwz 31,28(1)
 837              	.LVL16:
 838 0738 38210020 		addi 1,1,32
 839              		.cfi_remember_state
 840              	.LCFI8:
 841              		.cfi_def_cfa_offset 0
 842              		.cfi_restore 31
 843              		.cfi_restore 30
 844              		.cfi_restore 29
 845              		.cfi_restore 28
 846              		.cfi_restore 27
 847 073c 4E800020 		blr
 848              	.LVL17:
 849              	.L41:
 850              	.L44:
 851              	.LCFI9:
 852              		.cfi_restore_state
 853 0740 7C7F1B78 		mr 31,3
 854              	.LVL18:
 855              		.loc 1 91 0
 856 0744 7FC3F378 		mr 3,30
 857 0748 48000001 		bl _ZdlPv
 858 074c 7FE3FB78 		mr 3,31
 859 0750 48000001 		bl _Unwind_Resume
 860              	.LEHE21:
 861              	.LVL19:
 862              	.L43:
 863 0754 4BFFFFEC 		b .L44
 864              	.L42:
 865 0758 4BFFFFE8 		b .L44
 866              		.cfi_endproc
 867              	.LFE1851:
 868              		.section	.gcc_except_table
 869              	.LLSDA1851:
 870 0055 FF       		.byte	0xff
 871 0056 FF       		.byte	0xff
 872 0057 01       		.byte	0x1
 873 0058 26       		.uleb128 .LLSDACSE1851-.LLSDACSB1851
 874              	.LLSDACSB1851:
 875 0059 48       		.uleb128 .LEHB15-.LFB1851
 876 005a 54       		.uleb128 .LEHE15-.LEHB15
 877 005b 00       		.uleb128 0
 878 005c 00       		.uleb128 0
 879 005d A401     		.uleb128 .LEHB16-.LFB1851
 880 005f 04       		.uleb128 .LEHE16-.LEHB16
 881 0060 B004     		.uleb128 .L41-.LFB1851
 882 0062 00       		.uleb128 0
 883 0063 C401     		.uleb128 .LEHB17-.LFB1851
 884 0065 40       		.uleb128 .LEHE17-.LEHB17
 885 0066 00       		.uleb128 0
 886 0067 00       		.uleb128 0
 887 0068 8C02     		.uleb128 .LEHB18-.LFB1851
 888 006a 04       		.uleb128 .LEHE18-.LEHB18
 889 006b C804     		.uleb128 .L42-.LFB1851
 890 006d 00       		.uleb128 0
 891 006e A802     		.uleb128 .LEHB19-.LFB1851
 892 0070 58       		.uleb128 .LEHE19-.LEHB19
 893 0071 00       		.uleb128 0
 894 0072 00       		.uleb128 0
 895 0073 8803     		.uleb128 .LEHB20-.LFB1851
 896 0075 04       		.uleb128 .LEHE20-.LEHB20
 897 0076 C404     		.uleb128 .L43-.LFB1851
 898 0078 00       		.uleb128 0
 899 0079 A803     		.uleb128 .LEHB21-.LFB1851
 900 007b 9C01     		.uleb128 .LEHE21-.LEHB21
 901 007d 00       		.uleb128 0
 902 007e 00       		.uleb128 0
 903              	.LLSDACSE1851:
 904              		.section	".text"
 905              		.size	_ZN14StartUpProcess12ShowProgressEi, .-_ZN14StartUpProcess12ShowProgressEi
 906              		.align 2
 907              		.globl _ZN14StartUpProcess14ParseArgumentsEiPPc
 908              		.type	_ZN14StartUpProcess14ParseArgumentsEiPPc, @function
 909              	_ZN14StartUpProcess14ParseArgumentsEiPPc:
 910              	.LFB1852:
 911              		.loc 1 103 0
 912              		.cfi_startproc
 913              	.LVL20:
 914 075c 9421FFE8 		stwu 1,-24(1)
 915              	.LCFI10:
 916              		.cfi_def_cfa_offset 24
 917 0760 7C0802A6 		mflr 0
 918 0764 93810008 		stw 28,8(1)
 919              	.LBB1538:
 920              		.loc 1 105 0
 921 0768 7C7C1B79 		mr. 28,3
 922              		.cfi_offset 28, -16
 923              		.cfi_register 65, 0
 924              	.LBE1538:
 925              		.loc 1 103 0
 926 076c 9001001C 		stw 0,28(1)
 927 0770 93A1000C 		stw 29,12(1)
 928 0774 93C10010 		stw 30,16(1)
 929 0778 93E10014 		stw 31,20(1)
 930              	.LBB1554:
 931              		.loc 1 105 0
 932 077c 4081008C 		ble- 0,.L45
 933              		.cfi_offset 31, -4
 934              		.cfi_offset 30, -8
 935              		.cfi_offset 29, -12
 936              		.cfi_offset 65, 4
 937              		.loc 1 102 0
 938 0780 3BC4FFFC 		addi 30,4,-4
 939              	.LBE1554:
 940 0784 3BE00001 		li 31,1
 941              	.LVL21:
 942              	.L52:
 943              	.LBB1555:
 944              	.LBB1539:
 945              		.loc 1 107 0
 946 0788 84BE0004 		lwzu 5,4(30)
 947 078c 7FFDFB78 		mr 29,31
 948 0790 2F850000 		cmpwi 7,5,0
 949 0794 419E0068 		beq- 7,.L48
 950              		.loc 1 109 0
 951 0798 3C600000 		lis 3,.LC6@ha
 952 079c 7FE4FB78 		mr 4,31
 953 07a0 38630078 		la 3,.LC6@l(3)
 954 07a4 7FFDFB78 		mr 29,31
 955 07a8 4CC63182 		crxor 6,6,6
 956 07ac 48000001 		bl gprintf
 957              		.loc 1 111 0
 958 07b0 807E0000 		lwz 3,0(30)
 959 07b4 3C800000 		lis 4,.LC7@ha
 960 07b8 38840090 		la 4,.LC7@l(4)
 961 07bc 48000001 		bl strcasestr
 962              	.LVL22:
 963              	.LBB1540:
 964              		.loc 1 112 0
 965 07c0 2C030000 		cmpwi 0,3,0
 966 07c4 41820038 		beq- 0,.L48
 967              	.LBB1541:
 968              		.loc 1 114 0
 969 07c8 38630005 		addi 3,3,5
 970              	.LVL23:
 971 07cc 48000001 		bl atoi
 972              	.LVL24:
 973              	.LBB1542:
 974              		.loc 1 115 0
 975 07d0 2F83003A 		cmpwi 7,3,58
 976 07d4 419E0054 		beq- 7,.L55
 977              	.LVL25:
 978              	.LBB1543:
 979              	.LBB1544:
 980              		.loc 1 118 0
 981 07d8 2F8300C7 		cmpwi 7,3,199
 982 07dc 380000C8 		li 0,200
 983 07e0 409D0014 		ble- 7,.L50
 984              		.loc 1 118 0 is_stmt 0 discriminator 1
 985 07e4 2F8300FF 		cmpwi 7,3,255
 986 07e8 409D0008 		ble- 7,.L51
 987 07ec 386000FF 		li 3,255
 988              	.LVL26:
 989              	.L51:
 990 07f0 7C600734 		extsh 0,3
 991              	.L50:
 992              	.LBE1544:
 993              		.loc 1 118 0 discriminator 6
 994 07f4 3D200000 		lis 9,Settings+2570@ha
 995 07f8 B0090A0A 		sth 0,Settings+2570@l(9)
 996              	.LVL27:
 997              	.L48:
 998              	.LBE1543:
 999              	.LBE1542:
 1000              	.LBE1541:
 1001              	.LBE1540:
 1002              	.LBE1539:
 1003              		.loc 1 105 0 is_stmt 1
 1004 07fc 7F9CE800 		cmpw 7,28,29
 1005              	.LBB1552:
 1006              	.LBB1550:
 1007              	.LBB1548:
 1008              	.LBB1546:
 1009              	.LBB1545:
 1010              		.loc 1 118 0
 1011 0800 3BFF0001 		addi 31,31,1
 1012              	.LVL28:
 1013              	.LBE1545:
 1014              	.LBE1546:
 1015              	.LBE1548:
 1016              	.LBE1550:
 1017              	.LBE1552:
 1018              		.loc 1 105 0
 1019 0804 419DFF84 		bgt+ 7,.L52
 1020              	.LVL29:
 1021              	.L45:
 1022              	.LBE1555:
 1023              		.loc 1 121 0
 1024 0808 8001001C 		lwz 0,28(1)
 1025 080c 83810008 		lwz 28,8(1)
 1026              	.LVL30:
 1027 0810 7C0803A6 		mtlr 0
 1028 0814 83A1000C 		lwz 29,12(1)
 1029 0818 83C10010 		lwz 30,16(1)
 1030 081c 83E10014 		lwz 31,20(1)
 1031 0820 38210018 		addi 1,1,24
 1032              		.cfi_remember_state
 1033              	.LCFI11:
 1034              		.cfi_def_cfa_offset 0
 1035              		.cfi_restore 31
 1036              		.cfi_restore 30
 1037              		.cfi_restore 29
 1038              		.cfi_restore 28
 1039 0824 4E800020 		blr
 1040              	.LVL31:
 1041              	.L55:
 1042              	.LCFI12:
 1043              		.cfi_restore_state
 1044              	.LBB1556:
 1045              	.LBB1553:
 1046              	.LBB1551:
 1047              	.LBB1549:
 1048              	.LBB1547:
 1049              		.loc 1 116 0
 1050 0828 3D200000 		lis 9,Settings+2570@ha
 1051 082c B0690A0A 		sth 3,Settings+2570@l(9)
 1052 0830 4BFFFFCC 		b .L48
 1053              	.LBE1547:
 1054              	.LBE1549:
 1055              	.LBE1551:
 1056              	.LBE1553:
 1057              	.LBE1556:
 1058              		.cfi_endproc
 1059              	.LFE1852:
 1060              		.size	_ZN14StartUpProcess14ParseArgumentsEiPPc, .-_ZN14StartUpProcess14ParseArgumentsEiPPc
 1061              		.align 2
 1062              		.globl _ZN14StartUpProcess4DrawEv
 1063              		.type	_ZN14StartUpProcess4DrawEv, @function
 1064              	_ZN14StartUpProcess4DrawEv:
 1065              	.LFB1857:
 1066              		.loc 1 310 0
 1067              		.cfi_startproc
 1068              	.LVL32:
 1069 0834 7C0802A6 		mflr 0
 1070 0838 9421FFF0 		stwu 1,-16(1)
 1071              	.LCFI13:
 1072              		.cfi_def_cfa_offset 16
 1073              		.cfi_register 65, 0
 1074 083c 93E1000C 		stw 31,12(1)
 1075 0840 7C7F1B78 		mr 31,3
 1076              		.cfi_offset 31, -4
 1077 0844 90010014 		stw 0,20(1)
 1078              		.loc 1 311 0
 1079 0848 80630014 		lwz 3,20(3)
 1080              	.LVL33:
 1081 084c 81230000 		lwz 9,0(3)
 1082 0850 800900C0 		lwz 0,192(9)
 1083              		.cfi_offset 65, 4
 1084 0854 7C0903A6 		mtctr 0
 1085 0858 4E800421 		bctrl
 1086              		.loc 1 312 0
 1087 085c 807F0018 		lwz 3,24(31)
 1088 0860 81230000 		lwz 9,0(3)
 1089 0864 800900C0 		lwz 0,192(9)
 1090 0868 7C0903A6 		mtctr 0
 1091 086c 4E800421 		bctrl
 1092              		.loc 1 313 0
 1093 0870 807F0028 		lwz 3,40(31)
 1094 0874 81230000 		lwz 9,0(3)
 1095 0878 800900C0 		lwz 0,192(9)
 1096 087c 7C0903A6 		mtctr 0
 1097 0880 4E800421 		bctrl
 1098              		.loc 1 314 0
 1099 0884 807F002C 		lwz 3,44(31)
 1100 0888 81230000 		lwz 9,0(3)
 1101 088c 800900C0 		lwz 0,192(9)
 1102 0890 7C0903A6 		mtctr 0
 1103 0894 4E800421 		bctrl
 1104              		.loc 1 316 0
 1105 0898 881F0000 		lbz 0,0(31)
 1106 089c 2F800000 		cmpwi 7,0,0
 1107 08a0 41BE0040 		beq+ 7,.L57
 1108              		.loc 1 318 0
 1109 08a4 807F0020 		lwz 3,32(31)
 1110 08a8 81230000 		lwz 9,0(3)
 1111 08ac 800900C0 		lwz 0,192(9)
 1112 08b0 7C0903A6 		mtctr 0
 1113 08b4 4E800421 		bctrl
 1114              		.loc 1 319 0
 1115 08b8 807F0024 		lwz 3,36(31)
 1116 08bc 81230000 		lwz 9,0(3)
 1117 08c0 800900C0 		lwz 0,192(9)
 1118 08c4 7C0903A6 		mtctr 0
 1119 08c8 4E800421 		bctrl
 1120              		.loc 1 320 0
 1121 08cc 807F001C 		lwz 3,28(31)
 1122 08d0 81230000 		lwz 9,0(3)
 1123 08d4 800900C0 		lwz 0,192(9)
 1124 08d8 7C0903A6 		mtctr 0
 1125 08dc 4E800421 		bctrl
 1126              	.L57:
 1127              		.loc 1 323 0
 1128 08e0 48000001 		bl _Z11Menu_Renderv
 1129              		.loc 1 324 0
 1130 08e4 80010014 		lwz 0,20(1)
 1131 08e8 83E1000C 		lwz 31,12(1)
 1132              	.LVL34:
 1133 08ec 7C0803A6 		mtlr 0
 1134 08f0 38210010 		addi 1,1,16
 1135              	.LCFI14:
 1136              		.cfi_def_cfa_offset 0
 1137              		.cfi_restore 31
 1138 08f4 4E800020 		blr
 1139              		.cfi_endproc
 1140              	.LFE1857:
 1141              		.size	_ZN14StartUpProcess4DrawEv, .-_ZN14StartUpProcess4DrawEv
 1142              		.align 2
 1143              		.globl _ZN14StartUpProcess8TextFadeEi
 1144              		.type	_ZN14StartUpProcess8TextFadeEi, @function
 1145              	_ZN14StartUpProcess8TextFadeEi:
 1146              	.LFB1853:
 1147              		.loc 1 124 0
 1148              		.cfi_startproc
 1149              	.LVL35:
 1150 08f8 9421FFE8 		stwu 1,-24(1)
 1151              	.LCFI15:
 1152              		.cfi_def_cfa_offset 24
 1153 08fc 7C0802A6 		mflr 0
 1154 0900 93A1000C 		stw 29,12(1)
 1155              	.LBB1575:
 1156              		.loc 1 125 0
 1157 0904 7C9D2379 		mr. 29,4
 1158              		.cfi_offset 29, -12
 1159              		.cfi_register 65, 0
 1160              	.LBE1575:
 1161              		.loc 1 124 0
 1162 0908 93C10010 		stw 30,16(1)
 1163 090c 7C7E1B78 		mr 30,3
 1164              		.cfi_offset 30, -8
 1165 0910 9001001C 		stw 0,28(1)
 1166 0914 93E10014 		stw 31,20(1)
 1167              	.LBB1580:
 1168              		.loc 1 125 0
 1169 0918 4081006C 		ble- 0,.L59
 1170              		.cfi_offset 31, -4
 1171              		.cfi_offset 65, 4
 1172 091c 3BE00000 		li 31,0
 1173              	.LVL36:
 1174              	.L60:
 1175              	.LBB1576:
 1176              	.LBB1577:
 1177              		.loc 1 129 0 discriminator 2
 1178 0920 807E002C 		lwz 3,44(30)
 1179 0924 7FE4FB78 		mr 4,31
 1180              		.loc 1 123 0 discriminator 2
 1181 0928 7FFFEA14 		add 31,31,29
 1182              		.loc 1 129 0 discriminator 2
 1183 092c 81230000 		lwz 9,0(3)
 1184 0930 80090060 		lwz 0,96(9)
 1185 0934 7C0903A6 		mtctr 0
 1186 0938 4E800421 		bctrl
 1187              		.loc 1 130 0 discriminator 2
 1188 093c 7FC3F378 		mr 3,30
 1189 0940 48000001 		bl _ZN14StartUpProcess4DrawEv
 1190              	.LVL37:
 1191              		.loc 1 127 0 discriminator 2
 1192 0944 2F9F00FE 		cmpwi 7,31,254
 1193 0948 409DFFD8 		ble+ 7,.L60
 1194              	.LBE1577:
 1195              		.loc 1 132 0
 1196 094c 807E002C 		lwz 3,44(30)
 1197 0950 388000FF 		li 4,255
 1198              	.LVL38:
 1199              	.L65:
 1200              	.LBE1576:
 1201              	.LBE1580:
 1202              	.LBB1581:
 1203              	.LBB1582:
 1204              		.loc 1 142 0
 1205 0954 81230000 		lwz 9,0(3)
 1206 0958 80090060 		lwz 0,96(9)
 1207 095c 7C0903A6 		mtctr 0
 1208 0960 4E800421 		bctrl
 1209              	.LBE1582:
 1210              	.LBE1581:
 1211              		.loc 1 145 0
 1212 0964 8001001C 		lwz 0,28(1)
 1213 0968 83A1000C 		lwz 29,12(1)
 1214              	.LVL39:
 1215              	.LBB1587:
 1216              	.LBB1584:
 1217              		.loc 1 143 0
 1218 096c 7FC3F378 		mr 3,30
 1219              	.LBE1584:
 1220              	.LBE1587:
 1221              		.loc 1 145 0
 1222 0970 83E10014 		lwz 31,20(1)
 1223 0974 7C0803A6 		mtlr 0
 1224 0978 83C10010 		lwz 30,16(1)
 1225              	.LVL40:
 1226 097c 38210018 		addi 1,1,24
 1227              		.cfi_remember_state
 1228              	.LCFI16:
 1229              		.cfi_def_cfa_offset 0
 1230              		.cfi_restore 31
 1231              		.cfi_restore 30
 1232              		.cfi_restore 29
 1233              	.LBB1588:
 1234              	.LBB1585:
 1235              		.loc 1 143 0
 1236 0980 48000000 		b _ZN14StartUpProcess4DrawEv
 1237              	.LVL41:
 1238              	.L59:
 1239              	.LCFI17:
 1240              		.cfi_restore_state
 1241              	.LBE1585:
 1242              	.LBE1588:
 1243              	.LBB1589:
 1244              	.LBB1578:
 1245              		.loc 1 135 0
 1246 0984 40820020 		bne- 0,.L66
 1247              	.LBE1578:
 1248              	.LBE1589:
 1249              		.loc 1 145 0
 1250 0988 8001001C 		lwz 0,28(1)
 1251 098c 83A1000C 		lwz 29,12(1)
 1252 0990 7C0803A6 		mtlr 0
 1253 0994 83C10010 		lwz 30,16(1)
 1254 0998 83E10014 		lwz 31,20(1)
 1255 099c 38210018 		addi 1,1,24
 1256              		.cfi_remember_state
 1257              	.LCFI18:
 1258              		.cfi_def_cfa_offset 0
 1259              		.cfi_restore 31
 1260              		.cfi_restore 30
 1261              		.cfi_restore 29
 1262 09a0 4E800020 		blr
 1263              	.L66:
 1264              	.LCFI19:
 1265              		.cfi_restore_state
 1266              	.LBB1590:
 1267              	.LBB1579:
 1268              		.loc 1 135 0
 1269 09a4 3BE000FF 		li 31,255
 1270              	.LVL42:
 1271              	.L62:
 1272              	.LBE1579:
 1273              	.LBE1590:
 1274              	.LBB1591:
 1275              	.LBB1586:
 1276              	.LBB1583:
 1277              		.loc 1 139 0
 1278 09a8 807E002C 		lwz 3,44(30)
 1279 09ac 7FE4FB78 		mr 4,31
 1280 09b0 81230000 		lwz 9,0(3)
 1281 09b4 80090060 		lwz 0,96(9)
 1282 09b8 7C0903A6 		mtctr 0
 1283 09bc 4E800421 		bctrl
 1284              		.loc 1 140 0
 1285 09c0 7FC3F378 		mr 3,30
 1286 09c4 48000001 		bl _ZN14StartUpProcess4DrawEv
 1287              	.LVL43:
 1288              		.loc 1 137 0
 1289 09c8 7FFFEA15 		add. 31,31,29
 1290              	.LVL44:
 1291 09cc 4181FFDC 		bgt+ 0,.L62
 1292              	.LBE1583:
 1293              		.loc 1 142 0
 1294 09d0 807E002C 		lwz 3,44(30)
 1295 09d4 38800000 		li 4,0
 1296 09d8 4BFFFF7C 		b .L65
 1297              	.LBE1586:
 1298              	.LBE1591:
 1299              		.cfi_endproc
 1300              	.LFE1853:
 1301              		.size	_ZN14StartUpProcess8TextFadeEi, .-_ZN14StartUpProcess8TextFadeEi
 1302              		.align 2
 1303              		.globl _ZN14StartUpProcess8SetTextfEPKcz
 1304              		.type	_ZN14StartUpProcess8SetTextfEPKcz, @function
 1305              	_ZN14StartUpProcess8SetTextfEPKcz:
 1306              	.LFB1854:
 1307              		.loc 1 148 0
 1308              		.cfi_startproc
 1309              	.LVL45:
 1310 09dc 7C0802A6 		mflr 0
 1311 09e0 9421FF88 		stwu 1,-120(1)
 1312              	.LCFI20:
 1313              		.cfi_def_cfa_offset 120
 1314              		.cfi_register 65, 0
 1315 09e4 93E10074 		stw 31,116(1)
 1316 09e8 7C7F1B78 		mr 31,3
 1317              		.cfi_offset 31, -4
 1318 09ec 9001007C 		stw 0,124(1)
 1319 09f0 90A10018 		stw 5,24(1)
 1320 09f4 90C1001C 		stw 6,28(1)
 1321 09f8 90E10020 		stw 7,32(1)
 1322 09fc 91010024 		stw 8,36(1)
 1323 0a00 91210028 		stw 9,40(1)
 1324 0a04 9141002C 		stw 10,44(1)
 1325 0a08 40860024 		bne- 1,.L68
 1326              		.cfi_offset 65, 4
 1327              		.loc 1 148 0
 1328 0a0c D8210030 		stfd 1,48(1)
 1329 0a10 D8410038 		stfd 2,56(1)
 1330 0a14 D8610040 		stfd 3,64(1)
 1331 0a18 D8810048 		stfd 4,72(1)
 1332 0a1c D8A10050 		stfd 5,80(1)
 1333 0a20 D8C10058 		stfd 6,88(1)
 1334 0a24 D8E10060 		stfd 7,96(1)
 1335 0a28 D9010068 		stfd 8,104(1)
 1336              	.L68:
 1337              	.LBB1623:
 1338              		.loc 1 151 0
 1339 0a2c 7C290B78 		mr 9,1
 1340 0a30 38010080 		addi 0,1,128
 1341 0a34 94090010 		stwu 0,16(9)
 1342 0a38 39600002 		li 11,2
 1343              		.loc 1 149 0
 1344 0a3c 38000000 		li 0,0
 1345              		.loc 1 152 0
 1346 0a40 38610008 		addi 3,1,8
 1347              	.LVL46:
 1348 0a44 38A1000C 		addi 5,1,12
 1349              		.loc 1 149 0
 1350 0a48 90010008 		stw 0,8(1)
 1351              	.LVL47:
 1352              		.loc 1 151 0
 1353 0a4c 9961000C 		stb 11,12(1)
 1354 0a50 9801000D 		stb 0,13(1)
 1355 0a54 91210014 		stw 9,20(1)
 1356              		.loc 1 152 0
 1357 0a58 48000001 		bl vasprintf
 1358              	.LVL48:
 1359 0a5c 2F830000 		cmpwi 7,3,0
 1360 0a60 80610008 		lwz 3,8(1)
 1361 0a64 419C0234 		blt- 7,.L69
 1362              		.loc 1 152 0 is_stmt 0 discriminator 1
 1363 0a68 2F830000 		cmpwi 7,3,0
 1364 0a6c 419E022C 		beq- 7,.L69
 1365              	.LBB1624:
 1366              	.LBB1625:
 1367              	.LBB1626:
 1368              	.LBB1627:
 1369              		.loc 1 139 0 is_stmt 1
 1370 0a70 807F002C 		lwz 3,44(31)
 1371 0a74 388000FF 		li 4,255
 1372 0a78 81230000 		lwz 9,0(3)
 1373 0a7c 80090060 		lwz 0,96(9)
 1374 0a80 7C0903A6 		mtctr 0
 1375 0a84 4E800421 		bctrl
 1376              		.loc 1 140 0
 1377 0a88 7FE3FB78 		mr 3,31
 1378 0a8c 48000001 		bl _ZN14StartUpProcess4DrawEv
 1379              	.LVL49:
 1380              		.loc 1 139 0
 1381 0a90 807F002C 		lwz 3,44(31)
 1382 0a94 388000D7 		li 4,215
 1383 0a98 81230000 		lwz 9,0(3)
 1384 0a9c 80090060 		lwz 0,96(9)
 1385 0aa0 7C0903A6 		mtctr 0
 1386 0aa4 4E800421 		bctrl
 1387              		.loc 1 140 0
 1388 0aa8 7FE3FB78 		mr 3,31
 1389 0aac 48000001 		bl _ZN14StartUpProcess4DrawEv
 1390              	.LVL50:
 1391              		.loc 1 139 0
 1392 0ab0 807F002C 		lwz 3,44(31)
 1393 0ab4 388000AF 		li 4,175
 1394 0ab8 81230000 		lwz 9,0(3)
 1395 0abc 80090060 		lwz 0,96(9)
 1396 0ac0 7C0903A6 		mtctr 0
 1397 0ac4 4E800421 		bctrl
 1398              		.loc 1 140 0
 1399 0ac8 7FE3FB78 		mr 3,31
 1400 0acc 48000001 		bl _ZN14StartUpProcess4DrawEv
 1401              	.LVL51:
 1402              		.loc 1 139 0
 1403 0ad0 807F002C 		lwz 3,44(31)
 1404 0ad4 38800087 		li 4,135
 1405 0ad8 81230000 		lwz 9,0(3)
 1406 0adc 80090060 		lwz 0,96(9)
 1407 0ae0 7C0903A6 		mtctr 0
 1408 0ae4 4E800421 		bctrl
 1409              		.loc 1 140 0
 1410 0ae8 7FE3FB78 		mr 3,31
 1411 0aec 48000001 		bl _ZN14StartUpProcess4DrawEv
 1412              	.LVL52:
 1413              		.loc 1 139 0
 1414 0af0 807F002C 		lwz 3,44(31)
 1415 0af4 3880005F 		li 4,95
 1416 0af8 81230000 		lwz 9,0(3)
 1417 0afc 80090060 		lwz 0,96(9)
 1418 0b00 7C0903A6 		mtctr 0
 1419 0b04 4E800421 		bctrl
 1420              		.loc 1 140 0
 1421 0b08 7FE3FB78 		mr 3,31
 1422 0b0c 48000001 		bl _ZN14StartUpProcess4DrawEv
 1423              	.LVL53:
 1424              		.loc 1 139 0
 1425 0b10 807F002C 		lwz 3,44(31)
 1426 0b14 38800037 		li 4,55
 1427 0b18 81230000 		lwz 9,0(3)
 1428 0b1c 80090060 		lwz 0,96(9)
 1429 0b20 7C0903A6 		mtctr 0
 1430 0b24 4E800421 		bctrl
 1431              		.loc 1 140 0
 1432 0b28 7FE3FB78 		mr 3,31
 1433 0b2c 48000001 		bl _ZN14StartUpProcess4DrawEv
 1434              	.LVL54:
 1435              		.loc 1 139 0
 1436 0b30 807F002C 		lwz 3,44(31)
 1437 0b34 3880000F 		li 4,15
 1438 0b38 81230000 		lwz 9,0(3)
 1439 0b3c 80090060 		lwz 0,96(9)
 1440 0b40 7C0903A6 		mtctr 0
 1441 0b44 4E800421 		bctrl
 1442              		.loc 1 140 0
 1443 0b48 7FE3FB78 		mr 3,31
 1444 0b4c 48000001 		bl _ZN14StartUpProcess4DrawEv
 1445              	.LVL55:
 1446              	.LBE1627:
 1447              		.loc 1 142 0
 1448 0b50 807F002C 		lwz 3,44(31)
 1449 0b54 38800000 		li 4,0
 1450 0b58 81230000 		lwz 9,0(3)
 1451 0b5c 80090060 		lwz 0,96(9)
 1452 0b60 7C0903A6 		mtctr 0
 1453 0b64 4E800421 		bctrl
 1454              		.loc 1 143 0
 1455 0b68 7FE3FB78 		mr 3,31
 1456 0b6c 48000001 		bl _ZN14StartUpProcess4DrawEv
 1457              	.LBE1626:
 1458              	.LBE1625:
 1459              	.LBE1624:
 1460              		.loc 1 155 0
 1461 0b70 80610008 		lwz 3,8(1)
 1462 0b74 4CC63182 		crxor 6,6,6
 1463 0b78 48000001 		bl gprintf
 1464              		.loc 1 156 0
 1465 0b7c 807F002C 		lwz 3,44(31)
 1466 0b80 80810008 		lwz 4,8(1)
 1467 0b84 81230000 		lwz 9,0(3)
 1468 0b88 800900C8 		lwz 0,200(9)
 1469 0b8c 7C0903A6 		mtctr 0
 1470 0b90 4E800421 		bctrl
 1471              	.LVL56:
 1472              	.LBB1628:
 1473              	.LBB1629:
 1474              	.LBB1630:
 1475              		.loc 1 129 0
 1476 0b94 807F002C 		lwz 3,44(31)
 1477 0b98 38800000 		li 4,0
 1478 0b9c 81230000 		lwz 9,0(3)
 1479 0ba0 80090060 		lwz 0,96(9)
 1480 0ba4 7C0903A6 		mtctr 0
 1481 0ba8 4E800421 		bctrl
 1482              		.loc 1 130 0
 1483 0bac 7FE3FB78 		mr 3,31
 1484 0bb0 48000001 		bl _ZN14StartUpProcess4DrawEv
 1485              	.LVL57:
 1486              		.loc 1 129 0
 1487 0bb4 807F002C 		lwz 3,44(31)
 1488 0bb8 38800028 		li 4,40
 1489 0bbc 81230000 		lwz 9,0(3)
 1490 0bc0 80090060 		lwz 0,96(9)
 1491 0bc4 7C0903A6 		mtctr 0
 1492 0bc8 4E800421 		bctrl
 1493              		.loc 1 130 0
 1494 0bcc 7FE3FB78 		mr 3,31
 1495 0bd0 48000001 		bl _ZN14StartUpProcess4DrawEv
 1496              	.LVL58:
 1497              		.loc 1 129 0
 1498 0bd4 807F002C 		lwz 3,44(31)
 1499 0bd8 38800050 		li 4,80
 1500 0bdc 81230000 		lwz 9,0(3)
 1501 0be0 80090060 		lwz 0,96(9)
 1502 0be4 7C0903A6 		mtctr 0
 1503 0be8 4E800421 		bctrl
 1504              		.loc 1 130 0
 1505 0bec 7FE3FB78 		mr 3,31
 1506 0bf0 48000001 		bl _ZN14StartUpProcess4DrawEv
 1507              	.LVL59:
 1508              		.loc 1 129 0
 1509 0bf4 807F002C 		lwz 3,44(31)
 1510 0bf8 38800078 		li 4,120
 1511 0bfc 81230000 		lwz 9,0(3)
 1512 0c00 80090060 		lwz 0,96(9)
 1513 0c04 7C0903A6 		mtctr 0
 1514 0c08 4E800421 		bctrl
 1515              		.loc 1 130 0
 1516 0c0c 7FE3FB78 		mr 3,31
 1517 0c10 48000001 		bl _ZN14StartUpProcess4DrawEv
 1518              	.LVL60:
 1519              		.loc 1 129 0
 1520 0c14 807F002C 		lwz 3,44(31)
 1521 0c18 388000A0 		li 4,160
 1522 0c1c 81230000 		lwz 9,0(3)
 1523 0c20 80090060 		lwz 0,96(9)
 1524 0c24 7C0903A6 		mtctr 0
 1525 0c28 4E800421 		bctrl
 1526              		.loc 1 130 0
 1527 0c2c 7FE3FB78 		mr 3,31
 1528 0c30 48000001 		bl _ZN14StartUpProcess4DrawEv
 1529              	.LVL61:
 1530              		.loc 1 129 0
 1531 0c34 807F002C 		lwz 3,44(31)
 1532 0c38 388000C8 		li 4,200
 1533 0c3c 81230000 		lwz 9,0(3)
 1534 0c40 80090060 		lwz 0,96(9)
 1535 0c44 7C0903A6 		mtctr 0
 1536 0c48 4E800421 		bctrl
 1537              		.loc 1 130 0
 1538 0c4c 7FE3FB78 		mr 3,31
 1539 0c50 48000001 		bl _ZN14StartUpProcess4DrawEv
 1540              	.LVL62:
 1541              		.loc 1 129 0
 1542 0c54 807F002C 		lwz 3,44(31)
 1543 0c58 388000F0 		li 4,240
 1544 0c5c 81230000 		lwz 9,0(3)
 1545 0c60 80090060 		lwz 0,96(9)
 1546 0c64 7C0903A6 		mtctr 0
 1547 0c68 4E800421 		bctrl
 1548              		.loc 1 130 0
 1549 0c6c 7FE3FB78 		mr 3,31
 1550 0c70 48000001 		bl _ZN14StartUpProcess4DrawEv
 1551              	.LVL63:
 1552              	.LBE1630:
 1553              		.loc 1 132 0
 1554 0c74 807F002C 		lwz 3,44(31)
 1555 0c78 388000FF 		li 4,255
 1556 0c7c 81230000 		lwz 9,0(3)
 1557 0c80 80090060 		lwz 0,96(9)
 1558 0c84 7C0903A6 		mtctr 0
 1559 0c88 4E800421 		bctrl
 1560              		.loc 1 133 0
 1561 0c8c 7FE3FB78 		mr 3,31
 1562 0c90 48000001 		bl _ZN14StartUpProcess4DrawEv
 1563 0c94 80610008 		lwz 3,8(1)
 1564              	.LVL64:
 1565              	.L69:
 1566              	.LBE1629:
 1567              	.LBE1628:
 1568              		.loc 1 161 0
 1569 0c98 2F830000 		cmpwi 7,3,0
 1570 0c9c 419E0008 		beq- 7,.L67
 1571              		.loc 1 162 0
 1572 0ca0 48000001 		bl free
 1573              	.L67:
 1574              	.LBE1623:
 1575              		.loc 1 163 0
 1576 0ca4 8001007C 		lwz 0,124(1)
 1577 0ca8 83E10074 		lwz 31,116(1)
 1578              	.LVL65:
 1579 0cac 7C0803A6 		mtlr 0
 1580 0cb0 38210078 		addi 1,1,120
 1581              	.LCFI21:
 1582              		.cfi_def_cfa_offset 0
 1583              		.cfi_restore 31
 1584 0cb4 4E800020 		blr
 1585              		.cfi_endproc
 1586              	.LFE1854:
 1587              		.size	_ZN14StartUpProcess8SetTextfEPKcz, .-_ZN14StartUpProcess8SetTextfEPKcz
 1588              		.align 2
 1589              		.globl _ZN14StartUpProcess7ExecuteEiPPc
 1590              		.type	_ZN14StartUpProcess7ExecuteEiPPc, @function
 1591              	_ZN14StartUpProcess7ExecuteEiPPc:
 1592              	.LFB1856:
 1593              		.loc 1 173 0
 1594              		.cfi_startproc
 1595              		.cfi_personality 0,__gxx_personality_v0
 1596              		.cfi_lsda 0,.LLSDA1856
 1597              	.LVL66:
 1598 0cb8 9421FFE0 		stwu 1,-32(1)
 1599              	.LCFI22:
 1600              		.cfi_def_cfa_offset 32
 1601 0cbc 7C0802A6 		mflr 0
 1602 0cc0 7D800026 		mfcr 12
 1603 0cc4 93A10014 		stw 29,20(1)
 1604 0cc8 7C9D2378 		mr 29,4
 1605              		.cfi_offset 29, -12
 1606              		.cfi_register 70, 12
 1607              		.cfi_register 65, 0
 1608              	.LBB1631:
 1609              		.loc 1 174 0
 1610 0ccc 38800000 		li 4,0
 1611              	.LVL67:
 1612              	.LBE1631:
 1613              		.loc 1 173 0
 1614 0cd0 90010024 		stw 0,36(1)
 1615 0cd4 9181000C 		stw 12,12(1)
 1616 0cd8 93810010 		stw 28,16(1)
 1617 0cdc 7CBC2B78 		mr 28,5
 1618              		.cfi_offset 28, -16
 1619              		.cfi_offset 70, -20
 1620              		.cfi_offset 65, 4
 1621 0ce0 93E1001C 		stw 31,28(1)
 1622 0ce4 7C7F1B78 		mr 31,3
 1623              		.cfi_offset 31, -4
 1624 0ce8 93C10018 		stw 30,24(1)
 1625              	.LEHB22:
 1626              	.LBB1661:
 1627              		.loc 1 174 0
 1628              		.cfi_offset 30, -8
 1629 0cec 48000001 		bl _ZN14StartUpProcess12ShowProgressEi
 1630              	.LVL68:
 1631              		.loc 1 175 0
 1632 0cf0 3C800000 		lis 4,.LC11@ha
 1633 0cf4 7FE3FB78 		mr 3,31
 1634 0cf8 388400C0 		la 4,.LC11@l(4)
 1635 0cfc 4CC63182 		crxor 6,6,6
 1636 0d00 48000001 		bl _ZN14StartUpProcess8SetTextfEPKcz
 1637              		.loc 1 177 0
 1638 0d04 48000001 		bl _ZN13DeviceHandler8InstanceEv
 1639 0d08 48000001 		bl _ZN13DeviceHandler7MountSDEv
 1640 0d0c 2F830000 		cmpwi 7,3,0
 1641 0d10 419E0330 		beq- 7,.L92
 1642 0d14 3C800000 		lis 4,.LC8@ha
 1643 0d18 38840098 		la 4,.LC8@l(4)
 1644              	.L73:
 1645              		.loc 1 177 0 is_stmt 0 discriminator 3
 1646 0d1c 3C600000 		lis 3,.LC12@ha
 1647 0d20 386300D8 		la 3,.LC12@l(3)
 1648 0d24 4CC63182 		crxor 6,6,6
 1649 0d28 48000001 		bl gprintf
 1650              		.loc 1 178 0 is_stmt 1 discriminator 3
 1651 0d2c 38800001 		li 4,1
 1652 0d30 7FE3FB78 		mr 3,31
 1653 0d34 48000001 		bl _ZN14StartUpProcess12ShowProgressEi
 1654              		.loc 1 180 0 discriminator 3
 1655 0d38 48000001 		bl _ZN13DeviceHandler8InstanceEv
 1656 0d3c 48000001 		bl _ZN13DeviceHandler11MountAllUSBEv
 1657 0d40 2F830000 		cmpwi 7,3,0
 1658 0d44 419E02F0 		beq- 7,.L93
 1659              		.loc 1 180 0 is_stmt 0
 1660 0d48 3C800000 		lis 4,.LC8@ha
 1661 0d4c 38840098 		la 4,.LC8@l(4)
 1662              	.L74:
 1663              		.loc 1 180 0 discriminator 3
 1664 0d50 3C600000 		lis 3,.LC13@ha
 1665              		.loc 1 185 0 is_stmt 1 discriminator 3
 1666 0d54 3FC00000 		lis 30,Settings@ha
 1667              		.loc 1 180 0 discriminator 3
 1668 0d58 386300EC 		la 3,.LC13@l(3)
 1669              		.loc 1 185 0 discriminator 3
 1670 0d5c 3BDE0000 		la 30,Settings@l(30)
 1671              		.loc 1 180 0 discriminator 3
 1672 0d60 4CC63182 		crxor 6,6,6
 1673 0d64 48000001 		bl gprintf
 1674              		.loc 1 181 0 discriminator 3
 1675 0d68 7FE3FB78 		mr 3,31
 1676 0d6c 38800002 		li 4,2
 1677 0d70 48000001 		bl _ZN14StartUpProcess12ShowProgressEi
 1678              		.loc 1 183 0 discriminator 3
 1679 0d74 3C800000 		lis 4,.LC14@ha
 1680 0d78 7FE3FB78 		mr 3,31
 1681 0d7c 38840100 		la 4,.LC14@l(4)
 1682 0d80 4CC63182 		crxor 6,6,6
 1683 0d84 48000001 		bl _ZN14StartUpProcess8SetTextfEPKcz
 1684              	.LVL69:
 1685              		.loc 1 185 0 discriminator 3
 1686 0d88 7FC3F378 		mr 3,30
 1687 0d8c 48000001 		bl _ZN9CSettings4LoadEv
 1688              	.LVL70:
 1689 0d90 2E030000 		cmpwi 4,3,0
 1690 0d94 41920294 		beq- 4,.L94
 1691              		.loc 1 185 0 is_stmt 0
 1692 0d98 3C800000 		lis 4,.LC8@ha
 1693 0d9c 38840098 		la 4,.LC8@l(4)
 1694              	.L75:
 1695              		.loc 1 185 0 discriminator 3
 1696 0da0 3C600000 		lis 3,.LC15@ha
 1697              	.LVL71:
 1698 0da4 38630118 		la 3,.LC15@l(3)
 1699 0da8 4CC63182 		crxor 6,6,6
 1700 0dac 48000001 		bl gprintf
 1701              		.loc 1 186 0 is_stmt 1 discriminator 3
 1702 0db0 7FE3FB78 		mr 3,31
 1703 0db4 38800003 		li 4,3
 1704 0db8 48000001 		bl _ZN14StartUpProcess12ShowProgressEi
 1705              		.loc 1 188 0 discriminator 3
 1706 0dbc 7FA3EB78 		mr 3,29
 1707 0dc0 7F84E378 		mr 4,28
 1708 0dc4 48000001 		bl _ZN14StartUpProcess14ParseArgumentsEiPPc
 1709              		.loc 1 189 0 discriminator 3
 1710 0dc8 7FE3FB78 		mr 3,31
 1711 0dcc 38800004 		li 4,4
 1712 0dd0 48000001 		bl _ZN14StartUpProcess12ShowProgressEi
 1713              		.loc 1 191 0 discriminator 3
 1714 0dd4 3C800000 		lis 4,.LC16@ha
 1715 0dd8 7FE3FB78 		mr 3,31
 1716 0ddc 38840130 		la 4,.LC16@l(4)
 1717 0de0 4CC63182 		crxor 6,6,6
 1718 0de4 48000001 		bl _ZN14StartUpProcess8SetTextfEPKcz
 1719              		.loc 1 192 0 discriminator 3
 1720 0de8 ABBE0A0A 		lha 29,2570(30)
 1721              	.LVL72:
 1722 0dec 48000001 		bl IOS_GetVersion
 1723 0df0 7F9D1800 		cmpw 7,29,3
 1724 0df4 419E0040 		beq- 7,.L76
 1725              		.loc 1 194 0
 1726 0df8 A89E0A0A 		lha 4,2570(30)
 1727 0dfc 3C600000 		lis 3,.LC17@ha
 1728 0e00 38630144 		la 3,.LC17@l(3)
 1729 0e04 4CC63182 		crxor 6,6,6
 1730 0e08 48000001 		bl gprintf
 1731              		.loc 1 196 0
 1732 0e0c 48000001 		bl _ZN13DeviceHandler15DestroyInstanceEv
 1733              		.loc 1 199 0
 1734 0e10 48000001 		bl _ZN9IosLoader11LoadAppCiosEv
 1735              		.loc 1 201 0
 1736 0e14 38800005 		li 4,5
 1737 0e18 7FE3FB78 		mr 3,31
 1738 0e1c 48000001 		bl _ZN14StartUpProcess12ShowProgressEi
 1739              		.loc 1 203 0
 1740 0e20 48000001 		bl _ZN13DeviceHandler8InstanceEv
 1741 0e24 48000001 		bl _ZN13DeviceHandler7MountSDEv
 1742              		.loc 1 204 0
 1743 0e28 48000001 		bl _ZN13DeviceHandler8InstanceEv
 1744 0e2c 48000001 		bl _ZN13DeviceHandler11MountAllUSBEv
 1745              		.loc 1 207 0
 1746 0e30 419202F4 		beq- 4,.L104
 1747              	.L76:
 1748              		.loc 1 211 0
 1749 0e34 38800006 		li 4,6
 1750 0e38 7FE3FB78 		mr 3,31
 1751 0e3c 48000001 		bl _ZN14StartUpProcess12ShowProgressEi
 1752              		.loc 1 232 0
 1753 0e40 48000001 		bl _Z9SetupPadsv
 1754              		.loc 1 233 0
 1755 0e44 48000001 		bl _Z9InitAudiov
 1756              		.loc 1 234 0
 1757 0e48 48000001 		bl Sys_Init
 1758              		.loc 1 235 0
 1759 0e4c 48000001 		bl _ZN4Nand7StartupEv
 1760              		.loc 1 236 0
 1761 0e50 7FC3F378 		mr 3,30
 1762 0e54 389E0526 		addi 4,30,1318
 1763 0e58 38A0000A 		li 5,10
 1764 0e5c 48000001 		bl _ZN9CSettings12LoadLanguageEPKci
 1765 0e60 2F830000 		cmpwi 7,3,0
 1766 0e64 419E01B8 		beq- 7,.L95
 1767 0e68 3C800000 		lis 4,.LC8@ha
 1768 0e6c 38840098 		la 4,.LC8@l(4)
 1769              	.L77:
 1770              		.loc 1 236 0 is_stmt 0 discriminator 3
 1771 0e70 3C600000 		lis 3,.LC18@ha
 1772 0e74 38630158 		la 3,.LC18@l(3)
 1773 0e78 4CC63182 		crxor 6,6,6
 1774 0e7c 48000001 		bl gprintf
 1775              		.loc 1 238 0 is_stmt 1 discriminator 3
 1776 0e80 48000001 		bl IOS_GetVersion
 1777 0e84 7C7D1B78 		mr 29,3
 1778 0e88 48000001 		bl IOS_GetRevision
 1779 0e8c 3C800000 		lis 4,.LC19@ha
 1780 0e90 7C661B78 		mr 6,3
 1781 0e94 7FA5EB78 		mr 5,29
 1782 0e98 38840170 		la 4,.LC19@l(4)
 1783 0e9c 7FE3FB78 		mr 3,31
 1784 0ea0 4CC63182 		crxor 6,6,6
 1785 0ea4 48000001 		bl _ZN14StartUpProcess8SetTextfEPKcz
 1786              		.loc 1 242 0 discriminator 3
 1787 0ea8 7FE3FB78 		mr 3,31
 1788 0eac 38800008 		li 4,8
 1789 0eb0 48000001 		bl _ZN14StartUpProcess12ShowProgressEi
 1790              		.loc 1 263 0 discriminator 3
 1791 0eb4 3C800000 		lis 4,.LC20@ha
 1792 0eb8 7FE3FB78 		mr 3,31
 1793 0ebc 38840184 		la 4,.LC20@l(4)
 1794 0ec0 4CC63182 		crxor 6,6,6
 1795 0ec4 48000001 		bl _ZN14StartUpProcess8SetTextfEPKcz
 1796              		.loc 1 264 0 discriminator 3
 1797 0ec8 A81E008E 		lha 0,142(30)
 1798 0ecc 387E071A 		addi 3,30,1818
 1799 0ed0 2F800000 		cmpwi 7,0,0
 1800 0ed4 419E000C 		beq- 7,.L78
 1801              		.loc 1 264 0 is_stmt 0
 1802 0ed8 3C600000 		lis 3,.LC0@ha
 1803 0edc 38630000 		la 3,.LC0@l(3)
 1804              	.L78:
 1805              		.loc 1 264 0 discriminator 3
 1806 0ee0 48000001 		bl _ZN5Theme8LoadFontEPKc
 1807 0ee4 2F830000 		cmpwi 7,3,0
 1808 0ee8 419E0170 		beq- 7,.L97
 1809              		.loc 1 264 0
 1810 0eec 3C800000 		lis 4,.LC8@ha
 1811 0ef0 38840098 		la 4,.LC8@l(4)
 1812              	.L79:
 1813              		.loc 1 264 0 discriminator 3
 1814 0ef4 3C600000 		lis 3,.LC21@ha
 1815 0ef8 38630194 		la 3,.LC21@l(3)
 1816 0efc 4CC63182 		crxor 6,6,6
 1817 0f00 48000001 		bl gprintf
 1818              		.loc 1 265 0 is_stmt 1 discriminator 3
 1819 0f04 3C600000 		lis 3,Settings+394@ha
 1820 0f08 3863018A 		la 3,Settings+394@l(3)
 1821 0f0c 48000001 		bl _ZN5Theme4LoadEPKc
 1822 0f10 2F830000 		cmpwi 7,3,0
 1823 0f14 419E0138 		beq- 7,.L98
 1824              		.loc 1 265 0 is_stmt 0
 1825 0f18 3C800000 		lis 4,.LC8@ha
 1826 0f1c 38840098 		la 4,.LC8@l(4)
 1827              	.L80:
 1828              		.loc 1 265 0 discriminator 3
 1829 0f20 3C600000 		lis 3,.LC22@ha
 1830              		.loc 1 273 0 is_stmt 1 discriminator 3
 1831 0f24 3F800000 		lis 28,.LC23@ha
 1832              	.LVL73:
 1833              		.loc 1 265 0 discriminator 3
 1834 0f28 386301A8 		la 3,.LC22@l(3)
 1835              		.loc 1 273 0 discriminator 3
 1836 0f2c 3B9C01C0 		la 28,.LC23@l(28)
 1837              		.loc 1 265 0 discriminator 3
 1838 0f30 4CC63182 		crxor 6,6,6
 1839 0f34 48000001 		bl gprintf
 1840              		.loc 1 267 0 discriminator 3
 1841 0f38 3880000B 		li 4,11
 1842 0f3c 7FE3FB78 		mr 3,31
 1843              	.LBB1632:
 1844              	.LBB1633:
 1845              		.file 2 "d:/Projects/SaveGameManager/savegame-manager-gx/trunk/source/Tools/../SoundOperations/Sou
 1846              		.loc 2 38 0 discriminator 3
 1847 0f40 3FA00000 		lis 29,_ZN12SoundHandler8instanceE@ha
 1848              	.LBE1633:
 1849              	.LBE1632:
 1850              		.loc 1 267 0 discriminator 3
 1851 0f44 48000001 		bl _ZN14StartUpProcess12ShowProgressEi
 1852              		.loc 1 270 0 discriminator 3
 1853 0f48 48000001 		bl LWP_GetSelf
 1854 0f4c 38800078 		li 4,120
 1855 0f50 48000001 		bl LWP_SetThreadPriority
 1856              		.loc 1 273 0 discriminator 3
 1857 0f54 7F84E378 		mr 4,28
 1858 0f58 38600002 		li 3,2
 1859 0f5c 48000001 		bl setlocale
 1860              		.loc 1 274 0 discriminator 3
 1861 0f60 38600006 		li 3,6
 1862 0f64 7F84E378 		mr 4,28
 1863 0f68 48000001 		bl setlocale
 1864              	.LBB1636:
 1865              	.LBB1634:
 1866              		.loc 2 38 0 discriminator 3
 1867 0f6c 801D0000 		lwz 0,_ZN12SoundHandler8instanceE@l(29)
 1868 0f70 2F800000 		cmpwi 7,0,0
 1869 0f74 419E01BC 		beq- 7,.L105
 1870              	.L81:
 1871              	.LBE1634:
 1872              	.LBE1636:
 1873              		.loc 1 280 0
 1874 0f78 A81E051C 		lha 0,1308(30)
 1875 0f7c 2F800000 		cmpwi 7,0,0
 1876 0f80 409E0174 		bne- 7,.L106
 1877              	.LBB1637:
 1878              	.LBB1638:
 1879              		.file 3 "d:/Projects/SaveGameManager/savegame-manager-gx/trunk/source/Tools/../Controls/ThreadedTa
 1880              		.loc 3 36 0
 1881 0f84 3FC00000 		lis 30,_ZN19ThreadedTaskHandler8instanceE@ha
 1882 0f88 801E0000 		lwz 0,_ZN19ThreadedTaskHandler8instanceE@l(30)
 1883 0f8c 2F800000 		cmpwi 7,0,0
 1884 0f90 419E017C 		beq- 7,.L107
 1885              	.L85:
 1886              	.LBE1638:
 1887              	.LBE1637:
 1888              		.loc 1 293 0
 1889 0f94 7FE3FB78 		mr 3,31
 1890 0f98 3880000C 		li 4,12
 1891 0f9c 48000001 		bl _ZN14StartUpProcess12ShowProgressEi
 1892              		.loc 1 294 0
 1893 0fa0 3C800000 		lis 4,.LC24@ha
 1894 0fa4 388401C8 		la 4,.LC24@l(4)
 1895 0fa8 7FE3FB78 		mr 3,31
 1896 0fac 4CC63182 		crxor 6,6,6
 1897 0fb0 48000001 		bl _ZN14StartUpProcess8SetTextfEPKcz
 1898              		.loc 1 295 0
 1899 0fb4 3C600001 		lis 3,0x1
 1900 0fb8 606386A0 		ori 3,3,34464
 1901 0fbc 48000001 		bl usleep
 1902              		.loc 1 297 0
 1903 0fc0 48000001 		bl _ZN13DeviceHandler8InstanceEv
 1904              		.loc 1 324 0
 1905 0fc4 81230000 		lwz 9,0(3)
 1906              	.LBB1642:
 1907              	.LBB1643:
 1908              		.file 4 "d:/Projects/SaveGameManager/savegame-manager-gx/trunk/source/Tools/../DeviceControls/Devi
 1909              		.loc 4 149 0
 1910 0fc8 2F890000 		cmpwi 7,9,0
 1911 0fcc 419E0098 		beq- 7,.L87
 1912              	.LBE1643:
 1913              		.loc 1 324 0
 1914 0fd0 81290000 		lwz 9,0(9)
 1915              	.LBB1646:
 1916              	.LBB1644:
 1917              	.LBB1645:
 1918              		.file 5 "d:/Projects/SaveGameManager/savegame-manager-gx/trunk/source/Tools/../DeviceControls/Part
 1919              		.loc 5 124 0
 1920 0fd4 2F890000 		cmpwi 7,9,0
 1921 0fd8 419E008C 		beq- 7,.L87
 1922 0fdc 8009000C 		lwz 0,12(9)
 1923 0fe0 7C0903A6 		mtctr 0
 1924 0fe4 4E800421 		bctrl
 1925              	.LBE1645:
 1926              	.LBE1644:
 1927              	.LBE1646:
 1928              	.LBE1642:
 1929              		.loc 1 297 0
 1930 0fe8 2F830000 		cmpwi 7,3,0
 1931              		.loc 1 306 0
 1932 0fec 38600001 		li 3,1
 1933              		.loc 1 297 0
 1934 0ff0 419E0074 		beq- 7,.L87
 1935              	.L89:
 1936              	.LBE1661:
 1937              		.loc 1 307 0
 1938 0ff4 80010024 		lwz 0,36(1)
 1939 0ff8 8181000C 		lwz 12,12(1)
 1940 0ffc 7C0803A6 		mtlr 0
 1941 1000 83810010 		lwz 28,16(1)
 1942 1004 83A10014 		lwz 29,20(1)
 1943 1008 7D808120 		mtcrf 8,12
 1944 100c 83C10018 		lwz 30,24(1)
 1945 1010 83E1001C 		lwz 31,28(1)
 1946              	.LVL74:
 1947 1014 38210020 		addi 1,1,32
 1948              		.cfi_remember_state
 1949              	.LCFI23:
 1950              		.cfi_def_cfa_offset 0
 1951              		.cfi_restore 70
 1952              		.cfi_restore 31
 1953              		.cfi_restore 30
 1954              		.cfi_restore 29
 1955              		.cfi_restore 28
 1956 1018 4E800020 		blr
 1957              	.LVL75:
 1958              	.L95:
 1959              	.LCFI24:
 1960              		.cfi_restore_state
 1961              	.LBB1662:
 1962              		.loc 1 236 0
 1963 101c 3C800000 		lis 4,.LC9@ha
 1964 1020 388400A0 		la 4,.LC9@l(4)
 1965 1024 4BFFFE4C 		b .L77
 1966              	.LVL76:
 1967              	.L94:
 1968              		.loc 1 185 0
 1969 1028 3C800000 		lis 4,.LC9@ha
 1970 102c 388400A0 		la 4,.LC9@l(4)
 1971 1030 4BFFFD70 		b .L75
 1972              	.LVL77:
 1973              	.L93:
 1974              		.loc 1 180 0
 1975 1034 3C800000 		lis 4,.LC9@ha
 1976 1038 388400A0 		la 4,.LC9@l(4)
 1977 103c 4BFFFD14 		b .L74
 1978              	.L92:
 1979              		.loc 1 177 0
 1980 1040 3C800000 		lis 4,.LC9@ha
 1981 1044 388400A0 		la 4,.LC9@l(4)
 1982 1048 4BFFFCD4 		b .L73
 1983              	.LVL78:
 1984              	.L98:
 1985              		.loc 1 265 0
 1986 104c 3C800000 		lis 4,.LC10@ha
 1987 1050 388400A8 		la 4,.LC10@l(4)
 1988 1054 4BFFFECC 		b .L80
 1989              	.L97:
 1990              		.loc 1 264 0
 1991 1058 3C800000 		lis 4,.LC10@ha
 1992 105c 388400A8 		la 4,.LC10@l(4)
 1993 1060 4BFFFE94 		b .L79
 1994              	.LVL79:
 1995              	.L87:
 1996              		.loc 1 298 0 discriminator 1
 1997 1064 48000001 		bl _ZN13DeviceHandler8InstanceEv
 1998              		.loc 1 324 0 discriminator 1
 1999 1068 81230004 		lwz 9,4(3)
 2000              	.LBB1647:
 2001              	.LBB1648:
 2002              		.loc 4 152 0 discriminator 1
 2003 106c 2F890000 		cmpwi 7,9,0
 2004 1070 419E0028 		beq- 7,.L90
 2005              	.LBE1648:
 2006              		.loc 1 324 0
 2007 1074 81290000 		lwz 9,0(9)
 2008              	.LBB1651:
 2009              	.LBB1649:
 2010              	.LBB1650:
 2011              		.loc 5 124 0
 2012 1078 2F890000 		cmpwi 7,9,0
 2013 107c 419E001C 		beq- 7,.L90
 2014 1080 8009000C 		lwz 0,12(9)
 2015 1084 7C0903A6 		mtctr 0
 2016 1088 4E800421 		bctrl
 2017              	.LBE1650:
 2018              	.LBE1649:
 2019              	.LBE1651:
 2020              	.LBE1647:
 2021              		.loc 1 297 0
 2022 108c 2F830000 		cmpwi 7,3,0
 2023              		.loc 1 306 0
 2024 1090 38600001 		li 3,1
 2025              		.loc 1 297 0
 2026 1094 409EFF60 		bne+ 7,.L89
 2027              	.L90:
 2028              		.loc 1 299 0 discriminator 3
 2029 1098 48000001 		bl _ZN13DeviceHandler8InstanceEv
 2030              		.loc 1 324 0 discriminator 3
 2031 109c 81230008 		lwz 9,8(3)
 2032              	.LBB1652:
 2033              	.LBB1653:
 2034              		.loc 4 153 0 discriminator 3
 2035 10a0 2F890000 		cmpwi 7,9,0
 2036 10a4 419E0028 		beq- 7,.L91
 2037              	.LBE1653:
 2038              		.loc 1 324 0
 2039 10a8 81290000 		lwz 9,0(9)
 2040              	.LBB1656:
 2041              	.LBB1654:
 2042              	.LBB1655:
 2043              		.loc 5 124 0
 2044 10ac 2F890000 		cmpwi 7,9,0
 2045 10b0 419E001C 		beq- 7,.L91
 2046 10b4 8009000C 		lwz 0,12(9)
 2047 10b8 7C0903A6 		mtctr 0
 2048 10bc 4E800421 		bctrl
 2049              	.LBE1655:
 2050              	.LBE1654:
 2051              	.LBE1656:
 2052              	.LBE1652:
 2053              		.loc 1 297 0
 2054 10c0 2F830000 		cmpwi 7,3,0
 2055              		.loc 1 306 0
 2056 10c4 38600001 		li 3,1
 2057              		.loc 1 297 0
 2058 10c8 409EFF2C 		bne+ 7,.L89
 2059              	.L91:
 2060              		.loc 1 301 0 discriminator 5
 2061 10cc 3C800000 		lis 4,.LC25@ha
 2062 10d0 7FE3FB78 		mr 3,31
 2063 10d4 388401D8 		la 4,.LC25@l(4)
 2064 10d8 4CC63182 		crxor 6,6,6
 2065 10dc 48000001 		bl _ZN14StartUpProcess8SetTextfEPKcz
 2066              		.loc 1 302 0 discriminator 5
 2067 10e0 3C600003 		lis 3,0x3
 2068 10e4 60630D40 		ori 3,3,3392
 2069 10e8 48000001 		bl usleep
 2070              		.loc 1 303 0 discriminator 5
 2071 10ec 38600000 		li 3,0
 2072 10f0 4BFFFF04 		b .L89
 2073              	.L106:
 2074              	.LBB1657:
 2075              	.LBB1639:
 2076              		.loc 3 36 0
 2077 10f4 3FC00000 		lis 30,_ZN19ThreadedTaskHandler8instanceE@ha
 2078              	.LBE1639:
 2079              	.LBE1657:
 2080              		.loc 1 282 0
 2081 10f8 48000001 		bl _Z17InitNetworkThreadv
 2082              		.loc 1 283 0
 2083 10fc 48000001 		bl _Z19ResumeNetworkThreadv
 2084              	.LBB1658:
 2085              	.LBB1640:
 2086              		.loc 3 36 0
 2087 1100 801E0000 		lwz 0,_ZN19ThreadedTaskHandler8instanceE@l(30)
 2088 1104 2F800000 		cmpwi 7,0,0
 2089 1108 409EFE8C 		bne+ 7,.L85
 2090              	.L107:
 2091 110c 38600038 		li 3,56
 2092 1110 48000001 		bl _Znwj
 2093              	.LEHE22:
 2094 1114 7C7D1B78 		mr 29,3
 2095              	.LEHB23:
 2096 1118 48000001 		bl _ZN19ThreadedTaskHandlerC1Ev
 2097              	.LEHE23:
 2098 111c 93BE0000 		stw 29,_ZN19ThreadedTaskHandler8instanceE@l(30)
 2099 1120 4BFFFE74 		b .L85
 2100              	.LVL80:
 2101              	.L104:
 2102              	.LBE1640:
 2103              	.LBE1658:
 2104              		.loc 1 208 0
 2105 1124 7FC3F378 		mr 3,30
 2106              	.LEHB24:
 2107 1128 48000001 		bl _ZN9CSettings4LoadEv
 2108 112c 4BFFFD08 		b .L76
 2109              	.LVL81:
 2110              	.L105:
 2111              	.LBB1659:
 2112              	.LBB1635:
 2113              		.loc 2 38 0
 2114 1130 38600050 		li 3,80
 2115 1134 48000001 		bl _Znwj
 2116              	.LEHE24:
 2117 1138 7C7C1B78 		mr 28,3
 2118              	.LEHB25:
 2119 113c 48000001 		bl _ZN12SoundHandlerC1Ev
 2120              	.LEHE25:
 2121 1140 939D0000 		stw 28,_ZN12SoundHandler8instanceE@l(29)
 2122 1144 4BFFFE34 		b .L81
 2123              	.L102:
 2124 1148 7C7F1B78 		mr 31,3
 2125              	.LVL82:
 2126 114c 7F83E378 		mr 3,28
 2127 1150 48000001 		bl _ZdlPv
 2128 1154 7FE3FB78 		mr 3,31
 2129              	.LEHB26:
 2130 1158 48000001 		bl _Unwind_Resume
 2131              	.LVL83:
 2132              	.L103:
 2133 115c 7C7F1B78 		mr 31,3
 2134              	.LVL84:
 2135              	.LBE1635:
 2136              	.LBE1659:
 2137              	.LBB1660:
 2138              	.LBB1641:
 2139              		.loc 3 36 0
 2140 1160 7FA3EB78 		mr 3,29
 2141 1164 48000001 		bl _ZdlPv
 2142 1168 7FE3FB78 		mr 3,31
 2143 116c 48000001 		bl _Unwind_Resume
 2144              	.LEHE26:
 2145              	.LBE1641:
 2146              	.LBE1660:
 2147              	.LBE1662:
 2148              		.cfi_endproc
 2149              	.LFE1856:
 2150              		.section	.gcc_except_table
 2151              	.LLSDA1856:
 2152 007f FF       		.byte	0xff
 2153 0080 FF       		.byte	0xff
 2154 0081 01       		.byte	0x1
 2155 0082 1B       		.uleb128 .LLSDACSE1856-.LLSDACSB1856
 2156              	.LLSDACSB1856:
 2157 0083 34       		.uleb128 .LEHB22-.LFB1856
 2158 0084 A808     		.uleb128 .LEHE22-.LEHB22
 2159 0086 00       		.uleb128 0
 2160 0087 00       		.uleb128 0
 2161 0088 E008     		.uleb128 .LEHB23-.LFB1856
 2162 008a 04       		.uleb128 .LEHE23-.LEHB23
 2163 008b A409     		.uleb128 .L103-.LFB1856
 2164 008d 00       		.uleb128 0
 2165 008e F008     		.uleb128 .LEHB24-.LFB1856
 2166 0090 10       		.uleb128 .LEHE24-.LEHB24
 2167 0091 00       		.uleb128 0
 2168 0092 00       		.uleb128 0
 2169 0093 8409     		.uleb128 .LEHB25-.LFB1856
 2170 0095 04       		.uleb128 .LEHE25-.LEHB25
 2171 0096 9009     		.uleb128 .L102-.LFB1856
 2172 0098 00       		.uleb128 0
 2173 0099 A009     		.uleb128 .LEHB26-.LFB1856
 2174 009b 18       		.uleb128 .LEHE26-.LEHB26
 2175 009c 00       		.uleb128 0
 2176 009d 00       		.uleb128 0
 2177              	.LLSDACSE1856:
 2178              		.section	".text"
 2179              		.size	_ZN14StartUpProcess7ExecuteEiPPc, .-_ZN14StartUpProcess7ExecuteEiPPc
 2180              		.align 2
 2181              		.globl _ZN14StartUpProcess3RunEiPPc
 2182              		.type	_ZN14StartUpProcess3RunEiPPc, @function
 2183              	_ZN14StartUpProcess3RunEiPPc:
 2184              	.LFB1855:
 2185              		.loc 1 166 0
 2186              		.cfi_startproc
 2187              		.cfi_personality 0,__gxx_personality_v0
 2188              		.cfi_lsda 0,.LLSDA1855
 2189              	.LVL85:
 2190 1170 7C0802A6 		mflr 0
 2191 1174 9421FF98 		stwu 1,-104(1)
 2192              	.LCFI25:
 2193              		.cfi_def_cfa_offset 104
 2194              		.cfi_register 65, 0
 2195              	.LVL86:
 2196 1178 7D800026 		mfcr 12
 2197 117c 93010048 		stw 24,72(1)
 2198 1180 7C982378 		mr 24,4
 2199              		.cfi_offset 24, -32
 2200              		.cfi_register 70, 12
 2201 1184 9001006C 		stw 0,108(1)
 2202              	.LBB1686:
 2203              	.LBB1687:
 2204              	.LBB1688:
 2205              		.loc 1 23 0
 2206 1188 38000000 		li 0,0
 2207              		.cfi_offset 65, 4
 2208              	.LBE1688:
 2209              	.LBE1687:
 2210              	.LBE1686:
 2211              		.loc 1 166 0
 2212 118c 91810040 		stw 12,64(1)
 2213              	.LBB1745:
 2214              	.LBB1698:
 2215              	.LBB1689:
 2216              		.loc 1 23 0
 2217 1190 98010008 		stb 0,8(1)
 2218              	.LBE1689:
 2219              	.LBE1698:
 2220              	.LBE1745:
 2221              		.loc 1 166 0
 2222 1194 9321004C 		stw 25,76(1)
 2223 1198 7C791B78 		mr 25,3
 2224              		.cfi_offset 25, -28
 2225              		.cfi_offset 70, -40
 2226 119c 93410050 		stw 26,80(1)
 2227              	.LBB1746:
 2228              	.LBB1699:
 2229              	.LBB1690:
 2230              		.loc 1 34 0
 2231 11a0 3F400000 		lis 26,.LC0@ha
 2232              		.cfi_offset 26, -24
 2233              	.LBE1690:
 2234              	.LBE1699:
 2235              	.LBE1746:
 2236              		.loc 1 166 0
 2237 11a4 93610054 		stw 27,84(1)
 2238              	.LBB1747:
 2239              	.LBB1700:
 2240              	.LBB1691:
 2241              		.loc 1 34 0
 2242 11a8 3B5A0000 		la 26,.LC0@l(26)
 2243              	.LBE1691:
 2244              	.LBE1700:
 2245              	.LBE1747:
 2246              		.loc 1 166 0
 2247 11ac 93810058 		stw 28,88(1)
 2248              	.LBB1748:
 2249              	.LBB1701:
 2250              	.LBB1692:
 2251              		.loc 1 36 0
 2252 11b0 3F800000 		lis 28,screenheight@ha
 2253              		.cfi_offset 28, -16
 2254              		.cfi_offset 27, -20
 2255              	.LBE1692:
 2256              	.LBE1701:
 2257              	.LBE1748:
 2258              		.loc 1 166 0
 2259 11b4 93A1005C 		stw 29,92(1)
 2260              	.LBB1749:
 2261              	.LBB1702:
 2262              	.LBB1693:
 2263              		.loc 1 36 0
 2264 11b8 3BA00000 		li 29,0
 2265              		.cfi_offset 29, -12
 2266              	.LBE1693:
 2267              	.LBE1702:
 2268              	.LBE1749:
 2269              		.loc 1 166 0
 2270 11bc 93C10060 		stw 30,96(1)
 2271              	.LBB1750:
 2272              	.LBB1703:
 2273              	.LBB1694:
 2274              		.loc 1 36 0
 2275 11c0 7C3E0B78 		mr 30,1
 2276              		.cfi_offset 30, -8
 2277              	.LBE1694:
 2278              	.LBE1703:
 2279              	.LBE1750:
 2280              		.loc 1 166 0
 2281 11c4 93E10064 		stw 31,100(1)
 2282              	.LBB1751:
 2283              	.LBB1704:
 2284              	.LBB1695:
 2285              		.loc 1 28 0
 2286 11c8 3FE00000 		lis 31,Settings@ha
 2287              		.cfi_offset 31, -4
 2288              	.LBE1695:
 2289              	.LBE1704:
 2290              	.LBE1751:
 2291              		.loc 1 166 0
 2292 11cc 92E10044 		stw 23,68(1)
 2293              	.LEHB27:
 2294              	.LBB1752:
 2295              	.LBB1705:
 2296              	.LBB1696:
 2297              		.loc 1 25 0
 2298              		.cfi_offset 23, -36
 2299 11d0 48000001 		bl InitGecko
 2300              	.LVL87:
 2301              		.loc 1 26 0
 2302 11d4 38600030 		li 3,48
 2303              		.loc 1 28 0
 2304 11d8 3BFF0000 		la 31,Settings@l(31)
 2305              		.loc 1 26 0
 2306 11dc 48000001 		bl MEM2_init
 2307              		.loc 1 28 0
 2308 11e0 48000001 		bl IOS_GetVersion
 2309 11e4 987F0A0C 		stb 3,2572(31)
 2310              		.loc 1 29 0
 2311 11e8 48000001 		bl IOS_GetVersion
 2312 11ec 48000001 		bl _ZN9IosLoader22ReloadIosKeepingRightsEi
 2313              		.loc 1 31 0
 2314 11f0 38600001 		li 3,1
 2315 11f4 48000001 		bl MagicPatches
 2316              		.loc 1 34 0
 2317 11f8 7F43D378 		mr 3,26
 2318 11fc 48000001 		bl _ZN5Theme8LoadFontEPKc
 2319              		.loc 1 36 0
 2320 1200 38000000 		li 0,0
 2321 1204 501DC00E 		rlwimi 29,0,24,0,7
 2322 1208 386000C4 		li 3,196
 2323 120c 501D821E 		rlwimi 29,0,16,8,15
 2324 1210 501D442E 		rlwimi 29,0,8,16,23
 2325 1214 3800FFFF 		li 0,-1
 2326 1218 501D063E 		rlwimi 29,0,0,24,31
 2327 121c 48000001 		bl _Znwj
 2328              	.LEHE27:
 2329 1220 97BE0038 		stwu 29,56(30)
 2330 1224 3FA00000 		lis 29,screenwidth@ha
 2331 1228 809D0000 		lwz 4,screenwidth@l(29)
 2332 122c 7C7B1B78 		mr 27,3
 2333 1230 80BC0000 		lwz 5,screenheight@l(28)
 2334 1234 7FC6F378 		mr 6,30
 2335              	.LEHB28:
 2336 1238 48000001 		bl _ZN8GuiImageC1Eii9_gx_color
 2337              	.LEHE28:
 2338              		.loc 1 38 0
 2339 123c 3C600000 		lis 3,.LC1@ha
 2340              		.loc 1 36 0
 2341 1240 9361001C 		stw 27,28(1)
 2342              		.loc 1 38 0
 2343 1244 38630004 		la 3,.LC1@l(3)
 2344              	.LEHB29:
 2345 1248 48000001 		bl _ZN9Resources12GetImageDataEPKc
 2346 124c 9061000C 		stw 3,12(1)
 2347              		.loc 1 39 0
 2348 1250 386000C4 		li 3,196
 2349 1254 48000001 		bl _Znwj
 2350              	.LEHE29:
 2351 1258 8081000C 		lwz 4,12(1)
 2352 125c 7C7B1B78 		mr 27,3
 2353              	.LEHB30:
 2354 1260 48000001 		bl _ZN8GuiImageC1EP12GuiImageData
 2355              	.LEHE30:
 2356              		.loc 1 40 0
 2357 1264 813B0000 		lwz 9,0(27)
 2358 1268 7F63DB78 		mr 3,27
 2359 126c 38800022 		li 4,34
 2360              		.loc 1 39 0
 2361 1270 93610020 		stw 27,32(1)
 2362              		.loc 1 40 0
 2363 1274 800900B4 		lwz 0,180(9)
 2364              		.loc 1 43 0
 2365 1278 3AE00000 		li 23,0
 2366              		.loc 1 40 0
 2367 127c 7C0903A6 		mtctr 0
 2368              	.LEHB31:
 2369 1280 4E800421 		bctrl
 2370              		.loc 1 41 0
 2371 1284 80610020 		lwz 3,32(1)
 2372 1288 80BC0000 		lwz 5,screenheight@l(28)
 2373 128c 81230000 		lwz 9,0(3)
 2374 1290 809D0000 		lwz 4,screenwidth@l(29)
 2375 1294 7CA50E70 		srawi 5,5,1
 2376 1298 7CA50194 		addze 5,5
 2377 129c 800900A8 		lwz 0,168(9)
 2378 12a0 38A5FFCE 		addi 5,5,-50
 2379 12a4 7C840E70 		srawi 4,4,1
 2380 12a8 7C840194 		addze 4,4
 2381 12ac 7C0903A6 		mtctr 0
 2382 12b0 4E800421 		bctrl
 2383              		.loc 1 43 0
 2384 12b4 3800FFFF 		li 0,-1
 2385 12b8 5017C00E 		rlwimi 23,0,24,0,7
 2386 12bc 386000D0 		li 3,208
 2387 12c0 5017821E 		rlwimi 23,0,16,8,15
 2388 12c4 5017442E 		rlwimi 23,0,8,16,23
 2389 12c8 5017063E 		rlwimi 23,0,0,24,31
 2390 12cc 48000001 		bl _Znwj
 2391              	.LEHE31:
 2392 12d0 3C800000 		lis 4,.LC2@ha
 2393 12d4 38A00018 		li 5,24
 2394 12d8 38840014 		la 4,.LC2@l(4)
 2395 12dc 7FC6F378 		mr 6,30
 2396 12e0 7C7B1B78 		mr 27,3
 2397 12e4 92E10038 		stw 23,56(1)
 2398              	.LEHB32:
 2399 12e8 48000001 		bl _ZN7GuiTextC1EPKci9_gx_color
 2400              	.LEHE32:
 2401              		.loc 1 44 0
 2402 12ec 813B0000 		lwz 9,0(27)
 2403 12f0 7F63DB78 		mr 3,27
 2404 12f4 38800022 		li 4,34
 2405              		.loc 1 43 0
 2406 12f8 93610030 		stw 27,48(1)
 2407              		.loc 1 44 0
 2408 12fc 800900B4 		lwz 0,180(9)
 2409 1300 7C0903A6 		mtctr 0
 2410              	.LEHB33:
 2411 1304 4E800421 		bctrl
 2412              		.loc 1 45 0
 2413 1308 80610030 		lwz 3,48(1)
 2414 130c 80BC0000 		lwz 5,screenheight@l(28)
 2415 1310 81230000 		lwz 9,0(3)
 2416 1314 809D0000 		lwz 4,screenwidth@l(29)
 2417 1318 7CA50E70 		srawi 5,5,1
 2418 131c 7CA50194 		addze 5,5
 2419 1320 800900A8 		lwz 0,168(9)
 2420 1324 38A5001E 		addi 5,5,30
 2421 1328 7C840E70 		srawi 4,4,1
 2422 132c 7C840194 		addze 4,4
 2423 1330 7C0903A6 		mtctr 0
 2424 1334 4E800421 		bctrl
 2425              		.loc 1 47 0
 2426 1338 3C600000 		lis 3,.LC3@ha
 2427 133c 38630020 		la 3,.LC3@l(3)
 2428 1340 48000001 		bl _ZN9Resources12GetImageDataEPKc
 2429 1344 90610010 		stw 3,16(1)
 2430              		.loc 1 48 0
 2431 1348 3C600000 		lis 3,.LC4@ha
 2432 134c 38630044 		la 3,.LC4@l(3)
 2433 1350 48000001 		bl _ZN9Resources12GetImageDataEPKc
 2434 1354 90610014 		stw 3,20(1)
 2435              		.loc 1 49 0
 2436 1358 3C600000 		lis 3,.LC5@ha
 2437 135c 38630064 		la 3,.LC5@l(3)
 2438 1360 48000001 		bl _ZN9Resources12GetImageDataEPKc
 2439 1364 90610018 		stw 3,24(1)
 2440              		.loc 1 50 0
 2441 1368 386000C4 		li 3,196
 2442 136c 48000001 		bl _Znwj
 2443              	.LEHE33:
 2444 1370 80810010 		lwz 4,16(1)
 2445 1374 7C7B1B78 		mr 27,3
 2446              	.LEHB34:
 2447 1378 48000001 		bl _ZN8GuiImageC1EP12GuiImageData
 2448              	.LEHE34:
 2449              		.loc 1 51 0
 2450 137c 386000C4 		li 3,196
 2451              		.loc 1 50 0
 2452 1380 93610024 		stw 27,36(1)
 2453              	.LEHB35:
 2454              		.loc 1 51 0
 2455 1384 48000001 		bl _Znwj
 2456              	.LEHE35:
 2457 1388 80810014 		lwz 4,20(1)
 2458 138c 7C7B1B78 		mr 27,3
 2459              	.LEHB36:
 2460 1390 48000001 		bl _ZN8GuiImageC1EP12GuiImageData
 2461              	.LEHE36:
 2462              		.loc 1 52 0
 2463 1394 386000C4 		li 3,196
 2464              		.loc 1 51 0
 2465 1398 93610028 		stw 27,40(1)
 2466              	.LEHB37:
 2467              		.loc 1 52 0
 2468 139c 48000001 		bl _Znwj
 2469              	.LEHE37:
 2470 13a0 80810018 		lwz 4,24(1)
 2471 13a4 7C7B1B78 		mr 27,3
 2472              	.LEHB38:
 2473 13a8 48000001 		bl _ZN8GuiImageC1EP12GuiImageData
 2474              	.LEHE38:
 2475              		.loc 1 54 0
 2476 13ac 3800FFFF 		li 0,-1
 2477 13b0 3AE00000 		li 23,0
 2478 13b4 5017C00E 		rlwimi 23,0,24,0,7
 2479 13b8 386000D0 		li 3,208
 2480 13bc 5017821E 		rlwimi 23,0,16,8,15
 2481              		.loc 1 52 0
 2482 13c0 9361002C 		stw 27,44(1)
 2483              		.loc 1 54 0
 2484 13c4 5017442E 		rlwimi 23,0,8,16,23
 2485 13c8 5017063E 		rlwimi 23,0,0,24,31
 2486              	.LEHB39:
 2487 13cc 48000001 		bl _Znwj
 2488              	.LEHE39:
 2489 13d0 38800000 		li 4,0
 2490 13d4 38A00016 		li 5,22
 2491 13d8 7FC6F378 		mr 6,30
 2492 13dc 7C7B1B78 		mr 27,3
 2493 13e0 92E10038 		stw 23,56(1)
 2494              	.LEHB40:
 2495 13e4 48000001 		bl _ZN7GuiTextC1EPKci9_gx_color
 2496              	.LEHE40:
 2497              		.loc 1 55 0
 2498 13e8 813B0000 		lwz 9,0(27)
 2499 13ec 7F63DB78 		mr 3,27
 2500 13f0 38800022 		li 4,34
 2501              		.loc 1 54 0
 2502 13f4 93610034 		stw 27,52(1)
 2503              		.loc 1 55 0
 2504 13f8 800900B4 		lwz 0,180(9)
 2505 13fc 7C0903A6 		mtctr 0
 2506              	.LEHB41:
 2507 1400 4E800421 		bctrl
 2508              		.loc 1 56 0
 2509 1404 80610034 		lwz 3,52(1)
 2510 1408 80BC0000 		lwz 5,screenheight@l(28)
 2511 140c 81230000 		lwz 9,0(3)
 2512 1410 809D0000 		lwz 4,screenwidth@l(29)
 2513 1414 7CA50E70 		srawi 5,5,1
 2514 1418 7CA50194 		addze 5,5
 2515 141c 800900A8 		lwz 0,168(9)
 2516 1420 38A50078 		addi 5,5,120
 2517 1424 7C840E70 		srawi 4,4,1
 2518 1428 7C840194 		addze 4,4
 2519 142c 7C0903A6 		mtctr 0
 2520 1430 4E800421 		bctrl
 2521              	.LEHE41:
 2522              	.LVL88:
 2523              	.LBE1696:
 2524              	.LBE1705:
 2525              	.LBB1706:
 2526              	.LBB1707:
 2527              		.loc 1 174 0
 2528 1434 38610008 		addi 3,1,8
 2529 1438 38800000 		li 4,0
 2530              	.LEHB42:
 2531 143c 48000001 		bl _ZN14StartUpProcess12ShowProgressEi
 2532              		.loc 1 175 0
 2533 1440 3C800000 		lis 4,.LC11@ha
 2534 1444 38610008 		addi 3,1,8
 2535 1448 388400C0 		la 4,.LC11@l(4)
 2536 144c 4CC63182 		crxor 6,6,6
 2537 1450 48000001 		bl _ZN14StartUpProcess8SetTextfEPKcz
 2538              		.loc 1 177 0
 2539 1454 48000001 		bl _ZN13DeviceHandler8InstanceEv
 2540 1458 48000001 		bl _ZN13DeviceHandler7MountSDEv
 2541 145c 2F830000 		cmpwi 7,3,0
 2542 1460 419E035C 		beq- 7,.L139
 2543 1464 3C800000 		lis 4,.LC8@ha
 2544 1468 38840098 		la 4,.LC8@l(4)
 2545              	.L117:
 2546 146c 3C600000 		lis 3,.LC12@ha
 2547 1470 386300D8 		la 3,.LC12@l(3)
 2548 1474 4CC63182 		crxor 6,6,6
 2549 1478 48000001 		bl gprintf
 2550              		.loc 1 178 0
 2551 147c 38610008 		addi 3,1,8
 2552 1480 38800001 		li 4,1
 2553 1484 48000001 		bl _ZN14StartUpProcess12ShowProgressEi
 2554              		.loc 1 180 0
 2555 1488 48000001 		bl _ZN13DeviceHandler8InstanceEv
 2556 148c 48000001 		bl _ZN13DeviceHandler11MountAllUSBEv
 2557 1490 2F830000 		cmpwi 7,3,0
 2558 1494 419E031C 		beq- 7,.L140
 2559 1498 3C800000 		lis 4,.LC8@ha
 2560 149c 38840098 		la 4,.LC8@l(4)
 2561              	.L118:
 2562 14a0 3C600000 		lis 3,.LC13@ha
 2563 14a4 386300EC 		la 3,.LC13@l(3)
 2564 14a8 4CC63182 		crxor 6,6,6
 2565 14ac 48000001 		bl gprintf
 2566              		.loc 1 181 0
 2567 14b0 38610008 		addi 3,1,8
 2568 14b4 38800002 		li 4,2
 2569 14b8 48000001 		bl _ZN14StartUpProcess12ShowProgressEi
 2570              		.loc 1 183 0
 2571 14bc 3C800000 		lis 4,.LC14@ha
 2572 14c0 38610008 		addi 3,1,8
 2573 14c4 38840100 		la 4,.LC14@l(4)
 2574 14c8 4CC63182 		crxor 6,6,6
 2575 14cc 48000001 		bl _ZN14StartUpProcess8SetTextfEPKcz
 2576              	.LVL89:
 2577              		.loc 1 185 0
 2578 14d0 7FE3FB78 		mr 3,31
 2579 14d4 48000001 		bl _ZN9CSettings4LoadEv
 2580              	.LVL90:
 2581 14d8 2E030000 		cmpwi 4,3,0
 2582 14dc 419202C8 		beq- 4,.L141
 2583 14e0 3C800000 		lis 4,.LC8@ha
 2584 14e4 38840098 		la 4,.LC8@l(4)
 2585              	.L119:
 2586 14e8 3C600000 		lis 3,.LC15@ha
 2587              	.LVL91:
 2588 14ec 38630118 		la 3,.LC15@l(3)
 2589 14f0 4CC63182 		crxor 6,6,6
 2590 14f4 48000001 		bl gprintf
 2591              		.loc 1 186 0
 2592 14f8 38610008 		addi 3,1,8
 2593 14fc 38800003 		li 4,3
 2594 1500 48000001 		bl _ZN14StartUpProcess12ShowProgressEi
 2595              		.loc 1 188 0
 2596 1504 7F23CB78 		mr 3,25
 2597 1508 7F04C378 		mr 4,24
 2598 150c 48000001 		bl _ZN14StartUpProcess14ParseArgumentsEiPPc
 2599              		.loc 1 189 0
 2600 1510 38610008 		addi 3,1,8
 2601 1514 38800004 		li 4,4
 2602 1518 48000001 		bl _ZN14StartUpProcess12ShowProgressEi
 2603              		.loc 1 191 0
 2604 151c 3C800000 		lis 4,.LC16@ha
 2605 1520 38610008 		addi 3,1,8
 2606 1524 38840130 		la 4,.LC16@l(4)
 2607 1528 4CC63182 		crxor 6,6,6
 2608 152c 48000001 		bl _ZN14StartUpProcess8SetTextfEPKcz
 2609              		.loc 1 192 0
 2610 1530 ABDF0A0A 		lha 30,2570(31)
 2611 1534 48000001 		bl IOS_GetVersion
 2612 1538 7F9E1800 		cmpw 7,30,3
 2613 153c 419E0040 		beq- 7,.L120
 2614              		.loc 1 194 0
 2615 1540 3C600000 		lis 3,.LC17@ha
 2616 1544 A89F0A0A 		lha 4,2570(31)
 2617 1548 38630144 		la 3,.LC17@l(3)
 2618 154c 4CC63182 		crxor 6,6,6
 2619 1550 48000001 		bl gprintf
 2620              		.loc 1 196 0
 2621 1554 48000001 		bl _ZN13DeviceHandler15DestroyInstanceEv
 2622              		.loc 1 199 0
 2623 1558 48000001 		bl _ZN9IosLoader11LoadAppCiosEv
 2624              		.loc 1 201 0
 2625 155c 38610008 		addi 3,1,8
 2626 1560 38800005 		li 4,5
 2627 1564 48000001 		bl _ZN14StartUpProcess12ShowProgressEi
 2628              		.loc 1 203 0
 2629 1568 48000001 		bl _ZN13DeviceHandler8InstanceEv
 2630 156c 48000001 		bl _ZN13DeviceHandler7MountSDEv
 2631              		.loc 1 204 0
 2632 1570 48000001 		bl _ZN13DeviceHandler8InstanceEv
 2633 1574 48000001 		bl _ZN13DeviceHandler11MountAllUSBEv
 2634              		.loc 1 207 0
 2635 1578 41920308 		beq- 4,.L159
 2636              	.L120:
 2637              		.loc 1 211 0
 2638 157c 38610008 		addi 3,1,8
 2639 1580 38800006 		li 4,6
 2640 1584 48000001 		bl _ZN14StartUpProcess12ShowProgressEi
 2641              		.loc 1 232 0
 2642 1588 48000001 		bl _Z9SetupPadsv
 2643              		.loc 1 233 0
 2644 158c 48000001 		bl _Z9InitAudiov
 2645              		.loc 1 234 0
 2646 1590 48000001 		bl Sys_Init
 2647              		.loc 1 235 0
 2648 1594 48000001 		bl _ZN4Nand7StartupEv
 2649              		.loc 1 236 0
 2650 1598 7FE3FB78 		mr 3,31
 2651 159c 389F0526 		addi 4,31,1318
 2652 15a0 38A0000A 		li 5,10
 2653 15a4 48000001 		bl _ZN9CSettings12LoadLanguageEPKci
 2654 15a8 2F830000 		cmpwi 7,3,0
 2655 15ac 419E01EC 		beq- 7,.L142
 2656 15b0 3C800000 		lis 4,.LC8@ha
 2657 15b4 38840098 		la 4,.LC8@l(4)
 2658              	.L121:
 2659 15b8 3C600000 		lis 3,.LC18@ha
 2660 15bc 38630158 		la 3,.LC18@l(3)
 2661 15c0 4CC63182 		crxor 6,6,6
 2662 15c4 48000001 		bl gprintf
 2663              		.loc 1 238 0
 2664 15c8 48000001 		bl IOS_GetVersion
 2665 15cc 7C7E1B78 		mr 30,3
 2666 15d0 48000001 		bl IOS_GetRevision
 2667 15d4 3C800000 		lis 4,.LC19@ha
 2668 15d8 7C661B78 		mr 6,3
 2669 15dc 38840170 		la 4,.LC19@l(4)
 2670 15e0 38610008 		addi 3,1,8
 2671 15e4 7FC5F378 		mr 5,30
 2672 15e8 4CC63182 		crxor 6,6,6
 2673 15ec 48000001 		bl _ZN14StartUpProcess8SetTextfEPKcz
 2674              		.loc 1 242 0
 2675 15f0 38610008 		addi 3,1,8
 2676 15f4 38800008 		li 4,8
 2677 15f8 48000001 		bl _ZN14StartUpProcess12ShowProgressEi
 2678              		.loc 1 263 0
 2679 15fc 3C800000 		lis 4,.LC20@ha
 2680 1600 38610008 		addi 3,1,8
 2681 1604 38840184 		la 4,.LC20@l(4)
 2682 1608 4CC63182 		crxor 6,6,6
 2683 160c 48000001 		bl _ZN14StartUpProcess8SetTextfEPKcz
 2684              		.loc 1 264 0
 2685 1610 A81F008E 		lha 0,142(31)
 2686 1614 387F071A 		addi 3,31,1818
 2687 1618 2F800000 		cmpwi 7,0,0
 2688 161c 419E0008 		beq- 7,.L122
 2689 1620 7F43D378 		mr 3,26
 2690              	.L122:
 2691 1624 48000001 		bl _ZN5Theme8LoadFontEPKc
 2692 1628 2F830000 		cmpwi 7,3,0
 2693 162c 419E0160 		beq- 7,.L144
 2694 1630 3C800000 		lis 4,.LC8@ha
 2695 1634 38840098 		la 4,.LC8@l(4)
 2696              	.L123:
 2697 1638 3C600000 		lis 3,.LC21@ha
 2698 163c 38630194 		la 3,.LC21@l(3)
 2699 1640 4CC63182 		crxor 6,6,6
 2700 1644 48000001 		bl gprintf
 2701              		.loc 1 265 0
 2702 1648 3C600000 		lis 3,Settings+394@ha
 2703 164c 3863018A 		la 3,Settings+394@l(3)
 2704 1650 48000001 		bl _ZN5Theme4LoadEPKc
 2705 1654 2F830000 		cmpwi 7,3,0
 2706 1658 419E0128 		beq- 7,.L145
 2707 165c 3C800000 		lis 4,.LC8@ha
 2708 1660 38840098 		la 4,.LC8@l(4)
 2709              	.L124:
 2710 1664 3C600000 		lis 3,.LC22@ha
 2711 1668 386301A8 		la 3,.LC22@l(3)
 2712 166c 4CC63182 		crxor 6,6,6
 2713 1670 48000001 		bl gprintf
 2714              		.loc 1 267 0
 2715 1674 38610008 		addi 3,1,8
 2716 1678 3880000B 		li 4,11
 2717 167c 48000001 		bl _ZN14StartUpProcess12ShowProgressEi
 2718              		.loc 1 270 0
 2719 1680 48000001 		bl LWP_GetSelf
 2720 1684 38800078 		li 4,120
 2721 1688 48000001 		bl LWP_SetThreadPriority
 2722              		.loc 1 273 0
 2723 168c 3FA00000 		lis 29,.LC23@ha
 2724 1690 38600002 		li 3,2
 2725 1694 3BBD01C0 		la 29,.LC23@l(29)
 2726              	.LBB1708:
 2727              	.LBB1709:
 2728              		.loc 2 38 0
 2729 1698 3FC00000 		lis 30,_ZN12SoundHandler8instanceE@ha
 2730              	.LBE1709:
 2731              	.LBE1708:
 2732              		.loc 1 273 0
 2733 169c 7FA4EB78 		mr 4,29
 2734 16a0 48000001 		bl setlocale
 2735              		.loc 1 274 0
 2736 16a4 38600006 		li 3,6
 2737 16a8 7FA4EB78 		mr 4,29
 2738 16ac 48000001 		bl setlocale
 2739              	.LBB1713:
 2740              	.LBB1710:
 2741              		.loc 2 38 0
 2742 16b0 801E0000 		lwz 0,_ZN12SoundHandler8instanceE@l(30)
 2743 16b4 2F800000 		cmpwi 7,0,0
 2744 16b8 419E01D4 		beq- 7,.L160
 2745              	.L125:
 2746              	.LBE1710:
 2747              	.LBE1713:
 2748              		.loc 1 280 0
 2749 16bc A81F051C 		lha 0,1308(31)
 2750 16c0 2F800000 		cmpwi 7,0,0
 2751 16c4 409E018C 		bne- 7,.L161
 2752              	.LBB1714:
 2753              	.LBB1715:
 2754              		.loc 3 36 0
 2755 16c8 3FE00000 		lis 31,_ZN19ThreadedTaskHandler8instanceE@ha
 2756 16cc 801F0000 		lwz 0,_ZN19ThreadedTaskHandler8instanceE@l(31)
 2757 16d0 2F800000 		cmpwi 7,0,0
 2758 16d4 419E0194 		beq- 7,.L162
 2759              	.L130:
 2760              	.LBE1715:
 2761              	.LBE1714:
 2762              		.loc 1 293 0
 2763 16d8 38610008 		addi 3,1,8
 2764 16dc 3880000C 		li 4,12
 2765 16e0 48000001 		bl _ZN14StartUpProcess12ShowProgressEi
 2766              		.loc 1 294 0
 2767 16e4 3C800000 		lis 4,.LC24@ha
 2768 16e8 38610008 		addi 3,1,8
 2769 16ec 388401C8 		la 4,.LC24@l(4)
 2770 16f0 4CC63182 		crxor 6,6,6
 2771 16f4 48000001 		bl _ZN14StartUpProcess8SetTextfEPKcz
 2772              		.loc 1 295 0
 2773 16f8 3C600001 		lis 3,0x1
 2774 16fc 606386A0 		ori 3,3,34464
 2775 1700 48000001 		bl usleep
 2776              		.loc 1 297 0
 2777 1704 48000001 		bl _ZN13DeviceHandler8InstanceEv
 2778              	.LBE1707:
 2779              		.loc 1 324 0
 2780 1708 81230000 		lwz 9,0(3)
 2781              	.LBB1737:
 2782              	.LBB1718:
 2783              	.LBB1719:
 2784              		.loc 4 149 0
 2785 170c 2F890000 		cmpwi 7,9,0
 2786 1710 419E00B8 		beq- 7,.L132
 2787              	.LBE1719:
 2788              		.loc 1 324 0
 2789 1714 81290000 		lwz 9,0(9)
 2790              	.LBB1722:
 2791              	.LBB1720:
 2792              	.LBB1721:
 2793              		.loc 5 124 0
 2794 1718 2F890000 		cmpwi 7,9,0
 2795 171c 419E00AC 		beq- 7,.L132
 2796 1720 8009000C 		lwz 0,12(9)
 2797 1724 7C0903A6 		mtctr 0
 2798 1728 4E800421 		bctrl
 2799              	.LEHE42:
 2800              	.LBE1721:
 2801              	.LBE1720:
 2802              	.LBE1722:
 2803              	.LBE1718:
 2804              		.loc 1 297 0
 2805 172c 2F830000 		cmpwi 7,3,0
 2806 1730 419E0098 		beq- 7,.L132
 2807              	.L134:
 2808              		.loc 1 306 0
 2809 1734 3BE00001 		li 31,1
 2810              	.L137:
 2811              	.LBE1737:
 2812              	.LBE1706:
 2813              		.loc 1 169 0
 2814 1738 38610008 		addi 3,1,8
 2815              	.LEHB43:
 2816 173c 4BFFE8C5 		bl _ZN14StartUpProcessD2Ev.constprop.76
 2817              	.LEHE43:
 2818              	.LBE1752:
 2819              		.loc 1 170 0
 2820 1740 8001006C 		lwz 0,108(1)
 2821 1744 81810040 		lwz 12,64(1)
 2822 1748 7FE3FB78 		mr 3,31
 2823 174c 7C0803A6 		mtlr 0
 2824 1750 82E10044 		lwz 23,68(1)
 2825 1754 83010048 		lwz 24,72(1)
 2826              	.LVL92:
 2827 1758 7D808120 		mtcrf 8,12
 2828 175c 8321004C 		lwz 25,76(1)
 2829              	.LVL93:
 2830 1760 83410050 		lwz 26,80(1)
 2831 1764 83610054 		lwz 27,84(1)
 2832 1768 83810058 		lwz 28,88(1)
 2833 176c 83A1005C 		lwz 29,92(1)
 2834 1770 83C10060 		lwz 30,96(1)
 2835 1774 83E10064 		lwz 31,100(1)
 2836 1778 38210068 		addi 1,1,104
 2837              		.cfi_remember_state
 2838              	.LCFI26:
 2839              		.cfi_def_cfa_offset 0
 2840              		.cfi_restore 70
 2841              		.cfi_restore 31
 2842              		.cfi_restore 30
 2843              		.cfi_restore 29
 2844              		.cfi_restore 28
 2845              		.cfi_restore 27
 2846              		.cfi_restore 26
 2847              		.cfi_restore 25
 2848              		.cfi_restore 24
 2849              		.cfi_restore 23
 2850 177c 4E800020 		blr
 2851              	.LVL94:
 2852              	.L145:
 2853              	.LCFI27:
 2854              		.cfi_restore_state
 2855              	.LBB1753:
 2856              	.LBB1742:
 2857              	.LBB1738:
 2858              		.loc 1 265 0
 2859 1780 3C800000 		lis 4,.LC10@ha
 2860 1784 388400A8 		la 4,.LC10@l(4)
 2861 1788 4BFFFEDC 		b .L124
 2862              	.L144:
 2863              		.loc 1 264 0
 2864 178c 3C800000 		lis 4,.LC10@ha
 2865 1790 388400A8 		la 4,.LC10@l(4)
 2866 1794 4BFFFEA4 		b .L123
 2867              	.L142:
 2868              		.loc 1 236 0
 2869 1798 3C800000 		lis 4,.LC9@ha
 2870 179c 388400A0 		la 4,.LC9@l(4)
 2871 17a0 4BFFFE18 		b .L121
 2872              	.LVL95:
 2873              	.L141:
 2874              		.loc 1 185 0
 2875 17a4 3C800000 		lis 4,.LC9@ha
 2876 17a8 388400A0 		la 4,.LC9@l(4)
 2877 17ac 4BFFFD3C 		b .L119
 2878              	.LVL96:
 2879              	.L140:
 2880              		.loc 1 180 0
 2881 17b0 3C800000 		lis 4,.LC9@ha
 2882 17b4 388400A0 		la 4,.LC9@l(4)
 2883 17b8 4BFFFCE8 		b .L118
 2884              	.L139:
 2885              		.loc 1 177 0
 2886 17bc 3C800000 		lis 4,.LC9@ha
 2887 17c0 388400A0 		la 4,.LC9@l(4)
 2888 17c4 4BFFFCA8 		b .L117
 2889              	.L132:
 2890              	.LEHB44:
 2891              		.loc 1 298 0
 2892 17c8 48000001 		bl _ZN13DeviceHandler8InstanceEv
 2893              	.LBE1738:
 2894              		.loc 1 324 0
 2895 17cc 81230004 		lwz 9,4(3)
 2896              	.LBB1739:
 2897              	.LBB1723:
 2898              	.LBB1724:
 2899              		.loc 4 152 0
 2900 17d0 2F890000 		cmpwi 7,9,0
 2901 17d4 419E0024 		beq- 7,.L135
 2902              	.LBE1724:
 2903              		.loc 1 324 0
 2904 17d8 81290000 		lwz 9,0(9)
 2905              	.LBB1727:
 2906              	.LBB1725:
 2907              	.LBB1726:
 2908              		.loc 5 124 0
 2909 17dc 2F890000 		cmpwi 7,9,0
 2910 17e0 419E0018 		beq- 7,.L135
 2911 17e4 8009000C 		lwz 0,12(9)
 2912 17e8 7C0903A6 		mtctr 0
 2913 17ec 4E800421 		bctrl
 2914              	.LBE1726:
 2915              	.LBE1725:
 2916              	.LBE1727:
 2917              	.LBE1723:
 2918              		.loc 1 297 0
 2919 17f0 2F830000 		cmpwi 7,3,0
 2920 17f4 409EFF40 		bne+ 7,.L134
 2921              	.L135:
 2922              		.loc 1 299 0
 2923 17f8 48000001 		bl _ZN13DeviceHandler8InstanceEv
 2924              	.LBE1739:
 2925              		.loc 1 324 0
 2926 17fc 81230008 		lwz 9,8(3)
 2927              	.LBB1740:
 2928              	.LBB1728:
 2929              	.LBB1729:
 2930              		.loc 4 153 0
 2931 1800 2F890000 		cmpwi 7,9,0
 2932 1804 419E0024 		beq- 7,.L136
 2933              	.LBE1729:
 2934              		.loc 1 324 0
 2935 1808 81290000 		lwz 9,0(9)
 2936              	.LBB1732:
 2937              	.LBB1730:
 2938              	.LBB1731:
 2939              		.loc 5 124 0
 2940 180c 2F890000 		cmpwi 7,9,0
 2941 1810 419E0018 		beq- 7,.L136
 2942 1814 8009000C 		lwz 0,12(9)
 2943 1818 7C0903A6 		mtctr 0
 2944 181c 4E800421 		bctrl
 2945              	.LBE1731:
 2946              	.LBE1730:
 2947              	.LBE1732:
 2948              	.LBE1728:
 2949              		.loc 1 297 0
 2950 1820 2F830000 		cmpwi 7,3,0
 2951 1824 409EFF10 		bne+ 7,.L134
 2952              	.L136:
 2953              		.loc 1 301 0
 2954 1828 3C800000 		lis 4,.LC25@ha
 2955 182c 38610008 		addi 3,1,8
 2956 1830 388401D8 		la 4,.LC25@l(4)
 2957 1834 4CC63182 		crxor 6,6,6
 2958 1838 48000001 		bl _ZN14StartUpProcess8SetTextfEPKcz
 2959              		.loc 1 302 0
 2960 183c 3C600003 		lis 3,0x3
 2961 1840 60630D40 		ori 3,3,3392
 2962 1844 48000001 		bl usleep
 2963              		.loc 1 303 0
 2964 1848 3BE00000 		li 31,0
 2965 184c 4BFFFEEC 		b .L137
 2966              	.L161:
 2967              		.loc 1 282 0
 2968 1850 48000001 		bl _Z17InitNetworkThreadv
 2969              		.loc 1 283 0
 2970 1854 48000001 		bl _Z19ResumeNetworkThreadv
 2971              	.LBB1733:
 2972              	.LBB1716:
 2973              		.loc 3 36 0
 2974 1858 3FE00000 		lis 31,_ZN19ThreadedTaskHandler8instanceE@ha
 2975 185c 801F0000 		lwz 0,_ZN19ThreadedTaskHandler8instanceE@l(31)
 2976 1860 2F800000 		cmpwi 7,0,0
 2977 1864 409EFE74 		bne+ 7,.L130
 2978              	.L162:
 2979 1868 38600038 		li 3,56
 2980 186c 48000001 		bl _Znwj
 2981              	.LEHE44:
 2982 1870 7C7E1B78 		mr 30,3
 2983              	.LEHB45:
 2984 1874 48000001 		bl _ZN19ThreadedTaskHandlerC1Ev
 2985              	.LEHE45:
 2986 1878 93DF0000 		stw 30,_ZN19ThreadedTaskHandler8instanceE@l(31)
 2987 187c 4BFFFE5C 		b .L130
 2988              	.L159:
 2989              	.LBE1716:
 2990              	.LBE1733:
 2991              		.loc 1 208 0
 2992 1880 7FE3FB78 		mr 3,31
 2993              	.LEHB46:
 2994 1884 48000001 		bl _ZN9CSettings4LoadEv
 2995 1888 4BFFFCF4 		b .L120
 2996              	.L160:
 2997              	.LBB1734:
 2998              	.LBB1711:
 2999              		.loc 2 38 0
 3000 188c 38600050 		li 3,80
 3001 1890 48000001 		bl _Znwj
 3002              	.LEHE46:
 3003 1894 7C7D1B78 		mr 29,3
 3004              	.LEHB47:
 3005 1898 48000001 		bl _ZN12SoundHandlerC1Ev
 3006              	.LEHE47:
 3007 189c 93BE0000 		stw 29,_ZN12SoundHandler8instanceE@l(30)
 3008 18a0 4BFFFE1C 		b .L125
 3009              	.LVL97:
 3010              	.L152:
 3011              	.L158:
 3012 18a4 7C7F1B78 		mr 31,3
 3013              	.LBE1711:
 3014              	.LBE1734:
 3015              	.LBE1740:
 3016              	.LBE1742:
 3017              	.LBB1743:
 3018              	.LBB1697:
 3019              		.loc 1 39 0
 3020 18a8 7F63DB78 		mr 3,27
 3021 18ac 48000001 		bl _ZdlPv
 3022 18b0 7FE3FB78 		mr 3,31
 3023              	.LEHB48:
 3024 18b4 48000001 		bl _Unwind_Resume
 3025              	.LEHE48:
 3026              	.L151:
 3027 18b8 4BFFFFEC 		b .L158
 3028              	.L150:
 3029 18bc 4BFFFFE8 		b .L158
 3030              	.L149:
 3031 18c0 4BFFFFE4 		b .L158
 3032              	.LVL98:
 3033              	.L146:
 3034 18c4 7C7F1B78 		mr 31,3
 3035              	.L129:
 3036              	.LBE1697:
 3037              	.LBE1743:
 3038              		.loc 1 169 0
 3039 18c8 38610008 		addi 3,1,8
 3040 18cc 4BFFE735 		bl _ZN14StartUpProcessD2Ev.constprop.76
 3041 18d0 7FE3FB78 		mr 3,31
 3042              	.LEHB49:
 3043 18d4 48000001 		bl _Unwind_Resume
 3044              	.LEHE49:
 3045              	.LVL99:
 3046              	.L153:
 3047 18d8 4BFFFFCC 		b .L158
 3048              	.L148:
 3049 18dc 4BFFFFC8 		b .L158
 3050              	.L147:
 3051 18e0 4BFFFFC4 		b .L158
 3052              	.LVL100:
 3053              	.L154:
 3054 18e4 7C7F1B78 		mr 31,3
 3055              	.LBB1744:
 3056              	.LBB1741:
 3057              	.LBB1735:
 3058              	.LBB1712:
 3059              		.loc 2 38 0
 3060 18e8 7FA3EB78 		mr 3,29
 3061 18ec 48000001 		bl _ZdlPv
 3062 18f0 4BFFFFD8 		b .L129
 3063              	.L155:
 3064 18f4 7C7F1B78 		mr 31,3
 3065              	.LBE1712:
 3066              	.LBE1735:
 3067              	.LBB1736:
 3068              	.LBB1717:
 3069              		.loc 3 36 0
 3070 18f8 7FC3F378 		mr 3,30
 3071 18fc 48000001 		bl _ZdlPv
 3072 1900 4BFFFFC8 		b .L129
 3073              	.LBE1717:
 3074              	.LBE1736:
 3075              	.LBE1741:
 3076              	.LBE1744:
 3077              	.LBE1753:
 3078              		.cfi_endproc
 3079              	.LFE1855:
 3080              		.section	.gcc_except_table
 3081              	.LLSDA1855:
 3082 009e FF       		.byte	0xff
 3083 009f FF       		.byte	0xff
 3084 00a0 01       		.byte	0x1
 3085 00a1 8001     		.uleb128 .LLSDACSE1855-.LLSDACSB1855
 3086              	.LLSDACSB1855:
 3087 00a3 60       		.uleb128 .LEHB27-.LFB1855
 3088 00a4 50       		.uleb128 .LEHE27-.LEHB27
 3089 00a5 00       		.uleb128 0
 3090 00a6 00       		.uleb128 0
 3091 00a7 C801     		.uleb128 .LEHB28-.LFB1855
 3092 00a9 04       		.uleb128 .LEHE28-.LEHB28
 3093 00aa F00E     		.uleb128 .L147-.LFB1855
 3094 00ac 00       		.uleb128 0
 3095 00ad D801     		.uleb128 .LEHB29-.LFB1855
 3096 00af 10       		.uleb128 .LEHE29-.LEHB29
 3097 00b0 00       		.uleb128 0
 3098 00b1 00       		.uleb128 0
 3099 00b2 F001     		.uleb128 .LEHB30-.LFB1855
 3100 00b4 04       		.uleb128 .LEHE30-.LEHB30
 3101 00b5 EC0E     		.uleb128 .L148-.LFB1855
 3102 00b7 00       		.uleb128 0
 3103 00b8 9002     		.uleb128 .LEHB31-.LFB1855
 3104 00ba 50       		.uleb128 .LEHE31-.LEHB31
 3105 00bb 00       		.uleb128 0
 3106 00bc 00       		.uleb128 0
 3107 00bd F802     		.uleb128 .LEHB32-.LFB1855
 3108 00bf 04       		.uleb128 .LEHE32-.LEHB32
 3109 00c0 D00E     		.uleb128 .L149-.LFB1855
 3110 00c2 00       		.uleb128 0
 3111 00c3 9403     		.uleb128 .LEHB33-.LFB1855
 3112 00c5 6C       		.uleb128 .LEHE33-.LEHB33
 3113 00c6 00       		.uleb128 0
 3114 00c7 00       		.uleb128 0
 3115 00c8 8804     		.uleb128 .LEHB34-.LFB1855
 3116 00ca 04       		.uleb128 .LEHE34-.LEHB34
 3117 00cb CC0E     		.uleb128 .L150-.LFB1855
 3118 00cd 00       		.uleb128 0
 3119 00ce 9404     		.uleb128 .LEHB35-.LFB1855
 3120 00d0 04       		.uleb128 .LEHE35-.LEHB35
 3121 00d1 00       		.uleb128 0
 3122 00d2 00       		.uleb128 0
 3123 00d3 A004     		.uleb128 .LEHB36-.LFB1855
 3124 00d5 04       		.uleb128 .LEHE36-.LEHB36
 3125 00d6 C80E     		.uleb128 .L151-.LFB1855
 3126 00d8 00       		.uleb128 0
 3127 00d9 AC04     		.uleb128 .LEHB37-.LFB1855
 3128 00db 04       		.uleb128 .LEHE37-.LEHB37
 3129 00dc 00       		.uleb128 0
 3130 00dd 00       		.uleb128 0
 3131 00de B804     		.uleb128 .LEHB38-.LFB1855
 3132 00e0 04       		.uleb128 .LEHE38-.LEHB38
 3133 00e1 B40E     		.uleb128 .L152-.LFB1855
 3134 00e3 00       		.uleb128 0
 3135 00e4 DC04     		.uleb128 .LEHB39-.LFB1855
 3136 00e6 04       		.uleb128 .LEHE39-.LEHB39
 3137 00e7 00       		.uleb128 0
 3138 00e8 00       		.uleb128 0
 3139 00e9 F404     		.uleb128 .LEHB40-.LFB1855
 3140 00eb 04       		.uleb128 .LEHE40-.LEHB40
 3141 00ec E80E     		.uleb128 .L153-.LFB1855
 3142 00ee 00       		.uleb128 0
 3143 00ef 9005     		.uleb128 .LEHB41-.LFB1855
 3144 00f1 34       		.uleb128 .LEHE41-.LEHB41
 3145 00f2 00       		.uleb128 0
 3146 00f3 00       		.uleb128 0
 3147 00f4 CC05     		.uleb128 .LEHB42-.LFB1855
 3148 00f6 F005     		.uleb128 .LEHE42-.LEHB42
 3149 00f8 D40E     		.uleb128 .L146-.LFB1855
 3150 00fa 00       		.uleb128 0
 3151 00fb CC0B     		.uleb128 .LEHB43-.LFB1855
 3152 00fd 04       		.uleb128 .LEHE43-.LEHB43
 3153 00fe 00       		.uleb128 0
 3154 00ff 00       		.uleb128 0
 3155 0100 D80C     		.uleb128 .LEHB44-.LFB1855
 3156 0102 A801     		.uleb128 .LEHE44-.LEHB44
 3157 0104 D40E     		.uleb128 .L146-.LFB1855
 3158 0106 00       		.uleb128 0
 3159 0107 840E     		.uleb128 .LEHB45-.LFB1855
 3160 0109 04       		.uleb128 .LEHE45-.LEHB45
 3161 010a 840F     		.uleb128 .L155-.LFB1855
 3162 010c 00       		.uleb128 0
 3163 010d 940E     		.uleb128 .LEHB46-.LFB1855
 3164 010f 10       		.uleb128 .LEHE46-.LEHB46
 3165 0110 D40E     		.uleb128 .L146-.LFB1855
 3166 0112 00       		.uleb128 0
 3167 0113 A80E     		.uleb128 .LEHB47-.LFB1855
 3168 0115 04       		.uleb128 .LEHE47-.LEHB47
 3169 0116 F40E     		.uleb128 .L154-.LFB1855
 3170 0118 00       		.uleb128 0
 3171 0119 C40E     		.uleb128 .LEHB48-.LFB1855
 3172 011b 04       		.uleb128 .LEHE48-.LEHB48
 3173 011c 00       		.uleb128 0
 3174 011d 00       		.uleb128 0
 3175 011e E40E     		.uleb128 .LEHB49-.LFB1855
 3176 0120 04       		.uleb128 .LEHE49-.LEHB49
 3177 0121 00       		.uleb128 0
 3178 0122 00       		.uleb128 0
 3179              	.LLSDACSE1855:
 3180              		.section	".text"
 3181              		.size	_ZN14StartUpProcess3RunEiPPc, .-_ZN14StartUpProcess3RunEiPPc
 3182              		.globl _ZN14StartUpProcessC1Ev
 3183              		.set	_ZN14StartUpProcessC1Ev,_ZN14StartUpProcessC2Ev
 3184              		.globl _ZN14StartUpProcessD1Ev
 3185              		.set	_ZN14StartUpProcessD1Ev,_ZN14StartUpProcessD2Ev
 3186              		.section	.rodata.str1.4,"aMS",@progbits,1
 3187              		.align 2
 3188              	.LC0:
 3189 0000 00       		.string	""
 3190 0001 000000   		.zero	3
 3191              	.LC1:
 3192 0004 6C6F676F 		.string	"logo_SGMGX.png"
 3192      5F53474D 
 3192      47582E70 
 3192      6E6700
 3193 0013 00       		.zero	1
 3194              	.LC2:
 3195 0014 4C6F6164 		.string	"Loading..."
 3195      696E672E 
 3195      2E2E00
 3196 001f 00       		.zero	1
 3197              	.LC3:
 3198 0020 70726F67 		.string	"progress_bar_startup_outline.png"
 3198      72657373 
 3198      5F626172 
 3198      5F737461 
 3198      72747570 
 3199 0041 000000   		.zero	3
 3200              	.LC4:
 3201 0044 70726F67 		.string	"progress_bar_startup_empty.png"
 3201      72657373 
 3201      5F626172 
 3201      5F737461 
 3201      72747570 
 3202 0063 00       		.zero	1
 3203              	.LC5:
 3204 0064 70726F67 		.string	"progress_bar.png"
 3204      72657373 
 3204      5F626172 
 3204      2E706E67 
 3204      00
 3205 0075 000000   		.zero	3
 3206              	.LC6:
 3207 0078 426F6F74 		.string	"Boot argument %i: %s\n"
 3207      20617267 
 3207      756D656E 
 3207      74202569 
 3207      3A202573 
 3208 008e 0000     		.zero	2
 3209              	.LC7:
 3210 0090 2D696F73 		.string	"-ios="
 3210      3D00
 3211 0096 0000     		.zero	2
 3212              	.LC8:
 3213 0098 646F6E65 		.string	"done"
 3213      00
 3214 009d 000000   		.zero	3
 3215              	.LC9:
 3216 00a0 6661696C 		.string	"failed"
 3216      656400
 3217 00a7 00       		.zero	1
 3218              	.LC10:
 3219 00a8 6661696C 		.string	"failed (using default)"
 3219      65642028 
 3219      7573696E 
 3219      67206465 
 3219      6661756C 
 3220 00bf 00       		.zero	1
 3221              	.LC11:
 3222 00c0 496E6974 		.string	"Initializing Devices\n"
 3222      69616C69 
 3222      7A696E67 
 3222      20446576 
 3222      69636573 
 3223 00d6 0000     		.zero	2
 3224              	.LC12:
 3225 00d8 094D6F75 		.string	"\tMounting SD...%s\n"
 3225      6E74696E 
 3225      67205344 
 3225      2E2E2E25 
 3225      730A00
 3226 00eb 00       		.zero	1
 3227              	.LC13:
 3228 00ec 094D6F75 		.string	"\tMounting USB...%s\n"
 3228      6E74696E 
 3228      67205553 
 3228      422E2E2E 
 3228      25730A00 
 3229              	.LC14:
 3230 0100 4C6F6164 		.string	"Loading config files\n"
 3230      696E6720 
 3230      636F6E66 
 3230      69672066 
 3230      696C6573 
 3231 0116 0000     		.zero	2
 3232              	.LC15:
 3233 0118 094C6F61 		.string	"\tLoading config...%s\n"
 3233      64696E67 
 3233      20636F6E 
 3233      6669672E 
 3233      2E2E2573 
 3234 012e 0000     		.zero	2
 3235              	.LC16:
 3236 0130 496E6974 		.string	"Initialize System\n"
 3236      69616C69 
 3236      7A652053 
 3236      79737465 
 3236      6D0A00
 3237 0143 00       		.zero	1
 3238              	.LC17:
 3239 0144 4C6F6164 		.string	"Loading cIOS %i\n"
 3239      696E6720 
 3239      63494F53 
 3239      2025690A 
 3239      00
 3240 0155 000000   		.zero	3
 3241              	.LC18:
 3242 0158 094C6F61 		.string	"\tLoading language...%s\n"
 3242      64696E67 
 3242      206C616E 
 3242      67756167 
 3242      652E2E2E 
 3243              	.LC19:
 3244 0170 4C6F6164 		.string	"Loaded cIOS %i R%i\n"
 3244      65642063 
 3244      494F5320 
 3244      25692052 
 3244      25690A00 
 3245              	.LC20:
 3246 0184 4C6F6164 		.string	"Loading Theme\n"
 3246      696E6720 
 3246      5468656D 
 3246      650A00
 3247 0193 00       		.zero	1
 3248              	.LC21:
 3249 0194 094C6F61 		.string	"\tLoading font...%s\n"
 3249      64696E67 
 3249      20666F6E 
 3249      742E2E2E 
 3249      25730A00 
 3250              	.LC22:
 3251 01a8 094C6F61 		.string	"\tLoading theme...%s\n"
 3251      64696E67 
 3251      20746865 
 3251      6D652E2E 
 3251      2E25730A 
 3252 01bd 000000   		.zero	3
 3253              	.LC23:
 3254 01c0 432D5554 		.string	"C-UTF-8"
 3254      462D3800 
 3255              	.LC24:
 3256 01c8 4C6F6164 		.string	"Load Complete.\n"
 3256      20436F6D 
 3256      706C6574 
 3256      652E0A00 
 3257              	.LC25:
 3258 01d8 4E6F2044 		.string	"No Device Found.\n"
 3258      65766963 
 3258      6520466F 
 3258      756E642E 
 3258      0A00
 3259              		.section	".text"
 3260              	.Letext0:
 3261              		.file 6 "d:\\devkitpro\\devkitppc\\bin\\../lib/gcc/powerpc-eabi/4.6.3/../../../../powerpc-eabi/inc
 3262              		.file 7 "d:\\devkitpro\\devkitppc\\bin\\../lib/gcc/powerpc-eabi/4.6.3/../../../../powerpc-eabi/inc
 3263              		.file 8 "d:\\devkitpro\\devkitppc\\bin\\../lib/gcc/powerpc-eabi/4.6.3/include/stddef.h"
 3264              		.file 9 "d:\\devkitpro\\devkitppc\\bin\\../lib/gcc/powerpc-eabi/4.6.3/../../../../powerpc-eabi/inc
 3265              		.file 10 "d:\\devkitpro\\devkitppc\\bin\\../lib/gcc/powerpc-eabi/4.6.3/include/stdarg.h"
 3266              		.file 11 "<built-in>"
 3267              		.file 12 "d:\\devkitpro\\devkitppc\\bin\\../lib/gcc/powerpc-eabi/4.6.3/../../../../powerpc-eabi/in
 3268              		.file 13 "d:/devkitPro/libogc/include/gctypes.h"
 3269              		.file 14 "d:/devkitPro/libogc/include/ogc/disc_io.h"
 3270              		.file 15 "d:/devkitPro/libogc/include/ogc/lwp.h"
 3271              		.file 16 "d:/devkitPro/libogc/include/ogc/gx.h"
 3272              		.file 17 "d:\\devkitpro\\devkitppc\\bin\\../lib/gcc/powerpc-eabi/4.6.3/../../../../powerpc-eabi/in
 3273              		.file 18 "d:\\devkitpro\\devkitppc\\bin\\../lib/gcc/powerpc-eabi/4.6.3/../../../../powerpc-eabi/in
 3274              		.file 19 "d:\\devkitpro\\devkitppc\\bin\\../lib/gcc/powerpc-eabi/4.6.3/../../../../powerpc-eabi/in
 3275              		.file 20 "d:\\devkitpro\\devkitppc\\bin\\../lib/gcc/powerpc-eabi/4.6.3/../../../../powerpc-eabi/in
 3276              		.file 21 "d:\\devkitpro\\devkitppc\\bin\\../lib/gcc/powerpc-eabi/4.6.3/../../../../powerpc-eabi/in
 3277              		.file 22 "d:\\devkitpro\\devkitppc\\bin\\../lib/gcc/powerpc-eabi/4.6.3/../../../../powerpc-eabi/in
 3278              		.file 23 "d:\\devkitpro\\devkitppc\\bin\\../lib/gcc/powerpc-eabi/4.6.3/../../../../powerpc-eabi/in
 3279              		.file 24 "d:\\devkitpro\\devkitppc\\bin\\../lib/gcc/powerpc-eabi/4.6.3/../../../../powerpc-eabi/in
 3280              		.file 25 "d:\\devkitpro\\devkitppc\\bin\\../lib/gcc/powerpc-eabi/4.6.3/../../../../powerpc-eabi/in
 3281              		.file 26 "d:\\devkitpro\\devkitppc\\bin\\../lib/gcc/powerpc-eabi/4.6.3/../../../../powerpc-eabi/in
 3282              		.file 27 "d:\\devkitpro\\devkitppc\\bin\\../lib/gcc/powerpc-eabi/4.6.3/../../../../powerpc-eabi/in
 3283              		.file 28 "d:\\devkitpro\\devkitppc\\bin\\../lib/gcc/powerpc-eabi/4.6.3/../../../../powerpc-eabi/in
 3284              		.file 29 "d:\\devkitpro\\devkitppc\\bin\\../lib/gcc/powerpc-eabi/4.6.3/../../../../powerpc-eabi/in
 3285              		.file 30 "d:\\devkitpro\\devkitppc\\bin\\../lib/gcc/powerpc-eabi/4.6.3/../../../../powerpc-eabi/in
 3286              		.file 31 "d:\\devkitpro\\devkitppc\\bin\\../lib/gcc/powerpc-eabi/4.6.3/../../../../powerpc-eabi/in
 3287              		.file 32 "d:\\devkitpro\\devkitppc\\bin\\../lib/gcc/powerpc-eabi/4.6.3/../../../../powerpc-eabi/in
 3288              		.file 33 "d:\\devkitpro\\devkitppc\\bin\\../lib/gcc/powerpc-eabi/4.6.3/../../../../powerpc-eabi/in
 3289              		.file 34 "d:\\devkitpro\\devkitppc\\bin\\../lib/gcc/powerpc-eabi/4.6.3/../../../../powerpc-eabi/in
 3290              		.file 35 "d:\\devkitpro\\devkitppc\\bin\\../lib/gcc/powerpc-eabi/4.6.3/../../../../powerpc-eabi/in
 3291              		.file 36 "d:\\devkitpro\\devkitppc\\bin\\../lib/gcc/powerpc-eabi/4.6.3/../../../../powerpc-eabi/in
 3292              		.file 37 "d:\\devkitpro\\devkitppc\\bin\\../lib/gcc/powerpc-eabi/4.6.3/../../../../powerpc-eabi/in
 3293              		.file 38 "d:\\devkitpro\\devkitppc\\bin\\../lib/gcc/powerpc-eabi/4.6.3/../../../../powerpc-eabi/in
 3294              		.file 39 "d:\\devkitpro\\devkitppc\\bin\\../lib/gcc/powerpc-eabi/4.6.3/../../../../powerpc-eabi/in
 3295              		.file 40 "d:\\devkitpro\\devkitppc\\bin\\../lib/gcc/powerpc-eabi/4.6.3/../../../../powerpc-eabi/in
 3296              		.file 41 "d:\\devkitpro\\devkitppc\\bin\\../lib/gcc/powerpc-eabi/4.6.3/../../../../powerpc-eabi/in
 3297              		.file 42 "d:/Projects/SaveGameManager/savegame-manager-gx/trunk/source/Tools/../GUI/../Settings/Se
 3298              		.file 43 "d:/Projects/SaveGameManager/savegame-manager-gx/trunk/source/Tools/../GUI/../Settings/..
 3299              		.file 44 "d:/Projects/SaveGameManager/savegame-manager-gx/trunk/source/Tools/../GUI/../Settings/..
 3300              		.file 45 "d:/Projects/SaveGameManager/savegame-manager-gx/trunk/source/Tools/../GUI/../Settings/CS
 3301              		.file 46 "d:/Projects/SaveGameManager/savegame-manager-gx/trunk/source/Tools/../GUI/../Tools/Rect.
 3302              		.file 47 "d:/Projects/SaveGameManager/savegame-manager-gx/trunk/source/Tools/../GUI/gui_element.h"
 3303              		.file 48 "d:/Projects/SaveGameManager/savegame-manager-gx/trunk/source/Tools/../GUI/../sigslot.h"
 3304              		.file 49 "d:\\devkitpro\\devkitppc\\bin\\../lib/gcc/powerpc-eabi/4.6.3/../../../../powerpc-eabi/in
 3305              		.file 50 "d:/Projects/SaveGameManager/savegame-manager-gx/trunk/source/Tools/StartUpProcess.h"
 3306              		.file 51 "d:\\devkitpro\\devkitppc\\bin\\../lib/gcc/powerpc-eabi/4.6.3/../../../../powerpc-eabi/in
 3307              		.file 52 "d:/Projects/SaveGameManager/savegame-manager-gx/trunk/source/Tools/../SoundOperations/Bu
 3308              		.file 53 "d:\\devkitpro\\devkitppc\\bin\\../lib/gcc/powerpc-eabi/4.6.3/../../../../powerpc-eabi/in
 3309              		.file 54 "d:\\devkitpro\\devkitppc\\bin\\../lib/gcc/powerpc-eabi/4.6.3/../../../../powerpc-eabi/in
 3310              		.file 55 "d:\\devkitpro\\devkitppc\\bin\\../lib/gcc/powerpc-eabi/4.6.3/../../../../powerpc-eabi/in
 3311              		.file 56 "d:/Projects/SaveGameManager/savegame-manager-gx/trunk/source/Tools/../Controls/Thread.h"
 3312              		.file 57 "d:\\devkitpro\\devkitppc\\bin\\../lib/gcc/powerpc-eabi/4.6.3/../../../../powerpc-eabi/in
 3313              		.file 58 "d:/Projects/SaveGameManager/savegame-manager-gx/trunk/source/Tools/../GUI/../stdafx.h"