	.file	"StringTools.cpp"
	.section	".text"
.Ltext0:
	.align 2
	.globl _Z3fmtPKcz
	.type	_Z3fmtPKcz, @function
_Z3fmtPKcz:
.LFB535:
	.file 1 "d:/Projects/SaveGameManager/savegame-manager-gx/trunk/source/Tools/StringTools.cpp"
	.loc 1 37 0
	.cfi_startproc
.LVL0:
	mflr 0
	stwu 1,-128(1)
.LCFI0:
	.cfi_def_cfa_offset 128
	.cfi_register 65, 0
	stw 31,124(1)
	stw 0,132(1)
	stw 4,28(1)
	stw 5,32(1)
	stw 6,36(1)
	stw 7,40(1)
	stw 8,44(1)
	stw 9,48(1)
	stw 10,52(1)
	bne- 1,.L2
	.cfi_offset 65, 4
	.cfi_offset 31, -4
	.loc 1 37 0
	stfd 1,56(1)
	stfd 2,64(1)
	stfd 3,72(1)
	stfd 4,80(1)
	stfd 5,88(1)
	stfd 6,96(1)
	stfd 7,104(1)
	stfd 8,112(1)
.L2:
.LBB201:
	.loc 1 40 0
	li 0,0
	.loc 1 39 0
	lis 9,.LANCHOR0@ha
	li 11,0
	.loc 1 40 0
	stw 0,8(1)
.LVL1:
	.loc 1 43 0
	stb 0,13(1)
	addi 0,1,136
.LBE201:
	.loc 1 37 0
	mr 4,3
.LBB202:
	.loc 1 44 0
	addi 5,1,12
	.loc 1 39 0
	stb 11,.LANCHOR0@l(9)
	.loc 1 44 0
	addi 3,1,8
.LVL2:
	.loc 1 43 0
	stw 0,16(1)
	.loc 1 39 0
	la 31,.LANCHOR0@l(9)
	.loc 1 43 0
	addi 0,1,24
	li 9,1
	stb 9,12(1)
	stw 0,20(1)
	.loc 1 44 0
	bl vasprintf
.LVL3:
	cmpwi 7,3,0
	lwz 5,8(1)
	blt- 7,.L3
	.loc 1 44 0 is_stmt 0 discriminator 1
	cmpwi 7,5,0
	beq- 7,.L3
	.loc 1 46 0 is_stmt 1 discriminator 4
	li 4,512
	mr 3,31
	crxor 6,6,6
	bl snprintf
	.loc 1 47 0 discriminator 4
	lwz 3,8(1)
	bl free
.LBE202:
	.loc 1 57 0 discriminator 4
	lwz 0,132(1)
.LBB203:
	.loc 1 49 0 discriminator 4
	mr 3,31
.LBE203:
	.loc 1 57 0 discriminator 4
	lwz 31,124(1)
	mtlr 0
	addi 1,1,128
	.cfi_remember_state
.LCFI1:
	.cfi_def_cfa_offset 0
	.cfi_restore 31
	blr
.L3:
.LCFI2:
	.cfi_restore_state
.LBB204:
	.loc 1 53 0
	cmpwi 7,5,0
	beq- 7,.L8
	.loc 1 54 0
	mr 3,5
	bl free
.L8:
.LBE204:
	.loc 1 57 0
	lwz 0,132(1)
.LBB205:
	.loc 1 56 0
	li 3,0
.LBE205:
	.loc 1 57 0
	lwz 31,124(1)
	mtlr 0
	addi 1,1,128
	.cfi_restore 31
.LCFI3:
	.cfi_def_cfa_offset 0
	blr
	.cfi_endproc
.LFE535:
	.size	_Z3fmtPKcz, .-_Z3fmtPKcz
	.align 2
	.globl _Z4wfmtPKcz
	.type	_Z4wfmtPKcz, @function
_Z4wfmtPKcz:
.LFB536:
	.loc 1 60 0
	.cfi_startproc
.LVL4:
	mflr 0
	stwu 1,-136(1)
.LCFI4:
	.cfi_def_cfa_offset 136
	.cfi_register 65, 0
	stw 29,124(1)
	stw 0,140(1)
	stw 30,128(1)
	stw 31,132(1)
	stw 4,28(1)
	stw 5,32(1)
	stw 6,36(1)
	stw 7,40(1)
	stw 8,44(1)
	stw 9,48(1)
	stw 10,52(1)
	bne- 1,.L11
	.cfi_offset 31, -4
	.cfi_offset 30, -8
	.cfi_offset 65, 4
	.cfi_offset 29, -12
	.loc 1 60 0
	stfd 1,56(1)
	stfd 2,64(1)
	stfd 3,72(1)
	stfd 4,80(1)
	stfd 5,88(1)
	stfd 6,96(1)
	stfd 7,104(1)
	stfd 8,112(1)
.L11:
.LBB206:
	.loc 1 64 0
	mr. 4,3
	.loc 1 62 0
	lis 30,.LANCHOR0@ha
	la 30,.LANCHOR0@l(30)
	li 0,0
	mr 31,30
	stwu 0,512(31)
	.loc 1 64 0
	beq- 0,.L12
	.loc 1 67 0
	lbz 9,0(4)
	cmpwi 7,9,0
	bne- 7,.L22
.LVL5:
.L12:
.LBE206:
	.loc 1 94 0
	lwz 0,140(1)
	mr 3,31
	lwz 29,124(1)
	mtlr 0
	lwz 30,128(1)
	lwz 31,132(1)
	addi 1,1,136
	.cfi_remember_state
.LCFI5:
	.cfi_def_cfa_offset 0
	.cfi_restore 31
	.cfi_restore 30
	.cfi_restore 29
	blr
.LVL6:
.L22:
.LCFI6:
	.cfi_restore_state
.LBB217:
	.loc 1 70 0
	stw 0,8(1)
.LVL7:
	.loc 1 73 0
	li 9,1
	stb 0,13(1)
	addi 0,1,144
	stw 0,16(1)
.LBB207:
	.loc 1 74 0
	addi 3,1,8
.LVL8:
.LBE207:
	.loc 1 73 0
	addi 0,1,24
.LBB212:
	.loc 1 74 0
	addi 5,1,12
.LBE212:
	.loc 1 73 0
	stb 9,12(1)
	stw 0,20(1)
.LBB213:
	.loc 1 74 0
	bl vasprintf
.LVL9:
	cmpwi 7,3,0
	lwz 29,8(1)
	blt- 7,.L13
	.loc 1 74 0 is_stmt 0 discriminator 1
	cmpwi 7,29,0
	beq- 7,.L13
.LBB208:
	.loc 1 77 0 is_stmt 1 discriminator 4
	mr 3,29
	bl strlen
.LVL10:
	.loc 1 78 0 discriminator 4
	mr 0,31
	cmpwi 7,3,512
	mr 5,3
	bgt- 7,.L23
	mr 4,29
	mr 3,0
.LVL11:
	bl mbstowcs
.LVL12:
	mr 29,3
.LVL13:
	.loc 1 79 0 discriminator 4
	lwz 3,8(1)
.LVL14:
	bl free
	.loc 1 82 0 discriminator 4
	cmpwi 7,29,0
	.loc 1 80 0 discriminator 4
	li 0,0
	stw 0,8(1)
	.loc 1 82 0 discriminator 4
	ble- 7,.L24
.L21:
	.loc 1 84 0
	slwi 29,29,2
.LVL15:
.LBE208:
.LBE213:
.LBE217:
	.loc 1 94 0
	mr 3,31
.LBB218:
.LBB214:
.LBB209:
	.loc 1 84 0
	add 30,30,29
.LBE209:
.LBE214:
.LBE218:
	.loc 1 94 0
	lwz 31,132(1)
.LBB219:
.LBB215:
.LBB210:
	.loc 1 84 0
	stw 0,512(30)
.LBE210:
.LBE215:
.LBE219:
	.loc 1 94 0
	lwz 0,140(1)
	lwz 29,124(1)
	mtlr 0
	lwz 30,128(1)
	addi 1,1,136
	.cfi_remember_state
	.cfi_restore 29
	.cfi_restore 30
	.cfi_restore 31
.LCFI7:
	.cfi_def_cfa_offset 0
	blr
.LVL16:
.L24:
.LCFI8:
	.cfi_restore_state
	li 29,0
.LVL17:
.L13:
.LBB220:
	.loc 1 90 0
	cmpwi 7,29,0
	.loc 1 93 0
	li 31,0
	.loc 1 90 0
	beq- 7,.L12
	.loc 1 91 0
	mr 3,29
	bl free
.LBE220:
	.loc 1 94 0
	lwz 0,140(1)
	mr 3,31
	lwz 29,124(1)
	mtlr 0
	lwz 30,128(1)
	lwz 31,132(1)
	addi 1,1,136
	.cfi_remember_state
	.cfi_restore 29
	.cfi_restore 30
	.cfi_restore 31
.LCFI9:
	.cfi_def_cfa_offset 0
	blr
.LVL18:
.L23:
.LCFI10:
	.cfi_restore_state
.LBB221:
.LBB216:
.LBB211:
	.loc 1 78 0 discriminator 4
	mr 4,29
	mr 3,0
.LVL19:
	li 5,512
.LVL20:
	bl mbstowcs
	mr 29,3
.LVL21:
	.loc 1 79 0 discriminator 4
	lwz 3,8(1)
.LVL22:
	bl free
	.loc 1 82 0 discriminator 4
	cmpwi 7,29,0
	.loc 1 80 0 discriminator 4
	li 0,0
	stw 0,8(1)
	.loc 1 82 0 discriminator 4
	bgt+ 7,.L21
	b .L24
.LBE211:
.LBE216:
.LBE221:
	.cfi_endproc
.LFE536:
	.size	_Z4wfmtPKcz, .-_Z4wfmtPKcz
	.align 2
	.globl _Z9strprintfRSsPKcz
	.type	_Z9strprintfRSsPKcz, @function
_Z9strprintfRSsPKcz:
.LFB537:
	.loc 1 97 0
	.cfi_startproc
.LVL23:
	mflr 0
	stwu 1,-128(1)
.LCFI11:
	.cfi_def_cfa_offset 128
	.cfi_register 65, 0
	stw 31,124(1)
	mr 31,3
	.cfi_offset 31, -4
	stw 0,132(1)
	stw 29,116(1)
	stw 30,120(1)
	stw 5,24(1)
	stw 6,28(1)
	stw 7,32(1)
	stw 8,36(1)
	stw 9,40(1)
	stw 10,44(1)
	bne- 1,.L26
	.cfi_offset 30, -8
	.cfi_offset 29, -12
	.cfi_offset 65, 4
	.loc 1 97 0
	stfd 1,48(1)
	stfd 2,56(1)
	stfd 3,64(1)
	stfd 4,72(1)
	stfd 5,80(1)
	stfd 6,88(1)
	stfd 7,96(1)
	stfd 8,104(1)
.L26:
.LVL24:
.LBB234:
	.loc 1 102 0
	mr 9,1
	addi 0,1,136
	stwu 0,16(9)
	li 11,2
	.loc 1 99 0
	li 0,0
	.loc 1 103 0
	addi 3,1,8
.LVL25:
	addi 5,1,12
	.loc 1 99 0
	stw 0,8(1)
.LVL26:
	.loc 1 102 0
	stb 11,12(1)
	.loc 1 98 0
	li 29,0
	.loc 1 102 0
	stb 0,13(1)
	stw 9,20(1)
	.loc 1 103 0
	bl vasprintf
.LVL27:
	cmpwi 7,3,0
	lwz 30,8(1)
	blt- 7,.L27
	.loc 1 103 0 is_stmt 0 discriminator 1
	cmpwi 7,30,0
	beq- 7,.L27
.LVL28:
.LBB235:
.LBB236:
.LBB237:
.LBB238:
.LBB239:
	.file 2 "d:\\devkitpro\\devkitppc\\bin\\../lib/gcc/powerpc-eabi/4.6.3/../../../../powerpc-eabi/include/c++/4.6.3/bits/char_traits.h"
	.loc 2 261 0 is_stmt 1 discriminator 4
	mr 3,30
	bl strlen
.LVL29:
.LBE239:
.LBE238:
	.file 3 "d:\\devkitpro\\devkitppc\\bin\\../lib/gcc/powerpc-eabi/4.6.3/../../../../powerpc-eabi/include/c++/4.6.3/bits/basic_string.h"
	.loc 3 1121 0 discriminator 4
	mr 4,30
.LBB241:
.LBB240:
	.loc 2 261 0 discriminator 4
	mr 5,3
.LBE240:
.LBE241:
	.loc 3 1121 0 discriminator 4
	mr 3,31
	bl _ZNSs6assignEPKcj
.LVL30:
.LBE237:
.LBE236:
.LBE235:
.LBB242:
.LBB243:
	.loc 3 711 0 discriminator 4
	lwz 9,0(31)
	lwz 30,8(1)
.LVL31:
.LBE243:
.LBE242:
	.loc 1 106 0 discriminator 4
	lwz 29,-12(9)
.LVL32:
.L27:
	.loc 1 110 0
	cmpwi 7,30,0
	beq- 7,.L28
	.loc 1 111 0
	mr 3,30
	bl free
.L28:
.LBE234:
	.loc 1 114 0
	lwz 0,132(1)
	mr 3,29
	lwz 30,120(1)
	mtlr 0
	lwz 29,116(1)
.LVL33:
	lwz 31,124(1)
.LVL34:
	addi 1,1,128
.LCFI12:
	.cfi_def_cfa_offset 0
	.cfi_restore 31
	.cfi_restore 30
	.cfi_restore 29
	blr
	.cfi_endproc
.LFE537:
	.size	_Z9strprintfRSsPKcz, .-_Z9strprintfRSsPKcz
	.align 2
	.globl _Z6strfmtPKcz
	.type	_Z6strfmtPKcz, @function
_Z6strfmtPKcz:
.LFB538:
	.loc 1 117 0
	.cfi_startproc
	.cfi_personality 0,__gxx_personality_v0
	.cfi_lsda 0,.LLSDA538
.LVL35:
	mflr 0
	stwu 1,-120(1)
.LCFI13:
	.cfi_def_cfa_offset 120
	.cfi_register 65, 0
	stw 31,116(1)
	mr 31,3
	.cfi_offset 31, -4
	stw 0,124(1)
	stw 30,112(1)
	stw 5,24(1)
	stw 6,28(1)
	stw 7,32(1)
	stw 8,36(1)
	stw 9,40(1)
	stw 10,44(1)
	bne- 1,.L32
	.cfi_offset 30, -8
	.cfi_offset 65, 4
	.loc 1 117 0
	stfd 1,48(1)
	stfd 2,56(1)
	stfd 3,64(1)
	stfd 4,72(1)
	stfd 5,80(1)
	stfd 6,88(1)
	stfd 7,96(1)
	stfd 8,104(1)
.L32:
.LVL36:
.LBB258:
	.loc 1 122 0
	mr 9,1
	addi 0,1,128
.LBB259:
.LBB260:
.LBB261:
	.loc 3 270 0
	lis 11,_ZNSs4_Rep20_S_empty_rep_storageE+12@ha
.LBE261:
.LBE260:
.LBE259:
	.loc 1 122 0
	stwu 0,16(9)
.LBB266:
.LBB264:
.LBB262:
	.loc 3 270 0
	la 0,_ZNSs4_Rep20_S_empty_rep_storageE+12@l(11)
.LBE262:
.LBE264:
.LBE266:
	.loc 1 123 0
	addi 3,1,8
.LVL37:
.LBB267:
.LBB265:
.LBB263:
	.loc 3 270 0
	stw 0,0(31)
.LBE263:
.LBE265:
.LBE267:
	.loc 1 122 0
	li 11,2
	.loc 1 119 0
	li 0,0
	.loc 1 123 0
	addi 5,1,12
	.loc 1 119 0
	stw 0,8(1)
.LVL38:
	.loc 1 122 0
	stb 11,12(1)
	stb 0,13(1)
	stw 9,20(1)
.LEHB0:
	.loc 1 123 0
	bl vasprintf
.LVL39:
	cmpwi 7,3,0
	lwz 30,8(1)
	blt- 7,.L35
	.loc 1 123 0 is_stmt 0 discriminator 1
	cmpwi 7,30,0
	beq- 7,.L35
.LVL40:
.LBB268:
.LBB269:
.LBB270:
.LBB271:
.LBB272:
	.loc 2 261 0 is_stmt 1 discriminator 4
	mr 3,30
	bl strlen
.LVL41:
.LBE272:
.LBE271:
	.loc 3 1121 0 discriminator 4
	mr 4,30
.LBB274:
.LBB273:
	.loc 2 261 0 discriminator 4
	mr 5,3
.LBE273:
.LBE274:
	.loc 3 1121 0 discriminator 4
	mr 3,31
	bl _ZNSs6assignEPKcj
.LEHE0:
	lwz 30,8(1)
.LVL42:
.L35:
.LBE270:
.LBE269:
.LBE268:
	.loc 1 129 0
	cmpwi 7,30,0
	beq- 7,.L31
	.loc 1 130 0
	mr 3,30
	bl free
.L31:
.LBE258:
	.loc 1 133 0
	lwz 0,124(1)
	mr 3,31
	lwz 30,112(1)
	mtlr 0
	lwz 31,116(1)
.LVL43:
	addi 1,1,120
	.cfi_remember_state
.LCFI14:
	.cfi_def_cfa_offset 0
	.cfi_restore 31
	.cfi_restore 30
	blr
.LVL44:
.L38:
.LCFI15:
	.cfi_restore_state
	mr 30,3
.LBB275:
	.loc 1 132 0
	mr 3,31
	bl _ZNSsD1Ev
	mr 3,30
.LEHB1:
	bl _Unwind_Resume
.LEHE1:
.LBE275:
	.cfi_endproc
.LFE538:
	.globl __gxx_personality_v0
	.section	.gcc_except_table,"a",@progbits
.LLSDA538:
	.byte	0xff
	.byte	0xff
	.byte	0x1
	.uleb128 .LLSDACSE538-.LLSDACSB538
.LLSDACSB538:
	.uleb128 .LEHB0-.LFB538
	.uleb128 .LEHE0-.LEHB0
	.uleb128 .L38-.LFB538
	.uleb128 0
	.uleb128 .LEHB1-.LFB538
	.uleb128 .LEHE1-.LEHB1
	.uleb128 0
	.uleb128 0
.LLSDACSE538:
	.section	".text"
	.size	_Z6strfmtPKcz, .-_Z6strfmtPKcz
	.align 2
	.globl _Z12char2wchar_tPKcPw
	.type	_Z12char2wchar_tPKcPw, @function
_Z12char2wchar_tPKcPw:
.LFB539:
	.loc 1 136 0
	.cfi_startproc
.LVL45:
	stwu 1,-24(1)
.LCFI16:
	.cfi_def_cfa_offset 24
	mflr 0
	stw 29,12(1)
.LBB276:
	.loc 1 137 0
	mr. 29,3
	.cfi_offset 29, -12
	.cfi_register 65, 0
.LBE276:
	.loc 1 136 0
	stw 30,16(1)
.LBB277:
	.loc 1 138 0
	li 30,0
	.cfi_offset 30, -8
.LBE277:
	.loc 1 136 0
	stw 31,20(1)
	mr 31,4
	.cfi_offset 31, -4
	stw 0,28(1)
.LBB278:
	.loc 1 137 0
	beq- 0,.L42
	.cfi_offset 65, 4
	.loc 1 137 0 is_stmt 0 discriminator 1
	cmpwi 7,4,0
	beq- 7,.L42
	.loc 1 141 0 is_stmt 1
	bl strlen
.LVL46:
	mr 4,29
	mr 5,3
	mr 3,31
	bl mbstowcs
.LVL47:
	.loc 1 142 0
	cmpwi 0,3,0
	ble- 0,.L42
	.loc 1 143 0
	slwi 3,3,2
.LVL48:
	stwx 30,31,3
	.loc 1 144 0
	li 30,1
.L42:
.LBE278:
	.loc 1 148 0
	lwz 0,28(1)
	mr 3,30
	lwz 29,12(1)
.LVL49:
	mtlr 0
	lwz 30,16(1)
	lwz 31,20(1)
.LVL50:
	addi 1,1,24
.LCFI17:
	.cfi_def_cfa_offset 0
	.cfi_restore 31
	.cfi_restore 30
	.cfi_restore 29
	blr
	.cfi_endproc
.LFE539:
	.size	_Z12char2wchar_tPKcPw, .-_Z12char2wchar_tPKcPw
	.align 2
	.globl _Z9strtokcmpPKcS0_S0_
	.type	_Z9strtokcmpPKcS0_S0_, @function
_Z9strtokcmpPKcS0_S0_:
.LFB540:
	.loc 1 151 0
	.cfi_startproc
.LVL51:
	stwu 1,-536(1)
.LCFI18:
	.cfi_def_cfa_offset 536
	mflr 0
	stw 30,528(1)
.LBB279:
	.loc 1 152 0
	mr. 30,3
	.cfi_offset 30, -8
	.cfi_register 65, 0
.LBE279:
	.loc 1 151 0
	stw 29,524(1)
.LBB280:
	.loc 1 153 0
	li 29,-1
	.cfi_offset 29, -12
.LBE280:
	.loc 1 151 0
	stw 31,532(1)
	mr 31,5
	.cfi_offset 31, -4
	stw 0,540(1)
.LBB281:
	.loc 1 152 0
	beq- 0,.L47
	.cfi_offset 65, 4
	.loc 1 152 0 is_stmt 0 discriminator 1
	cmpwi 7,4,0
	beq- 7,.L47
	.loc 1 156 0 is_stmt 1
	li 5,512
.LVL52:
	addi 3,1,8
.LVL53:
	bl strncpy
.LVL54:
	.loc 1 159 0
	mr 4,31
	.loc 1 157 0
	li 0,0
	.loc 1 159 0
	addi 3,1,8
	.loc 1 157 0
	stb 0,519(1)
	.loc 1 159 0
	bl strtok
.LVL55:
	.loc 1 161 0
	mr. 4,3
	bne+ 0,.L53
	b .L47
.LVL56:
.L56:
	.loc 1 167 0
	bl strtok
.LVL57:
	.loc 1 161 0
	mr. 4,3
	beq- 0,.L55
.L53:
	.loc 1 163 0
	mr 3,30
.LVL58:
	bl strcasecmp
.LVL59:
	.loc 1 167 0
	mr 4,31
	.loc 1 163 0
	cmpwi 7,3,0
	.loc 1 167 0
	li 3,0
	.loc 1 163 0
	bne+ 7,.L56
	.loc 1 165 0
	li 29,0
.L47:
.LBE281:
	.loc 1 171 0
	lwz 0,540(1)
	mr 3,29
	lwz 30,528(1)
.LVL60:
	mtlr 0
	lwz 29,524(1)
	lwz 31,532(1)
.LVL61:
	addi 1,1,536
	.cfi_remember_state
.LCFI19:
	.cfi_def_cfa_offset 0
	.cfi_restore 31
	.cfi_restore 30
	.cfi_restore 29
	blr
.LVL62:
.L55:
.LCFI20:
	.cfi_restore_state
	lwz 0,540(1)
.LBB282:
	.loc 1 170 0
	li 29,-1
.LBE282:
	.loc 1 171 0
	mr 3,29
.LVL63:
	lwz 30,528(1)
.LVL64:
	mtlr 0
	lwz 29,524(1)
	lwz 31,532(1)
.LVL65:
	addi 1,1,536
	.cfi_restore 29
	.cfi_restore 30
	.cfi_restore 31
.LCFI21:
	.cfi_def_cfa_offset 0
	blr
	.cfi_endproc
.LFE540:
	.size	_Z9strtokcmpPKcS0_S0_, .-_Z9strtokcmpPKcS0_S0_
	.align 2
	.globl _Z8wstr2strSbIwSt11char_traitsIwESaIwEE
	.type	_Z8wstr2strSbIwSt11char_traitsIwESaIwEE, @function
_Z8wstr2strSbIwSt11char_traitsIwESaIwEE:
.LFB541:
	.loc 1 174 0
	.cfi_startproc
	.cfi_personality 0,__gxx_personality_v0
	.cfi_lsda 0,.LLSDA541
.LVL66:
	mflr 0
	stwu 1,-32(1)
.LCFI22:
	.cfi_def_cfa_offset 32
	.cfi_register 65, 0
	stw 31,28(1)
	mr 31,3
	.cfi_offset 31, -4
	stw 0,36(1)
.LBB326:
.LBB327:
.LBB328:
.LBB329:
	.loc 3 711 0
	lwz 9,0(4)
.LBE329:
.LBE328:
.LBE327:
	.loc 1 175 0
	lwz 0,-12(9)
	.cfi_offset 65, 4
	cmpwi 7,0,0
	beq- 7,.L71
	.loc 1 178 0
	addi 3,1,12
.LVL67:
.LEHB2:
	bl _ZN7wStringC1ERKSbIwSt11char_traitsIwESaIwEE
.LEHE2:
.LVL68:
	.loc 1 180 0
	mr 3,31
	addi 4,1,12
.LEHB3:
	bl _ZNK7wString6toUTF8Ev
.LEHE3:
.LVL69:
.LBB330:
.LBB331:
.LBB332:
.LBB333:
.LBB334:
.LBB335:
.LBB336:
.LBB337:
	.loc 3 288 0
	lwz 9,12(1)
.LBE337:
.LBE336:
.LBE335:
.LBB338:
.LBB339:
	.loc 3 235 0
	lis 11,_ZNSbIwSt11char_traitsIwESaIwEE4_Rep20_S_empty_rep_storageE@ha
	la 0,_ZNSbIwSt11char_traitsIwESaIwEE4_Rep20_S_empty_rep_storageE@l(11)
.LBE339:
.LBE338:
	.loc 3 534 0
	addi 3,9,-12
.LVL70:
.LBB348:
.LBB346:
	.loc 3 235 0
	cmpw 7,3,0
	bne- 7,.L72
.LVL71:
.L57:
.LBE346:
.LBE348:
.LBE334:
.LBE333:
.LBE332:
.LBE331:
.LBE330:
.LBE326:
	.loc 1 181 0
	lwz 0,36(1)
	mr 3,31
	lwz 31,28(1)
.LVL72:
	mtlr 0
	addi 1,1,32
	.cfi_remember_state
.LCFI23:
	.cfi_def_cfa_offset 0
	.cfi_restore 31
	blr
.LVL73:
.L71:
.LCFI24:
	.cfi_restore_state
.LBB358:
	.loc 1 176 0
	lis 4,.LC0@ha
.LVL74:
	addi 5,1,9
	la 4,.LC0@l(4)
.LEHB4:
	bl _ZNSsC1EPKcRKSaIcE
.LVL75:
.LBE358:
	.loc 1 181 0
	lwz 0,36(1)
	mr 3,31
	lwz 31,28(1)
.LVL76:
	mtlr 0
	addi 1,1,32
	.cfi_remember_state
	.cfi_restore 31
.LCFI25:
	.cfi_def_cfa_offset 0
	blr
.LVL77:
.L72:
.LCFI26:
	.cfi_restore_state
.LBB359:
.LBB354:
.LBB353:
.LBB352:
.LBB351:
.LBB350:
.LBB349:
.LBB347:
.LBB340:
.LBB341:
.LBB342:
	.file 4 "d:\\devkitpro\\devkitppc\\bin\\../lib/gcc/powerpc-eabi/4.6.3/../../../../powerpc-eabi/include/c++/4.6.3/ext/atomicity.h"
	.loc 4 66 0
	lwz 11,-4(9)
.LVL78:
.LBE342:
.LBE341:
.LBE340:
	.loc 3 240 0
	cmpwi 7,11,0
.LBB345:
.LBB344:
.LBB343:
	.loc 4 67 0
	addi 11,11,-1
	stw 11,-4(9)
.LBE343:
.LBE344:
.LBE345:
	.loc 3 240 0
	bgt+ 7,.L57
	.loc 3 244 0
	addi 4,1,8
	bl _ZNSbIwSt11char_traitsIwESaIwEE4_Rep10_M_destroyERKS1_
.LVL79:
	b .L57
.LVL80:
.L70:
	mr 31,3
.LVL81:
.LBE347:
.LBE349:
.LBE350:
.LBE351:
.LBE352:
.LBE353:
.LBE354:
.LBB355:
.LBB356:
.LBB357:
	.file 5 "d:/Projects/SaveGameManager/savegame-manager-gx/trunk/source/Tools/../TextOperations/wstring.hpp"
	.loc 5 10 0
	addi 3,1,12
.LVL82:
	bl _ZNSbIwSt11char_traitsIwESaIwEED2Ev
.LVL83:
	mr 3,31
	bl _Unwind_Resume
.LEHE4:
.LBE357:
.LBE356:
.LBE355:
.LBE359:
	.cfi_endproc
.LFE541:
	.section	.gcc_except_table
.LLSDA541:
	.byte	0xff
	.byte	0xff
	.byte	0x1
	.uleb128 .LLSDACSE541-.LLSDACSB541
.LLSDACSB541:
	.uleb128 .LEHB2-.LFB541
	.uleb128 .LEHE2-.LEHB2
	.uleb128 0
	.uleb128 0
	.uleb128 .LEHB3-.LFB541
	.uleb128 .LEHE3-.LEHB3
	.uleb128 .L70-.LFB541
	.uleb128 0
	.uleb128 .LEHB4-.LFB541
	.uleb128 .LEHE4-.LEHB4
	.uleb128 0
	.uleb128 0
.LLSDACSE541:
	.section	".text"
	.size	_Z8wstr2strSbIwSt11char_traitsIwESaIwEE, .-_Z8wstr2strSbIwSt11char_traitsIwESaIwEE
	.align 2
	.globl _Z13StringReplaceSsSsSs
	.type	_Z13StringReplaceSsSsSs, @function
_Z13StringReplaceSsSsSs:
.LFB548:
	.loc 1 184 0
	.cfi_startproc
.LVL84:
	mflr 0
	stwu 1,-24(1)
.LCFI27:
	.cfi_def_cfa_offset 24
	.cfi_register 65, 0
	stw 28,8(1)
	mr 28,3
	.cfi_offset 28, -16
	stw 29,12(1)
	mr 29,6
	.cfi_offset 29, -12
	stw 30,16(1)
	mr 30,5
	.cfi_offset 30, -8
	stw 31,20(1)
	mr 31,4
	.cfi_offset 31, -4
	stw 0,28(1)
.LBB385:
	.loc 1 186 0
	b .L74
	.cfi_offset 65, 4
.LVL85:
.L75:
.LBB386:
.LBB387:
.LBB388:
.LBB389:
	.loc 3 288 0
	lwz 6,0(29)
.LVL86:
.LBE389:
.LBE388:
.LBE387:
.LBE386:
.LBB392:
.LBB393:
	.loc 3 711 0
	lwz 9,0(30)
.LBE393:
.LBE392:
.LBB394:
.LBB390:
	.loc 3 1403 0
	lwz 7,-12(6)
	lwz 5,-12(9)
	bl _ZNSs7replaceEjjPKcj
.LVL87:
.L74:
.LBE390:
.LBE394:
.LBB395:
.LBB396:
.LBB397:
.LBB398:
.LBB399:
	.loc 3 288 0 discriminator 1
	lwz 4,0(30)
.LVL88:
.LBE399:
.LBE398:
.LBE397:
	.loc 3 1812 0 discriminator 1
	li 5,0
	mr 3,31
	lwz 6,-12(4)
	bl _ZNKSs4findEPKcjj
.LBE396:
.LBE395:
	.loc 1 186 0 discriminator 1
	cmpwi 7,3,-1
.LBB401:
.LBB400:
	.loc 3 1812 0 discriminator 1
	mr 4,3
.LVL89:
.LBE400:
.LBE401:
.LBB402:
.LBB391:
	.loc 3 1403 0 discriminator 1
	mr 3,31
.LVL90:
.LBE391:
.LBE402:
	.loc 1 186 0 discriminator 1
	bne+ 7,.L75
	.loc 1 189 0
	mr 3,28
	mr 4,31
.LVL91:
	bl _ZNSsC1ERKSs
.LBE385:
	.loc 1 190 0
	lwz 0,28(1)
	mr 3,28
	lwz 29,12(1)
.LVL92:
	mtlr 0
	lwz 28,8(1)
.LVL93:
	lwz 30,16(1)
.LVL94:
	lwz 31,20(1)
.LVL95:
	addi 1,1,24
.LCFI28:
	.cfi_def_cfa_offset 0
	.cfi_restore 31
	.cfi_restore 30
	.cfi_restore 29
	.cfi_restore 28
	blr
	.cfi_endproc
.LFE548:
	.size	_Z13StringReplaceSsSsSs, .-_Z13StringReplaceSsSsSs
	.section	.rodata.str1.4,"aMS",@progbits,1
	.align 2
.LC0:
	.string	""
	.section	".bss"
	.align 2
	.set	.LANCHOR0,. + 0
	.type	_ZZ3fmtPKczE7strChar, @object
	.size	_ZZ3fmtPKczE7strChar, 512
_ZZ3fmtPKczE7strChar:
	.zero	512
	.type	_ZZ4wfmtPKczE8strWChar, @object
	.size	_ZZ4wfmtPKczE8strWChar, 2048
_ZZ4wfmtPKczE8strWChar:
	.zero	2048
	.section	".text"
.Letext0:
	.file 6 "d:\\devkitpro\\devkitppc\\bin\\../lib/gcc/powerpc-eabi/4.6.3/../../../../powerpc-eabi/include/c++/4.6.3/cwchar"
	.file 7 "d:\\devkitpro\\devkitppc\\bin\\../lib/gcc/powerpc-eabi/4.6.3/../../../../powerpc-eabi/include/c++/4.6.3/powerpc-eabi/bits/c++config.h"
	.file 8 "d:\\devkitpro\\devkitppc\\bin\\../lib/gcc/powerpc-eabi/4.6.3/../../../../powerpc-eabi/include/c++/4.6.3/clocale"
	.file 9 "d:\\devkitpro\\devkitppc\\bin\\../lib/gcc/powerpc-eabi/4.6.3/../../../../powerpc-eabi/include/c++/4.6.3/bits/stringfwd.h"
	.file 10 "d:\\devkitpro\\devkitppc\\bin\\../lib/gcc/powerpc-eabi/4.6.3/../../../../powerpc-eabi/include/c++/4.6.3/ext/new_allocator.h"
	.file 11 "d:\\devkitpro\\devkitppc\\bin\\../lib/gcc/powerpc-eabi/4.6.3/../../../../powerpc-eabi/include/c++/4.6.3/bits/cpp_type_traits.h"
	.file 12 "d:\\devkitpro\\devkitppc\\bin\\../lib/gcc/powerpc-eabi/4.6.3/../../../../powerpc-eabi/include/c++/4.6.3/debug/debug.h"
	.file 13 "d:\\devkitpro\\devkitppc\\bin\\../lib/gcc/powerpc-eabi/4.6.3/../../../../powerpc-eabi/include/machine/_types.h"
	.file 14 "d:\\devkitpro\\devkitppc\\bin\\../lib/gcc/powerpc-eabi/4.6.3/../../../../powerpc-eabi/include/sys/lock.h"
	.file 15 "d:\\devkitpro\\devkitppc\\bin\\../lib/gcc/powerpc-eabi/4.6.3/include/stddef.h"
	.file 16 "d:\\devkitpro\\devkitppc\\bin\\../lib/gcc/powerpc-eabi/4.6.3/../../../../powerpc-eabi/include/sys/_types.h"
	.file 17 "d:\\devkitpro\\devkitppc\\bin\\../lib/gcc/powerpc-eabi/4.6.3/../../../../powerpc-eabi/include/sys/reent.h"
	.file 18 "d:\\devkitpro\\devkitppc\\bin\\../lib/gcc/powerpc-eabi/4.6.3/include/stdarg.h"
	.file 19 "<built-in>"
	.file 20 "d:\\devkitpro\\devkitppc\\bin\\../lib/gcc/powerpc-eabi/4.6.3/../../../../powerpc-eabi/include/wchar.h"
	.file 21 "d:\\devkitpro\\devkitppc\\bin\\../lib/gcc/powerpc-eabi/4.6.3/../../../../powerpc-eabi/include/c++/4.6.3/bits/allocator.h"
	.file 22 "d:\\devkitpro\\devkitppc\\bin\\../lib/gcc/powerpc-eabi/4.6.3/../../../../powerpc-eabi/include/locale.h"
	.file 23 "d:\\devkitpro\\devkitppc\\bin\\../lib/gcc/powerpc-eabi/4.6.3/../../../../powerpc-eabi/include/c++/4.6.3/powerpc-eabi/bits/atomic_word.h"
	.file 24 "d:\\devkitpro\\devkitppc\\bin\\../lib/gcc/powerpc-eabi/4.6.3/../../../../powerpc-eabi/include/c++/4.6.3/ext/numeric_traits.h"
	.file 25 "d:\\devkitpro\\devkitppc\\bin\\../lib/gcc/powerpc-eabi/4.6.3/../../../../powerpc-eabi/include/c++/4.6.3/bits/basic_string.tcc"
	.file 26 "d:\\devkitpro\\devkitppc\\bin\\../lib/gcc/powerpc-eabi/4.6.3/../../../../powerpc-eabi/include/c++/4.6.3/bits/stl_iterator_base_types.h"
	.file 27 "d:\\devkitpro\\devkitppc\\bin\\../lib/gcc/powerpc-eabi/4.6.3/../../../../powerpc-eabi/include/c++/4.6.3/bits/stl_iterator.h"