	.file	"sys.cpp"
	.section	".text"
.Ltext0:
	.align 2
	.globl __Sys_ResetCallback
	.type	__Sys_ResetCallback, @function
__Sys_ResetCallback:
.LFB1781:
	.file 1 "d:/Projects/SaveGameManager/savegame-manager-gx/trunk/source/System/sys.cpp"
	.loc 1 106 0
	.cfi_startproc
	.loc 1 107 0
	li 0,1
	lis 9,reset@ha
	stb 0,reset@l(9)
	.loc 1 108 0
	blr
	.cfi_endproc
.LFE1781:
	.size	__Sys_ResetCallback, .-__Sys_ResetCallback
	.align 2
	.globl __Sys_PowerCallback
	.type	__Sys_PowerCallback, @function
__Sys_PowerCallback:
.LFB1782:
	.loc 1 111 0
	.cfi_startproc
	.loc 1 112 0
	li 0,1
	lis 9,shutdown@ha
	stb 0,shutdown@l(9)
	.loc 1 113 0
	blr
	.cfi_endproc
.LFE1782:
	.size	__Sys_PowerCallback, .-__Sys_PowerCallback
	.align 2
	.type	ExitApp.part.26, @function
ExitApp.part.26:
.LFB2380:
	.loc 1 64 0
	.cfi_startproc
	.cfi_personality 0,__gxx_personality_v0
	.cfi_lsda 0,.LLSDA2380
	stwu 1,-40(1)
.LCFI0:
	.cfi_def_cfa_offset 40
	mflr 0
	stw 30,32(1)
.LBB2178:
	.loc 1 80 0
	lis 30,_ZN11Application8instanceE@ha
	.cfi_offset 30, -8
	.cfi_register 65, 0
	lwz 3,_ZN11Application8instanceE@l(30)
.LBE2178:
	.loc 1 64 0
	stw 29,28(1)
.LBB2277:
.LBB2179:
.LBB2180:
	.file 2 "d:/Projects/SaveGameManager/savegame-manager-gx/trunk/source/System/../Tools/ErrorLog.h"
	.loc 2 40 0
	lis 29,_ZN8ErrorLog8instanceE@ha
	.cfi_offset 29, -12
.LBE2180:
.LBE2179:
.LBE2277:
	.loc 1 64 0
	stw 0,44(1)
	stw 31,36(1)
	stw 28,24(1)
.LEHB0:
.LBB2278:
	.loc 1 80 0
	.cfi_offset 28, -16
	.cfi_offset 31, -4
	.cfi_offset 65, 4
	bl _ZN11Application4quitEv
	.loc 1 82 0
	bl _Z12ShutdownPadsv
.LEHE0:
.LBB2231:
.LBB2227:
	.loc 2 40 0
	lwz 31,_ZN8ErrorLog8instanceE@l(29)
	cmpwi 7,31,0
	beq- 7,.L4
.LVL0:
.LBB2181:
.LBB2182:
.LBB2183:
	.loc 2 48 0
	mr 3,31
.LEHB1:
	bl _ZN8ErrorLog5ResetEv
.LEHE1:
.LVL1:
.LBB2184:
.LBB2185:
.LBB2186:
.LBB2187:
.LBB2188:
.LBB2189:
	.file 3 "d:\\devkitpro\\devkitppc\\bin\\../lib/gcc/powerpc-eabi/4.6.3/../../../../powerpc-eabi/include/c++/4.6.3/bits/basic_string.h"
	.loc 3 288 0
	lwz 9,4(31)
.LBE2189:
.LBE2188:
.LBE2187:
.LBB2190:
.LBB2191:
	.loc 3 235 0
	lis 28,_ZNSs4_Rep20_S_empty_rep_storageE@ha
	la 28,_ZNSs4_Rep20_S_empty_rep_storageE@l(28)
.LBE2191:
.LBE2190:
	.loc 3 534 0
	addi 3,9,-12
.LVL2:
.LBB2200:
.LBB2198:
	.loc 3 235 0
	cmpw 7,3,28
	bne- 7,.L26
.LVL3:
.L10:
.LBE2198:
.LBE2200:
.LBE2186:
.LBE2185:
.LBE2184:
.LBB2204:
.LBB2205:
.LBB2206:
.LBB2207:
.LBB2208:
.LBB2209:
	.loc 3 288 0
	lwz 9,0(31)
.LBE2209:
.LBE2208:
.LBE2207:
	.loc 3 534 0
	addi 3,9,-12
.LVL4:
.LBB2210:
.LBB2211:
	.loc 3 235 0
	cmpw 7,3,28
	bne- 7,.L27
.LVL5:
.L18:
.LBE2211:
.LBE2210:
.LBE2206:
.LBE2205:
.LBE2204:
.LBE2183:
.LBE2182:
.LBE2181:
	.loc 2 40 0
	mr 3,31
	bl _ZdlPv
.LVL6:
.L4:
.LBE2227:
.LBE2231:
.LBB2232:
.LBB2233:
	.file 4 "d:/Projects/SaveGameManager/savegame-manager-gx/trunk/source/System/../SoundOperations/MusicPlayer.h"
	.loc 4 39 0
	lis 28,_ZN11MusicPlayer8instanceE@ha
.LBE2233:
.LBE2232:
.LBB2238:
.LBB2228:
	.loc 2 40 0
	li 0,0
.LBE2228:
.LBE2238:
.LBB2239:
.LBB2234:
	.loc 4 39 0
	lwz 3,_ZN11MusicPlayer8instanceE@l(28)
.LBE2234:
.LBE2239:
.LBB2240:
.LBB2229:
	.loc 2 40 0
	stw 0,_ZN8ErrorLog8instanceE@l(29)
.LBE2229:
.LBE2240:
.LBB2241:
.LBB2235:
	.loc 4 39 0
	cmpwi 7,3,0
	beq- 7,.L19
	lwz 9,0(3)
	lwz 0,4(9)
	mtctr 0
.LEHB2:
	bctrl
.L19:
.LBE2235:
.LBE2241:
.LBB2242:
.LBB2243:
	.file 5 "d:/Projects/SaveGameManager/savegame-manager-gx/trunk/source/System/../Menu/MainMenu.h"
	.loc 5 48 0
	lis 31,_ZN8MainMenu8instanceE@ha
.LBE2243:
.LBE2242:
.LBB2248:
.LBB2236:
	.loc 4 39 0
	li 0,0
.LBE2236:
.LBE2248:
.LBB2249:
.LBB2244:
	.loc 5 48 0
	lwz 3,_ZN8MainMenu8instanceE@l(31)
.LBE2244:
.LBE2249:
.LBB2250:
.LBB2237:
	.loc 4 39 0
	stw 0,_ZN11MusicPlayer8instanceE@l(28)
.LBE2237:
.LBE2250:
.LBB2251:
.LBB2245:
	.loc 5 48 0
	cmpwi 7,3,0
	beq- 7,.L20
	lwz 9,0(3)
	lwz 0,4(9)
	mtctr 0
	bctrl
.L20:
.LBE2245:
.LBE2251:
.LBB2252:
.LBB2253:
	.file 6 "d:/Projects/SaveGameManager/savegame-manager-gx/trunk/source/System/../Prompts/ProgressWindow.h"
	.loc 6 27 0
	lis 28,_ZN14ProgressWindow8instanceE@ha
.LBE2253:
.LBE2252:
.LBB2258:
.LBB2246:
	.loc 5 48 0
	li 0,0
.LBE2246:
.LBE2258:
.LBB2259:
.LBB2254:
	.loc 6 27 0
	lwz 3,_ZN14ProgressWindow8instanceE@l(28)
.LBE2254:
.LBE2259:
.LBB2260:
.LBB2247:
	.loc 5 48 0
	stw 0,_ZN8MainMenu8instanceE@l(31)
.LBE2247:
.LBE2260:
.LBB2261:
.LBB2255:
	.loc 6 27 0
	cmpwi 7,3,0
	beq- 7,.L21
	lwz 9,0(3)
	lwz 0,4(9)
	mtctr 0
	bctrl
.L21:
.LBE2255:
.LBE2261:
.LBB2262:
.LBB2263:
	.file 7 "d:/Projects/SaveGameManager/savegame-manager-gx/trunk/source/System/../SoundOperations/SoundHandler.hpp"
	.loc 7 40 0
	lis 29,_ZN12SoundHandler8instanceE@ha
.LBE2263:
.LBE2262:
.LBB2267:
.LBB2256:
	.loc 6 27 0
	li 0,0
.LBE2256:
.LBE2267:
.LBB2268:
.LBB2264:
	.loc 7 40 0
	lwz 31,_ZN12SoundHandler8instanceE@l(29)
.LBE2264:
.LBE2268:
.LBB2269:
.LBB2257:
	.loc 6 27 0
	stw 0,_ZN14ProgressWindow8instanceE@l(28)
.LBE2257:
.LBE2269:
.LBB2270:
.LBB2265:
	.loc 7 40 0
	cmpwi 7,31,0
	beq- 7,.L22
	mr 3,31
	bl _ZN12SoundHandlerD1Ev
	mr 3,31
	bl _ZdlPv
.L22:
.LBE2265:
.LBE2270:
.LBB2271:
.LBB2272:
	.file 8 "d:/Projects/SaveGameManager/savegame-manager-gx/trunk/source/System/../Controls/Application.h"
	.loc 8 28 0
	lwz 3,_ZN11Application8instanceE@l(30)
.LBE2272:
.LBE2271:
.LBB2274:
.LBB2266:
	.loc 7 40 0
	li 0,0
	stw 0,_ZN12SoundHandler8instanceE@l(29)
.LBE2266:
.LBE2274:
.LBB2275:
.LBB2273:
	.loc 8 28 0
	cmpwi 7,3,0
	beq- 7,.L23
	lwz 9,0(3)
	lwz 0,4(9)
	mtctr 0
	bctrl
.L23:
	li 0,0
	stw 0,_ZN11Application8instanceE@l(30)
.LBE2273:
.LBE2275:
	.loc 1 92 0
	bl _ZN9Resources15DestroyInstanceEv
	.loc 1 93 0
	bl _ZN13DeviceHandler15DestroyInstanceEv
	.loc 1 94 0
	bl _Z6StopGXv
	.loc 1 95 0
	bl gettextCleanUp
	.loc 1 96 0
	bl _ZN5Theme7CleanUpEv
	.loc 1 97 0
	bl _Z13ShutdownAudiov
	.loc 1 99 0
	bl USB_Deinitialize
	.loc 1 100 0
	bl _Z13DeinitNetworkv
	.loc 1 101 0
	bl _ZN4Nand8ShutdownEv
	.loc 1 102 0
	li 3,0
	bl MagicPatches
.LBE2278:
	.loc 1 103 0
	lwz 0,44(1)
	lwz 28,24(1)
	mtlr 0
	lwz 29,28(1)
	lwz 30,32(1)
	lwz 31,36(1)
	addi 1,1,40
	.cfi_remember_state
.LCFI1:
	.cfi_def_cfa_offset 0
	.cfi_restore 31
	.cfi_restore 30
	.cfi_restore 29
	.cfi_restore 28
	blr
.LVL7:
.L26:
.LCFI2:
	.cfi_restore_state
.LBB2279:
.LBB2276:
.LBB2230:
.LBB2226:
.LBB2225:
.LBB2224:
.LBB2222:
.LBB2203:
.LBB2202:
.LBB2201:
.LBB2199:
.LBB2192:
.LBB2193:
.LBB2194:
	.file 9 "d:\\devkitpro\\devkitppc\\bin\\../lib/gcc/powerpc-eabi/4.6.3/../../../../powerpc-eabi/include/c++/4.6.3/ext/atomicity.h"
	.loc 9 66 0
	lwz 11,-4(9)
.LVL8:
.LBE2194:
.LBE2193:
.LBE2192:
	.loc 3 240 0
	cmpwi 7,11,0
.LBB2197:
.LBB2196:
.LBB2195:
	.loc 9 67 0
	addi 11,11,-1
	stw 11,-4(9)
.LBE2195:
.LBE2196:
.LBE2197:
	.loc 3 240 0
	bgt+ 7,.L10
	.loc 3 244 0
	addi 4,1,9
	bl _ZNSs4_Rep10_M_destroyERKSaIcE
.LVL9:
	b .L10
.LVL10:
.L27:
.LBE2199:
.LBE2201:
.LBE2202:
.LBE2203:
.LBE2222:
.LBB2223:
.LBB2221:
.LBB2220:
.LBB2219:
.LBB2218:
.LBB2212:
.LBB2213:
.LBB2214:
	.loc 9 66 0
	lwz 11,-4(9)
.LVL11:
.LBE2214:
.LBE2213:
.LBE2212:
	.loc 3 240 0
	cmpwi 7,11,0
.LBB2217:
.LBB2216:
.LBB2215:
	.loc 9 67 0
	addi 11,11,-1
	stw 11,-4(9)
.LBE2215:
.LBE2216:
.LBE2217:
	.loc 3 240 0
	bgt+ 7,.L18
	.loc 3 244 0
	addi 4,1,8
	bl _ZNSs4_Rep10_M_destroyERKSaIcE
.LVL12:
	b .L18
.LVL13:
.L24:
	mr 30,3
.LBE2218:
.LBE2219:
.LBE2220:
.LBE2221:
.LBE2223:
	.loc 2 48 0
	addi 3,31,4
	bl _ZNSsD1Ev
	mr 3,31
	bl _ZNSsD1Ev
	mr 3,30
	bl _Unwind_Resume
.LEHE2:
.LBE2224:
.LBE2225:
.LBE2226:
.LBE2230:
.LBE2276:
.LBE2279:
	.cfi_endproc
.LFE2380:
	.globl __gxx_personality_v0
	.section	.gcc_except_table,"a",@progbits
.LLSDA2380:
	.byte	0xff
	.byte	0xff
	.byte	0x1
	.uleb128 .LLSDACSE2380-.LLSDACSB2380
.LLSDACSB2380:
	.uleb128 .LEHB0-.LFB2380
	.uleb128 .LEHE0-.LEHB0
	.uleb128 0
	.uleb128 0
	.uleb128 .LEHB1-.LFB2380
	.uleb128 .LEHE1-.LEHB1
	.uleb128 .L24-.LFB2380
	.uleb128 0
	.uleb128 .LEHB2-.LFB2380
	.uleb128 .LEHE2-.LEHB2
	.uleb128 0
	.uleb128 0
.LLSDACSE2380:
	.section	".text"
	.size	ExitApp.part.26, .-ExitApp.part.26
	.align 2
	.globl RebootApp
	.type	RebootApp, @function
RebootApp:
.LFB1779:
	.loc 1 48 0
	.cfi_startproc
	stwu 1,-1040(1)
.LCFI3:
	.cfi_def_cfa_offset 1040
	mflr 0
.LBB2280:
	.loc 1 50 0
	lis 5,.LC0@ha
	lis 6,Settings+494@ha
	li 4,1024
	la 5,.LC0@l(5)
	la 6,Settings+494@l(6)
	addi 3,1,8
.LBE2280:
	.loc 1 48 0
	stw 0,1044(1)
	stw 30,1032(1)
	stw 31,1036(1)
.LBB2281:
	.loc 1 50 0
	.cfi_offset 31, -4
	.cfi_offset 30, -8
	.cfi_offset 65, 4
	crxor 6,6,6
	bl snprintf
	.loc 1 51 0
	addi 3,1,8
	bl _Z12LoadHomebrewPKc
.LVL14:
	.loc 1 52 0
	cmpwi 7,3,0
	blt- 7,.L31
	.loc 1 58 0
	addi 3,1,8
.LVL15:
	bl _Z15AddBootArgumentPKc
	.loc 1 59 0
	bl _Z12BootHomebrewv
.LBE2281:
	.loc 1 62 0
	lwz 0,1044(1)
	lwz 30,1032(1)
.LBB2282:
	.loc 1 61 0
	li 3,1
.LBE2282:
	.loc 1 62 0
	mtlr 0
	lwz 31,1036(1)
	addi 1,1,1040
	.cfi_remember_state
.LCFI4:
	.cfi_def_cfa_offset 0
	.cfi_restore 31
	.cfi_restore 30
	blr
.LVL16:
.L31:
.LCFI5:
	.cfi_restore_state
.LBB2283:
	.loc 1 54 0
	lis 3,.LC1@ha
.LVL17:
	la 3,.LC1@l(3)
	bl gettext
	mr 30,3
	lis 3,.LC2@ha
	la 3,.LC2@l(3)
	bl gettext
	mr 31,3
	lis 3,.LC3@ha
	la 3,.LC3@l(3)
	bl gettext
	mr 4,31
	mr 5,3
	li 6,0
	mr 3,30
	li 7,0
	li 8,0
	bl _Z12WindowPromptPKcS0_S0_S0_S0_S0_
.LBE2283:
	.loc 1 62 0
	lwz 0,1044(1)
	lwz 30,1032(1)
.LBB2284:
	.loc 1 55 0
	li 3,0
.LBE2284:
	.loc 1 62 0
	mtlr 0
	lwz 31,1036(1)
	addi 1,1,1040
	.cfi_restore 30
	.cfi_restore 31
.LCFI6:
	.cfi_def_cfa_offset 0
	blr
	.cfi_endproc
.LFE1779:
	.size	RebootApp, .-RebootApp
	.align 2
	.globl ExitApp
	.type	ExitApp, @function
ExitApp:
.LFB1780:
	.loc 1 65 0
	.cfi_startproc
	.cfi_personality 0,__gxx_personality_v0
	.cfi_lsda 0,.LLSDA1780
	mflr 0
	stwu 1,-16(1)
.LCFI7:
	.cfi_def_cfa_offset 16
	.cfi_register 65, 0
.LBB2288:
	.loc 1 68 0
	lis 9,.LANCHOR0@ha
.LBE2288:
	.loc 1 65 0
	stw 30,8(1)
	stw 0,20(1)
.LBB2295:
	.loc 1 68 0
	lbz 0,.LANCHOR0@l(9)
	.cfi_offset 65, 4
	.cfi_offset 30, -8
.LBE2295:
	.loc 1 65 0
	stw 31,12(1)
.LBB2296:
	.loc 1 68 0
	cmpwi 7,0,0
	beq- 7,.L37
	.cfi_offset 31, -4
.LBE2296:
	.loc 1 103 0
	lwz 0,20(1)
	lwz 30,8(1)
	mtlr 0
	lwz 31,12(1)
	addi 1,1,16
	.cfi_remember_state
.LCFI8:
	.cfi_def_cfa_offset 0
	.cfi_restore 31
	.cfi_restore 30
	blr
.L37:
.LCFI9:
	.cfi_restore_state
.LBB2297:
	.loc 1 78 0
	lis 3,Settings@ha
	.loc 1 70 0
	li 0,1
	.loc 1 78 0
	la 3,Settings@l(3)
.LBB2289:
.LBB2290:
	.loc 8 27 0
	lis 31,_ZN11Application8instanceE@ha
.LBE2290:
.LBE2289:
	.loc 1 70 0
	stb 0,.LANCHOR0@l(9)
.LEHB3:
	.loc 1 78 0
	bl _ZN9CSettings4SaveEv
.LBB2293:
.LBB2291:
	.loc 8 27 0
	lwz 0,_ZN11Application8instanceE@l(31)
	cmpwi 7,0,0
	beq- 7,.L38
.L34:
.LBE2291:
.LBE2293:
.LBE2297:
	.loc 1 103 0
	lwz 0,20(1)
	lwz 30,8(1)
	lwz 31,12(1)
	mtlr 0
	addi 1,1,16
	.cfi_remember_state
.LCFI10:
	.cfi_def_cfa_offset 0
	.cfi_restore 31
	.cfi_restore 30
.LBB2298:
.LBB2294:
.LBB2292:
	.loc 8 27 0
	b ExitApp.part.26
.L38:
.LCFI11:
	.cfi_restore_state
	li 3,632
	bl _Znwj
.LEHE3:
	mr 30,3
.LEHB4:
	bl _ZN11ApplicationC1Ev
.LEHE4:
	stw 30,_ZN11Application8instanceE@l(31)
	b .L34
.L36:
	mr 31,3
	mr 3,30
	bl _ZdlPv
	mr 3,31
.LEHB5:
	bl _Unwind_Resume
.LEHE5:
.LBE2292:
.LBE2294:
.LBE2298:
	.cfi_endproc
.LFE1780:
	.section	.gcc_except_table
.LLSDA1780:
	.byte	0xff
	.byte	0xff
	.byte	0x1
	.uleb128 .LLSDACSE1780-.LLSDACSB1780
.LLSDACSB1780:
	.uleb128 .LEHB3-.LFB1780
	.uleb128 .LEHE3-.LEHB3
	.uleb128 0
	.uleb128 0
	.uleb128 .LEHB4-.LFB1780
	.uleb128 .LEHE4-.LEHB4
	.uleb128 .L36-.LFB1780
	.uleb128 0
	.uleb128 .LEHB5-.LFB1780
	.uleb128 .LEHE5-.LEHB5
	.uleb128 0
	.uleb128 0
.LLSDACSE1780:
	.section	".text"
	.size	ExitApp, .-ExitApp
	.align 2
	.globl Sys_Init
	.type	Sys_Init, @function
Sys_Init:
.LFB1783:
	.loc 1 117 0
	.cfi_startproc
	mflr 0
	stwu 1,-8(1)
.LCFI12:
	.cfi_def_cfa_offset 8
	.cfi_register 65, 0
	.loc 1 118 0
	lis 3,__Sys_ResetCallback@ha
	la 3,__Sys_ResetCallback@l(3)
	.loc 1 117 0
	stw 0,12(1)
	.loc 1 118 0
	.cfi_offset 65, 4
	bl SYS_SetResetCallback
	.loc 1 119 0
	lis 3,__Sys_PowerCallback@ha
	la 3,__Sys_PowerCallback@l(3)
	bl SYS_SetPowerCallback
	.loc 1 120 0
	lwz 0,12(1)
	addi 1,1,8
.LCFI13:
	.cfi_def_cfa_offset 0
	mtlr 0
	blr
	.cfi_endproc
.LFE1783:
	.size	Sys_Init, .-Sys_Init
	.align 2
	.globl Sys_Reboot
	.type	Sys_Reboot, @function
Sys_Reboot:
.LFB1784:
	.loc 1 123 0
	.cfi_startproc
	.cfi_personality 0,__gxx_personality_v0
	.cfi_lsda 0,.LLSDA1784
	mflr 0
	stwu 1,-16(1)
.LCFI14:
	.cfi_def_cfa_offset 16
	.cfi_register 65, 0
.LBB2304:
.LBB2305:
.LBB2306:
	.loc 1 68 0
	lis 9,.LANCHOR0@ha
.LBE2306:
.LBE2305:
.LBE2304:
	.loc 1 123 0
	stw 30,8(1)
	stw 0,20(1)
.LBB2321:
.LBB2317:
.LBB2313:
	.loc 1 68 0
	lbz 0,.LANCHOR0@l(9)
	.cfi_offset 65, 4
	.cfi_offset 30, -8
.LBE2313:
.LBE2317:
.LBE2321:
	.loc 1 123 0
	stw 31,12(1)
.LBB2322:
.LBB2318:
.LBB2314:
	.loc 1 68 0
	cmpwi 7,0,0
	beq- 7,.L45
	.cfi_offset 31, -4
.LEHB6:
.LBE2314:
.LBE2318:
.LBE2322:
	.loc 1 125 0
	bl STM_RebootSystem
	.loc 1 126 0
	lwz 0,20(1)
	lwz 30,8(1)
	mtlr 0
	lwz 31,12(1)
	addi 1,1,16
	.cfi_remember_state
.LCFI15:
	.cfi_def_cfa_offset 0
	.cfi_restore 31
	.cfi_restore 30
	blr
.L45:
.LCFI16:
	.cfi_restore_state
.LBB2323:
.LBB2319:
.LBB2315:
	.loc 1 78 0
	lis 3,Settings@ha
	.loc 1 70 0
	li 0,1
	.loc 1 78 0
	la 3,Settings@l(3)
.LBB2307:
.LBB2308:
	.loc 8 27 0
	lis 31,_ZN11Application8instanceE@ha
.LBE2308:
.LBE2307:
	.loc 1 70 0
	stb 0,.LANCHOR0@l(9)
	.loc 1 78 0
	bl _ZN9CSettings4SaveEv
.LBB2311:
.LBB2309:
	.loc 8 27 0
	lwz 0,_ZN11Application8instanceE@l(31)
	cmpwi 7,0,0
	beq- 7,.L46
	bl ExitApp.part.26
.L47:
.LBE2309:
.LBE2311:
.LBE2315:
.LBE2319:
.LBE2323:
	.loc 1 125 0
	bl STM_RebootSystem
	.loc 1 126 0
	lwz 0,20(1)
	lwz 30,8(1)
	mtlr 0
	lwz 31,12(1)
	addi 1,1,16
	.cfi_remember_state
	.cfi_restore 30
	.cfi_restore 31
.LCFI17:
	.cfi_def_cfa_offset 0
	blr
.L46:
.LCFI18:
	.cfi_restore_state
.LBB2324:
.LBB2320:
.LBB2316:
.LBB2312:
.LBB2310:
	.loc 8 27 0
	li 3,632
	bl _Znwj
.LEHE6:
	mr 30,3
.LEHB7:
	bl _ZN11ApplicationC1Ev
.LEHE7:
	stw 30,_ZN11Application8instanceE@l(31)
.LEHB8:
	bl ExitApp.part.26
	b .L47
.L44:
	mr 31,3
	mr 3,30
	bl _ZdlPv
	mr 3,31
	bl _Unwind_Resume
.LEHE8:
.LBE2310:
.LBE2312:
.LBE2316:
.LBE2320:
.LBE2324:
	.cfi_endproc
.LFE1784:
	.section	.gcc_except_table
.LLSDA1784:
	.byte	0xff
	.byte	0xff
	.byte	0x1
	.uleb128 .LLSDACSE1784-.LLSDACSB1784
.LLSDACSB1784:
	.uleb128 .LEHB6-.LFB1784
	.uleb128 .LEHE6-.LEHB6
	.uleb128 0
	.uleb128 0
	.uleb128 .LEHB7-.LFB1784
	.uleb128 .LEHE7-.LEHB7
	.uleb128 .L44-.LFB1784
	.uleb128 0
	.uleb128 .LEHB8-.LFB1784
	.uleb128 .LEHE8-.LEHB8
	.uleb128 0
	.uleb128 0
.LLSDACSE1784:
	.section	".text"
	.size	Sys_Reboot, .-Sys_Reboot
	.align 2
	.globl Sys_Shutdown
	.type	Sys_Shutdown, @function
Sys_Shutdown:
.LFB1786:
	.loc 1 150 0
	.cfi_startproc
	.cfi_personality 0,__gxx_personality_v0
	.cfi_lsda 0,.LLSDA1786
.LVL18:
	mflr 0
	stwu 1,-16(1)
.LCFI19:
	.cfi_def_cfa_offset 16
	.cfi_register 65, 0
.LBB2339:
.LBB2340:
.LBB2341:
.LBB2342:
	.loc 1 68 0
	lis 9,.LANCHOR0@ha
.LBE2342:
.LBE2341:
.LBE2340:
.LBE2339:
	.loc 1 150 0
	stw 30,8(1)
	stw 0,20(1)
.LBB2369:
.LBB2357:
.LBB2353:
.LBB2349:
	.loc 1 68 0
	lbz 0,.LANCHOR0@l(9)
	.cfi_offset 65, 4
	.cfi_offset 30, -8
.LBE2349:
.LBE2353:
.LBE2357:
.LBE2369:
	.loc 1 150 0
	stw 31,12(1)
.LBB2370:
.LBB2358:
.LBB2354:
.LBB2350:
	.loc 1 68 0
	cmpwi 7,0,0
	beq- 7,.L56
	.cfi_offset 31, -4
.LEHB9:
.LBE2350:
.LBE2354:
.LBE2358:
.LBB2359:
	.loc 1 136 0
	bl CONF_GetShutdownMode
	cmpwi 7,3,1
	beq- 7,.L57
.L52:
	.loc 1 145 0
	bl STM_ShutdownToStandby
.LBE2359:
.LBE2370:
	.loc 1 152 0
	lwz 0,20(1)
	lwz 30,8(1)
	mtlr 0
	lwz 31,12(1)
	addi 1,1,16
	.cfi_remember_state
.LCFI20:
	.cfi_def_cfa_offset 0
	.cfi_restore 31
	.cfi_restore 30
	blr
.L56:
.LCFI21:
	.cfi_restore_state
.LBB2371:
.LBB2360:
.LBB2355:
.LBB2351:
	.loc 1 78 0
	lis 3,Settings@ha
	.loc 1 70 0
	li 0,1
	.loc 1 78 0
	la 3,Settings@l(3)
.LBB2343:
.LBB2344:
	.loc 8 27 0
	lis 31,_ZN11Application8instanceE@ha
.LBE2344:
.LBE2343:
	.loc 1 70 0
	stb 0,.LANCHOR0@l(9)
	.loc 1 78 0
	bl _ZN9CSettings4SaveEv
.LBB2347:
.LBB2345:
	.loc 8 27 0
	lwz 0,_ZN11Application8instanceE@l(31)
	cmpwi 7,0,0
	beq- 7,.L58
	bl ExitApp.part.26
.L61:
.LBE2345:
.LBE2347:
.LBE2351:
.LBE2355:
.LBE2360:
.LBB2361:
	.loc 1 136 0
	bl CONF_GetShutdownMode
	cmpwi 7,3,1
	bne+ 7,.L52
.L57:
.LBE2361:
.LBB2362:
.LBB2363:
.LBB2364:
	.loc 1 139 0
	bl CONF_GetIdleLedMode
.LVL19:
	.loc 1 140 0
	cmplwi 7,3,2
	ble- 7,.L59
	.loc 1 143 0
	bl STM_ShutdownToIdle
.LVL20:
.L60:
.LBE2364:
.LBE2363:
.LBE2362:
.LBE2371:
	.loc 1 152 0
	lwz 0,20(1)
	lwz 30,8(1)
	mtlr 0
	lwz 31,12(1)
	addi 1,1,16
	.cfi_remember_state
	.cfi_restore 30
	.cfi_restore 31
.LCFI22:
	.cfi_def_cfa_offset 0
	blr
.LVL21:
.L59:
.LCFI23:
	.cfi_restore_state
.LBB2372:
.LBB2367:
.LBB2366:
.LBB2365:
	.loc 1 141 0
	bl STM_SetLedMode
.LVL22:
	.loc 1 143 0
	bl STM_ShutdownToIdle
	b .L60
.L58:
.LBE2365:
.LBE2366:
.LBE2367:
.LBB2368:
.LBB2356:
.LBB2352:
.LBB2348:
.LBB2346:
	.loc 8 27 0
	li 3,632
	bl _Znwj
.LEHE9:
	mr 30,3
.LEHB10:
	bl _ZN11ApplicationC1Ev
.LEHE10:
	stw 30,_ZN11Application8instanceE@l(31)
.LEHB11:
	bl ExitApp.part.26
	b .L61
.L55:
	mr 31,3
	mr 3,30
	bl _ZdlPv
	mr 3,31
	bl _Unwind_Resume
.LEHE11:
.LBE2346:
.LBE2348:
.LBE2352:
.LBE2356:
.LBE2368:
.LBE2372:
	.cfi_endproc
.LFE1786:
	.section	.gcc_except_table
.LLSDA1786:
	.byte	0xff
	.byte	0xff
	.byte	0x1
	.uleb128 .LLSDACSE1786-.LLSDACSB1786
.LLSDACSB1786:
	.uleb128 .LEHB9-.LFB1786
	.uleb128 .LEHE9-.LEHB9
	.uleb128 0
	.uleb128 0
	.uleb128 .LEHB10-.LFB1786
	.uleb128 .LEHE10-.LEHB10
	.uleb128 .L55-.LFB1786
	.uleb128 0
	.uleb128 .LEHB11-.LFB1786
	.uleb128 .LEHE11-.LEHB11
	.uleb128 0
	.uleb128 0
.LLSDACSE1786:
	.section	".text"
	.size	Sys_Shutdown, .-Sys_Shutdown
	.align 2
	.globl Sys_ShutdownToIdle
	.type	Sys_ShutdownToIdle, @function
Sys_ShutdownToIdle:
.LFB1787:
	.loc 1 155 0
	.cfi_startproc
	.cfi_personality 0,__gxx_personality_v0
	.cfi_lsda 0,.LLSDA1787
.LVL23:
	mflr 0
	stwu 1,-16(1)
.LCFI24:
	.cfi_def_cfa_offset 16
	.cfi_register 65, 0
.LBB2387:
.LBB2388:
.LBB2389:
.LBB2390:
	.loc 1 68 0
	lis 9,.LANCHOR0@ha
.LBE2390:
.LBE2389:
.LBE2388:
.LBE2387:
	.loc 1 155 0
	stw 30,8(1)
	stw 0,20(1)
.LBB2408:
.LBB2401:
.LBB2398:
.LBB2395:
	.loc 1 68 0
	lbz 0,.LANCHOR0@l(9)
	.cfi_offset 65, 4
	.cfi_offset 30, -8
.LBE2395:
.LBE2398:
.LBE2401:
.LBE2408:
	.loc 1 155 0
	stw 31,12(1)
.LBB2409:
.LBB2402:
.LBB2399:
.LBB2396:
	.loc 1 68 0
	cmpwi 7,0,0
	beq- 7,.L68
	.cfi_offset 31, -4
.L63:
.LEHB12:
.LBE2396:
.LBE2399:
.LBE2402:
.LBB2403:
	.loc 1 136 0
	bl CONF_GetShutdownMode
.LBE2403:
.LBB2404:
.LBB2405:
.LBB2406:
	.loc 1 139 0
	bl CONF_GetIdleLedMode
.LVL24:
	.loc 1 140 0
	cmplwi 7,3,2
	bgt+ 7,.L66
	.loc 1 141 0
	bl STM_SetLedMode
.LVL25:
.L66:
	.loc 1 143 0
	bl STM_ShutdownToIdle
.LBE2406:
.LBE2405:
.LBE2404:
.LBE2409:
	.loc 1 157 0
	lwz 0,20(1)
	lwz 30,8(1)
	mtlr 0
	lwz 31,12(1)
	addi 1,1,16
	.cfi_remember_state
.LCFI25:
	.cfi_def_cfa_offset 0
	.cfi_restore 31
	.cfi_restore 30
	blr
.L68:
.LCFI26:
	.cfi_restore_state
.LBB2410:
.LBB2407:
.LBB2400:
.LBB2397:
	.loc 1 78 0
	lis 3,Settings@ha
	.loc 1 70 0
	li 0,1
	.loc 1 78 0
	la 3,Settings@l(3)
.LBB2391:
.LBB2392:
	.loc 8 27 0
	lis 31,_ZN11Application8instanceE@ha
.LBE2392:
.LBE2391:
	.loc 1 70 0
	stb 0,.LANCHOR0@l(9)
	.loc 1 78 0
	bl _ZN9CSettings4SaveEv
.LBB2394:
.LBB2393:
	.loc 8 27 0
	lwz 0,_ZN11Application8instanceE@l(31)
	cmpwi 7,0,0
	beq- 7,.L69
	bl ExitApp.part.26
	b .L63
.L69:
	li 3,632
	bl _Znwj
.LEHE12:
	mr 30,3
.LEHB13:
	bl _ZN11ApplicationC1Ev
.LEHE13:
	stw 30,_ZN11Application8instanceE@l(31)
.LEHB14:
	bl ExitApp.part.26
	b .L63
.L67:
	mr 31,3
	mr 3,30
	bl _ZdlPv
	mr 3,31
	bl _Unwind_Resume
.LEHE14:
.LBE2393:
.LBE2394:
.LBE2397:
.LBE2400:
.LBE2407:
.LBE2410:
	.cfi_endproc
.LFE1787:
	.section	.gcc_except_table
.LLSDA1787:
	.byte	0xff
	.byte	0xff
	.byte	0x1
	.uleb128 .LLSDACSE1787-.LLSDACSB1787
.LLSDACSB1787:
	.uleb128 .LEHB12-.LFB1787
	.uleb128 .LEHE12-.LEHB12
	.uleb128 0
	.uleb128 0
	.uleb128 .LEHB13-.LFB1787
	.uleb128 .LEHE13-.LEHB13
	.uleb128 .L67-.LFB1787
	.uleb128 0
	.uleb128 .LEHB14-.LFB1787
	.uleb128 .LEHE14-.LEHB14
	.uleb128 0
	.uleb128 0
.LLSDACSE1787:
	.section	".text"
	.size	Sys_ShutdownToIdle, .-Sys_ShutdownToIdle
	.align 2
	.globl Sys_ShutdownToStandby
	.type	Sys_ShutdownToStandby, @function
Sys_ShutdownToStandby:
.LFB1788:
	.loc 1 160 0
	.cfi_startproc
	.cfi_personality 0,__gxx_personality_v0
	.cfi_lsda 0,.LLSDA1788
.LVL26:
	mflr 0
	stwu 1,-16(1)
.LCFI27:
	.cfi_def_cfa_offset 16
	.cfi_register 65, 0
.LBB2425:
.LBB2426:
.LBB2427:
.LBB2428:
	.loc 1 68 0
	lis 9,.LANCHOR0@ha
.LBE2428:
.LBE2427:
.LBE2426:
.LBE2425:
	.loc 1 160 0
	stw 30,8(1)
	stw 0,20(1)
.LBB2449:
.LBB2443:
.LBB2439:
.LBB2435:
	.loc 1 68 0
	lbz 0,.LANCHOR0@l(9)
	.cfi_offset 65, 4
	.cfi_offset 30, -8
.LBE2435:
.LBE2439:
.LBE2443:
.LBE2449:
	.loc 1 160 0
	stw 31,12(1)
.LBB2450:
.LBB2444:
.LBB2440:
.LBB2436:
	.loc 1 68 0
	cmpwi 7,0,0
	beq- 7,.L75
	.cfi_offset 31, -4
.LEHB15:
.LBE2436:
.LBE2440:
.LBE2444:
.LBB2445:
	.loc 1 136 0
	bl CONF_GetShutdownMode
	.loc 1 145 0
	bl STM_ShutdownToStandby
.LBE2445:
.LBE2450:
	.loc 1 162 0
	lwz 0,20(1)
	lwz 30,8(1)
	mtlr 0
	lwz 31,12(1)
	addi 1,1,16
	.cfi_remember_state
.LCFI28:
	.cfi_def_cfa_offset 0
	.cfi_restore 31
	.cfi_restore 30
	blr
.L75:
.LCFI29:
	.cfi_restore_state
.LBB2451:
.LBB2446:
.LBB2441:
.LBB2437:
	.loc 1 78 0
	lis 3,Settings@ha
	.loc 1 70 0
	li 0,1
	.loc 1 78 0
	la 3,Settings@l(3)
.LBB2429:
.LBB2430:
	.loc 8 27 0
	lis 31,_ZN11Application8instanceE@ha
.LBE2430:
.LBE2429:
	.loc 1 70 0
	stb 0,.LANCHOR0@l(9)
	.loc 1 78 0
	bl _ZN9CSettings4SaveEv
.LBB2433:
.LBB2431:
	.loc 8 27 0
	lwz 0,_ZN11Application8instanceE@l(31)
	cmpwi 7,0,0
	beq- 7,.L76
	bl ExitApp.part.26
.L77:
.LBE2431:
.LBE2433:
.LBE2437:
.LBE2441:
.LBE2446:
.LBB2447:
	.loc 1 136 0
	bl CONF_GetShutdownMode
	.loc 1 145 0
	bl STM_ShutdownToStandby
.LBE2447:
.LBE2451:
	.loc 1 162 0
	lwz 0,20(1)
	lwz 30,8(1)
	mtlr 0
	lwz 31,12(1)
	addi 1,1,16
	.cfi_remember_state
	.cfi_restore 30
	.cfi_restore 31
.LCFI30:
	.cfi_def_cfa_offset 0
	blr
.L76:
.LCFI31:
	.cfi_restore_state
.LBB2452:
.LBB2448:
.LBB2442:
.LBB2438:
.LBB2434:
.LBB2432:
	.loc 8 27 0
	li 3,632
	bl _Znwj
.LEHE15:
	mr 30,3
.LEHB16:
	bl _ZN11ApplicationC1Ev
.LEHE16:
	stw 30,_ZN11Application8instanceE@l(31)
.LEHB17:
	bl ExitApp.part.26
	b .L77
.L74:
	mr 31,3
	mr 3,30
	bl _ZdlPv
	mr 3,31
	bl _Unwind_Resume
.LEHE17:
.LBE2432:
.LBE2434:
.LBE2438:
.LBE2442:
.LBE2448:
.LBE2452:
	.cfi_endproc
.LFE1788:
	.section	.gcc_except_table
.LLSDA1788:
	.byte	0xff
	.byte	0xff
	.byte	0x1
	.uleb128 .LLSDACSE1788-.LLSDACSB1788
.LLSDACSB1788:
	.uleb128 .LEHB15-.LFB1788
	.uleb128 .LEHE15-.LEHB15
	.uleb128 0
	.uleb128 0
	.uleb128 .LEHB16-.LFB1788
	.uleb128 .LEHE16-.LEHB16
	.uleb128 .L74-.LFB1788
	.uleb128 0
	.uleb128 .LEHB17-.LFB1788
	.uleb128 .LEHE17-.LEHB17
	.uleb128 0
	.uleb128 0
.LLSDACSE1788:
	.section	".text"
	.size	Sys_ShutdownToStandby, .-Sys_ShutdownToStandby
	.align 2
	.globl Sys_LoadMenu
	.type	Sys_LoadMenu, @function
Sys_LoadMenu:
.LFB1789:
	.loc 1 165 0
	.cfi_startproc
	.cfi_personality 0,__gxx_personality_v0
	.cfi_lsda 0,.LLSDA1789
	mflr 0
	stwu 1,-16(1)
.LCFI32:
	.cfi_def_cfa_offset 16
	.cfi_register 65, 0
.LBB2458:
.LBB2459:
.LBB2460:
	.loc 1 68 0
	lis 9,.LANCHOR0@ha
.LBE2460:
.LBE2459:
.LBE2458:
	.loc 1 165 0
	stw 30,8(1)
	stw 0,20(1)
.LBB2471:
.LBB2468:
.LBB2465:
	.loc 1 68 0
	lbz 0,.LANCHOR0@l(9)
	.cfi_offset 65, 4
	.cfi_offset 30, -8
.LBE2465:
.LBE2468:
.LBE2471:
	.loc 1 165 0
	stw 31,12(1)
.LBB2472:
.LBB2469:
.LBB2466:
	.loc 1 68 0
	cmpwi 7,0,0
	beq- 7,.L83
	.cfi_offset 31, -4
.L79:
.LBE2466:
.LBE2469:
.LBE2472:
	.loc 1 169 0
	lis 9,0x8132
	lis 0,0x5075
	ori 9,9,65531
	ori 0,0,28261
	stw 0,0(9)
	.loc 1 170 0
	mr 3,9
	li 4,4
.LEHB18:
	bl DCFlushRange
	.loc 1 173 0
	li 3,3
	li 4,0
	li 5,0
	bl SYS_ResetSystem
	.loc 1 174 0
	lwz 0,20(1)
	lwz 30,8(1)
	mtlr 0
	lwz 31,12(1)
	addi 1,1,16
	.cfi_remember_state
.LCFI33:
	.cfi_def_cfa_offset 0
	.cfi_restore 31
	.cfi_restore 30
	blr
.L83:
.LCFI34:
	.cfi_restore_state
.LBB2473:
.LBB2470:
.LBB2467:
	.loc 1 78 0
	lis 3,Settings@ha
	.loc 1 70 0
	li 0,1
	.loc 1 78 0
	la 3,Settings@l(3)
.LBB2461:
.LBB2462:
	.loc 8 27 0
	lis 31,_ZN11Application8instanceE@ha
.LBE2462:
.LBE2461:
	.loc 1 70 0
	stb 0,.LANCHOR0@l(9)
	.loc 1 78 0
	bl _ZN9CSettings4SaveEv
.LBB2464:
.LBB2463:
	.loc 8 27 0
	lwz 0,_ZN11Application8instanceE@l(31)
	cmpwi 7,0,0
	beq- 7,.L84
	bl ExitApp.part.26
	b .L79
.L84:
	li 3,632
	bl _Znwj
.LEHE18:
	mr 30,3
.LEHB19:
	bl _ZN11ApplicationC1Ev
.LEHE19:
	stw 30,_ZN11Application8instanceE@l(31)
.LEHB20:
	bl ExitApp.part.26
	b .L79
.L82:
	mr 31,3
	mr 3,30
	bl _ZdlPv
	mr 3,31
	bl _Unwind_Resume
.LEHE20:
.LBE2463:
.LBE2464:
.LBE2467:
.LBE2470:
.LBE2473:
	.cfi_endproc
.LFE1789:
	.section	.gcc_except_table
.LLSDA1789:
	.byte	0xff
	.byte	0xff
	.byte	0x1
	.uleb128 .LLSDACSE1789-.LLSDACSB1789
.LLSDACSB1789:
	.uleb128 .LEHB18-.LFB1789
	.uleb128 .LEHE18-.LEHB18
	.uleb128 0
	.uleb128 0
	.uleb128 .LEHB19-.LFB1789
	.uleb128 .LEHE19-.LEHB19
	.uleb128 .L82-.LFB1789
	.uleb128 0
	.uleb128 .LEHB20-.LFB1789
	.uleb128 .LEHE20-.LEHB20
	.uleb128 0
	.uleb128 0
.LLSDACSE1789:
	.section	".text"
	.size	Sys_LoadMenu, .-Sys_LoadMenu
	.align 2
	.globl IsFromHBC
	.type	IsFromHBC, @function
IsFromHBC:
.LFB1791:
	.loc 1 188 0
	.cfi_startproc
	mflr 0
	stwu 1,-8(1)
.LCFI35:
	.cfi_def_cfa_offset 8
	.cfi_register 65, 0
.LBB2475:
	.loc 1 189 0
	lis 9,0x8000
	.loc 1 190 0
	li 3,0
	.loc 1 189 0
	ori 9,9,6144
.LBE2475:
	.loc 1 188 0
	stw 0,12(1)
.LBB2476:
	.loc 1 189 0
	lwz 0,0(9)
	.cfi_offset 65, 4
	cmpwi 7,0,0
	beq- 7,.L86
.LVL27:
	.loc 1 193 0
	lis 3,0x8000
	lis 4,.LC4@ha
	ori 3,3,6148
	la 4,.LC4@l(4)
	li 5,8
	bl strncmp
	.loc 1 187 0
	cntlzw 3,3
	srwi 3,3,5
.LVL28:
.L86:
.LBE2476:
	.loc 1 199 0
	lwz 0,12(1)
	addi 1,1,8
.LCFI36:
	.cfi_def_cfa_offset 0
	mtlr 0
	blr
	.cfi_endproc
.LFE1791:
	.size	IsFromHBC, .-IsFromHBC
	.align 2
	.globl Sys_LoadHBC
	.type	Sys_LoadHBC, @function
Sys_LoadHBC:
.LFB1792:
	.loc 1 206 0
	.cfi_startproc
	.cfi_personality 0,__gxx_personality_v0
	.cfi_lsda 0,.LLSDA1792
	mflr 0
	stwu 1,-16(1)
.LCFI37:
	.cfi_def_cfa_offset 16
	.cfi_register 65, 0
.LBB2483:
.LBB2484:
.LBB2485:
.LBB2486:
	.loc 1 68 0
	lis 9,.LANCHOR0@ha
.LBE2486:
.LBE2485:
.LBE2484:
.LBE2483:
	.loc 1 206 0
	stw 30,8(1)
	stw 0,20(1)
.LBB2505:
.LBB2501:
.LBB2497:
.LBB2493:
	.loc 1 68 0
	lbz 0,.LANCHOR0@l(9)
	.cfi_offset 65, 4
	.cfi_offset 30, -8
.LBE2493:
.LBE2497:
.LBE2501:
.LBE2505:
	.loc 1 206 0
	stw 31,12(1)
.LBB2506:
.LBB2502:
.LBB2498:
.LBB2494:
	.loc 1 68 0
	cmpwi 7,0,0
	beq- 7,.L94
	.cfi_offset 31, -4
.LEHB21:
.LBE2494:
.LBE2498:
.LBE2502:
	.loc 1 209 0
	bl WII_Initialize
	.loc 1 211 0
	lis 3,0x1
	lis 4,0xaf1b
	ori 3,3,1
	ori 4,4,62742
	bl WII_LaunchTitle
.LVL29:
	.loc 1 212 0
	cmpwi 7,3,0
	blt- 7,.L95
.L92:
	.loc 1 218 0
	li 3,3
.LVL30:
	li 4,0
	li 5,0
	bl SYS_ResetSystem
.LBE2506:
	.loc 1 219 0
	lwz 0,20(1)
	lwz 30,8(1)
	mtlr 0
	lwz 31,12(1)
	addi 1,1,16
	.cfi_remember_state
.LCFI38:
	.cfi_def_cfa_offset 0
	.cfi_restore 31
	.cfi_restore 30
	blr
.L94:
.LCFI39:
	.cfi_restore_state
.LBB2507:
.LBB2503:
.LBB2499:
.LBB2495:
	.loc 1 78 0
	lis 3,Settings@ha
	.loc 1 70 0
	li 0,1
	.loc 1 78 0
	la 3,Settings@l(3)
.LBB2487:
.LBB2488:
	.loc 8 27 0
	lis 31,_ZN11Application8instanceE@ha
.LBE2488:
.LBE2487:
	.loc 1 70 0
	stb 0,.LANCHOR0@l(9)
	.loc 1 78 0
	bl _ZN9CSettings4SaveEv
.LBB2491:
.LBB2489:
	.loc 8 27 0
	lwz 0,_ZN11Application8instanceE@l(31)
	cmpwi 7,0,0
	beq- 7,.L96
	bl ExitApp.part.26
.L97:
.LBE2489:
.LBE2491:
.LBE2495:
.LBE2499:
.LBE2503:
	.loc 1 209 0
	bl WII_Initialize
	.loc 1 211 0
	lis 3,0x1
	lis 4,0xaf1b
	ori 3,3,1
	ori 4,4,62742
	bl WII_LaunchTitle
.LVL31:
	.loc 1 212 0
	cmpwi 7,3,0
	bge+ 7,.L92
.L95:
	.loc 1 213 0
	lis 3,0x1
.LVL32:
	lis 4,0x4a4f
	ori 4,4,17481
	ori 3,3,1
	bl WII_LaunchTitle
	.loc 1 215 0
	lis 3,0x1
	lis 4,0x4841
	ori 3,3,1
	ori 4,4,22616
	bl WII_LaunchTitle
	.loc 1 218 0
	li 3,3
	li 4,0
	li 5,0
	bl SYS_ResetSystem
.LBE2507:
	.loc 1 219 0
	lwz 0,20(1)
	lwz 30,8(1)
	mtlr 0
	lwz 31,12(1)
	addi 1,1,16
	.cfi_remember_state
	.cfi_restore 30
	.cfi_restore 31
.LCFI40:
	.cfi_def_cfa_offset 0
	blr
.L96:
.LCFI41:
	.cfi_restore_state
.LBB2508:
.LBB2504:
.LBB2500:
.LBB2496:
.LBB2492:
.LBB2490:
	.loc 8 27 0
	li 3,632
	bl _Znwj
.LEHE21:
	mr 30,3
.LEHB22:
	bl _ZN11ApplicationC1Ev
.LEHE22:
	stw 30,_ZN11Application8instanceE@l(31)
.LEHB23:
	bl ExitApp.part.26
	b .L97
.L93:
	mr 31,3
	mr 3,30
	bl _ZdlPv
	mr 3,31
	bl _Unwind_Resume
.LEHE23:
.LBE2490:
.LBE2492:
.LBE2496:
.LBE2500:
.LBE2504:
.LBE2508:
	.cfi_endproc
.LFE1792:
	.section	.gcc_except_table
.LLSDA1792:
	.byte	0xff
	.byte	0xff
	.byte	0x1
	.uleb128 .LLSDACSE1792-.LLSDACSB1792
.LLSDACSB1792:
	.uleb128 .LEHB21-.LFB1792
	.uleb128 .LEHE21-.LEHB21
	.uleb128 0
	.uleb128 0
	.uleb128 .LEHB22-.LFB1792
	.uleb128 .LEHE22-.LEHB22
	.uleb128 .L93-.LFB1792
	.uleb128 0
	.uleb128 .LEHB23-.LFB1792
	.uleb128 .LEHE23-.LEHB23
	.uleb128 0
	.uleb128 0
.LLSDACSE1792:
	.section	".text"
	.size	Sys_LoadHBC, .-Sys_LoadHBC
	.align 2
	.globl Sys_BackToLoader
	.type	Sys_BackToLoader, @function
Sys_BackToLoader:
.LFB1790:
	.loc 1 177 0
	.cfi_startproc
	.cfi_personality 0,__gxx_personality_v0
	.cfi_lsda 0,.LLSDA1790
	mflr 0
	stwu 1,-16(1)
.LCFI42:
	.cfi_def_cfa_offset 16
	.cfi_register 65, 0
.LBB2517:
.LBB2518:
.LBB2519:
	.loc 1 68 0
	lis 9,.LANCHOR0@ha
.LBE2519:
.LBE2518:
.LBE2517:
	.loc 1 177 0
	stw 30,8(1)
	stw 0,20(1)
.LBB2530:
.LBB2527:
.LBB2524:
	.loc 1 68 0
	lbz 0,.LANCHOR0@l(9)
	.cfi_offset 65, 4
	.cfi_offset 30, -8
.LBE2524:
.LBE2527:
.LBE2530:
	.loc 1 177 0
	stw 31,12(1)
.LBB2531:
.LBB2528:
.LBB2525:
	.loc 1 68 0
	cmpwi 7,0,0
	beq- 7,.L105
	.cfi_offset 31, -4
.L99:
.LBE2525:
.LBE2528:
.LBE2531:
.LBB2532:
.LBB2533:
	.loc 1 189 0
	lis 9,0x8000
	ori 9,9,6144
	lwz 0,0(9)
	cmpwi 7,0,0
	beq- 7,.L102
.LVL33:
	.loc 1 193 0
	lis 3,0x8000
	lis 4,.LC4@ha
	ori 3,3,6148
	la 4,.LC4@l(4)
	li 5,8
	bl strncmp
	cmpwi 7,3,0
	beq- 7,.L103
.LVL34:
.L102:
.LBE2533:
.LBE2532:
	.loc 1 184 0
	li 3,3
	li 4,0
	li 5,0
.LEHB24:
	bl SYS_ResetSystem
	.loc 1 185 0
	lwz 0,20(1)
	lwz 30,8(1)
	mtlr 0
	lwz 31,12(1)
	addi 1,1,16
	.cfi_remember_state
.LCFI43:
	.cfi_def_cfa_offset 0
	.cfi_restore 31
	.cfi_restore 30
	blr
.LVL35:
.L103:
.LCFI44:
	.cfi_restore_state
	.loc 1 181 0
	bl Sys_LoadHBC
	.loc 1 184 0
	li 3,3
	li 4,0
	li 5,0
	bl SYS_ResetSystem
	.loc 1 185 0
	lwz 0,20(1)
	lwz 30,8(1)
	mtlr 0
	lwz 31,12(1)
	addi 1,1,16
	.cfi_remember_state
	.cfi_restore 30
	.cfi_restore 31
.LCFI45:
	.cfi_def_cfa_offset 0
	blr
.LVL36:
.L105:
.LCFI46:
	.cfi_restore_state
.LBB2534:
.LBB2529:
.LBB2526:
	.loc 1 78 0
	lis 3,Settings@ha
	.loc 1 70 0
	li 0,1
	.loc 1 78 0
	la 3,Settings@l(3)
.LBB2520:
.LBB2521:
	.loc 8 27 0
	lis 31,_ZN11Application8instanceE@ha
.LBE2521:
.LBE2520:
	.loc 1 70 0
	stb 0,.LANCHOR0@l(9)
	.loc 1 78 0
	bl _ZN9CSettings4SaveEv
.LBB2523:
.LBB2522:
	.loc 8 27 0
	lwz 0,_ZN11Application8instanceE@l(31)
	cmpwi 7,0,0
	beq- 7,.L106
	bl ExitApp.part.26
	b .L99
.L106:
	li 3,632
	bl _Znwj
.LEHE24:
	mr 30,3
.LEHB25:
	bl _ZN11ApplicationC1Ev
.LEHE25:
	stw 30,_ZN11Application8instanceE@l(31)
.LEHB26:
	bl ExitApp.part.26
	b .L99
.L104:
	mr 31,3
	mr 3,30
	bl _ZdlPv
	mr 3,31
	bl _Unwind_Resume
.LEHE26:
.LBE2522:
.LBE2523:
.LBE2526:
.LBE2529:
.LBE2534:
	.cfi_endproc
.LFE1790:
	.section	.gcc_except_table
.LLSDA1790:
	.byte	0xff
	.byte	0xff
	.byte	0x1
	.uleb128 .LLSDACSE1790-.LLSDACSB1790
.LLSDACSB1790:
	.uleb128 .LEHB24-.LFB1790
	.uleb128 .LEHE24-.LEHB24
	.uleb128 0
	.uleb128 0
	.uleb128 .LEHB25-.LFB1790
	.uleb128 .LEHE25-.LEHB25
	.uleb128 .L104-.LFB1790
	.uleb128 0
	.uleb128 .LEHB26-.LFB1790
	.uleb128 .LEHE26-.LEHB26
	.uleb128 0
	.uleb128 0
.LLSDACSE1790:
	.section	".text"
	.size	Sys_BackToLoader, .-Sys_BackToLoader
	.globl reset
	.globl shutdown
	.section	.rodata.str1.4,"aMS",@progbits,1
	.align 2
.LC0:
	.string	"%s/boot.dol"
.LC1:
	.string	"Reboot failed"
	.zero	2
.LC2:
	.string	"Can't load file"
.LC3:
	.string	"OK"
	.zero	1
.LC4:
	.string	"STUBHAXX"
	.section	.sbss,"aw",@nobits
	.type	reset, @object
	.size	reset, 1
reset:
	.zero	1
	.type	shutdown, @object
	.size	shutdown, 1
shutdown:
	.zero	1
	.section	".bss"
	.set	.LANCHOR0,. + 0
	.type	_ZZ7ExitAppE8bRunOnce, @object
	.size	_ZZ7ExitAppE8bRunOnce, 1
_ZZ7ExitAppE8bRunOnce:
	.zero	1
	.section	".text"
.Letext0:
	.file 10 "d:\\devkitpro\\devkitppc\\bin\\../lib/gcc/powerpc-eabi/4.6.3/../../../../powerpc-eabi/include/stdint.h"
	.file 11 "d:/devkitPro/libogc/include/gctypes.h"
	.file 12 "d:/devkitPro/libogc/include/ogc/lwp.h"
	.file 13 "d:/devkitPro/libogc/include/ogc/gx.h"
	.file 14 "d:\\devkitpro\\devkitppc\\bin\\../lib/gcc/powerpc-eabi/4.6.3/../../../../powerpc-eabi/include/machine/_types.h"
	.file 15 "d:\\devkitpro\\devkitppc\\bin\\../lib/gcc/powerpc-eabi/4.6.3/../../../../powerpc-eabi/include/sys/lock.h"
	.file 16 "d:\\devkitpro\\devkitppc\\bin\\../lib/gcc/powerpc-eabi/4.6.3/include/stddef.h"
	.file 17 "d:\\devkitpro\\devkitppc\\bin\\../lib/gcc/powerpc-eabi/4.6.3/../../../../powerpc-eabi/include/sys/_types.h"
	.file 18 "d:\\devkitpro\\devkitppc\\bin\\../lib/gcc/powerpc-eabi/4.6.3/../../../../powerpc-eabi/include/sys/reent.h"
	.file 19 "d:\\devkitpro\\devkitppc\\bin\\../lib/gcc/powerpc-eabi/4.6.3/../../../../powerpc-eabi/include/time.h"
	.file 20 "d:\\devkitpro\\devkitppc\\bin\\../lib/gcc/powerpc-eabi/4.6.3/../../../../powerpc-eabi/include/c++/4.6.3/cwchar"
	.file 21 "d:\\devkitpro\\devkitppc\\bin\\../lib/gcc/powerpc-eabi/4.6.3/../../../../powerpc-eabi/include/c++/4.6.3/powerpc-eabi/bits/c++config.h"
	.file 22 "d:\\devkitpro\\devkitppc\\bin\\../lib/gcc/powerpc-eabi/4.6.3/../../../../powerpc-eabi/include/c++/4.6.3/clocale"
	.file 23 "d:/devkitPro/libogc/include/ogc/conf.h"
	.file 24 "d:\\devkitpro\\devkitppc\\bin\\../lib/gcc/powerpc-eabi/4.6.3/../../../../powerpc-eabi/include/c++/4.6.3/bits/stl_bvector.h"
	.file 25 "d:\\devkitpro\\devkitppc\\bin\\../lib/gcc/powerpc-eabi/4.6.3/../../../../powerpc-eabi/include/c++/4.6.3/bits/stringfwd.h"
	.file 26 "d:\\devkitpro\\devkitppc\\bin\\../lib/gcc/powerpc-eabi/4.6.3/../../../../powerpc-eabi/include/c++/4.6.3/bits/stl_list.h"
	.file 27 "d:\\devkitpro\\devkitppc\\bin\\../lib/gcc/powerpc-eabi/4.6.3/../../../../powerpc-eabi/include/c++/4.6.3/bits/stl_tree.h"
	.file 28 "d:\\devkitpro\\devkitppc\\bin\\../lib/gcc/powerpc-eabi/4.6.3/../../../../powerpc-eabi/include/c++/4.6.3/bits/stl_vector.h"
	.file 29 "d:\\devkitpro\\devkitppc\\bin\\../lib/gcc/powerpc-eabi/4.6.3/../../../../powerpc-eabi/include/c++/4.6.3/bits/move.h"
	.file 30 "d:\\devkitpro\\devkitppc\\bin\\../lib/gcc/powerpc-eabi/4.6.3/../../../../powerpc-eabi/include/c++/4.6.3/bits/cpp_type_traits.h"
	.file 31 "d:\\devkitpro\\devkitppc\\bin\\../lib/gcc/powerpc-eabi/4.6.3/../../../../powerpc-eabi/include/c++/4.6.3/ext/new_allocator.h"
	.file 32 "d:\\devkitpro\\devkitppc\\bin\\../lib/gcc/powerpc-eabi/4.6.3/../../../../powerpc-eabi/include/c++/4.6.3/bits/stl_iterator_base_types.h"
	.file 33 "d:\\devkitpro\\devkitppc\\bin\\../lib/gcc/powerpc-eabi/4.6.3/../../../../powerpc-eabi/include/c++/4.6.3/debug/debug.h"
	.file 34 "<built-in>"
	.file 35 "d:\\devkitpro\\devkitppc\\bin\\../lib/gcc/powerpc-eabi/4.6.3/../../../../powerpc-eabi/include/wchar.h"
	.file 36 "d:\\devkitpro\\devkitppc\\bin\\../lib/gcc/powerpc-eabi/4.6.3/../../../../powerpc-eabi/include/c++/4.6.3/bits/char_traits.h"
	.file 37 "d:\\devkitpro\\devkitppc\\bin\\../lib/gcc/powerpc-eabi/4.6.3/../../../../powerpc-eabi/include/c++/4.6.3/bits/allocator.h"
	.file 38 "d:\\devkitpro\\devkitppc\\bin\\../lib/gcc/powerpc-eabi/4.6.3/../../../../powerpc-eabi/include/locale.h"
	.file 39 "d:\\devkitpro\\devkitppc\\bin\\../lib/gcc/powerpc-eabi/4.6.3/../../../../powerpc-eabi/include/c++/4.6.3/powerpc-eabi/bits/atomic_word.h"
	.file 40 "d:\\devkitpro\\devkitppc\\bin\\../lib/gcc/powerpc-eabi/4.6.3/../../../../powerpc-eabi/include/c++/4.6.3/ext/numeric_traits.h"
	.file 41 "d:\\devkitpro\\devkitppc\\bin\\../lib/gcc/powerpc-eabi/4.6.3/../../../../powerpc-eabi/include/c++/4.6.3/bits/basic_string.tcc"
	.file 42 "d:\\devkitpro\\devkitppc\\bin\\../lib/gcc/powerpc-eabi/4.6.3/../../../../powerpc-eabi/include/c++/4.6.3/bits/stl_iterator.h"
	.file 43 "d:\\devkitpro\\devkitppc\\bin\\../lib/gcc/powerpc-eabi/4.6.3/../../../../powerpc-eabi/include/stdio.h"
	.file 44 "d:/Projects/SaveGameManager/savegame-manager-gx/trunk/source/System/../Controls/../GUI/../Settings/../FileOperations/FileExtensions.h"
	.file 45 "d:/Projects/SaveGameManager/savegame-manager-gx/trunk/source/System/../Controls/../GUI/../Settings/../Controls/AppControls.hpp"
	.file 46 "d:/Projects/SaveGameManager/savegame-manager-gx/trunk/source/System/../Controls/../GUI/../Settings/CSettings.h"
	.file 47 "d:/Projects/SaveGameManager/savegame-manager-gx/trunk/source/System/../Controls/../GUI/../Tools/Rect.h"
	.file 48 "d:/Projects/SaveGameManager/savegame-manager-gx/trunk/source/System/../Controls/../GUI/gui_element.h"
	.file 49 "d:/Projects/SaveGameManager/savegame-manager-gx/trunk/source/System/../Controls/../GUI/../sigslot.h"
	.file 50 "d:\\devkitpro\\devkitppc\\bin\\../lib/gcc/powerpc-eabi/4.6.3/../../../../powerpc-eabi/include/c++/4.6.3/bits/list.tcc"
	.file 51 "d:\\devkitpro\\devkitppc\\bin\\../lib/gcc/powerpc-eabi/4.6.3/../../../../powerpc-eabi/include/c++/4.6.3/bits/stl_function.h"
	.file 52 "d:\\devkitpro\\devkitppc\\bin\\../lib/gcc/powerpc-eabi/4.6.3/../../../../powerpc-eabi/include/c++/4.6.3/bits/stl_set.h"
	.file 53 "d:\\devkitpro\\devkitppc\\bin\\../lib/gcc/powerpc-eabi/4.6.3/../../../../powerpc-eabi/include/c++/4.6.3/bits/vector.tcc"
	.file 54 "d:/Projects/SaveGameManager/savegame-manager-gx/trunk/source/System/../SoundOperations/BufferCircle.hpp"
	.file 55 "d:/Projects/SaveGameManager/savegame-manager-gx/trunk/source/System/../Menu/../Files/filebrowser.h"
	.file 56 "d:\\devkitpro\\devkitppc\\bin\\../lib/gcc/powerpc-eabi/4.6.3/../../../../powerpc-eabi/include/c++/4.6.3/bits/stl_pair.h"
	.file 57 "d:/Projects/SaveGameManager/savegame-manager-gx/trunk/source/System/../Menu/../Files/Browser.hpp"
	.file 58 "d:/Projects/SaveGameManager/savegame-manager-gx/trunk/source/System/../SoundOperations/../Controls/Thread.h"
	.file 59 "d:\\devkitpro\\devkitppc\\bin\\../lib/gcc/powerpc-eabi/4.6.3/../../../../powerpc-eabi/include/c++/4.6.3/new"
	.file 60 "d:/Projects/SaveGameManager/savegame-manager-gx/trunk/source/System/../DeviceControls/DeviceHandler.hpp"