   1              		.file	"Task.cpp"
   2              		.section	".text"
   3              	.Ltext0:
   4              		.section	.text._ZN7sigslot15single_threadedD2Ev,"axG",@progbits,_ZN7sigslot15single_threadedD5Ev,c
   5              		.align 2
   6              		.weak	_ZN7sigslot15single_threadedD2Ev
   7              		.type	_ZN7sigslot15single_threadedD2Ev, @function
   8              	_ZN7sigslot15single_threadedD2Ev:
   9              	.LFB1148:
  10              		.file 1 "d:/Projects/SaveGameManager/savegame-manager-gx/trunk/source/Controls/../GUI/../sigslot.h
  11              		.loc 1 104 0
  12              		.cfi_startproc
  13              	.LVL0:
  14              	.LBB2878:
  15              		.loc 1 105 0
  16 0000 3D200000 		lis 9,_ZTVN7sigslot15single_threadedE+8@ha
  17              	.LBE2878:
  18              		.loc 1 107 0
  19              	.LBB2879:
  20              		.loc 1 105 0
  21 0004 38090008 		la 0,_ZTVN7sigslot15single_threadedE+8@l(9)
  22 0008 90030000 		stw 0,0(3)
  23              	.LBE2879:
  24              		.loc 1 107 0
  25 000c 4E800020 		blr
  26              		.cfi_endproc
  27              	.LFE1148:
  28              		.size	_ZN7sigslot15single_threadedD2Ev, .-_ZN7sigslot15single_threadedD2Ev
  29              		.section	.text._ZN7sigslot15single_threaded4lockEv,"axG",@progbits,_ZN7sigslot15single_threaded4lo
  30              		.align 2
  31              		.weak	_ZN7sigslot15single_threaded4lockEv
  32              		.type	_ZN7sigslot15single_threaded4lockEv, @function
  33              	_ZN7sigslot15single_threaded4lockEv:
  34              	.LFB1151:
  35              		.loc 1 109 0
  36              		.cfi_startproc
  37              	.LVL1:
  38              		.loc 1 112 0
  39 0000 4E800020 		blr
  40              		.cfi_endproc
  41              	.LFE1151:
  42              		.size	_ZN7sigslot15single_threaded4lockEv, .-_ZN7sigslot15single_threaded4lockEv
  43              		.section	.text._ZN7sigslot15single_threaded6unlockEv,"axG",@progbits,_ZN7sigslot15single_threaded6
  44              		.align 2
  45              		.weak	_ZN7sigslot15single_threaded6unlockEv
  46              		.type	_ZN7sigslot15single_threaded6unlockEv, @function
  47              	_ZN7sigslot15single_threaded6unlockEv:
  48              	.LFB1152:
  49              		.loc 1 114 0
  50              		.cfi_startproc
  51              	.LVL2:
  52              		.loc 1 117 0
  53 0000 4E800020 		blr
  54              		.cfi_endproc
  55              	.LFE1152:
  56              		.size	_ZN7sigslot15single_threaded6unlockEv, .-_ZN7sigslot15single_threaded6unlockEv
  57              		.section	.text._ZN10GuiElement9SetParentEPS_,"axG",@progbits,_ZN10GuiElement9SetParentEPS_,comdat
  58              		.align 2
  59              		.weak	_ZN10GuiElement9SetParentEPS_
  60              		.type	_ZN10GuiElement9SetParentEPS_, @function
  61              	_ZN10GuiElement9SetParentEPS_:
  62              	.LFB1384:
  63              		.file 2 "d:/Projects/SaveGameManager/savegame-manager-gx/trunk/source/Controls/../GUI/gui_element.
  64              		.loc 2 92 0
  65              		.cfi_startproc
  66              	.LVL3:
  67              		.loc 2 92 0
  68 0000 90830060 		stw 4,96(3)
  69 0004 4E800020 		blr
  70              		.cfi_endproc
  71              	.LFE1384:
  72              		.size	_ZN10GuiElement9SetParentEPS_, .-_ZN10GuiElement9SetParentEPS_
  73              		.section	.text._ZN10GuiElement9GetParentEv,"axG",@progbits,_ZN10GuiElement9GetParentEv,comdat
  74              		.align 2
  75              		.weak	_ZN10GuiElement9GetParentEv
  76              		.type	_ZN10GuiElement9GetParentEv, @function
  77              	_ZN10GuiElement9GetParentEv:
  78              	.LFB1385:
  79              		.loc 2 95 0
  80              		.cfi_startproc
  81              	.LVL4:
  82              		.loc 2 95 0
  83 0000 80630060 		lwz 3,96(3)
  84              	.LVL5:
  85 0004 4E800020 		blr
  86              		.cfi_endproc
  87              	.LFE1385:
  88              		.size	_ZN10GuiElement9GetParentEv, .-_ZN10GuiElement9GetParentEv
  89              		.section	.text._ZN10GuiElement12GetZPositionEv,"axG",@progbits,_ZN10GuiElement12GetZPositionEv,com
  90              		.align 2
  91              		.weak	_ZN10GuiElement12GetZPositionEv
  92              		.type	_ZN10GuiElement12GetZPositionEv, @function
  93              	_ZN10GuiElement12GetZPositionEv:
  94              	.LFB1386:
  95              		.loc 2 106 0
  96              		.cfi_startproc
  97              	.LVL6:
  98 0000 7C0802A6 		mflr 0
  99 0004 9421FFF0 		stwu 1,-16(1)
 100              	.LCFI0:
 101              		.cfi_def_cfa_offset 16
 102              		.cfi_register 65, 0
 103 0008 93E1000C 		stw 31,12(1)
 104 000c 7C7F1B78 		mr 31,3
 105              		.cfi_offset 31, -4
 106 0010 90010014 		stw 0,20(1)
 107              	.LBB2880:
 108              		.loc 2 110 0
 109 0014 81630060 		lwz 11,96(3)
 110              		.loc 2 108 0
 111 0018 38600000 		li 3,0
 112              	.LVL7:
 113              		.loc 2 110 0
 114 001c 2F8B0000 		cmpwi 7,11,0
 115 0020 419E0018 		beq- 7,.L8
 116              		.cfi_offset 65, 4
 117              		.loc 2 111 0
 118 0024 812B0000 		lwz 9,0(11)
 119 0028 7D635B78 		mr 3,11
 120 002c 80090018 		lwz 0,24(9)
 121 0030 7C0903A6 		mtctr 0
 122 0034 4E800421 		bctrl
 123              	.LVL8:
 124              	.L8:
 125              		.loc 2 113 0
 126 0038 801F0034 		lwz 0,52(31)
 127              	.LBE2880:
 128              		.loc 2 114 0
 129 003c 83E1000C 		lwz 31,12(1)
 130              	.LVL9:
 131 0040 7C630214 		add 3,3,0
 132              	.LVL10:
 133 0044 80010014 		lwz 0,20(1)
 134 0048 38210010 		addi 1,1,16
 135              	.LCFI1:
 136              		.cfi_def_cfa_offset 0
 137              		.cfi_restore 31
 138 004c 7C0803A6 		mtlr 0
 139 0050 4E800020 		blr
 140              		.cfi_endproc
 141              	.LFE1386:
 142              		.size	_ZN10GuiElement12GetZPositionEv, .-_ZN10GuiElement12GetZPositionEv
 143              		.section	.text._ZN10GuiElement10GetLeftPosEv,"axG",@progbits,_ZN10GuiElement10GetLeftPosEv,comdat
 144              		.align 2
 145              		.weak	_ZN10GuiElement10GetLeftPosEv
 146              		.type	_ZN10GuiElement10GetLeftPosEv, @function
 147              	_ZN10GuiElement10GetLeftPosEv:
 148              	.LFB1387:
 149              		.loc 2 116 0
 150              		.cfi_startproc
 151              	.LVL11:
 152              		.loc 2 116 0
 153 0000 8063002C 		lwz 3,44(3)
 154              	.LVL12:
 155 0004 4E800020 		blr
 156              		.cfi_endproc
 157              	.LFE1387:
 158              		.size	_ZN10GuiElement10GetLeftPosEv, .-_ZN10GuiElement10GetLeftPosEv
 159              		.section	.text._ZN10GuiElement9GetTopPosEv,"axG",@progbits,_ZN10GuiElement9GetTopPosEv,comdat
 160              		.align 2
 161              		.weak	_ZN10GuiElement9GetTopPosEv
 162              		.type	_ZN10GuiElement9GetTopPosEv, @function
 163              	_ZN10GuiElement9GetTopPosEv:
 164              	.LFB1388:
 165              		.loc 2 118 0
 166              		.cfi_startproc
 167              	.LVL13:
 168              		.loc 2 118 0
 169 0000 80630030 		lwz 3,48(3)
 170              	.LVL14:
 171 0004 4E800020 		blr
 172              		.cfi_endproc
 173              	.LFE1388:
 174              		.size	_ZN10GuiElement9GetTopPosEv, .-_ZN10GuiElement9GetTopPosEv
 175              		.section	.text._ZN10GuiElement8GetWidthEv,"axG",@progbits,_ZN10GuiElement8GetWidthEv,comdat
 176              		.align 2
 177              		.weak	_ZN10GuiElement8GetWidthEv
 178              		.type	_ZN10GuiElement8GetWidthEv, @function
 179              	_ZN10GuiElement8GetWidthEv:
 180              	.LFB1389:
 181              		.loc 2 121 0
 182              		.cfi_startproc
 183              	.LVL15:
 184              		.loc 2 121 0
 185 0000 80630024 		lwz 3,36(3)
 186              	.LVL16:
 187 0004 4E800020 		blr
 188              		.cfi_endproc
 189              	.LFE1389:
 190              		.size	_ZN10GuiElement8GetWidthEv, .-_ZN10GuiElement8GetWidthEv
 191              		.section	.text._ZN10GuiElement9GetHeightEv,"axG",@progbits,_ZN10GuiElement9GetHeightEv,comdat
 192              		.align 2
 193              		.weak	_ZN10GuiElement9GetHeightEv
 194              		.type	_ZN10GuiElement9GetHeightEv, @function
 195              	_ZN10GuiElement9GetHeightEv:
 196              	.LFB1390:
 197              		.loc 2 124 0
 198              		.cfi_startproc
 199              	.LVL17:
 200              		.loc 2 124 0
 201 0000 80630028 		lwz 3,40(3)
 202              	.LVL18:
 203 0004 4E800020 		blr
 204              		.cfi_endproc
 205              	.LFE1390:
 206              		.size	_ZN10GuiElement9GetHeightEv, .-_ZN10GuiElement9GetHeightEv
 207              		.section	.text._ZN10GuiElement7SetSizeEii,"axG",@progbits,_ZN10GuiElement7SetSizeEii,comdat
 208              		.align 2
 209              		.weak	_ZN10GuiElement7SetSizeEii
 210              		.type	_ZN10GuiElement7SetSizeEii, @function
 211              	_ZN10GuiElement7SetSizeEii:
 212              	.LFB1391:
 213              		.loc 2 128 0
 214              		.cfi_startproc
 215              	.LVL19:
 216              		.loc 2 130 0
 217 0000 90830024 		stw 4,36(3)
 218              		.loc 2 132 0
 219              		.loc 2 131 0
 220 0004 90A30028 		stw 5,40(3)
 221              		.loc 2 132 0
 222 0008 4E800020 		blr
 223              		.cfi_endproc
 224              	.LFE1391:
 225              		.size	_ZN10GuiElement7SetSizeEii, .-_ZN10GuiElement7SetSizeEii
 226              		.section	.text._ZN10GuiElement10SetVisibleEb,"axG",@progbits,_ZN10GuiElement10SetVisibleEb,comdat
 227              		.align 2
 228              		.weak	_ZN10GuiElement10SetVisibleEb
 229              		.type	_ZN10GuiElement10SetVisibleEb, @function
 230              	_ZN10GuiElement10SetVisibleEb:
 231              	.LFB1392:
 232              		.loc 2 135 0
 233              		.cfi_startproc
 234              		.cfi_personality 0,__gxx_personality_v0
 235              		.cfi_lsda 0,.LLSDA1392
 236              	.LVL20:
 237 0000 7C0802A6 		mflr 0
 238 0004 9421FFE0 		stwu 1,-32(1)
 239              	.LCFI2:
 240              		.cfi_def_cfa_offset 32
 241              		.cfi_register 65, 0
 242 0008 9361000C 		stw 27,12(1)
 243              	.LBB2881:
 244              	.LBB2882:
 245              		.loc 1 2270 0
 246 000c 3B630004 		addi 27,3,4
 247              		.cfi_offset 27, -20
 248              	.LBE2882:
 249              	.LBE2881:
 250              		.loc 2 135 0
 251 0010 90010024 		stw 0,36(1)
 252 0014 93C10018 		stw 30,24(1)
 253 0018 7C7E1B78 		mr 30,3
 254              		.cfi_offset 30, -8
 255              		.cfi_offset 65, 4
 256              	.LBB2905:
 257              	.LBB2899:
 258              	.LBB2883:
 259              	.LBB2884:
 260              		.loc 1 338 0
 261 001c 81230004 		lwz 9,4(3)
 262 0020 7F63DB78 		mr 3,27
 263              	.LVL21:
 264              	.LBE2884:
 265              	.LBE2883:
 266              	.LBE2899:
 267              	.LBE2905:
 268              		.loc 2 135 0
 269 0024 93810010 		stw 28,16(1)
 270 0028 7C9C2378 		mr 28,4
 271              		.cfi_offset 28, -16
 272              	.LBB2906:
 273              	.LBB2900:
 274              	.LBB2888:
 275              	.LBB2885:
 276              		.loc 1 338 0
 277 002c 80090008 		lwz 0,8(9)
 278              	.LBE2885:
 279              	.LBE2888:
 280              	.LBE2900:
 281              	.LBE2906:
 282              		.loc 2 135 0
 283 0030 93A10014 		stw 29,20(1)
 284              	.LBB2907:
 285              		.file 3 "d:/Projects/SaveGameManager/savegame-manager-gx/trunk/source/Controls/Task.cpp"
 286              		.loc 3 73 0
 287 0034 7FDDF378 		mr 29,30
 288              		.cfi_offset 29, -12
 289              	.LBE2907:
 290              		.loc 2 135 0
 291 0038 93E1001C 		stw 31,28(1)
 292              	.LBB2908:
 293              	.LBB2901:
 294              	.LBB2889:
 295              	.LBB2886:
 296              		.loc 1 338 0
 297 003c 7C0903A6 		mtctr 0
 298              	.LBE2886:
 299              	.LBE2889:
 300              	.LBE2901:
 301              	.LBE2908:
 302              		.loc 2 137 0
 303 0040 989E001D 		stb 4,29(30)
 304              	.LVL22:
 305              	.LEHB0:
 306              	.LBB2909:
 307              	.LBB2902:
 308              	.LBB2890:
 309              	.LBB2887:
 310              		.loc 1 338 0
 311              		.cfi_offset 31, -4
 312 0044 4E800421 		bctrl
 313              	.LEHE0:
 314              	.LVL23:
 315              	.LBE2887:
 316              	.LBE2890:
 317              	.LBE2902:
 318              		.loc 3 73 0
 319 0048 87FD0008 		lwzu 31,8(29)
 320              	.LVL24:
 321              	.LBB2903:
 322              		.loc 1 2274 0
 323 004c 7F9FE800 		cmpw 7,31,29
 324 0050 419E002C 		beq- 7,.L17
 325              	.LVL25:
 326              	.L24:
 327              		.loc 1 2279 0
 328 0054 807F0008 		lwz 3,8(31)
 329 0058 7FC4F378 		mr 4,30
 330 005c 7F85E378 		mr 5,28
 331              	.LBB2891:
 332              	.LBB2892:
 333              		.file 4 "d:\\devkitpro\\devkitppc\\bin\\../lib/gcc/powerpc-eabi/4.6.3/../../../../powerpc-eabi/inc
 334              		.loc 4 234 0
 335 0060 83FF0000 		lwz 31,0(31)
 336              	.LVL26:
 337              	.LBE2892:
 338              	.LBE2891:
 339              		.loc 1 2279 0
 340 0064 81230000 		lwz 9,0(3)
 341 0068 8009000C 		lwz 0,12(9)
 342 006c 7C0903A6 		mtctr 0
 343              	.LEHB1:
 344 0070 4E800421 		bctrl
 345              	.LEHE1:
 346              	.LVL27:
 347              		.loc 1 2274 0
 348 0074 7F9DF800 		cmpw 7,29,31
 349 0078 409EFFDC 		bne+ 7,.L24
 350              	.LVL28:
 351              	.L17:
 352              	.LBB2893:
 353              	.LBB2894:
 354              	.LBB2895:
 355              		.loc 1 343 0
 356 007c 813E0004 		lwz 9,4(30)
 357 0080 7F63DB78 		mr 3,27
 358 0084 8009000C 		lwz 0,12(9)
 359 0088 7C0903A6 		mtctr 0
 360              	.LEHB2:
 361 008c 4E800421 		bctrl
 362              	.LEHE2:
 363              	.LBE2895:
 364              	.LBE2894:
 365              	.LBE2893:
 366              	.LBE2903:
 367              	.LBE2909:
 368              		.loc 2 139 0
 369 0090 80010024 		lwz 0,36(1)
 370 0094 8361000C 		lwz 27,12(1)
 371              	.LVL29:
 372 0098 7C0803A6 		mtlr 0
 373 009c 83810010 		lwz 28,16(1)
 374              	.LVL30:
 375 00a0 83A10014 		lwz 29,20(1)
 376 00a4 83C10018 		lwz 30,24(1)
 377              	.LVL31:
 378 00a8 83E1001C 		lwz 31,28(1)
 379              	.LVL32:
 380 00ac 38210020 		addi 1,1,32
 381              		.cfi_remember_state
 382              	.LCFI3:
 383              		.cfi_def_cfa_offset 0
 384              		.cfi_restore 31
 385              		.cfi_restore 30
 386              		.cfi_restore 29
 387              		.cfi_restore 28
 388              		.cfi_restore 27
 389 00b0 4E800020 		blr
 390              	.LVL33:
 391              	.L23:
 392              	.LCFI4:
 393              		.cfi_restore_state
 394              	.LBB2910:
 395              	.LBB2904:
 396              	.LBB2896:
 397              	.LBB2897:
 398              	.LBB2898:
 399              		.loc 1 343 0
 400 00b4 813E0004 		lwz 9,4(30)
 401 00b8 7C7F1B78 		mr 31,3
 402              	.LVL34:
 403 00bc 7F63DB78 		mr 3,27
 404 00c0 8009000C 		lwz 0,12(9)
 405 00c4 7C0903A6 		mtctr 0
 406 00c8 4E800421 		bctrl
 407 00cc 7FE3FB78 		mr 3,31
 408              	.LEHB3:
 409 00d0 48000001 		bl _Unwind_Resume
 410              	.LEHE3:
 411              	.LBE2898:
 412              	.LBE2897:
 413              	.LBE2896:
 414              	.LBE2904:
 415              	.LBE2910:
 416              		.cfi_endproc
 417              	.LFE1392:
 418              		.globl __gxx_personality_v0
 419              		.section	.gcc_except_table,"a",@progbits
 420              	.LLSDA1392:
 421 0000 FF       		.byte	0xff
 422 0001 FF       		.byte	0xff
 423 0002 01       		.byte	0x1
 424 0003 13       		.uleb128 .LLSDACSE1392-.LLSDACSB1392
 425              	.LLSDACSB1392:
 426 0004 44       		.uleb128 .LEHB0-.LFB1392
 427 0005 04       		.uleb128 .LEHE0-.LEHB0
 428 0006 00       		.uleb128 0
 429 0007 00       		.uleb128 0
 430 0008 70       		.uleb128 .LEHB1-.LFB1392
 431 0009 04       		.uleb128 .LEHE1-.LEHB1
 432 000a B401     		.uleb128 .L23-.LFB1392
 433 000c 00       		.uleb128 0
 434 000d 8C01     		.uleb128 .LEHB2-.LFB1392
 435 000f 04       		.uleb128 .LEHE2-.LEHB2
 436 0010 00       		.uleb128 0
 437 0011 00       		.uleb128 0
 438 0012 D001     		.uleb128 .LEHB3-.LFB1392
 439 0014 04       		.uleb128 .LEHE3-.LEHB3
 440 0015 00       		.uleb128 0
 441 0016 00       		.uleb128 0
 442              	.LLSDACSE1392:
 443              		.section	.text._ZN10GuiElement10SetVisibleEb,"axG",@progbits,_ZN10GuiElement10SetVisibleEb,comdat
 444              		.size	_ZN10GuiElement10SetVisibleEb, .-_ZN10GuiElement10SetVisibleEb
 445              		.section	.text._ZN10GuiElement9IsVisibleEv,"axG",@progbits,_ZN10GuiElement9IsVisibleEv,comdat
 446              		.align 2
 447              		.weak	_ZN10GuiElement9IsVisibleEv
 448              		.type	_ZN10GuiElement9IsVisibleEv, @function
 449              	_ZN10GuiElement9IsVisibleEv:
 450              	.LFB1393:
 451              		.loc 2 142 0
 452              		.cfi_startproc
 453              	.LVL35:
 454              		.loc 2 142 0
 455 0000 8863001D 		lbz 3,29(3)
 456              	.LVL36:
 457 0004 4E800020 		blr
 458              		.cfi_endproc
 459              	.LFE1393:
 460              		.size	_ZN10GuiElement9IsVisibleEv, .-_ZN10GuiElement9IsVisibleEv
 461              		.section	.text._ZN10GuiElement12IsSelectableEv,"axG",@progbits,_ZN10GuiElement12IsSelectableEv,com
 462              		.align 2
 463              		.weak	_ZN10GuiElement12IsSelectableEv
 464              		.type	_ZN10GuiElement12IsSelectableEv, @function
 465              	_ZN10GuiElement12IsSelectableEv:
 466              	.LFB1394:
 467              		.loc 2 145 0
 468              		.cfi_startproc
 469              	.LVL37:
 470              		.loc 2 149 0
 471 0000 80030048 		lwz 0,72(3)
 472 0004 39200000 		li 9,0
 473 0008 2F800004 		cmpwi 7,0,4
 474 000c 419E0010 		beq- 7,.L27
 475              		.loc 2 149 0 is_stmt 0 discriminator 1
 476 0010 2F800002 		cmpwi 7,0,2
 477 0014 419E0008 		beq- 7,.L27
 478              		.loc 2 149 0 discriminator 3
 479 0018 8923001E 		lbz 9,30(3)
 480              	.L27:
 481              		.loc 2 150 0 is_stmt 1 discriminator 5
 482 001c 7D234B78 		mr 3,9
 483              	.LVL38:
 484 0020 4E800020 		blr
 485              		.cfi_endproc
 486              	.LFE1394:
 487              		.size	_ZN10GuiElement12IsSelectableEv, .-_ZN10GuiElement12IsSelectableEv
 488              		.section	.text._ZN10GuiElement11IsClickableEv,"axG",@progbits,_ZN10GuiElement11IsClickableEv,comda
 489              		.align 2
 490              		.weak	_ZN10GuiElement11IsClickableEv
 491              		.type	_ZN10GuiElement11IsClickableEv, @function
 492              	_ZN10GuiElement11IsClickableEv:
 493              	.LFB1395:
 494              		.loc 2 153 0
 495              		.cfi_startproc
 496              	.LVL39:
 497              		.loc 2 158 0
 498 0000 80030048 		lwz 0,72(3)
 499 0004 39200000 		li 9,0
 500 0008 2F800004 		cmpwi 7,0,4
 501 000c 419E0018 		beq- 7,.L31
 502              		.loc 2 158 0 is_stmt 0 discriminator 1
 503 0010 2F800002 		cmpwi 7,0,2
 504 0014 419E0010 		beq- 7,.L31
 505              		.loc 2 158 0 discriminator 3
 506 0018 2F800003 		cmpwi 7,0,3
 507 001c 419E0008 		beq- 7,.L31
 508              		.loc 2 158 0 discriminator 4
 509 0020 8923001F 		lbz 9,31(3)
 510              	.L31:
 511              		.loc 2 159 0 is_stmt 1 discriminator 6
 512 0024 7D234B78 		mr 3,9
 513              	.LVL40:
 514 0028 4E800020 		blr
 515              		.cfi_endproc
 516              	.LFE1395:
 517              		.size	_ZN10GuiElement11IsClickableEv, .-_ZN10GuiElement11IsClickableEv
 518              		.section	.text._ZN10GuiElement10IsHoldableEv,"axG",@progbits,_ZN10GuiElement10IsHoldableEv,comdat
 519              		.align 2
 520              		.weak	_ZN10GuiElement10IsHoldableEv
 521              		.type	_ZN10GuiElement10IsHoldableEv, @function
 522              	_ZN10GuiElement10IsHoldableEv:
 523              	.LFB1396:
 524              		.loc 2 162 0
 525              		.cfi_startproc
 526              	.LVL41:
 527              		.loc 2 162 0
 528 0000 81230048 		lwz 9,72(3)
 529 0004 38000000 		li 0,0
 530 0008 2F890004 		cmpwi 7,9,4
 531 000c 419E0008 		beq- 7,.L36
 532              		.loc 2 162 0 is_stmt 0 discriminator 1
 533 0010 88030020 		lbz 0,32(3)
 534              	.L36:
 535              		.loc 2 162 0 discriminator 4
 536 0014 7C030378 		mr 3,0
 537              	.LVL42:
 538 0018 4E800020 		blr
 539              		.cfi_endproc
 540              	.LFE1396:
 541              		.size	_ZN10GuiElement10IsHoldableEv, .-_ZN10GuiElement10IsHoldableEv
 542              		.section	.text._ZN10GuiElement13SetSelectableEb,"axG",@progbits,_ZN10GuiElement13SetSelectableEb,c
 543              		.align 2
 544              		.weak	_ZN10GuiElement13SetSelectableEb
 545              		.type	_ZN10GuiElement13SetSelectableEb, @function
 546              	_ZN10GuiElement13SetSelectableEb:
 547              	.LFB1397:
 548              		.loc 2 165 0 is_stmt 1
 549              		.cfi_startproc
 550              	.LVL43:
 551              		.loc 2 165 0
 552 0000 9883001E 		stb 4,30(3)
 553 0004 4E800020 		blr
 554              		.cfi_endproc
 555              	.LFE1397:
 556              		.size	_ZN10GuiElement13SetSelectableEb, .-_ZN10GuiElement13SetSelectableEb
 557              		.section	.text._ZN10GuiElement12SetClickableEb,"axG",@progbits,_ZN10GuiElement12SetClickableEb,com
 558              		.align 2
 559              		.weak	_ZN10GuiElement12SetClickableEb
 560              		.type	_ZN10GuiElement12SetClickableEb, @function
 561              	_ZN10GuiElement12SetClickableEb:
 562              	.LFB1398:
 563              		.loc 2 168 0
 564              		.cfi_startproc
 565              	.LVL44:
 566              		.loc 2 168 0
 567 0000 9883001F 		stb 4,31(3)
 568 0004 4E800020 		blr
 569              		.cfi_endproc
 570              	.LFE1398:
 571              		.size	_ZN10GuiElement12SetClickableEb, .-_ZN10GuiElement12SetClickableEb
 572              		.section	.text._ZN10GuiElement11SetHoldableEb,"axG",@progbits,_ZN10GuiElement11SetHoldableEb,comda
 573              		.align 2
 574              		.weak	_ZN10GuiElement11SetHoldableEb
 575              		.type	_ZN10GuiElement11SetHoldableEb, @function
 576              	_ZN10GuiElement11SetHoldableEb:
 577              	.LFB1399:
 578              		.loc 2 171 0
 579              		.cfi_startproc
 580              	.LVL45:
 581              		.loc 2 171 0
 582 0000 98830020 		stb 4,32(3)
 583 0004 4E800020 		blr
 584              		.cfi_endproc
 585              	.LFE1399:
 586              		.size	_ZN10GuiElement11SetHoldableEb, .-_ZN10GuiElement11SetHoldableEb
 587              		.section	.text._ZN10GuiElement8GetStateEv,"axG",@progbits,_ZN10GuiElement8GetStateEv,comdat
 588              		.align 2
 589              		.weak	_ZN10GuiElement8GetStateEv
 590              		.type	_ZN10GuiElement8GetStateEv, @function
 591              	_ZN10GuiElement8GetStateEv:
 592              	.LFB1400:
 593              		.loc 2 178 0
 594              		.cfi_startproc
 595              	.LVL46:
 596              		.loc 2 178 0
 597 0000 80630048 		lwz 3,72(3)
 598              	.LVL47:
 599 0004 4E800020 		blr
 600              		.cfi_endproc
 601              	.LFE1400:
 602              		.size	_ZN10GuiElement8GetStateEv, .-_ZN10GuiElement8GetStateEv
 603              		.section	.text._ZN10GuiElement12GetStateChanEv,"axG",@progbits,_ZN10GuiElement12GetStateChanEv,com
 604              		.align 2
 605              		.weak	_ZN10GuiElement12GetStateChanEv
 606              		.type	_ZN10GuiElement12GetStateChanEv, @function
 607              	_ZN10GuiElement12GetStateChanEv:
 608              	.LFB1401:
 609              		.loc 2 181 0
 610              		.cfi_startproc
 611              	.LVL48:
 612              		.loc 2 181 0
 613 0000 8063004C 		lwz 3,76(3)
 614              	.LVL49:
 615 0004 4E800020 		blr
 616              		.cfi_endproc
 617              	.LFE1401:
 618              		.size	_ZN10GuiElement12GetStateChanEv, .-_ZN10GuiElement12GetStateChanEv
 619              		.section	.text._ZN10GuiElement8SetAlphaEi,"axG",@progbits,_ZN10GuiElement8SetAlphaEi,comdat
 620              		.align 2
 621              		.weak	_ZN10GuiElement8SetAlphaEi
 622              		.type	_ZN10GuiElement8SetAlphaEi, @function
 623              	_ZN10GuiElement8SetAlphaEi:
 624              	.LFB1403:
 625              		.loc 2 190 0
 626              		.cfi_startproc
 627              	.LVL50:
 628              		.loc 2 190 0
 629 0000 90830038 		stw 4,56(3)
 630 0004 4E800020 		blr
 631              		.cfi_endproc
 632              	.LFE1403:
 633              		.size	_ZN10GuiElement8SetAlphaEi, .-_ZN10GuiElement8SetAlphaEi
 634              		.section	.text._ZN10GuiElement8GetAlphaEv,"axG",@progbits,_ZN10GuiElement8GetAlphaEv,comdat
 635              		.align 2
 636              		.weak	_ZN10GuiElement8GetAlphaEv
 637              		.type	_ZN10GuiElement8GetAlphaEv, @function
 638              	_ZN10GuiElement8GetAlphaEv:
 639              	.LFB1404:
 640              		.loc 2 194 0
 641              		.cfi_startproc
 642              	.LVL51:
 643 0000 7C0802A6 		mflr 0
 644 0004 9421FFD8 		stwu 1,-40(1)
 645              	.LCFI5:
 646              		.cfi_def_cfa_offset 40
 647              		.cfi_register 65, 0
 648 0008 93E10024 		stw 31,36(1)
 649 000c 9001002C 		stw 0,44(1)
 650              	.LBB2911:
 651              		.loc 2 198 0
 652 0010 83E3006C 		lwz 31,108(3)
 653              		.cfi_offset 65, 4
 654              		.cfi_offset 31, -4
 655 0014 2F9F0000 		cmpwi 7,31,0
 656 0018 419C0094 		blt- 7,.L47
 657              	.L45:
 658              	.LVL52:
 659              		.loc 2 203 0
 660 001c 80630060 		lwz 3,96(3)
 661              	.LVL53:
 662 0020 2F830000 		cmpwi 7,3,0
 663 0024 419E0070 		beq- 7,.L46
 664              		.loc 2 204 0
 665 0028 81230000 		lwz 9,0(3)
 666 002c 6FFF8000 		xoris 31,31,0x8000
 667              	.LVL54:
 668 0030 80090064 		lwz 0,100(9)
 669 0034 7C0903A6 		mtctr 0
 670 0038 4E800421 		bctrl
 671 003c 3C004330 		lis 0,0x4330
 672 0040 6C638000 		xoris 3,3,0x8000
 673 0044 90010010 		stw 0,16(1)
 674 0048 90610014 		stw 3,20(1)
 675 004c 3D200000 		lis 9,.LC1@ha
 676 0050 C0090000 		lfs 0,.LC1@l(9)
 677 0054 3D200000 		lis 9,.LC2@ha
 678 0058 C9A10010 		lfd 13,16(1)
 679 005c C1890004 		lfs 12,.LC2@l(9)
 680 0060 39210018 		addi 9,1,24
 681 0064 FDAD0028 		fsub 13,13,0
 682 0068 93E1000C 		stw 31,12(1)
 683 006c 90010008 		stw 0,8(1)
 684 0070 FDA06818 		frsp 13,13
 685 0074 EDAD6024 		fdivs 13,13,12
 686 0078 C9810008 		lfd 12,8(1)
 687 007c FC0C0028 		fsub 0,12,0
 688 0080 FC000018 		frsp 0,0
 689 0084 EC000372 		fmuls 0,0,13
 690 0088 FC00001E 		fctiwz 0,0
 691 008c 7C004FAE 		stfiwx 0,0,9
 692 0090 83E10018 		lwz 31,24(1)
 693              	.LVL55:
 694              	.L46:
 695              	.LBE2911:
 696              		.loc 2 207 0
 697 0094 8001002C 		lwz 0,44(1)
 698 0098 7FE3FB78 		mr 3,31
 699 009c 83E10024 		lwz 31,36(1)
 700              	.LVL56:
 701 00a0 7C0803A6 		mtlr 0
 702 00a4 38210028 		addi 1,1,40
 703              		.cfi_remember_state
 704              	.LCFI6:
 705              		.cfi_def_cfa_offset 0
 706              		.cfi_restore 31
 707 00a8 4E800020 		blr
 708              	.LVL57:
 709              	.L47:
 710              	.LCFI7:
 711              		.cfi_restore_state
 712              	.LBB2912:
 713              		.loc 2 201 0
 714 00ac 83E30038 		lwz 31,56(3)
 715              	.LVL58:
 716 00b0 4BFFFF6C 		b .L45
 717              	.LBE2912:
 718              		.cfi_endproc
 719              	.LFE1404:
 720              		.size	_ZN10GuiElement8GetAlphaEv, .-_ZN10GuiElement8GetAlphaEv
 721              		.section	.text._ZN10GuiElement8SetScaleEf,"axG",@progbits,_ZN10GuiElement8SetScaleEf,comdat
 722              		.align 2
 723              		.weak	_ZN10GuiElement8SetScaleEf
 724              		.type	_ZN10GuiElement8SetScaleEf, @function
 725              	_ZN10GuiElement8SetScaleEf:
 726              	.LFB1405:
 727              		.loc 2 210 0
 728              		.cfi_startproc
 729              	.LVL59:
 730              		.loc 2 212 0
 731 0000 D023003C 		stfs 1,60(3)
 732              		.loc 2 214 0
 733              		.loc 2 213 0
 734 0004 D0230040 		stfs 1,64(3)
 735              		.loc 2 214 0
 736 0008 4E800020 		blr
 737              		.cfi_endproc
 738              	.LFE1405:
 739              		.size	_ZN10GuiElement8SetScaleEf, .-_ZN10GuiElement8SetScaleEf
 740              		.section	.text._ZN10GuiElement9SetScaleXEf,"axG",@progbits,_ZN10GuiElement9SetScaleXEf,comdat
 741              		.align 2
 742              		.weak	_ZN10GuiElement9SetScaleXEf
 743              		.type	_ZN10GuiElement9SetScaleXEf, @function
 744              	_ZN10GuiElement9SetScaleXEf:
 745              	.LFB1406:
 746              		.loc 2 217 0
 747              		.cfi_startproc
 748              	.LVL60:
 749              		.loc 2 217 0
 750 0000 D023003C 		stfs 1,60(3)
 751 0004 4E800020 		blr
 752              		.cfi_endproc
 753              	.LFE1406:
 754              		.size	_ZN10GuiElement9SetScaleXEf, .-_ZN10GuiElement9SetScaleXEf
 755              		.section	.text._ZN10GuiElement9SetScaleYEf,"axG",@progbits,_ZN10GuiElement9SetScaleYEf,comdat
 756              		.align 2
 757              		.weak	_ZN10GuiElement9SetScaleYEf
 758              		.type	_ZN10GuiElement9SetScaleYEf, @function
 759              	_ZN10GuiElement9SetScaleYEf:
 760              	.LFB1407:
 761              		.loc 2 220 0
 762              		.cfi_startproc
 763              	.LVL61:
 764              		.loc 2 220 0
 765 0000 D0230040 		stfs 1,64(3)
 766 0004 4E800020 		blr
 767              		.cfi_endproc
 768              	.LFE1407:
 769              		.size	_ZN10GuiElement9SetScaleYEf, .-_ZN10GuiElement9SetScaleYEf
 770              		.section	.text._ZN10GuiElement8GetScaleEv,"axG",@progbits,_ZN10GuiElement8GetScaleEv,comdat
 771              		.align 2
 772              		.weak	_ZN10GuiElement8GetScaleEv
 773              		.type	_ZN10GuiElement8GetScaleEv, @function
 774              	_ZN10GuiElement8GetScaleEv:
 775              	.LFB1408:
 776              		.loc 2 223 0
 777              		.cfi_startproc
 778              	.LVL62:
 779 0000 7C0802A6 		mflr 0
 780 0004 9421FFF0 		stwu 1,-16(1)
 781              	.LCFI8:
 782              		.cfi_def_cfa_offset 16
 783              		.cfi_register 65, 0
 784              	.LBB2913:
 785              		.loc 2 225 0
 786 0008 3D200000 		lis 9,.LC3@ha
 787              	.LBE2913:
 788              		.loc 2 223 0
 789 000c DBE10008 		stfd 31,8(1)
 790 0010 90010014 		stw 0,20(1)
 791              	.LBB2914:
 792              		.loc 2 225 0
 793 0014 C0030040 		lfs 0,64(3)
 794 0018 C3E3003C 		lfs 31,60(3)
 795              		.cfi_offset 65, 4
 796              		.cfi_offset 63, -8
 797              		.loc 2 227 0
 798 001c 81630060 		lwz 11,96(3)
 799              		.loc 2 225 0
 800 0020 EFFF002A 		fadds 31,31,0
 801 0024 C0090008 		lfs 0,.LC3@l(9)
 802              		.loc 2 227 0
 803 0028 2F8B0000 		cmpwi 7,11,0
 804              		.loc 2 225 0
 805 002c EFFF0032 		fmuls 31,31,0
 806 0030 C0030070 		lfs 0,112(3)
 807 0034 EFFF0032 		fmuls 31,31,0
 808              	.LVL63:
 809              		.loc 2 227 0
 810 0038 419E001C 		beq- 7,.L52
 811              		.loc 2 228 0
 812 003c 812B0000 		lwz 9,0(11)
 813 0040 7D635B78 		mr 3,11
 814              	.LVL64:
 815 0044 80090074 		lwz 0,116(9)
 816 0048 7C0903A6 		mtctr 0
 817 004c 4E800421 		bctrl
 818 0050 EFFF0072 		fmuls 31,31,1
 819              	.LVL65:
 820              	.L52:
 821              	.LBE2914:
 822              		.loc 2 231 0
 823 0054 80010014 		lwz 0,20(1)
 824 0058 FC20F890 		fmr 1,31
 825 005c CBE10008 		lfd 31,8(1)
 826              	.LVL66:
 827 0060 7C0803A6 		mtlr 0
 828 0064 38210010 		addi 1,1,16
 829              	.LCFI9:
 830              		.cfi_def_cfa_offset 0
 831              		.cfi_restore 63
 832 0068 4E800020 		blr
 833              		.cfi_endproc
 834              	.LFE1408:
 835              		.size	_ZN10GuiElement8GetScaleEv, .-_ZN10GuiElement8GetScaleEv
 836              		.section	.text._ZN10GuiElement9GetScaleXEv,"axG",@progbits,_ZN10GuiElement9GetScaleXEv,comdat
 837              		.align 2
 838              		.weak	_ZN10GuiElement9GetScaleXEv
 839              		.type	_ZN10GuiElement9GetScaleXEv, @function
 840              	_ZN10GuiElement9GetScaleXEv:
 841              	.LFB1409:
 842              		.loc 2 234 0
 843              		.cfi_startproc
 844              	.LVL67:
 845 0000 7C0802A6 		mflr 0
 846 0004 9421FFF0 		stwu 1,-16(1)
 847              	.LCFI10:
 848              		.cfi_def_cfa_offset 16
 849              		.cfi_register 65, 0
 850 0008 DBE10008 		stfd 31,8(1)
 851 000c 90010014 		stw 0,20(1)
 852              	.LBB2915:
 853              		.loc 2 238 0
 854 0010 81630060 		lwz 11,96(3)
 855              		.loc 2 236 0
 856 0014 C3E3003C 		lfs 31,60(3)
 857              		.cfi_offset 65, 4
 858              		.cfi_offset 63, -8
 859              		.loc 2 238 0
 860 0018 2F8B0000 		cmpwi 7,11,0
 861              		.loc 2 236 0
 862 001c C0030070 		lfs 0,112(3)
 863 0020 EFFF0032 		fmuls 31,31,0
 864              	.LVL68:
 865              		.loc 2 238 0
 866 0024 419E001C 		beq- 7,.L54
 867              		.loc 2 239 0
 868 0028 812B0000 		lwz 9,0(11)
 869 002c 7D635B78 		mr 3,11
 870              	.LVL69:
 871 0030 80090078 		lwz 0,120(9)
 872 0034 7C0903A6 		mtctr 0
 873 0038 4E800421 		bctrl
 874 003c EFFF0072 		fmuls 31,31,1
 875              	.LVL70:
 876              	.L54:
 877              	.LBE2915:
 878              		.loc 2 242 0
 879 0040 80010014 		lwz 0,20(1)
 880 0044 FC20F890 		fmr 1,31
 881 0048 CBE10008 		lfd 31,8(1)
 882              	.LVL71:
 883 004c 7C0803A6 		mtlr 0
 884 0050 38210010 		addi 1,1,16
 885              	.LCFI11:
 886              		.cfi_def_cfa_offset 0
 887              		.cfi_restore 63
 888 0054 4E800020 		blr
 889              		.cfi_endproc
 890              	.LFE1409:
 891              		.size	_ZN10GuiElement9GetScaleXEv, .-_ZN10GuiElement9GetScaleXEv
 892              		.section	.text._ZN10GuiElement9GetScaleYEv,"axG",@progbits,_ZN10GuiElement9GetScaleYEv,comdat
 893              		.align 2
 894              		.weak	_ZN10GuiElement9GetScaleYEv
 895              		.type	_ZN10GuiElement9GetScaleYEv, @function
 896              	_ZN10GuiElement9GetScaleYEv:
 897              	.LFB1410:
 898              		.loc 2 245 0
 899              		.cfi_startproc
 900              	.LVL72:
 901 0000 7C0802A6 		mflr 0
 902 0004 9421FFF0 		stwu 1,-16(1)
 903              	.LCFI12:
 904              		.cfi_def_cfa_offset 16
 905              		.cfi_register 65, 0
 906 0008 DBE10008 		stfd 31,8(1)
 907 000c 90010014 		stw 0,20(1)
 908              	.LBB2916:
 909              		.loc 2 249 0
 910 0010 81630060 		lwz 11,96(3)
 911              		.loc 2 247 0
 912 0014 C3E30040 		lfs 31,64(3)
 913              		.cfi_offset 65, 4
 914              		.cfi_offset 63, -8
 915              		.loc 2 249 0
 916 0018 2F8B0000 		cmpwi 7,11,0
 917              		.loc 2 247 0
 918 001c C0030070 		lfs 0,112(3)
 919 0020 EFFF0032 		fmuls 31,31,0
 920              	.LVL73:
 921              		.loc 2 249 0
 922 0024 419E001C 		beq- 7,.L56
 923              		.loc 2 250 0
 924 0028 812B0000 		lwz 9,0(11)
 925 002c 7D635B78 		mr 3,11
 926              	.LVL74:
 927 0030 8009007C 		lwz 0,124(9)
 928 0034 7C0903A6 		mtctr 0
 929 0038 4E800421 		bctrl
 930 003c EFFF0072 		fmuls 31,31,1
 931              	.LVL75:
 932              	.L56:
 933              	.LBE2916:
 934              		.loc 2 253 0
 935 0040 80010014 		lwz 0,20(1)
 936 0044 FC20F890 		fmr 1,31
 937 0048 CBE10008 		lfd 31,8(1)
 938              	.LVL76:
 939 004c 7C0803A6 		mtlr 0
 940 0050 38210010 		addi 1,1,16
 941              	.LCFI13:
 942              		.cfi_def_cfa_offset 0
 943              		.cfi_restore 63
 944 0054 4E800020 		blr
 945              		.cfi_endproc
 946              	.LFE1410:
 947              		.size	_ZN10GuiElement9GetScaleYEv, .-_ZN10GuiElement9GetScaleYEv
 948              		.section	.text._ZN10GuiElement6RumbleEv,"axG",@progbits,_ZN10GuiElement6RumbleEv,comdat
 949              		.align 2
 950              		.weak	_ZN10GuiElement6RumbleEv
 951              		.type	_ZN10GuiElement6RumbleEv, @function
 952              	_ZN10GuiElement6RumbleEv:
 953              	.LFB1411:
 954              		.loc 2 256 0
 955              		.cfi_startproc
 956              	.LVL77:
 957              		.loc 2 256 0
 958 0000 8863001C 		lbz 3,28(3)
 959              	.LVL78:
 960 0004 4E800020 		blr
 961              		.cfi_endproc
 962              	.LFE1411:
 963              		.size	_ZN10GuiElement6RumbleEv, .-_ZN10GuiElement6RumbleEv
 964              		.section	.text._ZN10GuiElement9SetRumbleEb,"axG",@progbits,_ZN10GuiElement9SetRumbleEb,comdat
 965              		.align 2
 966              		.weak	_ZN10GuiElement9SetRumbleEb
 967              		.type	_ZN10GuiElement9SetRumbleEb, @function
 968              	_ZN10GuiElement9SetRumbleEb:
 969              	.LFB1412:
 970              		.loc 2 259 0
 971              		.cfi_startproc
 972              	.LVL79:
 973              		.loc 2 259 0
 974 0000 9883001C 		stb 4,28(3)
 975 0004 4E800020 		blr
 976              		.cfi_endproc
 977              	.LFE1412:
 978              		.size	_ZN10GuiElement9SetRumbleEb, .-_ZN10GuiElement9SetRumbleEb
 979              		.section	.text._ZN10GuiElement13SetEffectGrowEv,"axG",@progbits,_ZN10GuiElement13SetEffectGrowEv,c
 980              		.align 2
 981              		.weak	_ZN10GuiElement13SetEffectGrowEv
 982              		.type	_ZN10GuiElement13SetEffectGrowEv, @function
 983              	_ZN10GuiElement13SetEffectGrowEv:
 984              	.LFB1413:
 985              		.loc 2 271 0
 986              		.cfi_startproc
 987              	.LVL80:
 988 0000 7C0802A6 		mflr 0
 989 0004 9421FFF8 		stwu 1,-8(1)
 990              	.LCFI14:
 991              		.cfi_def_cfa_offset 8
 992              		.cfi_register 65, 0
 993 0008 81230000 		lwz 9,0(3)
 994 000c 38800100 		li 4,256
 995 0010 38A00004 		li 5,4
 996 0014 38C0006E 		li 6,110
 997 0018 9001000C 		stw 0,12(1)
 998              		.loc 2 271 0
 999 001c 8009008C 		lwz 0,140(9)
 1000              		.cfi_offset 65, 4
 1001 0020 7C0903A6 		mtctr 0
 1002 0024 4E800421 		bctrl
 1003              	.LVL81:
 1004 0028 8001000C 		lwz 0,12(1)
 1005 002c 38210008 		addi 1,1,8
 1006              	.LCFI15:
 1007              		.cfi_def_cfa_offset 0
 1008 0030 7C0803A6 		mtlr 0
 1009 0034 4E800020 		blr
 1010              		.cfi_endproc
 1011              	.LFE1413:
 1012              		.size	_ZN10GuiElement13SetEffectGrowEv, .-_ZN10GuiElement13SetEffectGrowEv
 1013              		.section	.text._ZNK10GuiElement9GetEffectEv,"axG",@progbits,_ZNK10GuiElement9GetEffectEv,comdat
 1014              		.align 2
 1015              		.weak	_ZNK10GuiElement9GetEffectEv
 1016              		.type	_ZNK10GuiElement9GetEffectEv, @function
 1017              	_ZNK10GuiElement9GetEffectEv:
 1018              	.LFB1414:
 1019              		.loc 2 276 0
 1020              		.cfi_startproc
 1021              	.LVL82:
 1022              		.loc 2 276 0
 1023 0000 80630078 		lwz 3,120(3)
 1024              	.LVL83:
 1025 0004 4E800020 		blr
 1026              		.cfi_endproc
 1027              	.LFE1414:
 1028              		.size	_ZNK10GuiElement9GetEffectEv, .-_ZNK10GuiElement9GetEffectEv
 1029              		.section	.text._ZNK10GuiElement10IsAnimatedEv,"axG",@progbits,_ZNK10GuiElement10IsAnimatedEv,comda
 1030              		.align 2
 1031              		.weak	_ZNK10GuiElement10IsAnimatedEv
 1032              		.type	_ZNK10GuiElement10IsAnimatedEv, @function
 1033              	_ZNK10GuiElement10IsAnimatedEv:
 1034              	.LFB1415:
 1035              		.loc 2 278 0
 1036              		.cfi_startproc
 1037              	.LVL84:
 1038 0000 7C0802A6 		mflr 0
 1039 0004 9421FFF8 		stwu 1,-8(1)
 1040              	.LCFI16:
 1041              		.cfi_def_cfa_offset 8
 1042              		.cfi_register 65, 0
 1043 0008 9001000C 		stw 0,12(1)
 1044              		.loc 2 278 0
 1045 000c 81230000 		lwz 9,0(3)
 1046 0010 80090098 		lwz 0,152(9)
 1047              		.cfi_offset 65, 4
 1048 0014 7C0903A6 		mtctr 0
 1049 0018 4E800421 		bctrl
 1050              	.LVL85:
 1051 001c 7C60FE70 		srawi 0,3,31
 1052 0020 7C630050 		subf 3,3,0
 1053 0024 8001000C 		lwz 0,12(1)
 1054 0028 54630FFE 		srwi 3,3,31
 1055 002c 7C0803A6 		mtlr 0
 1056 0030 38210008 		addi 1,1,8
 1057              	.LCFI17:
 1058              		.cfi_def_cfa_offset 0
 1059 0034 4E800020 		blr
 1060              		.cfi_endproc
 1061              	.LFE1415:
 1062              		.size	_ZNK10GuiElement10IsAnimatedEv, .-_ZNK10GuiElement10IsAnimatedEv
 1063              		.section	.text._ZN10GuiElement8IsInsideEii,"axG",@progbits,_ZN10GuiElement8IsInsideEii,comdat
 1064              		.align 2
 1065              		.weak	_ZN10GuiElement8IsInsideEii
 1066              		.type	_ZN10GuiElement8IsInsideEii, @function
 1067              	_ZN10GuiElement8IsInsideEii:
 1068              	.LFB1417:
 1069              		.loc 2 285 0
 1070              		.cfi_startproc
 1071              	.LVL86:
 1072 0000 7C0802A6 		mflr 0
 1073 0004 9421FFE8 		stwu 1,-24(1)
 1074              	.LCFI18:
 1075              		.cfi_def_cfa_offset 24
 1076              		.cfi_register 65, 0
 1077 0008 93810008 		stw 28,8(1)
 1078 000c 7CBC2B78 		mr 28,5
 1079              		.cfi_offset 28, -16
 1080 0010 9001001C 		stw 0,28(1)
 1081 0014 93A1000C 		stw 29,12(1)
 1082              		.loc 2 290 0
 1083 0018 3BA00000 		li 29,0
 1084              		.cfi_offset 29, -12
 1085              		.cfi_offset 65, 4
 1086              		.loc 2 287 0
 1087 001c 81230000 		lwz 9,0(3)
 1088              		.loc 2 285 0
 1089 0020 93C10010 		stw 30,16(1)
 1090 0024 7C9E2378 		mr 30,4
 1091              		.cfi_offset 30, -8
 1092              		.loc 2 287 0
 1093 0028 80090010 		lwz 0,16(9)
 1094              		.loc 2 285 0
 1095 002c 93E10014 		stw 31,20(1)
 1096              		.loc 2 285 0
 1097 0030 7C7F1B78 		mr 31,3
 1098              		.cfi_offset 31, -4
 1099              		.loc 2 287 0
 1100 0034 7C0903A6 		mtctr 0
 1101 0038 4E800421 		bctrl
 1102              	.LVL87:
 1103              		.loc 2 290 0
 1104 003c 7F83F000 		cmpw 7,3,30
 1105 0040 419C0028 		blt- 7,.L67
 1106              	.L63:
 1107              		.loc 2 291 0 discriminator 6
 1108 0044 8001001C 		lwz 0,28(1)
 1109 0048 7FA3EB78 		mr 3,29
 1110 004c 83810008 		lwz 28,8(1)
 1111              	.LVL88:
 1112 0050 7C0803A6 		mtlr 0
 1113 0054 83A1000C 		lwz 29,12(1)
 1114 0058 83C10010 		lwz 30,16(1)
 1115              	.LVL89:
 1116 005c 83E10014 		lwz 31,20(1)
 1117              	.LVL90:
 1118 0060 38210018 		addi 1,1,24
 1119              		.cfi_remember_state
 1120              	.LCFI19:
 1121              		.cfi_def_cfa_offset 0
 1122              		.cfi_restore 31
 1123              		.cfi_restore 30
 1124              		.cfi_restore 29
 1125              		.cfi_restore 28
 1126 0064 4E800020 		blr
 1127              	.LVL91:
 1128              	.L67:
 1129              	.LCFI20:
 1130              		.cfi_restore_state
 1131              		.loc 2 288 0 discriminator 1
 1132 0068 813F0000 		lwz 9,0(31)
 1133 006c 7FE3FB78 		mr 3,31
 1134 0070 80090010 		lwz 0,16(9)
 1135 0074 7C0903A6 		mtctr 0
 1136 0078 4E800421 		bctrl
 1137              		.loc 2 290 0 discriminator 1
 1138 007c 801F0024 		lwz 0,36(31)
 1139 0080 7C030214 		add 0,3,0
 1140 0084 7F9E0000 		cmpw 7,30,0
 1141 0088 409CFFBC 		bge+ 7,.L63
 1142              		.loc 2 289 0 discriminator 3
 1143 008c 813F0000 		lwz 9,0(31)
 1144 0090 7FE3FB78 		mr 3,31
 1145 0094 80090014 		lwz 0,20(9)
 1146 0098 7C0903A6 		mtctr 0
 1147 009c 4E800421 		bctrl
 1148              		.loc 2 290 0 discriminator 3
 1149 00a0 7F83E000 		cmpw 7,3,28
 1150 00a4 409CFFA0 		bge+ 7,.L63
 1151              		.loc 2 290 0 is_stmt 0 discriminator 4
 1152 00a8 813F0000 		lwz 9,0(31)
 1153 00ac 7FE3FB78 		mr 3,31
 1154 00b0 80090014 		lwz 0,20(9)
 1155 00b4 7C0903A6 		mtctr 0
 1156 00b8 4E800421 		bctrl
 1157 00bc 801F0028 		lwz 0,40(31)
 1158 00c0 7C030214 		add 0,3,0
 1159              		.loc 2 285 0 is_stmt 1 discriminator 4
 1160 00c4 7F9C0000 		cmpw 7,28,0
 1161 00c8 7FA00026 		mfcr 29
 1162 00cc 57BDEFFE 		rlwinm 29,29,29,1
 1163 00d0 4BFFFF74 		b .L63
 1164              		.cfi_endproc
 1165              	.LFE1417:
 1166              		.size	_ZN10GuiElement8IsInsideEii, .-_ZN10GuiElement8IsInsideEii
 1167              		.section	.text._ZN10GuiElement11SetPositionEii,"axG",@progbits,_ZN10GuiElement11SetPositionEii,com
 1168              		.align 2
 1169              		.weak	_ZN10GuiElement11SetPositionEii
 1170              		.type	_ZN10GuiElement11SetPositionEii, @function
 1171              	_ZN10GuiElement11SetPositionEii:
 1172              	.LFB1418:
 1173              		.loc 2 295 0
 1174              		.cfi_startproc
 1175              	.LVL92:
 1176              		.loc 2 297 0
 1177 0000 9083002C 		stw 4,44(3)
 1178              		.loc 2 299 0
 1179              		.loc 2 298 0
 1180 0004 90A30030 		stw 5,48(3)
 1181              		.loc 2 299 0
 1182 0008 4E800020 		blr
 1183              		.cfi_endproc
 1184              	.LFE1418:
 1185              		.size	_ZN10GuiElement11SetPositionEii, .-_ZN10GuiElement11SetPositionEii
 1186              		.section	.text._ZN10GuiElement11SetPositionEiii,"axG",@progbits,_ZN10GuiElement11SetPositionEiii,c
 1187              		.align 2
 1188              		.weak	_ZN10GuiElement11SetPositionEiii
 1189              		.type	_ZN10GuiElement11SetPositionEiii, @function
 1190              	_ZN10GuiElement11SetPositionEiii:
 1191              	.LFB1419:
 1192              		.loc 2 304 0
 1193              		.cfi_startproc
 1194              	.LVL93:
 1195              		.loc 2 306 0
 1196 0000 9083002C 		stw 4,44(3)
 1197              		.loc 2 309 0
 1198              		.loc 2 307 0
 1199 0004 90A30030 		stw 5,48(3)
 1200              		.loc 2 308 0
 1201 0008 90C30034 		stw 6,52(3)
 1202              		.loc 2 309 0
 1203 000c 4E800020 		blr
 1204              		.cfi_endproc
 1205              	.LFE1419:
 1206              		.size	_ZN10GuiElement11SetPositionEiii, .-_ZN10GuiElement11SetPositionEiii
 1207              		.section	.text._ZN10GuiElement11GetSelectedEv,"axG",@progbits,_ZN10GuiElement11GetSelectedEv,comda
 1208              		.align 2
 1209              		.weak	_ZN10GuiElement11GetSelectedEv
 1210              		.type	_ZN10GuiElement11GetSelectedEv, @function
 1211              	_ZN10GuiElement11GetSelectedEv:
 1212              	.LFB1420:
 1213              		.loc 2 312 0
 1214              		.cfi_startproc
 1215              	.LVL94:
 1216              		.loc 2 312 0
 1217 0000 3860FFFF 		li 3,-1
 1218              	.LVL95:
 1219 0004 4E800020 		blr
 1220              		.cfi_endproc
 1221              	.LFE1420:
 1222              		.size	_ZN10GuiElement11GetSelectedEv, .-_ZN10GuiElement11GetSelectedEv
 1223              		.section	.text._ZN10GuiElement12SetAlignmentEi,"axG",@progbits,_ZN10GuiElement12SetAlignmentEi,com
 1224              		.align 2
 1225              		.weak	_ZN10GuiElement12SetAlignmentEi
 1226              		.type	_ZN10GuiElement12SetAlignmentEi, @function
 1227              	_ZN10GuiElement12SetAlignmentEi:
 1228              	.LFB1421:
 1229              		.loc 2 316 0
 1230              		.cfi_startproc
 1231              	.LVL96:
 1232              		.loc 2 316 0
 1233 0000 90830044 		stw 4,68(3)
 1234 0004 4E800020 		blr
 1235              		.cfi_endproc
 1236              	.LFE1421:
 1237              		.size	_ZN10GuiElement12SetAlignmentEi, .-_ZN10GuiElement12SetAlignmentEi
 1238              		.section	.text._ZNK10GuiElement12GetAlignmentEv,"axG",@progbits,_ZNK10GuiElement12GetAlignmentEv,c
 1239              		.align 2
 1240              		.weak	_ZNK10GuiElement12GetAlignmentEv
 1241              		.type	_ZNK10GuiElement12GetAlignmentEv, @function
 1242              	_ZNK10GuiElement12GetAlignmentEv:
 1243              	.LFB1422:
 1244              		.loc 2 318 0
 1245              		.cfi_startproc
 1246              	.LVL97:
 1247              		.loc 2 318 0
 1248 0000 80630044 		lwz 3,68(3)
 1249              	.LVL98:
 1250 0004 4E800020 		blr
 1251              		.cfi_endproc
 1252              	.LFE1422:
 1253              		.size	_ZNK10GuiElement12GetAlignmentEv, .-_ZNK10GuiElement12GetAlignmentEv
 1254              		.section	".text"
 1255              		.align 2
 1256              		.globl _ZN4Task13OnButtonClickEP9GuiButtoniRK6_POINT
 1257              		.type	_ZN4Task13OnButtonClickEP9GuiButtoniRK6_POINT, @function
 1258              	_ZN4Task13OnButtonClickEP9GuiButtoniRK6_POINT:
 1259              	.LFB1478:
 1260              		.loc 3 70 0
 1261              		.cfi_startproc
 1262              		.cfi_personality 0,__gxx_personality_v0
 1263              		.cfi_lsda 0,.LLSDA1478
 1264              	.LVL99:
 1265 0000 7C0802A6 		mflr 0
 1266 0004 9421FFE0 		stwu 1,-32(1)
 1267              	.LCFI21:
 1268              		.cfi_def_cfa_offset 32
 1269              		.cfi_register 65, 0
 1270 0008 9361000C 		stw 27,12(1)
 1271              	.LBB2917:
 1272              	.LBB2918:
 1273              		.loc 1 2270 0
 1274 000c 3B630154 		addi 27,3,340
 1275              		.cfi_offset 27, -20
 1276              	.LBE2918:
 1277              	.LBE2917:
 1278              		.loc 3 70 0
 1279 0010 90010024 		stw 0,36(1)
 1280 0014 93410008 		stw 26,8(1)
 1281 0018 7C9A2378 		mr 26,4
 1282              		.cfi_offset 26, -24
 1283              		.cfi_offset 65, 4
 1284              	.LBB2944:
 1285              	.LBB2937:
 1286              	.LBB2919:
 1287              	.LBB2920:
 1288              		.loc 1 338 0
 1289 001c 81230154 		lwz 9,340(3)
 1290              	.LBE2920:
 1291              	.LBE2919:
 1292              	.LBE2937:
 1293              	.LBE2944:
 1294              		.loc 3 70 0
 1295 0020 93810010 		stw 28,16(1)
 1296              	.LBB2945:
 1297              	.LBB2938:
 1298              	.LBB2925:
 1299              	.LBB2921:
 1300              		.loc 1 338 0
 1301 0024 80090008 		lwz 0,8(9)
 1302              	.LBE2921:
 1303              	.LBE2925:
 1304              	.LBE2938:
 1305              	.LBE2945:
 1306              		.loc 3 70 0
 1307 0028 93A10014 		stw 29,20(1)
 1308 002c 93C10018 		stw 30,24(1)
 1309              	.LBB2946:
 1310              	.LBB2939:
 1311              	.LBB2926:
 1312              	.LBB2922:
 1313              		.loc 1 338 0
 1314 0030 7C0903A6 		mtctr 0
 1315              	.LBE2922:
 1316              	.LBE2926:
 1317              	.LBE2939:
 1318              	.LBE2946:
 1319              		.loc 3 70 0
 1320 0034 7C7E1B78 		mr 30,3
 1321              		.cfi_offset 30, -8
 1322              		.cfi_offset 29, -12
 1323              		.cfi_offset 28, -16
 1324 0038 93E1001C 		stw 31,28(1)
 1325              	.LBB2947:
 1326              	.LBB2940:
 1327              	.LBB2927:
 1328              	.LBB2923:
 1329              		.loc 1 338 0
 1330 003c 7F63DB78 		mr 3,27
 1331              	.LVL100:
 1332              	.LBE2923:
 1333              	.LBE2927:
 1334              	.LBE2940:
 1335              		.loc 3 73 0
 1336 0040 7FDDF378 		mr 29,30
 1337              	.LBE2947:
 1338              		.loc 3 71 0
 1339 0044 839E0198 		lwz 28,408(30)
 1340              	.LVL101:
 1341              	.LEHB4:
 1342              	.LBB2948:
 1343              	.LBB2941:
 1344              	.LBB2928:
 1345              	.LBB2924:
 1346              		.loc 1 338 0
 1347              		.cfi_offset 31, -4
 1348 0048 4E800421 		bctrl
 1349              	.LEHE4:
 1350              	.LVL102:
 1351              	.LBE2924:
 1352              	.LBE2928:
 1353              	.LBE2941:
 1354              		.loc 3 73 0
 1355 004c 87FD0158 		lwzu 31,344(29)
 1356              	.LVL103:
 1357              	.LBB2942:
 1358              		.loc 1 2274 0
 1359 0050 7F9FE800 		cmpw 7,31,29
 1360 0054 419E002C 		beq- 7,.L74
 1361              	.LVL104:
 1362              	.L81:
 1363              		.loc 1 2279 0
 1364 0058 807F0008 		lwz 3,8(31)
 1365 005c 7FC4F378 		mr 4,30
 1366 0060 7F85E378 		mr 5,28
 1367              	.LBB2929:
 1368              	.LBB2930:
 1369              		.loc 4 234 0
 1370 0064 83FF0000 		lwz 31,0(31)
 1371              	.LVL105:
 1372              	.LBE2930:
 1373              	.LBE2929:
 1374              		.loc 1 2279 0
 1375 0068 81230000 		lwz 9,0(3)
 1376 006c 8009000C 		lwz 0,12(9)
 1377 0070 7C0903A6 		mtctr 0
 1378              	.LEHB5:
 1379 0074 4E800421 		bctrl
 1380              	.LEHE5:
 1381              	.LVL106:
 1382              		.loc 1 2274 0
 1383 0078 7F9DF800 		cmpw 7,29,31
 1384 007c 409EFFDC 		bne+ 7,.L81
 1385              	.LVL107:
 1386              	.L74:
 1387              	.LBB2931:
 1388              	.LBB2932:
 1389              	.LBB2933:
 1390              		.loc 1 343 0
 1391 0080 813E0154 		lwz 9,340(30)
 1392 0084 7F63DB78 		mr 3,27
 1393 0088 8009000C 		lwz 0,12(9)
 1394 008c 7C0903A6 		mtctr 0
 1395              	.LEHB6:
 1396 0090 4E800421 		bctrl
 1397              	.LBE2933:
 1398              	.LBE2932:
 1399              	.LBE2931:
 1400              	.LBE2942:
 1401              	.LBE2948:
 1402              		.loc 3 72 0
 1403 0094 813A0000 		lwz 9,0(26)
 1404 0098 7F43D378 		mr 3,26
 1405 009c 8009005C 		lwz 0,92(9)
 1406 00a0 7C0903A6 		mtctr 0
 1407 00a4 4E800421 		bctrl
 1408              	.LEHE6:
 1409              		.loc 3 73 0
 1410 00a8 80010024 		lwz 0,36(1)
 1411 00ac 83410008 		lwz 26,8(1)
 1412              	.LVL108:
 1413 00b0 7C0803A6 		mtlr 0
 1414 00b4 8361000C 		lwz 27,12(1)
 1415              	.LVL109:
 1416 00b8 83810010 		lwz 28,16(1)
 1417              	.LVL110:
 1418 00bc 83A10014 		lwz 29,20(1)
 1419 00c0 83C10018 		lwz 30,24(1)
 1420              	.LVL111:
 1421 00c4 83E1001C 		lwz 31,28(1)
 1422              	.LVL112:
 1423 00c8 38210020 		addi 1,1,32
 1424              		.cfi_remember_state
 1425              	.LCFI22:
 1426              		.cfi_def_cfa_offset 0
 1427              		.cfi_restore 31
 1428              		.cfi_restore 30
 1429              		.cfi_restore 29
 1430              		.cfi_restore 28
 1431              		.cfi_restore 27
 1432              		.cfi_restore 26
 1433 00cc 4E800020 		blr
 1434              	.LVL113:
 1435              	.L80:
 1436              	.LCFI23:
 1437              		.cfi_restore_state
 1438              	.LBB2949:
 1439              	.LBB2943:
 1440              	.LBB2934:
 1441              	.LBB2935:
 1442              	.LBB2936:
 1443              		.loc 1 343 0
 1444 00d0 813E0154 		lwz 9,340(30)
 1445 00d4 7C7F1B78 		mr 31,3
 1446              	.LVL114:
 1447 00d8 7F63DB78 		mr 3,27
 1448 00dc 8009000C 		lwz 0,12(9)
 1449 00e0 7C0903A6 		mtctr 0
 1450 00e4 4E800421 		bctrl
 1451 00e8 7FE3FB78 		mr 3,31
 1452              	.LEHB7:
 1453 00ec 48000001 		bl _Unwind_Resume
 1454              	.LEHE7:
 1455              	.LBE2936:
 1456              	.LBE2935:
 1457              	.LBE2934:
 1458              	.LBE2943:
 1459              	.LBE2949:
 1460              		.cfi_endproc
 1461              	.LFE1478:
 1462              		.section	.gcc_except_table
 1463              	.LLSDA1478:
 1464 0017 FF       		.byte	0xff
 1465 0018 FF       		.byte	0xff
 1466 0019 01       		.byte	0x1
 1467 001a 13       		.uleb128 .LLSDACSE1478-.LLSDACSB1478
 1468              	.LLSDACSB1478:
 1469 001b 48       		.uleb128 .LEHB4-.LFB1478
 1470 001c 04       		.uleb128 .LEHE4-.LEHB4
 1471 001d 00       		.uleb128 0
 1472 001e 00       		.uleb128 0
 1473 001f 74       		.uleb128 .LEHB5-.LFB1478
 1474 0020 04       		.uleb128 .LEHE5-.LEHB5
 1475 0021 D001     		.uleb128 .L80-.LFB1478
 1476 0023 00       		.uleb128 0
 1477 0024 9001     		.uleb128 .LEHB6-.LFB1478
 1478 0026 18       		.uleb128 .LEHE6-.LEHB6
 1479 0027 00       		.uleb128 0
 1480 0028 00       		.uleb128 0
 1481 0029 EC01     		.uleb128 .LEHB7-.LFB1478
 1482 002b 04       		.uleb128 .LEHE7-.LEHB7
 1483 002c 00       		.uleb128 0
 1484 002d 00       		.uleb128 0
 1485              	.LLSDACSE1478:
 1486              		.section	".text"
 1487              		.size	_ZN4Task13OnButtonClickEP9GuiButtoniRK6_POINT, .-_ZN4Task13OnButtonClickEP9GuiButtoniRK6_POI
 1488              		.section	.text._ZN7sigslot12_signal_baseINS_15single_threadedEED2Ev,"axG",@progbits,_ZN7sigslot12_
 1489              		.align 2
 1490              		.weak	_ZN7sigslot12_signal_baseINS_15single_threadedEED2Ev
 1491              		.type	_ZN7sigslot12_signal_baseINS_15single_threadedEED2Ev, @function
 1492              	_ZN7sigslot12_signal_baseINS_15single_threadedEED2Ev:
 1493              	.LFB1541:
 1494              		.loc 1 466 0
 1495              		.cfi_startproc
 1496              	.LVL115:
 1497              	.LBB2950:
 1498              	.LBB2951:
 1499              	.LBB2952:
 1500              	.LBB2953:
 1501              		.loc 1 105 0
 1502 0000 3D200000 		lis 9,_ZTVN7sigslot15single_threadedE+8@ha
 1503              	.LBE2953:
 1504              	.LBE2952:
 1505              	.LBE2951:
 1506              	.LBE2950:
 1507              		.loc 1 466 0
 1508              	.LBB2957:
 1509              	.LBB2956:
 1510              	.LBB2955:
 1511              	.LBB2954:
 1512              		.loc 1 105 0
 1513 0004 38090008 		la 0,_ZTVN7sigslot15single_threadedE+8@l(9)
 1514 0008 90030000 		stw 0,0(3)
 1515              	.LBE2954:
 1516              	.LBE2955:
 1517              	.LBE2956:
 1518              	.LBE2957:
 1519              		.loc 1 466 0
 1520 000c 4E800020 		blr
 1521              		.cfi_endproc
 1522              	.LFE1541:
 1523              		.size	_ZN7sigslot12_signal_baseINS_15single_threadedEED2Ev, .-_ZN7sigslot12_signal_baseINS_15singl
 1524              		.section	.text._ZN7sigslot17_connection_base3IP9GuiButtoniRK6_POINTNS_15single_threadedEED2Ev,"axG
 1525              		.align 2
 1526              		.weak	_ZN7sigslot17_connection_base3IP9GuiButtoniRK6_POINTNS_15single_threadedEED2Ev
 1527              		.type	_ZN7sigslot17_connection_base3IP9GuiButtoniRK6_POINTNS_15single_threadedEED2Ev, @function
 1528              	_ZN7sigslot17_connection_base3IP9GuiButtoniRK6_POINTNS_15single_threadedEED2Ev:
 1529              	.LFB1704:
 1530              		.loc 1 387 0
 1531              		.cfi_startproc
 1532              	.LVL116:
 1533              	.LBB2958:
 1534              		.loc 1 387 0
 1535 0000 3D200000 		lis 9,_ZTVN7sigslot17_connection_base3IP9GuiButtoniRK6_POINTNS_15single_threadedEEE+8@ha
 1536              	.LBE2958:
 1537              	.LBB2959:
 1538 0004 38090008 		la 0,_ZTVN7sigslot17_connection_base3IP9GuiButtoniRK6_POINTNS_15single_threadedEEE+8@l(9)
 1539 0008 90030000 		stw 0,0(3)
 1540              	.LBE2959:
 1541 000c 4E800020 		blr
 1542              		.cfi_endproc
 1543              	.LFE1704:
 1544              		.size	_ZN7sigslot17_connection_base3IP9GuiButtoniRK6_POINTNS_15single_threadedEED2Ev, .-_ZN7sigslo
 1545              		.section	.text._ZN7sigslot12_connection3I4TaskP9GuiButtoniRK6_POINTNS_15single_threadedEED2Ev,"axG
 1546              		.align 2
 1547              		.weak	_ZN7sigslot12_connection3I4TaskP9GuiButtoniRK6_POINTNS_15single_threadedEED2Ev
 1548              		.type	_ZN7sigslot12_connection3I4TaskP9GuiButtoniRK6_POINTNS_15single_threadedEED2Ev, @function
 1549              	_ZN7sigslot12_connection3I4TaskP9GuiButtoniRK6_POINTNS_15single_threadedEED2Ev:
 1550              	.LFB2040:
 1551              		.loc 1 1783 0
 1552              		.cfi_startproc
 1553              	.LVL117:
 1554              	.LBB2960:
 1555              	.LBB2961:
 1556              	.LBB2962:
 1557              	.LBB2963:
 1558              		.loc 1 387 0
 1559 0000 3D200000 		lis 9,_ZTVN7sigslot17_connection_base3IP9GuiButtoniRK6_POINTNS_15single_threadedEEE+8@ha
 1560              	.LBE2963:
 1561              	.LBE2962:
 1562              	.LBE2961:
 1563              	.LBE2960:
 1564              		.loc 1 1786 0
 1565              	.LBB2967:
 1566              	.LBB2966:
 1567              	.LBB2965:
 1568              	.LBB2964:
 1569              		.loc 1 387 0
 1570 0004 38090008 		la 0,_ZTVN7sigslot17_connection_base3IP9GuiButtoniRK6_POINTNS_15single_threadedEEE+8@l(9)
 1571 0008 90030000 		stw 0,0(3)
 1572              	.LBE2964:
 1573              	.LBE2965:
 1574              	.LBE2966:
 1575              	.LBE2967:
 1576              		.loc 1 1786 0
 1577 000c 4E800020 		blr
 1578              		.cfi_endproc
 1579              	.LFE2040:
 1580              		.size	_ZN7sigslot12_connection3I4TaskP9GuiButtoniRK6_POINTNS_15single_threadedEED2Ev, .-_ZN7sigslo
 1581              		.section	.text._ZNK7sigslot12_connection3I4TaskP9GuiButtoniRK6_POINTNS_15single_threadedEE7getdest
 1582              		.align 2
 1583              		.weak	_ZNK7sigslot12_connection3I4TaskP9GuiButtoniRK6_POINTNS_15single_threadedEE7getdestEv
 1584              		.type	_ZNK7sigslot12_connection3I4TaskP9GuiButtoniRK6_POINTNS_15single_threadedEE7getdestEv, @func
 1585              	_ZNK7sigslot12_connection3I4TaskP9GuiButtoniRK6_POINTNS_15single_threadedEE7getdestEv:
 1586              	.LFB2043:
 1587              		.loc 1 1804 0
 1588              		.cfi_startproc
 1589              	.LVL118:
 1590              		.loc 1 1806 0
 1591 0000 81230004 		lwz 9,4(3)
 1592 0004 38600000 		li 3,0
 1593              	.LVL119:
 1594 0008 2F890000 		cmpwi 7,9,0
 1595 000c 4D9E0020 		beqlr- 7
 1596              		.loc 1 1806 0 is_stmt 0 discriminator 1
 1597 0010 38690138 		addi 3,9,312
 1598              		.loc 1 1807 0 is_stmt 1 discriminator 1
 1599 0014 4E800020 		blr
 1600              		.cfi_endproc
 1601              	.LFE2043:
 1602              		.size	_ZNK7sigslot12_connection3I4TaskP9GuiButtoniRK6_POINTNS_15single_threadedEE7getdestEv, .-_ZN
 1603              		.section	.text._ZN7sigslot12_connection3I4TaskP9GuiButtoniRK6_POINTNS_15single_threadedEE4emitES3_
 1604              		.align 2
 1605              		.weak	_ZN7sigslot12_connection3I4TaskP9GuiButtoniRK6_POINTNS_15single_threadedEE4emitES3_iS6_
 1606              		.type	_ZN7sigslot12_connection3I4TaskP9GuiButtoniRK6_POINTNS_15single_threadedEE4emitES3_iS6_, @fu
 1607              	_ZN7sigslot12_connection3I4TaskP9GuiButtoniRK6_POINTNS_15single_threadedEE4emitES3_iS6_:
 1608              	.LFB2044:
 1609              		.loc 1 1799 0
 1610              		.cfi_startproc
 1611              	.LVL120:
 1612 0000 7C0802A6 		mflr 0
 1613 0004 9421FFF8 		stwu 1,-8(1)
 1614              	.LCFI24:
 1615              		.cfi_def_cfa_offset 8
 1616              		.cfi_register 65, 0
 1617 0008 9001000C 		stw 0,12(1)
 1618              		.loc 1 1801 0
 1619 000c 80030008 		lwz 0,8(3)
 1620              		.cfi_offset 65, 4
 1621 0010 81630004 		lwz 11,4(3)
 1622 0014 70090001 		andi. 9,0,1
 1623 0018 8123000C 		lwz 9,12(3)
 1624 001c 40820020 		bne- 0,.L94
 1625 0020 7C0903A6 		mtctr 0
 1626 0024 7C6B4A14 		add 3,11,9
 1627              	.LVL121:
 1628 0028 4E800421 		bctrl
 1629              	.LVL122:
 1630              		.loc 1 1802 0
 1631 002c 8001000C 		lwz 0,12(1)
 1632 0030 38210008 		addi 1,1,8
 1633              		.cfi_remember_state
 1634              	.LCFI25:
 1635              		.cfi_def_cfa_offset 0
 1636 0034 7C0803A6 		mtlr 0
 1637 0038 4E800020 		blr
 1638              	.LVL123:
 1639              	.L94:
 1640              	.LCFI26:
 1641              		.cfi_restore_state
 1642              		.loc 1 1801 0 discriminator 1
 1643 003c 7D4B482E 		lwzx 10,11,9
 1644 0040 7C6B4A14 		add 3,11,9
 1645              	.LVL124:
 1646 0044 7D2A0214 		add 9,10,0
 1647 0048 8009FFFF 		lwz 0,-1(9)
 1648 004c 7C0903A6 		mtctr 0
 1649 0050 4E800421 		bctrl
 1650              	.LVL125:
 1651              		.loc 1 1802 0 discriminator 1
 1652 0054 8001000C 		lwz 0,12(1)
 1653 0058 38210008 		addi 1,1,8
 1654              	.LCFI27:
 1655              		.cfi_def_cfa_offset 0
 1656 005c 7C0803A6 		mtlr 0
 1657 0060 4E800020 		blr
 1658              		.cfi_endproc
 1659              	.LFE2044:
 1660              		.size	_ZN7sigslot12_connection3I4TaskP9GuiButtoniRK6_POINTNS_15single_threadedEE4emitES3_iS6_, .-_
 1661              		.section	.text._ZN7sigslot12_connection3I4TaskP9GuiButtoniRK6_POINTNS_15single_threadedEE9duplicat
 1662              		.align 2
 1663              		.weak	_ZN7sigslot12_connection3I4TaskP9GuiButtoniRK6_POINTNS_15single_threadedEE9duplicateEPNS_9ha
 1664              		.type	_ZN7sigslot12_connection3I4TaskP9GuiButtoniRK6_POINTNS_15single_threadedEE9duplicateEPNS_9ha
 1665              	_ZN7sigslot12_connection3I4TaskP9GuiButtoniRK6_POINTNS_15single_threadedEE9duplicateEPNS_9has_slots
 1666              	.LFB2052:
 1667              		.loc 1 1794 0
 1668              		.cfi_startproc
 1669              	.LVL126:
 1670 0000 9421FFF0 		stwu 1,-16(1)
 1671              	.LCFI28:
 1672              		.cfi_def_cfa_offset 16
 1673 0004 7C0802A6 		mflr 0
 1674 0008 93C10008 		stw 30,8(1)
 1675 000c 7C9E2378 		mr 30,4
 1676              		.cfi_offset 30, -8
 1677              		.cfi_register 65, 0
 1678 0010 93E1000C 		stw 31,12(1)
 1679 0014 7C7F1B78 		mr 31,3
 1680              		.cfi_offset 31, -4
 1681              		.loc 1 1796 0
 1682 0018 38600010 		li 3,16
 1683              	.LVL127:
 1684              		.loc 1 1794 0
 1685 001c 90010014 		stw 0,20(1)
 1686              		.loc 1 1796 0
 1687              		.cfi_offset 65, 4
 1688 0020 48000001 		bl _Znwj
 1689              	.LVL128:
 1690 0024 2F9E0000 		cmpwi 7,30,0
 1691 0028 38000000 		li 0,0
 1692 002c 419E0008 		beq- 7,.L97
 1693              		.loc 1 1796 0 is_stmt 0 discriminator 1
 1694 0030 381EFEC8 		addi 0,30,-312
 1695              	.L97:
 1696              	.LVL129:
 1697              		.loc 1 1796 0 discriminator 3
 1698 0034 817F0008 		lwz 11,8(31)
 1699              	.LVL130:
 1700              	.LBB2968:
 1701              	.LBB2969:
 1702              		.loc 1 1778 0 is_stmt 1 discriminator 3
 1703 0038 3D400000 		lis 10,_ZTVN7sigslot12_connection3I4TaskP9GuiButtoniRK6_POINTNS_15single_threadedEEE+8@ha
 1704              	.LBE2969:
 1705              	.LBE2968:
 1706              		.loc 1 1796 0 discriminator 3
 1707 003c 813F000C 		lwz 9,12(31)
 1708              	.LVL131:
 1709              	.LBB2972:
 1710              	.LBB2970:
 1711              		.loc 1 1778 0 discriminator 3
 1712 0040 394A0008 		la 10,_ZTVN7sigslot12_connection3I4TaskP9GuiButtoniRK6_POINTNS_15single_threadedEEE+8@l(10)
 1713              		.loc 1 1780 0 discriminator 3
 1714 0044 91630008 		stw 11,8(3)
 1715 0048 9123000C 		stw 9,12(3)
 1716              		.loc 1 1779 0 discriminator 3
 1717 004c 90030004 		stw 0,4(3)
 1718              	.LBE2970:
 1719              	.LBE2972:
 1720              		.loc 1 1797 0 discriminator 3
 1721 0050 80010014 		lwz 0,20(1)
 1722              	.LVL132:
 1723 0054 83C10008 		lwz 30,8(1)
 1724              	.LVL133:
 1725 0058 7C0803A6 		mtlr 0
 1726 005c 83E1000C 		lwz 31,12(1)
 1727              	.LVL134:
 1728              	.LBB2973:
 1729              	.LBB2971:
 1730              		.loc 1 1778 0 discriminator 3
 1731 0060 91430000 		stw 10,0(3)
 1732              	.LBE2971:
 1733              	.LBE2973:
 1734              		.loc 1 1797 0 discriminator 3
 1735 0064 38210010 		addi 1,1,16
 1736              	.LCFI29:
 1737              		.cfi_def_cfa_offset 0
 1738              		.cfi_restore 31
 1739              		.cfi_restore 30
 1740 0068 4E800020 		blr
 1741              		.cfi_endproc
 1742              	.LFE2052:
 1743              		.size	_ZN7sigslot12_connection3I4TaskP9GuiButtoniRK6_POINTNS_15single_threadedEE9duplicateEPNS_9ha
 1744              		.section	.text._ZN7sigslot12_connection3I4TaskP9GuiButtoniRK6_POINTNS_15single_threadedEE5cloneEv,
 1745              		.align 2
 1746              		.weak	_ZN7sigslot12_connection3I4TaskP9GuiButtoniRK6_POINTNS_15single_threadedEE5cloneEv
 1747              		.type	_ZN7sigslot12_connection3I4TaskP9GuiButtoniRK6_POINTNS_15single_threadedEE5cloneEv, @functio
 1748              	_ZN7sigslot12_connection3I4TaskP9GuiButtoniRK6_POINTNS_15single_threadedEE5cloneEv:
 1749              	.LFB2045:
 1750              		.loc 1 1789 0
 1751              		.cfi_startproc
 1752              	.LVL135:
 1753 0000 9421FFF0 		stwu 1,-16(1)
 1754              	.LCFI30:
 1755              		.cfi_def_cfa_offset 16
 1756 0004 7C0802A6 		mflr 0
 1757 0008 93E1000C 		stw 31,12(1)
 1758 000c 7C7F1B78 		mr 31,3
 1759              		.cfi_offset 31, -4
 1760              		.cfi_register 65, 0
 1761              		.loc 1 1791 0
 1762 0010 38600010 		li 3,16
 1763              	.LVL136:
 1764              		.loc 1 1789 0
 1765 0014 90010014 		stw 0,20(1)
 1766              		.loc 1 1791 0
 1767              		.cfi_offset 65, 4
 1768 0018 48000001 		bl _Znwj
 1769              		.loc 3 73 0
 1770 001c 801F0004 		lwz 0,4(31)
 1771              	.LVL137:
 1772              	.LBB2974:
 1773              	.LBB2975:
 1774              		.loc 1 1767 0
 1775 0020 3D600000 		lis 11,_ZTVN7sigslot12_connection3I4TaskP9GuiButtoniRK6_POINTNS_15single_threadedEEE+8@ha
 1776 0024 396B0008 		la 11,_ZTVN7sigslot12_connection3I4TaskP9GuiButtoniRK6_POINTNS_15single_threadedEEE+8@l(11)
 1777 0028 90030004 		stw 0,4(3)
 1778 002c 91630000 		stw 11,0(3)
 1779 0030 815F0008 		lwz 10,8(31)
 1780 0034 817F000C 		lwz 11,12(31)
 1781 0038 91430008 		stw 10,8(3)
 1782 003c 9163000C 		stw 11,12(3)
 1783              	.LBE2975:
 1784              	.LBE2974:
 1785              		.loc 1 1792 0
 1786 0040 80010014 		lwz 0,20(1)
 1787 0044 83E1000C 		lwz 31,12(1)
 1788              	.LVL138:
 1789 0048 7C0803A6 		mtlr 0
 1790 004c 38210010 		addi 1,1,16
 1791              	.LCFI31:
 1792              		.cfi_def_cfa_offset 0
 1793              		.cfi_restore 31
 1794 0050 4E800020 		blr
 1795              		.cfi_endproc
 1796              	.LFE2045:
 1797              		.size	_ZN7sigslot12_connection3I4TaskP9GuiButtoniRK6_POINTNS_15single_threadedEE5cloneEv, .-_ZN7si
 1798              		.section	.text._ZN7sigslot13_signal_base1IP4TaskNS_15single_threadedEE14slot_duplicateEPKNS_9has_s
 1799              		.align 2
 1800              		.weak	_ZN7sigslot13_signal_base1IP4TaskNS_15single_threadedEE14slot_duplicateEPKNS_9has_slotsIS3_E
 1801              		.type	_ZN7sigslot13_signal_base1IP4TaskNS_15single_threadedEE14slot_duplicateEPKNS_9has_slotsIS3_E
 1802              	_ZN7sigslot13_signal_base1IP4TaskNS_15single_threadedEE14slot_duplicateEPKNS_9has_slotsIS3_EEPS6_:
 1803              	.LFB2054:
 1804              		.loc 1 685 0
 1805              		.cfi_startproc
 1806              		.cfi_personality 0,__gxx_personality_v0
 1807              		.cfi_lsda 0,.LLSDA2054
 1808              	.LVL139:
 1809 0000 7C0802A6 		mflr 0
 1810 0004 9421FFE0 		stwu 1,-32(1)
 1811              	.LCFI32:
 1812              		.cfi_def_cfa_offset 32
 1813              		.cfi_register 65, 0
 1814 0008 93410008 		stw 26,8(1)
 1815 000c 7CBA2B78 		mr 26,5
 1816              		.cfi_offset 26, -24
 1817 0010 90010024 		stw 0,36(1)
 1818 0014 9361000C 		stw 27,12(1)
 1819 0018 7C7B1B78 		mr 27,3
 1820              		.cfi_offset 27, -20
 1821              		.cfi_offset 65, 4
 1822              	.LVL140:
 1823              	.LBB2976:
 1824              	.LBB2977:
 1825              	.LBB2978:
 1826              		.loc 1 338 0
 1827 001c 81230000 		lwz 9,0(3)
 1828              	.LBE2978:
 1829              	.LBE2977:
 1830              	.LBE2976:
 1831              		.loc 1 685 0
 1832 0020 93A10014 		stw 29,20(1)
 1833 0024 7C9D2378 		mr 29,4
 1834              		.cfi_offset 29, -12
 1835              	.LBB3007:
 1836              	.LBB2983:
 1837              	.LBB2979:
 1838              		.loc 1 338 0
 1839 0028 80090008 		lwz 0,8(9)
 1840              	.LBE2979:
 1841              	.LBE2983:
 1842              	.LBE3007:
 1843              		.loc 1 685 0
 1844 002c 93C10018 		stw 30,24(1)
 1845              	.LBB3008:
 1846              	.LBB2984:
 1847              	.LBB2980:
 1848              		.loc 3 73 0
 1849 0030 7F7EDB78 		mr 30,27
 1850              		.cfi_offset 30, -8
 1851              	.LBE2980:
 1852              	.LBE2984:
 1853              	.LBE3008:
 1854              		.loc 1 685 0
 1855 0034 93E1001C 		stw 31,28(1)
 1856              	.LBB3009:
 1857              	.LBB2985:
 1858              	.LBB2981:
 1859              		.loc 1 338 0
 1860 0038 7C0903A6 		mtctr 0
 1861              	.LBE2981:
 1862              	.LBE2985:
 1863              	.LBE3009:
 1864              		.loc 1 685 0
 1865 003c 93810010 		stw 28,16(1)
 1866              	.LEHB8:
 1867              	.LBB3010:
 1868              	.LBB2986:
 1869              	.LBB2982:
 1870              		.loc 1 338 0
 1871              		.cfi_offset 28, -16
 1872              		.cfi_offset 31, -4
 1873 0040 4E800421 		bctrl
 1874              	.LEHE8:
 1875              	.LVL141:
 1876              		.loc 3 73 0
 1877 0044 87FE0004 		lwzu 31,4(30)
 1878              	.LVL142:
 1879              	.LBE2982:
 1880              	.LBE2986:
 1881              		.loc 1 691 0
 1882 0048 7F9FF000 		cmpw 7,31,30
 1883 004c 40BE0014 		bne+ 7,.L110
 1884 0050 48000070 		b .L101
 1885              	.LVL143:
 1886              	.L102:
 1887              	.LBB2987:
 1888              	.LBB2988:
 1889              		.loc 4 154 0
 1890 0054 83FF0000 		lwz 31,0(31)
 1891              	.LVL144:
 1892              	.LBE2988:
 1893              	.LBE2987:
 1894              		.loc 1 691 0
 1895 0058 7F9EF800 		cmpw 7,30,31
 1896 005c 419E0064 		beq- 7,.L101
 1897              	.LVL145:
 1898              	.L110:
 1899              		.loc 1 693 0
 1900 0060 807F0008 		lwz 3,8(31)
 1901 0064 81230000 		lwz 9,0(3)
 1902 0068 80090008 		lwz 0,8(9)
 1903 006c 7C0903A6 		mtctr 0
 1904              	.LEHB9:
 1905 0070 4E800421 		bctrl
 1906 0074 7F9D1800 		cmpw 7,29,3
 1907 0078 409EFFDC 		bne+ 7,.L102
 1908              	.LVL146:
 1909              		.loc 1 695 0
 1910 007c 807F0008 		lwz 3,8(31)
 1911 0080 7F44D378 		mr 4,26
 1912 0084 81230000 		lwz 9,0(3)
 1913 0088 80090014 		lwz 0,20(9)
 1914 008c 7C0903A6 		mtctr 0
 1915 0090 4E800421 		bctrl
 1916 0094 7C7C1B78 		mr 28,3
 1917              	.LVL147:
 1918              	.LBB2990:
 1919              	.LBB2991:
 1920              	.LBB2992:
 1921              	.LBB2993:
 1922              	.LBB2994:
 1923              	.LBB2995:
 1924              	.LBB2996:
 1925              	.LBB2997:
 1926              		.file 5 "d:\\devkitpro\\devkitppc\\bin\\../lib/gcc/powerpc-eabi/4.6.3/../../../../powerpc-eabi/inc
 1927              		.loc 5 92 0
 1928 0098 3860000C 		li 3,12
 1929 009c 48000001 		bl _Znwj
 1930              	.LEHE9:
 1931              	.LVL148:
 1932              	.LBE2997:
 1933              	.LBE2996:
 1934              	.LBE2995:
 1935              	.LBB2998:
 1936              	.LBB2999:
 1937              		.loc 5 108 0 discriminator 1
 1938 00a0 2F83FFF8 		cmpwi 7,3,-8
 1939 00a4 419E0008 		beq- 7,.L104
 1940              		.loc 5 108 0 is_stmt 0
 1941 00a8 93830008 		stw 28,8(3)
 1942              	.L104:
 1943              	.LVL149:
 1944              	.LBE2999:
 1945              	.LBE2998:
 1946              	.LBE2994:
 1947              	.LBE2993:
 1948              		.loc 4 1516 0 is_stmt 1
 1949 00ac 7FC4F378 		mr 4,30
 1950 00b0 48000001 		bl _ZNSt8__detail15_List_node_base7_M_hookEPS0_
 1951              	.LVL150:
 1952              	.LBE2992:
 1953              	.LBE2991:
 1954              	.LBE2990:
 1955              	.LBB3000:
 1956              	.LBB2989:
 1957              		.loc 4 154 0
 1958 00b4 83FF0000 		lwz 31,0(31)
 1959              	.LVL151:
 1960              	.LBE2989:
 1961              	.LBE3000:
 1962              		.loc 1 691 0
 1963 00b8 7F9EF800 		cmpw 7,30,31
 1964 00bc 409EFFA4 		bne+ 7,.L110
 1965              	.LVL152:
 1966              	.L101:
 1967              	.LBB3001:
 1968              	.LBB3002:
 1969              	.LBB3003:
 1970              		.loc 1 343 0
 1971 00c0 813B0000 		lwz 9,0(27)
 1972 00c4 7F63DB78 		mr 3,27
 1973 00c8 8009000C 		lwz 0,12(9)
 1974 00cc 7C0903A6 		mtctr 0
 1975              	.LEHB10:
 1976 00d0 4E800421 		bctrl
 1977              	.LEHE10:
 1978              	.LBE3003:
 1979              	.LBE3002:
 1980              	.LBE3001:
 1981              	.LBE3010:
 1982              		.loc 1 700 0
 1983 00d4 80010024 		lwz 0,36(1)
 1984 00d8 83410008 		lwz 26,8(1)
 1985              	.LVL153:
 1986 00dc 7C0803A6 		mtlr 0
 1987 00e0 8361000C 		lwz 27,12(1)
 1988              	.LVL154:
 1989 00e4 83810010 		lwz 28,16(1)
 1990 00e8 83A10014 		lwz 29,20(1)
 1991              	.LVL155:
 1992 00ec 83C10018 		lwz 30,24(1)
 1993              	.LVL156:
 1994 00f0 83E1001C 		lwz 31,28(1)
 1995              	.LVL157:
 1996 00f4 38210020 		addi 1,1,32
 1997              		.cfi_remember_state
 1998              	.LCFI33:
 1999              		.cfi_def_cfa_offset 0
 2000              		.cfi_restore 31
 2001              		.cfi_restore 30
 2002              		.cfi_restore 29
 2003              		.cfi_restore 28
 2004              		.cfi_restore 27
 2005              		.cfi_restore 26
 2006 00f8 4E800020 		blr
 2007              	.LVL158:
 2008              	.L109:
 2009              	.LCFI34:
 2010              		.cfi_restore_state
 2011              	.LBB3011:
 2012              	.LBB3004:
 2013              	.LBB3005:
 2014              	.LBB3006:
 2015              		.loc 1 343 0
 2016 00fc 813B0000 		lwz 9,0(27)
 2017 0100 7C7F1B78 		mr 31,3
 2018              	.LVL159:
 2019 0104 7F63DB78 		mr 3,27
 2020 0108 8009000C 		lwz 0,12(9)
 2021 010c 7C0903A6 		mtctr 0
 2022 0110 4E800421 		bctrl
 2023 0114 7FE3FB78 		mr 3,31
 2024              	.LEHB11:
 2025 0118 48000001 		bl _Unwind_Resume
 2026              	.LEHE11:
 2027              	.LBE3006:
 2028              	.LBE3005:
 2029              	.LBE3004:
 2030              	.LBE3011:
 2031              		.cfi_endproc
 2032              	.LFE2054:
 2033              		.section	.gcc_except_table
 2034              	.LLSDA2054:
 2035 002e FF       		.byte	0xff
 2036 002f FF       		.byte	0xff
 2037 0030 01       		.byte	0x1
 2038 0031 13       		.uleb128 .LLSDACSE2054-.LLSDACSB2054
 2039              	.LLSDACSB2054:
 2040 0032 40       		.uleb128 .LEHB8-.LFB2054
 2041 0033 04       		.uleb128 .LEHE8-.LEHB8
 2042 0034 00       		.uleb128 0
 2043 0035 00       		.uleb128 0
 2044 0036 70       		.uleb128 .LEHB9-.LFB2054
 2045 0037 30       		.uleb128 .LEHE9-.LEHB9
 2046 0038 FC01     		.uleb128 .L109-.LFB2054
 2047 003a 00       		.uleb128 0
 2048 003b D001     		.uleb128 .LEHB10-.LFB2054
 2049 003d 04       		.uleb128 .LEHE10-.LEHB10
 2050 003e 00       		.uleb128 0
 2051 003f 00       		.uleb128 0
 2052 0040 9802     		.uleb128 .LEHB11-.LFB2054
 2053 0042 04       		.uleb128 .LEHE11-.LEHB11
 2054 0043 00       		.uleb128 0
 2055 0044 00       		.uleb128 0
 2056              	.LLSDACSE2054:
 2057              		.section	.text._ZN7sigslot13_signal_base1IP4TaskNS_15single_threadedEE14slot_duplicateEPKNS_9has_s
 2058              		.size	_ZN7sigslot13_signal_base1IP4TaskNS_15single_threadedEE14slot_duplicateEPKNS_9has_slotsIS3_E
 2059              		.section	.text._ZN7sigslot13_signal_base2IP4TaskiNS_15single_threadedEE14slot_duplicateEPKNS_9has_
 2060              		.align 2
 2061              		.weak	_ZN7sigslot13_signal_base2IP4TaskiNS_15single_threadedEE14slot_duplicateEPKNS_9has_slotsIS3_
 2062              		.type	_ZN7sigslot13_signal_base2IP4TaskiNS_15single_threadedEE14slot_duplicateEPKNS_9has_slotsIS3_
 2063              	_ZN7sigslot13_signal_base2IP4TaskiNS_15single_threadedEE14slot_duplicateEPKNS_9has_slotsIS3_EEPS6_:
 2064              	.LFB2056:
 2065              		.loc 1 806 0
 2066              		.cfi_startproc
 2067              		.cfi_personality 0,__gxx_personality_v0
 2068              		.cfi_lsda 0,.LLSDA2056
 2069              	.LVL160:
 2070 0000 7C0802A6 		mflr 0
 2071 0004 9421FFE0 		stwu 1,-32(1)
 2072              	.LCFI35:
 2073              		.cfi_def_cfa_offset 32
 2074              		.cfi_register 65, 0
 2075 0008 93410008 		stw 26,8(1)
 2076 000c 7CBA2B78 		mr 26,5
 2077              		.cfi_offset 26, -24
 2078 0010 90010024 		stw 0,36(1)
 2079 0014 9361000C 		stw 27,12(1)
 2080 0018 7C7B1B78 		mr 27,3
 2081              		.cfi_offset 27, -20
 2082              		.cfi_offset 65, 4
 2083              	.LVL161:
 2084              	.LBB3012:
 2085              	.LBB3013:
 2086              	.LBB3014:
 2087              		.loc 1 338 0
 2088 001c 81230000 		lwz 9,0(3)
 2089              	.LBE3014:
 2090              	.LBE3013:
 2091              	.LBE3012:
 2092              		.loc 1 806 0
 2093 0020 93A10014 		stw 29,20(1)
 2094 0024 7C9D2378 		mr 29,4
 2095              		.cfi_offset 29, -12
 2096              	.LBB3043:
 2097              	.LBB3019:
 2098              	.LBB3015:
 2099              		.loc 1 338 0
 2100 0028 80090008 		lwz 0,8(9)
 2101              	.LBE3015:
 2102              	.LBE3019:
 2103              	.LBE3043:
 2104              		.loc 1 806 0
 2105 002c 93C10018 		stw 30,24(1)
 2106              	.LBB3044:
 2107              	.LBB3020:
 2108              	.LBB3016:
 2109              		.loc 3 73 0
 2110 0030 7F7EDB78 		mr 30,27
 2111              		.cfi_offset 30, -8
 2112              	.LBE3016:
 2113              	.LBE3020:
 2114              	.LBE3044:
 2115              		.loc 1 806 0
 2116 0034 93E1001C 		stw 31,28(1)
 2117              	.LBB3045:
 2118              	.LBB3021:
 2119              	.LBB3017:
 2120              		.loc 1 338 0
 2121 0038 7C0903A6 		mtctr 0
 2122              	.LBE3017:
 2123              	.LBE3021:
 2124              	.LBE3045:
 2125              		.loc 1 806 0
 2126 003c 93810010 		stw 28,16(1)
 2127              	.LEHB12:
 2128              	.LBB3046:
 2129              	.LBB3022:
 2130              	.LBB3018:
 2131              		.loc 1 338 0
 2132              		.cfi_offset 28, -16
 2133              		.cfi_offset 31, -4
 2134 0040 4E800421 		bctrl
 2135              	.LEHE12:
 2136              	.LVL162:
 2137              		.loc 3 73 0
 2138 0044 87FE0004 		lwzu 31,4(30)
 2139              	.LVL163:
 2140              	.LBE3018:
 2141              	.LBE3022:
 2142              		.loc 1 812 0
 2143 0048 7F9FF000 		cmpw 7,31,30
 2144 004c 40BE0014 		bne+ 7,.L122
 2145 0050 48000070 		b .L113
 2146              	.LVL164:
 2147              	.L114:
 2148              	.LBB3023:
 2149              	.LBB3024:
 2150              		.loc 4 154 0
 2151 0054 83FF0000 		lwz 31,0(31)
 2152              	.LVL165:
 2153              	.LBE3024:
 2154              	.LBE3023:
 2155              		.loc 1 812 0
 2156 0058 7F9EF800 		cmpw 7,30,31
 2157 005c 419E0064 		beq- 7,.L113
 2158              	.LVL166:
 2159              	.L122:
 2160              		.loc 1 814 0
 2161 0060 807F0008 		lwz 3,8(31)
 2162 0064 81230000 		lwz 9,0(3)
 2163 0068 80090008 		lwz 0,8(9)
 2164 006c 7C0903A6 		mtctr 0
 2165              	.LEHB13:
 2166 0070 4E800421 		bctrl
 2167 0074 7F9D1800 		cmpw 7,29,3
 2168 0078 409EFFDC 		bne+ 7,.L114
 2169              	.LVL167:
 2170              		.loc 1 816 0
 2171 007c 807F0008 		lwz 3,8(31)
 2172 0080 7F44D378 		mr 4,26
 2173 0084 81230000 		lwz 9,0(3)
 2174 0088 80090014 		lwz 0,20(9)
 2175 008c 7C0903A6 		mtctr 0
 2176 0090 4E800421 		bctrl
 2177 0094 7C7C1B78 		mr 28,3
 2178              	.LVL168:
 2179              	.LBB3026:
 2180              	.LBB3027:
 2181              	.LBB3028:
 2182              	.LBB3029:
 2183              	.LBB3030:
 2184              	.LBB3031:
 2185              	.LBB3032:
 2186              	.LBB3033:
 2187              		.loc 5 92 0
 2188 0098 3860000C 		li 3,12
 2189 009c 48000001 		bl _Znwj
 2190              	.LEHE13:
 2191              	.LVL169:
 2192              	.LBE3033:
 2193              	.LBE3032:
 2194              	.LBE3031:
 2195              	.LBB3034:
 2196              	.LBB3035:
 2197              		.loc 5 108 0 discriminator 1
 2198 00a0 2F83FFF8 		cmpwi 7,3,-8
 2199 00a4 419E0008 		beq- 7,.L116
 2200              		.loc 5 108 0 is_stmt 0
 2201 00a8 93830008 		stw 28,8(3)
 2202              	.L116:
 2203              	.LVL170:
 2204              	.LBE3035:
 2205              	.LBE3034:
 2206              	.LBE3030:
 2207              	.LBE3029:
 2208              		.loc 4 1516 0 is_stmt 1
 2209 00ac 7FC4F378 		mr 4,30
 2210 00b0 48000001 		bl _ZNSt8__detail15_List_node_base7_M_hookEPS0_
 2211              	.LVL171:
 2212              	.LBE3028:
 2213              	.LBE3027:
 2214              	.LBE3026:
 2215              	.LBB3036:
 2216              	.LBB3025:
 2217              		.loc 4 154 0
 2218 00b4 83FF0000 		lwz 31,0(31)
 2219              	.LVL172:
 2220              	.LBE3025:
 2221              	.LBE3036:
 2222              		.loc 1 812 0
 2223 00b8 7F9EF800 		cmpw 7,30,31
 2224 00bc 409EFFA4 		bne+ 7,.L122
 2225              	.LVL173:
 2226              	.L113:
 2227              	.LBB3037:
 2228              	.LBB3038:
 2229              	.LBB3039:
 2230              		.loc 1 343 0
 2231 00c0 813B0000 		lwz 9,0(27)
 2232 00c4 7F63DB78 		mr 3,27
 2233 00c8 8009000C 		lwz 0,12(9)
 2234 00cc 7C0903A6 		mtctr 0
 2235              	.LEHB14:
 2236 00d0 4E800421 		bctrl
 2237              	.LEHE14:
 2238              	.LBE3039:
 2239              	.LBE3038:
 2240              	.LBE3037:
 2241              	.LBE3046:
 2242              		.loc 1 821 0
 2243 00d4 80010024 		lwz 0,36(1)
 2244 00d8 83410008 		lwz 26,8(1)
 2245              	.LVL174:
 2246 00dc 7C0803A6 		mtlr 0
 2247 00e0 8361000C 		lwz 27,12(1)
 2248              	.LVL175:
 2249 00e4 83810010 		lwz 28,16(1)
 2250 00e8 83A10014 		lwz 29,20(1)
 2251              	.LVL176:
 2252 00ec 83C10018 		lwz 30,24(1)
 2253              	.LVL177:
 2254 00f0 83E1001C 		lwz 31,28(1)
 2255              	.LVL178:
 2256 00f4 38210020 		addi 1,1,32
 2257              		.cfi_remember_state
 2258              	.LCFI36:
 2259              		.cfi_def_cfa_offset 0
 2260              		.cfi_restore 31
 2261              		.cfi_restore 30
 2262              		.cfi_restore 29
 2263              		.cfi_restore 28
 2264              		.cfi_restore 27
 2265              		.cfi_restore 26
 2266 00f8 4E800020 		blr
 2267              	.LVL179:
 2268              	.L121:
 2269              	.LCFI37:
 2270              		.cfi_restore_state
 2271              	.LBB3047:
 2272              	.LBB3040:
 2273              	.LBB3041:
 2274              	.LBB3042:
 2275              		.loc 1 343 0
 2276 00fc 813B0000 		lwz 9,0(27)
 2277 0100 7C7F1B78 		mr 31,3
 2278              	.LVL180:
 2279 0104 7F63DB78 		mr 3,27
 2280 0108 8009000C 		lwz 0,12(9)
 2281 010c 7C0903A6 		mtctr 0
 2282 0110 4E800421 		bctrl
 2283 0114 7FE3FB78 		mr 3,31
 2284              	.LEHB15:
 2285 0118 48000001 		bl _Unwind_Resume
 2286              	.LEHE15:
 2287              	.LBE3042:
 2288              	.LBE3041:
 2289              	.LBE3040:
 2290              	.LBE3047:
 2291              		.cfi_endproc
 2292              	.LFE2056:
 2293              		.section	.gcc_except_table
 2294              	.LLSDA2056:
 2295 0045 FF       		.byte	0xff
 2296 0046 FF       		.byte	0xff
 2297 0047 01       		.byte	0x1
 2298 0048 13       		.uleb128 .LLSDACSE2056-.LLSDACSB2056
 2299              	.LLSDACSB2056:
 2300 0049 40       		.uleb128 .LEHB12-.LFB2056
 2301 004a 04       		.uleb128 .LEHE12-.LEHB12
 2302 004b 00       		.uleb128 0
 2303 004c 00       		.uleb128 0
 2304 004d 70       		.uleb128 .LEHB13-.LFB2056
 2305 004e 30       		.uleb128 .LEHE13-.LEHB13
 2306 004f FC01     		.uleb128 .L121-.LFB2056
 2307 0051 00       		.uleb128 0
 2308 0052 D001     		.uleb128 .LEHB14-.LFB2056
 2309 0054 04       		.uleb128 .LEHE14-.LEHB14
 2310 0055 00       		.uleb128 0
 2311 0056 00       		.uleb128 0
 2312 0057 9802     		.uleb128 .LEHB15-.LFB2056
 2313 0059 04       		.uleb128 .LEHE15-.LEHB15
 2314 005a 00       		.uleb128 0
 2315 005b 00       		.uleb128 0
 2316              	.LLSDACSE2056:
 2317              		.section	.text._ZN7sigslot13_signal_base2IP4TaskiNS_15single_threadedEE14slot_duplicateEPKNS_9has_
 2318              		.size	_ZN7sigslot13_signal_base2IP4TaskiNS_15single_threadedEE14slot_duplicateEPKNS_9has_slotsIS3_
 2319              		.section	.text._ZN7sigslot12_connection3I4TaskP9GuiButtoniRK6_POINTNS_15single_threadedEED0Ev,"axG
 2320              		.align 2
 2321              		.weak	_ZN7sigslot12_connection3I4TaskP9GuiButtoniRK6_POINTNS_15single_threadedEED0Ev
 2322              		.type	_ZN7sigslot12_connection3I4TaskP9GuiButtoniRK6_POINTNS_15single_threadedEED0Ev, @function
 2323              	_ZN7sigslot12_connection3I4TaskP9GuiButtoniRK6_POINTNS_15single_threadedEED0Ev:
 2324              	.LFB2042:
 2325              		.loc 1 1783 0
 2326              		.cfi_startproc
 2327              	.LVL181:
 2328 0000 7C0802A6 		mflr 0
 2329 0004 9421FFF8 		stwu 1,-8(1)
 2330              	.LCFI38:
 2331              		.cfi_def_cfa_offset 8
 2332              		.cfi_register 65, 0
 2333              	.LBB3048:
 2334              	.LBB3049:
 2335              	.LBB3050:
 2336              	.LBB3051:
 2337              	.LBB3052:
 2338              	.LBB3053:
 2339              		.loc 1 387 0
 2340 0008 3D200000 		lis 9,_ZTVN7sigslot17_connection_base3IP9GuiButtoniRK6_POINTNS_15single_threadedEEE+8@ha
 2341              	.LBE3053:
 2342              	.LBE3052:
 2343              	.LBE3051:
 2344              	.LBE3050:
 2345              	.LBE3049:
 2346              	.LBE3048:
 2347              		.loc 1 1783 0
 2348 000c 9001000C 		stw 0,12(1)
 2349              	.LBB3059:
 2350              	.LBB3058:
 2351              	.LBB3057:
 2352              	.LBB3056:
 2353              	.LBB3055:
 2354              	.LBB3054:
 2355              		.loc 1 387 0
 2356 0010 38090008 		la 0,_ZTVN7sigslot17_connection_base3IP9GuiButtoniRK6_POINTNS_15single_threadedEEE+8@l(9)
 2357              		.cfi_offset 65, 4
 2358 0014 90030000 		stw 0,0(3)
 2359              	.LBE3054:
 2360              	.LBE3055:
 2361              	.LBE3056:
 2362              	.LBE3057:
 2363              	.LBE3058:
 2364              	.LBE3059:
 2365              		.loc 1 1786 0
 2366 0018 48000001 		bl _ZdlPv
 2367              	.LVL182:
 2368 001c 8001000C 		lwz 0,12(1)
 2369 0020 38210008 		addi 1,1,8
 2370              	.LCFI39:
 2371              		.cfi_def_cfa_offset 0
 2372 0024 7C0803A6 		mtlr 0
 2373 0028 4E800020 		blr
 2374              		.cfi_endproc
 2375              	.LFE2042:
 2376              		.size	_ZN7sigslot12_connection3I4TaskP9GuiButtoniRK6_POINTNS_15single_threadedEED0Ev, .-_ZN7sigslo
 2377              		.section	.text._ZN7sigslot17_connection_base3IP9GuiButtoniRK6_POINTNS_15single_threadedEED0Ev,"axG
 2378              		.align 2
 2379              		.weak	_ZN7sigslot17_connection_base3IP9GuiButtoniRK6_POINTNS_15single_threadedEED0Ev
 2380              		.type	_ZN7sigslot17_connection_base3IP9GuiButtoniRK6_POINTNS_15single_threadedEED0Ev, @function
 2381              	_ZN7sigslot17_connection_base3IP9GuiButtoniRK6_POINTNS_15single_threadedEED0Ev:
 2382              	.LFB1706:
 2383              		.loc 1 387 0
 2384              		.cfi_startproc
 2385              	.LVL183:
 2386 0000 7C0802A6 		mflr 0
 2387 0004 9421FFF8 		stwu 1,-8(1)
 2388              	.LCFI40:
 2389              		.cfi_def_cfa_offset 8
 2390              		.cfi_register 65, 0
 2391              	.LBB3060:
 2392              	.LBB3061:
 2393              	.LBB3062:
 2394 0008 3D200000 		lis 9,_ZTVN7sigslot17_connection_base3IP9GuiButtoniRK6_POINTNS_15single_threadedEEE+8@ha
 2395              	.LBE3062:
 2396              	.LBE3061:
 2397              	.LBE3060:
 2398 000c 9001000C 		stw 0,12(1)
 2399              	.LBB3065:
 2400              	.LBB3064:
 2401              	.LBB3063:
 2402              		.loc 1 387 0
 2403 0010 38090008 		la 0,_ZTVN7sigslot17_connection_base3IP9GuiButtoniRK6_POINTNS_15single_threadedEEE+8@l(9)
 2404              		.cfi_offset 65, 4
 2405 0014 90030000 		stw 0,0(3)
 2406              	.LBE3063:
 2407              	.LBE3064:
 2408              	.LBE3065:
 2409 0018 48000001 		bl _ZdlPv
 2410              	.LVL184:
 2411 001c 8001000C 		lwz 0,12(1)
 2412 0020 38210008 		addi 1,1,8
 2413              	.LCFI41:
 2414              		.cfi_def_cfa_offset 0
 2415 0024 7C0803A6 		mtlr 0
 2416 0028 4E800020 		blr
 2417              		.cfi_endproc
 2418              	.LFE1706:
 2419              		.size	_ZN7sigslot17_connection_base3IP9GuiButtoniRK6_POINTNS_15single_threadedEED0Ev, .-_ZN7sigslo
 2420              		.section	.text._ZN7sigslot12_signal_baseINS_15single_threadedEED0Ev,"axG",@progbits,_ZN7sigslot12_
 2421              		.align 2
 2422              		.weak	_ZN7sigslot12_signal_baseINS_15single_threadedEED0Ev
 2423              		.type	_ZN7sigslot12_signal_baseINS_15single_threadedEED0Ev, @function
 2424              	_ZN7sigslot12_signal_baseINS_15single_threadedEED0Ev:
 2425              	.LFB1543:
 2426              		.loc 1 466 0
 2427              		.cfi_startproc
 2428              	.LVL185:
 2429 0000 7C0802A6 		mflr 0
 2430 0004 9421FFF8 		stwu 1,-8(1)
 2431              	.LCFI42:
 2432              		.cfi_def_cfa_offset 8
 2433              		.cfi_register 65, 0
 2434              	.LBB3066:
 2435              	.LBB3067:
 2436              	.LBB3068:
 2437              	.LBB3069:
 2438              	.LBB3070:
 2439              	.LBB3071:
 2440              		.loc 1 105 0
 2441 0008 3D200000 		lis 9,_ZTVN7sigslot15single_threadedE+8@ha
 2442              	.LBE3071:
 2443              	.LBE3070:
 2444              	.LBE3069:
 2445              	.LBE3068:
 2446              	.LBE3067:
 2447              	.LBE3066:
 2448              		.loc 1 466 0
 2449 000c 9001000C 		stw 0,12(1)
 2450              	.LBB3077:
 2451              	.LBB3076:
 2452              	.LBB3075:
 2453              	.LBB3074:
 2454              	.LBB3073:
 2455              	.LBB3072:
 2456              		.loc 1 105 0
 2457 0010 38090008 		la 0,_ZTVN7sigslot15single_threadedE+8@l(9)
 2458              		.cfi_offset 65, 4
 2459 0014 90030000 		stw 0,0(3)
 2460              	.LBE3072:
 2461              	.LBE3073:
 2462              	.LBE3074:
 2463              	.LBE3075:
 2464              	.LBE3076:
 2465              	.LBE3077:
 2466              		.loc 1 466 0
 2467 0018 48000001 		bl _ZdlPv
 2468              	.LVL186:
 2469 001c 8001000C 		lwz 0,12(1)
 2470 0020 38210008 		addi 1,1,8
 2471              	.LCFI43:
 2472              		.cfi_def_cfa_offset 0
 2473 0024 7C0803A6 		mtlr 0
 2474 0028 4E800020 		blr
 2475              		.cfi_endproc
 2476              	.LFE1543:
 2477              		.size	_ZN7sigslot12_signal_baseINS_15single_threadedEED0Ev, .-_ZN7sigslot12_signal_baseINS_15singl
 2478              		.section	.text._ZN7sigslot15single_threadedD0Ev,"axG",@progbits,_ZN7sigslot15single_threadedD5Ev,c
 2479              		.align 2
 2480              		.weak	_ZN7sigslot15single_threadedD0Ev
 2481              		.type	_ZN7sigslot15single_threadedD0Ev, @function
 2482              	_ZN7sigslot15single_threadedD0Ev:
 2483              	.LFB1150:
 2484              		.loc 1 104 0
 2485              		.cfi_startproc
 2486              	.LVL187:
 2487 0000 7C0802A6 		mflr 0
 2488 0004 9421FFF8 		stwu 1,-8(1)
 2489              	.LCFI44:
 2490              		.cfi_def_cfa_offset 8
 2491              		.cfi_register 65, 0
 2492              	.LBB3078:
 2493              	.LBB3079:
 2494              	.LBB3080:
 2495              		.loc 1 105 0
 2496 0008 3D200000 		lis 9,_ZTVN7sigslot15single_threadedE+8@ha
 2497              	.LBE3080:
 2498              	.LBE3079:
 2499              	.LBE3078:
 2500              		.loc 1 104 0
 2501 000c 9001000C 		stw 0,12(1)
 2502              	.LBB3083:
 2503              	.LBB3082:
 2504              	.LBB3081:
 2505              		.loc 1 105 0
 2506 0010 38090008 		la 0,_ZTVN7sigslot15single_threadedE+8@l(9)
 2507              		.cfi_offset 65, 4
 2508 0014 90030000 		stw 0,0(3)
 2509              	.LBE3081:
 2510              	.LBE3082:
 2511              	.LBE3083:
 2512              		.loc 1 107 0
 2513 0018 48000001 		bl _ZdlPv
 2514              	.LVL188:
 2515 001c 8001000C 		lwz 0,12(1)
 2516 0020 38210008 		addi 1,1,8
 2517              	.LCFI45:
 2518              		.cfi_def_cfa_offset 0
 2519 0024 7C0803A6 		mtlr 0
 2520 0028 4E800020 		blr
 2521              		.cfi_endproc
 2522              	.LFE1150:
 2523              		.size	_ZN7sigslot15single_threadedD0Ev, .-_ZN7sigslot15single_threadedD0Ev
 2524              		.section	.text._ZN7sigslot13_signal_base1IP4TaskNS_15single_threadedEE15slot_disconnectEPNS_9has_s
 2525              		.align 2
 2526              		.weak	_ZN7sigslot13_signal_base1IP4TaskNS_15single_threadedEE15slot_disconnectEPNS_9has_slotsIS3_E
 2527              		.type	_ZN7sigslot13_signal_base1IP4TaskNS_15single_threadedEE15slot_disconnectEPNS_9has_slotsIS3_E
 2528              	_ZN7sigslot13_signal_base1IP4TaskNS_15single_threadedEE15slot_disconnectEPNS_9has_slotsIS3_EE:
 2529              	.LFB2053:
 2530              		.loc 1 749 0
 2531              		.cfi_startproc
 2532              		.cfi_personality 0,__gxx_personality_v0
 2533              		.cfi_lsda 0,.LLSDA2053
 2534              	.LVL189:
 2535 0000 7C0802A6 		mflr 0
 2536 0004 9421FFE0 		stwu 1,-32(1)
 2537              	.LCFI46:
 2538              		.cfi_def_cfa_offset 32
 2539              		.cfi_register 65, 0
 2540 0008 9361000C 		stw 27,12(1)
 2541 000c 7C7B1B78 		mr 27,3
 2542              		.cfi_offset 27, -20
 2543              	.LVL190:
 2544 0010 90010024 		stw 0,36(1)
 2545 0014 93810010 		stw 28,16(1)
 2546 0018 7C9C2378 		mr 28,4
 2547              		.cfi_offset 28, -16
 2548              		.cfi_offset 65, 4
 2549              	.LBB3084:
 2550              	.LBB3085:
 2551              	.LBB3086:
 2552              		.loc 1 338 0
 2553 001c 81230000 		lwz 9,0(3)
 2554              	.LBE3086:
 2555              	.LBE3085:
 2556              	.LBE3084:
 2557              		.loc 1 749 0
 2558 0020 93A10014 		stw 29,20(1)
 2559              	.LBB3107:
 2560              	.LBB3089:
 2561              	.LBB3087:
 2562              		.loc 3 73 0
 2563 0024 7F7DDB78 		mr 29,27
 2564              		.cfi_offset 29, -12
 2565              		.loc 1 338 0
 2566 0028 80090008 		lwz 0,8(9)
 2567              	.LBE3087:
 2568              	.LBE3089:
 2569              	.LBE3107:
 2570              		.loc 1 749 0
 2571 002c 93E1001C 		stw 31,28(1)
 2572 0030 93C10018 		stw 30,24(1)
 2573              	.LBB3108:
 2574              	.LBB3090:
 2575              	.LBB3088:
 2576              		.loc 1 338 0
 2577 0034 7C0903A6 		mtctr 0
 2578              	.LEHB16:
 2579              		.cfi_offset 30, -8
 2580              		.cfi_offset 31, -4
 2581 0038 4E800421 		bctrl
 2582              	.LEHE16:
 2583              	.LVL191:
 2584              		.loc 3 73 0
 2585 003c 87FD0004 		lwzu 31,4(29)
 2586              	.LVL192:
 2587              	.LBE3088:
 2588              	.LBE3090:
 2589              		.loc 1 755 0
 2590 0040 7F9FE800 		cmpw 7,31,29
 2591 0044 40BE0014 		bne+ 7,.L150
 2592 0048 48000064 		b .L139
 2593              	.LVL193:
 2594              	.L140:
 2595              		.loc 1 755 0 is_stmt 0 discriminator 1
 2596 004c 7F9DF000 		cmpw 7,29,30
 2597 0050 419E005C 		beq- 7,.L139
 2598              	.L148:
 2599              		.loc 1 755 0
 2600 0054 7FDFF378 		mr 31,30
 2601              	.LVL194:
 2602              	.L150:
 2603              	.LBB3091:
 2604              		.loc 1 760 0 is_stmt 1
 2605 0058 807F0008 		lwz 3,8(31)
 2606              	.LBB3092:
 2607              	.LBB3093:
 2608              		.loc 4 154 0
 2609 005c 83DF0000 		lwz 30,0(31)
 2610              	.LVL195:
 2611              	.LBE3093:
 2612              	.LBE3092:
 2613              		.loc 1 760 0
 2614 0060 81230000 		lwz 9,0(3)
 2615 0064 80090008 		lwz 0,8(9)
 2616 0068 7C0903A6 		mtctr 0
 2617              	.LEHB17:
 2618 006c 4E800421 		bctrl
 2619              	.LVL196:
 2620 0070 7F9C1800 		cmpw 7,28,3
 2621 0074 409EFFD8 		bne+ 7,.L140
 2622              	.LVL197:
 2623              		.loc 1 762 0
 2624 0078 807F0008 		lwz 3,8(31)
 2625 007c 2F830000 		cmpwi 7,3,0
 2626 0080 419E0014 		beq- 7,.L141
 2627              		.loc 1 762 0 is_stmt 0 discriminator 1
 2628 0084 81230000 		lwz 9,0(3)
 2629 0088 80090004 		lwz 0,4(9)
 2630 008c 7C0903A6 		mtctr 0
 2631 0090 4E800421 		bctrl
 2632              	.LEHE17:
 2633              	.L141:
 2634              	.LVL198:
 2635              	.LBB3094:
 2636              	.LBB3095:
 2637              	.LBB3096:
 2638              	.LBB3097:
 2639              		.loc 4 1532 0 is_stmt 1
 2640 0094 7FE3FB78 		mr 3,31
 2641 0098 48000001 		bl _ZNSt8__detail15_List_node_base9_M_unhookEv
 2642              	.LVL199:
 2643              	.LBB3098:
 2644              	.LBB3099:
 2645              	.LBB3100:
 2646              		.loc 5 98 0
 2647 009c 7FE3FB78 		mr 3,31
 2648 00a0 48000001 		bl _ZdlPv
 2649              	.LVL200:
 2650              	.LBE3100:
 2651              	.LBE3099:
 2652              	.LBE3098:
 2653              	.LBE3097:
 2654              	.LBE3096:
 2655              	.LBE3095:
 2656              	.LBE3094:
 2657              	.LBE3091:
 2658              		.loc 1 755 0
 2659 00a4 7F9DF000 		cmpw 7,29,30
 2660 00a8 409EFFAC 		bne+ 7,.L148
 2661              	.LVL201:
 2662              	.L139:
 2663              	.LBB3101:
 2664              	.LBB3102:
 2665              	.LBB3103:
 2666              		.loc 1 343 0
 2667 00ac 813B0000 		lwz 9,0(27)
 2668 00b0 7F63DB78 		mr 3,27
 2669 00b4 8009000C 		lwz 0,12(9)
 2670 00b8 7C0903A6 		mtctr 0
 2671              	.LEHB18:
 2672 00bc 4E800421 		bctrl
 2673              	.LEHE18:
 2674              	.LBE3103:
 2675              	.LBE3102:
 2676              	.LBE3101:
 2677              	.LBE3108:
 2678              		.loc 1 769 0
 2679 00c0 80010024 		lwz 0,36(1)
 2680 00c4 8361000C 		lwz 27,12(1)
 2681              	.LVL202:
 2682 00c8 7C0803A6 		mtlr 0
 2683 00cc 83810010 		lwz 28,16(1)
 2684              	.LVL203:
 2685 00d0 83A10014 		lwz 29,20(1)
 2686              	.LVL204:
 2687 00d4 83C10018 		lwz 30,24(1)
 2688 00d8 83E1001C 		lwz 31,28(1)
 2689 00dc 38210020 		addi 1,1,32
 2690              		.cfi_remember_state
 2691              	.LCFI47:
 2692              		.cfi_def_cfa_offset 0
 2693              		.cfi_restore 31
 2694              		.cfi_restore 30
 2695              		.cfi_restore 29
 2696              		.cfi_restore 28
 2697              		.cfi_restore 27
 2698 00e0 4E800020 		blr
 2699              	.LVL205:
 2700              	.L149:
 2701              	.LCFI48:
 2702              		.cfi_restore_state
 2703              	.LBB3109:
 2704              	.LBB3104:
 2705              	.LBB3105:
 2706              	.LBB3106:
 2707              		.loc 1 343 0
 2708 00e4 813B0000 		lwz 9,0(27)
 2709 00e8 7C7F1B78 		mr 31,3
 2710              	.LVL206:
 2711 00ec 7F63DB78 		mr 3,27
 2712 00f0 8009000C 		lwz 0,12(9)
 2713 00f4 7C0903A6 		mtctr 0
 2714 00f8 4E800421 		bctrl
 2715 00fc 7FE3FB78 		mr 3,31
 2716              	.LEHB19:
 2717 0100 48000001 		bl _Unwind_Resume
 2718              	.LEHE19:
 2719              	.LBE3106:
 2720              	.LBE3105:
 2721              	.LBE3104:
 2722              	.LBE3109:
 2723              		.cfi_endproc
 2724              	.LFE2053:
 2725              		.section	.gcc_except_table
 2726              	.LLSDA2053:
 2727 005c FF       		.byte	0xff
 2728 005d FF       		.byte	0xff
 2729 005e 01       		.byte	0x1
 2730 005f 13       		.uleb128 .LLSDACSE2053-.LLSDACSB2053
 2731              	.LLSDACSB2053:
 2732 0060 38       		.uleb128 .LEHB16-.LFB2053
 2733 0061 04       		.uleb128 .LEHE16-.LEHB16
 2734 0062 00       		.uleb128 0
 2735 0063 00       		.uleb128 0
 2736 0064 6C       		.uleb128 .LEHB17-.LFB2053
 2737 0065 28       		.uleb128 .LEHE17-.LEHB17
 2738 0066 E401     		.uleb128 .L149-.LFB2053
 2739 0068 00       		.uleb128 0
 2740 0069 BC01     		.uleb128 .LEHB18-.LFB2053
 2741 006b 04       		.uleb128 .LEHE18-.LEHB18
 2742 006c 00       		.uleb128 0
 2743 006d 00       		.uleb128 0
 2744 006e 8002     		.uleb128 .LEHB19-.LFB2053
 2745 0070 04       		.uleb128 .LEHE19-.LEHB19
 2746 0071 00       		.uleb128 0
 2747 0072 00       		.uleb128 0
 2748              	.LLSDACSE2053:
 2749              		.section	.text._ZN7sigslot13_signal_base1IP4TaskNS_15single_threadedEE15slot_disconnectEPNS_9has_s
 2750              		.size	_ZN7sigslot13_signal_base1IP4TaskNS_15single_threadedEE15slot_disconnectEPNS_9has_slotsIS3_E
 2751              		.section	.text._ZN7sigslot13_signal_base2IP4TaskiNS_15single_threadedEE15slot_disconnectEPNS_9has_
 2752              		.align 2
 2753              		.weak	_ZN7sigslot13_signal_base2IP4TaskiNS_15single_threadedEE15slot_disconnectEPNS_9has_slotsIS3_
 2754              		.type	_ZN7sigslot13_signal_base2IP4TaskiNS_15single_threadedEE15slot_disconnectEPNS_9has_slotsIS3_
 2755              	_ZN7sigslot13_signal_base2IP4TaskiNS_15single_threadedEE15slot_disconnectEPNS_9has_slotsIS3_EE:
 2756              	.LFB2055:
 2757              		.loc 1 870 0
 2758              		.cfi_startproc
 2759              		.cfi_personality 0,__gxx_personality_v0
 2760              		.cfi_lsda 0,.LLSDA2055
 2761              	.LVL207:
 2762 0000 7C0802A6 		mflr 0
 2763 0004 9421FFE0 		stwu 1,-32(1)
 2764              	.LCFI49:
 2765              		.cfi_def_cfa_offset 32
 2766              		.cfi_register 65, 0
 2767 0008 9361000C 		stw 27,12(1)
 2768 000c 7C7B1B78 		mr 27,3
 2769              		.cfi_offset 27, -20
 2770              	.LVL208:
 2771 0010 90010024 		stw 0,36(1)
 2772 0014 93810010 		stw 28,16(1)
 2773 0018 7C9C2378 		mr 28,4
 2774              		.cfi_offset 28, -16
 2775              		.cfi_offset 65, 4
 2776              	.LBB3110:
 2777              	.LBB3111:
 2778              	.LBB3112:
 2779              		.loc 1 338 0
 2780 001c 81230000 		lwz 9,0(3)
 2781              	.LBE3112:
 2782              	.LBE3111:
 2783              	.LBE3110:
 2784              		.loc 1 870 0
 2785 0020 93A10014 		stw 29,20(1)
 2786              	.LBB3133:
 2787              	.LBB3115:
 2788              	.LBB3113:
 2789              		.loc 3 73 0
 2790 0024 7F7DDB78 		mr 29,27
 2791              		.cfi_offset 29, -12
 2792              		.loc 1 338 0
 2793 0028 80090008 		lwz 0,8(9)
 2794              	.LBE3113:
 2795              	.LBE3115:
 2796              	.LBE3133:
 2797              		.loc 1 870 0
 2798 002c 93E1001C 		stw 31,28(1)
 2799 0030 93C10018 		stw 30,24(1)
 2800              	.LBB3134:
 2801              	.LBB3116:
 2802              	.LBB3114:
 2803              		.loc 1 338 0
 2804 0034 7C0903A6 		mtctr 0
 2805              	.LEHB20:
 2806              		.cfi_offset 30, -8
 2807              		.cfi_offset 31, -4
 2808 0038 4E800421 		bctrl
 2809              	.LEHE20:
 2810              	.LVL209:
 2811              		.loc 3 73 0
 2812 003c 87FD0004 		lwzu 31,4(29)
 2813              	.LVL210:
 2814              	.LBE3114:
 2815              	.LBE3116:
 2816              		.loc 1 876 0
 2817 0040 7F9FE800 		cmpw 7,31,29
 2818 0044 40BE0014 		bne+ 7,.L163
 2819 0048 48000064 		b .L152
 2820              	.LVL211:
 2821              	.L153:
 2822              		.loc 1 876 0 is_stmt 0 discriminator 1
 2823 004c 7F9DF000 		cmpw 7,29,30
 2824 0050 419E005C 		beq- 7,.L152
 2825              	.L161:
 2826              		.loc 1 876 0
 2827 0054 7FDFF378 		mr 31,30
 2828              	.LVL212:
 2829              	.L163:
 2830              	.LBB3117:
 2831              		.loc 1 881 0 is_stmt 1
 2832 0058 807F0008 		lwz 3,8(31)
 2833              	.LBB3118:
 2834              	.LBB3119:
 2835              		.loc 4 154 0
 2836 005c 83DF0000 		lwz 30,0(31)
 2837              	.LVL213:
 2838              	.LBE3119:
 2839              	.LBE3118:
 2840              		.loc 1 881 0
 2841 0060 81230000 		lwz 9,0(3)
 2842 0064 80090008 		lwz 0,8(9)
 2843 0068 7C0903A6 		mtctr 0
 2844              	.LEHB21:
 2845 006c 4E800421 		bctrl
 2846              	.LVL214:
 2847 0070 7F9C1800 		cmpw 7,28,3
 2848 0074 409EFFD8 		bne+ 7,.L153
 2849              	.LVL215:
 2850              		.loc 1 883 0
 2851 0078 807F0008 		lwz 3,8(31)
 2852 007c 2F830000 		cmpwi 7,3,0
 2853 0080 419E0014 		beq- 7,.L154
 2854              		.loc 1 883 0 is_stmt 0 discriminator 1
 2855 0084 81230000 		lwz 9,0(3)
 2856 0088 80090004 		lwz 0,4(9)
 2857 008c 7C0903A6 		mtctr 0
 2858 0090 4E800421 		bctrl
 2859              	.LEHE21:
 2860              	.L154:
 2861              	.LVL216:
 2862              	.LBB3120:
 2863              	.LBB3121:
 2864              	.LBB3122:
 2865              	.LBB3123:
 2866              		.loc 4 1532 0 is_stmt 1
 2867 0094 7FE3FB78 		mr 3,31
 2868 0098 48000001 		bl _ZNSt8__detail15_List_node_base9_M_unhookEv
 2869              	.LVL217:
 2870              	.LBB3124:
 2871              	.LBB3125:
 2872              	.LBB3126:
 2873              		.loc 5 98 0
 2874 009c 7FE3FB78 		mr 3,31
 2875 00a0 48000001 		bl _ZdlPv
 2876              	.LVL218:
 2877              	.LBE3126:
 2878              	.LBE3125:
 2879              	.LBE3124:
 2880              	.LBE3123:
 2881              	.LBE3122:
 2882              	.LBE3121:
 2883              	.LBE3120:
 2884              	.LBE3117:
 2885              		.loc 1 876 0
 2886 00a4 7F9DF000 		cmpw 7,29,30
 2887 00a8 409EFFAC 		bne+ 7,.L161
 2888              	.LVL219:
 2889              	.L152:
 2890              	.LBB3127:
 2891              	.LBB3128:
 2892              	.LBB3129:
 2893              		.loc 1 343 0
 2894 00ac 813B0000 		lwz 9,0(27)
 2895 00b0 7F63DB78 		mr 3,27
 2896 00b4 8009000C 		lwz 0,12(9)
 2897 00b8 7C0903A6 		mtctr 0
 2898              	.LEHB22:
 2899 00bc 4E800421 		bctrl
 2900              	.LEHE22:
 2901              	.LBE3129:
 2902              	.LBE3128:
 2903              	.LBE3127:
 2904              	.LBE3134:
 2905              		.loc 1 890 0
 2906 00c0 80010024 		lwz 0,36(1)
 2907 00c4 8361000C 		lwz 27,12(1)
 2908              	.LVL220:
 2909 00c8 7C0803A6 		mtlr 0
 2910 00cc 83810010 		lwz 28,16(1)
 2911              	.LVL221:
 2912 00d0 83A10014 		lwz 29,20(1)
 2913              	.LVL222:
 2914 00d4 83C10018 		lwz 30,24(1)
 2915 00d8 83E1001C 		lwz 31,28(1)
 2916 00dc 38210020 		addi 1,1,32
 2917              		.cfi_remember_state
 2918              	.LCFI50:
 2919              		.cfi_def_cfa_offset 0
 2920              		.cfi_restore 31
 2921              		.cfi_restore 30
 2922              		.cfi_restore 29
 2923              		.cfi_restore 28
 2924              		.cfi_restore 27
 2925 00e0 4E800020 		blr
 2926              	.LVL223:
 2927              	.L162:
 2928              	.LCFI51:
 2929              		.cfi_restore_state
 2930              	.LBB3135:
 2931              	.LBB3130:
 2932              	.LBB3131:
 2933              	.LBB3132:
 2934              		.loc 1 343 0
 2935 00e4 813B0000 		lwz 9,0(27)
 2936 00e8 7C7F1B78 		mr 31,3
 2937              	.LVL224:
 2938 00ec 7F63DB78 		mr 3,27
 2939 00f0 8009000C 		lwz 0,12(9)
 2940 00f4 7C0903A6 		mtctr 0
 2941 00f8 4E800421 		bctrl
 2942 00fc 7FE3FB78 		mr 3,31
 2943              	.LEHB23:
 2944 0100 48000001 		bl _Unwind_Resume
 2945              	.LEHE23:
 2946              	.LBE3132:
 2947              	.LBE3131:
 2948              	.LBE3130:
 2949              	.LBE3135:
 2950              		.cfi_endproc
 2951              	.LFE2055:
 2952              		.section	.gcc_except_table
 2953              	.LLSDA2055:
 2954 0073 FF       		.byte	0xff
 2955 0074 FF       		.byte	0xff
 2956 0075 01       		.byte	0x1
 2957 0076 13       		.uleb128 .LLSDACSE2055-.LLSDACSB2055
 2958              	.LLSDACSB2055:
 2959 0077 38       		.uleb128 .LEHB20-.LFB2055
 2960 0078 04       		.uleb128 .LEHE20-.LEHB20
 2961 0079 00       		.uleb128 0
 2962 007a 00       		.uleb128 0
 2963 007b 6C       		.uleb128 .LEHB21-.LFB2055
 2964 007c 28       		.uleb128 .LEHE21-.LEHB21
 2965 007d E401     		.uleb128 .L162-.LFB2055
 2966 007f 00       		.uleb128 0
 2967 0080 BC01     		.uleb128 .LEHB22-.LFB2055
 2968 0082 04       		.uleb128 .LEHE22-.LEHB22
 2969 0083 00       		.uleb128 0
 2970 0084 00       		.uleb128 0
 2971 0085 8002     		.uleb128 .LEHB23-.LFB2055
 2972 0087 04       		.uleb128 .LEHE23-.LEHB23
 2973 0088 00       		.uleb128 0
 2974 0089 00       		.uleb128 0
 2975              	.LLSDACSE2055:
 2976              		.section	.text._ZN7sigslot13_signal_base2IP4TaskiNS_15single_threadedEE15slot_disconnectEPNS_9has_
 2977              		.size	_ZN7sigslot13_signal_base2IP4TaskiNS_15single_threadedEE15slot_disconnectEPNS_9has_slotsIS3_
 2978              		.section	.text._ZN16SimpleGuiTriggerD2Ev,"axG",@progbits,_ZN16SimpleGuiTriggerD5Ev,comdat
 2979              		.align 2
 2980              		.weak	_ZN16SimpleGuiTriggerD2Ev
 2981              		.type	_ZN16SimpleGuiTriggerD2Ev, @function
 2982              	_ZN16SimpleGuiTriggerD2Ev:
 2983              	.LFB1471:
 2984              		.file 6 "d:/Projects/SaveGameManager/savegame-manager-gx/trunk/source/Controls/../GUI/gui_trigger.
 2985              		.loc 6 91 0
 2986              		.cfi_startproc
 2987              	.LVL225:
 2988 0000 7C0802A6 		mflr 0
 2989 0004 9421FFF8 		stwu 1,-8(1)
 2990              	.LCFI52:
 2991              		.cfi_def_cfa_offset 8
 2992              		.cfi_register 65, 0
 2993              	.LBB3137:
 2994 0008 3D200000 		lis 9,_ZTV16SimpleGuiTrigger+8@ha
 2995              	.LBE3137:
 2996 000c 9001000C 		stw 0,12(1)
 2997              	.LBB3138:
 2998              		.loc 6 91 0
 2999 0010 38090008 		la 0,_ZTV16SimpleGuiTrigger+8@l(9)
 3000              		.cfi_offset 65, 4
 3001 0014 90030000 		stw 0,0(3)
 3002 0018 48000001 		bl _ZN10GuiTriggerD2Ev
 3003              	.LVL226:
 3004              	.LBE3138:
 3005 001c 8001000C 		lwz 0,12(1)
 3006 0020 38210008 		addi 1,1,8
 3007              	.LCFI53:
 3008              		.cfi_def_cfa_offset 0
 3009 0024 7C0803A6 		mtlr 0
 3010 0028 4E800020 		blr
 3011              		.cfi_endproc
 3012              	.LFE1471:
 3013              		.size	_ZN16SimpleGuiTriggerD2Ev, .-_ZN16SimpleGuiTriggerD2Ev
 3014              		.section	.text._ZN10GuiElement10ResetStateEv,"axG",@progbits,_ZN10GuiElement10ResetStateEv,comdat
 3015              		.align 2
 3016              		.weak	_ZN10GuiElement10ResetStateEv
 3017              		.type	_ZN10GuiElement10ResetStateEv, @function
 3018              	_ZN10GuiElement10ResetStateEv:
 3019              	.LFB1402:
 3020              		.loc 2 183 0
 3021              		.cfi_startproc
 3022              	.LVL227:
 3023 0000 7C0802A6 		mflr 0
 3024 0004 9421FFF8 		stwu 1,-8(1)
 3025              	.LCFI54:
 3026              		.cfi_def_cfa_offset 8
 3027              		.cfi_register 65, 0
 3028 0008 9001000C 		stw 0,12(1)
 3029              		.loc 2 185 0
 3030 000c 80030048 		lwz 0,72(3)
 3031              		.cfi_offset 65, 4
 3032 0010 2F800004 		cmpwi 7,0,4
 3033 0014 419E001C 		beq- 7,.L166
 3034              	.LVL228:
 3035              	.LBB3141:
 3036              	.LBB3142:
 3037              		.loc 2 186 0
 3038 0018 81230000 		lwz 9,0(3)
 3039 001c 38800000 		li 4,0
 3040 0020 38A0FFFF 		li 5,-1
 3041 0024 80090050 		lwz 0,80(9)
 3042 0028 7C0903A6 		mtctr 0
 3043 002c 4E800421 		bctrl
 3044              	.LVL229:
 3045              	.L166:
 3046              	.LBE3142:
 3047              	.LBE3141:
 3048              		.loc 2 187 0
 3049 0030 8001000C 		lwz 0,12(1)
 3050 0034 38210008 		addi 1,1,8
 3051              	.LCFI55:
 3052              		.cfi_def_cfa_offset 0
 3053 0038 7C0803A6 		mtlr 0
 3054 003c 4E800020 		blr
 3055              		.cfi_endproc
 3056              	.LFE1402:
 3057              		.size	_ZN10GuiElement10ResetStateEv, .-_ZN10GuiElement10ResetStateEv
 3058              		.section	.text._ZN16SimpleGuiTriggerD0Ev,"axG",@progbits,_ZN16SimpleGuiTriggerD5Ev,comdat
 3059              		.align 2
 3060              		.weak	_ZN16SimpleGuiTriggerD0Ev
 3061              		.type	_ZN16SimpleGuiTriggerD0Ev, @function
 3062              	_ZN16SimpleGuiTriggerD0Ev:
 3063              	.LFB1473:
 3064              		.loc 6 91 0
 3065              		.cfi_startproc
 3066              	.LVL230:
 3067 0000 7C0802A6 		mflr 0
 3068 0004 9421FFF0 		stwu 1,-16(1)
 3069              	.LCFI56:
 3070              		.cfi_def_cfa_offset 16
 3071              		.cfi_register 65, 0
 3072              	.LBB3146:
 3073              	.LBB3147:
 3074              	.LBB3148:
 3075 0008 3D200000 		lis 9,_ZTV16SimpleGuiTrigger+8@ha
 3076              	.LBE3148:
 3077              	.LBE3147:
 3078              	.LBE3146:
 3079 000c 93E1000C 		stw 31,12(1)
 3080 0010 7C7F1B78 		mr 31,3
 3081              		.cfi_offset 31, -4
 3082              	.LVL231:
 3083 0014 90010014 		stw 0,20(1)
 3084              	.LBB3151:
 3085              	.LBB3150:
 3086              	.LBB3149:
 3087              		.loc 6 91 0
 3088 0018 38090008 		la 0,_ZTV16SimpleGuiTrigger+8@l(9)
 3089              		.cfi_offset 65, 4
 3090 001c 90030000 		stw 0,0(3)
 3091 0020 48000001 		bl _ZN10GuiTriggerD2Ev
 3092              	.LVL232:
 3093              	.LBE3149:
 3094              	.LBE3150:
 3095              	.LBE3151:
 3096 0024 7FE3FB78 		mr 3,31
 3097 0028 48000001 		bl _ZdlPv
 3098 002c 80010014 		lwz 0,20(1)
 3099 0030 83E1000C 		lwz 31,12(1)
 3100              	.LVL233:
 3101 0034 7C0803A6 		mtlr 0
 3102 0038 38210010 		addi 1,1,16
 3103              	.LCFI57:
 3104              		.cfi_def_cfa_offset 0
 3105              		.cfi_restore 31
 3106 003c 4E800020 		blr
 3107              		.cfi_endproc
 3108              	.LFE1473:
 3109              		.size	_ZN16SimpleGuiTriggerD0Ev, .-_ZN16SimpleGuiTriggerD0Ev
 3110              		.section	".text"
 3111              		.align 2
 3112              		.globl _ZN4Task7SetIconEP12GuiImageData
 3113              		.type	_ZN4Task7SetIconEP12GuiImageData, @function
 3114              	_ZN4Task7SetIconEP12GuiImageData:
 3115              	.LFB1477:
 3116              		.loc 3 61 0
 3117              		.cfi_startproc
 3118              		.cfi_personality 0,__gxx_personality_v0
 3119              		.cfi_lsda 0,.LLSDA1477
 3120              	.LVL234:
 3121 00f0 7C0802A6 		mflr 0
 3122 00f4 9421FFE8 		stwu 1,-24(1)
 3123              	.LCFI58:
 3124              		.cfi_def_cfa_offset 24
 3125              		.cfi_register 65, 0
 3126 00f8 93E10014 		stw 31,20(1)
 3127 00fc 7C7F1B78 		mr 31,3
 3128              		.cfi_offset 31, -4
 3129 0100 9001001C 		stw 0,28(1)
 3130 0104 93A1000C 		stw 29,12(1)
 3131 0108 7C9D2378 		mr 29,4
 3132              		.cfi_offset 29, -12
 3133              		.cfi_offset 65, 4
 3134              		.loc 3 62 0
 3135 010c 80630190 		lwz 3,400(3)
 3136              	.LVL235:
 3137              		.loc 3 61 0
 3138 0110 93C10010 		stw 30,16(1)
 3139              		.loc 3 62 0
 3140 0114 2F830000 		cmpwi 7,3,0
 3141 0118 419E0014 		beq- 7,.L172
 3142              		.cfi_offset 30, -8
 3143              		.loc 3 63 0 discriminator 1
 3144 011c 81230000 		lwz 9,0(3)
 3145 0120 80090004 		lwz 0,4(9)
 3146 0124 7C0903A6 		mtctr 0
 3147              	.LEHB24:
 3148 0128 4E800421 		bctrl
 3149              	.LVL236:
 3150              	.L172:
 3151              		.loc 3 65 0
 3152 012c 386000C4 		li 3,196
 3153 0130 48000001 		bl _Znwj
 3154              	.LEHE24:
 3155 0134 7FA4EB78 		mr 4,29
 3156 0138 7C7E1B78 		mr 30,3
 3157              	.LEHB25:
 3158 013c 48000001 		bl _ZN8GuiImageC1EP12GuiImageData
 3159              	.LEHE25:
 3160              		.loc 3 65 0 is_stmt 0 discriminator 1
 3161 0140 93DF0190 		stw 30,400(31)
 3162              		.loc 3 66 0 is_stmt 1 discriminator 1
 3163 0144 7FE3FB78 		mr 3,31
 3164 0148 7FC4F378 		mr 4,30
 3165              	.LEHB26:
 3166 014c 48000001 		bl _ZN9GuiButton7SetIconEP8GuiImage
 3167              		.loc 3 67 0 discriminator 1
 3168 0150 8001001C 		lwz 0,28(1)
 3169 0154 83A1000C 		lwz 29,12(1)
 3170              	.LVL237:
 3171 0158 7C0803A6 		mtlr 0
 3172 015c 83C10010 		lwz 30,16(1)
 3173 0160 83E10014 		lwz 31,20(1)
 3174              	.LVL238:
 3175 0164 38210018 		addi 1,1,24
 3176              		.cfi_remember_state
 3177              	.LCFI59:
 3178              		.cfi_def_cfa_offset 0
 3179              		.cfi_restore 31
 3180              		.cfi_restore 30
 3181              		.cfi_restore 29
 3182 0168 4E800020 		blr
 3183              	.LVL239:
 3184              	.L174:
 3185              	.LCFI60:
 3186              		.cfi_restore_state
 3187 016c 7C7F1B78 		mr 31,3
 3188              	.LVL240:
 3189              		.loc 3 65 0
 3190 0170 7FC3F378 		mr 3,30
 3191 0174 48000001 		bl _ZdlPv
 3192 0178 7FE3FB78 		mr 3,31
 3193 017c 48000001 		bl _Unwind_Resume
 3194              	.LEHE26:
 3195              		.cfi_endproc
 3196              	.LFE1477:
 3197              		.section	.gcc_except_table
 3198              	.LLSDA1477:
 3199 008a FF       		.byte	0xff
 3200 008b FF       		.byte	0xff
 3201 008c 01       		.byte	0x1
 3202 008d 0C       		.uleb128 .LLSDACSE1477-.LLSDACSB1477
 3203              	.LLSDACSB1477:
 3204 008e 38       		.uleb128 .LEHB24-.LFB1477
 3205 008f 0C       		.uleb128 .LEHE24-.LEHB24
 3206 0090 00       		.uleb128 0
 3207 0091 00       		.uleb128 0
 3208 0092 4C       		.uleb128 .LEHB25-.LFB1477
 3209 0093 04       		.uleb128 .LEHE25-.LEHB25
 3210 0094 7C       		.uleb128 .L174-.LFB1477
 3211 0095 00       		.uleb128 0
 3212 0096 5C       		.uleb128 .LEHB26-.LFB1477
 3213 0097 34       		.uleb128 .LEHE26-.LEHB26
 3214 0098 00       		.uleb128 0
 3215 0099 00       		.uleb128 0
 3216              	.LLSDACSE1477:
 3217              		.section	".text"
 3218              		.size	_ZN4Task7SetIconEP12GuiImageData, .-_ZN4Task7SetIconEP12GuiImageData
 3219              		.section	.text._ZNSt8_Rb_treeIPN7sigslot12_signal_baseINS0_15single_threadedEEES4_St9_IdentityIS4_
 3220              		.align 2
 3221              		.weak	_ZNSt8_Rb_treeIPN7sigslot12_signal_baseINS0_15single_threadedEEES4_St9_IdentityIS4_ESt4lessI
 3222              		.type	_ZNSt8_Rb_treeIPN7sigslot12_signal_baseINS0_15single_threadedEEES4_St9_IdentityIS4_ESt4lessI
 3223              	_ZNSt8_Rb_treeIPN7sigslot12_signal_baseINS0_15single_threadedEEES4_St9_IdentityIS4_ESt4lessIS4_ESaI
 3224              	.LFB1675:
 3225              		.file 7 "d:\\devkitpro\\devkitppc\\bin\\../lib/gcc/powerpc-eabi/4.6.3/../../../../powerpc-eabi/inc
 3226              		.loc 7 1068 0
 3227              		.cfi_startproc
 3228              	.LVL241:
 3229 0000 9421FFC8 		stwu 1,-56(1)
 3230              	.LCFI61:
 3231              		.cfi_def_cfa_offset 56
 3232 0004 7C0802A6 		mflr 0
 3233 0008 92C10010 		stw 22,16(1)
 3234              	.LBB3268:
 3235              		.loc 7 1072 0
 3236 000c 7C962379 		mr. 22,4
 3237              		.cfi_offset 22, -40
 3238              		.cfi_register 65, 0
 3239              	.LBE3268:
 3240              		.loc 7 1068 0
 3241 0010 93C10030 		stw 30,48(1)
 3242 0014 7C7E1B78 		mr 30,3
 3243              		.cfi_offset 30, -8
 3244 0018 9001003C 		stw 0,60(1)
 3245 001c 92A1000C 		stw 21,12(1)
 3246 0020 92E10014 		stw 23,20(1)
 3247 0024 93010018 		stw 24,24(1)
 3248 0028 9321001C 		stw 25,28(1)
 3249 002c 93410020 		stw 26,32(1)
 3250 0030 93610024 		stw 27,36(1)
 3251 0034 93810028 		stw 28,40(1)
 3252 0038 93A1002C 		stw 29,44(1)
 3253 003c 93E10034 		stw 31,52(1)
 3254              	.LBB3353:
 3255              		.loc 7 1072 0
 3256 0040 41820168 		beq- 0,.L175
 3257              		.cfi_offset 31, -4
 3258              		.cfi_offset 29, -12
 3259              		.cfi_offset 28, -16
 3260              		.cfi_offset 27, -20
 3261              		.cfi_offset 26, -24
 3262              		.cfi_offset 25, -28
 3263              		.cfi_offset 24, -32
 3264              		.cfi_offset 23, -36
 3265              		.cfi_offset 21, -44
 3266              		.cfi_offset 65, 4
 3267              	.LVL242:
 3268              	.L221:
 3269              		.loc 3 73 0
 3270 0044 8376000C 		lwz 27,12(22)
 3271              	.LVL243:
 3272              	.LBB3269:
 3273              	.LBB3270:
 3274              	.LBB3271:
 3275              		.loc 7 1072 0
 3276 0048 2F9B0000 		cmpwi 7,27,0
 3277 004c 419E0140 		beq- 7,.L177
 3278              	.LVL244:
 3279              	.L222:
 3280              	.LBE3271:
 3281              		.loc 3 73 0
 3282 0050 835B000C 		lwz 26,12(27)
 3283              	.LVL245:
 3284              	.LBB3347:
 3285              	.LBB3272:
 3286              	.LBB3273:
 3287              	.LBB3274:
 3288              		.loc 7 1072 0
 3289 0054 2F9A0000 		cmpwi 7,26,0
 3290 0058 419E0118 		beq- 7,.L178
 3291              	.LVL246:
 3292              	.L223:
 3293              	.LBE3274:
 3294              		.loc 3 73 0
 3295 005c 833A000C 		lwz 25,12(26)
 3296              	.LVL247:
 3297              	.LBB3340:
 3298              	.LBB3275:
 3299              	.LBB3276:
 3300              	.LBB3277:
 3301              		.loc 7 1072 0
 3302 0060 2F990000 		cmpwi 7,25,0
 3303 0064 419E00F0 		beq- 7,.L179
 3304              	.LVL248:
 3305              	.L224:
 3306              	.LBE3277:
 3307              		.loc 3 73 0
 3308 0068 8319000C 		lwz 24,12(25)
 3309              	.LVL249:
 3310              	.LBB3333:
 3311              	.LBB3278:
 3312              	.LBB3279:
 3313              	.LBB3280:
 3314              		.loc 7 1072 0
 3315 006c 2F980000 		cmpwi 7,24,0
 3316 0070 419E00C8 		beq- 7,.L180
 3317              	.LVL250:
 3318              	.L225:
 3319              	.LBE3280:
 3320              		.loc 3 73 0
 3321 0074 82F8000C 		lwz 23,12(24)
 3322              	.LVL251:
 3323              	.LBB3326:
 3324              	.LBB3281:
 3325              	.LBB3282:
 3326              	.LBB3283:
 3327              		.loc 7 1072 0
 3328 0078 2F970000 		cmpwi 7,23,0
 3329 007c 419E00A0 		beq- 7,.L181
 3330              	.LVL252:
 3331              	.L226:
 3332              	.LBE3283:
 3333              		.loc 3 73 0
 3334 0080 8397000C 		lwz 28,12(23)
 3335              	.LVL253:
 3336              	.LBB3319:
 3337              	.LBB3284:
 3338              	.LBB3285:
 3339              	.LBB3286:
 3340              		.loc 7 1072 0
 3341 0084 2F9C0000 		cmpwi 7,28,0
 3342 0088 419E0078 		beq- 7,.L182
 3343              	.LVL254:
 3344              	.L227:
 3345              	.LBE3286:
 3346              		.loc 3 73 0
 3347 008c 83BC000C 		lwz 29,12(28)
 3348              	.LVL255:
 3349              	.LBB3312:
 3350              	.LBB3287:
 3351              	.LBB3288:
 3352              	.LBB3289:
 3353              		.loc 7 1072 0
 3354 0090 2F9D0000 		cmpwi 7,29,0
 3355 0094 419E0050 		beq- 7,.L183
 3356              	.LVL256:
 3357              	.L228:
 3358              	.LBE3289:
 3359              		.loc 3 73 0
 3360 0098 83FD000C 		lwz 31,12(29)
 3361              	.LVL257:
 3362              	.LBB3305:
 3363              	.LBB3290:
 3364              	.LBB3291:
 3365              	.LBB3292:
 3366              		.loc 7 1072 0
 3367 009c 2F9F0000 		cmpwi 7,31,0
 3368 00a0 419E0028 		beq- 7,.L184
 3369              	.LVL258:
 3370              	.L229:
 3371              	.LBB3293:
 3372              		.loc 7 1074 0
 3373 00a4 809F000C 		lwz 4,12(31)
 3374 00a8 7FC3F378 		mr 3,30
 3375 00ac 48000001 		bl _ZNSt8_Rb_treeIPN7sigslot12_signal_baseINS0_15single_threadedEEES4_St9_IdentityIS4_ESt4lessIS4_
 3376              	.LBE3293:
 3377              	.LBE3292:
 3378              		.loc 3 73 0
 3379 00b0 82BF0008 		lwz 21,8(31)
 3380              	.LVL259:
 3381              	.LBB3299:
 3382              	.LBB3298:
 3383              	.LBB3294:
 3384              	.LBB3295:
 3385              	.LBB3296:
 3386              	.LBB3297:
 3387              		.loc 5 98 0
 3388 00b4 7FE3FB78 		mr 3,31
 3389 00b8 48000001 		bl _ZdlPv
 3390              	.LVL260:
 3391              	.LBE3297:
 3392              	.LBE3296:
 3393              	.LBE3295:
 3394              	.LBE3294:
 3395              	.LBE3298:
 3396              		.loc 7 1072 0
 3397 00bc 2F950000 		cmpwi 7,21,0
 3398              		.loc 7 1077 0
 3399 00c0 7EBFAB78 		mr 31,21
 3400              	.LVL261:
 3401              		.loc 7 1072 0
 3402 00c4 409EFFE0 		bne+ 7,.L229
 3403              	.LVL262:
 3404              	.L184:
 3405              	.LBE3299:
 3406              	.LBE3291:
 3407              	.LBE3290:
 3408              	.LBE3305:
 3409              		.loc 3 73 0
 3410 00c8 83FD0008 		lwz 31,8(29)
 3411              	.LVL263:
 3412              	.LBB3306:
 3413              	.LBB3304:
 3414              	.LBB3300:
 3415              	.LBB3301:
 3416              	.LBB3302:
 3417              	.LBB3303:
 3418              		.loc 5 98 0
 3419 00cc 7FA3EB78 		mr 3,29
 3420 00d0 48000001 		bl _ZdlPv
 3421              	.LVL264:
 3422              	.LBE3303:
 3423              	.LBE3302:
 3424              	.LBE3301:
 3425              	.LBE3300:
 3426              	.LBE3304:
 3427              		.loc 7 1072 0
 3428 00d4 2F9F0000 		cmpwi 7,31,0
 3429 00d8 419E000C 		beq- 7,.L183
 3430              		.loc 7 1077 0
 3431 00dc 7FFDFB78 		mr 29,31
 3432              	.LVL265:
 3433 00e0 4BFFFFB8 		b .L228
 3434              	.LVL266:
 3435              	.L183:
 3436              	.LBE3306:
 3437              	.LBE3288:
 3438              	.LBE3287:
 3439              	.LBE3312:
 3440              		.loc 3 73 0
 3441 00e4 83FC0008 		lwz 31,8(28)
 3442              	.LVL267:
 3443              	.LBB3313:
 3444              	.LBB3311:
 3445              	.LBB3307:
 3446              	.LBB3308:
 3447              	.LBB3309:
 3448              	.LBB3310:
 3449              		.loc 5 98 0
 3450 00e8 7F83E378 		mr 3,28
 3451 00ec 48000001 		bl _ZdlPv
 3452              	.LVL268:
 3453              	.LBE3310:
 3454              	.LBE3309:
 3455              	.LBE3308:
 3456              	.LBE3307:
 3457              	.LBE3311:
 3458              		.loc 7 1072 0
 3459 00f0 2F9F0000 		cmpwi 7,31,0
 3460 00f4 419E000C 		beq- 7,.L182
 3461              		.loc 7 1077 0
 3462 00f8 7FFCFB78 		mr 28,31
 3463              	.LVL269:
 3464 00fc 4BFFFF90 		b .L227
 3465              	.LVL270:
 3466              	.L182:
 3467              	.LBE3313:
 3468              	.LBE3285:
 3469              	.LBE3284:
 3470              	.LBE3319:
 3471              		.loc 3 73 0
 3472 0100 83F70008 		lwz 31,8(23)
 3473              	.LVL271:
 3474              	.LBB3320:
 3475              	.LBB3318:
 3476              	.LBB3314:
 3477              	.LBB3315:
 3478              	.LBB3316:
 3479              	.LBB3317:
 3480              		.loc 5 98 0
 3481 0104 7EE3BB78 		mr 3,23
 3482 0108 48000001 		bl _ZdlPv
 3483              	.LVL272:
 3484              	.LBE3317:
 3485              	.LBE3316:
 3486              	.LBE3315:
 3487              	.LBE3314:
 3488              	.LBE3318:
 3489              		.loc 7 1072 0
 3490 010c 2F9F0000 		cmpwi 7,31,0
 3491 0110 419E000C 		beq- 7,.L181
 3492              		.loc 7 1077 0
 3493 0114 7FF7FB78 		mr 23,31
 3494              	.LVL273:
 3495 0118 4BFFFF68 		b .L226
 3496              	.LVL274:
 3497              	.L181:
 3498              	.LBE3320:
 3499              	.LBE3282:
 3500              	.LBE3281:
 3501              	.LBE3326:
 3502              		.loc 3 73 0
 3503 011c 83F80008 		lwz 31,8(24)
 3504              	.LVL275:
 3505              	.LBB3327:
 3506              	.LBB3325:
 3507              	.LBB3321:
 3508              	.LBB3322:
 3509              	.LBB3323:
 3510              	.LBB3324:
 3511              		.loc 5 98 0
 3512 0120 7F03C378 		mr 3,24
 3513 0124 48000001 		bl _ZdlPv
 3514              	.LVL276:
 3515              	.LBE3324:
 3516              	.LBE3323:
 3517              	.LBE3322:
 3518              	.LBE3321:
 3519              	.LBE3325:
 3520              		.loc 7 1072 0
 3521 0128 2F9F0000 		cmpwi 7,31,0
 3522 012c 419E000C 		beq- 7,.L180
 3523              		.loc 7 1077 0
 3524 0130 7FF8FB78 		mr 24,31
 3525              	.LVL277:
 3526 0134 4BFFFF40 		b .L225
 3527              	.LVL278:
 3528              	.L180:
 3529              	.LBE3327:
 3530              	.LBE3279:
 3531              	.LBE3278:
 3532              	.LBE3333:
 3533              		.loc 3 73 0
 3534 0138 83F90008 		lwz 31,8(25)
 3535              	.LVL279:
 3536              	.LBB3334:
 3537              	.LBB3332:
 3538              	.LBB3328:
 3539              	.LBB3329:
 3540              	.LBB3330:
 3541              	.LBB3331:
 3542              		.loc 5 98 0
 3543 013c 7F23CB78 		mr 3,25
 3544 0140 48000001 		bl _ZdlPv
 3545              	.LVL280:
 3546              	.LBE3331:
 3547              	.LBE3330:
 3548              	.LBE3329:
 3549              	.LBE3328:
 3550              	.LBE3332:
 3551              		.loc 7 1072 0
 3552 0144 2F9F0000 		cmpwi 7,31,0
 3553 0148 419E000C 		beq- 7,.L179
 3554              		.loc 7 1077 0
 3555 014c 7FF9FB78 		mr 25,31
 3556              	.LVL281:
 3557 0150 4BFFFF18 		b .L224
 3558              	.LVL282:
 3559              	.L179:
 3560              	.LBE3334:
 3561              	.LBE3276:
 3562              	.LBE3275:
 3563              	.LBE3340:
 3564              		.loc 3 73 0
 3565 0154 83FA0008 		lwz 31,8(26)
 3566              	.LVL283:
 3567              	.LBB3341:
 3568              	.LBB3339:
 3569              	.LBB3335:
 3570              	.LBB3336:
 3571              	.LBB3337:
 3572              	.LBB3338:
 3573              		.loc 5 98 0
 3574 0158 7F43D378 		mr 3,26
 3575 015c 48000001 		bl _ZdlPv
 3576              	.LVL284:
 3577              	.LBE3338:
 3578              	.LBE3337:
 3579              	.LBE3336:
 3580              	.LBE3335:
 3581              	.LBE3339:
 3582              		.loc 7 1072 0
 3583 0160 2F9F0000 		cmpwi 7,31,0
 3584 0164 419E000C 		beq- 7,.L178
 3585              		.loc 7 1077 0
 3586 0168 7FFAFB78 		mr 26,31
 3587              	.LVL285:
 3588 016c 4BFFFEF0 		b .L223
 3589              	.LVL286:
 3590              	.L178:
 3591              	.LBE3341:
 3592              	.LBE3273:
 3593              	.LBE3272:
 3594              	.LBE3347:
 3595              		.loc 3 73 0
 3596 0170 83FB0008 		lwz 31,8(27)
 3597              	.LVL287:
 3598              	.LBB3348:
 3599              	.LBB3346:
 3600              	.LBB3342:
 3601              	.LBB3343:
 3602              	.LBB3344:
 3603              	.LBB3345:
 3604              		.loc 5 98 0
 3605 0174 7F63DB78 		mr 3,27
 3606 0178 48000001 		bl _ZdlPv
 3607              	.LVL288:
 3608              	.LBE3345:
 3609              	.LBE3344:
 3610              	.LBE3343:
 3611              	.LBE3342:
 3612              	.LBE3346:
 3613              		.loc 7 1072 0
 3614 017c 2F9F0000 		cmpwi 7,31,0
 3615 0180 419E000C 		beq- 7,.L177
 3616              		.loc 7 1077 0
 3617 0184 7FFBFB78 		mr 27,31
 3618              	.LVL289:
 3619 0188 4BFFFEC8 		b .L222
 3620              	.LVL290:
 3621              	.L177:
 3622              		.loc 3 73 0
 3623 018c 83F60008 		lwz 31,8(22)
 3624              	.LVL291:
 3625              	.LBE3348:
 3626              	.LBE3270:
 3627              	.LBB3349:
 3628              	.LBB3350:
 3629              	.LBB3351:
 3630              	.LBB3352:
 3631              		.loc 5 98 0
 3632 0190 7EC3B378 		mr 3,22
 3633 0194 48000001 		bl _ZdlPv
 3634              	.LVL292:
 3635              	.LBE3352:
 3636              	.LBE3351:
 3637              	.LBE3350:
 3638              	.LBE3349:
 3639              	.LBE3269:
 3640              		.loc 7 1072 0
 3641 0198 2F9F0000 		cmpwi 7,31,0
 3642 019c 419E000C 		beq- 7,.L175
 3643              		.loc 7 1077 0
 3644 01a0 7FF6FB78 		mr 22,31
 3645              	.LVL293:
 3646 01a4 4BFFFEA0 		b .L221
 3647              	.LVL294:
 3648              	.L175:
 3649              	.LBE3353:
 3650              		.loc 7 1079 0
 3651 01a8 8001003C 		lwz 0,60(1)
 3652 01ac 82A1000C 		lwz 21,12(1)
 3653 01b0 7C0803A6 		mtlr 0
 3654 01b4 82C10010 		lwz 22,16(1)
 3655 01b8 82E10014 		lwz 23,20(1)
 3656 01bc 83010018 		lwz 24,24(1)
 3657 01c0 8321001C 		lwz 25,28(1)
 3658 01c4 83410020 		lwz 26,32(1)
 3659 01c8 83610024 		lwz 27,36(1)
 3660 01cc 83810028 		lwz 28,40(1)
 3661 01d0 83A1002C 		lwz 29,44(1)
 3662 01d4 83C10030 		lwz 30,48(1)
 3663              	.LVL295:
 3664 01d8 83E10034 		lwz 31,52(1)
 3665 01dc 38210038 		addi 1,1,56
 3666              	.LCFI62:
 3667              		.cfi_def_cfa_offset 0
 3668              		.cfi_restore 31
 3669              		.cfi_restore 30
 3670              		.cfi_restore 29
 3671              		.cfi_restore 28
 3672              		.cfi_restore 27
 3673              		.cfi_restore 26
 3674              		.cfi_restore 25
 3675              		.cfi_restore 24
 3676              		.cfi_restore 23
 3677              		.cfi_restore 22
 3678              		.cfi_restore 21
 3679 01e0 4E800020 		blr
 3680              		.cfi_endproc
 3681              	.LFE1675:
 3682              		.size	_ZNSt8_Rb_treeIPN7sigslot12_signal_baseINS0_15single_threadedEEES4_St9_IdentityIS4_ESt4lessI
 3683              		.section	.text._ZN7sigslot9has_slotsINS_15single_threadedEED2Ev,"axG",@progbits,_ZN7sigslot9has_sl
 3684              		.align 2
 3685              		.weak	_ZN7sigslot9has_slotsINS_15single_threadedEED2Ev
 3686              		.type	_ZN7sigslot9has_slotsINS_15single_threadedEED2Ev, @function
 3687              	_ZN7sigslot9has_slotsINS_15single_threadedEED2Ev:
 3688              	.LFB1512:
 3689              		.loc 1 513 0
 3690              		.cfi_startproc
 3691              		.cfi_personality 0,__gxx_personality_v0
 3692              		.cfi_lsda 0,.LLSDA1512
 3693              	.LVL296:
 3694 0000 7C0802A6 		mflr 0
 3695 0004 9421FFE0 		stwu 1,-32(1)
 3696              	.LCFI63:
 3697              		.cfi_def_cfa_offset 32
 3698              		.cfi_register 65, 0
 3699              	.LBB3500:
 3700              		.loc 1 516 0
 3701 0008 3D200000 		lis 9,_ZTVN7sigslot9has_slotsINS_15single_threadedEEE+8@ha
 3702              	.LBE3500:
 3703              		.loc 1 513 0
 3704 000c 93810010 		stw 28,16(1)
 3705 0010 3B830004 		addi 28,3,4
 3706              		.cfi_offset 28, -16
 3707 0014 90010024 		stw 0,36(1)
 3708              	.LBB3576:
 3709              		.loc 1 516 0
 3710 0018 38090008 		la 0,_ZTVN7sigslot9has_slotsINS_15single_threadedEEE+8@l(9)
 3711              		.cfi_offset 65, 4
 3712              	.LBE3576:
 3713              		.loc 1 513 0
 3714 001c 93A10014 		stw 29,20(1)
 3715 0020 7C7D1B78 		mr 29,3
 3716              		.cfi_offset 29, -12
 3717 0024 93410008 		stw 26,8(1)
 3718 0028 9361000C 		stw 27,12(1)
 3719 002c 93C10018 		stw 30,24(1)
 3720 0030 93E1001C 		stw 31,28(1)
 3721              	.LBB3577:
 3722              		.loc 1 516 0
 3723 0034 90030000 		stw 0,0(3)
 3724              	.LVL297:
 3725              	.LEHB27:
 3726              	.LBB3501:
 3727              	.LBB3502:
 3728              	.LBB3503:
 3729              	.LBB3504:
 3730              		.loc 1 338 0
 3731              		.cfi_offset 31, -4
 3732              		.cfi_offset 30, -8
 3733              		.cfi_offset 27, -20
 3734              		.cfi_offset 26, -24
 3735 0038 48000001 		bl _ZN7sigslot15single_threaded4lockEv
 3736              	.LEHE27:
 3737              	.LVL298:
 3738              	.LBE3504:
 3739              	.LBE3503:
 3740              	.LBB3505:
 3741              		.loc 3 73 0
 3742 003c 83FD0010 		lwz 31,16(29)
 3743              	.LVL299:
 3744              	.LBE3505:
 3745              	.LBB3506:
 3746              	.LBB3507:
 3747              	.LBB3508:
 3748              		.loc 7 671 0
 3749 0040 3BDC0004 		addi 30,28,4
 3750              	.LVL300:
 3751              	.LBE3508:
 3752              	.LBE3507:
 3753              	.LBE3506:
 3754              		.loc 1 524 0
 3755 0044 7F9FF000 		cmpw 7,31,30
 3756 0048 419E0034 		beq- 7,.L231
 3757              	.LVL301:
 3758              	.L258:
 3759              		.loc 1 526 0
 3760 004c 807F0010 		lwz 3,16(31)
 3761 0050 7FA4EB78 		mr 4,29
 3762 0054 81230000 		lwz 9,0(3)
 3763 0058 80090010 		lwz 0,16(9)
 3764 005c 7C0903A6 		mtctr 0
 3765              	.LEHB28:
 3766 0060 4E800421 		bctrl
 3767              	.LEHE28:
 3768              	.LVL302:
 3769              	.LBB3509:
 3770              	.LBB3510:
 3771              		.loc 7 269 0
 3772 0064 7FE3FB78 		mr 3,31
 3773 0068 48000001 		bl _ZSt18_Rb_tree_incrementPKSt18_Rb_tree_node_base
 3774              	.LBE3510:
 3775              	.LBE3509:
 3776              		.loc 1 524 0
 3777 006c 7F9E1800 		cmpw 7,30,3
 3778              	.LBB3512:
 3779              	.LBB3511:
 3780              		.loc 7 269 0
 3781 0070 7C7F1B78 		mr 31,3
 3782              	.LVL303:
 3783              	.LBE3511:
 3784              	.LBE3512:
 3785              		.loc 1 524 0
 3786 0074 409EFFD8 		bne+ 7,.L258
 3787 0078 83FD0010 		lwz 31,16(29)
 3788              	.LVL304:
 3789              	.L231:
 3790              	.LBB3513:
 3791              	.LBB3514:
 3792              	.LBB3515:
 3793              	.LBB3516:
 3794              	.LBB3517:
 3795              	.LBB3518:
 3796              	.LBB3519:
 3797              		.loc 7 665 0
 3798 007c 3B5C0004 		addi 26,28,4
 3799              	.LBE3519:
 3800              	.LBE3518:
 3801              		.loc 7 1500 0
 3802 0080 7F9ED000 		cmpw 7,30,26
 3803 0084 419E0098 		beq- 7,.L233
 3804              	.LVL305:
 3805              		.loc 7 1503 0
 3806 0088 7F9EF800 		cmpw 7,30,31
 3807 008c 40BE000C 		bne+ 7,.L260
 3808 0090 48000038 		b .L234
 3809              	.LVL306:
 3810              	.L255:
 3811              		.loc 7 277 0
 3812 0094 7F7FDB78 		mr 31,27
 3813              	.LVL307:
 3814              	.L260:
 3815              	.LBB3520:
 3816              	.LBB3521:
 3817 0098 7FE3FB78 		mr 3,31
 3818 009c 48000001 		bl _ZSt18_Rb_tree_incrementPKSt18_Rb_tree_node_base
 3819              	.LBE3521:
 3820              	.LBE3520:
 3821              	.LBB3523:
 3822              	.LBB3524:
 3823              	.LBB3525:
 3824              		.loc 7 1489 0
 3825 00a0 7F44D378 		mr 4,26
 3826              	.LBE3525:
 3827              	.LBE3524:
 3828              	.LBE3523:
 3829              	.LBB3534:
 3830              	.LBB3522:
 3831              		.loc 7 277 0
 3832 00a4 7C7B1B78 		mr 27,3
 3833              	.LVL308:
 3834              	.LBE3522:
 3835              	.LBE3534:
 3836              	.LBB3535:
 3837              	.LBB3532:
 3838              	.LBB3530:
 3839              		.loc 7 1489 0
 3840 00a8 7FE3FB78 		mr 3,31
 3841              	.LVL309:
 3842 00ac 48000001 		bl _ZSt28_Rb_tree_rebalance_for_erasePSt18_Rb_tree_node_baseRS_
 3843              	.LBB3526:
 3844              	.LBB3527:
 3845              	.LBB3528:
 3846              	.LBB3529:
 3847              		.loc 5 98 0
 3848 00b0 48000001 		bl _ZdlPv
 3849              	.LBE3529:
 3850              	.LBE3528:
 3851              	.LBE3527:
 3852              	.LBE3526:
 3853              	.LBE3530:
 3854              	.LBE3532:
 3855              	.LBE3535:
 3856              		.loc 7 1503 0
 3857 00b4 7F9ED800 		cmpw 7,30,27
 3858              	.LBB3536:
 3859              	.LBB3533:
 3860              	.LBB3531:
 3861              		.loc 7 1491 0
 3862 00b8 813C0014 		lwz 9,20(28)
 3863 00bc 3809FFFF 		addi 0,9,-1
 3864 00c0 901C0014 		stw 0,20(28)
 3865              	.LBE3531:
 3866              	.LBE3533:
 3867              	.LBE3536:
 3868              		.loc 7 1503 0
 3869 00c4 409EFFD0 		bne+ 7,.L255
 3870              	.LVL310:
 3871              	.L234:
 3872              	.LBE3517:
 3873              	.LBE3516:
 3874              	.LBE3515:
 3875              	.LBE3514:
 3876              	.LBE3513:
 3877              	.LBB3545:
 3878              	.LBB3546:
 3879              	.LBB3547:
 3880              		.loc 1 343 0
 3881 00c8 813D0000 		lwz 9,0(29)
 3882 00cc 7FA3EB78 		mr 3,29
 3883 00d0 8009000C 		lwz 0,12(9)
 3884 00d4 7C0903A6 		mtctr 0
 3885              	.LEHB29:
 3886 00d8 4E800421 		bctrl
 3887              	.LEHE29:
 3888              	.LVL311:
 3889              	.LBE3547:
 3890              	.LBE3546:
 3891              	.LBE3545:
 3892              	.LBE3502:
 3893              	.LBE3501:
 3894              	.LBB3554:
 3895              	.LBB3555:
 3896              	.LBB3556:
 3897              	.LBB3557:
 3898              	.LBB3558:
 3899              		.loc 7 639 0
 3900 00dc 809D000C 		lwz 4,12(29)
 3901 00e0 7F83E378 		mr 3,28
 3902 00e4 48000001 		bl _ZNSt8_Rb_treeIPN7sigslot12_signal_baseINS0_15single_threadedEEES4_St9_IdentityIS4_ESt4lessIS4_
 3903              	.LVL312:
 3904              	.LBE3558:
 3905              	.LBE3557:
 3906              	.LBE3556:
 3907              	.LBE3555:
 3908              	.LBE3554:
 3909              	.LBB3559:
 3910              	.LBB3560:
 3911              	.LBB3561:
 3912              		.loc 1 105 0
 3913 00e8 3D200000 		lis 9,_ZTVN7sigslot15single_threadedE+8@ha
 3914 00ec 38090008 		la 0,_ZTVN7sigslot15single_threadedE+8@l(9)
 3915              	.LBE3561:
 3916              	.LBE3560:
 3917              	.LBE3559:
 3918              	.LBE3577:
 3919              		.loc 1 516 0
 3920 00f0 83410008 		lwz 26,8(1)
 3921              	.LBB3578:
 3922              	.LBB3564:
 3923              	.LBB3563:
 3924              	.LBB3562:
 3925              		.loc 1 105 0
 3926 00f4 901D0000 		stw 0,0(29)
 3927              	.LBE3562:
 3928              	.LBE3563:
 3929              	.LBE3564:
 3930              	.LBE3578:
 3931              		.loc 1 516 0
 3932 00f8 80010024 		lwz 0,36(1)
 3933 00fc 8361000C 		lwz 27,12(1)
 3934 0100 7C0803A6 		mtlr 0
 3935 0104 83810010 		lwz 28,16(1)
 3936              	.LVL313:
 3937 0108 83A10014 		lwz 29,20(1)
 3938              	.LVL314:
 3939 010c 83C10018 		lwz 30,24(1)
 3940              	.LVL315:
 3941 0110 83E1001C 		lwz 31,28(1)
 3942 0114 38210020 		addi 1,1,32
 3943              		.cfi_remember_state
 3944              	.LCFI64:
 3945              		.cfi_def_cfa_offset 0
 3946              		.cfi_restore 31
 3947              		.cfi_restore 30
 3948              		.cfi_restore 29
 3949              		.cfi_restore 28
 3950              		.cfi_restore 27
 3951              		.cfi_restore 26
 3952 0118 4E800020 		blr
 3953              	.LVL316:
 3954              	.L233:
 3955              	.LCFI65:
 3956              		.cfi_restore_state
 3957              	.LBB3579:
 3958              	.LBB3565:
 3959              	.LBB3552:
 3960              	.LBB3548:
 3961              	.LBB3544:
 3962              	.LBB3543:
 3963              	.LBB3542:
 3964              	.LBB3541:
 3965              	.LBB3537:
 3966              	.LBB3538:
 3967              	.LBB3539:
 3968              	.LBB3540:
 3969              		.loc 7 809 0
 3970 011c 809D000C 		lwz 4,12(29)
 3971 0120 7F83E378 		mr 3,28
 3972 0124 48000001 		bl _ZNSt8_Rb_treeIPN7sigslot12_signal_baseINS0_15single_threadedEEES4_St9_IdentityIS4_ESt4lessIS4_
 3973              	.LVL317:
 3974              		.loc 7 811 0
 3975 0128 38000000 		li 0,0
 3976              		.loc 7 810 0
 3977 012c 93DD0010 		stw 30,16(29)
 3978              	.LVL318:
 3979              		.loc 7 811 0
 3980 0130 901D000C 		stw 0,12(29)
 3981              	.LVL319:
 3982              		.loc 7 812 0
 3983 0134 93DD0014 		stw 30,20(29)
 3984              		.loc 7 813 0
 3985 0138 901D0018 		stw 0,24(29)
 3986 013c 4BFFFF8C 		b .L234
 3987              	.LVL320:
 3988              	.L256:
 3989 0140 7C7F1B78 		mr 31,3
 3990              	.L241:
 3991              	.LVL321:
 3992              	.LBE3540:
 3993              	.LBE3539:
 3994              	.LBE3538:
 3995              	.LBE3537:
 3996              	.LBE3541:
 3997              	.LBE3542:
 3998              	.LBE3543:
 3999              	.LBE3544:
 4000              	.LBE3548:
 4001              	.LBE3552:
 4002              	.LBE3565:
 4003              	.LBB3566:
 4004              	.LBB3567:
 4005              	.LBB3568:
 4006              	.LBB3569:
 4007              	.LBB3570:
 4008              	.LBB3571:
 4009              		.loc 7 639 0
 4010 0144 809D000C 		lwz 4,12(29)
 4011 0148 7F83E378 		mr 3,28
 4012 014c 48000001 		bl _ZNSt8_Rb_treeIPN7sigslot12_signal_baseINS0_15single_threadedEEES4_St9_IdentityIS4_ESt4lessIS4_
 4013              	.LVL322:
 4014              	.LBE3571:
 4015              	.LBE3570:
 4016              	.LBE3569:
 4017              	.LBE3568:
 4018              	.LBE3567:
 4019              	.LBE3566:
 4020              	.LBB3572:
 4021              	.LBB3573:
 4022              	.LBB3574:
 4023              		.loc 1 105 0
 4024 0150 3D200000 		lis 9,_ZTVN7sigslot15single_threadedE+8@ha
 4025 0154 38090008 		la 0,_ZTVN7sigslot15single_threadedE+8@l(9)
 4026 0158 7FE3FB78 		mr 3,31
 4027 015c 901D0000 		stw 0,0(29)
 4028              	.LEHB30:
 4029 0160 48000001 		bl _Unwind_Resume
 4030              	.LEHE30:
 4031              	.LVL323:
 4032              	.L257:
 4033              	.LBE3574:
 4034              	.LBE3573:
 4035              	.LBE3572:
 4036              	.LBB3575:
 4037              	.LBB3553:
 4038              	.LBB3549:
 4039              	.LBB3550:
 4040              	.LBB3551:
 4041              		.loc 1 343 0
 4042 0164 813D0000 		lwz 9,0(29)
 4043 0168 7C7F1B78 		mr 31,3
 4044              	.LVL324:
 4045 016c 7FA3EB78 		mr 3,29
 4046 0170 8009000C 		lwz 0,12(9)
 4047 0174 7C0903A6 		mtctr 0
 4048 0178 4E800421 		bctrl
 4049 017c 4BFFFFC8 		b .L241
 4050              	.LBE3551:
 4051              	.LBE3550:
 4052              	.LBE3549:
 4053              	.LBE3553:
 4054              	.LBE3575:
 4055              	.LBE3579:
 4056              		.cfi_endproc
 4057              	.LFE1512:
 4058              		.section	.gcc_except_table
 4059              	.LLSDA1512:
 4060 009a FF       		.byte	0xff
 4061 009b FF       		.byte	0xff
 4062 009c 01       		.byte	0x1
 4063 009d 15       		.uleb128 .LLSDACSE1512-.LLSDACSB1512
 4064              	.LLSDACSB1512:
 4065 009e 38       		.uleb128 .LEHB27-.LFB1512
 4066 009f 04       		.uleb128 .LEHE27-.LEHB27
 4067 00a0 C002     		.uleb128 .L256-.LFB1512
 4068 00a2 00       		.uleb128 0
 4069 00a3 60       		.uleb128 .LEHB28-.LFB1512
 4070 00a4 04       		.uleb128 .LEHE28-.LEHB28
 4071 00a5 E402     		.uleb128 .L257-.LFB1512
 4072 00a7 00       		.uleb128 0
 4073 00a8 D801     		.uleb128 .LEHB29-.LFB1512
 4074 00aa 04       		.uleb128 .LEHE29-.LEHB29
 4075 00ab C002     		.uleb128 .L256-.LFB1512
 4076 00ad 00       		.uleb128 0
 4077 00ae E002     		.uleb128 .LEHB30-.LFB1512
 4078 00b0 04       		.uleb128 .LEHE30-.LEHB30
 4079 00b1 00       		.uleb128 0
 4080 00b2 00       		.uleb128 0
 4081              	.LLSDACSE1512:
 4082              		.section	.text._ZN7sigslot9has_slotsINS_15single_threadedEED2Ev,"axG",@progbits,_ZN7sigslot9has_sl
 4083              		.size	_ZN7sigslot9has_slotsINS_15single_threadedEED2Ev, .-_ZN7sigslot9has_slotsINS_15single_thread
 4084              		.section	.text._ZN7sigslot9has_slotsINS_15single_threadedEED0Ev,"axG",@progbits,_ZN7sigslot9has_sl
 4085              		.align 2
 4086              		.weak	_ZN7sigslot9has_slotsINS_15single_threadedEED0Ev
 4087              		.type	_ZN7sigslot9has_slotsINS_15single_threadedEED0Ev, @function
 4088              	_ZN7sigslot9has_slotsINS_15single_threadedEED0Ev:
 4089              	.LFB1514:
 4090              		.loc 1 513 0
 4091              		.cfi_startproc
 4092              		.cfi_personality 0,__gxx_personality_v0
 4093              		.cfi_lsda 0,.LLSDA1514
 4094              	.LVL325:
 4095 0000 7C0802A6 		mflr 0
 4096 0004 9421FFE0 		stwu 1,-32(1)
 4097              	.LCFI66:
 4098              		.cfi_def_cfa_offset 32
 4099              		.cfi_register 65, 0
 4100              	.LBB3673:
 4101              	.LBB3674:
 4102              	.LBB3675:
 4103              		.loc 1 516 0
 4104 0008 3D200000 		lis 9,_ZTVN7sigslot9has_slotsINS_15single_threadedEEE+8@ha
 4105              	.LBE3675:
 4106              	.LBE3674:
 4107              	.LBE3673:
 4108              		.loc 1 513 0
 4109 000c 93810010 		stw 28,16(1)
 4110 0010 3B830004 		addi 28,3,4
 4111              		.cfi_offset 28, -16
 4112 0014 90010024 		stw 0,36(1)
 4113              	.LBB3759:
 4114              	.LBB3755:
 4115              	.LBB3751:
 4116              		.loc 1 516 0
 4117 0018 38090008 		la 0,_ZTVN7sigslot9has_slotsINS_15single_threadedEEE+8@l(9)
 4118              		.cfi_offset 65, 4
 4119              	.LBE3751:
 4120              	.LBE3755:
 4121              	.LBE3759:
 4122              		.loc 1 513 0
 4123 001c 93A10014 		stw 29,20(1)
 4124 0020 7C7D1B78 		mr 29,3
 4125              		.cfi_offset 29, -12
 4126              	.LVL326:
 4127 0024 93410008 		stw 26,8(1)
 4128 0028 9361000C 		stw 27,12(1)
 4129 002c 93C10018 		stw 30,24(1)
 4130 0030 93E1001C 		stw 31,28(1)
 4131              	.LBB3760:
 4132              	.LBB3756:
 4133              	.LBB3752:
 4134              		.loc 1 516 0
 4135 0034 90030000 		stw 0,0(3)
 4136              	.LVL327:
 4137              	.LEHB31:
 4138              	.LBB3676:
 4139              	.LBB3677:
 4140              	.LBB3678:
 4141              	.LBB3679:
 4142              		.loc 1 338 0
 4143              		.cfi_offset 31, -4
 4144              		.cfi_offset 30, -8
 4145              		.cfi_offset 27, -20
 4146              		.cfi_offset 26, -24
 4147 0038 48000001 		bl _ZN7sigslot15single_threaded4lockEv
 4148              	.LEHE31:
 4149              	.LVL328:
 4150              	.LBE3679:
 4151              	.LBE3678:
 4152              	.LBB3680:
 4153              		.loc 3 73 0
 4154 003c 83FD0010 		lwz 31,16(29)
 4155              	.LVL329:
 4156              	.LBE3680:
 4157              	.LBB3681:
 4158              	.LBB3682:
 4159              	.LBB3683:
 4160              		.loc 7 671 0
 4161 0040 3BDC0004 		addi 30,28,4
 4162              	.LVL330:
 4163              	.LBE3683:
 4164              	.LBE3682:
 4165              	.LBE3681:
 4166              		.loc 1 524 0
 4167 0044 7F9FF000 		cmpw 7,31,30
 4168 0048 419E0034 		beq- 7,.L263
 4169              	.LVL331:
 4170              	.L291:
 4171              		.loc 1 526 0
 4172 004c 807F0010 		lwz 3,16(31)
 4173 0050 7FA4EB78 		mr 4,29
 4174 0054 81230000 		lwz 9,0(3)
 4175 0058 80090010 		lwz 0,16(9)
 4176 005c 7C0903A6 		mtctr 0
 4177              	.LEHB32:
 4178 0060 4E800421 		bctrl
 4179              	.LEHE32:
 4180              	.LVL332:
 4181              	.LBB3684:
 4182              	.LBB3685:
 4183              		.loc 7 269 0
 4184 0064 7FE3FB78 		mr 3,31
 4185 0068 48000001 		bl _ZSt18_Rb_tree_incrementPKSt18_Rb_tree_node_base
 4186              	.LBE3685:
 4187              	.LBE3684:
 4188              		.loc 1 524 0
 4189 006c 7F9E1800 		cmpw 7,30,3
 4190              	.LBB3687:
 4191              	.LBB3686:
 4192              		.loc 7 269 0
 4193 0070 7C7F1B78 		mr 31,3
 4194              	.LVL333:
 4195              	.LBE3686:
 4196              	.LBE3687:
 4197              		.loc 1 524 0
 4198 0074 409EFFD8 		bne+ 7,.L291
 4199 0078 83FD0010 		lwz 31,16(29)
 4200              	.LVL334:
 4201              	.L263:
 4202              	.LBB3688:
 4203              	.LBB3689:
 4204              	.LBB3690:
 4205              	.LBB3691:
 4206              	.LBB3692:
 4207              	.LBB3693:
 4208              	.LBB3694:
 4209              		.loc 7 665 0
 4210 007c 3B5C0004 		addi 26,28,4
 4211              	.LBE3694:
 4212              	.LBE3693:
 4213              		.loc 7 1500 0
 4214 0080 7F9ED000 		cmpw 7,30,26
 4215 0084 419E00A0 		beq- 7,.L265
 4216              	.LVL335:
 4217              		.loc 7 1503 0
 4218 0088 7F9EF800 		cmpw 7,30,31
 4219 008c 40BE000C 		bne+ 7,.L293
 4220 0090 48000038 		b .L266
 4221              	.LVL336:
 4222              	.L288:
 4223              		.loc 7 277 0
 4224 0094 7F7FDB78 		mr 31,27
 4225              	.LVL337:
 4226              	.L293:
 4227              	.LBB3695:
 4228              	.LBB3696:
 4229 0098 7FE3FB78 		mr 3,31
 4230 009c 48000001 		bl _ZSt18_Rb_tree_incrementPKSt18_Rb_tree_node_base
 4231              	.LBE3696:
 4232              	.LBE3695:
 4233              	.LBB3698:
 4234              	.LBB3699:
 4235              	.LBB3700:
 4236              		.loc 7 1489 0
 4237 00a0 7F44D378 		mr 4,26
 4238              	.LBE3700:
 4239              	.LBE3699:
 4240              	.LBE3698:
 4241              	.LBB3709:
 4242              	.LBB3697:
 4243              		.loc 7 277 0
 4244 00a4 7C7B1B78 		mr 27,3
 4245              	.LVL338:
 4246              	.LBE3697:
 4247              	.LBE3709:
 4248              	.LBB3710:
 4249              	.LBB3707:
 4250              	.LBB3705:
 4251              		.loc 7 1489 0
 4252 00a8 7FE3FB78 		mr 3,31
 4253              	.LVL339:
 4254 00ac 48000001 		bl _ZSt28_Rb_tree_rebalance_for_erasePSt18_Rb_tree_node_baseRS_
 4255              	.LBB3701:
 4256              	.LBB3702:
 4257              	.LBB3703:
 4258              	.LBB3704:
 4259              		.loc 5 98 0
 4260 00b0 48000001 		bl _ZdlPv
 4261              	.LBE3704:
 4262              	.LBE3703:
 4263              	.LBE3702:
 4264              	.LBE3701:
 4265              	.LBE3705:
 4266              	.LBE3707:
 4267              	.LBE3710:
 4268              		.loc 7 1503 0
 4269 00b4 7F9ED800 		cmpw 7,30,27
 4270              	.LBB3711:
 4271              	.LBB3708:
 4272              	.LBB3706:
 4273              		.loc 7 1491 0
 4274 00b8 813C0014 		lwz 9,20(28)
 4275 00bc 3809FFFF 		addi 0,9,-1
 4276 00c0 901C0014 		stw 0,20(28)
 4277              	.LBE3706:
 4278              	.LBE3708:
 4279              	.LBE3711:
 4280              		.loc 7 1503 0
 4281 00c4 409EFFD0 		bne+ 7,.L288
 4282              	.LVL340:
 4283              	.L266:
 4284              	.LBE3692:
 4285              	.LBE3691:
 4286              	.LBE3690:
 4287              	.LBE3689:
 4288              	.LBE3688:
 4289              	.LBB3720:
 4290              	.LBB3721:
 4291              	.LBB3722:
 4292              		.loc 1 343 0
 4293 00c8 813D0000 		lwz 9,0(29)
 4294 00cc 7FA3EB78 		mr 3,29
 4295 00d0 8009000C 		lwz 0,12(9)
 4296 00d4 7C0903A6 		mtctr 0
 4297              	.LEHB33:
 4298 00d8 4E800421 		bctrl
 4299              	.LEHE33:
 4300              	.LVL341:
 4301              	.LBE3722:
 4302              	.LBE3721:
 4303              	.LBE3720:
 4304              	.LBE3677:
 4305              	.LBE3676:
 4306              	.LBB3729:
 4307              	.LBB3730:
 4308              	.LBB3731:
 4309              	.LBB3732:
 4310              	.LBB3733:
 4311              		.loc 7 639 0
 4312 00dc 809D000C 		lwz 4,12(29)
 4313 00e0 7F83E378 		mr 3,28
 4314 00e4 48000001 		bl _ZNSt8_Rb_treeIPN7sigslot12_signal_baseINS0_15single_threadedEEES4_St9_IdentityIS4_ESt4lessIS4_
 4315              	.LVL342:
 4316              	.LBE3733:
 4317              	.LBE3732:
 4318              	.LBE3731:
 4319              	.LBE3730:
 4320              	.LBE3729:
 4321              	.LBB3734:
 4322              	.LBB3735:
 4323              	.LBB3736:
 4324              		.loc 1 105 0
 4325 00e8 3D200000 		lis 9,_ZTVN7sigslot15single_threadedE+8@ha
 4326 00ec 38090008 		la 0,_ZTVN7sigslot15single_threadedE+8@l(9)
 4327              	.LBE3736:
 4328              	.LBE3735:
 4329              	.LBE3734:
 4330              	.LBE3752:
 4331              	.LBE3756:
 4332              	.LBE3760:
 4333              		.loc 1 516 0
 4334 00f0 7FA3EB78 		mr 3,29
 4335              	.LBB3761:
 4336              	.LBB3757:
 4337              	.LBB3753:
 4338              	.LBB3739:
 4339              	.LBB3738:
 4340              	.LBB3737:
 4341              		.loc 1 105 0
 4342 00f4 901D0000 		stw 0,0(29)
 4343              	.LBE3737:
 4344              	.LBE3738:
 4345              	.LBE3739:
 4346              	.LBE3753:
 4347              	.LBE3757:
 4348              	.LBE3761:
 4349              		.loc 1 516 0
 4350 00f8 48000001 		bl _ZdlPv
 4351 00fc 80010024 		lwz 0,36(1)
 4352 0100 83410008 		lwz 26,8(1)
 4353 0104 7C0803A6 		mtlr 0
 4354 0108 8361000C 		lwz 27,12(1)
 4355 010c 83810010 		lwz 28,16(1)
 4356              	.LVL343:
 4357 0110 83A10014 		lwz 29,20(1)
 4358              	.LVL344:
 4359 0114 83C10018 		lwz 30,24(1)
 4360              	.LVL345:
 4361 0118 83E1001C 		lwz 31,28(1)
 4362 011c 38210020 		addi 1,1,32
 4363              		.cfi_remember_state
 4364              	.LCFI67:
 4365              		.cfi_def_cfa_offset 0
 4366              		.cfi_restore 31
 4367              		.cfi_restore 30
 4368              		.cfi_restore 29
 4369              		.cfi_restore 28
 4370              		.cfi_restore 27
 4371              		.cfi_restore 26
 4372 0120 4E800020 		blr
 4373              	.LVL346:
 4374              	.L265:
 4375              	.LCFI68:
 4376              		.cfi_restore_state
 4377              	.LBB3762:
 4378              	.LBB3758:
 4379              	.LBB3754:
 4380              	.LBB3740:
 4381              	.LBB3727:
 4382              	.LBB3723:
 4383              	.LBB3719:
 4384              	.LBB3718:
 4385              	.LBB3717:
 4386              	.LBB3716:
 4387              	.LBB3712:
 4388              	.LBB3713:
 4389              	.LBB3714:
 4390              	.LBB3715:
 4391              		.loc 7 809 0
 4392 0124 809D000C 		lwz 4,12(29)
 4393 0128 7F83E378 		mr 3,28
 4394 012c 48000001 		bl _ZNSt8_Rb_treeIPN7sigslot12_signal_baseINS0_15single_threadedEEES4_St9_IdentityIS4_ESt4lessIS4_
 4395              	.LVL347:
 4396              		.loc 7 811 0
 4397 0130 38000000 		li 0,0
 4398              		.loc 7 810 0
 4399 0134 93DD0010 		stw 30,16(29)
 4400              	.LVL348:
 4401              		.loc 7 811 0
 4402 0138 901D000C 		stw 0,12(29)
 4403              	.LVL349:
 4404              		.loc 7 812 0
 4405 013c 93DD0014 		stw 30,20(29)
 4406              		.loc 7 813 0
 4407 0140 901D0018 		stw 0,24(29)
 4408 0144 4BFFFF84 		b .L266
 4409              	.LVL350:
 4410              	.L289:
 4411 0148 7C7F1B78 		mr 31,3
 4412              	.L273:
 4413              	.LVL351:
 4414              	.LBE3715:
 4415              	.LBE3714:
 4416              	.LBE3713:
 4417              	.LBE3712:
 4418              	.LBE3716:
 4419              	.LBE3717:
 4420              	.LBE3718:
 4421              	.LBE3719:
 4422              	.LBE3723:
 4423              	.LBE3727:
 4424              	.LBE3740:
 4425              	.LBB3741:
 4426              	.LBB3742:
 4427              	.LBB3743:
 4428              	.LBB3744:
 4429              	.LBB3745:
 4430              	.LBB3746:
 4431              		.loc 7 639 0
 4432 014c 809D000C 		lwz 4,12(29)
 4433 0150 7F83E378 		mr 3,28
 4434 0154 48000001 		bl _ZNSt8_Rb_treeIPN7sigslot12_signal_baseINS0_15single_threadedEEES4_St9_IdentityIS4_ESt4lessIS4_
 4435              	.LVL352:
 4436              	.LBE3746:
 4437              	.LBE3745:
 4438              	.LBE3744:
 4439              	.LBE3743:
 4440              	.LBE3742:
 4441              	.LBE3741:
 4442              	.LBB3747:
 4443              	.LBB3748:
 4444              	.LBB3749:
 4445              		.loc 1 105 0
 4446 0158 3D200000 		lis 9,_ZTVN7sigslot15single_threadedE+8@ha
 4447 015c 38090008 		la 0,_ZTVN7sigslot15single_threadedE+8@l(9)
 4448 0160 7FE3FB78 		mr 3,31
 4449 0164 901D0000 		stw 0,0(29)
 4450              	.LEHB34:
 4451 0168 48000001 		bl _Unwind_Resume
 4452              	.LEHE34:
 4453              	.LVL353:
 4454              	.L290:
 4455              	.LBE3749:
 4456              	.LBE3748:
 4457              	.LBE3747:
 4458              	.LBB3750:
 4459              	.LBB3728:
 4460              	.LBB3724:
 4461              	.LBB3725:
 4462              	.LBB3726:
 4463              		.loc 1 343 0
 4464 016c 813D0000 		lwz 9,0(29)
 4465 0170 7C7F1B78 		mr 31,3
 4466              	.LVL354:
 4467 0174 7FA3EB78 		mr 3,29
 4468 0178 8009000C 		lwz 0,12(9)
 4469 017c 7C0903A6 		mtctr 0
 4470 0180 4E800421 		bctrl
 4471 0184 4BFFFFC8 		b .L273
 4472              	.LBE3726:
 4473              	.LBE3725:
 4474              	.LBE3724:
 4475              	.LBE3728:
 4476              	.LBE3750:
 4477              	.LBE3754:
 4478              	.LBE3758:
 4479              	.LBE3762:
 4480              		.cfi_endproc
 4481              	.LFE1514:
 4482              		.section	.gcc_except_table
 4483              	.LLSDA1514:
 4484 00b3 FF       		.byte	0xff
 4485 00b4 FF       		.byte	0xff
 4486 00b5 01       		.byte	0x1
 4487 00b6 15       		.uleb128 .LLSDACSE1514-.LLSDACSB1514
 4488              	.LLSDACSB1514:
 4489 00b7 38       		.uleb128 .LEHB31-.LFB1514
 4490 00b8 04       		.uleb128 .LEHE31-.LEHB31
 4491 00b9 C802     		.uleb128 .L289-.LFB1514
 4492 00bb 00       		.uleb128 0
 4493 00bc 60       		.uleb128 .LEHB32-.LFB1514
 4494 00bd 04       		.uleb128 .LEHE32-.LEHB32
 4495 00be EC02     		.uleb128 .L290-.LFB1514
 4496 00c0 00       		.uleb128 0
 4497 00c1 D801     		.uleb128 .LEHB33-.LFB1514
 4498 00c3 04       		.uleb128 .LEHE33-.LEHB33
 4499 00c4 C802     		.uleb128 .L289-.LFB1514
 4500 00c6 00       		.uleb128 0
 4501 00c7 E802     		.uleb128 .LEHB34-.LFB1514
 4502 00c9 04       		.uleb128 .LEHE34-.LEHB34
 4503 00ca 00       		.uleb128 0
 4504 00cb 00       		.uleb128 0
 4505              	.LLSDACSE1514:
 4506              		.section	.text._ZN7sigslot9has_slotsINS_15single_threadedEED0Ev,"axG",@progbits,_ZN7sigslot9has_sl
 4507              		.size	_ZN7sigslot9has_slotsINS_15single_threadedEED0Ev, .-_ZN7sigslot9has_slotsINS_15single_thread
 4508              		.section	.text._ZNSt8_Rb_treeIPN7sigslot12_signal_baseINS0_15single_threadedEEES4_St9_IdentityIS4_
 4509              		.align 2
 4510              		.weak	_ZNSt8_Rb_treeIPN7sigslot12_signal_baseINS0_15single_threadedEEES4_St9_IdentityIS4_ESt4lessI
 4511              		.type	_ZNSt8_Rb_treeIPN7sigslot12_signal_baseINS0_15single_threadedEEES4_St9_IdentityIS4_ESt4lessI
 4512              	_ZNSt8_Rb_treeIPN7sigslot12_signal_baseINS0_15single_threadedEEES4_St9_IdentityIS4_ESt4lessIS4_ESaI
 4513              	.LFB1786:
 4514              		.loc 7 1264 0
 4515              		.cfi_startproc
 4516              	.LVL355:
 4517 0000 7C0802A6 		mflr 0
 4518 0004 9421FFE0 		stwu 1,-32(1)
 4519              	.LCFI69:
 4520              		.cfi_def_cfa_offset 32
 4521              		.cfi_register 65, 0
 4522 0008 93810010 		stw 28,16(1)
 4523 000c 90010024 		stw 0,36(1)
 4524 0010 9361000C 		stw 27,12(1)
 4525 0014 7C9B2378 		mr 27,4
 4526              		.cfi_offset 27, -20
 4527              		.cfi_offset 65, 4
 4528              		.cfi_offset 28, -16
 4529              	.LBB3802:
 4530              	.LBB3803:
 4531              	.LBB3804:
 4532              		.loc 3 73 0
 4533 0018 83830008 		lwz 28,8(3)
 4534              	.LVL356:
 4535              	.LBE3804:
 4536              	.LBE3803:
 4537              	.LBE3802:
 4538              		.loc 7 1264 0
 4539 001c 93A10014 		stw 29,20(1)
 4540              	.LBB3829:
 4541              	.LBB3821:
 4542              	.LBB3817:
 4543              		.loc 7 1272 0
 4544 0020 3BA30004 		addi 29,3,4
 4545              		.cfi_offset 29, -12
 4546              	.LVL357:
 4547              	.LBE3817:
 4548              	.LBE3821:
 4549              		.loc 7 1274 0
 4550 0024 2F9C0000 		cmpwi 7,28,0
 4551              	.LBE3829:
 4552              		.loc 7 1264 0
 4553 0028 93E1001C 		stw 31,28(1)
 4554 002c 93410008 		stw 26,8(1)
 4555 0030 7C7F1B78 		mr 31,3
 4556              		.cfi_offset 26, -24
 4557              		.cfi_offset 31, -4
 4558 0034 93C10018 		stw 30,24(1)
 4559              	.LBB3830:
 4560              		.loc 7 1274 0
 4561 0038 419E0084 		beq- 7,.L310
 4562              		.cfi_offset 30, -8
 4563              	.LVL358:
 4564 003c 81440000 		lwz 10,0(4)
 4565 0040 48000014 		b .L299
 4566              	.LVL359:
 4567              	.L318:
 4568              		.loc 3 73 0 discriminator 1
 4569 0044 801C0008 		lwz 0,8(28)
 4570              	.LVL360:
 4571              		.loc 7 1274 0 discriminator 1
 4572 0048 2F800000 		cmpwi 7,0,0
 4573 004c 419E0028 		beq- 7,.L317
 4574              	.LVL361:
 4575              	.L311:
 4576              		.loc 7 1274 0 is_stmt 0
 4577 0050 7C1C0378 		mr 28,0
 4578              	.LVL362:
 4579              	.L299:
 4580              		.loc 3 73 0 is_stmt 1
 4581 0054 813C0010 		lwz 9,16(28)
 4582 0058 39600001 		li 11,1
 4583              		.loc 7 1278 0
 4584 005c 7F895040 		cmplw 7,9,10
 4585 0060 41BDFFE4 		bgt- 7,.L318
 4586              	.LVL363:
 4587              		.loc 3 73 0 discriminator 2
 4588 0064 801C000C 		lwz 0,12(28)
 4589 0068 39600000 		li 11,0
 4590              	.LVL364:
 4591              		.loc 7 1274 0 discriminator 2
 4592 006c 2F800000 		cmpwi 7,0,0
 4593 0070 409EFFE0 		bne+ 7,.L311
 4594              	.LVL365:
 4595              	.L317:
 4596              		.loc 7 1281 0
 4597 0074 2F8B0000 		cmpwi 7,11,0
 4598 0078 7F83E378 		mr 3,28
 4599              	.LVL366:
 4600 007c 409E0044 		bne- 7,.L296
 4601              	.LVL367:
 4602              		.loc 7 1289 0
 4603 0080 7F8A4840 		cmplw 7,10,9
 4604 0084 419D0060 		bgt- 7,.L319
 4605              	.LVL368:
 4606              	.L306:
 4607              		.loc 7 1292 0
 4608 0088 38000000 		li 0,0
 4609 008c 38800000 		li 4,0
 4610 0090 5004C00E 		rlwimi 4,0,24,0,7
 4611              	.LBE3830:
 4612              		.loc 7 1293 0
 4613 0094 80010024 		lwz 0,36(1)
 4614 0098 83410008 		lwz 26,8(1)
 4615 009c 7C0803A6 		mtlr 0
 4616 00a0 8361000C 		lwz 27,12(1)
 4617              	.LVL369:
 4618 00a4 83810010 		lwz 28,16(1)
 4619 00a8 83A10014 		lwz 29,20(1)
 4620 00ac 83C10018 		lwz 30,24(1)
 4621 00b0 83E1001C 		lwz 31,28(1)
 4622              	.LVL370:
 4623 00b4 38210020 		addi 1,1,32
 4624              		.cfi_remember_state
 4625              	.LCFI70:
 4626              		.cfi_def_cfa_offset 0
 4627              		.cfi_restore 31
 4628              		.cfi_restore 30
 4629              		.cfi_restore 29
 4630              		.cfi_restore 28
 4631              		.cfi_restore 27
 4632              		.cfi_restore 26
 4633 00b8 4E800020 		blr
 4634              	.LVL371:
 4635              	.L310:
 4636              	.LCFI71:
 4637              		.cfi_restore_state
 4638              	.LBB3831:
 4639              		.loc 7 1272 0
 4640 00bc 7FBCEB78 		mr 28,29
 4641              	.LVL372:
 4642              	.L296:
 4643              		.loc 7 1283 0
 4644 00c0 801F000C 		lwz 0,12(31)
 4645 00c4 7F9C0000 		cmpw 7,28,0
 4646 00c8 419E003C 		beq- 7,.L320
 4647              	.LVL373:
 4648              	.LBB3822:
 4649              	.LBB3823:
 4650              		.loc 7 203 0
 4651 00cc 7F83E378 		mr 3,28
 4652 00d0 48000001 		bl _ZSt18_Rb_tree_decrementPSt18_Rb_tree_node_base
 4653              	.LVL374:
 4654 00d4 815B0000 		lwz 10,0(27)
 4655 00d8 81230010 		lwz 9,16(3)
 4656              	.LVL375:
 4657              	.LBE3823:
 4658              	.LBE3822:
 4659              		.loc 7 1289 0
 4660 00dc 7F8A4840 		cmplw 7,10,9
 4661 00e0 409DFFA8 		ble+ 7,.L306
 4662              	.LVL376:
 4663              	.L319:
 4664              	.LBB3824:
 4665              	.LBB3818:
 4666              		.loc 7 969 0
 4667 00e4 7F9CE800 		cmpw 7,28,29
 4668 00e8 3B400001 		li 26,1
 4669 00ec 419E0038 		beq- 7,.L307
 4670              	.LVL377:
 4671              		.loc 7 1264 0
 4672 00f0 835C0010 		lwz 26,16(28)
 4673 00f4 7F5A5010 		subfc 26,26,10
 4674 00f8 7F5AD110 		subfe 26,26,26
 4675 00fc 7F5A00D0 		neg 26,26
 4676 0100 48000024 		b .L307
 4677              	.LVL378:
 4678              	.L320:
 4679              	.LBE3818:
 4680              	.LBE3824:
 4681              	.LBB3825:
 4682              	.LBB3826:
 4683              		.loc 7 969 0
 4684 0104 7F9CE800 		cmpw 7,28,29
 4685 0108 3B400001 		li 26,1
 4686 010c 419E0018 		beq- 7,.L307
 4687              	.LVL379:
 4688              		.loc 7 1264 0
 4689 0110 835B0000 		lwz 26,0(27)
 4690 0114 801C0010 		lwz 0,16(28)
 4691              	.LVL380:
 4692 0118 7F40D010 		subfc 26,0,26
 4693 011c 7F5AD110 		subfe 26,26,26
 4694 0120 7F5A00D0 		neg 26,26
 4695              	.LVL381:
 4696              	.L307:
 4697              	.LBE3826:
 4698              	.LBE3825:
 4699              	.LBB3827:
 4700              	.LBB3819:
 4701              	.LBB3805:
 4702              	.LBB3806:
 4703              	.LBB3807:
 4704              	.LBB3808:
 4705              	.LBB3809:
 4706              		.loc 5 92 0
 4707 0124 38600014 		li 3,20
 4708 0128 48000001 		bl _Znwj
 4709              	.LBE3809:
 4710              	.LBE3808:
 4711              	.LBE3807:
 4712              	.LBB3812:
 4713              	.LBB3813:
 4714              		.loc 5 108 0
 4715 012c 2F83FFF0 		cmpwi 7,3,-16
 4716              	.LBE3813:
 4717              	.LBE3812:
 4718              	.LBB3815:
 4719              	.LBB3811:
 4720              	.LBB3810:
 4721              		.loc 5 92 0
 4722 0130 7C7E1B78 		mr 30,3
 4723              	.LVL382:
 4724              	.LBE3810:
 4725              	.LBE3811:
 4726              	.LBE3815:
 4727              	.LBB3816:
 4728              	.LBB3814:
 4729              		.loc 5 108 0
 4730 0134 419E000C 		beq- 7,.L309
 4731 0138 801B0000 		lwz 0,0(27)
 4732 013c 90030010 		stw 0,16(3)
 4733              	.L309:
 4734              	.LVL383:
 4735              	.LBE3814:
 4736              	.LBE3816:
 4737              	.LBE3806:
 4738              	.LBE3805:
 4739              		.loc 7 973 0
 4740 0140 7F43D378 		mr 3,26
 4741              	.LVL384:
 4742 0144 7FC4F378 		mr 4,30
 4743 0148 7F85E378 		mr 5,28
 4744 014c 7FA6EB78 		mr 6,29
 4745 0150 48000001 		bl _ZSt29_Rb_tree_insert_and_rebalancebPSt18_Rb_tree_node_baseS0_RS_
 4746              		.loc 7 976 0
 4747 0154 813F0014 		lwz 9,20(31)
 4748              		.loc 7 1291 0
 4749 0158 38800000 		li 4,0
 4750 015c 7FC3F378 		mr 3,30
 4751              		.loc 7 976 0
 4752 0160 38090001 		addi 0,9,1
 4753              	.LBE3819:
 4754              	.LBE3827:
 4755              	.LBE3831:
 4756              		.loc 7 1293 0
 4757 0164 83410008 		lwz 26,8(1)
 4758              	.LVL385:
 4759              	.LBB3832:
 4760              	.LBB3828:
 4761              	.LBB3820:
 4762              		.loc 7 976 0
 4763 0168 901F0014 		stw 0,20(31)
 4764              	.LVL386:
 4765              		.loc 7 1291 0
 4766 016c 38000001 		li 0,1
 4767 0170 5004C00E 		rlwimi 4,0,24,0,7
 4768              	.LBE3820:
 4769              	.LBE3828:
 4770              	.LBE3832:
 4771              		.loc 7 1293 0
 4772 0174 80010024 		lwz 0,36(1)
 4773 0178 8361000C 		lwz 27,12(1)
 4774              	.LVL387:
 4775 017c 7C0803A6 		mtlr 0
 4776 0180 83810010 		lwz 28,16(1)
 4777 0184 83A10014 		lwz 29,20(1)
 4778 0188 83C10018 		lwz 30,24(1)
 4779              	.LVL388:
 4780 018c 83E1001C 		lwz 31,28(1)
 4781              	.LVL389:
 4782 0190 38210020 		addi 1,1,32
 4783              		.cfi_restore 26
 4784              		.cfi_restore 27
 4785              		.cfi_restore 28
 4786              		.cfi_restore 29
 4787              		.cfi_restore 30
 4788              		.cfi_restore 31
 4789              	.LCFI72:
 4790              		.cfi_def_cfa_offset 0
 4791 0194 4E800020 		blr
 4792              		.cfi_endproc
 4793              	.LFE1786:
 4794              		.size	_ZNSt8_Rb_treeIPN7sigslot12_signal_baseINS0_15single_threadedEEES4_St9_IdentityIS4_ESt4lessI
 4795              		.section	.text._ZN7sigslot7signal3IP9GuiButtoniRK6_POINTNS_15single_threadedEE7connectI4TaskEEvPT_
 4796              		.align 2
 4797              		.weak	_ZN7sigslot7signal3IP9GuiButtoniRK6_POINTNS_15single_threadedEE7connectI4TaskEEvPT_MSA_FvS2_
 4798              		.type	_ZN7sigslot7signal3IP9GuiButtoniRK6_POINTNS_15single_threadedEE7connectI4TaskEEvPT_MSA_FvS2_
 4799              	_ZN7sigslot7signal3IP9GuiButtoniRK6_POINTNS_15single_threadedEE7connectI4TaskEEvPT_MSA_FvS2_iS5_E:
 4800              	.LFB1529:
 4801              		.loc 1 2308 0
 4802              		.cfi_startproc
 4803              		.cfi_personality 0,__gxx_personality_v0
 4804              		.cfi_lsda 0,.LLSDA1529
 4805              	.LVL390:
 4806 0000 7C0802A6 		mflr 0
 4807 0004 9421FFD0 		stwu 1,-48(1)
 4808              	.LCFI73:
 4809              		.cfi_def_cfa_offset 48
 4810              		.cfi_register 65, 0
 4811 0008 9361001C 		stw 27,28(1)
 4812 000c 90010034 		stw 0,52(1)
 4813 0010 93C10028 		stw 30,40(1)
 4814 0014 7C9E2378 		mr 30,4
 4815              		.cfi_offset 30, -8
 4816              		.cfi_offset 65, 4
 4817              		.cfi_offset 27, -20
 4818              	.LBB3833:
 4819              	.LBB3834:
 4820              	.LBB3835:
 4821              		.loc 1 338 0
 4822 0018 81230000 		lwz 9,0(3)
 4823              	.LBE3835:
 4824              	.LBE3834:
 4825              	.LBE3833:
 4826              		.loc 1 2308 0
 4827 001c 93E1002C 		stw 31,44(1)
 4828 0020 7C7F1B78 		mr 31,3
 4829              		.cfi_offset 31, -4
 4830              	.LVL391:
 4831              	.LBB3888:
 4832              	.LBB3839:
 4833              	.LBB3836:
 4834              		.loc 1 338 0
 4835 0024 80090008 		lwz 0,8(9)
 4836              	.LBE3836:
 4837              	.LBE3839:
 4838              	.LBE3888:
 4839              		.loc 1 2308 0
 4840 0028 93810020 		stw 28,32(1)
 4841 002c 93A10024 		stw 29,36(1)
 4842              	.LBB3889:
 4843              	.LBB3840:
 4844              	.LBB3837:
 4845              		.loc 1 338 0
 4846 0030 7C0903A6 		mtctr 0
 4847              	.LBE3837:
 4848              	.LBE3840:
 4849              	.LBE3889:
 4850              		.loc 1 2308 0
 4851 0034 83650000 		lwz 27,0(5)
 4852 0038 83850004 		lwz 28,4(5)
 4853              		.cfi_offset 29, -12
 4854              		.cfi_offset 28, -16
 4855              	.LEHB35:
 4856              	.LBB3890:
 4857              	.LBB3841:
 4858              	.LBB3838:
 4859              		.loc 1 338 0
 4860 003c 4E800421 		bctrl
 4861              	.LEHE35:
 4862              	.LVL392:
 4863              	.LBE3838:
 4864              	.LBE3841:
 4865              		.loc 1 2314 0
 4866 0040 38600010 		li 3,16
 4867              	.LEHB36:
 4868 0044 48000001 		bl _Znwj
 4869              	.LBB3842:
 4870              	.LBB3843:
 4871              		.loc 1 1778 0
 4872 0048 3D200000 		lis 9,_ZTVN7sigslot12_connection3I4TaskP9GuiButtoniRK6_POINTNS_15single_threadedEEE+8@ha
 4873              		.loc 1 1779 0
 4874 004c 93C30004 		stw 30,4(3)
 4875              		.loc 1 1778 0
 4876 0050 38090008 		la 0,_ZTVN7sigslot12_connection3I4TaskP9GuiButtoniRK6_POINTNS_15single_threadedEEE+8@l(9)
 4877              		.loc 1 1780 0
 4878 0054 93630008 		stw 27,8(3)
 4879              		.loc 1 1778 0
 4880 0058 90030000 		stw 0,0(3)
 4881              	.LBE3843:
 4882              	.LBE3842:
 4883              		.loc 1 2314 0
 4884 005c 7C7D1B78 		mr 29,3
 4885              	.LVL393:
 4886              	.LBB3845:
 4887              	.LBB3844:
 4888              		.loc 1 1780 0
 4889 0060 9383000C 		stw 28,12(3)
 4890              	.LVL394:
 4891              	.LBE3844:
 4892              	.LBE3845:
 4893              	.LBB3846:
 4894              	.LBB3847:
 4895              	.LBB3848:
 4896              	.LBB3849:
 4897              	.LBB3850:
 4898              	.LBB3851:
 4899              	.LBB3852:
 4900              	.LBB3853:
 4901              		.loc 5 92 0
 4902 0064 3860000C 		li 3,12
 4903              	.LVL395:
 4904 0068 48000001 		bl _Znwj
 4905              	.LVL396:
 4906              	.LBE3853:
 4907              	.LBE3852:
 4908              	.LBE3851:
 4909              	.LBB3854:
 4910              	.LBB3855:
 4911              		.loc 5 108 0 discriminator 1
 4912 006c 2F83FFF8 		cmpwi 7,3,-8
 4913 0070 419E0008 		beq- 7,.L323
 4914              		.loc 5 108 0 is_stmt 0
 4915 0074 93A30008 		stw 29,8(3)
 4916              	.LVL397:
 4917              	.L323:
 4918              	.LBE3855:
 4919              	.LBE3854:
 4920              	.LBE3850:
 4921              	.LBE3849:
 4922              		.loc 4 1516 0 is_stmt 1
 4923 0078 389F0004 		addi 4,31,4
 4924              	.LBE3848:
 4925              	.LBE3847:
 4926              	.LBE3846:
 4927              	.LBB3860:
 4928              	.LBB3861:
 4929              		.loc 1 503 0
 4930 007c 3BBE0138 		addi 29,30,312
 4931              	.LVL398:
 4932              	.LBE3861:
 4933              	.LBE3860:
 4934              	.LBB3877:
 4935              	.LBB3858:
 4936              	.LBB3856:
 4937              		.loc 4 1516 0
 4938 0080 48000001 		bl _ZNSt8__detail15_List_node_base7_M_hookEPS0_
 4939              	.LVL399:
 4940              	.LBE3856:
 4941              	.LBE3858:
 4942              	.LBE3877:
 4943              	.LBB3878:
 4944              	.LBB3874:
 4945              	.LBB3862:
 4946              	.LBB3863:
 4947              		.loc 1 338 0
 4948 0084 813E0138 		lwz 9,312(30)
 4949              	.LBE3863:
 4950              	.LBE3862:
 4951              	.LBE3874:
 4952              	.LBE3878:
 4953              	.LBB3879:
 4954              	.LBB3859:
 4955              	.LBB3857:
 4956              		.loc 4 1516 0
 4957 0088 93E10008 		stw 31,8(1)
 4958              	.LVL400:
 4959              	.LBE3857:
 4960              	.LBE3859:
 4961              	.LBE3879:
 4962              	.LBB3880:
 4963              	.LBB3875:
 4964              	.LBB3865:
 4965              	.LBB3864:
 4966              		.loc 1 338 0
 4967 008c 7FA3EB78 		mr 3,29
 4968 0090 80090008 		lwz 0,8(9)
 4969 0094 7C0903A6 		mtctr 0
 4970 0098 4E800421 		bctrl
 4971              	.LEHE36:
 4972              	.LVL401:
 4973              	.LBE3864:
 4974              	.LBE3865:
 4975              	.LBB3866:
 4976              	.LBB3867:
 4977              		.file 8 "d:\\devkitpro\\devkitppc\\bin\\../lib/gcc/powerpc-eabi/4.6.3/../../../../powerpc-eabi/inc
 4978              		.loc 8 410 0
 4979 009c 387E013C 		addi 3,30,316
 4980 00a0 38810008 		addi 4,1,8
 4981              	.LEHB37:
 4982 00a4 48000001 		bl _ZNSt8_Rb_treeIPN7sigslot12_signal_baseINS0_15single_threadedEEES4_St9_IdentityIS4_ESt4lessIS4_
 4983              	.LEHE37:
 4984              	.LVL402:
 4985              	.LBE3867:
 4986              	.LBE3866:
 4987              	.LBB3868:
 4988              	.LBB3869:
 4989              	.LBB3870:
 4990              		.loc 1 343 0
 4991 00a8 813E0138 		lwz 9,312(30)
 4992 00ac 7FA3EB78 		mr 3,29
 4993 00b0 8009000C 		lwz 0,12(9)
 4994 00b4 7C0903A6 		mtctr 0
 4995              	.LEHB38:
 4996 00b8 4E800421 		bctrl
 4997              	.LEHE38:
 4998              	.LVL403:
 4999              	.LBE3870:
 5000              	.LBE3869:
 5001              	.LBE3868:
 5002              	.LBE3875:
 5003              	.LBE3880:
 5004              	.LBB3881:
 5005              	.LBB3882:
 5006              	.LBB3883:
 5007 00bc 813F0000 		lwz 9,0(31)
 5008 00c0 7FE3FB78 		mr 3,31
 5009 00c4 8009000C 		lwz 0,12(9)
 5010 00c8 7C0903A6 		mtctr 0
 5011              	.LEHB39:
 5012 00cc 4E800421 		bctrl
 5013              	.LEHE39:
 5014              	.LBE3883:
 5015              	.LBE3882:
 5016              	.LBE3881:
 5017              	.LBE3890:
 5018              		.loc 1 2317 0
 5019 00d0 80010034 		lwz 0,52(1)
 5020 00d4 8361001C 		lwz 27,28(1)
 5021              	.LVL404:
 5022 00d8 7C0803A6 		mtlr 0
 5023 00dc 83810020 		lwz 28,32(1)
 5024              	.LVL405:
 5025 00e0 83A10024 		lwz 29,36(1)
 5026              	.LVL406:
 5027 00e4 83C10028 		lwz 30,40(1)
 5028              	.LVL407:
 5029 00e8 83E1002C 		lwz 31,44(1)
 5030              	.LVL408:
 5031 00ec 38210030 		addi 1,1,48
 5032              		.cfi_remember_state
 5033              	.LCFI74:
 5034              		.cfi_def_cfa_offset 0
 5035              		.cfi_restore 31
 5036              		.cfi_restore 30
 5037              		.cfi_restore 29
 5038              		.cfi_restore 28
 5039              		.cfi_restore 27
 5040 00f0 4E800020 		blr
 5041              	.LVL409:
 5042              	.L330:
 5043              	.LCFI75:
 5044              		.cfi_restore_state
 5045 00f4 7C7E1B78 		mr 30,3
 5046              	.LVL410:
 5047              	.L327:
 5048              	.LBB3891:
 5049              	.LBB3884:
 5050              	.LBB3885:
 5051              	.LBB3886:
 5052              		.loc 1 343 0
 5053 00f8 813F0000 		lwz 9,0(31)
 5054 00fc 7FE3FB78 		mr 3,31
 5055 0100 8009000C 		lwz 0,12(9)
 5056 0104 7C0903A6 		mtctr 0
 5057 0108 4E800421 		bctrl
 5058 010c 7FC3F378 		mr 3,30
 5059              	.LEHB40:
 5060 0110 48000001 		bl _Unwind_Resume
 5061              	.LEHE40:
 5062              	.LVL411:
 5063              	.L331:
 5064              	.LBE3886:
 5065              	.LBE3885:
 5066              	.LBE3884:
 5067              	.LBB3887:
 5068              	.LBB3876:
 5069              	.LBB3871:
 5070              	.LBB3872:
 5071              	.LBB3873:
 5072 0114 813E0138 		lwz 9,312(30)
 5073 0118 7C7E1B78 		mr 30,3
 5074              	.LVL412:
 5075 011c 7FA3EB78 		mr 3,29
 5076 0120 8009000C 		lwz 0,12(9)
 5077 0124 7C0903A6 		mtctr 0
 5078 0128 4E800421 		bctrl
 5079 012c 4BFFFFCC 		b .L327
 5080              	.LBE3873:
 5081              	.LBE3872:
 5082              	.LBE3871:
 5083              	.LBE3876:
 5084              	.LBE3887:
 5085              	.LBE3891:
 5086              		.cfi_endproc
 5087              	.LFE1529:
 5088              		.section	.gcc_except_table
 5089              	.LLSDA1529:
 5090 00cc FF       		.byte	0xff
 5091 00cd FF       		.byte	0xff
 5092 00ce 01       		.byte	0x1
 5093 00cf 1F       		.uleb128 .LLSDACSE1529-.LLSDACSB1529
 5094              	.LLSDACSB1529:
 5095 00d0 3C       		.uleb128 .LEHB35-.LFB1529
 5096 00d1 04       		.uleb128 .LEHE35-.LEHB35
 5097 00d2 00       		.uleb128 0
 5098 00d3 00       		.uleb128 0
 5099 00d4 44       		.uleb128 .LEHB36-.LFB1529
 5100 00d5 58       		.uleb128 .LEHE36-.LEHB36
 5101 00d6 F401     		.uleb128 .L330-.LFB1529
 5102 00d8 00       		.uleb128 0
 5103 00d9 A401     		.uleb128 .LEHB37-.LFB1529
 5104 00db 04       		.uleb128 .LEHE37-.LEHB37
 5105 00dc 9402     		.uleb128 .L331-.LFB1529
 5106 00de 00       		.uleb128 0
 5107 00df B801     		.uleb128 .LEHB38-.LFB1529
 5108 00e1 04       		.uleb128 .LEHE38-.LEHB38
 5109 00e2 F401     		.uleb128 .L330-.LFB1529
 5110 00e4 00       		.uleb128 0
 5111 00e5 CC01     		.uleb128 .LEHB39-.LFB1529
 5112 00e7 04       		.uleb128 .LEHE39-.LEHB39
 5113 00e8 00       		.uleb128 0
 5114 00e9 00       		.uleb128 0
 5115 00ea 9002     		.uleb128 .LEHB40-.LFB1529
 5116 00ec 04       		.uleb128 .LEHE40-.LEHB40
 5117 00ed 00       		.uleb128 0
 5118 00ee 00       		.uleb128 0
 5119              	.LLSDACSE1529:
 5120              		.section	.text._ZN7sigslot7signal3IP9GuiButtoniRK6_POINTNS_15single_threadedEE7connectI4TaskEEvPT_
 5121              		.size	_ZN7sigslot7signal3IP9GuiButtoniRK6_POINTNS_15single_threadedEE7connectI4TaskEEvPT_MSA_FvS2_
 5122              		.section	.text._ZNSt8_Rb_treeIPN7sigslot12_signal_baseINS0_15single_threadedEEES4_St9_IdentityIS4_
 5123              		.align 2
 5124              		.weak	_ZNSt8_Rb_treeIPN7sigslot12_signal_baseINS0_15single_threadedEEES4_St9_IdentityIS4_ESt4lessI
 5125              		.type	_ZNSt8_Rb_treeIPN7sigslot12_signal_baseINS0_15single_threadedEEES4_St9_IdentityIS4_ESt4lessI
 5126              	_ZNSt8_Rb_treeIPN7sigslot12_signal_baseINS0_15single_threadedEEES4_St9_IdentityIS4_ESt4lessIS4_ESaI
 5127              	.LFB1902:
 5128              		.loc 7 1510 0
 5129              		.cfi_startproc
 5130              	.LVL413:
 5131 0000 7C0802A6 		mflr 0
 5132 0004 9421FFE0 		stwu 1,-32(1)
 5133              	.LCFI76:
 5134              		.cfi_def_cfa_offset 32
 5135              		.cfi_register 65, 0
 5136 0008 93810010 		stw 28,16(1)
 5137              	.LBB3944:
 5138              	.LBB3945:
 5139              		.loc 7 1155 0
 5140 000c 3B830004 		addi 28,3,4
 5141              		.cfi_offset 28, -16
 5142              	.LBE3945:
 5143              	.LBE3944:
 5144              		.loc 7 1510 0
 5145 0010 90010024 		stw 0,36(1)
 5146 0014 93410008 		stw 26,8(1)
 5147              	.LBB4004:
 5148              	.LBB3966:
 5149              	.LBB3946:
 5150              		.loc 7 1155 0
 5151 0018 7F9AE378 		mr 26,28
 5152              		.cfi_offset 26, -24
 5153              		.cfi_offset 65, 4
 5154              	.LBE3946:
 5155              		.loc 3 73 0
 5156 001c 80030008 		lwz 0,8(3)
 5157              	.LBE3966:
 5158              	.LBE4004:
 5159              		.loc 7 1510 0
 5160 0020 93A10014 		stw 29,20(1)
 5161              	.LBB4005:
 5162              	.LBB3967:
 5163              	.LBB3959:
 5164              		.loc 7 1155 0
 5165 0024 7F9DE378 		mr 29,28
 5166              		.cfi_offset 29, -12
 5167              		.loc 7 1156 0
 5168 0028 2F800000 		cmpwi 7,0,0
 5169              	.LBE3959:
 5170              	.LBE3967:
 5171              	.LBE4005:
 5172              		.loc 7 1510 0
 5173 002c 93C10018 		stw 30,24(1)
 5174 0030 9361000C 		stw 27,12(1)
 5175 0034 7C7E1B78 		mr 30,3
 5176              		.cfi_offset 27, -20
 5177              		.cfi_offset 30, -8
 5178              	.LVL414:
 5179 0038 93E1001C 		stw 31,28(1)
 5180              	.LBB4006:
 5181              	.LBB3968:
 5182              	.LBB3960:
 5183              		.loc 7 1156 0
 5184 003c 419E0040 		beq- 7,.L334
 5185              		.cfi_offset 31, -4
 5186              	.LVL415:
 5187 0040 81640000 		lwz 11,0(4)
 5188 0044 7C1A0378 		mr 26,0
 5189 0048 48000010 		b .L345
 5190              	.LVL416:
 5191              	.L363:
 5192              	.LBE3960:
 5193              		.loc 3 73 0
 5194 004c 835A000C 		lwz 26,12(26)
 5195              	.LVL417:
 5196              	.LBB3961:
 5197              		.loc 7 1156 0
 5198 0050 2F9A0000 		cmpwi 7,26,0
 5199 0054 419E0024 		beq- 7,.L362
 5200              	.L345:
 5201              	.LVL418:
 5202              	.LBE3961:
 5203              		.loc 3 73 0
 5204 0058 813A0010 		lwz 9,16(26)
 5205              	.LBB3962:
 5206              	.LBB3947:
 5207              		.loc 7 1158 0
 5208 005c 7F895840 		cmplw 7,9,11
 5209 0060 41BCFFEC 		blt- 7,.L363
 5210              	.LVL419:
 5211              	.LBB3948:
 5212              		.loc 7 1160 0
 5213 0064 409D0094 		ble- 7,.L337
 5214              	.LVL420:
 5215              	.LBE3948:
 5216              	.LBE3947:
 5217              	.LBE3962:
 5218              		.loc 3 73 0
 5219 0068 7F5DD378 		mr 29,26
 5220              		.loc 7 1161 0
 5221 006c 835A0008 		lwz 26,8(26)
 5222              	.LVL421:
 5223              	.LBB3963:
 5224              		.loc 7 1156 0
 5225 0070 2F9A0000 		cmpwi 7,26,0
 5226 0074 409EFFE4 		bne+ 7,.L345
 5227              	.LVL422:
 5228              	.L362:
 5229 0078 7FBAEB78 		mr 26,29
 5230              	.LVL423:
 5231              	.L334:
 5232              	.LBE3963:
 5233              	.LBE3968:
 5234              	.LBB3969:
 5235              	.LBB3970:
 5236              	.LBB3971:
 5237              		.loc 7 1500 0
 5238 007c 813E000C 		lwz 9,12(30)
 5239              	.LBE3971:
 5240              	.LBE3970:
 5241              	.LBE3969:
 5242              	.LBB4000:
 5243              	.LBB3964:
 5244              		.loc 3 73 0
 5245 0080 837E0014 		lwz 27,20(30)
 5246              	.LVL424:
 5247              	.LBE3964:
 5248              	.LBE4000:
 5249              	.LBB4001:
 5250              	.LBB3998:
 5251              	.LBB3996:
 5252              		.loc 7 1500 0
 5253 0084 7F9A4800 		cmpw 7,26,9
 5254 0088 419E00DC 		beq- 7,.L364
 5255              	.L346:
 5256              	.LVL425:
 5257              		.loc 7 1503 0
 5258 008c 7F9DD000 		cmpw 7,29,26
 5259 0090 419E0100 		beq- 7,.L353
 5260              	.LVL426:
 5261              	.L360:
 5262              	.LBB3972:
 5263              	.LBB3973:
 5264              		.loc 7 277 0
 5265 0094 7F43D378 		mr 3,26
 5266 0098 48000001 		bl _ZSt18_Rb_tree_incrementPKSt18_Rb_tree_node_base
 5267              	.LBE3973:
 5268              	.LBE3972:
 5269              	.LBB3975:
 5270              	.LBB3976:
 5271              	.LBB3977:
 5272              		.loc 7 1489 0
 5273 009c 7F84E378 		mr 4,28
 5274              	.LBE3977:
 5275              	.LBE3976:
 5276              	.LBE3975:
 5277              	.LBB3988:
 5278              	.LBB3974:
 5279              		.loc 7 277 0
 5280 00a0 7C7F1B78 		mr 31,3
 5281              	.LVL427:
 5282              	.LBE3974:
 5283              	.LBE3988:
 5284              	.LBB3989:
 5285              	.LBB3985:
 5286              	.LBB3982:
 5287              		.loc 7 1489 0
 5288 00a4 7F43D378 		mr 3,26
 5289              	.LVL428:
 5290 00a8 48000001 		bl _ZSt28_Rb_tree_rebalance_for_erasePSt18_Rb_tree_node_baseRS_
 5291              	.LBE3982:
 5292              	.LBE3985:
 5293              	.LBE3989:
 5294              		.loc 7 277 0
 5295 00ac 7FFAFB78 		mr 26,31
 5296              	.LVL429:
 5297              	.LBB3990:
 5298              	.LBB3986:
 5299              	.LBB3983:
 5300              	.LBB3978:
 5301              	.LBB3979:
 5302              	.LBB3980:
 5303              	.LBB3981:
 5304              		.loc 5 98 0
 5305 00b0 48000001 		bl _ZdlPv
 5306              	.LBE3981:
 5307              	.LBE3980:
 5308              	.LBE3979:
 5309              	.LBE3978:
 5310              	.LBE3983:
 5311              	.LBE3986:
 5312              	.LBE3990:
 5313              		.loc 7 1503 0
 5314 00b4 7F9DF800 		cmpw 7,29,31
 5315              	.LBB3991:
 5316              	.LBB3987:
 5317              	.LBB3984:
 5318              		.loc 7 1491 0
 5319 00b8 813E0014 		lwz 9,20(30)
 5320 00bc 3809FFFF 		addi 0,9,-1
 5321 00c0 901E0014 		stw 0,20(30)
 5322              	.LBE3984:
 5323              	.LBE3987:
 5324              	.LBE3991:
 5325              		.loc 7 1503 0
 5326 00c4 409EFFD0 		bne+ 7,.L360
 5327 00c8 7F60D850 		subf 27,0,27
 5328              	.LVL430:
 5329              	.L348:
 5330              	.LBE3996:
 5331              	.LBE3998:
 5332              	.LBE4001:
 5333              	.LBE4006:
 5334              		.loc 7 1517 0
 5335 00cc 80010024 		lwz 0,36(1)
 5336 00d0 7F63DB78 		mr 3,27
 5337 00d4 83410008 		lwz 26,8(1)
 5338 00d8 7C0803A6 		mtlr 0
 5339 00dc 8361000C 		lwz 27,12(1)
 5340 00e0 83810010 		lwz 28,16(1)
 5341 00e4 83A10014 		lwz 29,20(1)
 5342              	.LVL431:
 5343 00e8 83C10018 		lwz 30,24(1)
 5344              	.LVL432:
 5345 00ec 83E1001C 		lwz 31,28(1)
 5346 00f0 38210020 		addi 1,1,32
 5347              		.cfi_remember_state
 5348              	.LCFI77:
 5349              		.cfi_def_cfa_offset 0
 5350              		.cfi_restore 31
 5351              		.cfi_restore 30
 5352              		.cfi_restore 29
 5353              		.cfi_restore 28
 5354              		.cfi_restore 27
 5355              		.cfi_restore 26
 5356 00f4 4E800020 		blr
 5357              	.LVL433:
 5358              	.L337:
 5359              	.LCFI78:
 5360              		.cfi_restore_state
 5361              	.LBB4007:
 5362              	.LBB4002:
 5363              		.loc 3 73 0
 5364 00f8 815A0008 		lwz 10,8(26)
 5365              	.LVL434:
 5366 00fc 813A000C 		lwz 9,12(26)
 5367              	.LVL435:
 5368              	.L361:
 5369              	.LBB3965:
 5370              	.LBB3958:
 5371              	.LBB3957:
 5372              	.LBB3949:
 5373              	.LBB3950:
 5374              	.LBB3951:
 5375              		.loc 7 1089 0
 5376 0100 2F8A0000 		cmpwi 7,10,0
 5377 0104 419E0020 		beq- 7,.L338
 5378              	.L365:
 5379              	.LVL436:
 5380              		.loc 7 1090 0
 5381 0108 810A0010 		lwz 8,16(10)
 5382 010c 7F885840 		cmplw 7,8,11
 5383 0110 419C004C 		blt- 7,.L339
 5384              	.LVL437:
 5385              	.LBE3951:
 5386              		.loc 3 73 0
 5387 0114 7D5A5378 		mr 26,10
 5388              		.loc 7 1091 0
 5389 0118 814A0008 		lwz 10,8(10)
 5390              	.LVL438:
 5391              	.LBB3952:
 5392              		.loc 7 1089 0
 5393 011c 2F8A0000 		cmpwi 7,10,0
 5394 0120 409EFFE8 		bne+ 7,.L365
 5395              	.LVL439:
 5396              	.L338:
 5397              	.LBE3952:
 5398              	.LBE3950:
 5399              	.LBB3953:
 5400              	.LBB3954:
 5401              		.loc 7 1121 0
 5402 0124 2F890000 		cmpwi 7,9,0
 5403 0128 41BEFF54 		beq- 7,.L334
 5404              	.LVL440:
 5405              		.loc 7 1122 0
 5406 012c 81490010 		lwz 10,16(9)
 5407 0130 7F8A5840 		cmplw 7,10,11
 5408 0134 409D0020 		ble- 7,.L342
 5409              	.LVL441:
 5410              	.L366:
 5411              	.LBE3954:
 5412              		.loc 3 73 0
 5413 0138 7D3D4B78 		mr 29,9
 5414              		.loc 7 1123 0
 5415 013c 81290008 		lwz 9,8(9)
 5416              	.LVL442:
 5417              	.LBB3955:
 5418              		.loc 7 1121 0
 5419 0140 2F890000 		cmpwi 7,9,0
 5420 0144 41BEFF38 		beq- 7,.L334
 5421              	.LVL443:
 5422              		.loc 7 1122 0
 5423 0148 81490010 		lwz 10,16(9)
 5424 014c 7F8A5840 		cmplw 7,10,11
 5425 0150 41BDFFE8 		bgt- 7,.L366
 5426              	.LVL444:
 5427              	.L342:
 5428              	.LBE3955:
 5429              		.loc 3 73 0
 5430 0154 8129000C 		lwz 9,12(9)
 5431              	.LVL445:
 5432 0158 4BFFFFCC 		b .L338
 5433              	.LVL446:
 5434              	.L339:
 5435              	.LBE3953:
 5436              	.LBB3956:
 5437 015c 814A000C 		lwz 10,12(10)
 5438              	.LVL447:
 5439 0160 4BFFFFA0 		b .L361
 5440              	.LVL448:
 5441              	.L364:
 5442              	.LBE3956:
 5443              	.LBE3949:
 5444              	.LBE3957:
 5445              	.LBE3958:
 5446              	.LBE3965:
 5447              	.LBE4002:
 5448              	.LBB4003:
 5449              	.LBB3999:
 5450              	.LBB3997:
 5451              		.loc 7 1500 0
 5452 0164 7F9CE800 		cmpw 7,28,29
 5453 0168 409EFF24 		bne+ 7,.L346
 5454              	.LVL449:
 5455              	.LBB3992:
 5456              	.LBB3993:
 5457              	.LBB3994:
 5458              	.LBB3995:
 5459              		.loc 7 809 0
 5460 016c 7C040378 		mr 4,0
 5461              	.LVL450:
 5462 0170 7FC3F378 		mr 3,30
 5463              	.LVL451:
 5464 0174 48000001 		bl _ZNSt8_Rb_treeIPN7sigslot12_signal_baseINS0_15single_threadedEEES4_St9_IdentityIS4_ESt4lessIS4_
 5465              	.LVL452:
 5466              		.loc 7 811 0
 5467 0178 38000000 		li 0,0
 5468              		.loc 7 810 0
 5469 017c 939E000C 		stw 28,12(30)
 5470              	.LVL453:
 5471              		.loc 7 811 0
 5472 0180 901E0008 		stw 0,8(30)
 5473              	.LVL454:
 5474              		.loc 7 812 0
 5475 0184 939E0010 		stw 28,16(30)
 5476              		.loc 7 813 0
 5477 0188 901E0014 		stw 0,20(30)
 5478 018c 4BFFFF40 		b .L348
 5479              	.LVL455:
 5480              	.L353:
 5481              	.LBE3995:
 5482              	.LBE3994:
 5483              	.LBE3993:
 5484              	.LBE3992:
 5485              		.loc 7 1503 0
 5486 0190 3B600000 		li 27,0
 5487 0194 4BFFFF38 		b .L348
 5488              	.LBE3997:
 5489              	.LBE3999:
 5490              	.LBE4003:
 5491              	.LBE4007:
 5492              		.cfi_endproc
 5493              	.LFE1902:
 5494              		.size	_ZNSt8_Rb_treeIPN7sigslot12_signal_baseINS0_15single_threadedEEES4_St9_IdentityIS4_ESt4lessI
 5495              		.section	.text._ZN7sigslot13_signal_base2IP4TaskiNS_15single_threadedEED0Ev,"axG",@progbits,_ZN7si
 5496              		.align 2
 5497              		.weak	_ZN7sigslot13_signal_base2IP4TaskiNS_15single_threadedEED0Ev
 5498              		.type	_ZN7sigslot13_signal_base2IP4TaskiNS_15single_threadedEED0Ev, @function
 5499              	_ZN7sigslot13_signal_base2IP4TaskiNS_15single_threadedEED0Ev:
 5500              	.LFB1602:
 5501              		.loc 1 823 0
 5502              		.cfi_startproc
 5503              		.cfi_personality 0,__gxx_personality_v0
 5504              		.cfi_lsda 0,.LLSDA1602
 5505              	.LVL456:
 5506 0000 7C0802A6 		mflr 0
 5507 0004 9421FFD8 		stwu 1,-40(1)
 5508              	.LCFI79:
 5509              		.cfi_def_cfa_offset 40
 5510              		.cfi_register 65, 0
 5511              	.LBB4103:
 5512              	.LBB4104:
 5513              	.LBB4105:
 5514              		.loc 1 826 0
 5515 0008 3D200000 		lis 9,_ZTVN7sigslot13_signal_base2IP4TaskiNS_15single_threadedEEE+8@ha
 5516              	.LBE4105:
 5517              	.LBE4104:
 5518              	.LBE4103:
 5519              		.loc 1 823 0
 5520 000c 93810018 		stw 28,24(1)
 5521 0010 7C7C1B78 		mr 28,3
 5522              		.cfi_offset 28, -16
 5523              	.LVL457:
 5524 0014 9001002C 		stw 0,44(1)
 5525              	.LBB4190:
 5526              	.LBB4186:
 5527              	.LBB4182:
 5528              		.loc 1 826 0
 5529 0018 38090008 		la 0,_ZTVN7sigslot13_signal_base2IP4TaskiNS_15single_threadedEEE+8@l(9)
 5530              		.cfi_offset 65, 4
 5531              	.LBE4182:
 5532              	.LBE4186:
 5533              	.LBE4190:
 5534              		.loc 1 823 0
 5535 001c 93A1001C 		stw 29,28(1)
 5536 0020 3BA30004 		addi 29,3,4
 5537              		.cfi_offset 29, -12
 5538 0024 93C10020 		stw 30,32(1)
 5539 0028 93E10024 		stw 31,36(1)
 5540              	.LBB4191:
 5541              	.LBB4187:
 5542              	.LBB4183:
 5543              		.loc 1 826 0
 5544 002c 90030000 		stw 0,0(3)
 5545              	.LVL458:
 5546              	.LEHB41:
 5547              	.LBB4106:
 5548              	.LBB4107:
 5549              	.LBB4108:
 5550              	.LBB4109:
 5551              		.loc 1 338 0
 5552              		.cfi_offset 31, -4
 5553              		.cfi_offset 30, -8
 5554 0030 48000001 		bl _ZN7sigslot15single_threaded4lockEv
 5555              	.LEHE41:
 5556              	.LVL459:
 5557              	.LBE4109:
 5558              	.LBE4108:
 5559              	.LBE4107:
 5560              		.loc 3 73 0
 5561 0034 7F9DE378 		mr 29,28
 5562              	.LVL460:
 5563 0038 87FD0004 		lwzu 31,4(29)
 5564              	.LVL461:
 5565              	.LBB4140:
 5566              		.loc 1 834 0
 5567 003c 7F9FE800 		cmpw 7,31,29
 5568 0040 419E00A8 		beq- 7,.L368
 5569              	.LVL462:
 5570              	.L406:
 5571              		.loc 1 836 0
 5572 0044 807F0008 		lwz 3,8(31)
 5573 0048 81230000 		lwz 9,0(3)
 5574 004c 80090008 		lwz 0,8(9)
 5575 0050 7C0903A6 		mtctr 0
 5576              	.LEHB42:
 5577 0054 4E800421 		bctrl
 5578              	.LBB4110:
 5579              	.LBB4111:
 5580              	.LBB4112:
 5581              	.LBB4113:
 5582              		.loc 1 338 0
 5583 0058 81230000 		lwz 9,0(3)
 5584              	.LBE4113:
 5585              	.LBE4112:
 5586              	.LBE4111:
 5587              	.LBE4110:
 5588              		.loc 1 836 0
 5589 005c 7C7E1B78 		mr 30,3
 5590              	.LVL463:
 5591 0060 93810008 		stw 28,8(1)
 5592              	.LVL464:
 5593              	.LBB4122:
 5594              	.LBB4121:
 5595              	.LBB4115:
 5596              	.LBB4114:
 5597              		.loc 1 338 0
 5598 0064 80090008 		lwz 0,8(9)
 5599 0068 7C0903A6 		mtctr 0
 5600 006c 4E800421 		bctrl
 5601              	.LVL465:
 5602              	.LBE4114:
 5603              	.LBE4115:
 5604              	.LBB4116:
 5605              	.LBB4117:
 5606              		.loc 8 528 0
 5607 0070 387E0004 		addi 3,30,4
 5608 0074 38810008 		addi 4,1,8
 5609 0078 48000001 		bl _ZNSt8_Rb_treeIPN7sigslot12_signal_baseINS0_15single_threadedEEES4_St9_IdentityIS4_ESt4lessIS4_
 5610              	.LVL466:
 5611              	.LBE4117:
 5612              	.LBE4116:
 5613              	.LBB4118:
 5614              	.LBB4119:
 5615              	.LBB4120:
 5616              		.loc 1 343 0
 5617 007c 813E0000 		lwz 9,0(30)
 5618 0080 7FC3F378 		mr 3,30
 5619 0084 8009000C 		lwz 0,12(9)
 5620 0088 7C0903A6 		mtctr 0
 5621 008c 4E800421 		bctrl
 5622              	.LVL467:
 5623              	.LBE4120:
 5624              	.LBE4119:
 5625              	.LBE4118:
 5626              	.LBE4121:
 5627              	.LBE4122:
 5628              		.loc 1 837 0
 5629 0090 807F0008 		lwz 3,8(31)
 5630 0094 2F830000 		cmpwi 7,3,0
 5631 0098 419E0014 		beq- 7,.L370
 5632 009c 81230000 		lwz 9,0(3)
 5633 00a0 80090004 		lwz 0,4(9)
 5634 00a4 7C0903A6 		mtctr 0
 5635 00a8 4E800421 		bctrl
 5636              	.LEHE42:
 5637              	.L370:
 5638              	.LVL468:
 5639              	.LBB4123:
 5640              	.LBB4124:
 5641              		.loc 4 234 0
 5642 00ac 83FF0000 		lwz 31,0(31)
 5643              	.LVL469:
 5644              	.LBE4124:
 5645              	.LBE4123:
 5646              		.loc 1 834 0
 5647 00b0 7F9DF800 		cmpw 7,29,31
 5648 00b4 409EFF90 		bne+ 7,.L406
 5649              	.LBE4140:
 5650              		.loc 3 73 0
 5651 00b8 83FC0004 		lwz 31,4(28)
 5652              	.LVL470:
 5653              	.LBB4141:
 5654              	.LBB4125:
 5655              	.LBB4126:
 5656              		.loc 4 1162 0
 5657 00bc 7F9DF800 		cmpw 7,29,31
 5658 00c0 40BE000C 		bne+ 7,.L408
 5659 00c4 48000024 		b .L368
 5660              	.LVL471:
 5661              	.L401:
 5662              		.loc 4 1163 0
 5663 00c8 7FDFF378 		mr 31,30
 5664              	.LVL472:
 5665              	.L408:
 5666              	.LBB4127:
 5667              	.LBB4128:
 5668              		.file 9 "d:\\devkitpro\\devkitppc\\bin\\../lib/gcc/powerpc-eabi/4.6.3/../../../../powerpc-eabi/inc
 5669              		.loc 9 112 0
 5670 00cc 83DF0000 		lwz 30,0(31)
 5671              	.LVL473:
 5672              	.LBB4129:
 5673              	.LBB4130:
 5674              		.loc 4 1532 0
 5675 00d0 7FE3FB78 		mr 3,31
 5676 00d4 48000001 		bl _ZNSt8__detail15_List_node_base9_M_unhookEv
 5677              	.LVL474:
 5678              	.LBB4131:
 5679              	.LBB4132:
 5680              	.LBB4133:
 5681              		.loc 5 98 0
 5682 00d8 7FE3FB78 		mr 3,31
 5683 00dc 48000001 		bl _ZdlPv
 5684              	.LVL475:
 5685              	.LBE4133:
 5686              	.LBE4132:
 5687              	.LBE4131:
 5688              	.LBE4130:
 5689              	.LBE4129:
 5690              	.LBE4128:
 5691              	.LBE4127:
 5692              		.loc 4 1162 0
 5693 00e0 7F9DF000 		cmpw 7,29,30
 5694 00e4 409EFFE4 		bne+ 7,.L401
 5695              	.LVL476:
 5696              	.L368:
 5697              	.LBE4126:
 5698              	.LBE4125:
 5699              	.LBB4134:
 5700              	.LBB4135:
 5701              	.LBB4136:
 5702              		.loc 1 343 0
 5703 00e8 813C0000 		lwz 9,0(28)
 5704 00ec 7F83E378 		mr 3,28
 5705 00f0 8009000C 		lwz 0,12(9)
 5706 00f4 7C0903A6 		mtctr 0
 5707              	.LEHB43:
 5708 00f8 4E800421 		bctrl
 5709              	.LEHE43:
 5710              	.LVL477:
 5711              	.LBE4136:
 5712              	.LBE4135:
 5713              	.LBE4134:
 5714              	.LBE4141:
 5715              	.LBE4106:
 5716              	.LBB4143:
 5717              	.LBB4144:
 5718              	.LBB4145:
 5719              	.LBB4146:
 5720              	.LBB4147:
 5721              	.LBB4148:
 5722              		.loc 9 70 0
 5723 00fc 807C0004 		lwz 3,4(28)
 5724              	.LVL478:
 5725              		.loc 9 71 0
 5726 0100 7F83E800 		cmpw 7,3,29
 5727 0104 40BE000C 		bne+ 7,.L410
 5728 0108 48000018 		b .L386
 5729              	.LVL479:
 5730              	.L402:
 5731              		.loc 9 74 0
 5732 010c 7FE3FB78 		mr 3,31
 5733              	.LVL480:
 5734              	.L410:
 5735              	.LBB4149:
 5736 0110 83E30000 		lwz 31,0(3)
 5737              	.LVL481:
 5738              	.LBB4150:
 5739              	.LBB4151:
 5740              	.LBB4152:
 5741              		.loc 5 98 0
 5742 0114 48000001 		bl _ZdlPv
 5743              	.LVL482:
 5744              	.LBE4152:
 5745              	.LBE4151:
 5746              	.LBE4150:
 5747              	.LBE4149:
 5748              		.loc 9 71 0
 5749 0118 7F9FE800 		cmpw 7,31,29
 5750 011c 409EFFF0 		bne+ 7,.L402
 5751              	.LVL483:
 5752              	.L386:
 5753              	.LBE4148:
 5754              	.LBE4147:
 5755              	.LBE4146:
 5756              	.LBE4145:
 5757              	.LBE4144:
 5758              	.LBE4143:
 5759              	.LBB4153:
 5760              	.LBB4154:
 5761              	.LBB4155:
 5762              	.LBB4156:
 5763              	.LBB4157:
 5764              	.LBB4158:
 5765              		.loc 1 105 0
 5766 0120 3D200000 		lis 9,_ZTVN7sigslot15single_threadedE+8@ha
 5767              	.LBE4158:
 5768              	.LBE4157:
 5769              	.LBE4156:
 5770              	.LBE4155:
 5771              	.LBE4154:
 5772              	.LBE4153:
 5773              	.LBE4183:
 5774              	.LBE4187:
 5775              	.LBE4191:
 5776              		.loc 1 826 0
 5777 0124 7F83E378 		mr 3,28
 5778              	.LBB4192:
 5779              	.LBB4188:
 5780              	.LBB4184:
 5781              	.LBB4164:
 5782              	.LBB4163:
 5783              	.LBB4162:
 5784              	.LBB4161:
 5785              	.LBB4160:
 5786              	.LBB4159:
 5787              		.loc 1 105 0
 5788 0128 38090008 		la 0,_ZTVN7sigslot15single_threadedE+8@l(9)
 5789 012c 901C0000 		stw 0,0(28)
 5790              	.LBE4159:
 5791              	.LBE4160:
 5792              	.LBE4161:
 5793              	.LBE4162:
 5794              	.LBE4163:
 5795              	.LBE4164:
 5796              	.LBE4184:
 5797              	.LBE4188:
 5798              	.LBE4192:
 5799              		.loc 1 826 0
 5800 0130 48000001 		bl _ZdlPv
 5801 0134 8001002C 		lwz 0,44(1)
 5802 0138 83810018 		lwz 28,24(1)
 5803              	.LVL484:
 5804 013c 7C0803A6 		mtlr 0
 5805 0140 83A1001C 		lwz 29,28(1)
 5806              	.LVL485:
 5807 0144 83C10020 		lwz 30,32(1)
 5808 0148 83E10024 		lwz 31,36(1)
 5809 014c 38210028 		addi 1,1,40
 5810              		.cfi_remember_state
 5811              	.LCFI80:
 5812              		.cfi_def_cfa_offset 0
 5813              		.cfi_restore 31
 5814              		.cfi_restore 30
 5815              		.cfi_restore 29
 5816              		.cfi_restore 28
 5817 0150 4E800020 		blr
 5818              	.LVL486:
 5819              	.L404:
 5820              	.LCFI81:
 5821              		.cfi_restore_state
 5822 0154 7C7F1B78 		mr 31,3
 5823              	.L378:
 5824              	.LVL487:
 5825              	.LBB4193:
 5826              	.LBB4189:
 5827              	.LBB4185:
 5828              	.LBB4165:
 5829              	.LBB4166:
 5830              	.LBB4167:
 5831              	.LBB4168:
 5832              	.LBB4169:
 5833              	.LBB4170:
 5834              		.loc 9 70 0
 5835 0158 807C0004 		lwz 3,4(28)
 5836              	.LVL488:
 5837              		.loc 9 71 0
 5838 015c 7F83E800 		cmpw 7,3,29
 5839 0160 419E0038 		beq- 7,.L395
 5840              	.LVL489:
 5841              	.L411:
 5842              	.LBB4171:
 5843              		.loc 9 74 0
 5844 0164 83C30000 		lwz 30,0(3)
 5845              	.LVL490:
 5846              	.LBB4172:
 5847              	.LBB4173:
 5848              	.LBB4174:
 5849              		.loc 5 98 0
 5850 0168 48000001 		bl _ZdlPv
 5851              	.LVL491:
 5852              	.LBE4174:
 5853              	.LBE4173:
 5854              	.LBE4172:
 5855              	.LBE4171:
 5856              		.loc 9 71 0
 5857 016c 7F9EE800 		cmpw 7,30,29
 5858 0170 419E0028 		beq- 7,.L395
 5859              		.loc 9 74 0
 5860 0174 7FC3F378 		mr 3,30
 5861 0178 4BFFFFEC 		b .L411
 5862              	.LVL492:
 5863              	.L405:
 5864              	.LBE4170:
 5865              	.LBE4169:
 5866              	.LBE4168:
 5867              	.LBE4167:
 5868              	.LBE4166:
 5869              	.LBE4165:
 5870              	.LBB4175:
 5871              	.LBB4142:
 5872              	.LBB4137:
 5873              	.LBB4138:
 5874              	.LBB4139:
 5875              		.loc 1 343 0
 5876 017c 813C0000 		lwz 9,0(28)
 5877 0180 7C7F1B78 		mr 31,3
 5878              	.LVL493:
 5879 0184 7F83E378 		mr 3,28
 5880 0188 8009000C 		lwz 0,12(9)
 5881 018c 7C0903A6 		mtctr 0
 5882 0190 4E800421 		bctrl
 5883 0194 4BFFFFC4 		b .L378
 5884              	.LVL494:
 5885              	.L395:
 5886              	.LBE4139:
 5887              	.LBE4138:
 5888              	.LBE4137:
 5889              	.LBE4142:
 5890              	.LBE4175:
 5891              	.LBB4176:
 5892              	.LBB4177:
 5893              	.LBB4178:
 5894              	.LBB4179:
 5895              	.LBB4180:
 5896              	.LBB4181:
 5897              		.loc 1 105 0
 5898 0198 3D200000 		lis 9,_ZTVN7sigslot15single_threadedE+8@ha
 5899 019c 7FE3FB78 		mr 3,31
 5900 01a0 38090008 		la 0,_ZTVN7sigslot15single_threadedE+8@l(9)
 5901 01a4 901C0000 		stw 0,0(28)
 5902              	.LEHB44:
 5903 01a8 48000001 		bl _Unwind_Resume
 5904              	.LEHE44:
 5905              	.LBE4181:
 5906              	.LBE4180:
 5907              	.LBE4179:
 5908              	.LBE4178:
 5909              	.LBE4177:
 5910              	.LBE4176:
 5911              	.LBE4185:
 5912              	.LBE4189:
 5913              	.LBE4193:
 5914              		.cfi_endproc
 5915              	.LFE1602:
 5916              		.section	.gcc_except_table
 5917              	.LLSDA1602:
 5918 00ef FF       		.byte	0xff
 5919 00f0 FF       		.byte	0xff
 5920 00f1 01       		.byte	0x1
 5921 00f2 15       		.uleb128 .LLSDACSE1602-.LLSDACSB1602
 5922              	.LLSDACSB1602:
 5923 00f3 30       		.uleb128 .LEHB41-.LFB1602
 5924 00f4 04       		.uleb128 .LEHE41-.LEHB41
 5925 00f5 D402     		.uleb128 .L404-.LFB1602
 5926 00f7 00       		.uleb128 0
 5927 00f8 54       		.uleb128 .LEHB42-.LFB1602
 5928 00f9 58       		.uleb128 .LEHE42-.LEHB42
 5929 00fa FC02     		.uleb128 .L405-.LFB1602
 5930 00fc 00       		.uleb128 0
 5931 00fd F801     		.uleb128 .LEHB43-.LFB1602
 5932 00ff 04       		.uleb128 .LEHE43-.LEHB43
 5933 0100 D402     		.uleb128 .L404-.LFB1602
 5934 0102 00       		.uleb128 0
 5935 0103 A803     		.uleb128 .LEHB44-.LFB1602
 5936 0105 04       		.uleb128 .LEHE44-.LEHB44
 5937 0106 00       		.uleb128 0
 5938 0107 00       		.uleb128 0
 5939              	.LLSDACSE1602:
 5940              		.section	.text._ZN7sigslot13_signal_base2IP4TaskiNS_15single_threadedEED0Ev,"axG",@progbits,_ZN7si
 5941              		.size	_ZN7sigslot13_signal_base2IP4TaskiNS_15single_threadedEED0Ev, .-_ZN7sigslot13_signal_base2IP
 5942              		.section	.text._ZN7sigslot7signal2IP4TaskiNS_15single_threadedEED2Ev,"axG",@progbits,_ZN7sigslot7s
 5943              		.align 2
 5944              		.weak	_ZN7sigslot7signal2IP4TaskiNS_15single_threadedEED2Ev
 5945              		.type	_ZN7sigslot7signal2IP4TaskiNS_15single_threadedEED2Ev, @function
 5946              	_ZN7sigslot7signal2IP4TaskiNS_15single_threadedEED2Ev:
 5947              	.LFB1519:
 5948              		.loc 1 2235 0
 5949              		.cfi_startproc
 5950              		.cfi_personality 0,__gxx_personality_v0
 5951              		.cfi_lsda 0,.LLSDA1519
 5952              	.LVL495:
 5953 0000 7C0802A6 		mflr 0
 5954 0004 9421FFD8 		stwu 1,-40(1)
 5955              	.LCFI82:
 5956              		.cfi_def_cfa_offset 40
 5957              		.cfi_register 65, 0
 5958              	.LBB4291:
 5959              	.LBB4292:
 5960              	.LBB4293:
 5961              	.LBB4294:
 5962              		.loc 1 826 0
 5963 0008 3D200000 		lis 9,_ZTVN7sigslot13_signal_base2IP4TaskiNS_15single_threadedEEE+8@ha
 5964              	.LBE4294:
 5965              	.LBE4293:
 5966              	.LBE4292:
 5967              	.LBE4291:
 5968              		.loc 1 2235 0
 5969 000c 93810018 		stw 28,24(1)
 5970 0010 7C7C1B78 		mr 28,3
 5971              		.cfi_offset 28, -16
 5972              	.LVL496:
 5973 0014 9001002C 		stw 0,44(1)
 5974              	.LBB4392:
 5975              	.LBB4387:
 5976              	.LBB4382:
 5977              	.LBB4377:
 5978              		.loc 1 826 0
 5979 0018 38090008 		la 0,_ZTVN7sigslot13_signal_base2IP4TaskiNS_15single_threadedEEE+8@l(9)
 5980              		.cfi_offset 65, 4
 5981              	.LBE4377:
 5982              	.LBE4382:
 5983              	.LBE4387:
 5984              	.LBE4392:
 5985              		.loc 1 2235 0
 5986 001c 93A1001C 		stw 29,28(1)
 5987 0020 3BA30004 		addi 29,3,4
 5988              		.cfi_offset 29, -12
 5989 0024 93C10020 		stw 30,32(1)
 5990 0028 93E10024 		stw 31,36(1)
 5991              	.LBB4393:
 5992              	.LBB4388:
 5993              	.LBB4383:
 5994              	.LBB4378:
 5995              		.loc 1 826 0
 5996 002c 90030000 		stw 0,0(3)
 5997              	.LVL497:
 5998              	.LEHB45:
 5999              	.LBB4295:
 6000              	.LBB4296:
 6001              	.LBB4297:
 6002              	.LBB4298:
 6003              		.loc 1 338 0
 6004              		.cfi_offset 31, -4
 6005              		.cfi_offset 30, -8
 6006 0030 48000001 		bl _ZN7sigslot15single_threaded4lockEv
 6007              	.LEHE45:
 6008              	.LVL498:
 6009              	.LBE4298:
 6010              	.LBE4297:
 6011              	.LBE4296:
 6012              		.loc 3 73 0
 6013 0034 7F9DE378 		mr 29,28
 6014              	.LVL499:
 6015 0038 87FD0004 		lwzu 31,4(29)
 6016              	.LVL500:
 6017              	.LBB4329:
 6018              		.loc 1 834 0
 6019 003c 7F9FE800 		cmpw 7,31,29
 6020 0040 419E00A8 		beq- 7,.L413
 6021              	.LVL501:
 6022              	.L451:
 6023              		.loc 1 836 0
 6024 0044 807F0008 		lwz 3,8(31)
 6025 0048 81230000 		lwz 9,0(3)
 6026 004c 80090008 		lwz 0,8(9)
 6027 0050 7C0903A6 		mtctr 0
 6028              	.LEHB46:
 6029 0054 4E800421 		bctrl
 6030              	.LBB4299:
 6031              	.LBB4300:
 6032              	.LBB4301:
 6033              	.LBB4302:
 6034              		.loc 1 338 0
 6035 0058 81230000 		lwz 9,0(3)
 6036              	.LBE4302:
 6037              	.LBE4301:
 6038              	.LBE4300:
 6039              	.LBE4299:
 6040              		.loc 1 836 0
 6041 005c 7C7E1B78 		mr 30,3
 6042              	.LVL502:
 6043 0060 93810008 		stw 28,8(1)
 6044              	.LVL503:
 6045              	.LBB4311:
 6046              	.LBB4310:
 6047              	.LBB4304:
 6048              	.LBB4303:
 6049              		.loc 1 338 0
 6050 0064 80090008 		lwz 0,8(9)
 6051 0068 7C0903A6 		mtctr 0
 6052 006c 4E800421 		bctrl
 6053              	.LVL504:
 6054              	.LBE4303:
 6055              	.LBE4304:
 6056              	.LBB4305:
 6057              	.LBB4306:
 6058              		.loc 8 528 0
 6059 0070 387E0004 		addi 3,30,4
 6060 0074 38810008 		addi 4,1,8
 6061 0078 48000001 		bl _ZNSt8_Rb_treeIPN7sigslot12_signal_baseINS0_15single_threadedEEES4_St9_IdentityIS4_ESt4lessIS4_
 6062              	.LVL505:
 6063              	.LBE4306:
 6064              	.LBE4305:
 6065              	.LBB4307:
 6066              	.LBB4308:
 6067              	.LBB4309:
 6068              		.loc 1 343 0
 6069 007c 813E0000 		lwz 9,0(30)
 6070 0080 7FC3F378 		mr 3,30
 6071 0084 8009000C 		lwz 0,12(9)
 6072 0088 7C0903A6 		mtctr 0
 6073 008c 4E800421 		bctrl
 6074              	.LVL506:
 6075              	.LBE4309:
 6076              	.LBE4308:
 6077              	.LBE4307:
 6078              	.LBE4310:
 6079              	.LBE4311:
 6080              		.loc 1 837 0
 6081 0090 807F0008 		lwz 3,8(31)
 6082 0094 2F830000 		cmpwi 7,3,0
 6083 0098 419E0014 		beq- 7,.L415
 6084 009c 81230000 		lwz 9,0(3)
 6085 00a0 80090004 		lwz 0,4(9)
 6086 00a4 7C0903A6 		mtctr 0
 6087 00a8 4E800421 		bctrl
 6088              	.LEHE46:
 6089              	.L415:
 6090              	.LVL507:
 6091              	.LBB4312:
 6092              	.LBB4313:
 6093              		.loc 4 234 0
 6094 00ac 83FF0000 		lwz 31,0(31)
 6095              	.LVL508:
 6096              	.LBE4313:
 6097              	.LBE4312:
 6098              		.loc 1 834 0
 6099 00b0 7F9DF800 		cmpw 7,29,31
 6100 00b4 409EFF90 		bne+ 7,.L451
 6101              	.LBE4329:
 6102              		.loc 3 73 0
 6103 00b8 83FC0004 		lwz 31,4(28)
 6104              	.LVL509:
 6105              	.LBB4330:
 6106              	.LBB4314:
 6107              	.LBB4315:
 6108              		.loc 4 1162 0
 6109 00bc 7F9DF800 		cmpw 7,29,31
 6110 00c0 40BE000C 		bne+ 7,.L453
 6111 00c4 48000024 		b .L413
 6112              	.LVL510:
 6113              	.L446:
 6114              		.loc 4 1163 0
 6115 00c8 7FDFF378 		mr 31,30
 6116              	.LVL511:
 6117              	.L453:
 6118              	.LBB4316:
 6119              	.LBB4317:
 6120              		.loc 9 112 0
 6121 00cc 83DF0000 		lwz 30,0(31)
 6122              	.LVL512:
 6123              	.LBB4318:
 6124              	.LBB4319:
 6125              		.loc 4 1532 0
 6126 00d0 7FE3FB78 		mr 3,31
 6127 00d4 48000001 		bl _ZNSt8__detail15_List_node_base9_M_unhookEv
 6128              	.LVL513:
 6129              	.LBB4320:
 6130              	.LBB4321:
 6131              	.LBB4322:
 6132              		.loc 5 98 0
 6133 00d8 7FE3FB78 		mr 3,31
 6134 00dc 48000001 		bl _ZdlPv
 6135              	.LVL514:
 6136              	.LBE4322:
 6137              	.LBE4321:
 6138              	.LBE4320:
 6139              	.LBE4319:
 6140              	.LBE4318:
 6141              	.LBE4317:
 6142              	.LBE4316:
 6143              		.loc 4 1162 0
 6144 00e0 7F9DF000 		cmpw 7,29,30
 6145 00e4 409EFFE4 		bne+ 7,.L446
 6146              	.LVL515:
 6147              	.L413:
 6148              	.LBE4315:
 6149              	.LBE4314:
 6150              	.LBB4323:
 6151              	.LBB4324:
 6152              	.LBB4325:
 6153              		.loc 1 343 0
 6154 00e8 813C0000 		lwz 9,0(28)
 6155 00ec 7F83E378 		mr 3,28
 6156 00f0 8009000C 		lwz 0,12(9)
 6157 00f4 7C0903A6 		mtctr 0
 6158              	.LEHB47:
 6159 00f8 4E800421 		bctrl
 6160              	.LEHE47:
 6161              	.LBE4325:
 6162              	.LBE4324:
 6163              	.LBE4323:
 6164              	.LBE4330:
 6165              	.LBE4295:
 6166              	.LBB4332:
 6167              	.LBB4333:
 6168              	.LBB4334:
 6169              	.LBB4335:
 6170              	.LBB4336:
 6171              	.LBB4337:
 6172              		.loc 9 70 0
 6173 00fc 807C0004 		lwz 3,4(28)
 6174              	.LVL516:
 6175              		.loc 9 71 0
 6176 0100 7F83E800 		cmpw 7,3,29
 6177 0104 40BE000C 		bne+ 7,.L455
 6178 0108 48000018 		b .L431
 6179              	.LVL517:
 6180              	.L447:
 6181              		.loc 9 74 0
 6182 010c 7FE3FB78 		mr 3,31
 6183              	.LVL518:
 6184              	.L455:
 6185              	.LBB4338:
 6186 0110 83E30000 		lwz 31,0(3)
 6187              	.LVL519:
 6188              	.LBB4339:
 6189              	.LBB4340:
 6190              	.LBB4341:
 6191              		.loc 5 98 0
 6192 0114 48000001 		bl _ZdlPv
 6193              	.LVL520:
 6194              	.LBE4341:
 6195              	.LBE4340:
 6196              	.LBE4339:
 6197              	.LBE4338:
 6198              		.loc 9 71 0
 6199 0118 7F9FE800 		cmpw 7,31,29
 6200 011c 409EFFF0 		bne+ 7,.L447
 6201              	.LVL521:
 6202              	.L431:
 6203              	.LBE4337:
 6204              	.LBE4336:
 6205              	.LBE4335:
 6206              	.LBE4334:
 6207              	.LBE4333:
 6208              	.LBE4332:
 6209              	.LBB4342:
 6210              	.LBB4343:
 6211              	.LBB4344:
 6212              	.LBB4345:
 6213              	.LBB4346:
 6214              	.LBB4347:
 6215              		.loc 1 105 0
 6216 0120 3D200000 		lis 9,_ZTVN7sigslot15single_threadedE+8@ha
 6217              	.LBE4347:
 6218              	.LBE4346:
 6219              	.LBE4345:
 6220              	.LBE4344:
 6221              	.LBE4343:
 6222              	.LBE4342:
 6223              	.LBE4378:
 6224              	.LBE4383:
 6225              	.LBE4388:
 6226              	.LBE4393:
 6227              		.loc 1 2238 0
 6228 0124 83A1001C 		lwz 29,28(1)
 6229              	.LVL522:
 6230              	.LBB4394:
 6231              	.LBB4389:
 6232              	.LBB4384:
 6233              	.LBB4379:
 6234              	.LBB4358:
 6235              	.LBB4356:
 6236              	.LBB4354:
 6237              	.LBB4352:
 6238              	.LBB4350:
 6239              	.LBB4348:
 6240              		.loc 1 105 0
 6241 0128 38090008 		la 0,_ZTVN7sigslot15single_threadedE+8@l(9)
 6242              	.LBE4348:
 6243              	.LBE4350:
 6244              	.LBE4352:
 6245              	.LBE4354:
 6246              	.LBE4356:
 6247              	.LBE4358:
 6248              	.LBE4379:
 6249              	.LBE4384:
 6250              	.LBE4389:
 6251              	.LBE4394:
 6252              		.loc 1 2238 0
 6253 012c 83C10020 		lwz 30,32(1)
 6254              	.LBB4395:
 6255              	.LBB4390:
 6256              	.LBB4385:
 6257              	.LBB4380:
 6258              	.LBB4359:
 6259              	.LBB4357:
 6260              	.LBB4355:
 6261              	.LBB4353:
 6262              	.LBB4351:
 6263              	.LBB4349:
 6264              		.loc 1 105 0
 6265 0130 901C0000 		stw 0,0(28)
 6266              	.LBE4349:
 6267              	.LBE4351:
 6268              	.LBE4353:
 6269              	.LBE4355:
 6270              	.LBE4357:
 6271              	.LBE4359:
 6272              	.LBE4380:
 6273              	.LBE4385:
 6274              	.LBE4390:
 6275              	.LBE4395:
 6276              		.loc 1 2238 0
 6277 0134 8001002C 		lwz 0,44(1)
 6278 0138 83810018 		lwz 28,24(1)
 6279              	.LVL523:
 6280 013c 7C0803A6 		mtlr 0
 6281 0140 83E10024 		lwz 31,36(1)
 6282 0144 38210028 		addi 1,1,40
 6283              		.cfi_remember_state
 6284              	.LCFI83:
 6285              		.cfi_def_cfa_offset 0
 6286              		.cfi_restore 31
 6287              		.cfi_restore 30
 6288              		.cfi_restore 29
 6289              		.cfi_restore 28
 6290 0148 4E800020 		blr
 6291              	.LVL524:
 6292              	.L449:
 6293              	.LCFI84:
 6294              		.cfi_restore_state
 6295 014c 7C7F1B78 		mr 31,3
 6296              	.L423:
 6297              	.LBB4396:
 6298              	.LBB4391:
 6299              	.LBB4386:
 6300              	.LBB4381:
 6301              	.LBB4360:
 6302              	.LBB4361:
 6303              	.LBB4362:
 6304              	.LBB4363:
 6305              	.LBB4364:
 6306              	.LBB4365:
 6307              		.loc 9 70 0
 6308 0150 807C0004 		lwz 3,4(28)
 6309              	.LVL525:
 6310              		.loc 9 71 0
 6311 0154 7F83E800 		cmpw 7,3,29
 6312 0158 419E0038 		beq- 7,.L440
 6313              	.LVL526:
 6314              	.L456:
 6315              	.LBB4366:
 6316              		.loc 9 74 0
 6317 015c 83C30000 		lwz 30,0(3)
 6318              	.LVL527:
 6319              	.LBB4367:
 6320              	.LBB4368:
 6321              	.LBB4369:
 6322              		.loc 5 98 0
 6323 0160 48000001 		bl _ZdlPv
 6324              	.LVL528:
 6325              	.LBE4369:
 6326              	.LBE4368:
 6327              	.LBE4367:
 6328              	.LBE4366:
 6329              		.loc 9 71 0
 6330 0164 7F9EE800 		cmpw 7,30,29
 6331 0168 419E0028 		beq- 7,.L440
 6332              		.loc 9 74 0
 6333 016c 7FC3F378 		mr 3,30
 6334 0170 4BFFFFEC 		b .L456
 6335              	.LVL529:
 6336              	.L450:
 6337              	.LBE4365:
 6338              	.LBE4364:
 6339              	.LBE4363:
 6340              	.LBE4362:
 6341              	.LBE4361:
 6342              	.LBE4360:
 6343              	.LBB4370:
 6344              	.LBB4331:
 6345              	.LBB4326:
 6346              	.LBB4327:
 6347              	.LBB4328:
 6348              		.loc 1 343 0
 6349 0174 813C0000 		lwz 9,0(28)
 6350 0178 7C7F1B78 		mr 31,3
 6351              	.LVL530:
 6352 017c 7F83E378 		mr 3,28
 6353 0180 8009000C 		lwz 0,12(9)
 6354 0184 7C0903A6 		mtctr 0
 6355 0188 4E800421 		bctrl
 6356 018c 4BFFFFC4 		b .L423
 6357              	.LVL531:
 6358              	.L440:
 6359              	.LBE4328:
 6360              	.LBE4327:
 6361              	.LBE4326:
 6362              	.LBE4331:
 6363              	.LBE4370:
 6364              	.LBB4371:
 6365              	.LBB4372:
 6366              	.LBB4373:
 6367              	.LBB4374:
 6368              	.LBB4375:
 6369              	.LBB4376:
 6370              		.loc 1 105 0
 6371 0190 3D200000 		lis 9,_ZTVN7sigslot15single_threadedE+8@ha
 6372 0194 7FE3FB78 		mr 3,31
 6373 0198 38090008 		la 0,_ZTVN7sigslot15single_threadedE+8@l(9)
 6374 019c 901C0000 		stw 0,0(28)
 6375              	.LEHB48:
 6376 01a0 48000001 		bl _Unwind_Resume
 6377              	.LEHE48:
 6378              	.LBE4376:
 6379              	.LBE4375:
 6380              	.LBE4374:
 6381              	.LBE4373:
 6382              	.LBE4372:
 6383              	.LBE4371:
 6384              	.LBE4381:
 6385              	.LBE4386:
 6386              	.LBE4391:
 6387              	.LBE4396:
 6388              		.cfi_endproc
 6389              	.LFE1519:
 6390              		.section	.gcc_except_table
 6391              	.LLSDA1519:
 6392 0108 FF       		.byte	0xff
 6393 0109 FF       		.byte	0xff
 6394 010a 01       		.byte	0x1
 6395 010b 15       		.uleb128 .LLSDACSE1519-.LLSDACSB1519
 6396              	.LLSDACSB1519:
 6397 010c 30       		.uleb128 .LEHB45-.LFB1519
 6398 010d 04       		.uleb128 .LEHE45-.LEHB45
 6399 010e CC02     		.uleb128 .L449-.LFB1519
 6400 0110 00       		.uleb128 0
 6401 0111 54       		.uleb128 .LEHB46-.LFB1519
 6402 0112 58       		.uleb128 .LEHE46-.LEHB46
 6403 0113 F402     		.uleb128 .L450-.LFB1519
 6404 0115 00       		.uleb128 0
 6405 0116 F801     		.uleb128 .LEHB47-.LFB1519
 6406 0118 04       		.uleb128 .LEHE47-.LEHB47
 6407 0119 CC02     		.uleb128 .L449-.LFB1519
 6408 011b 00       		.uleb128 0
 6409 011c A003     		.uleb128 .LEHB48-.LFB1519
 6410 011e 04       		.uleb128 .LEHE48-.LEHB48
 6411 011f 00       		.uleb128 0
 6412 0120 00       		.uleb128 0
 6413              	.LLSDACSE1519:
 6414              		.section	.text._ZN7sigslot7signal2IP4TaskiNS_15single_threadedEED2Ev,"axG",@progbits,_ZN7sigslot7s
 6415              		.size	_ZN7sigslot7signal2IP4TaskiNS_15single_threadedEED2Ev, .-_ZN7sigslot7signal2IP4TaskiNS_15sin
 6416              		.section	.text._ZN7sigslot13_signal_base1IP4TaskNS_15single_threadedEED2Ev,"axG",@progbits,_ZN7sig
 6417              		.align 2
 6418              		.weak	_ZN7sigslot13_signal_base1IP4TaskNS_15single_threadedEED2Ev
 6419              		.type	_ZN7sigslot13_signal_base1IP4TaskNS_15single_threadedEED2Ev, @function
 6420              	_ZN7sigslot13_signal_base1IP4TaskNS_15single_threadedEED2Ev:
 6421              	.LFB1610:
 6422              		.loc 1 702 0
 6423              		.cfi_startproc
 6424              		.cfi_personality 0,__gxx_personality_v0
 6425              		.cfi_lsda 0,.LLSDA1610
 6426              	.LVL532:
 6427 0000 7C0802A6 		mflr 0
 6428 0004 9421FFD8 		stwu 1,-40(1)
 6429              	.LCFI85:
 6430              		.cfi_def_cfa_offset 40
 6431              		.cfi_register 65, 0
 6432              	.LBB4543:
 6433              		.loc 1 705 0
 6434 0008 3D200000 		lis 9,_ZTVN7sigslot13_signal_base1IP4TaskNS_15single_threadedEEE+8@ha
 6435              	.LBE4543:
 6436              		.loc 1 702 0
 6437 000c 93810018 		stw 28,24(1)
 6438 0010 7C7C1B78 		mr 28,3
 6439              		.cfi_offset 28, -16
 6440 0014 9001002C 		stw 0,44(1)
 6441              	.LBB4626:
 6442              		.loc 1 705 0
 6443 0018 38090008 		la 0,_ZTVN7sigslot13_signal_base1IP4TaskNS_15single_threadedEEE+8@l(9)
 6444              		.cfi_offset 65, 4
 6445              	.LBE4626:
 6446              		.loc 1 702 0
 6447 001c 93A1001C 		stw 29,28(1)
 6448 0020 3BA30004 		addi 29,3,4
 6449              		.cfi_offset 29, -12
 6450 0024 93C10020 		stw 30,32(1)
 6451 0028 93E10024 		stw 31,36(1)
 6452              	.LBB4627:
 6453              		.loc 1 705 0
 6454 002c 90030000 		stw 0,0(3)
 6455              	.LVL533:
 6456              	.LEHB49:
 6457              	.LBB4544:
 6458              	.LBB4545:
 6459              	.LBB4546:
 6460              	.LBB4547:
 6461              		.loc 1 338 0
 6462              		.cfi_offset 31, -4
 6463              		.cfi_offset 30, -8
 6464 0030 48000001 		bl _ZN7sigslot15single_threaded4lockEv
 6465              	.LEHE49:
 6466              	.LVL534:
 6467              	.LBE4547:
 6468              	.LBE4546:
 6469              	.LBE4545:
 6470              		.loc 3 73 0
 6471 0034 7F9DE378 		mr 29,28
 6472              	.LVL535:
 6473 0038 87FD0004 		lwzu 31,4(29)
 6474              	.LVL536:
 6475              	.LBB4578:
 6476              		.loc 1 713 0
 6477 003c 7F9FE800 		cmpw 7,31,29
 6478 0040 419E00A8 		beq- 7,.L458
 6479              	.LVL537:
 6480              	.L495:
 6481              		.loc 1 715 0
 6482 0044 807F0008 		lwz 3,8(31)
 6483 0048 81230000 		lwz 9,0(3)
 6484 004c 80090008 		lwz 0,8(9)
 6485 0050 7C0903A6 		mtctr 0
 6486              	.LEHB50:
 6487 0054 4E800421 		bctrl
 6488              	.LBB4548:
 6489              	.LBB4549:
 6490              	.LBB4550:
 6491              	.LBB4551:
 6492              		.loc 1 338 0
 6493 0058 81230000 		lwz 9,0(3)
 6494              	.LBE4551:
 6495              	.LBE4550:
 6496              	.LBE4549:
 6497              	.LBE4548:
 6498              		.loc 1 715 0
 6499 005c 7C7E1B78 		mr 30,3
 6500              	.LVL538:
 6501 0060 93810008 		stw 28,8(1)
 6502              	.LVL539:
 6503              	.LBB4560:
 6504              	.LBB4559:
 6505              	.LBB4553:
 6506              	.LBB4552:
 6507              		.loc 1 338 0
 6508 0064 80090008 		lwz 0,8(9)
 6509 0068 7C0903A6 		mtctr 0
 6510 006c 4E800421 		bctrl
 6511              	.LVL540:
 6512              	.LBE4552:
 6513              	.LBE4553:
 6514              	.LBB4554:
 6515              	.LBB4555:
 6516              		.loc 8 528 0
 6517 0070 387E0004 		addi 3,30,4
 6518 0074 38810008 		addi 4,1,8
 6519 0078 48000001 		bl _ZNSt8_Rb_treeIPN7sigslot12_signal_baseINS0_15single_threadedEEES4_St9_IdentityIS4_ESt4lessIS4_
 6520              	.LVL541:
 6521              	.LBE4555:
 6522              	.LBE4554:
 6523              	.LBB4556:
 6524              	.LBB4557:
 6525              	.LBB4558:
 6526              		.loc 1 343 0
 6527 007c 813E0000 		lwz 9,0(30)
 6528 0080 7FC3F378 		mr 3,30
 6529 0084 8009000C 		lwz 0,12(9)
 6530 0088 7C0903A6 		mtctr 0
 6531 008c 4E800421 		bctrl
 6532              	.LVL542:
 6533              	.LBE4558:
 6534              	.LBE4557:
 6535              	.LBE4556:
 6536              	.LBE4559:
 6537              	.LBE4560:
 6538              		.loc 1 716 0
 6539 0090 807F0008 		lwz 3,8(31)
 6540 0094 2F830000 		cmpwi 7,3,0
 6541 0098 419E0014 		beq- 7,.L460
 6542 009c 81230000 		lwz 9,0(3)
 6543 00a0 80090004 		lwz 0,4(9)
 6544 00a4 7C0903A6 		mtctr 0
 6545 00a8 4E800421 		bctrl
 6546              	.LEHE50:
 6547              	.L460:
 6548              	.LVL543:
 6549              	.LBB4561:
 6550              	.LBB4562:
 6551              		.loc 4 234 0
 6552 00ac 83FF0000 		lwz 31,0(31)
 6553              	.LVL544:
 6554              	.LBE4562:
 6555              	.LBE4561:
 6556              		.loc 1 713 0
 6557 00b0 7F9DF800 		cmpw 7,29,31
 6558 00b4 409EFF90 		bne+ 7,.L495
 6559              	.LBE4578:
 6560              		.loc 3 73 0
 6561 00b8 83FC0004 		lwz 31,4(28)
 6562              	.LVL545:
 6563              	.LBB4579:
 6564              	.LBB4563:
 6565              	.LBB4564:
 6566              		.loc 4 1162 0
 6567 00bc 7F9DF800 		cmpw 7,29,31
 6568 00c0 40BE000C 		bne+ 7,.L497
 6569 00c4 48000024 		b .L458
 6570              	.LVL546:
 6571              	.L490:
 6572              		.loc 4 1163 0
 6573 00c8 7FDFF378 		mr 31,30
 6574              	.LVL547:
 6575              	.L497:
 6576              	.LBB4565:
 6577              	.LBB4566:
 6578              		.loc 9 112 0
 6579 00cc 83DF0000 		lwz 30,0(31)
 6580              	.LVL548:
 6581              	.LBB4567:
 6582              	.LBB4568:
 6583              		.loc 4 1532 0
 6584 00d0 7FE3FB78 		mr 3,31
 6585 00d4 48000001 		bl _ZNSt8__detail15_List_node_base9_M_unhookEv
 6586              	.LVL549:
 6587              	.LBB4569:
 6588              	.LBB4570:
 6589              	.LBB4571:
 6590              		.loc 5 98 0
 6591 00d8 7FE3FB78 		mr 3,31
 6592 00dc 48000001 		bl _ZdlPv
 6593              	.LVL550:
 6594              	.LBE4571:
 6595              	.LBE4570:
 6596              	.LBE4569:
 6597              	.LBE4568:
 6598              	.LBE4567:
 6599              	.LBE4566:
 6600              	.LBE4565:
 6601              		.loc 4 1162 0
 6602 00e0 7F9DF000 		cmpw 7,29,30
 6603 00e4 409EFFE4 		bne+ 7,.L490
 6604              	.LVL551:
 6605              	.L458:
 6606              	.LBE4564:
 6607              	.LBE4563:
 6608              	.LBB4572:
 6609              	.LBB4573:
 6610              	.LBB4574:
 6611              		.loc 1 343 0
 6612 00e8 813C0000 		lwz 9,0(28)
 6613 00ec 7F83E378 		mr 3,28
 6614 00f0 8009000C 		lwz 0,12(9)
 6615 00f4 7C0903A6 		mtctr 0
 6616              	.LEHB51:
 6617 00f8 4E800421 		bctrl
 6618              	.LEHE51:
 6619              	.LVL552:
 6620              	.LBE4574:
 6621              	.LBE4573:
 6622              	.LBE4572:
 6623              	.LBE4579:
 6624              	.LBE4544:
 6625              	.LBB4581:
 6626              	.LBB4582:
 6627              	.LBB4583:
 6628              	.LBB4584:
 6629              	.LBB4585:
 6630              	.LBB4586:
 6631              		.loc 9 70 0
 6632 00fc 807C0004 		lwz 3,4(28)
 6633              	.LVL553:
 6634              		.loc 9 71 0
 6635 0100 7F83E800 		cmpw 7,3,29
 6636 0104 40BE000C 		bne+ 7,.L499
 6637 0108 48000018 		b .L476
 6638              	.LVL554:
 6639              	.L491:
 6640              		.loc 9 74 0
 6641 010c 7FE3FB78 		mr 3,31
 6642              	.LVL555:
 6643              	.L499:
 6644              	.LBB4587:
 6645 0110 83E30000 		lwz 31,0(3)
 6646              	.LVL556:
 6647              	.LBB4588:
 6648              	.LBB4589:
 6649              	.LBB4590:
 6650              		.loc 5 98 0
 6651 0114 48000001 		bl _ZdlPv
 6652              	.LVL557:
 6653              	.LBE4590:
 6654              	.LBE4589:
 6655              	.LBE4588:
 6656              	.LBE4587:
 6657              		.loc 9 71 0
 6658 0118 7F9FE800 		cmpw 7,31,29
 6659 011c 409EFFF0 		bne+ 7,.L491
 6660              	.LVL558:
 6661              	.L476:
 6662              	.LBE4586:
 6663              	.LBE4585:
 6664              	.LBE4584:
 6665              	.LBE4583:
 6666              	.LBE4582:
 6667              	.LBE4581:
 6668              	.LBB4591:
 6669              	.LBB4592:
 6670              	.LBB4593:
 6671              	.LBB4594:
 6672              	.LBB4595:
 6673              	.LBB4596:
 6674              		.loc 1 105 0
 6675 0120 3D200000 		lis 9,_ZTVN7sigslot15single_threadedE+8@ha
 6676              	.LBE4596:
 6677              	.LBE4595:
 6678              	.LBE4594:
 6679              	.LBE4593:
 6680              	.LBE4592:
 6681              	.LBE4591:
 6682              	.LBE4627:
 6683              		.loc 1 705 0
 6684 0124 83A1001C 		lwz 29,28(1)
 6685              	.LVL559:
 6686              	.LBB4628:
 6687              	.LBB4607:
 6688              	.LBB4605:
 6689              	.LBB4603:
 6690              	.LBB4601:
 6691              	.LBB4599:
 6692              	.LBB4597:
 6693              		.loc 1 105 0
 6694 0128 38090008 		la 0,_ZTVN7sigslot15single_threadedE+8@l(9)
 6695              	.LBE4597:
 6696              	.LBE4599:
 6697              	.LBE4601:
 6698              	.LBE4603:
 6699              	.LBE4605:
 6700              	.LBE4607:
 6701              	.LBE4628:
 6702              		.loc 1 705 0
 6703 012c 83C10020 		lwz 30,32(1)
 6704              	.LBB4629:
 6705              	.LBB4608:
 6706              	.LBB4606:
 6707              	.LBB4604:
 6708              	.LBB4602:
 6709              	.LBB4600:
 6710              	.LBB4598:
 6711              		.loc 1 105 0
 6712 0130 901C0000 		stw 0,0(28)
 6713              	.LBE4598:
 6714              	.LBE4600:
 6715              	.LBE4602:
 6716              	.LBE4604:
 6717              	.LBE4606:
 6718              	.LBE4608:
 6719              	.LBE4629:
 6720              		.loc 1 705 0
 6721 0134 8001002C 		lwz 0,44(1)
 6722 0138 83810018 		lwz 28,24(1)
 6723              	.LVL560:
 6724 013c 7C0803A6 		mtlr 0
 6725 0140 83E10024 		lwz 31,36(1)
 6726 0144 38210028 		addi 1,1,40
 6727              		.cfi_remember_state
 6728              	.LCFI86:
 6729              		.cfi_def_cfa_offset 0
 6730              		.cfi_restore 31
 6731              		.cfi_restore 30
 6732              		.cfi_restore 29
 6733              		.cfi_restore 28
 6734 0148 4E800020 		blr
 6735              	.LVL561:
 6736              	.L493:
 6737              	.LCFI87:
 6738              		.cfi_restore_state
 6739 014c 7C7F1B78 		mr 31,3
 6740              	.L468:
 6741              	.LVL562:
 6742              	.LBB4630:
 6743              	.LBB4609:
 6744              	.LBB4610:
 6745              	.LBB4611:
 6746              	.LBB4612:
 6747              	.LBB4613:
 6748              	.LBB4614:
 6749              		.loc 9 70 0
 6750 0150 807C0004 		lwz 3,4(28)
 6751              	.LVL563:
 6752              		.loc 9 71 0
 6753 0154 7F83E800 		cmpw 7,3,29
 6754 0158 419E0038 		beq- 7,.L487
 6755              	.LVL564:
 6756              	.L500:
 6757              	.LBB4615:
 6758              		.loc 9 74 0
 6759 015c 83C30000 		lwz 30,0(3)
 6760              	.LVL565:
 6761              	.LBB4616:
 6762              	.LBB4617:
 6763              	.LBB4618:
 6764              		.loc 5 98 0
 6765 0160 48000001 		bl _ZdlPv
 6766              	.LVL566:
 6767              	.LBE4618:
 6768              	.LBE4617:
 6769              	.LBE4616:
 6770              	.LBE4615:
 6771              		.loc 9 71 0
 6772 0164 7F9EE800 		cmpw 7,30,29
 6773 0168 419E0028 		beq- 7,.L487
 6774              		.loc 9 74 0
 6775 016c 7FC3F378 		mr 3,30
 6776 0170 4BFFFFEC 		b .L500
 6777              	.LVL567:
 6778              	.L494:
 6779              	.LBE4614:
 6780              	.LBE4613:
 6781              	.LBE4612:
 6782              	.LBE4611:
 6783              	.LBE4610:
 6784              	.LBE4609:
 6785              	.LBB4619:
 6786              	.LBB4580:
 6787              	.LBB4575:
 6788              	.LBB4576:
 6789              	.LBB4577:
 6790              		.loc 1 343 0
 6791 0174 813C0000 		lwz 9,0(28)
 6792 0178 7C7F1B78 		mr 31,3
 6793              	.LVL568:
 6794 017c 7F83E378 		mr 3,28
 6795 0180 8009000C 		lwz 0,12(9)
 6796 0184 7C0903A6 		mtctr 0
 6797 0188 4E800421 		bctrl
 6798 018c 4BFFFFC4 		b .L468
 6799              	.LVL569:
 6800              	.L487:
 6801              	.LBE4577:
 6802              	.LBE4576:
 6803              	.LBE4575:
 6804              	.LBE4580:
 6805              	.LBE4619:
 6806              	.LBB4620:
 6807              	.LBB4621:
 6808              	.LBB4622:
 6809              	.LBB4623:
 6810              	.LBB4624:
 6811              	.LBB4625:
 6812              		.loc 1 105 0
 6813 0190 3D200000 		lis 9,_ZTVN7sigslot15single_threadedE+8@ha
 6814 0194 7FE3FB78 		mr 3,31
 6815 0198 38090008 		la 0,_ZTVN7sigslot15single_threadedE+8@l(9)
 6816 019c 901C0000 		stw 0,0(28)
 6817              	.LEHB52:
 6818 01a0 48000001 		bl _Unwind_Resume
 6819              	.LEHE52:
 6820              	.LBE4625:
 6821              	.LBE4624:
 6822              	.LBE4623:
 6823              	.LBE4622:
 6824              	.LBE4621:
 6825              	.LBE4620:
 6826              	.LBE4630:
 6827              		.cfi_endproc
 6828              	.LFE1610:
 6829              		.section	.gcc_except_table
 6830              	.LLSDA1610:
 6831 0121 FF       		.byte	0xff
 6832 0122 FF       		.byte	0xff
 6833 0123 01       		.byte	0x1
 6834 0124 15       		.uleb128 .LLSDACSE1610-.LLSDACSB1610
 6835              	.LLSDACSB1610:
 6836 0125 30       		.uleb128 .LEHB49-.LFB1610
 6837 0126 04       		.uleb128 .LEHE49-.LEHB49
 6838 0127 CC02     		.uleb128 .L493-.LFB1610
 6839 0129 00       		.uleb128 0
 6840 012a 54       		.uleb128 .LEHB50-.LFB1610
 6841 012b 58       		.uleb128 .LEHE50-.LEHB50
 6842 012c F402     		.uleb128 .L494-.LFB1610
 6843 012e 00       		.uleb128 0
 6844 012f F801     		.uleb128 .LEHB51-.LFB1610
 6845 0131 04       		.uleb128 .LEHE51-.LEHB51
 6846 0132 CC02     		.uleb128 .L493-.LFB1610
 6847 0134 00       		.uleb128 0
 6848 0135 A003     		.uleb128 .LEHB52-.LFB1610
 6849 0137 04       		.uleb128 .LEHE52-.LEHB52
 6850 0138 00       		.uleb128 0
 6851 0139 00       		.uleb128 0
 6852              	.LLSDACSE1610:
 6853              		.section	.text._ZN7sigslot13_signal_base1IP4TaskNS_15single_threadedEED2Ev,"axG",@progbits,_ZN7sig
 6854              		.size	_ZN7sigslot13_signal_base1IP4TaskNS_15single_threadedEED2Ev, .-_ZN7sigslot13_signal_base1IP4
 6855              		.section	.text._ZN7sigslot7signal2IP4TaskiNS_15single_threadedEED0Ev,"axG",@progbits,_ZN7sigslot7s
 6856              		.align 2
 6857              		.weak	_ZN7sigslot7signal2IP4TaskiNS_15single_threadedEED0Ev
 6858              		.type	_ZN7sigslot7signal2IP4TaskiNS_15single_threadedEED0Ev, @function
 6859              	_ZN7sigslot7signal2IP4TaskiNS_15single_threadedEED0Ev:
 6860              	.LFB1521:
 6861              		.loc 1 2235 0
 6862              		.cfi_startproc
 6863              		.cfi_personality 0,__gxx_personality_v0
 6864              		.cfi_lsda 0,.LLSDA1521
 6865              	.LVL570:
 6866 0000 7C0802A6 		mflr 0
 6867 0004 9421FFD8 		stwu 1,-40(1)
 6868              	.LCFI88:
 6869              		.cfi_def_cfa_offset 40
 6870              		.cfi_register 65, 0
 6871              	.LBB4729:
 6872              	.LBB4730:
 6873              	.LBB4731:
 6874              	.LBB4732:
 6875              	.LBB4733:
 6876              	.LBB4734:
 6877              		.loc 1 826 0
 6878 0008 3D200000 		lis 9,_ZTVN7sigslot13_signal_base2IP4TaskiNS_15single_threadedEEE+8@ha
 6879              	.LBE4734:
 6880              	.LBE4733:
 6881              	.LBE4732:
 6882              	.LBE4731:
 6883              	.LBE4730:
 6884              	.LBE4729:
 6885              		.loc 1 2235 0
 6886 000c 93810018 		stw 28,24(1)
 6887 0010 7C7C1B78 		mr 28,3
 6888              		.cfi_offset 28, -16
 6889              	.LVL571:
 6890 0014 9001002C 		stw 0,44(1)
 6891              	.LBB4831:
 6892              	.LBB4827:
 6893              	.LBB4823:
 6894              	.LBB4819:
 6895              	.LBB4815:
 6896              	.LBB4811:
 6897              		.loc 1 826 0
 6898 0018 38090008 		la 0,_ZTVN7sigslot13_signal_base2IP4TaskiNS_15single_threadedEEE+8@l(9)
 6899              		.cfi_offset 65, 4
 6900              	.LBE4811:
 6901              	.LBE4815:
 6902              	.LBE4819:
 6903              	.LBE4823:
 6904              	.LBE4827:
 6905              	.LBE4831:
 6906              		.loc 1 2235 0
 6907 001c 93A1001C 		stw 29,28(1)
 6908 0020 3BA30004 		addi 29,3,4
 6909              		.cfi_offset 29, -12
 6910 0024 93C10020 		stw 30,32(1)
 6911 0028 93E10024 		stw 31,36(1)
 6912              	.LBB4832:
 6913              	.LBB4828:
 6914              	.LBB4824:
 6915              	.LBB4820:
 6916              	.LBB4816:
 6917              	.LBB4812:
 6918              		.loc 1 826 0
 6919 002c 90030000 		stw 0,0(3)
 6920              	.LVL572:
 6921              	.LEHB53:
 6922              	.LBB4735:
 6923              	.LBB4736:
 6924              	.LBB4737:
 6925              	.LBB4738:
 6926              		.loc 1 338 0
 6927              		.cfi_offset 31, -4
 6928              		.cfi_offset 30, -8
