   1              		.file	"TaskBar.cpp"
   2              		.section	".text"
   3              	.Ltext0:
   4              		.section	.text._ZN7sigslot15single_threadedD2Ev,"axG",@progbits,_ZN7sigslot15single_threadedD5Ev,c
   5              		.align 2
   6              		.weak	_ZN7sigslot15single_threadedD2Ev
   7              		.type	_ZN7sigslot15single_threadedD2Ev, @function
   8              	_ZN7sigslot15single_threadedD2Ev:
   9              	.LFB1148:
  10              		.file 1 "d:/Projects/SaveGameManager/savegame-manager-gx/trunk/source/Menu/../GUI/../sigslot.h"
  11              		.loc 1 104 0
  12              		.cfi_startproc
  13              	.LVL0:
  14              	.LBB3176:
  15              		.loc 1 105 0
  16 0000 3D200000 		lis 9,_ZTVN7sigslot15single_threadedE+8@ha
  17              	.LBE3176:
  18              		.loc 1 107 0
  19              	.LBB3177:
  20              		.loc 1 105 0
  21 0004 38090008 		la 0,_ZTVN7sigslot15single_threadedE+8@l(9)
  22 0008 90030000 		stw 0,0(3)
  23              	.LBE3177:
  24              		.loc 1 107 0
  25 000c 4E800020 		blr
  26              		.cfi_endproc
  27              	.LFE1148:
  28              		.size	_ZN7sigslot15single_threadedD2Ev, .-_ZN7sigslot15single_threadedD2Ev
  29              		.section	.text._ZN7sigslot15single_threaded4lockEv,"axG",@progbits,_ZN7sigslot15single_threaded4lo
  30              		.align 2
  31              		.weak	_ZN7sigslot15single_threaded4lockEv
  32              		.type	_ZN7sigslot15single_threaded4lockEv, @function
  33              	_ZN7sigslot15single_threaded4lockEv:
  34              	.LFB1151:
  35              		.loc 1 109 0
  36              		.cfi_startproc
  37              	.LVL1:
  38              		.loc 1 112 0
  39 0000 4E800020 		blr
  40              		.cfi_endproc
  41              	.LFE1151:
  42              		.size	_ZN7sigslot15single_threaded4lockEv, .-_ZN7sigslot15single_threaded4lockEv
  43              		.section	.text._ZN7sigslot15single_threaded6unlockEv,"axG",@progbits,_ZN7sigslot15single_threaded6
  44              		.align 2
  45              		.weak	_ZN7sigslot15single_threaded6unlockEv
  46              		.type	_ZN7sigslot15single_threaded6unlockEv, @function
  47              	_ZN7sigslot15single_threaded6unlockEv:
  48              	.LFB1152:
  49              		.loc 1 114 0
  50              		.cfi_startproc
  51              	.LVL2:
  52              		.loc 1 117 0
  53 0000 4E800020 		blr
  54              		.cfi_endproc
  55              	.LFE1152:
  56              		.size	_ZN7sigslot15single_threaded6unlockEv, .-_ZN7sigslot15single_threaded6unlockEv
  57              		.section	.text._ZN10GuiElement9SetParentEPS_,"axG",@progbits,_ZN10GuiElement9SetParentEPS_,comdat
  58              		.align 2
  59              		.weak	_ZN10GuiElement9SetParentEPS_
  60              		.type	_ZN10GuiElement9SetParentEPS_, @function
  61              	_ZN10GuiElement9SetParentEPS_:
  62              	.LFB1384:
  63              		.file 2 "d:/Projects/SaveGameManager/savegame-manager-gx/trunk/source/Menu/../GUI/gui_element.h"
  64              		.loc 2 92 0
  65              		.cfi_startproc
  66              	.LVL3:
  67              		.loc 2 92 0
  68 0000 90830060 		stw 4,96(3)
  69 0004 4E800020 		blr
  70              		.cfi_endproc
  71              	.LFE1384:
  72              		.size	_ZN10GuiElement9SetParentEPS_, .-_ZN10GuiElement9SetParentEPS_
  73              		.section	.text._ZN10GuiElement9GetParentEv,"axG",@progbits,_ZN10GuiElement9GetParentEv,comdat
  74              		.align 2
  75              		.weak	_ZN10GuiElement9GetParentEv
  76              		.type	_ZN10GuiElement9GetParentEv, @function
  77              	_ZN10GuiElement9GetParentEv:
  78              	.LFB1385:
  79              		.loc 2 95 0
  80              		.cfi_startproc
  81              	.LVL4:
  82              		.loc 2 95 0
  83 0000 80630060 		lwz 3,96(3)
  84              	.LVL5:
  85 0004 4E800020 		blr
  86              		.cfi_endproc
  87              	.LFE1385:
  88              		.size	_ZN10GuiElement9GetParentEv, .-_ZN10GuiElement9GetParentEv
  89              		.section	.text._ZN10GuiElement12GetZPositionEv,"axG",@progbits,_ZN10GuiElement12GetZPositionEv,com
  90              		.align 2
  91              		.weak	_ZN10GuiElement12GetZPositionEv
  92              		.type	_ZN10GuiElement12GetZPositionEv, @function
  93              	_ZN10GuiElement12GetZPositionEv:
  94              	.LFB1386:
  95              		.loc 2 106 0
  96              		.cfi_startproc
  97              	.LVL6:
  98 0000 7C0802A6 		mflr 0
  99 0004 9421FFF0 		stwu 1,-16(1)
 100              	.LCFI0:
 101              		.cfi_def_cfa_offset 16
 102              		.cfi_register 65, 0
 103 0008 93E1000C 		stw 31,12(1)
 104 000c 7C7F1B78 		mr 31,3
 105              		.cfi_offset 31, -4
 106 0010 90010014 		stw 0,20(1)
 107              	.LBB3178:
 108              		.loc 2 110 0
 109 0014 81630060 		lwz 11,96(3)
 110              		.loc 2 108 0
 111 0018 38600000 		li 3,0
 112              	.LVL7:
 113              		.loc 2 110 0
 114 001c 2F8B0000 		cmpwi 7,11,0
 115 0020 419E0018 		beq- 7,.L8
 116              		.cfi_offset 65, 4
 117              		.loc 2 111 0
 118 0024 812B0000 		lwz 9,0(11)
 119 0028 7D635B78 		mr 3,11
 120 002c 80090018 		lwz 0,24(9)
 121 0030 7C0903A6 		mtctr 0
 122 0034 4E800421 		bctrl
 123              	.LVL8:
 124              	.L8:
 125              		.loc 2 113 0
 126 0038 801F0034 		lwz 0,52(31)
 127              	.LBE3178:
 128              		.loc 2 114 0
 129 003c 83E1000C 		lwz 31,12(1)
 130              	.LVL9:
 131 0040 7C630214 		add 3,3,0
 132              	.LVL10:
 133 0044 80010014 		lwz 0,20(1)
 134 0048 38210010 		addi 1,1,16
 135              	.LCFI1:
 136              		.cfi_def_cfa_offset 0
 137              		.cfi_restore 31
 138 004c 7C0803A6 		mtlr 0
 139 0050 4E800020 		blr
 140              		.cfi_endproc
 141              	.LFE1386:
 142              		.size	_ZN10GuiElement12GetZPositionEv, .-_ZN10GuiElement12GetZPositionEv
 143              		.section	.text._ZN10GuiElement10GetLeftPosEv,"axG",@progbits,_ZN10GuiElement10GetLeftPosEv,comdat
 144              		.align 2
 145              		.weak	_ZN10GuiElement10GetLeftPosEv
 146              		.type	_ZN10GuiElement10GetLeftPosEv, @function
 147              	_ZN10GuiElement10GetLeftPosEv:
 148              	.LFB1387:
 149              		.loc 2 116 0
 150              		.cfi_startproc
 151              	.LVL11:
 152              		.loc 2 116 0
 153 0000 8063002C 		lwz 3,44(3)
 154              	.LVL12:
 155 0004 4E800020 		blr
 156              		.cfi_endproc
 157              	.LFE1387:
 158              		.size	_ZN10GuiElement10GetLeftPosEv, .-_ZN10GuiElement10GetLeftPosEv
 159              		.section	.text._ZN10GuiElement9GetTopPosEv,"axG",@progbits,_ZN10GuiElement9GetTopPosEv,comdat
 160              		.align 2
 161              		.weak	_ZN10GuiElement9GetTopPosEv
 162              		.type	_ZN10GuiElement9GetTopPosEv, @function
 163              	_ZN10GuiElement9GetTopPosEv:
 164              	.LFB1388:
 165              		.loc 2 118 0
 166              		.cfi_startproc
 167              	.LVL13:
 168              		.loc 2 118 0
 169 0000 80630030 		lwz 3,48(3)
 170              	.LVL14:
 171 0004 4E800020 		blr
 172              		.cfi_endproc
 173              	.LFE1388:
 174              		.size	_ZN10GuiElement9GetTopPosEv, .-_ZN10GuiElement9GetTopPosEv
 175              		.section	.text._ZN10GuiElement8GetWidthEv,"axG",@progbits,_ZN10GuiElement8GetWidthEv,comdat
 176              		.align 2
 177              		.weak	_ZN10GuiElement8GetWidthEv
 178              		.type	_ZN10GuiElement8GetWidthEv, @function
 179              	_ZN10GuiElement8GetWidthEv:
 180              	.LFB1389:
 181              		.loc 2 121 0
 182              		.cfi_startproc
 183              	.LVL15:
 184              		.loc 2 121 0
 185 0000 80630024 		lwz 3,36(3)
 186              	.LVL16:
 187 0004 4E800020 		blr
 188              		.cfi_endproc
 189              	.LFE1389:
 190              		.size	_ZN10GuiElement8GetWidthEv, .-_ZN10GuiElement8GetWidthEv
 191              		.section	.text._ZN10GuiElement9GetHeightEv,"axG",@progbits,_ZN10GuiElement9GetHeightEv,comdat
 192              		.align 2
 193              		.weak	_ZN10GuiElement9GetHeightEv
 194              		.type	_ZN10GuiElement9GetHeightEv, @function
 195              	_ZN10GuiElement9GetHeightEv:
 196              	.LFB1390:
 197              		.loc 2 124 0
 198              		.cfi_startproc
 199              	.LVL17:
 200              		.loc 2 124 0
 201 0000 80630028 		lwz 3,40(3)
 202              	.LVL18:
 203 0004 4E800020 		blr
 204              		.cfi_endproc
 205              	.LFE1390:
 206              		.size	_ZN10GuiElement9GetHeightEv, .-_ZN10GuiElement9GetHeightEv
 207              		.section	.text._ZN10GuiElement7SetSizeEii,"axG",@progbits,_ZN10GuiElement7SetSizeEii,comdat
 208              		.align 2
 209              		.weak	_ZN10GuiElement7SetSizeEii
 210              		.type	_ZN10GuiElement7SetSizeEii, @function
 211              	_ZN10GuiElement7SetSizeEii:
 212              	.LFB1391:
 213              		.loc 2 128 0
 214              		.cfi_startproc
 215              	.LVL19:
 216              		.loc 2 130 0
 217 0000 90830024 		stw 4,36(3)
 218              		.loc 2 132 0
 219              		.loc 2 131 0
 220 0004 90A30028 		stw 5,40(3)
 221              		.loc 2 132 0
 222 0008 4E800020 		blr
 223              		.cfi_endproc
 224              	.LFE1391:
 225              		.size	_ZN10GuiElement7SetSizeEii, .-_ZN10GuiElement7SetSizeEii
 226              		.section	.text._ZN10GuiElement9IsVisibleEv,"axG",@progbits,_ZN10GuiElement9IsVisibleEv,comdat
 227              		.align 2
 228              		.weak	_ZN10GuiElement9IsVisibleEv
 229              		.type	_ZN10GuiElement9IsVisibleEv, @function
 230              	_ZN10GuiElement9IsVisibleEv:
 231              	.LFB1393:
 232              		.loc 2 142 0
 233              		.cfi_startproc
 234              	.LVL20:
 235              		.loc 2 142 0
 236 0000 8863001D 		lbz 3,29(3)
 237              	.LVL21:
 238 0004 4E800020 		blr
 239              		.cfi_endproc
 240              	.LFE1393:
 241              		.size	_ZN10GuiElement9IsVisibleEv, .-_ZN10GuiElement9IsVisibleEv
 242              		.section	.text._ZN10GuiElement12IsSelectableEv,"axG",@progbits,_ZN10GuiElement12IsSelectableEv,com
 243              		.align 2
 244              		.weak	_ZN10GuiElement12IsSelectableEv
 245              		.type	_ZN10GuiElement12IsSelectableEv, @function
 246              	_ZN10GuiElement12IsSelectableEv:
 247              	.LFB1394:
 248              		.loc 2 145 0
 249              		.cfi_startproc
 250              	.LVL22:
 251              		.loc 2 149 0
 252 0000 80030048 		lwz 0,72(3)
 253 0004 39200000 		li 9,0
 254 0008 2F800004 		cmpwi 7,0,4
 255 000c 419E0010 		beq- 7,.L18
 256              		.loc 2 149 0 is_stmt 0 discriminator 1
 257 0010 2F800002 		cmpwi 7,0,2
 258 0014 419E0008 		beq- 7,.L18
 259              		.loc 2 149 0 discriminator 3
 260 0018 8923001E 		lbz 9,30(3)
 261              	.L18:
 262              		.loc 2 150 0 is_stmt 1 discriminator 5
 263 001c 7D234B78 		mr 3,9
 264              	.LVL23:
 265 0020 4E800020 		blr
 266              		.cfi_endproc
 267              	.LFE1394:
 268              		.size	_ZN10GuiElement12IsSelectableEv, .-_ZN10GuiElement12IsSelectableEv
 269              		.section	.text._ZN10GuiElement11IsClickableEv,"axG",@progbits,_ZN10GuiElement11IsClickableEv,comda
 270              		.align 2
 271              		.weak	_ZN10GuiElement11IsClickableEv
 272              		.type	_ZN10GuiElement11IsClickableEv, @function
 273              	_ZN10GuiElement11IsClickableEv:
 274              	.LFB1395:
 275              		.loc 2 153 0
 276              		.cfi_startproc
 277              	.LVL24:
 278              		.loc 2 158 0
 279 0000 80030048 		lwz 0,72(3)
 280 0004 39200000 		li 9,0
 281 0008 2F800004 		cmpwi 7,0,4
 282 000c 419E0018 		beq- 7,.L22
 283              		.loc 2 158 0 is_stmt 0 discriminator 1
 284 0010 2F800002 		cmpwi 7,0,2
 285 0014 419E0010 		beq- 7,.L22
 286              		.loc 2 158 0 discriminator 3
 287 0018 2F800003 		cmpwi 7,0,3
 288 001c 419E0008 		beq- 7,.L22
 289              		.loc 2 158 0 discriminator 4
 290 0020 8923001F 		lbz 9,31(3)
 291              	.L22:
 292              		.loc 2 159 0 is_stmt 1 discriminator 6
 293 0024 7D234B78 		mr 3,9
 294              	.LVL25:
 295 0028 4E800020 		blr
 296              		.cfi_endproc
 297              	.LFE1395:
 298              		.size	_ZN10GuiElement11IsClickableEv, .-_ZN10GuiElement11IsClickableEv
 299              		.section	.text._ZN10GuiElement10IsHoldableEv,"axG",@progbits,_ZN10GuiElement10IsHoldableEv,comdat
 300              		.align 2
 301              		.weak	_ZN10GuiElement10IsHoldableEv
 302              		.type	_ZN10GuiElement10IsHoldableEv, @function
 303              	_ZN10GuiElement10IsHoldableEv:
 304              	.LFB1396:
 305              		.loc 2 162 0
 306              		.cfi_startproc
 307              	.LVL26:
 308              		.loc 2 162 0
 309 0000 81230048 		lwz 9,72(3)
 310 0004 38000000 		li 0,0
 311 0008 2F890004 		cmpwi 7,9,4
 312 000c 419E0008 		beq- 7,.L27
 313              		.loc 2 162 0 is_stmt 0 discriminator 1
 314 0010 88030020 		lbz 0,32(3)
 315              	.L27:
 316              		.loc 2 162 0 discriminator 4
 317 0014 7C030378 		mr 3,0
 318              	.LVL27:
 319 0018 4E800020 		blr
 320              		.cfi_endproc
 321              	.LFE1396:
 322              		.size	_ZN10GuiElement10IsHoldableEv, .-_ZN10GuiElement10IsHoldableEv
 323              		.section	.text._ZN10GuiElement13SetSelectableEb,"axG",@progbits,_ZN10GuiElement13SetSelectableEb,c
 324              		.align 2
 325              		.weak	_ZN10GuiElement13SetSelectableEb
 326              		.type	_ZN10GuiElement13SetSelectableEb, @function
 327              	_ZN10GuiElement13SetSelectableEb:
 328              	.LFB1397:
 329              		.loc 2 165 0 is_stmt 1
 330              		.cfi_startproc
 331              	.LVL28:
 332              		.loc 2 165 0
 333 0000 9883001E 		stb 4,30(3)
 334 0004 4E800020 		blr
 335              		.cfi_endproc
 336              	.LFE1397:
 337              		.size	_ZN10GuiElement13SetSelectableEb, .-_ZN10GuiElement13SetSelectableEb
 338              		.section	.text._ZN10GuiElement12SetClickableEb,"axG",@progbits,_ZN10GuiElement12SetClickableEb,com
 339              		.align 2
 340              		.weak	_ZN10GuiElement12SetClickableEb
 341              		.type	_ZN10GuiElement12SetClickableEb, @function
 342              	_ZN10GuiElement12SetClickableEb:
 343              	.LFB1398:
 344              		.loc 2 168 0
 345              		.cfi_startproc
 346              	.LVL29:
 347              		.loc 2 168 0
 348 0000 9883001F 		stb 4,31(3)
 349 0004 4E800020 		blr
 350              		.cfi_endproc
 351              	.LFE1398:
 352              		.size	_ZN10GuiElement12SetClickableEb, .-_ZN10GuiElement12SetClickableEb
 353              		.section	.text._ZN10GuiElement11SetHoldableEb,"axG",@progbits,_ZN10GuiElement11SetHoldableEb,comda
 354              		.align 2
 355              		.weak	_ZN10GuiElement11SetHoldableEb
 356              		.type	_ZN10GuiElement11SetHoldableEb, @function
 357              	_ZN10GuiElement11SetHoldableEb:
 358              	.LFB1399:
 359              		.loc 2 171 0
 360              		.cfi_startproc
 361              	.LVL30:
 362              		.loc 2 171 0
 363 0000 98830020 		stb 4,32(3)
 364 0004 4E800020 		blr
 365              		.cfi_endproc
 366              	.LFE1399:
 367              		.size	_ZN10GuiElement11SetHoldableEb, .-_ZN10GuiElement11SetHoldableEb
 368              		.section	.text._ZN10GuiElement8GetStateEv,"axG",@progbits,_ZN10GuiElement8GetStateEv,comdat
 369              		.align 2
 370              		.weak	_ZN10GuiElement8GetStateEv
 371              		.type	_ZN10GuiElement8GetStateEv, @function
 372              	_ZN10GuiElement8GetStateEv:
 373              	.LFB1400:
 374              		.loc 2 178 0
 375              		.cfi_startproc
 376              	.LVL31:
 377              		.loc 2 178 0
 378 0000 80630048 		lwz 3,72(3)
 379              	.LVL32:
 380 0004 4E800020 		blr
 381              		.cfi_endproc
 382              	.LFE1400:
 383              		.size	_ZN10GuiElement8GetStateEv, .-_ZN10GuiElement8GetStateEv
 384              		.section	.text._ZN10GuiElement12GetStateChanEv,"axG",@progbits,_ZN10GuiElement12GetStateChanEv,com
 385              		.align 2
 386              		.weak	_ZN10GuiElement12GetStateChanEv
 387              		.type	_ZN10GuiElement12GetStateChanEv, @function
 388              	_ZN10GuiElement12GetStateChanEv:
 389              	.LFB1401:
 390              		.loc 2 181 0
 391              		.cfi_startproc
 392              	.LVL33:
 393              		.loc 2 181 0
 394 0000 8063004C 		lwz 3,76(3)
 395              	.LVL34:
 396 0004 4E800020 		blr
 397              		.cfi_endproc
 398              	.LFE1401:
 399              		.size	_ZN10GuiElement12GetStateChanEv, .-_ZN10GuiElement12GetStateChanEv
 400              		.section	.text._ZN10GuiElement8SetAlphaEi,"axG",@progbits,_ZN10GuiElement8SetAlphaEi,comdat
 401              		.align 2
 402              		.weak	_ZN10GuiElement8SetAlphaEi
 403              		.type	_ZN10GuiElement8SetAlphaEi, @function
 404              	_ZN10GuiElement8SetAlphaEi:
 405              	.LFB1403:
 406              		.loc 2 190 0
 407              		.cfi_startproc
 408              	.LVL35:
 409              		.loc 2 190 0
 410 0000 90830038 		stw 4,56(3)
 411 0004 4E800020 		blr
 412              		.cfi_endproc
 413              	.LFE1403:
 414              		.size	_ZN10GuiElement8SetAlphaEi, .-_ZN10GuiElement8SetAlphaEi
 415              		.section	.text._ZN10GuiElement8GetAlphaEv,"axG",@progbits,_ZN10GuiElement8GetAlphaEv,comdat
 416              		.align 2
 417              		.weak	_ZN10GuiElement8GetAlphaEv
 418              		.type	_ZN10GuiElement8GetAlphaEv, @function
 419              	_ZN10GuiElement8GetAlphaEv:
 420              	.LFB1404:
 421              		.loc 2 194 0
 422              		.cfi_startproc
 423              	.LVL36:
 424 0000 7C0802A6 		mflr 0
 425 0004 9421FFD8 		stwu 1,-40(1)
 426              	.LCFI2:
 427              		.cfi_def_cfa_offset 40
 428              		.cfi_register 65, 0
 429 0008 93E10024 		stw 31,36(1)
 430 000c 9001002C 		stw 0,44(1)
 431              	.LBB3179:
 432              		.loc 2 198 0
 433 0010 83E3006C 		lwz 31,108(3)
 434              		.cfi_offset 65, 4
 435              		.cfi_offset 31, -4
 436 0014 2F9F0000 		cmpwi 7,31,0
 437 0018 419C0094 		blt- 7,.L38
 438              	.L36:
 439              	.LVL37:
 440              		.loc 2 203 0
 441 001c 80630060 		lwz 3,96(3)
 442              	.LVL38:
 443 0020 2F830000 		cmpwi 7,3,0
 444 0024 419E0070 		beq- 7,.L37
 445              		.loc 2 204 0
 446 0028 81230000 		lwz 9,0(3)
 447 002c 6FFF8000 		xoris 31,31,0x8000
 448              	.LVL39:
 449 0030 80090064 		lwz 0,100(9)
 450 0034 7C0903A6 		mtctr 0
 451 0038 4E800421 		bctrl
 452 003c 3C004330 		lis 0,0x4330
 453 0040 6C638000 		xoris 3,3,0x8000
 454 0044 90010010 		stw 0,16(1)
 455 0048 90610014 		stw 3,20(1)
 456 004c 3D200000 		lis 9,.LC1@ha
 457 0050 C0090000 		lfs 0,.LC1@l(9)
 458 0054 3D200000 		lis 9,.LC2@ha
 459 0058 C9A10010 		lfd 13,16(1)
 460 005c C1890004 		lfs 12,.LC2@l(9)
 461 0060 39210018 		addi 9,1,24
 462 0064 FDAD0028 		fsub 13,13,0
 463 0068 93E1000C 		stw 31,12(1)
 464 006c 90010008 		stw 0,8(1)
 465 0070 FDA06818 		frsp 13,13
 466 0074 EDAD6024 		fdivs 13,13,12
 467 0078 C9810008 		lfd 12,8(1)
 468 007c FC0C0028 		fsub 0,12,0
 469 0080 FC000018 		frsp 0,0
 470 0084 EC000372 		fmuls 0,0,13
 471 0088 FC00001E 		fctiwz 0,0
 472 008c 7C004FAE 		stfiwx 0,0,9
 473 0090 83E10018 		lwz 31,24(1)
 474              	.LVL40:
 475              	.L37:
 476              	.LBE3179:
 477              		.loc 2 207 0
 478 0094 8001002C 		lwz 0,44(1)
 479 0098 7FE3FB78 		mr 3,31
 480 009c 83E10024 		lwz 31,36(1)
 481              	.LVL41:
 482 00a0 7C0803A6 		mtlr 0
 483 00a4 38210028 		addi 1,1,40
 484              		.cfi_remember_state
 485              	.LCFI3:
 486              		.cfi_def_cfa_offset 0
 487              		.cfi_restore 31
 488 00a8 4E800020 		blr
 489              	.LVL42:
 490              	.L38:
 491              	.LCFI4:
 492              		.cfi_restore_state
 493              	.LBB3180:
 494              		.loc 2 201 0
 495 00ac 83E30038 		lwz 31,56(3)
 496              	.LVL43:
 497 00b0 4BFFFF6C 		b .L36
 498              	.LBE3180:
 499              		.cfi_endproc
 500              	.LFE1404:
 501              		.size	_ZN10GuiElement8GetAlphaEv, .-_ZN10GuiElement8GetAlphaEv
 502              		.section	.text._ZN10GuiElement8SetScaleEf,"axG",@progbits,_ZN10GuiElement8SetScaleEf,comdat
 503              		.align 2
 504              		.weak	_ZN10GuiElement8SetScaleEf
 505              		.type	_ZN10GuiElement8SetScaleEf, @function
 506              	_ZN10GuiElement8SetScaleEf:
 507              	.LFB1405:
 508              		.loc 2 210 0
 509              		.cfi_startproc
 510              	.LVL44:
 511              		.loc 2 212 0
 512 0000 D023003C 		stfs 1,60(3)
 513              		.loc 2 214 0
 514              		.loc 2 213 0
 515 0004 D0230040 		stfs 1,64(3)
 516              		.loc 2 214 0
 517 0008 4E800020 		blr
 518              		.cfi_endproc
 519              	.LFE1405:
 520              		.size	_ZN10GuiElement8SetScaleEf, .-_ZN10GuiElement8SetScaleEf
 521              		.section	.text._ZN10GuiElement9SetScaleXEf,"axG",@progbits,_ZN10GuiElement9SetScaleXEf,comdat
 522              		.align 2
 523              		.weak	_ZN10GuiElement9SetScaleXEf
 524              		.type	_ZN10GuiElement9SetScaleXEf, @function
 525              	_ZN10GuiElement9SetScaleXEf:
 526              	.LFB1406:
 527              		.loc 2 217 0
 528              		.cfi_startproc
 529              	.LVL45:
 530              		.loc 2 217 0
 531 0000 D023003C 		stfs 1,60(3)
 532 0004 4E800020 		blr
 533              		.cfi_endproc
 534              	.LFE1406:
 535              		.size	_ZN10GuiElement9SetScaleXEf, .-_ZN10GuiElement9SetScaleXEf
 536              		.section	.text._ZN10GuiElement9SetScaleYEf,"axG",@progbits,_ZN10GuiElement9SetScaleYEf,comdat
 537              		.align 2
 538              		.weak	_ZN10GuiElement9SetScaleYEf
 539              		.type	_ZN10GuiElement9SetScaleYEf, @function
 540              	_ZN10GuiElement9SetScaleYEf:
 541              	.LFB1407:
 542              		.loc 2 220 0
 543              		.cfi_startproc
 544              	.LVL46:
 545              		.loc 2 220 0
 546 0000 D0230040 		stfs 1,64(3)
 547 0004 4E800020 		blr
 548              		.cfi_endproc
 549              	.LFE1407:
 550              		.size	_ZN10GuiElement9SetScaleYEf, .-_ZN10GuiElement9SetScaleYEf
 551              		.section	.text._ZN10GuiElement8GetScaleEv,"axG",@progbits,_ZN10GuiElement8GetScaleEv,comdat
 552              		.align 2
 553              		.weak	_ZN10GuiElement8GetScaleEv
 554              		.type	_ZN10GuiElement8GetScaleEv, @function
 555              	_ZN10GuiElement8GetScaleEv:
 556              	.LFB1408:
 557              		.loc 2 223 0
 558              		.cfi_startproc
 559              	.LVL47:
 560 0000 7C0802A6 		mflr 0
 561 0004 9421FFF0 		stwu 1,-16(1)
 562              	.LCFI5:
 563              		.cfi_def_cfa_offset 16
 564              		.cfi_register 65, 0
 565              	.LBB3181:
 566              		.loc 2 225 0
 567 0008 3D200000 		lis 9,.LC3@ha
 568              	.LBE3181:
 569              		.loc 2 223 0
 570 000c DBE10008 		stfd 31,8(1)
 571 0010 90010014 		stw 0,20(1)
 572              	.LBB3182:
 573              		.loc 2 225 0
 574 0014 C0030040 		lfs 0,64(3)
 575 0018 C3E3003C 		lfs 31,60(3)
 576              		.cfi_offset 65, 4
 577              		.cfi_offset 63, -8
 578              		.loc 2 227 0
 579 001c 81630060 		lwz 11,96(3)
 580              		.loc 2 225 0
 581 0020 EFFF002A 		fadds 31,31,0
 582 0024 C0090008 		lfs 0,.LC3@l(9)
 583              		.loc 2 227 0
 584 0028 2F8B0000 		cmpwi 7,11,0
 585              		.loc 2 225 0
 586 002c EFFF0032 		fmuls 31,31,0
 587 0030 C0030070 		lfs 0,112(3)
 588 0034 EFFF0032 		fmuls 31,31,0
 589              	.LVL48:
 590              		.loc 2 227 0
 591 0038 419E001C 		beq- 7,.L43
 592              		.loc 2 228 0
 593 003c 812B0000 		lwz 9,0(11)
 594 0040 7D635B78 		mr 3,11
 595              	.LVL49:
 596 0044 80090074 		lwz 0,116(9)
 597 0048 7C0903A6 		mtctr 0
 598 004c 4E800421 		bctrl
 599 0050 EFFF0072 		fmuls 31,31,1
 600              	.LVL50:
 601              	.L43:
 602              	.LBE3182:
 603              		.loc 2 231 0
 604 0054 80010014 		lwz 0,20(1)
 605 0058 FC20F890 		fmr 1,31
 606 005c CBE10008 		lfd 31,8(1)
 607              	.LVL51:
 608 0060 7C0803A6 		mtlr 0
 609 0064 38210010 		addi 1,1,16
 610              	.LCFI6:
 611              		.cfi_def_cfa_offset 0
 612              		.cfi_restore 63
 613 0068 4E800020 		blr
 614              		.cfi_endproc
 615              	.LFE1408:
 616              		.size	_ZN10GuiElement8GetScaleEv, .-_ZN10GuiElement8GetScaleEv
 617              		.section	.text._ZN10GuiElement9GetScaleXEv,"axG",@progbits,_ZN10GuiElement9GetScaleXEv,comdat
 618              		.align 2
 619              		.weak	_ZN10GuiElement9GetScaleXEv
 620              		.type	_ZN10GuiElement9GetScaleXEv, @function
 621              	_ZN10GuiElement9GetScaleXEv:
 622              	.LFB1409:
 623              		.loc 2 234 0
 624              		.cfi_startproc
 625              	.LVL52:
 626 0000 7C0802A6 		mflr 0
 627 0004 9421FFF0 		stwu 1,-16(1)
 628              	.LCFI7:
 629              		.cfi_def_cfa_offset 16
 630              		.cfi_register 65, 0
 631 0008 DBE10008 		stfd 31,8(1)
 632 000c 90010014 		stw 0,20(1)
 633              	.LBB3183:
 634              		.loc 2 238 0
 635 0010 81630060 		lwz 11,96(3)
 636              		.loc 2 236 0
 637 0014 C3E3003C 		lfs 31,60(3)
 638              		.cfi_offset 65, 4
 639              		.cfi_offset 63, -8
 640              		.loc 2 238 0
 641 0018 2F8B0000 		cmpwi 7,11,0
 642              		.loc 2 236 0
 643 001c C0030070 		lfs 0,112(3)
 644 0020 EFFF0032 		fmuls 31,31,0
 645              	.LVL53:
 646              		.loc 2 238 0
 647 0024 419E001C 		beq- 7,.L45
 648              		.loc 2 239 0
 649 0028 812B0000 		lwz 9,0(11)
 650 002c 7D635B78 		mr 3,11
 651              	.LVL54:
 652 0030 80090078 		lwz 0,120(9)
 653 0034 7C0903A6 		mtctr 0
 654 0038 4E800421 		bctrl
 655 003c EFFF0072 		fmuls 31,31,1
 656              	.LVL55:
 657              	.L45:
 658              	.LBE3183:
 659              		.loc 2 242 0
 660 0040 80010014 		lwz 0,20(1)
 661 0044 FC20F890 		fmr 1,31
 662 0048 CBE10008 		lfd 31,8(1)
 663              	.LVL56:
 664 004c 7C0803A6 		mtlr 0
 665 0050 38210010 		addi 1,1,16
 666              	.LCFI8:
 667              		.cfi_def_cfa_offset 0
 668              		.cfi_restore 63
 669 0054 4E800020 		blr
 670              		.cfi_endproc
 671              	.LFE1409:
 672              		.size	_ZN10GuiElement9GetScaleXEv, .-_ZN10GuiElement9GetScaleXEv
 673              		.section	.text._ZN10GuiElement9GetScaleYEv,"axG",@progbits,_ZN10GuiElement9GetScaleYEv,comdat
 674              		.align 2
 675              		.weak	_ZN10GuiElement9GetScaleYEv
 676              		.type	_ZN10GuiElement9GetScaleYEv, @function
 677              	_ZN10GuiElement9GetScaleYEv:
 678              	.LFB1410:
 679              		.loc 2 245 0
 680              		.cfi_startproc
 681              	.LVL57:
 682 0000 7C0802A6 		mflr 0
 683 0004 9421FFF0 		stwu 1,-16(1)
 684              	.LCFI9:
 685              		.cfi_def_cfa_offset 16
 686              		.cfi_register 65, 0
 687 0008 DBE10008 		stfd 31,8(1)
 688 000c 90010014 		stw 0,20(1)
 689              	.LBB3184:
 690              		.loc 2 249 0
 691 0010 81630060 		lwz 11,96(3)
 692              		.loc 2 247 0
 693 0014 C3E30040 		lfs 31,64(3)
 694              		.cfi_offset 65, 4
 695              		.cfi_offset 63, -8
 696              		.loc 2 249 0
 697 0018 2F8B0000 		cmpwi 7,11,0
 698              		.loc 2 247 0
 699 001c C0030070 		lfs 0,112(3)
 700 0020 EFFF0032 		fmuls 31,31,0
 701              	.LVL58:
 702              		.loc 2 249 0
 703 0024 419E001C 		beq- 7,.L47
 704              		.loc 2 250 0
 705 0028 812B0000 		lwz 9,0(11)
 706 002c 7D635B78 		mr 3,11
 707              	.LVL59:
 708 0030 8009007C 		lwz 0,124(9)
 709 0034 7C0903A6 		mtctr 0
 710 0038 4E800421 		bctrl
 711 003c EFFF0072 		fmuls 31,31,1
 712              	.LVL60:
 713              	.L47:
 714              	.LBE3184:
 715              		.loc 2 253 0
 716 0040 80010014 		lwz 0,20(1)
 717 0044 FC20F890 		fmr 1,31
 718 0048 CBE10008 		lfd 31,8(1)
 719              	.LVL61:
 720 004c 7C0803A6 		mtlr 0
 721 0050 38210010 		addi 1,1,16
 722              	.LCFI10:
 723              		.cfi_def_cfa_offset 0
 724              		.cfi_restore 63
 725 0054 4E800020 		blr
 726              		.cfi_endproc
 727              	.LFE1410:
 728              		.size	_ZN10GuiElement9GetScaleYEv, .-_ZN10GuiElement9GetScaleYEv
 729              		.section	.text._ZN10GuiElement6RumbleEv,"axG",@progbits,_ZN10GuiElement6RumbleEv,comdat
 730              		.align 2
 731              		.weak	_ZN10GuiElement6RumbleEv
 732              		.type	_ZN10GuiElement6RumbleEv, @function
 733              	_ZN10GuiElement6RumbleEv:
 734              	.LFB1411:
 735              		.loc 2 256 0
 736              		.cfi_startproc
 737              	.LVL62:
 738              		.loc 2 256 0
 739 0000 8863001C 		lbz 3,28(3)
 740              	.LVL63:
 741 0004 4E800020 		blr
 742              		.cfi_endproc
 743              	.LFE1411:
 744              		.size	_ZN10GuiElement6RumbleEv, .-_ZN10GuiElement6RumbleEv
 745              		.section	.text._ZN10GuiElement9SetRumbleEb,"axG",@progbits,_ZN10GuiElement9SetRumbleEb,comdat
 746              		.align 2
 747              		.weak	_ZN10GuiElement9SetRumbleEb
 748              		.type	_ZN10GuiElement9SetRumbleEb, @function
 749              	_ZN10GuiElement9SetRumbleEb:
 750              	.LFB1412:
 751              		.loc 2 259 0
 752              		.cfi_startproc
 753              	.LVL64:
 754              		.loc 2 259 0
 755 0000 9883001C 		stb 4,28(3)
 756 0004 4E800020 		blr
 757              		.cfi_endproc
 758              	.LFE1412:
 759              		.size	_ZN10GuiElement9SetRumbleEb, .-_ZN10GuiElement9SetRumbleEb
 760              		.section	.text._ZN10GuiElement13SetEffectGrowEv,"axG",@progbits,_ZN10GuiElement13SetEffectGrowEv,c
 761              		.align 2
 762              		.weak	_ZN10GuiElement13SetEffectGrowEv
 763              		.type	_ZN10GuiElement13SetEffectGrowEv, @function
 764              	_ZN10GuiElement13SetEffectGrowEv:
 765              	.LFB1413:
 766              		.loc 2 271 0
 767              		.cfi_startproc
 768              	.LVL65:
 769 0000 7C0802A6 		mflr 0
 770 0004 9421FFF8 		stwu 1,-8(1)
 771              	.LCFI11:
 772              		.cfi_def_cfa_offset 8
 773              		.cfi_register 65, 0
 774 0008 81230000 		lwz 9,0(3)
 775 000c 38800100 		li 4,256
 776 0010 38A00004 		li 5,4
 777 0014 38C0006E 		li 6,110
 778 0018 9001000C 		stw 0,12(1)
 779              		.loc 2 271 0
 780 001c 8009008C 		lwz 0,140(9)
 781              		.cfi_offset 65, 4
 782 0020 7C0903A6 		mtctr 0
 783 0024 4E800421 		bctrl
 784              	.LVL66:
 785 0028 8001000C 		lwz 0,12(1)
 786 002c 38210008 		addi 1,1,8
 787              	.LCFI12:
 788              		.cfi_def_cfa_offset 0
 789 0030 7C0803A6 		mtlr 0
 790 0034 4E800020 		blr
 791              		.cfi_endproc
 792              	.LFE1413:
 793              		.size	_ZN10GuiElement13SetEffectGrowEv, .-_ZN10GuiElement13SetEffectGrowEv
 794              		.section	.text._ZNK10GuiElement9GetEffectEv,"axG",@progbits,_ZNK10GuiElement9GetEffectEv,comdat
 795              		.align 2
 796              		.weak	_ZNK10GuiElement9GetEffectEv
 797              		.type	_ZNK10GuiElement9GetEffectEv, @function
 798              	_ZNK10GuiElement9GetEffectEv:
 799              	.LFB1414:
 800              		.loc 2 276 0
 801              		.cfi_startproc
 802              	.LVL67:
 803              		.loc 2 276 0
 804 0000 80630078 		lwz 3,120(3)
 805              	.LVL68:
 806 0004 4E800020 		blr
 807              		.cfi_endproc
 808              	.LFE1414:
 809              		.size	_ZNK10GuiElement9GetEffectEv, .-_ZNK10GuiElement9GetEffectEv
 810              		.section	.text._ZNK10GuiElement10IsAnimatedEv,"axG",@progbits,_ZNK10GuiElement10IsAnimatedEv,comda
 811              		.align 2
 812              		.weak	_ZNK10GuiElement10IsAnimatedEv
 813              		.type	_ZNK10GuiElement10IsAnimatedEv, @function
 814              	_ZNK10GuiElement10IsAnimatedEv:
 815              	.LFB1415:
 816              		.loc 2 278 0
 817              		.cfi_startproc
 818              	.LVL69:
 819 0000 7C0802A6 		mflr 0
 820 0004 9421FFF8 		stwu 1,-8(1)
 821              	.LCFI13:
 822              		.cfi_def_cfa_offset 8
 823              		.cfi_register 65, 0
 824 0008 9001000C 		stw 0,12(1)
 825              		.loc 2 278 0
 826 000c 81230000 		lwz 9,0(3)
 827 0010 80090098 		lwz 0,152(9)
 828              		.cfi_offset 65, 4
 829 0014 7C0903A6 		mtctr 0
 830 0018 4E800421 		bctrl
 831              	.LVL70:
 832 001c 7C60FE70 		srawi 0,3,31
 833 0020 7C630050 		subf 3,3,0
 834 0024 8001000C 		lwz 0,12(1)
 835 0028 54630FFE 		srwi 3,3,31
 836 002c 7C0803A6 		mtlr 0
 837 0030 38210008 		addi 1,1,8
 838              	.LCFI14:
 839              		.cfi_def_cfa_offset 0
 840 0034 4E800020 		blr
 841              		.cfi_endproc
 842              	.LFE1415:
 843              		.size	_ZNK10GuiElement10IsAnimatedEv, .-_ZNK10GuiElement10IsAnimatedEv
 844              		.section	.text._ZN10GuiElement8IsInsideEii,"axG",@progbits,_ZN10GuiElement8IsInsideEii,comdat
 845              		.align 2
 846              		.weak	_ZN10GuiElement8IsInsideEii
 847              		.type	_ZN10GuiElement8IsInsideEii, @function
 848              	_ZN10GuiElement8IsInsideEii:
 849              	.LFB1417:
 850              		.loc 2 285 0
 851              		.cfi_startproc
 852              	.LVL71:
 853 0000 7C0802A6 		mflr 0
 854 0004 9421FFE8 		stwu 1,-24(1)
 855              	.LCFI15:
 856              		.cfi_def_cfa_offset 24
 857              		.cfi_register 65, 0
 858 0008 93810008 		stw 28,8(1)
 859 000c 7CBC2B78 		mr 28,5
 860              		.cfi_offset 28, -16
 861 0010 9001001C 		stw 0,28(1)
 862 0014 93A1000C 		stw 29,12(1)
 863              		.loc 2 290 0
 864 0018 3BA00000 		li 29,0
 865              		.cfi_offset 29, -12
 866              		.cfi_offset 65, 4
 867              		.loc 2 287 0
 868 001c 81230000 		lwz 9,0(3)
 869              		.loc 2 285 0
 870 0020 93C10010 		stw 30,16(1)
 871 0024 7C9E2378 		mr 30,4
 872              		.cfi_offset 30, -8
 873              		.loc 2 287 0
 874 0028 80090010 		lwz 0,16(9)
 875              		.loc 2 285 0
 876 002c 93E10014 		stw 31,20(1)
 877              		.loc 2 285 0
 878 0030 7C7F1B78 		mr 31,3
 879              		.cfi_offset 31, -4
 880              		.loc 2 287 0
 881 0034 7C0903A6 		mtctr 0
 882 0038 4E800421 		bctrl
 883              	.LVL72:
 884              		.loc 2 290 0
 885 003c 7F83F000 		cmpw 7,3,30
 886 0040 419C0028 		blt- 7,.L58
 887              	.L54:
 888              		.loc 2 291 0 discriminator 6
 889 0044 8001001C 		lwz 0,28(1)
 890 0048 7FA3EB78 		mr 3,29
 891 004c 83810008 		lwz 28,8(1)
 892              	.LVL73:
 893 0050 7C0803A6 		mtlr 0
 894 0054 83A1000C 		lwz 29,12(1)
 895 0058 83C10010 		lwz 30,16(1)
 896              	.LVL74:
 897 005c 83E10014 		lwz 31,20(1)
 898              	.LVL75:
 899 0060 38210018 		addi 1,1,24
 900              		.cfi_remember_state
 901              	.LCFI16:
 902              		.cfi_def_cfa_offset 0
 903              		.cfi_restore 31
 904              		.cfi_restore 30
 905              		.cfi_restore 29
 906              		.cfi_restore 28
 907 0064 4E800020 		blr
 908              	.LVL76:
 909              	.L58:
 910              	.LCFI17:
 911              		.cfi_restore_state
 912              		.loc 2 288 0 discriminator 1
 913 0068 813F0000 		lwz 9,0(31)
 914 006c 7FE3FB78 		mr 3,31
 915 0070 80090010 		lwz 0,16(9)
 916 0074 7C0903A6 		mtctr 0
 917 0078 4E800421 		bctrl
 918              		.loc 2 290 0 discriminator 1
 919 007c 801F0024 		lwz 0,36(31)
 920 0080 7C030214 		add 0,3,0
 921 0084 7F9E0000 		cmpw 7,30,0
 922 0088 409CFFBC 		bge+ 7,.L54
 923              		.loc 2 289 0 discriminator 3
 924 008c 813F0000 		lwz 9,0(31)
 925 0090 7FE3FB78 		mr 3,31
 926 0094 80090014 		lwz 0,20(9)
 927 0098 7C0903A6 		mtctr 0
 928 009c 4E800421 		bctrl
 929              		.loc 2 290 0 discriminator 3
 930 00a0 7F83E000 		cmpw 7,3,28
 931 00a4 409CFFA0 		bge+ 7,.L54
 932              		.loc 2 290 0 is_stmt 0 discriminator 4
 933 00a8 813F0000 		lwz 9,0(31)
 934 00ac 7FE3FB78 		mr 3,31
 935 00b0 80090014 		lwz 0,20(9)
 936 00b4 7C0903A6 		mtctr 0
 937 00b8 4E800421 		bctrl
 938 00bc 801F0028 		lwz 0,40(31)
 939 00c0 7C030214 		add 0,3,0
 940              		.loc 2 285 0 is_stmt 1 discriminator 4
 941 00c4 7F9C0000 		cmpw 7,28,0
 942 00c8 7FA00026 		mfcr 29
 943 00cc 57BDEFFE 		rlwinm 29,29,29,1
 944 00d0 4BFFFF74 		b .L54
 945              		.cfi_endproc
 946              	.LFE1417:
 947              		.size	_ZN10GuiElement8IsInsideEii, .-_ZN10GuiElement8IsInsideEii
 948              		.section	.text._ZN10GuiElement11SetPositionEii,"axG",@progbits,_ZN10GuiElement11SetPositionEii,com
 949              		.align 2
 950              		.weak	_ZN10GuiElement11SetPositionEii
 951              		.type	_ZN10GuiElement11SetPositionEii, @function
 952              	_ZN10GuiElement11SetPositionEii:
 953              	.LFB1418:
 954              		.loc 2 295 0
 955              		.cfi_startproc
 956              	.LVL77:
 957              		.loc 2 297 0
 958 0000 9083002C 		stw 4,44(3)
 959              		.loc 2 299 0
 960              		.loc 2 298 0
 961 0004 90A30030 		stw 5,48(3)
 962              		.loc 2 299 0
 963 0008 4E800020 		blr
 964              		.cfi_endproc
 965              	.LFE1418:
 966              		.size	_ZN10GuiElement11SetPositionEii, .-_ZN10GuiElement11SetPositionEii
 967              		.section	.text._ZN10GuiElement11SetPositionEiii,"axG",@progbits,_ZN10GuiElement11SetPositionEiii,c
 968              		.align 2
 969              		.weak	_ZN10GuiElement11SetPositionEiii
 970              		.type	_ZN10GuiElement11SetPositionEiii, @function
 971              	_ZN10GuiElement11SetPositionEiii:
 972              	.LFB1419:
 973              		.loc 2 304 0
 974              		.cfi_startproc
 975              	.LVL78:
 976              		.loc 2 306 0
 977 0000 9083002C 		stw 4,44(3)
 978              		.loc 2 309 0
 979              		.loc 2 307 0
 980 0004 90A30030 		stw 5,48(3)
 981              		.loc 2 308 0
 982 0008 90C30034 		stw 6,52(3)
 983              		.loc 2 309 0
 984 000c 4E800020 		blr
 985              		.cfi_endproc
 986              	.LFE1419:
 987              		.size	_ZN10GuiElement11SetPositionEiii, .-_ZN10GuiElement11SetPositionEiii
 988              		.section	.text._ZN10GuiElement12SetAlignmentEi,"axG",@progbits,_ZN10GuiElement12SetAlignmentEi,com
 989              		.align 2
 990              		.weak	_ZN10GuiElement12SetAlignmentEi
 991              		.type	_ZN10GuiElement12SetAlignmentEi, @function
 992              	_ZN10GuiElement12SetAlignmentEi:
 993              	.LFB1421:
 994              		.loc 2 316 0
 995              		.cfi_startproc
 996              	.LVL79:
 997              		.loc 2 316 0
 998 0000 90830044 		stw 4,68(3)
 999 0004 4E800020 		blr
 1000              		.cfi_endproc
 1001              	.LFE1421:
 1002              		.size	_ZN10GuiElement12SetAlignmentEi, .-_ZN10GuiElement12SetAlignmentEi
 1003              		.section	.text._ZNK10GuiElement12GetAlignmentEv,"axG",@progbits,_ZNK10GuiElement12GetAlignmentEv,c
 1004              		.align 2
 1005              		.weak	_ZNK10GuiElement12GetAlignmentEv
 1006              		.type	_ZNK10GuiElement12GetAlignmentEv, @function
 1007              	_ZNK10GuiElement12GetAlignmentEv:
 1008              	.LFB1422:
 1009              		.loc 2 318 0
 1010              		.cfi_startproc
 1011              	.LVL80:
 1012              		.loc 2 318 0
 1013 0000 80630044 		lwz 3,68(3)
 1014              	.LVL81:
 1015 0004 4E800020 		blr
 1016              		.cfi_endproc
 1017              	.LFE1422:
 1018              		.size	_ZNK10GuiElement12GetAlignmentEv, .-_ZNK10GuiElement12GetAlignmentEv
 1019              		.section	.text._ZN8GuiFrame4execEv,"axG",@progbits,_ZN8GuiFrame4execEv,comdat
 1020              		.align 2
 1021              		.weak	_ZN8GuiFrame4execEv
 1022              		.type	_ZN8GuiFrame4execEv, @function
 1023              	_ZN8GuiFrame4execEv:
 1024              	.LFB1433:
 1025              		.file 3 "d:/Projects/SaveGameManager/savegame-manager-gx/trunk/source/Menu/../GUI/gui_frame.h"
 1026              		.loc 3 83 0
 1027              		.cfi_startproc
 1028              	.LVL82:
 1029              		.loc 3 83 0
 1030 0000 4E800020 		blr
 1031              		.cfi_endproc
 1032              	.LFE1433:
 1033              		.size	_ZN8GuiFrame4execEv, .-_ZN8GuiFrame4execEv
 1034              		.section	.text._ZN8GuiFrame12updateEventsEv,"axG",@progbits,_ZN8GuiFrame12updateEventsEv,comdat
 1035              		.align 2
 1036              		.weak	_ZN8GuiFrame12updateEventsEv
 1037              		.type	_ZN8GuiFrame12updateEventsEv, @function
 1038              	_ZN8GuiFrame12updateEventsEv:
 1039              	.LFB1434:
 1040              		.loc 3 85 0
 1041              		.cfi_startproc
 1042              	.LVL83:
 1043              		.loc 3 85 0
 1044 0000 4E800020 		blr
 1045              		.cfi_endproc
 1046              	.LFE1434:
 1047              		.size	_ZN8GuiFrame12updateEventsEv, .-_ZN8GuiFrame12updateEventsEv
 1048              		.section	.text._ZN7sigslot12_signal_baseINS_15single_threadedEED2Ev,"axG",@progbits,_ZN7sigslot12_
 1049              		.align 2
 1050              		.weak	_ZN7sigslot12_signal_baseINS_15single_threadedEED2Ev
 1051              		.type	_ZN7sigslot12_signal_baseINS_15single_threadedEED2Ev, @function
 1052              	_ZN7sigslot12_signal_baseINS_15single_threadedEED2Ev:
 1053              	.LFB1815:
 1054              		.loc 1 466 0
 1055              		.cfi_startproc
 1056              	.LVL84:
 1057              	.LBB3185:
 1058              	.LBB3186:
 1059              	.LBB3187:
 1060              	.LBB3188:
 1061              		.loc 1 105 0
 1062 0000 3D200000 		lis 9,_ZTVN7sigslot15single_threadedE+8@ha
 1063              	.LBE3188:
 1064              	.LBE3187:
 1065              	.LBE3186:
 1066              	.LBE3185:
 1067              		.loc 1 466 0
 1068              	.LBB3192:
 1069              	.LBB3191:
 1070              	.LBB3190:
 1071              	.LBB3189:
 1072              		.loc 1 105 0
 1073 0004 38090008 		la 0,_ZTVN7sigslot15single_threadedE+8@l(9)
 1074 0008 90030000 		stw 0,0(3)
 1075              	.LBE3189:
 1076              	.LBE3190:
 1077              	.LBE3191:
 1078              	.LBE3192:
 1079              		.loc 1 466 0
 1080 000c 4E800020 		blr
 1081              		.cfi_endproc
 1082              	.LFE1815:
 1083              		.size	_ZN7sigslot12_signal_baseINS_15single_threadedEED2Ev, .-_ZN7sigslot12_signal_baseINS_15singl
 1084              		.section	.text._ZN7sigslot17_connection_base3IP9GuiButtoniRK6_POINTNS_15single_threadedEED2Ev,"axG
 1085              		.align 2
 1086              		.weak	_ZN7sigslot17_connection_base3IP9GuiButtoniRK6_POINTNS_15single_threadedEED2Ev
 1087              		.type	_ZN7sigslot17_connection_base3IP9GuiButtoniRK6_POINTNS_15single_threadedEED2Ev, @function
 1088              	_ZN7sigslot17_connection_base3IP9GuiButtoniRK6_POINTNS_15single_threadedEED2Ev:
 1089              	.LFB2057:
 1090              		.loc 1 387 0
 1091              		.cfi_startproc
 1092              	.LVL85:
 1093              	.LBB3193:
 1094              		.loc 1 387 0
 1095 0000 3D200000 		lis 9,_ZTVN7sigslot17_connection_base3IP9GuiButtoniRK6_POINTNS_15single_threadedEEE+8@ha
 1096              	.LBE3193:
 1097              	.LBB3194:
 1098 0004 38090008 		la 0,_ZTVN7sigslot17_connection_base3IP9GuiButtoniRK6_POINTNS_15single_threadedEEE+8@l(9)
 1099 0008 90030000 		stw 0,0(3)
 1100              	.LBE3194:
 1101 000c 4E800020 		blr
 1102              		.cfi_endproc
 1103              	.LFE2057:
 1104              		.size	_ZN7sigslot17_connection_base3IP9GuiButtoniRK6_POINTNS_15single_threadedEED2Ev, .-_ZN7sigslo
 1105              		.section	.text._ZN7sigslot17_connection_base2IP7TaskBariNS_15single_threadedEED2Ev,"axG",@progbits
 1106              		.align 2
 1107              		.weak	_ZN7sigslot17_connection_base2IP7TaskBariNS_15single_threadedEED2Ev
 1108              		.type	_ZN7sigslot17_connection_base2IP7TaskBariNS_15single_threadedEED2Ev, @function
 1109              	_ZN7sigslot17_connection_base2IP7TaskBariNS_15single_threadedEED2Ev:
 1110              	.LFB2064:
 1111              		.loc 1 376 0
 1112              		.cfi_startproc
 1113              	.LVL86:
 1114              	.LBB3195:
 1115              		.loc 1 376 0
 1116 0000 3D200000 		lis 9,_ZTVN7sigslot17_connection_base2IP7TaskBariNS_15single_threadedEEE+8@ha
 1117              	.LBE3195:
 1118              	.LBB3196:
 1119 0004 38090008 		la 0,_ZTVN7sigslot17_connection_base2IP7TaskBariNS_15single_threadedEEE+8@l(9)
 1120 0008 90030000 		stw 0,0(3)
 1121              	.LBE3196:
 1122 000c 4E800020 		blr
 1123              		.cfi_endproc
 1124              	.LFE2064:
 1125              		.size	_ZN7sigslot17_connection_base2IP7TaskBariNS_15single_threadedEED2Ev, .-_ZN7sigslot17_connect
 1126              		.section	.text._ZN7sigslot17_connection_base1IiNS_15single_threadedEED2Ev,"axG",@progbits,_ZN7sigs
 1127              		.align 2
 1128              		.weak	_ZN7sigslot17_connection_base1IiNS_15single_threadedEED2Ev
 1129              		.type	_ZN7sigslot17_connection_base1IiNS_15single_threadedEED2Ev, @function
 1130              	_ZN7sigslot17_connection_base1IiNS_15single_threadedEED2Ev:
 1131              	.LFB2069:
 1132              		.loc 1 365 0
 1133              		.cfi_startproc
 1134              	.LVL87:
 1135              	.LBB3197:
 1136              		.loc 1 365 0
 1137 0000 3D200000 		lis 9,_ZTVN7sigslot17_connection_base1IiNS_15single_threadedEEE+8@ha
 1138              	.LBE3197:
 1139              	.LBB3198:
 1140 0004 38090008 		la 0,_ZTVN7sigslot17_connection_base1IiNS_15single_threadedEEE+8@l(9)
 1141 0008 90030000 		stw 0,0(3)
 1142              	.LBE3198:
 1143 000c 4E800020 		blr
 1144              		.cfi_endproc
 1145              	.LFE2069:
 1146              		.size	_ZN7sigslot17_connection_base1IiNS_15single_threadedEED2Ev, .-_ZN7sigslot17_connection_base1
 1147              		.section	.text._ZN7sigslot17_connection_base2IbbNS_15single_threadedEED2Ev,"axG",@progbits,_ZN7sig
 1148              		.align 2
 1149              		.weak	_ZN7sigslot17_connection_base2IbbNS_15single_threadedEED2Ev
 1150              		.type	_ZN7sigslot17_connection_base2IbbNS_15single_threadedEED2Ev, @function
 1151              	_ZN7sigslot17_connection_base2IbbNS_15single_threadedEED2Ev:
 1152              	.LFB2075:
 1153              		.loc 1 376 0
 1154              		.cfi_startproc
 1155              	.LVL88:
 1156              	.LBB3199:
 1157              		.loc 1 376 0
 1158 0000 3D200000 		lis 9,_ZTVN7sigslot17_connection_base2IbbNS_15single_threadedEEE+8@ha
 1159              	.LBE3199:
 1160              	.LBB3200:
 1161 0004 38090008 		la 0,_ZTVN7sigslot17_connection_base2IbbNS_15single_threadedEEE+8@l(9)
 1162 0008 90030000 		stw 0,0(3)
 1163              	.LBE3200:
 1164 000c 4E800020 		blr
 1165              		.cfi_endproc
 1166              	.LFE2075:
 1167              		.size	_ZN7sigslot17_connection_base2IbbNS_15single_threadedEED2Ev, .-_ZN7sigslot17_connection_base
 1168              		.section	.text._ZN7sigslot12_connection2I7TaskBarbbNS_15single_threadedEED2Ev,"axG",@progbits,_ZN7
 1169              		.align 2
 1170              		.weak	_ZN7sigslot12_connection2I7TaskBarbbNS_15single_threadedEED2Ev
 1171              		.type	_ZN7sigslot12_connection2I7TaskBarbbNS_15single_threadedEED2Ev, @function
 1172              	_ZN7sigslot12_connection2I7TaskBarbbNS_15single_threadedEED2Ev:
 1173              	.LFB2504:
 1174              		.loc 1 1735 0
 1175              		.cfi_startproc
 1176              	.LVL89:
 1177              	.LBB3201:
 1178              	.LBB3202:
 1179              	.LBB3203:
 1180              	.LBB3204:
 1181              		.loc 1 376 0
 1182 0000 3D200000 		lis 9,_ZTVN7sigslot17_connection_base2IbbNS_15single_threadedEEE+8@ha
 1183              	.LBE3204:
 1184              	.LBE3203:
 1185              	.LBE3202:
 1186              	.LBE3201:
 1187              		.loc 1 1738 0
 1188              	.LBB3208:
 1189              	.LBB3207:
 1190              	.LBB3206:
 1191              	.LBB3205:
 1192              		.loc 1 376 0
 1193 0004 38090008 		la 0,_ZTVN7sigslot17_connection_base2IbbNS_15single_threadedEEE+8@l(9)
 1194 0008 90030000 		stw 0,0(3)
 1195              	.LBE3205:
 1196              	.LBE3206:
 1197              	.LBE3207:
 1198              	.LBE3208:
 1199              		.loc 1 1738 0
 1200 000c 4E800020 		blr
 1201              		.cfi_endproc
 1202              	.LFE2504:
 1203              		.size	_ZN7sigslot12_connection2I7TaskBarbbNS_15single_threadedEED2Ev, .-_ZN7sigslot12_connection2I
 1204              		.section	.text._ZNK7sigslot12_connection2I7TaskBarbbNS_15single_threadedEE7getdestEv,"axG",@progbi
 1205              		.align 2
 1206              		.weak	_ZNK7sigslot12_connection2I7TaskBarbbNS_15single_threadedEE7getdestEv
 1207              		.type	_ZNK7sigslot12_connection2I7TaskBarbbNS_15single_threadedEE7getdestEv, @function
 1208              	_ZNK7sigslot12_connection2I7TaskBarbbNS_15single_threadedEE7getdestEv:
 1209              	.LFB2507:
 1210              		.loc 1 1756 0
 1211              		.cfi_startproc
 1212              	.LVL90:
 1213              		.loc 1 1758 0
 1214 0000 81230004 		lwz 9,4(3)
 1215 0004 38600000 		li 3,0
 1216              	.LVL91:
 1217 0008 2F890000 		cmpwi 7,9,0
 1218 000c 4D9E0020 		beqlr- 7
 1219              		.loc 1 1758 0 is_stmt 0 discriminator 1
 1220 0010 386900B0 		addi 3,9,176
 1221              		.loc 1 1759 0 is_stmt 1 discriminator 1
 1222 0014 4E800020 		blr
 1223              		.cfi_endproc
 1224              	.LFE2507:
 1225              		.size	_ZNK7sigslot12_connection2I7TaskBarbbNS_15single_threadedEE7getdestEv, .-_ZNK7sigslot12_conn
 1226              		.section	.text._ZN7sigslot12_connection2I7TaskBarbbNS_15single_threadedEE4emitEbb,"axG",@progbits,
 1227              		.align 2
 1228              		.weak	_ZN7sigslot12_connection2I7TaskBarbbNS_15single_threadedEE4emitEbb
 1229              		.type	_ZN7sigslot12_connection2I7TaskBarbbNS_15single_threadedEE4emitEbb, @function
 1230              	_ZN7sigslot12_connection2I7TaskBarbbNS_15single_threadedEE4emitEbb:
 1231              	.LFB2508:
 1232              		.loc 1 1751 0
 1233              		.cfi_startproc
 1234              	.LVL92:
 1235 0000 7C0802A6 		mflr 0
 1236 0004 9421FFF8 		stwu 1,-8(1)
 1237              	.LCFI18:
 1238              		.cfi_def_cfa_offset 8
 1239              		.cfi_register 65, 0
 1240 0008 9001000C 		stw 0,12(1)
 1241              		.loc 1 1753 0
 1242 000c 80030008 		lwz 0,8(3)
 1243              		.cfi_offset 65, 4
 1244 0010 81630004 		lwz 11,4(3)
 1245 0014 70090001 		andi. 9,0,1
 1246 0018 8123000C 		lwz 9,12(3)
 1247 001c 40820020 		bne- 0,.L83
 1248 0020 7C0903A6 		mtctr 0
 1249 0024 7C6B4A14 		add 3,11,9
 1250              	.LVL93:
 1251 0028 4E800421 		bctrl
 1252              	.LVL94:
 1253              		.loc 1 1754 0
 1254 002c 8001000C 		lwz 0,12(1)
 1255 0030 38210008 		addi 1,1,8
 1256              		.cfi_remember_state
 1257              	.LCFI19:
 1258              		.cfi_def_cfa_offset 0
 1259 0034 7C0803A6 		mtlr 0
 1260 0038 4E800020 		blr
 1261              	.LVL95:
 1262              	.L83:
 1263              	.LCFI20:
 1264              		.cfi_restore_state
 1265              		.loc 1 1753 0 discriminator 1
 1266 003c 7D4B482E 		lwzx 10,11,9
 1267 0040 7C6B4A14 		add 3,11,9
 1268              	.LVL96:
 1269 0044 7D2A0214 		add 9,10,0
 1270 0048 8009FFFF 		lwz 0,-1(9)
 1271 004c 7C0903A6 		mtctr 0
 1272 0050 4E800421 		bctrl
 1273              	.LVL97:
 1274              		.loc 1 1754 0 discriminator 1
 1275 0054 8001000C 		lwz 0,12(1)
 1276 0058 38210008 		addi 1,1,8
 1277              	.LCFI21:
 1278              		.cfi_def_cfa_offset 0
 1279 005c 7C0803A6 		mtlr 0
 1280 0060 4E800020 		blr
 1281              		.cfi_endproc
 1282              	.LFE2508:
 1283              		.size	_ZN7sigslot12_connection2I7TaskBarbbNS_15single_threadedEE4emitEbb, .-_ZN7sigslot12_connecti
 1284              		.section	.text._ZN7sigslot12_connection1I7TaskBariNS_15single_threadedEED2Ev,"axG",@progbits,_ZN7s
 1285              		.align 2
 1286              		.weak	_ZN7sigslot12_connection1I7TaskBariNS_15single_threadedEED2Ev
 1287              		.type	_ZN7sigslot12_connection1I7TaskBariNS_15single_threadedEED2Ev, @function
 1288              	_ZN7sigslot12_connection1I7TaskBariNS_15single_threadedEED2Ev:
 1289              	.LFB2518:
 1290              		.loc 1 1688 0
 1291              		.cfi_startproc
 1292              	.LVL98:
 1293              	.LBB3209:
 1294              	.LBB3210:
 1295              	.LBB3211:
 1296              	.LBB3212:
 1297              		.loc 1 365 0
 1298 0000 3D200000 		lis 9,_ZTVN7sigslot17_connection_base1IiNS_15single_threadedEEE+8@ha
 1299              	.LBE3212:
 1300              	.LBE3211:
 1301              	.LBE3210:
 1302              	.LBE3209:
 1303              		.loc 1 1691 0
 1304              	.LBB3216:
 1305              	.LBB3215:
 1306              	.LBB3214:
 1307              	.LBB3213:
 1308              		.loc 1 365 0
 1309 0004 38090008 		la 0,_ZTVN7sigslot17_connection_base1IiNS_15single_threadedEEE+8@l(9)
 1310 0008 90030000 		stw 0,0(3)
 1311              	.LBE3213:
 1312              	.LBE3214:
 1313              	.LBE3215:
 1314              	.LBE3216:
 1315              		.loc 1 1691 0
 1316 000c 4E800020 		blr
 1317              		.cfi_endproc
 1318              	.LFE2518:
 1319              		.size	_ZN7sigslot12_connection1I7TaskBariNS_15single_threadedEED2Ev, .-_ZN7sigslot12_connection1I7
 1320              		.section	.text._ZNK7sigslot12_connection1I7TaskBariNS_15single_threadedEE7getdestEv,"axG",@progbit
 1321              		.align 2
 1322              		.weak	_ZNK7sigslot12_connection1I7TaskBariNS_15single_threadedEE7getdestEv
 1323              		.type	_ZNK7sigslot12_connection1I7TaskBariNS_15single_threadedEE7getdestEv, @function
 1324              	_ZNK7sigslot12_connection1I7TaskBariNS_15single_threadedEE7getdestEv:
 1325              	.LFB2521:
 1326              		.loc 1 1708 0
 1327              		.cfi_startproc
 1328              	.LVL99:
 1329              		.loc 1 1710 0
 1330 0000 81230004 		lwz 9,4(3)
 1331 0004 38600000 		li 3,0
 1332              	.LVL100:
 1333 0008 2F890000 		cmpwi 7,9,0
 1334 000c 4D9E0020 		beqlr- 7
 1335              		.loc 1 1710 0 is_stmt 0 discriminator 1
 1336 0010 386900B0 		addi 3,9,176
 1337              		.loc 1 1711 0 is_stmt 1 discriminator 1
 1338 0014 4E800020 		blr
 1339              		.cfi_endproc
 1340              	.LFE2521:
 1341              		.size	_ZNK7sigslot12_connection1I7TaskBariNS_15single_threadedEE7getdestEv, .-_ZNK7sigslot12_conne
 1342              		.section	.text._ZN7sigslot12_connection1I7TaskBariNS_15single_threadedEE4emitEi,"axG",@progbits,_Z
 1343              		.align 2
 1344              		.weak	_ZN7sigslot12_connection1I7TaskBariNS_15single_threadedEE4emitEi
 1345              		.type	_ZN7sigslot12_connection1I7TaskBariNS_15single_threadedEE4emitEi, @function
 1346              	_ZN7sigslot12_connection1I7TaskBariNS_15single_threadedEE4emitEi:
 1347              	.LFB2522:
 1348              		.loc 1 1703 0
 1349              		.cfi_startproc
 1350              	.LVL101:
 1351 0000 7C0802A6 		mflr 0
 1352 0004 9421FFF8 		stwu 1,-8(1)
 1353              	.LCFI22:
 1354              		.cfi_def_cfa_offset 8
 1355              		.cfi_register 65, 0
 1356 0008 9001000C 		stw 0,12(1)
 1357              		.loc 1 1705 0
 1358 000c 80030008 		lwz 0,8(3)
 1359              		.cfi_offset 65, 4
 1360 0010 81630004 		lwz 11,4(3)
 1361 0014 70090001 		andi. 9,0,1
 1362 0018 8123000C 		lwz 9,12(3)
 1363 001c 40820020 		bne- 0,.L92
 1364 0020 7C0903A6 		mtctr 0
 1365 0024 7C6B4A14 		add 3,11,9
 1366              	.LVL102:
 1367 0028 4E800421 		bctrl
 1368              	.LVL103:
 1369              		.loc 1 1706 0
 1370 002c 8001000C 		lwz 0,12(1)
 1371 0030 38210008 		addi 1,1,8
 1372              		.cfi_remember_state
 1373              	.LCFI23:
 1374              		.cfi_def_cfa_offset 0
 1375 0034 7C0803A6 		mtlr 0
 1376 0038 4E800020 		blr
 1377              	.LVL104:
 1378              	.L92:
 1379              	.LCFI24:
 1380              		.cfi_restore_state
 1381              		.loc 1 1705 0 discriminator 1
 1382 003c 7D4B482E 		lwzx 10,11,9
 1383 0040 7C6B4A14 		add 3,11,9
 1384              	.LVL105:
 1385 0044 7D2A0214 		add 9,10,0
 1386 0048 8009FFFF 		lwz 0,-1(9)
 1387 004c 7C0903A6 		mtctr 0
 1388 0050 4E800421 		bctrl
 1389              	.LVL106:
 1390              		.loc 1 1706 0 discriminator 1
 1391 0054 8001000C 		lwz 0,12(1)
 1392 0058 38210008 		addi 1,1,8
 1393              	.LCFI25:
 1394              		.cfi_def_cfa_offset 0
 1395 005c 7C0803A6 		mtlr 0
 1396 0060 4E800020 		blr
 1397              		.cfi_endproc
 1398              	.LFE2522:
 1399              		.size	_ZN7sigslot12_connection1I7TaskBariNS_15single_threadedEE4emitEi, .-_ZN7sigslot12_connection
 1400              		.section	.text._ZN7sigslot12_connection2I8MainMenuP7TaskBariNS_15single_threadedEED2Ev,"axG",@prog
 1401              		.align 2
 1402              		.weak	_ZN7sigslot12_connection2I8MainMenuP7TaskBariNS_15single_threadedEED2Ev
 1403              		.type	_ZN7sigslot12_connection2I8MainMenuP7TaskBariNS_15single_threadedEED2Ev, @function
 1404              	_ZN7sigslot12_connection2I8MainMenuP7TaskBariNS_15single_threadedEED2Ev:
 1405              	.LFB2532:
 1406              		.loc 1 1735 0
 1407              		.cfi_startproc
 1408              	.LVL107:
 1409              	.LBB3217:
 1410              	.LBB3218:
 1411              	.LBB3219:
 1412              	.LBB3220:
 1413              		.loc 1 376 0
 1414 0000 3D200000 		lis 9,_ZTVN7sigslot17_connection_base2IP7TaskBariNS_15single_threadedEEE+8@ha
 1415              	.LBE3220:
 1416              	.LBE3219:
 1417              	.LBE3218:
 1418              	.LBE3217:
 1419              		.loc 1 1738 0
 1420              	.LBB3224:
 1421              	.LBB3223:
 1422              	.LBB3222:
 1423              	.LBB3221:
 1424              		.loc 1 376 0
 1425 0004 38090008 		la 0,_ZTVN7sigslot17_connection_base2IP7TaskBariNS_15single_threadedEEE+8@l(9)
 1426 0008 90030000 		stw 0,0(3)
 1427              	.LBE3221:
 1428              	.LBE3222:
 1429              	.LBE3223:
 1430              	.LBE3224:
 1431              		.loc 1 1738 0
 1432 000c 4E800020 		blr
 1433              		.cfi_endproc
 1434              	.LFE2532:
 1435              		.size	_ZN7sigslot12_connection2I8MainMenuP7TaskBariNS_15single_threadedEED2Ev, .-_ZN7sigslot12_con
 1436              		.section	.text._ZNK7sigslot12_connection2I8MainMenuP7TaskBariNS_15single_threadedEE7getdestEv,"axG
 1437              		.align 2
 1438              		.weak	_ZNK7sigslot12_connection2I8MainMenuP7TaskBariNS_15single_threadedEE7getdestEv
 1439              		.type	_ZNK7sigslot12_connection2I8MainMenuP7TaskBariNS_15single_threadedEE7getdestEv, @function
 1440              	_ZNK7sigslot12_connection2I8MainMenuP7TaskBariNS_15single_threadedEE7getdestEv:
 1441              	.LFB2535:
 1442              		.loc 1 1756 0
 1443              		.cfi_startproc
 1444              	.LVL108:
 1445              		.loc 1 1758 0
 1446 0000 81230004 		lwz 9,4(3)
 1447 0004 38600000 		li 3,0
 1448              	.LVL109:
 1449 0008 2F890000 		cmpwi 7,9,0
 1450 000c 4D9E0020 		beqlr- 7
 1451              		.loc 1 1758 0 is_stmt 0 discriminator 1
 1452 0010 386900B0 		addi 3,9,176
 1453              		.loc 1 1759 0 is_stmt 1 discriminator 1
 1454 0014 4E800020 		blr
 1455              		.cfi_endproc
 1456              	.LFE2535:
 1457              		.size	_ZNK7sigslot12_connection2I8MainMenuP7TaskBariNS_15single_threadedEE7getdestEv, .-_ZNK7sigsl
 1458              		.section	.text._ZN7sigslot12_connection2I8MainMenuP7TaskBariNS_15single_threadedEE4emitES3_i,"axG"
 1459              		.align 2
 1460              		.weak	_ZN7sigslot12_connection2I8MainMenuP7TaskBariNS_15single_threadedEE4emitES3_i
 1461              		.type	_ZN7sigslot12_connection2I8MainMenuP7TaskBariNS_15single_threadedEE4emitES3_i, @function
 1462              	_ZN7sigslot12_connection2I8MainMenuP7TaskBariNS_15single_threadedEE4emitES3_i:
 1463              	.LFB2536:
 1464              		.loc 1 1751 0
 1465              		.cfi_startproc
 1466              	.LVL110:
 1467 0000 7C0802A6 		mflr 0
 1468 0004 9421FFF8 		stwu 1,-8(1)
 1469              	.LCFI26:
 1470              		.cfi_def_cfa_offset 8
 1471              		.cfi_register 65, 0
 1472 0008 9001000C 		stw 0,12(1)
 1473              		.loc 1 1753 0
 1474 000c 80030008 		lwz 0,8(3)
 1475              		.cfi_offset 65, 4
 1476 0010 81630004 		lwz 11,4(3)
 1477 0014 70090001 		andi. 9,0,1
 1478 0018 8123000C 		lwz 9,12(3)
 1479 001c 40820020 		bne- 0,.L101
 1480 0020 7C0903A6 		mtctr 0
 1481 0024 7C6B4A14 		add 3,11,9
 1482              	.LVL111:
 1483 0028 4E800421 		bctrl
 1484              	.LVL112:
 1485              		.loc 1 1754 0
 1486 002c 8001000C 		lwz 0,12(1)
 1487 0030 38210008 		addi 1,1,8
 1488              		.cfi_remember_state
 1489              	.LCFI27:
 1490              		.cfi_def_cfa_offset 0
 1491 0034 7C0803A6 		mtlr 0
 1492 0038 4E800020 		blr
 1493              	.LVL113:
 1494              	.L101:
 1495              	.LCFI28:
 1496              		.cfi_restore_state
 1497              		.loc 1 1753 0 discriminator 1
 1498 003c 7D4B482E 		lwzx 10,11,9
 1499 0040 7C6B4A14 		add 3,11,9
 1500              	.LVL114:
 1501 0044 7D2A0214 		add 9,10,0
 1502 0048 8009FFFF 		lwz 0,-1(9)
 1503 004c 7C0903A6 		mtctr 0
 1504 0050 4E800421 		bctrl
 1505              	.LVL115:
 1506              		.loc 1 1754 0 discriminator 1
 1507 0054 8001000C 		lwz 0,12(1)
 1508 0058 38210008 		addi 1,1,8
 1509              	.LCFI29:
 1510              		.cfi_def_cfa_offset 0
 1511 005c 7C0803A6 		mtlr 0
 1512 0060 4E800020 		blr
 1513              		.cfi_endproc
 1514              	.LFE2536:
 1515              		.size	_ZN7sigslot12_connection2I8MainMenuP7TaskBariNS_15single_threadedEE4emitES3_i, .-_ZN7sigslot
 1516              		.section	.text._ZN7sigslot12_connection3I7TaskBarP9GuiButtoniRK6_POINTNS_15single_threadedEED2Ev,"
 1517              		.align 2
 1518              		.weak	_ZN7sigslot12_connection3I7TaskBarP9GuiButtoniRK6_POINTNS_15single_threadedEED2Ev
 1519              		.type	_ZN7sigslot12_connection3I7TaskBarP9GuiButtoniRK6_POINTNS_15single_threadedEED2Ev, @function
 1520              	_ZN7sigslot12_connection3I7TaskBarP9GuiButtoniRK6_POINTNS_15single_threadedEED2Ev:
 1521              	.LFB2546:
 1522              		.loc 1 1783 0
 1523              		.cfi_startproc
 1524              	.LVL116:
 1525              	.LBB3225:
 1526              	.LBB3226:
 1527              	.LBB3227:
 1528              	.LBB3228:
 1529              		.loc 1 387 0
 1530 0000 3D200000 		lis 9,_ZTVN7sigslot17_connection_base3IP9GuiButtoniRK6_POINTNS_15single_threadedEEE+8@ha
 1531              	.LBE3228:
 1532              	.LBE3227:
 1533              	.LBE3226:
 1534              	.LBE3225:
 1535              		.loc 1 1786 0
 1536              	.LBB3232:
 1537              	.LBB3231:
 1538              	.LBB3230:
 1539              	.LBB3229:
 1540              		.loc 1 387 0
 1541 0004 38090008 		la 0,_ZTVN7sigslot17_connection_base3IP9GuiButtoniRK6_POINTNS_15single_threadedEEE+8@l(9)
 1542 0008 90030000 		stw 0,0(3)
 1543              	.LBE3229:
 1544              	.LBE3230:
 1545              	.LBE3231:
 1546              	.LBE3232:
 1547              		.loc 1 1786 0
 1548 000c 4E800020 		blr
 1549              		.cfi_endproc
 1550              	.LFE2546:
 1551              		.size	_ZN7sigslot12_connection3I7TaskBarP9GuiButtoniRK6_POINTNS_15single_threadedEED2Ev, .-_ZN7sig
 1552              		.section	.text._ZNK7sigslot12_connection3I7TaskBarP9GuiButtoniRK6_POINTNS_15single_threadedEE7getd
 1553              		.align 2
 1554              		.weak	_ZNK7sigslot12_connection3I7TaskBarP9GuiButtoniRK6_POINTNS_15single_threadedEE7getdestEv
 1555              		.type	_ZNK7sigslot12_connection3I7TaskBarP9GuiButtoniRK6_POINTNS_15single_threadedEE7getdestEv, @f
 1556              	_ZNK7sigslot12_connection3I7TaskBarP9GuiButtoniRK6_POINTNS_15single_threadedEE7getdestEv:
 1557              	.LFB2549:
 1558              		.loc 1 1804 0
 1559              		.cfi_startproc
 1560              	.LVL117:
 1561              		.loc 1 1806 0
 1562 0000 81230004 		lwz 9,4(3)
 1563 0004 38600000 		li 3,0
 1564              	.LVL118:
 1565 0008 2F890000 		cmpwi 7,9,0
 1566 000c 4D9E0020 		beqlr- 7
 1567              		.loc 1 1806 0 is_stmt 0 discriminator 1
 1568 0010 386900B0 		addi 3,9,176
 1569              		.loc 1 1807 0 is_stmt 1 discriminator 1
 1570 0014 4E800020 		blr
 1571              		.cfi_endproc
 1572              	.LFE2549:
 1573              		.size	_ZNK7sigslot12_connection3I7TaskBarP9GuiButtoniRK6_POINTNS_15single_threadedEE7getdestEv, .-
 1574              		.section	.text._ZN7sigslot12_connection3I7TaskBarP9GuiButtoniRK6_POINTNS_15single_threadedEE4emitE
 1575              		.align 2
 1576              		.weak	_ZN7sigslot12_connection3I7TaskBarP9GuiButtoniRK6_POINTNS_15single_threadedEE4emitES3_iS6_
 1577              		.type	_ZN7sigslot12_connection3I7TaskBarP9GuiButtoniRK6_POINTNS_15single_threadedEE4emitES3_iS6_, 
 1578              	_ZN7sigslot12_connection3I7TaskBarP9GuiButtoniRK6_POINTNS_15single_threadedEE4emitES3_iS6_:
 1579              	.LFB2550:
 1580              		.loc 1 1799 0
 1581              		.cfi_startproc
 1582              	.LVL119:
 1583 0000 7C0802A6 		mflr 0
 1584 0004 9421FFF8 		stwu 1,-8(1)
 1585              	.LCFI30:
 1586              		.cfi_def_cfa_offset 8
 1587              		.cfi_register 65, 0
 1588 0008 9001000C 		stw 0,12(1)
 1589              		.loc 1 1801 0
 1590 000c 80030008 		lwz 0,8(3)
 1591              		.cfi_offset 65, 4
 1592 0010 81630004 		lwz 11,4(3)
 1593 0014 70090001 		andi. 9,0,1
 1594 0018 8123000C 		lwz 9,12(3)
 1595 001c 40820020 		bne- 0,.L110
 1596 0020 7C0903A6 		mtctr 0
 1597 0024 7C6B4A14 		add 3,11,9
 1598              	.LVL120:
 1599 0028 4E800421 		bctrl
 1600              	.LVL121:
 1601              		.loc 1 1802 0
 1602 002c 8001000C 		lwz 0,12(1)
 1603 0030 38210008 		addi 1,1,8
 1604              		.cfi_remember_state
 1605              	.LCFI31:
 1606              		.cfi_def_cfa_offset 0
 1607 0034 7C0803A6 		mtlr 0
 1608 0038 4E800020 		blr
 1609              	.LVL122:
 1610              	.L110:
 1611              	.LCFI32:
 1612              		.cfi_restore_state
 1613              		.loc 1 1801 0 discriminator 1
 1614 003c 7D4B482E 		lwzx 10,11,9
 1615 0040 7C6B4A14 		add 3,11,9
 1616              	.LVL123:
 1617 0044 7D2A0214 		add 9,10,0
 1618 0048 8009FFFF 		lwz 0,-1(9)
 1619 004c 7C0903A6 		mtctr 0
 1620 0050 4E800421 		bctrl
 1621              	.LVL124:
 1622              		.loc 1 1802 0 discriminator 1
 1623 0054 8001000C 		lwz 0,12(1)
 1624 0058 38210008 		addi 1,1,8
 1625              	.LCFI33:
 1626              		.cfi_def_cfa_offset 0
 1627 005c 7C0803A6 		mtlr 0
 1628 0060 4E800020 		blr
 1629              		.cfi_endproc
 1630              	.LFE2550:
 1631              		.size	_ZN7sigslot12_connection3I7TaskBarP9GuiButtoniRK6_POINTNS_15single_threadedEE4emitES3_iS6_, 
 1632              		.section	.text._ZN7sigslot12_connection3I7TaskBarP9GuiButtoniRK6_POINTNS_15single_threadedEE9dupli
 1633              		.align 2
 1634              		.weak	_ZN7sigslot12_connection3I7TaskBarP9GuiButtoniRK6_POINTNS_15single_threadedEE9duplicateEPNS_
 1635              		.type	_ZN7sigslot12_connection3I7TaskBarP9GuiButtoniRK6_POINTNS_15single_threadedEE9duplicateEPNS_
 1636              	_ZN7sigslot12_connection3I7TaskBarP9GuiButtoniRK6_POINTNS_15single_threadedEE9duplicateEPNS_9has_sl
 1637              	.LFB2558:
 1638              		.loc 1 1794 0
 1639              		.cfi_startproc
 1640              	.LVL125:
 1641 0000 9421FFF0 		stwu 1,-16(1)
 1642              	.LCFI34:
 1643              		.cfi_def_cfa_offset 16
 1644 0004 7C0802A6 		mflr 0
 1645 0008 93C10008 		stw 30,8(1)
 1646 000c 7C9E2378 		mr 30,4
 1647              		.cfi_offset 30, -8
 1648              		.cfi_register 65, 0
 1649 0010 93E1000C 		stw 31,12(1)
 1650 0014 7C7F1B78 		mr 31,3
 1651              		.cfi_offset 31, -4
 1652              		.loc 1 1796 0
 1653 0018 38600010 		li 3,16
 1654              	.LVL126:
 1655              		.loc 1 1794 0
 1656 001c 90010014 		stw 0,20(1)
 1657              		.loc 1 1796 0
 1658              		.cfi_offset 65, 4
 1659 0020 48000001 		bl _Znwj
 1660              	.LVL127:
 1661 0024 2F9E0000 		cmpwi 7,30,0
 1662 0028 38000000 		li 0,0
 1663 002c 419E0008 		beq- 7,.L113
 1664              		.loc 1 1796 0 is_stmt 0 discriminator 1
 1665 0030 381EFF50 		addi 0,30,-176
 1666              	.L113:
 1667              	.LVL128:
 1668              		.loc 1 1796 0 discriminator 3
 1669 0034 817F0008 		lwz 11,8(31)
 1670              	.LVL129:
 1671              	.LBB3233:
 1672              	.LBB3234:
 1673              		.loc 1 1778 0 is_stmt 1 discriminator 3
 1674 0038 3D400000 		lis 10,_ZTVN7sigslot12_connection3I7TaskBarP9GuiButtoniRK6_POINTNS_15single_threadedEEE+8@ha
 1675              	.LBE3234:
 1676              	.LBE3233:
 1677              		.loc 1 1796 0 discriminator 3
 1678 003c 813F000C 		lwz 9,12(31)
 1679              	.LVL130:
 1680              	.LBB3237:
 1681              	.LBB3235:
 1682              		.loc 1 1778 0 discriminator 3
 1683 0040 394A0008 		la 10,_ZTVN7sigslot12_connection3I7TaskBarP9GuiButtoniRK6_POINTNS_15single_threadedEEE+8@l(10)
 1684              		.loc 1 1780 0 discriminator 3
 1685 0044 91630008 		stw 11,8(3)
 1686 0048 9123000C 		stw 9,12(3)
 1687              		.loc 1 1779 0 discriminator 3
 1688 004c 90030004 		stw 0,4(3)
 1689              	.LBE3235:
 1690              	.LBE3237:
 1691              		.loc 1 1797 0 discriminator 3
 1692 0050 80010014 		lwz 0,20(1)
 1693              	.LVL131:
 1694 0054 83C10008 		lwz 30,8(1)
 1695              	.LVL132:
 1696 0058 7C0803A6 		mtlr 0
 1697 005c 83E1000C 		lwz 31,12(1)
 1698              	.LVL133:
 1699              	.LBB3238:
 1700              	.LBB3236:
 1701              		.loc 1 1778 0 discriminator 3
 1702 0060 91430000 		stw 10,0(3)
 1703              	.LBE3236:
 1704              	.LBE3238:
 1705              		.loc 1 1797 0 discriminator 3
 1706 0064 38210010 		addi 1,1,16
 1707              	.LCFI35:
 1708              		.cfi_def_cfa_offset 0
 1709              		.cfi_restore 31
 1710              		.cfi_restore 30
 1711 0068 4E800020 		blr
 1712              		.cfi_endproc
 1713              	.LFE2558:
 1714              		.size	_ZN7sigslot12_connection3I7TaskBarP9GuiButtoniRK6_POINTNS_15single_threadedEE9duplicateEPNS_
 1715              		.section	.text._ZN7sigslot12_connection2I8MainMenuP7TaskBariNS_15single_threadedEE9duplicateEPNS_9
 1716              		.align 2
 1717              		.weak	_ZN7sigslot12_connection2I8MainMenuP7TaskBariNS_15single_threadedEE9duplicateEPNS_9has_slots
 1718              		.type	_ZN7sigslot12_connection2I8MainMenuP7TaskBariNS_15single_threadedEE9duplicateEPNS_9has_slots
 1719              	_ZN7sigslot12_connection2I8MainMenuP7TaskBariNS_15single_threadedEE9duplicateEPNS_9has_slotsIS4_EE:
 1720              	.LFB2544:
 1721              		.loc 1 1746 0
 1722              		.cfi_startproc
 1723              	.LVL134:
 1724 0000 9421FFF0 		stwu 1,-16(1)
 1725              	.LCFI36:
 1726              		.cfi_def_cfa_offset 16
 1727 0004 7C0802A6 		mflr 0
 1728 0008 93C10008 		stw 30,8(1)
 1729 000c 7C9E2378 		mr 30,4
 1730              		.cfi_offset 30, -8
 1731              		.cfi_register 65, 0
 1732 0010 93E1000C 		stw 31,12(1)
 1733 0014 7C7F1B78 		mr 31,3
 1734              		.cfi_offset 31, -4
 1735              		.loc 1 1748 0
 1736 0018 38600010 		li 3,16
 1737              	.LVL135:
 1738              		.loc 1 1746 0
 1739 001c 90010014 		stw 0,20(1)
 1740              		.loc 1 1748 0
 1741              		.cfi_offset 65, 4
 1742 0020 48000001 		bl _Znwj
 1743              	.LVL136:
 1744 0024 2F9E0000 		cmpwi 7,30,0
 1745 0028 38000000 		li 0,0
 1746 002c 419E0008 		beq- 7,.L116
 1747              		.loc 1 1748 0 is_stmt 0 discriminator 1
 1748 0030 381EFF50 		addi 0,30,-176
 1749              	.L116:
 1750              	.LVL137:
 1751              		.loc 1 1748 0 discriminator 3
 1752 0034 817F0008 		lwz 11,8(31)
 1753              	.LVL138:
 1754              	.LBB3239:
 1755              	.LBB3240:
 1756              		.loc 1 1730 0 is_stmt 1 discriminator 3
 1757 0038 3D400000 		lis 10,_ZTVN7sigslot12_connection2I8MainMenuP7TaskBariNS_15single_threadedEEE+8@ha
 1758              	.LBE3240:
 1759              	.LBE3239:
 1760              		.loc 1 1748 0 discriminator 3
 1761 003c 813F000C 		lwz 9,12(31)
 1762              	.LVL139:
 1763              	.LBB3243:
 1764              	.LBB3241:
 1765              		.loc 1 1730 0 discriminator 3
 1766 0040 394A0008 		la 10,_ZTVN7sigslot12_connection2I8MainMenuP7TaskBariNS_15single_threadedEEE+8@l(10)
 1767              		.loc 1 1732 0 discriminator 3
 1768 0044 91630008 		stw 11,8(3)
 1769 0048 9123000C 		stw 9,12(3)
 1770              		.loc 1 1731 0 discriminator 3
 1771 004c 90030004 		stw 0,4(3)
 1772              	.LBE3241:
 1773              	.LBE3243:
 1774              		.loc 1 1749 0 discriminator 3
 1775 0050 80010014 		lwz 0,20(1)
 1776              	.LVL140:
 1777 0054 83C10008 		lwz 30,8(1)
 1778              	.LVL141:
 1779 0058 7C0803A6 		mtlr 0
 1780 005c 83E1000C 		lwz 31,12(1)
 1781              	.LVL142:
 1782              	.LBB3244:
 1783              	.LBB3242:
 1784              		.loc 1 1730 0 discriminator 3
 1785 0060 91430000 		stw 10,0(3)
 1786              	.LBE3242:
 1787              	.LBE3244:
 1788              		.loc 1 1749 0 discriminator 3
 1789 0064 38210010 		addi 1,1,16
 1790              	.LCFI37:
 1791              		.cfi_def_cfa_offset 0
 1792              		.cfi_restore 31
 1793              		.cfi_restore 30
 1794 0068 4E800020 		blr
 1795              		.cfi_endproc
 1796              	.LFE2544:
 1797              		.size	_ZN7sigslot12_connection2I8MainMenuP7TaskBariNS_15single_threadedEE9duplicateEPNS_9has_slots
 1798              		.section	.text._ZN7sigslot12_connection1I7TaskBariNS_15single_threadedEE9duplicateEPNS_9has_slotsI
 1799              		.align 2
 1800              		.weak	_ZN7sigslot12_connection1I7TaskBariNS_15single_threadedEE9duplicateEPNS_9has_slotsIS2_EE
 1801              		.type	_ZN7sigslot12_connection1I7TaskBariNS_15single_threadedEE9duplicateEPNS_9has_slotsIS2_EE, @f
 1802              	_ZN7sigslot12_connection1I7TaskBariNS_15single_threadedEE9duplicateEPNS_9has_slotsIS2_EE:
 1803              	.LFB2530:
 1804              		.loc 1 1698 0
 1805              		.cfi_startproc
 1806              	.LVL143:
 1807 0000 9421FFF0 		stwu 1,-16(1)
 1808              	.LCFI38:
 1809              		.cfi_def_cfa_offset 16
 1810 0004 7C0802A6 		mflr 0
 1811 0008 93C10008 		stw 30,8(1)
 1812 000c 7C9E2378 		mr 30,4
 1813              		.cfi_offset 30, -8
 1814              		.cfi_register 65, 0
 1815 0010 93E1000C 		stw 31,12(1)
 1816 0014 7C7F1B78 		mr 31,3
 1817              		.cfi_offset 31, -4
 1818              		.loc 1 1700 0
 1819 0018 38600010 		li 3,16
 1820              	.LVL144:
 1821              		.loc 1 1698 0
 1822 001c 90010014 		stw 0,20(1)
 1823              		.loc 1 1700 0
 1824              		.cfi_offset 65, 4
 1825 0020 48000001 		bl _Znwj
 1826              	.LVL145:
 1827 0024 2F9E0000 		cmpwi 7,30,0
 1828 0028 38000000 		li 0,0
 1829 002c 419E0008 		beq- 7,.L119
 1830              		.loc 1 1700 0 is_stmt 0 discriminator 1
 1831 0030 381EFF50 		addi 0,30,-176
 1832              	.L119:
 1833              	.LVL146:
 1834              		.loc 1 1700 0 discriminator 3
 1835 0034 817F0008 		lwz 11,8(31)
 1836              	.LVL147:
 1837              	.LBB3245:
 1838              	.LBB3246:
 1839              		.loc 1 1683 0 is_stmt 1 discriminator 3
 1840 0038 3D400000 		lis 10,_ZTVN7sigslot12_connection1I7TaskBariNS_15single_threadedEEE+8@ha
 1841              	.LBE3246:
 1842              	.LBE3245:
 1843              		.loc 1 1700 0 discriminator 3
 1844 003c 813F000C 		lwz 9,12(31)
 1845              	.LVL148:
 1846              	.LBB3249:
 1847              	.LBB3247:
 1848              		.loc 1 1683 0 discriminator 3
 1849 0040 394A0008 		la 10,_ZTVN7sigslot12_connection1I7TaskBariNS_15single_threadedEEE+8@l(10)
 1850              		.loc 1 1685 0 discriminator 3
 1851 0044 91630008 		stw 11,8(3)
 1852 0048 9123000C 		stw 9,12(3)
 1853              		.loc 1 1684 0 discriminator 3
 1854 004c 90030004 		stw 0,4(3)
 1855              	.LBE3247:
 1856              	.LBE3249:
 1857              		.loc 1 1701 0 discriminator 3
 1858 0050 80010014 		lwz 0,20(1)
 1859              	.LVL149:
 1860 0054 83C10008 		lwz 30,8(1)
 1861              	.LVL150:
 1862 0058 7C0803A6 		mtlr 0
 1863 005c 83E1000C 		lwz 31,12(1)
 1864              	.LVL151:
 1865              	.LBB3250:
 1866              	.LBB3248:
 1867              		.loc 1 1683 0 discriminator 3
 1868 0060 91430000 		stw 10,0(3)
 1869              	.LBE3248:
 1870              	.LBE3250:
 1871              		.loc 1 1701 0 discriminator 3
 1872 0064 38210010 		addi 1,1,16
 1873              	.LCFI39:
 1874              		.cfi_def_cfa_offset 0
 1875              		.cfi_restore 31
 1876              		.cfi_restore 30
 1877 0068 4E800020 		blr
 1878              		.cfi_endproc
 1879              	.LFE2530:
 1880              		.size	_ZN7sigslot12_connection1I7TaskBariNS_15single_threadedEE9duplicateEPNS_9has_slotsIS2_EE, .-
 1881              		.section	.text._ZN7sigslot12_connection2I7TaskBarbbNS_15single_threadedEE9duplicateEPNS_9has_slots
 1882              		.align 2
 1883              		.weak	_ZN7sigslot12_connection2I7TaskBarbbNS_15single_threadedEE9duplicateEPNS_9has_slotsIS2_EE
 1884              		.type	_ZN7sigslot12_connection2I7TaskBarbbNS_15single_threadedEE9duplicateEPNS_9has_slotsIS2_EE, @
 1885              	_ZN7sigslot12_connection2I7TaskBarbbNS_15single_threadedEE9duplicateEPNS_9has_slotsIS2_EE:
 1886              	.LFB2516:
 1887              		.loc 1 1746 0
 1888              		.cfi_startproc
 1889              	.LVL152:
 1890 0000 9421FFF0 		stwu 1,-16(1)
 1891              	.LCFI40:
 1892              		.cfi_def_cfa_offset 16
 1893 0004 7C0802A6 		mflr 0
 1894 0008 93C10008 		stw 30,8(1)
 1895 000c 7C9E2378 		mr 30,4
 1896              		.cfi_offset 30, -8
 1897              		.cfi_register 65, 0
 1898 0010 93E1000C 		stw 31,12(1)
 1899 0014 7C7F1B78 		mr 31,3
 1900              		.cfi_offset 31, -4
 1901              		.loc 1 1748 0
 1902 0018 38600010 		li 3,16
 1903              	.LVL153:
 1904              		.loc 1 1746 0
 1905 001c 90010014 		stw 0,20(1)
 1906              		.loc 1 1748 0
 1907              		.cfi_offset 65, 4
 1908 0020 48000001 		bl _Znwj
 1909              	.LVL154:
 1910 0024 2F9E0000 		cmpwi 7,30,0
 1911 0028 38000000 		li 0,0
 1912 002c 419E0008 		beq- 7,.L122
 1913              		.loc 1 1748 0 is_stmt 0 discriminator 1
 1914 0030 381EFF50 		addi 0,30,-176
 1915              	.L122:
 1916              	.LVL155:
 1917              		.loc 1 1748 0 discriminator 3
 1918 0034 817F0008 		lwz 11,8(31)
 1919              	.LVL156:
 1920              	.LBB3251:
 1921              	.LBB3252:
 1922              		.loc 1 1730 0 is_stmt 1 discriminator 3
 1923 0038 3D400000 		lis 10,_ZTVN7sigslot12_connection2I7TaskBarbbNS_15single_threadedEEE+8@ha
 1924              	.LBE3252:
 1925              	.LBE3251:
 1926              		.loc 1 1748 0 discriminator 3
 1927 003c 813F000C 		lwz 9,12(31)
 1928              	.LVL157:
 1929              	.LBB3255:
 1930              	.LBB3253:
 1931              		.loc 1 1730 0 discriminator 3
 1932 0040 394A0008 		la 10,_ZTVN7sigslot12_connection2I7TaskBarbbNS_15single_threadedEEE+8@l(10)
 1933              		.loc 1 1732 0 discriminator 3
 1934 0044 91630008 		stw 11,8(3)
 1935 0048 9123000C 		stw 9,12(3)
 1936              		.loc 1 1731 0 discriminator 3
 1937 004c 90030004 		stw 0,4(3)
 1938              	.LBE3253:
 1939              	.LBE3255:
 1940              		.loc 1 1749 0 discriminator 3
 1941 0050 80010014 		lwz 0,20(1)
 1942              	.LVL158:
 1943 0054 83C10008 		lwz 30,8(1)
 1944              	.LVL159:
 1945 0058 7C0803A6 		mtlr 0
 1946 005c 83E1000C 		lwz 31,12(1)
 1947              	.LVL160:
 1948              	.LBB3256:
 1949              	.LBB3254:
 1950              		.loc 1 1730 0 discriminator 3
 1951 0060 91430000 		stw 10,0(3)
 1952              	.LBE3254:
 1953              	.LBE3256:
 1954              		.loc 1 1749 0 discriminator 3
 1955 0064 38210010 		addi 1,1,16
 1956              	.LCFI41:
 1957              		.cfi_def_cfa_offset 0
 1958              		.cfi_restore 31
 1959              		.cfi_restore 30
 1960 0068 4E800020 		blr
 1961              		.cfi_endproc
 1962              	.LFE2516:
 1963              		.size	_ZN7sigslot12_connection2I7TaskBarbbNS_15single_threadedEE9duplicateEPNS_9has_slotsIS2_EE, .
 1964              		.section	.text._ZN7sigslot12_connection2I7TaskBarbbNS_15single_threadedEE5cloneEv,"axG",@progbits,
 1965              		.align 2
 1966              		.weak	_ZN7sigslot12_connection2I7TaskBarbbNS_15single_threadedEE5cloneEv
 1967              		.type	_ZN7sigslot12_connection2I7TaskBarbbNS_15single_threadedEE5cloneEv, @function
 1968              	_ZN7sigslot12_connection2I7TaskBarbbNS_15single_threadedEE5cloneEv:
 1969              	.LFB2509:
 1970              		.loc 1 1741 0
 1971              		.cfi_startproc
 1972              	.LVL161:
 1973 0000 9421FFF0 		stwu 1,-16(1)
 1974              	.LCFI42:
 1975              		.cfi_def_cfa_offset 16
 1976 0004 7C0802A6 		mflr 0
 1977 0008 93E1000C 		stw 31,12(1)
 1978 000c 7C7F1B78 		mr 31,3
 1979              		.cfi_offset 31, -4
 1980              		.cfi_register 65, 0
 1981              		.loc 1 1743 0
 1982 0010 38600010 		li 3,16
 1983              	.LVL162:
 1984              		.loc 1 1741 0
 1985 0014 90010014 		stw 0,20(1)
 1986              		.loc 1 1743 0
 1987              		.cfi_offset 65, 4
 1988 0018 48000001 		bl _Znwj
 1989              		.file 4 "d:/Projects/SaveGameManager/savegame-manager-gx/trunk/source/Menu/TaskBar.cpp"
 1990              		.loc 4 407 0
 1991 001c 801F0004 		lwz 0,4(31)
 1992              	.LVL163:
 1993              	.LBB3257:
 1994              	.LBB3258:
 1995              		.loc 1 1719 0
 1996 0020 3D600000 		lis 11,_ZTVN7sigslot12_connection2I7TaskBarbbNS_15single_threadedEEE+8@ha
 1997 0024 396B0008 		la 11,_ZTVN7sigslot12_connection2I7TaskBarbbNS_15single_threadedEEE+8@l(11)
 1998 0028 90030004 		stw 0,4(3)
 1999 002c 91630000 		stw 11,0(3)
 2000 0030 815F0008 		lwz 10,8(31)
 2001 0034 817F000C 		lwz 11,12(31)
 2002 0038 91430008 		stw 10,8(3)
 2003 003c 9163000C 		stw 11,12(3)
 2004              	.LBE3258:
 2005              	.LBE3257:
 2006              		.loc 1 1744 0
 2007 0040 80010014 		lwz 0,20(1)
 2008 0044 83E1000C 		lwz 31,12(1)
 2009              	.LVL164:
 2010 0048 7C0803A6 		mtlr 0
 2011 004c 38210010 		addi 1,1,16
 2012              	.LCFI43:
 2013              		.cfi_def_cfa_offset 0
 2014              		.cfi_restore 31
 2015 0050 4E800020 		blr
 2016              		.cfi_endproc
 2017              	.LFE2509:
 2018              		.size	_ZN7sigslot12_connection2I7TaskBarbbNS_15single_threadedEE5cloneEv, .-_ZN7sigslot12_connecti
 2019              		.section	.text._ZN7sigslot12_connection1I7TaskBariNS_15single_threadedEE5cloneEv,"axG",@progbits,_
 2020              		.align 2
 2021              		.weak	_ZN7sigslot12_connection1I7TaskBariNS_15single_threadedEE5cloneEv
 2022              		.type	_ZN7sigslot12_connection1I7TaskBariNS_15single_threadedEE5cloneEv, @function
 2023              	_ZN7sigslot12_connection1I7TaskBariNS_15single_threadedEE5cloneEv:
 2024              	.LFB2523:
 2025              		.loc 1 1693 0
 2026              		.cfi_startproc
 2027              	.LVL165:
 2028 0000 9421FFF0 		stwu 1,-16(1)
 2029              	.LCFI44:
 2030              		.cfi_def_cfa_offset 16
 2031 0004 7C0802A6 		mflr 0
 2032 0008 93E1000C 		stw 31,12(1)
 2033 000c 7C7F1B78 		mr 31,3
 2034              		.cfi_offset 31, -4
 2035              		.cfi_register 65, 0
 2036              		.loc 1 1695 0
 2037 0010 38600010 		li 3,16
 2038              	.LVL166:
 2039              		.loc 1 1693 0
 2040 0014 90010014 		stw 0,20(1)
 2041              		.loc 1 1695 0
 2042              		.cfi_offset 65, 4
 2043 0018 48000001 		bl _Znwj
 2044              		.loc 4 407 0
 2045 001c 801F0004 		lwz 0,4(31)
 2046              	.LVL167:
 2047              	.LBB3259:
 2048              	.LBB3260:
 2049              		.loc 1 1673 0
 2050 0020 3D600000 		lis 11,_ZTVN7sigslot12_connection1I7TaskBariNS_15single_threadedEEE+8@ha
 2051 0024 396B0008 		la 11,_ZTVN7sigslot12_connection1I7TaskBariNS_15single_threadedEEE+8@l(11)
 2052 0028 90030004 		stw 0,4(3)
 2053 002c 91630000 		stw 11,0(3)
 2054 0030 815F0008 		lwz 10,8(31)
 2055 0034 817F000C 		lwz 11,12(31)
 2056 0038 91430008 		stw 10,8(3)
 2057 003c 9163000C 		stw 11,12(3)
 2058              	.LBE3260:
 2059              	.LBE3259:
 2060              		.loc 1 1696 0
 2061 0040 80010014 		lwz 0,20(1)
 2062 0044 83E1000C 		lwz 31,12(1)
 2063              	.LVL168:
 2064 0048 7C0803A6 		mtlr 0
 2065 004c 38210010 		addi 1,1,16
 2066              	.LCFI45:
 2067              		.cfi_def_cfa_offset 0
 2068              		.cfi_restore 31
 2069 0050 4E800020 		blr
 2070              		.cfi_endproc
 2071              	.LFE2523:
 2072              		.size	_ZN7sigslot12_connection1I7TaskBariNS_15single_threadedEE5cloneEv, .-_ZN7sigslot12_connectio
 2073              		.section	.text._ZN7sigslot12_connection2I8MainMenuP7TaskBariNS_15single_threadedEE5cloneEv,"axG",@
 2074              		.align 2
 2075              		.weak	_ZN7sigslot12_connection2I8MainMenuP7TaskBariNS_15single_threadedEE5cloneEv
 2076              		.type	_ZN7sigslot12_connection2I8MainMenuP7TaskBariNS_15single_threadedEE5cloneEv, @function
 2077              	_ZN7sigslot12_connection2I8MainMenuP7TaskBariNS_15single_threadedEE5cloneEv:
 2078              	.LFB2537:
 2079              		.loc 1 1741 0
 2080              		.cfi_startproc
 2081              	.LVL169:
 2082 0000 9421FFF0 		stwu 1,-16(1)
 2083              	.LCFI46:
 2084              		.cfi_def_cfa_offset 16
 2085 0004 7C0802A6 		mflr 0
 2086 0008 93E1000C 		stw 31,12(1)
 2087 000c 7C7F1B78 		mr 31,3
 2088              		.cfi_offset 31, -4
 2089              		.cfi_register 65, 0
 2090              		.loc 1 1743 0
 2091 0010 38600010 		li 3,16
 2092              	.LVL170:
 2093              		.loc 1 1741 0
 2094 0014 90010014 		stw 0,20(1)
 2095              		.loc 1 1743 0
 2096              		.cfi_offset 65, 4
 2097 0018 48000001 		bl _Znwj
 2098              		.loc 4 407 0
 2099 001c 801F0004 		lwz 0,4(31)
 2100              	.LVL171:
 2101              	.LBB3261:
 2102              	.LBB3262:
 2103              		.loc 1 1719 0
 2104 0020 3D600000 		lis 11,_ZTVN7sigslot12_connection2I8MainMenuP7TaskBariNS_15single_threadedEEE+8@ha
 2105 0024 396B0008 		la 11,_ZTVN7sigslot12_connection2I8MainMenuP7TaskBariNS_15single_threadedEEE+8@l(11)
 2106 0028 90030004 		stw 0,4(3)
 2107 002c 91630000 		stw 11,0(3)
 2108 0030 815F0008 		lwz 10,8(31)
 2109 0034 817F000C 		lwz 11,12(31)
 2110 0038 91430008 		stw 10,8(3)
 2111 003c 9163000C 		stw 11,12(3)
 2112              	.LBE3262:
 2113              	.LBE3261:
 2114              		.loc 1 1744 0
 2115 0040 80010014 		lwz 0,20(1)
 2116 0044 83E1000C 		lwz 31,12(1)
 2117              	.LVL172:
 2118 0048 7C0803A6 		mtlr 0
 2119 004c 38210010 		addi 1,1,16
 2120              	.LCFI47:
 2121              		.cfi_def_cfa_offset 0
 2122              		.cfi_restore 31
 2123 0050 4E800020 		blr
 2124              		.cfi_endproc
 2125              	.LFE2537:
 2126              		.size	_ZN7sigslot12_connection2I8MainMenuP7TaskBariNS_15single_threadedEE5cloneEv, .-_ZN7sigslot12
 2127              		.section	.text._ZN7sigslot12_connection3I7TaskBarP9GuiButtoniRK6_POINTNS_15single_threadedEE5clone
 2128              		.align 2
 2129              		.weak	_ZN7sigslot12_connection3I7TaskBarP9GuiButtoniRK6_POINTNS_15single_threadedEE5cloneEv
 2130              		.type	_ZN7sigslot12_connection3I7TaskBarP9GuiButtoniRK6_POINTNS_15single_threadedEE5cloneEv, @func
 2131              	_ZN7sigslot12_connection3I7TaskBarP9GuiButtoniRK6_POINTNS_15single_threadedEE5cloneEv:
 2132              	.LFB2551:
 2133              		.loc 1 1789 0
 2134              		.cfi_startproc
 2135              	.LVL173:
 2136 0000 9421FFF0 		stwu 1,-16(1)
 2137              	.LCFI48:
 2138              		.cfi_def_cfa_offset 16
 2139 0004 7C0802A6 		mflr 0
 2140 0008 93E1000C 		stw 31,12(1)
 2141 000c 7C7F1B78 		mr 31,3
 2142              		.cfi_offset 31, -4
 2143              		.cfi_register 65, 0
 2144              		.loc 1 1791 0
 2145 0010 38600010 		li 3,16
 2146              	.LVL174:
 2147              		.loc 1 1789 0
 2148 0014 90010014 		stw 0,20(1)
 2149              		.loc 1 1791 0
 2150              		.cfi_offset 65, 4
 2151 0018 48000001 		bl _Znwj
 2152              		.loc 4 407 0
 2153 001c 801F0004 		lwz 0,4(31)
 2154              	.LVL175:
 2155              	.LBB3263:
 2156              	.LBB3264:
 2157              		.loc 1 1767 0
 2158 0020 3D600000 		lis 11,_ZTVN7sigslot12_connection3I7TaskBarP9GuiButtoniRK6_POINTNS_15single_threadedEEE+8@ha
 2159 0024 396B0008 		la 11,_ZTVN7sigslot12_connection3I7TaskBarP9GuiButtoniRK6_POINTNS_15single_threadedEEE+8@l(11)
 2160 0028 90030004 		stw 0,4(3)
 2161 002c 91630000 		stw 11,0(3)
 2162 0030 815F0008 		lwz 10,8(31)
 2163 0034 817F000C 		lwz 11,12(31)
 2164 0038 91430008 		stw 10,8(3)
 2165 003c 9163000C 		stw 11,12(3)
 2166              	.LBE3264:
 2167              	.LBE3263:
 2168              		.loc 1 1792 0
 2169 0040 80010014 		lwz 0,20(1)
 2170 0044 83E1000C 		lwz 31,12(1)
 2171              	.LVL176:
 2172 0048 7C0803A6 		mtlr 0
 2173 004c 38210010 		addi 1,1,16
 2174              	.LCFI49:
 2175              		.cfi_def_cfa_offset 0
 2176              		.cfi_restore 31
 2177 0050 4E800020 		blr
 2178              		.cfi_endproc
 2179              	.LFE2551:
 2180              		.size	_ZN7sigslot12_connection3I7TaskBarP9GuiButtoniRK6_POINTNS_15single_threadedEE5cloneEv, .-_ZN
 2181              		.section	.text._ZN7sigslot12_connection3I7TaskBarP9GuiButtoniRK6_POINTNS_15single_threadedEED0Ev,"
 2182              		.align 2
 2183              		.weak	_ZN7sigslot12_connection3I7TaskBarP9GuiButtoniRK6_POINTNS_15single_threadedEED0Ev
 2184              		.type	_ZN7sigslot12_connection3I7TaskBarP9GuiButtoniRK6_POINTNS_15single_threadedEED0Ev, @function
 2185              	_ZN7sigslot12_connection3I7TaskBarP9GuiButtoniRK6_POINTNS_15single_threadedEED0Ev:
 2186              	.LFB2548:
 2187              		.loc 1 1783 0
 2188              		.cfi_startproc
 2189              	.LVL177:
 2190 0000 7C0802A6 		mflr 0
 2191 0004 9421FFF8 		stwu 1,-8(1)
 2192              	.LCFI50:
 2193              		.cfi_def_cfa_offset 8
 2194              		.cfi_register 65, 0
 2195              	.LBB3265:
 2196              	.LBB3266:
 2197              	.LBB3267:
 2198              	.LBB3268:
 2199              	.LBB3269:
 2200              	.LBB3270:
 2201              		.loc 1 387 0
 2202 0008 3D200000 		lis 9,_ZTVN7sigslot17_connection_base3IP9GuiButtoniRK6_POINTNS_15single_threadedEEE+8@ha
 2203              	.LBE3270:
 2204              	.LBE3269:
 2205              	.LBE3268:
 2206              	.LBE3267:
 2207              	.LBE3266:
 2208              	.LBE3265:
 2209              		.loc 1 1783 0
 2210 000c 9001000C 		stw 0,12(1)
 2211              	.LBB3276:
 2212              	.LBB3275:
 2213              	.LBB3274:
 2214              	.LBB3273:
 2215              	.LBB3272:
 2216              	.LBB3271:
 2217              		.loc 1 387 0
 2218 0010 38090008 		la 0,_ZTVN7sigslot17_connection_base3IP9GuiButtoniRK6_POINTNS_15single_threadedEEE+8@l(9)
 2219              		.cfi_offset 65, 4
 2220 0014 90030000 		stw 0,0(3)
 2221              	.LBE3271:
 2222              	.LBE3272:
 2223              	.LBE3273:
 2224              	.LBE3274:
 2225              	.LBE3275:
 2226              	.LBE3276:
 2227              		.loc 1 1786 0
 2228 0018 48000001 		bl _ZdlPv
 2229              	.LVL178:
 2230 001c 8001000C 		lwz 0,12(1)
 2231 0020 38210008 		addi 1,1,8
 2232              	.LCFI51:
 2233              		.cfi_def_cfa_offset 0
 2234 0024 7C0803A6 		mtlr 0
 2235 0028 4E800020 		blr
 2236              		.cfi_endproc
 2237              	.LFE2548:
 2238              		.size	_ZN7sigslot12_connection3I7TaskBarP9GuiButtoniRK6_POINTNS_15single_threadedEED0Ev, .-_ZN7sig
 2239              		.section	.text._ZN7sigslot12_connection2I8MainMenuP7TaskBariNS_15single_threadedEED0Ev,"axG",@prog
 2240              		.align 2
 2241              		.weak	_ZN7sigslot12_connection2I8MainMenuP7TaskBariNS_15single_threadedEED0Ev
 2242              		.type	_ZN7sigslot12_connection2I8MainMenuP7TaskBariNS_15single_threadedEED0Ev, @function
 2243              	_ZN7sigslot12_connection2I8MainMenuP7TaskBariNS_15single_threadedEED0Ev:
 2244              	.LFB2534:
 2245              		.loc 1 1735 0
 2246              		.cfi_startproc
 2247              	.LVL179:
 2248 0000 7C0802A6 		mflr 0
 2249 0004 9421FFF8 		stwu 1,-8(1)
 2250              	.LCFI52:
 2251              		.cfi_def_cfa_offset 8
 2252              		.cfi_register 65, 0
 2253              	.LBB3277:
 2254              	.LBB3278:
 2255              	.LBB3279:
 2256              	.LBB3280:
 2257              	.LBB3281:
 2258              	.LBB3282:
 2259              		.loc 1 376 0
 2260 0008 3D200000 		lis 9,_ZTVN7sigslot17_connection_base2IP7TaskBariNS_15single_threadedEEE+8@ha
 2261              	.LBE3282:
 2262              	.LBE3281:
 2263              	.LBE3280:
 2264              	.LBE3279:
 2265              	.LBE3278:
 2266              	.LBE3277:
 2267              		.loc 1 1735 0
 2268 000c 9001000C 		stw 0,12(1)
 2269              	.LBB3288:
 2270              	.LBB3287:
 2271              	.LBB3286:
 2272              	.LBB3285:
 2273              	.LBB3284:
 2274              	.LBB3283:
 2275              		.loc 1 376 0
 2276 0010 38090008 		la 0,_ZTVN7sigslot17_connection_base2IP7TaskBariNS_15single_threadedEEE+8@l(9)
 2277              		.cfi_offset 65, 4
 2278 0014 90030000 		stw 0,0(3)
 2279              	.LBE3283:
 2280              	.LBE3284:
 2281              	.LBE3285:
 2282              	.LBE3286:
 2283              	.LBE3287:
 2284              	.LBE3288:
 2285              		.loc 1 1738 0
 2286 0018 48000001 		bl _ZdlPv
 2287              	.LVL180:
 2288 001c 8001000C 		lwz 0,12(1)
 2289 0020 38210008 		addi 1,1,8
 2290              	.LCFI53:
 2291              		.cfi_def_cfa_offset 0
 2292 0024 7C0803A6 		mtlr 0
 2293 0028 4E800020 		blr
 2294              		.cfi_endproc
 2295              	.LFE2534:
 2296              		.size	_ZN7sigslot12_connection2I8MainMenuP7TaskBariNS_15single_threadedEED0Ev, .-_ZN7sigslot12_con
 2297              		.section	.text._ZN7sigslot12_connection1I7TaskBariNS_15single_threadedEED0Ev,"axG",@progbits,_ZN7s
 2298              		.align 2
 2299              		.weak	_ZN7sigslot12_connection1I7TaskBariNS_15single_threadedEED0Ev
 2300              		.type	_ZN7sigslot12_connection1I7TaskBariNS_15single_threadedEED0Ev, @function
 2301              	_ZN7sigslot12_connection1I7TaskBariNS_15single_threadedEED0Ev:
 2302              	.LFB2520:
 2303              		.loc 1 1688 0
 2304              		.cfi_startproc
 2305              	.LVL181:
 2306 0000 7C0802A6 		mflr 0
 2307 0004 9421FFF8 		stwu 1,-8(1)
 2308              	.LCFI54:
 2309              		.cfi_def_cfa_offset 8
 2310              		.cfi_register 65, 0
 2311              	.LBB3289:
 2312              	.LBB3290:
 2313              	.LBB3291:
 2314              	.LBB3292:
 2315              	.LBB3293:
 2316              	.LBB3294:
 2317              		.loc 1 365 0
 2318 0008 3D200000 		lis 9,_ZTVN7sigslot17_connection_base1IiNS_15single_threadedEEE+8@ha
 2319              	.LBE3294:
 2320              	.LBE3293:
 2321              	.LBE3292:
 2322              	.LBE3291:
 2323              	.LBE3290:
 2324              	.LBE3289:
 2325              		.loc 1 1688 0
 2326 000c 9001000C 		stw 0,12(1)
 2327              	.LBB3300:
 2328              	.LBB3299:
 2329              	.LBB3298:
 2330              	.LBB3297:
 2331              	.LBB3296:
 2332              	.LBB3295:
 2333              		.loc 1 365 0
 2334 0010 38090008 		la 0,_ZTVN7sigslot17_connection_base1IiNS_15single_threadedEEE+8@l(9)
 2335              		.cfi_offset 65, 4
 2336 0014 90030000 		stw 0,0(3)
 2337              	.LBE3295:
 2338              	.LBE3296:
 2339              	.LBE3297:
 2340              	.LBE3298:
 2341              	.LBE3299:
 2342              	.LBE3300:
 2343              		.loc 1 1691 0
 2344 0018 48000001 		bl _ZdlPv
 2345              	.LVL182:
 2346 001c 8001000C 		lwz 0,12(1)
 2347 0020 38210008 		addi 1,1,8
 2348              	.LCFI55:
 2349              		.cfi_def_cfa_offset 0
 2350 0024 7C0803A6 		mtlr 0
 2351 0028 4E800020 		blr
 2352              		.cfi_endproc
 2353              	.LFE2520:
 2354              		.size	_ZN7sigslot12_connection1I7TaskBariNS_15single_threadedEED0Ev, .-_ZN7sigslot12_connection1I7
 2355              		.section	.text._ZN7sigslot12_connection2I7TaskBarbbNS_15single_threadedEED0Ev,"axG",@progbits,_ZN7
 2356              		.align 2
 2357              		.weak	_ZN7sigslot12_connection2I7TaskBarbbNS_15single_threadedEED0Ev
 2358              		.type	_ZN7sigslot12_connection2I7TaskBarbbNS_15single_threadedEED0Ev, @function
 2359              	_ZN7sigslot12_connection2I7TaskBarbbNS_15single_threadedEED0Ev:
 2360              	.LFB2506:
 2361              		.loc 1 1735 0
 2362              		.cfi_startproc
 2363              	.LVL183:
 2364 0000 7C0802A6 		mflr 0
 2365 0004 9421FFF8 		stwu 1,-8(1)
 2366              	.LCFI56:
 2367              		.cfi_def_cfa_offset 8
 2368              		.cfi_register 65, 0
 2369              	.LBB3301:
 2370              	.LBB3302:
 2371              	.LBB3303:
 2372              	.LBB3304:
 2373              	.LBB3305:
 2374              	.LBB3306:
 2375              		.loc 1 376 0
 2376 0008 3D200000 		lis 9,_ZTVN7sigslot17_connection_base2IbbNS_15single_threadedEEE+8@ha
 2377              	.LBE3306:
 2378              	.LBE3305:
 2379              	.LBE3304:
 2380              	.LBE3303:
 2381              	.LBE3302:
 2382              	.LBE3301:
 2383              		.loc 1 1735 0
 2384 000c 9001000C 		stw 0,12(1)
 2385              	.LBB3312:
 2386              	.LBB3311:
 2387              	.LBB3310:
 2388              	.LBB3309:
 2389              	.LBB3308:
 2390              	.LBB3307:
 2391              		.loc 1 376 0
 2392 0010 38090008 		la 0,_ZTVN7sigslot17_connection_base2IbbNS_15single_threadedEEE+8@l(9)
 2393              		.cfi_offset 65, 4
 2394 0014 90030000 		stw 0,0(3)
 2395              	.LBE3307:
 2396              	.LBE3308:
 2397              	.LBE3309:
 2398              	.LBE3310:
 2399              	.LBE3311:
 2400              	.LBE3312:
 2401              		.loc 1 1738 0
 2402 0018 48000001 		bl _ZdlPv
 2403              	.LVL184:
 2404 001c 8001000C 		lwz 0,12(1)
 2405 0020 38210008 		addi 1,1,8
 2406              	.LCFI57:
 2407              		.cfi_def_cfa_offset 0
 2408 0024 7C0803A6 		mtlr 0
 2409 0028 4E800020 		blr
 2410              		.cfi_endproc
 2411              	.LFE2506:
 2412              		.size	_ZN7sigslot12_connection2I7TaskBarbbNS_15single_threadedEED0Ev, .-_ZN7sigslot12_connection2I
 2413              		.section	.text._ZN7sigslot17_connection_base2IbbNS_15single_threadedEED0Ev,"axG",@progbits,_ZN7sig
 2414              		.align 2
 2415              		.weak	_ZN7sigslot17_connection_base2IbbNS_15single_threadedEED0Ev
 2416              		.type	_ZN7sigslot17_connection_base2IbbNS_15single_threadedEED0Ev, @function
 2417              	_ZN7sigslot17_connection_base2IbbNS_15single_threadedEED0Ev:
 2418              	.LFB2077:
 2419              		.loc 1 376 0
 2420              		.cfi_startproc
 2421              	.LVL185:
 2422 0000 7C0802A6 		mflr 0
 2423 0004 9421FFF8 		stwu 1,-8(1)
 2424              	.LCFI58:
 2425              		.cfi_def_cfa_offset 8
 2426              		.cfi_register 65, 0
 2427              	.LBB3313:
 2428              	.LBB3314:
 2429              	.LBB3315:
 2430 0008 3D200000 		lis 9,_ZTVN7sigslot17_connection_base2IbbNS_15single_threadedEEE+8@ha
 2431              	.LBE3315:
 2432              	.LBE3314:
 2433              	.LBE3313:
 2434 000c 9001000C 		stw 0,12(1)
 2435              	.LBB3318:
 2436              	.LBB3317:
 2437              	.LBB3316:
 2438              		.loc 1 376 0
 2439 0010 38090008 		la 0,_ZTVN7sigslot17_connection_base2IbbNS_15single_threadedEEE+8@l(9)
 2440              		.cfi_offset 65, 4
 2441 0014 90030000 		stw 0,0(3)
 2442              	.LBE3316:
 2443              	.LBE3317:
 2444              	.LBE3318:
 2445 0018 48000001 		bl _ZdlPv
 2446              	.LVL186:
 2447 001c 8001000C 		lwz 0,12(1)
 2448 0020 38210008 		addi 1,1,8
 2449              	.LCFI59:
 2450              		.cfi_def_cfa_offset 0
 2451 0024 7C0803A6 		mtlr 0
 2452 0028 4E800020 		blr
 2453              		.cfi_endproc
 2454              	.LFE2077:
 2455              		.size	_ZN7sigslot17_connection_base2IbbNS_15single_threadedEED0Ev, .-_ZN7sigslot17_connection_base
 2456              		.section	.text._ZN7sigslot17_connection_base1IiNS_15single_threadedEED0Ev,"axG",@progbits,_ZN7sigs
 2457              		.align 2
 2458              		.weak	_ZN7sigslot17_connection_base1IiNS_15single_threadedEED0Ev
 2459              		.type	_ZN7sigslot17_connection_base1IiNS_15single_threadedEED0Ev, @function
 2460              	_ZN7sigslot17_connection_base1IiNS_15single_threadedEED0Ev:
 2461              	.LFB2071:
 2462              		.loc 1 365 0
 2463              		.cfi_startproc
 2464              	.LVL187:
 2465 0000 7C0802A6 		mflr 0
 2466 0004 9421FFF8 		stwu 1,-8(1)
 2467              	.LCFI60:
 2468              		.cfi_def_cfa_offset 8
 2469              		.cfi_register 65, 0
 2470              	.LBB3319:
 2471              	.LBB3320:
 2472              	.LBB3321:
 2473 0008 3D200000 		lis 9,_ZTVN7sigslot17_connection_base1IiNS_15single_threadedEEE+8@ha
 2474              	.LBE3321:
 2475              	.LBE3320:
 2476              	.LBE3319:
 2477 000c 9001000C 		stw 0,12(1)
 2478              	.LBB3324:
 2479              	.LBB3323:
 2480              	.LBB3322:
 2481              		.loc 1 365 0
 2482 0010 38090008 		la 0,_ZTVN7sigslot17_connection_base1IiNS_15single_threadedEEE+8@l(9)
 2483              		.cfi_offset 65, 4
 2484 0014 90030000 		stw 0,0(3)
 2485              	.LBE3322:
 2486              	.LBE3323:
 2487              	.LBE3324:
 2488 0018 48000001 		bl _ZdlPv
 2489              	.LVL188:
 2490 001c 8001000C 		lwz 0,12(1)
 2491 0020 38210008 		addi 1,1,8
 2492              	.LCFI61:
 2493              		.cfi_def_cfa_offset 0
 2494 0024 7C0803A6 		mtlr 0
 2495 0028 4E800020 		blr
 2496              		.cfi_endproc
 2497              	.LFE2071:
 2498              		.size	_ZN7sigslot17_connection_base1IiNS_15single_threadedEED0Ev, .-_ZN7sigslot17_connection_base1
 2499              		.section	.text._ZN7sigslot17_connection_base2IP7TaskBariNS_15single_threadedEED0Ev,"axG",@progbits
 2500              		.align 2
 2501              		.weak	_ZN7sigslot17_connection_base2IP7TaskBariNS_15single_threadedEED0Ev
 2502              		.type	_ZN7sigslot17_connection_base2IP7TaskBariNS_15single_threadedEED0Ev, @function
 2503              	_ZN7sigslot17_connection_base2IP7TaskBariNS_15single_threadedEED0Ev:
 2504              	.LFB2066:
 2505              		.loc 1 376 0
 2506              		.cfi_startproc
 2507              	.LVL189:
 2508 0000 7C0802A6 		mflr 0
 2509 0004 9421FFF8 		stwu 1,-8(1)
 2510              	.LCFI62:
 2511              		.cfi_def_cfa_offset 8
 2512              		.cfi_register 65, 0
 2513              	.LBB3325:
 2514              	.LBB3326:
 2515              	.LBB3327:
 2516 0008 3D200000 		lis 9,_ZTVN7sigslot17_connection_base2IP7TaskBariNS_15single_threadedEEE+8@ha
 2517              	.LBE3327:
 2518              	.LBE3326:
 2519              	.LBE3325:
 2520 000c 9001000C 		stw 0,12(1)
 2521              	.LBB3330:
 2522              	.LBB3329:
 2523              	.LBB3328:
 2524              		.loc 1 376 0
 2525 0010 38090008 		la 0,_ZTVN7sigslot17_connection_base2IP7TaskBariNS_15single_threadedEEE+8@l(9)
 2526              		.cfi_offset 65, 4
 2527 0014 90030000 		stw 0,0(3)
 2528              	.LBE3328:
 2529              	.LBE3329:
 2530              	.LBE3330:
 2531 0018 48000001 		bl _ZdlPv
 2532              	.LVL190:
 2533 001c 8001000C 		lwz 0,12(1)
 2534 0020 38210008 		addi 1,1,8
 2535              	.LCFI63:
 2536              		.cfi_def_cfa_offset 0
 2537 0024 7C0803A6 		mtlr 0
 2538 0028 4E800020 		blr
 2539              		.cfi_endproc
 2540              	.LFE2066:
 2541              		.size	_ZN7sigslot17_connection_base2IP7TaskBariNS_15single_threadedEED0Ev, .-_ZN7sigslot17_connect
 2542              		.section	.text._ZN7sigslot17_connection_base3IP9GuiButtoniRK6_POINTNS_15single_threadedEED0Ev,"axG
 2543              		.align 2
 2544              		.weak	_ZN7sigslot17_connection_base3IP9GuiButtoniRK6_POINTNS_15single_threadedEED0Ev
 2545              		.type	_ZN7sigslot17_connection_base3IP9GuiButtoniRK6_POINTNS_15single_threadedEED0Ev, @function
 2546              	_ZN7sigslot17_connection_base3IP9GuiButtoniRK6_POINTNS_15single_threadedEED0Ev:
 2547              	.LFB2059:
 2548              		.loc 1 387 0
 2549              		.cfi_startproc
 2550              	.LVL191:
 2551 0000 7C0802A6 		mflr 0
 2552 0004 9421FFF8 		stwu 1,-8(1)
 2553              	.LCFI64:
 2554              		.cfi_def_cfa_offset 8
 2555              		.cfi_register 65, 0
 2556              	.LBB3331:
 2557              	.LBB3332:
 2558              	.LBB3333:
 2559 0008 3D200000 		lis 9,_ZTVN7sigslot17_connection_base3IP9GuiButtoniRK6_POINTNS_15single_threadedEEE+8@ha
 2560              	.LBE3333:
 2561              	.LBE3332:
 2562              	.LBE3331:
 2563 000c 9001000C 		stw 0,12(1)
 2564              	.LBB3336:
 2565              	.LBB3335:
 2566              	.LBB3334:
 2567              		.loc 1 387 0
 2568 0010 38090008 		la 0,_ZTVN7sigslot17_connection_base3IP9GuiButtoniRK6_POINTNS_15single_threadedEEE+8@l(9)
 2569              		.cfi_offset 65, 4
 2570 0014 90030000 		stw 0,0(3)
 2571              	.LBE3334:
 2572              	.LBE3335:
 2573              	.LBE3336:
 2574 0018 48000001 		bl _ZdlPv
 2575              	.LVL192:
 2576 001c 8001000C 		lwz 0,12(1)
 2577 0020 38210008 		addi 1,1,8
 2578              	.LCFI65:
 2579              		.cfi_def_cfa_offset 0
 2580 0024 7C0803A6 		mtlr 0
 2581 0028 4E800020 		blr
 2582              		.cfi_endproc
 2583              	.LFE2059:
 2584              		.size	_ZN7sigslot17_connection_base3IP9GuiButtoniRK6_POINTNS_15single_threadedEED0Ev, .-_ZN7sigslo
 2585              		.section	.text._ZN7sigslot12_signal_baseINS_15single_threadedEED0Ev,"axG",@progbits,_ZN7sigslot12_
 2586              		.align 2
 2587              		.weak	_ZN7sigslot12_signal_baseINS_15single_threadedEED0Ev
 2588              		.type	_ZN7sigslot12_signal_baseINS_15single_threadedEED0Ev, @function
 2589              	_ZN7sigslot12_signal_baseINS_15single_threadedEED0Ev:
 2590              	.LFB1817:
 2591              		.loc 1 466 0
 2592              		.cfi_startproc
 2593              	.LVL193:
 2594 0000 7C0802A6 		mflr 0
 2595 0004 9421FFF8 		stwu 1,-8(1)
 2596              	.LCFI66:
 2597              		.cfi_def_cfa_offset 8
 2598              		.cfi_register 65, 0
 2599              	.LBB3337:
 2600              	.LBB3338:
 2601              	.LBB3339:
 2602              	.LBB3340:
 2603              	.LBB3341:
 2604              	.LBB3342:
 2605              		.loc 1 105 0
 2606 0008 3D200000 		lis 9,_ZTVN7sigslot15single_threadedE+8@ha
 2607              	.LBE3342:
 2608              	.LBE3341:
 2609              	.LBE3340:
 2610              	.LBE3339:
 2611              	.LBE3338:
 2612              	.LBE3337:
 2613              		.loc 1 466 0
 2614 000c 9001000C 		stw 0,12(1)
 2615              	.LBB3348:
 2616              	.LBB3347:
 2617              	.LBB3346:
 2618              	.LBB3345:
 2619              	.LBB3344:
 2620              	.LBB3343:
 2621              		.loc 1 105 0
 2622 0010 38090008 		la 0,_ZTVN7sigslot15single_threadedE+8@l(9)
 2623              		.cfi_offset 65, 4
 2624 0014 90030000 		stw 0,0(3)
 2625              	.LBE3343:
 2626              	.LBE3344:
 2627              	.LBE3345:
 2628              	.LBE3346:
 2629              	.LBE3347:
 2630              	.LBE3348:
 2631              		.loc 1 466 0
 2632 0018 48000001 		bl _ZdlPv
 2633              	.LVL194:
 2634 001c 8001000C 		lwz 0,12(1)
 2635 0020 38210008 		addi 1,1,8
 2636              	.LCFI67:
 2637              		.cfi_def_cfa_offset 0
 2638 0024 7C0803A6 		mtlr 0
 2639 0028 4E800020 		blr
 2640              		.cfi_endproc
 2641              	.LFE1817:
 2642              		.size	_ZN7sigslot12_signal_baseINS_15single_threadedEED0Ev, .-_ZN7sigslot12_signal_baseINS_15singl
 2643              		.section	.text._ZN7sigslot15single_threadedD0Ev,"axG",@progbits,_ZN7sigslot15single_threadedD5Ev,c
 2644              		.align 2
 2645              		.weak	_ZN7sigslot15single_threadedD0Ev
 2646              		.type	_ZN7sigslot15single_threadedD0Ev, @function
 2647              	_ZN7sigslot15single_threadedD0Ev:
 2648              	.LFB1150:
 2649              		.loc 1 104 0
 2650              		.cfi_startproc
 2651              	.LVL195:
 2652 0000 7C0802A6 		mflr 0
 2653 0004 9421FFF8 		stwu 1,-8(1)
 2654              	.LCFI68:
 2655              		.cfi_def_cfa_offset 8
 2656              		.cfi_register 65, 0
 2657              	.LBB3349:
 2658              	.LBB3350:
 2659              	.LBB3351:
 2660              		.loc 1 105 0
 2661 0008 3D200000 		lis 9,_ZTVN7sigslot15single_threadedE+8@ha
 2662              	.LBE3351:
 2663              	.LBE3350:
 2664              	.LBE3349:
 2665              		.loc 1 104 0
 2666 000c 9001000C 		stw 0,12(1)
 2667              	.LBB3354:
 2668              	.LBB3353:
 2669              	.LBB3352:
 2670              		.loc 1 105 0
 2671 0010 38090008 		la 0,_ZTVN7sigslot15single_threadedE+8@l(9)
 2672              		.cfi_offset 65, 4
 2673 0014 90030000 		stw 0,0(3)
 2674              	.LBE3352:
 2675              	.LBE3353:
 2676              	.LBE3354:
 2677              		.loc 1 107 0
 2678 0018 48000001 		bl _ZdlPv
 2679              	.LVL196:
 2680 001c 8001000C 		lwz 0,12(1)
 2681 0020 38210008 		addi 1,1,8
 2682              	.LCFI69:
 2683              		.cfi_def_cfa_offset 0
 2684 0024 7C0803A6 		mtlr 0
 2685 0028 4E800020 		blr
 2686              		.cfi_endproc
 2687              	.LFE1150:
 2688              		.size	_ZN7sigslot15single_threadedD0Ev, .-_ZN7sigslot15single_threadedD0Ev
 2689              		.section	.text._ZN7sigslot13_signal_base2IP7TaskBariNS_15single_threadedEE15slot_disconnectEPNS_9h
 2690              		.align 2
 2691              		.weak	_ZN7sigslot13_signal_base2IP7TaskBariNS_15single_threadedEE15slot_disconnectEPNS_9has_slotsI
 2692              		.type	_ZN7sigslot13_signal_base2IP7TaskBariNS_15single_threadedEE15slot_disconnectEPNS_9has_slotsI
 2693              	_ZN7sigslot13_signal_base2IP7TaskBariNS_15single_threadedEE15slot_disconnectEPNS_9has_slotsIS3_EE:
 2694              	.LFB2561:
 2695              		.loc 1 870 0
 2696              		.cfi_startproc
 2697              		.cfi_personality 0,__gxx_personality_v0
 2698              		.cfi_lsda 0,.LLSDA2561
 2699              	.LVL197:
 2700 0000 7C0802A6 		mflr 0
 2701 0004 9421FFE0 		stwu 1,-32(1)
 2702              	.LCFI70:
 2703              		.cfi_def_cfa_offset 32
 2704              		.cfi_register 65, 0
 2705 0008 9361000C 		stw 27,12(1)
 2706 000c 7C7B1B78 		mr 27,3
 2707              		.cfi_offset 27, -20
 2708              	.LVL198:
 2709 0010 90010024 		stw 0,36(1)
 2710 0014 93810010 		stw 28,16(1)
 2711 0018 7C9C2378 		mr 28,4
 2712              		.cfi_offset 28, -16
 2713              		.cfi_offset 65, 4
 2714              	.LBB3355:
 2715              	.LBB3356:
 2716              	.LBB3357:
 2717              		.loc 1 338 0
 2718 001c 81230000 		lwz 9,0(3)
 2719              	.LBE3357:
 2720              	.LBE3356:
 2721              	.LBE3355:
 2722              		.loc 1 870 0
 2723 0020 93A10014 		stw 29,20(1)
 2724              	.LBB3378:
 2725              	.LBB3360:
 2726              	.LBB3358:
 2727              		.loc 4 407 0
 2728 0024 7F7DDB78 		mr 29,27
 2729              		.cfi_offset 29, -12
 2730              		.loc 1 338 0
 2731 0028 80090008 		lwz 0,8(9)
 2732              	.LBE3358:
 2733              	.LBE3360:
 2734              	.LBE3378:
 2735              		.loc 1 870 0
 2736 002c 93E1001C 		stw 31,28(1)
 2737 0030 93C10018 		stw 30,24(1)
 2738              	.LBB3379:
 2739              	.LBB3361:
 2740              	.LBB3359:
 2741              		.loc 1 338 0
 2742 0034 7C0903A6 		mtctr 0
 2743              	.LEHB0:
 2744              		.cfi_offset 30, -8
 2745              		.cfi_offset 31, -4
 2746 0038 4E800421 		bctrl
 2747              	.LEHE0:
 2748              	.LVL199:
 2749              		.loc 4 407 0
 2750 003c 87FD0004 		lwzu 31,4(29)
 2751              	.LVL200:
 2752              	.LBE3359:
 2753              	.LBE3361:
 2754              		.loc 1 876 0
 2755 0040 7F9FE800 		cmpw 7,31,29
 2756 0044 40BE0014 		bne+ 7,.L175
 2757 0048 48000064 		b .L164
 2758              	.LVL201:
 2759              	.L165:
 2760              		.loc 1 876 0 is_stmt 0 discriminator 1
 2761 004c 7F9DF000 		cmpw 7,29,30
 2762 0050 419E005C 		beq- 7,.L164
 2763              	.L173:
 2764              		.loc 1 876 0
 2765 0054 7FDFF378 		mr 31,30
 2766              	.LVL202:
 2767              	.L175:
 2768              	.LBB3362:
 2769              		.loc 1 881 0 is_stmt 1
 2770 0058 807F0008 		lwz 3,8(31)
 2771              	.LBB3363:
 2772              	.LBB3364:
 2773              		.file 5 "d:\\devkitpro\\devkitppc\\bin\\../lib/gcc/powerpc-eabi/4.6.3/../../../../powerpc-eabi/inc
 2774              		.loc 5 154 0
 2775 005c 83DF0000 		lwz 30,0(31)
 2776              	.LVL203:
 2777              	.LBE3364:
 2778              	.LBE3363:
 2779              		.loc 1 881 0
 2780 0060 81230000 		lwz 9,0(3)
 2781 0064 80090008 		lwz 0,8(9)
 2782 0068 7C0903A6 		mtctr 0
 2783              	.LEHB1:
 2784 006c 4E800421 		bctrl
 2785              	.LVL204:
 2786 0070 7F9C1800 		cmpw 7,28,3
 2787 0074 409EFFD8 		bne+ 7,.L165
 2788              	.LVL205:
 2789              		.loc 1 883 0
 2790 0078 807F0008 		lwz 3,8(31)
 2791 007c 2F830000 		cmpwi 7,3,0
 2792 0080 419E0014 		beq- 7,.L166
 2793              		.loc 1 883 0 is_stmt 0 discriminator 1
 2794 0084 81230000 		lwz 9,0(3)
 2795 0088 80090004 		lwz 0,4(9)
 2796 008c 7C0903A6 		mtctr 0
 2797 0090 4E800421 		bctrl
 2798              	.LEHE1:
 2799              	.L166:
 2800              	.LVL206:
 2801              	.LBB3365:
 2802              	.LBB3366:
 2803              	.LBB3367:
 2804              	.LBB3368:
 2805              		.loc 5 1532 0 is_stmt 1
 2806 0094 7FE3FB78 		mr 3,31
 2807 0098 48000001 		bl _ZNSt8__detail15_List_node_base9_M_unhookEv
 2808              	.LVL207:
 2809              	.LBB3369:
 2810              	.LBB3370:
 2811              	.LBB3371:
 2812              		.file 6 "d:\\devkitpro\\devkitppc\\bin\\../lib/gcc/powerpc-eabi/4.6.3/../../../../powerpc-eabi/inc
 2813              		.loc 6 98 0
 2814 009c 7FE3FB78 		mr 3,31
 2815 00a0 48000001 		bl _ZdlPv
 2816              	.LVL208:
 2817              	.LBE3371:
 2818              	.LBE3370:
 2819              	.LBE3369:
 2820              	.LBE3368:
 2821              	.LBE3367:
 2822              	.LBE3366:
 2823              	.LBE3365:
 2824              	.LBE3362:
 2825              		.loc 1 876 0
 2826 00a4 7F9DF000 		cmpw 7,29,30
 2827 00a8 409EFFAC 		bne+ 7,.L173
 2828              	.LVL209:
 2829              	.L164:
 2830              	.LBB3372:
 2831              	.LBB3373:
 2832              	.LBB3374:
 2833              		.loc 1 343 0
 2834 00ac 813B0000 		lwz 9,0(27)
 2835 00b0 7F63DB78 		mr 3,27
 2836 00b4 8009000C 		lwz 0,12(9)
 2837 00b8 7C0903A6 		mtctr 0
 2838              	.LEHB2:
 2839 00bc 4E800421 		bctrl
 2840              	.LEHE2:
 2841              	.LBE3374:
 2842              	.LBE3373:
 2843              	.LBE3372:
 2844              	.LBE3379:
 2845              		.loc 1 890 0
 2846 00c0 80010024 		lwz 0,36(1)
 2847 00c4 8361000C 		lwz 27,12(1)
 2848              	.LVL210:
 2849 00c8 7C0803A6 		mtlr 0
 2850 00cc 83810010 		lwz 28,16(1)
 2851              	.LVL211:
 2852 00d0 83A10014 		lwz 29,20(1)
 2853              	.LVL212:
 2854 00d4 83C10018 		lwz 30,24(1)
 2855 00d8 83E1001C 		lwz 31,28(1)
 2856 00dc 38210020 		addi 1,1,32
 2857              		.cfi_remember_state
 2858              	.LCFI71:
 2859              		.cfi_def_cfa_offset 0
 2860              		.cfi_restore 31
 2861              		.cfi_restore 30
 2862              		.cfi_restore 29
 2863              		.cfi_restore 28
 2864              		.cfi_restore 27
 2865 00e0 4E800020 		blr
 2866              	.LVL213:
 2867              	.L174:
 2868              	.LCFI72:
 2869              		.cfi_restore_state
 2870              	.LBB3380:
 2871              	.LBB3375:
 2872              	.LBB3376:
 2873              	.LBB3377:
 2874              		.loc 1 343 0
 2875 00e4 813B0000 		lwz 9,0(27)
 2876 00e8 7C7F1B78 		mr 31,3
 2877              	.LVL214:
 2878 00ec 7F63DB78 		mr 3,27
 2879 00f0 8009000C 		lwz 0,12(9)
 2880 00f4 7C0903A6 		mtctr 0
 2881 00f8 4E800421 		bctrl
 2882 00fc 7FE3FB78 		mr 3,31
 2883              	.LEHB3:
 2884 0100 48000001 		bl _Unwind_Resume
 2885              	.LEHE3:
 2886              	.LBE3377:
 2887              	.LBE3376:
 2888              	.LBE3375:
 2889              	.LBE3380:
 2890              		.cfi_endproc
 2891              	.LFE2561:
 2892              		.globl __gxx_personality_v0
 2893              		.section	.gcc_except_table,"a",@progbits
 2894              	.LLSDA2561:
 2895 0000 FF       		.byte	0xff
 2896 0001 FF       		.byte	0xff
 2897 0002 01       		.byte	0x1
 2898 0003 13       		.uleb128 .LLSDACSE2561-.LLSDACSB2561
 2899              	.LLSDACSB2561:
 2900 0004 38       		.uleb128 .LEHB0-.LFB2561
 2901 0005 04       		.uleb128 .LEHE0-.LEHB0
 2902 0006 00       		.uleb128 0
 2903 0007 00       		.uleb128 0
 2904 0008 6C       		.uleb128 .LEHB1-.LFB2561
 2905 0009 28       		.uleb128 .LEHE1-.LEHB1
 2906 000a E401     		.uleb128 .L174-.LFB2561
 2907 000c 00       		.uleb128 0
 2908 000d BC01     		.uleb128 .LEHB2-.LFB2561
 2909 000f 04       		.uleb128 .LEHE2-.LEHB2
 2910 0010 00       		.uleb128 0
 2911 0011 00       		.uleb128 0
 2912 0012 8002     		.uleb128 .LEHB3-.LFB2561
 2913 0014 04       		.uleb128 .LEHE3-.LEHB3
 2914 0015 00       		.uleb128 0
 2915 0016 00       		.uleb128 0
 2916              	.LLSDACSE2561:
 2917              		.section	.text._ZN7sigslot13_signal_base2IP7TaskBariNS_15single_threadedEE15slot_disconnectEPNS_9h
 2918              		.size	_ZN7sigslot13_signal_base2IP7TaskBariNS_15single_threadedEE15slot_disconnectEPNS_9has_slotsI
 2919              		.section	.text._ZN16SimpleGuiTriggerD2Ev,"axG",@progbits,_ZN16SimpleGuiTriggerD5Ev,comdat
 2920              		.align 2
 2921              		.weak	_ZN16SimpleGuiTriggerD2Ev
 2922              		.type	_ZN16SimpleGuiTriggerD2Ev, @function
 2923              	_ZN16SimpleGuiTriggerD2Ev:
 2924              	.LFB2500:
 2925              		.file 7 "d:/Projects/SaveGameManager/savegame-manager-gx/trunk/source/Menu/../GUI/gui_trigger.h"
 2926              		.loc 7 91 0
 2927              		.cfi_startproc
 2928              	.LVL215:
 2929 0000 7C0802A6 		mflr 0
 2930 0004 9421FFF8 		stwu 1,-8(1)
 2931              	.LCFI73:
 2932              		.cfi_def_cfa_offset 8
 2933              		.cfi_register 65, 0
 2934              	.LBB3382:
 2935 0008 3D200000 		lis 9,_ZTV16SimpleGuiTrigger+8@ha
 2936              	.LBE3382:
 2937 000c 9001000C 		stw 0,12(1)
 2938              	.LBB3383:
 2939              		.loc 7 91 0
 2940 0010 38090008 		la 0,_ZTV16SimpleGuiTrigger+8@l(9)
 2941              		.cfi_offset 65, 4
 2942 0014 90030000 		stw 0,0(3)
 2943 0018 48000001 		bl _ZN10GuiTriggerD2Ev
 2944              	.LVL216:
 2945              	.LBE3383:
 2946 001c 8001000C 		lwz 0,12(1)
 2947 0020 38210008 		addi 1,1,8
 2948              	.LCFI74:
 2949              		.cfi_def_cfa_offset 0
 2950 0024 7C0803A6 		mtlr 0
 2951 0028 4E800020 		blr
 2952              		.cfi_endproc
 2953              	.LFE2500:
 2954              		.size	_ZN16SimpleGuiTriggerD2Ev, .-_ZN16SimpleGuiTriggerD2Ev
 2955              		.section	".text"
 2956              		.align 2
 2957              		.globl _ZN7TaskBar4DrawEv
 2958              		.type	_ZN7TaskBar4DrawEv, @function
 2959              	_ZN7TaskBar4DrawEv:
 2960              	.LFB1705:
 2961              		.loc 4 369 0
 2962              		.cfi_startproc
 2963              	.LVL217:
 2964 0000 7C0802A6 		mflr 0
 2965 0004 9421FFF0 		stwu 1,-16(1)
 2966              	.LCFI75:
 2967              		.cfi_def_cfa_offset 16
 2968              		.cfi_register 65, 0
 2969 0008 93E1000C 		stw 31,12(1)
 2970 000c 7C7F1B78 		mr 31,3
 2971              		.cfi_offset 31, -4
 2972 0010 90010014 		stw 0,20(1)
 2973              	.LBB3391:
 2974              		.loc 4 370 0
 2975 0014 81230000 		lwz 9,0(3)
 2976 0018 80090034 		lwz 0,52(9)
 2977              		.cfi_offset 65, 4
 2978 001c 7C0903A6 		mtctr 0
 2979 0020 4E800421 		bctrl
 2980              	.LVL218:
 2981 0024 2F830000 		cmpwi 7,3,0
 2982 0028 419E00B8 		beq- 7,.L178
 2983              	.LBE3391:
 2984              	.LBB3392:
 2985              	.LBB3393:
 2986              	.LBB3394:
 2987              		.loc 4 374 0
 2988 002c 807F00E4 		lwz 3,228(31)
 2989 0030 81230000 		lwz 9,0(3)
 2990 0034 800900C0 		lwz 0,192(9)
 2991 0038 7C0903A6 		mtctr 0
 2992 003c 4E800421 		bctrl
 2993              	.LVL219:
 2994 0040 807F00E8 		lwz 3,232(31)
 2995 0044 81230000 		lwz 9,0(3)
 2996 0048 800900C0 		lwz 0,192(9)
 2997 004c 7C0903A6 		mtctr 0
 2998 0050 4E800421 		bctrl
 2999              	.LVL220:
 3000 0054 807F00EC 		lwz 3,236(31)
 3001 0058 81230000 		lwz 9,0(3)
 3002 005c 800900C0 		lwz 0,192(9)
 3003 0060 7C0903A6 		mtctr 0
 3004 0064 4E800421 		bctrl
 3005              	.LVL221:
 3006 0068 807F00F0 		lwz 3,240(31)
 3007 006c 81230000 		lwz 9,0(3)
 3008 0070 800900C0 		lwz 0,192(9)
 3009 0074 7C0903A6 		mtctr 0
 3010 0078 4E800421 		bctrl
 3011              	.LVL222:
 3012              	.LBE3394:
 3013              	.LBB3395:
 3014              		.loc 4 377 0
 3015 007c 807F00F4 		lwz 3,244(31)
 3016 0080 81230000 		lwz 9,0(3)
 3017 0084 800900C0 		lwz 0,192(9)
 3018 0088 7C0903A6 		mtctr 0
 3019 008c 4E800421 		bctrl
 3020              	.LVL223:
 3021 0090 807F00F8 		lwz 3,248(31)
 3022 0094 81230000 		lwz 9,0(3)
 3023 0098 800900C0 		lwz 0,192(9)
 3024 009c 7C0903A6 		mtctr 0
 3025 00a0 4E800421 		bctrl
 3026              	.LVL224:
 3027 00a4 807F00FC 		lwz 3,252(31)
 3028 00a8 81230000 		lwz 9,0(3)
 3029 00ac 800900C0 		lwz 0,192(9)
 3030 00b0 7C0903A6 		mtctr 0
 3031 00b4 4E800421 		bctrl
 3032              	.LVL225:
 3033 00b8 807F0100 		lwz 3,256(31)
 3034 00bc 81230000 		lwz 9,0(3)
 3035 00c0 800900C0 		lwz 0,192(9)
 3036 00c4 7C0903A6 		mtctr 0
 3037 00c8 4E800421 		bctrl
 3038              	.LVL226:
 3039              	.LBE3395:
 3040              		.loc 4 379 0
 3041 00cc 813F0000 		lwz 9,0(31)
 3042 00d0 7FE3FB78 		mr 3,31
 3043 00d4 800900C4 		lwz 0,196(9)
 3044 00d8 7C0903A6 		mtctr 0
 3045 00dc 4E800421 		bctrl
 3046              	.LVL227:
 3047              	.L178:
 3048              	.LBE3393:
 3049              	.LBE3392:
 3050              		.loc 4 380 0
 3051 00e0 80010014 		lwz 0,20(1)
 3052 00e4 83E1000C 		lwz 31,12(1)
 3053              	.LVL228:
 3054 00e8 7C0803A6 		mtlr 0
 3055 00ec 38210010 		addi 1,1,16
 3056              	.LCFI76:
 3057              		.cfi_def_cfa_offset 0
 3058              		.cfi_restore 31
 3059 00f0 4E800020 		blr
 3060              		.cfi_endproc
 3061              	.LFE1705:
 3062              		.size	_ZN7TaskBar4DrawEv, .-_ZN7TaskBar4DrawEv
 3063              		.align 2
 3064              		.globl _ZN7TaskBar14OnDeviceChangeEi
 3065              		.type	_ZN7TaskBar14OnDeviceChangeEi, @function
 3066              	_ZN7TaskBar14OnDeviceChangeEi:
 3067              	.LFB1700:
 3068              		.loc 4 289 0
 3069              		.cfi_startproc
 3070              	.LVL229:
 3071              	.LBB3402:
 3072              		.loc 4 290 0
 3073 00f4 2C040000 		cmpwi 0,4,0
 3074              	.LBE3402:
 3075              		.loc 4 289 0
 3076 00f8 7C0802A6 		mflr 0
 3077 00fc 9421FFF0 		stwu 1,-16(1)
 3078              	.LCFI77:
 3079              		.cfi_def_cfa_offset 16
 3080              		.cfi_register 65, 0
 3081 0100 93E1000C 		stw 31,12(1)
 3082 0104 7C7F1B78 		mr 31,3
 3083              		.cfi_offset 31, -4
 3084 0108 90010014 		stw 0,20(1)
 3085              	.LBB3405:
 3086              		.loc 4 290 0
 3087 010c 41800058 		blt- 0,.L180
 3088              		.cfi_offset 65, 4
 3089              		.loc 4 293 0
 3090 0110 41820094 		beq- 0,.L184
 3091              	.LVL230:
 3092              	.LBB3403:
 3093              		.loc 4 302 0
 3094 0114 2F840001 		cmpwi 7,4,1
 3095 0118 419E0060 		beq- 7,.L183
 3096 011c 2F840002 		cmpwi 7,4,2
 3097 0120 419E0058 		beq- 7,.L183
 3098              	.LVL231:
 3099 0124 2F840003 		cmpwi 7,4,3
 3100 0128 419E0050 		beq- 7,.L183
 3101              	.LVL232:
 3102 012c 2F840004 		cmpwi 7,4,4
 3103 0130 419E0048 		beq- 7,.L183
 3104              	.LVL233:
 3105 0134 2F840005 		cmpwi 7,4,5
 3106 0138 419E0040 		beq- 7,.L183
 3107              	.LVL234:
 3108 013c 2F840006 		cmpwi 7,4,6
 3109 0140 419E0038 		beq- 7,.L183
 3110              	.LVL235:
 3111 0144 2F840007 		cmpwi 7,4,7
 3112 0148 419E0030 		beq- 7,.L183
 3113              	.LVL236:
 3114 014c 2F840008 		cmpwi 7,4,8
 3115 0150 419E0028 		beq- 7,.L183
 3116              	.LVL237:
 3117 0154 2F840009 		cmpwi 7,4,9
 3118 0158 419E0020 		beq- 7,.L183
 3119              	.LVL238:
 3120 015c 2F84000A 		cmpwi 7,4,10
 3121 0160 419E0018 		beq- 7,.L183
 3122              	.LVL239:
 3123              	.L180:
 3124              	.LBE3403:
 3125              	.LBE3405:
 3126              		.loc 4 309 0
 3127 0164 80010014 		lwz 0,20(1)
 3128 0168 83E1000C 		lwz 31,12(1)
 3129 016c 7C0803A6 		mtlr 0
 3130 0170 38210010 		addi 1,1,16
 3131              		.cfi_remember_state
 3132              	.LCFI78:
 3133              		.cfi_def_cfa_offset 0
 3134              		.cfi_restore 31
 3135 0174 4E800020 		blr
 3136              	.L183:
 3137              	.LCFI79:
 3138              		.cfi_restore_state
 3139              	.LBB3406:
 3140              	.LBB3404:
 3141              		.loc 4 304 0
 3142 0178 807F00E4 		lwz 3,228(31)
 3143              	.LVL240:
 3144 017c 809F0110 		lwz 4,272(31)
 3145              	.LVL241:
 3146 0180 48000001 		bl _ZN9GuiButton8SetImageEP8GuiImage
 3147              		.loc 4 305 0
 3148 0184 807F00E4 		lwz 3,228(31)
 3149 0188 809F010C 		lwz 4,268(31)
 3150 018c 48000001 		bl _ZN9GuiButton12SetImageOverEP8GuiImage
 3151              	.LBE3404:
 3152              	.LBE3406:
 3153              		.loc 4 309 0
 3154 0190 80010014 		lwz 0,20(1)
 3155 0194 83E1000C 		lwz 31,12(1)
 3156              	.LVL242:
 3157 0198 7C0803A6 		mtlr 0
 3158 019c 38210010 		addi 1,1,16
 3159              		.cfi_remember_state
 3160              		.cfi_restore 31
 3161              	.LCFI80:
 3162              		.cfi_def_cfa_offset 0
 3163 01a0 4E800020 		blr
 3164              	.LVL243:
 3165              	.L184:
 3166              	.LCFI81:
 3167              		.cfi_restore_state
 3168              	.LBB3407:
 3169              	.LBB3408:
 3170              	.LBB3409:
 3171              		.loc 4 295 0
 3172 01a4 809F0108 		lwz 4,264(31)
 3173              	.LVL244:
 3174 01a8 806300E4 		lwz 3,228(3)
 3175              	.LVL245:
 3176 01ac 48000001 		bl _ZN9GuiButton8SetImageEP8GuiImage
 3177              		.loc 4 296 0
 3178 01b0 807F00E4 		lwz 3,228(31)
 3179 01b4 809F0104 		lwz 4,260(31)
 3180 01b8 48000001 		bl _ZN9GuiButton12SetImageOverEP8GuiImage
 3181              	.LBE3409:
 3182              	.LBE3408:
 3183              	.LBE3407:
 3184              		.loc 4 309 0
 3185 01bc 80010014 		lwz 0,20(1)
 3186 01c0 83E1000C 		lwz 31,12(1)
 3187              	.LVL246:
 3188 01c4 7C0803A6 		mtlr 0
 3189 01c8 38210010 		addi 1,1,16
 3190              		.cfi_restore 31
 3191              	.LCFI82:
 3192              		.cfi_def_cfa_offset 0
 3193 01cc 4E800020 		blr
 3194              		.cfi_endproc
 3195              	.LFE1700:
 3196              		.size	_ZN7TaskBar14OnDeviceChangeEi, .-_ZN7TaskBar14OnDeviceChangeEi
 3197              		.section	.text._ZN16SimpleGuiTriggerD0Ev,"axG",@progbits,_ZN16SimpleGuiTriggerD5Ev,comdat
 3198              		.align 2
 3199              		.weak	_ZN16SimpleGuiTriggerD0Ev
 3200              		.type	_ZN16SimpleGuiTriggerD0Ev, @function
 3201              	_ZN16SimpleGuiTriggerD0Ev:
 3202              	.LFB2502:
 3203              		.loc 7 91 0
 3204              		.cfi_startproc
 3205              	.LVL247:
 3206 0000 7C0802A6 		mflr 0
 3207 0004 9421FFF0 		stwu 1,-16(1)
 3208              	.LCFI83:
 3209              		.cfi_def_cfa_offset 16
 3210              		.cfi_register 65, 0
 3211              	.LBB3413:
 3212              	.LBB3414:
 3213              	.LBB3415:
 3214 0008 3D200000 		lis 9,_ZTV16SimpleGuiTrigger+8@ha
 3215              	.LBE3415:
 3216              	.LBE3414:
 3217              	.LBE3413:
 3218 000c 93E1000C 		stw 31,12(1)
 3219 0010 7C7F1B78 		mr 31,3
 3220              		.cfi_offset 31, -4
 3221              	.LVL248:
 3222 0014 90010014 		stw 0,20(1)
 3223              	.LBB3418:
 3224              	.LBB3417:
 3225              	.LBB3416:
 3226              		.loc 7 91 0
 3227 0018 38090008 		la 0,_ZTV16SimpleGuiTrigger+8@l(9)
 3228              		.cfi_offset 65, 4
 3229 001c 90030000 		stw 0,0(3)
 3230 0020 48000001 		bl _ZN10GuiTriggerD2Ev
 3231              	.LVL249:
 3232              	.LBE3416:
 3233              	.LBE3417:
 3234              	.LBE3418:
 3235 0024 7FE3FB78 		mr 3,31
 3236 0028 48000001 		bl _ZdlPv
 3237 002c 80010014 		lwz 0,20(1)
 3238 0030 83E1000C 		lwz 31,12(1)
 3239              	.LVL250:
 3240 0034 7C0803A6 		mtlr 0
 3241 0038 38210010 		addi 1,1,16
 3242              	.LCFI84:
 3243              		.cfi_def_cfa_offset 0
 3244              		.cfi_restore 31
 3245 003c 4E800020 		blr
 3246              		.cfi_endproc
 3247              	.LFE2502:
 3248              		.size	_ZN16SimpleGuiTriggerD0Ev, .-_ZN16SimpleGuiTriggerD0Ev
 3249              		.section	.text._ZN7sigslot13_signal_base2IP7TaskBariNS_15single_threadedEE14slot_duplicateEPKNS_9h
 3250              		.align 2
 3251              		.weak	_ZN7sigslot13_signal_base2IP7TaskBariNS_15single_threadedEE14slot_duplicateEPKNS_9has_slotsI
 3252              		.type	_ZN7sigslot13_signal_base2IP7TaskBariNS_15single_threadedEE14slot_duplicateEPKNS_9has_slotsI
 3253              	_ZN7sigslot13_signal_base2IP7TaskBariNS_15single_threadedEE14slot_duplicateEPKNS_9has_slotsIS3_EEPS
 3254              	.LFB2562:
 3255              		.loc 1 806 0
 3256              		.cfi_startproc
 3257              		.cfi_personality 0,__gxx_personality_v0
 3258              		.cfi_lsda 0,.LLSDA2562
 3259              	.LVL251:
 3260 0000 7C0802A6 		mflr 0
 3261 0004 9421FFE0 		stwu 1,-32(1)
 3262              	.LCFI85:
 3263              		.cfi_def_cfa_offset 32
 3264              		.cfi_register 65, 0
 3265 0008 93410008 		stw 26,8(1)
 3266 000c 7CBA2B78 		mr 26,5
 3267              		.cfi_offset 26, -24
 3268 0010 90010024 		stw 0,36(1)
 3269 0014 9361000C 		stw 27,12(1)
 3270 0018 7C7B1B78 		mr 27,3
 3271              		.cfi_offset 27, -20
 3272              		.cfi_offset 65, 4
 3273              	.LVL252:
 3274              	.LBB3449:
 3275              	.LBB3450:
 3276              	.LBB3451:
 3277              		.loc 1 338 0
 3278 001c 81230000 		lwz 9,0(3)
 3279              	.LBE3451:
 3280              	.LBE3450:
 3281              	.LBE3449:
 3282              		.loc 1 806 0
 3283 0020 93A10014 		stw 29,20(1)
 3284 0024 7C9D2378 		mr 29,4
 3285              		.cfi_offset 29, -12
 3286              	.LBB3480:
 3287              	.LBB3456:
 3288              	.LBB3452:
 3289              		.loc 1 338 0
 3290 0028 80090008 		lwz 0,8(9)
 3291              	.LBE3452:
 3292              	.LBE3456:
 3293              	.LBE3480:
 3294              		.loc 1 806 0
 3295 002c 93C10018 		stw 30,24(1)
 3296              	.LBB3481:
 3297              	.LBB3457:
 3298              	.LBB3453:
 3299              		.loc 4 407 0
 3300 0030 7F7EDB78 		mr 30,27
 3301              		.cfi_offset 30, -8
 3302              	.LBE3453:
 3303              	.LBE3457:
 3304              	.LBE3481:
 3305              		.loc 1 806 0
 3306 0034 93E1001C 		stw 31,28(1)
 3307              	.LBB3482:
 3308              	.LBB3458:
 3309              	.LBB3454:
 3310              		.loc 1 338 0
 3311 0038 7C0903A6 		mtctr 0
 3312              	.LBE3454:
 3313              	.LBE3458:
 3314              	.LBE3482:
 3315              		.loc 1 806 0
 3316 003c 93810010 		stw 28,16(1)
 3317              	.LEHB4:
 3318              	.LBB3483:
 3319              	.LBB3459:
 3320              	.LBB3455:
 3321              		.loc 1 338 0
 3322              		.cfi_offset 28, -16
 3323              		.cfi_offset 31, -4
 3324 0040 4E800421 		bctrl
 3325              	.LEHE4:
 3326              	.LVL253:
 3327              		.loc 4 407 0
 3328 0044 87FE0004 		lwzu 31,4(30)
 3329              	.LVL254:
 3330              	.LBE3455:
 3331              	.LBE3459:
 3332              		.loc 1 812 0
 3333 0048 7F9FF000 		cmpw 7,31,30
 3334 004c 40BE0014 		bne+ 7,.L198
 3335 0050 48000070 		b .L189
 3336              	.LVL255:
 3337              	.L190:
 3338              	.LBB3460:
 3339              	.LBB3461:
 3340              		.loc 5 154 0
 3341 0054 83FF0000 		lwz 31,0(31)
 3342              	.LVL256:
 3343              	.LBE3461:
 3344              	.LBE3460:
 3345              		.loc 1 812 0
 3346 0058 7F9EF800 		cmpw 7,30,31
 3347 005c 419E0064 		beq- 7,.L189
 3348              	.LVL257:
 3349              	.L198:
 3350              		.loc 1 814 0
 3351 0060 807F0008 		lwz 3,8(31)
 3352 0064 81230000 		lwz 9,0(3)
 3353 0068 80090008 		lwz 0,8(9)
 3354 006c 7C0903A6 		mtctr 0
 3355              	.LEHB5:
 3356 0070 4E800421 		bctrl
 3357 0074 7F9D1800 		cmpw 7,29,3
 3358 0078 409EFFDC 		bne+ 7,.L190
 3359              	.LVL258:
 3360              		.loc 1 816 0
 3361 007c 807F0008 		lwz 3,8(31)
 3362 0080 7F44D378 		mr 4,26
 3363 0084 81230000 		lwz 9,0(3)
 3364 0088 80090014 		lwz 0,20(9)
 3365 008c 7C0903A6 		mtctr 0
 3366 0090 4E800421 		bctrl
 3367 0094 7C7C1B78 		mr 28,3
 3368              	.LVL259:
 3369              	.LBB3463:
 3370              	.LBB3464:
 3371              	.LBB3465:
 3372              	.LBB3466:
 3373              	.LBB3467:
 3374              	.LBB3468:
 3375              	.LBB3469:
 3376              	.LBB3470:
 3377              		.loc 6 92 0
 3378 0098 3860000C 		li 3,12
 3379 009c 48000001 		bl _Znwj
 3380              	.LEHE5:
 3381              	.LVL260:
 3382              	.LBE3470:
 3383              	.LBE3469:
 3384              	.LBE3468:
 3385              	.LBB3471:
 3386              	.LBB3472:
 3387              		.loc 6 108 0 discriminator 1
 3388 00a0 2F83FFF8 		cmpwi 7,3,-8
 3389 00a4 419E0008 		beq- 7,.L192
 3390              		.loc 6 108 0 is_stmt 0
 3391 00a8 93830008 		stw 28,8(3)
 3392              	.L192:
 3393              	.LVL261:
 3394              	.LBE3472:
 3395              	.LBE3471:
 3396              	.LBE3467:
 3397              	.LBE3466:
 3398              		.loc 5 1516 0 is_stmt 1
 3399 00ac 7FC4F378 		mr 4,30
 3400 00b0 48000001 		bl _ZNSt8__detail15_List_node_base7_M_hookEPS0_
 3401              	.LVL262:
 3402              	.LBE3465:
 3403              	.LBE3464:
 3404              	.LBE3463:
 3405              	.LBB3473:
 3406              	.LBB3462:
 3407              		.loc 5 154 0
 3408 00b4 83FF0000 		lwz 31,0(31)
 3409              	.LVL263:
 3410              	.LBE3462:
 3411              	.LBE3473:
 3412              		.loc 1 812 0
 3413 00b8 7F9EF800 		cmpw 7,30,31
 3414 00bc 409EFFA4 		bne+ 7,.L198
 3415              	.LVL264:
 3416              	.L189:
 3417              	.LBB3474:
 3418              	.LBB3475:
 3419              	.LBB3476:
 3420              		.loc 1 343 0
 3421 00c0 813B0000 		lwz 9,0(27)
 3422 00c4 7F63DB78 		mr 3,27
 3423 00c8 8009000C 		lwz 0,12(9)
 3424 00cc 7C0903A6 		mtctr 0
 3425              	.LEHB6:
 3426 00d0 4E800421 		bctrl
 3427              	.LEHE6:
 3428              	.LBE3476:
 3429              	.LBE3475:
 3430              	.LBE3474:
 3431              	.LBE3483:
 3432              		.loc 1 821 0
 3433 00d4 80010024 		lwz 0,36(1)
 3434 00d8 83410008 		lwz 26,8(1)
 3435              	.LVL265:
 3436 00dc 7C0803A6 		mtlr 0
 3437 00e0 8361000C 		lwz 27,12(1)
 3438              	.LVL266:
 3439 00e4 83810010 		lwz 28,16(1)
 3440 00e8 83A10014 		lwz 29,20(1)
 3441              	.LVL267:
 3442 00ec 83C10018 		lwz 30,24(1)
 3443              	.LVL268:
 3444 00f0 83E1001C 		lwz 31,28(1)
 3445              	.LVL269:
 3446 00f4 38210020 		addi 1,1,32
 3447              		.cfi_remember_state
 3448              	.LCFI86:
 3449              		.cfi_def_cfa_offset 0
 3450              		.cfi_restore 31
 3451              		.cfi_restore 30
 3452              		.cfi_restore 29
 3453              		.cfi_restore 28
 3454              		.cfi_restore 27
 3455              		.cfi_restore 26
 3456 00f8 4E800020 		blr
 3457              	.LVL270:
 3458              	.L197:
 3459              	.LCFI87:
 3460              		.cfi_restore_state
 3461              	.LBB3484:
 3462              	.LBB3477:
 3463              	.LBB3478:
 3464              	.LBB3479:
 3465              		.loc 1 343 0
 3466 00fc 813B0000 		lwz 9,0(27)
 3467 0100 7C7F1B78 		mr 31,3
 3468              	.LVL271:
 3469 0104 7F63DB78 		mr 3,27
 3470 0108 8009000C 		lwz 0,12(9)
 3471 010c 7C0903A6 		mtctr 0
 3472 0110 4E800421 		bctrl
 3473 0114 7FE3FB78 		mr 3,31
 3474              	.LEHB7:
 3475 0118 48000001 		bl _Unwind_Resume
 3476              	.LEHE7:
 3477              	.LBE3479:
 3478              	.LBE3478:
 3479              	.LBE3477:
 3480              	.LBE3484:
 3481              		.cfi_endproc
 3482              	.LFE2562:
 3483              		.section	.gcc_except_table
 3484              	.LLSDA2562:
 3485 0017 FF       		.byte	0xff
 3486 0018 FF       		.byte	0xff
 3487 0019 01       		.byte	0x1
 3488 001a 13       		.uleb128 .LLSDACSE2562-.LLSDACSB2562
 3489              	.LLSDACSB2562:
 3490 001b 40       		.uleb128 .LEHB4-.LFB2562
 3491 001c 04       		.uleb128 .LEHE4-.LEHB4
 3492 001d 00       		.uleb128 0
 3493 001e 00       		.uleb128 0
 3494 001f 70       		.uleb128 .LEHB5-.LFB2562
 3495 0020 30       		.uleb128 .LEHE5-.LEHB5
 3496 0021 FC01     		.uleb128 .L197-.LFB2562
 3497 0023 00       		.uleb128 0
 3498 0024 D001     		.uleb128 .LEHB6-.LFB2562
 3499 0026 04       		.uleb128 .LEHE6-.LEHB6
 3500 0027 00       		.uleb128 0
 3501 0028 00       		.uleb128 0
 3502 0029 9802     		.uleb128 .LEHB7-.LFB2562
 3503 002b 04       		.uleb128 .LEHE7-.LEHB7
 3504 002c 00       		.uleb128 0
 3505 002d 00       		.uleb128 0
 3506              	.LLSDACSE2562:
 3507              		.section	.text._ZN7sigslot13_signal_base2IP7TaskBariNS_15single_threadedEE14slot_duplicateEPKNS_9h
 3508              		.size	_ZN7sigslot13_signal_base2IP7TaskBariNS_15single_threadedEE14slot_duplicateEPKNS_9has_slotsI
 3509              		.section	".text"
 3510              		.align 2
 3511              		.globl _ZN7TaskBar4hideEv
 3512              		.type	_ZN7TaskBar4hideEv, @function
 3513              	_ZN7TaskBar4hideEv:
 3514              	.LFB1695:
 3515              		.loc 4 228 0
 3516              		.cfi_startproc
 3517              		.cfi_personality 0,__gxx_personality_v0
 3518              		.cfi_lsda 0,.LLSDA1695
 3519              	.LVL272:
 3520 01d0 7C0802A6 		mflr 0
 3521 01d4 9421FFE8 		stwu 1,-24(1)
 3522              	.LCFI88:
 3523              		.cfi_def_cfa_offset 24
 3524              		.cfi_register 65, 0
 3525              		.loc 4 229 0
 3526 01d8 3D200000 		lis 9,_ZN11Application15exitApplicationE@ha
 3527              		.loc 4 228 0
 3528 01dc 93C10010 		stw 30,16(1)
 3529 01e0 7C7E1B78 		mr 30,3
 3530              		.cfi_offset 30, -8
 3531 01e4 9001001C 		stw 0,28(1)
 3532              		.loc 4 229 0
 3533 01e8 88090000 		lbz 0,_ZN11Application15exitApplicationE@l(9)
 3534              		.cfi_offset 65, 4
 3535              		.loc 4 228 0
 3536 01ec 93A1000C 		stw 29,12(1)
 3537              		.loc 4 229 0
 3538 01f0 2F800000 		cmpwi 7,0,0
 3539              		.loc 4 228 0
 3540 01f4 93E10014 		stw 31,20(1)
 3541              		.loc 4 229 0
 3542 01f8 409E007C 		bne- 7,.L201
 3543              		.cfi_offset 31, -4
 3544              		.cfi_offset 29, -12
 3545              		.loc 4 231 0
 3546 01fc 81230000 		lwz 9,0(3)
 3547 0200 38800080 		li 4,128
 3548 0204 38A0FFCE 		li 5,-50
 3549 0208 38C00000 		li 6,0
 3550 020c 80090088 		lwz 0,136(9)
 3551 0210 7C0903A6 		mtctr 0
 3552              	.LEHB8:
 3553 0214 4E800421 		bctrl
 3554              	.LVL273:
 3555              		.loc 4 232 0
 3556 0218 48000018 		b .L202
 3557              	.L203:
 3558              		.loc 4 233 0
 3559 021c 813F0000 		lwz 9,0(31)
 3560 0220 7FE3FB78 		mr 3,31
 3561 0224 800900D8 		lwz 0,216(9)
 3562 0228 7C0903A6 		mtctr 0
 3563 022c 4E800421 		bctrl
 3564              	.L202:
 3565              		.loc 4 232 0 discriminator 1
 3566 0230 813E0000 		lwz 9,0(30)
 3567 0234 7FC3F378 		mr 3,30
 3568 0238 80090098 		lwz 0,152(9)
 3569 023c 7C0903A6 		mtctr 0
 3570 0240 4E800421 		bctrl
 3571 0244 2F830000 		cmpwi 7,3,0
 3572 0248 409D002C 		ble- 7,.L201
 3573              	.LBB3491:
 3574              	.LBB3492:
 3575              		.file 8 "d:/Projects/SaveGameManager/savegame-manager-gx/trunk/source/Menu/../Controls/Application
 3576              		.loc 8 27 0
 3577 024c 3FA00000 		lis 29,_ZN11Application8instanceE@ha
 3578 0250 83FD0000 		lwz 31,_ZN11Application8instanceE@l(29)
 3579 0254 2F9F0000 		cmpwi 7,31,0
 3580 0258 409EFFC4 		bne+ 7,.L203
 3581 025c 38600278 		li 3,632
 3582 0260 48000001 		bl _Znwj
 3583              	.LEHE8:
 3584 0264 7C7F1B78 		mr 31,3
 3585              	.LEHB9:
 3586 0268 48000001 		bl _ZN11ApplicationC1Ev
 3587              	.LEHE9:
 3588 026c 93FD0000 		stw 31,_ZN11Application8instanceE@l(29)
 3589 0270 4BFFFFAC 		b .L203
 3590              	.L201:
 3591              	.LBE3492:
 3592              	.LBE3491:
 3593              	.LBB3493:
 3594              	.LBB3494:
 3595              		.file 9 "d:/Projects/SaveGameManager/savegame-manager-gx/trunk/source/Menu/MainMenu.h"
 3596              		.loc 9 47 0
 3597 0274 3FA00000 		lis 29,_ZN8MainMenu8instanceE@ha
 3598 0278 83FD0000 		lwz 31,_ZN8MainMenu8instanceE@l(29)
 3599 027c 2F9F0000 		cmpwi 7,31,0
 3600 0280 419E002C 		beq- 7,.L211
 3601              	.LBE3494:
 3602              	.LBE3493:
 3603              		.loc 4 236 0
 3604 0284 7FE3FB78 		mr 3,31
 3605 0288 7FC4F378 		mr 4,30
 3606              	.LEHB10:
 3607 028c 48000001 		bl _ZN8GuiFrame6RemoveEP10GuiElement
 3608              		.loc 4 237 0
 3609 0290 8001001C 		lwz 0,28(1)
 3610 0294 83A1000C 		lwz 29,12(1)
 3611 0298 7C0803A6 		mtlr 0
 3612 029c 83C10010 		lwz 30,16(1)
 3613              	.LVL274:
 3614 02a0 83E10014 		lwz 31,20(1)
 3615 02a4 38210018 		addi 1,1,24
 3616              		.cfi_remember_state
 3617              	.LCFI89:
 3618              		.cfi_def_cfa_offset 0
 3619              		.cfi_restore 31
 3620              		.cfi_restore 30
 3621              		.cfi_restore 29
 3622 02a8 4E800020 		blr
 3623              	.LVL275:
 3624              	.L211:
 3625              	.LCFI90:
 3626              		.cfi_restore_state
 3627              	.LBB3498:
 3628              	.LBB3495:
 3629              		.loc 9 47 0
 3630 02ac 386002A8 		li 3,680
 3631 02b0 48000001 		bl _Znwj
 3632              	.LEHE10:
 3633 02b4 7C7F1B78 		mr 31,3
 3634              	.LEHB11:
 3635 02b8 48000001 		bl _ZN8MainMenuC1Ev
 3636              	.LEHE11:
 3637              	.LBE3495:
 3638              	.LBE3498:
 3639              		.loc 4 236 0
 3640 02bc 7FE3FB78 		mr 3,31
 3641 02c0 7FC4F378 		mr 4,30
 3642              	.LBB3499:
 3643              	.LBB3496:
 3644              		.loc 9 47 0
 3645 02c4 93FD0000 		stw 31,_ZN8MainMenu8instanceE@l(29)
 3646              	.LEHB12:
 3647              	.LBE3496:
 3648              	.LBE3499:
 3649              		.loc 4 236 0
 3650 02c8 48000001 		bl _ZN8GuiFrame6RemoveEP10GuiElement
 3651              		.loc 4 237 0
 3652 02cc 8001001C 		lwz 0,28(1)
 3653 02d0 83A1000C 		lwz 29,12(1)
 3654 02d4 7C0803A6 		mtlr 0
 3655 02d8 83C10010 		lwz 30,16(1)
 3656              	.LVL276:
 3657 02dc 83E10014 		lwz 31,20(1)
 3658 02e0 38210018 		addi 1,1,24
 3659              		.cfi_remember_state
 3660              		.cfi_restore 29
 3661              		.cfi_restore 30
 3662              		.cfi_restore 31
 3663              	.LCFI91:
 3664              		.cfi_def_cfa_offset 0
 3665 02e4 4E800020 		blr
 3666              	.LVL277:
 3667              	.L209:
 3668              	.L210:
 3669              	.LCFI92:
 3670              		.cfi_restore_state
 3671 02e8 7C7E1B78 		mr 30,3
 3672              	.LVL278:
 3673              	.LBB3500:
 3674              	.LBB3497:
 3675              		.loc 9 47 0
 3676 02ec 7FE3FB78 		mr 3,31
 3677 02f0 48000001 		bl _ZdlPv
 3678 02f4 7FC3F378 		mr 3,30
 3679 02f8 48000001 		bl _Unwind_Resume
 3680              	.LEHE12:
 3681              	.LVL279:
 3682              	.L208:
 3683 02fc 4BFFFFEC 		b .L210
 3684              	.LBE3497:
 3685              	.LBE3500:
 3686              		.cfi_endproc
 3687              	.LFE1695:
 3688              		.section	.gcc_except_table
 3689              	.LLSDA1695:
 3690 002e FF       		.byte	0xff
 3691 002f FF       		.byte	0xff
 3692 0030 01       		.byte	0x1
 3693 0031 1A       		.uleb128 .LLSDACSE1695-.LLSDACSB1695
 3694              	.LLSDACSB1695:
 3695 0032 44       		.uleb128 .LEHB8-.LFB1695
 3696 0033 50       		.uleb128 .LEHE8-.LEHB8
 3697 0034 00       		.uleb128 0
 3698 0035 00       		.uleb128 0
 3699 0036 9801     		.uleb128 .LEHB9-.LFB1695
 3700 0038 04       		.uleb128 .LEHE9-.LEHB9
 3701 0039 AC02     		.uleb128 .L208-.LFB1695
 3702 003b 00       		.uleb128 0
 3703 003c BC01     		.uleb128 .LEHB10-.LFB1695
 3704 003e 28       		.uleb128 .LEHE10-.LEHB10
 3705 003f 00       		.uleb128 0
 3706 0040 00       		.uleb128 0
 3707 0041 E801     		.uleb128 .LEHB11-.LFB1695
 3708 0043 04       		.uleb128 .LEHE11-.LEHB11
 3709 0044 9802     		.uleb128 .L209-.LFB1695
 3710 0046 00       		.uleb128 0
 3711 0047 F801     		.uleb128 .LEHB12-.LFB1695
 3712 0049 34       		.uleb128 .LEHE12-.LEHB12
 3713 004a 00       		.uleb128 0
 3714 004b 00       		.uleb128 0
 3715              	.LLSDACSE1695:
 3716              		.section	".text"
 3717              		.size	_ZN7TaskBar4hideEv, .-_ZN7TaskBar4hideEv
 3718              		.align 2
 3719              		.globl _ZN7TaskBar4showEv
 3720              		.type	_ZN7TaskBar4showEv, @function
 3721              	_ZN7TaskBar4showEv:
 3722              	.LFB1694:
 3723              		.loc 4 221 0
 3724              		.cfi_startproc
 3725              		.cfi_personality 0,__gxx_personality_v0
 3726              		.cfi_lsda 0,.LLSDA1694
 3727              	.LVL280:
 3728 0300 7C0802A6 		mflr 0
 3729 0304 9421FFE8 		stwu 1,-24(1)
 3730              	.LCFI93:
 3731              		.cfi_def_cfa_offset 24
 3732              		.cfi_register 65, 0
 3733              		.loc 4 222 0
 3734 0308 38800080 		li 4,128
 3735 030c 38A00032 		li 5,50
 3736              		.loc 4 221 0
 3737 0310 93A1000C 		stw 29,12(1)
 3738              		.loc 4 222 0
 3739 0314 38C00000 		li 6,0
 3740              		.loc 4 221 0
 3741 0318 9001001C 		stw 0,28(1)
 3742              	.LBB3503:
 3743              	.LBB3504:
 3744              		.loc 9 47 0
 3745 031c 3FA00000 		lis 29,_ZN8MainMenu8instanceE@ha
 3746              		.cfi_offset 65, 4
 3747              		.cfi_offset 29, -12
 3748              	.LBE3504:
 3749              	.LBE3503:
 3750              		.loc 4 221 0
 3751 0320 93C10010 		stw 30,16(1)
 3752 0324 7C7E1B78 		mr 30,3
 3753              		.cfi_offset 30, -8
 3754              		.loc 4 222 0
 3755 0328 81230000 		lwz 9,0(3)
 3756              		.loc 4 221 0
 3757 032c 93E10014 		stw 31,20(1)
 3758              		.loc 4 222 0
 3759 0330 80090088 		lwz 0,136(9)
 3760 0334 7C0903A6 		mtctr 0
 3761              	.LEHB13:
 3762              		.cfi_offset 31, -4
 3763 0338 4E800421 		bctrl
 3764              	.LVL281:
 3765              	.LBB3509:
 3766              	.LBB3505:
 3767              		.loc 9 47 0
 3768 033c 83FD0000 		lwz 31,_ZN8MainMenu8instanceE@l(29)
 3769 0340 2F9F0000 		cmpwi 7,31,0
 3770 0344 419E002C 		beq- 7,.L216
 3771              	.LBE3505:
 3772              	.LBE3509:
 3773              		.loc 4 224 0
 3774 0348 7FE3FB78 		mr 3,31
 3775 034c 7FC4F378 		mr 4,30
 3776 0350 48000001 		bl _ZN8GuiFrame6AppendEP10GuiElement
 3777              		.loc 4 225 0
 3778 0354 8001001C 		lwz 0,28(1)
 3779 0358 83A1000C 		lwz 29,12(1)
 3780 035c 7C0803A6 		mtlr 0
 3781 0360 83C10010 		lwz 30,16(1)
 3782              	.LVL282:
 3783 0364 83E10014 		lwz 31,20(1)
 3784 0368 38210018 		addi 1,1,24
 3785              		.cfi_remember_state
 3786              	.LCFI94:
 3787              		.cfi_def_cfa_offset 0
 3788              		.cfi_restore 31
 3789              		.cfi_restore 30
 3790              		.cfi_restore 29
 3791 036c 4E800020 		blr
 3792              	.LVL283:
 3793              	.L216:
 3794              	.LCFI95:
 3795              		.cfi_restore_state
 3796              	.LBB3510:
 3797              	.LBB3506:
 3798              		.loc 9 47 0
 3799 0370 386002A8 		li 3,680
 3800 0374 48000001 		bl _Znwj
 3801              	.LEHE13:
 3802 0378 7C7F1B78 		mr 31,3
 3803              	.LEHB14:
 3804 037c 48000001 		bl _ZN8MainMenuC1Ev
 3805              	.LEHE14:
 3806              	.LBE3506:
 3807              	.LBE3510:
 3808              		.loc 4 224 0
 3809 0380 7FE3FB78 		mr 3,31
 3810 0384 7FC4F378 		mr 4,30
 3811              	.LBB3511:
 3812              	.LBB3507:
 3813              		.loc 9 47 0
 3814 0388 93FD0000 		stw 31,_ZN8MainMenu8instanceE@l(29)
 3815              	.LEHB15:
 3816              	.LBE3507:
 3817              	.LBE3511:
 3818              		.loc 4 224 0
 3819 038c 48000001 		bl _ZN8GuiFrame6AppendEP10GuiElement
 3820              		.loc 4 225 0
 3821 0390 8001001C 		lwz 0,28(1)
 3822 0394 83A1000C 		lwz 29,12(1)
 3823 0398 7C0803A6 		mtlr 0
 3824 039c 83C10010 		lwz 30,16(1)
 3825              	.LVL284:
 3826 03a0 83E10014 		lwz 31,20(1)
 3827 03a4 38210018 		addi 1,1,24
 3828              		.cfi_remember_state
 3829              		.cfi_restore 29
 3830              		.cfi_restore 30
 3831              		.cfi_restore 31
 3832              	.LCFI96:
 3833              		.cfi_def_cfa_offset 0
 3834 03a8 4E800020 		blr
 3835              	.LVL285:
 3836              	.L215:
 3837              	.LCFI97:
 3838              		.cfi_restore_state
 3839 03ac 7C7E1B78 		mr 30,3
 3840              	.LVL286:
 3841              	.LBB3512:
 3842              	.LBB3508:
 3843              		.loc 9 47 0
 3844 03b0 7FE3FB78 		mr 3,31
 3845 03b4 48000001 		bl _ZdlPv
 3846 03b8 7FC3F378 		mr 3,30
 3847 03bc 48000001 		bl _Unwind_Resume
 3848              	.LEHE15:
 3849              	.LBE3508:
 3850              	.LBE3512:
 3851              		.cfi_endproc
 3852              	.LFE1694:
 3853              		.section	.gcc_except_table
 3854              	.LLSDA1694:
 3855 004c FF       		.byte	0xff
 3856 004d FF       		.byte	0xff
 3857 004e 01       		.byte	0x1
 3858 004f 0E       		.uleb128 .LLSDACSE1694-.LLSDACSB1694
 3859              	.LLSDACSB1694:
 3860 0050 38       		.uleb128 .LEHB13-.LFB1694
 3861 0051 40       		.uleb128 .LEHE13-.LEHB13
 3862 0052 00       		.uleb128 0
 3863 0053 00       		.uleb128 0
 3864 0054 7C       		.uleb128 .LEHB14-.LFB1694
 3865 0055 04       		.uleb128 .LEHE14-.LEHB14
 3866 0056 AC01     		.uleb128 .L215-.LFB1694
 3867 0058 00       		.uleb128 0
 3868 0059 8C01     		.uleb128 .LEHB15-.LFB1694
 3869 005b 34       		.uleb128 .LEHE15-.LEHB15
 3870 005c 00       		.uleb128 0
 3871 005d 00       		.uleb128 0
 3872              	.LLSDACSE1694:
 3873              		.section	".text"
 3874              		.size	_ZN7TaskBar4showEv, .-_ZN7TaskBar4showEv
 3875              		.align 2
 3876              		.globl _ZN7TaskBar25OnSearchWindowStateChangeEbb
 3877              		.type	_ZN7TaskBar25OnSearchWindowStateChangeEbb, @function
 3878              	_ZN7TaskBar25OnSearchWindowStateChangeEbb:
 3879              	.LFB1701:
 3880              		.loc 4 312 0
 3881              		.cfi_startproc
 3882              	.LVL287:
 3883              		.loc 4 313 0
 3884 03c0 2F840000 		cmpwi 7,4,0
 3885              		.loc 4 312 0
 3886 03c4 7C0802A6 		mflr 0
 3887 03c8 9421FFF0 		stwu 1,-16(1)
 3888              	.LCFI98:
 3889              		.cfi_def_cfa_offset 16
 3890              		.cfi_register 65, 0
 3891 03cc 93E1000C 		stw 31,12(1)
 3892 03d0 7C7F1B78 		mr 31,3
 3893              		.cfi_offset 31, -4
 3894 03d4 90010014 		stw 0,20(1)
 3895              		.loc 4 313 0
 3896 03d8 419E0060 		beq- 7,.L218
 3897              		.cfi_offset 65, 4
 3898              		.loc 4 313 0 is_stmt 0 discriminator 1
 3899 03dc 2F850000 		cmpwi 7,5,0
 3900 03e0 419E008C 		beq- 7,.L223
 3901              	.L219:
 3902              		.loc 4 321 0 is_stmt 1
 3903 03e4 807F00F0 		lwz 3,240(31)
 3904              	.LVL288:
 3905 03e8 81230000 		lwz 9,0(3)
 3906 03ec 80090094 		lwz 0,148(9)
 3907 03f0 7C0903A6 		mtctr 0
 3908 03f4 4E800421 		bctrl
 3909              	.LVL289:
 3910              		.loc 4 322 0
 3911 03f8 807F00F0 		lwz 3,240(31)
 3912 03fc 809F0148 		lwz 4,328(31)
 3913 0400 48000001 		bl _ZN9GuiButton8SetImageEP8GuiImage
 3914              		.loc 4 323 0
 3915 0404 807F00F0 		lwz 3,240(31)
 3916 0408 809F0148 		lwz 4,328(31)
 3917              	.L222:
 3918              	.LBB3517:
 3919              	.LBB3518:
 3920              		.loc 4 334 0
 3921 040c 48000001 		bl _ZN9GuiButton12SetImageOverEP8GuiImage
 3922              		.loc 4 335 0
 3923 0410 807F00F0 		lwz 3,240(31)
 3924 0414 81230000 		lwz 9,0(3)
 3925 0418 80090090 		lwz 0,144(9)
 3926 041c 7C0903A6 		mtctr 0
 3927 0420 4E800421 		bctrl
 3928              	.LBE3518:
 3929              	.LBE3517:
 3930              		.loc 4 328 0
 3931 0424 80010014 		lwz 0,20(1)
 3932 0428 83E1000C 		lwz 31,12(1)
 3933              	.LVL290:
 3934 042c 7C0803A6 		mtlr 0
 3935 0430 38210010 		addi 1,1,16
 3936              		.cfi_remember_state
 3937              	.LCFI99:
 3938              		.cfi_def_cfa_offset 0
 3939              		.cfi_restore 31
 3940 0434 4E800020 		blr
 3941              	.LVL291:
 3942              	.L218:
 3943              	.LCFI100:
 3944              		.cfi_restore_state
 3945              		.loc 4 319 0
 3946 0438 2F850000 		cmpwi 7,5,0
 3947 043c 40BEFFA8 		bne- 7,.L219
 3948              	.LVL292:
 3949              	.LBB3520:
 3950              	.LBB3519:
 3951              		.loc 4 332 0
 3952 0440 806300F0 		lwz 3,240(3)
 3953              	.LVL293:
 3954 0444 81230000 		lwz 9,0(3)
 3955 0448 80090094 		lwz 0,148(9)
 3956 044c 7C0903A6 		mtctr 0
 3957 0450 4E800421 		bctrl
 3958              	.LVL294:
 3959              		.loc 4 333 0
 3960 0454 807F00F0 		lwz 3,240(31)
 3961 0458 809F0148 		lwz 4,328(31)
 3962 045c 48000001 		bl _ZN9GuiButton8SetImageEP8GuiImage
 3963              		.loc 4 334 0
 3964 0460 807F00F0 		lwz 3,240(31)
 3965 0464 809F0144 		lwz 4,324(31)
 3966 0468 4BFFFFA4 		b .L222
 3967              	.LVL295:
 3968              	.L223:
 3969              	.LBE3519:
 3970              	.LBE3520:
 3971              	.LBB3521:
 3972              	.LBB3522:
 3973              		.loc 4 315 0
 3974 046c 806300F0 		lwz 3,240(3)
 3975 0470 38A0000A 		li 5,10
 3976              	.LVL296:
 3977 0474 38C00069 		li 6,105
 3978 0478 38802000 		li 4,8192
 3979              	.LVL297:
 3980 047c 81230000 		lwz 9,0(3)
 3981 0480 80090088 		lwz 0,136(9)
 3982 0484 7C0903A6 		mtctr 0
 3983 0488 4E800421 		bctrl
 3984              		.loc 4 316 0
 3985 048c 807F00F0 		lwz 3,240(31)
 3986 0490 809F0144 		lwz 4,324(31)
 3987 0494 48000001 		bl _ZN9GuiButton8SetImageEP8GuiImage
 3988              		.loc 4 317 0
 3989 0498 807F00F0 		lwz 3,240(31)
 3990 049c 809F0144 		lwz 4,324(31)
 3991 04a0 48000001 		bl _ZN9GuiButton12SetImageOverEP8GuiImage
 3992              	.LBE3522:
 3993              	.LBE3521:
 3994              		.loc 4 328 0
 3995 04a4 80010014 		lwz 0,20(1)
 3996 04a8 83E1000C 		lwz 31,12(1)
 3997              	.LVL298:
 3998 04ac 7C0803A6 		mtlr 0
 3999 04b0 38210010 		addi 1,1,16
 4000              		.cfi_restore 31
 4001              	.LCFI101:
 4002              		.cfi_def_cfa_offset 0
 4003 04b4 4E800020 		blr
 4004              		.cfi_endproc
 4005              	.LFE1701:
 4006              		.size	_ZN7TaskBar25OnSearchWindowStateChangeEbb, .-_ZN7TaskBar25OnSearchWindowStateChangeEbb
 4007              		.align 2
 4008              		.globl _ZN7TaskBar19OnSearchButtonClickEP9GuiButtoniRK6_POINT
 4009              		.type	_ZN7TaskBar19OnSearchButtonClickEP9GuiButtoniRK6_POINT, @function
 4010              	_ZN7TaskBar19OnSearchButtonClickEP9GuiButtoniRK6_POINT:
 4011              	.LFB1699:
 4012              		.loc 4 284 0
 4013              		.cfi_startproc
 4014              		.cfi_personality 0,__gxx_personality_v0
 4015              		.cfi_lsda 0,.LLSDA1699
 4016              	.LVL299:
 4017 04b8 7C0802A6 		mflr 0
 4018 04bc 9421FFE8 		stwu 1,-24(1)
 4019              	.LCFI102:
 4020              		.cfi_def_cfa_offset 24
 4021              		.cfi_register 65, 0
 4022 04c0 93810008 		stw 28,8(1)
 4023              	.LBB3538:
 4024              	.LBB3539:
 4025              		.loc 1 2270 0
 4026 04c4 3B8300CC 		addi 28,3,204
 4027              		.cfi_offset 28, -16
 4028              	.LBE3539:
 4029              	.LBE3538:
 4030              		.loc 4 284 0
 4031 04c8 9001001C 		stw 0,28(1)
 4032 04cc 93A1000C 		stw 29,12(1)
 4033              	.LBB3559:
 4034              	.LBB3554:
 4035              	.LBB3540:
 4036              	.LBB3541:
 4037              		.loc 1 338 0
 4038 04d0 812300CC 		lwz 9,204(3)
 4039              	.LBE3541:
 4040              	.LBE3540:
 4041              	.LBE3554:
 4042              	.LBE3559:
 4043              		.loc 4 284 0
 4044 04d4 93C10010 		stw 30,16(1)
 4045 04d8 7C7E1B78 		mr 30,3
 4046              		.cfi_offset 30, -8
 4047              		.cfi_offset 29, -12
 4048              		.cfi_offset 65, 4
 4049              	.LVL300:
 4050              	.LBB3560:
 4051              	.LBB3555:
 4052              	.LBB3544:
 4053              	.LBB3542:
 4054              		.loc 1 338 0
 4055 04dc 80090008 		lwz 0,8(9)
 4056 04e0 7F83E378 		mr 3,28
 4057              	.LVL301:
 4058              	.LBE3542:
 4059              	.LBE3544:
 4060              	.LBE3555:
 4061              	.LBE3560:
 4062              		.loc 4 284 0
 4063 04e4 93E10014 		stw 31,20(1)
 4064              	.LBB3561:
 4065              		.loc 4 407 0
 4066 04e8 7FDDF378 		mr 29,30
 4067              	.LBB3556:
 4068              	.LBB3545:
 4069              	.LBB3543:
 4070              		.loc 1 338 0
 4071 04ec 7C0903A6 		mtctr 0
 4072              	.LEHB16:
 4073              		.cfi_offset 31, -4
 4074 04f0 4E800421 		bctrl
 4075              	.LEHE16:
 4076              	.LVL302:
 4077              	.LBE3543:
 4078              	.LBE3545:
 4079              	.LBE3556:
 4080              		.loc 4 407 0
 4081 04f4 87FD00D0 		lwzu 31,208(29)
 4082              	.LVL303:
 4083              	.LBB3557:
 4084              		.loc 1 2274 0
 4085 04f8 7F9FE800 		cmpw 7,31,29
 4086 04fc 419E002C 		beq- 7,.L225
 4087              	.LVL304:
 4088              	.L232:
 4089              		.loc 1 2279 0
 4090 0500 807F0008 		lwz 3,8(31)
 4091 0504 7FC4F378 		mr 4,30
 4092 0508 38A00003 		li 5,3
 4093              	.LBB3546:
 4094              	.LBB3547:
 4095              		.loc 5 234 0
 4096 050c 83FF0000 		lwz 31,0(31)
 4097              	.LVL305:
 4098              	.LBE3547:
 4099              	.LBE3546:
 4100              		.loc 1 2279 0
 4101 0510 81230000 		lwz 9,0(3)
 4102 0514 8009000C 		lwz 0,12(9)
 4103 0518 7C0903A6 		mtctr 0
 4104              	.LEHB17:
 4105 051c 4E800421 		bctrl
 4106              	.LEHE17:
 4107              	.LVL306:
 4108              		.loc 1 2274 0
 4109 0520 7F9DF800 		cmpw 7,29,31
 4110 0524 409EFFDC 		bne+ 7,.L232
 4111              	.LVL307:
 4112              	.L225:
 4113              	.LBB3548:
 4114              	.LBB3549:
 4115              	.LBB3550:
 4116              		.loc 1 343 0
 4117 0528 813E00CC 		lwz 9,204(30)
 4118 052c 7F83E378 		mr 3,28
 4119 0530 8009000C 		lwz 0,12(9)
 4120 0534 7C0903A6 		mtctr 0
 4121              	.LEHB18:
 4122 0538 4E800421 		bctrl
 4123              	.LEHE18:
 4124              	.LBE3550:
 4125              	.LBE3549:
 4126              	.LBE3548:
 4127              	.LBE3557:
 4128              	.LBE3561:
 4129              		.loc 4 286 0
 4130 053c 8001001C 		lwz 0,28(1)
 4131 0540 83810008 		lwz 28,8(1)
 4132              	.LVL308:
 4133 0544 7C0803A6 		mtlr 0
 4134 0548 83A1000C 		lwz 29,12(1)
 4135 054c 83C10010 		lwz 30,16(1)
 4136              	.LVL309:
 4137 0550 83E10014 		lwz 31,20(1)
 4138              	.LVL310:
 4139 0554 38210018 		addi 1,1,24
 4140              		.cfi_remember_state
 4141              	.LCFI103:
 4142              		.cfi_def_cfa_offset 0
 4143              		.cfi_restore 31
 4144              		.cfi_restore 30
 4145              		.cfi_restore 29
 4146              		.cfi_restore 28
 4147 0558 4E800020 		blr
 4148              	.LVL311:
 4149              	.L231:
 4150              	.LCFI104:
 4151              		.cfi_restore_state
 4152              	.LBB3562:
 4153              	.LBB3558:
 4154              	.LBB3551:
 4155              	.LBB3552:
 4156              	.LBB3553:
 4157              		.loc 1 343 0
 4158 055c 813E00CC 		lwz 9,204(30)
 4159 0560 7C7F1B78 		mr 31,3
 4160              	.LVL312:
 4161 0564 7F83E378 		mr 3,28
 4162 0568 8009000C 		lwz 0,12(9)
 4163 056c 7C0903A6 		mtctr 0
 4164 0570 4E800421 		bctrl
 4165 0574 7FE3FB78 		mr 3,31
 4166              	.LEHB19:
 4167 0578 48000001 		bl _Unwind_Resume
 4168              	.LEHE19:
 4169              	.LBE3553:
 4170              	.LBE3552:
 4171              	.LBE3551:
 4172              	.LBE3558:
 4173              	.LBE3562:
 4174              		.cfi_endproc
 4175              	.LFE1699:
 4176              		.section	.gcc_except_table
 4177              	.LLSDA1699:
 4178 005e FF       		.byte	0xff
 4179 005f FF       		.byte	0xff
 4180 0060 01       		.byte	0x1
 4181 0061 13       		.uleb128 .LLSDACSE1699-.LLSDACSB1699
 4182              	.LLSDACSB1699:
 4183 0062 38       		.uleb128 .LEHB16-.LFB1699
 4184 0063 04       		.uleb128 .LEHE16-.LEHB16
 4185 0064 00       		.uleb128 0
 4186 0065 00       		.uleb128 0
 4187 0066 64       		.uleb128 .LEHB17-.LFB1699
 4188 0067 04       		.uleb128 .LEHE17-.LEHB17
 4189 0068 A401     		.uleb128 .L231-.LFB1699
 4190 006a 00       		.uleb128 0
 4191 006b 8001     		.uleb128 .LEHB18-.LFB1699
 4192 006d 04       		.uleb128 .LEHE18-.LEHB18
 4193 006e 00       		.uleb128 0
 4194 006f 00       		.uleb128 0
 4195 0070 C001     		.uleb128 .LEHB19-.LFB1699
 4196 0072 04       		.uleb128 .LEHE19-.LEHB19
 4197 0073 00       		.uleb128 0
 4198 0074 00       		.uleb128 0
 4199              	.LLSDACSE1699:
 4200              		.section	".text"
 4201              		.size	_ZN7TaskBar19OnSearchButtonClickEP9GuiButtoniRK6_POINT, .-_ZN7TaskBar19OnSearchButtonClickEP
 4202              		.align 2
 4203              		.globl _ZN7TaskBar17OnLockButtonClickEP9GuiButtoniRK6_POINT
 4204              		.type	_ZN7TaskBar17OnLockButtonClickEP9GuiButtoniRK6_POINT, @function
 4205              	_ZN7TaskBar17OnLockButtonClickEP9GuiButtoniRK6_POINT:
 4206              	.LFB1698:
 4207              		.loc 4 254 0
 4208              		.cfi_startproc
 4209              		.cfi_personality 0,__gxx_personality_v0
 4210              		.cfi_lsda 0,.LLSDA1698
 4211              	.LVL313:
 4212 057c 7C0802A6 		mflr 0
 4213 0580 9421FFE0 		stwu 1,-32(1)
 4214              	.LCFI105:
 4215              		.cfi_def_cfa_offset 32
 4216              		.cfi_register 65, 0
 4217 0584 93E1001C 		stw 31,28(1)
 4218              	.LBB3586:
 4219              		.loc 4 255 0
 4220 0588 3FE00000 		lis 31,Settings@ha
 4221              		.cfi_offset 31, -4
 4222              	.LBE3586:
 4223              		.loc 4 254 0
 4224 058c 90010024 		stw 0,36(1)
 4225              	.LBB3592:
 4226              		.loc 4 255 0
 4227 0590 3BFF0000 		la 31,Settings@l(31)
 4228              	.LBE3592:
 4229              		.loc 4 254 0
 4230 0594 93C10018 		stw 30,24(1)
 4231 0598 7C7E1B78 		mr 30,3
 4232              		.cfi_offset 30, -8
 4233              		.cfi_offset 65, 4
 4234              	.LBB3593:
 4235              		.loc 4 255 0
 4236 059c A81F04EA 		lha 0,1258(31)
 4237              	.LBE3593:
 4238              		.loc 4 254 0
 4239 05a0 9361000C 		stw 27,12(1)
 4240              	.LBB3594:
 4241              		.loc 4 255 0
 4242 05a4 2F800000 		cmpwi 7,0,0
 4243              	.LBE3594:
 4244              		.loc 4 254 0
 4245 05a8 93810010 		stw 28,16(1)
 4246 05ac 93A10014 		stw 29,20(1)
 4247              	.LBB3595:
 4248              		.loc 4 255 0
 4249 05b0 409E005C 		bne- 7,.L234
 4250              		.cfi_offset 29, -12
 4251              		.cfi_offset 28, -16
 4252              		.cfi_offset 27, -20
 4253              	.LBB3587:
 4254              		.loc 4 258 0
 4255 05b4 387F04EC 		addi 3,31,1260
 4256              	.LVL314:
 4257              	.LEHB20:
 4258 05b8 48000001 		bl _Z13PasswordCheckPKc
 4259              	.LVL315:
 4260              		.loc 4 259 0
 4261 05bc 2C030000 		cmpwi 0,3,0
 4262 05c0 40810174 		ble- 0,.L235
 4263              		.loc 4 261 0
 4264 05c4 2F830001 		cmpwi 7,3,1
 4265 05c8 419E0210 		beq- 7,.L249
 4266              	.LVL316:
 4267              	.L236:
 4268              		.loc 4 263 0
 4269 05cc 38000001 		li 0,1
 4270 05d0 B01F04EA 		sth 0,1258(31)
 4271              	.LVL317:
 4272              	.L237:
 4273              	.LBE3587:
 4274              	.LBE3595:
 4275              	.LBB3596:
 4276              	.LBB3597:
 4277              	.LBB3598:
 4278              	.LBB3599:
 4279              		.loc 4 356 0
 4280 05d4 807E00EC 		lwz 3,236(30)
 4281 05d8 809E0140 		lwz 4,320(30)
 4282 05dc 48000001 		bl _ZN9GuiButton8SetImageEP8GuiImage
 4283              		.loc 4 357 0
 4284 05e0 809E013C 		lwz 4,316(30)
 4285 05e4 807E00EC 		lwz 3,236(30)
 4286 05e8 48000001 		bl _ZN9GuiButton12SetImageOverEP8GuiImage
 4287              		.loc 4 358 0
 4288 05ec 3C600000 		lis 3,.LC9@ha
 4289 05f0 83FE00FC 		lwz 31,252(30)
 4290 05f4 38630084 		la 3,.LC9@l(3)
 4291 05f8 48000001 		bl gettext
 4292 05fc 7C641B78 		mr 4,3
 4293 0600 7FE3FB78 		mr 3,31
 4294 0604 48000001 		bl _ZN10GuiTooltip7SetTextEPKc
 4295 0608 480000A4 		b .L240
 4296              	.LVL318:
 4297              	.L234:
 4298              	.LBE3599:
 4299              	.LBE3598:
 4300              	.LBE3597:
 4301              	.LBE3596:
 4302              	.LBB3601:
 4303              	.LBB3588:
 4304              		.loc 4 270 0
 4305 060c 3C600000 		lis 3,.LC9@ha
 4306 0610 38630084 		la 3,.LC9@l(3)
 4307 0614 48000001 		bl gettext
 4308              	.LVL319:
 4309 0618 7C7B1B78 		mr 27,3
 4310 061c 3C600000 		lis 3,.LC10@ha
 4311 0620 38630094 		la 3,.LC10@l(3)
 4312 0624 48000001 		bl gettext
 4313 0628 7C7C1B78 		mr 28,3
 4314 062c 3C600000 		lis 3,.LC11@ha
 4315 0630 386300A4 		la 3,.LC11@l(3)
 4316 0634 48000001 		bl gettext
 4317 0638 7C7D1B78 		mr 29,3
 4318 063c 3C600000 		lis 3,.LC12@ha
 4319 0640 386300A8 		la 3,.LC12@l(3)
 4320 0644 48000001 		bl gettext
 4321 0648 7F84E378 		mr 4,28
 4322 064c 7C661B78 		mr 6,3
 4323 0650 7FA5EB78 		mr 5,29
 4324 0654 7F63DB78 		mr 3,27
 4325 0658 38E00000 		li 7,0
 4326 065c 39000000 		li 8,0
 4327 0660 48000001 		bl _Z12WindowPromptPKcS0_S0_S0_S0_S0_
 4328              	.LVL320:
 4329              		.loc 4 271 0
 4330 0664 2F830001 		cmpwi 7,3,1
 4331 0668 419E011C 		beq- 7,.L250
 4332              	.LVL321:
 4333              	.L238:
 4334              	.LBE3588:
 4335              	.LBE3601:
 4336              	.LBB3602:
 4337              	.LBB3600:
 4338              		.loc 4 354 0
 4339 066c A81F04EA 		lha 0,1258(31)
 4340 0670 2F800000 		cmpwi 7,0,0
 4341 0674 40BEFF60 		bne- 7,.L237
 4342              	.L239:
 4343              		.loc 4 362 0
 4344 0678 807E00EC 		lwz 3,236(30)
 4345 067c 809E0138 		lwz 4,312(30)
 4346 0680 48000001 		bl _ZN9GuiButton8SetImageEP8GuiImage
 4347              		.loc 4 363 0
 4348 0684 809E0134 		lwz 4,308(30)
 4349 0688 807E00EC 		lwz 3,236(30)
 4350 068c 48000001 		bl _ZN9GuiButton12SetImageOverEP8GuiImage
 4351              		.loc 4 364 0
 4352 0690 3C600000 		lis 3,.LC14@ha
 4353 0694 83FE00FC 		lwz 31,252(30)
 4354 0698 386300BC 		la 3,.LC14@l(3)
 4355 069c 48000001 		bl gettext
 4356 06a0 7C641B78 		mr 4,3
 4357 06a4 7FE3FB78 		mr 3,31
 4358 06a8 48000001 		bl _ZN10GuiTooltip7SetTextEPKc
 4359              	.L240:
 4360              	.LVL322:
 4361              	.LBE3600:
 4362              	.LBE3602:
 4363              	.LBB3603:
 4364              	.LBB3604:
 4365              	.LBB3605:
 4366              	.LBB3606:
 4367              		.loc 1 338 0
 4368 06ac 813E00CC 		lwz 9,204(30)
 4369              	.LBE3606:
 4370              	.LBE3605:
 4371              		.loc 1 2270 0
 4372 06b0 3B9E00CC 		addi 28,30,204
 4373              	.LVL323:
 4374              	.LBB3609:
 4375              	.LBB3607:
 4376              		.loc 1 338 0
 4377 06b4 7F83E378 		mr 3,28
 4378              	.LBE3607:
 4379              	.LBE3609:
 4380              	.LBE3604:
 4381              		.loc 4 407 0
 4382 06b8 7FDDF378 		mr 29,30
 4383              	.LBB3619:
 4384              	.LBB3610:
 4385              	.LBB3608:
 4386              		.loc 1 338 0
 4387 06bc 80090008 		lwz 0,8(9)
 4388 06c0 7C0903A6 		mtctr 0
 4389 06c4 4E800421 		bctrl
 4390              	.LEHE20:
 4391              	.LVL324:
 4392              	.LBE3608:
 4393              	.LBE3610:
 4394              	.LBE3619:
 4395              		.loc 4 407 0
 4396 06c8 87FD00D0 		lwzu 31,208(29)
 4397              	.LVL325:
 4398              	.LBB3620:
 4399              		.loc 1 2274 0
 4400 06cc 7F9FE800 		cmpw 7,31,29
 4401 06d0 419E002C 		beq- 7,.L241
 4402              	.LVL326:
 4403              	.L248:
 4404              		.loc 1 2279 0
 4405 06d4 807F0008 		lwz 3,8(31)
 4406 06d8 7FC4F378 		mr 4,30
 4407 06dc 38A00002 		li 5,2
 4408              	.LBB3611:
 4409              	.LBB3612:
 4410              		.loc 5 234 0
 4411 06e0 83FF0000 		lwz 31,0(31)
 4412              	.LVL327:
 4413              	.LBE3612:
 4414              	.LBE3611:
 4415              		.loc 1 2279 0
 4416 06e4 81230000 		lwz 9,0(3)
 4417 06e8 8009000C 		lwz 0,12(9)
 4418 06ec 7C0903A6 		mtctr 0
 4419              	.LEHB21:
 4420 06f0 4E800421 		bctrl
 4421              	.LEHE21:
 4422              	.LVL328:
 4423              		.loc 1 2274 0
 4424 06f4 7F9DF800 		cmpw 7,29,31
 4425 06f8 409EFFDC 		bne+ 7,.L248
 4426              	.LVL329:
 4427              	.L241:
 4428              	.LBB3613:
 4429              	.LBB3614:
 4430              	.LBB3615:
 4431              		.loc 1 343 0
 4432 06fc 813E00CC 		lwz 9,204(30)
 4433 0700 7F83E378 		mr 3,28
 4434 0704 8009000C 		lwz 0,12(9)
 4435 0708 7C0903A6 		mtctr 0
 4436              	.LEHB22:
 4437 070c 4E800421 		bctrl
 4438              	.LBE3615:
 4439              	.LBE3614:
 4440              	.LBE3613:
 4441              	.LBE3620:
 4442              	.LBE3603:
 4443              		.loc 4 281 0
 4444 0710 80010024 		lwz 0,36(1)
 4445 0714 8361000C 		lwz 27,12(1)
 4446 0718 7C0803A6 		mtlr 0
 4447 071c 83810010 		lwz 28,16(1)
 4448 0720 83A10014 		lwz 29,20(1)
 4449 0724 83C10018 		lwz 30,24(1)
 4450              	.LVL330:
 4451 0728 83E1001C 		lwz 31,28(1)
 4452              	.LVL331:
 4453 072c 38210020 		addi 1,1,32
 4454              		.cfi_remember_state
 4455              	.LCFI106:
 4456              		.cfi_def_cfa_offset 0
 4457              		.cfi_restore 31
 4458              		.cfi_restore 30
 4459              		.cfi_restore 29
 4460              		.cfi_restore 28
 4461              		.cfi_restore 27
 4462 0730 4E800020 		blr
 4463              	.LVL332:
 4464              	.L235:
 4465              	.LCFI107:
 4466              		.cfi_restore_state
 4467              	.LBB3622:
 4468              	.LBB3589:
 4469              		.loc 4 265 0
 4470 0734 4182FF38 		beq+ 0,.L238
 4471              		.loc 4 266 0
 4472 0738 3C600000 		lis 3,.LC7@ha
 4473              	.LVL333:
 4474 073c 38630050 		la 3,.LC7@l(3)
 4475 0740 48000001 		bl gettext
 4476 0744 7C7C1B78 		mr 28,3
 4477 0748 3C600000 		lis 3,.LC8@ha
 4478 074c 38630060 		la 3,.LC8@l(3)
 4479 0750 48000001 		bl gettext
 4480 0754 7C7D1B78 		mr 29,3
 4481 0758 3C600000 		lis 3,.LC6@ha
 4482 075c 3863004C 		la 3,.LC6@l(3)
 4483 0760 48000001 		bl gettext
 4484 0764 7FA4EB78 		mr 4,29
 4485 0768 7C651B78 		mr 5,3
 4486 076c 38C00000 		li 6,0
 4487 0770 7F83E378 		mr 3,28
 4488 0774 38E00000 		li 7,0
 4489 0778 39000000 		li 8,0
 4490 077c 48000001 		bl _Z12WindowPromptPKcS0_S0_S0_S0_S0_
 4491 0780 4BFFFEEC 		b .L238
 4492              	.LVL334:
 4493              	.L250:
 4494              	.LBE3589:
 4495              	.LBB3590:
 4496              		.loc 4 273 0
 4497 0784 3C600000 		lis 3,.LC13@ha
 4498              	.LVL335:
 4499 0788 386300AC 		la 3,.LC13@l(3)
 4500 078c 48000001 		bl gettext
 4501 0790 7C7C1B78 		mr 28,3
 4502 0794 3C600000 		lis 3,.LC8@ha
 4503 0798 38630060 		la 3,.LC8@l(3)
 4504 079c 48000001 		bl gettext
 4505 07a0 7C7D1B78 		mr 29,3
 4506 07a4 3C600000 		lis 3,.LC6@ha
 4507 07a8 3863004C 		la 3,.LC6@l(3)
 4508 07ac 48000001 		bl gettext
 4509 07b0 7FA4EB78 		mr 4,29
 4510 07b4 7C651B78 		mr 5,3
 4511 07b8 38C00000 		li 6,0
 4512 07bc 7F83E378 		mr 3,28
 4513 07c0 38E00000 		li 7,0
 4514 07c4 39000000 		li 8,0
 4515 07c8 48000001 		bl _Z12WindowPromptPKcS0_S0_S0_S0_S0_
 4516              		.loc 4 274 0
 4517 07cc 38000000 		li 0,0
 4518 07d0 B01F04EA 		sth 0,1258(31)
 4519              	.LVL336:
 4520 07d4 4BFFFEA4 		b .L239
 4521              	.LVL337:
 4522              	.L249:
 4523              	.LBE3590:
 4524              	.LBB3591:
 4525              		.loc 4 262 0
 4526 07d8 3C600000 		lis 3,.LC4@ha
 4527              	.LVL338:
 4528 07dc 38630000 		la 3,.LC4@l(3)
 4529 07e0 48000001 		bl gettext
 4530 07e4 7C7C1B78 		mr 28,3
 4531 07e8 3C600000 		lis 3,.LC5@ha
 4532 07ec 38630014 		la 3,.LC5@l(3)
 4533 07f0 48000001 		bl gettext
 4534 07f4 7C7D1B78 		mr 29,3
 4535 07f8 3C600000 		lis 3,.LC6@ha
 4536 07fc 3863004C 		la 3,.LC6@l(3)
 4537 0800 48000001 		bl gettext
 4538 0804 7FA4EB78 		mr 4,29
 4539 0808 7C651B78 		mr 5,3
 4540 080c 38C00000 		li 6,0
 4541 0810 7F83E378 		mr 3,28
 4542 0814 38E00000 		li 7,0
 4543 0818 39000000 		li 8,0
 4544 081c 48000001 		bl _Z12WindowPromptPKcS0_S0_S0_S0_S0_
 4545              	.LEHE22:
 4546 0820 4BFFFDAC 		b .L236
 4547              	.LVL339:
 4548              	.L247:
 4549              	.LBE3591:
 4550              	.LBE3622:
 4551              	.LBB3623:
 4552              	.LBB3621:
 4553              	.LBB3616:
 4554              	.LBB3617:
 4555              	.LBB3618:
 4556              		.loc 1 343 0
 4557 0824 813E00CC 		lwz 9,204(30)
 4558 0828 7C7F1B78 		mr 31,3
 4559              	.LVL340:
 4560 082c 7F83E378 		mr 3,28
 4561 0830 8009000C 		lwz 0,12(9)
 4562 0834 7C0903A6 		mtctr 0
 4563 0838 4E800421 		bctrl
 4564 083c 7FE3FB78 		mr 3,31
 4565              	.LEHB23:
 4566 0840 48000001 		bl _Unwind_Resume
 4567              	.LEHE23:
 4568              	.LBE3618:
 4569              	.LBE3617:
 4570              	.LBE3616:
 4571              	.LBE3621:
 4572              	.LBE3623:
 4573              		.cfi_endproc
 4574              	.LFE1698:
 4575              		.section	.gcc_except_table
 4576              	.LLSDA1698:
 4577 0075 FF       		.byte	0xff
 4578 0076 FF       		.byte	0xff
 4579 0077 01       		.byte	0x1
 4580 0078 16       		.uleb128 .LLSDACSE1698-.LLSDACSB1698
 4581              	.LLSDACSB1698:
 4582 0079 3C       		.uleb128 .LEHB20-.LFB1698
 4583 007a 9002     		.uleb128 .LEHE20-.LEHB20
 4584 007c 00       		.uleb128 0
 4585 007d 00       		.uleb128 0
 4586 007e F402     		.uleb128 .LEHB21-.LFB1698
 4587 0080 04       		.uleb128 .LEHE21-.LEHB21
 4588 0081 A805     		.uleb128 .L247-.LFB1698
 4589 0083 00       		.uleb128 0
 4590 0084 9003     		.uleb128 .LEHB22-.LFB1698
 4591 0086 9402     		.uleb128 .LEHE22-.LEHB22
 4592 0088 00       		.uleb128 0
 4593 0089 00       		.uleb128 0
 4594 008a C405     		.uleb128 .LEHB23-.LFB1698
 4595 008c 04       		.uleb128 .LEHE23-.LEHB23
 4596 008d 00       		.uleb128 0
 4597 008e 00       		.uleb128 0
 4598              	.LLSDACSE1698:
 4599              		.section	".text"
 4600              		.size	_ZN7TaskBar17OnLockButtonClickEP9GuiButtoniRK6_POINT, .-_ZN7TaskBar17OnLockButtonClickEP9Gui
 4601              		.align 2
 4602              		.globl _ZN7TaskBar17OnModeButtonClickEP9GuiButtoniRK6_POINT
 4603              		.type	_ZN7TaskBar17OnModeButtonClickEP9GuiButtoniRK6_POINT, @function
 4604              	_ZN7TaskBar17OnModeButtonClickEP9GuiButtoniRK6_POINT:
 4605              	.LFB1697:
 4606              		.loc 4 245 0
 4607              		.cfi_startproc
 4608              		.cfi_personality 0,__gxx_personality_v0
 4609              		.cfi_lsda 0,.LLSDA1697
 4610              	.LVL341:
 4611 0844 7C0802A6 		mflr 0
 4612 0848 9421FFE8 		stwu 1,-24(1)
 4613              	.LCFI108:
 4614              		.cfi_def_cfa_offset 24
 4615              		.cfi_register 65, 0
 4616              		.loc 4 246 0
 4617 084c 3D200000 		lis 9,Settings@ha
 4618 0850 39290000 		la 9,Settings@l(9)
 4619              		.loc 4 245 0
 4620 0854 93C10010 		stw 30,16(1)
 4621 0858 9001001C 		stw 0,28(1)
 4622 085c 7C7E1B78 		mr 30,3
 4623              		.cfi_offset 65, 4
 4624              		.cfi_offset 30, -8
 4625 0860 93810008 		stw 28,8(1)
 4626              		.loc 4 246 0
 4627 0864 A8090060 		lha 0,96(9)
 4628              		.loc 4 245 0
 4629 0868 93A1000C 		stw 29,12(1)
 4630              		.loc 4 246 0
 4631 086c 7C000034 		cntlzw 0,0
 4632              		.loc 4 245 0
 4633 0870 93E10014 		stw 31,20(1)
 4634              		.loc 4 246 0
 4635 0874 5400D97E 		srwi 0,0,5
 4636              	.LBB3643:
 4637              	.LBB3644:
 4638              	.LBB3645:
 4639              	.LBB3646:
 4640              		.loc 4 342 0
 4641 0878 806300E8 		lwz 3,232(3)
 4642              	.LVL342:
 4643              	.LBE3646:
 4644              	.LBE3645:
 4645              		.loc 4 340 0
 4646 087c 2F800000 		cmpwi 7,0,0
 4647              	.LBE3644:
 4648              	.LBE3643:
 4649              		.loc 4 246 0
 4650 0880 B0090060 		sth 0,96(9)
 4651              	.LBB3651:
 4652              	.LBB3649:
 4653              		.loc 4 340 0
 4654 0884 419E009C 		beq- 7,.L262
 4655              		.cfi_offset 31, -4
 4656              		.cfi_offset 29, -12
 4657              		.cfi_offset 28, -16
 4658              		.loc 4 347 0
 4659 0888 809E0130 		lwz 4,304(30)
 4660              	.LVL343:
 4661              	.LEHB24:
 4662 088c 48000001 		bl _ZN9GuiButton8SetImageEP8GuiImage
 4663              	.LVL344:
 4664              		.loc 4 348 0
 4665 0890 807E00E8 		lwz 3,232(30)
 4666 0894 809E012C 		lwz 4,300(30)
 4667 0898 48000001 		bl _ZN9GuiButton12SetImageOverEP8GuiImage
 4668              	.L253:
 4669              	.LVL345:
 4670              	.LBE3649:
 4671              	.LBE3651:
 4672              	.LBB3652:
 4673              	.LBB3653:
 4674              	.LBB3654:
 4675              	.LBB3655:
 4676              		.loc 1 338 0
 4677 089c 813E00CC 		lwz 9,204(30)
 4678              	.LBE3655:
 4679              	.LBE3654:
 4680              		.loc 1 2270 0
 4681 08a0 3B9E00CC 		addi 28,30,204
 4682              	.LVL346:
 4683              	.LBB3658:
 4684              	.LBB3656:
 4685              		.loc 1 338 0
 4686 08a4 7F83E378 		mr 3,28
 4687              	.LBE3656:
 4688              	.LBE3658:
 4689              	.LBE3653:
 4690              		.loc 4 407 0
 4691 08a8 7FDDF378 		mr 29,30
 4692              	.LBB3668:
 4693              	.LBB3659:
 4694              	.LBB3657:
 4695              		.loc 1 338 0
 4696 08ac 80090008 		lwz 0,8(9)
 4697 08b0 7C0903A6 		mtctr 0
 4698 08b4 4E800421 		bctrl
 4699              	.LEHE24:
 4700              	.LVL347:
 4701              	.LBE3657:
 4702              	.LBE3659:
 4703              	.LBE3668:
 4704              		.loc 4 407 0
 4705 08b8 87FD00D0 		lwzu 31,208(29)
 4706              	.LVL348:
 4707              	.LBB3669:
 4708              		.loc 1 2274 0
 4709 08bc 7F9FE800 		cmpw 7,31,29
 4710 08c0 419E002C 		beq- 7,.L254
 4711              	.LVL349:
 4712              	.L261:
 4713              		.loc 1 2279 0
 4714 08c4 807F0008 		lwz 3,8(31)
 4715 08c8 7FC4F378 		mr 4,30
 4716 08cc 38A00001 		li 5,1
 4717              	.LBB3660:
 4718              	.LBB3661:
 4719              		.loc 5 234 0
 4720 08d0 83FF0000 		lwz 31,0(31)
 4721              	.LVL350:
 4722              	.LBE3661:
 4723              	.LBE3660:
 4724              		.loc 1 2279 0
 4725 08d4 81230000 		lwz 9,0(3)
 4726 08d8 8009000C 		lwz 0,12(9)
 4727 08dc 7C0903A6 		mtctr 0
 4728              	.LEHB25:
 4729 08e0 4E800421 		bctrl
 4730              	.LEHE25:
 4731              	.LVL351:
 4732              		.loc 1 2274 0
 4733 08e4 7F9DF800 		cmpw 7,29,31
 4734 08e8 409EFFDC 		bne+ 7,.L261
 4735              	.LVL352:
 4736              	.L254:
 4737              	.LBB3662:
 4738              	.LBB3663:
 4739              	.LBB3664:
 4740              		.loc 1 343 0
 4741 08ec 813E00CC 		lwz 9,204(30)
 4742 08f0 7F83E378 		mr 3,28
 4743 08f4 8009000C 		lwz 0,12(9)
 4744 08f8 7C0903A6 		mtctr 0
 4745              	.LEHB26:
 4746 08fc 4E800421 		bctrl
 4747              	.LBE3664:
 4748              	.LBE3663:
 4749              	.LBE3662:
 4750              	.LBE3669:
 4751              	.LBE3652:
 4752              		.loc 4 251 0
 4753 0900 8001001C 		lwz 0,28(1)
 4754 0904 83810008 		lwz 28,8(1)
 4755 0908 7C0803A6 		mtlr 0
 4756 090c 83A1000C 		lwz 29,12(1)
 4757 0910 83C10010 		lwz 30,16(1)
 4758              	.LVL353:
 4759 0914 83E10014 		lwz 31,20(1)
 4760              	.LVL354:
 4761 0918 38210018 		addi 1,1,24
 4762              		.cfi_remember_state
 4763              	.LCFI109:
 4764              		.cfi_def_cfa_offset 0
 4765              		.cfi_restore 31
 4766              		.cfi_restore 30
 4767              		.cfi_restore 29
 4768              		.cfi_restore 28
 4769 091c 4E800020 		blr
 4770              	.LVL355:
 4771              	.L262:
 4772              	.LCFI110:
 4773              		.cfi_restore_state
 4774              	.LBB3671:
 4775              	.LBB3650:
 4776              	.LBB3648:
 4777              	.LBB3647:
 4778              		.loc 4 342 0
 4779 0920 809E0128 		lwz 4,296(30)
 4780              	.LVL356:
 4781 0924 48000001 		bl _ZN9GuiButton8SetImageEP8GuiImage
 4782              	.LVL357:
 4783              		.loc 4 343 0
 4784 0928 807E00E8 		lwz 3,232(30)
 4785 092c 809E0124 		lwz 4,292(30)
 4786 0930 48000001 		bl _ZN9GuiButton12SetImageOverEP8GuiImage
 4787              	.LEHE26:
 4788 0934 4BFFFF68 		b .L253
 4789              	.LVL358:
 4790              	.L260:
 4791              	.LBE3647:
 4792              	.LBE3648:
 4793              	.LBE3650:
 4794              	.LBE3671:
 4795              	.LBB3672:
 4796              	.LBB3670:
 4797              	.LBB3665:
 4798              	.LBB3666:
 4799              	.LBB3667:
 4800              		.loc 1 343 0
 4801 0938 813E00CC 		lwz 9,204(30)
 4802 093c 7C7F1B78 		mr 31,3
 4803              	.LVL359:
 4804 0940 7F83E378 		mr 3,28
 4805 0944 8009000C 		lwz 0,12(9)
 4806 0948 7C0903A6 		mtctr 0
 4807 094c 4E800421 		bctrl
 4808 0950 7FE3FB78 		mr 3,31
 4809              	.LEHB27:
 4810 0954 48000001 		bl _Unwind_Resume
 4811              	.LEHE27:
 4812              	.LBE3667:
 4813              	.LBE3666:
 4814              	.LBE3665:
 4815              	.LBE3670:
 4816              	.LBE3672:
 4817              		.cfi_endproc
 4818              	.LFE1697:
 4819              		.section	.gcc_except_table
 4820              	.LLSDA1697:
 4821 008f FF       		.byte	0xff
 4822 0090 FF       		.byte	0xff
 4823 0091 01       		.byte	0x1
 4824 0092 14       		.uleb128 .LLSDACSE1697-.LLSDACSB1697
 4825              	.LLSDACSB1697:
 4826 0093 48       		.uleb128 .LEHB24-.LFB1697
 4827 0094 2C       		.uleb128 .LEHE24-.LEHB24
 4828 0095 00       		.uleb128 0
 4829 0096 00       		.uleb128 0
 4830 0097 9C01     		.uleb128 .LEHB25-.LFB1697
 4831 0099 04       		.uleb128 .LEHE25-.LEHB25
 4832 009a F401     		.uleb128 .L260-.LFB1697
 4833 009c 00       		.uleb128 0
 4834 009d B801     		.uleb128 .LEHB26-.LFB1697
 4835 009f 38       		.uleb128 .LEHE26-.LEHB26
 4836 00a0 00       		.uleb128 0
 4837 00a1 00       		.uleb128 0
 4838 00a2 9002     		.uleb128 .LEHB27-.LFB1697
 4839 00a4 04       		.uleb128 .LEHE27-.LEHB27
 4840 00a5 00       		.uleb128 0
 4841 00a6 00       		.uleb128 0
 4842              	.LLSDACSE1697:
 4843              		.section	".text"
 4844              		.size	_ZN7TaskBar17OnModeButtonClickEP9GuiButtoniRK6_POINT, .-_ZN7TaskBar17OnModeButtonClickEP9Gui
 4845              		.align 2
 4846              		.globl _ZN7TaskBar19OnDeviceButtonClickEP9GuiButtoniRK6_POINT
 4847              		.type	_ZN7TaskBar19OnDeviceButtonClickEP9GuiButtoniRK6_POINT, @function
 4848              	_ZN7TaskBar19OnDeviceButtonClickEP9GuiButtoniRK6_POINT:
 4849              	.LFB1696:
 4850              		.loc 4 240 0
 4851              		.cfi_startproc
 4852              		.cfi_personality 0,__gxx_personality_v0
 4853              		.cfi_lsda 0,.LLSDA1696
 4854              	.LVL360:
 4855 0958 7C0802A6 		mflr 0
 4856 095c 9421FFE8 		stwu 1,-24(1)
 4857              	.LCFI111:
 4858              		.cfi_def_cfa_offset 24
 4859              		.cfi_register 65, 0
 4860 0960 93810008 		stw 28,8(1)
 4861              	.LBB3688:
 4862              	.LBB3689:
 4863              		.loc 1 2270 0
 4864 0964 3B8300CC 		addi 28,3,204
 4865              		.cfi_offset 28, -16
 4866              	.LBE3689:
 4867              	.LBE3688:
 4868              		.loc 4 240 0
 4869 0968 9001001C 		stw 0,28(1)
 4870 096c 93A1000C 		stw 29,12(1)
 4871              	.LBB3709:
 4872              	.LBB3704:
 4873              	.LBB3690:
 4874              	.LBB3691:
 4875              		.loc 1 338 0
 4876 0970 812300CC 		lwz 9,204(3)
 4877              	.LBE3691:
 4878              	.LBE3690:
 4879              	.LBE3704:
 4880              	.LBE3709:
 4881              		.loc 4 240 0
 4882 0974 93C10010 		stw 30,16(1)
 4883 0978 7C7E1B78 		mr 30,3
 4884              		.cfi_offset 30, -8
 4885              		.cfi_offset 29, -12
 4886              		.cfi_offset 65, 4
 4887              	.LVL361:
 4888              	.LBB3710:
 4889              	.LBB3705:
 4890              	.LBB3694:
 4891              	.LBB3692:
 4892              		.loc 1 338 0
 4893 097c 80090008 		lwz 0,8(9)
 4894 0980 7F83E378 		mr 3,28
 4895              	.LVL362:
 4896              	.LBE3692:
 4897              	.LBE3694:
 4898              	.LBE3705:
 4899              	.LBE3710:
 4900              		.loc 4 240 0
 4901 0984 93E10014 		stw 31,20(1)
 4902              	.LBB3711:
 4903              		.loc 4 407 0
 4904 0988 7FDDF378 		mr 29,30
 4905              	.LBB3706:
 4906              	.LBB3695:
 4907              	.LBB3693:
 4908              		.loc 1 338 0
 4909 098c 7C0903A6 		mtctr 0
 4910              	.LEHB28:
 4911              		.cfi_offset 31, -4
 4912 0990 4E800421 		bctrl
 4913              	.LEHE28:
 4914              	.LVL363:
 4915              	.LBE3693:
 4916              	.LBE3695:
 4917              	.LBE3706:
 4918              		.loc 4 407 0
 4919 0994 87FD00D0 		lwzu 31,208(29)
 4920              	.LVL364:
 4921              	.LBB3707:
 4922              		.loc 1 2274 0
 4923 0998 7F9FE800 		cmpw 7,31,29
 4924 099c 419E002C 		beq- 7,.L264
 4925              	.LVL365:
 4926              	.L271:
 4927              		.loc 1 2279 0
 4928 09a0 807F0008 		lwz 3,8(31)
 4929 09a4 7FC4F378 		mr 4,30
 4930 09a8 38A00000 		li 5,0
 4931              	.LBB3696:
 4932              	.LBB3697:
 4933              		.loc 5 234 0
 4934 09ac 83FF0000 		lwz 31,0(31)
 4935              	.LVL366:
 4936              	.LBE3697:
 4937              	.LBE3696:
 4938              		.loc 1 2279 0
 4939 09b0 81230000 		lwz 9,0(3)
 4940 09b4 8009000C 		lwz 0,12(9)
 4941 09b8 7C0903A6 		mtctr 0
 4942              	.LEHB29:
 4943 09bc 4E800421 		bctrl
 4944              	.LEHE29:
 4945              	.LVL367:
 4946              		.loc 1 2274 0
 4947 09c0 7F9DF800 		cmpw 7,29,31
 4948 09c4 409EFFDC 		bne+ 7,.L271
 4949              	.LVL368:
 4950              	.L264:
 4951              	.LBB3698:
 4952              	.LBB3699:
 4953              	.LBB3700:
 4954              		.loc 1 343 0
 4955 09c8 813E00CC 		lwz 9,204(30)
 4956 09cc 7F83E378 		mr 3,28
 4957 09d0 8009000C 		lwz 0,12(9)
 4958 09d4 7C0903A6 		mtctr 0
 4959              	.LEHB30:
 4960 09d8 4E800421 		bctrl
 4961              	.LEHE30:
 4962              	.LBE3700:
 4963              	.LBE3699:
 4964              	.LBE3698:
 4965              	.LBE3707:
 4966              	.LBE3711:
 4967              		.loc 4 242 0
 4968 09dc 8001001C 		lwz 0,28(1)
 4969 09e0 83810008 		lwz 28,8(1)
 4970              	.LVL369:
 4971 09e4 7C0803A6 		mtlr 0
 4972 09e8 83A1000C 		lwz 29,12(1)
 4973 09ec 83C10010 		lwz 30,16(1)
 4974              	.LVL370:
 4975 09f0 83E10014 		lwz 31,20(1)
 4976              	.LVL371:
 4977 09f4 38210018 		addi 1,1,24
 4978              		.cfi_remember_state
 4979              	.LCFI112:
 4980              		.cfi_def_cfa_offset 0
 4981              		.cfi_restore 31
 4982              		.cfi_restore 30
 4983              		.cfi_restore 29
 4984              		.cfi_restore 28
 4985 09f8 4E800020 		blr
 4986              	.LVL372:
 4987              	.L270:
 4988              	.LCFI113:
 4989              		.cfi_restore_state
 4990              	.LBB3712:
 4991              	.LBB3708:
 4992              	.LBB3701:
 4993              	.LBB3702:
 4994              	.LBB3703:
 4995              		.loc 1 343 0
 4996 09fc 813E00CC 		lwz 9,204(30)
 4997 0a00 7C7F1B78 		mr 31,3
 4998              	.LVL373:
 4999 0a04 7F83E378 		mr 3,28
 5000 0a08 8009000C 		lwz 0,12(9)
 5001 0a0c 7C0903A6 		mtctr 0
 5002 0a10 4E800421 		bctrl
 5003 0a14 7FE3FB78 		mr 3,31
 5004              	.LEHB31:
 5005 0a18 48000001 		bl _Unwind_Resume
 5006              	.LEHE31:
 5007              	.LBE3703:
 5008              	.LBE3702:
 5009              	.LBE3701:
 5010              	.LBE3708:
 5011              	.LBE3712:
 5012              		.cfi_endproc
 5013              	.LFE1696:
 5014              		.section	.gcc_except_table
 5015              	.LLSDA1696:
 5016 00a7 FF       		.byte	0xff
 5017 00a8 FF       		.byte	0xff
 5018 00a9 01       		.byte	0x1
 5019 00aa 13       		.uleb128 .LLSDACSE1696-.LLSDACSB1696
 5020              	.LLSDACSB1696:
 5021 00ab 38       		.uleb128 .LEHB28-.LFB1696
 5022 00ac 04       		.uleb128 .LEHE28-.LEHB28
 5023 00ad 00       		.uleb128 0
 5024 00ae 00       		.uleb128 0
 5025 00af 64       		.uleb128 .LEHB29-.LFB1696
 5026 00b0 04       		.uleb128 .LEHE29-.LEHB29
 5027 00b1 A401     		.uleb128 .L270-.LFB1696
 5028 00b3 00       		.uleb128 0
 5029 00b4 8001     		.uleb128 .LEHB30-.LFB1696
 5030 00b6 04       		.uleb128 .LEHE30-.LEHB30
 5031 00b7 00       		.uleb128 0
 5032 00b8 00       		.uleb128 0
 5033 00b9 C001     		.uleb128 .LEHB31-.LFB1696
 5034 00bb 04       		.uleb128 .LEHE31-.LEHB31
 5035 00bc 00       		.uleb128 0
 5036 00bd 00       		.uleb128 0
 5037              	.LLSDACSE1696:
 5038              		.section	".text"
 5039              		.size	_ZN7TaskBar19OnDeviceButtonClickEP9GuiButtoniRK6_POINT, .-_ZN7TaskBar19OnDeviceButtonClickEP
 5040              		.align 2
 5041              		.globl _ZN7TaskBar6UpdateEP10GuiTrigger
 5042              		.type	_ZN7TaskBar6UpdateEP10GuiTrigger, @function
 5043              	_ZN7TaskBar6UpdateEP10GuiTrigger:
 5044              	.LFB1706:
 5045              		.loc 4 383 0
 5046              		.cfi_startproc
 5047              		.cfi_personality 0,__gxx_personality_v0
 5048              		.cfi_lsda 0,.LLSDA1706
 5049              	.LVL374:
 5050 0a1c 7C0802A6 		mflr 0
 5051 0a20 9421FFD8 		stwu 1,-40(1)
 5052              	.LCFI114:
 5053              		.cfi_def_cfa_offset 40
 5054              		.cfi_register 65, 0
 5055 0a24 9321000C 		stw 25,12(1)
 5056 0a28 9001002C 		stw 0,44(1)
 5057 0a2c 93810018 		stw 28,24(1)
 5058 0a30 93410010 		stw 26,16(1)
 5059 0a34 7C9A2378 		mr 26,4
 5060              		.cfi_offset 26, -24
 5061              		.cfi_offset 28, -16
 5062              		.cfi_offset 65, 4
 5063              		.cfi_offset 25, -28
 5064 0a38 93610014 		stw 27,20(1)
 5065              	.LBB3748:
 5066              	.LBB3749:
 5067              	.LBB3750:
 5068              		.loc 4 382 0
 5069 0a3c 3B6300F0 		addi 27,3,240
 5070              		.cfi_offset 27, -20
 5071              	.LBE3750:
 5072              	.LBE3749:
 5073              	.LBE3748:
 5074              		.loc 4 383 0
 5075 0a40 93A1001C 		stw 29,28(1)
 5076              	.LBB3803:
 5077              	.LBB3771:
 5078              	.LBB3765:
 5079              		.loc 4 382 0
 5080 0a44 3BA300E0 		addi 29,3,224
 5081              		.cfi_offset 29, -12
 5082              	.LBE3765:
 5083              	.LBE3771:
 5084              	.LBE3803:
 5085              		.loc 4 383 0
 5086 0a48 93C10020 		stw 30,32(1)
 5087 0a4c 7C7E1B78 		mr 30,3
 5088              		.cfi_offset 30, -8
 5089 0a50 93E10024 		stw 31,36(1)
 5090              		.loc 4 384 0
 5091 0a54 3BE00000 		li 31,0
 5092              		.cfi_offset 31, -4
 5093              	.LVL375:
 5094              	.L279:
 5095              	.LBB3804:
 5096              	.LBB3772:
 5097              		.loc 4 387 0
 5098 0a58 847D0004 		lwzu 3,4(29)
 5099 0a5c 7F44D378 		mr 4,26
 5100 0a60 81230000 		lwz 9,0(3)
 5101 0a64 800900BC 		lwz 0,188(9)
 5102 0a68 7C0903A6 		mtctr 0
 5103              	.LEHB32:
 5104 0a6c 4E800421 		bctrl
 5105              		.loc 4 389 0
 5106 0a70 807D0000 		lwz 3,0(29)
 5107 0a74 81230000 		lwz 9,0(3)
 5108 0a78 80090054 		lwz 0,84(9)
 5109 0a7c 7C0903A6 		mtctr 0
 5110 0a80 4E800421 		bctrl
 5111 0a84 2F830001 		cmpwi 7,3,1
 5112 0a88 409E005C 		bne- 7,.L273
 5113              	.LVL376:
 5114              		.loc 4 392 0
 5115 0a8c 801E0048 		lwz 0,72(30)
 5116              		.loc 4 391 0
 5117 0a90 3BE00001 		li 31,1
 5118              		.loc 4 392 0
 5119 0a94 2F800000 		cmpwi 7,0,0
 5120 0a98 419E0060 		beq- 7,.L293
 5121              	.LVL377:
 5122              	.L274:
 5123              		.loc 4 385 0
 5124 0a9c 7F9DD800 		cmpw 7,29,27
 5125 0aa0 409EFFB8 		bne+ 7,.L279
 5126              	.LBE3772:
 5127              		.loc 4 402 0
 5128 0aa4 2F9F0000 		cmpwi 7,31,0
 5129 0aa8 409E0010 		bne- 7,.L272
 5130              		.loc 4 402 0 is_stmt 0 discriminator 1
 5131 0aac 801E0048 		lwz 0,72(30)
 5132 0ab0 2F800001 		cmpwi 7,0,1
 5133 0ab4 419E00B4 		beq- 7,.L294
 5134              	.L272:
 5135              	.LBE3804:
 5136              		.loc 4 407 0 is_stmt 1
 5137 0ab8 8001002C 		lwz 0,44(1)
 5138 0abc 8321000C 		lwz 25,12(1)
 5139 0ac0 7C0803A6 		mtlr 0
 5140 0ac4 83410010 		lwz 26,16(1)
 5141              	.LVL378:
 5142 0ac8 83610014 		lwz 27,20(1)
 5143 0acc 83810018 		lwz 28,24(1)
 5144 0ad0 83A1001C 		lwz 29,28(1)
 5145 0ad4 83C10020 		lwz 30,32(1)
 5146              	.LVL379:
 5147 0ad8 83E10024 		lwz 31,36(1)
 5148 0adc 38210028 		addi 1,1,40
 5149              		.cfi_remember_state
 5150              	.LCFI115:
 5151              		.cfi_def_cfa_offset 0
 5152              		.cfi_restore 31
 5153              		.cfi_restore 30
 5154              		.cfi_restore 29
 5155              		.cfi_restore 28
 5156              		.cfi_restore 27
 5157              		.cfi_restore 26
 5158              		.cfi_restore 25
 5159 0ae0 4E800020 		blr
 5160              	.LVL380:
 5161              	.L273:
 5162              	.LCFI116:
 5163              		.cfi_restore_state
 5164              	.LBB3805:
 5165              	.LBB3798:
 5166              		.loc 4 399 0
 5167 0ae4 839D0000 		lwz 28,0(29)
 5168              	.LVL381:
 5169              	.LBB3773:
 5170              	.LBB3774:
 5171              	.LBB3775:
 5172              		.file 10 "d:/Projects/SaveGameManager/savegame-manager-gx/trunk/source/Menu/../GUI/../ImageOperati
 5173              		.loc 10 61 0
 5174 0ae8 48000001 		bl gettime
 5175              	.LVL382:
 5176 0aec 907C0118 		stw 3,280(28)
 5177 0af0 909C011C 		stw 4,284(28)
 5178 0af4 4BFFFFA8 		b .L274
 5179              	.LVL383:
 5180              	.L293:
 5181              	.LBE3775:
 5182              	.LBE3774:
 5183              	.LBE3773:
 5184              	.LBB3776:
 5185              	.LBB3777:
 5186              	.LBB3778:
 5187              	.LBB3779:
 5188              		.loc 1 338 0
 5189 0af8 813E00D8 		lwz 9,216(30)
 5190              	.LBE3779:
 5191              	.LBE3778:
 5192              		.loc 1 2270 0
 5193 0afc 3B3E00D8 		addi 25,30,216
 5194              	.LBE3777:
 5195              	.LBE3776:
 5196              		.loc 4 394 0
 5197 0b00 93FE0048 		stw 31,72(30)
 5198              	.LVL384:
 5199              	.LBB3796:
 5200              	.LBB3792:
 5201              	.LBB3782:
 5202              	.LBB3780:
 5203              		.loc 1 338 0
 5204 0b04 7F23CB78 		mr 3,25
 5205 0b08 80090008 		lwz 0,8(9)
 5206              	.LBE3780:
 5207              	.LBE3782:
 5208              	.LBE3792:
 5209              		.loc 4 407 0
 5210 0b0c 7FDCF378 		mr 28,30
 5211              	.LBB3793:
 5212              	.LBB3783:
 5213              	.LBB3781:
 5214              		.loc 1 338 0
 5215 0b10 7C0903A6 		mtctr 0
 5216 0b14 4E800421 		bctrl
 5217              	.LEHE32:
 5218              	.LVL385:
 5219              	.LBE3781:
 5220              	.LBE3783:
 5221              	.LBE3793:
 5222              		.loc 4 407 0
 5223 0b18 87FC00DC 		lwzu 31,220(28)
 5224              	.LVL386:
 5225              	.LBB3794:
 5226              		.loc 1 2274 0
 5227 0b1c 7F9FE000 		cmpw 7,31,28
 5228 0b20 419E002C 		beq- 7,.L275
 5229              	.LVL387:
 5230              	.L291:
 5231              		.loc 1 2279 0
 5232 0b24 807F0008 		lwz 3,8(31)
 5233 0b28 7FC4F378 		mr 4,30
 5234 0b2c 38A00001 		li 5,1
 5235              	.LBB3784:
 5236              	.LBB3785:
 5237              		.loc 5 234 0
 5238 0b30 83FF0000 		lwz 31,0(31)
 5239              	.LVL388:
 5240              	.LBE3785:
 5241              	.LBE3784:
 5242              		.loc 1 2279 0
 5243 0b34 81230000 		lwz 9,0(3)
 5244 0b38 8009000C 		lwz 0,12(9)
 5245 0b3c 7C0903A6 		mtctr 0
 5246              	.LEHB33:
 5247 0b40 4E800421 		bctrl
 5248              	.LEHE33:
 5249              	.LVL389:
 5250              		.loc 1 2274 0
 5251 0b44 7F9CF800 		cmpw 7,28,31
 5252 0b48 409EFFDC 		bne+ 7,.L291
 5253              	.LVL390:
 5254              	.L275:
 5255              	.LBB3786:
 5256              	.LBB3787:
 5257              	.LBB3788:
 5258              		.loc 1 343 0
 5259 0b4c 813E00D8 		lwz 9,216(30)
 5260 0b50 7F23CB78 		mr 3,25
 5261              		.loc 4 391 0
 5262 0b54 3BE00001 		li 31,1
 5263              	.LVL391:
 5264              		.loc 1 343 0
 5265 0b58 8009000C 		lwz 0,12(9)
 5266 0b5c 7C0903A6 		mtctr 0
 5267              	.LEHB34:
 5268 0b60 4E800421 		bctrl
 5269 0b64 4BFFFF38 		b .L274
 5270              	.LVL392:
 5271              	.L294:
 5272              	.LBE3788:
 5273              	.LBE3787:
 5274              	.LBE3786:
 5275              	.LBE3794:
 5276              	.LBE3796:
 5277              	.LBE3798:
 5278              	.LBB3799:
 5279              	.LBB3766:
 5280              	.LBB3751:
 5281              	.LBB3752:
 5282              		.loc 1 338 0
 5283 0b68 813E00D8 		lwz 9,216(30)
 5284              	.LBE3752:
 5285              	.LBE3751:
 5286              		.loc 1 2270 0
 5287 0b6c 3B9E00D8 		addi 28,30,216
 5288              	.LBE3766:
 5289              	.LBE3799:
 5290              		.loc 4 404 0
 5291 0b70 93FE0048 		stw 31,72(30)
 5292              	.LVL393:
 5293              	.LBB3800:
 5294              	.LBB3767:
 5295              	.LBB3755:
 5296              	.LBB3753:
 5297              		.loc 1 338 0
 5298 0b74 7F83E378 		mr 3,28
 5299 0b78 80090008 		lwz 0,8(9)
 5300              	.LBE3753:
 5301              	.LBE3755:
 5302              	.LBE3767:
 5303              		.loc 4 407 0
 5304 0b7c 7FDDF378 		mr 29,30
 5305              	.LBB3768:
 5306              	.LBB3756:
 5307              	.LBB3754:
 5308              		.loc 1 338 0
 5309 0b80 7C0903A6 		mtctr 0
 5310 0b84 4E800421 		bctrl
 5311              	.LEHE34:
 5312              	.LVL394:
 5313              	.LBE3754:
 5314              	.LBE3756:
 5315              	.LBE3768:
 5316              		.loc 4 407 0
 5317 0b88 87FD00DC 		lwzu 31,220(29)
 5318              	.LVL395:
 5319              	.LBB3769:
 5320              		.loc 1 2274 0
 5321 0b8c 7F9FE800 		cmpw 7,31,29
 5322 0b90 419E002C 		beq- 7,.L281
 5323              	.LVL396:
 5324              	.L292:
 5325              		.loc 1 2279 0
 5326 0b94 807F0008 		lwz 3,8(31)
 5327 0b98 7FC4F378 		mr 4,30
 5328 0b9c 38A00000 		li 5,0
 5329              	.LBB3757:
 5330              	.LBB3758:
 5331              		.loc 5 234 0
 5332 0ba0 83FF0000 		lwz 31,0(31)
 5333              	.LVL397:
 5334              	.LBE3758:
 5335              	.LBE3757:
 5336              		.loc 1 2279 0
 5337 0ba4 81230000 		lwz 9,0(3)
 5338 0ba8 8009000C 		lwz 0,12(9)
 5339 0bac 7C0903A6 		mtctr 0
 5340              	.LEHB35:
 5341 0bb0 4E800421 		bctrl
 5342              	.LEHE35:
 5343              	.LVL398:
 5344              		.loc 1 2274 0
 5345 0bb4 7F9DF800 		cmpw 7,29,31
 5346 0bb8 409EFFDC 		bne+ 7,.L292
 5347              	.LVL399:
 5348              	.L281:
 5349              	.LBB3759:
 5350              	.LBB3760:
 5351              	.LBB3761:
 5352              		.loc 1 343 0
 5353 0bbc 813E00D8 		lwz 9,216(30)
 5354 0bc0 7F83E378 		mr 3,28
 5355 0bc4 8009000C 		lwz 0,12(9)
 5356 0bc8 7C0903A6 		mtctr 0
 5357              	.LEHB36:
 5358 0bcc 4E800421 		bctrl
 5359              	.LEHE36:
 5360              	.LBE3761:
 5361              	.LBE3760:
 5362              	.LBE3759:
 5363              	.LBE3769:
 5364              	.LBE3800:
 5365              	.LBE3805:
 5366              		.loc 4 407 0
 5367 0bd0 8001002C 		lwz 0,44(1)
 5368 0bd4 8321000C 		lwz 25,12(1)
 5369 0bd8 7C0803A6 		mtlr 0
 5370 0bdc 83410010 		lwz 26,16(1)
 5371              	.LVL400:
 5372 0be0 83610014 		lwz 27,20(1)
 5373 0be4 83810018 		lwz 28,24(1)
 5374 0be8 83A1001C 		lwz 29,28(1)
 5375 0bec 83C10020 		lwz 30,32(1)
 5376              	.LVL401:
 5377 0bf0 83E10024 		lwz 31,36(1)
 5378              	.LVL402:
 5379 0bf4 38210028 		addi 1,1,40
 5380              		.cfi_remember_state
 5381              		.cfi_restore 25
 5382              		.cfi_restore 26
 5383              		.cfi_restore 27
 5384              		.cfi_restore 28
 5385              		.cfi_restore 29
 5386              		.cfi_restore 30
 5387              		.cfi_restore 31
 5388              	.LCFI117:
 5389              		.cfi_def_cfa_offset 0
 5390 0bf8 4E800020 		blr
 5391              	.LVL403:
 5392              	.L289:
 5393              	.LCFI118:
 5394              		.cfi_restore_state
 5395              	.LBB3806:
 5396              	.LBB3801:
 5397              	.LBB3770:
 5398              	.LBB3762:
 5399              	.LBB3763:
 5400              	.LBB3764:
 5401              		.loc 1 343 0
 5402 0bfc 813E00D8 		lwz 9,216(30)
 5403 0c00 7C7F1B78 		mr 31,3
 5404              	.LVL404:
 5405 0c04 7F83E378 		mr 3,28
 5406 0c08 8009000C 		lwz 0,12(9)
 5407 0c0c 7C0903A6 		mtctr 0
 5408 0c10 4E800421 		bctrl
 5409 0c14 7FE3FB78 		mr 3,31
 5410              	.LEHB37:
 5411 0c18 48000001 		bl _Unwind_Resume
 5412              	.LEHE37:
 5413              	.LVL405:
 5414              	.L288:
 5415              	.LBE3764:
 5416              	.LBE3763:
 5417              	.LBE3762:
 5418              	.LBE3770:
 5419              	.LBE3801:
 5420              	.LBB3802:
 5421              	.LBB3797:
 5422              	.LBB3795:
 5423              	.LBB3789:
 5424              	.LBB3790:
 5425              	.LBB3791:
 5426 0c1c 813E00D8 		lwz 9,216(30)
 5427 0c20 7C7F1B78 		mr 31,3
 5428              	.LVL406:
 5429 0c24 7F23CB78 		mr 3,25
 5430 0c28 8009000C 		lwz 0,12(9)
 5431 0c2c 7C0903A6 		mtctr 0
 5432 0c30 4E800421 		bctrl
 5433 0c34 7FE3FB78 		mr 3,31
 5434              	.LEHB38:
 5435 0c38 48000001 		bl _Unwind_Resume
 5436              	.LEHE38:
 5437              	.LBE3791:
 5438              	.LBE3790:
 5439              	.LBE3789:
 5440              	.LBE3795:
 5441              	.LBE3797:
 5442              	.LBE3802:
 5443              	.LBE3806:
 5444              		.cfi_endproc
 5445              	.LFE1706:
 5446              		.section	.gcc_except_table
 5447              	.LLSDA1706:
 5448 00be FF       		.byte	0xff
 5449 00bf FF       		.byte	0xff
 5450 00c0 01       		.byte	0x1
 5451 00c1 25       		.uleb128 .LLSDACSE1706-.LLSDACSB1706
 5452              	.LLSDACSB1706:
 5453 00c2 50       		.uleb128 .LEHB32-.LFB1706
 5454 00c3 AC01     		.uleb128 .LEHE32-.LEHB32
 5455 00c5 00       		.uleb128 0
 5456 00c6 00       		.uleb128 0
 5457 00c7 A402     		.uleb128 .LEHB33-.LFB1706
 5458 00c9 04       		.uleb128 .LEHE33-.LEHB33
 5459 00ca 8004     		.uleb128 .L288-.LFB1706
 5460 00cc 00       		.uleb128 0
 5461 00cd C402     		.uleb128 .LEHB34-.LFB1706
 5462 00cf 28       		.uleb128 .LEHE34-.LEHB34
 5463 00d0 00       		.uleb128 0
 5464 00d1 00       		.uleb128 0
 5465 00d2 9403     		.uleb128 .LEHB35-.LFB1706
 5466 00d4 04       		.uleb128 .LEHE35-.LEHB35
 5467 00d5 E003     		.uleb128 .L289-.LFB1706
 5468 00d7 00       		.uleb128 0
 5469 00d8 B003     		.uleb128 .LEHB36-.LFB1706
 5470 00da 04       		.uleb128 .LEHE36-.LEHB36
 5471 00db 00       		.uleb128 0
 5472 00dc 00       		.uleb128 0
 5473 00dd FC03     		.uleb128 .LEHB37-.LFB1706
 5474 00df 04       		.uleb128 .LEHE37-.LEHB37
 5475 00e0 00       		.uleb128 0
 5476 00e1 00       		.uleb128 0
 5477 00e2 9C04     		.uleb128 .LEHB38-.LFB1706
 5478 00e4 04       		.uleb128 .LEHE38-.LEHB38
 5479 00e5 00       		.uleb128 0
 5480 00e6 00       		.uleb128 0
 5481              	.LLSDACSE1706:
 5482              		.section	".text"
 5483              		.size	_ZN7TaskBar6UpdateEP10GuiTrigger, .-_ZN7TaskBar6UpdateEP10GuiTrigger
 5484              		.align 2
 5485              		.globl _ZN7TaskBar14ResetSearchBtnEv
 5486              		.type	_ZN7TaskBar14ResetSearchBtnEv, @function
 5487              	_ZN7TaskBar14ResetSearchBtnEv:
 5488              	.LFB1702:
 5489              		.loc 4 331 0
 5490              		.cfi_startproc
 5491              	.LVL407:
 5492 0c3c 7C0802A6 		mflr 0
 5493 0c40 9421FFF0 		stwu 1,-16(1)
 5494              	.LCFI119:
 5495              		.cfi_def_cfa_offset 16
 5496              		.cfi_register 65, 0
 5497 0c44 93E1000C 		stw 31,12(1)
 5498 0c48 7C7F1B78 		mr 31,3
 5499              		.cfi_offset 31, -4
 5500 0c4c 90010014 		stw 0,20(1)
 5501              		.loc 4 332 0
 5502 0c50 806300F0 		lwz 3,240(3)
 5503              	.LVL408:
 5504 0c54 81230000 		lwz 9,0(3)
 5505 0c58 80090094 		lwz 0,148(9)
 5506              		.cfi_offset 65, 4
 5507 0c5c 7C0903A6 		mtctr 0
 5508 0c60 4E800421 		bctrl
 5509              		.loc 4 333 0
 5510 0c64 807F00F0 		lwz 3,240(31)
 5511 0c68 809F0148 		lwz 4,328(31)
 5512 0c6c 48000001 		bl _ZN9GuiButton8SetImageEP8GuiImage
 5513              		.loc 4 334 0
 5514 0c70 807F00F0 		lwz 3,240(31)
 5515 0c74 809F0144 		lwz 4,324(31)
 5516 0c78 48000001 		bl _ZN9GuiButton12SetImageOverEP8GuiImage
 5517              		.loc 4 335 0
 5518 0c7c 807F00F0 		lwz 3,240(31)
 5519 0c80 81230000 		lwz 9,0(3)
 5520 0c84 80090090 		lwz 0,144(9)
 5521 0c88 7C0903A6 		mtctr 0
 5522 0c8c 4E800421 		bctrl
 5523              		.loc 4 336 0
 5524 0c90 80010014 		lwz 0,20(1)
 5525 0c94 83E1000C 		lwz 31,12(1)
 5526              	.LVL409:
 5527 0c98 7C0803A6 		mtlr 0
 5528 0c9c 38210010 		addi 1,1,16
 5529              	.LCFI120:
 5530              		.cfi_def_cfa_offset 0
 5531              		.cfi_restore 31
 5532 0ca0 4E800020 		blr
 5533              		.cfi_endproc
 5534              	.LFE1702:
 5535              		.size	_ZN7TaskBar14ResetSearchBtnEv, .-_ZN7TaskBar14ResetSearchBtnEv
 5536              		.align 2
 5537              		.globl _ZN7TaskBar13SetModeButtonEv
 5538              		.type	_ZN7TaskBar13SetModeButtonEv, @function
 5539              	_ZN7TaskBar13SetModeButtonEv:
 5540              	.LFB1703:
 5541              		.loc 4 339 0
 5542              		.cfi_startproc
 5543              	.LVL410:
 5544 0ca4 7C0802A6 		mflr 0
 5545 0ca8 9421FFF0 		stwu 1,-16(1)
 5546              	.LCFI121:
 5547              		.cfi_def_cfa_offset 16
 5548              		.cfi_register 65, 0
 5549              		.loc 4 340 0
 5550 0cac 3D200000 		lis 9,Settings+96@ha
 5551              		.loc 4 339 0
 5552 0cb0 93E1000C 		stw 31,12(1)
 5553 0cb4 7C7F1B78 		mr 31,3
 5554              		.cfi_offset 31, -4
 5555 0cb8 90010014 		stw 0,20(1)
 5556              		.loc 4 340 0
 5557 0cbc A8090060 		lha 0,Settings+96@l(9)
 5558              		.cfi_offset 65, 4
 5559              	.LBB3809:
 5560              	.LBB3810:
 5561              		.loc 4 342 0
 5562 0cc0 806300E8 		lwz 3,232(3)
 5563              	.LVL411:
 5564              	.LBE3810:
 5565              	.LBE3809:
 5566              		.loc 4 340 0
 5567 0cc4 2F800000 		cmpwi 7,0,0
 5568 0cc8 419E002C 		beq- 7,.L299
 5569              		.loc 4 347 0
 5570 0ccc 809F0130 		lwz 4,304(31)
 5571 0cd0 48000001 		bl _ZN9GuiButton8SetImageEP8GuiImage
 5572              		.loc 4 348 0
 5573 0cd4 807F00E8 		lwz 3,232(31)
 5574 0cd8 809F012C 		lwz 4,300(31)
 5575 0cdc 48000001 		bl _ZN9GuiButton12SetImageOverEP8GuiImage
 5576              		.loc 4 350 0
 5577 0ce0 80010014 		lwz 0,20(1)
 5578 0ce4 83E1000C 		lwz 31,12(1)
 5579              	.LVL412:
 5580 0ce8 7C0803A6 		mtlr 0
 5581 0cec 38210010 		addi 1,1,16
 5582              		.cfi_remember_state
 5583              	.LCFI122:
 5584              		.cfi_def_cfa_offset 0
 5585              		.cfi_restore 31
 5586 0cf0 4E800020 		blr
 5587              	.LVL413:
 5588              	.L299:
 5589              	.LCFI123:
 5590              		.cfi_restore_state
 5591              	.LBB3812:
 5592              	.LBB3811:
 5593              		.loc 4 342 0
 5594 0cf4 809F0128 		lwz 4,296(31)
 5595 0cf8 48000001 		bl _ZN9GuiButton8SetImageEP8GuiImage
 5596              		.loc 4 343 0
 5597 0cfc 807F00E8 		lwz 3,232(31)
 5598 0d00 809F0124 		lwz 4,292(31)
 5599 0d04 48000001 		bl _ZN9GuiButton12SetImageOverEP8GuiImage
 5600              	.LBE3811:
 5601              	.LBE3812:
 5602              		.loc 4 350 0
 5603 0d08 80010014 		lwz 0,20(1)
 5604 0d0c 83E1000C 		lwz 31,12(1)
 5605              	.LVL414:
 5606 0d10 7C0803A6 		mtlr 0
 5607 0d14 38210010 		addi 1,1,16
 5608              		.cfi_restore 31
 5609              	.LCFI124:
 5610              		.cfi_def_cfa_offset 0
 5611 0d18 4E800020 		blr
 5612              		.cfi_endproc
 5613              	.LFE1703:
 5614              		.size	_ZN7TaskBar13SetModeButtonEv, .-_ZN7TaskBar13SetModeButtonEv
 5615              		.align 2
 5616              		.globl _ZN7TaskBar13SetLockButtonEv
 5617              		.type	_ZN7TaskBar13SetLockButtonEv, @function
 5618              	_ZN7TaskBar13SetLockButtonEv:
 5619              	.LFB1704:
 5620              		.loc 4 353 0
 5621              		.cfi_startproc
 5622              	.LVL415:
 5623 0d1c 7C0802A6 		mflr 0
 5624 0d20 9421FFF0 		stwu 1,-16(1)
 5625              	.LCFI125:
 5626              		.cfi_def_cfa_offset 16
 5627              		.cfi_register 65, 0
 5628              		.loc 4 354 0
 5629 0d24 3D200000 		lis 9,Settings+1258@ha
 5630              		.loc 4 353 0
 5631 0d28 93E1000C 		stw 31,12(1)
 5632 0d2c 7C7F1B78 		mr 31,3
 5633              		.cfi_offset 31, -4
 5634 0d30 90010014 		stw 0,20(1)
 5635              		.loc 4 354 0
 5636 0d34 A80904EA 		lha 0,Settings+1258@l(9)
 5637              		.cfi_offset 65, 4
 5638              	.LBB3815:
 5639              	.LBB3816:
 5640              		.loc 4 356 0
 5641 0d38 806300EC 		lwz 3,236(3)
 5642              	.LVL416:
 5643              	.LBE3816:
 5644              	.LBE3815:
 5645              		.loc 4 354 0
 5646 0d3c 2F800000 		cmpwi 7,0,0
 5647 0d40 409E0048 		bne- 7,.L303
 5648              		.loc 4 362 0
 5649 0d44 809F0138 		lwz 4,312(31)
 5650 0d48 48000001 		bl _ZN9GuiButton8SetImageEP8GuiImage
 5651              		.loc 4 363 0
 5652 0d4c 809F0134 		lwz 4,308(31)
 5653 0d50 807F00EC 		lwz 3,236(31)
 5654 0d54 48000001 		bl _ZN9GuiButton12SetImageOverEP8GuiImage
 5655              		.loc 4 364 0
 5656 0d58 3C600000 		lis 3,.LC14@ha
 5657 0d5c 83FF00FC 		lwz 31,252(31)
 5658              	.LVL417:
 5659 0d60 386300BC 		la 3,.LC14@l(3)
 5660 0d64 48000001 		bl gettext
 5661 0d68 7C641B78 		mr 4,3
 5662 0d6c 7FE3FB78 		mr 3,31
 5663 0d70 48000001 		bl _ZN10GuiTooltip7SetTextEPKc
 5664              		.loc 4 366 0
 5665 0d74 80010014 		lwz 0,20(1)
 5666 0d78 83E1000C 		lwz 31,12(1)
 5667 0d7c 7C0803A6 		mtlr 0
 5668 0d80 38210010 		addi 1,1,16
 5669              		.cfi_remember_state
 5670              	.LCFI126:
 5671              		.cfi_def_cfa_offset 0
 5672              		.cfi_restore 31
 5673 0d84 4E800020 		blr
 5674              	.LVL418:
 5675              	.L303:
 5676              	.LCFI127:
 5677              		.cfi_restore_state
 5678              	.LBB3818:
 5679              	.LBB3817:
 5680              		.loc 4 356 0
 5681 0d88 809F0140 		lwz 4,320(31)
 5682 0d8c 48000001 		bl _ZN9GuiButton8SetImageEP8GuiImage
 5683              		.loc 4 357 0
 5684 0d90 809F013C 		lwz 4,316(31)
 5685 0d94 807F00EC 		lwz 3,236(31)
 5686 0d98 48000001 		bl _ZN9GuiButton12SetImageOverEP8GuiImage
 5687              		.loc 4 358 0
 5688 0d9c 3C600000 		lis 3,.LC9@ha
 5689 0da0 83FF00FC 		lwz 31,252(31)
 5690              	.LVL419:
 5691 0da4 38630084 		la 3,.LC9@l(3)
 5692 0da8 48000001 		bl gettext
 5693 0dac 7C641B78 		mr 4,3
 5694 0db0 7FE3FB78 		mr 3,31
 5695 0db4 48000001 		bl _ZN10GuiTooltip7SetTextEPKc
 5696              	.LBE3817:
 5697              	.LBE3818:
 5698              		.loc 4 366 0
 5699 0db8 80010014 		lwz 0,20(1)
 5700 0dbc 83E1000C 		lwz 31,12(1)
 5701 0dc0 7C0803A6 		mtlr 0
 5702 0dc4 38210010 		addi 1,1,16
 5703              		.cfi_restore 31
 5704              	.LCFI128:
 5705              		.cfi_def_cfa_offset 0
 5706 0dc8 4E800020 		blr
 5707              		.cfi_endproc
 5708              	.LFE1704:
 5709              		.size	_ZN7TaskBar13SetLockButtonEv, .-_ZN7TaskBar13SetLockButtonEv
 5710              		.section	.text._ZNSt8_Rb_treeIPN7sigslot12_signal_baseINS0_15single_threadedEEES4_St9_IdentityIS4_
 5711              		.align 2
 5712              		.weak	_ZNSt8_Rb_treeIPN7sigslot12_signal_baseINS0_15single_threadedEEES4_St9_IdentityIS4_ESt4lessI
 5713              		.type	_ZNSt8_Rb_treeIPN7sigslot12_signal_baseINS0_15single_threadedEEES4_St9_IdentityIS4_ESt4lessI
 5714              	_ZNSt8_Rb_treeIPN7sigslot12_signal_baseINS0_15single_threadedEEES4_St9_IdentityIS4_ESt4lessIS4_ESaI
 5715              	.LFB2038:
 5716              		.file 11 "d:\\devkitpro\\devkitppc\\bin\\../lib/gcc/powerpc-eabi/4.6.3/../../../../powerpc-eabi/in
 5717              		.loc 11 1068 0
 5718              		.cfi_startproc
 5719              	.LVL420:
 5720 0000 9421FFC8 		stwu 1,-56(1)
 5721              	.LCFI129:
 5722              		.cfi_def_cfa_offset 56
 5723 0004 7C0802A6 		mflr 0
 5724 0008 92C10010 		stw 22,16(1)
 5725              	.LBB3935:
 5726              		.loc 11 1072 0
 5727 000c 7C962379 		mr. 22,4
 5728              		.cfi_offset 22, -40
 5729              		.cfi_register 65, 0
 5730              	.LBE3935:
 5731              		.loc 11 1068 0
 5732 0010 93C10030 		stw 30,48(1)
 5733 0014 7C7E1B78 		mr 30,3
 5734              		.cfi_offset 30, -8
 5735 0018 9001003C 		stw 0,60(1)
 5736 001c 92A1000C 		stw 21,12(1)
 5737 0020 92E10014 		stw 23,20(1)
 5738 0024 93010018 		stw 24,24(1)
 5739 0028 9321001C 		stw 25,28(1)
 5740 002c 93410020 		stw 26,32(1)
 5741 0030 93610024 		stw 27,36(1)
 5742 0034 93810028 		stw 28,40(1)
 5743 0038 93A1002C 		stw 29,44(1)
 5744 003c 93E10034 		stw 31,52(1)
 5745              	.LBB4020:
 5746              		.loc 11 1072 0
 5747 0040 41820168 		beq- 0,.L304
 5748              		.cfi_offset 31, -4
 5749              		.cfi_offset 29, -12
 5750              		.cfi_offset 28, -16
 5751              		.cfi_offset 27, -20
 5752              		.cfi_offset 26, -24
 5753              		.cfi_offset 25, -28
 5754              		.cfi_offset 24, -32
 5755              		.cfi_offset 23, -36
 5756              		.cfi_offset 21, -44
 5757              		.cfi_offset 65, 4
 5758              	.LVL421:
 5759              	.L350:
 5760              		.loc 4 407 0
 5761 0044 8376000C 		lwz 27,12(22)
 5762              	.LVL422:
 5763              	.LBB3936:
 5764              	.LBB3937:
 5765              	.LBB3938:
 5766              		.loc 11 1072 0
 5767 0048 2F9B0000 		cmpwi 7,27,0
 5768 004c 419E0140 		beq- 7,.L306
 5769              	.LVL423:
 5770              	.L351:
 5771              	.LBE3938:
 5772              		.loc 4 407 0
 5773 0050 835B000C 		lwz 26,12(27)
 5774              	.LVL424:
 5775              	.LBB4014:
 5776              	.LBB3939:
 5777              	.LBB3940:
 5778              	.LBB3941:
 5779              		.loc 11 1072 0
 5780 0054 2F9A0000 		cmpwi 7,26,0
 5781 0058 419E0118 		beq- 7,.L307
 5782              	.LVL425:
 5783              	.L352:
 5784              	.LBE3941:
 5785              		.loc 4 407 0
 5786 005c 833A000C 		lwz 25,12(26)
 5787              	.LVL426:
 5788              	.LBB4007:
 5789              	.LBB3942:
 5790              	.LBB3943:
 5791              	.LBB3944:
 5792              		.loc 11 1072 0
 5793 0060 2F990000 		cmpwi 7,25,0
 5794 0064 419E00F0 		beq- 7,.L308
 5795              	.LVL427:
 5796              	.L353:
 5797              	.LBE3944:
 5798              		.loc 4 407 0
 5799 0068 8319000C 		lwz 24,12(25)
 5800              	.LVL428:
 5801              	.LBB4000:
 5802              	.LBB3945:
 5803              	.LBB3946:
 5804              	.LBB3947:
 5805              		.loc 11 1072 0
 5806 006c 2F980000 		cmpwi 7,24,0
 5807 0070 419E00C8 		beq- 7,.L309
 5808              	.LVL429:
 5809              	.L354:
 5810              	.LBE3947:
 5811              		.loc 4 407 0
 5812 0074 82F8000C 		lwz 23,12(24)
 5813              	.LVL430:
 5814              	.LBB3993:
 5815              	.LBB3948:
 5816              	.LBB3949:
 5817              	.LBB3950:
 5818              		.loc 11 1072 0
 5819 0078 2F970000 		cmpwi 7,23,0
 5820 007c 419E00A0 		beq- 7,.L310
 5821              	.LVL431:
 5822              	.L355:
 5823              	.LBE3950:
 5824              		.loc 4 407 0
 5825 0080 8397000C 		lwz 28,12(23)
 5826              	.LVL432:
 5827              	.LBB3986:
 5828              	.LBB3951:
 5829              	.LBB3952:
 5830              	.LBB3953:
 5831              		.loc 11 1072 0
 5832 0084 2F9C0000 		cmpwi 7,28,0
 5833 0088 419E0078 		beq- 7,.L311
 5834              	.LVL433:
 5835              	.L356:
 5836              	.LBE3953:
 5837              		.loc 4 407 0
 5838 008c 83BC000C 		lwz 29,12(28)
 5839              	.LVL434:
 5840              	.LBB3979:
 5841              	.LBB3954:
 5842              	.LBB3955:
 5843              	.LBB3956:
 5844              		.loc 11 1072 0
 5845 0090 2F9D0000 		cmpwi 7,29,0
 5846 0094 419E0050 		beq- 7,.L312
 5847              	.LVL435:
 5848              	.L357:
 5849              	.LBE3956:
 5850              		.loc 4 407 0
 5851 0098 83FD000C 		lwz 31,12(29)
 5852              	.LVL436:
 5853              	.LBB3972:
 5854              	.LBB3957:
 5855              	.LBB3958:
 5856              	.LBB3959:
 5857              		.loc 11 1072 0
 5858 009c 2F9F0000 		cmpwi 7,31,0
 5859 00a0 419E0028 		beq- 7,.L313
 5860              	.LVL437:
 5861              	.L358:
 5862              	.LBB3960:
 5863              		.loc 11 1074 0
 5864 00a4 809F000C 		lwz 4,12(31)
 5865 00a8 7FC3F378 		mr 3,30
 5866 00ac 48000001 		bl _ZNSt8_Rb_treeIPN7sigslot12_signal_baseINS0_15single_threadedEEES4_St9_IdentityIS4_ESt4lessIS4_
 5867              	.LBE3960:
 5868              	.LBE3959:
 5869              		.loc 4 407 0
 5870 00b0 82BF0008 		lwz 21,8(31)
 5871              	.LVL438:
 5872              	.LBB3966:
 5873              	.LBB3965:
 5874              	.LBB3961:
 5875              	.LBB3962:
 5876              	.LBB3963:
 5877              	.LBB3964:
 5878              		.loc 6 98 0
 5879 00b4 7FE3FB78 		mr 3,31
 5880 00b8 48000001 		bl _ZdlPv
 5881              	.LVL439:
 5882              	.LBE3964:
 5883              	.LBE3963:
 5884              	.LBE3962:
 5885              	.LBE3961:
 5886              	.LBE3965:
 5887              		.loc 11 1072 0
 5888 00bc 2F950000 		cmpwi 7,21,0
 5889              		.loc 11 1077 0
 5890 00c0 7EBFAB78 		mr 31,21
 5891              	.LVL440:
 5892              		.loc 11 1072 0
 5893 00c4 409EFFE0 		bne+ 7,.L358
 5894              	.LVL441:
 5895              	.L313:
 5896              	.LBE3966:
 5897              	.LBE3958:
 5898              	.LBE3957:
 5899              	.LBE3972:
 5900              		.loc 4 407 0
 5901 00c8 83FD0008 		lwz 31,8(29)
 5902              	.LVL442:
 5903              	.LBB3973:
 5904              	.LBB3971:
 5905              	.LBB3967:
 5906              	.LBB3968:
 5907              	.LBB3969:
 5908              	.LBB3970:
 5909              		.loc 6 98 0
 5910 00cc 7FA3EB78 		mr 3,29
 5911 00d0 48000001 		bl _ZdlPv
 5912              	.LVL443:
 5913              	.LBE3970:
 5914              	.LBE3969:
 5915              	.LBE3968:
 5916              	.LBE3967:
 5917              	.LBE3971:
 5918              		.loc 11 1072 0
 5919 00d4 2F9F0000 		cmpwi 7,31,0
 5920 00d8 419E000C 		beq- 7,.L312
 5921              		.loc 11 1077 0
 5922 00dc 7FFDFB78 		mr 29,31
 5923              	.LVL444:
 5924 00e0 4BFFFFB8 		b .L357
 5925              	.LVL445:
 5926              	.L312:
 5927              	.LBE3973:
 5928              	.LBE3955:
 5929              	.LBE3954:
 5930              	.LBE3979:
 5931              		.loc 4 407 0
 5932 00e4 83FC0008 		lwz 31,8(28)
 5933              	.LVL446:
 5934              	.LBB3980:
 5935              	.LBB3978:
 5936              	.LBB3974:
 5937              	.LBB3975:
 5938              	.LBB3976:
 5939              	.LBB3977:
 5940              		.loc 6 98 0
 5941 00e8 7F83E378 		mr 3,28
 5942 00ec 48000001 		bl _ZdlPv
 5943              	.LVL447:
 5944              	.LBE3977:
 5945              	.LBE3976:
 5946              	.LBE3975:
 5947              	.LBE3974:
 5948              	.LBE3978:
 5949              		.loc 11 1072 0
 5950 00f0 2F9F0000 		cmpwi 7,31,0
 5951 00f4 419E000C 		beq- 7,.L311
 5952              		.loc 11 1077 0
 5953 00f8 7FFCFB78 		mr 28,31
 5954              	.LVL448:
 5955 00fc 4BFFFF90 		b .L356
 5956              	.LVL449:
 5957              	.L311:
 5958              	.LBE3980:
 5959              	.LBE3952:
 5960              	.LBE3951:
 5961              	.LBE3986:
 5962              		.loc 4 407 0
 5963 0100 83F70008 		lwz 31,8(23)
 5964              	.LVL450:
 5965              	.LBB3987:
 5966              	.LBB3985:
 5967              	.LBB3981:
 5968              	.LBB3982:
 5969              	.LBB3983:
 5970              	.LBB3984:
 5971              		.loc 6 98 0
 5972 0104 7EE3BB78 		mr 3,23
 5973 0108 48000001 		bl _ZdlPv
 5974              	.LVL451:
 5975              	.LBE3984:
 5976              	.LBE3983:
 5977              	.LBE3982:
 5978              	.LBE3981:
 5979              	.LBE3985:
 5980              		.loc 11 1072 0
 5981 010c 2F9F0000 		cmpwi 7,31,0
 5982 0110 419E000C 		beq- 7,.L310
 5983              		.loc 11 1077 0
 5984 0114 7FF7FB78 		mr 23,31
 5985              	.LVL452:
 5986 0118 4BFFFF68 		b .L355
 5987              	.LVL453:
 5988              	.L310:
 5989              	.LBE3987:
 5990              	.LBE3949:
 5991              	.LBE3948:
 5992              	.LBE3993:
 5993              		.loc 4 407 0
 5994 011c 83F80008 		lwz 31,8(24)
 5995              	.LVL454:
 5996              	.LBB3994:
 5997              	.LBB3992:
 5998              	.LBB3988:
 5999              	.LBB3989:
 6000              	.LBB3990:
 6001              	.LBB3991:
 6002              		.loc 6 98 0
 6003 0120 7F03C378 		mr 3,24
 6004 0124 48000001 		bl _ZdlPv
 6005              	.LVL455:
 6006              	.LBE3991:
 6007              	.LBE3990:
 6008              	.LBE3989:
 6009              	.LBE3988:
 6010              	.LBE3992:
 6011              		.loc 11 1072 0
 6012 0128 2F9F0000 		cmpwi 7,31,0
 6013 012c 419E000C 		beq- 7,.L309
 6014              		.loc 11 1077 0
 6015 0130 7FF8FB78 		mr 24,31
 6016              	.LVL456:
 6017 0134 4BFFFF40 		b .L354
 6018              	.LVL457:
 6019              	.L309:
 6020              	.LBE3994:
 6021              	.LBE3946:
 6022              	.LBE3945:
 6023              	.LBE4000:
 6024              		.loc 4 407 0
 6025 0138 83F90008 		lwz 31,8(25)
 6026              	.LVL458:
 6027              	.LBB4001:
 6028              	.LBB3999:
 6029              	.LBB3995:
 6030              	.LBB3996:
 6031              	.LBB3997:
 6032              	.LBB3998:
 6033              		.loc 6 98 0
 6034 013c 7F23CB78 		mr 3,25
 6035 0140 48000001 		bl _ZdlPv
 6036              	.LVL459:
 6037              	.LBE3998:
 6038              	.LBE3997:
 6039              	.LBE3996:
 6040              	.LBE3995:
 6041              	.LBE3999:
 6042              		.loc 11 1072 0
 6043 0144 2F9F0000 		cmpwi 7,31,0
 6044 0148 419E000C 		beq- 7,.L308
 6045              		.loc 11 1077 0
 6046 014c 7FF9FB78 		mr 25,31
 6047              	.LVL460:
 6048 0150 4BFFFF18 		b .L353
 6049              	.LVL461:
 6050              	.L308:
 6051              	.LBE4001:
 6052              	.LBE3943:
 6053              	.LBE3942:
 6054              	.LBE4007:
 6055              		.loc 4 407 0
 6056 0154 83FA0008 		lwz 31,8(26)
 6057              	.LVL462:
 6058              	.LBB4008:
 6059              	.LBB4006:
 6060              	.LBB4002:
 6061              	.LBB4003:
 6062              	.LBB4004:
 6063              	.LBB4005:
 6064              		.loc 6 98 0
 6065 0158 7F43D378 		mr 3,26
 6066 015c 48000001 		bl _ZdlPv
 6067              	.LVL463:
 6068              	.LBE4005:
 6069              	.LBE4004:
 6070              	.LBE4003:
 6071              	.LBE4002:
 6072              	.LBE4006:
 6073              		.loc 11 1072 0
 6074 0160 2F9F0000 		cmpwi 7,31,0
 6075 0164 419E000C 		beq- 7,.L307
 6076              		.loc 11 1077 0
 6077 0168 7FFAFB78 		mr 26,31
 6078              	.LVL464:
 6079 016c 4BFFFEF0 		b .L352
 6080              	.LVL465:
 6081              	.L307:
 6082              	.LBE4008:
 6083              	.LBE3940:
 6084              	.LBE3939:
 6085              	.LBE4014:
 6086              		.loc 4 407 0
 6087 0170 83FB0008 		lwz 31,8(27)
 6088              	.LVL466:
 6089              	.LBB4015:
 6090              	.LBB4013:
 6091              	.LBB4009:
 6092              	.LBB4010:
 6093              	.LBB4011:
 6094              	.LBB4012:
 6095              		.loc 6 98 0
 6096 0174 7F63DB78 		mr 3,27
 6097 0178 48000001 		bl _ZdlPv
 6098              	.LVL467:
 6099              	.LBE4012:
 6100              	.LBE4011:
 6101              	.LBE4010:
 6102              	.LBE4009:
 6103              	.LBE4013:
 6104              		.loc 11 1072 0
 6105 017c 2F9F0000 		cmpwi 7,31,0
 6106 0180 419E000C 		beq- 7,.L306
 6107              		.loc 11 1077 0
 6108 0184 7FFBFB78 		mr 27,31
 6109              	.LVL468:
 6110 0188 4BFFFEC8 		b .L351
 6111              	.LVL469:
 6112              	.L306:
 6113              		.loc 4 407 0
 6114 018c 83F60008 		lwz 31,8(22)
 6115              	.LVL470:
 6116              	.LBE4015:
 6117              	.LBE3937:
 6118              	.LBB4016:
 6119              	.LBB4017:
 6120              	.LBB4018:
 6121              	.LBB4019:
 6122              		.loc 6 98 0
 6123 0190 7EC3B378 		mr 3,22
 6124 0194 48000001 		bl _ZdlPv
 6125              	.LVL471:
 6126              	.LBE4019:
 6127              	.LBE4018:
 6128              	.LBE4017:
 6129              	.LBE4016:
 6130              	.LBE3936:
 6131              		.loc 11 1072 0
 6132 0198 2F9F0000 		cmpwi 7,31,0
 6133 019c 419E000C 		beq- 7,.L304
 6134              		.loc 11 1077 0
 6135 01a0 7FF6FB78 		mr 22,31
 6136              	.LVL472:
 6137 01a4 4BFFFEA0 		b .L350
 6138              	.LVL473:
 6139              	.L304:
 6140              	.LBE4020:
 6141              		.loc 11 1079 0
 6142 01a8 8001003C 		lwz 0,60(1)
 6143 01ac 82A1000C 		lwz 21,12(1)
 6144 01b0 7C0803A6 		mtlr 0
 6145 01b4 82C10010 		lwz 22,16(1)
 6146 01b8 82E10014 		lwz 23,20(1)
 6147 01bc 83010018 		lwz 24,24(1)
 6148 01c0 8321001C 		lwz 25,28(1)
 6149 01c4 83410020 		lwz 26,32(1)
 6150 01c8 83610024 		lwz 27,36(1)
 6151 01cc 83810028 		lwz 28,40(1)
 6152 01d0 83A1002C 		lwz 29,44(1)
 6153 01d4 83C10030 		lwz 30,48(1)
 6154              	.LVL474:
 6155 01d8 83E10034 		lwz 31,52(1)
 6156 01dc 38210038 		addi 1,1,56
 6157              	.LCFI130:
 6158              		.cfi_def_cfa_offset 0
 6159              		.cfi_restore 31
 6160              		.cfi_restore 30
 6161              		.cfi_restore 29
 6162              		.cfi_restore 28
 6163              		.cfi_restore 27
 6164              		.cfi_restore 26
 6165              		.cfi_restore 25
 6166              		.cfi_restore 24
 6167              		.cfi_restore 23
 6168              		.cfi_restore 22
 6169              		.cfi_restore 21
 6170 01e0 4E800020 		blr
 6171              		.cfi_endproc
 6172              	.LFE2038:
 6173              		.size	_ZNSt8_Rb_treeIPN7sigslot12_signal_baseINS0_15single_threadedEEES4_St9_IdentityIS4_ESt4lessI
 6174              		.section	.text._ZN7sigslot9has_slotsINS_15single_threadedEED2Ev,"axG",@progbits,_ZN7sigslot9has_sl
 6175              		.align 2
 6176              		.weak	_ZN7sigslot9has_slotsINS_15single_threadedEED2Ev
 6177              		.type	_ZN7sigslot9has_slotsINS_15single_threadedEED2Ev, @function
 6178              	_ZN7sigslot9has_slotsINS_15single_threadedEED2Ev:
 6179              	.LFB1791:
 6180              		.loc 1 513 0
 6181              		.cfi_startproc
 6182              		.cfi_personality 0,__gxx_personality_v0
 6183              		.cfi_lsda 0,.LLSDA1791
 6184              	.LVL475:
 6185 0000 7C0802A6 		mflr 0
 6186 0004 9421FFE0 		stwu 1,-32(1)
 6187              	.LCFI131:
 6188              		.cfi_def_cfa_offset 32
 6189              		.cfi_register 65, 0
 6190              	.LBB4167:
 6191              		.loc 1 516 0
 6192 0008 3D200000 		lis 9,_ZTVN7sigslot9has_slotsINS_15single_threadedEEE+8@ha
 6193              	.LBE4167:
 6194              		.loc 1 513 0
 6195 000c 93810010 		stw 28,16(1)
 6196 0010 3B830004 		addi 28,3,4
 6197              		.cfi_offset 28, -16
 6198 0014 90010024 		stw 0,36(1)
 6199              	.LBB4243:
 6200              		.loc 1 516 0
 6201 0018 38090008 		la 0,_ZTVN7sigslot9has_slotsINS_15single_threadedEEE+8@l(9)
 6202              		.cfi_offset 65, 4
 6203              	.LBE4243:
 6204              		.loc 1 513 0
 6205 001c 93A10014 		stw 29,20(1)
 6206 0020 7C7D1B78 		mr 29,3
 6207              		.cfi_offset 29, -12
 6208 0024 93410008 		stw 26,8(1)
 6209 0028 9361000C 		stw 27,12(1)
 6210 002c 93C10018 		stw 30,24(1)
 6211 0030 93E1001C 		stw 31,28(1)
 6212              	.LBB4244:
 6213              		.loc 1 516 0
 6214 0034 90030000 		stw 0,0(3)
 6215              	.LVL476:
 6216              	.LEHB39:
 6217              	.LBB4168:
 6218              	.LBB4169:
 6219              	.LBB4170:
 6220              	.LBB4171:
 6221              		.loc 1 338 0
 6222              		.cfi_offset 31, -4
 6223              		.cfi_offset 30, -8
 6224              		.cfi_offset 27, -20
 6225              		.cfi_offset 26, -24
 6226 0038 48000001 		bl _ZN7sigslot15single_threaded4lockEv
 6227              	.LEHE39:
 6228              	.LVL477:
 6229              	.LBE4171:
 6230              	.LBE4170:
 6231              	.LBB4172:
 6232              		.loc 4 407 0
 6233 003c 83FD0010 		lwz 31,16(29)
 6234              	.LVL478:
 6235              	.LBE4172:
 6236              	.LBB4173:
 6237              	.LBB4174:
 6238              	.LBB4175:
 6239              		.loc 11 671 0
 6240 0040 3BDC0004 		addi 30,28,4
 6241              	.LVL479:
 6242              	.LBE4175:
 6243              	.LBE4174:
 6244              	.LBE4173:
 6245              		.loc 1 524 0
 6246 0044 7F9FF000 		cmpw 7,31,30
 6247 0048 419E0034 		beq- 7,.L360
 6248              	.LVL480:
 6249              	.L387:
 6250              		.loc 1 526 0
 6251 004c 807F0010 		lwz 3,16(31)
 6252 0050 7FA4EB78 		mr 4,29
 6253 0054 81230000 		lwz 9,0(3)
 6254 0058 80090010 		lwz 0,16(9)
 6255 005c 7C0903A6 		mtctr 0
 6256              	.LEHB40:
 6257 0060 4E800421 		bctrl
 6258              	.LEHE40:
 6259              	.LVL481:
 6260              	.LBB4176:
 6261              	.LBB4177:
 6262              		.loc 11 269 0
 6263 0064 7FE3FB78 		mr 3,31
 6264 0068 48000001 		bl _ZSt18_Rb_tree_incrementPKSt18_Rb_tree_node_base
 6265              	.LBE4177:
 6266              	.LBE4176:
 6267              		.loc 1 524 0
 6268 006c 7F9E1800 		cmpw 7,30,3
 6269              	.LBB4179:
 6270              	.LBB4178:
 6271              		.loc 11 269 0
 6272 0070 7C7F1B78 		mr 31,3
 6273              	.LVL482:
 6274              	.LBE4178:
 6275              	.LBE4179:
 6276              		.loc 1 524 0
 6277 0074 409EFFD8 		bne+ 7,.L387
 6278 0078 83FD0010 		lwz 31,16(29)
 6279              	.LVL483:
 6280              	.L360:
 6281              	.LBB4180:
 6282              	.LBB4181:
 6283              	.LBB4182:
 6284              	.LBB4183:
 6285              	.LBB4184:
 6286              	.LBB4185:
 6287              	.LBB4186:
 6288              		.loc 11 665 0
 6289 007c 3B5C0004 		addi 26,28,4
 6290              	.LBE4186:
 6291              	.LBE4185:
 6292              		.loc 11 1500 0
 6293 0080 7F9ED000 		cmpw 7,30,26
 6294 0084 419E0098 		beq- 7,.L362
 6295              	.LVL484:
 6296              		.loc 11 1503 0
 6297 0088 7F9EF800 		cmpw 7,30,31
 6298 008c 40BE000C 		bne+ 7,.L389
 6299 0090 48000038 		b .L363
 6300              	.LVL485:
 6301              	.L384:
 6302              		.loc 11 277 0
 6303 0094 7F7FDB78 		mr 31,27
 6304              	.LVL486:
 6305              	.L389:
 6306              	.LBB4187:
 6307              	.LBB4188:
 6308 0098 7FE3FB78 		mr 3,31
 6309 009c 48000001 		bl _ZSt18_Rb_tree_incrementPKSt18_Rb_tree_node_base
 6310              	.LBE4188:
 6311              	.LBE4187:
 6312              	.LBB4190:
 6313              	.LBB4191:
 6314              	.LBB4192:
 6315              		.loc 11 1489 0
 6316 00a0 7F44D378 		mr 4,26
 6317              	.LBE4192:
 6318              	.LBE4191:
 6319              	.LBE4190:
 6320              	.LBB4201:
 6321              	.LBB4189:
 6322              		.loc 11 277 0
 6323 00a4 7C7B1B78 		mr 27,3
 6324              	.LVL487:
 6325              	.LBE4189:
 6326              	.LBE4201:
 6327              	.LBB4202:
 6328              	.LBB4199:
 6329              	.LBB4197:
 6330              		.loc 11 1489 0
 6331 00a8 7FE3FB78 		mr 3,31
 6332              	.LVL488:
 6333 00ac 48000001 		bl _ZSt28_Rb_tree_rebalance_for_erasePSt18_Rb_tree_node_baseRS_
 6334              	.LBB4193:
 6335              	.LBB4194:
 6336              	.LBB4195:
 6337              	.LBB4196:
 6338              		.loc 6 98 0
 6339 00b0 48000001 		bl _ZdlPv
 6340              	.LBE4196:
 6341              	.LBE4195:
 6342              	.LBE4194:
 6343              	.LBE4193:
 6344              	.LBE4197:
 6345              	.LBE4199:
 6346              	.LBE4202:
 6347              		.loc 11 1503 0
 6348 00b4 7F9ED800 		cmpw 7,30,27
 6349              	.LBB4203:
 6350              	.LBB4200:
 6351              	.LBB4198:
 6352              		.loc 11 1491 0
 6353 00b8 813C0014 		lwz 9,20(28)
 6354 00bc 3809FFFF 		addi 0,9,-1
 6355 00c0 901C0014 		stw 0,20(28)
 6356              	.LBE4198:
 6357              	.LBE4200:
 6358              	.LBE4203:
 6359              		.loc 11 1503 0
 6360 00c4 409EFFD0 		bne+ 7,.L384
 6361              	.LVL489:
 6362              	.L363:
 6363              	.LBE4184:
 6364              	.LBE4183:
 6365              	.LBE4182:
 6366              	.LBE4181:
 6367              	.LBE4180:
 6368              	.LBB4212:
 6369              	.LBB4213:
 6370              	.LBB4214:
 6371              		.loc 1 343 0
 6372 00c8 813D0000 		lwz 9,0(29)
 6373 00cc 7FA3EB78 		mr 3,29
 6374 00d0 8009000C 		lwz 0,12(9)
 6375 00d4 7C0903A6 		mtctr 0
 6376              	.LEHB41:
 6377 00d8 4E800421 		bctrl
 6378              	.LEHE41:
 6379              	.LVL490:
 6380              	.LBE4214:
 6381              	.LBE4213:
 6382              	.LBE4212:
 6383              	.LBE4169:
 6384              	.LBE4168:
 6385              	.LBB4221:
 6386              	.LBB4222:
 6387              	.LBB4223:
 6388              	.LBB4224:
 6389              	.LBB4225:
 6390              		.loc 11 639 0
 6391 00dc 809D000C 		lwz 4,12(29)
 6392 00e0 7F83E378 		mr 3,28
 6393 00e4 48000001 		bl _ZNSt8_Rb_treeIPN7sigslot12_signal_baseINS0_15single_threadedEEES4_St9_IdentityIS4_ESt4lessIS4_
 6394              	.LVL491:
 6395              	.LBE4225:
 6396              	.LBE4224:
 6397              	.LBE4223:
 6398              	.LBE4222:
 6399              	.LBE4221:
 6400              	.LBB4226:
 6401              	.LBB4227:
 6402              	.LBB4228:
 6403              		.loc 1 105 0
 6404 00e8 3D200000 		lis 9,_ZTVN7sigslot15single_threadedE+8@ha
 6405 00ec 38090008 		la 0,_ZTVN7sigslot15single_threadedE+8@l(9)
 6406              	.LBE4228:
 6407              	.LBE4227:
 6408              	.LBE4226:
 6409              	.LBE4244:
 6410              		.loc 1 516 0
 6411 00f0 83410008 		lwz 26,8(1)
 6412              	.LBB4245:
 6413              	.LBB4231:
 6414              	.LBB4230:
 6415              	.LBB4229:
 6416              		.loc 1 105 0
 6417 00f4 901D0000 		stw 0,0(29)
 6418              	.LBE4229:
 6419              	.LBE4230:
 6420              	.LBE4231:
 6421              	.LBE4245:
 6422              		.loc 1 516 0
 6423 00f8 80010024 		lwz 0,36(1)
 6424 00fc 8361000C 		lwz 27,12(1)
 6425 0100 7C0803A6 		mtlr 0
 6426 0104 83810010 		lwz 28,16(1)
 6427              	.LVL492:
 6428 0108 83A10014 		lwz 29,20(1)
 6429              	.LVL493:
 6430 010c 83C10018 		lwz 30,24(1)
 6431              	.LVL494:
 6432 0110 83E1001C 		lwz 31,28(1)
 6433 0114 38210020 		addi 1,1,32
 6434              		.cfi_remember_state
 6435              	.LCFI132:
 6436              		.cfi_def_cfa_offset 0
 6437              		.cfi_restore 31
 6438              		.cfi_restore 30
 6439              		.cfi_restore 29
 6440              		.cfi_restore 28
 6441              		.cfi_restore 27
 6442              		.cfi_restore 26
 6443 0118 4E800020 		blr
 6444              	.LVL495:
 6445              	.L362:
 6446              	.LCFI133:
 6447              		.cfi_restore_state
 6448              	.LBB4246:
 6449              	.LBB4232:
 6450              	.LBB4219:
 6451              	.LBB4215:
 6452              	.LBB4211:
 6453              	.LBB4210:
 6454              	.LBB4209:
 6455              	.LBB4208:
 6456              	.LBB4204:
 6457              	.LBB4205:
 6458              	.LBB4206:
 6459              	.LBB4207:
 6460              		.loc 11 809 0
 6461 011c 809D000C 		lwz 4,12(29)
 6462 0120 7F83E378 		mr 3,28
 6463 0124 48000001 		bl _ZNSt8_Rb_treeIPN7sigslot12_signal_baseINS0_15single_threadedEEES4_St9_IdentityIS4_ESt4lessIS4_
 6464              	.LVL496:
 6465              		.loc 11 811 0
 6466 0128 38000000 		li 0,0
 6467              		.loc 11 810 0
 6468 012c 93DD0010 		stw 30,16(29)
 6469              	.LVL497:
 6470              		.loc 11 811 0
 6471 0130 901D000C 		stw 0,12(29)
 6472              	.LVL498:
 6473              		.loc 11 812 0
 6474 0134 93DD0014 		stw 30,20(29)
 6475              		.loc 11 813 0
 6476 0138 901D0018 		stw 0,24(29)
 6477 013c 4BFFFF8C 		b .L363
 6478              	.LVL499:
 6479              	.L385:
 6480 0140 7C7F1B78 		mr 31,3
 6481              	.L370:
 6482              	.LVL500:
 6483              	.LBE4207:
 6484              	.LBE4206:
 6485              	.LBE4205:
 6486              	.LBE4204:
 6487              	.LBE4208:
 6488              	.LBE4209:
 6489              	.LBE4210:
 6490              	.LBE4211:
 6491              	.LBE4215:
 6492              	.LBE4219:
 6493              	.LBE4232:
 6494              	.LBB4233:
 6495              	.LBB4234:
 6496              	.LBB4235:
 6497              	.LBB4236:
 6498              	.LBB4237:
 6499              	.LBB4238:
 6500              		.loc 11 639 0
 6501 0144 809D000C 		lwz 4,12(29)
 6502 0148 7F83E378 		mr 3,28
 6503 014c 48000001 		bl _ZNSt8_Rb_treeIPN7sigslot12_signal_baseINS0_15single_threadedEEES4_St9_IdentityIS4_ESt4lessIS4_
 6504              	.LVL501:
 6505              	.LBE4238:
 6506              	.LBE4237:
 6507              	.LBE4236:
 6508              	.LBE4235:
 6509              	.LBE4234:
 6510              	.LBE4233:
 6511              	.LBB4239:
 6512              	.LBB4240:
 6513              	.LBB4241:
 6514              		.loc 1 105 0
 6515 0150 3D200000 		lis 9,_ZTVN7sigslot15single_threadedE+8@ha
 6516 0154 38090008 		la 0,_ZTVN7sigslot15single_threadedE+8@l(9)
 6517 0158 7FE3FB78 		mr 3,31
 6518 015c 901D0000 		stw 0,0(29)
 6519              	.LEHB42:
 6520 0160 48000001 		bl _Unwind_Resume
 6521              	.LEHE42:
 6522              	.LVL502:
 6523              	.L386:
 6524              	.LBE4241:
 6525              	.LBE4240:
 6526              	.LBE4239:
 6527              	.LBB4242:
 6528              	.LBB4220:
 6529              	.LBB4216:
 6530              	.LBB4217:
 6531              	.LBB4218:
 6532              		.loc 1 343 0
 6533 0164 813D0000 		lwz 9,0(29)
 6534 0168 7C7F1B78 		mr 31,3
 6535              	.LVL503:
 6536 016c 7FA3EB78 		mr 3,29
 6537 0170 8009000C 		lwz 0,12(9)
 6538 0174 7C0903A6 		mtctr 0
 6539 0178 4E800421 		bctrl
 6540 017c 4BFFFFC8 		b .L370
 6541              	.LBE4218:
 6542              	.LBE4217:
 6543              	.LBE4216:
 6544              	.LBE4220:
 6545              	.LBE4242:
 6546              	.LBE4246:
 6547              		.cfi_endproc
 6548              	.LFE1791:
 6549              		.section	.gcc_except_table
 6550              	.LLSDA1791:
 6551 00e7 FF       		.byte	0xff
 6552 00e8 FF       		.byte	0xff
 6553 00e9 01       		.byte	0x1
 6554 00ea 15       		.uleb128 .LLSDACSE1791-.LLSDACSB1791
 6555              	.LLSDACSB1791:
 6556 00eb 38       		.uleb128 .LEHB39-.LFB1791
 6557 00ec 04       		.uleb128 .LEHE39-.LEHB39
 6558 00ed C002     		.uleb128 .L385-.LFB1791
 6559 00ef 00       		.uleb128 0
 6560 00f0 60       		.uleb128 .LEHB40-.LFB1791
 6561 00f1 04       		.uleb128 .LEHE40-.LEHB40
 6562 00f2 E402     		.uleb128 .L386-.LFB1791
 6563 00f4 00       		.uleb128 0
 6564 00f5 D801     		.uleb128 .LEHB41-.LFB1791
 6565 00f7 04       		.uleb128 .LEHE41-.LEHB41
 6566 00f8 C002     		.uleb128 .L385-.LFB1791
 6567 00fa 00       		.uleb128 0
 6568 00fb E002     		.uleb128 .LEHB42-.LFB1791
 6569 00fd 04       		.uleb128 .LEHE42-.LEHB42
 6570 00fe 00       		.uleb128 0
 6571 00ff 00       		.uleb128 0
 6572              	.LLSDACSE1791:
 6573              		.section	.text._ZN7sigslot9has_slotsINS_15single_threadedEED2Ev,"axG",@progbits,_ZN7sigslot9has_sl
 6574              		.size	_ZN7sigslot9has_slotsINS_15single_threadedEED2Ev, .-_ZN7sigslot9has_slotsINS_15single_thread
 6575              		.section	.text._ZN7sigslot9has_slotsINS_15single_threadedEED0Ev,"axG",@progbits,_ZN7sigslot9has_sl
 6576              		.align 2
 6577              		.weak	_ZN7sigslot9has_slotsINS_15single_threadedEED0Ev
 6578              		.type	_ZN7sigslot9has_slotsINS_15single_threadedEED0Ev, @function
 6579              	_ZN7sigslot9has_slotsINS_15single_threadedEED0Ev:
 6580              	.LFB1793:
 6581              		.loc 1 513 0
 6582              		.cfi_startproc
 6583              		.cfi_personality 0,__gxx_personality_v0
 6584              		.cfi_lsda 0,.LLSDA1793
 6585              	.LVL504:
 6586 0000 7C0802A6 		mflr 0
 6587 0004 9421FFE0 		stwu 1,-32(1)
 6588              	.LCFI134:
 6589              		.cfi_def_cfa_offset 32
 6590              		.cfi_register 65, 0
 6591              	.LBB4340:
 6592              	.LBB4341:
 6593              	.LBB4342:
 6594              		.loc 1 516 0
 6595 0008 3D200000 		lis 9,_ZTVN7sigslot9has_slotsINS_15single_threadedEEE+8@ha
 6596              	.LBE4342:
 6597              	.LBE4341:
 6598              	.LBE4340:
 6599              		.loc 1 513 0
 6600 000c 93810010 		stw 28,16(1)
 6601 0010 3B830004 		addi 28,3,4
 6602              		.cfi_offset 28, -16
 6603 0014 90010024 		stw 0,36(1)
 6604              	.LBB4426:
 6605              	.LBB4422:
 6606              	.LBB4418:
 6607              		.loc 1 516 0
 6608 0018 38090008 		la 0,_ZTVN7sigslot9has_slotsINS_15single_threadedEEE+8@l(9)
 6609              		.cfi_offset 65, 4
 6610              	.LBE4418:
 6611              	.LBE4422:
 6612              	.LBE4426:
 6613              		.loc 1 513 0
 6614 001c 93A10014 		stw 29,20(1)
 6615 0020 7C7D1B78 		mr 29,3
 6616              		.cfi_offset 29, -12
 6617              	.LVL505:
