	.file	"Task.cpp"
	.section	".text"
.Ltext0:
	.section	.text._ZN7sigslot15single_threadedD2Ev,"axG",@progbits,_ZN7sigslot15single_threadedD5Ev,comdat
	.align 2
	.weak	_ZN7sigslot15single_threadedD2Ev
	.type	_ZN7sigslot15single_threadedD2Ev, @function
_ZN7sigslot15single_threadedD2Ev:
.LFB1148:
	.file 1 "d:/Projects/SaveGameManager/savegame-manager-gx/trunk/source/Controls/../GUI/../sigslot.h"
	.loc 1 104 0
	.cfi_startproc
.LVL0:
.LBB2878:
	.loc 1 105 0
	lis 9,_ZTVN7sigslot15single_threadedE+8@ha
.LBE2878:
	.loc 1 107 0
.LBB2879:
	.loc 1 105 0
	la 0,_ZTVN7sigslot15single_threadedE+8@l(9)
	stw 0,0(3)
.LBE2879:
	.loc 1 107 0
	blr
	.cfi_endproc
.LFE1148:
	.size	_ZN7sigslot15single_threadedD2Ev, .-_ZN7sigslot15single_threadedD2Ev
	.section	.text._ZN7sigslot15single_threaded4lockEv,"axG",@progbits,_ZN7sigslot15single_threaded4lockEv,comdat
	.align 2
	.weak	_ZN7sigslot15single_threaded4lockEv
	.type	_ZN7sigslot15single_threaded4lockEv, @function
_ZN7sigslot15single_threaded4lockEv:
.LFB1151:
	.loc 1 109 0
	.cfi_startproc
.LVL1:
	.loc 1 112 0
	blr
	.cfi_endproc
.LFE1151:
	.size	_ZN7sigslot15single_threaded4lockEv, .-_ZN7sigslot15single_threaded4lockEv
	.section	.text._ZN7sigslot15single_threaded6unlockEv,"axG",@progbits,_ZN7sigslot15single_threaded6unlockEv,comdat
	.align 2
	.weak	_ZN7sigslot15single_threaded6unlockEv
	.type	_ZN7sigslot15single_threaded6unlockEv, @function
_ZN7sigslot15single_threaded6unlockEv:
.LFB1152:
	.loc 1 114 0
	.cfi_startproc
.LVL2:
	.loc 1 117 0
	blr
	.cfi_endproc
.LFE1152:
	.size	_ZN7sigslot15single_threaded6unlockEv, .-_ZN7sigslot15single_threaded6unlockEv
	.section	.text._ZN10GuiElement9SetParentEPS_,"axG",@progbits,_ZN10GuiElement9SetParentEPS_,comdat
	.align 2
	.weak	_ZN10GuiElement9SetParentEPS_
	.type	_ZN10GuiElement9SetParentEPS_, @function
_ZN10GuiElement9SetParentEPS_:
.LFB1384:
	.file 2 "d:/Projects/SaveGameManager/savegame-manager-gx/trunk/source/Controls/../GUI/gui_element.h"
	.loc 2 92 0
	.cfi_startproc
.LVL3:
	.loc 2 92 0
	stw 4,96(3)
	blr
	.cfi_endproc
.LFE1384:
	.size	_ZN10GuiElement9SetParentEPS_, .-_ZN10GuiElement9SetParentEPS_
	.section	.text._ZN10GuiElement9GetParentEv,"axG",@progbits,_ZN10GuiElement9GetParentEv,comdat
	.align 2
	.weak	_ZN10GuiElement9GetParentEv
	.type	_ZN10GuiElement9GetParentEv, @function
_ZN10GuiElement9GetParentEv:
.LFB1385:
	.loc 2 95 0
	.cfi_startproc
.LVL4:
	.loc 2 95 0
	lwz 3,96(3)
.LVL5:
	blr
	.cfi_endproc
.LFE1385:
	.size	_ZN10GuiElement9GetParentEv, .-_ZN10GuiElement9GetParentEv
	.section	.text._ZN10GuiElement12GetZPositionEv,"axG",@progbits,_ZN10GuiElement12GetZPositionEv,comdat
	.align 2
	.weak	_ZN10GuiElement12GetZPositionEv
	.type	_ZN10GuiElement12GetZPositionEv, @function
_ZN10GuiElement12GetZPositionEv:
.LFB1386:
	.loc 2 106 0
	.cfi_startproc
.LVL6:
	mflr 0
	stwu 1,-16(1)
.LCFI0:
	.cfi_def_cfa_offset 16
	.cfi_register 65, 0
	stw 31,12(1)
	mr 31,3
	.cfi_offset 31, -4
	stw 0,20(1)
.LBB2880:
	.loc 2 110 0
	lwz 11,96(3)
	.loc 2 108 0
	li 3,0
.LVL7:
	.loc 2 110 0
	cmpwi 7,11,0
	beq- 7,.L8
	.cfi_offset 65, 4
	.loc 2 111 0
	lwz 9,0(11)
	mr 3,11
	lwz 0,24(9)
	mtctr 0
	bctrl
.LVL8:
.L8:
	.loc 2 113 0
	lwz 0,52(31)
.LBE2880:
	.loc 2 114 0
	lwz 31,12(1)
.LVL9:
	add 3,3,0
.LVL10:
	lwz 0,20(1)
	addi 1,1,16
.LCFI1:
	.cfi_def_cfa_offset 0
	.cfi_restore 31
	mtlr 0
	blr
	.cfi_endproc
.LFE1386:
	.size	_ZN10GuiElement12GetZPositionEv, .-_ZN10GuiElement12GetZPositionEv
	.section	.text._ZN10GuiElement10GetLeftPosEv,"axG",@progbits,_ZN10GuiElement10GetLeftPosEv,comdat
	.align 2
	.weak	_ZN10GuiElement10GetLeftPosEv
	.type	_ZN10GuiElement10GetLeftPosEv, @function
_ZN10GuiElement10GetLeftPosEv:
.LFB1387:
	.loc 2 116 0
	.cfi_startproc
.LVL11:
	.loc 2 116 0
	lwz 3,44(3)
.LVL12:
	blr
	.cfi_endproc
.LFE1387:
	.size	_ZN10GuiElement10GetLeftPosEv, .-_ZN10GuiElement10GetLeftPosEv
	.section	.text._ZN10GuiElement9GetTopPosEv,"axG",@progbits,_ZN10GuiElement9GetTopPosEv,comdat
	.align 2
	.weak	_ZN10GuiElement9GetTopPosEv
	.type	_ZN10GuiElement9GetTopPosEv, @function
_ZN10GuiElement9GetTopPosEv:
.LFB1388:
	.loc 2 118 0
	.cfi_startproc
.LVL13:
	.loc 2 118 0
	lwz 3,48(3)
.LVL14:
	blr
	.cfi_endproc
.LFE1388:
	.size	_ZN10GuiElement9GetTopPosEv, .-_ZN10GuiElement9GetTopPosEv
	.section	.text._ZN10GuiElement8GetWidthEv,"axG",@progbits,_ZN10GuiElement8GetWidthEv,comdat
	.align 2
	.weak	_ZN10GuiElement8GetWidthEv
	.type	_ZN10GuiElement8GetWidthEv, @function
_ZN10GuiElement8GetWidthEv:
.LFB1389:
	.loc 2 121 0
	.cfi_startproc
.LVL15:
	.loc 2 121 0
	lwz 3,36(3)
.LVL16:
	blr
	.cfi_endproc
.LFE1389:
	.size	_ZN10GuiElement8GetWidthEv, .-_ZN10GuiElement8GetWidthEv
	.section	.text._ZN10GuiElement9GetHeightEv,"axG",@progbits,_ZN10GuiElement9GetHeightEv,comdat
	.align 2
	.weak	_ZN10GuiElement9GetHeightEv
	.type	_ZN10GuiElement9GetHeightEv, @function
_ZN10GuiElement9GetHeightEv:
.LFB1390:
	.loc 2 124 0
	.cfi_startproc
.LVL17:
	.loc 2 124 0
	lwz 3,40(3)
.LVL18:
	blr
	.cfi_endproc
.LFE1390:
	.size	_ZN10GuiElement9GetHeightEv, .-_ZN10GuiElement9GetHeightEv
	.section	.text._ZN10GuiElement7SetSizeEii,"axG",@progbits,_ZN10GuiElement7SetSizeEii,comdat
	.align 2
	.weak	_ZN10GuiElement7SetSizeEii
	.type	_ZN10GuiElement7SetSizeEii, @function
_ZN10GuiElement7SetSizeEii:
.LFB1391:
	.loc 2 128 0
	.cfi_startproc
.LVL19:
	.loc 2 130 0
	stw 4,36(3)
	.loc 2 132 0
	.loc 2 131 0
	stw 5,40(3)
	.loc 2 132 0
	blr
	.cfi_endproc
.LFE1391:
	.size	_ZN10GuiElement7SetSizeEii, .-_ZN10GuiElement7SetSizeEii
	.section	.text._ZN10GuiElement10SetVisibleEb,"axG",@progbits,_ZN10GuiElement10SetVisibleEb,comdat
	.align 2
	.weak	_ZN10GuiElement10SetVisibleEb
	.type	_ZN10GuiElement10SetVisibleEb, @function
_ZN10GuiElement10SetVisibleEb:
.LFB1392:
	.loc 2 135 0
	.cfi_startproc
	.cfi_personality 0,__gxx_personality_v0
	.cfi_lsda 0,.LLSDA1392
.LVL20:
	mflr 0
	stwu 1,-32(1)
.LCFI2:
	.cfi_def_cfa_offset 32
	.cfi_register 65, 0
	stw 27,12(1)
.LBB2881:
.LBB2882:
	.loc 1 2270 0
	addi 27,3,4
	.cfi_offset 27, -20
.LBE2882:
.LBE2881:
	.loc 2 135 0
	stw 0,36(1)
	stw 30,24(1)
	mr 30,3
	.cfi_offset 30, -8
	.cfi_offset 65, 4
.LBB2905:
.LBB2899:
.LBB2883:
.LBB2884:
	.loc 1 338 0
	lwz 9,4(3)
	mr 3,27
.LVL21:
.LBE2884:
.LBE2883:
.LBE2899:
.LBE2905:
	.loc 2 135 0
	stw 28,16(1)
	mr 28,4
	.cfi_offset 28, -16
.LBB2906:
.LBB2900:
.LBB2888:
.LBB2885:
	.loc 1 338 0
	lwz 0,8(9)
.LBE2885:
.LBE2888:
.LBE2900:
.LBE2906:
	.loc 2 135 0
	stw 29,20(1)
.LBB2907:
	.file 3 "d:/Projects/SaveGameManager/savegame-manager-gx/trunk/source/Controls/Task.cpp"
	.loc 3 73 0
	mr 29,30
	.cfi_offset 29, -12
.LBE2907:
	.loc 2 135 0
	stw 31,28(1)
.LBB2908:
.LBB2901:
.LBB2889:
.LBB2886:
	.loc 1 338 0
	mtctr 0
.LBE2886:
.LBE2889:
.LBE2901:
.LBE2908:
	.loc 2 137 0
	stb 4,29(30)
.LVL22:
.LEHB0:
.LBB2909:
.LBB2902:
.LBB2890:
.LBB2887:
	.loc 1 338 0
	.cfi_offset 31, -4
	bctrl
.LEHE0:
.LVL23:
.LBE2887:
.LBE2890:
.LBE2902:
	.loc 3 73 0
	lwzu 31,8(29)
.LVL24:
.LBB2903:
	.loc 1 2274 0
	cmpw 7,31,29
	beq- 7,.L17
.LVL25:
.L24:
	.loc 1 2279 0
	lwz 3,8(31)
	mr 4,30
	mr 5,28
.LBB2891:
.LBB2892:
	.file 4 "d:\\devkitpro\\devkitppc\\bin\\../lib/gcc/powerpc-eabi/4.6.3/../../../../powerpc-eabi/include/c++/4.6.3/bits/stl_list.h"
	.loc 4 234 0
	lwz 31,0(31)
.LVL26:
.LBE2892:
.LBE2891:
	.loc 1 2279 0
	lwz 9,0(3)
	lwz 0,12(9)
	mtctr 0
.LEHB1:
	bctrl
.LEHE1:
.LVL27:
	.loc 1 2274 0
	cmpw 7,29,31
	bne+ 7,.L24
.LVL28:
.L17:
.LBB2893:
.LBB2894:
.LBB2895:
	.loc 1 343 0
	lwz 9,4(30)
	mr 3,27
	lwz 0,12(9)
	mtctr 0
.LEHB2:
	bctrl
.LEHE2:
.LBE2895:
.LBE2894:
.LBE2893:
.LBE2903:
.LBE2909:
	.loc 2 139 0
	lwz 0,36(1)
	lwz 27,12(1)
.LVL29:
	mtlr 0
	lwz 28,16(1)
.LVL30:
	lwz 29,20(1)
	lwz 30,24(1)
.LVL31:
	lwz 31,28(1)
.LVL32:
	addi 1,1,32
	.cfi_remember_state
.LCFI3:
	.cfi_def_cfa_offset 0
	.cfi_restore 31
	.cfi_restore 30
	.cfi_restore 29
	.cfi_restore 28
	.cfi_restore 27
	blr
.LVL33:
.L23:
.LCFI4:
	.cfi_restore_state
.LBB2910:
.LBB2904:
.LBB2896:
.LBB2897:
.LBB2898:
	.loc 1 343 0
	lwz 9,4(30)
	mr 31,3
.LVL34:
	mr 3,27
	lwz 0,12(9)
	mtctr 0
	bctrl
	mr 3,31
.LEHB3:
	bl _Unwind_Resume
.LEHE3:
.LBE2898:
.LBE2897:
.LBE2896:
.LBE2904:
.LBE2910:
	.cfi_endproc
.LFE1392:
	.globl __gxx_personality_v0
	.section	.gcc_except_table,"a",@progbits
.LLSDA1392:
	.byte	0xff
	.byte	0xff
	.byte	0x1
	.uleb128 .LLSDACSE1392-.LLSDACSB1392
.LLSDACSB1392:
	.uleb128 .LEHB0-.LFB1392
	.uleb128 .LEHE0-.LEHB0
	.uleb128 0
	.uleb128 0
	.uleb128 .LEHB1-.LFB1392
	.uleb128 .LEHE1-.LEHB1
	.uleb128 .L23-.LFB1392
	.uleb128 0
	.uleb128 .LEHB2-.LFB1392
	.uleb128 .LEHE2-.LEHB2
	.uleb128 0
	.uleb128 0
	.uleb128 .LEHB3-.LFB1392
	.uleb128 .LEHE3-.LEHB3
	.uleb128 0
	.uleb128 0
.LLSDACSE1392:
	.section	.text._ZN10GuiElement10SetVisibleEb,"axG",@progbits,_ZN10GuiElement10SetVisibleEb,comdat
	.size	_ZN10GuiElement10SetVisibleEb, .-_ZN10GuiElement10SetVisibleEb
	.section	.text._ZN10GuiElement9IsVisibleEv,"axG",@progbits,_ZN10GuiElement9IsVisibleEv,comdat
	.align 2
	.weak	_ZN10GuiElement9IsVisibleEv
	.type	_ZN10GuiElement9IsVisibleEv, @function
_ZN10GuiElement9IsVisibleEv:
.LFB1393:
	.loc 2 142 0
	.cfi_startproc
.LVL35:
	.loc 2 142 0
	lbz 3,29(3)
.LVL36:
	blr
	.cfi_endproc
.LFE1393:
	.size	_ZN10GuiElement9IsVisibleEv, .-_ZN10GuiElement9IsVisibleEv
	.section	.text._ZN10GuiElement12IsSelectableEv,"axG",@progbits,_ZN10GuiElement12IsSelectableEv,comdat
	.align 2
	.weak	_ZN10GuiElement12IsSelectableEv
	.type	_ZN10GuiElement12IsSelectableEv, @function
_ZN10GuiElement12IsSelectableEv:
.LFB1394:
	.loc 2 145 0
	.cfi_startproc
.LVL37:
	.loc 2 149 0
	lwz 0,72(3)
	li 9,0
	cmpwi 7,0,4
	beq- 7,.L27
	.loc 2 149 0 is_stmt 0 discriminator 1
	cmpwi 7,0,2
	beq- 7,.L27
	.loc 2 149 0 discriminator 3
	lbz 9,30(3)
.L27:
	.loc 2 150 0 is_stmt 1 discriminator 5
	mr 3,9
.LVL38:
	blr
	.cfi_endproc
.LFE1394:
	.size	_ZN10GuiElement12IsSelectableEv, .-_ZN10GuiElement12IsSelectableEv
	.section	.text._ZN10GuiElement11IsClickableEv,"axG",@progbits,_ZN10GuiElement11IsClickableEv,comdat
	.align 2
	.weak	_ZN10GuiElement11IsClickableEv
	.type	_ZN10GuiElement11IsClickableEv, @function
_ZN10GuiElement11IsClickableEv:
.LFB1395:
	.loc 2 153 0
	.cfi_startproc
.LVL39:
	.loc 2 158 0
	lwz 0,72(3)
	li 9,0
	cmpwi 7,0,4
	beq- 7,.L31
	.loc 2 158 0 is_stmt 0 discriminator 1
	cmpwi 7,0,2
	beq- 7,.L31
	.loc 2 158 0 discriminator 3
	cmpwi 7,0,3
	beq- 7,.L31
	.loc 2 158 0 discriminator 4
	lbz 9,31(3)
.L31:
	.loc 2 159 0 is_stmt 1 discriminator 6
	mr 3,9
.LVL40:
	blr
	.cfi_endproc
.LFE1395:
	.size	_ZN10GuiElement11IsClickableEv, .-_ZN10GuiElement11IsClickableEv
	.section	.text._ZN10GuiElement10IsHoldableEv,"axG",@progbits,_ZN10GuiElement10IsHoldableEv,comdat
	.align 2
	.weak	_ZN10GuiElement10IsHoldableEv
	.type	_ZN10GuiElement10IsHoldableEv, @function
_ZN10GuiElement10IsHoldableEv:
.LFB1396:
	.loc 2 162 0
	.cfi_startproc
.LVL41:
	.loc 2 162 0
	lwz 9,72(3)
	li 0,0
	cmpwi 7,9,4
	beq- 7,.L36
	.loc 2 162 0 is_stmt 0 discriminator 1
	lbz 0,32(3)
.L36:
	.loc 2 162 0 discriminator 4
	mr 3,0
.LVL42:
	blr
	.cfi_endproc
.LFE1396:
	.size	_ZN10GuiElement10IsHoldableEv, .-_ZN10GuiElement10IsHoldableEv
	.section	.text._ZN10GuiElement13SetSelectableEb,"axG",@progbits,_ZN10GuiElement13SetSelectableEb,comdat
	.align 2
	.weak	_ZN10GuiElement13SetSelectableEb
	.type	_ZN10GuiElement13SetSelectableEb, @function
_ZN10GuiElement13SetSelectableEb:
.LFB1397:
	.loc 2 165 0 is_stmt 1
	.cfi_startproc
.LVL43:
	.loc 2 165 0
	stb 4,30(3)
	blr
	.cfi_endproc
.LFE1397:
	.size	_ZN10GuiElement13SetSelectableEb, .-_ZN10GuiElement13SetSelectableEb
	.section	.text._ZN10GuiElement12SetClickableEb,"axG",@progbits,_ZN10GuiElement12SetClickableEb,comdat
	.align 2
	.weak	_ZN10GuiElement12SetClickableEb
	.type	_ZN10GuiElement12SetClickableEb, @function
_ZN10GuiElement12SetClickableEb:
.LFB1398:
	.loc 2 168 0
	.cfi_startproc
.LVL44:
	.loc 2 168 0
	stb 4,31(3)
	blr
	.cfi_endproc
.LFE1398:
	.size	_ZN10GuiElement12SetClickableEb, .-_ZN10GuiElement12SetClickableEb
	.section	.text._ZN10GuiElement11SetHoldableEb,"axG",@progbits,_ZN10GuiElement11SetHoldableEb,comdat
	.align 2
	.weak	_ZN10GuiElement11SetHoldableEb
	.type	_ZN10GuiElement11SetHoldableEb, @function
_ZN10GuiElement11SetHoldableEb:
.LFB1399:
	.loc 2 171 0
	.cfi_startproc
.LVL45:
	.loc 2 171 0
	stb 4,32(3)
	blr
	.cfi_endproc
.LFE1399:
	.size	_ZN10GuiElement11SetHoldableEb, .-_ZN10GuiElement11SetHoldableEb
	.section	.text._ZN10GuiElement8GetStateEv,"axG",@progbits,_ZN10GuiElement8GetStateEv,comdat
	.align 2
	.weak	_ZN10GuiElement8GetStateEv
	.type	_ZN10GuiElement8GetStateEv, @function
_ZN10GuiElement8GetStateEv:
.LFB1400:
	.loc 2 178 0
	.cfi_startproc
.LVL46:
	.loc 2 178 0
	lwz 3,72(3)
.LVL47:
	blr
	.cfi_endproc
.LFE1400:
	.size	_ZN10GuiElement8GetStateEv, .-_ZN10GuiElement8GetStateEv
	.section	.text._ZN10GuiElement12GetStateChanEv,"axG",@progbits,_ZN10GuiElement12GetStateChanEv,comdat
	.align 2
	.weak	_ZN10GuiElement12GetStateChanEv
	.type	_ZN10GuiElement12GetStateChanEv, @function
_ZN10GuiElement12GetStateChanEv:
.LFB1401:
	.loc 2 181 0
	.cfi_startproc
.LVL48:
	.loc 2 181 0
	lwz 3,76(3)
.LVL49:
	blr
	.cfi_endproc
.LFE1401:
	.size	_ZN10GuiElement12GetStateChanEv, .-_ZN10GuiElement12GetStateChanEv
	.section	.text._ZN10GuiElement8SetAlphaEi,"axG",@progbits,_ZN10GuiElement8SetAlphaEi,comdat
	.align 2
	.weak	_ZN10GuiElement8SetAlphaEi
	.type	_ZN10GuiElement8SetAlphaEi, @function
_ZN10GuiElement8SetAlphaEi:
.LFB1403:
	.loc 2 190 0
	.cfi_startproc
.LVL50:
	.loc 2 190 0
	stw 4,56(3)
	blr
	.cfi_endproc
.LFE1403:
	.size	_ZN10GuiElement8SetAlphaEi, .-_ZN10GuiElement8SetAlphaEi
	.section	.text._ZN10GuiElement8GetAlphaEv,"axG",@progbits,_ZN10GuiElement8GetAlphaEv,comdat
	.align 2
	.weak	_ZN10GuiElement8GetAlphaEv
	.type	_ZN10GuiElement8GetAlphaEv, @function
_ZN10GuiElement8GetAlphaEv:
.LFB1404:
	.loc 2 194 0
	.cfi_startproc
.LVL51:
	mflr 0
	stwu 1,-40(1)
.LCFI5:
	.cfi_def_cfa_offset 40
	.cfi_register 65, 0
	stw 31,36(1)
	stw 0,44(1)
.LBB2911:
	.loc 2 198 0
	lwz 31,108(3)
	.cfi_offset 65, 4
	.cfi_offset 31, -4
	cmpwi 7,31,0
	blt- 7,.L47
.L45:
.LVL52:
	.loc 2 203 0
	lwz 3,96(3)
.LVL53:
	cmpwi 7,3,0
	beq- 7,.L46
	.loc 2 204 0
	lwz 9,0(3)
	xoris 31,31,0x8000
.LVL54:
	lwz 0,100(9)
	mtctr 0
	bctrl
	lis 0,0x4330
	xoris 3,3,0x8000
	stw 0,16(1)
	stw 3,20(1)
	lis 9,.LC1@ha
	lfs 0,.LC1@l(9)
	lis 9,.LC2@ha
	lfd 13,16(1)
	lfs 12,.LC2@l(9)
	addi 9,1,24
	fsub 13,13,0
	stw 31,12(1)
	stw 0,8(1)
	frsp 13,13
	fdivs 13,13,12
	lfd 12,8(1)
	fsub 0,12,0
	frsp 0,0
	fmuls 0,0,13
	fctiwz 0,0
	stfiwx 0,0,9
	lwz 31,24(1)
.LVL55:
.L46:
.LBE2911:
	.loc 2 207 0
	lwz 0,44(1)
	mr 3,31
	lwz 31,36(1)
.LVL56:
	mtlr 0
	addi 1,1,40
	.cfi_remember_state
.LCFI6:
	.cfi_def_cfa_offset 0
	.cfi_restore 31
	blr
.LVL57:
.L47:
.LCFI7:
	.cfi_restore_state
.LBB2912:
	.loc 2 201 0
	lwz 31,56(3)
.LVL58:
	b .L45
.LBE2912:
	.cfi_endproc
.LFE1404:
	.size	_ZN10GuiElement8GetAlphaEv, .-_ZN10GuiElement8GetAlphaEv
	.section	.text._ZN10GuiElement8SetScaleEf,"axG",@progbits,_ZN10GuiElement8SetScaleEf,comdat
	.align 2
	.weak	_ZN10GuiElement8SetScaleEf
	.type	_ZN10GuiElement8SetScaleEf, @function
_ZN10GuiElement8SetScaleEf:
.LFB1405:
	.loc 2 210 0
	.cfi_startproc
.LVL59:
	.loc 2 212 0
	stfs 1,60(3)
	.loc 2 214 0
	.loc 2 213 0
	stfs 1,64(3)
	.loc 2 214 0
	blr
	.cfi_endproc
.LFE1405:
	.size	_ZN10GuiElement8SetScaleEf, .-_ZN10GuiElement8SetScaleEf
	.section	.text._ZN10GuiElement9SetScaleXEf,"axG",@progbits,_ZN10GuiElement9SetScaleXEf,comdat
	.align 2
	.weak	_ZN10GuiElement9SetScaleXEf
	.type	_ZN10GuiElement9SetScaleXEf, @function
_ZN10GuiElement9SetScaleXEf:
.LFB1406:
	.loc 2 217 0
	.cfi_startproc
.LVL60:
	.loc 2 217 0
	stfs 1,60(3)
	blr
	.cfi_endproc
.LFE1406:
	.size	_ZN10GuiElement9SetScaleXEf, .-_ZN10GuiElement9SetScaleXEf
	.section	.text._ZN10GuiElement9SetScaleYEf,"axG",@progbits,_ZN10GuiElement9SetScaleYEf,comdat
	.align 2
	.weak	_ZN10GuiElement9SetScaleYEf
	.type	_ZN10GuiElement9SetScaleYEf, @function
_ZN10GuiElement9SetScaleYEf:
.LFB1407:
	.loc 2 220 0
	.cfi_startproc
.LVL61:
	.loc 2 220 0
	stfs 1,64(3)
	blr
	.cfi_endproc
.LFE1407:
	.size	_ZN10GuiElement9SetScaleYEf, .-_ZN10GuiElement9SetScaleYEf
	.section	.text._ZN10GuiElement8GetScaleEv,"axG",@progbits,_ZN10GuiElement8GetScaleEv,comdat
	.align 2
	.weak	_ZN10GuiElement8GetScaleEv
	.type	_ZN10GuiElement8GetScaleEv, @function
_ZN10GuiElement8GetScaleEv:
.LFB1408:
	.loc 2 223 0
	.cfi_startproc
.LVL62:
	mflr 0
	stwu 1,-16(1)
.LCFI8:
	.cfi_def_cfa_offset 16
	.cfi_register 65, 0
.LBB2913:
	.loc 2 225 0
	lis 9,.LC3@ha
.LBE2913:
	.loc 2 223 0
	stfd 31,8(1)
	stw 0,20(1)
.LBB2914:
	.loc 2 225 0
	lfs 0,64(3)
	lfs 31,60(3)
	.cfi_offset 65, 4
	.cfi_offset 63, -8
	.loc 2 227 0
	lwz 11,96(3)
	.loc 2 225 0
	fadds 31,31,0
	lfs 0,.LC3@l(9)
	.loc 2 227 0
	cmpwi 7,11,0
	.loc 2 225 0
	fmuls 31,31,0
	lfs 0,112(3)
	fmuls 31,31,0
.LVL63:
	.loc 2 227 0
	beq- 7,.L52
	.loc 2 228 0
	lwz 9,0(11)
	mr 3,11
.LVL64:
	lwz 0,116(9)
	mtctr 0
	bctrl
	fmuls 31,31,1
.LVL65:
.L52:
.LBE2914:
	.loc 2 231 0
	lwz 0,20(1)
	fmr 1,31
	lfd 31,8(1)
.LVL66:
	mtlr 0
	addi 1,1,16
.LCFI9:
	.cfi_def_cfa_offset 0
	.cfi_restore 63
	blr
	.cfi_endproc
.LFE1408:
	.size	_ZN10GuiElement8GetScaleEv, .-_ZN10GuiElement8GetScaleEv
	.section	.text._ZN10GuiElement9GetScaleXEv,"axG",@progbits,_ZN10GuiElement9GetScaleXEv,comdat
	.align 2
	.weak	_ZN10GuiElement9GetScaleXEv
	.type	_ZN10GuiElement9GetScaleXEv, @function
_ZN10GuiElement9GetScaleXEv:
.LFB1409:
	.loc 2 234 0
	.cfi_startproc
.LVL67:
	mflr 0
	stwu 1,-16(1)
.LCFI10:
	.cfi_def_cfa_offset 16
	.cfi_register 65, 0
	stfd 31,8(1)
	stw 0,20(1)
.LBB2915:
	.loc 2 238 0
	lwz 11,96(3)
	.loc 2 236 0
	lfs 31,60(3)
	.cfi_offset 65, 4
	.cfi_offset 63, -8
	.loc 2 238 0
	cmpwi 7,11,0
	.loc 2 236 0
	lfs 0,112(3)
	fmuls 31,31,0
.LVL68:
	.loc 2 238 0
	beq- 7,.L54
	.loc 2 239 0
	lwz 9,0(11)
	mr 3,11
.LVL69:
	lwz 0,120(9)
	mtctr 0
	bctrl
	fmuls 31,31,1
.LVL70:
.L54:
.LBE2915:
	.loc 2 242 0
	lwz 0,20(1)
	fmr 1,31
	lfd 31,8(1)
.LVL71:
	mtlr 0
	addi 1,1,16
.LCFI11:
	.cfi_def_cfa_offset 0
	.cfi_restore 63
	blr
	.cfi_endproc
.LFE1409:
	.size	_ZN10GuiElement9GetScaleXEv, .-_ZN10GuiElement9GetScaleXEv
	.section	.text._ZN10GuiElement9GetScaleYEv,"axG",@progbits,_ZN10GuiElement9GetScaleYEv,comdat
	.align 2
	.weak	_ZN10GuiElement9GetScaleYEv
	.type	_ZN10GuiElement9GetScaleYEv, @function
_ZN10GuiElement9GetScaleYEv:
.LFB1410:
	.loc 2 245 0
	.cfi_startproc
.LVL72:
	mflr 0
	stwu 1,-16(1)
.LCFI12:
	.cfi_def_cfa_offset 16
	.cfi_register 65, 0
	stfd 31,8(1)
	stw 0,20(1)
.LBB2916:
	.loc 2 249 0
	lwz 11,96(3)
	.loc 2 247 0
	lfs 31,64(3)
	.cfi_offset 65, 4
	.cfi_offset 63, -8
	.loc 2 249 0
	cmpwi 7,11,0
	.loc 2 247 0
	lfs 0,112(3)
	fmuls 31,31,0
.LVL73:
	.loc 2 249 0
	beq- 7,.L56
	.loc 2 250 0
	lwz 9,0(11)
	mr 3,11
.LVL74:
	lwz 0,124(9)
	mtctr 0
	bctrl
	fmuls 31,31,1
.LVL75:
.L56:
.LBE2916:
	.loc 2 253 0
	lwz 0,20(1)
	fmr 1,31
	lfd 31,8(1)
.LVL76:
	mtlr 0
	addi 1,1,16
.LCFI13:
	.cfi_def_cfa_offset 0
	.cfi_restore 63
	blr
	.cfi_endproc
.LFE1410:
	.size	_ZN10GuiElement9GetScaleYEv, .-_ZN10GuiElement9GetScaleYEv
	.section	.text._ZN10GuiElement6RumbleEv,"axG",@progbits,_ZN10GuiElement6RumbleEv,comdat
	.align 2
	.weak	_ZN10GuiElement6RumbleEv
	.type	_ZN10GuiElement6RumbleEv, @function
_ZN10GuiElement6RumbleEv:
.LFB1411:
	.loc 2 256 0
	.cfi_startproc
.LVL77:
	.loc 2 256 0
	lbz 3,28(3)
.LVL78:
	blr
	.cfi_endproc
.LFE1411:
	.size	_ZN10GuiElement6RumbleEv, .-_ZN10GuiElement6RumbleEv
	.section	.text._ZN10GuiElement9SetRumbleEb,"axG",@progbits,_ZN10GuiElement9SetRumbleEb,comdat
	.align 2
	.weak	_ZN10GuiElement9SetRumbleEb
	.type	_ZN10GuiElement9SetRumbleEb, @function
_ZN10GuiElement9SetRumbleEb:
.LFB1412:
	.loc 2 259 0
	.cfi_startproc
.LVL79:
	.loc 2 259 0
	stb 4,28(3)
	blr
	.cfi_endproc
.LFE1412:
	.size	_ZN10GuiElement9SetRumbleEb, .-_ZN10GuiElement9SetRumbleEb
	.section	.text._ZN10GuiElement13SetEffectGrowEv,"axG",@progbits,_ZN10GuiElement13SetEffectGrowEv,comdat
	.align 2
	.weak	_ZN10GuiElement13SetEffectGrowEv
	.type	_ZN10GuiElement13SetEffectGrowEv, @function
_ZN10GuiElement13SetEffectGrowEv:
.LFB1413:
	.loc 2 271 0
	.cfi_startproc
.LVL80:
	mflr 0
	stwu 1,-8(1)
.LCFI14:
	.cfi_def_cfa_offset 8
	.cfi_register 65, 0
	lwz 9,0(3)
	li 4,256
	li 5,4
	li 6,110
	stw 0,12(1)
	.loc 2 271 0
	lwz 0,140(9)
	.cfi_offset 65, 4
	mtctr 0
	bctrl
.LVL81:
	lwz 0,12(1)
	addi 1,1,8
.LCFI15:
	.cfi_def_cfa_offset 0
	mtlr 0
	blr
	.cfi_endproc
.LFE1413:
	.size	_ZN10GuiElement13SetEffectGrowEv, .-_ZN10GuiElement13SetEffectGrowEv
	.section	.text._ZNK10GuiElement9GetEffectEv,"axG",@progbits,_ZNK10GuiElement9GetEffectEv,comdat
	.align 2
	.weak	_ZNK10GuiElement9GetEffectEv
	.type	_ZNK10GuiElement9GetEffectEv, @function
_ZNK10GuiElement9GetEffectEv:
.LFB1414:
	.loc 2 276 0
	.cfi_startproc
.LVL82:
	.loc 2 276 0
	lwz 3,120(3)
.LVL83:
	blr
	.cfi_endproc
.LFE1414:
	.size	_ZNK10GuiElement9GetEffectEv, .-_ZNK10GuiElement9GetEffectEv
	.section	.text._ZNK10GuiElement10IsAnimatedEv,"axG",@progbits,_ZNK10GuiElement10IsAnimatedEv,comdat
	.align 2
	.weak	_ZNK10GuiElement10IsAnimatedEv
	.type	_ZNK10GuiElement10IsAnimatedEv, @function
_ZNK10GuiElement10IsAnimatedEv:
.LFB1415:
	.loc 2 278 0
	.cfi_startproc
.LVL84:
	mflr 0
	stwu 1,-8(1)
.LCFI16:
	.cfi_def_cfa_offset 8
	.cfi_register 65, 0
	stw 0,12(1)
	.loc 2 278 0
	lwz 9,0(3)
	lwz 0,152(9)
	.cfi_offset 65, 4
	mtctr 0
	bctrl
.LVL85:
	srawi 0,3,31
	subf 3,3,0
	lwz 0,12(1)
	srwi 3,3,31
	mtlr 0
	addi 1,1,8
.LCFI17:
	.cfi_def_cfa_offset 0
	blr
	.cfi_endproc
.LFE1415:
	.size	_ZNK10GuiElement10IsAnimatedEv, .-_ZNK10GuiElement10IsAnimatedEv
	.section	.text._ZN10GuiElement8IsInsideEii,"axG",@progbits,_ZN10GuiElement8IsInsideEii,comdat
	.align 2
	.weak	_ZN10GuiElement8IsInsideEii
	.type	_ZN10GuiElement8IsInsideEii, @function
_ZN10GuiElement8IsInsideEii:
.LFB1417:
	.loc 2 285 0
	.cfi_startproc
.LVL86:
	mflr 0
	stwu 1,-24(1)
.LCFI18:
	.cfi_def_cfa_offset 24
	.cfi_register 65, 0
	stw 28,8(1)
	mr 28,5
	.cfi_offset 28, -16
	stw 0,28(1)
	stw 29,12(1)
	.loc 2 290 0
	li 29,0
	.cfi_offset 29, -12
	.cfi_offset 65, 4
	.loc 2 287 0
	lwz 9,0(3)
	.loc 2 285 0
	stw 30,16(1)
	mr 30,4
	.cfi_offset 30, -8
	.loc 2 287 0
	lwz 0,16(9)
	.loc 2 285 0
	stw 31,20(1)
	.loc 2 285 0
	mr 31,3
	.cfi_offset 31, -4
	.loc 2 287 0
	mtctr 0
	bctrl
.LVL87:
	.loc 2 290 0
	cmpw 7,3,30
	blt- 7,.L67
.L63:
	.loc 2 291 0 discriminator 6
	lwz 0,28(1)
	mr 3,29
	lwz 28,8(1)
.LVL88:
	mtlr 0
	lwz 29,12(1)
	lwz 30,16(1)
.LVL89:
	lwz 31,20(1)
.LVL90:
	addi 1,1,24
	.cfi_remember_state
.LCFI19:
	.cfi_def_cfa_offset 0
	.cfi_restore 31
	.cfi_restore 30
	.cfi_restore 29
	.cfi_restore 28
	blr
.LVL91:
.L67:
.LCFI20:
	.cfi_restore_state
	.loc 2 288 0 discriminator 1
	lwz 9,0(31)
	mr 3,31
	lwz 0,16(9)
	mtctr 0
	bctrl
	.loc 2 290 0 discriminator 1
	lwz 0,36(31)
	add 0,3,0
	cmpw 7,30,0
	bge+ 7,.L63
	.loc 2 289 0 discriminator 3
	lwz 9,0(31)
	mr 3,31
	lwz 0,20(9)
	mtctr 0
	bctrl
	.loc 2 290 0 discriminator 3
	cmpw 7,3,28
	bge+ 7,.L63
	.loc 2 290 0 is_stmt 0 discriminator 4
	lwz 9,0(31)
	mr 3,31
	lwz 0,20(9)
	mtctr 0
	bctrl
	lwz 0,40(31)
	add 0,3,0
	.loc 2 285 0 is_stmt 1 discriminator 4
	cmpw 7,28,0
	mfcr 29
	rlwinm 29,29,29,1
	b .L63
	.cfi_endproc
.LFE1417:
	.size	_ZN10GuiElement8IsInsideEii, .-_ZN10GuiElement8IsInsideEii
	.section	.text._ZN10GuiElement11SetPositionEii,"axG",@progbits,_ZN10GuiElement11SetPositionEii,comdat
	.align 2
	.weak	_ZN10GuiElement11SetPositionEii
	.type	_ZN10GuiElement11SetPositionEii, @function
_ZN10GuiElement11SetPositionEii:
.LFB1418:
	.loc 2 295 0
	.cfi_startproc
.LVL92:
	.loc 2 297 0
	stw 4,44(3)
	.loc 2 299 0
	.loc 2 298 0
	stw 5,48(3)
	.loc 2 299 0
	blr
	.cfi_endproc
.LFE1418:
	.size	_ZN10GuiElement11SetPositionEii, .-_ZN10GuiElement11SetPositionEii
	.section	.text._ZN10GuiElement11SetPositionEiii,"axG",@progbits,_ZN10GuiElement11SetPositionEiii,comdat
	.align 2
	.weak	_ZN10GuiElement11SetPositionEiii
	.type	_ZN10GuiElement11SetPositionEiii, @function
_ZN10GuiElement11SetPositionEiii:
.LFB1419:
	.loc 2 304 0
	.cfi_startproc
.LVL93:
	.loc 2 306 0
	stw 4,44(3)
	.loc 2 309 0
	.loc 2 307 0
	stw 5,48(3)
	.loc 2 308 0
	stw 6,52(3)
	.loc 2 309 0
	blr
	.cfi_endproc
.LFE1419:
	.size	_ZN10GuiElement11SetPositionEiii, .-_ZN10GuiElement11SetPositionEiii
	.section	.text._ZN10GuiElement11GetSelectedEv,"axG",@progbits,_ZN10GuiElement11GetSelectedEv,comdat
	.align 2
	.weak	_ZN10GuiElement11GetSelectedEv
	.type	_ZN10GuiElement11GetSelectedEv, @function
_ZN10GuiElement11GetSelectedEv:
.LFB1420:
	.loc 2 312 0
	.cfi_startproc
.LVL94:
	.loc 2 312 0
	li 3,-1
.LVL95:
	blr
	.cfi_endproc
.LFE1420:
	.size	_ZN10GuiElement11GetSelectedEv, .-_ZN10GuiElement11GetSelectedEv
	.section	.text._ZN10GuiElement12SetAlignmentEi,"axG",@progbits,_ZN10GuiElement12SetAlignmentEi,comdat
	.align 2
	.weak	_ZN10GuiElement12SetAlignmentEi
	.type	_ZN10GuiElement12SetAlignmentEi, @function
_ZN10GuiElement12SetAlignmentEi:
.LFB1421:
	.loc 2 316 0
	.cfi_startproc
.LVL96:
	.loc 2 316 0
	stw 4,68(3)
	blr
	.cfi_endproc
.LFE1421:
	.size	_ZN10GuiElement12SetAlignmentEi, .-_ZN10GuiElement12SetAlignmentEi
	.section	.text._ZNK10GuiElement12GetAlignmentEv,"axG",@progbits,_ZNK10GuiElement12GetAlignmentEv,comdat
	.align 2
	.weak	_ZNK10GuiElement12GetAlignmentEv
	.type	_ZNK10GuiElement12GetAlignmentEv, @function
_ZNK10GuiElement12GetAlignmentEv:
.LFB1422:
	.loc 2 318 0
	.cfi_startproc
.LVL97:
	.loc 2 318 0
	lwz 3,68(3)
.LVL98:
	blr
	.cfi_endproc
.LFE1422:
	.size	_ZNK10GuiElement12GetAlignmentEv, .-_ZNK10GuiElement12GetAlignmentEv
	.section	".text"
	.align 2
	.globl _ZN4Task13OnButtonClickEP9GuiButtoniRK6_POINT
	.type	_ZN4Task13OnButtonClickEP9GuiButtoniRK6_POINT, @function
_ZN4Task13OnButtonClickEP9GuiButtoniRK6_POINT:
.LFB1478:
	.loc 3 70 0
	.cfi_startproc
	.cfi_personality 0,__gxx_personality_v0
	.cfi_lsda 0,.LLSDA1478
.LVL99:
	mflr 0
	stwu 1,-32(1)
.LCFI21:
	.cfi_def_cfa_offset 32
	.cfi_register 65, 0
	stw 27,12(1)
.LBB2917:
.LBB2918:
	.loc 1 2270 0
	addi 27,3,340
	.cfi_offset 27, -20
.LBE2918:
.LBE2917:
	.loc 3 70 0
	stw 0,36(1)
	stw 26,8(1)
	mr 26,4
	.cfi_offset 26, -24
	.cfi_offset 65, 4
.LBB2944:
.LBB2937:
.LBB2919:
.LBB2920:
	.loc 1 338 0
	lwz 9,340(3)
.LBE2920:
.LBE2919:
.LBE2937:
.LBE2944:
	.loc 3 70 0
	stw 28,16(1)
.LBB2945:
.LBB2938:
.LBB2925:
.LBB2921:
	.loc 1 338 0
	lwz 0,8(9)
.LBE2921:
.LBE2925:
.LBE2938:
.LBE2945:
	.loc 3 70 0
	stw 29,20(1)
	stw 30,24(1)
.LBB2946:
.LBB2939:
.LBB2926:
.LBB2922:
	.loc 1 338 0
	mtctr 0
.LBE2922:
.LBE2926:
.LBE2939:
.LBE2946:
	.loc 3 70 0
	mr 30,3
	.cfi_offset 30, -8
	.cfi_offset 29, -12
	.cfi_offset 28, -16
	stw 31,28(1)
.LBB2947:
.LBB2940:
.LBB2927:
.LBB2923:
	.loc 1 338 0
	mr 3,27
.LVL100:
.LBE2923:
.LBE2927:
.LBE2940:
	.loc 3 73 0
	mr 29,30
.LBE2947:
	.loc 3 71 0
	lwz 28,408(30)
.LVL101:
.LEHB4:
.LBB2948:
.LBB2941:
.LBB2928:
.LBB2924:
	.loc 1 338 0
	.cfi_offset 31, -4
	bctrl
.LEHE4:
.LVL102:
.LBE2924:
.LBE2928:
.LBE2941:
	.loc 3 73 0
	lwzu 31,344(29)
.LVL103:
.LBB2942:
	.loc 1 2274 0
	cmpw 7,31,29
	beq- 7,.L74
.LVL104:
.L81:
	.loc 1 2279 0
	lwz 3,8(31)
	mr 4,30
	mr 5,28
.LBB2929:
.LBB2930:
	.loc 4 234 0
	lwz 31,0(31)
.LVL105:
.LBE2930:
.LBE2929:
	.loc 1 2279 0
	lwz 9,0(3)
	lwz 0,12(9)
	mtctr 0
.LEHB5:
	bctrl
.LEHE5:
.LVL106:
	.loc 1 2274 0
	cmpw 7,29,31
	bne+ 7,.L81
.LVL107:
.L74:
.LBB2931:
.LBB2932:
.LBB2933:
	.loc 1 343 0
	lwz 9,340(30)
	mr 3,27
	lwz 0,12(9)
	mtctr 0
.LEHB6:
	bctrl
.LBE2933:
.LBE2932:
.LBE2931:
.LBE2942:
.LBE2948:
	.loc 3 72 0
	lwz 9,0(26)
	mr 3,26
	lwz 0,92(9)
	mtctr 0
	bctrl
.LEHE6:
	.loc 3 73 0
	lwz 0,36(1)
	lwz 26,8(1)
.LVL108:
	mtlr 0
	lwz 27,12(1)
.LVL109:
	lwz 28,16(1)
.LVL110:
	lwz 29,20(1)
	lwz 30,24(1)
.LVL111:
	lwz 31,28(1)
.LVL112:
	addi 1,1,32
	.cfi_remember_state
.LCFI22:
	.cfi_def_cfa_offset 0
	.cfi_restore 31
	.cfi_restore 30
	.cfi_restore 29
	.cfi_restore 28
	.cfi_restore 27
	.cfi_restore 26
	blr
.LVL113:
.L80:
.LCFI23:
	.cfi_restore_state
.LBB2949:
.LBB2943:
.LBB2934:
.LBB2935:
.LBB2936:
	.loc 1 343 0
	lwz 9,340(30)
	mr 31,3
.LVL114:
	mr 3,27
	lwz 0,12(9)
	mtctr 0
	bctrl
	mr 3,31
.LEHB7:
	bl _Unwind_Resume
.LEHE7:
.LBE2936:
.LBE2935:
.LBE2934:
.LBE2943:
.LBE2949:
	.cfi_endproc
.LFE1478:
	.section	.gcc_except_table
.LLSDA1478:
	.byte	0xff
	.byte	0xff
	.byte	0x1
	.uleb128 .LLSDACSE1478-.LLSDACSB1478
.LLSDACSB1478:
	.uleb128 .LEHB4-.LFB1478
	.uleb128 .LEHE4-.LEHB4
	.uleb128 0
	.uleb128 0
	.uleb128 .LEHB5-.LFB1478
	.uleb128 .LEHE5-.LEHB5
	.uleb128 .L80-.LFB1478
	.uleb128 0
	.uleb128 .LEHB6-.LFB1478
	.uleb128 .LEHE6-.LEHB6
	.uleb128 0
	.uleb128 0
	.uleb128 .LEHB7-.LFB1478
	.uleb128 .LEHE7-.LEHB7
	.uleb128 0
	.uleb128 0
.LLSDACSE1478:
	.section	".text"
	.size	_ZN4Task13OnButtonClickEP9GuiButtoniRK6_POINT, .-_ZN4Task13OnButtonClickEP9GuiButtoniRK6_POINT
	.section	.text._ZN7sigslot12_signal_baseINS_15single_threadedEED2Ev,"axG",@progbits,_ZN7sigslot12_signal_baseINS_15single_threadedEED5Ev,comdat
	.align 2
	.weak	_ZN7sigslot12_signal_baseINS_15single_threadedEED2Ev
	.type	_ZN7sigslot12_signal_baseINS_15single_threadedEED2Ev, @function
_ZN7sigslot12_signal_baseINS_15single_threadedEED2Ev:
.LFB1541:
	.loc 1 466 0
	.cfi_startproc
.LVL115:
.LBB2950:
.LBB2951:
.LBB2952:
.LBB2953:
	.loc 1 105 0
	lis 9,_ZTVN7sigslot15single_threadedE+8@ha
.LBE2953:
.LBE2952:
.LBE2951:
.LBE2950:
	.loc 1 466 0
.LBB2957:
.LBB2956:
.LBB2955:
.LBB2954:
	.loc 1 105 0
	la 0,_ZTVN7sigslot15single_threadedE+8@l(9)
	stw 0,0(3)
.LBE2954:
.LBE2955:
.LBE2956:
.LBE2957:
	.loc 1 466 0
	blr
	.cfi_endproc
.LFE1541:
	.size	_ZN7sigslot12_signal_baseINS_15single_threadedEED2Ev, .-_ZN7sigslot12_signal_baseINS_15single_threadedEED2Ev
	.section	.text._ZN7sigslot17_connection_base3IP9GuiButtoniRK6_POINTNS_15single_threadedEED2Ev,"axG",@progbits,_ZN7sigslot17_connection_base3IP9GuiButtoniRK6_POINTNS_15single_threadedEED5Ev,comdat
	.align 2
	.weak	_ZN7sigslot17_connection_base3IP9GuiButtoniRK6_POINTNS_15single_threadedEED2Ev
	.type	_ZN7sigslot17_connection_base3IP9GuiButtoniRK6_POINTNS_15single_threadedEED2Ev, @function
_ZN7sigslot17_connection_base3IP9GuiButtoniRK6_POINTNS_15single_threadedEED2Ev:
.LFB1704:
	.loc 1 387 0
	.cfi_startproc
.LVL116:
.LBB2958:
	.loc 1 387 0
	lis 9,_ZTVN7sigslot17_connection_base3IP9GuiButtoniRK6_POINTNS_15single_threadedEEE+8@ha
.LBE2958:
.LBB2959:
	la 0,_ZTVN7sigslot17_connection_base3IP9GuiButtoniRK6_POINTNS_15single_threadedEEE+8@l(9)
	stw 0,0(3)
.LBE2959:
	blr
	.cfi_endproc
.LFE1704:
	.size	_ZN7sigslot17_connection_base3IP9GuiButtoniRK6_POINTNS_15single_threadedEED2Ev, .-_ZN7sigslot17_connection_base3IP9GuiButtoniRK6_POINTNS_15single_threadedEED2Ev
	.section	.text._ZN7sigslot12_connection3I4TaskP9GuiButtoniRK6_POINTNS_15single_threadedEED2Ev,"axG",@progbits,_ZN7sigslot12_connection3I4TaskP9GuiButtoniRK6_POINTNS_15single_threadedEED5Ev,comdat
	.align 2
	.weak	_ZN7sigslot12_connection3I4TaskP9GuiButtoniRK6_POINTNS_15single_threadedEED2Ev
	.type	_ZN7sigslot12_connection3I4TaskP9GuiButtoniRK6_POINTNS_15single_threadedEED2Ev, @function
_ZN7sigslot12_connection3I4TaskP9GuiButtoniRK6_POINTNS_15single_threadedEED2Ev:
.LFB2040:
	.loc 1 1783 0
	.cfi_startproc
.LVL117:
.LBB2960:
.LBB2961:
.LBB2962:
.LBB2963:
	.loc 1 387 0
	lis 9,_ZTVN7sigslot17_connection_base3IP9GuiButtoniRK6_POINTNS_15single_threadedEEE+8@ha
.LBE2963:
.LBE2962:
.LBE2961:
.LBE2960:
	.loc 1 1786 0
.LBB2967:
.LBB2966:
.LBB2965:
.LBB2964:
	.loc 1 387 0
	la 0,_ZTVN7sigslot17_connection_base3IP9GuiButtoniRK6_POINTNS_15single_threadedEEE+8@l(9)
	stw 0,0(3)
.LBE2964:
.LBE2965:
.LBE2966:
.LBE2967:
	.loc 1 1786 0
	blr
	.cfi_endproc
.LFE2040:
	.size	_ZN7sigslot12_connection3I4TaskP9GuiButtoniRK6_POINTNS_15single_threadedEED2Ev, .-_ZN7sigslot12_connection3I4TaskP9GuiButtoniRK6_POINTNS_15single_threadedEED2Ev
	.section	.text._ZNK7sigslot12_connection3I4TaskP9GuiButtoniRK6_POINTNS_15single_threadedEE7getdestEv,"axG",@progbits,_ZNK7sigslot12_connection3I4TaskP9GuiButtoniRK6_POINTNS_15single_threadedEE7getdestEv,comdat
	.align 2
	.weak	_ZNK7sigslot12_connection3I4TaskP9GuiButtoniRK6_POINTNS_15single_threadedEE7getdestEv
	.type	_ZNK7sigslot12_connection3I4TaskP9GuiButtoniRK6_POINTNS_15single_threadedEE7getdestEv, @function
_ZNK7sigslot12_connection3I4TaskP9GuiButtoniRK6_POINTNS_15single_threadedEE7getdestEv:
.LFB2043:
	.loc 1 1804 0
	.cfi_startproc
.LVL118:
	.loc 1 1806 0
	lwz 9,4(3)
	li 3,0
.LVL119:
	cmpwi 7,9,0
	beqlr- 7
	.loc 1 1806 0 is_stmt 0 discriminator 1
	addi 3,9,312
	.loc 1 1807 0 is_stmt 1 discriminator 1
	blr
	.cfi_endproc
.LFE2043:
	.size	_ZNK7sigslot12_connection3I4TaskP9GuiButtoniRK6_POINTNS_15single_threadedEE7getdestEv, .-_ZNK7sigslot12_connection3I4TaskP9GuiButtoniRK6_POINTNS_15single_threadedEE7getdestEv
	.section	.text._ZN7sigslot12_connection3I4TaskP9GuiButtoniRK6_POINTNS_15single_threadedEE4emitES3_iS6_,"axG",@progbits,_ZN7sigslot12_connection3I4TaskP9GuiButtoniRK6_POINTNS_15single_threadedEE4emitES3_iS6_,comdat
	.align 2
	.weak	_ZN7sigslot12_connection3I4TaskP9GuiButtoniRK6_POINTNS_15single_threadedEE4emitES3_iS6_
	.type	_ZN7sigslot12_connection3I4TaskP9GuiButtoniRK6_POINTNS_15single_threadedEE4emitES3_iS6_, @function
_ZN7sigslot12_connection3I4TaskP9GuiButtoniRK6_POINTNS_15single_threadedEE4emitES3_iS6_:
.LFB2044:
	.loc 1 1799 0
	.cfi_startproc
.LVL120:
	mflr 0
	stwu 1,-8(1)
.LCFI24:
	.cfi_def_cfa_offset 8
	.cfi_register 65, 0
	stw 0,12(1)
	.loc 1 1801 0
	lwz 0,8(3)
	.cfi_offset 65, 4
	lwz 11,4(3)
	andi. 9,0,1
	lwz 9,12(3)
	bne- 0,.L94
	mtctr 0
	add 3,11,9
.LVL121:
	bctrl
.LVL122:
	.loc 1 1802 0
	lwz 0,12(1)
	addi 1,1,8
	.cfi_remember_state
.LCFI25:
	.cfi_def_cfa_offset 0
	mtlr 0
	blr
.LVL123:
.L94:
.LCFI26:
	.cfi_restore_state
	.loc 1 1801 0 discriminator 1
	lwzx 10,11,9
	add 3,11,9
.LVL124:
	add 9,10,0
	lwz 0,-1(9)
	mtctr 0
	bctrl
.LVL125:
	.loc 1 1802 0 discriminator 1
	lwz 0,12(1)
	addi 1,1,8
.LCFI27:
	.cfi_def_cfa_offset 0
	mtlr 0
	blr
	.cfi_endproc
.LFE2044:
	.size	_ZN7sigslot12_connection3I4TaskP9GuiButtoniRK6_POINTNS_15single_threadedEE4emitES3_iS6_, .-_ZN7sigslot12_connection3I4TaskP9GuiButtoniRK6_POINTNS_15single_threadedEE4emitES3_iS6_
	.section	.text._ZN7sigslot12_connection3I4TaskP9GuiButtoniRK6_POINTNS_15single_threadedEE9duplicateEPNS_9has_slotsIS7_EE,"axG",@progbits,_ZN7sigslot12_connection3I4TaskP9GuiButtoniRK6_POINTNS_15single_threadedEE9duplicateEPNS_9has_slotsIS7_EE,comdat
	.align 2
	.weak	_ZN7sigslot12_connection3I4TaskP9GuiButtoniRK6_POINTNS_15single_threadedEE9duplicateEPNS_9has_slotsIS7_EE
	.type	_ZN7sigslot12_connection3I4TaskP9GuiButtoniRK6_POINTNS_15single_threadedEE9duplicateEPNS_9has_slotsIS7_EE, @function
_ZN7sigslot12_connection3I4TaskP9GuiButtoniRK6_POINTNS_15single_threadedEE9duplicateEPNS_9has_slotsIS7_EE:
.LFB2052:
	.loc 1 1794 0
	.cfi_startproc
.LVL126:
	stwu 1,-16(1)
.LCFI28:
	.cfi_def_cfa_offset 16
	mflr 0
	stw 30,8(1)
	mr 30,4
	.cfi_offset 30, -8
	.cfi_register 65, 0
	stw 31,12(1)
	mr 31,3
	.cfi_offset 31, -4
	.loc 1 1796 0
	li 3,16
.LVL127:
	.loc 1 1794 0
	stw 0,20(1)
	.loc 1 1796 0
	.cfi_offset 65, 4
	bl _Znwj
.LVL128:
	cmpwi 7,30,0
	li 0,0
	beq- 7,.L97
	.loc 1 1796 0 is_stmt 0 discriminator 1
	addi 0,30,-312
.L97:
.LVL129:
	.loc 1 1796 0 discriminator 3
	lwz 11,8(31)
.LVL130:
.LBB2968:
.LBB2969:
	.loc 1 1778 0 is_stmt 1 discriminator 3
	lis 10,_ZTVN7sigslot12_connection3I4TaskP9GuiButtoniRK6_POINTNS_15single_threadedEEE+8@ha
.LBE2969:
.LBE2968:
	.loc 1 1796 0 discriminator 3
	lwz 9,12(31)
.LVL131:
.LBB2972:
.LBB2970:
	.loc 1 1778 0 discriminator 3
	la 10,_ZTVN7sigslot12_connection3I4TaskP9GuiButtoniRK6_POINTNS_15single_threadedEEE+8@l(10)
	.loc 1 1780 0 discriminator 3
	stw 11,8(3)
	stw 9,12(3)
	.loc 1 1779 0 discriminator 3
	stw 0,4(3)
.LBE2970:
.LBE2972:
	.loc 1 1797 0 discriminator 3
	lwz 0,20(1)
.LVL132:
	lwz 30,8(1)
.LVL133:
	mtlr 0
	lwz 31,12(1)
.LVL134:
.LBB2973:
.LBB2971:
	.loc 1 1778 0 discriminator 3
	stw 10,0(3)
.LBE2971:
.LBE2973:
	.loc 1 1797 0 discriminator 3
	addi 1,1,16
.LCFI29:
	.cfi_def_cfa_offset 0
	.cfi_restore 31
	.cfi_restore 30
	blr
	.cfi_endproc
.LFE2052:
	.size	_ZN7sigslot12_connection3I4TaskP9GuiButtoniRK6_POINTNS_15single_threadedEE9duplicateEPNS_9has_slotsIS7_EE, .-_ZN7sigslot12_connection3I4TaskP9GuiButtoniRK6_POINTNS_15single_threadedEE9duplicateEPNS_9has_slotsIS7_EE
	.section	.text._ZN7sigslot12_connection3I4TaskP9GuiButtoniRK6_POINTNS_15single_threadedEE5cloneEv,"axG",@progbits,_ZN7sigslot12_connection3I4TaskP9GuiButtoniRK6_POINTNS_15single_threadedEE5cloneEv,comdat
	.align 2
	.weak	_ZN7sigslot12_connection3I4TaskP9GuiButtoniRK6_POINTNS_15single_threadedEE5cloneEv
	.type	_ZN7sigslot12_connection3I4TaskP9GuiButtoniRK6_POINTNS_15single_threadedEE5cloneEv, @function
_ZN7sigslot12_connection3I4TaskP9GuiButtoniRK6_POINTNS_15single_threadedEE5cloneEv:
.LFB2045:
	.loc 1 1789 0
	.cfi_startproc
.LVL135:
	stwu 1,-16(1)
.LCFI30:
	.cfi_def_cfa_offset 16
	mflr 0
	stw 31,12(1)
	mr 31,3
	.cfi_offset 31, -4
	.cfi_register 65, 0
	.loc 1 1791 0
	li 3,16
.LVL136:
	.loc 1 1789 0
	stw 0,20(1)
	.loc 1 1791 0
	.cfi_offset 65, 4
	bl _Znwj
	.loc 3 73 0
	lwz 0,4(31)
.LVL137:
.LBB2974:
.LBB2975:
	.loc 1 1767 0
	lis 11,_ZTVN7sigslot12_connection3I4TaskP9GuiButtoniRK6_POINTNS_15single_threadedEEE+8@ha
	la 11,_ZTVN7sigslot12_connection3I4TaskP9GuiButtoniRK6_POINTNS_15single_threadedEEE+8@l(11)
	stw 0,4(3)
	stw 11,0(3)
	lwz 10,8(31)
	lwz 11,12(31)
	stw 10,8(3)
	stw 11,12(3)
.LBE2975:
.LBE2974:
	.loc 1 1792 0
	lwz 0,20(1)
	lwz 31,12(1)
.LVL138:
	mtlr 0
	addi 1,1,16
.LCFI31:
	.cfi_def_cfa_offset 0
	.cfi_restore 31
	blr
	.cfi_endproc
.LFE2045:
	.size	_ZN7sigslot12_connection3I4TaskP9GuiButtoniRK6_POINTNS_15single_threadedEE5cloneEv, .-_ZN7sigslot12_connection3I4TaskP9GuiButtoniRK6_POINTNS_15single_threadedEE5cloneEv
	.section	.text._ZN7sigslot13_signal_base1IP4TaskNS_15single_threadedEE14slot_duplicateEPKNS_9has_slotsIS3_EEPS6_,"axG",@progbits,_ZN7sigslot13_signal_base1IP4TaskNS_15single_threadedEE14slot_duplicateEPKNS_9has_slotsIS3_EEPS6_,comdat
	.align 2
	.weak	_ZN7sigslot13_signal_base1IP4TaskNS_15single_threadedEE14slot_duplicateEPKNS_9has_slotsIS3_EEPS6_
	.type	_ZN7sigslot13_signal_base1IP4TaskNS_15single_threadedEE14slot_duplicateEPKNS_9has_slotsIS3_EEPS6_, @function
_ZN7sigslot13_signal_base1IP4TaskNS_15single_threadedEE14slot_duplicateEPKNS_9has_slotsIS3_EEPS6_:
.LFB2054:
	.loc 1 685 0
	.cfi_startproc
	.cfi_personality 0,__gxx_personality_v0
	.cfi_lsda 0,.LLSDA2054
.LVL139:
	mflr 0
	stwu 1,-32(1)
.LCFI32:
	.cfi_def_cfa_offset 32
	.cfi_register 65, 0
	stw 26,8(1)
	mr 26,5
	.cfi_offset 26, -24
	stw 0,36(1)
	stw 27,12(1)
	mr 27,3
	.cfi_offset 27, -20
	.cfi_offset 65, 4
.LVL140:
.LBB2976:
.LBB2977:
.LBB2978:
	.loc 1 338 0
	lwz 9,0(3)
.LBE2978:
.LBE2977:
.LBE2976:
	.loc 1 685 0
	stw 29,20(1)
	mr 29,4
	.cfi_offset 29, -12
.LBB3007:
.LBB2983:
.LBB2979:
	.loc 1 338 0
	lwz 0,8(9)
.LBE2979:
.LBE2983:
.LBE3007:
	.loc 1 685 0
	stw 30,24(1)
.LBB3008:
.LBB2984:
.LBB2980:
	.loc 3 73 0
	mr 30,27
	.cfi_offset 30, -8
.LBE2980:
.LBE2984:
.LBE3008:
	.loc 1 685 0
	stw 31,28(1)
.LBB3009:
.LBB2985:
.LBB2981:
	.loc 1 338 0
	mtctr 0
.LBE2981:
.LBE2985:
.LBE3009:
	.loc 1 685 0
	stw 28,16(1)
.LEHB8:
.LBB3010:
.LBB2986:
.LBB2982:
	.loc 1 338 0
	.cfi_offset 28, -16
	.cfi_offset 31, -4
	bctrl
.LEHE8:
.LVL141:
	.loc 3 73 0
	lwzu 31,4(30)
.LVL142:
.LBE2982:
.LBE2986:
	.loc 1 691 0
	cmpw 7,31,30
	bne+ 7,.L110
	b .L101
.LVL143:
.L102:
.LBB2987:
.LBB2988:
	.loc 4 154 0
	lwz 31,0(31)
.LVL144:
.LBE2988:
.LBE2987:
	.loc 1 691 0
	cmpw 7,30,31
	beq- 7,.L101
.LVL145:
.L110:
	.loc 1 693 0
	lwz 3,8(31)
	lwz 9,0(3)
	lwz 0,8(9)
	mtctr 0
.LEHB9:
	bctrl
	cmpw 7,29,3
	bne+ 7,.L102
.LVL146:
	.loc 1 695 0
	lwz 3,8(31)
	mr 4,26
	lwz 9,0(3)
	lwz 0,20(9)
	mtctr 0
	bctrl
	mr 28,3
.LVL147:
.LBB2990:
.LBB2991:
.LBB2992:
.LBB2993:
.LBB2994:
.LBB2995:
.LBB2996:
.LBB2997:
	.file 5 "d:\\devkitpro\\devkitppc\\bin\\../lib/gcc/powerpc-eabi/4.6.3/../../../../powerpc-eabi/include/c++/4.6.3/ext/new_allocator.h"
	.loc 5 92 0
	li 3,12
	bl _Znwj
.LEHE9:
.LVL148:
.LBE2997:
.LBE2996:
.LBE2995:
.LBB2998:
.LBB2999:
	.loc 5 108 0 discriminator 1
	cmpwi 7,3,-8
	beq- 7,.L104
	.loc 5 108 0 is_stmt 0
	stw 28,8(3)
.L104:
.LVL149:
.LBE2999:
.LBE2998:
.LBE2994:
.LBE2993:
	.loc 4 1516 0 is_stmt 1
	mr 4,30
	bl _ZNSt8__detail15_List_node_base7_M_hookEPS0_
.LVL150:
.LBE2992:
.LBE2991:
.LBE2990:
.LBB3000:
.LBB2989:
	.loc 4 154 0
	lwz 31,0(31)
.LVL151:
.LBE2989:
.LBE3000:
	.loc 1 691 0
	cmpw 7,30,31
	bne+ 7,.L110
.LVL152:
.L101:
.LBB3001:
.LBB3002:
.LBB3003:
	.loc 1 343 0
	lwz 9,0(27)
	mr 3,27
	lwz 0,12(9)
	mtctr 0
.LEHB10:
	bctrl
.LEHE10:
.LBE3003:
.LBE3002:
.LBE3001:
.LBE3010:
	.loc 1 700 0
	lwz 0,36(1)
	lwz 26,8(1)
.LVL153:
	mtlr 0
	lwz 27,12(1)
.LVL154:
	lwz 28,16(1)
	lwz 29,20(1)
.LVL155:
	lwz 30,24(1)
.LVL156:
	lwz 31,28(1)
.LVL157:
	addi 1,1,32
	.cfi_remember_state
.LCFI33:
	.cfi_def_cfa_offset 0
	.cfi_restore 31
	.cfi_restore 30
	.cfi_restore 29
	.cfi_restore 28
	.cfi_restore 27
	.cfi_restore 26
	blr
.LVL158:
.L109:
.LCFI34:
	.cfi_restore_state
.LBB3011:
.LBB3004:
.LBB3005:
.LBB3006:
	.loc 1 343 0
	lwz 9,0(27)
	mr 31,3
.LVL159:
	mr 3,27
	lwz 0,12(9)
	mtctr 0
	bctrl
	mr 3,31
.LEHB11:
	bl _Unwind_Resume
.LEHE11:
.LBE3006:
.LBE3005:
.LBE3004:
.LBE3011:
	.cfi_endproc
.LFE2054:
	.section	.gcc_except_table
.LLSDA2054:
	.byte	0xff
	.byte	0xff
	.byte	0x1
	.uleb128 .LLSDACSE2054-.LLSDACSB2054
.LLSDACSB2054:
	.uleb128 .LEHB8-.LFB2054
	.uleb128 .LEHE8-.LEHB8
	.uleb128 0
	.uleb128 0
	.uleb128 .LEHB9-.LFB2054
	.uleb128 .LEHE9-.LEHB9
	.uleb128 .L109-.LFB2054
	.uleb128 0
	.uleb128 .LEHB10-.LFB2054
	.uleb128 .LEHE10-.LEHB10
	.uleb128 0
	.uleb128 0
	.uleb128 .LEHB11-.LFB2054
	.uleb128 .LEHE11-.LEHB11
	.uleb128 0
	.uleb128 0
.LLSDACSE2054:
	.section	.text._ZN7sigslot13_signal_base1IP4TaskNS_15single_threadedEE14slot_duplicateEPKNS_9has_slotsIS3_EEPS6_,"axG",@progbits,_ZN7sigslot13_signal_base1IP4TaskNS_15single_threadedEE14slot_duplicateEPKNS_9has_slotsIS3_EEPS6_,comdat
	.size	_ZN7sigslot13_signal_base1IP4TaskNS_15single_threadedEE14slot_duplicateEPKNS_9has_slotsIS3_EEPS6_, .-_ZN7sigslot13_signal_base1IP4TaskNS_15single_threadedEE14slot_duplicateEPKNS_9has_slotsIS3_EEPS6_
	.section	.text._ZN7sigslot13_signal_base2IP4TaskiNS_15single_threadedEE14slot_duplicateEPKNS_9has_slotsIS3_EEPS6_,"axG",@progbits,_ZN7sigslot13_signal_base2IP4TaskiNS_15single_threadedEE14slot_duplicateEPKNS_9has_slotsIS3_EEPS6_,comdat
	.align 2
	.weak	_ZN7sigslot13_signal_base2IP4TaskiNS_15single_threadedEE14slot_duplicateEPKNS_9has_slotsIS3_EEPS6_
	.type	_ZN7sigslot13_signal_base2IP4TaskiNS_15single_threadedEE14slot_duplicateEPKNS_9has_slotsIS3_EEPS6_, @function
_ZN7sigslot13_signal_base2IP4TaskiNS_15single_threadedEE14slot_duplicateEPKNS_9has_slotsIS3_EEPS6_:
.LFB2056:
	.loc 1 806 0
	.cfi_startproc
	.cfi_personality 0,__gxx_personality_v0
	.cfi_lsda 0,.LLSDA2056
.LVL160:
	mflr 0
	stwu 1,-32(1)
.LCFI35:
	.cfi_def_cfa_offset 32
	.cfi_register 65, 0
	stw 26,8(1)
	mr 26,5
	.cfi_offset 26, -24
	stw 0,36(1)
	stw 27,12(1)
	mr 27,3
	.cfi_offset 27, -20
	.cfi_offset 65, 4
.LVL161:
.LBB3012:
.LBB3013:
.LBB3014:
	.loc 1 338 0
	lwz 9,0(3)
.LBE3014:
.LBE3013:
.LBE3012:
	.loc 1 806 0
	stw 29,20(1)
	mr 29,4
	.cfi_offset 29, -12
.LBB3043:
.LBB3019:
.LBB3015:
	.loc 1 338 0
	lwz 0,8(9)
.LBE3015:
.LBE3019:
.LBE3043:
	.loc 1 806 0
	stw 30,24(1)
.LBB3044:
.LBB3020:
.LBB3016:
	.loc 3 73 0
	mr 30,27
	.cfi_offset 30, -8
.LBE3016:
.LBE3020:
.LBE3044:
	.loc 1 806 0
	stw 31,28(1)
.LBB3045:
.LBB3021:
.LBB3017:
	.loc 1 338 0
	mtctr 0
.LBE3017:
.LBE3021:
.LBE3045:
	.loc 1 806 0
	stw 28,16(1)
.LEHB12:
.LBB3046:
.LBB3022:
.LBB3018:
	.loc 1 338 0
	.cfi_offset 28, -16
	.cfi_offset 31, -4
	bctrl
.LEHE12:
.LVL162:
	.loc 3 73 0
	lwzu 31,4(30)
.LVL163:
.LBE3018:
.LBE3022:
	.loc 1 812 0
	cmpw 7,31,30
	bne+ 7,.L122
	b .L113
.LVL164:
.L114:
.LBB3023:
.LBB3024:
	.loc 4 154 0
	lwz 31,0(31)
.LVL165:
.LBE3024:
.LBE3023:
	.loc 1 812 0
	cmpw 7,30,31
	beq- 7,.L113
.LVL166:
.L122:
	.loc 1 814 0
	lwz 3,8(31)
	lwz 9,0(3)
	lwz 0,8(9)
	mtctr 0
.LEHB13:
	bctrl
	cmpw 7,29,3
	bne+ 7,.L114
.LVL167:
	.loc 1 816 0
	lwz 3,8(31)
	mr 4,26
	lwz 9,0(3)
	lwz 0,20(9)
	mtctr 0
	bctrl
	mr 28,3
.LVL168:
.LBB3026:
.LBB3027:
.LBB3028:
.LBB3029:
.LBB3030:
.LBB3031:
.LBB3032:
.LBB3033:
	.loc 5 92 0
	li 3,12
	bl _Znwj
.LEHE13:
.LVL169:
.LBE3033:
.LBE3032:
.LBE3031:
.LBB3034:
.LBB3035:
	.loc 5 108 0 discriminator 1
	cmpwi 7,3,-8
	beq- 7,.L116
	.loc 5 108 0 is_stmt 0
	stw 28,8(3)
.L116:
.LVL170:
.LBE3035:
.LBE3034:
.LBE3030:
.LBE3029:
	.loc 4 1516 0 is_stmt 1
	mr 4,30
	bl _ZNSt8__detail15_List_node_base7_M_hookEPS0_
.LVL171:
.LBE3028:
.LBE3027:
.LBE3026:
.LBB3036:
.LBB3025:
	.loc 4 154 0
	lwz 31,0(31)
.LVL172:
.LBE3025:
.LBE3036:
	.loc 1 812 0
	cmpw 7,30,31
	bne+ 7,.L122
.LVL173:
.L113:
.LBB3037:
.LBB3038:
.LBB3039:
	.loc 1 343 0
	lwz 9,0(27)
	mr 3,27
	lwz 0,12(9)
	mtctr 0
.LEHB14:
	bctrl
.LEHE14:
.LBE3039:
.LBE3038:
.LBE3037:
.LBE3046:
	.loc 1 821 0
	lwz 0,36(1)
	lwz 26,8(1)
.LVL174:
	mtlr 0
	lwz 27,12(1)
.LVL175:
	lwz 28,16(1)
	lwz 29,20(1)
.LVL176:
	lwz 30,24(1)
.LVL177:
	lwz 31,28(1)
.LVL178:
	addi 1,1,32
	.cfi_remember_state
.LCFI36:
	.cfi_def_cfa_offset 0
	.cfi_restore 31
	.cfi_restore 30
	.cfi_restore 29
	.cfi_restore 28
	.cfi_restore 27
	.cfi_restore 26
	blr
.LVL179:
.L121:
.LCFI37:
	.cfi_restore_state
.LBB3047:
.LBB3040:
.LBB3041:
.LBB3042:
	.loc 1 343 0
	lwz 9,0(27)
	mr 31,3
.LVL180:
	mr 3,27
	lwz 0,12(9)
	mtctr 0
	bctrl
	mr 3,31
.LEHB15:
	bl _Unwind_Resume
.LEHE15:
.LBE3042:
.LBE3041:
.LBE3040:
.LBE3047:
	.cfi_endproc
.LFE2056:
	.section	.gcc_except_table
.LLSDA2056:
	.byte	0xff
	.byte	0xff
	.byte	0x1
	.uleb128 .LLSDACSE2056-.LLSDACSB2056
.LLSDACSB2056:
	.uleb128 .LEHB12-.LFB2056
	.uleb128 .LEHE12-.LEHB12
	.uleb128 0
	.uleb128 0
	.uleb128 .LEHB13-.LFB2056
	.uleb128 .LEHE13-.LEHB13
	.uleb128 .L121-.LFB2056
	.uleb128 0
	.uleb128 .LEHB14-.LFB2056
	.uleb128 .LEHE14-.LEHB14
	.uleb128 0
	.uleb128 0
	.uleb128 .LEHB15-.LFB2056
	.uleb128 .LEHE15-.LEHB15
	.uleb128 0
	.uleb128 0
.LLSDACSE2056:
	.section	.text._ZN7sigslot13_signal_base2IP4TaskiNS_15single_threadedEE14slot_duplicateEPKNS_9has_slotsIS3_EEPS6_,"axG",@progbits,_ZN7sigslot13_signal_base2IP4TaskiNS_15single_threadedEE14slot_duplicateEPKNS_9has_slotsIS3_EEPS6_,comdat
	.size	_ZN7sigslot13_signal_base2IP4TaskiNS_15single_threadedEE14slot_duplicateEPKNS_9has_slotsIS3_EEPS6_, .-_ZN7sigslot13_signal_base2IP4TaskiNS_15single_threadedEE14slot_duplicateEPKNS_9has_slotsIS3_EEPS6_
	.section	.text._ZN7sigslot12_connection3I4TaskP9GuiButtoniRK6_POINTNS_15single_threadedEED0Ev,"axG",@progbits,_ZN7sigslot12_connection3I4TaskP9GuiButtoniRK6_POINTNS_15single_threadedEED5Ev,comdat
	.align 2
	.weak	_ZN7sigslot12_connection3I4TaskP9GuiButtoniRK6_POINTNS_15single_threadedEED0Ev
	.type	_ZN7sigslot12_connection3I4TaskP9GuiButtoniRK6_POINTNS_15single_threadedEED0Ev, @function
_ZN7sigslot12_connection3I4TaskP9GuiButtoniRK6_POINTNS_15single_threadedEED0Ev:
.LFB2042:
	.loc 1 1783 0
	.cfi_startproc
.LVL181:
	mflr 0
	stwu 1,-8(1)
.LCFI38:
	.cfi_def_cfa_offset 8
	.cfi_register 65, 0
.LBB3048:
.LBB3049:
.LBB3050:
.LBB3051:
.LBB3052:
.LBB3053:
	.loc 1 387 0
	lis 9,_ZTVN7sigslot17_connection_base3IP9GuiButtoniRK6_POINTNS_15single_threadedEEE+8@ha
.LBE3053:
.LBE3052:
.LBE3051:
.LBE3050:
.LBE3049:
.LBE3048:
	.loc 1 1783 0
	stw 0,12(1)
.LBB3059:
.LBB3058:
.LBB3057:
.LBB3056:
.LBB3055:
.LBB3054:
	.loc 1 387 0
	la 0,_ZTVN7sigslot17_connection_base3IP9GuiButtoniRK6_POINTNS_15single_threadedEEE+8@l(9)
	.cfi_offset 65, 4
	stw 0,0(3)
.LBE3054:
.LBE3055:
.LBE3056:
.LBE3057:
.LBE3058:
.LBE3059:
	.loc 1 1786 0
	bl _ZdlPv
.LVL182:
	lwz 0,12(1)
	addi 1,1,8
.LCFI39:
	.cfi_def_cfa_offset 0
	mtlr 0
	blr
	.cfi_endproc
.LFE2042:
	.size	_ZN7sigslot12_connection3I4TaskP9GuiButtoniRK6_POINTNS_15single_threadedEED0Ev, .-_ZN7sigslot12_connection3I4TaskP9GuiButtoniRK6_POINTNS_15single_threadedEED0Ev
	.section	.text._ZN7sigslot17_connection_base3IP9GuiButtoniRK6_POINTNS_15single_threadedEED0Ev,"axG",@progbits,_ZN7sigslot17_connection_base3IP9GuiButtoniRK6_POINTNS_15single_threadedEED5Ev,comdat
	.align 2
	.weak	_ZN7sigslot17_connection_base3IP9GuiButtoniRK6_POINTNS_15single_threadedEED0Ev
	.type	_ZN7sigslot17_connection_base3IP9GuiButtoniRK6_POINTNS_15single_threadedEED0Ev, @function
_ZN7sigslot17_connection_base3IP9GuiButtoniRK6_POINTNS_15single_threadedEED0Ev:
.LFB1706:
	.loc 1 387 0
	.cfi_startproc
.LVL183:
	mflr 0
	stwu 1,-8(1)
.LCFI40:
	.cfi_def_cfa_offset 8
	.cfi_register 65, 0
.LBB3060:
.LBB3061:
.LBB3062:
	lis 9,_ZTVN7sigslot17_connection_base3IP9GuiButtoniRK6_POINTNS_15single_threadedEEE+8@ha
.LBE3062:
.LBE3061:
.LBE3060:
	stw 0,12(1)
.LBB3065:
.LBB3064:
.LBB3063:
	.loc 1 387 0
	la 0,_ZTVN7sigslot17_connection_base3IP9GuiButtoniRK6_POINTNS_15single_threadedEEE+8@l(9)
	.cfi_offset 65, 4
	stw 0,0(3)
.LBE3063:
.LBE3064:
.LBE3065:
	bl _ZdlPv
.LVL184:
	lwz 0,12(1)
	addi 1,1,8
.LCFI41:
	.cfi_def_cfa_offset 0
	mtlr 0
	blr
	.cfi_endproc
.LFE1706:
	.size	_ZN7sigslot17_connection_base3IP9GuiButtoniRK6_POINTNS_15single_threadedEED0Ev, .-_ZN7sigslot17_connection_base3IP9GuiButtoniRK6_POINTNS_15single_threadedEED0Ev
	.section	.text._ZN7sigslot12_signal_baseINS_15single_threadedEED0Ev,"axG",@progbits,_ZN7sigslot12_signal_baseINS_15single_threadedEED5Ev,comdat
	.align 2
	.weak	_ZN7sigslot12_signal_baseINS_15single_threadedEED0Ev
	.type	_ZN7sigslot12_signal_baseINS_15single_threadedEED0Ev, @function
_ZN7sigslot12_signal_baseINS_15single_threadedEED0Ev:
.LFB1543:
	.loc 1 466 0
	.cfi_startproc
.LVL185:
	mflr 0
	stwu 1,-8(1)
.LCFI42:
	.cfi_def_cfa_offset 8
	.cfi_register 65, 0
.LBB3066:
.LBB3067:
.LBB3068:
.LBB3069:
.LBB3070:
.LBB3071:
	.loc 1 105 0
	lis 9,_ZTVN7sigslot15single_threadedE+8@ha
.LBE3071:
.LBE3070:
.LBE3069:
.LBE3068:
.LBE3067:
.LBE3066:
	.loc 1 466 0
	stw 0,12(1)
.LBB3077:
.LBB3076:
.LBB3075:
.LBB3074:
.LBB3073:
.LBB3072:
	.loc 1 105 0
	la 0,_ZTVN7sigslot15single_threadedE+8@l(9)
	.cfi_offset 65, 4
	stw 0,0(3)
.LBE3072:
.LBE3073:
.LBE3074:
.LBE3075:
.LBE3076:
.LBE3077:
	.loc 1 466 0
	bl _ZdlPv
.LVL186:
	lwz 0,12(1)
	addi 1,1,8
.LCFI43:
	.cfi_def_cfa_offset 0
	mtlr 0
	blr
	.cfi_endproc
.LFE1543:
	.size	_ZN7sigslot12_signal_baseINS_15single_threadedEED0Ev, .-_ZN7sigslot12_signal_baseINS_15single_threadedEED0Ev
	.section	.text._ZN7sigslot15single_threadedD0Ev,"axG",@progbits,_ZN7sigslot15single_threadedD5Ev,comdat
	.align 2
	.weak	_ZN7sigslot15single_threadedD0Ev
	.type	_ZN7sigslot15single_threadedD0Ev, @function
_ZN7sigslot15single_threadedD0Ev:
.LFB1150:
	.loc 1 104 0
	.cfi_startproc
.LVL187:
	mflr 0
	stwu 1,-8(1)
.LCFI44:
	.cfi_def_cfa_offset 8
	.cfi_register 65, 0
.LBB3078:
.LBB3079:
.LBB3080:
	.loc 1 105 0
	lis 9,_ZTVN7sigslot15single_threadedE+8@ha
.LBE3080:
.LBE3079:
.LBE3078:
	.loc 1 104 0
	stw 0,12(1)
.LBB3083:
.LBB3082:
.LBB3081:
	.loc 1 105 0
	la 0,_ZTVN7sigslot15single_threadedE+8@l(9)
	.cfi_offset 65, 4
	stw 0,0(3)
.LBE3081:
.LBE3082:
.LBE3083:
	.loc 1 107 0
	bl _ZdlPv
.LVL188:
	lwz 0,12(1)
	addi 1,1,8
.LCFI45:
	.cfi_def_cfa_offset 0
	mtlr 0
	blr
	.cfi_endproc
.LFE1150:
	.size	_ZN7sigslot15single_threadedD0Ev, .-_ZN7sigslot15single_threadedD0Ev
	.section	.text._ZN7sigslot13_signal_base1IP4TaskNS_15single_threadedEE15slot_disconnectEPNS_9has_slotsIS3_EE,"axG",@progbits,_ZN7sigslot13_signal_base1IP4TaskNS_15single_threadedEE15slot_disconnectEPNS_9has_slotsIS3_EE,comdat
	.align 2
	.weak	_ZN7sigslot13_signal_base1IP4TaskNS_15single_threadedEE15slot_disconnectEPNS_9has_slotsIS3_EE
	.type	_ZN7sigslot13_signal_base1IP4TaskNS_15single_threadedEE15slot_disconnectEPNS_9has_slotsIS3_EE, @function
_ZN7sigslot13_signal_base1IP4TaskNS_15single_threadedEE15slot_disconnectEPNS_9has_slotsIS3_EE:
.LFB2053:
	.loc 1 749 0
	.cfi_startproc
	.cfi_personality 0,__gxx_personality_v0
	.cfi_lsda 0,.LLSDA2053
.LVL189:
	mflr 0
	stwu 1,-32(1)
.LCFI46:
	.cfi_def_cfa_offset 32
	.cfi_register 65, 0
	stw 27,12(1)
	mr 27,3
	.cfi_offset 27, -20
.LVL190:
	stw 0,36(1)
	stw 28,16(1)
	mr 28,4
	.cfi_offset 28, -16
	.cfi_offset 65, 4
.LBB3084:
.LBB3085:
.LBB3086:
	.loc 1 338 0
	lwz 9,0(3)
.LBE3086:
.LBE3085:
.LBE3084:
	.loc 1 749 0
	stw 29,20(1)
.LBB3107:
.LBB3089:
.LBB3087:
	.loc 3 73 0
	mr 29,27
	.cfi_offset 29, -12
	.loc 1 338 0
	lwz 0,8(9)
.LBE3087:
.LBE3089:
.LBE3107:
	.loc 1 749 0
	stw 31,28(1)
	stw 30,24(1)
.LBB3108:
.LBB3090:
.LBB3088:
	.loc 1 338 0
	mtctr 0
.LEHB16:
	.cfi_offset 30, -8
	.cfi_offset 31, -4
	bctrl
.LEHE16:
.LVL191:
	.loc 3 73 0
	lwzu 31,4(29)
.LVL192:
.LBE3088:
.LBE3090:
	.loc 1 755 0
	cmpw 7,31,29
	bne+ 7,.L150
	b .L139
.LVL193:
.L140:
	.loc 1 755 0 is_stmt 0 discriminator 1
	cmpw 7,29,30
	beq- 7,.L139
.L148:
	.loc 1 755 0
	mr 31,30
.LVL194:
.L150:
.LBB3091:
	.loc 1 760 0 is_stmt 1
	lwz 3,8(31)
.LBB3092:
.LBB3093:
	.loc 4 154 0
	lwz 30,0(31)
.LVL195:
.LBE3093:
.LBE3092:
	.loc 1 760 0
	lwz 9,0(3)
	lwz 0,8(9)
	mtctr 0
.LEHB17:
	bctrl
.LVL196:
	cmpw 7,28,3
	bne+ 7,.L140
.LVL197:
	.loc 1 762 0
	lwz 3,8(31)
	cmpwi 7,3,0
	beq- 7,.L141
	.loc 1 762 0 is_stmt 0 discriminator 1
	lwz 9,0(3)
	lwz 0,4(9)
	mtctr 0
	bctrl
.LEHE17:
.L141:
.LVL198:
.LBB3094:
.LBB3095:
.LBB3096:
.LBB3097:
	.loc 4 1532 0 is_stmt 1
	mr 3,31
	bl _ZNSt8__detail15_List_node_base9_M_unhookEv
.LVL199:
.LBB3098:
.LBB3099:
.LBB3100:
	.loc 5 98 0
	mr 3,31
	bl _ZdlPv
.LVL200:
.LBE3100:
.LBE3099:
.LBE3098:
.LBE3097:
.LBE3096:
.LBE3095:
.LBE3094:
.LBE3091:
	.loc 1 755 0
	cmpw 7,29,30
	bne+ 7,.L148
.LVL201:
.L139:
.LBB3101:
.LBB3102:
.LBB3103:
	.loc 1 343 0
	lwz 9,0(27)
	mr 3,27
	lwz 0,12(9)
	mtctr 0
.LEHB18:
	bctrl
.LEHE18:
.LBE3103:
.LBE3102:
.LBE3101:
.LBE3108:
	.loc 1 769 0
	lwz 0,36(1)
	lwz 27,12(1)
.LVL202:
	mtlr 0
	lwz 28,16(1)
.LVL203:
	lwz 29,20(1)
.LVL204:
	lwz 30,24(1)
	lwz 31,28(1)
	addi 1,1,32
	.cfi_remember_state
.LCFI47:
	.cfi_def_cfa_offset 0
	.cfi_restore 31
	.cfi_restore 30
	.cfi_restore 29
	.cfi_restore 28
	.cfi_restore 27
	blr
.LVL205:
.L149:
.LCFI48:
	.cfi_restore_state
.LBB3109:
.LBB3104:
.LBB3105:
.LBB3106:
	.loc 1 343 0
	lwz 9,0(27)
	mr 31,3
.LVL206:
	mr 3,27
	lwz 0,12(9)
	mtctr 0
	bctrl
	mr 3,31
.LEHB19:
	bl _Unwind_Resume
.LEHE19:
.LBE3106:
.LBE3105:
.LBE3104:
.LBE3109:
	.cfi_endproc
.LFE2053:
	.section	.gcc_except_table
.LLSDA2053:
	.byte	0xff
	.byte	0xff
	.byte	0x1
	.uleb128 .LLSDACSE2053-.LLSDACSB2053
.LLSDACSB2053:
	.uleb128 .LEHB16-.LFB2053
	.uleb128 .LEHE16-.LEHB16
	.uleb128 0
	.uleb128 0
	.uleb128 .LEHB17-.LFB2053
	.uleb128 .LEHE17-.LEHB17
	.uleb128 .L149-.LFB2053
	.uleb128 0
	.uleb128 .LEHB18-.LFB2053
	.uleb128 .LEHE18-.LEHB18
	.uleb128 0
	.uleb128 0
	.uleb128 .LEHB19-.LFB2053
	.uleb128 .LEHE19-.LEHB19
	.uleb128 0
	.uleb128 0
.LLSDACSE2053:
	.section	.text._ZN7sigslot13_signal_base1IP4TaskNS_15single_threadedEE15slot_disconnectEPNS_9has_slotsIS3_EE,"axG",@progbits,_ZN7sigslot13_signal_base1IP4TaskNS_15single_threadedEE15slot_disconnectEPNS_9has_slotsIS3_EE,comdat
	.size	_ZN7sigslot13_signal_base1IP4TaskNS_15single_threadedEE15slot_disconnectEPNS_9has_slotsIS3_EE, .-_ZN7sigslot13_signal_base1IP4TaskNS_15single_threadedEE15slot_disconnectEPNS_9has_slotsIS3_EE
	.section	.text._ZN7sigslot13_signal_base2IP4TaskiNS_15single_threadedEE15slot_disconnectEPNS_9has_slotsIS3_EE,"axG",@progbits,_ZN7sigslot13_signal_base2IP4TaskiNS_15single_threadedEE15slot_disconnectEPNS_9has_slotsIS3_EE,comdat
	.align 2
	.weak	_ZN7sigslot13_signal_base2IP4TaskiNS_15single_threadedEE15slot_disconnectEPNS_9has_slotsIS3_EE
	.type	_ZN7sigslot13_signal_base2IP4TaskiNS_15single_threadedEE15slot_disconnectEPNS_9has_slotsIS3_EE, @function
_ZN7sigslot13_signal_base2IP4TaskiNS_15single_threadedEE15slot_disconnectEPNS_9has_slotsIS3_EE:
.LFB2055:
	.loc 1 870 0
	.cfi_startproc
	.cfi_personality 0,__gxx_personality_v0
	.cfi_lsda 0,.LLSDA2055
.LVL207:
	mflr 0
	stwu 1,-32(1)
.LCFI49:
	.cfi_def_cfa_offset 32
	.cfi_register 65, 0
	stw 27,12(1)
	mr 27,3
	.cfi_offset 27, -20
.LVL208:
	stw 0,36(1)
	stw 28,16(1)
	mr 28,4
	.cfi_offset 28, -16
	.cfi_offset 65, 4
.LBB3110:
.LBB3111:
.LBB3112:
	.loc 1 338 0
	lwz 9,0(3)
.LBE3112:
.LBE3111:
.LBE3110:
	.loc 1 870 0
	stw 29,20(1)
.LBB3133:
.LBB3115:
.LBB3113:
	.loc 3 73 0
	mr 29,27
	.cfi_offset 29, -12
	.loc 1 338 0
	lwz 0,8(9)
.LBE3113:
.LBE3115:
.LBE3133:
	.loc 1 870 0
	stw 31,28(1)
	stw 30,24(1)
.LBB3134:
.LBB3116:
.LBB3114:
	.loc 1 338 0
	mtctr 0
.LEHB20:
	.cfi_offset 30, -8
	.cfi_offset 31, -4
	bctrl
.LEHE20:
.LVL209:
	.loc 3 73 0
	lwzu 31,4(29)
.LVL210:
.LBE3114:
.LBE3116:
	.loc 1 876 0
	cmpw 7,31,29
	bne+ 7,.L163
	b .L152
.LVL211:
.L153:
	.loc 1 876 0 is_stmt 0 discriminator 1
	cmpw 7,29,30
	beq- 7,.L152
.L161:
	.loc 1 876 0
	mr 31,30
.LVL212:
.L163:
.LBB3117:
	.loc 1 881 0 is_stmt 1
	lwz 3,8(31)
.LBB3118:
.LBB3119:
	.loc 4 154 0
	lwz 30,0(31)
.LVL213:
.LBE3119:
.LBE3118:
	.loc 1 881 0
	lwz 9,0(3)
	lwz 0,8(9)
	mtctr 0
.LEHB21:
	bctrl
.LVL214:
	cmpw 7,28,3
	bne+ 7,.L153
.LVL215:
	.loc 1 883 0
	lwz 3,8(31)
	cmpwi 7,3,0
	beq- 7,.L154
	.loc 1 883 0 is_stmt 0 discriminator 1
	lwz 9,0(3)
	lwz 0,4(9)
	mtctr 0
	bctrl
.LEHE21:
.L154:
.LVL216:
.LBB3120:
.LBB3121:
.LBB3122:
.LBB3123:
	.loc 4 1532 0 is_stmt 1
	mr 3,31
	bl _ZNSt8__detail15_List_node_base9_M_unhookEv
.LVL217:
.LBB3124:
.LBB3125:
.LBB3126:
	.loc 5 98 0
	mr 3,31
	bl _ZdlPv
.LVL218:
.LBE3126:
.LBE3125:
.LBE3124:
.LBE3123:
.LBE3122:
.LBE3121:
.LBE3120:
.LBE3117:
	.loc 1 876 0
	cmpw 7,29,30
	bne+ 7,.L161
.LVL219:
.L152:
.LBB3127:
.LBB3128:
.LBB3129:
	.loc 1 343 0
	lwz 9,0(27)
	mr 3,27
	lwz 0,12(9)
	mtctr 0
.LEHB22:
	bctrl
.LEHE22:
.LBE3129:
.LBE3128:
.LBE3127:
.LBE3134:
	.loc 1 890 0
	lwz 0,36(1)
	lwz 27,12(1)
.LVL220:
	mtlr 0
	lwz 28,16(1)
.LVL221:
	lwz 29,20(1)
.LVL222:
	lwz 30,24(1)
	lwz 31,28(1)
	addi 1,1,32
	.cfi_remember_state
.LCFI50:
	.cfi_def_cfa_offset 0
	.cfi_restore 31
	.cfi_restore 30
	.cfi_restore 29
	.cfi_restore 28
	.cfi_restore 27
	blr
.LVL223:
.L162:
.LCFI51:
	.cfi_restore_state
.LBB3135:
.LBB3130:
.LBB3131:
.LBB3132:
	.loc 1 343 0
	lwz 9,0(27)
	mr 31,3
.LVL224:
	mr 3,27
	lwz 0,12(9)
	mtctr 0
	bctrl
	mr 3,31
.LEHB23:
	bl _Unwind_Resume
.LEHE23:
.LBE3132:
.LBE3131:
.LBE3130:
.LBE3135:
	.cfi_endproc
.LFE2055:
	.section	.gcc_except_table
.LLSDA2055:
	.byte	0xff
	.byte	0xff
	.byte	0x1
	.uleb128 .LLSDACSE2055-.LLSDACSB2055
.LLSDACSB2055:
	.uleb128 .LEHB20-.LFB2055
	.uleb128 .LEHE20-.LEHB20
	.uleb128 0
	.uleb128 0
	.uleb128 .LEHB21-.LFB2055
	.uleb128 .LEHE21-.LEHB21
	.uleb128 .L162-.LFB2055
	.uleb128 0
	.uleb128 .LEHB22-.LFB2055
	.uleb128 .LEHE22-.LEHB22
	.uleb128 0
	.uleb128 0
	.uleb128 .LEHB23-.LFB2055
	.uleb128 .LEHE23-.LEHB23
	.uleb128 0
	.uleb128 0
.LLSDACSE2055:
	.section	.text._ZN7sigslot13_signal_base2IP4TaskiNS_15single_threadedEE15slot_disconnectEPNS_9has_slotsIS3_EE,"axG",@progbits,_ZN7sigslot13_signal_base2IP4TaskiNS_15single_threadedEE15slot_disconnectEPNS_9has_slotsIS3_EE,comdat
	.size	_ZN7sigslot13_signal_base2IP4TaskiNS_15single_threadedEE15slot_disconnectEPNS_9has_slotsIS3_EE, .-_ZN7sigslot13_signal_base2IP4TaskiNS_15single_threadedEE15slot_disconnectEPNS_9has_slotsIS3_EE
	.section	.text._ZN16SimpleGuiTriggerD2Ev,"axG",@progbits,_ZN16SimpleGuiTriggerD5Ev,comdat
	.align 2
	.weak	_ZN16SimpleGuiTriggerD2Ev
	.type	_ZN16SimpleGuiTriggerD2Ev, @function
_ZN16SimpleGuiTriggerD2Ev:
.LFB1471:
	.file 6 "d:/Projects/SaveGameManager/savegame-manager-gx/trunk/source/Controls/../GUI/gui_trigger.h"
	.loc 6 91 0
	.cfi_startproc
.LVL225:
	mflr 0
	stwu 1,-8(1)
.LCFI52:
	.cfi_def_cfa_offset 8
	.cfi_register 65, 0
.LBB3137:
	lis 9,_ZTV16SimpleGuiTrigger+8@ha
.LBE3137:
	stw 0,12(1)
.LBB3138:
	.loc 6 91 0
	la 0,_ZTV16SimpleGuiTrigger+8@l(9)
	.cfi_offset 65, 4
	stw 0,0(3)
	bl _ZN10GuiTriggerD2Ev
.LVL226:
.LBE3138:
	lwz 0,12(1)
	addi 1,1,8
.LCFI53:
	.cfi_def_cfa_offset 0
	mtlr 0
	blr
	.cfi_endproc
.LFE1471:
	.size	_ZN16SimpleGuiTriggerD2Ev, .-_ZN16SimpleGuiTriggerD2Ev
	.section	.text._ZN10GuiElement10ResetStateEv,"axG",@progbits,_ZN10GuiElement10ResetStateEv,comdat
	.align 2
	.weak	_ZN10GuiElement10ResetStateEv
	.type	_ZN10GuiElement10ResetStateEv, @function
_ZN10GuiElement10ResetStateEv:
.LFB1402:
	.loc 2 183 0
	.cfi_startproc
.LVL227:
	mflr 0
	stwu 1,-8(1)
.LCFI54:
	.cfi_def_cfa_offset 8
	.cfi_register 65, 0
	stw 0,12(1)
	.loc 2 185 0
	lwz 0,72(3)
	.cfi_offset 65, 4
	cmpwi 7,0,4
	beq- 7,.L166
.LVL228:
.LBB3141:
.LBB3142:
	.loc 2 186 0
	lwz 9,0(3)
	li 4,0
	li 5,-1
	lwz 0,80(9)
	mtctr 0
	bctrl
.LVL229:
.L166:
.LBE3142:
.LBE3141:
	.loc 2 187 0
	lwz 0,12(1)
	addi 1,1,8
.LCFI55:
	.cfi_def_cfa_offset 0
	mtlr 0
	blr
	.cfi_endproc
.LFE1402:
	.size	_ZN10GuiElement10ResetStateEv, .-_ZN10GuiElement10ResetStateEv
	.section	.text._ZN16SimpleGuiTriggerD0Ev,"axG",@progbits,_ZN16SimpleGuiTriggerD5Ev,comdat
	.align 2
	.weak	_ZN16SimpleGuiTriggerD0Ev
	.type	_ZN16SimpleGuiTriggerD0Ev, @function
_ZN16SimpleGuiTriggerD0Ev:
.LFB1473:
	.loc 6 91 0
	.cfi_startproc
.LVL230:
	mflr 0
	stwu 1,-16(1)
.LCFI56:
	.cfi_def_cfa_offset 16
	.cfi_register 65, 0
.LBB3146:
.LBB3147:
.LBB3148:
	lis 9,_ZTV16SimpleGuiTrigger+8@ha
.LBE3148:
.LBE3147:
.LBE3146:
	stw 31,12(1)
	mr 31,3
	.cfi_offset 31, -4
.LVL231:
	stw 0,20(1)
.LBB3151:
.LBB3150:
.LBB3149:
	.loc 6 91 0
	la 0,_ZTV16SimpleGuiTrigger+8@l(9)
	.cfi_offset 65, 4
	stw 0,0(3)
	bl _ZN10GuiTriggerD2Ev
.LVL232:
.LBE3149:
.LBE3150:
.LBE3151:
	mr 3,31
	bl _ZdlPv
	lwz 0,20(1)
	lwz 31,12(1)
.LVL233:
	mtlr 0
	addi 1,1,16
.LCFI57:
	.cfi_def_cfa_offset 0
	.cfi_restore 31
	blr
	.cfi_endproc
.LFE1473:
	.size	_ZN16SimpleGuiTriggerD0Ev, .-_ZN16SimpleGuiTriggerD0Ev
	.section	".text"
	.align 2
	.globl _ZN4Task7SetIconEP12GuiImageData
	.type	_ZN4Task7SetIconEP12GuiImageData, @function
_ZN4Task7SetIconEP12GuiImageData:
.LFB1477:
	.loc 3 61 0
	.cfi_startproc
	.cfi_personality 0,__gxx_personality_v0
	.cfi_lsda 0,.LLSDA1477
.LVL234:
	mflr 0
	stwu 1,-24(1)
.LCFI58:
	.cfi_def_cfa_offset 24
	.cfi_register 65, 0
	stw 31,20(1)
	mr 31,3
	.cfi_offset 31, -4
	stw 0,28(1)
	stw 29,12(1)
	mr 29,4
	.cfi_offset 29, -12
	.cfi_offset 65, 4
	.loc 3 62 0
	lwz 3,400(3)
.LVL235:
	.loc 3 61 0
	stw 30,16(1)
	.loc 3 62 0
	cmpwi 7,3,0
	beq- 7,.L172
	.cfi_offset 30, -8
	.loc 3 63 0 discriminator 1
	lwz 9,0(3)
	lwz 0,4(9)
	mtctr 0
.LEHB24:
	bctrl
.LVL236:
.L172:
	.loc 3 65 0
	li 3,196
	bl _Znwj
.LEHE24:
	mr 4,29
	mr 30,3
.LEHB25:
	bl _ZN8GuiImageC1EP12GuiImageData
.LEHE25:
	.loc 3 65 0 is_stmt 0 discriminator 1
	stw 30,400(31)
	.loc 3 66 0 is_stmt 1 discriminator 1
	mr 3,31
	mr 4,30
.LEHB26:
	bl _ZN9GuiButton7SetIconEP8GuiImage
	.loc 3 67 0 discriminator 1
	lwz 0,28(1)
	lwz 29,12(1)
.LVL237:
	mtlr 0
	lwz 30,16(1)
	lwz 31,20(1)
.LVL238:
	addi 1,1,24
	.cfi_remember_state
.LCFI59:
	.cfi_def_cfa_offset 0
	.cfi_restore 31
	.cfi_restore 30
	.cfi_restore 29
	blr
.LVL239:
.L174:
.LCFI60:
	.cfi_restore_state
	mr 31,3
.LVL240:
	.loc 3 65 0
	mr 3,30
	bl _ZdlPv
	mr 3,31
	bl _Unwind_Resume
.LEHE26:
	.cfi_endproc
.LFE1477:
	.section	.gcc_except_table
.LLSDA1477:
	.byte	0xff
	.byte	0xff
	.byte	0x1
	.uleb128 .LLSDACSE1477-.LLSDACSB1477
.LLSDACSB1477:
	.uleb128 .LEHB24-.LFB1477
	.uleb128 .LEHE24-.LEHB24
	.uleb128 0
	.uleb128 0
	.uleb128 .LEHB25-.LFB1477
	.uleb128 .LEHE25-.LEHB25
	.uleb128 .L174-.LFB1477
	.uleb128 0
	.uleb128 .LEHB26-.LFB1477
	.uleb128 .LEHE26-.LEHB26
	.uleb128 0
	.uleb128 0
.LLSDACSE1477:
	.section	".text"
	.size	_ZN4Task7SetIconEP12GuiImageData, .-_ZN4Task7SetIconEP12GuiImageData
	.section	.text._ZNSt8_Rb_treeIPN7sigslot12_signal_baseINS0_15single_threadedEEES4_St9_IdentityIS4_ESt4lessIS4_ESaIS4_EE8_M_eraseEPSt13_Rb_tree_nodeIS4_E,"axG",@progbits,_ZNSt8_Rb_treeIPN7sigslot12_signal_baseINS0_15single_threadedEEES4_St9_IdentityIS4_ESt4lessIS4_ESaIS4_EE8_M_eraseEPSt13_Rb_tree_nodeIS4_E,comdat
	.align 2
	.weak	_ZNSt8_Rb_treeIPN7sigslot12_signal_baseINS0_15single_threadedEEES4_St9_IdentityIS4_ESt4lessIS4_ESaIS4_EE8_M_eraseEPSt13_Rb_tree_nodeIS4_E
	.type	_ZNSt8_Rb_treeIPN7sigslot12_signal_baseINS0_15single_threadedEEES4_St9_IdentityIS4_ESt4lessIS4_ESaIS4_EE8_M_eraseEPSt13_Rb_tree_nodeIS4_E, @function
_ZNSt8_Rb_treeIPN7sigslot12_signal_baseINS0_15single_threadedEEES4_St9_IdentityIS4_ESt4lessIS4_ESaIS4_EE8_M_eraseEPSt13_Rb_tree_nodeIS4_E:
.LFB1675:
	.file 7 "d:\\devkitpro\\devkitppc\\bin\\../lib/gcc/powerpc-eabi/4.6.3/../../../../powerpc-eabi/include/c++/4.6.3/bits/stl_tree.h"
	.loc 7 1068 0
	.cfi_startproc
.LVL241:
	stwu 1,-56(1)
.LCFI61:
	.cfi_def_cfa_offset 56
	mflr 0
	stw 22,16(1)
.LBB3268:
	.loc 7 1072 0
	mr. 22,4
	.cfi_offset 22, -40
	.cfi_register 65, 0
.LBE3268:
	.loc 7 1068 0
	stw 30,48(1)
	mr 30,3
	.cfi_offset 30, -8
	stw 0,60(1)
	stw 21,12(1)
	stw 23,20(1)
	stw 24,24(1)
	stw 25,28(1)
	stw 26,32(1)
	stw 27,36(1)
	stw 28,40(1)
	stw 29,44(1)
	stw 31,52(1)
.LBB3353:
	.loc 7 1072 0
	beq- 0,.L175
	.cfi_offset 31, -4
	.cfi_offset 29, -12
	.cfi_offset 28, -16
	.cfi_offset 27, -20
	.cfi_offset 26, -24
	.cfi_offset 25, -28
	.cfi_offset 24, -32
	.cfi_offset 23, -36
	.cfi_offset 21, -44
	.cfi_offset 65, 4
.LVL242:
.L221:
	.loc 3 73 0
	lwz 27,12(22)
.LVL243:
.LBB3269:
.LBB3270:
.LBB3271:
	.loc 7 1072 0
	cmpwi 7,27,0
	beq- 7,.L177
.LVL244:
.L222:
.LBE3271:
	.loc 3 73 0
	lwz 26,12(27)
.LVL245:
.LBB3347:
.LBB3272:
.LBB3273:
.LBB3274:
	.loc 7 1072 0
	cmpwi 7,26,0
	beq- 7,.L178
.LVL246:
.L223:
.LBE3274:
	.loc 3 73 0
	lwz 25,12(26)
.LVL247:
.LBB3340:
.LBB3275:
.LBB3276:
.LBB3277:
	.loc 7 1072 0
	cmpwi 7,25,0
	beq- 7,.L179
.LVL248:
.L224:
.LBE3277:
	.loc 3 73 0
	lwz 24,12(25)
.LVL249:
.LBB3333:
.LBB3278:
.LBB3279:
.LBB3280:
	.loc 7 1072 0
	cmpwi 7,24,0
	beq- 7,.L180
.LVL250:
.L225:
.LBE3280:
	.loc 3 73 0
	lwz 23,12(24)
.LVL251:
.LBB3326:
.LBB3281:
.LBB3282:
.LBB3283:
	.loc 7 1072 0
	cmpwi 7,23,0
	beq- 7,.L181
.LVL252:
.L226:
.LBE3283:
	.loc 3 73 0
	lwz 28,12(23)
.LVL253:
.LBB3319:
.LBB3284:
.LBB3285:
.LBB3286:
	.loc 7 1072 0
	cmpwi 7,28,0
	beq- 7,.L182
.LVL254:
.L227:
.LBE3286:
	.loc 3 73 0
	lwz 29,12(28)
.LVL255:
.LBB3312:
.LBB3287:
.LBB3288:
.LBB3289:
	.loc 7 1072 0
	cmpwi 7,29,0
	beq- 7,.L183
.LVL256:
.L228:
.LBE3289:
	.loc 3 73 0
	lwz 31,12(29)
.LVL257:
.LBB3305:
.LBB3290:
.LBB3291:
.LBB3292:
	.loc 7 1072 0
	cmpwi 7,31,0
	beq- 7,.L184
.LVL258:
.L229:
.LBB3293:
	.loc 7 1074 0
	lwz 4,12(31)
	mr 3,30
	bl _ZNSt8_Rb_treeIPN7sigslot12_signal_baseINS0_15single_threadedEEES4_St9_IdentityIS4_ESt4lessIS4_ESaIS4_EE8_M_eraseEPSt13_Rb_tree_nodeIS4_E
.LBE3293:
.LBE3292:
	.loc 3 73 0
	lwz 21,8(31)
.LVL259:
.LBB3299:
.LBB3298:
.LBB3294:
.LBB3295:
.LBB3296:
.LBB3297:
	.loc 5 98 0
	mr 3,31
	bl _ZdlPv
.LVL260:
.LBE3297:
.LBE3296:
.LBE3295:
.LBE3294:
.LBE3298:
	.loc 7 1072 0
	cmpwi 7,21,0
	.loc 7 1077 0
	mr 31,21
.LVL261:
	.loc 7 1072 0
	bne+ 7,.L229
.LVL262:
.L184:
.LBE3299:
.LBE3291:
.LBE3290:
.LBE3305:
	.loc 3 73 0
	lwz 31,8(29)
.LVL263:
.LBB3306:
.LBB3304:
.LBB3300:
.LBB3301:
.LBB3302:
.LBB3303:
	.loc 5 98 0
	mr 3,29
	bl _ZdlPv
.LVL264:
.LBE3303:
.LBE3302:
.LBE3301:
.LBE3300:
.LBE3304:
	.loc 7 1072 0
	cmpwi 7,31,0
	beq- 7,.L183
	.loc 7 1077 0
	mr 29,31
.LVL265:
	b .L228
.LVL266:
.L183:
.LBE3306:
.LBE3288:
.LBE3287:
.LBE3312:
	.loc 3 73 0
	lwz 31,8(28)
.LVL267:
.LBB3313:
.LBB3311:
.LBB3307:
.LBB3308:
.LBB3309:
.LBB3310:
	.loc 5 98 0
	mr 3,28
	bl _ZdlPv
.LVL268:
.LBE3310:
.LBE3309:
.LBE3308:
.LBE3307:
.LBE3311:
	.loc 7 1072 0
	cmpwi 7,31,0
	beq- 7,.L182
	.loc 7 1077 0
	mr 28,31
.LVL269:
	b .L227
.LVL270:
.L182:
.LBE3313:
.LBE3285:
.LBE3284:
.LBE3319:
	.loc 3 73 0
	lwz 31,8(23)
.LVL271:
.LBB3320:
.LBB3318:
.LBB3314:
.LBB3315:
.LBB3316:
.LBB3317:
	.loc 5 98 0
	mr 3,23
	bl _ZdlPv
.LVL272:
.LBE3317:
.LBE3316:
.LBE3315:
.LBE3314:
.LBE3318:
	.loc 7 1072 0
	cmpwi 7,31,0
	beq- 7,.L181
	.loc 7 1077 0
	mr 23,31
.LVL273:
	b .L226
.LVL274:
.L181:
.LBE3320:
.LBE3282:
.LBE3281:
.LBE3326:
	.loc 3 73 0
	lwz 31,8(24)
.LVL275:
.LBB3327:
.LBB3325:
.LBB3321:
.LBB3322:
.LBB3323:
.LBB3324:
	.loc 5 98 0
	mr 3,24
	bl _ZdlPv
.LVL276:
.LBE3324:
.LBE3323:
.LBE3322:
.LBE3321:
.LBE3325:
	.loc 7 1072 0
	cmpwi 7,31,0
	beq- 7,.L180
	.loc 7 1077 0
	mr 24,31
.LVL277:
	b .L225
.LVL278:
.L180:
.LBE3327:
.LBE3279:
.LBE3278:
.LBE3333:
	.loc 3 73 0
	lwz 31,8(25)
.LVL279:
.LBB3334:
.LBB3332:
.LBB3328:
.LBB3329:
.LBB3330:
.LBB3331:
	.loc 5 98 0
	mr 3,25
	bl _ZdlPv
.LVL280:
.LBE3331:
.LBE3330:
.LBE3329:
.LBE3328:
.LBE3332:
	.loc 7 1072 0
	cmpwi 7,31,0
	beq- 7,.L179
	.loc 7 1077 0
	mr 25,31
.LVL281:
	b .L224
.LVL282:
.L179:
.LBE3334:
.LBE3276:
.LBE3275:
.LBE3340:
	.loc 3 73 0
	lwz 31,8(26)
.LVL283:
.LBB3341:
.LBB3339:
.LBB3335:
.LBB3336:
.LBB3337:
.LBB3338:
	.loc 5 98 0
	mr 3,26
	bl _ZdlPv
.LVL284:
.LBE3338:
.LBE3337:
.LBE3336:
.LBE3335:
.LBE3339:
	.loc 7 1072 0
	cmpwi 7,31,0
	beq- 7,.L178
	.loc 7 1077 0
	mr 26,31
.LVL285:
	b .L223
.LVL286:
.L178:
.LBE3341:
.LBE3273:
.LBE3272:
.LBE3347:
	.loc 3 73 0
	lwz 31,8(27)
.LVL287:
.LBB3348:
.LBB3346:
.LBB3342:
.LBB3343:
.LBB3344:
.LBB3345:
	.loc 5 98 0
	mr 3,27
	bl _ZdlPv
.LVL288:
.LBE3345:
.LBE3344:
.LBE3343:
.LBE3342:
.LBE3346:
	.loc 7 1072 0
	cmpwi 7,31,0
	beq- 7,.L177
	.loc 7 1077 0
	mr 27,31
.LVL289:
	b .L222
.LVL290:
.L177:
	.loc 3 73 0
	lwz 31,8(22)
.LVL291:
.LBE3348:
.LBE3270:
.LBB3349:
.LBB3350:
.LBB3351:
.LBB3352:
	.loc 5 98 0
	mr 3,22
	bl _ZdlPv
.LVL292:
.LBE3352:
.LBE3351:
.LBE3350:
.LBE3349:
.LBE3269:
	.loc 7 1072 0
	cmpwi 7,31,0
	beq- 7,.L175
	.loc 7 1077 0
	mr 22,31
.LVL293:
	b .L221
.LVL294:
.L175:
.LBE3353:
	.loc 7 1079 0
	lwz 0,60(1)
	lwz 21,12(1)
	mtlr 0
	lwz 22,16(1)
	lwz 23,20(1)
	lwz 24,24(1)
	lwz 25,28(1)
	lwz 26,32(1)
	lwz 27,36(1)
	lwz 28,40(1)
	lwz 29,44(1)
	lwz 30,48(1)
.LVL295:
	lwz 31,52(1)
	addi 1,1,56
.LCFI62:
	.cfi_def_cfa_offset 0
	.cfi_restore 31
	.cfi_restore 30
	.cfi_restore 29
	.cfi_restore 28
	.cfi_restore 27
	.cfi_restore 26
	.cfi_restore 25
	.cfi_restore 24
	.cfi_restore 23
	.cfi_restore 22
	.cfi_restore 21
	blr
	.cfi_endproc
.LFE1675:
	.size	_ZNSt8_Rb_treeIPN7sigslot12_signal_baseINS0_15single_threadedEEES4_St9_IdentityIS4_ESt4lessIS4_ESaIS4_EE8_M_eraseEPSt13_Rb_tree_nodeIS4_E, .-_ZNSt8_Rb_treeIPN7sigslot12_signal_baseINS0_15single_threadedEEES4_St9_IdentityIS4_ESt4lessIS4_ESaIS4_EE8_M_eraseEPSt13_Rb_tree_nodeIS4_E
	.section	.text._ZN7sigslot9has_slotsINS_15single_threadedEED2Ev,"axG",@progbits,_ZN7sigslot9has_slotsINS_15single_threadedEED5Ev,comdat
	.align 2
	.weak	_ZN7sigslot9has_slotsINS_15single_threadedEED2Ev
	.type	_ZN7sigslot9has_slotsINS_15single_threadedEED2Ev, @function
_ZN7sigslot9has_slotsINS_15single_threadedEED2Ev:
.LFB1512:
	.loc 1 513 0
	.cfi_startproc
	.cfi_personality 0,__gxx_personality_v0
	.cfi_lsda 0,.LLSDA1512
.LVL296:
	mflr 0
	stwu 1,-32(1)
.LCFI63:
	.cfi_def_cfa_offset 32
	.cfi_register 65, 0
.LBB3500:
	.loc 1 516 0
	lis 9,_ZTVN7sigslot9has_slotsINS_15single_threadedEEE+8@ha
.LBE3500:
	.loc 1 513 0
	stw 28,16(1)
	addi 28,3,4
	.cfi_offset 28, -16
	stw 0,36(1)
.LBB3576:
	.loc 1 516 0
	la 0,_ZTVN7sigslot9has_slotsINS_15single_threadedEEE+8@l(9)
	.cfi_offset 65, 4
.LBE3576:
	.loc 1 513 0
	stw 29,20(1)
	mr 29,3
	.cfi_offset 29, -12
	stw 26,8(1)
	stw 27,12(1)
	stw 30,24(1)
	stw 31,28(1)
.LBB3577:
	.loc 1 516 0
	stw 0,0(3)
.LVL297:
.LEHB27:
.LBB3501:
.LBB3502:
.LBB3503:
.LBB3504:
	.loc 1 338 0
	.cfi_offset 31, -4
	.cfi_offset 30, -8
	.cfi_offset 27, -20
	.cfi_offset 26, -24
	bl _ZN7sigslot15single_threaded4lockEv
.LEHE27:
.LVL298:
.LBE3504:
.LBE3503:
.LBB3505:
	.loc 3 73 0
	lwz 31,16(29)
.LVL299:
.LBE3505:
.LBB3506:
.LBB3507:
.LBB3508:
	.loc 7 671 0
	addi 30,28,4
.LVL300:
.LBE3508:
.LBE3507:
.LBE3506:
	.loc 1 524 0
	cmpw 7,31,30
	beq- 7,.L231
.LVL301:
.L258:
	.loc 1 526 0
	lwz 3,16(31)
	mr 4,29
	lwz 9,0(3)
	lwz 0,16(9)
	mtctr 0
.LEHB28:
	bctrl
.LEHE28:
.LVL302:
.LBB3509:
.LBB3510:
	.loc 7 269 0
	mr 3,31
	bl _ZSt18_Rb_tree_incrementPKSt18_Rb_tree_node_base
.LBE3510:
.LBE3509:
	.loc 1 524 0
	cmpw 7,30,3
.LBB3512:
.LBB3511:
	.loc 7 269 0
	mr 31,3
.LVL303:
.LBE3511:
.LBE3512:
	.loc 1 524 0
	bne+ 7,.L258
	lwz 31,16(29)
.LVL304:
.L231:
.LBB3513:
.LBB3514:
.LBB3515:
.LBB3516:
.LBB3517:
.LBB3518:
.LBB3519:
	.loc 7 665 0
	addi 26,28,4
.LBE3519:
.LBE3518:
	.loc 7 1500 0
	cmpw 7,30,26
	beq- 7,.L233
.LVL305:
	.loc 7 1503 0
	cmpw 7,30,31
	bne+ 7,.L260
	b .L234
.LVL306:
.L255:
	.loc 7 277 0
	mr 31,27
.LVL307:
.L260:
.LBB3520:
.LBB3521:
	mr 3,31
	bl _ZSt18_Rb_tree_incrementPKSt18_Rb_tree_node_base
.LBE3521:
.LBE3520:
.LBB3523:
.LBB3524:
.LBB3525:
	.loc 7 1489 0
	mr 4,26
.LBE3525:
.LBE3524:
.LBE3523:
.LBB3534:
.LBB3522:
	.loc 7 277 0
	mr 27,3
.LVL308:
.LBE3522:
.LBE3534:
.LBB3535:
.LBB3532:
.LBB3530:
	.loc 7 1489 0
	mr 3,31
.LVL309:
	bl _ZSt28_Rb_tree_rebalance_for_erasePSt18_Rb_tree_node_baseRS_
.LBB3526:
.LBB3527:
.LBB3528:
.LBB3529:
	.loc 5 98 0
	bl _ZdlPv
.LBE3529:
.LBE3528:
.LBE3527:
.LBE3526:
.LBE3530:
.LBE3532:
.LBE3535:
	.loc 7 1503 0
	cmpw 7,30,27
.LBB3536:
.LBB3533:
.LBB3531:
	.loc 7 1491 0
	lwz 9,20(28)
	addi 0,9,-1
	stw 0,20(28)
.LBE3531:
.LBE3533:
.LBE3536:
	.loc 7 1503 0
	bne+ 7,.L255
.LVL310:
.L234:
.LBE3517:
.LBE3516:
.LBE3515:
.LBE3514:
.LBE3513:
.LBB3545:
.LBB3546:
.LBB3547:
	.loc 1 343 0
	lwz 9,0(29)
	mr 3,29
	lwz 0,12(9)
	mtctr 0
.LEHB29:
	bctrl
.LEHE29:
.LVL311:
.LBE3547:
.LBE3546:
.LBE3545:
.LBE3502:
.LBE3501:
.LBB3554:
.LBB3555:
.LBB3556:
.LBB3557:
.LBB3558:
	.loc 7 639 0
	lwz 4,12(29)
	mr 3,28
	bl _ZNSt8_Rb_treeIPN7sigslot12_signal_baseINS0_15single_threadedEEES4_St9_IdentityIS4_ESt4lessIS4_ESaIS4_EE8_M_eraseEPSt13_Rb_tree_nodeIS4_E
.LVL312:
.LBE3558:
.LBE3557:
.LBE3556:
.LBE3555:
.LBE3554:
.LBB3559:
.LBB3560:
.LBB3561:
	.loc 1 105 0
	lis 9,_ZTVN7sigslot15single_threadedE+8@ha
	la 0,_ZTVN7sigslot15single_threadedE+8@l(9)
.LBE3561:
.LBE3560:
.LBE3559:
.LBE3577:
	.loc 1 516 0
	lwz 26,8(1)
.LBB3578:
.LBB3564:
.LBB3563:
.LBB3562:
	.loc 1 105 0
	stw 0,0(29)
.LBE3562:
.LBE3563:
.LBE3564:
.LBE3578:
	.loc 1 516 0
	lwz 0,36(1)
	lwz 27,12(1)
	mtlr 0
	lwz 28,16(1)
.LVL313:
	lwz 29,20(1)
.LVL314:
	lwz 30,24(1)
.LVL315:
	lwz 31,28(1)
	addi 1,1,32
	.cfi_remember_state
.LCFI64:
	.cfi_def_cfa_offset 0
	.cfi_restore 31
	.cfi_restore 30
	.cfi_restore 29
	.cfi_restore 28
	.cfi_restore 27
	.cfi_restore 26
	blr
.LVL316:
.L233:
.LCFI65:
	.cfi_restore_state
.LBB3579:
.LBB3565:
.LBB3552:
.LBB3548:
.LBB3544:
.LBB3543:
.LBB3542:
.LBB3541:
.LBB3537:
.LBB3538:
.LBB3539:
.LBB3540:
	.loc 7 809 0
	lwz 4,12(29)
	mr 3,28
	bl _ZNSt8_Rb_treeIPN7sigslot12_signal_baseINS0_15single_threadedEEES4_St9_IdentityIS4_ESt4lessIS4_ESaIS4_EE8_M_eraseEPSt13_Rb_tree_nodeIS4_E
.LVL317:
	.loc 7 811 0
	li 0,0
	.loc 7 810 0
	stw 30,16(29)
.LVL318:
	.loc 7 811 0
	stw 0,12(29)
.LVL319:
	.loc 7 812 0
	stw 30,20(29)
	.loc 7 813 0
	stw 0,24(29)
	b .L234
.LVL320:
.L256:
	mr 31,3
.L241:
.LVL321:
.LBE3540:
.LBE3539:
.LBE3538:
.LBE3537:
.LBE3541:
.LBE3542:
.LBE3543:
.LBE3544:
.LBE3548:
.LBE3552:
.LBE3565:
.LBB3566:
.LBB3567:
.LBB3568:
.LBB3569:
.LBB3570:
.LBB3571:
	.loc 7 639 0
	lwz 4,12(29)
	mr 3,28
	bl _ZNSt8_Rb_treeIPN7sigslot12_signal_baseINS0_15single_threadedEEES4_St9_IdentityIS4_ESt4lessIS4_ESaIS4_EE8_M_eraseEPSt13_Rb_tree_nodeIS4_E
.LVL322:
.LBE3571:
.LBE3570:
.LBE3569:
.LBE3568:
.LBE3567:
.LBE3566:
.LBB3572:
.LBB3573:
.LBB3574:
	.loc 1 105 0
	lis 9,_ZTVN7sigslot15single_threadedE+8@ha
	la 0,_ZTVN7sigslot15single_threadedE+8@l(9)
	mr 3,31
	stw 0,0(29)
.LEHB30:
	bl _Unwind_Resume
.LEHE30:
.LVL323:
.L257:
.LBE3574:
.LBE3573:
.LBE3572:
.LBB3575:
.LBB3553:
.LBB3549:
.LBB3550:
.LBB3551:
	.loc 1 343 0
	lwz 9,0(29)
	mr 31,3
.LVL324:
	mr 3,29
	lwz 0,12(9)
	mtctr 0
	bctrl
	b .L241
.LBE3551:
.LBE3550:
.LBE3549:
.LBE3553:
.LBE3575:
.LBE3579:
	.cfi_endproc
.LFE1512:
	.section	.gcc_except_table
.LLSDA1512:
	.byte	0xff
	.byte	0xff
	.byte	0x1
	.uleb128 .LLSDACSE1512-.LLSDACSB1512
.LLSDACSB1512:
	.uleb128 .LEHB27-.LFB1512
	.uleb128 .LEHE27-.LEHB27
	.uleb128 .L256-.LFB1512
	.uleb128 0
	.uleb128 .LEHB28-.LFB1512
	.uleb128 .LEHE28-.LEHB28
	.uleb128 .L257-.LFB1512
	.uleb128 0
	.uleb128 .LEHB29-.LFB1512
	.uleb128 .LEHE29-.LEHB29
	.uleb128 .L256-.LFB1512
	.uleb128 0
	.uleb128 .LEHB30-.LFB1512
	.uleb128 .LEHE30-.LEHB30
	.uleb128 0
	.uleb128 0
.LLSDACSE1512:
	.section	.text._ZN7sigslot9has_slotsINS_15single_threadedEED2Ev,"axG",@progbits,_ZN7sigslot9has_slotsINS_15single_threadedEED5Ev,comdat
	.size	_ZN7sigslot9has_slotsINS_15single_threadedEED2Ev, .-_ZN7sigslot9has_slotsINS_15single_threadedEED2Ev
	.section	.text._ZN7sigslot9has_slotsINS_15single_threadedEED0Ev,"axG",@progbits,_ZN7sigslot9has_slotsINS_15single_threadedEED5Ev,comdat
	.align 2
	.weak	_ZN7sigslot9has_slotsINS_15single_threadedEED0Ev
	.type	_ZN7sigslot9has_slotsINS_15single_threadedEED0Ev, @function
_ZN7sigslot9has_slotsINS_15single_threadedEED0Ev:
.LFB1514:
	.loc 1 513 0
	.cfi_startproc
	.cfi_personality 0,__gxx_personality_v0
	.cfi_lsda 0,.LLSDA1514
.LVL325:
	mflr 0
	stwu 1,-32(1)
.LCFI66:
	.cfi_def_cfa_offset 32
	.cfi_register 65, 0
.LBB3673:
.LBB3674:
.LBB3675:
	.loc 1 516 0
	lis 9,_ZTVN7sigslot9has_slotsINS_15single_threadedEEE+8@ha
.LBE3675:
.LBE3674:
.LBE3673:
	.loc 1 513 0
	stw 28,16(1)
	addi 28,3,4
	.cfi_offset 28, -16
	stw 0,36(1)
.LBB3759:
.LBB3755:
.LBB3751:
	.loc 1 516 0
	la 0,_ZTVN7sigslot9has_slotsINS_15single_threadedEEE+8@l(9)
	.cfi_offset 65, 4
.LBE3751:
.LBE3755:
.LBE3759:
	.loc 1 513 0
	stw 29,20(1)
	mr 29,3
	.cfi_offset 29, -12
.LVL326:
	stw 26,8(1)
	stw 27,12(1)
	stw 30,24(1)
	stw 31,28(1)
.LBB3760:
.LBB3756:
.LBB3752:
	.loc 1 516 0
	stw 0,0(3)
.LVL327:
.LEHB31:
.LBB3676:
.LBB3677:
.LBB3678:
.LBB3679:
	.loc 1 338 0
	.cfi_offset 31, -4
	.cfi_offset 30, -8
	.cfi_offset 27, -20
	.cfi_offset 26, -24
	bl _ZN7sigslot15single_threaded4lockEv
.LEHE31:
.LVL328:
.LBE3679:
.LBE3678:
.LBB3680:
	.loc 3 73 0
	lwz 31,16(29)
.LVL329:
.LBE3680:
.LBB3681:
.LBB3682:
.LBB3683:
	.loc 7 671 0
	addi 30,28,4
.LVL330:
.LBE3683:
.LBE3682:
.LBE3681:
	.loc 1 524 0
	cmpw 7,31,30
	beq- 7,.L263
.LVL331:
.L291:
	.loc 1 526 0
	lwz 3,16(31)
	mr 4,29
	lwz 9,0(3)
	lwz 0,16(9)
	mtctr 0
.LEHB32:
	bctrl
.LEHE32:
.LVL332:
.LBB3684:
.LBB3685:
	.loc 7 269 0
	mr 3,31
	bl _ZSt18_Rb_tree_incrementPKSt18_Rb_tree_node_base
.LBE3685:
.LBE3684:
	.loc 1 524 0
	cmpw 7,30,3
.LBB3687:
.LBB3686:
	.loc 7 269 0
	mr 31,3
.LVL333:
.LBE3686:
.LBE3687:
	.loc 1 524 0
	bne+ 7,.L291
	lwz 31,16(29)
.LVL334:
.L263:
.LBB3688:
.LBB3689:
.LBB3690:
.LBB3691:
.LBB3692:
.LBB3693:
.LBB3694:
	.loc 7 665 0
	addi 26,28,4
.LBE3694:
.LBE3693:
	.loc 7 1500 0
	cmpw 7,30,26
	beq- 7,.L265
.LVL335:
	.loc 7 1503 0
	cmpw 7,30,31
	bne+ 7,.L293
	b .L266
.LVL336:
.L288:
	.loc 7 277 0
	mr 31,27
.LVL337:
.L293:
.LBB3695:
.LBB3696:
	mr 3,31
	bl _ZSt18_Rb_tree_incrementPKSt18_Rb_tree_node_base
.LBE3696:
.LBE3695:
.LBB3698:
.LBB3699:
.LBB3700:
	.loc 7 1489 0
	mr 4,26
.LBE3700:
.LBE3699:
.LBE3698:
.LBB3709:
.LBB3697:
	.loc 7 277 0
	mr 27,3
.LVL338:
.LBE3697:
.LBE3709:
.LBB3710:
.LBB3707:
.LBB3705:
	.loc 7 1489 0
	mr 3,31
.LVL339:
	bl _ZSt28_Rb_tree_rebalance_for_erasePSt18_Rb_tree_node_baseRS_
.LBB3701:
.LBB3702:
.LBB3703:
.LBB3704:
	.loc 5 98 0
	bl _ZdlPv
.LBE3704:
.LBE3703:
.LBE3702:
.LBE3701:
.LBE3705:
.LBE3707:
.LBE3710:
	.loc 7 1503 0
	cmpw 7,30,27
.LBB3711:
.LBB3708:
.LBB3706:
	.loc 7 1491 0
	lwz 9,20(28)
	addi 0,9,-1
	stw 0,20(28)
.LBE3706:
.LBE3708:
.LBE3711:
	.loc 7 1503 0
	bne+ 7,.L288
.LVL340:
.L266:
.LBE3692:
.LBE3691:
.LBE3690:
.LBE3689:
.LBE3688:
.LBB3720:
.LBB3721:
.LBB3722:
	.loc 1 343 0
	lwz 9,0(29)
	mr 3,29
	lwz 0,12(9)
	mtctr 0
.LEHB33:
	bctrl
.LEHE33:
.LVL341:
.LBE3722:
.LBE3721:
.LBE3720:
.LBE3677:
.LBE3676:
.LBB3729:
.LBB3730:
.LBB3731:
.LBB3732:
.LBB3733:
	.loc 7 639 0
	lwz 4,12(29)
	mr 3,28
	bl _ZNSt8_Rb_treeIPN7sigslot12_signal_baseINS0_15single_threadedEEES4_St9_IdentityIS4_ESt4lessIS4_ESaIS4_EE8_M_eraseEPSt13_Rb_tree_nodeIS4_E
.LVL342:
.LBE3733:
.LBE3732:
.LBE3731:
.LBE3730:
.LBE3729:
.LBB3734:
.LBB3735:
.LBB3736:
	.loc 1 105 0
	lis 9,_ZTVN7sigslot15single_threadedE+8@ha
	la 0,_ZTVN7sigslot15single_threadedE+8@l(9)
.LBE3736:
.LBE3735:
.LBE3734:
.LBE3752:
.LBE3756:
.LBE3760:
	.loc 1 516 0
	mr 3,29
.LBB3761:
.LBB3757:
.LBB3753:
.LBB3739:
.LBB3738:
.LBB3737:
	.loc 1 105 0
	stw 0,0(29)
.LBE3737:
.LBE3738:
.LBE3739:
.LBE3753:
.LBE3757:
.LBE3761:
	.loc 1 516 0
	bl _ZdlPv
	lwz 0,36(1)
	lwz 26,8(1)
	mtlr 0
	lwz 27,12(1)
	lwz 28,16(1)
.LVL343:
	lwz 29,20(1)
.LVL344:
	lwz 30,24(1)
.LVL345:
	lwz 31,28(1)
	addi 1,1,32
	.cfi_remember_state
.LCFI67:
	.cfi_def_cfa_offset 0
	.cfi_restore 31
	.cfi_restore 30
	.cfi_restore 29
	.cfi_restore 28
	.cfi_restore 27
	.cfi_restore 26
	blr
.LVL346:
.L265:
.LCFI68:
	.cfi_restore_state
.LBB3762:
.LBB3758:
.LBB3754:
.LBB3740:
.LBB3727:
.LBB3723:
.LBB3719:
.LBB3718:
.LBB3717:
.LBB3716:
.LBB3712:
.LBB3713:
.LBB3714:
.LBB3715:
	.loc 7 809 0
	lwz 4,12(29)
	mr 3,28
	bl _ZNSt8_Rb_treeIPN7sigslot12_signal_baseINS0_15single_threadedEEES4_St9_IdentityIS4_ESt4lessIS4_ESaIS4_EE8_M_eraseEPSt13_Rb_tree_nodeIS4_E
.LVL347:
	.loc 7 811 0
	li 0,0
	.loc 7 810 0
	stw 30,16(29)
.LVL348:
	.loc 7 811 0
	stw 0,12(29)
.LVL349:
	.loc 7 812 0
	stw 30,20(29)
	.loc 7 813 0
	stw 0,24(29)
	b .L266
.LVL350:
.L289:
	mr 31,3
.L273:
.LVL351:
.LBE3715:
.LBE3714:
.LBE3713:
.LBE3712:
.LBE3716:
.LBE3717:
.LBE3718:
.LBE3719:
.LBE3723:
.LBE3727:
.LBE3740:
.LBB3741:
.LBB3742:
.LBB3743:
.LBB3744:
.LBB3745:
.LBB3746:
	.loc 7 639 0
	lwz 4,12(29)
	mr 3,28
	bl _ZNSt8_Rb_treeIPN7sigslot12_signal_baseINS0_15single_threadedEEES4_St9_IdentityIS4_ESt4lessIS4_ESaIS4_EE8_M_eraseEPSt13_Rb_tree_nodeIS4_E
.LVL352:
.LBE3746:
.LBE3745:
.LBE3744:
.LBE3743:
.LBE3742:
.LBE3741:
.LBB3747:
.LBB3748:
.LBB3749:
	.loc 1 105 0
	lis 9,_ZTVN7sigslot15single_threadedE+8@ha
	la 0,_ZTVN7sigslot15single_threadedE+8@l(9)
	mr 3,31
	stw 0,0(29)
.LEHB34:
	bl _Unwind_Resume
.LEHE34:
.LVL353:
.L290:
.LBE3749:
.LBE3748:
.LBE3747:
.LBB3750:
.LBB3728:
.LBB3724:
.LBB3725:
.LBB3726:
	.loc 1 343 0
	lwz 9,0(29)
	mr 31,3
.LVL354:
	mr 3,29
	lwz 0,12(9)
	mtctr 0
	bctrl
	b .L273
.LBE3726:
.LBE3725:
.LBE3724:
.LBE3728:
.LBE3750:
.LBE3754:
.LBE3758:
.LBE3762:
	.cfi_endproc
.LFE1514:
	.section	.gcc_except_table
.LLSDA1514:
	.byte	0xff
	.byte	0xff
	.byte	0x1
	.uleb128 .LLSDACSE1514-.LLSDACSB1514
.LLSDACSB1514:
	.uleb128 .LEHB31-.LFB1514
	.uleb128 .LEHE31-.LEHB31
	.uleb128 .L289-.LFB1514
	.uleb128 0
	.uleb128 .LEHB32-.LFB1514
	.uleb128 .LEHE32-.LEHB32
	.uleb128 .L290-.LFB1514
	.uleb128 0
	.uleb128 .LEHB33-.LFB1514
	.uleb128 .LEHE33-.LEHB33
	.uleb128 .L289-.LFB1514
	.uleb128 0
	.uleb128 .LEHB34-.LFB1514
	.uleb128 .LEHE34-.LEHB34
	.uleb128 0
	.uleb128 0
.LLSDACSE1514:
	.section	.text._ZN7sigslot9has_slotsINS_15single_threadedEED0Ev,"axG",@progbits,_ZN7sigslot9has_slotsINS_15single_threadedEED5Ev,comdat
	.size	_ZN7sigslot9has_slotsINS_15single_threadedEED0Ev, .-_ZN7sigslot9has_slotsINS_15single_threadedEED0Ev
	.section	.text._ZNSt8_Rb_treeIPN7sigslot12_signal_baseINS0_15single_threadedEEES4_St9_IdentityIS4_ESt4lessIS4_ESaIS4_EE16_M_insert_uniqueERKS4_,"axG",@progbits,_ZNSt8_Rb_treeIPN7sigslot12_signal_baseINS0_15single_threadedEEES4_St9_IdentityIS4_ESt4lessIS4_ESaIS4_EE16_M_insert_uniqueERKS4_,comdat
	.align 2
	.weak	_ZNSt8_Rb_treeIPN7sigslot12_signal_baseINS0_15single_threadedEEES4_St9_IdentityIS4_ESt4lessIS4_ESaIS4_EE16_M_insert_uniqueERKS4_
	.type	_ZNSt8_Rb_treeIPN7sigslot12_signal_baseINS0_15single_threadedEEES4_St9_IdentityIS4_ESt4lessIS4_ESaIS4_EE16_M_insert_uniqueERKS4_, @function
_ZNSt8_Rb_treeIPN7sigslot12_signal_baseINS0_15single_threadedEEES4_St9_IdentityIS4_ESt4lessIS4_ESaIS4_EE16_M_insert_uniqueERKS4_:
.LFB1786:
	.loc 7 1264 0
	.cfi_startproc
.LVL355:
	mflr 0
	stwu 1,-32(1)
.LCFI69:
	.cfi_def_cfa_offset 32
	.cfi_register 65, 0
	stw 28,16(1)
	stw 0,36(1)
	stw 27,12(1)
	mr 27,4
	.cfi_offset 27, -20
	.cfi_offset 65, 4
	.cfi_offset 28, -16
.LBB3802:
.LBB3803:
.LBB3804:
	.loc 3 73 0
	lwz 28,8(3)
.LVL356:
.LBE3804:
.LBE3803:
.LBE3802:
	.loc 7 1264 0
	stw 29,20(1)
.LBB3829:
.LBB3821:
.LBB3817:
	.loc 7 1272 0
	addi 29,3,4
	.cfi_offset 29, -12
.LVL357:
.LBE3817:
.LBE3821:
	.loc 7 1274 0
	cmpwi 7,28,0
.LBE3829:
	.loc 7 1264 0
	stw 31,28(1)
	stw 26,8(1)
	mr 31,3
	.cfi_offset 26, -24
	.cfi_offset 31, -4
	stw 30,24(1)
.LBB3830:
	.loc 7 1274 0
	beq- 7,.L310
	.cfi_offset 30, -8
.LVL358:
	lwz 10,0(4)
	b .L299
.LVL359:
.L318:
	.loc 3 73 0 discriminator 1
	lwz 0,8(28)
.LVL360:
	.loc 7 1274 0 discriminator 1
	cmpwi 7,0,0
	beq- 7,.L317
.LVL361:
.L311:
	.loc 7 1274 0 is_stmt 0
	mr 28,0
.LVL362:
.L299:
	.loc 3 73 0 is_stmt 1
	lwz 9,16(28)
	li 11,1
	.loc 7 1278 0
	cmplw 7,9,10
	bgt- 7,.L318
.LVL363:
	.loc 3 73 0 discriminator 2
	lwz 0,12(28)
	li 11,0
.LVL364:
	.loc 7 1274 0 discriminator 2
	cmpwi 7,0,0
	bne+ 7,.L311
.LVL365:
.L317:
	.loc 7 1281 0
	cmpwi 7,11,0
	mr 3,28
.LVL366:
	bne- 7,.L296
.LVL367:
	.loc 7 1289 0
	cmplw 7,10,9
	bgt- 7,.L319
.LVL368:
.L306:
	.loc 7 1292 0
	li 0,0
	li 4,0
	rlwimi 4,0,24,0,7
.LBE3830:
	.loc 7 1293 0
	lwz 0,36(1)
	lwz 26,8(1)
	mtlr 0
	lwz 27,12(1)
.LVL369:
	lwz 28,16(1)
	lwz 29,20(1)
	lwz 30,24(1)
	lwz 31,28(1)
.LVL370:
	addi 1,1,32
	.cfi_remember_state
.LCFI70:
	.cfi_def_cfa_offset 0
	.cfi_restore 31
	.cfi_restore 30
	.cfi_restore 29
	.cfi_restore 28
	.cfi_restore 27
	.cfi_restore 26
	blr
.LVL371:
.L310:
.LCFI71:
	.cfi_restore_state
.LBB3831:
	.loc 7 1272 0
	mr 28,29
.LVL372:
.L296:
	.loc 7 1283 0
	lwz 0,12(31)
	cmpw 7,28,0
	beq- 7,.L320
.LVL373:
.LBB3822:
.LBB3823:
	.loc 7 203 0
	mr 3,28
	bl _ZSt18_Rb_tree_decrementPSt18_Rb_tree_node_base
.LVL374:
	lwz 10,0(27)
	lwz 9,16(3)
.LVL375:
.LBE3823:
.LBE3822:
	.loc 7 1289 0
	cmplw 7,10,9
	ble+ 7,.L306
.LVL376:
.L319:
.LBB3824:
.LBB3818:
	.loc 7 969 0
	cmpw 7,28,29
	li 26,1
	beq- 7,.L307
.LVL377:
	.loc 7 1264 0
	lwz 26,16(28)
	subfc 26,26,10
	subfe 26,26,26
	neg 26,26
	b .L307
.LVL378:
.L320:
.LBE3818:
.LBE3824:
.LBB3825:
.LBB3826:
	.loc 7 969 0
	cmpw 7,28,29
	li 26,1
	beq- 7,.L307
.LVL379:
	.loc 7 1264 0
	lwz 26,0(27)
	lwz 0,16(28)
.LVL380:
	subfc 26,0,26
	subfe 26,26,26
	neg 26,26
.LVL381:
.L307:
.LBE3826:
.LBE3825:
.LBB3827:
.LBB3819:
.LBB3805:
.LBB3806:
.LBB3807:
.LBB3808:
.LBB3809:
	.loc 5 92 0
	li 3,20
	bl _Znwj
.LBE3809:
.LBE3808:
.LBE3807:
.LBB3812:
.LBB3813:
	.loc 5 108 0
	cmpwi 7,3,-16
.LBE3813:
.LBE3812:
.LBB3815:
.LBB3811:
.LBB3810:
	.loc 5 92 0
	mr 30,3
.LVL382:
.LBE3810:
.LBE3811:
.LBE3815:
.LBB3816:
.LBB3814:
	.loc 5 108 0
	beq- 7,.L309
	lwz 0,0(27)
	stw 0,16(3)
.L309:
.LVL383:
.LBE3814:
.LBE3816:
.LBE3806:
.LBE3805:
	.loc 7 973 0
	mr 3,26
.LVL384:
	mr 4,30
	mr 5,28
	mr 6,29
	bl _ZSt29_Rb_tree_insert_and_rebalancebPSt18_Rb_tree_node_baseS0_RS_
	.loc 7 976 0
	lwz 9,20(31)
	.loc 7 1291 0
	li 4,0
	mr 3,30
	.loc 7 976 0
	addi 0,9,1
.LBE3819:
.LBE3827:
.LBE3831:
	.loc 7 1293 0
	lwz 26,8(1)
.LVL385:
.LBB3832:
.LBB3828:
.LBB3820:
	.loc 7 976 0
	stw 0,20(31)
.LVL386:
	.loc 7 1291 0
	li 0,1
	rlwimi 4,0,24,0,7
.LBE3820:
.LBE3828:
.LBE3832:
	.loc 7 1293 0
	lwz 0,36(1)
	lwz 27,12(1)
.LVL387:
	mtlr 0
	lwz 28,16(1)
	lwz 29,20(1)
	lwz 30,24(1)
.LVL388:
	lwz 31,28(1)
.LVL389:
	addi 1,1,32
	.cfi_restore 26
	.cfi_restore 27
	.cfi_restore 28
	.cfi_restore 29
	.cfi_restore 30
	.cfi_restore 31
.LCFI72:
	.cfi_def_cfa_offset 0
	blr
	.cfi_endproc
.LFE1786:
	.size	_ZNSt8_Rb_treeIPN7sigslot12_signal_baseINS0_15single_threadedEEES4_St9_IdentityIS4_ESt4lessIS4_ESaIS4_EE16_M_insert_uniqueERKS4_, .-_ZNSt8_Rb_treeIPN7sigslot12_signal_baseINS0_15single_threadedEEES4_St9_IdentityIS4_ESt4lessIS4_ESaIS4_EE16_M_insert_uniqueERKS4_
	.section	.text._ZN7sigslot7signal3IP9GuiButtoniRK6_POINTNS_15single_threadedEE7connectI4TaskEEvPT_MSA_FvS2_iS5_E,"axG",@progbits,_ZN7sigslot7signal3IP9GuiButtoniRK6_POINTNS_15single_threadedEE7connectI4TaskEEvPT_MSA_FvS2_iS5_E,comdat
	.align 2
	.weak	_ZN7sigslot7signal3IP9GuiButtoniRK6_POINTNS_15single_threadedEE7connectI4TaskEEvPT_MSA_FvS2_iS5_E
	.type	_ZN7sigslot7signal3IP9GuiButtoniRK6_POINTNS_15single_threadedEE7connectI4TaskEEvPT_MSA_FvS2_iS5_E, @function
_ZN7sigslot7signal3IP9GuiButtoniRK6_POINTNS_15single_threadedEE7connectI4TaskEEvPT_MSA_FvS2_iS5_E:
.LFB1529:
	.loc 1 2308 0
	.cfi_startproc
	.cfi_personality 0,__gxx_personality_v0
	.cfi_lsda 0,.LLSDA1529
.LVL390:
	mflr 0
	stwu 1,-48(1)
.LCFI73:
	.cfi_def_cfa_offset 48
	.cfi_register 65, 0
	stw 27,28(1)
	stw 0,52(1)
	stw 30,40(1)
	mr 30,4
	.cfi_offset 30, -8
	.cfi_offset 65, 4
	.cfi_offset 27, -20
.LBB3833:
.LBB3834:
.LBB3835:
	.loc 1 338 0
	lwz 9,0(3)
.LBE3835:
.LBE3834:
.LBE3833:
	.loc 1 2308 0
	stw 31,44(1)
	mr 31,3
	.cfi_offset 31, -4
.LVL391:
.LBB3888:
.LBB3839:
.LBB3836:
	.loc 1 338 0
	lwz 0,8(9)
.LBE3836:
.LBE3839:
.LBE3888:
	.loc 1 2308 0
	stw 28,32(1)
	stw 29,36(1)
.LBB3889:
.LBB3840:
.LBB3837:
	.loc 1 338 0
	mtctr 0
.LBE3837:
.LBE3840:
.LBE3889:
	.loc 1 2308 0
	lwz 27,0(5)
	lwz 28,4(5)
	.cfi_offset 29, -12
	.cfi_offset 28, -16
.LEHB35:
.LBB3890:
.LBB3841:
.LBB3838:
	.loc 1 338 0
	bctrl
.LEHE35:
.LVL392:
.LBE3838:
.LBE3841:
	.loc 1 2314 0
	li 3,16
.LEHB36:
	bl _Znwj
.LBB3842:
.LBB3843:
	.loc 1 1778 0
	lis 9,_ZTVN7sigslot12_connection3I4TaskP9GuiButtoniRK6_POINTNS_15single_threadedEEE+8@ha
	.loc 1 1779 0
	stw 30,4(3)
	.loc 1 1778 0
	la 0,_ZTVN7sigslot12_connection3I4TaskP9GuiButtoniRK6_POINTNS_15single_threadedEEE+8@l(9)
	.loc 1 1780 0
	stw 27,8(3)
	.loc 1 1778 0
	stw 0,0(3)
.LBE3843:
.LBE3842:
	.loc 1 2314 0
	mr 29,3
.LVL393:
.LBB3845:
.LBB3844:
	.loc 1 1780 0
	stw 28,12(3)
.LVL394:
.LBE3844:
.LBE3845:
.LBB3846:
.LBB3847:
.LBB3848:
.LBB3849:
.LBB3850:
.LBB3851:
.LBB3852:
.LBB3853:
	.loc 5 92 0
	li 3,12
.LVL395:
	bl _Znwj
.LVL396:
.LBE3853:
.LBE3852:
.LBE3851:
.LBB3854:
.LBB3855:
	.loc 5 108 0 discriminator 1
	cmpwi 7,3,-8
	beq- 7,.L323
	.loc 5 108 0 is_stmt 0
	stw 29,8(3)
.LVL397:
.L323:
.LBE3855:
.LBE3854:
.LBE3850:
.LBE3849:
	.loc 4 1516 0 is_stmt 1
	addi 4,31,4
.LBE3848:
.LBE3847:
.LBE3846:
.LBB3860:
.LBB3861:
	.loc 1 503 0
	addi 29,30,312
.LVL398:
.LBE3861:
.LBE3860:
.LBB3877:
.LBB3858:
.LBB3856:
	.loc 4 1516 0
	bl _ZNSt8__detail15_List_node_base7_M_hookEPS0_
.LVL399:
.LBE3856:
.LBE3858:
.LBE3877:
.LBB3878:
.LBB3874:
.LBB3862:
.LBB3863:
	.loc 1 338 0
	lwz 9,312(30)
.LBE3863:
.LBE3862:
.LBE3874:
.LBE3878:
.LBB3879:
.LBB3859:
.LBB3857:
	.loc 4 1516 0
	stw 31,8(1)
.LVL400:
.LBE3857:
.LBE3859:
.LBE3879:
.LBB3880:
.LBB3875:
.LBB3865:
.LBB3864:
	.loc 1 338 0
	mr 3,29
	lwz 0,8(9)
	mtctr 0
	bctrl
.LEHE36:
.LVL401:
.LBE3864:
.LBE3865:
.LBB3866:
.LBB3867:
	.file 8 "d:\\devkitpro\\devkitppc\\bin\\../lib/gcc/powerpc-eabi/4.6.3/../../../../powerpc-eabi/include/c++/4.6.3/bits/stl_set.h"
	.loc 8 410 0
	addi 3,30,316
	addi 4,1,8
.LEHB37:
	bl _ZNSt8_Rb_treeIPN7sigslot12_signal_baseINS0_15single_threadedEEES4_St9_IdentityIS4_ESt4lessIS4_ESaIS4_EE16_M_insert_uniqueERKS4_
.LEHE37:
.LVL402:
.LBE3867:
.LBE3866:
.LBB3868:
.LBB3869:
.LBB3870:
	.loc 1 343 0
	lwz 9,312(30)
	mr 3,29
	lwz 0,12(9)
	mtctr 0
.LEHB38:
	bctrl
.LEHE38:
.LVL403:
.LBE3870:
.LBE3869:
.LBE3868:
.LBE3875:
.LBE3880:
.LBB3881:
.LBB3882:
.LBB3883:
	lwz 9,0(31)
	mr 3,31
	lwz 0,12(9)
	mtctr 0
.LEHB39:
	bctrl
.LEHE39:
.LBE3883:
.LBE3882:
.LBE3881:
.LBE3890:
	.loc 1 2317 0
	lwz 0,52(1)
	lwz 27,28(1)
.LVL404:
	mtlr 0
	lwz 28,32(1)
.LVL405:
	lwz 29,36(1)
.LVL406:
	lwz 30,40(1)
.LVL407:
	lwz 31,44(1)
.LVL408:
	addi 1,1,48
	.cfi_remember_state
.LCFI74:
	.cfi_def_cfa_offset 0
	.cfi_restore 31
	.cfi_restore 30
	.cfi_restore 29
	.cfi_restore 28
	.cfi_restore 27
	blr
.LVL409:
.L330:
.LCFI75:
	.cfi_restore_state
	mr 30,3
.LVL410:
.L327:
.LBB3891:
.LBB3884:
.LBB3885:
.LBB3886:
	.loc 1 343 0
	lwz 9,0(31)
	mr 3,31
	lwz 0,12(9)
	mtctr 0
	bctrl
	mr 3,30
.LEHB40:
	bl _Unwind_Resume
.LEHE40:
.LVL411:
.L331:
.LBE3886:
.LBE3885:
.LBE3884:
.LBB3887:
.LBB3876:
.LBB3871:
.LBB3872:
.LBB3873:
	lwz 9,312(30)
	mr 30,3
.LVL412:
	mr 3,29
	lwz 0,12(9)
	mtctr 0
	bctrl
	b .L327
.LBE3873:
.LBE3872:
.LBE3871:
.LBE3876:
.LBE3887:
.LBE3891:
	.cfi_endproc
.LFE1529:
	.section	.gcc_except_table
.LLSDA1529:
	.byte	0xff
	.byte	0xff
	.byte	0x1
	.uleb128 .LLSDACSE1529-.LLSDACSB1529
.LLSDACSB1529:
	.uleb128 .LEHB35-.LFB1529
	.uleb128 .LEHE35-.LEHB35
	.uleb128 0
	.uleb128 0
	.uleb128 .LEHB36-.LFB1529
	.uleb128 .LEHE36-.LEHB36
	.uleb128 .L330-.LFB1529
	.uleb128 0
	.uleb128 .LEHB37-.LFB1529
	.uleb128 .LEHE37-.LEHB37
	.uleb128 .L331-.LFB1529
	.uleb128 0
	.uleb128 .LEHB38-.LFB1529
	.uleb128 .LEHE38-.LEHB38
	.uleb128 .L330-.LFB1529
	.uleb128 0
	.uleb128 .LEHB39-.LFB1529
	.uleb128 .LEHE39-.LEHB39
	.uleb128 0
	.uleb128 0
	.uleb128 .LEHB40-.LFB1529
	.uleb128 .LEHE40-.LEHB40
	.uleb128 0
	.uleb128 0
.LLSDACSE1529:
	.section	.text._ZN7sigslot7signal3IP9GuiButtoniRK6_POINTNS_15single_threadedEE7connectI4TaskEEvPT_MSA_FvS2_iS5_E,"axG",@progbits,_ZN7sigslot7signal3IP9GuiButtoniRK6_POINTNS_15single_threadedEE7connectI4TaskEEvPT_MSA_FvS2_iS5_E,comdat
	.size	_ZN7sigslot7signal3IP9GuiButtoniRK6_POINTNS_15single_threadedEE7connectI4TaskEEvPT_MSA_FvS2_iS5_E, .-_ZN7sigslot7signal3IP9GuiButtoniRK6_POINTNS_15single_threadedEE7connectI4TaskEEvPT_MSA_FvS2_iS5_E
	.section	.text._ZNSt8_Rb_treeIPN7sigslot12_signal_baseINS0_15single_threadedEEES4_St9_IdentityIS4_ESt4lessIS4_ESaIS4_EE5eraseERKS4_,"axG",@progbits,_ZNSt8_Rb_treeIPN7sigslot12_signal_baseINS0_15single_threadedEEES4_St9_IdentityIS4_ESt4lessIS4_ESaIS4_EE5eraseERKS4_,comdat
	.align 2
	.weak	_ZNSt8_Rb_treeIPN7sigslot12_signal_baseINS0_15single_threadedEEES4_St9_IdentityIS4_ESt4lessIS4_ESaIS4_EE5eraseERKS4_
	.type	_ZNSt8_Rb_treeIPN7sigslot12_signal_baseINS0_15single_threadedEEES4_St9_IdentityIS4_ESt4lessIS4_ESaIS4_EE5eraseERKS4_, @function
_ZNSt8_Rb_treeIPN7sigslot12_signal_baseINS0_15single_threadedEEES4_St9_IdentityIS4_ESt4lessIS4_ESaIS4_EE5eraseERKS4_:
.LFB1902:
	.loc 7 1510 0
	.cfi_startproc
.LVL413:
	mflr 0
	stwu 1,-32(1)
.LCFI76:
	.cfi_def_cfa_offset 32
	.cfi_register 65, 0
	stw 28,16(1)
.LBB3944:
.LBB3945:
	.loc 7 1155 0
	addi 28,3,4
	.cfi_offset 28, -16
.LBE3945:
.LBE3944:
	.loc 7 1510 0
	stw 0,36(1)
	stw 26,8(1)
.LBB4004:
.LBB3966:
.LBB3946:
	.loc 7 1155 0
	mr 26,28
	.cfi_offset 26, -24
	.cfi_offset 65, 4
.LBE3946:
	.loc 3 73 0
	lwz 0,8(3)
.LBE3966:
.LBE4004:
	.loc 7 1510 0
	stw 29,20(1)
.LBB4005:
.LBB3967:
.LBB3959:
	.loc 7 1155 0
	mr 29,28
	.cfi_offset 29, -12
	.loc 7 1156 0
	cmpwi 7,0,0
.LBE3959:
.LBE3967:
.LBE4005:
	.loc 7 1510 0
	stw 30,24(1)
	stw 27,12(1)
	mr 30,3
	.cfi_offset 27, -20
	.cfi_offset 30, -8
.LVL414:
	stw 31,28(1)
.LBB4006:
.LBB3968:
.LBB3960:
	.loc 7 1156 0
	beq- 7,.L334
	.cfi_offset 31, -4
.LVL415:
	lwz 11,0(4)
	mr 26,0
	b .L345
.LVL416:
.L363:
.LBE3960:
	.loc 3 73 0
	lwz 26,12(26)
.LVL417:
.LBB3961:
	.loc 7 1156 0
	cmpwi 7,26,0
	beq- 7,.L362
.L345:
.LVL418:
.LBE3961:
	.loc 3 73 0
	lwz 9,16(26)
.LBB3962:
.LBB3947:
	.loc 7 1158 0
	cmplw 7,9,11
	blt- 7,.L363
.LVL419:
.LBB3948:
	.loc 7 1160 0
	ble- 7,.L337
.LVL420:
.LBE3948:
.LBE3947:
.LBE3962:
	.loc 3 73 0
	mr 29,26
	.loc 7 1161 0
	lwz 26,8(26)
.LVL421:
.LBB3963:
	.loc 7 1156 0
	cmpwi 7,26,0
	bne+ 7,.L345
.LVL422:
.L362:
	mr 26,29
.LVL423:
.L334:
.LBE3963:
.LBE3968:
.LBB3969:
.LBB3970:
.LBB3971:
	.loc 7 1500 0
	lwz 9,12(30)
.LBE3971:
.LBE3970:
.LBE3969:
.LBB4000:
.LBB3964:
	.loc 3 73 0
	lwz 27,20(30)
.LVL424:
.LBE3964:
.LBE4000:
.LBB4001:
.LBB3998:
.LBB3996:
	.loc 7 1500 0
	cmpw 7,26,9
	beq- 7,.L364
.L346:
.LVL425:
	.loc 7 1503 0
	cmpw 7,29,26
	beq- 7,.L353
.LVL426:
.L360:
.LBB3972:
.LBB3973:
	.loc 7 277 0
	mr 3,26
	bl _ZSt18_Rb_tree_incrementPKSt18_Rb_tree_node_base
.LBE3973:
.LBE3972:
.LBB3975:
.LBB3976:
.LBB3977:
	.loc 7 1489 0
	mr 4,28
.LBE3977:
.LBE3976:
.LBE3975:
.LBB3988:
.LBB3974:
	.loc 7 277 0
	mr 31,3
.LVL427:
.LBE3974:
.LBE3988:
.LBB3989:
.LBB3985:
.LBB3982:
	.loc 7 1489 0
	mr 3,26
.LVL428:
	bl _ZSt28_Rb_tree_rebalance_for_erasePSt18_Rb_tree_node_baseRS_
.LBE3982:
.LBE3985:
.LBE3989:
	.loc 7 277 0
	mr 26,31
.LVL429:
.LBB3990:
.LBB3986:
.LBB3983:
.LBB3978:
.LBB3979:
.LBB3980:
.LBB3981:
	.loc 5 98 0
	bl _ZdlPv
.LBE3981:
.LBE3980:
.LBE3979:
.LBE3978:
.LBE3983:
.LBE3986:
.LBE3990:
	.loc 7 1503 0
	cmpw 7,29,31
.LBB3991:
.LBB3987:
.LBB3984:
	.loc 7 1491 0
	lwz 9,20(30)
	addi 0,9,-1
	stw 0,20(30)
.LBE3984:
.LBE3987:
.LBE3991:
	.loc 7 1503 0
	bne+ 7,.L360
	subf 27,0,27
.LVL430:
.L348:
.LBE3996:
.LBE3998:
.LBE4001:
.LBE4006:
	.loc 7 1517 0
	lwz 0,36(1)
	mr 3,27
	lwz 26,8(1)
	mtlr 0
	lwz 27,12(1)
	lwz 28,16(1)
	lwz 29,20(1)
.LVL431:
	lwz 30,24(1)
.LVL432:
	lwz 31,28(1)
	addi 1,1,32
	.cfi_remember_state
.LCFI77:
	.cfi_def_cfa_offset 0
	.cfi_restore 31
	.cfi_restore 30
	.cfi_restore 29
	.cfi_restore 28
	.cfi_restore 27
	.cfi_restore 26
	blr
.LVL433:
.L337:
.LCFI78:
	.cfi_restore_state
.LBB4007:
.LBB4002:
	.loc 3 73 0
	lwz 10,8(26)
.LVL434:
	lwz 9,12(26)
.LVL435:
.L361:
.LBB3965:
.LBB3958:
.LBB3957:
.LBB3949:
.LBB3950:
.LBB3951:
	.loc 7 1089 0
	cmpwi 7,10,0
	beq- 7,.L338
.L365:
.LVL436:
	.loc 7 1090 0
	lwz 8,16(10)
	cmplw 7,8,11
	blt- 7,.L339
.LVL437:
.LBE3951:
	.loc 3 73 0
	mr 26,10
	.loc 7 1091 0
	lwz 10,8(10)
.LVL438:
.LBB3952:
	.loc 7 1089 0
	cmpwi 7,10,0
	bne+ 7,.L365
.LVL439:
.L338:
.LBE3952:
.LBE3950:
.LBB3953:
.LBB3954:
	.loc 7 1121 0
	cmpwi 7,9,0
	beq- 7,.L334
.LVL440:
	.loc 7 1122 0
	lwz 10,16(9)
	cmplw 7,10,11
	ble- 7,.L342
.LVL441:
.L366:
.LBE3954:
	.loc 3 73 0
	mr 29,9
	.loc 7 1123 0
	lwz 9,8(9)
.LVL442:
.LBB3955:
	.loc 7 1121 0
	cmpwi 7,9,0
	beq- 7,.L334
.LVL443:
	.loc 7 1122 0
	lwz 10,16(9)
	cmplw 7,10,11
	bgt- 7,.L366
.LVL444:
.L342:
.LBE3955:
	.loc 3 73 0
	lwz 9,12(9)
.LVL445:
	b .L338
.LVL446:
.L339:
.LBE3953:
.LBB3956:
	lwz 10,12(10)
.LVL447:
	b .L361
.LVL448:
.L364:
.LBE3956:
.LBE3949:
.LBE3957:
.LBE3958:
.LBE3965:
.LBE4002:
.LBB4003:
.LBB3999:
.LBB3997:
	.loc 7 1500 0
	cmpw 7,28,29
	bne+ 7,.L346
.LVL449:
.LBB3992:
.LBB3993:
.LBB3994:
.LBB3995:
	.loc 7 809 0
	mr 4,0
.LVL450:
	mr 3,30
.LVL451:
	bl _ZNSt8_Rb_treeIPN7sigslot12_signal_baseINS0_15single_threadedEEES4_St9_IdentityIS4_ESt4lessIS4_ESaIS4_EE8_M_eraseEPSt13_Rb_tree_nodeIS4_E
.LVL452:
	.loc 7 811 0
	li 0,0
	.loc 7 810 0
	stw 28,12(30)
.LVL453:
	.loc 7 811 0
	stw 0,8(30)
.LVL454:
	.loc 7 812 0
	stw 28,16(30)
	.loc 7 813 0
	stw 0,20(30)
	b .L348
.LVL455:
.L353:
.LBE3995:
.LBE3994:
.LBE3993:
.LBE3992:
	.loc 7 1503 0
	li 27,0
	b .L348
.LBE3997:
.LBE3999:
.LBE4003:
.LBE4007:
	.cfi_endproc
.LFE1902:
	.size	_ZNSt8_Rb_treeIPN7sigslot12_signal_baseINS0_15single_threadedEEES4_St9_IdentityIS4_ESt4lessIS4_ESaIS4_EE5eraseERKS4_, .-_ZNSt8_Rb_treeIPN7sigslot12_signal_baseINS0_15single_threadedEEES4_St9_IdentityIS4_ESt4lessIS4_ESaIS4_EE5eraseERKS4_
	.section	.text._ZN7sigslot13_signal_base2IP4TaskiNS_15single_threadedEED0Ev,"axG",@progbits,_ZN7sigslot13_signal_base2IP4TaskiNS_15single_threadedEED5Ev,comdat
	.align 2
	.weak	_ZN7sigslot13_signal_base2IP4TaskiNS_15single_threadedEED0Ev
	.type	_ZN7sigslot13_signal_base2IP4TaskiNS_15single_threadedEED0Ev, @function
_ZN7sigslot13_signal_base2IP4TaskiNS_15single_threadedEED0Ev:
.LFB1602:
	.loc 1 823 0
	.cfi_startproc
	.cfi_personality 0,__gxx_personality_v0
	.cfi_lsda 0,.LLSDA1602
.LVL456:
	mflr 0
	stwu 1,-40(1)
.LCFI79:
	.cfi_def_cfa_offset 40
	.cfi_register 65, 0
.LBB4103:
.LBB4104:
.LBB4105:
	.loc 1 826 0
	lis 9,_ZTVN7sigslot13_signal_base2IP4TaskiNS_15single_threadedEEE+8@ha
.LBE4105:
.LBE4104:
.LBE4103:
	.loc 1 823 0
	stw 28,24(1)
	mr 28,3
	.cfi_offset 28, -16
.LVL457:
	stw 0,44(1)
.LBB4190:
.LBB4186:
.LBB4182:
	.loc 1 826 0
	la 0,_ZTVN7sigslot13_signal_base2IP4TaskiNS_15single_threadedEEE+8@l(9)
	.cfi_offset 65, 4
.LBE4182:
.LBE4186:
.LBE4190:
	.loc 1 823 0
	stw 29,28(1)
	addi 29,3,4
	.cfi_offset 29, -12
	stw 30,32(1)
	stw 31,36(1)
.LBB4191:
.LBB4187:
.LBB4183:
	.loc 1 826 0
	stw 0,0(3)
.LVL458:
.LEHB41:
.LBB4106:
.LBB4107:
.LBB4108:
.LBB4109:
	.loc 1 338 0
	.cfi_offset 31, -4
	.cfi_offset 30, -8
	bl _ZN7sigslot15single_threaded4lockEv
.LEHE41:
.LVL459:
.LBE4109:
.LBE4108:
.LBE4107:
	.loc 3 73 0
	mr 29,28
.LVL460:
	lwzu 31,4(29)
.LVL461:
.LBB4140:
	.loc 1 834 0
	cmpw 7,31,29
	beq- 7,.L368
.LVL462:
.L406:
	.loc 1 836 0
	lwz 3,8(31)
	lwz 9,0(3)
	lwz 0,8(9)
	mtctr 0
.LEHB42:
	bctrl
.LBB4110:
.LBB4111:
.LBB4112:
.LBB4113:
	.loc 1 338 0
	lwz 9,0(3)
.LBE4113:
.LBE4112:
.LBE4111:
.LBE4110:
	.loc 1 836 0
	mr 30,3
.LVL463:
	stw 28,8(1)
.LVL464:
.LBB4122:
.LBB4121:
.LBB4115:
.LBB4114:
	.loc 1 338 0
	lwz 0,8(9)
	mtctr 0
	bctrl
.LVL465:
.LBE4114:
.LBE4115:
.LBB4116:
.LBB4117:
	.loc 8 528 0
	addi 3,30,4
	addi 4,1,8
	bl _ZNSt8_Rb_treeIPN7sigslot12_signal_baseINS0_15single_threadedEEES4_St9_IdentityIS4_ESt4lessIS4_ESaIS4_EE5eraseERKS4_
.LVL466:
.LBE4117:
.LBE4116:
.LBB4118:
.LBB4119:
.LBB4120:
	.loc 1 343 0
	lwz 9,0(30)
	mr 3,30
	lwz 0,12(9)
	mtctr 0
	bctrl
.LVL467:
.LBE4120:
.LBE4119:
.LBE4118:
.LBE4121:
.LBE4122:
	.loc 1 837 0
	lwz 3,8(31)
	cmpwi 7,3,0
	beq- 7,.L370
	lwz 9,0(3)
	lwz 0,4(9)
	mtctr 0
	bctrl
.LEHE42:
.L370:
.LVL468:
.LBB4123:
.LBB4124:
	.loc 4 234 0
	lwz 31,0(31)
.LVL469:
.LBE4124:
.LBE4123:
	.loc 1 834 0
	cmpw 7,29,31
	bne+ 7,.L406
.LBE4140:
	.loc 3 73 0
	lwz 31,4(28)
.LVL470:
.LBB4141:
.LBB4125:
.LBB4126:
	.loc 4 1162 0
	cmpw 7,29,31
	bne+ 7,.L408
	b .L368
.LVL471:
.L401:
	.loc 4 1163 0
	mr 31,30
.LVL472:
.L408:
.LBB4127:
.LBB4128:
	.file 9 "d:\\devkitpro\\devkitppc\\bin\\../lib/gcc/powerpc-eabi/4.6.3/../../../../powerpc-eabi/include/c++/4.6.3/bits/list.tcc"
	.loc 9 112 0
	lwz 30,0(31)
.LVL473:
.LBB4129:
.LBB4130:
	.loc 4 1532 0
	mr 3,31
	bl _ZNSt8__detail15_List_node_base9_M_unhookEv
.LVL474:
.LBB4131:
.LBB4132:
.LBB4133:
	.loc 5 98 0
	mr 3,31
	bl _ZdlPv
.LVL475:
.LBE4133:
.LBE4132:
.LBE4131:
.LBE4130:
.LBE4129:
.LBE4128:
.LBE4127:
	.loc 4 1162 0
	cmpw 7,29,30
	bne+ 7,.L401
.LVL476:
.L368:
.LBE4126:
.LBE4125:
.LBB4134:
.LBB4135:
.LBB4136:
	.loc 1 343 0
	lwz 9,0(28)
	mr 3,28
	lwz 0,12(9)
	mtctr 0
.LEHB43:
	bctrl
.LEHE43:
.LVL477:
.LBE4136:
.LBE4135:
.LBE4134:
.LBE4141:
.LBE4106:
.LBB4143:
.LBB4144:
.LBB4145:
.LBB4146:
.LBB4147:
.LBB4148:
	.loc 9 70 0
	lwz 3,4(28)
.LVL478:
	.loc 9 71 0
	cmpw 7,3,29
	bne+ 7,.L410
	b .L386
.LVL479:
.L402:
	.loc 9 74 0
	mr 3,31
.LVL480:
.L410:
.LBB4149:
	lwz 31,0(3)
.LVL481:
.LBB4150:
.LBB4151:
.LBB4152:
	.loc 5 98 0
	bl _ZdlPv
.LVL482:
.LBE4152:
.LBE4151:
.LBE4150:
.LBE4149:
	.loc 9 71 0
	cmpw 7,31,29
	bne+ 7,.L402
.LVL483:
.L386:
.LBE4148:
.LBE4147:
.LBE4146:
.LBE4145:
.LBE4144:
.LBE4143:
.LBB4153:
.LBB4154:
.LBB4155:
.LBB4156:
.LBB4157:
.LBB4158:
	.loc 1 105 0
	lis 9,_ZTVN7sigslot15single_threadedE+8@ha
.LBE4158:
.LBE4157:
.LBE4156:
.LBE4155:
.LBE4154:
.LBE4153:
.LBE4183:
.LBE4187:
.LBE4191:
	.loc 1 826 0
	mr 3,28
.LBB4192:
.LBB4188:
.LBB4184:
.LBB4164:
.LBB4163:
.LBB4162:
.LBB4161:
.LBB4160:
.LBB4159:
	.loc 1 105 0
	la 0,_ZTVN7sigslot15single_threadedE+8@l(9)
	stw 0,0(28)
.LBE4159:
.LBE4160:
.LBE4161:
.LBE4162:
.LBE4163:
.LBE4164:
.LBE4184:
.LBE4188:
.LBE4192:
	.loc 1 826 0
	bl _ZdlPv
	lwz 0,44(1)
	lwz 28,24(1)
.LVL484:
	mtlr 0
	lwz 29,28(1)
.LVL485:
	lwz 30,32(1)
	lwz 31,36(1)
	addi 1,1,40
	.cfi_remember_state
.LCFI80:
	.cfi_def_cfa_offset 0
	.cfi_restore 31
	.cfi_restore 30
	.cfi_restore 29
	.cfi_restore 28
	blr
.LVL486:
.L404:
.LCFI81:
	.cfi_restore_state
	mr 31,3
.L378:
.LVL487:
.LBB4193:
.LBB4189:
.LBB4185:
.LBB4165:
.LBB4166:
.LBB4167:
.LBB4168:
.LBB4169:
.LBB4170:
	.loc 9 70 0
	lwz 3,4(28)
.LVL488:
	.loc 9 71 0
	cmpw 7,3,29
	beq- 7,.L395
.LVL489:
.L411:
.LBB4171:
	.loc 9 74 0
	lwz 30,0(3)
.LVL490:
.LBB4172:
.LBB4173:
.LBB4174:
	.loc 5 98 0
	bl _ZdlPv
.LVL491:
.LBE4174:
.LBE4173:
.LBE4172:
.LBE4171:
	.loc 9 71 0
	cmpw 7,30,29
	beq- 7,.L395
	.loc 9 74 0
	mr 3,30
	b .L411
.LVL492:
.L405:
.LBE4170:
.LBE4169:
.LBE4168:
.LBE4167:
.LBE4166:
.LBE4165:
.LBB4175:
.LBB4142:
.LBB4137:
.LBB4138:
.LBB4139:
	.loc 1 343 0
	lwz 9,0(28)
	mr 31,3
.LVL493:
	mr 3,28
	lwz 0,12(9)
	mtctr 0
	bctrl
	b .L378
.LVL494:
.L395:
.LBE4139:
.LBE4138:
.LBE4137:
.LBE4142:
.LBE4175:
.LBB4176:
.LBB4177:
.LBB4178:
.LBB4179:
.LBB4180:
.LBB4181:
	.loc 1 105 0
	lis 9,_ZTVN7sigslot15single_threadedE+8@ha
	mr 3,31
	la 0,_ZTVN7sigslot15single_threadedE+8@l(9)
	stw 0,0(28)
.LEHB44:
	bl _Unwind_Resume
.LEHE44:
.LBE4181:
.LBE4180:
.LBE4179:
.LBE4178:
.LBE4177:
.LBE4176:
.LBE4185:
.LBE4189:
.LBE4193:
	.cfi_endproc
.LFE1602:
	.section	.gcc_except_table
.LLSDA1602:
	.byte	0xff
	.byte	0xff
	.byte	0x1
	.uleb128 .LLSDACSE1602-.LLSDACSB1602
.LLSDACSB1602:
	.uleb128 .LEHB41-.LFB1602
	.uleb128 .LEHE41-.LEHB41
	.uleb128 .L404-.LFB1602
	.uleb128 0
	.uleb128 .LEHB42-.LFB1602
	.uleb128 .LEHE42-.LEHB42
	.uleb128 .L405-.LFB1602
	.uleb128 0
	.uleb128 .LEHB43-.LFB1602
	.uleb128 .LEHE43-.LEHB43
	.uleb128 .L404-.LFB1602
	.uleb128 0
	.uleb128 .LEHB44-.LFB1602
	.uleb128 .LEHE44-.LEHB44
	.uleb128 0
	.uleb128 0
.LLSDACSE1602:
	.section	.text._ZN7sigslot13_signal_base2IP4TaskiNS_15single_threadedEED0Ev,"axG",@progbits,_ZN7sigslot13_signal_base2IP4TaskiNS_15single_threadedEED5Ev,comdat
	.size	_ZN7sigslot13_signal_base2IP4TaskiNS_15single_threadedEED0Ev, .-_ZN7sigslot13_signal_base2IP4TaskiNS_15single_threadedEED0Ev
	.section	.text._ZN7sigslot7signal2IP4TaskiNS_15single_threadedEED2Ev,"axG",@progbits,_ZN7sigslot7signal2IP4TaskiNS_15single_threadedEED5Ev,comdat
	.align 2
	.weak	_ZN7sigslot7signal2IP4TaskiNS_15single_threadedEED2Ev
	.type	_ZN7sigslot7signal2IP4TaskiNS_15single_threadedEED2Ev, @function
_ZN7sigslot7signal2IP4TaskiNS_15single_threadedEED2Ev:
.LFB1519:
	.loc 1 2235 0
	.cfi_startproc
	.cfi_personality 0,__gxx_personality_v0
	.cfi_lsda 0,.LLSDA1519
.LVL495:
	mflr 0
	stwu 1,-40(1)
.LCFI82:
	.cfi_def_cfa_offset 40
	.cfi_register 65, 0
.LBB4291:
.LBB4292:
.LBB4293:
.LBB4294:
	.loc 1 826 0
	lis 9,_ZTVN7sigslot13_signal_base2IP4TaskiNS_15single_threadedEEE+8@ha
.LBE4294:
.LBE4293:
.LBE4292:
.LBE4291:
	.loc 1 2235 0
	stw 28,24(1)
	mr 28,3
	.cfi_offset 28, -16
.LVL496:
	stw 0,44(1)
.LBB4392:
.LBB4387:
.LBB4382:
.LBB4377:
	.loc 1 826 0
	la 0,_ZTVN7sigslot13_signal_base2IP4TaskiNS_15single_threadedEEE+8@l(9)
	.cfi_offset 65, 4
.LBE4377:
.LBE4382:
.LBE4387:
.LBE4392:
	.loc 1 2235 0
	stw 29,28(1)
	addi 29,3,4
	.cfi_offset 29, -12
	stw 30,32(1)
	stw 31,36(1)
.LBB4393:
.LBB4388:
.LBB4383:
.LBB4378:
	.loc 1 826 0
	stw 0,0(3)
.LVL497:
.LEHB45:
.LBB4295:
.LBB4296:
.LBB4297:
.LBB4298:
	.loc 1 338 0
	.cfi_offset 31, -4
	.cfi_offset 30, -8
	bl _ZN7sigslot15single_threaded4lockEv
.LEHE45:
.LVL498:
.LBE4298:
.LBE4297:
.LBE4296:
	.loc 3 73 0
	mr 29,28
.LVL499:
	lwzu 31,4(29)
.LVL500:
.LBB4329:
	.loc 1 834 0
	cmpw 7,31,29
	beq- 7,.L413
.LVL501:
.L451:
	.loc 1 836 0
	lwz 3,8(31)
	lwz 9,0(3)
	lwz 0,8(9)
	mtctr 0
.LEHB46:
	bctrl
.LBB4299:
.LBB4300:
.LBB4301:
.LBB4302:
	.loc 1 338 0
	lwz 9,0(3)
.LBE4302:
.LBE4301:
.LBE4300:
.LBE4299:
	.loc 1 836 0
	mr 30,3
.LVL502:
	stw 28,8(1)
.LVL503:
.LBB4311:
.LBB4310:
.LBB4304:
.LBB4303:
	.loc 1 338 0
	lwz 0,8(9)
	mtctr 0
	bctrl
.LVL504:
.LBE4303:
.LBE4304:
.LBB4305:
.LBB4306:
	.loc 8 528 0
	addi 3,30,4
	addi 4,1,8
	bl _ZNSt8_Rb_treeIPN7sigslot12_signal_baseINS0_15single_threadedEEES4_St9_IdentityIS4_ESt4lessIS4_ESaIS4_EE5eraseERKS4_
.LVL505:
.LBE4306:
.LBE4305:
.LBB4307:
.LBB4308:
.LBB4309:
	.loc 1 343 0
	lwz 9,0(30)
	mr 3,30
	lwz 0,12(9)
	mtctr 0
	bctrl
.LVL506:
.LBE4309:
.LBE4308:
.LBE4307:
.LBE4310:
.LBE4311:
	.loc 1 837 0
	lwz 3,8(31)
	cmpwi 7,3,0
	beq- 7,.L415
	lwz 9,0(3)
	lwz 0,4(9)
	mtctr 0
	bctrl
.LEHE46:
.L415:
.LVL507:
.LBB4312:
.LBB4313:
	.loc 4 234 0
	lwz 31,0(31)
.LVL508:
.LBE4313:
.LBE4312:
	.loc 1 834 0
	cmpw 7,29,31
	bne+ 7,.L451
.LBE4329:
	.loc 3 73 0
	lwz 31,4(28)
.LVL509:
.LBB4330:
.LBB4314:
.LBB4315:
	.loc 4 1162 0
	cmpw 7,29,31
	bne+ 7,.L453
	b .L413
.LVL510:
.L446:
	.loc 4 1163 0
	mr 31,30
.LVL511:
.L453:
.LBB4316:
.LBB4317:
	.loc 9 112 0
	lwz 30,0(31)
.LVL512:
.LBB4318:
.LBB4319:
	.loc 4 1532 0
	mr 3,31
	bl _ZNSt8__detail15_List_node_base9_M_unhookEv
.LVL513:
.LBB4320:
.LBB4321:
.LBB4322:
	.loc 5 98 0
	mr 3,31
	bl _ZdlPv
.LVL514:
.LBE4322:
.LBE4321:
.LBE4320:
.LBE4319:
.LBE4318:
.LBE4317:
.LBE4316:
	.loc 4 1162 0
	cmpw 7,29,30
	bne+ 7,.L446
.LVL515:
.L413:
.LBE4315:
.LBE4314:
.LBB4323:
.LBB4324:
.LBB4325:
	.loc 1 343 0
	lwz 9,0(28)
	mr 3,28
	lwz 0,12(9)
	mtctr 0
.LEHB47:
	bctrl
.LEHE47:
.LBE4325:
.LBE4324:
.LBE4323:
.LBE4330:
.LBE4295:
.LBB4332:
.LBB4333:
.LBB4334:
.LBB4335:
.LBB4336:
.LBB4337:
	.loc 9 70 0
	lwz 3,4(28)
.LVL516:
	.loc 9 71 0
	cmpw 7,3,29
	bne+ 7,.L455
	b .L431
.LVL517:
.L447:
	.loc 9 74 0
	mr 3,31
.LVL518:
.L455:
.LBB4338:
	lwz 31,0(3)
.LVL519:
.LBB4339:
.LBB4340:
.LBB4341:
	.loc 5 98 0
	bl _ZdlPv
.LVL520:
.LBE4341:
.LBE4340:
.LBE4339:
.LBE4338:
	.loc 9 71 0
	cmpw 7,31,29
	bne+ 7,.L447
.LVL521:
.L431:
.LBE4337:
.LBE4336:
.LBE4335:
.LBE4334:
.LBE4333:
.LBE4332:
.LBB4342:
.LBB4343:
.LBB4344:
.LBB4345:
.LBB4346:
.LBB4347:
	.loc 1 105 0
	lis 9,_ZTVN7sigslot15single_threadedE+8@ha
.LBE4347:
.LBE4346:
.LBE4345:
.LBE4344:
.LBE4343:
.LBE4342:
.LBE4378:
.LBE4383:
.LBE4388:
.LBE4393:
	.loc 1 2238 0
	lwz 29,28(1)
.LVL522:
.LBB4394:
.LBB4389:
.LBB4384:
.LBB4379:
.LBB4358:
.LBB4356:
.LBB4354:
.LBB4352:
.LBB4350:
.LBB4348:
	.loc 1 105 0
	la 0,_ZTVN7sigslot15single_threadedE+8@l(9)
.LBE4348:
.LBE4350:
.LBE4352:
.LBE4354:
.LBE4356:
.LBE4358:
.LBE4379:
.LBE4384:
.LBE4389:
.LBE4394:
	.loc 1 2238 0
	lwz 30,32(1)
.LBB4395:
.LBB4390:
.LBB4385:
.LBB4380:
.LBB4359:
.LBB4357:
.LBB4355:
.LBB4353:
.LBB4351:
.LBB4349:
	.loc 1 105 0
	stw 0,0(28)
.LBE4349:
.LBE4351:
.LBE4353:
.LBE4355:
.LBE4357:
.LBE4359:
.LBE4380:
.LBE4385:
.LBE4390:
.LBE4395:
	.loc 1 2238 0
	lwz 0,44(1)
	lwz 28,24(1)
.LVL523:
	mtlr 0
	lwz 31,36(1)
	addi 1,1,40
	.cfi_remember_state
.LCFI83:
	.cfi_def_cfa_offset 0
	.cfi_restore 31
	.cfi_restore 30
	.cfi_restore 29
	.cfi_restore 28
	blr
.LVL524:
.L449:
.LCFI84:
	.cfi_restore_state
	mr 31,3
.L423:
.LBB4396:
.LBB4391:
.LBB4386:
.LBB4381:
.LBB4360:
.LBB4361:
.LBB4362:
.LBB4363:
.LBB4364:
.LBB4365:
	.loc 9 70 0
	lwz 3,4(28)
.LVL525:
	.loc 9 71 0
	cmpw 7,3,29
	beq- 7,.L440
.LVL526:
.L456:
.LBB4366:
	.loc 9 74 0
	lwz 30,0(3)
.LVL527:
.LBB4367:
.LBB4368:
.LBB4369:
	.loc 5 98 0
	bl _ZdlPv
.LVL528:
.LBE4369:
.LBE4368:
.LBE4367:
.LBE4366:
	.loc 9 71 0
	cmpw 7,30,29
	beq- 7,.L440
	.loc 9 74 0
	mr 3,30
	b .L456
.LVL529:
.L450:
.LBE4365:
.LBE4364:
.LBE4363:
.LBE4362:
.LBE4361:
.LBE4360:
.LBB4370:
.LBB4331:
.LBB4326:
.LBB4327:
.LBB4328:
	.loc 1 343 0
	lwz 9,0(28)
	mr 31,3
.LVL530:
	mr 3,28
	lwz 0,12(9)
	mtctr 0
	bctrl
	b .L423
.LVL531:
.L440:
.LBE4328:
.LBE4327:
.LBE4326:
.LBE4331:
.LBE4370:
.LBB4371:
.LBB4372:
.LBB4373:
.LBB4374:
.LBB4375:
.LBB4376:
	.loc 1 105 0
	lis 9,_ZTVN7sigslot15single_threadedE+8@ha
	mr 3,31
	la 0,_ZTVN7sigslot15single_threadedE+8@l(9)
	stw 0,0(28)
.LEHB48:
	bl _Unwind_Resume
.LEHE48:
.LBE4376:
.LBE4375:
.LBE4374:
.LBE4373:
.LBE4372:
.LBE4371:
.LBE4381:
.LBE4386:
.LBE4391:
.LBE4396:
	.cfi_endproc
.LFE1519:
	.section	.gcc_except_table
.LLSDA1519:
	.byte	0xff
	.byte	0xff
	.byte	0x1
	.uleb128 .LLSDACSE1519-.LLSDACSB1519
.LLSDACSB1519:
	.uleb128 .LEHB45-.LFB1519
	.uleb128 .LEHE45-.LEHB45
	.uleb128 .L449-.LFB1519
	.uleb128 0
	.uleb128 .LEHB46-.LFB1519
	.uleb128 .LEHE46-.LEHB46
	.uleb128 .L450-.LFB1519
	.uleb128 0
	.uleb128 .LEHB47-.LFB1519
	.uleb128 .LEHE47-.LEHB47
	.uleb128 .L449-.LFB1519
	.uleb128 0
	.uleb128 .LEHB48-.LFB1519
	.uleb128 .LEHE48-.LEHB48
	.uleb128 0
	.uleb128 0
.LLSDACSE1519:
	.section	.text._ZN7sigslot7signal2IP4TaskiNS_15single_threadedEED2Ev,"axG",@progbits,_ZN7sigslot7signal2IP4TaskiNS_15single_threadedEED5Ev,comdat
	.size	_ZN7sigslot7signal2IP4TaskiNS_15single_threadedEED2Ev, .-_ZN7sigslot7signal2IP4TaskiNS_15single_threadedEED2Ev
	.section	.text._ZN7sigslot13_signal_base1IP4TaskNS_15single_threadedEED2Ev,"axG",@progbits,_ZN7sigslot13_signal_base1IP4TaskNS_15single_threadedEED5Ev,comdat
	.align 2
	.weak	_ZN7sigslot13_signal_base1IP4TaskNS_15single_threadedEED2Ev
	.type	_ZN7sigslot13_signal_base1IP4TaskNS_15single_threadedEED2Ev, @function
_ZN7sigslot13_signal_base1IP4TaskNS_15single_threadedEED2Ev:
.LFB1610:
	.loc 1 702 0
	.cfi_startproc
	.cfi_personality 0,__gxx_personality_v0
	.cfi_lsda 0,.LLSDA1610
.LVL532:
	mflr 0
	stwu 1,-40(1)
.LCFI85:
	.cfi_def_cfa_offset 40
	.cfi_register 65, 0
.LBB4543:
	.loc 1 705 0
	lis 9,_ZTVN7sigslot13_signal_base1IP4TaskNS_15single_threadedEEE+8@ha
.LBE4543:
	.loc 1 702 0
	stw 28,24(1)
	mr 28,3
	.cfi_offset 28, -16
	stw 0,44(1)
.LBB4626:
	.loc 1 705 0
	la 0,_ZTVN7sigslot13_signal_base1IP4TaskNS_15single_threadedEEE+8@l(9)
	.cfi_offset 65, 4
.LBE4626:
	.loc 1 702 0
	stw 29,28(1)
	addi 29,3,4
	.cfi_offset 29, -12
	stw 30,32(1)
	stw 31,36(1)
.LBB4627:
	.loc 1 705 0
	stw 0,0(3)
.LVL533:
.LEHB49:
.LBB4544:
.LBB4545:
.LBB4546:
.LBB4547:
	.loc 1 338 0
	.cfi_offset 31, -4
	.cfi_offset 30, -8
	bl _ZN7sigslot15single_threaded4lockEv
.LEHE49:
.LVL534:
.LBE4547:
.LBE4546:
.LBE4545:
	.loc 3 73 0
	mr 29,28
.LVL535:
	lwzu 31,4(29)
.LVL536:
.LBB4578:
	.loc 1 713 0
	cmpw 7,31,29
	beq- 7,.L458
.LVL537:
.L495:
	.loc 1 715 0
	lwz 3,8(31)
	lwz 9,0(3)
	lwz 0,8(9)
	mtctr 0
.LEHB50:
	bctrl
.LBB4548:
.LBB4549:
.LBB4550:
.LBB4551:
	.loc 1 338 0
	lwz 9,0(3)
.LBE4551:
.LBE4550:
.LBE4549:
.LBE4548:
	.loc 1 715 0
	mr 30,3
.LVL538:
	stw 28,8(1)
.LVL539:
.LBB4560:
.LBB4559:
.LBB4553:
.LBB4552:
	.loc 1 338 0
	lwz 0,8(9)
	mtctr 0
	bctrl
.LVL540:
.LBE4552:
.LBE4553:
.LBB4554:
.LBB4555:
	.loc 8 528 0
	addi 3,30,4
	addi 4,1,8
	bl _ZNSt8_Rb_treeIPN7sigslot12_signal_baseINS0_15single_threadedEEES4_St9_IdentityIS4_ESt4lessIS4_ESaIS4_EE5eraseERKS4_
.LVL541:
.LBE4555:
.LBE4554:
.LBB4556:
.LBB4557:
.LBB4558:
	.loc 1 343 0
	lwz 9,0(30)
	mr 3,30
	lwz 0,12(9)
	mtctr 0
	bctrl
.LVL542:
.LBE4558:
.LBE4557:
.LBE4556:
.LBE4559:
.LBE4560:
	.loc 1 716 0
	lwz 3,8(31)
	cmpwi 7,3,0
	beq- 7,.L460
	lwz 9,0(3)
	lwz 0,4(9)
	mtctr 0
	bctrl
.LEHE50:
.L460:
.LVL543:
.LBB4561:
.LBB4562:
	.loc 4 234 0
	lwz 31,0(31)
.LVL544:
.LBE4562:
.LBE4561:
	.loc 1 713 0
	cmpw 7,29,31
	bne+ 7,.L495
.LBE4578:
	.loc 3 73 0
	lwz 31,4(28)
.LVL545:
.LBB4579:
.LBB4563:
.LBB4564:
	.loc 4 1162 0
	cmpw 7,29,31
	bne+ 7,.L497
	b .L458
.LVL546:
.L490:
	.loc 4 1163 0
	mr 31,30
.LVL547:
.L497:
.LBB4565:
.LBB4566:
	.loc 9 112 0
	lwz 30,0(31)
.LVL548:
.LBB4567:
.LBB4568:
	.loc 4 1532 0
	mr 3,31
	bl _ZNSt8__detail15_List_node_base9_M_unhookEv
.LVL549:
.LBB4569:
.LBB4570:
.LBB4571:
	.loc 5 98 0
	mr 3,31
	bl _ZdlPv
.LVL550:
.LBE4571:
.LBE4570:
.LBE4569:
.LBE4568:
.LBE4567:
.LBE4566:
.LBE4565:
	.loc 4 1162 0
	cmpw 7,29,30
	bne+ 7,.L490
.LVL551:
.L458:
.LBE4564:
.LBE4563:
.LBB4572:
.LBB4573:
.LBB4574:
	.loc 1 343 0
	lwz 9,0(28)
	mr 3,28
	lwz 0,12(9)
	mtctr 0
.LEHB51:
	bctrl
.LEHE51:
.LVL552:
.LBE4574:
.LBE4573:
.LBE4572:
.LBE4579:
.LBE4544:
.LBB4581:
.LBB4582:
.LBB4583:
.LBB4584:
.LBB4585:
.LBB4586:
	.loc 9 70 0
	lwz 3,4(28)
.LVL553:
	.loc 9 71 0
	cmpw 7,3,29
	bne+ 7,.L499
	b .L476
.LVL554:
.L491:
	.loc 9 74 0
	mr 3,31
.LVL555:
.L499:
.LBB4587:
	lwz 31,0(3)
.LVL556:
.LBB4588:
.LBB4589:
.LBB4590:
	.loc 5 98 0
	bl _ZdlPv
.LVL557:
.LBE4590:
.LBE4589:
.LBE4588:
.LBE4587:
	.loc 9 71 0
	cmpw 7,31,29
	bne+ 7,.L491
.LVL558:
.L476:
.LBE4586:
.LBE4585:
.LBE4584:
.LBE4583:
.LBE4582:
.LBE4581:
.LBB4591:
.LBB4592:
.LBB4593:
.LBB4594:
.LBB4595:
.LBB4596:
	.loc 1 105 0
	lis 9,_ZTVN7sigslot15single_threadedE+8@ha
.LBE4596:
.LBE4595:
.LBE4594:
.LBE4593:
.LBE4592:
.LBE4591:
.LBE4627:
	.loc 1 705 0
	lwz 29,28(1)
.LVL559:
.LBB4628:
.LBB4607:
.LBB4605:
.LBB4603:
.LBB4601:
.LBB4599:
.LBB4597:
	.loc 1 105 0
	la 0,_ZTVN7sigslot15single_threadedE+8@l(9)
.LBE4597:
.LBE4599:
.LBE4601:
.LBE4603:
.LBE4605:
.LBE4607:
.LBE4628:
	.loc 1 705 0
	lwz 30,32(1)
.LBB4629:
.LBB4608:
.LBB4606:
.LBB4604:
.LBB4602:
.LBB4600:
.LBB4598:
	.loc 1 105 0
	stw 0,0(28)
.LBE4598:
.LBE4600:
.LBE4602:
.LBE4604:
.LBE4606:
.LBE4608:
.LBE4629:
	.loc 1 705 0
	lwz 0,44(1)
	lwz 28,24(1)
.LVL560:
	mtlr 0
	lwz 31,36(1)
	addi 1,1,40
	.cfi_remember_state
.LCFI86:
	.cfi_def_cfa_offset 0
	.cfi_restore 31
	.cfi_restore 30
	.cfi_restore 29
	.cfi_restore 28
	blr
.LVL561:
.L493:
.LCFI87:
	.cfi_restore_state
	mr 31,3
.L468:
.LVL562:
.LBB4630:
.LBB4609:
.LBB4610:
.LBB4611:
.LBB4612:
.LBB4613:
.LBB4614:
	.loc 9 70 0
	lwz 3,4(28)
.LVL563:
	.loc 9 71 0
	cmpw 7,3,29
	beq- 7,.L487
.LVL564:
.L500:
.LBB4615:
	.loc 9 74 0
	lwz 30,0(3)
.LVL565:
.LBB4616:
.LBB4617:
.LBB4618:
	.loc 5 98 0
	bl _ZdlPv
.LVL566:
.LBE4618:
.LBE4617:
.LBE4616:
.LBE4615:
	.loc 9 71 0
	cmpw 7,30,29
	beq- 7,.L487
	.loc 9 74 0
	mr 3,30
	b .L500
.LVL567:
.L494:
.LBE4614:
.LBE4613:
.LBE4612:
.LBE4611:
.LBE4610:
.LBE4609:
.LBB4619:
.LBB4580:
.LBB4575:
.LBB4576:
.LBB4577:
	.loc 1 343 0
	lwz 9,0(28)
	mr 31,3
.LVL568:
	mr 3,28
	lwz 0,12(9)
	mtctr 0
	bctrl
	b .L468
.LVL569:
.L487:
.LBE4577:
.LBE4576:
.LBE4575:
.LBE4580:
.LBE4619:
.LBB4620:
.LBB4621:
.LBB4622:
.LBB4623:
.LBB4624:
.LBB4625:
	.loc 1 105 0
	lis 9,_ZTVN7sigslot15single_threadedE+8@ha
	mr 3,31
	la 0,_ZTVN7sigslot15single_threadedE+8@l(9)
	stw 0,0(28)
.LEHB52:
	bl _Unwind_Resume
.LEHE52:
.LBE4625:
.LBE4624:
.LBE4623:
.LBE4622:
.LBE4621:
.LBE4620:
.LBE4630:
	.cfi_endproc
.LFE1610:
	.section	.gcc_except_table
.LLSDA1610:
	.byte	0xff
	.byte	0xff
	.byte	0x1
	.uleb128 .LLSDACSE1610-.LLSDACSB1610
.LLSDACSB1610:
	.uleb128 .LEHB49-.LFB1610
	.uleb128 .LEHE49-.LEHB49
	.uleb128 .L493-.LFB1610
	.uleb128 0
	.uleb128 .LEHB50-.LFB1610
	.uleb128 .LEHE50-.LEHB50
	.uleb128 .L494-.LFB1610
	.uleb128 0
	.uleb128 .LEHB51-.LFB1610
	.uleb128 .LEHE51-.LEHB51
	.uleb128 .L493-.LFB1610
	.uleb128 0
	.uleb128 .LEHB52-.LFB1610
	.uleb128 .LEHE52-.LEHB52
	.uleb128 0
	.uleb128 0
.LLSDACSE1610:
	.section	.text._ZN7sigslot13_signal_base1IP4TaskNS_15single_threadedEED2Ev,"axG",@progbits,_ZN7sigslot13_signal_base1IP4TaskNS_15single_threadedEED5Ev,comdat
	.size	_ZN7sigslot13_signal_base1IP4TaskNS_15single_threadedEED2Ev, .-_ZN7sigslot13_signal_base1IP4TaskNS_15single_threadedEED2Ev
	.section	.text._ZN7sigslot7signal2IP4TaskiNS_15single_threadedEED0Ev,"axG",@progbits,_ZN7sigslot7signal2IP4TaskiNS_15single_threadedEED5Ev,comdat
	.align 2
	.weak	_ZN7sigslot7signal2IP4TaskiNS_15single_threadedEED0Ev
	.type	_ZN7sigslot7signal2IP4TaskiNS_15single_threadedEED0Ev, @function
_ZN7sigslot7signal2IP4TaskiNS_15single_threadedEED0Ev:
.LFB1521:
	.loc 1 2235 0
	.cfi_startproc
	.cfi_personality 0,__gxx_personality_v0
	.cfi_lsda 0,.LLSDA1521
.LVL570:
	mflr 0
	stwu 1,-40(1)
.LCFI88:
	.cfi_def_cfa_offset 40
	.cfi_register 65, 0
.LBB4729:
.LBB4730:
.LBB4731:
.LBB4732:
.LBB4733:
.LBB4734:
	.loc 1 826 0
	lis 9,_ZTVN7sigslot13_signal_base2IP4TaskiNS_15single_threadedEEE+8@ha
.LBE4734:
.LBE4733:
.LBE4732:
.LBE4731:
.LBE4730:
.LBE4729:
	.loc 1 2235 0
	stw 28,24(1)
	mr 28,3
	.cfi_offset 28, -16
.LVL571:
	stw 0,44(1)
.LBB4831:
.LBB4827:
.LBB4823:
.LBB4819:
.LBB4815:
.LBB4811:
	.loc 1 826 0
	la 0,_ZTVN7sigslot13_signal_base2IP4TaskiNS_15single_threadedEEE+8@l(9)
	.cfi_offset 65, 4
.LBE4811:
.LBE4815:
.LBE4819:
.LBE4823:
.LBE4827:
.LBE4831:
	.loc 1 2235 0
	stw 29,28(1)
	addi 29,3,4
	.cfi_offset 29, -12
	stw 30,32(1)
	stw 31,36(1)
.LBB4832:
.LBB4828:
.LBB4824:
.LBB4820:
.LBB4816:
.LBB4812:
	.loc 1 826 0
	stw 0,0(3)
.LVL572:
.LEHB53:
.LBB4735:
.LBB4736:
.LBB4737:
.LBB4738:
	.loc 1 338 0
	.cfi_offset 31, -4
	.cfi_offset 30, -8
	bl _ZN7sigslot15single_threaded4lockEv
.LEHE53:
.LVL573:
.LBE4738:
.LBE4737:
.LBE4736:
	.loc 3 73 0
	mr 29,28
.LVL574:
	lwzu 31,4(29)
.LVL575:
.LBB4769:
	.loc 1 834 0
	cmpw 7,31,29
	beq- 7,.L502
.LVL576:
.L541:
	.loc 1 836 0
	lwz 3,8(31)
	lwz 9,0(3)
	lwz 0,8(9)
	mtctr 0
.LEHB54:
	bctrl
.LBB4739:
.LBB4740:
.LBB4741:
.LBB4742:
	.loc 1 338 0
	lwz 9,0(3)
.LBE4742:
.LBE4741:
.LBE4740:
.LBE4739:
	.loc 1 836 0
	mr 30,3
.LVL577:
	stw 28,8(1)
.LVL578:
.LBB4751:
.LBB4750:
.LBB4744:
.LBB4743:
	.loc 1 338 0
	lwz 0,8(9)
	mtctr 0
	bctrl
.LVL579:
.LBE4743:
.LBE4744:
.LBB4745:
.LBB4746:
	.loc 8 528 0
	addi 3,30,4
	addi 4,1,8
	bl _ZNSt8_Rb_treeIPN7sigslot12_signal_baseINS0_15single_threadedEEES4_St9_IdentityIS4_ESt4lessIS4_ESaIS4_EE5eraseERKS4_
.LVL580:
.LBE4746:
.LBE4745:
.LBB4747:
.LBB4748:
.LBB4749:
	.loc 1 343 0
	lwz 9,0(30)
	mr 3,30
	lwz 0,12(9)
	mtctr 0
	bctrl
.LVL581:
.LBE4749:
.LBE4748:
.LBE4747:
.LBE4750:
.LBE4751:
	.loc 1 837 0
	lwz 3,8(31)
	cmpwi 7,3,0
	beq- 7,.L504
	lwz 9,0(3)
	lwz 0,4(9)
	mtctr 0
	bctrl
.LEHE54:
.L504:
.LVL582:
.LBB4752:
.LBB4753:
	.loc 4 234 0
	lwz 31,0(31)
.LVL583:
.LBE4753:
.LBE4752:
	.loc 1 834 0
	cmpw 7,29,31
	bne+ 7,.L541
.LBE4769:
	.loc 3 73 0
	lwz 31,4(28)
.LVL584:
.LBB4770:
.LBB4754:
.LBB4755:
	.loc 4 1162 0
	cmpw 7,29,31
	bne+ 7,.L543
	b .L502
.LVL585:
.L536:
	.loc 4 1163 0
	mr 31,30
.LVL586:
.L543:
.LBB4756:
.LBB4757:
	.loc 9 112 0
	lwz 30,0(31)
.LVL587:
.LBB4758:
.LBB4759:
	.loc 4 1532 0
	mr 3,31
	bl _ZNSt8__detail15_List_node_base9_M_unhookEv
.LVL588:
.LBB4760:
.LBB4761:
.LBB4762:
	.loc 5 98 0
	mr 3,31
	bl _ZdlPv
.LVL589:
.LBE4762:
.LBE4761:
.LBE4760:
.LBE4759:
.LBE4758:
.LBE4757:
.LBE4756:
	.loc 4 1162 0
	cmpw 7,29,30
	bne+ 7,.L536
.LVL590:
.L502:
.LBE4755:
.LBE4754:
.LBB4763:
.LBB4764:
.LBB4765:
	.loc 1 343 0
	lwz 9,0(28)
	mr 3,28
	lwz 0,12(9)
	mtctr 0
.LEHB55:
	bctrl
.LEHE55:
.LBE4765:
.LBE4764:
.LBE4763:
.LBE4770:
.LBE4735:
.LBB4772:
.LBB4773:
.LBB4774:
.LBB4775:
.LBB4776:
.LBB4777:
	.loc 9 70 0
	lwz 3,4(28)
.LVL591:
	.loc 9 71 0
	cmpw 7,3,29
	bne+ 7,.L545
	b .L520
.LVL592:
.L537:
	.loc 9 74 0
	mr 3,31
.LVL593:
.L545:
.LBB4778:
	lwz 31,0(3)
.LVL594:
.LBB4779:
.LBB4780:
.LBB4781:
	.loc 5 98 0
	bl _ZdlPv
.LVL595:
.LBE4781:
.LBE4780:
.LBE4779:
.LBE4778:
	.loc 9 71 0
	cmpw 7,31,29
	bne+ 7,.L537
.LVL596:
.L520:
.LBE4777:
.LBE4776:
.LBE4775:
.LBE4774:
.LBE4773:
.LBE4772:
.LBB4782:
.LBB4783:
.LBB4784:
.LBB4785:
.LBB4786:
.LBB4787:
	.loc 1 105 0
	lis 9,_ZTVN7sigslot15single_threadedE+8@ha
.LBE4787:
.LBE4786:
.LBE4785:
.LBE4784:
.LBE4783:
.LBE4782:
.LBE4812:
.LBE4816:
.LBE4820:
.LBE4824:
.LBE4828:
.LBE4832:
	.loc 1 2238 0
	mr 3,28
.LBB4833:
.LBB4829:
.LBB4825:
.LBB4821:
.LBB4817:
.LBB4813:
.LBB4793:
.LBB4792:
.LBB4791:
.LBB4790:
.LBB4789:
.LBB4788:
	.loc 1 105 0
	la 0,_ZTVN7sigslot15single_threadedE+8@l(9)
	stw 0,0(28)
.LBE4788:
.LBE4789:
.LBE4790:
.LBE4791:
.LBE4792:
.LBE4793:
.LBE4813:
.LBE4817:
.LBE4821:
.LBE4825:
.LBE4829:
.LBE4833:
	.loc 1 2238 0
	bl _ZdlPv
	lwz 0,44(1)
	lwz 28,24(1)
.LVL597:
	mtlr 0
	lwz 29,28(1)
.LVL598:
	lwz 30,32(1)
	lwz 31,36(1)
	addi 1,1,40
	.cfi_remember_state
.LCFI89:
	.cfi_def_cfa_offset 0
	.cfi_restore 31
	.cfi_restore 30
	.cfi_restore 29
	.cfi_restore 28
	blr
.LVL599:
.L539:
.LCFI90:
	.cfi_restore_state
	mr 31,3
.L512:
.LBB4834:
.LBB4830:
.LBB4826:
.LBB4822:
.LBB4818:
.LBB4814:
.LBB4794:
.LBB4795:
.LBB4796:
.LBB4797:
.LBB4798:
.LBB4799:
	.loc 9 70 0
	lwz 3,4(28)
.LVL600:
	.loc 9 71 0
	cmpw 7,3,29
	beq- 7,.L529
.LVL601:
.L546:
.LBB4800:
	.loc 9 74 0
	lwz 30,0(3)
.LVL602:
.LBB4801:
.LBB4802:
.LBB4803:
	.loc 5 98 0
	bl _ZdlPv
.LVL603:
.LBE4803:
.LBE4802:
.LBE4801:
.LBE4800:
	.loc 9 71 0
	cmpw 7,30,29
	beq- 7,.L529
	.loc 9 74 0
	mr 3,30
	b .L546
.LVL604:
.L540:
.LBE4799:
.LBE4798:
.LBE4797:
.LBE4796:
.LBE4795:
.LBE4794:
.LBB4804:
.LBB4771:
.LBB4766:
.LBB4767:
.LBB4768:
	.loc 1 343 0
	lwz 9,0(28)
	mr 31,3
.LVL605:
	mr 3,28
	lwz 0,12(9)
	mtctr 0
	bctrl
	b .L512
.LVL606:
.L529:
.LBE4768:
.LBE4767:
.LBE4766:
.LBE4771:
.LBE4804:
.LBB4805:
.LBB4806:
.LBB4807:
.LBB4808:
.LBB4809:
.LBB4810:
	.loc 1 105 0
	lis 9,_ZTVN7sigslot15single_threadedE+8@ha
	mr 3,31
	la 0,_ZTVN7sigslot15single_threadedE+8@l(9)
	stw 0,0(28)
.LEHB56:
	bl _Unwind_Resume
.LEHE56:
.LBE4810:
.LBE4809:
.LBE4808:
.LBE4807:
.LBE4806:
.LBE4805:
.LBE4814:
.LBE4818:
.LBE4822:
.LBE4826:
.LBE4830:
.LBE4834:
	.cfi_endproc
.LFE1521:
	.section	.gcc_except_table
.LLSDA1521:
	.byte	0xff
	.byte	0xff
	.byte	0x1
	.uleb128 .LLSDACSE1521-.LLSDACSB1521
.LLSDACSB1521:
	.uleb128 .LEHB53-.LFB1521
	.uleb128 .LEHE53-.LEHB53
	.uleb128 .L539-.LFB1521
	.uleb128 0
	.uleb128 .LEHB54-.LFB1521
	.uleb128 .LEHE54-.LEHB54
	.uleb128 .L540-.LFB1521
	.uleb128 0
	.uleb128 .LEHB55-.LFB1521
	.uleb128 .LEHE55-.LEHB55
	.uleb128 .L539-.LFB1521
	.uleb128 0
	.uleb128 .LEHB56-.LFB1521
	.uleb128 .LEHE56-.LEHB56
	.uleb128 0
	.uleb128 0
.LLSDACSE1521:
	.section	.text._ZN7sigslot7signal2IP4TaskiNS_15single_threadedEED0Ev,"axG",@progbits,_ZN7sigslot7signal2IP4TaskiNS_15single_threadedEED5Ev,comdat
	.size	_ZN7sigslot7signal2IP4TaskiNS_15single_threadedEED0Ev, .-_ZN7sigslot7signal2IP4TaskiNS_15single_threadedEED0Ev
	.section	.text._ZN7sigslot13_signal_base2IP4TaskiNS_15single_threadedEED2Ev,"axG",@progbits,_ZN7sigslot13_signal_base2IP4TaskiNS_15single_threadedEED5Ev,comdat
	.align 2
	.weak	_ZN7sigslot13_signal_base2IP4TaskiNS_15single_threadedEED2Ev
	.type	_ZN7sigslot13_signal_base2IP4TaskiNS_15single_threadedEED2Ev, @function
_ZN7sigslot13_signal_base2IP4TaskiNS_15single_threadedEED2Ev:
.LFB1600:
	.loc 1 823 0
	.cfi_startproc
	.cfi_personality 0,__gxx_personality_v0
	.cfi_lsda 0,.LLSDA1600
.LVL607:
	mflr 0
	stwu 1,-40(1)
.LCFI91:
	.cfi_def_cfa_offset 40
	.cfi_register 65, 0
.LBB4981:
	.loc 1 826 0
	lis 9,_ZTVN7sigslot13_signal_base2IP4TaskiNS_15single_threadedEEE+8@ha
.LBE4981:
	.loc 1 823 0
	stw 28,24(1)
	mr 28,3
	.cfi_offset 28, -16
	stw 0,44(1)
.LBB5064:
	.loc 1 826 0
	la 0,_ZTVN7sigslot13_signal_base2IP4TaskiNS_15single_threadedEEE+8@l(9)
	.cfi_offset 65, 4
.LBE5064:
	.loc 1 823 0
	stw 29,28(1)
	addi 29,3,4
	.cfi_offset 29, -12
	stw 30,32(1)
	stw 31,36(1)
.LBB5065:
	.loc 1 826 0
	stw 0,0(3)
.LVL608:
.LEHB57:
.LBB4982:
.LBB4983:
.LBB4984:
.LBB4985:
	.loc 1 338 0
	.cfi_offset 31, -4
	.cfi_offset 30, -8
	bl _ZN7sigslot15single_threaded4lockEv
.LEHE57:
.LVL609:
.LBE4985:
.LBE4984:
.LBE4983:
	.loc 3 73 0
	mr 29,28
.LVL610:
	lwzu 31,4(29)
.LVL611:
.LBB5016:
	.loc 1 834 0
	cmpw 7,31,29
	beq- 7,.L548
.LVL612:
.L585:
	.loc 1 836 0
	lwz 3,8(31)
	lwz 9,0(3)
	lwz 0,8(9)
	mtctr 0
.LEHB58:
	bctrl
.LBB4986:
.LBB4987:
.LBB4988:
.LBB4989:
	.loc 1 338 0
	lwz 9,0(3)
.LBE4989:
.LBE4988:
.LBE4987:
.LBE4986:
	.loc 1 836 0
	mr 30,3
.LVL613:
	stw 28,8(1)
.LVL614:
.LBB4998:
.LBB4997:
.LBB4991:
.LBB4990:
	.loc 1 338 0
	lwz 0,8(9)
	mtctr 0
	bctrl
.LVL615:
.LBE4990:
.LBE4991:
.LBB4992:
.LBB4993:
	.loc 8 528 0
	addi 3,30,4
	addi 4,1,8
	bl _ZNSt8_Rb_treeIPN7sigslot12_signal_baseINS0_15single_threadedEEES4_St9_IdentityIS4_ESt4lessIS4_ESaIS4_EE5eraseERKS4_
.LVL616:
.LBE4993:
.LBE4992:
.LBB4994:
.LBB4995:
.LBB4996:
	.loc 1 343 0
	lwz 9,0(30)
	mr 3,30
	lwz 0,12(9)
	mtctr 0
	bctrl
.LVL617:
.LBE4996:
.LBE4995:
.LBE4994:
.LBE4997:
.LBE4998:
	.loc 1 837 0
	lwz 3,8(31)
	cmpwi 7,3,0
	beq- 7,.L550
	lwz 9,0(3)
	lwz 0,4(9)
	mtctr 0
	bctrl
.LEHE58:
.L550:
.LVL618:
.LBB4999:
.LBB5000:
	.loc 4 234 0
	lwz 31,0(31)
.LVL619:
.LBE5000:
.LBE4999:
	.loc 1 834 0
	cmpw 7,29,31
	bne+ 7,.L585
.LBE5016:
	.loc 3 73 0
	lwz 31,4(28)
.LVL620:
.LBB5017:
.LBB5001:
.LBB5002:
	.loc 4 1162 0
	cmpw 7,29,31
	bne+ 7,.L587
	b .L548
.LVL621:
.L580:
	.loc 4 1163 0
	mr 31,30
.LVL622:
.L587:
.LBB5003:
.LBB5004:
	.loc 9 112 0
	lwz 30,0(31)
.LVL623:
.LBB5005:
.LBB5006:
	.loc 4 1532 0
	mr 3,31
	bl _ZNSt8__detail15_List_node_base9_M_unhookEv
.LVL624:
.LBB5007:
.LBB5008:
.LBB5009:
	.loc 5 98 0
	mr 3,31
	bl _ZdlPv
.LVL625:
.LBE5009:
.LBE5008:
.LBE5007:
.LBE5006:
.LBE5005:
.LBE5004:
.LBE5003:
	.loc 4 1162 0
	cmpw 7,29,30
	bne+ 7,.L580
.LVL626:
.L548:
.LBE5002:
.LBE5001:
.LBB5010:
.LBB5011:
.LBB5012:
	.loc 1 343 0
	lwz 9,0(28)
	mr 3,28
	lwz 0,12(9)
	mtctr 0
.LEHB59:
	bctrl
.LEHE59:
.LVL627:
.LBE5012:
.LBE5011:
.LBE5010:
.LBE5017:
.LBE4982:
.LBB5019:
.LBB5020:
.LBB5021:
.LBB5022:
.LBB5023:
.LBB5024:
	.loc 9 70 0
	lwz 3,4(28)
.LVL628:
	.loc 9 71 0
	cmpw 7,3,29
	bne+ 7,.L589
	b .L566
.LVL629:
.L581:
	.loc 9 74 0
	mr 3,31
.LVL630:
.L589:
.LBB5025:
	lwz 31,0(3)
.LVL631:
.LBB5026:
.LBB5027:
.LBB5028:
	.loc 5 98 0
	bl _ZdlPv
.LVL632:
.LBE5028:
.LBE5027:
.LBE5026:
.LBE5025:
	.loc 9 71 0
	cmpw 7,31,29
	bne+ 7,.L581
.LVL633:
.L566:
.LBE5024:
.LBE5023:
.LBE5022:
.LBE5021:
.LBE5020:
.LBE5019:
.LBB5029:
.LBB5030:
.LBB5031:
.LBB5032:
.LBB5033:
.LBB5034:
	.loc 1 105 0
	lis 9,_ZTVN7sigslot15single_threadedE+8@ha
.LBE5034:
.LBE5033:
.LBE5032:
.LBE5031:
.LBE5030:
.LBE5029:
.LBE5065:
	.loc 1 826 0
	lwz 29,28(1)
.LVL634:
.LBB5066:
.LBB5045:
.LBB5043:
.LBB5041:
.LBB5039:
.LBB5037:
.LBB5035:
	.loc 1 105 0
	la 0,_ZTVN7sigslot15single_threadedE+8@l(9)
.LBE5035:
.LBE5037:
.LBE5039:
.LBE5041:
.LBE5043:
.LBE5045:
.LBE5066:
	.loc 1 826 0
	lwz 30,32(1)
.LBB5067:
.LBB5046:
.LBB5044:
.LBB5042:
.LBB5040:
.LBB5038:
.LBB5036:
	.loc 1 105 0
	stw 0,0(28)
.LBE5036:
.LBE5038:
.LBE5040:
.LBE5042:
.LBE5044:
.LBE5046:
.LBE5067:
	.loc 1 826 0
	lwz 0,44(1)
	lwz 28,24(1)
.LVL635:
	mtlr 0
	lwz 31,36(1)
	addi 1,1,40
	.cfi_remember_state
.LCFI92:
	.cfi_def_cfa_offset 0
	.cfi_restore 31
	.cfi_restore 30
	.cfi_restore 29
	.cfi_restore 28
	blr
.LVL636:
.L583:
.LCFI93:
	.cfi_restore_state
	mr 31,3
.L558:
.LVL637:
.LBB5068:
.LBB5047:
.LBB5048:
.LBB5049:
.LBB5050:
.LBB5051:
.LBB5052:
	.loc 9 70 0
	lwz 3,4(28)
.LVL638:
	.loc 9 71 0
	cmpw 7,3,29
	beq- 7,.L577
.LVL639:
.L590:
.LBB5053:
	.loc 9 74 0
	lwz 30,0(3)
.LVL640:
.LBB5054:
.LBB5055:
.LBB5056:
	.loc 5 98 0
	bl _ZdlPv
.LVL641:
.LBE5056:
.LBE5055:
.LBE5054:
.LBE5053:
	.loc 9 71 0
	cmpw 7,30,29
	beq- 7,.L577
	.loc 9 74 0
	mr 3,30
	b .L590
.LVL642:
.L584:
.LBE5052:
.LBE5051:
.LBE5050:
.LBE5049:
.LBE5048:
.LBE5047:
.LBB5057:
.LBB5018:
.LBB5013:
.LBB5014:
.LBB5015:
	.loc 1 343 0
	lwz 9,0(28)
	mr 31,3
.LVL643:
	mr 3,28
	lwz 0,12(9)
	mtctr 0
	bctrl
	b .L558
.LVL644:
.L577:
.LBE5015:
.LBE5014:
.LBE5013:
.LBE5018:
.LBE5057:
.LBB5058:
.LBB5059:
.LBB5060:
.LBB5061:
.LBB5062:
.LBB5063:
	.loc 1 105 0
	lis 9,_ZTVN7sigslot15single_threadedE+8@ha
	mr 3,31
	la 0,_ZTVN7sigslot15single_threadedE+8@l(9)
	stw 0,0(28)
.LEHB60:
	bl _Unwind_Resume
.LEHE60:
.LBE5063:
.LBE5062:
.LBE5061:
.LBE5060:
.LBE5059:
.LBE5058:
.LBE5068:
	.cfi_endproc
.LFE1600:
	.section	.gcc_except_table
.LLSDA1600:
	.byte	0xff
	.byte	0xff
	.byte	0x1
	.uleb128 .LLSDACSE1600-.LLSDACSB1600
.LLSDACSB1600:
	.uleb128 .LEHB57-.LFB1600
	.uleb128 .LEHE57-.LEHB57
	.uleb128 .L583-.LFB1600
	.uleb128 0
	.uleb128 .LEHB58-.LFB1600
	.uleb128 .LEHE58-.LEHB58
	.uleb128 .L584-.LFB1600
	.uleb128 0
	.uleb128 .LEHB59-.LFB1600
	.uleb128 .LEHE59-.LEHB59
	.uleb128 .L583-.LFB1600
	.uleb128 0
	.uleb128 .LEHB60-.LFB1600
	.uleb128 .LEHE60-.LEHB60
	.uleb128 0
	.uleb128 0
.LLSDACSE1600:
	.section	.text._ZN7sigslot13_signal_base2IP4TaskiNS_15single_threadedEED2Ev,"axG",@progbits,_ZN7sigslot13_signal_base2IP4TaskiNS_15single_threadedEED5Ev,comdat
	.size	_ZN7sigslot13_signal_base2IP4TaskiNS_15single_threadedEED2Ev, .-_ZN7sigslot13_signal_base2IP4TaskiNS_15single_threadedEED2Ev
	.section	.text._ZN7sigslot7signal1IP4TaskNS_15single_threadedEED2Ev,"axG",@progbits,_ZN7sigslot7signal1IP4TaskNS_15single_threadedEED5Ev,comdat
	.align 2
	.weak	_ZN7sigslot7signal1IP4TaskNS_15single_threadedEED2Ev
	.type	_ZN7sigslot7signal1IP4TaskNS_15single_threadedEED2Ev, @function
_ZN7sigslot7signal1IP4TaskNS_15single_threadedEED2Ev:
.LFB1526:
	.loc 1 2169 0
	.cfi_startproc
	.cfi_personality 0,__gxx_personality_v0
	.cfi_lsda 0,.LLSDA1526
.LVL645:
	mflr 0
	stwu 1,-40(1)
.LCFI94:
	.cfi_def_cfa_offset 40
	.cfi_register 65, 0
.LBB5166:
.LBB5167:
.LBB5168:
.LBB5169:
	.loc 1 705 0
	lis 9,_ZTVN7sigslot13_signal_base1IP4TaskNS_15single_threadedEEE+8@ha
.LBE5169:
.LBE5168:
.LBE5167:
.LBE5166:
	.loc 1 2169 0
	stw 28,24(1)
	mr 28,3
	.cfi_offset 28, -16
.LVL646:
	stw 0,44(1)
.LBB5267:
.LBB5262:
.LBB5257:
.LBB5252:
	.loc 1 705 0
	la 0,_ZTVN7sigslot13_signal_base1IP4TaskNS_15single_threadedEEE+8@l(9)
	.cfi_offset 65, 4
.LBE5252:
.LBE5257:
.LBE5262:
.LBE5267:
	.loc 1 2169 0
	stw 29,28(1)
	addi 29,3,4
	.cfi_offset 29, -12
	stw 30,32(1)
	stw 31,36(1)
.LBB5268:
.LBB5263:
.LBB5258:
.LBB5253:
	.loc 1 705 0
	stw 0,0(3)
.LVL647:
.LEHB61:
.LBB5170:
.LBB5171:
.LBB5172:
.LBB5173:
	.loc 1 338 0
	.cfi_offset 31, -4
	.cfi_offset 30, -8
	bl _ZN7sigslot15single_threaded4lockEv
.LEHE61:
.LVL648:
.LBE5173:
.LBE5172:
.LBE5171:
	.loc 3 73 0
	mr 29,28
.LVL649:
	lwzu 31,4(29)
.LVL650:
.LBB5204:
	.loc 1 713 0
	cmpw 7,31,29
	beq- 7,.L592
.LVL651:
.L630:
	.loc 1 715 0
	lwz 3,8(31)
	lwz 9,0(3)
	lwz 0,8(9)
	mtctr 0
.LEHB62:
	bctrl
.LBB5174:
.LBB5175:
.LBB5176:
.LBB5177:
	.loc 1 338 0
	lwz 9,0(3)
.LBE5177:
.LBE5176:
.LBE5175:
.LBE5174:
	.loc 1 715 0
	mr 30,3
.LVL652:
	stw 28,8(1)
.LVL653:
.LBB5186:
.LBB5185:
.LBB5179:
.LBB5178:
	.loc 1 338 0
	lwz 0,8(9)
	mtctr 0
	bctrl
.LVL654:
.LBE5178:
.LBE5179:
.LBB5180:
.LBB5181:
	.loc 8 528 0
	addi 3,30,4
	addi 4,1,8
	bl _ZNSt8_Rb_treeIPN7sigslot12_signal_baseINS0_15single_threadedEEES4_St9_IdentityIS4_ESt4lessIS4_ESaIS4_EE5eraseERKS4_
.LVL655:
.LBE5181:
.LBE5180:
.LBB5182:
.LBB5183:
.LBB5184:
	.loc 1 343 0
	lwz 9,0(30)
	mr 3,30
	lwz 0,12(9)
	mtctr 0
	bctrl
.LVL656:
.LBE5184:
.LBE5183:
.LBE5182:
.LBE5185:
.LBE5186:
	.loc 1 716 0
	lwz 3,8(31)
	cmpwi 7,3,0
	beq- 7,.L594
	lwz 9,0(3)
	lwz 0,4(9)
	mtctr 0
	bctrl
.LEHE62:
.L594:
.LVL657:
.LBB5187:
.LBB5188:
	.loc 4 234 0
	lwz 31,0(31)
.LVL658:
.LBE5188:
.LBE5187:
	.loc 1 713 0
	cmpw 7,29,31
	bne+ 7,.L630
.LBE5204:
	.loc 3 73 0
	lwz 31,4(28)
.LVL659:
.LBB5205:
.LBB5189:
.LBB5190:
	.loc 4 1162 0
	cmpw 7,29,31
	bne+ 7,.L632
	b .L592
.LVL660:
.L625:
	.loc 4 1163 0
	mr 31,30
.LVL661:
.L632:
.LBB5191:
.LBB5192:
	.loc 9 112 0
	lwz 30,0(31)
.LVL662:
.LBB5193:
.LBB5194:
	.loc 4 1532 0
	mr 3,31
	bl _ZNSt8__detail15_List_node_base9_M_unhookEv
.LVL663:
.LBB5195:
.LBB5196:
.LBB5197:
	.loc 5 98 0
	mr 3,31
	bl _ZdlPv
.LVL664:
.LBE5197:
.LBE5196:
.LBE5195:
.LBE5194:
.LBE5193:
.LBE5192:
.LBE5191:
	.loc 4 1162 0
	cmpw 7,29,30
	bne+ 7,.L625
.LVL665:
.L592:
.LBE5190:
.LBE5189:
.LBB5198:
.LBB5199:
.LBB5200:
	.loc 1 343 0
	lwz 9,0(28)
	mr 3,28
	lwz 0,12(9)
	mtctr 0
.LEHB63:
	bctrl
.LEHE63:
.LBE5200:
.LBE5199:
.LBE5198:
.LBE5205:
.LBE5170:
.LBB5207:
.LBB5208:
.LBB5209:
.LBB5210:
.LBB5211:
.LBB5212:
	.loc 9 70 0
	lwz 3,4(28)
.LVL666:
	.loc 9 71 0
	cmpw 7,3,29
	bne+ 7,.L634
	b .L610
.LVL667:
.L626:
	.loc 9 74 0
	mr 3,31
.LVL668:
.L634:
.LBB5213:
	lwz 31,0(3)
.LVL669:
.LBB5214:
.LBB5215:
.LBB5216:
	.loc 5 98 0
	bl _ZdlPv
.LVL670:
.LBE5216:
.LBE5215:
.LBE5214:
.LBE5213:
	.loc 9 71 0
	cmpw 7,31,29
	bne+ 7,.L626
.LVL671:
.L610:
.LBE5212:
.LBE5211:
.LBE5210:
.LBE5209:
.LBE5208:
.LBE5207:
.LBB5217:
.LBB5218:
.LBB5219:
.LBB5220:
.LBB5221:
.LBB5222:
	.loc 1 105 0
	lis 9,_ZTVN7sigslot15single_threadedE+8@ha
.LBE5222:
.LBE5221:
.LBE5220:
.LBE5219:
.LBE5218:
.LBE5217:
.LBE5253:
.LBE5258:
.LBE5263:
.LBE5268:
	.loc 1 2172 0
	lwz 29,28(1)
.LVL672:
.LBB5269:
.LBB5264:
.LBB5259:
.LBB5254:
.LBB5233:
.LBB5231:
.LBB5229:
.LBB5227:
.LBB5225:
.LBB5223:
	.loc 1 105 0
	la 0,_ZTVN7sigslot15single_threadedE+8@l(9)
.LBE5223:
.LBE5225:
.LBE5227:
.LBE5229:
.LBE5231:
.LBE5233:
.LBE5254:
.LBE5259:
.LBE5264:
.LBE5269:
	.loc 1 2172 0
	lwz 30,32(1)
.LBB5270:
.LBB5265:
.LBB5260:
.LBB5255:
.LBB5234:
.LBB5232:
.LBB5230:
.LBB5228:
.LBB5226:
.LBB5224:
	.loc 1 105 0
	stw 0,0(28)
.LBE5224:
.LBE5226:
.LBE5228:
.LBE5230:
.LBE5232:
.LBE5234:
.LBE5255:
.LBE5260:
.LBE5265:
.LBE5270:
	.loc 1 2172 0
	lwz 0,44(1)
	lwz 28,24(1)
.LVL673:
	mtlr 0
	lwz 31,36(1)
	addi 1,1,40
	.cfi_remember_state
.LCFI95:
	.cfi_def_cfa_offset 0
	.cfi_restore 31
	.cfi_restore 30
	.cfi_restore 29
	.cfi_restore 28
	blr
.LVL674:
.L628:
.LCFI96:
	.cfi_restore_state
	mr 31,3
.L602:
.LBB5271:
.LBB5266:
.LBB5261:
.LBB5256:
.LBB5235:
.LBB5236:
.LBB5237:
.LBB5238:
.LBB5239:
.LBB5240:
	.loc 9 70 0
	lwz 3,4(28)
.LVL675:
	.loc 9 71 0
	cmpw 7,3,29
	beq- 7,.L619
.LVL676:
.L635:
.LBB5241:
	.loc 9 74 0
	lwz 30,0(3)
.LVL677:
.LBB5242:
.LBB5243:
.LBB5244:
	.loc 5 98 0
	bl _ZdlPv
.LVL678:
.LBE5244:
.LBE5243:
.LBE5242:
.LBE5241:
	.loc 9 71 0
	cmpw 7,30,29
	beq- 7,.L619
	.loc 9 74 0
	mr 3,30
	b .L635
.LVL679:
.L629:
.LBE5240:
.LBE5239:
.LBE5238:
.LBE5237:
.LBE5236:
.LBE5235:
.LBB5245:
.LBB5206:
.LBB5201:
.LBB5202:
.LBB5203:
	.loc 1 343 0
	lwz 9,0(28)
	mr 31,3
.LVL680:
	mr 3,28
	lwz 0,12(9)
	mtctr 0
	bctrl
	b .L602
.LVL681:
.L619:
.LBE5203:
.LBE5202:
.LBE5201:
.LBE5206:
.LBE5245:
.LBB5246:
.LBB5247:
.LBB5248:
.LBB5249:
.LBB5250:
.LBB5251:
	.loc 1 105 0
	lis 9,_ZTVN7sigslot15single_threadedE+8@ha
	mr 3,31
	la 0,_ZTVN7sigslot15single_threadedE+8@l(9)
	stw 0,0(28)
.LEHB64:
	bl _Unwind_Resume
.LEHE64:
.LBE5251:
.LBE5250:
.LBE5249:
.LBE5248:
.LBE5247:
.LBE5246:
.LBE5256:
.LBE5261:
.LBE5266:
.LBE5271:
	.cfi_endproc
.LFE1526:
	.section	.gcc_except_table
.LLSDA1526:
	.byte	0xff
	.byte	0xff
	.byte	0x1
	.uleb128 .LLSDACSE1526-.LLSDACSB1526
.LLSDACSB1526:
	.uleb128 .LEHB61-.LFB1526
	.uleb128 .LEHE61-.LEHB61
	.uleb128 .L628-.LFB1526
	.uleb128 0
	.uleb128 .LEHB62-.LFB1526
	.uleb128 .LEHE62-.LEHB62
	.uleb128 .L629-.LFB1526
	.uleb128 0
	.uleb128 .LEHB63-.LFB1526
	.uleb128 .LEHE63-.LEHB63
	.uleb128 .L628-.LFB1526
	.uleb128 0
	.uleb128 .LEHB64-.LFB1526
	.uleb128 .LEHE64-.LEHB64
	.uleb128 0
	.uleb128 0
.LLSDACSE1526:
	.section	.text._ZN7sigslot7signal1IP4TaskNS_15single_threadedEED2Ev,"axG",@progbits,_ZN7sigslot7signal1IP4TaskNS_15single_threadedEED5Ev,comdat
	.size	_ZN7sigslot7signal1IP4TaskNS_15single_threadedEED2Ev, .-_ZN7sigslot7signal1IP4TaskNS_15single_threadedEED2Ev
	.section	".text"
	.align 2
	.globl _ZN4TaskC2ERKSs
	.type	_ZN4TaskC2ERKSs, @function
_ZN4TaskC2ERKSs:
.LFB1467:
	.loc 3 28 0
	.cfi_startproc
	.cfi_personality 0,__gxx_personality_v0
	.cfi_lsda 0,.LLSDA1467
.LVL682:
	stwu 1,-48(1)
.LCFI97:
	.cfi_def_cfa_offset 48
	mflr 0
.LBB5272:
	.loc 3 29 0
	li 5,44
.LBE5272:
	.loc 3 28 0
	stw 29,36(1)
	mr 29,4
	.cfi_offset 29, -12
	.cfi_register 65, 0
	stw 31,44(1)
.LBB5398:
	.loc 3 29 0
	li 4,100
.LVL683:
.LBE5398:
	.loc 3 28 0
	mr 31,3
	.cfi_offset 31, -4
	stw 0,52(1)
	stw 28,32(1)
	stw 30,40(1)
.LBB5399:
	.loc 3 35 0
	li 30,0
	.cfi_offset 30, -8
	.cfi_offset 28, -16
	.cfi_offset 65, 4
.LBE5399:
	.loc 3 28 0
	stw 27,28(1)
.LEHB65:
.LBB5400:
	.loc 3 29 0
	.cfi_offset 27, -20
	bl _ZN9GuiButtonC2Eii
.LEHE65:
.LVL684:
.LBB5273:
.LBB5274:
.LBB5275:
.LBB5276:
.LBB5277:
.LBB5278:
.LBB5279:
.LBB5280:
	.loc 4 380 0
	addi 7,31,344
.LBE5280:
.LBE5279:
.LBE5278:
.LBE5277:
.LBE5276:
.LBE5275:
.LBE5274:
.LBE5273:
	.loc 3 29 0
	lis 6,_ZTV4Task+8@ha
.LBB5290:
.LBB5291:
.LBB5292:
.LBB5293:
.LBB5294:
.LBB5295:
	.loc 7 445 0
	li 0,0
.LBE5295:
.LBE5294:
.LBE5293:
.LBE5292:
.LBE5291:
.LBE5290:
	.loc 3 29 0
	la 6,_ZTV4Task+8@l(6)
.LBB5327:
.LBB5328:
	.loc 1 2159 0
	lis 9,_ZTVN7sigslot7signal1IP4TaskNS_15single_threadedEEE+8@ha
.LBE5328:
.LBE5327:
.LBB5344:
.LBB5287:
.LBB5286:
.LBB5285:
.LBB5284:
.LBB5283:
.LBB5282:
.LBB5281:
	.loc 4 380 0
	stw 7,344(31)
	.loc 4 381 0
	stw 7,348(31)
.LBE5281:
.LBE5282:
.LBE5283:
.LBE5284:
.LBE5285:
.LBE5286:
	.loc 1 2225 0
	lis 7,_ZTVN7sigslot7signal2IP4TaskiNS_15single_threadedEEE+8@ha
.LBE5287:
.LBE5344:
.LBB5345:
.LBB5341:
	.loc 1 2159 0
	la 9,_ZTVN7sigslot7signal1IP4TaskNS_15single_threadedEEE+8@l(9)
.LBE5341:
.LBE5345:
.LBB5346:
.LBB5322:
.LBB5317:
.LBB5312:
.LBB5307:
.LBB5302:
.LBB5296:
.LBB5297:
	.loc 7 459 0
	addi 5,31,320
.LBE5297:
.LBE5296:
.LBE5302:
.LBE5307:
.LBE5312:
.LBE5317:
.LBE5322:
.LBE5346:
.LBB5347:
.LBB5342:
.LBB5329:
.LBB5330:
.LBB5331:
.LBB5332:
.LBB5333:
.LBB5334:
	.loc 4 380 0
	addi 8,31,356
.LBE5334:
.LBE5333:
.LBE5332:
.LBE5331:
.LBE5330:
.LBE5329:
.LBE5342:
.LBE5347:
.LBB5348:
.LBB5349:
.LBB5350:
.LBB5351:
.LBB5352:
.LBB5353:
.LBB5354:
.LBB5355:
	addi 10,31,368
.LBE5355:
.LBE5354:
.LBE5353:
.LBE5352:
.LBE5351:
.LBE5350:
.LBE5349:
.LBE5348:
.LBB5363:
.LBB5364:
.LBB5365:
.LBB5366:
.LBB5367:
.LBB5368:
.LBB5369:
.LBB5370:
	addi 11,31,380
.LBE5370:
.LBE5369:
.LBE5368:
.LBE5367:
.LBE5366:
.LBE5365:
.LBE5364:
.LBE5363:
	.loc 3 35 0
	rlwimi 30,0,24,0,7
	.loc 3 29 0
	addi 4,6,208
.LBB5378:
.LBB5288:
	.loc 1 2225 0
	la 7,_ZTVN7sigslot7signal2IP4TaskiNS_15single_threadedEEE+8@l(7)
.LBE5288:
.LBE5378:
	.loc 3 35 0
	rlwimi 30,0,16,8,15
.LBB5379:
.LBB5323:
.LBB5318:
.LBB5313:
.LBB5308:
.LBB5303:
	.loc 7 445 0
	stw 0,320(31)
	stw 0,324(31)
.LBE5303:
.LBE5308:
.LBE5313:
.LBE5318:
.LBE5323:
.LBE5379:
	.loc 3 35 0
	rlwimi 30,0,8,16,23
.LBB5380:
.LBB5324:
.LBB5319:
.LBB5314:
.LBB5309:
.LBB5304:
	.loc 7 445 0
	stw 0,336(31)
.LVL685:
.LBE5304:
.LBE5309:
.LBE5314:
.LBE5319:
.LBE5324:
.LBE5380:
	.loc 3 35 0
	li 3,208
	.loc 3 31 0
	stw 0,388(31)
	.loc 3 32 0
	stw 0,408(31)
	.loc 3 33 0
	stw 0,396(31)
	.loc 3 34 0
	stw 0,400(31)
	.loc 3 35 0
	li 0,-1
.LBB5381:
.LBB5325:
.LBB5320:
.LBB5315:
.LBB5310:
.LBB5305:
.LBB5300:
.LBB5298:
	.loc 7 459 0
	stw 5,328(31)
.LBE5298:
.LBE5300:
.LBE5305:
.LBE5310:
.LBE5315:
.LBE5320:
.LBE5325:
.LBE5381:
	.loc 3 35 0
	rlwimi 30,0,0,24,31
.LBB5382:
.LBB5326:
.LBB5321:
.LBB5316:
.LBB5311:
.LBB5306:
.LBB5301:
.LBB5299:
	.loc 7 460 0
	stw 5,332(31)
.LBE5299:
.LBE5301:
.LBE5306:
.LBE5311:
.LBE5316:
.LBE5321:
.LBE5326:
.LBE5382:
	.loc 3 29 0
	stw 6,0(31)
	stw 4,312(31)
.LVL686:
.LBB5383:
.LBB5289:
	.loc 1 2225 0
	stw 7,340(31)
.LVL687:
.LBE5289:
.LBE5383:
.LBB5384:
.LBB5343:
.LBB5340:
.LBB5339:
.LBB5338:
.LBB5337:
.LBB5336:
.LBB5335:
	.loc 4 380 0
	stw 8,356(31)
	.loc 4 381 0
	stw 8,360(31)
.LBE5335:
.LBE5336:
.LBE5337:
.LBE5338:
.LBE5339:
.LBE5340:
	.loc 1 2159 0
	stw 9,352(31)
.LVL688:
.LBE5343:
.LBE5384:
.LBB5385:
.LBB5362:
.LBB5361:
.LBB5360:
.LBB5359:
.LBB5358:
.LBB5357:
.LBB5356:
	.loc 4 380 0
	stw 10,368(31)
	.loc 4 381 0
	stw 10,372(31)
.LBE5356:
.LBE5357:
.LBE5358:
.LBE5359:
.LBE5360:
.LBE5361:
	.loc 1 2159 0
	stw 9,364(31)
.LVL689:
.LBE5362:
.LBE5385:
.LBB5386:
.LBB5377:
.LBB5376:
.LBB5375:
.LBB5374:
.LBB5373:
.LBB5372:
.LBB5371:
	.loc 4 380 0
	stw 11,380(31)
	.loc 4 381 0
	stw 11,384(31)
.LBE5371:
.LBE5372:
.LBE5373:
.LBE5374:
.LBE5375:
.LBE5376:
	.loc 1 2159 0
	stw 9,376(31)
.LBE5377:
.LBE5386:
.LBB5387:
.LBB5388:
.LBB5389:
	.file 10 "d:\\devkitpro\\devkitppc\\bin\\../lib/gcc/powerpc-eabi/4.6.3/../../../../powerpc-eabi/include/c++/4.6.3/bits/basic_string.h"
	.loc 10 288 0
	lwz 28,0(29)
.LEHB66:
.LBE5389:
.LBE5388:
.LBE5387:
	.loc 3 35 0
	bl _Znwj
.LEHE66:
	mr 6,1
	mr 4,28
	stwu 30,8(6)
	li 5,20
	mr 29,3
.LVL690:
.LEHB67:
	bl _ZN7GuiTextC1EPKci9_gx_color
.LEHE67:
	.loc 3 35 0 is_stmt 0 discriminator 1
	stw 29,392(31)
	.loc 3 36 0 is_stmt 1 discriminator 1
	mr 3,29
	li 4,80
	li 5,1
.LEHB68:
	bl _ZN7GuiText11SetMaxWidthEii
	.loc 3 37 0
	lwz 3,392(31)
	li 4,33
	lwz 9,0(3)
	lwz 0,180(9)
	mtctr 0
	bctrl
	.loc 3 39 0
	li 3,368
	bl _Znwj
.LEHE68:
	lis 9,Settings@ha
	mr 30,3
	la 9,Settings@l(9)
	lhz 28,2616(9)
	lhz 27,2644(9)
	lhz 29,2672(9)
.LVL691:
.LEHB69:
.LBB5390:
.LBB5391:
	.loc 6 95 0
	bl _ZN10GuiTriggerC2Ev
.LEHE69:
.LVL692:
	lis 9,_ZTV16SimpleGuiTrigger+8@ha
.LBE5391:
.LBE5390:
	.loc 3 39 0
	slwi 5,27,16
.LBB5394:
.LBB5392:
	.loc 6 95 0
	la 0,_ZTV16SimpleGuiTrigger+8@l(9)
	.loc 6 96 0
	mr 3,30
	.loc 6 95 0
	stw 0,0(30)
	.loc 6 96 0
	li 4,-1
	or 5,5,28
	mr 6,29
.LEHB70:
	bl _ZN10GuiTrigger16SetSimpleTriggerEijt
.LEHE70:
.LBE5392:
.LBE5394:
	.loc 3 39 0 discriminator 1
	stw 30,404(31)
	.loc 3 41 0 discriminator 1
	mr 3,31
	lwz 4,392(31)
	li 5,0
.LEHB71:
	bl _ZN9GuiButton8SetLabelEP7GuiTexti
	.loc 3 42 0
	lwz 4,396(31)
	mr 3,31
	bl _ZN9GuiButton8SetImageEP8GuiImage
	.loc 3 43 0
	lwz 4,404(31)
	mr 3,31
	bl _ZN9GuiButton10SetTriggerEP10GuiTrigger
.LVL693:
.LBB5395:
.LBB5396:
	.loc 2 271 0
	lwz 9,0(31)
	mr 3,31
	li 4,256
	li 5,4
	lwz 0,140(9)
	li 6,110
	mtctr 0
	bctrl
.LBE5396:
.LBE5395:
	.loc 3 45 0
	lis 9,_ZN4Task13OnButtonClickEP9GuiButtoniRK6_POINT@ha
	addi 3,31,144
	la 0,_ZN4Task13OnButtonClickEP9GuiButtoniRK6_POINT@l(9)
	mr 4,31
	stw 0,16(1)
	addi 5,1,16
	li 0,0
	stw 0,20(1)
	bl _ZN7sigslot7signal3IP9GuiButtoniRK6_POINTNS_15single_threadedEE7connectI4TaskEEvPT_MSA_FvS2_iS5_E
.LEHE71:
.LBE5400:
	.loc 3 46 0
	lwz 0,52(1)
	lwz 27,28(1)
.LVL694:
	mtlr 0
	lwz 28,32(1)
	lwz 29,36(1)
.LVL695:
	lwz 30,40(1)
.LVL696:
	lwz 31,44(1)
.LVL697:
	addi 1,1,48
	.cfi_remember_state
.LCFI98:
	.cfi_def_cfa_offset 0
	.cfi_restore 31
	.cfi_restore 30
	.cfi_restore 29
	.cfi_restore 28
	.cfi_restore 27
	blr
.LVL698:
.L642:
.LCFI99:
	.cfi_restore_state
	mr 30,3
.L641:
.LBB5401:
	.loc 3 29 0
	addi 3,31,376
	bl _ZN7sigslot7signal1IP4TaskNS_15single_threadedEED1Ev
	addi 3,31,364
	bl _ZN7sigslot7signal1IP4TaskNS_15single_threadedEED1Ev
	addi 3,31,352
	bl _ZN7sigslot7signal1IP4TaskNS_15single_threadedEED1Ev
	addi 3,31,340
	bl _ZN7sigslot7signal2IP4TaskiNS_15single_threadedEED1Ev
	addi 3,31,312
	bl _ZN7sigslot9has_slotsINS_15single_threadedEED2Ev
	mr 3,31
	bl _ZN9GuiButtonD2Ev
	mr 3,30
.LEHB72:
	bl _Unwind_Resume
.LEHE72:
.LVL699:
.L645:
	mr 29,3
.LVL700:
.LBB5397:
.LBB5393:
	.loc 6 95 0
	mr 3,30
	bl _ZN10GuiTriggerD2Ev
.L639:
.LBE5393:
.LBE5397:
	.loc 3 39 0
	mr 3,30
	mr 30,29
.LVL701:
	bl _ZdlPv
.LVL702:
	b .L641
.LVL703:
.L644:
	mr 29,3
.LVL704:
	b .L639
.LVL705:
.L643:
	mr 30,3
	.loc 3 35 0
	mr 3,29
	bl _ZdlPv
	b .L641
.LBE5401:
	.cfi_endproc
.LFE1467:
	.section	.gcc_except_table
.LLSDA1467:
	.byte	0xff
	.byte	0xff
	.byte	0x1
	.uleb128 .LLSDACSE1467-.LLSDACSB1467
.LLSDACSB1467:
	.uleb128 .LEHB65-.LFB1467
	.uleb128 .LEHE65-.LEHB65
	.uleb128 0
	.uleb128 0
	.uleb128 .LEHB66-.LFB1467
	.uleb128 .LEHE66-.LEHB66
	.uleb128 .L642-.LFB1467
	.uleb128 0
	.uleb128 .LEHB67-.LFB1467
	.uleb128 .LEHE67-.LEHB67
	.uleb128 .L643-.LFB1467
	.uleb128 0
	.uleb128 .LEHB68-.LFB1467
	.uleb128 .LEHE68-.LEHB68
	.uleb128 .L642-.LFB1467
	.uleb128 0
	.uleb128 .LEHB69-.LFB1467
	.uleb128 .LEHE69-.LEHB69
	.uleb128 .L644-.LFB1467
	.uleb128 0
	.uleb128 .LEHB70-.LFB1467
	.uleb128 .LEHE70-.LEHB70
	.uleb128 .L645-.LFB1467
	.uleb128 0
	.uleb128 .LEHB71-.LFB1467
	.uleb128 .LEHE71-.LEHB71
	.uleb128 .L642-.LFB1467
	.uleb128 0
	.uleb128 .LEHB72-.LFB1467
	.uleb128 .LEHE72-.LEHB72
	.uleb128 0
	.uleb128 0
.LLSDACSE1467:
	.section	".text"
	.size	_ZN4TaskC2ERKSs, .-_ZN4TaskC2ERKSs
	.align 2
	.globl _ZThn312_N4TaskD1Ev
	.type	_ZThn312_N4TaskD1Ev, @function
_ZThn312_N4TaskD1Ev:
.LFB2243:
	.cfi_startproc
	addi 3,3,-312
	b .LTHUNK0
	.cfi_endproc
.LFE2243:
	.size	_ZThn312_N4TaskD1Ev, .-_ZThn312_N4TaskD1Ev
	.align 2
	.globl _ZN4TaskD2Ev
	.type	_ZN4TaskD2Ev, @function
_ZN4TaskD2Ev:
.LFB1474:
	.loc 3 48 0
	.cfi_startproc
	.cfi_personality 0,__gxx_personality_v0
	.cfi_lsda 0,.LLSDA1474
.LVL706:
	mflr 0
	stwu 1,-56(1)
.LCFI100:
	.cfi_def_cfa_offset 56
	.cfi_register 65, 0
.LBB5902:
	lis 9,_ZTV4Task+8@ha
.LBE5902:
	stw 29,44(1)
	mr 29,3
	.cfi_offset 29, -12
	stw 0,60(1)
.LBB6448:
	la 9,_ZTV4Task+8@l(9)
	addi 0,9,208
	.cfi_offset 65, 4
.LBE6448:
	stw 25,28(1)
.LBB6449:
	.loc 3 50 0
	lwz 3,392(3)
.LVL707:
.LBE6449:
	.loc 3 48 0
	stw 26,32(1)
.LBB6450:
	.loc 3 50 0
	cmpwi 7,3,0
.LBE6450:
	.loc 3 48 0
	stw 27,36(1)
	stw 28,40(1)
	stw 30,48(1)
	stw 31,52(1)
.LBB6451:
	.loc 3 48 0
	stw 9,0(29)
	stw 0,312(29)
	.loc 3 50 0
	beq- 7,.L649
	.cfi_offset 31, -4
	.cfi_offset 30, -8
	.cfi_offset 28, -16
	.cfi_offset 27, -20
	.cfi_offset 26, -24
	.cfi_offset 25, -28
	.loc 3 50 0 is_stmt 0 discriminator 1
	lwz 9,0(3)
	addi 26,29,376
	lwz 0,4(9)
	mtctr 0
.LEHB73:
	bctrl
.L649:
	.loc 3 51 0 is_stmt 1
	lwz 3,404(29)
	cmpwi 7,3,0
	beq- 7,.L650
	.loc 3 51 0 is_stmt 0 discriminator 1
	lwz 9,0(3)
	addi 26,29,376
	lwz 0,4(9)
	mtctr 0
	bctrl
.L650:
	.loc 3 52 0 is_stmt 1
	lwz 3,396(29)
	cmpwi 7,3,0
	beq- 7,.L651
	.loc 3 53 0 discriminator 1
	lwz 9,0(3)
	addi 26,29,376
	lwz 0,4(9)
	mtctr 0
	bctrl
.L651:
	.loc 3 54 0
	lwz 3,400(29)
	cmpwi 7,3,0
	beq- 7,.L652
	.loc 3 55 0 discriminator 1
	lwz 9,0(3)
	addi 26,29,376
	lwz 0,4(9)
	mtctr 0
	bctrl
.L652:
.LVL708:
.LBB5903:
.LBB5904:
.LBB5905:
.LBB5906:
	.loc 1 338 0
	lwz 9,376(29)
.LBE5906:
.LBE5905:
	.loc 1 2203 0
	addi 26,29,376
.LVL709:
.LBB5908:
.LBB5907:
	.loc 1 338 0
	mr 3,26
	lwz 0,8(9)
	mtctr 0
	bctrl
.LEHE73:
.LVL710:
.LBE5907:
.LBE5908:
.LBE5904:
	.loc 3 73 0
	mr 28,29
	lwzu 31,380(28)
.LVL711:
.LBB5917:
	.loc 1 2207 0
	cmpw 7,31,28
	beq- 7,.L653
.LVL712:
.L857:
	.loc 1 2212 0
	lwz 3,8(31)
	mr 4,29
.LBB5909:
.LBB5910:
	.loc 4 234 0
	lwz 31,0(31)
.LVL713:
.LBE5910:
.LBE5909:
	.loc 1 2212 0
	lwz 9,0(3)
	lwz 0,12(9)
	mtctr 0
.LEHB74:
	bctrl
.LEHE74:
.LVL714:
	.loc 1 2207 0
	cmpw 7,28,31
	bne+ 7,.L857
.LVL715:
.L653:
.LBB5911:
.LBB5912:
.LBB5913:
	.loc 1 343 0
	lwz 9,376(29)
	mr 3,26
	lwz 0,12(9)
	mtctr 0
.LEHB75:
	bctrl
.LEHE75:
.LVL716:
.LBE5913:
.LBE5912:
.LBE5911:
.LBE5917:
.LBE5903:
.LBB5919:
.LBB5920:
.LBB5921:
.LBB5922:
.LBB5923:
.LBB5924:
	.loc 1 705 0
	lis 27,_ZTVN7sigslot13_signal_base1IP4TaskNS_15single_threadedEEE+8@ha
.LBB5925:
.LBB5926:
.LBB5927:
.LBB5928:
	.loc 1 338 0
	lis 9,_ZN7sigslot15single_threaded4lockEv@ha
.LBE5928:
.LBE5927:
.LBE5926:
.LBE5925:
	.loc 1 705 0
	la 27,_ZTVN7sigslot13_signal_base1IP4TaskNS_15single_threadedEEE+8@l(27)
.LBB5964:
.LBB5959:
.LBB5931:
.LBB5929:
	.loc 1 338 0
	la 9,_ZN7sigslot15single_threaded4lockEv@l(9)
.LBE5929:
.LBE5931:
.LBE5959:
.LBE5964:
	.loc 1 705 0
	stw 27,376(29)
.LVL717:
.LBB5965:
.LBB5960:
.LBB5932:
.LBB5930:
	.loc 1 338 0
	mr 3,26
	mtctr 9
.LEHB76:
	bctrl
.LEHE76:
.LBE5930:
.LBE5932:
.LBE5960:
	.loc 3 73 0
	lwz 31,380(29)
.LVL718:
.LBB5961:
	.loc 1 713 0
	cmpw 7,28,31
	beq- 7,.L659
.LVL719:
.L851:
	.loc 1 715 0
	lwz 3,8(31)
	lwz 9,0(3)
	lwz 0,8(9)
	mtctr 0
.LEHB77:
	bctrl
	stw 26,8(1)
	mr 30,3
.LVL720:
.LBB5933:
.LBB5934:
.LBB5935:
.LBB5936:
	.loc 1 338 0
	lwz 9,0(3)
	lwz 0,8(9)
	mtctr 0
	bctrl
.LVL721:
.LBE5936:
.LBE5935:
.LBB5937:
.LBB5938:
	.loc 8 528 0
	addi 3,30,4
	addi 4,1,8
	bl _ZNSt8_Rb_treeIPN7sigslot12_signal_baseINS0_15single_threadedEEES4_St9_IdentityIS4_ESt4lessIS4_ESaIS4_EE5eraseERKS4_
.LVL722:
.LBE5938:
.LBE5937:
.LBB5939:
.LBB5940:
.LBB5941:
	.loc 1 343 0
	lwz 9,0(30)
	mr 3,30
	lwz 0,12(9)
	mtctr 0
	bctrl
.LVL723:
.LBE5941:
.LBE5940:
.LBE5939:
.LBE5934:
.LBE5933:
	.loc 1 716 0
	lwz 3,8(31)
	cmpwi 7,3,0
	beq- 7,.L661
	lwz 9,0(3)
	lwz 0,4(9)
	mtctr 0
	bctrl
.LEHE77:
.L661:
.LVL724:
.LBB5942:
.LBB5943:
	.loc 4 234 0
	lwz 31,0(31)
.LVL725:
.LBE5943:
.LBE5942:
	.loc 1 713 0
	cmpw 7,28,31
	bne+ 7,.L851
.LBE5961:
	.loc 3 73 0
	lwz 31,380(29)
.LVL726:
.LBB5962:
.LBB5944:
.LBB5945:
	.loc 4 1162 0
	cmpw 7,28,31
	bne+ 7,.L859
	b .L659
.LVL727:
.L822:
	.loc 4 1163 0
	mr 31,30
.LVL728:
.L859:
.LBB5946:
.LBB5947:
	.loc 9 112 0
	lwz 30,0(31)
.LVL729:
.LBB5948:
.LBB5949:
	.loc 4 1532 0
	mr 3,31
	bl _ZNSt8__detail15_List_node_base9_M_unhookEv
.LVL730:
.LBB5950:
.LBB5951:
.LBB5952:
	.loc 5 98 0
	mr 3,31
	bl _ZdlPv
.LVL731:
.LBE5952:
.LBE5951:
.LBE5950:
.LBE5949:
.LBE5948:
.LBE5947:
.LBE5946:
	.loc 4 1162 0
	cmpw 7,28,30
	bne+ 7,.L822
.LVL732:
.L659:
.LBE5945:
.LBE5944:
.LBB5953:
.LBB5954:
.LBB5955:
	.loc 1 343 0
	lwz 9,376(29)
	mr 3,26
	lwz 0,12(9)
	mtctr 0
.LEHB78:
	bctrl
.LEHE78:
.LBE5955:
.LBE5954:
.LBE5953:
.LBE5962:
.LBE5965:
.LBB5966:
.LBB5967:
.LBB5968:
.LBB5969:
.LBB5970:
.LBB5971:
	.loc 9 70 0
	lwz 3,380(29)
.LVL733:
	.loc 9 71 0
	cmpw 7,28,3
	bne+ 7,.L861
	b .L677
.LVL734:
.L823:
	.loc 9 74 0
	mr 3,31
.LVL735:
.L861:
.LBB5972:
	lwz 31,0(3)
.LVL736:
.LBB5973:
.LBB5974:
.LBB5975:
	.loc 5 98 0
	bl _ZdlPv
.LVL737:
.LBE5975:
.LBE5974:
.LBE5973:
.LBE5972:
	.loc 9 71 0
	cmpw 7,28,31
	bne+ 7,.L823
.LVL738:
.L677:
.LBE5971:
.LBE5970:
.LBE5969:
.LBE5968:
.LBE5967:
.LBE5966:
.LBB5976:
.LBB5977:
.LBB5978:
.LBB5979:
.LBB5980:
.LBB5981:
	.loc 1 105 0
	lis 28,_ZTVN7sigslot15single_threadedE+8@ha
.LBE5981:
.LBE5980:
.LBE5979:
.LBE5978:
.LBE5977:
.LBE5976:
.LBE5924:
.LBE5923:
.LBE5922:
.LBE5921:
.LBE5920:
.LBE5919:
.LBB6031:
.LBB6032:
.LBB6033:
.LBB6034:
.LBB6035:
.LBB6036:
.LBB6037:
.LBB6038:
.LBB6039:
.LBB6040:
	.loc 1 338 0
	lis 9,_ZN7sigslot15single_threaded4lockEv@ha
.LBE6040:
.LBE6039:
.LBE6038:
.LBE6037:
.LBE6036:
.LBE6035:
.LBE6034:
.LBE6033:
.LBE6032:
.LBE6031:
.LBB6141:
.LBB6027:
.LBB6023:
.LBB6019:
.LBB6015:
.LBB6011:
.LBB5992:
.LBB5990:
.LBB5988:
.LBB5986:
.LBB5984:
.LBB5982:
	.loc 1 105 0
	la 28,_ZTVN7sigslot15single_threadedE+8@l(28)
.LBE5982:
.LBE5984:
.LBE5986:
.LBE5988:
.LBE5990:
.LBE5992:
.LBE6011:
.LBE6015:
.LBE6019:
.LBE6023:
.LBE6027:
.LBE6141:
.LBB6142:
.LBB6135:
.LBB6129:
	.loc 1 2172 0
	addi 25,29,364
.LBB6123:
.LBB6117:
.LBB6111:
.LBB6076:
.LBB6071:
.LBB6043:
.LBB6041:
	.loc 1 338 0
	la 9,_ZN7sigslot15single_threaded4lockEv@l(9)
.LBE6041:
.LBE6043:
.LBE6071:
.LBE6076:
.LBE6111:
.LBE6117:
.LBE6123:
.LBE6129:
.LBE6135:
.LBE6142:
.LBB6143:
.LBB6028:
.LBB6024:
.LBB6020:
.LBB6016:
.LBB6012:
.LBB5993:
.LBB5991:
.LBB5989:
.LBB5987:
.LBB5985:
.LBB5983:
	.loc 1 105 0
	stw 28,376(29)
.LVL739:
.LBE5983:
.LBE5985:
.LBE5987:
.LBE5989:
.LBE5991:
.LBE5993:
.LBE6012:
.LBE6016:
.LBE6020:
.LBE6024:
.LBE6028:
.LBE6143:
.LBB6144:
.LBB6136:
.LBB6130:
.LBB6124:
.LBB6118:
.LBB6112:
	.loc 1 705 0
	stw 27,364(29)
.LVL740:
.LBB6077:
.LBB6072:
.LBB6044:
.LBB6042:
	.loc 1 338 0
	mr 3,25
	mtctr 9
	addi 26,29,368
.LEHB79:
	bctrl
.LEHE79:
.LBE6042:
.LBE6044:
.LBE6072:
	.loc 3 73 0
	mr 26,29
	lwzu 31,368(26)
.LVL741:
.LBB6073:
	.loc 1 713 0
	cmpw 7,31,26
	beq- 7,.L693
.LVL742:
.L850:
	.loc 1 715 0
	lwz 3,8(31)
	lwz 9,0(3)
	lwz 0,8(9)
	mtctr 0
.LEHB80:
	bctrl
	stw 25,8(1)
	mr 30,3
.LVL743:
.LBB6045:
.LBB6046:
.LBB6047:
.LBB6048:
	.loc 1 338 0
	lwz 9,0(3)
	lwz 0,8(9)
	mtctr 0
	bctrl
.LVL744:
.LBE6048:
.LBE6047:
.LBB6049:
.LBB6050:
	.loc 8 528 0
	addi 3,30,4
	addi 4,1,8
.LVL745:
	bl _ZNSt8_Rb_treeIPN7sigslot12_signal_baseINS0_15single_threadedEEES4_St9_IdentityIS4_ESt4lessIS4_ESaIS4_EE5eraseERKS4_
.LVL746:
.LBE6050:
.LBE6049:
.LBB6051:
.LBB6052:
.LBB6053:
	.loc 1 343 0
	lwz 9,0(30)
	mr 3,30
	lwz 0,12(9)
	mtctr 0
	bctrl
.LVL747:
.LBE6053:
.LBE6052:
.LBE6051:
.LBE6046:
.LBE6045:
	.loc 1 716 0
	lwz 3,8(31)
	cmpwi 7,3,0
	beq- 7,.L695
	lwz 9,0(3)
	lwz 0,4(9)
	mtctr 0
	bctrl
.LEHE80:
.L695:
.LVL748:
.LBB6054:
.LBB6055:
	.loc 4 234 0
	lwz 31,0(31)
.LVL749:
.LBE6055:
.LBE6054:
	.loc 1 713 0
	cmpw 7,26,31
	bne+ 7,.L850
.LBE6073:
	.loc 3 73 0
	lwz 31,368(29)
.LVL750:
.LBB6074:
.LBB6056:
.LBB6057:
	.loc 4 1162 0
	cmpw 7,26,31
	bne+ 7,.L864
	b .L693
.LVL751:
.L825:
	.loc 4 1163 0
	mr 31,30
.LVL752:
.L864:
.LBB6058:
.LBB6059:
	.loc 9 112 0
	lwz 30,0(31)
.LVL753:
.LBB6060:
.LBB6061:
	.loc 4 1532 0
	mr 3,31
	bl _ZNSt8__detail15_List_node_base9_M_unhookEv
.LVL754:
.LBB6062:
.LBB6063:
.LBB6064:
	.loc 5 98 0
	mr 3,31
	bl _ZdlPv
.LVL755:
.LBE6064:
.LBE6063:
.LBE6062:
.LBE6061:
.LBE6060:
.LBE6059:
.LBE6058:
	.loc 4 1162 0
	cmpw 7,26,30
	bne+ 7,.L825
.LVL756:
.L693:
.LBE6057:
.LBE6056:
.LBB6065:
.LBB6066:
.LBB6067:
	.loc 1 343 0
	lwz 9,364(29)
	mr 3,25
	lwz 0,12(9)
	mtctr 0
.LEHB81:
	bctrl
.LEHE81:
.LVL757:
.LBE6067:
.LBE6066:
.LBE6065:
.LBE6074:
.LBE6077:
.LBB6078:
.LBB6079:
.LBB6080:
.LBB6081:
.LBB6082:
.LBB6083:
	.loc 9 70 0
	lwz 3,368(29)
.LVL758:
	.loc 9 71 0
	cmpw 7,3,26
	bne+ 7,.L866
	b .L711
.LVL759:
.L826:
	.loc 9 74 0
	mr 3,31
.LVL760:
.L866:
.LBB6084:
	lwz 31,0(3)
.LVL761:
.LBB6085:
.LBB6086:
.LBB6087:
	.loc 5 98 0
	bl _ZdlPv
.LVL762:
.LBE6087:
.LBE6086:
.LBE6085:
.LBE6084:
	.loc 9 71 0
	cmpw 7,31,26
	bne+ 7,.L826
.LVL763:
.L711:
.LBE6083:
.LBE6082:
.LBE6081:
.LBE6080:
.LBE6079:
.LBE6078:
.LBE6112:
.LBE6118:
.LBE6124:
.LBE6130:
.LBE6136:
.LBE6144:
.LBB6145:
.LBB6146:
.LBB6147:
.LBB6148:
.LBB6149:
.LBB6150:
.LBB6151:
.LBB6152:
.LBB6153:
.LBB6154:
	.loc 1 338 0
	lis 9,_ZN7sigslot15single_threaded4lockEv@ha
.LBE6154:
.LBE6153:
.LBE6152:
.LBE6151:
.LBE6150:
.LBE6149:
.LBE6148:
	.loc 1 2172 0
	addi 26,29,352
.LVL764:
.LBB6235:
.LBB6230:
.LBB6225:
.LBB6190:
.LBB6185:
.LBB6157:
.LBB6155:
	.loc 1 338 0
	la 9,_ZN7sigslot15single_threaded4lockEv@l(9)
.LBE6155:
.LBE6157:
.LBE6185:
.LBE6190:
	.loc 1 705 0
	stw 27,352(29)
.LBE6225:
.LBE6230:
.LBE6235:
.LBE6147:
.LBE6146:
.LBE6145:
.LBB6248:
.LBB6137:
.LBB6131:
.LBB6125:
.LBB6119:
.LBB6113:
.LBB6088:
.LBB6089:
.LBB6090:
.LBB6091:
.LBB6092:
.LBB6093:
	.loc 1 105 0
	stw 28,364(29)
.LVL765:
.LBE6093:
.LBE6092:
.LBE6091:
.LBE6090:
.LBE6089:
.LBE6088:
.LBE6113:
.LBE6119:
.LBE6125:
.LBE6131:
.LBE6137:
.LBE6248:
.LBB6249:
.LBB6244:
.LBB6240:
.LBB6236:
.LBB6231:
.LBB6226:
.LBB6191:
.LBB6186:
.LBB6158:
.LBB6156:
	.loc 1 338 0
	mr 3,26
	mtctr 9
	addi 27,29,356
.LEHB82:
	bctrl
.LEHE82:
.LBE6156:
.LBE6158:
.LBE6186:
	.loc 3 73 0
	mr 27,29
	lwzu 31,356(27)
.LVL766:
.LBB6187:
	.loc 1 713 0
	cmpw 7,31,27
	beq- 7,.L727
.LVL767:
.L849:
	.loc 1 715 0
	lwz 3,8(31)
	lwz 9,0(3)
	lwz 0,8(9)
	mtctr 0
.LEHB83:
	bctrl
	stw 26,8(1)
	mr 30,3
.LVL768:
.LBB6159:
.LBB6160:
.LBB6161:
.LBB6162:
	.loc 1 338 0
	lwz 9,0(3)
	lwz 0,8(9)
	mtctr 0
	bctrl
.LVL769:
.LBE6162:
.LBE6161:
.LBB6163:
.LBB6164:
	.loc 8 528 0
	addi 3,30,4
	addi 4,1,8
.LVL770:
	bl _ZNSt8_Rb_treeIPN7sigslot12_signal_baseINS0_15single_threadedEEES4_St9_IdentityIS4_ESt4lessIS4_ESaIS4_EE5eraseERKS4_
.LVL771:
.LBE6164:
.LBE6163:
.LBB6165:
.LBB6166:
.LBB6167:
	.loc 1 343 0
	lwz 9,0(30)
	mr 3,30
	lwz 0,12(9)
	mtctr 0
	bctrl
.LVL772:
.LBE6167:
.LBE6166:
.LBE6165:
.LBE6160:
.LBE6159:
	.loc 1 716 0
	lwz 3,8(31)
	cmpwi 7,3,0
	beq- 7,.L729
	lwz 9,0(3)
	lwz 0,4(9)
	mtctr 0
	bctrl
.LEHE83:
.L729:
.LVL773:
.LBB6168:
.LBB6169:
	.loc 4 234 0
	lwz 31,0(31)
.LVL774:
.LBE6169:
.LBE6168:
	.loc 1 713 0
	cmpw 7,27,31
	bne+ 7,.L849
.LBE6187:
	.loc 3 73 0
	lwz 31,356(29)
.LVL775:
.LBB6188:
.LBB6170:
.LBB6171:
	.loc 4 1162 0
	cmpw 7,27,31
	bne+ 7,.L869
	b .L727
.LVL776:
.L828:
	.loc 4 1163 0
	mr 31,30
.LVL777:
.L869:
.LBB6172:
.LBB6173:
	.loc 9 112 0
	lwz 30,0(31)
.LVL778:
.LBB6174:
.LBB6175:
	.loc 4 1532 0
	mr 3,31
	bl _ZNSt8__detail15_List_node_base9_M_unhookEv
.LVL779:
.LBB6176:
.LBB6177:
.LBB6178:
	.loc 5 98 0
	mr 3,31
	bl _ZdlPv
.LVL780:
.LBE6178:
.LBE6177:
.LBE6176:
.LBE6175:
.LBE6174:
.LBE6173:
.LBE6172:
	.loc 4 1162 0
	cmpw 7,27,30
	bne+ 7,.L828
.LVL781:
.L727:
.LBE6171:
.LBE6170:
.LBB6179:
.LBB6180:
.LBB6181:
	.loc 1 343 0
	lwz 9,352(29)
	mr 3,26
	lwz 0,12(9)
	mtctr 0
.LEHB84:
	bctrl
.LEHE84:
.LBE6181:
.LBE6180:
.LBE6179:
.LBE6188:
.LBE6191:
.LBB6192:
.LBB6193:
.LBB6194:
.LBB6195:
.LBB6196:
.LBB6197:
	.loc 9 70 0
	lwz 3,356(29)
.LVL782:
	.loc 9 71 0
	cmpw 7,3,27
	bne+ 7,.L871
	b .L745
.LVL783:
.L829:
	.loc 9 74 0
	mr 3,31
.LVL784:
.L871:
.LBB6198:
	lwz 31,0(3)
.LVL785:
.LBB6199:
.LBB6200:
.LBB6201:
	.loc 5 98 0
	bl _ZdlPv
.LVL786:
.LBE6201:
.LBE6200:
.LBE6199:
.LBE6198:
	.loc 9 71 0
	cmpw 7,31,27
	bne+ 7,.L829
.LVL787:
.L745:
.LBE6197:
.LBE6196:
.LBE6195:
.LBE6194:
.LBE6193:
.LBE6192:
.LBE6226:
.LBE6231:
.LBE6236:
.LBE6240:
.LBE6244:
.LBE6249:
.LBB6250:
.LBB6251:
.LBB6252:
.LBB6253:
.LBB6254:
.LBB6255:
	.loc 1 826 0
	lis 9,_ZTVN7sigslot13_signal_base2IP4TaskiNS_15single_threadedEEE+8@ha
.LBE6255:
.LBE6254:
.LBE6253:
	.loc 1 2238 0
	addi 26,29,340
.LVL788:
.LBB6336:
.LBB6331:
.LBB6326:
	.loc 1 826 0
	la 0,_ZTVN7sigslot13_signal_base2IP4TaskiNS_15single_threadedEEE+8@l(9)
.LBB6256:
.LBB6257:
.LBB6258:
.LBB6259:
	.loc 1 338 0
	lis 9,_ZN7sigslot15single_threaded4lockEv@ha
	la 9,_ZN7sigslot15single_threaded4lockEv@l(9)
.LBE6259:
.LBE6258:
.LBE6257:
.LBE6256:
.LBE6326:
.LBE6331:
.LBE6336:
.LBE6252:
.LBE6251:
.LBE6250:
.LBB6349:
.LBB6245:
.LBB6241:
.LBB6237:
.LBB6232:
.LBB6227:
.LBB6202:
.LBB6203:
.LBB6204:
.LBB6205:
.LBB6206:
.LBB6207:
	.loc 1 105 0
	stw 28,352(29)
.LVL789:
.LBE6207:
.LBE6206:
.LBE6205:
.LBE6204:
.LBE6203:
.LBE6202:
.LBE6227:
.LBE6232:
.LBE6237:
.LBE6241:
.LBE6245:
.LBE6349:
.LBB6350:
.LBB6345:
.LBB6341:
.LBB6337:
.LBB6332:
.LBB6327:
	.loc 1 826 0
	stw 0,340(29)
.LVL790:
.LBB6292:
.LBB6288:
.LBB6261:
.LBB6260:
	.loc 1 338 0
	mr 3,26
	mtctr 9
	addi 27,29,344
.LVL791:
.LEHB85:
	bctrl
.LEHE85:
.LBE6260:
.LBE6261:
.LBE6288:
	.loc 3 73 0
	mr 27,29
	lwzu 31,344(27)
.LVL792:
.LBB6289:
	.loc 1 834 0
	cmpw 7,31,27
	beq- 7,.L761
.LVL793:
.L848:
	.loc 1 836 0
	lwz 3,8(31)
	lwz 9,0(3)
	lwz 0,8(9)
	mtctr 0
.LEHB86:
	bctrl
	stw 26,8(1)
	mr 30,3
.LVL794:
.LBB6262:
.LBB6263:
.LBB6264:
.LBB6265:
	.loc 1 338 0
	lwz 9,0(3)
	lwz 0,8(9)
	mtctr 0
	bctrl
.LVL795:
.LBE6265:
.LBE6264:
.LBB6266:
.LBB6267:
	.loc 8 528 0
	addi 3,30,4
	addi 4,1,8
.LVL796:
	bl _ZNSt8_Rb_treeIPN7sigslot12_signal_baseINS0_15single_threadedEEES4_St9_IdentityIS4_ESt4lessIS4_ESaIS4_EE5eraseERKS4_
.LVL797:
.LBE6267:
.LBE6266:
.LBB6268:
.LBB6269:
.LBB6270:
	.loc 1 343 0
	lwz 9,0(30)
	mr 3,30
	lwz 0,12(9)
	mtctr 0
	bctrl
.LVL798:
.LBE6270:
.LBE6269:
.LBE6268:
.LBE6263:
.LBE6262:
	.loc 1 837 0
	lwz 3,8(31)
	cmpwi 7,3,0
	beq- 7,.L763
	lwz 9,0(3)
	lwz 0,4(9)
	mtctr 0
	bctrl
.LEHE86:
.L763:
.LVL799:
.LBB6271:
.LBB6272:
	.loc 4 234 0
	lwz 31,0(31)
.LVL800:
.LBE6272:
.LBE6271:
	.loc 1 834 0
	cmpw 7,27,31
	bne+ 7,.L848
.LBE6289:
	.loc 3 73 0
	lwz 31,344(29)
.LVL801:
.LBB6290:
.LBB6273:
.LBB6274:
	.loc 4 1162 0
	cmpw 7,27,31
	bne+ 7,.L874
	b .L761
.LVL802:
.L831:
	.loc 4 1163 0
	mr 31,30
.LVL803:
.L874:
.LBB6275:
.LBB6276:
	.loc 9 112 0
	lwz 30,0(31)
.LVL804:
.LBB6277:
.LBB6278:
	.loc 4 1532 0
	mr 3,31
	bl _ZNSt8__detail15_List_node_base9_M_unhookEv
.LVL805:
.LBB6279:
.LBB6280:
.LBB6281:
	.loc 5 98 0
	mr 3,31
	bl _ZdlPv
.LVL806:
.LBE6281:
.LBE6280:
.LBE6279:
.LBE6278:
.LBE6277:
.LBE6276:
.LBE6275:
	.loc 4 1162 0
	cmpw 7,27,30
	bne+ 7,.L831
.LVL807:
.L761:
.LBE6274:
.LBE6273:
.LBB6282:
.LBB6283:
.LBB6284:
	.loc 1 343 0
	lwz 9,340(29)
	mr 3,26
	lwz 0,12(9)
	mtctr 0
.LEHB87:
	bctrl
.LEHE87:
.LBE6284:
.LBE6283:
.LBE6282:
.LBE6290:
.LBE6292:
.LBB6293:
.LBB6294:
.LBB6295:
.LBB6296:
.LBB6297:
.LBB6298:
	.loc 9 70 0
	lwz 3,344(29)
.LVL808:
	.loc 9 71 0
	cmpw 7,3,27
	bne+ 7,.L876
	b .L779
.LVL809:
.L832:
	.loc 9 74 0
	mr 3,31
.LVL810:
.L876:
.LBB6299:
	lwz 31,0(3)
.LVL811:
.LBB6300:
.LBB6301:
.LBB6302:
	.loc 5 98 0
	bl _ZdlPv
.LVL812:
.LBE6302:
.LBE6301:
.LBE6300:
.LBE6299:
	.loc 9 71 0
	cmpw 7,31,27
	bne+ 7,.L832
.LVL813:
.L779:
.LBE6298:
.LBE6297:
.LBE6296:
.LBE6295:
.LBE6294:
.LBE6293:
.LBE6327:
.LBE6332:
.LBE6337:
.LBE6341:
.LBE6345:
.LBE6350:
.LBB6351:
.LBB6352:
.LBB6353:
	.loc 1 516 0
	lis 9,_ZTVN7sigslot9has_slotsINS_15single_threadedEEE+8@ha
.LBE6353:
.LBE6352:
.LBE6351:
	.loc 3 48 0
	addi 27,29,312
.LVL814:
.LBB6434:
.LBB6431:
.LBB6428:
	.loc 1 516 0
	la 0,_ZTVN7sigslot9has_slotsINS_15single_threadedEEE+8@l(9)
.LBB6354:
.LBB6355:
.LBB6356:
.LBB6357:
	.loc 1 338 0
	lis 9,_ZN7sigslot15single_threaded4lockEv@ha
	la 9,_ZN7sigslot15single_threaded4lockEv@l(9)
.LBE6357:
.LBE6356:
.LBE6355:
.LBE6354:
.LBE6428:
.LBE6431:
.LBE6434:
.LBB6435:
.LBB6346:
.LBB6342:
.LBB6338:
.LBB6333:
.LBB6328:
.LBB6303:
.LBB6304:
.LBB6305:
.LBB6306:
.LBB6307:
.LBB6308:
	.loc 1 105 0
	stw 28,340(29)
.LBE6308:
.LBE6307:
.LBE6306:
.LBE6305:
.LBE6304:
.LBE6303:
.LBE6328:
.LBE6333:
.LBE6338:
.LBE6342:
.LBE6346:
.LBE6435:
.LBB6436:
.LBB6432:
.LBB6429:
	.loc 1 516 0
	stw 0,312(29)
.LVL815:
.LBB6409:
.LBB6407:
.LBB6359:
.LBB6358:
	.loc 1 338 0
	mr 3,27
	mtctr 9
	addi 31,29,316
.LEHB88:
	bctrl
.LEHE88:
.LVL816:
.LBE6358:
.LBE6359:
.LBB6360:
	.loc 3 73 0
	lwz 31,328(29)
.LVL817:
.LBE6360:
.LBB6361:
.LBB6362:
.LBB6363:
	.loc 7 671 0
	addi 30,29,320
.LVL818:
.LBE6363:
.LBE6362:
.LBE6361:
	.loc 1 524 0
	cmpw 7,31,30
	beq- 7,.L795
.LVL819:
.L847:
	.loc 1 526 0
	lwz 3,16(31)
	mr 4,27
	lwz 9,0(3)
	lwz 0,16(9)
	mtctr 0
.LEHB89:
	bctrl
.LEHE89:
.LVL820:
.LBB6364:
.LBB6365:
	.loc 7 269 0
	mr 3,31
	bl _ZSt18_Rb_tree_incrementPKSt18_Rb_tree_node_base
.LBE6365:
.LBE6364:
	.loc 1 524 0
	cmpw 7,30,3
.LBB6367:
.LBB6366:
	.loc 7 269 0
	mr 31,3
.LVL821:
.LBE6366:
.LBE6367:
	.loc 1 524 0
	bne+ 7,.L847
.LVL822:
.L795:
.LBB6368:
.LBB6369:
	.loc 8 562 0
	addi 31,29,316
.LVL823:
.LBB6370:
.LBB6371:
.LBB6372:
.LBB6373:
.LBB6374:
.LBB6375:
.LBB6376:
	.loc 7 809 0
	lwz 4,324(29)
	mr 3,31
	bl _ZNSt8_Rb_treeIPN7sigslot12_signal_baseINS0_15single_threadedEEES4_St9_IdentityIS4_ESt4lessIS4_ESaIS4_EE8_M_eraseEPSt13_Rb_tree_nodeIS4_E
.LVL824:
	.loc 7 811 0
	li 0,0
	.loc 7 810 0
	stw 30,328(29)
.LVL825:
.LBE6376:
.LBE6375:
.LBE6374:
.LBE6373:
.LBE6372:
.LBE6371:
.LBE6370:
.LBE6369:
.LBE6368:
.LBB6393:
.LBB6394:
.LBB6395:
	.loc 1 343 0
	mr 3,27
.LBE6395:
.LBE6394:
.LBE6393:
.LBB6400:
.LBB6391:
.LBB6389:
.LBB6387:
.LBB6385:
.LBB6383:
.LBB6381:
.LBB6379:
.LBB6377:
	.loc 7 811 0
	stw 0,324(29)
.LVL826:
	.loc 7 812 0
	stw 30,332(29)
.LBE6377:
.LBE6379:
.LBE6381:
.LBE6383:
.LBE6385:
.LBE6387:
.LBE6389:
.LBE6391:
.LBE6400:
.LBB6401:
.LBB6398:
.LBB6396:
	.loc 1 343 0
	lwz 9,312(29)
.LBE6396:
.LBE6398:
.LBE6401:
.LBB6402:
.LBB6392:
.LBB6390:
.LBB6388:
.LBB6386:
.LBB6384:
.LBB6382:
.LBB6380:
.LBB6378:
	.loc 7 813 0
	stw 0,336(29)
.LVL827:
.LBE6378:
.LBE6380:
.LBE6382:
.LBE6384:
.LBE6386:
.LBE6388:
.LBE6390:
.LBE6392:
.LBE6402:
.LBB6403:
.LBB6399:
.LBB6397:
	.loc 1 343 0
	lwz 0,12(9)
	mtctr 0
.LEHB90:
	bctrl
.LEHE90:
.LVL828:
.LBE6397:
.LBE6399:
.LBE6403:
.LBE6407:
.LBE6409:
.LBB6410:
.LBB6411:
.LBB6412:
.LBB6413:
.LBB6414:
	.loc 7 639 0
	lwz 4,324(29)
	mr 3,31
	bl _ZNSt8_Rb_treeIPN7sigslot12_signal_baseINS0_15single_threadedEEES4_St9_IdentityIS4_ESt4lessIS4_ESaIS4_EE8_M_eraseEPSt13_Rb_tree_nodeIS4_E
.LBE6414:
.LBE6413:
.LBE6412:
.LBE6411:
.LBE6410:
.LBB6415:
.LBB6416:
.LBB6417:
	.loc 1 105 0
	stw 28,312(29)
.LBE6417:
.LBE6416:
.LBE6415:
.LBE6429:
.LBE6432:
.LBE6436:
	.loc 3 48 0
	mr 3,29
.LEHB91:
	bl _ZN9GuiButtonD2Ev
.LEHE91:
.LBE6451:
	.loc 3 58 0
	lwz 0,60(1)
	lwz 25,28(1)
.LVL829:
	mtlr 0
	lwz 26,32(1)
.LVL830:
	lwz 27,36(1)
.LVL831:
	lwz 28,40(1)
	lwz 29,44(1)
.LVL832:
	lwz 30,48(1)
.LVL833:
	lwz 31,52(1)
.LVL834:
	addi 1,1,56
	.cfi_remember_state
.LCFI101:
	.cfi_def_cfa_offset 0
	.cfi_restore 31
	.cfi_restore 30
	.cfi_restore 29
	.cfi_restore 28
	.cfi_restore 27
	.cfi_restore 26
	.cfi_restore 25
	blr
.LVL835:
.L835:
.LCFI102:
	.cfi_restore_state
	mr 30,3
.L658:
.LBB6452:
	.loc 3 48 0
	mr 3,26
	bl _ZN7sigslot7signal1IP4TaskNS_15single_threadedEED1Ev
.LVL836:
.L689:
	addi 3,29,364
	bl _ZN7sigslot7signal1IP4TaskNS_15single_threadedEED1Ev
.LVL837:
.L723:
	addi 3,29,352
	bl _ZN7sigslot7signal1IP4TaskNS_15single_threadedEED1Ev
.LVL838:
.L757:
	addi 3,29,340
	bl _ZN7sigslot7signal2IP4TaskiNS_15single_threadedEED1Ev
.LVL839:
.L791:
	addi 3,29,312
	bl _ZN7sigslot9has_slotsINS_15single_threadedEED2Ev
.L818:
	mr 3,29
	bl _ZN9GuiButtonD2Ev
	mr 3,30
.LEHB92:
	bl _Unwind_Resume
.LEHE92:
.LVL840:
.L846:
.LBB6437:
.LBB6433:
.LBB6430:
.LBB6418:
.LBB6408:
.LBB6404:
.LBB6405:
.LBB6406:
	.loc 1 343 0
	lwz 9,312(29)
	mr 30,3
.LVL841:
	mr 3,27
	addi 31,29,316
.LVL842:
	lwz 0,12(9)
	mtctr 0
	bctrl
.LVL843:
.L805:
.LBE6406:
.LBE6405:
.LBE6404:
.LBE6408:
.LBE6418:
.LBB6419:
.LBB6420:
.LBB6421:
.LBB6422:
.LBB6423:
.LBB6424:
	.loc 7 639 0
	lwz 4,324(29)
	mr 3,31
	bl _ZNSt8_Rb_treeIPN7sigslot12_signal_baseINS0_15single_threadedEEES4_St9_IdentityIS4_ESt4lessIS4_ESaIS4_EE8_M_eraseEPSt13_Rb_tree_nodeIS4_E
.LBE6424:
.LBE6423:
.LBE6422:
.LBE6421:
.LBE6420:
.LBE6419:
.LBB6425:
.LBB6426:
.LBB6427:
	.loc 1 105 0
	stw 28,312(29)
	b .L818
.LVL844:
.L845:
	mr 30,3
	b .L805
.LVL845:
.L844:
.LBE6427:
.LBE6426:
.LBE6425:
.LBE6430:
.LBE6433:
.LBE6437:
.LBB6438:
.LBB6347:
.LBB6343:
.LBB6339:
.LBB6334:
.LBB6329:
.LBB6309:
.LBB6291:
.LBB6285:
.LBB6286:
.LBB6287:
	.loc 1 343 0
	lwz 9,340(29)
	mr 30,3
.LVL846:
	mr 3,26
	lwz 0,12(9)
	mtctr 0
	bctrl
.LVL847:
.L771:
.LBE6287:
.LBE6286:
.LBE6285:
.LBE6291:
.LBE6309:
.LBB6310:
.LBB6311:
.LBB6312:
.LBB6313:
.LBB6314:
.LBB6315:
	.loc 9 70 0
	lwz 3,344(29)
.LVL848:
	.loc 9 71 0
	cmpw 7,27,3
	beq- 7,.L788
.LVL849:
.L878:
.LBB6316:
	.loc 9 74 0
	lwz 31,0(3)
.LVL850:
.LBB6317:
.LBB6318:
.LBB6319:
	.loc 5 98 0
	bl _ZdlPv
.LVL851:
.LBE6319:
.LBE6318:
.LBE6317:
.LBE6316:
	.loc 9 71 0
	cmpw 7,27,31
	beq- 7,.L788
	.loc 9 74 0
	mr 3,31
	b .L878
.LVL852:
.L843:
	mr 30,3
	b .L771
.LVL853:
.L839:
	mr 30,3
.L703:
.LBE6315:
.LBE6314:
.LBE6313:
.LBE6312:
.LBE6311:
.LBE6310:
.LBE6329:
.LBE6334:
.LBE6339:
.LBE6343:
.LBE6347:
.LBE6438:
.LBB6439:
.LBB6138:
.LBB6132:
.LBB6126:
.LBB6120:
.LBB6114:
.LBB6094:
.LBB6095:
.LBB6096:
.LBB6097:
.LBB6098:
.LBB6099:
	.loc 9 70 0
	lwz 3,368(29)
.LVL854:
	.loc 9 71 0
	cmpw 7,3,26
	beq- 7,.L720
.LVL855:
.L868:
.LBB6100:
	.loc 9 74 0
	lwz 31,0(3)
.LVL856:
.LBB6101:
.LBB6102:
.LBB6103:
	.loc 5 98 0
	bl _ZdlPv
.LVL857:
.LBE6103:
.LBE6102:
.LBE6101:
.LBE6100:
	.loc 9 71 0
	cmpw 7,31,26
	beq- 7,.L720
	.loc 9 74 0
	mr 3,31
	b .L868
.LVL858:
.L838:
.LBE6099:
.LBE6098:
.LBE6097:
.LBE6096:
.LBE6095:
.LBE6094:
.LBE6114:
.LBE6120:
.LBE6126:
.LBE6132:
.LBE6138:
.LBE6439:
.LBB6440:
.LBB6029:
.LBB6025:
.LBB6021:
.LBB6017:
.LBB6013:
.LBB5994:
.LBB5963:
.LBB5956:
.LBB5957:
.LBB5958:
	.loc 1 343 0
	lwz 9,376(29)
	mr 30,3
.LVL859:
	mr 3,26
	lwz 0,12(9)
	mtctr 0
	bctrl
.LVL860:
.L669:
.LBE5958:
.LBE5957:
.LBE5956:
.LBE5963:
.LBE5994:
.LBB5995:
.LBB5996:
.LBB5997:
.LBB5998:
.LBB5999:
.LBB6000:
	.loc 9 70 0
	lwz 3,380(29)
.LVL861:
	.loc 9 71 0
	cmpw 7,3,28
	beq- 7,.L686
.LVL862:
.L863:
.LBB6001:
	.loc 9 74 0
	lwz 31,0(3)
.LVL863:
.LBB6002:
.LBB6003:
.LBB6004:
	.loc 5 98 0
	bl _ZdlPv
.LVL864:
.LBE6004:
.LBE6003:
.LBE6002:
.LBE6001:
	.loc 9 71 0
	cmpw 7,31,28
	beq- 7,.L686
	.loc 9 74 0
	mr 3,31
	b .L863
.LVL865:
.L720:
.LBE6000:
.LBE5999:
.LBE5998:
.LBE5997:
.LBE5996:
.LBE5995:
.LBE6013:
.LBE6017:
.LBE6021:
.LBE6025:
.LBE6029:
.LBE6440:
.LBB6441:
.LBB6139:
.LBB6133:
.LBB6127:
.LBB6121:
.LBB6115:
.LBB6104:
.LBB6105:
.LBB6106:
.LBB6107:
.LBB6108:
.LBB6109:
	.loc 1 105 0
	stw 28,364(29)
	b .L723
.LVL866:
.L686:
.LBE6109:
.LBE6108:
.LBE6107:
.LBE6106:
.LBE6105:
.LBE6104:
.LBE6115:
.LBE6121:
.LBE6127:
.LBE6133:
.LBE6139:
.LBE6441:
.LBB6442:
.LBB6030:
.LBB6026:
.LBB6022:
.LBB6018:
.LBB6014:
.LBB6005:
.LBB6006:
.LBB6007:
.LBB6008:
.LBB6009:
.LBB6010:
	lis 9,_ZTVN7sigslot15single_threadedE+8@ha
	la 0,_ZTVN7sigslot15single_threadedE+8@l(9)
	stw 0,376(29)
	b .L689
.LVL867:
.L837:
	mr 30,3
	b .L669
.LVL868:
.L836:
.LBE6010:
.LBE6009:
.LBE6008:
.LBE6007:
.LBE6006:
.LBE6005:
.LBE6014:
.LBE6018:
.LBE6022:
.LBE6026:
.LBE6030:
.LBE6442:
.LBB6443:
.LBB5918:
.LBB5914:
.LBB5915:
.LBB5916:
	.loc 1 343 0
	lwz 9,376(29)
	mr 30,3
.LVL869:
	mr 3,26
	lwz 0,12(9)
	mtctr 0
	bctrl
	b .L658
.LVL870:
.L841:
	mr 30,3
.L737:
.LBE5916:
.LBE5915:
.LBE5914:
.LBE5918:
.LBE6443:
.LBB6444:
.LBB6246:
.LBB6242:
.LBB6238:
.LBB6233:
.LBB6228:
.LBB6208:
.LBB6209:
.LBB6210:
.LBB6211:
.LBB6212:
.LBB6213:
	.loc 9 70 0
	lwz 3,356(29)
.LVL871:
	.loc 9 71 0
	cmpw 7,3,27
	beq- 7,.L754
.LVL872:
.L873:
.LBB6214:
	.loc 9 74 0
	lwz 31,0(3)
.LVL873:
.LBB6215:
.LBB6216:
.LBB6217:
	.loc 5 98 0
	bl _ZdlPv
.LVL874:
.LBE6217:
.LBE6216:
.LBE6215:
.LBE6214:
	.loc 9 71 0
	cmpw 7,31,27
	beq- 7,.L754
	.loc 9 74 0
	mr 3,31
	b .L873
.LVL875:
.L840:
.LBE6213:
.LBE6212:
.LBE6211:
.LBE6210:
.LBE6209:
.LBE6208:
.LBE6228:
.LBE6233:
.LBE6238:
.LBE6242:
.LBE6246:
.LBE6444:
.LBB6445:
.LBB6140:
.LBB6134:
.LBB6128:
.LBB6122:
.LBB6116:
.LBB6110:
.LBB6075:
.LBB6068:
.LBB6069:
.LBB6070:
	.loc 1 343 0
	lwz 9,364(29)
	mr 30,3
.LVL876:
	mr 3,25
	lwz 0,12(9)
	mtctr 0
	bctrl
	b .L703
.LVL877:
.L754:
.LBE6070:
.LBE6069:
.LBE6068:
.LBE6075:
.LBE6110:
.LBE6116:
.LBE6122:
.LBE6128:
.LBE6134:
.LBE6140:
.LBE6445:
.LBB6446:
.LBB6247:
.LBB6243:
.LBB6239:
.LBB6234:
.LBB6229:
.LBB6218:
.LBB6219:
.LBB6220:
.LBB6221:
.LBB6222:
.LBB6223:
	.loc 1 105 0
	stw 28,352(29)
	b .L757
.LVL878:
.L842:
.LBE6223:
.LBE6222:
.LBE6221:
.LBE6220:
.LBE6219:
.LBE6218:
.LBB6224:
.LBB6189:
.LBB6182:
.LBB6183:
.LBB6184:
	.loc 1 343 0
	lwz 9,352(29)
	mr 30,3
.LVL879:
	mr 3,26
	lwz 0,12(9)
	mtctr 0
	bctrl
	b .L737
.LVL880:
.L788:
.LBE6184:
.LBE6183:
.LBE6182:
.LBE6189:
.LBE6224:
.LBE6229:
.LBE6234:
.LBE6239:
.LBE6243:
.LBE6247:
.LBE6446:
.LBB6447:
.LBB6348:
.LBB6344:
.LBB6340:
.LBB6335:
.LBB6330:
.LBB6320:
.LBB6321:
.LBB6322:
.LBB6323:
.LBB6324:
.LBB6325:
	.loc 1 105 0
	stw 28,340(29)
	b .L791
.LBE6325:
.LBE6324:
.LBE6323:
.LBE6322:
.LBE6321:
.LBE6320:
.LBE6330:
.LBE6335:
.LBE6340:
.LBE6344:
.LBE6348:
.LBE6447:
.LBE6452:
	.cfi_endproc
.LFE1474:
	.section	.gcc_except_table
.LLSDA1474:
	.byte	0xff
	.byte	0xff
	.byte	0x1
	.uleb128 .LLSDACSE1474-.LLSDACSB1474
.LLSDACSB1474:
	.uleb128 .LEHB73-.LFB1474
	.uleb128 .LEHE73-.LEHB73
	.uleb128 .L835-.LFB1474
	.uleb128 0
	.uleb128 .LEHB74-.LFB1474
	.uleb128 .LEHE74-.LEHB74
	.uleb128 .L836-.LFB1474
	.uleb128 0
	.uleb128 .LEHB75-.LFB1474
	.uleb128 .LEHE75-.LEHB75
	.uleb128 .L835-.LFB1474
	.uleb128 0
	.uleb128 .LEHB76-.LFB1474
	.uleb128 .LEHE76-.LEHB76
	.uleb128 .L837-.LFB1474
	.uleb128 0
	.uleb128 .LEHB77-.LFB1474
	.uleb128 .LEHE77-.LEHB77
	.uleb128 .L838-.LFB1474
	.uleb128 0
	.uleb128 .LEHB78-.LFB1474
	.uleb128 .LEHE78-.LEHB78
	.uleb128 .L837-.LFB1474
	.uleb128 0
	.uleb128 .LEHB79-.LFB1474
	.uleb128 .LEHE79-.LEHB79
	.uleb128 .L839-.LFB1474
	.uleb128 0
	.uleb128 .LEHB80-.LFB1474
	.uleb128 .LEHE80-.LEHB80
	.uleb128 .L840-.LFB1474
	.uleb128 0
	.uleb128 .LEHB81-.LFB1474
	.uleb128 .LEHE81-.LEHB81
	.uleb128 .L839-.LFB1474
	.uleb128 0
	.uleb128 .LEHB82-.LFB1474
	.uleb128 .LEHE82-.LEHB82
	.uleb128 .L841-.LFB1474
	.uleb128 0
	.uleb128 .LEHB83-.LFB1474
	.uleb128 .LEHE83-.LEHB83
	.uleb128 .L842-.LFB1474
	.uleb128 0
	.uleb128 .LEHB84-.LFB1474
	.uleb128 .LEHE84-.LEHB84
	.uleb128 .L841-.LFB1474
	.uleb128 0
	.uleb128 .LEHB85-.LFB1474
	.uleb128 .LEHE85-.LEHB85
	.uleb128 .L843-.LFB1474
	.uleb128 0
	.uleb128 .LEHB86-.LFB1474
	.uleb128 .LEHE86-.LEHB86
	.uleb128 .L844-.LFB1474
	.uleb128 0
	.uleb128 .LEHB87-.LFB1474
	.uleb128 .LEHE87-.LEHB87
	.uleb128 .L843-.LFB1474
	.uleb128 0
	.uleb128 .LEHB88-.LFB1474
	.uleb128 .LEHE88-.LEHB88
	.uleb128 .L845-.LFB1474
	.uleb128 0
	.uleb128 .LEHB89-.LFB1474
	.uleb128 .LEHE89-.LEHB89
	.uleb128 .L846-.LFB1474
	.uleb128 0
	.uleb128 .LEHB90-.LFB1474
	.uleb128 .LEHE90-.LEHB90
	.uleb128 .L845-.LFB1474
	.uleb128 0
	.uleb128 .LEHB91-.LFB1474
	.uleb128 .LEHE91-.LEHB91
	.uleb128 0
	.uleb128 0
	.uleb128 .LEHB92-.LFB1474
	.uleb128 .LEHE92-.LEHB92
	.uleb128 0
	.uleb128 0
.LLSDACSE1474:
	.section	".text"
	.size	_ZN4TaskD2Ev, .-_ZN4TaskD2Ev
	.align 2
	.globl _ZThn312_N4TaskD0Ev
	.type	_ZThn312_N4TaskD0Ev, @function
_ZThn312_N4TaskD0Ev:
.LFB2244:
	.cfi_startproc
	addi 3,3,-312
	b .LTHUNK1
	.cfi_endproc
.LFE2244:
	.size	_ZThn312_N4TaskD0Ev, .-_ZThn312_N4TaskD0Ev
	.align 2
	.globl _ZN4TaskD0Ev
	.type	_ZN4TaskD0Ev, @function
_ZN4TaskD0Ev:
.LFB1476:
	.loc 3 48 0
	.cfi_startproc
.LVL881:
	stwu 1,-16(1)
.LCFI103:
	.cfi_def_cfa_offset 16
	mflr 0
	stw 31,12(1)
	mr 31,3
	.cfi_offset 31, -4
	.cfi_register 65, 0
	stw 0,20(1)
	.loc 3 58 0
	.cfi_offset 65, 4
	bl _ZN4TaskD1Ev
.LVL882:
	mr 3,31
	bl _ZdlPv
	lwz 0,20(1)
	lwz 31,12(1)
.LVL883:
	mtlr 0
	addi 1,1,16
.LCFI104:
	.cfi_def_cfa_offset 0
	.cfi_restore 31
	blr
	.cfi_endproc
.LFE1476:
	.size	_ZN4TaskD0Ev, .-_ZN4TaskD0Ev
	.section	.text._ZN7sigslot13_signal_base1IP4TaskNS_15single_threadedEED0Ev,"axG",@progbits,_ZN7sigslot13_signal_base1IP4TaskNS_15single_threadedEED5Ev,comdat
	.align 2
	.weak	_ZN7sigslot13_signal_base1IP4TaskNS_15single_threadedEED0Ev
	.type	_ZN7sigslot13_signal_base1IP4TaskNS_15single_threadedEED0Ev, @function
_ZN7sigslot13_signal_base1IP4TaskNS_15single_threadedEED0Ev:
.LFB1612:
	.loc 1 702 0
	.cfi_startproc
	.cfi_personality 0,__gxx_personality_v0
	.cfi_lsda 0,.LLSDA1612
.LVL884:
	mflr 0
	stwu 1,-40(1)
.LCFI105:
	.cfi_def_cfa_offset 40
	.cfi_register 65, 0
.LBB6548:
.LBB6549:
.LBB6550:
	.loc 1 705 0
	lis 9,_ZTVN7sigslot13_signal_base1IP4TaskNS_15single_threadedEEE+8@ha
.LBE6550:
.LBE6549:
.LBE6548:
	.loc 1 702 0
	stw 28,24(1)
	mr 28,3
	.cfi_offset 28, -16
.LVL885:
	stw 0,44(1)
.LBB6635:
.LBB6631:
.LBB6627:
	.loc 1 705 0
	la 0,_ZTVN7sigslot13_signal_base1IP4TaskNS_15single_threadedEEE+8@l(9)
	.cfi_offset 65, 4
.LBE6627:
.LBE6631:
.LBE6635:
	.loc 1 702 0
	stw 29,28(1)
	addi 29,3,4
	.cfi_offset 29, -12
	stw 30,32(1)
	stw 31,36(1)
.LBB6636:
.LBB6632:
.LBB6628:
	.loc 1 705 0
	stw 0,0(3)
.LVL886:
.LEHB93:
.LBB6551:
.LBB6552:
.LBB6553:
.LBB6554:
	.loc 1 338 0
	.cfi_offset 31, -4
	.cfi_offset 30, -8
	bl _ZN7sigslot15single_threaded4lockEv
.LEHE93:
.LVL887:
.LBE6554:
.LBE6553:
.LBE6552:
	.loc 3 73 0
	mr 29,28
.LVL888:
	lwzu 31,4(29)
.LVL889:
.LBB6585:
	.loc 1 713 0
	cmpw 7,31,29
	beq- 7,.L883
.LVL890:
.L921:
	.loc 1 715 0
	lwz 3,8(31)
	lwz 9,0(3)
	lwz 0,8(9)
	mtctr 0
.LEHB94:
	bctrl
.LBB6555:
.LBB6556:
.LBB6557:
.LBB6558:
	.loc 1 338 0
	lwz 9,0(3)
.LBE6558:
.LBE6557:
.LBE6556:
.LBE6555:
	.loc 1 715 0
	mr 30,3
.LVL891:
	stw 28,8(1)
.LVL892:
.LBB6567:
.LBB6566:
.LBB6560:
.LBB6559:
	.loc 1 338 0
	lwz 0,8(9)
	mtctr 0
	bctrl
.LVL893:
.LBE6559:
.LBE6560:
.LBB6561:
.LBB6562:
	.loc 8 528 0
	addi 3,30,4
	addi 4,1,8
	bl _ZNSt8_Rb_treeIPN7sigslot12_signal_baseINS0_15single_threadedEEES4_St9_IdentityIS4_ESt4lessIS4_ESaIS4_EE5eraseERKS4_
.LVL894:
.LBE6562:
.LBE6561:
.LBB6563:
.LBB6564:
.LBB6565:
	.loc 1 343 0
	lwz 9,0(30)
	mr 3,30
	lwz 0,12(9)
	mtctr 0
	bctrl
.LVL895:
.LBE6565:
.LBE6564:
.LBE6563:
.LBE6566:
.LBE6567:
	.loc 1 716 0
	lwz 3,8(31)
	cmpwi 7,3,0
	beq- 7,.L885
	lwz 9,0(3)
	lwz 0,4(9)
	mtctr 0
	bctrl
.LEHE94:
.L885:
.LVL896:
.LBB6568:
.LBB6569:
	.loc 4 234 0
	lwz 31,0(31)
.LVL897:
.LBE6569:
.LBE6568:
	.loc 1 713 0
	cmpw 7,29,31
	bne+ 7,.L921
.LBE6585:
	.loc 3 73 0
	lwz 31,4(28)
.LVL898:
.LBB6586:
.LBB6570:
.LBB6571:
	.loc 4 1162 0
	cmpw 7,29,31
	bne+ 7,.L923
	b .L883
.LVL899:
.L916:
	.loc 4 1163 0
	mr 31,30
.LVL900:
.L923:
.LBB6572:
.LBB6573:
	.loc 9 112 0
	lwz 30,0(31)
.LVL901:
.LBB6574:
.LBB6575:
	.loc 4 1532 0
	mr 3,31
	bl _ZNSt8__detail15_List_node_base9_M_unhookEv
.LVL902:
.LBB6576:
.LBB6577:
.LBB6578:
	.loc 5 98 0
	mr 3,31
	bl _ZdlPv
.LVL903:
.LBE6578:
.LBE6577:
.LBE6576:
.LBE6575:
.LBE6574:
.LBE6573:
.LBE6572:
	.loc 4 1162 0
	cmpw 7,29,30
	bne+ 7,.L916
.LVL904:
.L883:
.LBE6571:
.LBE6570:
.LBB6579:
.LBB6580:
.LBB6581:
	.loc 1 343 0
	lwz 9,0(28)
	mr 3,28
	lwz 0,12(9)
	mtctr 0
.LEHB95:
	bctrl
.LEHE95:
.LVL905:
.LBE6581:
.LBE6580:
.LBE6579:
.LBE6586:
.LBE6551:
.LBB6588:
.LBB6589:
.LBB6590:
.LBB6591:
.LBB6592:
.LBB6593:
	.loc 9 70 0
	lwz 3,4(28)
.LVL906:
	.loc 9 71 0
	cmpw 7,3,29
	bne+ 7,.L925
	b .L901
.LVL907:
.L917:
	.loc 9 74 0
	mr 3,31
.LVL908:
.L925:
.LBB6594:
	lwz 31,0(3)
.LVL909:
.LBB6595:
.LBB6596:
.LBB6597:
	.loc 5 98 0
	bl _ZdlPv
.LVL910:
.LBE6597:
.LBE6596:
.LBE6595:
.LBE6594:
	.loc 9 71 0
	cmpw 7,31,29
	bne+ 7,.L917
.LVL911:
.L901:
.LBE6593:
.LBE6592:
.LBE6591:
.LBE6590:
.LBE6589:
.LBE6588:
.LBB6598:
.LBB6599:
.LBB6600:
.LBB6601:
.LBB6602:
.LBB6603:
	.loc 1 105 0
	lis 9,_ZTVN7sigslot15single_threadedE+8@ha
.LBE6603:
.LBE6602:
.LBE6601:
.LBE6600:
.LBE6599:
.LBE6598:
.LBE6628:
.LBE6632:
.LBE6636:
	.loc 1 705 0
	mr 3,28
.LBB6637:
.LBB6633:
.LBB6629:
.LBB6609:
.LBB6608:
.LBB6607:
.LBB6606:
.LBB6605:
.LBB6604:
	.loc 1 105 0
	la 0,_ZTVN7sigslot15single_threadedE+8@l(9)
	stw 0,0(28)
.LBE6604:
.LBE6605:
.LBE6606:
.LBE6607:
.LBE6608:
.LBE6609:
.LBE6629:
.LBE6633:
.LBE6637:
	.loc 1 705 0
	bl _ZdlPv
	lwz 0,44(1)
	lwz 28,24(1)
.LVL912:
	mtlr 0
	lwz 29,28(1)
.LVL913:
	lwz 30,32(1)
	lwz 31,36(1)
	addi 1,1,40
	.cfi_remember_state
.LCFI106:
	.cfi_def_cfa_offset 0
	.cfi_restore 31
	.cfi_restore 30
	.cfi_restore 29
	.cfi_restore 28
	blr
.LVL914:
.L919:
.LCFI107:
	.cfi_restore_state
	mr 31,3
.L893:
.LVL915:
.LBB6638:
.LBB6634:
.LBB6630:
.LBB6610:
.LBB6611:
.LBB6612:
.LBB6613:
.LBB6614:
.LBB6615:
	.loc 9 70 0
	lwz 3,4(28)
.LVL916:
	.loc 9 71 0
	cmpw 7,3,29
	beq- 7,.L910
.LVL917:
.L926:
.LBB6616:
	.loc 9 74 0
	lwz 30,0(3)
.LVL918:
.LBB6617:
.LBB6618:
.LBB6619:
	.loc 5 98 0
	bl _ZdlPv
.LVL919:
.LBE6619:
.LBE6618:
.LBE6617:
.LBE6616:
	.loc 9 71 0
	cmpw 7,30,29
	beq- 7,.L910
	.loc 9 74 0
	mr 3,30
	b .L926
.LVL920:
.L920:
.LBE6615:
.LBE6614:
.LBE6613:
.LBE6612:
.LBE6611:
.LBE6610:
.LBB6620:
.LBB6587:
.LBB6582:
.LBB6583:
.LBB6584:
	.loc 1 343 0
	lwz 9,0(28)
	mr 31,3
.LVL921:
	mr 3,28
	lwz 0,12(9)
	mtctr 0
	bctrl
	b .L893
.LVL922:
.L910:
.LBE6584:
.LBE6583:
.LBE6582:
.LBE6587:
.LBE6620:
.LBB6621:
.LBB6622:
.LBB6623:
.LBB6624:
.LBB6625:
.LBB6626:
	.loc 1 105 0
	lis 9,_ZTVN7sigslot15single_threadedE+8@ha
	mr 3,31
	la 0,_ZTVN7sigslot15single_threadedE+8@l(9)
	stw 0,0(28)
.LEHB96:
	bl _Unwind_Resume
.LEHE96:
.LBE6626:
.LBE6625:
.LBE6624:
.LBE6623:
.LBE6622:
.LBE6621:
.LBE6630:
.LBE6634:
.LBE6638:
	.cfi_endproc
.LFE1612:
	.section	.gcc_except_table
.LLSDA1612:
	.byte	0xff
	.byte	0xff
	.byte	0x1
	.uleb128 .LLSDACSE1612-.LLSDACSB1612
.LLSDACSB1612:
	.uleb128 .LEHB93-.LFB1612
	.uleb128 .LEHE93-.LEHB93
	.uleb128 .L919-.LFB1612
	.uleb128 0
	.uleb128 .LEHB94-.LFB1612
	.uleb128 .LEHE94-.LEHB94
	.uleb128 .L920-.LFB1612
	.uleb128 0
	.uleb128 .LEHB95-.LFB1612
	.uleb128 .LEHE95-.LEHB95
	.uleb128 .L919-.LFB1612
	.uleb128 0
	.uleb128 .LEHB96-.LFB1612
	.uleb128 .LEHE96-.LEHB96
	.uleb128 0
	.uleb128 0
.LLSDACSE1612:
	.section	.text._ZN7sigslot13_signal_base1IP4TaskNS_15single_threadedEED0Ev,"axG",@progbits,_ZN7sigslot13_signal_base1IP4TaskNS_15single_threadedEED5Ev,comdat
	.size	_ZN7sigslot13_signal_base1IP4TaskNS_15single_threadedEED0Ev, .-_ZN7sigslot13_signal_base1IP4TaskNS_15single_threadedEED0Ev
	.section	.text._ZN7sigslot7signal1IP4TaskNS_15single_threadedEED0Ev,"axG",@progbits,_ZN7sigslot7signal1IP4TaskNS_15single_threadedEED5Ev,comdat
	.align 2
	.weak	_ZN7sigslot7signal1IP4TaskNS_15single_threadedEED0Ev
	.type	_ZN7sigslot7signal1IP4TaskNS_15single_threadedEED0Ev, @function
_ZN7sigslot7signal1IP4TaskNS_15single_threadedEED0Ev:
.LFB1528:
	.loc 1 2169 0
	.cfi_startproc
	.cfi_personality 0,__gxx_personality_v0
	.cfi_lsda 0,.LLSDA1528
.LVL923:
	mflr 0
	stwu 1,-40(1)
.LCFI108:
	.cfi_def_cfa_offset 40
	.cfi_register 65, 0
.LBB6737:
.LBB6738:
.LBB6739:
.LBB6740:
.LBB6741:
.LBB6742:
	.loc 1 705 0
	lis 9,_ZTVN7sigslot13_signal_base1IP4TaskNS_15single_threadedEEE+8@ha
.LBE6742:
.LBE6741:
.LBE6740:
.LBE6739:
.LBE6738:
.LBE6737:
	.loc 1 2169 0
	stw 28,24(1)
	mr 28,3
	.cfi_offset 28, -16
.LVL924:
	stw 0,44(1)
.LBB6839:
.LBB6835:
.LBB6831:
.LBB6827:
.LBB6823:
.LBB6819:
	.loc 1 705 0
	la 0,_ZTVN7sigslot13_signal_base1IP4TaskNS_15single_threadedEEE+8@l(9)
	.cfi_offset 65, 4
.LBE6819:
.LBE6823:
.LBE6827:
.LBE6831:
.LBE6835:
.LBE6839:
	.loc 1 2169 0
	stw 29,28(1)
	addi 29,3,4
	.cfi_offset 29, -12
	stw 30,32(1)
	stw 31,36(1)
.LBB6840:
.LBB6836:
.LBB6832:
.LBB6828:
.LBB6824:
.LBB6820:
	.loc 1 705 0
	stw 0,0(3)
.LVL925:
.LEHB97:
.LBB6743:
.LBB6744:
.LBB6745:
.LBB6746:
	.loc 1 338 0
	.cfi_offset 31, -4
	.cfi_offset 30, -8
	bl _ZN7sigslot15single_threaded4lockEv
.LEHE97:
.LVL926:
.LBE6746:
.LBE6745:
.LBE6744:
	.loc 3 73 0
	mr 29,28
.LVL927:
	lwzu 31,4(29)
.LVL928:
.LBB6777:
	.loc 1 713 0
	cmpw 7,31,29
	beq- 7,.L928
.LVL929:
.L967:
	.loc 1 715 0
	lwz 3,8(31)
	lwz 9,0(3)
	lwz 0,8(9)
	mtctr 0
.LEHB98:
	bctrl
.LBB6747:
.LBB6748:
.LBB6749:
.LBB6750:
	.loc 1 338 0
	lwz 9,0(3)
.LBE6750:
.LBE6749:
.LBE6748:
.LBE6747:
	.loc 1 715 0
	mr 30,3
.LVL930:
	stw 28,8(1)
.LVL931:
.LBB6759:
.LBB6758:
.LBB6752:
.LBB6751:
	.loc 1 338 0
	lwz 0,8(9)
	mtctr 0
	bctrl
.LVL932:
.LBE6751:
.LBE6752:
.LBB6753:
.LBB6754:
	.loc 8 528 0
	addi 3,30,4
	addi 4,1,8
	bl _ZNSt8_Rb_treeIPN7sigslot12_signal_baseINS0_15single_threadedEEES4_St9_IdentityIS4_ESt4lessIS4_ESaIS4_EE5eraseERKS4_
.LVL933:
.LBE6754:
.LBE6753:
.LBB6755:
.LBB6756:
.LBB6757:
	.loc 1 343 0
	lwz 9,0(30)
	mr 3,30
	lwz 0,12(9)
	mtctr 0
	bctrl
.LVL934:
.LBE6757:
.LBE6756:
.LBE6755:
.LBE6758:
.LBE6759:
	.loc 1 716 0
	lwz 3,8(31)
	cmpwi 7,3,0
	beq- 7,.L930
	lwz 9,0(3)
	lwz 0,4(9)
	mtctr 0
	bctrl
.LEHE98:
.L930:
.LVL935:
.LBB6760:
.LBB6761:
	.loc 4 234 0
	lwz 31,0(31)
.LVL936:
.LBE6761:
.LBE6760:
	.loc 1 713 0
	cmpw 7,29,31
	bne+ 7,.L967
.LBE6777:
	.loc 3 73 0
	lwz 31,4(28)
.LVL937:
.LBB6778:
.LBB6762:
.LBB6763:
	.loc 4 1162 0
	cmpw 7,29,31
	bne+ 7,.L969
	b .L928
.LVL938:
.L962:
	.loc 4 1163 0
	mr 31,30
.LVL939:
.L969:
.LBB6764:
.LBB6765:
	.loc 9 112 0
	lwz 30,0(31)
.LVL940:
.LBB6766:
.LBB6767:
	.loc 4 1532 0
	mr 3,31
	bl _ZNSt8__detail15_List_node_base9_M_unhookEv
.LVL941:
.LBB6768:
.LBB6769:
.LBB6770:
	.loc 5 98 0
	mr 3,31
	bl _ZdlPv
.LVL942:
.LBE6770:
.LBE6769:
.LBE6768:
.LBE6767:
.LBE6766:
.LBE6765:
.LBE6764:
	.loc 4 1162 0
	cmpw 7,29,30
	bne+ 7,.L962
.LVL943:
.L928:
.LBE6763:
.LBE6762:
.LBB6771:
.LBB6772:
.LBB6773:
	.loc 1 343 0
	lwz 9,0(28)
	mr 3,28
	lwz 0,12(9)
	mtctr 0
.LEHB99:
	bctrl
.LEHE99:
.LBE6773:
.LBE6772:
.LBE6771:
.LBE6778:
.LBE6743:
.LBB6780:
.LBB6781:
.LBB6782:
.LBB6783:
.LBB6784:
.LBB6785:
	.loc 9 70 0
	lwz 3,4(28)
.LVL944:
	.loc 9 71 0
	cmpw 7,3,29
	bne+ 7,.L971
	b .L946
.LVL945:
.L963:
	.loc 9 74 0
	mr 3,31
.LVL946:
.L971:
.LBB6786:
	lwz 31,0(3)
.LVL947:
.LBB6787:
.LBB6788:
.LBB6789:
	.loc 5 98 0
	bl _ZdlPv
.LVL948:
.LBE6789:
.LBE6788:
.LBE6787:
.LBE6786:
	.loc 9 71 0
	cmpw 7,31,29
	bne+ 7,.L963
.LVL949:
.L946:
.LBE6785:
.LBE6784:
.LBE6783:
.LBE6782:
.LBE6781:
.LBE6780:
.LBB6790:
.LBB6791:
.LBB6792:
.LBB6793:
.LBB6794:
.LBB6795:
	.loc 1 105 0
	lis 9,_ZTVN7sigslot15single_threadedE+8@ha
.LBE6795:
.LBE6794:
.LBE6793:
.LBE6792:
.LBE6791:
.LBE6790:
.LBE6820:
.LBE6824:
.LBE6828:
.LBE6832:
.LBE6836:
.LBE6840:
	.loc 1 2172 0
	mr 3,28
.LBB6841:
.LBB6837:
.LBB6833:
.LBB6829:
.LBB6825:
.LBB6821:
.LBB6801:
.LBB6800:
.LBB6799:
.LBB6798:
.LBB6797:
.LBB6796:
	.loc 1 105 0
	la 0,_ZTVN7sigslot15single_threadedE+8@l(9)
	stw 0,0(28)
.LBE6796:
.LBE6797:
.LBE6798:
.LBE6799:
.LBE6800:
.LBE6801:
.LBE6821:
.LBE6825:
.LBE6829:
.LBE6833:
.LBE6837:
.LBE6841:
	.loc 1 2172 0
	bl _ZdlPv
	lwz 0,44(1)
	lwz 28,24(1)
.LVL950:
	mtlr 0
	lwz 29,28(1)
.LVL951:
	lwz 30,32(1)
	lwz 31,36(1)
	addi 1,1,40
	.cfi_remember_state
.LCFI109:
	.cfi_def_cfa_offset 0
	.cfi_restore 31
	.cfi_restore 30
	.cfi_restore 29
	.cfi_restore 28
	blr
.LVL952:
.L965:
.LCFI110:
	.cfi_restore_state
	mr 31,3
.L938:
.LBB6842:
.LBB6838:
.LBB6834:
.LBB6830:
.LBB6826:
.LBB6822:
.LBB6802:
.LBB6803:
.LBB6804:
.LBB6805:
.LBB6806:
.LBB6807:
	.loc 9 70 0
	lwz 3,4(28)
.LVL953:
	.loc 9 71 0
	cmpw 7,3,29
	beq- 7,.L955
.LVL954:
.L972:
.LBB6808:
	.loc 9 74 0
	lwz 30,0(3)
.LVL955:
.LBB6809:
.LBB6810:
.LBB6811:
	.loc 5 98 0
	bl _ZdlPv
.LVL956:
.LBE6811:
.LBE6810:
.LBE6809:
.LBE6808:
	.loc 9 71 0
	cmpw 7,30,29
	beq- 7,.L955
	.loc 9 74 0
	mr 3,30
	b .L972
.LVL957:
.L966:
.LBE6807:
.LBE6806:
.LBE6805:
.LBE6804:
.LBE6803:
.LBE6802:
.LBB6812:
.LBB6779:
.LBB6774:
.LBB6775:
.LBB6776:
	.loc 1 343 0
	lwz 9,0(28)
	mr 31,3
.LVL958:
	mr 3,28
	lwz 0,12(9)
	mtctr 0
	bctrl
	b .L938
.LVL959:
.L955:
.LBE6776:
.LBE6775:
.LBE6774:
.LBE6779:
.LBE6812:
.LBB6813:
.LBB6814:
.LBB6815:
.LBB6816:
.LBB6817:
.LBB6818:
	.loc 1 105 0
	lis 9,_ZTVN7sigslot15single_threadedE+8@ha
	mr 3,31
	la 0,_ZTVN7sigslot15single_threadedE+8@l(9)
	stw 0,0(28)
.LEHB100:
	bl _Unwind_Resume
.LEHE100:
.LBE6818:
.LBE6817:
.LBE6816:
.LBE6815:
.LBE6814:
.LBE6813:
.LBE6822:
.LBE6826:
.LBE6830:
.LBE6834:
.LBE6838:
.LBE6842:
	.cfi_endproc
.LFE1528:
	.section	.gcc_except_table
.LLSDA1528:
	.byte	0xff
	.byte	0xff
	.byte	0x1
	.uleb128 .LLSDACSE1528-.LLSDACSB1528
.LLSDACSB1528:
	.uleb128 .LEHB97-.LFB1528
	.uleb128 .LEHE97-.LEHB97
	.uleb128 .L965-.LFB1528
	.uleb128 0
	.uleb128 .LEHB98-.LFB1528
	.uleb128 .LEHE98-.LEHB98
	.uleb128 .L966-.LFB1528
	.uleb128 0
	.uleb128 .LEHB99-.LFB1528
	.uleb128 .LEHE99-.LEHB99
	.uleb128 .L965-.LFB1528
	.uleb128 0
	.uleb128 .LEHB100-.LFB1528
	.uleb128 .LEHE100-.LEHB100
	.uleb128 0
	.uleb128 0
.LLSDACSE1528:
	.section	.text._ZN7sigslot7signal1IP4TaskNS_15single_threadedEED0Ev,"axG",@progbits,_ZN7sigslot7signal1IP4TaskNS_15single_threadedEED5Ev,comdat
	.size	_ZN7sigslot7signal1IP4TaskNS_15single_threadedEED0Ev, .-_ZN7sigslot7signal1IP4TaskNS_15single_threadedEED0Ev
	.weak	_ZTS4Task
	.section	.sdata._ZTS4Task,"awG",@progbits,_ZTS4Task,comdat
	.align 2
	.type	_ZTS4Task, @object
	.size	_ZTS4Task, 6
_ZTS4Task:
	.string	"4Task"
	.weak	_ZTI4Task
	.section	.rodata._ZTI4Task,"aG",@progbits,_ZTI4Task,comdat
	.align 2
	.type	_ZTI4Task, @object
	.size	_ZTI4Task, 32
_ZTI4Task:
	.long	_ZTVN10__cxxabiv121__vmi_class_type_infoE+8
	.long	_ZTS4Task
	.long	0
	.long	2
	.long	_ZTI9GuiButton
	.long	2
	.long	_ZTIN7sigslot9has_slotsINS_15single_threadedEEE
	.long	79874
	.weak	_ZTV4Task
	.section	.rodata._ZTV4Task,"aG",@progbits,_ZTV4Task,comdat
	.align 3
	.type	_ZTV4Task, @object
	.size	_ZTV4Task, 232
_ZTV4Task:
	.long	0
	.long	_ZTI4Task
	.long	_ZN4TaskD1Ev
	.long	_ZN4TaskD0Ev
	.long	_ZN10GuiElement9SetParentEPS_
	.long	_ZN10GuiElement9GetParentEv
	.long	_ZN10GuiElement7GetLeftEv
	.long	_ZN10GuiElement6GetTopEv
	.long	_ZN10GuiElement12GetZPositionEv
	.long	_ZN10GuiElement10GetLeftPosEv
	.long	_ZN10GuiElement9GetTopPosEv
	.long	_ZN10GuiElement8GetWidthEv
	.long	_ZN10GuiElement9GetHeightEv
	.long	_ZN10GuiElement7SetSizeEii
	.long	_ZN10GuiElement10SetVisibleEb
	.long	_ZN10GuiElement9IsVisibleEv
	.long	_ZN10GuiElement12IsSelectableEv
	.long	_ZN10GuiElement11IsClickableEv
	.long	_ZN10GuiElement10IsHoldableEv
	.long	_ZN10GuiElement13SetSelectableEb
	.long	_ZN10GuiElement12SetClickableEb
	.long	_ZN10GuiElement11SetHoldableEb
	.long	_ZN10GuiElement8SetStateEii
	.long	_ZN10GuiElement8GetStateEv
	.long	_ZN10GuiElement12GetStateChanEv
	.long	_ZN10GuiElement10ResetStateEv
	.long	_ZN10GuiElement8SetAlphaEi
	.long	_ZN10GuiElement8GetAlphaEv
	.long	_ZN10GuiElement8SetScaleEf
	.long	_ZN10GuiElement9SetScaleXEf
	.long	_ZN10GuiElement9SetScaleYEf
	.long	_ZN10GuiElement8GetScaleEv
	.long	_ZN10GuiElement9GetScaleXEv
	.long	_ZN10GuiElement9GetScaleYEv
	.long	_ZN10GuiElement6RumbleEv
	.long	_ZN10GuiElement9SetRumbleEb
	.long	_ZN10GuiElement9SetEffectEiii
	.long	_ZN10GuiElement15SetEffectOnOverEiii
	.long	_ZN10GuiElement13SetEffectGrowEv
	.long	_ZN10GuiElement12ResetEffectsEv
	.long	_ZNK10GuiElement9GetEffectEv
	.long	_ZNK10GuiElement10IsAnimatedEv
	.long	_ZN9GuiButton9SetBoundsE4RectIiE
	.long	_ZN10GuiElement8IsInsideEii
	.long	_ZN10GuiElement11SetPositionEii
	.long	_ZN10GuiElement11SetPositionEiii
	.long	_ZN10GuiElement11GetSelectedEv
	.long	_ZN10GuiElement12SetAlignmentEi
	.long	_ZNK10GuiElement12GetAlignmentEv
	.long	_ZN9GuiButton6UpdateEP10GuiTrigger
	.long	_ZN9GuiButton4DrawEv
	.long	_ZN10GuiElement13UpdateEffectsEv
	.long	-312
	.long	_ZTI4Task
	.long	_ZThn312_N4TaskD1Ev
	.long	_ZThn312_N4TaskD0Ev
	.long	_ZN7sigslot15single_threaded4lockEv
	.long	_ZN7sigslot15single_threaded6unlockEv
	.weak	_ZTVN7sigslot15single_threadedE
	.section	.rodata._ZTVN7sigslot15single_threadedE,"aG",@progbits,_ZTVN7sigslot15single_threadedE,comdat
	.align 3
	.type	_ZTVN7sigslot15single_threadedE, @object
	.size	_ZTVN7sigslot15single_threadedE, 24
_ZTVN7sigslot15single_threadedE:
	.long	0
	.long	_ZTIN7sigslot15single_threadedE
	.long	_ZN7sigslot15single_threadedD1Ev
	.long	_ZN7sigslot15single_threadedD0Ev
	.long	_ZN7sigslot15single_threaded4lockEv
	.long	_ZN7sigslot15single_threaded6unlockEv
	.weak	_ZTVN7sigslot9has_slotsINS_15single_threadedEEE
	.section	.rodata._ZTVN7sigslot9has_slotsINS_15single_threadedEEE,"aG",@progbits,_ZTVN7sigslot9has_slotsINS_15single_threadedEEE,comdat
	.align 3
	.type	_ZTVN7sigslot9has_slotsINS_15single_threadedEEE, @object
	.size	_ZTVN7sigslot9has_slotsINS_15single_threadedEEE, 24
_ZTVN7sigslot9has_slotsINS_15single_threadedEEE:
	.long	0
	.long	_ZTIN7sigslot9has_slotsINS_15single_threadedEEE
	.long	_ZN7sigslot9has_slotsINS_15single_threadedEED1Ev
	.long	_ZN7sigslot9has_slotsINS_15single_threadedEED0Ev
	.long	_ZN7sigslot15single_threaded4lockEv
	.long	_ZN7sigslot15single_threaded6unlockEv
	.weak	_ZTVN7sigslot12_signal_baseINS_15single_threadedEEE
	.section	.rodata._ZTVN7sigslot12_signal_baseINS_15single_threadedEEE,"aG",@progbits,_ZTVN7sigslot12_signal_baseINS_15single_threadedEEE,comdat
	.align 3
	.type	_ZTVN7sigslot12_signal_baseINS_15single_threadedEEE, @object
	.size	_ZTVN7sigslot12_signal_baseINS_15single_threadedEEE, 32
_ZTVN7sigslot12_signal_baseINS_15single_threadedEEE:
	.long	0
	.long	_ZTIN7sigslot12_signal_baseINS_15single_threadedEEE
	.long	_ZN7sigslot12_signal_baseINS_15single_threadedEED1Ev
	.long	_ZN7sigslot12_signal_baseINS_15single_threadedEED0Ev
	.long	_ZN7sigslot15single_threaded4lockEv
	.long	_ZN7sigslot15single_threaded6unlockEv
	.long	__cxa_pure_virtual
	.long	__cxa_pure_virtual
	.weak	_ZTVN7sigslot13_signal_base2IP4TaskiNS_15single_threadedEEE
	.section	.rodata._ZTVN7sigslot13_signal_base2IP4TaskiNS_15single_threadedEEE,"aG",@progbits,_ZTVN7sigslot13_signal_base2IP4TaskiNS_15single_threadedEEE,comdat
	.align 3
	.type	_ZTVN7sigslot13_signal_base2IP4TaskiNS_15single_threadedEEE, @object
	.size	_ZTVN7sigslot13_signal_base2IP4TaskiNS_15single_threadedEEE, 32
_ZTVN7sigslot13_signal_base2IP4TaskiNS_15single_threadedEEE:
	.long	0
	.long	_ZTIN7sigslot13_signal_base2IP4TaskiNS_15single_threadedEEE
	.long	_ZN7sigslot13_signal_base2IP4TaskiNS_15single_threadedEED1Ev
	.long	_ZN7sigslot13_signal_base2IP4TaskiNS_15single_threadedEED0Ev
	.long	_ZN7sigslot15single_threaded4lockEv
	.long	_ZN7sigslot15single_threaded6unlockEv
	.long	_ZN7sigslot13_signal_base2IP4TaskiNS_15single_threadedEE15slot_disconnectEPNS_9has_slotsIS3_EE
	.long	_ZN7sigslot13_signal_base2IP4TaskiNS_15single_threadedEE14slot_duplicateEPKNS_9has_slotsIS3_EEPS6_
	.weak	_ZTVN7sigslot7signal2IP4TaskiNS_15single_threadedEEE
	.section	.rodata._ZTVN7sigslot7signal2IP4TaskiNS_15single_threadedEEE,"aG",@progbits,_ZTVN7sigslot7signal2IP4TaskiNS_15single_threadedEEE,comdat
	.align 3
	.type	_ZTVN7sigslot7signal2IP4TaskiNS_15single_threadedEEE, @object
	.size	_ZTVN7sigslot7signal2IP4TaskiNS_15single_threadedEEE, 32
_ZTVN7sigslot7signal2IP4TaskiNS_15single_threadedEEE:
	.long	0
	.long	_ZTIN7sigslot7signal2IP4TaskiNS_15single_threadedEEE
	.long	_ZN7sigslot7signal2IP4TaskiNS_15single_threadedEED1Ev
	.long	_ZN7sigslot7signal2IP4TaskiNS_15single_threadedEED0Ev
	.long	_ZN7sigslot15single_threaded4lockEv
	.long	_ZN7sigslot15single_threaded6unlockEv
	.long	_ZN7sigslot13_signal_base2IP4TaskiNS_15single_threadedEE15slot_disconnectEPNS_9has_slotsIS3_EE
	.long	_ZN7sigslot13_signal_base2IP4TaskiNS_15single_threadedEE14slot_duplicateEPKNS_9has_slotsIS3_EEPS6_
	.weak	_ZTVN7sigslot13_signal_base1IP4TaskNS_15single_threadedEEE
	.section	.rodata._ZTVN7sigslot13_signal_base1IP4TaskNS_15single_threadedEEE,"aG",@progbits,_ZTVN7sigslot13_signal_base1IP4TaskNS_15single_threadedEEE,comdat
	.align 3
	.type	_ZTVN7sigslot13_signal_base1IP4TaskNS_15single_threadedEEE, @object
	.size	_ZTVN7sigslot13_signal_base1IP4TaskNS_15single_threadedEEE, 32
_ZTVN7sigslot13_signal_base1IP4TaskNS_15single_threadedEEE:
	.long	0
	.long	_ZTIN7sigslot13_signal_base1IP4TaskNS_15single_threadedEEE
	.long	_ZN7sigslot13_signal_base1IP4TaskNS_15single_threadedEED1Ev
	.long	_ZN7sigslot13_signal_base1IP4TaskNS_15single_threadedEED0Ev
	.long	_ZN7sigslot15single_threaded4lockEv
	.long	_ZN7sigslot15single_threaded6unlockEv
	.long	_ZN7sigslot13_signal_base1IP4TaskNS_15single_threadedEE15slot_disconnectEPNS_9has_slotsIS3_EE
	.long	_ZN7sigslot13_signal_base1IP4TaskNS_15single_threadedEE14slot_duplicateEPKNS_9has_slotsIS3_EEPS6_
	.weak	_ZTVN7sigslot7signal1IP4TaskNS_15single_threadedEEE
	.section	.rodata._ZTVN7sigslot7signal1IP4TaskNS_15single_threadedEEE,"aG",@progbits,_ZTVN7sigslot7signal1IP4TaskNS_15single_threadedEEE,comdat
	.align 3
	.type	_ZTVN7sigslot7signal1IP4TaskNS_15single_threadedEEE, @object
	.size	_ZTVN7sigslot7signal1IP4TaskNS_15single_threadedEEE, 32
_ZTVN7sigslot7signal1IP4TaskNS_15single_threadedEEE:
	.long	0
	.long	_ZTIN7sigslot7signal1IP4TaskNS_15single_threadedEEE
	.long	_ZN7sigslot7signal1IP4TaskNS_15single_threadedEED1Ev
	.long	_ZN7sigslot7signal1IP4TaskNS_15single_threadedEED0Ev
	.long	_ZN7sigslot15single_threaded4lockEv
	.long	_ZN7sigslot15single_threaded6unlockEv
	.long	_ZN7sigslot13_signal_base1IP4TaskNS_15single_threadedEE15slot_disconnectEPNS_9has_slotsIS3_EE
	.long	_ZN7sigslot13_signal_base1IP4TaskNS_15single_threadedEE14slot_duplicateEPKNS_9has_slotsIS3_EEPS6_
	.weak	_ZTV16SimpleGuiTrigger
	.section	.rodata._ZTV16SimpleGuiTrigger,"aG",@progbits,_ZTV16SimpleGuiTrigger,comdat
	.align 3
	.type	_ZTV16SimpleGuiTrigger, @object
	.size	_ZTV16SimpleGuiTrigger, 16
_ZTV16SimpleGuiTrigger:
	.long	0
	.long	_ZTI16SimpleGuiTrigger
	.long	_ZN16SimpleGuiTriggerD1Ev
	.long	_ZN16SimpleGuiTriggerD0Ev
	.weak	_ZTVN7sigslot17_connection_base3IP9GuiButtoniRK6_POINTNS_15single_threadedEEE
	.section	.rodata._ZTVN7sigslot17_connection_base3IP9GuiButtoniRK6_POINTNS_15single_threadedEEE,"aG",@progbits,_ZTVN7sigslot17_connection_base3IP9GuiButtoniRK6_POINTNS_15single_threadedEEE,comdat
	.align 3
	.type	_ZTVN7sigslot17_connection_base3IP9GuiButtoniRK6_POINTNS_15single_threadedEEE, @object
	.size	_ZTVN7sigslot17_connection_base3IP9GuiButtoniRK6_POINTNS_15single_threadedEEE, 32
_ZTVN7sigslot17_connection_base3IP9GuiButtoniRK6_POINTNS_15single_threadedEEE:
	.long	0
	.long	_ZTIN7sigslot17_connection_base3IP9GuiButtoniRK6_POINTNS_15single_threadedEEE
	.long	_ZN7sigslot17_connection_base3IP9GuiButtoniRK6_POINTNS_15single_threadedEED1Ev
	.long	_ZN7sigslot17_connection_base3IP9GuiButtoniRK6_POINTNS_15single_threadedEED0Ev
	.long	__cxa_pure_virtual
	.long	__cxa_pure_virtual
	.long	__cxa_pure_virtual
	.long	__cxa_pure_virtual
	.weak	_ZTVN7sigslot12_connection3I4TaskP9GuiButtoniRK6_POINTNS_15single_threadedEEE
	.section	.rodata._ZTVN7sigslot12_connection3I4TaskP9GuiButtoniRK6_POINTNS_15single_threadedEEE,"aG",@progbits,_ZTVN7sigslot12_connection3I4TaskP9GuiButtoniRK6_POINTNS_15single_threadedEEE,comdat
	.align 3
	.type	_ZTVN7sigslot12_connection3I4TaskP9GuiButtoniRK6_POINTNS_15single_threadedEEE, @object
	.size	_ZTVN7sigslot12_connection3I4TaskP9GuiButtoniRK6_POINTNS_15single_threadedEEE, 32
_ZTVN7sigslot12_connection3I4TaskP9GuiButtoniRK6_POINTNS_15single_threadedEEE:
	.long	0
	.long	_ZTIN7sigslot12_connection3I4TaskP9GuiButtoniRK6_POINTNS_15single_threadedEEE
	.long	_ZN7sigslot12_connection3I4TaskP9GuiButtoniRK6_POINTNS_15single_threadedEED1Ev
	.long	_ZN7sigslot12_connection3I4TaskP9GuiButtoniRK6_POINTNS_15single_threadedEED0Ev
	.long	_ZNK7sigslot12_connection3I4TaskP9GuiButtoniRK6_POINTNS_15single_threadedEE7getdestEv
	.long	_ZN7sigslot12_connection3I4TaskP9GuiButtoniRK6_POINTNS_15single_threadedEE4emitES3_iS6_
	.long	_ZN7sigslot12_connection3I4TaskP9GuiButtoniRK6_POINTNS_15single_threadedEE5cloneEv
	.long	_ZN7sigslot12_connection3I4TaskP9GuiButtoniRK6_POINTNS_15single_threadedEE9duplicateEPNS_9has_slotsIS7_EE
	.weak	_ZTIN7sigslot9has_slotsINS_15single_threadedEEE
	.section	.rodata._ZTIN7sigslot9has_slotsINS_15single_threadedEEE,"aG",@progbits,_ZTIN7sigslot9has_slotsINS_15single_threadedEEE,comdat
	.align 2
	.type	_ZTIN7sigslot9has_slotsINS_15single_threadedEEE, @object
	.size	_ZTIN7sigslot9has_slotsINS_15single_threadedEEE, 12
_ZTIN7sigslot9has_slotsINS_15single_threadedEEE:
	.long	_ZTVN10__cxxabiv120__si_class_type_infoE+8
	.long	_ZTSN7sigslot9has_slotsINS_15single_threadedEEE
	.long	_ZTIN7sigslot15single_threadedE
	.weak	_ZTIN7sigslot15single_threadedE
	.section	.sdata._ZTIN7sigslot15single_threadedE,"awG",@progbits,_ZTIN7sigslot15single_threadedE,comdat
	.align 2
	.type	_ZTIN7sigslot15single_threadedE, @object
	.size	_ZTIN7sigslot15single_threadedE, 8
_ZTIN7sigslot15single_threadedE:
	.long	_ZTVN10__cxxabiv117__class_type_infoE+8
	.long	_ZTSN7sigslot15single_threadedE
	.weak	_ZTIN7sigslot12_signal_baseINS_15single_threadedEEE
	.section	.rodata._ZTIN7sigslot12_signal_baseINS_15single_threadedEEE,"aG",@progbits,_ZTIN7sigslot12_signal_baseINS_15single_threadedEEE,comdat
	.align 2
	.type	_ZTIN7sigslot12_signal_baseINS_15single_threadedEEE, @object
	.size	_ZTIN7sigslot12_signal_baseINS_15single_threadedEEE, 12
_ZTIN7sigslot12_signal_baseINS_15single_threadedEEE:
	.long	_ZTVN10__cxxabiv120__si_class_type_infoE+8
	.long	_ZTSN7sigslot12_signal_baseINS_15single_threadedEEE
	.long	_ZTIN7sigslot15single_threadedE
	.weak	_ZTIN7sigslot13_signal_base2IP4TaskiNS_15single_threadedEEE
	.section	.rodata._ZTIN7sigslot13_signal_base2IP4TaskiNS_15single_threadedEEE,"aG",@progbits,_ZTIN7sigslot13_signal_base2IP4TaskiNS_15single_threadedEEE,comdat
	.align 2
	.type	_ZTIN7sigslot13_signal_base2IP4TaskiNS_15single_threadedEEE, @object
	.size	_ZTIN7sigslot13_signal_base2IP4TaskiNS_15single_threadedEEE, 12
_ZTIN7sigslot13_signal_base2IP4TaskiNS_15single_threadedEEE:
	.long	_ZTVN10__cxxabiv120__si_class_type_infoE+8
	.long	_ZTSN7sigslot13_signal_base2IP4TaskiNS_15single_threadedEEE
	.long	_ZTIN7sigslot12_signal_baseINS_15single_threadedEEE
	.weak	_ZTIN7sigslot7signal2IP4TaskiNS_15single_threadedEEE
	.section	.rodata._ZTIN7sigslot7signal2IP4TaskiNS_15single_threadedEEE,"aG",@progbits,_ZTIN7sigslot7signal2IP4TaskiNS_15single_threadedEEE,comdat
	.align 2
	.type	_ZTIN7sigslot7signal2IP4TaskiNS_15single_threadedEEE, @object
	.size	_ZTIN7sigslot7signal2IP4TaskiNS_15single_threadedEEE, 12
_ZTIN7sigslot7signal2IP4TaskiNS_15single_threadedEEE:
	.long	_ZTVN10__cxxabiv120__si_class_type_infoE+8
	.long	_ZTSN7sigslot7signal2IP4TaskiNS_15single_threadedEEE
	.long	_ZTIN7sigslot13_signal_base2IP4TaskiNS_15single_threadedEEE
	.weak	_ZTIN7sigslot13_signal_base1IP4TaskNS_15single_threadedEEE
	.section	.rodata._ZTIN7sigslot13_signal_base1IP4TaskNS_15single_threadedEEE,"aG",@progbits,_ZTIN7sigslot13_signal_base1IP4TaskNS_15single_threadedEEE,comdat
	.align 2
	.type	_ZTIN7sigslot13_signal_base1IP4TaskNS_15single_threadedEEE, @object
	.size	_ZTIN7sigslot13_signal_base1IP4TaskNS_15single_threadedEEE, 12
_ZTIN7sigslot13_signal_base1IP4TaskNS_15single_threadedEEE:
	.long	_ZTVN10__cxxabiv120__si_class_type_infoE+8
	.long	_ZTSN7sigslot13_signal_base1IP4TaskNS_15single_threadedEEE
	.long	_ZTIN7sigslot12_signal_baseINS_15single_threadedEEE
	.weak	_ZTIN7sigslot7signal1IP4TaskNS_15single_threadedEEE
	.section	.rodata._ZTIN7sigslot7signal1IP4TaskNS_15single_threadedEEE,"aG",@progbits,_ZTIN7sigslot7signal1IP4TaskNS_15single_threadedEEE,comdat
	.align 2
	.type	_ZTIN7sigslot7signal1IP4TaskNS_15single_threadedEEE, @object
	.size	_ZTIN7sigslot7signal1IP4TaskNS_15single_threadedEEE, 12
_ZTIN7sigslot7signal1IP4TaskNS_15single_threadedEEE:
	.long	_ZTVN10__cxxabiv120__si_class_type_infoE+8
	.long	_ZTSN7sigslot7signal1IP4TaskNS_15single_threadedEEE
	.long	_ZTIN7sigslot13_signal_base1IP4TaskNS_15single_threadedEEE
	.weak	_ZTI16SimpleGuiTrigger
	.section	.rodata._ZTI16SimpleGuiTrigger,"aG",@progbits,_ZTI16SimpleGuiTrigger,comdat
	.align 2
	.type	_ZTI16SimpleGuiTrigger, @object
	.size	_ZTI16SimpleGuiTrigger, 12
_ZTI16SimpleGuiTrigger:
	.long	_ZTVN10__cxxabiv120__si_class_type_infoE+8
	.long	_ZTS16SimpleGuiTrigger
	.long	_ZTI10GuiTrigger
	.weak	_ZTIN7sigslot17_connection_base3IP9GuiButtoniRK6_POINTNS_15single_threadedEEE
	.section	.sdata._ZTIN7sigslot17_connection_base3IP9GuiButtoniRK6_POINTNS_15single_threadedEEE,"awG",@progbits,_ZTIN7sigslot17_connection_base3IP9GuiButtoniRK6_POINTNS_15single_threadedEEE,comdat
	.align 2
	.type	_ZTIN7sigslot17_connection_base3IP9GuiButtoniRK6_POINTNS_15single_threadedEEE, @object
	.size	_ZTIN7sigslot17_connection_base3IP9GuiButtoniRK6_POINTNS_15single_threadedEEE, 8
_ZTIN7sigslot17_connection_base3IP9GuiButtoniRK6_POINTNS_15single_threadedEEE:
	.long	_ZTVN10__cxxabiv117__class_type_infoE+8
	.long	_ZTSN7sigslot17_connection_base3IP9GuiButtoniRK6_POINTNS_15single_threadedEEE
	.weak	_ZTIN7sigslot12_connection3I4TaskP9GuiButtoniRK6_POINTNS_15single_threadedEEE
	.section	.rodata._ZTIN7sigslot12_connection3I4TaskP9GuiButtoniRK6_POINTNS_15single_threadedEEE,"aG",@progbits,_ZTIN7sigslot12_connection3I4TaskP9GuiButtoniRK6_POINTNS_15single_threadedEEE,comdat
	.align 2
	.type	_ZTIN7sigslot12_connection3I4TaskP9GuiButtoniRK6_POINTNS_15single_threadedEEE, @object
	.size	_ZTIN7sigslot12_connection3I4TaskP9GuiButtoniRK6_POINTNS_15single_threadedEEE, 12
_ZTIN7sigslot12_connection3I4TaskP9GuiButtoniRK6_POINTNS_15single_threadedEEE:
	.long	_ZTVN10__cxxabiv120__si_class_type_infoE+8
	.long	_ZTSN7sigslot12_connection3I4TaskP9GuiButtoniRK6_POINTNS_15single_threadedEEE
	.long	_ZTIN7sigslot17_connection_base3IP9GuiButtoniRK6_POINTNS_15single_threadedEEE
	.weak	_ZTSN7sigslot9has_slotsINS_15single_threadedEEE
	.section	.rodata._ZTSN7sigslot9has_slotsINS_15single_threadedEEE,"aG",@progbits,_ZTSN7sigslot9has_slotsINS_15single_threadedEEE,comdat
	.align 2
	.type	_ZTSN7sigslot9has_slotsINS_15single_threadedEEE, @object
	.size	_ZTSN7sigslot9has_slotsINS_15single_threadedEEE, 44
_ZTSN7sigslot9has_slotsINS_15single_threadedEEE:
	.string	"N7sigslot9has_slotsINS_15single_threadedEEE"
	.weak	_ZTSN7sigslot15single_threadedE
	.section	.rodata._ZTSN7sigslot15single_threadedE,"aG",@progbits,_ZTSN7sigslot15single_threadedE,comdat
	.align 2
	.type	_ZTSN7sigslot15single_threadedE, @object
	.size	_ZTSN7sigslot15single_threadedE, 28
_ZTSN7sigslot15single_threadedE:
	.string	"N7sigslot15single_threadedE"
	.weak	_ZTSN7sigslot12_signal_baseINS_15single_threadedEEE
	.section	.rodata._ZTSN7sigslot12_signal_baseINS_15single_threadedEEE,"aG",@progbits,_ZTSN7sigslot12_signal_baseINS_15single_threadedEEE,comdat
	.align 2
	.type	_ZTSN7sigslot12_signal_baseINS_15single_threadedEEE, @object
	.size	_ZTSN7sigslot12_signal_baseINS_15single_threadedEEE, 48
_ZTSN7sigslot12_signal_baseINS_15single_threadedEEE:
	.string	"N7sigslot12_signal_baseINS_15single_threadedEEE"
	.weak	_ZTSN7sigslot13_signal_base2IP4TaskiNS_15single_threadedEEE
	.section	.rodata._ZTSN7sigslot13_signal_base2IP4TaskiNS_15single_threadedEEE,"aG",@progbits,_ZTSN7sigslot13_signal_base2IP4TaskiNS_15single_threadedEEE,comdat
	.align 2
	.type	_ZTSN7sigslot13_signal_base2IP4TaskiNS_15single_threadedEEE, @object
	.size	_ZTSN7sigslot13_signal_base2IP4TaskiNS_15single_threadedEEE, 56
_ZTSN7sigslot13_signal_base2IP4TaskiNS_15single_threadedEEE:
	.string	"N7sigslot13_signal_base2IP4TaskiNS_15single_threadedEEE"
	.weak	_ZTSN7sigslot7signal2IP4TaskiNS_15single_threadedEEE
	.section	.rodata._ZTSN7sigslot7signal2IP4TaskiNS_15single_threadedEEE,"aG",@progbits,_ZTSN7sigslot7signal2IP4TaskiNS_15single_threadedEEE,comdat
	.align 2
	.type	_ZTSN7sigslot7signal2IP4TaskiNS_15single_threadedEEE, @object
	.size	_ZTSN7sigslot7signal2IP4TaskiNS_15single_threadedEEE, 49
_ZTSN7sigslot7signal2IP4TaskiNS_15single_threadedEEE:
	.string	"N7sigslot7signal2IP4TaskiNS_15single_threadedEEE"
	.weak	_ZTSN7sigslot13_signal_base1IP4TaskNS_15single_threadedEEE
	.section	.rodata._ZTSN7sigslot13_signal_base1IP4TaskNS_15single_threadedEEE,"aG",@progbits,_ZTSN7sigslot13_signal_base1IP4TaskNS_15single_threadedEEE,comdat
	.align 2
	.type	_ZTSN7sigslot13_signal_base1IP4TaskNS_15single_threadedEEE, @object
	.size	_ZTSN7sigslot13_signal_base1IP4TaskNS_15single_threadedEEE, 55
_ZTSN7sigslot13_signal_base1IP4TaskNS_15single_threadedEEE:
	.string	"N7sigslot13_signal_base1IP4TaskNS_15single_threadedEEE"
	.weak	_ZTSN7sigslot7signal1IP4TaskNS_15single_threadedEEE
	.section	.rodata._ZTSN7sigslot7signal1IP4TaskNS_15single_threadedEEE,"aG",@progbits,_ZTSN7sigslot7signal1IP4TaskNS_15single_threadedEEE,comdat
	.align 2
	.type	_ZTSN7sigslot7signal1IP4TaskNS_15single_threadedEEE, @object
	.size	_ZTSN7sigslot7signal1IP4TaskNS_15single_threadedEEE, 48
_ZTSN7sigslot7signal1IP4TaskNS_15single_threadedEEE:
	.string	"N7sigslot7signal1IP4TaskNS_15single_threadedEEE"
	.weak	_ZTS16SimpleGuiTrigger
	.section	.rodata._ZTS16SimpleGuiTrigger,"aG",@progbits,_ZTS16SimpleGuiTrigger,comdat
	.align 2
	.type	_ZTS16SimpleGuiTrigger, @object
	.size	_ZTS16SimpleGuiTrigger, 19
_ZTS16SimpleGuiTrigger:
	.string	"16SimpleGuiTrigger"
	.weak	_ZTSN7sigslot17_connection_base3IP9GuiButtoniRK6_POINTNS_15single_threadedEEE
	.section	.rodata._ZTSN7sigslot17_connection_base3IP9GuiButtoniRK6_POINTNS_15single_threadedEEE,"aG",@progbits,_ZTSN7sigslot17_connection_base3IP9GuiButtoniRK6_POINTNS_15single_threadedEEE,comdat
	.align 2
	.type	_ZTSN7sigslot17_connection_base3IP9GuiButtoniRK6_POINTNS_15single_threadedEEE, @object
	.size	_ZTSN7sigslot17_connection_base3IP9GuiButtoniRK6_POINTNS_15single_threadedEEE, 74
_ZTSN7sigslot17_connection_base3IP9GuiButtoniRK6_POINTNS_15single_threadedEEE:
	.string	"N7sigslot17_connection_base3IP9GuiButtoniRK6_POINTNS_15single_threadedEEE"
	.weak	_ZTSN7sigslot12_connection3I4TaskP9GuiButtoniRK6_POINTNS_15single_threadedEEE
	.section	.rodata._ZTSN7sigslot12_connection3I4TaskP9GuiButtoniRK6_POINTNS_15single_threadedEEE,"aG",@progbits,_ZTSN7sigslot12_connection3I4TaskP9GuiButtoniRK6_POINTNS_15single_threadedEEE,comdat
	.align 2
	.type	_ZTSN7sigslot12_connection3I4TaskP9GuiButtoniRK6_POINTNS_15single_threadedEEE, @object
	.size	_ZTSN7sigslot12_connection3I4TaskP9GuiButtoniRK6_POINTNS_15single_threadedEEE, 74
_ZTSN7sigslot12_connection3I4TaskP9GuiButtoniRK6_POINTNS_15single_threadedEEE:
	.string	"N7sigslot12_connection3I4TaskP9GuiButtoniRK6_POINTNS_15single_threadedEEE"
	.weak	_ZN7sigslot15single_threadedD1Ev
	.set	_ZN7sigslot15single_threadedD1Ev,_ZN7sigslot15single_threadedD2Ev
	.weak	_ZN7sigslot12_signal_baseINS_15single_threadedEED1Ev
	.set	_ZN7sigslot12_signal_baseINS_15single_threadedEED1Ev,_ZN7sigslot12_signal_baseINS_15single_threadedEED2Ev
	.weak	_ZN7sigslot17_connection_base3IP9GuiButtoniRK6_POINTNS_15single_threadedEED1Ev
	.set	_ZN7sigslot17_connection_base3IP9GuiButtoniRK6_POINTNS_15single_threadedEED1Ev,_ZN7sigslot17_connection_base3IP9GuiButtoniRK6_POINTNS_15single_threadedEED2Ev
	.weak	_ZN7sigslot12_connection3I4TaskP9GuiButtoniRK6_POINTNS_15single_threadedEED1Ev
	.set	_ZN7sigslot12_connection3I4TaskP9GuiButtoniRK6_POINTNS_15single_threadedEED1Ev,_ZN7sigslot12_connection3I4TaskP9GuiButtoniRK6_POINTNS_15single_threadedEED2Ev
	.weak	_ZN16SimpleGuiTriggerD1Ev
	.set	_ZN16SimpleGuiTriggerD1Ev,_ZN16SimpleGuiTriggerD2Ev
	.weak	_ZN7sigslot9has_slotsINS_15single_threadedEED1Ev
	.set	_ZN7sigslot9has_slotsINS_15single_threadedEED1Ev,_ZN7sigslot9has_slotsINS_15single_threadedEED2Ev
	.weak	_ZN7sigslot7signal2IP4TaskiNS_15single_threadedEED1Ev
	.set	_ZN7sigslot7signal2IP4TaskiNS_15single_threadedEED1Ev,_ZN7sigslot7signal2IP4TaskiNS_15single_threadedEED2Ev
	.weak	_ZN7sigslot13_signal_base1IP4TaskNS_15single_threadedEED1Ev
	.set	_ZN7sigslot13_signal_base1IP4TaskNS_15single_threadedEED1Ev,_ZN7sigslot13_signal_base1IP4TaskNS_15single_threadedEED2Ev
	.weak	_ZN7sigslot13_signal_base2IP4TaskiNS_15single_threadedEED1Ev
	.set	_ZN7sigslot13_signal_base2IP4TaskiNS_15single_threadedEED1Ev,_ZN7sigslot13_signal_base2IP4TaskiNS_15single_threadedEED2Ev
	.weak	_ZN7sigslot7signal1IP4TaskNS_15single_threadedEED1Ev
	.set	_ZN7sigslot7signal1IP4TaskNS_15single_threadedEED1Ev,_ZN7sigslot7signal1IP4TaskNS_15single_threadedEED2Ev
	.globl _ZN4TaskC1ERKSs
	.set	_ZN4TaskC1ERKSs,_ZN4TaskC2ERKSs
	.globl _ZN4TaskD1Ev
	.set	_ZN4TaskD1Ev,_ZN4TaskD2Ev
	.set	.LTHUNK0,_ZN4TaskD1Ev
	.set	.LTHUNK1,_ZN4TaskD0Ev
	.section	.rodata.cst4,"aM",@progbits,4
	.align 2
.LC1:
	.4byte	1501560836
.LC2:
	.4byte	1132396544
.LC3:
	.4byte	1056964608
	.section	".text"
.Letext0:
	.file 11 "d:\\devkitpro\\devkitppc\\bin\\../lib/gcc/powerpc-eabi/4.6.3/../../../../powerpc-eabi/include/stdint.h"
	.file 12 "d:/devkitPro/libogc/include/gctypes.h"
	.file 13 "d:/devkitPro/libogc/include/ogc/gx.h"
	.file 14 "d:\\devkitpro\\devkitppc\\bin\\../lib/gcc/powerpc-eabi/4.6.3/../../../../powerpc-eabi/include/machine/_types.h"
	.file 15 "d:\\devkitpro\\devkitppc\\bin\\../lib/gcc/powerpc-eabi/4.6.3/../../../../powerpc-eabi/include/sys/lock.h"
	.file 16 "d:\\devkitpro\\devkitppc\\bin\\../lib/gcc/powerpc-eabi/4.6.3/include/stddef.h"
	.file 17 "d:\\devkitpro\\devkitppc\\bin\\../lib/gcc/powerpc-eabi/4.6.3/../../../../powerpc-eabi/include/sys/_types.h"
	.file 18 "d:\\devkitpro\\devkitppc\\bin\\../lib/gcc/powerpc-eabi/4.6.3/../../../../powerpc-eabi/include/sys/reent.h"
	.file 19 "d:\\devkitpro\\devkitppc\\bin\\../lib/gcc/powerpc-eabi/4.6.3/../../../../powerpc-eabi/include/time.h"
	.file 20 "<built-in>"
	.file 21 "d:\\devkitpro\\devkitppc\\bin\\../lib/gcc/powerpc-eabi/4.6.3/../../../../powerpc-eabi/include/stdio.h"
	.file 22 "d:\\devkitpro\\devkitppc\\bin\\../lib/gcc/powerpc-eabi/4.6.3/../../../../powerpc-eabi/include/wchar.h"
	.file 23 "d:\\devkitpro\\devkitppc\\bin\\../lib/gcc/powerpc-eabi/4.6.3/../../../../powerpc-eabi/include/c++/4.6.3/cwchar"
	.file 24 "d:\\devkitpro\\devkitppc\\bin\\../lib/gcc/powerpc-eabi/4.6.3/../../../../powerpc-eabi/include/c++/4.6.3/powerpc-eabi/bits/c++config.h"
	.file 25 "d:\\devkitpro\\devkitppc\\bin\\../lib/gcc/powerpc-eabi/4.6.3/../../../../powerpc-eabi/include/c++/4.6.3/clocale"
	.file 26 "d:\\devkitpro\\devkitppc\\bin\\../lib/gcc/powerpc-eabi/4.6.3/../../../../powerpc-eabi/include/c++/4.6.3/bits/stringfwd.h"
	.file 27 "d:\\devkitpro\\devkitppc\\bin\\../lib/gcc/powerpc-eabi/4.6.3/../../../../powerpc-eabi/include/c++/4.6.3/bits/move.h"
	.file 28 "d:\\devkitpro\\devkitppc\\bin\\../lib/gcc/powerpc-eabi/4.6.3/../../../../powerpc-eabi/include/c++/4.6.3/bits/cpp_type_traits.h"
	.file 29 "d:\\devkitpro\\devkitppc\\bin\\../lib/gcc/powerpc-eabi/4.6.3/../../../../powerpc-eabi/include/c++/4.6.3/debug/debug.h"
	.file 30 "d:\\devkitpro\\devkitppc\\bin\\../lib/gcc/powerpc-eabi/4.6.3/../../../../powerpc-eabi/include/c++/4.6.3/bits/char_traits.h"
	.file 31 "d:\\devkitpro\\devkitppc\\bin\\../lib/gcc/powerpc-eabi/4.6.3/../../../../powerpc-eabi/include/c++/4.6.3/bits/allocator.h"
	.file 32 "d:\\devkitpro\\devkitppc\\bin\\../lib/gcc/powerpc-eabi/4.6.3/../../../../powerpc-eabi/include/locale.h"
	.file 33 "d:\\devkitpro\\devkitppc\\bin\\../lib/gcc/powerpc-eabi/4.6.3/../../../../powerpc-eabi/include/c++/4.6.3/powerpc-eabi/bits/atomic_word.h"
	.file 34 "d:\\devkitpro\\devkitppc\\bin\\../lib/gcc/powerpc-eabi/4.6.3/../../../../powerpc-eabi/include/c++/4.6.3/ext/numeric_traits.h"
	.file 35 "d:\\devkitpro\\devkitppc\\bin\\../lib/gcc/powerpc-eabi/4.6.3/../../../../powerpc-eabi/include/c++/4.6.3/bits/basic_string.tcc"
	.file 36 "d:\\devkitpro\\devkitppc\\bin\\../lib/gcc/powerpc-eabi/4.6.3/../../../../powerpc-eabi/include/c++/4.6.3/bits/stl_iterator_base_types.h"
	.file 37 "d:\\devkitpro\\devkitppc\\bin\\../lib/gcc/powerpc-eabi/4.6.3/../../../../powerpc-eabi/include/c++/4.6.3/bits/stl_iterator.h"
	.file 38 "d:/Projects/SaveGameManager/savegame-manager-gx/trunk/source/Controls/../GUI/../Settings/../FileOperations/FileExtensions.h"
	.file 39 "d:/Projects/SaveGameManager/savegame-manager-gx/trunk/source/Controls/../GUI/../Settings/../Controls/AppControls.hpp"
	.file 40 "d:/Projects/SaveGameManager/savegame-manager-gx/trunk/source/Controls/../GUI/../Settings/CSettings.h"
	.file 41 "d:/Projects/SaveGameManager/savegame-manager-gx/trunk/source/Controls/../GUI/../Tools/Rect.h"
	.file 42 "d:\\devkitpro\\devkitppc\\bin\\../lib/gcc/powerpc-eabi/4.6.3/../../../../powerpc-eabi/include/c++/4.6.3/bits/stl_function.h"
	.file 43 "d:/Projects/SaveGameManager/savegame-manager-gx/trunk/source/Controls/Task.hpp"
	.file 44 "d:\\devkitpro\\devkitppc\\bin\\../lib/gcc/powerpc-eabi/4.6.3/../../../../powerpc-eabi/include/c++/4.6.3/bits/stl_pair.h"
	.file 45 "d:\\devkitpro\\devkitppc\\bin\\../lib/gcc/powerpc-eabi/4.6.3/../../../../powerpc-eabi/include/c++/4.6.3/new"