   1              		.file	"TextPointer.cpp"
   2              		.section	".text"
   3              	.Ltext0:
   4              		.section	.text._ZN10GuiElement9SetParentEPS_,"axG",@progbits,_ZN10GuiElement9SetParentEPS_,comdat
   5              		.align 2
   6              		.weak	_ZN10GuiElement9SetParentEPS_
   7              		.type	_ZN10GuiElement9SetParentEPS_, @function
   8              	_ZN10GuiElement9SetParentEPS_:
   9              	.LFB1384:
  10              		.file 1 "d:/Projects/SaveGameManager/savegame-manager-gx/trunk/source/TextOperations/../GUI/gui_el
  11              		.loc 1 92 0
  12              		.cfi_startproc
  13              	.LVL0:
  14              		.loc 1 92 0
  15 0000 90830060 		stw 4,96(3)
  16 0004 4E800020 		blr
  17              		.cfi_endproc
  18              	.LFE1384:
  19              		.size	_ZN10GuiElement9SetParentEPS_, .-_ZN10GuiElement9SetParentEPS_
  20              		.section	.text._ZN10GuiElement9GetParentEv,"axG",@progbits,_ZN10GuiElement9GetParentEv,comdat
  21              		.align 2
  22              		.weak	_ZN10GuiElement9GetParentEv
  23              		.type	_ZN10GuiElement9GetParentEv, @function
  24              	_ZN10GuiElement9GetParentEv:
  25              	.LFB1385:
  26              		.loc 1 95 0
  27              		.cfi_startproc
  28              	.LVL1:
  29              		.loc 1 95 0
  30 0000 80630060 		lwz 3,96(3)
  31              	.LVL2:
  32 0004 4E800020 		blr
  33              		.cfi_endproc
  34              	.LFE1385:
  35              		.size	_ZN10GuiElement9GetParentEv, .-_ZN10GuiElement9GetParentEv
  36              		.section	.text._ZN10GuiElement12GetZPositionEv,"axG",@progbits,_ZN10GuiElement12GetZPositionEv,com
  37              		.align 2
  38              		.weak	_ZN10GuiElement12GetZPositionEv
  39              		.type	_ZN10GuiElement12GetZPositionEv, @function
  40              	_ZN10GuiElement12GetZPositionEv:
  41              	.LFB1386:
  42              		.loc 1 106 0
  43              		.cfi_startproc
  44              	.LVL3:
  45 0000 7C0802A6 		mflr 0
  46 0004 9421FFF0 		stwu 1,-16(1)
  47              	.LCFI0:
  48              		.cfi_def_cfa_offset 16
  49              		.cfi_register 65, 0
  50 0008 93E1000C 		stw 31,12(1)
  51 000c 7C7F1B78 		mr 31,3
  52              		.cfi_offset 31, -4
  53 0010 90010014 		stw 0,20(1)
  54              	.LBB1267:
  55              		.loc 1 110 0
  56 0014 81630060 		lwz 11,96(3)
  57              		.loc 1 108 0
  58 0018 38600000 		li 3,0
  59              	.LVL4:
  60              		.loc 1 110 0
  61 001c 2F8B0000 		cmpwi 7,11,0
  62 0020 419E0018 		beq- 7,.L4
  63              		.cfi_offset 65, 4
  64              		.loc 1 111 0
  65 0024 812B0000 		lwz 9,0(11)
  66 0028 7D635B78 		mr 3,11
  67 002c 80090018 		lwz 0,24(9)
  68 0030 7C0903A6 		mtctr 0
  69 0034 4E800421 		bctrl
  70              	.LVL5:
  71              	.L4:
  72              		.loc 1 113 0
  73 0038 801F0034 		lwz 0,52(31)
  74              	.LBE1267:
  75              		.loc 1 114 0
  76 003c 83E1000C 		lwz 31,12(1)
  77              	.LVL6:
  78 0040 7C630214 		add 3,3,0
  79              	.LVL7:
  80 0044 80010014 		lwz 0,20(1)
  81 0048 38210010 		addi 1,1,16
  82              	.LCFI1:
  83              		.cfi_def_cfa_offset 0
  84              		.cfi_restore 31
  85 004c 7C0803A6 		mtlr 0
  86 0050 4E800020 		blr
  87              		.cfi_endproc
  88              	.LFE1386:
  89              		.size	_ZN10GuiElement12GetZPositionEv, .-_ZN10GuiElement12GetZPositionEv
  90              		.section	.text._ZN10GuiElement10GetLeftPosEv,"axG",@progbits,_ZN10GuiElement10GetLeftPosEv,comdat
  91              		.align 2
  92              		.weak	_ZN10GuiElement10GetLeftPosEv
  93              		.type	_ZN10GuiElement10GetLeftPosEv, @function
  94              	_ZN10GuiElement10GetLeftPosEv:
  95              	.LFB1387:
  96              		.loc 1 116 0
  97              		.cfi_startproc
  98              	.LVL8:
  99              		.loc 1 116 0
 100 0000 8063002C 		lwz 3,44(3)
 101              	.LVL9:
 102 0004 4E800020 		blr
 103              		.cfi_endproc
 104              	.LFE1387:
 105              		.size	_ZN10GuiElement10GetLeftPosEv, .-_ZN10GuiElement10GetLeftPosEv
 106              		.section	.text._ZN10GuiElement9GetTopPosEv,"axG",@progbits,_ZN10GuiElement9GetTopPosEv,comdat
 107              		.align 2
 108              		.weak	_ZN10GuiElement9GetTopPosEv
 109              		.type	_ZN10GuiElement9GetTopPosEv, @function
 110              	_ZN10GuiElement9GetTopPosEv:
 111              	.LFB1388:
 112              		.loc 1 118 0
 113              		.cfi_startproc
 114              	.LVL10:
 115              		.loc 1 118 0
 116 0000 80630030 		lwz 3,48(3)
 117              	.LVL11:
 118 0004 4E800020 		blr
 119              		.cfi_endproc
 120              	.LFE1388:
 121              		.size	_ZN10GuiElement9GetTopPosEv, .-_ZN10GuiElement9GetTopPosEv
 122              		.section	.text._ZN10GuiElement8GetWidthEv,"axG",@progbits,_ZN10GuiElement8GetWidthEv,comdat
 123              		.align 2
 124              		.weak	_ZN10GuiElement8GetWidthEv
 125              		.type	_ZN10GuiElement8GetWidthEv, @function
 126              	_ZN10GuiElement8GetWidthEv:
 127              	.LFB1389:
 128              		.loc 1 121 0
 129              		.cfi_startproc
 130              	.LVL12:
 131              		.loc 1 121 0
 132 0000 80630024 		lwz 3,36(3)
 133              	.LVL13:
 134 0004 4E800020 		blr
 135              		.cfi_endproc
 136              	.LFE1389:
 137              		.size	_ZN10GuiElement8GetWidthEv, .-_ZN10GuiElement8GetWidthEv
 138              		.section	.text._ZN10GuiElement9GetHeightEv,"axG",@progbits,_ZN10GuiElement9GetHeightEv,comdat
 139              		.align 2
 140              		.weak	_ZN10GuiElement9GetHeightEv
 141              		.type	_ZN10GuiElement9GetHeightEv, @function
 142              	_ZN10GuiElement9GetHeightEv:
 143              	.LFB1390:
 144              		.loc 1 124 0
 145              		.cfi_startproc
 146              	.LVL14:
 147              		.loc 1 124 0
 148 0000 80630028 		lwz 3,40(3)
 149              	.LVL15:
 150 0004 4E800020 		blr
 151              		.cfi_endproc
 152              	.LFE1390:
 153              		.size	_ZN10GuiElement9GetHeightEv, .-_ZN10GuiElement9GetHeightEv
 154              		.section	.text._ZN10GuiElement7SetSizeEii,"axG",@progbits,_ZN10GuiElement7SetSizeEii,comdat
 155              		.align 2
 156              		.weak	_ZN10GuiElement7SetSizeEii
 157              		.type	_ZN10GuiElement7SetSizeEii, @function
 158              	_ZN10GuiElement7SetSizeEii:
 159              	.LFB1391:
 160              		.loc 1 128 0
 161              		.cfi_startproc
 162              	.LVL16:
 163              		.loc 1 130 0
 164 0000 90830024 		stw 4,36(3)
 165              		.loc 1 132 0
 166              		.loc 1 131 0
 167 0004 90A30028 		stw 5,40(3)
 168              		.loc 1 132 0
 169 0008 4E800020 		blr
 170              		.cfi_endproc
 171              	.LFE1391:
 172              		.size	_ZN10GuiElement7SetSizeEii, .-_ZN10GuiElement7SetSizeEii
 173              		.section	.text._ZN10GuiElement10SetVisibleEb,"axG",@progbits,_ZN10GuiElement10SetVisibleEb,comdat
 174              		.align 2
 175              		.weak	_ZN10GuiElement10SetVisibleEb
 176              		.type	_ZN10GuiElement10SetVisibleEb, @function
 177              	_ZN10GuiElement10SetVisibleEb:
 178              	.LFB1392:
 179              		.loc 1 135 0
 180              		.cfi_startproc
 181              		.cfi_personality 0,__gxx_personality_v0
 182              		.cfi_lsda 0,.LLSDA1392
 183              	.LVL17:
 184 0000 7C0802A6 		mflr 0
 185 0004 9421FFE0 		stwu 1,-32(1)
 186              	.LCFI2:
 187              		.cfi_def_cfa_offset 32
 188              		.cfi_register 65, 0
 189 0008 9361000C 		stw 27,12(1)
 190              	.LBB1268:
 191              	.LBB1269:
 192              		.file 2 "d:/Projects/SaveGameManager/savegame-manager-gx/trunk/source/TextOperations/../GUI/../sig
 193              		.loc 2 2270 0
 194 000c 3B630004 		addi 27,3,4
 195              		.cfi_offset 27, -20
 196              	.LBE1269:
 197              	.LBE1268:
 198              		.loc 1 135 0
 199 0010 90010024 		stw 0,36(1)
 200 0014 93C10018 		stw 30,24(1)
 201 0018 7C7E1B78 		mr 30,3
 202              		.cfi_offset 30, -8
 203              		.cfi_offset 65, 4
 204              	.LBB1292:
 205              	.LBB1286:
 206              	.LBB1270:
 207              	.LBB1271:
 208              		.loc 2 338 0
 209 001c 81230004 		lwz 9,4(3)
 210 0020 7F63DB78 		mr 3,27
 211              	.LVL18:
 212              	.LBE1271:
 213              	.LBE1270:
 214              	.LBE1286:
 215              	.LBE1292:
 216              		.loc 1 135 0
 217 0024 93810010 		stw 28,16(1)
 218 0028 7C9C2378 		mr 28,4
 219              		.cfi_offset 28, -16
 220              	.LBB1293:
 221              	.LBB1287:
 222              	.LBB1275:
 223              	.LBB1272:
 224              		.loc 2 338 0
 225 002c 80090008 		lwz 0,8(9)
 226              	.LBE1272:
 227              	.LBE1275:
 228              	.LBE1287:
 229              	.LBE1293:
 230              		.loc 1 135 0
 231 0030 93A10014 		stw 29,20(1)
 232              	.LBB1294:
 233              		.file 3 "d:/Projects/SaveGameManager/savegame-manager-gx/trunk/source/TextOperations/TextPointer.c
 234              		.loc 3 213 0
 235 0034 7FDDF378 		mr 29,30
 236              		.cfi_offset 29, -12
 237              	.LBE1294:
 238              		.loc 1 135 0
 239 0038 93E1001C 		stw 31,28(1)
 240              	.LBB1295:
 241              	.LBB1288:
 242              	.LBB1276:
 243              	.LBB1273:
 244              		.loc 2 338 0
 245 003c 7C0903A6 		mtctr 0
 246              	.LBE1273:
 247              	.LBE1276:
 248              	.LBE1288:
 249              	.LBE1295:
 250              		.loc 1 137 0
 251 0040 989E001D 		stb 4,29(30)
 252              	.LVL19:
 253              	.LEHB0:
 254              	.LBB1296:
 255              	.LBB1289:
 256              	.LBB1277:
 257              	.LBB1274:
 258              		.loc 2 338 0
 259              		.cfi_offset 31, -4
 260 0044 4E800421 		bctrl
 261              	.LEHE0:
 262              	.LVL20:
 263              	.LBE1274:
 264              	.LBE1277:
 265              	.LBE1289:
 266              		.loc 3 213 0
 267 0048 87FD0008 		lwzu 31,8(29)
 268              	.LVL21:
 269              	.LBB1290:
 270              		.loc 2 2274 0
 271 004c 7F9FE800 		cmpw 7,31,29
 272 0050 419E002C 		beq- 7,.L13
 273              	.LVL22:
 274              	.L20:
 275              		.loc 2 2279 0
 276 0054 807F0008 		lwz 3,8(31)
 277 0058 7FC4F378 		mr 4,30
 278 005c 7F85E378 		mr 5,28
 279              	.LBB1278:
 280              	.LBB1279:
 281              		.file 4 "d:\\devkitpro\\devkitppc\\bin\\../lib/gcc/powerpc-eabi/4.6.3/../../../../powerpc-eabi/inc
 282              		.loc 4 234 0
 283 0060 83FF0000 		lwz 31,0(31)
 284              	.LVL23:
 285              	.LBE1279:
 286              	.LBE1278:
 287              		.loc 2 2279 0
 288 0064 81230000 		lwz 9,0(3)
 289 0068 8009000C 		lwz 0,12(9)
 290 006c 7C0903A6 		mtctr 0
 291              	.LEHB1:
 292 0070 4E800421 		bctrl
 293              	.LEHE1:
 294              	.LVL24:
 295              		.loc 2 2274 0
 296 0074 7F9DF800 		cmpw 7,29,31
 297 0078 409EFFDC 		bne+ 7,.L20
 298              	.LVL25:
 299              	.L13:
 300              	.LBB1280:
 301              	.LBB1281:
 302              	.LBB1282:
 303              		.loc 2 343 0
 304 007c 813E0004 		lwz 9,4(30)
 305 0080 7F63DB78 		mr 3,27
 306 0084 8009000C 		lwz 0,12(9)
 307 0088 7C0903A6 		mtctr 0
 308              	.LEHB2:
 309 008c 4E800421 		bctrl
 310              	.LEHE2:
 311              	.LBE1282:
 312              	.LBE1281:
 313              	.LBE1280:
 314              	.LBE1290:
 315              	.LBE1296:
 316              		.loc 1 139 0
 317 0090 80010024 		lwz 0,36(1)
 318 0094 8361000C 		lwz 27,12(1)
 319              	.LVL26:
 320 0098 7C0803A6 		mtlr 0
 321 009c 83810010 		lwz 28,16(1)
 322              	.LVL27:
 323 00a0 83A10014 		lwz 29,20(1)
 324 00a4 83C10018 		lwz 30,24(1)
 325              	.LVL28:
 326 00a8 83E1001C 		lwz 31,28(1)
 327              	.LVL29:
 328 00ac 38210020 		addi 1,1,32
 329              		.cfi_remember_state
 330              	.LCFI3:
 331              		.cfi_def_cfa_offset 0
 332              		.cfi_restore 31
 333              		.cfi_restore 30
 334              		.cfi_restore 29
 335              		.cfi_restore 28
 336              		.cfi_restore 27
 337 00b0 4E800020 		blr
 338              	.LVL30:
 339              	.L19:
 340              	.LCFI4:
 341              		.cfi_restore_state
 342              	.LBB1297:
 343              	.LBB1291:
 344              	.LBB1283:
 345              	.LBB1284:
 346              	.LBB1285:
 347              		.loc 2 343 0
 348 00b4 813E0004 		lwz 9,4(30)
 349 00b8 7C7F1B78 		mr 31,3
 350              	.LVL31:
 351 00bc 7F63DB78 		mr 3,27
 352 00c0 8009000C 		lwz 0,12(9)
 353 00c4 7C0903A6 		mtctr 0
 354 00c8 4E800421 		bctrl
 355 00cc 7FE3FB78 		mr 3,31
 356              	.LEHB3:
 357 00d0 48000001 		bl _Unwind_Resume
 358              	.LEHE3:
 359              	.LBE1285:
 360              	.LBE1284:
 361              	.LBE1283:
 362              	.LBE1291:
 363              	.LBE1297:
 364              		.cfi_endproc
 365              	.LFE1392:
 366              		.globl __gxx_personality_v0
 367              		.section	.gcc_except_table,"a",@progbits
 368              	.LLSDA1392:
 369 0000 FF       		.byte	0xff
 370 0001 FF       		.byte	0xff
 371 0002 01       		.byte	0x1
 372 0003 13       		.uleb128 .LLSDACSE1392-.LLSDACSB1392
 373              	.LLSDACSB1392:
 374 0004 44       		.uleb128 .LEHB0-.LFB1392
 375 0005 04       		.uleb128 .LEHE0-.LEHB0
 376 0006 00       		.uleb128 0
 377 0007 00       		.uleb128 0
 378 0008 70       		.uleb128 .LEHB1-.LFB1392
 379 0009 04       		.uleb128 .LEHE1-.LEHB1
 380 000a B401     		.uleb128 .L19-.LFB1392
 381 000c 00       		.uleb128 0
 382 000d 8C01     		.uleb128 .LEHB2-.LFB1392
 383 000f 04       		.uleb128 .LEHE2-.LEHB2
 384 0010 00       		.uleb128 0
 385 0011 00       		.uleb128 0
 386 0012 D001     		.uleb128 .LEHB3-.LFB1392
 387 0014 04       		.uleb128 .LEHE3-.LEHB3
 388 0015 00       		.uleb128 0
 389 0016 00       		.uleb128 0
 390              	.LLSDACSE1392:
 391              		.section	.text._ZN10GuiElement10SetVisibleEb,"axG",@progbits,_ZN10GuiElement10SetVisibleEb,comdat
 392              		.size	_ZN10GuiElement10SetVisibleEb, .-_ZN10GuiElement10SetVisibleEb
 393              		.section	.text._ZN10GuiElement9IsVisibleEv,"axG",@progbits,_ZN10GuiElement9IsVisibleEv,comdat
 394              		.align 2
 395              		.weak	_ZN10GuiElement9IsVisibleEv
 396              		.type	_ZN10GuiElement9IsVisibleEv, @function
 397              	_ZN10GuiElement9IsVisibleEv:
 398              	.LFB1393:
 399              		.loc 1 142 0
 400              		.cfi_startproc
 401              	.LVL32:
 402              		.loc 1 142 0
 403 0000 8863001D 		lbz 3,29(3)
 404              	.LVL33:
 405 0004 4E800020 		blr
 406              		.cfi_endproc
 407              	.LFE1393:
 408              		.size	_ZN10GuiElement9IsVisibleEv, .-_ZN10GuiElement9IsVisibleEv
 409              		.section	.text._ZN10GuiElement12IsSelectableEv,"axG",@progbits,_ZN10GuiElement12IsSelectableEv,com
 410              		.align 2
 411              		.weak	_ZN10GuiElement12IsSelectableEv
 412              		.type	_ZN10GuiElement12IsSelectableEv, @function
 413              	_ZN10GuiElement12IsSelectableEv:
 414              	.LFB1394:
 415              		.loc 1 145 0
 416              		.cfi_startproc
 417              	.LVL34:
 418              		.loc 1 149 0
 419 0000 80030048 		lwz 0,72(3)
 420 0004 39200000 		li 9,0
 421 0008 2F800004 		cmpwi 7,0,4
 422 000c 419E0010 		beq- 7,.L23
 423              		.loc 1 149 0 is_stmt 0 discriminator 1
 424 0010 2F800002 		cmpwi 7,0,2
 425 0014 419E0008 		beq- 7,.L23
 426              		.loc 1 149 0 discriminator 3
 427 0018 8923001E 		lbz 9,30(3)
 428              	.L23:
 429              		.loc 1 150 0 is_stmt 1 discriminator 5
 430 001c 7D234B78 		mr 3,9
 431              	.LVL35:
 432 0020 4E800020 		blr
 433              		.cfi_endproc
 434              	.LFE1394:
 435              		.size	_ZN10GuiElement12IsSelectableEv, .-_ZN10GuiElement12IsSelectableEv
 436              		.section	.text._ZN10GuiElement11IsClickableEv,"axG",@progbits,_ZN10GuiElement11IsClickableEv,comda
 437              		.align 2
 438              		.weak	_ZN10GuiElement11IsClickableEv
 439              		.type	_ZN10GuiElement11IsClickableEv, @function
 440              	_ZN10GuiElement11IsClickableEv:
 441              	.LFB1395:
 442              		.loc 1 153 0
 443              		.cfi_startproc
 444              	.LVL36:
 445              		.loc 1 158 0
 446 0000 80030048 		lwz 0,72(3)
 447 0004 39200000 		li 9,0
 448 0008 2F800004 		cmpwi 7,0,4
 449 000c 419E0018 		beq- 7,.L27
 450              		.loc 1 158 0 is_stmt 0 discriminator 1
 451 0010 2F800002 		cmpwi 7,0,2
 452 0014 419E0010 		beq- 7,.L27
 453              		.loc 1 158 0 discriminator 3
 454 0018 2F800003 		cmpwi 7,0,3
 455 001c 419E0008 		beq- 7,.L27
 456              		.loc 1 158 0 discriminator 4
 457 0020 8923001F 		lbz 9,31(3)
 458              	.L27:
 459              		.loc 1 159 0 is_stmt 1 discriminator 6
 460 0024 7D234B78 		mr 3,9
 461              	.LVL37:
 462 0028 4E800020 		blr
 463              		.cfi_endproc
 464              	.LFE1395:
 465              		.size	_ZN10GuiElement11IsClickableEv, .-_ZN10GuiElement11IsClickableEv
 466              		.section	.text._ZN10GuiElement10IsHoldableEv,"axG",@progbits,_ZN10GuiElement10IsHoldableEv,comdat
 467              		.align 2
 468              		.weak	_ZN10GuiElement10IsHoldableEv
 469              		.type	_ZN10GuiElement10IsHoldableEv, @function
 470              	_ZN10GuiElement10IsHoldableEv:
 471              	.LFB1396:
 472              		.loc 1 162 0
 473              		.cfi_startproc
 474              	.LVL38:
 475              		.loc 1 162 0
 476 0000 81230048 		lwz 9,72(3)
 477 0004 38000000 		li 0,0
 478 0008 2F890004 		cmpwi 7,9,4
 479 000c 419E0008 		beq- 7,.L32
 480              		.loc 1 162 0 is_stmt 0 discriminator 1
 481 0010 88030020 		lbz 0,32(3)
 482              	.L32:
 483              		.loc 1 162 0 discriminator 4
 484 0014 7C030378 		mr 3,0
 485              	.LVL39:
 486 0018 4E800020 		blr
 487              		.cfi_endproc
 488              	.LFE1396:
 489              		.size	_ZN10GuiElement10IsHoldableEv, .-_ZN10GuiElement10IsHoldableEv
 490              		.section	.text._ZN10GuiElement13SetSelectableEb,"axG",@progbits,_ZN10GuiElement13SetSelectableEb,c
 491              		.align 2
 492              		.weak	_ZN10GuiElement13SetSelectableEb
 493              		.type	_ZN10GuiElement13SetSelectableEb, @function
 494              	_ZN10GuiElement13SetSelectableEb:
 495              	.LFB1397:
 496              		.loc 1 165 0 is_stmt 1
 497              		.cfi_startproc
 498              	.LVL40:
 499              		.loc 1 165 0
 500 0000 9883001E 		stb 4,30(3)
 501 0004 4E800020 		blr
 502              		.cfi_endproc
 503              	.LFE1397:
 504              		.size	_ZN10GuiElement13SetSelectableEb, .-_ZN10GuiElement13SetSelectableEb
 505              		.section	.text._ZN10GuiElement12SetClickableEb,"axG",@progbits,_ZN10GuiElement12SetClickableEb,com
 506              		.align 2
 507              		.weak	_ZN10GuiElement12SetClickableEb
 508              		.type	_ZN10GuiElement12SetClickableEb, @function
 509              	_ZN10GuiElement12SetClickableEb:
 510              	.LFB1398:
 511              		.loc 1 168 0
 512              		.cfi_startproc
 513              	.LVL41:
 514              		.loc 1 168 0
 515 0000 9883001F 		stb 4,31(3)
 516 0004 4E800020 		blr
 517              		.cfi_endproc
 518              	.LFE1398:
 519              		.size	_ZN10GuiElement12SetClickableEb, .-_ZN10GuiElement12SetClickableEb
 520              		.section	.text._ZN10GuiElement11SetHoldableEb,"axG",@progbits,_ZN10GuiElement11SetHoldableEb,comda
 521              		.align 2
 522              		.weak	_ZN10GuiElement11SetHoldableEb
 523              		.type	_ZN10GuiElement11SetHoldableEb, @function
 524              	_ZN10GuiElement11SetHoldableEb:
 525              	.LFB1399:
 526              		.loc 1 171 0
 527              		.cfi_startproc
 528              	.LVL42:
 529              		.loc 1 171 0
 530 0000 98830020 		stb 4,32(3)
 531 0004 4E800020 		blr
 532              		.cfi_endproc
 533              	.LFE1399:
 534              		.size	_ZN10GuiElement11SetHoldableEb, .-_ZN10GuiElement11SetHoldableEb
 535              		.section	.text._ZN10GuiElement8GetStateEv,"axG",@progbits,_ZN10GuiElement8GetStateEv,comdat
 536              		.align 2
 537              		.weak	_ZN10GuiElement8GetStateEv
 538              		.type	_ZN10GuiElement8GetStateEv, @function
 539              	_ZN10GuiElement8GetStateEv:
 540              	.LFB1400:
 541              		.loc 1 178 0
 542              		.cfi_startproc
 543              	.LVL43:
 544              		.loc 1 178 0
 545 0000 80630048 		lwz 3,72(3)
 546              	.LVL44:
 547 0004 4E800020 		blr
 548              		.cfi_endproc
 549              	.LFE1400:
 550              		.size	_ZN10GuiElement8GetStateEv, .-_ZN10GuiElement8GetStateEv
 551              		.section	.text._ZN10GuiElement12GetStateChanEv,"axG",@progbits,_ZN10GuiElement12GetStateChanEv,com
 552              		.align 2
 553              		.weak	_ZN10GuiElement12GetStateChanEv
 554              		.type	_ZN10GuiElement12GetStateChanEv, @function
 555              	_ZN10GuiElement12GetStateChanEv:
 556              	.LFB1401:
 557              		.loc 1 181 0
 558              		.cfi_startproc
 559              	.LVL45:
 560              		.loc 1 181 0
 561 0000 8063004C 		lwz 3,76(3)
 562              	.LVL46:
 563 0004 4E800020 		blr
 564              		.cfi_endproc
 565              	.LFE1401:
 566              		.size	_ZN10GuiElement12GetStateChanEv, .-_ZN10GuiElement12GetStateChanEv
 567              		.section	.text._ZN10GuiElement8SetAlphaEi,"axG",@progbits,_ZN10GuiElement8SetAlphaEi,comdat
 568              		.align 2
 569              		.weak	_ZN10GuiElement8SetAlphaEi
 570              		.type	_ZN10GuiElement8SetAlphaEi, @function
 571              	_ZN10GuiElement8SetAlphaEi:
 572              	.LFB1403:
 573              		.loc 1 190 0
 574              		.cfi_startproc
 575              	.LVL47:
 576              		.loc 1 190 0
 577 0000 90830038 		stw 4,56(3)
 578 0004 4E800020 		blr
 579              		.cfi_endproc
 580              	.LFE1403:
 581              		.size	_ZN10GuiElement8SetAlphaEi, .-_ZN10GuiElement8SetAlphaEi
 582              		.section	.text._ZN10GuiElement8GetAlphaEv,"axG",@progbits,_ZN10GuiElement8GetAlphaEv,comdat
 583              		.align 2
 584              		.weak	_ZN10GuiElement8GetAlphaEv
 585              		.type	_ZN10GuiElement8GetAlphaEv, @function
 586              	_ZN10GuiElement8GetAlphaEv:
 587              	.LFB1404:
 588              		.loc 1 194 0
 589              		.cfi_startproc
 590              	.LVL48:
 591 0000 7C0802A6 		mflr 0
 592 0004 9421FFD8 		stwu 1,-40(1)
 593              	.LCFI5:
 594              		.cfi_def_cfa_offset 40
 595              		.cfi_register 65, 0
 596 0008 93E10024 		stw 31,36(1)
 597 000c 9001002C 		stw 0,44(1)
 598              	.LBB1298:
 599              		.loc 1 198 0
 600 0010 83E3006C 		lwz 31,108(3)
 601              		.cfi_offset 65, 4
 602              		.cfi_offset 31, -4
 603 0014 2F9F0000 		cmpwi 7,31,0
 604 0018 419C0094 		blt- 7,.L43
 605              	.L41:
 606              	.LVL49:
 607              		.loc 1 203 0
 608 001c 80630060 		lwz 3,96(3)
 609              	.LVL50:
 610 0020 2F830000 		cmpwi 7,3,0
 611 0024 419E0070 		beq- 7,.L42
 612              		.loc 1 204 0
 613 0028 81230000 		lwz 9,0(3)
 614 002c 6FFF8000 		xoris 31,31,0x8000
 615              	.LVL51:
 616 0030 80090064 		lwz 0,100(9)
 617 0034 7C0903A6 		mtctr 0
 618 0038 4E800421 		bctrl
 619 003c 3C004330 		lis 0,0x4330
 620 0040 6C638000 		xoris 3,3,0x8000
 621 0044 90010010 		stw 0,16(1)
 622 0048 90610014 		stw 3,20(1)
 623 004c 3D200000 		lis 9,.LC1@ha
 624 0050 C0090000 		lfs 0,.LC1@l(9)
 625 0054 3D200000 		lis 9,.LC2@ha
 626 0058 C9A10010 		lfd 13,16(1)
 627 005c C1890004 		lfs 12,.LC2@l(9)
 628 0060 39210018 		addi 9,1,24
 629 0064 FDAD0028 		fsub 13,13,0
 630 0068 93E1000C 		stw 31,12(1)
 631 006c 90010008 		stw 0,8(1)
 632 0070 FDA06818 		frsp 13,13
 633 0074 EDAD6024 		fdivs 13,13,12
 634 0078 C9810008 		lfd 12,8(1)
 635 007c FC0C0028 		fsub 0,12,0
 636 0080 FC000018 		frsp 0,0
 637 0084 EC000372 		fmuls 0,0,13
 638 0088 FC00001E 		fctiwz 0,0
 639 008c 7C004FAE 		stfiwx 0,0,9
 640 0090 83E10018 		lwz 31,24(1)
 641              	.LVL52:
 642              	.L42:
 643              	.LBE1298:
 644              		.loc 1 207 0
 645 0094 8001002C 		lwz 0,44(1)
 646 0098 7FE3FB78 		mr 3,31
 647 009c 83E10024 		lwz 31,36(1)
 648              	.LVL53:
 649 00a0 7C0803A6 		mtlr 0
 650 00a4 38210028 		addi 1,1,40
 651              		.cfi_remember_state
 652              	.LCFI6:
 653              		.cfi_def_cfa_offset 0
 654              		.cfi_restore 31
 655 00a8 4E800020 		blr
 656              	.LVL54:
 657              	.L43:
 658              	.LCFI7:
 659              		.cfi_restore_state
 660              	.LBB1299:
 661              		.loc 1 201 0
 662 00ac 83E30038 		lwz 31,56(3)
 663              	.LVL55:
 664 00b0 4BFFFF6C 		b .L41
 665              	.LBE1299:
 666              		.cfi_endproc
 667              	.LFE1404:
 668              		.size	_ZN10GuiElement8GetAlphaEv, .-_ZN10GuiElement8GetAlphaEv
 669              		.section	.text._ZN10GuiElement8SetScaleEf,"axG",@progbits,_ZN10GuiElement8SetScaleEf,comdat
 670              		.align 2
 671              		.weak	_ZN10GuiElement8SetScaleEf
 672              		.type	_ZN10GuiElement8SetScaleEf, @function
 673              	_ZN10GuiElement8SetScaleEf:
 674              	.LFB1405:
 675              		.loc 1 210 0
 676              		.cfi_startproc
 677              	.LVL56:
 678              		.loc 1 212 0
 679 0000 D023003C 		stfs 1,60(3)
 680              		.loc 1 214 0
 681              		.loc 1 213 0
 682 0004 D0230040 		stfs 1,64(3)
 683              		.loc 1 214 0
 684 0008 4E800020 		blr
 685              		.cfi_endproc
 686              	.LFE1405:
 687              		.size	_ZN10GuiElement8SetScaleEf, .-_ZN10GuiElement8SetScaleEf
 688              		.section	.text._ZN10GuiElement9SetScaleXEf,"axG",@progbits,_ZN10GuiElement9SetScaleXEf,comdat
 689              		.align 2
 690              		.weak	_ZN10GuiElement9SetScaleXEf
 691              		.type	_ZN10GuiElement9SetScaleXEf, @function
 692              	_ZN10GuiElement9SetScaleXEf:
 693              	.LFB1406:
 694              		.loc 1 217 0
 695              		.cfi_startproc
 696              	.LVL57:
 697              		.loc 1 217 0
 698 0000 D023003C 		stfs 1,60(3)
 699 0004 4E800020 		blr
 700              		.cfi_endproc
 701              	.LFE1406:
 702              		.size	_ZN10GuiElement9SetScaleXEf, .-_ZN10GuiElement9SetScaleXEf
 703              		.section	.text._ZN10GuiElement9SetScaleYEf,"axG",@progbits,_ZN10GuiElement9SetScaleYEf,comdat
 704              		.align 2
 705              		.weak	_ZN10GuiElement9SetScaleYEf
 706              		.type	_ZN10GuiElement9SetScaleYEf, @function
 707              	_ZN10GuiElement9SetScaleYEf:
 708              	.LFB1407:
 709              		.loc 1 220 0
 710              		.cfi_startproc
 711              	.LVL58:
 712              		.loc 1 220 0
 713 0000 D0230040 		stfs 1,64(3)
 714 0004 4E800020 		blr
 715              		.cfi_endproc
 716              	.LFE1407:
 717              		.size	_ZN10GuiElement9SetScaleYEf, .-_ZN10GuiElement9SetScaleYEf
 718              		.section	.text._ZN10GuiElement8GetScaleEv,"axG",@progbits,_ZN10GuiElement8GetScaleEv,comdat
 719              		.align 2
 720              		.weak	_ZN10GuiElement8GetScaleEv
 721              		.type	_ZN10GuiElement8GetScaleEv, @function
 722              	_ZN10GuiElement8GetScaleEv:
 723              	.LFB1408:
 724              		.loc 1 223 0
 725              		.cfi_startproc
 726              	.LVL59:
 727 0000 7C0802A6 		mflr 0
 728 0004 9421FFF0 		stwu 1,-16(1)
 729              	.LCFI8:
 730              		.cfi_def_cfa_offset 16
 731              		.cfi_register 65, 0
 732              	.LBB1300:
 733              		.loc 1 225 0
 734 0008 3D200000 		lis 9,.LC3@ha
 735              	.LBE1300:
 736              		.loc 1 223 0
 737 000c DBE10008 		stfd 31,8(1)
 738 0010 90010014 		stw 0,20(1)
 739              	.LBB1301:
 740              		.loc 1 225 0
 741 0014 C0030040 		lfs 0,64(3)
 742 0018 C3E3003C 		lfs 31,60(3)
 743              		.cfi_offset 65, 4
 744              		.cfi_offset 63, -8
 745              		.loc 1 227 0
 746 001c 81630060 		lwz 11,96(3)
 747              		.loc 1 225 0
 748 0020 EFFF002A 		fadds 31,31,0
 749 0024 C0090008 		lfs 0,.LC3@l(9)
 750              		.loc 1 227 0
 751 0028 2F8B0000 		cmpwi 7,11,0
 752              		.loc 1 225 0
 753 002c EFFF0032 		fmuls 31,31,0
 754 0030 C0030070 		lfs 0,112(3)
 755 0034 EFFF0032 		fmuls 31,31,0
 756              	.LVL60:
 757              		.loc 1 227 0
 758 0038 419E001C 		beq- 7,.L48
 759              		.loc 1 228 0
 760 003c 812B0000 		lwz 9,0(11)
 761 0040 7D635B78 		mr 3,11
 762              	.LVL61:
 763 0044 80090074 		lwz 0,116(9)
 764 0048 7C0903A6 		mtctr 0
 765 004c 4E800421 		bctrl
 766 0050 EFFF0072 		fmuls 31,31,1
 767              	.LVL62:
 768              	.L48:
 769              	.LBE1301:
 770              		.loc 1 231 0
 771 0054 80010014 		lwz 0,20(1)
 772 0058 FC20F890 		fmr 1,31
 773 005c CBE10008 		lfd 31,8(1)
 774              	.LVL63:
 775 0060 7C0803A6 		mtlr 0
 776 0064 38210010 		addi 1,1,16
 777              	.LCFI9:
 778              		.cfi_def_cfa_offset 0
 779              		.cfi_restore 63
 780 0068 4E800020 		blr
 781              		.cfi_endproc
 782              	.LFE1408:
 783              		.size	_ZN10GuiElement8GetScaleEv, .-_ZN10GuiElement8GetScaleEv
 784              		.section	.text._ZN10GuiElement9GetScaleXEv,"axG",@progbits,_ZN10GuiElement9GetScaleXEv,comdat
 785              		.align 2
 786              		.weak	_ZN10GuiElement9GetScaleXEv
 787              		.type	_ZN10GuiElement9GetScaleXEv, @function
 788              	_ZN10GuiElement9GetScaleXEv:
 789              	.LFB1409:
 790              		.loc 1 234 0
 791              		.cfi_startproc
 792              	.LVL64:
 793 0000 7C0802A6 		mflr 0
 794 0004 9421FFF0 		stwu 1,-16(1)
 795              	.LCFI10:
 796              		.cfi_def_cfa_offset 16
 797              		.cfi_register 65, 0
 798 0008 DBE10008 		stfd 31,8(1)
 799 000c 90010014 		stw 0,20(1)
 800              	.LBB1302:
 801              		.loc 1 238 0
 802 0010 81630060 		lwz 11,96(3)
 803              		.loc 1 236 0
 804 0014 C3E3003C 		lfs 31,60(3)
 805              		.cfi_offset 65, 4
 806              		.cfi_offset 63, -8
 807              		.loc 1 238 0
 808 0018 2F8B0000 		cmpwi 7,11,0
 809              		.loc 1 236 0
 810 001c C0030070 		lfs 0,112(3)
 811 0020 EFFF0032 		fmuls 31,31,0
 812              	.LVL65:
 813              		.loc 1 238 0
 814 0024 419E001C 		beq- 7,.L50
 815              		.loc 1 239 0
 816 0028 812B0000 		lwz 9,0(11)
 817 002c 7D635B78 		mr 3,11
 818              	.LVL66:
 819 0030 80090078 		lwz 0,120(9)
 820 0034 7C0903A6 		mtctr 0
 821 0038 4E800421 		bctrl
 822 003c EFFF0072 		fmuls 31,31,1
 823              	.LVL67:
 824              	.L50:
 825              	.LBE1302:
 826              		.loc 1 242 0
 827 0040 80010014 		lwz 0,20(1)
 828 0044 FC20F890 		fmr 1,31
 829 0048 CBE10008 		lfd 31,8(1)
 830              	.LVL68:
 831 004c 7C0803A6 		mtlr 0
 832 0050 38210010 		addi 1,1,16
 833              	.LCFI11:
 834              		.cfi_def_cfa_offset 0
 835              		.cfi_restore 63
 836 0054 4E800020 		blr
 837              		.cfi_endproc
 838              	.LFE1409:
 839              		.size	_ZN10GuiElement9GetScaleXEv, .-_ZN10GuiElement9GetScaleXEv
 840              		.section	.text._ZN10GuiElement9GetScaleYEv,"axG",@progbits,_ZN10GuiElement9GetScaleYEv,comdat
 841              		.align 2
 842              		.weak	_ZN10GuiElement9GetScaleYEv
 843              		.type	_ZN10GuiElement9GetScaleYEv, @function
 844              	_ZN10GuiElement9GetScaleYEv:
 845              	.LFB1410:
 846              		.loc 1 245 0
 847              		.cfi_startproc
 848              	.LVL69:
 849 0000 7C0802A6 		mflr 0
 850 0004 9421FFF0 		stwu 1,-16(1)
 851              	.LCFI12:
 852              		.cfi_def_cfa_offset 16
 853              		.cfi_register 65, 0
 854 0008 DBE10008 		stfd 31,8(1)
 855 000c 90010014 		stw 0,20(1)
 856              	.LBB1303:
 857              		.loc 1 249 0
 858 0010 81630060 		lwz 11,96(3)
 859              		.loc 1 247 0
 860 0014 C3E30040 		lfs 31,64(3)
 861              		.cfi_offset 65, 4
 862              		.cfi_offset 63, -8
 863              		.loc 1 249 0
 864 0018 2F8B0000 		cmpwi 7,11,0
 865              		.loc 1 247 0
 866 001c C0030070 		lfs 0,112(3)
 867 0020 EFFF0032 		fmuls 31,31,0
 868              	.LVL70:
 869              		.loc 1 249 0
 870 0024 419E001C 		beq- 7,.L52
 871              		.loc 1 250 0
 872 0028 812B0000 		lwz 9,0(11)
 873 002c 7D635B78 		mr 3,11
 874              	.LVL71:
 875 0030 8009007C 		lwz 0,124(9)
 876 0034 7C0903A6 		mtctr 0
 877 0038 4E800421 		bctrl
 878 003c EFFF0072 		fmuls 31,31,1
 879              	.LVL72:
 880              	.L52:
 881              	.LBE1303:
 882              		.loc 1 253 0
 883 0040 80010014 		lwz 0,20(1)
 884 0044 FC20F890 		fmr 1,31
 885 0048 CBE10008 		lfd 31,8(1)
 886              	.LVL73:
 887 004c 7C0803A6 		mtlr 0
 888 0050 38210010 		addi 1,1,16
 889              	.LCFI13:
 890              		.cfi_def_cfa_offset 0
 891              		.cfi_restore 63
 892 0054 4E800020 		blr
 893              		.cfi_endproc
 894              	.LFE1410:
 895              		.size	_ZN10GuiElement9GetScaleYEv, .-_ZN10GuiElement9GetScaleYEv
 896              		.section	.text._ZN10GuiElement6RumbleEv,"axG",@progbits,_ZN10GuiElement6RumbleEv,comdat
 897              		.align 2
 898              		.weak	_ZN10GuiElement6RumbleEv
 899              		.type	_ZN10GuiElement6RumbleEv, @function
 900              	_ZN10GuiElement6RumbleEv:
 901              	.LFB1411:
 902              		.loc 1 256 0
 903              		.cfi_startproc
 904              	.LVL74:
 905              		.loc 1 256 0
 906 0000 8863001C 		lbz 3,28(3)
 907              	.LVL75:
 908 0004 4E800020 		blr
 909              		.cfi_endproc
 910              	.LFE1411:
 911              		.size	_ZN10GuiElement6RumbleEv, .-_ZN10GuiElement6RumbleEv
 912              		.section	.text._ZN10GuiElement9SetRumbleEb,"axG",@progbits,_ZN10GuiElement9SetRumbleEb,comdat
 913              		.align 2
 914              		.weak	_ZN10GuiElement9SetRumbleEb
 915              		.type	_ZN10GuiElement9SetRumbleEb, @function
 916              	_ZN10GuiElement9SetRumbleEb:
 917              	.LFB1412:
 918              		.loc 1 259 0
 919              		.cfi_startproc
 920              	.LVL76:
 921              		.loc 1 259 0
 922 0000 9883001C 		stb 4,28(3)
 923 0004 4E800020 		blr
 924              		.cfi_endproc
 925              	.LFE1412:
 926              		.size	_ZN10GuiElement9SetRumbleEb, .-_ZN10GuiElement9SetRumbleEb
 927              		.section	.text._ZN10GuiElement13SetEffectGrowEv,"axG",@progbits,_ZN10GuiElement13SetEffectGrowEv,c
 928              		.align 2
 929              		.weak	_ZN10GuiElement13SetEffectGrowEv
 930              		.type	_ZN10GuiElement13SetEffectGrowEv, @function
 931              	_ZN10GuiElement13SetEffectGrowEv:
 932              	.LFB1413:
 933              		.loc 1 271 0
 934              		.cfi_startproc
 935              	.LVL77:
 936 0000 7C0802A6 		mflr 0
 937 0004 9421FFF8 		stwu 1,-8(1)
 938              	.LCFI14:
 939              		.cfi_def_cfa_offset 8
 940              		.cfi_register 65, 0
 941 0008 81230000 		lwz 9,0(3)
 942 000c 38800100 		li 4,256
 943 0010 38A00004 		li 5,4
 944 0014 38C0006E 		li 6,110
 945 0018 9001000C 		stw 0,12(1)
 946              		.loc 1 271 0
 947 001c 8009008C 		lwz 0,140(9)
 948              		.cfi_offset 65, 4
 949 0020 7C0903A6 		mtctr 0
 950 0024 4E800421 		bctrl
 951              	.LVL78:
 952 0028 8001000C 		lwz 0,12(1)
 953 002c 38210008 		addi 1,1,8
 954              	.LCFI15:
 955              		.cfi_def_cfa_offset 0
 956 0030 7C0803A6 		mtlr 0
 957 0034 4E800020 		blr
 958              		.cfi_endproc
 959              	.LFE1413:
 960              		.size	_ZN10GuiElement13SetEffectGrowEv, .-_ZN10GuiElement13SetEffectGrowEv
 961              		.section	.text._ZNK10GuiElement9GetEffectEv,"axG",@progbits,_ZNK10GuiElement9GetEffectEv,comdat
 962              		.align 2
 963              		.weak	_ZNK10GuiElement9GetEffectEv
 964              		.type	_ZNK10GuiElement9GetEffectEv, @function
 965              	_ZNK10GuiElement9GetEffectEv:
 966              	.LFB1414:
 967              		.loc 1 276 0
 968              		.cfi_startproc
 969              	.LVL79:
 970              		.loc 1 276 0
 971 0000 80630078 		lwz 3,120(3)
 972              	.LVL80:
 973 0004 4E800020 		blr
 974              		.cfi_endproc
 975              	.LFE1414:
 976              		.size	_ZNK10GuiElement9GetEffectEv, .-_ZNK10GuiElement9GetEffectEv
 977              		.section	.text._ZNK10GuiElement10IsAnimatedEv,"axG",@progbits,_ZNK10GuiElement10IsAnimatedEv,comda
 978              		.align 2
 979              		.weak	_ZNK10GuiElement10IsAnimatedEv
 980              		.type	_ZNK10GuiElement10IsAnimatedEv, @function
 981              	_ZNK10GuiElement10IsAnimatedEv:
 982              	.LFB1415:
 983              		.loc 1 278 0
 984              		.cfi_startproc
 985              	.LVL81:
 986 0000 7C0802A6 		mflr 0
 987 0004 9421FFF8 		stwu 1,-8(1)
 988              	.LCFI16:
 989              		.cfi_def_cfa_offset 8
 990              		.cfi_register 65, 0
 991 0008 9001000C 		stw 0,12(1)
 992              		.loc 1 278 0
 993 000c 81230000 		lwz 9,0(3)
 994 0010 80090098 		lwz 0,152(9)
 995              		.cfi_offset 65, 4
 996 0014 7C0903A6 		mtctr 0
 997 0018 4E800421 		bctrl
 998              	.LVL82:
 999 001c 7C60FE70 		srawi 0,3,31
 1000 0020 7C630050 		subf 3,3,0
 1001 0024 8001000C 		lwz 0,12(1)
 1002 0028 54630FFE 		srwi 3,3,31
 1003 002c 7C0803A6 		mtlr 0
 1004 0030 38210008 		addi 1,1,8
 1005              	.LCFI17:
 1006              		.cfi_def_cfa_offset 0
 1007 0034 4E800020 		blr
 1008              		.cfi_endproc
 1009              	.LFE1415:
 1010              		.size	_ZNK10GuiElement10IsAnimatedEv, .-_ZNK10GuiElement10IsAnimatedEv
 1011              		.section	.text._ZN10GuiElement8IsInsideEii,"axG",@progbits,_ZN10GuiElement8IsInsideEii,comdat
 1012              		.align 2
 1013              		.weak	_ZN10GuiElement8IsInsideEii
 1014              		.type	_ZN10GuiElement8IsInsideEii, @function
 1015              	_ZN10GuiElement8IsInsideEii:
 1016              	.LFB1417:
 1017              		.loc 1 285 0
 1018              		.cfi_startproc
 1019              	.LVL83:
 1020 0000 7C0802A6 		mflr 0
 1021 0004 9421FFE8 		stwu 1,-24(1)
 1022              	.LCFI18:
 1023              		.cfi_def_cfa_offset 24
 1024              		.cfi_register 65, 0
 1025 0008 93810008 		stw 28,8(1)
 1026 000c 7CBC2B78 		mr 28,5
 1027              		.cfi_offset 28, -16
 1028 0010 9001001C 		stw 0,28(1)
 1029 0014 93A1000C 		stw 29,12(1)
 1030              		.loc 1 290 0
 1031 0018 3BA00000 		li 29,0
 1032              		.cfi_offset 29, -12
 1033              		.cfi_offset 65, 4
 1034              		.loc 1 287 0
 1035 001c 81230000 		lwz 9,0(3)
 1036              		.loc 1 285 0
 1037 0020 93C10010 		stw 30,16(1)
 1038 0024 7C9E2378 		mr 30,4
 1039              		.cfi_offset 30, -8
 1040              		.loc 1 287 0
 1041 0028 80090010 		lwz 0,16(9)
 1042              		.loc 1 285 0
 1043 002c 93E10014 		stw 31,20(1)
 1044              		.loc 1 285 0
 1045 0030 7C7F1B78 		mr 31,3
 1046              		.cfi_offset 31, -4
 1047              		.loc 1 287 0
 1048 0034 7C0903A6 		mtctr 0
 1049 0038 4E800421 		bctrl
 1050              	.LVL84:
 1051              		.loc 1 290 0
 1052 003c 7F83F000 		cmpw 7,3,30
 1053 0040 419C0028 		blt- 7,.L63
 1054              	.L59:
 1055              		.loc 1 291 0 discriminator 6
 1056 0044 8001001C 		lwz 0,28(1)
 1057 0048 7FA3EB78 		mr 3,29
 1058 004c 83810008 		lwz 28,8(1)
 1059              	.LVL85:
 1060 0050 7C0803A6 		mtlr 0
 1061 0054 83A1000C 		lwz 29,12(1)
 1062 0058 83C10010 		lwz 30,16(1)
 1063              	.LVL86:
 1064 005c 83E10014 		lwz 31,20(1)
 1065              	.LVL87:
 1066 0060 38210018 		addi 1,1,24
 1067              		.cfi_remember_state
 1068              	.LCFI19:
 1069              		.cfi_def_cfa_offset 0
 1070              		.cfi_restore 31
 1071              		.cfi_restore 30
 1072              		.cfi_restore 29
 1073              		.cfi_restore 28
 1074 0064 4E800020 		blr
 1075              	.LVL88:
 1076              	.L63:
 1077              	.LCFI20:
 1078              		.cfi_restore_state
 1079              		.loc 1 288 0 discriminator 1
 1080 0068 813F0000 		lwz 9,0(31)
 1081 006c 7FE3FB78 		mr 3,31
 1082 0070 80090010 		lwz 0,16(9)
 1083 0074 7C0903A6 		mtctr 0
 1084 0078 4E800421 		bctrl
 1085              		.loc 1 290 0 discriminator 1
 1086 007c 801F0024 		lwz 0,36(31)
 1087 0080 7C030214 		add 0,3,0
 1088 0084 7F9E0000 		cmpw 7,30,0
 1089 0088 409CFFBC 		bge+ 7,.L59
 1090              		.loc 1 289 0 discriminator 3
 1091 008c 813F0000 		lwz 9,0(31)
 1092 0090 7FE3FB78 		mr 3,31
 1093 0094 80090014 		lwz 0,20(9)
 1094 0098 7C0903A6 		mtctr 0
 1095 009c 4E800421 		bctrl
 1096              		.loc 1 290 0 discriminator 3
 1097 00a0 7F83E000 		cmpw 7,3,28
 1098 00a4 409CFFA0 		bge+ 7,.L59
 1099              		.loc 1 290 0 is_stmt 0 discriminator 4
 1100 00a8 813F0000 		lwz 9,0(31)
 1101 00ac 7FE3FB78 		mr 3,31
 1102 00b0 80090014 		lwz 0,20(9)
 1103 00b4 7C0903A6 		mtctr 0
 1104 00b8 4E800421 		bctrl
 1105 00bc 801F0028 		lwz 0,40(31)
 1106 00c0 7C030214 		add 0,3,0
 1107              		.loc 1 285 0 is_stmt 1 discriminator 4
 1108 00c4 7F9C0000 		cmpw 7,28,0
 1109 00c8 7FA00026 		mfcr 29
 1110 00cc 57BDEFFE 		rlwinm 29,29,29,1
 1111 00d0 4BFFFF74 		b .L59
 1112              		.cfi_endproc
 1113              	.LFE1417:
 1114              		.size	_ZN10GuiElement8IsInsideEii, .-_ZN10GuiElement8IsInsideEii
 1115              		.section	.text._ZN10GuiElement11SetPositionEii,"axG",@progbits,_ZN10GuiElement11SetPositionEii,com
 1116              		.align 2
 1117              		.weak	_ZN10GuiElement11SetPositionEii
 1118              		.type	_ZN10GuiElement11SetPositionEii, @function
 1119              	_ZN10GuiElement11SetPositionEii:
 1120              	.LFB1418:
 1121              		.loc 1 295 0
 1122              		.cfi_startproc
 1123              	.LVL89:
 1124              		.loc 1 297 0
 1125 0000 9083002C 		stw 4,44(3)
 1126              		.loc 1 299 0
 1127              		.loc 1 298 0
 1128 0004 90A30030 		stw 5,48(3)
 1129              		.loc 1 299 0
 1130 0008 4E800020 		blr
 1131              		.cfi_endproc
 1132              	.LFE1418:
 1133              		.size	_ZN10GuiElement11SetPositionEii, .-_ZN10GuiElement11SetPositionEii
 1134              		.section	.text._ZN10GuiElement11SetPositionEiii,"axG",@progbits,_ZN10GuiElement11SetPositionEiii,c
 1135              		.align 2
 1136              		.weak	_ZN10GuiElement11SetPositionEiii
 1137              		.type	_ZN10GuiElement11SetPositionEiii, @function
 1138              	_ZN10GuiElement11SetPositionEiii:
 1139              	.LFB1419:
 1140              		.loc 1 304 0
 1141              		.cfi_startproc
 1142              	.LVL90:
 1143              		.loc 1 306 0
 1144 0000 9083002C 		stw 4,44(3)
 1145              		.loc 1 309 0
 1146              		.loc 1 307 0
 1147 0004 90A30030 		stw 5,48(3)
 1148              		.loc 1 308 0
 1149 0008 90C30034 		stw 6,52(3)
 1150              		.loc 1 309 0
 1151 000c 4E800020 		blr
 1152              		.cfi_endproc
 1153              	.LFE1419:
 1154              		.size	_ZN10GuiElement11SetPositionEiii, .-_ZN10GuiElement11SetPositionEiii
 1155              		.section	.text._ZN10GuiElement11GetSelectedEv,"axG",@progbits,_ZN10GuiElement11GetSelectedEv,comda
 1156              		.align 2
 1157              		.weak	_ZN10GuiElement11GetSelectedEv
 1158              		.type	_ZN10GuiElement11GetSelectedEv, @function
 1159              	_ZN10GuiElement11GetSelectedEv:
 1160              	.LFB1420:
 1161              		.loc 1 312 0
 1162              		.cfi_startproc
 1163              	.LVL91:
 1164              		.loc 1 312 0
 1165 0000 3860FFFF 		li 3,-1
 1166              	.LVL92:
 1167 0004 4E800020 		blr
 1168              		.cfi_endproc
 1169              	.LFE1420:
 1170              		.size	_ZN10GuiElement11GetSelectedEv, .-_ZN10GuiElement11GetSelectedEv
 1171              		.section	.text._ZN10GuiElement12SetAlignmentEi,"axG",@progbits,_ZN10GuiElement12SetAlignmentEi,com
 1172              		.align 2
 1173              		.weak	_ZN10GuiElement12SetAlignmentEi
 1174              		.type	_ZN10GuiElement12SetAlignmentEi, @function
 1175              	_ZN10GuiElement12SetAlignmentEi:
 1176              	.LFB1421:
 1177              		.loc 1 316 0
 1178              		.cfi_startproc
 1179              	.LVL93:
 1180              		.loc 1 316 0
 1181 0000 90830044 		stw 4,68(3)
 1182 0004 4E800020 		blr
 1183              		.cfi_endproc
 1184              	.LFE1421:
 1185              		.size	_ZN10GuiElement12SetAlignmentEi, .-_ZN10GuiElement12SetAlignmentEi
 1186              		.section	.text._ZNK10GuiElement12GetAlignmentEv,"axG",@progbits,_ZNK10GuiElement12GetAlignmentEv,c
 1187              		.align 2
 1188              		.weak	_ZNK10GuiElement12GetAlignmentEv
 1189              		.type	_ZNK10GuiElement12GetAlignmentEv, @function
 1190              	_ZNK10GuiElement12GetAlignmentEv:
 1191              	.LFB1422:
 1192              		.loc 1 318 0
 1193              		.cfi_startproc
 1194              	.LVL94:
 1195              		.loc 1 318 0
 1196 0000 80630044 		lwz 3,68(3)
 1197              	.LVL95:
 1198 0004 4E800020 		blr
 1199              		.cfi_endproc
 1200              	.LFE1422:
 1201              		.size	_ZNK10GuiElement12GetAlignmentEv, .-_ZNK10GuiElement12GetAlignmentEv
 1202              		.section	".text"
 1203              		.align 2
 1204              		.globl _ZN11TextPointer4DrawEv
 1205              		.type	_ZN11TextPointer4DrawEv, @function
 1206              	_ZN11TextPointer4DrawEv:
 1207              	.LFB1581:
 1208              		.loc 3 203 0
 1209              		.cfi_startproc
 1210              	.LVL96:
 1211 0000 7C0802A6 		mflr 0
 1212 0004 9421FFF0 		stwu 1,-16(1)
 1213              	.LCFI21:
 1214              		.cfi_def_cfa_offset 16
 1215              		.cfi_register 65, 0
 1216              		.loc 3 204 0
 1217 0008 3D200000 		lis 9,frameCount@ha
 1218              		.loc 3 203 0
 1219 000c 93E1000C 		stw 31,12(1)
 1220 0010 7C7F1B78 		mr 31,3
 1221              		.cfi_offset 31, -4
 1222 0014 90010014 		stw 0,20(1)
 1223              		.loc 3 204 0
 1224 0018 80090000 		lwz 0,frameCount@l(9)
 1225              		.cfi_offset 65, 4
 1226 001c 3D208888 		lis 9,0x8888
 1227 0020 61298889 		ori 9,9,34953
 1228              		.loc 3 207 0
 1229 0024 8063015C 		lwz 3,348(3)
 1230              	.LVL97:
 1231              		.loc 3 204 0
 1232 0028 7D204816 		mulhwu 9,0,9
 1233 002c 5529E13E 		srwi 9,9,4
 1234 0030 1D29001E 		mulli 9,9,30
 1235 0034 7F804800 		cmpw 7,0,9
 1236 0038 419E0054 		beq- 7,.L74
 1237              		.loc 3 209 0
 1238 003c 81230000 		lwz 9,0(3)
 1239 0040 80090010 		lwz 0,16(9)
 1240 0044 7C0903A6 		mtctr 0
 1241 0048 4E800421 		bctrl
 1242 004c 809F0148 		lwz 4,328(31)
 1243 0050 7F832000 		cmpw 7,3,4
 1244 0054 419E0070 		beq- 7,.L72
 1245 0058 80BF0150 		lwz 5,336(31)
 1246              	.L73:
 1247              		.loc 3 210 0 discriminator 4
 1248 005c 807F015C 		lwz 3,348(31)
 1249 0060 81230000 		lwz 9,0(3)
 1250 0064 800900A8 		lwz 0,168(9)
 1251 0068 7C0903A6 		mtctr 0
 1252 006c 4E800421 		bctrl
 1253              	.L71:
 1254              		.loc 3 212 0
 1255 0070 7FE3FB78 		mr 3,31
 1256 0074 48000001 		bl _ZN9GuiButton4DrawEv
 1257              		.loc 3 213 0
 1258 0078 80010014 		lwz 0,20(1)
 1259 007c 83E1000C 		lwz 31,12(1)
 1260              	.LVL98:
 1261 0080 7C0803A6 		mtlr 0
 1262 0084 38210010 		addi 1,1,16
 1263              		.cfi_remember_state
 1264              	.LCFI22:
 1265              		.cfi_def_cfa_offset 0
 1266              		.cfi_restore 31
 1267 0088 4E800020 		blr
 1268              	.LVL99:
 1269              	.L74:
 1270              	.LCFI23:
 1271              		.cfi_restore_state
 1272              		.loc 3 207 0
 1273 008c 81230000 		lwz 9,0(3)
 1274              		.loc 3 206 0
 1275 0090 889F0155 		lbz 4,341(31)
 1276              		.loc 3 207 0
 1277 0094 80090030 		lwz 0,48(9)
 1278              		.loc 3 206 0
 1279 0098 68840001 		xori 4,4,1
 1280 009c 989F0155 		stb 4,341(31)
 1281              		.loc 3 207 0
 1282 00a0 7C0903A6 		mtctr 0
 1283 00a4 4E800421 		bctrl
 1284              		.loc 3 212 0
 1285 00a8 7FE3FB78 		mr 3,31
 1286 00ac 48000001 		bl _ZN9GuiButton4DrawEv
 1287              		.loc 3 213 0
 1288 00b0 80010014 		lwz 0,20(1)
 1289 00b4 83E1000C 		lwz 31,12(1)
 1290              	.LVL100:
 1291 00b8 7C0803A6 		mtlr 0
 1292 00bc 38210010 		addi 1,1,16
 1293              		.cfi_remember_state
 1294              		.cfi_restore 31
 1295              	.LCFI24:
 1296              		.cfi_def_cfa_offset 0
 1297 00c0 4E800020 		blr
 1298              	.LVL101:
 1299              	.L72:
 1300              	.LCFI25:
 1301              		.cfi_restore_state
 1302              		.loc 3 209 0 discriminator 2
 1303 00c4 807F015C 		lwz 3,348(31)
 1304 00c8 81230000 		lwz 9,0(3)
 1305 00cc 80090014 		lwz 0,20(9)
 1306 00d0 7C0903A6 		mtctr 0
 1307 00d4 4E800421 		bctrl
 1308 00d8 80BF0150 		lwz 5,336(31)
 1309 00dc 7F832800 		cmpw 7,3,5
 1310 00e0 41BEFF90 		beq- 7,.L71
 1311              		.loc 3 209 0 is_stmt 0
 1312 00e4 809F0148 		lwz 4,328(31)
 1313 00e8 4BFFFF74 		b .L73
 1314              		.cfi_endproc
 1315              	.LFE1581:
 1316              		.size	_ZN11TextPointer4DrawEv, .-_ZN11TextPointer4DrawEv
 1317              		.align 2
 1318              		.globl _ZN11TextPointerD2Ev
 1319              		.type	_ZN11TextPointerD2Ev, @function
 1320              	_ZN11TextPointerD2Ev:
 1321              	.LFB1575:
 1322              		.loc 3 85 0 is_stmt 1
 1323              		.cfi_startproc
 1324              		.cfi_personality 0,__gxx_personality_v0
 1325              		.cfi_lsda 0,.LLSDA1575
 1326              	.LVL102:
 1327 00ec 7C0802A6 		mflr 0
 1328 00f0 9421FFF0 		stwu 1,-16(1)
 1329              	.LCFI26:
 1330              		.cfi_def_cfa_offset 16
 1331              		.cfi_register 65, 0
 1332              	.LBB1305:
 1333 00f4 3D200000 		lis 9,_ZTV11TextPointer+8@ha
 1334              	.LBE1305:
 1335 00f8 93E1000C 		stw 31,12(1)
 1336 00fc 7C7F1B78 		mr 31,3
 1337              		.cfi_offset 31, -4
 1338 0100 90010014 		stw 0,20(1)
 1339              	.LBB1306:
 1340 0104 38090008 		la 0,_ZTV11TextPointer+8@l(9)
 1341              		.cfi_offset 65, 4
 1342              	.LBE1306:
 1343 0108 93C10008 		stw 30,8(1)
 1344              	.LBB1307:
 1345              		.loc 3 85 0
 1346 010c 90030000 		stw 0,0(3)
 1347              		.loc 3 87 0
 1348 0110 80630158 		lwz 3,344(3)
 1349              	.LVL103:
 1350              	.LEHB4:
 1351              		.cfi_offset 30, -8
 1352 0114 48000001 		bl _ZN9Resources6RemoveEP12GuiImageData
 1353              		.loc 3 88 0
 1354 0118 807F015C 		lwz 3,348(31)
 1355 011c 2F830000 		cmpwi 7,3,0
 1356 0120 419E0014 		beq- 7,.L76
 1357              		.loc 3 88 0 is_stmt 0 discriminator 1
 1358 0124 81230000 		lwz 9,0(3)
 1359 0128 80090004 		lwz 0,4(9)
 1360 012c 7C0903A6 		mtctr 0
 1361 0130 4E800421 		bctrl
 1362              	.L76:
 1363              		.loc 3 90 0 is_stmt 1
 1364 0134 807F0160 		lwz 3,352(31)
 1365 0138 2F830000 		cmpwi 7,3,0
 1366 013c 419E0014 		beq- 7,.L77
 1367              		.loc 3 91 0 discriminator 1
 1368 0140 81230000 		lwz 9,0(3)
 1369 0144 80090004 		lwz 0,4(9)
 1370 0148 7C0903A6 		mtctr 0
 1371 014c 4E800421 		bctrl
 1372              	.LEHE4:
 1373              	.L77:
 1374              		.loc 3 85 0
 1375 0150 7FE3FB78 		mr 3,31
 1376              	.LEHB5:
 1377 0154 48000001 		bl _ZN9GuiButtonD2Ev
 1378              	.LEHE5:
 1379              	.LBE1307:
 1380              		.loc 3 92 0
 1381 0158 80010014 		lwz 0,20(1)
 1382 015c 83C10008 		lwz 30,8(1)
 1383 0160 7C0803A6 		mtlr 0
 1384 0164 83E1000C 		lwz 31,12(1)
 1385              	.LVL104:
 1386 0168 38210010 		addi 1,1,16
 1387              		.cfi_remember_state
 1388              	.LCFI27:
 1389              		.cfi_def_cfa_offset 0
 1390              		.cfi_restore 31
 1391              		.cfi_restore 30
 1392 016c 4E800020 		blr
 1393              	.LVL105:
 1394              	.L80:
 1395              	.LCFI28:
 1396              		.cfi_restore_state
 1397 0170 7C7E1B78 		mr 30,3
 1398              	.LBB1308:
 1399              		.loc 3 85 0
 1400 0174 7FE3FB78 		mr 3,31
 1401 0178 48000001 		bl _ZN9GuiButtonD2Ev
 1402 017c 7FC3F378 		mr 3,30
 1403              	.LEHB6:
 1404 0180 48000001 		bl _Unwind_Resume
 1405              	.LEHE6:
 1406              	.LBE1308:
 1407              		.cfi_endproc
 1408              	.LFE1575:
 1409              		.section	.gcc_except_table
 1410              	.LLSDA1575:
 1411 0017 FF       		.byte	0xff
 1412 0018 FF       		.byte	0xff
 1413 0019 01       		.byte	0x1
 1414 001a 0E       		.uleb128 .LLSDACSE1575-.LLSDACSB1575
 1415              	.LLSDACSB1575:
 1416 001b 28       		.uleb128 .LEHB4-.LFB1575
 1417 001c 3C       		.uleb128 .LEHE4-.LEHB4
 1418 001d 8401     		.uleb128 .L80-.LFB1575
 1419 001f 00       		.uleb128 0
 1420 0020 68       		.uleb128 .LEHB5-.LFB1575
 1421 0021 04       		.uleb128 .LEHE5-.LEHB5
 1422 0022 00       		.uleb128 0
 1423 0023 00       		.uleb128 0
 1424 0024 9401     		.uleb128 .LEHB6-.LFB1575
 1425 0026 04       		.uleb128 .LEHE6-.LEHB6
 1426 0027 00       		.uleb128 0
 1427 0028 00       		.uleb128 0
 1428              	.LLSDACSE1575:
 1429              		.section	".text"
 1430              		.size	_ZN11TextPointerD2Ev, .-_ZN11TextPointerD2Ev
 1431              		.section	.text._ZN10GuiElement10ResetStateEv,"axG",@progbits,_ZN10GuiElement10ResetStateEv,comdat
 1432              		.align 2
 1433              		.weak	_ZN10GuiElement10ResetStateEv
 1434              		.type	_ZN10GuiElement10ResetStateEv, @function
 1435              	_ZN10GuiElement10ResetStateEv:
 1436              	.LFB1402:
 1437              		.loc 1 183 0
 1438              		.cfi_startproc
 1439              	.LVL106:
 1440 0000 7C0802A6 		mflr 0
 1441 0004 9421FFF8 		stwu 1,-8(1)
 1442              	.LCFI29:
 1443              		.cfi_def_cfa_offset 8
 1444              		.cfi_register 65, 0
 1445 0008 9001000C 		stw 0,12(1)
 1446              		.loc 1 185 0
 1447 000c 80030048 		lwz 0,72(3)
 1448              		.cfi_offset 65, 4
 1449 0010 2F800004 		cmpwi 7,0,4
 1450 0014 419E001C 		beq- 7,.L81
 1451              	.LVL107:
 1452              	.LBB1311:
 1453              	.LBB1312:
 1454              		.loc 1 186 0
 1455 0018 81230000 		lwz 9,0(3)
 1456 001c 38800000 		li 4,0
 1457 0020 38A0FFFF 		li 5,-1
 1458 0024 80090050 		lwz 0,80(9)
 1459 0028 7C0903A6 		mtctr 0
 1460 002c 4E800421 		bctrl
 1461              	.LVL108:
 1462              	.L81:
 1463              	.LBE1312:
 1464              	.LBE1311:
 1465              		.loc 1 187 0
 1466 0030 8001000C 		lwz 0,12(1)
 1467 0034 38210008 		addi 1,1,8
 1468              	.LCFI30:
 1469              		.cfi_def_cfa_offset 0
 1470 0038 7C0803A6 		mtlr 0
 1471 003c 4E800020 		blr
 1472              		.cfi_endproc
 1473              	.LFE1402:
 1474              		.size	_ZN10GuiElement10ResetStateEv, .-_ZN10GuiElement10ResetStateEv
 1475              		.section	".text"
 1476              		.align 2
 1477              		.globl _ZN11TextPointerD0Ev
 1478              		.type	_ZN11TextPointerD0Ev, @function
 1479              	_ZN11TextPointerD0Ev:
 1480              	.LFB1577:
 1481              		.loc 3 85 0
 1482              		.cfi_startproc
 1483              		.cfi_personality 0,__gxx_personality_v0
 1484              		.cfi_lsda 0,.LLSDA1577
 1485              	.LVL109:
 1486 0184 7C0802A6 		mflr 0
 1487 0188 9421FFF0 		stwu 1,-16(1)
 1488              	.LCFI31:
 1489              		.cfi_def_cfa_offset 16
 1490              		.cfi_register 65, 0
 1491              	.LBB1316:
 1492              	.LBB1317:
 1493              	.LBB1318:
 1494 018c 3D200000 		lis 9,_ZTV11TextPointer+8@ha
 1495              	.LBE1318:
 1496              	.LBE1317:
 1497              	.LBE1316:
 1498 0190 93E1000C 		stw 31,12(1)
 1499 0194 7C7F1B78 		mr 31,3
 1500              		.cfi_offset 31, -4
 1501              	.LVL110:
 1502 0198 90010014 		stw 0,20(1)
 1503              	.LBB1325:
 1504              	.LBB1322:
 1505              	.LBB1319:
 1506 019c 38090008 		la 0,_ZTV11TextPointer+8@l(9)
 1507              		.cfi_offset 65, 4
 1508              	.LBE1319:
 1509              	.LBE1322:
 1510              	.LBE1325:
 1511 01a0 93C10008 		stw 30,8(1)
 1512              	.LBB1326:
 1513              	.LBB1323:
 1514              	.LBB1320:
 1515              		.loc 3 85 0
 1516 01a4 90030000 		stw 0,0(3)
 1517              		.loc 3 87 0
 1518 01a8 80630158 		lwz 3,344(3)
 1519              	.LVL111:
 1520              	.LEHB7:
 1521              		.cfi_offset 30, -8
 1522 01ac 48000001 		bl _ZN9Resources6RemoveEP12GuiImageData
 1523              		.loc 3 88 0
 1524 01b0 807F015C 		lwz 3,348(31)
 1525 01b4 2F830000 		cmpwi 7,3,0
 1526 01b8 419E0014 		beq- 7,.L84
 1527 01bc 81230000 		lwz 9,0(3)
 1528 01c0 80090004 		lwz 0,4(9)
 1529 01c4 7C0903A6 		mtctr 0
 1530 01c8 4E800421 		bctrl
 1531              	.L84:
 1532              		.loc 3 90 0
 1533 01cc 807F0160 		lwz 3,352(31)
 1534 01d0 2F830000 		cmpwi 7,3,0
 1535 01d4 419E0014 		beq- 7,.L85
 1536              		.loc 3 91 0
 1537 01d8 81230000 		lwz 9,0(3)
 1538 01dc 80090004 		lwz 0,4(9)
 1539 01e0 7C0903A6 		mtctr 0
 1540 01e4 4E800421 		bctrl
 1541              	.LEHE7:
 1542              	.L85:
 1543              		.loc 3 85 0
 1544 01e8 7FE3FB78 		mr 3,31
 1545              	.LEHB8:
 1546 01ec 48000001 		bl _ZN9GuiButtonD2Ev
 1547              	.LEHE8:
 1548              	.LBE1320:
 1549              	.LBE1323:
 1550              	.LBE1326:
 1551              		.loc 3 92 0
 1552 01f0 7FE3FB78 		mr 3,31
 1553 01f4 48000001 		bl _ZdlPv
 1554 01f8 80010014 		lwz 0,20(1)
 1555 01fc 83C10008 		lwz 30,8(1)
 1556 0200 7C0803A6 		mtlr 0
 1557 0204 83E1000C 		lwz 31,12(1)
 1558              	.LVL112:
 1559 0208 38210010 		addi 1,1,16
 1560              		.cfi_remember_state
 1561              	.LCFI32:
 1562              		.cfi_def_cfa_offset 0
 1563              		.cfi_restore 31
 1564              		.cfi_restore 30
 1565 020c 4E800020 		blr
 1566              	.LVL113:
 1567              	.L89:
 1568              	.LCFI33:
 1569              		.cfi_restore_state
 1570 0210 7C7E1B78 		mr 30,3
 1571              	.LBB1327:
 1572              	.LBB1324:
 1573              	.LBB1321:
 1574              		.loc 3 85 0
 1575 0214 7FE3FB78 		mr 3,31
 1576 0218 48000001 		bl _ZN9GuiButtonD2Ev
 1577 021c 7FC3F378 		mr 3,30
 1578              	.LEHB9:
 1579 0220 48000001 		bl _Unwind_Resume
 1580              	.LEHE9:
 1581              	.LBE1321:
 1582              	.LBE1324:
 1583              	.LBE1327:
 1584              		.cfi_endproc
 1585              	.LFE1577:
 1586              		.section	.gcc_except_table
 1587              	.LLSDA1577:
 1588 0029 FF       		.byte	0xff
 1589 002a FF       		.byte	0xff
 1590 002b 01       		.byte	0x1
 1591 002c 0E       		.uleb128 .LLSDACSE1577-.LLSDACSB1577
 1592              	.LLSDACSB1577:
 1593 002d 28       		.uleb128 .LEHB7-.LFB1577
 1594 002e 3C       		.uleb128 .LEHE7-.LEHB7
 1595 002f 8C01     		.uleb128 .L89-.LFB1577
 1596 0031 00       		.uleb128 0
 1597 0032 68       		.uleb128 .LEHB8-.LFB1577
 1598 0033 04       		.uleb128 .LEHE8-.LEHB8
 1599 0034 00       		.uleb128 0
 1600 0035 00       		.uleb128 0
 1601 0036 9C01     		.uleb128 .LEHB9-.LFB1577
 1602 0038 04       		.uleb128 .LEHE9-.LEHB9
 1603 0039 00       		.uleb128 0
 1604 003a 00       		.uleb128 0
 1605              	.LLSDACSE1577:
 1606              		.section	".text"
 1607              		.size	_ZN11TextPointerD0Ev, .-_ZN11TextPointerD0Ev
 1608              		.align 2
 1609              		.globl _ZN11TextPointerC2EP7GuiTexti
 1610              		.type	_ZN11TextPointerC2EP7GuiTexti, @function
 1611              	_ZN11TextPointerC2EP7GuiTexti:
 1612              	.LFB1569:
 1613              		.loc 3 38 0
 1614              		.cfi_startproc
 1615              		.cfi_personality 0,__gxx_personality_v0
 1616              		.cfi_lsda 0,.LLSDA1569
 1617              	.LVL114:
 1618 0224 9421FFE8 		stwu 1,-24(1)
 1619              	.LCFI34:
 1620              		.cfi_def_cfa_offset 24
 1621 0228 7C0802A6 		mflr 0
 1622 022c 93A1000C 		stw 29,12(1)
 1623 0230 7C9D2378 		mr 29,4
 1624              		.cfi_offset 29, -12
 1625              		.cfi_register 65, 0
 1626 0234 93C10010 		stw 30,16(1)
 1627              	.LBB1328:
 1628              		.loc 3 39 0
 1629 0238 38800157 		li 4,343
 1630              	.LVL115:
 1631              	.LBE1328:
 1632              		.loc 3 38 0
 1633 023c 7CBE2B78 		mr 30,5
 1634              		.cfi_offset 30, -8
 1635              	.LBB1329:
 1636              		.loc 3 39 0
 1637 0240 38A000F0 		li 5,240
 1638              	.LVL116:
 1639              	.LBE1329:
 1640              		.loc 3 38 0
 1641 0244 9001001C 		stw 0,28(1)
 1642 0248 93E10014 		stw 31,20(1)
 1643              		.loc 3 38 0
 1644 024c 7C7F1B78 		mr 31,3
 1645              		.cfi_offset 31, -4
 1646              		.cfi_offset 65, 4
 1647              	.LEHB10:
 1648              	.LBB1330:
 1649              		.loc 3 39 0
 1650 0250 48000001 		bl _ZN9GuiButtonC2Eii
 1651              	.LEHE10:
 1652              	.LVL117:
 1653 0254 3D200000 		lis 9,_ZTV11TextPointer+8@ha
 1654 0258 38090008 		la 0,_ZTV11TextPointer+8@l(9)
 1655              		.loc 3 41 0
 1656 025c 93BF0164 		stw 29,356(31)
 1657              		.loc 3 39 0
 1658 0260 901F0000 		stw 0,0(31)
 1659              		.loc 3 44 0
 1660 0264 3960FFFF 		li 11,-1
 1661              		.loc 3 43 0
 1662 0268 38000000 		li 0,0
 1663              		.loc 3 213 0
 1664 026c 813D00B0 		lwz 9,176(29)
 1665              		.loc 3 43 0
 1666 0270 901F0160 		stw 0,352(31)
 1667              		.loc 3 42 0
 1668 0274 913F0138 		stw 9,312(31)
 1669              		.loc 3 44 0
 1670 0278 917F0140 		stw 11,320(31)
 1671              		.loc 3 45 0
 1672 027c 901F0148 		stw 0,328(31)
 1673              		.loc 3 46 0
 1674 0280 901F0150 		stw 0,336(31)
 1675              		.loc 3 213 0
 1676 0284 801D00B4 		lwz 0,180(29)
 1677              		.loc 3 48 0
 1678 0288 2F800000 		cmpwi 7,0,0
 1679              		.loc 3 47 0
 1680 028c 901F0024 		stw 0,36(31)
 1681              		.loc 3 48 0
 1682 0290 409E0014 		bne- 7,.L91
 1683              		.loc 3 49 0
 1684 0294 7FA3EB78 		mr 3,29
 1685              	.LEHB11:
 1686 0298 48000001 		bl _ZN7GuiText12GetTextWidthEv
 1687 029c 907F0024 		stw 3,36(31)
 1688 02a0 813F0138 		lwz 9,312(31)
 1689              	.L91:
 1690              		.loc 3 50 0
 1691 02a4 3BDE0001 		addi 30,30,1
 1692              	.LVL118:
 1693 02a8 39290006 		addi 9,9,6
 1694 02ac 7D3E49D6 		mullw 9,30,9
 1695              		.loc 3 51 0
 1696 02b0 38000001 		li 0,1
 1697              		.loc 3 53 0
 1698 02b4 3C600000 		lis 3,.LC4@ha
 1699              		.loc 3 51 0
 1700 02b8 981F0155 		stb 0,341(31)
 1701              		.loc 3 53 0
 1702 02bc 38630000 		la 3,.LC4@l(3)
 1703              		.loc 3 50 0
 1704 02c0 913F0028 		stw 9,40(31)
 1705              		.loc 3 53 0
 1706 02c4 48000001 		bl _ZN9Resources12GetImageDataEPKc
 1707 02c8 907F0158 		stw 3,344(31)
 1708              		.loc 3 54 0
 1709 02cc 386000C4 		li 3,196
 1710 02d0 48000001 		bl _Znwj
 1711              	.LEHE11:
 1712              		.loc 3 54 0 is_stmt 0 discriminator 1
 1713 02d4 809F0158 		lwz 4,344(31)
 1714 02d8 7C7E1B78 		mr 30,3
 1715              	.LVL119:
 1716              	.LEHB12:
 1717 02dc 48000001 		bl _ZN8GuiImageC1EP12GuiImageData
 1718              	.LEHE12:
 1719 02e0 93DF015C 		stw 30,348(31)
 1720              		.loc 3 55 0 is_stmt 1 discriminator 1
 1721 02e4 7FC3F378 		mr 3,30
 1722 02e8 813E0000 		lwz 9,0(30)
 1723 02ec 889F0155 		lbz 4,341(31)
 1724 02f0 80090030 		lwz 0,48(9)
 1725 02f4 7C0903A6 		mtctr 0
 1726              	.LEHB13:
 1727 02f8 4E800421 		bctrl
 1728              		.loc 3 57 0
 1729 02fc 809F0164 		lwz 4,356(31)
 1730 0300 7FE3FB78 		mr 3,31
 1731 0304 38A00000 		li 5,0
 1732 0308 48000001 		bl _ZN9GuiButton8SetLabelEP7GuiTexti
 1733              		.loc 3 58 0
 1734 030c 809F015C 		lwz 4,348(31)
 1735 0310 7FE3FB78 		mr 3,31
 1736 0314 48000001 		bl _ZN9GuiButton8SetImageEP8GuiImage
 1737              	.LEHE13:
 1738              	.LBE1330:
 1739              		.loc 3 59 0
 1740 0318 8001001C 		lwz 0,28(1)
 1741 031c 83A1000C 		lwz 29,12(1)
 1742              	.LVL120:
 1743 0320 7C0803A6 		mtlr 0
 1744 0324 83C10010 		lwz 30,16(1)
 1745 0328 83E10014 		lwz 31,20(1)
 1746              	.LVL121:
 1747 032c 38210018 		addi 1,1,24
 1748              		.cfi_remember_state
 1749              	.LCFI35:
 1750              		.cfi_def_cfa_offset 0
 1751              		.cfi_restore 31
 1752              		.cfi_restore 30
 1753              		.cfi_restore 29
 1754 0330 4E800020 		blr
 1755              	.LVL122:
 1756              	.L94:
 1757              	.LCFI36:
 1758              		.cfi_restore_state
 1759 0334 7C7E1B78 		mr 30,3
 1760              	.LVL123:
 1761              	.L93:
 1762              	.LBB1331:
 1763              		.loc 3 39 0
 1764 0338 7FE3FB78 		mr 3,31
 1765 033c 48000001 		bl _ZN9GuiButtonD2Ev
 1766 0340 7FC3F378 		mr 3,30
 1767              	.LEHB14:
 1768 0344 48000001 		bl _Unwind_Resume
 1769              	.LEHE14:
 1770              	.LVL124:
 1771              	.L95:
 1772 0348 7C7D1B78 		mr 29,3
 1773              	.LVL125:
 1774              		.loc 3 54 0
 1775 034c 7FC3F378 		mr 3,30
 1776 0350 48000001 		bl _ZdlPv
 1777 0354 7FBEEB78 		mr 30,29
 1778 0358 4BFFFFE0 		b .L93
 1779              	.LBE1331:
 1780              		.cfi_endproc
 1781              	.LFE1569:
 1782              		.section	.gcc_except_table
 1783              	.LLSDA1569:
 1784 003b FF       		.byte	0xff
 1785 003c FF       		.byte	0xff
 1786 003d 01       		.byte	0x1
 1787 003e 1A       		.uleb128 .LLSDACSE1569-.LLSDACSB1569
 1788              	.LLSDACSB1569:
 1789 003f 2C       		.uleb128 .LEHB10-.LFB1569
 1790 0040 04       		.uleb128 .LEHE10-.LEHB10
 1791 0041 00       		.uleb128 0
 1792 0042 00       		.uleb128 0
 1793 0043 74       		.uleb128 .LEHB11-.LFB1569
 1794 0044 3C       		.uleb128 .LEHE11-.LEHB11
 1795 0045 9002     		.uleb128 .L94-.LFB1569
 1796 0047 00       		.uleb128 0
 1797 0048 B801     		.uleb128 .LEHB12-.LFB1569
 1798 004a 04       		.uleb128 .LEHE12-.LEHB12
 1799 004b A402     		.uleb128 .L95-.LFB1569
 1800 004d 00       		.uleb128 0
 1801 004e D401     		.uleb128 .LEHB13-.LFB1569
 1802 0050 20       		.uleb128 .LEHE13-.LEHB13
 1803 0051 9002     		.uleb128 .L94-.LFB1569
 1804 0053 00       		.uleb128 0
 1805 0054 A002     		.uleb128 .LEHB14-.LFB1569
 1806 0056 04       		.uleb128 .LEHE14-.LEHB14
 1807 0057 00       		.uleb128 0
 1808 0058 00       		.uleb128 0
 1809              	.LLSDACSE1569:
 1810              		.section	".text"
 1811              		.size	_ZN11TextPointerC2EP7GuiTexti, .-_ZN11TextPointerC2EP7GuiTexti
 1812              		.align 2
 1813              		.globl _ZN11TextPointerC2EP7GuiTextii
 1814              		.type	_ZN11TextPointerC2EP7GuiTextii, @function
 1815              	_ZN11TextPointerC2EP7GuiTextii:
 1816              	.LFB1572:
 1817              		.loc 3 61 0
 1818              		.cfi_startproc
 1819              		.cfi_personality 0,__gxx_personality_v0
 1820              		.cfi_lsda 0,.LLSDA1572
 1821              	.LVL126:
 1822 035c 9421FFE8 		stwu 1,-24(1)
 1823              	.LCFI37:
 1824              		.cfi_def_cfa_offset 24
 1825 0360 7C0802A6 		mflr 0
 1826 0364 93C10010 		stw 30,16(1)
 1827 0368 7CBE2B78 		mr 30,5
 1828              		.cfi_offset 30, -8
 1829              		.cfi_register 65, 0
 1830 036c 93810008 		stw 28,8(1)
 1831              	.LBB1332:
 1832              		.loc 3 62 0
 1833 0370 7CC53378 		mr 5,6
 1834              	.LVL127:
 1835              	.LBE1332:
 1836              		.loc 3 61 0
 1837 0374 7C9C2378 		mr 28,4
 1838              		.cfi_offset 28, -16
 1839              	.LBB1333:
 1840              		.loc 3 62 0
 1841 0378 7FC4F378 		mr 4,30
 1842              	.LVL128:
 1843              	.LBE1333:
 1844              		.loc 3 61 0
 1845 037c 9001001C 		stw 0,28(1)
 1846 0380 93A1000C 		stw 29,12(1)
 1847 0384 7CDD3378 		mr 29,6
 1848              		.cfi_offset 29, -12
 1849              		.cfi_offset 65, 4
 1850 0388 93E10014 		stw 31,20(1)
 1851              		.loc 3 61 0
 1852 038c 7C7F1B78 		mr 31,3
 1853              		.cfi_offset 31, -4
 1854              	.LEHB15:
 1855              	.LBB1334:
 1856              		.loc 3 62 0
 1857 0390 48000001 		bl _ZN9GuiButtonC2Eii
 1858              	.LEHE15:
 1859              	.LVL129:
 1860 0394 3D200000 		lis 9,_ZTV11TextPointer+8@ha
 1861 0398 38090008 		la 0,_ZTV11TextPointer+8@l(9)
 1862              		.loc 3 64 0
 1863 039c 939F0164 		stw 28,356(31)
 1864              		.loc 3 62 0
 1865 03a0 901F0000 		stw 0,0(31)
 1866              		.loc 3 66 0
 1867 03a4 38000000 		li 0,0
 1868              		.loc 3 74 0
 1869 03a8 3C600000 		lis 3,.LC4@ha
 1870              		.loc 3 213 0
 1871 03ac 813C00B0 		lwz 9,176(28)
 1872              		.loc 3 74 0
 1873 03b0 38630000 		la 3,.LC4@l(3)
 1874              		.loc 3 66 0
 1875 03b4 901F0160 		stw 0,352(31)
 1876              		.loc 3 65 0
 1877 03b8 913F0138 		stw 9,312(31)
 1878              		.loc 3 67 0
 1879 03bc 3920FFFF 		li 9,-1
 1880              		.loc 3 68 0
 1881 03c0 901F0148 		stw 0,328(31)
 1882              		.loc 3 69 0
 1883 03c4 901F0150 		stw 0,336(31)
 1884              		.loc 3 72 0
 1885 03c8 38000001 		li 0,1
 1886              		.loc 3 67 0
 1887 03cc 913F0140 		stw 9,320(31)
 1888              		.loc 3 70 0
 1889 03d0 93DF0024 		stw 30,36(31)
 1890              		.loc 3 71 0
 1891 03d4 93BF0028 		stw 29,40(31)
 1892              		.loc 3 72 0
 1893 03d8 981F0155 		stb 0,341(31)
 1894              	.LEHB16:
 1895              		.loc 3 74 0
 1896 03dc 48000001 		bl _ZN9Resources12GetImageDataEPKc
 1897 03e0 907F0158 		stw 3,344(31)
 1898              		.loc 3 75 0
 1899 03e4 386000C4 		li 3,196
 1900 03e8 48000001 		bl _Znwj
 1901              	.LEHE16:
 1902              		.loc 3 75 0 is_stmt 0 discriminator 1
 1903 03ec 809F0158 		lwz 4,344(31)
 1904 03f0 7C7E1B78 		mr 30,3
 1905              	.LVL130:
 1906              	.LEHB17:
 1907 03f4 48000001 		bl _ZN8GuiImageC1EP12GuiImageData
 1908              	.LEHE17:
 1909 03f8 93DF015C 		stw 30,348(31)
 1910              		.loc 3 76 0 is_stmt 1 discriminator 1
 1911 03fc 7FC3F378 		mr 3,30
 1912 0400 813E0000 		lwz 9,0(30)
 1913 0404 889F0155 		lbz 4,341(31)
 1914 0408 80090030 		lwz 0,48(9)
 1915 040c 7C0903A6 		mtctr 0
 1916              	.LEHB18:
 1917 0410 4E800421 		bctrl
 1918              		.loc 3 78 0
 1919 0414 809F0164 		lwz 4,356(31)
 1920 0418 7FE3FB78 		mr 3,31
 1921 041c 38A00000 		li 5,0
 1922 0420 48000001 		bl _ZN9GuiButton8SetLabelEP7GuiTexti
 1923              		.loc 3 79 0
 1924 0424 809F015C 		lwz 4,348(31)
 1925 0428 7FE3FB78 		mr 3,31
 1926 042c 48000001 		bl _ZN9GuiButton8SetImageEP8GuiImage
 1927              	.LEHE18:
 1928              	.LBE1334:
 1929              		.loc 3 80 0
 1930 0430 8001001C 		lwz 0,28(1)
 1931 0434 83810008 		lwz 28,8(1)
 1932              	.LVL131:
 1933 0438 7C0803A6 		mtlr 0
 1934 043c 83A1000C 		lwz 29,12(1)
 1935              	.LVL132:
 1936 0440 83C10010 		lwz 30,16(1)
 1937 0444 83E10014 		lwz 31,20(1)
 1938              	.LVL133:
 1939 0448 38210018 		addi 1,1,24
 1940              		.cfi_remember_state
 1941              	.LCFI38:
 1942              		.cfi_def_cfa_offset 0
 1943              		.cfi_restore 31
 1944              		.cfi_restore 30
 1945              		.cfi_restore 29
 1946              		.cfi_restore 28
 1947 044c 4E800020 		blr
 1948              	.LVL134:
 1949              	.L100:
 1950              	.LCFI39:
 1951              		.cfi_restore_state
 1952 0450 7C7E1B78 		mr 30,3
 1953              	.LVL135:
 1954              	.L99:
 1955              	.LBB1335:
 1956              		.loc 3 62 0
 1957 0454 7FE3FB78 		mr 3,31
 1958 0458 48000001 		bl _ZN9GuiButtonD2Ev
 1959 045c 7FC3F378 		mr 3,30
 1960              	.LEHB19:
 1961 0460 48000001 		bl _Unwind_Resume
 1962              	.LEHE19:
 1963              	.LVL136:
 1964              	.L101:
 1965 0464 7C7D1B78 		mr 29,3
 1966              	.LVL137:
 1967              		.loc 3 75 0
 1968 0468 7FC3F378 		mr 3,30
 1969 046c 48000001 		bl _ZdlPv
 1970 0470 7FBEEB78 		mr 30,29
 1971 0474 4BFFFFE0 		b .L99
 1972              	.LBE1335:
 1973              		.cfi_endproc
 1974              	.LFE1572:
 1975              		.section	.gcc_except_table
 1976              	.LLSDA1572:
 1977 0059 FF       		.byte	0xff
 1978 005a FF       		.byte	0xff
 1979 005b 01       		.byte	0x1
 1980 005c 1B       		.uleb128 .LLSDACSE1572-.LLSDACSB1572
 1981              	.LLSDACSB1572:
 1982 005d 34       		.uleb128 .LEHB15-.LFB1572
 1983 005e 04       		.uleb128 .LEHE15-.LEHB15
 1984 005f 00       		.uleb128 0
 1985 0060 00       		.uleb128 0
 1986 0061 8001     		.uleb128 .LEHB16-.LFB1572
 1987 0063 10       		.uleb128 .LEHE16-.LEHB16
 1988 0064 F401     		.uleb128 .L100-.LFB1572
 1989 0066 00       		.uleb128 0
 1990 0067 9801     		.uleb128 .LEHB17-.LFB1572
 1991 0069 04       		.uleb128 .LEHE17-.LEHB17
 1992 006a 8802     		.uleb128 .L101-.LFB1572
 1993 006c 00       		.uleb128 0
 1994 006d B401     		.uleb128 .LEHB18-.LFB1572
 1995 006f 20       		.uleb128 .LEHE18-.LEHB18
 1996 0070 F401     		.uleb128 .L100-.LFB1572
 1997 0072 00       		.uleb128 0
 1998 0073 8402     		.uleb128 .LEHB19-.LFB1572
 1999 0075 04       		.uleb128 .LEHE19-.LEHB19
 2000 0076 00       		.uleb128 0
 2001 0077 00       		.uleb128 0
 2002              	.LLSDACSE1572:
 2003              		.section	".text"
 2004              		.size	_ZN11TextPointerC2EP7GuiTextii, .-_ZN11TextPointerC2EP7GuiTextii
 2005              		.align 2
 2006              		.globl _ZN11TextPointer15PositionChangedEiii
 2007              		.type	_ZN11TextPointer15PositionChangedEiii, @function
 2008              	_ZN11TextPointer15PositionChangedEiii:
 2009              	.LFB1578:
 2010              		.loc 3 95 0
 2011              		.cfi_startproc
 2012              	.LVL138:
 2013 0478 7C0802A6 		mflr 0
 2014 047c 9421FFD0 		stwu 1,-48(1)
 2015              	.LCFI40:
 2016              		.cfi_def_cfa_offset 48
 2017              		.cfi_register 65, 0
 2018 0480 93E1002C 		stw 31,44(1)
 2019 0484 7C7F1B78 		mr 31,3
 2020              		.cfi_offset 31, -4
 2021 0488 90010034 		stw 0,52(1)
 2022 048c 92E1000C 		stw 23,12(1)
 2023 0490 7C972378 		mr 23,4
 2024              		.cfi_offset 23, -36
 2025              		.cfi_offset 65, 4
 2026              	.LBB1336:
 2027              		.loc 3 96 0
 2028 0494 80630160 		lwz 3,352(3)
 2029              	.LVL139:
 2030              	.LBE1336:
 2031              		.loc 3 95 0
 2032 0498 93210014 		stw 25,20(1)
 2033 049c 7CB92B78 		mr 25,5
 2034              		.cfi_offset 25, -28
 2035              	.LBB1339:
 2036              		.loc 3 96 0
 2037 04a0 2F830000 		cmpwi 7,3,0
 2038              	.LBE1339:
 2039              		.loc 3 95 0
 2040 04a4 93C10028 		stw 30,40(1)
 2041 04a8 93010010 		stw 24,16(1)
 2042 04ac 7CDE3378 		mr 30,6
 2043              		.cfi_offset 24, -32
 2044              		.cfi_offset 30, -8
 2045 04b0 93410018 		stw 26,24(1)
 2046 04b4 9361001C 		stw 27,28(1)
 2047 04b8 93810020 		stw 28,32(1)
 2048 04bc 93A10024 		stw 29,36(1)
 2049              	.LBB1340:
 2050              		.loc 3 96 0
 2051 04c0 419E001C 		beq- 7,.L104
 2052              		.cfi_offset 29, -12
 2053              		.cfi_offset 28, -16
 2054              		.cfi_offset 27, -20
 2055              		.cfi_offset 26, -24
 2056              		.loc 3 98 0 discriminator 1
 2057 04c4 81230000 		lwz 9,0(3)
 2058 04c8 80090004 		lwz 0,4(9)
 2059 04cc 7C0903A6 		mtctr 0
 2060 04d0 4E800421 		bctrl
 2061              	.LVL140:
 2062              		.loc 3 99 0 discriminator 1
 2063 04d4 38000000 		li 0,0
 2064 04d8 901F0160 		stw 0,352(31)
 2065              	.L104:
 2066              		.loc 3 113 0
 2067 04dc 807F0164 		lwz 3,356(31)
 2068              		.loc 3 104 0
 2069 04e0 38000000 		li 0,0
 2070              		.loc 3 103 0
 2071 04e4 3960FFFF 		li 11,-1
 2072              		.loc 3 113 0
 2073 04e8 81230000 		lwz 9,0(3)
 2074              		.loc 3 104 0
 2075 04ec 901F0148 		stw 0,328(31)
 2076              		.loc 3 105 0
 2077 04f0 901F0150 		stw 0,336(31)
 2078              		.loc 3 106 0
 2079 04f4 901F014C 		stw 0,332(31)
 2080              		.loc 3 107 0
 2081 04f8 981F0154 		stb 0,340(31)
 2082              	.LVL141:
 2083              		.loc 3 113 0
 2084 04fc 800900E4 		lwz 0,228(9)
 2085              		.loc 3 102 0
 2086 0500 92FF0144 		stw 23,324(31)
 2087              		.loc 3 103 0
 2088 0504 917F0140 		stw 11,320(31)
 2089              		.loc 3 113 0
 2090 0508 7C0903A6 		mtctr 0
 2091 050c 4E800421 		bctrl
 2092              	.LVL142:
 2093              		.loc 3 114 0
 2094 0510 2C030000 		cmpwi 0,3,0
 2095 0514 408101B4 		ble- 0,.L125
 2096              	.LVL143:
 2097              	.L105:
 2098 0518 2F830000 		cmpwi 7,3,0
 2099 051c 811F0138 		lwz 8,312(31)
 2100 0520 7C6903A6 		mtctr 3
 2101              		.loc 3 94 0
 2102 0524 7FDE00D0 		neg 30,30
 2103              	.LVL144:
 2104 0528 39080006 		addi 8,8,6
 2105              		.loc 3 117 0
 2106 052c 39200000 		li 9,0
 2107              		.loc 3 111 0
 2108 0530 380003E8 		li 0,1000
 2109              		.loc 3 109 0
 2110 0534 39400000 		li 10,0
 2111 0538 409D0198 		ble- 7,.L126
 2112              	.LVL145:
 2113              	.L110:
 2114              	.LBB1337:
 2115              	.LBB1338:
 2116              		.loc 3 120 0
 2117 053c 7FC7FE70 		srawi 7,30,31
 2118 0540 7D3C4B78 		mr 28,9
 2119 0544 7CEBF278 		xor 11,7,30
 2120 0548 7D675850 		subf 11,7,11
 2121 054c 7F8B0000 		cmpw 7,11,0
 2122 0550 419C0008 		blt- 7,.L107
 2123 0554 7D5C5378 		mr 28,10
 2124              	.L107:
 2125 0558 7F8AE378 		mr 10,28
 2126 055c 409C0008 		bge- 7,.L109
 2127 0560 7D605B78 		mr 0,11
 2128              	.L109:
 2129              	.LVL146:
 2130              	.LBE1338:
 2131              		.loc 3 117 0
 2132 0564 39290001 		addi 9,9,1
 2133              	.LVL147:
 2134 0568 7FDE4214 		add 30,30,8
 2135 056c 4200FFD0 		bdnz .L110
 2136              	.LVL148:
 2137              	.LBE1337:
 2138              		.loc 3 127 0
 2139 0570 807F0164 		lwz 3,356(31)
 2140              	.LVL149:
 2141 0574 7F84E378 		mr 4,28
 2142 0578 81230000 		lwz 9,0(3)
 2143              	.LVL150:
 2144 057c 800900E8 		lwz 0,232(9)
 2145 0580 7C0903A6 		mtctr 0
 2146 0584 4E800421 		bctrl
 2147              	.LVL151:
 2148              		.loc 3 129 0
 2149 0588 7C7B1B79 		mr. 27,3
 2150 058c 41820108 		beq- 0,.L103
 2151              		.loc 3 132 0
 2152 0590 48000001 		bl wcslen
 2153              	.LVL152:
 2154              		.loc 3 136 0
 2155 0594 809B0000 		lwz 4,0(27)
 2156              		.loc 3 132 0
 2157 0598 38630001 		addi 3,3,1
 2158              		.loc 3 126 0
 2159 059c 3B4003E8 		li 26,1000
 2160              		.loc 3 136 0
 2161 05a0 2F840000 		cmpwi 7,4,0
 2162              		.loc 3 132 0
 2163 05a4 907F013C 		stw 3,316(31)
 2164              	.LVL153:
 2165              		.loc 3 136 0
 2166 05a8 419E00AC 		beq- 7,.L113
 2167              		.loc 3 138 0
 2168 05ac 3F000000 		lis 24,fontSystem@ha
 2169 05b0 A8BF013A 		lha 5,314(31)
 2170 05b4 80780000 		lwz 3,fontSystem@l(24)
 2171 05b8 3BA00001 		li 29,1
 2172              		.loc 3 126 0
 2173 05bc 3B4003E8 		li 26,1000
 2174              		.loc 3 134 0
 2175 05c0 3BC00000 		li 30,0
 2176              		.loc 3 138 0
 2177 05c4 38C00000 		li 6,0
 2178              	.LVL154:
 2179              	.L119:
 2180              		.loc 3 138 0 is_stmt 0 discriminator 3
 2181 05c8 48000001 		bl _ZN10FreeTypeGX12getCharWidthEwsw
 2182 05cc 2F1D0000 		cmpwi 6,29,0
 2183 05d0 7FDE1A14 		add 30,30,3
 2184              	.LVL155:
 2185 05d4 38C00000 		li 6,0
 2186              		.loc 3 140 0 is_stmt 1 discriminator 3
 2187 05d8 7C1EC850 		subf 0,30,25
 2188 05dc 7C07FE70 		srawi 7,0,31
 2189 05e0 7CE00278 		xor 0,7,0
 2190 05e4 7C070050 		subf 0,7,0
 2191 05e8 7F9A0000 		cmpw 7,26,0
 2192 05ec 409D0010 		ble- 7,.L116
 2193              	.L127:
 2194              	.LVL156:
 2195              		.loc 3 144 0
 2196 05f0 93BF014C 		stw 29,332(31)
 2197 05f4 7C1A0378 		mr 26,0
 2198              		.loc 3 143 0
 2199 05f8 93DF0148 		stw 30,328(31)
 2200              	.LVL157:
 2201              	.L116:
 2202              		.loc 3 136 0
 2203 05fc 849B0004 		lwzu 4,4(27)
 2204              		.loc 3 138 0
 2205 0600 3BBD0001 		addi 29,29,1
 2206              	.LVL158:
 2207              		.loc 3 136 0
 2208 0604 2F840000 		cmpwi 7,4,0
 2209 0608 419E004C 		beq- 7,.L113
 2210              	.LVL159:
 2211              	.L117:
 2212              		.loc 3 138 0
 2213 060c 80780000 		lwz 3,fontSystem@l(24)
 2214 0610 A8BF013A 		lha 5,314(31)
 2215 0614 41BAFFB4 		beq- 6,.L119
 2216              		.loc 3 138 0 is_stmt 0 discriminator 1
 2217 0618 80DBFFFC 		lwz 6,-4(27)
 2218 061c 48000001 		bl _ZN10FreeTypeGX12getCharWidthEwsw
 2219 0620 2F1D0000 		cmpwi 6,29,0
 2220 0624 7FDE1A14 		add 30,30,3
 2221              	.LVL160:
 2222 0628 38C00000 		li 6,0
 2223              		.loc 3 140 0 is_stmt 1 discriminator 1
 2224 062c 7C1EC850 		subf 0,30,25
 2225 0630 7C07FE70 		srawi 7,0,31
 2226 0634 7CE00278 		xor 0,7,0
 2227 0638 7C070050 		subf 0,7,0
 2228 063c 7F9A0000 		cmpw 7,26,0
 2229 0640 41BDFFB0 		bgt- 7,.L127
 2230              	.LVL161:
 2231              		.loc 3 136 0
 2232 0644 849B0004 		lwzu 4,4(27)
 2233              		.loc 3 138 0
 2234 0648 3BBD0001 		addi 29,29,1
 2235              	.LVL162:
 2236              		.loc 3 136 0
 2237 064c 2F840000 		cmpwi 7,4,0
 2238 0650 409EFFBC 		bne+ 7,.L117
 2239              	.LVL163:
 2240              	.L113:
 2241              		.loc 3 149 0
 2242 0654 7F29FE70 		srawi 9,25,31
 2243 0658 7D39CA78 		xor 25,9,25
 2244              	.LVL164:
 2245 065c 7F29C850 		subf 25,9,25
 2246 0660 7F9AC800 		cmpw 7,26,25
 2247 0664 409D0010 		ble- 7,.L118
 2248              		.loc 3 152 0
 2249 0668 38000000 		li 0,0
 2250 066c 901F0148 		stw 0,328(31)
 2251              		.loc 3 153 0
 2252 0670 901F014C 		stw 0,332(31)
 2253              	.L118:
 2254              		.loc 3 158 0
 2255 0674 813F0138 		lwz 9,312(31)
 2256              		.loc 3 156 0
 2257 0678 92FF0144 		stw 23,324(31)
 2258              		.loc 3 158 0
 2259 067c 38090006 		addi 0,9,6
 2260              		.loc 3 159 0
 2261 0680 39200001 		li 9,1
 2262              		.loc 3 158 0
 2263 0684 7C00E1D6 		mullw 0,0,28
 2264              		.loc 3 157 0
 2265 0688 939F0140 		stw 28,320(31)
 2266              		.loc 3 159 0
 2267 068c 993F0154 		stb 9,340(31)
 2268              		.loc 3 158 0
 2269 0690 901F0150 		stw 0,336(31)
 2270              	.L103:
 2271              	.LBE1340:
 2272              		.loc 3 160 0
 2273 0694 80010034 		lwz 0,52(1)
 2274 0698 82E1000C 		lwz 23,12(1)
 2275              	.LVL165:
 2276 069c 7C0803A6 		mtlr 0
 2277 06a0 83010010 		lwz 24,16(1)
 2278 06a4 83210014 		lwz 25,20(1)
 2279 06a8 83410018 		lwz 26,24(1)
 2280 06ac 8361001C 		lwz 27,28(1)
 2281 06b0 83810020 		lwz 28,32(1)
 2282 06b4 83A10024 		lwz 29,36(1)
 2283 06b8 83C10028 		lwz 30,40(1)
 2284 06bc 83E1002C 		lwz 31,44(1)
 2285              	.LVL166:
 2286 06c0 38210030 		addi 1,1,48
 2287              		.cfi_remember_state
 2288              	.LCFI41:
 2289              		.cfi_def_cfa_offset 0
 2290              		.cfi_restore 31
 2291              		.cfi_restore 30
 2292              		.cfi_restore 29
 2293              		.cfi_restore 28
 2294              		.cfi_restore 27
 2295              		.cfi_restore 26
 2296              		.cfi_restore 25
 2297              		.cfi_restore 24
 2298              		.cfi_restore 23
 2299 06c4 4E800020 		blr
 2300              	.LVL167:
 2301              	.L125:
 2302              	.LCFI42:
 2303              		.cfi_restore_state
 2304              	.LBB1341:
 2305              		.loc 3 115 0
 2306 06c8 38600001 		li 3,1
 2307              	.LVL168:
 2308 06cc 4BFFFE4C 		b .L105
 2309              	.LVL169:
 2310              	.L126:
 2311 06d0 38E00001 		li 7,1
 2312 06d4 7CE903A6 		mtctr 7
 2313 06d8 4BFFFE64 		b .L110
 2314              	.LBE1341:
 2315              		.cfi_endproc
 2316              	.LFE1578:
 2317              		.size	_ZN11TextPointer15PositionChangedEiii, .-_ZN11TextPointer15PositionChangedEiii
 2318              		.align 2
 2319              		.globl _ZN11TextPointer18SetPointerPositionEi
 2320              		.type	_ZN11TextPointer18SetPointerPositionEi, @function
 2321              	_ZN11TextPointer18SetPointerPositionEi:
 2322              	.LFB1579:
 2323              		.loc 3 163 0
 2324              		.cfi_startproc
 2325              	.LVL170:
 2326 06dc 9421FFE0 		stwu 1,-32(1)
 2327              	.LCFI43:
 2328              		.cfi_def_cfa_offset 32
 2329 06e0 7C0802A6 		mflr 0
 2330 06e4 93E1001C 		stw 31,28(1)
 2331              	.LBB1342:
 2332              		.loc 3 164 0
 2333 06e8 7C9F2379 		mr. 31,4
 2334              		.cfi_offset 31, -4
 2335              		.cfi_register 65, 0
 2336              	.LBE1342:
 2337              		.loc 3 163 0
 2338 06ec 93A10014 		stw 29,20(1)
 2339 06f0 7C7D1B78 		mr 29,3
 2340              		.cfi_offset 29, -12
 2341 06f4 90010024 		stw 0,36(1)
 2342 06f8 93410008 		stw 26,8(1)
 2343 06fc 9361000C 		stw 27,12(1)
 2344 0700 93810010 		stw 28,16(1)
 2345 0704 93C10018 		stw 30,24(1)
 2346              	.LBB1345:
 2347              		.loc 3 164 0
 2348 0708 408100EC 		ble- 0,.L141
 2349              		.cfi_offset 30, -8
 2350              		.cfi_offset 28, -16
 2351              		.cfi_offset 27, -20
 2352              		.cfi_offset 26, -24
 2353              		.cfi_offset 65, 4
 2354              		.loc 3 172 0
 2355 070c 80630164 		lwz 3,356(3)
 2356              	.LVL171:
 2357 0710 809D0140 		lwz 4,320(29)
 2358              	.LVL172:
 2359 0714 81230000 		lwz 9,0(3)
 2360 0718 800900E8 		lwz 0,232(9)
 2361 071c 7C0903A6 		mtctr 0
 2362 0720 4E800421 		bctrl
 2363              	.LVL173:
 2364              		.loc 3 174 0
 2365 0724 7C7C1B79 		mr. 28,3
 2366 0728 418200A4 		beq- 0,.L128
 2367              		.loc 3 177 0
 2368 072c 48000001 		bl wcslen
 2369              	.LVL174:
 2370 0730 7F83F800 		cmpw 7,3,31
 2371 0734 7C7B1B78 		mr 27,3
 2372 0738 907D013C 		stw 3,316(29)
 2373 073c 409D0008 		ble- 7,.L131
 2374 0740 7FFBFB78 		mr 27,31
 2375              	.L131:
 2376              	.LVL175:
 2377              	.LBB1343:
 2378              		.loc 3 186 0
 2379 0744 2F9B0000 		cmpwi 7,27,0
 2380              	.LBE1343:
 2381              		.loc 3 184 0
 2382 0748 38000000 		li 0,0
 2383 074c 901D0148 		stw 0,328(29)
 2384              	.LVL176:
 2385              	.LBB1344:
 2386              		.loc 3 186 0
 2387 0750 409D0070 		ble- 7,.L133
 2388              		.loc 3 188 0
 2389 0754 3F400000 		lis 26,fontSystem@ha
 2390 0758 809C0000 		lwz 4,0(28)
 2391 075c 807A0000 		lwz 3,fontSystem@l(26)
 2392              		.loc 3 186 0
 2393 0760 3BE00000 		li 31,0
 2394              		.loc 3 188 0
 2395 0764 A8BD013A 		lha 5,314(29)
 2396 0768 3BC00000 		li 30,0
 2397 076c 38C00000 		li 6,0
 2398              	.LVL177:
 2399              	.L140:
 2400              		.loc 3 186 0 discriminator 3
 2401 0770 3BFF0001 		addi 31,31,1
 2402              		.loc 3 188 0 discriminator 3
 2403 0774 48000001 		bl _ZN10FreeTypeGX12getCharWidthEwsw
 2404              	.LVL178:
 2405              		.loc 3 186 0 discriminator 3
 2406 0778 7F9FD800 		cmpw 7,31,27
 2407              		.loc 3 188 0 discriminator 3
 2408 077c 7FDE1A14 		add 30,30,3
 2409 0780 2F1F0000 		cmpwi 6,31,0
 2410 0784 93DD0148 		stw 30,328(29)
 2411              		.loc 3 186 0 discriminator 3
 2412 0788 419E0038 		beq- 7,.L133
 2413              	.L135:
 2414              		.loc 3 188 0
 2415 078c 849C0004 		lwzu 4,4(28)
 2416 0790 38C00000 		li 6,0
 2417 0794 807A0000 		lwz 3,fontSystem@l(26)
 2418 0798 A8BD013A 		lha 5,314(29)
 2419 079c 40B9FFD4 		ble- 6,.L140
 2420              		.loc 3 188 0 is_stmt 0 discriminator 1
 2421 07a0 80DCFFFC 		lwz 6,-4(28)
 2422              		.loc 3 186 0 is_stmt 1 discriminator 1
 2423 07a4 3BFF0001 		addi 31,31,1
 2424              	.LVL179:
 2425              		.loc 3 188 0 discriminator 1
 2426 07a8 48000001 		bl _ZN10FreeTypeGX12getCharWidthEwsw
 2427              	.LVL180:
 2428              		.loc 3 186 0 discriminator 1
 2429 07ac 7F9FD800 		cmpw 7,31,27
 2430              		.loc 3 188 0 discriminator 1
 2431 07b0 7FDE1A14 		add 30,30,3
 2432 07b4 2F1F0000 		cmpwi 6,31,0
 2433 07b8 93DD0148 		stw 30,328(29)
 2434              		.loc 3 186 0 discriminator 1
 2435 07bc 409EFFD0 		bne+ 7,.L135
 2436              	.LVL181:
 2437              	.L133:
 2438              	.LBE1344:
 2439              		.loc 3 192 0
 2440 07c0 38000000 		li 0,0
 2441              		.loc 3 191 0
 2442 07c4 937D014C 		stw 27,332(29)
 2443              		.loc 3 192 0
 2444 07c8 981D0154 		stb 0,340(29)
 2445              	.LVL182:
 2446              	.L128:
 2447              	.LBE1345:
 2448              		.loc 3 193 0
 2449 07cc 80010024 		lwz 0,36(1)
 2450 07d0 83410008 		lwz 26,8(1)
 2451 07d4 7C0803A6 		mtlr 0
 2452 07d8 8361000C 		lwz 27,12(1)
 2453 07dc 83810010 		lwz 28,16(1)
 2454 07e0 83A10014 		lwz 29,20(1)
 2455              	.LVL183:
 2456 07e4 83C10018 		lwz 30,24(1)
 2457 07e8 83E1001C 		lwz 31,28(1)
 2458 07ec 38210020 		addi 1,1,32
 2459              		.cfi_remember_state
 2460              	.LCFI44:
 2461              		.cfi_def_cfa_offset 0
 2462              		.cfi_restore 31
 2463              		.cfi_restore 30
 2464              		.cfi_restore 29
 2465              		.cfi_restore 28
 2466              		.cfi_restore 27
 2467              		.cfi_restore 26
 2468 07f0 4E800020 		blr
 2469              	.LVL184:
 2470              	.L141:
 2471              	.LCFI45:
 2472              		.cfi_restore_state
 2473              	.LBB1346:
 2474              		.loc 3 166 0
 2475 07f4 38000000 		li 0,0
 2476              	.LBE1346:
 2477              		.loc 3 193 0
 2478 07f8 83410008 		lwz 26,8(1)
 2479              	.LBB1347:
 2480              		.loc 3 166 0
 2481 07fc 90030148 		stw 0,328(3)
 2482              		.loc 3 167 0
 2483 0800 9003014C 		stw 0,332(3)
 2484              		.loc 3 168 0
 2485 0804 98030154 		stb 0,340(3)
 2486              	.LBE1347:
 2487              		.loc 3 193 0
 2488 0808 80010024 		lwz 0,36(1)
 2489 080c 8361000C 		lwz 27,12(1)
 2490 0810 7C0803A6 		mtlr 0
 2491 0814 83810010 		lwz 28,16(1)
 2492 0818 83A10014 		lwz 29,20(1)
 2493 081c 83C10018 		lwz 30,24(1)
 2494 0820 83E1001C 		lwz 31,28(1)
 2495 0824 38210020 		addi 1,1,32
 2496              		.cfi_restore 26
 2497              		.cfi_restore 27
 2498              		.cfi_restore 28
 2499              		.cfi_restore 29
 2500              		.cfi_restore 30
 2501              		.cfi_restore 31
 2502              	.LCFI46:
 2503              		.cfi_def_cfa_offset 0
 2504 0828 4E800020 		blr
 2505              		.cfi_endproc
 2506              	.LFE1579:
 2507              		.size	_ZN11TextPointer18SetPointerPositionEi, .-_ZN11TextPointer18SetPointerPositionEi
 2508              		.align 2
 2509              		.globl _ZN11TextPointer16TextWidthChangedEv
 2510              		.type	_ZN11TextPointer16TextWidthChangedEv, @function
 2511              	_ZN11TextPointer16TextWidthChangedEv:
 2512              	.LFB1580:
 2513              		.loc 3 196 0
 2514              		.cfi_startproc
 2515              	.LVL185:
 2516 082c 7C0802A6 		mflr 0
 2517 0830 9421FFF0 		stwu 1,-16(1)
 2518              	.LCFI47:
 2519              		.cfi_def_cfa_offset 16
 2520              		.cfi_register 65, 0
 2521 0834 93E1000C 		stw 31,12(1)
 2522 0838 7C7F1B78 		mr 31,3
 2523              		.cfi_offset 31, -4
 2524 083c 90010014 		stw 0,20(1)
 2525              		.loc 3 197 0
 2526 0840 80630164 		lwz 3,356(3)
 2527              	.LVL186:
 2528              		.loc 3 213 0
 2529 0844 800300B4 		lwz 0,180(3)
 2530              		.cfi_offset 65, 4
 2531              		.loc 3 198 0
 2532 0848 2F800000 		cmpwi 7,0,0
 2533              		.loc 3 197 0
 2534 084c 901F0024 		stw 0,36(31)
 2535              		.loc 3 198 0
 2536 0850 40BE000C 		bne+ 7,.L142
 2537              		.loc 3 199 0
 2538 0854 48000001 		bl _ZN7GuiText12GetTextWidthEv
 2539 0858 907F0024 		stw 3,36(31)
 2540              	.L142:
 2541              		.loc 3 200 0
 2542 085c 80010014 		lwz 0,20(1)
 2543 0860 83E1000C 		lwz 31,12(1)
 2544              	.LVL187:
 2545 0864 7C0803A6 		mtlr 0
 2546 0868 38210010 		addi 1,1,16
 2547              	.LCFI48:
 2548              		.cfi_def_cfa_offset 0
 2549              		.cfi_restore 31
 2550 086c 4E800020 		blr
 2551              		.cfi_endproc
 2552              	.LFE1580:
 2553              		.size	_ZN11TextPointer16TextWidthChangedEv, .-_ZN11TextPointer16TextWidthChangedEv
 2554              		.section	.text.startup,"ax",@progbits
 2555              		.align 2
 2556              		.type	_GLOBAL__sub_I__ZN11TextPointerC2EP7GuiTexti, @function
 2557              	_GLOBAL__sub_I__ZN11TextPointerC2EP7GuiTexti:
 2558              	.LFB1902:
 2559              		.loc 3 213 0
 2560              		.cfi_startproc
 2561              	.LVL188:
 2562              	.LBB1348:
 2563              	.LBB1349:
 2564              		.file 5 "d:/Projects/SaveGameManager/savegame-manager-gx/trunk/source/TextOperations/FreeTypeGX.h"
 2565              		.loc 5 92 0
 2566 0000 3D600000 		lis 11,.LANCHOR0@ha
 2567 0004 3800FFFF 		li 0,-1
 2568 0008 392B0000 		la 9,.LANCHOR0@l(11)
 2569 000c 980B0000 		stb 0,.LANCHOR0@l(11)
 2570 0010 98090001 		stb 0,1(9)
 2571 0014 98090002 		stb 0,2(9)
 2572 0018 98090003 		stb 0,3(9)
 2573              	.LBE1349:
 2574              	.LBE1348:
 2575              		.loc 3 213 0
 2576 001c 4E800020 		blr
 2577              		.cfi_endproc
 2578              	.LFE1902:
 2579              		.size	_GLOBAL__sub_I__ZN11TextPointerC2EP7GuiTexti, .-_GLOBAL__sub_I__ZN11TextPointerC2EP7GuiTexti
 2580              		.section	.ctors,"aw",@progbits
 2581              		.align 2
 2582 0000 00000000 		.long	_GLOBAL__sub_I__ZN11TextPointerC2EP7GuiTexti
 2583              		.weak	_ZTS11TextPointer
 2584              		.section	.rodata._ZTS11TextPointer,"aG",@progbits,_ZTS11TextPointer,comdat
 2585              		.align 2
 2586              		.type	_ZTS11TextPointer, @object
 2587              		.size	_ZTS11TextPointer, 14
 2588              	_ZTS11TextPointer:
 2589 0000 31315465 		.string	"11TextPointer"
 2589      7874506F 
 2589      696E7465 
 2589      7200
 2590              		.weak	_ZTI11TextPointer
 2591              		.section	.rodata._ZTI11TextPointer,"aG",@progbits,_ZTI11TextPointer,comdat
 2592              		.align 2
 2593              		.type	_ZTI11TextPointer, @object
 2594              		.size	_ZTI11TextPointer, 12
 2595              	_ZTI11TextPointer:
 2596 0000 00000008 		.long	_ZTVN10__cxxabiv120__si_class_type_infoE+8
 2597 0004 00000000 		.long	_ZTS11TextPointer
 2598 0008 00000000 		.long	_ZTI9GuiButton
 2599              		.weak	_ZTV11TextPointer
 2600              		.section	.rodata._ZTV11TextPointer,"aG",@progbits,_ZTV11TextPointer,comdat
 2601              		.align 3
 2602              		.type	_ZTV11TextPointer, @object
 2603              		.size	_ZTV11TextPointer, 208
 2604              	_ZTV11TextPointer:
 2605 0000 00000000 		.long	0
 2606 0004 00000000 		.long	_ZTI11TextPointer
 2607 0008 00000000 		.long	_ZN11TextPointerD1Ev
 2608 000c 00000000 		.long	_ZN11TextPointerD0Ev
 2609 0010 00000000 		.long	_ZN10GuiElement9SetParentEPS_
 2610 0014 00000000 		.long	_ZN10GuiElement9GetParentEv
 2611 0018 00000000 		.long	_ZN10GuiElement7GetLeftEv
 2612 001c 00000000 		.long	_ZN10GuiElement6GetTopEv
 2613 0020 00000000 		.long	_ZN10GuiElement12GetZPositionEv
 2614 0024 00000000 		.long	_ZN10GuiElement10GetLeftPosEv
 2615 0028 00000000 		.long	_ZN10GuiElement9GetTopPosEv
 2616 002c 00000000 		.long	_ZN10GuiElement8GetWidthEv
 2617 0030 00000000 		.long	_ZN10GuiElement9GetHeightEv
 2618 0034 00000000 		.long	_ZN10GuiElement7SetSizeEii
 2619 0038 00000000 		.long	_ZN10GuiElement10SetVisibleEb
 2620 003c 00000000 		.long	_ZN10GuiElement9IsVisibleEv
 2621 0040 00000000 		.long	_ZN10GuiElement12IsSelectableEv
 2622 0044 00000000 		.long	_ZN10GuiElement11IsClickableEv
 2623 0048 00000000 		.long	_ZN10GuiElement10IsHoldableEv
 2624 004c 00000000 		.long	_ZN10GuiElement13SetSelectableEb
 2625 0050 00000000 		.long	_ZN10GuiElement12SetClickableEb
 2626 0054 00000000 		.long	_ZN10GuiElement11SetHoldableEb
 2627 0058 00000000 		.long	_ZN10GuiElement8SetStateEii
 2628 005c 00000000 		.long	_ZN10GuiElement8GetStateEv
 2629 0060 00000000 		.long	_ZN10GuiElement12GetStateChanEv
 2630 0064 00000000 		.long	_ZN10GuiElement10ResetStateEv
 2631 0068 00000000 		.long	_ZN10GuiElement8SetAlphaEi
 2632 006c 00000000 		.long	_ZN10GuiElement8GetAlphaEv
 2633 0070 00000000 		.long	_ZN10GuiElement8SetScaleEf
 2634 0074 00000000 		.long	_ZN10GuiElement9SetScaleXEf
 2635 0078 00000000 		.long	_ZN10GuiElement9SetScaleYEf
 2636 007c 00000000 		.long	_ZN10GuiElement8GetScaleEv
 2637 0080 00000000 		.long	_ZN10GuiElement9GetScaleXEv
 2638 0084 00000000 		.long	_ZN10GuiElement9GetScaleYEv
 2639 0088 00000000 		.long	_ZN10GuiElement6RumbleEv
 2640 008c 00000000 		.long	_ZN10GuiElement9SetRumbleEb
 2641 0090 00000000 		.long	_ZN10GuiElement9SetEffectEiii
 2642 0094 00000000 		.long	_ZN10GuiElement15SetEffectOnOverEiii
 2643 0098 00000000 		.long	_ZN10GuiElement13SetEffectGrowEv
 2644 009c 00000000 		.long	_ZN10GuiElement12ResetEffectsEv
 2645 00a0 00000000 		.long	_ZNK10GuiElement9GetEffectEv
 2646 00a4 00000000 		.long	_ZNK10GuiElement10IsAnimatedEv
 2647 00a8 00000000 		.long	_ZN9GuiButton9SetBoundsE4RectIiE
 2648 00ac 00000000 		.long	_ZN10GuiElement8IsInsideEii
 2649 00b0 00000000 		.long	_ZN10GuiElement11SetPositionEii
 2650 00b4 00000000 		.long	_ZN10GuiElement11SetPositionEiii
 2651 00b8 00000000 		.long	_ZN10GuiElement11GetSelectedEv
 2652 00bc 00000000 		.long	_ZN10GuiElement12SetAlignmentEi
 2653 00c0 00000000 		.long	_ZNK10GuiElement12GetAlignmentEv
 2654 00c4 00000000 		.long	_ZN9GuiButton6UpdateEP10GuiTrigger
 2655 00c8 00000000 		.long	_ZN11TextPointer4DrawEv
 2656 00cc 00000000 		.long	_ZN10GuiElement13UpdateEffectsEv
 2657              		.globl _ZN11TextPointerD1Ev
 2658              		.set	_ZN11TextPointerD1Ev,_ZN11TextPointerD2Ev
 2659              		.globl _ZN11TextPointerC1EP7GuiTexti
 2660              		.set	_ZN11TextPointerC1EP7GuiTexti,_ZN11TextPointerC2EP7GuiTexti
 2661              		.globl _ZN11TextPointerC1EP7GuiTextii
 2662              		.set	_ZN11TextPointerC1EP7GuiTextii,_ZN11TextPointerC2EP7GuiTextii
 2663              		.section	.rodata.cst4,"aM",@progbits,4
 2664              		.align 2
 2665              	.LC1:
 2666 0000 59800004 		.4byte	1501560836
 2667              	.LC2:
 2668 0004 437F0000 		.4byte	1132396544
 2669              	.LC3:
 2670 0008 3F000000 		.4byte	1056964608
 2671              		.section	.rodata.str1.4,"aMS",@progbits,1
 2672              		.align 2
 2673              	.LC4:
 2674 0000 74657874 		.string	"textpointer_img.png"
 2674      706F696E 
 2674      7465725F 
 2674      696D672E 
 2674      706E6700 
 2675              		.section	".bss"
 2676              		.set	.LANCHOR0,. + 0
 2677              		.type	_ZL9ftgxWhite, @object
 2678              		.size	_ZL9ftgxWhite, 4
 2679              	_ZL9ftgxWhite:
 2680 0000 00000000 		.zero	4
 2681              		.section	".text"
 2682              	.Letext0:
 2683              		.file 6 "d:\\devkitpro\\devkitppc\\bin\\../lib/gcc/powerpc-eabi/4.6.3/../../../../powerpc-eabi/inc
 2684              		.file 7 "d:/devkitPro/libogc/include/gctypes.h"
 2685              		.file 8 "d:/devkitPro/libogc/include/ogc/gx.h"
 2686              		.file 9 "d:\\devkitpro\\devkitppc\\bin\\../lib/gcc/powerpc-eabi/4.6.3/../../../../powerpc-eabi/inc
 2687              		.file 10 "d:\\devkitpro\\devkitppc\\bin\\../lib/gcc/powerpc-eabi/4.6.3/../../../../powerpc-eabi/in
 2688              		.file 11 "d:\\devkitpro\\devkitppc\\bin\\../lib/gcc/powerpc-eabi/4.6.3/include/stddef.h"
 2689              		.file 12 "d:\\devkitpro\\devkitppc\\bin\\../lib/gcc/powerpc-eabi/4.6.3/../../../../powerpc-eabi/in
 2690              		.file 13 "d:\\devkitpro\\devkitppc\\bin\\../lib/gcc/powerpc-eabi/4.6.3/../../../../powerpc-eabi/in
 2691              		.file 14 "d:\\devkitpro\\devkitppc\\bin\\../lib/gcc/powerpc-eabi/4.6.3/../../../../powerpc-eabi/in
 2692              		.file 15 "<built-in>"
 2693              		.file 16 "d:\\devkitpro\\devkitppc\\bin\\../lib/gcc/powerpc-eabi/4.6.3/../../../../powerpc-eabi/in
 2694              		.file 17 "d:\\devkitpro\\devkitppc\\bin\\../lib/gcc/powerpc-eabi/4.6.3/../../../../powerpc-eabi/in
 2695              		.file 18 "d:\\devkitpro\\devkitppc\\bin\\../lib/gcc/powerpc-eabi/4.6.3/../../../../powerpc-eabi/in
 2696              		.file 19 "d:\\devkitpro\\devkitppc\\bin\\../lib/gcc/powerpc-eabi/4.6.3/../../../../powerpc-eabi/in
 2697              		.file 20 "d:\\devkitpro\\devkitppc\\bin\\../lib/gcc/powerpc-eabi/4.6.3/../../../../powerpc-eabi/in
 2698              		.file 21 "d:\\devkitpro\\devkitppc\\bin\\../lib/gcc/powerpc-eabi/4.6.3/../../../../powerpc-eabi/in
 2699              		.file 22 "d:\\devkitpro\\devkitppc\\bin\\../lib/gcc/powerpc-eabi/4.6.3/../../../../powerpc-eabi/in
 2700              		.file 23 "d:\\devkitpro\\devkitppc\\bin\\../lib/gcc/powerpc-eabi/4.6.3/../../../../powerpc-eabi/in
 2701              		.file 24 "d:\\devkitpro\\devkitppc\\bin\\../lib/gcc/powerpc-eabi/4.6.3/../../../../powerpc-eabi/in
 2702              		.file 25 "d:\\devkitpro\\devkitppc\\bin\\../lib/gcc/powerpc-eabi/4.6.3/../../../../powerpc-eabi/in
 2703              		.file 26 "d:\\devkitpro\\devkitppc\\bin\\../lib/gcc/powerpc-eabi/4.6.3/../../../../powerpc-eabi/in
 2704              		.file 27 "d:\\devkitpro\\devkitppc\\bin\\../lib/gcc/powerpc-eabi/4.6.3/../../../../powerpc-eabi/in
 2705              		.file 28 "d:\\devkitpro\\devkitppc\\bin\\../lib/gcc/powerpc-eabi/4.6.3/../../../../powerpc-eabi/in
 2706              		.file 29 "d:\\devkitpro\\devkitppc\\bin\\../lib/gcc/powerpc-eabi/4.6.3/../../../../powerpc-eabi/in
 2707              		.file 30 "d:\\devkitpro\\devkitppc\\bin\\../lib/gcc/powerpc-eabi/4.6.3/../../../../powerpc-eabi/in
 2708              		.file 31 "d:\\devkitpro\\devkitppc\\bin\\../lib/gcc/powerpc-eabi/4.6.3/../../../../powerpc-eabi/in
 2709              		.file 32 "d:\\devkitpro\\devkitppc\\bin\\../lib/gcc/powerpc-eabi/4.6.3/../../../../powerpc-eabi/in
 2710              		.file 33 "d:\\devkitpro\\devkitppc\\bin\\../lib/gcc/powerpc-eabi/4.6.3/../../../../powerpc-eabi/in
 2711              		.file 34 "d:\\devkitpro\\devkitppc\\bin\\../lib/gcc/powerpc-eabi/4.6.3/../../../../powerpc-eabi/in
 2712              		.file 35 "d:/Projects/SaveGameManager/savegame-manager-gx/trunk/source/TextOperations/../GUI/../To
 2713              		.file 36 "d:\\devkitpro\\devkitppc\\bin\\../lib/gcc/powerpc-eabi/4.6.3/../../../../powerpc-eabi/in
 2714              		.file 37 "d:\\devkitpro\\devkitppc\\bin\\../lib/gcc/powerpc-eabi/4.6.3/../../../../powerpc-eabi/in
 2715              		.file 38 "d:/devkitPro/libogc/include/freetype/config/ftconfig.h"
 2716              		.file 39 "d:/devkitPro/libogc/include/freetype/ftsystem.h"
 2717              		.file 40 "d:/devkitPro/libogc/include/freetype/ftimage.h"
 2718              		.file 41 "d:/devkitPro/libogc/include/freetype/fttypes.h"
 2719              		.file 42 "d:/devkitPro/libogc/include/freetype/freetype.h"
 2720              		.file 43 "d:\\devkitpro\\devkitppc\\bin\\../lib/gcc/powerpc-eabi/4.6.3/../../../../powerpc-eabi/in
 2721              		.file 44 "d:\\devkitpro\\devkitppc\\bin\\../lib/gcc/powerpc-eabi/4.6.3/../../../../powerpc-eabi/in
 2722              		.file 45 "d:\\devkitpro\\devkitppc\\bin\\../lib/gcc/powerpc-eabi/4.6.3/../../../../powerpc-eabi/in
 2723              		.file 46 "d:\\devkitpro\\devkitppc\\bin\\../lib/gcc/powerpc-eabi/4.6.3/../../../../powerpc-eabi/in
 2724              		.file 47 "d:/Projects/SaveGameManager/savegame-manager-gx/trunk/source/TextOperations/TextPointer.
 2725              		.file 48 "d:/Projects/SaveGameManager/savegame-manager-gx/trunk/source/TextOperations/../GUI/gui_t
 2726              		.file 49 "d:\\devkitpro\\devkitppc\\bin\\../lib/gcc/powerpc-eabi/4.6.3/../../../../powerpc-eabi/in
 2727              		.file 50 "d:/Projects/SaveGameManager/savegame-manager-gx/trunk/source/TextOperations/../GUI/../st