   1              		.file	"TextEditor.cpp"
   2              		.section	".text"
   3              	.Ltext0:
   4              		.section	.text._ZN7sigslot15single_threadedD2Ev,"axG",@progbits,_ZN7sigslot15single_threadedD5Ev,c
   5              		.align 2
   6              		.weak	_ZN7sigslot15single_threadedD2Ev
   7              		.type	_ZN7sigslot15single_threadedD2Ev, @function
   8              	_ZN7sigslot15single_threadedD2Ev:
   9              	.LFB1148:
  10              		.file 1 "d:/Projects/SaveGameManager/savegame-manager-gx/trunk/source/TextOperations/../GUI/../sig
  11              		.loc 1 104 0
  12              		.cfi_startproc
  13              	.LVL0:
  14              	.LBB2584:
  15              		.loc 1 105 0
  16 0000 3D200000 		lis 9,_ZTVN7sigslot15single_threadedE+8@ha
  17              	.LBE2584:
  18              		.loc 1 107 0
  19              	.LBB2585:
  20              		.loc 1 105 0
  21 0004 38090008 		la 0,_ZTVN7sigslot15single_threadedE+8@l(9)
  22 0008 90030000 		stw 0,0(3)
  23              	.LBE2585:
  24              		.loc 1 107 0
  25 000c 4E800020 		blr
  26              		.cfi_endproc
  27              	.LFE1148:
  28              		.size	_ZN7sigslot15single_threadedD2Ev, .-_ZN7sigslot15single_threadedD2Ev
  29              		.section	.text._ZN7sigslot15single_threaded4lockEv,"axG",@progbits,_ZN7sigslot15single_threaded4lo
  30              		.align 2
  31              		.weak	_ZN7sigslot15single_threaded4lockEv
  32              		.type	_ZN7sigslot15single_threaded4lockEv, @function
  33              	_ZN7sigslot15single_threaded4lockEv:
  34              	.LFB1151:
  35              		.loc 1 109 0
  36              		.cfi_startproc
  37              	.LVL1:
  38              		.loc 1 112 0
  39 0000 4E800020 		blr
  40              		.cfi_endproc
  41              	.LFE1151:
  42              		.size	_ZN7sigslot15single_threaded4lockEv, .-_ZN7sigslot15single_threaded4lockEv
  43              		.section	.text._ZN7sigslot15single_threaded6unlockEv,"axG",@progbits,_ZN7sigslot15single_threaded6
  44              		.align 2
  45              		.weak	_ZN7sigslot15single_threaded6unlockEv
  46              		.type	_ZN7sigslot15single_threaded6unlockEv, @function
  47              	_ZN7sigslot15single_threaded6unlockEv:
  48              	.LFB1152:
  49              		.loc 1 114 0
  50              		.cfi_startproc
  51              	.LVL2:
  52              		.loc 1 117 0
  53 0000 4E800020 		blr
  54              		.cfi_endproc
  55              	.LFE1152:
  56              		.size	_ZN7sigslot15single_threaded6unlockEv, .-_ZN7sigslot15single_threaded6unlockEv
  57              		.section	.text._ZN10GuiElement9SetParentEPS_,"axG",@progbits,_ZN10GuiElement9SetParentEPS_,comdat
  58              		.align 2
  59              		.weak	_ZN10GuiElement9SetParentEPS_
  60              		.type	_ZN10GuiElement9SetParentEPS_, @function
  61              	_ZN10GuiElement9SetParentEPS_:
  62              	.LFB1384:
  63              		.file 2 "d:/Projects/SaveGameManager/savegame-manager-gx/trunk/source/TextOperations/../GUI/gui_el
  64              		.loc 2 92 0
  65              		.cfi_startproc
  66              	.LVL3:
  67              		.loc 2 92 0
  68 0000 90830060 		stw 4,96(3)
  69 0004 4E800020 		blr
  70              		.cfi_endproc
  71              	.LFE1384:
  72              		.size	_ZN10GuiElement9SetParentEPS_, .-_ZN10GuiElement9SetParentEPS_
  73              		.section	.text._ZN10GuiElement9GetParentEv,"axG",@progbits,_ZN10GuiElement9GetParentEv,comdat
  74              		.align 2
  75              		.weak	_ZN10GuiElement9GetParentEv
  76              		.type	_ZN10GuiElement9GetParentEv, @function
  77              	_ZN10GuiElement9GetParentEv:
  78              	.LFB1385:
  79              		.loc 2 95 0
  80              		.cfi_startproc
  81              	.LVL4:
  82              		.loc 2 95 0
  83 0000 80630060 		lwz 3,96(3)
  84              	.LVL5:
  85 0004 4E800020 		blr
  86              		.cfi_endproc
  87              	.LFE1385:
  88              		.size	_ZN10GuiElement9GetParentEv, .-_ZN10GuiElement9GetParentEv
  89              		.section	.text._ZN10GuiElement12GetZPositionEv,"axG",@progbits,_ZN10GuiElement12GetZPositionEv,com
  90              		.align 2
  91              		.weak	_ZN10GuiElement12GetZPositionEv
  92              		.type	_ZN10GuiElement12GetZPositionEv, @function
  93              	_ZN10GuiElement12GetZPositionEv:
  94              	.LFB1386:
  95              		.loc 2 106 0
  96              		.cfi_startproc
  97              	.LVL6:
  98 0000 7C0802A6 		mflr 0
  99 0004 9421FFF0 		stwu 1,-16(1)
 100              	.LCFI0:
 101              		.cfi_def_cfa_offset 16
 102              		.cfi_register 65, 0
 103 0008 93E1000C 		stw 31,12(1)
 104 000c 7C7F1B78 		mr 31,3
 105              		.cfi_offset 31, -4
 106 0010 90010014 		stw 0,20(1)
 107              	.LBB2586:
 108              		.loc 2 110 0
 109 0014 81630060 		lwz 11,96(3)
 110              		.loc 2 108 0
 111 0018 38600000 		li 3,0
 112              	.LVL7:
 113              		.loc 2 110 0
 114 001c 2F8B0000 		cmpwi 7,11,0
 115 0020 419E0018 		beq- 7,.L8
 116              		.cfi_offset 65, 4
 117              		.loc 2 111 0
 118 0024 812B0000 		lwz 9,0(11)
 119 0028 7D635B78 		mr 3,11
 120 002c 80090018 		lwz 0,24(9)
 121 0030 7C0903A6 		mtctr 0
 122 0034 4E800421 		bctrl
 123              	.LVL8:
 124              	.L8:
 125              		.loc 2 113 0
 126 0038 801F0034 		lwz 0,52(31)
 127              	.LBE2586:
 128              		.loc 2 114 0
 129 003c 83E1000C 		lwz 31,12(1)
 130              	.LVL9:
 131 0040 7C630214 		add 3,3,0
 132              	.LVL10:
 133 0044 80010014 		lwz 0,20(1)
 134 0048 38210010 		addi 1,1,16
 135              	.LCFI1:
 136              		.cfi_def_cfa_offset 0
 137              		.cfi_restore 31
 138 004c 7C0803A6 		mtlr 0
 139 0050 4E800020 		blr
 140              		.cfi_endproc
 141              	.LFE1386:
 142              		.size	_ZN10GuiElement12GetZPositionEv, .-_ZN10GuiElement12GetZPositionEv
 143              		.section	.text._ZN10GuiElement10GetLeftPosEv,"axG",@progbits,_ZN10GuiElement10GetLeftPosEv,comdat
 144              		.align 2
 145              		.weak	_ZN10GuiElement10GetLeftPosEv
 146              		.type	_ZN10GuiElement10GetLeftPosEv, @function
 147              	_ZN10GuiElement10GetLeftPosEv:
 148              	.LFB1387:
 149              		.loc 2 116 0
 150              		.cfi_startproc
 151              	.LVL11:
 152              		.loc 2 116 0
 153 0000 8063002C 		lwz 3,44(3)
 154              	.LVL12:
 155 0004 4E800020 		blr
 156              		.cfi_endproc
 157              	.LFE1387:
 158              		.size	_ZN10GuiElement10GetLeftPosEv, .-_ZN10GuiElement10GetLeftPosEv
 159              		.section	.text._ZN10GuiElement9GetTopPosEv,"axG",@progbits,_ZN10GuiElement9GetTopPosEv,comdat
 160              		.align 2
 161              		.weak	_ZN10GuiElement9GetTopPosEv
 162              		.type	_ZN10GuiElement9GetTopPosEv, @function
 163              	_ZN10GuiElement9GetTopPosEv:
 164              	.LFB1388:
 165              		.loc 2 118 0
 166              		.cfi_startproc
 167              	.LVL13:
 168              		.loc 2 118 0
 169 0000 80630030 		lwz 3,48(3)
 170              	.LVL14:
 171 0004 4E800020 		blr
 172              		.cfi_endproc
 173              	.LFE1388:
 174              		.size	_ZN10GuiElement9GetTopPosEv, .-_ZN10GuiElement9GetTopPosEv
 175              		.section	.text._ZN10GuiElement8GetWidthEv,"axG",@progbits,_ZN10GuiElement8GetWidthEv,comdat
 176              		.align 2
 177              		.weak	_ZN10GuiElement8GetWidthEv
 178              		.type	_ZN10GuiElement8GetWidthEv, @function
 179              	_ZN10GuiElement8GetWidthEv:
 180              	.LFB1389:
 181              		.loc 2 121 0
 182              		.cfi_startproc
 183              	.LVL15:
 184              		.loc 2 121 0
 185 0000 80630024 		lwz 3,36(3)
 186              	.LVL16:
 187 0004 4E800020 		blr
 188              		.cfi_endproc
 189              	.LFE1389:
 190              		.size	_ZN10GuiElement8GetWidthEv, .-_ZN10GuiElement8GetWidthEv
 191              		.section	.text._ZN10GuiElement9GetHeightEv,"axG",@progbits,_ZN10GuiElement9GetHeightEv,comdat
 192              		.align 2
 193              		.weak	_ZN10GuiElement9GetHeightEv
 194              		.type	_ZN10GuiElement9GetHeightEv, @function
 195              	_ZN10GuiElement9GetHeightEv:
 196              	.LFB1390:
 197              		.loc 2 124 0
 198              		.cfi_startproc
 199              	.LVL17:
 200              		.loc 2 124 0
 201 0000 80630028 		lwz 3,40(3)
 202              	.LVL18:
 203 0004 4E800020 		blr
 204              		.cfi_endproc
 205              	.LFE1390:
 206              		.size	_ZN10GuiElement9GetHeightEv, .-_ZN10GuiElement9GetHeightEv
 207              		.section	.text._ZN10GuiElement7SetSizeEii,"axG",@progbits,_ZN10GuiElement7SetSizeEii,comdat
 208              		.align 2
 209              		.weak	_ZN10GuiElement7SetSizeEii
 210              		.type	_ZN10GuiElement7SetSizeEii, @function
 211              	_ZN10GuiElement7SetSizeEii:
 212              	.LFB1391:
 213              		.loc 2 128 0
 214              		.cfi_startproc
 215              	.LVL19:
 216              		.loc 2 130 0
 217 0000 90830024 		stw 4,36(3)
 218              		.loc 2 132 0
 219              		.loc 2 131 0
 220 0004 90A30028 		stw 5,40(3)
 221              		.loc 2 132 0
 222 0008 4E800020 		blr
 223              		.cfi_endproc
 224              	.LFE1391:
 225              		.size	_ZN10GuiElement7SetSizeEii, .-_ZN10GuiElement7SetSizeEii
 226              		.section	.text._ZN10GuiElement9IsVisibleEv,"axG",@progbits,_ZN10GuiElement9IsVisibleEv,comdat
 227              		.align 2
 228              		.weak	_ZN10GuiElement9IsVisibleEv
 229              		.type	_ZN10GuiElement9IsVisibleEv, @function
 230              	_ZN10GuiElement9IsVisibleEv:
 231              	.LFB1393:
 232              		.loc 2 142 0
 233              		.cfi_startproc
 234              	.LVL20:
 235              		.loc 2 142 0
 236 0000 8863001D 		lbz 3,29(3)
 237              	.LVL21:
 238 0004 4E800020 		blr
 239              		.cfi_endproc
 240              	.LFE1393:
 241              		.size	_ZN10GuiElement9IsVisibleEv, .-_ZN10GuiElement9IsVisibleEv
 242              		.section	.text._ZN10GuiElement12IsSelectableEv,"axG",@progbits,_ZN10GuiElement12IsSelectableEv,com
 243              		.align 2
 244              		.weak	_ZN10GuiElement12IsSelectableEv
 245              		.type	_ZN10GuiElement12IsSelectableEv, @function
 246              	_ZN10GuiElement12IsSelectableEv:
 247              	.LFB1394:
 248              		.loc 2 145 0
 249              		.cfi_startproc
 250              	.LVL22:
 251              		.loc 2 149 0
 252 0000 80030048 		lwz 0,72(3)
 253 0004 39200000 		li 9,0
 254 0008 2F800004 		cmpwi 7,0,4
 255 000c 419E0010 		beq- 7,.L18
 256              		.loc 2 149 0 is_stmt 0 discriminator 1
 257 0010 2F800002 		cmpwi 7,0,2
 258 0014 419E0008 		beq- 7,.L18
 259              		.loc 2 149 0 discriminator 3
 260 0018 8923001E 		lbz 9,30(3)
 261              	.L18:
 262              		.loc 2 150 0 is_stmt 1 discriminator 5
 263 001c 7D234B78 		mr 3,9
 264              	.LVL23:
 265 0020 4E800020 		blr
 266              		.cfi_endproc
 267              	.LFE1394:
 268              		.size	_ZN10GuiElement12IsSelectableEv, .-_ZN10GuiElement12IsSelectableEv
 269              		.section	.text._ZN10GuiElement11IsClickableEv,"axG",@progbits,_ZN10GuiElement11IsClickableEv,comda
 270              		.align 2
 271              		.weak	_ZN10GuiElement11IsClickableEv
 272              		.type	_ZN10GuiElement11IsClickableEv, @function
 273              	_ZN10GuiElement11IsClickableEv:
 274              	.LFB1395:
 275              		.loc 2 153 0
 276              		.cfi_startproc
 277              	.LVL24:
 278              		.loc 2 158 0
 279 0000 80030048 		lwz 0,72(3)
 280 0004 39200000 		li 9,0
 281 0008 2F800004 		cmpwi 7,0,4
 282 000c 419E0018 		beq- 7,.L22
 283              		.loc 2 158 0 is_stmt 0 discriminator 1
 284 0010 2F800002 		cmpwi 7,0,2
 285 0014 419E0010 		beq- 7,.L22
 286              		.loc 2 158 0 discriminator 3
 287 0018 2F800003 		cmpwi 7,0,3
 288 001c 419E0008 		beq- 7,.L22
 289              		.loc 2 158 0 discriminator 4
 290 0020 8923001F 		lbz 9,31(3)
 291              	.L22:
 292              		.loc 2 159 0 is_stmt 1 discriminator 6
 293 0024 7D234B78 		mr 3,9
 294              	.LVL25:
 295 0028 4E800020 		blr
 296              		.cfi_endproc
 297              	.LFE1395:
 298              		.size	_ZN10GuiElement11IsClickableEv, .-_ZN10GuiElement11IsClickableEv
 299              		.section	.text._ZN10GuiElement10IsHoldableEv,"axG",@progbits,_ZN10GuiElement10IsHoldableEv,comdat
 300              		.align 2
 301              		.weak	_ZN10GuiElement10IsHoldableEv
 302              		.type	_ZN10GuiElement10IsHoldableEv, @function
 303              	_ZN10GuiElement10IsHoldableEv:
 304              	.LFB1396:
 305              		.loc 2 162 0
 306              		.cfi_startproc
 307              	.LVL26:
 308              		.loc 2 162 0
 309 0000 81230048 		lwz 9,72(3)
 310 0004 38000000 		li 0,0
 311 0008 2F890004 		cmpwi 7,9,4
 312 000c 419E0008 		beq- 7,.L27
 313              		.loc 2 162 0 is_stmt 0 discriminator 1
 314 0010 88030020 		lbz 0,32(3)
 315              	.L27:
 316              		.loc 2 162 0 discriminator 4
 317 0014 7C030378 		mr 3,0
 318              	.LVL27:
 319 0018 4E800020 		blr
 320              		.cfi_endproc
 321              	.LFE1396:
 322              		.size	_ZN10GuiElement10IsHoldableEv, .-_ZN10GuiElement10IsHoldableEv
 323              		.section	.text._ZN10GuiElement13SetSelectableEb,"axG",@progbits,_ZN10GuiElement13SetSelectableEb,c
 324              		.align 2
 325              		.weak	_ZN10GuiElement13SetSelectableEb
 326              		.type	_ZN10GuiElement13SetSelectableEb, @function
 327              	_ZN10GuiElement13SetSelectableEb:
 328              	.LFB1397:
 329              		.loc 2 165 0 is_stmt 1
 330              		.cfi_startproc
 331              	.LVL28:
 332              		.loc 2 165 0
 333 0000 9883001E 		stb 4,30(3)
 334 0004 4E800020 		blr
 335              		.cfi_endproc
 336              	.LFE1397:
 337              		.size	_ZN10GuiElement13SetSelectableEb, .-_ZN10GuiElement13SetSelectableEb
 338              		.section	.text._ZN10GuiElement12SetClickableEb,"axG",@progbits,_ZN10GuiElement12SetClickableEb,com
 339              		.align 2
 340              		.weak	_ZN10GuiElement12SetClickableEb
 341              		.type	_ZN10GuiElement12SetClickableEb, @function
 342              	_ZN10GuiElement12SetClickableEb:
 343              	.LFB1398:
 344              		.loc 2 168 0
 345              		.cfi_startproc
 346              	.LVL29:
 347              		.loc 2 168 0
 348 0000 9883001F 		stb 4,31(3)
 349 0004 4E800020 		blr
 350              		.cfi_endproc
 351              	.LFE1398:
 352              		.size	_ZN10GuiElement12SetClickableEb, .-_ZN10GuiElement12SetClickableEb
 353              		.section	.text._ZN10GuiElement11SetHoldableEb,"axG",@progbits,_ZN10GuiElement11SetHoldableEb,comda
 354              		.align 2
 355              		.weak	_ZN10GuiElement11SetHoldableEb
 356              		.type	_ZN10GuiElement11SetHoldableEb, @function
 357              	_ZN10GuiElement11SetHoldableEb:
 358              	.LFB1399:
 359              		.loc 2 171 0
 360              		.cfi_startproc
 361              	.LVL30:
 362              		.loc 2 171 0
 363 0000 98830020 		stb 4,32(3)
 364 0004 4E800020 		blr
 365              		.cfi_endproc
 366              	.LFE1399:
 367              		.size	_ZN10GuiElement11SetHoldableEb, .-_ZN10GuiElement11SetHoldableEb
 368              		.section	.text._ZN10GuiElement8GetStateEv,"axG",@progbits,_ZN10GuiElement8GetStateEv,comdat
 369              		.align 2
 370              		.weak	_ZN10GuiElement8GetStateEv
 371              		.type	_ZN10GuiElement8GetStateEv, @function
 372              	_ZN10GuiElement8GetStateEv:
 373              	.LFB1400:
 374              		.loc 2 178 0
 375              		.cfi_startproc
 376              	.LVL31:
 377              		.loc 2 178 0
 378 0000 80630048 		lwz 3,72(3)
 379              	.LVL32:
 380 0004 4E800020 		blr
 381              		.cfi_endproc
 382              	.LFE1400:
 383              		.size	_ZN10GuiElement8GetStateEv, .-_ZN10GuiElement8GetStateEv
 384              		.section	.text._ZN10GuiElement12GetStateChanEv,"axG",@progbits,_ZN10GuiElement12GetStateChanEv,com
 385              		.align 2
 386              		.weak	_ZN10GuiElement12GetStateChanEv
 387              		.type	_ZN10GuiElement12GetStateChanEv, @function
 388              	_ZN10GuiElement12GetStateChanEv:
 389              	.LFB1401:
 390              		.loc 2 181 0
 391              		.cfi_startproc
 392              	.LVL33:
 393              		.loc 2 181 0
 394 0000 8063004C 		lwz 3,76(3)
 395              	.LVL34:
 396 0004 4E800020 		blr
 397              		.cfi_endproc
 398              	.LFE1401:
 399              		.size	_ZN10GuiElement12GetStateChanEv, .-_ZN10GuiElement12GetStateChanEv
 400              		.section	.text._ZN10GuiElement8SetAlphaEi,"axG",@progbits,_ZN10GuiElement8SetAlphaEi,comdat
 401              		.align 2
 402              		.weak	_ZN10GuiElement8SetAlphaEi
 403              		.type	_ZN10GuiElement8SetAlphaEi, @function
 404              	_ZN10GuiElement8SetAlphaEi:
 405              	.LFB1403:
 406              		.loc 2 190 0
 407              		.cfi_startproc
 408              	.LVL35:
 409              		.loc 2 190 0
 410 0000 90830038 		stw 4,56(3)
 411 0004 4E800020 		blr
 412              		.cfi_endproc
 413              	.LFE1403:
 414              		.size	_ZN10GuiElement8SetAlphaEi, .-_ZN10GuiElement8SetAlphaEi
 415              		.section	.text._ZN10GuiElement8GetAlphaEv,"axG",@progbits,_ZN10GuiElement8GetAlphaEv,comdat
 416              		.align 2
 417              		.weak	_ZN10GuiElement8GetAlphaEv
 418              		.type	_ZN10GuiElement8GetAlphaEv, @function
 419              	_ZN10GuiElement8GetAlphaEv:
 420              	.LFB1404:
 421              		.loc 2 194 0
 422              		.cfi_startproc
 423              	.LVL36:
 424 0000 7C0802A6 		mflr 0
 425 0004 9421FFD8 		stwu 1,-40(1)
 426              	.LCFI2:
 427              		.cfi_def_cfa_offset 40
 428              		.cfi_register 65, 0
 429 0008 93E10024 		stw 31,36(1)
 430 000c 9001002C 		stw 0,44(1)
 431              	.LBB2587:
 432              		.loc 2 198 0
 433 0010 83E3006C 		lwz 31,108(3)
 434              		.cfi_offset 65, 4
 435              		.cfi_offset 31, -4
 436 0014 2F9F0000 		cmpwi 7,31,0
 437 0018 419C0094 		blt- 7,.L38
 438              	.L36:
 439              	.LVL37:
 440              		.loc 2 203 0
 441 001c 80630060 		lwz 3,96(3)
 442              	.LVL38:
 443 0020 2F830000 		cmpwi 7,3,0
 444 0024 419E0070 		beq- 7,.L37
 445              		.loc 2 204 0
 446 0028 81230000 		lwz 9,0(3)
 447 002c 6FFF8000 		xoris 31,31,0x8000
 448              	.LVL39:
 449 0030 80090064 		lwz 0,100(9)
 450 0034 7C0903A6 		mtctr 0
 451 0038 4E800421 		bctrl
 452 003c 3C004330 		lis 0,0x4330
 453 0040 6C638000 		xoris 3,3,0x8000
 454 0044 90010010 		stw 0,16(1)
 455 0048 90610014 		stw 3,20(1)
 456 004c 3D200000 		lis 9,.LC1@ha
 457 0050 C0090000 		lfs 0,.LC1@l(9)
 458 0054 3D200000 		lis 9,.LC2@ha
 459 0058 C9A10010 		lfd 13,16(1)
 460 005c C1890004 		lfs 12,.LC2@l(9)
 461 0060 39210018 		addi 9,1,24
 462 0064 FDAD0028 		fsub 13,13,0
 463 0068 93E1000C 		stw 31,12(1)
 464 006c 90010008 		stw 0,8(1)
 465 0070 FDA06818 		frsp 13,13
 466 0074 EDAD6024 		fdivs 13,13,12
 467 0078 C9810008 		lfd 12,8(1)
 468 007c FC0C0028 		fsub 0,12,0
 469 0080 FC000018 		frsp 0,0
 470 0084 EC000372 		fmuls 0,0,13
 471 0088 FC00001E 		fctiwz 0,0
 472 008c 7C004FAE 		stfiwx 0,0,9
 473 0090 83E10018 		lwz 31,24(1)
 474              	.LVL40:
 475              	.L37:
 476              	.LBE2587:
 477              		.loc 2 207 0
 478 0094 8001002C 		lwz 0,44(1)
 479 0098 7FE3FB78 		mr 3,31
 480 009c 83E10024 		lwz 31,36(1)
 481              	.LVL41:
 482 00a0 7C0803A6 		mtlr 0
 483 00a4 38210028 		addi 1,1,40
 484              		.cfi_remember_state
 485              	.LCFI3:
 486              		.cfi_def_cfa_offset 0
 487              		.cfi_restore 31
 488 00a8 4E800020 		blr
 489              	.LVL42:
 490              	.L38:
 491              	.LCFI4:
 492              		.cfi_restore_state
 493              	.LBB2588:
 494              		.loc 2 201 0
 495 00ac 83E30038 		lwz 31,56(3)
 496              	.LVL43:
 497 00b0 4BFFFF6C 		b .L36
 498              	.LBE2588:
 499              		.cfi_endproc
 500              	.LFE1404:
 501              		.size	_ZN10GuiElement8GetAlphaEv, .-_ZN10GuiElement8GetAlphaEv
 502              		.section	.text._ZN10GuiElement8SetScaleEf,"axG",@progbits,_ZN10GuiElement8SetScaleEf,comdat
 503              		.align 2
 504              		.weak	_ZN10GuiElement8SetScaleEf
 505              		.type	_ZN10GuiElement8SetScaleEf, @function
 506              	_ZN10GuiElement8SetScaleEf:
 507              	.LFB1405:
 508              		.loc 2 210 0
 509              		.cfi_startproc
 510              	.LVL44:
 511              		.loc 2 212 0
 512 0000 D023003C 		stfs 1,60(3)
 513              		.loc 2 214 0
 514              		.loc 2 213 0
 515 0004 D0230040 		stfs 1,64(3)
 516              		.loc 2 214 0
 517 0008 4E800020 		blr
 518              		.cfi_endproc
 519              	.LFE1405:
 520              		.size	_ZN10GuiElement8SetScaleEf, .-_ZN10GuiElement8SetScaleEf
 521              		.section	.text._ZN10GuiElement9SetScaleXEf,"axG",@progbits,_ZN10GuiElement9SetScaleXEf,comdat
 522              		.align 2
 523              		.weak	_ZN10GuiElement9SetScaleXEf
 524              		.type	_ZN10GuiElement9SetScaleXEf, @function
 525              	_ZN10GuiElement9SetScaleXEf:
 526              	.LFB1406:
 527              		.loc 2 217 0
 528              		.cfi_startproc
 529              	.LVL45:
 530              		.loc 2 217 0
 531 0000 D023003C 		stfs 1,60(3)
 532 0004 4E800020 		blr
 533              		.cfi_endproc
 534              	.LFE1406:
 535              		.size	_ZN10GuiElement9SetScaleXEf, .-_ZN10GuiElement9SetScaleXEf
 536              		.section	.text._ZN10GuiElement9SetScaleYEf,"axG",@progbits,_ZN10GuiElement9SetScaleYEf,comdat
 537              		.align 2
 538              		.weak	_ZN10GuiElement9SetScaleYEf
 539              		.type	_ZN10GuiElement9SetScaleYEf, @function
 540              	_ZN10GuiElement9SetScaleYEf:
 541              	.LFB1407:
 542              		.loc 2 220 0
 543              		.cfi_startproc
 544              	.LVL46:
 545              		.loc 2 220 0
 546 0000 D0230040 		stfs 1,64(3)
 547 0004 4E800020 		blr
 548              		.cfi_endproc
 549              	.LFE1407:
 550              		.size	_ZN10GuiElement9SetScaleYEf, .-_ZN10GuiElement9SetScaleYEf
 551              		.section	.text._ZN10GuiElement8GetScaleEv,"axG",@progbits,_ZN10GuiElement8GetScaleEv,comdat
 552              		.align 2
 553              		.weak	_ZN10GuiElement8GetScaleEv
 554              		.type	_ZN10GuiElement8GetScaleEv, @function
 555              	_ZN10GuiElement8GetScaleEv:
 556              	.LFB1408:
 557              		.loc 2 223 0
 558              		.cfi_startproc
 559              	.LVL47:
 560 0000 7C0802A6 		mflr 0
 561 0004 9421FFF0 		stwu 1,-16(1)
 562              	.LCFI5:
 563              		.cfi_def_cfa_offset 16
 564              		.cfi_register 65, 0
 565              	.LBB2589:
 566              		.loc 2 225 0
 567 0008 3D200000 		lis 9,.LC3@ha
 568              	.LBE2589:
 569              		.loc 2 223 0
 570 000c DBE10008 		stfd 31,8(1)
 571 0010 90010014 		stw 0,20(1)
 572              	.LBB2590:
 573              		.loc 2 225 0
 574 0014 C0030040 		lfs 0,64(3)
 575 0018 C3E3003C 		lfs 31,60(3)
 576              		.cfi_offset 65, 4
 577              		.cfi_offset 63, -8
 578              		.loc 2 227 0
 579 001c 81630060 		lwz 11,96(3)
 580              		.loc 2 225 0
 581 0020 EFFF002A 		fadds 31,31,0
 582 0024 C0090008 		lfs 0,.LC3@l(9)
 583              		.loc 2 227 0
 584 0028 2F8B0000 		cmpwi 7,11,0
 585              		.loc 2 225 0
 586 002c EFFF0032 		fmuls 31,31,0
 587 0030 C0030070 		lfs 0,112(3)
 588 0034 EFFF0032 		fmuls 31,31,0
 589              	.LVL48:
 590              		.loc 2 227 0
 591 0038 419E001C 		beq- 7,.L43
 592              		.loc 2 228 0
 593 003c 812B0000 		lwz 9,0(11)
 594 0040 7D635B78 		mr 3,11
 595              	.LVL49:
 596 0044 80090074 		lwz 0,116(9)
 597 0048 7C0903A6 		mtctr 0
 598 004c 4E800421 		bctrl
 599 0050 EFFF0072 		fmuls 31,31,1
 600              	.LVL50:
 601              	.L43:
 602              	.LBE2590:
 603              		.loc 2 231 0
 604 0054 80010014 		lwz 0,20(1)
 605 0058 FC20F890 		fmr 1,31
 606 005c CBE10008 		lfd 31,8(1)
 607              	.LVL51:
 608 0060 7C0803A6 		mtlr 0
 609 0064 38210010 		addi 1,1,16
 610              	.LCFI6:
 611              		.cfi_def_cfa_offset 0
 612              		.cfi_restore 63
 613 0068 4E800020 		blr
 614              		.cfi_endproc
 615              	.LFE1408:
 616              		.size	_ZN10GuiElement8GetScaleEv, .-_ZN10GuiElement8GetScaleEv
 617              		.section	.text._ZN10GuiElement9GetScaleXEv,"axG",@progbits,_ZN10GuiElement9GetScaleXEv,comdat
 618              		.align 2
 619              		.weak	_ZN10GuiElement9GetScaleXEv
 620              		.type	_ZN10GuiElement9GetScaleXEv, @function
 621              	_ZN10GuiElement9GetScaleXEv:
 622              	.LFB1409:
 623              		.loc 2 234 0
 624              		.cfi_startproc
 625              	.LVL52:
 626 0000 7C0802A6 		mflr 0
 627 0004 9421FFF0 		stwu 1,-16(1)
 628              	.LCFI7:
 629              		.cfi_def_cfa_offset 16
 630              		.cfi_register 65, 0
 631 0008 DBE10008 		stfd 31,8(1)
 632 000c 90010014 		stw 0,20(1)
 633              	.LBB2591:
 634              		.loc 2 238 0
 635 0010 81630060 		lwz 11,96(3)
 636              		.loc 2 236 0
 637 0014 C3E3003C 		lfs 31,60(3)
 638              		.cfi_offset 65, 4
 639              		.cfi_offset 63, -8
 640              		.loc 2 238 0
 641 0018 2F8B0000 		cmpwi 7,11,0
 642              		.loc 2 236 0
 643 001c C0030070 		lfs 0,112(3)
 644 0020 EFFF0032 		fmuls 31,31,0
 645              	.LVL53:
 646              		.loc 2 238 0
 647 0024 419E001C 		beq- 7,.L45
 648              		.loc 2 239 0
 649 0028 812B0000 		lwz 9,0(11)
 650 002c 7D635B78 		mr 3,11
 651              	.LVL54:
 652 0030 80090078 		lwz 0,120(9)
 653 0034 7C0903A6 		mtctr 0
 654 0038 4E800421 		bctrl
 655 003c EFFF0072 		fmuls 31,31,1
 656              	.LVL55:
 657              	.L45:
 658              	.LBE2591:
 659              		.loc 2 242 0
 660 0040 80010014 		lwz 0,20(1)
 661 0044 FC20F890 		fmr 1,31
 662 0048 CBE10008 		lfd 31,8(1)
 663              	.LVL56:
 664 004c 7C0803A6 		mtlr 0
 665 0050 38210010 		addi 1,1,16
 666              	.LCFI8:
 667              		.cfi_def_cfa_offset 0
 668              		.cfi_restore 63
 669 0054 4E800020 		blr
 670              		.cfi_endproc
 671              	.LFE1409:
 672              		.size	_ZN10GuiElement9GetScaleXEv, .-_ZN10GuiElement9GetScaleXEv
 673              		.section	.text._ZN10GuiElement9GetScaleYEv,"axG",@progbits,_ZN10GuiElement9GetScaleYEv,comdat
 674              		.align 2
 675              		.weak	_ZN10GuiElement9GetScaleYEv
 676              		.type	_ZN10GuiElement9GetScaleYEv, @function
 677              	_ZN10GuiElement9GetScaleYEv:
 678              	.LFB1410:
 679              		.loc 2 245 0
 680              		.cfi_startproc
 681              	.LVL57:
 682 0000 7C0802A6 		mflr 0
 683 0004 9421FFF0 		stwu 1,-16(1)
 684              	.LCFI9:
 685              		.cfi_def_cfa_offset 16
 686              		.cfi_register 65, 0
 687 0008 DBE10008 		stfd 31,8(1)
 688 000c 90010014 		stw 0,20(1)
 689              	.LBB2592:
 690              		.loc 2 249 0
 691 0010 81630060 		lwz 11,96(3)
 692              		.loc 2 247 0
 693 0014 C3E30040 		lfs 31,64(3)
 694              		.cfi_offset 65, 4
 695              		.cfi_offset 63, -8
 696              		.loc 2 249 0
 697 0018 2F8B0000 		cmpwi 7,11,0
 698              		.loc 2 247 0
 699 001c C0030070 		lfs 0,112(3)
 700 0020 EFFF0032 		fmuls 31,31,0
 701              	.LVL58:
 702              		.loc 2 249 0
 703 0024 419E001C 		beq- 7,.L47
 704              		.loc 2 250 0
 705 0028 812B0000 		lwz 9,0(11)
 706 002c 7D635B78 		mr 3,11
 707              	.LVL59:
 708 0030 8009007C 		lwz 0,124(9)
 709 0034 7C0903A6 		mtctr 0
 710 0038 4E800421 		bctrl
 711 003c EFFF0072 		fmuls 31,31,1
 712              	.LVL60:
 713              	.L47:
 714              	.LBE2592:
 715              		.loc 2 253 0
 716 0040 80010014 		lwz 0,20(1)
 717 0044 FC20F890 		fmr 1,31
 718 0048 CBE10008 		lfd 31,8(1)
 719              	.LVL61:
 720 004c 7C0803A6 		mtlr 0
 721 0050 38210010 		addi 1,1,16
 722              	.LCFI10:
 723              		.cfi_def_cfa_offset 0
 724              		.cfi_restore 63
 725 0054 4E800020 		blr
 726              		.cfi_endproc
 727              	.LFE1410:
 728              		.size	_ZN10GuiElement9GetScaleYEv, .-_ZN10GuiElement9GetScaleYEv
 729              		.section	.text._ZN10GuiElement6RumbleEv,"axG",@progbits,_ZN10GuiElement6RumbleEv,comdat
 730              		.align 2
 731              		.weak	_ZN10GuiElement6RumbleEv
 732              		.type	_ZN10GuiElement6RumbleEv, @function
 733              	_ZN10GuiElement6RumbleEv:
 734              	.LFB1411:
 735              		.loc 2 256 0
 736              		.cfi_startproc
 737              	.LVL62:
 738              		.loc 2 256 0
 739 0000 8863001C 		lbz 3,28(3)
 740              	.LVL63:
 741 0004 4E800020 		blr
 742              		.cfi_endproc
 743              	.LFE1411:
 744              		.size	_ZN10GuiElement6RumbleEv, .-_ZN10GuiElement6RumbleEv
 745              		.section	.text._ZN10GuiElement9SetRumbleEb,"axG",@progbits,_ZN10GuiElement9SetRumbleEb,comdat
 746              		.align 2
 747              		.weak	_ZN10GuiElement9SetRumbleEb
 748              		.type	_ZN10GuiElement9SetRumbleEb, @function
 749              	_ZN10GuiElement9SetRumbleEb:
 750              	.LFB1412:
 751              		.loc 2 259 0
 752              		.cfi_startproc
 753              	.LVL64:
 754              		.loc 2 259 0
 755 0000 9883001C 		stb 4,28(3)
 756 0004 4E800020 		blr
 757              		.cfi_endproc
 758              	.LFE1412:
 759              		.size	_ZN10GuiElement9SetRumbleEb, .-_ZN10GuiElement9SetRumbleEb
 760              		.section	.text._ZN10GuiElement13SetEffectGrowEv,"axG",@progbits,_ZN10GuiElement13SetEffectGrowEv,c
 761              		.align 2
 762              		.weak	_ZN10GuiElement13SetEffectGrowEv
 763              		.type	_ZN10GuiElement13SetEffectGrowEv, @function
 764              	_ZN10GuiElement13SetEffectGrowEv:
 765              	.LFB1413:
 766              		.loc 2 271 0
 767              		.cfi_startproc
 768              	.LVL65:
 769 0000 7C0802A6 		mflr 0
 770 0004 9421FFF8 		stwu 1,-8(1)
 771              	.LCFI11:
 772              		.cfi_def_cfa_offset 8
 773              		.cfi_register 65, 0
 774 0008 81230000 		lwz 9,0(3)
 775 000c 38800100 		li 4,256
 776 0010 38A00004 		li 5,4
 777 0014 38C0006E 		li 6,110
 778 0018 9001000C 		stw 0,12(1)
 779              		.loc 2 271 0
 780 001c 8009008C 		lwz 0,140(9)
 781              		.cfi_offset 65, 4
 782 0020 7C0903A6 		mtctr 0
 783 0024 4E800421 		bctrl
 784              	.LVL66:
 785 0028 8001000C 		lwz 0,12(1)
 786 002c 38210008 		addi 1,1,8
 787              	.LCFI12:
 788              		.cfi_def_cfa_offset 0
 789 0030 7C0803A6 		mtlr 0
 790 0034 4E800020 		blr
 791              		.cfi_endproc
 792              	.LFE1413:
 793              		.size	_ZN10GuiElement13SetEffectGrowEv, .-_ZN10GuiElement13SetEffectGrowEv
 794              		.section	.text._ZNK10GuiElement9GetEffectEv,"axG",@progbits,_ZNK10GuiElement9GetEffectEv,comdat
 795              		.align 2
 796              		.weak	_ZNK10GuiElement9GetEffectEv
 797              		.type	_ZNK10GuiElement9GetEffectEv, @function
 798              	_ZNK10GuiElement9GetEffectEv:
 799              	.LFB1414:
 800              		.loc 2 276 0
 801              		.cfi_startproc
 802              	.LVL67:
 803              		.loc 2 276 0
 804 0000 80630078 		lwz 3,120(3)
 805              	.LVL68:
 806 0004 4E800020 		blr
 807              		.cfi_endproc
 808              	.LFE1414:
 809              		.size	_ZNK10GuiElement9GetEffectEv, .-_ZNK10GuiElement9GetEffectEv
 810              		.section	.text._ZNK10GuiElement10IsAnimatedEv,"axG",@progbits,_ZNK10GuiElement10IsAnimatedEv,comda
 811              		.align 2
 812              		.weak	_ZNK10GuiElement10IsAnimatedEv
 813              		.type	_ZNK10GuiElement10IsAnimatedEv, @function
 814              	_ZNK10GuiElement10IsAnimatedEv:
 815              	.LFB1415:
 816              		.loc 2 278 0
 817              		.cfi_startproc
 818              	.LVL69:
 819 0000 7C0802A6 		mflr 0
 820 0004 9421FFF8 		stwu 1,-8(1)
 821              	.LCFI13:
 822              		.cfi_def_cfa_offset 8
 823              		.cfi_register 65, 0
 824 0008 9001000C 		stw 0,12(1)
 825              		.loc 2 278 0
 826 000c 81230000 		lwz 9,0(3)
 827 0010 80090098 		lwz 0,152(9)
 828              		.cfi_offset 65, 4
 829 0014 7C0903A6 		mtctr 0
 830 0018 4E800421 		bctrl
 831              	.LVL70:
 832 001c 7C60FE70 		srawi 0,3,31
 833 0020 7C630050 		subf 3,3,0
 834 0024 8001000C 		lwz 0,12(1)
 835 0028 54630FFE 		srwi 3,3,31
 836 002c 7C0803A6 		mtlr 0
 837 0030 38210008 		addi 1,1,8
 838              	.LCFI14:
 839              		.cfi_def_cfa_offset 0
 840 0034 4E800020 		blr
 841              		.cfi_endproc
 842              	.LFE1415:
 843              		.size	_ZNK10GuiElement10IsAnimatedEv, .-_ZNK10GuiElement10IsAnimatedEv
 844              		.section	.text._ZN10GuiElement8IsInsideEii,"axG",@progbits,_ZN10GuiElement8IsInsideEii,comdat
 845              		.align 2
 846              		.weak	_ZN10GuiElement8IsInsideEii
 847              		.type	_ZN10GuiElement8IsInsideEii, @function
 848              	_ZN10GuiElement8IsInsideEii:
 849              	.LFB1417:
 850              		.loc 2 285 0
 851              		.cfi_startproc
 852              	.LVL71:
 853 0000 7C0802A6 		mflr 0
 854 0004 9421FFE8 		stwu 1,-24(1)
 855              	.LCFI15:
 856              		.cfi_def_cfa_offset 24
 857              		.cfi_register 65, 0
 858 0008 93810008 		stw 28,8(1)
 859 000c 7CBC2B78 		mr 28,5
 860              		.cfi_offset 28, -16
 861 0010 9001001C 		stw 0,28(1)
 862 0014 93A1000C 		stw 29,12(1)
 863              		.loc 2 290 0
 864 0018 3BA00000 		li 29,0
 865              		.cfi_offset 29, -12
 866              		.cfi_offset 65, 4
 867              		.loc 2 287 0
 868 001c 81230000 		lwz 9,0(3)
 869              		.loc 2 285 0
 870 0020 93C10010 		stw 30,16(1)
 871 0024 7C9E2378 		mr 30,4
 872              		.cfi_offset 30, -8
 873              		.loc 2 287 0
 874 0028 80090010 		lwz 0,16(9)
 875              		.loc 2 285 0
 876 002c 93E10014 		stw 31,20(1)
 877              		.loc 2 285 0
 878 0030 7C7F1B78 		mr 31,3
 879              		.cfi_offset 31, -4
 880              		.loc 2 287 0
 881 0034 7C0903A6 		mtctr 0
 882 0038 4E800421 		bctrl
 883              	.LVL72:
 884              		.loc 2 290 0
 885 003c 7F83F000 		cmpw 7,3,30
 886 0040 419C0028 		blt- 7,.L58
 887              	.L54:
 888              		.loc 2 291 0 discriminator 6
 889 0044 8001001C 		lwz 0,28(1)
 890 0048 7FA3EB78 		mr 3,29
 891 004c 83810008 		lwz 28,8(1)
 892              	.LVL73:
 893 0050 7C0803A6 		mtlr 0
 894 0054 83A1000C 		lwz 29,12(1)
 895 0058 83C10010 		lwz 30,16(1)
 896              	.LVL74:
 897 005c 83E10014 		lwz 31,20(1)
 898              	.LVL75:
 899 0060 38210018 		addi 1,1,24
 900              		.cfi_remember_state
 901              	.LCFI16:
 902              		.cfi_def_cfa_offset 0
 903              		.cfi_restore 31
 904              		.cfi_restore 30
 905              		.cfi_restore 29
 906              		.cfi_restore 28
 907 0064 4E800020 		blr
 908              	.LVL76:
 909              	.L58:
 910              	.LCFI17:
 911              		.cfi_restore_state
 912              		.loc 2 288 0 discriminator 1
 913 0068 813F0000 		lwz 9,0(31)
 914 006c 7FE3FB78 		mr 3,31
 915 0070 80090010 		lwz 0,16(9)
 916 0074 7C0903A6 		mtctr 0
 917 0078 4E800421 		bctrl
 918              		.loc 2 290 0 discriminator 1
 919 007c 801F0024 		lwz 0,36(31)
 920 0080 7C030214 		add 0,3,0
 921 0084 7F9E0000 		cmpw 7,30,0
 922 0088 409CFFBC 		bge+ 7,.L54
 923              		.loc 2 289 0 discriminator 3
 924 008c 813F0000 		lwz 9,0(31)
 925 0090 7FE3FB78 		mr 3,31
 926 0094 80090014 		lwz 0,20(9)
 927 0098 7C0903A6 		mtctr 0
 928 009c 4E800421 		bctrl
 929              		.loc 2 290 0 discriminator 3
 930 00a0 7F83E000 		cmpw 7,3,28
 931 00a4 409CFFA0 		bge+ 7,.L54
 932              		.loc 2 290 0 is_stmt 0 discriminator 4
 933 00a8 813F0000 		lwz 9,0(31)
 934 00ac 7FE3FB78 		mr 3,31
 935 00b0 80090014 		lwz 0,20(9)
 936 00b4 7C0903A6 		mtctr 0
 937 00b8 4E800421 		bctrl
 938 00bc 801F0028 		lwz 0,40(31)
 939 00c0 7C030214 		add 0,3,0
 940              		.loc 2 285 0 is_stmt 1 discriminator 4
 941 00c4 7F9C0000 		cmpw 7,28,0
 942 00c8 7FA00026 		mfcr 29
 943 00cc 57BDEFFE 		rlwinm 29,29,29,1
 944 00d0 4BFFFF74 		b .L54
 945              		.cfi_endproc
 946              	.LFE1417:
 947              		.size	_ZN10GuiElement8IsInsideEii, .-_ZN10GuiElement8IsInsideEii
 948              		.section	.text._ZN10GuiElement11SetPositionEii,"axG",@progbits,_ZN10GuiElement11SetPositionEii,com
 949              		.align 2
 950              		.weak	_ZN10GuiElement11SetPositionEii
 951              		.type	_ZN10GuiElement11SetPositionEii, @function
 952              	_ZN10GuiElement11SetPositionEii:
 953              	.LFB1418:
 954              		.loc 2 295 0
 955              		.cfi_startproc
 956              	.LVL77:
 957              		.loc 2 297 0
 958 0000 9083002C 		stw 4,44(3)
 959              		.loc 2 299 0
 960              		.loc 2 298 0
 961 0004 90A30030 		stw 5,48(3)
 962              		.loc 2 299 0
 963 0008 4E800020 		blr
 964              		.cfi_endproc
 965              	.LFE1418:
 966              		.size	_ZN10GuiElement11SetPositionEii, .-_ZN10GuiElement11SetPositionEii
 967              		.section	.text._ZN10GuiElement11SetPositionEiii,"axG",@progbits,_ZN10GuiElement11SetPositionEiii,c
 968              		.align 2
 969              		.weak	_ZN10GuiElement11SetPositionEiii
 970              		.type	_ZN10GuiElement11SetPositionEiii, @function
 971              	_ZN10GuiElement11SetPositionEiii:
 972              	.LFB1419:
 973              		.loc 2 304 0
 974              		.cfi_startproc
 975              	.LVL78:
 976              		.loc 2 306 0
 977 0000 9083002C 		stw 4,44(3)
 978              		.loc 2 309 0
 979              		.loc 2 307 0
 980 0004 90A30030 		stw 5,48(3)
 981              		.loc 2 308 0
 982 0008 90C30034 		stw 6,52(3)
 983              		.loc 2 309 0
 984 000c 4E800020 		blr
 985              		.cfi_endproc
 986              	.LFE1419:
 987              		.size	_ZN10GuiElement11SetPositionEiii, .-_ZN10GuiElement11SetPositionEiii
 988              		.section	.text._ZN10GuiElement12SetAlignmentEi,"axG",@progbits,_ZN10GuiElement12SetAlignmentEi,com
 989              		.align 2
 990              		.weak	_ZN10GuiElement12SetAlignmentEi
 991              		.type	_ZN10GuiElement12SetAlignmentEi, @function
 992              	_ZN10GuiElement12SetAlignmentEi:
 993              	.LFB1421:
 994              		.loc 2 316 0
 995              		.cfi_startproc
 996              	.LVL79:
 997              		.loc 2 316 0
 998 0000 90830044 		stw 4,68(3)
 999 0004 4E800020 		blr
 1000              		.cfi_endproc
 1001              	.LFE1421:
 1002              		.size	_ZN10GuiElement12SetAlignmentEi, .-_ZN10GuiElement12SetAlignmentEi
 1003              		.section	.text._ZNK10GuiElement12GetAlignmentEv,"axG",@progbits,_ZNK10GuiElement12GetAlignmentEv,c
 1004              		.align 2
 1005              		.weak	_ZNK10GuiElement12GetAlignmentEv
 1006              		.type	_ZNK10GuiElement12GetAlignmentEv, @function
 1007              	_ZNK10GuiElement12GetAlignmentEv:
 1008              	.LFB1422:
 1009              		.loc 2 318 0
 1010              		.cfi_startproc
 1011              	.LVL80:
 1012              		.loc 2 318 0
 1013 0000 80630044 		lwz 3,68(3)
 1014              	.LVL81:
 1015 0004 4E800020 		blr
 1016              		.cfi_endproc
 1017              	.LFE1422:
 1018              		.size	_ZNK10GuiElement12GetAlignmentEv, .-_ZNK10GuiElement12GetAlignmentEv
 1019              		.section	.text._ZN8GuiFrame4showEv,"axG",@progbits,_ZN8GuiFrame4showEv,comdat
 1020              		.align 2
 1021              		.weak	_ZN8GuiFrame4showEv
 1022              		.type	_ZN8GuiFrame4showEv, @function
 1023              	_ZN8GuiFrame4showEv:
 1024              	.LFB1431:
 1025              		.file 3 "d:/Projects/SaveGameManager/savegame-manager-gx/trunk/source/TextOperations/../GUI/gui_fr
 1026              		.loc 3 79 0
 1027              		.cfi_startproc
 1028              	.LVL82:
 1029              		.loc 3 79 0
 1030 0000 4E800020 		blr
 1031              		.cfi_endproc
 1032              	.LFE1431:
 1033              		.size	_ZN8GuiFrame4showEv, .-_ZN8GuiFrame4showEv
 1034              		.section	.text._ZN8GuiFrame4hideEv,"axG",@progbits,_ZN8GuiFrame4hideEv,comdat
 1035              		.align 2
 1036              		.weak	_ZN8GuiFrame4hideEv
 1037              		.type	_ZN8GuiFrame4hideEv, @function
 1038              	_ZN8GuiFrame4hideEv:
 1039              	.LFB1432:
 1040              		.loc 3 81 0
 1041              		.cfi_startproc
 1042              	.LVL83:
 1043              		.loc 3 81 0
 1044 0000 4E800020 		blr
 1045              		.cfi_endproc
 1046              	.LFE1432:
 1047              		.size	_ZN8GuiFrame4hideEv, .-_ZN8GuiFrame4hideEv
 1048              		.section	.text._ZN8GuiFrame4execEv,"axG",@progbits,_ZN8GuiFrame4execEv,comdat
 1049              		.align 2
 1050              		.weak	_ZN8GuiFrame4execEv
 1051              		.type	_ZN8GuiFrame4execEv, @function
 1052              	_ZN8GuiFrame4execEv:
 1053              	.LFB1433:
 1054              		.loc 3 83 0
 1055              		.cfi_startproc
 1056              	.LVL84:
 1057              		.loc 3 83 0
 1058 0000 4E800020 		blr
 1059              		.cfi_endproc
 1060              	.LFE1433:
 1061              		.size	_ZN8GuiFrame4execEv, .-_ZN8GuiFrame4execEv
 1062              		.section	.text._ZN8GuiFrame12updateEventsEv,"axG",@progbits,_ZN8GuiFrame12updateEventsEv,comdat
 1063              		.align 2
 1064              		.weak	_ZN8GuiFrame12updateEventsEv
 1065              		.type	_ZN8GuiFrame12updateEventsEv, @function
 1066              	_ZN8GuiFrame12updateEventsEv:
 1067              	.LFB1434:
 1068              		.loc 3 85 0
 1069              		.cfi_startproc
 1070              	.LVL85:
 1071              		.loc 3 85 0
 1072 0000 4E800020 		blr
 1073              		.cfi_endproc
 1074              	.LFE1434:
 1075              		.size	_ZN8GuiFrame12updateEventsEv, .-_ZN8GuiFrame12updateEventsEv
 1076              		.section	.text._ZN7sigslot17_connection_base2IiiNS_15single_threadedEED2Ev,"axG",@progbits,_ZN7sig
 1077              		.align 2
 1078              		.weak	_ZN7sigslot17_connection_base2IiiNS_15single_threadedEED2Ev
 1079              		.type	_ZN7sigslot17_connection_base2IiiNS_15single_threadedEED2Ev, @function
 1080              	_ZN7sigslot17_connection_base2IiiNS_15single_threadedEED2Ev:
 1081              	.LFB1834:
 1082              		.loc 1 376 0
 1083              		.cfi_startproc
 1084              	.LVL86:
 1085              	.LBB2593:
 1086              		.loc 1 376 0
 1087 0000 3D200000 		lis 9,_ZTVN7sigslot17_connection_base2IiiNS_15single_threadedEEE+8@ha
 1088              	.LBE2593:
 1089              	.LBB2594:
 1090 0004 38090008 		la 0,_ZTVN7sigslot17_connection_base2IiiNS_15single_threadedEEE+8@l(9)
 1091 0008 90030000 		stw 0,0(3)
 1092              	.LBE2594:
 1093 000c 4E800020 		blr
 1094              		.cfi_endproc
 1095              	.LFE1834:
 1096              		.size	_ZN7sigslot17_connection_base2IiiNS_15single_threadedEED2Ev, .-_ZN7sigslot17_connection_base
 1097              		.section	.text._ZN7sigslot17_connection_base3IP9GuiButtoniRK6_POINTNS_15single_threadedEED2Ev,"axG
 1098              		.align 2
 1099              		.weak	_ZN7sigslot17_connection_base3IP9GuiButtoniRK6_POINTNS_15single_threadedEED2Ev
 1100              		.type	_ZN7sigslot17_connection_base3IP9GuiButtoniRK6_POINTNS_15single_threadedEED2Ev, @function
 1101              	_ZN7sigslot17_connection_base3IP9GuiButtoniRK6_POINTNS_15single_threadedEED2Ev:
 1102              	.LFB1841:
 1103              		.loc 1 387 0
 1104              		.cfi_startproc
 1105              	.LVL87:
 1106              	.LBB2595:
 1107              		.loc 1 387 0
 1108 0000 3D200000 		lis 9,_ZTVN7sigslot17_connection_base3IP9GuiButtoniRK6_POINTNS_15single_threadedEEE+8@ha
 1109              	.LBE2595:
 1110              	.LBB2596:
 1111 0004 38090008 		la 0,_ZTVN7sigslot17_connection_base3IP9GuiButtoniRK6_POINTNS_15single_threadedEEE+8@l(9)
 1112 0008 90030000 		stw 0,0(3)
 1113              	.LBE2596:
 1114 000c 4E800020 		blr
 1115              		.cfi_endproc
 1116              	.LFE1841:
 1117              		.size	_ZN7sigslot17_connection_base3IP9GuiButtoniRK6_POINTNS_15single_threadedEED2Ev, .-_ZN7sigslo
 1118              		.section	.text._ZN7sigslot12_connection3I10TextEditorP9GuiButtoniRK6_POINTNS_15single_threadedEED2
 1119              		.align 2
 1120              		.weak	_ZN7sigslot12_connection3I10TextEditorP9GuiButtoniRK6_POINTNS_15single_threadedEED2Ev
 1121              		.type	_ZN7sigslot12_connection3I10TextEditorP9GuiButtoniRK6_POINTNS_15single_threadedEED2Ev, @func
 1122              	_ZN7sigslot12_connection3I10TextEditorP9GuiButtoniRK6_POINTNS_15single_threadedEED2Ev:
 1123              	.LFB2129:
 1124              		.loc 1 1783 0
 1125              		.cfi_startproc
 1126              	.LVL88:
 1127              	.LBB2597:
 1128              	.LBB2598:
 1129              	.LBB2599:
 1130              	.LBB2600:
 1131              		.loc 1 387 0
 1132 0000 3D200000 		lis 9,_ZTVN7sigslot17_connection_base3IP9GuiButtoniRK6_POINTNS_15single_threadedEEE+8@ha
 1133              	.LBE2600:
 1134              	.LBE2599:
 1135              	.LBE2598:
 1136              	.LBE2597:
 1137              		.loc 1 1786 0
 1138              	.LBB2604:
 1139              	.LBB2603:
 1140              	.LBB2602:
 1141              	.LBB2601:
 1142              		.loc 1 387 0
 1143 0004 38090008 		la 0,_ZTVN7sigslot17_connection_base3IP9GuiButtoniRK6_POINTNS_15single_threadedEEE+8@l(9)
 1144 0008 90030000 		stw 0,0(3)
 1145              	.LBE2601:
 1146              	.LBE2602:
 1147              	.LBE2603:
 1148              	.LBE2604:
 1149              		.loc 1 1786 0
 1150 000c 4E800020 		blr
 1151              		.cfi_endproc
 1152              	.LFE2129:
 1153              		.size	_ZN7sigslot12_connection3I10TextEditorP9GuiButtoniRK6_POINTNS_15single_threadedEED2Ev, .-_ZN
 1154              		.section	.text._ZNK7sigslot12_connection3I10TextEditorP9GuiButtoniRK6_POINTNS_15single_threadedEE7
 1155              		.align 2
 1156              		.weak	_ZNK7sigslot12_connection3I10TextEditorP9GuiButtoniRK6_POINTNS_15single_threadedEE7getdestEv
 1157              		.type	_ZNK7sigslot12_connection3I10TextEditorP9GuiButtoniRK6_POINTNS_15single_threadedEE7getdestEv
 1158              	_ZNK7sigslot12_connection3I10TextEditorP9GuiButtoniRK6_POINTNS_15single_threadedEE7getdestEv:
 1159              	.LFB2132:
 1160              		.loc 1 1804 0
 1161              		.cfi_startproc
 1162              	.LVL89:
 1163              		.loc 1 1806 0
 1164 0000 81230004 		lwz 9,4(3)
 1165 0004 38600000 		li 3,0
 1166              	.LVL90:
 1167 0008 2F890000 		cmpwi 7,9,0
 1168 000c 4D9E0020 		beqlr- 7
 1169              		.loc 1 1806 0 is_stmt 0 discriminator 1
 1170 0010 386900B0 		addi 3,9,176
 1171              		.loc 1 1807 0 is_stmt 1 discriminator 1
 1172 0014 4E800020 		blr
 1173              		.cfi_endproc
 1174              	.LFE2132:
 1175              		.size	_ZNK7sigslot12_connection3I10TextEditorP9GuiButtoniRK6_POINTNS_15single_threadedEE7getdestEv
 1176              		.section	.text._ZN7sigslot12_connection3I10TextEditorP9GuiButtoniRK6_POINTNS_15single_threadedEE4e
 1177              		.align 2
 1178              		.weak	_ZN7sigslot12_connection3I10TextEditorP9GuiButtoniRK6_POINTNS_15single_threadedEE4emitES3_iS
 1179              		.type	_ZN7sigslot12_connection3I10TextEditorP9GuiButtoniRK6_POINTNS_15single_threadedEE4emitES3_iS
 1180              	_ZN7sigslot12_connection3I10TextEditorP9GuiButtoniRK6_POINTNS_15single_threadedEE4emitES3_iS6_:
 1181              	.LFB2133:
 1182              		.loc 1 1799 0
 1183              		.cfi_startproc
 1184              	.LVL91:
 1185 0000 7C0802A6 		mflr 0
 1186 0004 9421FFF8 		stwu 1,-8(1)
 1187              	.LCFI18:
 1188              		.cfi_def_cfa_offset 8
 1189              		.cfi_register 65, 0
 1190 0008 9001000C 		stw 0,12(1)
 1191              		.loc 1 1801 0
 1192 000c 80030008 		lwz 0,8(3)
 1193              		.cfi_offset 65, 4
 1194 0010 81630004 		lwz 11,4(3)
 1195 0014 70090001 		andi. 9,0,1
 1196 0018 8123000C 		lwz 9,12(3)
 1197 001c 40820020 		bne- 0,.L78
 1198 0020 7C0903A6 		mtctr 0
 1199 0024 7C6B4A14 		add 3,11,9
 1200              	.LVL92:
 1201 0028 4E800421 		bctrl
 1202              	.LVL93:
 1203              		.loc 1 1802 0
 1204 002c 8001000C 		lwz 0,12(1)
 1205 0030 38210008 		addi 1,1,8
 1206              		.cfi_remember_state
 1207              	.LCFI19:
 1208              		.cfi_def_cfa_offset 0
 1209 0034 7C0803A6 		mtlr 0
 1210 0038 4E800020 		blr
 1211              	.LVL94:
 1212              	.L78:
 1213              	.LCFI20:
 1214              		.cfi_restore_state
 1215              		.loc 1 1801 0 discriminator 1
 1216 003c 7D4B482E 		lwzx 10,11,9
 1217 0040 7C6B4A14 		add 3,11,9
 1218              	.LVL95:
 1219 0044 7D2A0214 		add 9,10,0
 1220 0048 8009FFFF 		lwz 0,-1(9)
 1221 004c 7C0903A6 		mtctr 0
 1222 0050 4E800421 		bctrl
 1223              	.LVL96:
 1224              		.loc 1 1802 0 discriminator 1
 1225 0054 8001000C 		lwz 0,12(1)
 1226 0058 38210008 		addi 1,1,8
 1227              	.LCFI21:
 1228              		.cfi_def_cfa_offset 0
 1229 005c 7C0803A6 		mtlr 0
 1230 0060 4E800020 		blr
 1231              		.cfi_endproc
 1232              	.LFE2133:
 1233              		.size	_ZN7sigslot12_connection3I10TextEditorP9GuiButtoniRK6_POINTNS_15single_threadedEE4emitES3_iS
 1234              		.section	.text._ZN7sigslot12_connection2I10TextEditoriiNS_15single_threadedEED2Ev,"axG",@progbits,
 1235              		.align 2
 1236              		.weak	_ZN7sigslot12_connection2I10TextEditoriiNS_15single_threadedEED2Ev
 1237              		.type	_ZN7sigslot12_connection2I10TextEditoriiNS_15single_threadedEED2Ev, @function
 1238              	_ZN7sigslot12_connection2I10TextEditoriiNS_15single_threadedEED2Ev:
 1239              	.LFB2143:
 1240              		.loc 1 1735 0
 1241              		.cfi_startproc
 1242              	.LVL97:
 1243              	.LBB2605:
 1244              	.LBB2606:
 1245              	.LBB2607:
 1246              	.LBB2608:
 1247              		.loc 1 376 0
 1248 0000 3D200000 		lis 9,_ZTVN7sigslot17_connection_base2IiiNS_15single_threadedEEE+8@ha
 1249              	.LBE2608:
 1250              	.LBE2607:
 1251              	.LBE2606:
 1252              	.LBE2605:
 1253              		.loc 1 1738 0
 1254              	.LBB2612:
 1255              	.LBB2611:
 1256              	.LBB2610:
 1257              	.LBB2609:
 1258              		.loc 1 376 0
 1259 0004 38090008 		la 0,_ZTVN7sigslot17_connection_base2IiiNS_15single_threadedEEE+8@l(9)
 1260 0008 90030000 		stw 0,0(3)
 1261              	.LBE2609:
 1262              	.LBE2610:
 1263              	.LBE2611:
 1264              	.LBE2612:
 1265              		.loc 1 1738 0
 1266 000c 4E800020 		blr
 1267              		.cfi_endproc
 1268              	.LFE2143:
 1269              		.size	_ZN7sigslot12_connection2I10TextEditoriiNS_15single_threadedEED2Ev, .-_ZN7sigslot12_connecti
 1270              		.section	.text._ZNK7sigslot12_connection2I10TextEditoriiNS_15single_threadedEE7getdestEv,"axG",@pr
 1271              		.align 2
 1272              		.weak	_ZNK7sigslot12_connection2I10TextEditoriiNS_15single_threadedEE7getdestEv
 1273              		.type	_ZNK7sigslot12_connection2I10TextEditoriiNS_15single_threadedEE7getdestEv, @function
 1274              	_ZNK7sigslot12_connection2I10TextEditoriiNS_15single_threadedEE7getdestEv:
 1275              	.LFB2146:
 1276              		.loc 1 1756 0
 1277              		.cfi_startproc
 1278              	.LVL98:
 1279              		.loc 1 1758 0
 1280 0000 81230004 		lwz 9,4(3)
 1281 0004 38600000 		li 3,0
 1282              	.LVL99:
 1283 0008 2F890000 		cmpwi 7,9,0
 1284 000c 4D9E0020 		beqlr- 7
 1285              		.loc 1 1758 0 is_stmt 0 discriminator 1
 1286 0010 386900B0 		addi 3,9,176
 1287              		.loc 1 1759 0 is_stmt 1 discriminator 1
 1288 0014 4E800020 		blr
 1289              		.cfi_endproc
 1290              	.LFE2146:
 1291              		.size	_ZNK7sigslot12_connection2I10TextEditoriiNS_15single_threadedEE7getdestEv, .-_ZNK7sigslot12_
 1292              		.section	.text._ZN7sigslot12_connection2I10TextEditoriiNS_15single_threadedEE4emitEii,"axG",@progb
 1293              		.align 2
 1294              		.weak	_ZN7sigslot12_connection2I10TextEditoriiNS_15single_threadedEE4emitEii
 1295              		.type	_ZN7sigslot12_connection2I10TextEditoriiNS_15single_threadedEE4emitEii, @function
 1296              	_ZN7sigslot12_connection2I10TextEditoriiNS_15single_threadedEE4emitEii:
 1297              	.LFB2147:
 1298              		.loc 1 1751 0
 1299              		.cfi_startproc
 1300              	.LVL100:
 1301 0000 7C0802A6 		mflr 0
 1302 0004 9421FFF8 		stwu 1,-8(1)
 1303              	.LCFI22:
 1304              		.cfi_def_cfa_offset 8
 1305              		.cfi_register 65, 0
 1306 0008 9001000C 		stw 0,12(1)
 1307              		.loc 1 1753 0
 1308 000c 80030008 		lwz 0,8(3)
 1309              		.cfi_offset 65, 4
 1310 0010 81630004 		lwz 11,4(3)
 1311 0014 70090001 		andi. 9,0,1
 1312 0018 8123000C 		lwz 9,12(3)
 1313 001c 40820020 		bne- 0,.L87
 1314 0020 7C0903A6 		mtctr 0
 1315 0024 7C6B4A14 		add 3,11,9
 1316              	.LVL101:
 1317 0028 4E800421 		bctrl
 1318              	.LVL102:
 1319              		.loc 1 1754 0
 1320 002c 8001000C 		lwz 0,12(1)
 1321 0030 38210008 		addi 1,1,8
 1322              		.cfi_remember_state
 1323              	.LCFI23:
 1324              		.cfi_def_cfa_offset 0
 1325 0034 7C0803A6 		mtlr 0
 1326 0038 4E800020 		blr
 1327              	.LVL103:
 1328              	.L87:
 1329              	.LCFI24:
 1330              		.cfi_restore_state
 1331              		.loc 1 1753 0 discriminator 1
 1332 003c 7D4B482E 		lwzx 10,11,9
 1333 0040 7C6B4A14 		add 3,11,9
 1334              	.LVL104:
 1335 0044 7D2A0214 		add 9,10,0
 1336 0048 8009FFFF 		lwz 0,-1(9)
 1337 004c 7C0903A6 		mtctr 0
 1338 0050 4E800421 		bctrl
 1339              	.LVL105:
 1340              		.loc 1 1754 0 discriminator 1
 1341 0054 8001000C 		lwz 0,12(1)
 1342 0058 38210008 		addi 1,1,8
 1343              	.LCFI25:
 1344              		.cfi_def_cfa_offset 0
 1345 005c 7C0803A6 		mtlr 0
 1346 0060 4E800020 		blr
 1347              		.cfi_endproc
 1348              	.LFE2147:
 1349              		.size	_ZN7sigslot12_connection2I10TextEditoriiNS_15single_threadedEE4emitEii, .-_ZN7sigslot12_conn
 1350              		.section	.text._ZN7sigslot12_connection2I10TextEditoriiNS_15single_threadedEE9duplicateEPNS_9has_s
 1351              		.align 2
 1352              		.weak	_ZN7sigslot12_connection2I10TextEditoriiNS_15single_threadedEE9duplicateEPNS_9has_slotsIS2_E
 1353              		.type	_ZN7sigslot12_connection2I10TextEditoriiNS_15single_threadedEE9duplicateEPNS_9has_slotsIS2_E
 1354              	_ZN7sigslot12_connection2I10TextEditoriiNS_15single_threadedEE9duplicateEPNS_9has_slotsIS2_EE:
 1355              	.LFB2155:
 1356              		.loc 1 1746 0
 1357              		.cfi_startproc
 1358              	.LVL106:
 1359 0000 9421FFF0 		stwu 1,-16(1)
 1360              	.LCFI26:
 1361              		.cfi_def_cfa_offset 16
 1362 0004 7C0802A6 		mflr 0
 1363 0008 93C10008 		stw 30,8(1)
 1364 000c 7C9E2378 		mr 30,4
 1365              		.cfi_offset 30, -8
 1366              		.cfi_register 65, 0
 1367 0010 93E1000C 		stw 31,12(1)
 1368 0014 7C7F1B78 		mr 31,3
 1369              		.cfi_offset 31, -4
 1370              		.loc 1 1748 0
 1371 0018 38600010 		li 3,16
 1372              	.LVL107:
 1373              		.loc 1 1746 0
 1374 001c 90010014 		stw 0,20(1)
 1375              		.loc 1 1748 0
 1376              		.cfi_offset 65, 4
 1377 0020 48000001 		bl _Znwj
 1378              	.LVL108:
 1379 0024 2F9E0000 		cmpwi 7,30,0
 1380 0028 38000000 		li 0,0
 1381 002c 419E0008 		beq- 7,.L90
 1382              		.loc 1 1748 0 is_stmt 0 discriminator 1
 1383 0030 381EFF50 		addi 0,30,-176
 1384              	.L90:
 1385              	.LVL109:
 1386              		.loc 1 1748 0 discriminator 3
 1387 0034 817F0008 		lwz 11,8(31)
 1388              	.LVL110:
 1389              	.LBB2613:
 1390              	.LBB2614:
 1391              		.loc 1 1730 0 is_stmt 1 discriminator 3
 1392 0038 3D400000 		lis 10,_ZTVN7sigslot12_connection2I10TextEditoriiNS_15single_threadedEEE+8@ha
 1393              	.LBE2614:
 1394              	.LBE2613:
 1395              		.loc 1 1748 0 discriminator 3
 1396 003c 813F000C 		lwz 9,12(31)
 1397              	.LVL111:
 1398              	.LBB2617:
 1399              	.LBB2615:
 1400              		.loc 1 1730 0 discriminator 3
 1401 0040 394A0008 		la 10,_ZTVN7sigslot12_connection2I10TextEditoriiNS_15single_threadedEEE+8@l(10)
 1402              		.loc 1 1732 0 discriminator 3
 1403 0044 91630008 		stw 11,8(3)
 1404 0048 9123000C 		stw 9,12(3)
 1405              		.loc 1 1731 0 discriminator 3
 1406 004c 90030004 		stw 0,4(3)
 1407              	.LBE2615:
 1408              	.LBE2617:
 1409              		.loc 1 1749 0 discriminator 3
 1410 0050 80010014 		lwz 0,20(1)
 1411              	.LVL112:
 1412 0054 83C10008 		lwz 30,8(1)
 1413              	.LVL113:
 1414 0058 7C0803A6 		mtlr 0
 1415 005c 83E1000C 		lwz 31,12(1)
 1416              	.LVL114:
 1417              	.LBB2618:
 1418              	.LBB2616:
 1419              		.loc 1 1730 0 discriminator 3
 1420 0060 91430000 		stw 10,0(3)
 1421              	.LBE2616:
 1422              	.LBE2618:
 1423              		.loc 1 1749 0 discriminator 3
 1424 0064 38210010 		addi 1,1,16
 1425              	.LCFI27:
 1426              		.cfi_def_cfa_offset 0
 1427              		.cfi_restore 31
 1428              		.cfi_restore 30
 1429 0068 4E800020 		blr
 1430              		.cfi_endproc
 1431              	.LFE2155:
 1432              		.size	_ZN7sigslot12_connection2I10TextEditoriiNS_15single_threadedEE9duplicateEPNS_9has_slotsIS2_E
 1433              		.section	.text._ZN7sigslot12_connection3I10TextEditorP9GuiButtoniRK6_POINTNS_15single_threadedEE9d
 1434              		.align 2
 1435              		.weak	_ZN7sigslot12_connection3I10TextEditorP9GuiButtoniRK6_POINTNS_15single_threadedEE9duplicateE
 1436              		.type	_ZN7sigslot12_connection3I10TextEditorP9GuiButtoniRK6_POINTNS_15single_threadedEE9duplicateE
 1437              	_ZN7sigslot12_connection3I10TextEditorP9GuiButtoniRK6_POINTNS_15single_threadedEE9duplicateEPNS_9ha
 1438              	.LFB2141:
 1439              		.loc 1 1794 0
 1440              		.cfi_startproc
 1441              	.LVL115:
 1442 0000 9421FFF0 		stwu 1,-16(1)
 1443              	.LCFI28:
 1444              		.cfi_def_cfa_offset 16
 1445 0004 7C0802A6 		mflr 0
 1446 0008 93C10008 		stw 30,8(1)
 1447 000c 7C9E2378 		mr 30,4
 1448              		.cfi_offset 30, -8
 1449              		.cfi_register 65, 0
 1450 0010 93E1000C 		stw 31,12(1)
 1451 0014 7C7F1B78 		mr 31,3
 1452              		.cfi_offset 31, -4
 1453              		.loc 1 1796 0
 1454 0018 38600010 		li 3,16
 1455              	.LVL116:
 1456              		.loc 1 1794 0
 1457 001c 90010014 		stw 0,20(1)
 1458              		.loc 1 1796 0
 1459              		.cfi_offset 65, 4
 1460 0020 48000001 		bl _Znwj
 1461              	.LVL117:
 1462 0024 2F9E0000 		cmpwi 7,30,0
 1463 0028 38000000 		li 0,0
 1464 002c 419E0008 		beq- 7,.L93
 1465              		.loc 1 1796 0 is_stmt 0 discriminator 1
 1466 0030 381EFF50 		addi 0,30,-176
 1467              	.L93:
 1468              	.LVL118:
 1469              		.loc 1 1796 0 discriminator 3
 1470 0034 817F0008 		lwz 11,8(31)
 1471              	.LVL119:
 1472              	.LBB2619:
 1473              	.LBB2620:
 1474              		.loc 1 1778 0 is_stmt 1 discriminator 3
 1475 0038 3D400000 		lis 10,_ZTVN7sigslot12_connection3I10TextEditorP9GuiButtoniRK6_POINTNS_15single_threadedEEE+8@ha
 1476              	.LBE2620:
 1477              	.LBE2619:
 1478              		.loc 1 1796 0 discriminator 3
 1479 003c 813F000C 		lwz 9,12(31)
 1480              	.LVL120:
 1481              	.LBB2623:
 1482              	.LBB2621:
 1483              		.loc 1 1778 0 discriminator 3
 1484 0040 394A0008 		la 10,_ZTVN7sigslot12_connection3I10TextEditorP9GuiButtoniRK6_POINTNS_15single_threadedEEE+8@l(10)
 1485              		.loc 1 1780 0 discriminator 3
 1486 0044 91630008 		stw 11,8(3)
 1487 0048 9123000C 		stw 9,12(3)
 1488              		.loc 1 1779 0 discriminator 3
 1489 004c 90030004 		stw 0,4(3)
 1490              	.LBE2621:
 1491              	.LBE2623:
 1492              		.loc 1 1797 0 discriminator 3
 1493 0050 80010014 		lwz 0,20(1)
 1494              	.LVL121:
 1495 0054 83C10008 		lwz 30,8(1)
 1496              	.LVL122:
 1497 0058 7C0803A6 		mtlr 0
 1498 005c 83E1000C 		lwz 31,12(1)
 1499              	.LVL123:
 1500              	.LBB2624:
 1501              	.LBB2622:
 1502              		.loc 1 1778 0 discriminator 3
 1503 0060 91430000 		stw 10,0(3)
 1504              	.LBE2622:
 1505              	.LBE2624:
 1506              		.loc 1 1797 0 discriminator 3
 1507 0064 38210010 		addi 1,1,16
 1508              	.LCFI29:
 1509              		.cfi_def_cfa_offset 0
 1510              		.cfi_restore 31
 1511              		.cfi_restore 30
 1512 0068 4E800020 		blr
 1513              		.cfi_endproc
 1514              	.LFE2141:
 1515              		.size	_ZN7sigslot12_connection3I10TextEditorP9GuiButtoniRK6_POINTNS_15single_threadedEE9duplicateE
 1516              		.section	.text._ZN7sigslot12_connection3I10TextEditorP9GuiButtoniRK6_POINTNS_15single_threadedEE5c
 1517              		.align 2
 1518              		.weak	_ZN7sigslot12_connection3I10TextEditorP9GuiButtoniRK6_POINTNS_15single_threadedEE5cloneEv
 1519              		.type	_ZN7sigslot12_connection3I10TextEditorP9GuiButtoniRK6_POINTNS_15single_threadedEE5cloneEv, @
 1520              	_ZN7sigslot12_connection3I10TextEditorP9GuiButtoniRK6_POINTNS_15single_threadedEE5cloneEv:
 1521              	.LFB2134:
 1522              		.loc 1 1789 0
 1523              		.cfi_startproc
 1524              	.LVL124:
 1525 0000 9421FFF0 		stwu 1,-16(1)
 1526              	.LCFI30:
 1527              		.cfi_def_cfa_offset 16
 1528 0004 7C0802A6 		mflr 0
 1529 0008 93E1000C 		stw 31,12(1)
 1530 000c 7C7F1B78 		mr 31,3
 1531              		.cfi_offset 31, -4
 1532              		.cfi_register 65, 0
 1533              		.loc 1 1791 0
 1534 0010 38600010 		li 3,16
 1535              	.LVL125:
 1536              		.loc 1 1789 0
 1537 0014 90010014 		stw 0,20(1)
 1538              		.loc 1 1791 0
 1539              		.cfi_offset 65, 4
 1540 0018 48000001 		bl _Znwj
 1541              		.file 4 "d:/Projects/SaveGameManager/savegame-manager-gx/trunk/source/TextOperations/TextEditor.cp
 1542              		.loc 4 391 0
 1543 001c 801F0004 		lwz 0,4(31)
 1544              	.LVL126:
 1545              	.LBB2625:
 1546              	.LBB2626:
 1547              		.loc 1 1767 0
 1548 0020 3D600000 		lis 11,_ZTVN7sigslot12_connection3I10TextEditorP9GuiButtoniRK6_POINTNS_15single_threadedEEE+8@ha
 1549 0024 396B0008 		la 11,_ZTVN7sigslot12_connection3I10TextEditorP9GuiButtoniRK6_POINTNS_15single_threadedEEE+8@l(11)
 1550 0028 90030004 		stw 0,4(3)
 1551 002c 91630000 		stw 11,0(3)
 1552 0030 815F0008 		lwz 10,8(31)
 1553 0034 817F000C 		lwz 11,12(31)
 1554 0038 91430008 		stw 10,8(3)
 1555 003c 9163000C 		stw 11,12(3)
 1556              	.LBE2626:
 1557              	.LBE2625:
 1558              		.loc 1 1792 0
 1559 0040 80010014 		lwz 0,20(1)
 1560 0044 83E1000C 		lwz 31,12(1)
 1561              	.LVL127:
 1562 0048 7C0803A6 		mtlr 0
 1563 004c 38210010 		addi 1,1,16
 1564              	.LCFI31:
 1565              		.cfi_def_cfa_offset 0
 1566              		.cfi_restore 31
 1567 0050 4E800020 		blr
 1568              		.cfi_endproc
 1569              	.LFE2134:
 1570              		.size	_ZN7sigslot12_connection3I10TextEditorP9GuiButtoniRK6_POINTNS_15single_threadedEE5cloneEv, .
 1571              		.section	.text._ZN7sigslot12_connection2I10TextEditoriiNS_15single_threadedEE5cloneEv,"axG",@progb
 1572              		.align 2
 1573              		.weak	_ZN7sigslot12_connection2I10TextEditoriiNS_15single_threadedEE5cloneEv
 1574              		.type	_ZN7sigslot12_connection2I10TextEditoriiNS_15single_threadedEE5cloneEv, @function
 1575              	_ZN7sigslot12_connection2I10TextEditoriiNS_15single_threadedEE5cloneEv:
 1576              	.LFB2148:
 1577              		.loc 1 1741 0
 1578              		.cfi_startproc
 1579              	.LVL128:
 1580 0000 9421FFF0 		stwu 1,-16(1)
 1581              	.LCFI32:
 1582              		.cfi_def_cfa_offset 16
 1583 0004 7C0802A6 		mflr 0
 1584 0008 93E1000C 		stw 31,12(1)
 1585 000c 7C7F1B78 		mr 31,3
 1586              		.cfi_offset 31, -4
 1587              		.cfi_register 65, 0
 1588              		.loc 1 1743 0
 1589 0010 38600010 		li 3,16
 1590              	.LVL129:
 1591              		.loc 1 1741 0
 1592 0014 90010014 		stw 0,20(1)
 1593              		.loc 1 1743 0
 1594              		.cfi_offset 65, 4
 1595 0018 48000001 		bl _Znwj
 1596              		.loc 4 391 0
 1597 001c 801F0004 		lwz 0,4(31)
 1598              	.LVL130:
 1599              	.LBB2627:
 1600              	.LBB2628:
 1601              		.loc 1 1719 0
 1602 0020 3D600000 		lis 11,_ZTVN7sigslot12_connection2I10TextEditoriiNS_15single_threadedEEE+8@ha
 1603 0024 396B0008 		la 11,_ZTVN7sigslot12_connection2I10TextEditoriiNS_15single_threadedEEE+8@l(11)
 1604 0028 90030004 		stw 0,4(3)
 1605 002c 91630000 		stw 11,0(3)
 1606 0030 815F0008 		lwz 10,8(31)
 1607 0034 817F000C 		lwz 11,12(31)
 1608 0038 91430008 		stw 10,8(3)
 1609 003c 9163000C 		stw 11,12(3)
 1610              	.LBE2628:
 1611              	.LBE2627:
 1612              		.loc 1 1744 0
 1613 0040 80010014 		lwz 0,20(1)
 1614 0044 83E1000C 		lwz 31,12(1)
 1615              	.LVL131:
 1616 0048 7C0803A6 		mtlr 0
 1617 004c 38210010 		addi 1,1,16
 1618              	.LCFI33:
 1619              		.cfi_def_cfa_offset 0
 1620              		.cfi_restore 31
 1621 0050 4E800020 		blr
 1622              		.cfi_endproc
 1623              	.LFE2148:
 1624              		.size	_ZN7sigslot12_connection2I10TextEditoriiNS_15single_threadedEE5cloneEv, .-_ZN7sigslot12_conn
 1625              		.section	.text._ZN7sigslot12_connection2I10TextEditoriiNS_15single_threadedEED0Ev,"axG",@progbits,
 1626              		.align 2
 1627              		.weak	_ZN7sigslot12_connection2I10TextEditoriiNS_15single_threadedEED0Ev
 1628              		.type	_ZN7sigslot12_connection2I10TextEditoriiNS_15single_threadedEED0Ev, @function
 1629              	_ZN7sigslot12_connection2I10TextEditoriiNS_15single_threadedEED0Ev:
 1630              	.LFB2145:
 1631              		.loc 1 1735 0
 1632              		.cfi_startproc
 1633              	.LVL132:
 1634 0000 7C0802A6 		mflr 0
 1635 0004 9421FFF8 		stwu 1,-8(1)
 1636              	.LCFI34:
 1637              		.cfi_def_cfa_offset 8
 1638              		.cfi_register 65, 0
 1639              	.LBB2629:
 1640              	.LBB2630:
 1641              	.LBB2631:
 1642              	.LBB2632:
 1643              	.LBB2633:
 1644              	.LBB2634:
 1645              		.loc 1 376 0
 1646 0008 3D200000 		lis 9,_ZTVN7sigslot17_connection_base2IiiNS_15single_threadedEEE+8@ha
 1647              	.LBE2634:
 1648              	.LBE2633:
 1649              	.LBE2632:
 1650              	.LBE2631:
 1651              	.LBE2630:
 1652              	.LBE2629:
 1653              		.loc 1 1735 0
 1654 000c 9001000C 		stw 0,12(1)
 1655              	.LBB2640:
 1656              	.LBB2639:
 1657              	.LBB2638:
 1658              	.LBB2637:
 1659              	.LBB2636:
 1660              	.LBB2635:
 1661              		.loc 1 376 0
 1662 0010 38090008 		la 0,_ZTVN7sigslot17_connection_base2IiiNS_15single_threadedEEE+8@l(9)
 1663              		.cfi_offset 65, 4
 1664 0014 90030000 		stw 0,0(3)
 1665              	.LBE2635:
 1666              	.LBE2636:
 1667              	.LBE2637:
 1668              	.LBE2638:
 1669              	.LBE2639:
 1670              	.LBE2640:
 1671              		.loc 1 1738 0
 1672 0018 48000001 		bl _ZdlPv
 1673              	.LVL133:
 1674 001c 8001000C 		lwz 0,12(1)
 1675 0020 38210008 		addi 1,1,8
 1676              	.LCFI35:
 1677              		.cfi_def_cfa_offset 0
 1678 0024 7C0803A6 		mtlr 0
 1679 0028 4E800020 		blr
 1680              		.cfi_endproc
 1681              	.LFE2145:
 1682              		.size	_ZN7sigslot12_connection2I10TextEditoriiNS_15single_threadedEED0Ev, .-_ZN7sigslot12_connecti
 1683              		.section	.text._ZN7sigslot12_connection3I10TextEditorP9GuiButtoniRK6_POINTNS_15single_threadedEED0
 1684              		.align 2
 1685              		.weak	_ZN7sigslot12_connection3I10TextEditorP9GuiButtoniRK6_POINTNS_15single_threadedEED0Ev
 1686              		.type	_ZN7sigslot12_connection3I10TextEditorP9GuiButtoniRK6_POINTNS_15single_threadedEED0Ev, @func
 1687              	_ZN7sigslot12_connection3I10TextEditorP9GuiButtoniRK6_POINTNS_15single_threadedEED0Ev:
 1688              	.LFB2131:
 1689              		.loc 1 1783 0
 1690              		.cfi_startproc
 1691              	.LVL134:
 1692 0000 7C0802A6 		mflr 0
 1693 0004 9421FFF8 		stwu 1,-8(1)
 1694              	.LCFI36:
 1695              		.cfi_def_cfa_offset 8
 1696              		.cfi_register 65, 0
 1697              	.LBB2641:
 1698              	.LBB2642:
 1699              	.LBB2643:
 1700              	.LBB2644:
 1701              	.LBB2645:
 1702              	.LBB2646:
 1703              		.loc 1 387 0
 1704 0008 3D200000 		lis 9,_ZTVN7sigslot17_connection_base3IP9GuiButtoniRK6_POINTNS_15single_threadedEEE+8@ha
 1705              	.LBE2646:
 1706              	.LBE2645:
 1707              	.LBE2644:
 1708              	.LBE2643:
 1709              	.LBE2642:
 1710              	.LBE2641:
 1711              		.loc 1 1783 0
 1712 000c 9001000C 		stw 0,12(1)
 1713              	.LBB2652:
 1714              	.LBB2651:
 1715              	.LBB2650:
 1716              	.LBB2649:
 1717              	.LBB2648:
 1718              	.LBB2647:
 1719              		.loc 1 387 0
 1720 0010 38090008 		la 0,_ZTVN7sigslot17_connection_base3IP9GuiButtoniRK6_POINTNS_15single_threadedEEE+8@l(9)
 1721              		.cfi_offset 65, 4
 1722 0014 90030000 		stw 0,0(3)
 1723              	.LBE2647:
 1724              	.LBE2648:
 1725              	.LBE2649:
 1726              	.LBE2650:
 1727              	.LBE2651:
 1728              	.LBE2652:
 1729              		.loc 1 1786 0
 1730 0018 48000001 		bl _ZdlPv
 1731              	.LVL135:
 1732 001c 8001000C 		lwz 0,12(1)
 1733 0020 38210008 		addi 1,1,8
 1734              	.LCFI37:
 1735              		.cfi_def_cfa_offset 0
 1736 0024 7C0803A6 		mtlr 0
 1737 0028 4E800020 		blr
 1738              		.cfi_endproc
 1739              	.LFE2131:
 1740              		.size	_ZN7sigslot12_connection3I10TextEditorP9GuiButtoniRK6_POINTNS_15single_threadedEED0Ev, .-_ZN
 1741              		.section	.text._ZN7sigslot17_connection_base3IP9GuiButtoniRK6_POINTNS_15single_threadedEED0Ev,"axG
 1742              		.align 2
 1743              		.weak	_ZN7sigslot17_connection_base3IP9GuiButtoniRK6_POINTNS_15single_threadedEED0Ev
 1744              		.type	_ZN7sigslot17_connection_base3IP9GuiButtoniRK6_POINTNS_15single_threadedEED0Ev, @function
 1745              	_ZN7sigslot17_connection_base3IP9GuiButtoniRK6_POINTNS_15single_threadedEED0Ev:
 1746              	.LFB1843:
 1747              		.loc 1 387 0
 1748              		.cfi_startproc
 1749              	.LVL136:
 1750 0000 7C0802A6 		mflr 0
 1751 0004 9421FFF8 		stwu 1,-8(1)
 1752              	.LCFI38:
 1753              		.cfi_def_cfa_offset 8
 1754              		.cfi_register 65, 0
 1755              	.LBB2653:
 1756              	.LBB2654:
 1757              	.LBB2655:
 1758 0008 3D200000 		lis 9,_ZTVN7sigslot17_connection_base3IP9GuiButtoniRK6_POINTNS_15single_threadedEEE+8@ha
 1759              	.LBE2655:
 1760              	.LBE2654:
 1761              	.LBE2653:
 1762 000c 9001000C 		stw 0,12(1)
 1763              	.LBB2658:
 1764              	.LBB2657:
 1765              	.LBB2656:
 1766              		.loc 1 387 0
 1767 0010 38090008 		la 0,_ZTVN7sigslot17_connection_base3IP9GuiButtoniRK6_POINTNS_15single_threadedEEE+8@l(9)
 1768              		.cfi_offset 65, 4
 1769 0014 90030000 		stw 0,0(3)
 1770              	.LBE2656:
 1771              	.LBE2657:
 1772              	.LBE2658:
 1773 0018 48000001 		bl _ZdlPv
 1774              	.LVL137:
 1775 001c 8001000C 		lwz 0,12(1)
 1776 0020 38210008 		addi 1,1,8
 1777              	.LCFI39:
 1778              		.cfi_def_cfa_offset 0
 1779 0024 7C0803A6 		mtlr 0
 1780 0028 4E800020 		blr
 1781              		.cfi_endproc
 1782              	.LFE1843:
 1783              		.size	_ZN7sigslot17_connection_base3IP9GuiButtoniRK6_POINTNS_15single_threadedEED0Ev, .-_ZN7sigslo
 1784              		.section	.text._ZN7sigslot17_connection_base2IiiNS_15single_threadedEED0Ev,"axG",@progbits,_ZN7sig
 1785              		.align 2
 1786              		.weak	_ZN7sigslot17_connection_base2IiiNS_15single_threadedEED0Ev
 1787              		.type	_ZN7sigslot17_connection_base2IiiNS_15single_threadedEED0Ev, @function
 1788              	_ZN7sigslot17_connection_base2IiiNS_15single_threadedEED0Ev:
 1789              	.LFB1836:
 1790              		.loc 1 376 0
 1791              		.cfi_startproc
 1792              	.LVL138:
 1793 0000 7C0802A6 		mflr 0
 1794 0004 9421FFF8 		stwu 1,-8(1)
 1795              	.LCFI40:
 1796              		.cfi_def_cfa_offset 8
 1797              		.cfi_register 65, 0
 1798              	.LBB2659:
 1799              	.LBB2660:
 1800              	.LBB2661:
 1801 0008 3D200000 		lis 9,_ZTVN7sigslot17_connection_base2IiiNS_15single_threadedEEE+8@ha
 1802              	.LBE2661:
 1803              	.LBE2660:
 1804              	.LBE2659:
 1805 000c 9001000C 		stw 0,12(1)
 1806              	.LBB2664:
 1807              	.LBB2663:
 1808              	.LBB2662:
 1809              		.loc 1 376 0
 1810 0010 38090008 		la 0,_ZTVN7sigslot17_connection_base2IiiNS_15single_threadedEEE+8@l(9)
 1811              		.cfi_offset 65, 4
 1812 0014 90030000 		stw 0,0(3)
 1813              	.LBE2662:
 1814              	.LBE2663:
 1815              	.LBE2664:
 1816 0018 48000001 		bl _ZdlPv
 1817              	.LVL139:
 1818 001c 8001000C 		lwz 0,12(1)
 1819 0020 38210008 		addi 1,1,8
 1820              	.LCFI41:
 1821              		.cfi_def_cfa_offset 0
 1822 0024 7C0803A6 		mtlr 0
 1823 0028 4E800020 		blr
 1824              		.cfi_endproc
 1825              	.LFE1836:
 1826              		.size	_ZN7sigslot17_connection_base2IiiNS_15single_threadedEED0Ev, .-_ZN7sigslot17_connection_base
 1827              		.section	.text._ZN7sigslot15single_threadedD0Ev,"axG",@progbits,_ZN7sigslot15single_threadedD5Ev,c
 1828              		.align 2
 1829              		.weak	_ZN7sigslot15single_threadedD0Ev
 1830              		.type	_ZN7sigslot15single_threadedD0Ev, @function
 1831              	_ZN7sigslot15single_threadedD0Ev:
 1832              	.LFB1150:
 1833              		.loc 1 104 0
 1834              		.cfi_startproc
 1835              	.LVL140:
 1836 0000 7C0802A6 		mflr 0
 1837 0004 9421FFF8 		stwu 1,-8(1)
 1838              	.LCFI42:
 1839              		.cfi_def_cfa_offset 8
 1840              		.cfi_register 65, 0
 1841              	.LBB2665:
 1842              	.LBB2666:
 1843              	.LBB2667:
 1844              		.loc 1 105 0
 1845 0008 3D200000 		lis 9,_ZTVN7sigslot15single_threadedE+8@ha
 1846              	.LBE2667:
 1847              	.LBE2666:
 1848              	.LBE2665:
 1849              		.loc 1 104 0
 1850 000c 9001000C 		stw 0,12(1)
 1851              	.LBB2670:
 1852              	.LBB2669:
 1853              	.LBB2668:
 1854              		.loc 1 105 0
 1855 0010 38090008 		la 0,_ZTVN7sigslot15single_threadedE+8@l(9)
 1856              		.cfi_offset 65, 4
 1857 0014 90030000 		stw 0,0(3)
 1858              	.LBE2668:
 1859              	.LBE2669:
 1860              	.LBE2670:
 1861              		.loc 1 107 0
 1862 0018 48000001 		bl _ZdlPv
 1863              	.LVL141:
 1864 001c 8001000C 		lwz 0,12(1)
 1865 0020 38210008 		addi 1,1,8
 1866              	.LCFI43:
 1867              		.cfi_def_cfa_offset 0
 1868 0024 7C0803A6 		mtlr 0
 1869 0028 4E800020 		blr
 1870              		.cfi_endproc
 1871              	.LFE1150:
 1872              		.size	_ZN7sigslot15single_threadedD0Ev, .-_ZN7sigslot15single_threadedD0Ev
 1873              		.section	".text"
 1874              		.align 2
 1875              		.globl _ZN10TextEditor12OnListChangeEii
 1876              		.type	_ZN10TextEditor12OnListChangeEii, @function
 1877              	_ZN10TextEditor12OnListChangeEii:
 1878              	.LFB1607:
 1879              		.loc 4 265 0
 1880              		.cfi_startproc
 1881              	.LVL142:
 1882 0000 7C0802A6 		mflr 0
 1883 0004 9421FFF8 		stwu 1,-8(1)
 1884              	.LCFI44:
 1885              		.cfi_def_cfa_offset 8
 1886              		.cfi_register 65, 0
 1887              		.loc 4 266 0
 1888 0008 7C842A14 		add 4,4,5
 1889              	.LVL143:
 1890              		.loc 4 265 0
 1891 000c 9001000C 		stw 0,12(1)
 1892              		.loc 4 266 0
 1893 0010 80630114 		lwz 3,276(3)
 1894              	.LVL144:
 1895              		.cfi_offset 65, 4
 1896 0014 48000001 		bl _ZN11GuiLongText11SetTextLineEi
 1897              	.LVL145:
 1898              		.loc 4 267 0
 1899 0018 8001000C 		lwz 0,12(1)
 1900 001c 38210008 		addi 1,1,8
 1901              	.LCFI45:
 1902              		.cfi_def_cfa_offset 0
 1903 0020 7C0803A6 		mtlr 0
 1904 0024 4E800020 		blr
 1905              		.cfi_endproc
 1906              	.LFE1607:
 1907              		.size	_ZN10TextEditor12OnListChangeEii, .-_ZN10TextEditor12OnListChangeEii
 1908              		.align 2
 1909              		.globl _ZN10TextEditor13OnPointerHeldEP9GuiButtoniRK6_POINT
 1910              		.type	_ZN10TextEditor13OnPointerHeldEP9GuiButtoniRK6_POINT, @function
 1911              	_ZN10TextEditor13OnPointerHeldEP9GuiButtoniRK6_POINT:
 1912              	.LFB1606:
 1913              		.loc 4 257 0
 1914              		.cfi_startproc
 1915              	.LVL146:
 1916 0028 7C0802A6 		mflr 0
 1917 002c 9421FFE0 		stwu 1,-32(1)
 1918              	.LCFI46:
 1919              		.cfi_def_cfa_offset 32
 1920              		.cfi_register 65, 0
 1921              		.loc 4 258 0
 1922 0030 3D200000 		lis 9,userInput@ha
 1923 0034 39290000 		la 9,userInput@l(9)
 1924              		.loc 4 257 0
 1925 0038 93C10018 		stw 30,24(1)
 1926 003c 90010024 		stw 0,36(1)
 1927              		.loc 4 258 0
 1928 0040 1C050170 		mulli 0,5,368
 1929              		.cfi_offset 65, 4
 1930              		.cfi_offset 30, -8
 1931              		.loc 4 257 0
 1932 0044 93E1001C 		stw 31,28(1)
 1933 0048 7C7E1B78 		mr 30,3
 1934 004c 93810010 		stw 28,16(1)
 1935 0050 7CBF2B78 		mr 31,5
 1936              		.cfi_offset 28, -16
 1937              		.cfi_offset 31, -4
 1938              		.loc 4 258 0
 1939 0054 7D290214 		add 9,9,0
 1940              		.loc 4 257 0
 1941 0058 93A10014 		stw 29,20(1)
 1942              		.loc 4 258 0
 1943 005c 8129000C 		lwz 9,12(9)
 1944 0060 800900AC 		lwz 0,172(9)
 1945 0064 2F800000 		cmpwi 7,0,0
 1946 0068 41BE0058 		beq+ 7,.L115
 1947              		.cfi_offset 29, -12
 1948              	.LVL147:
 1949              	.LBB2673:
 1950              	.LBB2674:
 1951              		.loc 4 261 0
 1952 006c 806300EC 		lwz 3,236(3)
 1953              	.LVL148:
 1954 0070 83A60000 		lwz 29,0(6)
 1955 0074 81230000 		lwz 9,0(3)
 1956 0078 80090010 		lwz 0,16(9)
 1957 007c 90C10008 		stw 6,8(1)
 1958 0080 7C0903A6 		mtctr 0
 1959 0084 4E800421 		bctrl
 1960              	.LVL149:
 1961 0088 83DE00EC 		lwz 30,236(30)
 1962              	.LVL150:
 1963 008c 7FA3E850 		subf 29,3,29
 1964 0090 80C10008 		lwz 6,8(1)
 1965 0094 813E0000 		lwz 9,0(30)
 1966 0098 7FC3F378 		mr 3,30
 1967 009c 83860004 		lwz 28,4(6)
 1968 00a0 80090014 		lwz 0,20(9)
 1969 00a4 7C0903A6 		mtctr 0
 1970 00a8 4E800421 		bctrl
 1971 00ac 7FE4FB78 		mr 4,31
 1972 00b0 7CC3E050 		subf 6,3,28
 1973 00b4 7FA5EB78 		mr 5,29
 1974 00b8 7FC3F378 		mr 3,30
 1975 00bc 48000001 		bl _ZN11TextPointer15PositionChangedEiii
 1976              	.LVL151:
 1977              	.L115:
 1978              	.LBE2674:
 1979              	.LBE2673:
 1980              		.loc 4 262 0
 1981 00c0 80010024 		lwz 0,36(1)
 1982 00c4 83810010 		lwz 28,16(1)
 1983 00c8 7C0803A6 		mtlr 0
 1984 00cc 83A10014 		lwz 29,20(1)
 1985 00d0 83C10018 		lwz 30,24(1)
 1986 00d4 83E1001C 		lwz 31,28(1)
 1987              	.LVL152:
 1988 00d8 38210020 		addi 1,1,32
 1989              	.LCFI47:
 1990              		.cfi_def_cfa_offset 0
 1991              		.cfi_restore 31
 1992              		.cfi_restore 30
 1993              		.cfi_restore 29
 1994              		.cfi_restore 28
 1995 00dc 4E800020 		blr
 1996              		.cfi_endproc
 1997              	.LFE1606:
 1998              		.size	_ZN10TextEditor13OnPointerHeldEP9GuiButtoniRK6_POINT, .-_ZN10TextEditor13OnPointerHeldEP9Gui
 1999              		.align 2
 2000              		.globl _ZN10TextEditor6UpdateEP10GuiTrigger
 2001              		.type	_ZN10TextEditor6UpdateEP10GuiTrigger, @function
 2002              	_ZN10TextEditor6UpdateEP10GuiTrigger:
 2003              	.LFB1608:
 2004              		.loc 4 270 0
 2005              		.cfi_startproc
 2006              	.LVL153:
 2007 00e0 7C0802A6 		mflr 0
 2008 00e4 9421FFE8 		stwu 1,-24(1)
 2009              	.LCFI48:
 2010              		.cfi_def_cfa_offset 24
 2011              		.cfi_register 65, 0
 2012 00e8 93C10010 		stw 30,16(1)
 2013 00ec 7C9E2378 		mr 30,4
 2014              		.cfi_offset 30, -8
 2015 00f0 9001001C 		stw 0,28(1)
 2016 00f4 93E10014 		stw 31,20(1)
 2017 00f8 7C7F1B78 		mr 31,3
 2018              		.cfi_offset 31, -4
 2019              		.cfi_offset 65, 4
 2020              	.LBB2687:
 2021              		.loc 4 271 0
 2022 00fc 80030048 		lwz 0,72(3)
 2023              	.LBE2687:
 2024              		.loc 4 270 0
 2025 0100 93A1000C 		stw 29,12(1)
 2026              	.LBB2688:
 2027              		.loc 4 271 0
 2028 0104 2F800004 		cmpwi 7,0,4
 2029 0108 419E010C 		beq- 7,.L117
 2030              		.cfi_offset 29, -12
 2031              		.loc 4 271 0 is_stmt 0 discriminator 1
 2032 010c 2F840000 		cmpwi 7,4,0
 2033 0110 419E0104 		beq- 7,.L117
 2034              	.LVL154:
 2035              	.LBE2688:
 2036              	.LBB2689:
 2037              	.LBB2690:
 2038              		.loc 4 274 0 is_stmt 1
 2039 0114 806300E0 		lwz 3,224(3)
 2040              	.LVL155:
 2041 0118 81230000 		lwz 9,0(3)
 2042 011c 800900BC 		lwz 0,188(9)
 2043 0120 7C0903A6 		mtctr 0
 2044 0124 4E800421 		bctrl
 2045              	.LVL156:
 2046              		.loc 4 275 0
 2047 0128 807F00E4 		lwz 3,228(31)
 2048 012c 7FC4F378 		mr 4,30
 2049 0130 81230000 		lwz 9,0(3)
 2050 0134 800900BC 		lwz 0,188(9)
 2051 0138 7C0903A6 		mtctr 0
 2052 013c 4E800421 		bctrl
 2053              		.loc 4 276 0
 2054 0140 807F00E8 		lwz 3,232(31)
 2055 0144 2F830000 		cmpwi 7,3,0
 2056 0148 419E0018 		beq- 7,.L119
 2057              		.loc 4 277 0
 2058 014c 81230000 		lwz 9,0(3)
 2059 0150 7FC4F378 		mr 4,30
 2060 0154 800900BC 		lwz 0,188(9)
 2061 0158 7C0903A6 		mtctr 0
 2062 015c 4E800421 		bctrl
 2063              	.L119:
 2064              	.LBB2691:
 2065              		.loc 4 279 0
 2066 0160 7FC3F378 		mr 3,30
 2067 0164 48000001 		bl _ZN10GuiTrigger5RightEv
 2068 0168 2F830000 		cmpwi 7,3,0
 2069 016c 419E00C4 		beq- 7,.L120
 2070              	.LVL157:
 2071              	.LBB2692:
 2072              		.loc 4 281 0
 2073 0170 801F00D0 		lwz 0,208(31)
 2074 0174 2F800000 		cmpwi 7,0,0
 2075 0178 409D0020 		ble- 7,.L121
 2076 017c 3BA00000 		li 29,0
 2077              	.LVL158:
 2078              	.L122:
 2079              		.loc 4 282 0
 2080 0180 807F0114 		lwz 3,276(31)
 2081              		.loc 4 281 0
 2082 0184 3BBD0001 		addi 29,29,1
 2083              		.loc 4 282 0
 2084 0188 48000001 		bl _ZN11GuiLongText8NextLineEv
 2085              	.LVL159:
 2086              		.loc 4 281 0
 2087 018c 801F00D0 		lwz 0,208(31)
 2088 0190 7F9D0000 		cmpw 7,29,0
 2089 0194 419CFFEC 		blt+ 7,.L122
 2090              	.LVL160:
 2091              	.L121:
 2092              	.LBE2692:
 2093              	.LBE2691:
 2094              		.loc 4 298 0
 2095 0198 807F00EC 		lwz 3,236(31)
 2096 019c 2F830000 		cmpwi 7,3,0
 2097 01a0 419E00CC 		beq- 7,.L126
 2098              		.loc 4 299 0
 2099 01a4 81230000 		lwz 9,0(3)
 2100 01a8 7FC4F378 		mr 4,30
 2101 01ac 800900BC 		lwz 0,188(9)
 2102 01b0 7C0903A6 		mtctr 0
 2103 01b4 4E800421 		bctrl
 2104              	.L127:
 2105              		.loc 4 303 0
 2106 01b8 813F0114 		lwz 9,276(31)
 2107              	.LVL161:
 2108 01bc 807F00E0 		lwz 3,224(31)
 2109              	.LBB2696:
 2110              	.LBB2697:
 2111              	.LBB2698:
 2112              		.file 5 "d:\\devkitpro\\devkitppc\\bin\\../lib/gcc/powerpc-eabi/4.6.3/../../../../powerpc-eabi/inc
 2113              		.loc 5 571 0
 2114 01c0 800900D4 		lwz 0,212(9)
 2115 01c4 808900D8 		lwz 4,216(9)
 2116 01c8 7C802050 		subf 4,0,4
 2117              	.LBE2698:
 2118              	.LBE2697:
 2119              	.LBE2696:
 2120              		.loc 4 303 0
 2121 01cc 3C00AAAA 		lis 0,0xaaaa
 2122 01d0 6000AAAB 		ori 0,0,43691
 2123              	.LBB2701:
 2124              	.LBB2700:
 2125              	.LBB2699:
 2126              		.loc 5 571 0
 2127 01d4 7C841670 		srawi 4,4,2
 2128              	.LBE2699:
 2129              	.LBE2700:
 2130              	.LBE2701:
 2131              		.loc 4 303 0
 2132 01d8 7C8401D6 		mullw 4,4,0
 2133 01dc 48000001 		bl _ZN9Scrollbar14SetEntrieCountEi
 2134              	.LVL162:
 2135              		.loc 4 304 0
 2136 01e0 807F00E0 		lwz 3,224(31)
 2137 01e4 809F00D0 		lwz 4,208(31)
 2138 01e8 48000001 		bl _ZN9Scrollbar11SetPageSizeEi
 2139              		.loc 4 305 0
 2140 01ec 807F00E0 		lwz 3,224(31)
 2141 01f0 38800000 		li 4,0
 2142 01f4 48000001 		bl _ZN9Scrollbar10SetRowSizeEi
 2143              		.loc 4 306 0
 2144 01f8 807F00E0 		lwz 3,224(31)
 2145 01fc 38800000 		li 4,0
 2146 0200 48000001 		bl _ZN9Scrollbar15SetSelectedItemEi
 2147              	.LBE2690:
 2148              		.loc 4 391 0
 2149 0204 813F0114 		lwz 9,276(31)
 2150              	.LBB2704:
 2151              		.loc 4 307 0
 2152 0208 807F00E0 		lwz 3,224(31)
 2153 020c 808900E0 		lwz 4,224(9)
 2154 0210 48000001 		bl _ZN9Scrollbar16SetSelectedIndexEi
 2155              	.LVL163:
 2156              	.L117:
 2157              	.LBE2704:
 2158              	.LBE2689:
 2159              		.loc 4 308 0
 2160 0214 8001001C 		lwz 0,28(1)
 2161 0218 83A1000C 		lwz 29,12(1)
 2162 021c 7C0803A6 		mtlr 0
 2163 0220 83C10010 		lwz 30,16(1)
 2164              	.LVL164:
 2165 0224 83E10014 		lwz 31,20(1)
 2166              	.LVL165:
 2167 0228 38210018 		addi 1,1,24
 2168              		.cfi_remember_state
 2169              	.LCFI49:
 2170              		.cfi_def_cfa_offset 0
 2171              		.cfi_restore 31
 2172              		.cfi_restore 30
 2173              		.cfi_restore 29
 2174 022c 4E800020 		blr
 2175              	.LVL166:
 2176              	.L120:
 2177              	.LCFI50:
 2178              		.cfi_restore_state
 2179              	.LBB2706:
 2180              	.LBB2705:
 2181              	.LBB2702:
 2182              	.LBB2693:
 2183              		.loc 4 284 0
 2184 0230 7FC3F378 		mr 3,30
 2185 0234 48000001 		bl _ZN10GuiTrigger4LeftEv
 2186 0238 2F830000 		cmpwi 7,3,0
 2187 023c 419E004C 		beq- 7,.L123
 2188              	.LVL167:
 2189              	.LBB2694:
 2190              		.loc 4 286 0
 2191 0240 801F00D0 		lwz 0,208(31)
 2192 0244 2F800000 		cmpwi 7,0,0
 2193 0248 40BDFF50 		ble- 7,.L121
 2194 024c 3BA00000 		li 29,0
 2195              	.LVL168:
 2196              	.L124:
 2197              		.loc 4 287 0
 2198 0250 807F0114 		lwz 3,276(31)
 2199              		.loc 4 286 0
 2200 0254 3BBD0001 		addi 29,29,1
 2201              		.loc 4 287 0
 2202 0258 48000001 		bl _ZN11GuiLongText12PreviousLineEv
 2203              	.LVL169:
 2204              		.loc 4 286 0
 2205 025c 801F00D0 		lwz 0,208(31)
 2206 0260 7F9D0000 		cmpw 7,29,0
 2207 0264 419CFFEC 		blt+ 7,.L124
 2208 0268 4BFFFF30 		b .L121
 2209              	.LVL170:
 2210              	.L126:
 2211              	.LBE2694:
 2212              	.LBE2693:
 2213              	.LBE2702:
 2214              		.loc 4 301 0
 2215 026c 807F0114 		lwz 3,276(31)
 2216 0270 7FC4F378 		mr 4,30
 2217 0274 81230000 		lwz 9,0(3)
 2218 0278 800900BC 		lwz 0,188(9)
 2219 027c 7C0903A6 		mtctr 0
 2220 0280 4E800421 		bctrl
 2221 0284 4BFFFF34 		b .L127
 2222              	.L123:
 2223              	.LBB2703:
 2224              	.LBB2695:
 2225              		.loc 4 289 0
 2226 0288 7FC3F378 		mr 3,30
 2227 028c 48000001 		bl _ZN10GuiTrigger4DownEv
 2228 0290 2F830000 		cmpwi 7,3,0
 2229 0294 409E0020 		bne- 7,.L130
 2230              		.loc 4 293 0
 2231 0298 7FC3F378 		mr 3,30
 2232 029c 48000001 		bl _ZN10GuiTrigger2UpEv
 2233 02a0 2F830000 		cmpwi 7,3,0
 2234 02a4 419EFEF4 		beq+ 7,.L121
 2235              		.loc 4 295 0
 2236 02a8 807F0114 		lwz 3,276(31)
 2237 02ac 48000001 		bl _ZN11GuiLongText12PreviousLineEv
 2238 02b0 4BFFFEE8 		b .L121
 2239              	.L130:
 2240              		.loc 4 291 0
 2241 02b4 807F0114 		lwz 3,276(31)
 2242 02b8 48000001 		bl _ZN11GuiLongText8NextLineEv
 2243 02bc 4BFFFEDC 		b .L121
 2244              	.LBE2695:
 2245              	.LBE2703:
 2246              	.LBE2705:
 2247              	.LBE2706:
 2248              		.cfi_endproc
 2249              	.LFE1608:
 2250              		.size	_ZN10TextEditor6UpdateEP10GuiTrigger, .-_ZN10TextEditor6UpdateEP10GuiTrigger
 2251              		.align 2
 2252              		.globl _ZN10TextEditor13WriteTextFileEPKc
 2253              		.type	_ZN10TextEditor13WriteTextFileEPKc, @function
 2254              	_ZN10TextEditor13WriteTextFileEPKc:
 2255              	.LFB1603:
 2256              		.loc 4 181 0
 2257              		.cfi_startproc
 2258              		.cfi_personality 0,__gxx_personality_v0
 2259              		.cfi_lsda 0,.LLSDA1603
 2260              	.LVL171:
 2261 02c0 9421FFE0 		stwu 1,-32(1)
 2262              	.LCFI51:
 2263              		.cfi_def_cfa_offset 32
 2264 02c4 7C0802A6 		mflr 0
 2265 02c8 93C10018 		stw 30,24(1)
 2266 02cc 7C7E1B78 		mr 30,3
 2267              		.cfi_offset 30, -8
 2268              		.cfi_register 65, 0
 2269              	.LBB2735:
 2270              		.loc 4 182 0
 2271 02d0 7C832378 		mr 3,4
 2272              	.LVL172:
 2273 02d4 3C800000 		lis 4,.LC4@ha
 2274              	.LVL173:
 2275 02d8 38840000 		la 4,.LC4@l(4)
 2276              	.LBE2735:
 2277              		.loc 4 181 0
 2278 02dc 93E1001C 		stw 31,28(1)
 2279 02e0 90010024 		stw 0,36(1)
 2280              	.LEHB0:
 2281              	.LBB2760:
 2282              		.loc 4 182 0
 2283              		.cfi_offset 65, 4
 2284              		.cfi_offset 31, -4
 2285 02e4 48000001 		bl fopen
 2286              	.LVL174:
 2287              		.loc 4 183 0
 2288 02e8 7C7F1B79 		mr. 31,3
 2289 02ec 41820074 		beq- 0,.L141
 2290              		.loc 4 189 0
 2291 02f0 809E0114 		lwz 4,276(30)
 2292 02f4 3861000C 		addi 3,1,12
 2293              	.LVL175:
 2294 02f8 81240000 		lwz 9,0(4)
 2295 02fc 800900E0 		lwz 0,224(9)
 2296 0300 7C0903A6 		mtctr 0
 2297 0304 4E800421 		bctrl
 2298              	.LEHE0:
 2299              	.LVL176:
 2300              	.LBB2736:
 2301              	.LBB2737:
 2302              	.LBB2738:
 2303              		.file 6 "d:\\devkitpro\\devkitppc\\bin\\../lib/gcc/powerpc-eabi/4.6.3/../../../../powerpc-eabi/inc
 2304              		.loc 6 288 0
 2305 0308 83C1000C 		lwz 30,12(1)
 2306              	.LVL177:
 2307              	.LBE2738:
 2308              	.LBE2737:
 2309              	.LBE2736:
 2310              		.loc 4 191 0
 2311 030c 7FC3F378 		mr 3,30
 2312 0310 48000001 		bl strlen
 2313 0314 38800001 		li 4,1
 2314 0318 38A30001 		addi 5,3,1
 2315 031c 7FE6FB78 		mr 6,31
 2316 0320 7FC3F378 		mr 3,30
 2317              	.LEHB1:
 2318 0324 48000001 		bl fwrite
 2319              		.loc 4 193 0
 2320 0328 7FE3FB78 		mr 3,31
 2321 032c 48000001 		bl fclose
 2322              	.LEHE1:
 2323              	.LVL178:
 2324              	.LBB2739:
 2325              	.LBB2740:
 2326              	.LBB2741:
 2327              	.LBB2742:
 2328              	.LBB2743:
 2329              	.LBB2744:
 2330              		.loc 6 288 0
 2331 0330 8121000C 		lwz 9,12(1)
 2332              	.LBE2744:
 2333              	.LBE2743:
 2334              	.LBE2742:
 2335              	.LBB2745:
 2336              	.LBB2746:
 2337              		.loc 6 235 0
 2338 0334 3D600000 		lis 11,_ZNSs4_Rep20_S_empty_rep_storageE@ha
 2339 0338 380B0000 		la 0,_ZNSs4_Rep20_S_empty_rep_storageE@l(11)
 2340              	.LBE2746:
 2341              	.LBE2745:
 2342              		.loc 6 534 0
 2343 033c 3869FFF4 		addi 3,9,-12
 2344              	.LVL179:
 2345              	.LBB2755:
 2346              	.LBB2753:
 2347              		.loc 6 235 0
 2348 0340 7F830000 		cmpw 7,3,0
 2349 0344 409E0048 		bne- 7,.L142
 2350              	.LVL180:
 2351              	.L131:
 2352              	.LBE2753:
 2353              	.LBE2755:
 2354              	.LBE2741:
 2355              	.LBE2740:
 2356              	.LBE2739:
 2357              	.LBE2760:
 2358              		.loc 4 194 0
 2359 0348 80010024 		lwz 0,36(1)
 2360 034c 83C10018 		lwz 30,24(1)
 2361 0350 7C0803A6 		mtlr 0
 2362 0354 83E1001C 		lwz 31,28(1)
 2363              	.LVL181:
 2364 0358 38210020 		addi 1,1,32
 2365              		.cfi_remember_state
 2366              	.LCFI52:
 2367              		.cfi_def_cfa_offset 0
 2368              		.cfi_restore 31
 2369              		.cfi_restore 30
 2370 035c 4E800020 		blr
 2371              	.LVL182:
 2372              	.L141:
 2373              	.LCFI53:
 2374              		.cfi_restore_state
 2375              	.LBB2761:
 2376              		.loc 4 185 0
 2377 0360 3C600000 		lis 3,.LC5@ha
 2378              	.LVL183:
 2379 0364 38630004 		la 3,.LC5@l(3)
 2380              	.LEHB2:
 2381 0368 48000001 		bl gettext
 2382 036c 4CC63182 		crxor 6,6,6
 2383 0370 48000001 		bl ShowError
 2384              	.LBE2761:
 2385              		.loc 4 194 0
 2386 0374 80010024 		lwz 0,36(1)
 2387 0378 83C10018 		lwz 30,24(1)
 2388              	.LVL184:
 2389 037c 7C0803A6 		mtlr 0
 2390 0380 83E1001C 		lwz 31,28(1)
 2391              	.LVL185:
 2392 0384 38210020 		addi 1,1,32
 2393              		.cfi_remember_state
 2394              		.cfi_restore 30
 2395              		.cfi_restore 31
 2396              	.LCFI54:
 2397              		.cfi_def_cfa_offset 0
 2398 0388 4E800020 		blr
 2399              	.LVL186:
 2400              	.L142:
 2401              	.LCFI55:
 2402              		.cfi_restore_state
 2403              	.LBB2762:
 2404              	.LBB2759:
 2405              	.LBB2758:
 2406              	.LBB2757:
 2407              	.LBB2756:
 2408              	.LBB2754:
 2409              	.LBB2747:
 2410              	.LBB2748:
 2411              	.LBB2749:
 2412              		.file 7 "d:\\devkitpro\\devkitppc\\bin\\../lib/gcc/powerpc-eabi/4.6.3/../../../../powerpc-eabi/inc
 2413              		.loc 7 66 0
 2414 038c 8169FFFC 		lwz 11,-4(9)
 2415              	.LVL187:
 2416              	.LBE2749:
 2417              	.LBE2748:
 2418              	.LBE2747:
 2419              		.loc 6 240 0
 2420 0390 2F8B0000 		cmpwi 7,11,0
 2421              	.LBB2752:
 2422              	.LBB2751:
 2423              	.LBB2750:
 2424              		.loc 7 67 0
 2425 0394 396BFFFF 		addi 11,11,-1
 2426 0398 9169FFFC 		stw 11,-4(9)
 2427              	.LBE2750:
 2428              	.LBE2751:
 2429              	.LBE2752:
 2430              		.loc 6 240 0
 2431 039c 419DFFAC 		bgt+ 7,.L131
 2432              		.loc 6 244 0
 2433 03a0 38810008 		addi 4,1,8
 2434 03a4 48000001 		bl _ZNSs4_Rep10_M_destroyERKSaIcE
 2435              	.LVL188:
 2436 03a8 4BFFFFA0 		b .L131
 2437              	.LVL189:
 2438              	.L140:
 2439 03ac 7C7F1B78 		mr 31,3
 2440              	.LVL190:
 2441              	.LBE2754:
 2442              	.LBE2756:
 2443              	.LBE2757:
 2444              	.LBE2758:
 2445              	.LBE2759:
 2446              		.loc 4 193 0
 2447 03b0 3861000C 		addi 3,1,12
 2448              	.LVL191:
 2449 03b4 48000001 		bl _ZNSsD1Ev
 2450              	.LVL192:
 2451 03b8 7FE3FB78 		mr 3,31
 2452 03bc 48000001 		bl _Unwind_Resume
 2453              	.LEHE2:
 2454              	.LBE2762:
 2455              		.cfi_endproc
 2456              	.LFE1603:
 2457              		.globl __gxx_personality_v0
 2458              		.section	.gcc_except_table,"a",@progbits
 2459              	.LLSDA1603:
 2460 0000 FF       		.byte	0xff
 2461 0001 FF       		.byte	0xff
 2462 0002 01       		.byte	0x1
 2463 0003 0E       		.uleb128 .LLSDACSE1603-.LLSDACSB1603
 2464              	.LLSDACSB1603:
 2465 0004 24       		.uleb128 .LEHB0-.LFB1603
 2466 0005 24       		.uleb128 .LEHE0-.LEHB0
 2467 0006 00       		.uleb128 0
 2468 0007 00       		.uleb128 0
 2469 0008 64       		.uleb128 .LEHB1-.LFB1603
 2470 0009 0C       		.uleb128 .LEHE1-.LEHB1
 2471 000a EC01     		.uleb128 .L140-.LFB1603
 2472 000c 00       		.uleb128 0
 2473 000d A801     		.uleb128 .LEHB2-.LFB1603
 2474 000f 58       		.uleb128 .LEHE2-.LEHB2
 2475 0010 00       		.uleb128 0
 2476 0011 00       		.uleb128 0
 2477              	.LLSDACSE1603:
 2478              		.section	".text"
 2479              		.size	_ZN10TextEditor13WriteTextFileEPKc, .-_ZN10TextEditor13WriteTextFileEPKc
 2480              		.align 2
 2481              		.globl _ZN10TextEditor8EditLineEv
 2482              		.type	_ZN10TextEditor8EditLineEv, @function
 2483              	_ZN10TextEditor8EditLineEv:
 2484              	.LFB1604:
 2485              		.loc 4 197 0
 2486              		.cfi_startproc
 2487              	.LVL193:
 2488 03c0 7C0802A6 		mflr 0
 2489 03c4 9421FD78 		stwu 1,-648(1)
 2490              	.LCFI56:
 2491              		.cfi_def_cfa_offset 648
 2492              		.cfi_register 65, 0
 2493 03c8 93C10280 		stw 30,640(1)
 2494 03cc 9001028C 		stw 0,652(1)
 2495 03d0 93610274 		stw 27,628(1)
 2496              	.LBB2768:
 2497              		.loc 4 201 0
 2498 03d4 3B60FFFF 		li 27,-1
 2499              		.cfi_offset 27, -20
 2500              		.cfi_offset 65, 4
 2501              		.cfi_offset 30, -8
 2502              		.loc 4 198 0
 2503 03d8 812300EC 		lwz 9,236(3)
 2504              	.LBE2768:
 2505              		.loc 4 197 0
 2506 03dc 93E10284 		stw 31,644(1)
 2507 03e0 7C7F1B78 		mr 31,3
 2508              		.cfi_offset 31, -4
 2509              	.LBB2779:
 2510              		.loc 4 391 0
 2511 03e4 83C90140 		lwz 30,320(9)
 2512              	.LBE2779:
 2513              		.loc 4 197 0
 2514 03e8 93010268 		stw 24,616(1)
 2515              	.LBB2780:
 2516              		.loc 4 200 0
 2517 03ec 2F9E0000 		cmpwi 7,30,0
 2518              	.LBE2780:
 2519              		.loc 4 197 0
 2520 03f0 9321026C 		stw 25,620(1)
 2521 03f4 93410270 		stw 26,624(1)
 2522 03f8 93810278 		stw 28,632(1)
 2523 03fc 93A1027C 		stw 29,636(1)
 2524              	.LBB2781:
 2525              		.loc 4 200 0
 2526 0400 419C00CC 		blt- 7,.L144
 2527              		.cfi_offset 29, -12
 2528              		.cfi_offset 28, -16
 2529              		.cfi_offset 26, -24
 2530              		.cfi_offset 25, -28
 2531              		.cfi_offset 24, -32
 2532              		.loc 4 200 0 is_stmt 0 discriminator 1
 2533 0404 800300D0 		lwz 0,208(3)
 2534 0408 7F9E0000 		cmpw 7,30,0
 2535 040c 409C00C0 		bge- 7,.L144
 2536              		.loc 4 205 0 is_stmt 1
 2537 0410 80630114 		lwz 3,276(3)
 2538              	.LVL194:
 2539              		.loc 4 391 0
 2540 0414 8389014C 		lwz 28,332(9)
 2541              	.LVL195:
 2542 0418 834300D0 		lwz 26,208(3)
 2543              		.loc 4 206 0
 2544 041c 2F9A0000 		cmpwi 7,26,0
 2545 0420 419E00AC 		beq- 7,.L144
 2546              		.loc 4 209 0
 2547 0424 81230000 		lwz 9,0(3)
 2548 0428 7FC4F378 		mr 4,30
 2549 042c 800900E8 		lwz 0,232(9)
 2550 0430 7C0903A6 		mtctr 0
 2551 0434 4E800421 		bctrl
 2552              	.LVL196:
 2553              		.loc 4 210 0
 2554 0438 7C791B79 		mr. 25,3
 2555 043c 41820090 		beq- 0,.L144
 2556              		.loc 4 214 0
 2557 0440 3BA10008 		addi 29,1,8
 2558 0444 38A00258 		li 5,600
 2559 0448 38800000 		li 4,0
 2560 044c 7FA3EB78 		mr 3,29
 2561              	.LVL197:
 2562 0450 48000001 		bl memset
 2563              		.loc 4 216 0
 2564 0454 807F0114 		lwz 3,276(31)
 2565 0458 808300E0 		lwz 4,224(3)
 2566 045c 7C9E2214 		add 4,30,4
 2567 0460 48000001 		bl _ZN11GuiLongText13GetLineOffsetEi
 2568              		.loc 4 218 0
 2569 0464 7F24CB78 		mr 4,25
 2570 0468 7F85E378 		mr 5,28
 2571              		.loc 4 216 0
 2572 046c 7C781B78 		mr 24,3
 2573              	.LVL198:
 2574              		.loc 4 218 0
 2575 0470 7FA3EB78 		mr 3,29
 2576              	.LVL199:
 2577 0474 48000001 		bl wcsncpy
 2578              		.loc 4 219 0
 2579 0478 5780103A 		slwi 0,28,2
 2580 047c 39200000 		li 9,0
 2581              		.loc 4 221 0
 2582 0480 7FA3EB78 		mr 3,29
 2583 0484 38800096 		li 4,150
 2584              		.loc 4 219 0
 2585 0488 7D3D012E 		stwx 9,29,0
 2586              		.loc 4 221 0
 2587 048c 48000001 		bl _Z16OnScreenKeyboardPwt
 2588              		.loc 4 222 0
 2589 0490 2F830001 		cmpwi 7,3,1
 2590              		.loc 4 221 0
 2591 0494 7C7E1B78 		mr 30,3
 2592              	.LVL200:
 2593              		.loc 4 222 0
 2594 0498 409E0034 		bne- 7,.L144
 2595              	.LVL201:
 2596              	.LBB2769:
 2597              	.LBB2770:
 2598              	.LBB2771:
 2599              	.LBB2772:
 2600              		.file 8 "d:\\devkitpro\\devkitppc\\bin\\../lib/gcc/powerpc-eabi/4.6.3/../../../../powerpc-eabi/inc
 2601              		.loc 8 332 0
 2602 049c 7FA3EB78 		mr 3,29
 2603              	.LVL202:
 2604              	.LBE2772:
 2605              	.LBE2771:
 2606              	.LBE2770:
 2607              	.LBE2769:
 2608              		.loc 4 227 0
 2609 04a0 3B600001 		li 27,1
 2610              	.LBB2778:
 2611              	.LBB2777:
 2612              	.LBB2775:
 2613              	.LBB2773:
 2614              		.loc 8 332 0
 2615 04a4 48000001 		bl wcslen
 2616              	.LBE2773:
 2617              	.LBE2775:
 2618              		.loc 6 1470 0
 2619 04a8 7F04C378 		mr 4,24
 2620              	.LBB2776:
 2621              	.LBB2774:
 2622              		.loc 8 332 0
 2623 04ac 7C671B78 		mr 7,3
 2624              	.LBE2774:
 2625              	.LBE2776:
 2626              		.loc 6 1470 0
 2627 04b0 7F85E378 		mr 5,28
 2628 04b4 7FA6EB78 		mr 6,29
 2629 04b8 7F43D378 		mr 3,26
 2630 04bc 48000001 		bl _ZNSbIwSt11char_traitsIwESaIwEE7replaceEjjPKwj
 2631              	.LBE2777:
 2632              	.LBE2778:
 2633              		.loc 4 225 0
 2634 04c0 807F0114 		lwz 3,276(31)
 2635 04c4 48000001 		bl _ZN11GuiLongText7RefreshEv
 2636              		.loc 4 226 0
 2637 04c8 9BDF00CD 		stb 30,205(31)
 2638              	.LVL203:
 2639              	.L144:
 2640              	.LBE2781:
 2641              		.loc 4 231 0
 2642 04cc 8001028C 		lwz 0,652(1)
 2643 04d0 7F63DB78 		mr 3,27
 2644 04d4 83010268 		lwz 24,616(1)
 2645 04d8 7C0803A6 		mtlr 0
 2646 04dc 8321026C 		lwz 25,620(1)
 2647 04e0 83410270 		lwz 26,624(1)
 2648 04e4 83610274 		lwz 27,628(1)
 2649 04e8 83810278 		lwz 28,632(1)
 2650 04ec 83A1027C 		lwz 29,636(1)
 2651 04f0 83C10280 		lwz 30,640(1)
 2652 04f4 83E10284 		lwz 31,644(1)
 2653              	.LVL204:
 2654 04f8 38210288 		addi 1,1,648
 2655              	.LCFI57:
 2656              		.cfi_def_cfa_offset 0
 2657              		.cfi_restore 31
 2658              		.cfi_restore 30
 2659              		.cfi_restore 29
 2660              		.cfi_restore 28
 2661              		.cfi_restore 27
 2662              		.cfi_restore 26
 2663              		.cfi_restore 25
 2664              		.cfi_restore 24
 2665 04fc 4E800020 		blr
 2666              		.cfi_endproc
 2667              	.LFE1604:
 2668              		.size	_ZN10TextEditor8EditLineEv, .-_ZN10TextEditor8EditLineEv
 2669              		.align 2
 2670              		.globl _ZN10TextEditor13OnButtonClickEP9GuiButtoniRK6_POINT
 2671              		.type	_ZN10TextEditor13OnButtonClickEP9GuiButtoniRK6_POINT, @function
 2672              	_ZN10TextEditor13OnButtonClickEP9GuiButtoniRK6_POINT:
 2673              	.LFB1605:
 2674              		.loc 4 234 0
 2675              		.cfi_startproc
 2676              		.cfi_personality 0,__gxx_personality_v0
 2677              		.cfi_lsda 0,.LLSDA1605
 2678              	.LVL205:
 2679 0500 7C0802A6 		mflr 0
 2680 0504 9421FFE0 		stwu 1,-32(1)
 2681              	.LCFI58:
 2682              		.cfi_def_cfa_offset 32
 2683              		.cfi_register 65, 0
 2684 0508 93E1001C 		stw 31,28(1)
 2685 050c 7C7F1B78 		mr 31,3
 2686              		.cfi_offset 31, -4
 2687 0510 90010024 		stw 0,36(1)
 2688 0514 9361000C 		stw 27,12(1)
 2689              	.LBB2789:
 2690              		.loc 4 235 0
 2691 0518 800300E4 		lwz 0,228(3)
 2692              		.cfi_offset 27, -20
 2693              		.cfi_offset 65, 4
 2694              	.LBE2789:
 2695              		.loc 4 234 0
 2696 051c 93810010 		stw 28,16(1)
 2697              	.LBB2790:
 2698              		.loc 4 235 0
 2699 0520 7F802000 		cmpw 7,0,4
 2700              	.LBE2790:
 2701              		.loc 4 234 0
 2702 0524 93A10014 		stw 29,20(1)
 2703 0528 93C10018 		stw 30,24(1)
 2704              	.LBB2791:
 2705              		.loc 4 235 0
 2706 052c 419E0034 		beq- 7,.L159
 2707              		.cfi_offset 30, -8
 2708              		.cfi_offset 29, -12
 2709              		.cfi_offset 28, -16
 2710              		.loc 4 250 0
 2711 0530 800300E8 		lwz 0,232(3)
 2712 0534 7F802000 		cmpw 7,0,4
 2713 0538 419E0074 		beq- 7,.L160
 2714              	.LVL206:
 2715              	.L150:
 2716              	.LBE2791:
 2717              		.loc 4 254 0
 2718 053c 80010024 		lwz 0,36(1)
 2719 0540 8361000C 		lwz 27,12(1)
 2720 0544 7C0803A6 		mtlr 0
 2721 0548 83810010 		lwz 28,16(1)
 2722 054c 83A10014 		lwz 29,20(1)
 2723 0550 83C10018 		lwz 30,24(1)
 2724 0554 83E1001C 		lwz 31,28(1)
 2725              	.LVL207:
 2726 0558 38210020 		addi 1,1,32
 2727              		.cfi_remember_state
 2728              	.LCFI59:
 2729              		.cfi_def_cfa_offset 0
 2730              		.cfi_restore 31
 2731              		.cfi_restore 30
 2732              		.cfi_restore 29
 2733              		.cfi_restore 28
 2734              		.cfi_restore 27
 2735 055c 4E800020 		blr
 2736              	.LVL208:
 2737              	.L159:
 2738              	.LCFI60:
 2739              		.cfi_restore_state
 2740              	.LBB2792:
 2741              	.LBB2793:
 2742              	.LBB2794:
 2743              		.loc 4 238 0
 2744 0560 880300CD 		lbz 0,205(3)
 2745 0564 2F800000 		cmpwi 7,0,0
 2746 0568 409E0080 		bne- 7,.L161
 2747              	.LVL209:
 2748              	.L157:
 2749              		.loc 4 246 0
 2750 056c 813F0000 		lwz 9,0(31)
 2751 0570 7FE3FB78 		mr 3,31
 2752 0574 38800021 		li 4,33
 2753 0578 38A00032 		li 5,50
 2754 057c 80090088 		lwz 0,136(9)
 2755 0580 38C00000 		li 6,0
 2756              	.LBB2795:
 2757              	.LBB2796:
 2758              		.file 9 "d:/Projects/SaveGameManager/savegame-manager-gx/trunk/source/TextOperations/../Controls/A
 2759              		.loc 9 27 0
 2760 0584 3FA00000 		lis 29,_ZN11Application8instanceE@ha
 2761              	.LBE2796:
 2762              	.LBE2795:
 2763              		.loc 4 246 0
 2764 0588 7C0903A6 		mtctr 0
 2765              	.LEHB3:
 2766 058c 4E800421 		bctrl
 2767              	.LBB2800:
 2768              	.LBB2797:
 2769              		.loc 9 27 0
 2770 0590 83DD0000 		lwz 30,_ZN11Application8instanceE@l(29)
 2771 0594 2F9E0000 		cmpwi 7,30,0
 2772 0598 419E0038 		beq- 7,.L162
 2773              	.L155:
 2774              	.LBE2797:
 2775              	.LBE2800:
 2776              		.loc 4 247 0
 2777 059c 7FC3F378 		mr 3,30
 2778 05a0 7FE4FB78 		mr 4,31
 2779 05a4 48000001 		bl _ZN11Application13PushForDeleteEP10GuiElement
 2780 05a8 4BFFFF94 		b .L150
 2781              	.LVL210:
 2782              	.L160:
 2783              	.LBE2794:
 2784              	.LBE2793:
 2785              	.LBE2792:
 2786              		.loc 4 254 0
 2787 05ac 80010024 		lwz 0,36(1)
 2788 05b0 8361000C 		lwz 27,12(1)
 2789 05b4 83810010 		lwz 28,16(1)
 2790 05b8 7C0803A6 		mtlr 0
 2791 05bc 83A10014 		lwz 29,20(1)
 2792 05c0 83C10018 		lwz 30,24(1)
 2793 05c4 83E1001C 		lwz 31,28(1)
 2794              	.LVL211:
 2795 05c8 38210020 		addi 1,1,32
 2796              		.cfi_remember_state
 2797              	.LCFI61:
 2798              		.cfi_def_cfa_offset 0
 2799              		.cfi_restore 31
 2800              		.cfi_restore 30
 2801              		.cfi_restore 29
 2802              		.cfi_restore 28
 2803              		.cfi_restore 27
 2804              	.LBB2805:
 2805              		.loc 4 252 0
 2806 05cc 48000000 		b _ZN10TextEditor8EditLineEv
 2807              	.LVL212:
 2808              	.L162:
 2809              	.LCFI62:
 2810              		.cfi_restore_state
 2811              	.LBE2805:
 2812              	.LBB2806:
 2813              	.LBB2804:
 2814              	.LBB2803:
 2815              	.LBB2801:
 2816              	.LBB2798:
 2817              		.loc 9 27 0
 2818 05d0 38600278 		li 3,632
 2819 05d4 48000001 		bl _Znwj
 2820              	.LEHE3:
 2821 05d8 7C7E1B78 		mr 30,3
 2822              	.LEHB4:
 2823 05dc 48000001 		bl _ZN11ApplicationC1Ev
 2824              	.LEHE4:
 2825 05e0 93DD0000 		stw 30,_ZN11Application8instanceE@l(29)
 2826 05e4 4BFFFFB8 		b .L155
 2827              	.LVL213:
 2828              	.L161:
 2829              	.LBE2798:
 2830              	.LBE2801:
 2831              		.loc 4 240 0
 2832 05e8 3C600000 		lis 3,.LC6@ha
 2833 05ec 38630020 		la 3,.LC6@l(3)
 2834              	.LEHB5:
 2835 05f0 48000001 		bl gettext
 2836              	.LVL214:
 2837 05f4 7C7B1B78 		mr 27,3
 2838 05f8 3C600000 		lis 3,.LC7@ha
 2839 05fc 38630034 		la 3,.LC7@l(3)
 2840 0600 48000001 		bl gettext
 2841 0604 7C7C1B78 		mr 28,3
 2842 0608 3C600000 		lis 3,.LC8@ha
 2843 060c 38630054 		la 3,.LC8@l(3)
 2844 0610 48000001 		bl gettext
 2845 0614 7C7D1B78 		mr 29,3
 2846 0618 3C600000 		lis 3,.LC9@ha
 2847 061c 38630058 		la 3,.LC9@l(3)
 2848 0620 48000001 		bl gettext
 2849 0624 7C7E1B78 		mr 30,3
 2850 0628 3C600000 		lis 3,.LC10@ha
 2851 062c 3863005C 		la 3,.LC10@l(3)
 2852 0630 48000001 		bl gettext
 2853 0634 7F84E378 		mr 4,28
 2854 0638 7C671B78 		mr 7,3
 2855 063c 7FA5EB78 		mr 5,29
 2856 0640 7F63DB78 		mr 3,27
 2857 0644 7FC6F378 		mr 6,30
 2858 0648 39000000 		li 8,0
 2859 064c 48000001 		bl _Z12WindowPromptPKcS0_S0_S0_S0_S0_
 2860              	.LVL215:
 2861              		.loc 4 241 0
 2862 0650 2F830001 		cmpwi 7,3,1
 2863 0654 419E0010 		beq- 7,.L163
 2864              		.loc 4 244 0
 2865 0658 2F830000 		cmpwi 7,3,0
 2866 065c 419EFEE0 		beq+ 7,.L150
 2867 0660 4BFFFF0C 		b .L157
 2868              	.L163:
 2869              		.loc 4 242 0
 2870 0664 809F00D8 		lwz 4,216(31)
 2871 0668 7FE3FB78 		mr 3,31
 2872              	.LVL216:
 2873 066c 48000001 		bl _ZN10TextEditor13WriteTextFileEPKc
 2874 0670 4BFFFEFC 		b .L157
 2875              	.L158:
 2876 0674 7C7F1B78 		mr 31,3
 2877              	.LVL217:
 2878              	.LBB2802:
 2879              	.LBB2799:
 2880              		.loc 9 27 0
 2881 0678 7FC3F378 		mr 3,30
 2882 067c 48000001 		bl _ZdlPv
 2883 0680 7FE3FB78 		mr 3,31
 2884 0684 48000001 		bl _Unwind_Resume
 2885              	.LEHE5:
 2886              	.LBE2799:
 2887              	.LBE2802:
 2888              	.LBE2803:
 2889              	.LBE2804:
 2890              	.LBE2806:
 2891              		.cfi_endproc
 2892              	.LFE1605:
 2893              		.section	.gcc_except_table
 2894              	.LLSDA1605:
 2895 0012 FF       		.byte	0xff
 2896 0013 FF       		.byte	0xff
 2897 0014 01       		.byte	0x1
 2898 0015 11       		.uleb128 .LLSDACSE1605-.LLSDACSB1605
 2899              	.LLSDACSB1605:
 2900 0016 8C01     		.uleb128 .LEHB3-.LFB1605
 2901 0018 4C       		.uleb128 .LEHE3-.LEHB3
 2902 0019 00       		.uleb128 0
 2903 001a 00       		.uleb128 0
 2904 001b DC01     		.uleb128 .LEHB4-.LFB1605
 2905 001d 04       		.uleb128 .LEHE4-.LEHB4
 2906 001e F402     		.uleb128 .L158-.LFB1605
 2907 0020 00       		.uleb128 0
 2908 0021 F001     		.uleb128 .LEHB5-.LFB1605
 2909 0023 9801     		.uleb128 .LEHE5-.LEHB5
 2910 0025 00       		.uleb128 0
 2911 0026 00       		.uleb128 0
 2912              	.LLSDACSE1605:
 2913              		.section	".text"
 2914              		.size	_ZN10TextEditor13OnButtonClickEP9GuiButtoniRK6_POINT, .-_ZN10TextEditor13OnButtonClickEP9Gui
 2915              		.section	.text._ZNSt6vectorIP10GuiElementSaIS1_EE13_M_insert_auxEN9__gnu_cxx17__normal_iteratorIPS
 2916              		.align 2
 2917              		.weak	_ZNSt6vectorIP10GuiElementSaIS1_EE13_M_insert_auxEN9__gnu_cxx17__normal_iteratorIPS1_S3_EERK
 2918              		.type	_ZNSt6vectorIP10GuiElementSaIS1_EE13_M_insert_auxEN9__gnu_cxx17__normal_iteratorIPS1_S3_EERK
 2919              	_ZNSt6vectorIP10GuiElementSaIS1_EE13_M_insert_auxEN9__gnu_cxx17__normal_iteratorIPS1_S3_EERKS1_:
 2920              	.LFB1735:
 2921              		.file 10 "d:\\devkitpro\\devkitppc\\bin\\../lib/gcc/powerpc-eabi/4.6.3/../../../../powerpc-eabi/in
 2922              		.loc 10 300 0
 2923              		.cfi_startproc
 2924              	.LVL218:
 2925 0000 7C0802A6 		mflr 0
 2926 0004 9421FFD8 		stwu 1,-40(1)
 2927              	.LCFI63:
 2928              		.cfi_def_cfa_offset 40
 2929              		.cfi_register 65, 0
 2930 0008 93610014 		stw 27,20(1)
 2931 000c 9001002C 		stw 0,44(1)
 2932 0010 93C10020 		stw 30,32(1)
 2933              	.LBB2869:
 2934              		.loc 10 304 0
 2935 0014 83630004 		lwz 27,4(3)
 2936              		.cfi_offset 30, -8
 2937              		.cfi_offset 65, 4
 2938              		.cfi_offset 27, -20
 2939 0018 80030008 		lwz 0,8(3)
 2940              	.LBE2869:
 2941              		.loc 10 300 0
 2942 001c 93E10024 		stw 31,36(1)
 2943 0020 7C7F1B78 		mr 31,3
 2944              		.cfi_offset 31, -4
 2945              	.LBB2994:
 2946              		.loc 10 304 0
 2947 0024 7F9B0000 		cmpw 7,27,0
 2948              	.LBE2994:
 2949              		.loc 10 300 0
 2950 0028 93410010 		stw 26,16(1)
 2951 002c 93810018 		stw 28,24(1)
 2952 0030 93A1001C 		stw 29,28(1)
 2953              		.loc 10 300 0
 2954 0034 83C40000 		lwz 30,0(4)
 2955              	.LVL219:
 2956              	.LBB2995:
 2957              		.loc 10 304 0
 2958 0038 419E0078 		beq- 7,.L165
 2959              		.cfi_offset 29, -12
 2960              		.cfi_offset 28, -16
 2961              		.cfi_offset 26, -24
 2962              	.LVL220:
 2963              	.LBB2870:
 2964              	.LBB2871:
 2965              	.LBB2872:
 2966              		.file 11 "d:\\devkitpro\\devkitppc\\bin\\../lib/gcc/powerpc-eabi/4.6.3/../../../../powerpc-eabi/in
 2967              		.loc 11 108 0
 2968 003c 2F9B0000 		cmpwi 7,27,0
 2969 0040 38600000 		li 3,0
 2970              	.LVL221:
 2971 0044 419E0010 		beq- 7,.L166
 2972 0048 801BFFFC 		lwz 0,-4(27)
 2973 004c 901B0000 		stw 0,0(27)
 2974 0050 807F0004 		lwz 3,4(31)
 2975              	.L166:
 2976              	.LBE2872:
 2977              	.LBE2871:
 2978              		.loc 10 313 0
 2979 0054 3803FFFC 		addi 0,3,-4
 2980              		.loc 10 309 0
 2981 0058 39230004 		addi 9,3,4
 2982              	.LBB2873:
 2983              	.LBB2874:
 2984              	.LBB2875:
 2985              	.LBB2876:
 2986              	.LBB2877:
 2987              	.LBB2878:
 2988              		.file 12 "d:\\devkitpro\\devkitppc\\bin\\../lib/gcc/powerpc-eabi/4.6.3/../../../../powerpc-eabi/in
 2989              		.loc 12 559 0
 2990 005c 7C1E0050 		subf 0,30,0
 2991              	.LBE2878:
 2992              	.LBE2877:
 2993              	.LBE2876:
 2994              	.LBE2875:
 2995              	.LBE2874:
 2996              	.LBE2873:
 2997              		.loc 10 309 0
 2998 0060 913F0004 		stw 9,4(31)
 2999              	.LBB2894:
 3000              	.LBB2891:
 3001              	.LBB2888:
 3002              	.LBB2885:
 3003              	.LBB2882:
 3004              	.LBB2879:
 3005              		.loc 12 560 0
 3006 0064 7C001671 		srawi. 0,0,2
 3007              	.LBE2879:
 3008              	.LBE2882:
 3009              	.LBE2885:
 3010              	.LBE2888:
 3011              	.LBE2891:
 3012              	.LBE2894:
 3013              		.loc 10 311 0
 3014 0068 83E50000 		lwz 31,0(5)
 3015              	.LVL222:
 3016              	.LBB2895:
 3017              	.LBB2892:
 3018              	.LBB2889:
 3019              	.LBB2886:
 3020              	.LBB2883:
 3021              	.LBB2880:
 3022              		.loc 12 560 0
 3023 006c 40820030 		bne- 0,.L181
 3024              	.LVL223:
 3025              	.L167:
 3026              	.LBE2880:
 3027              	.LBE2883:
 3028              	.LBE2886:
 3029              	.LBE2889:
 3030              	.LBE2892:
 3031              	.LBE2895:
 3032              	.LBE2870:
 3033              	.LBE2995:
 3034              		.loc 10 373 0
 3035 0070 8001002C 		lwz 0,44(1)
 3036              	.LBB2996:
 3037              	.LBB2897:
 3038              		.loc 10 317 0
 3039 0074 93FE0000 		stw 31,0(30)
 3040              	.LBE2897:
 3041              	.LBE2996:
 3042              		.loc 10 373 0
 3043 0078 7C0803A6 		mtlr 0
 3044 007c 83410010 		lwz 26,16(1)
 3045 0080 83610014 		lwz 27,20(1)
 3046              	.LVL224:
 3047 0084 83810018 		lwz 28,24(1)
 3048 0088 83A1001C 		lwz 29,28(1)
 3049 008c 83C10020 		lwz 30,32(1)
 3050              	.LVL225:
 3051 0090 83E10024 		lwz 31,36(1)
 3052              	.LVL226:
 3053 0094 38210028 		addi 1,1,40
 3054              		.cfi_remember_state
 3055              	.LCFI64:
 3056              		.cfi_def_cfa_offset 0
 3057              		.cfi_restore 31
 3058              		.cfi_restore 30
 3059              		.cfi_restore 29
 3060              		.cfi_restore 28
 3061              		.cfi_restore 27
 3062              		.cfi_restore 26
 3063 0098 4E800020 		blr
 3064              	.LVL227:
 3065              	.L181:
 3066              	.LCFI65:
 3067              		.cfi_restore_state
 3068              	.LBB2997:
 3069              	.LBB2898:
 3070              	.LBB2896:
 3071              	.LBB2893:
 3072              	.LBB2890:
 3073              	.LBB2887:
 3074              	.LBB2884:
 3075              	.LBB2881:
 3076              		.loc 12 561 0
 3077 009c 5405103A 		slwi 5,0,2
 3078              	.LVL228:
 3079 00a0 7FC4F378 		mr 4,30
 3080 00a4 7C651850 		subf 3,5,3
 3081              	.LVL229:
 3082 00a8 48000001 		bl memmove
 3083              	.LVL230:
 3084 00ac 4BFFFFC4 		b .L167
 3085              	.LVL231:
 3086              	.L165:
 3087              	.LBE2881:
 3088              	.LBE2884:
 3089              	.LBE2887:
 3090              	.LBE2890:
 3091              	.LBE2893:
 3092              	.LBE2896:
 3093              	.LBE2898:
 3094              	.LBB2899:
 3095              	.LBB2900:
 3096              	.LBB2901:
 3097              	.LBB2902:
 3098              	.LBB2903:
 3099              		.loc 5 571 0
 3100 00b0 83830000 		lwz 28,0(3)
 3101 00b4 7F7CD850 		subf 27,28,27
 3102              	.LBE2903:
 3103              	.LBE2902:
 3104              	.LBB2904:
 3105              	.LBB2905:
 3106              		.loc 12 215 0
 3107 00b8 7F7B1671 		srawi. 27,27,2
 3108 00bc 418200E8 		beq- 0,.L169
 3109              	.LBE2905:
 3110              	.LBE2904:
 3111              		.loc 5 1244 0
 3112 00c0 5760083C 		slwi 0,27,1
 3113              	.LVL232:
 3114              		.loc 5 1245 0
 3115 00c4 7F9B0040 		cmplw 7,27,0
 3116 00c8 409D00EC 		ble- 7,.L182
 3117              	.L170:
 3118              	.LVL233:
 3119              	.LBE2901:
 3120              	.LBE2900:
 3121              	.LBB2908:
 3122              	.LBB2909:
 3123              		.file 13 "d:\\devkitpro\\devkitppc\\bin\\../lib/gcc/powerpc-eabi/4.6.3/../../../../powerpc-eabi/in
 3124              		.loc 13 892 0
 3125 00cc 7F9CF050 		subf 28,28,30
 3126              	.LBE2909:
 3127              	.LBE2908:
 3128              		.loc 10 326 0
 3129 00d0 3B60FFFC 		li 27,-4
 3130              	.LBB2915:
 3131              	.LBB2910:
 3132              		.loc 13 892 0
 3133 00d4 7F9C1670 		srawi 28,28,2
 3134              	.LVL234:
 3135              	.L176:
 3136              	.LBE2910:
 3137              	.LBE2915:
 3138              	.LBB2916:
 3139              	.LBB2917:
 3140              	.LBB2918:
 3141              	.LBB2919:
 3142              		.loc 11 92 0
 3143 00d8 7F63DB78 		mr 3,27
 3144              	.LVL235:
 3145 00dc 90A10008 		stw 5,8(1)
 3146 00e0 48000001 		bl _Znwj
 3147              	.LVL236:
 3148 00e4 80A10008 		lwz 5,8(1)
 3149 00e8 7C7D1B78 		mr 29,3
 3150              	.L171:
 3151              	.LVL237:
 3152              	.LBE2919:
 3153              	.LBE2918:
 3154              	.LBE2917:
 3155              	.LBE2916:
 3156              		.loc 10 335 0
 3157 00ec 579C103A 		slwi 28,28,2
 3158              	.LVL238:
 3159 00f0 7C1DE214 		add 0,29,28
 3160              	.LVL239:
 3161              	.LBB2922:
 3162              	.LBB2923:
 3163              		.loc 11 108 0
 3164 00f4 2F800000 		cmpwi 7,0,0
 3165 00f8 419E000C 		beq- 7,.L172
 3166 00fc 80050000 		lwz 0,0(5)
 3167              	.LVL240:
 3168 0100 7C1DE12E 		stwx 0,29,28
 3169              	.L172:
 3170              	.LVL241:
 3171              	.LBE2923:
 3172              	.LBE2922:
 3173              		.loc 10 343 0
 3174 0104 809F0000 		lwz 4,0(31)
 3175              	.LVL242:
 3176              	.LBB2924:
 3177              	.LBB2925:
 3178              	.LBB2926:
 3179              	.LBB2927:
 3180              	.LBB2928:
 3181              	.LBB2929:
 3182              	.LBB2930:
 3183              	.LBB2931:
 3184              	.LBB2932:
 3185              	.LBB2933:
 3186              	.LBB2934:
 3187              		.loc 12 365 0
 3188 0108 3B800000 		li 28,0
 3189              		.loc 12 364 0
 3190 010c 7C04F050 		subf 0,4,30
 3191              	.LVL243:
 3192              		.loc 12 365 0
 3193 0110 7C001671 		srawi. 0,0,2
 3194              	.LVL244:
 3195 0114 41A20014 		beq+ 0,.L173
 3196              		.loc 12 366 0
 3197 0118 541C103A 		slwi 28,0,2
 3198 011c 7FA3EB78 		mr 3,29
 3199 0120 7F85E378 		mr 5,28
 3200              	.LVL245:
 3201 0124 48000001 		bl memmove
 3202              	.LVL246:
 3203              	.L173:
 3204              	.LBE2934:
 3205              	.LBE2933:
 3206              	.LBE2932:
 3207              	.LBE2931:
 3208              	.LBE2930:
 3209              	.LBE2929:
 3210              	.LBE2928:
 3211              	.LBE2927:
 3212              	.LBE2926:
 3213              	.LBE2925:
 3214              	.LBE2924:
 3215              	.LBB2945:
 3216              	.LBB2946:
 3217              	.LBB2947:
 3218              	.LBB2948:
 3219              	.LBB2949:
 3220              	.LBB2950:
 3221              	.LBB2951:
 3222              	.LBB2952:
 3223              	.LBB2953:
 3224              	.LBB2954:
 3225              	.LBB2955:
 3226              		.loc 12 364 0
 3227 0128 801F0004 		lwz 0,4(31)
 3228              	.LBE2955:
 3229              	.LBE2954:
 3230              	.LBE2953:
 3231              	.LBE2952:
 3232              	.LBE2951:
 3233              	.LBE2950:
 3234              	.LBE2949:
 3235              	.LBE2948:
 3236              	.LBE2947:
 3237              	.LBE2946:
 3238              	.LBE2945:
 3239              	.LBB2976:
 3240              	.LBB2944:
 3241              	.LBB2943:
 3242              	.LBB2942:
 3243              	.LBB2941:
 3244              	.LBB2940:
 3245              	.LBB2939:
 3246              	.LBB2938:
 3247              	.LBB2937:
 3248              	.LBB2936:
 3249              	.LBB2935:
 3250              		.loc 12 367 0
 3251 012c 7F9DE214 		add 28,29,28
 3252              	.LVL247:
 3253              	.LBE2935:
 3254              	.LBE2936:
 3255              	.LBE2937:
 3256              	.LBE2938:
 3257              	.LBE2939:
 3258              	.LBE2940:
 3259              	.LBE2941:
 3260              	.LBE2942:
 3261              	.LBE2943:
 3262              	.LBE2944:
 3263              	.LBE2976:
 3264              		.loc 10 347 0
 3265 0130 3B5C0004 		addi 26,28,4
 3266              	.LBB2977:
 3267              	.LBB2974:
 3268              	.LBB2972:
 3269              	.LBB2970:
 3270              	.LBB2968:
 3271              	.LBB2966:
 3272              	.LBB2964:
 3273              	.LBB2962:
 3274              	.LBB2960:
 3275              	.LBB2958:
 3276              	.LBB2956:
 3277              		.loc 12 365 0
 3278 0134 3B800000 		li 28,0
 3279              		.loc 12 364 0
 3280 0138 7C1E0050 		subf 0,30,0
 3281              	.LVL248:
 3282              		.loc 12 365 0
 3283 013c 7C001671 		srawi. 0,0,2
 3284              	.LVL249:
 3285 0140 41A20018 		beq+ 0,.L174
 3286              		.loc 12 366 0
 3287 0144 541C103A 		slwi 28,0,2
 3288 0148 7F43D378 		mr 3,26
 3289 014c 7FC4F378 		mr 4,30
 3290 0150 7F85E378 		mr 5,28
 3291 0154 48000001 		bl memmove
 3292              	.LVL250:
 3293              	.L174:
 3294              	.LBE2956:
 3295              	.LBE2958:
 3296              	.LBE2960:
 3297              	.LBE2962:
 3298              	.LBE2964:
 3299              	.LBE2966:
 3300              	.LBE2968:
 3301              	.LBE2970:
 3302              	.LBE2972:
 3303              	.LBE2974:
 3304              	.LBE2977:
 3305              		.loc 10 366 0
 3306 0158 807F0000 		lwz 3,0(31)
 3307              	.LBB2978:
 3308              	.LBB2975:
 3309              	.LBB2973:
 3310              	.LBB2971:
 3311              	.LBB2969:
 3312              	.LBB2967:
 3313              	.LBB2965:
 3314              	.LBB2963:
 3315              	.LBB2961:
 3316              	.LBB2959:
 3317              	.LBB2957:
 3318              		.loc 12 367 0
 3319 015c 7F9AE214 		add 28,26,28
 3320              	.LVL251:
 3321              	.LBE2957:
 3322              	.LBE2959:
 3323              	.LBE2961:
 3324              	.LBE2963:
 3325              	.LBE2965:
 3326              	.LBE2967:
 3327              	.LBE2969:
 3328              	.LBE2971:
 3329              	.LBE2973:
 3330              	.LBE2975:
 3331              	.LBE2978:
 3332              	.LBB2979:
 3333              	.LBB2980:
 3334              		.loc 5 155 0
 3335 0160 2F830000 		cmpwi 7,3,0
 3336 0164 419E0008 		beq- 7,.L175
 3337              	.LVL252:
 3338              	.LBB2981:
 3339              	.LBB2982:
 3340              		.loc 11 98 0
 3341 0168 48000001 		bl _ZdlPv
 3342              	.LVL253:
 3343              	.L175:
 3344              	.LBE2982:
 3345              	.LBE2981:
 3346              	.LBE2980:
 3347              	.LBE2979:
 3348              	.LBE2899:
 3349              	.LBE2997:
 3350              		.loc 10 373 0
 3351 016c 8001002C 		lwz 0,44(1)
 3352              	.LBB2998:
 3353              	.LBB2991:
 3354              		.loc 10 371 0
 3355 0170 7F7DDA14 		add 27,29,27
 3356              		.loc 10 369 0
 3357 0174 93BF0000 		stw 29,0(31)
 3358              	.LBE2991:
 3359              	.LBE2998:
 3360              		.loc 10 373 0
 3361 0178 7C0803A6 		mtlr 0
 3362              	.LBB2999:
 3363              	.LBB2992:
 3364              		.loc 10 370 0
 3365 017c 939F0004 		stw 28,4(31)
 3366              		.loc 10 371 0
 3367 0180 937F0008 		stw 27,8(31)
 3368              	.LBE2992:
 3369              	.LBE2999:
 3370              		.loc 10 373 0
 3371 0184 83410010 		lwz 26,16(1)
 3372              	.LVL254:
 3373 0188 83610014 		lwz 27,20(1)
 3374 018c 83810018 		lwz 28,24(1)
 3375 0190 83A1001C 		lwz 29,28(1)
 3376              	.LVL255:
 3377 0194 83C10020 		lwz 30,32(1)
 3378              	.LVL256:
 3379 0198 83E10024 		lwz 31,36(1)
 3380              	.LVL257:
 3381 019c 38210028 		addi 1,1,40
 3382              		.cfi_remember_state
 3383              		.cfi_restore 26
 3384              		.cfi_restore 27
 3385              		.cfi_restore 28
 3386              		.cfi_restore 29
 3387              		.cfi_restore 30
 3388              		.cfi_restore 31
 3389              	.LCFI66:
 3390              		.cfi_def_cfa_offset 0
 3391 01a0 4E800020 		blr
 3392              	.LVL258:
 3393              	.L169:
 3394              	.LCFI67:
 3395              		.cfi_restore_state
 3396              	.LBB3000:
 3397              	.LBB2993:
 3398              	.LBB2983:
 3399              	.LBB2911:
 3400              		.loc 13 892 0
 3401 01a4 7F9CF050 		subf 28,28,30
 3402              	.LBE2911:
 3403              	.LBE2983:
 3404              		.loc 10 326 0
 3405 01a8 3B600004 		li 27,4
 3406              	.LBB2984:
 3407              	.LBB2912:
 3408              		.loc 13 892 0
 3409 01ac 7F9C1670 		srawi 28,28,2
 3410              	.LVL259:
 3411 01b0 4BFFFF28 		b .L176
 3412              	.LVL260:
 3413              	.L182:
 3414              	.LBE2912:
 3415              	.LBE2984:
 3416              	.LBB2985:
 3417              	.LBB2906:
 3418              		.loc 5 1245 0
 3419 01b4 3D203FFF 		lis 9,0x3fff
 3420 01b8 6129FFFF 		ori 9,9,65535
 3421 01bc 7F804840 		cmplw 7,0,9
 3422 01c0 419DFF0C 		bgt+ 7,.L170
 3423              	.LBE2906:
 3424              	.LBE2985:
 3425              	.LBB2986:
 3426              	.LBB2920:
 3427              		.loc 5 150 0
 3428 01c4 2F800000 		cmpwi 7,0,0
 3429              	.LBE2920:
 3430              	.LBE2986:
 3431              	.LBB2987:
 3432              	.LBB2913:
 3433              		.loc 13 892 0
 3434 01c8 7F9CF050 		subf 28,28,30
 3435              	.LBE2913:
 3436              	.LBE2987:
 3437              	.LBB2988:
 3438              	.LBB2907:
 3439              		.loc 5 1245 0
 3440 01cc 577B1838 		slwi 27,27,3
 3441              	.LVL261:
 3442              	.LBE2907:
 3443              	.LBE2988:
 3444              	.LBB2989:
 3445              	.LBB2914:
 3446              		.loc 13 892 0
 3447 01d0 7F9C1670 		srawi 28,28,2
 3448              	.LVL262:
 3449              	.LBE2914:
 3450              	.LBE2989:
 3451              	.LBB2990:
 3452              	.LBB2921:
 3453              		.loc 5 150 0
 3454 01d4 3BA00000 		li 29,0
 3455 01d8 419EFF14 		beq+ 7,.L171
 3456 01dc 4BFFFEFC 		b .L176
 3457              	.LBE2921:
 3458              	.LBE2990:
 3459              	.LBE2993:
 3460              	.LBE3000:
 3461              		.cfi_endproc
 3462              	.LFE1735:
 3463              		.size	_ZNSt6vectorIP10GuiElementSaIS1_EE13_M_insert_auxEN9__gnu_cxx17__normal_iteratorIPS1_S3_EERK
 3464              		.section	.text._ZNSt8_Rb_treeIPN7sigslot12_signal_baseINS0_15single_threadedEEES4_St9_IdentityIS4_
 3465              		.align 2
 3466              		.weak	_ZNSt8_Rb_treeIPN7sigslot12_signal_baseINS0_15single_threadedEEES4_St9_IdentityIS4_ESt4lessI
 3467              		.type	_ZNSt8_Rb_treeIPN7sigslot12_signal_baseINS0_15single_threadedEEES4_St9_IdentityIS4_ESt4lessI
 3468              	_ZNSt8_Rb_treeIPN7sigslot12_signal_baseINS0_15single_threadedEEES4_St9_IdentityIS4_ESt4lessIS4_ESaI
 3469              	.LFB1825:
 3470              		.file 14 "d:\\devkitpro\\devkitppc\\bin\\../lib/gcc/powerpc-eabi/4.6.3/../../../../powerpc-eabi/in
 3471              		.loc 14 1068 0
 3472              		.cfi_startproc
 3473              	.LVL263:
 3474 0000 9421FFC8 		stwu 1,-56(1)
 3475              	.LCFI68:
 3476              		.cfi_def_cfa_offset 56
 3477 0004 7C0802A6 		mflr 0
 3478 0008 92C10010 		stw 22,16(1)
 3479              	.LBB3117:
 3480              		.loc 14 1072 0
 3481 000c 7C962379 		mr. 22,4
 3482              		.cfi_offset 22, -40
 3483              		.cfi_register 65, 0
 3484              	.LBE3117:
 3485              		.loc 14 1068 0
 3486 0010 93C10030 		stw 30,48(1)
 3487 0014 7C7E1B78 		mr 30,3
 3488              		.cfi_offset 30, -8
 3489 0018 9001003C 		stw 0,60(1)
 3490 001c 92A1000C 		stw 21,12(1)
 3491 0020 92E10014 		stw 23,20(1)
 3492 0024 93010018 		stw 24,24(1)
 3493 0028 9321001C 		stw 25,28(1)
 3494 002c 93410020 		stw 26,32(1)
 3495 0030 93610024 		stw 27,36(1)
 3496 0034 93810028 		stw 28,40(1)
 3497 0038 93A1002C 		stw 29,44(1)
 3498 003c 93E10034 		stw 31,52(1)
 3499              	.LBB3202:
 3500              		.loc 14 1072 0
 3501 0040 41820168 		beq- 0,.L183
 3502              		.cfi_offset 31, -4
 3503              		.cfi_offset 29, -12
 3504              		.cfi_offset 28, -16
 3505              		.cfi_offset 27, -20
 3506              		.cfi_offset 26, -24
 3507              		.cfi_offset 25, -28
 3508              		.cfi_offset 24, -32
 3509              		.cfi_offset 23, -36
 3510              		.cfi_offset 21, -44
 3511              		.cfi_offset 65, 4
 3512              	.LVL264:
 3513              	.L229:
 3514              		.loc 4 391 0
 3515 0044 8376000C 		lwz 27,12(22)
 3516              	.LVL265:
 3517              	.LBB3118:
 3518              	.LBB3119:
 3519              	.LBB3120:
 3520              		.loc 14 1072 0
 3521 0048 2F9B0000 		cmpwi 7,27,0
 3522 004c 419E0140 		beq- 7,.L185
 3523              	.LVL266:
 3524              	.L230:
 3525              	.LBE3120:
 3526              		.loc 4 391 0
 3527 0050 835B000C 		lwz 26,12(27)
 3528              	.LVL267:
 3529              	.LBB3196:
 3530              	.LBB3121:
 3531              	.LBB3122:
 3532              	.LBB3123:
 3533              		.loc 14 1072 0
 3534 0054 2F9A0000 		cmpwi 7,26,0
 3535 0058 419E0118 		beq- 7,.L186
 3536              	.LVL268:
 3537              	.L231:
 3538              	.LBE3123:
 3539              		.loc 4 391 0
 3540 005c 833A000C 		lwz 25,12(26)
 3541              	.LVL269:
 3542              	.LBB3189:
 3543              	.LBB3124:
 3544              	.LBB3125:
 3545              	.LBB3126:
 3546              		.loc 14 1072 0
 3547 0060 2F990000 		cmpwi 7,25,0
 3548 0064 419E00F0 		beq- 7,.L187
 3549              	.LVL270:
 3550              	.L232:
 3551              	.LBE3126:
 3552              		.loc 4 391 0
 3553 0068 8319000C 		lwz 24,12(25)
 3554              	.LVL271:
 3555              	.LBB3182:
 3556              	.LBB3127:
 3557              	.LBB3128:
 3558              	.LBB3129:
 3559              		.loc 14 1072 0
 3560 006c 2F980000 		cmpwi 7,24,0
 3561 0070 419E00C8 		beq- 7,.L188
 3562              	.LVL272:
 3563              	.L233:
 3564              	.LBE3129:
 3565              		.loc 4 391 0
 3566 0074 82F8000C 		lwz 23,12(24)
 3567              	.LVL273:
 3568              	.LBB3175:
 3569              	.LBB3130:
 3570              	.LBB3131:
 3571              	.LBB3132:
 3572              		.loc 14 1072 0
 3573 0078 2F970000 		cmpwi 7,23,0
 3574 007c 419E00A0 		beq- 7,.L189
 3575              	.LVL274:
 3576              	.L234:
 3577              	.LBE3132:
 3578              		.loc 4 391 0
 3579 0080 8397000C 		lwz 28,12(23)
 3580              	.LVL275:
 3581              	.LBB3168:
 3582              	.LBB3133:
 3583              	.LBB3134:
 3584              	.LBB3135:
 3585              		.loc 14 1072 0
 3586 0084 2F9C0000 		cmpwi 7,28,0
 3587 0088 419E0078 		beq- 7,.L190
 3588              	.LVL276:
 3589              	.L235:
 3590              	.LBE3135:
 3591              		.loc 4 391 0
 3592 008c 83BC000C 		lwz 29,12(28)
 3593              	.LVL277:
 3594              	.LBB3161:
 3595              	.LBB3136:
 3596              	.LBB3137:
 3597              	.LBB3138:
 3598              		.loc 14 1072 0
 3599 0090 2F9D0000 		cmpwi 7,29,0
 3600 0094 419E0050 		beq- 7,.L191
 3601              	.LVL278:
 3602              	.L236:
 3603              	.LBE3138:
 3604              		.loc 4 391 0
 3605 0098 83FD000C 		lwz 31,12(29)
 3606              	.LVL279:
 3607              	.LBB3154:
 3608              	.LBB3139:
 3609              	.LBB3140:
 3610              	.LBB3141:
 3611              		.loc 14 1072 0
 3612 009c 2F9F0000 		cmpwi 7,31,0
 3613 00a0 419E0028 		beq- 7,.L192
 3614              	.LVL280:
 3615              	.L237:
 3616              	.LBB3142:
 3617              		.loc 14 1074 0
 3618 00a4 809F000C 		lwz 4,12(31)
 3619 00a8 7FC3F378 		mr 3,30
 3620 00ac 48000001 		bl _ZNSt8_Rb_treeIPN7sigslot12_signal_baseINS0_15single_threadedEEES4_St9_IdentityIS4_ESt4lessIS4_
 3621              	.LBE3142:
 3622              	.LBE3141:
 3623              		.loc 4 391 0
 3624 00b0 82BF0008 		lwz 21,8(31)
 3625              	.LVL281:
 3626              	.LBB3148:
 3627              	.LBB3147:
 3628              	.LBB3143:
 3629              	.LBB3144:
 3630              	.LBB3145:
 3631              	.LBB3146:
 3632              		.loc 11 98 0
 3633 00b4 7FE3FB78 		mr 3,31
 3634 00b8 48000001 		bl _ZdlPv
 3635              	.LVL282:
 3636              	.LBE3146:
 3637              	.LBE3145:
 3638              	.LBE3144:
 3639              	.LBE3143:
 3640              	.LBE3147:
 3641              		.loc 14 1072 0
 3642 00bc 2F950000 		cmpwi 7,21,0
 3643              		.loc 14 1077 0
 3644 00c0 7EBFAB78 		mr 31,21
 3645              	.LVL283:
 3646              		.loc 14 1072 0
 3647 00c4 409EFFE0 		bne+ 7,.L237
 3648              	.LVL284:
 3649              	.L192:
 3650              	.LBE3148:
 3651              	.LBE3140:
 3652              	.LBE3139:
 3653              	.LBE3154:
 3654              		.loc 4 391 0
 3655 00c8 83FD0008 		lwz 31,8(29)
 3656              	.LVL285:
 3657              	.LBB3155:
 3658              	.LBB3153:
 3659              	.LBB3149:
 3660              	.LBB3150:
 3661              	.LBB3151:
 3662              	.LBB3152:
 3663              		.loc 11 98 0
 3664 00cc 7FA3EB78 		mr 3,29
 3665 00d0 48000001 		bl _ZdlPv
 3666              	.LVL286:
 3667              	.LBE3152:
 3668              	.LBE3151:
 3669              	.LBE3150:
 3670              	.LBE3149:
 3671              	.LBE3153:
 3672              		.loc 14 1072 0
 3673 00d4 2F9F0000 		cmpwi 7,31,0
 3674 00d8 419E000C 		beq- 7,.L191
 3675              		.loc 14 1077 0
 3676 00dc 7FFDFB78 		mr 29,31
 3677              	.LVL287:
 3678 00e0 4BFFFFB8 		b .L236
 3679              	.LVL288:
 3680              	.L191:
 3681              	.LBE3155:
 3682              	.LBE3137:
 3683              	.LBE3136:
 3684              	.LBE3161:
 3685              		.loc 4 391 0
 3686 00e4 83FC0008 		lwz 31,8(28)
 3687              	.LVL289:
 3688              	.LBB3162:
 3689              	.LBB3160:
 3690              	.LBB3156:
 3691              	.LBB3157:
 3692              	.LBB3158:
 3693              	.LBB3159:
 3694              		.loc 11 98 0
 3695 00e8 7F83E378 		mr 3,28
 3696 00ec 48000001 		bl _ZdlPv
 3697              	.LVL290:
 3698              	.LBE3159:
 3699              	.LBE3158:
 3700              	.LBE3157:
 3701              	.LBE3156:
 3702              	.LBE3160:
 3703              		.loc 14 1072 0
 3704 00f0 2F9F0000 		cmpwi 7,31,0
 3705 00f4 419E000C 		beq- 7,.L190
 3706              		.loc 14 1077 0
 3707 00f8 7FFCFB78 		mr 28,31
 3708              	.LVL291:
 3709 00fc 4BFFFF90 		b .L235
 3710              	.LVL292:
 3711              	.L190:
 3712              	.LBE3162:
 3713              	.LBE3134:
 3714              	.LBE3133:
 3715              	.LBE3168:
 3716              		.loc 4 391 0
 3717 0100 83F70008 		lwz 31,8(23)
 3718              	.LVL293:
 3719              	.LBB3169:
 3720              	.LBB3167:
 3721              	.LBB3163:
 3722              	.LBB3164:
 3723              	.LBB3165:
 3724              	.LBB3166:
 3725              		.loc 11 98 0
 3726 0104 7EE3BB78 		mr 3,23
 3727 0108 48000001 		bl _ZdlPv
 3728              	.LVL294:
 3729              	.LBE3166:
 3730              	.LBE3165:
 3731              	.LBE3164:
 3732              	.LBE3163:
 3733              	.LBE3167:
 3734              		.loc 14 1072 0
 3735 010c 2F9F0000 		cmpwi 7,31,0
 3736 0110 419E000C 		beq- 7,.L189
 3737              		.loc 14 1077 0
 3738 0114 7FF7FB78 		mr 23,31
 3739              	.LVL295:
 3740 0118 4BFFFF68 		b .L234
 3741              	.LVL296:
 3742              	.L189:
 3743              	.LBE3169:
 3744              	.LBE3131:
 3745              	.LBE3130:
 3746              	.LBE3175:
 3747              		.loc 4 391 0
 3748 011c 83F80008 		lwz 31,8(24)
 3749              	.LVL297:
 3750              	.LBB3176:
 3751              	.LBB3174:
 3752              	.LBB3170:
 3753              	.LBB3171:
 3754              	.LBB3172:
 3755              	.LBB3173:
 3756              		.loc 11 98 0
 3757 0120 7F03C378 		mr 3,24
 3758 0124 48000001 		bl _ZdlPv
 3759              	.LVL298:
 3760              	.LBE3173:
 3761              	.LBE3172:
 3762              	.LBE3171:
 3763              	.LBE3170:
 3764              	.LBE3174:
 3765              		.loc 14 1072 0
 3766 0128 2F9F0000 		cmpwi 7,31,0
 3767 012c 419E000C 		beq- 7,.L188
 3768              		.loc 14 1077 0
 3769 0130 7FF8FB78 		mr 24,31
 3770              	.LVL299:
 3771 0134 4BFFFF40 		b .L233
 3772              	.LVL300:
 3773              	.L188:
 3774              	.LBE3176:
 3775              	.LBE3128:
 3776              	.LBE3127:
 3777              	.LBE3182:
 3778              		.loc 4 391 0
 3779 0138 83F90008 		lwz 31,8(25)
 3780              	.LVL301:
 3781              	.LBB3183:
 3782              	.LBB3181:
 3783              	.LBB3177:
 3784              	.LBB3178:
 3785              	.LBB3179:
 3786              	.LBB3180:
 3787              		.loc 11 98 0
 3788 013c 7F23CB78 		mr 3,25
 3789 0140 48000001 		bl _ZdlPv
 3790              	.LVL302:
 3791              	.LBE3180:
 3792              	.LBE3179:
 3793              	.LBE3178:
 3794              	.LBE3177:
 3795              	.LBE3181:
 3796              		.loc 14 1072 0
 3797 0144 2F9F0000 		cmpwi 7,31,0
 3798 0148 419E000C 		beq- 7,.L187
 3799              		.loc 14 1077 0
 3800 014c 7FF9FB78 		mr 25,31
 3801              	.LVL303:
 3802 0150 4BFFFF18 		b .L232
 3803              	.LVL304:
 3804              	.L187:
 3805              	.LBE3183:
 3806              	.LBE3125:
 3807              	.LBE3124:
 3808              	.LBE3189:
 3809              		.loc 4 391 0
 3810 0154 83FA0008 		lwz 31,8(26)
 3811              	.LVL305:
 3812              	.LBB3190:
 3813              	.LBB3188:
 3814              	.LBB3184:
 3815              	.LBB3185:
 3816              	.LBB3186:
 3817              	.LBB3187:
 3818              		.loc 11 98 0
 3819 0158 7F43D378 		mr 3,26
 3820 015c 48000001 		bl _ZdlPv
 3821              	.LVL306:
 3822              	.LBE3187:
 3823              	.LBE3186:
 3824              	.LBE3185:
 3825              	.LBE3184:
 3826              	.LBE3188:
 3827              		.loc 14 1072 0
 3828 0160 2F9F0000 		cmpwi 7,31,0
 3829 0164 419E000C 		beq- 7,.L186
 3830              		.loc 14 1077 0
 3831 0168 7FFAFB78 		mr 26,31
 3832              	.LVL307:
 3833 016c 4BFFFEF0 		b .L231
 3834              	.LVL308:
 3835              	.L186:
 3836              	.LBE3190:
 3837              	.LBE3122:
 3838              	.LBE3121:
 3839              	.LBE3196:
 3840              		.loc 4 391 0
 3841 0170 83FB0008 		lwz 31,8(27)
 3842              	.LVL309:
 3843              	.LBB3197:
 3844              	.LBB3195:
 3845              	.LBB3191:
 3846              	.LBB3192:
 3847              	.LBB3193:
 3848              	.LBB3194:
 3849              		.loc 11 98 0
 3850 0174 7F63DB78 		mr 3,27
 3851 0178 48000001 		bl _ZdlPv
 3852              	.LVL310:
 3853              	.LBE3194:
 3854              	.LBE3193:
 3855              	.LBE3192:
 3856              	.LBE3191:
 3857              	.LBE3195:
 3858              		.loc 14 1072 0
 3859 017c 2F9F0000 		cmpwi 7,31,0
 3860 0180 419E000C 		beq- 7,.L185
 3861              		.loc 14 1077 0
 3862 0184 7FFBFB78 		mr 27,31
 3863              	.LVL311:
 3864 0188 4BFFFEC8 		b .L230
 3865              	.LVL312:
 3866              	.L185:
 3867              		.loc 4 391 0
 3868 018c 83F60008 		lwz 31,8(22)
 3869              	.LVL313:
 3870              	.LBE3197:
 3871              	.LBE3119:
 3872              	.LBB3198:
 3873              	.LBB3199:
 3874              	.LBB3200:
 3875              	.LBB3201:
 3876              		.loc 11 98 0
 3877 0190 7EC3B378 		mr 3,22
 3878 0194 48000001 		bl _ZdlPv
 3879              	.LVL314:
 3880              	.LBE3201:
 3881              	.LBE3200:
 3882              	.LBE3199:
 3883              	.LBE3198:
 3884              	.LBE3118:
 3885              		.loc 14 1072 0
 3886 0198 2F9F0000 		cmpwi 7,31,0
 3887 019c 419E000C 		beq- 7,.L183
 3888              		.loc 14 1077 0
 3889 01a0 7FF6FB78 		mr 22,31
 3890              	.LVL315:
 3891 01a4 4BFFFEA0 		b .L229
 3892              	.LVL316:
 3893              	.L183:
 3894              	.LBE3202:
 3895              		.loc 14 1079 0
 3896 01a8 8001003C 		lwz 0,60(1)
 3897 01ac 82A1000C 		lwz 21,12(1)
 3898 01b0 7C0803A6 		mtlr 0
 3899 01b4 82C10010 		lwz 22,16(1)
 3900 01b8 82E10014 		lwz 23,20(1)
 3901 01bc 83010018 		lwz 24,24(1)
 3902 01c0 8321001C 		lwz 25,28(1)
 3903 01c4 83410020 		lwz 26,32(1)
 3904 01c8 83610024 		lwz 27,36(1)
 3905 01cc 83810028 		lwz 28,40(1)
 3906 01d0 83A1002C 		lwz 29,44(1)
 3907 01d4 83C10030 		lwz 30,48(1)
 3908              	.LVL317:
 3909 01d8 83E10034 		lwz 31,52(1)
 3910 01dc 38210038 		addi 1,1,56
 3911              	.LCFI69:
 3912              		.cfi_def_cfa_offset 0
 3913              		.cfi_restore 31
 3914              		.cfi_restore 30
 3915              		.cfi_restore 29
 3916              		.cfi_restore 28
 3917              		.cfi_restore 27
 3918              		.cfi_restore 26
 3919              		.cfi_restore 25
 3920              		.cfi_restore 24
 3921              		.cfi_restore 23
 3922              		.cfi_restore 22
 3923              		.cfi_restore 21
 3924 01e0 4E800020 		blr
 3925              		.cfi_endproc
 3926              	.LFE1825:
 3927              		.size	_ZNSt8_Rb_treeIPN7sigslot12_signal_baseINS0_15single_threadedEEES4_St9_IdentityIS4_ESt4lessI
 3928              		.section	.text._ZN7sigslot9has_slotsINS_15single_threadedEED2Ev,"axG",@progbits,_ZN7sigslot9has_sl
 3929              		.align 2
 3930              		.weak	_ZN7sigslot9has_slotsINS_15single_threadedEED2Ev
 3931              		.type	_ZN7sigslot9has_slotsINS_15single_threadedEED2Ev, @function
 3932              	_ZN7sigslot9has_slotsINS_15single_threadedEED2Ev:
 3933              	.LFB1663:
 3934              		.loc 1 513 0
 3935              		.cfi_startproc
 3936              		.cfi_personality 0,__gxx_personality_v0
 3937              		.cfi_lsda 0,.LLSDA1663
 3938              	.LVL318:
 3939 0000 7C0802A6 		mflr 0
 3940 0004 9421FFE0 		stwu 1,-32(1)
 3941              	.LCFI70:
 3942              		.cfi_def_cfa_offset 32
 3943              		.cfi_register 65, 0
 3944              	.LBB3349:
 3945              		.loc 1 516 0
 3946 0008 3D200000 		lis 9,_ZTVN7sigslot9has_slotsINS_15single_threadedEEE+8@ha
 3947              	.LBE3349:
 3948              		.loc 1 513 0
 3949 000c 93810010 		stw 28,16(1)
 3950 0010 3B830004 		addi 28,3,4
 3951              		.cfi_offset 28, -16
 3952 0014 90010024 		stw 0,36(1)
 3953              	.LBB3425:
 3954              		.loc 1 516 0
 3955 0018 38090008 		la 0,_ZTVN7sigslot9has_slotsINS_15single_threadedEEE+8@l(9)
 3956              		.cfi_offset 65, 4
 3957              	.LBE3425:
 3958              		.loc 1 513 0
 3959 001c 93A10014 		stw 29,20(1)
 3960 0020 7C7D1B78 		mr 29,3
 3961              		.cfi_offset 29, -12
 3962 0024 93410008 		stw 26,8(1)
 3963 0028 9361000C 		stw 27,12(1)
 3964 002c 93C10018 		stw 30,24(1)
 3965 0030 93E1001C 		stw 31,28(1)
 3966              	.LBB3426:
 3967              		.loc 1 516 0
 3968 0034 90030000 		stw 0,0(3)
 3969              	.LVL319:
 3970              	.LEHB6:
 3971              	.LBB3350:
 3972              	.LBB3351:
 3973              	.LBB3352:
 3974              	.LBB3353:
 3975              		.loc 1 338 0
 3976              		.cfi_offset 31, -4
 3977              		.cfi_offset 30, -8
 3978              		.cfi_offset 27, -20
 3979              		.cfi_offset 26, -24
 3980 0038 48000001 		bl _ZN7sigslot15single_threaded4lockEv
 3981              	.LEHE6:
 3982              	.LVL320:
 3983              	.LBE3353:
 3984              	.LBE3352:
 3985              	.LBB3354:
 3986              		.loc 4 391 0
 3987 003c 83FD0010 		lwz 31,16(29)
 3988              	.LVL321:
 3989              	.LBE3354:
 3990              	.LBB3355:
 3991              	.LBB3356:
 3992              	.LBB3357:
 3993              		.loc 14 671 0
 3994 0040 3BDC0004 		addi 30,28,4
 3995              	.LVL322:
 3996              	.LBE3357:
 3997              	.LBE3356:
 3998              	.LBE3355:
 3999              		.loc 1 524 0
 4000 0044 7F9FF000 		cmpw 7,31,30
 4001 0048 419E0034 		beq- 7,.L239
 4002              	.LVL323:
 4003              	.L266:
 4004              		.loc 1 526 0
 4005 004c 807F0010 		lwz 3,16(31)
 4006 0050 7FA4EB78 		mr 4,29
 4007 0054 81230000 		lwz 9,0(3)
 4008 0058 80090010 		lwz 0,16(9)
 4009 005c 7C0903A6 		mtctr 0
 4010              	.LEHB7:
 4011 0060 4E800421 		bctrl
 4012              	.LEHE7:
 4013              	.LVL324:
 4014              	.LBB3358:
 4015              	.LBB3359:
 4016              		.loc 14 269 0
 4017 0064 7FE3FB78 		mr 3,31
 4018 0068 48000001 		bl _ZSt18_Rb_tree_incrementPKSt18_Rb_tree_node_base
 4019              	.LBE3359:
 4020              	.LBE3358:
 4021              		.loc 1 524 0
 4022 006c 7F9E1800 		cmpw 7,30,3
 4023              	.LBB3361:
 4024              	.LBB3360:
 4025              		.loc 14 269 0
 4026 0070 7C7F1B78 		mr 31,3
 4027              	.LVL325:
 4028              	.LBE3360:
 4029              	.LBE3361:
 4030              		.loc 1 524 0
 4031 0074 409EFFD8 		bne+ 7,.L266
 4032 0078 83FD0010 		lwz 31,16(29)
 4033              	.LVL326:
 4034              	.L239:
 4035              	.LBB3362:
 4036              	.LBB3363:
 4037              	.LBB3364:
 4038              	.LBB3365:
 4039              	.LBB3366:
 4040              	.LBB3367:
 4041              	.LBB3368:
 4042              		.loc 14 665 0
 4043 007c 3B5C0004 		addi 26,28,4
 4044              	.LBE3368:
 4045              	.LBE3367:
 4046              		.loc 14 1500 0
 4047 0080 7F9ED000 		cmpw 7,30,26
 4048 0084 419E0098 		beq- 7,.L241
 4049              	.LVL327:
 4050              		.loc 14 1503 0
 4051 0088 7F9EF800 		cmpw 7,30,31
 4052 008c 40BE000C 		bne+ 7,.L268
 4053 0090 48000038 		b .L242
 4054              	.LVL328:
 4055              	.L263:
 4056              		.loc 14 277 0
 4057 0094 7F7FDB78 		mr 31,27
 4058              	.LVL329:
 4059              	.L268:
 4060              	.LBB3369:
 4061              	.LBB3370:
 4062 0098 7FE3FB78 		mr 3,31
 4063 009c 48000001 		bl _ZSt18_Rb_tree_incrementPKSt18_Rb_tree_node_base
 4064              	.LBE3370:
 4065              	.LBE3369:
 4066              	.LBB3372:
 4067              	.LBB3373:
 4068              	.LBB3374:
 4069              		.loc 14 1489 0
 4070 00a0 7F44D378 		mr 4,26
 4071              	.LBE3374:
 4072              	.LBE3373:
 4073              	.LBE3372:
 4074              	.LBB3383:
 4075              	.LBB3371:
 4076              		.loc 14 277 0
 4077 00a4 7C7B1B78 		mr 27,3
 4078              	.LVL330:
 4079              	.LBE3371:
 4080              	.LBE3383:
 4081              	.LBB3384:
 4082              	.LBB3381:
 4083              	.LBB3379:
 4084              		.loc 14 1489 0
 4085 00a8 7FE3FB78 		mr 3,31
 4086              	.LVL331:
 4087 00ac 48000001 		bl _ZSt28_Rb_tree_rebalance_for_erasePSt18_Rb_tree_node_baseRS_
 4088              	.LBB3375:
 4089              	.LBB3376:
 4090              	.LBB3377:
 4091              	.LBB3378:
 4092              		.loc 11 98 0
 4093 00b0 48000001 		bl _ZdlPv
 4094              	.LBE3378:
 4095              	.LBE3377:
 4096              	.LBE3376:
 4097              	.LBE3375:
 4098              	.LBE3379:
 4099              	.LBE3381:
 4100              	.LBE3384:
 4101              		.loc 14 1503 0
 4102 00b4 7F9ED800 		cmpw 7,30,27
 4103              	.LBB3385:
 4104              	.LBB3382:
 4105              	.LBB3380:
 4106              		.loc 14 1491 0
 4107 00b8 813C0014 		lwz 9,20(28)
 4108 00bc 3809FFFF 		addi 0,9,-1
 4109 00c0 901C0014 		stw 0,20(28)
 4110              	.LBE3380:
 4111              	.LBE3382:
 4112              	.LBE3385:
 4113              		.loc 14 1503 0
 4114 00c4 409EFFD0 		bne+ 7,.L263
 4115              	.LVL332:
 4116              	.L242:
 4117              	.LBE3366:
 4118              	.LBE3365:
 4119              	.LBE3364:
 4120              	.LBE3363:
 4121              	.LBE3362:
 4122              	.LBB3394:
 4123              	.LBB3395:
 4124              	.LBB3396:
 4125              		.loc 1 343 0
 4126 00c8 813D0000 		lwz 9,0(29)
 4127 00cc 7FA3EB78 		mr 3,29
 4128 00d0 8009000C 		lwz 0,12(9)
 4129 00d4 7C0903A6 		mtctr 0
 4130              	.LEHB8:
 4131 00d8 4E800421 		bctrl
 4132              	.LEHE8:
 4133              	.LVL333:
 4134              	.LBE3396:
 4135              	.LBE3395:
 4136              	.LBE3394:
 4137              	.LBE3351:
 4138              	.LBE3350:
 4139              	.LBB3403:
 4140              	.LBB3404:
 4141              	.LBB3405:
 4142              	.LBB3406:
 4143              	.LBB3407:
 4144              		.loc 14 639 0
 4145 00dc 809D000C 		lwz 4,12(29)
 4146 00e0 7F83E378 		mr 3,28
 4147 00e4 48000001 		bl _ZNSt8_Rb_treeIPN7sigslot12_signal_baseINS0_15single_threadedEEES4_St9_IdentityIS4_ESt4lessIS4_
 4148              	.LVL334:
 4149              	.LBE3407:
 4150              	.LBE3406:
 4151              	.LBE3405:
 4152              	.LBE3404:
 4153              	.LBE3403:
 4154              	.LBB3408:
 4155              	.LBB3409:
 4156              	.LBB3410:
 4157              		.loc 1 105 0
 4158 00e8 3D200000 		lis 9,_ZTVN7sigslot15single_threadedE+8@ha
 4159 00ec 38090008 		la 0,_ZTVN7sigslot15single_threadedE+8@l(9)
 4160              	.LBE3410:
 4161              	.LBE3409:
 4162              	.LBE3408:
 4163              	.LBE3426:
 4164              		.loc 1 516 0
 4165 00f0 83410008 		lwz 26,8(1)
 4166              	.LBB3427:
 4167              	.LBB3413:
 4168              	.LBB3412:
 4169              	.LBB3411:
 4170              		.loc 1 105 0
 4171 00f4 901D0000 		stw 0,0(29)
 4172              	.LBE3411:
 4173              	.LBE3412:
 4174              	.LBE3413:
 4175              	.LBE3427:
 4176              		.loc 1 516 0
 4177 00f8 80010024 		lwz 0,36(1)
 4178 00fc 8361000C 		lwz 27,12(1)
 4179 0100 7C0803A6 		mtlr 0
 4180 0104 83810010 		lwz 28,16(1)
 4181              	.LVL335:
 4182 0108 83A10014 		lwz 29,20(1)
 4183              	.LVL336:
 4184 010c 83C10018 		lwz 30,24(1)
 4185              	.LVL337:
 4186 0110 83E1001C 		lwz 31,28(1)
 4187 0114 38210020 		addi 1,1,32
 4188              		.cfi_remember_state
 4189              	.LCFI71:
 4190              		.cfi_def_cfa_offset 0
 4191              		.cfi_restore 31
 4192              		.cfi_restore 30
 4193              		.cfi_restore 29
 4194              		.cfi_restore 28
 4195              		.cfi_restore 27
 4196              		.cfi_restore 26
 4197 0118 4E800020 		blr
 4198              	.LVL338:
 4199              	.L241:
 4200              	.LCFI72:
 4201              		.cfi_restore_state
 4202              	.LBB3428:
 4203              	.LBB3414:
 4204              	.LBB3401:
 4205              	.LBB3397:
 4206              	.LBB3393:
 4207              	.LBB3392:
 4208              	.LBB3391:
 4209              	.LBB3390:
 4210              	.LBB3386:
 4211              	.LBB3387:
 4212              	.LBB3388:
 4213              	.LBB3389:
 4214              		.loc 14 809 0
 4215 011c 809D000C 		lwz 4,12(29)
 4216 0120 7F83E378 		mr 3,28
 4217 0124 48000001 		bl _ZNSt8_Rb_treeIPN7sigslot12_signal_baseINS0_15single_threadedEEES4_St9_IdentityIS4_ESt4lessIS4_
 4218              	.LVL339:
 4219              		.loc 14 811 0
 4220 0128 38000000 		li 0,0
 4221              		.loc 14 810 0
 4222 012c 93DD0010 		stw 30,16(29)
 4223              	.LVL340:
 4224              		.loc 14 811 0
 4225 0130 901D000C 		stw 0,12(29)
 4226              	.LVL341:
 4227              		.loc 14 812 0
 4228 0134 93DD0014 		stw 30,20(29)
 4229              		.loc 14 813 0
 4230 0138 901D0018 		stw 0,24(29)
 4231 013c 4BFFFF8C 		b .L242
 4232              	.LVL342:
 4233              	.L264:
 4234 0140 7C7F1B78 		mr 31,3
 4235              	.L249:
 4236              	.LVL343:
 4237              	.LBE3389:
 4238              	.LBE3388:
 4239              	.LBE3387:
 4240              	.LBE3386:
 4241              	.LBE3390:
 4242              	.LBE3391:
 4243              	.LBE3392:
 4244              	.LBE3393:
 4245              	.LBE3397:
 4246              	.LBE3401:
 4247              	.LBE3414:
 4248              	.LBB3415:
 4249              	.LBB3416:
 4250              	.LBB3417:
 4251              	.LBB3418:
 4252              	.LBB3419:
 4253              	.LBB3420:
 4254              		.loc 14 639 0
 4255 0144 809D000C 		lwz 4,12(29)
 4256 0148 7F83E378 		mr 3,28
 4257 014c 48000001 		bl _ZNSt8_Rb_treeIPN7sigslot12_signal_baseINS0_15single_threadedEEES4_St9_IdentityIS4_ESt4lessIS4_
 4258              	.LVL344:
 4259              	.LBE3420:
 4260              	.LBE3419:
 4261              	.LBE3418:
 4262              	.LBE3417:
 4263              	.LBE3416:
 4264              	.LBE3415:
 4265              	.LBB3421:
 4266              	.LBB3422:
 4267              	.LBB3423:
 4268              		.loc 1 105 0
 4269 0150 3D200000 		lis 9,_ZTVN7sigslot15single_threadedE+8@ha
 4270 0154 38090008 		la 0,_ZTVN7sigslot15single_threadedE+8@l(9)
 4271 0158 7FE3FB78 		mr 3,31
 4272 015c 901D0000 		stw 0,0(29)
 4273              	.LEHB9:
 4274 0160 48000001 		bl _Unwind_Resume
 4275              	.LEHE9:
 4276              	.LVL345:
 4277              	.L265:
 4278              	.LBE3423:
 4279              	.LBE3422:
 4280              	.LBE3421:
 4281              	.LBB3424:
 4282              	.LBB3402:
 4283              	.LBB3398:
 4284              	.LBB3399:
 4285              	.LBB3400:
 4286              		.loc 1 343 0
 4287 0164 813D0000 		lwz 9,0(29)
 4288 0168 7C7F1B78 		mr 31,3
 4289              	.LVL346:
 4290 016c 7FA3EB78 		mr 3,29
 4291 0170 8009000C 		lwz 0,12(9)
 4292 0174 7C0903A6 		mtctr 0
 4293 0178 4E800421 		bctrl
 4294 017c 4BFFFFC8 		b .L249
 4295              	.LBE3400:
 4296              	.LBE3399:
 4297              	.LBE3398:
 4298              	.LBE3402:
 4299              	.LBE3424:
 4300              	.LBE3428:
 4301              		.cfi_endproc
 4302              	.LFE1663:
 4303              		.section	.gcc_except_table
 4304              	.LLSDA1663:
 4305 0027 FF       		.byte	0xff
 4306 0028 FF       		.byte	0xff
 4307 0029 01       		.byte	0x1
 4308 002a 15       		.uleb128 .LLSDACSE1663-.LLSDACSB1663
 4309              	.LLSDACSB1663:
 4310 002b 38       		.uleb128 .LEHB6-.LFB1663
 4311 002c 04       		.uleb128 .LEHE6-.LEHB6
 4312 002d C002     		.uleb128 .L264-.LFB1663
 4313 002f 00       		.uleb128 0
 4314 0030 60       		.uleb128 .LEHB7-.LFB1663
 4315 0031 04       		.uleb128 .LEHE7-.LEHB7
 4316 0032 E402     		.uleb128 .L265-.LFB1663
 4317 0034 00       		.uleb128 0
 4318 0035 D801     		.uleb128 .LEHB8-.LFB1663
 4319 0037 04       		.uleb128 .LEHE8-.LEHB8
 4320 0038 C002     		.uleb128 .L264-.LFB1663
 4321 003a 00       		.uleb128 0
 4322 003b E002     		.uleb128 .LEHB9-.LFB1663
 4323 003d 04       		.uleb128 .LEHE9-.LEHB9
 4324 003e 00       		.uleb128 0
 4325 003f 00       		.uleb128 0
 4326              	.LLSDACSE1663:
 4327              		.section	.text._ZN7sigslot9has_slotsINS_15single_threadedEED2Ev,"axG",@progbits,_ZN7sigslot9has_sl
 4328              		.size	_ZN7sigslot9has_slotsINS_15single_threadedEED2Ev, .-_ZN7sigslot9has_slotsINS_15single_thread
 4329              		.section	.text._ZN7sigslot9has_slotsINS_15single_threadedEED0Ev,"axG",@progbits,_ZN7sigslot9has_sl
 4330              		.align 2
 4331              		.weak	_ZN7sigslot9has_slotsINS_15single_threadedEED0Ev
 4332              		.type	_ZN7sigslot9has_slotsINS_15single_threadedEED0Ev, @function
 4333              	_ZN7sigslot9has_slotsINS_15single_threadedEED0Ev:
 4334              	.LFB1665:
 4335              		.loc 1 513 0
 4336              		.cfi_startproc
 4337              		.cfi_personality 0,__gxx_personality_v0
 4338              		.cfi_lsda 0,.LLSDA1665
 4339              	.LVL347:
 4340 0000 7C0802A6 		mflr 0
 4341 0004 9421FFE0 		stwu 1,-32(1)
 4342              	.LCFI73:
 4343              		.cfi_def_cfa_offset 32
 4344              		.cfi_register 65, 0
 4345              	.LBB3522:
 4346              	.LBB3523:
 4347              	.LBB3524:
 4348              		.loc 1 516 0
 4349 0008 3D200000 		lis 9,_ZTVN7sigslot9has_slotsINS_15single_threadedEEE+8@ha
 4350              	.LBE3524:
 4351              	.LBE3523:
 4352              	.LBE3522:
 4353              		.loc 1 513 0
 4354 000c 93810010 		stw 28,16(1)
 4355 0010 3B830004 		addi 28,3,4
 4356              		.cfi_offset 28, -16
 4357 0014 90010024 		stw 0,36(1)
 4358              	.LBB3608:
 4359              	.LBB3604:
 4360              	.LBB3600:
 4361              		.loc 1 516 0
 4362 0018 38090008 		la 0,_ZTVN7sigslot9has_slotsINS_15single_threadedEEE+8@l(9)
 4363              		.cfi_offset 65, 4
 4364              	.LBE3600:
 4365              	.LBE3604:
 4366              	.LBE3608:
 4367              		.loc 1 513 0
 4368 001c 93A10014 		stw 29,20(1)
 4369 0020 7C7D1B78 		mr 29,3
 4370              		.cfi_offset 29, -12
 4371              	.LVL348:
 4372 0024 93410008 		stw 26,8(1)
 4373 0028 9361000C 		stw 27,12(1)
 4374 002c 93C10018 		stw 30,24(1)
 4375 0030 93E1001C 		stw 31,28(1)
 4376              	.LBB3609:
 4377              	.LBB3605:
 4378              	.LBB3601:
 4379              		.loc 1 516 0
 4380 0034 90030000 		stw 0,0(3)
 4381              	.LVL349:
 4382              	.LEHB10:
 4383              	.LBB3525:
 4384              	.LBB3526:
 4385              	.LBB3527:
 4386              	.LBB3528:
 4387              		.loc 1 338 0
 4388              		.cfi_offset 31, -4
 4389              		.cfi_offset 30, -8
 4390              		.cfi_offset 27, -20
 4391              		.cfi_offset 26, -24
 4392 0038 48000001 		bl _ZN7sigslot15single_threaded4lockEv
 4393              	.LEHE10:
 4394              	.LVL350:
 4395              	.LBE3528:
 4396              	.LBE3527:
 4397              	.LBB3529:
 4398              		.loc 4 391 0
 4399 003c 83FD0010 		lwz 31,16(29)
 4400              	.LVL351:
 4401              	.LBE3529:
 4402              	.LBB3530:
 4403              	.LBB3531:
 4404              	.LBB3532:
 4405              		.loc 14 671 0
 4406 0040 3BDC0004 		addi 30,28,4
 4407              	.LVL352:
 4408              	.LBE3532:
 4409              	.LBE3531:
 4410              	.LBE3530:
 4411              		.loc 1 524 0
 4412 0044 7F9FF000 		cmpw 7,31,30
 4413 0048 419E0034 		beq- 7,.L271
 4414              	.LVL353:
 4415              	.L299:
 4416              		.loc 1 526 0
 4417 004c 807F0010 		lwz 3,16(31)
 4418 0050 7FA4EB78 		mr 4,29
 4419 0054 81230000 		lwz 9,0(3)
 4420 0058 80090010 		lwz 0,16(9)
 4421 005c 7C0903A6 		mtctr 0
 4422              	.LEHB11:
 4423 0060 4E800421 		bctrl
 4424              	.LEHE11:
 4425              	.LVL354:
 4426              	.LBB3533:
 4427              	.LBB3534:
 4428              		.loc 14 269 0
 4429 0064 7FE3FB78 		mr 3,31
 4430 0068 48000001 		bl _ZSt18_Rb_tree_incrementPKSt18_Rb_tree_node_base
 4431              	.LBE3534:
 4432              	.LBE3533:
 4433              		.loc 1 524 0
 4434 006c 7F9E1800 		cmpw 7,30,3
 4435              	.LBB3536:
 4436              	.LBB3535:
 4437              		.loc 14 269 0
 4438 0070 7C7F1B78 		mr 31,3
 4439              	.LVL355:
 4440              	.LBE3535:
 4441              	.LBE3536:
 4442              		.loc 1 524 0
 4443 0074 409EFFD8 		bne+ 7,.L299
 4444 0078 83FD0010 		lwz 31,16(29)
 4445              	.LVL356:
 4446              	.L271:
 4447              	.LBB3537:
 4448              	.LBB3538:
 4449              	.LBB3539:
 4450              	.LBB3540:
 4451              	.LBB3541:
 4452              	.LBB3542:
 4453              	.LBB3543:
 4454              		.loc 14 665 0
 4455 007c 3B5C0004 		addi 26,28,4
 4456              	.LBE3543:
 4457              	.LBE3542:
 4458              		.loc 14 1500 0
 4459 0080 7F9ED000 		cmpw 7,30,26
 4460 0084 419E00A0 		beq- 7,.L273
 4461              	.LVL357:
 4462              		.loc 14 1503 0
 4463 0088 7F9EF800 		cmpw 7,30,31
 4464 008c 40BE000C 		bne+ 7,.L301
 4465 0090 48000038 		b .L274
 4466              	.LVL358:
 4467              	.L296:
 4468              		.loc 14 277 0
 4469 0094 7F7FDB78 		mr 31,27
 4470              	.LVL359:
 4471              	.L301:
 4472              	.LBB3544:
 4473              	.LBB3545:
 4474 0098 7FE3FB78 		mr 3,31
 4475 009c 48000001 		bl _ZSt18_Rb_tree_incrementPKSt18_Rb_tree_node_base
 4476              	.LBE3545:
 4477              	.LBE3544:
 4478              	.LBB3547:
 4479              	.LBB3548:
 4480              	.LBB3549:
 4481              		.loc 14 1489 0
 4482 00a0 7F44D378 		mr 4,26
 4483              	.LBE3549:
 4484              	.LBE3548:
 4485              	.LBE3547:
 4486              	.LBB3558:
 4487              	.LBB3546:
 4488              		.loc 14 277 0
 4489 00a4 7C7B1B78 		mr 27,3
 4490              	.LVL360:
 4491              	.LBE3546:
 4492              	.LBE3558:
 4493              	.LBB3559:
 4494              	.LBB3556:
 4495              	.LBB3554:
 4496              		.loc 14 1489 0
 4497 00a8 7FE3FB78 		mr 3,31
 4498              	.LVL361:
 4499 00ac 48000001 		bl _ZSt28_Rb_tree_rebalance_for_erasePSt18_Rb_tree_node_baseRS_
 4500              	.LBB3550:
 4501              	.LBB3551:
 4502              	.LBB3552:
 4503              	.LBB3553:
 4504              		.loc 11 98 0
 4505 00b0 48000001 		bl _ZdlPv
 4506              	.LBE3553:
 4507              	.LBE3552:
 4508              	.LBE3551:
 4509              	.LBE3550:
 4510              	.LBE3554:
 4511              	.LBE3556:
 4512              	.LBE3559:
 4513              		.loc 14 1503 0
 4514 00b4 7F9ED800 		cmpw 7,30,27
 4515              	.LBB3560:
 4516              	.LBB3557:
 4517              	.LBB3555:
 4518              		.loc 14 1491 0
 4519 00b8 813C0014 		lwz 9,20(28)
 4520 00bc 3809FFFF 		addi 0,9,-1
 4521 00c0 901C0014 		stw 0,20(28)
 4522              	.LBE3555:
 4523              	.LBE3557:
 4524              	.LBE3560:
 4525              		.loc 14 1503 0
 4526 00c4 409EFFD0 		bne+ 7,.L296
 4527              	.LVL362:
 4528              	.L274:
 4529              	.LBE3541:
 4530              	.LBE3540:
 4531              	.LBE3539:
 4532              	.LBE3538:
 4533              	.LBE3537:
 4534              	.LBB3569:
 4535              	.LBB3570:
 4536              	.LBB3571:
 4537              		.loc 1 343 0
 4538 00c8 813D0000 		lwz 9,0(29)
 4539 00cc 7FA3EB78 		mr 3,29
 4540 00d0 8009000C 		lwz 0,12(9)
 4541 00d4 7C0903A6 		mtctr 0
 4542              	.LEHB12:
 4543 00d8 4E800421 		bctrl
 4544              	.LEHE12:
 4545              	.LVL363:
 4546              	.LBE3571:
 4547              	.LBE3570:
 4548              	.LBE3569:
 4549              	.LBE3526:
 4550              	.LBE3525:
 4551              	.LBB3578:
 4552              	.LBB3579:
 4553              	.LBB3580:
 4554              	.LBB3581:
 4555              	.LBB3582:
 4556              		.loc 14 639 0
 4557 00dc 809D000C 		lwz 4,12(29)
 4558 00e0 7F83E378 		mr 3,28
 4559 00e4 48000001 		bl _ZNSt8_Rb_treeIPN7sigslot12_signal_baseINS0_15single_threadedEEES4_St9_IdentityIS4_ESt4lessIS4_
 4560              	.LVL364:
 4561              	.LBE3582:
 4562              	.LBE3581:
 4563              	.LBE3580:
 4564              	.LBE3579:
 4565              	.LBE3578:
 4566              	.LBB3583:
 4567              	.LBB3584:
 4568              	.LBB3585:
 4569              		.loc 1 105 0
 4570 00e8 3D200000 		lis 9,_ZTVN7sigslot15single_threadedE+8@ha
 4571 00ec 38090008 		la 0,_ZTVN7sigslot15single_threadedE+8@l(9)
 4572              	.LBE3585:
 4573              	.LBE3584:
 4574              	.LBE3583:
 4575              	.LBE3601:
 4576              	.LBE3605:
 4577              	.LBE3609:
 4578              		.loc 1 516 0
 4579 00f0 7FA3EB78 		mr 3,29
 4580              	.LBB3610:
 4581              	.LBB3606:
 4582              	.LBB3602:
 4583              	.LBB3588:
 4584              	.LBB3587:
 4585              	.LBB3586:
 4586              		.loc 1 105 0
 4587 00f4 901D0000 		stw 0,0(29)
 4588              	.LBE3586:
 4589              	.LBE3587:
 4590              	.LBE3588:
 4591              	.LBE3602:
 4592              	.LBE3606:
 4593              	.LBE3610:
 4594              		.loc 1 516 0
 4595 00f8 48000001 		bl _ZdlPv
 4596 00fc 80010024 		lwz 0,36(1)
 4597 0100 83410008 		lwz 26,8(1)
 4598 0104 7C0803A6 		mtlr 0
 4599 0108 8361000C 		lwz 27,12(1)
 4600 010c 83810010 		lwz 28,16(1)
 4601              	.LVL365:
 4602 0110 83A10014 		lwz 29,20(1)
 4603              	.LVL366:
 4604 0114 83C10018 		lwz 30,24(1)
 4605              	.LVL367:
 4606 0118 83E1001C 		lwz 31,28(1)
 4607 011c 38210020 		addi 1,1,32
 4608              		.cfi_remember_state
 4609              	.LCFI74:
 4610              		.cfi_def_cfa_offset 0
 4611              		.cfi_restore 31
 4612              		.cfi_restore 30
 4613              		.cfi_restore 29
 4614              		.cfi_restore 28
 4615              		.cfi_restore 27
 4616              		.cfi_restore 26
 4617 0120 4E800020 		blr
 4618              	.LVL368:
 4619              	.L273:
 4620              	.LCFI75:
 4621              		.cfi_restore_state
 4622              	.LBB3611:
 4623              	.LBB3607:
 4624              	.LBB3603:
 4625              	.LBB3589:
 4626              	.LBB3576:
 4627              	.LBB3572:
 4628              	.LBB3568:
 4629              	.LBB3567:
 4630              	.LBB3566:
 4631              	.LBB3565:
 4632              	.LBB3561:
 4633              	.LBB3562:
 4634              	.LBB3563:
 4635              	.LBB3564:
 4636              		.loc 14 809 0
 4637 0124 809D000C 		lwz 4,12(29)
 4638 0128 7F83E378 		mr 3,28
 4639 012c 48000001 		bl _ZNSt8_Rb_treeIPN7sigslot12_signal_baseINS0_15single_threadedEEES4_St9_IdentityIS4_ESt4lessIS4_
 4640              	.LVL369:
 4641              		.loc 14 811 0
 4642 0130 38000000 		li 0,0
 4643              		.loc 14 810 0
 4644 0134 93DD0010 		stw 30,16(29)
 4645              	.LVL370:
 4646              		.loc 14 811 0
 4647 0138 901D000C 		stw 0,12(29)
 4648              	.LVL371:
 4649              		.loc 14 812 0
 4650 013c 93DD0014 		stw 30,20(29)
 4651              		.loc 14 813 0
 4652 0140 901D0018 		stw 0,24(29)
 4653 0144 4BFFFF84 		b .L274
 4654              	.LVL372:
 4655              	.L297:
 4656 0148 7C7F1B78 		mr 31,3
 4657              	.L281:
 4658              	.LVL373:
 4659              	.LBE3564:
 4660              	.LBE3563:
 4661              	.LBE3562:
 4662              	.LBE3561:
 4663              	.LBE3565:
 4664              	.LBE3566:
 4665              	.LBE3567:
 4666              	.LBE3568:
 4667              	.LBE3572:
 4668              	.LBE3576:
 4669              	.LBE3589:
 4670              	.LBB3590:
 4671              	.LBB3591:
 4672              	.LBB3592:
 4673              	.LBB3593:
 4674              	.LBB3594:
 4675              	.LBB3595:
 4676              		.loc 14 639 0
 4677 014c 809D000C 		lwz 4,12(29)
 4678 0150 7F83E378 		mr 3,28
 4679 0154 48000001 		bl _ZNSt8_Rb_treeIPN7sigslot12_signal_baseINS0_15single_threadedEEES4_St9_IdentityIS4_ESt4lessIS4_
 4680              	.LVL374:
 4681              	.LBE3595:
 4682              	.LBE3594:
 4683              	.LBE3593:
 4684              	.LBE3592:
 4685              	.LBE3591:
 4686              	.LBE3590:
 4687              	.LBB3596:
 4688              	.LBB3597:
 4689              	.LBB3598:
 4690              		.loc 1 105 0
 4691 0158 3D200000 		lis 9,_ZTVN7sigslot15single_threadedE+8@ha
 4692 015c 38090008 		la 0,_ZTVN7sigslot15single_threadedE+8@l(9)
 4693 0160 7FE3FB78 		mr 3,31
 4694 0164 901D0000 		stw 0,0(29)
 4695              	.LEHB13:
 4696 0168 48000001 		bl _Unwind_Resume
 4697              	.LEHE13:
 4698              	.LVL375:
 4699              	.L298:
 4700              	.LBE3598:
 4701              	.LBE3597:
 4702              	.LBE3596:
 4703              	.LBB3599:
 4704              	.LBB3577:
 4705              	.LBB3573:
 4706              	.LBB3574:
 4707              	.LBB3575:
 4708              		.loc 1 343 0
 4709 016c 813D0000 		lwz 9,0(29)
 4710 0170 7C7F1B78 		mr 31,3
 4711              	.LVL376:
 4712 0174 7FA3EB78 		mr 3,29
 4713 0178 8009000C 		lwz 0,12(9)
 4714 017c 7C0903A6 		mtctr 0
 4715 0180 4E800421 		bctrl
 4716 0184 4BFFFFC8 		b .L281
 4717              	.LBE3575:
 4718              	.LBE3574:
 4719              	.LBE3573:
 4720              	.LBE3577:
 4721              	.LBE3599:
 4722              	.LBE3603:
 4723              	.LBE3607:
 4724              	.LBE3611:
 4725              		.cfi_endproc
 4726              	.LFE1665:
 4727              		.section	.gcc_except_table
 4728              	.LLSDA1665:
 4729 0040 FF       		.byte	0xff
 4730 0041 FF       		.byte	0xff
 4731 0042 01       		.byte	0x1
 4732 0043 15       		.uleb128 .LLSDACSE1665-.LLSDACSB1665
 4733              	.LLSDACSB1665:
 4734 0044 38       		.uleb128 .LEHB10-.LFB1665
 4735 0045 04       		.uleb128 .LEHE10-.LEHB10
 4736 0046 C802     		.uleb128 .L297-.LFB1665
 4737 0048 00       		.uleb128 0
 4738 0049 60       		.uleb128 .LEHB11-.LFB1665
 4739 004a 04       		.uleb128 .LEHE11-.LEHB11
 4740 004b EC02     		.uleb128 .L298-.LFB1665
 4741 004d 00       		.uleb128 0
 4742 004e D801     		.uleb128 .LEHB12-.LFB1665
 4743 0050 04       		.uleb128 .LEHE12-.LEHB12
 4744 0051 C802     		.uleb128 .L297-.LFB1665
 4745 0053 00       		.uleb128 0
 4746 0054 E802     		.uleb128 .LEHB13-.LFB1665
 4747 0056 04       		.uleb128 .LEHE13-.LEHB13
 4748 0057 00       		.uleb128 0
 4749 0058 00       		.uleb128 0
 4750              	.LLSDACSE1665:
 4751              		.section	.text._ZN7sigslot9has_slotsINS_15single_threadedEED0Ev,"axG",@progbits,_ZN7sigslot9has_sl
 4752              		.size	_ZN7sigslot9has_slotsINS_15single_threadedEED0Ev, .-_ZN7sigslot9has_slotsINS_15single_thread
 4753              		.section	".text"
 4754              		.align 2
 4755              		.globl _ZThn176_N10TextEditorD1Ev
 4756              		.type	_ZThn176_N10TextEditorD1Ev, @function
 4757              	_ZThn176_N10TextEditorD1Ev:
 4758              	.LFB2335:
 4759              		.cfi_startproc
 4760 0688 3863FF50 		addi 3,3,-176
 4761 068c 48000004 		b .LTHUNK0
 4762              		.cfi_endproc
 4763              	.LFE2335:
 4764              		.size	_ZThn176_N10TextEditorD1Ev, .-_ZThn176_N10TextEditorD1Ev
 4765              		.align 2
 4766              		.globl _ZN10TextEditorD2Ev
 4767              		.type	_ZN10TextEditorD2Ev, @function
 4768              	_ZN10TextEditorD2Ev:
 4769              	.LFB1599:
 4770              		.loc 4 124 0
 4771              		.cfi_startproc
 4772              		.cfi_personality 0,__gxx_personality_v0
 4773              		.cfi_lsda 0,.LLSDA1599
 4774              	.LVL377:
 4775 0690 7C0802A6 		mflr 0
 4776 0694 9421FFE8 		stwu 1,-24(1)
 4777              	.LCFI76:
 4778              		.cfi_def_cfa_offset 24
 4779              		.cfi_register 65, 0
 4780              	.LBB3706:
 4781 0698 3D200000 		lis 9,_ZTV10TextEditor+8@ha
 4782 069c 39290008 		la 9,_ZTV10TextEditor+8@l(9)
 4783              	.LBE3706:
 4784 06a0 93C10010 		stw 30,16(1)
 4785 06a4 9001001C 		stw 0,28(1)
 4786              	.LBB3796:
 4787 06a8 380900E4 		addi 0,9,228
 4788              		.cfi_offset 65, 4
 4789              		.cfi_offset 30, -8
 4790              	.LBE3796:
 4791 06ac 93810008 		stw 28,8(1)
 4792 06b0 7C7E1B78 		mr 30,3
 4793 06b4 93A1000C 		stw 29,12(1)
 4794 06b8 93E10014 		stw 31,20(1)
 4795              	.LBB3797:
 4796              		.loc 4 124 0
 4797 06bc 91230000 		stw 9,0(3)
 4798 06c0 900300B0 		stw 0,176(3)
 4799              	.LEHB14:
 4800              		.loc 4 126 0
 4801              		.cfi_offset 31, -4
 4802              		.cfi_offset 29, -12
 4803              		.cfi_offset 28, -16
 4804 06c4 48000001 		bl _ZN8GuiFrame9RemoveAllEv
 4805              	.LVL378:
 4806              		.loc 4 128 0
 4807 06c8 807E00E0 		lwz 3,224(30)
 4808 06cc 2F830000 		cmpwi 7,3,0
 4809 06d0 419E0014 		beq- 7,.L304
 4810              		.loc 4 128 0 is_stmt 0 discriminator 1
 4811 06d4 81230000 		lwz 9,0(3)
 4812 06d8 80090004 		lwz 0,4(9)
 4813 06dc 7C0903A6 		mtctr 0
 4814 06e0 4E800421 		bctrl
 4815              	.L304:
 4816              		.loc 4 131 0 is_stmt 1
 4817 06e4 807E00E4 		lwz 3,228(30)
 4818 06e8 2F830000 		cmpwi 7,3,0
 4819 06ec 419E0014 		beq- 7,.L305
 4820              		.loc 4 131 0 is_stmt 0 discriminator 1
 4821 06f0 81230000 		lwz 9,0(3)
 4822 06f4 80090004 		lwz 0,4(9)
 4823 06f8 7C0903A6 		mtctr 0
 4824 06fc 4E800421 		bctrl
 4825              	.L305:
 4826              		.loc 4 132 0 is_stmt 1
 4827 0700 807E00EC 		lwz 3,236(30)
 4828 0704 2F830000 		cmpwi 7,3,0
 4829 0708 419E0014 		beq- 7,.L306
 4830              		.loc 4 133 0 discriminator 1
 4831 070c 81230000 		lwz 9,0(3)
 4832 0710 80090004 		lwz 0,4(9)
 4833 0714 7C0903A6 		mtctr 0
 4834 0718 4E800421 		bctrl
 4835              	.L306:
 4836              		.loc 4 136 0
 4837 071c 807E00F0 		lwz 3,240(30)
 4838 0720 2F830000 		cmpwi 7,3,0
 4839 0724 419E0014 		beq- 7,.L307
 4840              		.loc 4 136 0 is_stmt 0 discriminator 1
 4841 0728 81230000 		lwz 9,0(3)
 4842 072c 80090004 		lwz 0,4(9)
 4843 0730 7C0903A6 		mtctr 0
 4844 0734 4E800421 		bctrl
 4845              	.L307:
 4846              		.loc 4 139 0 is_stmt 1
 4847 0738 807E00F4 		lwz 3,244(30)
 4848 073c 48000001 		bl _ZN9Resources6RemoveEP12GuiImageData
 4849              		.loc 4 142 0
 4850 0740 807E00F8 		lwz 3,248(30)
 4851 0744 48000001 		bl _ZN9Resources6RemoveEP8GuiSound
 4852              		.loc 4 143 0
 4853 0748 807E00FC 		lwz 3,252(30)
 4854 074c 48000001 		bl _ZN9Resources6RemoveEP8GuiSound
 4855              		.loc 4 146 0
 4856 0750 807E0104 		lwz 3,260(30)
 4857 0754 2F830000 		cmpwi 7,3,0
 4858 0758 419E0014 		beq- 7,.L308
 4859              		.loc 4 146 0 is_stmt 0 discriminator 1
 4860 075c 81230000 		lwz 9,0(3)
 4861 0760 80090004 		lwz 0,4(9)
 4862 0764 7C0903A6 		mtctr 0
 4863 0768 4E800421 		bctrl
 4864              	.L308:
 4865              		.loc 4 147 0 is_stmt 1
 4866 076c 807E0100 		lwz 3,256(30)
 4867 0770 2F830000 		cmpwi 7,3,0
 4868 0774 419E0014 		beq- 7,.L309
 4869              		.loc 4 147 0 is_stmt 0 discriminator 1
 4870 0778 81230000 		lwz 9,0(3)
 4871 077c 80090004 		lwz 0,4(9)
 4872 0780 7C0903A6 		mtctr 0
 4873 0784 4E800421 		bctrl
 4874              	.L309:
 4875              		.loc 4 148 0 is_stmt 1
 4876 0788 807E010C 		lwz 3,268(30)
 4877 078c 2F830000 		cmpwi 7,3,0
 4878 0790 419E0014 		beq- 7,.L310
 4879              		.loc 4 148 0 is_stmt 0 discriminator 1
 4880 0794 81230000 		lwz 9,0(3)
 4881 0798 80090004 		lwz 0,4(9)
 4882 079c 7C0903A6 		mtctr 0
 4883 07a0 4E800421 		bctrl
 4884              	.L310:
 4885              		.loc 4 149 0 is_stmt 1
 4886 07a4 807E00E8 		lwz 3,232(30)
 4887 07a8 2F830000 		cmpwi 7,3,0
 4888 07ac 419E0014 		beq- 7,.L311
 4889              		.loc 4 150 0 discriminator 1
 4890 07b0 81230000 		lwz 9,0(3)
 4891 07b4 80090004 		lwz 0,4(9)
 4892 07b8 7C0903A6 		mtctr 0
 4893 07bc 4E800421 		bctrl
 4894              	.L311:
 4895              		.loc 4 153 0
 4896 07c0 807E0110 		lwz 3,272(30)
 4897 07c4 2F830000 		cmpwi 7,3,0
 4898 07c8 419E0014 		beq- 7,.L312
 4899              		.loc 4 153 0 is_stmt 0 discriminator 1
 4900 07cc 81230000 		lwz 9,0(3)
 4901 07d0 80090004 		lwz 0,4(9)
 4902 07d4 7C0903A6 		mtctr 0
 4903 07d8 4E800421 		bctrl
 4904              	.L312:
 4905              		.loc 4 154 0 is_stmt 1
 4906 07dc 807E0114 		lwz 3,276(30)
 4907 07e0 2F830000 		cmpwi 7,3,0
 4908 07e4 419E0014 		beq- 7,.L313
 4909              		.loc 4 154 0 is_stmt 0 discriminator 1
 4910 07e8 81230000 		lwz 9,0(3)
 4911 07ec 80090004 		lwz 0,4(9)
 4912 07f0 7C0903A6 		mtctr 0
 4913 07f4 4E800421 		bctrl
 4914              	.LEHE14:
 4915              	.L313:
 4916              		.loc 4 155 0 is_stmt 1
 4917 07f8 807E00D8 		lwz 3,216(30)
 4918 07fc 2F830000 		cmpwi 7,3,0
 4919 0800 419E0008 		beq- 7,.L314
 4920              		.loc 4 155 0 is_stmt 0 discriminator 1
 4921 0804 48000001 		bl _ZdaPv
 4922              	.L314:
 4923              	.LBB3707:
 4924              	.LBB3708:
 4925              	.LBB3709:
 4926              		.loc 1 516 0 is_stmt 1
 4927 0808 3D200000 		lis 9,_ZTVN7sigslot9has_slotsINS_15single_threadedEEE+8@ha
 4928              	.LBE3709:
 4929              	.LBE3708:
 4930              	.LBE3707:
 4931              		.loc 4 124 0
 4932 080c 3B9E00B0 		addi 28,30,176
 4933              	.LVL379:
 4934              	.LBB3793:
 4935              	.LBB3790:
 4936              	.LBB3787:
 4937              		.loc 1 516 0
 4938 0810 38090008 		la 0,_ZTVN7sigslot9has_slotsINS_15single_threadedEEE+8@l(9)
 4939              	.LBB3710:
 4940              	.LBB3711:
 4941              	.LBB3712:
 4942              	.LBB3713:
 4943              		.loc 1 338 0
 4944 0814 7F83E378 		mr 3,28
 4945              	.LBE3713:
 4946              	.LBE3712:
 4947              	.LBE3711:
 4948              	.LBE3710:
 4949              		.loc 1 516 0
 4950 0818 901E00B0 		stw 0,176(30)
 4951              	.LVL380:
 4952 081c 3BFE00B4 		addi 31,30,180
 4953              	.LEHB15:
 4954              	.LBB3765:
 4955              	.LBB3763:
 4956              	.LBB3715:
 4957              	.LBB3714:
 4958              		.loc 1 338 0
 4959 0820 48000001 		bl _ZN7sigslot15single_threaded4lockEv
 4960              	.LEHE15:
 4961              	.LVL381:
 4962              	.LBE3714:
 4963              	.LBE3715:
 4964              	.LBB3716:
 4965              		.loc 4 391 0
 4966 0824 83FE00C0 		lwz 31,192(30)
 4967              	.LVL382:
 4968              	.LBE3716:
 4969              	.LBB3717:
 4970              	.LBB3718:
 4971              	.LBB3719:
 4972              		.loc 14 671 0
 4973 0828 3BBE00B8 		addi 29,30,184
 4974              	.LVL383:
 4975              	.LBE3719:
 4976              	.LBE3718:
 4977              	.LBE3717:
 4978              		.loc 1 524 0
 4979 082c 7F9FE800 		cmpw 7,31,29
 4980 0830 419E0030 		beq- 7,.L315
 4981              	.LVL384:
 4982              	.L346:
 4983              		.loc 1 526 0
 4984 0834 807F0010 		lwz 3,16(31)
 4985 0838 7F84E378 		mr 4,28
 4986 083c 81230000 		lwz 9,0(3)
 4987 0840 80090010 		lwz 0,16(9)
 4988 0844 7C0903A6 		mtctr 0
 4989              	.LEHB16:
 4990 0848 4E800421 		bctrl
 4991              	.LEHE16:
 4992              	.LVL385:
 4993              	.LBB3720:
 4994              	.LBB3721:
 4995              		.loc 14 269 0
 4996 084c 7FE3FB78 		mr 3,31
 4997 0850 48000001 		bl _ZSt18_Rb_tree_incrementPKSt18_Rb_tree_node_base
 4998              	.LBE3721:
 4999              	.LBE3720:
 5000              		.loc 1 524 0
 5001 0854 7F9D1800 		cmpw 7,29,3
 5002              	.LBB3723:
 5003              	.LBB3722:
 5004              		.loc 14 269 0
 5005 0858 7C7F1B78 		mr 31,3
 5006              	.LVL386:
 5007              	.LBE3722:
 5008              	.LBE3723:
 5009              		.loc 1 524 0
 5010 085c 409EFFD8 		bne+ 7,.L346
 5011              	.LVL387:
 5012              	.L315:
 5013              	.LBB3724:
 5014              	.LBB3725:
 5015              		.file 15 "d:\\devkitpro\\devkitppc\\bin\\../lib/gcc/powerpc-eabi/4.6.3/../../../../powerpc-eabi/in
 5016              		.loc 15 562 0
 5017 0860 3BFE00B4 		addi 31,30,180
 5018              	.LVL388:
 5019              	.LBB3726:
 5020              	.LBB3727:
 5021              	.LBB3728:
 5022              	.LBB3729:
 5023              	.LBB3730:
 5024              	.LBB3731:
 5025              	.LBB3732:
 5026              		.loc 14 809 0
 5027 0864 809E00BC 		lwz 4,188(30)
 5028 0868 7FE3FB78 		mr 3,31
 5029 086c 48000001 		bl _ZNSt8_Rb_treeIPN7sigslot12_signal_baseINS0_15single_threadedEEES4_St9_IdentityIS4_ESt4lessIS4_
 5030              	.LVL389:
 5031              		.loc 14 811 0
 5032 0870 38000000 		li 0,0
 5033              		.loc 14 810 0
 5034 0874 93BE00C0 		stw 29,192(30)
 5035              	.LVL390:
 5036              	.LBE3732:
 5037              	.LBE3731:
 5038              	.LBE3730:
 5039              	.LBE3729:
 5040              	.LBE3728:
 5041              	.LBE3727:
 5042              	.LBE3726:
 5043              	.LBE3725:
 5044              	.LBE3724:
 5045              	.LBB3749:
 5046              	.LBB3750:
 5047              	.LBB3751:
 5048              		.loc 1 343 0
 5049 0878 7F83E378 		mr 3,28
 5050              	.LBE3751:
 5051              	.LBE3750:
 5052              	.LBE3749:
 5053              	.LBB3756:
 5054              	.LBB3747:
 5055              	.LBB3745:
 5056              	.LBB3743:
 5057              	.LBB3741:
 5058              	.LBB3739:
 5059              	.LBB3737:
 5060              	.LBB3735:
 5061              	.LBB3733:
 5062              		.loc 14 811 0
 5063 087c 901E00BC 		stw 0,188(30)
 5064              	.LVL391:
 5065              		.loc 14 812 0
 5066 0880 93BE00C4 		stw 29,196(30)
 5067              	.LBE3733:
 5068              	.LBE3735:
 5069              	.LBE3737:
 5070              	.LBE3739:
 5071              	.LBE3741:
 5072              	.LBE3743:
 5073              	.LBE3745:
 5074              	.LBE3747:
 5075              	.LBE3756:
 5076              	.LBB3757:
 5077              	.LBB3754:
 5078              	.LBB3752:
 5079              		.loc 1 343 0
 5080 0884 813E00B0 		lwz 9,176(30)
 5081              	.LBE3752:
 5082              	.LBE3754:
 5083              	.LBE3757:
 5084              	.LBB3758:
 5085              	.LBB3748:
 5086              	.LBB3746:
 5087              	.LBB3744:
 5088              	.LBB3742:
 5089              	.LBB3740:
 5090              	.LBB3738:
 5091              	.LBB3736:
 5092              	.LBB3734:
 5093              		.loc 14 813 0
 5094 0888 901E00C8 		stw 0,200(30)
 5095              	.LVL392:
 5096              	.LBE3734:
 5097              	.LBE3736:
 5098              	.LBE3738:
 5099              	.LBE3740:
 5100              	.LBE3742:
 5101              	.LBE3744:
 5102              	.LBE3746:
 5103              	.LBE3748:
 5104              	.LBE3758:
 5105              	.LBB3759:
 5106              	.LBB3755:
 5107              	.LBB3753:
 5108              		.loc 1 343 0
 5109 088c 8009000C 		lwz 0,12(9)
 5110 0890 7C0903A6 		mtctr 0
 5111              	.LEHB17:
 5112 0894 4E800421 		bctrl
 5113              	.LEHE17:
 5114              	.LVL393:
 5115              	.LBE3753:
 5116              	.LBE3755:
 5117              	.LBE3759:
 5118              	.LBE3763:
 5119              	.LBE3765:
 5120              	.LBB3766:
 5121              	.LBB3767:
 5122              	.LBB3768:
 5123              	.LBB3769:
 5124              	.LBB3770:
 5125              		.loc 14 639 0
 5126 0898 809E00BC 		lwz 4,188(30)
 5127 089c 7FE3FB78 		mr 3,31
 5128 08a0 48000001 		bl _ZNSt8_Rb_treeIPN7sigslot12_signal_baseINS0_15single_threadedEEES4_St9_IdentityIS4_ESt4lessIS4_
 5129              	.LBE3770:
 5130              	.LBE3769:
 5131              	.LBE3768:
 5132              	.LBE3767:
 5133              	.LBE3766:
 5134              	.LBB3771:
 5135              	.LBB3772:
 5136              	.LBB3773:
 5137              		.loc 1 105 0
 5138 08a4 3D200000 		lis 9,_ZTVN7sigslot15single_threadedE+8@ha
 5139 08a8 38090008 		la 0,_ZTVN7sigslot15single_threadedE+8@l(9)
 5140              	.LBE3773:
 5141              	.LBE3772:
 5142              	.LBE3771:
 5143              	.LBE3787:
 5144              	.LBE3790:
 5145              	.LBE3793:
 5146              		.loc 4 124 0
 5147 08ac 7FC3F378 		mr 3,30
 5148              	.LBB3794:
 5149              	.LBB3791:
 5150              	.LBB3788:
 5151              	.LBB3776:
 5152              	.LBB3775:
 5153              	.LBB3774:
 5154              		.loc 1 105 0
 5155 08b0 901E00B0 		stw 0,176(30)
 5156              	.LEHB18:
 5157              	.LBE3774:
 5158              	.LBE3775:
 5159              	.LBE3776:
 5160              	.LBE3788:
 5161              	.LBE3791:
 5162              	.LBE3794:
 5163              		.loc 4 124 0
 5164 08b4 48000001 		bl _ZN8GuiFrameD2Ev
 5165              	.LEHE18:
 5166              	.LBE3797:
 5167              		.loc 4 156 0
 5168 08b8 8001001C 		lwz 0,28(1)
 5169 08bc 83810008 		lwz 28,8(1)
 5170              	.LVL394:
 5171 08c0 7C0803A6 		mtlr 0
 5172 08c4 83A1000C 		lwz 29,12(1)
 5173              	.LVL395:
 5174 08c8 83C10010 		lwz 30,16(1)
 5175              	.LVL396:
 5176 08cc 83E10014 		lwz 31,20(1)
 5177              	.LVL397:
 5178 08d0 38210018 		addi 1,1,24
 5179              		.cfi_remember_state
 5180              	.LCFI77:
 5181              		.cfi_def_cfa_offset 0
 5182              		.cfi_restore 31
 5183              		.cfi_restore 30
 5184              		.cfi_restore 29
 5185              		.cfi_restore 28
 5186 08d4 4E800020 		blr
 5187              	.LVL398:
 5188              	.L343:
 5189              	.LCFI78:
 5190              		.cfi_restore_state
 5191 08d8 7C7D1B78 		mr 29,3
 5192              	.LBB3798:
 5193              		.loc 4 124 0
 5194 08dc 387E00B0 		addi 3,30,176
 5195 08e0 48000001 		bl _ZN7sigslot9has_slotsINS_15single_threadedEED2Ev
 5196              	.L338:
 5197 08e4 7FC3F378 		mr 3,30
 5198 08e8 48000001 		bl _ZN8GuiFrameD2Ev
 5199 08ec 7FA3EB78 		mr 3,29
 5200              	.LEHB19:
 5201 08f0 48000001 		bl _Unwind_Resume
 5202              	.LEHE19:
 5203              	.LVL399:
 5204              	.L345:
 5205              	.LBB3795:
 5206              	.LBB3792:
 5207              	.LBB3789:
 5208              	.LBB3777:
 5209              	.LBB3764:
 5210              	.LBB3760:
 5211              	.LBB3761:
 5212              	.LBB3762:
 5213              		.loc 1 343 0
 5214 08f4 813E00B0 		lwz 9,176(30)
 5215 08f8 7C7D1B78 		mr 29,3
 5216              	.LVL400:
 5217 08fc 7F83E378 		mr 3,28
 5218 0900 3BFE00B4 		addi 31,30,180
 5219              	.LVL401:
 5220 0904 8009000C 		lwz 0,12(9)
 5221 0908 7C0903A6 		mtctr 0
 5222 090c 4E800421 		bctrl
 5223              	.LVL402:
 5224              	.L325:
 5225              	.LBE3762:
 5226              	.LBE3761:
 5227              	.LBE3760:
 5228              	.LBE3764:
 5229              	.LBE3777:
 5230              	.LBB3778:
 5231              	.LBB3779:
 5232              	.LBB3780:
 5233              	.LBB3781:
 5234              	.LBB3782:
 5235              	.LBB3783:
 5236              		.loc 14 639 0
 5237 0910 809E00BC 		lwz 4,188(30)
 5238 0914 7FE3FB78 		mr 3,31
 5239 0918 48000001 		bl _ZNSt8_Rb_treeIPN7sigslot12_signal_baseINS0_15single_threadedEEES4_St9_IdentityIS4_ESt4lessIS4_
 5240              	.LBE3783:
 5241              	.LBE3782:
 5242              	.LBE3781:
 5243              	.LBE3780:
 5244              	.LBE3779:
 5245              	.LBE3778:
 5246              	.LBB3784:
 5247              	.LBB3785:
 5248              	.LBB3786:
 5249              		.loc 1 105 0
 5250 091c 3D200000 		lis 9,_ZTVN7sigslot15single_threadedE+8@ha
 5251 0920 38090008 		la 0,_ZTVN7sigslot15single_threadedE+8@l(9)
 5252 0924 901E00B0 		stw 0,176(30)
 5253 0928 4BFFFFBC 		b .L338
 5254              	.LVL403:
 5255              	.L344:
 5256 092c 7C7D1B78 		mr 29,3
 5257 0930 4BFFFFE0 		b .L325
 5258              	.LBE3786:
 5259              	.LBE3785:
 5260              	.LBE3784:
 5261              	.LBE3789:
 5262              	.LBE3792:
 5263              	.LBE3795:
 5264              	.LBE3798:
 5265              		.cfi_endproc
 5266              	.LFE1599:
 5267              		.section	.gcc_except_table
 5268              	.LLSDA1599:
 5269 0059 FF       		.byte	0xff
 5270 005a FF       		.byte	0xff
 5271 005b 01       		.byte	0x1
 5272 005c 22       		.uleb128 .LLSDACSE1599-.LLSDACSB1599
 5273              	.LLSDACSB1599:
 5274 005d 34       		.uleb128 .LEHB14-.LFB1599
 5275 005e B402     		.uleb128 .LEHE14-.LEHB14
 5276 0060 C804     		.uleb128 .L343-.LFB1599
 5277 0062 00       		.uleb128 0
 5278 0063 9003     		.uleb128 .LEHB15-.LFB1599
 5279 0065 04       		.uleb128 .LEHE15-.LEHB15
 5280 0066 9C05     		.uleb128 .L344-.LFB1599
 5281 0068 00       		.uleb128 0
 5282 0069 B803     		.uleb128 .LEHB16-.LFB1599
 5283 006b 04       		.uleb128 .LEHE16-.LEHB16
 5284 006c E404     		.uleb128 .L345-.LFB1599
 5285 006e 00       		.uleb128 0
 5286 006f 8404     		.uleb128 .LEHB17-.LFB1599
 5287 0071 04       		.uleb128 .LEHE17-.LEHB17
 5288 0072 9C05     		.uleb128 .L344-.LFB1599
 5289 0074 00       		.uleb128 0
 5290 0075 A404     		.uleb128 .LEHB18-.LFB1599
 5291 0077 04       		.uleb128 .LEHE18-.LEHB18
 5292 0078 00       		.uleb128 0
 5293 0079 00       		.uleb128 0
 5294 007a E004     		.uleb128 .LEHB19-.LFB1599
 5295 007c 04       		.uleb128 .LEHE19-.LEHB19
 5296 007d 00       		.uleb128 0
 5297 007e 00       		.uleb128 0
 5298              	.LLSDACSE1599:
 5299              		.section	".text"
 5300              		.size	_ZN10TextEditorD2Ev, .-_ZN10TextEditorD2Ev
 5301              		.align 2
 5302              		.globl _ZThn176_N10TextEditorD0Ev
 5303              		.type	_ZThn176_N10TextEditorD0Ev, @function
 5304              	_ZThn176_N10TextEditorD0Ev:
 5305              	.LFB2336:
 5306              		.cfi_startproc
 5307 0934 3863FF50 		addi 3,3,-176
 5308 0938 48000004 		b .LTHUNK1
 5309              		.cfi_endproc
 5310              	.LFE2336:
 5311              		.size	_ZThn176_N10TextEditorD0Ev, .-_ZThn176_N10TextEditorD0Ev
 5312              		.align 2
 5313              		.globl _ZN10TextEditorD0Ev
 5314              		.type	_ZN10TextEditorD0Ev, @function
 5315              	_ZN10TextEditorD0Ev:
 5316              	.LFB1601:
 5317              		.loc 4 124 0
 5318              		.cfi_startproc
 5319              	.LVL404:
 5320 093c 9421FFF0 		stwu 1,-16(1)
 5321              	.LCFI79:
 5322              		.cfi_def_cfa_offset 16
 5323 0940 7C0802A6 		mflr 0
 5324 0944 93E1000C 		stw 31,12(1)
 5325 0948 7C7F1B78 		mr 31,3
 5326              		.cfi_offset 31, -4
 5327              		.cfi_register 65, 0
 5328 094c 90010014 		stw 0,20(1)
 5329              		.loc 4 156 0
 5330              		.cfi_offset 65, 4
 5331 0950 48000001 		bl _ZN10TextEditorD1Ev
 5332              	.LVL405:
 5333 0954 7FE3FB78 		mr 3,31
 5334 0958 48000001 		bl _ZdlPv
 5335 095c 80010014 		lwz 0,20(1)
 5336 0960 83E1000C 		lwz 31,12(1)
 5337              	.LVL406:
 5338 0964 7C0803A6 		mtlr 0
 5339 0968 38210010 		addi 1,1,16
 5340              	.LCFI80:
 5341              		.cfi_def_cfa_offset 0
 5342              		.cfi_restore 31
 5343 096c 4E800020 		blr
 5344              		.cfi_endproc
 5345              	.LFE1601:
 5346              		.size	_ZN10TextEditorD0Ev, .-_ZN10TextEditorD0Ev
 5347              		.section	.text._ZNSt8_Rb_treeIPN7sigslot12_signal_baseINS0_15single_threadedEEES4_St9_IdentityIS4_
 5348              		.align 2
 5349              		.weak	_ZNSt8_Rb_treeIPN7sigslot12_signal_baseINS0_15single_threadedEEES4_St9_IdentityIS4_ESt4lessI
 5350              		.type	_ZNSt8_Rb_treeIPN7sigslot12_signal_baseINS0_15single_threadedEEES4_St9_IdentityIS4_ESt4lessI
 5351              	_ZNSt8_Rb_treeIPN7sigslot12_signal_baseINS0_15single_threadedEEES4_St9_IdentityIS4_ESt4lessIS4_ESaI
 5352              	.LFB1906:
 5353              		.loc 14 1264 0
 5354              		.cfi_startproc
 5355              	.LVL407:
 5356 0000 7C0802A6 		mflr 0
 5357 0004 9421FFE0 		stwu 1,-32(1)
 5358              	.LCFI81:
 5359              		.cfi_def_cfa_offset 32
 5360              		.cfi_register 65, 0
 5361 0008 93810010 		stw 28,16(1)
 5362 000c 90010024 		stw 0,36(1)
 5363 0010 9361000C 		stw 27,12(1)
 5364 0014 7C9B2378 		mr 27,4
 5365              		.cfi_offset 27, -20
 5366              		.cfi_offset 65, 4
 5367              		.cfi_offset 28, -16
 5368              	.LBB3838:
 5369              	.LBB3839:
 5370              	.LBB3840:
 5371              		.loc 4 391 0
 5372 0018 83830008 		lwz 28,8(3)
 5373              	.LVL408:
 5374              	.LBE3840:
 5375              	.LBE3839:
 5376              	.LBE3838:
 5377              		.loc 14 1264 0
 5378 001c 93A10014 		stw 29,20(1)
 5379              	.LBB3865:
 5380              	.LBB3857:
 5381              	.LBB3853:
 5382              		.loc 14 1272 0
 5383 0020 3BA30004 		addi 29,3,4
 5384              		.cfi_offset 29, -12
 5385              	.LVL409:
 5386              	.LBE3853:
 5387              	.LBE3857:
 5388              		.loc 14 1274 0
 5389 0024 2F9C0000 		cmpwi 7,28,0
 5390              	.LBE3865:
 5391              		.loc 14 1264 0
 5392 0028 93E1001C 		stw 31,28(1)
 5393 002c 93410008 		stw 26,8(1)
 5394 0030 7C7F1B78 		mr 31,3
 5395              		.cfi_offset 26, -24
 5396              		.cfi_offset 31, -4
 5397 0034 93C10018 		stw 30,24(1)
 5398              	.LBB3866:
 5399              		.loc 14 1274 0
 5400 0038 419E0084 		beq- 7,.L366
 5401              		.cfi_offset 30, -8
 5402              	.LVL410:
 5403 003c 81440000 		lwz 10,0(4)
 5404 0040 48000014 		b .L355
 5405              	.LVL411:
 5406              	.L374:
 5407              		.loc 4 391 0 discriminator 1
 5408 0044 801C0008 		lwz 0,8(28)
 5409              	.LVL412:
 5410              		.loc 14 1274 0 discriminator 1
 5411 0048 2F800000 		cmpwi 7,0,0
 5412 004c 419E0028 		beq- 7,.L373
 5413              	.LVL413:
 5414              	.L367:
 5415              		.loc 14 1274 0 is_stmt 0
 5416 0050 7C1C0378 		mr 28,0
 5417              	.LVL414:
 5418              	.L355:
 5419              		.loc 4 391 0 is_stmt 1
 5420 0054 813C0010 		lwz 9,16(28)
 5421 0058 39600001 		li 11,1
 5422              		.loc 14 1278 0
 5423 005c 7F895040 		cmplw 7,9,10
 5424 0060 41BDFFE4 		bgt- 7,.L374
 5425              	.LVL415:
 5426              		.loc 4 391 0 discriminator 2
 5427 0064 801C000C 		lwz 0,12(28)
 5428 0068 39600000 		li 11,0
 5429              	.LVL416:
 5430              		.loc 14 1274 0 discriminator 2
 5431 006c 2F800000 		cmpwi 7,0,0
 5432 0070 409EFFE0 		bne+ 7,.L367
 5433              	.LVL417:
 5434              	.L373:
 5435              		.loc 14 1281 0
 5436 0074 2F8B0000 		cmpwi 7,11,0
 5437 0078 7F83E378 		mr 3,28
 5438              	.LVL418:
 5439 007c 409E0044 		bne- 7,.L352
 5440              	.LVL419:
 5441              		.loc 14 1289 0
 5442 0080 7F8A4840 		cmplw 7,10,9
 5443 0084 419D0060 		bgt- 7,.L375
 5444              	.LVL420:
 5445              	.L362:
 5446              		.loc 14 1292 0
 5447 0088 38000000 		li 0,0
 5448 008c 38800000 		li 4,0
 5449 0090 5004C00E 		rlwimi 4,0,24,0,7
 5450              	.LBE3866:
 5451              		.loc 14 1293 0
 5452 0094 80010024 		lwz 0,36(1)
 5453 0098 83410008 		lwz 26,8(1)
 5454 009c 7C0803A6 		mtlr 0
 5455 00a0 8361000C 		lwz 27,12(1)
 5456              	.LVL421:
 5457 00a4 83810010 		lwz 28,16(1)
 5458 00a8 83A10014 		lwz 29,20(1)
 5459 00ac 83C10018 		lwz 30,24(1)
 5460 00b0 83E1001C 		lwz 31,28(1)
 5461              	.LVL422:
 5462 00b4 38210020 		addi 1,1,32
 5463              		.cfi_remember_state
 5464              	.LCFI82:
 5465              		.cfi_def_cfa_offset 0
 5466              		.cfi_restore 31
 5467              		.cfi_restore 30
 5468              		.cfi_restore 29
 5469              		.cfi_restore 28
 5470              		.cfi_restore 27
 5471              		.cfi_restore 26
 5472 00b8 4E800020 		blr
 5473              	.LVL423:
 5474              	.L366:
 5475              	.LCFI83:
 5476              		.cfi_restore_state
 5477              	.LBB3867:
 5478              		.loc 14 1272 0
 5479 00bc 7FBCEB78 		mr 28,29
 5480              	.LVL424:
 5481              	.L352:
 5482              		.loc 14 1283 0
 5483 00c0 801F000C 		lwz 0,12(31)
 5484 00c4 7F9C0000 		cmpw 7,28,0
 5485 00c8 419E003C 		beq- 7,.L376
 5486              	.LVL425:
 5487              	.LBB3858:
 5488              	.LBB3859:
 5489              		.loc 14 203 0
 5490 00cc 7F83E378 		mr 3,28
 5491 00d0 48000001 		bl _ZSt18_Rb_tree_decrementPSt18_Rb_tree_node_base
 5492              	.LVL426:
 5493 00d4 815B0000 		lwz 10,0(27)
 5494 00d8 81230010 		lwz 9,16(3)
 5495              	.LVL427:
 5496              	.LBE3859:
 5497              	.LBE3858:
 5498              		.loc 14 1289 0
 5499 00dc 7F8A4840 		cmplw 7,10,9
 5500 00e0 409DFFA8 		ble+ 7,.L362
 5501              	.LVL428:
 5502              	.L375:
 5503              	.LBB3860:
 5504              	.LBB3854:
 5505              		.loc 14 969 0
 5506 00e4 7F9CE800 		cmpw 7,28,29
 5507 00e8 3B400001 		li 26,1
 5508 00ec 419E0038 		beq- 7,.L363
 5509              	.LVL429:
 5510              		.loc 14 1264 0
 5511 00f0 835C0010 		lwz 26,16(28)
 5512 00f4 7F5A5010 		subfc 26,26,10
 5513 00f8 7F5AD110 		subfe 26,26,26
 5514 00fc 7F5A00D0 		neg 26,26
 5515 0100 48000024 		b .L363
 5516              	.LVL430:
 5517              	.L376:
 5518              	.LBE3854:
 5519              	.LBE3860:
 5520              	.LBB3861:
 5521              	.LBB3862:
 5522              		.loc 14 969 0
 5523 0104 7F9CE800 		cmpw 7,28,29
 5524 0108 3B400001 		li 26,1
 5525 010c 419E0018 		beq- 7,.L363
 5526              	.LVL431:
 5527              		.loc 14 1264 0
 5528 0110 835B0000 		lwz 26,0(27)
 5529 0114 801C0010 		lwz 0,16(28)
 5530              	.LVL432:
 5531 0118 7F40D010 		subfc 26,0,26
 5532 011c 7F5AD110 		subfe 26,26,26
 5533 0120 7F5A00D0 		neg 26,26
 5534              	.LVL433:
 5535              	.L363:
 5536              	.LBE3862:
 5537              	.LBE3861:
 5538              	.LBB3863:
 5539              	.LBB3855:
 5540              	.LBB3841:
 5541              	.LBB3842:
 5542              	.LBB3843:
 5543              	.LBB3844:
 5544              	.LBB3845:
 5545              		.loc 11 92 0
 5546 0124 38600014 		li 3,20
 5547 0128 48000001 		bl _Znwj
 5548              	.LBE3845:
 5549              	.LBE3844:
 5550              	.LBE3843:
 5551              	.LBB3848:
 5552              	.LBB3849:
 5553              		.loc 11 108 0
 5554 012c 2F83FFF0 		cmpwi 7,3,-16
 5555              	.LBE3849:
 5556              	.LBE3848:
 5557              	.LBB3851:
 5558              	.LBB3847:
 5559              	.LBB3846:
 5560              		.loc 11 92 0
 5561 0130 7C7E1B78 		mr 30,3
 5562              	.LVL434:
 5563              	.LBE3846:
 5564              	.LBE3847:
 5565              	.LBE3851:
 5566              	.LBB3852:
 5567              	.LBB3850:
 5568              		.loc 11 108 0
 5569 0134 419E000C 		beq- 7,.L365
 5570 0138 801B0000 		lwz 0,0(27)
 5571 013c 90030010 		stw 0,16(3)
 5572              	.L365:
 5573              	.LVL435:
 5574              	.LBE3850:
 5575              	.LBE3852:
 5576              	.LBE3842:
 5577              	.LBE3841:
 5578              		.loc 14 973 0
 5579 0140 7F43D378 		mr 3,26
 5580              	.LVL436:
 5581 0144 7FC4F378 		mr 4,30
 5582 0148 7F85E378 		mr 5,28
 5583 014c 7FA6EB78 		mr 6,29
 5584 0150 48000001 		bl _ZSt29_Rb_tree_insert_and_rebalancebPSt18_Rb_tree_node_baseS0_RS_
 5585              		.loc 14 976 0
 5586 0154 813F0014 		lwz 9,20(31)
 5587              		.loc 14 1291 0
 5588 0158 38800000 		li 4,0
 5589 015c 7FC3F378 		mr 3,30
 5590              		.loc 14 976 0
 5591 0160 38090001 		addi 0,9,1
 5592              	.LBE3855:
 5593              	.LBE3863:
 5594              	.LBE3867:
 5595              		.loc 14 1293 0
 5596 0164 83410008 		lwz 26,8(1)
 5597              	.LVL437:
 5598              	.LBB3868:
 5599              	.LBB3864:
 5600              	.LBB3856:
 5601              		.loc 14 976 0
 5602 0168 901F0014 		stw 0,20(31)
 5603              	.LVL438:
 5604              		.loc 14 1291 0
 5605 016c 38000001 		li 0,1
 5606 0170 5004C00E 		rlwimi 4,0,24,0,7
 5607              	.LBE3856:
 5608              	.LBE3864:
 5609              	.LBE3868:
 5610              		.loc 14 1293 0
 5611 0174 80010024 		lwz 0,36(1)
 5612 0178 8361000C 		lwz 27,12(1)
 5613              	.LVL439:
 5614 017c 7C0803A6 		mtlr 0
 5615 0180 83810010 		lwz 28,16(1)
 5616 0184 83A10014 		lwz 29,20(1)
 5617 0188 83C10018 		lwz 30,24(1)
 5618              	.LVL440:
 5619 018c 83E1001C 		lwz 31,28(1)
 5620              	.LVL441:
 5621 0190 38210020 		addi 1,1,32
 5622              		.cfi_restore 26
 5623              		.cfi_restore 27
 5624              		.cfi_restore 28
 5625              		.cfi_restore 29
 5626              		.cfi_restore 30
 5627              		.cfi_restore 31
 5628              	.LCFI84:
 5629              		.cfi_def_cfa_offset 0
 5630 0194 4E800020 		blr
 5631              		.cfi_endproc
 5632              	.LFE1906:
 5633              		.size	_ZNSt8_Rb_treeIPN7sigslot12_signal_baseINS0_15single_threadedEEES4_St9_IdentityIS4_ESt4lessI
 5634              		.section	.text._ZN7sigslot7signal3IP9GuiButtoniRK6_POINTNS_15single_threadedEE7connectI10TextEdito
 5635              		.align 2
 5636              		.weak	_ZN7sigslot7signal3IP9GuiButtoniRK6_POINTNS_15single_threadedEE7connectI10TextEditorEEvPT_MS
 5637              		.type	_ZN7sigslot7signal3IP9GuiButtoniRK6_POINTNS_15single_threadedEE7connectI10TextEditorEEvPT_MS
 5638              	_ZN7sigslot7signal3IP9GuiButtoniRK6_POINTNS_15single_threadedEE7connectI10TextEditorEEvPT_MSA_FvS2_
 5639              	.LFB1673:
 5640              		.loc 1 2308 0
 5641              		.cfi_startproc
 5642              		.cfi_personality 0,__gxx_personality_v0
 5643              		.cfi_lsda 0,.LLSDA1673
 5644              	.LVL442:
 5645 0000 7C0802A6 		mflr 0
 5646 0004 9421FFD0 		stwu 1,-48(1)
 5647              	.LCFI85:
 5648              		.cfi_def_cfa_offset 48
 5649              		.cfi_register 65, 0
 5650 0008 9361001C 		stw 27,28(1)
 5651 000c 90010034 		stw 0,52(1)
 5652 0010 93C10028 		stw 30,40(1)
 5653 0014 7C9E2378 		mr 30,4
 5654              		.cfi_offset 30, -8
 5655              		.cfi_offset 65, 4
 5656              		.cfi_offset 27, -20
 5657              	.LBB3911:
 5658              	.LBB3912:
 5659              	.LBB3913:
 5660              		.loc 1 338 0
 5661 0018 81230000 		lwz 9,0(3)
 5662              	.LBE3913:
 5663              	.LBE3912:
 5664              	.LBE3911:
 5665              		.loc 1 2308 0
 5666 001c 93E1002C 		stw 31,44(1)
 5667 0020 7C7F1B78 		mr 31,3
 5668              		.cfi_offset 31, -4
 5669              	.LVL443:
 5670              	.LBB3966:
 5671              	.LBB3917:
 5672              	.LBB3914:
 5673              		.loc 1 338 0
 5674 0024 80090008 		lwz 0,8(9)
 5675              	.LBE3914:
 5676              	.LBE3917:
 5677              	.LBE3966:
 5678              		.loc 1 2308 0
 5679 0028 93810020 		stw 28,32(1)
 5680 002c 93A10024 		stw 29,36(1)
 5681              	.LBB3967:
 5682              	.LBB3918:
 5683              	.LBB3915:
 5684              		.loc 1 338 0
 5685 0030 7C0903A6 		mtctr 0
 5686              	.LBE3915:
 5687              	.LBE3918:
 5688              	.LBE3967:
 5689              		.loc 1 2308 0
 5690 0034 83650000 		lwz 27,0(5)
 5691 0038 83850004 		lwz 28,4(5)
 5692              		.cfi_offset 29, -12
 5693              		.cfi_offset 28, -16
 5694              	.LEHB20:
 5695              	.LBB3968:
 5696              	.LBB3919:
 5697              	.LBB3916:
 5698              		.loc 1 338 0
 5699 003c 4E800421 		bctrl
 5700              	.LEHE20:
 5701              	.LVL444:
 5702              	.LBE3916:
 5703              	.LBE3919:
 5704              		.loc 1 2314 0
 5705 0040 38600010 		li 3,16
 5706              	.LEHB21:
 5707 0044 48000001 		bl _Znwj
 5708              	.LBB3920:
 5709              	.LBB3921:
 5710              		.loc 1 1778 0
 5711 0048 3D200000 		lis 9,_ZTVN7sigslot12_connection3I10TextEditorP9GuiButtoniRK6_POINTNS_15single_threadedEEE+8@ha
 5712              		.loc 1 1779 0
 5713 004c 93C30004 		stw 30,4(3)
 5714              		.loc 1 1778 0
 5715 0050 38090008 		la 0,_ZTVN7sigslot12_connection3I10TextEditorP9GuiButtoniRK6_POINTNS_15single_threadedEEE+8@l(9)
 5716              		.loc 1 1780 0
 5717 0054 93630008 		stw 27,8(3)
 5718              		.loc 1 1778 0
 5719 0058 90030000 		stw 0,0(3)
 5720              	.LBE3921:
 5721              	.LBE3920:
 5722              		.loc 1 2314 0
 5723 005c 7C7D1B78 		mr 29,3
 5724              	.LVL445:
 5725              	.LBB3923:
 5726              	.LBB3922:
 5727              		.loc 1 1780 0
 5728 0060 9383000C 		stw 28,12(3)
 5729              	.LVL446:
 5730              	.LBE3922:
 5731              	.LBE3923:
 5732              	.LBB3924:
 5733              	.LBB3925:
 5734              	.LBB3926:
 5735              	.LBB3927:
 5736              	.LBB3928:
 5737              	.LBB3929:
 5738              	.LBB3930:
 5739              	.LBB3931:
 5740              		.loc 11 92 0
 5741 0064 3860000C 		li 3,12
 5742              	.LVL447:
 5743 0068 48000001 		bl _Znwj
 5744              	.LVL448:
 5745              	.LBE3931:
 5746              	.LBE3930:
 5747              	.LBE3929:
 5748              	.LBB3932:
 5749              	.LBB3933:
 5750              		.loc 11 108 0 discriminator 1
 5751 006c 2F83FFF8 		cmpwi 7,3,-8
 5752 0070 419E0008 		beq- 7,.L379
 5753              		.loc 11 108 0 is_stmt 0
 5754 0074 93A30008 		stw 29,8(3)
 5755              	.LVL449:
 5756              	.L379:
 5757              	.LBE3933:
 5758              	.LBE3932:
 5759              	.LBE3928:
 5760              	.LBE3927:
 5761              		.file 16 "d:\\devkitpro\\devkitppc\\bin\\../lib/gcc/powerpc-eabi/4.6.3/../../../../powerpc-eabi/in
 5762              		.loc 16 1516 0 is_stmt 1
 5763 0078 389F0004 		addi 4,31,4
 5764              	.LBE3926:
 5765              	.LBE3925:
 5766              	.LBE3924:
 5767              	.LBB3938:
 5768              	.LBB3939:
 5769              		.loc 1 503 0
 5770 007c 3BBE00B0 		addi 29,30,176
 5771              	.LVL450:
 5772              	.LBE3939:
 5773              	.LBE3938:
 5774              	.LBB3955:
 5775              	.LBB3936:
 5776              	.LBB3934:
 5777              		.loc 16 1516 0
 5778 0080 48000001 		bl _ZNSt8__detail15_List_node_base7_M_hookEPS0_
 5779              	.LVL451:
 5780              	.LBE3934:
 5781              	.LBE3936:
 5782              	.LBE3955:
 5783              	.LBB3956:
 5784              	.LBB3952:
 5785              	.LBB3940:
 5786              	.LBB3941:
 5787              		.loc 1 338 0
 5788 0084 813E00B0 		lwz 9,176(30)
 5789              	.LBE3941:
 5790              	.LBE3940:
 5791              	.LBE3952:
 5792              	.LBE3956:
 5793              	.LBB3957:
 5794              	.LBB3937:
 5795              	.LBB3935:
 5796              		.loc 16 1516 0
 5797 0088 93E10008 		stw 31,8(1)
 5798              	.LVL452:
 5799              	.LBE3935:
 5800              	.LBE3937:
 5801              	.LBE3957:
 5802              	.LBB3958:
 5803              	.LBB3953:
 5804              	.LBB3943:
 5805              	.LBB3942:
 5806              		.loc 1 338 0
 5807 008c 7FA3EB78 		mr 3,29
 5808 0090 80090008 		lwz 0,8(9)
 5809 0094 7C0903A6 		mtctr 0
 5810 0098 4E800421 		bctrl
 5811              	.LEHE21:
 5812              	.LVL453:
 5813              	.LBE3942:
 5814              	.LBE3943:
 5815              	.LBB3944:
 5816              	.LBB3945:
 5817              		.loc 15 410 0
 5818 009c 387E00B4 		addi 3,30,180
 5819 00a0 38810008 		addi 4,1,8
 5820              	.LEHB22:
 5821 00a4 48000001 		bl _ZNSt8_Rb_treeIPN7sigslot12_signal_baseINS0_15single_threadedEEES4_St9_IdentityIS4_ESt4lessIS4_
 5822              	.LEHE22:
 5823              	.LVL454:
 5824              	.LBE3945:
 5825              	.LBE3944:
 5826              	.LBB3946:
 5827              	.LBB3947:
 5828              	.LBB3948:
 5829              		.loc 1 343 0
 5830 00a8 813E00B0 		lwz 9,176(30)
 5831 00ac 7FA3EB78 		mr 3,29
 5832 00b0 8009000C 		lwz 0,12(9)
 5833 00b4 7C0903A6 		mtctr 0
 5834              	.LEHB23:
 5835 00b8 4E800421 		bctrl
 5836              	.LEHE23:
 5837              	.LVL455:
 5838              	.LBE3948:
 5839              	.LBE3947:
 5840              	.LBE3946:
 5841              	.LBE3953:
 5842              	.LBE3958:
 5843              	.LBB3959:
 5844              	.LBB3960:
 5845              	.LBB3961:
 5846 00bc 813F0000 		lwz 9,0(31)
 5847 00c0 7FE3FB78 		mr 3,31
 5848 00c4 8009000C 		lwz 0,12(9)
 5849 00c8 7C0903A6 		mtctr 0
 5850              	.LEHB24:
 5851 00cc 4E800421 		bctrl
 5852              	.LEHE24:
 5853              	.LBE3961:
 5854              	.LBE3960:
 5855              	.LBE3959:
 5856              	.LBE3968:
 5857              		.loc 1 2317 0
 5858 00d0 80010034 		lwz 0,52(1)
 5859 00d4 8361001C 		lwz 27,28(1)
 5860              	.LVL456:
 5861 00d8 7C0803A6 		mtlr 0
 5862 00dc 83810020 		lwz 28,32(1)
 5863              	.LVL457:
 5864 00e0 83A10024 		lwz 29,36(1)
 5865              	.LVL458:
 5866 00e4 83C10028 		lwz 30,40(1)
 5867              	.LVL459:
 5868 00e8 83E1002C 		lwz 31,44(1)
 5869              	.LVL460:
 5870 00ec 38210030 		addi 1,1,48
 5871              		.cfi_remember_state
 5872              	.LCFI86:
 5873              		.cfi_def_cfa_offset 0
 5874              		.cfi_restore 31
 5875              		.cfi_restore 30
 5876              		.cfi_restore 29
 5877              		.cfi_restore 28
 5878              		.cfi_restore 27
 5879 00f0 4E800020 		blr
 5880              	.LVL461:
 5881              	.L386:
 5882              	.LCFI87:
 5883              		.cfi_restore_state
 5884 00f4 7C7E1B78 		mr 30,3
 5885              	.LVL462:
 5886              	.L383:
 5887              	.LBB3969:
 5888              	.LBB3962:
 5889              	.LBB3963:
 5890              	.LBB3964:
 5891              		.loc 1 343 0
 5892 00f8 813F0000 		lwz 9,0(31)
 5893 00fc 7FE3FB78 		mr 3,31
 5894 0100 8009000C 		lwz 0,12(9)
 5895 0104 7C0903A6 		mtctr 0
 5896 0108 4E800421 		bctrl
 5897 010c 7FC3F378 		mr 3,30
 5898              	.LEHB25:
 5899 0110 48000001 		bl _Unwind_Resume
 5900              	.LEHE25:
 5901              	.LVL463:
 5902              	.L387:
 5903              	.LBE3964:
 5904              	.LBE3963:
 5905              	.LBE3962:
 5906              	.LBB3965:
 5907              	.LBB3954:
 5908              	.LBB3949:
 5909              	.LBB3950:
 5910              	.LBB3951:
 5911 0114 813E00B0 		lwz 9,176(30)
 5912 0118 7C7E1B78 		mr 30,3
 5913              	.LVL464:
 5914 011c 7FA3EB78 		mr 3,29
 5915 0120 8009000C 		lwz 0,12(9)
 5916 0124 7C0903A6 		mtctr 0
 5917 0128 4E800421 		bctrl
 5918 012c 4BFFFFCC 		b .L383
 5919              	.LBE3951:
 5920              	.LBE3950:
 5921              	.LBE3949:
 5922              	.LBE3954:
 5923              	.LBE3965:
 5924              	.LBE3969:
 5925              		.cfi_endproc
 5926              	.LFE1673:
 5927              		.section	.gcc_except_table
 5928              	.LLSDA1673:
 5929 007f FF       		.byte	0xff
 5930 0080 FF       		.byte	0xff
 5931 0081 01       		.byte	0x1
 5932 0082 1F       		.uleb128 .LLSDACSE1673-.LLSDACSB1673
 5933              	.LLSDACSB1673:
 5934 0083 3C       		.uleb128 .LEHB20-.LFB1673
 5935 0084 04       		.uleb128 .LEHE20-.LEHB20
 5936 0085 00       		.uleb128 0
 5937 0086 00       		.uleb128 0
 5938 0087 44       		.uleb128 .LEHB21-.LFB1673
 5939 0088 58       		.uleb128 .LEHE21-.LEHB21
 5940 0089 F401     		.uleb128 .L386-.LFB1673
 5941 008b 00       		.uleb128 0
 5942 008c A401     		.uleb128 .LEHB22-.LFB1673
 5943 008e 04       		.uleb128 .LEHE22-.LEHB22
 5944 008f 9402     		.uleb128 .L387-.LFB1673
 5945 0091 00       		.uleb128 0
 5946 0092 B801     		.uleb128 .LEHB23-.LFB1673
 5947 0094 04       		.uleb128 .LEHE23-.LEHB23
 5948 0095 F401     		.uleb128 .L386-.LFB1673
 5949 0097 00       		.uleb128 0
 5950 0098 CC01     		.uleb128 .LEHB24-.LFB1673
 5951 009a 04       		.uleb128 .LEHE24-.LEHB24
 5952 009b 00       		.uleb128 0
 5953 009c 00       		.uleb128 0
 5954 009d 9002     		.uleb128 .LEHB25-.LFB1673
 5955 009f 04       		.uleb128 .LEHE25-.LEHB25
 5956 00a0 00       		.uleb128 0
 5957 00a1 00       		.uleb128 0
 5958              	.LLSDACSE1673:
 5959              		.section	.text._ZN7sigslot7signal3IP9GuiButtoniRK6_POINTNS_15single_threadedEE7connectI10TextEdito
 5960              		.size	_ZN7sigslot7signal3IP9GuiButtoniRK6_POINTNS_15single_threadedEE7connectI10TextEditorEEvPT_MS
 5961              		.section	".text"
 5962              		.align 2
 5963              		.globl _ZN10TextEditor7SetTextEPKw
 5964              		.type	_ZN10TextEditor7SetTextEPKw, @function
 5965              	_ZN10TextEditor7SetTextEPKw:
 5966              	.LFB1602:
 5967              		.loc 4 159 0
 5968              		.cfi_startproc
 5969              		.cfi_personality 0,__gxx_personality_v0
 5970              		.cfi_lsda 0,.LLSDA1602
 5971              	.LVL465:
 5972 0970 7C0802A6 		mflr 0
 5973 0974 9421FFE0 		stwu 1,-32(1)
 5974              	.LCFI88:
 5975              		.cfi_def_cfa_offset 32
 5976              		.cfi_register 65, 0
 5977 0978 93E1001C 		stw 31,28(1)
 5978 097c 7C7F1B78 		mr 31,3
 5979              		.cfi_offset 31, -4
 5980 0980 90010024 		stw 0,36(1)
 5981 0984 93C10018 		stw 30,24(1)
 5982              		.loc 4 160 0
 5983 0988 806300EC 		lwz 3,236(3)
 5984              	.LVL466:
 5985 098c 2F830000 		cmpwi 7,3,0
 5986 0990 419E0024 		beq- 7,.L390
 5987              		.cfi_offset 30, -8
 5988              		.cfi_offset 65, 4
 5989              		.loc 4 162 0 discriminator 1
 5990 0994 81230000 		lwz 9,0(3)
 5991 0998 80090004 		lwz 0,4(9)
 5992 099c 90810010 		stw 4,16(1)
 5993 09a0 7C0903A6 		mtctr 0
 5994              	.LEHB26:
 5995 09a4 4E800421 		bctrl
 5996              	.LVL467:
 5997              		.loc 4 163 0 discriminator 1
 5998 09a8 38000000 		li 0,0
 5999 09ac 901F00EC 		stw 0,236(31)
 6000 09b0 80810010 		lwz 4,16(1)
 6001              	.L390:
 6002              		.loc 4 166 0
 6003 09b4 807F0114 		lwz 3,276(31)
 6004 09b8 81230000 		lwz 9,0(3)
 6005 09bc 800900D0 		lwz 0,208(9)
 6006 09c0 7C0903A6 		mtctr 0
 6007 09c4 4E800421 		bctrl
 6008              		.loc 4 168 0
 6009 09c8 881F00DC 		lbz 0,220(31)
 6010 09cc 2F800000 		cmpwi 7,0,0
 6011 09d0 409E0020 		bne- 7,.L395
 6012              		.loc 4 177 0
 6013 09d4 901F00EC 		stw 0,236(31)
 6014              		.loc 4 178 0
 6015 09d8 80010024 		lwz 0,36(1)
 6016 09dc 83C10018 		lwz 30,24(1)
 6017 09e0 7C0803A6 		mtlr 0
 6018 09e4 83E1001C 		lwz 31,28(1)
 6019              	.LVL468:
 6020 09e8 38210020 		addi 1,1,32
 6021              		.cfi_remember_state
 6022              	.LCFI89:
 6023              		.cfi_def_cfa_offset 0
 6024              		.cfi_restore 31
 6025              		.cfi_restore 30
 6026 09ec 4E800020 		blr
 6027              	.LVL469:
 6028              	.L395:
 6029              	.LCFI90:
 6030              		.cfi_restore_state
 6031              		.loc 4 170 0
 6032 09f0 38600168 		li 3,360
 6033 09f4 48000001 		bl _Znwj
 6034              	.LEHE26:
 6035 09f8 809F0114 		lwz 4,276(31)
 6036 09fc 38A00000 		li 5,0
 6037 0a00 7C7E1B78 		mr 30,3
 6038              	.LEHB27:
 6039 0a04 48000001 		bl _ZN11TextPointerC1EP7GuiTexti
 6040              	.LEHE27:
 6041              		.loc 4 171 0 discriminator 1
 6042 0a08 813E0000 		lwz 9,0(30)
 6043 0a0c 38A0004B 		li 5,75
 6044              		.loc 4 170 0 discriminator 1
 6045 0a10 93DF00EC 		stw 30,236(31)
 6046              		.loc 4 171 0 discriminator 1
 6047 0a14 7FC3F378 		mr 3,30
 6048 0a18 3880002B 		li 4,43
 6049 0a1c 800900A8 		lwz 0,168(9)
 6050 0a20 7C0903A6 		mtctr 0
 6051              	.LEHB28:
 6052 0a24 4E800421 		bctrl
 6053              		.loc 4 172 0 discriminator 1
 6054 0a28 807F00EC 		lwz 3,236(31)
 6055 0a2c 38800001 		li 4,1
 6056 0a30 81230000 		lwz 9,0(3)
 6057 0a34 8009004C 		lwz 0,76(9)
 6058 0a38 7C0903A6 		mtctr 0
 6059 0a3c 4E800421 		bctrl
 6060              		.loc 4 173 0 discriminator 1
 6061 0a40 807F00EC 		lwz 3,236(31)
 6062 0a44 809F0104 		lwz 4,260(31)
 6063 0a48 48000001 		bl _ZN9GuiButton10SetTriggerEP10GuiTrigger
 6064              		.loc 4 174 0 discriminator 1
 6065 0a4c 807F00EC 		lwz 3,236(31)
 6066 0a50 3D200000 		lis 9,_ZN10TextEditor13OnPointerHeldEP9GuiButtoniRK6_POINT@ha
 6067 0a54 7FE4FB78 		mr 4,31
 6068 0a58 38090000 		la 0,_ZN10TextEditor13OnPointerHeldEP9GuiButtoniRK6_POINT@l(9)
 6069 0a5c 38A10008 		addi 5,1,8
 6070 0a60 90010008 		stw 0,8(1)
 6071 0a64 3863009C 		addi 3,3,156
 6072 0a68 38000000 		li 0,0
 6073 0a6c 9001000C 		stw 0,12(1)
 6074 0a70 48000001 		bl _ZN7sigslot7signal3IP9GuiButtoniRK6_POINTNS_15single_threadedEE7connectI10TextEditorEEvPT_MSA_F
 6075              		.loc 4 178 0 discriminator 1
 6076 0a74 80010024 		lwz 0,36(1)
 6077 0a78 83C10018 		lwz 30,24(1)
 6078 0a7c 7C0803A6 		mtlr 0
 6079 0a80 83E1001C 		lwz 31,28(1)
 6080              	.LVL470:
 6081 0a84 38210020 		addi 1,1,32
 6082              		.cfi_remember_state
 6083              		.cfi_restore 30
 6084              		.cfi_restore 31
 6085              	.LCFI91:
 6086              		.cfi_def_cfa_offset 0
 6087 0a88 4E800020 		blr
 6088              	.LVL471:
 6089              	.L394:
 6090              	.LCFI92:
 6091              		.cfi_restore_state
 6092 0a8c 7C7F1B78 		mr 31,3
 6093              	.LVL472:
 6094              		.loc 4 170 0
 6095 0a90 7FC3F378 		mr 3,30
 6096 0a94 48000001 		bl _ZdlPv
 6097 0a98 7FE3FB78 		mr 3,31
 6098 0a9c 48000001 		bl _Unwind_Resume
 6099              	.LEHE28:
 6100              		.cfi_endproc
 6101              	.LFE1602:
 6102              		.section	.gcc_except_table
 6103              	.LLSDA1602:
 6104 00a2 FF       		.byte	0xff
 6105 00a3 FF       		.byte	0xff
 6106 00a4 01       		.byte	0x1
 6107 00a5 0F       		.uleb128 .LLSDACSE1602-.LLSDACSB1602
 6108              	.LLSDACSB1602:
 6109 00a6 34       		.uleb128 .LEHB26-.LFB1602
 6110 00a7 54       		.uleb128 .LEHE26-.LEHB26
 6111 00a8 00       		.uleb128 0
 6112 00a9 00       		.uleb128 0
 6113 00aa 9401     		.uleb128 .LEHB27-.LFB1602
 6114 00ac 04       		.uleb128 .LEHE27-.LEHB27
 6115 00ad 9C02     		.uleb128 .L394-.LFB1602
 6116 00af 00       		.uleb128 0
 6117 00b0 B401     		.uleb128 .LEHB28-.LFB1602
 6118 00b2 7C       		.uleb128 .LEHE28-.LEHB28
 6119 00b3 00       		.uleb128 0
 6120 00b4 00       		.uleb128 0
 6121              	.LLSDACSE1602:
 6122              		.section	".text"
 6123              		.size	_ZN10TextEditor7SetTextEPKw, .-_ZN10TextEditor7SetTextEPKw
 6124              		.align 2
 6125              		.globl _ZN10TextEditorC2EPKwiPKcb
 6126              		.type	_ZN10TextEditorC2EPKwiPKcb, @function
 6127              	_ZN10TextEditorC2EPKwiPKcb:
 6128              	.LFB1596:
 6129              		.loc 4 30 0
 6130              		.cfi_startproc
 6131              		.cfi_personality 0,__gxx_personality_v0
 6132              		.cfi_lsda 0,.LLSDA1596
 6133              	.LVL473:
 6134 0aa0 9421FFB8 		stwu 1,-72(1)
 6135              	.LCFI93:
 6136              		.cfi_def_cfa_offset 72
 6137 0aa4 7C0802A6 		mflr 0
 6138 0aa8 93010028 		stw 24,40(1)
 6139 0aac 7C982378 		mr 24,4
 6140              		.cfi_offset 24, -32
 6141              		.cfi_register 65, 0
 6142              	.LBB4064:
 6143 0ab0 38800000 		li 4,0
 6144              	.LVL474:
 6145              	.LBE4064:
 6146 0ab4 9001004C 		stw 0,76(1)
 6147 0ab8 93810038 		stw 28,56(1)
 6148 0abc 7CBC2B78 		mr 28,5
 6149              		.cfi_offset 28, -16
 6150              		.cfi_offset 65, 4
 6151 0ac0 93A1003C 		stw 29,60(1)
 6152 0ac4 7CFD3B78 		mr 29,7
 6153              		.cfi_offset 29, -12
 6154 0ac8 93C10040 		stw 30,64(1)
 6155 0acc 7CDE3378 		mr 30,6
 6156              		.cfi_offset 30, -8
 6157 0ad0 93E10044 		stw 31,68(1)
 6158 0ad4 7C7F1B78 		mr 31,3
 6159              		.cfi_offset 31, -4
 6160 0ad8 9321002C 		stw 25,44(1)
 6161 0adc 93410030 		stw 26,48(1)
 6162 0ae0 93610034 		stw 27,52(1)
 6163              	.LEHB29:
 6164              	.LBB4210:
 6165              		.loc 4 30 0
 6166              		.cfi_offset 27, -20
 6167              		.cfi_offset 26, -24
 6168              		.cfi_offset 25, -28
 6169 0ae4 48000001 		bl _ZN8GuiFrameC2EPS_
 6170              	.LEHE29:
 6171              	.LVL475:
 6172 0ae8 3D200000 		lis 9,_ZTV10TextEditor+8@ha
 6173              	.LBB4065:
 6174              	.LBB4066:
 6175              	.LBB4067:
 6176              	.LBB4068:
 6177              	.LBB4069:
 6178              	.LBB4070:
 6179              		.loc 14 445 0
 6180 0aec 38000000 		li 0,0
 6181              	.LBE4070:
 6182              	.LBE4069:
 6183              	.LBE4068:
 6184              	.LBE4067:
 6185              	.LBE4066:
 6186              	.LBE4065:
 6187              		.loc 4 30 0
 6188 0af0 39290008 		la 9,_ZTV10TextEditor+8@l(9)
 6189              	.LBB4102:
 6190              	.LBB4097:
 6191              	.LBB4092:
 6192              	.LBB4087:
 6193              	.LBB4082:
 6194              	.LBB4077:
 6195              	.LBB4071:
 6196              	.LBB4072:
 6197              		.loc 14 459 0
 6198 0af4 397F00B8 		addi 11,31,184
 6199              	.LBE4072:
 6200              	.LBE4071:
 6201              	.LBE4077:
 6202              	.LBE4082:
 6203              	.LBE4087:
 6204              	.LBE4092:
 6205              	.LBE4097:
 6206              	.LBE4102:
 6207              		.loc 4 30 0
 6208 0af8 394900E4 		addi 10,9,228
 6209              	.LBB4103:
 6210              	.LBB4098:
 6211              	.LBB4093:
 6212              	.LBB4088:
 6213              	.LBB4083:
 6214              	.LBB4078:
 6215              		.loc 14 445 0
 6216 0afc 901F00B8 		stw 0,184(31)
 6217 0b00 901F00BC 		stw 0,188(31)
 6218              	.LBE4078:
 6219              	.LBE4083:
 6220              	.LBE4088:
 6221              	.LBE4093:
 6222              	.LBE4098:
 6223              	.LBE4103:
 6224              	.LBB4104:
 6225              		.loc 4 35 0
 6226 0b04 38610010 		addi 3,1,16
 6227              	.LBE4104:
 6228              	.LBB4201:
 6229              	.LBB4099:
 6230              	.LBB4094:
 6231              	.LBB4089:
 6232              	.LBB4084:
 6233              	.LBB4079:
 6234              		.loc 14 445 0
 6235 0b08 901F00C8 		stw 0,200(31)
 6236              	.LVL476:
 6237              	.LBE4079:
 6238              	.LBE4084:
 6239              	.LBE4089:
 6240              	.LBE4094:
 6241              	.LBE4099:
 6242              	.LBE4201:
 6243              	.LBB4202:
 6244              		.loc 4 35 0
 6245 0b0c 7FC4F378 		mr 4,30
 6246              	.LBE4202:
 6247              	.LBB4203:
 6248              	.LBB4100:
 6249              	.LBB4095:
 6250              	.LBB4090:
 6251              	.LBB4085:
 6252              	.LBB4080:
 6253              	.LBB4075:
 6254              	.LBB4073:
 6255              		.loc 14 459 0
 6256 0b10 917F00C0 		stw 11,192(31)
 6257              	.LBE4073:
 6258              	.LBE4075:
 6259              	.LBE4080:
 6260              	.LBE4085:
 6261              	.LBE4090:
 6262              	.LBE4095:
 6263              	.LBE4100:
 6264              	.LBE4203:
 6265              	.LBB4204:
 6266              		.loc 4 35 0
 6267 0b14 38A10009 		addi 5,1,9
 6268              	.LBE4204:
 6269              	.LBB4205:
 6270              	.LBB4101:
 6271              	.LBB4096:
 6272              	.LBB4091:
 6273              	.LBB4086:
 6274              	.LBB4081:
 6275              	.LBB4076:
 6276              	.LBB4074:
 6277              		.loc 14 460 0
 6278 0b18 917F00C4 		stw 11,196(31)
 6279              	.LBE4074:
 6280              	.LBE4076:
 6281              	.LBE4081:
 6282              	.LBE4086:
 6283              	.LBE4091:
 6284              	.LBE4096:
 6285              	.LBE4101:
 6286              	.LBE4205:
 6287              		.loc 4 30 0
 6288 0b1c 913F0000 		stw 9,0(31)
 6289 0b20 915F00B0 		stw 10,176(31)
 6290              	.LBB4206:
 6291              		.loc 4 32 0
 6292 0b24 981F00CC 		stb 0,204(31)
 6293              		.loc 4 33 0
 6294 0b28 981F00CD 		stb 0,205(31)
 6295              		.loc 4 34 0
 6296 0b2c 939F00D0 		stw 28,208(31)
 6297              	.LEHB30:
 6298              		.loc 4 35 0
 6299 0b30 48000001 		bl _ZNSsC1EPKcRKSaIcE
 6300              	.LEHE30:
 6301              		.loc 4 35 0 is_stmt 0 discriminator 1
 6302 0b34 38610010 		addi 3,1,16
 6303              	.LEHB31:
 6304 0b38 48000001 		bl _Z8FileSizeSs
 6305              	.LEHE31:
 6306              	.LBB4105:
 6307              	.LBB4106:
 6308              	.LBB4107:
 6309              	.LBB4108:
 6310              	.LBB4109:
 6311              	.LBB4110:
 6312              		.loc 6 288 0 is_stmt 1 discriminator 1
 6313 0b3c 81210010 		lwz 9,16(1)
 6314              	.LBE4110:
 6315              	.LBE4109:
 6316              	.LBE4108:
 6317              	.LBB4111:
 6318              	.LBB4112:
 6319              		.loc 6 235 0 discriminator 1
 6320 0b40 3D600000 		lis 11,_ZNSs4_Rep20_S_empty_rep_storageE@ha
 6321 0b44 380B0000 		la 0,_ZNSs4_Rep20_S_empty_rep_storageE@l(11)
 6322              	.LBE4112:
 6323              	.LBE4111:
 6324              	.LBE4107:
 6325              	.LBE4106:
 6326              	.LBE4105:
 6327              		.loc 4 35 0 discriminator 1
 6328 0b48 909F00D4 		stw 4,212(31)
 6329              	.LVL477:
 6330              	.LBB4127:
 6331              	.LBB4125:
 6332              	.LBB4123:
 6333              		.loc 6 534 0 discriminator 1
 6334 0b4c 3869FFF4 		addi 3,9,-12
 6335              	.LVL478:
 6336              	.LBB4121:
 6337              	.LBB4119:
 6338              		.loc 6 235 0 discriminator 1
 6339 0b50 7F830000 		cmpw 7,3,0
 6340 0b54 409E0648 		bne- 7,.L459
 6341              	.LVL479:
 6342              	.L404:
 6343              	.LBE4119:
 6344              	.LBE4121:
 6345              	.LBE4123:
 6346              	.LBE4125:
 6347              	.LBE4127:
 6348              		.loc 4 36 0 discriminator 2
 6349 0b58 9BBF00DC 		stb 29,220(31)
 6350              		.loc 4 38 0 discriminator 2
 6351 0b5c 7FC3F378 		mr 3,30
 6352 0b60 48000001 		bl strlen
 6353 0b64 38630001 		addi 3,3,1
 6354              	.LEHB32:
 6355 0b68 48000001 		bl _Znaj
 6356 0b6c 907F00D8 		stw 3,216(31)
 6357              		.loc 4 39 0 discriminator 2
 6358 0b70 7FC4F378 		mr 4,30
 6359 0b74 48000001 		bl strcpy
 6360              		.loc 4 41 0 discriminator 2
 6361 0b78 807F00D8 		lwz 3,216(31)
 6362 0b7c 3880002F 		li 4,47
 6363 0b80 48000001 		bl strrchr
 6364 0b84 7C7A1B78 		mr 26,3
 6365              	.LVL480:
 6366              		.loc 4 43 0 discriminator 2
 6367 0b88 38600170 		li 3,368
 6368              	.LVL481:
 6369 0b8c 48000001 		bl _Znwj
 6370              	.LEHE32:
 6371              		.loc 4 43 0 is_stmt 0 discriminator 1
 6372 0b90 7C7D1B78 		mr 29,3
 6373              	.LEHB33:
 6374 0b94 48000001 		bl _ZN10GuiTriggerC1Ev
 6375              	.LEHE33:
 6376              		.loc 4 44 0 is_stmt 1 discriminator 1
 6377 0b98 3FC00000 		lis 30,Settings@ha
 6378              	.LVL482:
 6379 0b9c 7FA3EB78 		mr 3,29
 6380 0ba0 3BDE0000 		la 30,Settings@l(30)
 6381 0ba4 3880FFFF 		li 4,-1
 6382 0ba8 A0BE0A54 		lhz 5,2644(30)
 6383 0bac A01E0A38 		lhz 0,2616(30)
 6384 0bb0 54A5801E 		slwi 5,5,16
 6385              		.loc 4 43 0 discriminator 1
 6386 0bb4 93BF0100 		stw 29,256(31)
 6387              		.loc 4 44 0 discriminator 1
 6388 0bb8 A0DE0A70 		lhz 6,2672(30)
 6389 0bbc 7CA50378 		or 5,5,0
 6390              	.LEHB34:
 6391 0bc0 48000001 		bl _ZN10GuiTrigger16SetSimpleTriggerEijt
 6392              		.loc 4 45 0
 6393 0bc4 38600170 		li 3,368
 6394 0bc8 48000001 		bl _Znwj
 6395              	.LEHE34:
 6396 0bcc 7C7D1B78 		mr 29,3
 6397              	.LEHB35:
 6398 0bd0 48000001 		bl _ZN10GuiTriggerC1Ev
 6399              	.LEHE35:
 6400              		.loc 4 46 0 discriminator 1
 6401 0bd4 A0BE0A54 		lhz 5,2644(30)
 6402 0bd8 7FA3EB78 		mr 3,29
 6403 0bdc A01E0A38 		lhz 0,2616(30)
 6404 0be0 3880FFFF 		li 4,-1
 6405 0be4 54A5801E 		slwi 5,5,16
 6406              		.loc 4 45 0 discriminator 1
 6407 0be8 93BF0104 		stw 29,260(31)
 6408              		.loc 4 46 0 discriminator 1
 6409 0bec A0DE0A70 		lhz 6,2672(30)
 6410 0bf0 7CA50378 		or 5,5,0
 6411              	.LEHB36:
 6412 0bf4 48000001 		bl _ZN10GuiTrigger14SetHeldTriggerEijt
 6413              		.loc 4 47 0
 6414 0bf8 38600170 		li 3,368
 6415 0bfc 48000001 		bl _Znwj
 6416              	.LEHE36:
 6417 0c00 7C7D1B78 		mr 29,3
 6418              	.LEHB37:
 6419 0c04 48000001 		bl _ZN10GuiTriggerC1Ev
 6420              	.LEHE37:
 6421              		.loc 4 48 0 discriminator 1
 6422 0c08 A0BE0A56 		lhz 5,2646(30)
 6423 0c0c 7FA3EB78 		mr 3,29
 6424 0c10 A01E0A3A 		lhz 0,2618(30)
 6425 0c14 3880FFFF 		li 4,-1
 6426 0c18 54A5801E 		slwi 5,5,16
 6427              		.loc 4 47 0 discriminator 1
 6428 0c1c 93BF010C 		stw 29,268(31)
 6429              		.loc 4 48 0 discriminator 1
 6430 0c20 A0DE0A72 		lhz 6,2674(30)
 6431 0c24 7CA50378 		or 5,5,0
 6432              	.LEHB38:
 6433 0c28 48000001 		bl _ZN10GuiTrigger20SetButtonOnlyTriggerEijt
 6434              		.loc 4 49 0
 6435 0c2c 38600170 		li 3,368
 6436 0c30 48000001 		bl _Znwj
 6437              	.LEHE38:
 6438 0c34 7C7D1B78 		mr 29,3
 6439              	.LEHB39:
 6440 0c38 48000001 		bl _ZN10GuiTriggerC1Ev
 6441              	.LEHE39:
 6442              		.loc 4 50 0 discriminator 1
 6443 0c3c A0BE0A6E 		lhz 5,2670(30)
 6444 0c40 7FA3EB78 		mr 3,29
 6445 0c44 A01E0A52 		lhz 0,2642(30)
 6446 0c48 3880FFFF 		li 4,-1
 6447 0c4c 54A5801E 		slwi 5,5,16
 6448              		.loc 4 49 0 discriminator 1
 6449 0c50 93BF0108 		stw 29,264(31)
 6450              		.loc 4 50 0 discriminator 1
 6451 0c54 A0DE0A8A 		lhz 6,2698(30)
 6452 0c58 7CA50378 		or 5,5,0
 6453              	.LEHB40:
 6454 0c5c 48000001 		bl _ZN10GuiTrigger20SetButtonOnlyTriggerEijt
 6455              		.loc 4 52 0
 6456 0c60 3C600000 		lis 3,.LC11@ha
 6457 0c64 38630064 		la 3,.LC11@l(3)
 6458 0c68 48000001 		bl _ZN9Resources8GetSoundEPKc
 6459 0c6c 907F00F8 		stw 3,248(31)
 6460              		.loc 4 53 0
 6461 0c70 3C600000 		lis 3,.LC12@ha
 6462 0c74 38630074 		la 3,.LC12@l(3)
 6463 0c78 48000001 		bl _ZN9Resources8GetSoundEPKc
 6464              		.loc 4 53 0 is_stmt 0 discriminator 1
 6465 0c7c 907F00FC 		stw 3,252(31)
 6466              		.loc 4 55 0 is_stmt 1 discriminator 1
 6467 0c80 3C600000 		lis 3,.LC13@ha
 6468 0c84 38630088 		la 3,.LC13@l(3)
 6469 0c88 48000001 		bl _ZN9Resources12GetImageDataEPKc
 6470 0c8c 907F00F4 		stw 3,244(31)
 6471              		.loc 4 56 0 discriminator 1
 6472 0c90 386000C4 		li 3,196
 6473 0c94 48000001 		bl _Znwj
 6474              	.LEHE40:
 6475 0c98 809F00F4 		lwz 4,244(31)
 6476 0c9c 7C7D1B78 		mr 29,3
 6477              	.LEHB41:
 6478 0ca0 48000001 		bl _ZN8GuiImageC1EP12GuiImageData
 6479              	.LEHE41:
 6480 0ca4 93BF00F0 		stw 29,240(31)
 6481              		.loc 4 58 0 discriminator 1
 6482 0ca8 3860012C 		li 3,300
 6483              	.LEHB42:
 6484 0cac 48000001 		bl _Znwj
 6485              	.LEHE42:
 6486 0cb0 388000D2 		li 4,210
 6487 0cb4 38A00001 		li 5,1
 6488 0cb8 7C7D1B78 		mr 29,3
 6489              	.LEHB43:
 6490 0cbc 48000001 		bl _ZN9ScrollbarC1Eih
 6491              	.LEHE43:
 6492 0cc0 93BF00E0 		stw 29,224(31)
 6493              		.loc 4 59 0 discriminator 1
 6494 0cc4 7FA3EB78 		mr 3,29
 6495 0cc8 813D0000 		lwz 9,0(29)
 6496 0ccc 7FE4FB78 		mr 4,31
 6497 0cd0 80090008 		lwz 0,8(9)
 6498 0cd4 7C0903A6 		mtctr 0
 6499              	.LEHB44:
 6500 0cd8 4E800421 		bctrl
 6501              		.loc 4 60 0
 6502 0cdc 807F00E0 		lwz 3,224(31)
 6503 0ce0 38800014 		li 4,20
 6504 0ce4 81230000 		lwz 9,0(3)
 6505 0ce8 800900B4 		lwz 0,180(9)
 6506 0cec 7C0903A6 		mtctr 0
 6507 0cf0 4E800421 		bctrl
 6508              		.loc 4 61 0
 6509 0cf4 807F00E0 		lwz 3,224(31)
 6510 0cf8 3880FFDD 		li 4,-35
 6511 0cfc 38A0003C 		li 5,60
 6512 0d00 81230000 		lwz 9,0(3)
 6513 0d04 800900A8 		lwz 0,168(9)
 6514 0d08 7C0903A6 		mtctr 0
 6515 0d0c 4E800421 		bctrl
 6516              		.loc 4 62 0
 6517 0d10 83BF00E0 		lwz 29,224(31)
 6518              	.LVL483:
 6519              	.LBB4128:
 6520              	.LBB4129:
 6521              		.file 17 "d:/Projects/SaveGameManager/savegame-manager-gx/trunk/source/TextOperations/../Controls/
 6522              		.loc 17 43 0
 6523 0d14 A01E007C 		lhz 0,124(30)
 6524              	.LBE4129:
 6525              	.LBE4128:
 6526              	.LBB4131:
 6527              	.LBB4132:
 6528              	.LBB4133:
 6529              	.LBB4134:
 6530              		.loc 1 338 0
 6531 0d18 813D00AC 		lwz 9,172(29)
 6532              	.LBE4134:
 6533              	.LBE4133:
 6534              		.loc 1 2244 0
 6535 0d1c 3B9D00AC 		addi 28,29,172
 6536              	.LVL484:
 6537              	.LBE4132:
 6538              	.LBE4131:
 6539              	.LBB4187:
 6540              	.LBB4130:
 6541              		.loc 17 43 0
 6542 0d20 B01D00C0 		sth 0,192(29)
 6543              	.LVL485:
 6544              	.LBE4130:
 6545              	.LBE4187:
 6546              	.LBB4188:
 6547              	.LBB4189:
 6548              		.loc 17 37 0
 6549 0d24 38000000 		li 0,0
 6550 0d28 981D00CA 		stb 0,202(29)
 6551              	.LVL486:
 6552              	.LBE4189:
 6553              	.LBE4188:
 6554              	.LBB4190:
 6555              	.LBB4183:
 6556              	.LBB4136:
 6557              	.LBB4135:
 6558              		.loc 1 338 0
 6559 0d2c 7F83E378 		mr 3,28
 6560 0d30 80090008 		lwz 0,8(9)
 6561 0d34 7C0903A6 		mtctr 0
 6562 0d38 4E800421 		bctrl
 6563              	.LEHE44:
 6564              	.LVL487:
 6565              	.LBE4135:
 6566              	.LBE4136:
 6567              		.loc 1 2246 0
 6568 0d3c 38600010 		li 3,16
 6569              	.LEHB45:
 6570 0d40 48000001 		bl _Znwj
 6571              	.LBB4137:
 6572              	.LBB4138:
 6573              		.loc 1 1730 0
 6574 0d44 3D200000 		lis 9,_ZTVN7sigslot12_connection2I10TextEditoriiNS_15single_threadedEEE+8@ha
 6575              		.loc 1 1731 0
 6576 0d48 93E30004 		stw 31,4(3)
 6577              		.loc 1 1730 0
 6578 0d4c 38090008 		la 0,_ZTVN7sigslot12_connection2I10TextEditoriiNS_15single_threadedEEE+8@l(9)
 6579              	.LBE4138:
 6580              	.LBE4137:
 6581              	.LBE4183:
 6582              		.loc 1 1732 0
 6583 0d50 3D200000 		lis 9,_ZN10TextEditor12OnListChangeEii@ha
 6584              	.LBB4184:
 6585              	.LBB4140:
 6586              	.LBB4139:
 6587              		.loc 1 1730 0
 6588 0d54 90030000 		stw 0,0(3)
 6589              	.LBE4139:
 6590              	.LBE4140:
 6591              	.LBE4184:
 6592              		.loc 1 1732 0
 6593 0d58 38090000 		la 0,_ZN10TextEditor12OnListChangeEii@l(9)
 6594 0d5c 90030008 		stw 0,8(3)
 6595 0d60 38000000 		li 0,0
 6596 0d64 9003000C 		stw 0,12(3)
 6597              	.LBB4185:
 6598              		.loc 1 2246 0
 6599 0d68 7C7E1B78 		mr 30,3
 6600              	.LVL488:
 6601              	.LBB4141:
 6602              	.LBB4142:
 6603              	.LBB4143:
 6604              	.LBB4144:
 6605              	.LBB4145:
 6606              	.LBB4146:
 6607              	.LBB4147:
 6608              	.LBB4148:
 6609              		.loc 11 92 0
 6610 0d6c 3860000C 		li 3,12
 6611              	.LVL489:
 6612 0d70 48000001 		bl _Znwj
 6613              	.LVL490:
 6614              	.LBE4148:
 6615              	.LBE4147:
 6616              	.LBE4146:
 6617              	.LBB4149:
 6618              	.LBB4150:
 6619              		.loc 11 108 0
 6620 0d74 2F83FFF8 		cmpwi 7,3,-8
 6621 0d78 419E0008 		beq- 7,.L406
 6622 0d7c 93C30008 		stw 30,8(3)
 6623              	.L406:
 6624              	.LVL491:
 6625              	.LBE4150:
 6626              	.LBE4149:
 6627              	.LBE4145:
 6628              	.LBE4144:
 6629              		.loc 16 1516 0
 6630 0d80 389D00B0 		addi 4,29,176
 6631              	.LBE4143:
 6632              	.LBE4142:
 6633              	.LBE4141:
 6634              	.LBB4155:
 6635              	.LBB4156:
 6636              		.loc 1 503 0
 6637 0d84 3BDF00B0 		addi 30,31,176
 6638              	.LVL492:
 6639              	.LBE4156:
 6640              	.LBE4155:
 6641              	.LBB4172:
 6642              	.LBB4153:
 6643              	.LBB4151:
 6644              		.loc 16 1516 0
 6645 0d88 48000001 		bl _ZNSt8__detail15_List_node_base7_M_hookEPS0_
 6646              	.LVL493:
 6647              	.LBE4151:
 6648              	.LBE4153:
 6649              	.LBE4172:
 6650              	.LBB4173:
 6651              	.LBB4169:
 6652              	.LBB4157:
 6653              	.LBB4158:
 6654              		.loc 1 338 0
 6655 0d8c 813F00B0 		lwz 9,176(31)
 6656              	.LBE4158:
 6657              	.LBE4157:
 6658              	.LBE4169:
 6659              	.LBE4173:
 6660              	.LBB4174:
 6661              	.LBB4154:
 6662              	.LBB4152:
 6663              		.loc 16 1516 0
 6664 0d90 9381000C 		stw 28,12(1)
 6665              	.LVL494:
 6666              	.LBE4152:
 6667              	.LBE4154:
 6668              	.LBE4174:
 6669              	.LBB4175:
 6670              	.LBB4170:
 6671              	.LBB4160:
 6672              	.LBB4159:
 6673              		.loc 1 338 0
 6674 0d94 7FC3F378 		mr 3,30
 6675 0d98 80090008 		lwz 0,8(9)
 6676 0d9c 7C0903A6 		mtctr 0
 6677 0da0 4E800421 		bctrl
 6678              	.LEHE45:
 6679              	.LVL495:
 6680              	.LBE4159:
 6681              	.LBE4160:
 6682              	.LBB4161:
 6683              	.LBB4162:
 6684              		.loc 15 410 0
 6685 0da4 387F00B4 		addi 3,31,180
 6686 0da8 3881000C 		addi 4,1,12
 6687              	.LEHB46:
 6688 0dac 48000001 		bl _ZNSt8_Rb_treeIPN7sigslot12_signal_baseINS0_15single_threadedEEES4_St9_IdentityIS4_ESt4lessIS4_
 6689              	.LEHE46:
 6690              	.LVL496:
 6691              	.LBE4162:
 6692              	.LBE4161:
 6693              	.LBB4163:
 6694              	.LBB4164:
 6695              	.LBB4165:
 6696              		.loc 1 343 0
 6697 0db0 813F00B0 		lwz 9,176(31)
 6698 0db4 7FC3F378 		mr 3,30
 6699 0db8 8009000C 		lwz 0,12(9)
 6700 0dbc 7C0903A6 		mtctr 0
 6701              	.LEHB47:
 6702 0dc0 4E800421 		bctrl
 6703              	.LEHE47:
 6704              	.LVL497:
 6705              	.LBE4165:
 6706              	.LBE4164:
 6707              	.LBE4163:
 6708              	.LBE4170:
 6709              	.LBE4175:
 6710              	.LBB4176:
 6711              	.LBB4177:
 6712              	.LBB4178:
 6713 0dc4 813D00AC 		lwz 9,172(29)
 6714 0dc8 7F83E378 		mr 3,28
 6715 0dcc 8009000C 		lwz 0,12(9)
 6716 0dd0 7C0903A6 		mtctr 0
 6717              	.LEHB48:
 6718 0dd4 4E800421 		bctrl
 6719              	.LBE4178:
 6720              	.LBE4177:
 6721              	.LBE4176:
 6722              	.LBE4185:
 6723              	.LBE4190:
 6724              		.loc 4 66 0
 6725 0dd8 38600140 		li 3,320
 6726 0ddc 48000001 		bl _Znwj
 6727              	.LEHE48:
 6728 0de0 3C800000 		lis 4,.LC14@ha
 6729 0de4 3CA00000 		lis 5,.LC15@ha
 6730 0de8 80DF00FC 		lwz 6,252(31)
 6731 0dec 3884009C 		la 4,.LC14@l(4)
 6732 0df0 80FF00F8 		lwz 7,248(31)
 6733 0df4 38A500B0 		la 5,.LC15@l(5)
 6734 0df8 7C7E1B78 		mr 30,3
 6735              	.LVL498:
 6736              	.LEHB49:
 6737 0dfc 48000001 		bl _ZN13PictureButtonC1EPKcS1_P8GuiSoundS3_
 6738              	.LEHE49:
 6739              		.loc 4 66 0 is_stmt 0 discriminator 1
 6740 0e00 93DF00E4 		stw 30,228(31)
 6741              		.loc 4 67 0 is_stmt 1 discriminator 1
 6742 0e04 7FC3F378 		mr 3,30
 6743 0e08 813E0000 		lwz 9,0(30)
 6744 0e0c 38800014 		li 4,20
 6745 0e10 800900B4 		lwz 0,180(9)
 6746 0e14 7C0903A6 		mtctr 0
 6747              	.LEHB50:
 6748 0e18 4E800421 		bctrl
 6749              		.loc 4 68 0
 6750 0e1c 807F00E4 		lwz 3,228(31)
 6751 0e20 3880FFEA 		li 4,-22
 6752 0e24 38A00019 		li 5,25
 6753 0e28 81230000 		lwz 9,0(3)
 6754 0e2c 800900A8 		lwz 0,168(9)
 6755 0e30 7C0903A6 		mtctr 0
 6756 0e34 4E800421 		bctrl
 6757              		.loc 4 69 0
 6758 0e38 807F00E4 		lwz 3,228(31)
 6759 0e3c 809F0100 		lwz 4,256(31)
 6760 0e40 48000001 		bl _ZN9GuiButton10SetTriggerEP10GuiTrigger
 6761              		.loc 4 70 0
 6762 0e44 807F00E4 		lwz 3,228(31)
 6763 0e48 809F010C 		lwz 4,268(31)
 6764 0e4c 48000001 		bl _ZN9GuiButton10SetTriggerEP10GuiTrigger
 6765              		.loc 4 71 0
 6766 0e50 807F00E4 		lwz 3,228(31)
 6767 0e54 3F800000 		lis 28,_ZN10TextEditor13OnButtonClickEP9GuiButtoniRK6_POINT@ha
 6768 0e58 3B9C0000 		la 28,_ZN10TextEditor13OnButtonClickEP9GuiButtoniRK6_POINT@l(28)
 6769 0e5c 38000000 		li 0,0
 6770 0e60 38630090 		addi 3,3,144
 6771 0e64 7FE4FB78 		mr 4,31
 6772 0e68 38A10018 		addi 5,1,24
 6773 0e6c 93810018 		stw 28,24(1)
 6774 0e70 9001001C 		stw 0,28(1)
 6775 0e74 48000001 		bl _ZN7sigslot7signal3IP9GuiButtoniRK6_POINTNS_15single_threadedEE7connectI10TextEditorEEvPT_MSA_F
 6776              		.loc 4 73 0
 6777 0e78 3C600000 		lis 3,.LC16@ha
 6778 0e7c 386300C8 		la 3,.LC16@l(3)
 6779 0e80 48000001 		bl getThemeInt
 6780 0e84 7C7B1B78 		mr 27,3
 6781 0e88 3C600000 		lis 3,.LC17@ha
 6782 0e8c 386300EC 		la 3,.LC17@l(3)
 6783 0e90 48000001 		bl getThemeColor
 6784              		.loc 4 73 0 is_stmt 0 discriminator 1
 6785 0e94 7C791B78 		mr 25,3
 6786 0e98 386000D0 		li 3,208
 6787 0e9c 48000001 		bl _Znwj
 6788              	.LEHE50:
 6789              		.loc 4 73 0 discriminator 2
 6790 0ea0 7C3E0B78 		mr 30,1
 6791 0ea4 389A0001 		addi 4,26,1
 6792 0ea8 973E0020 		stwu 25,32(30)
 6793 0eac 7F65DB78 		mr 5,27
 6794 0eb0 7C7D1B78 		mr 29,3
 6795              	.LVL499:
 6796 0eb4 7FC6F378 		mr 6,30
 6797              	.LEHB51:
 6798 0eb8 48000001 		bl _ZN7GuiTextC1EPKci9_gx_color
 6799              	.LEHE51:
 6800              		.loc 4 73 0 discriminator 1
 6801 0ebc 93BF0110 		stw 29,272(31)
 6802              		.loc 4 74 0 is_stmt 1 discriminator 1
 6803 0ec0 7FA3EB78 		mr 3,29
 6804 0ec4 813D0000 		lwz 9,0(29)
 6805 0ec8 38800012 		li 4,18
 6806 0ecc 800900B4 		lwz 0,180(9)
 6807 0ed0 7C0903A6 		mtctr 0
 6808              	.LEHB52:
 6809 0ed4 4E800421 		bctrl
 6810              		.loc 4 75 0
 6811 0ed8 807F0110 		lwz 3,272(31)
 6812 0edc 3880FFEC 		li 4,-20
 6813 0ee0 38A00019 		li 5,25
 6814 0ee4 81230000 		lwz 9,0(3)
 6815 0ee8 800900A8 		lwz 0,168(9)
 6816 0eec 7C0903A6 		mtctr 0
 6817 0ef0 4E800421 		bctrl
 6818              		.loc 4 76 0
 6819 0ef4 807F0110 		lwz 3,272(31)
 6820 0ef8 38800154 		li 4,340
 6821 0efc 38A00001 		li 5,1
