	.file	"ThemeSettingsMenu.cpp"
	.section	".text"
.Ltext0:
	.section	.text._ZN7sigslot15single_threaded4lockEv,"axG",@progbits,_ZN7sigslot15single_threaded4lockEv,comdat
	.align 2
	.weak	_ZN7sigslot15single_threaded4lockEv
	.type	_ZN7sigslot15single_threaded4lockEv, @function
_ZN7sigslot15single_threaded4lockEv:
.LFB1151:
	.file 1 "d:/Projects/SaveGameManager/savegame-manager-gx/trunk/source/Settings/menus/../../GUI/../sigslot.h"
	.loc 1 109 0
	.cfi_startproc
.LVL0:
	.loc 1 112 0
	blr
	.cfi_endproc
.LFE1151:
	.size	_ZN7sigslot15single_threaded4lockEv, .-_ZN7sigslot15single_threaded4lockEv
	.section	.text._ZN7sigslot15single_threaded6unlockEv,"axG",@progbits,_ZN7sigslot15single_threaded6unlockEv,comdat
	.align 2
	.weak	_ZN7sigslot15single_threaded6unlockEv
	.type	_ZN7sigslot15single_threaded6unlockEv, @function
_ZN7sigslot15single_threaded6unlockEv:
.LFB1152:
	.loc 1 114 0
	.cfi_startproc
.LVL1:
	.loc 1 117 0
	blr
	.cfi_endproc
.LFE1152:
	.size	_ZN7sigslot15single_threaded6unlockEv, .-_ZN7sigslot15single_threaded6unlockEv
	.section	.text._ZN10GuiElement9SetParentEPS_,"axG",@progbits,_ZN10GuiElement9SetParentEPS_,comdat
	.align 2
	.weak	_ZN10GuiElement9SetParentEPS_
	.type	_ZN10GuiElement9SetParentEPS_, @function
_ZN10GuiElement9SetParentEPS_:
.LFB1384:
	.file 2 "d:/Projects/SaveGameManager/savegame-manager-gx/trunk/source/Settings/menus/../../GUI/gui_element.h"
	.loc 2 92 0
	.cfi_startproc
.LVL2:
	.loc 2 92 0
	stw 4,96(3)
	blr
	.cfi_endproc
.LFE1384:
	.size	_ZN10GuiElement9SetParentEPS_, .-_ZN10GuiElement9SetParentEPS_
	.section	.text._ZN10GuiElement9GetParentEv,"axG",@progbits,_ZN10GuiElement9GetParentEv,comdat
	.align 2
	.weak	_ZN10GuiElement9GetParentEv
	.type	_ZN10GuiElement9GetParentEv, @function
_ZN10GuiElement9GetParentEv:
.LFB1385:
	.loc 2 95 0
	.cfi_startproc
.LVL3:
	.loc 2 95 0
	lwz 3,96(3)
.LVL4:
	blr
	.cfi_endproc
.LFE1385:
	.size	_ZN10GuiElement9GetParentEv, .-_ZN10GuiElement9GetParentEv
	.section	.text._ZN10GuiElement12GetZPositionEv,"axG",@progbits,_ZN10GuiElement12GetZPositionEv,comdat
	.align 2
	.weak	_ZN10GuiElement12GetZPositionEv
	.type	_ZN10GuiElement12GetZPositionEv, @function
_ZN10GuiElement12GetZPositionEv:
.LFB1386:
	.loc 2 106 0
	.cfi_startproc
.LVL5:
	mflr 0
	stwu 1,-16(1)
.LCFI0:
	.cfi_def_cfa_offset 16
	.cfi_register 65, 0
	stw 31,12(1)
	mr 31,3
	.cfi_offset 31, -4
	stw 0,20(1)
.LBB1326:
	.loc 2 110 0
	lwz 11,96(3)
	.loc 2 108 0
	li 3,0
.LVL6:
	.loc 2 110 0
	cmpwi 7,11,0
	beq- 7,.L6
	.cfi_offset 65, 4
	.loc 2 111 0
	lwz 9,0(11)
	mr 3,11
	lwz 0,24(9)
	mtctr 0
	bctrl
.LVL7:
.L6:
	.loc 2 113 0
	lwz 0,52(31)
.LBE1326:
	.loc 2 114 0
	lwz 31,12(1)
.LVL8:
	add 3,3,0
.LVL9:
	lwz 0,20(1)
	addi 1,1,16
.LCFI1:
	.cfi_def_cfa_offset 0
	.cfi_restore 31
	mtlr 0
	blr
	.cfi_endproc
.LFE1386:
	.size	_ZN10GuiElement12GetZPositionEv, .-_ZN10GuiElement12GetZPositionEv
	.section	.text._ZN10GuiElement10GetLeftPosEv,"axG",@progbits,_ZN10GuiElement10GetLeftPosEv,comdat
	.align 2
	.weak	_ZN10GuiElement10GetLeftPosEv
	.type	_ZN10GuiElement10GetLeftPosEv, @function
_ZN10GuiElement10GetLeftPosEv:
.LFB1387:
	.loc 2 116 0
	.cfi_startproc
.LVL10:
	.loc 2 116 0
	lwz 3,44(3)
.LVL11:
	blr
	.cfi_endproc
.LFE1387:
	.size	_ZN10GuiElement10GetLeftPosEv, .-_ZN10GuiElement10GetLeftPosEv
	.section	.text._ZN10GuiElement9GetTopPosEv,"axG",@progbits,_ZN10GuiElement9GetTopPosEv,comdat
	.align 2
	.weak	_ZN10GuiElement9GetTopPosEv
	.type	_ZN10GuiElement9GetTopPosEv, @function
_ZN10GuiElement9GetTopPosEv:
.LFB1388:
	.loc 2 118 0
	.cfi_startproc
.LVL12:
	.loc 2 118 0
	lwz 3,48(3)
.LVL13:
	blr
	.cfi_endproc
.LFE1388:
	.size	_ZN10GuiElement9GetTopPosEv, .-_ZN10GuiElement9GetTopPosEv
	.section	.text._ZN10GuiElement8GetWidthEv,"axG",@progbits,_ZN10GuiElement8GetWidthEv,comdat
	.align 2
	.weak	_ZN10GuiElement8GetWidthEv
	.type	_ZN10GuiElement8GetWidthEv, @function
_ZN10GuiElement8GetWidthEv:
.LFB1389:
	.loc 2 121 0
	.cfi_startproc
.LVL14:
	.loc 2 121 0
	lwz 3,36(3)
.LVL15:
	blr
	.cfi_endproc
.LFE1389:
	.size	_ZN10GuiElement8GetWidthEv, .-_ZN10GuiElement8GetWidthEv
	.section	.text._ZN10GuiElement9GetHeightEv,"axG",@progbits,_ZN10GuiElement9GetHeightEv,comdat
	.align 2
	.weak	_ZN10GuiElement9GetHeightEv
	.type	_ZN10GuiElement9GetHeightEv, @function
_ZN10GuiElement9GetHeightEv:
.LFB1390:
	.loc 2 124 0
	.cfi_startproc
.LVL16:
	.loc 2 124 0
	lwz 3,40(3)
.LVL17:
	blr
	.cfi_endproc
.LFE1390:
	.size	_ZN10GuiElement9GetHeightEv, .-_ZN10GuiElement9GetHeightEv
	.section	.text._ZN10GuiElement7SetSizeEii,"axG",@progbits,_ZN10GuiElement7SetSizeEii,comdat
	.align 2
	.weak	_ZN10GuiElement7SetSizeEii
	.type	_ZN10GuiElement7SetSizeEii, @function
_ZN10GuiElement7SetSizeEii:
.LFB1391:
	.loc 2 128 0
	.cfi_startproc
.LVL18:
	.loc 2 130 0
	stw 4,36(3)
	.loc 2 132 0
	.loc 2 131 0
	stw 5,40(3)
	.loc 2 132 0
	blr
	.cfi_endproc
.LFE1391:
	.size	_ZN10GuiElement7SetSizeEii, .-_ZN10GuiElement7SetSizeEii
	.section	.text._ZN10GuiElement9IsVisibleEv,"axG",@progbits,_ZN10GuiElement9IsVisibleEv,comdat
	.align 2
	.weak	_ZN10GuiElement9IsVisibleEv
	.type	_ZN10GuiElement9IsVisibleEv, @function
_ZN10GuiElement9IsVisibleEv:
.LFB1393:
	.loc 2 142 0
	.cfi_startproc
.LVL19:
	.loc 2 142 0
	lbz 3,29(3)
.LVL20:
	blr
	.cfi_endproc
.LFE1393:
	.size	_ZN10GuiElement9IsVisibleEv, .-_ZN10GuiElement9IsVisibleEv
	.section	.text._ZN10GuiElement12IsSelectableEv,"axG",@progbits,_ZN10GuiElement12IsSelectableEv,comdat
	.align 2
	.weak	_ZN10GuiElement12IsSelectableEv
	.type	_ZN10GuiElement12IsSelectableEv, @function
_ZN10GuiElement12IsSelectableEv:
.LFB1394:
	.loc 2 145 0
	.cfi_startproc
.LVL21:
	.loc 2 149 0
	lwz 0,72(3)
	li 9,0
	cmpwi 7,0,4
	beq- 7,.L16
	.loc 2 149 0 is_stmt 0 discriminator 1
	cmpwi 7,0,2
	beq- 7,.L16
	.loc 2 149 0 discriminator 3
	lbz 9,30(3)
.L16:
	.loc 2 150 0 is_stmt 1 discriminator 5
	mr 3,9
.LVL22:
	blr
	.cfi_endproc
.LFE1394:
	.size	_ZN10GuiElement12IsSelectableEv, .-_ZN10GuiElement12IsSelectableEv
	.section	.text._ZN10GuiElement11IsClickableEv,"axG",@progbits,_ZN10GuiElement11IsClickableEv,comdat
	.align 2
	.weak	_ZN10GuiElement11IsClickableEv
	.type	_ZN10GuiElement11IsClickableEv, @function
_ZN10GuiElement11IsClickableEv:
.LFB1395:
	.loc 2 153 0
	.cfi_startproc
.LVL23:
	.loc 2 158 0
	lwz 0,72(3)
	li 9,0
	cmpwi 7,0,4
	beq- 7,.L20
	.loc 2 158 0 is_stmt 0 discriminator 1
	cmpwi 7,0,2
	beq- 7,.L20
	.loc 2 158 0 discriminator 3
	cmpwi 7,0,3
	beq- 7,.L20
	.loc 2 158 0 discriminator 4
	lbz 9,31(3)
.L20:
	.loc 2 159 0 is_stmt 1 discriminator 6
	mr 3,9
.LVL24:
	blr
	.cfi_endproc
.LFE1395:
	.size	_ZN10GuiElement11IsClickableEv, .-_ZN10GuiElement11IsClickableEv
	.section	.text._ZN10GuiElement10IsHoldableEv,"axG",@progbits,_ZN10GuiElement10IsHoldableEv,comdat
	.align 2
	.weak	_ZN10GuiElement10IsHoldableEv
	.type	_ZN10GuiElement10IsHoldableEv, @function
_ZN10GuiElement10IsHoldableEv:
.LFB1396:
	.loc 2 162 0
	.cfi_startproc
.LVL25:
	.loc 2 162 0
	lwz 9,72(3)
	li 0,0
	cmpwi 7,9,4
	beq- 7,.L25
	.loc 2 162 0 is_stmt 0 discriminator 1
	lbz 0,32(3)
.L25:
	.loc 2 162 0 discriminator 4
	mr 3,0
.LVL26:
	blr
	.cfi_endproc
.LFE1396:
	.size	_ZN10GuiElement10IsHoldableEv, .-_ZN10GuiElement10IsHoldableEv
	.section	.text._ZN10GuiElement13SetSelectableEb,"axG",@progbits,_ZN10GuiElement13SetSelectableEb,comdat
	.align 2
	.weak	_ZN10GuiElement13SetSelectableEb
	.type	_ZN10GuiElement13SetSelectableEb, @function
_ZN10GuiElement13SetSelectableEb:
.LFB1397:
	.loc 2 165 0 is_stmt 1
	.cfi_startproc
.LVL27:
	.loc 2 165 0
	stb 4,30(3)
	blr
	.cfi_endproc
.LFE1397:
	.size	_ZN10GuiElement13SetSelectableEb, .-_ZN10GuiElement13SetSelectableEb
	.section	.text._ZN10GuiElement12SetClickableEb,"axG",@progbits,_ZN10GuiElement12SetClickableEb,comdat
	.align 2
	.weak	_ZN10GuiElement12SetClickableEb
	.type	_ZN10GuiElement12SetClickableEb, @function
_ZN10GuiElement12SetClickableEb:
.LFB1398:
	.loc 2 168 0
	.cfi_startproc
.LVL28:
	.loc 2 168 0
	stb 4,31(3)
	blr
	.cfi_endproc
.LFE1398:
	.size	_ZN10GuiElement12SetClickableEb, .-_ZN10GuiElement12SetClickableEb
	.section	.text._ZN10GuiElement11SetHoldableEb,"axG",@progbits,_ZN10GuiElement11SetHoldableEb,comdat
	.align 2
	.weak	_ZN10GuiElement11SetHoldableEb
	.type	_ZN10GuiElement11SetHoldableEb, @function
_ZN10GuiElement11SetHoldableEb:
.LFB1399:
	.loc 2 171 0
	.cfi_startproc
.LVL29:
	.loc 2 171 0
	stb 4,32(3)
	blr
	.cfi_endproc
.LFE1399:
	.size	_ZN10GuiElement11SetHoldableEb, .-_ZN10GuiElement11SetHoldableEb
	.section	.text._ZN10GuiElement8GetStateEv,"axG",@progbits,_ZN10GuiElement8GetStateEv,comdat
	.align 2
	.weak	_ZN10GuiElement8GetStateEv
	.type	_ZN10GuiElement8GetStateEv, @function
_ZN10GuiElement8GetStateEv:
.LFB1400:
	.loc 2 178 0
	.cfi_startproc
.LVL30:
	.loc 2 178 0
	lwz 3,72(3)
.LVL31:
	blr
	.cfi_endproc
.LFE1400:
	.size	_ZN10GuiElement8GetStateEv, .-_ZN10GuiElement8GetStateEv
	.section	.text._ZN10GuiElement12GetStateChanEv,"axG",@progbits,_ZN10GuiElement12GetStateChanEv,comdat
	.align 2
	.weak	_ZN10GuiElement12GetStateChanEv
	.type	_ZN10GuiElement12GetStateChanEv, @function
_ZN10GuiElement12GetStateChanEv:
.LFB1401:
	.loc 2 181 0
	.cfi_startproc
.LVL32:
	.loc 2 181 0
	lwz 3,76(3)
.LVL33:
	blr
	.cfi_endproc
.LFE1401:
	.size	_ZN10GuiElement12GetStateChanEv, .-_ZN10GuiElement12GetStateChanEv
	.section	.text._ZN10GuiElement8SetAlphaEi,"axG",@progbits,_ZN10GuiElement8SetAlphaEi,comdat
	.align 2
	.weak	_ZN10GuiElement8SetAlphaEi
	.type	_ZN10GuiElement8SetAlphaEi, @function
_ZN10GuiElement8SetAlphaEi:
.LFB1403:
	.loc 2 190 0
	.cfi_startproc
.LVL34:
	.loc 2 190 0
	stw 4,56(3)
	blr
	.cfi_endproc
.LFE1403:
	.size	_ZN10GuiElement8SetAlphaEi, .-_ZN10GuiElement8SetAlphaEi
	.section	.text._ZN10GuiElement8GetAlphaEv,"axG",@progbits,_ZN10GuiElement8GetAlphaEv,comdat
	.align 2
	.weak	_ZN10GuiElement8GetAlphaEv
	.type	_ZN10GuiElement8GetAlphaEv, @function
_ZN10GuiElement8GetAlphaEv:
.LFB1404:
	.loc 2 194 0
	.cfi_startproc
.LVL35:
	mflr 0
	stwu 1,-40(1)
.LCFI2:
	.cfi_def_cfa_offset 40
	.cfi_register 65, 0
	stw 31,36(1)
	stw 0,44(1)
.LBB1327:
	.loc 2 198 0
	lwz 31,108(3)
	.cfi_offset 65, 4
	.cfi_offset 31, -4
	cmpwi 7,31,0
	blt- 7,.L36
.L34:
.LVL36:
	.loc 2 203 0
	lwz 3,96(3)
.LVL37:
	cmpwi 7,3,0
	beq- 7,.L35
	.loc 2 204 0
	lwz 9,0(3)
	xoris 31,31,0x8000
.LVL38:
	lwz 0,100(9)
	mtctr 0
	bctrl
	lis 0,0x4330
	xoris 3,3,0x8000
	stw 0,16(1)
	stw 3,20(1)
	lis 9,.LC1@ha
	lfs 0,.LC1@l(9)
	lis 9,.LC2@ha
	lfd 13,16(1)
	lfs 12,.LC2@l(9)
	addi 9,1,24
	fsub 13,13,0
	stw 31,12(1)
	stw 0,8(1)
	frsp 13,13
	fdivs 13,13,12
	lfd 12,8(1)
	fsub 0,12,0
	frsp 0,0
	fmuls 0,0,13
	fctiwz 0,0
	stfiwx 0,0,9
	lwz 31,24(1)
.LVL39:
.L35:
.LBE1327:
	.loc 2 207 0
	lwz 0,44(1)
	mr 3,31
	lwz 31,36(1)
.LVL40:
	mtlr 0
	addi 1,1,40
	.cfi_remember_state
.LCFI3:
	.cfi_def_cfa_offset 0
	.cfi_restore 31
	blr
.LVL41:
.L36:
.LCFI4:
	.cfi_restore_state
.LBB1328:
	.loc 2 201 0
	lwz 31,56(3)
.LVL42:
	b .L34
.LBE1328:
	.cfi_endproc
.LFE1404:
	.size	_ZN10GuiElement8GetAlphaEv, .-_ZN10GuiElement8GetAlphaEv
	.section	.text._ZN10GuiElement8SetScaleEf,"axG",@progbits,_ZN10GuiElement8SetScaleEf,comdat
	.align 2
	.weak	_ZN10GuiElement8SetScaleEf
	.type	_ZN10GuiElement8SetScaleEf, @function
_ZN10GuiElement8SetScaleEf:
.LFB1405:
	.loc 2 210 0
	.cfi_startproc
.LVL43:
	.loc 2 212 0
	stfs 1,60(3)
	.loc 2 214 0
	.loc 2 213 0
	stfs 1,64(3)
	.loc 2 214 0
	blr
	.cfi_endproc
.LFE1405:
	.size	_ZN10GuiElement8SetScaleEf, .-_ZN10GuiElement8SetScaleEf
	.section	.text._ZN10GuiElement9SetScaleXEf,"axG",@progbits,_ZN10GuiElement9SetScaleXEf,comdat
	.align 2
	.weak	_ZN10GuiElement9SetScaleXEf
	.type	_ZN10GuiElement9SetScaleXEf, @function
_ZN10GuiElement9SetScaleXEf:
.LFB1406:
	.loc 2 217 0
	.cfi_startproc
.LVL44:
	.loc 2 217 0
	stfs 1,60(3)
	blr
	.cfi_endproc
.LFE1406:
	.size	_ZN10GuiElement9SetScaleXEf, .-_ZN10GuiElement9SetScaleXEf
	.section	.text._ZN10GuiElement9SetScaleYEf,"axG",@progbits,_ZN10GuiElement9SetScaleYEf,comdat
	.align 2
	.weak	_ZN10GuiElement9SetScaleYEf
	.type	_ZN10GuiElement9SetScaleYEf, @function
_ZN10GuiElement9SetScaleYEf:
.LFB1407:
	.loc 2 220 0
	.cfi_startproc
.LVL45:
	.loc 2 220 0
	stfs 1,64(3)
	blr
	.cfi_endproc
.LFE1407:
	.size	_ZN10GuiElement9SetScaleYEf, .-_ZN10GuiElement9SetScaleYEf
	.section	.text._ZN10GuiElement8GetScaleEv,"axG",@progbits,_ZN10GuiElement8GetScaleEv,comdat
	.align 2
	.weak	_ZN10GuiElement8GetScaleEv
	.type	_ZN10GuiElement8GetScaleEv, @function
_ZN10GuiElement8GetScaleEv:
.LFB1408:
	.loc 2 223 0
	.cfi_startproc
.LVL46:
	mflr 0
	stwu 1,-16(1)
.LCFI5:
	.cfi_def_cfa_offset 16
	.cfi_register 65, 0
.LBB1329:
	.loc 2 225 0
	lis 9,.LC3@ha
.LBE1329:
	.loc 2 223 0
	stfd 31,8(1)
	stw 0,20(1)
.LBB1330:
	.loc 2 225 0
	lfs 0,64(3)
	lfs 31,60(3)
	.cfi_offset 65, 4
	.cfi_offset 63, -8
	.loc 2 227 0
	lwz 11,96(3)
	.loc 2 225 0
	fadds 31,31,0
	lfs 0,.LC3@l(9)
	.loc 2 227 0
	cmpwi 7,11,0
	.loc 2 225 0
	fmuls 31,31,0
	lfs 0,112(3)
	fmuls 31,31,0
.LVL47:
	.loc 2 227 0
	beq- 7,.L41
	.loc 2 228 0
	lwz 9,0(11)
	mr 3,11
.LVL48:
	lwz 0,116(9)
	mtctr 0
	bctrl
	fmuls 31,31,1
.LVL49:
.L41:
.LBE1330:
	.loc 2 231 0
	lwz 0,20(1)
	fmr 1,31
	lfd 31,8(1)
.LVL50:
	mtlr 0
	addi 1,1,16
.LCFI6:
	.cfi_def_cfa_offset 0
	.cfi_restore 63
	blr
	.cfi_endproc
.LFE1408:
	.size	_ZN10GuiElement8GetScaleEv, .-_ZN10GuiElement8GetScaleEv
	.section	.text._ZN10GuiElement9GetScaleXEv,"axG",@progbits,_ZN10GuiElement9GetScaleXEv,comdat
	.align 2
	.weak	_ZN10GuiElement9GetScaleXEv
	.type	_ZN10GuiElement9GetScaleXEv, @function
_ZN10GuiElement9GetScaleXEv:
.LFB1409:
	.loc 2 234 0
	.cfi_startproc
.LVL51:
	mflr 0
	stwu 1,-16(1)
.LCFI7:
	.cfi_def_cfa_offset 16
	.cfi_register 65, 0
	stfd 31,8(1)
	stw 0,20(1)
.LBB1331:
	.loc 2 238 0
	lwz 11,96(3)
	.loc 2 236 0
	lfs 31,60(3)
	.cfi_offset 65, 4
	.cfi_offset 63, -8
	.loc 2 238 0
	cmpwi 7,11,0
	.loc 2 236 0
	lfs 0,112(3)
	fmuls 31,31,0
.LVL52:
	.loc 2 238 0
	beq- 7,.L43
	.loc 2 239 0
	lwz 9,0(11)
	mr 3,11
.LVL53:
	lwz 0,120(9)
	mtctr 0
	bctrl
	fmuls 31,31,1
.LVL54:
.L43:
.LBE1331:
	.loc 2 242 0
	lwz 0,20(1)
	fmr 1,31
	lfd 31,8(1)
.LVL55:
	mtlr 0
	addi 1,1,16
.LCFI8:
	.cfi_def_cfa_offset 0
	.cfi_restore 63
	blr
	.cfi_endproc
.LFE1409:
	.size	_ZN10GuiElement9GetScaleXEv, .-_ZN10GuiElement9GetScaleXEv
	.section	.text._ZN10GuiElement9GetScaleYEv,"axG",@progbits,_ZN10GuiElement9GetScaleYEv,comdat
	.align 2
	.weak	_ZN10GuiElement9GetScaleYEv
	.type	_ZN10GuiElement9GetScaleYEv, @function
_ZN10GuiElement9GetScaleYEv:
.LFB1410:
	.loc 2 245 0
	.cfi_startproc
.LVL56:
	mflr 0
	stwu 1,-16(1)
.LCFI9:
	.cfi_def_cfa_offset 16
	.cfi_register 65, 0
	stfd 31,8(1)
	stw 0,20(1)
.LBB1332:
	.loc 2 249 0
	lwz 11,96(3)
	.loc 2 247 0
	lfs 31,64(3)
	.cfi_offset 65, 4
	.cfi_offset 63, -8
	.loc 2 249 0
	cmpwi 7,11,0
	.loc 2 247 0
	lfs 0,112(3)
	fmuls 31,31,0
.LVL57:
	.loc 2 249 0
	beq- 7,.L45
	.loc 2 250 0
	lwz 9,0(11)
	mr 3,11
.LVL58:
	lwz 0,124(9)
	mtctr 0
	bctrl
	fmuls 31,31,1
.LVL59:
.L45:
.LBE1332:
	.loc 2 253 0
	lwz 0,20(1)
	fmr 1,31
	lfd 31,8(1)
.LVL60:
	mtlr 0
	addi 1,1,16
.LCFI10:
	.cfi_def_cfa_offset 0
	.cfi_restore 63
	blr
	.cfi_endproc
.LFE1410:
	.size	_ZN10GuiElement9GetScaleYEv, .-_ZN10GuiElement9GetScaleYEv
	.section	.text._ZN10GuiElement6RumbleEv,"axG",@progbits,_ZN10GuiElement6RumbleEv,comdat
	.align 2
	.weak	_ZN10GuiElement6RumbleEv
	.type	_ZN10GuiElement6RumbleEv, @function
_ZN10GuiElement6RumbleEv:
.LFB1411:
	.loc 2 256 0
	.cfi_startproc
.LVL61:
	.loc 2 256 0
	lbz 3,28(3)
.LVL62:
	blr
	.cfi_endproc
.LFE1411:
	.size	_ZN10GuiElement6RumbleEv, .-_ZN10GuiElement6RumbleEv
	.section	.text._ZN10GuiElement9SetRumbleEb,"axG",@progbits,_ZN10GuiElement9SetRumbleEb,comdat
	.align 2
	.weak	_ZN10GuiElement9SetRumbleEb
	.type	_ZN10GuiElement9SetRumbleEb, @function
_ZN10GuiElement9SetRumbleEb:
.LFB1412:
	.loc 2 259 0
	.cfi_startproc
.LVL63:
	.loc 2 259 0
	stb 4,28(3)
	blr
	.cfi_endproc
.LFE1412:
	.size	_ZN10GuiElement9SetRumbleEb, .-_ZN10GuiElement9SetRumbleEb
	.section	.text._ZN10GuiElement13SetEffectGrowEv,"axG",@progbits,_ZN10GuiElement13SetEffectGrowEv,comdat
	.align 2
	.weak	_ZN10GuiElement13SetEffectGrowEv
	.type	_ZN10GuiElement13SetEffectGrowEv, @function
_ZN10GuiElement13SetEffectGrowEv:
.LFB1413:
	.loc 2 271 0
	.cfi_startproc
.LVL64:
	mflr 0
	stwu 1,-8(1)
.LCFI11:
	.cfi_def_cfa_offset 8
	.cfi_register 65, 0
	lwz 9,0(3)
	li 4,256
	li 5,4
	li 6,110
	stw 0,12(1)
	.loc 2 271 0
	lwz 0,140(9)
	.cfi_offset 65, 4
	mtctr 0
	bctrl
.LVL65:
	lwz 0,12(1)
	addi 1,1,8
.LCFI12:
	.cfi_def_cfa_offset 0
	mtlr 0
	blr
	.cfi_endproc
.LFE1413:
	.size	_ZN10GuiElement13SetEffectGrowEv, .-_ZN10GuiElement13SetEffectGrowEv
	.section	.text._ZNK10GuiElement9GetEffectEv,"axG",@progbits,_ZNK10GuiElement9GetEffectEv,comdat
	.align 2
	.weak	_ZNK10GuiElement9GetEffectEv
	.type	_ZNK10GuiElement9GetEffectEv, @function
_ZNK10GuiElement9GetEffectEv:
.LFB1414:
	.loc 2 276 0
	.cfi_startproc
.LVL66:
	.loc 2 276 0
	lwz 3,120(3)
.LVL67:
	blr
	.cfi_endproc
.LFE1414:
	.size	_ZNK10GuiElement9GetEffectEv, .-_ZNK10GuiElement9GetEffectEv
	.section	.text._ZNK10GuiElement10IsAnimatedEv,"axG",@progbits,_ZNK10GuiElement10IsAnimatedEv,comdat
	.align 2
	.weak	_ZNK10GuiElement10IsAnimatedEv
	.type	_ZNK10GuiElement10IsAnimatedEv, @function
_ZNK10GuiElement10IsAnimatedEv:
.LFB1415:
	.loc 2 278 0
	.cfi_startproc
.LVL68:
	mflr 0
	stwu 1,-8(1)
.LCFI13:
	.cfi_def_cfa_offset 8
	.cfi_register 65, 0
	stw 0,12(1)
	.loc 2 278 0
	lwz 9,0(3)
	lwz 0,152(9)
	.cfi_offset 65, 4
	mtctr 0
	bctrl
.LVL69:
	srawi 0,3,31
	subf 3,3,0
	lwz 0,12(1)
	srwi 3,3,31
	mtlr 0
	addi 1,1,8
.LCFI14:
	.cfi_def_cfa_offset 0
	blr
	.cfi_endproc
.LFE1415:
	.size	_ZNK10GuiElement10IsAnimatedEv, .-_ZNK10GuiElement10IsAnimatedEv
	.section	.text._ZN10GuiElement8IsInsideEii,"axG",@progbits,_ZN10GuiElement8IsInsideEii,comdat
	.align 2
	.weak	_ZN10GuiElement8IsInsideEii
	.type	_ZN10GuiElement8IsInsideEii, @function
_ZN10GuiElement8IsInsideEii:
.LFB1417:
	.loc 2 285 0
	.cfi_startproc
.LVL70:
	mflr 0
	stwu 1,-24(1)
.LCFI15:
	.cfi_def_cfa_offset 24
	.cfi_register 65, 0
	stw 28,8(1)
	mr 28,5
	.cfi_offset 28, -16
	stw 0,28(1)
	stw 29,12(1)
	.loc 2 290 0
	li 29,0
	.cfi_offset 29, -12
	.cfi_offset 65, 4
	.loc 2 287 0
	lwz 9,0(3)
	.loc 2 285 0
	stw 30,16(1)
	mr 30,4
	.cfi_offset 30, -8
	.loc 2 287 0
	lwz 0,16(9)
	.loc 2 285 0
	stw 31,20(1)
	.loc 2 285 0
	mr 31,3
	.cfi_offset 31, -4
	.loc 2 287 0
	mtctr 0
	bctrl
.LVL71:
	.loc 2 290 0
	cmpw 7,3,30
	blt- 7,.L56
.L52:
	.loc 2 291 0 discriminator 6
	lwz 0,28(1)
	mr 3,29
	lwz 28,8(1)
.LVL72:
	mtlr 0
	lwz 29,12(1)
	lwz 30,16(1)
.LVL73:
	lwz 31,20(1)
.LVL74:
	addi 1,1,24
	.cfi_remember_state
.LCFI16:
	.cfi_def_cfa_offset 0
	.cfi_restore 31
	.cfi_restore 30
	.cfi_restore 29
	.cfi_restore 28
	blr
.LVL75:
.L56:
.LCFI17:
	.cfi_restore_state
	.loc 2 288 0 discriminator 1
	lwz 9,0(31)
	mr 3,31
	lwz 0,16(9)
	mtctr 0
	bctrl
	.loc 2 290 0 discriminator 1
	lwz 0,36(31)
	add 0,3,0
	cmpw 7,30,0
	bge+ 7,.L52
	.loc 2 289 0 discriminator 3
	lwz 9,0(31)
	mr 3,31
	lwz 0,20(9)
	mtctr 0
	bctrl
	.loc 2 290 0 discriminator 3
	cmpw 7,3,28
	bge+ 7,.L52
	.loc 2 290 0 is_stmt 0 discriminator 4
	lwz 9,0(31)
	mr 3,31
	lwz 0,20(9)
	mtctr 0
	bctrl
	lwz 0,40(31)
	add 0,3,0
	.loc 2 285 0 is_stmt 1 discriminator 4
	cmpw 7,28,0
	mfcr 29
	rlwinm 29,29,29,1
	b .L52
	.cfi_endproc
.LFE1417:
	.size	_ZN10GuiElement8IsInsideEii, .-_ZN10GuiElement8IsInsideEii
	.section	.text._ZN10GuiElement11SetPositionEii,"axG",@progbits,_ZN10GuiElement11SetPositionEii,comdat
	.align 2
	.weak	_ZN10GuiElement11SetPositionEii
	.type	_ZN10GuiElement11SetPositionEii, @function
_ZN10GuiElement11SetPositionEii:
.LFB1418:
	.loc 2 295 0
	.cfi_startproc
.LVL76:
	.loc 2 297 0
	stw 4,44(3)
	.loc 2 299 0
	.loc 2 298 0
	stw 5,48(3)
	.loc 2 299 0
	blr
	.cfi_endproc
.LFE1418:
	.size	_ZN10GuiElement11SetPositionEii, .-_ZN10GuiElement11SetPositionEii
	.section	.text._ZN10GuiElement11SetPositionEiii,"axG",@progbits,_ZN10GuiElement11SetPositionEiii,comdat
	.align 2
	.weak	_ZN10GuiElement11SetPositionEiii
	.type	_ZN10GuiElement11SetPositionEiii, @function
_ZN10GuiElement11SetPositionEiii:
.LFB1419:
	.loc 2 304 0
	.cfi_startproc
.LVL77:
	.loc 2 306 0
	stw 4,44(3)
	.loc 2 309 0
	.loc 2 307 0
	stw 5,48(3)
	.loc 2 308 0
	stw 6,52(3)
	.loc 2 309 0
	blr
	.cfi_endproc
.LFE1419:
	.size	_ZN10GuiElement11SetPositionEiii, .-_ZN10GuiElement11SetPositionEiii
	.section	.text._ZN10GuiElement12SetAlignmentEi,"axG",@progbits,_ZN10GuiElement12SetAlignmentEi,comdat
	.align 2
	.weak	_ZN10GuiElement12SetAlignmentEi
	.type	_ZN10GuiElement12SetAlignmentEi, @function
_ZN10GuiElement12SetAlignmentEi:
.LFB1421:
	.loc 2 316 0
	.cfi_startproc
.LVL78:
	.loc 2 316 0
	stw 4,68(3)
	blr
	.cfi_endproc
.LFE1421:
	.size	_ZN10GuiElement12SetAlignmentEi, .-_ZN10GuiElement12SetAlignmentEi
	.section	.text._ZNK10GuiElement12GetAlignmentEv,"axG",@progbits,_ZNK10GuiElement12GetAlignmentEv,comdat
	.align 2
	.weak	_ZNK10GuiElement12GetAlignmentEv
	.type	_ZNK10GuiElement12GetAlignmentEv, @function
_ZNK10GuiElement12GetAlignmentEv:
.LFB1422:
	.loc 2 318 0
	.cfi_startproc
.LVL79:
	.loc 2 318 0
	lwz 3,68(3)
.LVL80:
	blr
	.cfi_endproc
.LFE1422:
	.size	_ZNK10GuiElement12GetAlignmentEv, .-_ZNK10GuiElement12GetAlignmentEv
	.section	.text._ZN8GuiFrame4hideEv,"axG",@progbits,_ZN8GuiFrame4hideEv,comdat
	.align 2
	.weak	_ZN8GuiFrame4hideEv
	.type	_ZN8GuiFrame4hideEv, @function
_ZN8GuiFrame4hideEv:
.LFB1432:
	.file 3 "d:/Projects/SaveGameManager/savegame-manager-gx/trunk/source/Settings/menus/../../GUI/gui_frame.h"
	.loc 3 81 0
	.cfi_startproc
.LVL81:
	.loc 3 81 0
	blr
	.cfi_endproc
.LFE1432:
	.size	_ZN8GuiFrame4hideEv, .-_ZN8GuiFrame4hideEv
	.section	.text._ZN8GuiFrame4execEv,"axG",@progbits,_ZN8GuiFrame4execEv,comdat
	.align 2
	.weak	_ZN8GuiFrame4execEv
	.type	_ZN8GuiFrame4execEv, @function
_ZN8GuiFrame4execEv:
.LFB1433:
	.loc 3 83 0
	.cfi_startproc
.LVL82:
	.loc 3 83 0
	blr
	.cfi_endproc
.LFE1433:
	.size	_ZN8GuiFrame4execEv, .-_ZN8GuiFrame4execEv
	.section	.text._ZN8GuiFrame12updateEventsEv,"axG",@progbits,_ZN8GuiFrame12updateEventsEv,comdat
	.align 2
	.weak	_ZN8GuiFrame12updateEventsEv
	.type	_ZN8GuiFrame12updateEventsEv, @function
_ZN8GuiFrame12updateEventsEv:
.LFB1434:
	.loc 3 85 0
	.cfi_startproc
.LVL83:
	.loc 3 85 0
	blr
	.cfi_endproc
.LFE1434:
	.size	_ZN8GuiFrame12updateEventsEv, .-_ZN8GuiFrame12updateEventsEv
	.section	.text._ZN17ThemeSettingsMenuD1Ev,"axG",@progbits,_ZN17ThemeSettingsMenuD1Ev,comdat
	.align 2
	.weak	_ZThn176_N17ThemeSettingsMenuD1Ev
	.type	_ZThn176_N17ThemeSettingsMenuD1Ev, @function
_ZThn176_N17ThemeSettingsMenuD1Ev:
.LFB2019:
	.cfi_startproc
	addi 3,3,-176
	b .LTHUNK0
	.cfi_endproc
.LFE2019:
	.size	_ZThn176_N17ThemeSettingsMenuD1Ev, .-_ZThn176_N17ThemeSettingsMenuD1Ev
	.section	.text._ZN17ThemeSettingsMenuD2Ev,"axG",@progbits,_ZN17ThemeSettingsMenuD5Ev,comdat
	.align 2
	.weak	_ZN17ThemeSettingsMenuD2Ev
	.type	_ZN17ThemeSettingsMenuD2Ev, @function
_ZN17ThemeSettingsMenuD2Ev:
.LFB1917:
	.file 4 "d:/Projects/SaveGameManager/savegame-manager-gx/trunk/source/Settings/menus/ThemeSettingsMenu.hpp"
	.loc 4 29 0
	.cfi_startproc
.LVL84:
	mflr 0
	stwu 1,-8(1)
.LCFI18:
	.cfi_def_cfa_offset 8
	.cfi_register 65, 0
.LBB1334:
	lis 11,_ZTV17ThemeSettingsMenu+8@ha
	la 11,_ZTV17ThemeSettingsMenu+8@l(11)
.LBE1334:
	stw 0,12(1)
.LBB1335:
	.loc 4 29 0
	addi 0,11,240
	.cfi_offset 65, 4
	stw 0,176(3)
	stw 11,0(3)
	bl _ZN15SettingsBrowserD2Ev
.LVL85:
.LBE1335:
	lwz 0,12(1)
	addi 1,1,8
.LCFI19:
	.cfi_def_cfa_offset 0
	mtlr 0
	blr
	.cfi_endproc
.LFE1917:
	.size	_ZN17ThemeSettingsMenuD2Ev, .-_ZN17ThemeSettingsMenuD2Ev
	.section	".text"
	.align 2
	.globl _ZN17ThemeSettingsMenu14OnBrowserClickEP16GuiOptionBrowseri
	.type	_ZN17ThemeSettingsMenu14OnBrowserClickEP16GuiOptionBrowseri, @function
_ZN17ThemeSettingsMenu14OnBrowserClickEP16GuiOptionBrowseri:
.LFB1601:
	.file 5 "d:/Projects/SaveGameManager/savegame-manager-gx/trunk/source/Settings/menus/ThemeSettingsMenu.cpp"
	.loc 5 84 0
	.cfi_startproc
	.cfi_personality 0,__gxx_personality_v0
	.cfi_lsda 0,.LLSDA1601
.LVL86:
.LBB1351:
.LBB1352:
	.loc 5 88 0
	cmplwi 7,5,5
.LBE1352:
.LBE1351:
	.loc 5 84 0
	mflr 0
	stwu 1,-56(1)
.LCFI20:
	.cfi_def_cfa_offset 56
	.cfi_register 65, 0
	stw 31,52(1)
	mr 31,3
	.cfi_offset 31, -4
	stw 0,60(1)
	stw 28,40(1)
	stw 29,44(1)
	stw 30,48(1)
.LBB1379:
.LBB1376:
	.loc 5 88 0
	bgt- 7,.L67
	.cfi_offset 30, -8
	.cfi_offset 29, -12
	.cfi_offset 28, -16
	.cfi_offset 65, 4
	lis 9,.L74@ha
	slwi 5,5,2
.LVL87:
	la 9,.L74@l(9)
	lwzx 0,9,5
	add 9,0,9
	mtctr 9
	bctr
	.section	.rodata
	.align 2
	.align 2
.L74:
	.long .L68-.L74
	.long .L69-.L74
	.long .L70-.L74
	.long .L71-.L74
	.long .L72-.L74
	.long .L73-.L74
	.section	".text"
.L73:
.LBB1353:
	.loc 5 131 0
	lis 3,.LC17@ha
.LVL88:
	la 3,.LC17@l(3)
.LEHB0:
	bl gettext
.LVL89:
	mr 29,3
	lis 3,.LC13@ha
	la 3,.LC13@l(3)
	bl gettext
	mr 30,3
	lis 3,.LC14@ha
	la 3,.LC14@l(3)
	bl gettext
	mr 4,29
	mr 6,3
	mr 5,30
	li 3,0
	li 7,0
	li 8,0
	bl _Z12WindowPromptPKcS0_S0_S0_S0_S0_
	cmpwi 7,3,0
	beq- 7,.L67
.LBB1354:
.LBB1355:
	.file 6 "d:/Projects/SaveGameManager/savegame-manager-gx/trunk/source/Settings/menus/../../Controls/Application.h"
	.loc 6 27 0
	lis 30,_ZN11Application8instanceE@ha
	lwz 0,_ZN11Application8instanceE@l(30)
	cmpwi 7,0,0
	beq- 7,.L91
.L83:
.LVL90:
.LBE1355:
.LBE1354:
.LBB1358:
.LBB1359:
	.loc 6 43 0
	li 0,1
	lis 9,_ZN11Application11reloadThemeE@ha
	sth 0,_ZN11Application11reloadThemeE@l(9)
	.loc 6 44 0
	lis 9,_ZN11Application13returnToThemeE@ha
	stb 0,_ZN11Application13returnToThemeE@l(9)
.LVL91:
.L67:
.LBE1359:
.LBE1358:
.LBE1353:
.LBE1376:
	.loc 5 138 0
	lwz 9,0(31)
	mr 3,31
	lwz 0,224(9)
	mtctr 0
	bctrl
.LBE1379:
	.loc 5 139 0
	lwz 0,60(1)
	lwz 28,40(1)
	mtlr 0
	lwz 29,44(1)
	lwz 30,48(1)
	lwz 31,52(1)
.LVL92:
	addi 1,1,56
	.cfi_remember_state
.LCFI21:
	.cfi_def_cfa_offset 0
	.cfi_restore 31
	.cfi_restore 30
	.cfi_restore 29
	.cfi_restore 28
	blr
.LVL93:
.L72:
.LCFI22:
	.cfi_restore_state
.LBB1380:
.LBB1377:
.LBB1374:
	.loc 5 124 0
	lis 3,.LC15@ha
.LVL94:
	la 3,.LC15@l(3)
	bl gettext
.LVL95:
	mr 28,3
	lis 3,.LC16@ha
	la 3,.LC16@l(3)
	bl gettext
	mr 29,3
	lis 3,.LC13@ha
	la 3,.LC13@l(3)
	bl gettext
	mr 30,3
	lis 3,.LC14@ha
	la 3,.LC14@l(3)
	bl gettext
	mr 4,29
	mr 6,3
	mr 5,30
	mr 3,28
	li 7,0
	li 8,0
	bl _Z12WindowPromptPKcS0_S0_S0_S0_S0_
.LBE1374:
.LBE1377:
	.loc 5 138 0
	lwz 9,0(31)
	mr 3,31
	lwz 0,224(9)
	mtctr 0
	bctrl
.LBE1380:
	.loc 5 139 0
	lwz 0,60(1)
	lwz 28,40(1)
	mtlr 0
	lwz 29,44(1)
	lwz 30,48(1)
	lwz 31,52(1)
.LVL96:
	addi 1,1,56
	.cfi_remember_state
	.cfi_restore 28
	.cfi_restore 29
	.cfi_restore 30
	.cfi_restore 31
.LCFI23:
	.cfi_def_cfa_offset 0
	blr
.LVL97:
.L68:
.LCFI24:
	.cfi_restore_state
.LBB1381:
.LBB1378:
.LBB1375:
	.loc 5 91 0
	lis 30,Settings@ha
	la 30,Settings@l(30)
	lhz 9,142(30)
	addi 0,9,1
	extsh 0,0
	cmpwi 7,0,1
	sth 0,142(30)
	ble- 7,.L75
	.loc 5 91 0 is_stmt 0 discriminator 1
	li 0,0
	sth 0,142(30)
.L76:
	.loc 5 94 0 is_stmt 1
	lis 3,Settings+1818@ha
.LVL98:
	la 3,Settings+1818@l(3)
	bl _ZN5Theme8LoadFontEPKc
.LVL99:
.L77:
	.loc 5 96 0
	lis 9,.LC6@ha
	lfs 0,112(30)
	lfs 13,.LC6@l(9)
	fcmpu 7,0,13
	bne- 7,.L78
	.loc 5 96 0 is_stmt 0 discriminator 1
	lha 0,142(30)
	cmpwi 7,0,1
	bne+ 7,.L67
	.loc 5 97 0 is_stmt 1
	lis 9,.LC7@ha
	lwz 0,.LC7@l(9)
	stw 0,112(30)
	b .L67
.LVL100:
.L69:
	.loc 5 103 0
	lis 30,Settings@ha
	lis 5,.LC8@ha
	la 30,Settings@l(30)
	li 4,20
.LVL101:
	lfs 1,112(30)
	la 5,.LC8@l(5)
	addi 3,1,8
	creqv 6,6,6
	bl snprintf
	.loc 5 104 0
	addi 3,1,8
	li 4,0
	li 5,0
	bl _Z14OnScreenNumpadPctb
.LVL102:
.LBB1360:
	.loc 5 105 0
	cmpwi 7,3,0
	beq+ 7,.L67
.LBB1361:
.LBB1362:
	.loc 5 106 0
	addi 3,1,8
.LVL103:
	bl atof
.LVL104:
	lis 9,.LC3@ha
	lfs 0,.LC3@l(9)
	fmr 13,0
	fcmpu 7,1,13
	blt- 7,.L79
	.loc 5 106 0 is_stmt 0 discriminator 2
	lis 9,.LC4@ha
	lfs 0,.LC4@l(9)
	fmr 13,0
	fcmpu 7,1,13
	bgt- 7,.L79
	.loc 5 106 0 discriminator 4
	frsp 0,1
.L79:
.LBE1362:
	.loc 5 106 0 discriminator 6
	stfs 0,112(30)
	b .L67
.LVL105:
.L70:
.LBE1361:
.LBE1360:
	.loc 5 109 0 is_stmt 1
	lis 30,Settings@ha
	lis 5,.LC8@ha
	la 30,Settings@l(30)
	li 4,20
.LVL106:
	lfs 1,116(30)
	la 5,.LC8@l(5)
	addi 3,1,8
	creqv 6,6,6
	bl snprintf
	.loc 5 110 0
	addi 3,1,8
	li 4,0
	li 5,0
	bl _Z14OnScreenNumpadPctb
.LVL107:
.LBB1363:
	.loc 5 111 0
	cmpwi 7,3,0
	beq+ 7,.L67
.LBB1364:
.LBB1365:
	.loc 5 112 0
	addi 3,1,8
.LVL108:
	bl atof
.LVL109:
	lis 9,.LC3@ha
	lfs 0,.LC3@l(9)
	fmr 13,0
	fcmpu 7,1,13
	blt- 7,.L80
	.loc 5 112 0 is_stmt 0 discriminator 2
	lis 9,.LC4@ha
	lfs 0,.LC4@l(9)
	fmr 13,0
	fcmpu 7,1,13
	bgt- 7,.L80
	.loc 5 112 0 discriminator 4
	frsp 0,1
.L80:
.LBE1365:
	.loc 5 112 0 discriminator 6
	stfs 0,116(30)
	b .L67
.LVL110:
.L71:
.LBE1364:
.LBE1363:
	.loc 5 115 0 is_stmt 1
	lis 3,.LC11@ha
	la 3,.LC11@l(3)
	bl gettext
.LVL111:
	mr 28,3
	lis 3,.LC12@ha
	la 3,.LC12@l(3)
	bl gettext
	mr 29,3
	lis 3,.LC13@ha
	la 3,.LC13@l(3)
	bl gettext
	mr 30,3
	lis 3,.LC14@ha
	la 3,.LC14@l(3)
	bl gettext
	mr 4,29
	mr 6,3
	mr 5,30
	mr 3,28
	li 7,0
	li 8,0
	bl _Z12WindowPromptPKcS0_S0_S0_S0_S0_
	cmpwi 7,3,0
	beq+ 7,.L67
.LBB1366:
.LBB1367:
	.file 7 "d:/Projects/SaveGameManager/savegame-manager-gx/trunk/source/Settings/menus/SettingsMenu.h"
	.loc 7 46 0
	lis 29,_ZN12SettingsMenu8instanceE@ha
	lwz 30,_ZN12SettingsMenu8instanceE@l(29)
	cmpwi 7,30,0
	beq- 7,.L92
.L81:
.LBE1367:
.LBE1366:
	.loc 5 117 0
	mr 3,30
	bl _ZN12SettingsMenu23SwitchToThemeDownloaderEv
	b .L67
.L78:
	.loc 5 98 0
	lis 9,.LC7@ha
	lfs 12,.LC7@l(9)
	fcmpu 7,0,12
	bne- 7,.L67
	.loc 5 98 0 is_stmt 0 discriminator 1
	lha 0,142(30)
	cmpwi 7,0,0
	bne- 7,.L67
	.loc 5 99 0 is_stmt 1
	stfs 13,112(30)
	b .L67
.LVL112:
.L75:
	.loc 5 93 0
	bne- 7,.L76
	.loc 5 93 0 is_stmt 0 discriminator 1
	lis 3,.LC5@ha
	la 3,.LC5@l(3)
	bl _ZN5Theme8LoadFontEPKc
.LVL113:
	b .L77
.L91:
.LBB1370:
.LBB1356:
	.loc 6 27 0 is_stmt 1
	li 3,632
	bl _Znwj
.LEHE0:
	mr 29,3
.LEHB1:
	bl _ZN11ApplicationC1Ev
.LEHE1:
	stw 29,_ZN11Application8instanceE@l(30)
	b .L83
.L92:
.LBE1356:
.LBE1370:
.LBB1371:
.LBB1368:
	.loc 7 46 0
	li 3,980
.LEHB2:
	bl _Znwj
.LEHE2:
	mr 30,3
.LEHB3:
	bl _ZN12SettingsMenuC1Ev
.LEHE3:
	stw 30,_ZN12SettingsMenu8instanceE@l(29)
	b .L81
.L89:
	mr 31,3
.LVL114:
.LBE1368:
.LBE1371:
.LBB1372:
.LBB1357:
	.loc 6 27 0
	mr 3,29
	bl _ZdlPv
	mr 3,31
.LEHB4:
	bl _Unwind_Resume
.LVL115:
.L90:
	mr 31,3
.LVL116:
.LBE1357:
.LBE1372:
.LBB1373:
.LBB1369:
	.loc 7 46 0
	mr 3,30
	bl _ZdlPv
	mr 3,31
	bl _Unwind_Resume
.LEHE4:
.LBE1369:
.LBE1373:
.LBE1375:
.LBE1378:
.LBE1381:
	.cfi_endproc
.LFE1601:
	.globl __gxx_personality_v0
	.section	.gcc_except_table,"a",@progbits
.LLSDA1601:
	.byte	0xff
	.byte	0xff
	.byte	0x1
	.uleb128 .LLSDACSE1601-.LLSDACSB1601
.LLSDACSB1601:
	.uleb128 .LEHB0-.LFB1601
	.uleb128 .LEHE0-.LEHB0
	.uleb128 0
	.uleb128 0
	.uleb128 .LEHB1-.LFB1601
	.uleb128 .LEHE1-.LEHB1
	.uleb128 .L89-.LFB1601
	.uleb128 0
	.uleb128 .LEHB2-.LFB1601
	.uleb128 .LEHE2-.LEHB2
	.uleb128 0
	.uleb128 0
	.uleb128 .LEHB3-.LFB1601
	.uleb128 .LEHE3-.LEHB3
	.uleb128 .L90-.LFB1601
	.uleb128 0
	.uleb128 .LEHB4-.LFB1601
	.uleb128 .LEHE4-.LEHB4
	.uleb128 0
	.uleb128 0
.LLSDACSE1601:
	.section	".text"
	.size	_ZN17ThemeSettingsMenu14OnBrowserClickEP16GuiOptionBrowseri, .-_ZN17ThemeSettingsMenu14OnBrowserClickEP16GuiOptionBrowseri
	.align 2
	.globl _ZN17ThemeSettingsMenu15SetOptionValuesEv
	.type	_ZN17ThemeSettingsMenu15SetOptionValuesEv, @function
_ZN17ThemeSettingsMenu15SetOptionValuesEv:
.LFB1600:
	.loc 5 61 0
	.cfi_startproc
.LVL117:
	mflr 0
	stwu 1,-24(1)
.LCFI25:
	.cfi_def_cfa_offset 24
	.cfi_register 65, 0
.LBB1382:
	.loc 5 65 0
	lis 9,.LANCHOR0@ha
.LBE1382:
	.loc 5 61 0
	stw 30,16(1)
.LBB1383:
	.loc 5 65 0
	lis 30,Settings@ha
	.cfi_offset 30, -8
.LBE1383:
	.loc 5 61 0
	stw 0,28(1)
.LBB1384:
	.loc 5 65 0
	la 30,Settings@l(30)
	la 9,.LANCHOR0@l(9)
.LBE1384:
	.loc 5 61 0
	stw 29,12(1)
.LBB1385:
	.loc 5 65 0
	lha 0,142(30)
	.cfi_offset 29, -12
	.cfi_offset 65, 4
	lwz 29,204(3)
.LVL118:
	slwi 0,0,2
.LBE1385:
	.loc 5 61 0
	stw 31,20(1)
	.loc 5 61 0
	mr 31,3
	.cfi_offset 31, -4
.LBB1386:
	.loc 5 65 0
	lwzx 3,9,0
.LVL119:
	bl gettext
	li 4,0
	mr 5,3
	mr 3,29
	.loc 5 68 0
	lis 29,.LC8@ha
	.loc 5 65 0
	crxor 6,6,6
	bl _ZN10OptionList8SetValueEiPKcz
.LVL120:
	.loc 5 68 0
	la 29,.LC8@l(29)
	lwz 3,204(31)
	lfs 1,112(30)
	mr 5,29
	li 4,1
	creqv 6,6,6
	bl _ZN10OptionList8SetValueEiPKcz
.LVL121:
	.loc 5 71 0
	lfs 1,116(30)
	lwz 3,204(31)
	mr 5,29
	li 4,2
	.loc 5 74 0
	lis 30,.LC18@ha
	.loc 5 71 0
	creqv 6,6,6
	bl _ZN10OptionList8SetValueEiPKcz
.LVL122:
	.loc 5 74 0
	la 30,.LC18@l(30)
	lwz 3,204(31)
	mr 5,30
	li 4,3
	crxor 6,6,6
	bl _ZN10OptionList8SetValueEiPKcz
.LVL123:
	.loc 5 77 0
	lwz 3,204(31)
	mr 5,30
	li 4,4
	crxor 6,6,6
	bl _ZN10OptionList8SetValueEiPKcz
.LVL124:
	.loc 5 80 0
	lwz 3,204(31)
	mr 5,30
	li 4,5
	crxor 6,6,6
	bl _ZN10OptionList8SetValueEiPKcz
.LBE1386:
	.loc 5 81 0
	lwz 0,28(1)
	lwz 29,12(1)
	mtlr 0
	lwz 30,16(1)
	lwz 31,20(1)
.LVL125:
	addi 1,1,24
.LCFI26:
	.cfi_def_cfa_offset 0
	.cfi_restore 31
	.cfi_restore 30
	.cfi_restore 29
	blr
	.cfi_endproc
.LFE1600:
	.size	_ZN17ThemeSettingsMenu15SetOptionValuesEv, .-_ZN17ThemeSettingsMenu15SetOptionValuesEv
	.align 2
	.globl _ZN17ThemeSettingsMenu15SetupOptionNameEv
	.type	_ZN17ThemeSettingsMenu15SetupOptionNameEv, @function
_ZN17ThemeSettingsMenu15SetupOptionNameEv:
.LFB1599:
	.loc 5 47 0
	.cfi_startproc
.LVL126:
	mflr 0
	stwu 1,-16(1)
.LCFI27:
	.cfi_def_cfa_offset 16
	.cfi_register 65, 0
	stw 30,8(1)
	stw 0,20(1)
	stw 31,12(1)
	.loc 5 47 0
	mr 31,3
	.cfi_offset 31, -4
	.cfi_offset 65, 4
	.cfi_offset 30, -8
.LBB1387:
	.loc 5 50 0
	lwz 30,204(3)
.LVL127:
	lis 3,.LC19@ha
.LVL128:
	la 3,.LC19@l(3)
	bl gettext
	li 4,0
	mr 5,3
	mr 3,30
	crxor 6,6,6
	bl _ZN10OptionList7SetNameEiPKcz
	.loc 5 51 0
	lis 3,.LC20@ha
	lwz 30,204(31)
.LVL129:
	la 3,.LC20@l(3)
	bl gettext
	li 4,1
	mr 5,3
	mr 3,30
	crxor 6,6,6
	bl _ZN10OptionList7SetNameEiPKcz
	.loc 5 52 0
	lis 3,.LC21@ha
	lwz 30,204(31)
.LVL130:
	la 3,.LC21@l(3)
	bl gettext
	li 4,2
	mr 5,3
	mr 3,30
	crxor 6,6,6
	bl _ZN10OptionList7SetNameEiPKcz
	.loc 5 53 0
	lis 3,.LC22@ha
	lwz 30,204(31)
.LVL131:
	la 3,.LC22@l(3)
	bl gettext
	li 4,3
	mr 5,3
	mr 3,30
	crxor 6,6,6
	bl _ZN10OptionList7SetNameEiPKcz
	.loc 5 54 0
	lis 3,.LC23@ha
	lwz 30,204(31)
.LVL132:
	la 3,.LC23@l(3)
	bl gettext
	li 4,4
	mr 5,3
	mr 3,30
	crxor 6,6,6
	bl _ZN10OptionList7SetNameEiPKcz
	.loc 5 55 0
	lis 3,.LC24@ha
	lwz 30,204(31)
.LVL133:
	la 3,.LC24@l(3)
	bl gettext
	li 4,5
	mr 5,3
	mr 3,30
	crxor 6,6,6
	bl _ZN10OptionList7SetNameEiPKcz
	.loc 5 57 0
	lwz 9,0(31)
	mr 3,31
	lwz 0,224(9)
	mtctr 0
	bctrl
.LBE1387:
	.loc 5 58 0
	lwz 0,20(1)
	lwz 30,8(1)
	mtlr 0
	lwz 31,12(1)
.LVL134:
	addi 1,1,16
.LCFI28:
	.cfi_def_cfa_offset 0
	.cfi_restore 31
	.cfi_restore 30
	blr
	.cfi_endproc
.LFE1599:
	.size	_ZN17ThemeSettingsMenu15SetupOptionNameEv, .-_ZN17ThemeSettingsMenu15SetupOptionNameEv
	.section	.text._ZN17ThemeSettingsMenuD0Ev,"axG",@progbits,_ZN17ThemeSettingsMenuD0Ev,comdat
	.align 2
	.weak	_ZThn176_N17ThemeSettingsMenuD0Ev
	.type	_ZThn176_N17ThemeSettingsMenuD0Ev, @function
_ZThn176_N17ThemeSettingsMenuD0Ev:
.LFB2021:
	.cfi_startproc
	addi 3,3,-176
	b .LTHUNK1
	.cfi_endproc
.LFE2021:
	.size	_ZThn176_N17ThemeSettingsMenuD0Ev, .-_ZThn176_N17ThemeSettingsMenuD0Ev
	.align 2
	.weak	_ZN17ThemeSettingsMenuD0Ev
	.type	_ZN17ThemeSettingsMenuD0Ev, @function
_ZN17ThemeSettingsMenuD0Ev:
.LFB1919:
	.loc 4 29 0
	.cfi_startproc
.LVL135:
	mflr 0
	stwu 1,-16(1)
.LCFI29:
	.cfi_def_cfa_offset 16
	.cfi_register 65, 0
.LBB1391:
.LBB1392:
.LBB1393:
	lis 9,_ZTV17ThemeSettingsMenu+8@ha
	la 9,_ZTV17ThemeSettingsMenu+8@l(9)
.LBE1393:
.LBE1392:
.LBE1391:
	stw 31,12(1)
	stw 0,20(1)
.LBB1398:
.LBB1396:
.LBB1394:
	.loc 4 29 0
	addi 0,9,240
	.cfi_offset 65, 4
	.cfi_offset 31, -4
	stw 0,176(3)
.LBE1394:
.LBE1396:
.LBE1398:
	mr 31,3
.LVL136:
.LBB1399:
.LBB1397:
.LBB1395:
	stw 9,0(3)
	bl _ZN15SettingsBrowserD2Ev
.LVL137:
.LBE1395:
.LBE1397:
.LBE1399:
	mr 3,31
	bl _ZdlPv
	lwz 0,20(1)
	lwz 31,12(1)
.LVL138:
	mtlr 0
	addi 1,1,16
.LCFI30:
	.cfi_def_cfa_offset 0
	.cfi_restore 31
	blr
	.cfi_endproc
.LFE1919:
	.size	_ZN17ThemeSettingsMenuD0Ev, .-_ZN17ThemeSettingsMenuD0Ev
	.section	".text"
	.align 2
	.globl _ZN17ThemeSettingsMenuC2Ev
	.type	_ZN17ThemeSettingsMenuC2Ev, @function
_ZN17ThemeSettingsMenuC2Ev:
.LFB1597:
	.loc 5 37 0
	.cfi_startproc
	.cfi_personality 0,__gxx_personality_v0
	.cfi_lsda 0,.LLSDA1597
.LVL139:
	stwu 1,-40(1)
.LCFI31:
	.cfi_def_cfa_offset 40
	mflr 0
	stw 29,28(1)
.LBB1455:
.LBB1456:
.LBB1457:
	.loc 7 46 0
	lis 29,_ZN12SettingsMenu8instanceE@ha
	.cfi_offset 29, -12
	.cfi_register 65, 0
.LBE1457:
.LBE1456:
.LBE1455:
	.loc 5 37 0
	stw 0,44(1)
	stw 30,32(1)
	stw 31,36(1)
	.loc 5 37 0
	mr 31,3
	.cfi_offset 31, -4
	.cfi_offset 30, -8
	.cfi_offset 65, 4
.LEHB5:
.LBB1514:
	.loc 5 38 0
	bl _ZN15SettingsBrowserC2Ev
.LEHE5:
.LVL140:
.LBB1463:
.LBB1458:
	.loc 7 46 0
	lwz 30,_ZN12SettingsMenu8instanceE@l(29)
.LBE1458:
.LBE1463:
	.loc 5 38 0
	lis 9,_ZTV17ThemeSettingsMenu+8@ha
.LBB1464:
.LBB1459:
	.loc 7 46 0
	cmpwi 7,30,0
.LBE1459:
.LBE1464:
	.loc 5 38 0
	la 9,_ZTV17ThemeSettingsMenu+8@l(9)
	addi 0,9,240
	stw 9,0(31)
	stw 0,176(31)
.LBB1465:
.LBB1460:
	.loc 7 46 0
	beq- 7,.L132
.L99:
.LBE1460:
.LBE1465:
	.loc 5 40 0
	lis 3,.LC25@ha
	la 3,.LC25@l(3)
.LEHB6:
	bl gettext
.LEHE6:
	mr 4,3
	addi 5,1,10
	addi 3,1,16
.LEHB7:
	bl _ZNSsC1EPKcRKSaIcE
.LEHE7:
	.loc 5 139 0 discriminator 3
	lwz 30,216(30)
.LVL141:
.LBB1466:
.LBB1467:
	.loc 7 52 0 discriminator 3
	cmpwi 7,30,0
	beq- 7,.L133
	.loc 7 52 0 is_stmt 0
	lwz 9,0(30)
	addi 3,1,12
	addi 4,1,16
.LVL142:
	lwz 29,204(9)
.LEHB8:
	bl _ZNSsC1ERKSs
.LEHE8:
.LVL143:
	mr 3,30
	addi 4,1,12
	mtctr 29
.LEHB9:
	bctrl
.LEHE9:
.LVL144:
.LBB1468:
.LBB1469:
.LBB1470:
.LBB1471:
.LBB1472:
.LBB1473:
	.file 8 "d:\\devkitpro\\devkitppc\\bin\\../lib/gcc/powerpc-eabi/4.6.3/../../../../powerpc-eabi/include/c++/4.6.3/bits/basic_string.h"
	.loc 8 288 0 is_stmt 1
	lwz 9,12(1)
.LBE1473:
.LBE1472:
.LBE1471:
.LBB1474:
.LBB1475:
	.loc 8 235 0
	lis 30,_ZNSs4_Rep20_S_empty_rep_storageE@ha
	la 30,_ZNSs4_Rep20_S_empty_rep_storageE@l(30)
.LBE1475:
.LBE1474:
	.loc 8 534 0
	addi 3,9,-12
.LVL145:
.LBB1484:
.LBB1482:
	.loc 8 235 0
	cmpw 7,3,30
	bne- 7,.L134
.LVL146:
.L110:
.LBE1482:
.LBE1484:
.LBE1470:
.LBE1469:
.LBE1468:
.LBE1467:
.LBE1466:
.LBB1491:
.LBB1492:
.LBB1493:
.LBB1494:
.LBB1495:
.LBB1496:
	.loc 8 288 0 discriminator 1
	lwz 9,16(1)
.LBE1496:
.LBE1495:
.LBE1494:
	.loc 8 534 0 discriminator 1
	addi 3,9,-12
.LVL147:
.LBB1497:
.LBB1498:
	.loc 8 235 0 discriminator 1
	cmpw 7,3,30
	bne- 7,.L135
.LVL148:
.L118:
.LBE1498:
.LBE1497:
.LBE1493:
.LBE1492:
.LBE1491:
	.loc 5 42 0 discriminator 1
	mr 3,31
.LEHB10:
	bl _ZN17ThemeSettingsMenu15SetupOptionNameEv
	.loc 5 43 0
	mr 3,31
	bl _ZN15SettingsBrowser4showEv
.LBE1514:
	.loc 5 44 0
	lwz 0,44(1)
	lwz 29,28(1)
	mtlr 0
	lwz 30,32(1)
	lwz 31,36(1)
.LVL149:
	addi 1,1,40
	.cfi_remember_state
.LCFI32:
	.cfi_def_cfa_offset 0
	.cfi_restore 31
	.cfi_restore 30
	.cfi_restore 29
	blr
.LVL150:
.L133:
.LCFI33:
	.cfi_restore_state
	lis 30,_ZNSs4_Rep20_S_empty_rep_storageE@ha
	la 30,_ZNSs4_Rep20_S_empty_rep_storageE@l(30)
	b .L110
.LVL151:
.L132:
.LBB1515:
.LBB1509:
.LBB1461:
	.loc 7 46 0
	li 3,980
	bl _Znwj
.LEHE10:
	mr 30,3
.LEHB11:
	bl _ZN12SettingsMenuC1Ev
.LEHE11:
	stw 30,_ZN12SettingsMenu8instanceE@l(29)
	b .L99
.LVL152:
.L135:
.LBE1461:
.LBE1509:
.LBB1510:
.LBB1508:
.LBB1507:
.LBB1506:
.LBB1505:
.LBB1499:
.LBB1500:
.LBB1501:
	.file 9 "d:\\devkitpro\\devkitppc\\bin\\../lib/gcc/powerpc-eabi/4.6.3/../../../../powerpc-eabi/include/c++/4.6.3/ext/atomicity.h"
	.loc 9 66 0
	lwz 11,-4(9)
.LVL153:
.LBE1501:
.LBE1500:
.LBE1499:
	.loc 8 240 0
	cmpwi 7,11,0
.LBB1504:
.LBB1503:
.LBB1502:
	.loc 9 67 0
	addi 11,11,-1
	stw 11,-4(9)
.LBE1502:
.LBE1503:
.LBE1504:
	.loc 8 240 0
	bgt+ 7,.L118
	.loc 8 244 0
	addi 4,1,8
	bl _ZNSs4_Rep10_M_destroyERKSaIcE
.LVL154:
	b .L118
.LVL155:
.L134:
.LBE1505:
.LBE1506:
.LBE1507:
.LBE1508:
.LBE1510:
.LBB1511:
.LBB1489:
.LBB1488:
.LBB1487:
.LBB1486:
.LBB1485:
.LBB1483:
.LBB1476:
.LBB1477:
.LBB1478:
	.loc 9 66 0
	lwz 11,-4(9)
.LVL156:
.LBE1478:
.LBE1477:
.LBE1476:
	.loc 8 240 0
	cmpwi 7,11,0
.LBB1481:
.LBB1480:
.LBB1479:
	.loc 9 67 0
	addi 11,11,-1
	stw 11,-4(9)
.LBE1479:
.LBE1480:
.LBE1481:
	.loc 8 240 0
	bgt+ 7,.L110
	.loc 8 244 0
	addi 4,1,9
	bl _ZNSs4_Rep10_M_destroyERKSaIcE
.LVL157:
	b .L110
.LVL158:
.L124:
	mr 30,3
.L105:
.LBE1483:
.LBE1485:
.LBE1486:
.LBE1487:
.LBE1488:
.LBE1489:
.LBE1511:
	.loc 5 40 0
	addi 3,1,16
.LVL159:
	bl _ZNSsD1Ev
.LVL160:
	mr 3,30
.LVL161:
.L131:
	mr 30,3
.L102:
	.loc 5 38 0
	mr 3,31
	bl _ZN15SettingsBrowserD2Ev
	mr 3,30
.LEHB12:
	bl _Unwind_Resume
.LEHE12:
.L126:
	mr 29,3
.LBB1512:
.LBB1462:
	.loc 7 46 0
	mr 3,30
	bl _ZdlPv
	mr 30,29
	b .L102
.L122:
	b .L131
.LVL162:
.L125:
	mr 30,3
.LBE1462:
.LBE1512:
.LBB1513:
.LBB1490:
	.loc 7 52 0
	addi 3,1,12
	bl _ZNSsD1Ev
	b .L105
.LVL163:
.L123:
	b .L131
.LBE1490:
.LBE1513:
.LBE1515:
	.cfi_endproc
.LFE1597:
	.section	.gcc_except_table
.LLSDA1597:
	.byte	0xff
	.byte	0xff
	.byte	0x1
	.uleb128 .LLSDACSE1597-.LLSDACSB1597
.LLSDACSB1597:
	.uleb128 .LEHB5-.LFB1597
	.uleb128 .LEHE5-.LEHB5
	.uleb128 0
	.uleb128 0
	.uleb128 .LEHB6-.LFB1597
	.uleb128 .LEHE6-.LEHB6
	.uleb128 .L122-.LFB1597
	.uleb128 0
	.uleb128 .LEHB7-.LFB1597
	.uleb128 .LEHE7-.LEHB7
	.uleb128 .L123-.LFB1597
	.uleb128 0
	.uleb128 .LEHB8-.LFB1597
	.uleb128 .LEHE8-.LEHB8
	.uleb128 .L124-.LFB1597
	.uleb128 0
	.uleb128 .LEHB9-.LFB1597
	.uleb128 .LEHE9-.LEHB9
	.uleb128 .L125-.LFB1597
	.uleb128 0
	.uleb128 .LEHB10-.LFB1597
	.uleb128 .LEHE10-.LEHB10
	.uleb128 .L122-.LFB1597
	.uleb128 0
	.uleb128 .LEHB11-.LFB1597
	.uleb128 .LEHE11-.LEHB11
	.uleb128 .L126-.LFB1597
	.uleb128 0
	.uleb128 .LEHB12-.LFB1597
	.uleb128 .LEHE12-.LEHB12
	.uleb128 0
	.uleb128 0
.LLSDACSE1597:
	.section	".text"
	.size	_ZN17ThemeSettingsMenuC2Ev, .-_ZN17ThemeSettingsMenuC2Ev
	.weak	_ZTS17ThemeSettingsMenu
	.section	.rodata._ZTS17ThemeSettingsMenu,"aG",@progbits,_ZTS17ThemeSettingsMenu,comdat
	.align 2
	.type	_ZTS17ThemeSettingsMenu, @object
	.size	_ZTS17ThemeSettingsMenu, 20
_ZTS17ThemeSettingsMenu:
	.string	"17ThemeSettingsMenu"
	.weak	_ZTI17ThemeSettingsMenu
	.section	.rodata._ZTI17ThemeSettingsMenu,"aG",@progbits,_ZTI17ThemeSettingsMenu,comdat
	.align 2
	.type	_ZTI17ThemeSettingsMenu, @object
	.size	_ZTI17ThemeSettingsMenu, 12
_ZTI17ThemeSettingsMenu:
	.long	_ZTVN10__cxxabiv120__si_class_type_infoE+8
	.long	_ZTS17ThemeSettingsMenu
	.long	_ZTI15SettingsBrowser
	.weak	_ZTV17ThemeSettingsMenu
	.section	.rodata._ZTV17ThemeSettingsMenu,"aG",@progbits,_ZTV17ThemeSettingsMenu,comdat
	.align 3
	.type	_ZTV17ThemeSettingsMenu, @object
	.size	_ZTV17ThemeSettingsMenu, 264
_ZTV17ThemeSettingsMenu:
	.long	0
	.long	_ZTI17ThemeSettingsMenu
	.long	_ZN17ThemeSettingsMenuD1Ev
	.long	_ZN17ThemeSettingsMenuD0Ev
	.long	_ZN10GuiElement9SetParentEPS_
	.long	_ZN10GuiElement9GetParentEv
	.long	_ZN10GuiElement7GetLeftEv
	.long	_ZN10GuiElement6GetTopEv
	.long	_ZN10GuiElement12GetZPositionEv
	.long	_ZN10GuiElement10GetLeftPosEv
	.long	_ZN10GuiElement9GetTopPosEv
	.long	_ZN10GuiElement8GetWidthEv
	.long	_ZN10GuiElement9GetHeightEv
	.long	_ZN10GuiElement7SetSizeEii
	.long	_ZN8GuiFrame10SetVisibleEb
	.long	_ZN10GuiElement9IsVisibleEv
	.long	_ZN10GuiElement12IsSelectableEv
	.long	_ZN10GuiElement11IsClickableEv
	.long	_ZN10GuiElement10IsHoldableEv
	.long	_ZN10GuiElement13SetSelectableEb
	.long	_ZN10GuiElement12SetClickableEb
	.long	_ZN10GuiElement11SetHoldableEb
	.long	_ZN10GuiElement8SetStateEii
	.long	_ZN10GuiElement8GetStateEv
	.long	_ZN10GuiElement12GetStateChanEv
	.long	_ZN8GuiFrame10ResetStateEv
	.long	_ZN10GuiElement8SetAlphaEi
	.long	_ZN10GuiElement8GetAlphaEv
	.long	_ZN10GuiElement8SetScaleEf
	.long	_ZN10GuiElement9SetScaleXEf
	.long	_ZN10GuiElement9SetScaleYEf
	.long	_ZN10GuiElement8GetScaleEv
	.long	_ZN10GuiElement9GetScaleXEv
	.long	_ZN10GuiElement9GetScaleYEv
	.long	_ZN10GuiElement6RumbleEv
	.long	_ZN10GuiElement9SetRumbleEb
	.long	_ZN10GuiElement9SetEffectEiii
	.long	_ZN10GuiElement15SetEffectOnOverEiii
	.long	_ZN10GuiElement13SetEffectGrowEv
	.long	_ZN10GuiElement12ResetEffectsEv
	.long	_ZNK10GuiElement9GetEffectEv
	.long	_ZNK10GuiElement10IsAnimatedEv
	.long	_ZN8GuiFrame9SetBoundsE4RectIiE
	.long	_ZN10GuiElement8IsInsideEii
	.long	_ZN10GuiElement11SetPositionEii
	.long	_ZN10GuiElement11SetPositionEiii
	.long	_ZN8GuiFrame11GetSelectedEv
	.long	_ZN10GuiElement12SetAlignmentEi
	.long	_ZNK10GuiElement12GetAlignmentEv
	.long	_ZN8GuiFrame6UpdateEP10GuiTrigger
	.long	_ZN8GuiFrame4DrawEv
	.long	_ZN10GuiElement13UpdateEffectsEv
	.long	_ZN8GuiFrame5CloseEv
	.long	_ZN15SettingsBrowser4showEv
	.long	_ZN8GuiFrame4hideEv
	.long	_ZN8GuiFrame4execEv
	.long	_ZN8GuiFrame12updateEventsEv
	.long	_ZN17ThemeSettingsMenu15SetupOptionNameEv
	.long	_ZN17ThemeSettingsMenu15SetOptionValuesEv
	.long	_ZN17ThemeSettingsMenu14OnBrowserClickEP16GuiOptionBrowseri
	.long	-176
	.long	_ZTI17ThemeSettingsMenu
	.long	_ZThn176_N17ThemeSettingsMenuD1Ev
	.long	_ZThn176_N17ThemeSettingsMenuD0Ev
	.long	_ZN7sigslot15single_threaded4lockEv
	.long	_ZN7sigslot15single_threaded6unlockEv
	.weak	_ZN17ThemeSettingsMenuD1Ev
	.set	_ZN17ThemeSettingsMenuD1Ev,_ZN17ThemeSettingsMenuD2Ev
	.set	.LTHUNK0,_ZN17ThemeSettingsMenuD1Ev
	.set	.LTHUNK1,_ZN17ThemeSettingsMenuD0Ev
	.globl _ZN17ThemeSettingsMenuC1Ev
	.set	_ZN17ThemeSettingsMenuC1Ev,_ZN17ThemeSettingsMenuC2Ev
	.section	.rodata
	.align 2
	.set	.LANCHOR0,. + 0
	.type	_ZL9OnOffText, @object
	.size	_ZL9OnOffText, 8
_ZL9OnOffText:
	.long	.LC26
	.long	.LC27
	.section	.rodata.cst4,"aM",@progbits,4
	.align 2
.LC1:
	.4byte	1501560836
.LC2:
	.4byte	1132396544
.LC3:
	.4byte	1056964608
.LC4:
	.4byte	1069547520
.LC6:
	.4byte	1065353216
.LC7:
	.4byte	1064514355
	.section	.rodata.str1.4,"aMS",@progbits,1
	.align 2
.LC5:
	.string	""
	.zero	3
.LC8:
	.string	"%0.3f"
	.zero	2
.LC11:
	.string	"Theme Downloader"
	.zero	3
.LC12:
	.string	"Do you want to download themes now ?"
	.zero	3
.LC13:
	.string	"Yes"
.LC14:
	.string	"Cancel"
	.zero	1
.LC15:
	.string	"Theme Menu"
	.zero	1
.LC16:
	.string	"Do you want to select a theme now ?"
.LC17:
	.string	"Do you want to load the default theme?"
	.zero	1
.LC18:
	.string	" "
	.zero	2
.LC19:
	.string	"Use System Font"
.LC20:
	.string	"Font Scale Factor"
	.zero	2
.LC21:
	.string	"Clock Scale Factor"
	.zero	1
.LC22:
	.string	"Download Themes"
.LC23:
	.string	"Select Theme"
	.zero	3
.LC24:
	.string	"Default Theme"
	.zero	2
.LC25:
	.string	"Theme Settings"
	.zero	1
.LC26:
	.string	"OFF"
.LC27:
	.string	"ON"
	.section	".text"
.Letext0:
	.file 10 "d:\\devkitpro\\devkitppc\\bin\\../lib/gcc/powerpc-eabi/4.6.3/../../../../powerpc-eabi/include/stdint.h"
	.file 11 "d:/devkitPro/libogc/include/gctypes.h"
	.file 12 "d:/devkitPro/libogc/include/ogc/gx.h"
	.file 13 "d:\\devkitpro\\devkitppc\\bin\\../lib/gcc/powerpc-eabi/4.6.3/../../../../powerpc-eabi/include/machine/_types.h"
	.file 14 "d:\\devkitpro\\devkitppc\\bin\\../lib/gcc/powerpc-eabi/4.6.3/../../../../powerpc-eabi/include/sys/lock.h"
	.file 15 "d:\\devkitpro\\devkitppc\\bin\\../lib/gcc/powerpc-eabi/4.6.3/include/stddef.h"
	.file 16 "d:\\devkitpro\\devkitppc\\bin\\../lib/gcc/powerpc-eabi/4.6.3/../../../../powerpc-eabi/include/sys/_types.h"
	.file 17 "d:\\devkitpro\\devkitppc\\bin\\../lib/gcc/powerpc-eabi/4.6.3/../../../../powerpc-eabi/include/sys/reent.h"
	.file 18 "d:\\devkitpro\\devkitppc\\bin\\../lib/gcc/powerpc-eabi/4.6.3/../../../../powerpc-eabi/include/time.h"
	.file 19 "<built-in>"
	.file 20 "d:\\devkitpro\\devkitppc\\bin\\../lib/gcc/powerpc-eabi/4.6.3/../../../../powerpc-eabi/include/stdio.h"
	.file 21 "d:\\devkitpro\\devkitppc\\bin\\../lib/gcc/powerpc-eabi/4.6.3/../../../../powerpc-eabi/include/wchar.h"
	.file 22 "d:\\devkitpro\\devkitppc\\bin\\../lib/gcc/powerpc-eabi/4.6.3/../../../../powerpc-eabi/include/c++/4.6.3/cwchar"
	.file 23 "d:\\devkitpro\\devkitppc\\bin\\../lib/gcc/powerpc-eabi/4.6.3/../../../../powerpc-eabi/include/c++/4.6.3/powerpc-eabi/bits/c++config.h"
	.file 24 "d:\\devkitpro\\devkitppc\\bin\\../lib/gcc/powerpc-eabi/4.6.3/../../../../powerpc-eabi/include/c++/4.6.3/clocale"
	.file 25 "d:\\devkitpro\\devkitppc\\bin\\../lib/gcc/powerpc-eabi/4.6.3/../../../../powerpc-eabi/include/c++/4.6.3/bits/stringfwd.h"
	.file 26 "d:\\devkitpro\\devkitppc\\bin\\../lib/gcc/powerpc-eabi/4.6.3/../../../../powerpc-eabi/include/c++/4.6.3/bits/stl_list.h"
	.file 27 "d:\\devkitpro\\devkitppc\\bin\\../lib/gcc/powerpc-eabi/4.6.3/../../../../powerpc-eabi/include/c++/4.6.3/bits/stl_tree.h"
	.file 28 "d:\\devkitpro\\devkitppc\\bin\\../lib/gcc/powerpc-eabi/4.6.3/../../../../powerpc-eabi/include/c++/4.6.3/bits/move.h"
	.file 29 "d:\\devkitpro\\devkitppc\\bin\\../lib/gcc/powerpc-eabi/4.6.3/../../../../powerpc-eabi/include/c++/4.6.3/bits/cpp_type_traits.h"
	.file 30 "d:\\devkitpro\\devkitppc\\bin\\../lib/gcc/powerpc-eabi/4.6.3/../../../../powerpc-eabi/include/c++/4.6.3/ext/new_allocator.h"
	.file 31 "d:\\devkitpro\\devkitppc\\bin\\../lib/gcc/powerpc-eabi/4.6.3/../../../../powerpc-eabi/include/c++/4.6.3/debug/debug.h"
	.file 32 "d:\\devkitpro\\devkitppc\\bin\\../lib/gcc/powerpc-eabi/4.6.3/../../../../powerpc-eabi/include/c++/4.6.3/bits/char_traits.h"
	.file 33 "d:\\devkitpro\\devkitppc\\bin\\../lib/gcc/powerpc-eabi/4.6.3/../../../../powerpc-eabi/include/c++/4.6.3/bits/allocator.h"
	.file 34 "d:\\devkitpro\\devkitppc\\bin\\../lib/gcc/powerpc-eabi/4.6.3/../../../../powerpc-eabi/include/locale.h"
	.file 35 "d:\\devkitpro\\devkitppc\\bin\\../lib/gcc/powerpc-eabi/4.6.3/../../../../powerpc-eabi/include/c++/4.6.3/powerpc-eabi/bits/atomic_word.h"
	.file 36 "d:\\devkitpro\\devkitppc\\bin\\../lib/gcc/powerpc-eabi/4.6.3/../../../../powerpc-eabi/include/c++/4.6.3/ext/numeric_traits.h"
	.file 37 "d:\\devkitpro\\devkitppc\\bin\\../lib/gcc/powerpc-eabi/4.6.3/../../../../powerpc-eabi/include/c++/4.6.3/bits/basic_string.tcc"
	.file 38 "d:\\devkitpro\\devkitppc\\bin\\../lib/gcc/powerpc-eabi/4.6.3/../../../../powerpc-eabi/include/c++/4.6.3/bits/stl_iterator_base_types.h"
	.file 39 "d:\\devkitpro\\devkitppc\\bin\\../lib/gcc/powerpc-eabi/4.6.3/../../../../powerpc-eabi/include/c++/4.6.3/bits/stl_iterator.h"
	.file 40 "d:/Projects/SaveGameManager/savegame-manager-gx/trunk/source/Settings/menus/../../GUI/../Settings/../FileOperations/FileExtensions.h"
	.file 41 "d:/Projects/SaveGameManager/savegame-manager-gx/trunk/source/Settings/menus/../../GUI/../Settings/../Controls/AppControls.hpp"
	.file 42 "d:/Projects/SaveGameManager/savegame-manager-gx/trunk/source/Settings/menus/../../GUI/../Settings/CSettings.h"
	.file 43 "d:/Projects/SaveGameManager/savegame-manager-gx/trunk/source/Settings/menus/../../GUI/../Tools/Rect.h"
	.file 44 "d:/Projects/SaveGameManager/savegame-manager-gx/trunk/source/Settings/menus/../../GUI/../Settings/SettingsEnums.h"
	.file 45 "d:\\devkitpro\\devkitppc\\bin\\../lib/gcc/powerpc-eabi/4.6.3/../../../../powerpc-eabi/include/c++/4.6.3/bits/list.tcc"
	.file 46 "d:\\devkitpro\\devkitppc\\bin\\../lib/gcc/powerpc-eabi/4.6.3/../../../../powerpc-eabi/include/c++/4.6.3/bits/stl_function.h"
	.file 47 "d:\\devkitpro\\devkitppc\\bin\\../lib/gcc/powerpc-eabi/4.6.3/../../../../powerpc-eabi/include/c++/4.6.3/bits/stl_set.h"
	.file 48 "d:\\devkitpro\\devkitppc\\bin\\../lib/gcc/powerpc-eabi/4.6.3/../../../../powerpc-eabi/include/c++/4.6.3/bits/stl_pair.h"
	.file 49 "d:\\devkitpro\\devkitppc\\bin\\../lib/gcc/powerpc-eabi/4.6.3/../../../../powerpc-eabi/include/c++/4.6.3/new"