	.file	"ThemeInfosWindow.cpp"
	.section	".text"
.Ltext0:
	.section	.text._ZN7sigslot15single_threadedD2Ev,"axG",@progbits,_ZN7sigslot15single_threadedD5Ev,comdat
	.align 2
	.weak	_ZN7sigslot15single_threadedD2Ev
	.type	_ZN7sigslot15single_threadedD2Ev, @function
_ZN7sigslot15single_threadedD2Ev:
.LFB1148:
	.file 1 "d:/Projects/SaveGameManager/savegame-manager-gx/trunk/source/Themes/../GUI/../sigslot.h"
	.loc 1 104 0
	.cfi_startproc
.LVL0:
.LBB1740:
	.loc 1 105 0
	lis 9,_ZTVN7sigslot15single_threadedE+8@ha
.LBE1740:
	.loc 1 107 0
.LBB1741:
	.loc 1 105 0
	la 0,_ZTVN7sigslot15single_threadedE+8@l(9)
	stw 0,0(3)
.LBE1741:
	.loc 1 107 0
	blr
	.cfi_endproc
.LFE1148:
	.size	_ZN7sigslot15single_threadedD2Ev, .-_ZN7sigslot15single_threadedD2Ev
	.section	.text._ZN7sigslot15single_threaded4lockEv,"axG",@progbits,_ZN7sigslot15single_threaded4lockEv,comdat
	.align 2
	.weak	_ZN7sigslot15single_threaded4lockEv
	.type	_ZN7sigslot15single_threaded4lockEv, @function
_ZN7sigslot15single_threaded4lockEv:
.LFB1151:
	.loc 1 109 0
	.cfi_startproc
.LVL1:
	.loc 1 112 0
	blr
	.cfi_endproc
.LFE1151:
	.size	_ZN7sigslot15single_threaded4lockEv, .-_ZN7sigslot15single_threaded4lockEv
	.section	.text._ZN7sigslot15single_threaded6unlockEv,"axG",@progbits,_ZN7sigslot15single_threaded6unlockEv,comdat
	.align 2
	.weak	_ZN7sigslot15single_threaded6unlockEv
	.type	_ZN7sigslot15single_threaded6unlockEv, @function
_ZN7sigslot15single_threaded6unlockEv:
.LFB1152:
	.loc 1 114 0
	.cfi_startproc
.LVL2:
	.loc 1 117 0
	blr
	.cfi_endproc
.LFE1152:
	.size	_ZN7sigslot15single_threaded6unlockEv, .-_ZN7sigslot15single_threaded6unlockEv
	.section	.text._ZN10GuiElement9SetParentEPS_,"axG",@progbits,_ZN10GuiElement9SetParentEPS_,comdat
	.align 2
	.weak	_ZN10GuiElement9SetParentEPS_
	.type	_ZN10GuiElement9SetParentEPS_, @function
_ZN10GuiElement9SetParentEPS_:
.LFB1384:
	.file 2 "d:/Projects/SaveGameManager/savegame-manager-gx/trunk/source/Themes/../GUI/gui_element.h"
	.loc 2 92 0
	.cfi_startproc
.LVL3:
	.loc 2 92 0
	stw 4,96(3)
	blr
	.cfi_endproc
.LFE1384:
	.size	_ZN10GuiElement9SetParentEPS_, .-_ZN10GuiElement9SetParentEPS_
	.section	.text._ZN10GuiElement9GetParentEv,"axG",@progbits,_ZN10GuiElement9GetParentEv,comdat
	.align 2
	.weak	_ZN10GuiElement9GetParentEv
	.type	_ZN10GuiElement9GetParentEv, @function
_ZN10GuiElement9GetParentEv:
.LFB1385:
	.loc 2 95 0
	.cfi_startproc
.LVL4:
	.loc 2 95 0
	lwz 3,96(3)
.LVL5:
	blr
	.cfi_endproc
.LFE1385:
	.size	_ZN10GuiElement9GetParentEv, .-_ZN10GuiElement9GetParentEv
	.section	.text._ZN10GuiElement12GetZPositionEv,"axG",@progbits,_ZN10GuiElement12GetZPositionEv,comdat
	.align 2
	.weak	_ZN10GuiElement12GetZPositionEv
	.type	_ZN10GuiElement12GetZPositionEv, @function
_ZN10GuiElement12GetZPositionEv:
.LFB1386:
	.loc 2 106 0
	.cfi_startproc
.LVL6:
	mflr 0
	stwu 1,-16(1)
.LCFI0:
	.cfi_def_cfa_offset 16
	.cfi_register 65, 0
	stw 31,12(1)
	mr 31,3
	.cfi_offset 31, -4
	stw 0,20(1)
.LBB1742:
	.loc 2 110 0
	lwz 11,96(3)
	.loc 2 108 0
	li 3,0
.LVL7:
	.loc 2 110 0
	cmpwi 7,11,0
	beq- 7,.L8
	.cfi_offset 65, 4
	.loc 2 111 0
	lwz 9,0(11)
	mr 3,11
	lwz 0,24(9)
	mtctr 0
	bctrl
.LVL8:
.L8:
	.loc 2 113 0
	lwz 0,52(31)
.LBE1742:
	.loc 2 114 0
	lwz 31,12(1)
.LVL9:
	add 3,3,0
.LVL10:
	lwz 0,20(1)
	addi 1,1,16
.LCFI1:
	.cfi_def_cfa_offset 0
	.cfi_restore 31
	mtlr 0
	blr
	.cfi_endproc
.LFE1386:
	.size	_ZN10GuiElement12GetZPositionEv, .-_ZN10GuiElement12GetZPositionEv
	.section	.text._ZN10GuiElement10GetLeftPosEv,"axG",@progbits,_ZN10GuiElement10GetLeftPosEv,comdat
	.align 2
	.weak	_ZN10GuiElement10GetLeftPosEv
	.type	_ZN10GuiElement10GetLeftPosEv, @function
_ZN10GuiElement10GetLeftPosEv:
.LFB1387:
	.loc 2 116 0
	.cfi_startproc
.LVL11:
	.loc 2 116 0
	lwz 3,44(3)
.LVL12:
	blr
	.cfi_endproc
.LFE1387:
	.size	_ZN10GuiElement10GetLeftPosEv, .-_ZN10GuiElement10GetLeftPosEv
	.section	.text._ZN10GuiElement9GetTopPosEv,"axG",@progbits,_ZN10GuiElement9GetTopPosEv,comdat
	.align 2
	.weak	_ZN10GuiElement9GetTopPosEv
	.type	_ZN10GuiElement9GetTopPosEv, @function
_ZN10GuiElement9GetTopPosEv:
.LFB1388:
	.loc 2 118 0
	.cfi_startproc
.LVL13:
	.loc 2 118 0
	lwz 3,48(3)
.LVL14:
	blr
	.cfi_endproc
.LFE1388:
	.size	_ZN10GuiElement9GetTopPosEv, .-_ZN10GuiElement9GetTopPosEv
	.section	.text._ZN10GuiElement8GetWidthEv,"axG",@progbits,_ZN10GuiElement8GetWidthEv,comdat
	.align 2
	.weak	_ZN10GuiElement8GetWidthEv
	.type	_ZN10GuiElement8GetWidthEv, @function
_ZN10GuiElement8GetWidthEv:
.LFB1389:
	.loc 2 121 0
	.cfi_startproc
.LVL15:
	.loc 2 121 0
	lwz 3,36(3)
.LVL16:
	blr
	.cfi_endproc
.LFE1389:
	.size	_ZN10GuiElement8GetWidthEv, .-_ZN10GuiElement8GetWidthEv
	.section	.text._ZN10GuiElement9GetHeightEv,"axG",@progbits,_ZN10GuiElement9GetHeightEv,comdat
	.align 2
	.weak	_ZN10GuiElement9GetHeightEv
	.type	_ZN10GuiElement9GetHeightEv, @function
_ZN10GuiElement9GetHeightEv:
.LFB1390:
	.loc 2 124 0
	.cfi_startproc
.LVL17:
	.loc 2 124 0
	lwz 3,40(3)
.LVL18:
	blr
	.cfi_endproc
.LFE1390:
	.size	_ZN10GuiElement9GetHeightEv, .-_ZN10GuiElement9GetHeightEv
	.section	.text._ZN10GuiElement7SetSizeEii,"axG",@progbits,_ZN10GuiElement7SetSizeEii,comdat
	.align 2
	.weak	_ZN10GuiElement7SetSizeEii
	.type	_ZN10GuiElement7SetSizeEii, @function
_ZN10GuiElement7SetSizeEii:
.LFB1391:
	.loc 2 128 0
	.cfi_startproc
.LVL19:
	.loc 2 130 0
	stw 4,36(3)
	.loc 2 132 0
	.loc 2 131 0
	stw 5,40(3)
	.loc 2 132 0
	blr
	.cfi_endproc
.LFE1391:
	.size	_ZN10GuiElement7SetSizeEii, .-_ZN10GuiElement7SetSizeEii
	.section	.text._ZN10GuiElement9IsVisibleEv,"axG",@progbits,_ZN10GuiElement9IsVisibleEv,comdat
	.align 2
	.weak	_ZN10GuiElement9IsVisibleEv
	.type	_ZN10GuiElement9IsVisibleEv, @function
_ZN10GuiElement9IsVisibleEv:
.LFB1393:
	.loc 2 142 0
	.cfi_startproc
.LVL20:
	.loc 2 142 0
	lbz 3,29(3)
.LVL21:
	blr
	.cfi_endproc
.LFE1393:
	.size	_ZN10GuiElement9IsVisibleEv, .-_ZN10GuiElement9IsVisibleEv
	.section	.text._ZN10GuiElement12IsSelectableEv,"axG",@progbits,_ZN10GuiElement12IsSelectableEv,comdat
	.align 2
	.weak	_ZN10GuiElement12IsSelectableEv
	.type	_ZN10GuiElement12IsSelectableEv, @function
_ZN10GuiElement12IsSelectableEv:
.LFB1394:
	.loc 2 145 0
	.cfi_startproc
.LVL22:
	.loc 2 149 0
	lwz 0,72(3)
	li 9,0
	cmpwi 7,0,4
	beq- 7,.L18
	.loc 2 149 0 is_stmt 0 discriminator 1
	cmpwi 7,0,2
	beq- 7,.L18
	.loc 2 149 0 discriminator 3
	lbz 9,30(3)
.L18:
	.loc 2 150 0 is_stmt 1 discriminator 5
	mr 3,9
.LVL23:
	blr
	.cfi_endproc
.LFE1394:
	.size	_ZN10GuiElement12IsSelectableEv, .-_ZN10GuiElement12IsSelectableEv
	.section	.text._ZN10GuiElement11IsClickableEv,"axG",@progbits,_ZN10GuiElement11IsClickableEv,comdat
	.align 2
	.weak	_ZN10GuiElement11IsClickableEv
	.type	_ZN10GuiElement11IsClickableEv, @function
_ZN10GuiElement11IsClickableEv:
.LFB1395:
	.loc 2 153 0
	.cfi_startproc
.LVL24:
	.loc 2 158 0
	lwz 0,72(3)
	li 9,0
	cmpwi 7,0,4
	beq- 7,.L22
	.loc 2 158 0 is_stmt 0 discriminator 1
	cmpwi 7,0,2
	beq- 7,.L22
	.loc 2 158 0 discriminator 3
	cmpwi 7,0,3
	beq- 7,.L22
	.loc 2 158 0 discriminator 4
	lbz 9,31(3)
.L22:
	.loc 2 159 0 is_stmt 1 discriminator 6
	mr 3,9
.LVL25:
	blr
	.cfi_endproc
.LFE1395:
	.size	_ZN10GuiElement11IsClickableEv, .-_ZN10GuiElement11IsClickableEv
	.section	.text._ZN10GuiElement10IsHoldableEv,"axG",@progbits,_ZN10GuiElement10IsHoldableEv,comdat
	.align 2
	.weak	_ZN10GuiElement10IsHoldableEv
	.type	_ZN10GuiElement10IsHoldableEv, @function
_ZN10GuiElement10IsHoldableEv:
.LFB1396:
	.loc 2 162 0
	.cfi_startproc
.LVL26:
	.loc 2 162 0
	lwz 9,72(3)
	li 0,0
	cmpwi 7,9,4
	beq- 7,.L27
	.loc 2 162 0 is_stmt 0 discriminator 1
	lbz 0,32(3)
.L27:
	.loc 2 162 0 discriminator 4
	mr 3,0
.LVL27:
	blr
	.cfi_endproc
.LFE1396:
	.size	_ZN10GuiElement10IsHoldableEv, .-_ZN10GuiElement10IsHoldableEv
	.section	.text._ZN10GuiElement13SetSelectableEb,"axG",@progbits,_ZN10GuiElement13SetSelectableEb,comdat
	.align 2
	.weak	_ZN10GuiElement13SetSelectableEb
	.type	_ZN10GuiElement13SetSelectableEb, @function
_ZN10GuiElement13SetSelectableEb:
.LFB1397:
	.loc 2 165 0 is_stmt 1
	.cfi_startproc
.LVL28:
	.loc 2 165 0
	stb 4,30(3)
	blr
	.cfi_endproc
.LFE1397:
	.size	_ZN10GuiElement13SetSelectableEb, .-_ZN10GuiElement13SetSelectableEb
	.section	.text._ZN10GuiElement12SetClickableEb,"axG",@progbits,_ZN10GuiElement12SetClickableEb,comdat
	.align 2
	.weak	_ZN10GuiElement12SetClickableEb
	.type	_ZN10GuiElement12SetClickableEb, @function
_ZN10GuiElement12SetClickableEb:
.LFB1398:
	.loc 2 168 0
	.cfi_startproc
.LVL29:
	.loc 2 168 0
	stb 4,31(3)
	blr
	.cfi_endproc
.LFE1398:
	.size	_ZN10GuiElement12SetClickableEb, .-_ZN10GuiElement12SetClickableEb
	.section	.text._ZN10GuiElement11SetHoldableEb,"axG",@progbits,_ZN10GuiElement11SetHoldableEb,comdat
	.align 2
	.weak	_ZN10GuiElement11SetHoldableEb
	.type	_ZN10GuiElement11SetHoldableEb, @function
_ZN10GuiElement11SetHoldableEb:
.LFB1399:
	.loc 2 171 0
	.cfi_startproc
.LVL30:
	.loc 2 171 0
	stb 4,32(3)
	blr
	.cfi_endproc
.LFE1399:
	.size	_ZN10GuiElement11SetHoldableEb, .-_ZN10GuiElement11SetHoldableEb
	.section	.text._ZN10GuiElement8GetStateEv,"axG",@progbits,_ZN10GuiElement8GetStateEv,comdat
	.align 2
	.weak	_ZN10GuiElement8GetStateEv
	.type	_ZN10GuiElement8GetStateEv, @function
_ZN10GuiElement8GetStateEv:
.LFB1400:
	.loc 2 178 0
	.cfi_startproc
.LVL31:
	.loc 2 178 0
	lwz 3,72(3)
.LVL32:
	blr
	.cfi_endproc
.LFE1400:
	.size	_ZN10GuiElement8GetStateEv, .-_ZN10GuiElement8GetStateEv
	.section	.text._ZN10GuiElement12GetStateChanEv,"axG",@progbits,_ZN10GuiElement12GetStateChanEv,comdat
	.align 2
	.weak	_ZN10GuiElement12GetStateChanEv
	.type	_ZN10GuiElement12GetStateChanEv, @function
_ZN10GuiElement12GetStateChanEv:
.LFB1401:
	.loc 2 181 0
	.cfi_startproc
.LVL33:
	.loc 2 181 0
	lwz 3,76(3)
.LVL34:
	blr
	.cfi_endproc
.LFE1401:
	.size	_ZN10GuiElement12GetStateChanEv, .-_ZN10GuiElement12GetStateChanEv
	.section	.text._ZN10GuiElement8SetAlphaEi,"axG",@progbits,_ZN10GuiElement8SetAlphaEi,comdat
	.align 2
	.weak	_ZN10GuiElement8SetAlphaEi
	.type	_ZN10GuiElement8SetAlphaEi, @function
_ZN10GuiElement8SetAlphaEi:
.LFB1403:
	.loc 2 190 0
	.cfi_startproc
.LVL35:
	.loc 2 190 0
	stw 4,56(3)
	blr
	.cfi_endproc
.LFE1403:
	.size	_ZN10GuiElement8SetAlphaEi, .-_ZN10GuiElement8SetAlphaEi
	.section	.text._ZN10GuiElement8GetAlphaEv,"axG",@progbits,_ZN10GuiElement8GetAlphaEv,comdat
	.align 2
	.weak	_ZN10GuiElement8GetAlphaEv
	.type	_ZN10GuiElement8GetAlphaEv, @function
_ZN10GuiElement8GetAlphaEv:
.LFB1404:
	.loc 2 194 0
	.cfi_startproc
.LVL36:
	mflr 0
	stwu 1,-40(1)
.LCFI2:
	.cfi_def_cfa_offset 40
	.cfi_register 65, 0
	stw 31,36(1)
	stw 0,44(1)
.LBB1743:
	.loc 2 198 0
	lwz 31,108(3)
	.cfi_offset 65, 4
	.cfi_offset 31, -4
	cmpwi 7,31,0
	blt- 7,.L38
.L36:
.LVL37:
	.loc 2 203 0
	lwz 3,96(3)
.LVL38:
	cmpwi 7,3,0
	beq- 7,.L37
	.loc 2 204 0
	lwz 9,0(3)
	xoris 31,31,0x8000
.LVL39:
	lwz 0,100(9)
	mtctr 0
	bctrl
	lis 0,0x4330
	xoris 3,3,0x8000
	stw 0,16(1)
	stw 3,20(1)
	lis 9,.LC1@ha
	lfs 0,.LC1@l(9)
	lis 9,.LC2@ha
	lfd 13,16(1)
	lfs 12,.LC2@l(9)
	addi 9,1,24
	fsub 13,13,0
	stw 31,12(1)
	stw 0,8(1)
	frsp 13,13
	fdivs 13,13,12
	lfd 12,8(1)
	fsub 0,12,0
	frsp 0,0
	fmuls 0,0,13
	fctiwz 0,0
	stfiwx 0,0,9
	lwz 31,24(1)
.LVL40:
.L37:
.LBE1743:
	.loc 2 207 0
	lwz 0,44(1)
	mr 3,31
	lwz 31,36(1)
.LVL41:
	mtlr 0
	addi 1,1,40
	.cfi_remember_state
.LCFI3:
	.cfi_def_cfa_offset 0
	.cfi_restore 31
	blr
.LVL42:
.L38:
.LCFI4:
	.cfi_restore_state
.LBB1744:
	.loc 2 201 0
	lwz 31,56(3)
.LVL43:
	b .L36
.LBE1744:
	.cfi_endproc
.LFE1404:
	.size	_ZN10GuiElement8GetAlphaEv, .-_ZN10GuiElement8GetAlphaEv
	.section	.text._ZN10GuiElement8SetScaleEf,"axG",@progbits,_ZN10GuiElement8SetScaleEf,comdat
	.align 2
	.weak	_ZN10GuiElement8SetScaleEf
	.type	_ZN10GuiElement8SetScaleEf, @function
_ZN10GuiElement8SetScaleEf:
.LFB1405:
	.loc 2 210 0
	.cfi_startproc
.LVL44:
	.loc 2 212 0
	stfs 1,60(3)
	.loc 2 214 0
	.loc 2 213 0
	stfs 1,64(3)
	.loc 2 214 0
	blr
	.cfi_endproc
.LFE1405:
	.size	_ZN10GuiElement8SetScaleEf, .-_ZN10GuiElement8SetScaleEf
	.section	.text._ZN10GuiElement9SetScaleXEf,"axG",@progbits,_ZN10GuiElement9SetScaleXEf,comdat
	.align 2
	.weak	_ZN10GuiElement9SetScaleXEf
	.type	_ZN10GuiElement9SetScaleXEf, @function
_ZN10GuiElement9SetScaleXEf:
.LFB1406:
	.loc 2 217 0
	.cfi_startproc
.LVL45:
	.loc 2 217 0
	stfs 1,60(3)
	blr
	.cfi_endproc
.LFE1406:
	.size	_ZN10GuiElement9SetScaleXEf, .-_ZN10GuiElement9SetScaleXEf
	.section	.text._ZN10GuiElement9SetScaleYEf,"axG",@progbits,_ZN10GuiElement9SetScaleYEf,comdat
	.align 2
	.weak	_ZN10GuiElement9SetScaleYEf
	.type	_ZN10GuiElement9SetScaleYEf, @function
_ZN10GuiElement9SetScaleYEf:
.LFB1407:
	.loc 2 220 0
	.cfi_startproc
.LVL46:
	.loc 2 220 0
	stfs 1,64(3)
	blr
	.cfi_endproc
.LFE1407:
	.size	_ZN10GuiElement9SetScaleYEf, .-_ZN10GuiElement9SetScaleYEf
	.section	.text._ZN10GuiElement8GetScaleEv,"axG",@progbits,_ZN10GuiElement8GetScaleEv,comdat
	.align 2
	.weak	_ZN10GuiElement8GetScaleEv
	.type	_ZN10GuiElement8GetScaleEv, @function
_ZN10GuiElement8GetScaleEv:
.LFB1408:
	.loc 2 223 0
	.cfi_startproc
.LVL47:
	mflr 0
	stwu 1,-16(1)
.LCFI5:
	.cfi_def_cfa_offset 16
	.cfi_register 65, 0
.LBB1745:
	.loc 2 225 0
	lis 9,.LC3@ha
.LBE1745:
	.loc 2 223 0
	stfd 31,8(1)
	stw 0,20(1)
.LBB1746:
	.loc 2 225 0
	lfs 0,64(3)
	lfs 31,60(3)
	.cfi_offset 65, 4
	.cfi_offset 63, -8
	.loc 2 227 0
	lwz 11,96(3)
	.loc 2 225 0
	fadds 31,31,0
	lfs 0,.LC3@l(9)
	.loc 2 227 0
	cmpwi 7,11,0
	.loc 2 225 0
	fmuls 31,31,0
	lfs 0,112(3)
	fmuls 31,31,0
.LVL48:
	.loc 2 227 0
	beq- 7,.L43
	.loc 2 228 0
	lwz 9,0(11)
	mr 3,11
.LVL49:
	lwz 0,116(9)
	mtctr 0
	bctrl
	fmuls 31,31,1
.LVL50:
.L43:
.LBE1746:
	.loc 2 231 0
	lwz 0,20(1)
	fmr 1,31
	lfd 31,8(1)
.LVL51:
	mtlr 0
	addi 1,1,16
.LCFI6:
	.cfi_def_cfa_offset 0
	.cfi_restore 63
	blr
	.cfi_endproc
.LFE1408:
	.size	_ZN10GuiElement8GetScaleEv, .-_ZN10GuiElement8GetScaleEv
	.section	.text._ZN10GuiElement9GetScaleXEv,"axG",@progbits,_ZN10GuiElement9GetScaleXEv,comdat
	.align 2
	.weak	_ZN10GuiElement9GetScaleXEv
	.type	_ZN10GuiElement9GetScaleXEv, @function
_ZN10GuiElement9GetScaleXEv:
.LFB1409:
	.loc 2 234 0
	.cfi_startproc
.LVL52:
	mflr 0
	stwu 1,-16(1)
.LCFI7:
	.cfi_def_cfa_offset 16
	.cfi_register 65, 0
	stfd 31,8(1)
	stw 0,20(1)
.LBB1747:
	.loc 2 238 0
	lwz 11,96(3)
	.loc 2 236 0
	lfs 31,60(3)
	.cfi_offset 65, 4
	.cfi_offset 63, -8
	.loc 2 238 0
	cmpwi 7,11,0
	.loc 2 236 0
	lfs 0,112(3)
	fmuls 31,31,0
.LVL53:
	.loc 2 238 0
	beq- 7,.L45
	.loc 2 239 0
	lwz 9,0(11)
	mr 3,11
.LVL54:
	lwz 0,120(9)
	mtctr 0
	bctrl
	fmuls 31,31,1
.LVL55:
.L45:
.LBE1747:
	.loc 2 242 0
	lwz 0,20(1)
	fmr 1,31
	lfd 31,8(1)
.LVL56:
	mtlr 0
	addi 1,1,16
.LCFI8:
	.cfi_def_cfa_offset 0
	.cfi_restore 63
	blr
	.cfi_endproc
.LFE1409:
	.size	_ZN10GuiElement9GetScaleXEv, .-_ZN10GuiElement9GetScaleXEv
	.section	.text._ZN10GuiElement9GetScaleYEv,"axG",@progbits,_ZN10GuiElement9GetScaleYEv,comdat
	.align 2
	.weak	_ZN10GuiElement9GetScaleYEv
	.type	_ZN10GuiElement9GetScaleYEv, @function
_ZN10GuiElement9GetScaleYEv:
.LFB1410:
	.loc 2 245 0
	.cfi_startproc
.LVL57:
	mflr 0
	stwu 1,-16(1)
.LCFI9:
	.cfi_def_cfa_offset 16
	.cfi_register 65, 0
	stfd 31,8(1)
	stw 0,20(1)
.LBB1748:
	.loc 2 249 0
	lwz 11,96(3)
	.loc 2 247 0
	lfs 31,64(3)
	.cfi_offset 65, 4
	.cfi_offset 63, -8
	.loc 2 249 0
	cmpwi 7,11,0
	.loc 2 247 0
	lfs 0,112(3)
	fmuls 31,31,0
.LVL58:
	.loc 2 249 0
	beq- 7,.L47
	.loc 2 250 0
	lwz 9,0(11)
	mr 3,11
.LVL59:
	lwz 0,124(9)
	mtctr 0
	bctrl
	fmuls 31,31,1
.LVL60:
.L47:
.LBE1748:
	.loc 2 253 0
	lwz 0,20(1)
	fmr 1,31
	lfd 31,8(1)
.LVL61:
	mtlr 0
	addi 1,1,16
.LCFI10:
	.cfi_def_cfa_offset 0
	.cfi_restore 63
	blr
	.cfi_endproc
.LFE1410:
	.size	_ZN10GuiElement9GetScaleYEv, .-_ZN10GuiElement9GetScaleYEv
	.section	.text._ZN10GuiElement6RumbleEv,"axG",@progbits,_ZN10GuiElement6RumbleEv,comdat
	.align 2
	.weak	_ZN10GuiElement6RumbleEv
	.type	_ZN10GuiElement6RumbleEv, @function
_ZN10GuiElement6RumbleEv:
.LFB1411:
	.loc 2 256 0
	.cfi_startproc
.LVL62:
	.loc 2 256 0
	lbz 3,28(3)
.LVL63:
	blr
	.cfi_endproc
.LFE1411:
	.size	_ZN10GuiElement6RumbleEv, .-_ZN10GuiElement6RumbleEv
	.section	.text._ZN10GuiElement9SetRumbleEb,"axG",@progbits,_ZN10GuiElement9SetRumbleEb,comdat
	.align 2
	.weak	_ZN10GuiElement9SetRumbleEb
	.type	_ZN10GuiElement9SetRumbleEb, @function
_ZN10GuiElement9SetRumbleEb:
.LFB1412:
	.loc 2 259 0
	.cfi_startproc
.LVL64:
	.loc 2 259 0
	stb 4,28(3)
	blr
	.cfi_endproc
.LFE1412:
	.size	_ZN10GuiElement9SetRumbleEb, .-_ZN10GuiElement9SetRumbleEb
	.section	.text._ZN10GuiElement13SetEffectGrowEv,"axG",@progbits,_ZN10GuiElement13SetEffectGrowEv,comdat
	.align 2
	.weak	_ZN10GuiElement13SetEffectGrowEv
	.type	_ZN10GuiElement13SetEffectGrowEv, @function
_ZN10GuiElement13SetEffectGrowEv:
.LFB1413:
	.loc 2 271 0
	.cfi_startproc
.LVL65:
	mflr 0
	stwu 1,-8(1)
.LCFI11:
	.cfi_def_cfa_offset 8
	.cfi_register 65, 0
	lwz 9,0(3)
	li 4,256
	li 5,4
	li 6,110
	stw 0,12(1)
	.loc 2 271 0
	lwz 0,140(9)
	.cfi_offset 65, 4
	mtctr 0
	bctrl
.LVL66:
	lwz 0,12(1)
	addi 1,1,8
.LCFI12:
	.cfi_def_cfa_offset 0
	mtlr 0
	blr
	.cfi_endproc
.LFE1413:
	.size	_ZN10GuiElement13SetEffectGrowEv, .-_ZN10GuiElement13SetEffectGrowEv
	.section	.text._ZNK10GuiElement9GetEffectEv,"axG",@progbits,_ZNK10GuiElement9GetEffectEv,comdat
	.align 2
	.weak	_ZNK10GuiElement9GetEffectEv
	.type	_ZNK10GuiElement9GetEffectEv, @function
_ZNK10GuiElement9GetEffectEv:
.LFB1414:
	.loc 2 276 0
	.cfi_startproc
.LVL67:
	.loc 2 276 0
	lwz 3,120(3)
.LVL68:
	blr
	.cfi_endproc
.LFE1414:
	.size	_ZNK10GuiElement9GetEffectEv, .-_ZNK10GuiElement9GetEffectEv
	.section	.text._ZNK10GuiElement10IsAnimatedEv,"axG",@progbits,_ZNK10GuiElement10IsAnimatedEv,comdat
	.align 2
	.weak	_ZNK10GuiElement10IsAnimatedEv
	.type	_ZNK10GuiElement10IsAnimatedEv, @function
_ZNK10GuiElement10IsAnimatedEv:
.LFB1415:
	.loc 2 278 0
	.cfi_startproc
.LVL69:
	mflr 0
	stwu 1,-8(1)
.LCFI13:
	.cfi_def_cfa_offset 8
	.cfi_register 65, 0
	stw 0,12(1)
	.loc 2 278 0
	lwz 9,0(3)
	lwz 0,152(9)
	.cfi_offset 65, 4
	mtctr 0
	bctrl
.LVL70:
	srawi 0,3,31
	subf 3,3,0
	lwz 0,12(1)
	srwi 3,3,31
	mtlr 0
	addi 1,1,8
.LCFI14:
	.cfi_def_cfa_offset 0
	blr
	.cfi_endproc
.LFE1415:
	.size	_ZNK10GuiElement10IsAnimatedEv, .-_ZNK10GuiElement10IsAnimatedEv
	.section	.text._ZN10GuiElement8IsInsideEii,"axG",@progbits,_ZN10GuiElement8IsInsideEii,comdat
	.align 2
	.weak	_ZN10GuiElement8IsInsideEii
	.type	_ZN10GuiElement8IsInsideEii, @function
_ZN10GuiElement8IsInsideEii:
.LFB1417:
	.loc 2 285 0
	.cfi_startproc
.LVL71:
	mflr 0
	stwu 1,-24(1)
.LCFI15:
	.cfi_def_cfa_offset 24
	.cfi_register 65, 0
	stw 28,8(1)
	mr 28,5
	.cfi_offset 28, -16
	stw 0,28(1)
	stw 29,12(1)
	.loc 2 290 0
	li 29,0
	.cfi_offset 29, -12
	.cfi_offset 65, 4
	.loc 2 287 0
	lwz 9,0(3)
	.loc 2 285 0
	stw 30,16(1)
	mr 30,4
	.cfi_offset 30, -8
	.loc 2 287 0
	lwz 0,16(9)
	.loc 2 285 0
	stw 31,20(1)
	.loc 2 285 0
	mr 31,3
	.cfi_offset 31, -4
	.loc 2 287 0
	mtctr 0
	bctrl
.LVL72:
	.loc 2 290 0
	cmpw 7,3,30
	blt- 7,.L58
.L54:
	.loc 2 291 0 discriminator 6
	lwz 0,28(1)
	mr 3,29
	lwz 28,8(1)
.LVL73:
	mtlr 0
	lwz 29,12(1)
	lwz 30,16(1)
.LVL74:
	lwz 31,20(1)
.LVL75:
	addi 1,1,24
	.cfi_remember_state
.LCFI16:
	.cfi_def_cfa_offset 0
	.cfi_restore 31
	.cfi_restore 30
	.cfi_restore 29
	.cfi_restore 28
	blr
.LVL76:
.L58:
.LCFI17:
	.cfi_restore_state
	.loc 2 288 0 discriminator 1
	lwz 9,0(31)
	mr 3,31
	lwz 0,16(9)
	mtctr 0
	bctrl
	.loc 2 290 0 discriminator 1
	lwz 0,36(31)
	add 0,3,0
	cmpw 7,30,0
	bge+ 7,.L54
	.loc 2 289 0 discriminator 3
	lwz 9,0(31)
	mr 3,31
	lwz 0,20(9)
	mtctr 0
	bctrl
	.loc 2 290 0 discriminator 3
	cmpw 7,3,28
	bge+ 7,.L54
	.loc 2 290 0 is_stmt 0 discriminator 4
	lwz 9,0(31)
	mr 3,31
	lwz 0,20(9)
	mtctr 0
	bctrl
	lwz 0,40(31)
	add 0,3,0
	.loc 2 285 0 is_stmt 1 discriminator 4
	cmpw 7,28,0
	mfcr 29
	rlwinm 29,29,29,1
	b .L54
	.cfi_endproc
.LFE1417:
	.size	_ZN10GuiElement8IsInsideEii, .-_ZN10GuiElement8IsInsideEii
	.section	.text._ZN10GuiElement11SetPositionEii,"axG",@progbits,_ZN10GuiElement11SetPositionEii,comdat
	.align 2
	.weak	_ZN10GuiElement11SetPositionEii
	.type	_ZN10GuiElement11SetPositionEii, @function
_ZN10GuiElement11SetPositionEii:
.LFB1418:
	.loc 2 295 0
	.cfi_startproc
.LVL77:
	.loc 2 297 0
	stw 4,44(3)
	.loc 2 299 0
	.loc 2 298 0
	stw 5,48(3)
	.loc 2 299 0
	blr
	.cfi_endproc
.LFE1418:
	.size	_ZN10GuiElement11SetPositionEii, .-_ZN10GuiElement11SetPositionEii
	.section	.text._ZN10GuiElement11SetPositionEiii,"axG",@progbits,_ZN10GuiElement11SetPositionEiii,comdat
	.align 2
	.weak	_ZN10GuiElement11SetPositionEiii
	.type	_ZN10GuiElement11SetPositionEiii, @function
_ZN10GuiElement11SetPositionEiii:
.LFB1419:
	.loc 2 304 0
	.cfi_startproc
.LVL78:
	.loc 2 306 0
	stw 4,44(3)
	.loc 2 309 0
	.loc 2 307 0
	stw 5,48(3)
	.loc 2 308 0
	stw 6,52(3)
	.loc 2 309 0
	blr
	.cfi_endproc
.LFE1419:
	.size	_ZN10GuiElement11SetPositionEiii, .-_ZN10GuiElement11SetPositionEiii
	.section	.text._ZN10GuiElement12SetAlignmentEi,"axG",@progbits,_ZN10GuiElement12SetAlignmentEi,comdat
	.align 2
	.weak	_ZN10GuiElement12SetAlignmentEi
	.type	_ZN10GuiElement12SetAlignmentEi, @function
_ZN10GuiElement12SetAlignmentEi:
.LFB1421:
	.loc 2 316 0
	.cfi_startproc
.LVL79:
	.loc 2 316 0
	stw 4,68(3)
	blr
	.cfi_endproc
.LFE1421:
	.size	_ZN10GuiElement12SetAlignmentEi, .-_ZN10GuiElement12SetAlignmentEi
	.section	.text._ZNK10GuiElement12GetAlignmentEv,"axG",@progbits,_ZNK10GuiElement12GetAlignmentEv,comdat
	.align 2
	.weak	_ZNK10GuiElement12GetAlignmentEv
	.type	_ZNK10GuiElement12GetAlignmentEv, @function
_ZNK10GuiElement12GetAlignmentEv:
.LFB1422:
	.loc 2 318 0
	.cfi_startproc
.LVL80:
	.loc 2 318 0
	lwz 3,68(3)
.LVL81:
	blr
	.cfi_endproc
.LFE1422:
	.size	_ZNK10GuiElement12GetAlignmentEv, .-_ZNK10GuiElement12GetAlignmentEv
	.section	.text._ZN8GuiFrame4showEv,"axG",@progbits,_ZN8GuiFrame4showEv,comdat
	.align 2
	.weak	_ZN8GuiFrame4showEv
	.type	_ZN8GuiFrame4showEv, @function
_ZN8GuiFrame4showEv:
.LFB1463:
	.file 3 "d:/Projects/SaveGameManager/savegame-manager-gx/trunk/source/Themes/../GUI/gui_frame.h"
	.loc 3 79 0
	.cfi_startproc
.LVL82:
	.loc 3 79 0
	blr
	.cfi_endproc
.LFE1463:
	.size	_ZN8GuiFrame4showEv, .-_ZN8GuiFrame4showEv
	.section	.text._ZN8GuiFrame4hideEv,"axG",@progbits,_ZN8GuiFrame4hideEv,comdat
	.align 2
	.weak	_ZN8GuiFrame4hideEv
	.type	_ZN8GuiFrame4hideEv, @function
_ZN8GuiFrame4hideEv:
.LFB1464:
	.loc 3 81 0
	.cfi_startproc
.LVL83:
	.loc 3 81 0
	blr
	.cfi_endproc
.LFE1464:
	.size	_ZN8GuiFrame4hideEv, .-_ZN8GuiFrame4hideEv
	.section	.text._ZN8GuiFrame4execEv,"axG",@progbits,_ZN8GuiFrame4execEv,comdat
	.align 2
	.weak	_ZN8GuiFrame4execEv
	.type	_ZN8GuiFrame4execEv, @function
_ZN8GuiFrame4execEv:
.LFB1465:
	.loc 3 83 0
	.cfi_startproc
.LVL84:
	.loc 3 83 0
	blr
	.cfi_endproc
.LFE1465:
	.size	_ZN8GuiFrame4execEv, .-_ZN8GuiFrame4execEv
	.section	.text._ZN8GuiFrame12updateEventsEv,"axG",@progbits,_ZN8GuiFrame12updateEventsEv,comdat
	.align 2
	.weak	_ZN8GuiFrame12updateEventsEv
	.type	_ZN8GuiFrame12updateEventsEv, @function
_ZN8GuiFrame12updateEventsEv:
.LFB1466:
	.loc 3 85 0
	.cfi_startproc
.LVL85:
	.loc 3 85 0
	blr
	.cfi_endproc
.LFE1466:
	.size	_ZN8GuiFrame12updateEventsEv, .-_ZN8GuiFrame12updateEventsEv
	.section	".text"
	.align 2
	.globl _ZN16ThemeInfosWindow13OnButtonClickEP9GuiButtoniRK6_POINT
	.type	_ZN16ThemeInfosWindow13OnButtonClickEP9GuiButtoniRK6_POINT, @function
_ZN16ThemeInfosWindow13OnButtonClickEP9GuiButtoniRK6_POINT:
.LFB1582:
	.file 4 "d:/Projects/SaveGameManager/savegame-manager-gx/trunk/source/Themes/ThemeInfosWindow.cpp"
	.loc 4 133 0
	.cfi_startproc
.LVL86:
	.loc 4 135 0
	lwz 0,256(3)
	.loc 4 138 0
	.loc 4 135 0
	xor 0,0,4
	cntlzw 0,0
	srwi 0,0,5
	.loc 4 133 0
	stw 0,204(3)
	.loc 4 138 0
	blr
	.cfi_endproc
.LFE1582:
	.size	_ZN16ThemeInfosWindow13OnButtonClickEP9GuiButtoniRK6_POINT, .-_ZN16ThemeInfosWindow13OnButtonClickEP9GuiButtoniRK6_POINT
	.section	.text._ZN7sigslot17_connection_base3IP9GuiButtoniRK6_POINTNS_15single_threadedEED2Ev,"axG",@progbits,_ZN7sigslot17_connection_base3IP9GuiButtoniRK6_POINTNS_15single_threadedEED5Ev,comdat
	.align 2
	.weak	_ZN7sigslot17_connection_base3IP9GuiButtoniRK6_POINTNS_15single_threadedEED2Ev
	.type	_ZN7sigslot17_connection_base3IP9GuiButtoniRK6_POINTNS_15single_threadedEED2Ev, @function
_ZN7sigslot17_connection_base3IP9GuiButtoniRK6_POINTNS_15single_threadedEED2Ev:
.LFB1736:
	.loc 1 387 0
	.cfi_startproc
.LVL87:
.LBB1749:
	.loc 1 387 0
	lis 9,_ZTVN7sigslot17_connection_base3IP9GuiButtoniRK6_POINTNS_15single_threadedEEE+8@ha
.LBE1749:
.LBB1750:
	la 0,_ZTVN7sigslot17_connection_base3IP9GuiButtoniRK6_POINTNS_15single_threadedEEE+8@l(9)
	stw 0,0(3)
.LBE1750:
	blr
	.cfi_endproc
.LFE1736:
	.size	_ZN7sigslot17_connection_base3IP9GuiButtoniRK6_POINTNS_15single_threadedEED2Ev, .-_ZN7sigslot17_connection_base3IP9GuiButtoniRK6_POINTNS_15single_threadedEED2Ev
	.section	.text._ZN7sigslot12_connection3I16ThemeInfosWindowP9GuiButtoniRK6_POINTNS_15single_threadedEED2Ev,"axG",@progbits,_ZN7sigslot12_connection3I16ThemeInfosWindowP9GuiButtoniRK6_POINTNS_15single_threadedEED5Ev,comdat
	.align 2
	.weak	_ZN7sigslot12_connection3I16ThemeInfosWindowP9GuiButtoniRK6_POINTNS_15single_threadedEED2Ev
	.type	_ZN7sigslot12_connection3I16ThemeInfosWindowP9GuiButtoniRK6_POINTNS_15single_threadedEED2Ev, @function
_ZN7sigslot12_connection3I16ThemeInfosWindowP9GuiButtoniRK6_POINTNS_15single_threadedEED2Ev:
.LFB1987:
	.loc 1 1783 0
	.cfi_startproc
.LVL88:
.LBB1751:
.LBB1752:
.LBB1753:
.LBB1754:
	.loc 1 387 0
	lis 9,_ZTVN7sigslot17_connection_base3IP9GuiButtoniRK6_POINTNS_15single_threadedEEE+8@ha
.LBE1754:
.LBE1753:
.LBE1752:
.LBE1751:
	.loc 1 1786 0
.LBB1758:
.LBB1757:
.LBB1756:
.LBB1755:
	.loc 1 387 0
	la 0,_ZTVN7sigslot17_connection_base3IP9GuiButtoniRK6_POINTNS_15single_threadedEEE+8@l(9)
	stw 0,0(3)
.LBE1755:
.LBE1756:
.LBE1757:
.LBE1758:
	.loc 1 1786 0
	blr
	.cfi_endproc
.LFE1987:
	.size	_ZN7sigslot12_connection3I16ThemeInfosWindowP9GuiButtoniRK6_POINTNS_15single_threadedEED2Ev, .-_ZN7sigslot12_connection3I16ThemeInfosWindowP9GuiButtoniRK6_POINTNS_15single_threadedEED2Ev
	.section	.text._ZNK7sigslot12_connection3I16ThemeInfosWindowP9GuiButtoniRK6_POINTNS_15single_threadedEE7getdestEv,"axG",@progbits,_ZNK7sigslot12_connection3I16ThemeInfosWindowP9GuiButtoniRK6_POINTNS_15single_threadedEE7getdestEv,comdat
	.align 2
	.weak	_ZNK7sigslot12_connection3I16ThemeInfosWindowP9GuiButtoniRK6_POINTNS_15single_threadedEE7getdestEv
	.type	_ZNK7sigslot12_connection3I16ThemeInfosWindowP9GuiButtoniRK6_POINTNS_15single_threadedEE7getdestEv, @function
_ZNK7sigslot12_connection3I16ThemeInfosWindowP9GuiButtoniRK6_POINTNS_15single_threadedEE7getdestEv:
.LFB1990:
	.loc 1 1804 0
	.cfi_startproc
.LVL89:
	.loc 1 1806 0
	lwz 9,4(3)
	li 3,0
.LVL90:
	cmpwi 7,9,0
	beqlr- 7
	.loc 1 1806 0 is_stmt 0 discriminator 1
	addi 3,9,176
	.loc 1 1807 0 is_stmt 1 discriminator 1
	blr
	.cfi_endproc
.LFE1990:
	.size	_ZNK7sigslot12_connection3I16ThemeInfosWindowP9GuiButtoniRK6_POINTNS_15single_threadedEE7getdestEv, .-_ZNK7sigslot12_connection3I16ThemeInfosWindowP9GuiButtoniRK6_POINTNS_15single_threadedEE7getdestEv
	.section	.text._ZN7sigslot12_connection3I16ThemeInfosWindowP9GuiButtoniRK6_POINTNS_15single_threadedEE4emitES3_iS6_,"axG",@progbits,_ZN7sigslot12_connection3I16ThemeInfosWindowP9GuiButtoniRK6_POINTNS_15single_threadedEE4emitES3_iS6_,comdat
	.align 2
	.weak	_ZN7sigslot12_connection3I16ThemeInfosWindowP9GuiButtoniRK6_POINTNS_15single_threadedEE4emitES3_iS6_
	.type	_ZN7sigslot12_connection3I16ThemeInfosWindowP9GuiButtoniRK6_POINTNS_15single_threadedEE4emitES3_iS6_, @function
_ZN7sigslot12_connection3I16ThemeInfosWindowP9GuiButtoniRK6_POINTNS_15single_threadedEE4emitES3_iS6_:
.LFB1991:
	.loc 1 1799 0
	.cfi_startproc
.LVL91:
	mflr 0
	stwu 1,-8(1)
.LCFI18:
	.cfi_def_cfa_offset 8
	.cfi_register 65, 0
	stw 0,12(1)
	.loc 1 1801 0
	lwz 0,8(3)
	.cfi_offset 65, 4
	lwz 11,4(3)
	andi. 9,0,1
	lwz 9,12(3)
	bne- 0,.L77
	mtctr 0
	add 3,11,9
.LVL92:
	bctrl
.LVL93:
	.loc 1 1802 0
	lwz 0,12(1)
	addi 1,1,8
	.cfi_remember_state
.LCFI19:
	.cfi_def_cfa_offset 0
	mtlr 0
	blr
.LVL94:
.L77:
.LCFI20:
	.cfi_restore_state
	.loc 1 1801 0 discriminator 1
	lwzx 10,11,9
	add 3,11,9
.LVL95:
	add 9,10,0
	lwz 0,-1(9)
	mtctr 0
	bctrl
.LVL96:
	.loc 1 1802 0 discriminator 1
	lwz 0,12(1)
	addi 1,1,8
.LCFI21:
	.cfi_def_cfa_offset 0
	mtlr 0
	blr
	.cfi_endproc
.LFE1991:
	.size	_ZN7sigslot12_connection3I16ThemeInfosWindowP9GuiButtoniRK6_POINTNS_15single_threadedEE4emitES3_iS6_, .-_ZN7sigslot12_connection3I16ThemeInfosWindowP9GuiButtoniRK6_POINTNS_15single_threadedEE4emitES3_iS6_
	.section	.text._ZN7sigslot12_connection3I16ThemeInfosWindowP9GuiButtoniRK6_POINTNS_15single_threadedEE9duplicateEPNS_9has_slotsIS7_EE,"axG",@progbits,_ZN7sigslot12_connection3I16ThemeInfosWindowP9GuiButtoniRK6_POINTNS_15single_threadedEE9duplicateEPNS_9has_slotsIS7_EE,comdat
	.align 2
	.weak	_ZN7sigslot12_connection3I16ThemeInfosWindowP9GuiButtoniRK6_POINTNS_15single_threadedEE9duplicateEPNS_9has_slotsIS7_EE
	.type	_ZN7sigslot12_connection3I16ThemeInfosWindowP9GuiButtoniRK6_POINTNS_15single_threadedEE9duplicateEPNS_9has_slotsIS7_EE, @function
_ZN7sigslot12_connection3I16ThemeInfosWindowP9GuiButtoniRK6_POINTNS_15single_threadedEE9duplicateEPNS_9has_slotsIS7_EE:
.LFB1999:
	.loc 1 1794 0
	.cfi_startproc
.LVL97:
	stwu 1,-16(1)
.LCFI22:
	.cfi_def_cfa_offset 16
	mflr 0
	stw 30,8(1)
	mr 30,4
	.cfi_offset 30, -8
	.cfi_register 65, 0
	stw 31,12(1)
	mr 31,3
	.cfi_offset 31, -4
	.loc 1 1796 0
	li 3,16
.LVL98:
	.loc 1 1794 0
	stw 0,20(1)
	.loc 1 1796 0
	.cfi_offset 65, 4
	bl _Znwj
.LVL99:
	cmpwi 7,30,0
	li 0,0
	beq- 7,.L80
	.loc 1 1796 0 is_stmt 0 discriminator 1
	addi 0,30,-176
.L80:
.LVL100:
	.loc 1 1796 0 discriminator 3
	lwz 11,8(31)
.LVL101:
.LBB1759:
.LBB1760:
	.loc 1 1778 0 is_stmt 1 discriminator 3
	lis 10,_ZTVN7sigslot12_connection3I16ThemeInfosWindowP9GuiButtoniRK6_POINTNS_15single_threadedEEE+8@ha
.LBE1760:
.LBE1759:
	.loc 1 1796 0 discriminator 3
	lwz 9,12(31)
.LVL102:
.LBB1763:
.LBB1761:
	.loc 1 1778 0 discriminator 3
	la 10,_ZTVN7sigslot12_connection3I16ThemeInfosWindowP9GuiButtoniRK6_POINTNS_15single_threadedEEE+8@l(10)
	.loc 1 1780 0 discriminator 3
	stw 11,8(3)
	stw 9,12(3)
	.loc 1 1779 0 discriminator 3
	stw 0,4(3)
.LBE1761:
.LBE1763:
	.loc 1 1797 0 discriminator 3
	lwz 0,20(1)
.LVL103:
	lwz 30,8(1)
.LVL104:
	mtlr 0
	lwz 31,12(1)
.LVL105:
.LBB1764:
.LBB1762:
	.loc 1 1778 0 discriminator 3
	stw 10,0(3)
.LBE1762:
.LBE1764:
	.loc 1 1797 0 discriminator 3
	addi 1,1,16
.LCFI23:
	.cfi_def_cfa_offset 0
	.cfi_restore 31
	.cfi_restore 30
	blr
	.cfi_endproc
.LFE1999:
	.size	_ZN7sigslot12_connection3I16ThemeInfosWindowP9GuiButtoniRK6_POINTNS_15single_threadedEE9duplicateEPNS_9has_slotsIS7_EE, .-_ZN7sigslot12_connection3I16ThemeInfosWindowP9GuiButtoniRK6_POINTNS_15single_threadedEE9duplicateEPNS_9has_slotsIS7_EE
	.section	.text._ZN7sigslot12_connection3I16ThemeInfosWindowP9GuiButtoniRK6_POINTNS_15single_threadedEE5cloneEv,"axG",@progbits,_ZN7sigslot12_connection3I16ThemeInfosWindowP9GuiButtoniRK6_POINTNS_15single_threadedEE5cloneEv,comdat
	.align 2
	.weak	_ZN7sigslot12_connection3I16ThemeInfosWindowP9GuiButtoniRK6_POINTNS_15single_threadedEE5cloneEv
	.type	_ZN7sigslot12_connection3I16ThemeInfosWindowP9GuiButtoniRK6_POINTNS_15single_threadedEE5cloneEv, @function
_ZN7sigslot12_connection3I16ThemeInfosWindowP9GuiButtoniRK6_POINTNS_15single_threadedEE5cloneEv:
.LFB1992:
	.loc 1 1789 0
	.cfi_startproc
.LVL106:
	stwu 1,-16(1)
.LCFI24:
	.cfi_def_cfa_offset 16
	mflr 0
	stw 31,12(1)
	mr 31,3
	.cfi_offset 31, -4
	.cfi_register 65, 0
	.loc 1 1791 0
	li 3,16
.LVL107:
	.loc 1 1789 0
	stw 0,20(1)
	.loc 1 1791 0
	.cfi_offset 65, 4
	bl _Znwj
	.loc 4 138 0
	lwz 0,4(31)
.LVL108:
.LBB1765:
.LBB1766:
	.loc 1 1767 0
	lis 11,_ZTVN7sigslot12_connection3I16ThemeInfosWindowP9GuiButtoniRK6_POINTNS_15single_threadedEEE+8@ha
	la 11,_ZTVN7sigslot12_connection3I16ThemeInfosWindowP9GuiButtoniRK6_POINTNS_15single_threadedEEE+8@l(11)
	stw 0,4(3)
	stw 11,0(3)
	lwz 10,8(31)
	lwz 11,12(31)
	stw 10,8(3)
	stw 11,12(3)
.LBE1766:
.LBE1765:
	.loc 1 1792 0
	lwz 0,20(1)
	lwz 31,12(1)
.LVL109:
	mtlr 0
	addi 1,1,16
.LCFI25:
	.cfi_def_cfa_offset 0
	.cfi_restore 31
	blr
	.cfi_endproc
.LFE1992:
	.size	_ZN7sigslot12_connection3I16ThemeInfosWindowP9GuiButtoniRK6_POINTNS_15single_threadedEE5cloneEv, .-_ZN7sigslot12_connection3I16ThemeInfosWindowP9GuiButtoniRK6_POINTNS_15single_threadedEE5cloneEv
	.section	.text._ZN7sigslot12_connection3I16ThemeInfosWindowP9GuiButtoniRK6_POINTNS_15single_threadedEED0Ev,"axG",@progbits,_ZN7sigslot12_connection3I16ThemeInfosWindowP9GuiButtoniRK6_POINTNS_15single_threadedEED5Ev,comdat
	.align 2
	.weak	_ZN7sigslot12_connection3I16ThemeInfosWindowP9GuiButtoniRK6_POINTNS_15single_threadedEED0Ev
	.type	_ZN7sigslot12_connection3I16ThemeInfosWindowP9GuiButtoniRK6_POINTNS_15single_threadedEED0Ev, @function
_ZN7sigslot12_connection3I16ThemeInfosWindowP9GuiButtoniRK6_POINTNS_15single_threadedEED0Ev:
.LFB1989:
	.loc 1 1783 0
	.cfi_startproc
.LVL110:
	mflr 0
	stwu 1,-8(1)
.LCFI26:
	.cfi_def_cfa_offset 8
	.cfi_register 65, 0
.LBB1767:
.LBB1768:
.LBB1769:
.LBB1770:
.LBB1771:
.LBB1772:
	.loc 1 387 0
	lis 9,_ZTVN7sigslot17_connection_base3IP9GuiButtoniRK6_POINTNS_15single_threadedEEE+8@ha
.LBE1772:
.LBE1771:
.LBE1770:
.LBE1769:
.LBE1768:
.LBE1767:
	.loc 1 1783 0
	stw 0,12(1)
.LBB1778:
.LBB1777:
.LBB1776:
.LBB1775:
.LBB1774:
.LBB1773:
	.loc 1 387 0
	la 0,_ZTVN7sigslot17_connection_base3IP9GuiButtoniRK6_POINTNS_15single_threadedEEE+8@l(9)
	.cfi_offset 65, 4
	stw 0,0(3)
.LBE1773:
.LBE1774:
.LBE1775:
.LBE1776:
.LBE1777:
.LBE1778:
	.loc 1 1786 0
	bl _ZdlPv
.LVL111:
	lwz 0,12(1)
	addi 1,1,8
.LCFI27:
	.cfi_def_cfa_offset 0
	mtlr 0
	blr
	.cfi_endproc
.LFE1989:
	.size	_ZN7sigslot12_connection3I16ThemeInfosWindowP9GuiButtoniRK6_POINTNS_15single_threadedEED0Ev, .-_ZN7sigslot12_connection3I16ThemeInfosWindowP9GuiButtoniRK6_POINTNS_15single_threadedEED0Ev
	.section	.text._ZN7sigslot17_connection_base3IP9GuiButtoniRK6_POINTNS_15single_threadedEED0Ev,"axG",@progbits,_ZN7sigslot17_connection_base3IP9GuiButtoniRK6_POINTNS_15single_threadedEED5Ev,comdat
	.align 2
	.weak	_ZN7sigslot17_connection_base3IP9GuiButtoniRK6_POINTNS_15single_threadedEED0Ev
	.type	_ZN7sigslot17_connection_base3IP9GuiButtoniRK6_POINTNS_15single_threadedEED0Ev, @function
_ZN7sigslot17_connection_base3IP9GuiButtoniRK6_POINTNS_15single_threadedEED0Ev:
.LFB1738:
	.loc 1 387 0
	.cfi_startproc
.LVL112:
	mflr 0
	stwu 1,-8(1)
.LCFI28:
	.cfi_def_cfa_offset 8
	.cfi_register 65, 0
.LBB1779:
.LBB1780:
.LBB1781:
	lis 9,_ZTVN7sigslot17_connection_base3IP9GuiButtoniRK6_POINTNS_15single_threadedEEE+8@ha
.LBE1781:
.LBE1780:
.LBE1779:
	stw 0,12(1)
.LBB1784:
.LBB1783:
.LBB1782:
	.loc 1 387 0
	la 0,_ZTVN7sigslot17_connection_base3IP9GuiButtoniRK6_POINTNS_15single_threadedEEE+8@l(9)
	.cfi_offset 65, 4
	stw 0,0(3)
.LBE1782:
.LBE1783:
.LBE1784:
	bl _ZdlPv
.LVL113:
	lwz 0,12(1)
	addi 1,1,8
.LCFI29:
	.cfi_def_cfa_offset 0
	mtlr 0
	blr
	.cfi_endproc
.LFE1738:
	.size	_ZN7sigslot17_connection_base3IP9GuiButtoniRK6_POINTNS_15single_threadedEED0Ev, .-_ZN7sigslot17_connection_base3IP9GuiButtoniRK6_POINTNS_15single_threadedEED0Ev
	.section	.text._ZN7sigslot15single_threadedD0Ev,"axG",@progbits,_ZN7sigslot15single_threadedD5Ev,comdat
	.align 2
	.weak	_ZN7sigslot15single_threadedD0Ev
	.type	_ZN7sigslot15single_threadedD0Ev, @function
_ZN7sigslot15single_threadedD0Ev:
.LFB1150:
	.loc 1 104 0
	.cfi_startproc
.LVL114:
	mflr 0
	stwu 1,-8(1)
.LCFI30:
	.cfi_def_cfa_offset 8
	.cfi_register 65, 0
.LBB1785:
.LBB1786:
.LBB1787:
	.loc 1 105 0
	lis 9,_ZTVN7sigslot15single_threadedE+8@ha
.LBE1787:
.LBE1786:
.LBE1785:
	.loc 1 104 0
	stw 0,12(1)
.LBB1790:
.LBB1789:
.LBB1788:
	.loc 1 105 0
	la 0,_ZTVN7sigslot15single_threadedE+8@l(9)
	.cfi_offset 65, 4
	stw 0,0(3)
.LBE1788:
.LBE1789:
.LBE1790:
	.loc 1 107 0
	bl _ZdlPv
.LVL115:
	lwz 0,12(1)
	addi 1,1,8
.LCFI31:
	.cfi_def_cfa_offset 0
	mtlr 0
	blr
	.cfi_endproc
.LFE1150:
	.size	_ZN7sigslot15single_threadedD0Ev, .-_ZN7sigslot15single_threadedD0Ev
	.section	.text._ZN16SimpleGuiTriggerD2Ev,"axG",@progbits,_ZN16SimpleGuiTriggerD5Ev,comdat
	.align 2
	.weak	_ZN16SimpleGuiTriggerD2Ev
	.type	_ZN16SimpleGuiTriggerD2Ev, @function
_ZN16SimpleGuiTriggerD2Ev:
.LFB1983:
	.file 5 "d:/Projects/SaveGameManager/savegame-manager-gx/trunk/source/Themes/../GUI/gui_trigger.h"
	.loc 5 91 0
	.cfi_startproc
.LVL116:
	mflr 0
	stwu 1,-8(1)
.LCFI32:
	.cfi_def_cfa_offset 8
	.cfi_register 65, 0
.LBB1792:
	lis 9,_ZTV16SimpleGuiTrigger+8@ha
.LBE1792:
	stw 0,12(1)
.LBB1793:
	.loc 5 91 0
	la 0,_ZTV16SimpleGuiTrigger+8@l(9)
	.cfi_offset 65, 4
	stw 0,0(3)
	bl _ZN10GuiTriggerD2Ev
.LVL117:
.LBE1793:
	lwz 0,12(1)
	addi 1,1,8
.LCFI33:
	.cfi_def_cfa_offset 0
	mtlr 0
	blr
	.cfi_endproc
.LFE1983:
	.size	_ZN16SimpleGuiTriggerD2Ev, .-_ZN16SimpleGuiTriggerD2Ev
	.section	.text._ZN16SimpleGuiTriggerD0Ev,"axG",@progbits,_ZN16SimpleGuiTriggerD5Ev,comdat
	.align 2
	.weak	_ZN16SimpleGuiTriggerD0Ev
	.type	_ZN16SimpleGuiTriggerD0Ev, @function
_ZN16SimpleGuiTriggerD0Ev:
.LFB1985:
	.loc 5 91 0
	.cfi_startproc
.LVL118:
	mflr 0
	stwu 1,-16(1)
.LCFI34:
	.cfi_def_cfa_offset 16
	.cfi_register 65, 0
.LBB1797:
.LBB1798:
.LBB1799:
	lis 9,_ZTV16SimpleGuiTrigger+8@ha
.LBE1799:
.LBE1798:
.LBE1797:
	stw 31,12(1)
	mr 31,3
	.cfi_offset 31, -4
.LVL119:
	stw 0,20(1)
.LBB1802:
.LBB1801:
.LBB1800:
	.loc 5 91 0
	la 0,_ZTV16SimpleGuiTrigger+8@l(9)
	.cfi_offset 65, 4
	stw 0,0(3)
	bl _ZN10GuiTriggerD2Ev
.LVL120:
.LBE1800:
.LBE1801:
.LBE1802:
	mr 3,31
	bl _ZdlPv
	lwz 0,20(1)
	lwz 31,12(1)
.LVL121:
	mtlr 0
	addi 1,1,16
.LCFI35:
	.cfi_def_cfa_offset 0
	.cfi_restore 31
	blr
	.cfi_endproc
.LFE1985:
	.size	_ZN16SimpleGuiTriggerD0Ev, .-_ZN16SimpleGuiTriggerD0Ev
	.section	.text._ZNSt8_Rb_treeIPN7sigslot12_signal_baseINS0_15single_threadedEEES4_St9_IdentityIS4_ESt4lessIS4_ESaIS4_EE8_M_eraseEPSt13_Rb_tree_nodeIS4_E,"axG",@progbits,_ZNSt8_Rb_treeIPN7sigslot12_signal_baseINS0_15single_threadedEEES4_St9_IdentityIS4_ESt4lessIS4_ESaIS4_EE8_M_eraseEPSt13_Rb_tree_nodeIS4_E,comdat
	.align 2
	.weak	_ZNSt8_Rb_treeIPN7sigslot12_signal_baseINS0_15single_threadedEEES4_St9_IdentityIS4_ESt4lessIS4_ESaIS4_EE8_M_eraseEPSt13_Rb_tree_nodeIS4_E
	.type	_ZNSt8_Rb_treeIPN7sigslot12_signal_baseINS0_15single_threadedEEES4_St9_IdentityIS4_ESt4lessIS4_ESaIS4_EE8_M_eraseEPSt13_Rb_tree_nodeIS4_E, @function
_ZNSt8_Rb_treeIPN7sigslot12_signal_baseINS0_15single_threadedEEES4_St9_IdentityIS4_ESt4lessIS4_ESaIS4_EE8_M_eraseEPSt13_Rb_tree_nodeIS4_E:
.LFB1727:
	.file 6 "d:\\devkitpro\\devkitppc\\bin\\../lib/gcc/powerpc-eabi/4.6.3/../../../../powerpc-eabi/include/c++/4.6.3/bits/stl_tree.h"
	.loc 6 1068 0
	.cfi_startproc
.LVL122:
	stwu 1,-56(1)
.LCFI36:
	.cfi_def_cfa_offset 56
	mflr 0
	stw 22,16(1)
.LBB1919:
	.loc 6 1072 0
	mr. 22,4
	.cfi_offset 22, -40
	.cfi_register 65, 0
.LBE1919:
	.loc 6 1068 0
	stw 30,48(1)
	mr 30,3
	.cfi_offset 30, -8
	stw 0,60(1)
	stw 21,12(1)
	stw 23,20(1)
	stw 24,24(1)
	stw 25,28(1)
	stw 26,32(1)
	stw 27,36(1)
	stw 28,40(1)
	stw 29,44(1)
	stw 31,52(1)
.LBB2004:
	.loc 6 1072 0
	beq- 0,.L98
	.cfi_offset 31, -4
	.cfi_offset 29, -12
	.cfi_offset 28, -16
	.cfi_offset 27, -20
	.cfi_offset 26, -24
	.cfi_offset 25, -28
	.cfi_offset 24, -32
	.cfi_offset 23, -36
	.cfi_offset 21, -44
	.cfi_offset 65, 4
.LVL123:
.L144:
	.loc 4 138 0
	lwz 27,12(22)
.LVL124:
.LBB1920:
.LBB1921:
.LBB1922:
	.loc 6 1072 0
	cmpwi 7,27,0
	beq- 7,.L100
.LVL125:
.L145:
.LBE1922:
	.loc 4 138 0
	lwz 26,12(27)
.LVL126:
.LBB1998:
.LBB1923:
.LBB1924:
.LBB1925:
	.loc 6 1072 0
	cmpwi 7,26,0
	beq- 7,.L101
.LVL127:
.L146:
.LBE1925:
	.loc 4 138 0
	lwz 25,12(26)
.LVL128:
.LBB1991:
.LBB1926:
.LBB1927:
.LBB1928:
	.loc 6 1072 0
	cmpwi 7,25,0
	beq- 7,.L102
.LVL129:
.L147:
.LBE1928:
	.loc 4 138 0
	lwz 24,12(25)
.LVL130:
.LBB1984:
.LBB1929:
.LBB1930:
.LBB1931:
	.loc 6 1072 0
	cmpwi 7,24,0
	beq- 7,.L103
.LVL131:
.L148:
.LBE1931:
	.loc 4 138 0
	lwz 23,12(24)
.LVL132:
.LBB1977:
.LBB1932:
.LBB1933:
.LBB1934:
	.loc 6 1072 0
	cmpwi 7,23,0
	beq- 7,.L104
.LVL133:
.L149:
.LBE1934:
	.loc 4 138 0
	lwz 28,12(23)
.LVL134:
.LBB1970:
.LBB1935:
.LBB1936:
.LBB1937:
	.loc 6 1072 0
	cmpwi 7,28,0
	beq- 7,.L105
.LVL135:
.L150:
.LBE1937:
	.loc 4 138 0
	lwz 29,12(28)
.LVL136:
.LBB1963:
.LBB1938:
.LBB1939:
.LBB1940:
	.loc 6 1072 0
	cmpwi 7,29,0
	beq- 7,.L106
.LVL137:
.L151:
.LBE1940:
	.loc 4 138 0
	lwz 31,12(29)
.LVL138:
.LBB1956:
.LBB1941:
.LBB1942:
.LBB1943:
	.loc 6 1072 0
	cmpwi 7,31,0
	beq- 7,.L107
.LVL139:
.L152:
.LBB1944:
	.loc 6 1074 0
	lwz 4,12(31)
	mr 3,30
	bl _ZNSt8_Rb_treeIPN7sigslot12_signal_baseINS0_15single_threadedEEES4_St9_IdentityIS4_ESt4lessIS4_ESaIS4_EE8_M_eraseEPSt13_Rb_tree_nodeIS4_E
.LBE1944:
.LBE1943:
	.loc 4 138 0
	lwz 21,8(31)
.LVL140:
.LBB1950:
.LBB1949:
.LBB1945:
.LBB1946:
.LBB1947:
.LBB1948:
	.file 7 "d:\\devkitpro\\devkitppc\\bin\\../lib/gcc/powerpc-eabi/4.6.3/../../../../powerpc-eabi/include/c++/4.6.3/ext/new_allocator.h"
	.loc 7 98 0
	mr 3,31
	bl _ZdlPv
.LVL141:
.LBE1948:
.LBE1947:
.LBE1946:
.LBE1945:
.LBE1949:
	.loc 6 1072 0
	cmpwi 7,21,0
	.loc 6 1077 0
	mr 31,21
.LVL142:
	.loc 6 1072 0
	bne+ 7,.L152
.LVL143:
.L107:
.LBE1950:
.LBE1942:
.LBE1941:
.LBE1956:
	.loc 4 138 0
	lwz 31,8(29)
.LVL144:
.LBB1957:
.LBB1955:
.LBB1951:
.LBB1952:
.LBB1953:
.LBB1954:
	.loc 7 98 0
	mr 3,29
	bl _ZdlPv
.LVL145:
.LBE1954:
.LBE1953:
.LBE1952:
.LBE1951:
.LBE1955:
	.loc 6 1072 0
	cmpwi 7,31,0
	beq- 7,.L106
	.loc 6 1077 0
	mr 29,31
.LVL146:
	b .L151
.LVL147:
.L106:
.LBE1957:
.LBE1939:
.LBE1938:
.LBE1963:
	.loc 4 138 0
	lwz 31,8(28)
.LVL148:
.LBB1964:
.LBB1962:
.LBB1958:
.LBB1959:
.LBB1960:
.LBB1961:
	.loc 7 98 0
	mr 3,28
	bl _ZdlPv
.LVL149:
.LBE1961:
.LBE1960:
.LBE1959:
.LBE1958:
.LBE1962:
	.loc 6 1072 0
	cmpwi 7,31,0
	beq- 7,.L105
	.loc 6 1077 0
	mr 28,31
.LVL150:
	b .L150
.LVL151:
.L105:
.LBE1964:
.LBE1936:
.LBE1935:
.LBE1970:
	.loc 4 138 0
	lwz 31,8(23)
.LVL152:
.LBB1971:
.LBB1969:
.LBB1965:
.LBB1966:
.LBB1967:
.LBB1968:
	.loc 7 98 0
	mr 3,23
	bl _ZdlPv
.LVL153:
.LBE1968:
.LBE1967:
.LBE1966:
.LBE1965:
.LBE1969:
	.loc 6 1072 0
	cmpwi 7,31,0
	beq- 7,.L104
	.loc 6 1077 0
	mr 23,31
.LVL154:
	b .L149
.LVL155:
.L104:
.LBE1971:
.LBE1933:
.LBE1932:
.LBE1977:
	.loc 4 138 0
	lwz 31,8(24)
.LVL156:
.LBB1978:
.LBB1976:
.LBB1972:
.LBB1973:
.LBB1974:
.LBB1975:
	.loc 7 98 0
	mr 3,24
	bl _ZdlPv
.LVL157:
.LBE1975:
.LBE1974:
.LBE1973:
.LBE1972:
.LBE1976:
	.loc 6 1072 0
	cmpwi 7,31,0
	beq- 7,.L103
	.loc 6 1077 0
	mr 24,31
.LVL158:
	b .L148
.LVL159:
.L103:
.LBE1978:
.LBE1930:
.LBE1929:
.LBE1984:
	.loc 4 138 0
	lwz 31,8(25)
.LVL160:
.LBB1985:
.LBB1983:
.LBB1979:
.LBB1980:
.LBB1981:
.LBB1982:
	.loc 7 98 0
	mr 3,25
	bl _ZdlPv
.LVL161:
.LBE1982:
.LBE1981:
.LBE1980:
.LBE1979:
.LBE1983:
	.loc 6 1072 0
	cmpwi 7,31,0
	beq- 7,.L102
	.loc 6 1077 0
	mr 25,31
.LVL162:
	b .L147
.LVL163:
.L102:
.LBE1985:
.LBE1927:
.LBE1926:
.LBE1991:
	.loc 4 138 0
	lwz 31,8(26)
.LVL164:
.LBB1992:
.LBB1990:
.LBB1986:
.LBB1987:
.LBB1988:
.LBB1989:
	.loc 7 98 0
	mr 3,26
	bl _ZdlPv
.LVL165:
.LBE1989:
.LBE1988:
.LBE1987:
.LBE1986:
.LBE1990:
	.loc 6 1072 0
	cmpwi 7,31,0
	beq- 7,.L101
	.loc 6 1077 0
	mr 26,31
.LVL166:
	b .L146
.LVL167:
.L101:
.LBE1992:
.LBE1924:
.LBE1923:
.LBE1998:
	.loc 4 138 0
	lwz 31,8(27)
.LVL168:
.LBB1999:
.LBB1997:
.LBB1993:
.LBB1994:
.LBB1995:
.LBB1996:
	.loc 7 98 0
	mr 3,27
	bl _ZdlPv
.LVL169:
.LBE1996:
.LBE1995:
.LBE1994:
.LBE1993:
.LBE1997:
	.loc 6 1072 0
	cmpwi 7,31,0
	beq- 7,.L100
	.loc 6 1077 0
	mr 27,31
.LVL170:
	b .L145
.LVL171:
.L100:
	.loc 4 138 0
	lwz 31,8(22)
.LVL172:
.LBE1999:
.LBE1921:
.LBB2000:
.LBB2001:
.LBB2002:
.LBB2003:
	.loc 7 98 0
	mr 3,22
	bl _ZdlPv
.LVL173:
.LBE2003:
.LBE2002:
.LBE2001:
.LBE2000:
.LBE1920:
	.loc 6 1072 0
	cmpwi 7,31,0
	beq- 7,.L98
	.loc 6 1077 0
	mr 22,31
.LVL174:
	b .L144
.LVL175:
.L98:
.LBE2004:
	.loc 6 1079 0
	lwz 0,60(1)
	lwz 21,12(1)
	mtlr 0
	lwz 22,16(1)
	lwz 23,20(1)
	lwz 24,24(1)
	lwz 25,28(1)
	lwz 26,32(1)
	lwz 27,36(1)
	lwz 28,40(1)
	lwz 29,44(1)
	lwz 30,48(1)
.LVL176:
	lwz 31,52(1)
	addi 1,1,56
.LCFI37:
	.cfi_def_cfa_offset 0
	.cfi_restore 31
	.cfi_restore 30
	.cfi_restore 29
	.cfi_restore 28
	.cfi_restore 27
	.cfi_restore 26
	.cfi_restore 25
	.cfi_restore 24
	.cfi_restore 23
	.cfi_restore 22
	.cfi_restore 21
	blr
	.cfi_endproc
.LFE1727:
	.size	_ZNSt8_Rb_treeIPN7sigslot12_signal_baseINS0_15single_threadedEEES4_St9_IdentityIS4_ESt4lessIS4_ESaIS4_EE8_M_eraseEPSt13_Rb_tree_nodeIS4_E, .-_ZNSt8_Rb_treeIPN7sigslot12_signal_baseINS0_15single_threadedEEES4_St9_IdentityIS4_ESt4lessIS4_ESaIS4_EE8_M_eraseEPSt13_Rb_tree_nodeIS4_E
	.section	.text._ZN7sigslot9has_slotsINS_15single_threadedEED2Ev,"axG",@progbits,_ZN7sigslot9has_slotsINS_15single_threadedEED5Ev,comdat
	.align 2
	.weak	_ZN7sigslot9has_slotsINS_15single_threadedEED2Ev
	.type	_ZN7sigslot9has_slotsINS_15single_threadedEED2Ev, @function
_ZN7sigslot9has_slotsINS_15single_threadedEED2Ev:
.LFB1616:
	.loc 1 513 0
	.cfi_startproc
	.cfi_personality 0,__gxx_personality_v0
	.cfi_lsda 0,.LLSDA1616
.LVL177:
	mflr 0
	stwu 1,-32(1)
.LCFI38:
	.cfi_def_cfa_offset 32
	.cfi_register 65, 0
.LBB2151:
	.loc 1 516 0
	lis 9,_ZTVN7sigslot9has_slotsINS_15single_threadedEEE+8@ha
.LBE2151:
	.loc 1 513 0
	stw 28,16(1)
	addi 28,3,4
	.cfi_offset 28, -16
	stw 0,36(1)
.LBB2227:
	.loc 1 516 0
	la 0,_ZTVN7sigslot9has_slotsINS_15single_threadedEEE+8@l(9)
	.cfi_offset 65, 4
.LBE2227:
	.loc 1 513 0
	stw 29,20(1)
	mr 29,3
	.cfi_offset 29, -12
	stw 26,8(1)
	stw 27,12(1)
	stw 30,24(1)
	stw 31,28(1)
.LBB2228:
	.loc 1 516 0
	stw 0,0(3)
.LVL178:
.LEHB0:
.LBB2152:
.LBB2153:
.LBB2154:
.LBB2155:
	.loc 1 338 0
	.cfi_offset 31, -4
	.cfi_offset 30, -8
	.cfi_offset 27, -20
	.cfi_offset 26, -24
	bl _ZN7sigslot15single_threaded4lockEv
.LEHE0:
.LVL179:
.LBE2155:
.LBE2154:
.LBB2156:
	.loc 4 138 0
	lwz 31,16(29)
.LVL180:
.LBE2156:
.LBB2157:
.LBB2158:
.LBB2159:
	.loc 6 671 0
	addi 30,28,4
.LVL181:
.LBE2159:
.LBE2158:
.LBE2157:
	.loc 1 524 0
	cmpw 7,31,30
	beq- 7,.L154
.LVL182:
.L181:
	.loc 1 526 0
	lwz 3,16(31)
	mr 4,29
	lwz 9,0(3)
	lwz 0,16(9)
	mtctr 0
.LEHB1:
	bctrl
.LEHE1:
.LVL183:
.LBB2160:
.LBB2161:
	.loc 6 269 0
	mr 3,31
	bl _ZSt18_Rb_tree_incrementPKSt18_Rb_tree_node_base
.LBE2161:
.LBE2160:
	.loc 1 524 0
	cmpw 7,30,3
.LBB2163:
.LBB2162:
	.loc 6 269 0
	mr 31,3
.LVL184:
.LBE2162:
.LBE2163:
	.loc 1 524 0
	bne+ 7,.L181
	lwz 31,16(29)
.LVL185:
.L154:
.LBB2164:
.LBB2165:
.LBB2166:
.LBB2167:
.LBB2168:
.LBB2169:
.LBB2170:
	.loc 6 665 0
	addi 26,28,4
.LBE2170:
.LBE2169:
	.loc 6 1500 0
	cmpw 7,30,26
	beq- 7,.L156
.LVL186:
	.loc 6 1503 0
	cmpw 7,30,31
	bne+ 7,.L183
	b .L157
.LVL187:
.L178:
	.loc 6 277 0
	mr 31,27
.LVL188:
.L183:
.LBB2171:
.LBB2172:
	mr 3,31
	bl _ZSt18_Rb_tree_incrementPKSt18_Rb_tree_node_base
.LBE2172:
.LBE2171:
.LBB2174:
.LBB2175:
.LBB2176:
	.loc 6 1489 0
	mr 4,26
.LBE2176:
.LBE2175:
.LBE2174:
.LBB2185:
.LBB2173:
	.loc 6 277 0
	mr 27,3
.LVL189:
.LBE2173:
.LBE2185:
.LBB2186:
.LBB2183:
.LBB2181:
	.loc 6 1489 0
	mr 3,31
.LVL190:
	bl _ZSt28_Rb_tree_rebalance_for_erasePSt18_Rb_tree_node_baseRS_
.LBB2177:
.LBB2178:
.LBB2179:
.LBB2180:
	.loc 7 98 0
	bl _ZdlPv
.LBE2180:
.LBE2179:
.LBE2178:
.LBE2177:
.LBE2181:
.LBE2183:
.LBE2186:
	.loc 6 1503 0
	cmpw 7,30,27
.LBB2187:
.LBB2184:
.LBB2182:
	.loc 6 1491 0
	lwz 9,20(28)
	addi 0,9,-1
	stw 0,20(28)
.LBE2182:
.LBE2184:
.LBE2187:
	.loc 6 1503 0
	bne+ 7,.L178
.LVL191:
.L157:
.LBE2168:
.LBE2167:
.LBE2166:
.LBE2165:
.LBE2164:
.LBB2196:
.LBB2197:
.LBB2198:
	.loc 1 343 0
	lwz 9,0(29)
	mr 3,29
	lwz 0,12(9)
	mtctr 0
.LEHB2:
	bctrl
.LEHE2:
.LVL192:
.LBE2198:
.LBE2197:
.LBE2196:
.LBE2153:
.LBE2152:
.LBB2205:
.LBB2206:
.LBB2207:
.LBB2208:
.LBB2209:
	.loc 6 639 0
	lwz 4,12(29)
	mr 3,28
	bl _ZNSt8_Rb_treeIPN7sigslot12_signal_baseINS0_15single_threadedEEES4_St9_IdentityIS4_ESt4lessIS4_ESaIS4_EE8_M_eraseEPSt13_Rb_tree_nodeIS4_E
.LVL193:
.LBE2209:
.LBE2208:
.LBE2207:
.LBE2206:
.LBE2205:
.LBB2210:
.LBB2211:
.LBB2212:
	.loc 1 105 0
	lis 9,_ZTVN7sigslot15single_threadedE+8@ha
	la 0,_ZTVN7sigslot15single_threadedE+8@l(9)
.LBE2212:
.LBE2211:
.LBE2210:
.LBE2228:
	.loc 1 516 0
	lwz 26,8(1)
.LBB2229:
.LBB2215:
.LBB2214:
.LBB2213:
	.loc 1 105 0
	stw 0,0(29)
.LBE2213:
.LBE2214:
.LBE2215:
.LBE2229:
	.loc 1 516 0
	lwz 0,36(1)
	lwz 27,12(1)
	mtlr 0
	lwz 28,16(1)
.LVL194:
	lwz 29,20(1)
.LVL195:
	lwz 30,24(1)
.LVL196:
	lwz 31,28(1)
	addi 1,1,32
	.cfi_remember_state
.LCFI39:
	.cfi_def_cfa_offset 0
	.cfi_restore 31
	.cfi_restore 30
	.cfi_restore 29
	.cfi_restore 28
	.cfi_restore 27
	.cfi_restore 26
	blr
.LVL197:
.L156:
.LCFI40:
	.cfi_restore_state
.LBB2230:
.LBB2216:
.LBB2203:
.LBB2199:
.LBB2195:
.LBB2194:
.LBB2193:
.LBB2192:
.LBB2188:
.LBB2189:
.LBB2190:
.LBB2191:
	.loc 6 809 0
	lwz 4,12(29)
	mr 3,28
	bl _ZNSt8_Rb_treeIPN7sigslot12_signal_baseINS0_15single_threadedEEES4_St9_IdentityIS4_ESt4lessIS4_ESaIS4_EE8_M_eraseEPSt13_Rb_tree_nodeIS4_E
.LVL198:
	.loc 6 811 0
	li 0,0
	.loc 6 810 0
	stw 30,16(29)
.LVL199:
	.loc 6 811 0
	stw 0,12(29)
.LVL200:
	.loc 6 812 0
	stw 30,20(29)
	.loc 6 813 0
	stw 0,24(29)
	b .L157
.LVL201:
.L179:
	mr 31,3
.L164:
.LVL202:
.LBE2191:
.LBE2190:
.LBE2189:
.LBE2188:
.LBE2192:
.LBE2193:
.LBE2194:
.LBE2195:
.LBE2199:
.LBE2203:
.LBE2216:
.LBB2217:
.LBB2218:
.LBB2219:
.LBB2220:
.LBB2221:
.LBB2222:
	.loc 6 639 0
	lwz 4,12(29)
	mr 3,28
	bl _ZNSt8_Rb_treeIPN7sigslot12_signal_baseINS0_15single_threadedEEES4_St9_IdentityIS4_ESt4lessIS4_ESaIS4_EE8_M_eraseEPSt13_Rb_tree_nodeIS4_E
.LVL203:
.LBE2222:
.LBE2221:
.LBE2220:
.LBE2219:
.LBE2218:
.LBE2217:
.LBB2223:
.LBB2224:
.LBB2225:
	.loc 1 105 0
	lis 9,_ZTVN7sigslot15single_threadedE+8@ha
	la 0,_ZTVN7sigslot15single_threadedE+8@l(9)
	mr 3,31
	stw 0,0(29)
.LEHB3:
	bl _Unwind_Resume
.LEHE3:
.LVL204:
.L180:
.LBE2225:
.LBE2224:
.LBE2223:
.LBB2226:
.LBB2204:
.LBB2200:
.LBB2201:
.LBB2202:
	.loc 1 343 0
	lwz 9,0(29)
	mr 31,3
.LVL205:
	mr 3,29
	lwz 0,12(9)
	mtctr 0
	bctrl
	b .L164
.LBE2202:
.LBE2201:
.LBE2200:
.LBE2204:
.LBE2226:
.LBE2230:
	.cfi_endproc
.LFE1616:
	.globl __gxx_personality_v0
	.section	.gcc_except_table,"a",@progbits
.LLSDA1616:
	.byte	0xff
	.byte	0xff
	.byte	0x1
	.uleb128 .LLSDACSE1616-.LLSDACSB1616
.LLSDACSB1616:
	.uleb128 .LEHB0-.LFB1616
	.uleb128 .LEHE0-.LEHB0
	.uleb128 .L179-.LFB1616
	.uleb128 0
	.uleb128 .LEHB1-.LFB1616
	.uleb128 .LEHE1-.LEHB1
	.uleb128 .L180-.LFB1616
	.uleb128 0
	.uleb128 .LEHB2-.LFB1616
	.uleb128 .LEHE2-.LEHB2
	.uleb128 .L179-.LFB1616
	.uleb128 0
	.uleb128 .LEHB3-.LFB1616
	.uleb128 .LEHE3-.LEHB3
	.uleb128 0
	.uleb128 0
.LLSDACSE1616:
	.section	.text._ZN7sigslot9has_slotsINS_15single_threadedEED2Ev,"axG",@progbits,_ZN7sigslot9has_slotsINS_15single_threadedEED5Ev,comdat
	.size	_ZN7sigslot9has_slotsINS_15single_threadedEED2Ev, .-_ZN7sigslot9has_slotsINS_15single_threadedEED2Ev
	.section	".text"
	.align 2
	.globl _ZThn176_N16ThemeInfosWindowD1Ev
	.type	_ZThn176_N16ThemeInfosWindowD1Ev, @function
_ZThn176_N16ThemeInfosWindowD1Ev:
.LFB2119:
	.cfi_startproc
	addi 3,3,-176
	b .LTHUNK0
	.cfi_endproc
.LFE2119:
	.size	_ZThn176_N16ThemeInfosWindowD1Ev, .-_ZThn176_N16ThemeInfosWindowD1Ev
	.align 2
	.globl _ZN16ThemeInfosWindowD2Ev
	.type	_ZN16ThemeInfosWindowD2Ev, @function
_ZN16ThemeInfosWindowD2Ev:
.LFB1579:
	.loc 4 104 0
	.cfi_startproc
	.cfi_personality 0,__gxx_personality_v0
	.cfi_lsda 0,.LLSDA1579
.LVL206:
	mflr 0
	stwu 1,-24(1)
.LCFI41:
	.cfi_def_cfa_offset 24
	.cfi_register 65, 0
.LBB2325:
	lis 9,_ZTV16ThemeInfosWindow+8@ha
	la 9,_ZTV16ThemeInfosWindow+8@l(9)
.LBE2325:
	stw 30,16(1)
	stw 0,28(1)
.LBB2415:
	addi 0,9,228
	.cfi_offset 65, 4
	.cfi_offset 30, -8
.LBE2415:
	stw 28,8(1)
	mr 30,3
	stw 29,12(1)
	stw 31,20(1)
.LBB2416:
	.loc 4 104 0
	stw 9,0(3)
	stw 0,176(3)
.LEHB4:
	.loc 4 106 0
	.cfi_offset 31, -4
	.cfi_offset 29, -12
	.cfi_offset 28, -16
	bl _ZN8GuiFrame9RemoveAllEv
.LVL207:
	.loc 4 108 0
	lwz 3,208(30)
	cmpwi 7,3,0
	beq- 7,.L186
	.loc 4 108 0 is_stmt 0 discriminator 1
	lwz 9,0(3)
	lwz 0,4(9)
	mtctr 0
	bctrl
.L186:
	.loc 4 109 0 is_stmt 1
	lwz 3,212(30)
	cmpwi 7,3,0
	beq- 7,.L187
	.loc 4 109 0 is_stmt 0 discriminator 1
	lwz 9,0(3)
	lwz 0,4(9)
	mtctr 0
	bctrl
.L187:
	.loc 4 111 0 is_stmt 1
	lwz 3,220(30)
	cmpwi 7,3,0
	beq- 7,.L188
	.loc 4 111 0 is_stmt 0 discriminator 1
	lwz 9,0(3)
	lwz 0,4(9)
	mtctr 0
	bctrl
.L188:
	.loc 4 113 0 is_stmt 1
	lwz 3,216(30)
	bl _ZN9Resources6RemoveEP12GuiImageData
	.loc 4 115 0
	lwz 3,228(30)
	bl _ZN9Resources6RemoveEP8GuiSound
	.loc 4 116 0
	lwz 3,224(30)
	bl _ZN9Resources6RemoveEP8GuiSound
	.loc 4 118 0
	lwz 3,232(30)
	cmpwi 7,3,0
	beq- 7,.L189
	.loc 4 118 0 is_stmt 0 discriminator 1
	lwz 9,0(3)
	lwz 0,4(9)
	mtctr 0
	bctrl
.L189:
	.loc 4 119 0 is_stmt 1
	lwz 3,236(30)
	cmpwi 7,3,0
	beq- 7,.L190
	.loc 4 119 0 is_stmt 0 discriminator 1
	lwz 9,0(3)
	lwz 0,4(9)
	mtctr 0
	bctrl
.L190:
	.loc 4 120 0 is_stmt 1
	lwz 3,240(30)
	cmpwi 7,3,0
	beq- 7,.L191
	.loc 4 120 0 is_stmt 0 discriminator 1
	lwz 9,0(3)
	lwz 0,4(9)
	mtctr 0
	bctrl
.L191:
	.loc 4 121 0 is_stmt 1
	lwz 3,244(30)
	cmpwi 7,3,0
	beq- 7,.L192
	.loc 4 121 0 is_stmt 0 discriminator 1
	lwz 9,0(3)
	lwz 0,4(9)
	mtctr 0
	bctrl
.L192:
	.loc 4 122 0 is_stmt 1
	lwz 3,248(30)
	cmpwi 7,3,0
	beq- 7,.L193
	.loc 4 122 0 is_stmt 0 discriminator 1
	lwz 9,0(3)
	lwz 0,4(9)
	mtctr 0
	bctrl
.L193:
	.loc 4 123 0 is_stmt 1
	lwz 3,252(30)
	cmpwi 7,3,0
	beq- 7,.L194
	.loc 4 123 0 is_stmt 0 discriminator 1
	lwz 9,0(3)
	lwz 0,4(9)
	mtctr 0
	bctrl
.L194:
	.loc 4 125 0 is_stmt 1
	lwz 3,256(30)
	cmpwi 7,3,0
	beq- 7,.L195
	.loc 4 125 0 is_stmt 0 discriminator 1
	lwz 9,0(3)
	lwz 0,4(9)
	mtctr 0
	bctrl
.L195:
	.loc 4 126 0 is_stmt 1
	lwz 3,260(30)
	cmpwi 7,3,0
	beq- 7,.L196
	.loc 4 126 0 is_stmt 0 discriminator 1
	lwz 9,0(3)
	lwz 0,4(9)
	mtctr 0
	bctrl
.L196:
	.loc 4 128 0 is_stmt 1
	lwz 3,264(30)
	cmpwi 7,3,0
	beq- 7,.L197
	.loc 4 128 0 is_stmt 0 discriminator 1
	lwz 9,0(3)
	lwz 0,4(9)
	mtctr 0
	bctrl
.L197:
	.loc 4 129 0 is_stmt 1
	lwz 3,268(30)
	cmpwi 7,3,0
	beq- 7,.L198
	.loc 4 129 0 is_stmt 0 discriminator 1
	lwz 9,0(3)
	lwz 0,4(9)
	mtctr 0
	bctrl
.LEHE4:
.L198:
.LBB2326:
.LBB2327:
.LBB2328:
	.loc 1 516 0 is_stmt 1
	lis 9,_ZTVN7sigslot9has_slotsINS_15single_threadedEEE+8@ha
.LBE2328:
.LBE2327:
.LBE2326:
	.loc 4 104 0
	addi 28,30,176
.LVL208:
.LBB2412:
.LBB2409:
.LBB2406:
	.loc 1 516 0
	la 0,_ZTVN7sigslot9has_slotsINS_15single_threadedEEE+8@l(9)
.LBB2329:
.LBB2330:
.LBB2331:
.LBB2332:
	.loc 1 338 0
	mr 3,28
.LBE2332:
.LBE2331:
.LBE2330:
.LBE2329:
	.loc 1 516 0
	stw 0,176(30)
.LVL209:
	addi 31,30,180
.LEHB5:
.LBB2384:
.LBB2382:
.LBB2334:
.LBB2333:
	.loc 1 338 0
	bl _ZN7sigslot15single_threaded4lockEv
.LEHE5:
.LVL210:
.LBE2333:
.LBE2334:
.LBB2335:
	.loc 4 138 0
	lwz 31,192(30)
.LVL211:
.LBE2335:
.LBB2336:
.LBB2337:
.LBB2338:
	.loc 6 671 0
	addi 29,30,184
.LVL212:
.LBE2338:
.LBE2337:
.LBE2336:
	.loc 1 524 0
	cmpw 7,31,29
	beq- 7,.L199
.LVL213:
.L230:
	.loc 1 526 0
	lwz 3,16(31)
	mr 4,28
	lwz 9,0(3)
	lwz 0,16(9)
	mtctr 0
.LEHB6:
	bctrl
.LEHE6:
.LVL214:
.LBB2339:
.LBB2340:
	.loc 6 269 0
	mr 3,31
	bl _ZSt18_Rb_tree_incrementPKSt18_Rb_tree_node_base
.LBE2340:
.LBE2339:
	.loc 1 524 0
	cmpw 7,29,3
.LBB2342:
.LBB2341:
	.loc 6 269 0
	mr 31,3
.LVL215:
.LBE2341:
.LBE2342:
	.loc 1 524 0
	bne+ 7,.L230
.LVL216:
.L199:
.LBB2343:
.LBB2344:
	.file 8 "d:\\devkitpro\\devkitppc\\bin\\../lib/gcc/powerpc-eabi/4.6.3/../../../../powerpc-eabi/include/c++/4.6.3/bits/stl_set.h"
	.loc 8 562 0
	addi 31,30,180
.LVL217:
.LBB2345:
.LBB2346:
.LBB2347:
.LBB2348:
.LBB2349:
.LBB2350:
.LBB2351:
	.loc 6 809 0
	lwz 4,188(30)
	mr 3,31
	bl _ZNSt8_Rb_treeIPN7sigslot12_signal_baseINS0_15single_threadedEEES4_St9_IdentityIS4_ESt4lessIS4_ESaIS4_EE8_M_eraseEPSt13_Rb_tree_nodeIS4_E
.LVL218:
	.loc 6 811 0
	li 0,0
	.loc 6 810 0
	stw 29,192(30)
.LVL219:
.LBE2351:
.LBE2350:
.LBE2349:
.LBE2348:
.LBE2347:
.LBE2346:
.LBE2345:
.LBE2344:
.LBE2343:
.LBB2368:
.LBB2369:
.LBB2370:
	.loc 1 343 0
	mr 3,28
.LBE2370:
.LBE2369:
.LBE2368:
.LBB2375:
.LBB2366:
.LBB2364:
.LBB2362:
.LBB2360:
.LBB2358:
.LBB2356:
.LBB2354:
.LBB2352:
	.loc 6 811 0
	stw 0,188(30)
.LVL220:
	.loc 6 812 0
	stw 29,196(30)
.LBE2352:
.LBE2354:
.LBE2356:
.LBE2358:
.LBE2360:
.LBE2362:
.LBE2364:
.LBE2366:
.LBE2375:
.LBB2376:
.LBB2373:
.LBB2371:
	.loc 1 343 0
	lwz 9,176(30)
.LBE2371:
.LBE2373:
.LBE2376:
.LBB2377:
.LBB2367:
.LBB2365:
.LBB2363:
.LBB2361:
.LBB2359:
.LBB2357:
.LBB2355:
.LBB2353:
	.loc 6 813 0
	stw 0,200(30)
.LVL221:
.LBE2353:
.LBE2355:
.LBE2357:
.LBE2359:
.LBE2361:
.LBE2363:
.LBE2365:
.LBE2367:
.LBE2377:
.LBB2378:
.LBB2374:
.LBB2372:
	.loc 1 343 0
	lwz 0,12(9)
	mtctr 0
.LEHB7:
	bctrl
.LEHE7:
.LVL222:
.LBE2372:
.LBE2374:
.LBE2378:
.LBE2382:
.LBE2384:
.LBB2385:
.LBB2386:
.LBB2387:
.LBB2388:
.LBB2389:
	.loc 6 639 0
	lwz 4,188(30)
	mr 3,31
	bl _ZNSt8_Rb_treeIPN7sigslot12_signal_baseINS0_15single_threadedEEES4_St9_IdentityIS4_ESt4lessIS4_ESaIS4_EE8_M_eraseEPSt13_Rb_tree_nodeIS4_E
.LBE2389:
.LBE2388:
.LBE2387:
.LBE2386:
.LBE2385:
.LBB2390:
.LBB2391:
.LBB2392:
	.loc 1 105 0
	lis 9,_ZTVN7sigslot15single_threadedE+8@ha
	la 0,_ZTVN7sigslot15single_threadedE+8@l(9)
.LBE2392:
.LBE2391:
.LBE2390:
.LBE2406:
.LBE2409:
.LBE2412:
	.loc 4 104 0
	mr 3,30
.LBB2413:
.LBB2410:
.LBB2407:
.LBB2395:
.LBB2394:
.LBB2393:
	.loc 1 105 0
	stw 0,176(30)
.LEHB8:
.LBE2393:
.LBE2394:
.LBE2395:
.LBE2407:
.LBE2410:
.LBE2413:
	.loc 4 104 0
	bl _ZN8GuiFrameD2Ev
.LEHE8:
.LBE2416:
	.loc 4 130 0
	lwz 0,28(1)
	lwz 28,8(1)
.LVL223:
	mtlr 0
	lwz 29,12(1)
.LVL224:
	lwz 30,16(1)
.LVL225:
	lwz 31,20(1)
.LVL226:
	addi 1,1,24
	.cfi_remember_state
.LCFI42:
	.cfi_def_cfa_offset 0
	.cfi_restore 31
	.cfi_restore 30
	.cfi_restore 29
	.cfi_restore 28
	blr
.LVL227:
.L227:
.LCFI43:
	.cfi_restore_state
	mr 29,3
.LBB2417:
	.loc 4 104 0
	addi 3,30,176
	bl _ZN7sigslot9has_slotsINS_15single_threadedEED2Ev
.L222:
	mr 3,30
	bl _ZN8GuiFrameD2Ev
	mr 3,29
.LEHB9:
	bl _Unwind_Resume
.LEHE9:
.LVL228:
.L229:
.LBB2414:
.LBB2411:
.LBB2408:
.LBB2396:
.LBB2383:
.LBB2379:
.LBB2380:
.LBB2381:
	.loc 1 343 0
	lwz 9,176(30)
	mr 29,3
.LVL229:
	mr 3,28
	addi 31,30,180
.LVL230:
	lwz 0,12(9)
	mtctr 0
	bctrl
.LVL231:
.L209:
.LBE2381:
.LBE2380:
.LBE2379:
.LBE2383:
.LBE2396:
.LBB2397:
.LBB2398:
.LBB2399:
.LBB2400:
.LBB2401:
.LBB2402:
	.loc 6 639 0
	lwz 4,188(30)
	mr 3,31
	bl _ZNSt8_Rb_treeIPN7sigslot12_signal_baseINS0_15single_threadedEEES4_St9_IdentityIS4_ESt4lessIS4_ESaIS4_EE8_M_eraseEPSt13_Rb_tree_nodeIS4_E
.LBE2402:
.LBE2401:
.LBE2400:
.LBE2399:
.LBE2398:
.LBE2397:
.LBB2403:
.LBB2404:
.LBB2405:
	.loc 1 105 0
	lis 9,_ZTVN7sigslot15single_threadedE+8@ha
	la 0,_ZTVN7sigslot15single_threadedE+8@l(9)
	stw 0,176(30)
	b .L222
.LVL232:
.L228:
	mr 29,3
	b .L209
.LBE2405:
.LBE2404:
.LBE2403:
.LBE2408:
.LBE2411:
.LBE2414:
.LBE2417:
	.cfi_endproc
.LFE1579:
	.section	.gcc_except_table
.LLSDA1579:
	.byte	0xff
	.byte	0xff
	.byte	0x1
	.uleb128 .LLSDACSE1579-.LLSDACSB1579
.LLSDACSB1579:
	.uleb128 .LEHB4-.LFB1579
	.uleb128 .LEHE4-.LEHB4
	.uleb128 .L227-.LFB1579
	.uleb128 0
	.uleb128 .LEHB5-.LFB1579
	.uleb128 .LEHE5-.LEHB5
	.uleb128 .L228-.LFB1579
	.uleb128 0
	.uleb128 .LEHB6-.LFB1579
	.uleb128 .LEHE6-.LEHB6
	.uleb128 .L229-.LFB1579
	.uleb128 0
	.uleb128 .LEHB7-.LFB1579
	.uleb128 .LEHE7-.LEHB7
	.uleb128 .L228-.LFB1579
	.uleb128 0
	.uleb128 .LEHB8-.LFB1579
	.uleb128 .LEHE8-.LEHB8
	.uleb128 0
	.uleb128 0
	.uleb128 .LEHB9-.LFB1579
	.uleb128 .LEHE9-.LEHB9
	.uleb128 0
	.uleb128 0
.LLSDACSE1579:
	.section	".text"
	.size	_ZN16ThemeInfosWindowD2Ev, .-_ZN16ThemeInfosWindowD2Ev
	.align 2
	.globl _ZThn176_N16ThemeInfosWindowD0Ev
	.type	_ZThn176_N16ThemeInfosWindowD0Ev, @function
_ZThn176_N16ThemeInfosWindowD0Ev:
.LFB2120:
	.cfi_startproc
	addi 3,3,-176
	b .LTHUNK1
	.cfi_endproc
.LFE2120:
	.size	_ZThn176_N16ThemeInfosWindowD0Ev, .-_ZThn176_N16ThemeInfosWindowD0Ev
	.align 2
	.globl _ZN16ThemeInfosWindowD0Ev
	.type	_ZN16ThemeInfosWindowD0Ev, @function
_ZN16ThemeInfosWindowD0Ev:
.LFB1581:
	.loc 4 104 0
	.cfi_startproc
.LVL233:
	stwu 1,-16(1)
.LCFI44:
	.cfi_def_cfa_offset 16
	mflr 0
	stw 31,12(1)
	mr 31,3
	.cfi_offset 31, -4
	.cfi_register 65, 0
	stw 0,20(1)
	.loc 4 130 0
	.cfi_offset 65, 4
	bl _ZN16ThemeInfosWindowD1Ev
.LVL234:
	mr 3,31
	bl _ZdlPv
	lwz 0,20(1)
	lwz 31,12(1)
.LVL235:
	mtlr 0
	addi 1,1,16
.LCFI45:
	.cfi_def_cfa_offset 0
	.cfi_restore 31
	blr
	.cfi_endproc
.LFE1581:
	.size	_ZN16ThemeInfosWindowD0Ev, .-_ZN16ThemeInfosWindowD0Ev
	.section	.text._ZN7sigslot9has_slotsINS_15single_threadedEED0Ev,"axG",@progbits,_ZN7sigslot9has_slotsINS_15single_threadedEED5Ev,comdat
	.align 2
	.weak	_ZN7sigslot9has_slotsINS_15single_threadedEED0Ev
	.type	_ZN7sigslot9has_slotsINS_15single_threadedEED0Ev, @function
_ZN7sigslot9has_slotsINS_15single_threadedEED0Ev:
.LFB1618:
	.loc 1 513 0
	.cfi_startproc
	.cfi_personality 0,__gxx_personality_v0
	.cfi_lsda 0,.LLSDA1618
.LVL236:
	mflr 0
	stwu 1,-32(1)
.LCFI46:
	.cfi_def_cfa_offset 32
	.cfi_register 65, 0
.LBB2511:
.LBB2512:
.LBB2513:
	.loc 1 516 0
	lis 9,_ZTVN7sigslot9has_slotsINS_15single_threadedEEE+8@ha
.LBE2513:
.LBE2512:
.LBE2511:
	.loc 1 513 0
	stw 28,16(1)
	addi 28,3,4
	.cfi_offset 28, -16
	stw 0,36(1)
.LBB2597:
.LBB2593:
.LBB2589:
	.loc 1 516 0
	la 0,_ZTVN7sigslot9has_slotsINS_15single_threadedEEE+8@l(9)
	.cfi_offset 65, 4
.LBE2589:
.LBE2593:
.LBE2597:
	.loc 1 513 0
	stw 29,20(1)
	mr 29,3
	.cfi_offset 29, -12
.LVL237:
	stw 26,8(1)
	stw 27,12(1)
	stw 30,24(1)
	stw 31,28(1)
.LBB2598:
.LBB2594:
.LBB2590:
	.loc 1 516 0
	stw 0,0(3)
.LVL238:
.LEHB10:
.LBB2514:
.LBB2515:
.LBB2516:
.LBB2517:
	.loc 1 338 0
	.cfi_offset 31, -4
	.cfi_offset 30, -8
	.cfi_offset 27, -20
	.cfi_offset 26, -24
	bl _ZN7sigslot15single_threaded4lockEv
.LEHE10:
.LVL239:
.LBE2517:
.LBE2516:
.LBB2518:
	.loc 4 138 0
	lwz 31,16(29)
.LVL240:
.LBE2518:
.LBB2519:
.LBB2520:
.LBB2521:
	.loc 6 671 0
	addi 30,28,4
.LVL241:
.LBE2521:
.LBE2520:
.LBE2519:
	.loc 1 524 0
	cmpw 7,31,30
	beq- 7,.L236
.LVL242:
.L264:
	.loc 1 526 0
	lwz 3,16(31)
	mr 4,29
	lwz 9,0(3)
	lwz 0,16(9)
	mtctr 0
.LEHB11:
	bctrl
.LEHE11:
.LVL243:
.LBB2522:
.LBB2523:
	.loc 6 269 0
	mr 3,31
	bl _ZSt18_Rb_tree_incrementPKSt18_Rb_tree_node_base
.LBE2523:
.LBE2522:
	.loc 1 524 0
	cmpw 7,30,3
.LBB2525:
.LBB2524:
	.loc 6 269 0
	mr 31,3
.LVL244:
.LBE2524:
.LBE2525:
	.loc 1 524 0
	bne+ 7,.L264
	lwz 31,16(29)
.LVL245:
.L236:
.LBB2526:
.LBB2527:
.LBB2528:
.LBB2529:
.LBB2530:
.LBB2531:
.LBB2532:
	.loc 6 665 0
	addi 26,28,4
.LBE2532:
.LBE2531:
	.loc 6 1500 0
	cmpw 7,30,26
	beq- 7,.L238
.LVL246:
	.loc 6 1503 0
	cmpw 7,30,31
	bne+ 7,.L266
	b .L239
.LVL247:
.L261:
	.loc 6 277 0
	mr 31,27
.LVL248:
.L266:
.LBB2533:
.LBB2534:
	mr 3,31
	bl _ZSt18_Rb_tree_incrementPKSt18_Rb_tree_node_base
.LBE2534:
.LBE2533:
.LBB2536:
.LBB2537:
.LBB2538:
	.loc 6 1489 0
	mr 4,26
.LBE2538:
.LBE2537:
.LBE2536:
.LBB2547:
.LBB2535:
	.loc 6 277 0
	mr 27,3
.LVL249:
.LBE2535:
.LBE2547:
.LBB2548:
.LBB2545:
.LBB2543:
	.loc 6 1489 0
	mr 3,31
.LVL250:
	bl _ZSt28_Rb_tree_rebalance_for_erasePSt18_Rb_tree_node_baseRS_
.LBB2539:
.LBB2540:
.LBB2541:
.LBB2542:
	.loc 7 98 0
	bl _ZdlPv
.LBE2542:
.LBE2541:
.LBE2540:
.LBE2539:
.LBE2543:
.LBE2545:
.LBE2548:
	.loc 6 1503 0
	cmpw 7,30,27
.LBB2549:
.LBB2546:
.LBB2544:
	.loc 6 1491 0
	lwz 9,20(28)
	addi 0,9,-1
	stw 0,20(28)
.LBE2544:
.LBE2546:
.LBE2549:
	.loc 6 1503 0
	bne+ 7,.L261
.LVL251:
.L239:
.LBE2530:
.LBE2529:
.LBE2528:
.LBE2527:
.LBE2526:
.LBB2558:
.LBB2559:
.LBB2560:
	.loc 1 343 0
	lwz 9,0(29)
	mr 3,29
	lwz 0,12(9)
	mtctr 0
.LEHB12:
	bctrl
.LEHE12:
.LVL252:
.LBE2560:
.LBE2559:
.LBE2558:
.LBE2515:
.LBE2514:
.LBB2567:
.LBB2568:
.LBB2569:
.LBB2570:
.LBB2571:
	.loc 6 639 0
	lwz 4,12(29)
	mr 3,28
	bl _ZNSt8_Rb_treeIPN7sigslot12_signal_baseINS0_15single_threadedEEES4_St9_IdentityIS4_ESt4lessIS4_ESaIS4_EE8_M_eraseEPSt13_Rb_tree_nodeIS4_E
.LVL253:
.LBE2571:
.LBE2570:
.LBE2569:
.LBE2568:
.LBE2567:
.LBB2572:
.LBB2573:
.LBB2574:
	.loc 1 105 0
	lis 9,_ZTVN7sigslot15single_threadedE+8@ha
	la 0,_ZTVN7sigslot15single_threadedE+8@l(9)
.LBE2574:
.LBE2573:
.LBE2572:
.LBE2590:
.LBE2594:
.LBE2598:
	.loc 1 516 0
	mr 3,29
.LBB2599:
.LBB2595:
.LBB2591:
.LBB2577:
.LBB2576:
.LBB2575:
	.loc 1 105 0
	stw 0,0(29)
.LBE2575:
.LBE2576:
.LBE2577:
.LBE2591:
.LBE2595:
.LBE2599:
	.loc 1 516 0
	bl _ZdlPv
	lwz 0,36(1)
	lwz 26,8(1)
	mtlr 0
	lwz 27,12(1)
	lwz 28,16(1)
.LVL254:
	lwz 29,20(1)
.LVL255:
	lwz 30,24(1)
.LVL256:
	lwz 31,28(1)
	addi 1,1,32
	.cfi_remember_state
.LCFI47:
	.cfi_def_cfa_offset 0
	.cfi_restore 31
	.cfi_restore 30
	.cfi_restore 29
	.cfi_restore 28
	.cfi_restore 27
	.cfi_restore 26
	blr
.LVL257:
.L238:
.LCFI48:
	.cfi_restore_state
.LBB2600:
.LBB2596:
.LBB2592:
.LBB2578:
.LBB2565:
.LBB2561:
.LBB2557:
.LBB2556:
.LBB2555:
.LBB2554:
.LBB2550:
.LBB2551:
.LBB2552:
.LBB2553:
	.loc 6 809 0
	lwz 4,12(29)
	mr 3,28
	bl _ZNSt8_Rb_treeIPN7sigslot12_signal_baseINS0_15single_threadedEEES4_St9_IdentityIS4_ESt4lessIS4_ESaIS4_EE8_M_eraseEPSt13_Rb_tree_nodeIS4_E
.LVL258:
	.loc 6 811 0
	li 0,0
	.loc 6 810 0
	stw 30,16(29)
.LVL259:
	.loc 6 811 0
	stw 0,12(29)
.LVL260:
	.loc 6 812 0
	stw 30,20(29)
	.loc 6 813 0
	stw 0,24(29)
	b .L239
.LVL261:
.L262:
	mr 31,3
.L246:
.LVL262:
.LBE2553:
.LBE2552:
.LBE2551:
.LBE2550:
.LBE2554:
.LBE2555:
.LBE2556:
.LBE2557:
.LBE2561:
.LBE2565:
.LBE2578:
.LBB2579:
.LBB2580:
.LBB2581:
.LBB2582:
.LBB2583:
.LBB2584:
	.loc 6 639 0
	lwz 4,12(29)
	mr 3,28
	bl _ZNSt8_Rb_treeIPN7sigslot12_signal_baseINS0_15single_threadedEEES4_St9_IdentityIS4_ESt4lessIS4_ESaIS4_EE8_M_eraseEPSt13_Rb_tree_nodeIS4_E
.LVL263:
.LBE2584:
.LBE2583:
.LBE2582:
.LBE2581:
.LBE2580:
.LBE2579:
.LBB2585:
.LBB2586:
.LBB2587:
	.loc 1 105 0
	lis 9,_ZTVN7sigslot15single_threadedE+8@ha
	la 0,_ZTVN7sigslot15single_threadedE+8@l(9)
	mr 3,31
	stw 0,0(29)
.LEHB13:
	bl _Unwind_Resume
.LEHE13:
.LVL264:
.L263:
.LBE2587:
.LBE2586:
.LBE2585:
.LBB2588:
.LBB2566:
.LBB2562:
.LBB2563:
.LBB2564:
	.loc 1 343 0
	lwz 9,0(29)
	mr 31,3
.LVL265:
	mr 3,29
	lwz 0,12(9)
	mtctr 0
	bctrl
	b .L246
.LBE2564:
.LBE2563:
.LBE2562:
.LBE2566:
.LBE2588:
.LBE2592:
.LBE2596:
.LBE2600:
	.cfi_endproc
.LFE1618:
	.section	.gcc_except_table
.LLSDA1618:
	.byte	0xff
	.byte	0xff
	.byte	0x1
	.uleb128 .LLSDACSE1618-.LLSDACSB1618
.LLSDACSB1618:
	.uleb128 .LEHB10-.LFB1618
	.uleb128 .LEHE10-.LEHB10
	.uleb128 .L262-.LFB1618
	.uleb128 0
	.uleb128 .LEHB11-.LFB1618
	.uleb128 .LEHE11-.LEHB11
	.uleb128 .L263-.LFB1618
	.uleb128 0
	.uleb128 .LEHB12-.LFB1618
	.uleb128 .LEHE12-.LEHB12
	.uleb128 .L262-.LFB1618
	.uleb128 0
	.uleb128 .LEHB13-.LFB1618
	.uleb128 .LEHE13-.LEHB13
	.uleb128 0
	.uleb128 0
.LLSDACSE1618:
	.section	.text._ZN7sigslot9has_slotsINS_15single_threadedEED0Ev,"axG",@progbits,_ZN7sigslot9has_slotsINS_15single_threadedEED5Ev,comdat
	.size	_ZN7sigslot9has_slotsINS_15single_threadedEED0Ev, .-_ZN7sigslot9has_slotsINS_15single_threadedEED0Ev
	.section	.text._ZNSt8_Rb_treeIPN7sigslot12_signal_baseINS0_15single_threadedEEES4_St9_IdentityIS4_ESt4lessIS4_ESaIS4_EE16_M_insert_uniqueERKS4_,"axG",@progbits,_ZNSt8_Rb_treeIPN7sigslot12_signal_baseINS0_15single_threadedEEES4_St9_IdentityIS4_ESt4lessIS4_ESaIS4_EE16_M_insert_uniqueERKS4_,comdat
	.align 2
	.weak	_ZNSt8_Rb_treeIPN7sigslot12_signal_baseINS0_15single_threadedEEES4_St9_IdentityIS4_ESt4lessIS4_ESaIS4_EE16_M_insert_uniqueERKS4_
	.type	_ZNSt8_Rb_treeIPN7sigslot12_signal_baseINS0_15single_threadedEEES4_St9_IdentityIS4_ESt4lessIS4_ESaIS4_EE16_M_insert_uniqueERKS4_, @function
_ZNSt8_Rb_treeIPN7sigslot12_signal_baseINS0_15single_threadedEEES4_St9_IdentityIS4_ESt4lessIS4_ESaIS4_EE16_M_insert_uniqueERKS4_:
.LFB1796:
	.loc 6 1264 0
	.cfi_startproc
.LVL266:
	mflr 0
	stwu 1,-32(1)
.LCFI49:
	.cfi_def_cfa_offset 32
	.cfi_register 65, 0
	stw 28,16(1)
	stw 0,36(1)
	stw 27,12(1)
	mr 27,4
	.cfi_offset 27, -20
	.cfi_offset 65, 4
	.cfi_offset 28, -16
.LBB2640:
.LBB2641:
.LBB2642:
	.loc 4 138 0
	lwz 28,8(3)
.LVL267:
.LBE2642:
.LBE2641:
.LBE2640:
	.loc 6 1264 0
	stw 29,20(1)
.LBB2667:
.LBB2659:
.LBB2655:
	.loc 6 1272 0
	addi 29,3,4
	.cfi_offset 29, -12
.LVL268:
.LBE2655:
.LBE2659:
	.loc 6 1274 0
	cmpwi 7,28,0
.LBE2667:
	.loc 6 1264 0
	stw 31,28(1)
	stw 26,8(1)
	mr 31,3
	.cfi_offset 26, -24
	.cfi_offset 31, -4
	stw 30,24(1)
.LBB2668:
	.loc 6 1274 0
	beq- 7,.L283
	.cfi_offset 30, -8
.LVL269:
	lwz 10,0(4)
	b .L272
.LVL270:
.L291:
	.loc 4 138 0 discriminator 1
	lwz 0,8(28)
.LVL271:
	.loc 6 1274 0 discriminator 1
	cmpwi 7,0,0
	beq- 7,.L290
.LVL272:
.L284:
	.loc 6 1274 0 is_stmt 0
	mr 28,0
.LVL273:
.L272:
	.loc 4 138 0 is_stmt 1
	lwz 9,16(28)
	li 11,1
	.loc 6 1278 0
	cmplw 7,9,10
	bgt- 7,.L291
.LVL274:
	.loc 4 138 0 discriminator 2
	lwz 0,12(28)
	li 11,0
.LVL275:
	.loc 6 1274 0 discriminator 2
	cmpwi 7,0,0
	bne+ 7,.L284
.LVL276:
.L290:
	.loc 6 1281 0
	cmpwi 7,11,0
	mr 3,28
.LVL277:
	bne- 7,.L269
.LVL278:
	.loc 6 1289 0
	cmplw 7,10,9
	bgt- 7,.L292
.LVL279:
.L279:
	.loc 6 1292 0
	li 0,0
	li 4,0
	rlwimi 4,0,24,0,7
.LBE2668:
	.loc 6 1293 0
	lwz 0,36(1)
	lwz 26,8(1)
	mtlr 0
	lwz 27,12(1)
.LVL280:
	lwz 28,16(1)
	lwz 29,20(1)
	lwz 30,24(1)
	lwz 31,28(1)
.LVL281:
	addi 1,1,32
	.cfi_remember_state
.LCFI50:
	.cfi_def_cfa_offset 0
	.cfi_restore 31
	.cfi_restore 30
	.cfi_restore 29
	.cfi_restore 28
	.cfi_restore 27
	.cfi_restore 26
	blr
.LVL282:
.L283:
.LCFI51:
	.cfi_restore_state
.LBB2669:
	.loc 6 1272 0
	mr 28,29
.LVL283:
.L269:
	.loc 6 1283 0
	lwz 0,12(31)
	cmpw 7,28,0
	beq- 7,.L293
.LVL284:
.LBB2660:
.LBB2661:
	.loc 6 203 0
	mr 3,28
	bl _ZSt18_Rb_tree_decrementPSt18_Rb_tree_node_base
.LVL285:
	lwz 10,0(27)
	lwz 9,16(3)
.LVL286:
.LBE2661:
.LBE2660:
	.loc 6 1289 0
	cmplw 7,10,9
	ble+ 7,.L279
.LVL287:
.L292:
.LBB2662:
.LBB2656:
	.loc 6 969 0
	cmpw 7,28,29
	li 26,1
	beq- 7,.L280
.LVL288:
	.loc 6 1264 0
	lwz 26,16(28)
	subfc 26,26,10
	subfe 26,26,26
	neg 26,26
	b .L280
.LVL289:
.L293:
.LBE2656:
.LBE2662:
.LBB2663:
.LBB2664:
	.loc 6 969 0
	cmpw 7,28,29
	li 26,1
	beq- 7,.L280
.LVL290:
	.loc 6 1264 0
	lwz 26,0(27)
	lwz 0,16(28)
.LVL291:
	subfc 26,0,26
	subfe 26,26,26
	neg 26,26
.LVL292:
.L280:
.LBE2664:
.LBE2663:
.LBB2665:
.LBB2657:
.LBB2643:
.LBB2644:
.LBB2645:
.LBB2646:
.LBB2647:
	.loc 7 92 0
	li 3,20
	bl _Znwj
.LBE2647:
.LBE2646:
.LBE2645:
.LBB2650:
.LBB2651:
	.loc 7 108 0
	cmpwi 7,3,-16
.LBE2651:
.LBE2650:
.LBB2653:
.LBB2649:
.LBB2648:
	.loc 7 92 0
	mr 30,3
.LVL293:
.LBE2648:
.LBE2649:
.LBE2653:
.LBB2654:
.LBB2652:
	.loc 7 108 0
	beq- 7,.L282
	lwz 0,0(27)
	stw 0,16(3)
.L282:
.LVL294:
.LBE2652:
.LBE2654:
.LBE2644:
.LBE2643:
	.loc 6 973 0
	mr 3,26
.LVL295:
	mr 4,30
	mr 5,28
	mr 6,29
	bl _ZSt29_Rb_tree_insert_and_rebalancebPSt18_Rb_tree_node_baseS0_RS_
	.loc 6 976 0
	lwz 9,20(31)
	.loc 6 1291 0
	li 4,0
	mr 3,30
	.loc 6 976 0
	addi 0,9,1
.LBE2657:
.LBE2665:
.LBE2669:
	.loc 6 1293 0
	lwz 26,8(1)
.LVL296:
.LBB2670:
.LBB2666:
.LBB2658:
	.loc 6 976 0
	stw 0,20(31)
.LVL297:
	.loc 6 1291 0
	li 0,1
	rlwimi 4,0,24,0,7
.LBE2658:
.LBE2666:
.LBE2670:
	.loc 6 1293 0
	lwz 0,36(1)
	lwz 27,12(1)
.LVL298:
	mtlr 0
	lwz 28,16(1)
	lwz 29,20(1)
	lwz 30,24(1)
.LVL299:
	lwz 31,28(1)
.LVL300:
	addi 1,1,32
	.cfi_restore 26
	.cfi_restore 27
	.cfi_restore 28
	.cfi_restore 29
	.cfi_restore 30
	.cfi_restore 31
.LCFI52:
	.cfi_def_cfa_offset 0
	blr
	.cfi_endproc
.LFE1796:
	.size	_ZNSt8_Rb_treeIPN7sigslot12_signal_baseINS0_15single_threadedEEES4_St9_IdentityIS4_ESt4lessIS4_ESaIS4_EE16_M_insert_uniqueERKS4_, .-_ZNSt8_Rb_treeIPN7sigslot12_signal_baseINS0_15single_threadedEEES4_St9_IdentityIS4_ESt4lessIS4_ESaIS4_EE16_M_insert_uniqueERKS4_
	.section	.text._ZN7sigslot7signal3IP9GuiButtoniRK6_POINTNS_15single_threadedEE7connectI16ThemeInfosWindowEEvPT_MSA_FvS2_iS5_E,"axG",@progbits,_ZN7sigslot7signal3IP9GuiButtoniRK6_POINTNS_15single_threadedEE7connectI16ThemeInfosWindowEEvPT_MSA_FvS2_iS5_E,comdat
	.align 2
	.weak	_ZN7sigslot7signal3IP9GuiButtoniRK6_POINTNS_15single_threadedEE7connectI16ThemeInfosWindowEEvPT_MSA_FvS2_iS5_E
	.type	_ZN7sigslot7signal3IP9GuiButtoniRK6_POINTNS_15single_threadedEE7connectI16ThemeInfosWindowEEvPT_MSA_FvS2_iS5_E, @function
_ZN7sigslot7signal3IP9GuiButtoniRK6_POINTNS_15single_threadedEE7connectI16ThemeInfosWindowEEvPT_MSA_FvS2_iS5_E:
.LFB1619:
	.loc 1 2308 0
	.cfi_startproc
	.cfi_personality 0,__gxx_personality_v0
	.cfi_lsda 0,.LLSDA1619
.LVL301:
	mflr 0
	stwu 1,-48(1)
.LCFI53:
	.cfi_def_cfa_offset 48
	.cfi_register 65, 0
	stw 27,28(1)
	stw 0,52(1)
	stw 30,40(1)
	mr 30,4
	.cfi_offset 30, -8
	.cfi_offset 65, 4
	.cfi_offset 27, -20
.LBB2671:
.LBB2672:
.LBB2673:
	.loc 1 338 0
	lwz 9,0(3)
.LBE2673:
.LBE2672:
.LBE2671:
	.loc 1 2308 0
	stw 31,44(1)
	mr 31,3
	.cfi_offset 31, -4
.LVL302:
.LBB2726:
.LBB2677:
.LBB2674:
	.loc 1 338 0
	lwz 0,8(9)
.LBE2674:
.LBE2677:
.LBE2726:
	.loc 1 2308 0
	stw 28,32(1)
	stw 29,36(1)
.LBB2727:
.LBB2678:
.LBB2675:
	.loc 1 338 0
	mtctr 0
.LBE2675:
.LBE2678:
.LBE2727:
	.loc 1 2308 0
	lwz 27,0(5)
	lwz 28,4(5)
	.cfi_offset 29, -12
	.cfi_offset 28, -16
.LEHB14:
.LBB2728:
.LBB2679:
.LBB2676:
	.loc 1 338 0
	bctrl
.LEHE14:
.LVL303:
.LBE2676:
.LBE2679:
	.loc 1 2314 0
	li 3,16
.LEHB15:
	bl _Znwj
.LBB2680:
.LBB2681:
	.loc 1 1778 0
	lis 9,_ZTVN7sigslot12_connection3I16ThemeInfosWindowP9GuiButtoniRK6_POINTNS_15single_threadedEEE+8@ha
	.loc 1 1779 0
	stw 30,4(3)
	.loc 1 1778 0
	la 0,_ZTVN7sigslot12_connection3I16ThemeInfosWindowP9GuiButtoniRK6_POINTNS_15single_threadedEEE+8@l(9)
	.loc 1 1780 0
	stw 27,8(3)
	.loc 1 1778 0
	stw 0,0(3)
.LBE2681:
.LBE2680:
	.loc 1 2314 0
	mr 29,3
.LVL304:
.LBB2683:
.LBB2682:
	.loc 1 1780 0
	stw 28,12(3)
.LVL305:
.LBE2682:
.LBE2683:
.LBB2684:
.LBB2685:
.LBB2686:
.LBB2687:
.LBB2688:
.LBB2689:
.LBB2690:
.LBB2691:
	.loc 7 92 0
	li 3,12
.LVL306:
	bl _Znwj
.LVL307:
.LBE2691:
.LBE2690:
.LBE2689:
.LBB2692:
.LBB2693:
	.loc 7 108 0 discriminator 1
	cmpwi 7,3,-8
	beq- 7,.L296
	.loc 7 108 0 is_stmt 0
	stw 29,8(3)
.LVL308:
.L296:
.LBE2693:
.LBE2692:
.LBE2688:
.LBE2687:
	.file 9 "d:\\devkitpro\\devkitppc\\bin\\../lib/gcc/powerpc-eabi/4.6.3/../../../../powerpc-eabi/include/c++/4.6.3/bits/stl_list.h"
	.loc 9 1516 0 is_stmt 1
	addi 4,31,4
.LBE2686:
.LBE2685:
.LBE2684:
.LBB2698:
.LBB2699:
	.loc 1 503 0
	addi 29,30,176
.LVL309:
.LBE2699:
.LBE2698:
.LBB2715:
.LBB2696:
.LBB2694:
	.loc 9 1516 0
	bl _ZNSt8__detail15_List_node_base7_M_hookEPS0_
.LVL310:
.LBE2694:
.LBE2696:
.LBE2715:
.LBB2716:
.LBB2712:
.LBB2700:
.LBB2701:
	.loc 1 338 0
	lwz 9,176(30)
.LBE2701:
.LBE2700:
.LBE2712:
.LBE2716:
.LBB2717:
.LBB2697:
.LBB2695:
	.loc 9 1516 0
	stw 31,8(1)
.LVL311:
.LBE2695:
.LBE2697:
.LBE2717:
.LBB2718:
.LBB2713:
.LBB2703:
.LBB2702:
	.loc 1 338 0
	mr 3,29
	lwz 0,8(9)
	mtctr 0
	bctrl
.LEHE15:
.LVL312:
.LBE2702:
.LBE2703:
.LBB2704:
.LBB2705:
	.loc 8 410 0
	addi 3,30,180
	addi 4,1,8
.LEHB16:
	bl _ZNSt8_Rb_treeIPN7sigslot12_signal_baseINS0_15single_threadedEEES4_St9_IdentityIS4_ESt4lessIS4_ESaIS4_EE16_M_insert_uniqueERKS4_
.LEHE16:
.LVL313:
.LBE2705:
.LBE2704:
.LBB2706:
.LBB2707:
.LBB2708:
	.loc 1 343 0
	lwz 9,176(30)
	mr 3,29
	lwz 0,12(9)
	mtctr 0
.LEHB17:
	bctrl
.LEHE17:
.LVL314:
.LBE2708:
.LBE2707:
.LBE2706:
.LBE2713:
.LBE2718:
.LBB2719:
.LBB2720:
.LBB2721:
	lwz 9,0(31)
	mr 3,31
	lwz 0,12(9)
	mtctr 0
.LEHB18:
	bctrl
.LEHE18:
.LBE2721:
.LBE2720:
.LBE2719:
.LBE2728:
	.loc 1 2317 0
	lwz 0,52(1)
	lwz 27,28(1)
.LVL315:
	mtlr 0
	lwz 28,32(1)
.LVL316:
	lwz 29,36(1)
.LVL317:
	lwz 30,40(1)
.LVL318:
	lwz 31,44(1)
.LVL319:
	addi 1,1,48
	.cfi_remember_state
.LCFI54:
	.cfi_def_cfa_offset 0
	.cfi_restore 31
	.cfi_restore 30
	.cfi_restore 29
	.cfi_restore 28
	.cfi_restore 27
	blr
.LVL320:
.L303:
.LCFI55:
	.cfi_restore_state
	mr 30,3
.LVL321:
.L300:
.LBB2729:
.LBB2722:
.LBB2723:
.LBB2724:
	.loc 1 343 0
	lwz 9,0(31)
	mr 3,31
	lwz 0,12(9)
	mtctr 0
	bctrl
	mr 3,30
.LEHB19:
	bl _Unwind_Resume
.LEHE19:
.LVL322:
.L304:
.LBE2724:
.LBE2723:
.LBE2722:
.LBB2725:
.LBB2714:
.LBB2709:
.LBB2710:
.LBB2711:
	lwz 9,176(30)
	mr 30,3
.LVL323:
	mr 3,29
	lwz 0,12(9)
	mtctr 0
	bctrl
	b .L300
.LBE2711:
.LBE2710:
.LBE2709:
.LBE2714:
.LBE2725:
.LBE2729:
	.cfi_endproc
.LFE1619:
	.section	.gcc_except_table
.LLSDA1619:
	.byte	0xff
	.byte	0xff
	.byte	0x1
	.uleb128 .LLSDACSE1619-.LLSDACSB1619
.LLSDACSB1619:
	.uleb128 .LEHB14-.LFB1619
	.uleb128 .LEHE14-.LEHB14
	.uleb128 0
	.uleb128 0
	.uleb128 .LEHB15-.LFB1619
	.uleb128 .LEHE15-.LEHB15
	.uleb128 .L303-.LFB1619
	.uleb128 0
	.uleb128 .LEHB16-.LFB1619
	.uleb128 .LEHE16-.LEHB16
	.uleb128 .L304-.LFB1619
	.uleb128 0
	.uleb128 .LEHB17-.LFB1619
	.uleb128 .LEHE17-.LEHB17
	.uleb128 .L303-.LFB1619
	.uleb128 0
	.uleb128 .LEHB18-.LFB1619
	.uleb128 .LEHE18-.LEHB18
	.uleb128 0
	.uleb128 0
	.uleb128 .LEHB19-.LFB1619
	.uleb128 .LEHE19-.LEHB19
	.uleb128 0
	.uleb128 0
.LLSDACSE1619:
	.section	.text._ZN7sigslot7signal3IP9GuiButtoniRK6_POINTNS_15single_threadedEE7connectI16ThemeInfosWindowEEvPT_MSA_FvS2_iS5_E,"axG",@progbits,_ZN7sigslot7signal3IP9GuiButtoniRK6_POINTNS_15single_threadedEE7connectI16ThemeInfosWindowEEvPT_MSA_FvS2_iS5_E,comdat
	.size	_ZN7sigslot7signal3IP9GuiButtoniRK6_POINTNS_15single_threadedEE7connectI16ThemeInfosWindowEEvPT_MSA_FvS2_iS5_E, .-_ZN7sigslot7signal3IP9GuiButtoniRK6_POINTNS_15single_threadedEE7connectI16ThemeInfosWindowEEvPT_MSA_FvS2_iS5_E
	.section	".text"
	.align 2
	.globl _ZN16ThemeInfosWindowC2EPKcS1_i
	.type	_ZN16ThemeInfosWindowC2EPKcS1_i, @function
_ZN16ThemeInfosWindowC2EPKcS1_i:
.LFB1576:
	.loc 4 27 0
	.cfi_startproc
	.cfi_personality 0,__gxx_personality_v0
	.cfi_lsda 0,.LLSDA1576
.LVL324:
	stwu 1,-368(1)
.LCFI56:
	.cfi_def_cfa_offset 368
	mflr 0
	stw 23,332(1)
	mr 23,6
	.cfi_offset 23, -36
	.cfi_register 65, 0
	stw 24,336(1)
.LBB2730:
	.loc 4 28 0
	li 6,0
.LVL325:
.LBE2730:
	.loc 4 27 0
	stw 28,352(1)
	mr 24,5
	.cfi_offset 28, -16
	.cfi_offset 24, -32
	mr 28,4
.LBB2785:
	.loc 4 28 0
	li 5,0
.LVL326:
	li 4,0
.LVL327:
.LBE2785:
	.loc 4 27 0
	stw 0,372(1)
	stw 31,364(1)
	mr 31,3
	.cfi_offset 31, -4
	.cfi_offset 65, 4
	stw 25,340(1)
	stw 26,344(1)
	stw 27,348(1)
	stw 29,356(1)
	stw 30,360(1)
.LEHB20:
.LBB2786:
	.loc 4 28 0
	.cfi_offset 30, -8
	.cfi_offset 29, -12
	.cfi_offset 27, -20
	.cfi_offset 26, -24
	.cfi_offset 25, -28
	bl _ZN8GuiFrameC2EiiPS_
.LEHE20:
.LVL328:
	lis 9,_ZTV16ThemeInfosWindow+8@ha
.LBB2731:
.LBB2732:
.LBB2733:
.LBB2734:
.LBB2735:
.LBB2736:
	.loc 6 445 0
	li 0,0
.LBE2736:
.LBE2735:
.LBE2734:
.LBE2733:
.LBE2732:
.LBE2731:
	.loc 4 28 0
	la 9,_ZTV16ThemeInfosWindow+8@l(9)
.LBB2761:
.LBB2757:
.LBB2753:
.LBB2749:
.LBB2745:
.LBB2741:
.LBB2737:
.LBB2738:
	.loc 6 459 0
	addi 11,31,184
.LBE2738:
.LBE2737:
.LBE2741:
.LBE2745:
.LBE2749:
.LBE2753:
.LBE2757:
.LBE2761:
	.loc 4 28 0
	addi 10,9,228
.LBB2762:
.LBB2758:
.LBB2754:
.LBB2750:
.LBB2746:
.LBB2742:
	.loc 6 445 0
	stw 0,184(31)
	stw 0,188(31)
.LBE2742:
.LBE2746:
.LBE2750:
.LBE2754:
.LBE2758:
.LBE2762:
.LBB2763:
	.loc 4 33 0
	lis 5,.LC4@ha
.LBE2763:
.LBB2776:
.LBB2759:
.LBB2755:
.LBB2751:
.LBB2747:
.LBB2743:
	.loc 6 445 0
	stw 0,200(31)
.LVL329:
.LBE2743:
.LBE2747:
.LBE2751:
.LBE2755:
.LBE2759:
.LBE2776:
.LBB2777:
	.loc 4 30 0
	li 0,-1
	.loc 4 33 0
	lis 6,Settings+144@ha
.LBE2777:
.LBB2778:
.LBB2760:
.LBB2756:
.LBB2752:
.LBB2748:
.LBB2744:
.LBB2740:
.LBB2739:
	.loc 6 459 0
	stw 11,192(31)
	.loc 6 460 0
	stw 11,196(31)
.LBE2739:
.LBE2740:
.LBE2744:
.LBE2748:
.LBE2752:
.LBE2756:
.LBE2760:
.LBE2778:
.LBB2779:
	.loc 4 33 0
	addi 3,1,8
.LBE2779:
	.loc 4 28 0
	stw 9,0(31)
.LBB2780:
	.loc 4 33 0
	li 4,300
.LBE2780:
	.loc 4 28 0
	stw 10,176(31)
.LBB2781:
	.loc 4 33 0
	la 5,.LC4@l(5)
	.loc 4 30 0
	stw 0,204(31)
	.loc 4 33 0
	la 6,Settings+144@l(6)
	mr 7,28
.LEHB21:
	crxor 6,6,6
	bl snprintf
	.loc 4 34 0
	li 3,24
	bl _Znwj
.LEHE21:
	addi 4,1,8
	mr 30,3
.LEHB22:
	bl _ZN12GuiImageDataC1EPKc
.LEHE22:
	.loc 4 36 0 discriminator 1
	lis 3,.LC5@ha
	.loc 4 34 0 discriminator 1
	stw 30,220(31)
	.loc 4 36 0 discriminator 1
	la 3,.LC5@l(3)
.LEHB23:
	bl _ZN9Resources8GetSoundEPKc
	stw 3,224(31)
	.loc 4 37 0 discriminator 1
	lis 3,.LC6@ha
	la 3,.LC6@l(3)
	bl _ZN9Resources8GetSoundEPKc
	stw 3,228(31)
	.loc 4 39 0 discriminator 1
	li 3,368
	bl _Znwj
.LEHE23:
	lis 30,Settings@ha
	mr 29,3
	la 30,Settings@l(30)
	lhz 26,2616(30)
	lhz 25,2644(30)
	lhz 27,2672(30)
.LVL330:
.LEHB24:
.LBB2764:
.LBB2765:
	.loc 5 95 0 discriminator 1
	bl _ZN10GuiTriggerC2Ev
.LEHE24:
.LVL331:
	.loc 5 95 0 is_stmt 0
	lis 9,_ZTV16SimpleGuiTrigger+8@ha
.LBE2765:
.LBE2764:
	.loc 4 39 0 is_stmt 1
	slwi 5,25,16
.LBB2768:
.LBB2766:
	.loc 5 95 0
	la 0,_ZTV16SimpleGuiTrigger+8@l(9)
	.loc 5 96 0
	mr 3,29
	.loc 5 95 0
	stw 0,0(29)
	.loc 5 96 0
	li 4,-1
	or 5,5,26
	mr 6,27
.LEHB25:
	bl _ZN10GuiTrigger16SetSimpleTriggerEijt
.LEHE25:
.LBE2766:
.LBE2768:
	.loc 4 39 0 discriminator 1
	stw 29,264(31)
	.loc 4 40 0 discriminator 1
	li 3,368
.LEHB26:
	bl _Znwj
.LEHE26:
	mr 29,3
.LVL332:
.LEHB27:
	bl _ZN10GuiTriggerC1Ev
.LEHE27:
	.loc 4 41 0 discriminator 2
	lhz 5,2646(30)
	mr 3,29
	lhz 0,2618(30)
	li 4,-1
	slwi 5,5,16
	.loc 4 40 0 discriminator 2
	stw 29,268(31)
	.loc 4 41 0 discriminator 2
	lhz 6,2674(30)
	or 5,5,0
.LEHB28:
	bl _ZN10GuiTrigger20SetButtonOnlyTriggerEijt
	.loc 4 43 0
	lis 3,.LC7@ha
	la 3,.LC7@l(3)
	bl _ZN9Resources12GetImageDataEPKc
	stw 3,216(31)
	.loc 4 44 0
	li 3,196
	bl _Znwj
.LEHE28:
	.loc 4 44 0 is_stmt 0 discriminator 1
	lwz 4,216(31)
	mr 30,3
.LEHB29:
	bl _ZN8GuiImageC1EP12GuiImageData
.LEHE29:
	stw 30,208(31)
	.loc 4 48 0 is_stmt 1 discriminator 1
	lis 3,.LC8@ha
	.loc 4 45 0 discriminator 1
	lwz 9,216(31)
	.loc 4 48 0 discriminator 1
	la 3,.LC8@l(3)
	.loc 4 138 0 discriminator 1
	lwz 0,12(9)
	.loc 4 45 0 discriminator 1
	stw 0,36(31)
	.loc 4 138 0 discriminator 1
	lwz 0,8(9)
	.loc 4 46 0 discriminator 1
	stw 0,40(31)
.LEHB30:
	.loc 4 48 0 discriminator 1
	bl gettext
	lis 26,.LC9@ha
.LVL333:
	mr 27,3
.LVL334:
	la 26,.LC9@l(26)
	mr 3,26
	bl getThemeColor
	mr 25,3
	li 3,208
	bl _Znwj
.LEHE30:
	.loc 4 48 0 is_stmt 0 discriminator 2
	mr 30,1
	mr 4,27
	stwu 25,312(30)
	li 5,18
	mr 29,3
	mr 6,30
.LEHB31:
	bl _ZN7GuiTextC1EPKci9_gx_color
.LEHE31:
	.loc 4 48 0 discriminator 1
	stw 29,232(31)
	.loc 4 49 0 is_stmt 1 discriminator 1
	mr 3,29
	lwz 9,0(29)
	li 4,17
	lwz 0,180(9)
	mtctr 0
.LEHB32:
	bctrl
	.loc 4 50 0
	lwz 3,232(31)
	li 4,230
	li 5,30
	lwz 9,0(3)
	lwz 0,168(9)
	mtctr 0
	bctrl
	.loc 4 52 0
	mr 3,26
	bl getThemeColor
	mr 27,3
	li 3,208
	bl _Znwj
.LEHE32:
	.loc 4 52 0 is_stmt 0 discriminator 1
	mr 4,28
	li 5,18
	mr 6,30
	mr 29,3
	stw 27,312(1)
.LEHB33:
	bl _ZN7GuiTextC1EPKci9_gx_color
.LEHE33:
	stw 29,236(31)
	.loc 4 53 0 is_stmt 1 discriminator 1
	mr 3,29
	lwz 9,0(29)
	li 4,17
	lwz 0,180(9)
	mtctr 0
.LEHB34:
	bctrl
	.loc 4 54 0
	lwz 3,236(31)
	li 4,230
	li 5,50
	lwz 9,0(3)
	lwz 0,168(9)
	mtctr 0
	bctrl
	.loc 4 55 0
	lwz 4,36(31)
	li 5,0
	lwz 3,236(31)
	addi 4,4,-220
	bl _ZN7GuiText11SetMaxWidthEii
	.loc 4 57 0
	lis 3,.LC10@ha
	la 3,.LC10@l(3)
	bl gettext
	mr 27,3
	mr 3,26
	bl getThemeColor
	.loc 4 57 0 is_stmt 0 discriminator 1
	mr 28,3
.LVL335:
	li 3,208
	bl _Znwj
.LEHE34:
	.loc 4 57 0 discriminator 2
	mr 4,27
	li 5,18
	mr 6,30
	mr 29,3
	stw 28,312(1)
.LEHB35:
	bl _ZN7GuiTextC1EPKci9_gx_color
.LEHE35:
	.loc 4 57 0 discriminator 1
	stw 29,240(31)
	.loc 4 58 0 is_stmt 1 discriminator 1
	mr 3,29
	lwz 9,0(29)
	li 4,17
	lwz 0,180(9)
	mtctr 0
.LEHB36:
	bctrl
	.loc 4 59 0
	lwz 3,240(31)
	li 4,230
	li 5,100
	lwz 9,0(3)
	lwz 0,168(9)
	mtctr 0
	bctrl
	.loc 4 61 0
	mr 3,26
	bl getThemeColor
	mr 28,3
	li 3,208
	bl _Znwj
.LEHE36:
	.loc 4 61 0 is_stmt 0 discriminator 1
	mr 4,24
	li 5,18
	mr 6,30
	mr 29,3
	stw 28,312(1)
.LEHB37:
	bl _ZN7GuiTextC1EPKci9_gx_color
.LEHE37:
	stw 29,244(31)
	.loc 4 62 0 is_stmt 1 discriminator 1
	mr 3,29
	lwz 9,0(29)
	li 4,17
	lwz 0,180(9)
	mtctr 0
.LEHB38:
	bctrl
	.loc 4 63 0
	lwz 3,244(31)
	li 4,230
	li 5,120
	lwz 9,0(3)
	lwz 0,168(9)
	mtctr 0
	bctrl
	.loc 4 64 0
	lwz 4,36(31)
	li 5,1
	lwz 3,244(31)
	addi 4,4,-220
	bl _ZN7GuiText11SetMaxWidthEii
	.loc 4 66 0
	cmpwi 7,23,0
	bne- 7,.L310
	.loc 4 66 0 is_stmt 0 discriminator 1
	lis 3,.LC11@ha
	la 3,.LC11@l(3)
	bl gettext
.L341:
	.loc 4 66 0 discriminator 2
	mr 27,3
	mr 3,26
	bl getThemeColor
	.loc 4 66 0 discriminator 5
	mr 28,3
	li 3,208
	bl _Znwj
.LEHE38:
	.loc 4 66 0 discriminator 6
	mr 4,27
	li 5,22
	mr 6,30
	mr 29,3
	stw 28,312(1)
.LEHB39:
	bl _ZN7GuiTextC1EPKci9_gx_color
.LEHE39:
	.loc 4 66 0 discriminator 1
	stw 29,248(31)
	.loc 4 67 0 is_stmt 1 discriminator 1
	li 3,320
.LEHB40:
	bl _Znwj
.LEHE40:
	lis 28,.LC13@ha
	lwz 6,224(31)
	la 28,.LC13@l(28)
	lwz 7,228(31)
	mr 4,28
	mr 5,28
	mr 29,3
.LEHB41:
	bl _ZN13PictureButtonC1EPKcS1_P8GuiSoundS3_
.LEHE41:
	stw 29,256(31)
	.loc 4 68 0 discriminator 1
	mr 3,29
	lwz 9,0(29)
	li 4,20
	lwz 0,180(9)
	mtctr 0
.LEHB42:
	bctrl
	.loc 4 69 0
	lwz 3,256(31)
	li 4,-5
	li 5,170
	lwz 9,0(3)
	lwz 0,168(9)
	mtctr 0
	bctrl
	.loc 4 70 0
	lwz 3,256(31)
	li 5,0
	lwz 4,248(31)
	bl _ZN9GuiButton8SetLabelEP7GuiTexti
	.loc 4 71 0
	lwz 3,256(31)
	lwz 4,264(31)
	bl _ZN9GuiButton10SetTriggerEP10GuiTrigger
	.loc 4 72 0
	lwz 3,256(31)
	lis 29,.LC14@ha
	lfs 1,.LC14@l(29)
	lwz 9,0(3)
	lwz 0,104(9)
	mtctr 0
	bctrl
	.loc 4 73 0
	lwz 3,256(31)
	lis 27,_ZN16ThemeInfosWindow13OnButtonClickEP9GuiButtoniRK6_POINT@ha
	la 27,_ZN16ThemeInfosWindow13OnButtonClickEP9GuiButtoniRK6_POINT@l(27)
	li 0,0
	addi 3,3,144
	mr 4,31
	addi 5,1,320
	stw 27,320(1)
	stw 0,324(1)
	bl _ZN7sigslot7signal3IP9GuiButtoniRK6_POINTNS_15single_threadedEE7connectI16ThemeInfosWindowEEvPT_MSA_FvS2_iS5_E
	.loc 4 75 0
	lis 3,.LC15@ha
	la 3,.LC15@l(3)
	bl gettext
	mr 25,3
	mr 3,26
	bl getThemeColor
	.loc 4 75 0 is_stmt 0 discriminator 1
	mr 24,3
.LVL336:
	li 3,208
	bl _Znwj
.LEHE42:
	.loc 4 75 0 discriminator 2
	mr 4,25
	li 5,22
	mr 6,30
	mr 26,3
	stw 24,312(1)
.LEHB43:
	bl _ZN7GuiTextC1EPKci9_gx_color
.LEHE43:
	.loc 4 75 0 discriminator 1
	stw 26,252(31)
	.loc 4 76 0 is_stmt 1 discriminator 1
	li 3,320
.LEHB44:
	bl _Znwj
.LEHE44:
	lwz 6,224(31)
	mr 4,28
	lwz 7,228(31)
	mr 5,28
	mr 30,3
.LEHB45:
	bl _ZN13PictureButtonC1EPKcS1_P8GuiSoundS3_
.LEHE45:
	stw 30,260(31)
	.loc 4 77 0 discriminator 1
	mr 3,30
	lwz 9,0(30)
	li 4,20
	lwz 0,180(9)
	mtctr 0
.LEHB46:
	bctrl
	.loc 4 78 0
	lwz 3,260(31)
	li 4,-5
	li 5,220
	lwz 9,0(3)
	lwz 0,168(9)
	mtctr 0
	bctrl
	.loc 4 79 0
	lwz 3,260(31)
	li 5,0
	lwz 4,252(31)
	bl _ZN9GuiButton8SetLabelEP7GuiTexti
	.loc 4 80 0
	lwz 3,260(31)
	lwz 4,264(31)
	bl _ZN9GuiButton10SetTriggerEP10GuiTrigger
	.loc 4 81 0
	lwz 3,260(31)
	lwz 4,268(31)
	bl _ZN9GuiButton10SetTriggerEP10GuiTrigger
	.loc 4 82 0
	lwz 3,260(31)
	lfs 1,.LC14@l(29)
	lwz 9,0(3)
	lwz 0,104(9)
	mtctr 0
	bctrl
	.loc 4 83 0
	lwz 3,260(31)
	li 0,0
	mr 4,31
	addi 5,1,320
	addi 3,3,144
	stw 27,320(1)
	stw 0,324(1)
	bl _ZN7sigslot7signal3IP9GuiButtoniRK6_POINTNS_15single_threadedEE7connectI16ThemeInfosWindowEEvPT_MSA_FvS2_iS5_E
	.loc 4 85 0
	li 3,196
	bl _Znwj
.LEHE46:
	lwz 4,220(31)
	mr 30,3
.LEHB47:
	bl _ZN8GuiImageC1EP12GuiImageData
.LEHE47:
	.loc 4 85 0 is_stmt 0 discriminator 1
	stw 30,212(31)
	.loc 4 86 0 is_stmt 1 discriminator 1
	mr 3,30
	lwz 9,0(30)
	li 4,17
	lwz 0,180(9)
	mtctr 0
.LEHB48:
	bctrl
	.loc 4 87 0
	lwz 3,212(31)
	li 4,-5
	li 5,10
	lwz 9,0(3)
	lwz 0,168(9)
	mtctr 0
	bctrl
	.loc 4 88 0
	lwz 3,212(31)
	lfs 1,.LC14@l(29)
	lwz 9,0(3)
	lwz 0,104(9)
	mtctr 0
	bctrl
	.loc 4 90 0
	lwz 4,208(31)
	mr 3,31
	bl _ZN8GuiFrame6AppendEP10GuiElement
	.loc 4 91 0
	lwz 4,232(31)
	mr 3,31
	bl _ZN8GuiFrame6AppendEP10GuiElement
	.loc 4 92 0
	lwz 4,236(31)
	mr 3,31
	bl _ZN8GuiFrame6AppendEP10GuiElement
	.loc 4 93 0
	lwz 4,240(31)
	mr 3,31
	bl _ZN8GuiFrame6AppendEP10GuiElement
	.loc 4 94 0
	lwz 4,244(31)
	mr 3,31
	bl _ZN8GuiFrame6AppendEP10GuiElement
	.loc 4 95 0
	lwz 4,256(31)
	mr 3,31
	bl _ZN8GuiFrame6AppendEP10GuiElement
	.loc 4 96 0
	lwz 4,260(31)
	mr 3,31
	bl _ZN8GuiFrame6AppendEP10GuiElement
	.loc 4 97 0
	lwz 4,212(31)
	mr 3,31
	bl _ZN8GuiFrame6AppendEP10GuiElement
	.loc 4 99 0
	mr 3,31
	li 4,17
	li 5,50
	li 6,0
	bl _ZN10GuiElement9SetEffectEiii
.LVL337:
.LBB2769:
.LBB2770:
	.loc 2 297 0
	li 0,0
.LBE2770:
.LBE2769:
.LBE2781:
.LBE2786:
	.loc 4 102 0
	lwz 23,332(1)
.LVL338:
.LBB2787:
.LBB2782:
.LBB2772:
.LBB2771:
	.loc 2 297 0
	stw 0,44(31)
	.loc 2 298 0
	stw 0,48(31)
.LVL339:
.LBE2771:
.LBE2772:
.LBB2773:
.LBB2774:
	.loc 2 316 0
	li 0,34
	stw 0,68(31)
.LBE2774:
.LBE2773:
.LBE2782:
.LBE2787:
	.loc 4 102 0
	lwz 0,372(1)
	lwz 24,336(1)
	mtlr 0
	lwz 25,340(1)
	lwz 26,344(1)
	lwz 27,348(1)
	lwz 28,352(1)
	lwz 29,356(1)
	lwz 30,360(1)
	lwz 31,364(1)
.LVL340:
	addi 1,1,368
	.cfi_remember_state
.LCFI57:
	.cfi_def_cfa_offset 0
	.cfi_restore 31
	.cfi_restore 30
	.cfi_restore 29
	.cfi_restore 28
	.cfi_restore 27
	.cfi_restore 26
	.cfi_restore 25
	.cfi_restore 24
	.cfi_restore 23
	blr
.LVL341:
.L310:
.LCFI58:
	.cfi_restore_state
.LBB2788:
.LBB2783:
	.loc 4 66 0 discriminator 2
	lis 3,.LC12@ha
	la 3,.LC12@l(3)
	bl gettext
.LEHE48:
	b .L341
.LVL342:
.L325:
	mr 30,3
.L313:
.LBE2783:
	.loc 4 28 0
	addi 3,31,176
	bl _ZN7sigslot9has_slotsINS_15single_threadedEED2Ev
	mr 3,31
	bl _ZN8GuiFrameD2Ev
	mr 3,30
.LEHB49:
	bl _Unwind_Resume
.LEHE49:
.LVL343:
.L338:
.L342:
	mr 29,3
.LBB2784:
	.loc 4 85 0
	mr 3,30
	bl _ZdlPv
	mr 30,29
	b .L313
.LVL344:
.L337:
	b .L342
.L336:
	mr 30,3
	.loc 4 75 0
	mr 3,26
	bl _ZdlPv
	b .L313
.LVL345:
.L335:
.L347:
	mr 30,3
.L348:
	.loc 4 57 0
	mr 3,29
	bl _ZdlPv
	b .L313
.L334:
	b .L347
.L333:
	b .L347
.L332:
	b .L347
.LVL346:
.L331:
	b .L347
.L330:
	b .L347
.LVL347:
.L329:
	b .L342
.L328:
	b .L347
.LVL348:
.L339:
	mr 30,3
.LBB2775:
.LBB2767:
	.loc 5 95 0
	mr 3,29
	bl _ZN10GuiTriggerD2Ev
	b .L348
.L327:
	b .L347
.LVL349:
.L326:
	b .L342
.LBE2767:
.LBE2775:
.LBE2784:
.LBE2788:
	.cfi_endproc
.LFE1576:
	.section	.gcc_except_table
.LLSDA1576:
	.byte	0xff
	.byte	0xff
	.byte	0x1
	.uleb128 .LLSDACSE1576-.LLSDACSB1576
.LLSDACSB1576:
	.uleb128 .LEHB20-.LFB1576
	.uleb128 .LEHE20-.LEHB20
	.uleb128 0
	.uleb128 0
	.uleb128 .LEHB21-.LFB1576
	.uleb128 .LEHE21-.LEHB21
	.uleb128 .L325-.LFB1576
	.uleb128 0
	.uleb128 .LEHB22-.LFB1576
	.uleb128 .LEHE22-.LEHB22
	.uleb128 .L326-.LFB1576
	.uleb128 0
	.uleb128 .LEHB23-.LFB1576
	.uleb128 .LEHE23-.LEHB23
	.uleb128 .L325-.LFB1576
	.uleb128 0
	.uleb128 .LEHB24-.LFB1576
	.uleb128 .LEHE24-.LEHB24
	.uleb128 .L327-.LFB1576
	.uleb128 0
	.uleb128 .LEHB25-.LFB1576
	.uleb128 .LEHE25-.LEHB25
	.uleb128 .L339-.LFB1576
	.uleb128 0
	.uleb128 .LEHB26-.LFB1576
	.uleb128 .LEHE26-.LEHB26
	.uleb128 .L325-.LFB1576
	.uleb128 0
	.uleb128 .LEHB27-.LFB1576
	.uleb128 .LEHE27-.LEHB27
	.uleb128 .L328-.LFB1576
	.uleb128 0
	.uleb128 .LEHB28-.LFB1576
	.uleb128 .LEHE28-.LEHB28
	.uleb128 .L325-.LFB1576
	.uleb128 0
	.uleb128 .LEHB29-.LFB1576
	.uleb128 .LEHE29-.LEHB29
	.uleb128 .L329-.LFB1576
	.uleb128 0
	.uleb128 .LEHB30-.LFB1576
	.uleb128 .LEHE30-.LEHB30
	.uleb128 .L325-.LFB1576
	.uleb128 0
	.uleb128 .LEHB31-.LFB1576
	.uleb128 .LEHE31-.LEHB31
	.uleb128 .L330-.LFB1576
	.uleb128 0
	.uleb128 .LEHB32-.LFB1576
	.uleb128 .LEHE32-.LEHB32
	.uleb128 .L325-.LFB1576
	.uleb128 0
	.uleb128 .LEHB33-.LFB1576
	.uleb128 .LEHE33-.LEHB33
	.uleb128 .L331-.LFB1576
	.uleb128 0
	.uleb128 .LEHB34-.LFB1576
	.uleb128 .LEHE34-.LEHB34
	.uleb128 .L325-.LFB1576
	.uleb128 0
	.uleb128 .LEHB35-.LFB1576
	.uleb128 .LEHE35-.LEHB35
	.uleb128 .L332-.LFB1576
	.uleb128 0
	.uleb128 .LEHB36-.LFB1576
	.uleb128 .LEHE36-.LEHB36
	.uleb128 .L325-.LFB1576
	.uleb128 0
	.uleb128 .LEHB37-.LFB1576
	.uleb128 .LEHE37-.LEHB37
	.uleb128 .L333-.LFB1576
	.uleb128 0
	.uleb128 .LEHB38-.LFB1576
	.uleb128 .LEHE38-.LEHB38
	.uleb128 .L325-.LFB1576
	.uleb128 0
	.uleb128 .LEHB39-.LFB1576
	.uleb128 .LEHE39-.LEHB39
	.uleb128 .L334-.LFB1576
	.uleb128 0
	.uleb128 .LEHB40-.LFB1576
	.uleb128 .LEHE40-.LEHB40
	.uleb128 .L325-.LFB1576
	.uleb128 0
	.uleb128 .LEHB41-.LFB1576
	.uleb128 .LEHE41-.LEHB41
	.uleb128 .L335-.LFB1576
	.uleb128 0
	.uleb128 .LEHB42-.LFB1576
	.uleb128 .LEHE42-.LEHB42
	.uleb128 .L325-.LFB1576
	.uleb128 0
	.uleb128 .LEHB43-.LFB1576
	.uleb128 .LEHE43-.LEHB43
	.uleb128 .L336-.LFB1576
	.uleb128 0
	.uleb128 .LEHB44-.LFB1576
	.uleb128 .LEHE44-.LEHB44
	.uleb128 .L325-.LFB1576
	.uleb128 0
	.uleb128 .LEHB45-.LFB1576
	.uleb128 .LEHE45-.LEHB45
	.uleb128 .L337-.LFB1576
	.uleb128 0
	.uleb128 .LEHB46-.LFB1576
	.uleb128 .LEHE46-.LEHB46
	.uleb128 .L325-.LFB1576
	.uleb128 0
	.uleb128 .LEHB47-.LFB1576
	.uleb128 .LEHE47-.LEHB47
	.uleb128 .L338-.LFB1576
	.uleb128 0
	.uleb128 .LEHB48-.LFB1576
	.uleb128 .LEHE48-.LEHB48
	.uleb128 .L325-.LFB1576
	.uleb128 0
	.uleb128 .LEHB49-.LFB1576
	.uleb128 .LEHE49-.LEHB49
	.uleb128 0
	.uleb128 0
.LLSDACSE1576:
	.section	".text"
	.size	_ZN16ThemeInfosWindowC2EPKcS1_i, .-_ZN16ThemeInfosWindowC2EPKcS1_i
	.weak	_ZTS16ThemeInfosWindow
	.section	.rodata._ZTS16ThemeInfosWindow,"aG",@progbits,_ZTS16ThemeInfosWindow,comdat
	.align 2
	.type	_ZTS16ThemeInfosWindow, @object
	.size	_ZTS16ThemeInfosWindow, 19
_ZTS16ThemeInfosWindow:
	.string	"16ThemeInfosWindow"
	.weak	_ZTI16ThemeInfosWindow
	.section	.rodata._ZTI16ThemeInfosWindow,"aG",@progbits,_ZTI16ThemeInfosWindow,comdat
	.align 2
	.type	_ZTI16ThemeInfosWindow, @object
	.size	_ZTI16ThemeInfosWindow, 32
_ZTI16ThemeInfosWindow:
	.long	_ZTVN10__cxxabiv121__vmi_class_type_infoE+8
	.long	_ZTS16ThemeInfosWindow
	.long	0
	.long	2
	.long	_ZTI8GuiFrame
	.long	2
	.long	_ZTIN7sigslot9has_slotsINS_15single_threadedEEE
	.long	45058
	.weak	_ZTV16ThemeInfosWindow
	.section	.rodata._ZTV16ThemeInfosWindow,"aG",@progbits,_ZTV16ThemeInfosWindow,comdat
	.align 3
	.type	_ZTV16ThemeInfosWindow, @object
	.size	_ZTV16ThemeInfosWindow, 252
_ZTV16ThemeInfosWindow:
	.long	0
	.long	_ZTI16ThemeInfosWindow
	.long	_ZN16ThemeInfosWindowD1Ev
	.long	_ZN16ThemeInfosWindowD0Ev
	.long	_ZN10GuiElement9SetParentEPS_
	.long	_ZN10GuiElement9GetParentEv
	.long	_ZN10GuiElement7GetLeftEv
	.long	_ZN10GuiElement6GetTopEv
	.long	_ZN10GuiElement12GetZPositionEv
	.long	_ZN10GuiElement10GetLeftPosEv
	.long	_ZN10GuiElement9GetTopPosEv
	.long	_ZN10GuiElement8GetWidthEv
	.long	_ZN10GuiElement9GetHeightEv
	.long	_ZN10GuiElement7SetSizeEii
	.long	_ZN8GuiFrame10SetVisibleEb
	.long	_ZN10GuiElement9IsVisibleEv
	.long	_ZN10GuiElement12IsSelectableEv
	.long	_ZN10GuiElement11IsClickableEv
	.long	_ZN10GuiElement10IsHoldableEv
	.long	_ZN10GuiElement13SetSelectableEb
	.long	_ZN10GuiElement12SetClickableEb
	.long	_ZN10GuiElement11SetHoldableEb
	.long	_ZN10GuiElement8SetStateEii
	.long	_ZN10GuiElement8GetStateEv
	.long	_ZN10GuiElement12GetStateChanEv
	.long	_ZN8GuiFrame10ResetStateEv
	.long	_ZN10GuiElement8SetAlphaEi
	.long	_ZN10GuiElement8GetAlphaEv
	.long	_ZN10GuiElement8SetScaleEf
	.long	_ZN10GuiElement9SetScaleXEf
	.long	_ZN10GuiElement9SetScaleYEf
	.long	_ZN10GuiElement8GetScaleEv
	.long	_ZN10GuiElement9GetScaleXEv
	.long	_ZN10GuiElement9GetScaleYEv
	.long	_ZN10GuiElement6RumbleEv
	.long	_ZN10GuiElement9SetRumbleEb
	.long	_ZN10GuiElement9SetEffectEiii
	.long	_ZN10GuiElement15SetEffectOnOverEiii
	.long	_ZN10GuiElement13SetEffectGrowEv
	.long	_ZN10GuiElement12ResetEffectsEv
	.long	_ZNK10GuiElement9GetEffectEv
	.long	_ZNK10GuiElement10IsAnimatedEv
	.long	_ZN8GuiFrame9SetBoundsE4RectIiE
	.long	_ZN10GuiElement8IsInsideEii
	.long	_ZN10GuiElement11SetPositionEii
	.long	_ZN10GuiElement11SetPositionEiii
	.long	_ZN8GuiFrame11GetSelectedEv
	.long	_ZN10GuiElement12SetAlignmentEi
	.long	_ZNK10GuiElement12GetAlignmentEv
	.long	_ZN8GuiFrame6UpdateEP10GuiTrigger
	.long	_ZN8GuiFrame4DrawEv
	.long	_ZN10GuiElement13UpdateEffectsEv
	.long	_ZN8GuiFrame5CloseEv
	.long	_ZN8GuiFrame4showEv
	.long	_ZN8GuiFrame4hideEv
	.long	_ZN8GuiFrame4execEv
	.long	_ZN8GuiFrame12updateEventsEv
	.long	-176
	.long	_ZTI16ThemeInfosWindow
	.long	_ZThn176_N16ThemeInfosWindowD1Ev
	.long	_ZThn176_N16ThemeInfosWindowD0Ev
	.long	_ZN7sigslot15single_threaded4lockEv
	.long	_ZN7sigslot15single_threaded6unlockEv
	.weak	_ZTVN7sigslot15single_threadedE
	.section	.rodata._ZTVN7sigslot15single_threadedE,"aG",@progbits,_ZTVN7sigslot15single_threadedE,comdat
	.align 3
	.type	_ZTVN7sigslot15single_threadedE, @object
	.size	_ZTVN7sigslot15single_threadedE, 24
_ZTVN7sigslot15single_threadedE:
	.long	0
	.long	_ZTIN7sigslot15single_threadedE
	.long	_ZN7sigslot15single_threadedD1Ev
	.long	_ZN7sigslot15single_threadedD0Ev
	.long	_ZN7sigslot15single_threaded4lockEv
	.long	_ZN7sigslot15single_threaded6unlockEv
	.weak	_ZTVN7sigslot9has_slotsINS_15single_threadedEEE
	.section	.rodata._ZTVN7sigslot9has_slotsINS_15single_threadedEEE,"aG",@progbits,_ZTVN7sigslot9has_slotsINS_15single_threadedEEE,comdat
	.align 3
	.type	_ZTVN7sigslot9has_slotsINS_15single_threadedEEE, @object
	.size	_ZTVN7sigslot9has_slotsINS_15single_threadedEEE, 24
_ZTVN7sigslot9has_slotsINS_15single_threadedEEE:
	.long	0
	.long	_ZTIN7sigslot9has_slotsINS_15single_threadedEEE
	.long	_ZN7sigslot9has_slotsINS_15single_threadedEED1Ev
	.long	_ZN7sigslot9has_slotsINS_15single_threadedEED0Ev
	.long	_ZN7sigslot15single_threaded4lockEv
	.long	_ZN7sigslot15single_threaded6unlockEv
	.weak	_ZTV16SimpleGuiTrigger
	.section	.rodata._ZTV16SimpleGuiTrigger,"aG",@progbits,_ZTV16SimpleGuiTrigger,comdat
	.align 3
	.type	_ZTV16SimpleGuiTrigger, @object
	.size	_ZTV16SimpleGuiTrigger, 16
_ZTV16SimpleGuiTrigger:
	.long	0
	.long	_ZTI16SimpleGuiTrigger
	.long	_ZN16SimpleGuiTriggerD1Ev
	.long	_ZN16SimpleGuiTriggerD0Ev
	.weak	_ZTVN7sigslot17_connection_base3IP9GuiButtoniRK6_POINTNS_15single_threadedEEE
	.section	.rodata._ZTVN7sigslot17_connection_base3IP9GuiButtoniRK6_POINTNS_15single_threadedEEE,"aG",@progbits,_ZTVN7sigslot17_connection_base3IP9GuiButtoniRK6_POINTNS_15single_threadedEEE,comdat
	.align 3
	.type	_ZTVN7sigslot17_connection_base3IP9GuiButtoniRK6_POINTNS_15single_threadedEEE, @object
	.size	_ZTVN7sigslot17_connection_base3IP9GuiButtoniRK6_POINTNS_15single_threadedEEE, 32
_ZTVN7sigslot17_connection_base3IP9GuiButtoniRK6_POINTNS_15single_threadedEEE:
	.long	0
	.long	_ZTIN7sigslot17_connection_base3IP9GuiButtoniRK6_POINTNS_15single_threadedEEE
	.long	_ZN7sigslot17_connection_base3IP9GuiButtoniRK6_POINTNS_15single_threadedEED1Ev
	.long	_ZN7sigslot17_connection_base3IP9GuiButtoniRK6_POINTNS_15single_threadedEED0Ev
	.long	__cxa_pure_virtual
	.long	__cxa_pure_virtual
	.long	__cxa_pure_virtual
	.long	__cxa_pure_virtual
	.weak	_ZTVN7sigslot12_connection3I16ThemeInfosWindowP9GuiButtoniRK6_POINTNS_15single_threadedEEE
	.section	.rodata._ZTVN7sigslot12_connection3I16ThemeInfosWindowP9GuiButtoniRK6_POINTNS_15single_threadedEEE,"aG",@progbits,_ZTVN7sigslot12_connection3I16ThemeInfosWindowP9GuiButtoniRK6_POINTNS_15single_threadedEEE,comdat
	.align 3
	.type	_ZTVN7sigslot12_connection3I16ThemeInfosWindowP9GuiButtoniRK6_POINTNS_15single_threadedEEE, @object
	.size	_ZTVN7sigslot12_connection3I16ThemeInfosWindowP9GuiButtoniRK6_POINTNS_15single_threadedEEE, 32
_ZTVN7sigslot12_connection3I16ThemeInfosWindowP9GuiButtoniRK6_POINTNS_15single_threadedEEE:
	.long	0
	.long	_ZTIN7sigslot12_connection3I16ThemeInfosWindowP9GuiButtoniRK6_POINTNS_15single_threadedEEE
	.long	_ZN7sigslot12_connection3I16ThemeInfosWindowP9GuiButtoniRK6_POINTNS_15single_threadedEED1Ev
	.long	_ZN7sigslot12_connection3I16ThemeInfosWindowP9GuiButtoniRK6_POINTNS_15single_threadedEED0Ev
	.long	_ZNK7sigslot12_connection3I16ThemeInfosWindowP9GuiButtoniRK6_POINTNS_15single_threadedEE7getdestEv
	.long	_ZN7sigslot12_connection3I16ThemeInfosWindowP9GuiButtoniRK6_POINTNS_15single_threadedEE4emitES3_iS6_
	.long	_ZN7sigslot12_connection3I16ThemeInfosWindowP9GuiButtoniRK6_POINTNS_15single_threadedEE5cloneEv
	.long	_ZN7sigslot12_connection3I16ThemeInfosWindowP9GuiButtoniRK6_POINTNS_15single_threadedEE9duplicateEPNS_9has_slotsIS7_EE
	.weak	_ZTIN7sigslot9has_slotsINS_15single_threadedEEE
	.section	.rodata._ZTIN7sigslot9has_slotsINS_15single_threadedEEE,"aG",@progbits,_ZTIN7sigslot9has_slotsINS_15single_threadedEEE,comdat
	.align 2
	.type	_ZTIN7sigslot9has_slotsINS_15single_threadedEEE, @object
	.size	_ZTIN7sigslot9has_slotsINS_15single_threadedEEE, 12
_ZTIN7sigslot9has_slotsINS_15single_threadedEEE:
	.long	_ZTVN10__cxxabiv120__si_class_type_infoE+8
	.long	_ZTSN7sigslot9has_slotsINS_15single_threadedEEE
	.long	_ZTIN7sigslot15single_threadedE
	.weak	_ZTIN7sigslot15single_threadedE
	.section	.sdata._ZTIN7sigslot15single_threadedE,"awG",@progbits,_ZTIN7sigslot15single_threadedE,comdat
	.align 2
	.type	_ZTIN7sigslot15single_threadedE, @object
	.size	_ZTIN7sigslot15single_threadedE, 8
_ZTIN7sigslot15single_threadedE:
	.long	_ZTVN10__cxxabiv117__class_type_infoE+8
	.long	_ZTSN7sigslot15single_threadedE
	.weak	_ZTI16SimpleGuiTrigger
	.section	.rodata._ZTI16SimpleGuiTrigger,"aG",@progbits,_ZTI16SimpleGuiTrigger,comdat
	.align 2
	.type	_ZTI16SimpleGuiTrigger, @object
	.size	_ZTI16SimpleGuiTrigger, 12
_ZTI16SimpleGuiTrigger:
	.long	_ZTVN10__cxxabiv120__si_class_type_infoE+8
	.long	_ZTS16SimpleGuiTrigger
	.long	_ZTI10GuiTrigger
	.weak	_ZTIN7sigslot17_connection_base3IP9GuiButtoniRK6_POINTNS_15single_threadedEEE
	.section	.sdata._ZTIN7sigslot17_connection_base3IP9GuiButtoniRK6_POINTNS_15single_threadedEEE,"awG",@progbits,_ZTIN7sigslot17_connection_base3IP9GuiButtoniRK6_POINTNS_15single_threadedEEE,comdat
	.align 2
	.type	_ZTIN7sigslot17_connection_base3IP9GuiButtoniRK6_POINTNS_15single_threadedEEE, @object
	.size	_ZTIN7sigslot17_connection_base3IP9GuiButtoniRK6_POINTNS_15single_threadedEEE, 8
_ZTIN7sigslot17_connection_base3IP9GuiButtoniRK6_POINTNS_15single_threadedEEE:
	.long	_ZTVN10__cxxabiv117__class_type_infoE+8
	.long	_ZTSN7sigslot17_connection_base3IP9GuiButtoniRK6_POINTNS_15single_threadedEEE
	.weak	_ZTIN7sigslot12_connection3I16ThemeInfosWindowP9GuiButtoniRK6_POINTNS_15single_threadedEEE
	.section	.rodata._ZTIN7sigslot12_connection3I16ThemeInfosWindowP9GuiButtoniRK6_POINTNS_15single_threadedEEE,"aG",@progbits,_ZTIN7sigslot12_connection3I16ThemeInfosWindowP9GuiButtoniRK6_POINTNS_15single_threadedEEE,comdat
	.align 2
	.type	_ZTIN7sigslot12_connection3I16ThemeInfosWindowP9GuiButtoniRK6_POINTNS_15single_threadedEEE, @object
	.size	_ZTIN7sigslot12_connection3I16ThemeInfosWindowP9GuiButtoniRK6_POINTNS_15single_threadedEEE, 12
_ZTIN7sigslot12_connection3I16ThemeInfosWindowP9GuiButtoniRK6_POINTNS_15single_threadedEEE:
	.long	_ZTVN10__cxxabiv120__si_class_type_infoE+8
	.long	_ZTSN7sigslot12_connection3I16ThemeInfosWindowP9GuiButtoniRK6_POINTNS_15single_threadedEEE
	.long	_ZTIN7sigslot17_connection_base3IP9GuiButtoniRK6_POINTNS_15single_threadedEEE
	.weak	_ZTSN7sigslot9has_slotsINS_15single_threadedEEE
	.section	.rodata._ZTSN7sigslot9has_slotsINS_15single_threadedEEE,"aG",@progbits,_ZTSN7sigslot9has_slotsINS_15single_threadedEEE,comdat
	.align 2
	.type	_ZTSN7sigslot9has_slotsINS_15single_threadedEEE, @object
	.size	_ZTSN7sigslot9has_slotsINS_15single_threadedEEE, 44
_ZTSN7sigslot9has_slotsINS_15single_threadedEEE:
	.string	"N7sigslot9has_slotsINS_15single_threadedEEE"
	.weak	_ZTSN7sigslot15single_threadedE
	.section	.rodata._ZTSN7sigslot15single_threadedE,"aG",@progbits,_ZTSN7sigslot15single_threadedE,comdat
	.align 2
	.type	_ZTSN7sigslot15single_threadedE, @object
	.size	_ZTSN7sigslot15single_threadedE, 28
_ZTSN7sigslot15single_threadedE:
	.string	"N7sigslot15single_threadedE"
	.weak	_ZTS16SimpleGuiTrigger
	.section	.rodata._ZTS16SimpleGuiTrigger,"aG",@progbits,_ZTS16SimpleGuiTrigger,comdat
	.align 2
	.type	_ZTS16SimpleGuiTrigger, @object
	.size	_ZTS16SimpleGuiTrigger, 19
_ZTS16SimpleGuiTrigger:
	.string	"16SimpleGuiTrigger"
	.weak	_ZTSN7sigslot17_connection_base3IP9GuiButtoniRK6_POINTNS_15single_threadedEEE
	.section	.rodata._ZTSN7sigslot17_connection_base3IP9GuiButtoniRK6_POINTNS_15single_threadedEEE,"aG",@progbits,_ZTSN7sigslot17_connection_base3IP9GuiButtoniRK6_POINTNS_15single_threadedEEE,comdat
	.align 2
	.type	_ZTSN7sigslot17_connection_base3IP9GuiButtoniRK6_POINTNS_15single_threadedEEE, @object
	.size	_ZTSN7sigslot17_connection_base3IP9GuiButtoniRK6_POINTNS_15single_threadedEEE, 74
_ZTSN7sigslot17_connection_base3IP9GuiButtoniRK6_POINTNS_15single_threadedEEE:
	.string	"N7sigslot17_connection_base3IP9GuiButtoniRK6_POINTNS_15single_threadedEEE"
	.weak	_ZTSN7sigslot12_connection3I16ThemeInfosWindowP9GuiButtoniRK6_POINTNS_15single_threadedEEE
	.section	.rodata._ZTSN7sigslot12_connection3I16ThemeInfosWindowP9GuiButtoniRK6_POINTNS_15single_threadedEEE,"aG",@progbits,_ZTSN7sigslot12_connection3I16ThemeInfosWindowP9GuiButtoniRK6_POINTNS_15single_threadedEEE,comdat
	.align 2
	.type	_ZTSN7sigslot12_connection3I16ThemeInfosWindowP9GuiButtoniRK6_POINTNS_15single_threadedEEE, @object
	.size	_ZTSN7sigslot12_connection3I16ThemeInfosWindowP9GuiButtoniRK6_POINTNS_15single_threadedEEE, 87
_ZTSN7sigslot12_connection3I16ThemeInfosWindowP9GuiButtoniRK6_POINTNS_15single_threadedEEE:
	.string	"N7sigslot12_connection3I16ThemeInfosWindowP9GuiButtoniRK6_POINTNS_15single_threadedEEE"
	.weak	_ZN7sigslot15single_threadedD1Ev
	.set	_ZN7sigslot15single_threadedD1Ev,_ZN7sigslot15single_threadedD2Ev
	.weak	_ZN7sigslot17_connection_base3IP9GuiButtoniRK6_POINTNS_15single_threadedEED1Ev
	.set	_ZN7sigslot17_connection_base3IP9GuiButtoniRK6_POINTNS_15single_threadedEED1Ev,_ZN7sigslot17_connection_base3IP9GuiButtoniRK6_POINTNS_15single_threadedEED2Ev
	.weak	_ZN7sigslot12_connection3I16ThemeInfosWindowP9GuiButtoniRK6_POINTNS_15single_threadedEED1Ev
	.set	_ZN7sigslot12_connection3I16ThemeInfosWindowP9GuiButtoniRK6_POINTNS_15single_threadedEED1Ev,_ZN7sigslot12_connection3I16ThemeInfosWindowP9GuiButtoniRK6_POINTNS_15single_threadedEED2Ev
	.weak	_ZN16SimpleGuiTriggerD1Ev
	.set	_ZN16SimpleGuiTriggerD1Ev,_ZN16SimpleGuiTriggerD2Ev
	.weak	_ZN7sigslot9has_slotsINS_15single_threadedEED1Ev
	.set	_ZN7sigslot9has_slotsINS_15single_threadedEED1Ev,_ZN7sigslot9has_slotsINS_15single_threadedEED2Ev
	.globl _ZN16ThemeInfosWindowD1Ev
	.set	_ZN16ThemeInfosWindowD1Ev,_ZN16ThemeInfosWindowD2Ev
	.set	.LTHUNK0,_ZN16ThemeInfosWindowD1Ev
	.set	.LTHUNK1,_ZN16ThemeInfosWindowD0Ev
	.globl _ZN16ThemeInfosWindowC1EPKcS1_i
	.set	_ZN16ThemeInfosWindowC1EPKcS1_i,_ZN16ThemeInfosWindowC2EPKcS1_i
	.section	.rodata.cst4,"aM",@progbits,4
	.align 2
.LC1:
	.4byte	1501560836
.LC2:
	.4byte	1132396544
.LC3:
	.4byte	1056964608
.LC14:
	.4byte	1061997773
	.section	.rodata.str1.4,"aMS",@progbits,1
	.align 2
.LC4:
	.string	"%s/tmp/%s.jpg"
	.zero	2
.LC5:
	.string	"button_click.wav"
	.zero	3
.LC6:
	.string	"button_over.wav"
.LC7:
	.string	"theme_dialogue_box.png"
	.zero	1
.LC8:
	.string	"Theme Title:"
	.zero	3
.LC9:
	.string	"r=0 g=0 b=0 a=255 - prompt windows text color"
	.zero	2
.LC10:
	.string	"Author(s):"
	.zero	1
.LC11:
	.string	"Download"
	.zero	3
.LC12:
	.string	"Load"
	.zero	3
.LC13:
	.string	"button.png"
	.zero	1
.LC15:
	.string	"Back"
	.section	".text"
.Letext0:
	.file 10 "d:\\devkitpro\\devkitppc\\bin\\../lib/gcc/powerpc-eabi/4.6.3/../../../../powerpc-eabi/include/stdint.h"
	.file 11 "d:/devkitPro/libogc/include/gctypes.h"
	.file 12 "d:/devkitPro/libogc/include/ogc/gx.h"
	.file 13 "d:\\devkitpro\\devkitppc\\bin\\../lib/gcc/powerpc-eabi/4.6.3/../../../../powerpc-eabi/include/machine/_types.h"
	.file 14 "d:\\devkitpro\\devkitppc\\bin\\../lib/gcc/powerpc-eabi/4.6.3/../../../../powerpc-eabi/include/sys/lock.h"
	.file 15 "d:\\devkitpro\\devkitppc\\bin\\../lib/gcc/powerpc-eabi/4.6.3/include/stddef.h"
	.file 16 "d:\\devkitpro\\devkitppc\\bin\\../lib/gcc/powerpc-eabi/4.6.3/../../../../powerpc-eabi/include/sys/_types.h"
	.file 17 "d:\\devkitpro\\devkitppc\\bin\\../lib/gcc/powerpc-eabi/4.6.3/../../../../powerpc-eabi/include/sys/reent.h"
	.file 18 "d:\\devkitpro\\devkitppc\\bin\\../lib/gcc/powerpc-eabi/4.6.3/../../../../powerpc-eabi/include/time.h"
	.file 19 "<built-in>"
	.file 20 "d:\\devkitpro\\devkitppc\\bin\\../lib/gcc/powerpc-eabi/4.6.3/../../../../powerpc-eabi/include/stdio.h"
	.file 21 "d:\\devkitpro\\devkitppc\\bin\\../lib/gcc/powerpc-eabi/4.6.3/../../../../powerpc-eabi/include/wchar.h"
	.file 22 "d:\\devkitpro\\devkitppc\\bin\\../lib/gcc/powerpc-eabi/4.6.3/../../../../powerpc-eabi/include/c++/4.6.3/cwchar"
	.file 23 "d:\\devkitpro\\devkitppc\\bin\\../lib/gcc/powerpc-eabi/4.6.3/../../../../powerpc-eabi/include/c++/4.6.3/powerpc-eabi/bits/c++config.h"
	.file 24 "d:\\devkitpro\\devkitppc\\bin\\../lib/gcc/powerpc-eabi/4.6.3/../../../../powerpc-eabi/include/c++/4.6.3/clocale"
	.file 25 "d:\\devkitpro\\devkitppc\\bin\\../lib/gcc/powerpc-eabi/4.6.3/../../../../powerpc-eabi/include/c++/4.6.3/bits/basic_string.h"
	.file 26 "d:\\devkitpro\\devkitppc\\bin\\../lib/gcc/powerpc-eabi/4.6.3/../../../../powerpc-eabi/include/c++/4.6.3/bits/stringfwd.h"
	.file 27 "d:\\devkitpro\\devkitppc\\bin\\../lib/gcc/powerpc-eabi/4.6.3/../../../../powerpc-eabi/include/c++/4.6.3/bits/move.h"
	.file 28 "d:\\devkitpro\\devkitppc\\bin\\../lib/gcc/powerpc-eabi/4.6.3/../../../../powerpc-eabi/include/c++/4.6.3/bits/cpp_type_traits.h"
	.file 29 "d:\\devkitpro\\devkitppc\\bin\\../lib/gcc/powerpc-eabi/4.6.3/../../../../powerpc-eabi/include/c++/4.6.3/debug/debug.h"
	.file 30 "d:\\devkitpro\\devkitppc\\bin\\../lib/gcc/powerpc-eabi/4.6.3/../../../../powerpc-eabi/include/c++/4.6.3/bits/char_traits.h"
	.file 31 "d:\\devkitpro\\devkitppc\\bin\\../lib/gcc/powerpc-eabi/4.6.3/../../../../powerpc-eabi/include/c++/4.6.3/bits/allocator.h"
	.file 32 "d:\\devkitpro\\devkitppc\\bin\\../lib/gcc/powerpc-eabi/4.6.3/../../../../powerpc-eabi/include/locale.h"
	.file 33 "d:\\devkitpro\\devkitppc\\bin\\../lib/gcc/powerpc-eabi/4.6.3/../../../../powerpc-eabi/include/c++/4.6.3/powerpc-eabi/bits/atomic_word.h"
	.file 34 "d:\\devkitpro\\devkitppc\\bin\\../lib/gcc/powerpc-eabi/4.6.3/../../../../powerpc-eabi/include/c++/4.6.3/ext/numeric_traits.h"
	.file 35 "d:\\devkitpro\\devkitppc\\bin\\../lib/gcc/powerpc-eabi/4.6.3/../../../../powerpc-eabi/include/c++/4.6.3/bits/basic_string.tcc"
	.file 36 "d:\\devkitpro\\devkitppc\\bin\\../lib/gcc/powerpc-eabi/4.6.3/../../../../powerpc-eabi/include/c++/4.6.3/bits/stl_iterator_base_types.h"
	.file 37 "d:\\devkitpro\\devkitppc\\bin\\../lib/gcc/powerpc-eabi/4.6.3/../../../../powerpc-eabi/include/c++/4.6.3/bits/stl_iterator.h"
	.file 38 "d:/Projects/SaveGameManager/savegame-manager-gx/trunk/source/Themes/../GUI/../Settings/../FileOperations/FileExtensions.h"
	.file 39 "d:/Projects/SaveGameManager/savegame-manager-gx/trunk/source/Themes/../GUI/../Settings/../Controls/AppControls.hpp"
	.file 40 "d:/Projects/SaveGameManager/savegame-manager-gx/trunk/source/Themes/../GUI/../Settings/CSettings.h"
	.file 41 "d:/Projects/SaveGameManager/savegame-manager-gx/trunk/source/Themes/../GUI/../Tools/Rect.h"
	.file 42 "d:\\devkitpro\\devkitppc\\bin\\../lib/gcc/powerpc-eabi/4.6.3/../../../../powerpc-eabi/include/c++/4.6.3/bits/list.tcc"
	.file 43 "d:\\devkitpro\\devkitppc\\bin\\../lib/gcc/powerpc-eabi/4.6.3/../../../../powerpc-eabi/include/c++/4.6.3/bits/stl_function.h"
	.file 44 "d:/Projects/SaveGameManager/savegame-manager-gx/trunk/source/Themes/ThemeInfosWindow.h"
	.file 45 "d:/Projects/SaveGameManager/savegame-manager-gx/trunk/source/GUI/gui_imagedata.h"
	.file 46 "d:\\devkitpro\\devkitppc\\bin\\../lib/gcc/powerpc-eabi/4.6.3/../../../../powerpc-eabi/include/c++/4.6.3/bits/stl_pair.h"
	.file 47 "d:\\devkitpro\\devkitppc\\bin\\../lib/gcc/powerpc-eabi/4.6.3/../../../../powerpc-eabi/include/c++/4.6.3/new"