	.file	"Theme_List.cpp"
	.section	".text"
.Ltext0:
	.align 2
	.type	_Z41__static_initialization_and_destruction_0ii.constprop.34, @function
_Z41__static_initialization_and_destruction_0ii.constprop.34:
.LFB1657:
	.file 1 "d:/Projects/SaveGameManager/savegame-manager-gx/trunk/source/Themes/Theme_List.cpp"
	.loc 1 137 0
	.cfi_startproc
.LVL0:
	cmpwi 7,3,1
	mflr 0
	stwu 1,-8(1)
.LCFI0:
	.cfi_def_cfa_offset 8
	.cfi_register 65, 0
	stw 0,12(1)
	.loc 1 137 0
	beq- 7,.L5
	.cfi_offset 65, 4
	.file 2 "d:\\devkitpro\\devkitppc\\bin\\../lib/gcc/powerpc-eabi/4.6.3/../../../../powerpc-eabi/include/c++/4.6.3/iostream"
	.loc 2 75 0
	cmpwi 7,3,0
	bne- 7,.L1
.LVL1:
.LBB769:
.LBB770:
	lis 3,.LANCHOR0@ha
.LVL2:
	la 3,.LANCHOR0@l(3)
	bl _ZNSt8ios_base4InitD1Ev
.LVL3:
.L1:
.LBE770:
.LBE769:
	.loc 1 137 0
	lwz 0,12(1)
	addi 1,1,8
	.cfi_remember_state
.LCFI1:
	.cfi_def_cfa_offset 0
	mtlr 0
	blr
.LVL4:
.L5:
.LCFI2:
	.cfi_restore_state
	.loc 2 75 0
	lis 3,.LANCHOR0@ha
.LVL5:
	la 3,.LANCHOR0@l(3)
	bl _ZNSt8ios_base4InitC1Ev
	b .L1
	.cfi_endproc
.LFE1657:
	.size	_Z41__static_initialization_and_destruction_0ii.constprop.34, .-_Z41__static_initialization_and_destruction_0ii.constprop.34
	.align 2
	.type	_ZSt8_DestroyIP11_theme_infoS0_EvT_S2_RSaIT0_E.isra.25, @function
_ZSt8_DestroyIP11_theme_infoS0_EvT_S2_RSaIT0_E.isra.25:
.LFB1647:
	.file 3 "d:\\devkitpro\\devkitppc\\bin\\../lib/gcc/powerpc-eabi/4.6.3/../../../../powerpc-eabi/include/c++/4.6.3/bits/stl_construct.h"
	.loc 3 150 0
	.cfi_startproc
.LVL6:
.LBB870:
.LBB871:
.LBB872:
.LBB873:
	.loc 3 103 0
	cmpw 7,4,3
.LBE873:
.LBE872:
.LBE871:
.LBE870:
	.loc 3 150 0
	mflr 0
	stwu 1,-56(1)
.LCFI3:
	.cfi_def_cfa_offset 56
	.cfi_register 65, 0
	stw 27,36(1)
	mr 27,4
	.cfi_offset 27, -20
	stw 28,40(1)
	mr 28,3
	.cfi_offset 28, -16
.LVL7:
	stw 0,60(1)
	stw 24,24(1)
	stw 25,28(1)
	stw 26,32(1)
	stw 29,44(1)
	stw 30,48(1)
	stw 31,52(1)
.LBB962:
.LBB960:
.LBB958:
.LBB956:
	.loc 3 103 0
	beq- 7,.L6
	.cfi_offset 31, -4
	.cfi_offset 30, -8
	.cfi_offset 29, -12
	.cfi_offset 26, -24
	.cfi_offset 25, -28
	.cfi_offset 24, -32
	.cfi_offset 65, 4
	lis 30,_ZNSs4_Rep20_S_empty_rep_storageE@ha
	mr 31,3
	addi 24,3,12
	la 30,_ZNSs4_Rep20_S_empty_rep_storageE@l(30)
	addi 25,3,8
	addi 26,3,4
.LVL8:
.L33:
	.loc 3 150 0
	subf 29,28,31
.LBB874:
.LBB875:
.LBB876:
.LBB877:
.LBB878:
.LBB879:
.LBB880:
.LBB881:
.LBB882:
	.file 4 "d:\\devkitpro\\devkitppc\\bin\\../lib/gcc/powerpc-eabi/4.6.3/../../../../powerpc-eabi/include/c++/4.6.3/bits/basic_string.h"
	.loc 4 288 0
	lwzx 9,29,24
.LBE882:
.LBE881:
.LBE880:
	.loc 4 534 0
	addi 3,9,-12
.LVL9:
.LBB883:
.LBB884:
	.loc 4 235 0
	cmpw 7,3,30
	bne- 7,.L35
.LVL10:
.L13:
.LBE884:
.LBE883:
.LBE879:
.LBE878:
.LBE877:
.LBB895:
.LBB896:
.LBB897:
.LBB898:
.LBB899:
.LBB900:
	.loc 4 288 0
	lwzx 9,29,25
.LBE900:
.LBE899:
.LBE898:
	.loc 4 534 0
	addi 3,9,-12
.LVL11:
.LBB901:
.LBB902:
	.loc 4 235 0
	cmpw 7,3,30
	bne- 7,.L36
.LVL12:
.L19:
.LBE902:
.LBE901:
.LBE897:
.LBE896:
.LBE895:
.LBB913:
.LBB914:
.LBB915:
.LBB916:
.LBB917:
.LBB918:
	.loc 4 288 0
	lwzx 9,29,26
.LBE918:
.LBE917:
.LBE916:
	.loc 4 534 0
	addi 3,9,-12
.LVL13:
.LBB919:
.LBB920:
	.loc 4 235 0
	cmpw 7,3,30
	bne- 7,.L37
.LVL14:
.L25:
.LBE920:
.LBE919:
.LBE915:
.LBE914:
.LBE913:
.LBB931:
.LBB932:
.LBB933:
.LBB934:
.LBB935:
.LBB936:
	.loc 4 288 0
	lwz 9,0(31)
.LBE936:
.LBE935:
.LBE934:
	.loc 4 534 0
	addi 3,9,-12
.LVL15:
.LBB937:
.LBB938:
	.loc 4 235 0
	cmpw 7,3,30
	bne- 7,.L38
.LVL16:
.L32:
.LBE938:
.LBE937:
.LBE933:
.LBE932:
.LBE931:
.LBE876:
.LBE875:
.LBE874:
	.loc 3 103 0
	addi 31,31,20
.LVL17:
	cmpw 7,31,27
	bne+ 7,.L33
.LVL18:
.L6:
.LBE956:
.LBE958:
.LBE960:
.LBE962:
	.loc 3 154 0
	lwz 0,60(1)
	lwz 24,24(1)
	mtlr 0
	lwz 25,28(1)
	lwz 26,32(1)
	lwz 27,36(1)
.LVL19:
	lwz 28,40(1)
.LVL20:
	lwz 29,44(1)
	lwz 30,48(1)
	lwz 31,52(1)
	addi 1,1,56
	.cfi_remember_state
.LCFI4:
	.cfi_def_cfa_offset 0
	.cfi_restore 31
	.cfi_restore 30
	.cfi_restore 29
	.cfi_restore 28
	.cfi_restore 27
	.cfi_restore 26
	.cfi_restore 25
	.cfi_restore 24
	blr
.LVL21:
.L35:
.LCFI5:
	.cfi_restore_state
.LBB963:
.LBB961:
.LBB959:
.LBB957:
.LBB955:
.LBB954:
.LBB953:
.LBB949:
.LBB894:
.LBB893:
.LBB892:
.LBB891:
.LBB885:
.LBB886:
.LBB887:
	.file 5 "d:\\devkitpro\\devkitppc\\bin\\../lib/gcc/powerpc-eabi/4.6.3/../../../../powerpc-eabi/include/c++/4.6.3/ext/atomicity.h"
	.loc 5 66 0
	lwz 11,-4(9)
.LVL22:
.LBE887:
.LBE886:
.LBE885:
	.loc 4 240 0
	cmpwi 7,11,0
.LBB890:
.LBB889:
.LBB888:
	.loc 5 67 0
	addi 11,11,-1
	stw 11,-4(9)
.LBE888:
.LBE889:
.LBE890:
	.loc 4 240 0
	bgt+ 7,.L13
	.loc 4 244 0
	addi 4,1,11
	bl _ZNSs4_Rep10_M_destroyERKSaIcE
.LVL23:
	b .L13
.LVL24:
.L38:
.LBE891:
.LBE892:
.LBE893:
.LBE894:
.LBE949:
.LBB950:
.LBB948:
.LBB947:
.LBB946:
.LBB945:
.LBB939:
.LBB940:
.LBB941:
	.loc 5 66 0
	lwz 11,-4(9)
.LVL25:
.LBE941:
.LBE940:
.LBE939:
	.loc 4 240 0
	cmpwi 7,11,0
.LBB944:
.LBB943:
.LBB942:
	.loc 5 67 0
	addi 11,11,-1
	stw 11,-4(9)
.LBE942:
.LBE943:
.LBE944:
	.loc 4 240 0
	bgt+ 7,.L32
	.loc 4 244 0
	addi 4,1,8
	bl _ZNSs4_Rep10_M_destroyERKSaIcE
.LVL26:
	b .L32
.LVL27:
.L37:
.LBE945:
.LBE946:
.LBE947:
.LBE948:
.LBE950:
.LBB951:
.LBB930:
.LBB929:
.LBB928:
.LBB927:
.LBB921:
.LBB922:
.LBB923:
	.loc 5 66 0
	lwz 11,-4(9)
.LVL28:
.LBE923:
.LBE922:
.LBE921:
	.loc 4 240 0
	cmpwi 7,11,0
.LBB926:
.LBB925:
.LBB924:
	.loc 5 67 0
	addi 11,11,-1
	stw 11,-4(9)
.LBE924:
.LBE925:
.LBE926:
	.loc 4 240 0
	bgt+ 7,.L25
	.loc 4 244 0
	addi 4,1,9
	bl _ZNSs4_Rep10_M_destroyERKSaIcE
.LVL29:
	b .L25
.LVL30:
.L36:
.LBE927:
.LBE928:
.LBE929:
.LBE930:
.LBE951:
.LBB952:
.LBB912:
.LBB911:
.LBB910:
.LBB909:
.LBB903:
.LBB904:
.LBB905:
	.loc 5 66 0
	lwz 11,-4(9)
.LVL31:
.LBE905:
.LBE904:
.LBE903:
	.loc 4 240 0
	cmpwi 7,11,0
.LBB908:
.LBB907:
.LBB906:
	.loc 5 67 0
	addi 11,11,-1
	stw 11,-4(9)
.LBE906:
.LBE907:
.LBE908:
	.loc 4 240 0
	bgt+ 7,.L19
	.loc 4 244 0
	addi 4,1,10
	bl _ZNSs4_Rep10_M_destroyERKSaIcE
.LVL32:
	b .L19
.LBE909:
.LBE910:
.LBE911:
.LBE912:
.LBE952:
.LBE953:
.LBE954:
.LBE955:
.LBE957:
.LBE959:
.LBE961:
.LBE963:
	.cfi_endproc
.LFE1647:
	.size	_ZSt8_DestroyIP11_theme_infoS0_EvT_S2_RSaIT0_E.isra.25, .-_ZSt8_DestroyIP11_theme_infoS0_EvT_S2_RSaIT0_E.isra.25
	.align 2
	.globl _ZN10Theme_ListD2Ev
	.type	_ZN10Theme_ListD2Ev, @function
_ZN10Theme_ListD2Ev:
.LFB1471:
	.loc 1 57 0
	.cfi_startproc
.LVL33:
	mflr 0
	stwu 1,-64(1)
.LCFI6:
	.cfi_def_cfa_offset 64
	.cfi_register 65, 0
	stw 27,44(1)
	stw 0,68(1)
	stw 28,48(1)
.LBB1075:
.LBB1076:
.LBB1077:
	.file 6 "d:\\devkitpro\\devkitppc\\bin\\../lib/gcc/powerpc-eabi/4.6.3/../../../../powerpc-eabi/include/c++/4.6.3/bits/stl_vector.h"
	.loc 6 350 0
	lwz 27,4(3)
	.cfi_offset 28, -16
	.cfi_offset 65, 4
	.cfi_offset 27, -20
	lwz 28,0(3)
.LBE1077:
.LBE1076:
.LBE1075:
	.loc 1 57 0
	stw 23,28(1)
	mr 23,3
	.cfi_offset 23, -36
.LVL34:
.LBB1187:
.LBB1184:
.LBB1181:
.LBB1078:
.LBB1079:
.LBB1080:
.LBB1081:
.LBB1082:
	.loc 3 103 0
	cmpw 7,28,27
.LBE1082:
.LBE1081:
.LBE1080:
.LBE1079:
.LBE1078:
.LBE1181:
.LBE1184:
.LBE1187:
	.loc 1 57 0
	stw 24,32(1)
	stw 25,36(1)
	stw 26,40(1)
	stw 29,52(1)
	stw 30,56(1)
	stw 31,60(1)
.LBB1188:
.LBB1185:
.LBB1182:
.LBB1173:
.LBB1171:
.LBB1169:
.LBB1167:
.LBB1165:
	.loc 3 103 0
	beq- 7,.L40
	.cfi_offset 31, -4
	.cfi_offset 30, -8
	.cfi_offset 29, -12
	.cfi_offset 26, -24
	.cfi_offset 25, -28
	.cfi_offset 24, -32
.LVL35:
	lis 30,_ZNSs4_Rep20_S_empty_rep_storageE@ha
	mr 31,28
	addi 24,28,12
	la 30,_ZNSs4_Rep20_S_empty_rep_storageE@l(30)
	addi 25,28,8
	addi 26,28,4
.LVL36:
.L66:
	.loc 1 57 0
	subf 29,28,31
.LBB1083:
.LBB1084:
.LBB1085:
.LBB1086:
.LBB1087:
.LBB1088:
.LBB1089:
.LBB1090:
.LBB1091:
	.loc 4 288 0
	lwzx 9,29,24
.LBE1091:
.LBE1090:
.LBE1089:
	.loc 4 534 0
	addi 3,9,-12
.LVL37:
.LBB1092:
.LBB1093:
	.loc 4 235 0
	cmpw 7,3,30
	bne- 7,.L74
.LVL38:
.L46:
.LBE1093:
.LBE1092:
.LBE1088:
.LBE1087:
.LBE1086:
.LBB1104:
.LBB1105:
.LBB1106:
.LBB1107:
.LBB1108:
.LBB1109:
	.loc 4 288 0
	lwzx 9,29,25
.LBE1109:
.LBE1108:
.LBE1107:
	.loc 4 534 0
	addi 3,9,-12
.LVL39:
.LBB1110:
.LBB1111:
	.loc 4 235 0
	cmpw 7,3,30
	bne- 7,.L75
.LVL40:
.L52:
.LBE1111:
.LBE1110:
.LBE1106:
.LBE1105:
.LBE1104:
.LBB1122:
.LBB1123:
.LBB1124:
.LBB1125:
.LBB1126:
.LBB1127:
	.loc 4 288 0
	lwzx 9,29,26
.LBE1127:
.LBE1126:
.LBE1125:
	.loc 4 534 0
	addi 3,9,-12
.LVL41:
.LBB1128:
.LBB1129:
	.loc 4 235 0
	cmpw 7,3,30
	bne- 7,.L76
.LVL42:
.L58:
.LBE1129:
.LBE1128:
.LBE1124:
.LBE1123:
.LBE1122:
.LBB1140:
.LBB1141:
.LBB1142:
.LBB1143:
.LBB1144:
.LBB1145:
	.loc 4 288 0
	lwz 9,0(31)
.LBE1145:
.LBE1144:
.LBE1143:
	.loc 4 534 0
	addi 3,9,-12
.LVL43:
.LBB1146:
.LBB1147:
	.loc 4 235 0
	cmpw 7,3,30
	bne- 7,.L77
.LVL44:
.L65:
.LBE1147:
.LBE1146:
.LBE1142:
.LBE1141:
.LBE1140:
.LBE1085:
.LBE1084:
.LBE1083:
	.loc 3 103 0
	addi 31,31,20
.LVL45:
	cmpw 7,27,31
	bne+ 7,.L66
	lwz 28,0(23)
.LVL46:
.L40:
.LBE1165:
.LBE1167:
.LBE1169:
.LBE1171:
.LBE1173:
.LBB1174:
.LBB1175:
.LBB1176:
.LBB1177:
	.loc 6 155 0
	cmpwi 7,28,0
	beq- 7,.L39
.LVL47:
.LBB1178:
.LBB1179:
	.file 7 "d:\\devkitpro\\devkitppc\\bin\\../lib/gcc/powerpc-eabi/4.6.3/../../../../powerpc-eabi/include/c++/4.6.3/ext/new_allocator.h"
	.loc 7 98 0
	mr 3,28
	bl _ZdlPv
.LVL48:
.L39:
.LBE1179:
.LBE1178:
.LBE1177:
.LBE1176:
.LBE1175:
.LBE1174:
.LBE1182:
.LBE1185:
.LBE1188:
	.loc 1 59 0
	lwz 0,68(1)
	lwz 23,28(1)
.LVL49:
	mtlr 0
	lwz 24,32(1)
	lwz 25,36(1)
	lwz 26,40(1)
	lwz 27,44(1)
.LVL50:
	lwz 28,48(1)
.LVL51:
	lwz 29,52(1)
	lwz 30,56(1)
	lwz 31,60(1)
	addi 1,1,64
	.cfi_remember_state
.LCFI7:
	.cfi_def_cfa_offset 0
	.cfi_restore 31
	.cfi_restore 30
	.cfi_restore 29
	.cfi_restore 28
	.cfi_restore 27
	.cfi_restore 26
	.cfi_restore 25
	.cfi_restore 24
	.cfi_restore 23
	blr
.LVL52:
.L74:
.LCFI8:
	.cfi_restore_state
.LBB1189:
.LBB1186:
.LBB1183:
.LBB1180:
.LBB1172:
.LBB1170:
.LBB1168:
.LBB1166:
.LBB1164:
.LBB1163:
.LBB1162:
.LBB1158:
.LBB1103:
.LBB1102:
.LBB1101:
.LBB1100:
.LBB1094:
.LBB1095:
.LBB1096:
	.loc 5 66 0
	lwz 11,-4(9)
.LVL53:
.LBE1096:
.LBE1095:
.LBE1094:
	.loc 4 240 0
	cmpwi 7,11,0
.LBB1099:
.LBB1098:
.LBB1097:
	.loc 5 67 0
	addi 11,11,-1
	stw 11,-4(9)
.LBE1097:
.LBE1098:
.LBE1099:
	.loc 4 240 0
	bgt+ 7,.L46
	.loc 4 244 0
	addi 4,1,11
	bl _ZNSs4_Rep10_M_destroyERKSaIcE
.LVL54:
	b .L46
.LVL55:
.L77:
.LBE1100:
.LBE1101:
.LBE1102:
.LBE1103:
.LBE1158:
.LBB1159:
.LBB1157:
.LBB1156:
.LBB1155:
.LBB1154:
.LBB1148:
.LBB1149:
.LBB1150:
	.loc 5 66 0
	lwz 11,-4(9)
.LVL56:
.LBE1150:
.LBE1149:
.LBE1148:
	.loc 4 240 0
	cmpwi 7,11,0
.LBB1153:
.LBB1152:
.LBB1151:
	.loc 5 67 0
	addi 11,11,-1
	stw 11,-4(9)
.LBE1151:
.LBE1152:
.LBE1153:
	.loc 4 240 0
	bgt+ 7,.L65
	.loc 4 244 0
	addi 4,1,8
	bl _ZNSs4_Rep10_M_destroyERKSaIcE
.LVL57:
	b .L65
.LVL58:
.L76:
.LBE1154:
.LBE1155:
.LBE1156:
.LBE1157:
.LBE1159:
.LBB1160:
.LBB1139:
.LBB1138:
.LBB1137:
.LBB1136:
.LBB1130:
.LBB1131:
.LBB1132:
	.loc 5 66 0
	lwz 11,-4(9)
.LVL59:
.LBE1132:
.LBE1131:
.LBE1130:
	.loc 4 240 0
	cmpwi 7,11,0
.LBB1135:
.LBB1134:
.LBB1133:
	.loc 5 67 0
	addi 11,11,-1
	stw 11,-4(9)
.LBE1133:
.LBE1134:
.LBE1135:
	.loc 4 240 0
	bgt+ 7,.L58
	.loc 4 244 0
	addi 4,1,9
	bl _ZNSs4_Rep10_M_destroyERKSaIcE
.LVL60:
	b .L58
.LVL61:
.L75:
.LBE1136:
.LBE1137:
.LBE1138:
.LBE1139:
.LBE1160:
.LBB1161:
.LBB1121:
.LBB1120:
.LBB1119:
.LBB1118:
.LBB1112:
.LBB1113:
.LBB1114:
	.loc 5 66 0
	lwz 11,-4(9)
.LVL62:
.LBE1114:
.LBE1113:
.LBE1112:
	.loc 4 240 0
	cmpwi 7,11,0
.LBB1117:
.LBB1116:
.LBB1115:
	.loc 5 67 0
	addi 11,11,-1
	stw 11,-4(9)
.LBE1115:
.LBE1116:
.LBE1117:
	.loc 4 240 0
	bgt+ 7,.L52
	.loc 4 244 0
	addi 4,1,10
	bl _ZNSs4_Rep10_M_destroyERKSaIcE
.LVL63:
	b .L52
.LBE1118:
.LBE1119:
.LBE1120:
.LBE1121:
.LBE1161:
.LBE1162:
.LBE1163:
.LBE1164:
.LBE1166:
.LBE1168:
.LBE1170:
.LBE1172:
.LBE1180:
.LBE1183:
.LBE1186:
.LBE1189:
	.cfi_endproc
.LFE1471:
	.size	_ZN10Theme_ListD2Ev, .-_ZN10Theme_ListD2Ev
	.section	.text._ZN11_theme_infoD2Ev,"axG",@progbits,_ZN11_theme_infoD5Ev,comdat
	.align 2
	.weak	_ZN11_theme_infoD2Ev
	.type	_ZN11_theme_infoD2Ev, @function
_ZN11_theme_infoD2Ev:
.LFB1478:
	.file 8 "d:/Projects/SaveGameManager/savegame-manager-gx/trunk/source/Themes/Theme_List.h"
	.loc 8 12 0
	.cfi_startproc
.LVL64:
	mflr 0
	stwu 1,-32(1)
.LCFI9:
	.cfi_def_cfa_offset 32
	.cfi_register 65, 0
	stw 31,28(1)
.LBB1276:
.LBB1277:
.LBB1278:
.LBB1279:
.LBB1280:
	.loc 4 235 0
	lis 31,_ZNSs4_Rep20_S_empty_rep_storageE@ha
	.cfi_offset 31, -4
.LBE1280:
.LBE1279:
.LBE1278:
.LBE1277:
.LBE1276:
	.loc 8 12 0
	stw 0,36(1)
.LBB1302:
.LBB1299:
.LBB1296:
.LBB1290:
.LBB1287:
	.loc 4 235 0
	la 31,_ZNSs4_Rep20_S_empty_rep_storageE@l(31)
.LBE1287:
.LBE1290:
.LBE1296:
.LBE1299:
.LBE1302:
	.loc 8 12 0
	stw 30,24(1)
	.loc 8 12 0
	mr 30,3
	.cfi_offset 30, -8
	.cfi_offset 65, 4
.LVL65:
.LBB1303:
.LBB1300:
.LBB1297:
.LBB1291:
.LBB1292:
.LBB1293:
	.loc 4 288 0
	lwz 9,12(3)
.LBE1293:
.LBE1292:
.LBE1291:
	.loc 4 534 0
	addi 3,9,-12
.LVL66:
.LBB1294:
.LBB1288:
	.loc 4 235 0
	cmpw 7,3,31
	bne- 7,.L104
.LVL67:
.L84:
.LBE1288:
.LBE1294:
.LBE1297:
.LBE1300:
.LBE1303:
.LBB1304:
.LBB1305:
.LBB1306:
.LBB1307:
.LBB1308:
.LBB1309:
	.loc 4 288 0
	lwz 9,8(30)
.LBE1309:
.LBE1308:
.LBE1307:
	.loc 4 534 0
	addi 3,9,-12
.LVL68:
.LBB1310:
.LBB1311:
	.loc 4 235 0
	cmpw 7,3,31
	bne- 7,.L105
.LVL69:
.L90:
.LBE1311:
.LBE1310:
.LBE1306:
.LBE1305:
.LBE1304:
.LBB1322:
.LBB1323:
.LBB1324:
.LBB1325:
.LBB1326:
.LBB1327:
	.loc 4 288 0
	lwz 9,4(30)
.LBE1327:
.LBE1326:
.LBE1325:
	.loc 4 534 0
	addi 3,9,-12
.LVL70:
.LBB1328:
.LBB1329:
	.loc 4 235 0
	cmpw 7,3,31
	bne- 7,.L106
.LVL71:
.L96:
.LBE1329:
.LBE1328:
.LBE1324:
.LBE1323:
.LBE1322:
.LBB1340:
.LBB1341:
.LBB1342:
.LBB1343:
.LBB1344:
.LBB1345:
	.loc 4 288 0
	lwz 9,0(30)
.LBE1345:
.LBE1344:
.LBE1343:
	.loc 4 534 0
	addi 3,9,-12
.LVL72:
.LBB1346:
.LBB1347:
	.loc 4 235 0
	cmpw 7,3,31
	bne- 7,.L107
.LVL73:
.L78:
.LBE1347:
.LBE1346:
.LBE1342:
.LBE1341:
.LBE1340:
	.loc 8 12 0
	lwz 0,36(1)
	lwz 30,24(1)
.LVL74:
	mtlr 0
	lwz 31,28(1)
	addi 1,1,32
	.cfi_remember_state
.LCFI10:
	.cfi_def_cfa_offset 0
	.cfi_restore 31
	.cfi_restore 30
	blr
.LVL75:
.L104:
.LCFI11:
	.cfi_restore_state
.LBB1358:
.LBB1301:
.LBB1298:
.LBB1295:
.LBB1289:
.LBB1281:
.LBB1282:
.LBB1283:
	.loc 5 66 0
	lwz 11,-4(9)
.LVL76:
.LBE1283:
.LBE1282:
.LBE1281:
	.loc 4 240 0
	cmpwi 7,11,0
.LBB1286:
.LBB1285:
.LBB1284:
	.loc 5 67 0
	addi 11,11,-1
	stw 11,-4(9)
.LBE1284:
.LBE1285:
.LBE1286:
	.loc 4 240 0
	bgt+ 7,.L84
	.loc 4 244 0
	addi 4,1,11
	bl _ZNSs4_Rep10_M_destroyERKSaIcE
.LVL77:
	b .L84
.LVL78:
.L107:
.LBE1289:
.LBE1295:
.LBE1298:
.LBE1301:
.LBE1358:
.LBB1359:
.LBB1357:
.LBB1356:
.LBB1355:
.LBB1354:
.LBB1348:
.LBB1349:
.LBB1350:
	.loc 5 66 0
	lwz 11,-4(9)
.LVL79:
.LBE1350:
.LBE1349:
.LBE1348:
	.loc 4 240 0
	cmpwi 7,11,0
.LBB1353:
.LBB1352:
.LBB1351:
	.loc 5 67 0
	addi 11,11,-1
	stw 11,-4(9)
.LBE1351:
.LBE1352:
.LBE1353:
	.loc 4 240 0
	bgt+ 7,.L78
	.loc 4 244 0
	addi 4,1,8
	bl _ZNSs4_Rep10_M_destroyERKSaIcE
.LVL80:
	b .L78
.LVL81:
.L106:
.LBE1354:
.LBE1355:
.LBE1356:
.LBE1357:
.LBE1359:
.LBB1360:
.LBB1339:
.LBB1338:
.LBB1337:
.LBB1336:
.LBB1330:
.LBB1331:
.LBB1332:
	.loc 5 66 0
	lwz 11,-4(9)
.LVL82:
.LBE1332:
.LBE1331:
.LBE1330:
	.loc 4 240 0
	cmpwi 7,11,0
.LBB1335:
.LBB1334:
.LBB1333:
	.loc 5 67 0
	addi 11,11,-1
	stw 11,-4(9)
.LBE1333:
.LBE1334:
.LBE1335:
	.loc 4 240 0
	bgt+ 7,.L96
	.loc 4 244 0
	addi 4,1,9
	bl _ZNSs4_Rep10_M_destroyERKSaIcE
.LVL83:
	b .L96
.LVL84:
.L105:
.LBE1336:
.LBE1337:
.LBE1338:
.LBE1339:
.LBE1360:
.LBB1361:
.LBB1321:
.LBB1320:
.LBB1319:
.LBB1318:
.LBB1312:
.LBB1313:
.LBB1314:
	.loc 5 66 0
	lwz 11,-4(9)
.LVL85:
.LBE1314:
.LBE1313:
.LBE1312:
	.loc 4 240 0
	cmpwi 7,11,0
.LBB1317:
.LBB1316:
.LBB1315:
	.loc 5 67 0
	addi 11,11,-1
	stw 11,-4(9)
.LBE1315:
.LBE1316:
.LBE1317:
	.loc 4 240 0
	bgt+ 7,.L90
	.loc 4 244 0
	addi 4,1,10
	bl _ZNSs4_Rep10_M_destroyERKSaIcE
.LVL86:
	b .L90
.LBE1318:
.LBE1319:
.LBE1320:
.LBE1321:
.LBE1361:
	.cfi_endproc
.LFE1478:
	.size	_ZN11_theme_infoD2Ev, .-_ZN11_theme_infoD2Ev
	.section	".text"
	.align 2
	.globl _ZNK10Theme_List13GetThemeTitleEi
	.type	_ZNK10Theme_List13GetThemeTitleEi, @function
_ZNK10Theme_List13GetThemeTitleEi:
.LFB1483:
	.loc 1 108 0
	.cfi_startproc
.LVL87:
	.loc 1 109 0
	cmpwi 0,4,0
	.loc 1 108 0
	mr 9,3
	.loc 1 110 0
	li 3,0
.LVL88:
	.loc 1 109 0
	bltlr- 0
	.loc 1 137 0 discriminator 2
	lwz 11,0(9)
.LBB1362:
.LBB1363:
	.loc 6 571 0 discriminator 2
	lis 0,0xcccc
	lwz 9,4(9)
.LVL89:
	ori 0,0,52429
	subf 9,11,9
	srawi 9,9,2
	mullw 0,9,0
.LBE1363:
.LBE1362:
	.loc 1 109 0 discriminator 2
	cmpw 7,4,0
	blt- 7,.L110
	.loc 1 113 0
	blr
.L110:
.LVL90:
.LBB1364:
.LBB1365:
.LBB1366:
	.loc 4 288 0
	mulli 4,4,20
.LVL91:
	lwzx 3,11,4
.LBE1366:
.LBE1365:
.LBE1364:
	.loc 1 112 0
	blr
	.cfi_endproc
.LFE1483:
	.size	_ZNK10Theme_List13GetThemeTitleEi, .-_ZNK10Theme_List13GetThemeTitleEi
	.align 2
	.globl _ZNK10Theme_List14GetThemeAuthorEi
	.type	_ZNK10Theme_List14GetThemeAuthorEi, @function
_ZNK10Theme_List14GetThemeAuthorEi:
.LFB1484:
	.loc 1 116 0
	.cfi_startproc
.LVL92:
	.loc 1 117 0
	cmpwi 0,4,0
	.loc 1 116 0
	mr 9,3
	.loc 1 118 0
	li 3,0
.LVL93:
	.loc 1 117 0
	bltlr- 0
	.loc 1 137 0 discriminator 2
	lwz 0,0(9)
.LBB1367:
.LBB1368:
	.loc 6 571 0 discriminator 2
	lwz 11,4(9)
	lis 9,0xcccc
.LVL94:
	ori 9,9,52429
	subf 11,0,11
	srawi 11,11,2
	mullw 9,11,9
.LBE1368:
.LBE1367:
	.loc 1 117 0 discriminator 2
	cmpw 7,4,9
	blt- 7,.L114
	.loc 1 121 0
	blr
.L114:
.LVL95:
.LBB1369:
.LBB1370:
.LBB1371:
	.loc 4 288 0
	mulli 4,4,20
.LVL96:
	add 4,0,4
	lwz 3,4(4)
.LBE1371:
.LBE1370:
.LBE1369:
	.loc 1 120 0
	blr
	.cfi_endproc
.LFE1484:
	.size	_ZNK10Theme_List14GetThemeAuthorEi, .-_ZNK10Theme_List14GetThemeAuthorEi
	.align 2
	.globl _ZNK10Theme_List12GetImageLinkEi
	.type	_ZNK10Theme_List12GetImageLinkEi, @function
_ZNK10Theme_List12GetImageLinkEi:
.LFB1485:
	.loc 1 124 0
	.cfi_startproc
.LVL97:
	.loc 1 125 0
	cmpwi 0,4,0
	.loc 1 124 0
	mr 9,3
	.loc 1 126 0
	li 3,0
.LVL98:
	.loc 1 125 0
	bltlr- 0
	.loc 1 137 0 discriminator 2
	lwz 0,0(9)
.LBB1372:
.LBB1373:
	.loc 6 571 0 discriminator 2
	lwz 11,4(9)
	lis 9,0xcccc
.LVL99:
	ori 9,9,52429
	subf 11,0,11
	srawi 11,11,2
	mullw 9,11,9
.LBE1373:
.LBE1372:
	.loc 1 125 0 discriminator 2
	cmpw 7,4,9
	blt- 7,.L118
	.loc 1 129 0
	blr
.L118:
.LVL100:
.LBB1374:
.LBB1375:
.LBB1376:
	.loc 4 288 0
	mulli 4,4,20
.LVL101:
	add 4,0,4
	lwz 3,8(4)
.LBE1376:
.LBE1375:
.LBE1374:
	.loc 1 128 0
	blr
	.cfi_endproc
.LFE1485:
	.size	_ZNK10Theme_List12GetImageLinkEi, .-_ZNK10Theme_List12GetImageLinkEi
	.align 2
	.globl _ZNK10Theme_List15GetDownloadLinkEi
	.type	_ZNK10Theme_List15GetDownloadLinkEi, @function
_ZNK10Theme_List15GetDownloadLinkEi:
.LFB1486:
	.loc 1 132 0
	.cfi_startproc
.LVL102:
	.loc 1 133 0
	cmpwi 0,4,0
	.loc 1 132 0
	mr 9,3
	.loc 1 134 0
	li 3,0
.LVL103:
	.loc 1 133 0
	bltlr- 0
	.loc 1 137 0 discriminator 2
	lwz 0,0(9)
.LBB1377:
.LBB1378:
	.loc 6 571 0 discriminator 2
	lwz 11,4(9)
	lis 9,0xcccc
.LVL104:
	ori 9,9,52429
	subf 11,0,11
	srawi 11,11,2
	mullw 9,11,9
.LBE1378:
.LBE1377:
	.loc 1 133 0 discriminator 2
	cmpw 7,4,9
	blt- 7,.L122
	.loc 1 137 0
	blr
.L122:
.LVL105:
.LBB1379:
.LBB1380:
.LBB1381:
	.loc 4 288 0
	mulli 4,4,20
.LVL106:
	add 4,0,4
	lwz 3,12(4)
.LBE1381:
.LBE1380:
.LBE1379:
	.loc 1 136 0
	blr
	.cfi_endproc
.LFE1486:
	.size	_ZNK10Theme_List15GetDownloadLinkEi, .-_ZNK10Theme_List15GetDownloadLinkEi
	.section	.text._ZNSt6vectorI11_theme_infoSaIS0_EED2Ev,"axG",@progbits,_ZNSt6vectorI11_theme_infoSaIS0_EED5Ev,comdat
	.align 2
	.weak	_ZNSt6vectorI11_theme_infoSaIS0_EED2Ev
	.type	_ZNSt6vectorI11_theme_infoSaIS0_EED2Ev, @function
_ZNSt6vectorI11_theme_infoSaIS0_EED2Ev:
.LFB1516:
	.loc 6 349 0
	.cfi_startproc
.LVL107:
	mflr 0
	stwu 1,-64(1)
.LCFI12:
	.cfi_def_cfa_offset 64
	.cfi_register 65, 0
	stw 27,44(1)
	stw 0,68(1)
	stw 28,48(1)
.LBB1490:
	.loc 6 350 0
	lwz 27,4(3)
	.cfi_offset 28, -16
	.cfi_offset 65, 4
	.cfi_offset 27, -20
	lwz 28,0(3)
.LBE1490:
	.loc 6 349 0
	stw 23,28(1)
	mr 23,3
	.cfi_offset 23, -36
.LVL108:
.LBB1594:
.LBB1491:
.LBB1492:
.LBB1493:
.LBB1494:
.LBB1495:
	.loc 3 103 0
	cmpw 7,28,27
.LBE1495:
.LBE1494:
.LBE1493:
.LBE1492:
.LBE1491:
.LBE1594:
	.loc 6 349 0
	stw 24,32(1)
	stw 25,36(1)
	stw 26,40(1)
	stw 29,52(1)
	stw 30,56(1)
	stw 31,60(1)
.LBB1595:
.LBB1586:
.LBB1584:
.LBB1582:
.LBB1580:
.LBB1578:
	.loc 3 103 0
	beq- 7,.L125
	.cfi_offset 31, -4
	.cfi_offset 30, -8
	.cfi_offset 29, -12
	.cfi_offset 26, -24
	.cfi_offset 25, -28
	.cfi_offset 24, -32
.LVL109:
	lis 30,_ZNSs4_Rep20_S_empty_rep_storageE@ha
	mr 31,28
	addi 24,28,12
	la 30,_ZNSs4_Rep20_S_empty_rep_storageE@l(30)
	addi 25,28,8
	addi 26,28,4
.LVL110:
.L151:
	.loc 6 349 0
	subf 29,28,31
.LBB1496:
.LBB1497:
.LBB1498:
.LBB1499:
.LBB1500:
.LBB1501:
.LBB1502:
.LBB1503:
.LBB1504:
	.loc 4 288 0
	lwzx 9,29,24
.LBE1504:
.LBE1503:
.LBE1502:
	.loc 4 534 0
	addi 3,9,-12
.LVL111:
.LBB1505:
.LBB1506:
	.loc 4 235 0
	cmpw 7,3,30
	bne- 7,.L158
.LVL112:
.L131:
.LBE1506:
.LBE1505:
.LBE1501:
.LBE1500:
.LBE1499:
.LBB1517:
.LBB1518:
.LBB1519:
.LBB1520:
.LBB1521:
.LBB1522:
	.loc 4 288 0
	lwzx 9,29,25
.LBE1522:
.LBE1521:
.LBE1520:
	.loc 4 534 0
	addi 3,9,-12
.LVL113:
.LBB1523:
.LBB1524:
	.loc 4 235 0
	cmpw 7,3,30
	bne- 7,.L159
.LVL114:
.L137:
.LBE1524:
.LBE1523:
.LBE1519:
.LBE1518:
.LBE1517:
.LBB1535:
.LBB1536:
.LBB1537:
.LBB1538:
.LBB1539:
.LBB1540:
	.loc 4 288 0
	lwzx 9,29,26
.LBE1540:
.LBE1539:
.LBE1538:
	.loc 4 534 0
	addi 3,9,-12
.LVL115:
.LBB1541:
.LBB1542:
	.loc 4 235 0
	cmpw 7,3,30
	bne- 7,.L160
.LVL116:
.L143:
.LBE1542:
.LBE1541:
.LBE1537:
.LBE1536:
.LBE1535:
.LBB1553:
.LBB1554:
.LBB1555:
.LBB1556:
.LBB1557:
.LBB1558:
	.loc 4 288 0
	lwz 9,0(31)
.LBE1558:
.LBE1557:
.LBE1556:
	.loc 4 534 0
	addi 3,9,-12
.LVL117:
.LBB1559:
.LBB1560:
	.loc 4 235 0
	cmpw 7,3,30
	bne- 7,.L161
.LVL118:
.L150:
.LBE1560:
.LBE1559:
.LBE1555:
.LBE1554:
.LBE1553:
.LBE1498:
.LBE1497:
.LBE1496:
	.loc 3 103 0
	addi 31,31,20
.LVL119:
	cmpw 7,27,31
	bne+ 7,.L151
	lwz 28,0(23)
.LVL120:
.L125:
.LBE1578:
.LBE1580:
.LBE1582:
.LBE1584:
.LBE1586:
.LBB1587:
.LBB1588:
.LBB1589:
.LBB1590:
	.loc 6 155 0
	cmpwi 7,28,0
	beq- 7,.L124
.LVL121:
.LBB1591:
.LBB1592:
	.loc 7 98 0
	mr 3,28
	bl _ZdlPv
.LVL122:
.L124:
.LBE1592:
.LBE1591:
.LBE1590:
.LBE1589:
.LBE1588:
.LBE1587:
.LBE1595:
	.loc 6 351 0
	lwz 0,68(1)
	lwz 23,28(1)
.LVL123:
	mtlr 0
	lwz 24,32(1)
	lwz 25,36(1)
	lwz 26,40(1)
	lwz 27,44(1)
.LVL124:
	lwz 28,48(1)
.LVL125:
	lwz 29,52(1)
	lwz 30,56(1)
	lwz 31,60(1)
	addi 1,1,64
	.cfi_remember_state
.LCFI13:
	.cfi_def_cfa_offset 0
	.cfi_restore 31
	.cfi_restore 30
	.cfi_restore 29
	.cfi_restore 28
	.cfi_restore 27
	.cfi_restore 26
	.cfi_restore 25
	.cfi_restore 24
	.cfi_restore 23
	blr
.LVL126:
.L158:
.LCFI14:
	.cfi_restore_state
.LBB1596:
.LBB1593:
.LBB1585:
.LBB1583:
.LBB1581:
.LBB1579:
.LBB1577:
.LBB1576:
.LBB1575:
.LBB1571:
.LBB1516:
.LBB1515:
.LBB1514:
.LBB1513:
.LBB1507:
.LBB1508:
.LBB1509:
	.loc 5 66 0
	lwz 11,-4(9)
.LVL127:
.LBE1509:
.LBE1508:
.LBE1507:
	.loc 4 240 0
	cmpwi 7,11,0
.LBB1512:
.LBB1511:
.LBB1510:
	.loc 5 67 0
	addi 11,11,-1
	stw 11,-4(9)
.LBE1510:
.LBE1511:
.LBE1512:
	.loc 4 240 0
	bgt+ 7,.L131
	.loc 4 244 0
	addi 4,1,11
	bl _ZNSs4_Rep10_M_destroyERKSaIcE
.LVL128:
	b .L131
.LVL129:
.L161:
.LBE1513:
.LBE1514:
.LBE1515:
.LBE1516:
.LBE1571:
.LBB1572:
.LBB1570:
.LBB1569:
.LBB1568:
.LBB1567:
.LBB1561:
.LBB1562:
.LBB1563:
	.loc 5 66 0
	lwz 11,-4(9)
.LVL130:
.LBE1563:
.LBE1562:
.LBE1561:
	.loc 4 240 0
	cmpwi 7,11,0
.LBB1566:
.LBB1565:
.LBB1564:
	.loc 5 67 0
	addi 11,11,-1
	stw 11,-4(9)
.LBE1564:
.LBE1565:
.LBE1566:
	.loc 4 240 0
	bgt+ 7,.L150
	.loc 4 244 0
	addi 4,1,8
	bl _ZNSs4_Rep10_M_destroyERKSaIcE
.LVL131:
	b .L150
.LVL132:
.L160:
.LBE1567:
.LBE1568:
.LBE1569:
.LBE1570:
.LBE1572:
.LBB1573:
.LBB1552:
.LBB1551:
.LBB1550:
.LBB1549:
.LBB1543:
.LBB1544:
.LBB1545:
	.loc 5 66 0
	lwz 11,-4(9)
.LVL133:
.LBE1545:
.LBE1544:
.LBE1543:
	.loc 4 240 0
	cmpwi 7,11,0
.LBB1548:
.LBB1547:
.LBB1546:
	.loc 5 67 0
	addi 11,11,-1
	stw 11,-4(9)
.LBE1546:
.LBE1547:
.LBE1548:
	.loc 4 240 0
	bgt+ 7,.L143
	.loc 4 244 0
	addi 4,1,9
	bl _ZNSs4_Rep10_M_destroyERKSaIcE
.LVL134:
	b .L143
.LVL135:
.L159:
.LBE1549:
.LBE1550:
.LBE1551:
.LBE1552:
.LBE1573:
.LBB1574:
.LBB1534:
.LBB1533:
.LBB1532:
.LBB1531:
.LBB1525:
.LBB1526:
.LBB1527:
	.loc 5 66 0
	lwz 11,-4(9)
.LVL136:
.LBE1527:
.LBE1526:
.LBE1525:
	.loc 4 240 0
	cmpwi 7,11,0
.LBB1530:
.LBB1529:
.LBB1528:
	.loc 5 67 0
	addi 11,11,-1
	stw 11,-4(9)
.LBE1528:
.LBE1529:
.LBE1530:
	.loc 4 240 0
	bgt+ 7,.L137
	.loc 4 244 0
	addi 4,1,10
	bl _ZNSs4_Rep10_M_destroyERKSaIcE
.LVL137:
	b .L137
.LBE1531:
.LBE1532:
.LBE1533:
.LBE1534:
.LBE1574:
.LBE1575:
.LBE1576:
.LBE1577:
.LBE1579:
.LBE1581:
.LBE1583:
.LBE1585:
.LBE1593:
.LBE1596:
	.cfi_endproc
.LFE1516:
	.size	_ZNSt6vectorI11_theme_infoSaIS0_EED2Ev, .-_ZNSt6vectorI11_theme_infoSaIS0_EED2Ev
	.section	.text._ZNSt6vectorI11_theme_infoSaIS0_EE14_M_fill_insertEN9__gnu_cxx17__normal_iteratorIPS0_S2_EEjRKS0_,"axG",@progbits,_ZNSt6vectorI11_theme_infoSaIS0_EE14_M_fill_insertEN9__gnu_cxx17__normal_iteratorIPS0_S2_EEjRKS0_,comdat
	.align 2
	.weak	_ZNSt6vectorI11_theme_infoSaIS0_EE14_M_fill_insertEN9__gnu_cxx17__normal_iteratorIPS0_S2_EEjRKS0_
	.type	_ZNSt6vectorI11_theme_infoSaIS0_EE14_M_fill_insertEN9__gnu_cxx17__normal_iteratorIPS0_S2_EEjRKS0_, @function
_ZNSt6vectorI11_theme_infoSaIS0_EE14_M_fill_insertEN9__gnu_cxx17__normal_iteratorIPS0_S2_EEjRKS0_:
.LFB1574:
	.file 9 "d:\\devkitpro\\devkitppc\\bin\\../lib/gcc/powerpc-eabi/4.6.3/../../../../powerpc-eabi/include/c++/4.6.3/bits/vector.tcc"
	.loc 9 377 0
	.cfi_startproc
	.cfi_personality 0,__gxx_personality_v0
	.cfi_lsda 0,.LLSDA1574
.LVL138:
	mflr 0
	stwu 1,-96(1)
.LCFI15:
	.cfi_def_cfa_offset 96
	.cfi_register 65, 0
	stw 24,64(1)
.LBB1964:
	.loc 9 380 0
	mr. 24,5
	.cfi_offset 24, -32
.LBE1964:
	.loc 9 377 0
	stw 0,100(1)
	stw 28,80(1)
	lwz 28,0(4)
	.cfi_offset 28, -16
	.cfi_offset 65, 4
	stw 27,76(1)
	mr 27,3
	.cfi_offset 27, -20
	stw 29,84(1)
	mr 29,6
	.cfi_offset 29, -12
	stw 31,92(1)
.LBB2497:
.LBB1965:
.LBB1966:
.LBB1967:
.LBB1968:
.LBB1969:
.LBB1970:
.LBB1971:
	.file 10 "d:\\devkitpro\\devkitppc\\bin\\../lib/gcc/powerpc-eabi/4.6.3/../../../../powerpc-eabi/include/c++/4.6.3/bits/stl_uninitialized.h"
	.loc 10 191 0
	mr 31,28
	.cfi_offset 31, -4
.LBE1971:
.LBE1970:
.LBE1969:
.LBE1968:
.LBE1967:
.LBE1966:
.LBE1965:
.LBE2497:
	.loc 9 377 0
	stw 20,48(1)
	stw 21,52(1)
	stw 22,56(1)
	stw 23,60(1)
	stw 25,68(1)
	stw 26,72(1)
	stw 30,88(1)
.LBB2498:
	.loc 9 380 0
	beq- 0,.L162
	.cfi_offset 30, -8
	.cfi_offset 26, -24
	.cfi_offset 25, -28
	.cfi_offset 23, -36
	.cfi_offset 22, -40
	.cfi_offset 21, -44
	.cfi_offset 20, -48
.LBB2495:
	.loc 9 382 0
	lwz 11,4(3)
	lis 9,0xcccc
	lwz 0,8(3)
	ori 9,9,52429
	subf 0,11,0
	srawi 0,0,2
	mullw 0,0,9
	cmplw 7,24,0
	ble- 7,.L355
.LVL139:
.LBB2233:
.LBB2004:
.LBB2005:
.LBB2006:
.LBB2007:
	.loc 6 571 0
	lwz 10,0(3)
	subf 0,10,11
	srawi 0,0,2
	mullw 0,0,9
.LBE2007:
.LBE2006:
	.loc 6 1241 0
	lis 9,0xccc
	ori 9,9,52428
	subf 9,0,9
	cmplw 7,24,9
	bgt- 7,.L356
.LVL140:
	.loc 6 1244 0
	cmplw 7,0,24
	mr 9,0
	bge- 7,.L226
	mr 9,24
.L226:
	add 9,9,0
.LVL141:
	.loc 6 1245 0
	cmplw 7,0,9
	bgt- 7,.L227
.LVL142:
	lis 0,0xccc
	ori 0,0,52428
	cmplw 7,9,0
	ble- 7,.L357
.L227:
.LVL143:
.LBE2005:
.LBE2004:
.LBB2009:
.LBB2010:
	.file 11 "d:\\devkitpro\\devkitppc\\bin\\../lib/gcc/powerpc-eabi/4.6.3/../../../../powerpc-eabi/include/c++/4.6.3/bits/stl_iterator.h"
	.loc 11 892 0
	subf 21,10,28
	lis 0,0xcccc
	srawi 21,21,2
	ori 0,0,52429
	mullw 21,21,0
.LVL144:
.LBE2010:
.LBE2009:
	.loc 9 418 0
	lis 20,0xccc
	li 3,-16
.LVL145:
	ori 20,20,52428
.LVL146:
.L301:
.LEHB0:
.LBB2013:
.LBB2014:
.LBB2015:
.LBB2016:
	.loc 7 92 0
	bl _Znwj
.LEHE0:
.LVL147:
	mr 23,3
.LVL148:
.L228:
.LBE2016:
.LBE2015:
.LBE2014:
.LBE2013:
	.loc 9 424 0
	mulli 22,21,20
	stw 24,40(1)
	add 22,23,22
.LVL149:
	.loc 10 185 0
	mr 30,22
.LVL150:
.L234:
.LBB2020:
.LBB2000:
.LBB1996:
.LBB1992:
.LBB1988:
.LBB1972:
.LBB1973:
	.loc 3 84 0
	cmpwi 7,30,0
	beq- 7,.L229
.LVL151:
.LBB1974:
.LBB1975:
	.loc 8 12 0
	mr 3,30
	mr 4,29
.LEHB1:
	bl _ZNSsC1ERKSs
.LEHE1:
	addi 26,30,4
.LVL152:
	addi 4,29,4
	mr 3,26
.LEHB2:
	bl _ZNSsC1ERKSs
.LEHE2:
	addi 25,30,8
	addi 4,29,8
	mr 3,25
.LEHB3:
	bl _ZNSsC1ERKSs
.LEHE3:
	addi 3,30,12
	addi 4,29,12
.LEHB4:
	bl _ZNSsC1ERKSs
.LEHE4:
	lbz 0,16(29)
	stb 0,16(30)
.LVL153:
.L229:
.LBE1975:
.LBE1974:
.LBE1973:
.LBE1972:
	.loc 10 188 0
	lwz 0,40(1)
	addi 30,30,20
.LVL154:
	addic. 9,0,-1
	stw 9,40(1)
	bne+ 0,.L234
.LVL155:
.LBE1988:
.LBE1992:
.LBE1996:
.LBE2000:
.LBE2020:
	.loc 9 429 0
	lwz 29,0(27)
.LVL156:
.LBB2021:
.LBB2022:
.LBB2023:
.LBB2024:
.LBB2025:
.LBB2026:
	.loc 10 76 0
	mr 30,23
.LVL157:
	cmpw 7,29,28
	beq- 7,.L240
.LVL158:
.L246:
.LBB2027:
.LBB2028:
	.loc 3 84 0
	cmpwi 7,30,0
	beq- 7,.L241
.LVL159:
.LBB2029:
.LBB2030:
	.loc 8 12 0
	mr 3,30
	mr 4,29
.LEHB5:
	bl _ZNSsC1ERKSs
.LEHE5:
	addi 26,30,4
.LVL160:
	addi 4,29,4
.LVL161:
	mr 3,26
.LEHB6:
	bl _ZNSsC1ERKSs
.LEHE6:
	addi 25,30,8
	addi 4,29,8
	mr 3,25
.LEHB7:
	bl _ZNSsC1ERKSs
.LEHE7:
	addi 3,30,12
	addi 4,29,12
.LEHB8:
	bl _ZNSsC1ERKSs
.LEHE8:
	lbz 0,16(29)
	stb 0,16(30)
.LVL162:
.L241:
.LBE2030:
.LBE2029:
.LBE2028:
.LBE2027:
	.loc 10 76 0
	addi 29,29,20
.LVL163:
	addi 30,30,20
.LVL164:
	cmpw 7,28,29
	bne+ 7,.L246
.LVL165:
.L240:
.LBE2026:
.LBE2025:
.LBE2024:
.LBE2023:
.LBE2022:
.LBE2021:
	.loc 9 436 0
	lwz 29,4(27)
.LVL166:
	.loc 9 434 0
	mulli 25,24,20
.LBB2063:
.LBB2064:
.LBB2065:
.LBB2066:
.LBB2067:
.LBB2068:
	.loc 10 76 0
	cmpw 7,29,28
.LBE2068:
.LBE2067:
.LBE2066:
.LBE2065:
.LBE2064:
.LBE2063:
	.loc 9 434 0
	add 25,30,25
.LVL167:
.LBB2110:
.LBB2105:
.LBB2100:
.LBB2095:
.LBB2090:
.LBB2085:
	.loc 10 76 0
	mr 30,25
	beq- 7,.L248
.LVL168:
.L342:
.LBB2069:
.LBB2070:
	.loc 3 84 0
	cmpwi 7,30,0
	beq- 7,.L253
.LVL169:
.LBB2071:
.LBB2072:
	.loc 8 12 0
	mr 3,30
	mr 4,31
.LEHB9:
	bl _ZNSsC1ERKSs
.LEHE9:
	addi 28,30,4
.LVL170:
	addi 4,31,4
	mr 3,28
.LEHB10:
	bl _ZNSsC1ERKSs
.LEHE10:
	addi 26,30,8
	addi 4,31,8
	mr 3,26
.LEHB11:
	bl _ZNSsC1ERKSs
.LEHE11:
	addi 3,30,12
	addi 4,31,12
.LEHB12:
	bl _ZNSsC1ERKSs
.LEHE12:
	lbz 0,16(31)
	stb 0,16(30)
.LVL171:
.L253:
.LBE2072:
.LBE2071:
.LBE2070:
.LBE2069:
	.loc 10 76 0
	addi 31,31,20
.LVL172:
	addi 30,30,20
.LVL173:
	cmpw 7,29,31
	bne+ 7,.L342
	lwz 29,4(27)
.LVL174:
.L248:
.LBE2085:
.LBE2090:
.LBE2095:
.LBE2100:
.LBE2105:
.LBE2110:
	.loc 9 454 0
	lwz 25,0(27)
.LVL175:
.LBB2111:
.LBB2112:
.LBB2113:
.LBB2114:
.LBB2115:
	.loc 3 103 0
	cmpw 7,25,29
	beq- 7,.L260
	lis 28,_ZNSs4_Rep20_S_empty_rep_storageE@ha
	mr 31,25
	la 28,_ZNSs4_Rep20_S_empty_rep_storageE@l(28)
	addi 21,25,12
.LVL176:
	addi 22,25,8
.LVL177:
	addi 24,25,4
.LVL178:
.L289:
.LBE2115:
.LBE2114:
.LBE2113:
.LBE2112:
.LBE2111:
.LBB2206:
.LBB2106:
.LBB2101:
.LBB2096:
.LBB2091:
.LBB2086:
	.loc 9 377 0
	subf 26,25,31
.LBE2086:
.LBE2091:
.LBE2096:
.LBE2101:
.LBE2106:
.LBE2206:
.LBB2207:
.LBB2204:
.LBB2202:
.LBB2200:
.LBB2198:
.LBB2116:
.LBB2117:
.LBB2118:
.LBB2119:
.LBB2120:
.LBB2121:
.LBB2122:
.LBB2123:
.LBB2124:
	.loc 4 288 0
	lwzx 9,26,21
.LBE2124:
.LBE2123:
.LBE2122:
	.loc 4 534 0
	addi 3,9,-12
.LVL179:
.LBB2125:
.LBB2126:
	.loc 4 235 0
	cmpw 7,3,28
	bne- 7,.L358
.LVL180:
.L269:
.LBE2126:
.LBE2125:
.LBE2121:
.LBE2120:
.LBE2119:
.LBB2137:
.LBB2138:
.LBB2139:
.LBB2140:
.LBB2141:
.LBB2142:
	.loc 4 288 0
	lwzx 9,26,22
.LBE2142:
.LBE2141:
.LBE2140:
	.loc 4 534 0
	addi 3,9,-12
.LVL181:
.LBB2143:
.LBB2144:
	.loc 4 235 0
	cmpw 7,3,28
	bne- 7,.L359
.LVL182:
.L275:
.LBE2144:
.LBE2143:
.LBE2139:
.LBE2138:
.LBE2137:
.LBB2155:
.LBB2156:
.LBB2157:
.LBB2158:
.LBB2159:
.LBB2160:
	.loc 4 288 0
	lwzx 9,26,24
.LBE2160:
.LBE2159:
.LBE2158:
	.loc 4 534 0
	addi 3,9,-12
.LVL183:
.LBB2161:
.LBB2162:
	.loc 4 235 0
	cmpw 7,3,28
	bne- 7,.L360
.LVL184:
.L281:
.LBE2162:
.LBE2161:
.LBE2157:
.LBE2156:
.LBE2155:
.LBB2173:
.LBB2174:
.LBB2175:
.LBB2176:
.LBB2177:
.LBB2178:
	.loc 4 288 0
	lwz 9,0(31)
.LBE2178:
.LBE2177:
.LBE2176:
	.loc 4 534 0
	addi 3,9,-12
.LVL185:
.LBB2179:
.LBB2180:
	.loc 4 235 0
	cmpw 7,3,28
	bne- 7,.L361
.LVL186:
.L288:
.LBE2180:
.LBE2179:
.LBE2175:
.LBE2174:
.LBE2173:
.LBE2118:
.LBE2117:
.LBE2116:
	.loc 3 103 0
	addi 31,31,20
.LVL187:
	cmpw 7,29,31
	bne+ 7,.L289
	lwz 25,0(27)
.LVL188:
.L260:
.LBE2198:
.LBE2200:
.LBE2202:
.LBE2204:
.LBE2207:
.LBB2208:
.LBB2209:
	.loc 6 155 0 discriminator 1
	cmpwi 7,25,0
	beq- 7,.L290
.LVL189:
.LBB2210:
.LBB2211:
	.loc 7 98 0
	mr 3,25
	bl _ZdlPv
.LVL190:
.L290:
.LBE2211:
.LBE2210:
.LBE2209:
.LBE2208:
	.loc 9 461 0 discriminator 1
	mulli 20,20,20
	.loc 9 459 0 discriminator 1
	stw 23,0(27)
	.loc 9 460 0 discriminator 1
	stw 30,4(27)
	.loc 9 461 0 discriminator 1
	add 23,23,20
.LVL191:
	stw 23,8(27)
.LVL192:
.L162:
.LBE2233:
.LBE2495:
.LBE2498:
	.loc 9 464 0
	lwz 0,100(1)
	lwz 20,48(1)
	mtlr 0
	lwz 21,52(1)
	lwz 22,56(1)
	lwz 23,60(1)
	lwz 24,64(1)
	lwz 25,68(1)
	lwz 26,72(1)
	lwz 27,76(1)
.LVL193:
	lwz 28,80(1)
	lwz 29,84(1)
	lwz 30,88(1)
	lwz 31,92(1)
	addi 1,1,96
	.cfi_remember_state
.LCFI16:
	.cfi_def_cfa_offset 0
	.cfi_restore 31
	.cfi_restore 30
	.cfi_restore 29
	.cfi_restore 28
	.cfi_restore 27
	.cfi_restore 26
	.cfi_restore 25
	.cfi_restore 24
	.cfi_restore 23
	.cfi_restore 22
	.cfi_restore 21
	.cfi_restore 20
	blr
.LVL194:
.L355:
.LCFI17:
	.cfi_restore_state
.LBB2499:
.LBB2496:
.LBB2234:
.LBB2235:
.LBB2236:
	.loc 8 12 0
	addi 3,1,16
.LVL195:
	mr 4,6
.LEHB13:
	bl _ZNSsC1ERKSs
.LEHE13:
.LVL196:
	addi 3,1,20
	addi 4,29,4
.LEHB14:
	bl _ZNSsC1ERKSs
.LEHE14:
	addi 3,1,24
	addi 4,29,8
.LEHB15:
	bl _ZNSsC1ERKSs
.LEHE15:
	addi 3,1,28
	addi 4,29,12
.LEHB16:
	bl _ZNSsC1ERKSs
.LEHE16:
.LBE2236:
.LBE2235:
.LBB2239:
	.loc 1 137 0
	lwz 26,4(27)
.LBE2239:
.LBB2240:
.LBB2241:
	.loc 11 892 0
	lis 0,0xcccc
	ori 0,0,52429
	subf 23,28,26
	srawi 23,23,2
	mullw 23,23,0
.LBE2241:
.LBE2240:
.LBB2242:
.LBB2237:
	.loc 8 12 0
	lbz 0,16(29)
	stb 0,32(1)
.LVL197:
.LBE2237:
.LBE2242:
	.loc 9 388 0
	cmplw 7,24,23
	bge- 7,.L362
	.loc 9 390 0
	mulli 23,24,20
.LVL198:
	subf 24,23,26
.LVL199:
.LBB2243:
.LBB2244:
.LBB2245:
.LBB2246:
.LBB2247:
.LBB2248:
	.loc 10 76 0
	cmpw 7,24,26
	beq- 7,.L302
	mr 30,24
	mr 31,26
.LVL200:
.L176:
.LBB2249:
.LBB2250:
	.loc 3 84 0
	cmpwi 7,31,0
	beq- 7,.L171
.LVL201:
.LBB2251:
.LBB2252:
	.loc 8 12 0
	mr 3,31
	mr 4,30
.LEHB17:
	bl _ZNSsC1ERKSs
.LEHE17:
	addi 29,31,4
	addi 4,30,4
.LVL202:
	mr 3,29
.LEHB18:
	bl _ZNSsC1ERKSs
.LEHE18:
	addi 25,31,8
	addi 4,30,8
	mr 3,25
.LEHB19:
	bl _ZNSsC1ERKSs
.LEHE19:
	addi 3,31,12
	addi 4,30,12
.LEHB20:
	bl _ZNSsC1ERKSs
.LEHE20:
	lbz 0,16(30)
	stb 0,16(31)
.LVL203:
.L171:
.LBE2252:
.LBE2251:
.LBE2250:
.LBE2249:
	.loc 10 76 0
	addi 30,30,20
.LVL204:
	addi 31,31,20
.LVL205:
	cmpw 7,26,30
	bne+ 7,.L176
	lwz 11,4(27)
.LVL206:
.L170:
.LBE2248:
.LBE2247:
.LBE2246:
.LBE2245:
.LBE2244:
.LBE2243:
.LBB2275:
.LBB2276:
.LBB2277:
.LBB2278:
.LBB2279:
.LBB2280:
	.file 12 "d:\\devkitpro\\devkitppc\\bin\\../lib/gcc/powerpc-eabi/4.6.3/../../../../powerpc-eabi/include/c++/4.6.3/bits/stl_algobase.h"
	.loc 12 530 0
	subf 9,28,24
	lis 0,0xcccc
	ori 0,0,52429
	srawi 9,9,2
	mullw. 10,9,0
.LBE2280:
.LBE2279:
.LBE2278:
.LBE2277:
.LBE2276:
.LBE2275:
	.loc 9 394 0
	add 0,11,23
	stw 0,4(27)
.LVL207:
.LBB2296:
.LBB2295:
.LBB2294:
.LBB2293:
.LBB2292:
.LBB2291:
	.loc 12 530 0
	stw 10,40(1)
	bgt+ 0,.L352
	b .L178
.LVL208:
.L303:
	.loc 12 531 0
	mr 24,30
.LVL209:
	mr 26,31
.LVL210:
.L352:
	addi 31,26,-20
.LVL211:
	addi 30,24,-20
.LVL212:
.LBB2281:
.LBB2282:
.LBB2283:
.LBB2284:
	.loc 4 542 0
	mr 3,31
	mr 4,30
.LEHB21:
	bl _ZNSs6assignERKSs
.LVL213:
.LBE2284:
.LBE2283:
.LBB2285:
.LBB2286:
	addi 3,26,-16
	addi 4,24,-16
	bl _ZNSs6assignERKSs
.LVL214:
.LBE2286:
.LBE2285:
.LBB2287:
.LBB2288:
	addi 3,26,-12
	addi 4,24,-12
	bl _ZNSs6assignERKSs
.LVL215:
.LBE2288:
.LBE2287:
.LBB2289:
.LBB2290:
	addi 3,26,-8
	addi 4,24,-8
	bl _ZNSs6assignERKSs
.LVL216:
.LBE2290:
.LBE2289:
	.loc 8 12 0
	lbz 0,16(30)
	stb 0,16(31)
.LBE2282:
.LBE2281:
	.loc 12 530 0
	lwz 0,40(1)
	addic. 9,0,-1
	stw 9,40(1)
	bne+ 0,.L303
.LVL217:
.L178:
.LBE2291:
.LBE2292:
.LBE2293:
.LBE2294:
.LBE2295:
.LBE2296:
	.loc 9 397 0
	add 23,28,23
.LVL218:
.LBB2297:
.LBB2298:
.LBB2299:
	.loc 12 675 0
	cmpw 7,23,28
	beq- 7,.L184
.LVL219:
.L185:
.LBB2300:
.LBB2301:
.LBB2302:
.LBB2303:
	.loc 4 542 0
	mr 3,28
	addi 4,1,16
	bl _ZNSs6assignERKSs
.LVL220:
.LBE2303:
.LBE2302:
.LBB2304:
.LBB2305:
	addi 3,28,4
	addi 4,1,20
.LVL221:
	bl _ZNSs6assignERKSs
.LVL222:
.LBE2305:
.LBE2304:
.LBB2306:
.LBB2307:
	addi 3,28,8
	addi 4,1,24
.LVL223:
	bl _ZNSs6assignERKSs
.LVL224:
.LBE2307:
.LBE2306:
.LBB2308:
.LBB2309:
	addi 3,28,12
	addi 4,1,28
.LVL225:
	bl _ZNSs6assignERKSs
.LEHE21:
.LVL226:
.LBE2309:
.LBE2308:
	.loc 8 12 0
	lbz 0,32(1)
	stb 0,16(28)
.LVL227:
	addi 28,28,20
.LVL228:
.LBE2301:
.LBE2300:
	.loc 12 675 0
	cmpw 7,23,28
	bne+ 7,.L185
.LVL229:
.L184:
.LBE2299:
.LBE2298:
.LBE2297:
.LBB2310:
.LBB2311:
.LBB2312:
.LBB2313:
.LBB2314:
.LBB2315:
.LBB2316:
.LBB2317:
	.loc 4 288 0 discriminator 1
	lwz 9,28(1)
.LBE2317:
.LBE2316:
.LBE2315:
.LBB2318:
.LBB2319:
	.loc 4 235 0 discriminator 1
	lis 28,_ZNSs4_Rep20_S_empty_rep_storageE@ha
	la 28,_ZNSs4_Rep20_S_empty_rep_storageE@l(28)
.LBE2319:
.LBE2318:
	.loc 4 534 0 discriminator 1
	addi 3,9,-12
.LVL230:
.LBB2328:
.LBB2326:
	.loc 4 235 0 discriminator 1
	cmpw 7,3,28
	bne- 7,.L363
.LVL231:
.L212:
.LBE2326:
.LBE2328:
.LBE2314:
.LBE2313:
.LBE2312:
.LBB2332:
.LBB2333:
.LBB2334:
.LBB2335:
.LBB2336:
.LBB2337:
	.loc 4 288 0
	lwz 9,24(1)
.LBE2337:
.LBE2336:
.LBE2335:
	.loc 4 534 0
	addi 3,9,-12
.LVL232:
.LBB2338:
.LBB2339:
	.loc 4 235 0
	cmpw 7,3,28
	bne- 7,.L364
.LVL233:
.L218:
.LBE2339:
.LBE2338:
.LBE2334:
.LBE2333:
.LBE2332:
.LBB2350:
.LBB2351:
.LBB2352:
.LBB2353:
.LBB2354:
.LBB2355:
	.loc 4 288 0
	lwz 9,20(1)
.LBE2355:
.LBE2354:
.LBE2353:
	.loc 4 534 0
	addi 3,9,-12
.LVL234:
.LBB2356:
.LBB2357:
	.loc 4 235 0
	cmpw 7,3,28
	bne- 7,.L365
.LVL235:
.L224:
.LBE2357:
.LBE2356:
.LBE2352:
.LBE2351:
.LBE2350:
.LBB2368:
.LBB2369:
.LBB2370:
.LBB2371:
.LBB2372:
.LBB2373:
	.loc 4 288 0
	lwz 9,16(1)
.LBE2373:
.LBE2372:
.LBE2371:
	.loc 4 534 0
	addi 3,9,-12
.LVL236:
.LBB2374:
.LBB2375:
	.loc 4 235 0
	cmpw 7,3,28
	beq+ 7,.L162
.LVL237:
.LBB2376:
.LBB2377:
.LBB2378:
	.loc 5 66 0
	lwz 11,-4(9)
.LVL238:
.LBE2378:
.LBE2377:
.LBE2376:
	.loc 4 240 0
	cmpwi 7,11,0
.LBB2381:
.LBB2380:
.LBB2379:
	.loc 5 67 0
	addi 11,11,-1
	stw 11,-4(9)
.LBE2379:
.LBE2380:
.LBE2381:
	.loc 4 240 0
	bgt+ 7,.L162
	.loc 4 244 0
	addi 4,1,12
	bl _ZNSs4_Rep10_M_destroyERKSaIcE
.LVL239:
	b .L162
.LVL240:
.L357:
.LBE2375:
.LBE2374:
.LBE2370:
.LBE2369:
.LBE2368:
.LBE2311:
.LBE2310:
.LBE2234:
.LBB2485:
.LBB2212:
.LBB2017:
	.loc 6 150 0
	cmpwi 7,9,0
.LBE2017:
.LBE2212:
.LBB2213:
.LBB2011:
	.loc 11 892 0
	subf 10,10,28
	lis 0,0xcccc
	srawi 21,10,2
	ori 0,0,52429
.LBE2011:
.LBE2213:
.LBB2214:
.LBB2018:
	.loc 6 150 0
	li 20,0
.LBE2018:
.LBE2214:
.LBB2215:
.LBB2012:
	.loc 11 892 0
	mullw 21,21,0
.LVL241:
.LBE2012:
.LBE2215:
.LBB2216:
.LBB2019:
	.loc 6 150 0
	li 23,0
	beq+ 7,.L228
	mulli 3,9,20
	mr 20,9
	b .L301
.LVL242:
.L362:
.LBE2019:
.LBE2216:
.LBE2485:
.LBB2486:
.LBB2387:
.LBB2388:
.LBB2389:
.LBB2390:
.LBB2391:
	.loc 10 188 0
	subf. 25,23,24
	beq- 0,.L304
	stw 25,40(1)
	mr 31,26
.LVL243:
.L192:
.LBB2392:
.LBB2393:
	.loc 3 84 0
	cmpwi 7,31,0
	beq- 7,.L187
.LVL244:
.LBB2394:
.LBB2395:
	.loc 8 12 0
	mr 3,31
	addi 4,1,16
.LEHB22:
	bl _ZNSsC1ERKSs
.LEHE22:
	addi 30,31,4
.LVL245:
	addi 4,1,20
	mr 3,30
.LEHB23:
	bl _ZNSsC1ERKSs
.LEHE23:
	addi 29,31,8
	addi 4,1,24
	mr 3,29
.LEHB24:
	bl _ZNSsC1ERKSs
.LEHE24:
	addi 3,31,12
	addi 4,1,28
.LEHB25:
	bl _ZNSsC1ERKSs
.LEHE25:
	lbz 0,32(1)
	stb 0,16(31)
.LVL246:
.L187:
.LBE2395:
.LBE2394:
.LBE2393:
.LBE2392:
	.loc 10 188 0
	lwz 0,40(1)
	addi 31,31,20
.LVL247:
	addic. 9,0,-1
	stw 9,40(1)
	bne+ 0,.L192
	lwz 24,4(27)
.LVL248:
.L186:
.LBE2391:
.LBE2390:
.LBE2389:
.LBE2388:
.LBE2387:
.LBB2424:
.LBB2425:
.LBB2426:
.LBB2427:
.LBB2428:
.LBB2429:
	.loc 10 76 0
	cmpw 7,26,28
.LBE2429:
.LBE2428:
.LBE2427:
.LBE2426:
.LBE2425:
.LBE2424:
	.loc 9 406 0
	mulli 25,25,20
.LVL249:
	add 24,24,25
	stw 24,4(27)
.LVL250:
.LBB2461:
.LBB2458:
.LBB2455:
.LBB2452:
.LBB2449:
.LBB2446:
	.loc 10 76 0
	beq- 7,.L196
	mr 30,28
	mr 31,24
.LVL251:
.L202:
.LBB2430:
.LBB2431:
	.loc 3 84 0
	cmpwi 7,31,0
	beq- 7,.L197
.LVL252:
.LBB2432:
.LBB2433:
	.loc 8 12 0
	mr 3,31
	mr 4,30
.LEHB26:
	bl _ZNSsC1ERKSs
.LEHE26:
	addi 29,31,4
.LVL253:
	addi 4,30,4
	mr 3,29
.LEHB27:
	bl _ZNSsC1ERKSs
.LEHE27:
	addi 25,31,8
	addi 4,30,8
	mr 3,25
.LEHB28:
	bl _ZNSsC1ERKSs
.LEHE28:
	addi 3,31,12
	addi 4,30,12
.LEHB29:
	bl _ZNSsC1ERKSs
.LEHE29:
	lbz 0,16(30)
	stb 0,16(31)
.LVL254:
.L197:
.LBE2433:
.LBE2432:
.LBE2431:
.LBE2430:
	.loc 10 76 0
	addi 30,30,20
.LVL255:
	addi 31,31,20
.LVL256:
	cmpw 7,26,30
	bne+ 7,.L202
.LBE2446:
.LBE2449:
.LBE2452:
.LBE2455:
.LBE2458:
.LBE2461:
	.loc 9 410 0
	lwz 0,4(27)
	mulli 23,23,20
.LVL257:
	add 0,0,23
	stw 0,4(27)
.LVL258:
.L203:
.LBB2462:
.LBB2463:
.LBB2464:
.LBB2465:
.LBB2466:
.LBB2467:
.LBB2468:
	.loc 4 542 0
	mr 3,28
	addi 4,1,16
.LEHB30:
	bl _ZNSs6assignERKSs
.LVL259:
.LBE2468:
.LBE2467:
.LBB2469:
.LBB2470:
	addi 3,28,4
	addi 4,1,20
.LVL260:
	bl _ZNSs6assignERKSs
.LVL261:
.LBE2470:
.LBE2469:
.LBB2471:
.LBB2472:
	addi 3,28,8
	addi 4,1,24
.LVL262:
	bl _ZNSs6assignERKSs
.LVL263:
.LBE2472:
.LBE2471:
.LBB2473:
.LBB2474:
	addi 3,28,12
	addi 4,1,28
.LVL264:
	bl _ZNSs6assignERKSs
.LEHE30:
.LVL265:
.LBE2474:
.LBE2473:
	.loc 8 12 0
	lbz 0,32(1)
	stb 0,16(28)
.LVL266:
	addi 28,28,20
.LVL267:
.LBE2466:
.LBE2465:
	.loc 12 675 0
	cmpw 7,26,28
	bne+ 7,.L203
	b .L184
.LVL268:
.L302:
.LBE2464:
.LBE2463:
.LBE2462:
.LBB2475:
.LBB2273:
.LBB2271:
.LBB2269:
.LBB2267:
.LBB2265:
	.loc 10 76 0
	mr 11,24
	b .L170
.LVL269:
.L196:
.LBE2265:
.LBE2267:
.LBE2269:
.LBE2271:
.LBE2273:
.LBE2475:
	.loc 9 410 0
	mulli 23,23,20
.LVL270:
	add 24,24,23
.LVL271:
	stw 24,4(27)
.LVL272:
	b .L184
.LVL273:
.L304:
.LBB2476:
.LBB2421:
.LBB2418:
.LBB2415:
.LBB2412:
	.loc 1 137 0
	mr 24,26
.LVL274:
	b .L186
.LVL275:
.L358:
.LBE2412:
.LBE2415:
.LBE2418:
.LBE2421:
.LBE2476:
.LBE2486:
.LBB2487:
.LBB2217:
.LBB2205:
.LBB2203:
.LBB2201:
.LBB2199:
.LBB2197:
.LBB2196:
.LBB2195:
.LBB2191:
.LBB2136:
.LBB2135:
.LBB2134:
.LBB2133:
.LBB2127:
.LBB2128:
.LBB2129:
	.loc 5 66 0
	lwz 11,-4(9)
.LVL276:
.LBE2129:
.LBE2128:
.LBE2127:
	.loc 4 240 0
	cmpwi 7,11,0
.LBB2132:
.LBB2131:
.LBB2130:
	.loc 5 67 0
	addi 11,11,-1
	stw 11,-4(9)
.LBE2130:
.LBE2131:
.LBE2132:
	.loc 4 240 0
	bgt+ 7,.L269
	.loc 4 244 0
	addi 4,1,11
	bl _ZNSs4_Rep10_M_destroyERKSaIcE
.LVL277:
	b .L269
.LVL278:
.L359:
.LBE2133:
.LBE2134:
.LBE2135:
.LBE2136:
.LBE2191:
.LBB2192:
.LBB2154:
.LBB2153:
.LBB2152:
.LBB2151:
.LBB2145:
.LBB2146:
.LBB2147:
	.loc 5 66 0
	lwz 11,-4(9)
.LVL279:
.LBE2147:
.LBE2146:
.LBE2145:
	.loc 4 240 0
	cmpwi 7,11,0
.LBB2150:
.LBB2149:
.LBB2148:
	.loc 5 67 0
	addi 11,11,-1
	stw 11,-4(9)
.LBE2148:
.LBE2149:
.LBE2150:
	.loc 4 240 0
	bgt+ 7,.L275
	.loc 4 244 0
	addi 4,1,10
	bl _ZNSs4_Rep10_M_destroyERKSaIcE
.LVL280:
	b .L275
.LVL281:
.L360:
.LBE2151:
.LBE2152:
.LBE2153:
.LBE2154:
.LBE2192:
.LBB2193:
.LBB2172:
.LBB2171:
.LBB2170:
.LBB2169:
.LBB2163:
.LBB2164:
.LBB2165:
	.loc 5 66 0
	lwz 11,-4(9)
.LVL282:
.LBE2165:
.LBE2164:
.LBE2163:
	.loc 4 240 0
	cmpwi 7,11,0
.LBB2168:
.LBB2167:
.LBB2166:
	.loc 5 67 0
	addi 11,11,-1
	stw 11,-4(9)
.LBE2166:
.LBE2167:
.LBE2168:
	.loc 4 240 0
	bgt+ 7,.L281
	.loc 4 244 0
	addi 4,1,9
	bl _ZNSs4_Rep10_M_destroyERKSaIcE
.LVL283:
	b .L281
.LVL284:
.L361:
.LBE2169:
.LBE2170:
.LBE2171:
.LBE2172:
.LBE2193:
.LBB2194:
.LBB2190:
.LBB2189:
.LBB2188:
.LBB2187:
.LBB2181:
.LBB2182:
.LBB2183:
	.loc 5 66 0
	lwz 11,-4(9)
.LVL285:
.LBE2183:
.LBE2182:
.LBE2181:
	.loc 4 240 0
	cmpwi 7,11,0
.LBB2186:
.LBB2185:
.LBB2184:
	.loc 5 67 0
	addi 11,11,-1
	stw 11,-4(9)
.LBE2184:
.LBE2185:
.LBE2186:
	.loc 4 240 0
	bgt+ 7,.L288
	.loc 4 244 0
	addi 4,1,8
	bl _ZNSs4_Rep10_M_destroyERKSaIcE
.LVL286:
	b .L288
.LVL287:
.L320:
	mr 29,3
.L189:
.LBE2187:
.LBE2188:
.LBE2189:
.LBE2190:
.LBE2194:
.LBE2195:
.LBE2196:
.LBE2197:
.LBE2199:
.LBE2201:
.LBE2203:
.LBE2205:
.LBE2217:
.LBE2487:
.LBB2488:
.LBB2477:
.LBB2422:
.LBB2419:
.LBB2416:
.LBB2413:
.LBB2402:
.LBB2400:
.LBB2398:
.LBB2396:
	.loc 8 12 0
	mr 3,30
	mr 30,29
	bl _ZNSsD1Ev
.L190:
	mr 3,31
	bl _ZNSsD1Ev
	mr 3,30
.L191:
.LBE2396:
.LBE2398:
.LBE2400:
.LBE2402:
	.loc 10 191 0
	bl __cxa_begin_catch
.LVL288:
.L194:
.LBB2403:
.LBB2404:
.LBB2405:
.LBB2406:
	.loc 3 103 0
	cmpw 7,31,26
	beq- 7,.L366
.LVL289:
.LBB2407:
.LBB2408:
	.loc 3 94 0
	mr 3,26
.LBE2408:
.LBE2407:
	.loc 3 103 0
	addi 26,26,20
.LVL290:
.LBB2410:
.LBB2409:
	.loc 3 94 0
	bl _ZN11_theme_infoD1Ev
.LVL291:
	b .L194
.LVL292:
.L319:
	mr 30,3
	b .L190
.LVL293:
.L366:
.LEHB31:
.LBE2409:
.LBE2410:
.LBE2406:
.LBE2405:
.LBE2404:
.LBE2403:
	.loc 10 194 0
	bl __cxa_rethrow
.LEHE31:
.LVL294:
.L321:
	mr 28,3
.LBB2411:
.LBB2401:
.LBB2399:
.LBB2397:
	.loc 8 12 0
	mr 3,29
	bl _ZNSsD1Ev
	mr 29,28
	b .L189
.LVL295:
.L311:
	mr 31,3
.LBE2397:
.LBE2399:
.LBE2401:
.LBE2411:
.LBE2413:
.LBE2416:
.LBE2419:
.LBE2422:
.LBE2477:
.LBB2478:
.LBB2238:
	addi 3,1,24
	bl _ZNSsD1Ev
.L168:
	addi 3,1,20
	bl _ZNSsD1Ev
.L169:
	addi 3,1,16
	bl _ZNSsD1Ev
	mr 3,31
.LEHB32:
	bl _Unwind_Resume
.LEHE32:
.L310:
	mr 31,3
	b .L168
.L309:
	mr 31,3
	b .L169
.LVL296:
.L327:
.L233:
.LBE2238:
.LBE2478:
.LBE2488:
.LBB2489:
.LBB2218:
.LBB2001:
.LBB1997:
.LBB1993:
.LBB1989:
	.loc 10 191 0
	bl __cxa_begin_catch
.LVL297:
	mr 31,22
.LVL298:
.L238:
.LBB1979:
.LBB1980:
.LBB1981:
.LBB1982:
	.loc 3 103 0
	cmpw 7,30,31
	beq- 7,.L367
.LVL299:
.LBB1983:
.LBB1984:
	.loc 3 94 0
	mr 3,31
.LBE1984:
.LBE1983:
	.loc 3 103 0
	addi 31,31,20
.LVL300:
.LBB1986:
.LBB1985:
	.loc 3 94 0
	bl _ZN11_theme_infoD1Ev
.LVL301:
	b .L238
.LVL302:
.L329:
	mr 31,3
.L232:
.LBE1985:
.LBE1986:
.LBE1982:
.LBE1981:
.LBE1980:
.LBE1979:
.LBB1987:
.LBB1978:
.LBB1977:
.LBB1976:
	.loc 8 12 0
	mr 3,30
	bl _ZNSsD1Ev
	mr 3,31
	b .L233
.L331:
	mr 31,3
	mr 3,25
	bl _ZNSsD1Ev
.L231:
	mr 3,26
	bl _ZNSsD1Ev
	b .L232
.LVL303:
.L332:
.L245:
.LBE1976:
.LBE1977:
.LBE1978:
.LBE1987:
.LBE1989:
.LBE1993:
.LBE1997:
.LBE2001:
.LBE2218:
.LBB2219:
.LBB2059:
.LBB2055:
.LBB2051:
.LBB2047:
.LBB2043:
	.loc 10 80 0
	bl __cxa_begin_catch
.LVL304:
	mr 31,23
.LVL305:
.L251:
.LBB2034:
.LBB2035:
.LBB2036:
.LBB2037:
	.loc 3 103 0
	cmpw 7,30,31
	beq- 7,.L368
.LVL306:
.LBB2038:
.LBB2039:
	.loc 3 94 0
	mr 3,31
.LBE2039:
.LBE2038:
	.loc 3 103 0
	addi 31,31,20
.LVL307:
.LBB2041:
.LBB2040:
	.loc 3 94 0
	bl _ZN11_theme_infoD1Ev
.LVL308:
	b .L251
.LVL309:
.L330:
	mr 31,3
	b .L231
.LVL310:
.L367:
.LEHB33:
.LBE2040:
.LBE2041:
.LBE2037:
.LBE2036:
.LBE2035:
.LBE2034:
.LBE2043:
.LBE2047:
.LBE2051:
.LBE2055:
.LBE2059:
.LBE2219:
.LBB2220:
.LBB2002:
.LBB1998:
.LBB1994:
.LBB1990:
	.loc 10 194 0
	bl __cxa_rethrow
.LEHE33:
.LVL311:
.L368:
.LEHB34:
.LBE1990:
.LBE1994:
.LBE1998:
.LBE2002:
.LBE2220:
.LBB2221:
.LBB2060:
.LBB2056:
.LBB2052:
.LBB2048:
.LBB2044:
	.loc 10 83 0
	bl __cxa_rethrow
.LEHE34:
.LVL312:
.L328:
	mr 31,3
.LVL313:
.LBE2044:
.LBE2048:
.LBE2052:
.LBE2056:
.LBE2060:
.LBE2221:
.LBB2222:
.LBB2003:
.LBB1999:
.LBB1995:
.LBB1991:
	.loc 10 191 0
	mr 25,23
	bl __cxa_end_catch
	mr 3,31
.LVL314:
.L237:
.LBE1991:
.LBE1995:
.LBE1999:
.LBE2003:
.LBE2222:
	.loc 9 442 0
	bl __cxa_begin_catch
	.loc 9 444 0
	cmpwi 7,25,0
	beq- 7,.L250
	.loc 9 449 0
	mr 3,23
	mr 4,25
	bl _ZSt8_DestroyIP11_theme_infoS0_EvT_S2_RSaIT0_E.isra.25
.LVL315:
.L299:
.LBB2223:
.LBB2224:
	.loc 6 155 0
	cmpwi 7,23,0
	beq- 7,.L300
.LVL316:
.LBB2225:
.LBB2226:
	.loc 7 98 0
	mr 3,23
	bl _ZdlPv
.LVL317:
.L300:
.LEHB35:
.LBE2226:
.LBE2225:
.LBE2224:
.LBE2223:
	.loc 9 452 0
	bl __cxa_rethrow
.LEHE35:
.LVL318:
.L333:
.LBB2227:
.LBB2061:
.LBB2057:
.LBB2053:
.LBB2049:
.LBB2045:
	.loc 10 80 0
	stw 3,44(1)
	bl __cxa_end_catch
.LBE2045:
.LBE2049:
.LBE2053:
.LBE2057:
.LBE2061:
.LBE2227:
	.loc 9 442 0
	lwz 3,44(1)
	bl __cxa_begin_catch
.LVL319:
.L250:
	.loc 9 445 0
	add 4,21,24
	mr 3,22
	mulli 4,4,20
	add 4,23,4
	bl _ZSt8_DestroyIP11_theme_infoS0_EvT_S2_RSaIT0_E.isra.25
	b .L299
.LVL320:
.L308:
	.loc 9 442 0
	stw 3,44(1)
	bl __cxa_end_catch
	lwz 3,44(1)
.LEHB36:
	bl _Unwind_Resume
.LVL321:
.L364:
.LBE2489:
.LBB2490:
.LBB2479:
.LBB2385:
.LBB2382:
.LBB2349:
.LBB2348:
.LBB2347:
.LBB2346:
.LBB2340:
.LBB2341:
.LBB2342:
	.loc 5 66 0
	lwz 11,-4(9)
.LVL322:
.LBE2342:
.LBE2341:
.LBE2340:
	.loc 4 240 0
	cmpwi 7,11,0
.LBB2345:
.LBB2344:
.LBB2343:
	.loc 5 67 0
	addi 11,11,-1
	stw 11,-4(9)
.LBE2343:
.LBE2344:
.LBE2345:
	.loc 4 240 0
	bgt+ 7,.L218
	.loc 4 244 0
	addi 4,1,14
	bl _ZNSs4_Rep10_M_destroyERKSaIcE
.LVL323:
	b .L218
.LVL324:
.L363:
.LBE2346:
.LBE2347:
.LBE2348:
.LBE2349:
.LBE2382:
.LBB2383:
.LBB2331:
.LBB2330:
.LBB2329:
.LBB2327:
.LBB2320:
.LBB2321:
.LBB2322:
	.loc 5 66 0
	lwz 11,-4(9)
.LVL325:
.LBE2322:
.LBE2321:
.LBE2320:
	.loc 4 240 0
	cmpwi 7,11,0
.LBB2325:
.LBB2324:
.LBB2323:
	.loc 5 67 0
	addi 11,11,-1
	stw 11,-4(9)
.LBE2323:
.LBE2324:
.LBE2325:
	.loc 4 240 0
	bgt+ 7,.L212
	.loc 4 244 0
	addi 4,1,15
	bl _ZNSs4_Rep10_M_destroyERKSaIcE
.LVL326:
	b .L212
.LVL327:
.L307:
	mr 31,3
.L180:
.LBE2327:
.LBE2329:
.LBE2330:
.LBE2331:
.LBE2383:
.LBE2385:
.LBE2479:
	.loc 9 411 0
	addi 3,1,16
	bl _ZN11_theme_infoD1Ev
	mr 3,31
	bl _Unwind_Resume
.LEHE36:
.LVL328:
.L316:
	mr 30,3
.LVL329:
.LBB2480:
.LBB2274:
.LBB2272:
.LBB2270:
.LBB2268:
.LBB2266:
.LBB2256:
.LBB2255:
.LBB2254:
.LBB2253:
	.loc 8 12 0
	mr 3,25
	bl _ZNSsD1Ev
.L173:
	mr 3,29
	bl _ZNSsD1Ev
.L174:
	mr 3,31
	bl _ZNSsD1Ev
	mr 3,30
.L175:
.LBE2253:
.LBE2254:
.LBE2255:
.LBE2256:
	.loc 10 80 0
	bl __cxa_begin_catch
.LVL330:
.L181:
.LBB2257:
.LBB2258:
.LBB2259:
.LBB2260:
	.loc 3 103 0
	cmpw 7,31,26
	beq- 7,.L369
.LVL331:
.LBB2261:
.LBB2262:
	.loc 3 94 0
	mr 3,26
.LBE2262:
.LBE2261:
	.loc 3 103 0
	addi 26,26,20
.LVL332:
.LBB2264:
.LBB2263:
	.loc 3 94 0
	bl _ZN11_theme_infoD1Ev
.LVL333:
	b .L181
.LVL334:
.L315:
	mr 30,3
.LVL335:
	b .L173
.LVL336:
.L369:
.LEHB37:
.LBE2263:
.LBE2264:
.LBE2260:
.LBE2259:
.LBE2258:
.LBE2257:
	.loc 10 83 0
	bl __cxa_rethrow
.LEHE37:
.LVL337:
.L314:
	mr 30,3
.LVL338:
	b .L174
.LVL339:
.L312:
	b .L175
.LVL340:
.L313:
	mr 31,3
.LVL341:
	.loc 10 80 0
	bl __cxa_end_catch
	b .L180
.LVL342:
.L334:
	mr 31,3
.L244:
.LBE2266:
.LBE2268:
.LBE2270:
.LBE2272:
.LBE2274:
.LBE2480:
.LBE2490:
.LBB2491:
.LBB2228:
.LBB2062:
.LBB2058:
.LBB2054:
.LBB2050:
.LBB2046:
.LBB2042:
.LBB2033:
.LBB2032:
.LBB2031:
	.loc 8 12 0
	mr 3,30
	bl _ZNSsD1Ev
	mr 3,31
	b .L245
.L335:
	mr 31,3
.L243:
	mr 3,26
	bl _ZNSsD1Ev
	b .L244
.L336:
	mr 31,3
	mr 3,25
	bl _ZNSsD1Ev
	b .L243
.LVL343:
.L337:
.L257:
.LBE2031:
.LBE2032:
.LBE2033:
.LBE2042:
.LBE2046:
.LBE2050:
.LBE2054:
.LBE2058:
.LBE2062:
.LBE2228:
.LBB2229:
.LBB2107:
.LBB2102:
.LBB2097:
.LBB2092:
.LBB2087:
	.loc 10 80 0
	bl __cxa_begin_catch
.LVL344:
	mr 31,25
.LVL345:
.L262:
.LBB2076:
.LBB2077:
.LBB2078:
.LBB2079:
	.loc 3 103 0
	cmpw 7,30,31
	beq- 7,.L370
.LVL346:
.LBB2080:
.LBB2081:
	.loc 3 94 0
	mr 3,31
.LBE2081:
.LBE2080:
	.loc 3 103 0
	addi 31,31,20
.LVL347:
.LBB2083:
.LBB2082:
	.loc 3 94 0
	bl _ZN11_theme_infoD1Ev
.LVL348:
	b .L262
.LVL349:
.L339:
	mr 31,3
.LVL350:
.L256:
.LBE2082:
.LBE2083:
.LBE2079:
.LBE2078:
.LBE2077:
.LBE2076:
.LBB2084:
.LBB2075:
.LBB2074:
.LBB2073:
	.loc 8 12 0
	mr 3,30
	bl _ZNSsD1Ev
	mr 3,31
	b .L257
.LVL351:
.L341:
	mr 31,3
.LVL352:
	mr 3,26
	bl _ZNSsD1Ev
.L255:
	mr 3,28
	bl _ZNSsD1Ev
	b .L256
.LVL353:
.L356:
.LBE2073:
.LBE2074:
.LBE2075:
.LBE2084:
.LBE2087:
.LBE2092:
.LBE2097:
.LBE2102:
.LBE2107:
.LBE2229:
.LBB2230:
.LBB2008:
	.loc 6 1242 0
	lis 3,.LC0@ha
	la 3,.LC0@l(3)
.LEHB38:
	bl _ZSt20__throw_length_errorPKc
.LEHE38:
.LVL354:
.L340:
	mr 31,3
.LVL355:
	b .L255
.LVL356:
.L370:
.LEHB39:
.LBE2008:
.LBE2230:
.LBB2231:
.LBB2108:
.LBB2103:
.LBB2098:
.LBB2093:
.LBB2088:
	.loc 10 83 0
	bl __cxa_rethrow
.LEHE39:
.LVL357:
.L326:
	mr 30,3
.LVL358:
.LBE2088:
.LBE2093:
.LBE2098:
.LBE2103:
.LBE2108:
.LBE2231:
.LBE2491:
.LBB2492:
.LBB2481:
.LBB2459:
.LBB2456:
.LBB2453:
.LBB2450:
.LBB2447:
.LBB2437:
.LBB2436:
.LBB2435:
.LBB2434:
	.loc 8 12 0
	mr 3,25
	bl _ZNSsD1Ev
.L199:
	mr 3,29
	bl _ZNSsD1Ev
.L200:
	mr 3,31
	bl _ZNSsD1Ev
	mr 3,30
.L201:
.LBE2434:
.LBE2435:
.LBE2436:
.LBE2437:
	.loc 10 80 0
	bl __cxa_begin_catch
.LVL359:
.L205:
.LBB2438:
.LBB2439:
.LBB2440:
.LBB2441:
	.loc 3 103 0
	cmpw 7,31,24
	beq- 7,.L371
.LVL360:
.LBB2442:
.LBB2443:
	.loc 3 94 0
	mr 3,24
.LBE2443:
.LBE2442:
	.loc 3 103 0
	addi 24,24,20
.LVL361:
.LBB2445:
.LBB2444:
	.loc 3 94 0
	bl _ZN11_theme_infoD1Ev
.LVL362:
	b .L205
.LVL363:
.L324:
	mr 30,3
.LVL364:
	b .L200
.LVL365:
.L322:
	b .L201
.L325:
	mr 30,3
.LVL366:
	b .L199
.LVL367:
.L338:
	mr 31,3
.LVL368:
.LBE2444:
.LBE2445:
.LBE2441:
.LBE2440:
.LBE2439:
.LBE2438:
.LBE2447:
.LBE2450:
.LBE2453:
.LBE2456:
.LBE2459:
.LBE2481:
.LBE2492:
.LBB2493:
.LBB2232:
.LBB2109:
.LBB2104:
.LBB2099:
.LBB2094:
.LBB2089:
	.loc 10 80 0
	bl __cxa_end_catch
	mr 3,31
	b .L237
.LVL369:
.L317:
	b .L191
.LVL370:
.L318:
	mr 31,3
.LVL371:
.LBE2089:
.LBE2094:
.LBE2099:
.LBE2104:
.LBE2109:
.LBE2232:
.LBE2493:
.LBB2494:
.LBB2482:
.LBB2423:
.LBB2420:
.LBB2417:
.LBB2414:
	.loc 10 191 0
	bl __cxa_end_catch
	b .L180
.LVL372:
.L365:
.LBE2414:
.LBE2417:
.LBE2420:
.LBE2423:
.LBE2482:
.LBB2483:
.LBB2386:
.LBB2384:
.LBB2367:
.LBB2366:
.LBB2365:
.LBB2364:
.LBB2358:
.LBB2359:
.LBB2360:
	.loc 5 66 0
	lwz 11,-4(9)
.LVL373:
.LBE2360:
.LBE2359:
.LBE2358:
	.loc 4 240 0
	cmpwi 7,11,0
.LBB2363:
.LBB2362:
.LBB2361:
	.loc 5 67 0
	addi 11,11,-1
	stw 11,-4(9)
.LBE2361:
.LBE2362:
.LBE2363:
	.loc 4 240 0
	bgt+ 7,.L224
	.loc 4 244 0
	addi 4,1,13
	bl _ZNSs4_Rep10_M_destroyERKSaIcE
.LVL374:
	b .L224
.LVL375:
.L371:
.LEHB40:
.LBE2364:
.LBE2365:
.LBE2366:
.LBE2367:
.LBE2384:
.LBE2386:
.LBE2483:
.LBB2484:
.LBB2460:
.LBB2457:
.LBB2454:
.LBB2451:
.LBB2448:
	.loc 10 83 0
	bl __cxa_rethrow
.LEHE40:
.L323:
	mr 31,3
.LVL376:
	.loc 10 80 0
	bl __cxa_end_catch
	b .L180
.LBE2448:
.LBE2451:
.LBE2454:
.LBE2457:
.LBE2460:
.LBE2484:
.LBE2494:
.LBE2496:
.LBE2499:
	.cfi_endproc
.LFE1574:
	.globl __gxx_personality_v0
	.section	.gcc_except_table,"a",@progbits
	.align 2
.LLSDA1574:
	.byte	0xff
	.byte	0
	.uleb128 .LLSDATT1574-.LLSDATTD1574
.LLSDATTD1574:
	.byte	0x1
	.uleb128 .LLSDACSE1574-.LLSDACSB1574
.LLSDACSB1574:
	.uleb128 .LEHB0-.LFB1574
	.uleb128 .LEHE0-.LEHB0
	.uleb128 0
	.uleb128 0
	.uleb128 .LEHB1-.LFB1574
	.uleb128 .LEHE1-.LEHB1
	.uleb128 .L327-.LFB1574
	.uleb128 0x1
	.uleb128 .LEHB2-.LFB1574
	.uleb128 .LEHE2-.LEHB2
	.uleb128 .L329-.LFB1574
	.uleb128 0x3
	.uleb128 .LEHB3-.LFB1574
	.uleb128 .LEHE3-.LEHB3
	.uleb128 .L330-.LFB1574
	.uleb128 0x3
	.uleb128 .LEHB4-.LFB1574
	.uleb128 .LEHE4-.LEHB4
	.uleb128 .L331-.LFB1574
	.uleb128 0x3
	.uleb128 .LEHB5-.LFB1574
	.uleb128 .LEHE5-.LEHB5
	.uleb128 .L332-.LFB1574
	.uleb128 0x1
	.uleb128 .LEHB6-.LFB1574
	.uleb128 .LEHE6-.LEHB6
	.uleb128 .L334-.LFB1574
	.uleb128 0x3
	.uleb128 .LEHB7-.LFB1574
	.uleb128 .LEHE7-.LEHB7
	.uleb128 .L335-.LFB1574
	.uleb128 0x3
	.uleb128 .LEHB8-.LFB1574
	.uleb128 .LEHE8-.LEHB8
	.uleb128 .L336-.LFB1574
	.uleb128 0x3
	.uleb128 .LEHB9-.LFB1574
	.uleb128 .LEHE9-.LEHB9
	.uleb128 .L337-.LFB1574
	.uleb128 0x1
	.uleb128 .LEHB10-.LFB1574
	.uleb128 .LEHE10-.LEHB10
	.uleb128 .L339-.LFB1574
	.uleb128 0x3
	.uleb128 .LEHB11-.LFB1574
	.uleb128 .LEHE11-.LEHB11
	.uleb128 .L340-.LFB1574
	.uleb128 0x3
	.uleb128 .LEHB12-.LFB1574
	.uleb128 .LEHE12-.LEHB12
	.uleb128 .L341-.LFB1574
	.uleb128 0x3
	.uleb128 .LEHB13-.LFB1574
	.uleb128 .LEHE13-.LEHB13
	.uleb128 0
	.uleb128 0
	.uleb128 .LEHB14-.LFB1574
	.uleb128 .LEHE14-.LEHB14
	.uleb128 .L309-.LFB1574
	.uleb128 0
	.uleb128 .LEHB15-.LFB1574
	.uleb128 .LEHE15-.LEHB15
	.uleb128 .L310-.LFB1574
	.uleb128 0
	.uleb128 .LEHB16-.LFB1574
	.uleb128 .LEHE16-.LEHB16
	.uleb128 .L311-.LFB1574
	.uleb128 0
	.uleb128 .LEHB17-.LFB1574
	.uleb128 .LEHE17-.LEHB17
	.uleb128 .L312-.LFB1574
	.uleb128 0x1
	.uleb128 .LEHB18-.LFB1574
	.uleb128 .LEHE18-.LEHB18
	.uleb128 .L314-.LFB1574
	.uleb128 0x1
	.uleb128 .LEHB19-.LFB1574
	.uleb128 .LEHE19-.LEHB19
	.uleb128 .L315-.LFB1574
	.uleb128 0x1
	.uleb128 .LEHB20-.LFB1574
	.uleb128 .LEHE20-.LEHB20
	.uleb128 .L316-.LFB1574
	.uleb128 0x1
	.uleb128 .LEHB21-.LFB1574
	.uleb128 .LEHE21-.LEHB21
	.uleb128 .L307-.LFB1574
	.uleb128 0
	.uleb128 .LEHB22-.LFB1574
	.uleb128 .LEHE22-.LEHB22
	.uleb128 .L317-.LFB1574
	.uleb128 0x1
	.uleb128 .LEHB23-.LFB1574
	.uleb128 .LEHE23-.LEHB23
	.uleb128 .L319-.LFB1574
	.uleb128 0x1
	.uleb128 .LEHB24-.LFB1574
	.uleb128 .LEHE24-.LEHB24
	.uleb128 .L320-.LFB1574
	.uleb128 0x1
	.uleb128 .LEHB25-.LFB1574
	.uleb128 .LEHE25-.LEHB25
	.uleb128 .L321-.LFB1574
	.uleb128 0x1
	.uleb128 .LEHB26-.LFB1574
	.uleb128 .LEHE26-.LEHB26
	.uleb128 .L322-.LFB1574
	.uleb128 0x1
	.uleb128 .LEHB27-.LFB1574
	.uleb128 .LEHE27-.LEHB27
	.uleb128 .L324-.LFB1574
	.uleb128 0x1
	.uleb128 .LEHB28-.LFB1574
	.uleb128 .LEHE28-.LEHB28
	.uleb128 .L325-.LFB1574
	.uleb128 0x1
	.uleb128 .LEHB29-.LFB1574
	.uleb128 .LEHE29-.LEHB29
	.uleb128 .L326-.LFB1574
	.uleb128 0x1
	.uleb128 .LEHB30-.LFB1574
	.uleb128 .LEHE30-.LEHB30
	.uleb128 .L307-.LFB1574
	.uleb128 0
	.uleb128 .LEHB31-.LFB1574
	.uleb128 .LEHE31-.LEHB31
	.uleb128 .L318-.LFB1574
	.uleb128 0
	.uleb128 .LEHB32-.LFB1574
	.uleb128 .LEHE32-.LEHB32
	.uleb128 0
	.uleb128 0
	.uleb128 .LEHB33-.LFB1574
	.uleb128 .LEHE33-.LEHB33
	.uleb128 .L328-.LFB1574
	.uleb128 0x3
	.uleb128 .LEHB34-.LFB1574
	.uleb128 .LEHE34-.LEHB34
	.uleb128 .L333-.LFB1574
	.uleb128 0x3
	.uleb128 .LEHB35-.LFB1574
	.uleb128 .LEHE35-.LEHB35
	.uleb128 .L308-.LFB1574
	.uleb128 0
	.uleb128 .LEHB36-.LFB1574
	.uleb128 .LEHE36-.LEHB36
	.uleb128 0
	.uleb128 0
	.uleb128 .LEHB37-.LFB1574
	.uleb128 .LEHE37-.LEHB37
	.uleb128 .L313-.LFB1574
	.uleb128 0
	.uleb128 .LEHB38-.LFB1574
	.uleb128 .LEHE38-.LEHB38
	.uleb128 0
	.uleb128 0
	.uleb128 .LEHB39-.LFB1574
	.uleb128 .LEHE39-.LEHB39
	.uleb128 .L338-.LFB1574
	.uleb128 0x3
	.uleb128 .LEHB40-.LFB1574
	.uleb128 .LEHE40-.LEHB40
	.uleb128 .L323-.LFB1574
	.uleb128 0
.LLSDACSE1574:
	.byte	0x1
	.byte	0
	.byte	0
	.byte	0x7d
	.align 2
	.long	0
.LLSDATT1574:
	.section	.text._ZNSt6vectorI11_theme_infoSaIS0_EE14_M_fill_insertEN9__gnu_cxx17__normal_iteratorIPS0_S2_EEjRKS0_,"axG",@progbits,_ZNSt6vectorI11_theme_infoSaIS0_EE14_M_fill_insertEN9__gnu_cxx17__normal_iteratorIPS0_S2_EEjRKS0_,comdat
	.size	_ZNSt6vectorI11_theme_infoSaIS0_EE14_M_fill_insertEN9__gnu_cxx17__normal_iteratorIPS0_S2_EEjRKS0_, .-_ZNSt6vectorI11_theme_infoSaIS0_EE14_M_fill_insertEN9__gnu_cxx17__normal_iteratorIPS0_S2_EEjRKS0_
	.section	".text"
	.align 2
	.globl _ZN10Theme_List8ParseXMLEPKc
	.type	_ZN10Theme_List8ParseXMLEPKc, @function
_ZN10Theme_List8ParseXMLEPKc:
.LFB1473:
	.loc 1 62 0
	.cfi_startproc
	.cfi_personality 0,__gxx_personality_v0
	.cfi_lsda 0,.LLSDA1473
.LVL377:
	stwu 1,-176(1)
.LCFI18:
	.cfi_def_cfa_offset 176
	mflr 0
	stw 28,160(1)
	mr 28,3
	.cfi_offset 28, -16
	.cfi_register 65, 0
.LBB2866:
	.loc 1 63 0
	addi 3,1,40
.LVL378:
.LBE2866:
	.loc 1 62 0
	stw 31,172(1)
.LBB3269:
	.loc 1 63 0
	stw 4,124(1)
	lis 31,_ZNSs4_Rep20_S_empty_rep_storageE@ha
	.cfi_offset 31, -4
.LBE3269:
	.loc 1 62 0
	stw 0,180(1)
	la 31,_ZNSs4_Rep20_S_empty_rep_storageE@l(31)
	stw 20,128(1)
	stw 21,132(1)
	stw 22,136(1)
	stw 23,140(1)
	stw 24,144(1)
	stw 25,148(1)
	stw 26,152(1)
	stw 27,156(1)
	stw 29,164(1)
	stw 30,168(1)
.LEHB41:
.LBB3270:
	.loc 1 63 0
	.cfi_offset 30, -8
	.cfi_offset 29, -12
	.cfi_offset 27, -20
	.cfi_offset 26, -24
	.cfi_offset 25, -28
	.cfi_offset 24, -32
	.cfi_offset 23, -36
	.cfi_offset 22, -40
	.cfi_offset 21, -44
	.cfi_offset 20, -48
	.cfi_offset 65, 4
	bl _ZN13TiXmlDocumentC1Ev
.LEHE41:
.LVL379:
	.loc 1 65 0
	lwz 4,124(1)
	addi 3,1,40
	li 5,0
	li 6,0
.LEHB42:
	bl _ZN13TiXmlDocument5ParseEPKcP16TiXmlParsingData13TiXmlEncoding
	cmpwi 7,3,0
	beq- 7,.L459
.LVL380:
.LBB2867:
.LBB2868:
	.file 13 "d:/Projects/SaveGameManager/savegame-manager-gx/trunk/source/Themes/../XML/tinyxml.h"
	.loc 13 674 0
	lis 4,.LC1@ha
	lis 31,_ZNSs4_Rep20_S_empty_rep_storageE@ha
	addi 3,1,40
.LVL381:
	la 4,.LC1@l(4)
	la 31,_ZNSs4_Rep20_S_empty_rep_storageE@l(31)
	bl _ZNK9TiXmlNode17FirstChildElementEPKc
.LVL382:
.LBE2868:
.LBE2867:
	.loc 1 69 0
	cmpwi 7,3,0
	beq- 7,.L459
.LVL383:
.LBB2869:
.LBB2870:
	.loc 13 674 0
	lis 4,.LC2@ha
	lis 31,_ZNSs4_Rep20_S_empty_rep_storageE@ha
	la 4,.LC2@l(4)
	la 31,_ZNSs4_Rep20_S_empty_rep_storageE@l(31)
	bl _ZNK9TiXmlNode17FirstChildElementEPKc
.LVL384:
.LBE2870:
.LBE2869:
	.loc 1 74 0
	mr. 30,3
	beq- 0,.L460
	lis 27,_ZNSs4_Rep20_S_empty_rep_storageE+12@ha
	la 27,_ZNSs4_Rep20_S_empty_rep_storageE+12@l(27)
	addi 31,27,-12
	b .L441
.LVL385:
.L382:
.LBB2871:
.LBB2872:
.LBB2873:
	.loc 6 633 0
	blt- 7,.L467
	mr 9,27
.LVL386:
.L383:
.LBE2873:
.LBE2872:
.LBB2981:
.LBB2982:
.LBB2983:
.LBB2984:
.LBB2985:
	.loc 4 534 0 discriminator 1
	addi 3,9,-12
.LVL387:
.LBB2986:
.LBB2987:
	.loc 4 235 0 discriminator 1
	cmpw 7,3,31
	bne- 7,.L468
.LVL388:
.L416:
.LBE2987:
.LBE2986:
.LBE2985:
.LBE2984:
.LBE2983:
.LBB2998:
.LBB2999:
.LBB3000:
.LBB3001:
.LBB3002:
.LBB3003:
	.loc 4 288 0
	lwz 9,28(1)
.LBE3003:
.LBE3002:
.LBE3001:
	.loc 4 534 0
	addi 3,9,-12
.LVL389:
.LBB3004:
.LBB3005:
	.loc 4 235 0
	cmpw 7,3,31
	bne- 7,.L469
.LVL390:
.L422:
.LBE3005:
.LBE3004:
.LBE3000:
.LBE2999:
.LBE2998:
.LBB3016:
.LBB3017:
.LBB3018:
.LBB3019:
.LBB3020:
.LBB3021:
	.loc 4 288 0
	lwz 9,24(1)
.LBE3021:
.LBE3020:
.LBE3019:
	.loc 4 534 0
	addi 3,9,-12
.LVL391:
.LBB3022:
.LBB3023:
	.loc 4 235 0
	cmpw 7,3,31
	bne- 7,.L470
.LVL392:
.L428:
.LBE3023:
.LBE3022:
.LBE3018:
.LBE3017:
.LBE3016:
.LBB3034:
.LBB3035:
.LBB3036:
.LBB3037:
.LBB3038:
.LBB3039:
	.loc 4 288 0
	lwz 9,20(1)
.LBE3039:
.LBE3038:
.LBE3037:
	.loc 4 534 0
	addi 3,9,-12
.LVL393:
.LBB3040:
.LBB3041:
	.loc 4 235 0
	cmpw 7,3,31
	bne- 7,.L471
.LVL394:
.L435:
.LBE3041:
.LBE3040:
.LBE3036:
.LBE3035:
.LBE3034:
.LBE2982:
.LBE2981:
.LBB3057:
.LBB3058:
	.loc 13 674 0 discriminator 1
	lis 4,.LC3@ha
	mr 3,30
	la 4,.LC3@l(4)
	bl _ZNK9TiXmlNode17FirstChildElementEPKc
.LVL395:
.LBE3058:
.LBE3057:
	.loc 1 82 0 discriminator 1
	cmpwi 0,3,0
	beq- 0,.L436
	.loc 1 137 0 discriminator 1
	lwz 9,24(3)
	.loc 1 82 0 discriminator 1
	cmpwi 7,9,0
	beq- 7,.L436
.LVL396:
.LBB3059:
.LBB3060:
.LBB3061:
.LBB3062:
	.loc 4 288 0 discriminator 3
	lwz 26,32(9)
.LBE3062:
.LBE3061:
.LBE3060:
.LBE3059:
	.loc 1 82 0 discriminator 3
	cmpwi 7,26,0
	beq- 7,.L436
.LVL397:
.LBB3063:
.LBB3064:
.LBB3065:
.LBB3066:
.LBB3067:
	.file 14 "d:\\devkitpro\\devkitppc\\bin\\../lib/gcc/powerpc-eabi/4.6.3/../../../../powerpc-eabi/include/c++/4.6.3/bits/char_traits.h"
	.loc 14 261 0 discriminator 5
	mr 3,26
.LVL398:
	bl strlen
.LVL399:
.LBE3067:
.LBE3066:
.LBE3065:
.LBE3064:
.LBE3063:
.LBB3074:
.LBB3075:
	.loc 6 696 0 discriminator 5
	mulli 0,29,20
.LBE3075:
.LBE3074:
.LBB3077:
.LBB3072:
.LBB3070:
.LBB3069:
.LBB3068:
	.loc 14 261 0 discriminator 5
	mr 5,3
.LBE3068:
.LBE3069:
.LBE3070:
.LBE3072:
.LBE3077:
.LBB3078:
.LBB3076:
	.loc 6 696 0 discriminator 5
	lwz 3,0(28)
.LVL400:
.LBE3076:
.LBE3078:
.LBB3079:
.LBB3073:
.LBB3071:
	.loc 4 1121 0 discriminator 5
	mr 4,26
	add 3,3,0
.LVL401:
	bl _ZNSs6assignEPKcj
.LVL402:
.L436:
.LBE3071:
.LBE3073:
.LBE3079:
.LBB3080:
.LBB3081:
	.loc 13 674 0
	lis 4,.LC4@ha
	mr 3,30
	la 4,.LC4@l(4)
	bl _ZNK9TiXmlNode17FirstChildElementEPKc
.LVL403:
.LBE3081:
.LBE3080:
	.loc 1 86 0
	cmpwi 0,3,0
	beq- 0,.L437
	.loc 1 137 0 discriminator 1
	lwz 9,24(3)
	.loc 1 86 0 discriminator 1
	cmpwi 7,9,0
	beq- 7,.L437
.LVL404:
.LBB3082:
.LBB3083:
.LBB3084:
.LBB3085:
	.loc 4 288 0 discriminator 3
	lwz 26,32(9)
.LBE3085:
.LBE3084:
.LBE3083:
.LBE3082:
	.loc 1 86 0 discriminator 3
	cmpwi 7,26,0
	beq- 7,.L437
.LVL405:
.LBB3086:
.LBB3087:
.LBB3088:
.LBB3089:
.LBB3090:
	.loc 14 261 0 discriminator 5
	mr 3,26
.LVL406:
	bl strlen
.LVL407:
.LBE3090:
.LBE3089:
.LBE3088:
.LBE3087:
.LBE3086:
.LBB3099:
.LBB3100:
	.loc 6 696 0 discriminator 5
	mulli 0,29,20
.LBE3100:
.LBE3099:
.LBB3103:
.LBB3096:
.LBB3093:
.LBB3092:
.LBB3091:
	.loc 14 261 0 discriminator 5
	mr 5,3
.LBE3091:
.LBE3092:
.LBE3093:
.LBE3096:
.LBE3103:
.LBB3104:
.LBB3101:
	.loc 6 696 0 discriminator 5
	lwz 3,0(28)
.LVL408:
.LBE3101:
.LBE3104:
.LBB3105:
.LBB3097:
.LBB3094:
	.loc 4 1121 0 discriminator 5
	mr 4,26
.LBE3094:
.LBE3097:
.LBE3105:
.LBB3106:
.LBB3102:
	.loc 6 696 0 discriminator 5
	add 3,3,0
.LVL409:
.LBE3102:
.LBE3106:
.LBB3107:
.LBB3098:
.LBB3095:
	.loc 4 1121 0 discriminator 5
	addi 3,3,4
.LVL410:
	bl _ZNSs6assignEPKcj
.LVL411:
.L437:
.LBE3095:
.LBE3098:
.LBE3107:
.LBB3108:
.LBB3109:
	.loc 13 674 0
	lis 4,.LC5@ha
	mr 3,30
	la 4,.LC5@l(4)
	bl _ZNK9TiXmlNode17FirstChildElementEPKc
.LVL412:
.LBE3109:
.LBE3108:
	.loc 1 90 0
	cmpwi 0,3,0
	beq- 0,.L438
	.loc 1 137 0 discriminator 1
	lwz 9,24(3)
	.loc 1 90 0 discriminator 1
	cmpwi 7,9,0
	beq- 7,.L438
.LVL413:
.LBB3110:
.LBB3111:
.LBB3112:
.LBB3113:
	.loc 4 288 0 discriminator 3
	lwz 26,32(9)
.LBE3113:
.LBE3112:
.LBE3111:
.LBE3110:
	.loc 1 90 0 discriminator 3
	cmpwi 7,26,0
	beq- 7,.L438
.LVL414:
.LBB3114:
.LBB3115:
.LBB3116:
.LBB3117:
.LBB3118:
	.loc 14 261 0 discriminator 5
	mr 3,26
.LVL415:
	bl strlen
.LVL416:
.LBE3118:
.LBE3117:
.LBE3116:
.LBE3115:
.LBE3114:
.LBB3127:
.LBB3128:
	.loc 6 696 0 discriminator 5
	mulli 0,29,20
.LBE3128:
.LBE3127:
.LBB3131:
.LBB3124:
.LBB3121:
.LBB3120:
.LBB3119:
	.loc 14 261 0 discriminator 5
	mr 5,3
.LBE3119:
.LBE3120:
.LBE3121:
.LBE3124:
.LBE3131:
.LBB3132:
.LBB3129:
	.loc 6 696 0 discriminator 5
	lwz 3,0(28)
.LVL417:
.LBE3129:
.LBE3132:
.LBB3133:
.LBB3125:
.LBB3122:
	.loc 4 1121 0 discriminator 5
	mr 4,26
.LBE3122:
.LBE3125:
.LBE3133:
.LBB3134:
.LBB3130:
	.loc 6 696 0 discriminator 5
	add 3,3,0
.LVL418:
.LBE3130:
.LBE3134:
.LBB3135:
.LBB3126:
.LBB3123:
	.loc 4 1121 0 discriminator 5
	addi 3,3,8
.LVL419:
	bl _ZNSs6assignEPKcj
.LVL420:
.L438:
.LBE3123:
.LBE3126:
.LBE3135:
.LBB3136:
.LBB3137:
	.loc 13 674 0
	lis 4,.LC6@ha
	mr 3,30
	la 4,.LC6@l(4)
	bl _ZNK9TiXmlNode17FirstChildElementEPKc
.LVL421:
.LBE3137:
.LBE3136:
	.loc 1 94 0
	cmpwi 0,3,0
	beq- 0,.L439
	.loc 1 137 0 discriminator 1
	lwz 9,24(3)
	.loc 1 94 0 discriminator 1
	cmpwi 7,9,0
	beq- 7,.L439
.LVL422:
.LBB3138:
.LBB3139:
.LBB3140:
.LBB3141:
	.loc 4 288 0 discriminator 3
	lwz 26,32(9)
.LBE3141:
.LBE3140:
.LBE3139:
.LBE3138:
	.loc 1 94 0 discriminator 3
	cmpwi 7,26,0
	beq- 7,.L439
.LVL423:
.LBB3142:
.LBB3143:
.LBB3144:
.LBB3145:
.LBB3146:
	.loc 14 261 0 discriminator 5
	mr 3,26
.LVL424:
	bl strlen
.LVL425:
.LBE3146:
.LBE3145:
.LBE3144:
.LBE3143:
.LBE3142:
.LBB3155:
.LBB3156:
	.loc 6 696 0 discriminator 5
	mulli 0,29,20
.LBE3156:
.LBE3155:
.LBB3159:
.LBB3152:
.LBB3149:
.LBB3148:
.LBB3147:
	.loc 14 261 0 discriminator 5
	mr 5,3
.LBE3147:
.LBE3148:
.LBE3149:
.LBE3152:
.LBE3159:
.LBB3160:
.LBB3157:
	.loc 6 696 0 discriminator 5
	lwz 3,0(28)
.LVL426:
.LBE3157:
.LBE3160:
.LBB3161:
.LBB3153:
.LBB3150:
	.loc 4 1121 0 discriminator 5
	mr 4,26
.LBE3150:
.LBE3153:
.LBE3161:
.LBB3162:
.LBB3158:
	.loc 6 696 0 discriminator 5
	add 3,3,0
.LVL427:
.LBE3158:
.LBE3162:
.LBB3163:
.LBB3154:
.LBB3151:
	.loc 4 1121 0 discriminator 5
	addi 3,3,12
.LVL428:
	bl _ZNSs6assignEPKcj
.LVL429:
.L439:
.LBE3151:
.LBE3154:
.LBE3163:
.LBB3164:
.LBB3165:
	.loc 13 674 0
	lis 4,.LC7@ha
	mr 3,30
	la 4,.LC7@l(4)
	bl _ZNK9TiXmlNode17FirstChildElementEPKc
.LVL430:
.LBE3165:
.LBE3164:
	.loc 1 98 0
	cmpwi 0,3,0
	beq- 0,.L440
	.loc 1 137 0 discriminator 1
	lwz 9,24(3)
	.loc 1 98 0 discriminator 1
	cmpwi 7,9,0
	beq- 7,.L440
.LVL431:
.LBB3166:
.LBB3167:
.LBB3168:
.LBB3169:
	.loc 4 288 0 discriminator 3
	lwz 3,32(9)
.LVL432:
.LBE3169:
.LBE3168:
.LBE3167:
.LBE3166:
	.loc 1 98 0 discriminator 3
	cmpwi 7,3,0
	beq- 7,.L440
.LVL433:
.LBB3170:
.LBB3171:
	.loc 6 696 0 discriminator 5
	lwz 0,0(28)
	mulli 29,29,20
.LVL434:
	add 29,0,29
.LVL435:
.LBE3171:
.LBE3170:
	.loc 1 99 0 discriminator 5
	bl atoi
.LVL436:
	stb 3,16(29)
.LVL437:
.L440:
.LBB3172:
.LBB3173:
	.loc 13 648 0
	mr 3,30
	bl _ZNK9TiXmlNode18NextSiblingElementEv
.LEHE42:
.LVL438:
.LBE3173:
.LBE3172:
.LBE2871:
	.loc 1 74 0
	mr. 30,3
.LVL439:
	beq- 0,.L472
.LVL440:
.L441:
	.loc 1 137 0
	lwz 0,0(28)
.LBB3203:
.LBB3174:
.LBB3175:
	.loc 6 571 0
	lis 9,0xcccc
.LBE3175:
.LBE3174:
.LBE3203:
	.loc 1 137 0
	lwz 24,4(28)
.LBB3204:
.LBB3180:
.LBB3176:
	.loc 6 571 0
	ori 9,9,52429
.LBE3176:
.LBE3180:
.LBB3181:
.LBB3182:
.LBB3183:
.LBB3184:
	.loc 4 270 0
	stw 27,20(1)
.LBE3184:
.LBE3183:
.LBE3182:
.LBE3181:
.LBB3194:
.LBB3177:
	.loc 6 571 0
	subf 29,0,24
.LBE3177:
.LBE3194:
.LBB3195:
.LBB3185:
.LBB3186:
.LBB3187:
	.loc 4 270 0
	stw 27,24(1)
.LBE3187:
.LBE3186:
.LBE3185:
.LBE3195:
.LBB3196:
.LBB3178:
	.loc 6 571 0
	srawi 29,29,2
.LBE3178:
.LBE3196:
.LBB3197:
.LBB3188:
.LBB3189:
.LBB3190:
	.loc 4 270 0
	stw 27,28(1)
.LBE3190:
.LBE3189:
.LBE3188:
.LBE3197:
.LBB3198:
.LBB3179:
	.loc 6 571 0
	mullw 29,29,9
.LVL441:
.LBE3179:
.LBE3198:
	.loc 1 77 0
	li 9,0
	stw 9,36(1)
.LVL442:
.LBB3199:
.LBB3191:
.LBB3192:
.LBB3193:
	.loc 4 270 0
	stw 27,32(1)
.LVL443:
.LBE3193:
.LBE3192:
.LBE3191:
.LBE3199:
	.loc 1 77 0
	addi 23,29,1
.LVL444:
.LBB3200:
.LBB2979:
	.loc 6 631 0
	cmplw 7,23,29
	ble+ 7,.L382
.LVL445:
.LBB2874:
.LBB2875:
	.loc 6 944 0
	mr 4,1
	mr 3,28
.LVL446:
	stwu 24,120(4)
	li 5,1
	addi 6,1,20
.LVL447:
.LEHB43:
	bl _ZNSt6vectorI11_theme_infoSaIS0_EE14_M_fill_insertEN9__gnu_cxx17__normal_iteratorIPS0_S2_EEjRKS0_
.LEHE43:
.LVL448:
	lwz 9,32(1)
	b .L383
.LVL449:
.L467:
.LBE2875:
.LBE2874:
	.loc 6 634 0
	mulli 23,23,20
.LVL450:
.LBB2876:
.LBB2877:
.LBB2878:
.LBB2879:
.LBB2880:
.LBB2881:
.LBB2882:
	.loc 3 103 0
	mr 9,27
.LBE2882:
.LBE2881:
.LBE2880:
.LBE2879:
.LBE2878:
.LBE2877:
.LBE2876:
	.loc 6 634 0
	add 23,0,23
.LVL451:
.LBB2977:
.LBB2975:
.LBB2973:
.LBB2971:
.LBB2969:
.LBB2967:
.LBB2965:
	.loc 3 103 0
	cmpw 7,24,23
	beq- 7,.L384
	mr 26,23
	addi 20,23,12
	addi 21,23,8
	addi 22,23,4
.LVL452:
.L410:
	.loc 1 61 0
	subf 25,23,26
.LBB2883:
.LBB2884:
.LBB2885:
.LBB2886:
.LBB2887:
.LBB2888:
.LBB2889:
.LBB2890:
.LBB2891:
	.loc 4 288 0
	lwzx 9,25,20
.LBE2891:
.LBE2890:
.LBE2889:
	.loc 4 534 0
	addi 3,9,-12
.LVL453:
.LBB2892:
.LBB2893:
	.loc 4 235 0
	cmpw 7,3,31
	bne- 7,.L473
.LVL454:
.L390:
.LBE2893:
.LBE2892:
.LBE2888:
.LBE2887:
.LBE2886:
.LBB2904:
.LBB2905:
.LBB2906:
.LBB2907:
.LBB2908:
.LBB2909:
	.loc 4 288 0
	lwzx 9,25,21
.LBE2909:
.LBE2908:
.LBE2907:
	.loc 4 534 0
	addi 3,9,-12
.LVL455:
.LBB2910:
.LBB2911:
	.loc 4 235 0
	cmpw 7,3,31
	bne- 7,.L474
.LVL456:
.L396:
.LBE2911:
.LBE2910:
.LBE2906:
.LBE2905:
.LBE2904:
.LBB2922:
.LBB2923:
.LBB2924:
.LBB2925:
.LBB2926:
.LBB2927:
	.loc 4 288 0
	lwzx 9,25,22
.LBE2927:
.LBE2926:
.LBE2925:
	.loc 4 534 0
	addi 3,9,-12
.LVL457:
.LBB2928:
.LBB2929:
	.loc 4 235 0
	cmpw 7,3,31
	bne- 7,.L475
.LVL458:
.L402:
.LBE2929:
.LBE2928:
.LBE2924:
.LBE2923:
.LBE2922:
.LBB2940:
.LBB2941:
.LBB2942:
.LBB2943:
.LBB2944:
.LBB2945:
	.loc 4 288 0
	lwz 9,0(26)
.LBE2945:
.LBE2944:
.LBE2943:
	.loc 4 534 0
	addi 3,9,-12
.LVL459:
.LBB2946:
.LBB2947:
	.loc 4 235 0
	cmpw 7,3,31
	bne- 7,.L476
.LVL460:
.L409:
.LBE2947:
.LBE2946:
.LBE2942:
.LBE2941:
.LBE2940:
.LBE2885:
.LBE2884:
.LBE2883:
	.loc 3 103 0
	addi 26,26,20
.LVL461:
	cmpw 7,24,26
	bne+ 7,.L410
	lwz 9,32(1)
.LVL462:
.L384:
.LBE2965:
.LBE2967:
.LBE2969:
.LBE2971:
.LBE2973:
	.loc 6 1256 0
	stw 23,4(28)
	b .L383
.LVL463:
.L472:
.LBE2975:
.LBE2977:
.LBE2979:
.LBE3200:
.LBE3204:
	.loc 1 104 0
	li 30,1
.LVL464:
.L373:
.LBB3205:
.LBB3206:
.LBB3207:
.LBB3208:
.LBB3209:
.LBB3210:
.LBB3211:
.LBB3212:
.LBB3213:
	.loc 4 288 0
	lwz 9,92(1)
.LBE3213:
.LBE3212:
.LBE3211:
.LBE3210:
.LBE3209:
.LBE3208:
	.loc 13 1411 0
	lis 11,_ZTV13TiXmlDocument+8@ha
	la 0,_ZTV13TiXmlDocument+8@l(11)
.LBB3230:
.LBB3227:
.LBB3224:
	.loc 4 534 0
	addi 3,9,-12
.LBE3224:
.LBE3227:
.LBE3230:
	.loc 13 1411 0
	stw 0,40(1)
.LVL465:
.LBB3231:
.LBB3228:
.LBB3225:
.LBB3214:
.LBB3215:
	.loc 4 235 0
	cmpw 7,3,31
	bne- 7,.L477
.LVL466:
.L447:
.LBE3215:
.LBE3214:
.LBE3225:
.LBE3228:
.LBE3231:
	.loc 13 1411 0
	addi 3,1,40
.LVL467:
.LEHB44:
	bl _ZN9TiXmlNodeD2Ev
.LEHE44:
.LVL468:
.LBE3207:
.LBE3206:
.LBE3205:
.LBE3270:
	.loc 1 105 0
	lwz 0,180(1)
	mr 3,30
	lwz 20,128(1)
	mtlr 0
	lwz 21,132(1)
	lwz 22,136(1)
	lwz 23,140(1)
	lwz 24,144(1)
	lwz 25,148(1)
	lwz 26,152(1)
	lwz 27,156(1)
	lwz 28,160(1)
.LVL469:
	lwz 29,164(1)
	lwz 30,168(1)
	lwz 31,172(1)
	addi 1,1,176
	.cfi_remember_state
.LCFI19:
	.cfi_def_cfa_offset 0
	.cfi_restore 31
	.cfi_restore 30
	.cfi_restore 29
	.cfi_restore 28
	.cfi_restore 27
	.cfi_restore 26
	.cfi_restore 25
	.cfi_restore 24
	.cfi_restore 23
	.cfi_restore 22
	.cfi_restore 21
	.cfi_restore 20
	blr
.LVL470:
.L459:
.LCFI20:
	.cfi_restore_state
	lis 31,_ZNSs4_Rep20_S_empty_rep_storageE@ha
.LBB3271:
	.loc 1 70 0
	li 30,0
	la 31,_ZNSs4_Rep20_S_empty_rep_storageE@l(31)
	b .L373
.LVL471:
.L476:
.LBB3235:
.LBB3201:
.LBB2980:
.LBB2978:
.LBB2976:
.LBB2974:
.LBB2972:
.LBB2970:
.LBB2968:
.LBB2966:
.LBB2964:
.LBB2963:
.LBB2962:
.LBB2958:
.LBB2957:
.LBB2956:
.LBB2955:
.LBB2954:
.LBB2948:
.LBB2949:
.LBB2950:
	.loc 5 66 0
	lwz 11,-4(9)
.LVL472:
.LBE2950:
.LBE2949:
.LBE2948:
	.loc 4 240 0
	cmpwi 7,11,0
.LBB2953:
.LBB2952:
.LBB2951:
	.loc 5 67 0
	addi 11,11,-1
	stw 11,-4(9)
.LBE2951:
.LBE2952:
.LBE2953:
	.loc 4 240 0
	bgt+ 7,.L409
	.loc 4 244 0
	addi 4,1,14
	bl _ZNSs4_Rep10_M_destroyERKSaIcE
.LVL473:
	b .L409
.LVL474:
.L475:
.LBE2954:
.LBE2955:
.LBE2956:
.LBE2957:
.LBE2958:
.LBB2959:
.LBB2939:
.LBB2938:
.LBB2937:
.LBB2936:
.LBB2930:
.LBB2931:
.LBB2932:
	.loc 5 66 0
	lwz 11,-4(9)
.LVL475:
.LBE2932:
.LBE2931:
.LBE2930:
	.loc 4 240 0
	cmpwi 7,11,0
.LBB2935:
.LBB2934:
.LBB2933:
	.loc 5 67 0
	addi 11,11,-1
	stw 11,-4(9)
.LBE2933:
.LBE2934:
.LBE2935:
	.loc 4 240 0
	bgt+ 7,.L402
	.loc 4 244 0
	addi 4,1,15
	bl _ZNSs4_Rep10_M_destroyERKSaIcE
.LVL476:
	b .L402
.LVL477:
.L474:
.LBE2936:
.LBE2937:
.LBE2938:
.LBE2939:
.LBE2959:
.LBB2960:
.LBB2921:
.LBB2920:
.LBB2919:
.LBB2918:
.LBB2912:
.LBB2913:
.LBB2914:
	.loc 5 66 0
	lwz 11,-4(9)
.LVL478:
.LBE2914:
.LBE2913:
.LBE2912:
	.loc 4 240 0
	cmpwi 7,11,0
.LBB2917:
.LBB2916:
.LBB2915:
	.loc 5 67 0
	addi 11,11,-1
	stw 11,-4(9)
.LBE2915:
.LBE2916:
.LBE2917:
	.loc 4 240 0
	bgt+ 7,.L396
	.loc 4 244 0
	addi 4,1,16
	bl _ZNSs4_Rep10_M_destroyERKSaIcE
.LVL479:
	b .L396
.LVL480:
.L473:
.LBE2918:
.LBE2919:
.LBE2920:
.LBE2921:
.LBE2960:
.LBB2961:
.LBB2903:
.LBB2902:
.LBB2901:
.LBB2900:
.LBB2894:
.LBB2895:
.LBB2896:
	.loc 5 66 0
	lwz 11,-4(9)
.LVL481:
.LBE2896:
.LBE2895:
.LBE2894:
	.loc 4 240 0
	cmpwi 7,11,0
.LBB2899:
.LBB2898:
.LBB2897:
	.loc 5 67 0
	addi 11,11,-1
	stw 11,-4(9)
.LBE2897:
.LBE2898:
.LBE2899:
	.loc 4 240 0
	bgt+ 7,.L390
	.loc 4 244 0
	addi 4,1,17
	bl _ZNSs4_Rep10_M_destroyERKSaIcE
.LVL482:
	b .L390
.LVL483:
.L471:
.LBE2900:
.LBE2901:
.LBE2902:
.LBE2903:
.LBE2961:
.LBE2962:
.LBE2963:
.LBE2964:
.LBE2966:
.LBE2968:
.LBE2970:
.LBE2972:
.LBE2974:
.LBE2976:
.LBE2978:
.LBE2980:
.LBE3201:
.LBB3202:
.LBB3056:
.LBB3052:
.LBB3051:
.LBB3050:
.LBB3049:
.LBB3048:
.LBB3042:
.LBB3043:
.LBB3044:
	.loc 5 66 0
	lwz 11,-4(9)
.LVL484:
.LBE3044:
.LBE3043:
.LBE3042:
	.loc 4 240 0
	cmpwi 7,11,0
.LBB3047:
.LBB3046:
.LBB3045:
	.loc 5 67 0
	addi 11,11,-1
	stw 11,-4(9)
.LBE3045:
.LBE3046:
.LBE3047:
	.loc 4 240 0
	bgt+ 7,.L435
	.loc 4 244 0
	addi 4,1,10
	bl _ZNSs4_Rep10_M_destroyERKSaIcE
.LVL485:
	b .L435
.LVL486:
.L470:
.LBE3048:
.LBE3049:
.LBE3050:
.LBE3051:
.LBE3052:
.LBB3053:
.LBB3033:
.LBB3032:
.LBB3031:
.LBB3030:
.LBB3024:
.LBB3025:
.LBB3026:
	.loc 5 66 0
	lwz 11,-4(9)
.LVL487:
.LBE3026:
.LBE3025:
.LBE3024:
	.loc 4 240 0
	cmpwi 7,11,0
.LBB3029:
.LBB3028:
.LBB3027:
	.loc 5 67 0
	addi 11,11,-1
	stw 11,-4(9)
.LBE3027:
.LBE3028:
.LBE3029:
	.loc 4 240 0
	bgt+ 7,.L428
	.loc 4 244 0
	addi 4,1,11
	bl _ZNSs4_Rep10_M_destroyERKSaIcE
.LVL488:
	b .L428
.LVL489:
.L469:
.LBE3030:
.LBE3031:
.LBE3032:
.LBE3033:
.LBE3053:
.LBB3054:
.LBB3015:
.LBB3014:
.LBB3013:
.LBB3012:
.LBB3006:
.LBB3007:
.LBB3008:
	.loc 5 66 0
	lwz 11,-4(9)
.LVL490:
.LBE3008:
.LBE3007:
.LBE3006:
	.loc 4 240 0
	cmpwi 7,11,0
.LBB3011:
.LBB3010:
.LBB3009:
	.loc 5 67 0
	addi 11,11,-1
	stw 11,-4(9)
.LBE3009:
.LBE3010:
.LBE3011:
	.loc 4 240 0
	bgt+ 7,.L422
	.loc 4 244 0
	addi 4,1,12
	bl _ZNSs4_Rep10_M_destroyERKSaIcE
.LVL491:
	b .L422
.LVL492:
.L468:
.LBE3012:
.LBE3013:
.LBE3014:
.LBE3015:
.LBE3054:
.LBB3055:
.LBB2997:
.LBB2996:
.LBB2995:
.LBB2994:
.LBB2988:
.LBB2989:
.LBB2990:
	.loc 5 66 0
	lwz 11,-4(9)
.LVL493:
.LBE2990:
.LBE2989:
.LBE2988:
	.loc 4 240 0
	cmpwi 7,11,0
.LBB2993:
.LBB2992:
.LBB2991:
	.loc 5 67 0
	addi 11,11,-1
	stw 11,-4(9)
.LBE2991:
.LBE2992:
.LBE2993:
	.loc 4 240 0
	bgt+ 7,.L416
	.loc 4 244 0
	addi 4,1,13
	bl _ZNSs4_Rep10_M_destroyERKSaIcE
.LVL494:
	b .L416
.LVL495:
.L460:
	lis 31,_ZNSs4_Rep20_S_empty_rep_storageE@ha
.LBE2994:
.LBE2995:
.LBE2996:
.LBE2997:
.LBE3055:
.LBE3056:
.LBE3202:
.LBE3235:
	.loc 1 104 0
	li 30,1
	la 31,_ZNSs4_Rep20_S_empty_rep_storageE@l(31)
	b .L373
.LVL496:
.L464:
	mr 30,3
.LVL497:
.LBB3236:
	.loc 1 77 0
	addi 3,1,20
.LVL498:
	bl _ZN11_theme_infoD1Ev
.LVL499:
.L450:
.LBE3236:
.LBB3237:
.LBB3238:
.LBB3239:
.LBB3240:
.LBB3241:
.LBB3242:
.LBB3243:
.LBB3244:
.LBB3245:
	.loc 4 288 0
	lwz 9,92(1)
.LBE3245:
.LBE3244:
.LBE3243:
.LBE3242:
.LBE3241:
.LBE3240:
	.loc 13 1411 0
	lis 11,_ZTV13TiXmlDocument+8@ha
	la 0,_ZTV13TiXmlDocument+8@l(11)
.LBB3262:
.LBB3259:
.LBB3256:
	.loc 4 534 0
	addi 3,9,-12
.LBE3256:
.LBE3259:
.LBE3262:
	.loc 13 1411 0
	stw 0,40(1)
.LVL500:
.LBB3263:
.LBB3260:
.LBB3257:
.LBB3246:
.LBB3247:
	.loc 4 235 0
	cmpw 7,3,31
	bne- 7,.L478
.LVL501:
.L456:
.LBE3247:
.LBE3246:
.LBE3257:
.LBE3260:
.LBE3263:
	.loc 13 1411 0
	addi 3,1,40
.LVL502:
	bl _ZN9TiXmlNodeD2Ev
.LVL503:
	mr 3,30
.LEHB45:
	bl _Unwind_Resume
.LEHE45:
.LVL504:
.L463:
	mr 30,3
	b .L450
.LVL505:
.L477:
.LBE3239:
.LBE3238:
.LBE3237:
.LBB3267:
.LBB3234:
.LBB3233:
.LBB3232:
.LBB3229:
.LBB3226:
.LBB3223:
.LBB3222:
.LBB3216:
.LBB3217:
.LBB3218:
	.loc 5 66 0
	lwz 11,-4(9)
.LVL506:
.LBE3218:
.LBE3217:
.LBE3216:
	.loc 4 240 0
	cmpwi 7,11,0
.LBB3221:
.LBB3220:
.LBB3219:
	.loc 5 67 0
	addi 11,11,-1
	stw 11,-4(9)
.LBE3219:
.LBE3220:
.LBE3221:
	.loc 4 240 0
	bgt+ 7,.L447
	.loc 4 244 0
	addi 4,1,9
	bl _ZNSs4_Rep10_M_destroyERKSaIcE
.LVL507:
	b .L447
.LVL508:
.L478:
.LBE3222:
.LBE3223:
.LBE3226:
.LBE3229:
.LBE3232:
.LBE3233:
.LBE3234:
.LBE3267:
.LBB3268:
.LBB3266:
.LBB3265:
.LBB3264:
.LBB3261:
.LBB3258:
.LBB3255:
.LBB3254:
.LBB3248:
.LBB3249:
.LBB3250:
	.loc 5 66 0
	lwz 11,-4(9)
.LVL509:
.LBE3250:
.LBE3249:
.LBE3248:
	.loc 4 240 0
	cmpwi 7,11,0
.LBB3253:
.LBB3252:
.LBB3251:
	.loc 5 67 0
	addi 11,11,-1
	stw 11,-4(9)
.LBE3251:
.LBE3252:
.LBE3253:
	.loc 4 240 0
	bgt+ 7,.L456
	.loc 4 244 0
	addi 4,1,8
	bl _ZNSs4_Rep10_M_destroyERKSaIcE
.LVL510:
	b .L456
.LBE3254:
.LBE3255:
.LBE3258:
.LBE3261:
.LBE3264:
.LBE3265:
.LBE3266:
.LBE3268:
.LBE3271:
	.cfi_endproc
.LFE1473:
	.section	.gcc_except_table
.LLSDA1473:
	.byte	0xff
	.byte	0xff
	.byte	0x1
	.uleb128 .LLSDACSE1473-.LLSDACSB1473
.LLSDACSB1473:
	.uleb128 .LEHB41-.LFB1473
	.uleb128 .LEHE41-.LEHB41
	.uleb128 0
	.uleb128 0
	.uleb128 .LEHB42-.LFB1473
	.uleb128 .LEHE42-.LEHB42
	.uleb128 .L463-.LFB1473
	.uleb128 0
	.uleb128 .LEHB43-.LFB1473
	.uleb128 .LEHE43-.LEHB43
	.uleb128 .L464-.LFB1473
	.uleb128 0
	.uleb128 .LEHB44-.LFB1473
	.uleb128 .LEHE44-.LEHB44
	.uleb128 0
	.uleb128 0
	.uleb128 .LEHB45-.LFB1473
	.uleb128 .LEHE45-.LEHB45
	.uleb128 0
	.uleb128 0
.LLSDACSE1473:
	.section	".text"
	.size	_ZN10Theme_List8ParseXMLEPKc, .-_ZN10Theme_List8ParseXMLEPKc
	.align 2
	.globl _ZN10Theme_ListC2ESs
	.type	_ZN10Theme_ListC2ESs, @function
_ZN10Theme_ListC2ESs:
.LFB1468:
	.loc 1 31 0
	.cfi_startproc
	.cfi_personality 0,__gxx_personality_v0
	.cfi_lsda 0,.LLSDA1468
.LVL511:
	mflr 0
	stwu 1,-32(1)
.LCFI21:
	.cfi_def_cfa_offset 32
	.cfi_register 65, 0
	stw 31,28(1)
	mr 31,3
	.cfi_offset 31, -4
.LVL512:
	stw 0,36(1)
.LBB3380:
.LBB3381:
.LBB3382:
.LBB3383:
.LBB3384:
	.loc 6 83 0
	li 0,0
	.cfi_offset 65, 4
.LBE3384:
.LBE3383:
.LBE3382:
.LBE3381:
.LBE3380:
	.loc 1 31 0
	stw 30,24(1)
.LBB3397:
.LBB3391:
	.loc 1 38 0
	addi 5,1,8
.LBE3391:
.LBB3392:
.LBB3389:
.LBB3387:
.LBB3385:
	.loc 6 83 0
	stw 0,0(3)
.LBE3385:
.LBE3387:
.LBE3389:
.LBE3392:
.LBB3393:
	.loc 1 38 0
	lwz 3,0(4)
.LVL513:
	addi 4,1,12
.LVL514:
.LBE3393:
.LBB3394:
.LBB3390:
.LBB3388:
.LBB3386:
	.loc 6 83 0
	stw 0,4(31)
	stw 0,8(31)
.LVL515:
.LBE3386:
.LBE3388:
.LBE3390:
.LBE3394:
.LBB3395:
	.loc 1 35 0
	stw 0,12(1)
.LVL516:
	.loc 1 36 0
	stw 0,8(1)
.LVL517:
.LEHB46:
	.loc 1 38 0
	.cfi_offset 30, -8
	bl _Z20DownloadWithResponsePKcPPhPj
	.loc 1 40 0
	lwz 30,12(1)
	cmpwi 7,30,0
	beq- 7,.L479
	.loc 1 43 0
	mr 3,30
	bl strlen
	li 0,2560
	sthx 0,30,3
	.loc 1 45 0
	lis 4,.LC8@ha
	la 4,.LC8@l(4)
	lwz 30,12(1)
	mr 3,30
	bl strstr
.LVL518:
	.loc 1 46 0
	mr. 4,3
	beq- 0,.L484
	.loc 1 52 0
	mr 3,31
.LVL519:
	bl _ZN10Theme_List8ParseXMLEPKc
.LEHE46:
.LVL520:
	.loc 1 54 0
	lwz 3,12(1)
	bl free
.LVL521:
.L479:
.LBE3395:
.LBE3397:
	.loc 1 55 0
	lwz 0,36(1)
	lwz 30,24(1)
	mtlr 0
	lwz 31,28(1)
.LVL522:
	addi 1,1,32
	.cfi_remember_state
.LCFI22:
	.cfi_def_cfa_offset 0
	.cfi_restore 31
	.cfi_restore 30
	blr
.LVL523:
.L484:
.LCFI23:
	.cfi_restore_state
.LBB3398:
.LBB3396:
	.loc 1 48 0
	mr 3,30
.LVL524:
	bl free
.LVL525:
	.loc 1 49 0
	b .L479
.L483:
	mr 30,3
.LBE3396:
	.loc 1 31 0
	mr 3,31
	bl _ZNSt6vectorI11_theme_infoSaIS0_EED1Ev
	mr 3,30
.LEHB47:
	bl _Unwind_Resume
.LEHE47:
.LBE3398:
	.cfi_endproc
.LFE1468:
	.section	.gcc_except_table
.LLSDA1468:
	.byte	0xff
	.byte	0xff
	.byte	0x1
	.uleb128 .LLSDACSE1468-.LLSDACSB1468
.LLSDACSB1468:
	.uleb128 .LEHB46-.LFB1468
	.uleb128 .LEHE46-.LEHB46
	.uleb128 .L483-.LFB1468
	.uleb128 0
	.uleb128 .LEHB47-.LFB1468
	.uleb128 .LEHE47-.LEHB47
	.uleb128 0
	.uleb128 0
.LLSDACSE1468:
	.section	".text"
	.size	_ZN10Theme_ListC2ESs, .-_ZN10Theme_ListC2ESs
	.section	.text.startup,"ax",@progbits
	.align 2
	.type	_GLOBAL__sub_I__ZN10Theme_ListC2ESs, @function
_GLOBAL__sub_I__ZN10Theme_ListC2ESs:
.LFB1620:
	.loc 1 137 0
	.cfi_startproc
	.loc 1 137 0
	li 3,1
	b _Z41__static_initialization_and_destruction_0ii.constprop.34
	.cfi_endproc
.LFE1620:
	.size	_GLOBAL__sub_I__ZN10Theme_ListC2ESs, .-_GLOBAL__sub_I__ZN10Theme_ListC2ESs
	.section	.ctors,"aw",@progbits
	.align 2
	.long	_GLOBAL__sub_I__ZN10Theme_ListC2ESs
	.section	.text.exit,"ax",@progbits
	.align 2
	.type	_GLOBAL__sub_D__ZN10Theme_ListC2ESs, @function
_GLOBAL__sub_D__ZN10Theme_ListC2ESs:
.LFB1621:
	.loc 1 137 0
	.cfi_startproc
	.loc 1 137 0
	li 3,0
	b _Z41__static_initialization_and_destruction_0ii.constprop.34
	.cfi_endproc
.LFE1621:
	.size	_GLOBAL__sub_D__ZN10Theme_ListC2ESs, .-_GLOBAL__sub_D__ZN10Theme_ListC2ESs
	.section	.dtors,"aw",@progbits
	.align 2
	.long	_GLOBAL__sub_D__ZN10Theme_ListC2ESs
	.globl _ZN10Theme_ListD1Ev
	.set	_ZN10Theme_ListD1Ev,_ZN10Theme_ListD2Ev
	.weak	_ZN11_theme_infoD1Ev
	.set	_ZN11_theme_infoD1Ev,_ZN11_theme_infoD2Ev
	.weak	_ZNSt6vectorI11_theme_infoSaIS0_EED1Ev
	.set	_ZNSt6vectorI11_theme_infoSaIS0_EED1Ev,_ZNSt6vectorI11_theme_infoSaIS0_EED2Ev
	.globl _ZN10Theme_ListC1ESs
	.set	_ZN10Theme_ListC1ESs,_ZN10Theme_ListC2ESs
	.section	.rodata.str1.4,"aMS",@progbits,1
	.align 2
.LC0:
	.string	"vector::_M_fill_insert"
	.zero	1
.LC1:
	.string	"themes"
	.zero	1
.LC2:
	.string	"theme"
	.zero	2
.LC3:
	.string	"name"
	.zero	3
.LC4:
	.string	"creator"
.LC5:
	.string	"thumbpath"
	.zero	2
.LC6:
	.string	"downloadpath"
	.zero	3
.LC7:
	.string	"averagerating"
	.zero	2
.LC8:
	.string	"<?xml version="
	.section	".bss"
	.set	.LANCHOR0,. + 0
	.type	_ZStL8__ioinit, @object
	.size	_ZStL8__ioinit, 1
_ZStL8__ioinit:
	.zero	1
	.section	".text"
.Letext0:
	.file 15 "d:\\devkitpro\\devkitppc\\bin\\../lib/gcc/powerpc-eabi/4.6.3/../../../../powerpc-eabi/include/stdint.h"
	.file 16 "d:/devkitPro/libogc/include/gctypes.h"
	.file 17 "d:\\devkitpro\\devkitppc\\bin\\../lib/gcc/powerpc-eabi/4.6.3/include/stddef.h"
	.file 18 "<built-in>"
	.file 19 "d:\\devkitpro\\devkitppc\\bin\\../lib/gcc/powerpc-eabi/4.6.3/../../../../powerpc-eabi/include/machine/_types.h"
	.file 20 "d:\\devkitpro\\devkitppc\\bin\\../lib/gcc/powerpc-eabi/4.6.3/../../../../powerpc-eabi/include/sys/lock.h"
	.file 21 "d:\\devkitpro\\devkitppc\\bin\\../lib/gcc/powerpc-eabi/4.6.3/../../../../powerpc-eabi/include/sys/_types.h"
	.file 22 "d:\\devkitpro\\devkitppc\\bin\\../lib/gcc/powerpc-eabi/4.6.3/../../../../powerpc-eabi/include/sys/reent.h"
	.file 23 "d:\\devkitpro\\devkitppc\\bin\\../lib/gcc/powerpc-eabi/4.6.3/../../../../powerpc-eabi/include/stdio.h"
	.file 24 "d:\\devkitpro\\devkitppc\\bin\\../lib/gcc/powerpc-eabi/4.6.3/../../../../powerpc-eabi/include/c++/4.6.3/cwchar"
	.file 25 "d:\\devkitpro\\devkitppc\\bin\\../lib/gcc/powerpc-eabi/4.6.3/../../../../powerpc-eabi/include/c++/4.6.3/powerpc-eabi/bits/c++config.h"
	.file 26 "d:\\devkitpro\\devkitppc\\bin\\../lib/gcc/powerpc-eabi/4.6.3/../../../../powerpc-eabi/include/c++/4.6.3/clocale"
	.file 27 "d:\\devkitpro\\devkitppc\\bin\\../lib/gcc/powerpc-eabi/4.6.3/../../../../powerpc-eabi/include/c++/4.6.3/bits/stringfwd.h"
	.file 28 "d:\\devkitpro\\devkitppc\\bin\\../lib/gcc/powerpc-eabi/4.6.3/../../../../powerpc-eabi/include/c++/4.6.3/bits/ios_base.h"
	.file 29 "d:\\devkitpro\\devkitppc\\bin\\../lib/gcc/powerpc-eabi/4.6.3/../../../../powerpc-eabi/include/c++/4.6.3/cwctype"
	.file 30 "d:\\devkitpro\\devkitppc\\bin\\../lib/gcc/powerpc-eabi/4.6.3/../../../../powerpc-eabi/include/c++/4.6.3/iosfwd"
	.file 31 "d:\\devkitpro\\devkitppc\\bin\\../lib/gcc/powerpc-eabi/4.6.3/../../../../powerpc-eabi/include/c++/4.6.3/bits/move.h"
	.file 32 "d:\\devkitpro\\devkitppc\\bin\\../lib/gcc/powerpc-eabi/4.6.3/../../../../powerpc-eabi/include/c++/4.6.3/bits/cpp_type_traits.h"
	.file 33 "d:\\devkitpro\\devkitppc\\bin\\../lib/gcc/powerpc-eabi/4.6.3/../../../../powerpc-eabi/include/c++/4.6.3/debug/debug.h"
	.file 34 "d:\\devkitpro\\devkitppc\\bin\\../lib/gcc/powerpc-eabi/4.6.3/../../../../powerpc-eabi/include/wchar.h"
	.file 35 "d:\\devkitpro\\devkitppc\\bin\\../lib/gcc/powerpc-eabi/4.6.3/../../../../powerpc-eabi/include/c++/4.6.3/bits/allocator.h"
	.file 36 "d:\\devkitpro\\devkitppc\\bin\\../lib/gcc/powerpc-eabi/4.6.3/../../../../powerpc-eabi/include/locale.h"
	.file 37 "d:\\devkitpro\\devkitppc\\bin\\../lib/gcc/powerpc-eabi/4.6.3/../../../../powerpc-eabi/include/c++/4.6.3/powerpc-eabi/bits/atomic_word.h"
	.file 38 "d:\\devkitpro\\devkitppc\\bin\\../lib/gcc/powerpc-eabi/4.6.3/../../../../powerpc-eabi/include/c++/4.6.3/ext/numeric_traits.h"
	.file 39 "d:\\devkitpro\\devkitppc\\bin\\../lib/gcc/powerpc-eabi/4.6.3/../../../../powerpc-eabi/include/c++/4.6.3/bits/basic_string.tcc"
	.file 40 "d:\\devkitpro\\devkitppc\\bin\\../lib/gcc/powerpc-eabi/4.6.3/../../../../powerpc-eabi/include/wctype.h"
	.file 41 "d:\\devkitpro\\devkitppc\\bin\\../lib/gcc/powerpc-eabi/4.6.3/../../../../powerpc-eabi/include/c++/4.6.3/bits/stl_iterator_base_types.h"
	.file 42 "d:\\devkitpro\\devkitppc\\bin\\../lib/gcc/powerpc-eabi/4.6.3/../../../../powerpc-eabi/include/c++/4.6.3/new"