	.file	"ThemeDownloader.cpp"
	.section	".text"
.Ltext0:
	.section	.text._ZN7sigslot15single_threaded4lockEv,"axG",@progbits,_ZN7sigslot15single_threaded4lockEv,comdat
	.align 2
	.weak	_ZN7sigslot15single_threaded4lockEv
	.type	_ZN7sigslot15single_threaded4lockEv, @function
_ZN7sigslot15single_threaded4lockEv:
.LFB1151:
	.file 1 "d:/Projects/SaveGameManager/savegame-manager-gx/trunk/source/Themes/../Settings/menus/../../GUI/../sigslot.h"
	.loc 1 109 0
	.cfi_startproc
.LVL0:
	.loc 1 112 0
	blr
	.cfi_endproc
.LFE1151:
	.size	_ZN7sigslot15single_threaded4lockEv, .-_ZN7sigslot15single_threaded4lockEv
	.section	.text._ZN7sigslot15single_threaded6unlockEv,"axG",@progbits,_ZN7sigslot15single_threaded6unlockEv,comdat
	.align 2
	.weak	_ZN7sigslot15single_threaded6unlockEv
	.type	_ZN7sigslot15single_threaded6unlockEv, @function
_ZN7sigslot15single_threaded6unlockEv:
.LFB1152:
	.loc 1 114 0
	.cfi_startproc
.LVL1:
	.loc 1 117 0
	blr
	.cfi_endproc
.LFE1152:
	.size	_ZN7sigslot15single_threaded6unlockEv, .-_ZN7sigslot15single_threaded6unlockEv
	.section	.text._ZN10GuiElement9SetParentEPS_,"axG",@progbits,_ZN10GuiElement9SetParentEPS_,comdat
	.align 2
	.weak	_ZN10GuiElement9SetParentEPS_
	.type	_ZN10GuiElement9SetParentEPS_, @function
_ZN10GuiElement9SetParentEPS_:
.LFB1384:
	.file 2 "d:/Projects/SaveGameManager/savegame-manager-gx/trunk/source/Themes/../Settings/menus/../../GUI/gui_element.h"
	.loc 2 92 0
	.cfi_startproc
.LVL2:
	.loc 2 92 0
	stw 4,96(3)
	blr
	.cfi_endproc
.LFE1384:
	.size	_ZN10GuiElement9SetParentEPS_, .-_ZN10GuiElement9SetParentEPS_
	.section	.text._ZN10GuiElement9GetParentEv,"axG",@progbits,_ZN10GuiElement9GetParentEv,comdat
	.align 2
	.weak	_ZN10GuiElement9GetParentEv
	.type	_ZN10GuiElement9GetParentEv, @function
_ZN10GuiElement9GetParentEv:
.LFB1385:
	.loc 2 95 0
	.cfi_startproc
.LVL3:
	.loc 2 95 0
	lwz 3,96(3)
.LVL4:
	blr
	.cfi_endproc
.LFE1385:
	.size	_ZN10GuiElement9GetParentEv, .-_ZN10GuiElement9GetParentEv
	.section	.text._ZN10GuiElement12GetZPositionEv,"axG",@progbits,_ZN10GuiElement12GetZPositionEv,comdat
	.align 2
	.weak	_ZN10GuiElement12GetZPositionEv
	.type	_ZN10GuiElement12GetZPositionEv, @function
_ZN10GuiElement12GetZPositionEv:
.LFB1386:
	.loc 2 106 0
	.cfi_startproc
.LVL5:
	mflr 0
	stwu 1,-16(1)
.LCFI0:
	.cfi_def_cfa_offset 16
	.cfi_register 65, 0
	stw 31,12(1)
	mr 31,3
	.cfi_offset 31, -4
	stw 0,20(1)
.LBB2931:
	.loc 2 110 0
	lwz 11,96(3)
	.loc 2 108 0
	li 3,0
.LVL6:
	.loc 2 110 0
	cmpwi 7,11,0
	beq- 7,.L6
	.cfi_offset 65, 4
	.loc 2 111 0
	lwz 9,0(11)
	mr 3,11
	lwz 0,24(9)
	mtctr 0
	bctrl
.LVL7:
.L6:
	.loc 2 113 0
	lwz 0,52(31)
.LBE2931:
	.loc 2 114 0
	lwz 31,12(1)
.LVL8:
	add 3,3,0
.LVL9:
	lwz 0,20(1)
	addi 1,1,16
.LCFI1:
	.cfi_def_cfa_offset 0
	.cfi_restore 31
	mtlr 0
	blr
	.cfi_endproc
.LFE1386:
	.size	_ZN10GuiElement12GetZPositionEv, .-_ZN10GuiElement12GetZPositionEv
	.section	.text._ZN10GuiElement10GetLeftPosEv,"axG",@progbits,_ZN10GuiElement10GetLeftPosEv,comdat
	.align 2
	.weak	_ZN10GuiElement10GetLeftPosEv
	.type	_ZN10GuiElement10GetLeftPosEv, @function
_ZN10GuiElement10GetLeftPosEv:
.LFB1387:
	.loc 2 116 0
	.cfi_startproc
.LVL10:
	.loc 2 116 0
	lwz 3,44(3)
.LVL11:
	blr
	.cfi_endproc
.LFE1387:
	.size	_ZN10GuiElement10GetLeftPosEv, .-_ZN10GuiElement10GetLeftPosEv
	.section	.text._ZN10GuiElement9GetTopPosEv,"axG",@progbits,_ZN10GuiElement9GetTopPosEv,comdat
	.align 2
	.weak	_ZN10GuiElement9GetTopPosEv
	.type	_ZN10GuiElement9GetTopPosEv, @function
_ZN10GuiElement9GetTopPosEv:
.LFB1388:
	.loc 2 118 0
	.cfi_startproc
.LVL12:
	.loc 2 118 0
	lwz 3,48(3)
.LVL13:
	blr
	.cfi_endproc
.LFE1388:
	.size	_ZN10GuiElement9GetTopPosEv, .-_ZN10GuiElement9GetTopPosEv
	.section	.text._ZN10GuiElement8GetWidthEv,"axG",@progbits,_ZN10GuiElement8GetWidthEv,comdat
	.align 2
	.weak	_ZN10GuiElement8GetWidthEv
	.type	_ZN10GuiElement8GetWidthEv, @function
_ZN10GuiElement8GetWidthEv:
.LFB1389:
	.loc 2 121 0
	.cfi_startproc
.LVL14:
	.loc 2 121 0
	lwz 3,36(3)
.LVL15:
	blr
	.cfi_endproc
.LFE1389:
	.size	_ZN10GuiElement8GetWidthEv, .-_ZN10GuiElement8GetWidthEv
	.section	.text._ZN10GuiElement9GetHeightEv,"axG",@progbits,_ZN10GuiElement9GetHeightEv,comdat
	.align 2
	.weak	_ZN10GuiElement9GetHeightEv
	.type	_ZN10GuiElement9GetHeightEv, @function
_ZN10GuiElement9GetHeightEv:
.LFB1390:
	.loc 2 124 0
	.cfi_startproc
.LVL16:
	.loc 2 124 0
	lwz 3,40(3)
.LVL17:
	blr
	.cfi_endproc
.LFE1390:
	.size	_ZN10GuiElement9GetHeightEv, .-_ZN10GuiElement9GetHeightEv
	.section	.text._ZN10GuiElement7SetSizeEii,"axG",@progbits,_ZN10GuiElement7SetSizeEii,comdat
	.align 2
	.weak	_ZN10GuiElement7SetSizeEii
	.type	_ZN10GuiElement7SetSizeEii, @function
_ZN10GuiElement7SetSizeEii:
.LFB1391:
	.loc 2 128 0
	.cfi_startproc
.LVL18:
	.loc 2 130 0
	stw 4,36(3)
	.loc 2 132 0
	.loc 2 131 0
	stw 5,40(3)
	.loc 2 132 0
	blr
	.cfi_endproc
.LFE1391:
	.size	_ZN10GuiElement7SetSizeEii, .-_ZN10GuiElement7SetSizeEii
	.section	.text._ZN10GuiElement9IsVisibleEv,"axG",@progbits,_ZN10GuiElement9IsVisibleEv,comdat
	.align 2
	.weak	_ZN10GuiElement9IsVisibleEv
	.type	_ZN10GuiElement9IsVisibleEv, @function
_ZN10GuiElement9IsVisibleEv:
.LFB1393:
	.loc 2 142 0
	.cfi_startproc
.LVL19:
	.loc 2 142 0
	lbz 3,29(3)
.LVL20:
	blr
	.cfi_endproc
.LFE1393:
	.size	_ZN10GuiElement9IsVisibleEv, .-_ZN10GuiElement9IsVisibleEv
	.section	.text._ZN10GuiElement12IsSelectableEv,"axG",@progbits,_ZN10GuiElement12IsSelectableEv,comdat
	.align 2
	.weak	_ZN10GuiElement12IsSelectableEv
	.type	_ZN10GuiElement12IsSelectableEv, @function
_ZN10GuiElement12IsSelectableEv:
.LFB1394:
	.loc 2 145 0
	.cfi_startproc
.LVL21:
	.loc 2 149 0
	lwz 0,72(3)
	li 9,0
	cmpwi 7,0,4
	beq- 7,.L16
	.loc 2 149 0 is_stmt 0 discriminator 1
	cmpwi 7,0,2
	beq- 7,.L16
	.loc 2 149 0 discriminator 3
	lbz 9,30(3)
.L16:
	.loc 2 150 0 is_stmt 1 discriminator 5
	mr 3,9
.LVL22:
	blr
	.cfi_endproc
.LFE1394:
	.size	_ZN10GuiElement12IsSelectableEv, .-_ZN10GuiElement12IsSelectableEv
	.section	.text._ZN10GuiElement11IsClickableEv,"axG",@progbits,_ZN10GuiElement11IsClickableEv,comdat
	.align 2
	.weak	_ZN10GuiElement11IsClickableEv
	.type	_ZN10GuiElement11IsClickableEv, @function
_ZN10GuiElement11IsClickableEv:
.LFB1395:
	.loc 2 153 0
	.cfi_startproc
.LVL23:
	.loc 2 158 0
	lwz 0,72(3)
	li 9,0
	cmpwi 7,0,4
	beq- 7,.L20
	.loc 2 158 0 is_stmt 0 discriminator 1
	cmpwi 7,0,2
	beq- 7,.L20
	.loc 2 158 0 discriminator 3
	cmpwi 7,0,3
	beq- 7,.L20
	.loc 2 158 0 discriminator 4
	lbz 9,31(3)
.L20:
	.loc 2 159 0 is_stmt 1 discriminator 6
	mr 3,9
.LVL24:
	blr
	.cfi_endproc
.LFE1395:
	.size	_ZN10GuiElement11IsClickableEv, .-_ZN10GuiElement11IsClickableEv
	.section	.text._ZN10GuiElement10IsHoldableEv,"axG",@progbits,_ZN10GuiElement10IsHoldableEv,comdat
	.align 2
	.weak	_ZN10GuiElement10IsHoldableEv
	.type	_ZN10GuiElement10IsHoldableEv, @function
_ZN10GuiElement10IsHoldableEv:
.LFB1396:
	.loc 2 162 0
	.cfi_startproc
.LVL25:
	.loc 2 162 0
	lwz 9,72(3)
	li 0,0
	cmpwi 7,9,4
	beq- 7,.L25
	.loc 2 162 0 is_stmt 0 discriminator 1
	lbz 0,32(3)
.L25:
	.loc 2 162 0 discriminator 4
	mr 3,0
.LVL26:
	blr
	.cfi_endproc
.LFE1396:
	.size	_ZN10GuiElement10IsHoldableEv, .-_ZN10GuiElement10IsHoldableEv
	.section	.text._ZN10GuiElement13SetSelectableEb,"axG",@progbits,_ZN10GuiElement13SetSelectableEb,comdat
	.align 2
	.weak	_ZN10GuiElement13SetSelectableEb
	.type	_ZN10GuiElement13SetSelectableEb, @function
_ZN10GuiElement13SetSelectableEb:
.LFB1397:
	.loc 2 165 0 is_stmt 1
	.cfi_startproc
.LVL27:
	.loc 2 165 0
	stb 4,30(3)
	blr
	.cfi_endproc
.LFE1397:
	.size	_ZN10GuiElement13SetSelectableEb, .-_ZN10GuiElement13SetSelectableEb
	.section	.text._ZN10GuiElement12SetClickableEb,"axG",@progbits,_ZN10GuiElement12SetClickableEb,comdat
	.align 2
	.weak	_ZN10GuiElement12SetClickableEb
	.type	_ZN10GuiElement12SetClickableEb, @function
_ZN10GuiElement12SetClickableEb:
.LFB1398:
	.loc 2 168 0
	.cfi_startproc
.LVL28:
	.loc 2 168 0
	stb 4,31(3)
	blr
	.cfi_endproc
.LFE1398:
	.size	_ZN10GuiElement12SetClickableEb, .-_ZN10GuiElement12SetClickableEb
	.section	.text._ZN10GuiElement11SetHoldableEb,"axG",@progbits,_ZN10GuiElement11SetHoldableEb,comdat
	.align 2
	.weak	_ZN10GuiElement11SetHoldableEb
	.type	_ZN10GuiElement11SetHoldableEb, @function
_ZN10GuiElement11SetHoldableEb:
.LFB1399:
	.loc 2 171 0
	.cfi_startproc
.LVL29:
	.loc 2 171 0
	stb 4,32(3)
	blr
	.cfi_endproc
.LFE1399:
	.size	_ZN10GuiElement11SetHoldableEb, .-_ZN10GuiElement11SetHoldableEb
	.section	.text._ZN10GuiElement8GetStateEv,"axG",@progbits,_ZN10GuiElement8GetStateEv,comdat
	.align 2
	.weak	_ZN10GuiElement8GetStateEv
	.type	_ZN10GuiElement8GetStateEv, @function
_ZN10GuiElement8GetStateEv:
.LFB1400:
	.loc 2 178 0
	.cfi_startproc
.LVL30:
	.loc 2 178 0
	lwz 3,72(3)
.LVL31:
	blr
	.cfi_endproc
.LFE1400:
	.size	_ZN10GuiElement8GetStateEv, .-_ZN10GuiElement8GetStateEv
	.section	.text._ZN10GuiElement12GetStateChanEv,"axG",@progbits,_ZN10GuiElement12GetStateChanEv,comdat
	.align 2
	.weak	_ZN10GuiElement12GetStateChanEv
	.type	_ZN10GuiElement12GetStateChanEv, @function
_ZN10GuiElement12GetStateChanEv:
.LFB1401:
	.loc 2 181 0
	.cfi_startproc
.LVL32:
	.loc 2 181 0
	lwz 3,76(3)
.LVL33:
	blr
	.cfi_endproc
.LFE1401:
	.size	_ZN10GuiElement12GetStateChanEv, .-_ZN10GuiElement12GetStateChanEv
	.section	.text._ZN10GuiElement8SetAlphaEi,"axG",@progbits,_ZN10GuiElement8SetAlphaEi,comdat
	.align 2
	.weak	_ZN10GuiElement8SetAlphaEi
	.type	_ZN10GuiElement8SetAlphaEi, @function
_ZN10GuiElement8SetAlphaEi:
.LFB1403:
	.loc 2 190 0
	.cfi_startproc
.LVL34:
	.loc 2 190 0
	stw 4,56(3)
	blr
	.cfi_endproc
.LFE1403:
	.size	_ZN10GuiElement8SetAlphaEi, .-_ZN10GuiElement8SetAlphaEi
	.section	.text._ZN10GuiElement8GetAlphaEv,"axG",@progbits,_ZN10GuiElement8GetAlphaEv,comdat
	.align 2
	.weak	_ZN10GuiElement8GetAlphaEv
	.type	_ZN10GuiElement8GetAlphaEv, @function
_ZN10GuiElement8GetAlphaEv:
.LFB1404:
	.loc 2 194 0
	.cfi_startproc
.LVL35:
	mflr 0
	stwu 1,-40(1)
.LCFI2:
	.cfi_def_cfa_offset 40
	.cfi_register 65, 0
	stw 31,36(1)
	stw 0,44(1)
.LBB2932:
	.loc 2 198 0
	lwz 31,108(3)
	.cfi_offset 65, 4
	.cfi_offset 31, -4
	cmpwi 7,31,0
	blt- 7,.L36
.L34:
.LVL36:
	.loc 2 203 0
	lwz 3,96(3)
.LVL37:
	cmpwi 7,3,0
	beq- 7,.L35
	.loc 2 204 0
	lwz 9,0(3)
	xoris 31,31,0x8000
.LVL38:
	lwz 0,100(9)
	mtctr 0
	bctrl
	lis 0,0x4330
	xoris 3,3,0x8000
	stw 0,16(1)
	stw 3,20(1)
	lis 9,.LC1@ha
	lfs 0,.LC1@l(9)
	lis 9,.LC2@ha
	lfd 13,16(1)
	lfs 12,.LC2@l(9)
	addi 9,1,24
	fsub 13,13,0
	stw 31,12(1)
	stw 0,8(1)
	frsp 13,13
	fdivs 13,13,12
	lfd 12,8(1)
	fsub 0,12,0
	frsp 0,0
	fmuls 0,0,13
	fctiwz 0,0
	stfiwx 0,0,9
	lwz 31,24(1)
.LVL39:
.L35:
.LBE2932:
	.loc 2 207 0
	lwz 0,44(1)
	mr 3,31
	lwz 31,36(1)
.LVL40:
	mtlr 0
	addi 1,1,40
	.cfi_remember_state
.LCFI3:
	.cfi_def_cfa_offset 0
	.cfi_restore 31
	blr
.LVL41:
.L36:
.LCFI4:
	.cfi_restore_state
.LBB2933:
	.loc 2 201 0
	lwz 31,56(3)
.LVL42:
	b .L34
.LBE2933:
	.cfi_endproc
.LFE1404:
	.size	_ZN10GuiElement8GetAlphaEv, .-_ZN10GuiElement8GetAlphaEv
	.section	.text._ZN10GuiElement8SetScaleEf,"axG",@progbits,_ZN10GuiElement8SetScaleEf,comdat
	.align 2
	.weak	_ZN10GuiElement8SetScaleEf
	.type	_ZN10GuiElement8SetScaleEf, @function
_ZN10GuiElement8SetScaleEf:
.LFB1405:
	.loc 2 210 0
	.cfi_startproc
.LVL43:
	.loc 2 212 0
	stfs 1,60(3)
	.loc 2 214 0
	.loc 2 213 0
	stfs 1,64(3)
	.loc 2 214 0
	blr
	.cfi_endproc
.LFE1405:
	.size	_ZN10GuiElement8SetScaleEf, .-_ZN10GuiElement8SetScaleEf
	.section	.text._ZN10GuiElement9SetScaleXEf,"axG",@progbits,_ZN10GuiElement9SetScaleXEf,comdat
	.align 2
	.weak	_ZN10GuiElement9SetScaleXEf
	.type	_ZN10GuiElement9SetScaleXEf, @function
_ZN10GuiElement9SetScaleXEf:
.LFB1406:
	.loc 2 217 0
	.cfi_startproc
.LVL44:
	.loc 2 217 0
	stfs 1,60(3)
	blr
	.cfi_endproc
.LFE1406:
	.size	_ZN10GuiElement9SetScaleXEf, .-_ZN10GuiElement9SetScaleXEf
	.section	.text._ZN10GuiElement9SetScaleYEf,"axG",@progbits,_ZN10GuiElement9SetScaleYEf,comdat
	.align 2
	.weak	_ZN10GuiElement9SetScaleYEf
	.type	_ZN10GuiElement9SetScaleYEf, @function
_ZN10GuiElement9SetScaleYEf:
.LFB1407:
	.loc 2 220 0
	.cfi_startproc
.LVL45:
	.loc 2 220 0
	stfs 1,64(3)
	blr
	.cfi_endproc
.LFE1407:
	.size	_ZN10GuiElement9SetScaleYEf, .-_ZN10GuiElement9SetScaleYEf
	.section	.text._ZN10GuiElement8GetScaleEv,"axG",@progbits,_ZN10GuiElement8GetScaleEv,comdat
	.align 2
	.weak	_ZN10GuiElement8GetScaleEv
	.type	_ZN10GuiElement8GetScaleEv, @function
_ZN10GuiElement8GetScaleEv:
.LFB1408:
	.loc 2 223 0
	.cfi_startproc
.LVL46:
	mflr 0
	stwu 1,-16(1)
.LCFI5:
	.cfi_def_cfa_offset 16
	.cfi_register 65, 0
.LBB2934:
	.loc 2 225 0
	lis 9,.LC3@ha
.LBE2934:
	.loc 2 223 0
	stfd 31,8(1)
	stw 0,20(1)
.LBB2935:
	.loc 2 225 0
	lfs 0,64(3)
	lfs 31,60(3)
	.cfi_offset 65, 4
	.cfi_offset 63, -8
	.loc 2 227 0
	lwz 11,96(3)
	.loc 2 225 0
	fadds 31,31,0
	lfs 0,.LC3@l(9)
	.loc 2 227 0
	cmpwi 7,11,0
	.loc 2 225 0
	fmuls 31,31,0
	lfs 0,112(3)
	fmuls 31,31,0
.LVL47:
	.loc 2 227 0
	beq- 7,.L41
	.loc 2 228 0
	lwz 9,0(11)
	mr 3,11
.LVL48:
	lwz 0,116(9)
	mtctr 0
	bctrl
	fmuls 31,31,1
.LVL49:
.L41:
.LBE2935:
	.loc 2 231 0
	lwz 0,20(1)
	fmr 1,31
	lfd 31,8(1)
.LVL50:
	mtlr 0
	addi 1,1,16
.LCFI6:
	.cfi_def_cfa_offset 0
	.cfi_restore 63
	blr
	.cfi_endproc
.LFE1408:
	.size	_ZN10GuiElement8GetScaleEv, .-_ZN10GuiElement8GetScaleEv
	.section	.text._ZN10GuiElement9GetScaleXEv,"axG",@progbits,_ZN10GuiElement9GetScaleXEv,comdat
	.align 2
	.weak	_ZN10GuiElement9GetScaleXEv
	.type	_ZN10GuiElement9GetScaleXEv, @function
_ZN10GuiElement9GetScaleXEv:
.LFB1409:
	.loc 2 234 0
	.cfi_startproc
.LVL51:
	mflr 0
	stwu 1,-16(1)
.LCFI7:
	.cfi_def_cfa_offset 16
	.cfi_register 65, 0
	stfd 31,8(1)
	stw 0,20(1)
.LBB2936:
	.loc 2 238 0
	lwz 11,96(3)
	.loc 2 236 0
	lfs 31,60(3)
	.cfi_offset 65, 4
	.cfi_offset 63, -8
	.loc 2 238 0
	cmpwi 7,11,0
	.loc 2 236 0
	lfs 0,112(3)
	fmuls 31,31,0
.LVL52:
	.loc 2 238 0
	beq- 7,.L43
	.loc 2 239 0
	lwz 9,0(11)
	mr 3,11
.LVL53:
	lwz 0,120(9)
	mtctr 0
	bctrl
	fmuls 31,31,1
.LVL54:
.L43:
.LBE2936:
	.loc 2 242 0
	lwz 0,20(1)
	fmr 1,31
	lfd 31,8(1)
.LVL55:
	mtlr 0
	addi 1,1,16
.LCFI8:
	.cfi_def_cfa_offset 0
	.cfi_restore 63
	blr
	.cfi_endproc
.LFE1409:
	.size	_ZN10GuiElement9GetScaleXEv, .-_ZN10GuiElement9GetScaleXEv
	.section	.text._ZN10GuiElement9GetScaleYEv,"axG",@progbits,_ZN10GuiElement9GetScaleYEv,comdat
	.align 2
	.weak	_ZN10GuiElement9GetScaleYEv
	.type	_ZN10GuiElement9GetScaleYEv, @function
_ZN10GuiElement9GetScaleYEv:
.LFB1410:
	.loc 2 245 0
	.cfi_startproc
.LVL56:
	mflr 0
	stwu 1,-16(1)
.LCFI9:
	.cfi_def_cfa_offset 16
	.cfi_register 65, 0
	stfd 31,8(1)
	stw 0,20(1)
.LBB2937:
	.loc 2 249 0
	lwz 11,96(3)
	.loc 2 247 0
	lfs 31,64(3)
	.cfi_offset 65, 4
	.cfi_offset 63, -8
	.loc 2 249 0
	cmpwi 7,11,0
	.loc 2 247 0
	lfs 0,112(3)
	fmuls 31,31,0
.LVL57:
	.loc 2 249 0
	beq- 7,.L45
	.loc 2 250 0
	lwz 9,0(11)
	mr 3,11
.LVL58:
	lwz 0,124(9)
	mtctr 0
	bctrl
	fmuls 31,31,1
.LVL59:
.L45:
.LBE2937:
	.loc 2 253 0
	lwz 0,20(1)
	fmr 1,31
	lfd 31,8(1)
.LVL60:
	mtlr 0
	addi 1,1,16
.LCFI10:
	.cfi_def_cfa_offset 0
	.cfi_restore 63
	blr
	.cfi_endproc
.LFE1410:
	.size	_ZN10GuiElement9GetScaleYEv, .-_ZN10GuiElement9GetScaleYEv
	.section	.text._ZN10GuiElement6RumbleEv,"axG",@progbits,_ZN10GuiElement6RumbleEv,comdat
	.align 2
	.weak	_ZN10GuiElement6RumbleEv
	.type	_ZN10GuiElement6RumbleEv, @function
_ZN10GuiElement6RumbleEv:
.LFB1411:
	.loc 2 256 0
	.cfi_startproc
.LVL61:
	.loc 2 256 0
	lbz 3,28(3)
.LVL62:
	blr
	.cfi_endproc
.LFE1411:
	.size	_ZN10GuiElement6RumbleEv, .-_ZN10GuiElement6RumbleEv
	.section	.text._ZN10GuiElement9SetRumbleEb,"axG",@progbits,_ZN10GuiElement9SetRumbleEb,comdat
	.align 2
	.weak	_ZN10GuiElement9SetRumbleEb
	.type	_ZN10GuiElement9SetRumbleEb, @function
_ZN10GuiElement9SetRumbleEb:
.LFB1412:
	.loc 2 259 0
	.cfi_startproc
.LVL63:
	.loc 2 259 0
	stb 4,28(3)
	blr
	.cfi_endproc
.LFE1412:
	.size	_ZN10GuiElement9SetRumbleEb, .-_ZN10GuiElement9SetRumbleEb
	.section	.text._ZN10GuiElement13SetEffectGrowEv,"axG",@progbits,_ZN10GuiElement13SetEffectGrowEv,comdat
	.align 2
	.weak	_ZN10GuiElement13SetEffectGrowEv
	.type	_ZN10GuiElement13SetEffectGrowEv, @function
_ZN10GuiElement13SetEffectGrowEv:
.LFB1413:
	.loc 2 271 0
	.cfi_startproc
.LVL64:
	mflr 0
	stwu 1,-8(1)
.LCFI11:
	.cfi_def_cfa_offset 8
	.cfi_register 65, 0
	lwz 9,0(3)
	li 4,256
	li 5,4
	li 6,110
	stw 0,12(1)
	.loc 2 271 0
	lwz 0,140(9)
	.cfi_offset 65, 4
	mtctr 0
	bctrl
.LVL65:
	lwz 0,12(1)
	addi 1,1,8
.LCFI12:
	.cfi_def_cfa_offset 0
	mtlr 0
	blr
	.cfi_endproc
.LFE1413:
	.size	_ZN10GuiElement13SetEffectGrowEv, .-_ZN10GuiElement13SetEffectGrowEv
	.section	.text._ZNK10GuiElement9GetEffectEv,"axG",@progbits,_ZNK10GuiElement9GetEffectEv,comdat
	.align 2
	.weak	_ZNK10GuiElement9GetEffectEv
	.type	_ZNK10GuiElement9GetEffectEv, @function
_ZNK10GuiElement9GetEffectEv:
.LFB1414:
	.loc 2 276 0
	.cfi_startproc
.LVL66:
	.loc 2 276 0
	lwz 3,120(3)
.LVL67:
	blr
	.cfi_endproc
.LFE1414:
	.size	_ZNK10GuiElement9GetEffectEv, .-_ZNK10GuiElement9GetEffectEv
	.section	.text._ZNK10GuiElement10IsAnimatedEv,"axG",@progbits,_ZNK10GuiElement10IsAnimatedEv,comdat
	.align 2
	.weak	_ZNK10GuiElement10IsAnimatedEv
	.type	_ZNK10GuiElement10IsAnimatedEv, @function
_ZNK10GuiElement10IsAnimatedEv:
.LFB1415:
	.loc 2 278 0
	.cfi_startproc
.LVL68:
	mflr 0
	stwu 1,-8(1)
.LCFI13:
	.cfi_def_cfa_offset 8
	.cfi_register 65, 0
	stw 0,12(1)
	.loc 2 278 0
	lwz 9,0(3)
	lwz 0,152(9)
	.cfi_offset 65, 4
	mtctr 0
	bctrl
.LVL69:
	srawi 0,3,31
	subf 3,3,0
	lwz 0,12(1)
	srwi 3,3,31
	mtlr 0
	addi 1,1,8
.LCFI14:
	.cfi_def_cfa_offset 0
	blr
	.cfi_endproc
.LFE1415:
	.size	_ZNK10GuiElement10IsAnimatedEv, .-_ZNK10GuiElement10IsAnimatedEv
	.section	.text._ZN10GuiElement8IsInsideEii,"axG",@progbits,_ZN10GuiElement8IsInsideEii,comdat
	.align 2
	.weak	_ZN10GuiElement8IsInsideEii
	.type	_ZN10GuiElement8IsInsideEii, @function
_ZN10GuiElement8IsInsideEii:
.LFB1417:
	.loc 2 285 0
	.cfi_startproc
.LVL70:
	mflr 0
	stwu 1,-24(1)
.LCFI15:
	.cfi_def_cfa_offset 24
	.cfi_register 65, 0
	stw 28,8(1)
	mr 28,5
	.cfi_offset 28, -16
	stw 0,28(1)
	stw 29,12(1)
	.loc 2 290 0
	li 29,0
	.cfi_offset 29, -12
	.cfi_offset 65, 4
	.loc 2 287 0
	lwz 9,0(3)
	.loc 2 285 0
	stw 30,16(1)
	mr 30,4
	.cfi_offset 30, -8
	.loc 2 287 0
	lwz 0,16(9)
	.loc 2 285 0
	stw 31,20(1)
	.loc 2 285 0
	mr 31,3
	.cfi_offset 31, -4
	.loc 2 287 0
	mtctr 0
	bctrl
.LVL71:
	.loc 2 290 0
	cmpw 7,3,30
	blt- 7,.L56
.L52:
	.loc 2 291 0 discriminator 6
	lwz 0,28(1)
	mr 3,29
	lwz 28,8(1)
.LVL72:
	mtlr 0
	lwz 29,12(1)
	lwz 30,16(1)
.LVL73:
	lwz 31,20(1)
.LVL74:
	addi 1,1,24
	.cfi_remember_state
.LCFI16:
	.cfi_def_cfa_offset 0
	.cfi_restore 31
	.cfi_restore 30
	.cfi_restore 29
	.cfi_restore 28
	blr
.LVL75:
.L56:
.LCFI17:
	.cfi_restore_state
	.loc 2 288 0 discriminator 1
	lwz 9,0(31)
	mr 3,31
	lwz 0,16(9)
	mtctr 0
	bctrl
	.loc 2 290 0 discriminator 1
	lwz 0,36(31)
	add 0,3,0
	cmpw 7,30,0
	bge+ 7,.L52
	.loc 2 289 0 discriminator 3
	lwz 9,0(31)
	mr 3,31
	lwz 0,20(9)
	mtctr 0
	bctrl
	.loc 2 290 0 discriminator 3
	cmpw 7,3,28
	bge+ 7,.L52
	.loc 2 290 0 is_stmt 0 discriminator 4
	lwz 9,0(31)
	mr 3,31
	lwz 0,20(9)
	mtctr 0
	bctrl
	lwz 0,40(31)
	add 0,3,0
	.loc 2 285 0 is_stmt 1 discriminator 4
	cmpw 7,28,0
	mfcr 29
	rlwinm 29,29,29,1
	b .L52
	.cfi_endproc
.LFE1417:
	.size	_ZN10GuiElement8IsInsideEii, .-_ZN10GuiElement8IsInsideEii
	.section	.text._ZN10GuiElement11SetPositionEii,"axG",@progbits,_ZN10GuiElement11SetPositionEii,comdat
	.align 2
	.weak	_ZN10GuiElement11SetPositionEii
	.type	_ZN10GuiElement11SetPositionEii, @function
_ZN10GuiElement11SetPositionEii:
.LFB1418:
	.loc 2 295 0
	.cfi_startproc
.LVL76:
	.loc 2 297 0
	stw 4,44(3)
	.loc 2 299 0
	.loc 2 298 0
	stw 5,48(3)
	.loc 2 299 0
	blr
	.cfi_endproc
.LFE1418:
	.size	_ZN10GuiElement11SetPositionEii, .-_ZN10GuiElement11SetPositionEii
	.section	.text._ZN10GuiElement11SetPositionEiii,"axG",@progbits,_ZN10GuiElement11SetPositionEiii,comdat
	.align 2
	.weak	_ZN10GuiElement11SetPositionEiii
	.type	_ZN10GuiElement11SetPositionEiii, @function
_ZN10GuiElement11SetPositionEiii:
.LFB1419:
	.loc 2 304 0
	.cfi_startproc
.LVL77:
	.loc 2 306 0
	stw 4,44(3)
	.loc 2 309 0
	.loc 2 307 0
	stw 5,48(3)
	.loc 2 308 0
	stw 6,52(3)
	.loc 2 309 0
	blr
	.cfi_endproc
.LFE1419:
	.size	_ZN10GuiElement11SetPositionEiii, .-_ZN10GuiElement11SetPositionEiii
	.section	.text._ZN10GuiElement12SetAlignmentEi,"axG",@progbits,_ZN10GuiElement12SetAlignmentEi,comdat
	.align 2
	.weak	_ZN10GuiElement12SetAlignmentEi
	.type	_ZN10GuiElement12SetAlignmentEi, @function
_ZN10GuiElement12SetAlignmentEi:
.LFB1421:
	.loc 2 316 0
	.cfi_startproc
.LVL78:
	.loc 2 316 0
	stw 4,68(3)
	blr
	.cfi_endproc
.LFE1421:
	.size	_ZN10GuiElement12SetAlignmentEi, .-_ZN10GuiElement12SetAlignmentEi
	.section	.text._ZNK10GuiElement12GetAlignmentEv,"axG",@progbits,_ZNK10GuiElement12GetAlignmentEv,comdat
	.align 2
	.weak	_ZNK10GuiElement12GetAlignmentEv
	.type	_ZNK10GuiElement12GetAlignmentEv, @function
_ZNK10GuiElement12GetAlignmentEv:
.LFB1422:
	.loc 2 318 0
	.cfi_startproc
.LVL79:
	.loc 2 318 0
	lwz 3,68(3)
.LVL80:
	blr
	.cfi_endproc
.LFE1422:
	.size	_ZNK10GuiElement12GetAlignmentEv, .-_ZNK10GuiElement12GetAlignmentEv
	.section	.text._ZN8GuiFrame4execEv,"axG",@progbits,_ZN8GuiFrame4execEv,comdat
	.align 2
	.weak	_ZN8GuiFrame4execEv
	.type	_ZN8GuiFrame4execEv, @function
_ZN8GuiFrame4execEv:
.LFB1433:
	.file 3 "d:/Projects/SaveGameManager/savegame-manager-gx/trunk/source/Themes/../Settings/menus/../../GUI/gui_frame.h"
	.loc 3 83 0
	.cfi_startproc
.LVL81:
	.loc 3 83 0
	blr
	.cfi_endproc
.LFE1433:
	.size	_ZN8GuiFrame4execEv, .-_ZN8GuiFrame4execEv
	.section	.text._ZN8GuiFrame12updateEventsEv,"axG",@progbits,_ZN8GuiFrame12updateEventsEv,comdat
	.align 2
	.weak	_ZN8GuiFrame12updateEventsEv
	.type	_ZN8GuiFrame12updateEventsEv, @function
_ZN8GuiFrame12updateEventsEv:
.LFB1434:
	.loc 3 85 0
	.cfi_startproc
.LVL82:
	.loc 3 85 0
	blr
	.cfi_endproc
.LFE1434:
	.size	_ZN8GuiFrame12updateEventsEv, .-_ZN8GuiFrame12updateEventsEv
	.section	".text"
	.align 2
	.globl _ZN15ThemeDownloader13OnStateChangeEP10GuiElementii
	.type	_ZN15ThemeDownloader13OnStateChangeEP10GuiElementii, @function
_ZN15ThemeDownloader13OnStateChangeEP10GuiElementii:
.LFB1615:
	.file 4 "d:/Projects/SaveGameManager/savegame-manager-gx/trunk/source/Themes/ThemeDownloader.cpp"
	.loc 4 232 0
	.cfi_startproc
.LVL83:
	mflr 0
	stwu 1,-8(1)
.LCFI18:
	.cfi_def_cfa_offset 8
	.cfi_register 65, 0
	stw 0,12(1)
.LBB2938:
	.loc 4 281 0
	lwz 9,356(3)
.LBB2939:
.LBB2940:
.LBB2941:
	.file 5 "d:\\devkitpro\\devkitppc\\bin\\../lib/gcc/powerpc-eabi/4.6.3/../../../../powerpc-eabi/include/c++/4.6.3/bits/stl_vector.h"
	.loc 5 571 0
	lwz 10,360(3)
.LBE2941:
.LBE2940:
.LBE2939:
	.loc 4 233 0
	lwz 0,216(3)
	.cfi_offset 65, 4
.LBB2948:
.LBB2944:
.LBB2942:
	.loc 5 571 0
	subf 10,9,10
.LBE2942:
.LBE2944:
.LBE2948:
	.loc 4 233 0
	slwi 11,0,2
.LVL84:
.LBB2949:
.LBB2945:
.LBB2943:
	.loc 5 571 0
	srawi 10,10,2
.LBE2943:
.LBE2945:
	.loc 4 234 0
	cmpw 7,11,10
	bge- 7,.L63
.LBB2946:
.LBB2947:
	.loc 5 696 0
	slwi 8,0,4
.LBE2947:
.LBE2946:
	.loc 4 234 0
	addi 7,11,3
.LVL85:
	.loc 4 236 0
	lwzx 0,9,8
	cmpw 7,0,4
	beq- 7,.L67
	.loc 4 231 0
	subf 10,11,10
	addi 8,11,1
	mtctr 10
	.loc 4 234 0
	addi 11,11,1
.LVL86:
	.loc 4 241 0
	slwi 8,8,2
.LVL87:
	.loc 4 234 0
	cmpw 7,11,7
	bdz .L63
.LVL88:
.L70:
	.loc 4 234 0 is_stmt 0 discriminator 2
	addi 0,8,4
	bgt- 7,.L63
.LVL89:
	.loc 4 236 0 is_stmt 1 discriminator 5
	lwzx 10,9,8
	cmpw 7,10,4
	beq- 7,.L67
.LVL90:
	.loc 4 234 0
	addi 11,11,1
.LVL91:
	.loc 4 236 0
	mr 8,0
	.loc 4 234 0
	cmpw 7,11,7
	bdnz .L70
.LVL92:
.L63:
.LBE2949:
.LBE2938:
	.loc 4 246 0
	lwz 0,12(1)
	addi 1,1,8
	.cfi_remember_state
.LCFI19:
	.cfi_def_cfa_offset 0
	mtlr 0
	blr
.LVL93:
.L67:
.LCFI20:
	.cfi_restore_state
.LBB2952:
.LBB2950:
	.loc 4 238 0
	cmpwi 7,5,0
	.loc 4 239 0
	lwz 9,344(3)
	li 4,0
.LVL94:
	lwzx 3,9,8
.LVL95:
	.loc 4 238 0
	bne- 7,.L66
.LVL96:
	.loc 4 239 0
	lwz 9,0(3)
	li 5,10
.LVL97:
	lwz 0,168(9)
	mtctr 0
	bctrl
.LVL98:
.LBE2950:
.LBE2952:
	.loc 4 246 0
	lwz 0,12(1)
	addi 1,1,8
	.cfi_remember_state
.LCFI21:
	.cfi_def_cfa_offset 0
	mtlr 0
	blr
.LVL99:
.L66:
.LCFI22:
	.cfi_restore_state
.LBB2953:
.LBB2951:
	.loc 4 241 0
	lwz 9,0(3)
	li 5,3
.LVL100:
	lwz 0,168(9)
	mtctr 0
	bctrl
.LVL101:
.LBE2951:
.LBE2953:
	.loc 4 246 0
	lwz 0,12(1)
	addi 1,1,8
.LCFI23:
	.cfi_def_cfa_offset 0
	mtlr 0
	blr
	.cfi_endproc
.LFE1615:
	.size	_ZN15ThemeDownloader13OnStateChangeEP10GuiElementii, .-_ZN15ThemeDownloader13OnStateChangeEP10GuiElementii
	.section	.text._ZN7sigslot17_connection_base3IP9GuiButtoniRK6_POINTNS_15single_threadedEED2Ev,"axG",@progbits,_ZN7sigslot17_connection_base3IP9GuiButtoniRK6_POINTNS_15single_threadedEED5Ev,comdat
	.align 2
	.weak	_ZN7sigslot17_connection_base3IP9GuiButtoniRK6_POINTNS_15single_threadedEED2Ev
	.type	_ZN7sigslot17_connection_base3IP9GuiButtoniRK6_POINTNS_15single_threadedEED2Ev, @function
_ZN7sigslot17_connection_base3IP9GuiButtoniRK6_POINTNS_15single_threadedEED2Ev:
.LFB1818:
	.loc 1 387 0
	.cfi_startproc
.LVL102:
.LBB2954:
	.loc 1 387 0
	lis 9,_ZTVN7sigslot17_connection_base3IP9GuiButtoniRK6_POINTNS_15single_threadedEEE+8@ha
.LBE2954:
.LBB2955:
	la 0,_ZTVN7sigslot17_connection_base3IP9GuiButtoniRK6_POINTNS_15single_threadedEEE+8@l(9)
	stw 0,0(3)
.LBE2955:
	blr
	.cfi_endproc
.LFE1818:
	.size	_ZN7sigslot17_connection_base3IP9GuiButtoniRK6_POINTNS_15single_threadedEED2Ev, .-_ZN7sigslot17_connection_base3IP9GuiButtoniRK6_POINTNS_15single_threadedEED2Ev
	.section	.text._ZN7sigslot17_connection_base3IP10GuiElementiiNS_15single_threadedEED2Ev,"axG",@progbits,_ZN7sigslot17_connection_base3IP10GuiElementiiNS_15single_threadedEED5Ev,comdat
	.align 2
	.weak	_ZN7sigslot17_connection_base3IP10GuiElementiiNS_15single_threadedEED2Ev
	.type	_ZN7sigslot17_connection_base3IP10GuiElementiiNS_15single_threadedEED2Ev, @function
_ZN7sigslot17_connection_base3IP10GuiElementiiNS_15single_threadedEED2Ev:
.LFB1825:
	.loc 1 387 0
	.cfi_startproc
.LVL103:
.LBB2956:
	.loc 1 387 0
	lis 9,_ZTVN7sigslot17_connection_base3IP10GuiElementiiNS_15single_threadedEEE+8@ha
.LBE2956:
.LBB2957:
	la 0,_ZTVN7sigslot17_connection_base3IP10GuiElementiiNS_15single_threadedEEE+8@l(9)
	stw 0,0(3)
.LBE2957:
	blr
	.cfi_endproc
.LFE1825:
	.size	_ZN7sigslot17_connection_base3IP10GuiElementiiNS_15single_threadedEED2Ev, .-_ZN7sigslot17_connection_base3IP10GuiElementiiNS_15single_threadedEED2Ev
	.section	.text._ZN7sigslot12_connection3I15ThemeDownloaderP10GuiElementiiNS_15single_threadedEED2Ev,"axG",@progbits,_ZN7sigslot12_connection3I15ThemeDownloaderP10GuiElementiiNS_15single_threadedEED5Ev,comdat
	.align 2
	.weak	_ZN7sigslot12_connection3I15ThemeDownloaderP10GuiElementiiNS_15single_threadedEED2Ev
	.type	_ZN7sigslot12_connection3I15ThemeDownloaderP10GuiElementiiNS_15single_threadedEED2Ev, @function
_ZN7sigslot12_connection3I15ThemeDownloaderP10GuiElementiiNS_15single_threadedEED2Ev:
.LFB2167:
	.loc 1 1783 0
	.cfi_startproc
.LVL104:
.LBB2958:
.LBB2959:
.LBB2960:
.LBB2961:
	.loc 1 387 0
	lis 9,_ZTVN7sigslot17_connection_base3IP10GuiElementiiNS_15single_threadedEEE+8@ha
.LBE2961:
.LBE2960:
.LBE2959:
.LBE2958:
	.loc 1 1786 0
.LBB2965:
.LBB2964:
.LBB2963:
.LBB2962:
	.loc 1 387 0
	la 0,_ZTVN7sigslot17_connection_base3IP10GuiElementiiNS_15single_threadedEEE+8@l(9)
	stw 0,0(3)
.LBE2962:
.LBE2963:
.LBE2964:
.LBE2965:
	.loc 1 1786 0
	blr
	.cfi_endproc
.LFE2167:
	.size	_ZN7sigslot12_connection3I15ThemeDownloaderP10GuiElementiiNS_15single_threadedEED2Ev, .-_ZN7sigslot12_connection3I15ThemeDownloaderP10GuiElementiiNS_15single_threadedEED2Ev
	.section	.text._ZNK7sigslot12_connection3I15ThemeDownloaderP10GuiElementiiNS_15single_threadedEE7getdestEv,"axG",@progbits,_ZNK7sigslot12_connection3I15ThemeDownloaderP10GuiElementiiNS_15single_threadedEE7getdestEv,comdat
	.align 2
	.weak	_ZNK7sigslot12_connection3I15ThemeDownloaderP10GuiElementiiNS_15single_threadedEE7getdestEv
	.type	_ZNK7sigslot12_connection3I15ThemeDownloaderP10GuiElementiiNS_15single_threadedEE7getdestEv, @function
_ZNK7sigslot12_connection3I15ThemeDownloaderP10GuiElementiiNS_15single_threadedEE7getdestEv:
.LFB2170:
	.loc 1 1804 0
	.cfi_startproc
.LVL105:
	.loc 1 1806 0
	lwz 9,4(3)
	li 3,0
.LVL106:
	cmpwi 7,9,0
	beqlr- 7
	.loc 1 1806 0 is_stmt 0 discriminator 1
	addi 3,9,176
	.loc 1 1807 0 is_stmt 1 discriminator 1
	blr
	.cfi_endproc
.LFE2170:
	.size	_ZNK7sigslot12_connection3I15ThemeDownloaderP10GuiElementiiNS_15single_threadedEE7getdestEv, .-_ZNK7sigslot12_connection3I15ThemeDownloaderP10GuiElementiiNS_15single_threadedEE7getdestEv
	.section	.text._ZN7sigslot12_connection3I15ThemeDownloaderP10GuiElementiiNS_15single_threadedEE4emitES3_ii,"axG",@progbits,_ZN7sigslot12_connection3I15ThemeDownloaderP10GuiElementiiNS_15single_threadedEE4emitES3_ii,comdat
	.align 2
	.weak	_ZN7sigslot12_connection3I15ThemeDownloaderP10GuiElementiiNS_15single_threadedEE4emitES3_ii
	.type	_ZN7sigslot12_connection3I15ThemeDownloaderP10GuiElementiiNS_15single_threadedEE4emitES3_ii, @function
_ZN7sigslot12_connection3I15ThemeDownloaderP10GuiElementiiNS_15single_threadedEE4emitES3_ii:
.LFB2171:
	.loc 1 1799 0
	.cfi_startproc
.LVL107:
	mflr 0
	stwu 1,-8(1)
.LCFI24:
	.cfi_def_cfa_offset 8
	.cfi_register 65, 0
	stw 0,12(1)
	.loc 1 1801 0
	lwz 0,8(3)
	.cfi_offset 65, 4
	lwz 11,4(3)
	andi. 9,0,1
	lwz 9,12(3)
	bne- 0,.L82
	mtctr 0
	add 3,11,9
.LVL108:
	bctrl
.LVL109:
	.loc 1 1802 0
	lwz 0,12(1)
	addi 1,1,8
	.cfi_remember_state
.LCFI25:
	.cfi_def_cfa_offset 0
	mtlr 0
	blr
.LVL110:
.L82:
.LCFI26:
	.cfi_restore_state
	.loc 1 1801 0 discriminator 1
	lwzx 10,11,9
	add 3,11,9
.LVL111:
	add 9,10,0
	lwz 0,-1(9)
	mtctr 0
	bctrl
.LVL112:
	.loc 1 1802 0 discriminator 1
	lwz 0,12(1)
	addi 1,1,8
.LCFI27:
	.cfi_def_cfa_offset 0
	mtlr 0
	blr
	.cfi_endproc
.LFE2171:
	.size	_ZN7sigslot12_connection3I15ThemeDownloaderP10GuiElementiiNS_15single_threadedEE4emitES3_ii, .-_ZN7sigslot12_connection3I15ThemeDownloaderP10GuiElementiiNS_15single_threadedEE4emitES3_ii
	.section	.text._ZN7sigslot12_connection3I15ThemeDownloaderP9GuiButtoniRK6_POINTNS_15single_threadedEED2Ev,"axG",@progbits,_ZN7sigslot12_connection3I15ThemeDownloaderP9GuiButtoniRK6_POINTNS_15single_threadedEED5Ev,comdat
	.align 2
	.weak	_ZN7sigslot12_connection3I15ThemeDownloaderP9GuiButtoniRK6_POINTNS_15single_threadedEED2Ev
	.type	_ZN7sigslot12_connection3I15ThemeDownloaderP9GuiButtoniRK6_POINTNS_15single_threadedEED2Ev, @function
_ZN7sigslot12_connection3I15ThemeDownloaderP9GuiButtoniRK6_POINTNS_15single_threadedEED2Ev:
.LFB2181:
	.loc 1 1783 0
	.cfi_startproc
.LVL113:
.LBB2966:
.LBB2967:
.LBB2968:
.LBB2969:
	.loc 1 387 0
	lis 9,_ZTVN7sigslot17_connection_base3IP9GuiButtoniRK6_POINTNS_15single_threadedEEE+8@ha
.LBE2969:
.LBE2968:
.LBE2967:
.LBE2966:
	.loc 1 1786 0
.LBB2973:
.LBB2972:
.LBB2971:
.LBB2970:
	.loc 1 387 0
	la 0,_ZTVN7sigslot17_connection_base3IP9GuiButtoniRK6_POINTNS_15single_threadedEEE+8@l(9)
	stw 0,0(3)
.LBE2970:
.LBE2971:
.LBE2972:
.LBE2973:
	.loc 1 1786 0
	blr
	.cfi_endproc
.LFE2181:
	.size	_ZN7sigslot12_connection3I15ThemeDownloaderP9GuiButtoniRK6_POINTNS_15single_threadedEED2Ev, .-_ZN7sigslot12_connection3I15ThemeDownloaderP9GuiButtoniRK6_POINTNS_15single_threadedEED2Ev
	.section	.text._ZNK7sigslot12_connection3I15ThemeDownloaderP9GuiButtoniRK6_POINTNS_15single_threadedEE7getdestEv,"axG",@progbits,_ZNK7sigslot12_connection3I15ThemeDownloaderP9GuiButtoniRK6_POINTNS_15single_threadedEE7getdestEv,comdat
	.align 2
	.weak	_ZNK7sigslot12_connection3I15ThemeDownloaderP9GuiButtoniRK6_POINTNS_15single_threadedEE7getdestEv
	.type	_ZNK7sigslot12_connection3I15ThemeDownloaderP9GuiButtoniRK6_POINTNS_15single_threadedEE7getdestEv, @function
_ZNK7sigslot12_connection3I15ThemeDownloaderP9GuiButtoniRK6_POINTNS_15single_threadedEE7getdestEv:
.LFB2184:
	.loc 1 1804 0
	.cfi_startproc
.LVL114:
	.loc 1 1806 0
	lwz 9,4(3)
	li 3,0
.LVL115:
	cmpwi 7,9,0
	beqlr- 7
	.loc 1 1806 0 is_stmt 0 discriminator 1
	addi 3,9,176
	.loc 1 1807 0 is_stmt 1 discriminator 1
	blr
	.cfi_endproc
.LFE2184:
	.size	_ZNK7sigslot12_connection3I15ThemeDownloaderP9GuiButtoniRK6_POINTNS_15single_threadedEE7getdestEv, .-_ZNK7sigslot12_connection3I15ThemeDownloaderP9GuiButtoniRK6_POINTNS_15single_threadedEE7getdestEv
	.section	.text._ZN7sigslot12_connection3I15ThemeDownloaderP9GuiButtoniRK6_POINTNS_15single_threadedEE4emitES3_iS6_,"axG",@progbits,_ZN7sigslot12_connection3I15ThemeDownloaderP9GuiButtoniRK6_POINTNS_15single_threadedEE4emitES3_iS6_,comdat
	.align 2
	.weak	_ZN7sigslot12_connection3I15ThemeDownloaderP9GuiButtoniRK6_POINTNS_15single_threadedEE4emitES3_iS6_
	.type	_ZN7sigslot12_connection3I15ThemeDownloaderP9GuiButtoniRK6_POINTNS_15single_threadedEE4emitES3_iS6_, @function
_ZN7sigslot12_connection3I15ThemeDownloaderP9GuiButtoniRK6_POINTNS_15single_threadedEE4emitES3_iS6_:
.LFB2185:
	.loc 1 1799 0
	.cfi_startproc
.LVL116:
	mflr 0
	stwu 1,-8(1)
.LCFI28:
	.cfi_def_cfa_offset 8
	.cfi_register 65, 0
	stw 0,12(1)
	.loc 1 1801 0
	lwz 0,8(3)
	.cfi_offset 65, 4
	lwz 11,4(3)
	andi. 9,0,1
	lwz 9,12(3)
	bne- 0,.L91
	mtctr 0
	add 3,11,9
.LVL117:
	bctrl
.LVL118:
	.loc 1 1802 0
	lwz 0,12(1)
	addi 1,1,8
	.cfi_remember_state
.LCFI29:
	.cfi_def_cfa_offset 0
	mtlr 0
	blr
.LVL119:
.L91:
.LCFI30:
	.cfi_restore_state
	.loc 1 1801 0 discriminator 1
	lwzx 10,11,9
	add 3,11,9
.LVL120:
	add 9,10,0
	lwz 0,-1(9)
	mtctr 0
	bctrl
.LVL121:
	.loc 1 1802 0 discriminator 1
	lwz 0,12(1)
	addi 1,1,8
.LCFI31:
	.cfi_def_cfa_offset 0
	mtlr 0
	blr
	.cfi_endproc
.LFE2185:
	.size	_ZN7sigslot12_connection3I15ThemeDownloaderP9GuiButtoniRK6_POINTNS_15single_threadedEE4emitES3_iS6_, .-_ZN7sigslot12_connection3I15ThemeDownloaderP9GuiButtoniRK6_POINTNS_15single_threadedEE4emitES3_iS6_
	.section	.text._ZN7sigslot12_connection3I15ThemeDownloaderP9GuiButtoniRK6_POINTNS_15single_threadedEE9duplicateEPNS_9has_slotsIS7_EE,"axG",@progbits,_ZN7sigslot12_connection3I15ThemeDownloaderP9GuiButtoniRK6_POINTNS_15single_threadedEE9duplicateEPNS_9has_slotsIS7_EE,comdat
	.align 2
	.weak	_ZN7sigslot12_connection3I15ThemeDownloaderP9GuiButtoniRK6_POINTNS_15single_threadedEE9duplicateEPNS_9has_slotsIS7_EE
	.type	_ZN7sigslot12_connection3I15ThemeDownloaderP9GuiButtoniRK6_POINTNS_15single_threadedEE9duplicateEPNS_9has_slotsIS7_EE, @function
_ZN7sigslot12_connection3I15ThemeDownloaderP9GuiButtoniRK6_POINTNS_15single_threadedEE9duplicateEPNS_9has_slotsIS7_EE:
.LFB2193:
	.loc 1 1794 0
	.cfi_startproc
.LVL122:
	stwu 1,-16(1)
.LCFI32:
	.cfi_def_cfa_offset 16
	mflr 0
	stw 30,8(1)
	mr 30,4
	.cfi_offset 30, -8
	.cfi_register 65, 0
	stw 31,12(1)
	mr 31,3
	.cfi_offset 31, -4
	.loc 1 1796 0
	li 3,16
.LVL123:
	.loc 1 1794 0
	stw 0,20(1)
	.loc 1 1796 0
	.cfi_offset 65, 4
	bl _Znwj
.LVL124:
	cmpwi 7,30,0
	li 0,0
	beq- 7,.L94
	.loc 1 1796 0 is_stmt 0 discriminator 1
	addi 0,30,-176
.L94:
.LVL125:
	.loc 1 1796 0 discriminator 3
	lwz 11,8(31)
.LVL126:
.LBB2974:
.LBB2975:
	.loc 1 1778 0 is_stmt 1 discriminator 3
	lis 10,_ZTVN7sigslot12_connection3I15ThemeDownloaderP9GuiButtoniRK6_POINTNS_15single_threadedEEE+8@ha
.LBE2975:
.LBE2974:
	.loc 1 1796 0 discriminator 3
	lwz 9,12(31)
.LVL127:
.LBB2978:
.LBB2976:
	.loc 1 1778 0 discriminator 3
	la 10,_ZTVN7sigslot12_connection3I15ThemeDownloaderP9GuiButtoniRK6_POINTNS_15single_threadedEEE+8@l(10)
	.loc 1 1780 0 discriminator 3
	stw 11,8(3)
	stw 9,12(3)
	.loc 1 1779 0 discriminator 3
	stw 0,4(3)
.LBE2976:
.LBE2978:
	.loc 1 1797 0 discriminator 3
	lwz 0,20(1)
.LVL128:
	lwz 30,8(1)
.LVL129:
	mtlr 0
	lwz 31,12(1)
.LVL130:
.LBB2979:
.LBB2977:
	.loc 1 1778 0 discriminator 3
	stw 10,0(3)
.LBE2977:
.LBE2979:
	.loc 1 1797 0 discriminator 3
	addi 1,1,16
.LCFI33:
	.cfi_def_cfa_offset 0
	.cfi_restore 31
	.cfi_restore 30
	blr
	.cfi_endproc
.LFE2193:
	.size	_ZN7sigslot12_connection3I15ThemeDownloaderP9GuiButtoniRK6_POINTNS_15single_threadedEE9duplicateEPNS_9has_slotsIS7_EE, .-_ZN7sigslot12_connection3I15ThemeDownloaderP9GuiButtoniRK6_POINTNS_15single_threadedEE9duplicateEPNS_9has_slotsIS7_EE
	.section	.text._ZN7sigslot12_connection3I15ThemeDownloaderP10GuiElementiiNS_15single_threadedEE9duplicateEPNS_9has_slotsIS4_EE,"axG",@progbits,_ZN7sigslot12_connection3I15ThemeDownloaderP10GuiElementiiNS_15single_threadedEE9duplicateEPNS_9has_slotsIS4_EE,comdat
	.align 2
	.weak	_ZN7sigslot12_connection3I15ThemeDownloaderP10GuiElementiiNS_15single_threadedEE9duplicateEPNS_9has_slotsIS4_EE
	.type	_ZN7sigslot12_connection3I15ThemeDownloaderP10GuiElementiiNS_15single_threadedEE9duplicateEPNS_9has_slotsIS4_EE, @function
_ZN7sigslot12_connection3I15ThemeDownloaderP10GuiElementiiNS_15single_threadedEE9duplicateEPNS_9has_slotsIS4_EE:
.LFB2179:
	.loc 1 1794 0
	.cfi_startproc
.LVL131:
	stwu 1,-16(1)
.LCFI34:
	.cfi_def_cfa_offset 16
	mflr 0
	stw 30,8(1)
	mr 30,4
	.cfi_offset 30, -8
	.cfi_register 65, 0
	stw 31,12(1)
	mr 31,3
	.cfi_offset 31, -4
	.loc 1 1796 0
	li 3,16
.LVL132:
	.loc 1 1794 0
	stw 0,20(1)
	.loc 1 1796 0
	.cfi_offset 65, 4
	bl _Znwj
.LVL133:
	cmpwi 7,30,0
	li 0,0
	beq- 7,.L97
	.loc 1 1796 0 is_stmt 0 discriminator 1
	addi 0,30,-176
.L97:
.LVL134:
	.loc 1 1796 0 discriminator 3
	lwz 11,8(31)
.LVL135:
.LBB2980:
.LBB2981:
	.loc 1 1778 0 is_stmt 1 discriminator 3
	lis 10,_ZTVN7sigslot12_connection3I15ThemeDownloaderP10GuiElementiiNS_15single_threadedEEE+8@ha
.LBE2981:
.LBE2980:
	.loc 1 1796 0 discriminator 3
	lwz 9,12(31)
.LVL136:
.LBB2984:
.LBB2982:
	.loc 1 1778 0 discriminator 3
	la 10,_ZTVN7sigslot12_connection3I15ThemeDownloaderP10GuiElementiiNS_15single_threadedEEE+8@l(10)
	.loc 1 1780 0 discriminator 3
	stw 11,8(3)
	stw 9,12(3)
	.loc 1 1779 0 discriminator 3
	stw 0,4(3)
.LBE2982:
.LBE2984:
	.loc 1 1797 0 discriminator 3
	lwz 0,20(1)
.LVL137:
	lwz 30,8(1)
.LVL138:
	mtlr 0
	lwz 31,12(1)
.LVL139:
.LBB2985:
.LBB2983:
	.loc 1 1778 0 discriminator 3
	stw 10,0(3)
.LBE2983:
.LBE2985:
	.loc 1 1797 0 discriminator 3
	addi 1,1,16
.LCFI35:
	.cfi_def_cfa_offset 0
	.cfi_restore 31
	.cfi_restore 30
	blr
	.cfi_endproc
.LFE2179:
	.size	_ZN7sigslot12_connection3I15ThemeDownloaderP10GuiElementiiNS_15single_threadedEE9duplicateEPNS_9has_slotsIS4_EE, .-_ZN7sigslot12_connection3I15ThemeDownloaderP10GuiElementiiNS_15single_threadedEE9duplicateEPNS_9has_slotsIS4_EE
	.section	.text._ZN7sigslot12_connection3I15ThemeDownloaderP10GuiElementiiNS_15single_threadedEE5cloneEv,"axG",@progbits,_ZN7sigslot12_connection3I15ThemeDownloaderP10GuiElementiiNS_15single_threadedEE5cloneEv,comdat
	.align 2
	.weak	_ZN7sigslot12_connection3I15ThemeDownloaderP10GuiElementiiNS_15single_threadedEE5cloneEv
	.type	_ZN7sigslot12_connection3I15ThemeDownloaderP10GuiElementiiNS_15single_threadedEE5cloneEv, @function
_ZN7sigslot12_connection3I15ThemeDownloaderP10GuiElementiiNS_15single_threadedEE5cloneEv:
.LFB2172:
	.loc 1 1789 0
	.cfi_startproc
.LVL140:
	stwu 1,-16(1)
.LCFI36:
	.cfi_def_cfa_offset 16
	mflr 0
	stw 31,12(1)
	mr 31,3
	.cfi_offset 31, -4
	.cfi_register 65, 0
	.loc 1 1791 0
	li 3,16
.LVL141:
	.loc 1 1789 0
	stw 0,20(1)
	.loc 1 1791 0
	.cfi_offset 65, 4
	bl _Znwj
	.loc 4 281 0
	lwz 0,4(31)
.LVL142:
.LBB2986:
.LBB2987:
	.loc 1 1767 0
	lis 11,_ZTVN7sigslot12_connection3I15ThemeDownloaderP10GuiElementiiNS_15single_threadedEEE+8@ha
	la 11,_ZTVN7sigslot12_connection3I15ThemeDownloaderP10GuiElementiiNS_15single_threadedEEE+8@l(11)
	stw 0,4(3)
	stw 11,0(3)
	lwz 10,8(31)
	lwz 11,12(31)
	stw 10,8(3)
	stw 11,12(3)
.LBE2987:
.LBE2986:
	.loc 1 1792 0
	lwz 0,20(1)
	lwz 31,12(1)
.LVL143:
	mtlr 0
	addi 1,1,16
.LCFI37:
	.cfi_def_cfa_offset 0
	.cfi_restore 31
	blr
	.cfi_endproc
.LFE2172:
	.size	_ZN7sigslot12_connection3I15ThemeDownloaderP10GuiElementiiNS_15single_threadedEE5cloneEv, .-_ZN7sigslot12_connection3I15ThemeDownloaderP10GuiElementiiNS_15single_threadedEE5cloneEv
	.section	.text._ZN7sigslot12_connection3I15ThemeDownloaderP9GuiButtoniRK6_POINTNS_15single_threadedEE5cloneEv,"axG",@progbits,_ZN7sigslot12_connection3I15ThemeDownloaderP9GuiButtoniRK6_POINTNS_15single_threadedEE5cloneEv,comdat
	.align 2
	.weak	_ZN7sigslot12_connection3I15ThemeDownloaderP9GuiButtoniRK6_POINTNS_15single_threadedEE5cloneEv
	.type	_ZN7sigslot12_connection3I15ThemeDownloaderP9GuiButtoniRK6_POINTNS_15single_threadedEE5cloneEv, @function
_ZN7sigslot12_connection3I15ThemeDownloaderP9GuiButtoniRK6_POINTNS_15single_threadedEE5cloneEv:
.LFB2186:
	.loc 1 1789 0
	.cfi_startproc
.LVL144:
	stwu 1,-16(1)
.LCFI38:
	.cfi_def_cfa_offset 16
	mflr 0
	stw 31,12(1)
	mr 31,3
	.cfi_offset 31, -4
	.cfi_register 65, 0
	.loc 1 1791 0
	li 3,16
.LVL145:
	.loc 1 1789 0
	stw 0,20(1)
	.loc 1 1791 0
	.cfi_offset 65, 4
	bl _Znwj
	.loc 4 281 0
	lwz 0,4(31)
.LVL146:
.LBB2988:
.LBB2989:
	.loc 1 1767 0
	lis 11,_ZTVN7sigslot12_connection3I15ThemeDownloaderP9GuiButtoniRK6_POINTNS_15single_threadedEEE+8@ha
	la 11,_ZTVN7sigslot12_connection3I15ThemeDownloaderP9GuiButtoniRK6_POINTNS_15single_threadedEEE+8@l(11)
	stw 0,4(3)
	stw 11,0(3)
	lwz 10,8(31)
	lwz 11,12(31)
	stw 10,8(3)
	stw 11,12(3)
.LBE2989:
.LBE2988:
	.loc 1 1792 0
	lwz 0,20(1)
	lwz 31,12(1)
.LVL147:
	mtlr 0
	addi 1,1,16
.LCFI39:
	.cfi_def_cfa_offset 0
	.cfi_restore 31
	blr
	.cfi_endproc
.LFE2186:
	.size	_ZN7sigslot12_connection3I15ThemeDownloaderP9GuiButtoniRK6_POINTNS_15single_threadedEE5cloneEv, .-_ZN7sigslot12_connection3I15ThemeDownloaderP9GuiButtoniRK6_POINTNS_15single_threadedEE5cloneEv
	.section	.text._ZN7sigslot12_connection3I15ThemeDownloaderP9GuiButtoniRK6_POINTNS_15single_threadedEED0Ev,"axG",@progbits,_ZN7sigslot12_connection3I15ThemeDownloaderP9GuiButtoniRK6_POINTNS_15single_threadedEED5Ev,comdat
	.align 2
	.weak	_ZN7sigslot12_connection3I15ThemeDownloaderP9GuiButtoniRK6_POINTNS_15single_threadedEED0Ev
	.type	_ZN7sigslot12_connection3I15ThemeDownloaderP9GuiButtoniRK6_POINTNS_15single_threadedEED0Ev, @function
_ZN7sigslot12_connection3I15ThemeDownloaderP9GuiButtoniRK6_POINTNS_15single_threadedEED0Ev:
.LFB2183:
	.loc 1 1783 0
	.cfi_startproc
.LVL148:
	mflr 0
	stwu 1,-8(1)
.LCFI40:
	.cfi_def_cfa_offset 8
	.cfi_register 65, 0
.LBB2990:
.LBB2991:
.LBB2992:
.LBB2993:
.LBB2994:
.LBB2995:
	.loc 1 387 0
	lis 9,_ZTVN7sigslot17_connection_base3IP9GuiButtoniRK6_POINTNS_15single_threadedEEE+8@ha
.LBE2995:
.LBE2994:
.LBE2993:
.LBE2992:
.LBE2991:
.LBE2990:
	.loc 1 1783 0
	stw 0,12(1)
.LBB3001:
.LBB3000:
.LBB2999:
.LBB2998:
.LBB2997:
.LBB2996:
	.loc 1 387 0
	la 0,_ZTVN7sigslot17_connection_base3IP9GuiButtoniRK6_POINTNS_15single_threadedEEE+8@l(9)
	.cfi_offset 65, 4
	stw 0,0(3)
.LBE2996:
.LBE2997:
.LBE2998:
.LBE2999:
.LBE3000:
.LBE3001:
	.loc 1 1786 0
	bl _ZdlPv
.LVL149:
	lwz 0,12(1)
	addi 1,1,8
.LCFI41:
	.cfi_def_cfa_offset 0
	mtlr 0
	blr
	.cfi_endproc
.LFE2183:
	.size	_ZN7sigslot12_connection3I15ThemeDownloaderP9GuiButtoniRK6_POINTNS_15single_threadedEED0Ev, .-_ZN7sigslot12_connection3I15ThemeDownloaderP9GuiButtoniRK6_POINTNS_15single_threadedEED0Ev
	.section	.text._ZN7sigslot12_connection3I15ThemeDownloaderP10GuiElementiiNS_15single_threadedEED0Ev,"axG",@progbits,_ZN7sigslot12_connection3I15ThemeDownloaderP10GuiElementiiNS_15single_threadedEED5Ev,comdat
	.align 2
	.weak	_ZN7sigslot12_connection3I15ThemeDownloaderP10GuiElementiiNS_15single_threadedEED0Ev
	.type	_ZN7sigslot12_connection3I15ThemeDownloaderP10GuiElementiiNS_15single_threadedEED0Ev, @function
_ZN7sigslot12_connection3I15ThemeDownloaderP10GuiElementiiNS_15single_threadedEED0Ev:
.LFB2169:
	.loc 1 1783 0
	.cfi_startproc
.LVL150:
	mflr 0
	stwu 1,-8(1)
.LCFI42:
	.cfi_def_cfa_offset 8
	.cfi_register 65, 0
.LBB3002:
.LBB3003:
.LBB3004:
.LBB3005:
.LBB3006:
.LBB3007:
	.loc 1 387 0
	lis 9,_ZTVN7sigslot17_connection_base3IP10GuiElementiiNS_15single_threadedEEE+8@ha
.LBE3007:
.LBE3006:
.LBE3005:
.LBE3004:
.LBE3003:
.LBE3002:
	.loc 1 1783 0
	stw 0,12(1)
.LBB3013:
.LBB3012:
.LBB3011:
.LBB3010:
.LBB3009:
.LBB3008:
	.loc 1 387 0
	la 0,_ZTVN7sigslot17_connection_base3IP10GuiElementiiNS_15single_threadedEEE+8@l(9)
	.cfi_offset 65, 4
	stw 0,0(3)
.LBE3008:
.LBE3009:
.LBE3010:
.LBE3011:
.LBE3012:
.LBE3013:
	.loc 1 1786 0
	bl _ZdlPv
.LVL151:
	lwz 0,12(1)
	addi 1,1,8
.LCFI43:
	.cfi_def_cfa_offset 0
	mtlr 0
	blr
	.cfi_endproc
.LFE2169:
	.size	_ZN7sigslot12_connection3I15ThemeDownloaderP10GuiElementiiNS_15single_threadedEED0Ev, .-_ZN7sigslot12_connection3I15ThemeDownloaderP10GuiElementiiNS_15single_threadedEED0Ev
	.section	.text._ZN7sigslot17_connection_base3IP10GuiElementiiNS_15single_threadedEED0Ev,"axG",@progbits,_ZN7sigslot17_connection_base3IP10GuiElementiiNS_15single_threadedEED5Ev,comdat
	.align 2
	.weak	_ZN7sigslot17_connection_base3IP10GuiElementiiNS_15single_threadedEED0Ev
	.type	_ZN7sigslot17_connection_base3IP10GuiElementiiNS_15single_threadedEED0Ev, @function
_ZN7sigslot17_connection_base3IP10GuiElementiiNS_15single_threadedEED0Ev:
.LFB1827:
	.loc 1 387 0
	.cfi_startproc
.LVL152:
	mflr 0
	stwu 1,-8(1)
.LCFI44:
	.cfi_def_cfa_offset 8
	.cfi_register 65, 0
.LBB3014:
.LBB3015:
.LBB3016:
	lis 9,_ZTVN7sigslot17_connection_base3IP10GuiElementiiNS_15single_threadedEEE+8@ha
.LBE3016:
.LBE3015:
.LBE3014:
	stw 0,12(1)
.LBB3019:
.LBB3018:
.LBB3017:
	.loc 1 387 0
	la 0,_ZTVN7sigslot17_connection_base3IP10GuiElementiiNS_15single_threadedEEE+8@l(9)
	.cfi_offset 65, 4
	stw 0,0(3)
.LBE3017:
.LBE3018:
.LBE3019:
	bl _ZdlPv
.LVL153:
	lwz 0,12(1)
	addi 1,1,8
.LCFI45:
	.cfi_def_cfa_offset 0
	mtlr 0
	blr
	.cfi_endproc
.LFE1827:
	.size	_ZN7sigslot17_connection_base3IP10GuiElementiiNS_15single_threadedEED0Ev, .-_ZN7sigslot17_connection_base3IP10GuiElementiiNS_15single_threadedEED0Ev
	.section	.text._ZN7sigslot17_connection_base3IP9GuiButtoniRK6_POINTNS_15single_threadedEED0Ev,"axG",@progbits,_ZN7sigslot17_connection_base3IP9GuiButtoniRK6_POINTNS_15single_threadedEED5Ev,comdat
	.align 2
	.weak	_ZN7sigslot17_connection_base3IP9GuiButtoniRK6_POINTNS_15single_threadedEED0Ev
	.type	_ZN7sigslot17_connection_base3IP9GuiButtoniRK6_POINTNS_15single_threadedEED0Ev, @function
_ZN7sigslot17_connection_base3IP9GuiButtoniRK6_POINTNS_15single_threadedEED0Ev:
.LFB1820:
	.loc 1 387 0
	.cfi_startproc
.LVL154:
	mflr 0
	stwu 1,-8(1)
.LCFI46:
	.cfi_def_cfa_offset 8
	.cfi_register 65, 0
.LBB3020:
.LBB3021:
.LBB3022:
	lis 9,_ZTVN7sigslot17_connection_base3IP9GuiButtoniRK6_POINTNS_15single_threadedEEE+8@ha
.LBE3022:
.LBE3021:
.LBE3020:
	stw 0,12(1)
.LBB3025:
.LBB3024:
.LBB3023:
	.loc 1 387 0
	la 0,_ZTVN7sigslot17_connection_base3IP9GuiButtoniRK6_POINTNS_15single_threadedEEE+8@l(9)
	.cfi_offset 65, 4
	stw 0,0(3)
.LBE3023:
.LBE3024:
.LBE3025:
	bl _ZdlPv
.LVL155:
	lwz 0,12(1)
	addi 1,1,8
.LCFI47:
	.cfi_def_cfa_offset 0
	mtlr 0
	blr
	.cfi_endproc
.LFE1820:
	.size	_ZN7sigslot17_connection_base3IP9GuiButtoniRK6_POINTNS_15single_threadedEED0Ev, .-_ZN7sigslot17_connection_base3IP9GuiButtoniRK6_POINTNS_15single_threadedEED0Ev
	.section	".text"
	.align 2
	.globl _ZN15ThemeDownloader13OnButtonClickEP9GuiButtoniRK6_POINT
	.type	_ZN15ThemeDownloader13OnButtonClickEP9GuiButtoniRK6_POINT, @function
_ZN15ThemeDownloader13OnButtonClickEP9GuiButtoniRK6_POINT:
.LFB1616:
	.loc 4 249 0
	.cfi_startproc
.LVL156:
	mflr 0
	stwu 1,-8(1)
.LCFI48:
	.cfi_def_cfa_offset 8
	.cfi_register 65, 0
	stw 0,12(1)
	.loc 4 250 0
	.cfi_offset 65, 4
	bl _ZN17FlyingButtonsMenu13OnButtonClickEP9GuiButtoniRK6_POINT
.LVL157:
	.loc 4 281 0
	lwz 0,12(1)
	addi 1,1,8
.LCFI49:
	.cfi_def_cfa_offset 0
	mtlr 0
	blr
	.cfi_endproc
.LFE1616:
	.size	_ZN15ThemeDownloader13OnButtonClickEP9GuiButtoniRK6_POINT, .-_ZN15ThemeDownloader13OnButtonClickEP9GuiButtoniRK6_POINT
	.align 2
	.globl _ZThn176_N15ThemeDownloaderD1Ev
	.type	_ZThn176_N15ThemeDownloaderD1Ev, @function
_ZThn176_N15ThemeDownloaderD1Ev:
.LFB2376:
	.cfi_startproc
	addi 3,3,-176
	b .LTHUNK0
	.cfi_endproc
.LFE2376:
	.size	_ZThn176_N15ThemeDownloaderD1Ev, .-_ZThn176_N15ThemeDownloaderD1Ev
	.align 2
	.globl _ZN15ThemeDownloaderD2Ev
	.type	_ZN15ThemeDownloaderD2Ev, @function
_ZN15ThemeDownloaderD2Ev:
.LFB1608:
	.loc 4 63 0
	.cfi_startproc
	.cfi_personality 0,__gxx_personality_v0
	.cfi_lsda 0,.LLSDA1608
.LVL158:
	mflr 0
	stwu 1,-32(1)
.LCFI50:
	.cfi_def_cfa_offset 32
	.cfi_register 65, 0
.LBB3050:
	lis 9,_ZTV15ThemeDownloader+8@ha
	la 9,_ZTV15ThemeDownloader+8@l(9)
.LBE3050:
	stw 31,28(1)
	stw 0,36(1)
.LBB3074:
	addi 0,9,264
	.cfi_offset 65, 4
	.cfi_offset 31, -4
.LBE3074:
	stw 30,24(1)
	.loc 4 63 0
	mr 31,3
.LBB3075:
	stw 9,0(3)
	stw 0,176(3)
.LBB3051:
	.loc 4 65 0
	lwz 3,396(3)
.LVL159:
.LEHB0:
	.cfi_offset 30, -8
	bl _ZN9Resources6RemoveEP12GuiImageData
	.loc 4 66 0
	lwz 4,372(31)
	mr 3,31
	bl _ZN8GuiFrame6RemoveEP10GuiElement
	.loc 4 68 0
	lwz 3,372(31)
	cmpwi 7,3,0
	beq- 7,.L117
	.loc 4 68 0 is_stmt 0 discriminator 1
	lwz 9,0(3)
	lwz 0,4(9)
	mtctr 0
	bctrl
.L117:
	.loc 4 69 0 is_stmt 1
	lwz 30,368(31)
	cmpwi 7,30,0
	beq- 7,.L118
	.loc 4 70 0
	mr 3,30
	bl _ZN10Theme_ListD1Ev
	.loc 4 70 0 is_stmt 0 discriminator 1
	mr 3,30
	bl _ZdlPv
.L118:
.LVL160:
.LBB3052:
	.loc 4 74 0 is_stmt 1 discriminator 1
	lwz 3,376(31)
	cmpwi 7,3,0
	beq- 7,.L119
	.loc 4 75 0
	lwz 9,0(3)
	lwz 0,4(9)
	mtctr 0
	bctrl
.L119:
.LVL161:
	.loc 4 74 0
	lwz 3,380(31)
	cmpwi 7,3,0
	beq- 7,.L120
	.loc 4 75 0
	lwz 9,0(3)
	lwz 0,4(9)
	mtctr 0
	bctrl
.L120:
.LVL162:
	.loc 4 74 0
	lwz 3,384(31)
	cmpwi 7,3,0
	beq- 7,.L121
	.loc 4 75 0
	lwz 9,0(3)
	lwz 0,4(9)
	mtctr 0
	bctrl
.L121:
.LVL163:
	.loc 4 74 0
	lwz 3,388(31)
	cmpwi 7,3,0
	beq- 7,.L122
	.loc 4 75 0 discriminator 1
	lwz 9,0(3)
	lwz 0,4(9)
	mtctr 0
	bctrl
.LEHE0:
.L122:
.LVL164:
.LBE3052:
.LBE3051:
.LBB3053:
.LBB3054:
.LBB3055:
.LBB3056:
.LBB3057:
.LBB3058:
	.file 6 "d:\\devkitpro\\devkitppc\\bin\\../lib/gcc/powerpc-eabi/4.6.3/../../../../powerpc-eabi/include/c++/4.6.3/bits/basic_string.h"
	.loc 6 288 0
	lwz 9,392(31)
.LBE3058:
.LBE3057:
.LBE3056:
.LBB3059:
.LBB3060:
	.loc 6 235 0
	lis 11,_ZNSs4_Rep20_S_empty_rep_storageE@ha
	la 0,_ZNSs4_Rep20_S_empty_rep_storageE@l(11)
.LBE3060:
.LBE3059:
	.loc 6 534 0
	addi 3,9,-12
.LVL165:
.LBB3069:
.LBB3067:
	.loc 6 235 0
	cmpw 7,3,0
	bne- 7,.L132
.LVL166:
.L128:
.LBE3067:
.LBE3069:
.LBE3055:
.LBE3054:
.LBE3053:
	.loc 4 63 0
	mr 3,31
.LEHB1:
	bl _ZN17FlyingButtonsMenuD2Ev
.LEHE1:
.LBE3075:
	.loc 4 77 0
	lwz 0,36(1)
	lwz 30,24(1)
	mtlr 0
	lwz 31,28(1)
.LVL167:
	addi 1,1,32
	.cfi_remember_state
.LCFI51:
	.cfi_def_cfa_offset 0
	.cfi_restore 31
	.cfi_restore 30
	blr
.LVL168:
.L132:
.LCFI52:
	.cfi_restore_state
.LBB3076:
.LBB3073:
.LBB3072:
.LBB3071:
.LBB3070:
.LBB3068:
.LBB3061:
.LBB3062:
.LBB3063:
	.file 7 "d:\\devkitpro\\devkitppc\\bin\\../lib/gcc/powerpc-eabi/4.6.3/../../../../powerpc-eabi/include/c++/4.6.3/ext/atomicity.h"
	.loc 7 66 0
	lwz 11,-4(9)
.LVL169:
.LBE3063:
.LBE3062:
.LBE3061:
	.loc 6 240 0
	cmpwi 7,11,0
.LBB3066:
.LBB3065:
.LBB3064:
	.loc 7 67 0
	addi 11,11,-1
	stw 11,-4(9)
.LBE3064:
.LBE3065:
.LBE3066:
	.loc 6 240 0
	bgt+ 7,.L128
	.loc 6 244 0
	addi 4,1,8
	bl _ZNSs4_Rep10_M_destroyERKSaIcE
.LVL170:
	b .L128
.LVL171:
.L131:
	mr 30,3
.LBE3068:
.LBE3070:
.LBE3071:
.LBE3072:
.LBE3073:
	.loc 4 63 0
	addi 3,31,392
	bl _ZNSsD1Ev
	mr 3,31
	bl _ZN17FlyingButtonsMenuD2Ev
	mr 3,30
.LEHB2:
	bl _Unwind_Resume
.LEHE2:
.LBE3076:
	.cfi_endproc
.LFE1608:
	.globl __gxx_personality_v0
	.section	.gcc_except_table,"a",@progbits
.LLSDA1608:
	.byte	0xff
	.byte	0xff
	.byte	0x1
	.uleb128 .LLSDACSE1608-.LLSDACSB1608
.LLSDACSB1608:
	.uleb128 .LEHB0-.LFB1608
	.uleb128 .LEHE0-.LEHB0
	.uleb128 .L131-.LFB1608
	.uleb128 0
	.uleb128 .LEHB1-.LFB1608
	.uleb128 .LEHE1-.LEHB1
	.uleb128 0
	.uleb128 0
	.uleb128 .LEHB2-.LFB1608
	.uleb128 .LEHE2-.LEHB2
	.uleb128 0
	.uleb128 0
.LLSDACSE1608:
	.section	".text"
	.size	_ZN15ThemeDownloaderD2Ev, .-_ZN15ThemeDownloaderD2Ev
	.align 2
	.globl _ZThn176_N15ThemeDownloaderD0Ev
	.type	_ZThn176_N15ThemeDownloaderD0Ev, @function
_ZThn176_N15ThemeDownloaderD0Ev:
.LFB2377:
	.cfi_startproc
	addi 3,3,-176
	b .LTHUNK1
	.cfi_endproc
.LFE2377:
	.size	_ZThn176_N15ThemeDownloaderD0Ev, .-_ZThn176_N15ThemeDownloaderD0Ev
	.align 2
	.globl _ZN15ThemeDownloaderD0Ev
	.type	_ZN15ThemeDownloaderD0Ev, @function
_ZN15ThemeDownloaderD0Ev:
.LFB1610:
	.loc 4 63 0
	.cfi_startproc
.LVL172:
	stwu 1,-16(1)
.LCFI53:
	.cfi_def_cfa_offset 16
	mflr 0
	stw 31,12(1)
	mr 31,3
	.cfi_offset 31, -4
	.cfi_register 65, 0
	stw 0,20(1)
	.loc 4 77 0
	.cfi_offset 65, 4
	bl _ZN15ThemeDownloaderD1Ev
.LVL173:
	mr 3,31
	bl _ZdlPv
	lwz 0,20(1)
	lwz 31,12(1)
.LVL174:
	mtlr 0
	addi 1,1,16
.LCFI54:
	.cfi_def_cfa_offset 0
	.cfi_restore 31
	blr
	.cfi_endproc
.LFE1610:
	.size	_ZN15ThemeDownloaderD0Ev, .-_ZN15ThemeDownloaderD0Ev
	.align 2
	.globl _ZN15ThemeDownloader12GetImageDataEi
	.type	_ZN15ThemeDownloader12GetImageDataEi, @function
_ZN15ThemeDownloader12GetImageDataEi:
.LFB1613:
	.loc 4 169 0
	.cfi_startproc
	.cfi_personality 0,__gxx_personality_v0
	.cfi_lsda 0,.LLSDA1613
.LVL175:
	mflr 0
	stwu 1,-656(1)
.LCFI55:
	.cfi_def_cfa_offset 656
	.cfi_register 65, 0
	stw 29,644(1)
	mr 29,3
	.cfi_offset 29, -12
	stw 0,660(1)
	stw 30,648(1)
.LBB3132:
	.loc 4 172 0
	lis 30,Settings+144@ha
	.cfi_offset 30, -8
	.cfi_offset 65, 4
	lwz 3,368(3)
.LVL176:
	la 30,Settings+144@l(30)
.LBE3132:
	.loc 4 169 0
	stw 28,640(1)
	mr 28,4
	.cfi_offset 28, -16
	stw 27,636(1)
	stw 31,652(1)
.LEHB3:
.LBB3187:
	.loc 4 172 0
	.cfi_offset 31, -4
	.cfi_offset 27, -20
	bl _ZNK10Theme_List13GetThemeTitleEi
.LVL177:
	lis 5,.LC4@ha
	mr 7,3
	li 4,300
	la 5,.LC4@l(5)
	mr 6,30
	addi 3,1,320
	crxor 6,6,6
	bl snprintf
.LBB3133:
	.loc 4 174 0
	addi 3,1,16
	addi 4,1,320
	addi 5,1,11
	bl _ZNSsC1EPKcRKSaIcE
.LEHE3:
	addi 3,1,16
.LEHB4:
	bl _Z9CheckFileSs
.LEHE4:
.LBB3134:
.LBB3135:
.LBB3136:
.LBB3137:
.LBB3138:
.LBB3139:
	.loc 6 288 0
	lwz 9,16(1)
.LBE3139:
.LBE3138:
.LBE3137:
.LBB3140:
.LBB3141:
	.loc 6 235 0
	lis 31,_ZNSs4_Rep20_S_empty_rep_storageE@ha
.LBE3141:
.LBE3140:
.LBE3136:
.LBE3135:
.LBE3134:
	.loc 4 174 0
	mr 27,3
.LVL178:
.LBB3158:
.LBB3156:
.LBB3154:
.LBB3151:
.LBB3148:
	.loc 6 235 0
	la 31,_ZNSs4_Rep20_S_empty_rep_storageE@l(31)
.LBE3148:
.LBE3151:
	.loc 6 534 0
	addi 3,9,-12
.LVL179:
.LBB3152:
.LBB3149:
	.loc 6 235 0
	cmpw 7,3,31
	bne- 7,.L165
.LVL180:
.L143:
.LBE3149:
.LBE3152:
.LBE3154:
.LBE3156:
.LBE3158:
	.loc 4 174 0 discriminator 2
	cmpwi 7,27,0
	bne- 7,.L144
.LBB3159:
	.loc 4 176 0
	lwz 3,368(29)
	mr 4,28
.LEHB5:
	bl _ZNK10Theme_List12GetImageLinkEi
	bl downloadfile
	.loc 4 178 0
	lis 5,.LC5@ha
	la 5,.LC5@l(5)
	mr 6,30
	.loc 4 176 0
	mr 28,3
.LVL181:
	mr 29,4
.LVL182:
	.loc 4 178 0
	addi 3,1,20
.LVL183:
	li 4,300
.LVL184:
	crxor 6,6,6
	bl snprintf
	.loc 4 179 0
	addi 3,1,12
	addi 4,1,20
	addi 5,1,10
	bl _ZNSsC1EPKcRKSaIcE
.LEHE5:
	addi 3,1,12
.LEHB6:
	bl _Z15CreateSubfolderSs
.LEHE6:
.LVL185:
.LBB3160:
.LBB3161:
.LBB3162:
.LBB3163:
.LBB3164:
.LBB3165:
	.loc 6 288 0
	lwz 9,12(1)
.LBE3165:
.LBE3164:
.LBE3163:
	.loc 6 534 0
	addi 3,9,-12
.LVL186:
.LBB3166:
.LBB3167:
	.loc 6 235 0
	cmpw 7,3,31
	bne- 7,.L166
.LVL187:
.L152:
.LBE3167:
.LBE3166:
.LBE3162:
.LBE3161:
.LBE3160:
.LBB3178:
	.loc 4 180 0 discriminator 1
	cmpwi 7,29,0
	beq- 7,.L159
.LBB3179:
	.loc 4 182 0
	li 3,24
.LEHB7:
	bl _Znwj
.LEHE7:
	mr 4,29
	mr 5,28
	mr 31,3
.LEHB8:
	bl _ZN12GuiImageDataC1EPKhi
.LEHE8:
.LVL188:
	.loc 4 184 0 discriminator 1
	lis 4,.LC6@ha
	addi 3,1,320
	la 4,.LC6@l(4)
.LEHB9:
	bl fopen
.LVL189:
	.loc 4 185 0 discriminator 1
	mr. 30,3
	beq- 0,.L154
	.loc 4 187 0
	mr 3,29
.LVL190:
	li 4,1
	mr 5,28
	mr 6,30
	bl fwrite
	.loc 4 188 0
	mr 3,30
	bl fclose
.L154:
	.loc 4 190 0
	mr 3,29
	bl free
.LBE3179:
.LBE3178:
.LBE3159:
.LBE3133:
.LBE3187:
	.loc 4 197 0
	lwz 0,660(1)
	mr 3,31
	lwz 27,636(1)
	mtlr 0
	lwz 28,640(1)
.LVL191:
	lwz 29,644(1)
.LVL192:
	lwz 30,648(1)
.LVL193:
	lwz 31,652(1)
.LVL194:
	addi 1,1,656
	.cfi_remember_state
	.cfi_restore 27
	.cfi_restore 28
	.cfi_restore 29
	.cfi_restore 30
	.cfi_restore 31
.LCFI56:
	.cfi_def_cfa_offset 0
	blr
.LVL195:
.L144:
.LCFI57:
	.cfi_restore_state
.LBB3188:
.LBB3185:
	.loc 4 194 0
	li 3,24
	bl _Znwj
.LEHE9:
	addi 4,1,320
	mr 31,3
.LEHB10:
	bl _ZN12GuiImageDataC1EPKc
.LEHE10:
.LVL196:
.L153:
.LBE3185:
.LBE3188:
	.loc 4 197 0
	lwz 0,660(1)
	mr 3,31
	lwz 27,636(1)
	mtlr 0
	lwz 28,640(1)
.LVL197:
	lwz 29,644(1)
	lwz 30,648(1)
	lwz 31,652(1)
.LVL198:
	addi 1,1,656
	.cfi_remember_state
.LCFI58:
	.cfi_def_cfa_offset 0
	.cfi_restore 31
	.cfi_restore 30
	.cfi_restore 29
	.cfi_restore 28
	.cfi_restore 27
	blr
.LVL199:
.L159:
.LCFI59:
	.cfi_restore_state
.LBB3189:
.LBB3186:
.LBB3182:
.LBB3180:
	.loc 4 170 0
	li 31,0
	b .L153
.LVL200:
.L166:
.LBE3180:
.LBB3181:
.LBB3177:
.LBB3176:
.LBB3175:
.LBB3174:
.LBB3168:
.LBB3169:
.LBB3170:
	.loc 7 66 0
	lwz 11,-4(9)
.LVL201:
.LBE3170:
.LBE3169:
.LBE3168:
	.loc 6 240 0
	cmpwi 7,11,0
.LBB3173:
.LBB3172:
.LBB3171:
	.loc 7 67 0
	addi 11,11,-1
	stw 11,-4(9)
.LBE3171:
.LBE3172:
.LBE3173:
	.loc 6 240 0
	bgt+ 7,.L152
	.loc 6 244 0
	addi 4,1,8
	bl _ZNSs4_Rep10_M_destroyERKSaIcE
.LVL202:
	b .L152
.LVL203:
.L165:
.LBE3174:
.LBE3175:
.LBE3176:
.LBE3177:
.LBE3181:
.LBE3182:
.LBB3183:
.LBB3157:
.LBB3155:
.LBB3153:
.LBB3150:
.LBB3142:
.LBB3143:
.LBB3144:
	.loc 7 66 0
	lwz 11,-4(9)
.LVL204:
.LBE3144:
.LBE3143:
.LBE3142:
	.loc 6 240 0
	cmpwi 7,11,0
.LBB3147:
.LBB3146:
.LBB3145:
	.loc 7 67 0
	addi 11,11,-1
	stw 11,-4(9)
.LBE3145:
.LBE3146:
.LBE3147:
	.loc 6 240 0
	bgt+ 7,.L143
	.loc 6 244 0
	addi 4,1,9
	bl _ZNSs4_Rep10_M_destroyERKSaIcE
.LVL205:
	b .L143
.LVL206:
.L160:
	mr 31,3
.LBE3150:
.LBE3153:
.LBE3155:
.LBE3157:
.LBE3183:
	.loc 4 174 0
	addi 3,1,16
	bl _ZNSsD1Ev
	mr 3,31
.LEHB11:
	bl _Unwind_Resume
.LVL207:
.L163:
.L164:
	mr 30,3
	.loc 4 194 0
	mr 3,31
	bl _ZdlPv
	mr 3,30
	bl _Unwind_Resume
.LVL208:
.L161:
	mr 31,3
.LBB3184:
	.loc 4 179 0
	addi 3,1,12
	bl _ZNSsD1Ev
	mr 3,31
	bl _Unwind_Resume
.LEHE11:
.LVL209:
.L162:
	b .L164
.LBE3184:
.LBE3186:
.LBE3189:
	.cfi_endproc
.LFE1613:
	.section	.gcc_except_table
.LLSDA1613:
	.byte	0xff
	.byte	0xff
	.byte	0x1
	.uleb128 .LLSDACSE1613-.LLSDACSB1613
.LLSDACSB1613:
	.uleb128 .LEHB3-.LFB1613
	.uleb128 .LEHE3-.LEHB3
	.uleb128 0
	.uleb128 0
	.uleb128 .LEHB4-.LFB1613
	.uleb128 .LEHE4-.LEHB4
	.uleb128 .L160-.LFB1613
	.uleb128 0
	.uleb128 .LEHB5-.LFB1613
	.uleb128 .LEHE5-.LEHB5
	.uleb128 0
	.uleb128 0
	.uleb128 .LEHB6-.LFB1613
	.uleb128 .LEHE6-.LEHB6
	.uleb128 .L161-.LFB1613
	.uleb128 0
	.uleb128 .LEHB7-.LFB1613
	.uleb128 .LEHE7-.LEHB7
	.uleb128 0
	.uleb128 0
	.uleb128 .LEHB8-.LFB1613
	.uleb128 .LEHE8-.LEHB8
	.uleb128 .L162-.LFB1613
	.uleb128 0
	.uleb128 .LEHB9-.LFB1613
	.uleb128 .LEHE9-.LEHB9
	.uleb128 0
	.uleb128 0
	.uleb128 .LEHB10-.LFB1613
	.uleb128 .LEHE10-.LEHB10
	.uleb128 .L163-.LFB1613
	.uleb128 0
	.uleb128 .LEHB11-.LFB1613
	.uleb128 .LEHE11-.LEHB11
	.uleb128 0
	.uleb128 0
.LLSDACSE1613:
	.section	".text"
	.size	_ZN15ThemeDownloader12GetImageDataEi, .-_ZN15ThemeDownloader12GetImageDataEi
	.align 2
	.globl _ZN15ThemeDownloader14AddMainButtonsEv
	.type	_ZN15ThemeDownloader14AddMainButtonsEv, @function
_ZN15ThemeDownloader14AddMainButtonsEv:
.LFB1614:
	.loc 4 200 0
	.cfi_startproc
	.cfi_personality 0,__gxx_personality_v0
	.cfi_lsda 0,.LLSDA1614
.LVL210:
	mflr 0
	stwu 1,-72(1)
.LCFI60:
	.cfi_def_cfa_offset 72
	.cfi_register 65, 0
	stw 31,68(1)
	mr 31,3
	.cfi_offset 31, -4
	stw 0,76(1)
.LBB3218:
.LBB3219:
	.loc 4 201 0
	li 0,0
	.cfi_offset 65, 4
.LBE3219:
.LBE3218:
	.loc 4 200 0
	stw 20,24(1)
.LBB3269:
.LBB3226:
	.loc 4 281 0
	lwz 9,356(3)
.LBE3226:
.LBB3233:
.LBB3220:
.LBB3221:
	.loc 5 571 0
	lwz 11,360(3)
.LBE3221:
.LBE3220:
.LBE3233:
.LBE3269:
	.loc 4 200 0
	stw 21,28(1)
.LBB3270:
.LBB3234:
.LBB3224:
.LBB3222:
	.loc 5 571 0
	subf 11,9,11
.LBE3222:
.LBE3224:
.LBE3234:
.LBE3270:
	.loc 4 200 0
	stw 22,32(1)
.LBB3271:
.LBB3235:
	.loc 4 201 0
	srwi. 10,11,2
.LBE3235:
.LBE3271:
	.loc 4 200 0
	stw 23,36(1)
	stw 24,40(1)
	stw 25,44(1)
	stw 26,48(1)
	stw 27,52(1)
	stw 28,56(1)
	stw 29,60(1)
	stw 30,64(1)
.LBB3272:
.LBB3236:
	.loc 4 201 0
	beq- 0,.L168
	.cfi_offset 30, -8
	.cfi_offset 29, -12
	.cfi_offset 28, -16
	.cfi_offset 27, -20
	.cfi_offset 26, -24
	.cfi_offset 25, -28
	.cfi_offset 24, -32
	.cfi_offset 23, -36
	.cfi_offset 22, -40
	.cfi_offset 21, -44
	.cfi_offset 20, -48
	li 30,0
.LVL211:
.L169:
	.loc 4 202 0 discriminator 2
	slwi 0,30,2
	mr 3,31
	lwzx 4,9,0
	.loc 4 201 0 discriminator 2
	addi 30,30,1
.LVL212:
.LEHB12:
	.loc 4 202 0 discriminator 2
	bl _ZN8GuiFrame6RemoveEP10GuiElement
.LVL213:
	.loc 4 281 0 discriminator 2
	lwz 9,356(31)
.LBB3225:
.LBB3223:
	.loc 5 571 0 discriminator 2
	lwz 0,360(31)
	subf 0,9,0
	srawi 0,0,2
.LBE3223:
.LBE3225:
	.loc 4 201 0 discriminator 2
	cmplw 7,30,0
	blt+ 7,.L169
.LVL214:
.L168:
.LBE3236:
	.loc 4 204 0
	lwz 22,216(31)
	.loc 4 207 0
	li 28,4
	.loc 4 204 0
	slwi 22,22,2
.LVL215:
	.loc 4 208 0
	subf 0,22,0
	cmplwi 7,0,3
	bgt- 7,.L170
	.loc 4 209 0
	mr 28,0
.LVL216:
.L170:
.LBB3237:
.LBB3238:
	.file 8 "d:/Projects/SaveGameManager/savegame-manager-gx/trunk/source/Themes/../Prompts/ProgressWindow.h"
	.loc 8 26 0
	lis 23,_ZN14ProgressWindow8instanceE@ha
	lwz 30,_ZN14ProgressWindow8instanceE@l(23)
	cmpwi 7,30,0
	beq- 7,.L198
.L171:
.LBE3238:
.LBE3237:
	.loc 4 211 0
	lis 3,.LC7@ha
	la 3,.LC7@l(3)
	bl gettext
	li 5,0
	mr 4,3
	mr 3,30
	bl _ZN14ProgressWindow13StartProgressEPKcS1_
.LVL217:
.LBB3240:
.LBB3241:
.LBB3242:
	.loc 5 571 0
	lwz 9,360(31)
	lwz 0,356(31)
	subf 0,0,9
	srawi 0,0,2
.LBE3242:
.LBE3241:
	.loc 4 213 0
	cmpw 7,22,0
	bge- 7,.L172
	lis 20,_ZN14ProgressWindow8instanceE@ha
	addi 21,22,3
	slwi 27,22,2
	.loc 4 199 0
	addi 29,31,372
.LBE3240:
	mr 30,22
	li 24,0
	li 25,0
	la 20,_ZN14ProgressWindow8instanceE@l(20)
.LVL218:
.L173:
.LBB3251:
.LBB3244:
.LBB3245:
	.loc 8 26 0 discriminator 5
	lwz 26,0(20)
	cmpwi 7,26,0
	beq- 7,.L199
.L179:
.LBE3245:
.LBE3244:
	.loc 4 215 0
	lwz 3,368(31)
	srawi 0,28,31
	mr 4,30
	stw 0,8(1)
	stw 24,16(1)
	stw 25,20(1)
	stw 28,12(1)
	bl _ZNK10Theme_List13GetThemeTitleEi
	mr 6,3
	addi 4,1,16
	mr 3,26
	addi 5,1,8
	bl _ZN14ProgressWindow12ShowProgressERKyS1_PKc
	.loc 4 216 0
	lwzu 3,4(29)
	cmpwi 7,3,0
	beq- 7,.L176
	.loc 4 217 0 discriminator 1
	lwz 9,0(3)
	lwz 0,4(9)
	mtctr 0
	bctrl
.L176:
	.loc 4 218 0
	mr 4,30
	mr 3,31
	bl _ZN15ThemeDownloader12GetImageDataEi
	.loc 4 213 0
	addi 30,30,1
.LVL219:
	.loc 4 218 0
	stw 3,0(29)
	mr 4,3
	.loc 4 219 0
	lwz 9,332(31)
	lwzx 3,9,27
	bl _ZN8GuiImage8SetImageEP12GuiImageData
.LVL220:
.LBB3248:
.LBB3243:
	.loc 5 571 0
	lwz 9,360(31)
	lwz 0,356(31)
	subf 0,0,9
	srawi 0,0,2
.LBE3243:
.LBE3248:
	.loc 4 213 0
	cmpw 7,30,0
	bge- 7,.L172
	.loc 4 213 0 is_stmt 0 discriminator 2
	cmpw 7,30,21
	addi 27,27,4
	addic 25,25,1
	addze 24,24
	ble- 7,.L173
.LVL221:
.L172:
.LBE3251:
.LBB3252:
.LBB3253:
	.loc 8 26 0 is_stmt 1
	lwz 30,_ZN14ProgressWindow8instanceE@l(23)
	cmpwi 7,30,0
	beq- 7,.L200
.LBE3253:
.LBE3252:
	.loc 4 222 0
	mr 3,30
	bl _ZN14ProgressWindow14FinishProgressEv
.LBB3257:
.LBB3258:
	.loc 8 26 0
	lwz 30,_ZN14ProgressWindow8instanceE@l(23)
	cmpwi 7,30,0
	beq- 7,.L201
.L181:
.LBE3258:
.LBE3257:
	.loc 4 223 0
	mr 3,30
.LBB3260:
	.loc 4 225 0
	addi 29,22,3
.LBE3260:
	.loc 4 223 0
	bl _ZN14ProgressWindow12StopProgressEv
.LVL222:
	.loc 4 281 0
	lwz 9,356(31)
.LBB3261:
.LBB3227:
.LBB3228:
	.loc 5 571 0
	lwz 0,360(31)
.LBE3228:
.LBE3227:
	.loc 4 225 0
	slwi 30,22,2
.LBB3231:
.LBB3229:
	.loc 5 571 0
	subf 0,9,0
	srawi 0,0,2
.LBE3229:
.LBE3231:
	.loc 4 225 0
	cmpw 7,22,0
	bge- 7,.L184
.LVL223:
.L186:
	.loc 4 226 0 discriminator 5
	lwzx 4,9,30
	mr 3,31
	.loc 4 225 0 discriminator 5
	addi 22,22,1
.LVL224:
	.loc 4 226 0 discriminator 5
	bl _ZN8GuiFrame6AppendEP10GuiElement
.LVL225:
	.loc 4 281 0 discriminator 5
	lwz 9,356(31)
.LBB3232:
.LBB3230:
	.loc 5 571 0 discriminator 5
	lwz 0,360(31)
	subf 0,9,0
	srawi 0,0,2
.LBE3230:
.LBE3232:
	.loc 4 225 0 discriminator 5
	cmpw 7,22,0
	bge- 7,.L184
	.loc 4 225 0 is_stmt 0 discriminator 2
	cmpw 7,22,29
	addi 30,30,4
	ble- 7,.L186
.LVL226:
.L184:
.LBE3261:
	.loc 4 228 0 is_stmt 1
	lwz 9,0(31)
	mr 3,31
	lwz 0,244(9)
	mtctr 0
	bctrl
.LBE3272:
	.loc 4 229 0
	lwz 0,76(1)
	lwz 20,24(1)
	mtlr 0
	lwz 21,28(1)
	lwz 22,32(1)
.LVL227:
	lwz 23,36(1)
	lwz 24,40(1)
	lwz 25,44(1)
	lwz 26,48(1)
	lwz 27,52(1)
	lwz 28,56(1)
.LVL228:
	lwz 29,60(1)
.LVL229:
	lwz 30,64(1)
	lwz 31,68(1)
.LVL230:
	addi 1,1,72
	.cfi_remember_state
.LCFI61:
	.cfi_def_cfa_offset 0
	.cfi_restore 31
	.cfi_restore 30
	.cfi_restore 29
	.cfi_restore 28
	.cfi_restore 27
	.cfi_restore 26
	.cfi_restore 25
	.cfi_restore 24
	.cfi_restore 23
	.cfi_restore 22
	.cfi_restore 21
	.cfi_restore 20
	blr
.LVL231:
.L199:
.LCFI62:
	.cfi_restore_state
.LBB3273:
.LBB3262:
.LBB3249:
.LBB3246:
	.loc 8 26 0
	li 3,440
	bl _Znwj
.LEHE12:
	mr 26,3
.LEHB13:
	bl _ZN14ProgressWindowC1Ev
.LEHE13:
	stw 26,0(20)
	b .L179
.LVL232:
.L198:
.LBE3246:
.LBE3249:
.LBE3262:
.LBB3263:
.LBB3239:
	li 3,440
.LEHB14:
	bl _Znwj
.LEHE14:
	mr 30,3
.LEHB15:
	bl _ZN14ProgressWindowC1Ev
.LEHE15:
	stw 30,_ZN14ProgressWindow8instanceE@l(23)
	b .L171
.LVL233:
.L200:
.LBE3239:
.LBE3263:
.LBB3264:
.LBB3254:
	li 3,440
.LEHB16:
	bl _Znwj
.LEHE16:
	mr 30,3
.LEHB17:
	bl _ZN14ProgressWindowC1Ev
.LEHE17:
.LBE3254:
.LBE3264:
	.loc 4 222 0
	mr 3,30
.LBB3265:
.LBB3255:
	.loc 8 26 0
	stw 30,_ZN14ProgressWindow8instanceE@l(23)
.LEHB18:
.LBE3255:
.LBE3265:
	.loc 4 222 0
	bl _ZN14ProgressWindow14FinishProgressEv
.LBB3266:
.LBB3259:
	.loc 8 26 0
	lwz 30,_ZN14ProgressWindow8instanceE@l(23)
	cmpwi 7,30,0
	bne+ 7,.L181
.L201:
	li 3,440
	bl _Znwj
.LEHE18:
	mr 30,3
.LEHB19:
	bl _ZN14ProgressWindowC1Ev
.LEHE19:
	stw 30,_ZN14ProgressWindow8instanceE@l(23)
	b .L181
.LVL234:
.L192:
.L197:
	mr 31,3
.LVL235:
.LBE3259:
.LBE3266:
.LBB3267:
.LBB3256:
	mr 3,30
	bl _ZdlPv
	mr 3,31
.LEHB20:
	bl _Unwind_Resume
.LVL236:
.L193:
	mr 31,3
.LVL237:
.LBE3256:
.LBE3267:
.LBB3268:
.LBB3250:
.LBB3247:
	mr 3,26
	bl _ZdlPv
	mr 3,31
	bl _Unwind_Resume
.LEHE20:
.LVL238:
.L195:
	b .L197
.L194:
	b .L197
.LBE3247:
.LBE3250:
.LBE3268:
.LBE3273:
	.cfi_endproc
.LFE1614:
	.section	.gcc_except_table
.LLSDA1614:
	.byte	0xff
	.byte	0xff
	.byte	0x1
	.uleb128 .LLSDACSE1614-.LLSDACSB1614
.LLSDACSB1614:
	.uleb128 .LEHB12-.LFB1614
	.uleb128 .LEHE12-.LEHB12
	.uleb128 0
	.uleb128 0
	.uleb128 .LEHB13-.LFB1614
	.uleb128 .LEHE13-.LEHB13
	.uleb128 .L193-.LFB1614
	.uleb128 0
	.uleb128 .LEHB14-.LFB1614
	.uleb128 .LEHE14-.LEHB14
	.uleb128 0
	.uleb128 0
	.uleb128 .LEHB15-.LFB1614
	.uleb128 .LEHE15-.LEHB15
	.uleb128 .L192-.LFB1614
	.uleb128 0
	.uleb128 .LEHB16-.LFB1614
	.uleb128 .LEHE16-.LEHB16
	.uleb128 0
	.uleb128 0
	.uleb128 .LEHB17-.LFB1614
	.uleb128 .LEHE17-.LEHB17
	.uleb128 .L194-.LFB1614
	.uleb128 0
	.uleb128 .LEHB18-.LFB1614
	.uleb128 .LEHE18-.LEHB18
	.uleb128 0
	.uleb128 0
	.uleb128 .LEHB19-.LFB1614
	.uleb128 .LEHE19-.LEHB19
	.uleb128 .L195-.LFB1614
	.uleb128 0
	.uleb128 .LEHB20-.LFB1614
	.uleb128 .LEHE20-.LEHB20
	.uleb128 0
	.uleb128 0
.LLSDACSE1614:
	.section	".text"
	.size	_ZN15ThemeDownloader14AddMainButtonsEv, .-_ZN15ThemeDownloader14AddMainButtonsEv
	.section	.text._ZNSt6vectorIP8GuiImageSaIS1_EE14_M_fill_insertEN9__gnu_cxx17__normal_iteratorIPS1_S3_EEjRKS1_,"axG",@progbits,_ZNSt6vectorIP8GuiImageSaIS1_EE14_M_fill_insertEN9__gnu_cxx17__normal_iteratorIPS1_S3_EEjRKS1_,comdat
	.align 2
	.weak	_ZNSt6vectorIP8GuiImageSaIS1_EE14_M_fill_insertEN9__gnu_cxx17__normal_iteratorIPS1_S3_EEjRKS1_
	.type	_ZNSt6vectorIP8GuiImageSaIS1_EE14_M_fill_insertEN9__gnu_cxx17__normal_iteratorIPS1_S3_EEjRKS1_, @function
_ZNSt6vectorIP8GuiImageSaIS1_EE14_M_fill_insertEN9__gnu_cxx17__normal_iteratorIPS1_S3_EEjRKS1_:
.LFB1802:
	.file 9 "d:\\devkitpro\\devkitppc\\bin\\../lib/gcc/powerpc-eabi/4.6.3/../../../../powerpc-eabi/include/c++/4.6.3/bits/vector.tcc"
	.loc 9 377 0
	.cfi_startproc
.LVL239:
	stwu 1,-40(1)
.LCFI63:
	.cfi_def_cfa_offset 40
	mflr 0
	stw 30,32(1)
.LBB3380:
	.loc 9 380 0
	mr. 30,5
	.cfi_offset 30, -8
	.cfi_register 65, 0
.LBE3380:
	.loc 9 377 0
	stw 0,44(1)
	stw 29,28(1)
	stw 31,36(1)
	mr 31,3
	.cfi_offset 31, -4
	.cfi_offset 29, -12
	.cfi_offset 65, 4
	stw 26,16(1)
	stw 27,20(1)
	stw 28,24(1)
	.loc 9 377 0
	lwz 29,0(4)
.LBB3677:
	.loc 9 380 0
	beq- 0,.L202
	.cfi_offset 28, -16
	.cfi_offset 27, -20
	.cfi_offset 26, -24
.LBB3381:
	.loc 9 382 0
	lwz 27,4(3)
	lwz 0,8(3)
	subf 0,27,0
	srawi 0,0,2
	cmplw 7,30,0
	bgt- 7,.L204
.LBB3382:
.LBB3383:
.LBB3384:
	.file 10 "d:\\devkitpro\\devkitppc\\bin\\../lib/gcc/powerpc-eabi/4.6.3/../../../../powerpc-eabi/include/c++/4.6.3/bits/stl_iterator.h"
	.loc 10 892 0
	subf 0,29,27
.LBE3384:
.LBE3383:
	.loc 9 385 0
	lwz 28,0(6)
.LVL240:
.LBB3386:
.LBB3385:
	.loc 10 892 0
	srawi 0,0,2
.LVL241:
.LBE3385:
.LBE3386:
	.loc 9 388 0
	cmplw 7,30,0
	blt- 7,.L232
.LVL242:
.LBB3387:
.LBB3388:
.LBB3389:
.LBB3390:
.LBB3391:
.LBB3392:
.LBB3393:
.LBB3394:
	.file 11 "d:\\devkitpro\\devkitppc\\bin\\../lib/gcc/powerpc-eabi/4.6.3/../../../../powerpc-eabi/include/c++/4.6.3/bits/stl_algobase.h"
	.loc 11 743 0
	subf. 30,0,30
	.loc 9 382 0
	mr 9,27
	.loc 11 743 0
	beq- 0,.L209
.LBE3394:
.LBE3393:
.LBE3392:
.LBE3391:
.LBE3390:
.LBE3389:
.LBE3388:
.LBE3387:
.LBB3402:
.LBB3403:
.LBB3404:
.LBB3405:
.LBB3406:
.LBB3407:
.LBB3408:
.LBB3409:
.LBB3410:
.LBB3411:
.LBB3412:
	.loc 9 377 0
	mtctr 30
.LBE3412:
.LBE3411:
.LBE3410:
.LBE3409:
.LBE3408:
.LBE3407:
.LBE3406:
.LBE3405:
.LBE3404:
.LBE3403:
.LBE3402:
.LBB3423:
.LBB3401:
.LBB3400:
.LBB3399:
.LBB3398:
.LBB3397:
.LBB3396:
.LBB3395:
	addi 9,27,-4
.LVL243:
.L210:
	.loc 11 745 0
	stwu 28,4(9)
	.loc 11 743 0
	bdnz .L210
	lwz 9,4(31)
.L209:
.LBE3395:
.LBE3396:
.LBE3397:
.LBE3398:
.LBE3399:
.LBE3400:
.LBE3401:
.LBE3423:
.LBB3424:
.LBB3425:
.LBB3426:
.LBB3427:
.LBB3428:
.LBB3429:
.LBB3430:
.LBB3431:
.LBB3432:
.LBB3433:
.LBB3434:
	.loc 11 365 0
	cmpwi 7,0,0
.LBE3434:
.LBE3433:
.LBE3432:
.LBE3431:
.LBE3430:
.LBE3429:
.LBE3428:
.LBE3427:
.LBE3426:
.LBE3425:
.LBE3424:
	.loc 9 406 0
	slwi 30,30,2
	add 3,9,30
.LVL244:
	stw 3,4(31)
.LVL245:
.LBB3455:
.LBB3453:
.LBB3451:
.LBB3449:
.LBB3447:
.LBB3445:
.LBB3443:
.LBB3441:
.LBB3439:
.LBB3437:
.LBB3435:
	.loc 11 365 0
	bne- 7,.L211
	li 30,0
.LVL246:
.L212:
.LBE3435:
.LBE3437:
.LBE3439:
.LBE3441:
.LBE3443:
.LBE3445:
.LBE3447:
.LBE3449:
.LBE3451:
.LBE3453:
.LBE3455:
.LBB3456:
.LBB3457:
.LBB3458:
	.loc 11 686 0
	cmpw 7,27,29
.LBE3458:
.LBE3457:
.LBE3456:
	.loc 9 410 0
	add 3,3,30
	stw 3,4(31)
.LVL247:
.LBB3461:
.LBB3460:
.LBB3459:
	.loc 11 686 0
	beq- 7,.L202
.LVL248:
.L213:
	.loc 11 687 0
	stw 28,0(29)
	addi 29,29,4
	.loc 11 686 0
	cmpw 7,27,29
	bne+ 7,.L213
.LVL249:
.L202:
.LBE3459:
.LBE3460:
.LBE3461:
.LBE3382:
.LBE3381:
.LBE3677:
	.loc 9 464 0
	lwz 0,44(1)
	lwz 26,16(1)
	mtlr 0
	lwz 27,20(1)
	lwz 28,24(1)
	lwz 29,28(1)
	lwz 30,32(1)
	lwz 31,36(1)
.LVL250:
	addi 1,1,40
	.cfi_remember_state
.LCFI64:
	.cfi_def_cfa_offset 0
	.cfi_restore 31
	.cfi_restore 30
	.cfi_restore 29
	.cfi_restore 28
	.cfi_restore 27
	.cfi_restore 26
	blr
.LVL251:
.L204:
.LCFI65:
	.cfi_restore_state
.LBB3678:
.LBB3673:
.LBB3491:
.LBB3492:
.LBB3493:
.LBB3494:
.LBB3495:
	.loc 5 571 0
	lwz 9,0(3)
.LBE3495:
.LBE3494:
	.loc 5 1241 0
	lis 11,0x3fff
	ori 11,11,65535
.LBB3497:
.LBB3496:
	.loc 5 571 0
	subf 27,9,27
	srawi 0,27,2
.LBE3496:
.LBE3497:
	.loc 5 1241 0
	subf 11,0,11
	cmplw 7,30,11
	bgt- 7,.L233
.LVL252:
	.loc 5 1244 0
	cmplw 7,0,30
	mr 11,0
	blt- 7,.L234
	add 11,11,0
.LVL253:
	.loc 5 1245 0
	cmplw 7,0,11
	ble- 7,.L235
.L216:
.LVL254:
.LBE3493:
.LBE3492:
.LBB3500:
.LBB3501:
	.loc 10 892 0
	subf 27,9,29
.LBE3501:
.LBE3500:
	.loc 9 418 0
	li 26,-4
.LBB3504:
.LBB3502:
	.loc 10 892 0
	srawi 27,27,2
.LVL255:
.L222:
.LBE3502:
.LBE3504:
.LBB3505:
.LBB3506:
.LBB3507:
.LBB3508:
	.file 12 "d:\\devkitpro\\devkitppc\\bin\\../lib/gcc/powerpc-eabi/4.6.3/../../../../powerpc-eabi/include/c++/4.6.3/ext/new_allocator.h"
	.loc 12 92 0
	mr 3,26
.LVL256:
	stw 6,8(1)
	bl _Znwj
.LVL257:
	lwz 6,8(1)
	mr 28,3
.L217:
.LVL258:
.LBE3508:
.LBE3507:
.LBE3506:
.LBE3505:
	.loc 9 424 0
	slwi 27,27,2
.LVL259:
.LBB3517:
.LBB3513:
.LBB3511:
.LBB3509:
	.loc 4 281 0
	lwz 0,0(6)
.LVL260:
.LBE3509:
.LBE3511:
.LBE3513:
.LBE3517:
	.loc 9 424 0
	add 27,28,27
.LBB3518:
.LBB3514:
	.loc 9 377 0
	mtctr 30
.LBB3512:
.LBB3510:
	addi 27,27,-4
.LVL261:
.L218:
.LBE3510:
.LBE3512:
.LBE3514:
.LBE3518:
.LBB3519:
.LBB3520:
.LBB3521:
.LBB3522:
.LBB3523:
.LBB3524:
.LBB3525:
.LBB3526:
	.loc 11 745 0
	stwu 0,4(27)
	.loc 11 743 0
	bdnz .L218
.LVL262:
.LBE3526:
.LBE3525:
.LBE3524:
.LBE3523:
.LBE3522:
.LBE3521:
.LBE3520:
.LBE3519:
	.loc 9 429 0
	lwz 4,0(31)
.LVL263:
.LBB3527:
.LBB3528:
.LBB3529:
.LBB3530:
.LBB3531:
.LBB3532:
.LBB3533:
.LBB3534:
.LBB3535:
.LBB3536:
.LBB3537:
	.loc 11 365 0
	li 27,0
	.loc 11 364 0
	subf 0,4,29
.LVL264:
	.loc 11 365 0
	srawi. 0,0,2
.LVL265:
	bne- 0,.L236
.LBE3537:
.LBE3536:
.LBE3535:
.LBE3534:
.LBE3533:
.LBE3532:
.LBE3531:
.LBE3530:
.LBE3529:
.LBE3528:
.LBE3527:
.LBB3578:
.LBB3579:
.LBB3580:
.LBB3581:
.LBB3582:
.LBB3583:
.LBB3584:
.LBB3585:
.LBB3586:
.LBB3587:
.LBB3588:
	.loc 11 364 0
	lwz 0,4(31)
.LVL266:
.LBE3588:
.LBE3587:
.LBE3586:
.LBE3585:
.LBE3584:
.LBE3583:
.LBE3582:
.LBE3581:
.LBE3580:
.LBE3579:
.LBE3578:
.LBB3649:
.LBB3574:
.LBB3570:
.LBB3566:
.LBB3562:
.LBB3558:
.LBB3554:
.LBB3550:
.LBB3546:
.LBB3542:
.LBB3538:
	.loc 11 367 0
	add 27,28,27
.LVL267:
.LBE3538:
.LBE3542:
.LBE3546:
.LBE3550:
.LBE3554:
.LBE3558:
.LBE3562:
.LBE3566:
.LBE3570:
.LBE3574:
.LBE3649:
	.loc 9 434 0
	slwi 30,30,2
.LVL268:
.LBB3650:
.LBB3643:
.LBB3637:
.LBB3631:
.LBB3625:
.LBB3619:
.LBB3613:
.LBB3607:
.LBB3601:
.LBB3595:
.LBB3589:
	.loc 11 364 0
	subf 0,29,0
.LBE3589:
.LBE3595:
.LBE3601:
.LBE3607:
.LBE3613:
.LBE3619:
.LBE3625:
.LBE3631:
.LBE3637:
.LBE3643:
.LBE3650:
	.loc 9 434 0
	add 30,27,30
.LVL269:
.LBB3651:
.LBB3644:
.LBB3638:
.LBB3632:
.LBB3626:
.LBB3620:
.LBB3614:
.LBB3608:
.LBB3602:
.LBB3596:
.LBB3590:
	.loc 11 365 0
	srawi. 0,0,2
.LVL270:
	li 27,0
	bne- 0,.L237
.LVL271:
.L220:
.LBE3590:
.LBE3596:
.LBE3602:
.LBE3608:
.LBE3614:
.LBE3620:
.LBE3626:
.LBE3632:
.LBE3638:
.LBE3644:
.LBE3651:
	.loc 9 456 0
	lwz 3,0(31)
.LBB3652:
.LBB3645:
.LBB3639:
.LBB3633:
.LBB3627:
.LBB3621:
.LBB3615:
.LBB3609:
.LBB3603:
.LBB3597:
.LBB3591:
	.loc 11 367 0
	add 27,30,27
.LVL272:
.LBE3591:
.LBE3597:
.LBE3603:
.LBE3609:
.LBE3615:
.LBE3621:
.LBE3627:
.LBE3633:
.LBE3639:
.LBE3645:
.LBE3652:
.LBB3653:
.LBB3654:
	.loc 5 155 0
	cmpwi 7,3,0
	beq- 7,.L221
.LVL273:
.LBB3655:
.LBB3656:
	.loc 12 98 0
	bl _ZdlPv
.LVL274:
.L221:
.LBE3656:
.LBE3655:
.LBE3654:
.LBE3653:
.LBE3491:
.LBE3673:
.LBE3678:
	.loc 9 464 0
	lwz 0,44(1)
.LBB3679:
.LBB3674:
.LBB3668:
	.loc 9 461 0
	add 26,28,26
	.loc 9 459 0
	stw 28,0(31)
.LBE3668:
.LBE3674:
.LBE3679:
	.loc 9 464 0
	mtlr 0
.LBB3680:
.LBB3675:
.LBB3669:
	.loc 9 460 0
	stw 27,4(31)
	.loc 9 461 0
	stw 26,8(31)
.LBE3669:
.LBE3675:
.LBE3680:
	.loc 9 464 0
	lwz 27,20(1)
	lwz 26,16(1)
	lwz 28,24(1)
.LVL275:
	lwz 29,28(1)
.LVL276:
	lwz 30,32(1)
.LVL277:
	lwz 31,36(1)
.LVL278:
	addi 1,1,40
	.cfi_remember_state
	.cfi_restore 26
	.cfi_restore 27
	.cfi_restore 28
	.cfi_restore 29
	.cfi_restore 30
	.cfi_restore 31
.LCFI66:
	.cfi_def_cfa_offset 0
	blr
.LVL279:
.L234:
.LCFI67:
	.cfi_restore_state
.LBB3681:
.LBB3676:
.LBB3670:
.LBB3657:
.LBB3498:
	.loc 5 1244 0
	mr 11,30
	add 11,11,0
.LVL280:
	.loc 5 1245 0
	cmplw 7,0,11
	bgt- 7,.L216
.L235:
.LVL281:
	lis 0,0x3fff
	ori 0,0,65535
	cmplw 7,11,0
	bgt- 7,.L216
.LVL282:
.LBE3498:
.LBE3657:
.LBB3658:
.LBB3515:
	.loc 5 150 0
	cmpwi 7,11,0
.LBE3515:
.LBE3658:
.LBB3659:
.LBB3503:
	.loc 10 892 0
	subf 9,9,29
	srawi 27,9,2
.LVL283:
.LBE3503:
.LBE3659:
.LBB3660:
.LBB3516:
	.loc 5 150 0
	li 26,0
	li 28,0
	beq+ 7,.L217
	slwi 26,11,2
	b .L222
.LVL284:
.L236:
.LBE3516:
.LBE3660:
.LBB3661:
.LBB3575:
.LBB3571:
.LBB3567:
.LBB3563:
.LBB3559:
.LBB3555:
.LBB3551:
.LBB3547:
.LBB3543:
.LBB3539:
	.loc 11 366 0
	slwi 27,0,2
	mr 3,28
	mr 5,27
.LBE3539:
.LBE3543:
.LBE3547:
.LBE3551:
.LBE3555:
.LBE3559:
.LBE3563:
.LBE3567:
.LBE3571:
.LBE3575:
.LBE3661:
	.loc 9 434 0
	slwi 30,30,2
.LVL285:
.LBB3662:
.LBB3576:
.LBB3572:
.LBB3568:
.LBB3564:
.LBB3560:
.LBB3556:
.LBB3552:
.LBB3548:
.LBB3544:
.LBB3540:
	.loc 11 366 0
	bl memmove
.LVL286:
.LBE3540:
.LBE3544:
.LBE3548:
.LBE3552:
.LBE3556:
.LBE3560:
.LBE3564:
.LBE3568:
.LBE3572:
.LBE3576:
.LBE3662:
.LBB3663:
.LBB3646:
.LBB3640:
.LBB3634:
.LBB3628:
.LBB3622:
.LBB3616:
.LBB3610:
.LBB3604:
.LBB3598:
.LBB3592:
	.loc 11 364 0
	lwz 0,4(31)
.LBE3592:
.LBE3598:
.LBE3604:
.LBE3610:
.LBE3616:
.LBE3622:
.LBE3628:
.LBE3634:
.LBE3640:
.LBE3646:
.LBE3663:
.LBB3664:
.LBB3577:
.LBB3573:
.LBB3569:
.LBB3565:
.LBB3561:
.LBB3557:
.LBB3553:
.LBB3549:
.LBB3545:
.LBB3541:
	.loc 11 367 0
	add 27,28,27
.LVL287:
.LBE3541:
.LBE3545:
.LBE3549:
.LBE3553:
.LBE3557:
.LBE3561:
.LBE3565:
.LBE3569:
.LBE3573:
.LBE3577:
.LBE3664:
.LBB3665:
.LBB3647:
.LBB3641:
.LBB3635:
.LBB3629:
.LBB3623:
.LBB3617:
.LBB3611:
.LBB3605:
.LBB3599:
.LBB3593:
	.loc 11 364 0
	subf 0,29,0
.LBE3593:
.LBE3599:
.LBE3605:
.LBE3611:
.LBE3617:
.LBE3623:
.LBE3629:
.LBE3635:
.LBE3641:
.LBE3647:
.LBE3665:
	.loc 9 434 0
	add 30,27,30
.LVL288:
.LBB3666:
.LBB3648:
.LBB3642:
.LBB3636:
.LBB3630:
.LBB3624:
.LBB3618:
.LBB3612:
.LBB3606:
.LBB3600:
.LBB3594:
	.loc 11 365 0
	srawi. 0,0,2
.LVL289:
	li 27,0
	beq+ 0,.L220
.LVL290:
.L237:
	.loc 11 366 0
	slwi 27,0,2
	mr 3,30
	mr 4,29
	mr 5,27
	bl memmove
	b .L220
.LVL291:
.L211:
.LBE3594:
.LBE3600:
.LBE3606:
.LBE3612:
.LBE3618:
.LBE3624:
.LBE3630:
.LBE3636:
.LBE3642:
.LBE3648:
.LBE3666:
.LBE3670:
.LBB3671:
.LBB3462:
.LBB3454:
.LBB3452:
.LBB3450:
.LBB3448:
.LBB3446:
.LBB3444:
.LBB3442:
.LBB3440:
.LBB3438:
.LBB3436:
	slwi 30,0,2
	mr 4,29
	mr 5,30
.LVL292:
	bl memmove
.LVL293:
	lwz 3,4(31)
	b .L212
.LVL294:
.L232:
.LBE3436:
.LBE3438:
.LBE3440:
.LBE3442:
.LBE3444:
.LBE3446:
.LBE3448:
.LBE3450:
.LBE3452:
.LBE3454:
.LBE3462:
	.loc 9 390 0
	slwi 30,30,2
.LVL295:
.LBB3463:
.LBB3422:
.LBB3421:
.LBB3420:
.LBB3419:
.LBB3418:
.LBB3417:
.LBB3416:
.LBB3415:
.LBB3414:
.LBB3413:
	.loc 9 382 0
	mr 0,27
.LVL296:
	.loc 11 365 0
	srawi. 5,30,2
.LVL297:
	.loc 11 364 0
	subf 26,30,27
	.loc 11 365 0
	beq+ 0,.L206
	.loc 11 366 0
	mr 3,27
	mr 4,26
	slwi 5,5,2
	bl memmove
.LVL298:
	lwz 0,4(31)
.L206:
.LBE3413:
.LBE3414:
.LBE3415:
.LBE3416:
.LBE3417:
.LBE3418:
.LBE3419:
.LBE3420:
.LBE3421:
.LBE3422:
.LBE3463:
.LBB3464:
.LBB3465:
.LBB3466:
.LBB3467:
.LBB3468:
.LBB3469:
	.loc 11 559 0
	subf 26,29,26
.LBE3469:
.LBE3468:
.LBE3467:
.LBE3466:
.LBE3465:
.LBE3464:
	.loc 9 394 0
	add 0,0,30
.LBB3485:
.LBB3482:
.LBB3479:
.LBB3476:
.LBB3473:
.LBB3470:
	.loc 11 560 0
	srawi. 26,26,2
.LBE3470:
.LBE3473:
.LBE3476:
.LBE3479:
.LBE3482:
.LBE3485:
	.loc 9 394 0
	stw 0,4(31)
.LVL299:
.LBB3486:
.LBB3483:
.LBB3480:
.LBB3477:
.LBB3474:
.LBB3471:
	.loc 11 560 0
	bne- 0,.L238
.L207:
.LVL300:
.LBE3471:
.LBE3474:
.LBE3477:
.LBE3480:
.LBE3483:
.LBE3486:
	.loc 9 397 0
	add 30,29,30
.LVL301:
.LBB3487:
.LBB3488:
.LBB3489:
	.loc 11 686 0
	cmpw 7,30,29
	beq- 7,.L202
.LVL302:
.L208:
	.loc 11 687 0
	stw 28,0(29)
	addi 29,29,4
	.loc 11 686 0
	cmpw 7,30,29
	bne+ 7,.L208
	b .L202
.LVL303:
.L238:
.LBE3489:
.LBE3488:
.LBE3487:
.LBB3490:
.LBB3484:
.LBB3481:
.LBB3478:
.LBB3475:
.LBB3472:
	.loc 11 561 0
	slwi 5,26,2
	mr 4,29
	subf 3,5,27
	bl memmove
	b .L207
.LVL304:
.L233:
.LBE3472:
.LBE3475:
.LBE3478:
.LBE3481:
.LBE3484:
.LBE3490:
.LBE3671:
.LBB3672:
.LBB3667:
.LBB3499:
	.loc 5 1242 0
	lis 3,.LC8@ha
	la 3,.LC8@l(3)
	bl _ZSt20__throw_length_errorPKc
.LVL305:
.LVL306:
.LVL307:
.LBE3499:
.LBE3667:
.LBE3672:
.LBE3676:
.LBE3681:
	.cfi_endproc
.LFE1802:
	.size	_ZNSt6vectorIP8GuiImageSaIS1_EE14_M_fill_insertEN9__gnu_cxx17__normal_iteratorIPS1_S3_EEjRKS1_, .-_ZNSt6vectorIP8GuiImageSaIS1_EE14_M_fill_insertEN9__gnu_cxx17__normal_iteratorIPS1_S3_EEjRKS1_
	.section	.text._ZNSt6vectorIP7GuiTextSaIS1_EE14_M_fill_insertEN9__gnu_cxx17__normal_iteratorIPS1_S3_EEjRKS1_,"axG",@progbits,_ZNSt6vectorIP7GuiTextSaIS1_EE14_M_fill_insertEN9__gnu_cxx17__normal_iteratorIPS1_S3_EEjRKS1_,comdat
	.align 2
	.weak	_ZNSt6vectorIP7GuiTextSaIS1_EE14_M_fill_insertEN9__gnu_cxx17__normal_iteratorIPS1_S3_EEjRKS1_
	.type	_ZNSt6vectorIP7GuiTextSaIS1_EE14_M_fill_insertEN9__gnu_cxx17__normal_iteratorIPS1_S3_EEjRKS1_, @function
_ZNSt6vectorIP7GuiTextSaIS1_EE14_M_fill_insertEN9__gnu_cxx17__normal_iteratorIPS1_S3_EEjRKS1_:
.LFB1808:
	.loc 9 377 0
	.cfi_startproc
.LVL308:
	stwu 1,-40(1)
.LCFI68:
	.cfi_def_cfa_offset 40
	mflr 0
	stw 30,32(1)
.LBB3788:
	.loc 9 380 0
	mr. 30,5
	.cfi_offset 30, -8
	.cfi_register 65, 0
.LBE3788:
	.loc 9 377 0
	stw 0,44(1)
	stw 29,28(1)
	stw 31,36(1)
	mr 31,3
	.cfi_offset 31, -4
	.cfi_offset 29, -12
	.cfi_offset 65, 4
	stw 26,16(1)
	stw 27,20(1)
	stw 28,24(1)
	.loc 9 377 0
	lwz 29,0(4)
.LBB4085:
	.loc 9 380 0
	beq- 0,.L239
	.cfi_offset 28, -16
	.cfi_offset 27, -20
	.cfi_offset 26, -24
.LBB3789:
	.loc 9 382 0
	lwz 27,4(3)
	lwz 0,8(3)
	subf 0,27,0
	srawi 0,0,2
	cmplw 7,30,0
	bgt- 7,.L241
.LBB3790:
.LBB3791:
.LBB3792:
	.loc 10 892 0
	subf 0,29,27
.LBE3792:
.LBE3791:
	.loc 9 385 0
	lwz 28,0(6)
.LVL309:
.LBB3794:
.LBB3793:
	.loc 10 892 0
	srawi 0,0,2
.LVL310:
.LBE3793:
.LBE3794:
	.loc 9 388 0
	cmplw 7,30,0
	blt- 7,.L269
.LVL311:
.LBB3795:
.LBB3796:
.LBB3797:
.LBB3798:
.LBB3799:
.LBB3800:
.LBB3801:
.LBB3802:
	.loc 11 743 0
	subf. 30,0,30
	.loc 9 382 0
	mr 9,27
	.loc 11 743 0
	beq- 0,.L246
.LBE3802:
.LBE3801:
.LBE3800:
.LBE3799:
.LBE3798:
.LBE3797:
.LBE3796:
.LBE3795:
.LBB3810:
.LBB3811:
.LBB3812:
.LBB3813:
.LBB3814:
.LBB3815:
.LBB3816:
.LBB3817:
.LBB3818:
.LBB3819:
.LBB3820:
	.loc 9 377 0
	mtctr 30
.LBE3820:
.LBE3819:
.LBE3818:
.LBE3817:
.LBE3816:
.LBE3815:
.LBE3814:
.LBE3813:
.LBE3812:
.LBE3811:
.LBE3810:
.LBB3831:
.LBB3809:
.LBB3808:
.LBB3807:
.LBB3806:
.LBB3805:
.LBB3804:
.LBB3803:
	addi 9,27,-4
.LVL312:
.L247:
	.loc 11 745 0
	stwu 28,4(9)
	.loc 11 743 0
	bdnz .L247
	lwz 9,4(31)
.L246:
.LBE3803:
.LBE3804:
.LBE3805:
.LBE3806:
.LBE3807:
.LBE3808:
.LBE3809:
.LBE3831:
.LBB3832:
.LBB3833:
.LBB3834:
.LBB3835:
.LBB3836:
.LBB3837:
.LBB3838:
.LBB3839:
.LBB3840:
.LBB3841:
.LBB3842:
	.loc 11 365 0
	cmpwi 7,0,0
.LBE3842:
.LBE3841:
.LBE3840:
.LBE3839:
.LBE3838:
.LBE3837:
.LBE3836:
.LBE3835:
.LBE3834:
.LBE3833:
.LBE3832:
	.loc 9 406 0
	slwi 30,30,2
	add 3,9,30
.LVL313:
	stw 3,4(31)
.LVL314:
.LBB3863:
.LBB3861:
.LBB3859:
.LBB3857:
.LBB3855:
.LBB3853:
.LBB3851:
.LBB3849:
.LBB3847:
.LBB3845:
.LBB3843:
	.loc 11 365 0
	bne- 7,.L248
	li 30,0
.LVL315:
.L249:
.LBE3843:
.LBE3845:
.LBE3847:
.LBE3849:
.LBE3851:
.LBE3853:
.LBE3855:
.LBE3857:
.LBE3859:
.LBE3861:
.LBE3863:
.LBB3864:
.LBB3865:
.LBB3866:
	.loc 11 686 0
	cmpw 7,27,29
.LBE3866:
.LBE3865:
.LBE3864:
	.loc 9 410 0
	add 3,3,30
	stw 3,4(31)
.LVL316:
.LBB3869:
.LBB3868:
.LBB3867:
	.loc 11 686 0
	beq- 7,.L239
.LVL317:
.L250:
	.loc 11 687 0
	stw 28,0(29)
	addi 29,29,4
	.loc 11 686 0
	cmpw 7,27,29
	bne+ 7,.L250
.LVL318:
.L239:
.LBE3867:
.LBE3868:
.LBE3869:
.LBE3790:
.LBE3789:
.LBE4085:
	.loc 9 464 0
	lwz 0,44(1)
	lwz 26,16(1)
	mtlr 0
	lwz 27,20(1)
	lwz 28,24(1)
	lwz 29,28(1)
	lwz 30,32(1)
	lwz 31,36(1)
.LVL319:
	addi 1,1,40
	.cfi_remember_state
.LCFI69:
	.cfi_def_cfa_offset 0
	.cfi_restore 31
	.cfi_restore 30
	.cfi_restore 29
	.cfi_restore 28
	.cfi_restore 27
	.cfi_restore 26
	blr
.LVL320:
.L241:
.LCFI70:
	.cfi_restore_state
.LBB4086:
.LBB4081:
.LBB3899:
.LBB3900:
.LBB3901:
.LBB3902:
.LBB3903:
	.loc 5 571 0
	lwz 9,0(3)
.LBE3903:
.LBE3902:
	.loc 5 1241 0
	lis 11,0x3fff
	ori 11,11,65535
.LBB3905:
.LBB3904:
	.loc 5 571 0
	subf 27,9,27
	srawi 0,27,2
.LBE3904:
.LBE3905:
	.loc 5 1241 0
	subf 11,0,11
	cmplw 7,30,11
	bgt- 7,.L270
.LVL321:
	.loc 5 1244 0
	cmplw 7,0,30
	mr 11,0
	blt- 7,.L271
	add 11,11,0
.LVL322:
	.loc 5 1245 0
	cmplw 7,0,11
	ble- 7,.L272
.L253:
.LVL323:
.LBE3901:
.LBE3900:
.LBB3908:
.LBB3909:
	.loc 10 892 0
	subf 27,9,29
.LBE3909:
.LBE3908:
	.loc 9 418 0
	li 26,-4
.LBB3912:
.LBB3910:
	.loc 10 892 0
	srawi 27,27,2
.LVL324:
.L259:
.LBE3910:
.LBE3912:
.LBB3913:
.LBB3914:
.LBB3915:
.LBB3916:
	.loc 12 92 0
	mr 3,26
.LVL325:
	stw 6,8(1)
	bl _Znwj
.LVL326:
	lwz 6,8(1)
	mr 28,3
.L254:
.LVL327:
.LBE3916:
.LBE3915:
.LBE3914:
.LBE3913:
	.loc 9 424 0
	slwi 27,27,2
.LVL328:
.LBB3925:
.LBB3921:
.LBB3919:
.LBB3917:
	.loc 4 281 0
	lwz 0,0(6)
.LVL329:
.LBE3917:
.LBE3919:
.LBE3921:
.LBE3925:
	.loc 9 424 0
	add 27,28,27
.LBB3926:
.LBB3922:
	.loc 9 377 0
	mtctr 30
.LBB3920:
.LBB3918:
	addi 27,27,-4
.LVL330:
.L255:
.LBE3918:
.LBE3920:
.LBE3922:
.LBE3926:
.LBB3927:
.LBB3928:
.LBB3929:
.LBB3930:
.LBB3931:
.LBB3932:
.LBB3933:
.LBB3934:
	.loc 11 745 0
	stwu 0,4(27)
	.loc 11 743 0
	bdnz .L255
.LVL331:
.LBE3934:
.LBE3933:
.LBE3932:
.LBE3931:
.LBE3930:
.LBE3929:
.LBE3928:
.LBE3927:
	.loc 9 429 0
	lwz 4,0(31)
.LVL332:
.LBB3935:
.LBB3936:
.LBB3937:
.LBB3938:
.LBB3939:
.LBB3940:
.LBB3941:
.LBB3942:
.LBB3943:
.LBB3944:
.LBB3945:
	.loc 11 365 0
	li 27,0
	.loc 11 364 0
	subf 0,4,29
.LVL333:
	.loc 11 365 0
	srawi. 0,0,2
.LVL334:
	bne- 0,.L273
.LBE3945:
.LBE3944:
.LBE3943:
.LBE3942:
.LBE3941:
.LBE3940:
.LBE3939:
.LBE3938:
.LBE3937:
.LBE3936:
.LBE3935:
.LBB3986:
.LBB3987:
.LBB3988:
.LBB3989:
.LBB3990:
.LBB3991:
.LBB3992:
.LBB3993:
.LBB3994:
.LBB3995:
.LBB3996:
	.loc 11 364 0
	lwz 0,4(31)
.LVL335:
.LBE3996:
.LBE3995:
.LBE3994:
.LBE3993:
.LBE3992:
.LBE3991:
.LBE3990:
.LBE3989:
.LBE3988:
.LBE3987:
.LBE3986:
.LBB4057:
.LBB3982:
.LBB3978:
.LBB3974:
.LBB3970:
.LBB3966:
.LBB3962:
.LBB3958:
.LBB3954:
.LBB3950:
.LBB3946:
	.loc 11 367 0
	add 27,28,27
.LVL336:
.LBE3946:
.LBE3950:
.LBE3954:
.LBE3958:
.LBE3962:
.LBE3966:
.LBE3970:
.LBE3974:
.LBE3978:
.LBE3982:
.LBE4057:
	.loc 9 434 0
	slwi 30,30,2
.LVL337:
.LBB4058:
.LBB4051:
.LBB4045:
.LBB4039:
.LBB4033:
.LBB4027:
.LBB4021:
.LBB4015:
.LBB4009:
.LBB4003:
.LBB3997:
	.loc 11 364 0
	subf 0,29,0
.LBE3997:
.LBE4003:
.LBE4009:
.LBE4015:
.LBE4021:
.LBE4027:
.LBE4033:
.LBE4039:
.LBE4045:
.LBE4051:
.LBE4058:
	.loc 9 434 0
	add 30,27,30
.LVL338:
.LBB4059:
.LBB4052:
.LBB4046:
.LBB4040:
.LBB4034:
.LBB4028:
.LBB4022:
.LBB4016:
.LBB4010:
.LBB4004:
.LBB3998:
	.loc 11 365 0
	srawi. 0,0,2
.LVL339:
	li 27,0
	bne- 0,.L274
.LVL340:
.L257:
.LBE3998:
.LBE4004:
.LBE4010:
.LBE4016:
.LBE4022:
.LBE4028:
.LBE4034:
.LBE4040:
.LBE4046:
.LBE4052:
.LBE4059:
	.loc 9 456 0
	lwz 3,0(31)
.LBB4060:
.LBB4053:
.LBB4047:
.LBB4041:
.LBB4035:
.LBB4029:
.LBB4023:
.LBB4017:
.LBB4011:
.LBB4005:
.LBB3999:
	.loc 11 367 0
	add 27,30,27
.LVL341:
.LBE3999:
.LBE4005:
.LBE4011:
.LBE4017:
.LBE4023:
.LBE4029:
.LBE4035:
.LBE4041:
.LBE4047:
.LBE4053:
.LBE4060:
.LBB4061:
.LBB4062:
	.loc 5 155 0
	cmpwi 7,3,0
	beq- 7,.L258
.LVL342:
.LBB4063:
.LBB4064:
	.loc 12 98 0
	bl _ZdlPv
.LVL343:
.L258:
.LBE4064:
.LBE4063:
.LBE4062:
.LBE4061:
.LBE3899:
.LBE4081:
.LBE4086:
	.loc 9 464 0
	lwz 0,44(1)
.LBB4087:
.LBB4082:
.LBB4076:
	.loc 9 461 0
	add 26,28,26
	.loc 9 459 0
	stw 28,0(31)
.LBE4076:
.LBE4082:
.LBE4087:
	.loc 9 464 0
	mtlr 0
.LBB4088:
.LBB4083:
.LBB4077:
	.loc 9 460 0
	stw 27,4(31)
	.loc 9 461 0
	stw 26,8(31)
.LBE4077:
.LBE4083:
.LBE4088:
	.loc 9 464 0
	lwz 27,20(1)
	lwz 26,16(1)
	lwz 28,24(1)
.LVL344:
	lwz 29,28(1)
.LVL345:
	lwz 30,32(1)
.LVL346:
	lwz 31,36(1)
.LVL347:
	addi 1,1,40
	.cfi_remember_state
	.cfi_restore 26
	.cfi_restore 27
	.cfi_restore 28
	.cfi_restore 29
	.cfi_restore 30
	.cfi_restore 31
.LCFI71:
	.cfi_def_cfa_offset 0
	blr
.LVL348:
.L271:
.LCFI72:
	.cfi_restore_state
.LBB4089:
.LBB4084:
.LBB4078:
.LBB4065:
.LBB3906:
	.loc 5 1244 0
	mr 11,30
	add 11,11,0
.LVL349:
	.loc 5 1245 0
	cmplw 7,0,11
	bgt- 7,.L253
.L272:
.LVL350:
	lis 0,0x3fff
	ori 0,0,65535
	cmplw 7,11,0
	bgt- 7,.L253
.LVL351:
.LBE3906:
.LBE4065:
.LBB4066:
.LBB3923:
	.loc 5 150 0
	cmpwi 7,11,0
.LBE3923:
.LBE4066:
.LBB4067:
.LBB3911:
	.loc 10 892 0
	subf 9,9,29
	srawi 27,9,2
.LVL352:
.LBE3911:
.LBE4067:
.LBB4068:
.LBB3924:
	.loc 5 150 0
	li 26,0
	li 28,0
	beq+ 7,.L254
	slwi 26,11,2
	b .L259
.LVL353:
.L273:
.LBE3924:
.LBE4068:
.LBB4069:
.LBB3983:
.LBB3979:
.LBB3975:
.LBB3971:
.LBB3967:
.LBB3963:
.LBB3959:
.LBB3955:
.LBB3951:
.LBB3947:
	.loc 11 366 0
	slwi 27,0,2
	mr 3,28
	mr 5,27
.LBE3947:
.LBE3951:
.LBE3955:
.LBE3959:
.LBE3963:
.LBE3967:
.LBE3971:
.LBE3975:
.LBE3979:
.LBE3983:
.LBE4069:
	.loc 9 434 0
	slwi 30,30,2
.LVL354:
.LBB4070:
.LBB3984:
.LBB3980:
.LBB3976:
.LBB3972:
.LBB3968:
.LBB3964:
.LBB3960:
.LBB3956:
.LBB3952:
.LBB3948:
	.loc 11 366 0
	bl memmove
.LVL355:
.LBE3948:
.LBE3952:
.LBE3956:
.LBE3960:
.LBE3964:
.LBE3968:
.LBE3972:
.LBE3976:
.LBE3980:
.LBE3984:
.LBE4070:
.LBB4071:
.LBB4054:
.LBB4048:
.LBB4042:
.LBB4036:
.LBB4030:
.LBB4024:
.LBB4018:
.LBB4012:
.LBB4006:
.LBB4000:
	.loc 11 364 0
	lwz 0,4(31)
.LBE4000:
.LBE4006:
.LBE4012:
.LBE4018:
.LBE4024:
.LBE4030:
.LBE4036:
.LBE4042:
.LBE4048:
.LBE4054:
.LBE4071:
.LBB4072:
.LBB3985:
.LBB3981:
.LBB3977:
.LBB3973:
.LBB3969:
.LBB3965:
.LBB3961:
.LBB3957:
.LBB3953:
.LBB3949:
	.loc 11 367 0
	add 27,28,27
.LVL356:
.LBE3949:
.LBE3953:
.LBE3957:
.LBE3961:
.LBE3965:
.LBE3969:
.LBE3973:
.LBE3977:
.LBE3981:
.LBE3985:
.LBE4072:
.LBB4073:
.LBB4055:
.LBB4049:
.LBB4043:
.LBB4037:
.LBB4031:
.LBB4025:
.LBB4019:
.LBB4013:
.LBB4007:
.LBB4001:
	.loc 11 364 0
	subf 0,29,0
.LBE4001:
.LBE4007:
.LBE4013:
.LBE4019:
.LBE4025:
.LBE4031:
.LBE4037:
.LBE4043:
.LBE4049:
.LBE4055:
.LBE4073:
	.loc 9 434 0
	add 30,27,30
.LVL357:
.LBB4074:
.LBB4056:
.LBB4050:
.LBB4044:
.LBB4038:
.LBB4032:
.LBB4026:
.LBB4020:
.LBB4014:
.LBB4008:
.LBB4002:
	.loc 11 365 0
	srawi. 0,0,2
.LVL358:
	li 27,0
	beq+ 0,.L257
.LVL359:
.L274:
	.loc 11 366 0
	slwi 27,0,2
	mr 3,30
	mr 4,29
	mr 5,27
	bl memmove
	b .L257
.LVL360:
.L248:
.LBE4002:
.LBE4008:
.LBE4014:
.LBE4020:
.LBE4026:
.LBE4032:
.LBE4038:
.LBE4044:
.LBE4050:
.LBE4056:
.LBE4074:
.LBE4078:
.LBB4079:
.LBB3870:
.LBB3862:
.LBB3860:
.LBB3858:
.LBB3856:
.LBB3854:
.LBB3852:
.LBB3850:
.LBB3848:
.LBB3846:
.LBB3844:
	slwi 30,0,2
	mr 4,29
	mr 5,30
.LVL361:
	bl memmove
.LVL362:
	lwz 3,4(31)
	b .L249
.LVL363:
.L269:
.LBE3844:
.LBE3846:
.LBE3848:
.LBE3850:
.LBE3852:
.LBE3854:
.LBE3856:
.LBE3858:
.LBE3860:
.LBE3862:
.LBE3870:
	.loc 9 390 0
	slwi 30,30,2
.LVL364:
.LBB3871:
.LBB3830:
.LBB3829:
.LBB3828:
.LBB3827:
.LBB3826:
.LBB3825:
.LBB3824:
.LBB3823:
.LBB3822:
.LBB3821:
	.loc 9 382 0
	mr 0,27
.LVL365:
	.loc 11 365 0
	srawi. 5,30,2
.LVL366:
	.loc 11 364 0
	subf 26,30,27
	.loc 11 365 0
	beq+ 0,.L243
	.loc 11 366 0
	mr 3,27
	mr 4,26
	slwi 5,5,2
	bl memmove
.LVL367:
	lwz 0,4(31)
.L243:
.LBE3821:
.LBE3822:
.LBE3823:
.LBE3824:
.LBE3825:
.LBE3826:
.LBE3827:
.LBE3828:
.LBE3829:
.LBE3830:
.LBE3871:
.LBB3872:
.LBB3873:
.LBB3874:
.LBB3875:
.LBB3876:
.LBB3877:
	.loc 11 559 0
	subf 26,29,26
.LBE3877:
.LBE3876:
.LBE3875:
.LBE3874:
.LBE3873:
.LBE3872:
	.loc 9 394 0
	add 0,0,30
.LBB3893:
.LBB3890:
.LBB3887:
.LBB3884:
.LBB3881:
.LBB3878:
	.loc 11 560 0
	srawi. 26,26,2
.LBE3878:
.LBE3881:
.LBE3884:
.LBE3887:
.LBE3890:
.LBE3893:
	.loc 9 394 0
	stw 0,4(31)
.LVL368:
.LBB3894:
.LBB3891:
.LBB3888:
.LBB3885:
.LBB3882:
.LBB3879:
	.loc 11 560 0
	bne- 0,.L275
.L244:
.LVL369:
.LBE3879:
.LBE3882:
.LBE3885:
.LBE3888:
.LBE3891:
.LBE3894:
	.loc 9 397 0
	add 30,29,30
.LVL370:
.LBB3895:
.LBB3896:
.LBB3897:
	.loc 11 686 0
	cmpw 7,30,29
	beq- 7,.L239
.LVL371:
.L245:
	.loc 11 687 0
	stw 28,0(29)
	addi 29,29,4
	.loc 11 686 0
	cmpw 7,30,29
	bne+ 7,.L245
	b .L239
.LVL372:
.L275:
.LBE3897:
.LBE3896:
.LBE3895:
.LBB3898:
.LBB3892:
.LBB3889:
.LBB3886:
.LBB3883:
.LBB3880:
	.loc 11 561 0
	slwi 5,26,2
	mr 4,29
	subf 3,5,27
	bl memmove
	b .L244
.LVL373:
.L270:
.LBE3880:
.LBE3883:
.LBE3886:
.LBE3889:
.LBE3892:
.LBE3898:
.LBE4079:
.LBB4080:
.LBB4075:
.LBB3907:
	.loc 5 1242 0
	lis 3,.LC8@ha
	la 3,.LC8@l(3)
	bl _ZSt20__throw_length_errorPKc
.LVL374:
.LVL375:
.LVL376:
.LBE3907:
.LBE4075:
.LBE4080:
.LBE4084:
.LBE4089:
	.cfi_endproc
.LFE1808:
	.size	_ZNSt6vectorIP7GuiTextSaIS1_EE14_M_fill_insertEN9__gnu_cxx17__normal_iteratorIPS1_S3_EEjRKS1_, .-_ZNSt6vectorIP7GuiTextSaIS1_EE14_M_fill_insertEN9__gnu_cxx17__normal_iteratorIPS1_S3_EEjRKS1_
	.section	.text._ZNSt6vectorIP9GuiButtonSaIS1_EE14_M_fill_insertEN9__gnu_cxx17__normal_iteratorIPS1_S3_EEjRKS1_,"axG",@progbits,_ZNSt6vectorIP9GuiButtonSaIS1_EE14_M_fill_insertEN9__gnu_cxx17__normal_iteratorIPS1_S3_EEjRKS1_,comdat
	.align 2
	.weak	_ZNSt6vectorIP9GuiButtonSaIS1_EE14_M_fill_insertEN9__gnu_cxx17__normal_iteratorIPS1_S3_EEjRKS1_
	.type	_ZNSt6vectorIP9GuiButtonSaIS1_EE14_M_fill_insertEN9__gnu_cxx17__normal_iteratorIPS1_S3_EEjRKS1_, @function
_ZNSt6vectorIP9GuiButtonSaIS1_EE14_M_fill_insertEN9__gnu_cxx17__normal_iteratorIPS1_S3_EEjRKS1_:
.LFB1814:
	.loc 9 377 0
	.cfi_startproc
.LVL377:
	stwu 1,-40(1)
.LCFI73:
	.cfi_def_cfa_offset 40
	mflr 0
	stw 30,32(1)
.LBB4196:
	.loc 9 380 0
	mr. 30,5
	.cfi_offset 30, -8
	.cfi_register 65, 0
.LBE4196:
	.loc 9 377 0
	stw 0,44(1)
	stw 29,28(1)
	stw 31,36(1)
	mr 31,3
	.cfi_offset 31, -4
	.cfi_offset 29, -12
	.cfi_offset 65, 4
	stw 26,16(1)
	stw 27,20(1)
	stw 28,24(1)
	.loc 9 377 0
	lwz 29,0(4)
.LBB4493:
	.loc 9 380 0
	beq- 0,.L276
	.cfi_offset 28, -16
	.cfi_offset 27, -20
	.cfi_offset 26, -24
.LBB4197:
	.loc 9 382 0
	lwz 27,4(3)
	lwz 0,8(3)
	subf 0,27,0
	srawi 0,0,2
	cmplw 7,30,0
	bgt- 7,.L278
.LBB4198:
.LBB4199:
.LBB4200:
	.loc 10 892 0
	subf 0,29,27
.LBE4200:
.LBE4199:
	.loc 9 385 0
	lwz 28,0(6)
.LVL378:
.LBB4202:
.LBB4201:
	.loc 10 892 0
	srawi 0,0,2
.LVL379:
.LBE4201:
.LBE4202:
	.loc 9 388 0
	cmplw 7,30,0
	blt- 7,.L306
.LVL380:
.LBB4203:
.LBB4204:
.LBB4205:
.LBB4206:
.LBB4207:
.LBB4208:
.LBB4209:
.LBB4210:
	.loc 11 743 0
	subf. 30,0,30
	.loc 9 382 0
	mr 9,27
	.loc 11 743 0
	beq- 0,.L283
.LBE4210:
.LBE4209:
.LBE4208:
.LBE4207:
.LBE4206:
.LBE4205:
.LBE4204:
.LBE4203:
.LBB4218:
.LBB4219:
.LBB4220:
.LBB4221:
.LBB4222:
.LBB4223:
.LBB4224:
.LBB4225:
.LBB4226:
.LBB4227:
.LBB4228:
	.loc 9 377 0
	mtctr 30
.LBE4228:
.LBE4227:
.LBE4226:
.LBE4225:
.LBE4224:
.LBE4223:
.LBE4222:
.LBE4221:
.LBE4220:
.LBE4219:
.LBE4218:
.LBB4239:
.LBB4217:
.LBB4216:
.LBB4215:
.LBB4214:
.LBB4213:
.LBB4212:
.LBB4211:
	addi 9,27,-4
.LVL381:
.L284:
	.loc 11 745 0
	stwu 28,4(9)
	.loc 11 743 0
	bdnz .L284
	lwz 9,4(31)
.L283:
.LBE4211:
.LBE4212:
.LBE4213:
.LBE4214:
.LBE4215:
.LBE4216:
.LBE4217:
.LBE4239:
.LBB4240:
.LBB4241:
.LBB4242:
.LBB4243:
.LBB4244:
.LBB4245:
.LBB4246:
.LBB4247:
.LBB4248:
.LBB4249:
.LBB4250:
	.loc 11 365 0
	cmpwi 7,0,0
.LBE4250:
.LBE4249:
.LBE4248:
.LBE4247:
.LBE4246:
.LBE4245:
.LBE4244:
.LBE4243:
.LBE4242:
.LBE4241:
.LBE4240:
	.loc 9 406 0
	slwi 30,30,2
	add 3,9,30
.LVL382:
	stw 3,4(31)
.LVL383:
.LBB4271:
.LBB4269:
.LBB4267:
.LBB4265:
.LBB4263:
.LBB4261:
.LBB4259:
.LBB4257:
.LBB4255:
.LBB4253:
.LBB4251:
	.loc 11 365 0
	bne- 7,.L285
	li 30,0
.LVL384:
.L286:
.LBE4251:
.LBE4253:
.LBE4255:
.LBE4257:
.LBE4259:
.LBE4261:
.LBE4263:
.LBE4265:
.LBE4267:
.LBE4269:
.LBE4271:
.LBB4272:
.LBB4273:
.LBB4274:
	.loc 11 686 0
	cmpw 7,27,29
.LBE4274:
.LBE4273:
.LBE4272:
	.loc 9 410 0
	add 3,3,30
	stw 3,4(31)
.LVL385:
.LBB4277:
.LBB4276:
.LBB4275:
	.loc 11 686 0
	beq- 7,.L276
.LVL386:
.L287:
	.loc 11 687 0
	stw 28,0(29)
	addi 29,29,4
	.loc 11 686 0
	cmpw 7,27,29
	bne+ 7,.L287
.LVL387:
.L276:
.LBE4275:
.LBE4276:
.LBE4277:
.LBE4198:
.LBE4197:
.LBE4493:
	.loc 9 464 0
	lwz 0,44(1)
	lwz 26,16(1)
	mtlr 0
	lwz 27,20(1)
	lwz 28,24(1)
	lwz 29,28(1)
	lwz 30,32(1)
	lwz 31,36(1)
.LVL388:
	addi 1,1,40
	.cfi_remember_state
.LCFI74:
	.cfi_def_cfa_offset 0
	.cfi_restore 31
	.cfi_restore 30
	.cfi_restore 29
	.cfi_restore 28
	.cfi_restore 27
	.cfi_restore 26
	blr
.LVL389:
.L278:
.LCFI75:
	.cfi_restore_state
.LBB4494:
.LBB4489:
.LBB4307:
.LBB4308:
.LBB4309:
.LBB4310:
.LBB4311:
	.loc 5 571 0
	lwz 9,0(3)
.LBE4311:
.LBE4310:
	.loc 5 1241 0
	lis 11,0x3fff
	ori 11,11,65535
.LBB4313:
.LBB4312:
	.loc 5 571 0
	subf 27,9,27
	srawi 0,27,2
.LBE4312:
.LBE4313:
	.loc 5 1241 0
	subf 11,0,11
	cmplw 7,30,11
	bgt- 7,.L307
.LVL390:
	.loc 5 1244 0
	cmplw 7,0,30
	mr 11,0
	blt- 7,.L308
	add 11,11,0
.LVL391:
	.loc 5 1245 0
	cmplw 7,0,11
	ble- 7,.L309
.L290:
.LVL392:
.LBE4309:
.LBE4308:
.LBB4316:
.LBB4317:
	.loc 10 892 0
	subf 27,9,29
.LBE4317:
.LBE4316:
	.loc 9 418 0
	li 26,-4
.LBB4320:
.LBB4318:
	.loc 10 892 0
	srawi 27,27,2
.LVL393:
.L296:
.LBE4318:
.LBE4320:
.LBB4321:
.LBB4322:
.LBB4323:
.LBB4324:
	.loc 12 92 0
	mr 3,26
.LVL394:
	stw 6,8(1)
	bl _Znwj
.LVL395:
	lwz 6,8(1)
	mr 28,3
.L291:
.LVL396:
.LBE4324:
.LBE4323:
.LBE4322:
.LBE4321:
	.loc 9 424 0
	slwi 27,27,2
.LVL397:
.LBB4333:
.LBB4329:
.LBB4327:
.LBB4325:
	.loc 4 281 0
	lwz 0,0(6)
.LVL398:
.LBE4325:
.LBE4327:
.LBE4329:
.LBE4333:
	.loc 9 424 0
	add 27,28,27
.LBB4334:
.LBB4330:
	.loc 9 377 0
	mtctr 30
.LBB4328:
.LBB4326:
	addi 27,27,-4
.LVL399:
.L292:
.LBE4326:
.LBE4328:
.LBE4330:
.LBE4334:
.LBB4335:
.LBB4336:
.LBB4337:
.LBB4338:
.LBB4339:
.LBB4340:
.LBB4341:
.LBB4342:
	.loc 11 745 0
	stwu 0,4(27)
	.loc 11 743 0
	bdnz .L292
.LVL400:
.LBE4342:
.LBE4341:
.LBE4340:
.LBE4339:
.LBE4338:
.LBE4337:
.LBE4336:
.LBE4335:
	.loc 9 429 0
	lwz 4,0(31)
.LVL401:
.LBB4343:
.LBB4344:
.LBB4345:
.LBB4346:
.LBB4347:
.LBB4348:
.LBB4349:
.LBB4350:
.LBB4351:
.LBB4352:
.LBB4353:
	.loc 11 365 0
	li 27,0
	.loc 11 364 0
	subf 0,4,29
.LVL402:
	.loc 11 365 0
	srawi. 0,0,2
.LVL403:
	bne- 0,.L310
.LBE4353:
.LBE4352:
.LBE4351:
.LBE4350:
.LBE4349:
.LBE4348:
.LBE4347:
.LBE4346:
.LBE4345:
.LBE4344:
.LBE4343:
.LBB4394:
.LBB4395:
.LBB4396:
.LBB4397:
.LBB4398:
.LBB4399:
.LBB4400:
.LBB4401:
.LBB4402:
.LBB4403:
.LBB4404:
	.loc 11 364 0
	lwz 0,4(31)
.LVL404:
.LBE4404:
.LBE4403:
.LBE4402:
.LBE4401:
.LBE4400:
.LBE4399:
.LBE4398:
.LBE4397:
.LBE4396:
.LBE4395:
.LBE4394:
.LBB4465:
.LBB4390:
.LBB4386:
.LBB4382:
.LBB4378:
.LBB4374:
.LBB4370:
.LBB4366:
.LBB4362:
.LBB4358:
.LBB4354:
	.loc 11 367 0
	add 27,28,27
.LVL405:
.LBE4354:
.LBE4358:
.LBE4362:
.LBE4366:
.LBE4370:
.LBE4374:
.LBE4378:
.LBE4382:
.LBE4386:
.LBE4390:
.LBE4465:
	.loc 9 434 0
	slwi 30,30,2
.LVL406:
.LBB4466:
.LBB4459:
.LBB4453:
.LBB4447:
.LBB4441:
.LBB4435:
.LBB4429:
.LBB4423:
.LBB4417:
.LBB4411:
.LBB4405:
	.loc 11 364 0
	subf 0,29,0
.LBE4405:
.LBE4411:
.LBE4417:
.LBE4423:
.LBE4429:
.LBE4435:
.LBE4441:
.LBE4447:
.LBE4453:
.LBE4459:
.LBE4466:
	.loc 9 434 0
	add 30,27,30
.LVL407:
.LBB4467:
.LBB4460:
.LBB4454:
.LBB4448:
.LBB4442:
.LBB4436:
.LBB4430:
.LBB4424:
.LBB4418:
.LBB4412:
.LBB4406:
	.loc 11 365 0
	srawi. 0,0,2
.LVL408:
	li 27,0
	bne- 0,.L311
.LVL409:
.L294:
.LBE4406:
.LBE4412:
.LBE4418:
.LBE4424:
.LBE4430:
.LBE4436:
.LBE4442:
.LBE4448:
.LBE4454:
.LBE4460:
.LBE4467:
	.loc 9 456 0
	lwz 3,0(31)
.LBB4468:
.LBB4461:
.LBB4455:
.LBB4449:
.LBB4443:
.LBB4437:
.LBB4431:
.LBB4425:
.LBB4419:
.LBB4413:
.LBB4407:
	.loc 11 367 0
	add 27,30,27
.LVL410:
.LBE4407:
.LBE4413:
.LBE4419:
.LBE4425:
.LBE4431:
.LBE4437:
.LBE4443:
.LBE4449:
.LBE4455:
.LBE4461:
.LBE4468:
.LBB4469:
.LBB4470:
	.loc 5 155 0
	cmpwi 7,3,0
	beq- 7,.L295
.LVL411:
.LBB4471:
.LBB4472:
	.loc 12 98 0
	bl _ZdlPv
.LVL412:
.L295:
.LBE4472:
.LBE4471:
.LBE4470:
.LBE4469:
.LBE4307:
.LBE4489:
.LBE4494:
	.loc 9 464 0
	lwz 0,44(1)
.LBB4495:
.LBB4490:
.LBB4484:
	.loc 9 461 0
	add 26,28,26
	.loc 9 459 0
	stw 28,0(31)
.LBE4484:
.LBE4490:
.LBE4495:
	.loc 9 464 0
	mtlr 0
.LBB4496:
.LBB4491:
.LBB4485:
	.loc 9 460 0
	stw 27,4(31)
	.loc 9 461 0
	stw 26,8(31)
.LBE4485:
.LBE4491:
.LBE4496:
	.loc 9 464 0
	lwz 27,20(1)
	lwz 26,16(1)
	lwz 28,24(1)
.LVL413:
	lwz 29,28(1)
.LVL414:
	lwz 30,32(1)
.LVL415:
	lwz 31,36(1)
.LVL416:
	addi 1,1,40
	.cfi_remember_state
	.cfi_restore 26
	.cfi_restore 27
	.cfi_restore 28
	.cfi_restore 29
	.cfi_restore 30
	.cfi_restore 31
.LCFI76:
	.cfi_def_cfa_offset 0
	blr
.LVL417:
.L308:
.LCFI77:
	.cfi_restore_state
.LBB4497:
.LBB4492:
.LBB4486:
.LBB4473:
.LBB4314:
	.loc 5 1244 0
	mr 11,30
	add 11,11,0
.LVL418:
	.loc 5 1245 0
	cmplw 7,0,11
	bgt- 7,.L290
.L309:
.LVL419:
	lis 0,0x3fff
	ori 0,0,65535
	cmplw 7,11,0
	bgt- 7,.L290
.LVL420:
.LBE4314:
.LBE4473:
.LBB4474:
.LBB4331:
	.loc 5 150 0
	cmpwi 7,11,0
.LBE4331:
.LBE4474:
.LBB4475:
.LBB4319:
	.loc 10 892 0
	subf 9,9,29
	srawi 27,9,2
.LVL421:
.LBE4319:
.LBE4475:
.LBB4476:
.LBB4332:
	.loc 5 150 0
	li 26,0
	li 28,0
	beq+ 7,.L291
	slwi 26,11,2
	b .L296
.LVL422:
.L310:
.LBE4332:
.LBE4476:
.LBB4477:
.LBB4391:
.LBB4387:
.LBB4383:
.LBB4379:
.LBB4375:
.LBB4371:
.LBB4367:
.LBB4363:
.LBB4359:
.LBB4355:
	.loc 11 366 0
	slwi 27,0,2
	mr 3,28
	mr 5,27
.LBE4355:
.LBE4359:
.LBE4363:
.LBE4367:
.LBE4371:
.LBE4375:
.LBE4379:
.LBE4383:
.LBE4387:
.LBE4391:
.LBE4477:
	.loc 9 434 0
	slwi 30,30,2
.LVL423:
.LBB4478:
.LBB4392:
.LBB4388:
.LBB4384:
.LBB4380:
.LBB4376:
.LBB4372:
.LBB4368:
.LBB4364:
.LBB4360:
.LBB4356:
	.loc 11 366 0
	bl memmove
.LVL424:
.LBE4356:
.LBE4360:
.LBE4364:
.LBE4368:
.LBE4372:
.LBE4376:
.LBE4380:
.LBE4384:
.LBE4388:
.LBE4392:
.LBE4478:
.LBB4479:
.LBB4462:
.LBB4456:
.LBB4450:
.LBB4444:
.LBB4438:
.LBB4432:
.LBB4426:
.LBB4420:
.LBB4414:
.LBB4408:
	.loc 11 364 0
	lwz 0,4(31)
.LBE4408:
.LBE4414:
.LBE4420:
.LBE4426:
.LBE4432:
.LBE4438:
.LBE4444:
.LBE4450:
.LBE4456:
.LBE4462:
.LBE4479:
.LBB4480:
.LBB4393:
.LBB4389:
.LBB4385:
.LBB4381:
.LBB4377:
.LBB4373:
.LBB4369:
.LBB4365:
.LBB4361:
.LBB4357:
	.loc 11 367 0
	add 27,28,27
.LVL425:
.LBE4357:
.LBE4361:
.LBE4365:
.LBE4369:
.LBE4373:
.LBE4377:
.LBE4381:
.LBE4385:
.LBE4389:
.LBE4393:
.LBE4480:
.LBB4481:
.LBB4463:
.LBB4457:
.LBB4451:
.LBB4445:
.LBB4439:
.LBB4433:
.LBB4427:
.LBB4421:
.LBB4415:
.LBB4409:
	.loc 11 364 0
	subf 0,29,0
.LBE4409:
.LBE4415:
.LBE4421:
.LBE4427:
.LBE4433:
.LBE4439:
.LBE4445:
.LBE4451:
.LBE4457:
.LBE4463:
.LBE4481:
	.loc 9 434 0
	add 30,27,30
.LVL426:
.LBB4482:
.LBB4464:
.LBB4458:
.LBB4452:
.LBB4446:
.LBB4440:
.LBB4434:
.LBB4428:
.LBB4422:
.LBB4416:
.LBB4410:
	.loc 11 365 0
	srawi. 0,0,2
.LVL427:
	li 27,0
	beq+ 0,.L294
.LVL428:
.L311:
	.loc 11 366 0
	slwi 27,0,2
	mr 3,30
	mr 4,29
	mr 5,27
	bl memmove
	b .L294
.LVL429:
.L285:
.LBE4410:
.LBE4416:
.LBE4422:
.LBE4428:
.LBE4434:
.LBE4440:
.LBE4446:
.LBE4452:
.LBE4458:
.LBE4464:
.LBE4482:
.LBE4486:
.LBB4487:
.LBB4278:
.LBB4270:
.LBB4268:
.LBB4266:
.LBB4264:
.LBB4262:
.LBB4260:
.LBB4258:
.LBB4256:
.LBB4254:
.LBB4252:
	slwi 30,0,2
	mr 4,29
	mr 5,30
.LVL430:
	bl memmove
.LVL431:
	lwz 3,4(31)
	b .L286
.LVL432:
.L306:
.LBE4252:
.LBE4254:
.LBE4256:
.LBE4258:
.LBE4260:
.LBE4262:
.LBE4264:
.LBE4266:
.LBE4268:
.LBE4270:
.LBE4278:
	.loc 9 390 0
	slwi 30,30,2
.LVL433:
.LBB4279:
.LBB4238:
.LBB4237:
.LBB4236:
.LBB4235:
.LBB4234:
.LBB4233:
.LBB4232:
.LBB4231:
.LBB4230:
.LBB4229:
	.loc 9 382 0
	mr 0,27
.LVL434:
	.loc 11 365 0
	srawi. 5,30,2
.LVL435:
	.loc 11 364 0
	subf 26,30,27
	.loc 11 365 0
	beq+ 0,.L280
	.loc 11 366 0
	mr 3,27
	mr 4,26
	slwi 5,5,2
	bl memmove
.LVL436:
	lwz 0,4(31)
.L280:
.LBE4229:
.LBE4230:
.LBE4231:
.LBE4232:
.LBE4233:
.LBE4234:
.LBE4235:
.LBE4236:
.LBE4237:
.LBE4238:
.LBE4279:
.LBB4280:
.LBB4281:
.LBB4282:
.LBB4283:
.LBB4284:
.LBB4285:
	.loc 11 559 0
	subf 26,29,26
.LBE4285:
.LBE4284:
.LBE4283:
.LBE4282:
.LBE4281:
.LBE4280:
	.loc 9 394 0
	add 0,0,30
.LBB4301:
.LBB4298:
.LBB4295:
.LBB4292:
.LBB4289:
.LBB4286:
	.loc 11 560 0
	srawi. 26,26,2
.LBE4286:
.LBE4289:
.LBE4292:
.LBE4295:
.LBE4298:
.LBE4301:
	.loc 9 394 0
	stw 0,4(31)
.LVL437:
.LBB4302:
.LBB4299:
.LBB4296:
.LBB4293:
.LBB4290:
.LBB4287:
	.loc 11 560 0
	bne- 0,.L312
.L281:
.LVL438:
.LBE4287:
.LBE4290:
.LBE4293:
.LBE4296:
.LBE4299:
.LBE4302:
	.loc 9 397 0
	add 30,29,30
.LVL439:
.LBB4303:
.LBB4304:
.LBB4305:
	.loc 11 686 0
	cmpw 7,30,29
	beq- 7,.L276
.LVL440:
.L282:
	.loc 11 687 0
	stw 28,0(29)
	addi 29,29,4
	.loc 11 686 0
	cmpw 7,30,29
	bne+ 7,.L282
	b .L276
.LVL441:
.L312:
.LBE4305:
.LBE4304:
.LBE4303:
.LBB4306:
.LBB4300:
.LBB4297:
.LBB4294:
.LBB4291:
.LBB4288:
	.loc 11 561 0
	slwi 5,26,2
	mr 4,29
	subf 3,5,27
	bl memmove
	b .L281
.LVL442:
.L307:
.LBE4288:
.LBE4291:
.LBE4294:
.LBE4297:
.LBE4300:
.LBE4306:
.LBE4487:
.LBB4488:
.LBB4483:
.LBB4315:
	.loc 5 1242 0
	lis 3,.LC8@ha
	la 3,.LC8@l(3)
	bl _ZSt20__throw_length_errorPKc
.LVL443:
.LVL444:
.LVL445:
.LBE4315:
.LBE4483:
.LBE4488:
.LBE4492:
.LBE4497:
	.cfi_endproc
.LFE1814:
	.size	_ZNSt6vectorIP9GuiButtonSaIS1_EE14_M_fill_insertEN9__gnu_cxx17__normal_iteratorIPS1_S3_EEjRKS1_, .-_ZNSt6vectorIP9GuiButtonSaIS1_EE14_M_fill_insertEN9__gnu_cxx17__normal_iteratorIPS1_S3_EEjRKS1_
	.section	.text._ZNSt8_Rb_treeIPN7sigslot12_signal_baseINS0_15single_threadedEEES4_St9_IdentityIS4_ESt4lessIS4_ESaIS4_EE16_M_insert_uniqueERKS4_,"axG",@progbits,_ZNSt8_Rb_treeIPN7sigslot12_signal_baseINS0_15single_threadedEEES4_St9_IdentityIS4_ESt4lessIS4_ESaIS4_EE16_M_insert_uniqueERKS4_,comdat
	.align 2
	.weak	_ZNSt8_Rb_treeIPN7sigslot12_signal_baseINS0_15single_threadedEEES4_St9_IdentityIS4_ESt4lessIS4_ESaIS4_EE16_M_insert_uniqueERKS4_
	.type	_ZNSt8_Rb_treeIPN7sigslot12_signal_baseINS0_15single_threadedEEES4_St9_IdentityIS4_ESt4lessIS4_ESaIS4_EE16_M_insert_uniqueERKS4_, @function
_ZNSt8_Rb_treeIPN7sigslot12_signal_baseINS0_15single_threadedEEES4_St9_IdentityIS4_ESt4lessIS4_ESaIS4_EE16_M_insert_uniqueERKS4_:
.LFB1903:
	.file 13 "d:\\devkitpro\\devkitppc\\bin\\../lib/gcc/powerpc-eabi/4.6.3/../../../../powerpc-eabi/include/c++/4.6.3/bits/stl_tree.h"
	.loc 13 1264 0
	.cfi_startproc
.LVL446:
	mflr 0
	stwu 1,-32(1)
.LCFI78:
	.cfi_def_cfa_offset 32
	.cfi_register 65, 0
	stw 28,16(1)
	stw 0,36(1)
	stw 27,12(1)
	mr 27,4
	.cfi_offset 27, -20
	.cfi_offset 65, 4
	.cfi_offset 28, -16
.LBB4537:
.LBB4538:
.LBB4539:
	.loc 4 281 0
	lwz 28,8(3)
.LVL447:
.LBE4539:
.LBE4538:
.LBE4537:
	.loc 13 1264 0
	stw 29,20(1)
.LBB4564:
.LBB4556:
.LBB4552:
	.loc 13 1272 0
	addi 29,3,4
	.cfi_offset 29, -12
.LVL448:
.LBE4552:
.LBE4556:
	.loc 13 1274 0
	cmpwi 7,28,0
.LBE4564:
	.loc 13 1264 0
	stw 31,28(1)
	stw 26,8(1)
	mr 31,3
	.cfi_offset 26, -24
	.cfi_offset 31, -4
	stw 30,24(1)
.LBB4565:
	.loc 13 1274 0
	beq- 7,.L328
	.cfi_offset 30, -8
.LVL449:
	lwz 10,0(4)
	b .L317
.LVL450:
.L336:
	.loc 4 281 0 discriminator 1
	lwz 0,8(28)
.LVL451:
	.loc 13 1274 0 discriminator 1
	cmpwi 7,0,0
	beq- 7,.L335
.LVL452:
.L329:
	.loc 13 1274 0 is_stmt 0
	mr 28,0
.LVL453:
.L317:
	.loc 4 281 0 is_stmt 1
	lwz 9,16(28)
	li 11,1
	.loc 13 1278 0
	cmplw 7,9,10
	bgt- 7,.L336
.LVL454:
	.loc 4 281 0 discriminator 2
	lwz 0,12(28)
	li 11,0
.LVL455:
	.loc 13 1274 0 discriminator 2
	cmpwi 7,0,0
	bne+ 7,.L329
.LVL456:
.L335:
	.loc 13 1281 0
	cmpwi 7,11,0
	mr 3,28
.LVL457:
	bne- 7,.L314
.LVL458:
	.loc 13 1289 0
	cmplw 7,10,9
	bgt- 7,.L337
.LVL459:
.L324:
	.loc 13 1292 0
	li 0,0
	li 4,0
	rlwimi 4,0,24,0,7
.LBE4565:
	.loc 13 1293 0
	lwz 0,36(1)
	lwz 26,8(1)
	mtlr 0
	lwz 27,12(1)
.LVL460:
	lwz 28,16(1)
	lwz 29,20(1)
	lwz 30,24(1)
	lwz 31,28(1)
.LVL461:
	addi 1,1,32
	.cfi_remember_state
.LCFI79:
	.cfi_def_cfa_offset 0
	.cfi_restore 31
	.cfi_restore 30
	.cfi_restore 29
	.cfi_restore 28
	.cfi_restore 27
	.cfi_restore 26
	blr
.LVL462:
.L328:
.LCFI80:
	.cfi_restore_state
.LBB4566:
	.loc 13 1272 0
	mr 28,29
.LVL463:
.L314:
	.loc 13 1283 0
	lwz 0,12(31)
	cmpw 7,28,0
	beq- 7,.L338
.LVL464:
.LBB4557:
.LBB4558:
	.loc 13 203 0
	mr 3,28
	bl _ZSt18_Rb_tree_decrementPSt18_Rb_tree_node_base
.LVL465:
	lwz 10,0(27)
	lwz 9,16(3)
.LVL466:
.LBE4558:
.LBE4557:
	.loc 13 1289 0
	cmplw 7,10,9
	ble+ 7,.L324
.LVL467:
.L337:
.LBB4559:
.LBB4553:
	.loc 13 969 0
	cmpw 7,28,29
	li 26,1
	beq- 7,.L325
.LVL468:
	.loc 13 1264 0
	lwz 26,16(28)
	subfc 26,26,10
	subfe 26,26,26
	neg 26,26
	b .L325
.LVL469:
.L338:
.LBE4553:
.LBE4559:
.LBB4560:
.LBB4561:
	.loc 13 969 0
	cmpw 7,28,29
	li 26,1
	beq- 7,.L325
.LVL470:
	.loc 13 1264 0
	lwz 26,0(27)
	lwz 0,16(28)
.LVL471:
	subfc 26,0,26
	subfe 26,26,26
	neg 26,26
.LVL472:
.L325:
.LBE4561:
.LBE4560:
.LBB4562:
.LBB4554:
.LBB4540:
.LBB4541:
.LBB4542:
.LBB4543:
.LBB4544:
	.loc 12 92 0
	li 3,20
	bl _Znwj
.LBE4544:
.LBE4543:
.LBE4542:
.LBB4547:
.LBB4548:
	.loc 12 108 0
	cmpwi 7,3,-16
.LBE4548:
.LBE4547:
.LBB4550:
.LBB4546:
.LBB4545:
	.loc 12 92 0
	mr 30,3
.LVL473:
.LBE4545:
.LBE4546:
.LBE4550:
.LBB4551:
.LBB4549:
	.loc 12 108 0
	beq- 7,.L327
	lwz 0,0(27)
	stw 0,16(3)
.L327:
.LVL474:
.LBE4549:
.LBE4551:
.LBE4541:
.LBE4540:
	.loc 13 973 0
	mr 3,26
.LVL475:
	mr 4,30
	mr 5,28
	mr 6,29
	bl _ZSt29_Rb_tree_insert_and_rebalancebPSt18_Rb_tree_node_baseS0_RS_
	.loc 13 976 0
	lwz 9,20(31)
	.loc 13 1291 0
	li 4,0
	mr 3,30
	.loc 13 976 0
	addi 0,9,1
.LBE4554:
.LBE4562:
.LBE4566:
	.loc 13 1293 0
	lwz 26,8(1)
.LVL476:
.LBB4567:
.LBB4563:
.LBB4555:
	.loc 13 976 0
	stw 0,20(31)
.LVL477:
	.loc 13 1291 0
	li 0,1
	rlwimi 4,0,24,0,7
.LBE4555:
.LBE4563:
.LBE4567:
	.loc 13 1293 0
	lwz 0,36(1)
	lwz 27,12(1)
.LVL478:
	mtlr 0
	lwz 28,16(1)
	lwz 29,20(1)
	lwz 30,24(1)
.LVL479:
	lwz 31,28(1)
.LVL480:
	addi 1,1,32
	.cfi_restore 26
	.cfi_restore 27
	.cfi_restore 28
	.cfi_restore 29
	.cfi_restore 30
	.cfi_restore 31
.LCFI81:
	.cfi_def_cfa_offset 0
	blr
	.cfi_endproc
.LFE1903:
	.size	_ZNSt8_Rb_treeIPN7sigslot12_signal_baseINS0_15single_threadedEEES4_St9_IdentityIS4_ESt4lessIS4_ESaIS4_EE16_M_insert_uniqueERKS4_, .-_ZNSt8_Rb_treeIPN7sigslot12_signal_baseINS0_15single_threadedEEES4_St9_IdentityIS4_ESt4lessIS4_ESaIS4_EE16_M_insert_uniqueERKS4_
	.section	.text._ZN7sigslot7signal3IP10GuiElementiiNS_15single_threadedEE7connectI15ThemeDownloaderEEvPT_MS7_FvS2_iiE,"axG",@progbits,_ZN7sigslot7signal3IP10GuiElementiiNS_15single_threadedEE7connectI15ThemeDownloaderEEvPT_MS7_FvS2_iiE,comdat
	.align 2
	.weak	_ZN7sigslot7signal3IP10GuiElementiiNS_15single_threadedEE7connectI15ThemeDownloaderEEvPT_MS7_FvS2_iiE
	.type	_ZN7sigslot7signal3IP10GuiElementiiNS_15single_threadedEE7connectI15ThemeDownloaderEEvPT_MS7_FvS2_iiE, @function
_ZN7sigslot7signal3IP10GuiElementiiNS_15single_threadedEE7connectI15ThemeDownloaderEEvPT_MS7_FvS2_iiE:
.LFB1670:
	.loc 1 2308 0
	.cfi_startproc
	.cfi_personality 0,__gxx_personality_v0
	.cfi_lsda 0,.LLSDA1670
.LVL481:
	mflr 0
	stwu 1,-48(1)
.LCFI82:
	.cfi_def_cfa_offset 48
	.cfi_register 65, 0
	stw 27,28(1)
	stw 0,52(1)
	stw 30,40(1)
	mr 30,4
	.cfi_offset 30, -8
	.cfi_offset 65, 4
	.cfi_offset 27, -20
.LBB4611:
.LBB4612:
.LBB4613:
	.loc 1 338 0
	lwz 9,0(3)
.LBE4613:
.LBE4612:
.LBE4611:
	.loc 1 2308 0
	stw 31,44(1)
	mr 31,3
	.cfi_offset 31, -4
.LVL482:
.LBB4666:
.LBB4617:
.LBB4614:
	.loc 1 338 0
	lwz 0,8(9)
.LBE4614:
.LBE4617:
.LBE4666:
	.loc 1 2308 0
	stw 28,32(1)
	stw 29,36(1)
.LBB4667:
.LBB4618:
.LBB4615:
	.loc 1 338 0
	mtctr 0
.LBE4615:
.LBE4618:
.LBE4667:
	.loc 1 2308 0
	lwz 27,0(5)
	lwz 28,4(5)
	.cfi_offset 29, -12
	.cfi_offset 28, -16
.LEHB21:
.LBB4668:
.LBB4619:
.LBB4616:
	.loc 1 338 0
	bctrl
.LEHE21:
.LVL483:
.LBE4616:
.LBE4619:
	.loc 1 2314 0
	li 3,16
.LEHB22:
	bl _Znwj
.LBB4620:
.LBB4621:
	.loc 1 1778 0
	lis 9,_ZTVN7sigslot12_connection3I15ThemeDownloaderP10GuiElementiiNS_15single_threadedEEE+8@ha
	.loc 1 1779 0
	stw 30,4(3)
	.loc 1 1778 0
	la 0,_ZTVN7sigslot12_connection3I15ThemeDownloaderP10GuiElementiiNS_15single_threadedEEE+8@l(9)
	.loc 1 1780 0
	stw 27,8(3)
	.loc 1 1778 0
	stw 0,0(3)
.LBE4621:
.LBE4620:
	.loc 1 2314 0
	mr 29,3
.LVL484:
.LBB4623:
.LBB4622:
	.loc 1 1780 0
	stw 28,12(3)
.LVL485:
.LBE4622:
.LBE4623:
.LBB4624:
.LBB4625:
.LBB4626:
.LBB4627:
.LBB4628:
.LBB4629:
.LBB4630:
.LBB4631:
	.loc 12 92 0
	li 3,12
.LVL486:
	bl _Znwj
.LVL487:
.LBE4631:
.LBE4630:
.LBE4629:
.LBB4632:
.LBB4633:
	.loc 12 108 0 discriminator 1
	cmpwi 7,3,-8
	beq- 7,.L341
	.loc 12 108 0 is_stmt 0
	stw 29,8(3)
.LVL488:
.L341:
.LBE4633:
.LBE4632:
.LBE4628:
.LBE4627:
	.file 14 "d:\\devkitpro\\devkitppc\\bin\\../lib/gcc/powerpc-eabi/4.6.3/../../../../powerpc-eabi/include/c++/4.6.3/bits/stl_list.h"
	.loc 14 1516 0 is_stmt 1
	addi 4,31,4
.LBE4626:
.LBE4625:
.LBE4624:
.LBB4638:
.LBB4639:
	.loc 1 503 0
	addi 29,30,176
.LVL489:
.LBE4639:
.LBE4638:
.LBB4655:
.LBB4636:
.LBB4634:
	.loc 14 1516 0
	bl _ZNSt8__detail15_List_node_base7_M_hookEPS0_
.LVL490:
.LBE4634:
.LBE4636:
.LBE4655:
.LBB4656:
.LBB4652:
.LBB4640:
.LBB4641:
	.loc 1 338 0
	lwz 9,176(30)
.LBE4641:
.LBE4640:
.LBE4652:
.LBE4656:
.LBB4657:
.LBB4637:
.LBB4635:
	.loc 14 1516 0
	stw 31,8(1)
.LVL491:
.LBE4635:
.LBE4637:
.LBE4657:
.LBB4658:
.LBB4653:
.LBB4643:
.LBB4642:
	.loc 1 338 0
	mr 3,29
	lwz 0,8(9)
	mtctr 0
	bctrl
.LEHE22:
.LVL492:
.LBE4642:
.LBE4643:
.LBB4644:
.LBB4645:
	.file 15 "d:\\devkitpro\\devkitppc\\bin\\../lib/gcc/powerpc-eabi/4.6.3/../../../../powerpc-eabi/include/c++/4.6.3/bits/stl_set.h"
	.loc 15 410 0
	addi 3,30,180
	addi 4,1,8
.LEHB23:
	bl _ZNSt8_Rb_treeIPN7sigslot12_signal_baseINS0_15single_threadedEEES4_St9_IdentityIS4_ESt4lessIS4_ESaIS4_EE16_M_insert_uniqueERKS4_
.LEHE23:
.LVL493:
.LBE4645:
.LBE4644:
.LBB4646:
.LBB4647:
.LBB4648:
	.loc 1 343 0
	lwz 9,176(30)
	mr 3,29
	lwz 0,12(9)
	mtctr 0
.LEHB24:
	bctrl
.LEHE24:
.LVL494:
.LBE4648:
.LBE4647:
.LBE4646:
.LBE4653:
.LBE4658:
.LBB4659:
.LBB4660:
.LBB4661:
	lwz 9,0(31)
	mr 3,31
	lwz 0,12(9)
	mtctr 0
.LEHB25:
	bctrl
.LEHE25:
.LBE4661:
.LBE4660:
.LBE4659:
.LBE4668:
	.loc 1 2317 0
	lwz 0,52(1)
	lwz 27,28(1)
.LVL495:
	mtlr 0
	lwz 28,32(1)
.LVL496:
	lwz 29,36(1)
.LVL497:
	lwz 30,40(1)
.LVL498:
	lwz 31,44(1)
.LVL499:
	addi 1,1,48
	.cfi_remember_state
.LCFI83:
	.cfi_def_cfa_offset 0
	.cfi_restore 31
	.cfi_restore 30
	.cfi_restore 29
	.cfi_restore 28
	.cfi_restore 27
	blr
.LVL500:
.L348:
.LCFI84:
	.cfi_restore_state
	mr 30,3
.LVL501:
.L345:
.LBB4669:
.LBB4662:
.LBB4663:
.LBB4664:
	.loc 1 343 0
	lwz 9,0(31)
	mr 3,31
	lwz 0,12(9)
	mtctr 0
	bctrl
	mr 3,30
.LEHB26:
	bl _Unwind_Resume
.LEHE26:
.LVL502:
.L349:
.LBE4664:
.LBE4663:
.LBE4662:
.LBB4665:
.LBB4654:
.LBB4649:
.LBB4650:
.LBB4651:
	lwz 9,176(30)
	mr 30,3
.LVL503:
	mr 3,29
	lwz 0,12(9)
	mtctr 0
	bctrl
	b .L345
.LBE4651:
.LBE4650:
.LBE4649:
.LBE4654:
.LBE4665:
.LBE4669:
	.cfi_endproc
.LFE1670:
	.section	.gcc_except_table
.LLSDA1670:
	.byte	0xff
	.byte	0xff
	.byte	0x1
	.uleb128 .LLSDACSE1670-.LLSDACSB1670
.LLSDACSB1670:
	.uleb128 .LEHB21-.LFB1670
	.uleb128 .LEHE21-.LEHB21
	.uleb128 0
	.uleb128 0
	.uleb128 .LEHB22-.LFB1670
	.uleb128 .LEHE22-.LEHB22
	.uleb128 .L348-.LFB1670
	.uleb128 0
	.uleb128 .LEHB23-.LFB1670
	.uleb128 .LEHE23-.LEHB23
	.uleb128 .L349-.LFB1670
	.uleb128 0
	.uleb128 .LEHB24-.LFB1670
	.uleb128 .LEHE24-.LEHB24
	.uleb128 .L348-.LFB1670
	.uleb128 0
	.uleb128 .LEHB25-.LFB1670
	.uleb128 .LEHE25-.LEHB25
	.uleb128 0
	.uleb128 0
	.uleb128 .LEHB26-.LFB1670
	.uleb128 .LEHE26-.LEHB26
	.uleb128 0
	.uleb128 0
.LLSDACSE1670:
	.section	.text._ZN7sigslot7signal3IP10GuiElementiiNS_15single_threadedEE7connectI15ThemeDownloaderEEvPT_MS7_FvS2_iiE,"axG",@progbits,_ZN7sigslot7signal3IP10GuiElementiiNS_15single_threadedEE7connectI15ThemeDownloaderEEvPT_MS7_FvS2_iiE,comdat
	.size	_ZN7sigslot7signal3IP10GuiElementiiNS_15single_threadedEE7connectI15ThemeDownloaderEEvPT_MS7_FvS2_iiE, .-_ZN7sigslot7signal3IP10GuiElementiiNS_15single_threadedEE7connectI15ThemeDownloaderEEvPT_MS7_FvS2_iiE
	.section	.text._ZN7sigslot7signal3IP9GuiButtoniRK6_POINTNS_15single_threadedEE7connectI15ThemeDownloaderEEvPT_MSA_FvS2_iS5_E,"axG",@progbits,_ZN7sigslot7signal3IP9GuiButtoniRK6_POINTNS_15single_threadedEE7connectI15ThemeDownloaderEEvPT_MSA_FvS2_iS5_E,comdat
	.align 2
	.weak	_ZN7sigslot7signal3IP9GuiButtoniRK6_POINTNS_15single_threadedEE7connectI15ThemeDownloaderEEvPT_MSA_FvS2_iS5_E
	.type	_ZN7sigslot7signal3IP9GuiButtoniRK6_POINTNS_15single_threadedEE7connectI15ThemeDownloaderEEvPT_MSA_FvS2_iS5_E, @function
_ZN7sigslot7signal3IP9GuiButtoniRK6_POINTNS_15single_threadedEE7connectI15ThemeDownloaderEEvPT_MSA_FvS2_iS5_E:
.LFB1669:
	.loc 1 2308 0
	.cfi_startproc
	.cfi_personality 0,__gxx_personality_v0
	.cfi_lsda 0,.LLSDA1669
.LVL504:
	mflr 0
	stwu 1,-48(1)
.LCFI85:
	.cfi_def_cfa_offset 48
	.cfi_register 65, 0
	stw 27,28(1)
	stw 0,52(1)
	stw 30,40(1)
	mr 30,4
	.cfi_offset 30, -8
	.cfi_offset 65, 4
	.cfi_offset 27, -20
.LBB4712:
.LBB4713:
.LBB4714:
	.loc 1 338 0
	lwz 9,0(3)
.LBE4714:
.LBE4713:
.LBE4712:
	.loc 1 2308 0
	stw 31,44(1)
	mr 31,3
	.cfi_offset 31, -4
.LVL505:
.LBB4767:
.LBB4718:
.LBB4715:
	.loc 1 338 0
	lwz 0,8(9)
.LBE4715:
.LBE4718:
.LBE4767:
	.loc 1 2308 0
	stw 28,32(1)
	stw 29,36(1)
.LBB4768:
.LBB4719:
.LBB4716:
	.loc 1 338 0
	mtctr 0
.LBE4716:
.LBE4719:
.LBE4768:
	.loc 1 2308 0
	lwz 27,0(5)
	lwz 28,4(5)
	.cfi_offset 29, -12
	.cfi_offset 28, -16
.LEHB27:
.LBB4769:
.LBB4720:
.LBB4717:
	.loc 1 338 0
	bctrl
.LEHE27:
.LVL506:
.LBE4717:
.LBE4720:
	.loc 1 2314 0
	li 3,16
.LEHB28:
	bl _Znwj
.LBB4721:
.LBB4722:
	.loc 1 1778 0
	lis 9,_ZTVN7sigslot12_connection3I15ThemeDownloaderP9GuiButtoniRK6_POINTNS_15single_threadedEEE+8@ha
	.loc 1 1779 0
	stw 30,4(3)
	.loc 1 1778 0
	la 0,_ZTVN7sigslot12_connection3I15ThemeDownloaderP9GuiButtoniRK6_POINTNS_15single_threadedEEE+8@l(9)
	.loc 1 1780 0
	stw 27,8(3)
	.loc 1 1778 0
	stw 0,0(3)
.LBE4722:
.LBE4721:
	.loc 1 2314 0
	mr 29,3
.LVL507:
.LBB4724:
.LBB4723:
	.loc 1 1780 0
	stw 28,12(3)
.LVL508:
.LBE4723:
.LBE4724:
.LBB4725:
.LBB4726:
.LBB4727:
.LBB4728:
.LBB4729:
.LBB4730:
.LBB4731:
.LBB4732:
	.loc 12 92 0
	li 3,12
.LVL509:
	bl _Znwj
.LVL510:
.LBE4732:
.LBE4731:
.LBE4730:
.LBB4733:
.LBB4734:
	.loc 12 108 0 discriminator 1
	cmpwi 7,3,-8
	beq- 7,.L353
	.loc 12 108 0 is_stmt 0
	stw 29,8(3)
.LVL511:
.L353:
.LBE4734:
.LBE4733:
.LBE4729:
.LBE4728:
	.loc 14 1516 0 is_stmt 1
	addi 4,31,4
.LBE4727:
.LBE4726:
.LBE4725:
.LBB4739:
.LBB4740:
	.loc 1 503 0
	addi 29,30,176
.LVL512:
.LBE4740:
.LBE4739:
.LBB4756:
.LBB4737:
.LBB4735:
	.loc 14 1516 0
	bl _ZNSt8__detail15_List_node_base7_M_hookEPS0_
.LVL513:
.LBE4735:
.LBE4737:
.LBE4756:
.LBB4757:
.LBB4753:
.LBB4741:
.LBB4742:
	.loc 1 338 0
	lwz 9,176(30)
.LBE4742:
.LBE4741:
.LBE4753:
.LBE4757:
.LBB4758:
.LBB4738:
.LBB4736:
	.loc 14 1516 0
	stw 31,8(1)
.LVL514:
.LBE4736:
.LBE4738:
.LBE4758:
.LBB4759:
.LBB4754:
.LBB4744:
.LBB4743:
	.loc 1 338 0
	mr 3,29
	lwz 0,8(9)
	mtctr 0
	bctrl
.LEHE28:
.LVL515:
.LBE4743:
.LBE4744:
.LBB4745:
.LBB4746:
	.loc 15 410 0
	addi 3,30,180
	addi 4,1,8
.LEHB29:
	bl _ZNSt8_Rb_treeIPN7sigslot12_signal_baseINS0_15single_threadedEEES4_St9_IdentityIS4_ESt4lessIS4_ESaIS4_EE16_M_insert_uniqueERKS4_
.LEHE29:
.LVL516:
.LBE4746:
.LBE4745:
.LBB4747:
.LBB4748:
.LBB4749:
	.loc 1 343 0
	lwz 9,176(30)
	mr 3,29
	lwz 0,12(9)
	mtctr 0
.LEHB30:
	bctrl
.LEHE30:
.LVL517:
.LBE4749:
.LBE4748:
.LBE4747:
.LBE4754:
.LBE4759:
.LBB4760:
.LBB4761:
.LBB4762:
	lwz 9,0(31)
	mr 3,31
	lwz 0,12(9)
	mtctr 0
.LEHB31:
	bctrl
.LEHE31:
.LBE4762:
.LBE4761:
.LBE4760:
.LBE4769:
	.loc 1 2317 0
	lwz 0,52(1)
	lwz 27,28(1)
.LVL518:
	mtlr 0
	lwz 28,32(1)
.LVL519:
	lwz 29,36(1)
.LVL520:
	lwz 30,40(1)
.LVL521:
	lwz 31,44(1)
.LVL522:
	addi 1,1,48
	.cfi_remember_state
.LCFI86:
	.cfi_def_cfa_offset 0
	.cfi_restore 31
	.cfi_restore 30
	.cfi_restore 29
	.cfi_restore 28
	.cfi_restore 27
	blr
.LVL523:
.L360:
.LCFI87:
	.cfi_restore_state
	mr 30,3
.LVL524:
.L357:
.LBB4770:
.LBB4763:
.LBB4764:
.LBB4765:
	.loc 1 343 0
	lwz 9,0(31)
	mr 3,31
	lwz 0,12(9)
	mtctr 0
	bctrl
	mr 3,30
.LEHB32:
	bl _Unwind_Resume
.LEHE32:
.LVL525:
.L361:
.LBE4765:
.LBE4764:
.LBE4763:
.LBB4766:
.LBB4755:
.LBB4750:
.LBB4751:
.LBB4752:
	lwz 9,176(30)
	mr 30,3
.LVL526:
	mr 3,29
	lwz 0,12(9)
	mtctr 0
	bctrl
	b .L357
.LBE4752:
.LBE4751:
.LBE4750:
.LBE4755:
.LBE4766:
.LBE4770:
	.cfi_endproc
.LFE1669:
	.section	.gcc_except_table
.LLSDA1669:
	.byte	0xff
	.byte	0xff
	.byte	0x1
	.uleb128 .LLSDACSE1669-.LLSDACSB1669
.LLSDACSB1669:
	.uleb128 .LEHB27-.LFB1669
	.uleb128 .LEHE27-.LEHB27
	.uleb128 0
	.uleb128 0
	.uleb128 .LEHB28-.LFB1669
	.uleb128 .LEHE28-.LEHB28
	.uleb128 .L360-.LFB1669
	.uleb128 0
	.uleb128 .LEHB29-.LFB1669
	.uleb128 .LEHE29-.LEHB29
	.uleb128 .L361-.LFB1669
	.uleb128 0
	.uleb128 .LEHB30-.LFB1669
	.uleb128 .LEHE30-.LEHB30
	.uleb128 .L360-.LFB1669
	.uleb128 0
	.uleb128 .LEHB31-.LFB1669
	.uleb128 .LEHE31-.LEHB31
	.uleb128 0
	.uleb128 0
	.uleb128 .LEHB32-.LFB1669
	.uleb128 .LEHE32-.LEHB32
	.uleb128 0
	.uleb128 0
.LLSDACSE1669:
	.section	.text._ZN7sigslot7signal3IP9GuiButtoniRK6_POINTNS_15single_threadedEE7connectI15ThemeDownloaderEEvPT_MSA_FvS2_iS5_E,"axG",@progbits,_ZN7sigslot7signal3IP9GuiButtoniRK6_POINTNS_15single_threadedEE7connectI15ThemeDownloaderEEvPT_MSA_FvS2_iS5_E,comdat
	.size	_ZN7sigslot7signal3IP9GuiButtoniRK6_POINTNS_15single_threadedEE7connectI15ThemeDownloaderEEvPT_MSA_FvS2_iS5_E, .-_ZN7sigslot7signal3IP9GuiButtoniRK6_POINTNS_15single_threadedEE7connectI15ThemeDownloaderEEvPT_MSA_FvS2_iS5_E
	.section	".text"
	.align 2
	.globl _ZN15ThemeDownloader13SetMainButtonEiPKcP12GuiImageDataS3_
	.type	_ZN15ThemeDownloader13SetMainButtonEiPKcP12GuiImageDataS3_, @function
_ZN15ThemeDownloader13SetMainButtonEiPKcP12GuiImageDataS3_:
.LFB1612:
	.loc 4 109 0
	.cfi_startproc
	.cfi_personality 0,__gxx_personality_v0
	.cfi_lsda 0,.LLSDA1612
.LVL527:
	mflr 0
	stwu 1,-80(1)
.LCFI88:
	.cfi_def_cfa_offset 80
	.cfi_register 65, 0
	stw 25,52(1)
	mr 25,7
	.cfi_offset 25, -28
	stw 0,84(1)
	stw 26,56(1)
	mr 26,5
	.cfi_offset 26, -24
	.cfi_offset 65, 4
.LBB4893:
.LBB4894:
	.loc 5 571 0
	lwz 9,360(3)
	lwz 0,356(3)
.LBE4894:
.LBE4893:
	.loc 4 109 0
	stw 28,64(1)
	mr 28,6
	.cfi_offset 28, -16
.LBB4897:
.LBB4895:
	.loc 5 571 0
	subf 0,0,9
.LBE4895:
.LBE4897:
	.loc 4 109 0
	stw 29,68(1)
.LBB4898:
.LBB4896:
	.loc 5 571 0
	srawi 0,0,2
.LBE4896:
.LBE4898:
	.loc 4 109 0
	stw 31,76(1)
	.loc 4 110 0
	cmpw 7,4,0
	.loc 4 109 0
	stw 27,60(1)
	stw 30,72(1)
	.loc 4 109 0
	mr 31,3
	.cfi_offset 30, -8
	.cfi_offset 27, -20
	.cfi_offset 31, -4
	.cfi_offset 29, -12
	mr 29,4
	.loc 4 110 0
	bge- 7,.L364
.LVL528:
	.loc 4 112 0
	lwz 9,320(3)
.LBB4899:
.LBB4900:
	.loc 5 696 0
	slwi 30,4,2
.LBE4900:
.LBE4899:
	.loc 4 112 0
	lwzx 3,9,30
.LVL529:
	cmpwi 7,3,0
	beq- 7,.L365
	.loc 4 112 0 is_stmt 0 discriminator 1
	lwz 9,0(3)
	lwz 0,4(9)
	mtctr 0
.LEHB33:
	bctrl
.LVL530:
.L365:
	.loc 4 113 0 is_stmt 1
	lwz 9,332(31)
	lwzx 3,9,30
	cmpwi 7,3,0
	beq- 7,.L366
	.loc 4 113 0 is_stmt 0 discriminator 1
	lwz 9,0(3)
	lwz 0,4(9)
	mtctr 0
	bctrl
.L366:
.LVL531:
	.loc 4 114 0 is_stmt 1
	lwz 9,344(31)
	lwzx 3,9,30
	cmpwi 7,3,0
	beq- 7,.L367
	.loc 4 114 0 is_stmt 0 discriminator 1
	lwz 9,0(3)
	lwz 0,4(9)
	mtctr 0
	bctrl
.L367:
.LVL532:
	.loc 4 115 0 is_stmt 1
	lwz 9,356(31)
	lwzx 3,9,30
	cmpwi 7,3,0
	beq- 7,.L368
	.loc 4 115 0 is_stmt 0 discriminator 1
	lwz 9,0(3)
	lwz 0,4(9)
	mtctr 0
	bctrl
.LVL533:
.L368:
	.loc 4 125 0 is_stmt 1
	li 3,196
	bl _Znwj
.LEHE33:
	mr 4,28
	mr 27,3
.LEHB34:
	bl _ZN8GuiImageC1EP12GuiImageData
.LEHE34:
.LVL534:
	.loc 4 125 0 is_stmt 0 discriminator 1
	lwz 9,320(31)
.LBB4901:
.LBB4902:
	.loc 5 696 0 is_stmt 1 discriminator 1
	slwi 30,29,2
.LBE4902:
.LBE4901:
	.loc 4 126 0 discriminator 1
	li 3,196
	.loc 4 125 0 discriminator 1
	stwx 27,9,30
.LEHB35:
	.loc 4 126 0 discriminator 1
	bl _Znwj
.LEHE35:
	mr 4,25
	mr 27,3
.LEHB36:
	bl _ZN8GuiImageC1EP12GuiImageData
.LEHE36:
.LVL535:
	lwz 9,332(31)
	.loc 4 131 0 discriminator 1
	li 25,0
.LVL536:
	.loc 4 126 0 discriminator 1
	stwx 27,9,30
.LVL537:
	.loc 4 127 0 discriminator 1
	lis 9,.LC9@ha
	lfs 1,.LC9@l(9)
	lwz 9,332(31)
	lwzx 3,9,30
	lwz 9,0(3)
	lwz 0,104(9)
	mtctr 0
.LEHB37:
	bctrl
.LVL538:
	.loc 4 128 0 discriminator 1
	lwz 9,332(31)
	li 4,18
	lwzx 3,9,30
	lwz 9,0(3)
	lwz 0,180(9)
	mtctr 0
	bctrl
.LVL539:
	.loc 4 129 0 discriminator 1
	lwz 9,332(31)
	li 4,0
	li 5,-45
	lwzx 3,9,30
	lwz 9,0(3)
	lwz 0,168(9)
	mtctr 0
	bctrl
	.loc 4 131 0 discriminator 1
	li 0,0
	rlwimi 25,0,24,0,7
	li 3,208
	rlwimi 25,0,16,8,15
	rlwimi 25,0,8,16,23
	li 0,-1
	rlwimi 25,0,0,24,31
	bl _Znwj
.LEHE37:
	mr 6,1
	mr 4,26
	stwu 25,36(6)
	li 5,18
	mr 27,3
.LEHB38:
	bl _ZN7GuiTextC1EPKci9_gx_color
.LEHE38:
.LVL540:
	lwz 9,344(31)
	.loc 4 132 0 discriminator 1
	li 4,18
	.loc 4 131 0 discriminator 1
	stwx 27,9,30
.LVL541:
	.loc 4 132 0 discriminator 1
	lwz 9,344(31)
	lwzx 3,9,30
	lwz 9,0(3)
	lwz 0,180(9)
	mtctr 0
.LEHB39:
	bctrl
.LVL542:
	.loc 4 133 0 discriminator 1
	lwz 9,344(31)
	li 4,0
	li 5,10
	lwzx 3,9,30
	lwz 9,0(3)
	lwz 0,168(9)
	mtctr 0
	bctrl
.LVL543:
	.loc 4 134 0 discriminator 1
	lwz 9,344(31)
	lwz 4,12(28)
	li 5,1
	lwzx 3,9,30
	addi 4,4,-10
	bl _ZN7GuiText11SetMaxWidthEii
	.loc 4 281 0 discriminator 1
	lwz 26,12(28)
.LVL544:
	lwz 27,8(28)
	.loc 4 136 0 discriminator 1
	li 3,312
	bl _Znwj
.LEHE39:
	mr 4,26
	mr 5,27
	mr 28,3
.LVL545:
.LEHB40:
	bl _ZN9GuiButtonC1Eii
.LEHE40:
.LVL546:
	lwz 9,356(31)
	.loc 4 137 0 discriminator 1
	li 4,17
	.loc 4 136 0 discriminator 1
	stwx 28,9,30
.LVL547:
	.loc 4 146 0 discriminator 1
	li 28,0
	.loc 4 137 0 discriminator 1
	lwz 9,356(31)
	lwzx 3,9,30
	lwz 9,0(3)
	lwz 0,180(9)
	mtctr 0
.LEHB41:
	bctrl
.LVL548:
	.loc 4 138 0 discriminator 1
	lwz 11,356(31)
	lwz 9,320(31)
	lwzx 3,11,30
	lwzx 4,9,30
	bl _ZN9GuiButton8SetImageEP8GuiImage
.LVL549:
	.loc 4 139 0 discriminator 1
	lwz 11,356(31)
	lwz 9,320(31)
	lwzx 3,11,30
	lwzx 4,9,30
	bl _ZN9GuiButton12SetImageOverEP8GuiImage
.LVL550:
	.loc 4 140 0 discriminator 1
	lwz 9,356(31)
	lwz 4,280(31)
	lwzx 3,9,30
	bl _ZN9GuiButton12SetSoundOverEP8GuiSound
.LVL551:
	.loc 4 141 0 discriminator 1
	lwz 9,356(31)
	lwz 4,276(31)
	lwzx 3,9,30
	bl _ZN9GuiButton13SetSoundClickEP8GuiSound
.LVL552:
	.loc 4 142 0 discriminator 1
	lwz 11,356(31)
	lwz 9,332(31)
	lwzx 3,11,30
	lwzx 4,9,30
	bl _ZN9GuiButton7SetIconEP8GuiImage
.LVL553:
	.loc 4 143 0 discriminator 1
	lwz 11,356(31)
	lwz 9,344(31)
	li 5,0
	lwzx 3,11,30
	lwzx 4,9,30
	bl _ZN9GuiButton8SetLabelEP7GuiTexti
.LVL554:
	.loc 4 144 0 discriminator 1
	lwz 9,356(31)
	lwz 4,244(31)
	lwzx 3,9,30
	bl _ZN9GuiButton10SetTriggerEP10GuiTrigger
.LVL555:
	.loc 4 145 0 discriminator 1
	lwz 9,356(31)
	lwzx 3,9,30
	lwz 9,0(3)
	lwz 0,144(9)
	mtctr 0
	bctrl
.LVL556:
	.loc 4 146 0 discriminator 1
	lwz 9,356(31)
	mr 4,31
	addi 5,1,40
	lwzx 3,9,30
	lis 9,_ZN15ThemeDownloader13OnButtonClickEP9GuiButtoniRK6_POINT@ha
	la 0,_ZN15ThemeDownloader13OnButtonClickEP9GuiButtoniRK6_POINT@l(9)
	stw 28,44(1)
	addi 3,3,144
	stw 0,40(1)
	bl _ZN7sigslot7signal3IP9GuiButtoniRK6_POINTNS_15single_threadedEE7connectI15ThemeDownloaderEEvPT_MSA_FvS2_iS5_E
.LVL557:
	.loc 4 147 0 discriminator 1
	lwz 9,356(31)
	mr 4,31
	addi 5,1,40
	lwzx 3,9,30
	lis 9,_ZN15ThemeDownloader13OnStateChangeEP10GuiElementii@ha
	la 0,_ZN15ThemeDownloader13OnStateChangeEP10GuiElementii@l(9)
	stw 28,44(1)
	addi 3,3,16
	stw 0,40(1)
	bl _ZN7sigslot7signal3IP10GuiElementiiNS_15single_threadedEE7connectI15ThemeDownloaderEEvPT_MS7_FvS2_iiE
	.loc 4 149 0 discriminator 1
	srawi 0,29,2
	addze 0,0
	slwi 0,0,2
	subf 29,0,29
.LVL558:
	cmpwi 7,29,1
	beq- 7,.L378
	ble- 7,.L393
	cmpwi 7,29,2
	beq- 7,.L379
	cmpwi 7,29,3
	beq- 7,.L394
.L363:
	.loc 4 166 0
	lwz 0,84(1)
	lwz 25,52(1)
	mtlr 0
	lwz 26,56(1)
	lwz 27,60(1)
	lwz 28,64(1)
	lwz 29,68(1)
	lwz 30,72(1)
	lwz 31,76(1)
.LVL559:
	addi 1,1,80
	.cfi_remember_state
.LCFI89:
	.cfi_def_cfa_offset 0
	.cfi_restore 31
	.cfi_restore 30
	.cfi_restore 29
	.cfi_restore 28
	.cfi_restore 27
	.cfi_restore 26
	.cfi_restore 25
	blr
.LVL560:
.L379:
.LCFI90:
	.cfi_restore_state
	.loc 4 158 0
	lwz 9,356(31)
	li 4,90
.LVL561:
.L390:
	.loc 4 161 0
	lwzx 3,9,30
	li 5,230
	lwz 9,0(3)
	lwz 0,168(9)
	mtctr 0
	bctrl
	.loc 4 166 0
	lwz 0,84(1)
	lwz 25,52(1)
	mtlr 0
	lwz 26,56(1)
	lwz 27,60(1)
	lwz 28,64(1)
	lwz 29,68(1)
	lwz 30,72(1)
	lwz 31,76(1)
.LVL562:
	addi 1,1,80
	.cfi_remember_state
	.cfi_restore 25
	.cfi_restore 26
	.cfi_restore 27
	.cfi_restore 28
	.cfi_restore 29
	.cfi_restore 30
	.cfi_restore 31
.LCFI91:
	.cfi_def_cfa_offset 0
	blr
.LVL563:
.L364:
.LCFI92:
	.cfi_restore_state
.LBB4903:
	.loc 4 281 0
	lwz 0,320(3)
.LBE4903:
	.loc 4 119 0
	addi 30,4,1
.LVL564:
.LBB4918:
	.loc 4 281 0
	lwz 9,324(3)
.LBE4918:
	.loc 4 119 0
	li 11,0
	stw 11,8(1)
.LVL565:
.LBB4919:
.LBB4904:
.LBB4905:
.LBB4906:
	.loc 5 571 0
	subf 5,0,9
.LVL566:
	srawi 5,5,2
.LBE4906:
.LBE4905:
	.loc 5 631 0
	cmplw 7,30,5
	bgt- 7,.L395
	.loc 5 633 0
	bge- 7,.L370
.LVL567:
	.loc 5 634 0
	slwi 9,30,2
	add 0,0,9
.LBB4907:
.LBB4908:
	.loc 5 1256 0
	stw 0,324(3)
.LVL568:
.L370:
.LBE4908:
.LBE4907:
.LBE4904:
.LBE4919:
.LBB4920:
	.loc 4 281 0
	lwz 0,332(31)
.LBE4920:
.LBB4935:
.LBB4915:
.LBB4911:
.LBB4909:
	.loc 5 1256 0
	li 11,0
.LBE4909:
.LBE4911:
.LBE4915:
.LBE4935:
.LBB4936:
	.loc 4 281 0
	lwz 9,336(31)
.LBE4936:
.LBB4937:
.LBB4916:
.LBB4912:
.LBB4910:
	.loc 5 1256 0
	stw 11,8(1)
.LVL569:
.LBE4910:
.LBE4912:
.LBE4916:
.LBE4937:
.LBB4938:
.LBB4921:
.LBB4922:
.LBB4923:
	.loc 5 571 0
	subf 5,0,9
	srawi 5,5,2
.LBE4923:
.LBE4922:
	.loc 5 631 0
	cmplw 7,30,5
	bgt- 7,.L396
	.loc 5 633 0
	bge- 7,.L372
.LVL570:
	.loc 5 634 0
	slwi 9,30,2
	add 0,0,9
.LBB4924:
.LBB4925:
	.loc 5 1256 0
	stw 0,336(31)
.LVL571:
.L372:
.LBE4925:
.LBE4924:
.LBE4921:
.LBE4938:
.LBB4939:
	.loc 4 281 0
	lwz 0,344(31)
.LBE4939:
.LBB4955:
.LBB4932:
.LBB4928:
.LBB4926:
	.loc 5 1256 0
	li 11,0
.LBE4926:
.LBE4928:
.LBE4932:
.LBE4955:
.LBB4956:
	.loc 4 281 0
	lwz 9,348(31)
.LBE4956:
.LBB4957:
.LBB4933:
.LBB4929:
.LBB4927:
	.loc 5 1256 0
	stw 11,8(1)
.LVL572:
.LBE4927:
.LBE4929:
.LBE4933:
.LBE4957:
.LBB4958:
.LBB4940:
.LBB4941:
.LBB4942:
	.loc 5 571 0
	subf 5,0,9
	srawi 5,5,2
.LBE4942:
.LBE4941:
	.loc 5 631 0
	cmplw 7,30,5
	bgt- 7,.L397
	.loc 5 633 0
	blt- 7,.L398
.L374:
.LVL573:
.LBE4940:
.LBE4958:
.LBB4959:
	.loc 4 281 0
	lwz 0,356(31)
.LBE4959:
.LBB4968:
.LBB4951:
.LBB4943:
.LBB4944:
	.loc 5 1256 0
	li 11,0
.LBE4944:
.LBE4943:
.LBE4951:
.LBE4968:
.LBB4969:
	.loc 4 281 0
	lwz 9,360(31)
.LBE4969:
.LBB4970:
.LBB4952:
.LBB4947:
.LBB4945:
	.loc 5 1256 0
	stw 11,8(1)
.LVL574:
.LBE4945:
.LBE4947:
.LBE4952:
.LBE4970:
.LBB4971:
.LBB4960:
.LBB4961:
.LBB4962:
	.loc 5 571 0
	subf 5,0,9
	srawi 5,5,2
.LBE4962:
.LBE4961:
	.loc 5 631 0
	cmplw 7,30,5
	bgt- 7,.L399
	.loc 5 633 0
	bge- 7,.L368
.LVL575:
	.loc 5 634 0
	slwi 30,30,2
.LVL576:
	add 0,0,30
.LBB4963:
.LBB4964:
	.loc 5 1256 0
	stw 0,360(31)
	b .L368
.LVL577:
.L394:
.LBE4964:
.LBE4963:
.LBE4960:
.LBE4971:
	.loc 4 161 0
	lwz 9,356(31)
	li 4,340
	b .L390
.LVL578:
.L378:
	.loc 4 155 0
	lwz 9,356(31)
	li 4,340
.LVL579:
.L391:
	lwzx 3,9,30
	li 5,75
	lwz 9,0(3)
	lwz 0,168(9)
	mtctr 0
	bctrl
	.loc 4 166 0
	lwz 0,84(1)
	lwz 25,52(1)
	mtlr 0
	lwz 26,56(1)
	lwz 27,60(1)
	lwz 28,64(1)
	lwz 29,68(1)
	lwz 30,72(1)
	lwz 31,76(1)
.LVL580:
	addi 1,1,80
	.cfi_remember_state
	.cfi_restore 25
	.cfi_restore 26
	.cfi_restore 27
	.cfi_restore 28
	.cfi_restore 29
	.cfi_restore 30
	.cfi_restore 31
.LCFI93:
	.cfi_def_cfa_offset 0
	blr
.LVL581:
.L398:
.LCFI94:
	.cfi_restore_state
.LBB4972:
.LBB4953:
	.loc 5 634 0
	slwi 9,30,2
	add 0,0,9
.LVL582:
.LBB4948:
.LBB4946:
	.loc 5 1256 0
	stw 0,348(31)
	b .L374
.LVL583:
.L393:
.LBE4946:
.LBE4948:
.LBE4953:
.LBE4972:
	.loc 4 149 0 discriminator 1
	cmpwi 7,29,0
	bne- 7,.L363
	.loc 4 152 0
	lwz 9,356(31)
	li 4,90
	b .L391
.LVL584:
.L397:
.LBB4973:
.LBB4954:
.LBB4949:
.LBB4950:
	.loc 5 944 0
	mr 4,1
	addi 3,31,344
	stwu 9,28(4)
	subf 5,5,30
.LVL585:
	addi 6,1,8
	bl _ZNSt6vectorIP7GuiTextSaIS1_EE14_M_fill_insertEN9__gnu_cxx17__normal_iteratorIPS1_S3_EEjRKS1_
.LVL586:
	b .L374
.LVL587:
.L399:
.LBE4950:
.LBE4949:
.LBE4954:
.LBE4973:
.LBB4974:
.LBB4967:
.LBB4965:
.LBB4966:
	mr 4,1
	addi 3,31,356
	stwu 9,32(4)
	subf 5,5,30
.LVL588:
	addi 6,1,8
.LVL589:
	bl _ZNSt6vectorIP9GuiButtonSaIS1_EE14_M_fill_insertEN9__gnu_cxx17__normal_iteratorIPS1_S3_EEjRKS1_
.LVL590:
	b .L368
.LVL591:
.L396:
.LBE4966:
.LBE4965:
.LBE4967:
.LBE4974:
.LBB4975:
.LBB4934:
.LBB4930:
.LBB4931:
	mr 4,1
	addi 3,31,332
	stwu 9,24(4)
	subf 5,5,30
.LVL592:
	addi 6,1,8
.LVL593:
	bl _ZNSt6vectorIP8GuiImageSaIS1_EE14_M_fill_insertEN9__gnu_cxx17__normal_iteratorIPS1_S3_EEjRKS1_
.LVL594:
	b .L372
.LVL595:
.L395:
.LBE4931:
.LBE4930:
.LBE4934:
.LBE4975:
.LBB4976:
.LBB4917:
.LBB4913:
.LBB4914:
	mr 4,1
	addi 3,3,320
	stwu 9,24(4)
	subf 5,5,30
.LVL596:
	addi 6,1,8
.LVL597:
	bl _ZNSt6vectorIP8GuiImageSaIS1_EE14_M_fill_insertEN9__gnu_cxx17__normal_iteratorIPS1_S3_EEjRKS1_
.LVL598:
	b .L370
.LVL599:
.L389:
	mr 31,3
.LVL600:
.LBE4914:
.LBE4913:
.LBE4917:
.LBE4976:
	.loc 4 136 0
	mr 3,28
	bl _ZdlPv
	mr 3,31
	bl _Unwind_Resume
.LVL601:
.L388:
.L392:
	mr 31,3
.LVL602:
	.loc 4 126 0
	mr 3,27
	bl _ZdlPv
	mr 3,31
	bl _Unwind_Resume
.LEHE41:
.LVL603:
.L387:
	b .L392
.LVL604:
.L386:
	b .L392
	.cfi_endproc
.LFE1612:
	.section	.gcc_except_table
.LLSDA1612:
	.byte	0xff
	.byte	0xff
	.byte	0x1
	.uleb128 .LLSDACSE1612-.LLSDACSB1612
.LLSDACSB1612:
	.uleb128 .LEHB33-.LFB1612
	.uleb128 .LEHE33-.LEHB33
	.uleb128 0
	.uleb128 0
	.uleb128 .LEHB34-.LFB1612
	.uleb128 .LEHE34-.LEHB34
	.uleb128 .L386-.LFB1612
	.uleb128 0
	.uleb128 .LEHB35-.LFB1612
	.uleb128 .LEHE35-.LEHB35
	.uleb128 0
	.uleb128 0
	.uleb128 .LEHB36-.LFB1612
	.uleb128 .LEHE36-.LEHB36
	.uleb128 .L387-.LFB1612
	.uleb128 0
	.uleb128 .LEHB37-.LFB1612
	.uleb128 .LEHE37-.LEHB37
	.uleb128 0
	.uleb128 0
	.uleb128 .LEHB38-.LFB1612
	.uleb128 .LEHE38-.LEHB38
	.uleb128 .L388-.LFB1612
	.uleb128 0
	.uleb128 .LEHB39-.LFB1612
	.uleb128 .LEHE39-.LEHB39
	.uleb128 0
	.uleb128 0
	.uleb128 .LEHB40-.LFB1612
	.uleb128 .LEHE40-.LEHB40
	.uleb128 .L389-.LFB1612
	.uleb128 0
	.uleb128 .LEHB41-.LFB1612
	.uleb128 .LEHE41-.LEHB41
	.uleb128 0
	.uleb128 0
.LLSDACSE1612:
	.section	".text"
	.size	_ZN15ThemeDownloader13SetMainButtonEiPKcP12GuiImageDataS3_, .-_ZN15ThemeDownloader13SetMainButtonEiPKcP12GuiImageDataS3_
	.align 2
	.globl _ZN15ThemeDownloader16SetupMainButtonsEv
	.type	_ZN15ThemeDownloader16SetupMainButtonsEv, @function
_ZN15ThemeDownloader16SetupMainButtonsEv:
.LFB1611:
	.loc 4 80 0
	.cfi_startproc
	.cfi_personality 0,__gxx_personality_v0
	.cfi_lsda 0,.LLSDA1611
.LVL605:
	mflr 0
	stwu 1,-40(1)
.LCFI95:
	.cfi_def_cfa_offset 40
	.cfi_register 65, 0
	stw 30,32(1)
	mr 30,3
	.cfi_offset 30, -8
	stw 0,44(1)
	stw 29,28(1)
	stw 31,36(1)
.LEHB42:
.LBB5023:
	.loc 4 81 0
	.cfi_offset 31, -4
	.cfi_offset 29, -12
	.cfi_offset 65, 4
	bl _Z17NetworkInitPromptv
.LVL606:
	cmpwi 7,3,0
	bne- 7,.L431
.L400:
.LBE5023:
	.loc 4 106 0
	lwz 0,44(1)
	lwz 29,28(1)
	mtlr 0
	lwz 30,32(1)
.LVL607:
	lwz 31,36(1)
	addi 1,1,40
	.cfi_remember_state
.LCFI96:
	.cfi_def_cfa_offset 0
	.cfi_restore 31
	.cfi_restore 30
	.cfi_restore 29
	blr
.LVL608:
.L431:
.LCFI97:
	.cfi_restore_state
.LBB5069:
.LBB5024:
.LBB5025:
	.loc 8 26 0
	lis 29,_ZN14ProgressWindow8instanceE@ha
	lwz 31,_ZN14ProgressWindow8instanceE@l(29)
	cmpwi 7,31,0
	beq- 7,.L432
.L402:
.LBE5025:
.LBE5024:
	.loc 4 84 0
	lis 3,.LC10@ha
	la 3,.LC10@l(3)
	bl gettext
	lis 5,.LC11@ha
	mr 4,3
	la 5,.LC11@l(5)
	mr 3,31
	bl _ZN14ProgressWindow13StartThrobberEPKcS1_
.LVL609:
	.loc 4 86 0
	lis 9,.LC12@ha
	lwz 3,392(30)
	lfs 1,.LC12@l(9)
	bl _Z15CheckConnectionPKcf
	cmpwi 7,3,0
	beq- 7,.L433
.LVL610:
	.loc 4 93 0
	lwz 4,392(30)
	addi 3,1,12
	addi 5,1,9
	bl _ZNSsC1EPKcRKSaIcE
.LEHE42:
	li 3,12
.LEHB43:
	bl _Znwj
.LEHE43:
	addi 4,1,12
	mr 31,3
.LEHB44:
	bl _ZN10Theme_ListC1ESs
.LEHE44:
.LBB5027:
.LBB5028:
.LBB5029:
.LBB5030:
.LBB5031:
.LBB5032:
	.loc 6 288 0 discriminator 1
	lwz 9,12(1)
.LBE5032:
.LBE5031:
.LBE5030:
.LBB5033:
.LBB5034:
	.loc 6 235 0 discriminator 1
	lis 11,_ZNSs4_Rep20_S_empty_rep_storageE@ha
	la 0,_ZNSs4_Rep20_S_empty_rep_storageE@l(11)
.LBE5034:
.LBE5033:
.LBE5029:
.LBE5028:
.LBE5027:
	.loc 4 93 0 discriminator 1
	stw 31,368(30)
.LVL611:
.LBB5049:
.LBB5047:
.LBB5045:
	.loc 6 534 0 discriminator 1
	addi 3,9,-12
.LVL612:
.LBB5043:
.LBB5041:
	.loc 6 235 0 discriminator 1
	cmpw 7,3,0
	bne- 7,.L434
.LVL613:
.L415:
.LBE5041:
.LBE5043:
.LBE5045:
.LBE5047:
.LBE5049:
.LBB5050:
.LBB5051:
.LBB5052:
	.loc 5 571 0 discriminator 1
	lwz 0,0(31)
	lwz 9,4(31)
	subf 9,0,9
	lis 0,0xcccc
	srawi 9,9,2
	ori 0,0,52429
.LBE5052:
.LBE5051:
.LBE5050:
	.loc 4 95 0 discriminator 1
	mullw. 11,9,0
	beq- 0,.L416
.LVL614:
.LBB5053:
	.loc 4 102 0 discriminator 1
	ble- 0,.L400
	.loc 4 102 0 is_stmt 0
	li 29,0
.LVL615:
.L417:
	.loc 4 104 0 is_stmt 1 discriminator 2
	mr 4,29
	mr 3,31
.LEHB45:
	bl _ZNK10Theme_List13GetThemeTitleEi
	lwz 6,396(30)
	mr 5,3
	mr 4,29
	mr 3,30
	li 7,0
	bl _ZN15ThemeDownloader13SetMainButtonEiPKcP12GuiImageDataS3_
	.loc 4 102 0 discriminator 2
	lwz 31,368(30)
.LVL616:
	addi 29,29,1
.LVL617:
.LBB5054:
.LBB5055:
.LBB5056:
	.loc 5 571 0 discriminator 2
	lwz 0,0(31)
	lwz 9,4(31)
	subf 9,0,9
	lis 0,0xcccc
	srawi 9,9,2
	ori 0,0,52429
	mullw 0,9,0
.LBE5056:
.LBE5055:
.LBE5054:
	.loc 4 102 0 discriminator 2
	cmpw 7,29,0
	blt+ 7,.L417
.LBE5053:
.LBE5069:
	.loc 4 106 0
	lwz 0,44(1)
	lwz 29,28(1)
.LVL618:
	mtlr 0
	lwz 30,32(1)
.LVL619:
	lwz 31,36(1)
.LVL620:
	addi 1,1,40
	.cfi_remember_state
	.cfi_restore 29
	.cfi_restore 30
	.cfi_restore 31
.LCFI98:
	.cfi_def_cfa_offset 0
	blr
.LVL621:
.L433:
.LCFI99:
	.cfi_restore_state
.LBB5070:
.LBB5057:
.LBB5058:
	.loc 8 26 0
	lwz 31,_ZN14ProgressWindow8instanceE@l(29)
	cmpwi 7,31,0
	beq- 7,.L435
.L406:
.LBE5058:
.LBE5057:
	.loc 4 88 0
	mr 3,31
	bl _ZN14ProgressWindow12StopProgressEv
	.loc 4 89 0
	lis 3,.LC13@ha
	la 3,.LC13@l(3)
	bl gettext
	crxor 6,6,6
	bl ShowError
.LBE5070:
	.loc 4 106 0
	lwz 0,44(1)
	lwz 29,28(1)
	mtlr 0
	lwz 30,32(1)
.LVL622:
	lwz 31,36(1)
	addi 1,1,40
	.cfi_remember_state
	.cfi_restore 29
	.cfi_restore 30
	.cfi_restore 31
.LCFI100:
	.cfi_def_cfa_offset 0
	blr
.LVL623:
.L416:
.LCFI101:
	.cfi_restore_state
.LBB5071:
.LBB5061:
.LBB5062:
	.loc 8 26 0
	lwz 31,_ZN14ProgressWindow8instanceE@l(29)
.LVL624:
	cmpwi 7,31,0
	beq- 7,.L436
.L418:
.LBE5062:
.LBE5061:
	.loc 4 97 0
	mr 3,31
	bl _ZN14ProgressWindow12StopProgressEv
	.loc 4 98 0
	lis 3,.LC14@ha
	la 3,.LC14@l(3)
	bl gettext
	crxor 6,6,6
	bl ShowError
	.loc 4 99 0
	b .L400
.LVL625:
.L432:
.LBB5064:
.LBB5026:
	.loc 8 26 0
	li 3,440
	bl _Znwj
.LEHE45:
	mr 31,3
.LEHB46:
	bl _ZN14ProgressWindowC1Ev
.LEHE46:
	stw 31,_ZN14ProgressWindow8instanceE@l(29)
	b .L402
.LVL626:
.L435:
.LBE5026:
.LBE5064:
.LBB5065:
.LBB5059:
	li 3,440
.LEHB47:
	bl _Znwj
.LEHE47:
	mr 31,3
.LEHB48:
	bl _ZN14ProgressWindowC1Ev
.LEHE48:
	stw 31,_ZN14ProgressWindow8instanceE@l(29)
	b .L406
.LVL627:
.L436:
.LBE5059:
.LBE5065:
.LBB5066:
.LBB5063:
	li 3,440
.LEHB49:
	bl _Znwj
.LEHE49:
	mr 31,3
.LEHB50:
	bl _ZN14ProgressWindowC1Ev
.LEHE50:
	stw 31,_ZN14ProgressWindow8instanceE@l(29)
	b .L418
.LVL628:
.L423:
	mr 31,3
.LVL629:
.L421:
.LBE5063:
.LBE5066:
	.loc 4 93 0
	addi 3,1,12
	bl _ZNSsD1Ev
	mr 3,31
.LEHB51:
	bl _Unwind_Resume
.LVL630:
.L427:
.L430:
	mr 30,3
.LVL631:
.LBB5067:
.LBB5060:
	.loc 8 26 0
	mr 3,31
	bl _ZdlPv
	mr 3,30
	bl _Unwind_Resume
.LEHE51:
.LVL632:
.L424:
	mr 30,3
.LVL633:
.LBE5060:
.LBE5067:
	.loc 4 93 0
	mr 3,31
	bl _ZdlPv
	mr 31,30
	b .L421
.LVL634:
.L434:
.LBB5068:
.LBB5048:
.LBB5046:
.LBB5044:
.LBB5042:
.LBB5035:
.LBB5036:
.LBB5037:
	.loc 7 66 0
	lwz 11,-4(9)
.LVL635:
.LBE5037:
.LBE5036:
.LBE5035:
	.loc 6 240 0
	cmpwi 7,11,0
.LBB5040:
.LBB5039:
.LBB5038:
	.loc 7 67 0
	addi 11,11,-1
	stw 11,-4(9)
.LBE5038:
.LBE5039:
.LBE5040:
	.loc 6 240 0
	bgt+ 7,.L415
	.loc 6 244 0
	addi 4,1,8
	bl _ZNSs4_Rep10_M_destroyERKSaIcE
.LVL636:
	lwz 31,368(30)
	b .L415
.LVL637:
.L425:
	b .L430
.LVL638:
.L426:
	b .L430
.LBE5042:
.LBE5044:
.LBE5046:
.LBE5048:
.LBE5068:
.LBE5071:
	.cfi_endproc
.LFE1611:
	.section	.gcc_except_table
.LLSDA1611:
	.byte	0xff
	.byte	0xff
	.byte	0x1
	.uleb128 .LLSDACSE1611-.LLSDACSB1611
.LLSDACSB1611:
	.uleb128 .LEHB42-.LFB1611
	.uleb128 .LEHE42-.LEHB42
	.uleb128 0
	.uleb128 0
	.uleb128 .LEHB43-.LFB1611
	.uleb128 .LEHE43-.LEHB43
	.uleb128 .L423-.LFB1611
	.uleb128 0
	.uleb128 .LEHB44-.LFB1611
	.uleb128 .LEHE44-.LEHB44
	.uleb128 .L424-.LFB1611
	.uleb128 0
	.uleb128 .LEHB45-.LFB1611
	.uleb128 .LEHE45-.LEHB45
	.uleb128 0
	.uleb128 0
	.uleb128 .LEHB46-.LFB1611
	.uleb128 .LEHE46-.LEHB46
	.uleb128 .L425-.LFB1611
	.uleb128 0
	.uleb128 .LEHB47-.LFB1611
	.uleb128 .LEHE47-.LEHB47
	.uleb128 0
	.uleb128 0
	.uleb128 .LEHB48-.LFB1611
	.uleb128 .LEHE48-.LEHB48
	.uleb128 .L426-.LFB1611
	.uleb128 0
	.uleb128 .LEHB49-.LFB1611
	.uleb128 .LEHE49-.LEHB49
	.uleb128 0
	.uleb128 0
	.uleb128 .LEHB50-.LFB1611
	.uleb128 .LEHE50-.LEHB50
	.uleb128 .L427-.LFB1611
	.uleb128 0
	.uleb128 .LEHB51-.LFB1611
	.uleb128 .LEHE51-.LEHB51
	.uleb128 0
	.uleb128 0
.LLSDACSE1611:
	.section	".text"
	.size	_ZN15ThemeDownloader16SetupMainButtonsEv, .-_ZN15ThemeDownloader16SetupMainButtonsEv
	.align 2
	.globl _ZN15ThemeDownloaderC2Ev
	.type	_ZN15ThemeDownloaderC2Ev, @function
_ZN15ThemeDownloaderC2Ev:
.LFB1605:
	.loc 4 37 0
	.cfi_startproc
	.cfi_personality 0,__gxx_personality_v0
	.cfi_lsda 0,.LLSDA1605
.LVL639:
	stwu 1,-56(1)
.LCFI102:
	.cfi_def_cfa_offset 56
	mflr 0
	stw 28,40(1)
.LBB5154:
.LBB5155:
.LBB5156:
.LBB5157:
	.file 16 "d:/Projects/SaveGameManager/savegame-manager-gx/trunk/source/Themes/../Settings/menus/SettingsMenu.h"
	.loc 16 46 0
	lis 28,_ZN12SettingsMenu8instanceE@ha
	.cfi_offset 28, -16
	.cfi_register 65, 0
.LBE5157:
.LBE5156:
.LBE5155:
.LBE5154:
	.loc 4 37 0
	stw 0,60(1)
	stw 30,48(1)
	stw 31,52(1)
	mr 31,3
	.cfi_offset 31, -4
	.cfi_offset 30, -8
	.cfi_offset 65, 4
	stw 27,36(1)
	stw 29,44(1)
.LEHB52:
.LBB5242:
	.loc 4 38 0
	.cfi_offset 29, -12
	.cfi_offset 27, -20
	bl _ZN17FlyingButtonsMenuC2Ev
.LEHE52:
.LVL640:
.LBB5231:
.LBB5163:
.LBB5158:
	.loc 16 46 0
	lwz 30,_ZN12SettingsMenu8instanceE@l(28)
.LBE5158:
.LBE5163:
.LBE5231:
	.loc 4 38 0
	lis 9,_ZTV15ThemeDownloader+8@ha
	la 9,_ZTV15ThemeDownloader+8@l(9)
.LBB5232:
.LBB5164:
.LBB5159:
	.loc 16 46 0
	cmpwi 7,30,0
.LBE5159:
.LBE5164:
.LBE5232:
	.loc 4 38 0
	addi 0,9,264
	stw 9,0(31)
.LBB5233:
.LBB5234:
.LBB5235:
	.loc 6 270 0
	lis 9,_ZNSs4_Rep20_S_empty_rep_storageE+12@ha
.LBE5235:
.LBE5234:
.LBE5233:
	.loc 4 38 0
	stw 0,176(31)
.LVL641:
.LBB5238:
.LBB5237:
.LBB5236:
	.loc 6 270 0
	la 0,_ZNSs4_Rep20_S_empty_rep_storageE+12@l(9)
	stw 0,392(31)
.LBE5236:
.LBE5237:
.LBE5238:
.LBB5239:
.LBB5165:
.LBB5160:
	.loc 16 46 0
	beq- 7,.L476
.L440:
.LBE5160:
.LBE5165:
	.loc 4 40 0
	lis 3,.LC15@ha
	addi 29,31,392
	la 3,.LC15@l(3)
.LEHB53:
	bl gettext
.LEHE53:
	mr 4,3
	addi 5,1,10
	addi 3,1,16
.LEHB54:
	bl _ZNSsC1EPKcRKSaIcE
.LEHE54:
	.loc 4 281 0 discriminator 3
	lwz 30,216(30)
.LVL642:
.LBB5166:
.LBB5167:
	.loc 16 52 0 discriminator 3
	cmpwi 7,30,0
	beq- 7,.L477
	.loc 16 52 0 is_stmt 0
	lwz 9,0(30)
	addi 3,1,12
	addi 4,1,16
.LVL643:
	lwz 29,204(9)
.LEHB55:
	bl _ZNSsC1ERKSs
.LEHE55:
.LVL644:
	mr 3,30
	addi 4,1,12
	mtctr 29
.LEHB56:
	bctrl
.LEHE56:
.LVL645:
.LBB5168:
.LBB5169:
.LBB5170:
.LBB5171:
.LBB5172:
.LBB5173:
	.loc 6 288 0 is_stmt 1
	lwz 9,12(1)
.LBE5173:
.LBE5172:
.LBE5171:
.LBB5174:
.LBB5175:
	.loc 6 235 0
	lis 30,_ZNSs4_Rep20_S_empty_rep_storageE@ha
	la 30,_ZNSs4_Rep20_S_empty_rep_storageE@l(30)
.LBE5175:
.LBE5174:
	.loc 6 534 0
	addi 3,9,-12
.LVL646:
.LBB5184:
.LBB5182:
	.loc 6 235 0
	cmpw 7,3,30
	bne- 7,.L478
.LVL647:
.L451:
.LBE5182:
.LBE5184:
.LBE5170:
.LBE5169:
.LBE5168:
.LBE5167:
.LBE5166:
.LBB5191:
.LBB5192:
.LBB5193:
.LBB5194:
.LBB5195:
.LBB5196:
	.loc 6 288 0 discriminator 1
	lwz 9,16(1)
.LBE5196:
.LBE5195:
.LBE5194:
	.loc 6 534 0 discriminator 1
	addi 3,9,-12
.LVL648:
.LBB5197:
.LBB5198:
	.loc 6 235 0 discriminator 1
	cmpw 7,3,30
	bne- 7,.L479
.LVL649:
.L459:
.LBE5198:
.LBE5197:
.LBE5193:
.LBE5192:
.LBE5191:
	.loc 4 42 0 discriminator 1
	li 0,0
	.loc 4 44 0 discriminator 1
	addi 29,31,392
.LVL650:
.LBB5209:
.LBB5210:
.LBB5211:
	.loc 6 1121 0 discriminator 1
	lis 4,.LC16@ha
.LBE5211:
.LBE5210:
.LBE5209:
	.loc 4 42 0 discriminator 1
	stw 0,368(31)
.LBB5214:
.LBB5213:
.LBB5212:
	.loc 6 1121 0 discriminator 1
	mr 3,29
	la 4,.LC16@l(4)
	li 5,59
.LEHB57:
	bl _ZNSs6assignEPKcj
.LBE5212:
.LBE5213:
.LBE5214:
	.loc 4 45 0
	lis 9,Settings+1258@ha
.LBB5215:
.LBB5216:
.LBB5217:
	.loc 6 1000 0
	mr 3,29
.LBE5217:
.LBE5216:
.LBE5215:
	.loc 4 45 0
	lha 0,Settings+1258@l(9)
	cmpwi 7,0,0
	beq- 7,.L460
.LVL651:
.LBB5220:
.LBB5219:
.LBB5218:
	.loc 6 1000 0
	lis 4,.LC17@ha
	li 5,1
	la 4,.LC17@l(4)
	bl _ZNSs6appendEPKcj
.LVL652:
.L461:
.LBE5218:
.LBE5219:
.LBE5220:
	.loc 4 50 0
	lis 3,.LC19@ha
	la 3,.LC19@l(3)
	bl _ZN9Resources12GetImageDataEPKc
	stw 3,396(31)
	.loc 4 52 0
	lis 3,.LC20@ha
	la 3,.LC20@l(3)
	bl gettext
	.loc 4 52 0 is_stmt 0 discriminator 1
	li 0,-1
	li 30,0
	rlwimi 30,0,24,0,7
	mr 27,3
	rlwimi 30,0,16,8,15
	li 3,208
	rlwimi 30,0,8,16,23
	rlwimi 30,0,0,24,31
	bl _Znwj
.LEHE57:
	mr 6,1
	mr 4,27
	stwu 30,24(6)
	li 5,22
	mr 28,3
.LEHB58:
	bl _ZN7GuiTextC1EPKci9_gx_color
.LEHE58:
	stw 28,372(31)
	.loc 4 53 0 is_stmt 1 discriminator 1
	mr 3,28
	lwz 9,0(28)
	li 4,68
	lwz 0,180(9)
	mtctr 0
.LEHB59:
	bctrl
	.loc 4 54 0
	lwz 3,372(31)
	li 4,-30
	li 5,-17
	lwz 9,0(3)
	lwz 0,168(9)
	mtctr 0
	bctrl
	.loc 4 55 0
	lwz 4,372(31)
	mr 3,31
	bl _ZN8GuiFrame6AppendEP10GuiElement
.LVL653:
.LBB5221:
	.loc 4 58 0 discriminator 1
	li 0,0
.LBE5221:
	.loc 4 60 0 discriminator 1
	mr 3,31
.LBB5222:
	.loc 4 58 0 discriminator 1
	stw 0,376(31)
.LVL654:
	stw 0,380(31)
.LVL655:
	stw 0,384(31)
.LVL656:
	stw 0,388(31)
.LVL657:
.LBE5222:
	.loc 4 60 0 discriminator 1
	bl _ZN15ThemeDownloader16SetupMainButtonsEv
.LBE5239:
.LBE5242:
	.loc 4 61 0
	lwz 0,60(1)
	lwz 27,36(1)
	mtlr 0
	lwz 28,40(1)
	lwz 29,44(1)
.LVL658:
	lwz 30,48(1)
	lwz 31,52(1)
.LVL659:
	addi 1,1,56
	.cfi_remember_state
.LCFI103:
	.cfi_def_cfa_offset 0
	.cfi_restore 31
	.cfi_restore 30
	.cfi_restore 29
	.cfi_restore 28
	.cfi_restore 27
	blr
.LVL660:
.L460:
.LCFI104:
	.cfi_restore_state
.LBB5243:
.LBB5240:
.LBB5223:
.LBB5224:
.LBB5225:
	.loc 6 1000 0
	lis 4,.LC18@ha
	li 5,1
	la 4,.LC18@l(4)
	bl _ZNSs6appendEPKcj
.LVL661:
	b .L461
.LVL662:
.L476:
.LBE5225:
.LBE5224:
.LBE5223:
.LBB5226:
.LBB5161:
	.loc 16 46 0
	li 3,980
	addi 29,31,392
	bl _Znwj
.LEHE59:
	mr 30,3
.LEHB60:
	bl _ZN12SettingsMenuC1Ev
.LEHE60:
	stw 30,_ZN12SettingsMenu8instanceE@l(28)
	b .L440
.LVL663:
.L477:
	lis 30,_ZNSs4_Rep20_S_empty_rep_storageE@ha
	la 30,_ZNSs4_Rep20_S_empty_rep_storageE@l(30)
	b .L451
.LVL664:
.L479:
.LBE5161:
.LBE5226:
.LBB5227:
.LBB5208:
.LBB5207:
.LBB5206:
.LBB5205:
.LBB5199:
.LBB5200:
.LBB5201:
	.loc 7 66 0
	lwz 11,-4(9)
.LVL665:
.LBE5201:
.LBE5200:
.LBE5199:
	.loc 6 240 0
	cmpwi 7,11,0
.LBB5204:
.LBB5203:
.LBB5202:
	.loc 7 67 0
	addi 11,11,-1
	stw 11,-4(9)
.LBE5202:
.LBE5203:
.LBE5204:
	.loc 6 240 0
	bgt+ 7,.L459
	.loc 6 244 0
	addi 4,1,8
	bl _ZNSs4_Rep10_M_destroyERKSaIcE
.LVL666:
	b .L459
.LVL667:
.L478:
.LBE5205:
.LBE5206:
.LBE5207:
.LBE5208:
.LBE5227:
.LBB5228:
.LBB5189:
.LBB5188:
.LBB5187:
.LBB5186:
.LBB5185:
.LBB5183:
.LBB5176:
.LBB5177:
.LBB5178:
	.loc 7 66 0
	lwz 11,-4(9)
.LVL668:
.LBE5178:
.LBE5177:
.LBE5176:
	.loc 6 240 0
	cmpwi 7,11,0
.LBB5181:
.LBB5180:
.LBB5179:
	.loc 7 67 0
	addi 11,11,-1
	stw 11,-4(9)
.LBE5179:
.LBE5180:
.LBE5181:
	.loc 6 240 0
	bgt+ 7,.L451
	.loc 6 244 0
	addi 4,1,9
	bl _ZNSs4_Rep10_M_destroyERKSaIcE
.LVL669:
	b .L451
.LVL670:
.L467:
.L464:
.LBE5183:
.LBE5185:
.LBE5186:
.LBE5187:
.LBE5188:
.LBE5189:
.LBE5228:
	.loc 4 40 0
	mr 30,3
	addi 29,31,392
.L443:
.LBE5240:
	.loc 4 38 0
	mr 3,29
	bl _ZNSsD1Ev
	mr 3,31
	bl _ZN17FlyingButtonsMenuD2Ev
	mr 3,30
.LEHB61:
	bl _Unwind_Resume
.LEHE61:
.L466:
	mr 30,3
	b .L443
.L470:
	mr 28,3
.LBB5241:
.LBB5229:
.LBB5162:
	.loc 16 46 0
	mr 3,30
	bl _ZdlPv
	addi 29,31,392
	mr 30,28
	b .L443
.LVL671:
.L471:
	mr 30,3
.LBE5162:
.LBE5229:
.LBB5230:
.LBB5190:
	.loc 16 52 0
	addi 3,1,12
	bl _ZNSsD1Ev
.L446:
.LBE5190:
.LBE5230:
	.loc 4 40 0
	addi 3,1,16
.LVL672:
	bl _ZNSsD1Ev
.LVL673:
	mr 3,30
	b .L464
.L468:
	mr 30,3
	b .L446
.LVL674:
.L469:
	mr 30,3
	.loc 4 52 0
	mr 3,28
	bl _ZdlPv
	b .L443
.LBE5241:
.LBE5243:
	.cfi_endproc
.LFE1605:
	.section	.gcc_except_table
.LLSDA1605:
	.byte	0xff
	.byte	0xff
	.byte	0x1
	.uleb128 .LLSDACSE1605-.LLSDACSB1605
.LLSDACSB1605:
	.uleb128 .LEHB52-.LFB1605
	.uleb128 .LEHE52-.LEHB52
	.uleb128 0
	.uleb128 0
	.uleb128 .LEHB53-.LFB1605
	.uleb128 .LEHE53-.LEHB53
	.uleb128 .L466-.LFB1605
	.uleb128 0
	.uleb128 .LEHB54-.LFB1605
	.uleb128 .LEHE54-.LEHB54
	.uleb128 .L467-.LFB1605
	.uleb128 0
	.uleb128 .LEHB55-.LFB1605
	.uleb128 .LEHE55-.LEHB55
	.uleb128 .L468-.LFB1605
	.uleb128 0
	.uleb128 .LEHB56-.LFB1605
	.uleb128 .LEHE56-.LEHB56
	.uleb128 .L471-.LFB1605
	.uleb128 0
	.uleb128 .LEHB57-.LFB1605
	.uleb128 .LEHE57-.LEHB57
	.uleb128 .L466-.LFB1605
	.uleb128 0
	.uleb128 .LEHB58-.LFB1605
	.uleb128 .LEHE58-.LEHB58
	.uleb128 .L469-.LFB1605
	.uleb128 0
	.uleb128 .LEHB59-.LFB1605
	.uleb128 .LEHE59-.LEHB59
	.uleb128 .L466-.LFB1605
	.uleb128 0
	.uleb128 .LEHB60-.LFB1605
	.uleb128 .LEHE60-.LEHB60
	.uleb128 .L470-.LFB1605
	.uleb128 0
	.uleb128 .LEHB61-.LFB1605
	.uleb128 .LEHE61-.LEHB61
	.uleb128 0
	.uleb128 0
.LLSDACSE1605:
	.section	".text"
	.size	_ZN15ThemeDownloaderC2Ev, .-_ZN15ThemeDownloaderC2Ev
	.weak	_ZTS15ThemeDownloader
	.section	.rodata._ZTS15ThemeDownloader,"aG",@progbits,_ZTS15ThemeDownloader,comdat
	.align 2
	.type	_ZTS15ThemeDownloader, @object
	.size	_ZTS15ThemeDownloader, 18
_ZTS15ThemeDownloader:
	.string	"15ThemeDownloader"
	.weak	_ZTI15ThemeDownloader
	.section	.rodata._ZTI15ThemeDownloader,"aG",@progbits,_ZTI15ThemeDownloader,comdat
	.align 2
	.type	_ZTI15ThemeDownloader, @object
	.size	_ZTI15ThemeDownloader, 12
_ZTI15ThemeDownloader:
	.long	_ZTVN10__cxxabiv120__si_class_type_infoE+8
	.long	_ZTS15ThemeDownloader
	.long	_ZTI17FlyingButtonsMenu
	.weak	_ZTV15ThemeDownloader
	.section	.rodata._ZTV15ThemeDownloader,"aG",@progbits,_ZTV15ThemeDownloader,comdat
	.align 3
	.type	_ZTV15ThemeDownloader, @object
	.size	_ZTV15ThemeDownloader, 288
_ZTV15ThemeDownloader:
	.long	0
	.long	_ZTI15ThemeDownloader
	.long	_ZN15ThemeDownloaderD1Ev
	.long	_ZN15ThemeDownloaderD0Ev
	.long	_ZN10GuiElement9SetParentEPS_
	.long	_ZN10GuiElement9GetParentEv
	.long	_ZN10GuiElement7GetLeftEv
	.long	_ZN10GuiElement6GetTopEv
	.long	_ZN10GuiElement12GetZPositionEv
	.long	_ZN10GuiElement10GetLeftPosEv
	.long	_ZN10GuiElement9GetTopPosEv
	.long	_ZN10GuiElement8GetWidthEv
	.long	_ZN10GuiElement9GetHeightEv
	.long	_ZN10GuiElement7SetSizeEii
	.long	_ZN8GuiFrame10SetVisibleEb
	.long	_ZN10GuiElement9IsVisibleEv
	.long	_ZN10GuiElement12IsSelectableEv
	.long	_ZN10GuiElement11IsClickableEv
	.long	_ZN10GuiElement10IsHoldableEv
	.long	_ZN10GuiElement13SetSelectableEb
	.long	_ZN10GuiElement12SetClickableEb
	.long	_ZN10GuiElement11SetHoldableEb
	.long	_ZN10GuiElement8SetStateEii
	.long	_ZN10GuiElement8GetStateEv
	.long	_ZN10GuiElement12GetStateChanEv
	.long	_ZN8GuiFrame10ResetStateEv
	.long	_ZN10GuiElement8SetAlphaEi
	.long	_ZN10GuiElement8GetAlphaEv
	.long	_ZN10GuiElement8SetScaleEf
	.long	_ZN10GuiElement9SetScaleXEf
	.long	_ZN10GuiElement9SetScaleYEf
	.long	_ZN10GuiElement8GetScaleEv
	.long	_ZN10GuiElement9GetScaleXEv
	.long	_ZN10GuiElement9GetScaleYEv
	.long	_ZN10GuiElement6RumbleEv
	.long	_ZN10GuiElement9SetRumbleEb
	.long	_ZN10GuiElement9SetEffectEiii
	.long	_ZN10GuiElement15SetEffectOnOverEiii
	.long	_ZN10GuiElement13SetEffectGrowEv
	.long	_ZN10GuiElement12ResetEffectsEv
	.long	_ZNK10GuiElement9GetEffectEv
	.long	_ZNK10GuiElement10IsAnimatedEv
	.long	_ZN8GuiFrame9SetBoundsE4RectIiE
	.long	_ZN10GuiElement8IsInsideEii
	.long	_ZN10GuiElement11SetPositionEii
	.long	_ZN10GuiElement11SetPositionEiii
	.long	_ZN8GuiFrame11GetSelectedEv
	.long	_ZN10GuiElement12SetAlignmentEi
	.long	_ZNK10GuiElement12GetAlignmentEv
	.long	_ZN8GuiFrame6UpdateEP10GuiTrigger
	.long	_ZN8GuiFrame4DrawEv
	.long	_ZN10GuiElement13UpdateEffectsEv
	.long	_ZN8GuiFrame5CloseEv
	.long	_ZN17FlyingButtonsMenu4showEv
	.long	_ZN17FlyingButtonsMenu4hideEv
	.long	_ZN8GuiFrame4execEv
	.long	_ZN8GuiFrame12updateEventsEv
	.long	_ZN17FlyingButtonsMenu6FadeInEv
	.long	_ZN17FlyingButtonsMenu7FadeOutEv
	.long	_ZN15ThemeDownloader16SetupMainButtonsEv
	.long	_ZN15ThemeDownloader14AddMainButtonsEv
	.long	_ZN17FlyingButtonsMenu18ShowButtonsEffectsEii
	.long	_ZN17FlyingButtonsMenu12SlideButtonsEi
	.long	_ZN17FlyingButtonsMenu17SetPageIndicatorsEv
	.long	_ZN17FlyingButtonsMenu13SetMainButtonEiSsP12GuiImageDataS1_
	.long	_ZN15ThemeDownloader13SetMainButtonEiPKcP12GuiImageDataS3_
	.long	-176
	.long	_ZTI15ThemeDownloader
	.long	_ZThn176_N15ThemeDownloaderD1Ev
	.long	_ZThn176_N15ThemeDownloaderD0Ev
	.long	_ZN7sigslot15single_threaded4lockEv
	.long	_ZN7sigslot15single_threaded6unlockEv
	.weak	_ZTVN7sigslot17_connection_base3IP9GuiButtoniRK6_POINTNS_15single_threadedEEE
	.section	.rodata._ZTVN7sigslot17_connection_base3IP9GuiButtoniRK6_POINTNS_15single_threadedEEE,"aG",@progbits,_ZTVN7sigslot17_connection_base3IP9GuiButtoniRK6_POINTNS_15single_threadedEEE,comdat
	.align 3
	.type	_ZTVN7sigslot17_connection_base3IP9GuiButtoniRK6_POINTNS_15single_threadedEEE, @object
	.size	_ZTVN7sigslot17_connection_base3IP9GuiButtoniRK6_POINTNS_15single_threadedEEE, 32
_ZTVN7sigslot17_connection_base3IP9GuiButtoniRK6_POINTNS_15single_threadedEEE:
	.long	0
	.long	_ZTIN7sigslot17_connection_base3IP9GuiButtoniRK6_POINTNS_15single_threadedEEE
	.long	_ZN7sigslot17_connection_base3IP9GuiButtoniRK6_POINTNS_15single_threadedEED1Ev
	.long	_ZN7sigslot17_connection_base3IP9GuiButtoniRK6_POINTNS_15single_threadedEED0Ev
	.long	__cxa_pure_virtual
	.long	__cxa_pure_virtual
	.long	__cxa_pure_virtual
	.long	__cxa_pure_virtual
	.weak	_ZTVN7sigslot12_connection3I15ThemeDownloaderP9GuiButtoniRK6_POINTNS_15single_threadedEEE
	.section	.rodata._ZTVN7sigslot12_connection3I15ThemeDownloaderP9GuiButtoniRK6_POINTNS_15single_threadedEEE,"aG",@progbits,_ZTVN7sigslot12_connection3I15ThemeDownloaderP9GuiButtoniRK6_POINTNS_15single_threadedEEE,comdat
	.align 3
	.type	_ZTVN7sigslot12_connection3I15ThemeDownloaderP9GuiButtoniRK6_POINTNS_15single_threadedEEE, @object
	.size	_ZTVN7sigslot12_connection3I15ThemeDownloaderP9GuiButtoniRK6_POINTNS_15single_threadedEEE, 32
_ZTVN7sigslot12_connection3I15ThemeDownloaderP9GuiButtoniRK6_POINTNS_15single_threadedEEE:
	.long	0
	.long	_ZTIN7sigslot12_connection3I15ThemeDownloaderP9GuiButtoniRK6_POINTNS_15single_threadedEEE
	.long	_ZN7sigslot12_connection3I15ThemeDownloaderP9GuiButtoniRK6_POINTNS_15single_threadedEED1Ev
	.long	_ZN7sigslot12_connection3I15ThemeDownloaderP9GuiButtoniRK6_POINTNS_15single_threadedEED0Ev
	.long	_ZNK7sigslot12_connection3I15ThemeDownloaderP9GuiButtoniRK6_POINTNS_15single_threadedEE7getdestEv
	.long	_ZN7sigslot12_connection3I15ThemeDownloaderP9GuiButtoniRK6_POINTNS_15single_threadedEE4emitES3_iS6_
	.long	_ZN7sigslot12_connection3I15ThemeDownloaderP9GuiButtoniRK6_POINTNS_15single_threadedEE5cloneEv
	.long	_ZN7sigslot12_connection3I15ThemeDownloaderP9GuiButtoniRK6_POINTNS_15single_threadedEE9duplicateEPNS_9has_slotsIS7_EE
	.weak	_ZTVN7sigslot17_connection_base3IP10GuiElementiiNS_15single_threadedEEE
	.section	.rodata._ZTVN7sigslot17_connection_base3IP10GuiElementiiNS_15single_threadedEEE,"aG",@progbits,_ZTVN7sigslot17_connection_base3IP10GuiElementiiNS_15single_threadedEEE,comdat
	.align 3
	.type	_ZTVN7sigslot17_connection_base3IP10GuiElementiiNS_15single_threadedEEE, @object
	.size	_ZTVN7sigslot17_connection_base3IP10GuiElementiiNS_15single_threadedEEE, 32
_ZTVN7sigslot17_connection_base3IP10GuiElementiiNS_15single_threadedEEE:
	.long	0
	.long	_ZTIN7sigslot17_connection_base3IP10GuiElementiiNS_15single_threadedEEE
	.long	_ZN7sigslot17_connection_base3IP10GuiElementiiNS_15single_threadedEED1Ev
	.long	_ZN7sigslot17_connection_base3IP10GuiElementiiNS_15single_threadedEED0Ev
	.long	__cxa_pure_virtual
	.long	__cxa_pure_virtual
	.long	__cxa_pure_virtual
	.long	__cxa_pure_virtual
	.weak	_ZTVN7sigslot12_connection3I15ThemeDownloaderP10GuiElementiiNS_15single_threadedEEE
	.section	.rodata._ZTVN7sigslot12_connection3I15ThemeDownloaderP10GuiElementiiNS_15single_threadedEEE,"aG",@progbits,_ZTVN7sigslot12_connection3I15ThemeDownloaderP10GuiElementiiNS_15single_threadedEEE,comdat
	.align 3
	.type	_ZTVN7sigslot12_connection3I15ThemeDownloaderP10GuiElementiiNS_15single_threadedEEE, @object
	.size	_ZTVN7sigslot12_connection3I15ThemeDownloaderP10GuiElementiiNS_15single_threadedEEE, 32
_ZTVN7sigslot12_connection3I15ThemeDownloaderP10GuiElementiiNS_15single_threadedEEE:
	.long	0
	.long	_ZTIN7sigslot12_connection3I15ThemeDownloaderP10GuiElementiiNS_15single_threadedEEE
	.long	_ZN7sigslot12_connection3I15ThemeDownloaderP10GuiElementiiNS_15single_threadedEED1Ev
	.long	_ZN7sigslot12_connection3I15ThemeDownloaderP10GuiElementiiNS_15single_threadedEED0Ev
	.long	_ZNK7sigslot12_connection3I15ThemeDownloaderP10GuiElementiiNS_15single_threadedEE7getdestEv
	.long	_ZN7sigslot12_connection3I15ThemeDownloaderP10GuiElementiiNS_15single_threadedEE4emitES3_ii
	.long	_ZN7sigslot12_connection3I15ThemeDownloaderP10GuiElementiiNS_15single_threadedEE5cloneEv
	.long	_ZN7sigslot12_connection3I15ThemeDownloaderP10GuiElementiiNS_15single_threadedEE9duplicateEPNS_9has_slotsIS4_EE
	.weak	_ZTIN7sigslot17_connection_base3IP9GuiButtoniRK6_POINTNS_15single_threadedEEE
	.section	.sdata._ZTIN7sigslot17_connection_base3IP9GuiButtoniRK6_POINTNS_15single_threadedEEE,"awG",@progbits,_ZTIN7sigslot17_connection_base3IP9GuiButtoniRK6_POINTNS_15single_threadedEEE,comdat
	.align 2
	.type	_ZTIN7sigslot17_connection_base3IP9GuiButtoniRK6_POINTNS_15single_threadedEEE, @object
	.size	_ZTIN7sigslot17_connection_base3IP9GuiButtoniRK6_POINTNS_15single_threadedEEE, 8
_ZTIN7sigslot17_connection_base3IP9GuiButtoniRK6_POINTNS_15single_threadedEEE:
	.long	_ZTVN10__cxxabiv117__class_type_infoE+8
	.long	_ZTSN7sigslot17_connection_base3IP9GuiButtoniRK6_POINTNS_15single_threadedEEE
	.weak	_ZTIN7sigslot12_connection3I15ThemeDownloaderP9GuiButtoniRK6_POINTNS_15single_threadedEEE
	.section	.rodata._ZTIN7sigslot12_connection3I15ThemeDownloaderP9GuiButtoniRK6_POINTNS_15single_threadedEEE,"aG",@progbits,_ZTIN7sigslot12_connection3I15ThemeDownloaderP9GuiButtoniRK6_POINTNS_15single_threadedEEE,comdat
	.align 2
	.type	_ZTIN7sigslot12_connection3I15ThemeDownloaderP9GuiButtoniRK6_POINTNS_15single_threadedEEE, @object
	.size	_ZTIN7sigslot12_connection3I15ThemeDownloaderP9GuiButtoniRK6_POINTNS_15single_threadedEEE, 12
_ZTIN7sigslot12_connection3I15ThemeDownloaderP9GuiButtoniRK6_POINTNS_15single_threadedEEE:
	.long	_ZTVN10__cxxabiv120__si_class_type_infoE+8
	.long	_ZTSN7sigslot12_connection3I15ThemeDownloaderP9GuiButtoniRK6_POINTNS_15single_threadedEEE
	.long	_ZTIN7sigslot17_connection_base3IP9GuiButtoniRK6_POINTNS_15single_threadedEEE
	.weak	_ZTIN7sigslot17_connection_base3IP10GuiElementiiNS_15single_threadedEEE
	.section	.sdata._ZTIN7sigslot17_connection_base3IP10GuiElementiiNS_15single_threadedEEE,"awG",@progbits,_ZTIN7sigslot17_connection_base3IP10GuiElementiiNS_15single_threadedEEE,comdat
	.align 2
	.type	_ZTIN7sigslot17_connection_base3IP10GuiElementiiNS_15single_threadedEEE, @object
	.size	_ZTIN7sigslot17_connection_base3IP10GuiElementiiNS_15single_threadedEEE, 8
_ZTIN7sigslot17_connection_base3IP10GuiElementiiNS_15single_threadedEEE:
	.long	_ZTVN10__cxxabiv117__class_type_infoE+8
	.long	_ZTSN7sigslot17_connection_base3IP10GuiElementiiNS_15single_threadedEEE
	.weak	_ZTIN7sigslot12_connection3I15ThemeDownloaderP10GuiElementiiNS_15single_threadedEEE
	.section	.rodata._ZTIN7sigslot12_connection3I15ThemeDownloaderP10GuiElementiiNS_15single_threadedEEE,"aG",@progbits,_ZTIN7sigslot12_connection3I15ThemeDownloaderP10GuiElementiiNS_15single_threadedEEE,comdat
	.align 2
	.type	_ZTIN7sigslot12_connection3I15ThemeDownloaderP10GuiElementiiNS_15single_threadedEEE, @object
	.size	_ZTIN7sigslot12_connection3I15ThemeDownloaderP10GuiElementiiNS_15single_threadedEEE, 12
_ZTIN7sigslot12_connection3I15ThemeDownloaderP10GuiElementiiNS_15single_threadedEEE:
	.long	_ZTVN10__cxxabiv120__si_class_type_infoE+8
	.long	_ZTSN7sigslot12_connection3I15ThemeDownloaderP10GuiElementiiNS_15single_threadedEEE
	.long	_ZTIN7sigslot17_connection_base3IP10GuiElementiiNS_15single_threadedEEE
	.weak	_ZTSN7sigslot17_connection_base3IP9GuiButtoniRK6_POINTNS_15single_threadedEEE
	.section	.rodata._ZTSN7sigslot17_connection_base3IP9GuiButtoniRK6_POINTNS_15single_threadedEEE,"aG",@progbits,_ZTSN7sigslot17_connection_base3IP9GuiButtoniRK6_POINTNS_15single_threadedEEE,comdat
	.align 2
	.type	_ZTSN7sigslot17_connection_base3IP9GuiButtoniRK6_POINTNS_15single_threadedEEE, @object
	.size	_ZTSN7sigslot17_connection_base3IP9GuiButtoniRK6_POINTNS_15single_threadedEEE, 74
_ZTSN7sigslot17_connection_base3IP9GuiButtoniRK6_POINTNS_15single_threadedEEE:
	.string	"N7sigslot17_connection_base3IP9GuiButtoniRK6_POINTNS_15single_threadedEEE"
	.weak	_ZTSN7sigslot12_connection3I15ThemeDownloaderP9GuiButtoniRK6_POINTNS_15single_threadedEEE
	.section	.rodata._ZTSN7sigslot12_connection3I15ThemeDownloaderP9GuiButtoniRK6_POINTNS_15single_threadedEEE,"aG",@progbits,_ZTSN7sigslot12_connection3I15ThemeDownloaderP9GuiButtoniRK6_POINTNS_15single_threadedEEE,comdat
	.align 2
	.type	_ZTSN7sigslot12_connection3I15ThemeDownloaderP9GuiButtoniRK6_POINTNS_15single_threadedEEE, @object
	.size	_ZTSN7sigslot12_connection3I15ThemeDownloaderP9GuiButtoniRK6_POINTNS_15single_threadedEEE, 86
_ZTSN7sigslot12_connection3I15ThemeDownloaderP9GuiButtoniRK6_POINTNS_15single_threadedEEE:
	.string	"N7sigslot12_connection3I15ThemeDownloaderP9GuiButtoniRK6_POINTNS_15single_threadedEEE"
	.weak	_ZTSN7sigslot17_connection_base3IP10GuiElementiiNS_15single_threadedEEE
	.section	.rodata._ZTSN7sigslot17_connection_base3IP10GuiElementiiNS_15single_threadedEEE,"aG",@progbits,_ZTSN7sigslot17_connection_base3IP10GuiElementiiNS_15single_threadedEEE,comdat
	.align 2
	.type	_ZTSN7sigslot17_connection_base3IP10GuiElementiiNS_15single_threadedEEE, @object
	.size	_ZTSN7sigslot17_connection_base3IP10GuiElementiiNS_15single_threadedEEE, 68
_ZTSN7sigslot17_connection_base3IP10GuiElementiiNS_15single_threadedEEE:
	.string	"N7sigslot17_connection_base3IP10GuiElementiiNS_15single_threadedEEE"
	.weak	_ZTSN7sigslot12_connection3I15ThemeDownloaderP10GuiElementiiNS_15single_threadedEEE
	.section	.rodata._ZTSN7sigslot12_connection3I15ThemeDownloaderP10GuiElementiiNS_15single_threadedEEE,"aG",@progbits,_ZTSN7sigslot12_connection3I15ThemeDownloaderP10GuiElementiiNS_15single_threadedEEE,comdat
	.align 2
	.type	_ZTSN7sigslot12_connection3I15ThemeDownloaderP10GuiElementiiNS_15single_threadedEEE, @object
	.size	_ZTSN7sigslot12_connection3I15ThemeDownloaderP10GuiElementiiNS_15single_threadedEEE, 80
_ZTSN7sigslot12_connection3I15ThemeDownloaderP10GuiElementiiNS_15single_threadedEEE:
	.string	"N7sigslot12_connection3I15ThemeDownloaderP10GuiElementiiNS_15single_threadedEEE"
	.weak	_ZN7sigslot17_connection_base3IP9GuiButtoniRK6_POINTNS_15single_threadedEED1Ev
	.set	_ZN7sigslot17_connection_base3IP9GuiButtoniRK6_POINTNS_15single_threadedEED1Ev,_ZN7sigslot17_connection_base3IP9GuiButtoniRK6_POINTNS_15single_threadedEED2Ev
	.weak	_ZN7sigslot17_connection_base3IP10GuiElementiiNS_15single_threadedEED1Ev
	.set	_ZN7sigslot17_connection_base3IP10GuiElementiiNS_15single_threadedEED1Ev,_ZN7sigslot17_connection_base3IP10GuiElementiiNS_15single_threadedEED2Ev
	.weak	_ZN7sigslot12_connection3I15ThemeDownloaderP10GuiElementiiNS_15single_threadedEED1Ev
	.set	_ZN7sigslot12_connection3I15ThemeDownloaderP10GuiElementiiNS_15single_threadedEED1Ev,_ZN7sigslot12_connection3I15ThemeDownloaderP10GuiElementiiNS_15single_threadedEED2Ev
	.weak	_ZN7sigslot12_connection3I15ThemeDownloaderP9GuiButtoniRK6_POINTNS_15single_threadedEED1Ev
	.set	_ZN7sigslot12_connection3I15ThemeDownloaderP9GuiButtoniRK6_POINTNS_15single_threadedEED1Ev,_ZN7sigslot12_connection3I15ThemeDownloaderP9GuiButtoniRK6_POINTNS_15single_threadedEED2Ev
	.globl _ZN15ThemeDownloaderD1Ev
	.set	_ZN15ThemeDownloaderD1Ev,_ZN15ThemeDownloaderD2Ev
	.set	.LTHUNK0,_ZN15ThemeDownloaderD1Ev
	.set	.LTHUNK1,_ZN15ThemeDownloaderD0Ev
	.globl _ZN15ThemeDownloaderC1Ev
	.set	_ZN15ThemeDownloaderC1Ev,_ZN15ThemeDownloaderC2Ev
	.section	.rodata.cst4,"aM",@progbits,4
	.align 2
.LC1:
	.4byte	1501560836
.LC2:
	.4byte	1132396544
.LC3:
	.4byte	1056964608
.LC9:
	.4byte	1053609165
.LC12:
	.4byte	1084227584
	.section	.rodata.str1.4,"aMS",@progbits,1
	.align 2
.LC4:
	.string	"%s/tmp/%s.jpg"
	.zero	2
.LC5:
	.string	"%s/tmp/"
.LC6:
	.string	"wb"
	.zero	1
.LC7:
	.string	"Downloading image:"
	.zero	1
.LC8:
	.string	"vector::_M_fill_insert"
	.zero	1
.LC10:
	.string	"Downloading pagelist:"
	.zero	2
.LC11:
	.string	"www.spiffy360.com"
	.zero	2
.LC13:
	.string	"Connection to server timed out."
.LC14:
	.string	"No themes found on the site."
	.zero	3
.LC15:
	.string	"Theme Downloader"
	.zero	3
.LC16:
	.string	"http://wii.spiffy360.com/themes.php?xml=1&category=8&adult="
.LC17:
	.string	"1"
	.zero	2
.LC18:
	.string	"0"
	.zero	2
.LC19:
	.string	"theme_box.png"
	.zero	2
.LC20:
	.string	"Themes by www.spiffy360.com"
	.section	".text"
.Letext0:
	.file 17 "d:\\devkitpro\\devkitppc\\bin\\../lib/gcc/powerpc-eabi/4.6.3/../../../../powerpc-eabi/include/c++/4.6.3/powerpc-eabi/bits/c++config.h"
	.file 18 "d:\\devkitpro\\devkitppc\\bin\\../lib/gcc/powerpc-eabi/4.6.3/../../../../powerpc-eabi/include/c++/4.6.3/cwchar"
	.file 19 "d:\\devkitpro\\devkitppc\\bin\\../lib/gcc/powerpc-eabi/4.6.3/../../../../powerpc-eabi/include/c++/4.6.3/clocale"
	.file 20 "d:\\devkitpro\\devkitppc\\bin\\../lib/gcc/powerpc-eabi/4.6.3/../../../../powerpc-eabi/include/c++/4.6.3/bits/stringfwd.h"
	.file 21 "d:\\devkitpro\\devkitppc\\bin\\../lib/gcc/powerpc-eabi/4.6.3/../../../../powerpc-eabi/include/c++/4.6.3/bits/cpp_type_traits.h"
	.file 22 "d:\\devkitpro\\devkitppc\\bin\\../lib/gcc/powerpc-eabi/4.6.3/../../../../powerpc-eabi/include/c++/4.6.3/bits/stl_construct.h"
	.file 23 "d:\\devkitpro\\devkitppc\\bin\\../lib/gcc/powerpc-eabi/4.6.3/../../../../powerpc-eabi/include/c++/4.6.3/bits/move.h"
	.file 24 "d:\\devkitpro\\devkitppc\\bin\\../lib/gcc/powerpc-eabi/4.6.3/../../../../powerpc-eabi/include/c++/4.6.3/bits/stl_uninitialized.h"
	.file 25 "d:\\devkitpro\\devkitppc\\bin\\../lib/gcc/powerpc-eabi/4.6.3/../../../../powerpc-eabi/include/c++/4.6.3/debug/debug.h"
	.file 26 "d:\\devkitpro\\devkitppc\\bin\\../lib/gcc/powerpc-eabi/4.6.3/../../../../powerpc-eabi/include/c++/4.6.3/bits/allocator.h"
	.file 27 "d:\\devkitpro\\devkitppc\\bin\\../lib/gcc/powerpc-eabi/4.6.3/../../../../powerpc-eabi/include/c++/4.6.3/ext/numeric_traits.h"
	.file 28 "d:\\devkitpro\\devkitppc\\bin\\../lib/gcc/powerpc-eabi/4.6.3/../../../../powerpc-eabi/include/machine/_types.h"
	.file 29 "d:\\devkitpro\\devkitppc\\bin\\../lib/gcc/powerpc-eabi/4.6.3/../../../../powerpc-eabi/include/sys/lock.h"
	.file 30 "d:\\devkitpro\\devkitppc\\bin\\../lib/gcc/powerpc-eabi/4.6.3/include/stddef.h"
	.file 31 "d:\\devkitpro\\devkitppc\\bin\\../lib/gcc/powerpc-eabi/4.6.3/../../../../powerpc-eabi/include/sys/_types.h"
	.file 32 "d:\\devkitpro\\devkitppc\\bin\\../lib/gcc/powerpc-eabi/4.6.3/../../../../powerpc-eabi/include/sys/reent.h"
	.file 33 "<built-in>"
	.file 34 "d:\\devkitpro\\devkitppc\\bin\\../lib/gcc/powerpc-eabi/4.6.3/../../../../powerpc-eabi/include/wchar.h"
	.file 35 "d:\\devkitpro\\devkitppc\\bin\\../lib/gcc/powerpc-eabi/4.6.3/../../../../powerpc-eabi/include/time.h"
	.file 36 "d:\\devkitpro\\devkitppc\\bin\\../lib/gcc/powerpc-eabi/4.6.3/../../../../powerpc-eabi/include/c++/4.6.3/bits/char_traits.h"
	.file 37 "d:\\devkitpro\\devkitppc\\bin\\../lib/gcc/powerpc-eabi/4.6.3/../../../../powerpc-eabi/include/locale.h"
	.file 38 "d:\\devkitpro\\devkitppc\\bin\\../lib/gcc/powerpc-eabi/4.6.3/../../../../powerpc-eabi/include/c++/4.6.3/powerpc-eabi/bits/atomic_word.h"
	.file 39 "d:\\devkitpro\\devkitppc\\bin\\../lib/gcc/powerpc-eabi/4.6.3/../../../../powerpc-eabi/include/c++/4.6.3/bits/basic_string.tcc"
	.file 40 "d:\\devkitpro\\devkitppc\\bin\\../lib/gcc/powerpc-eabi/4.6.3/../../../../powerpc-eabi/include/stdint.h"
	.file 41 "d:/devkitPro/libogc/include/gctypes.h"
	.file 42 "d:/devkitPro/libogc/include/ogc/gx.h"
	.file 43 "d:\\devkitpro\\devkitppc\\bin\\../lib/gcc/powerpc-eabi/4.6.3/../../../../powerpc-eabi/include/stdio.h"
	.file 44 "d:\\devkitpro\\devkitppc\\bin\\../lib/gcc/powerpc-eabi/4.6.3/../../../../powerpc-eabi/include/c++/4.6.3/bits/stl_iterator_base_types.h"
	.file 45 "d:/Projects/SaveGameManager/savegame-manager-gx/trunk/source/Themes/../Settings/menus/../../GUI/../Settings/../FileOperations/FileExtensions.h"
	.file 46 "d:/Projects/SaveGameManager/savegame-manager-gx/trunk/source/Themes/../Settings/menus/../../GUI/../Settings/../Controls/AppControls.hpp"
	.file 47 "d:/Projects/SaveGameManager/savegame-manager-gx/trunk/source/Themes/../Settings/menus/../../GUI/../Settings/CSettings.h"
	.file 48 "d:/Projects/SaveGameManager/savegame-manager-gx/trunk/source/Themes/../Settings/menus/../../GUI/../Tools/Rect.h"
	.file 49 "d:\\devkitpro\\devkitppc\\bin\\../lib/gcc/powerpc-eabi/4.6.3/../../../../powerpc-eabi/include/c++/4.6.3/bits/list.tcc"
	.file 50 "d:\\devkitpro\\devkitppc\\bin\\../lib/gcc/powerpc-eabi/4.6.3/../../../../powerpc-eabi/include/c++/4.6.3/bits/stl_function.h"
	.file 51 "d:/Projects/SaveGameManager/savegame-manager-gx/trunk/source/Themes/Theme_List.h"
	.file 52 "d:/Projects/SaveGameManager/savegame-manager-gx/trunk/source/Themes/../Settings/menus/../../GUI/gui_imagedata.h"
	.file 53 "d:/Projects/SaveGameManager/savegame-manager-gx/trunk/source/Themes/../Network/http.h"
	.file 54 "d:\\devkitpro\\devkitppc\\bin\\../lib/gcc/powerpc-eabi/4.6.3/../../../../powerpc-eabi/include/c++/4.6.3/bits/stl_pair.h"
	.file 55 "d:\\devkitpro\\devkitppc\\bin\\../lib/gcc/powerpc-eabi/4.6.3/../../../../powerpc-eabi/include/c++/4.6.3/ext/type_traits.h"
	.file 56 "d:/Projects/SaveGameManager/savegame-manager-gx/trunk/source/Themes/ThemeDownloader.h"
	.file 57 "d:\\devkitpro\\devkitppc\\bin\\../lib/gcc/powerpc-eabi/4.6.3/../../../../powerpc-eabi/include/c++/4.6.3/new"