   1              		.file	"ThemeDownloader.cpp"
   2              		.section	".text"
   3              	.Ltext0:
   4              		.section	.text._ZN7sigslot15single_threaded4lockEv,"axG",@progbits,_ZN7sigslot15single_threaded4lo
   5              		.align 2
   6              		.weak	_ZN7sigslot15single_threaded4lockEv
   7              		.type	_ZN7sigslot15single_threaded4lockEv, @function
   8              	_ZN7sigslot15single_threaded4lockEv:
   9              	.LFB1151:
  10              		.file 1 "d:/Projects/SaveGameManager/savegame-manager-gx/trunk/source/Themes/../Settings/menus/../
  11              		.loc 1 109 0
  12              		.cfi_startproc
  13              	.LVL0:
  14              		.loc 1 112 0
  15 0000 4E800020 		blr
  16              		.cfi_endproc
  17              	.LFE1151:
  18              		.size	_ZN7sigslot15single_threaded4lockEv, .-_ZN7sigslot15single_threaded4lockEv
  19              		.section	.text._ZN7sigslot15single_threaded6unlockEv,"axG",@progbits,_ZN7sigslot15single_threaded6
  20              		.align 2
  21              		.weak	_ZN7sigslot15single_threaded6unlockEv
  22              		.type	_ZN7sigslot15single_threaded6unlockEv, @function
  23              	_ZN7sigslot15single_threaded6unlockEv:
  24              	.LFB1152:
  25              		.loc 1 114 0
  26              		.cfi_startproc
  27              	.LVL1:
  28              		.loc 1 117 0
  29 0000 4E800020 		blr
  30              		.cfi_endproc
  31              	.LFE1152:
  32              		.size	_ZN7sigslot15single_threaded6unlockEv, .-_ZN7sigslot15single_threaded6unlockEv
  33              		.section	.text._ZN10GuiElement9SetParentEPS_,"axG",@progbits,_ZN10GuiElement9SetParentEPS_,comdat
  34              		.align 2
  35              		.weak	_ZN10GuiElement9SetParentEPS_
  36              		.type	_ZN10GuiElement9SetParentEPS_, @function
  37              	_ZN10GuiElement9SetParentEPS_:
  38              	.LFB1384:
  39              		.file 2 "d:/Projects/SaveGameManager/savegame-manager-gx/trunk/source/Themes/../Settings/menus/../
  40              		.loc 2 92 0
  41              		.cfi_startproc
  42              	.LVL2:
  43              		.loc 2 92 0
  44 0000 90830060 		stw 4,96(3)
  45 0004 4E800020 		blr
  46              		.cfi_endproc
  47              	.LFE1384:
  48              		.size	_ZN10GuiElement9SetParentEPS_, .-_ZN10GuiElement9SetParentEPS_
  49              		.section	.text._ZN10GuiElement9GetParentEv,"axG",@progbits,_ZN10GuiElement9GetParentEv,comdat
  50              		.align 2
  51              		.weak	_ZN10GuiElement9GetParentEv
  52              		.type	_ZN10GuiElement9GetParentEv, @function
  53              	_ZN10GuiElement9GetParentEv:
  54              	.LFB1385:
  55              		.loc 2 95 0
  56              		.cfi_startproc
  57              	.LVL3:
  58              		.loc 2 95 0
  59 0000 80630060 		lwz 3,96(3)
  60              	.LVL4:
  61 0004 4E800020 		blr
  62              		.cfi_endproc
  63              	.LFE1385:
  64              		.size	_ZN10GuiElement9GetParentEv, .-_ZN10GuiElement9GetParentEv
  65              		.section	.text._ZN10GuiElement12GetZPositionEv,"axG",@progbits,_ZN10GuiElement12GetZPositionEv,com
  66              		.align 2
  67              		.weak	_ZN10GuiElement12GetZPositionEv
  68              		.type	_ZN10GuiElement12GetZPositionEv, @function
  69              	_ZN10GuiElement12GetZPositionEv:
  70              	.LFB1386:
  71              		.loc 2 106 0
  72              		.cfi_startproc
  73              	.LVL5:
  74 0000 7C0802A6 		mflr 0
  75 0004 9421FFF0 		stwu 1,-16(1)
  76              	.LCFI0:
  77              		.cfi_def_cfa_offset 16
  78              		.cfi_register 65, 0
  79 0008 93E1000C 		stw 31,12(1)
  80 000c 7C7F1B78 		mr 31,3
  81              		.cfi_offset 31, -4
  82 0010 90010014 		stw 0,20(1)
  83              	.LBB2931:
  84              		.loc 2 110 0
  85 0014 81630060 		lwz 11,96(3)
  86              		.loc 2 108 0
  87 0018 38600000 		li 3,0
  88              	.LVL6:
  89              		.loc 2 110 0
  90 001c 2F8B0000 		cmpwi 7,11,0
  91 0020 419E0018 		beq- 7,.L6
  92              		.cfi_offset 65, 4
  93              		.loc 2 111 0
  94 0024 812B0000 		lwz 9,0(11)
  95 0028 7D635B78 		mr 3,11
  96 002c 80090018 		lwz 0,24(9)
  97 0030 7C0903A6 		mtctr 0
  98 0034 4E800421 		bctrl
  99              	.LVL7:
 100              	.L6:
 101              		.loc 2 113 0
 102 0038 801F0034 		lwz 0,52(31)
 103              	.LBE2931:
 104              		.loc 2 114 0
 105 003c 83E1000C 		lwz 31,12(1)
 106              	.LVL8:
 107 0040 7C630214 		add 3,3,0
 108              	.LVL9:
 109 0044 80010014 		lwz 0,20(1)
 110 0048 38210010 		addi 1,1,16
 111              	.LCFI1:
 112              		.cfi_def_cfa_offset 0
 113              		.cfi_restore 31
 114 004c 7C0803A6 		mtlr 0
 115 0050 4E800020 		blr
 116              		.cfi_endproc
 117              	.LFE1386:
 118              		.size	_ZN10GuiElement12GetZPositionEv, .-_ZN10GuiElement12GetZPositionEv
 119              		.section	.text._ZN10GuiElement10GetLeftPosEv,"axG",@progbits,_ZN10GuiElement10GetLeftPosEv,comdat
 120              		.align 2
 121              		.weak	_ZN10GuiElement10GetLeftPosEv
 122              		.type	_ZN10GuiElement10GetLeftPosEv, @function
 123              	_ZN10GuiElement10GetLeftPosEv:
 124              	.LFB1387:
 125              		.loc 2 116 0
 126              		.cfi_startproc
 127              	.LVL10:
 128              		.loc 2 116 0
 129 0000 8063002C 		lwz 3,44(3)
 130              	.LVL11:
 131 0004 4E800020 		blr
 132              		.cfi_endproc
 133              	.LFE1387:
 134              		.size	_ZN10GuiElement10GetLeftPosEv, .-_ZN10GuiElement10GetLeftPosEv
 135              		.section	.text._ZN10GuiElement9GetTopPosEv,"axG",@progbits,_ZN10GuiElement9GetTopPosEv,comdat
 136              		.align 2
 137              		.weak	_ZN10GuiElement9GetTopPosEv
 138              		.type	_ZN10GuiElement9GetTopPosEv, @function
 139              	_ZN10GuiElement9GetTopPosEv:
 140              	.LFB1388:
 141              		.loc 2 118 0
 142              		.cfi_startproc
 143              	.LVL12:
 144              		.loc 2 118 0
 145 0000 80630030 		lwz 3,48(3)
 146              	.LVL13:
 147 0004 4E800020 		blr
 148              		.cfi_endproc
 149              	.LFE1388:
 150              		.size	_ZN10GuiElement9GetTopPosEv, .-_ZN10GuiElement9GetTopPosEv
 151              		.section	.text._ZN10GuiElement8GetWidthEv,"axG",@progbits,_ZN10GuiElement8GetWidthEv,comdat
 152              		.align 2
 153              		.weak	_ZN10GuiElement8GetWidthEv
 154              		.type	_ZN10GuiElement8GetWidthEv, @function
 155              	_ZN10GuiElement8GetWidthEv:
 156              	.LFB1389:
 157              		.loc 2 121 0
 158              		.cfi_startproc
 159              	.LVL14:
 160              		.loc 2 121 0
 161 0000 80630024 		lwz 3,36(3)
 162              	.LVL15:
 163 0004 4E800020 		blr
 164              		.cfi_endproc
 165              	.LFE1389:
 166              		.size	_ZN10GuiElement8GetWidthEv, .-_ZN10GuiElement8GetWidthEv
 167              		.section	.text._ZN10GuiElement9GetHeightEv,"axG",@progbits,_ZN10GuiElement9GetHeightEv,comdat
 168              		.align 2
 169              		.weak	_ZN10GuiElement9GetHeightEv
 170              		.type	_ZN10GuiElement9GetHeightEv, @function
 171              	_ZN10GuiElement9GetHeightEv:
 172              	.LFB1390:
 173              		.loc 2 124 0
 174              		.cfi_startproc
 175              	.LVL16:
 176              		.loc 2 124 0
 177 0000 80630028 		lwz 3,40(3)
 178              	.LVL17:
 179 0004 4E800020 		blr
 180              		.cfi_endproc
 181              	.LFE1390:
 182              		.size	_ZN10GuiElement9GetHeightEv, .-_ZN10GuiElement9GetHeightEv
 183              		.section	.text._ZN10GuiElement7SetSizeEii,"axG",@progbits,_ZN10GuiElement7SetSizeEii,comdat
 184              		.align 2
 185              		.weak	_ZN10GuiElement7SetSizeEii
 186              		.type	_ZN10GuiElement7SetSizeEii, @function
 187              	_ZN10GuiElement7SetSizeEii:
 188              	.LFB1391:
 189              		.loc 2 128 0
 190              		.cfi_startproc
 191              	.LVL18:
 192              		.loc 2 130 0
 193 0000 90830024 		stw 4,36(3)
 194              		.loc 2 132 0
 195              		.loc 2 131 0
 196 0004 90A30028 		stw 5,40(3)
 197              		.loc 2 132 0
 198 0008 4E800020 		blr
 199              		.cfi_endproc
 200              	.LFE1391:
 201              		.size	_ZN10GuiElement7SetSizeEii, .-_ZN10GuiElement7SetSizeEii
 202              		.section	.text._ZN10GuiElement9IsVisibleEv,"axG",@progbits,_ZN10GuiElement9IsVisibleEv,comdat
 203              		.align 2
 204              		.weak	_ZN10GuiElement9IsVisibleEv
 205              		.type	_ZN10GuiElement9IsVisibleEv, @function
 206              	_ZN10GuiElement9IsVisibleEv:
 207              	.LFB1393:
 208              		.loc 2 142 0
 209              		.cfi_startproc
 210              	.LVL19:
 211              		.loc 2 142 0
 212 0000 8863001D 		lbz 3,29(3)
 213              	.LVL20:
 214 0004 4E800020 		blr
 215              		.cfi_endproc
 216              	.LFE1393:
 217              		.size	_ZN10GuiElement9IsVisibleEv, .-_ZN10GuiElement9IsVisibleEv
 218              		.section	.text._ZN10GuiElement12IsSelectableEv,"axG",@progbits,_ZN10GuiElement12IsSelectableEv,com
 219              		.align 2
 220              		.weak	_ZN10GuiElement12IsSelectableEv
 221              		.type	_ZN10GuiElement12IsSelectableEv, @function
 222              	_ZN10GuiElement12IsSelectableEv:
 223              	.LFB1394:
 224              		.loc 2 145 0
 225              		.cfi_startproc
 226              	.LVL21:
 227              		.loc 2 149 0
 228 0000 80030048 		lwz 0,72(3)
 229 0004 39200000 		li 9,0
 230 0008 2F800004 		cmpwi 7,0,4
 231 000c 419E0010 		beq- 7,.L16
 232              		.loc 2 149 0 is_stmt 0 discriminator 1
 233 0010 2F800002 		cmpwi 7,0,2
 234 0014 419E0008 		beq- 7,.L16
 235              		.loc 2 149 0 discriminator 3
 236 0018 8923001E 		lbz 9,30(3)
 237              	.L16:
 238              		.loc 2 150 0 is_stmt 1 discriminator 5
 239 001c 7D234B78 		mr 3,9
 240              	.LVL22:
 241 0020 4E800020 		blr
 242              		.cfi_endproc
 243              	.LFE1394:
 244              		.size	_ZN10GuiElement12IsSelectableEv, .-_ZN10GuiElement12IsSelectableEv
 245              		.section	.text._ZN10GuiElement11IsClickableEv,"axG",@progbits,_ZN10GuiElement11IsClickableEv,comda
 246              		.align 2
 247              		.weak	_ZN10GuiElement11IsClickableEv
 248              		.type	_ZN10GuiElement11IsClickableEv, @function
 249              	_ZN10GuiElement11IsClickableEv:
 250              	.LFB1395:
 251              		.loc 2 153 0
 252              		.cfi_startproc
 253              	.LVL23:
 254              		.loc 2 158 0
 255 0000 80030048 		lwz 0,72(3)
 256 0004 39200000 		li 9,0
 257 0008 2F800004 		cmpwi 7,0,4
 258 000c 419E0018 		beq- 7,.L20
 259              		.loc 2 158 0 is_stmt 0 discriminator 1
 260 0010 2F800002 		cmpwi 7,0,2
 261 0014 419E0010 		beq- 7,.L20
 262              		.loc 2 158 0 discriminator 3
 263 0018 2F800003 		cmpwi 7,0,3
 264 001c 419E0008 		beq- 7,.L20
 265              		.loc 2 158 0 discriminator 4
 266 0020 8923001F 		lbz 9,31(3)
 267              	.L20:
 268              		.loc 2 159 0 is_stmt 1 discriminator 6
 269 0024 7D234B78 		mr 3,9
 270              	.LVL24:
 271 0028 4E800020 		blr
 272              		.cfi_endproc
 273              	.LFE1395:
 274              		.size	_ZN10GuiElement11IsClickableEv, .-_ZN10GuiElement11IsClickableEv
 275              		.section	.text._ZN10GuiElement10IsHoldableEv,"axG",@progbits,_ZN10GuiElement10IsHoldableEv,comdat
 276              		.align 2
 277              		.weak	_ZN10GuiElement10IsHoldableEv
 278              		.type	_ZN10GuiElement10IsHoldableEv, @function
 279              	_ZN10GuiElement10IsHoldableEv:
 280              	.LFB1396:
 281              		.loc 2 162 0
 282              		.cfi_startproc
 283              	.LVL25:
 284              		.loc 2 162 0
 285 0000 81230048 		lwz 9,72(3)
 286 0004 38000000 		li 0,0
 287 0008 2F890004 		cmpwi 7,9,4
 288 000c 419E0008 		beq- 7,.L25
 289              		.loc 2 162 0 is_stmt 0 discriminator 1
 290 0010 88030020 		lbz 0,32(3)
 291              	.L25:
 292              		.loc 2 162 0 discriminator 4
 293 0014 7C030378 		mr 3,0
 294              	.LVL26:
 295 0018 4E800020 		blr
 296              		.cfi_endproc
 297              	.LFE1396:
 298              		.size	_ZN10GuiElement10IsHoldableEv, .-_ZN10GuiElement10IsHoldableEv
 299              		.section	.text._ZN10GuiElement13SetSelectableEb,"axG",@progbits,_ZN10GuiElement13SetSelectableEb,c
 300              		.align 2
 301              		.weak	_ZN10GuiElement13SetSelectableEb
 302              		.type	_ZN10GuiElement13SetSelectableEb, @function
 303              	_ZN10GuiElement13SetSelectableEb:
 304              	.LFB1397:
 305              		.loc 2 165 0 is_stmt 1
 306              		.cfi_startproc
 307              	.LVL27:
 308              		.loc 2 165 0
 309 0000 9883001E 		stb 4,30(3)
 310 0004 4E800020 		blr
 311              		.cfi_endproc
 312              	.LFE1397:
 313              		.size	_ZN10GuiElement13SetSelectableEb, .-_ZN10GuiElement13SetSelectableEb
 314              		.section	.text._ZN10GuiElement12SetClickableEb,"axG",@progbits,_ZN10GuiElement12SetClickableEb,com
 315              		.align 2
 316              		.weak	_ZN10GuiElement12SetClickableEb
 317              		.type	_ZN10GuiElement12SetClickableEb, @function
 318              	_ZN10GuiElement12SetClickableEb:
 319              	.LFB1398:
 320              		.loc 2 168 0
 321              		.cfi_startproc
 322              	.LVL28:
 323              		.loc 2 168 0
 324 0000 9883001F 		stb 4,31(3)
 325 0004 4E800020 		blr
 326              		.cfi_endproc
 327              	.LFE1398:
 328              		.size	_ZN10GuiElement12SetClickableEb, .-_ZN10GuiElement12SetClickableEb
 329              		.section	.text._ZN10GuiElement11SetHoldableEb,"axG",@progbits,_ZN10GuiElement11SetHoldableEb,comda
 330              		.align 2
 331              		.weak	_ZN10GuiElement11SetHoldableEb
 332              		.type	_ZN10GuiElement11SetHoldableEb, @function
 333              	_ZN10GuiElement11SetHoldableEb:
 334              	.LFB1399:
 335              		.loc 2 171 0
 336              		.cfi_startproc
 337              	.LVL29:
 338              		.loc 2 171 0
 339 0000 98830020 		stb 4,32(3)
 340 0004 4E800020 		blr
 341              		.cfi_endproc
 342              	.LFE1399:
 343              		.size	_ZN10GuiElement11SetHoldableEb, .-_ZN10GuiElement11SetHoldableEb
 344              		.section	.text._ZN10GuiElement8GetStateEv,"axG",@progbits,_ZN10GuiElement8GetStateEv,comdat
 345              		.align 2
 346              		.weak	_ZN10GuiElement8GetStateEv
 347              		.type	_ZN10GuiElement8GetStateEv, @function
 348              	_ZN10GuiElement8GetStateEv:
 349              	.LFB1400:
 350              		.loc 2 178 0
 351              		.cfi_startproc
 352              	.LVL30:
 353              		.loc 2 178 0
 354 0000 80630048 		lwz 3,72(3)
 355              	.LVL31:
 356 0004 4E800020 		blr
 357              		.cfi_endproc
 358              	.LFE1400:
 359              		.size	_ZN10GuiElement8GetStateEv, .-_ZN10GuiElement8GetStateEv
 360              		.section	.text._ZN10GuiElement12GetStateChanEv,"axG",@progbits,_ZN10GuiElement12GetStateChanEv,com
 361              		.align 2
 362              		.weak	_ZN10GuiElement12GetStateChanEv
 363              		.type	_ZN10GuiElement12GetStateChanEv, @function
 364              	_ZN10GuiElement12GetStateChanEv:
 365              	.LFB1401:
 366              		.loc 2 181 0
 367              		.cfi_startproc
 368              	.LVL32:
 369              		.loc 2 181 0
 370 0000 8063004C 		lwz 3,76(3)
 371              	.LVL33:
 372 0004 4E800020 		blr
 373              		.cfi_endproc
 374              	.LFE1401:
 375              		.size	_ZN10GuiElement12GetStateChanEv, .-_ZN10GuiElement12GetStateChanEv
 376              		.section	.text._ZN10GuiElement8SetAlphaEi,"axG",@progbits,_ZN10GuiElement8SetAlphaEi,comdat
 377              		.align 2
 378              		.weak	_ZN10GuiElement8SetAlphaEi
 379              		.type	_ZN10GuiElement8SetAlphaEi, @function
 380              	_ZN10GuiElement8SetAlphaEi:
 381              	.LFB1403:
 382              		.loc 2 190 0
 383              		.cfi_startproc
 384              	.LVL34:
 385              		.loc 2 190 0
 386 0000 90830038 		stw 4,56(3)
 387 0004 4E800020 		blr
 388              		.cfi_endproc
 389              	.LFE1403:
 390              		.size	_ZN10GuiElement8SetAlphaEi, .-_ZN10GuiElement8SetAlphaEi
 391              		.section	.text._ZN10GuiElement8GetAlphaEv,"axG",@progbits,_ZN10GuiElement8GetAlphaEv,comdat
 392              		.align 2
 393              		.weak	_ZN10GuiElement8GetAlphaEv
 394              		.type	_ZN10GuiElement8GetAlphaEv, @function
 395              	_ZN10GuiElement8GetAlphaEv:
 396              	.LFB1404:
 397              		.loc 2 194 0
 398              		.cfi_startproc
 399              	.LVL35:
 400 0000 7C0802A6 		mflr 0
 401 0004 9421FFD8 		stwu 1,-40(1)
 402              	.LCFI2:
 403              		.cfi_def_cfa_offset 40
 404              		.cfi_register 65, 0
 405 0008 93E10024 		stw 31,36(1)
 406 000c 9001002C 		stw 0,44(1)
 407              	.LBB2932:
 408              		.loc 2 198 0
 409 0010 83E3006C 		lwz 31,108(3)
 410              		.cfi_offset 65, 4
 411              		.cfi_offset 31, -4
 412 0014 2F9F0000 		cmpwi 7,31,0
 413 0018 419C0094 		blt- 7,.L36
 414              	.L34:
 415              	.LVL36:
 416              		.loc 2 203 0
 417 001c 80630060 		lwz 3,96(3)
 418              	.LVL37:
 419 0020 2F830000 		cmpwi 7,3,0
 420 0024 419E0070 		beq- 7,.L35
 421              		.loc 2 204 0
 422 0028 81230000 		lwz 9,0(3)
 423 002c 6FFF8000 		xoris 31,31,0x8000
 424              	.LVL38:
 425 0030 80090064 		lwz 0,100(9)
 426 0034 7C0903A6 		mtctr 0
 427 0038 4E800421 		bctrl
 428 003c 3C004330 		lis 0,0x4330
 429 0040 6C638000 		xoris 3,3,0x8000
 430 0044 90010010 		stw 0,16(1)
 431 0048 90610014 		stw 3,20(1)
 432 004c 3D200000 		lis 9,.LC1@ha
 433 0050 C0090000 		lfs 0,.LC1@l(9)
 434 0054 3D200000 		lis 9,.LC2@ha
 435 0058 C9A10010 		lfd 13,16(1)
 436 005c C1890004 		lfs 12,.LC2@l(9)
 437 0060 39210018 		addi 9,1,24
 438 0064 FDAD0028 		fsub 13,13,0
 439 0068 93E1000C 		stw 31,12(1)
 440 006c 90010008 		stw 0,8(1)
 441 0070 FDA06818 		frsp 13,13
 442 0074 EDAD6024 		fdivs 13,13,12
 443 0078 C9810008 		lfd 12,8(1)
 444 007c FC0C0028 		fsub 0,12,0
 445 0080 FC000018 		frsp 0,0
 446 0084 EC000372 		fmuls 0,0,13
 447 0088 FC00001E 		fctiwz 0,0
 448 008c 7C004FAE 		stfiwx 0,0,9
 449 0090 83E10018 		lwz 31,24(1)
 450              	.LVL39:
 451              	.L35:
 452              	.LBE2932:
 453              		.loc 2 207 0
 454 0094 8001002C 		lwz 0,44(1)
 455 0098 7FE3FB78 		mr 3,31
 456 009c 83E10024 		lwz 31,36(1)
 457              	.LVL40:
 458 00a0 7C0803A6 		mtlr 0
 459 00a4 38210028 		addi 1,1,40
 460              		.cfi_remember_state
 461              	.LCFI3:
 462              		.cfi_def_cfa_offset 0
 463              		.cfi_restore 31
 464 00a8 4E800020 		blr
 465              	.LVL41:
 466              	.L36:
 467              	.LCFI4:
 468              		.cfi_restore_state
 469              	.LBB2933:
 470              		.loc 2 201 0
 471 00ac 83E30038 		lwz 31,56(3)
 472              	.LVL42:
 473 00b0 4BFFFF6C 		b .L34
 474              	.LBE2933:
 475              		.cfi_endproc
 476              	.LFE1404:
 477              		.size	_ZN10GuiElement8GetAlphaEv, .-_ZN10GuiElement8GetAlphaEv
 478              		.section	.text._ZN10GuiElement8SetScaleEf,"axG",@progbits,_ZN10GuiElement8SetScaleEf,comdat
 479              		.align 2
 480              		.weak	_ZN10GuiElement8SetScaleEf
 481              		.type	_ZN10GuiElement8SetScaleEf, @function
 482              	_ZN10GuiElement8SetScaleEf:
 483              	.LFB1405:
 484              		.loc 2 210 0
 485              		.cfi_startproc
 486              	.LVL43:
 487              		.loc 2 212 0
 488 0000 D023003C 		stfs 1,60(3)
 489              		.loc 2 214 0
 490              		.loc 2 213 0
 491 0004 D0230040 		stfs 1,64(3)
 492              		.loc 2 214 0
 493 0008 4E800020 		blr
 494              		.cfi_endproc
 495              	.LFE1405:
 496              		.size	_ZN10GuiElement8SetScaleEf, .-_ZN10GuiElement8SetScaleEf
 497              		.section	.text._ZN10GuiElement9SetScaleXEf,"axG",@progbits,_ZN10GuiElement9SetScaleXEf,comdat
 498              		.align 2
 499              		.weak	_ZN10GuiElement9SetScaleXEf
 500              		.type	_ZN10GuiElement9SetScaleXEf, @function
 501              	_ZN10GuiElement9SetScaleXEf:
 502              	.LFB1406:
 503              		.loc 2 217 0
 504              		.cfi_startproc
 505              	.LVL44:
 506              		.loc 2 217 0
 507 0000 D023003C 		stfs 1,60(3)
 508 0004 4E800020 		blr
 509              		.cfi_endproc
 510              	.LFE1406:
 511              		.size	_ZN10GuiElement9SetScaleXEf, .-_ZN10GuiElement9SetScaleXEf
 512              		.section	.text._ZN10GuiElement9SetScaleYEf,"axG",@progbits,_ZN10GuiElement9SetScaleYEf,comdat
 513              		.align 2
 514              		.weak	_ZN10GuiElement9SetScaleYEf
 515              		.type	_ZN10GuiElement9SetScaleYEf, @function
 516              	_ZN10GuiElement9SetScaleYEf:
 517              	.LFB1407:
 518              		.loc 2 220 0
 519              		.cfi_startproc
 520              	.LVL45:
 521              		.loc 2 220 0
 522 0000 D0230040 		stfs 1,64(3)
 523 0004 4E800020 		blr
 524              		.cfi_endproc
 525              	.LFE1407:
 526              		.size	_ZN10GuiElement9SetScaleYEf, .-_ZN10GuiElement9SetScaleYEf
 527              		.section	.text._ZN10GuiElement8GetScaleEv,"axG",@progbits,_ZN10GuiElement8GetScaleEv,comdat
 528              		.align 2
 529              		.weak	_ZN10GuiElement8GetScaleEv
 530              		.type	_ZN10GuiElement8GetScaleEv, @function
 531              	_ZN10GuiElement8GetScaleEv:
 532              	.LFB1408:
 533              		.loc 2 223 0
 534              		.cfi_startproc
 535              	.LVL46:
 536 0000 7C0802A6 		mflr 0
 537 0004 9421FFF0 		stwu 1,-16(1)
 538              	.LCFI5:
 539              		.cfi_def_cfa_offset 16
 540              		.cfi_register 65, 0
 541              	.LBB2934:
 542              		.loc 2 225 0
 543 0008 3D200000 		lis 9,.LC3@ha
 544              	.LBE2934:
 545              		.loc 2 223 0
 546 000c DBE10008 		stfd 31,8(1)
 547 0010 90010014 		stw 0,20(1)
 548              	.LBB2935:
 549              		.loc 2 225 0
 550 0014 C0030040 		lfs 0,64(3)
 551 0018 C3E3003C 		lfs 31,60(3)
 552              		.cfi_offset 65, 4
 553              		.cfi_offset 63, -8
 554              		.loc 2 227 0
 555 001c 81630060 		lwz 11,96(3)
 556              		.loc 2 225 0
 557 0020 EFFF002A 		fadds 31,31,0
 558 0024 C0090008 		lfs 0,.LC3@l(9)
 559              		.loc 2 227 0
 560 0028 2F8B0000 		cmpwi 7,11,0
 561              		.loc 2 225 0
 562 002c EFFF0032 		fmuls 31,31,0
 563 0030 C0030070 		lfs 0,112(3)
 564 0034 EFFF0032 		fmuls 31,31,0
 565              	.LVL47:
 566              		.loc 2 227 0
 567 0038 419E001C 		beq- 7,.L41
 568              		.loc 2 228 0
 569 003c 812B0000 		lwz 9,0(11)
 570 0040 7D635B78 		mr 3,11
 571              	.LVL48:
 572 0044 80090074 		lwz 0,116(9)
 573 0048 7C0903A6 		mtctr 0
 574 004c 4E800421 		bctrl
 575 0050 EFFF0072 		fmuls 31,31,1
 576              	.LVL49:
 577              	.L41:
 578              	.LBE2935:
 579              		.loc 2 231 0
 580 0054 80010014 		lwz 0,20(1)
 581 0058 FC20F890 		fmr 1,31
 582 005c CBE10008 		lfd 31,8(1)
 583              	.LVL50:
 584 0060 7C0803A6 		mtlr 0
 585 0064 38210010 		addi 1,1,16
 586              	.LCFI6:
 587              		.cfi_def_cfa_offset 0
 588              		.cfi_restore 63
 589 0068 4E800020 		blr
 590              		.cfi_endproc
 591              	.LFE1408:
 592              		.size	_ZN10GuiElement8GetScaleEv, .-_ZN10GuiElement8GetScaleEv
 593              		.section	.text._ZN10GuiElement9GetScaleXEv,"axG",@progbits,_ZN10GuiElement9GetScaleXEv,comdat
 594              		.align 2
 595              		.weak	_ZN10GuiElement9GetScaleXEv
 596              		.type	_ZN10GuiElement9GetScaleXEv, @function
 597              	_ZN10GuiElement9GetScaleXEv:
 598              	.LFB1409:
 599              		.loc 2 234 0
 600              		.cfi_startproc
 601              	.LVL51:
 602 0000 7C0802A6 		mflr 0
 603 0004 9421FFF0 		stwu 1,-16(1)
 604              	.LCFI7:
 605              		.cfi_def_cfa_offset 16
 606              		.cfi_register 65, 0
 607 0008 DBE10008 		stfd 31,8(1)
 608 000c 90010014 		stw 0,20(1)
 609              	.LBB2936:
 610              		.loc 2 238 0
 611 0010 81630060 		lwz 11,96(3)
 612              		.loc 2 236 0
 613 0014 C3E3003C 		lfs 31,60(3)
 614              		.cfi_offset 65, 4
 615              		.cfi_offset 63, -8
 616              		.loc 2 238 0
 617 0018 2F8B0000 		cmpwi 7,11,0
 618              		.loc 2 236 0
 619 001c C0030070 		lfs 0,112(3)
 620 0020 EFFF0032 		fmuls 31,31,0
 621              	.LVL52:
 622              		.loc 2 238 0
 623 0024 419E001C 		beq- 7,.L43
 624              		.loc 2 239 0
 625 0028 812B0000 		lwz 9,0(11)
 626 002c 7D635B78 		mr 3,11
 627              	.LVL53:
 628 0030 80090078 		lwz 0,120(9)
 629 0034 7C0903A6 		mtctr 0
 630 0038 4E800421 		bctrl
 631 003c EFFF0072 		fmuls 31,31,1
 632              	.LVL54:
 633              	.L43:
 634              	.LBE2936:
 635              		.loc 2 242 0
 636 0040 80010014 		lwz 0,20(1)
 637 0044 FC20F890 		fmr 1,31
 638 0048 CBE10008 		lfd 31,8(1)
 639              	.LVL55:
 640 004c 7C0803A6 		mtlr 0
 641 0050 38210010 		addi 1,1,16
 642              	.LCFI8:
 643              		.cfi_def_cfa_offset 0
 644              		.cfi_restore 63
 645 0054 4E800020 		blr
 646              		.cfi_endproc
 647              	.LFE1409:
 648              		.size	_ZN10GuiElement9GetScaleXEv, .-_ZN10GuiElement9GetScaleXEv
 649              		.section	.text._ZN10GuiElement9GetScaleYEv,"axG",@progbits,_ZN10GuiElement9GetScaleYEv,comdat
 650              		.align 2
 651              		.weak	_ZN10GuiElement9GetScaleYEv
 652              		.type	_ZN10GuiElement9GetScaleYEv, @function
 653              	_ZN10GuiElement9GetScaleYEv:
 654              	.LFB1410:
 655              		.loc 2 245 0
 656              		.cfi_startproc
 657              	.LVL56:
 658 0000 7C0802A6 		mflr 0
 659 0004 9421FFF0 		stwu 1,-16(1)
 660              	.LCFI9:
 661              		.cfi_def_cfa_offset 16
 662              		.cfi_register 65, 0
 663 0008 DBE10008 		stfd 31,8(1)
 664 000c 90010014 		stw 0,20(1)
 665              	.LBB2937:
 666              		.loc 2 249 0
 667 0010 81630060 		lwz 11,96(3)
 668              		.loc 2 247 0
 669 0014 C3E30040 		lfs 31,64(3)
 670              		.cfi_offset 65, 4
 671              		.cfi_offset 63, -8
 672              		.loc 2 249 0
 673 0018 2F8B0000 		cmpwi 7,11,0
 674              		.loc 2 247 0
 675 001c C0030070 		lfs 0,112(3)
 676 0020 EFFF0032 		fmuls 31,31,0
 677              	.LVL57:
 678              		.loc 2 249 0
 679 0024 419E001C 		beq- 7,.L45
 680              		.loc 2 250 0
 681 0028 812B0000 		lwz 9,0(11)
 682 002c 7D635B78 		mr 3,11
 683              	.LVL58:
 684 0030 8009007C 		lwz 0,124(9)
 685 0034 7C0903A6 		mtctr 0
 686 0038 4E800421 		bctrl
 687 003c EFFF0072 		fmuls 31,31,1
 688              	.LVL59:
 689              	.L45:
 690              	.LBE2937:
 691              		.loc 2 253 0
 692 0040 80010014 		lwz 0,20(1)
 693 0044 FC20F890 		fmr 1,31
 694 0048 CBE10008 		lfd 31,8(1)
 695              	.LVL60:
 696 004c 7C0803A6 		mtlr 0
 697 0050 38210010 		addi 1,1,16
 698              	.LCFI10:
 699              		.cfi_def_cfa_offset 0
 700              		.cfi_restore 63
 701 0054 4E800020 		blr
 702              		.cfi_endproc
 703              	.LFE1410:
 704              		.size	_ZN10GuiElement9GetScaleYEv, .-_ZN10GuiElement9GetScaleYEv
 705              		.section	.text._ZN10GuiElement6RumbleEv,"axG",@progbits,_ZN10GuiElement6RumbleEv,comdat
 706              		.align 2
 707              		.weak	_ZN10GuiElement6RumbleEv
 708              		.type	_ZN10GuiElement6RumbleEv, @function
 709              	_ZN10GuiElement6RumbleEv:
 710              	.LFB1411:
 711              		.loc 2 256 0
 712              		.cfi_startproc
 713              	.LVL61:
 714              		.loc 2 256 0
 715 0000 8863001C 		lbz 3,28(3)
 716              	.LVL62:
 717 0004 4E800020 		blr
 718              		.cfi_endproc
 719              	.LFE1411:
 720              		.size	_ZN10GuiElement6RumbleEv, .-_ZN10GuiElement6RumbleEv
 721              		.section	.text._ZN10GuiElement9SetRumbleEb,"axG",@progbits,_ZN10GuiElement9SetRumbleEb,comdat
 722              		.align 2
 723              		.weak	_ZN10GuiElement9SetRumbleEb
 724              		.type	_ZN10GuiElement9SetRumbleEb, @function
 725              	_ZN10GuiElement9SetRumbleEb:
 726              	.LFB1412:
 727              		.loc 2 259 0
 728              		.cfi_startproc
 729              	.LVL63:
 730              		.loc 2 259 0
 731 0000 9883001C 		stb 4,28(3)
 732 0004 4E800020 		blr
 733              		.cfi_endproc
 734              	.LFE1412:
 735              		.size	_ZN10GuiElement9SetRumbleEb, .-_ZN10GuiElement9SetRumbleEb
 736              		.section	.text._ZN10GuiElement13SetEffectGrowEv,"axG",@progbits,_ZN10GuiElement13SetEffectGrowEv,c
 737              		.align 2
 738              		.weak	_ZN10GuiElement13SetEffectGrowEv
 739              		.type	_ZN10GuiElement13SetEffectGrowEv, @function
 740              	_ZN10GuiElement13SetEffectGrowEv:
 741              	.LFB1413:
 742              		.loc 2 271 0
 743              		.cfi_startproc
 744              	.LVL64:
 745 0000 7C0802A6 		mflr 0
 746 0004 9421FFF8 		stwu 1,-8(1)
 747              	.LCFI11:
 748              		.cfi_def_cfa_offset 8
 749              		.cfi_register 65, 0
 750 0008 81230000 		lwz 9,0(3)
 751 000c 38800100 		li 4,256
 752 0010 38A00004 		li 5,4
 753 0014 38C0006E 		li 6,110
 754 0018 9001000C 		stw 0,12(1)
 755              		.loc 2 271 0
 756 001c 8009008C 		lwz 0,140(9)
 757              		.cfi_offset 65, 4
 758 0020 7C0903A6 		mtctr 0
 759 0024 4E800421 		bctrl
 760              	.LVL65:
 761 0028 8001000C 		lwz 0,12(1)
 762 002c 38210008 		addi 1,1,8
 763              	.LCFI12:
 764              		.cfi_def_cfa_offset 0
 765 0030 7C0803A6 		mtlr 0
 766 0034 4E800020 		blr
 767              		.cfi_endproc
 768              	.LFE1413:
 769              		.size	_ZN10GuiElement13SetEffectGrowEv, .-_ZN10GuiElement13SetEffectGrowEv
 770              		.section	.text._ZNK10GuiElement9GetEffectEv,"axG",@progbits,_ZNK10GuiElement9GetEffectEv,comdat
 771              		.align 2
 772              		.weak	_ZNK10GuiElement9GetEffectEv
 773              		.type	_ZNK10GuiElement9GetEffectEv, @function
 774              	_ZNK10GuiElement9GetEffectEv:
 775              	.LFB1414:
 776              		.loc 2 276 0
 777              		.cfi_startproc
 778              	.LVL66:
 779              		.loc 2 276 0
 780 0000 80630078 		lwz 3,120(3)
 781              	.LVL67:
 782 0004 4E800020 		blr
 783              		.cfi_endproc
 784              	.LFE1414:
 785              		.size	_ZNK10GuiElement9GetEffectEv, .-_ZNK10GuiElement9GetEffectEv
 786              		.section	.text._ZNK10GuiElement10IsAnimatedEv,"axG",@progbits,_ZNK10GuiElement10IsAnimatedEv,comda
 787              		.align 2
 788              		.weak	_ZNK10GuiElement10IsAnimatedEv
 789              		.type	_ZNK10GuiElement10IsAnimatedEv, @function
 790              	_ZNK10GuiElement10IsAnimatedEv:
 791              	.LFB1415:
 792              		.loc 2 278 0
 793              		.cfi_startproc
 794              	.LVL68:
 795 0000 7C0802A6 		mflr 0
 796 0004 9421FFF8 		stwu 1,-8(1)
 797              	.LCFI13:
 798              		.cfi_def_cfa_offset 8
 799              		.cfi_register 65, 0
 800 0008 9001000C 		stw 0,12(1)
 801              		.loc 2 278 0
 802 000c 81230000 		lwz 9,0(3)
 803 0010 80090098 		lwz 0,152(9)
 804              		.cfi_offset 65, 4
 805 0014 7C0903A6 		mtctr 0
 806 0018 4E800421 		bctrl
 807              	.LVL69:
 808 001c 7C60FE70 		srawi 0,3,31
 809 0020 7C630050 		subf 3,3,0
 810 0024 8001000C 		lwz 0,12(1)
 811 0028 54630FFE 		srwi 3,3,31
 812 002c 7C0803A6 		mtlr 0
 813 0030 38210008 		addi 1,1,8
 814              	.LCFI14:
 815              		.cfi_def_cfa_offset 0
 816 0034 4E800020 		blr
 817              		.cfi_endproc
 818              	.LFE1415:
 819              		.size	_ZNK10GuiElement10IsAnimatedEv, .-_ZNK10GuiElement10IsAnimatedEv
 820              		.section	.text._ZN10GuiElement8IsInsideEii,"axG",@progbits,_ZN10GuiElement8IsInsideEii,comdat
 821              		.align 2
 822              		.weak	_ZN10GuiElement8IsInsideEii
 823              		.type	_ZN10GuiElement8IsInsideEii, @function
 824              	_ZN10GuiElement8IsInsideEii:
 825              	.LFB1417:
 826              		.loc 2 285 0
 827              		.cfi_startproc
 828              	.LVL70:
 829 0000 7C0802A6 		mflr 0
 830 0004 9421FFE8 		stwu 1,-24(1)
 831              	.LCFI15:
 832              		.cfi_def_cfa_offset 24
 833              		.cfi_register 65, 0
 834 0008 93810008 		stw 28,8(1)
 835 000c 7CBC2B78 		mr 28,5
 836              		.cfi_offset 28, -16
 837 0010 9001001C 		stw 0,28(1)
 838 0014 93A1000C 		stw 29,12(1)
 839              		.loc 2 290 0
 840 0018 3BA00000 		li 29,0
 841              		.cfi_offset 29, -12
 842              		.cfi_offset 65, 4
 843              		.loc 2 287 0
 844 001c 81230000 		lwz 9,0(3)
 845              		.loc 2 285 0
 846 0020 93C10010 		stw 30,16(1)
 847 0024 7C9E2378 		mr 30,4
 848              		.cfi_offset 30, -8
 849              		.loc 2 287 0
 850 0028 80090010 		lwz 0,16(9)
 851              		.loc 2 285 0
 852 002c 93E10014 		stw 31,20(1)
 853              		.loc 2 285 0
 854 0030 7C7F1B78 		mr 31,3
 855              		.cfi_offset 31, -4
 856              		.loc 2 287 0
 857 0034 7C0903A6 		mtctr 0
 858 0038 4E800421 		bctrl
 859              	.LVL71:
 860              		.loc 2 290 0
 861 003c 7F83F000 		cmpw 7,3,30
 862 0040 419C0028 		blt- 7,.L56
 863              	.L52:
 864              		.loc 2 291 0 discriminator 6
 865 0044 8001001C 		lwz 0,28(1)
 866 0048 7FA3EB78 		mr 3,29
 867 004c 83810008 		lwz 28,8(1)
 868              	.LVL72:
 869 0050 7C0803A6 		mtlr 0
 870 0054 83A1000C 		lwz 29,12(1)
 871 0058 83C10010 		lwz 30,16(1)
 872              	.LVL73:
 873 005c 83E10014 		lwz 31,20(1)
 874              	.LVL74:
 875 0060 38210018 		addi 1,1,24
 876              		.cfi_remember_state
 877              	.LCFI16:
 878              		.cfi_def_cfa_offset 0
 879              		.cfi_restore 31
 880              		.cfi_restore 30
 881              		.cfi_restore 29
 882              		.cfi_restore 28
 883 0064 4E800020 		blr
 884              	.LVL75:
 885              	.L56:
 886              	.LCFI17:
 887              		.cfi_restore_state
 888              		.loc 2 288 0 discriminator 1
 889 0068 813F0000 		lwz 9,0(31)
 890 006c 7FE3FB78 		mr 3,31
 891 0070 80090010 		lwz 0,16(9)
 892 0074 7C0903A6 		mtctr 0
 893 0078 4E800421 		bctrl
 894              		.loc 2 290 0 discriminator 1
 895 007c 801F0024 		lwz 0,36(31)
 896 0080 7C030214 		add 0,3,0
 897 0084 7F9E0000 		cmpw 7,30,0
 898 0088 409CFFBC 		bge+ 7,.L52
 899              		.loc 2 289 0 discriminator 3
 900 008c 813F0000 		lwz 9,0(31)
 901 0090 7FE3FB78 		mr 3,31
 902 0094 80090014 		lwz 0,20(9)
 903 0098 7C0903A6 		mtctr 0
 904 009c 4E800421 		bctrl
 905              		.loc 2 290 0 discriminator 3
 906 00a0 7F83E000 		cmpw 7,3,28
 907 00a4 409CFFA0 		bge+ 7,.L52
 908              		.loc 2 290 0 is_stmt 0 discriminator 4
 909 00a8 813F0000 		lwz 9,0(31)
 910 00ac 7FE3FB78 		mr 3,31
 911 00b0 80090014 		lwz 0,20(9)
 912 00b4 7C0903A6 		mtctr 0
 913 00b8 4E800421 		bctrl
 914 00bc 801F0028 		lwz 0,40(31)
 915 00c0 7C030214 		add 0,3,0
 916              		.loc 2 285 0 is_stmt 1 discriminator 4
 917 00c4 7F9C0000 		cmpw 7,28,0
 918 00c8 7FA00026 		mfcr 29
 919 00cc 57BDEFFE 		rlwinm 29,29,29,1
 920 00d0 4BFFFF74 		b .L52
 921              		.cfi_endproc
 922              	.LFE1417:
 923              		.size	_ZN10GuiElement8IsInsideEii, .-_ZN10GuiElement8IsInsideEii
 924              		.section	.text._ZN10GuiElement11SetPositionEii,"axG",@progbits,_ZN10GuiElement11SetPositionEii,com
 925              		.align 2
 926              		.weak	_ZN10GuiElement11SetPositionEii
 927              		.type	_ZN10GuiElement11SetPositionEii, @function
 928              	_ZN10GuiElement11SetPositionEii:
 929              	.LFB1418:
 930              		.loc 2 295 0
 931              		.cfi_startproc
 932              	.LVL76:
 933              		.loc 2 297 0
 934 0000 9083002C 		stw 4,44(3)
 935              		.loc 2 299 0
 936              		.loc 2 298 0
 937 0004 90A30030 		stw 5,48(3)
 938              		.loc 2 299 0
 939 0008 4E800020 		blr
 940              		.cfi_endproc
 941              	.LFE1418:
 942              		.size	_ZN10GuiElement11SetPositionEii, .-_ZN10GuiElement11SetPositionEii
 943              		.section	.text._ZN10GuiElement11SetPositionEiii,"axG",@progbits,_ZN10GuiElement11SetPositionEiii,c
 944              		.align 2
 945              		.weak	_ZN10GuiElement11SetPositionEiii
 946              		.type	_ZN10GuiElement11SetPositionEiii, @function
 947              	_ZN10GuiElement11SetPositionEiii:
 948              	.LFB1419:
 949              		.loc 2 304 0
 950              		.cfi_startproc
 951              	.LVL77:
 952              		.loc 2 306 0
 953 0000 9083002C 		stw 4,44(3)
 954              		.loc 2 309 0
 955              		.loc 2 307 0
 956 0004 90A30030 		stw 5,48(3)
 957              		.loc 2 308 0
 958 0008 90C30034 		stw 6,52(3)
 959              		.loc 2 309 0
 960 000c 4E800020 		blr
 961              		.cfi_endproc
 962              	.LFE1419:
 963              		.size	_ZN10GuiElement11SetPositionEiii, .-_ZN10GuiElement11SetPositionEiii
 964              		.section	.text._ZN10GuiElement12SetAlignmentEi,"axG",@progbits,_ZN10GuiElement12SetAlignmentEi,com
 965              		.align 2
 966              		.weak	_ZN10GuiElement12SetAlignmentEi
 967              		.type	_ZN10GuiElement12SetAlignmentEi, @function
 968              	_ZN10GuiElement12SetAlignmentEi:
 969              	.LFB1421:
 970              		.loc 2 316 0
 971              		.cfi_startproc
 972              	.LVL78:
 973              		.loc 2 316 0
 974 0000 90830044 		stw 4,68(3)
 975 0004 4E800020 		blr
 976              		.cfi_endproc
 977              	.LFE1421:
 978              		.size	_ZN10GuiElement12SetAlignmentEi, .-_ZN10GuiElement12SetAlignmentEi
 979              		.section	.text._ZNK10GuiElement12GetAlignmentEv,"axG",@progbits,_ZNK10GuiElement12GetAlignmentEv,c
 980              		.align 2
 981              		.weak	_ZNK10GuiElement12GetAlignmentEv
 982              		.type	_ZNK10GuiElement12GetAlignmentEv, @function
 983              	_ZNK10GuiElement12GetAlignmentEv:
 984              	.LFB1422:
 985              		.loc 2 318 0
 986              		.cfi_startproc
 987              	.LVL79:
 988              		.loc 2 318 0
 989 0000 80630044 		lwz 3,68(3)
 990              	.LVL80:
 991 0004 4E800020 		blr
 992              		.cfi_endproc
 993              	.LFE1422:
 994              		.size	_ZNK10GuiElement12GetAlignmentEv, .-_ZNK10GuiElement12GetAlignmentEv
 995              		.section	.text._ZN8GuiFrame4execEv,"axG",@progbits,_ZN8GuiFrame4execEv,comdat
 996              		.align 2
 997              		.weak	_ZN8GuiFrame4execEv
 998              		.type	_ZN8GuiFrame4execEv, @function
 999              	_ZN8GuiFrame4execEv:
 1000              	.LFB1433:
 1001              		.file 3 "d:/Projects/SaveGameManager/savegame-manager-gx/trunk/source/Themes/../Settings/menus/../
 1002              		.loc 3 83 0
 1003              		.cfi_startproc
 1004              	.LVL81:
 1005              		.loc 3 83 0
 1006 0000 4E800020 		blr
 1007              		.cfi_endproc
 1008              	.LFE1433:
 1009              		.size	_ZN8GuiFrame4execEv, .-_ZN8GuiFrame4execEv
 1010              		.section	.text._ZN8GuiFrame12updateEventsEv,"axG",@progbits,_ZN8GuiFrame12updateEventsEv,comdat
 1011              		.align 2
 1012              		.weak	_ZN8GuiFrame12updateEventsEv
 1013              		.type	_ZN8GuiFrame12updateEventsEv, @function
 1014              	_ZN8GuiFrame12updateEventsEv:
 1015              	.LFB1434:
 1016              		.loc 3 85 0
 1017              		.cfi_startproc
 1018              	.LVL82:
 1019              		.loc 3 85 0
 1020 0000 4E800020 		blr
 1021              		.cfi_endproc
 1022              	.LFE1434:
 1023              		.size	_ZN8GuiFrame12updateEventsEv, .-_ZN8GuiFrame12updateEventsEv
 1024              		.section	".text"
 1025              		.align 2
 1026              		.globl _ZN15ThemeDownloader13OnStateChangeEP10GuiElementii
 1027              		.type	_ZN15ThemeDownloader13OnStateChangeEP10GuiElementii, @function
 1028              	_ZN15ThemeDownloader13OnStateChangeEP10GuiElementii:
 1029              	.LFB1615:
 1030              		.file 4 "d:/Projects/SaveGameManager/savegame-manager-gx/trunk/source/Themes/ThemeDownloader.cpp"
 1031              		.loc 4 232 0
 1032              		.cfi_startproc
 1033              	.LVL83:
 1034 0000 7C0802A6 		mflr 0
 1035 0004 9421FFF8 		stwu 1,-8(1)
 1036              	.LCFI18:
 1037              		.cfi_def_cfa_offset 8
 1038              		.cfi_register 65, 0
 1039 0008 9001000C 		stw 0,12(1)
 1040              	.LBB2938:
 1041              		.loc 4 281 0
 1042 000c 81230164 		lwz 9,356(3)
 1043              	.LBB2939:
 1044              	.LBB2940:
 1045              	.LBB2941:
 1046              		.file 5 "d:\\devkitpro\\devkitppc\\bin\\../lib/gcc/powerpc-eabi/4.6.3/../../../../powerpc-eabi/inc
 1047              		.loc 5 571 0
 1048 0010 81430168 		lwz 10,360(3)
 1049              	.LBE2941:
 1050              	.LBE2940:
 1051              	.LBE2939:
 1052              		.loc 4 233 0
 1053 0014 800300D8 		lwz 0,216(3)
 1054              		.cfi_offset 65, 4
 1055              	.LBB2948:
 1056              	.LBB2944:
 1057              	.LBB2942:
 1058              		.loc 5 571 0
 1059 0018 7D495050 		subf 10,9,10
 1060              	.LBE2942:
 1061              	.LBE2944:
 1062              	.LBE2948:
 1063              		.loc 4 233 0
 1064 001c 540B103A 		slwi 11,0,2
 1065              	.LVL84:
 1066              	.LBB2949:
 1067              	.LBB2945:
 1068              	.LBB2943:
 1069              		.loc 5 571 0
 1070 0020 7D4A1670 		srawi 10,10,2
 1071              	.LBE2943:
 1072              	.LBE2945:
 1073              		.loc 4 234 0
 1074 0024 7F8B5000 		cmpw 7,11,10
 1075 0028 409C0058 		bge- 7,.L63
 1076              	.LBB2946:
 1077              	.LBB2947:
 1078              		.loc 5 696 0
 1079 002c 54082036 		slwi 8,0,4
 1080              	.LBE2947:
 1081              	.LBE2946:
 1082              		.loc 4 234 0
 1083 0030 38EB0003 		addi 7,11,3
 1084              	.LVL85:
 1085              		.loc 4 236 0
 1086 0034 7C09402E 		lwzx 0,9,8
 1087 0038 7F802000 		cmpw 7,0,4
 1088 003c 419E0054 		beq- 7,.L67
 1089              		.loc 4 231 0
 1090 0040 7D4B5050 		subf 10,11,10
 1091 0044 390B0001 		addi 8,11,1
 1092 0048 7D4903A6 		mtctr 10
 1093              		.loc 4 234 0
 1094 004c 396B0001 		addi 11,11,1
 1095              	.LVL86:
 1096              		.loc 4 241 0
 1097 0050 5508103A 		slwi 8,8,2
 1098              	.LVL87:
 1099              		.loc 4 234 0
 1100 0054 7F8B3800 		cmpw 7,11,7
 1101 0058 42400028 		bdz .L63
 1102              	.LVL88:
 1103              	.L70:
 1104              		.loc 4 234 0 is_stmt 0 discriminator 2
 1105 005c 38080004 		addi 0,8,4
 1106 0060 419D0020 		bgt- 7,.L63
 1107              	.LVL89:
 1108              		.loc 4 236 0 is_stmt 1 discriminator 5
 1109 0064 7D49402E 		lwzx 10,9,8
 1110 0068 7F8A2000 		cmpw 7,10,4
 1111 006c 419E0024 		beq- 7,.L67
 1112              	.LVL90:
 1113              		.loc 4 234 0
 1114 0070 396B0001 		addi 11,11,1
 1115              	.LVL91:
 1116              		.loc 4 236 0
 1117 0074 7C080378 		mr 8,0
 1118              		.loc 4 234 0
 1119 0078 7F8B3800 		cmpw 7,11,7
 1120 007c 4200FFE0 		bdnz .L70
 1121              	.LVL92:
 1122              	.L63:
 1123              	.LBE2949:
 1124              	.LBE2938:
 1125              		.loc 4 246 0
 1126 0080 8001000C 		lwz 0,12(1)
 1127 0084 38210008 		addi 1,1,8
 1128              		.cfi_remember_state
 1129              	.LCFI19:
 1130              		.cfi_def_cfa_offset 0
 1131 0088 7C0803A6 		mtlr 0
 1132 008c 4E800020 		blr
 1133              	.LVL93:
 1134              	.L67:
 1135              	.LCFI20:
 1136              		.cfi_restore_state
 1137              	.LBB2952:
 1138              	.LBB2950:
 1139              		.loc 4 238 0
 1140 0090 2F850000 		cmpwi 7,5,0
 1141              		.loc 4 239 0
 1142 0094 81230158 		lwz 9,344(3)
 1143 0098 38800000 		li 4,0
 1144              	.LVL94:
 1145 009c 7C69402E 		lwzx 3,9,8
 1146              	.LVL95:
 1147              		.loc 4 238 0
 1148 00a0 409E0028 		bne- 7,.L66
 1149              	.LVL96:
 1150              		.loc 4 239 0
 1151 00a4 81230000 		lwz 9,0(3)
 1152 00a8 38A0000A 		li 5,10
 1153              	.LVL97:
 1154 00ac 800900A8 		lwz 0,168(9)
 1155 00b0 7C0903A6 		mtctr 0
 1156 00b4 4E800421 		bctrl
 1157              	.LVL98:
 1158              	.LBE2950:
 1159              	.LBE2952:
 1160              		.loc 4 246 0
 1161 00b8 8001000C 		lwz 0,12(1)
 1162 00bc 38210008 		addi 1,1,8
 1163              		.cfi_remember_state
 1164              	.LCFI21:
 1165              		.cfi_def_cfa_offset 0
 1166 00c0 7C0803A6 		mtlr 0
 1167 00c4 4E800020 		blr
 1168              	.LVL99:
 1169              	.L66:
 1170              	.LCFI22:
 1171              		.cfi_restore_state
 1172              	.LBB2953:
 1173              	.LBB2951:
 1174              		.loc 4 241 0
 1175 00c8 81230000 		lwz 9,0(3)
 1176 00cc 38A00003 		li 5,3
 1177              	.LVL100:
 1178 00d0 800900A8 		lwz 0,168(9)
 1179 00d4 7C0903A6 		mtctr 0
 1180 00d8 4E800421 		bctrl
 1181              	.LVL101:
 1182              	.LBE2951:
 1183              	.LBE2953:
 1184              		.loc 4 246 0
 1185 00dc 8001000C 		lwz 0,12(1)
 1186 00e0 38210008 		addi 1,1,8
 1187              	.LCFI23:
 1188              		.cfi_def_cfa_offset 0
 1189 00e4 7C0803A6 		mtlr 0
 1190 00e8 4E800020 		blr
 1191              		.cfi_endproc
 1192              	.LFE1615:
 1193              		.size	_ZN15ThemeDownloader13OnStateChangeEP10GuiElementii, .-_ZN15ThemeDownloader13OnStateChangeEP
 1194              		.section	.text._ZN7sigslot17_connection_base3IP9GuiButtoniRK6_POINTNS_15single_threadedEED2Ev,"axG
 1195              		.align 2
 1196              		.weak	_ZN7sigslot17_connection_base3IP9GuiButtoniRK6_POINTNS_15single_threadedEED2Ev
 1197              		.type	_ZN7sigslot17_connection_base3IP9GuiButtoniRK6_POINTNS_15single_threadedEED2Ev, @function
 1198              	_ZN7sigslot17_connection_base3IP9GuiButtoniRK6_POINTNS_15single_threadedEED2Ev:
 1199              	.LFB1818:
 1200              		.loc 1 387 0
 1201              		.cfi_startproc
 1202              	.LVL102:
 1203              	.LBB2954:
 1204              		.loc 1 387 0
 1205 0000 3D200000 		lis 9,_ZTVN7sigslot17_connection_base3IP9GuiButtoniRK6_POINTNS_15single_threadedEEE+8@ha
 1206              	.LBE2954:
 1207              	.LBB2955:
 1208 0004 38090008 		la 0,_ZTVN7sigslot17_connection_base3IP9GuiButtoniRK6_POINTNS_15single_threadedEEE+8@l(9)
 1209 0008 90030000 		stw 0,0(3)
 1210              	.LBE2955:
 1211 000c 4E800020 		blr
 1212              		.cfi_endproc
 1213              	.LFE1818:
 1214              		.size	_ZN7sigslot17_connection_base3IP9GuiButtoniRK6_POINTNS_15single_threadedEED2Ev, .-_ZN7sigslo
 1215              		.section	.text._ZN7sigslot17_connection_base3IP10GuiElementiiNS_15single_threadedEED2Ev,"axG",@pro
 1216              		.align 2
 1217              		.weak	_ZN7sigslot17_connection_base3IP10GuiElementiiNS_15single_threadedEED2Ev
 1218              		.type	_ZN7sigslot17_connection_base3IP10GuiElementiiNS_15single_threadedEED2Ev, @function
 1219              	_ZN7sigslot17_connection_base3IP10GuiElementiiNS_15single_threadedEED2Ev:
 1220              	.LFB1825:
 1221              		.loc 1 387 0
 1222              		.cfi_startproc
 1223              	.LVL103:
 1224              	.LBB2956:
 1225              		.loc 1 387 0
 1226 0000 3D200000 		lis 9,_ZTVN7sigslot17_connection_base3IP10GuiElementiiNS_15single_threadedEEE+8@ha
 1227              	.LBE2956:
 1228              	.LBB2957:
 1229 0004 38090008 		la 0,_ZTVN7sigslot17_connection_base3IP10GuiElementiiNS_15single_threadedEEE+8@l(9)
 1230 0008 90030000 		stw 0,0(3)
 1231              	.LBE2957:
 1232 000c 4E800020 		blr
 1233              		.cfi_endproc
 1234              	.LFE1825:
 1235              		.size	_ZN7sigslot17_connection_base3IP10GuiElementiiNS_15single_threadedEED2Ev, .-_ZN7sigslot17_co
 1236              		.section	.text._ZN7sigslot12_connection3I15ThemeDownloaderP10GuiElementiiNS_15single_threadedEED2E
 1237              		.align 2
 1238              		.weak	_ZN7sigslot12_connection3I15ThemeDownloaderP10GuiElementiiNS_15single_threadedEED2Ev
 1239              		.type	_ZN7sigslot12_connection3I15ThemeDownloaderP10GuiElementiiNS_15single_threadedEED2Ev, @funct
 1240              	_ZN7sigslot12_connection3I15ThemeDownloaderP10GuiElementiiNS_15single_threadedEED2Ev:
 1241              	.LFB2167:
 1242              		.loc 1 1783 0
 1243              		.cfi_startproc
 1244              	.LVL104:
 1245              	.LBB2958:
 1246              	.LBB2959:
 1247              	.LBB2960:
 1248              	.LBB2961:
 1249              		.loc 1 387 0
 1250 0000 3D200000 		lis 9,_ZTVN7sigslot17_connection_base3IP10GuiElementiiNS_15single_threadedEEE+8@ha
 1251              	.LBE2961:
 1252              	.LBE2960:
 1253              	.LBE2959:
 1254              	.LBE2958:
 1255              		.loc 1 1786 0
 1256              	.LBB2965:
 1257              	.LBB2964:
 1258              	.LBB2963:
 1259              	.LBB2962:
 1260              		.loc 1 387 0
 1261 0004 38090008 		la 0,_ZTVN7sigslot17_connection_base3IP10GuiElementiiNS_15single_threadedEEE+8@l(9)
 1262 0008 90030000 		stw 0,0(3)
 1263              	.LBE2962:
 1264              	.LBE2963:
 1265              	.LBE2964:
 1266              	.LBE2965:
 1267              		.loc 1 1786 0
 1268 000c 4E800020 		blr
 1269              		.cfi_endproc
 1270              	.LFE2167:
 1271              		.size	_ZN7sigslot12_connection3I15ThemeDownloaderP10GuiElementiiNS_15single_threadedEED2Ev, .-_ZN7
 1272              		.section	.text._ZNK7sigslot12_connection3I15ThemeDownloaderP10GuiElementiiNS_15single_threadedEE7g
 1273              		.align 2
 1274              		.weak	_ZNK7sigslot12_connection3I15ThemeDownloaderP10GuiElementiiNS_15single_threadedEE7getdestEv
 1275              		.type	_ZNK7sigslot12_connection3I15ThemeDownloaderP10GuiElementiiNS_15single_threadedEE7getdestEv,
 1276              	_ZNK7sigslot12_connection3I15ThemeDownloaderP10GuiElementiiNS_15single_threadedEE7getdestEv:
 1277              	.LFB2170:
 1278              		.loc 1 1804 0
 1279              		.cfi_startproc
 1280              	.LVL105:
 1281              		.loc 1 1806 0
 1282 0000 81230004 		lwz 9,4(3)
 1283 0004 38600000 		li 3,0
 1284              	.LVL106:
 1285 0008 2F890000 		cmpwi 7,9,0
 1286 000c 4D9E0020 		beqlr- 7
 1287              		.loc 1 1806 0 is_stmt 0 discriminator 1
 1288 0010 386900B0 		addi 3,9,176
 1289              		.loc 1 1807 0 is_stmt 1 discriminator 1
 1290 0014 4E800020 		blr
 1291              		.cfi_endproc
 1292              	.LFE2170:
 1293              		.size	_ZNK7sigslot12_connection3I15ThemeDownloaderP10GuiElementiiNS_15single_threadedEE7getdestEv,
 1294              		.section	.text._ZN7sigslot12_connection3I15ThemeDownloaderP10GuiElementiiNS_15single_threadedEE4em
 1295              		.align 2
 1296              		.weak	_ZN7sigslot12_connection3I15ThemeDownloaderP10GuiElementiiNS_15single_threadedEE4emitES3_ii
 1297              		.type	_ZN7sigslot12_connection3I15ThemeDownloaderP10GuiElementiiNS_15single_threadedEE4emitES3_ii,
 1298              	_ZN7sigslot12_connection3I15ThemeDownloaderP10GuiElementiiNS_15single_threadedEE4emitES3_ii:
 1299              	.LFB2171:
 1300              		.loc 1 1799 0
 1301              		.cfi_startproc
 1302              	.LVL107:
 1303 0000 7C0802A6 		mflr 0
 1304 0004 9421FFF8 		stwu 1,-8(1)
 1305              	.LCFI24:
 1306              		.cfi_def_cfa_offset 8
 1307              		.cfi_register 65, 0
 1308 0008 9001000C 		stw 0,12(1)
 1309              		.loc 1 1801 0
 1310 000c 80030008 		lwz 0,8(3)
 1311              		.cfi_offset 65, 4
 1312 0010 81630004 		lwz 11,4(3)
 1313 0014 70090001 		andi. 9,0,1
 1314 0018 8123000C 		lwz 9,12(3)
 1315 001c 40820020 		bne- 0,.L82
 1316 0020 7C0903A6 		mtctr 0
 1317 0024 7C6B4A14 		add 3,11,9
 1318              	.LVL108:
 1319 0028 4E800421 		bctrl
 1320              	.LVL109:
 1321              		.loc 1 1802 0
 1322 002c 8001000C 		lwz 0,12(1)
 1323 0030 38210008 		addi 1,1,8
 1324              		.cfi_remember_state
 1325              	.LCFI25:
 1326              		.cfi_def_cfa_offset 0
 1327 0034 7C0803A6 		mtlr 0
 1328 0038 4E800020 		blr
 1329              	.LVL110:
 1330              	.L82:
 1331              	.LCFI26:
 1332              		.cfi_restore_state
 1333              		.loc 1 1801 0 discriminator 1
 1334 003c 7D4B482E 		lwzx 10,11,9
 1335 0040 7C6B4A14 		add 3,11,9
 1336              	.LVL111:
 1337 0044 7D2A0214 		add 9,10,0
 1338 0048 8009FFFF 		lwz 0,-1(9)
 1339 004c 7C0903A6 		mtctr 0
 1340 0050 4E800421 		bctrl
 1341              	.LVL112:
 1342              		.loc 1 1802 0 discriminator 1
 1343 0054 8001000C 		lwz 0,12(1)
 1344 0058 38210008 		addi 1,1,8
 1345              	.LCFI27:
 1346              		.cfi_def_cfa_offset 0
 1347 005c 7C0803A6 		mtlr 0
 1348 0060 4E800020 		blr
 1349              		.cfi_endproc
 1350              	.LFE2171:
 1351              		.size	_ZN7sigslot12_connection3I15ThemeDownloaderP10GuiElementiiNS_15single_threadedEE4emitES3_ii,
 1352              		.section	.text._ZN7sigslot12_connection3I15ThemeDownloaderP9GuiButtoniRK6_POINTNS_15single_threade
 1353              		.align 2
 1354              		.weak	_ZN7sigslot12_connection3I15ThemeDownloaderP9GuiButtoniRK6_POINTNS_15single_threadedEED2Ev
 1355              		.type	_ZN7sigslot12_connection3I15ThemeDownloaderP9GuiButtoniRK6_POINTNS_15single_threadedEED2Ev, 
 1356              	_ZN7sigslot12_connection3I15ThemeDownloaderP9GuiButtoniRK6_POINTNS_15single_threadedEED2Ev:
 1357              	.LFB2181:
 1358              		.loc 1 1783 0
 1359              		.cfi_startproc
 1360              	.LVL113:
 1361              	.LBB2966:
 1362              	.LBB2967:
 1363              	.LBB2968:
 1364              	.LBB2969:
 1365              		.loc 1 387 0
 1366 0000 3D200000 		lis 9,_ZTVN7sigslot17_connection_base3IP9GuiButtoniRK6_POINTNS_15single_threadedEEE+8@ha
 1367              	.LBE2969:
 1368              	.LBE2968:
 1369              	.LBE2967:
 1370              	.LBE2966:
 1371              		.loc 1 1786 0
 1372              	.LBB2973:
 1373              	.LBB2972:
 1374              	.LBB2971:
 1375              	.LBB2970:
 1376              		.loc 1 387 0
 1377 0004 38090008 		la 0,_ZTVN7sigslot17_connection_base3IP9GuiButtoniRK6_POINTNS_15single_threadedEEE+8@l(9)
 1378 0008 90030000 		stw 0,0(3)
 1379              	.LBE2970:
 1380              	.LBE2971:
 1381              	.LBE2972:
 1382              	.LBE2973:
 1383              		.loc 1 1786 0
 1384 000c 4E800020 		blr
 1385              		.cfi_endproc
 1386              	.LFE2181:
 1387              		.size	_ZN7sigslot12_connection3I15ThemeDownloaderP9GuiButtoniRK6_POINTNS_15single_threadedEED2Ev, 
 1388              		.section	.text._ZNK7sigslot12_connection3I15ThemeDownloaderP9GuiButtoniRK6_POINTNS_15single_thread
 1389              		.align 2
 1390              		.weak	_ZNK7sigslot12_connection3I15ThemeDownloaderP9GuiButtoniRK6_POINTNS_15single_threadedEE7getd
 1391              		.type	_ZNK7sigslot12_connection3I15ThemeDownloaderP9GuiButtoniRK6_POINTNS_15single_threadedEE7getd
 1392              	_ZNK7sigslot12_connection3I15ThemeDownloaderP9GuiButtoniRK6_POINTNS_15single_threadedEE7getdestEv:
 1393              	.LFB2184:
 1394              		.loc 1 1804 0
 1395              		.cfi_startproc
 1396              	.LVL114:
 1397              		.loc 1 1806 0
 1398 0000 81230004 		lwz 9,4(3)
 1399 0004 38600000 		li 3,0
 1400              	.LVL115:
 1401 0008 2F890000 		cmpwi 7,9,0
 1402 000c 4D9E0020 		beqlr- 7
 1403              		.loc 1 1806 0 is_stmt 0 discriminator 1
 1404 0010 386900B0 		addi 3,9,176
 1405              		.loc 1 1807 0 is_stmt 1 discriminator 1
 1406 0014 4E800020 		blr
 1407              		.cfi_endproc
 1408              	.LFE2184:
 1409              		.size	_ZNK7sigslot12_connection3I15ThemeDownloaderP9GuiButtoniRK6_POINTNS_15single_threadedEE7getd
 1410              		.section	.text._ZN7sigslot12_connection3I15ThemeDownloaderP9GuiButtoniRK6_POINTNS_15single_threade
 1411              		.align 2
 1412              		.weak	_ZN7sigslot12_connection3I15ThemeDownloaderP9GuiButtoniRK6_POINTNS_15single_threadedEE4emitE
 1413              		.type	_ZN7sigslot12_connection3I15ThemeDownloaderP9GuiButtoniRK6_POINTNS_15single_threadedEE4emitE
 1414              	_ZN7sigslot12_connection3I15ThemeDownloaderP9GuiButtoniRK6_POINTNS_15single_threadedEE4emitES3_iS6_
 1415              	.LFB2185:
 1416              		.loc 1 1799 0
 1417              		.cfi_startproc
 1418              	.LVL116:
 1419 0000 7C0802A6 		mflr 0
 1420 0004 9421FFF8 		stwu 1,-8(1)
 1421              	.LCFI28:
 1422              		.cfi_def_cfa_offset 8
 1423              		.cfi_register 65, 0
 1424 0008 9001000C 		stw 0,12(1)
 1425              		.loc 1 1801 0
 1426 000c 80030008 		lwz 0,8(3)
 1427              		.cfi_offset 65, 4
 1428 0010 81630004 		lwz 11,4(3)
 1429 0014 70090001 		andi. 9,0,1
 1430 0018 8123000C 		lwz 9,12(3)
 1431 001c 40820020 		bne- 0,.L91
 1432 0020 7C0903A6 		mtctr 0
 1433 0024 7C6B4A14 		add 3,11,9
 1434              	.LVL117:
 1435 0028 4E800421 		bctrl
 1436              	.LVL118:
 1437              		.loc 1 1802 0
 1438 002c 8001000C 		lwz 0,12(1)
 1439 0030 38210008 		addi 1,1,8
 1440              		.cfi_remember_state
 1441              	.LCFI29:
 1442              		.cfi_def_cfa_offset 0
 1443 0034 7C0803A6 		mtlr 0
 1444 0038 4E800020 		blr
 1445              	.LVL119:
 1446              	.L91:
 1447              	.LCFI30:
 1448              		.cfi_restore_state
 1449              		.loc 1 1801 0 discriminator 1
 1450 003c 7D4B482E 		lwzx 10,11,9
 1451 0040 7C6B4A14 		add 3,11,9
 1452              	.LVL120:
 1453 0044 7D2A0214 		add 9,10,0
 1454 0048 8009FFFF 		lwz 0,-1(9)
 1455 004c 7C0903A6 		mtctr 0
 1456 0050 4E800421 		bctrl
 1457              	.LVL121:
 1458              		.loc 1 1802 0 discriminator 1
 1459 0054 8001000C 		lwz 0,12(1)
 1460 0058 38210008 		addi 1,1,8
 1461              	.LCFI31:
 1462              		.cfi_def_cfa_offset 0
 1463 005c 7C0803A6 		mtlr 0
 1464 0060 4E800020 		blr
 1465              		.cfi_endproc
 1466              	.LFE2185:
 1467              		.size	_ZN7sigslot12_connection3I15ThemeDownloaderP9GuiButtoniRK6_POINTNS_15single_threadedEE4emitE
 1468              		.section	.text._ZN7sigslot12_connection3I15ThemeDownloaderP9GuiButtoniRK6_POINTNS_15single_threade
 1469              		.align 2
 1470              		.weak	_ZN7sigslot12_connection3I15ThemeDownloaderP9GuiButtoniRK6_POINTNS_15single_threadedEE9dupli
 1471              		.type	_ZN7sigslot12_connection3I15ThemeDownloaderP9GuiButtoniRK6_POINTNS_15single_threadedEE9dupli
 1472              	_ZN7sigslot12_connection3I15ThemeDownloaderP9GuiButtoniRK6_POINTNS_15single_threadedEE9duplicateEPN
 1473              	.LFB2193:
 1474              		.loc 1 1794 0
 1475              		.cfi_startproc
 1476              	.LVL122:
 1477 0000 9421FFF0 		stwu 1,-16(1)
 1478              	.LCFI32:
 1479              		.cfi_def_cfa_offset 16
 1480 0004 7C0802A6 		mflr 0
 1481 0008 93C10008 		stw 30,8(1)
 1482 000c 7C9E2378 		mr 30,4
 1483              		.cfi_offset 30, -8
 1484              		.cfi_register 65, 0
 1485 0010 93E1000C 		stw 31,12(1)
 1486 0014 7C7F1B78 		mr 31,3
 1487              		.cfi_offset 31, -4
 1488              		.loc 1 1796 0
 1489 0018 38600010 		li 3,16
 1490              	.LVL123:
 1491              		.loc 1 1794 0
 1492 001c 90010014 		stw 0,20(1)
 1493              		.loc 1 1796 0
 1494              		.cfi_offset 65, 4
 1495 0020 48000001 		bl _Znwj
 1496              	.LVL124:
 1497 0024 2F9E0000 		cmpwi 7,30,0
 1498 0028 38000000 		li 0,0
 1499 002c 419E0008 		beq- 7,.L94
 1500              		.loc 1 1796 0 is_stmt 0 discriminator 1
 1501 0030 381EFF50 		addi 0,30,-176
 1502              	.L94:
 1503              	.LVL125:
 1504              		.loc 1 1796 0 discriminator 3
 1505 0034 817F0008 		lwz 11,8(31)
 1506              	.LVL126:
 1507              	.LBB2974:
 1508              	.LBB2975:
 1509              		.loc 1 1778 0 is_stmt 1 discriminator 3
 1510 0038 3D400000 		lis 10,_ZTVN7sigslot12_connection3I15ThemeDownloaderP9GuiButtoniRK6_POINTNS_15single_threadedEEE+8
 1511              	.LBE2975:
 1512              	.LBE2974:
 1513              		.loc 1 1796 0 discriminator 3
 1514 003c 813F000C 		lwz 9,12(31)
 1515              	.LVL127:
 1516              	.LBB2978:
 1517              	.LBB2976:
 1518              		.loc 1 1778 0 discriminator 3
 1519 0040 394A0008 		la 10,_ZTVN7sigslot12_connection3I15ThemeDownloaderP9GuiButtoniRK6_POINTNS_15single_threadedEEE+8@
 1520              		.loc 1 1780 0 discriminator 3
 1521 0044 91630008 		stw 11,8(3)
 1522 0048 9123000C 		stw 9,12(3)
 1523              		.loc 1 1779 0 discriminator 3
 1524 004c 90030004 		stw 0,4(3)
 1525              	.LBE2976:
 1526              	.LBE2978:
 1527              		.loc 1 1797 0 discriminator 3
 1528 0050 80010014 		lwz 0,20(1)
 1529              	.LVL128:
 1530 0054 83C10008 		lwz 30,8(1)
 1531              	.LVL129:
 1532 0058 7C0803A6 		mtlr 0
 1533 005c 83E1000C 		lwz 31,12(1)
 1534              	.LVL130:
 1535              	.LBB2979:
 1536              	.LBB2977:
 1537              		.loc 1 1778 0 discriminator 3
 1538 0060 91430000 		stw 10,0(3)
 1539              	.LBE2977:
 1540              	.LBE2979:
 1541              		.loc 1 1797 0 discriminator 3
 1542 0064 38210010 		addi 1,1,16
 1543              	.LCFI33:
 1544              		.cfi_def_cfa_offset 0
 1545              		.cfi_restore 31
 1546              		.cfi_restore 30
 1547 0068 4E800020 		blr
 1548              		.cfi_endproc
 1549              	.LFE2193:
 1550              		.size	_ZN7sigslot12_connection3I15ThemeDownloaderP9GuiButtoniRK6_POINTNS_15single_threadedEE9dupli
 1551              		.section	.text._ZN7sigslot12_connection3I15ThemeDownloaderP10GuiElementiiNS_15single_threadedEE9du
 1552              		.align 2
 1553              		.weak	_ZN7sigslot12_connection3I15ThemeDownloaderP10GuiElementiiNS_15single_threadedEE9duplicateEP
 1554              		.type	_ZN7sigslot12_connection3I15ThemeDownloaderP10GuiElementiiNS_15single_threadedEE9duplicateEP
 1555              	_ZN7sigslot12_connection3I15ThemeDownloaderP10GuiElementiiNS_15single_threadedEE9duplicateEPNS_9has
 1556              	.LFB2179:
 1557              		.loc 1 1794 0
 1558              		.cfi_startproc
 1559              	.LVL131:
 1560 0000 9421FFF0 		stwu 1,-16(1)
 1561              	.LCFI34:
 1562              		.cfi_def_cfa_offset 16
 1563 0004 7C0802A6 		mflr 0
 1564 0008 93C10008 		stw 30,8(1)
 1565 000c 7C9E2378 		mr 30,4
 1566              		.cfi_offset 30, -8
 1567              		.cfi_register 65, 0
 1568 0010 93E1000C 		stw 31,12(1)
 1569 0014 7C7F1B78 		mr 31,3
 1570              		.cfi_offset 31, -4
 1571              		.loc 1 1796 0
 1572 0018 38600010 		li 3,16
 1573              	.LVL132:
 1574              		.loc 1 1794 0
 1575 001c 90010014 		stw 0,20(1)
 1576              		.loc 1 1796 0
 1577              		.cfi_offset 65, 4
 1578 0020 48000001 		bl _Znwj
 1579              	.LVL133:
 1580 0024 2F9E0000 		cmpwi 7,30,0
 1581 0028 38000000 		li 0,0
 1582 002c 419E0008 		beq- 7,.L97
 1583              		.loc 1 1796 0 is_stmt 0 discriminator 1
 1584 0030 381EFF50 		addi 0,30,-176
 1585              	.L97:
 1586              	.LVL134:
 1587              		.loc 1 1796 0 discriminator 3
 1588 0034 817F0008 		lwz 11,8(31)
 1589              	.LVL135:
 1590              	.LBB2980:
 1591              	.LBB2981:
 1592              		.loc 1 1778 0 is_stmt 1 discriminator 3
 1593 0038 3D400000 		lis 10,_ZTVN7sigslot12_connection3I15ThemeDownloaderP10GuiElementiiNS_15single_threadedEEE+8@ha
 1594              	.LBE2981:
 1595              	.LBE2980:
 1596              		.loc 1 1796 0 discriminator 3
 1597 003c 813F000C 		lwz 9,12(31)
 1598              	.LVL136:
 1599              	.LBB2984:
 1600              	.LBB2982:
 1601              		.loc 1 1778 0 discriminator 3
 1602 0040 394A0008 		la 10,_ZTVN7sigslot12_connection3I15ThemeDownloaderP10GuiElementiiNS_15single_threadedEEE+8@l(10)
 1603              		.loc 1 1780 0 discriminator 3
 1604 0044 91630008 		stw 11,8(3)
 1605 0048 9123000C 		stw 9,12(3)
 1606              		.loc 1 1779 0 discriminator 3
 1607 004c 90030004 		stw 0,4(3)
 1608              	.LBE2982:
 1609              	.LBE2984:
 1610              		.loc 1 1797 0 discriminator 3
 1611 0050 80010014 		lwz 0,20(1)
 1612              	.LVL137:
 1613 0054 83C10008 		lwz 30,8(1)
 1614              	.LVL138:
 1615 0058 7C0803A6 		mtlr 0
 1616 005c 83E1000C 		lwz 31,12(1)
 1617              	.LVL139:
 1618              	.LBB2985:
 1619              	.LBB2983:
 1620              		.loc 1 1778 0 discriminator 3
 1621 0060 91430000 		stw 10,0(3)
 1622              	.LBE2983:
 1623              	.LBE2985:
 1624              		.loc 1 1797 0 discriminator 3
 1625 0064 38210010 		addi 1,1,16
 1626              	.LCFI35:
 1627              		.cfi_def_cfa_offset 0
 1628              		.cfi_restore 31
 1629              		.cfi_restore 30
 1630 0068 4E800020 		blr
 1631              		.cfi_endproc
 1632              	.LFE2179:
 1633              		.size	_ZN7sigslot12_connection3I15ThemeDownloaderP10GuiElementiiNS_15single_threadedEE9duplicateEP
 1634              		.section	.text._ZN7sigslot12_connection3I15ThemeDownloaderP10GuiElementiiNS_15single_threadedEE5cl
 1635              		.align 2
 1636              		.weak	_ZN7sigslot12_connection3I15ThemeDownloaderP10GuiElementiiNS_15single_threadedEE5cloneEv
 1637              		.type	_ZN7sigslot12_connection3I15ThemeDownloaderP10GuiElementiiNS_15single_threadedEE5cloneEv, @f
 1638              	_ZN7sigslot12_connection3I15ThemeDownloaderP10GuiElementiiNS_15single_threadedEE5cloneEv:
 1639              	.LFB2172:
 1640              		.loc 1 1789 0
 1641              		.cfi_startproc
 1642              	.LVL140:
 1643 0000 9421FFF0 		stwu 1,-16(1)
 1644              	.LCFI36:
 1645              		.cfi_def_cfa_offset 16
 1646 0004 7C0802A6 		mflr 0
 1647 0008 93E1000C 		stw 31,12(1)
 1648 000c 7C7F1B78 		mr 31,3
 1649              		.cfi_offset 31, -4
 1650              		.cfi_register 65, 0
 1651              		.loc 1 1791 0
 1652 0010 38600010 		li 3,16
 1653              	.LVL141:
 1654              		.loc 1 1789 0
 1655 0014 90010014 		stw 0,20(1)
 1656              		.loc 1 1791 0
 1657              		.cfi_offset 65, 4
 1658 0018 48000001 		bl _Znwj
 1659              		.loc 4 281 0
 1660 001c 801F0004 		lwz 0,4(31)
 1661              	.LVL142:
 1662              	.LBB2986:
 1663              	.LBB2987:
 1664              		.loc 1 1767 0
 1665 0020 3D600000 		lis 11,_ZTVN7sigslot12_connection3I15ThemeDownloaderP10GuiElementiiNS_15single_threadedEEE+8@ha
 1666 0024 396B0008 		la 11,_ZTVN7sigslot12_connection3I15ThemeDownloaderP10GuiElementiiNS_15single_threadedEEE+8@l(11)
 1667 0028 90030004 		stw 0,4(3)
 1668 002c 91630000 		stw 11,0(3)
 1669 0030 815F0008 		lwz 10,8(31)
 1670 0034 817F000C 		lwz 11,12(31)
 1671 0038 91430008 		stw 10,8(3)
 1672 003c 9163000C 		stw 11,12(3)
 1673              	.LBE2987:
 1674              	.LBE2986:
 1675              		.loc 1 1792 0
 1676 0040 80010014 		lwz 0,20(1)
 1677 0044 83E1000C 		lwz 31,12(1)
 1678              	.LVL143:
 1679 0048 7C0803A6 		mtlr 0
 1680 004c 38210010 		addi 1,1,16
 1681              	.LCFI37:
 1682              		.cfi_def_cfa_offset 0
 1683              		.cfi_restore 31
 1684 0050 4E800020 		blr
 1685              		.cfi_endproc
 1686              	.LFE2172:
 1687              		.size	_ZN7sigslot12_connection3I15ThemeDownloaderP10GuiElementiiNS_15single_threadedEE5cloneEv, .-
 1688              		.section	.text._ZN7sigslot12_connection3I15ThemeDownloaderP9GuiButtoniRK6_POINTNS_15single_threade
 1689              		.align 2
 1690              		.weak	_ZN7sigslot12_connection3I15ThemeDownloaderP9GuiButtoniRK6_POINTNS_15single_threadedEE5clone
 1691              		.type	_ZN7sigslot12_connection3I15ThemeDownloaderP9GuiButtoniRK6_POINTNS_15single_threadedEE5clone
 1692              	_ZN7sigslot12_connection3I15ThemeDownloaderP9GuiButtoniRK6_POINTNS_15single_threadedEE5cloneEv:
 1693              	.LFB2186:
 1694              		.loc 1 1789 0
 1695              		.cfi_startproc
 1696              	.LVL144:
 1697 0000 9421FFF0 		stwu 1,-16(1)
 1698              	.LCFI38:
 1699              		.cfi_def_cfa_offset 16
 1700 0004 7C0802A6 		mflr 0
 1701 0008 93E1000C 		stw 31,12(1)
 1702 000c 7C7F1B78 		mr 31,3
 1703              		.cfi_offset 31, -4
 1704              		.cfi_register 65, 0
 1705              		.loc 1 1791 0
 1706 0010 38600010 		li 3,16
 1707              	.LVL145:
 1708              		.loc 1 1789 0
 1709 0014 90010014 		stw 0,20(1)
 1710              		.loc 1 1791 0
 1711              		.cfi_offset 65, 4
 1712 0018 48000001 		bl _Znwj
 1713              		.loc 4 281 0
 1714 001c 801F0004 		lwz 0,4(31)
 1715              	.LVL146:
 1716              	.LBB2988:
 1717              	.LBB2989:
 1718              		.loc 1 1767 0
 1719 0020 3D600000 		lis 11,_ZTVN7sigslot12_connection3I15ThemeDownloaderP9GuiButtoniRK6_POINTNS_15single_threadedEEE+8
 1720 0024 396B0008 		la 11,_ZTVN7sigslot12_connection3I15ThemeDownloaderP9GuiButtoniRK6_POINTNS_15single_threadedEEE+8@
 1721 0028 90030004 		stw 0,4(3)
 1722 002c 91630000 		stw 11,0(3)
 1723 0030 815F0008 		lwz 10,8(31)
 1724 0034 817F000C 		lwz 11,12(31)
 1725 0038 91430008 		stw 10,8(3)
 1726 003c 9163000C 		stw 11,12(3)
 1727              	.LBE2989:
 1728              	.LBE2988:
 1729              		.loc 1 1792 0
 1730 0040 80010014 		lwz 0,20(1)
 1731 0044 83E1000C 		lwz 31,12(1)
 1732              	.LVL147:
 1733 0048 7C0803A6 		mtlr 0
 1734 004c 38210010 		addi 1,1,16
 1735              	.LCFI39:
 1736              		.cfi_def_cfa_offset 0
 1737              		.cfi_restore 31
 1738 0050 4E800020 		blr
 1739              		.cfi_endproc
 1740              	.LFE2186:
 1741              		.size	_ZN7sigslot12_connection3I15ThemeDownloaderP9GuiButtoniRK6_POINTNS_15single_threadedEE5clone
 1742              		.section	.text._ZN7sigslot12_connection3I15ThemeDownloaderP9GuiButtoniRK6_POINTNS_15single_threade
 1743              		.align 2
 1744              		.weak	_ZN7sigslot12_connection3I15ThemeDownloaderP9GuiButtoniRK6_POINTNS_15single_threadedEED0Ev
 1745              		.type	_ZN7sigslot12_connection3I15ThemeDownloaderP9GuiButtoniRK6_POINTNS_15single_threadedEED0Ev, 
 1746              	_ZN7sigslot12_connection3I15ThemeDownloaderP9GuiButtoniRK6_POINTNS_15single_threadedEED0Ev:
 1747              	.LFB2183:
 1748              		.loc 1 1783 0
 1749              		.cfi_startproc
 1750              	.LVL148:
 1751 0000 7C0802A6 		mflr 0
 1752 0004 9421FFF8 		stwu 1,-8(1)
 1753              	.LCFI40:
 1754              		.cfi_def_cfa_offset 8
 1755              		.cfi_register 65, 0
 1756              	.LBB2990:
 1757              	.LBB2991:
 1758              	.LBB2992:
 1759              	.LBB2993:
 1760              	.LBB2994:
 1761              	.LBB2995:
 1762              		.loc 1 387 0
 1763 0008 3D200000 		lis 9,_ZTVN7sigslot17_connection_base3IP9GuiButtoniRK6_POINTNS_15single_threadedEEE+8@ha
 1764              	.LBE2995:
 1765              	.LBE2994:
 1766              	.LBE2993:
 1767              	.LBE2992:
 1768              	.LBE2991:
 1769              	.LBE2990:
 1770              		.loc 1 1783 0
 1771 000c 9001000C 		stw 0,12(1)
 1772              	.LBB3001:
 1773              	.LBB3000:
 1774              	.LBB2999:
 1775              	.LBB2998:
 1776              	.LBB2997:
 1777              	.LBB2996:
 1778              		.loc 1 387 0
 1779 0010 38090008 		la 0,_ZTVN7sigslot17_connection_base3IP9GuiButtoniRK6_POINTNS_15single_threadedEEE+8@l(9)
 1780              		.cfi_offset 65, 4
 1781 0014 90030000 		stw 0,0(3)
 1782              	.LBE2996:
 1783              	.LBE2997:
 1784              	.LBE2998:
 1785              	.LBE2999:
 1786              	.LBE3000:
 1787              	.LBE3001:
 1788              		.loc 1 1786 0
 1789 0018 48000001 		bl _ZdlPv
 1790              	.LVL149:
 1791 001c 8001000C 		lwz 0,12(1)
 1792 0020 38210008 		addi 1,1,8
 1793              	.LCFI41:
 1794              		.cfi_def_cfa_offset 0
 1795 0024 7C0803A6 		mtlr 0
 1796 0028 4E800020 		blr
 1797              		.cfi_endproc
 1798              	.LFE2183:
 1799              		.size	_ZN7sigslot12_connection3I15ThemeDownloaderP9GuiButtoniRK6_POINTNS_15single_threadedEED0Ev, 
 1800              		.section	.text._ZN7sigslot12_connection3I15ThemeDownloaderP10GuiElementiiNS_15single_threadedEED0E
 1801              		.align 2
 1802              		.weak	_ZN7sigslot12_connection3I15ThemeDownloaderP10GuiElementiiNS_15single_threadedEED0Ev
 1803              		.type	_ZN7sigslot12_connection3I15ThemeDownloaderP10GuiElementiiNS_15single_threadedEED0Ev, @funct
 1804              	_ZN7sigslot12_connection3I15ThemeDownloaderP10GuiElementiiNS_15single_threadedEED0Ev:
 1805              	.LFB2169:
 1806              		.loc 1 1783 0
 1807              		.cfi_startproc
 1808              	.LVL150:
 1809 0000 7C0802A6 		mflr 0
 1810 0004 9421FFF8 		stwu 1,-8(1)
 1811              	.LCFI42:
 1812              		.cfi_def_cfa_offset 8
 1813              		.cfi_register 65, 0
 1814              	.LBB3002:
 1815              	.LBB3003:
 1816              	.LBB3004:
 1817              	.LBB3005:
 1818              	.LBB3006:
 1819              	.LBB3007:
 1820              		.loc 1 387 0
 1821 0008 3D200000 		lis 9,_ZTVN7sigslot17_connection_base3IP10GuiElementiiNS_15single_threadedEEE+8@ha
 1822              	.LBE3007:
 1823              	.LBE3006:
 1824              	.LBE3005:
 1825              	.LBE3004:
 1826              	.LBE3003:
 1827              	.LBE3002:
 1828              		.loc 1 1783 0
 1829 000c 9001000C 		stw 0,12(1)
 1830              	.LBB3013:
 1831              	.LBB3012:
 1832              	.LBB3011:
 1833              	.LBB3010:
 1834              	.LBB3009:
 1835              	.LBB3008:
 1836              		.loc 1 387 0
 1837 0010 38090008 		la 0,_ZTVN7sigslot17_connection_base3IP10GuiElementiiNS_15single_threadedEEE+8@l(9)
 1838              		.cfi_offset 65, 4
 1839 0014 90030000 		stw 0,0(3)
 1840              	.LBE3008:
 1841              	.LBE3009:
 1842              	.LBE3010:
 1843              	.LBE3011:
 1844              	.LBE3012:
 1845              	.LBE3013:
 1846              		.loc 1 1786 0
 1847 0018 48000001 		bl _ZdlPv
 1848              	.LVL151:
 1849 001c 8001000C 		lwz 0,12(1)
 1850 0020 38210008 		addi 1,1,8
 1851              	.LCFI43:
 1852              		.cfi_def_cfa_offset 0
 1853 0024 7C0803A6 		mtlr 0
 1854 0028 4E800020 		blr
 1855              		.cfi_endproc
 1856              	.LFE2169:
 1857              		.size	_ZN7sigslot12_connection3I15ThemeDownloaderP10GuiElementiiNS_15single_threadedEED0Ev, .-_ZN7
 1858              		.section	.text._ZN7sigslot17_connection_base3IP10GuiElementiiNS_15single_threadedEED0Ev,"axG",@pro
 1859              		.align 2
 1860              		.weak	_ZN7sigslot17_connection_base3IP10GuiElementiiNS_15single_threadedEED0Ev
 1861              		.type	_ZN7sigslot17_connection_base3IP10GuiElementiiNS_15single_threadedEED0Ev, @function
 1862              	_ZN7sigslot17_connection_base3IP10GuiElementiiNS_15single_threadedEED0Ev:
 1863              	.LFB1827:
 1864              		.loc 1 387 0
 1865              		.cfi_startproc
 1866              	.LVL152:
 1867 0000 7C0802A6 		mflr 0
 1868 0004 9421FFF8 		stwu 1,-8(1)
 1869              	.LCFI44:
 1870              		.cfi_def_cfa_offset 8
 1871              		.cfi_register 65, 0
 1872              	.LBB3014:
 1873              	.LBB3015:
 1874              	.LBB3016:
 1875 0008 3D200000 		lis 9,_ZTVN7sigslot17_connection_base3IP10GuiElementiiNS_15single_threadedEEE+8@ha
 1876              	.LBE3016:
 1877              	.LBE3015:
 1878              	.LBE3014:
 1879 000c 9001000C 		stw 0,12(1)
 1880              	.LBB3019:
 1881              	.LBB3018:
 1882              	.LBB3017:
 1883              		.loc 1 387 0
 1884 0010 38090008 		la 0,_ZTVN7sigslot17_connection_base3IP10GuiElementiiNS_15single_threadedEEE+8@l(9)
 1885              		.cfi_offset 65, 4
 1886 0014 90030000 		stw 0,0(3)
 1887              	.LBE3017:
 1888              	.LBE3018:
 1889              	.LBE3019:
 1890 0018 48000001 		bl _ZdlPv
 1891              	.LVL153:
 1892 001c 8001000C 		lwz 0,12(1)
 1893 0020 38210008 		addi 1,1,8
 1894              	.LCFI45:
 1895              		.cfi_def_cfa_offset 0
 1896 0024 7C0803A6 		mtlr 0
 1897 0028 4E800020 		blr
 1898              		.cfi_endproc
 1899              	.LFE1827:
 1900              		.size	_ZN7sigslot17_connection_base3IP10GuiElementiiNS_15single_threadedEED0Ev, .-_ZN7sigslot17_co
 1901              		.section	.text._ZN7sigslot17_connection_base3IP9GuiButtoniRK6_POINTNS_15single_threadedEED0Ev,"axG
 1902              		.align 2
 1903              		.weak	_ZN7sigslot17_connection_base3IP9GuiButtoniRK6_POINTNS_15single_threadedEED0Ev
 1904              		.type	_ZN7sigslot17_connection_base3IP9GuiButtoniRK6_POINTNS_15single_threadedEED0Ev, @function
 1905              	_ZN7sigslot17_connection_base3IP9GuiButtoniRK6_POINTNS_15single_threadedEED0Ev:
 1906              	.LFB1820:
 1907              		.loc 1 387 0
 1908              		.cfi_startproc
 1909              	.LVL154:
 1910 0000 7C0802A6 		mflr 0
 1911 0004 9421FFF8 		stwu 1,-8(1)
 1912              	.LCFI46:
 1913              		.cfi_def_cfa_offset 8
 1914              		.cfi_register 65, 0
 1915              	.LBB3020:
 1916              	.LBB3021:
 1917              	.LBB3022:
 1918 0008 3D200000 		lis 9,_ZTVN7sigslot17_connection_base3IP9GuiButtoniRK6_POINTNS_15single_threadedEEE+8@ha
 1919              	.LBE3022:
 1920              	.LBE3021:
 1921              	.LBE3020:
 1922 000c 9001000C 		stw 0,12(1)
 1923              	.LBB3025:
 1924              	.LBB3024:
 1925              	.LBB3023:
 1926              		.loc 1 387 0
 1927 0010 38090008 		la 0,_ZTVN7sigslot17_connection_base3IP9GuiButtoniRK6_POINTNS_15single_threadedEEE+8@l(9)
 1928              		.cfi_offset 65, 4
 1929 0014 90030000 		stw 0,0(3)
 1930              	.LBE3023:
 1931              	.LBE3024:
 1932              	.LBE3025:
 1933 0018 48000001 		bl _ZdlPv
 1934              	.LVL155:
 1935 001c 8001000C 		lwz 0,12(1)
 1936 0020 38210008 		addi 1,1,8
 1937              	.LCFI47:
 1938              		.cfi_def_cfa_offset 0
 1939 0024 7C0803A6 		mtlr 0
 1940 0028 4E800020 		blr
 1941              		.cfi_endproc
 1942              	.LFE1820:
 1943              		.size	_ZN7sigslot17_connection_base3IP9GuiButtoniRK6_POINTNS_15single_threadedEED0Ev, .-_ZN7sigslo
 1944              		.section	".text"
 1945              		.align 2
 1946              		.globl _ZN15ThemeDownloader13OnButtonClickEP9GuiButtoniRK6_POINT
 1947              		.type	_ZN15ThemeDownloader13OnButtonClickEP9GuiButtoniRK6_POINT, @function
 1948              	_ZN15ThemeDownloader13OnButtonClickEP9GuiButtoniRK6_POINT:
 1949              	.LFB1616:
 1950              		.loc 4 249 0
 1951              		.cfi_startproc
 1952              	.LVL156:
 1953 00ec 7C0802A6 		mflr 0
 1954 00f0 9421FFF8 		stwu 1,-8(1)
 1955              	.LCFI48:
 1956              		.cfi_def_cfa_offset 8
 1957              		.cfi_register 65, 0
 1958 00f4 9001000C 		stw 0,12(1)
 1959              		.loc 4 250 0
 1960              		.cfi_offset 65, 4
 1961 00f8 48000001 		bl _ZN17FlyingButtonsMenu13OnButtonClickEP9GuiButtoniRK6_POINT
 1962              	.LVL157:
 1963              		.loc 4 281 0
 1964 00fc 8001000C 		lwz 0,12(1)
 1965 0100 38210008 		addi 1,1,8
 1966              	.LCFI49:
 1967              		.cfi_def_cfa_offset 0
 1968 0104 7C0803A6 		mtlr 0
 1969 0108 4E800020 		blr
 1970              		.cfi_endproc
 1971              	.LFE1616:
 1972              		.size	_ZN15ThemeDownloader13OnButtonClickEP9GuiButtoniRK6_POINT, .-_ZN15ThemeDownloader13OnButtonC
 1973              		.align 2
 1974              		.globl _ZThn176_N15ThemeDownloaderD1Ev
 1975              		.type	_ZThn176_N15ThemeDownloaderD1Ev, @function
 1976              	_ZThn176_N15ThemeDownloaderD1Ev:
 1977              	.LFB2376:
 1978              		.cfi_startproc
 1979 010c 3863FF50 		addi 3,3,-176
 1980 0110 48000004 		b .LTHUNK0
 1981              		.cfi_endproc
 1982              	.LFE2376:
 1983              		.size	_ZThn176_N15ThemeDownloaderD1Ev, .-_ZThn176_N15ThemeDownloaderD1Ev
 1984              		.align 2
 1985              		.globl _ZN15ThemeDownloaderD2Ev
 1986              		.type	_ZN15ThemeDownloaderD2Ev, @function
 1987              	_ZN15ThemeDownloaderD2Ev:
 1988              	.LFB1608:
 1989              		.loc 4 63 0
 1990              		.cfi_startproc
 1991              		.cfi_personality 0,__gxx_personality_v0
 1992              		.cfi_lsda 0,.LLSDA1608
 1993              	.LVL158:
 1994 0114 7C0802A6 		mflr 0
 1995 0118 9421FFE0 		stwu 1,-32(1)
 1996              	.LCFI50:
 1997              		.cfi_def_cfa_offset 32
 1998              		.cfi_register 65, 0
 1999              	.LBB3050:
 2000 011c 3D200000 		lis 9,_ZTV15ThemeDownloader+8@ha
 2001 0120 39290008 		la 9,_ZTV15ThemeDownloader+8@l(9)
 2002              	.LBE3050:
 2003 0124 93E1001C 		stw 31,28(1)
 2004 0128 90010024 		stw 0,36(1)
 2005              	.LBB3074:
 2006 012c 38090108 		addi 0,9,264
 2007              		.cfi_offset 65, 4
 2008              		.cfi_offset 31, -4
 2009              	.LBE3074:
 2010 0130 93C10018 		stw 30,24(1)
 2011              		.loc 4 63 0
 2012 0134 7C7F1B78 		mr 31,3
 2013              	.LBB3075:
 2014 0138 91230000 		stw 9,0(3)
 2015 013c 900300B0 		stw 0,176(3)
 2016              	.LBB3051:
 2017              		.loc 4 65 0
 2018 0140 8063018C 		lwz 3,396(3)
 2019              	.LVL159:
 2020              	.LEHB0:
 2021              		.cfi_offset 30, -8
 2022 0144 48000001 		bl _ZN9Resources6RemoveEP12GuiImageData
 2023              		.loc 4 66 0
 2024 0148 809F0174 		lwz 4,372(31)
 2025 014c 7FE3FB78 		mr 3,31
 2026 0150 48000001 		bl _ZN8GuiFrame6RemoveEP10GuiElement
 2027              		.loc 4 68 0
 2028 0154 807F0174 		lwz 3,372(31)
 2029 0158 2F830000 		cmpwi 7,3,0
 2030 015c 419E0014 		beq- 7,.L117
 2031              		.loc 4 68 0 is_stmt 0 discriminator 1
 2032 0160 81230000 		lwz 9,0(3)
 2033 0164 80090004 		lwz 0,4(9)
 2034 0168 7C0903A6 		mtctr 0
 2035 016c 4E800421 		bctrl
 2036              	.L117:
 2037              		.loc 4 69 0 is_stmt 1
 2038 0170 83DF0170 		lwz 30,368(31)
 2039 0174 2F9E0000 		cmpwi 7,30,0
 2040 0178 419E0014 		beq- 7,.L118
 2041              		.loc 4 70 0
 2042 017c 7FC3F378 		mr 3,30
 2043 0180 48000001 		bl _ZN10Theme_ListD1Ev
 2044              		.loc 4 70 0 is_stmt 0 discriminator 1
 2045 0184 7FC3F378 		mr 3,30
 2046 0188 48000001 		bl _ZdlPv
 2047              	.L118:
 2048              	.LVL160:
 2049              	.LBB3052:
 2050              		.loc 4 74 0 is_stmt 1 discriminator 1
 2051 018c 807F0178 		lwz 3,376(31)
 2052 0190 2F830000 		cmpwi 7,3,0
 2053 0194 419E0014 		beq- 7,.L119
 2054              		.loc 4 75 0
 2055 0198 81230000 		lwz 9,0(3)
 2056 019c 80090004 		lwz 0,4(9)
 2057 01a0 7C0903A6 		mtctr 0
 2058 01a4 4E800421 		bctrl
 2059              	.L119:
 2060              	.LVL161:
 2061              		.loc 4 74 0
 2062 01a8 807F017C 		lwz 3,380(31)
 2063 01ac 2F830000 		cmpwi 7,3,0
 2064 01b0 419E0014 		beq- 7,.L120
 2065              		.loc 4 75 0
 2066 01b4 81230000 		lwz 9,0(3)
 2067 01b8 80090004 		lwz 0,4(9)
 2068 01bc 7C0903A6 		mtctr 0
 2069 01c0 4E800421 		bctrl
 2070              	.L120:
 2071              	.LVL162:
 2072              		.loc 4 74 0
 2073 01c4 807F0180 		lwz 3,384(31)
 2074 01c8 2F830000 		cmpwi 7,3,0
 2075 01cc 419E0014 		beq- 7,.L121
 2076              		.loc 4 75 0
 2077 01d0 81230000 		lwz 9,0(3)
 2078 01d4 80090004 		lwz 0,4(9)
 2079 01d8 7C0903A6 		mtctr 0
 2080 01dc 4E800421 		bctrl
 2081              	.L121:
 2082              	.LVL163:
 2083              		.loc 4 74 0
 2084 01e0 807F0184 		lwz 3,388(31)
 2085 01e4 2F830000 		cmpwi 7,3,0
 2086 01e8 419E0014 		beq- 7,.L122
 2087              		.loc 4 75 0 discriminator 1
 2088 01ec 81230000 		lwz 9,0(3)
 2089 01f0 80090004 		lwz 0,4(9)
 2090 01f4 7C0903A6 		mtctr 0
 2091 01f8 4E800421 		bctrl
 2092              	.LEHE0:
 2093              	.L122:
 2094              	.LVL164:
 2095              	.LBE3052:
 2096              	.LBE3051:
 2097              	.LBB3053:
 2098              	.LBB3054:
 2099              	.LBB3055:
 2100              	.LBB3056:
 2101              	.LBB3057:
 2102              	.LBB3058:
 2103              		.file 6 "d:\\devkitpro\\devkitppc\\bin\\../lib/gcc/powerpc-eabi/4.6.3/../../../../powerpc-eabi/inc
 2104              		.loc 6 288 0
 2105 01fc 813F0188 		lwz 9,392(31)
 2106              	.LBE3058:
 2107              	.LBE3057:
 2108              	.LBE3056:
 2109              	.LBB3059:
 2110              	.LBB3060:
 2111              		.loc 6 235 0
 2112 0200 3D600000 		lis 11,_ZNSs4_Rep20_S_empty_rep_storageE@ha
 2113 0204 380B0000 		la 0,_ZNSs4_Rep20_S_empty_rep_storageE@l(11)
 2114              	.LBE3060:
 2115              	.LBE3059:
 2116              		.loc 6 534 0
 2117 0208 3869FFF4 		addi 3,9,-12
 2118              	.LVL165:
 2119              	.LBB3069:
 2120              	.LBB3067:
 2121              		.loc 6 235 0
 2122 020c 7F830000 		cmpw 7,3,0
 2123 0210 409E0024 		bne- 7,.L132
 2124              	.LVL166:
 2125              	.L128:
 2126              	.LBE3067:
 2127              	.LBE3069:
 2128              	.LBE3055:
 2129              	.LBE3054:
 2130              	.LBE3053:
 2131              		.loc 4 63 0
 2132 0214 7FE3FB78 		mr 3,31
 2133              	.LEHB1:
 2134 0218 48000001 		bl _ZN17FlyingButtonsMenuD2Ev
 2135              	.LEHE1:
 2136              	.LBE3075:
 2137              		.loc 4 77 0
 2138 021c 80010024 		lwz 0,36(1)
 2139 0220 83C10018 		lwz 30,24(1)
 2140 0224 7C0803A6 		mtlr 0
 2141 0228 83E1001C 		lwz 31,28(1)
 2142              	.LVL167:
 2143 022c 38210020 		addi 1,1,32
 2144              		.cfi_remember_state
 2145              	.LCFI51:
 2146              		.cfi_def_cfa_offset 0
 2147              		.cfi_restore 31
 2148              		.cfi_restore 30
 2149 0230 4E800020 		blr
 2150              	.LVL168:
 2151              	.L132:
 2152              	.LCFI52:
 2153              		.cfi_restore_state
 2154              	.LBB3076:
 2155              	.LBB3073:
 2156              	.LBB3072:
 2157              	.LBB3071:
 2158              	.LBB3070:
 2159              	.LBB3068:
 2160              	.LBB3061:
 2161              	.LBB3062:
 2162              	.LBB3063:
 2163              		.file 7 "d:\\devkitpro\\devkitppc\\bin\\../lib/gcc/powerpc-eabi/4.6.3/../../../../powerpc-eabi/inc
 2164              		.loc 7 66 0
 2165 0234 8169FFFC 		lwz 11,-4(9)
 2166              	.LVL169:
 2167              	.LBE3063:
 2168              	.LBE3062:
 2169              	.LBE3061:
 2170              		.loc 6 240 0
 2171 0238 2F8B0000 		cmpwi 7,11,0
 2172              	.LBB3066:
 2173              	.LBB3065:
 2174              	.LBB3064:
 2175              		.loc 7 67 0
 2176 023c 396BFFFF 		addi 11,11,-1
 2177 0240 9169FFFC 		stw 11,-4(9)
 2178              	.LBE3064:
 2179              	.LBE3065:
 2180              	.LBE3066:
 2181              		.loc 6 240 0
 2182 0244 419DFFD0 		bgt+ 7,.L128
 2183              		.loc 6 244 0
 2184 0248 38810008 		addi 4,1,8
 2185 024c 48000001 		bl _ZNSs4_Rep10_M_destroyERKSaIcE
 2186              	.LVL170:
 2187 0250 4BFFFFC4 		b .L128
 2188              	.LVL171:
 2189              	.L131:
 2190 0254 7C7E1B78 		mr 30,3
 2191              	.LBE3068:
 2192              	.LBE3070:
 2193              	.LBE3071:
 2194              	.LBE3072:
 2195              	.LBE3073:
 2196              		.loc 4 63 0
 2197 0258 387F0188 		addi 3,31,392
 2198 025c 48000001 		bl _ZNSsD1Ev
 2199 0260 7FE3FB78 		mr 3,31
 2200 0264 48000001 		bl _ZN17FlyingButtonsMenuD2Ev
 2201 0268 7FC3F378 		mr 3,30
 2202              	.LEHB2:
 2203 026c 48000001 		bl _Unwind_Resume
 2204              	.LEHE2:
 2205              	.LBE3076:
 2206              		.cfi_endproc
 2207              	.LFE1608:
 2208              		.globl __gxx_personality_v0
 2209              		.section	.gcc_except_table,"a",@progbits
 2210              	.LLSDA1608:
 2211 0000 FF       		.byte	0xff
 2212 0001 FF       		.byte	0xff
 2213 0002 01       		.byte	0x1
 2214 0003 10       		.uleb128 .LLSDACSE1608-.LLSDACSB1608
 2215              	.LLSDACSB1608:
 2216 0004 30       		.uleb128 .LEHB0-.LFB1608
 2217 0005 B801     		.uleb128 .LEHE0-.LEHB0
 2218 0007 C002     		.uleb128 .L131-.LFB1608
 2219 0009 00       		.uleb128 0
 2220 000a 8402     		.uleb128 .LEHB1-.LFB1608
 2221 000c 04       		.uleb128 .LEHE1-.LEHB1
 2222 000d 00       		.uleb128 0
 2223 000e 00       		.uleb128 0
 2224 000f D802     		.uleb128 .LEHB2-.LFB1608
 2225 0011 04       		.uleb128 .LEHE2-.LEHB2
 2226 0012 00       		.uleb128 0
 2227 0013 00       		.uleb128 0
 2228              	.LLSDACSE1608:
 2229              		.section	".text"
 2230              		.size	_ZN15ThemeDownloaderD2Ev, .-_ZN15ThemeDownloaderD2Ev
 2231              		.align 2
 2232              		.globl _ZThn176_N15ThemeDownloaderD0Ev
 2233              		.type	_ZThn176_N15ThemeDownloaderD0Ev, @function
 2234              	_ZThn176_N15ThemeDownloaderD0Ev:
 2235              	.LFB2377:
 2236              		.cfi_startproc
 2237 0270 3863FF50 		addi 3,3,-176
 2238 0274 48000004 		b .LTHUNK1
 2239              		.cfi_endproc
 2240              	.LFE2377:
 2241              		.size	_ZThn176_N15ThemeDownloaderD0Ev, .-_ZThn176_N15ThemeDownloaderD0Ev
 2242              		.align 2
 2243              		.globl _ZN15ThemeDownloaderD0Ev
 2244              		.type	_ZN15ThemeDownloaderD0Ev, @function
 2245              	_ZN15ThemeDownloaderD0Ev:
 2246              	.LFB1610:
 2247              		.loc 4 63 0
 2248              		.cfi_startproc
 2249              	.LVL172:
 2250 0278 9421FFF0 		stwu 1,-16(1)
 2251              	.LCFI53:
 2252              		.cfi_def_cfa_offset 16
 2253 027c 7C0802A6 		mflr 0
 2254 0280 93E1000C 		stw 31,12(1)
 2255 0284 7C7F1B78 		mr 31,3
 2256              		.cfi_offset 31, -4
 2257              		.cfi_register 65, 0
 2258 0288 90010014 		stw 0,20(1)
 2259              		.loc 4 77 0
 2260              		.cfi_offset 65, 4
 2261 028c 48000001 		bl _ZN15ThemeDownloaderD1Ev
 2262              	.LVL173:
 2263 0290 7FE3FB78 		mr 3,31
 2264 0294 48000001 		bl _ZdlPv
 2265 0298 80010014 		lwz 0,20(1)
 2266 029c 83E1000C 		lwz 31,12(1)
 2267              	.LVL174:
 2268 02a0 7C0803A6 		mtlr 0
 2269 02a4 38210010 		addi 1,1,16
 2270              	.LCFI54:
 2271              		.cfi_def_cfa_offset 0
 2272              		.cfi_restore 31
 2273 02a8 4E800020 		blr
 2274              		.cfi_endproc
 2275              	.LFE1610:
 2276              		.size	_ZN15ThemeDownloaderD0Ev, .-_ZN15ThemeDownloaderD0Ev
 2277              		.align 2
 2278              		.globl _ZN15ThemeDownloader12GetImageDataEi
 2279              		.type	_ZN15ThemeDownloader12GetImageDataEi, @function
 2280              	_ZN15ThemeDownloader12GetImageDataEi:
 2281              	.LFB1613:
 2282              		.loc 4 169 0
 2283              		.cfi_startproc
 2284              		.cfi_personality 0,__gxx_personality_v0
 2285              		.cfi_lsda 0,.LLSDA1613
 2286              	.LVL175:
 2287 02ac 7C0802A6 		mflr 0
 2288 02b0 9421FD70 		stwu 1,-656(1)
 2289              	.LCFI55:
 2290              		.cfi_def_cfa_offset 656
 2291              		.cfi_register 65, 0
 2292 02b4 93A10284 		stw 29,644(1)
 2293 02b8 7C7D1B78 		mr 29,3
 2294              		.cfi_offset 29, -12
 2295 02bc 90010294 		stw 0,660(1)
 2296 02c0 93C10288 		stw 30,648(1)
 2297              	.LBB3132:
 2298              		.loc 4 172 0
 2299 02c4 3FC00000 		lis 30,Settings+144@ha
 2300              		.cfi_offset 30, -8
 2301              		.cfi_offset 65, 4
 2302 02c8 80630170 		lwz 3,368(3)
 2303              	.LVL176:
 2304 02cc 3BDE0090 		la 30,Settings+144@l(30)
 2305              	.LBE3132:
 2306              		.loc 4 169 0
 2307 02d0 93810280 		stw 28,640(1)
 2308 02d4 7C9C2378 		mr 28,4
 2309              		.cfi_offset 28, -16
 2310 02d8 9361027C 		stw 27,636(1)
 2311 02dc 93E1028C 		stw 31,652(1)
 2312              	.LEHB3:
 2313              	.LBB3187:
 2314              		.loc 4 172 0
 2315              		.cfi_offset 31, -4
 2316              		.cfi_offset 27, -20
 2317 02e0 48000001 		bl _ZNK10Theme_List13GetThemeTitleEi
 2318              	.LVL177:
 2319 02e4 3CA00000 		lis 5,.LC4@ha
 2320 02e8 7C671B78 		mr 7,3
 2321 02ec 3880012C 		li 4,300
 2322 02f0 38A50000 		la 5,.LC4@l(5)
 2323 02f4 7FC6F378 		mr 6,30
 2324 02f8 38610140 		addi 3,1,320
 2325 02fc 4CC63182 		crxor 6,6,6
 2326 0300 48000001 		bl snprintf
 2327              	.LBB3133:
 2328              		.loc 4 174 0
 2329 0304 38610010 		addi 3,1,16
 2330 0308 38810140 		addi 4,1,320
 2331 030c 38A1000B 		addi 5,1,11
 2332 0310 48000001 		bl _ZNSsC1EPKcRKSaIcE
 2333              	.LEHE3:
 2334 0314 38610010 		addi 3,1,16
 2335              	.LEHB4:
 2336 0318 48000001 		bl _Z9CheckFileSs
 2337              	.LEHE4:
 2338              	.LBB3134:
 2339              	.LBB3135:
 2340              	.LBB3136:
 2341              	.LBB3137:
 2342              	.LBB3138:
 2343              	.LBB3139:
 2344              		.loc 6 288 0
 2345 031c 81210010 		lwz 9,16(1)
 2346              	.LBE3139:
 2347              	.LBE3138:
 2348              	.LBE3137:
 2349              	.LBB3140:
 2350              	.LBB3141:
 2351              		.loc 6 235 0
 2352 0320 3FE00000 		lis 31,_ZNSs4_Rep20_S_empty_rep_storageE@ha
 2353              	.LBE3141:
 2354              	.LBE3140:
 2355              	.LBE3136:
 2356              	.LBE3135:
 2357              	.LBE3134:
 2358              		.loc 4 174 0
 2359 0324 7C7B1B78 		mr 27,3
 2360              	.LVL178:
 2361              	.LBB3158:
 2362              	.LBB3156:
 2363              	.LBB3154:
 2364              	.LBB3151:
 2365              	.LBB3148:
 2366              		.loc 6 235 0
 2367 0328 3BFF0000 		la 31,_ZNSs4_Rep20_S_empty_rep_storageE@l(31)
 2368              	.LBE3148:
 2369              	.LBE3151:
 2370              		.loc 6 534 0
 2371 032c 3869FFF4 		addi 3,9,-12
 2372              	.LVL179:
 2373              	.LBB3152:
 2374              	.LBB3149:
 2375              		.loc 6 235 0
 2376 0330 7F83F800 		cmpw 7,3,31
 2377 0334 409E0150 		bne- 7,.L165
 2378              	.LVL180:
 2379              	.L143:
 2380              	.LBE3149:
 2381              	.LBE3152:
 2382              	.LBE3154:
 2383              	.LBE3156:
 2384              	.LBE3158:
 2385              		.loc 4 174 0 discriminator 2
 2386 0338 2F9B0000 		cmpwi 7,27,0
 2387 033c 409E00E4 		bne- 7,.L144
 2388              	.LBB3159:
 2389              		.loc 4 176 0
 2390 0340 807D0170 		lwz 3,368(29)
 2391 0344 7F84E378 		mr 4,28
 2392              	.LEHB5:
 2393 0348 48000001 		bl _ZNK10Theme_List12GetImageLinkEi
 2394 034c 48000001 		bl downloadfile
 2395              		.loc 4 178 0
 2396 0350 3CA00000 		lis 5,.LC5@ha
 2397 0354 38A50010 		la 5,.LC5@l(5)
 2398 0358 7FC6F378 		mr 6,30
 2399              		.loc 4 176 0
 2400 035c 7C7C1B78 		mr 28,3
 2401              	.LVL181:
 2402 0360 7C9D2378 		mr 29,4
 2403              	.LVL182:
 2404              		.loc 4 178 0
 2405 0364 38610014 		addi 3,1,20
 2406              	.LVL183:
 2407 0368 3880012C 		li 4,300
 2408              	.LVL184:
 2409 036c 4CC63182 		crxor 6,6,6
 2410 0370 48000001 		bl snprintf
 2411              		.loc 4 179 0
 2412 0374 3861000C 		addi 3,1,12
 2413 0378 38810014 		addi 4,1,20
 2414 037c 38A1000A 		addi 5,1,10
 2415 0380 48000001 		bl _ZNSsC1EPKcRKSaIcE
 2416              	.LEHE5:
 2417 0384 3861000C 		addi 3,1,12
 2418              	.LEHB6:
 2419 0388 48000001 		bl _Z15CreateSubfolderSs
 2420              	.LEHE6:
 2421              	.LVL185:
 2422              	.LBB3160:
 2423              	.LBB3161:
 2424              	.LBB3162:
 2425              	.LBB3163:
 2426              	.LBB3164:
 2427              	.LBB3165:
 2428              		.loc 6 288 0
 2429 038c 8121000C 		lwz 9,12(1)
 2430              	.LBE3165:
 2431              	.LBE3164:
 2432              	.LBE3163:
 2433              		.loc 6 534 0
 2434 0390 3869FFF4 		addi 3,9,-12
 2435              	.LVL186:
 2436              	.LBB3166:
 2437              	.LBB3167:
 2438              		.loc 6 235 0
 2439 0394 7F83F800 		cmpw 7,3,31
 2440 0398 409E00CC 		bne- 7,.L166
 2441              	.LVL187:
 2442              	.L152:
 2443              	.LBE3167:
 2444              	.LBE3166:
 2445              	.LBE3162:
 2446              	.LBE3161:
 2447              	.LBE3160:
 2448              	.LBB3178:
 2449              		.loc 4 180 0 discriminator 1
 2450 039c 2F9D0000 		cmpwi 7,29,0
 2451 03a0 419E00BC 		beq- 7,.L159
 2452              	.LBB3179:
 2453              		.loc 4 182 0
 2454 03a4 38600018 		li 3,24
 2455              	.LEHB7:
 2456 03a8 48000001 		bl _Znwj
 2457              	.LEHE7:
 2458 03ac 7FA4EB78 		mr 4,29
 2459 03b0 7F85E378 		mr 5,28
 2460 03b4 7C7F1B78 		mr 31,3
 2461              	.LEHB8:
 2462 03b8 48000001 		bl _ZN12GuiImageDataC1EPKhi
 2463              	.LEHE8:
 2464              	.LVL188:
 2465              		.loc 4 184 0 discriminator 1
 2466 03bc 3C800000 		lis 4,.LC6@ha
 2467 03c0 38610140 		addi 3,1,320
 2468 03c4 38840018 		la 4,.LC6@l(4)
 2469              	.LEHB9:
 2470 03c8 48000001 		bl fopen
 2471              	.LVL189:
 2472              		.loc 4 185 0 discriminator 1
 2473 03cc 7C7E1B79 		mr. 30,3
 2474 03d0 41820020 		beq- 0,.L154
 2475              		.loc 4 187 0
 2476 03d4 7FA3EB78 		mr 3,29
 2477              	.LVL190:
 2478 03d8 38800001 		li 4,1
 2479 03dc 7F85E378 		mr 5,28
 2480 03e0 7FC6F378 		mr 6,30
 2481 03e4 48000001 		bl fwrite
 2482              		.loc 4 188 0
 2483 03e8 7FC3F378 		mr 3,30
 2484 03ec 48000001 		bl fclose
 2485              	.L154:
 2486              		.loc 4 190 0
 2487 03f0 7FA3EB78 		mr 3,29
 2488 03f4 48000001 		bl free
 2489              	.LBE3179:
 2490              	.LBE3178:
 2491              	.LBE3159:
 2492              	.LBE3133:
 2493              	.LBE3187:
 2494              		.loc 4 197 0
 2495 03f8 80010294 		lwz 0,660(1)
 2496 03fc 7FE3FB78 		mr 3,31
 2497 0400 8361027C 		lwz 27,636(1)
 2498 0404 7C0803A6 		mtlr 0
 2499 0408 83810280 		lwz 28,640(1)
 2500              	.LVL191:
 2501 040c 83A10284 		lwz 29,644(1)
 2502              	.LVL192:
 2503 0410 83C10288 		lwz 30,648(1)
 2504              	.LVL193:
 2505 0414 83E1028C 		lwz 31,652(1)
 2506              	.LVL194:
 2507 0418 38210290 		addi 1,1,656
 2508              		.cfi_remember_state
 2509              		.cfi_restore 27
 2510              		.cfi_restore 28
 2511              		.cfi_restore 29
 2512              		.cfi_restore 30
 2513              		.cfi_restore 31
 2514              	.LCFI56:
 2515              		.cfi_def_cfa_offset 0
 2516 041c 4E800020 		blr
 2517              	.LVL195:
 2518              	.L144:
 2519              	.LCFI57:
 2520              		.cfi_restore_state
 2521              	.LBB3188:
 2522              	.LBB3185:
 2523              		.loc 4 194 0
 2524 0420 38600018 		li 3,24
 2525 0424 48000001 		bl _Znwj
 2526              	.LEHE9:
 2527 0428 38810140 		addi 4,1,320
 2528 042c 7C7F1B78 		mr 31,3
 2529              	.LEHB10:
 2530 0430 48000001 		bl _ZN12GuiImageDataC1EPKc
 2531              	.LEHE10:
 2532              	.LVL196:
 2533              	.L153:
 2534              	.LBE3185:
 2535              	.LBE3188:
 2536              		.loc 4 197 0
 2537 0434 80010294 		lwz 0,660(1)
 2538 0438 7FE3FB78 		mr 3,31
 2539 043c 8361027C 		lwz 27,636(1)
 2540 0440 7C0803A6 		mtlr 0
 2541 0444 83810280 		lwz 28,640(1)
 2542              	.LVL197:
 2543 0448 83A10284 		lwz 29,644(1)
 2544 044c 83C10288 		lwz 30,648(1)
 2545 0450 83E1028C 		lwz 31,652(1)
 2546              	.LVL198:
 2547 0454 38210290 		addi 1,1,656
 2548              		.cfi_remember_state
 2549              	.LCFI58:
 2550              		.cfi_def_cfa_offset 0
 2551              		.cfi_restore 31
 2552              		.cfi_restore 30
 2553              		.cfi_restore 29
 2554              		.cfi_restore 28
 2555              		.cfi_restore 27
 2556 0458 4E800020 		blr
 2557              	.LVL199:
 2558              	.L159:
 2559              	.LCFI59:
 2560              		.cfi_restore_state
 2561              	.LBB3189:
 2562              	.LBB3186:
 2563              	.LBB3182:
 2564              	.LBB3180:
 2565              		.loc 4 170 0
 2566 045c 3BE00000 		li 31,0
 2567 0460 4BFFFFD4 		b .L153
 2568              	.LVL200:
 2569              	.L166:
 2570              	.LBE3180:
 2571              	.LBB3181:
 2572              	.LBB3177:
 2573              	.LBB3176:
 2574              	.LBB3175:
 2575              	.LBB3174:
 2576              	.LBB3168:
 2577              	.LBB3169:
 2578              	.LBB3170:
 2579              		.loc 7 66 0
 2580 0464 8169FFFC 		lwz 11,-4(9)
 2581              	.LVL201:
 2582              	.LBE3170:
 2583              	.LBE3169:
 2584              	.LBE3168:
 2585              		.loc 6 240 0
 2586 0468 2F8B0000 		cmpwi 7,11,0
 2587              	.LBB3173:
 2588              	.LBB3172:
 2589              	.LBB3171:
 2590              		.loc 7 67 0
 2591 046c 396BFFFF 		addi 11,11,-1
 2592 0470 9169FFFC 		stw 11,-4(9)
 2593              	.LBE3171:
 2594              	.LBE3172:
 2595              	.LBE3173:
 2596              		.loc 6 240 0
 2597 0474 419DFF28 		bgt+ 7,.L152
 2598              		.loc 6 244 0
 2599 0478 38810008 		addi 4,1,8
 2600 047c 48000001 		bl _ZNSs4_Rep10_M_destroyERKSaIcE
 2601              	.LVL202:
 2602 0480 4BFFFF1C 		b .L152
 2603              	.LVL203:
 2604              	.L165:
 2605              	.LBE3174:
 2606              	.LBE3175:
 2607              	.LBE3176:
 2608              	.LBE3177:
 2609              	.LBE3181:
 2610              	.LBE3182:
 2611              	.LBB3183:
 2612              	.LBB3157:
 2613              	.LBB3155:
 2614              	.LBB3153:
 2615              	.LBB3150:
 2616              	.LBB3142:
 2617              	.LBB3143:
 2618              	.LBB3144:
 2619              		.loc 7 66 0
 2620 0484 8169FFFC 		lwz 11,-4(9)
 2621              	.LVL204:
 2622              	.LBE3144:
 2623              	.LBE3143:
 2624              	.LBE3142:
 2625              		.loc 6 240 0
 2626 0488 2F8B0000 		cmpwi 7,11,0
 2627              	.LBB3147:
 2628              	.LBB3146:
 2629              	.LBB3145:
 2630              		.loc 7 67 0
 2631 048c 396BFFFF 		addi 11,11,-1
 2632 0490 9169FFFC 		stw 11,-4(9)
 2633              	.LBE3145:
 2634              	.LBE3146:
 2635              	.LBE3147:
 2636              		.loc 6 240 0
 2637 0494 419DFEA4 		bgt+ 7,.L143
 2638              		.loc 6 244 0
 2639 0498 38810009 		addi 4,1,9
 2640 049c 48000001 		bl _ZNSs4_Rep10_M_destroyERKSaIcE
 2641              	.LVL205:
 2642 04a0 4BFFFE98 		b .L143
 2643              	.LVL206:
 2644              	.L160:
 2645 04a4 7C7F1B78 		mr 31,3
 2646              	.LBE3150:
 2647              	.LBE3153:
 2648              	.LBE3155:
 2649              	.LBE3157:
 2650              	.LBE3183:
 2651              		.loc 4 174 0
 2652 04a8 38610010 		addi 3,1,16
 2653 04ac 48000001 		bl _ZNSsD1Ev
 2654 04b0 7FE3FB78 		mr 3,31
 2655              	.LEHB11:
 2656 04b4 48000001 		bl _Unwind_Resume
 2657              	.LVL207:
 2658              	.L163:
 2659              	.L164:
 2660 04b8 7C7E1B78 		mr 30,3
 2661              		.loc 4 194 0
 2662 04bc 7FE3FB78 		mr 3,31
 2663 04c0 48000001 		bl _ZdlPv
 2664 04c4 7FC3F378 		mr 3,30
 2665 04c8 48000001 		bl _Unwind_Resume
 2666              	.LVL208:
 2667              	.L161:
 2668 04cc 7C7F1B78 		mr 31,3
 2669              	.LBB3184:
 2670              		.loc 4 179 0
 2671 04d0 3861000C 		addi 3,1,12
 2672 04d4 48000001 		bl _ZNSsD1Ev
 2673 04d8 7FE3FB78 		mr 3,31
 2674 04dc 48000001 		bl _Unwind_Resume
 2675              	.LEHE11:
 2676              	.LVL209:
 2677              	.L162:
 2678 04e0 4BFFFFD8 		b .L164
 2679              	.LBE3184:
 2680              	.LBE3186:
 2681              	.LBE3189:
 2682              		.cfi_endproc
 2683              	.LFE1613:
 2684              		.section	.gcc_except_table
 2685              	.LLSDA1613:
 2686 0014 FF       		.byte	0xff
 2687 0015 FF       		.byte	0xff
 2688 0016 01       		.byte	0x1
 2689 0017 2F       		.uleb128 .LLSDACSE1613-.LLSDACSB1613
 2690              	.LLSDACSB1613:
 2691 0018 34       		.uleb128 .LEHB3-.LFB1613
 2692 0019 34       		.uleb128 .LEHE3-.LEHB3
 2693 001a 00       		.uleb128 0
 2694 001b 00       		.uleb128 0
 2695 001c 6C       		.uleb128 .LEHB4-.LFB1613
 2696 001d 04       		.uleb128 .LEHE4-.LEHB4
 2697 001e F803     		.uleb128 .L160-.LFB1613
 2698 0020 00       		.uleb128 0
 2699 0021 9C01     		.uleb128 .LEHB5-.LFB1613
 2700 0023 3C       		.uleb128 .LEHE5-.LEHB5
 2701 0024 00       		.uleb128 0
 2702 0025 00       		.uleb128 0
 2703 0026 DC01     		.uleb128 .LEHB6-.LFB1613
 2704 0028 04       		.uleb128 .LEHE6-.LEHB6
 2705 0029 A004     		.uleb128 .L161-.LFB1613
 2706 002b 00       		.uleb128 0
 2707 002c FC01     		.uleb128 .LEHB7-.LFB1613
 2708 002e 04       		.uleb128 .LEHE7-.LEHB7
 2709 002f 00       		.uleb128 0
 2710 0030 00       		.uleb128 0
 2711 0031 8C02     		.uleb128 .LEHB8-.LFB1613
 2712 0033 04       		.uleb128 .LEHE8-.LEHB8
 2713 0034 B404     		.uleb128 .L162-.LFB1613
 2714 0036 00       		.uleb128 0
 2715 0037 9C02     		.uleb128 .LEHB9-.LFB1613
 2716 0039 60       		.uleb128 .LEHE9-.LEHB9
 2717 003a 00       		.uleb128 0
 2718 003b 00       		.uleb128 0
 2719 003c 8403     		.uleb128 .LEHB10-.LFB1613
 2720 003e 04       		.uleb128 .LEHE10-.LEHB10
 2721 003f 8C04     		.uleb128 .L163-.LFB1613
 2722 0041 00       		.uleb128 0
 2723 0042 8804     		.uleb128 .LEHB11-.LFB1613
 2724 0044 2C       		.uleb128 .LEHE11-.LEHB11
 2725 0045 00       		.uleb128 0
 2726 0046 00       		.uleb128 0
 2727              	.LLSDACSE1613:
 2728              		.section	".text"
 2729              		.size	_ZN15ThemeDownloader12GetImageDataEi, .-_ZN15ThemeDownloader12GetImageDataEi
 2730              		.align 2
 2731              		.globl _ZN15ThemeDownloader14AddMainButtonsEv
 2732              		.type	_ZN15ThemeDownloader14AddMainButtonsEv, @function
 2733              	_ZN15ThemeDownloader14AddMainButtonsEv:
 2734              	.LFB1614:
 2735              		.loc 4 200 0
 2736              		.cfi_startproc
 2737              		.cfi_personality 0,__gxx_personality_v0
 2738              		.cfi_lsda 0,.LLSDA1614
 2739              	.LVL210:
 2740 04e4 7C0802A6 		mflr 0
 2741 04e8 9421FFB8 		stwu 1,-72(1)
 2742              	.LCFI60:
 2743              		.cfi_def_cfa_offset 72
 2744              		.cfi_register 65, 0
 2745 04ec 93E10044 		stw 31,68(1)
 2746 04f0 7C7F1B78 		mr 31,3
 2747              		.cfi_offset 31, -4
 2748 04f4 9001004C 		stw 0,76(1)
 2749              	.LBB3218:
 2750              	.LBB3219:
 2751              		.loc 4 201 0
 2752 04f8 38000000 		li 0,0
 2753              		.cfi_offset 65, 4
 2754              	.LBE3219:
 2755              	.LBE3218:
 2756              		.loc 4 200 0
 2757 04fc 92810018 		stw 20,24(1)
 2758              	.LBB3269:
 2759              	.LBB3226:
 2760              		.loc 4 281 0
 2761 0500 81230164 		lwz 9,356(3)
 2762              	.LBE3226:
 2763              	.LBB3233:
 2764              	.LBB3220:
 2765              	.LBB3221:
 2766              		.loc 5 571 0
 2767 0504 81630168 		lwz 11,360(3)
 2768              	.LBE3221:
 2769              	.LBE3220:
 2770              	.LBE3233:
 2771              	.LBE3269:
 2772              		.loc 4 200 0
 2773 0508 92A1001C 		stw 21,28(1)
 2774              	.LBB3270:
 2775              	.LBB3234:
 2776              	.LBB3224:
 2777              	.LBB3222:
 2778              		.loc 5 571 0
 2779 050c 7D695850 		subf 11,9,11
 2780              	.LBE3222:
 2781              	.LBE3224:
 2782              	.LBE3234:
 2783              	.LBE3270:
 2784              		.loc 4 200 0
 2785 0510 92C10020 		stw 22,32(1)
 2786              	.LBB3271:
 2787              	.LBB3235:
 2788              		.loc 4 201 0
 2789 0514 556AF0BF 		srwi. 10,11,2
 2790              	.LBE3235:
 2791              	.LBE3271:
 2792              		.loc 4 200 0
 2793 0518 92E10024 		stw 23,36(1)
 2794 051c 93010028 		stw 24,40(1)
 2795 0520 9321002C 		stw 25,44(1)
 2796 0524 93410030 		stw 26,48(1)
 2797 0528 93610034 		stw 27,52(1)
 2798 052c 93810038 		stw 28,56(1)
 2799 0530 93A1003C 		stw 29,60(1)
 2800 0534 93C10040 		stw 30,64(1)
 2801              	.LBB3272:
 2802              	.LBB3236:
 2803              		.loc 4 201 0
 2804 0538 41820034 		beq- 0,.L168
 2805              		.cfi_offset 30, -8
 2806              		.cfi_offset 29, -12
 2807              		.cfi_offset 28, -16
 2808              		.cfi_offset 27, -20
 2809              		.cfi_offset 26, -24
 2810              		.cfi_offset 25, -28
 2811              		.cfi_offset 24, -32
 2812              		.cfi_offset 23, -36
 2813              		.cfi_offset 22, -40
 2814              		.cfi_offset 21, -44
 2815              		.cfi_offset 20, -48
 2816 053c 3BC00000 		li 30,0
 2817              	.LVL211:
 2818              	.L169:
 2819              		.loc 4 202 0 discriminator 2
 2820 0540 57C0103A 		slwi 0,30,2
 2821 0544 7FE3FB78 		mr 3,31
 2822 0548 7C89002E 		lwzx 4,9,0
 2823              		.loc 4 201 0 discriminator 2
 2824 054c 3BDE0001 		addi 30,30,1
 2825              	.LVL212:
 2826              	.LEHB12:
 2827              		.loc 4 202 0 discriminator 2
 2828 0550 48000001 		bl _ZN8GuiFrame6RemoveEP10GuiElement
 2829              	.LVL213:
 2830              		.loc 4 281 0 discriminator 2
 2831 0554 813F0164 		lwz 9,356(31)
 2832              	.LBB3225:
 2833              	.LBB3223:
 2834              		.loc 5 571 0 discriminator 2
 2835 0558 801F0168 		lwz 0,360(31)
 2836 055c 7C090050 		subf 0,9,0
 2837 0560 7C001670 		srawi 0,0,2
 2838              	.LBE3223:
 2839              	.LBE3225:
 2840              		.loc 4 201 0 discriminator 2
 2841 0564 7F9E0040 		cmplw 7,30,0
 2842 0568 419CFFD8 		blt+ 7,.L169
 2843              	.LVL214:
 2844              	.L168:
 2845              	.LBE3236:
 2846              		.loc 4 204 0
 2847 056c 82DF00D8 		lwz 22,216(31)
 2848              		.loc 4 207 0
 2849 0570 3B800004 		li 28,4
 2850              		.loc 4 204 0
 2851 0574 56D6103A 		slwi 22,22,2
 2852              	.LVL215:
 2853              		.loc 4 208 0
 2854 0578 7C160050 		subf 0,22,0
 2855 057c 2B800003 		cmplwi 7,0,3
 2856 0580 419D0008 		bgt- 7,.L170
 2857              		.loc 4 209 0
 2858 0584 7C1C0378 		mr 28,0
 2859              	.LVL216:
 2860              	.L170:
 2861              	.LBB3237:
 2862              	.LBB3238:
 2863              		.file 8 "d:/Projects/SaveGameManager/savegame-manager-gx/trunk/source/Themes/../Prompts/ProgressWi
 2864              		.loc 8 26 0
 2865 0588 3EE00000 		lis 23,_ZN14ProgressWindow8instanceE@ha
 2866 058c 83D70000 		lwz 30,_ZN14ProgressWindow8instanceE@l(23)
 2867 0590 2F9E0000 		cmpwi 7,30,0
 2868 0594 419E01EC 		beq- 7,.L198
 2869              	.L171:
 2870              	.LBE3238:
 2871              	.LBE3237:
 2872              		.loc 4 211 0
 2873 0598 3C600000 		lis 3,.LC7@ha
 2874 059c 3863001C 		la 3,.LC7@l(3)
 2875 05a0 48000001 		bl gettext
 2876 05a4 38A00000 		li 5,0
 2877 05a8 7C641B78 		mr 4,3
 2878 05ac 7FC3F378 		mr 3,30
 2879 05b0 48000001 		bl _ZN14ProgressWindow13StartProgressEPKcS1_
 2880              	.LVL217:
 2881              	.LBB3240:
 2882              	.LBB3241:
 2883              	.LBB3242:
 2884              		.loc 5 571 0
 2885 05b4 813F0168 		lwz 9,360(31)
 2886 05b8 801F0164 		lwz 0,356(31)
 2887 05bc 7C004850 		subf 0,0,9
 2888 05c0 7C001670 		srawi 0,0,2
 2889              	.LBE3242:
 2890              	.LBE3241:
 2891              		.loc 4 213 0
 2892 05c4 7F960000 		cmpw 7,22,0
 2893 05c8 409C00D0 		bge- 7,.L172
 2894 05cc 3E800000 		lis 20,_ZN14ProgressWindow8instanceE@ha
 2895 05d0 3AB60003 		addi 21,22,3
 2896 05d4 56DB103A 		slwi 27,22,2
 2897              		.loc 4 199 0
 2898 05d8 3BBF0174 		addi 29,31,372
 2899              	.LBE3240:
 2900 05dc 7EDEB378 		mr 30,22
 2901 05e0 3B000000 		li 24,0
 2902 05e4 3B200000 		li 25,0
 2903 05e8 3A940000 		la 20,_ZN14ProgressWindow8instanceE@l(20)
 2904              	.LVL218:
 2905              	.L173:
 2906              	.LBB3251:
 2907              	.LBB3244:
 2908              	.LBB3245:
 2909              		.loc 8 26 0 discriminator 5
 2910 05ec 83540000 		lwz 26,0(20)
 2911 05f0 2F9A0000 		cmpwi 7,26,0
 2912 05f4 419E0174 		beq- 7,.L199
 2913              	.L179:
 2914              	.LBE3245:
 2915              	.LBE3244:
 2916              		.loc 4 215 0
 2917 05f8 807F0170 		lwz 3,368(31)
 2918 05fc 7F80FE70 		srawi 0,28,31
 2919 0600 7FC4F378 		mr 4,30
 2920 0604 90010008 		stw 0,8(1)
 2921 0608 93010010 		stw 24,16(1)
 2922 060c 93210014 		stw 25,20(1)
 2923 0610 9381000C 		stw 28,12(1)
 2924 0614 48000001 		bl _ZNK10Theme_List13GetThemeTitleEi
 2925 0618 7C661B78 		mr 6,3
 2926 061c 38810010 		addi 4,1,16
 2927 0620 7F43D378 		mr 3,26
 2928 0624 38A10008 		addi 5,1,8
 2929 0628 48000001 		bl _ZN14ProgressWindow12ShowProgressERKyS1_PKc
 2930              		.loc 4 216 0
 2931 062c 847D0004 		lwzu 3,4(29)
 2932 0630 2F830000 		cmpwi 7,3,0
 2933 0634 419E0014 		beq- 7,.L176
 2934              		.loc 4 217 0 discriminator 1
 2935 0638 81230000 		lwz 9,0(3)
 2936 063c 80090004 		lwz 0,4(9)
 2937 0640 7C0903A6 		mtctr 0
 2938 0644 4E800421 		bctrl
 2939              	.L176:
 2940              		.loc 4 218 0
 2941 0648 7FC4F378 		mr 4,30
 2942 064c 7FE3FB78 		mr 3,31
 2943 0650 48000001 		bl _ZN15ThemeDownloader12GetImageDataEi
 2944              		.loc 4 213 0
 2945 0654 3BDE0001 		addi 30,30,1
 2946              	.LVL219:
 2947              		.loc 4 218 0
 2948 0658 907D0000 		stw 3,0(29)
 2949 065c 7C641B78 		mr 4,3
 2950              		.loc 4 219 0
 2951 0660 813F014C 		lwz 9,332(31)
 2952 0664 7C69D82E 		lwzx 3,9,27
 2953 0668 48000001 		bl _ZN8GuiImage8SetImageEP12GuiImageData
 2954              	.LVL220:
 2955              	.LBB3248:
 2956              	.LBB3243:
 2957              		.loc 5 571 0
 2958 066c 813F0168 		lwz 9,360(31)
 2959 0670 801F0164 		lwz 0,356(31)
 2960 0674 7C004850 		subf 0,0,9
 2961 0678 7C001670 		srawi 0,0,2
 2962              	.LBE3243:
 2963              	.LBE3248:
 2964              		.loc 4 213 0
 2965 067c 7F9E0000 		cmpw 7,30,0
 2966 0680 409C0018 		bge- 7,.L172
 2967              		.loc 4 213 0 is_stmt 0 discriminator 2
 2968 0684 7F9EA800 		cmpw 7,30,21
 2969 0688 3B7B0004 		addi 27,27,4
 2970 068c 33390001 		addic 25,25,1
 2971 0690 7F180194 		addze 24,24
 2972 0694 40BDFF58 		ble- 7,.L173
 2973              	.LVL221:
 2974              	.L172:
 2975              	.LBE3251:
 2976              	.LBB3252:
 2977              	.LBB3253:
 2978              		.loc 8 26 0 is_stmt 1
 2979 0698 83D70000 		lwz 30,_ZN14ProgressWindow8instanceE@l(23)
 2980 069c 2F9E0000 		cmpwi 7,30,0
 2981 06a0 419E00F8 		beq- 7,.L200
 2982              	.LBE3253:
 2983              	.LBE3252:
 2984              		.loc 4 222 0
 2985 06a4 7FC3F378 		mr 3,30
 2986 06a8 48000001 		bl _ZN14ProgressWindow14FinishProgressEv
 2987              	.LBB3257:
 2988              	.LBB3258:
 2989              		.loc 8 26 0
 2990 06ac 83D70000 		lwz 30,_ZN14ProgressWindow8instanceE@l(23)
 2991 06b0 2F9E0000 		cmpwi 7,30,0
 2992 06b4 419E010C 		beq- 7,.L201
 2993              	.L181:
 2994              	.LBE3258:
 2995              	.LBE3257:
 2996              		.loc 4 223 0
 2997 06b8 7FC3F378 		mr 3,30
 2998              	.LBB3260:
 2999              		.loc 4 225 0
 3000 06bc 3BB60003 		addi 29,22,3
 3001              	.LBE3260:
 3002              		.loc 4 223 0
 3003 06c0 48000001 		bl _ZN14ProgressWindow12StopProgressEv
 3004              	.LVL222:
 3005              		.loc 4 281 0
 3006 06c4 813F0164 		lwz 9,356(31)
 3007              	.LBB3261:
 3008              	.LBB3227:
 3009              	.LBB3228:
 3010              		.loc 5 571 0
 3011 06c8 801F0168 		lwz 0,360(31)
 3012              	.LBE3228:
 3013              	.LBE3227:
 3014              		.loc 4 225 0
 3015 06cc 56DE103A 		slwi 30,22,2
 3016              	.LBB3231:
 3017              	.LBB3229:
 3018              		.loc 5 571 0
 3019 06d0 7C090050 		subf 0,9,0
 3020 06d4 7C001670 		srawi 0,0,2
 3021              	.LBE3229:
 3022              	.LBE3231:
 3023              		.loc 4 225 0
 3024 06d8 7F960000 		cmpw 7,22,0
 3025 06dc 409C0038 		bge- 7,.L184
 3026              	.LVL223:
 3027              	.L186:
 3028              		.loc 4 226 0 discriminator 5
 3029 06e0 7C89F02E 		lwzx 4,9,30
 3030 06e4 7FE3FB78 		mr 3,31
 3031              		.loc 4 225 0 discriminator 5
 3032 06e8 3AD60001 		addi 22,22,1
 3033              	.LVL224:
 3034              		.loc 4 226 0 discriminator 5
 3035 06ec 48000001 		bl _ZN8GuiFrame6AppendEP10GuiElement
 3036              	.LVL225:
 3037              		.loc 4 281 0 discriminator 5
 3038 06f0 813F0164 		lwz 9,356(31)
 3039              	.LBB3232:
 3040              	.LBB3230:
 3041              		.loc 5 571 0 discriminator 5
 3042 06f4 801F0168 		lwz 0,360(31)
 3043 06f8 7C090050 		subf 0,9,0
 3044 06fc 7C001670 		srawi 0,0,2
 3045              	.LBE3230:
 3046              	.LBE3232:
 3047              		.loc 4 225 0 discriminator 5
 3048 0700 7F960000 		cmpw 7,22,0
 3049 0704 409C0010 		bge- 7,.L184
 3050              		.loc 4 225 0 is_stmt 0 discriminator 2
 3051 0708 7F96E800 		cmpw 7,22,29
 3052 070c 3BDE0004 		addi 30,30,4
 3053 0710 40BDFFD0 		ble- 7,.L186
 3054              	.LVL226:
 3055              	.L184:
 3056              	.LBE3261:
 3057              		.loc 4 228 0 is_stmt 1
 3058 0714 813F0000 		lwz 9,0(31)
 3059 0718 7FE3FB78 		mr 3,31
 3060 071c 800900F4 		lwz 0,244(9)
 3061 0720 7C0903A6 		mtctr 0
 3062 0724 4E800421 		bctrl
 3063              	.LBE3272:
 3064              		.loc 4 229 0
 3065 0728 8001004C 		lwz 0,76(1)
 3066 072c 82810018 		lwz 20,24(1)
 3067 0730 7C0803A6 		mtlr 0
 3068 0734 82A1001C 		lwz 21,28(1)
 3069 0738 82C10020 		lwz 22,32(1)
 3070              	.LVL227:
 3071 073c 82E10024 		lwz 23,36(1)
 3072 0740 83010028 		lwz 24,40(1)
 3073 0744 8321002C 		lwz 25,44(1)
 3074 0748 83410030 		lwz 26,48(1)
 3075 074c 83610034 		lwz 27,52(1)
 3076 0750 83810038 		lwz 28,56(1)
 3077              	.LVL228:
 3078 0754 83A1003C 		lwz 29,60(1)
 3079              	.LVL229:
 3080 0758 83C10040 		lwz 30,64(1)
 3081 075c 83E10044 		lwz 31,68(1)
 3082              	.LVL230:
 3083 0760 38210048 		addi 1,1,72
 3084              		.cfi_remember_state
 3085              	.LCFI61:
 3086              		.cfi_def_cfa_offset 0
 3087              		.cfi_restore 31
 3088              		.cfi_restore 30
 3089              		.cfi_restore 29
 3090              		.cfi_restore 28
 3091              		.cfi_restore 27
 3092              		.cfi_restore 26
 3093              		.cfi_restore 25
 3094              		.cfi_restore 24
 3095              		.cfi_restore 23
 3096              		.cfi_restore 22
 3097              		.cfi_restore 21
 3098              		.cfi_restore 20
 3099 0764 4E800020 		blr
 3100              	.LVL231:
 3101              	.L199:
 3102              	.LCFI62:
 3103              		.cfi_restore_state
 3104              	.LBB3273:
 3105              	.LBB3262:
 3106              	.LBB3249:
 3107              	.LBB3246:
 3108              		.loc 8 26 0
 3109 0768 386001B8 		li 3,440
 3110 076c 48000001 		bl _Znwj
 3111              	.LEHE12:
 3112 0770 7C7A1B78 		mr 26,3
 3113              	.LEHB13:
 3114 0774 48000001 		bl _ZN14ProgressWindowC1Ev
 3115              	.LEHE13:
 3116 0778 93540000 		stw 26,0(20)
 3117 077c 4BFFFE7C 		b .L179
 3118              	.LVL232:
 3119              	.L198:
 3120              	.LBE3246:
 3121              	.LBE3249:
 3122              	.LBE3262:
 3123              	.LBB3263:
 3124              	.LBB3239:
 3125 0780 386001B8 		li 3,440
 3126              	.LEHB14:
 3127 0784 48000001 		bl _Znwj
 3128              	.LEHE14:
 3129 0788 7C7E1B78 		mr 30,3
 3130              	.LEHB15:
 3131 078c 48000001 		bl _ZN14ProgressWindowC1Ev
 3132              	.LEHE15:
 3133 0790 93D70000 		stw 30,_ZN14ProgressWindow8instanceE@l(23)
 3134 0794 4BFFFE04 		b .L171
 3135              	.LVL233:
 3136              	.L200:
 3137              	.LBE3239:
 3138              	.LBE3263:
 3139              	.LBB3264:
 3140              	.LBB3254:
 3141 0798 386001B8 		li 3,440
 3142              	.LEHB16:
 3143 079c 48000001 		bl _Znwj
 3144              	.LEHE16:
 3145 07a0 7C7E1B78 		mr 30,3
 3146              	.LEHB17:
 3147 07a4 48000001 		bl _ZN14ProgressWindowC1Ev
 3148              	.LEHE17:
 3149              	.LBE3254:
 3150              	.LBE3264:
 3151              		.loc 4 222 0
 3152 07a8 7FC3F378 		mr 3,30
 3153              	.LBB3265:
 3154              	.LBB3255:
 3155              		.loc 8 26 0
 3156 07ac 93D70000 		stw 30,_ZN14ProgressWindow8instanceE@l(23)
 3157              	.LEHB18:
 3158              	.LBE3255:
 3159              	.LBE3265:
 3160              		.loc 4 222 0
 3161 07b0 48000001 		bl _ZN14ProgressWindow14FinishProgressEv
 3162              	.LBB3266:
 3163              	.LBB3259:
 3164              		.loc 8 26 0
 3165 07b4 83D70000 		lwz 30,_ZN14ProgressWindow8instanceE@l(23)
 3166 07b8 2F9E0000 		cmpwi 7,30,0
 3167 07bc 409EFEFC 		bne+ 7,.L181
 3168              	.L201:
 3169 07c0 386001B8 		li 3,440
 3170 07c4 48000001 		bl _Znwj
 3171              	.LEHE18:
 3172 07c8 7C7E1B78 		mr 30,3
 3173              	.LEHB19:
 3174 07cc 48000001 		bl _ZN14ProgressWindowC1Ev
 3175              	.LEHE19:
 3176 07d0 93D70000 		stw 30,_ZN14ProgressWindow8instanceE@l(23)
 3177 07d4 4BFFFEE4 		b .L181
 3178              	.LVL234:
 3179              	.L192:
 3180              	.L197:
 3181 07d8 7C7F1B78 		mr 31,3
 3182              	.LVL235:
 3183              	.LBE3259:
 3184              	.LBE3266:
 3185              	.LBB3267:
 3186              	.LBB3256:
 3187 07dc 7FC3F378 		mr 3,30
 3188 07e0 48000001 		bl _ZdlPv
 3189 07e4 7FE3FB78 		mr 3,31
 3190              	.LEHB20:
 3191 07e8 48000001 		bl _Unwind_Resume
 3192              	.LVL236:
 3193              	.L193:
 3194 07ec 7C7F1B78 		mr 31,3
 3195              	.LVL237:
 3196              	.LBE3256:
 3197              	.LBE3267:
 3198              	.LBB3268:
 3199              	.LBB3250:
 3200              	.LBB3247:
 3201 07f0 7F43D378 		mr 3,26
 3202 07f4 48000001 		bl _ZdlPv
 3203 07f8 7FE3FB78 		mr 3,31
 3204 07fc 48000001 		bl _Unwind_Resume
 3205              	.LEHE20:
 3206              	.LVL238:
 3207              	.L195:
 3208 0800 4BFFFFD8 		b .L197
 3209              	.L194:
 3210 0804 4BFFFFD4 		b .L197
 3211              	.LBE3247:
 3212              	.LBE3250:
 3213              	.LBE3268:
 3214              	.LBE3273:
 3215              		.cfi_endproc
 3216              	.LFE1614:
 3217              		.section	.gcc_except_table
 3218              	.LLSDA1614:
 3219 0047 FF       		.byte	0xff
 3220 0048 FF       		.byte	0xff
 3221 0049 01       		.byte	0x1
 3222 004a 31       		.uleb128 .LLSDACSE1614-.LLSDACSB1614
 3223              	.LLSDACSB1614:
 3224 004b 6C       		.uleb128 .LEHB12-.LFB1614
 3225 004c A004     		.uleb128 .LEHE12-.LEHB12
 3226 004e 00       		.uleb128 0
 3227 004f 00       		.uleb128 0
 3228 0050 9005     		.uleb128 .LEHB13-.LFB1614
 3229 0052 04       		.uleb128 .LEHE13-.LEHB13
 3230 0053 8806     		.uleb128 .L193-.LFB1614
 3231 0055 00       		.uleb128 0
 3232 0056 A005     		.uleb128 .LEHB14-.LFB1614
 3233 0058 04       		.uleb128 .LEHE14-.LEHB14
 3234 0059 00       		.uleb128 0
 3235 005a 00       		.uleb128 0
 3236 005b A805     		.uleb128 .LEHB15-.LFB1614
 3237 005d 04       		.uleb128 .LEHE15-.LEHB15
 3238 005e F405     		.uleb128 .L192-.LFB1614
 3239 0060 00       		.uleb128 0
 3240 0061 B805     		.uleb128 .LEHB16-.LFB1614
 3241 0063 04       		.uleb128 .LEHE16-.LEHB16
 3242 0064 00       		.uleb128 0
 3243 0065 00       		.uleb128 0
 3244 0066 C005     		.uleb128 .LEHB17-.LFB1614
 3245 0068 04       		.uleb128 .LEHE17-.LEHB17
 3246 0069 A006     		.uleb128 .L194-.LFB1614
 3247 006b 00       		.uleb128 0
 3248 006c CC05     		.uleb128 .LEHB18-.LFB1614
 3249 006e 18       		.uleb128 .LEHE18-.LEHB18
 3250 006f 00       		.uleb128 0
 3251 0070 00       		.uleb128 0
 3252 0071 E805     		.uleb128 .LEHB19-.LFB1614
 3253 0073 04       		.uleb128 .LEHE19-.LEHB19
 3254 0074 9C06     		.uleb128 .L195-.LFB1614
 3255 0076 00       		.uleb128 0
 3256 0077 8406     		.uleb128 .LEHB20-.LFB1614
 3257 0079 18       		.uleb128 .LEHE20-.LEHB20
 3258 007a 00       		.uleb128 0
 3259 007b 00       		.uleb128 0
 3260              	.LLSDACSE1614:
 3261              		.section	".text"
 3262              		.size	_ZN15ThemeDownloader14AddMainButtonsEv, .-_ZN15ThemeDownloader14AddMainButtonsEv
 3263              		.section	.text._ZNSt6vectorIP8GuiImageSaIS1_EE14_M_fill_insertEN9__gnu_cxx17__normal_iteratorIPS1_
 3264              		.align 2
 3265              		.weak	_ZNSt6vectorIP8GuiImageSaIS1_EE14_M_fill_insertEN9__gnu_cxx17__normal_iteratorIPS1_S3_EEjRKS
 3266              		.type	_ZNSt6vectorIP8GuiImageSaIS1_EE14_M_fill_insertEN9__gnu_cxx17__normal_iteratorIPS1_S3_EEjRKS
 3267              	_ZNSt6vectorIP8GuiImageSaIS1_EE14_M_fill_insertEN9__gnu_cxx17__normal_iteratorIPS1_S3_EEjRKS1_:
 3268              	.LFB1802:
 3269              		.file 9 "d:\\devkitpro\\devkitppc\\bin\\../lib/gcc/powerpc-eabi/4.6.3/../../../../powerpc-eabi/inc
 3270              		.loc 9 377 0
 3271              		.cfi_startproc
 3272              	.LVL239:
 3273 0000 9421FFD8 		stwu 1,-40(1)
 3274              	.LCFI63:
 3275              		.cfi_def_cfa_offset 40
 3276 0004 7C0802A6 		mflr 0
 3277 0008 93C10020 		stw 30,32(1)
 3278              	.LBB3380:
 3279              		.loc 9 380 0
 3280 000c 7CBE2B79 		mr. 30,5
 3281              		.cfi_offset 30, -8
 3282              		.cfi_register 65, 0
 3283              	.LBE3380:
 3284              		.loc 9 377 0
 3285 0010 9001002C 		stw 0,44(1)
 3286 0014 93A1001C 		stw 29,28(1)
 3287 0018 93E10024 		stw 31,36(1)
 3288 001c 7C7F1B78 		mr 31,3
 3289              		.cfi_offset 31, -4
 3290              		.cfi_offset 29, -12
 3291              		.cfi_offset 65, 4
 3292 0020 93410010 		stw 26,16(1)
 3293 0024 93610014 		stw 27,20(1)
 3294 0028 93810018 		stw 28,24(1)
 3295              		.loc 9 377 0
 3296 002c 83A40000 		lwz 29,0(4)
 3297              	.LBB3677:
 3298              		.loc 9 380 0
 3299 0030 41820088 		beq- 0,.L202
 3300              		.cfi_offset 28, -16
 3301              		.cfi_offset 27, -20
 3302              		.cfi_offset 26, -24
 3303              	.LBB3381:
 3304              		.loc 9 382 0
 3305 0034 83630004 		lwz 27,4(3)
 3306 0038 80030008 		lwz 0,8(3)
 3307 003c 7C1B0050 		subf 0,27,0
 3308 0040 7C001670 		srawi 0,0,2
 3309 0044 7F9E0040 		cmplw 7,30,0
 3310 0048 419D0098 		bgt- 7,.L204
 3311              	.LBB3382:
 3312              	.LBB3383:
 3313              	.LBB3384:
 3314              		.file 10 "d:\\devkitpro\\devkitppc\\bin\\../lib/gcc/powerpc-eabi/4.6.3/../../../../powerpc-eabi/in
 3315              		.loc 10 892 0
 3316 004c 7C1DD850 		subf 0,29,27
 3317              	.LBE3384:
 3318              	.LBE3383:
 3319              		.loc 9 385 0
 3320 0050 83860000 		lwz 28,0(6)
 3321              	.LVL240:
 3322              	.LBB3386:
 3323              	.LBB3385:
 3324              		.loc 10 892 0
 3325 0054 7C001670 		srawi 0,0,2
 3326              	.LVL241:
 3327              	.LBE3385:
 3328              	.LBE3386:
 3329              		.loc 9 388 0
 3330 0058 7F9E0040 		cmplw 7,30,0
 3331 005c 419C0218 		blt- 7,.L232
 3332              	.LVL242:
 3333              	.LBB3387:
 3334              	.LBB3388:
 3335              	.LBB3389:
 3336              	.LBB3390:
 3337              	.LBB3391:
 3338              	.LBB3392:
 3339              	.LBB3393:
 3340              	.LBB3394:
 3341              		.file 11 "d:\\devkitpro\\devkitppc\\bin\\../lib/gcc/powerpc-eabi/4.6.3/../../../../powerpc-eabi/in
 3342              		.loc 11 743 0
 3343 0060 7FC0F051 		subf. 30,0,30
 3344              		.loc 9 382 0
 3345 0064 7F69DB78 		mr 9,27
 3346              		.loc 11 743 0
 3347 0068 41820018 		beq- 0,.L209
 3348              	.LBE3394:
 3349              	.LBE3393:
 3350              	.LBE3392:
 3351              	.LBE3391:
 3352              	.LBE3390:
 3353              	.LBE3389:
 3354              	.LBE3388:
 3355              	.LBE3387:
 3356              	.LBB3402:
 3357              	.LBB3403:
 3358              	.LBB3404:
 3359              	.LBB3405:
 3360              	.LBB3406:
 3361              	.LBB3407:
 3362              	.LBB3408:
 3363              	.LBB3409:
 3364              	.LBB3410:
 3365              	.LBB3411:
 3366              	.LBB3412:
 3367              		.loc 9 377 0
 3368 006c 7FC903A6 		mtctr 30
 3369              	.LBE3412:
 3370              	.LBE3411:
 3371              	.LBE3410:
 3372              	.LBE3409:
 3373              	.LBE3408:
 3374              	.LBE3407:
 3375              	.LBE3406:
 3376              	.LBE3405:
 3377              	.LBE3404:
 3378              	.LBE3403:
 3379              	.LBE3402:
 3380              	.LBB3423:
 3381              	.LBB3401:
 3382              	.LBB3400:
 3383              	.LBB3399:
 3384              	.LBB3398:
 3385              	.LBB3397:
 3386              	.LBB3396:
 3387              	.LBB3395:
 3388 0070 393BFFFC 		addi 9,27,-4
 3389              	.LVL243:
 3390              	.L210:
 3391              		.loc 11 745 0
 3392 0074 97890004 		stwu 28,4(9)
 3393              		.loc 11 743 0
 3394 0078 4200FFFC 		bdnz .L210
 3395 007c 813F0004 		lwz 9,4(31)
 3396              	.L209:
 3397              	.LBE3395:
 3398              	.LBE3396:
 3399              	.LBE3397:
 3400              	.LBE3398:
 3401              	.LBE3399:
 3402              	.LBE3400:
 3403              	.LBE3401:
 3404              	.LBE3423:
 3405              	.LBB3424:
 3406              	.LBB3425:
 3407              	.LBB3426:
 3408              	.LBB3427:
 3409              	.LBB3428:
 3410              	.LBB3429:
 3411              	.LBB3430:
 3412              	.LBB3431:
 3413              	.LBB3432:
 3414              	.LBB3433:
 3415              	.LBB3434:
 3416              		.loc 11 365 0
 3417 0080 2F800000 		cmpwi 7,0,0
 3418              	.LBE3434:
 3419              	.LBE3433:
 3420              	.LBE3432:
 3421              	.LBE3431:
 3422              	.LBE3430:
 3423              	.LBE3429:
 3424              	.LBE3428:
 3425              	.LBE3427:
 3426              	.LBE3426:
 3427              	.LBE3425:
 3428              	.LBE3424:
 3429              		.loc 9 406 0
 3430 0084 57DE103A 		slwi 30,30,2
 3431 0088 7C69F214 		add 3,9,30
 3432              	.LVL244:
 3433 008c 907F0004 		stw 3,4(31)
 3434              	.LVL245:
 3435              	.LBB3455:
 3436              	.LBB3453:
 3437              	.LBB3451:
 3438              	.LBB3449:
 3439              	.LBB3447:
 3440              	.LBB3445:
 3441              	.LBB3443:
 3442              	.LBB3441:
 3443              	.LBB3439:
 3444              	.LBB3437:
 3445              	.LBB3435:
 3446              		.loc 11 365 0
 3447 0090 409E01CC 		bne- 7,.L211
 3448 0094 3BC00000 		li 30,0
 3449              	.LVL246:
 3450              	.L212:
 3451              	.LBE3435:
 3452              	.LBE3437:
 3453              	.LBE3439:
 3454              	.LBE3441:
 3455              	.LBE3443:
 3456              	.LBE3445:
 3457              	.LBE3447:
 3458              	.LBE3449:
 3459              	.LBE3451:
 3460              	.LBE3453:
 3461              	.LBE3455:
 3462              	.LBB3456:
 3463              	.LBB3457:
 3464              	.LBB3458:
 3465              		.loc 11 686 0
 3466 0098 7F9BE800 		cmpw 7,27,29
 3467              	.LBE3458:
 3468              	.LBE3457:
 3469              	.LBE3456:
 3470              		.loc 9 410 0
 3471 009c 7C63F214 		add 3,3,30
 3472 00a0 907F0004 		stw 3,4(31)
 3473              	.LVL247:
 3474              	.LBB3461:
 3475              	.LBB3460:
 3476              	.LBB3459:
 3477              		.loc 11 686 0
 3478 00a4 419E0014 		beq- 7,.L202
 3479              	.LVL248:
 3480              	.L213:
 3481              		.loc 11 687 0
 3482 00a8 939D0000 		stw 28,0(29)
 3483 00ac 3BBD0004 		addi 29,29,4
 3484              		.loc 11 686 0
 3485 00b0 7F9BE800 		cmpw 7,27,29
 3486 00b4 409EFFF4 		bne+ 7,.L213
 3487              	.LVL249:
 3488              	.L202:
 3489              	.LBE3459:
 3490              	.LBE3460:
 3491              	.LBE3461:
 3492              	.LBE3382:
 3493              	.LBE3381:
 3494              	.LBE3677:
 3495              		.loc 9 464 0
 3496 00b8 8001002C 		lwz 0,44(1)
 3497 00bc 83410010 		lwz 26,16(1)
 3498 00c0 7C0803A6 		mtlr 0
 3499 00c4 83610014 		lwz 27,20(1)
 3500 00c8 83810018 		lwz 28,24(1)
 3501 00cc 83A1001C 		lwz 29,28(1)
 3502 00d0 83C10020 		lwz 30,32(1)
 3503 00d4 83E10024 		lwz 31,36(1)
 3504              	.LVL250:
 3505 00d8 38210028 		addi 1,1,40
 3506              		.cfi_remember_state
 3507              	.LCFI64:
 3508              		.cfi_def_cfa_offset 0
 3509              		.cfi_restore 31
 3510              		.cfi_restore 30
 3511              		.cfi_restore 29
 3512              		.cfi_restore 28
 3513              		.cfi_restore 27
 3514              		.cfi_restore 26
 3515 00dc 4E800020 		blr
 3516              	.LVL251:
 3517              	.L204:
 3518              	.LCFI65:
 3519              		.cfi_restore_state
 3520              	.LBB3678:
 3521              	.LBB3673:
 3522              	.LBB3491:
 3523              	.LBB3492:
 3524              	.LBB3493:
 3525              	.LBB3494:
 3526              	.LBB3495:
 3527              		.loc 5 571 0
 3528 00e0 81230000 		lwz 9,0(3)
 3529              	.LBE3495:
 3530              	.LBE3494:
 3531              		.loc 5 1241 0
 3532 00e4 3D603FFF 		lis 11,0x3fff
 3533 00e8 616BFFFF 		ori 11,11,65535
 3534              	.LBB3497:
 3535              	.LBB3496:
 3536              		.loc 5 571 0
 3537 00ec 7F69D850 		subf 27,9,27
 3538 00f0 7F601670 		srawi 0,27,2
 3539              	.LBE3496:
 3540              	.LBE3497:
 3541              		.loc 5 1241 0
 3542 00f4 7D605850 		subf 11,0,11
 3543 00f8 7F9E5840 		cmplw 7,30,11
 3544 00fc 419D01E8 		bgt- 7,.L233
 3545              	.LVL252:
 3546              		.loc 5 1244 0
 3547 0100 7F80F040 		cmplw 7,0,30
 3548 0104 7C0B0378 		mr 11,0
 3549 0108 419C00CC 		blt- 7,.L234
 3550 010c 7D6B0214 		add 11,11,0
 3551              	.LVL253:
 3552              		.loc 5 1245 0
 3553 0110 7F805840 		cmplw 7,0,11
 3554 0114 409D00D0 		ble- 7,.L235
 3555              	.L216:
 3556              	.LVL254:
 3557              	.LBE3493:
 3558              	.LBE3492:
 3559              	.LBB3500:
 3560              	.LBB3501:
 3561              		.loc 10 892 0
 3562 0118 7F69E850 		subf 27,9,29
 3563              	.LBE3501:
 3564              	.LBE3500:
 3565              		.loc 9 418 0
 3566 011c 3B40FFFC 		li 26,-4
 3567              	.LBB3504:
 3568              	.LBB3502:
 3569              		.loc 10 892 0
 3570 0120 7F7B1670 		srawi 27,27,2
 3571              	.LVL255:
 3572              	.L222:
 3573              	.LBE3502:
 3574              	.LBE3504:
 3575              	.LBB3505:
 3576              	.LBB3506:
 3577              	.LBB3507:
 3578              	.LBB3508:
 3579              		.file 12 "d:\\devkitpro\\devkitppc\\bin\\../lib/gcc/powerpc-eabi/4.6.3/../../../../powerpc-eabi/in
 3580              		.loc 12 92 0
 3581 0124 7F43D378 		mr 3,26
 3582              	.LVL256:
 3583 0128 90C10008 		stw 6,8(1)
 3584 012c 48000001 		bl _Znwj
 3585              	.LVL257:
 3586 0130 80C10008 		lwz 6,8(1)
 3587 0134 7C7C1B78 		mr 28,3
 3588              	.L217:
 3589              	.LVL258:
 3590              	.LBE3508:
 3591              	.LBE3507:
 3592              	.LBE3506:
 3593              	.LBE3505:
 3594              		.loc 9 424 0
 3595 0138 577B103A 		slwi 27,27,2
 3596              	.LVL259:
 3597              	.LBB3517:
 3598              	.LBB3513:
 3599              	.LBB3511:
 3600              	.LBB3509:
 3601              		.loc 4 281 0
 3602 013c 80060000 		lwz 0,0(6)
 3603              	.LVL260:
 3604              	.LBE3509:
 3605              	.LBE3511:
 3606              	.LBE3513:
 3607              	.LBE3517:
 3608              		.loc 9 424 0
 3609 0140 7F7CDA14 		add 27,28,27
 3610              	.LBB3518:
 3611              	.LBB3514:
 3612              		.loc 9 377 0
 3613 0144 7FC903A6 		mtctr 30
 3614              	.LBB3512:
 3615              	.LBB3510:
 3616 0148 3B7BFFFC 		addi 27,27,-4
 3617              	.LVL261:
 3618              	.L218:
 3619              	.LBE3510:
 3620              	.LBE3512:
 3621              	.LBE3514:
 3622              	.LBE3518:
 3623              	.LBB3519:
 3624              	.LBB3520:
 3625              	.LBB3521:
 3626              	.LBB3522:
 3627              	.LBB3523:
 3628              	.LBB3524:
 3629              	.LBB3525:
 3630              	.LBB3526:
 3631              		.loc 11 745 0
 3632 014c 941B0004 		stwu 0,4(27)
 3633              		.loc 11 743 0
 3634 0150 4200FFFC 		bdnz .L218
 3635              	.LVL262:
 3636              	.LBE3526:
 3637              	.LBE3525:
 3638              	.LBE3524:
 3639              	.LBE3523:
 3640              	.LBE3522:
 3641              	.LBE3521:
 3642              	.LBE3520:
 3643              	.LBE3519:
 3644              		.loc 9 429 0
 3645 0154 809F0000 		lwz 4,0(31)
 3646              	.LVL263:
 3647              	.LBB3527:
 3648              	.LBB3528:
 3649              	.LBB3529:
 3650              	.LBB3530:
 3651              	.LBB3531:
 3652              	.LBB3532:
 3653              	.LBB3533:
 3654              	.LBB3534:
 3655              	.LBB3535:
 3656              	.LBB3536:
 3657              	.LBB3537:
 3658              		.loc 11 365 0
 3659 0158 3B600000 		li 27,0
 3660              		.loc 11 364 0
 3661 015c 7C04E850 		subf 0,4,29
 3662              	.LVL264:
 3663              		.loc 11 365 0
 3664 0160 7C001671 		srawi. 0,0,2
 3665              	.LVL265:
 3666 0164 408200B0 		bne- 0,.L236
 3667              	.LBE3537:
 3668              	.LBE3536:
 3669              	.LBE3535:
 3670              	.LBE3534:
 3671              	.LBE3533:
 3672              	.LBE3532:
 3673              	.LBE3531:
 3674              	.LBE3530:
 3675              	.LBE3529:
 3676              	.LBE3528:
 3677              	.LBE3527:
 3678              	.LBB3578:
 3679              	.LBB3579:
 3680              	.LBB3580:
 3681              	.LBB3581:
 3682              	.LBB3582:
 3683              	.LBB3583:
 3684              	.LBB3584:
 3685              	.LBB3585:
 3686              	.LBB3586:
 3687              	.LBB3587:
 3688              	.LBB3588:
 3689              		.loc 11 364 0
 3690 0168 801F0004 		lwz 0,4(31)
 3691              	.LVL266:
 3692              	.LBE3588:
 3693              	.LBE3587:
 3694              	.LBE3586:
 3695              	.LBE3585:
 3696              	.LBE3584:
 3697              	.LBE3583:
 3698              	.LBE3582:
 3699              	.LBE3581:
 3700              	.LBE3580:
 3701              	.LBE3579:
 3702              	.LBE3578:
 3703              	.LBB3649:
 3704              	.LBB3574:
 3705              	.LBB3570:
 3706              	.LBB3566:
 3707              	.LBB3562:
 3708              	.LBB3558:
 3709              	.LBB3554:
 3710              	.LBB3550:
 3711              	.LBB3546:
 3712              	.LBB3542:
 3713              	.LBB3538:
 3714              		.loc 11 367 0
 3715 016c 7F7CDA14 		add 27,28,27
 3716              	.LVL267:
 3717              	.LBE3538:
 3718              	.LBE3542:
 3719              	.LBE3546:
 3720              	.LBE3550:
 3721              	.LBE3554:
 3722              	.LBE3558:
 3723              	.LBE3562:
 3724              	.LBE3566:
 3725              	.LBE3570:
 3726              	.LBE3574:
 3727              	.LBE3649:
 3728              		.loc 9 434 0
 3729 0170 57DE103A 		slwi 30,30,2
 3730              	.LVL268:
 3731              	.LBB3650:
 3732              	.LBB3643:
 3733              	.LBB3637:
 3734              	.LBB3631:
 3735              	.LBB3625:
 3736              	.LBB3619:
 3737              	.LBB3613:
 3738              	.LBB3607:
 3739              	.LBB3601:
 3740              	.LBB3595:
 3741              	.LBB3589:
 3742              		.loc 11 364 0
 3743 0174 7C1D0050 		subf 0,29,0
 3744              	.LBE3589:
 3745              	.LBE3595:
 3746              	.LBE3601:
 3747              	.LBE3607:
 3748              	.LBE3613:
 3749              	.LBE3619:
 3750              	.LBE3625:
 3751              	.LBE3631:
 3752              	.LBE3637:
 3753              	.LBE3643:
 3754              	.LBE3650:
 3755              		.loc 9 434 0
 3756 0178 7FDBF214 		add 30,27,30
 3757              	.LVL269:
 3758              	.LBB3651:
 3759              	.LBB3644:
 3760              	.LBB3638:
 3761              	.LBB3632:
 3762              	.LBB3626:
 3763              	.LBB3620:
 3764              	.LBB3614:
 3765              	.LBB3608:
 3766              	.LBB3602:
 3767              	.LBB3596:
 3768              	.LBB3590:
 3769              		.loc 11 365 0
 3770 017c 7C001671 		srawi. 0,0,2
 3771              	.LVL270:
 3772 0180 3B600000 		li 27,0
 3773 0184 408200C0 		bne- 0,.L237
 3774              	.LVL271:
 3775              	.L220:
 3776              	.LBE3590:
 3777              	.LBE3596:
 3778              	.LBE3602:
 3779              	.LBE3608:
 3780              	.LBE3614:
 3781              	.LBE3620:
 3782              	.LBE3626:
 3783              	.LBE3632:
 3784              	.LBE3638:
 3785              	.LBE3644:
 3786              	.LBE3651:
 3787              		.loc 9 456 0
 3788 0188 807F0000 		lwz 3,0(31)
 3789              	.LBB3652:
 3790              	.LBB3645:
 3791              	.LBB3639:
 3792              	.LBB3633:
 3793              	.LBB3627:
 3794              	.LBB3621:
 3795              	.LBB3615:
 3796              	.LBB3609:
 3797              	.LBB3603:
 3798              	.LBB3597:
 3799              	.LBB3591:
 3800              		.loc 11 367 0
 3801 018c 7F7EDA14 		add 27,30,27
 3802              	.LVL272:
 3803              	.LBE3591:
 3804              	.LBE3597:
 3805              	.LBE3603:
 3806              	.LBE3609:
 3807              	.LBE3615:
 3808              	.LBE3621:
 3809              	.LBE3627:
 3810              	.LBE3633:
 3811              	.LBE3639:
 3812              	.LBE3645:
 3813              	.LBE3652:
 3814              	.LBB3653:
 3815              	.LBB3654:
 3816              		.loc 5 155 0
 3817 0190 2F830000 		cmpwi 7,3,0
 3818 0194 419E0008 		beq- 7,.L221
 3819              	.LVL273:
 3820              	.LBB3655:
 3821              	.LBB3656:
 3822              		.loc 12 98 0
 3823 0198 48000001 		bl _ZdlPv
 3824              	.LVL274:
 3825              	.L221:
 3826              	.LBE3656:
 3827              	.LBE3655:
 3828              	.LBE3654:
 3829              	.LBE3653:
 3830              	.LBE3491:
 3831              	.LBE3673:
 3832              	.LBE3678:
 3833              		.loc 9 464 0
 3834 019c 8001002C 		lwz 0,44(1)
 3835              	.LBB3679:
 3836              	.LBB3674:
 3837              	.LBB3668:
 3838              		.loc 9 461 0
 3839 01a0 7F5CD214 		add 26,28,26
 3840              		.loc 9 459 0
 3841 01a4 939F0000 		stw 28,0(31)
 3842              	.LBE3668:
 3843              	.LBE3674:
 3844              	.LBE3679:
 3845              		.loc 9 464 0
 3846 01a8 7C0803A6 		mtlr 0
 3847              	.LBB3680:
 3848              	.LBB3675:
 3849              	.LBB3669:
 3850              		.loc 9 460 0
 3851 01ac 937F0004 		stw 27,4(31)
 3852              		.loc 9 461 0
 3853 01b0 935F0008 		stw 26,8(31)
 3854              	.LBE3669:
 3855              	.LBE3675:
 3856              	.LBE3680:
 3857              		.loc 9 464 0
 3858 01b4 83610014 		lwz 27,20(1)
 3859 01b8 83410010 		lwz 26,16(1)
 3860 01bc 83810018 		lwz 28,24(1)
 3861              	.LVL275:
 3862 01c0 83A1001C 		lwz 29,28(1)
 3863              	.LVL276:
 3864 01c4 83C10020 		lwz 30,32(1)
 3865              	.LVL277:
 3866 01c8 83E10024 		lwz 31,36(1)
 3867              	.LVL278:
 3868 01cc 38210028 		addi 1,1,40
 3869              		.cfi_remember_state
 3870              		.cfi_restore 26
 3871              		.cfi_restore 27
 3872              		.cfi_restore 28
 3873              		.cfi_restore 29
 3874              		.cfi_restore 30
 3875              		.cfi_restore 31
 3876              	.LCFI66:
 3877              		.cfi_def_cfa_offset 0
 3878 01d0 4E800020 		blr
 3879              	.LVL279:
 3880              	.L234:
 3881              	.LCFI67:
 3882              		.cfi_restore_state
 3883              	.LBB3681:
 3884              	.LBB3676:
 3885              	.LBB3670:
 3886              	.LBB3657:
 3887              	.LBB3498:
 3888              		.loc 5 1244 0
 3889 01d4 7FCBF378 		mr 11,30
 3890 01d8 7D6B0214 		add 11,11,0
 3891              	.LVL280:
 3892              		.loc 5 1245 0
 3893 01dc 7F805840 		cmplw 7,0,11
 3894 01e0 41BDFF38 		bgt- 7,.L216
 3895              	.L235:
 3896              	.LVL281:
 3897 01e4 3C003FFF 		lis 0,0x3fff
 3898 01e8 6000FFFF 		ori 0,0,65535
 3899 01ec 7F8B0040 		cmplw 7,11,0
 3900 01f0 41BDFF28 		bgt- 7,.L216
 3901              	.LVL282:
 3902              	.LBE3498:
 3903              	.LBE3657:
 3904              	.LBB3658:
 3905              	.LBB3515:
 3906              		.loc 5 150 0
 3907 01f4 2F8B0000 		cmpwi 7,11,0
 3908              	.LBE3515:
 3909              	.LBE3658:
 3910              	.LBB3659:
 3911              	.LBB3503:
 3912              		.loc 10 892 0
 3913 01f8 7D29E850 		subf 9,9,29
 3914 01fc 7D3B1670 		srawi 27,9,2
 3915              	.LVL283:
 3916              	.LBE3503:
 3917              	.LBE3659:
 3918              	.LBB3660:
 3919              	.LBB3516:
 3920              		.loc 5 150 0
 3921 0200 3B400000 		li 26,0
 3922 0204 3B800000 		li 28,0
 3923 0208 419EFF30 		beq+ 7,.L217
 3924 020c 557A103A 		slwi 26,11,2
 3925 0210 4BFFFF14 		b .L222
 3926              	.LVL284:
 3927              	.L236:
 3928              	.LBE3516:
 3929              	.LBE3660:
 3930              	.LBB3661:
 3931              	.LBB3575:
 3932              	.LBB3571:
 3933              	.LBB3567:
 3934              	.LBB3563:
 3935              	.LBB3559:
 3936              	.LBB3555:
 3937              	.LBB3551:
 3938              	.LBB3547:
 3939              	.LBB3543:
 3940              	.LBB3539:
 3941              		.loc 11 366 0
 3942 0214 541B103A 		slwi 27,0,2
 3943 0218 7F83E378 		mr 3,28
 3944 021c 7F65DB78 		mr 5,27
 3945              	.LBE3539:
 3946              	.LBE3543:
 3947              	.LBE3547:
 3948              	.LBE3551:
 3949              	.LBE3555:
 3950              	.LBE3559:
 3951              	.LBE3563:
 3952              	.LBE3567:
 3953              	.LBE3571:
 3954              	.LBE3575:
 3955              	.LBE3661:
 3956              		.loc 9 434 0
 3957 0220 57DE103A 		slwi 30,30,2
 3958              	.LVL285:
 3959              	.LBB3662:
 3960              	.LBB3576:
 3961              	.LBB3572:
 3962              	.LBB3568:
 3963              	.LBB3564:
 3964              	.LBB3560:
 3965              	.LBB3556:
 3966              	.LBB3552:
 3967              	.LBB3548:
 3968              	.LBB3544:
 3969              	.LBB3540:
 3970              		.loc 11 366 0
 3971 0224 48000001 		bl memmove
 3972              	.LVL286:
 3973              	.LBE3540:
 3974              	.LBE3544:
 3975              	.LBE3548:
 3976              	.LBE3552:
 3977              	.LBE3556:
 3978              	.LBE3560:
 3979              	.LBE3564:
 3980              	.LBE3568:
 3981              	.LBE3572:
 3982              	.LBE3576:
 3983              	.LBE3662:
 3984              	.LBB3663:
 3985              	.LBB3646:
 3986              	.LBB3640:
 3987              	.LBB3634:
 3988              	.LBB3628:
 3989              	.LBB3622:
 3990              	.LBB3616:
 3991              	.LBB3610:
 3992              	.LBB3604:
 3993              	.LBB3598:
 3994              	.LBB3592:
 3995              		.loc 11 364 0
 3996 0228 801F0004 		lwz 0,4(31)
 3997              	.LBE3592:
 3998              	.LBE3598:
 3999              	.LBE3604:
 4000              	.LBE3610:
 4001              	.LBE3616:
 4002              	.LBE3622:
 4003              	.LBE3628:
 4004              	.LBE3634:
 4005              	.LBE3640:
 4006              	.LBE3646:
 4007              	.LBE3663:
 4008              	.LBB3664:
 4009              	.LBB3577:
 4010              	.LBB3573:
 4011              	.LBB3569:
 4012              	.LBB3565:
 4013              	.LBB3561:
 4014              	.LBB3557:
 4015              	.LBB3553:
 4016              	.LBB3549:
 4017              	.LBB3545:
 4018              	.LBB3541:
 4019              		.loc 11 367 0
 4020 022c 7F7CDA14 		add 27,28,27
 4021              	.LVL287:
 4022              	.LBE3541:
 4023              	.LBE3545:
 4024              	.LBE3549:
 4025              	.LBE3553:
 4026              	.LBE3557:
 4027              	.LBE3561:
 4028              	.LBE3565:
 4029              	.LBE3569:
 4030              	.LBE3573:
 4031              	.LBE3577:
 4032              	.LBE3664:
 4033              	.LBB3665:
 4034              	.LBB3647:
 4035              	.LBB3641:
 4036              	.LBB3635:
 4037              	.LBB3629:
 4038              	.LBB3623:
 4039              	.LBB3617:
 4040              	.LBB3611:
 4041              	.LBB3605:
 4042              	.LBB3599:
 4043              	.LBB3593:
 4044              		.loc 11 364 0
 4045 0230 7C1D0050 		subf 0,29,0
 4046              	.LBE3593:
 4047              	.LBE3599:
 4048              	.LBE3605:
 4049              	.LBE3611:
 4050              	.LBE3617:
 4051              	.LBE3623:
 4052              	.LBE3629:
 4053              	.LBE3635:
 4054              	.LBE3641:
 4055              	.LBE3647:
 4056              	.LBE3665:
 4057              		.loc 9 434 0
 4058 0234 7FDBF214 		add 30,27,30
 4059              	.LVL288:
 4060              	.LBB3666:
 4061              	.LBB3648:
 4062              	.LBB3642:
 4063              	.LBB3636:
 4064              	.LBB3630:
 4065              	.LBB3624:
 4066              	.LBB3618:
 4067              	.LBB3612:
 4068              	.LBB3606:
 4069              	.LBB3600:
 4070              	.LBB3594:
 4071              		.loc 11 365 0
 4072 0238 7C001671 		srawi. 0,0,2
 4073              	.LVL289:
 4074 023c 3B600000 		li 27,0
 4075 0240 4182FF48 		beq+ 0,.L220
 4076              	.LVL290:
 4077              	.L237:
 4078              		.loc 11 366 0
 4079 0244 541B103A 		slwi 27,0,2
 4080 0248 7FC3F378 		mr 3,30
 4081 024c 7FA4EB78 		mr 4,29
 4082 0250 7F65DB78 		mr 5,27
 4083 0254 48000001 		bl memmove
 4084 0258 4BFFFF30 		b .L220
 4085              	.LVL291:
 4086              	.L211:
 4087              	.LBE3594:
 4088              	.LBE3600:
 4089              	.LBE3606:
 4090              	.LBE3612:
 4091              	.LBE3618:
 4092              	.LBE3624:
 4093              	.LBE3630:
 4094              	.LBE3636:
 4095              	.LBE3642:
 4096              	.LBE3648:
 4097              	.LBE3666:
 4098              	.LBE3670:
 4099              	.LBB3671:
 4100              	.LBB3462:
 4101              	.LBB3454:
 4102              	.LBB3452:
 4103              	.LBB3450:
 4104              	.LBB3448:
 4105              	.LBB3446:
 4106              	.LBB3444:
 4107              	.LBB3442:
 4108              	.LBB3440:
 4109              	.LBB3438:
 4110              	.LBB3436:
 4111 025c 541E103A 		slwi 30,0,2
 4112 0260 7FA4EB78 		mr 4,29
 4113 0264 7FC5F378 		mr 5,30
 4114              	.LVL292:
 4115 0268 48000001 		bl memmove
 4116              	.LVL293:
 4117 026c 807F0004 		lwz 3,4(31)
 4118 0270 4BFFFE28 		b .L212
 4119              	.LVL294:
 4120              	.L232:
 4121              	.LBE3436:
 4122              	.LBE3438:
 4123              	.LBE3440:
 4124              	.LBE3442:
 4125              	.LBE3444:
 4126              	.LBE3446:
 4127              	.LBE3448:
 4128              	.LBE3450:
 4129              	.LBE3452:
 4130              	.LBE3454:
 4131              	.LBE3462:
 4132              		.loc 9 390 0
 4133 0274 57DE103A 		slwi 30,30,2
 4134              	.LVL295:
 4135              	.LBB3463:
 4136              	.LBB3422:
 4137              	.LBB3421:
 4138              	.LBB3420:
 4139              	.LBB3419:
 4140              	.LBB3418:
 4141              	.LBB3417:
 4142              	.LBB3416:
 4143              	.LBB3415:
 4144              	.LBB3414:
 4145              	.LBB3413:
 4146              		.loc 9 382 0
 4147 0278 7F60DB78 		mr 0,27
 4148              	.LVL296:
 4149              		.loc 11 365 0
 4150 027c 7FC51671 		srawi. 5,30,2
 4151              	.LVL297:
 4152              		.loc 11 364 0
 4153 0280 7F5ED850 		subf 26,30,27
 4154              		.loc 11 365 0
 4155 0284 41A20018 		beq+ 0,.L206
 4156              		.loc 11 366 0
 4157 0288 7F63DB78 		mr 3,27
 4158 028c 7F44D378 		mr 4,26
 4159 0290 54A5103A 		slwi 5,5,2
 4160 0294 48000001 		bl memmove
 4161              	.LVL298:
 4162 0298 801F0004 		lwz 0,4(31)
 4163              	.L206:
 4164              	.LBE3413:
 4165              	.LBE3414:
 4166              	.LBE3415:
 4167              	.LBE3416:
 4168              	.LBE3417:
 4169              	.LBE3418:
 4170              	.LBE3419:
 4171              	.LBE3420:
 4172              	.LBE3421:
 4173              	.LBE3422:
 4174              	.LBE3463:
 4175              	.LBB3464:
 4176              	.LBB3465:
 4177              	.LBB3466:
 4178              	.LBB3467:
 4179              	.LBB3468:
 4180              	.LBB3469:
 4181              		.loc 11 559 0
 4182 029c 7F5DD050 		subf 26,29,26
 4183              	.LBE3469:
 4184              	.LBE3468:
 4185              	.LBE3467:
 4186              	.LBE3466:
 4187              	.LBE3465:
 4188              	.LBE3464:
 4189              		.loc 9 394 0
 4190 02a0 7C00F214 		add 0,0,30
 4191              	.LBB3485:
 4192              	.LBB3482:
 4193              	.LBB3479:
 4194              	.LBB3476:
 4195              	.LBB3473:
 4196              	.LBB3470:
 4197              		.loc 11 560 0
 4198 02a4 7F5A1671 		srawi. 26,26,2
 4199              	.LBE3470:
 4200              	.LBE3473:
 4201              	.LBE3476:
 4202              	.LBE3479:
 4203              	.LBE3482:
 4204              	.LBE3485:
 4205              		.loc 9 394 0
 4206 02a8 901F0004 		stw 0,4(31)
 4207              	.LVL299:
 4208              	.LBB3486:
 4209              	.LBB3483:
 4210              	.LBB3480:
 4211              	.LBB3477:
 4212              	.LBB3474:
 4213              	.LBB3471:
 4214              		.loc 11 560 0
 4215 02ac 40820024 		bne- 0,.L238
 4216              	.L207:
 4217              	.LVL300:
 4218              	.LBE3471:
 4219              	.LBE3474:
 4220              	.LBE3477:
 4221              	.LBE3480:
 4222              	.LBE3483:
 4223              	.LBE3486:
 4224              		.loc 9 397 0
 4225 02b0 7FDDF214 		add 30,29,30
 4226              	.LVL301:
 4227              	.LBB3487:
 4228              	.LBB3488:
 4229              	.LBB3489:
 4230              		.loc 11 686 0
 4231 02b4 7F9EE800 		cmpw 7,30,29
 4232 02b8 41BEFE00 		beq- 7,.L202
 4233              	.LVL302:
 4234              	.L208:
 4235              		.loc 11 687 0
 4236 02bc 939D0000 		stw 28,0(29)
 4237 02c0 3BBD0004 		addi 29,29,4
 4238              		.loc 11 686 0
 4239 02c4 7F9EE800 		cmpw 7,30,29
 4240 02c8 409EFFF4 		bne+ 7,.L208
 4241 02cc 4BFFFDEC 		b .L202
 4242              	.LVL303:
 4243              	.L238:
 4244              	.LBE3489:
 4245              	.LBE3488:
 4246              	.LBE3487:
 4247              	.LBB3490:
 4248              	.LBB3484:
 4249              	.LBB3481:
 4250              	.LBB3478:
 4251              	.LBB3475:
 4252              	.LBB3472:
 4253              		.loc 11 561 0
 4254 02d0 5745103A 		slwi 5,26,2
 4255 02d4 7FA4EB78 		mr 4,29
 4256 02d8 7C65D850 		subf 3,5,27
 4257 02dc 48000001 		bl memmove
 4258 02e0 4BFFFFD0 		b .L207
 4259              	.LVL304:
 4260              	.L233:
 4261              	.LBE3472:
 4262              	.LBE3475:
 4263              	.LBE3478:
 4264              	.LBE3481:
 4265              	.LBE3484:
 4266              	.LBE3490:
 4267              	.LBE3671:
 4268              	.LBB3672:
 4269              	.LBB3667:
 4270              	.LBB3499:
 4271              		.loc 5 1242 0
 4272 02e4 3C600000 		lis 3,.LC8@ha
 4273 02e8 38630030 		la 3,.LC8@l(3)
 4274 02ec 48000001 		bl _ZSt20__throw_length_errorPKc
 4275              	.LVL305:
 4276              	.LVL306:
 4277              	.LVL307:
 4278              	.LBE3499:
 4279              	.LBE3667:
 4280              	.LBE3672:
 4281              	.LBE3676:
 4282              	.LBE3681:
 4283              		.cfi_endproc
 4284              	.LFE1802:
 4285              		.size	_ZNSt6vectorIP8GuiImageSaIS1_EE14_M_fill_insertEN9__gnu_cxx17__normal_iteratorIPS1_S3_EEjRKS
 4286              		.section	.text._ZNSt6vectorIP7GuiTextSaIS1_EE14_M_fill_insertEN9__gnu_cxx17__normal_iteratorIPS1_S
 4287              		.align 2
 4288              		.weak	_ZNSt6vectorIP7GuiTextSaIS1_EE14_M_fill_insertEN9__gnu_cxx17__normal_iteratorIPS1_S3_EEjRKS1
 4289              		.type	_ZNSt6vectorIP7GuiTextSaIS1_EE14_M_fill_insertEN9__gnu_cxx17__normal_iteratorIPS1_S3_EEjRKS1
 4290              	_ZNSt6vectorIP7GuiTextSaIS1_EE14_M_fill_insertEN9__gnu_cxx17__normal_iteratorIPS1_S3_EEjRKS1_:
 4291              	.LFB1808:
 4292              		.loc 9 377 0
 4293              		.cfi_startproc
 4294              	.LVL308:
 4295 0000 9421FFD8 		stwu 1,-40(1)
 4296              	.LCFI68:
 4297              		.cfi_def_cfa_offset 40
 4298 0004 7C0802A6 		mflr 0
 4299 0008 93C10020 		stw 30,32(1)
 4300              	.LBB3788:
 4301              		.loc 9 380 0
 4302 000c 7CBE2B79 		mr. 30,5
 4303              		.cfi_offset 30, -8
 4304              		.cfi_register 65, 0
 4305              	.LBE3788:
 4306              		.loc 9 377 0
 4307 0010 9001002C 		stw 0,44(1)
 4308 0014 93A1001C 		stw 29,28(1)
 4309 0018 93E10024 		stw 31,36(1)
 4310 001c 7C7F1B78 		mr 31,3
 4311              		.cfi_offset 31, -4
 4312              		.cfi_offset 29, -12
 4313              		.cfi_offset 65, 4
 4314 0020 93410010 		stw 26,16(1)
 4315 0024 93610014 		stw 27,20(1)
 4316 0028 93810018 		stw 28,24(1)
 4317              		.loc 9 377 0
 4318 002c 83A40000 		lwz 29,0(4)
 4319              	.LBB4085:
 4320              		.loc 9 380 0
 4321 0030 41820088 		beq- 0,.L239
 4322              		.cfi_offset 28, -16
 4323              		.cfi_offset 27, -20
 4324              		.cfi_offset 26, -24
 4325              	.LBB3789:
 4326              		.loc 9 382 0
 4327 0034 83630004 		lwz 27,4(3)
 4328 0038 80030008 		lwz 0,8(3)
 4329 003c 7C1B0050 		subf 0,27,0
 4330 0040 7C001670 		srawi 0,0,2
 4331 0044 7F9E0040 		cmplw 7,30,0
 4332 0048 419D0098 		bgt- 7,.L241
 4333              	.LBB3790:
 4334              	.LBB3791:
 4335              	.LBB3792:
 4336              		.loc 10 892 0
 4337 004c 7C1DD850 		subf 0,29,27
 4338              	.LBE3792:
 4339              	.LBE3791:
 4340              		.loc 9 385 0
 4341 0050 83860000 		lwz 28,0(6)
 4342              	.LVL309:
 4343              	.LBB3794:
 4344              	.LBB3793:
 4345              		.loc 10 892 0
 4346 0054 7C001670 		srawi 0,0,2
 4347              	.LVL310:
 4348              	.LBE3793:
 4349              	.LBE3794:
 4350              		.loc 9 388 0
 4351 0058 7F9E0040 		cmplw 7,30,0
 4352 005c 419C0218 		blt- 7,.L269
 4353              	.LVL311:
 4354              	.LBB3795:
 4355              	.LBB3796:
 4356              	.LBB3797:
 4357              	.LBB3798:
 4358              	.LBB3799:
 4359              	.LBB3800:
 4360              	.LBB3801:
 4361              	.LBB3802:
 4362              		.loc 11 743 0
 4363 0060 7FC0F051 		subf. 30,0,30
 4364              		.loc 9 382 0
 4365 0064 7F69DB78 		mr 9,27
 4366              		.loc 11 743 0
 4367 0068 41820018 		beq- 0,.L246
 4368              	.LBE3802:
 4369              	.LBE3801:
 4370              	.LBE3800:
 4371              	.LBE3799:
 4372              	.LBE3798:
 4373              	.LBE3797:
 4374              	.LBE3796:
 4375              	.LBE3795:
 4376              	.LBB3810:
 4377              	.LBB3811:
 4378              	.LBB3812:
 4379              	.LBB3813:
 4380              	.LBB3814:
 4381              	.LBB3815:
 4382              	.LBB3816:
 4383              	.LBB3817:
 4384              	.LBB3818:
 4385              	.LBB3819:
 4386              	.LBB3820:
 4387              		.loc 9 377 0
 4388 006c 7FC903A6 		mtctr 30
 4389              	.LBE3820:
 4390              	.LBE3819:
 4391              	.LBE3818:
 4392              	.LBE3817:
 4393              	.LBE3816:
 4394              	.LBE3815:
 4395              	.LBE3814:
 4396              	.LBE3813:
 4397              	.LBE3812:
 4398              	.LBE3811:
 4399              	.LBE3810:
 4400              	.LBB3831:
 4401              	.LBB3809:
 4402              	.LBB3808:
 4403              	.LBB3807:
 4404              	.LBB3806:
 4405              	.LBB3805:
 4406              	.LBB3804:
 4407              	.LBB3803:
 4408 0070 393BFFFC 		addi 9,27,-4
 4409              	.LVL312:
 4410              	.L247:
 4411              		.loc 11 745 0
 4412 0074 97890004 		stwu 28,4(9)
 4413              		.loc 11 743 0
 4414 0078 4200FFFC 		bdnz .L247
 4415 007c 813F0004 		lwz 9,4(31)
 4416              	.L246:
 4417              	.LBE3803:
 4418              	.LBE3804:
 4419              	.LBE3805:
 4420              	.LBE3806:
 4421              	.LBE3807:
 4422              	.LBE3808:
 4423              	.LBE3809:
 4424              	.LBE3831:
 4425              	.LBB3832:
 4426              	.LBB3833:
 4427              	.LBB3834:
 4428              	.LBB3835:
 4429              	.LBB3836:
 4430              	.LBB3837:
 4431              	.LBB3838:
 4432              	.LBB3839:
 4433              	.LBB3840:
 4434              	.LBB3841:
 4435              	.LBB3842:
 4436              		.loc 11 365 0
 4437 0080 2F800000 		cmpwi 7,0,0
 4438              	.LBE3842:
 4439              	.LBE3841:
 4440              	.LBE3840:
 4441              	.LBE3839:
 4442              	.LBE3838:
 4443              	.LBE3837:
 4444              	.LBE3836:
 4445              	.LBE3835:
 4446              	.LBE3834:
 4447              	.LBE3833:
 4448              	.LBE3832:
 4449              		.loc 9 406 0
 4450 0084 57DE103A 		slwi 30,30,2
 4451 0088 7C69F214 		add 3,9,30
 4452              	.LVL313:
 4453 008c 907F0004 		stw 3,4(31)
 4454              	.LVL314:
 4455              	.LBB3863:
 4456              	.LBB3861:
 4457              	.LBB3859:
 4458              	.LBB3857:
 4459              	.LBB3855:
 4460              	.LBB3853:
 4461              	.LBB3851:
 4462              	.LBB3849:
 4463              	.LBB3847:
 4464              	.LBB3845:
 4465              	.LBB3843:
 4466              		.loc 11 365 0
 4467 0090 409E01CC 		bne- 7,.L248
 4468 0094 3BC00000 		li 30,0
 4469              	.LVL315:
 4470              	.L249:
 4471              	.LBE3843:
 4472              	.LBE3845:
 4473              	.LBE3847:
 4474              	.LBE3849:
 4475              	.LBE3851:
 4476              	.LBE3853:
 4477              	.LBE3855:
 4478              	.LBE3857:
 4479              	.LBE3859:
 4480              	.LBE3861:
 4481              	.LBE3863:
 4482              	.LBB3864:
 4483              	.LBB3865:
 4484              	.LBB3866:
 4485              		.loc 11 686 0
 4486 0098 7F9BE800 		cmpw 7,27,29
 4487              	.LBE3866:
 4488              	.LBE3865:
 4489              	.LBE3864:
 4490              		.loc 9 410 0
 4491 009c 7C63F214 		add 3,3,30
 4492 00a0 907F0004 		stw 3,4(31)
 4493              	.LVL316:
 4494              	.LBB3869:
 4495              	.LBB3868:
 4496              	.LBB3867:
 4497              		.loc 11 686 0
 4498 00a4 419E0014 		beq- 7,.L239
 4499              	.LVL317:
 4500              	.L250:
 4501              		.loc 11 687 0
 4502 00a8 939D0000 		stw 28,0(29)
 4503 00ac 3BBD0004 		addi 29,29,4
 4504              		.loc 11 686 0
 4505 00b0 7F9BE800 		cmpw 7,27,29
 4506 00b4 409EFFF4 		bne+ 7,.L250
 4507              	.LVL318:
 4508              	.L239:
 4509              	.LBE3867:
 4510              	.LBE3868:
 4511              	.LBE3869:
 4512              	.LBE3790:
 4513              	.LBE3789:
 4514              	.LBE4085:
 4515              		.loc 9 464 0
 4516 00b8 8001002C 		lwz 0,44(1)
 4517 00bc 83410010 		lwz 26,16(1)
 4518 00c0 7C0803A6 		mtlr 0
 4519 00c4 83610014 		lwz 27,20(1)
 4520 00c8 83810018 		lwz 28,24(1)
 4521 00cc 83A1001C 		lwz 29,28(1)
 4522 00d0 83C10020 		lwz 30,32(1)
 4523 00d4 83E10024 		lwz 31,36(1)
 4524              	.LVL319:
 4525 00d8 38210028 		addi 1,1,40
 4526              		.cfi_remember_state
 4527              	.LCFI69:
 4528              		.cfi_def_cfa_offset 0
 4529              		.cfi_restore 31
 4530              		.cfi_restore 30
 4531              		.cfi_restore 29
 4532              		.cfi_restore 28
 4533              		.cfi_restore 27
 4534              		.cfi_restore 26
 4535 00dc 4E800020 		blr
 4536              	.LVL320:
 4537              	.L241:
 4538              	.LCFI70:
 4539              		.cfi_restore_state
 4540              	.LBB4086:
 4541              	.LBB4081:
 4542              	.LBB3899:
 4543              	.LBB3900:
 4544              	.LBB3901:
 4545              	.LBB3902:
 4546              	.LBB3903:
 4547              		.loc 5 571 0
 4548 00e0 81230000 		lwz 9,0(3)
 4549              	.LBE3903:
 4550              	.LBE3902:
 4551              		.loc 5 1241 0
 4552 00e4 3D603FFF 		lis 11,0x3fff
 4553 00e8 616BFFFF 		ori 11,11,65535
 4554              	.LBB3905:
 4555              	.LBB3904:
 4556              		.loc 5 571 0
 4557 00ec 7F69D850 		subf 27,9,27
 4558 00f0 7F601670 		srawi 0,27,2
 4559              	.LBE3904:
 4560              	.LBE3905:
 4561              		.loc 5 1241 0
 4562 00f4 7D605850 		subf 11,0,11
 4563 00f8 7F9E5840 		cmplw 7,30,11
 4564 00fc 419D01E8 		bgt- 7,.L270
 4565              	.LVL321:
 4566              		.loc 5 1244 0
 4567 0100 7F80F040 		cmplw 7,0,30
 4568 0104 7C0B0378 		mr 11,0
 4569 0108 419C00CC 		blt- 7,.L271
 4570 010c 7D6B0214 		add 11,11,0
 4571              	.LVL322:
 4572              		.loc 5 1245 0
 4573 0110 7F805840 		cmplw 7,0,11
 4574 0114 409D00D0 		ble- 7,.L272
 4575              	.L253:
 4576              	.LVL323:
 4577              	.LBE3901:
 4578              	.LBE3900:
 4579              	.LBB3908:
 4580              	.LBB3909:
 4581              		.loc 10 892 0
 4582 0118 7F69E850 		subf 27,9,29
 4583              	.LBE3909:
 4584              	.LBE3908:
 4585              		.loc 9 418 0
 4586 011c 3B40FFFC 		li 26,-4
 4587              	.LBB3912:
 4588              	.LBB3910:
 4589              		.loc 10 892 0
 4590 0120 7F7B1670 		srawi 27,27,2
 4591              	.LVL324:
 4592              	.L259:
 4593              	.LBE3910:
 4594              	.LBE3912:
 4595              	.LBB3913:
 4596              	.LBB3914:
 4597              	.LBB3915:
 4598              	.LBB3916:
 4599              		.loc 12 92 0
 4600 0124 7F43D378 		mr 3,26
 4601              	.LVL325:
 4602 0128 90C10008 		stw 6,8(1)
 4603 012c 48000001 		bl _Znwj
 4604              	.LVL326:
 4605 0130 80C10008 		lwz 6,8(1)
 4606 0134 7C7C1B78 		mr 28,3
 4607              	.L254:
 4608              	.LVL327:
 4609              	.LBE3916:
 4610              	.LBE3915:
 4611              	.LBE3914:
 4612              	.LBE3913:
 4613              		.loc 9 424 0
 4614 0138 577B103A 		slwi 27,27,2
 4615              	.LVL328:
 4616              	.LBB3925:
 4617              	.LBB3921:
 4618              	.LBB3919:
 4619              	.LBB3917:
 4620              		.loc 4 281 0
 4621 013c 80060000 		lwz 0,0(6)
 4622              	.LVL329:
 4623              	.LBE3917:
 4624              	.LBE3919:
 4625              	.LBE3921:
 4626              	.LBE3925:
 4627              		.loc 9 424 0
 4628 0140 7F7CDA14 		add 27,28,27
 4629              	.LBB3926:
 4630              	.LBB3922:
 4631              		.loc 9 377 0
 4632 0144 7FC903A6 		mtctr 30
 4633              	.LBB3920:
 4634              	.LBB3918:
 4635 0148 3B7BFFFC 		addi 27,27,-4
 4636              	.LVL330:
 4637              	.L255:
 4638              	.LBE3918:
 4639              	.LBE3920:
 4640              	.LBE3922:
 4641              	.LBE3926:
 4642              	.LBB3927:
 4643              	.LBB3928:
 4644              	.LBB3929:
 4645              	.LBB3930:
 4646              	.LBB3931:
 4647              	.LBB3932:
 4648              	.LBB3933:
 4649              	.LBB3934:
 4650              		.loc 11 745 0
 4651 014c 941B0004 		stwu 0,4(27)
 4652              		.loc 11 743 0
 4653 0150 4200FFFC 		bdnz .L255
 4654              	.LVL331:
 4655              	.LBE3934:
 4656              	.LBE3933:
 4657              	.LBE3932:
 4658              	.LBE3931:
 4659              	.LBE3930:
 4660              	.LBE3929:
 4661              	.LBE3928:
 4662              	.LBE3927:
 4663              		.loc 9 429 0
 4664 0154 809F0000 		lwz 4,0(31)
 4665              	.LVL332:
 4666              	.LBB3935:
 4667              	.LBB3936:
 4668              	.LBB3937:
 4669              	.LBB3938:
 4670              	.LBB3939:
 4671              	.LBB3940:
 4672              	.LBB3941:
 4673              	.LBB3942:
 4674              	.LBB3943:
 4675              	.LBB3944:
 4676              	.LBB3945:
 4677              		.loc 11 365 0
 4678 0158 3B600000 		li 27,0
 4679              		.loc 11 364 0
 4680 015c 7C04E850 		subf 0,4,29
 4681              	.LVL333:
 4682              		.loc 11 365 0
 4683 0160 7C001671 		srawi. 0,0,2
 4684              	.LVL334:
 4685 0164 408200B0 		bne- 0,.L273
 4686              	.LBE3945:
 4687              	.LBE3944:
 4688              	.LBE3943:
 4689              	.LBE3942:
 4690              	.LBE3941:
 4691              	.LBE3940:
 4692              	.LBE3939:
 4693              	.LBE3938:
 4694              	.LBE3937:
 4695              	.LBE3936:
 4696              	.LBE3935:
 4697              	.LBB3986:
 4698              	.LBB3987:
 4699              	.LBB3988:
 4700              	.LBB3989:
 4701              	.LBB3990:
 4702              	.LBB3991:
 4703              	.LBB3992:
 4704              	.LBB3993:
 4705              	.LBB3994:
 4706              	.LBB3995:
 4707              	.LBB3996:
 4708              		.loc 11 364 0
 4709 0168 801F0004 		lwz 0,4(31)
 4710              	.LVL335:
 4711              	.LBE3996:
 4712              	.LBE3995:
 4713              	.LBE3994:
 4714              	.LBE3993:
 4715              	.LBE3992:
 4716              	.LBE3991:
 4717              	.LBE3990:
 4718              	.LBE3989:
 4719              	.LBE3988:
 4720              	.LBE3987:
 4721              	.LBE3986:
 4722              	.LBB4057:
 4723              	.LBB3982:
 4724              	.LBB3978:
 4725              	.LBB3974:
 4726              	.LBB3970:
 4727              	.LBB3966:
 4728              	.LBB3962:
 4729              	.LBB3958:
 4730              	.LBB3954:
 4731              	.LBB3950:
 4732              	.LBB3946:
 4733              		.loc 11 367 0
 4734 016c 7F7CDA14 		add 27,28,27
 4735              	.LVL336:
 4736              	.LBE3946:
 4737              	.LBE3950:
 4738              	.LBE3954:
 4739              	.LBE3958:
 4740              	.LBE3962:
 4741              	.LBE3966:
 4742              	.LBE3970:
 4743              	.LBE3974:
 4744              	.LBE3978:
 4745              	.LBE3982:
 4746              	.LBE4057:
 4747              		.loc 9 434 0
 4748 0170 57DE103A 		slwi 30,30,2
 4749              	.LVL337:
 4750              	.LBB4058:
 4751              	.LBB4051:
 4752              	.LBB4045:
 4753              	.LBB4039:
 4754              	.LBB4033:
 4755              	.LBB4027:
 4756              	.LBB4021:
 4757              	.LBB4015:
 4758              	.LBB4009:
 4759              	.LBB4003:
 4760              	.LBB3997:
 4761              		.loc 11 364 0
 4762 0174 7C1D0050 		subf 0,29,0
 4763              	.LBE3997:
 4764              	.LBE4003:
 4765              	.LBE4009:
 4766              	.LBE4015:
 4767              	.LBE4021:
 4768              	.LBE4027:
 4769              	.LBE4033:
 4770              	.LBE4039:
 4771              	.LBE4045:
 4772              	.LBE4051:
 4773              	.LBE4058:
 4774              		.loc 9 434 0
 4775 0178 7FDBF214 		add 30,27,30
 4776              	.LVL338:
 4777              	.LBB4059:
 4778              	.LBB4052:
 4779              	.LBB4046:
 4780              	.LBB4040:
 4781              	.LBB4034:
 4782              	.LBB4028:
 4783              	.LBB4022:
 4784              	.LBB4016:
 4785              	.LBB4010:
 4786              	.LBB4004:
 4787              	.LBB3998:
 4788              		.loc 11 365 0
 4789 017c 7C001671 		srawi. 0,0,2
 4790              	.LVL339:
 4791 0180 3B600000 		li 27,0
 4792 0184 408200C0 		bne- 0,.L274
 4793              	.LVL340:
 4794              	.L257:
 4795              	.LBE3998:
 4796              	.LBE4004:
 4797              	.LBE4010:
 4798              	.LBE4016:
 4799              	.LBE4022:
 4800              	.LBE4028:
 4801              	.LBE4034:
 4802              	.LBE4040:
 4803              	.LBE4046:
 4804              	.LBE4052:
 4805              	.LBE4059:
 4806              		.loc 9 456 0
 4807 0188 807F0000 		lwz 3,0(31)
 4808              	.LBB4060:
 4809              	.LBB4053:
 4810              	.LBB4047:
 4811              	.LBB4041:
 4812              	.LBB4035:
 4813              	.LBB4029:
 4814              	.LBB4023:
 4815              	.LBB4017:
 4816              	.LBB4011:
 4817              	.LBB4005:
 4818              	.LBB3999:
 4819              		.loc 11 367 0
 4820 018c 7F7EDA14 		add 27,30,27
 4821              	.LVL341:
 4822              	.LBE3999:
 4823              	.LBE4005:
 4824              	.LBE4011:
 4825              	.LBE4017:
 4826              	.LBE4023:
 4827              	.LBE4029:
 4828              	.LBE4035:
 4829              	.LBE4041:
 4830              	.LBE4047:
 4831              	.LBE4053:
 4832              	.LBE4060:
 4833              	.LBB4061:
 4834              	.LBB4062:
 4835              		.loc 5 155 0
 4836 0190 2F830000 		cmpwi 7,3,0
 4837 0194 419E0008 		beq- 7,.L258
 4838              	.LVL342:
 4839              	.LBB4063:
 4840              	.LBB4064:
 4841              		.loc 12 98 0
 4842 0198 48000001 		bl _ZdlPv
 4843              	.LVL343:
 4844              	.L258:
 4845              	.LBE4064:
 4846              	.LBE4063:
 4847              	.LBE4062:
 4848              	.LBE4061:
 4849              	.LBE3899:
 4850              	.LBE4081:
 4851              	.LBE4086:
 4852              		.loc 9 464 0
 4853 019c 8001002C 		lwz 0,44(1)
 4854              	.LBB4087:
 4855              	.LBB4082:
 4856              	.LBB4076:
 4857              		.loc 9 461 0
 4858 01a0 7F5CD214 		add 26,28,26
 4859              		.loc 9 459 0
 4860 01a4 939F0000 		stw 28,0(31)
 4861              	.LBE4076:
 4862              	.LBE4082:
 4863              	.LBE4087:
 4864              		.loc 9 464 0
 4865 01a8 7C0803A6 		mtlr 0
 4866              	.LBB4088:
 4867              	.LBB4083:
 4868              	.LBB4077:
 4869              		.loc 9 460 0
 4870 01ac 937F0004 		stw 27,4(31)
 4871              		.loc 9 461 0
 4872 01b0 935F0008 		stw 26,8(31)
 4873              	.LBE4077:
 4874              	.LBE4083:
 4875              	.LBE4088:
 4876              		.loc 9 464 0
 4877 01b4 83610014 		lwz 27,20(1)
 4878 01b8 83410010 		lwz 26,16(1)
 4879 01bc 83810018 		lwz 28,24(1)
 4880              	.LVL344:
 4881 01c0 83A1001C 		lwz 29,28(1)
 4882              	.LVL345:
 4883 01c4 83C10020 		lwz 30,32(1)
 4884              	.LVL346:
 4885 01c8 83E10024 		lwz 31,36(1)
 4886              	.LVL347:
 4887 01cc 38210028 		addi 1,1,40
 4888              		.cfi_remember_state
 4889              		.cfi_restore 26
 4890              		.cfi_restore 27
 4891              		.cfi_restore 28
 4892              		.cfi_restore 29
 4893              		.cfi_restore 30
 4894              		.cfi_restore 31
 4895              	.LCFI71:
 4896              		.cfi_def_cfa_offset 0
 4897 01d0 4E800020 		blr
 4898              	.LVL348:
 4899              	.L271:
 4900              	.LCFI72:
 4901              		.cfi_restore_state
 4902              	.LBB4089:
 4903              	.LBB4084:
 4904              	.LBB4078:
 4905              	.LBB4065:
 4906              	.LBB3906:
 4907              		.loc 5 1244 0
 4908 01d4 7FCBF378 		mr 11,30
 4909 01d8 7D6B0214 		add 11,11,0
 4910              	.LVL349:
 4911              		.loc 5 1245 0
 4912 01dc 7F805840 		cmplw 7,0,11
 4913 01e0 41BDFF38 		bgt- 7,.L253
 4914              	.L272:
 4915              	.LVL350:
 4916 01e4 3C003FFF 		lis 0,0x3fff
 4917 01e8 6000FFFF 		ori 0,0,65535
 4918 01ec 7F8B0040 		cmplw 7,11,0
 4919 01f0 41BDFF28 		bgt- 7,.L253
 4920              	.LVL351:
 4921              	.LBE3906:
 4922              	.LBE4065:
 4923              	.LBB4066:
 4924              	.LBB3923:
 4925              		.loc 5 150 0
 4926 01f4 2F8B0000 		cmpwi 7,11,0
 4927              	.LBE3923:
 4928              	.LBE4066:
 4929              	.LBB4067:
 4930              	.LBB3911:
 4931              		.loc 10 892 0
 4932 01f8 7D29E850 		subf 9,9,29
 4933 01fc 7D3B1670 		srawi 27,9,2
 4934              	.LVL352:
 4935              	.LBE3911:
 4936              	.LBE4067:
 4937              	.LBB4068:
 4938              	.LBB3924:
 4939              		.loc 5 150 0
 4940 0200 3B400000 		li 26,0
 4941 0204 3B800000 		li 28,0
 4942 0208 419EFF30 		beq+ 7,.L254
 4943 020c 557A103A 		slwi 26,11,2
 4944 0210 4BFFFF14 		b .L259
 4945              	.LVL353:
 4946              	.L273:
 4947              	.LBE3924:
 4948              	.LBE4068:
 4949              	.LBB4069:
 4950              	.LBB3983:
 4951              	.LBB3979:
 4952              	.LBB3975:
 4953              	.LBB3971:
 4954              	.LBB3967:
 4955              	.LBB3963:
 4956              	.LBB3959:
 4957              	.LBB3955:
 4958              	.LBB3951:
 4959              	.LBB3947:
 4960              		.loc 11 366 0
 4961 0214 541B103A 		slwi 27,0,2
 4962 0218 7F83E378 		mr 3,28
 4963 021c 7F65DB78 		mr 5,27
 4964              	.LBE3947:
 4965              	.LBE3951:
 4966              	.LBE3955:
 4967              	.LBE3959:
 4968              	.LBE3963:
 4969              	.LBE3967:
 4970              	.LBE3971:
 4971              	.LBE3975:
 4972              	.LBE3979:
 4973              	.LBE3983:
 4974              	.LBE4069:
 4975              		.loc 9 434 0
 4976 0220 57DE103A 		slwi 30,30,2
 4977              	.LVL354:
 4978              	.LBB4070:
 4979              	.LBB3984:
 4980              	.LBB3980:
 4981              	.LBB3976:
 4982              	.LBB3972:
 4983              	.LBB3968:
 4984              	.LBB3964:
 4985              	.LBB3960:
 4986              	.LBB3956:
 4987              	.LBB3952:
 4988              	.LBB3948:
 4989              		.loc 11 366 0
 4990 0224 48000001 		bl memmove
 4991              	.LVL355:
 4992              	.LBE3948:
 4993              	.LBE3952:
 4994              	.LBE3956:
 4995              	.LBE3960:
 4996              	.LBE3964:
 4997              	.LBE3968:
 4998              	.LBE3972:
 4999              	.LBE3976:
 5000              	.LBE3980:
 5001              	.LBE3984:
 5002              	.LBE4070:
 5003              	.LBB4071:
 5004              	.LBB4054:
 5005              	.LBB4048:
 5006              	.LBB4042:
 5007              	.LBB4036:
 5008              	.LBB4030:
 5009              	.LBB4024:
 5010              	.LBB4018:
 5011              	.LBB4012:
 5012              	.LBB4006:
 5013              	.LBB4000:
 5014              		.loc 11 364 0
 5015 0228 801F0004 		lwz 0,4(31)
 5016              	.LBE4000:
 5017              	.LBE4006:
 5018              	.LBE4012:
 5019              	.LBE4018:
 5020              	.LBE4024:
 5021              	.LBE4030:
 5022              	.LBE4036:
 5023              	.LBE4042:
 5024              	.LBE4048:
 5025              	.LBE4054:
 5026              	.LBE4071:
 5027              	.LBB4072:
 5028              	.LBB3985:
 5029              	.LBB3981:
 5030              	.LBB3977:
 5031              	.LBB3973:
 5032              	.LBB3969:
 5033              	.LBB3965:
 5034              	.LBB3961:
 5035              	.LBB3957:
 5036              	.LBB3953:
 5037              	.LBB3949:
 5038              		.loc 11 367 0
 5039 022c 7F7CDA14 		add 27,28,27
 5040              	.LVL356:
 5041              	.LBE3949:
 5042              	.LBE3953:
 5043              	.LBE3957:
 5044              	.LBE3961:
 5045              	.LBE3965:
 5046              	.LBE3969:
 5047              	.LBE3973:
 5048              	.LBE3977:
 5049              	.LBE3981:
 5050              	.LBE3985:
 5051              	.LBE4072:
 5052              	.LBB4073:
 5053              	.LBB4055:
 5054              	.LBB4049:
 5055              	.LBB4043:
 5056              	.LBB4037:
 5057              	.LBB4031:
 5058              	.LBB4025:
 5059              	.LBB4019:
 5060              	.LBB4013:
 5061              	.LBB4007:
 5062              	.LBB4001:
 5063              		.loc 11 364 0
 5064 0230 7C1D0050 		subf 0,29,0
 5065              	.LBE4001:
 5066              	.LBE4007:
 5067              	.LBE4013:
 5068              	.LBE4019:
 5069              	.LBE4025:
 5070              	.LBE4031:
 5071              	.LBE4037:
 5072              	.LBE4043:
 5073              	.LBE4049:
 5074              	.LBE4055:
 5075              	.LBE4073:
 5076              		.loc 9 434 0
 5077 0234 7FDBF214 		add 30,27,30
 5078              	.LVL357:
 5079              	.LBB4074:
 5080              	.LBB4056:
 5081              	.LBB4050:
 5082              	.LBB4044:
 5083              	.LBB4038:
 5084              	.LBB4032:
 5085              	.LBB4026:
 5086              	.LBB4020:
 5087              	.LBB4014:
 5088              	.LBB4008:
 5089              	.LBB4002:
 5090              		.loc 11 365 0
 5091 0238 7C001671 		srawi. 0,0,2
 5092              	.LVL358:
 5093 023c 3B600000 		li 27,0
 5094 0240 4182FF48 		beq+ 0,.L257
 5095              	.LVL359:
 5096              	.L274:
 5097              		.loc 11 366 0
 5098 0244 541B103A 		slwi 27,0,2
 5099 0248 7FC3F378 		mr 3,30
 5100 024c 7FA4EB78 		mr 4,29
 5101 0250 7F65DB78 		mr 5,27
 5102 0254 48000001 		bl memmove
 5103 0258 4BFFFF30 		b .L257
 5104              	.LVL360:
 5105              	.L248:
 5106              	.LBE4002:
 5107              	.LBE4008:
 5108              	.LBE4014:
 5109              	.LBE4020:
 5110              	.LBE4026:
 5111              	.LBE4032:
 5112              	.LBE4038:
 5113              	.LBE4044:
 5114              	.LBE4050:
 5115              	.LBE4056:
 5116              	.LBE4074:
 5117              	.LBE4078:
 5118              	.LBB4079:
 5119              	.LBB3870:
 5120              	.LBB3862:
 5121              	.LBB3860:
 5122              	.LBB3858:
 5123              	.LBB3856:
 5124              	.LBB3854:
 5125              	.LBB3852:
 5126              	.LBB3850:
 5127              	.LBB3848:
 5128              	.LBB3846:
 5129              	.LBB3844:
 5130 025c 541E103A 		slwi 30,0,2
 5131 0260 7FA4EB78 		mr 4,29
 5132 0264 7FC5F378 		mr 5,30
 5133              	.LVL361:
 5134 0268 48000001 		bl memmove
 5135              	.LVL362:
 5136 026c 807F0004 		lwz 3,4(31)
 5137 0270 4BFFFE28 		b .L249
 5138              	.LVL363:
 5139              	.L269:
 5140              	.LBE3844:
 5141              	.LBE3846:
 5142              	.LBE3848:
 5143              	.LBE3850:
 5144              	.LBE3852:
 5145              	.LBE3854:
 5146              	.LBE3856:
 5147              	.LBE3858:
 5148              	.LBE3860:
 5149              	.LBE3862:
 5150              	.LBE3870:
 5151              		.loc 9 390 0
 5152 0274 57DE103A 		slwi 30,30,2
 5153              	.LVL364:
 5154              	.LBB3871:
 5155              	.LBB3830:
 5156              	.LBB3829:
 5157              	.LBB3828:
 5158              	.LBB3827:
 5159              	.LBB3826:
 5160              	.LBB3825:
 5161              	.LBB3824:
 5162              	.LBB3823:
 5163              	.LBB3822:
 5164              	.LBB3821:
 5165              		.loc 9 382 0
 5166 0278 7F60DB78 		mr 0,27
 5167              	.LVL365:
 5168              		.loc 11 365 0
 5169 027c 7FC51671 		srawi. 5,30,2
 5170              	.LVL366:
 5171              		.loc 11 364 0
 5172 0280 7F5ED850 		subf 26,30,27
 5173              		.loc 11 365 0
 5174 0284 41A20018 		beq+ 0,.L243
 5175              		.loc 11 366 0
 5176 0288 7F63DB78 		mr 3,27
 5177 028c 7F44D378 		mr 4,26
 5178 0290 54A5103A 		slwi 5,5,2
 5179 0294 48000001 		bl memmove
 5180              	.LVL367:
 5181 0298 801F0004 		lwz 0,4(31)
 5182              	.L243:
 5183              	.LBE3821:
 5184              	.LBE3822:
 5185              	.LBE3823:
 5186              	.LBE3824:
 5187              	.LBE3825:
 5188              	.LBE3826:
 5189              	.LBE3827:
 5190              	.LBE3828:
 5191              	.LBE3829:
 5192              	.LBE3830:
 5193              	.LBE3871:
 5194              	.LBB3872:
 5195              	.LBB3873:
 5196              	.LBB3874:
 5197              	.LBB3875:
 5198              	.LBB3876:
 5199              	.LBB3877:
 5200              		.loc 11 559 0
 5201 029c 7F5DD050 		subf 26,29,26
 5202              	.LBE3877:
 5203              	.LBE3876:
 5204              	.LBE3875:
 5205              	.LBE3874:
 5206              	.LBE3873:
 5207              	.LBE3872:
 5208              		.loc 9 394 0
 5209 02a0 7C00F214 		add 0,0,30
 5210              	.LBB3893:
 5211              	.LBB3890:
 5212              	.LBB3887:
 5213              	.LBB3884:
 5214              	.LBB3881:
 5215              	.LBB3878:
 5216              		.loc 11 560 0
 5217 02a4 7F5A1671 		srawi. 26,26,2
 5218              	.LBE3878:
 5219              	.LBE3881:
 5220              	.LBE3884:
 5221              	.LBE3887:
 5222              	.LBE3890:
 5223              	.LBE3893:
 5224              		.loc 9 394 0
 5225 02a8 901F0004 		stw 0,4(31)
 5226              	.LVL368:
 5227              	.LBB3894:
 5228              	.LBB3891:
 5229              	.LBB3888:
 5230              	.LBB3885:
 5231              	.LBB3882:
 5232              	.LBB3879:
 5233              		.loc 11 560 0
 5234 02ac 40820024 		bne- 0,.L275
 5235              	.L244:
 5236              	.LVL369:
 5237              	.LBE3879:
 5238              	.LBE3882:
 5239              	.LBE3885:
 5240              	.LBE3888:
 5241              	.LBE3891:
 5242              	.LBE3894:
 5243              		.loc 9 397 0
 5244 02b0 7FDDF214 		add 30,29,30
 5245              	.LVL370:
 5246              	.LBB3895:
 5247              	.LBB3896:
 5248              	.LBB3897:
 5249              		.loc 11 686 0
 5250 02b4 7F9EE800 		cmpw 7,30,29
 5251 02b8 41BEFE00 		beq- 7,.L239
 5252              	.LVL371:
 5253              	.L245:
 5254              		.loc 11 687 0
 5255 02bc 939D0000 		stw 28,0(29)
 5256 02c0 3BBD0004 		addi 29,29,4
 5257              		.loc 11 686 0
 5258 02c4 7F9EE800 		cmpw 7,30,29
 5259 02c8 409EFFF4 		bne+ 7,.L245
 5260 02cc 4BFFFDEC 		b .L239
 5261              	.LVL372:
 5262              	.L275:
 5263              	.LBE3897:
 5264              	.LBE3896:
 5265              	.LBE3895:
 5266              	.LBB3898:
 5267              	.LBB3892:
 5268              	.LBB3889:
 5269              	.LBB3886:
 5270              	.LBB3883:
 5271              	.LBB3880:
 5272              		.loc 11 561 0
 5273 02d0 5745103A 		slwi 5,26,2
 5274 02d4 7FA4EB78 		mr 4,29
 5275 02d8 7C65D850 		subf 3,5,27
 5276 02dc 48000001 		bl memmove
 5277 02e0 4BFFFFD0 		b .L244
 5278              	.LVL373:
 5279              	.L270:
 5280              	.LBE3880:
 5281              	.LBE3883:
 5282              	.LBE3886:
 5283              	.LBE3889:
 5284              	.LBE3892:
 5285              	.LBE3898:
 5286              	.LBE4079:
 5287              	.LBB4080:
 5288              	.LBB4075:
 5289              	.LBB3907:
 5290              		.loc 5 1242 0
 5291 02e4 3C600000 		lis 3,.LC8@ha
 5292 02e8 38630030 		la 3,.LC8@l(3)
 5293 02ec 48000001 		bl _ZSt20__throw_length_errorPKc
 5294              	.LVL374:
 5295              	.LVL375:
 5296              	.LVL376:
 5297              	.LBE3907:
 5298              	.LBE4075:
 5299              	.LBE4080:
 5300              	.LBE4084:
 5301              	.LBE4089:
 5302              		.cfi_endproc
 5303              	.LFE1808:
 5304              		.size	_ZNSt6vectorIP7GuiTextSaIS1_EE14_M_fill_insertEN9__gnu_cxx17__normal_iteratorIPS1_S3_EEjRKS1
 5305              		.section	.text._ZNSt6vectorIP9GuiButtonSaIS1_EE14_M_fill_insertEN9__gnu_cxx17__normal_iteratorIPS1
 5306              		.align 2
 5307              		.weak	_ZNSt6vectorIP9GuiButtonSaIS1_EE14_M_fill_insertEN9__gnu_cxx17__normal_iteratorIPS1_S3_EEjRK
 5308              		.type	_ZNSt6vectorIP9GuiButtonSaIS1_EE14_M_fill_insertEN9__gnu_cxx17__normal_iteratorIPS1_S3_EEjRK
 5309              	_ZNSt6vectorIP9GuiButtonSaIS1_EE14_M_fill_insertEN9__gnu_cxx17__normal_iteratorIPS1_S3_EEjRKS1_:
 5310              	.LFB1814:
 5311              		.loc 9 377 0
 5312              		.cfi_startproc
 5313              	.LVL377:
 5314 0000 9421FFD8 		stwu 1,-40(1)
 5315              	.LCFI73:
 5316              		.cfi_def_cfa_offset 40
 5317 0004 7C0802A6 		mflr 0
 5318 0008 93C10020 		stw 30,32(1)
 5319              	.LBB4196:
 5320              		.loc 9 380 0
 5321 000c 7CBE2B79 		mr. 30,5
 5322              		.cfi_offset 30, -8
 5323              		.cfi_register 65, 0
 5324              	.LBE4196:
 5325              		.loc 9 377 0
 5326 0010 9001002C 		stw 0,44(1)
 5327 0014 93A1001C 		stw 29,28(1)
 5328 0018 93E10024 		stw 31,36(1)
 5329 001c 7C7F1B78 		mr 31,3
 5330              		.cfi_offset 31, -4
 5331              		.cfi_offset 29, -12
 5332              		.cfi_offset 65, 4
 5333 0020 93410010 		stw 26,16(1)
 5334 0024 93610014 		stw 27,20(1)
 5335 0028 93810018 		stw 28,24(1)
 5336              		.loc 9 377 0
 5337 002c 83A40000 		lwz 29,0(4)
 5338              	.LBB4493:
 5339              		.loc 9 380 0
 5340 0030 41820088 		beq- 0,.L276
 5341              		.cfi_offset 28, -16
 5342              		.cfi_offset 27, -20
 5343              		.cfi_offset 26, -24
 5344              	.LBB4197:
 5345              		.loc 9 382 0
 5346 0034 83630004 		lwz 27,4(3)
 5347 0038 80030008 		lwz 0,8(3)
 5348 003c 7C1B0050 		subf 0,27,0
 5349 0040 7C001670 		srawi 0,0,2
 5350 0044 7F9E0040 		cmplw 7,30,0
 5351 0048 419D0098 		bgt- 7,.L278
 5352              	.LBB4198:
 5353              	.LBB4199:
 5354              	.LBB4200:
 5355              		.loc 10 892 0
 5356 004c 7C1DD850 		subf 0,29,27
 5357              	.LBE4200:
 5358              	.LBE4199:
 5359              		.loc 9 385 0
 5360 0050 83860000 		lwz 28,0(6)
 5361              	.LVL378:
 5362              	.LBB4202:
 5363              	.LBB4201:
 5364              		.loc 10 892 0
 5365 0054 7C001670 		srawi 0,0,2
 5366              	.LVL379:
 5367              	.LBE4201:
 5368              	.LBE4202:
 5369              		.loc 9 388 0
 5370 0058 7F9E0040 		cmplw 7,30,0
 5371 005c 419C0218 		blt- 7,.L306
 5372              	.LVL380:
 5373              	.LBB4203:
 5374              	.LBB4204:
 5375              	.LBB4205:
 5376              	.LBB4206:
 5377              	.LBB4207:
 5378              	.LBB4208:
 5379              	.LBB4209:
 5380              	.LBB4210:
 5381              		.loc 11 743 0
 5382 0060 7FC0F051 		subf. 30,0,30
 5383              		.loc 9 382 0
 5384 0064 7F69DB78 		mr 9,27
 5385              		.loc 11 743 0
 5386 0068 41820018 		beq- 0,.L283
 5387              	.LBE4210:
 5388              	.LBE4209:
 5389              	.LBE4208:
 5390              	.LBE4207:
 5391              	.LBE4206:
 5392              	.LBE4205:
 5393              	.LBE4204:
 5394              	.LBE4203:
 5395              	.LBB4218:
 5396              	.LBB4219:
 5397              	.LBB4220:
 5398              	.LBB4221:
 5399              	.LBB4222:
 5400              	.LBB4223:
 5401              	.LBB4224:
 5402              	.LBB4225:
 5403              	.LBB4226:
 5404              	.LBB4227:
 5405              	.LBB4228:
 5406              		.loc 9 377 0
 5407 006c 7FC903A6 		mtctr 30
 5408              	.LBE4228:
 5409              	.LBE4227:
 5410              	.LBE4226:
 5411              	.LBE4225:
 5412              	.LBE4224:
 5413              	.LBE4223:
 5414              	.LBE4222:
 5415              	.LBE4221:
 5416              	.LBE4220:
 5417              	.LBE4219:
 5418              	.LBE4218:
 5419              	.LBB4239:
 5420              	.LBB4217:
 5421              	.LBB4216:
 5422              	.LBB4215:
 5423              	.LBB4214:
 5424              	.LBB4213:
 5425              	.LBB4212:
 5426              	.LBB4211:
 5427 0070 393BFFFC 		addi 9,27,-4
 5428              	.LVL381:
 5429              	.L284:
 5430              		.loc 11 745 0
 5431 0074 97890004 		stwu 28,4(9)
 5432              		.loc 11 743 0
 5433 0078 4200FFFC 		bdnz .L284
 5434 007c 813F0004 		lwz 9,4(31)
 5435              	.L283:
 5436              	.LBE4211:
 5437              	.LBE4212:
 5438              	.LBE4213:
 5439              	.LBE4214:
 5440              	.LBE4215:
 5441              	.LBE4216:
 5442              	.LBE4217:
 5443              	.LBE4239:
 5444              	.LBB4240:
 5445              	.LBB4241:
 5446              	.LBB4242:
 5447              	.LBB4243:
 5448              	.LBB4244:
 5449              	.LBB4245:
 5450              	.LBB4246:
 5451              	.LBB4247:
 5452              	.LBB4248:
 5453              	.LBB4249:
 5454              	.LBB4250:
 5455              		.loc 11 365 0
 5456 0080 2F800000 		cmpwi 7,0,0
 5457              	.LBE4250:
 5458              	.LBE4249:
 5459              	.LBE4248:
 5460              	.LBE4247:
 5461              	.LBE4246:
 5462              	.LBE4245:
 5463              	.LBE4244:
 5464              	.LBE4243:
 5465              	.LBE4242:
 5466              	.LBE4241:
 5467              	.LBE4240:
 5468              		.loc 9 406 0
 5469 0084 57DE103A 		slwi 30,30,2
 5470 0088 7C69F214 		add 3,9,30
 5471              	.LVL382:
 5472 008c 907F0004 		stw 3,4(31)
 5473              	.LVL383:
 5474              	.LBB4271:
 5475              	.LBB4269:
 5476              	.LBB4267:
 5477              	.LBB4265:
 5478              	.LBB4263:
 5479              	.LBB4261:
 5480              	.LBB4259:
 5481              	.LBB4257:
 5482              	.LBB4255:
 5483              	.LBB4253:
 5484              	.LBB4251:
 5485              		.loc 11 365 0
 5486 0090 409E01CC 		bne- 7,.L285
 5487 0094 3BC00000 		li 30,0
 5488              	.LVL384:
 5489              	.L286:
 5490              	.LBE4251:
 5491              	.LBE4253:
 5492              	.LBE4255:
 5493              	.LBE4257:
 5494              	.LBE4259:
 5495              	.LBE4261:
 5496              	.LBE4263:
 5497              	.LBE4265:
 5498              	.LBE4267:
 5499              	.LBE4269:
 5500              	.LBE4271:
 5501              	.LBB4272:
 5502              	.LBB4273:
 5503              	.LBB4274:
 5504              		.loc 11 686 0
 5505 0098 7F9BE800 		cmpw 7,27,29
 5506              	.LBE4274:
 5507              	.LBE4273:
 5508              	.LBE4272:
 5509              		.loc 9 410 0
 5510 009c 7C63F214 		add 3,3,30
 5511 00a0 907F0004 		stw 3,4(31)
 5512              	.LVL385:
 5513              	.LBB4277:
 5514              	.LBB4276:
 5515              	.LBB4275:
 5516              		.loc 11 686 0
 5517 00a4 419E0014 		beq- 7,.L276
 5518              	.LVL386:
 5519              	.L287:
 5520              		.loc 11 687 0
 5521 00a8 939D0000 		stw 28,0(29)
 5522 00ac 3BBD0004 		addi 29,29,4
 5523              		.loc 11 686 0
 5524 00b0 7F9BE800 		cmpw 7,27,29
 5525 00b4 409EFFF4 		bne+ 7,.L287
 5526              	.LVL387:
 5527              	.L276:
 5528              	.LBE4275:
 5529              	.LBE4276:
 5530              	.LBE4277:
 5531              	.LBE4198:
 5532              	.LBE4197:
 5533              	.LBE4493:
 5534              		.loc 9 464 0
 5535 00b8 8001002C 		lwz 0,44(1)
 5536 00bc 83410010 		lwz 26,16(1)
 5537 00c0 7C0803A6 		mtlr 0
 5538 00c4 83610014 		lwz 27,20(1)
 5539 00c8 83810018 		lwz 28,24(1)
 5540 00cc 83A1001C 		lwz 29,28(1)
 5541 00d0 83C10020 		lwz 30,32(1)
 5542 00d4 83E10024 		lwz 31,36(1)
 5543              	.LVL388:
 5544 00d8 38210028 		addi 1,1,40
 5545              		.cfi_remember_state
 5546              	.LCFI74:
 5547              		.cfi_def_cfa_offset 0
 5548              		.cfi_restore 31
 5549              		.cfi_restore 30
 5550              		.cfi_restore 29
 5551              		.cfi_restore 28
 5552              		.cfi_restore 27
 5553              		.cfi_restore 26
 5554 00dc 4E800020 		blr
 5555              	.LVL389:
 5556              	.L278:
 5557              	.LCFI75:
 5558              		.cfi_restore_state
 5559              	.LBB4494:
 5560              	.LBB4489:
 5561              	.LBB4307:
 5562              	.LBB4308:
 5563              	.LBB4309:
 5564              	.LBB4310:
 5565              	.LBB4311:
 5566              		.loc 5 571 0
 5567 00e0 81230000 		lwz 9,0(3)
 5568              	.LBE4311:
 5569              	.LBE4310:
 5570              		.loc 5 1241 0
 5571 00e4 3D603FFF 		lis 11,0x3fff
 5572 00e8 616BFFFF 		ori 11,11,65535
 5573              	.LBB4313:
 5574              	.LBB4312:
 5575              		.loc 5 571 0
 5576 00ec 7F69D850 		subf 27,9,27
 5577 00f0 7F601670 		srawi 0,27,2
 5578              	.LBE4312:
 5579              	.LBE4313:
 5580              		.loc 5 1241 0
 5581 00f4 7D605850 		subf 11,0,11
 5582 00f8 7F9E5840 		cmplw 7,30,11
 5583 00fc 419D01E8 		bgt- 7,.L307
 5584              	.LVL390:
 5585              		.loc 5 1244 0
 5586 0100 7F80F040 		cmplw 7,0,30
 5587 0104 7C0B0378 		mr 11,0
 5588 0108 419C00CC 		blt- 7,.L308
 5589 010c 7D6B0214 		add 11,11,0
 5590              	.LVL391:
 5591              		.loc 5 1245 0
 5592 0110 7F805840 		cmplw 7,0,11
 5593 0114 409D00D0 		ble- 7,.L309
 5594              	.L290:
 5595              	.LVL392:
 5596              	.LBE4309:
 5597              	.LBE4308:
 5598              	.LBB4316:
 5599              	.LBB4317:
 5600              		.loc 10 892 0
 5601 0118 7F69E850 		subf 27,9,29
 5602              	.LBE4317:
 5603              	.LBE4316:
 5604              		.loc 9 418 0
 5605 011c 3B40FFFC 		li 26,-4
 5606              	.LBB4320:
 5607              	.LBB4318:
 5608              		.loc 10 892 0
 5609 0120 7F7B1670 		srawi 27,27,2
 5610              	.LVL393:
 5611              	.L296:
 5612              	.LBE4318:
 5613              	.LBE4320:
 5614              	.LBB4321:
 5615              	.LBB4322:
 5616              	.LBB4323:
 5617              	.LBB4324:
 5618              		.loc 12 92 0
 5619 0124 7F43D378 		mr 3,26
 5620              	.LVL394:
 5621 0128 90C10008 		stw 6,8(1)
 5622 012c 48000001 		bl _Znwj
 5623              	.LVL395:
 5624 0130 80C10008 		lwz 6,8(1)
 5625 0134 7C7C1B78 		mr 28,3
 5626              	.L291:
 5627              	.LVL396:
 5628              	.LBE4324:
 5629              	.LBE4323:
 5630              	.LBE4322:
 5631              	.LBE4321:
 5632              		.loc 9 424 0
 5633 0138 577B103A 		slwi 27,27,2
 5634              	.LVL397:
 5635              	.LBB4333:
 5636              	.LBB4329:
 5637              	.LBB4327:
 5638              	.LBB4325:
 5639              		.loc 4 281 0
 5640 013c 80060000 		lwz 0,0(6)
 5641              	.LVL398:
 5642              	.LBE4325:
 5643              	.LBE4327:
 5644              	.LBE4329:
 5645              	.LBE4333:
 5646              		.loc 9 424 0
 5647 0140 7F7CDA14 		add 27,28,27
 5648              	.LBB4334:
 5649              	.LBB4330:
 5650              		.loc 9 377 0
 5651 0144 7FC903A6 		mtctr 30
 5652              	.LBB4328:
 5653              	.LBB4326:
 5654 0148 3B7BFFFC 		addi 27,27,-4
 5655              	.LVL399:
 5656              	.L292:
 5657              	.LBE4326:
 5658              	.LBE4328:
 5659              	.LBE4330:
 5660              	.LBE4334:
 5661              	.LBB4335:
 5662              	.LBB4336:
 5663              	.LBB4337:
 5664              	.LBB4338:
 5665              	.LBB4339:
 5666              	.LBB4340:
 5667              	.LBB4341:
 5668              	.LBB4342:
 5669              		.loc 11 745 0
 5670 014c 941B0004 		stwu 0,4(27)
 5671              		.loc 11 743 0
 5672 0150 4200FFFC 		bdnz .L292
 5673              	.LVL400:
 5674              	.LBE4342:
 5675              	.LBE4341:
 5676              	.LBE4340:
 5677              	.LBE4339:
 5678              	.LBE4338:
 5679              	.LBE4337:
 5680              	.LBE4336:
 5681              	.LBE4335:
 5682              		.loc 9 429 0
 5683 0154 809F0000 		lwz 4,0(31)
 5684              	.LVL401:
 5685              	.LBB4343:
 5686              	.LBB4344:
 5687              	.LBB4345:
 5688              	.LBB4346:
 5689              	.LBB4347:
 5690              	.LBB4348:
 5691              	.LBB4349:
 5692              	.LBB4350:
 5693              	.LBB4351:
 5694              	.LBB4352:
 5695              	.LBB4353:
 5696              		.loc 11 365 0
 5697 0158 3B600000 		li 27,0
 5698              		.loc 11 364 0
 5699 015c 7C04E850 		subf 0,4,29
 5700              	.LVL402:
 5701              		.loc 11 365 0
 5702 0160 7C001671 		srawi. 0,0,2
 5703              	.LVL403:
 5704 0164 408200B0 		bne- 0,.L310
 5705              	.LBE4353:
 5706              	.LBE4352:
 5707              	.LBE4351:
 5708              	.LBE4350:
 5709              	.LBE4349:
 5710              	.LBE4348:
 5711              	.LBE4347:
 5712              	.LBE4346:
 5713              	.LBE4345:
 5714              	.LBE4344:
 5715              	.LBE4343:
 5716              	.LBB4394:
 5717              	.LBB4395:
 5718              	.LBB4396:
 5719              	.LBB4397:
 5720              	.LBB4398:
 5721              	.LBB4399:
 5722              	.LBB4400:
 5723              	.LBB4401:
 5724              	.LBB4402:
 5725              	.LBB4403:
 5726              	.LBB4404:
 5727              		.loc 11 364 0
 5728 0168 801F0004 		lwz 0,4(31)
 5729              	.LVL404:
 5730              	.LBE4404:
 5731              	.LBE4403:
 5732              	.LBE4402:
 5733              	.LBE4401:
 5734              	.LBE4400:
 5735              	.LBE4399:
 5736              	.LBE4398:
 5737              	.LBE4397:
 5738              	.LBE4396:
 5739              	.LBE4395:
 5740              	.LBE4394:
 5741              	.LBB4465:
 5742              	.LBB4390:
 5743              	.LBB4386:
 5744              	.LBB4382:
 5745              	.LBB4378:
 5746              	.LBB4374:
 5747              	.LBB4370:
 5748              	.LBB4366:
 5749              	.LBB4362:
 5750              	.LBB4358:
 5751              	.LBB4354:
 5752              		.loc 11 367 0
 5753 016c 7F7CDA14 		add 27,28,27
 5754              	.LVL405:
 5755              	.LBE4354:
 5756              	.LBE4358:
 5757              	.LBE4362:
 5758              	.LBE4366:
 5759              	.LBE4370:
 5760              	.LBE4374:
 5761              	.LBE4378:
 5762              	.LBE4382:
 5763              	.LBE4386:
 5764              	.LBE4390:
 5765              	.LBE4465:
 5766              		.loc 9 434 0
 5767 0170 57DE103A 		slwi 30,30,2
 5768              	.LVL406:
 5769              	.LBB4466:
 5770              	.LBB4459:
 5771              	.LBB4453:
 5772              	.LBB4447:
 5773              	.LBB4441:
 5774              	.LBB4435:
 5775              	.LBB4429:
 5776              	.LBB4423:
 5777              	.LBB4417:
 5778              	.LBB4411:
 5779              	.LBB4405:
 5780              		.loc 11 364 0
 5781 0174 7C1D0050 		subf 0,29,0
 5782              	.LBE4405:
 5783              	.LBE4411:
 5784              	.LBE4417:
 5785              	.LBE4423:
 5786              	.LBE4429:
 5787              	.LBE4435:
 5788              	.LBE4441:
 5789              	.LBE4447:
 5790              	.LBE4453:
 5791              	.LBE4459:
 5792              	.LBE4466:
 5793              		.loc 9 434 0
 5794 0178 7FDBF214 		add 30,27,30
 5795              	.LVL407:
 5796              	.LBB4467:
 5797              	.LBB4460:
 5798              	.LBB4454:
 5799              	.LBB4448:
 5800              	.LBB4442:
 5801              	.LBB4436:
 5802              	.LBB4430:
 5803              	.LBB4424:
 5804              	.LBB4418:
 5805              	.LBB4412:
 5806              	.LBB4406:
 5807              		.loc 11 365 0
 5808 017c 7C001671 		srawi. 0,0,2
 5809              	.LVL408:
 5810 0180 3B600000 		li 27,0
 5811 0184 408200C0 		bne- 0,.L311
 5812              	.LVL409:
 5813              	.L294:
 5814              	.LBE4406:
 5815              	.LBE4412:
 5816              	.LBE4418:
 5817              	.LBE4424:
 5818              	.LBE4430:
 5819              	.LBE4436:
 5820              	.LBE4442:
 5821              	.LBE4448:
 5822              	.LBE4454:
 5823              	.LBE4460:
 5824              	.LBE4467:
 5825              		.loc 9 456 0
 5826 0188 807F0000 		lwz 3,0(31)
 5827              	.LBB4468:
 5828              	.LBB4461:
 5829              	.LBB4455:
 5830              	.LBB4449:
 5831              	.LBB4443:
 5832              	.LBB4437:
 5833              	.LBB4431:
 5834              	.LBB4425:
 5835              	.LBB4419:
 5836              	.LBB4413:
 5837              	.LBB4407:
 5838              		.loc 11 367 0
 5839 018c 7F7EDA14 		add 27,30,27
 5840              	.LVL410:
 5841              	.LBE4407:
 5842              	.LBE4413:
 5843              	.LBE4419:
 5844              	.LBE4425:
 5845              	.LBE4431:
 5846              	.LBE4437:
 5847              	.LBE4443:
 5848              	.LBE4449:
 5849              	.LBE4455:
 5850              	.LBE4461:
 5851              	.LBE4468:
 5852              	.LBB4469:
 5853              	.LBB4470:
 5854              		.loc 5 155 0
 5855 0190 2F830000 		cmpwi 7,3,0
 5856 0194 419E0008 		beq- 7,.L295
 5857              	.LVL411:
 5858              	.LBB4471:
 5859              	.LBB4472:
 5860              		.loc 12 98 0
 5861 0198 48000001 		bl _ZdlPv
 5862              	.LVL412:
 5863              	.L295:
 5864              	.LBE4472:
 5865              	.LBE4471:
 5866              	.LBE4470:
 5867              	.LBE4469:
 5868              	.LBE4307:
 5869              	.LBE4489:
 5870              	.LBE4494:
 5871              		.loc 9 464 0
 5872 019c 8001002C 		lwz 0,44(1)
 5873              	.LBB4495:
 5874              	.LBB4490:
 5875              	.LBB4484:
 5876              		.loc 9 461 0
 5877 01a0 7F5CD214 		add 26,28,26
 5878              		.loc 9 459 0
 5879 01a4 939F0000 		stw 28,0(31)
 5880              	.LBE4484:
 5881              	.LBE4490:
 5882              	.LBE4495:
 5883              		.loc 9 464 0
 5884 01a8 7C0803A6 		mtlr 0
 5885              	.LBB4496:
 5886              	.LBB4491:
 5887              	.LBB4485:
 5888              		.loc 9 460 0
 5889 01ac 937F0004 		stw 27,4(31)
 5890              		.loc 9 461 0
 5891 01b0 935F0008 		stw 26,8(31)
 5892              	.LBE4485:
 5893              	.LBE4491:
 5894              	.LBE4496:
 5895              		.loc 9 464 0
 5896 01b4 83610014 		lwz 27,20(1)
 5897 01b8 83410010 		lwz 26,16(1)
 5898 01bc 83810018 		lwz 28,24(1)
 5899              	.LVL413:
 5900 01c0 83A1001C 		lwz 29,28(1)
 5901              	.LVL414:
 5902 01c4 83C10020 		lwz 30,32(1)
 5903              	.LVL415:
 5904 01c8 83E10024 		lwz 31,36(1)
 5905              	.LVL416:
 5906 01cc 38210028 		addi 1,1,40
 5907              		.cfi_remember_state
 5908              		.cfi_restore 26
 5909              		.cfi_restore 27
 5910              		.cfi_restore 28
 5911              		.cfi_restore 29
 5912              		.cfi_restore 30
 5913              		.cfi_restore 31
 5914              	.LCFI76:
 5915              		.cfi_def_cfa_offset 0
 5916 01d0 4E800020 		blr
 5917              	.LVL417:
 5918              	.L308:
 5919              	.LCFI77:
 5920              		.cfi_restore_state
 5921              	.LBB4497:
 5922              	.LBB4492:
 5923              	.LBB4486:
 5924              	.LBB4473:
 5925              	.LBB4314:
 5926              		.loc 5 1244 0
 5927 01d4 7FCBF378 		mr 11,30
 5928 01d8 7D6B0214 		add 11,11,0
 5929              	.LVL418:
 5930              		.loc 5 1245 0
 5931 01dc 7F805840 		cmplw 7,0,11
 5932 01e0 41BDFF38 		bgt- 7,.L290
 5933              	.L309:
 5934              	.LVL419:
 5935 01e4 3C003FFF 		lis 0,0x3fff
 5936 01e8 6000FFFF 		ori 0,0,65535
 5937 01ec 7F8B0040 		cmplw 7,11,0
 5938 01f0 41BDFF28 		bgt- 7,.L290
 5939              	.LVL420:
 5940              	.LBE4314:
 5941              	.LBE4473:
 5942              	.LBB4474:
 5943              	.LBB4331:
 5944              		.loc 5 150 0
 5945 01f4 2F8B0000 		cmpwi 7,11,0
 5946              	.LBE4331:
 5947              	.LBE4474:
 5948              	.LBB4475:
 5949              	.LBB4319:
 5950              		.loc 10 892 0
 5951 01f8 7D29E850 		subf 9,9,29
 5952 01fc 7D3B1670 		srawi 27,9,2
 5953              	.LVL421:
 5954              	.LBE4319:
 5955              	.LBE4475:
 5956              	.LBB4476:
 5957              	.LBB4332:
 5958              		.loc 5 150 0
 5959 0200 3B400000 		li 26,0
 5960 0204 3B800000 		li 28,0
 5961 0208 419EFF30 		beq+ 7,.L291
 5962 020c 557A103A 		slwi 26,11,2
 5963 0210 4BFFFF14 		b .L296
 5964              	.LVL422:
 5965              	.L310:
 5966              	.LBE4332:
 5967              	.LBE4476:
 5968              	.LBB4477:
 5969              	.LBB4391:
 5970              	.LBB4387:
 5971              	.LBB4383:
 5972              	.LBB4379:
 5973              	.LBB4375:
 5974              	.LBB4371:
 5975              	.LBB4367:
 5976              	.LBB4363:
 5977              	.LBB4359:
 5978              	.LBB4355:
 5979              		.loc 11 366 0
 5980 0214 541B103A 		slwi 27,0,2
 5981 0218 7F83E378 		mr 3,28
 5982 021c 7F65DB78 		mr 5,27
 5983              	.LBE4355:
 5984              	.LBE4359:
 5985              	.LBE4363:
 5986              	.LBE4367:
 5987              	.LBE4371:
 5988              	.LBE4375:
 5989              	.LBE4379:
 5990              	.LBE4383:
 5991              	.LBE4387:
 5992              	.LBE4391:
 5993              	.LBE4477:
 5994              		.loc 9 434 0
 5995 0220 57DE103A 		slwi 30,30,2
 5996              	.LVL423:
 5997              	.LBB4478:
 5998              	.LBB4392:
 5999              	.LBB4388:
 6000              	.LBB4384:
 6001              	.LBB4380:
 6002              	.LBB4376:
 6003              	.LBB4372:
 6004              	.LBB4368:
 6005              	.LBB4364:
 6006              	.LBB4360:
 6007              	.LBB4356:
 6008              		.loc 11 366 0
 6009 0224 48000001 		bl memmove
 6010              	.LVL424:
 6011              	.LBE4356:
 6012              	.LBE4360:
 6013              	.LBE4364:
 6014              	.LBE4368:
 6015              	.LBE4372:
 6016              	.LBE4376:
 6017              	.LBE4380:
 6018              	.LBE4384:
 6019              	.LBE4388:
 6020              	.LBE4392:
 6021              	.LBE4478:
 6022              	.LBB4479:
 6023              	.LBB4462:
 6024              	.LBB4456:
 6025              	.LBB4450:
 6026              	.LBB4444:
 6027              	.LBB4438:
 6028              	.LBB4432:
 6029              	.LBB4426:
 6030              	.LBB4420:
 6031              	.LBB4414:
 6032              	.LBB4408:
 6033              		.loc 11 364 0
 6034 0228 801F0004 		lwz 0,4(31)
 6035              	.LBE4408:
 6036              	.LBE4414:
 6037              	.LBE4420:
 6038              	.LBE4426:
 6039              	.LBE4432:
 6040              	.LBE4438:
 6041              	.LBE4444:
 6042              	.LBE4450:
 6043              	.LBE4456:
 6044              	.LBE4462:
 6045              	.LBE4479:
 6046              	.LBB4480:
 6047              	.LBB4393:
 6048              	.LBB4389:
 6049              	.LBB4385:
 6050              	.LBB4381:
 6051              	.LBB4377:
 6052              	.LBB4373:
 6053              	.LBB4369:
 6054              	.LBB4365:
 6055              	.LBB4361:
 6056              	.LBB4357:
 6057              		.loc 11 367 0
 6058 022c 7F7CDA14 		add 27,28,27
 6059              	.LVL425:
 6060              	.LBE4357:
 6061              	.LBE4361:
 6062              	.LBE4365:
 6063              	.LBE4369:
 6064              	.LBE4373:
 6065              	.LBE4377:
 6066              	.LBE4381:
 6067              	.LBE4385:
 6068              	.LBE4389:
 6069              	.LBE4393:
 6070              	.LBE4480:
 6071              	.LBB4481:
 6072              	.LBB4463:
 6073              	.LBB4457:
 6074              	.LBB4451:
 6075              	.LBB4445:
 6076              	.LBB4439:
 6077              	.LBB4433:
 6078              	.LBB4427:
 6079              	.LBB4421:
 6080              	.LBB4415:
 6081              	.LBB4409:
 6082              		.loc 11 364 0
 6083 0230 7C1D0050 		subf 0,29,0
 6084              	.LBE4409:
 6085              	.LBE4415:
 6086              	.LBE4421:
 6087              	.LBE4427:
 6088              	.LBE4433:
 6089              	.LBE4439:
 6090              	.LBE4445:
 6091              	.LBE4451:
 6092              	.LBE4457:
 6093              	.LBE4463:
 6094              	.LBE4481:
 6095              		.loc 9 434 0
 6096 0234 7FDBF214 		add 30,27,30
 6097              	.LVL426:
 6098              	.LBB4482:
 6099              	.LBB4464:
 6100              	.LBB4458:
 6101              	.LBB4452:
 6102              	.LBB4446:
 6103              	.LBB4440:
 6104              	.LBB4434:
 6105              	.LBB4428:
 6106              	.LBB4422:
 6107              	.LBB4416:
 6108              	.LBB4410:
 6109              		.loc 11 365 0
 6110 0238 7C001671 		srawi. 0,0,2
 6111              	.LVL427:
 6112 023c 3B600000 		li 27,0
 6113 0240 4182FF48 		beq+ 0,.L294
 6114              	.LVL428:
 6115              	.L311:
 6116              		.loc 11 366 0
 6117 0244 541B103A 		slwi 27,0,2
 6118 0248 7FC3F378 		mr 3,30
 6119 024c 7FA4EB78 		mr 4,29
 6120 0250 7F65DB78 		mr 5,27
 6121 0254 48000001 		bl memmove
 6122 0258 4BFFFF30 		b .L294
 6123              	.LVL429:
 6124              	.L285:
 6125              	.LBE4410:
 6126              	.LBE4416:
 6127              	.LBE4422:
 6128              	.LBE4428:
 6129              	.LBE4434:
 6130              	.LBE4440:
 6131              	.LBE4446:
 6132              	.LBE4452:
 6133              	.LBE4458:
 6134              	.LBE4464:
 6135              	.LBE4482:
 6136              	.LBE4486:
 6137              	.LBB4487:
 6138              	.LBB4278:
 6139              	.LBB4270:
 6140              	.LBB4268:
 6141              	.LBB4266:
 6142              	.LBB4264:
 6143              	.LBB4262:
 6144              	.LBB4260:
 6145              	.LBB4258:
 6146              	.LBB4256:
 6147              	.LBB4254:
 6148              	.LBB4252:
 6149 025c 541E103A 		slwi 30,0,2
 6150 0260 7FA4EB78 		mr 4,29
 6151 0264 7FC5F378 		mr 5,30
 6152              	.LVL430:
 6153 0268 48000001 		bl memmove
 6154              	.LVL431:
 6155 026c 807F0004 		lwz 3,4(31)
 6156 0270 4BFFFE28 		b .L286
 6157              	.LVL432:
 6158              	.L306:
 6159              	.LBE4252:
 6160              	.LBE4254:
 6161              	.LBE4256:
 6162              	.LBE4258:
 6163              	.LBE4260:
 6164              	.LBE4262:
 6165              	.LBE4264:
 6166              	.LBE4266:
 6167              	.LBE4268:
 6168              	.LBE4270:
 6169              	.LBE4278:
 6170              		.loc 9 390 0
 6171 0274 57DE103A 		slwi 30,30,2
 6172              	.LVL433:
 6173              	.LBB4279:
 6174              	.LBB4238:
 6175              	.LBB4237:
 6176              	.LBB4236:
 6177              	.LBB4235:
 6178              	.LBB4234:
 6179              	.LBB4233:
 6180              	.LBB4232:
 6181              	.LBB4231:
 6182              	.LBB4230:
 6183              	.LBB4229:
 6184              		.loc 9 382 0
 6185 0278 7F60DB78 		mr 0,27
 6186              	.LVL434:
 6187              		.loc 11 365 0
 6188 027c 7FC51671 		srawi. 5,30,2
 6189              	.LVL435:
 6190              		.loc 11 364 0
 6191 0280 7F5ED850 		subf 26,30,27
 6192              		.loc 11 365 0
 6193 0284 41A20018 		beq+ 0,.L280
 6194              		.loc 11 366 0
 6195 0288 7F63DB78 		mr 3,27
 6196 028c 7F44D378 		mr 4,26
 6197 0290 54A5103A 		slwi 5,5,2
 6198 0294 48000001 		bl memmove
 6199              	.LVL436:
 6200 0298 801F0004 		lwz 0,4(31)
 6201              	.L280:
 6202              	.LBE4229:
 6203              	.LBE4230:
 6204              	.LBE4231:
 6205              	.LBE4232:
 6206              	.LBE4233:
 6207              	.LBE4234:
 6208              	.LBE4235:
 6209              	.LBE4236:
 6210              	.LBE4237:
 6211              	.LBE4238:
 6212              	.LBE4279:
 6213              	.LBB4280:
 6214              	.LBB4281:
 6215              	.LBB4282:
 6216              	.LBB4283:
 6217              	.LBB4284:
 6218              	.LBB4285:
 6219              		.loc 11 559 0
 6220 029c 7F5DD050 		subf 26,29,26
 6221              	.LBE4285:
 6222              	.LBE4284:
 6223              	.LBE4283:
 6224              	.LBE4282:
 6225              	.LBE4281:
 6226              	.LBE4280:
 6227              		.loc 9 394 0
 6228 02a0 7C00F214 		add 0,0,30
 6229              	.LBB4301:
 6230              	.LBB4298:
 6231              	.LBB4295:
 6232              	.LBB4292:
 6233              	.LBB4289:
 6234              	.LBB4286:
 6235              		.loc 11 560 0
 6236 02a4 7F5A1671 		srawi. 26,26,2
 6237              	.LBE4286:
 6238              	.LBE4289:
 6239              	.LBE4292:
 6240              	.LBE4295:
 6241              	.LBE4298:
 6242              	.LBE4301:
 6243              		.loc 9 394 0
 6244 02a8 901F0004 		stw 0,4(31)
 6245              	.LVL437:
 6246              	.LBB4302:
 6247              	.LBB4299:
 6248              	.LBB4296:
 6249              	.LBB4293:
 6250              	.LBB4290:
 6251              	.LBB4287:
 6252              		.loc 11 560 0
 6253 02ac 40820024 		bne- 0,.L312
 6254              	.L281:
 6255              	.LVL438:
 6256              	.LBE4287:
 6257              	.LBE4290:
 6258              	.LBE4293:
 6259              	.LBE4296:
 6260              	.LBE4299:
 6261              	.LBE4302:
 6262              		.loc 9 397 0
 6263 02b0 7FDDF214 		add 30,29,30
 6264              	.LVL439:
 6265              	.LBB4303:
 6266              	.LBB4304:
 6267              	.LBB4305:
 6268              		.loc 11 686 0
 6269 02b4 7F9EE800 		cmpw 7,30,29
 6270 02b8 41BEFE00 		beq- 7,.L276
 6271              	.LVL440:
 6272              	.L282:
 6273              		.loc 11 687 0
 6274 02bc 939D0000 		stw 28,0(29)
 6275 02c0 3BBD0004 		addi 29,29,4
 6276              		.loc 11 686 0
 6277 02c4 7F9EE800 		cmpw 7,30,29
 6278 02c8 409EFFF4 		bne+ 7,.L282
 6279 02cc 4BFFFDEC 		b .L276
 6280              	.LVL441:
 6281              	.L312:
 6282              	.LBE4305:
 6283              	.LBE4304:
 6284              	.LBE4303:
 6285              	.LBB4306:
 6286              	.LBB4300:
 6287              	.LBB4297:
 6288              	.LBB4294:
 6289              	.LBB4291:
 6290              	.LBB4288:
 6291              		.loc 11 561 0
 6292 02d0 5745103A 		slwi 5,26,2
 6293 02d4 7FA4EB78 		mr 4,29
 6294 02d8 7C65D850 		subf 3,5,27
 6295 02dc 48000001 		bl memmove
 6296 02e0 4BFFFFD0 		b .L281
 6297              	.LVL442:
 6298              	.L307:
 6299              	.LBE4288:
 6300              	.LBE4291:
 6301              	.LBE4294:
 6302              	.LBE4297:
 6303              	.LBE4300:
 6304              	.LBE4306:
 6305              	.LBE4487:
 6306              	.LBB4488:
 6307              	.LBB4483:
 6308              	.LBB4315:
 6309              		.loc 5 1242 0
 6310 02e4 3C600000 		lis 3,.LC8@ha
 6311 02e8 38630030 		la 3,.LC8@l(3)
 6312 02ec 48000001 		bl _ZSt20__throw_length_errorPKc
 6313              	.LVL443:
 6314              	.LVL444:
 6315              	.LVL445:
 6316              	.LBE4315:
 6317              	.LBE4483:
 6318              	.LBE4488:
 6319              	.LBE4492:
 6320              	.LBE4497:
 6321              		.cfi_endproc
 6322              	.LFE1814:
 6323              		.size	_ZNSt6vectorIP9GuiButtonSaIS1_EE14_M_fill_insertEN9__gnu_cxx17__normal_iteratorIPS1_S3_EEjRK
 6324              		.section	.text._ZNSt8_Rb_treeIPN7sigslot12_signal_baseINS0_15single_threadedEEES4_St9_IdentityIS4_
 6325              		.align 2
 6326              		.weak	_ZNSt8_Rb_treeIPN7sigslot12_signal_baseINS0_15single_threadedEEES4_St9_IdentityIS4_ESt4lessI
 6327              		.type	_ZNSt8_Rb_treeIPN7sigslot12_signal_baseINS0_15single_threadedEEES4_St9_IdentityIS4_ESt4lessI
 6328              	_ZNSt8_Rb_treeIPN7sigslot12_signal_baseINS0_15single_threadedEEES4_St9_IdentityIS4_ESt4lessIS4_ESaI
 6329              	.LFB1903:
 6330              		.file 13 "d:\\devkitpro\\devkitppc\\bin\\../lib/gcc/powerpc-eabi/4.6.3/../../../../powerpc-eabi/in
 6331              		.loc 13 1264 0
 6332              		.cfi_startproc
 6333              	.LVL446:
 6334 0000 7C0802A6 		mflr 0
 6335 0004 9421FFE0 		stwu 1,-32(1)
 6336              	.LCFI78:
 6337              		.cfi_def_cfa_offset 32
 6338              		.cfi_register 65, 0
 6339 0008 93810010 		stw 28,16(1)
 6340 000c 90010024 		stw 0,36(1)
 6341 0010 9361000C 		stw 27,12(1)
 6342 0014 7C9B2378 		mr 27,4
 6343              		.cfi_offset 27, -20
 6344              		.cfi_offset 65, 4
 6345              		.cfi_offset 28, -16
 6346              	.LBB4537:
 6347              	.LBB4538:
 6348              	.LBB4539:
 6349              		.loc 4 281 0
 6350 0018 83830008 		lwz 28,8(3)
 6351              	.LVL447:
 6352              	.LBE4539:
 6353              	.LBE4538:
 6354              	.LBE4537:
 6355              		.loc 13 1264 0
 6356 001c 93A10014 		stw 29,20(1)
 6357              	.LBB4564:
 6358              	.LBB4556:
 6359              	.LBB4552:
 6360              		.loc 13 1272 0
 6361 0020 3BA30004 		addi 29,3,4
 6362              		.cfi_offset 29, -12
 6363              	.LVL448:
 6364              	.LBE4552:
 6365              	.LBE4556:
 6366              		.loc 13 1274 0
 6367 0024 2F9C0000 		cmpwi 7,28,0
 6368              	.LBE4564:
 6369              		.loc 13 1264 0
 6370 0028 93E1001C 		stw 31,28(1)
 6371 002c 93410008 		stw 26,8(1)
 6372 0030 7C7F1B78 		mr 31,3
 6373              		.cfi_offset 26, -24
 6374              		.cfi_offset 31, -4
 6375 0034 93C10018 		stw 30,24(1)
 6376              	.LBB4565:
 6377              		.loc 13 1274 0
 6378 0038 419E0084 		beq- 7,.L328
 6379              		.cfi_offset 30, -8
 6380              	.LVL449:
 6381 003c 81440000 		lwz 10,0(4)
 6382 0040 48000014 		b .L317
 6383              	.LVL450:
 6384              	.L336:
 6385              		.loc 4 281 0 discriminator 1
 6386 0044 801C0008 		lwz 0,8(28)
 6387              	.LVL451:
 6388              		.loc 13 1274 0 discriminator 1
 6389 0048 2F800000 		cmpwi 7,0,0
 6390 004c 419E0028 		beq- 7,.L335
 6391              	.LVL452:
 6392              	.L329:
 6393              		.loc 13 1274 0 is_stmt 0
 6394 0050 7C1C0378 		mr 28,0
 6395              	.LVL453:
 6396              	.L317:
 6397              		.loc 4 281 0 is_stmt 1
 6398 0054 813C0010 		lwz 9,16(28)
 6399 0058 39600001 		li 11,1
 6400              		.loc 13 1278 0
 6401 005c 7F895040 		cmplw 7,9,10
 6402 0060 41BDFFE4 		bgt- 7,.L336
 6403              	.LVL454:
 6404              		.loc 4 281 0 discriminator 2
 6405 0064 801C000C 		lwz 0,12(28)
 6406 0068 39600000 		li 11,0
 6407              	.LVL455:
 6408              		.loc 13 1274 0 discriminator 2
 6409 006c 2F800000 		cmpwi 7,0,0
 6410 0070 409EFFE0 		bne+ 7,.L329
 6411              	.LVL456:
 6412              	.L335:
 6413              		.loc 13 1281 0
 6414 0074 2F8B0000 		cmpwi 7,11,0
 6415 0078 7F83E378 		mr 3,28
 6416              	.LVL457:
 6417 007c 409E0044 		bne- 7,.L314
 6418              	.LVL458:
 6419              		.loc 13 1289 0
 6420 0080 7F8A4840 		cmplw 7,10,9
 6421 0084 419D0060 		bgt- 7,.L337
 6422              	.LVL459:
 6423              	.L324:
 6424              		.loc 13 1292 0
 6425 0088 38000000 		li 0,0
 6426 008c 38800000 		li 4,0
 6427 0090 5004C00E 		rlwimi 4,0,24,0,7
 6428              	.LBE4565:
 6429              		.loc 13 1293 0
 6430 0094 80010024 		lwz 0,36(1)
 6431 0098 83410008 		lwz 26,8(1)
 6432 009c 7C0803A6 		mtlr 0
 6433 00a0 8361000C 		lwz 27,12(1)
 6434              	.LVL460:
 6435 00a4 83810010 		lwz 28,16(1)
 6436 00a8 83A10014 		lwz 29,20(1)
 6437 00ac 83C10018 		lwz 30,24(1)
 6438 00b0 83E1001C 		lwz 31,28(1)
 6439              	.LVL461:
 6440 00b4 38210020 		addi 1,1,32
 6441              		.cfi_remember_state
 6442              	.LCFI79:
 6443              		.cfi_def_cfa_offset 0
 6444              		.cfi_restore 31
 6445              		.cfi_restore 30
 6446              		.cfi_restore 29
 6447              		.cfi_restore 28
 6448              		.cfi_restore 27
 6449              		.cfi_restore 26
 6450 00b8 4E800020 		blr
 6451              	.LVL462:
 6452              	.L328:
 6453              	.LCFI80:
 6454              		.cfi_restore_state
 6455              	.LBB4566:
 6456              		.loc 13 1272 0
 6457 00bc 7FBCEB78 		mr 28,29
 6458              	.LVL463:
 6459              	.L314:
 6460              		.loc 13 1283 0
 6461 00c0 801F000C 		lwz 0,12(31)
 6462 00c4 7F9C0000 		cmpw 7,28,0
 6463 00c8 419E003C 		beq- 7,.L338
 6464              	.LVL464:
 6465              	.LBB4557:
 6466              	.LBB4558:
 6467              		.loc 13 203 0
 6468 00cc 7F83E378 		mr 3,28
 6469 00d0 48000001 		bl _ZSt18_Rb_tree_decrementPSt18_Rb_tree_node_base
 6470              	.LVL465:
 6471 00d4 815B0000 		lwz 10,0(27)
 6472 00d8 81230010 		lwz 9,16(3)
 6473              	.LVL466:
 6474              	.LBE4558:
 6475              	.LBE4557:
 6476              		.loc 13 1289 0
 6477 00dc 7F8A4840 		cmplw 7,10,9
 6478 00e0 409DFFA8 		ble+ 7,.L324
 6479              	.LVL467:
 6480              	.L337:
 6481              	.LBB4559:
 6482              	.LBB4553:
 6483              		.loc 13 969 0
 6484 00e4 7F9CE800 		cmpw 7,28,29
 6485 00e8 3B400001 		li 26,1
 6486 00ec 419E0038 		beq- 7,.L325
 6487              	.LVL468:
 6488              		.loc 13 1264 0
 6489 00f0 835C0010 		lwz 26,16(28)
 6490 00f4 7F5A5010 		subfc 26,26,10
 6491 00f8 7F5AD110 		subfe 26,26,26
 6492 00fc 7F5A00D0 		neg 26,26
 6493 0100 48000024 		b .L325
 6494              	.LVL469:
 6495              	.L338:
 6496              	.LBE4553:
 6497              	.LBE4559:
 6498              	.LBB4560:
 6499              	.LBB4561:
 6500              		.loc 13 969 0
 6501 0104 7F9CE800 		cmpw 7,28,29
 6502 0108 3B400001 		li 26,1
 6503 010c 419E0018 		beq- 7,.L325
 6504              	.LVL470:
 6505              		.loc 13 1264 0
 6506 0110 835B0000 		lwz 26,0(27)
 6507 0114 801C0010 		lwz 0,16(28)
 6508              	.LVL471:
 6509 0118 7F40D010 		subfc 26,0,26
 6510 011c 7F5AD110 		subfe 26,26,26
 6511 0120 7F5A00D0 		neg 26,26
 6512              	.LVL472:
 6513              	.L325:
 6514              	.LBE4561:
 6515              	.LBE4560:
 6516              	.LBB4562:
 6517              	.LBB4554:
 6518              	.LBB4540:
 6519              	.LBB4541:
 6520              	.LBB4542:
 6521              	.LBB4543:
 6522              	.LBB4544:
 6523              		.loc 12 92 0
 6524 0124 38600014 		li 3,20
 6525 0128 48000001 		bl _Znwj
 6526              	.LBE4544:
 6527              	.LBE4543:
 6528              	.LBE4542:
 6529              	.LBB4547:
 6530              	.LBB4548:
 6531              		.loc 12 108 0
 6532 012c 2F83FFF0 		cmpwi 7,3,-16
 6533              	.LBE4548:
 6534              	.LBE4547:
 6535              	.LBB4550:
 6536              	.LBB4546:
 6537              	.LBB4545:
 6538              		.loc 12 92 0
 6539 0130 7C7E1B78 		mr 30,3
 6540              	.LVL473:
 6541              	.LBE4545:
 6542              	.LBE4546:
 6543              	.LBE4550:
 6544              	.LBB4551:
 6545              	.LBB4549:
 6546              		.loc 12 108 0
 6547 0134 419E000C 		beq- 7,.L327
 6548 0138 801B0000 		lwz 0,0(27)
 6549 013c 90030010 		stw 0,16(3)
 6550              	.L327:
 6551              	.LVL474:
 6552              	.LBE4549:
 6553              	.LBE4551:
 6554              	.LBE4541:
 6555              	.LBE4540:
 6556              		.loc 13 973 0
 6557 0140 7F43D378 		mr 3,26
 6558              	.LVL475:
 6559 0144 7FC4F378 		mr 4,30
 6560 0148 7F85E378 		mr 5,28
 6561 014c 7FA6EB78 		mr 6,29
 6562 0150 48000001 		bl _ZSt29_Rb_tree_insert_and_rebalancebPSt18_Rb_tree_node_baseS0_RS_
 6563              		.loc 13 976 0
 6564 0154 813F0014 		lwz 9,20(31)
 6565              		.loc 13 1291 0
 6566 0158 38800000 		li 4,0
 6567 015c 7FC3F378 		mr 3,30
 6568              		.loc 13 976 0
 6569 0160 38090001 		addi 0,9,1
 6570              	.LBE4554:
 6571              	.LBE4562:
 6572              	.LBE4566:
 6573              		.loc 13 1293 0
 6574 0164 83410008 		lwz 26,8(1)
 6575              	.LVL476:
 6576              	.LBB4567:
 6577              	.LBB4563:
 6578              	.LBB4555:
 6579              		.loc 13 976 0
 6580 0168 901F0014 		stw 0,20(31)
 6581              	.LVL477:
 6582              		.loc 13 1291 0
 6583 016c 38000001 		li 0,1
 6584 0170 5004C00E 		rlwimi 4,0,24,0,7
 6585              	.LBE4555:
 6586              	.LBE4563:
 6587              	.LBE4567:
 6588              		.loc 13 1293 0
 6589 0174 80010024 		lwz 0,36(1)
 6590 0178 8361000C 		lwz 27,12(1)
 6591              	.LVL478:
 6592 017c 7C0803A6 		mtlr 0
 6593 0180 83810010 		lwz 28,16(1)
 6594 0184 83A10014 		lwz 29,20(1)
 6595 0188 83C10018 		lwz 30,24(1)
 6596              	.LVL479:
 6597 018c 83E1001C 		lwz 31,28(1)
 6598              	.LVL480:
 6599 0190 38210020 		addi 1,1,32
 6600              		.cfi_restore 26
 6601              		.cfi_restore 27
 6602              		.cfi_restore 28
 6603              		.cfi_restore 29
 6604              		.cfi_restore 30
 6605              		.cfi_restore 31
 6606              	.LCFI81:
 6607              		.cfi_def_cfa_offset 0
 6608 0194 4E800020 		blr
 6609              		.cfi_endproc
 6610              	.LFE1903:
 6611              		.size	_ZNSt8_Rb_treeIPN7sigslot12_signal_baseINS0_15single_threadedEEES4_St9_IdentityIS4_ESt4lessI
 6612              		.section	.text._ZN7sigslot7signal3IP10GuiElementiiNS_15single_threadedEE7connectI15ThemeDownloader
 6613              		.align 2
 6614              		.weak	_ZN7sigslot7signal3IP10GuiElementiiNS_15single_threadedEE7connectI15ThemeDownloaderEEvPT_MS7
 6615              		.type	_ZN7sigslot7signal3IP10GuiElementiiNS_15single_threadedEE7connectI15ThemeDownloaderEEvPT_MS7
 6616              	_ZN7sigslot7signal3IP10GuiElementiiNS_15single_threadedEE7connectI15ThemeDownloaderEEvPT_MS7_FvS2_i
 6617              	.LFB1670:
 6618              		.loc 1 2308 0
 6619              		.cfi_startproc
 6620              		.cfi_personality 0,__gxx_personality_v0
 6621              		.cfi_lsda 0,.LLSDA1670
 6622              	.LVL481:
 6623 0000 7C0802A6 		mflr 0
 6624 0004 9421FFD0 		stwu 1,-48(1)
 6625              	.LCFI82:
 6626              		.cfi_def_cfa_offset 48
 6627              		.cfi_register 65, 0
 6628 0008 9361001C 		stw 27,28(1)
 6629 000c 90010034 		stw 0,52(1)
 6630 0010 93C10028 		stw 30,40(1)
 6631 0014 7C9E2378 		mr 30,4
 6632              		.cfi_offset 30, -8
 6633              		.cfi_offset 65, 4
 6634              		.cfi_offset 27, -20
 6635              	.LBB4611:
 6636              	.LBB4612:
 6637              	.LBB4613:
 6638              		.loc 1 338 0
 6639 0018 81230000 		lwz 9,0(3)
 6640              	.LBE4613:
 6641              	.LBE4612:
 6642              	.LBE4611:
 6643              		.loc 1 2308 0
 6644 001c 93E1002C 		stw 31,44(1)
 6645 0020 7C7F1B78 		mr 31,3
 6646              		.cfi_offset 31, -4
 6647              	.LVL482:
 6648              	.LBB4666:
 6649              	.LBB4617:
 6650              	.LBB4614:
 6651              		.loc 1 338 0
 6652 0024 80090008 		lwz 0,8(9)
 6653              	.LBE4614:
 6654              	.LBE4617:
 6655              	.LBE4666:
 6656              		.loc 1 2308 0
 6657 0028 93810020 		stw 28,32(1)
 6658 002c 93A10024 		stw 29,36(1)
 6659              	.LBB4667:
 6660              	.LBB4618:
 6661              	.LBB4615:
 6662              		.loc 1 338 0
 6663 0030 7C0903A6 		mtctr 0
 6664              	.LBE4615:
 6665              	.LBE4618:
 6666              	.LBE4667:
 6667              		.loc 1 2308 0
 6668 0034 83650000 		lwz 27,0(5)
 6669 0038 83850004 		lwz 28,4(5)
 6670              		.cfi_offset 29, -12
 6671              		.cfi_offset 28, -16
 6672              	.LEHB21:
 6673              	.LBB4668:
 6674              	.LBB4619:
 6675              	.LBB4616:
 6676              		.loc 1 338 0
 6677 003c 4E800421 		bctrl
 6678              	.LEHE21:
 6679              	.LVL483:
 6680              	.LBE4616:
 6681              	.LBE4619:
 6682              		.loc 1 2314 0
 6683 0040 38600010 		li 3,16
 6684              	.LEHB22:
 6685 0044 48000001 		bl _Znwj
 6686              	.LBB4620:
 6687              	.LBB4621:
 6688              		.loc 1 1778 0
 6689 0048 3D200000 		lis 9,_ZTVN7sigslot12_connection3I15ThemeDownloaderP10GuiElementiiNS_15single_threadedEEE+8@ha
 6690              		.loc 1 1779 0
 6691 004c 93C30004 		stw 30,4(3)
 6692              		.loc 1 1778 0
 6693 0050 38090008 		la 0,_ZTVN7sigslot12_connection3I15ThemeDownloaderP10GuiElementiiNS_15single_threadedEEE+8@l(9)
 6694              		.loc 1 1780 0
 6695 0054 93630008 		stw 27,8(3)
 6696              		.loc 1 1778 0
 6697 0058 90030000 		stw 0,0(3)
 6698              	.LBE4621:
 6699              	.LBE4620:
 6700              		.loc 1 2314 0
 6701 005c 7C7D1B78 		mr 29,3
 6702              	.LVL484:
 6703              	.LBB4623:
 6704              	.LBB4622:
 6705              		.loc 1 1780 0
 6706 0060 9383000C 		stw 28,12(3)
 6707              	.LVL485:
 6708              	.LBE4622:
 6709              	.LBE4623:
 6710              	.LBB4624:
 6711              	.LBB4625:
 6712              	.LBB4626:
 6713              	.LBB4627:
 6714              	.LBB4628:
 6715              	.LBB4629:
 6716              	.LBB4630:
 6717              	.LBB4631:
 6718              		.loc 12 92 0
 6719 0064 3860000C 		li 3,12
 6720              	.LVL486:
 6721 0068 48000001 		bl _Znwj
 6722              	.LVL487:
 6723              	.LBE4631:
 6724              	.LBE4630:
 6725              	.LBE4629:
 6726              	.LBB4632:
 6727              	.LBB4633:
 6728              		.loc 12 108 0 discriminator 1
 6729 006c 2F83FFF8 		cmpwi 7,3,-8
 6730 0070 419E0008 		beq- 7,.L341
 6731              		.loc 12 108 0 is_stmt 0
 6732 0074 93A30008 		stw 29,8(3)
 6733              	.LVL488:
 6734              	.L341:
 6735              	.LBE4633:
 6736              	.LBE4632:
 6737              	.LBE4628:
 6738              	.LBE4627:
 6739              		.file 14 "d:\\devkitpro\\devkitppc\\bin\\../lib/gcc/powerpc-eabi/4.6.3/../../../../powerpc-eabi/in
 6740              		.loc 14 1516 0 is_stmt 1
 6741 0078 389F0004 		addi 4,31,4
 6742              	.LBE4626:
 6743              	.LBE4625:
 6744              	.LBE4624:
 6745              	.LBB4638:
 6746              	.LBB4639:
 6747              		.loc 1 503 0
 6748 007c 3BBE00B0 		addi 29,30,176
 6749              	.LVL489:
 6750              	.LBE4639:
 6751              	.LBE4638:
 6752              	.LBB4655:
 6753              	.LBB4636:
 6754              	.LBB4634:
 6755              		.loc 14 1516 0
 6756 0080 48000001 		bl _ZNSt8__detail15_List_node_base7_M_hookEPS0_
 6757              	.LVL490:
 6758              	.LBE4634:
 6759              	.LBE4636:
 6760              	.LBE4655:
 6761              	.LBB4656:
 6762              	.LBB4652:
 6763              	.LBB4640:
 6764              	.LBB4641:
 6765              		.loc 1 338 0
 6766 0084 813E00B0 		lwz 9,176(30)
 6767              	.LBE4641:
 6768              	.LBE4640:
 6769              	.LBE4652:
 6770              	.LBE4656:
 6771              	.LBB4657:
 6772              	.LBB4637:
 6773              	.LBB4635:
 6774              		.loc 14 1516 0
 6775 0088 93E10008 		stw 31,8(1)
 6776              	.LVL491:
 6777              	.LBE4635:
 6778              	.LBE4637:
 6779              	.LBE4657:
 6780              	.LBB4658:
 6781              	.LBB4653:
 6782              	.LBB4643:
 6783              	.LBB4642:
 6784              		.loc 1 338 0
 6785 008c 7FA3EB78 		mr 3,29
 6786 0090 80090008 		lwz 0,8(9)
 6787 0094 7C0903A6 		mtctr 0
 6788 0098 4E800421 		bctrl
 6789              	.LEHE22:
 6790              	.LVL492:
 6791              	.LBE4642:
 6792              	.LBE4643:
 6793              	.LBB4644:
 6794              	.LBB4645:
 6795              		.file 15 "d:\\devkitpro\\devkitppc\\bin\\../lib/gcc/powerpc-eabi/4.6.3/../../../../powerpc-eabi/in
 6796              		.loc 15 410 0
 6797 009c 387E00B4 		addi 3,30,180
 6798 00a0 38810008 		addi 4,1,8
 6799              	.LEHB23:
 6800 00a4 48000001 		bl _ZNSt8_Rb_treeIPN7sigslot12_signal_baseINS0_15single_threadedEEES4_St9_IdentityIS4_ESt4lessIS4_
 6801              	.LEHE23:
 6802              	.LVL493:
 6803              	.LBE4645:
 6804              	.LBE4644:
 6805              	.LBB4646:
 6806              	.LBB4647:
 6807              	.LBB4648:
 6808              		.loc 1 343 0
 6809 00a8 813E00B0 		lwz 9,176(30)
 6810 00ac 7FA3EB78 		mr 3,29
 6811 00b0 8009000C 		lwz 0,12(9)
 6812 00b4 7C0903A6 		mtctr 0
 6813              	.LEHB24:
 6814 00b8 4E800421 		bctrl
 6815              	.LEHE24:
 6816              	.LVL494:
 6817              	.LBE4648:
 6818              	.LBE4647:
 6819              	.LBE4646:
 6820              	.LBE4653:
 6821              	.LBE4658:
 6822              	.LBB4659:
 6823              	.LBB4660:
 6824              	.LBB4661:
 6825 00bc 813F0000 		lwz 9,0(31)
 6826 00c0 7FE3FB78 		mr 3,31
 6827 00c4 8009000C 		lwz 0,12(9)
 6828 00c8 7C0903A6 		mtctr 0
 6829              	.LEHB25:
 6830 00cc 4E800421 		bctrl
 6831              	.LEHE25:
 6832              	.LBE4661:
 6833              	.LBE4660:
 6834              	.LBE4659:
 6835              	.LBE4668:
 6836              		.loc 1 2317 0
 6837 00d0 80010034 		lwz 0,52(1)
 6838 00d4 8361001C 		lwz 27,28(1)
 6839              	.LVL495:
 6840 00d8 7C0803A6 		mtlr 0
 6841 00dc 83810020 		lwz 28,32(1)
 6842              	.LVL496:
 6843 00e0 83A10024 		lwz 29,36(1)
 6844              	.LVL497:
 6845 00e4 83C10028 		lwz 30,40(1)
 6846              	.LVL498:
 6847 00e8 83E1002C 		lwz 31,44(1)
 6848              	.LVL499:
 6849 00ec 38210030 		addi 1,1,48
 6850              		.cfi_remember_state
 6851              	.LCFI83:
 6852              		.cfi_def_cfa_offset 0
 6853              		.cfi_restore 31
 6854              		.cfi_restore 30
 6855              		.cfi_restore 29
 6856              		.cfi_restore 28
 6857              		.cfi_restore 27
 6858 00f0 4E800020 		blr
 6859              	.LVL500:
 6860              	.L348:
 6861              	.LCFI84:
 6862              		.cfi_restore_state
 6863 00f4 7C7E1B78 		mr 30,3
 6864              	.LVL501:
 6865              	.L345:
 6866              	.LBB4669:
 6867              	.LBB4662:
 6868              	.LBB4663:
 6869              	.LBB4664:
 6870              		.loc 1 343 0
 6871 00f8 813F0000 		lwz 9,0(31)
 6872 00fc 7FE3FB78 		mr 3,31
 6873 0100 8009000C 		lwz 0,12(9)
 6874 0104 7C0903A6 		mtctr 0
 6875 0108 4E800421 		bctrl
 6876 010c 7FC3F378 		mr 3,30
 6877              	.LEHB26:
 6878 0110 48000001 		bl _Unwind_Resume
 6879              	.LEHE26:
 6880              	.LVL502:
 6881              	.L349:
 6882              	.LBE4664:
 6883              	.LBE4663:
 6884              	.LBE4662:
 6885              	.LBB4665:
 6886              	.LBB4654:
 6887              	.LBB4649:
 6888              	.LBB4650:
 6889              	.LBB4651:
 6890 0114 813E00B0 		lwz 9,176(30)
 6891 0118 7C7E1B78 		mr 30,3
 6892              	.LVL503:
 6893 011c 7FA3EB78 		mr 3,29
 6894 0120 8009000C 		lwz 0,12(9)
 6895 0124 7C0903A6 		mtctr 0
 6896 0128 4E800421 		bctrl
 6897 012c 4BFFFFCC 		b .L345
 6898              	.LBE4651:
 6899              	.LBE4650:
 6900              	.LBE4649:
 6901              	.LBE4654:
 6902              	.LBE4665:
 6903              	.LBE4669:
 6904              		.cfi_endproc
 6905              	.LFE1670:
 6906              		.section	.gcc_except_table
 6907              	.LLSDA1670:
 6908 007c FF       		.byte	0xff
 6909 007d FF       		.byte	0xff
 6910 007e 01       		.byte	0x1
 6911 007f 1F       		.uleb128 .LLSDACSE1670-.LLSDACSB1670
 6912              	.LLSDACSB1670:
 6913 0080 3C       		.uleb128 .LEHB21-.LFB1670
 6914 0081 04       		.uleb128 .LEHE21-.LEHB21
 6915 0082 00       		.uleb128 0
 6916 0083 00       		.uleb128 0
 6917 0084 44       		.uleb128 .LEHB22-.LFB1670
 6918 0085 58       		.uleb128 .LEHE22-.LEHB22
 6919 0086 F401     		.uleb128 .L348-.LFB1670
 6920 0088 00       		.uleb128 0
 6921 0089 A401     		.uleb128 .LEHB23-.LFB1670
 6922 008b 04       		.uleb128 .LEHE23-.LEHB23
 6923 008c 9402     		.uleb128 .L349-.LFB1670
 6924 008e 00       		.uleb128 0
 6925 008f B801     		.uleb128 .LEHB24-.LFB1670
 6926 0091 04       		.uleb128 .LEHE24-.LEHB24
 6927 0092 F401     		.uleb128 .L348-.LFB1670
 6928 0094 00       		.uleb128 0
 6929 0095 CC01     		.uleb128 .LEHB25-.LFB1670
 6930 0097 04       		.uleb128 .LEHE25-.LEHB25
 6931 0098 00       		.uleb128 0
 6932 0099 00       		.uleb128 0
 6933 009a 9002     		.uleb128 .LEHB26-.LFB1670
 6934 009c 04       		.uleb128 .LEHE26-.LEHB26
 6935 009d 00       		.uleb128 0
 6936 009e 00       		.uleb128 0
 6937              	.LLSDACSE1670:
 6938              		.section	.text._ZN7sigslot7signal3IP10GuiElementiiNS_15single_threadedEE7connectI15ThemeDownloader
 6939              		.size	_ZN7sigslot7signal3IP10GuiElementiiNS_15single_threadedEE7connectI15ThemeDownloaderEEvPT_MS7
 6940              		.section	.text._ZN7sigslot7signal3IP9GuiButtoniRK6_POINTNS_15single_threadedEE7connectI15ThemeDown
 6941              		.align 2
 6942              		.weak	_ZN7sigslot7signal3IP9GuiButtoniRK6_POINTNS_15single_threadedEE7connectI15ThemeDownloaderEEv
 6943              		.type	_ZN7sigslot7signal3IP9GuiButtoniRK6_POINTNS_15single_threadedEE7connectI15ThemeDownloaderEEv
 6944              	_ZN7sigslot7signal3IP9GuiButtoniRK6_POINTNS_15single_threadedEE7connectI15ThemeDownloaderEEvPT_MSA_
 6945              	.LFB1669:
 6946              		.loc 1 2308 0
 6947              		.cfi_startproc
 6948              		.cfi_personality 0,__gxx_personality_v0
 6949              		.cfi_lsda 0,.LLSDA1669
 6950              	.LVL504:
 6951 0000 7C0802A6 		mflr 0
 6952 0004 9421FFD0 		stwu 1,-48(1)
 6953              	.LCFI85:
 6954              		.cfi_def_cfa_offset 48
 6955              		.cfi_register 65, 0
 6956 0008 9361001C 		stw 27,28(1)
 6957 000c 90010034 		stw 0,52(1)
 6958 0010 93C10028 		stw 30,40(1)
 6959 0014 7C9E2378 		mr 30,4
 6960              		.cfi_offset 30, -8
 6961              		.cfi_offset 65, 4
 6962              		.cfi_offset 27, -20
 6963              	.LBB4712:
 6964              	.LBB4713:
 6965              	.LBB4714:
 6966              		.loc 1 338 0
 6967 0018 81230000 		lwz 9,0(3)
 6968              	.LBE4714:
 6969              	.LBE4713:
 6970              	.LBE4712:
 6971              		.loc 1 2308 0
 6972 001c 93E1002C 		stw 31,44(1)
 6973 0020 7C7F1B78 		mr 31,3
 6974              		.cfi_offset 31, -4
 6975              	.LVL505:
 6976              	.LBB4767:
 6977              	.LBB4718:
 6978              	.LBB4715:
 6979              		.loc 1 338 0
 6980 0024 80090008 		lwz 0,8(9)
 6981              	.LBE4715:
 6982              	.LBE4718:
 6983              	.LBE4767:
 6984              		.loc 1 2308 0
 6985 0028 93810020 		stw 28,32(1)
 6986 002c 93A10024 		stw 29,36(1)
 6987              	.LBB4768:
 6988              	.LBB4719:
 6989              	.LBB4716:
 6990              		.loc 1 338 0
 6991 0030 7C0903A6 		mtctr 0
 6992              	.LBE4716:
 6993              	.LBE4719:
 6994              	.LBE4768:
 6995              		.loc 1 2308 0
 6996 0034 83650000 		lwz 27,0(5)
 6997 0038 83850004 		lwz 28,4(5)
 6998              		.cfi_offset 29, -12
 6999              		.cfi_offset 28, -16
 7000              	.LEHB27:
 7001              	.LBB4769:
 7002              	.LBB4720:
 7003              	.LBB4717:
 7004              		.loc 1 338 0
 7005 003c 4E800421 		bctrl
 7006              	.LEHE27:
 7007              	.LVL506:
 7008              	.LBE4717:
 7009              	.LBE4720:
 7010              		.loc 1 2314 0
 7011 0040 38600010 		li 3,16
 7012              	.LEHB28:
 7013 0044 48000001 		bl _Znwj
 7014              	.LBB4721:
 7015              	.LBB4722:
 7016              		.loc 1 1778 0
 7017 0048 3D200000 		lis 9,_ZTVN7sigslot12_connection3I15ThemeDownloaderP9GuiButtoniRK6_POINTNS_15single_threadedEEE+8@
 7018              		.loc 1 1779 0
 7019 004c 93C30004 		stw 30,4(3)
 7020              		.loc 1 1778 0
 7021 0050 38090008 		la 0,_ZTVN7sigslot12_connection3I15ThemeDownloaderP9GuiButtoniRK6_POINTNS_15single_threadedEEE+8@l
 7022              		.loc 1 1780 0
 7023 0054 93630008 		stw 27,8(3)
 7024              		.loc 1 1778 0
 7025 0058 90030000 		stw 0,0(3)
 7026              	.LBE4722:
 7027              	.LBE4721:
 7028              		.loc 1 2314 0
 7029 005c 7C7D1B78 		mr 29,3
 7030              	.LVL507:
 7031              	.LBB4724:
 7032              	.LBB4723:
 7033              		.loc 1 1780 0
 7034 0060 9383000C 		stw 28,12(3)
 7035              	.LVL508:
