	.file	"ThreadedTaskHandler.cpp"
	.section	".text"
.Ltext0:
	.section	.text._ZN6Thread11startThreadEv,"axG",@progbits,_ZN6Thread11startThreadEv,comdat
	.align 2
	.weak	_ZN6Thread11startThreadEv
	.type	_ZN6Thread11startThreadEv, @function
_ZN6Thread11startThreadEv:
.LFB761:
	.file 1 "d:/Projects/SaveGameManager/savegame-manager-gx/trunk/source/Controls/Thread.h"
	.loc 1 48 0
	.cfi_startproc
.LVL0:
	mflr 0
	stwu 1,-8(1)
.LCFI0:
	.cfi_def_cfa_offset 8
	.cfi_register 65, 0
	lwz 9,0(3)
	stw 0,12(1)
	.loc 1 48 0
	lwz 0,24(9)
	.cfi_offset 65, 4
	mtctr 0
	bctrl
.LVL1:
	lwz 0,12(1)
	addi 1,1,8
.LCFI1:
	.cfi_def_cfa_offset 0
	mtlr 0
	blr
	.cfi_endproc
.LFE761:
	.size	_ZN6Thread11startThreadEv, .-_ZN6Thread11startThreadEv
	.section	.text._ZNK6Thread9getThreadEv,"axG",@progbits,_ZNK6Thread9getThreadEv,comdat
	.align 2
	.weak	_ZNK6Thread9getThreadEv
	.type	_ZNK6Thread9getThreadEv, @function
_ZNK6Thread9getThreadEv:
.LFB762:
	.loc 1 50 0
	.cfi_startproc
.LVL2:
	.loc 1 50 0
	lwz 3,4(3)
.LVL3:
	blr
	.cfi_endproc
.LFE762:
	.size	_ZNK6Thread9getThreadEv, .-_ZNK6Thread9getThreadEv
	.section	.text._ZN6Thread14threadCallbackEPv,"axG",@progbits,_ZN6Thread14threadCallbackEPv,comdat
	.align 2
	.weak	_ZN6Thread14threadCallbackEPv
	.type	_ZN6Thread14threadCallbackEPv, @function
_ZN6Thread14threadCallbackEPv:
.LFB768:
	.loc 1 78 0
	.cfi_startproc
.LVL4:
	mflr 0
	stwu 1,-16(1)
.LCFI2:
	.cfi_def_cfa_offset 16
	.cfi_register 65, 0
	stw 31,12(1)
	mr 31,3
	.cfi_offset 31, -4
	stw 0,20(1)
	.loc 1 81 0
	lwz 9,0(3)
	lwz 0,20(9)
	.cfi_offset 65, 4
	mtctr 0
	bctrl
.LVL5:
	.loc 1 83 0
	lwz 9,0(31)
	mr 3,31
	lwz 0,16(9)
	mtctr 0
	bctrl
	.loc 1 85 0
	lwz 0,20(1)
	lwz 31,12(1)
.LVL6:
	li 3,0
	mtlr 0
	addi 1,1,16
.LCFI3:
	.cfi_def_cfa_offset 0
	.cfi_restore 31
	blr
	.cfi_endproc
.LFE768:
	.size	_ZN6Thread14threadCallbackEPv, .-_ZN6Thread14threadCallbackEPv
	.section	".text"
	.align 2
	.globl _ZN19ThreadedTaskHandler13executeThreadEv
	.type	_ZN19ThreadedTaskHandler13executeThreadEv, @function
_ZN19ThreadedTaskHandler13executeThreadEv:
.LFB789:
	.file 2 "d:/Projects/SaveGameManager/savegame-manager-gx/trunk/source/Controls/ThreadedTaskHandler.cpp"
	.loc 2 36 0
	.cfi_startproc
.LVL7:
	mflr 0
	stwu 1,-16(1)
.LCFI4:
	.cfi_def_cfa_offset 16
	.cfi_register 65, 0
	stw 30,8(1)
	.loc 2 43 0
	lis 30,.LC0@ha
	.cfi_offset 30, -8
	.loc 2 36 0
	stw 0,20(1)
	.loc 2 43 0
	la 30,.LC0@l(30)
	.loc 2 36 0
	stw 31,12(1)
	.loc 2 36 0
	mr 31,3
	.cfi_offset 31, -4
	.cfi_offset 65, 4
	lbz 0,12(3)
	cmpwi 7,0,0
.LVL8:
.L12:
	.loc 2 37 0 discriminator 1
	bne- 7,.L21
.L14:
	.loc 2 39 0
	lwz 9,0(31)
	mr 3,31
	lwz 0,20(9)
	mtctr 0
	bctrl
.L17:
	.loc 2 41 0 discriminator 1
	lbz 0,12(31)
	.loc 2 43 0 discriminator 1
	mr 3,30
	.loc 2 41 0 discriminator 1
	cmpwi 7,0,0
	bne- 7,.L12
.LVL9:
	.loc 2 41 0 is_stmt 0 discriminator 2
	lwz 9,40(31)
	lwz 0,24(31)
	cmpw 7,9,0
	beq- 7,.L14
	.loc 2 43 0 is_stmt 1 discriminator 5
	crxor 6,6,6
	bl gprintf
.LVL10:
	.loc 2 44 0 discriminator 5
	lwz 9,24(31)
	lwz 3,0(9)
	lwz 9,0(3)
	lwz 0,8(9)
	mtctr 0
	bctrl
.LVL11:
.LBB797:
.LBB798:
.LBB799:
	.file 3 "d:\\devkitpro\\devkitppc\\bin\\../lib/gcc/powerpc-eabi/4.6.3/../../../../powerpc-eabi/include/c++/4.6.3/bits/stl_deque.h"
	.loc 3 1395 0 discriminator 5
	lwz 11,32(31)
	lwz 9,24(31)
	addi 0,11,-4
	cmpw 7,9,0
	.loc 3 1399 0 discriminator 5
	addi 9,9,4
	.loc 3 1395 0 discriminator 5
	beq- 7,.L22
.LBB800:
.LBB801:
	.file 4 "d:\\devkitpro\\devkitppc\\bin\\../lib/gcc/powerpc-eabi/4.6.3/../../../../powerpc-eabi/include/c++/4.6.3/bits/deque.tcc"
	.loc 4 505 0
	stw 9,24(31)
	b .L17
.L22:
.LVL12:
.LBB802:
.LBB803:
.LBB804:
	.file 5 "d:\\devkitpro\\devkitppc\\bin\\../lib/gcc/powerpc-eabi/4.6.3/../../../../powerpc-eabi/include/c++/4.6.3/ext/new_allocator.h"
	.loc 5 98 0
	lwz 3,28(31)
	bl _ZdlPv
.LVL13:
.LBE804:
.LBE803:
.LBE802:
	.loc 4 504 0
	lwz 9,36(31)
.LVL14:
	addi 0,9,4
.LBB805:
.LBB806:
	.loc 3 235 0
	stw 0,36(31)
	.loc 3 236 0
	lwz 9,4(9)
	.loc 3 237 0
	addi 0,9,512
	.loc 3 236 0
	stw 9,28(31)
.LVL15:
	.loc 3 237 0
	stw 0,32(31)
.LBE806:
.LBE805:
	.loc 4 505 0
	stw 9,24(31)
	b .L17
.LVL16:
.L21:
.LBE801:
.LBE800:
.LBE799:
.LBE798:
.LBE797:
	.loc 2 48 0
	lwz 0,20(1)
	lwz 30,8(1)
	mtlr 0
	lwz 31,12(1)
.LVL17:
	addi 1,1,16
.LCFI5:
	.cfi_def_cfa_offset 0
	.cfi_restore 31
	.cfi_restore 30
	blr
	.cfi_endproc
.LFE789:
	.size	_ZN19ThreadedTaskHandler13executeThreadEv, .-_ZN19ThreadedTaskHandler13executeThreadEv
	.section	.text._ZN6Thread14shutdownThreadEv,"axG",@progbits,_ZN6Thread14shutdownThreadEv,comdat
	.align 2
	.weak	_ZN6Thread14shutdownThreadEv
	.type	_ZN6Thread14shutdownThreadEv, @function
_ZN6Thread14shutdownThreadEv:
.LFB767:
	.loc 1 62 0
	.cfi_startproc
.LVL18:
	mflr 0
	stwu 1,-16(1)
.LCFI6:
	.cfi_def_cfa_offset 16
	.cfi_register 65, 0
	stw 31,12(1)
	mr 31,3
	.cfi_offset 31, -4
	stw 0,20(1)
	.loc 1 65 0
	lwz 0,4(3)
	.cfi_offset 65, 4
	cmpwi 7,0,-1
	beq- 7,.L24
	.loc 1 67 0
	lwz 9,0(3)
	lwz 0,24(9)
	mtctr 0
	bctrl
.LVL19:
	.loc 1 68 0
	lwz 3,4(31)
	li 4,0
	bl LWP_JoinThread
.L24:
	.loc 1 71 0
	lwz 3,8(31)
	cmpwi 7,3,0
	beq- 7,.L25
	.loc 1 72 0
	bl free
.L25:
	.loc 1 74 0
	li 0,-1
	stw 0,4(31)
	.loc 1 75 0
	li 0,0
	stw 0,8(31)
	.loc 1 76 0
	lwz 0,20(1)
	lwz 31,12(1)
.LVL20:
	mtlr 0
	addi 1,1,16
.LCFI7:
	.cfi_def_cfa_offset 0
	.cfi_restore 31
	blr
	.cfi_endproc
.LFE767:
	.size	_ZN6Thread14shutdownThreadEv, .-_ZN6Thread14shutdownThreadEv
	.section	.text._ZN6Thread17setThreadPriorityEi,"axG",@progbits,_ZN6Thread17setThreadPriorityEi,comdat
	.align 2
	.weak	_ZN6Thread17setThreadPriorityEi
	.type	_ZN6Thread17setThreadPriorityEi, @function
_ZN6Thread17setThreadPriorityEi:
.LFB765:
	.loc 1 58 0
	.cfi_startproc
.LVL21:
	mflr 0
	stwu 1,-8(1)
.LCFI8:
	.cfi_def_cfa_offset 8
	.cfi_register 65, 0
	stw 0,12(1)
	.loc 1 58 0
	lwz 3,4(3)
.LVL22:
	cmpwi 7,3,-1
	beq- 7,.L26
	.cfi_offset 65, 4
	.loc 1 58 0 is_stmt 0 discriminator 1
	bl LWP_SetThreadPriority
.LVL23:
.L26:
	.loc 1 58 0
	lwz 0,12(1)
	addi 1,1,8
.LCFI9:
	.cfi_def_cfa_offset 0
	mtlr 0
	blr
	.cfi_endproc
.LFE765:
	.size	_ZN6Thread17setThreadPriorityEi, .-_ZN6Thread17setThreadPriorityEi
	.section	.text._ZNK6Thread15isThreadRunningEv,"axG",@progbits,_ZNK6Thread15isThreadRunningEv,comdat
	.align 2
	.weak	_ZNK6Thread15isThreadRunningEv
	.type	_ZNK6Thread15isThreadRunningEv, @function
_ZNK6Thread15isThreadRunningEv:
.LFB766:
	.loc 1 60 0 is_stmt 1
	.cfi_startproc
.LVL24:
	mflr 0
	stwu 1,-8(1)
.LCFI10:
	.cfi_def_cfa_offset 8
	.cfi_register 65, 0
	stw 0,12(1)
	.loc 1 60 0
	lwz 0,4(3)
	.cfi_offset 65, 4
	li 3,0
.LVL25:
	cmpwi 7,0,-1
	beq- 7,.L29
.LBB809:
.LBB810:
	mr 3,0
	bl LWP_ThreadIsSuspended
	cntlzw 3,3
	srwi 3,3,5
.L29:
.LBE810:
.LBE809:
	lwz 0,12(1)
	addi 1,1,8
.LCFI11:
	.cfi_def_cfa_offset 0
	mtlr 0
	blr
	.cfi_endproc
.LFE766:
	.size	_ZNK6Thread15isThreadRunningEv, .-_ZNK6Thread15isThreadRunningEv
	.section	.text._ZN6Thread12resumeThreadEv,"axG",@progbits,_ZN6Thread12resumeThreadEv,comdat
	.align 2
	.weak	_ZN6Thread12resumeThreadEv
	.type	_ZN6Thread12resumeThreadEv, @function
_ZN6Thread12resumeThreadEv:
.LFB764:
	.loc 1 56 0
	.cfi_startproc
.LVL26:
	mflr 0
	stwu 1,-8(1)
.LCFI12:
	.cfi_def_cfa_offset 8
	.cfi_register 65, 0
	stw 0,12(1)
	.loc 1 56 0
	lwz 3,4(3)
.LVL27:
	cmpwi 7,3,-1
	beq- 7,.L31
	.cfi_offset 65, 4
.LBB813:
.LBB814:
	bl LWP_ResumeThread
.L31:
.LBE814:
.LBE813:
	lwz 0,12(1)
	addi 1,1,8
.LCFI13:
	.cfi_def_cfa_offset 0
	mtlr 0
	blr
	.cfi_endproc
.LFE764:
	.size	_ZN6Thread12resumeThreadEv, .-_ZN6Thread12resumeThreadEv
	.section	.text._ZN6Thread13suspendThreadEv,"axG",@progbits,_ZN6Thread13suspendThreadEv,comdat
	.align 2
	.weak	_ZN6Thread13suspendThreadEv
	.type	_ZN6Thread13suspendThreadEv, @function
_ZN6Thread13suspendThreadEv:
.LFB763:
	.loc 1 54 0
	.cfi_startproc
.LVL28:
	mflr 0
	stwu 1,-8(1)
.LCFI14:
	.cfi_def_cfa_offset 8
	.cfi_register 65, 0
	stw 0,12(1)
	.loc 1 54 0
	lwz 3,4(3)
.LVL29:
	cmpwi 7,3,-1
	beq- 7,.L33
	.cfi_offset 65, 4
.LBB817:
.LBB818:
	bl LWP_SuspendThread
.L33:
.LBE818:
.LBE817:
	lwz 0,12(1)
	addi 1,1,8
.LCFI15:
	.cfi_def_cfa_offset 0
	mtlr 0
	blr
	.cfi_endproc
.LFE763:
	.size	_ZN6Thread13suspendThreadEv, .-_ZN6Thread13suspendThreadEv
	.section	.text._ZN6ThreadD2Ev,"axG",@progbits,_ZN6ThreadD5Ev,comdat
	.align 2
	.weak	_ZN6ThreadD2Ev
	.type	_ZN6ThreadD2Ev, @function
_ZN6ThreadD2Ev:
.LFB758:
	.loc 1 45 0
	.cfi_startproc
.LVL30:
	mflr 0
	stwu 1,-16(1)
.LCFI16:
	.cfi_def_cfa_offset 16
	.cfi_register 65, 0
.LBB822:
	lis 9,_ZTV6Thread+8@ha
.LBE822:
	stw 31,12(1)
	mr 31,3
	.cfi_offset 31, -4
	stw 0,20(1)
.LBB827:
.LBB823:
.LBB824:
	.loc 1 65 0
	lwz 0,4(3)
	.cfi_offset 65, 4
	cmpwi 7,0,-1
.LBE824:
.LBE823:
	.loc 1 45 0
	la 0,_ZTV6Thread+8@l(9)
	stw 0,0(3)
.LVL31:
.LBB826:
.LBB825:
	.loc 1 65 0
	beq- 7,.L36
	.loc 1 67 0
	bl _ZN6Thread12resumeThreadEv
.LVL32:
	.loc 1 68 0
	lwz 3,4(31)
	li 4,0
	bl LWP_JoinThread
.L36:
	.loc 1 71 0
	lwz 3,8(31)
	cmpwi 7,3,0
	beq- 7,.L37
	.loc 1 72 0
	bl free
.L37:
	.loc 1 74 0
	li 0,-1
	stw 0,4(31)
	.loc 1 75 0
	li 0,0
	stw 0,8(31)
.LBE825:
.LBE826:
.LBE827:
	.loc 1 45 0
	lwz 0,20(1)
	lwz 31,12(1)
.LVL33:
	mtlr 0
	addi 1,1,16
.LCFI17:
	.cfi_def_cfa_offset 0
	.cfi_restore 31
	blr
	.cfi_endproc
.LFE758:
	.size	_ZN6ThreadD2Ev, .-_ZN6ThreadD2Ev
	.section	.text._ZN6ThreadD0Ev,"axG",@progbits,_ZN6ThreadD5Ev,comdat
	.align 2
	.weak	_ZN6ThreadD0Ev
	.type	_ZN6ThreadD0Ev, @function
_ZN6ThreadD0Ev:
.LFB760:
	.loc 1 45 0
	.cfi_startproc
.LVL34:
	mflr 0
	stwu 1,-16(1)
.LCFI18:
	.cfi_def_cfa_offset 16
	.cfi_register 65, 0
.LBB833:
.LBB834:
.LBB835:
	lis 9,_ZTV6Thread+8@ha
.LBE835:
.LBE834:
.LBE833:
	stw 31,12(1)
	mr 31,3
	.cfi_offset 31, -4
.LVL35:
	stw 0,20(1)
.LBB846:
.LBB844:
.LBB842:
.LBB836:
.LBB837:
	.loc 1 65 0
	lwz 0,4(3)
	.cfi_offset 65, 4
	cmpwi 7,0,-1
.LBE837:
.LBE836:
	.loc 1 45 0
	la 0,_ZTV6Thread+8@l(9)
	stw 0,0(3)
.LVL36:
.LBB840:
.LBB838:
	.loc 1 65 0
	beq- 7,.L40
.LVL37:
	.loc 1 67 0
	bl _ZN6Thread12resumeThreadEv
.LVL38:
	.loc 1 68 0
	lwz 3,4(31)
	li 4,0
	bl LWP_JoinThread
.L40:
	.loc 1 71 0
	lwz 3,8(31)
	cmpwi 7,3,0
	beq- 7,.L41
	.loc 1 72 0
	bl free
.L41:
	.loc 1 74 0
	li 0,-1
.LBE838:
.LBE840:
.LBE842:
.LBE844:
.LBE846:
	.loc 1 45 0
	mr 3,31
.LBB847:
.LBB845:
.LBB843:
.LBB841:
.LBB839:
	.loc 1 74 0
	stw 0,4(31)
	.loc 1 75 0
	li 0,0
	stw 0,8(31)
.LBE839:
.LBE841:
.LBE843:
.LBE845:
.LBE847:
	.loc 1 45 0
	bl _ZdlPv
	lwz 0,20(1)
	lwz 31,12(1)
.LVL39:
	mtlr 0
	addi 1,1,16
.LCFI19:
	.cfi_def_cfa_offset 0
	.cfi_restore 31
	blr
	.cfi_endproc
.LFE760:
	.size	_ZN6ThreadD0Ev, .-_ZN6ThreadD0Ev
	.section	".text"
	.align 2
	.globl _ZN19ThreadedTaskHandlerD0Ev
	.type	_ZN19ThreadedTaskHandlerD0Ev, @function
_ZN19ThreadedTaskHandlerD0Ev:
.LFB788:
	.loc 2 30 0
	.cfi_startproc
.LVL40:
	mflr 0
	stwu 1,-24(1)
.LCFI20:
	.cfi_def_cfa_offset 24
	.cfi_register 65, 0
.LBB882:
.LBB883:
.LBB884:
	lis 9,_ZTV19ThreadedTaskHandler+8@ha
.LBE884:
.LBE883:
.LBE882:
	stw 31,20(1)
	mr 31,3
	.cfi_offset 31, -4
.LVL41:
	stw 0,28(1)
.LBB939:
.LBB935:
.LBB931:
	la 0,_ZTV19ThreadedTaskHandler+8@l(9)
	.cfi_offset 65, 4
.LBE931:
.LBE935:
.LBE939:
	stw 29,12(1)
.LBB940:
.LBB936:
.LBB932:
.LBB885:
.LBB886:
.LBB887:
.LBB888:
.LBB889:
.LBB890:
.LBB891:
	.loc 3 555 0
	lwz 3,16(3)
.LVL42:
.LBE891:
.LBE890:
.LBE889:
.LBE888:
.LBE887:
.LBE886:
.LBE885:
.LBE932:
.LBE936:
.LBE940:
	.loc 2 30 0
	stw 30,16(1)
.LBB941:
.LBB937:
.LBB933:
.LBB915:
.LBB913:
.LBB911:
.LBB909:
.LBB907:
.LBB905:
.LBB903:
	.loc 3 555 0
	cmpwi 7,3,0
.LBE903:
.LBE905:
.LBE907:
.LBE909:
.LBE911:
.LBE913:
.LBE915:
	.loc 2 30 0
	stw 0,0(31)
	.loc 2 32 0
	li 0,1
	stb 0,12(31)
.LVL43:
.LBB916:
.LBB914:
.LBB912:
.LBB910:
.LBB908:
.LBB906:
.LBB904:
	.loc 3 555 0
	beq- 7,.L54
	.cfi_offset 30, -8
	.cfi_offset 29, -12
	.loc 3 557 0
	lwz 29,52(31)
	lwz 30,36(31)
	addi 29,29,4
.LVL44:
.LBB892:
.LBB893:
	.loc 3 633 0
	cmplw 7,30,29
	bge- 7,.L46
.LVL45:
.L60:
.LBB894:
.LBB895:
.LBB896:
	.loc 5 98 0
	lwz 3,0(30)
.LBE896:
.LBE895:
.LBE894:
	.loc 3 633 0
	addi 30,30,4
.LVL46:
.LBB899:
.LBB898:
.LBB897:
	.loc 5 98 0
	bl _ZdlPv
.LVL47:
.LBE897:
.LBE898:
.LBE899:
	.loc 3 633 0
	cmplw 7,29,30
	bgt+ 7,.L60
	lwz 3,16(31)
.LVL48:
.L46:
.LBE893:
.LBE892:
.LBB900:
.LBB901:
.LBB902:
	.loc 5 98 0
	bl _ZdlPv
.LVL49:
.L54:
.LBE902:
.LBE901:
.LBE900:
.LBE904:
.LBE906:
.LBE908:
.LBE910:
.LBE912:
.LBE914:
.LBE916:
.LBB917:
.LBB918:
.LBB919:
.LBB920:
.LBB921:
	.loc 1 65 0
	lwz 0,4(31)
.LBE921:
.LBE920:
	.loc 1 45 0
	lis 9,_ZTV6Thread+8@ha
.LBB925:
.LBB922:
	.loc 1 65 0
	cmpwi 7,0,-1
.LBE922:
.LBE925:
	.loc 1 45 0
	la 0,_ZTV6Thread+8@l(9)
	stw 0,0(31)
.LVL50:
.LBB926:
.LBB923:
	.loc 1 65 0
	beq- 7,.L55
	.loc 1 67 0
	mr 3,31
	bl _ZN6Thread12resumeThreadEv
	.loc 1 68 0
	lwz 3,4(31)
	li 4,0
	bl LWP_JoinThread
.L55:
	.loc 1 71 0
	lwz 3,8(31)
	cmpwi 7,3,0
	beq- 7,.L56
	.loc 1 72 0
	bl free
.L56:
	.loc 1 74 0
	li 0,-1
.LBE923:
.LBE926:
.LBE919:
.LBE918:
.LBE917:
.LBE933:
.LBE937:
.LBE941:
	.loc 2 33 0
	mr 3,31
.LBB942:
.LBB938:
.LBB934:
.LBB930:
.LBB929:
.LBB928:
.LBB927:
.LBB924:
	.loc 1 74 0
	stw 0,4(31)
	.loc 1 75 0
	li 0,0
	stw 0,8(31)
.LBE924:
.LBE927:
.LBE928:
.LBE929:
.LBE930:
.LBE934:
.LBE938:
.LBE942:
	.loc 2 33 0
	bl _ZdlPv
	lwz 0,28(1)
	lwz 29,12(1)
	mtlr 0
	lwz 30,16(1)
	lwz 31,20(1)
.LVL51:
	addi 1,1,24
.LCFI21:
	.cfi_def_cfa_offset 0
	.cfi_restore 31
	.cfi_restore 30
	.cfi_restore 29
	blr
	.cfi_endproc
.LFE788:
	.size	_ZN19ThreadedTaskHandlerD0Ev, .-_ZN19ThreadedTaskHandlerD0Ev
	.align 2
	.globl _ZN19ThreadedTaskHandlerD2Ev
	.type	_ZN19ThreadedTaskHandlerD2Ev, @function
_ZN19ThreadedTaskHandlerD2Ev:
.LFB786:
	.loc 2 30 0
	.cfi_startproc
.LVL52:
	mflr 0
	stwu 1,-24(1)
.LCFI22:
	.cfi_def_cfa_offset 24
	.cfi_register 65, 0
.LBB975:
	lis 9,_ZTV19ThreadedTaskHandler+8@ha
.LBE975:
	stw 31,20(1)
	mr 31,3
	.cfi_offset 31, -4
	stw 0,28(1)
.LBB1022:
	la 0,_ZTV19ThreadedTaskHandler+8@l(9)
	.cfi_offset 65, 4
.LBE1022:
	stw 29,12(1)
.LBB1023:
.LBB976:
.LBB977:
.LBB978:
.LBB979:
.LBB980:
.LBB981:
.LBB982:
	.loc 3 555 0
	lwz 3,16(3)
.LVL53:
.LBE982:
.LBE981:
.LBE980:
.LBE979:
.LBE978:
.LBE977:
.LBE976:
.LBE1023:
	.loc 2 30 0
	stw 30,16(1)
.LBB1024:
.LBB1006:
.LBB1004:
.LBB1002:
.LBB1000:
.LBB998:
.LBB996:
.LBB994:
	.loc 3 555 0
	cmpwi 7,3,0
.LBE994:
.LBE996:
.LBE998:
.LBE1000:
.LBE1002:
.LBE1004:
.LBE1006:
	.loc 2 30 0
	stw 0,0(31)
	.loc 2 32 0
	li 0,1
	stb 0,12(31)
.LVL54:
.LBB1007:
.LBB1005:
.LBB1003:
.LBB1001:
.LBB999:
.LBB997:
.LBB995:
	.loc 3 555 0
	beq- 7,.L72
	.cfi_offset 30, -8
	.cfi_offset 29, -12
	.loc 3 557 0
	lwz 29,52(31)
	lwz 30,36(31)
	addi 29,29,4
.LVL55:
.LBB983:
.LBB984:
	.loc 3 633 0
	cmplw 7,30,29
	bge- 7,.L64
.LVL56:
.L77:
.LBB985:
.LBB986:
.LBB987:
	.loc 5 98 0
	lwz 3,0(30)
.LBE987:
.LBE986:
.LBE985:
	.loc 3 633 0
	addi 30,30,4
.LVL57:
.LBB990:
.LBB989:
.LBB988:
	.loc 5 98 0
	bl _ZdlPv
.LVL58:
.LBE988:
.LBE989:
.LBE990:
	.loc 3 633 0
	cmplw 7,29,30
	bgt+ 7,.L77
	lwz 3,16(31)
.LVL59:
.L64:
.LBE984:
.LBE983:
.LBB991:
.LBB992:
.LBB993:
	.loc 5 98 0
	bl _ZdlPv
.LVL60:
.L72:
.LBE993:
.LBE992:
.LBE991:
.LBE995:
.LBE997:
.LBE999:
.LBE1001:
.LBE1003:
.LBE1005:
.LBE1007:
.LBB1008:
.LBB1009:
.LBB1010:
.LBB1011:
.LBB1012:
	.loc 1 65 0
	lwz 0,4(31)
.LBE1012:
.LBE1011:
	.loc 1 45 0
	lis 9,_ZTV6Thread+8@ha
.LBB1016:
.LBB1013:
	.loc 1 65 0
	cmpwi 7,0,-1
.LBE1013:
.LBE1016:
	.loc 1 45 0
	la 0,_ZTV6Thread+8@l(9)
	stw 0,0(31)
.LVL61:
.LBB1017:
.LBB1014:
	.loc 1 65 0
	beq- 7,.L73
	.loc 1 67 0
	mr 3,31
	bl _ZN6Thread12resumeThreadEv
	.loc 1 68 0
	lwz 3,4(31)
	li 4,0
	bl LWP_JoinThread
.L73:
	.loc 1 71 0
	lwz 3,8(31)
	cmpwi 7,3,0
	beq- 7,.L74
	.loc 1 72 0
	bl free
.L74:
	.loc 1 74 0
	li 0,-1
.LBE1014:
.LBE1017:
.LBE1010:
.LBE1009:
.LBE1008:
.LBE1024:
	.loc 2 33 0
	lwz 29,12(1)
.LBB1025:
.LBB1021:
.LBB1020:
.LBB1019:
.LBB1018:
.LBB1015:
	.loc 1 74 0
	stw 0,4(31)
	.loc 1 75 0
	li 0,0
	stw 0,8(31)
.LBE1015:
.LBE1018:
.LBE1019:
.LBE1020:
.LBE1021:
.LBE1025:
	.loc 2 33 0
	lwz 0,28(1)
	lwz 30,16(1)
	mtlr 0
	lwz 31,20(1)
.LVL62:
	addi 1,1,24
.LCFI23:
	.cfi_def_cfa_offset 0
	.cfi_restore 31
	.cfi_restore 30
	.cfi_restore 29
	blr
	.cfi_endproc
.LFE786:
	.size	_ZN19ThreadedTaskHandlerD2Ev, .-_ZN19ThreadedTaskHandlerD2Ev
	.section	.text._ZNSt11_Deque_baseIP12ThreadedTaskSaIS1_EED2Ev,"axG",@progbits,_ZNSt11_Deque_baseIP12ThreadedTaskSaIS1_EED5Ev,comdat
	.align 2
	.weak	_ZNSt11_Deque_baseIP12ThreadedTaskSaIS1_EED2Ev
	.type	_ZNSt11_Deque_baseIP12ThreadedTaskSaIS1_EED2Ev, @function
_ZNSt11_Deque_baseIP12ThreadedTaskSaIS1_EED2Ev:
.LFB814:
	.loc 3 552 0
	.cfi_startproc
.LVL63:
	mflr 0
	stwu 1,-24(1)
.LCFI24:
	.cfi_def_cfa_offset 24
	.cfi_register 65, 0
	stw 29,12(1)
	mr 29,3
	.cfi_offset 29, -12
	stw 0,28(1)
	stw 30,16(1)
.LBB1045:
	.loc 3 555 0
	lwz 3,0(3)
.LVL64:
.LBE1045:
	.loc 3 552 0
	stw 31,20(1)
.LBB1057:
	.loc 3 555 0
	cmpwi 7,3,0
	beq- 7,.L79
	.cfi_offset 31, -4
	.cfi_offset 30, -8
	.cfi_offset 65, 4
	.loc 3 557 0
	lwz 30,36(29)
	lwz 31,20(29)
	addi 30,30,4
.LVL65:
.LBB1046:
.LBB1047:
	.loc 3 633 0
	cmplw 7,31,30
	bge- 7,.L81
.LVL66:
.L88:
.LBB1048:
.LBB1049:
.LBB1050:
	.loc 5 98 0
	lwz 3,0(31)
.LBE1050:
.LBE1049:
.LBE1048:
	.loc 3 633 0
	addi 31,31,4
.LVL67:
.LBB1053:
.LBB1052:
.LBB1051:
	.loc 5 98 0
	bl _ZdlPv
.LVL68:
.LBE1051:
.LBE1052:
.LBE1053:
	.loc 3 633 0
	cmplw 7,30,31
	bgt+ 7,.L88
	lwz 3,0(29)
.LVL69:
.L81:
.LBE1047:
.LBE1046:
.LBB1054:
.LBB1055:
.LBB1056:
	.loc 5 98 0
	bl _ZdlPv
.LVL70:
.L79:
.LBE1056:
.LBE1055:
.LBE1054:
.LBE1057:
	.loc 3 561 0
	lwz 0,28(1)
	lwz 29,12(1)
.LVL71:
	mtlr 0
	lwz 30,16(1)
	lwz 31,20(1)
	addi 1,1,24
.LCFI25:
	.cfi_def_cfa_offset 0
	.cfi_restore 31
	.cfi_restore 30
	.cfi_restore 29
	blr
	.cfi_endproc
.LFE814:
	.size	_ZNSt11_Deque_baseIP12ThreadedTaskSaIS1_EED2Ev, .-_ZNSt11_Deque_baseIP12ThreadedTaskSaIS1_EED2Ev
	.section	.text._ZNSt11_Deque_baseIP12ThreadedTaskSaIS1_EE17_M_initialize_mapEj,"axG",@progbits,_ZNSt11_Deque_baseIP12ThreadedTaskSaIS1_EE17_M_initialize_mapEj,comdat
	.align 2
	.weak	_ZNSt11_Deque_baseIP12ThreadedTaskSaIS1_EE17_M_initialize_mapEj
	.type	_ZNSt11_Deque_baseIP12ThreadedTaskSaIS1_EE17_M_initialize_mapEj, @function
_ZNSt11_Deque_baseIP12ThreadedTaskSaIS1_EE17_M_initialize_mapEj:
.LFB838:
	.loc 3 573 0
	.cfi_startproc
	.cfi_personality 0,__gxx_personality_v0
	.cfi_lsda 0,.LLSDA838
.LVL72:
	stwu 1,-48(1)
.LCFI26:
	.cfi_def_cfa_offset 48
	mflr 0
	stw 31,44(1)
.LBB1058:
	.loc 3 577 0
	srwi 31,4,7
	.cfi_offset 31, -4
	.cfi_register 65, 0
.LBE1058:
	.loc 3 573 0
	stw 0,52(1)
.LBB1102:
	.loc 3 579 0
	addi 0,31,3
	.cfi_offset 65, 4
	.loc 3 577 0
	cmplwi 7,0,8
.LBE1102:
	.loc 3 573 0
	stw 26,24(1)
	stw 29,36(1)
	mr 26,4
	.cfi_offset 29, -12
	.cfi_offset 26, -24
	stw 25,20(1)
	mr 29,3
	stw 27,28(1)
.LBB1103:
	.loc 3 577 0
	addi 31,31,1
.LVL73:
.LBE1103:
	.loc 3 573 0
	stw 28,32(1)
	stw 30,40(1)
.LBB1104:
	.loc 3 577 0
	bge- 7,.L91
	.cfi_offset 30, -8
	.cfi_offset 28, -16
	.cfi_offset 27, -20
	.cfi_offset 25, -28
	li 0,8
.L91:
	.loc 3 579 0
	stw 0,4(29)
.LVL74:
.LBB1059:
.LBB1060:
.LBB1061:
	.loc 5 92 0
	slwi 3,0,2
.LVL75:
.LBE1061:
.LBE1060:
.LBE1059:
	.loc 3 590 0
	slwi 30,31,2
.LEHB0:
.LBB1066:
.LBB1064:
.LBB1062:
	.loc 5 92 0
	bl _Znwj
.LEHE0:
.LVL76:
.LBE1062:
.LBE1064:
.LBE1066:
	.loc 3 589 0
	lwz 25,4(29)
.LBB1067:
.LBB1065:
.LBB1063:
	.loc 5 92 0
	mr 27,3
.LBE1063:
.LBE1065:
.LBE1067:
	.loc 3 581 0
	stw 3,0(29)
	.loc 3 589 0
	subf 31,31,25
.LVL77:
	rlwinm 25,31,1,0,29
	add 28,3,25
.LVL78:
	.loc 3 590 0
	add 30,28,30
.LVL79:
.LBB1068:
.LBB1069:
	.loc 3 618 0
	cmplw 7,28,30
	bge- 7,.L94
	mr 31,28
.LVL80:
.L95:
.LBB1070:
.LBB1071:
.LBB1072:
	.loc 5 92 0
	li 3,512
.LEHB1:
	bl _Znwj
.LEHE1:
.LBE1072:
.LBE1071:
.LBE1070:
	.loc 3 619 0
	stw 3,0(31)
	.loc 3 618 0
	addi 31,31,4
.LVL81:
	cmplw 7,30,31
	bgt+ 7,.L95
.LVL82:
.L94:
.LBE1069:
.LBE1068:
.LBB1082:
.LBB1083:
	.loc 3 235 0
	stw 28,20(29)
.LBE1083:
.LBE1082:
	.loc 3 603 0
	addi 0,30,-4
	.loc 3 605 0
	rlwinm 26,26,2,23,29
.LVL83:
.LBE1104:
	.loc 3 608 0
	lwz 28,32(1)
.LVL84:
.LBB1105:
.LBB1086:
.LBB1084:
	.loc 3 236 0
	lwzx 11,27,25
.LBE1084:
.LBE1086:
.LBB1087:
.LBB1088:
	.loc 3 235 0
	stw 0,36(29)
.LBE1088:
.LBE1087:
.LBB1093:
.LBB1085:
	.loc 3 237 0
	addi 0,11,512
	.loc 3 236 0
	stw 11,12(29)
.LVL85:
	.loc 3 237 0
	stw 0,16(29)
.LVL86:
.LBE1085:
.LBE1093:
.LBE1105:
	.loc 3 608 0
	lwz 25,20(1)
.LBB1106:
.LBB1094:
.LBB1089:
	.loc 3 236 0
	lwz 9,-4(30)
.LBE1089:
.LBE1094:
.LBE1106:
	.loc 3 608 0
	lwz 27,28(1)
.LBB1107:
.LBB1095:
.LBB1090:
	.loc 3 237 0
	addi 0,9,512
.LBE1090:
.LBE1095:
	.loc 3 605 0
	add 26,9,26
.LBB1096:
.LBB1091:
	.loc 3 237 0
	stw 0,32(29)
.LBE1091:
.LBE1096:
.LBE1107:
	.loc 3 608 0
	lwz 0,52(1)
.LBB1108:
	.loc 3 605 0
	stw 26,24(29)
.LBE1108:
	.loc 3 608 0
	mtlr 0
.LBB1109:
	.loc 3 604 0
	stw 11,8(29)
.LBB1097:
.LBB1092:
	.loc 3 236 0
	stw 9,28(29)
.LVL87:
.LBE1092:
.LBE1097:
.LBE1109:
	.loc 3 608 0
	lwz 26,24(1)
	lwz 29,36(1)
.LVL88:
	lwz 30,40(1)
.LVL89:
	lwz 31,44(1)
	addi 1,1,48
	.cfi_remember_state
.LCFI27:
	.cfi_def_cfa_offset 0
	.cfi_restore 31
	.cfi_restore 30
	.cfi_restore 29
	.cfi_restore 28
	.cfi_restore 27
	.cfi_restore 26
	.cfi_restore 25
	blr
.LVL90:
.L104:
.LCFI28:
	.cfi_restore_state
.LBB1110:
.LBB1098:
.LBB1081:
	.loc 3 621 0
	bl __cxa_begin_catch
.LVL91:
.LBB1073:
.LBB1074:
	.loc 3 633 0
	cmplw 7,28,31
	bge- 7,.L99
.LVL92:
.L106:
.LBB1075:
.LBB1076:
.LBB1077:
	.loc 5 98 0
	lwz 3,0(28)
.LBE1077:
.LBE1076:
.LBE1075:
	.loc 3 633 0
	addi 28,28,4
.LVL93:
.LBB1080:
.LBB1079:
.LBB1078:
	.loc 5 98 0
	bl _ZdlPv
.LVL94:
.LBE1078:
.LBE1079:
.LBE1080:
	.loc 3 633 0
	cmplw 7,31,28
	bgt+ 7,.L106
.LVL95:
.L99:
.LEHB2:
.LBE1074:
.LBE1073:
	.loc 3 624 0
	bl __cxa_rethrow
.LEHE2:
.L105:
	.loc 3 621 0
	stw 3,8(1)
	bl __cxa_end_catch
.LBE1081:
.LBE1098:
	.loc 3 594 0
	lwz 3,8(1)
	bl __cxa_begin_catch
.LVL96:
.LBB1099:
.LBB1100:
.LBB1101:
	.loc 5 98 0
	lwz 3,0(29)
	bl _ZdlPv
.LVL97:
.LBE1101:
.LBE1100:
.LBE1099:
	.loc 3 597 0
	li 0,0
	stw 0,0(29)
	.loc 3 598 0
	stw 0,4(29)
.LEHB3:
	.loc 3 599 0
	bl __cxa_rethrow
.LEHE3:
.L103:
	.loc 3 594 0
	stw 3,8(1)
	bl __cxa_end_catch
	lwz 3,8(1)
.LEHB4:
	bl _Unwind_Resume
.LEHE4:
.LBE1110:
	.cfi_endproc
.LFE838:
	.globl __gxx_personality_v0
	.section	.gcc_except_table,"a",@progbits
	.align 2
.LLSDA838:
	.byte	0xff
	.byte	0
	.uleb128 .LLSDATT838-.LLSDATTD838
.LLSDATTD838:
	.byte	0x1
	.uleb128 .LLSDACSE838-.LLSDACSB838
.LLSDACSB838:
	.uleb128 .LEHB0-.LFB838
	.uleb128 .LEHE0-.LEHB0
	.uleb128 0
	.uleb128 0
	.uleb128 .LEHB1-.LFB838
	.uleb128 .LEHE1-.LEHB1
	.uleb128 .L104-.LFB838
	.uleb128 0x1
	.uleb128 .LEHB2-.LFB838
	.uleb128 .LEHE2-.LEHB2
	.uleb128 .L105-.LFB838
	.uleb128 0x3
	.uleb128 .LEHB3-.LFB838
	.uleb128 .LEHE3-.LEHB3
	.uleb128 .L103-.LFB838
	.uleb128 0
	.uleb128 .LEHB4-.LFB838
	.uleb128 .LEHE4-.LEHB4
	.uleb128 0
	.uleb128 0
.LLSDACSE838:
	.byte	0x1
	.byte	0
	.byte	0
	.byte	0x7d
	.align 2
	.long	0
.LLSDATT838:
	.section	.text._ZNSt11_Deque_baseIP12ThreadedTaskSaIS1_EE17_M_initialize_mapEj,"axG",@progbits,_ZNSt11_Deque_baseIP12ThreadedTaskSaIS1_EE17_M_initialize_mapEj,comdat
	.size	_ZNSt11_Deque_baseIP12ThreadedTaskSaIS1_EE17_M_initialize_mapEj, .-_ZNSt11_Deque_baseIP12ThreadedTaskSaIS1_EE17_M_initialize_mapEj
	.section	".text"
	.align 2
	.globl _ZN19ThreadedTaskHandlerC2Ev
	.type	_ZN19ThreadedTaskHandlerC2Ev, @function
_ZN19ThreadedTaskHandlerC2Ev:
.LFB783:
	.loc 2 23 0
	.cfi_startproc
	.cfi_personality 0,__gxx_personality_v0
	.cfi_lsda 0,.LLSDA783
.LVL98:
	mflr 0
	stwu 1,-80(1)
.LCFI29:
	.cfi_def_cfa_offset 80
	.cfi_register 65, 0
.LBB1208:
.LBB1209:
.LBB1210:
	.loc 1 33 0
	lis 4,0x1
.LBE1210:
.LBE1209:
.LBE1208:
	.loc 2 23 0
	stw 30,72(1)
.LBB1393:
.LBB1220:
.LBB1215:
	.loc 1 30 0
	lis 30,_ZTV6Thread+8@ha
	.cfi_offset 30, -8
.LBE1215:
.LBE1220:
.LBE1393:
	.loc 2 23 0
	stw 0,84(1)
.LBB1394:
.LBB1221:
.LBB1216:
	.loc 1 30 0
	li 0,-1
	.cfi_offset 65, 4
.LBE1216:
.LBE1221:
.LBE1394:
	.loc 2 23 0
	stw 31,76(1)
.LBB1395:
.LBB1222:
.LBB1217:
	.loc 1 30 0
	la 30,_ZTV6Thread+8@l(30)
.LBE1217:
.LBE1222:
.LBE1395:
	.loc 2 23 0
	stw 27,60(1)
	mr 31,3
	.cfi_offset 27, -20
	.cfi_offset 31, -4
.LVL99:
	stw 28,64(1)
.LBB1396:
.LBB1223:
.LBB1218:
	.loc 1 33 0
	ori 4,4,1024
.LBE1218:
.LBE1223:
.LBE1396:
	.loc 2 23 0
	stw 29,68(1)
.LBB1397:
.LBB1224:
.LBB1219:
	.loc 1 30 0
	stw 0,4(3)
	li 0,0
	stw 30,0(3)
	stw 0,8(3)
	.loc 1 33 0
	li 3,32
.LVL100:
.LEHB5:
	.cfi_offset 29, -12
	.cfi_offset 28, -16
	bl memalign
	.loc 1 35 0
	cmpwi 7,3,0
	.loc 1 33 0
	mr 6,3
	stw 3,8(31)
	.loc 1 35 0
	beq- 7,.L110
	.loc 1 38 0
	lis 4,_ZN6Thread14threadCallbackEPv@ha
	lis 7,0x1
	addi 3,31,4
	la 4,_ZN6Thread14threadCallbackEPv@l(4)
	mr 5,31
	ori 7,7,1024
	li 8,80
	bl LWP_CreateThread
.LVL101:
.L111:
	.loc 1 40 0
	li 3,1000
	bl usleep
.LVL102:
.LBB1211:
.LBB1212:
	.loc 1 60 0
	lwz 3,4(31)
	cmpwi 7,3,-1
	beq- 7,.L110
.LBB1213:
.LBB1214:
	bl LWP_ThreadIsSuspended
.LEHE5:
.LBE1214:
.LBE1213:
.LBE1212:
.LBE1211:
	.loc 1 40 0
	cmpwi 7,3,0
	beq+ 7,.L111
.LVL103:
.L110:
.LBE1219:
.LBE1224:
	.loc 2 25 0
	lis 9,_ZTV19ThreadedTaskHandler+8@ha
.LBB1225:
.LBB1226:
.LBB1227:
	.loc 3 452 0
	addi 3,1,8
.LBE1227:
.LBE1226:
.LBE1225:
	.loc 2 25 0
	la 0,_ZTV19ThreadedTaskHandler+8@l(9)
.LBB1238:
.LBB1236:
.LBB1234:
	.loc 3 452 0
	li 4,0
.LBE1234:
.LBE1236:
.LBE1238:
	.loc 2 25 0
	stw 0,0(31)
	li 0,0
	stb 0,12(31)
.LVL104:
.LBB1239:
.LBB1237:
.LBB1235:
.LBB1228:
.LBB1229:
	.loc 3 501 0
	li 0,0
	stw 0,8(1)
	stw 0,12(1)
.LVL105:
.LBB1230:
.LBB1231:
	.loc 3 132 0
	stw 0,16(1)
	stw 0,20(1)
	stw 0,24(1)
	stw 0,28(1)
.LVL106:
.LBE1231:
.LBE1230:
.LBB1232:
.LBB1233:
	stw 0,32(1)
	stw 0,36(1)
	stw 0,40(1)
	stw 0,44(1)
.LEHB6:
.LBE1233:
.LBE1232:
.LBE1229:
.LBE1228:
	.loc 3 452 0
	bl _ZNSt11_Deque_baseIP12ThreadedTaskSaIS1_EE17_M_initialize_mapEj
.LEHE6:
.LVL107:
.LBE1235:
.LBE1237:
.LBE1239:
.LBB1240:
.LBB1241:
.LBB1242:
.LBB1243:
.LBB1244:
.LBB1245:
.LBB1246:
	.loc 3 336 0
	lwz 0,28(1)
.LBE1246:
.LBE1245:
.LBE1244:
.LBE1243:
.LBB1256:
.LBB1257:
.LBB1258:
.LBB1259:
	.loc 3 506 0
	li 9,0
.LBE1259:
.LBE1258:
.LBE1257:
.LBE1256:
.LBB1270:
.LBB1253:
.LBB1250:
.LBB1247:
	.loc 3 336 0
	lwz 4,44(1)
.LBE1247:
.LBE1250:
.LBE1253:
.LBE1270:
	.loc 3 831 0
	addi 29,31,16
.LVL108:
.LBB1271:
.LBB1254:
.LBB1251:
.LBB1248:
	.loc 3 336 0
	lwz 11,32(1)
.LBE1248:
.LBE1251:
.LBE1254:
.LBE1271:
.LBB1272:
.LBB1268:
	.loc 3 460 0
	mr 3,29
.LBE1268:
.LBE1272:
.LBB1273:
.LBB1255:
.LBB1252:
.LBB1249:
	.loc 3 336 0
	subf 4,0,4
	lwz 0,36(1)
	srawi 4,4,2
	lwz 10,24(1)
	subf 11,0,11
	lwz 0,16(1)
	addi 4,4,-1
	srawi 11,11,2
	slwi 4,4,7
	subf 0,0,10
	add 4,4,11
	srawi 0,0,2
.LVL109:
.LBE1249:
.LBE1252:
.LBE1255:
.LBE1273:
.LBB1274:
.LBB1269:
.LBB1266:
.LBB1264:
	.loc 3 506 0
	stw 9,16(31)
.LBE1264:
.LBE1266:
	.loc 3 460 0
	add 4,4,0
.LVL110:
.LBB1267:
.LBB1265:
	.loc 3 506 0
	stw 9,20(31)
.LVL111:
.LBB1260:
.LBB1261:
	.loc 3 132 0
	stw 9,24(31)
	stw 9,28(31)
	stw 9,32(31)
	stw 9,36(31)
.LVL112:
.LBE1261:
.LBE1260:
.LBB1262:
.LBB1263:
	stw 9,40(31)
	stw 9,44(31)
	stw 9,48(31)
	stw 9,52(31)
.LEHB7:
.LBE1263:
.LBE1262:
.LBE1265:
.LBE1267:
	.loc 3 460 0
	bl _ZNSt11_Deque_baseIP12ThreadedTaskSaIS1_EE17_M_initialize_mapEj
.LEHE7:
.LVL113:
.LBE1269:
.LBE1274:
.LBB1275:
.LBB1276:
.LBB1277:
	.loc 3 136 0
	lwz 7,28(1)
.LBE1277:
.LBE1276:
.LBE1275:
.LBB1282:
.LBB1283:
.LBB1284:
.LBB1285:
.LBB1286:
.LBB1287:
.LBB1288:
.LBB1289:
.LBB1290:
.LBB1291:
.LBB1292:
.LBB1293:
.LBB1294:
	.loc 3 336 0
	lwz 8,44(1)
	lwz 0,36(1)
	subf 8,7,8
	lwz 11,32(1)
.LBE1294:
.LBE1293:
.LBE1292:
.LBE1291:
.LBE1290:
.LBE1289:
.LBE1288:
.LBE1287:
.LBE1286:
.LBE1285:
.LBE1284:
.LBE1283:
.LBE1282:
.LBB1353:
.LBB1280:
.LBB1278:
	.loc 3 136 0
	lwz 9,16(1)
.LVL114:
.LBE1278:
.LBE1280:
.LBE1353:
.LBB1354:
.LBB1349:
.LBB1345:
.LBB1341:
.LBB1337:
.LBB1333:
.LBB1329:
.LBB1325:
.LBB1321:
.LBB1317:
.LBB1313:
.LBB1297:
.LBB1295:
	.loc 3 336 0
	srawi 8,8,2
.LBE1295:
.LBE1297:
.LBE1313:
.LBE1317:
.LBE1321:
.LBE1325:
.LBE1329:
.LBE1333:
.LBE1337:
.LBE1341:
.LBE1345:
.LBE1349:
.LBE1354:
.LBB1355:
.LBB1281:
.LBB1279:
	.loc 3 136 0
	lwz 10,24(1)
.LBE1279:
.LBE1281:
.LBE1355:
.LBB1356:
.LBB1350:
.LBB1346:
.LBB1342:
.LBB1338:
.LBB1334:
.LBB1330:
.LBB1326:
.LBB1322:
.LBB1318:
.LBB1314:
.LBB1298:
.LBB1296:
	.loc 3 336 0
	subf 11,0,11
	addi 8,8,-1
	srawi 11,11,2
	slwi 8,8,7
	subf 0,9,10
	add 11,8,11
	srawi 0,0,2
.LBE1296:
.LBE1298:
	.file 6 "d:\\devkitpro\\devkitppc\\bin\\../lib/gcc/powerpc-eabi/4.6.3/../../../../powerpc-eabi/include/c++/4.6.3/bits/stl_algobase.h"
	.loc 6 327 0
	add. 0,11,0
.LBE1314:
.LBE1318:
.LBE1322:
.LBE1326:
.LBE1330:
.LBE1334:
.LBE1338:
.LBE1342:
.LBE1346:
.LBE1350:
.LBE1356:
.LBB1357:
.LBB1358:
	.loc 3 136 0
	lwz 8,32(31)
	lwz 11,24(31)
	lwz 6,36(31)
.LVL115:
.LBE1358:
.LBE1357:
.LBB1359:
.LBB1351:
.LBB1347:
.LBB1343:
.LBB1339:
.LBB1335:
.LBB1331:
.LBB1327:
.LBB1323:
.LBB1319:
.LBB1315:
	.loc 6 327 0
	ble- 0,.L112
	mtctr 0
.LVL116:
.L136:
	.loc 6 329 0
	lwz 0,0(9)
.LBB1299:
.LBB1300:
	.loc 3 149 0
	addi 9,9,4
.LVL117:
	.loc 3 150 0
	cmpw 7,9,10
.LBE1300:
.LBE1299:
	.loc 6 329 0
	stw 0,0(11)
.LVL118:
.LBB1305:
.LBB1303:
	.loc 3 150 0
	beq- 7,.L141
.L113:
.LBE1303:
.LBE1305:
.LBB1306:
.LBB1307:
	.loc 3 149 0
	addi 11,11,4
	.loc 3 150 0
	cmpw 7,11,8
	beq- 7,.L142
.LBE1307:
.LBE1306:
	.loc 6 327 0
	bdnz .L136
.LVL119:
.L112:
.LBE1315:
.LBE1319:
.LBE1323:
.LBE1327:
.LBE1331:
.LBE1335:
.LBE1339:
.LBE1343:
.LBE1347:
.LBE1351:
.LBE1359:
.LBE1242:
.LBE1241:
.LBE1240:
.LBB1363:
.LBB1364:
.LBB1365:
.LBB1366:
.LBB1367:
	.loc 3 555 0
	lwz 3,8(1)
	cmpwi 7,3,0
	beq- 7,.L124
	.loc 3 557 0
	lwz 27,44(1)
	lwz 28,28(1)
	addi 27,27,4
.LVL120:
.LBB1368:
.LBB1369:
	.loc 3 633 0
	cmplw 7,28,27
	bge- 7,.L117
.LVL121:
.L135:
.LBB1370:
.LBB1371:
.LBB1372:
	.loc 5 98 0
	lwz 3,0(28)
.LBE1372:
.LBE1371:
.LBE1370:
	.loc 3 633 0
	addi 28,28,4
.LVL122:
.LBB1375:
.LBB1374:
.LBB1373:
	.loc 5 98 0
	bl _ZdlPv
.LVL123:
.LBE1373:
.LBE1374:
.LBE1375:
	.loc 3 633 0
	cmplw 7,27,28
	bgt+ 7,.L135
	lwz 3,8(1)
.LVL124:
.L117:
.LBE1369:
.LBE1368:
.LBB1376:
.LBB1377:
.LBB1378:
	.loc 5 98 0
	bl _ZdlPv
.LVL125:
.L124:
.LBE1378:
.LBE1377:
.LBE1376:
.LBE1367:
.LBE1366:
.LBE1365:
.LBE1364:
.LBE1363:
.LBB1379:
.LBB1380:
	.loc 1 48 0 discriminator 2
	lwz 9,0(31)
	mr 3,31
	lwz 0,24(9)
	mtctr 0
.LEHB8:
	bctrl
.LEHE8:
.LBE1380:
.LBE1379:
.LBE1397:
	.loc 2 28 0
	lwz 0,84(1)
	lwz 27,60(1)
	mtlr 0
	lwz 28,64(1)
	lwz 29,68(1)
	lwz 30,72(1)
	lwz 31,76(1)
.LVL126:
	addi 1,1,80
	.cfi_remember_state
.LCFI30:
	.cfi_def_cfa_offset 0
	.cfi_restore 31
	.cfi_restore 30
	.cfi_restore 29
	.cfi_restore 28
	.cfi_restore 27
	blr
.LVL127:
.L142:
.LCFI31:
	.cfi_restore_state
.LBB1398:
.LBB1381:
.LBB1362:
.LBB1361:
.LBB1360:
.LBB1352:
.LBB1348:
.LBB1344:
.LBB1340:
.LBB1336:
.LBB1332:
.LBB1328:
.LBB1324:
.LBB1320:
.LBB1316:
.LBB1311:
.LBB1310:
.LBB1308:
.LBB1309:
	.loc 3 236 0
	lwz 11,4(6)
	.loc 3 235 0
	addi 6,6,4
.LVL128:
	.loc 3 237 0
	addi 8,11,512
.LBE1309:
.LBE1308:
.LBE1310:
.LBE1311:
	.loc 6 327 0
	bdnz .L136
	b .L112
.LVL129:
.L141:
.LBB1312:
.LBB1304:
.LBB1301:
.LBB1302:
	.loc 3 236 0
	lwz 9,4(7)
.LVL130:
	.loc 3 235 0
	addi 7,7,4
.LVL131:
	.loc 3 237 0
	addi 10,9,512
.LVL132:
	b .L113
.LVL133:
.L132:
	mr 29,3
.L127:
.LVL134:
.LBE1302:
.LBE1301:
.LBE1304:
.LBE1312:
.LBE1316:
.LBE1320:
.LBE1324:
.LBE1328:
.LBE1332:
.LBE1336:
.LBE1340:
.LBE1344:
.LBE1348:
.LBE1352:
.LBE1360:
.LBE1361:
.LBE1362:
.LBE1381:
.LBB1382:
.LBB1383:
.LBB1384:
	.loc 1 45 0
	stw 30,0(31)
	mr 3,31
	bl _ZN6Thread14shutdownThreadEv
	mr 3,29
.LEHB9:
	bl _Unwind_Resume
.LEHE9:
.LVL135:
.L134:
	mr 28,3
.LVL136:
.LBE1384:
.LBE1383:
.LBE1382:
.LBB1385:
.LBB1386:
.LBB1387:
.LBB1388:
.LBB1389:
	.loc 3 898 0
	mr 3,29
	bl _ZNSt11_Deque_baseIP12ThreadedTaskSaIS1_EED2Ev
	mr 29,28
	b .L127
.LVL137:
.L133:
	mr 29,3
.LVL138:
.LBE1389:
.LBE1388:
.LBE1387:
.LBE1386:
.LBE1385:
.LBB1390:
.LBB1391:
.LBB1392:
	addi 3,1,8
.LVL139:
	bl _ZNSt11_Deque_baseIP12ThreadedTaskSaIS1_EED2Ev
.LVL140:
	b .L127
.LBE1392:
.LBE1391:
.LBE1390:
.LBE1398:
	.cfi_endproc
.LFE783:
	.section	.gcc_except_table
.LLSDA783:
	.byte	0xff
	.byte	0xff
	.byte	0x1
	.uleb128 .LLSDACSE783-.LLSDACSB783
.LLSDACSB783:
	.uleb128 .LEHB5-.LFB783
	.uleb128 .LEHE5-.LEHB5
	.uleb128 0
	.uleb128 0
	.uleb128 .LEHB6-.LFB783
	.uleb128 .LEHE6-.LEHB6
	.uleb128 .L132-.LFB783
	.uleb128 0
	.uleb128 .LEHB7-.LFB783
	.uleb128 .LEHE7-.LEHB7
	.uleb128 .L133-.LFB783
	.uleb128 0
	.uleb128 .LEHB8-.LFB783
	.uleb128 .LEHE8-.LEHB8
	.uleb128 .L134-.LFB783
	.uleb128 0
	.uleb128 .LEHB9-.LFB783
	.uleb128 .LEHE9-.LEHB9
	.uleb128 0
	.uleb128 0
.LLSDACSE783:
	.section	".text"
	.size	_ZN19ThreadedTaskHandlerC2Ev, .-_ZN19ThreadedTaskHandlerC2Ev
	.weak	_ZTS19ThreadedTaskHandler
	.section	.rodata._ZTS19ThreadedTaskHandler,"aG",@progbits,_ZTS19ThreadedTaskHandler,comdat
	.align 2
	.type	_ZTS19ThreadedTaskHandler, @object
	.size	_ZTS19ThreadedTaskHandler, 22
_ZTS19ThreadedTaskHandler:
	.string	"19ThreadedTaskHandler"
	.weak	_ZTI19ThreadedTaskHandler
	.section	.rodata._ZTI19ThreadedTaskHandler,"aG",@progbits,_ZTI19ThreadedTaskHandler,comdat
	.align 2
	.type	_ZTI19ThreadedTaskHandler, @object
	.size	_ZTI19ThreadedTaskHandler, 12
_ZTI19ThreadedTaskHandler:
	.long	_ZTVN10__cxxabiv120__si_class_type_infoE+8
	.long	_ZTS19ThreadedTaskHandler
	.long	_ZTI6Thread
	.weak	_ZTV19ThreadedTaskHandler
	.section	.rodata._ZTV19ThreadedTaskHandler,"aG",@progbits,_ZTV19ThreadedTaskHandler,comdat
	.align 3
	.type	_ZTV19ThreadedTaskHandler, @object
	.size	_ZTV19ThreadedTaskHandler, 48
_ZTV19ThreadedTaskHandler:
	.long	0
	.long	_ZTI19ThreadedTaskHandler
	.long	_ZN19ThreadedTaskHandlerD1Ev
	.long	_ZN19ThreadedTaskHandlerD0Ev
	.long	_ZN6Thread11startThreadEv
	.long	_ZNK6Thread9getThreadEv
	.long	_ZN19ThreadedTaskHandler13executeThreadEv
	.long	_ZN6Thread13suspendThreadEv
	.long	_ZN6Thread12resumeThreadEv
	.long	_ZN6Thread17setThreadPriorityEi
	.long	_ZNK6Thread15isThreadRunningEv
	.long	_ZN6Thread14shutdownThreadEv
	.globl _ZN19ThreadedTaskHandler8instanceE
	.weak	_ZTV6Thread
	.section	.rodata._ZTV6Thread,"aG",@progbits,_ZTV6Thread,comdat
	.align 3
	.type	_ZTV6Thread, @object
	.size	_ZTV6Thread, 48
_ZTV6Thread:
	.long	0
	.long	_ZTI6Thread
	.long	_ZN6ThreadD1Ev
	.long	_ZN6ThreadD0Ev
	.long	_ZN6Thread11startThreadEv
	.long	_ZNK6Thread9getThreadEv
	.long	__cxa_pure_virtual
	.long	_ZN6Thread13suspendThreadEv
	.long	_ZN6Thread12resumeThreadEv
	.long	_ZN6Thread17setThreadPriorityEi
	.long	_ZNK6Thread15isThreadRunningEv
	.long	_ZN6Thread14shutdownThreadEv
	.weak	_ZTI6Thread
	.section	.sdata._ZTI6Thread,"awG",@progbits,_ZTI6Thread,comdat
	.align 2
	.type	_ZTI6Thread, @object
	.size	_ZTI6Thread, 8
_ZTI6Thread:
	.long	_ZTVN10__cxxabiv117__class_type_infoE+8
	.long	_ZTS6Thread
	.weak	_ZTS6Thread
	.section	.sdata._ZTS6Thread,"awG",@progbits,_ZTS6Thread,comdat
	.align 2
	.type	_ZTS6Thread, @object
	.size	_ZTS6Thread, 8
_ZTS6Thread:
	.string	"6Thread"
	.weak	_ZN6ThreadD1Ev
	.set	_ZN6ThreadD1Ev,_ZN6ThreadD2Ev
	.globl _ZN19ThreadedTaskHandlerD1Ev
	.set	_ZN19ThreadedTaskHandlerD1Ev,_ZN19ThreadedTaskHandlerD2Ev
	.weak	_ZNSt11_Deque_baseIP12ThreadedTaskSaIS1_EED1Ev
	.set	_ZNSt11_Deque_baseIP12ThreadedTaskSaIS1_EED1Ev,_ZNSt11_Deque_baseIP12ThreadedTaskSaIS1_EED2Ev
	.globl _ZN19ThreadedTaskHandlerC1Ev
	.set	_ZN19ThreadedTaskHandlerC1Ev,_ZN19ThreadedTaskHandlerC2Ev
	.section	.rodata.str1.4,"aMS",@progbits,1
	.align 2
.LC0:
	.string	"\n\tThreadedTaskHandler::execute() TaskList.front"
	.section	.sbss,"aw",@nobits
	.align 2
	.type	_ZN19ThreadedTaskHandler8instanceE, @object
	.size	_ZN19ThreadedTaskHandler8instanceE, 4
_ZN19ThreadedTaskHandler8instanceE:
	.zero	4
	.section	".text"
.Letext0:
	.file 7 "d:\\devkitpro\\devkitppc\\bin\\../lib/gcc/powerpc-eabi/4.6.3/../../../../powerpc-eabi/include/stdint.h"
	.file 8 "d:/devkitPro/libogc/include/gctypes.h"
	.file 9 "d:/devkitPro/libogc/include/ogc/lwp.h"
	.file 10 "d:/devkitPro/libogc/include/ogc/gx.h"
	.file 11 "d:\\devkitpro\\devkitppc\\bin\\../lib/gcc/powerpc-eabi/4.6.3/../../../../powerpc-eabi/include/c++/4.6.3/powerpc-eabi/bits/c++config.h"
	.file 12 "d:\\devkitpro\\devkitppc\\bin\\../lib/gcc/powerpc-eabi/4.6.3/../../../../powerpc-eabi/include/c++/4.6.3/bits/cpp_type_traits.h"
	.file 13 "d:\\devkitpro\\devkitppc\\bin\\../lib/gcc/powerpc-eabi/4.6.3/../../../../powerpc-eabi/include/c++/4.6.3/bits/stl_uninitialized.h"
	.file 14 "d:\\devkitpro\\devkitppc\\bin\\../lib/gcc/powerpc-eabi/4.6.3/../../../../powerpc-eabi/include/c++/4.6.3/debug/debug.h"
	.file 15 "d:\\devkitpro\\devkitppc\\bin\\../lib/gcc/powerpc-eabi/4.6.3/../../../../powerpc-eabi/include/c++/4.6.3/ext/numeric_traits.h"
	.file 16 "d:/Projects/SaveGameManager/savegame-manager-gx/trunk/source/Controls/ThreadedTaskHandler.hpp"
	.file 17 "d:\\devkitpro\\devkitppc\\bin\\../lib/gcc/powerpc-eabi/4.6.3/../../../../powerpc-eabi/include/c++/4.6.3/bits/allocator.h"
	.file 18 "d:\\devkitpro\\devkitppc\\bin\\../lib/gcc/powerpc-eabi/4.6.3/../../../../powerpc-eabi/include/c++/4.6.3/bits/stl_queue.h"
	.file 19 "d:\\devkitpro\\devkitppc\\bin\\../lib/gcc/powerpc-eabi/4.6.3/../../../../powerpc-eabi/include/c++/4.6.3/bits/stl_iterator_base_types.h"
	.file 20 "<built-in>"