   1              		.file	"tinyxmlparser.cpp"
   2              		.section	".text"
   3              	.Ltext0:
   4              		.section	.text._ZN9TiXmlBaseD2Ev,"axG",@progbits,_ZN9TiXmlBaseD5Ev,comdat
   5              		.align 2
   6              		.weak	_ZN9TiXmlBaseD2Ev
   7              		.type	_ZN9TiXmlBaseD2Ev, @function
   8              	_ZN9TiXmlBaseD2Ev:
   9              	.LFB1000:
  10              		.file 1 "d:/Projects/SaveGameManager/savegame-manager-gx/trunk/source/XML/tinyxml.h"
  11              		.loc 1 204 0
  12              		.cfi_startproc
  13              	.LVL0:
  14              	.LBB864:
  15              		.loc 1 204 0
  16 0000 3D200000 		lis 9,_ZTV9TiXmlBase+8@ha
  17              	.LBE864:
  18              	.LBB865:
  19 0004 38090008 		la 0,_ZTV9TiXmlBase+8@l(9)
  20 0008 90030000 		stw 0,0(3)
  21              	.LBE865:
  22 000c 4E800020 		blr
  23              		.cfi_endproc
  24              	.LFE1000:
  25              		.size	_ZN9TiXmlBaseD2Ev, .-_ZN9TiXmlBaseD2Ev
  26              		.section	.text._ZNK9TiXmlNode9ToElementEv,"axG",@progbits,_ZNK9TiXmlNode9ToElementEv,comdat
  27              		.align 2
  28              		.weak	_ZNK9TiXmlNode9ToElementEv
  29              		.type	_ZNK9TiXmlNode9ToElementEv, @function
  30              	_ZNK9TiXmlNode9ToElementEv:
  31              	.LFB1057:
  32              		.loc 1 700 0
  33              		.cfi_startproc
  34              	.LVL1:
  35              		.loc 1 700 0
  36 0000 38600000 		li 3,0
  37              	.LVL2:
  38 0004 4E800020 		blr
  39              		.cfi_endproc
  40              	.LFE1057:
  41              		.size	_ZNK9TiXmlNode9ToElementEv, .-_ZNK9TiXmlNode9ToElementEv
  42              		.section	.text._ZNK9TiXmlNode9ToCommentEv,"axG",@progbits,_ZNK9TiXmlNode9ToCommentEv,comdat
  43              		.align 2
  44              		.weak	_ZNK9TiXmlNode9ToCommentEv
  45              		.type	_ZNK9TiXmlNode9ToCommentEv, @function
  46              	_ZNK9TiXmlNode9ToCommentEv:
  47              	.LFB1058:
  48              		.loc 1 701 0
  49              		.cfi_startproc
  50              	.LVL3:
  51              		.loc 1 701 0
  52 0000 38600000 		li 3,0
  53              	.LVL4:
  54 0004 4E800020 		blr
  55              		.cfi_endproc
  56              	.LFE1058:
  57              		.size	_ZNK9TiXmlNode9ToCommentEv, .-_ZNK9TiXmlNode9ToCommentEv
  58              		.section	.text._ZNK9TiXmlNode9ToUnknownEv,"axG",@progbits,_ZNK9TiXmlNode9ToUnknownEv,comdat
  59              		.align 2
  60              		.weak	_ZNK9TiXmlNode9ToUnknownEv
  61              		.type	_ZNK9TiXmlNode9ToUnknownEv, @function
  62              	_ZNK9TiXmlNode9ToUnknownEv:
  63              	.LFB1059:
  64              		.loc 1 702 0
  65              		.cfi_startproc
  66              	.LVL5:
  67              		.loc 1 702 0
  68 0000 38600000 		li 3,0
  69              	.LVL6:
  70 0004 4E800020 		blr
  71              		.cfi_endproc
  72              	.LFE1059:
  73              		.size	_ZNK9TiXmlNode9ToUnknownEv, .-_ZNK9TiXmlNode9ToUnknownEv
  74              		.section	.text._ZNK9TiXmlNode6ToTextEv,"axG",@progbits,_ZNK9TiXmlNode6ToTextEv,comdat
  75              		.align 2
  76              		.weak	_ZNK9TiXmlNode6ToTextEv
  77              		.type	_ZNK9TiXmlNode6ToTextEv, @function
  78              	_ZNK9TiXmlNode6ToTextEv:
  79              	.LFB1060:
  80              		.loc 1 703 0
  81              		.cfi_startproc
  82              	.LVL7:
  83              		.loc 1 703 0
  84 0000 38600000 		li 3,0
  85              	.LVL8:
  86 0004 4E800020 		blr
  87              		.cfi_endproc
  88              	.LFE1060:
  89              		.size	_ZNK9TiXmlNode6ToTextEv, .-_ZNK9TiXmlNode6ToTextEv
  90              		.section	.text._ZNK9TiXmlNode13ToDeclarationEv,"axG",@progbits,_ZNK9TiXmlNode13ToDeclarationEv,com
  91              		.align 2
  92              		.weak	_ZNK9TiXmlNode13ToDeclarationEv
  93              		.type	_ZNK9TiXmlNode13ToDeclarationEv, @function
  94              	_ZNK9TiXmlNode13ToDeclarationEv:
  95              	.LFB1061:
  96              		.loc 1 704 0
  97              		.cfi_startproc
  98              	.LVL9:
  99              		.loc 1 704 0
 100 0000 38600000 		li 3,0
 101              	.LVL10:
 102 0004 4E800020 		blr
 103              		.cfi_endproc
 104              	.LFE1061:
 105              		.size	_ZNK9TiXmlNode13ToDeclarationEv, .-_ZNK9TiXmlNode13ToDeclarationEv
 106              		.section	.text._ZN9TiXmlNode9ToElementEv,"axG",@progbits,_ZN9TiXmlNode9ToElementEv,comdat
 107              		.align 2
 108              		.weak	_ZN9TiXmlNode9ToElementEv
 109              		.type	_ZN9TiXmlNode9ToElementEv, @function
 110              	_ZN9TiXmlNode9ToElementEv:
 111              	.LFB1063:
 112              		.loc 1 707 0
 113              		.cfi_startproc
 114              	.LVL11:
 115              		.loc 1 707 0
 116 0000 38600000 		li 3,0
 117              	.LVL12:
 118 0004 4E800020 		blr
 119              		.cfi_endproc
 120              	.LFE1063:
 121              		.size	_ZN9TiXmlNode9ToElementEv, .-_ZN9TiXmlNode9ToElementEv
 122              		.section	.text._ZN9TiXmlNode9ToCommentEv,"axG",@progbits,_ZN9TiXmlNode9ToCommentEv,comdat
 123              		.align 2
 124              		.weak	_ZN9TiXmlNode9ToCommentEv
 125              		.type	_ZN9TiXmlNode9ToCommentEv, @function
 126              	_ZN9TiXmlNode9ToCommentEv:
 127              	.LFB1064:
 128              		.loc 1 708 0
 129              		.cfi_startproc
 130              	.LVL13:
 131              		.loc 1 708 0
 132 0000 38600000 		li 3,0
 133              	.LVL14:
 134 0004 4E800020 		blr
 135              		.cfi_endproc
 136              	.LFE1064:
 137              		.size	_ZN9TiXmlNode9ToCommentEv, .-_ZN9TiXmlNode9ToCommentEv
 138              		.section	.text._ZN9TiXmlNode9ToUnknownEv,"axG",@progbits,_ZN9TiXmlNode9ToUnknownEv,comdat
 139              		.align 2
 140              		.weak	_ZN9TiXmlNode9ToUnknownEv
 141              		.type	_ZN9TiXmlNode9ToUnknownEv, @function
 142              	_ZN9TiXmlNode9ToUnknownEv:
 143              	.LFB1065:
 144              		.loc 1 709 0
 145              		.cfi_startproc
 146              	.LVL15:
 147              		.loc 1 709 0
 148 0000 38600000 		li 3,0
 149              	.LVL16:
 150 0004 4E800020 		blr
 151              		.cfi_endproc
 152              	.LFE1065:
 153              		.size	_ZN9TiXmlNode9ToUnknownEv, .-_ZN9TiXmlNode9ToUnknownEv
 154              		.section	.text._ZN9TiXmlNode6ToTextEv,"axG",@progbits,_ZN9TiXmlNode6ToTextEv,comdat
 155              		.align 2
 156              		.weak	_ZN9TiXmlNode6ToTextEv
 157              		.type	_ZN9TiXmlNode6ToTextEv, @function
 158              	_ZN9TiXmlNode6ToTextEv:
 159              	.LFB1066:
 160              		.loc 1 710 0
 161              		.cfi_startproc
 162              	.LVL17:
 163              		.loc 1 710 0
 164 0000 38600000 		li 3,0
 165              	.LVL18:
 166 0004 4E800020 		blr
 167              		.cfi_endproc
 168              	.LFE1066:
 169              		.size	_ZN9TiXmlNode6ToTextEv, .-_ZN9TiXmlNode6ToTextEv
 170              		.section	.text._ZN9TiXmlNode13ToDeclarationEv,"axG",@progbits,_ZN9TiXmlNode13ToDeclarationEv,comda
 171              		.align 2
 172              		.weak	_ZN9TiXmlNode13ToDeclarationEv
 173              		.type	_ZN9TiXmlNode13ToDeclarationEv, @function
 174              	_ZN9TiXmlNode13ToDeclarationEv:
 175              	.LFB1067:
 176              		.loc 1 711 0
 177              		.cfi_startproc
 178              	.LVL19:
 179              		.loc 1 711 0
 180 0000 38600000 		li 3,0
 181              	.LVL20:
 182 0004 4E800020 		blr
 183              		.cfi_endproc
 184              	.LFE1067:
 185              		.size	_ZN9TiXmlNode13ToDeclarationEv, .-_ZN9TiXmlNode13ToDeclarationEv
 186              		.section	.text._ZNK13TiXmlDocument10ToDocumentEv,"axG",@progbits,_ZNK13TiXmlDocument10ToDocumentEv
 187              		.align 2
 188              		.weak	_ZNK13TiXmlDocument10ToDocumentEv
 189              		.type	_ZNK13TiXmlDocument10ToDocumentEv, @function
 190              	_ZNK13TiXmlDocument10ToDocumentEv:
 191              	.LFB1180:
 192              		.loc 1 1534 0
 193              		.cfi_startproc
 194              	.LVL21:
 195              		.loc 1 1534 0
 196 0000 4E800020 		blr
 197              		.cfi_endproc
 198              	.LFE1180:
 199              		.size	_ZNK13TiXmlDocument10ToDocumentEv, .-_ZNK13TiXmlDocument10ToDocumentEv
 200              		.section	.text._ZN13TiXmlDocument10ToDocumentEv,"axG",@progbits,_ZN13TiXmlDocument10ToDocumentEv,c
 201              		.align 2
 202              		.weak	_ZN13TiXmlDocument10ToDocumentEv
 203              		.type	_ZN13TiXmlDocument10ToDocumentEv, @function
 204              	_ZN13TiXmlDocument10ToDocumentEv:
 205              	.LFB1181:
 206              		.loc 1 1535 0
 207              		.cfi_startproc
 208              	.LVL22:
 209              		.loc 1 1535 0
 210 0000 4E800020 		blr
 211              		.cfi_endproc
 212              	.LFE1181:
 213              		.size	_ZN13TiXmlDocument10ToDocumentEv, .-_ZN13TiXmlDocument10ToDocumentEv
 214              		.section	.text._ZN9TiXmlBaseD0Ev,"axG",@progbits,_ZN9TiXmlBaseD5Ev,comdat
 215              		.align 2
 216              		.weak	_ZN9TiXmlBaseD0Ev
 217              		.type	_ZN9TiXmlBaseD0Ev, @function
 218              	_ZN9TiXmlBaseD0Ev:
 219              	.LFB1002:
 220              		.loc 1 204 0
 221              		.cfi_startproc
 222              	.LVL23:
 223 0000 7C0802A6 		mflr 0
 224 0004 9421FFF8 		stwu 1,-8(1)
 225              	.LCFI0:
 226              		.cfi_def_cfa_offset 8
 227              		.cfi_register 65, 0
 228              	.LBB866:
 229              	.LBB867:
 230              	.LBB868:
 231 0008 3D200000 		lis 9,_ZTV9TiXmlBase+8@ha
 232              	.LBE868:
 233              	.LBE867:
 234              	.LBE866:
 235 000c 9001000C 		stw 0,12(1)
 236              	.LBB871:
 237              	.LBB870:
 238              	.LBB869:
 239              		.loc 1 204 0
 240 0010 38090008 		la 0,_ZTV9TiXmlBase+8@l(9)
 241              		.cfi_offset 65, 4
 242 0014 90030000 		stw 0,0(3)
 243              	.LBE869:
 244              	.LBE870:
 245              	.LBE871:
 246 0018 48000001 		bl _ZdlPv
 247              	.LVL24:
 248 001c 8001000C 		lwz 0,12(1)
 249 0020 38210008 		addi 1,1,8
 250              	.LCFI1:
 251              		.cfi_def_cfa_offset 0
 252 0024 7C0803A6 		mtlr 0
 253 0028 4E800020 		blr
 254              		.cfi_endproc
 255              	.LFE1002:
 256              		.size	_ZN9TiXmlBaseD0Ev, .-_ZN9TiXmlBaseD0Ev
 257              		.section	.text._ZNK14TiXmlAttribute5PrintEP7__sFILEi,"axG",@progbits,_ZNK14TiXmlAttribute5PrintEP7
 258              		.align 2
 259              		.weak	_ZNK14TiXmlAttribute5PrintEP7__sFILEi
 260              		.type	_ZNK14TiXmlAttribute5PrintEP7__sFILEi, @function
 261              	_ZNK14TiXmlAttribute5PrintEP7__sFILEi:
 262              	.LFB1090:
 263              		.loc 1 872 0
 264              		.cfi_startproc
 265              	.LVL25:
 266 0000 7C0802A6 		mflr 0
 267 0004 9421FFF8 		stwu 1,-8(1)
 268              	.LCFI2:
 269              		.cfi_def_cfa_offset 8
 270              		.cfi_register 65, 0
 271              		.loc 1 873 0
 272 0008 38C00000 		li 6,0
 273              		.loc 1 872 0
 274 000c 9001000C 		stw 0,12(1)
 275              		.loc 1 873 0
 276              		.cfi_offset 65, 4
 277 0010 48000001 		bl _ZNK14TiXmlAttribute5PrintEP7__sFILEiPSs
 278              	.LVL26:
 279              		.loc 1 874 0
 280 0014 8001000C 		lwz 0,12(1)
 281 0018 38210008 		addi 1,1,8
 282              	.LCFI3:
 283              		.cfi_def_cfa_offset 0
 284 001c 7C0803A6 		mtlr 0
 285 0020 4E800020 		blr
 286              		.cfi_endproc
 287              	.LFE1090:
 288              		.size	_ZNK14TiXmlAttribute5PrintEP7__sFILEi, .-_ZNK14TiXmlAttribute5PrintEP7__sFILEi
 289              		.section	".text"
 290              		.align 2
 291              		.type	_Z41__static_initialization_and_destruction_0ii.constprop.22, @function
 292              	_Z41__static_initialization_and_destruction_0ii.constprop.22:
 293              	.LFB1346:
 294              		.file 2 "d:/Projects/SaveGameManager/savegame-manager-gx/trunk/source/XML/tinyxmlparser.cpp"
 295              		.loc 2 1638 0
 296              		.cfi_startproc
 297              	.LVL27:
 298 0000 2F830001 		cmpwi 7,3,1
 299 0004 7C0802A6 		mflr 0
 300 0008 9421FFF8 		stwu 1,-8(1)
 301              	.LCFI4:
 302              		.cfi_def_cfa_offset 8
 303              		.cfi_register 65, 0
 304 000c 9001000C 		stw 0,12(1)
 305              		.loc 2 1638 0
 306 0010 419E0028 		beq- 7,.L23
 307              		.cfi_offset 65, 4
 308              		.file 3 "d:\\devkitpro\\devkitppc\\bin\\../lib/gcc/powerpc-eabi/4.6.3/../../../../powerpc-eabi/inc
 309              		.loc 3 75 0
 310 0014 2F830000 		cmpwi 7,3,0
 311 0018 409E0010 		bne- 7,.L19
 312              	.LVL28:
 313              	.LBB874:
 314              	.LBB875:
 315 001c 3C600000 		lis 3,.LANCHOR0@ha
 316              	.LVL29:
 317 0020 38630000 		la 3,.LANCHOR0@l(3)
 318 0024 48000001 		bl _ZNSt8ios_base4InitD1Ev
 319              	.LVL30:
 320              	.L19:
 321              	.LBE875:
 322              	.LBE874:
 323              		.loc 2 1638 0
 324 0028 8001000C 		lwz 0,12(1)
 325 002c 38210008 		addi 1,1,8
 326              		.cfi_remember_state
 327              	.LCFI5:
 328              		.cfi_def_cfa_offset 0
 329 0030 7C0803A6 		mtlr 0
 330 0034 4E800020 		blr
 331              	.LVL31:
 332              	.L23:
 333              	.LCFI6:
 334              		.cfi_restore_state
 335              		.loc 3 75 0
 336 0038 3C600000 		lis 3,.LANCHOR0@ha
 337              	.LVL32:
 338 003c 38630000 		la 3,.LANCHOR0@l(3)
 339 0040 48000001 		bl _ZNSt8ios_base4InitC1Ev
 340 0044 4BFFFFE4 		b .L19
 341              		.cfi_endproc
 342              	.LFE1346:
 343              		.size	_Z41__static_initialization_and_destruction_0ii.constprop.22, .-_Z41__static_initialization_
 344              		.section	.text._ZN13TiXmlDocumentD2Ev,"axG",@progbits,_ZN13TiXmlDocumentD5Ev,comdat
 345              		.align 2
 346              		.weak	_ZN13TiXmlDocumentD2Ev
 347              		.type	_ZN13TiXmlDocumentD2Ev, @function
 348              	_ZN13TiXmlDocumentD2Ev:
 349              	.LFB1164:
 350              		.loc 1 1411 0
 351              		.cfi_startproc
 352              	.LVL33:
 353 0000 7C0802A6 		mflr 0
 354 0004 9421FFE0 		stwu 1,-32(1)
 355              	.LCFI7:
 356              		.cfi_def_cfa_offset 32
 357              		.cfi_register 65, 0
 358              	.LBB899:
 359              	.LBB900:
 360              	.LBB901:
 361              	.LBB902:
 362              	.LBB903:
 363              	.LBB904:
 364              		.file 4 "d:\\devkitpro\\devkitppc\\bin\\../lib/gcc/powerpc-eabi/4.6.3/../../../../powerpc-eabi/inc
 365              		.loc 4 235 0
 366 0008 3D600000 		lis 11,_ZNSs4_Rep20_S_empty_rep_storageE@ha
 367              	.LBE904:
 368              	.LBE903:
 369              	.LBE902:
 370              	.LBE901:
 371              	.LBE900:
 372              	.LBE899:
 373              		.loc 1 1411 0
 374 000c 93E1001C 		stw 31,28(1)
 375 0010 7C7F1B78 		mr 31,3
 376              		.cfi_offset 31, -4
 377 0014 90010024 		stw 0,36(1)
 378              	.LBB934:
 379              	.LBB930:
 380              	.LBB926:
 381              	.LBB922:
 382              	.LBB915:
 383              	.LBB911:
 384              		.loc 4 235 0
 385 0018 380B0000 		la 0,_ZNSs4_Rep20_S_empty_rep_storageE@l(11)
 386              		.cfi_offset 65, 4
 387              	.LBE911:
 388              	.LBE915:
 389              	.LBE922:
 390              	.LBE926:
 391              	.LBE930:
 392              		.loc 1 1411 0
 393 001c 3D600000 		lis 11,_ZTV13TiXmlDocument+8@ha
 394              	.LBB931:
 395              	.LBB927:
 396              	.LBB923:
 397              	.LBB916:
 398              	.LBB917:
 399              	.LBB918:
 400              		.loc 4 288 0
 401 0020 81230034 		lwz 9,52(3)
 402              	.LBE918:
 403              	.LBE917:
 404              	.LBE916:
 405              		.loc 4 534 0
 406 0024 3869FFF4 		addi 3,9,-12
 407              	.LVL34:
 408              	.LBB919:
 409              	.LBB912:
 410              		.loc 4 235 0
 411 0028 7F830000 		cmpw 7,3,0
 412              	.LBE912:
 413              	.LBE919:
 414              	.LBE923:
 415              	.LBE927:
 416              	.LBE931:
 417              		.loc 1 1411 0
 418 002c 380B0008 		la 0,_ZTV13TiXmlDocument+8@l(11)
 419 0030 901F0000 		stw 0,0(31)
 420              	.LVL35:
 421              	.LBB932:
 422              	.LBB928:
 423              	.LBB924:
 424              	.LBB920:
 425              	.LBB913:
 426              		.loc 4 235 0
 427 0034 409E0020 		bne- 7,.L32
 428              	.LVL36:
 429              	.L30:
 430              	.LBE913:
 431              	.LBE920:
 432              	.LBE924:
 433              	.LBE928:
 434              	.LBE932:
 435              		.loc 1 1411 0
 436 0038 7FE3FB78 		mr 3,31
 437 003c 48000001 		bl _ZN9TiXmlNodeD2Ev
 438              	.LBE934:
 439 0040 80010024 		lwz 0,36(1)
 440 0044 83E1001C 		lwz 31,28(1)
 441              	.LVL37:
 442 0048 7C0803A6 		mtlr 0
 443 004c 38210020 		addi 1,1,32
 444              		.cfi_remember_state
 445              	.LCFI8:
 446              		.cfi_def_cfa_offset 0
 447              		.cfi_restore 31
 448 0050 4E800020 		blr
 449              	.LVL38:
 450              	.L32:
 451              	.LCFI9:
 452              		.cfi_restore_state
 453              	.LBB935:
 454              	.LBB933:
 455              	.LBB929:
 456              	.LBB925:
 457              	.LBB921:
 458              	.LBB914:
 459              	.LBB905:
 460              	.LBB906:
 461              	.LBB907:
 462              		.file 5 "d:\\devkitpro\\devkitppc\\bin\\../lib/gcc/powerpc-eabi/4.6.3/../../../../powerpc-eabi/inc
 463              		.loc 5 66 0
 464 0054 8169FFFC 		lwz 11,-4(9)
 465              	.LVL39:
 466              	.LBE907:
 467              	.LBE906:
 468              	.LBE905:
 469              		.loc 4 240 0
 470 0058 2F8B0000 		cmpwi 7,11,0
 471              	.LBB910:
 472              	.LBB909:
 473              	.LBB908:
 474              		.loc 5 67 0
 475 005c 396BFFFF 		addi 11,11,-1
 476 0060 9169FFFC 		stw 11,-4(9)
 477              	.LBE908:
 478              	.LBE909:
 479              	.LBE910:
 480              		.loc 4 240 0
 481 0064 419DFFD4 		bgt+ 7,.L30
 482              		.loc 4 244 0
 483 0068 38810008 		addi 4,1,8
 484 006c 48000001 		bl _ZNSs4_Rep10_M_destroyERKSaIcE
 485              	.LVL40:
 486 0070 4BFFFFC8 		b .L30
 487              	.LBE914:
 488              	.LBE921:
 489              	.LBE925:
 490              	.LBE929:
 491              	.LBE933:
 492              	.LBE935:
 493              		.cfi_endproc
 494              	.LFE1164:
 495              		.size	_ZN13TiXmlDocumentD2Ev, .-_ZN13TiXmlDocumentD2Ev
 496              		.section	.text._ZN14TiXmlAttributeD2Ev,"axG",@progbits,_ZN14TiXmlAttributeD5Ev,comdat
 497              		.align 2
 498              		.weak	_ZN14TiXmlAttributeD2Ev
 499              		.type	_ZN14TiXmlAttributeD2Ev, @function
 500              	_ZN14TiXmlAttributeD2Ev:
 501              	.LFB1239:
 502              		.loc 1 781 0
 503              		.cfi_startproc
 504              	.LVL41:
 505 0000 7C0802A6 		mflr 0
 506 0004 9421FFE0 		stwu 1,-32(1)
 507              	.LCFI10:
 508              		.cfi_def_cfa_offset 32
 509              		.cfi_register 65, 0
 510              	.LBB986:
 511 0008 3D600000 		lis 11,_ZTV14TiXmlAttribute+8@ha
 512              	.LBE986:
 513 000c 93C10018 		stw 30,24(1)
 514              	.LBB1044:
 515              	.LBB987:
 516              	.LBB988:
 517              	.LBB989:
 518              	.LBB990:
 519              	.LBB991:
 520              		.loc 4 235 0
 521 0010 3FC00000 		lis 30,_ZNSs4_Rep20_S_empty_rep_storageE@ha
 522              		.cfi_offset 30, -8
 523              	.LBE991:
 524              	.LBE990:
 525              	.LBE989:
 526              	.LBE988:
 527              	.LBE987:
 528              	.LBE1044:
 529              		.loc 1 781 0
 530 0014 90010024 		stw 0,36(1)
 531              	.LBB1045:
 532              	.LBB1015:
 533              	.LBB1011:
 534              	.LBB1007:
 535              	.LBB1001:
 536              	.LBB998:
 537              		.loc 4 235 0
 538 0018 3BDE0000 		la 30,_ZNSs4_Rep20_S_empty_rep_storageE@l(30)
 539              	.LBE998:
 540              	.LBE1001:
 541              	.LBE1007:
 542              	.LBE1011:
 543              	.LBE1015:
 544              	.LBE1045:
 545              		.loc 1 781 0
 546 001c 93E1001C 		stw 31,28(1)
 547              		.loc 1 781 0
 548 0020 7C7F1B78 		mr 31,3
 549              		.cfi_offset 31, -4
 550              		.cfi_offset 65, 4
 551              	.LBB1046:
 552              	.LBB1016:
 553              	.LBB1012:
 554              	.LBB1008:
 555              	.LBB1002:
 556              	.LBB1003:
 557              	.LBB1004:
 558              		.loc 4 288 0
 559 0024 81230018 		lwz 9,24(3)
 560              	.LBE1004:
 561              	.LBE1003:
 562              	.LBE1002:
 563              	.LBE1008:
 564              	.LBE1012:
 565              	.LBE1016:
 566              		.loc 1 781 0
 567 0028 380B0008 		la 0,_ZTV14TiXmlAttribute+8@l(11)
 568 002c 901F0000 		stw 0,0(31)
 569              	.LVL42:
 570              	.LBB1017:
 571              	.LBB1013:
 572              	.LBB1009:
 573              		.loc 4 534 0
 574 0030 3869FFF4 		addi 3,9,-12
 575              	.LVL43:
 576              	.LBB1005:
 577              	.LBB999:
 578              		.loc 4 235 0
 579 0034 7F83F000 		cmpw 7,3,30
 580 0038 409E0038 		bne- 7,.L48
 581              	.LVL44:
 582              	.L39:
 583              	.LBE999:
 584              	.LBE1005:
 585              	.LBE1009:
 586              	.LBE1013:
 587              	.LBE1017:
 588              	.LBB1018:
 589              	.LBB1019:
 590              	.LBB1020:
 591              	.LBB1021:
 592              	.LBB1022:
 593              	.LBB1023:
 594              		.loc 4 288 0
 595 003c 813F0014 		lwz 9,20(31)
 596              	.LBE1023:
 597              	.LBE1022:
 598              	.LBE1021:
 599              		.loc 4 534 0
 600 0040 3869FFF4 		addi 3,9,-12
 601              	.LVL45:
 602              	.LBB1024:
 603              	.LBB1025:
 604              		.loc 4 235 0
 605 0044 7F83F000 		cmpw 7,3,30
 606 0048 409E0048 		bne- 7,.L49
 607              	.LVL46:
 608              	.L45:
 609              	.LBE1025:
 610              	.LBE1024:
 611              	.LBE1020:
 612              	.LBE1019:
 613              	.LBE1018:
 614              	.LBB1036:
 615              	.LBB1037:
 616              	.LBB1038:
 617              		.loc 1 204 0
 618 004c 3D200000 		lis 9,_ZTV9TiXmlBase+8@ha
 619              	.LBE1038:
 620              	.LBE1037:
 621              	.LBE1036:
 622              	.LBE1046:
 623              		.loc 1 781 0
 624 0050 83C10018 		lwz 30,24(1)
 625              	.LBB1047:
 626              	.LBB1041:
 627              	.LBB1040:
 628              	.LBB1039:
 629              		.loc 1 204 0
 630 0054 38090008 		la 0,_ZTV9TiXmlBase+8@l(9)
 631 0058 901F0000 		stw 0,0(31)
 632              	.LBE1039:
 633              	.LBE1040:
 634              	.LBE1041:
 635              	.LBE1047:
 636              		.loc 1 781 0
 637 005c 80010024 		lwz 0,36(1)
 638 0060 83E1001C 		lwz 31,28(1)
 639              	.LVL47:
 640 0064 7C0803A6 		mtlr 0
 641 0068 38210020 		addi 1,1,32
 642              		.cfi_remember_state
 643              	.LCFI11:
 644              		.cfi_def_cfa_offset 0
 645              		.cfi_restore 31
 646              		.cfi_restore 30
 647 006c 4E800020 		blr
 648              	.LVL48:
 649              	.L48:
 650              	.LCFI12:
 651              		.cfi_restore_state
 652              	.LBB1048:
 653              	.LBB1042:
 654              	.LBB1014:
 655              	.LBB1010:
 656              	.LBB1006:
 657              	.LBB1000:
 658              	.LBB992:
 659              	.LBB993:
 660              	.LBB994:
 661              		.loc 5 66 0
 662 0070 8169FFFC 		lwz 11,-4(9)
 663              	.LVL49:
 664              	.LBE994:
 665              	.LBE993:
 666              	.LBE992:
 667              		.loc 4 240 0
 668 0074 2F8B0000 		cmpwi 7,11,0
 669              	.LBB997:
 670              	.LBB996:
 671              	.LBB995:
 672              		.loc 5 67 0
 673 0078 396BFFFF 		addi 11,11,-1
 674 007c 9169FFFC 		stw 11,-4(9)
 675              	.LBE995:
 676              	.LBE996:
 677              	.LBE997:
 678              		.loc 4 240 0
 679 0080 419DFFBC 		bgt+ 7,.L39
 680              		.loc 4 244 0
 681 0084 38810009 		addi 4,1,9
 682 0088 48000001 		bl _ZNSs4_Rep10_M_destroyERKSaIcE
 683              	.LVL50:
 684 008c 4BFFFFB0 		b .L39
 685              	.LVL51:
 686              	.L49:
 687              	.LBE1000:
 688              	.LBE1006:
 689              	.LBE1010:
 690              	.LBE1014:
 691              	.LBE1042:
 692              	.LBB1043:
 693              	.LBB1035:
 694              	.LBB1034:
 695              	.LBB1033:
 696              	.LBB1032:
 697              	.LBB1026:
 698              	.LBB1027:
 699              	.LBB1028:
 700              		.loc 5 66 0
 701 0090 8169FFFC 		lwz 11,-4(9)
 702              	.LVL52:
 703              	.LBE1028:
 704              	.LBE1027:
 705              	.LBE1026:
 706              		.loc 4 240 0
 707 0094 2F8B0000 		cmpwi 7,11,0
 708              	.LBB1031:
 709              	.LBB1030:
 710              	.LBB1029:
 711              		.loc 5 67 0
 712 0098 396BFFFF 		addi 11,11,-1
 713 009c 9169FFFC 		stw 11,-4(9)
 714              	.LBE1029:
 715              	.LBE1030:
 716              	.LBE1031:
 717              		.loc 4 240 0
 718 00a0 419DFFAC 		bgt+ 7,.L45
 719              		.loc 4 244 0
 720 00a4 38810008 		addi 4,1,8
 721 00a8 48000001 		bl _ZNSs4_Rep10_M_destroyERKSaIcE
 722              	.LVL53:
 723 00ac 4BFFFFA0 		b .L45
 724              	.LBE1032:
 725              	.LBE1033:
 726              	.LBE1034:
 727              	.LBE1035:
 728              	.LBE1043:
 729              	.LBE1048:
 730              		.cfi_endproc
 731              	.LFE1239:
 732              		.size	_ZN14TiXmlAttributeD2Ev, .-_ZN14TiXmlAttributeD2Ev
 733              		.section	.text._ZN13TiXmlDocumentD0Ev,"axG",@progbits,_ZN13TiXmlDocumentD5Ev,comdat
 734              		.align 2
 735              		.weak	_ZN13TiXmlDocumentD0Ev
 736              		.type	_ZN13TiXmlDocumentD0Ev, @function
 737              	_ZN13TiXmlDocumentD0Ev:
 738              	.LFB1166:
 739              		.loc 1 1411 0
 740              		.cfi_startproc
 741              	.LVL54:
 742 0000 7C0802A6 		mflr 0
 743 0004 9421FFE0 		stwu 1,-32(1)
 744              	.LCFI13:
 745              		.cfi_def_cfa_offset 32
 746              		.cfi_register 65, 0
 747              	.LBB1073:
 748              	.LBB1074:
 749              	.LBB1075:
 750              	.LBB1076:
 751              	.LBB1077:
 752              	.LBB1078:
 753              	.LBB1079:
 754              	.LBB1080:
 755              		.loc 4 235 0
 756 0008 3D600000 		lis 11,_ZNSs4_Rep20_S_empty_rep_storageE@ha
 757              	.LBE1080:
 758              	.LBE1079:
 759              	.LBE1078:
 760              	.LBE1077:
 761              	.LBE1076:
 762              	.LBE1075:
 763              	.LBE1074:
 764              	.LBE1073:
 765              		.loc 1 1411 0
 766 000c 93E1001C 		stw 31,28(1)
 767 0010 7C7F1B78 		mr 31,3
 768              		.cfi_offset 31, -4
 769              	.LVL55:
 770 0014 90010024 		stw 0,36(1)
 771              	.LBB1114:
 772              	.LBB1112:
 773              	.LBB1110:
 774              	.LBB1106:
 775              	.LBB1102:
 776              	.LBB1098:
 777              	.LBB1091:
 778              	.LBB1087:
 779              		.loc 4 235 0
 780 0018 380B0000 		la 0,_ZNSs4_Rep20_S_empty_rep_storageE@l(11)
 781              		.cfi_offset 65, 4
 782              	.LBE1087:
 783              	.LBE1091:
 784              	.LBE1098:
 785              	.LBE1102:
 786              	.LBE1106:
 787              		.loc 1 1411 0
 788 001c 3D600000 		lis 11,_ZTV13TiXmlDocument+8@ha
 789              	.LBB1107:
 790              	.LBB1103:
 791              	.LBB1099:
 792              	.LBB1092:
 793              	.LBB1093:
 794              	.LBB1094:
 795              		.loc 4 288 0
 796 0020 81230034 		lwz 9,52(3)
 797              	.LBE1094:
 798              	.LBE1093:
 799              	.LBE1092:
 800              		.loc 4 534 0
 801 0024 3869FFF4 		addi 3,9,-12
 802              	.LVL56:
 803              	.LBB1095:
 804              	.LBB1088:
 805              		.loc 4 235 0
 806 0028 7F830000 		cmpw 7,3,0
 807              	.LBE1088:
 808              	.LBE1095:
 809              	.LBE1099:
 810              	.LBE1103:
 811              	.LBE1107:
 812              		.loc 1 1411 0
 813 002c 380B0008 		la 0,_ZTV13TiXmlDocument+8@l(11)
 814 0030 901F0000 		stw 0,0(31)
 815              	.LVL57:
 816              	.LBB1108:
 817              	.LBB1104:
 818              	.LBB1100:
 819              	.LBB1096:
 820              	.LBB1089:
 821              		.loc 4 235 0
 822 0034 409E0028 		bne- 7,.L59
 823              	.LVL58:
 824              	.L56:
 825              	.LBE1089:
 826              	.LBE1096:
 827              	.LBE1100:
 828              	.LBE1104:
 829              	.LBE1108:
 830              		.loc 1 1411 0
 831 0038 7FE3FB78 		mr 3,31
 832 003c 48000001 		bl _ZN9TiXmlNodeD2Ev
 833              	.LBE1110:
 834              	.LBE1112:
 835              	.LBE1114:
 836 0040 7FE3FB78 		mr 3,31
 837 0044 48000001 		bl _ZdlPv
 838 0048 80010024 		lwz 0,36(1)
 839 004c 83E1001C 		lwz 31,28(1)
 840              	.LVL59:
 841 0050 7C0803A6 		mtlr 0
 842 0054 38210020 		addi 1,1,32
 843              		.cfi_remember_state
 844              	.LCFI14:
 845              		.cfi_def_cfa_offset 0
 846              		.cfi_restore 31
 847 0058 4E800020 		blr
 848              	.LVL60:
 849              	.L59:
 850              	.LCFI15:
 851              		.cfi_restore_state
 852              	.LBB1115:
 853              	.LBB1113:
 854              	.LBB1111:
 855              	.LBB1109:
 856              	.LBB1105:
 857              	.LBB1101:
 858              	.LBB1097:
 859              	.LBB1090:
 860              	.LBB1081:
 861              	.LBB1082:
 862              	.LBB1083:
 863              		.loc 5 66 0
 864 005c 8169FFFC 		lwz 11,-4(9)
 865              	.LVL61:
 866              	.LBE1083:
 867              	.LBE1082:
 868              	.LBE1081:
 869              		.loc 4 240 0
 870 0060 2F8B0000 		cmpwi 7,11,0
 871              	.LBB1086:
 872              	.LBB1085:
 873              	.LBB1084:
 874              		.loc 5 67 0
 875 0064 396BFFFF 		addi 11,11,-1
 876 0068 9169FFFC 		stw 11,-4(9)
 877              	.LBE1084:
 878              	.LBE1085:
 879              	.LBE1086:
 880              		.loc 4 240 0
 881 006c 419DFFCC 		bgt+ 7,.L56
 882              		.loc 4 244 0
 883 0070 38810008 		addi 4,1,8
 884 0074 48000001 		bl _ZNSs4_Rep10_M_destroyERKSaIcE
 885              	.LVL62:
 886 0078 4BFFFFC0 		b .L56
 887              	.LBE1090:
 888              	.LBE1097:
 889              	.LBE1101:
 890              	.LBE1105:
 891              	.LBE1109:
 892              	.LBE1111:
 893              	.LBE1113:
 894              	.LBE1115:
 895              		.cfi_endproc
 896              	.LFE1166:
 897              		.size	_ZN13TiXmlDocumentD0Ev, .-_ZN13TiXmlDocumentD0Ev
 898              		.section	.text._ZN14TiXmlAttributeD0Ev,"axG",@progbits,_ZN14TiXmlAttributeD5Ev,comdat
 899              		.align 2
 900              		.weak	_ZN14TiXmlAttributeD0Ev
 901              		.type	_ZN14TiXmlAttributeD0Ev, @function
 902              	_ZN14TiXmlAttributeD0Ev:
 903              	.LFB1241:
 904              		.loc 1 781 0
 905              		.cfi_startproc
 906              	.LVL63:
 907 0000 7C0802A6 		mflr 0
 908 0004 9421FFE0 		stwu 1,-32(1)
 909              	.LCFI16:
 910              		.cfi_def_cfa_offset 32
 911              		.cfi_register 65, 0
 912              	.LBB1164:
 913              	.LBB1165:
 914              	.LBB1166:
 915 0008 3D600000 		lis 11,_ZTV14TiXmlAttribute+8@ha
 916              	.LBE1166:
 917              	.LBE1165:
 918              	.LBE1164:
 919 000c 93C10018 		stw 30,24(1)
 920              	.LBB1234:
 921              	.LBB1229:
 922              	.LBB1224:
 923              	.LBB1167:
 924              	.LBB1168:
 925              	.LBB1169:
 926              	.LBB1170:
 927              	.LBB1171:
 928              		.loc 4 235 0
 929 0010 3FC00000 		lis 30,_ZNSs4_Rep20_S_empty_rep_storageE@ha
 930              		.cfi_offset 30, -8
 931              	.LBE1171:
 932              	.LBE1170:
 933              	.LBE1169:
 934              	.LBE1168:
 935              	.LBE1167:
 936              	.LBE1224:
 937              	.LBE1229:
 938              	.LBE1234:
 939              		.loc 1 781 0
 940 0014 90010024 		stw 0,36(1)
 941              	.LBB1235:
 942              	.LBB1230:
 943              	.LBB1225:
 944              	.LBB1195:
 945              	.LBB1191:
 946              	.LBB1187:
 947              	.LBB1181:
 948              	.LBB1178:
 949              		.loc 4 235 0
 950 0018 3BDE0000 		la 30,_ZNSs4_Rep20_S_empty_rep_storageE@l(30)
 951              	.LBE1178:
 952              	.LBE1181:
 953              	.LBE1187:
 954              	.LBE1191:
 955              	.LBE1195:
 956              	.LBE1225:
 957              	.LBE1230:
 958              	.LBE1235:
 959              		.loc 1 781 0
 960 001c 93E1001C 		stw 31,28(1)
 961              		.loc 1 781 0
 962 0020 7C7F1B78 		mr 31,3
 963              		.cfi_offset 31, -4
 964              		.cfi_offset 65, 4
 965              	.LVL64:
 966              	.LBB1236:
 967              	.LBB1231:
 968              	.LBB1226:
 969              	.LBB1196:
 970              	.LBB1192:
 971              	.LBB1188:
 972              	.LBB1182:
 973              	.LBB1183:
 974              	.LBB1184:
 975              		.loc 4 288 0
 976 0024 81230018 		lwz 9,24(3)
 977              	.LBE1184:
 978              	.LBE1183:
 979              	.LBE1182:
 980              	.LBE1188:
 981              	.LBE1192:
 982              	.LBE1196:
 983              		.loc 1 781 0
 984 0028 380B0008 		la 0,_ZTV14TiXmlAttribute+8@l(11)
 985 002c 901F0000 		stw 0,0(31)
 986              	.LVL65:
 987              	.LBB1197:
 988              	.LBB1193:
 989              	.LBB1189:
 990              		.loc 4 534 0
 991 0030 3869FFF4 		addi 3,9,-12
 992              	.LVL66:
 993              	.LBB1185:
 994              	.LBB1179:
 995              		.loc 4 235 0
 996 0034 7F83F000 		cmpw 7,3,30
 997 0038 409E0040 		bne- 7,.L76
 998              	.LVL67:
 999              	.L66:
 1000              	.LBE1179:
 1001              	.LBE1185:
 1002              	.LBE1189:
 1003              	.LBE1193:
 1004              	.LBE1197:
 1005              	.LBB1198:
 1006              	.LBB1199:
 1007              	.LBB1200:
 1008              	.LBB1201:
 1009              	.LBB1202:
 1010              	.LBB1203:
 1011              		.loc 4 288 0
 1012 003c 813F0014 		lwz 9,20(31)
 1013              	.LBE1203:
 1014              	.LBE1202:
 1015              	.LBE1201:
 1016              		.loc 4 534 0
 1017 0040 3869FFF4 		addi 3,9,-12
 1018              	.LVL68:
 1019              	.LBB1204:
 1020              	.LBB1205:
 1021              		.loc 4 235 0
 1022 0044 7F83F000 		cmpw 7,3,30
 1023 0048 409E0050 		bne- 7,.L77
 1024              	.LVL69:
 1025              	.L72:
 1026              	.LBE1205:
 1027              	.LBE1204:
 1028              	.LBE1200:
 1029              	.LBE1199:
 1030              	.LBE1198:
 1031              	.LBB1216:
 1032              	.LBB1217:
 1033              	.LBB1218:
 1034              		.loc 1 204 0
 1035 004c 3D200000 		lis 9,_ZTV9TiXmlBase+8@ha
 1036              	.LBE1218:
 1037              	.LBE1217:
 1038              	.LBE1216:
 1039              	.LBE1226:
 1040              	.LBE1231:
 1041              	.LBE1236:
 1042              		.loc 1 781 0
 1043 0050 7FE3FB78 		mr 3,31
 1044              	.LBB1237:
 1045              	.LBB1232:
 1046              	.LBB1227:
 1047              	.LBB1221:
 1048              	.LBB1220:
 1049              	.LBB1219:
 1050              		.loc 1 204 0
 1051 0054 38090008 		la 0,_ZTV9TiXmlBase+8@l(9)
 1052 0058 901F0000 		stw 0,0(31)
 1053              	.LBE1219:
 1054              	.LBE1220:
 1055              	.LBE1221:
 1056              	.LBE1227:
 1057              	.LBE1232:
 1058              	.LBE1237:
 1059              		.loc 1 781 0
 1060 005c 48000001 		bl _ZdlPv
 1061 0060 80010024 		lwz 0,36(1)
 1062 0064 83C10018 		lwz 30,24(1)
 1063 0068 7C0803A6 		mtlr 0
 1064 006c 83E1001C 		lwz 31,28(1)
 1065              	.LVL70:
 1066 0070 38210020 		addi 1,1,32
 1067              		.cfi_remember_state
 1068              	.LCFI17:
 1069              		.cfi_def_cfa_offset 0
 1070              		.cfi_restore 31
 1071              		.cfi_restore 30
 1072 0074 4E800020 		blr
 1073              	.LVL71:
 1074              	.L76:
 1075              	.LCFI18:
 1076              		.cfi_restore_state
 1077              	.LBB1238:
 1078              	.LBB1233:
 1079              	.LBB1228:
 1080              	.LBB1222:
 1081              	.LBB1194:
 1082              	.LBB1190:
 1083              	.LBB1186:
 1084              	.LBB1180:
 1085              	.LBB1172:
 1086              	.LBB1173:
 1087              	.LBB1174:
 1088              		.loc 5 66 0
 1089 0078 8169FFFC 		lwz 11,-4(9)
 1090              	.LVL72:
 1091              	.LBE1174:
 1092              	.LBE1173:
 1093              	.LBE1172:
 1094              		.loc 4 240 0
 1095 007c 2F8B0000 		cmpwi 7,11,0
 1096              	.LBB1177:
 1097              	.LBB1176:
 1098              	.LBB1175:
 1099              		.loc 5 67 0
 1100 0080 396BFFFF 		addi 11,11,-1
 1101 0084 9169FFFC 		stw 11,-4(9)
 1102              	.LBE1175:
 1103              	.LBE1176:
 1104              	.LBE1177:
 1105              		.loc 4 240 0
 1106 0088 419DFFB4 		bgt+ 7,.L66
 1107              		.loc 4 244 0
 1108 008c 38810009 		addi 4,1,9
 1109 0090 48000001 		bl _ZNSs4_Rep10_M_destroyERKSaIcE
 1110              	.LVL73:
 1111 0094 4BFFFFA8 		b .L66
 1112              	.LVL74:
 1113              	.L77:
 1114              	.LBE1180:
 1115              	.LBE1186:
 1116              	.LBE1190:
 1117              	.LBE1194:
 1118              	.LBE1222:
 1119              	.LBB1223:
 1120              	.LBB1215:
 1121              	.LBB1214:
 1122              	.LBB1213:
 1123              	.LBB1212:
 1124              	.LBB1206:
 1125              	.LBB1207:
 1126              	.LBB1208:
 1127              		.loc 5 66 0
 1128 0098 8169FFFC 		lwz 11,-4(9)
 1129              	.LVL75:
 1130              	.LBE1208:
 1131              	.LBE1207:
 1132              	.LBE1206:
 1133              		.loc 4 240 0
 1134 009c 2F8B0000 		cmpwi 7,11,0
 1135              	.LBB1211:
 1136              	.LBB1210:
 1137              	.LBB1209:
 1138              		.loc 5 67 0
 1139 00a0 396BFFFF 		addi 11,11,-1
 1140 00a4 9169FFFC 		stw 11,-4(9)
 1141              	.LBE1209:
 1142              	.LBE1210:
 1143              	.LBE1211:
 1144              		.loc 4 240 0
 1145 00a8 419DFFA4 		bgt+ 7,.L72
 1146              		.loc 4 244 0
 1147 00ac 38810008 		addi 4,1,8
 1148 00b0 48000001 		bl _ZNSs4_Rep10_M_destroyERKSaIcE
 1149              	.LVL76:
 1150 00b4 4BFFFF98 		b .L72
 1151              	.LBE1212:
 1152              	.LBE1213:
 1153              	.LBE1214:
 1154              	.LBE1215:
 1155              	.LBE1223:
 1156              	.LBE1228:
 1157              	.LBE1233:
 1158              	.LBE1238:
 1159              		.cfi_endproc
 1160              	.LFE1241:
 1161              		.size	_ZN14TiXmlAttributeD0Ev, .-_ZN14TiXmlAttributeD0Ev
 1162              		.section	".text"
 1163              		.align 2
 1164              		.globl _ZN9TiXmlBase18ConvertUTF32ToUTF8EmPcPi
 1165              		.type	_ZN9TiXmlBase18ConvertUTF32ToUTF8EmPcPi, @function
 1166              	_ZN9TiXmlBase18ConvertUTF32ToUTF8EmPcPi:
 1167              	.LFB1217:
 1168              		.loc 2 89 0
 1169              		.cfi_startproc
 1170              	.LVL77:
 1171              	.LBB1239:
 1172              		.loc 2 92 0
 1173 0048 3D600000 		lis 11,.LANCHOR1@ha
 1174              		.loc 2 94 0
 1175 004c 2B83007F 		cmplwi 7,3,127
 1176              		.loc 2 92 0
 1177 0050 392B0000 		la 9,.LANCHOR1@l(11)
 1178              	.LBE1239:
 1179              		.loc 2 89 0
 1180 0054 9421FFD8 		stwu 1,-40(1)
 1181              	.LCFI19:
 1182              		.cfi_def_cfa_offset 40
 1183              	.LBB1240:
 1184              		.loc 2 92 0
 1185 0058 80C90004 		lwz 6,4(9)
 1186 005c 80E90008 		lwz 7,8(9)
 1187 0060 8109000C 		lwz 8,12(9)
 1188 0064 81490010 		lwz 10,16(9)
 1189 0068 80090018 		lwz 0,24(9)
 1190 006c 818B0000 		lwz 12,.LANCHOR1@l(11)
 1191 0070 81690014 		lwz 11,20(9)
 1192 0074 91810008 		stw 12,8(1)
 1193 0078 90C1000C 		stw 6,12(1)
 1194 007c 90E10010 		stw 7,16(1)
 1195 0080 91010014 		stw 8,20(1)
 1196 0084 91410018 		stw 10,24(1)
 1197 0088 9161001C 		stw 11,28(1)
 1198 008c 90010020 		stw 0,32(1)
 1199              		.loc 2 94 0
 1200 0090 419D002C 		bgt- 7,.L79
 1201              		.loc 2 95 0
 1202 0094 38000001 		li 0,1
 1203              		.loc 2 105 0
 1204 0098 38840001 		addi 4,4,1
 1205              	.LVL78:
 1206              		.loc 2 95 0
 1207 009c 90050000 		stw 0,0(5)
 1208              	.L80:
 1209              	.LVL79:
 1210              		.loc 2 124 0
 1211 00a0 5400103A 		slwi 0,0,2
 1212 00a4 39210008 		addi 9,1,8
 1213 00a8 7C09002E 		lwzx 0,9,0
 1214 00ac 7C630378 		or 3,3,0
 1215              	.LVL80:
 1216 00b0 9864FFFF 		stb 3,-1(4)
 1217              	.LVL81:
 1218              	.L78:
 1219              	.LBE1240:
 1220              		.loc 2 126 0
 1221 00b4 38210028 		addi 1,1,40
 1222              		.cfi_remember_state
 1223              	.LCFI20:
 1224              		.cfi_def_cfa_offset 0
 1225 00b8 4E800020 		blr
 1226              	.LVL82:
 1227              	.L79:
 1228              	.LCFI21:
 1229              		.cfi_restore_state
 1230              	.LBB1241:
 1231              		.loc 2 96 0
 1232 00bc 2B8307FF 		cmplwi 7,3,2047
 1233 00c0 419D0030 		bgt- 7,.L81
 1234              		.loc 2 97 0
 1235 00c4 38000002 		li 0,2
 1236              		.loc 2 105 0
 1237 00c8 38840002 		addi 4,4,2
 1238              	.LVL83:
 1239              		.loc 2 97 0
 1240 00cc 90050000 		stw 0,0(5)
 1241              	.L82:
 1242              		.loc 2 120 0
 1243 00d0 546906BE 		rlwinm 9,3,0,26,31
 1244 00d4 3800FF80 		li 0,-128
 1245 00d8 7D200378 		or 0,9,0
 1246              		.loc 2 121 0
 1247 00dc 5463D1BE 		srwi 3,3,6
 1248              	.LVL84:
 1249              		.loc 2 120 0
 1250 00e0 9804FFFF 		stb 0,-1(4)
 1251              		.loc 2 119 0
 1252 00e4 3884FFFF 		addi 4,4,-1
 1253              	.LVL85:
 1254 00e8 80050000 		lwz 0,0(5)
 1255 00ec 4BFFFFB4 		b .L80
 1256              	.L81:
 1257              		.loc 2 98 0
 1258 00f0 2B83FFFF 		cmplwi 7,3,65535
 1259 00f4 409D0050 		ble- 7,.L87
 1260              		.loc 2 100 0
 1261 00f8 3C00001F 		lis 0,0x1f
 1262 00fc 6000FFFF 		ori 0,0,65535
 1263 0100 7F830040 		cmplw 7,3,0
 1264 0104 419D0050 		bgt- 7,.L85
 1265              		.loc 2 112 0
 1266 0108 546906BE 		rlwinm 9,3,0,26,31
 1267 010c 3800FF80 		li 0,-128
 1268 0110 7D200378 		or 0,9,0
 1269              		.loc 2 101 0
 1270 0114 39200004 		li 9,4
 1271 0118 91250000 		stw 9,0(5)
 1272              	.LVL86:
 1273              		.loc 2 113 0
 1274 011c 5463D1BE 		srwi 3,3,6
 1275              	.LVL87:
 1276              		.loc 2 112 0
 1277 0120 98040003 		stb 0,3(4)
 1278              		.loc 2 111 0
 1279 0124 39240003 		addi 9,4,3
 1280              	.LVL88:
 1281              	.L84:
 1282              		.loc 2 116 0
 1283 0128 546B06BE 		rlwinm 11,3,0,26,31
 1284 012c 3800FF80 		li 0,-128
 1285 0130 7D600378 		or 0,11,0
 1286              		.loc 2 115 0
 1287 0134 3889FFFF 		addi 4,9,-1
 1288              	.LVL89:
 1289              		.loc 2 116 0
 1290 0138 9809FFFF 		stb 0,-1(9)
 1291              		.loc 2 117 0
 1292 013c 5463D1BE 		srwi 3,3,6
 1293              	.LVL90:
 1294 0140 4BFFFF90 		b .L82
 1295              	.L87:
 1296              		.loc 2 99 0
 1297 0144 38000003 		li 0,3
 1298              		.loc 2 105 0
 1299 0148 39240003 		addi 9,4,3
 1300              	.LVL91:
 1301              		.loc 2 99 0
 1302 014c 90050000 		stw 0,0(5)
 1303 0150 4BFFFFD8 		b .L84
 1304              	.LVL92:
 1305              	.L85:
 1306              		.loc 2 103 0
 1307 0154 38000000 		li 0,0
 1308 0158 90050000 		stw 0,0(5)
 1309 015c 4BFFFF58 		b .L78
 1310              	.LBE1241:
 1311              		.cfi_endproc
 1312              	.LFE1217:
 1313              		.size	_ZN9TiXmlBase18ConvertUTF32ToUTF8EmPcPi, .-_ZN9TiXmlBase18ConvertUTF32ToUTF8EmPcPi
 1314              		.align 2
 1315              		.globl _ZN9TiXmlBase7IsAlphaEh13TiXmlEncoding
 1316              		.type	_ZN9TiXmlBase7IsAlphaEh13TiXmlEncoding, @function
 1317              	_ZN9TiXmlBase7IsAlphaEh13TiXmlEncoding:
 1318              	.LFB1218:
 1319              		.loc 2 130 0
 1320              		.cfi_startproc
 1321              	.LVL93:
 1322              		.loc 2 138 0
 1323 0160 2B83007E 		cmplwi 7,3,126
 1324              		.loc 2 130 0
 1325 0164 7C0802A6 		mflr 0
 1326 0168 9421FFF8 		stwu 1,-8(1)
 1327              	.LCFI22:
 1328              		.cfi_def_cfa_offset 8
 1329              		.cfi_register 65, 0
 1330 016c 9001000C 		stw 0,12(1)
 1331              		.loc 2 141 0
 1332 0170 38000001 		li 0,1
 1333              		.cfi_offset 65, 4
 1334              		.loc 2 138 0
 1335 0174 419D000C 		bgt- 7,.L89
 1336              		.loc 2 139 0
 1337 0178 48000001 		bl isalpha
 1338              	.LVL94:
 1339 017c 7C601B78 		mr 0,3
 1340              	.L89:
 1341              		.loc 2 147 0
 1342 0180 7C030378 		mr 3,0
 1343 0184 8001000C 		lwz 0,12(1)
 1344 0188 38210008 		addi 1,1,8
 1345              	.LCFI23:
 1346              		.cfi_def_cfa_offset 0
 1347 018c 7C0803A6 		mtlr 0
 1348 0190 4E800020 		blr
 1349              		.cfi_endproc
 1350              	.LFE1218:
 1351              		.size	_ZN9TiXmlBase7IsAlphaEh13TiXmlEncoding, .-_ZN9TiXmlBase7IsAlphaEh13TiXmlEncoding
 1352              		.align 2
 1353              		.globl _ZN9TiXmlBase10IsAlphaNumEh13TiXmlEncoding
 1354              		.type	_ZN9TiXmlBase10IsAlphaNumEh13TiXmlEncoding, @function
 1355              	_ZN9TiXmlBase10IsAlphaNumEh13TiXmlEncoding:
 1356              	.LFB1219:
 1357              		.loc 2 151 0
 1358              		.cfi_startproc
 1359              	.LVL95:
 1360              		.loc 2 159 0
 1361 0194 2B83007E 		cmplwi 7,3,126
 1362              		.loc 2 151 0
 1363 0198 7C0802A6 		mflr 0
 1364 019c 9421FFF8 		stwu 1,-8(1)
 1365              	.LCFI24:
 1366              		.cfi_def_cfa_offset 8
 1367              		.cfi_register 65, 0
 1368 01a0 9001000C 		stw 0,12(1)
 1369              		.loc 2 162 0
 1370 01a4 38000001 		li 0,1
 1371              		.cfi_offset 65, 4
 1372              		.loc 2 159 0
 1373 01a8 419D000C 		bgt- 7,.L92
 1374              		.loc 2 160 0
 1375 01ac 48000001 		bl isalnum
 1376              	.LVL96:
 1377 01b0 7C601B78 		mr 0,3
 1378              	.L92:
 1379              		.loc 2 168 0
 1380 01b4 7C030378 		mr 3,0
 1381 01b8 8001000C 		lwz 0,12(1)
 1382 01bc 38210008 		addi 1,1,8
 1383              	.LCFI25:
 1384              		.cfi_def_cfa_offset 0
 1385 01c0 7C0803A6 		mtlr 0
 1386 01c4 4E800020 		blr
 1387              		.cfi_endproc
 1388              	.LFE1219:
 1389              		.size	_ZN9TiXmlBase10IsAlphaNumEh13TiXmlEncoding, .-_ZN9TiXmlBase10IsAlphaNumEh13TiXmlEncoding
 1390              		.align 2
 1391              		.globl _ZN16TiXmlParsingData5StampEPKc13TiXmlEncoding
 1392              		.type	_ZN16TiXmlParsingData5StampEPKc13TiXmlEncoding, @function
 1393              	_ZN16TiXmlParsingData5StampEPKc13TiXmlEncoding:
 1394              	.LFB1224:
 1395              		.loc 2 197 0
 1396              		.cfi_startproc
 1397              	.LVL97:
 1398              	.LBB1242:
 1399              		.loc 2 198 0
 1400 01c8 2C040000 		cmpwi 0,4,0
 1401              	.LBE1242:
 1402              		.loc 2 197 0
 1403 01cc 7C0802A6 		mflr 0
 1404 01d0 9421FFF8 		stwu 1,-8(1)
 1405              	.LCFI26:
 1406              		.cfi_def_cfa_offset 8
 1407              		.cfi_register 65, 0
 1408 01d4 9001000C 		stw 0,12(1)
 1409              	.LBB1257:
 1410              		.loc 2 198 0
 1411 01d8 4182019C 		beq- 0,.L124
 1412              		.cfi_offset 65, 4
 1413              		.loc 2 201 0
 1414 01dc 8103000C 		lwz 8,12(3)
 1415 01e0 2F880000 		cmpwi 7,8,0
 1416 01e4 409D0088 		ble- 7,.L94
 1417              		.loc 2 209 0
 1418 01e8 81230008 		lwz 9,8(3)
 1419              		.loc 2 207 0
 1420 01ec 81430000 		lwz 10,0(3)
 1421              	.LVL98:
 1422              		.loc 2 210 0
 1423 01f0 2F890000 		cmpwi 7,9,0
 1424              		.loc 2 208 0
 1425 01f4 81630004 		lwz 11,4(3)
 1426              	.LVL99:
 1427              		.loc 2 210 0
 1428 01f8 419E0158 		beq- 7,.L97
 1429              		.loc 2 212 0 discriminator 1
 1430 01fc 7F844840 		cmplw 7,4,9
 1431 0200 409D0048 		ble- 7,.L99
 1432              	.LBB1243:
 1433              	.LBB1244:
 1434              	.LBB1245:
 1435              	.LBB1246:
 1436              	.LBB1247:
 1437              		.loc 2 289 0
 1438 0204 3CE00000 		lis 7,.LANCHOR1@ha
 1439              	.LBE1247:
 1440              		.loc 2 286 0
 1441 0208 2F050001 		cmpwi 6,5,1
 1442              	.LBB1248:
 1443              		.loc 2 289 0
 1444 020c 38E70000 		la 7,.LANCHOR1@l(7)
 1445              	.LVL100:
 1446              	.L119:
 1447              	.LBE1248:
 1448              	.LBE1246:
 1449              	.LBE1245:
 1450              		.loc 2 218 0
 1451 0210 88090000 		lbz 0,0(9)
 1452 0214 2F80000A 		cmpwi 7,0,10
 1453 0218 419E00DC 		beq- 7,.L102
 1454 021c 2B80000A 		cmplwi 7,0,10
 1455 0220 419D0070 		bgt- 7,.L105
 1456 0224 2F800000 		cmpwi 7,0,0
 1457 0228 419E0044 		beq- 7,.L94
 1458 022c 2F800009 		cmpwi 7,0,9
 1459 0230 419E004C 		beq- 7,.L125
 1460              	.L100:
 1461              	.LBB1252:
 1462              	.LBB1250:
 1463              		.loc 2 286 0
 1464 0234 419A00DC 		beq- 6,.L126
 1465              	.L113:
 1466              		.loc 2 299 0
 1467 0238 39290001 		addi 9,9,1
 1468              	.LVL101:
 1469              		.loc 2 300 0
 1470 023c 396B0001 		addi 11,11,1
 1471              	.LVL102:
 1472              	.L107:
 1473              	.LBE1250:
 1474              	.LBE1252:
 1475              	.LBE1244:
 1476              	.LBE1243:
 1477              		.loc 2 212 0 discriminator 1
 1478 0240 7F844840 		cmplw 7,4,9
 1479 0244 419DFFCC 		bgt+ 7,.L119
 1480              	.L99:
 1481              		.loc 2 307 0
 1482 0248 2F8AFFFF 		cmpwi 7,10,-1
 1483              		.loc 2 305 0
 1484 024c 91430000 		stw 10,0(3)
 1485              		.loc 2 306 0
 1486 0250 91630004 		stw 11,4(3)
 1487              		.loc 2 307 0
 1488 0254 419C018C 		blt- 7,.L127
 1489              		.loc 2 308 0
 1490 0258 2F8BFFFF 		cmpwi 7,11,-1
 1491 025c 419C0160 		blt- 7,.L128
 1492              		.loc 2 310 0
 1493 0260 2F890000 		cmpwi 7,9,0
 1494              		.loc 2 309 0
 1495 0264 91230008 		stw 9,8(3)
 1496              		.loc 2 310 0
 1497 0268 419E0130 		beq- 7,.L129
 1498              	.LVL103:
 1499              	.L94:
 1500              	.LBE1257:
 1501              		.loc 2 311 0
 1502 026c 8001000C 		lwz 0,12(1)
 1503 0270 38210008 		addi 1,1,8
 1504              		.cfi_remember_state
 1505              	.LCFI27:
 1506              		.cfi_def_cfa_offset 0
 1507 0274 7C0803A6 		mtlr 0
 1508 0278 4E800020 		blr
 1509              	.LVL104:
 1510              	.L125:
 1511              	.LCFI28:
 1512              		.cfi_restore_state
 1513              	.LBB1258:
 1514              	.LBB1256:
 1515              	.LBB1255:
 1516              	.LBB1253:
 1517              		.loc 2 258 0
 1518 027c 7D6B43D6 		divw 11,11,8
 1519              	.LVL105:
 1520              		.loc 2 255 0
 1521 0280 39290001 		addi 9,9,1
 1522              	.LVL106:
 1523              		.loc 2 258 0
 1524 0284 396B0001 		addi 11,11,1
 1525 0288 7D6859D6 		mullw 11,8,11
 1526              	.LVL107:
 1527              		.loc 2 259 0
 1528 028c 4BFFFFB4 		b .L107
 1529              	.LVL108:
 1530              	.L105:
 1531              	.LBE1253:
 1532              		.loc 2 218 0
 1533 0290 2F80000D 		cmpwi 7,0,13
 1534 0294 419E0044 		beq- 7,.L103
 1535 0298 2F8000EF 		cmpwi 7,0,239
 1536 029c 409EFF98 		bne+ 7,.L100
 1537              	.LBB1254:
 1538              		.loc 2 262 0
 1539 02a0 409AFF98 		bne+ 6,.L113
 1540              		.loc 2 264 0
 1541 02a4 88090001 		lbz 0,1(9)
 1542 02a8 2F800000 		cmpwi 7,0,0
 1543 02ac 41BEFF94 		beq- 7,.L107
 1544              		.loc 2 264 0 is_stmt 0 discriminator 1
 1545 02b0 88C90002 		lbz 6,2(9)
 1546 02b4 2F860000 		cmpwi 7,6,0
 1547 02b8 41BEFF88 		beq- 7,.L107
 1548              		.loc 2 268 0 is_stmt 1
 1549 02bc 2F8000BB 		cmpwi 7,0,187
 1550 02c0 419E0080 		beq- 7,.L112
 1551              		.loc 2 270 0
 1552 02c4 2F8000BF 		cmpwi 7,0,191
 1553 02c8 419E0070 		beq- 7,.L130
 1554              	.L111:
 1555              		.loc 2 275 0
 1556 02cc 39290003 		addi 9,9,3
 1557              	.LVL109:
 1558 02d0 396B0001 		addi 11,11,1
 1559              	.LVL110:
 1560 02d4 4BFFFF6C 		b .L107
 1561              	.LVL111:
 1562              	.L103:
 1563              		.loc 2 232 0
 1564 02d8 88090001 		lbz 0,1(9)
 1565              		.loc 2 226 0
 1566 02dc 394A0001 		addi 10,10,1
 1567              	.LVL112:
 1568              		.loc 2 232 0
 1569 02e0 2F80000A 		cmpwi 7,0,10
 1570 02e4 419E0020 		beq- 7,.L108
 1571              	.LVL113:
 1572              	.L121:
 1573              		.loc 2 243 0
 1574 02e8 39290001 		addi 9,9,1
 1575              	.LVL114:
 1576              		.loc 2 240 0
 1577 02ec 39600000 		li 11,0
 1578 02f0 4BFFFF50 		b .L107
 1579              	.LVL115:
 1580              	.L102:
 1581              		.loc 2 248 0
 1582 02f4 88090001 		lbz 0,1(9)
 1583              		.loc 2 239 0
 1584 02f8 394A0001 		addi 10,10,1
 1585              	.LVL116:
 1586              		.loc 2 248 0
 1587 02fc 2F80000D 		cmpwi 7,0,13
 1588 0300 409EFFE8 		bne+ 7,.L121
 1589              	.LVL117:
 1590              	.L108:
 1591              		.loc 2 249 0
 1592 0304 39290002 		addi 9,9,2
 1593              	.LVL118:
 1594              		.loc 2 240 0
 1595 0308 39600000 		li 11,0
 1596 030c 4BFFFF34 		b .L107
 1597              	.LVL119:
 1598              	.L126:
 1599              	.LBB1251:
 1600              	.LBB1249:
 1601              		.loc 2 289 0
 1602 0310 5400103A 		slwi 0,0,2
 1603 0314 7CC70214 		add 6,7,0
 1604              		.loc 2 290 0
 1605 0318 38000001 		li 0,1
 1606              		.loc 2 289 0
 1607 031c 80C60058 		lwz 6,88(6)
 1608              	.LVL120:
 1609              		.loc 2 290 0
 1610 0320 2F860000 		cmpwi 7,6,0
 1611 0324 419E0008 		beq- 7,.L114
 1612 0328 7CC03378 		mr 0,6
 1613              	.L114:
 1614              	.LVL121:
 1615              		.loc 2 292 0
 1616 032c 7D290214 		add 9,9,0
 1617              	.LVL122:
 1618              		.loc 2 295 0
 1619 0330 396B0001 		addi 11,11,1
 1620              	.LVL123:
 1621 0334 4BFFFF0C 		b .L107
 1622              	.LVL124:
 1623              	.L130:
 1624              	.LBE1249:
 1625              	.LBE1251:
 1626              		.loc 2 270 0 discriminator 1
 1627 0338 2F8600BE 		cmpwi 7,6,190
 1628 033c 419E000C 		beq- 7,.L122
 1629              	.L112:
 1630              		.loc 2 272 0 discriminator 1
 1631 0340 2F8600BF 		cmpwi 7,6,191
 1632 0344 409EFF88 		bne+ 7,.L111
 1633              	.L122:
 1634              		.loc 2 273 0
 1635 0348 39290003 		addi 9,9,3
 1636              	.LVL125:
 1637 034c 4BFFFEF4 		b .L107
 1638              	.LVL126:
 1639              	.L97:
 1640              	.LBE1254:
 1641              	.LBE1255:
 1642              	.LBE1256:
 1643              		.loc 2 210 0 discriminator 1
 1644 0350 3CA00000 		lis 5,.LANCHOR1@ha
 1645              	.LVL127:
 1646 0354 3C600000 		lis 3,.LC1@ha
 1647              	.LVL128:
 1648 0358 38A50000 		la 5,.LANCHOR1@l(5)
 1649 035c 3CC00000 		lis 6,.LC3@ha
 1650 0360 38630000 		la 3,.LC1@l(3)
 1651 0364 388000D2 		li 4,210
 1652              	.LVL129:
 1653 0368 38A5001C 		addi 5,5,28
 1654 036c 38C60058 		la 6,.LC3@l(6)
 1655 0370 48000001 		bl __assert_func
 1656              	.LVL130:
 1657              	.L124:
 1658              		.loc 2 198 0 discriminator 1
 1659 0374 3CA00000 		lis 5,.LANCHOR1@ha
 1660              	.LVL131:
 1661 0378 3C600000 		lis 3,.LC1@ha
 1662              	.LVL132:
 1663 037c 38A50000 		la 5,.LANCHOR1@l(5)
 1664 0380 3CC00000 		lis 6,.LC2@ha
 1665 0384 38630000 		la 3,.LC1@l(3)
 1666 0388 388000C6 		li 4,198
 1667              	.LVL133:
 1668 038c 38A5001C 		addi 5,5,28
 1669 0390 38C60054 		la 6,.LC2@l(6)
 1670 0394 48000001 		bl __assert_func
 1671              	.LVL134:
 1672              	.L129:
 1673              		.loc 2 310 0 discriminator 1
 1674 0398 3CA00000 		lis 5,.LANCHOR1@ha
 1675              	.LVL135:
 1676 039c 3C600000 		lis 3,.LC1@ha
 1677              	.LVL136:
 1678 03a0 38A50000 		la 5,.LANCHOR1@l(5)
 1679 03a4 3CC00000 		lis 6,.LC6@ha
 1680 03a8 38630000 		la 3,.LC1@l(3)
 1681 03ac 38800136 		li 4,310
 1682              	.LVL137:
 1683 03b0 38A5001C 		addi 5,5,28
 1684 03b4 38C60084 		la 6,.LC6@l(6)
 1685 03b8 48000001 		bl __assert_func
 1686              	.LVL138:
 1687              	.L128:
 1688              		.loc 2 308 0 discriminator 1
 1689 03bc 3CA00000 		lis 5,.LANCHOR1@ha
 1690              	.LVL139:
 1691 03c0 3C600000 		lis 3,.LC1@ha
 1692              	.LVL140:
 1693 03c4 38A50000 		la 5,.LANCHOR1@l(5)
 1694 03c8 3CC00000 		lis 6,.LC5@ha
 1695 03cc 38630000 		la 3,.LC1@l(3)
 1696 03d0 38800134 		li 4,308
 1697              	.LVL141:
 1698 03d4 38A5001C 		addi 5,5,28
 1699 03d8 38C60070 		la 6,.LC5@l(6)
 1700 03dc 48000001 		bl __assert_func
 1701              	.LVL142:
 1702              	.L127:
 1703              		.loc 2 307 0 discriminator 1
 1704 03e0 3CA00000 		lis 5,.LANCHOR1@ha
 1705              	.LVL143:
 1706 03e4 3C600000 		lis 3,.LC1@ha
 1707              	.LVL144:
 1708 03e8 38A50000 		la 5,.LANCHOR1@l(5)
 1709 03ec 3CC00000 		lis 6,.LC4@ha
 1710 03f0 38630000 		la 3,.LC1@l(3)
 1711 03f4 38800133 		li 4,307
 1712              	.LVL145:
 1713 03f8 38A5001C 		addi 5,5,28
 1714 03fc 38C6005C 		la 6,.LC4@l(6)
 1715 0400 48000001 		bl __assert_func
 1716              	.LVL146:
 1717              	.LVL147:
 1718              	.LVL148:
 1719              	.LBE1258:
 1720              		.cfi_endproc
 1721              	.LFE1224:
 1722              		.size	_ZN16TiXmlParsingData5StampEPKc13TiXmlEncoding, .-_ZN16TiXmlParsingData5StampEPKc13TiXmlEnco
 1723              		.align 2
 1724              		.globl _ZN9TiXmlBase14SkipWhiteSpaceEPKc13TiXmlEncoding
 1725              		.type	_ZN9TiXmlBase14SkipWhiteSpaceEPKc13TiXmlEncoding, @function
 1726              	_ZN9TiXmlBase14SkipWhiteSpaceEPKc13TiXmlEncoding:
 1727              	.LFB1225:
 1728              		.loc 2 315 0
 1729              		.cfi_startproc
 1730              	.LVL149:
 1731 0404 9421FFE8 		stwu 1,-24(1)
 1732              	.LCFI29:
 1733              		.cfi_def_cfa_offset 24
 1734 0408 7C0802A6 		mflr 0
 1735 040c 93E10014 		stw 31,20(1)
 1736              	.LBB1271:
 1737              		.loc 2 316 0
 1738 0410 7C7F1B79 		mr. 31,3
 1739              		.cfi_offset 31, -4
 1740              		.cfi_register 65, 0
 1741              	.LBE1271:
 1742              		.loc 2 315 0
 1743 0414 9001001C 		stw 0,28(1)
 1744 0418 93A1000C 		stw 29,12(1)
 1745 041c 93C10010 		stw 30,16(1)
 1746              	.LBB1296:
 1747              		.loc 2 316 0
 1748 0420 4182003C 		beq- 0,.L132
 1749              		.cfi_offset 30, -8
 1750              		.cfi_offset 29, -12
 1751              		.cfi_offset 65, 4
 1752              		.loc 2 316 0 is_stmt 0 discriminator 1
 1753 0424 8BDF0000 		lbz 30,0(31)
 1754 0428 2F9E0000 		cmpwi 7,30,0
 1755 042c 419E011C 		beq- 7,.L143
 1756              	.LBB1272:
 1757              		.loc 2 320 0 is_stmt 1
 1758 0430 2F840001 		cmpwi 7,4,1
 1759              	.LBB1273:
 1760              		.loc 2 322 0
 1761 0434 7FFDFB78 		mr 29,31
 1762              	.LBE1273:
 1763              		.loc 2 320 0
 1764 0438 419E0054 		beq- 7,.L144
 1765              	.LVL150:
 1766              	.L145:
 1767              	.LBB1282:
 1768              	.LBB1283:
 1769              		.loc 1 294 0 discriminator 2
 1770 043c 7FC3F378 		mr 3,30
 1771 0440 48000001 		bl isspace
 1772              	.LBB1284:
 1773              	.LBB1285:
 1774 0444 2F1E000A 		cmpwi 6,30,10
 1775              	.LBE1285:
 1776              	.LBE1284:
 1777 0448 2F830000 		cmpwi 7,3,0
 1778              	.LBE1283:
 1779              	.LBE1282:
 1780              		.loc 2 357 0 discriminator 2
 1781 044c 2C9E000D 		cmpwi 1,30,13
 1782              	.LBB1289:
 1783              	.LBB1288:
 1784              		.loc 1 294 0 discriminator 2
 1785 0450 409E00B4 		bne- 7,.L140
 1786              	.LBB1287:
 1787              	.LBB1286:
 1788              		.loc 1 294 0 is_stmt 0
 1789 0454 419A00B0 		beq- 6,.L140
 1790              	.LBE1286:
 1791              	.LBE1287:
 1792              	.LBE1288:
 1793              	.LBE1289:
 1794              		.loc 2 357 0 is_stmt 1
 1795 0458 418600AC 		beq- 1,.L140
 1796              	.LVL151:
 1797              	.L132:
 1798              	.LBE1272:
 1799              	.LBE1296:
 1800              		.loc 2 362 0
 1801 045c 8001001C 		lwz 0,28(1)
 1802 0460 7FE3FB78 		mr 3,31
 1803 0464 83A1000C 		lwz 29,12(1)
 1804 0468 7C0803A6 		mtlr 0
 1805 046c 83C10010 		lwz 30,16(1)
 1806 0470 83E10014 		lwz 31,20(1)
 1807 0474 38210018 		addi 1,1,24
 1808              		.cfi_remember_state
 1809              	.LCFI30:
 1810              		.cfi_def_cfa_offset 0
 1811              		.cfi_restore 31
 1812              		.cfi_restore 30
 1813              		.cfi_restore 29
 1814 0478 4E800020 		blr
 1815              	.LVL152:
 1816              	.L138:
 1817              	.LCFI31:
 1818              		.cfi_restore_state
 1819              	.LBB1297:
 1820              	.LBB1293:
 1821              	.LBB1290:
 1822              	.LBB1274:
 1823              		.loc 2 350 0
 1824 047c 3BFF0001 		addi 31,31,1
 1825              	.LVL153:
 1826              	.L136:
 1827              	.LBE1274:
 1828              		.loc 2 322 0 discriminator 1
 1829 0480 8BDF0000 		lbz 30,0(31)
 1830 0484 2F9E0000 		cmpwi 7,30,0
 1831 0488 41BEFFD4 		beq- 7,.L132
 1832              	.L144:
 1833              	.LVL154:
 1834              	.LBB1279:
 1835              		.loc 2 327 0
 1836 048c 2F9E00EF 		cmpwi 7,30,239
 1837 0490 419E0044 		beq- 7,.L150
 1838              	.L134:
 1839              	.LVL155:
 1840              	.LBB1275:
 1841              	.LBB1276:
 1842              		.loc 1 294 0
 1843 0494 7FC3F378 		mr 3,30
 1844 0498 48000001 		bl isspace
 1845 049c 2F830000 		cmpwi 7,3,0
 1846 04a0 40BEFFDC 		bne- 7,.L138
 1847              	.LVL156:
 1848              	.LBB1277:
 1849              	.LBB1278:
 1850 04a4 2F9E000A 		cmpwi 7,30,10
 1851 04a8 41BEFFD4 		beq- 7,.L138
 1852              	.LBE1278:
 1853              	.LBE1277:
 1854              	.LBE1276:
 1855              	.LBE1275:
 1856              		.loc 2 349 0
 1857 04ac 2F9E000D 		cmpwi 7,30,13
 1858 04b0 419EFFCC 		beq+ 7,.L138
 1859              	.LBE1279:
 1860              	.LBE1290:
 1861              	.LBE1293:
 1862              	.LBE1297:
 1863              		.loc 2 362 0
 1864 04b4 8001001C 		lwz 0,28(1)
 1865 04b8 7FE3FB78 		mr 3,31
 1866 04bc 83A1000C 		lwz 29,12(1)
 1867 04c0 7C0803A6 		mtlr 0
 1868 04c4 83C10010 		lwz 30,16(1)
 1869              	.LVL157:
 1870 04c8 83E10014 		lwz 31,20(1)
 1871              	.LVL158:
 1872 04cc 38210018 		addi 1,1,24
 1873              		.cfi_remember_state
 1874              		.cfi_restore 29
 1875              		.cfi_restore 30
 1876              		.cfi_restore 31
 1877              	.LCFI32:
 1878              		.cfi_def_cfa_offset 0
 1879 04d0 4E800020 		blr
 1880              	.LVL159:
 1881              	.L150:
 1882              	.LCFI33:
 1883              		.cfi_restore_state
 1884              	.LBB1298:
 1885              	.LBB1294:
 1886              	.LBB1291:
 1887              	.LBB1280:
 1888              		.loc 2 327 0 discriminator 1
 1889 04d4 881F0001 		lbz 0,1(31)
 1890 04d8 2F8000BB 		cmpwi 7,0,187
 1891 04dc 419E0058 		beq- 7,.L151
 1892              		.loc 2 334 0 discriminator 1
 1893 04e0 2F8000BF 		cmpwi 7,0,191
 1894 04e4 409EFFB0 		bne+ 7,.L134
 1895              		.loc 2 334 0 is_stmt 0 discriminator 2
 1896 04e8 881F0002 		lbz 0,2(31)
 1897 04ec 2F8000BE 		cmpwi 7,0,190
 1898 04f0 419E000C 		beq- 7,.L142
 1899              		.loc 2 341 0 is_stmt 1
 1900 04f4 2F8000BF 		cmpwi 7,0,191
 1901 04f8 409EFF9C 		bne+ 7,.L134
 1902              	.L142:
 1903              		.loc 2 345 0
 1904 04fc 3BFF0003 		addi 31,31,3
 1905              	.LVL160:
 1906              		.loc 2 346 0
 1907 0500 4BFFFF80 		b .L136
 1908              	.LVL161:
 1909              	.L140:
 1910              	.LBE1280:
 1911              	.LBE1291:
 1912              		.loc 2 357 0 discriminator 5
 1913 0504 8FDD0001 		lbzu 30,1(29)
 1914              	.LVL162:
 1915              		.loc 2 358 0 discriminator 5
 1916 0508 3BFF0001 		addi 31,31,1
 1917              	.LVL163:
 1918              		.loc 2 357 0 discriminator 5
 1919 050c 2F9E0000 		cmpwi 7,30,0
 1920 0510 40BEFF2C 		bne- 7,.L145
 1921              	.LBE1294:
 1922              	.LBE1298:
 1923              		.loc 2 362 0
 1924 0514 8001001C 		lwz 0,28(1)
 1925 0518 7FE3FB78 		mr 3,31
 1926 051c 83A1000C 		lwz 29,12(1)
 1927 0520 7C0803A6 		mtlr 0
 1928 0524 83C10010 		lwz 30,16(1)
 1929 0528 83E10014 		lwz 31,20(1)
 1930              	.LVL164:
 1931 052c 38210018 		addi 1,1,24
 1932              		.cfi_remember_state
 1933              		.cfi_restore 29
 1934              		.cfi_restore 30
 1935              		.cfi_restore 31
 1936              	.LCFI34:
 1937              		.cfi_def_cfa_offset 0
 1938 0530 4E800020 		blr
 1939              	.LVL165:
 1940              	.L151:
 1941              	.LCFI35:
 1942              		.cfi_restore_state
 1943              	.LBB1299:
 1944              	.LBB1295:
 1945              	.LBB1292:
 1946              	.LBB1281:
 1947              		.loc 2 327 0 discriminator 2
 1948 0534 881F0002 		lbz 0,2(31)
 1949 0538 2F8000BF 		cmpwi 7,0,191
 1950 053c 409EFF58 		bne+ 7,.L134
 1951              		.loc 2 345 0
 1952 0540 3BFF0003 		addi 31,31,3
 1953              	.LVL166:
 1954 0544 4BFFFF3C 		b .L136
 1955              	.LVL167:
 1956              	.L143:
 1957              	.LBE1281:
 1958              	.LBE1292:
 1959              	.LBE1295:
 1960              		.loc 2 318 0
 1961 0548 3BE00000 		li 31,0
 1962 054c 4BFFFF10 		b .L132
 1963              	.LBE1299:
 1964              		.cfi_endproc
 1965              	.LFE1225:
 1966              		.size	_ZN9TiXmlBase14SkipWhiteSpaceEPKc13TiXmlEncoding, .-_ZN9TiXmlBase14SkipWhiteSpaceEPKc13TiXml
 1967              		.align 2
 1968              		.globl _ZN9TiXmlBase16StreamWhiteSpaceEPSiPSs
 1969              		.type	_ZN9TiXmlBase16StreamWhiteSpaceEPSiPSs, @function
 1970              	_ZN9TiXmlBase16StreamWhiteSpaceEPSiPSs:
 1971              	.LFB1226:
 1972              		.loc 2 366 0
 1973              		.cfi_startproc
 1974              	.LVL168:
 1975 0550 7C0802A6 		mflr 0
 1976 0554 9421FFE8 		stwu 1,-24(1)
 1977              	.LCFI36:
 1978              		.cfi_def_cfa_offset 24
 1979              		.cfi_register 65, 0
 1980 0558 93C10010 		stw 30,16(1)
 1981 055c 7C9E2378 		mr 30,4
 1982              		.cfi_offset 30, -8
 1983 0560 93E10014 		stw 31,20(1)
 1984 0564 7C7F1B78 		mr 31,3
 1985              		.cfi_offset 31, -4
 1986 0568 9001001C 		stw 0,28(1)
 1987 056c 93810008 		stw 28,8(1)
 1988 0570 93A1000C 		stw 29,12(1)
 1989 0574 48000084 		b .L167
 1990              		.cfi_offset 29, -12
 1991              		.cfi_offset 28, -16
 1992              		.cfi_offset 65, 4
 1993              	.LVL169:
 1994              	.L172:
 1995              	.LBB1344:
 1996              	.LBB1345:
 1997              	.LBB1346:
 1998              		.loc 1 299 0
 1999 0578 547C063E 		rlwinm 28,3,0,0xff
 2000              	.LVL170:
 2001              	.LBB1347:
 2002              	.LBB1348:
 2003              		.loc 1 294 0
 2004 057c 7F83E378 		mr 3,28
 2005              	.LVL171:
 2006 0580 48000001 		bl isspace
 2007 0584 2F830000 		cmpwi 7,3,0
 2008 0588 409E0014 		bne- 7,.L154
 2009              	.LVL172:
 2010              	.LBB1349:
 2011              	.LBB1350:
 2012 058c 2F9C000A 		cmpwi 7,28,10
 2013 0590 419E000C 		beq- 7,.L154
 2014              	.LBE1350:
 2015              	.LBE1349:
 2016              	.LBE1348:
 2017              	.LBE1347:
 2018              	.LBE1346:
 2019              	.LBE1345:
 2020              		.loc 2 373 0
 2021 0594 2F9C000D 		cmpwi 7,28,13
 2022 0598 409E008C 		bne- 7,.L164
 2023              	.LVL173:
 2024              	.L154:
 2025              		.loc 2 373 0 is_stmt 0 discriminator 2
 2026 059c 2F9D0000 		cmpwi 7,29,0
 2027 05a0 409D0084 		ble- 7,.L164
 2028              		.loc 2 376 0 is_stmt 1
 2029 05a4 7FE3FB78 		mr 3,31
 2030 05a8 48000001 		bl _ZNSi3getEv
 2031              	.LBB1353:
 2032              	.LBB1354:
 2033              	.LBB1355:
 2034              	.LBB1356:
 2035              	.LBB1357:
 2036              	.LBB1358:
 2037              	.LBB1359:
 2038              	.LBB1360:
 2039              		.loc 4 288 0
 2040 05ac 813E0000 		lwz 9,0(30)
 2041              	.LBE1360:
 2042              	.LBE1359:
 2043              	.LBE1358:
 2044              	.LBE1357:
 2045              	.LBE1356:
 2046              	.LBE1355:
 2047              	.LBE1354:
 2048              	.LBE1353:
 2049              		.loc 2 376 0
 2050 05b0 547D063E 		rlwinm 29,3,0,0xff
 2051              	.LVL174:
 2052              	.LBB1386:
 2053              	.LBB1383:
 2054              	.LBB1380:
 2055              	.LBB1362:
 2056              	.LBB1361:
 2057              		.loc 4 711 0
 2058 05b4 8169FFF4 		lwz 11,-12(9)
 2059              	.LBE1361:
 2060              	.LBE1362:
 2061              		.loc 4 1046 0
 2062 05b8 8009FFF8 		lwz 0,-8(9)
 2063              		.loc 4 1045 0
 2064 05bc 3B8B0001 		addi 28,11,1
 2065              	.LVL175:
 2066              		.loc 4 1046 0
 2067 05c0 7F9C0040 		cmplw 7,28,0
 2068 05c4 409D0084 		ble- 7,.L170
 2069              	.LVL176:
 2070              	.L159:
 2071              		.loc 4 1047 0
 2072 05c8 7FC3F378 		mr 3,30
 2073 05cc 7F84E378 		mr 4,28
 2074 05d0 48000001 		bl _ZNSs7reserveEj
 2075 05d4 813E0000 		lwz 9,0(30)
 2076 05d8 8169FFF4 		lwz 11,-12(9)
 2077              	.L156:
 2078              	.LVL177:
 2079              	.LBB1363:
 2080              	.LBB1364:
 2081              		.file 6 "d:\\devkitpro\\devkitppc\\bin\\../lib/gcc/powerpc-eabi/4.6.3/../../../../powerpc-eabi/inc
 2082              		.loc 6 245 0
 2083 05dc 7FA959AE 		stbx 29,9,11
 2084              	.LVL178:
 2085              	.LBE1364:
 2086              	.LBE1363:
 2087              	.LBB1365:
 2088              	.LBB1366:
 2089              		.loc 4 205 0
 2090 05e0 3D400000 		lis 10,_ZNSs4_Rep20_S_empty_rep_storageE@ha
 2091 05e4 380A0000 		la 0,_ZNSs4_Rep20_S_empty_rep_storageE@l(10)
 2092              	.LBE1366:
 2093              	.LBE1365:
 2094              	.LBB1375:
 2095              	.LBB1376:
 2096              	.LBB1377:
 2097              		.loc 4 288 0
 2098 05e8 813E0000 		lwz 9,0(30)
 2099              	.LVL179:
 2100              	.LBE1377:
 2101              	.LBE1376:
 2102              	.LBE1375:
 2103              		.loc 4 1049 0
 2104 05ec 3969FFF4 		addi 11,9,-12
 2105              	.LBB1378:
 2106              	.LBB1373:
 2107              		.loc 4 205 0
 2108 05f0 7F8B0000 		cmpw 7,11,0
 2109 05f4 409E0088 		bne- 7,.L171
 2110              	.LVL180:
 2111              	.L167:
 2112              	.LBE1373:
 2113              	.LBE1378:
 2114              	.LBE1380:
 2115              	.LBE1383:
 2116              	.LBE1386:
 2117              		.loc 2 369 0
 2118 05f8 813F0000 		lwz 9,0(31)
 2119              	.LBB1387:
 2120              		.loc 2 1638 0
 2121 05fc 8129FFF4 		lwz 9,-12(9)
 2122 0600 7D3F4A14 		add 9,31,9
 2123              	.LBE1387:
 2124              		.loc 2 369 0
 2125 0604 80090014 		lwz 0,20(9)
 2126 0608 2F800000 		cmpwi 7,0,0
 2127 060c 409E004C 		bne- 7,.L161
 2128              		.loc 2 371 0
 2129 0610 7FE3FB78 		mr 3,31
 2130 0614 48000001 		bl _ZNSi4peekEv
 2131              	.LVL181:
 2132              	.LBB1388:
 2133              	.LBB1351:
 2134              		.loc 1 298 0
 2135 0618 2F8300FF 		cmpwi 7,3,255
 2136              	.LBE1351:
 2137              	.LBE1388:
 2138              		.loc 2 371 0
 2139 061c 7C7D1B78 		mr 29,3
 2140              	.LVL182:
 2141              	.LBB1389:
 2142              	.LBB1352:
 2143              		.loc 1 298 0
 2144 0620 40BDFF58 		ble- 7,.L172
 2145              	.LVL183:
 2146              	.L164:
 2147              	.LBE1352:
 2148              	.LBE1389:
 2149              	.LBE1344:
 2150              		.loc 2 378 0
 2151 0624 8001001C 		lwz 0,28(1)
 2152              	.LBB1392:
 2153              		.loc 2 374 0
 2154 0628 38600001 		li 3,1
 2155              	.LBE1392:
 2156              		.loc 2 378 0
 2157 062c 83810008 		lwz 28,8(1)
 2158 0630 7C0803A6 		mtlr 0
 2159 0634 83A1000C 		lwz 29,12(1)
 2160              	.LVL184:
 2161 0638 83C10010 		lwz 30,16(1)
 2162              	.LVL185:
 2163 063c 83E10014 		lwz 31,20(1)
 2164              	.LVL186:
 2165 0640 38210018 		addi 1,1,24
 2166              		.cfi_remember_state
 2167              	.LCFI37:
 2168              		.cfi_def_cfa_offset 0
 2169              		.cfi_restore 31
 2170              		.cfi_restore 30
 2171              		.cfi_restore 29
 2172              		.cfi_restore 28
 2173 0644 4E800020 		blr
 2174              	.LVL187:
 2175              	.L170:
 2176              	.LCFI38:
 2177              		.cfi_restore_state
 2178              	.LBB1393:
 2179              	.LBB1390:
 2180              	.LBB1384:
 2181              	.LBB1381:
 2182              		.loc 4 1046 0
 2183 0648 8009FFFC 		lwz 0,-4(9)
 2184 064c 2F800000 		cmpwi 7,0,0
 2185 0650 419DFF78 		bgt+ 7,.L159
 2186 0654 4BFFFF88 		b .L156
 2187              	.LVL188:
 2188              	.L161:
 2189              	.LBE1381:
 2190              	.LBE1384:
 2191              	.LBE1390:
 2192              	.LBE1393:
 2193              		.loc 2 378 0
 2194 0658 8001001C 		lwz 0,28(1)
 2195              	.LBB1394:
 2196              		.loc 2 369 0
 2197 065c 38600000 		li 3,0
 2198              	.LBE1394:
 2199              		.loc 2 378 0
 2200 0660 83810008 		lwz 28,8(1)
 2201 0664 7C0803A6 		mtlr 0
 2202 0668 83A1000C 		lwz 29,12(1)
 2203 066c 83C10010 		lwz 30,16(1)
 2204              	.LVL189:
 2205 0670 83E10014 		lwz 31,20(1)
 2206              	.LVL190:
 2207 0674 38210018 		addi 1,1,24
 2208              		.cfi_remember_state
 2209              		.cfi_restore 28
 2210              		.cfi_restore 29
 2211              		.cfi_restore 30
 2212              		.cfi_restore 31
 2213              	.LCFI39:
 2214              		.cfi_def_cfa_offset 0
 2215 0678 4E800020 		blr
 2216              	.LVL191:
 2217              	.L171:
 2218              	.LCFI40:
 2219              		.cfi_restore_state
 2220              	.LBB1395:
 2221              	.LBB1391:
 2222              	.LBB1385:
 2223              	.LBB1382:
 2224              	.LBB1379:
 2225              	.LBB1374:
 2226              	.LBB1367:
 2227              	.LBB1368:
 2228              		.loc 4 199 0
 2229 067c 38000000 		li 0,0
 2230              	.LBE1368:
 2231              	.LBE1367:
 2232              		.loc 4 209 0
 2233 0680 9389FFF4 		stw 28,-12(9)
 2234              	.LVL192:
 2235              	.LBB1370:
 2236              	.LBB1369:
 2237              		.loc 4 199 0
 2238 0684 9009FFFC 		stw 0,-4(9)
 2239              	.LBE1369:
 2240              	.LBE1370:
 2241              	.LBB1371:
 2242              	.LBB1372:
 2243              		.loc 6 245 0
 2244 0688 7C09E1AE 		stbx 0,9,28
 2245 068c 4BFFFF6C 		b .L167
 2246              	.LBE1372:
 2247              	.LBE1371:
 2248              	.LBE1374:
 2249              	.LBE1379:
 2250              	.LBE1382:
 2251              	.LBE1385:
 2252              	.LBE1391:
 2253              	.LBE1395:
 2254              		.cfi_endproc
 2255              	.LFE1226:
 2256              		.size	_ZN9TiXmlBase16StreamWhiteSpaceEPSiPSs, .-_ZN9TiXmlBase16StreamWhiteSpaceEPSiPSs
 2257              		.align 2
 2258              		.globl _ZN9TiXmlBase8StreamToEPSiiPSs
 2259              		.type	_ZN9TiXmlBase8StreamToEPSiiPSs, @function
 2260              	_ZN9TiXmlBase8StreamToEPSiiPSs:
 2261              	.LFB1227:
 2262              		.loc 2 381 0
 2263              		.cfi_startproc
 2264              	.LVL193:
 2265 0690 7C0802A6 		mflr 0
 2266 0694 9421FFE0 		stwu 1,-32(1)
 2267              	.LCFI41:
 2268              		.cfi_def_cfa_offset 32
 2269              		.cfi_register 65, 0
 2270 0698 93A10014 		stw 29,20(1)
 2271 069c 7CBD2B78 		mr 29,5
 2272              		.cfi_offset 29, -12
 2273 06a0 93C10018 		stw 30,24(1)
 2274 06a4 7C9E2378 		mr 30,4
 2275              		.cfi_offset 30, -8
 2276 06a8 93E1001C 		stw 31,28(1)
 2277 06ac 7C7F1B78 		mr 31,3
 2278              		.cfi_offset 31, -4
 2279 06b0 90010024 		stw 0,36(1)
 2280 06b4 9361000C 		stw 27,12(1)
 2281 06b8 93810010 		stw 28,16(1)
 2282              	.LBB1435:
 2283              		.loc 2 383 0
 2284 06bc 4800007C 		b .L184
 2285              		.cfi_offset 28, -16
 2286              		.cfi_offset 27, -20
 2287              		.cfi_offset 65, 4
 2288              	.LVL194:
 2289              	.L179:
 2290              	.LBB1436:
 2291              		.loc 2 385 0
 2292 06c0 48000001 		bl _ZNSi4peekEv
 2293              	.LVL195:
 2294 06c4 7C7B1B78 		mr 27,3
 2295              	.LVL196:
 2296              		.loc 2 391 0
 2297 06c8 7FE3FB78 		mr 3,31
 2298              	.LVL197:
 2299              		.loc 2 386 0
 2300 06cc 7F9BF000 		cmpw 7,27,30
 2301              		.loc 2 388 0
 2302 06d0 2F1B0000 		cmpwi 6,27,0
 2303              		.loc 2 392 0
 2304 06d4 577B063E 		rlwinm 27,27,0,0xff
 2305              	.LVL198:
 2306              		.loc 2 386 0
 2307 06d8 419E00A4 		beq- 7,.L180
 2308              		.loc 2 388 0
 2309 06dc 40990078 		ble- 6,.L181
 2310              		.loc 2 391 0
 2311 06e0 48000001 		bl _ZNSi3getEv
 2312              	.LVL199:
 2313              	.LBB1437:
 2314              	.LBB1438:
 2315              	.LBB1439:
 2316              	.LBB1440:
 2317              	.LBB1441:
 2318              	.LBB1442:
 2319              	.LBB1443:
 2320              	.LBB1444:
 2321              		.loc 4 288 0
 2322 06e4 813D0000 		lwz 9,0(29)
 2323              	.LBE1444:
 2324              	.LBE1443:
 2325              	.LBE1442:
 2326              	.LBE1441:
 2327              	.LBE1440:
 2328              		.loc 4 1047 0
 2329 06e8 7FA3EB78 		mr 3,29
 2330              	.LBB1446:
 2331              	.LBB1445:
 2332              		.loc 4 711 0
 2333 06ec 8169FFF4 		lwz 11,-12(9)
 2334              	.LBE1445:
 2335              	.LBE1446:
 2336              		.loc 4 1046 0
 2337 06f0 8009FFF8 		lwz 0,-8(9)
 2338              		.loc 4 1045 0
 2339 06f4 3B8B0001 		addi 28,11,1
 2340              	.LVL200:
 2341              		.loc 4 1046 0
 2342 06f8 7F9C0040 		cmplw 7,28,0
 2343              		.loc 4 1047 0
 2344 06fc 7F84E378 		mr 4,28
 2345              		.loc 4 1046 0
 2346 0700 419D0010 		bgt- 7,.L176
 2347              	.LVL201:
 2348 0704 8009FFFC 		lwz 0,-4(9)
 2349 0708 2F800000 		cmpwi 7,0,0
 2350 070c 409D0010 		ble- 7,.L177
 2351              	.L176:
 2352              		.loc 4 1047 0
 2353 0710 48000001 		bl _ZNSs7reserveEj
 2354 0714 813D0000 		lwz 9,0(29)
 2355 0718 8169FFF4 		lwz 11,-12(9)
 2356              	.L177:
 2357              	.LVL202:
 2358              	.LBB1447:
 2359              	.LBB1448:
 2360              		.loc 6 245 0
 2361 071c 7F6959AE 		stbx 27,9,11
 2362              	.LVL203:
 2363              	.LBE1448:
 2364              	.LBE1447:
 2365              	.LBB1449:
 2366              	.LBB1450:
 2367              		.loc 4 205 0
 2368 0720 3D400000 		lis 10,_ZNSs4_Rep20_S_empty_rep_storageE@ha
 2369 0724 380A0000 		la 0,_ZNSs4_Rep20_S_empty_rep_storageE@l(10)
 2370              	.LBE1450:
 2371              	.LBE1449:
 2372              	.LBB1459:
 2373              	.LBB1460:
 2374              	.LBB1461:
 2375              		.loc 4 288 0
 2376 0728 813D0000 		lwz 9,0(29)
 2377              	.LVL204:
 2378              	.LBE1461:
 2379              	.LBE1460:
 2380              	.LBE1459:
 2381              		.loc 4 1049 0
 2382 072c 3969FFF4 		addi 11,9,-12
 2383              	.LBB1462:
 2384              	.LBB1457:
 2385              		.loc 4 205 0
 2386 0730 7F8B0000 		cmpw 7,11,0
 2387 0734 409E0070 		bne- 7,.L185
 2388              	.LVL205:
 2389              	.L184:
 2390              	.LBE1457:
 2391              	.LBE1462:
 2392              	.LBE1439:
 2393              	.LBE1438:
 2394              	.LBE1437:
 2395              	.LBE1436:
 2396              		.loc 2 383 0 discriminator 1
 2397 0738 813F0000 		lwz 9,0(31)
 2398              	.LBB1467:
 2399              		.loc 2 385 0 discriminator 1
 2400 073c 7FE3FB78 		mr 3,31
 2401              	.LBE1467:
 2402              	.LBB1468:
 2403              		.loc 2 1638 0 discriminator 1
 2404 0740 8129FFF4 		lwz 9,-12(9)
 2405 0744 7D3F4A14 		add 9,31,9
 2406              	.LBE1468:
 2407              		.loc 2 383 0 discriminator 1
 2408 0748 80090014 		lwz 0,20(9)
 2409 074c 2F800000 		cmpwi 7,0,0
 2410 0750 419EFF70 		beq+ 7,.L179
 2411              	.LVL206:
 2412              	.L181:
 2413              	.LBE1435:
 2414              		.loc 2 395 0
 2415 0754 80010024 		lwz 0,36(1)
 2416              	.LBB1472:
 2417              	.LBB1469:
 2418              		.loc 2 389 0
 2419 0758 38600000 		li 3,0
 2420              	.LBE1469:
 2421              	.LBE1472:
 2422              		.loc 2 395 0
 2423 075c 8361000C 		lwz 27,12(1)
 2424 0760 7C0803A6 		mtlr 0
 2425 0764 83810010 		lwz 28,16(1)
 2426 0768 83A10014 		lwz 29,20(1)
 2427              	.LVL207:
 2428 076c 83C10018 		lwz 30,24(1)
 2429              	.LVL208:
 2430 0770 83E1001C 		lwz 31,28(1)
 2431              	.LVL209:
 2432 0774 38210020 		addi 1,1,32
 2433              		.cfi_remember_state
 2434              	.LCFI42:
 2435              		.cfi_def_cfa_offset 0
 2436              		.cfi_restore 31
 2437              		.cfi_restore 30
 2438              		.cfi_restore 29
 2439              		.cfi_restore 28
 2440              		.cfi_restore 27
 2441 0778 4E800020 		blr
 2442              	.LVL210:
 2443              	.L180:
 2444              	.LCFI43:
 2445              		.cfi_restore_state
 2446 077c 80010024 		lwz 0,36(1)
 2447              	.LBB1473:
 2448              	.LBB1470:
 2449              		.loc 2 387 0
 2450 0780 38600001 		li 3,1
 2451              	.LVL211:
 2452              	.LBE1470:
 2453              	.LBE1473:
 2454              		.loc 2 395 0
 2455 0784 8361000C 		lwz 27,12(1)
 2456 0788 7C0803A6 		mtlr 0
 2457 078c 83810010 		lwz 28,16(1)
 2458 0790 83A10014 		lwz 29,20(1)
 2459              	.LVL212:
 2460 0794 83C10018 		lwz 30,24(1)
 2461              	.LVL213:
 2462 0798 83E1001C 		lwz 31,28(1)
 2463              	.LVL214:
 2464 079c 38210020 		addi 1,1,32
 2465              		.cfi_remember_state
 2466              		.cfi_restore 27
 2467              		.cfi_restore 28
 2468              		.cfi_restore 29
 2469              		.cfi_restore 30
 2470              		.cfi_restore 31
 2471              	.LCFI44:
 2472              		.cfi_def_cfa_offset 0
 2473 07a0 4E800020 		blr
 2474              	.LVL215:
 2475              	.L185:
 2476              	.LCFI45:
 2477              		.cfi_restore_state
 2478              	.LBB1474:
 2479              	.LBB1471:
 2480              	.LBB1466:
 2481              	.LBB1465:
 2482              	.LBB1464:
 2483              	.LBB1463:
 2484              	.LBB1458:
 2485              	.LBB1451:
 2486              	.LBB1452:
 2487              		.loc 4 199 0
 2488 07a4 38000000 		li 0,0
 2489              	.LBE1452:
 2490              	.LBE1451:
 2491              		.loc 4 209 0
 2492 07a8 9389FFF4 		stw 28,-12(9)
 2493              	.LVL216:
 2494              	.LBB1454:
 2495              	.LBB1453:
 2496              		.loc 4 199 0
 2497 07ac 9009FFFC 		stw 0,-4(9)
 2498              	.LBE1453:
 2499              	.LBE1454:
 2500              	.LBB1455:
 2501              	.LBB1456:
 2502              		.loc 6 245 0
 2503 07b0 7C09E1AE 		stbx 0,9,28
 2504 07b4 4BFFFF84 		b .L184
 2505              	.LBE1456:
 2506              	.LBE1455:
 2507              	.LBE1458:
 2508              	.LBE1463:
 2509              	.LBE1464:
 2510              	.LBE1465:
 2511              	.LBE1466:
 2512              	.LBE1471:
 2513              	.LBE1474:
 2514              		.cfi_endproc
 2515              	.LFE1227:
 2516              		.size	_ZN9TiXmlBase8StreamToEPSiiPSs, .-_ZN9TiXmlBase8StreamToEPSiiPSs
 2517              		.align 2
 2518              		.globl _ZN9TiXmlBase8ReadNameEPKcPSs13TiXmlEncoding
 2519              		.type	_ZN9TiXmlBase8ReadNameEPKcPSs13TiXmlEncoding, @function
 2520              	_ZN9TiXmlBase8ReadNameEPKcPSs13TiXmlEncoding:
 2521              	.LFB1228:
 2522              		.loc 2 402 0
 2523              		.cfi_startproc
 2524              	.LVL217:
 2525 07b8 9421FFE0 		stwu 1,-32(1)
 2526              	.LCFI46:
 2527              		.cfi_def_cfa_offset 32
 2528 07bc 7C0802A6 		mflr 0
 2529              	.LBB1488:
 2530              	.LBB1489:
 2531              	.LBB1490:
 2532              	.LBB1491:
 2533              		.loc 4 1121 0
 2534 07c0 38A00000 		li 5,0
 2535              	.LVL218:
 2536              	.LBE1491:
 2537              	.LBE1490:
 2538              	.LBE1489:
 2539              	.LBE1488:
 2540              		.loc 2 402 0
 2541 07c4 93A10014 		stw 29,20(1)
 2542 07c8 7C9D2378 		mr 29,4
 2543              		.cfi_offset 29, -12
 2544              		.cfi_register 65, 0
 2545              	.LVL219:
 2546              	.LBB1514:
 2547              	.LBB1500:
 2548              	.LBB1496:
 2549              	.LBB1492:
 2550              		.loc 4 1121 0
 2551 07cc 3C800000 		lis 4,.LC7@ha
 2552              	.LVL220:
 2553              	.LBE1492:
 2554              	.LBE1496:
 2555              	.LBE1500:
 2556              	.LBE1514:
 2557              		.loc 2 402 0
 2558 07d0 93E1001C 		stw 31,28(1)
 2559              	.LBB1515:
 2560              	.LBB1501:
 2561              	.LBB1497:
 2562              	.LBB1493:
 2563              		.loc 4 1121 0
 2564 07d4 3884008C 		la 4,.LC7@l(4)
 2565              	.LBE1493:
 2566              	.LBE1497:
 2567              	.LBE1501:
 2568              	.LBE1515:
 2569              		.loc 2 402 0
 2570 07d8 7C7F1B78 		mr 31,3
 2571              		.cfi_offset 31, -4
 2572              	.LBB1516:
 2573              	.LBB1502:
 2574              	.LBB1498:
 2575              	.LBB1494:
 2576              		.loc 4 1121 0
 2577 07dc 7FA3EB78 		mr 3,29
 2578              	.LVL221:
 2579              	.LBE1494:
 2580              	.LBE1498:
 2581              	.LBE1502:
 2582              	.LBE1516:
 2583              		.loc 2 402 0
 2584 07e0 90010024 		stw 0,36(1)
 2585 07e4 9361000C 		stw 27,12(1)
 2586 07e8 93810010 		stw 28,16(1)
 2587 07ec 93C10018 		stw 30,24(1)
 2588              	.LBB1517:
 2589              	.LBB1503:
 2590              	.LBB1499:
 2591              	.LBB1495:
 2592              		.loc 4 1121 0
 2593              		.cfi_offset 30, -8
 2594              		.cfi_offset 28, -16
 2595              		.cfi_offset 27, -20
 2596              		.cfi_offset 65, 4
 2597 07f0 48000001 		bl _ZNSs6assignEPKcj
 2598              	.LBE1495:
 2599              	.LBE1499:
 2600              	.LBE1503:
 2601              		.loc 2 407 0
 2602 07f4 2F9F0000 		cmpwi 7,31,0
 2603 07f8 419E00F0 		beq- 7,.L196
 2604              	.LBB1504:
 2605              		.loc 2 416 0 discriminator 1
 2606 07fc 8B9F0000 		lbz 28,0(31)
 2607              		.loc 2 435 0 discriminator 1
 2608 0800 3BC00000 		li 30,0
 2609              		.loc 2 416 0 discriminator 1
 2610 0804 2F9C0000 		cmpwi 7,28,0
 2611 0808 419E0024 		beq- 7,.L188
 2612              	.LVL222:
 2613              	.LBB1505:
 2614              	.LBB1506:
 2615              		.loc 2 138 0 discriminator 3
 2616 080c 2B9C007E 		cmplwi 7,28,126
 2617 0810 419D0044 		bgt- 7,.L189
 2618              		.loc 2 139 0
 2619 0814 7F83E378 		mr 3,28
 2620 0818 48000001 		bl isalpha
 2621              	.LBE1506:
 2622              	.LBE1505:
 2623              		.loc 2 416 0
 2624 081c 2F830000 		cmpwi 7,3,0
 2625 0820 409E0034 		bne- 7,.L189
 2626              		.loc 2 416 0 is_stmt 0 discriminator 5
 2627 0824 2F9C005F 		cmpwi 7,28,95
 2628 0828 419E002C 		beq- 7,.L189
 2629              	.LVL223:
 2630              	.L188:
 2631              	.LBE1504:
 2632              	.LBE1517:
 2633              		.loc 2 436 0 is_stmt 1
 2634 082c 80010024 		lwz 0,36(1)
 2635 0830 7FC3F378 		mr 3,30
 2636 0834 8361000C 		lwz 27,12(1)
 2637 0838 7C0803A6 		mtlr 0
 2638 083c 83810010 		lwz 28,16(1)
 2639 0840 83A10014 		lwz 29,20(1)
 2640              	.LVL224:
 2641 0844 83C10018 		lwz 30,24(1)
 2642 0848 83E1001C 		lwz 31,28(1)
 2643 084c 38210020 		addi 1,1,32
 2644              		.cfi_remember_state
 2645              	.LCFI47:
 2646              		.cfi_def_cfa_offset 0
 2647              		.cfi_restore 31
 2648              		.cfi_restore 30
 2649              		.cfi_restore 29
 2650              		.cfi_restore 28
 2651              		.cfi_restore 27
 2652 0850 4E800020 		blr
 2653              	.LVL225:
 2654              	.L189:
 2655              	.LCFI48:
 2656              		.cfi_restore_state
 2657              	.LBB1518:
 2658              	.LBB1511:
 2659              		.loc 2 416 0 discriminator 4
 2660 0854 7FFBFB78 		mr 27,31
 2661              	.LBE1511:
 2662              	.LBE1518:
 2663              		.loc 2 401 0 discriminator 4
 2664 0858 7FFEFB78 		mr 30,31
 2665              	.LVL226:
 2666              	.L190:
 2667              	.LBB1519:
 2668              	.LBB1512:
 2669              	.LBB1507:
 2670              	.LBB1508:
 2671              	.LBB1509:
 2672              		.loc 2 159 0 discriminator 4
 2673 085c 2B9C007E 		cmplwi 7,28,126
 2674 0860 419D0070 		bgt- 7,.L192
 2675              		.loc 2 160 0
 2676 0864 7F83E378 		mr 3,28
 2677 0868 48000001 		bl isalnum
 2678              	.LBE1509:
 2679              	.LBE1508:
 2680              		.loc 2 420 0
 2681 086c 2F830000 		cmpwi 7,3,0
 2682 0870 409E0060 		bne- 7,.L192
 2683              		.loc 2 420 0 is_stmt 0 discriminator 6
 2684 0874 2F9C005F 		cmpwi 7,28,95
 2685 0878 419E0058 		beq- 7,.L192
 2686              		.loc 2 420 0 discriminator 7
 2687 087c 2F9C002D 		cmpwi 7,28,45
 2688 0880 419E0050 		beq- 7,.L192
 2689              		.loc 2 420 0 discriminator 8
 2690 0884 2F9C002E 		cmpwi 7,28,46
 2691 0888 419E0048 		beq- 7,.L192
 2692              		.loc 2 420 0 discriminator 9
 2693 088c 2F9C003A 		cmpwi 7,28,58
 2694 0890 419E0040 		beq- 7,.L192
 2695              	.LVL227:
 2696              	.L191:
 2697              		.loc 2 430 0 is_stmt 1
 2698 0894 7CBFF051 		subf. 5,31,30
 2699 0898 40A1FF94 		ble- 0,.L188
 2700              		.loc 2 431 0
 2701 089c 7FA3EB78 		mr 3,29
 2702 08a0 7FE4FB78 		mr 4,31
 2703 08a4 48000001 		bl _ZNSs6assignEPKcj
 2704              	.LBE1507:
 2705              	.LBE1512:
 2706              	.LBE1519:
 2707              		.loc 2 436 0
 2708 08a8 80010024 		lwz 0,36(1)
 2709 08ac 7FC3F378 		mr 3,30
 2710 08b0 8361000C 		lwz 27,12(1)
 2711 08b4 7C0803A6 		mtlr 0
 2712 08b8 83810010 		lwz 28,16(1)
 2713 08bc 83A10014 		lwz 29,20(1)
 2714              	.LVL228:
 2715 08c0 83C10018 		lwz 30,24(1)
 2716              	.LVL229:
 2717 08c4 83E1001C 		lwz 31,28(1)
 2718 08c8 38210020 		addi 1,1,32
 2719              		.cfi_remember_state
 2720              		.cfi_restore 27
 2721              		.cfi_restore 28
 2722              		.cfi_restore 29
 2723              		.cfi_restore 30
 2724              		.cfi_restore 31
 2725              	.LCFI49:
 2726              		.cfi_def_cfa_offset 0
 2727 08cc 4E800020 		blr
 2728              	.LVL230:
 2729              	.L192:
 2730              	.LCFI50:
 2731              		.cfi_restore_state
 2732              	.LBB1520:
 2733              	.LBB1513:
 2734              	.LBB1510:
 2735              		.loc 2 420 0 discriminator 10
 2736 08d0 37DE0001 		addic. 30,30,1
 2737              	.LVL231:
 2738 08d4 41A2FFC0 		beq- 0,.L191
 2739              		.loc 2 420 0 is_stmt 0 discriminator 2
 2740 08d8 8F9B0001 		lbzu 28,1(27)
 2741              	.LVL232:
 2742 08dc 2F9C0000 		cmpwi 7,28,0
 2743 08e0 41BEFFB4 		beq- 7,.L191
 2744 08e4 4BFFFF78 		b .L190
 2745              	.LVL233:
 2746              	.L196:
 2747              	.LBE1510:
 2748              	.LBE1513:
 2749              		.loc 2 407 0 is_stmt 1 discriminator 1
 2750 08e8 3CA00000 		lis 5,.LANCHOR1@ha
 2751 08ec 3C600000 		lis 3,.LC1@ha
 2752 08f0 38A50000 		la 5,.LANCHOR1@l(5)
 2753 08f4 3CC00000 		lis 6,.LC3@ha
 2754 08f8 38630000 		la 3,.LC1@l(3)
 2755 08fc 38800197 		li 4,407
 2756 0900 38A50458 		addi 5,5,1112
 2757 0904 38C60058 		la 6,.LC3@l(6)
 2758 0908 48000001 		bl __assert_func
 2759              	.LBE1520:
 2760              		.cfi_endproc
 2761              	.LFE1228:
 2762              		.size	_ZN9TiXmlBase8ReadNameEPKcPSs13TiXmlEncoding, .-_ZN9TiXmlBase8ReadNameEPKcPSs13TiXmlEncoding
 2763              		.align 2
 2764              		.globl _ZN9TiXmlBase9GetEntityEPKcPcPi13TiXmlEncoding
 2765              		.type	_ZN9TiXmlBase9GetEntityEPKcPcPi13TiXmlEncoding, @function
 2766              	_ZN9TiXmlBase9GetEntityEPKcPcPi13TiXmlEncoding:
 2767              	.LFB1229:
 2768              		.loc 2 439 0
 2769              		.cfi_startproc
 2770              		.cfi_personality 0,__gxx_personality_v0
 2771              		.cfi_lsda 0,.LLSDA1229
 2772              	.LVL234:
 2773 090c 9421FFC0 		stwu 1,-64(1)
 2774              	.LCFI51:
 2775              		.cfi_def_cfa_offset 64
 2776              	.LVL235:
 2777 0910 7C0802A6 		mflr 0
 2778 0914 9361002C 		stw 27,44(1)
 2779              	.LBB1555:
 2780              		.loc 2 443 0
 2781 0918 3B600000 		li 27,0
 2782              		.cfi_offset 27, -20
 2783              		.cfi_register 65, 0
 2784              	.LBE1555:
 2785              		.loc 2 439 0
 2786 091c 93810030 		stw 28,48(1)
 2787              	.LBB1603:
 2788              	.LBB1556:
 2789              	.LBB1557:
 2790              	.LBB1558:
 2791              		.loc 4 270 0
 2792 0920 3F800000 		lis 28,_ZNSs4_Rep20_S_empty_rep_storageE+12@ha
 2793              		.cfi_offset 28, -16
 2794              	.LBE1558:
 2795              	.LBE1557:
 2796              	.LBE1556:
 2797              	.LBE1603:
 2798              		.loc 2 439 0
 2799 0924 93A10034 		stw 29,52(1)
 2800              	.LBB1604:
 2801              	.LBB1563:
 2802              	.LBB1561:
 2803              	.LBB1559:
 2804              		.loc 4 270 0
 2805 0928 3B9C000C 		la 28,_ZNSs4_Rep20_S_empty_rep_storageE+12@l(28)
 2806              	.LBE1559:
 2807              	.LBE1561:
 2808              	.LBE1563:
 2809              	.LBE1604:
 2810              		.loc 2 439 0
 2811 092c 93C10038 		stw 30,56(1)
 2812 0930 7C9D2378 		mr 29,4
 2813              		.cfi_offset 30, -8
 2814              		.cfi_offset 29, -12
 2815 0934 93E1003C 		stw 31,60(1)
 2816 0938 7CBE2B78 		mr 30,5
 2817 093c 90010044 		stw 0,68(1)
 2818 0940 7C7F1B78 		mr 31,3
 2819              		.cfi_offset 65, 4
 2820              		.cfi_offset 31, -4
 2821 0944 93010020 		stw 24,32(1)
 2822 0948 93210024 		stw 25,36(1)
 2823 094c 93410028 		stw 26,40(1)
 2824              	.LBB1605:
 2825              		.loc 2 443 0
 2826 0950 93650000 		stw 27,0(5)
 2827              	.LBB1564:
 2828              	.LBB1562:
 2829              	.LBB1560:
 2830              		.loc 4 270 0
 2831 0954 9381000C 		stw 28,12(1)
 2832              	.LBE1560:
 2833              	.LBE1562:
 2834              	.LBE1564:
 2835              	.LBB1565:
 2836              		.loc 2 445 0
 2837 0958 88030001 		lbz 0,1(3)
 2838 095c 2F800023 		cmpwi 7,0,35
 2839 0960 419E0120 		beq- 7,.L241
 2840              		.cfi_offset 26, -24
 2841              		.cfi_offset 25, -28
 2842              		.cfi_offset 24, -32
 2843              	.L200:
 2844              	.LBE1565:
 2845              		.loc 2 517 0
 2846 0964 3D200000 		lis 9,.LANCHOR2@ha
 2847 0968 7FE4FB78 		mr 4,31
 2848              	.LVL236:
 2849 096c 3B690000 		la 27,.LANCHOR2@l(9)
 2850 0970 83290000 		lwz 25,.LANCHOR2@l(9)
 2851 0974 835B0004 		lwz 26,4(27)
 2852 0978 7F23CB78 		mr 3,25
 2853              	.LVL237:
 2854 097c 7F45D378 		mr 5,26
 2855              	.LVL238:
 2856 0980 48000001 		bl strncmp
 2857              	.LVL239:
 2858 0984 2F830000 		cmpwi 7,3,0
 2859 0988 419E0298 		beq- 7,.L223
 2860              	.LVL240:
 2861 098c 833B000C 		lwz 25,12(27)
 2862 0990 7FE4FB78 		mr 4,31
 2863 0994 835B0010 		lwz 26,16(27)
 2864 0998 7F23CB78 		mr 3,25
 2865 099c 7F45D378 		mr 5,26
 2866 09a0 48000001 		bl strncmp
 2867 09a4 2F830000 		cmpwi 7,3,0
 2868 09a8 419E02B4 		beq- 7,.L224
 2869              	.LVL241:
 2870 09ac 833B0018 		lwz 25,24(27)
 2871 09b0 7FE4FB78 		mr 4,31
 2872 09b4 835B001C 		lwz 26,28(27)
 2873 09b8 7F23CB78 		mr 3,25
 2874 09bc 7F45D378 		mr 5,26
 2875 09c0 48000001 		bl strncmp
 2876 09c4 2F830000 		cmpwi 7,3,0
 2877 09c8 419E029C 		beq- 7,.L225
 2878              	.LVL242:
 2879 09cc 833B0024 		lwz 25,36(27)
 2880 09d0 7FE4FB78 		mr 4,31
 2881 09d4 835B0028 		lwz 26,40(27)
 2882 09d8 7F23CB78 		mr 3,25
 2883 09dc 7F45D378 		mr 5,26
 2884 09e0 48000001 		bl strncmp
 2885 09e4 2F830000 		cmpwi 7,3,0
 2886 09e8 419E0284 		beq- 7,.L226
 2887              	.LVL243:
 2888 09ec 833B0030 		lwz 25,48(27)
 2889 09f0 7FE4FB78 		mr 4,31
 2890 09f4 835B0034 		lwz 26,52(27)
 2891 09f8 7F23CB78 		mr 3,25
 2892 09fc 7F45D378 		mr 5,26
 2893 0a00 48000001 		bl strncmp
 2894 0a04 2F830000 		cmpwi 7,3,0
 2895 0a08 419E026C 		beq- 7,.L242
 2896              	.LVL244:
 2897              		.loc 2 526 0
 2898 0a0c 3C600000 		lis 3,.LC9@ha
 2899 0a10 889F0000 		lbz 4,0(31)
 2900 0a14 386300C0 		la 3,.LC9@l(3)
 2901              	.LEHB0:
 2902 0a18 4CC63182 		crxor 6,6,6
 2903 0a1c 48000001 		bl printf
 2904              		.loc 2 528 0
 2905 0a20 881F0000 		lbz 0,0(31)
 2906              		.loc 2 531 0
 2907 0a24 3B3F0001 		addi 25,31,1
 2908 0a28 8121000C 		lwz 9,12(1)
 2909              		.loc 2 528 0
 2910 0a2c 981D0000 		stb 0,0(29)
 2911              		.loc 2 529 0
 2912 0a30 38000001 		li 0,1
 2913 0a34 901E0000 		stw 0,0(30)
 2914              	.LVL245:
 2915              	.L205:
 2916              	.LBB1581:
 2917              	.LBB1582:
 2918              	.LBB1583:
 2919              	.LBB1584:
 2920              	.LBB1585:
 2921              		.loc 4 235 0
 2922 0a38 3D600000 		lis 11,_ZNSs4_Rep20_S_empty_rep_storageE@ha
 2923              	.LBE1585:
 2924              	.LBE1584:
 2925              		.loc 4 534 0
 2926 0a3c 3869FFF4 		addi 3,9,-12
 2927              	.LVL246:
 2928              	.LBB1594:
 2929              	.LBB1592:
 2930              		.loc 4 235 0
 2931 0a40 380B0000 		la 0,_ZNSs4_Rep20_S_empty_rep_storageE@l(11)
 2932 0a44 7F830000 		cmpw 7,3,0
 2933 0a48 409E0250 		bne- 7,.L243
 2934              	.LVL247:
 2935              	.L221:
 2936              	.LBE1592:
 2937              	.LBE1594:
 2938              	.LBE1583:
 2939              	.LBE1582:
 2940              	.LBE1581:
 2941              	.LBE1605:
 2942              		.loc 2 532 0
 2943 0a4c 80010044 		lwz 0,68(1)
 2944 0a50 7F23CB78 		mr 3,25
 2945 0a54 83010020 		lwz 24,32(1)
 2946 0a58 7C0803A6 		mtlr 0
 2947 0a5c 83210024 		lwz 25,36(1)
 2948 0a60 83410028 		lwz 26,40(1)
 2949 0a64 8361002C 		lwz 27,44(1)
 2950 0a68 83810030 		lwz 28,48(1)
 2951 0a6c 83A10034 		lwz 29,52(1)
 2952              	.LVL248:
 2953 0a70 83C10038 		lwz 30,56(1)
 2954              	.LVL249:
 2955 0a74 83E1003C 		lwz 31,60(1)
 2956              	.LVL250:
 2957 0a78 38210040 		addi 1,1,64
 2958              		.cfi_remember_state
 2959              	.LCFI52:
 2960              		.cfi_def_cfa_offset 0
 2961              		.cfi_restore 31
 2962              		.cfi_restore 30
 2963              		.cfi_restore 29
 2964              		.cfi_restore 28
 2965              		.cfi_restore 27
 2966              		.cfi_restore 26
 2967              		.cfi_restore 25
 2968              		.cfi_restore 24
 2969 0a7c 4E800020 		blr
 2970              	.LVL251:
 2971              	.L241:
 2972              	.LCFI53:
 2973              		.cfi_restore_state
 2974              	.LBB1606:
 2975              	.LBB1598:
 2976              		.loc 2 445 0 discriminator 1
 2977 0a80 88030002 		lbz 0,2(3)
 2978 0a84 2F800000 		cmpwi 7,0,0
 2979 0a88 41BEFEDC 		beq- 7,.L200
 2980              	.LVL252:
 2981              	.LBB1566:
 2982              	.LBB1567:
 2983              		.loc 2 451 0
 2984 0a8c 2F800078 		cmpwi 7,0,120
 2985 0a90 419E00C4 		beq- 7,.L244
 2986              	.LVL253:
 2987              	.LBB1568:
 2988              		.loc 2 484 0
 2989 0a94 38630002 		addi 3,3,2
 2990              	.LVL254:
 2991 0a98 3880003B 		li 4,59
 2992              	.LVL255:
 2993 0a9c 90C10018 		stw 6,24(1)
 2994 0aa0 48000001 		bl strchr
 2995              	.LVL256:
 2996              		.loc 2 486 0
 2997 0aa4 7C6A1B79 		mr. 10,3
 2998 0aa8 7F89E378 		mr 9,28
 2999 0aac 3B200000 		li 25,0
 3000 0ab0 80C10018 		lwz 6,24(1)
 3001              	.LVL257:
 3002 0ab4 41A2FF84 		beq- 0,.L205
 3003              		.loc 2 486 0 is_stmt 0 discriminator 2
 3004 0ab8 880A0000 		lbz 0,0(10)
 3005 0abc 7F79DB78 		mr 25,27
 3006 0ac0 2F800000 		cmpwi 7,0,0
 3007 0ac4 41BEFF74 		beq- 7,.L205
 3008              		.loc 2 491 0 is_stmt 1
 3009 0ac8 892AFFFF 		lbz 9,-1(10)
 3010              		.loc 2 488 0
 3011 0acc 7F5F5050 		subf 26,31,10
 3012              	.LVL258:
 3013              		.loc 2 491 0
 3014 0ad0 2F890023 		cmpwi 7,9,35
 3015 0ad4 419E01BC 		beq- 7,.L235
 3016              		.loc 2 493 0
 3017 0ad8 3809FFD0 		addi 0,9,-48
 3018 0adc 5409063E 		rlwinm 9,0,0,0xff
 3019 0ae0 2B890009 		cmplwi 7,9,9
 3020 0ae4 7F89E378 		mr 9,28
 3021 0ae8 41BDFF50 		bgt- 7,.L205
 3022              		.loc 2 438 0
 3023 0aec 394AFFFF 		addi 10,10,-1
 3024              	.LBE1568:
 3025              	.LBE1567:
 3026              	.LBE1566:
 3027              	.LBE1598:
 3028              	.LBE1606:
 3029              		.loc 2 449 0
 3030 0af0 39600001 		li 11,1
 3031              		.loc 2 447 0
 3032 0af4 38600000 		li 3,0
 3033              	.LVL259:
 3034 0af8 48000014 		b .L211
 3035              	.LVL260:
 3036              	.L212:
 3037              	.LBB1607:
 3038              	.LBB1599:
 3039              	.LBB1578:
 3040              	.LBB1574:
 3041              	.LBB1569:
 3042              		.loc 2 493 0
 3043 0afc 3809FFD0 		addi 0,9,-48
 3044 0b00 5409063E 		rlwinm 9,0,0,0xff
 3045 0b04 2B890009 		cmplwi 7,9,9
 3046 0b08 419D0040 		bgt- 7,.L237
 3047              	.LVL261:
 3048              	.L211:
 3049              		.loc 2 491 0
 3050 0b0c 8D2AFFFF 		lbzu 9,-1(10)
 3051              		.loc 2 494 0
 3052 0b10 7C0059D6 		mullw 0,0,11
 3053              		.loc 2 491 0
 3054 0b14 2F890023 		cmpwi 7,9,35
 3055              		.loc 2 494 0
 3056 0b18 7C630214 		add 3,3,0
 3057              	.LVL262:
 3058              		.loc 2 497 0
 3059 0b1c 1D6B000A 		mulli 11,11,10
 3060              	.LVL263:
 3061              		.loc 2 491 0
 3062 0b20 409EFFDC 		bne+ 7,.L212
 3063              	.LVL264:
 3064              	.L206:
 3065              	.LBE1569:
 3066              	.LBE1574:
 3067              		.loc 2 501 0
 3068 0b24 2F860001 		cmpwi 7,6,1
 3069 0b28 419E0154 		beq- 7,.L245
 3070              		.loc 2 509 0
 3071 0b2c 38000001 		li 0,1
 3072              		.loc 2 508 0
 3073 0b30 987D0000 		stb 3,0(29)
 3074              		.loc 2 509 0
 3075 0b34 901E0000 		stw 0,0(30)
 3076 0b38 7F89E378 		mr 9,28
 3077              	.LVL265:
 3078              	.L214:
 3079              		.loc 2 511 0
 3080 0b3c 3B5A0001 		addi 26,26,1
 3081              	.LVL266:
 3082 0b40 7F3FD214 		add 25,31,26
 3083 0b44 4BFFFEF4 		b .L205
 3084              	.LVL267:
 3085              	.L237:
 3086              	.LBB1575:
 3087              	.LBB1570:
 3088              		.loc 2 493 0
 3089 0b48 7F89E378 		mr 9,28
 3090              		.loc 2 496 0
 3091 0b4c 3B200000 		li 25,0
 3092 0b50 4BFFFEE8 		b .L205
 3093              	.LVL268:
 3094              	.L244:
 3095              	.LBE1570:
 3096              	.LBB1571:
 3097              		.loc 2 454 0
 3098 0b54 88030003 		lbz 0,3(3)
 3099 0b58 7F89E378 		mr 9,28
 3100 0b5c 3B200000 		li 25,0
 3101 0b60 2F800000 		cmpwi 7,0,0
 3102 0b64 41BEFED4 		beq- 7,.L205
 3103              	.LVL269:
 3104              		.loc 2 457 0
 3105 0b68 38630003 		addi 3,3,3
 3106 0b6c 3880003B 		li 4,59
 3107 0b70 90C10018 		stw 6,24(1)
 3108 0b74 48000001 		bl strchr
 3109              	.LVL270:
 3110              		.loc 2 459 0
 3111 0b78 7C6A1B79 		mr. 10,3
 3112 0b7c 7F89E378 		mr 9,28
 3113 0b80 7F79DB78 		mr 25,27
 3114 0b84 80C10018 		lwz 6,24(1)
 3115              	.LVL271:
 3116 0b88 41A2FEB0 		beq- 0,.L205
 3117              		.loc 2 459 0 is_stmt 0 discriminator 2
 3118 0b8c 880A0000 		lbz 0,0(10)
 3119 0b90 2F800000 		cmpwi 7,0,0
 3120 0b94 41BEFEA4 		beq- 7,.L205
 3121              		.loc 2 464 0 is_stmt 1
 3122 0b98 892AFFFF 		lbz 9,-1(10)
 3123              		.loc 2 461 0
 3124 0b9c 7F5F5050 		subf 26,31,10
 3125              	.LVL272:
 3126              		.loc 2 464 0
 3127 0ba0 2F890078 		cmpwi 7,9,120
 3128 0ba4 419E00EC 		beq- 7,.L235
 3129              		.loc 2 438 0
 3130 0ba8 394AFFFF 		addi 10,10,-1
 3131              	.LBE1571:
 3132              	.LBE1575:
 3133              	.LBE1578:
 3134              	.LBE1599:
 3135              	.LBE1607:
 3136              		.loc 2 449 0
 3137 0bac 38000001 		li 0,1
 3138              		.loc 2 447 0
 3139 0bb0 38600000 		li 3,0
 3140              	.LVL273:
 3141 0bb4 4800001C 		b .L210
 3142              	.LVL274:
 3143              	.L246:
 3144              	.LBB1608:
 3145              	.LBB1600:
 3146              	.LBB1579:
 3147              	.LBB1576:
 3148              	.LBB1572:
 3149              		.loc 2 467 0
 3150 0bb8 7D6B01D6 		mullw 11,11,0
 3151 0bbc 7C635A14 		add 3,3,11
 3152              	.LVL275:
 3153              	.L208:
 3154              		.loc 2 464 0
 3155 0bc0 8D2AFFFF 		lbzu 9,-1(10)
 3156              		.loc 2 474 0
 3157 0bc4 54002036 		slwi 0,0,4
 3158              	.LVL276:
 3159              		.loc 2 464 0
 3160 0bc8 2F890078 		cmpwi 7,9,120
 3161 0bcc 41BEFF58 		beq- 7,.L206
 3162              	.LVL277:
 3163              	.L210:
 3164              		.loc 2 466 0
 3165 0bd0 3969FFD0 		addi 11,9,-48
 3166 0bd4 5568063E 		rlwinm 8,11,0,0xff
 3167 0bd8 2B880009 		cmplwi 7,8,9
 3168 0bdc 40BDFFDC 		ble- 7,.L246
 3169              		.loc 2 468 0
 3170 0be0 3969FF9F 		addi 11,9,-97
 3171 0be4 556B063E 		rlwinm 11,11,0,0xff
 3172 0be8 2B8B0005 		cmplwi 7,11,5
 3173 0bec 419D0014 		bgt- 7,.L209
 3174              		.loc 2 469 0
 3175 0bf0 3929FFA9 		addi 9,9,-87
 3176 0bf4 7D2901D6 		mullw 9,9,0
 3177 0bf8 7C634A14 		add 3,3,9
 3178              	.LVL278:
 3179 0bfc 4BFFFFC4 		b .L208
 3180              	.LVL279:
 3181              	.L209:
 3182              		.loc 2 470 0
 3183 0c00 3969FFBF 		addi 11,9,-65
 3184 0c04 556B063E 		rlwinm 11,11,0,0xff
 3185 0c08 2B8B0005 		cmplwi 7,11,5
 3186 0c0c 41BDFF3C 		bgt- 7,.L237
 3187              		.loc 2 471 0
 3188 0c10 3929FFC9 		addi 9,9,-55
 3189 0c14 7D2901D6 		mullw 9,9,0
 3190 0c18 7C634A14 		add 3,3,9
 3191              	.LVL280:
 3192 0c1c 4BFFFFA4 		b .L208
 3193              	.LVL281:
 3194              	.L223:
 3195              	.LBE1572:
 3196              	.LBE1576:
 3197              	.LBE1579:
 3198              	.LBE1600:
 3199              		.loc 2 517 0
 3200 0c20 3B000000 		li 24,0
 3201              	.L202:
 3202              		.loc 2 519 0
 3203 0c24 7F23CB78 		mr 3,25
 3204 0c28 48000001 		bl strlen
 3205 0c2c 7F83D000 		cmpw 7,3,26
 3206 0c30 409E0088 		bne- 7,.L247
 3207              		.loc 2 520 0
 3208 0c34 1F18000C 		mulli 24,24,12
 3209              		.loc 2 522 0
 3210 0c38 7F89E378 		mr 9,28
 3211              		.loc 2 520 0
 3212 0c3c 7F7BC214 		add 27,27,24
 3213 0c40 881B0008 		lbz 0,8(27)
 3214 0c44 981D0000 		stb 0,0(29)
 3215              		.loc 2 521 0
 3216 0c48 38000001 		li 0,1
 3217 0c4c 901E0000 		stw 0,0(30)
 3218              		.loc 2 522 0
 3219 0c50 833B0004 		lwz 25,4(27)
 3220 0c54 7F3FCA14 		add 25,31,25
 3221 0c58 4BFFFDE0 		b .L205
 3222              	.LVL282:
 3223              	.L224:
 3224              		.loc 2 515 0
 3225 0c5c 3B000001 		li 24,1
 3226 0c60 4BFFFFC4 		b .L202
 3227              	.LVL283:
 3228              	.L225:
 3229 0c64 3B000002 		li 24,2
 3230 0c68 4BFFFFBC 		b .L202
 3231              	.LVL284:
 3232              	.L226:
 3233 0c6c 3B000003 		li 24,3
 3234 0c70 4BFFFFB4 		b .L202
 3235              	.LVL285:
 3236              	.L242:
 3237              		.loc 2 517 0
 3238 0c74 3B000004 		li 24,4
 3239 0c78 4BFFFFAC 		b .L202
 3240              	.LVL286:
 3241              	.L245:
 3242              	.LBB1601:
 3243              	.LBB1580:
 3244              		.loc 2 504 0
 3245 0c7c 7FA4EB78 		mr 4,29
 3246 0c80 7FC5F378 		mr 5,30
 3247 0c84 48000001 		bl _ZN9TiXmlBase18ConvertUTF32ToUTF8EmPcPi
 3248              	.LVL287:
 3249 0c88 8121000C 		lwz 9,12(1)
 3250 0c8c 4BFFFEB0 		b .L214
 3251              	.LVL288:
 3252              	.L235:
 3253              	.LBB1577:
 3254              	.LBB1573:
 3255              		.loc 2 447 0
 3256 0c90 38600000 		li 3,0
 3257 0c94 4BFFFE90 		b .L206
 3258              	.LVL289:
 3259              	.L243:
 3260              	.LBE1573:
 3261              	.LBE1577:
 3262              	.LBE1580:
 3263              	.LBE1601:
 3264              	.LBB1602:
 3265              	.LBB1597:
 3266              	.LBB1596:
 3267              	.LBB1595:
 3268              	.LBB1593:
 3269              	.LBB1586:
 3270              	.LBB1587:
 3271              	.LBB1588:
 3272              		.loc 5 66 0
 3273 0c98 8169FFFC 		lwz 11,-4(9)
 3274              	.LVL290:
 3275              	.LBE1588:
 3276              	.LBE1587:
 3277              	.LBE1586:
 3278              		.loc 4 240 0
 3279 0c9c 2F8B0000 		cmpwi 7,11,0
 3280              	.LBB1591:
 3281              	.LBB1590:
 3282              	.LBB1589:
 3283              		.loc 5 67 0
 3284 0ca0 396BFFFF 		addi 11,11,-1
 3285 0ca4 9169FFFC 		stw 11,-4(9)
 3286              	.LBE1589:
 3287              	.LBE1590:
 3288              	.LBE1591:
 3289              		.loc 4 240 0
 3290 0ca8 419DFDA4 		bgt+ 7,.L221
 3291              		.loc 4 244 0
 3292 0cac 38810008 		addi 4,1,8
 3293 0cb0 48000001 		bl _ZNSs4_Rep10_M_destroyERKSaIcE
 3294              	.LVL291:
 3295 0cb4 4BFFFD98 		b .L221
 3296              	.LVL292:
 3297              	.L247:
 3298              	.LBE1593:
 3299              	.LBE1595:
 3300              	.LBE1596:
 3301              	.LBE1597:
 3302              	.LBE1602:
 3303              		.loc 2 519 0 discriminator 1
 3304 0cb8 3CA00000 		lis 5,.LANCHOR1@ha
 3305 0cbc 3C600000 		lis 3,.LC1@ha
 3306 0cc0 38A50000 		la 5,.LANCHOR1@l(5)
 3307 0cc4 3CC00000 		lis 6,.LC8@ha
 3308 0cc8 38630000 		la 3,.LC1@l(3)
 3309 0ccc 38800207 		li 4,519
 3310 0cd0 38A504AC 		addi 5,5,1196
 3311 0cd4 38C60090 		la 6,.LC8@l(6)
 3312 0cd8 48000001 		bl __assert_func
 3313              	.LEHE0:
 3314              	.L238:
 3315 0cdc 7C7F1B78 		mr 31,3
 3316              	.LVL293:
 3317              		.loc 2 531 0
 3318 0ce0 3861000C 		addi 3,1,12
 3319 0ce4 48000001 		bl _ZNSsD1Ev
 3320 0ce8 7FE3FB78 		mr 3,31
 3321              	.LEHB1:
 3322 0cec 48000001 		bl _Unwind_Resume
 3323              	.LEHE1:
 3324              	.LBE1608:
 3325              		.cfi_endproc
 3326              	.LFE1229:
 3327              		.globl __gxx_personality_v0
 3328              		.section	.gcc_except_table,"a",@progbits
 3329              	.LLSDA1229:
 3330 0000 FF       		.byte	0xff
 3331 0001 FF       		.byte	0xff
 3332 0002 01       		.byte	0x1
 3333 0003 0C       		.uleb128 .LLSDACSE1229-.LLSDACSB1229
 3334              	.LLSDACSB1229:
 3335 0004 8C02     		.uleb128 .LEHB0-.LFB1229
 3336 0006 C405     		.uleb128 .LEHE0-.LEHB0
 3337 0008 D007     		.uleb128 .L238-.LFB1229
 3338 000a 00       		.uleb128 0
 3339 000b E007     		.uleb128 .LEHB1-.LFB1229
 3340 000d 04       		.uleb128 .LEHE1-.LEHB1
 3341 000e 00       		.uleb128 0
 3342 000f 00       		.uleb128 0
 3343              	.LLSDACSE1229:
 3344              		.section	".text"
 3345              		.size	_ZN9TiXmlBase9GetEntityEPKcPcPi13TiXmlEncoding, .-_ZN9TiXmlBase9GetEntityEPKcPcPi13TiXmlEnco
 3346              		.align 2
 3347              		.globl _ZN9TiXmlBase11StringEqualEPKcS1_b13TiXmlEncoding
 3348              		.type	_ZN9TiXmlBase11StringEqualEPKcS1_b13TiXmlEncoding, @function
 3349              	_ZN9TiXmlBase11StringEqualEPKcS1_b13TiXmlEncoding:
 3350              	.LFB1230:
 3351              		.loc 2 539 0
 3352              		.cfi_startproc
 3353              	.LVL294:
 3354              	.LBB1609:
 3355              		.loc 2 540 0
 3356 0cf0 7C691B79 		mr. 9,3
 3357              	.LBE1609:
 3358              		.loc 2 539 0
 3359 0cf4 7C0802A6 		mflr 0
 3360 0cf8 9421FFD8 		stwu 1,-40(1)
 3361              	.LCFI54:
 3362              		.cfi_def_cfa_offset 40
 3363              		.cfi_register 65, 0
 3364 0cfc 93E10024 		stw 31,36(1)
 3365 0d00 7C9F2378 		mr 31,4
 3366              		.cfi_offset 31, -4
 3367 0d04 9001002C 		stw 0,44(1)
 3368 0d08 93610014 		stw 27,20(1)
 3369 0d0c 93810018 		stw 28,24(1)
 3370 0d10 93A1001C 		stw 29,28(1)
 3371 0d14 93C10020 		stw 30,32(1)
 3372              	.LBB1630:
 3373              		.loc 2 540 0
 3374 0d18 418201A4 		beq- 0,.L275
 3375              		.cfi_offset 30, -8
 3376              		.cfi_offset 29, -12
 3377              		.cfi_offset 28, -16
 3378              		.cfi_offset 27, -20
 3379              		.cfi_offset 65, 4
 3380              		.loc 2 541 0
 3381 0d1c 2F840000 		cmpwi 7,4,0
 3382 0d20 419E01E4 		beq- 7,.L276
 3383              		.loc 2 542 0 discriminator 1
 3384 0d24 88690000 		lbz 3,0(9)
 3385              	.LVL295:
 3386 0d28 2F830000 		cmpwi 7,3,0
 3387 0d2c 419E01B4 		beq- 7,.L277
 3388              	.LVL296:
 3389              		.loc 2 550 0
 3390 0d30 2F850000 		cmpwi 7,5,0
 3391 0d34 419E0070 		beq- 7,.L278
 3392              		.loc 2 552 0 discriminator 1
 3393 0d38 8BC40000 		lbz 30,0(4)
 3394              		.loc 2 559 0 discriminator 1
 3395 0d3c 38000001 		li 0,1
 3396              		.loc 2 552 0 discriminator 1
 3397 0d40 2F9E0000 		cmpwi 7,30,0
 3398 0d44 419E0078 		beq- 7,.L254
 3399              		.loc 2 552 0 is_stmt 0
 3400 0d48 2F860001 		cmpwi 7,6,1
 3401 0d4c 7C9C2378 		mr 28,4
 3402 0d50 7D3D4B78 		mr 29,9
 3403 0d54 419E0090 		beq- 7,.L256
 3404              	.LVL297:
 3405              	.L272:
 3406              	.LBB1610:
 3407              	.LBB1611:
 3408              		.loc 1 393 0 is_stmt 1
 3409 0d58 48000001 		bl tolower
 3410              	.LVL298:
 3411 0d5c 7C7B1B78 		mr 27,3
 3412              	.LVL299:
 3413              	.LBE1611:
 3414              	.LBE1610:
 3415              	.LBB1618:
 3416              	.LBB1619:
 3417 0d60 7FC3F378 		mr 3,30
 3418 0d64 48000001 		bl tolower
 3419              	.LBE1619:
 3420              	.LBE1618:
 3421              		.loc 2 552 0
 3422 0d68 7F9B1800 		cmpw 7,27,3
 3423 0d6c 419E012C 		beq- 7,.L279
 3424              	.LVL300:
 3425              	.L274:
 3426              		.loc 2 535 0
 3427 0d70 881F0000 		lbz 0,0(31)
 3428              	.LBE1630:
 3429              		.loc 2 573 0
 3430 0d74 83610014 		lwz 27,20(1)
 3431              	.LBB1631:
 3432              		.loc 2 535 0
 3433 0d78 7C000034 		cntlzw 0,0
 3434              	.LBE1631:
 3435              		.loc 2 573 0
 3436 0d7c 83810018 		lwz 28,24(1)
 3437              	.LBB1632:
 3438              		.loc 2 535 0
 3439 0d80 5400D97E 		srwi 0,0,5
 3440              	.LBE1632:
 3441              		.loc 2 573 0
 3442 0d84 83A1001C 		lwz 29,28(1)
 3443 0d88 7C030378 		mr 3,0
 3444 0d8c 8001002C 		lwz 0,44(1)
 3445 0d90 83C10020 		lwz 30,32(1)
 3446 0d94 7C0803A6 		mtlr 0
 3447 0d98 83E10024 		lwz 31,36(1)
 3448              	.LVL301:
 3449 0d9c 38210028 		addi 1,1,40
 3450              		.cfi_remember_state
 3451              		.cfi_restore 27
 3452              		.cfi_restore 28
 3453              		.cfi_restore 29
 3454              		.cfi_restore 30
 3455              		.cfi_restore 31
 3456              	.LCFI55:
 3457              		.cfi_def_cfa_offset 0
 3458 0da0 4E800020 		blr
 3459              	.LVL302:
 3460              	.L278:
 3461              	.LCFI56:
 3462              		.cfi_restore_state
 3463              	.LBB1633:
 3464              		.loc 2 563 0 discriminator 1
 3465 0da4 88040000 		lbz 0,0(4)
 3466 0da8 2F800000 		cmpwi 7,0,0
 3467 0dac 419E0090 		beq- 7,.L270
 3468              		.loc 2 563 0 is_stmt 0
 3469 0db0 7F830000 		cmpw 7,3,0
 3470              		.loc 2 572 0 is_stmt 1
 3471 0db4 38000000 		li 0,0
 3472              		.loc 2 563 0
 3473 0db8 419E00B0 		beq- 7,.L280
 3474              	.LVL303:
 3475              	.L254:
 3476              	.LBE1633:
 3477              		.loc 2 573 0
 3478 0dbc 7C030378 		mr 3,0
 3479 0dc0 8001002C 		lwz 0,44(1)
 3480 0dc4 83610014 		lwz 27,20(1)
 3481 0dc8 7C0803A6 		mtlr 0
 3482 0dcc 83810018 		lwz 28,24(1)
 3483 0dd0 83A1001C 		lwz 29,28(1)
 3484 0dd4 83C10020 		lwz 30,32(1)
 3485 0dd8 83E10024 		lwz 31,36(1)
 3486              	.LVL304:
 3487 0ddc 38210028 		addi 1,1,40
 3488              		.cfi_remember_state
 3489              	.LCFI57:
 3490              		.cfi_def_cfa_offset 0
 3491              		.cfi_restore 31
 3492              		.cfi_restore 30
 3493              		.cfi_restore 29
 3494              		.cfi_restore 28
 3495              		.cfi_restore 27
 3496 0de0 4E800020 		blr
 3497              	.LVL305:
 3498              	.L256:
 3499              	.LCFI58:
 3500              		.cfi_restore_state
 3501              	.LBB1634:
 3502              	.LBB1626:
 3503              	.LBB1616:
 3504              	.LBB1612:
 3505              	.LBB1613:
 3506              		.loc 1 388 0 discriminator 4
 3507 0de4 2F83007F 		cmpwi 7,3,127
 3508              	.LBE1613:
 3509              	.LBE1612:
 3510              	.LBE1616:
 3511              	.LBE1626:
 3512              		.loc 2 552 0 discriminator 4
 3513 0de8 7C7D1B78 		mr 29,3
 3514              	.LVL306:
 3515              	.LBB1627:
 3516              	.LBB1617:
 3517              	.LBB1615:
 3518              	.LBB1614:
 3519              		.loc 1 388 0 discriminator 4
 3520 0dec 419D0014 		bgt- 7,.L260
 3521              		.loc 1 388 0 is_stmt 0
 3522 0df0 91210008 		stw 9,8(1)
 3523 0df4 48000001 		bl tolower
 3524              	.LVL307:
 3525 0df8 81210008 		lwz 9,8(1)
 3526 0dfc 7C7D1B78 		mr 29,3
 3527              	.LVL308:
 3528              	.L260:
 3529              	.LBE1614:
 3530              	.LBE1615:
 3531              	.LBE1617:
 3532              	.LBE1627:
 3533              	.LBB1628:
 3534              	.LBB1624:
 3535              	.LBB1620:
 3536              	.LBB1621:
 3537 0e00 2F9E007F 		cmpwi 7,30,127
 3538              	.LBE1621:
 3539              	.LBE1620:
 3540              	.LBE1624:
 3541              	.LBE1628:
 3542              		.loc 2 552 0 is_stmt 1
 3543 0e04 7FC3F378 		mr 3,30
 3544              	.LVL309:
 3545              	.LBB1629:
 3546              	.LBB1625:
 3547              	.LBB1623:
 3548              	.LBB1622:
 3549              		.loc 1 388 0
 3550 0e08 419D0010 		bgt- 7,.L261
 3551 0e0c 91210008 		stw 9,8(1)
 3552 0e10 48000001 		bl tolower
 3553 0e14 81210008 		lwz 9,8(1)
 3554              	.L261:
 3555              	.LBE1622:
 3556              	.LBE1623:
 3557              	.LBE1625:
 3558              	.LBE1629:
 3559              		.loc 2 552 0
 3560 0e18 7F9D1800 		cmpw 7,29,3
 3561 0e1c 409EFF54 		bne+ 7,.L274
 3562              		.loc 2 552 0 is_stmt 0 discriminator 6
 3563 0e20 8C690001 		lbzu 3,1(9)
 3564              		.loc 2 555 0 is_stmt 1 discriminator 6
 3565 0e24 3BFF0001 		addi 31,31,1
 3566              	.LVL310:
 3567              		.loc 2 552 0 discriminator 6
 3568 0e28 2F830000 		cmpwi 7,3,0
 3569 0e2c 41BEFF44 		beq- 7,.L274
 3570              		.loc 2 552 0 is_stmt 0 discriminator 2
 3571 0e30 8FDC0001 		lbzu 30,1(28)
 3572              	.LVL311:
 3573 0e34 2F9E0000 		cmpwi 7,30,0
 3574 0e38 40BEFFAC 		bne- 7,.L256
 3575              	.LVL312:
 3576              	.L270:
 3577              		.loc 2 570 0 is_stmt 1
 3578 0e3c 38000001 		li 0,1
 3579              	.L281:
 3580              	.LBE1634:
 3581              		.loc 2 573 0
 3582 0e40 7C030378 		mr 3,0
 3583 0e44 8001002C 		lwz 0,44(1)
 3584 0e48 83610014 		lwz 27,20(1)
 3585 0e4c 7C0803A6 		mtlr 0
 3586 0e50 83810018 		lwz 28,24(1)
 3587 0e54 83A1001C 		lwz 29,28(1)
 3588 0e58 83C10020 		lwz 30,32(1)
 3589 0e5c 83E10024 		lwz 31,36(1)
 3590              	.LVL313:
 3591 0e60 38210028 		addi 1,1,40
 3592              		.cfi_remember_state
 3593              		.cfi_restore 27
 3594              		.cfi_restore 28
 3595              		.cfi_restore 29
 3596              		.cfi_restore 30
 3597              		.cfi_restore 31
 3598              	.LCFI59:
 3599              		.cfi_def_cfa_offset 0
 3600 0e64 4E800020 		blr
 3601              	.LVL314:
 3602              	.L280:
 3603              	.LCFI60:
 3604              		.cfi_restore_state
 3605              	.LBB1635:
 3606              		.loc 2 563 0
 3607 0e68 7C8B2378 		mr 11,4
 3608              	.LVL315:
 3609              	.L265:
 3610              		.loc 2 563 0 is_stmt 0 discriminator 6
 3611 0e6c 8C090001 		lbzu 0,1(9)
 3612              		.loc 2 566 0 is_stmt 1 discriminator 6
 3613 0e70 3BFF0001 		addi 31,31,1
 3614              	.LVL316:
 3615              		.loc 2 563 0 discriminator 6
 3616 0e74 2F800000 		cmpwi 7,0,0
 3617 0e78 41BEFEF8 		beq- 7,.L274
 3618              		.loc 2 563 0 is_stmt 0 discriminator 2
 3619 0e7c 8D4B0001 		lbzu 10,1(11)
 3620 0e80 2F8A0000 		cmpwi 7,10,0
 3621 0e84 41BEFFB8 		beq- 7,.L270
 3622              		.loc 2 563 0 discriminator 4
 3623 0e88 7F805000 		cmpw 7,0,10
 3624 0e8c 41BEFFE0 		beq- 7,.L265
 3625              		.loc 2 572 0 is_stmt 1
 3626 0e90 38000000 		li 0,0
 3627 0e94 4BFFFF28 		b .L254
 3628              	.LVL317:
 3629              	.L279:
 3630              		.loc 2 552 0
 3631 0e98 8C7D0001 		lbzu 3,1(29)
 3632              		.loc 2 555 0
 3633 0e9c 3BFF0001 		addi 31,31,1
 3634              	.LVL318:
 3635              		.loc 2 552 0
 3636 0ea0 2F830000 		cmpwi 7,3,0
 3637 0ea4 41BEFECC 		beq- 7,.L274
 3638 0ea8 8FDC0001 		lbzu 30,1(28)
 3639              	.LVL319:
 3640 0eac 2F9E0000 		cmpwi 7,30,0
 3641 0eb0 40BEFEA8 		bne- 7,.L272
 3642              		.loc 2 570 0
 3643 0eb4 38000001 		li 0,1
 3644 0eb8 4BFFFF88 		b .L281
 3645              	.LVL320:
 3646              	.L275:
 3647              		.loc 2 540 0 discriminator 1
 3648 0ebc 3CA00000 		lis 5,.LANCHOR1@ha
 3649              	.LVL321:
 3650 0ec0 3C600000 		lis 3,.LC1@ha
 3651              	.LVL322:
 3652 0ec4 38A50000 		la 5,.LANCHOR1@l(5)
 3653 0ec8 3CC00000 		lis 6,.LC3@ha
 3654              	.LVL323:
 3655 0ecc 38630000 		la 3,.LC1@l(3)
 3656 0ed0 3880021C 		li 4,540
 3657              	.LVL324:
 3658 0ed4 38A50500 		addi 5,5,1280
 3659 0ed8 38C60058 		la 6,.LC3@l(6)
 3660 0edc 48000001 		bl __assert_func
 3661              	.LVL325:
 3662              	.L277:
 3663              		.loc 2 544 0
 3664 0ee0 3CA00000 		lis 5,.LANCHOR1@ha
 3665              	.LVL326:
 3666 0ee4 3C600000 		lis 3,.LC1@ha
 3667 0ee8 38A50000 		la 5,.LANCHOR1@l(5)
 3668 0eec 3CC00000 		lis 6,.LC11@ha
 3669              	.LVL327:
 3670 0ef0 38630000 		la 3,.LC1@l(3)
 3671 0ef4 38800220 		li 4,544
 3672 0ef8 38A50500 		addi 5,5,1280
 3673 0efc 38C600C8 		la 6,.LC11@l(6)
 3674 0f00 48000001 		bl __assert_func
 3675              	.LVL328:
 3676              	.L276:
 3677              		.loc 2 541 0 discriminator 1
 3678 0f04 3CA00000 		lis 5,.LANCHOR1@ha
 3679              	.LVL329:
 3680 0f08 3C600000 		lis 3,.LC1@ha
 3681              	.LVL330:
 3682 0f0c 38A50000 		la 5,.LANCHOR1@l(5)
 3683 0f10 3CC00000 		lis 6,.LC10@ha
 3684              	.LVL331:
 3685 0f14 38630000 		la 3,.LC1@l(3)
 3686 0f18 3880021D 		li 4,541
 3687 0f1c 38A50500 		addi 5,5,1280
 3688 0f20 38C600C4 		la 6,.LC10@l(6)
 3689 0f24 48000001 		bl __assert_func
 3690              	.LVL332:
 3691              	.LBE1635:
 3692              		.cfi_endproc
 3693              	.LFE1230:
 3694              		.size	_ZN9TiXmlBase11StringEqualEPKcS1_b13TiXmlEncoding, .-_ZN9TiXmlBase11StringEqualEPKcS1_b13TiX
 3695              		.align 2
 3696              		.type	_ZN9TiXmlBase8ReadTextEPKcPSsbS1_b13TiXmlEncoding.constprop.26, @function
 3697              	_ZN9TiXmlBase8ReadTextEPKcPSsbS1_b13TiXmlEncoding.constprop.26:
 3698              	.LFB1342:
 3699              		.loc 2 575 0
 3700              		.cfi_startproc
 3701              	.LVL333:
 3702 0f28 9421FFC8 		stwu 1,-56(1)
 3703              	.LCFI61:
 3704              		.cfi_def_cfa_offset 56
 3705 0f2c 7C0802A6 		mflr 0
 3706 0f30 7D800026 		mfcr 12
 3707 0f34 93C10030 		stw 30,48(1)
 3708 0f38 7C9E2378 		mr 30,4
 3709              		.cfi_offset 30, -8
 3710              		.cfi_register 70, 12
 3711              		.cfi_register 65, 0
 3712              	.LVL334:
 3713              	.LBB1754:
 3714              	.LBB1755:
 3715              	.LBB1756:
 3716              	.LBB1757:
 3717              		.loc 4 1121 0
 3718 0f3c 3C800000 		lis 4,.LC7@ha
 3719              	.LVL335:
 3720              	.LBE1757:
 3721              	.LBE1756:
 3722              	.LBE1755:
 3723              	.LBE1754:
 3724              		.loc 2 575 0
 3725 0f40 93810028 		stw 28,40(1)
 3726 0f44 93E10034 		stw 31,52(1)
 3727 0f48 7CBC2B78 		mr 28,5
 3728              		.cfi_offset 31, -4
 3729              		.cfi_offset 28, -16
 3730 0f4c 7C7F1B78 		mr 31,3
 3731              	.LBB1896:
 3732              	.LBB1762:
 3733              	.LBB1760:
 3734              	.LBB1758:
 3735              		.loc 4 1121 0
 3736 0f50 3884008C 		la 4,.LC7@l(4)
 3737 0f54 7FC3F378 		mr 3,30
 3738              	.LVL336:
 3739 0f58 38A00000 		li 5,0
 3740              	.LVL337:
 3741              	.LBE1758:
 3742              	.LBE1760:
 3743              	.LBE1762:
 3744              	.LBE1896:
 3745              		.loc 2 575 0
 3746 0f5c 93610024 		stw 27,36(1)
 3747 0f60 7CFB3B78 		mr 27,7
 3748              		.cfi_offset 27, -20
 3749 0f64 93A1002C 		stw 29,44(1)
 3750 0f68 7CDD3378 		mr 29,6
 3751              		.cfi_offset 29, -12
 3752 0f6c 9001003C 		stw 0,60(1)
 3753 0f70 93410020 		stw 26,32(1)
 3754 0f74 9181001C 		stw 12,28(1)
 3755              	.LBB1897:
 3756              	.LBB1763:
 3757              	.LBB1761:
 3758              	.LBB1759:
 3759              		.loc 4 1121 0
 3760              		.cfi_offset 70, -28
 3761              		.cfi_offset 26, -24
 3762              		.cfi_offset 65, 4
 3763 0f78 48000001 		bl _ZNSs6assignEPKcj
 3764              	.LVL338:
 3765              	.LBE1759:
 3766              	.LBE1761:
 3767              	.LBE1763:
 3768              	.LBB1764:
 3769              		.loc 2 583 0
 3770 0f7c 2F9C0000 		cmpwi 7,28,0
 3771 0f80 419E0014 		beq- 7,.L283
 3772 0f84 3D200000 		lis 9,_ZN9TiXmlBase18condenseWhiteSpaceE@ha
 3773 0f88 88090000 		lbz 0,_ZN9TiXmlBase18condenseWhiteSpaceE@l(9)
 3774 0f8c 2F800000 		cmpwi 7,0,0
 3775 0f90 409E01F8 		bne- 7,.L284
 3776              	.LVL339:
 3777              	.L283:
 3778              	.LBB1765:
 3779              		.loc 2 587 0
 3780 0f94 2E1F0000 		cmpwi 4,31,0
 3781 0f98 41920010 		beq- 4,.L298
 3782              	.LVL340:
 3783              	.L342:
 3784 0f9c 881F0000 		lbz 0,0(31)
 3785 0fa0 2F800000 		cmpwi 7,0,0
 3786 0fa4 409E0064 		bne- 7,.L343
 3787              	.LVL341:
 3788              	.L298:
 3789              	.LBE1765:
 3790              	.LBE1764:
 3791              		.loc 2 635 0
 3792 0fa8 4192002C 		beq- 4,.L322
 3793 0fac 881F0000 		lbz 0,0(31)
 3794 0fb0 2F800000 		cmpwi 7,0,0
 3795 0fb4 419E019C 		beq- 7,.L323
 3796              		.loc 2 636 0
 3797 0fb8 7FA3EB78 		mr 3,29
 3798 0fbc 48000001 		bl strlen
 3799              	.LVL342:
 3800              		.loc 2 637 0
 3801 0fc0 7FFF1A15 		add. 31,31,3
 3802              	.LVL343:
 3803 0fc4 41820010 		beq- 0,.L322
 3804 0fc8 881F0000 		lbz 0,0(31)
 3805 0fcc 2F800000 		cmpwi 7,0,0
 3806 0fd0 419E0180 		beq- 7,.L323
 3807              	.L322:
 3808              	.LBE1897:
 3809              		.loc 2 638 0
 3810 0fd4 8001003C 		lwz 0,60(1)
 3811 0fd8 7FE3FB78 		mr 3,31
 3812 0fdc 8181001C 		lwz 12,28(1)
 3813 0fe0 7C0803A6 		mtlr 0
 3814 0fe4 83410020 		lwz 26,32(1)
 3815 0fe8 83610024 		lwz 27,36(1)
 3816              	.LVL344:
 3817 0fec 7D808120 		mtcrf 8,12
 3818 0ff0 83810028 		lwz 28,40(1)
 3819 0ff4 83A1002C 		lwz 29,44(1)
 3820              	.LVL345:
 3821 0ff8 83C10030 		lwz 30,48(1)
 3822              	.LVL346:
 3823 0ffc 83E10034 		lwz 31,52(1)
 3824              	.LVL347:
 3825 1000 38210038 		addi 1,1,56
 3826              		.cfi_remember_state
 3827              	.LCFI62:
 3828              		.cfi_def_cfa_offset 0
 3829              		.cfi_restore 70
 3830              		.cfi_restore 31
 3831              		.cfi_restore 30
 3832              		.cfi_restore 29
 3833              		.cfi_restore 28
 3834              		.cfi_restore 27
 3835              		.cfi_restore 26
 3836 1004 4E800020 		blr
 3837              	.LVL348:
 3838              	.L343:
 3839              	.LCFI63:
 3840              		.cfi_restore_state
 3841              	.LBB1898:
 3842              	.LBB1892:
 3843              	.LBB1789:
 3844              		.loc 2 588 0
 3845 1008 7FE3FB78 		mr 3,31
 3846 100c 7FA4EB78 		mr 4,29
 3847 1010 38A00000 		li 5,0
 3848 1014 7F66DB78 		mr 6,27
 3849 1018 48000001 		bl _ZN9TiXmlBase11StringEqualEPKcS1_b13TiXmlEncoding
 3850              		.loc 2 587 0
 3851 101c 2C030000 		cmpwi 0,3,0
 3852 1020 40A2FF88 		bne- 0,.L298
 3853              	.LBB1766:
 3854              	.LBB1767:
 3855              	.LBB1768:
 3856              		.loc 1 332 0
 3857 1024 2F9B0001 		cmpwi 7,27,1
 3858              	.LBE1768:
 3859              	.LBE1767:
 3860              		.loc 2 592 0
 3861 1028 90610008 		stw 3,8(1)
 3862              	.LVL349:
 3863              	.LBB1781:
 3864              	.LBB1775:
 3865              		.loc 1 332 0
 3866 102c 419E0040 		beq- 7,.L344
 3867              		.loc 1 339 0
 3868 1030 38000001 		li 0,1
 3869 1034 9001000C 		stw 0,12(1)
 3870              	.L288:
 3871              	.LBB1769:
 3872              		.loc 1 344 0
 3873 1038 881F0000 		lbz 0,0(31)
 3874 103c 2F800026 		cmpwi 7,0,38
 3875 1040 419E00F0 		beq- 7,.L345
 3876              		.loc 1 346 0
 3877 1044 7C3C0B78 		mr 28,1
 3878              		.loc 1 347 0
 3879 1048 3BFF0001 		addi 31,31,1
 3880              	.LVL350:
 3881              		.loc 1 346 0
 3882 104c 9C1C0008 		stbu 0,8(28)
 3883              	.LVL351:
 3884              	.L291:
 3885              	.LBE1769:
 3886              	.LBE1775:
 3887              	.LBE1781:
 3888              	.LBE1766:
 3889              		.loc 2 587 0
 3890 1050 2E1F0000 		cmpwi 4,31,0
 3891              	.LBB1785:
 3892              		.loc 2 594 0
 3893 1054 80A1000C 		lwz 5,12(1)
 3894 1058 7FC3F378 		mr 3,30
 3895 105c 7F84E378 		mr 4,28
 3896 1060 48000001 		bl _ZNSs6appendEPKcj
 3897              	.LVL352:
 3898              	.LBE1785:
 3899              		.loc 2 587 0
 3900 1064 4092FF38 		bne+ 4,.L342
 3901 1068 4BFFFF40 		b .L298
 3902              	.LVL353:
 3903              	.L344:
 3904              	.LBB1786:
 3905              	.LBB1782:
 3906              	.LBB1776:
 3907              		.loc 1 334 0
 3908 106c 893F0000 		lbz 9,0(31)
 3909 1070 3CA00000 		lis 5,.LANCHOR1@ha
 3910 1074 38A50000 		la 5,.LANCHOR1@l(5)
 3911 1078 5529103A 		slwi 9,9,2
 3912 107c 7D254A14 		add 9,5,9
 3913 1080 81290058 		lwz 9,88(9)
 3914              		.loc 1 335 0
 3915 1084 2B890004 		cmplwi 7,9,4
 3916              		.loc 1 334 0
 3917 1088 9121000C 		stw 9,12(1)
 3918              		.loc 1 335 0
 3919 108c 419D0370 		bgt- 7,.L346
 3920              	.LBB1773:
 3921              		.loc 1 342 0
 3922 1090 2F890001 		cmpwi 7,9,1
 3923 1094 41BEFFA4 		beq- 7,.L288
 3924              	.LBB1770:
 3925              		.loc 1 349 0
 3926 1098 2F890000 		cmpwi 7,9,0
 3927 109c 419E004C 		beq- 7,.L292
 3928              	.LVL354:
 3929              	.LBB1771:
 3930              	.LBB1772:
 3931              		.loc 1 353 0
 3932 10a0 881F0000 		lbz 0,0(31)
 3933 10a4 39400000 		li 10,0
 3934 10a8 39600000 		li 11,0
 3935 10ac 7D284B78 		mr 8,9
 3936 10b0 2F800000 		cmpwi 7,0,0
 3937 10b4 419E0028 		beq- 7,.L294
 3938              	.LVL355:
 3939              	.L337:
 3940              		.loc 1 354 0
 3941 10b8 7D415214 		add 10,1,10
 3942              		.loc 1 353 0
 3943 10bc 396B0001 		addi 11,11,1
 3944              	.LVL356:
 3945              		.loc 1 354 0
 3946 10c0 980A0008 		stb 0,8(10)
 3947              		.loc 1 353 0
 3948 10c4 7D6A5B78 		mr 10,11
 3949 10c8 7C1F58AE 		lbzx 0,31,11
 3950 10cc 2F800000 		cmpwi 7,0,0
 3951 10d0 419E000C 		beq- 7,.L294
 3952 10d4 3508FFFF 		addic. 8,8,-1
 3953 10d8 40A2FFE0 		bne- 0,.L337
 3954              	.LVL357:
 3955              	.L294:
 3956              	.LBE1772:
 3957              		.loc 1 356 0
 3958 10dc 7FFF4A14 		add 31,31,9
 3959              	.LVL358:
 3960 10e0 3B810008 		addi 28,1,8
 3961 10e4 4BFFFF6C 		b .L291
 3962              	.LVL359:
 3963              	.L292:
 3964              	.LBE1771:
 3965              	.LBE1770:
 3966              	.LBE1773:
 3967              	.LBE1776:
 3968              	.LBE1782:
 3969              		.loc 2 594 0
 3970 10e8 7FC3F378 		mr 3,30
 3971 10ec 38810008 		addi 4,1,8
 3972 10f0 38A00000 		li 5,0
 3973              		.loc 1 361 0
 3974 10f4 3BE00000 		li 31,0
 3975              	.LVL360:
 3976              		.loc 2 594 0
 3977 10f8 48000001 		bl _ZNSs6appendEPKcj
 3978              	.LVL361:
 3979              	.LBE1786:
 3980              	.LBE1789:
 3981              	.LBE1892:
 3982              	.LBE1898:
 3983              		.loc 2 638 0
 3984 10fc 8001003C 		lwz 0,60(1)
 3985 1100 8181001C 		lwz 12,28(1)
 3986 1104 7FE3FB78 		mr 3,31
 3987 1108 7C0803A6 		mtlr 0
 3988 110c 83410020 		lwz 26,32(1)
 3989 1110 83610024 		lwz 27,36(1)
 3990              	.LVL362:
 3991 1114 7D808120 		mtcrf 8,12
 3992 1118 83810028 		lwz 28,40(1)
 3993 111c 83A1002C 		lwz 29,44(1)
 3994              	.LVL363:
 3995 1120 83C10030 		lwz 30,48(1)
 3996              	.LVL364:
 3997 1124 83E10034 		lwz 31,52(1)
 3998 1128 38210038 		addi 1,1,56
 3999              		.cfi_remember_state
 4000              		.cfi_restore 26
 4001              		.cfi_restore 27
 4002              		.cfi_restore 28
 4003              		.cfi_restore 29
 4004              		.cfi_restore 30
 4005              		.cfi_restore 31
 4006              		.cfi_restore 70
 4007              	.LCFI64:
 4008              		.cfi_def_cfa_offset 0
 4009 112c 4E800020 		blr
 4010              	.LVL365:
 4011              	.L345:
 4012              	.LCFI65:
 4013              		.cfi_restore_state
 4014              	.LBB1899:
 4015              	.LBB1893:
 4016              	.LBB1790:
 4017              	.LBB1787:
 4018              	.LBB1783:
 4019              	.LBB1777:
 4020              	.LBB1774:
 4021              		.loc 1 345 0
 4022 1130 3B810008 		addi 28,1,8
 4023 1134 7FE3FB78 		mr 3,31
 4024 1138 7F84E378 		mr 4,28
 4025 113c 38A1000C 		addi 5,1,12
 4026 1140 7F66DB78 		mr 6,27
 4027 1144 48000001 		bl _ZN9TiXmlBase9GetEntityEPKcPcPi13TiXmlEncoding
 4028 1148 7C7F1B78 		mr 31,3
 4029              	.LVL366:
 4030 114c 4BFFFF04 		b .L291
 4031              	.LVL367:
 4032              	.L323:
 4033              	.LBE1774:
 4034              	.LBE1777:
 4035              	.LBE1783:
 4036              	.LBE1787:
 4037              	.LBE1790:
 4038              	.LBE1893:
 4039              	.LBE1899:
 4040              		.loc 2 638 0
 4041 1150 8001003C 		lwz 0,60(1)
 4042              	.LBB1900:
 4043              	.LBB1894:
 4044              	.LBB1791:
 4045              		.loc 2 637 0
 4046 1154 3BE00000 		li 31,0
 4047              	.LVL368:
 4048              	.LBE1791:
 4049              	.LBE1894:
 4050              	.LBE1900:
 4051              		.loc 2 638 0
 4052 1158 8181001C 		lwz 12,28(1)
 4053 115c 7FE3FB78 		mr 3,31
 4054 1160 7C0803A6 		mtlr 0
 4055 1164 83410020 		lwz 26,32(1)
 4056 1168 83610024 		lwz 27,36(1)
 4057              	.LVL369:
 4058 116c 7D808120 		mtcrf 8,12
 4059 1170 83810028 		lwz 28,40(1)
 4060 1174 83A1002C 		lwz 29,44(1)
 4061              	.LVL370:
 4062 1178 83C10030 		lwz 30,48(1)
 4063              	.LVL371:
 4064 117c 83E10034 		lwz 31,52(1)
 4065 1180 38210038 		addi 1,1,56
 4066              		.cfi_remember_state
 4067              		.cfi_restore 26
 4068              		.cfi_restore 27
 4069              		.cfi_restore 28
 4070              		.cfi_restore 29
 4071              		.cfi_restore 30
 4072              		.cfi_restore 31
 4073              		.cfi_restore 70
 4074              	.LCFI66:
 4075              		.cfi_def_cfa_offset 0
 4076 1184 4E800020 		blr
 4077              	.LVL372:
 4078              	.L284:
 4079              	.LCFI67:
 4080              		.cfi_restore_state
 4081              	.LBB1901:
 4082              	.LBB1895:
 4083              	.LBB1890:
 4084              		.loc 2 602 0
 4085 1188 7FE3FB78 		mr 3,31
 4086 118c 7F64DB78 		mr 4,27
 4087 1190 48000001 		bl _ZN9TiXmlBase14SkipWhiteSpaceEPKc13TiXmlEncoding
 4088              	.LVL373:
 4089              		.loc 2 603 0
 4090 1194 2E030000 		cmpwi 4,3,0
 4091 1198 7C7F1B78 		mr 31,3
 4092 119c 41B2FE0C 		beq- 4,.L298
 4093 11a0 88030000 		lbz 0,0(3)
 4094 11a4 2F800000 		cmpwi 7,0,0
 4095 11a8 419EFE00 		beq+ 7,.L298
 4096 11ac 3B800000 		li 28,0
 4097              	.LVL374:
 4098              	.L300:
 4099              		.loc 2 604 0
 4100 11b0 7FE3FB78 		mr 3,31
 4101 11b4 7FA4EB78 		mr 4,29
 4102 11b8 38A00000 		li 5,0
 4103 11bc 7F66DB78 		mr 6,27
 4104 11c0 48000001 		bl _ZN9TiXmlBase11StringEqualEPKcS1_b13TiXmlEncoding
 4105              		.loc 2 603 0
 4106 11c4 2F830000 		cmpwi 7,3,0
 4107 11c8 40BEFDE0 		bne- 7,.L298
 4108              	.LBB1792:
 4109              		.loc 2 606 0
 4110 11cc 887F0000 		lbz 3,0(31)
 4111 11d0 2F83000D 		cmpwi 7,3,13
 4112 11d4 419E0080 		beq- 7,.L303
 4113 11d8 2F83000A 		cmpwi 7,3,10
 4114 11dc 419E0078 		beq- 7,.L303
 4115              	.LVL375:
 4116              	.LBB1793:
 4117              	.LBB1794:
 4118              	.LBB1795:
 4119              		.loc 1 294 0
 4120 11e0 48000001 		bl isspace
 4121              	.LVL376:
 4122 11e4 2F830000 		cmpwi 7,3,0
 4123 11e8 409E006C 		bne- 7,.L303
 4124              	.LBE1795:
 4125              	.LBE1794:
 4126              	.LBB1796:
 4127              		.loc 2 620 0
 4128 11ec 2F9C0000 		cmpwi 7,28,0
 4129 11f0 409E0070 		bne- 7,.L347
 4130              	.L305:
 4131              	.LVL377:
 4132              	.LBB1797:
 4133              	.LBB1798:
 4134              		.loc 1 332 0
 4135 11f4 2F9B0001 		cmpwi 7,27,1
 4136              	.LBE1798:
 4137              	.LBE1797:
 4138              		.loc 2 626 0
 4139 11f8 38000000 		li 0,0
 4140 11fc 90010008 		stw 0,8(1)
 4141              	.LVL378:
 4142              	.LBB1816:
 4143              	.LBB1809:
 4144              		.loc 1 332 0
 4145 1200 419E00CC 		beq- 7,.L348
 4146              		.loc 1 339 0
 4147 1204 38000001 		li 0,1
 4148 1208 9001000C 		stw 0,12(1)
 4149              	.L310:
 4150              	.LBB1799:
 4151              		.loc 1 344 0
 4152 120c 881F0000 		lbz 0,0(31)
 4153 1210 2F800026 		cmpwi 7,0,38
 4154 1214 419E01B0 		beq- 7,.L349
 4155              		.loc 1 346 0
 4156 1218 98010008 		stb 0,8(1)
 4157              		.loc 1 347 0
 4158 121c 3BFF0001 		addi 31,31,1
 4159              	.LVL379:
 4160              	.L313:
 4161              	.LBE1799:
 4162              	.LBE1809:
 4163              	.LBE1816:
 4164              	.LBB1817:
 4165              	.LBB1818:
 4166              	.LBB1819:
 4167              	.LBB1820:
 4168              	.LBB1821:
 4169              	.LBB1822:
 4170              	.LBB1823:
 4171              		.loc 6 245 0
 4172 1220 80A1000C 		lwz 5,12(1)
 4173              	.LBE1823:
 4174              	.LBE1822:
 4175              	.LBE1821:
 4176              	.LBE1820:
 4177              	.LBE1819:
 4178              	.LBE1818:
 4179              	.LBE1817:
 4180              		.loc 2 628 0
 4181 1224 2F850001 		cmpwi 7,5,1
 4182 1228 419E0128 		beq- 7,.L350
 4183              	.L314:
 4184              		.loc 2 631 0
 4185 122c 7FC3F378 		mr 3,30
 4186 1230 38810008 		addi 4,1,8
 4187              	.LVL380:
 4188 1234 48000001 		bl _ZNSs6appendEPKcj
 4189              	.LVL381:
 4190 1238 3B800000 		li 28,0
 4191              	.LVL382:
 4192              	.L302:
 4193              	.LBE1796:
 4194              	.LBE1793:
 4195              	.LBE1792:
 4196              		.loc 2 603 0
 4197 123c 2E1F0000 		cmpwi 4,31,0
 4198 1240 41B2FD68 		beq- 4,.L298
 4199 1244 881F0000 		lbz 0,0(31)
 4200 1248 2F800000 		cmpwi 7,0,0
 4201 124c 419EFD5C 		beq+ 7,.L298
 4202 1250 4BFFFF60 		b .L300
 4203              	.LVL383:
 4204              	.L303:
 4205              	.LBB1889:
 4206              	.LBB1888:
 4207              		.loc 2 614 0
 4208 1254 3BFF0001 		addi 31,31,1
 4209              	.LVL384:
 4210              		.loc 2 613 0
 4211 1258 3B800001 		li 28,1
 4212 125c 4BFFFFE0 		b .L302
 4213              	.LVL385:
 4214              	.L347:
 4215              	.LBB1887:
 4216              	.LBB1854:
 4217              	.LBB1855:
 4218              	.LBB1856:
 4219              	.LBB1857:
 4220              	.LBB1858:
 4221              	.LBB1859:
 4222              	.LBB1860:
 4223              	.LBB1861:
 4224              		.loc 4 288 0
 4225 1260 813E0000 		lwz 9,0(30)
 4226              	.LBE1861:
 4227              	.LBE1860:
 4228              	.LBE1859:
 4229              		.loc 4 711 0
 4230 1264 8169FFF4 		lwz 11,-12(9)
 4231              	.LBE1858:
 4232              	.LBE1857:
 4233              		.loc 4 1046 0
 4234 1268 8009FFF8 		lwz 0,-8(9)
 4235              		.loc 4 1045 0
 4236 126c 3B8B0001 		addi 28,11,1
 4237              	.LVL386:
 4238              		.loc 4 1046 0
 4239 1270 7F9C0040 		cmplw 7,28,0
 4240 1274 419D0010 		bgt- 7,.L306
 4241              	.LVL387:
 4242 1278 8009FFFC 		lwz 0,-4(9)
 4243 127c 2F800000 		cmpwi 7,0,0
 4244 1280 409D0018 		ble- 7,.L307
 4245              	.L306:
 4246              		.loc 4 1047 0
 4247 1284 7FC3F378 		mr 3,30
 4248 1288 7F84E378 		mr 4,28
 4249 128c 48000001 		bl _ZNSs7reserveEj
 4250 1290 813E0000 		lwz 9,0(30)
 4251 1294 8169FFF4 		lwz 11,-12(9)
 4252              	.L307:
 4253              	.LVL388:
 4254              	.LBB1862:
 4255              	.LBB1863:
 4256              		.loc 6 245 0
 4257 1298 38000020 		li 0,32
 4258              	.LBE1863:
 4259              	.LBE1862:
 4260              	.LBB1865:
 4261              	.LBB1866:
 4262              		.loc 4 205 0
 4263 129c 3D400000 		lis 10,_ZNSs4_Rep20_S_empty_rep_storageE@ha
 4264              	.LBE1866:
 4265              	.LBE1865:
 4266              	.LBB1875:
 4267              	.LBB1864:
 4268              		.loc 6 245 0
 4269 12a0 7C0959AE 		stbx 0,9,11
 4270              	.LVL389:
 4271              	.LBE1864:
 4272              	.LBE1875:
 4273              	.LBB1876:
 4274              	.LBB1873:
 4275              		.loc 4 205 0
 4276 12a4 380A0000 		la 0,_ZNSs4_Rep20_S_empty_rep_storageE@l(10)
 4277              	.LBE1873:
 4278              	.LBE1876:
 4279              	.LBB1877:
 4280              	.LBB1878:
 4281              	.LBB1879:
 4282              		.loc 4 288 0
 4283 12a8 813E0000 		lwz 9,0(30)
 4284              	.LVL390:
 4285              	.LBE1879:
 4286              	.LBE1878:
 4287              	.LBE1877:
 4288              		.loc 4 1049 0
 4289 12ac 3969FFF4 		addi 11,9,-12
 4290              	.LBB1880:
 4291              	.LBB1874:
 4292              		.loc 4 205 0
 4293 12b0 7F8B0000 		cmpw 7,11,0
 4294 12b4 419EFF40 		beq+ 7,.L305
 4295              	.LBB1867:
 4296              	.LBB1868:
 4297              		.loc 4 199 0
 4298 12b8 38000000 		li 0,0
 4299              	.LBE1868:
 4300              	.LBE1867:
 4301              		.loc 4 209 0
 4302 12bc 9389FFF4 		stw 28,-12(9)
 4303              	.LVL391:
 4304              	.LBB1870:
 4305              	.LBB1869:
 4306              		.loc 4 199 0
 4307 12c0 9009FFFC 		stw 0,-4(9)
 4308              	.LBE1869:
 4309              	.LBE1870:
 4310              	.LBB1871:
 4311              	.LBB1872:
 4312              		.loc 6 245 0
 4313 12c4 7C09E1AE 		stbx 0,9,28
 4314 12c8 4BFFFF2C 		b .L305
 4315              	.LVL392:
 4316              	.L348:
 4317              	.LBE1872:
 4318              	.LBE1871:
 4319              	.LBE1874:
 4320              	.LBE1880:
 4321              	.LBE1856:
 4322              	.LBE1855:
 4323              	.LBE1854:
 4324              	.LBB1881:
 4325              	.LBB1810:
 4326              		.loc 1 334 0
 4327 12cc 897F0000 		lbz 11,0(31)
 4328 12d0 3D200000 		lis 9,.LANCHOR1@ha
 4329 12d4 39290000 		la 9,.LANCHOR1@l(9)
 4330 12d8 556B103A 		slwi 11,11,2
 4331 12dc 7D695A14 		add 11,9,11
 4332 12e0 816B0058 		lwz 11,88(11)
 4333              		.loc 1 335 0
 4334 12e4 2B8B0004 		cmplwi 7,11,4
 4335              		.loc 1 334 0
 4336 12e8 9161000C 		stw 11,12(1)
 4337              		.loc 1 335 0
 4338 12ec 7D655B78 		mr 5,11
 4339 12f0 419D00F0 		bgt- 7,.L351
 4340              	.LBB1806:
 4341              		.loc 1 342 0
 4342 12f4 2F8B0001 		cmpwi 7,11,1
 4343 12f8 41BEFF14 		beq- 7,.L310
 4344              	.LBB1800:
 4345              		.loc 1 349 0
 4346 12fc 2F8B0000 		cmpwi 7,11,0
 4347 1300 419E00BC 		beq- 7,.L330
 4348              	.LVL393:
 4349              	.LBB1801:
 4350              	.LBB1802:
 4351              		.loc 1 353 0
 4352 1304 881F0000 		lbz 0,0(31)
 4353 1308 39400000 		li 10,0
 4354 130c 39200000 		li 9,0
 4355 1310 7D685B78 		mr 8,11
 4356 1314 2F800000 		cmpwi 7,0,0
 4357 1318 419E0028 		beq- 7,.L316
 4358              	.LVL394:
 4359              	.L338:
 4360              		.loc 1 354 0
 4361 131c 7D415214 		add 10,1,10
 4362              		.loc 1 353 0
 4363 1320 39290001 		addi 9,9,1
 4364              	.LVL395:
 4365              		.loc 1 354 0
 4366 1324 980A0008 		stb 0,8(10)
 4367              		.loc 1 353 0
 4368 1328 7D2A4B78 		mr 10,9
 4369 132c 7C1F48AE 		lbzx 0,31,9
 4370 1330 2F800000 		cmpwi 7,0,0
 4371 1334 419E000C 		beq- 7,.L316
 4372 1338 3508FFFF 		addic. 8,8,-1
 4373 133c 40A2FFE0 		bne- 0,.L338
 4374              	.LVL396:
 4375              	.L316:
 4376              	.LBE1802:
 4377              	.LBE1801:
 4378              	.LBE1800:
 4379              	.LBE1806:
 4380              	.LBE1810:
 4381              	.LBE1881:
 4382              	.LBB1882:
 4383              	.LBB1851:
 4384              	.LBB1848:
 4385              	.LBB1833:
 4386              	.LBB1830:
 4387              	.LBB1826:
 4388              	.LBB1824:
 4389              		.loc 6 245 0
 4390 1340 80A1000C 		lwz 5,12(1)
 4391              	.LBE1824:
 4392              	.LBE1826:
 4393              	.LBE1830:
 4394              	.LBE1833:
 4395              	.LBE1848:
 4396              	.LBE1851:
 4397              	.LBE1882:
 4398              	.LBB1883:
 4399              	.LBB1811:
 4400              	.LBB1807:
 4401              	.LBB1804:
 4402              	.LBB1803:
 4403              		.loc 1 356 0
 4404 1344 7FFF5A14 		add 31,31,11
 4405              	.LVL397:
 4406              	.LBE1803:
 4407              	.LBE1804:
 4408              	.LBE1807:
 4409              	.LBE1811:
 4410              	.LBE1883:
 4411              		.loc 2 628 0
 4412 1348 2F850001 		cmpwi 7,5,1
 4413 134c 409EFEE0 		bne+ 7,.L314
 4414              	.L350:
 4415              	.LBB1884:
 4416              	.LBB1852:
 4417              	.LBB1849:
 4418              	.LBB1834:
 4419              	.LBB1835:
 4420              	.LBB1836:
 4421              	.LBB1837:
 4422              	.LBB1838:
 4423              		.loc 4 288 0
 4424 1350 813E0000 		lwz 9,0(30)
 4425              	.LBE1838:
 4426              	.LBE1837:
 4427              	.LBE1836:
 4428              	.LBE1835:
 4429              	.LBE1834:
 4430              	.LBE1849:
 4431              	.LBE1852:
 4432              	.LBE1884:
 4433              		.loc 2 629 0
 4434 1354 8B810008 		lbz 28,8(1)
 4435              	.LVL398:
 4436              	.LBB1885:
 4437              	.LBB1853:
 4438              	.LBB1850:
 4439              	.LBB1840:
 4440              	.LBB1839:
 4441              		.loc 4 711 0
 4442 1358 8169FFF4 		lwz 11,-12(9)
 4443              	.LBE1839:
 4444              	.LBE1840:
 4445              		.loc 4 1046 0
 4446 135c 8009FFF8 		lwz 0,-8(9)
 4447              		.loc 4 1045 0
 4448 1360 3B4B0001 		addi 26,11,1
 4449              	.LVL399:
 4450              		.loc 4 1046 0
 4451 1364 7F9A0040 		cmplw 7,26,0
 4452 1368 419D0010 		bgt- 7,.L319
 4453              	.LVL400:
 4454 136c 8009FFFC 		lwz 0,-4(9)
 4455 1370 2F800000 		cmpwi 7,0,0
 4456 1374 409D0018 		ble- 7,.L320
 4457              	.L319:
 4458              		.loc 4 1047 0
 4459 1378 7FC3F378 		mr 3,30
 4460 137c 7F44D378 		mr 4,26
 4461 1380 48000001 		bl _ZNSs7reserveEj
 4462 1384 813E0000 		lwz 9,0(30)
 4463 1388 8169FFF4 		lwz 11,-12(9)
 4464              	.L320:
 4465              	.LVL401:
 4466              	.LBB1841:
 4467              	.LBB1842:
 4468              		.loc 6 245 0
 4469 138c 7F8959AE 		stbx 28,9,11
 4470              	.LVL402:
 4471              	.LBE1842:
 4472              	.LBE1841:
 4473              	.LBB1843:
 4474              	.LBB1831:
 4475              		.loc 4 205 0
 4476 1390 3D400000 		lis 10,_ZNSs4_Rep20_S_empty_rep_storageE@ha
 4477 1394 380A0000 		la 0,_ZNSs4_Rep20_S_empty_rep_storageE@l(10)
 4478 1398 3B800000 		li 28,0
 4479              	.LVL403:
 4480              	.LBE1831:
 4481              	.LBE1843:
 4482              	.LBB1844:
 4483              	.LBB1845:
 4484              	.LBB1846:
 4485              		.loc 4 288 0
 4486 139c 813E0000 		lwz 9,0(30)
 4487              	.LVL404:
 4488              	.LBE1846:
 4489              	.LBE1845:
 4490              	.LBE1844:
 4491              		.loc 4 1049 0
 4492 13a0 3969FFF4 		addi 11,9,-12
 4493              	.LBB1847:
 4494              	.LBB1832:
 4495              		.loc 4 205 0
 4496 13a4 7F8B0000 		cmpw 7,11,0
 4497 13a8 419EFE94 		beq+ 7,.L302
 4498              	.LBB1827:
 4499              	.LBB1828:
 4500              		.loc 4 199 0
 4501 13ac 9389FFFC 		stw 28,-4(9)
 4502              	.LBE1828:
 4503              	.LBE1827:
 4504              		.loc 4 209 0
 4505 13b0 9349FFF4 		stw 26,-12(9)
 4506              	.LVL405:
 4507              	.LBB1829:
 4508              	.LBB1825:
 4509              		.loc 6 245 0
 4510 13b4 7F89D1AE 		stbx 28,9,26
 4511 13b8 4BFFFE84 		b .L302
 4512              	.LVL406:
 4513              	.L330:
 4514              	.LBE1825:
 4515              	.LBE1829:
 4516              	.LBE1832:
 4517              	.LBE1847:
 4518              	.LBE1850:
 4519              	.LBE1853:
 4520              	.LBE1885:
 4521              	.LBB1886:
 4522              	.LBB1812:
 4523              	.LBB1808:
 4524              	.LBB1805:
 4525              		.loc 1 361 0
 4526 13bc 3BE00000 		li 31,0
 4527              	.LVL407:
 4528 13c0 4BFFFE6C 		b .L314
 4529              	.LVL408:
 4530              	.L349:
 4531              	.LBE1805:
 4532              		.loc 1 345 0
 4533 13c4 7FE3FB78 		mr 3,31
 4534 13c8 38810008 		addi 4,1,8
 4535              	.LVL409:
 4536 13cc 38A1000C 		addi 5,1,12
 4537              	.LVL410:
 4538 13d0 7F66DB78 		mr 6,27
 4539 13d4 48000001 		bl _ZN9TiXmlBase9GetEntityEPKcPcPi13TiXmlEncoding
 4540              	.LVL411:
 4541 13d8 7C7F1B78 		mr 31,3
 4542              	.LVL412:
 4543 13dc 4BFFFE44 		b .L313
 4544              	.LVL413:
 4545              	.L351:
 4546              	.LBE1808:
 4547              	.LBE1812:
 4548              	.LBB1813:
 4549              	.LBB1814:
 4550              	.LBB1815:
 4551              		.loc 1 335 0
 4552 13e0 3C600000 		lis 3,.LC12@ha
 4553 13e4 3CC00000 		lis 6,.LC13@ha
 4554 13e8 386300CC 		la 3,.LC12@l(3)
 4555 13ec 3880014F 		li 4,335
 4556 13f0 38A90554 		addi 5,9,1364
 4557 13f4 38C60118 		la 6,.LC13@l(6)
 4558 13f8 48000001 		bl __assert_func
 4559              	.LVL414:
 4560              	.L346:
 4561              	.LBE1815:
 4562              	.LBE1814:
 4563              	.LBE1813:
 4564              	.LBE1886:
 4565              	.LBE1887:
 4566              	.LBE1888:
 4567              	.LBE1889:
 4568              	.LBE1890:
 4569              	.LBB1891:
 4570              	.LBB1788:
 4571              	.LBB1784:
 4572              	.LBB1778:
 4573              	.LBB1779:
 4574              	.LBB1780:
 4575 13fc 3C600000 		lis 3,.LC12@ha
 4576 1400 3CC00000 		lis 6,.LC13@ha
 4577 1404 386300CC 		la 3,.LC12@l(3)
 4578 1408 3880014F 		li 4,335
 4579 140c 38A50554 		addi 5,5,1364
 4580 1410 38C60118 		la 6,.LC13@l(6)
 4581 1414 48000001 		bl __assert_func
 4582              	.LBE1780:
 4583              	.LBE1779:
 4584              	.LBE1778:
 4585              	.LBE1784:
 4586              	.LBE1788:
 4587              	.LBE1891:
 4588              	.LBE1895:
 4589              	.LBE1901:
 4590              		.cfi_endproc
 4591              	.LFE1342:
 4592              		.size	_ZN9TiXmlBase8ReadTextEPKcPSsbS1_b13TiXmlEncoding.constprop.26, .-_ZN9TiXmlBase8ReadTextEPKc
 4593              		.align 2
 4594              		.globl _ZN9TiXmlBase8ReadTextEPKcPSsbS1_b13TiXmlEncoding
 4595              		.type	_ZN9TiXmlBase8ReadTextEPKcPSsbS1_b13TiXmlEncoding, @function
 4596              	_ZN9TiXmlBase8ReadTextEPKcPSsbS1_b13TiXmlEncoding:
 4597              	.LFB1231:
 4598              		.loc 2 581 0
 4599              		.cfi_startproc
 4600              	.LVL415:
 4601 1418 9421FFC8 		stwu 1,-56(1)
 4602              	.LCFI68:
 4603              		.cfi_def_cfa_offset 56
 4604 141c 7C0802A6 		mflr 0
 4605 1420 7D800026 		mfcr 12
 4606 1424 93C10030 		stw 30,48(1)
 4607 1428 7C9E2378 		mr 30,4
 4608              		.cfi_offset 30, -8
 4609              		.cfi_register 70, 12
 4610              		.cfi_register 65, 0
 4611              	.LVL416:
 4612              	.LBB2020:
 4613              	.LBB2021:
 4614              	.LBB2022:
 4615              	.LBB2023:
 4616              		.loc 4 1121 0
 4617 142c 3C800000 		lis 4,.LC7@ha
 4618              	.LVL417:
 4619              	.LBE2023:
 4620              	.LBE2022:
 4621              	.LBE2021:
 4622              	.LBE2020:
 4623              		.loc 2 581 0
 4624 1430 93810028 		stw 28,40(1)
 4625 1434 93E10034 		stw 31,52(1)
 4626 1438 7CBC2B78 		mr 28,5
 4627              		.cfi_offset 31, -4
 4628              		.cfi_offset 28, -16
 4629 143c 7C7F1B78 		mr 31,3
 4630              	.LBB2162:
 4631              	.LBB2028:
 4632              	.LBB2026:
 4633              	.LBB2024:
 4634              		.loc 4 1121 0
 4635 1440 3884008C 		la 4,.LC7@l(4)
 4636 1444 7FC3F378 		mr 3,30
 4637              	.LVL418:
 4638 1448 38A00000 		li 5,0
 4639              	.LVL419:
 4640              	.LBE2024:
 4641              	.LBE2026:
 4642              	.LBE2028:
 4643              	.LBE2162:
 4644              		.loc 2 581 0
 4645 144c 93410020 		stw 26,32(1)
 4646 1450 7D1A4378 		mr 26,8
 4647              		.cfi_offset 26, -24
 4648 1454 93610024 		stw 27,36(1)
 4649 1458 7CFB3B78 		mr 27,7
 4650              		.cfi_offset 27, -20
 4651 145c 93A1002C 		stw 29,44(1)
 4652 1460 7CDD3378 		mr 29,6
 4653              		.cfi_offset 29, -12
 4654 1464 9001003C 		stw 0,60(1)
 4655 1468 9321001C 		stw 25,28(1)
 4656 146c 91810018 		stw 12,24(1)
 4657              	.LBB2163:
 4658              	.LBB2029:
 4659              	.LBB2027:
 4660              	.LBB2025:
 4661              		.loc 4 1121 0
 4662              		.cfi_offset 70, -32
 4663              		.cfi_offset 25, -28
 4664              		.cfi_offset 65, 4
 4665 1470 48000001 		bl _ZNSs6assignEPKcj
 4666              	.LVL420:
 4667              	.LBE2025:
 4668              	.LBE2027:
 4669              	.LBE2029:
 4670              	.LBB2030:
 4671              		.loc 2 583 0
 4672 1474 2F9C0000 		cmpwi 7,28,0
 4673 1478 419E0014 		beq- 7,.L356
 4674              		.loc 2 583 0 is_stmt 0 discriminator 1
 4675 147c 3D200000 		lis 9,_ZN9TiXmlBase18condenseWhiteSpaceE@ha
 4676 1480 88090000 		lbz 0,_ZN9TiXmlBase18condenseWhiteSpaceE@l(9)
 4677 1484 2F800000 		cmpwi 7,0,0
 4678 1488 409E0204 		bne- 7,.L413
 4679              	.LVL421:
 4680              	.L356:
 4681              	.LBB2031:
 4682              		.loc 2 587 0 is_stmt 1 discriminator 1
 4683 148c 2E1F0000 		cmpwi 4,31,0
 4684 1490 41920010 		beq- 4,.L396
 4685              	.LVL422:
 4686              	.L412:
 4687              		.loc 2 587 0 is_stmt 0 discriminator 2
 4688 1494 881F0000 		lbz 0,0(31)
 4689 1498 2F800000 		cmpwi 7,0,0
 4690 149c 409E0068 		bne- 7,.L414
 4691              	.LVL423:
 4692              	.L396:
 4693              	.LBE2031:
 4694              	.LBE2030:
 4695              		.loc 2 635 0 is_stmt 1
 4696 14a0 4192002C 		beq- 4,.L394
 4697              		.loc 2 635 0 is_stmt 0 discriminator 1
 4698 14a4 881F0000 		lbz 0,0(31)
 4699 14a8 2F800000 		cmpwi 7,0,0
 4700 14ac 419E01A4 		beq- 7,.L395
 4701              		.loc 2 636 0 is_stmt 1
 4702 14b0 7FA3EB78 		mr 3,29
 4703 14b4 48000001 		bl strlen
 4704              	.LVL424:
 4705              		.loc 2 637 0
 4706 14b8 7FFF1A15 		add. 31,31,3
 4707              	.LVL425:
 4708 14bc 41820010 		beq- 0,.L394
 4709 14c0 881F0000 		lbz 0,0(31)
 4710 14c4 2F800000 		cmpwi 7,0,0
 4711 14c8 419E0188 		beq- 7,.L395
 4712              	.L394:
 4713              	.LBE2163:
 4714              		.loc 2 638 0 discriminator 4
 4715 14cc 8001003C 		lwz 0,60(1)
 4716 14d0 7FE3FB78 		mr 3,31
 4717 14d4 81810018 		lwz 12,24(1)
 4718 14d8 7C0803A6 		mtlr 0
 4719 14dc 8321001C 		lwz 25,28(1)
 4720 14e0 83410020 		lwz 26,32(1)
 4721              	.LVL426:
 4722 14e4 7D808120 		mtcrf 8,12
 4723 14e8 83610024 		lwz 27,36(1)
 4724 14ec 83810028 		lwz 28,40(1)
 4725 14f0 83A1002C 		lwz 29,44(1)
 4726              	.LVL427:
 4727 14f4 83C10030 		lwz 30,48(1)
 4728              	.LVL428:
 4729 14f8 83E10034 		lwz 31,52(1)
 4730              	.LVL429:
 4731 14fc 38210038 		addi 1,1,56
 4732              		.cfi_remember_state
 4733              	.LCFI69:
 4734              		.cfi_def_cfa_offset 0
 4735              		.cfi_restore 70
 4736              		.cfi_restore 31
 4737              		.cfi_restore 30
 4738              		.cfi_restore 29
 4739              		.cfi_restore 28
 4740              		.cfi_restore 27
 4741              		.cfi_restore 26
 4742              		.cfi_restore 25
 4743 1500 4E800020 		blr
 4744              	.LVL430:
 4745              	.L414:
 4746              	.LCFI70:
 4747              		.cfi_restore_state
 4748              	.LBB2164:
 4749              	.LBB2158:
 4750              	.LBB2055:
 4751              		.loc 2 588 0 discriminator 4
 4752 1504 7FE3FB78 		mr 3,31
 4753 1508 7FA4EB78 		mr 4,29
 4754 150c 7F65DB78 		mr 5,27
 4755 1510 7F46D378 		mr 6,26
 4756 1514 48000001 		bl _ZN9TiXmlBase11StringEqualEPKcS1_b13TiXmlEncoding
 4757              		.loc 2 587 0 discriminator 4
 4758 1518 2C030000 		cmpwi 0,3,0
 4759 151c 40A2FF84 		bne- 0,.L396
 4760              	.LBB2032:
 4761              	.LBB2033:
 4762              	.LBB2034:
 4763              		.loc 1 332 0 discriminator 6
 4764 1520 2F9A0001 		cmpwi 7,26,1
 4765              	.LBE2034:
 4766              	.LBE2033:
 4767              		.loc 2 592 0 discriminator 6
 4768 1524 90610008 		stw 3,8(1)
 4769              	.LVL431:
 4770              	.LBB2047:
 4771              	.LBB2041:
 4772              		.loc 1 332 0 discriminator 6
 4773 1528 419E0040 		beq- 7,.L415
 4774              		.loc 1 339 0
 4775 152c 38000001 		li 0,1
 4776 1530 9001000C 		stw 0,12(1)
 4777              	.L359:
 4778              	.LBB2035:
 4779              		.loc 1 344 0
 4780 1534 881F0000 		lbz 0,0(31)
 4781 1538 2F800026 		cmpwi 7,0,38
 4782 153c 419E00F4 		beq- 7,.L416
 4783              		.loc 1 346 0
 4784 1540 7C3C0B78 		mr 28,1
 4785              		.loc 1 347 0
 4786 1544 3BFF0001 		addi 31,31,1
 4787              	.LVL432:
 4788              		.loc 1 346 0
 4789 1548 9C1C0008 		stbu 0,8(28)
 4790              	.LVL433:
 4791              	.L362:
 4792              	.LBE2035:
 4793              	.LBE2041:
 4794              	.LBE2047:
 4795              	.LBE2032:
 4796              		.loc 2 587 0
 4797 154c 2E1F0000 		cmpwi 4,31,0
 4798              	.LBB2051:
 4799              		.loc 2 594 0
 4800 1550 80A1000C 		lwz 5,12(1)
 4801 1554 7FC3F378 		mr 3,30
 4802 1558 7F84E378 		mr 4,28
 4803 155c 48000001 		bl _ZNSs6appendEPKcj
 4804              	.LVL434:
 4805              	.LBE2051:
 4806              		.loc 2 587 0
 4807 1560 4092FF34 		bne+ 4,.L412
 4808 1564 4BFFFF3C 		b .L396
 4809              	.LVL435:
 4810              	.L415:
 4811              	.LBB2052:
 4812              	.LBB2048:
 4813              	.LBB2042:
 4814              		.loc 1 334 0
 4815 1568 893F0000 		lbz 9,0(31)
 4816 156c 3CA00000 		lis 5,.LANCHOR1@ha
 4817 1570 38A50000 		la 5,.LANCHOR1@l(5)
 4818 1574 5529103A 		slwi 9,9,2
 4819 1578 7D254A14 		add 9,5,9
 4820 157c 81290058 		lwz 9,88(9)
 4821              		.loc 1 335 0
 4822 1580 2B890004 		cmplwi 7,9,4
 4823              		.loc 1 334 0
 4824 1584 9121000C 		stw 9,12(1)
 4825              		.loc 1 335 0
 4826 1588 419D0378 		bgt- 7,.L417
 4827              	.LBB2039:
 4828              		.loc 1 342 0
 4829 158c 2F890001 		cmpwi 7,9,1
 4830 1590 41BEFFA4 		beq- 7,.L359
 4831              	.LBB2036:
 4832              		.loc 1 349 0
 4833 1594 2F890000 		cmpwi 7,9,0
 4834 1598 419E004C 		beq- 7,.L363
 4835              	.LVL436:
 4836              	.LBB2037:
 4837              	.LBB2038:
 4838              		.loc 1 353 0
 4839 159c 881F0000 		lbz 0,0(31)
 4840 15a0 39400000 		li 10,0
 4841 15a4 39600000 		li 11,0
 4842 15a8 7D284B78 		mr 8,9
 4843 15ac 2F800000 		cmpwi 7,0,0
 4844 15b0 419E0028 		beq- 7,.L365
 4845              	.LVL437:
 4846              	.L406:
 4847              		.loc 1 354 0
 4848 15b4 7D415214 		add 10,1,10
 4849              		.loc 1 353 0
 4850 15b8 396B0001 		addi 11,11,1
 4851              	.LVL438:
 4852              		.loc 1 354 0
 4853 15bc 980A0008 		stb 0,8(10)
 4854              		.loc 1 353 0
 4855 15c0 7D6A5B78 		mr 10,11
 4856 15c4 7C1F58AE 		lbzx 0,31,11
 4857 15c8 2F800000 		cmpwi 7,0,0
 4858 15cc 419E000C 		beq- 7,.L365
 4859 15d0 3508FFFF 		addic. 8,8,-1
 4860 15d4 40A2FFE0 		bne- 0,.L406
 4861              	.LVL439:
 4862              	.L365:
 4863              	.LBE2038:
 4864              		.loc 1 356 0
 4865 15d8 7FFF4A14 		add 31,31,9
 4866              	.LVL440:
 4867 15dc 3B810008 		addi 28,1,8
 4868 15e0 4BFFFF6C 		b .L362
 4869              	.LVL441:
 4870              	.L363:
 4871              	.LBE2037:
 4872              	.LBE2036:
 4873              	.LBE2039:
 4874              	.LBE2042:
 4875              	.LBE2048:
 4876              		.loc 2 594 0
 4877 15e4 7FC3F378 		mr 3,30
 4878 15e8 38810008 		addi 4,1,8
 4879 15ec 38A00000 		li 5,0
 4880              		.loc 1 361 0
 4881 15f0 3BE00000 		li 31,0
 4882              	.LVL442:
 4883              		.loc 2 594 0
 4884 15f4 48000001 		bl _ZNSs6appendEPKcj
 4885              	.LVL443:
 4886              	.LBE2052:
 4887              	.LBE2055:
 4888              	.LBE2158:
 4889              	.LBE2164:
 4890              		.loc 2 638 0
 4891 15f8 8001003C 		lwz 0,60(1)
 4892 15fc 81810018 		lwz 12,24(1)
 4893 1600 7FE3FB78 		mr 3,31
 4894 1604 7C0803A6 		mtlr 0
 4895 1608 8321001C 		lwz 25,28(1)
 4896 160c 83410020 		lwz 26,32(1)
 4897              	.LVL444:
 4898 1610 7D808120 		mtcrf 8,12
 4899 1614 83610024 		lwz 27,36(1)
 4900 1618 83810028 		lwz 28,40(1)
 4901 161c 83A1002C 		lwz 29,44(1)
 4902              	.LVL445:
 4903 1620 83C10030 		lwz 30,48(1)
 4904              	.LVL446:
 4905 1624 83E10034 		lwz 31,52(1)
 4906 1628 38210038 		addi 1,1,56
 4907              		.cfi_remember_state
 4908              		.cfi_restore 25
 4909              		.cfi_restore 26
 4910              		.cfi_restore 27
 4911              		.cfi_restore 28
 4912              		.cfi_restore 29
 4913              		.cfi_restore 30
 4914              		.cfi_restore 31
 4915              		.cfi_restore 70
 4916              	.LCFI71:
 4917              		.cfi_def_cfa_offset 0
 4918 162c 4E800020 		blr
 4919              	.LVL447:
 4920              	.L416:
 4921              	.LCFI72:
 4922              		.cfi_restore_state
 4923              	.LBB2165:
 4924              	.LBB2159:
 4925              	.LBB2056:
 4926              	.LBB2053:
 4927              	.LBB2049:
 4928              	.LBB2043:
 4929              	.LBB2040:
 4930              		.loc 1 345 0
 4931 1630 3B810008 		addi 28,1,8
 4932 1634 7FE3FB78 		mr 3,31
 4933 1638 7F84E378 		mr 4,28
 4934 163c 38A1000C 		addi 5,1,12
 4935 1640 7F46D378 		mr 6,26
 4936 1644 48000001 		bl _ZN9TiXmlBase9GetEntityEPKcPcPi13TiXmlEncoding
 4937 1648 7C7F1B78 		mr 31,3
 4938              	.LVL448:
 4939 164c 4BFFFF00 		b .L362
 4940              	.LVL449:
 4941              	.L395:
 4942              	.LBE2040:
 4943              	.LBE2043:
 4944              	.LBE2049:
 4945              	.LBE2053:
 4946              	.LBE2056:
 4947              	.LBE2159:
 4948              	.LBE2165:
 4949              		.loc 2 638 0
 4950 1650 8001003C 		lwz 0,60(1)
 4951              	.LBB2166:
 4952              	.LBB2160:
 4953              	.LBB2057:
 4954              		.loc 2 637 0
 4955 1654 3BE00000 		li 31,0
 4956              	.LVL450:
 4957              	.LBE2057:
 4958              	.LBE2160:
 4959              	.LBE2166:
 4960              		.loc 2 638 0
 4961 1658 81810018 		lwz 12,24(1)
 4962 165c 7FE3FB78 		mr 3,31
 4963 1660 7C0803A6 		mtlr 0
 4964 1664 8321001C 		lwz 25,28(1)
 4965 1668 83410020 		lwz 26,32(1)
 4966              	.LVL451:
 4967 166c 7D808120 		mtcrf 8,12
 4968 1670 83610024 		lwz 27,36(1)
 4969 1674 83810028 		lwz 28,40(1)
 4970 1678 83A1002C 		lwz 29,44(1)
 4971              	.LVL452:
 4972 167c 83C10030 		lwz 30,48(1)
 4973              	.LVL453:
 4974 1680 83E10034 		lwz 31,52(1)
 4975 1684 38210038 		addi 1,1,56
 4976              		.cfi_remember_state
 4977              		.cfi_restore 25
 4978              		.cfi_restore 26
 4979              		.cfi_restore 27
 4980              		.cfi_restore 28
 4981              		.cfi_restore 29
 4982              		.cfi_restore 30
 4983              		.cfi_restore 31
 4984              		.cfi_restore 70
 4985              	.LCFI73:
 4986              		.cfi_def_cfa_offset 0
 4987 1688 4E800020 		blr
 4988              	.LVL454:
 4989              	.L413:
 4990              	.LCFI74:
 4991              		.cfi_restore_state
 4992              	.LBB2167:
 4993              	.LBB2161:
 4994              	.LBB2156:
 4995              		.loc 2 602 0
 4996 168c 7FE3FB78 		mr 3,31
 4997 1690 7F44D378 		mr 4,26
 4998 1694 48000001 		bl _ZN9TiXmlBase14SkipWhiteSpaceEPKc13TiXmlEncoding
 4999              	.LVL455:
 5000              		.loc 2 603 0
 5001 1698 2E030000 		cmpwi 4,3,0
 5002 169c 7C7F1B78 		mr 31,3
 5003 16a0 41B2FE00 		beq- 4,.L396
 5004 16a4 88030000 		lbz 0,0(3)
 5005 16a8 2F800000 		cmpwi 7,0,0
 5006 16ac 419EFDF4 		beq+ 7,.L396
 5007 16b0 3B800000 		li 28,0
 5008              	.LVL456:
 5009              	.L371:
 5010              		.loc 2 604 0 discriminator 4
 5011 16b4 7FE3FB78 		mr 3,31
 5012 16b8 7FA4EB78 		mr 4,29
 5013 16bc 7F65DB78 		mr 5,27
 5014 16c0 7F46D378 		mr 6,26
 5015 16c4 48000001 		bl _ZN9TiXmlBase11StringEqualEPKcS1_b13TiXmlEncoding
 5016              		.loc 2 603 0 discriminator 4
 5017 16c8 2F830000 		cmpwi 7,3,0
 5018 16cc 40BEFDD4 		bne- 7,.L396
 5019              	.LBB2058:
 5020              		.loc 2 606 0 discriminator 6
 5021 16d0 887F0000 		lbz 3,0(31)
 5022 16d4 2F83000D 		cmpwi 7,3,13
 5023 16d8 419E0080 		beq- 7,.L374
 5024              		.loc 2 606 0 is_stmt 0 discriminator 1
 5025 16dc 2F83000A 		cmpwi 7,3,10
 5026 16e0 419E0078 		beq- 7,.L374
 5027              	.LVL457:
 5028              	.LBB2059:
 5029              	.LBB2060:
 5030              	.LBB2061:
 5031              		.loc 1 294 0 is_stmt 1
 5032 16e4 48000001 		bl isspace
 5033              	.LVL458:
 5034 16e8 2F830000 		cmpwi 7,3,0
 5035 16ec 409E006C 		bne- 7,.L374
 5036              	.LBE2061:
 5037              	.LBE2060:
 5038              	.LBB2062:
 5039              		.loc 2 620 0
 5040 16f0 2F9C0000 		cmpwi 7,28,0
 5041 16f4 409E0070 		bne- 7,.L418
 5042              	.L376:
 5043              	.LVL459:
 5044              	.LBB2063:
 5045              	.LBB2064:
 5046              		.loc 1 332 0
 5047 16f8 2F9A0001 		cmpwi 7,26,1
 5048              	.LBE2064:
 5049              	.LBE2063:
 5050              		.loc 2 626 0
 5051 16fc 38000000 		li 0,0
 5052 1700 90010008 		stw 0,8(1)
 5053              	.LVL460:
 5054              	.LBB2082:
 5055              	.LBB2075:
 5056              		.loc 1 332 0
 5057 1704 419E00CC 		beq- 7,.L419
 5058              		.loc 1 339 0
 5059 1708 38000001 		li 0,1
 5060 170c 9001000C 		stw 0,12(1)
 5061              	.L381:
 5062              	.LBB2065:
 5063              		.loc 1 344 0
 5064 1710 881F0000 		lbz 0,0(31)
 5065 1714 2F800026 		cmpwi 7,0,38
 5066 1718 419E01B0 		beq- 7,.L420
 5067              		.loc 1 346 0
 5068 171c 98010008 		stb 0,8(1)
 5069              		.loc 1 347 0
 5070 1720 3BFF0001 		addi 31,31,1
 5071              	.LVL461:
 5072              	.L384:
 5073              	.LBE2065:
 5074              	.LBE2075:
 5075              	.LBE2082:
 5076              	.LBB2083:
 5077              	.LBB2084:
 5078              	.LBB2085:
 5079              	.LBB2086:
 5080              	.LBB2087:
 5081              	.LBB2088:
 5082              	.LBB2089:
 5083              		.loc 6 245 0
 5084 1724 80A1000C 		lwz 5,12(1)
 5085              	.LBE2089:
 5086              	.LBE2088:
 5087              	.LBE2087:
 5088              	.LBE2086:
 5089              	.LBE2085:
 5090              	.LBE2084:
 5091              	.LBE2083:
 5092              		.loc 2 628 0
 5093 1728 2F850001 		cmpwi 7,5,1
 5094 172c 419E0128 		beq- 7,.L421
 5095              	.L385:
 5096              		.loc 2 631 0
 5097 1730 7FC3F378 		mr 3,30
 5098 1734 38810008 		addi 4,1,8
 5099              	.LVL462:
 5100 1738 48000001 		bl _ZNSs6appendEPKcj
 5101              	.LVL463:
 5102 173c 3B800000 		li 28,0
 5103              	.LVL464:
 5104              	.L373:
 5105              	.LBE2062:
 5106              	.LBE2059:
 5107              	.LBE2058:
 5108              		.loc 2 603 0 discriminator 1
 5109 1740 2E1F0000 		cmpwi 4,31,0
 5110 1744 41B2FD5C 		beq- 4,.L396
 5111              		.loc 2 603 0 is_stmt 0 discriminator 2
 5112 1748 881F0000 		lbz 0,0(31)
 5113 174c 2F800000 		cmpwi 7,0,0
 5114 1750 419EFD50 		beq+ 7,.L396
 5115 1754 4BFFFF60 		b .L371
 5116              	.LVL465:
 5117              	.L374:
 5118              	.LBB2155:
 5119              	.LBB2154:
 5120              		.loc 2 614 0 is_stmt 1
 5121 1758 3BFF0001 		addi 31,31,1
 5122              	.LVL466:
 5123              		.loc 2 613 0
 5124 175c 3B800001 		li 28,1
 5125 1760 4BFFFFE0 		b .L373
 5126              	.LVL467:
 5127              	.L418:
 5128              	.LBB2153:
 5129              	.LBB2120:
 5130              	.LBB2121:
 5131              	.LBB2122:
 5132              	.LBB2123:
 5133              	.LBB2124:
 5134              	.LBB2125:
 5135              	.LBB2126:
 5136              	.LBB2127:
 5137              		.loc 4 288 0
 5138 1764 813E0000 		lwz 9,0(30)
 5139              	.LBE2127:
 5140              	.LBE2126:
 5141              	.LBE2125:
 5142              		.loc 4 711 0
 5143 1768 8169FFF4 		lwz 11,-12(9)
 5144              	.LBE2124:
 5145              	.LBE2123:
 5146              		.loc 4 1046 0
 5147 176c 8009FFF8 		lwz 0,-8(9)
 5148              		.loc 4 1045 0
 5149 1770 3B8B0001 		addi 28,11,1
 5150              	.LVL468:
 5151              		.loc 4 1046 0
 5152 1774 7F9C0040 		cmplw 7,28,0
 5153 1778 419D0010 		bgt- 7,.L377
 5154              	.LVL469:
 5155 177c 8009FFFC 		lwz 0,-4(9)
 5156 1780 2F800000 		cmpwi 7,0,0
 5157 1784 409D0018 		ble- 7,.L378
 5158              	.L377:
 5159              		.loc 4 1047 0
 5160 1788 7FC3F378 		mr 3,30
 5161 178c 7F84E378 		mr 4,28
 5162 1790 48000001 		bl _ZNSs7reserveEj
 5163 1794 813E0000 		lwz 9,0(30)
 5164 1798 8169FFF4 		lwz 11,-12(9)
 5165              	.L378:
 5166              	.LVL470:
 5167              	.LBB2128:
 5168              	.LBB2129:
 5169              		.loc 6 245 0
 5170 179c 38000020 		li 0,32
 5171              	.LBE2129:
 5172              	.LBE2128:
 5173              	.LBB2131:
 5174              	.LBB2132:
 5175              		.loc 4 205 0
 5176 17a0 3D400000 		lis 10,_ZNSs4_Rep20_S_empty_rep_storageE@ha
 5177              	.LBE2132:
 5178              	.LBE2131:
 5179              	.LBB2141:
 5180              	.LBB2130:
 5181              		.loc 6 245 0
 5182 17a4 7C0959AE 		stbx 0,9,11
 5183              	.LVL471:
 5184              	.LBE2130:
 5185              	.LBE2141:
 5186              	.LBB2142:
 5187              	.LBB2139:
 5188              		.loc 4 205 0
 5189 17a8 380A0000 		la 0,_ZNSs4_Rep20_S_empty_rep_storageE@l(10)
 5190              	.LBE2139:
 5191              	.LBE2142:
 5192              	.LBB2143:
 5193              	.LBB2144:
 5194              	.LBB2145:
 5195              		.loc 4 288 0
 5196 17ac 813E0000 		lwz 9,0(30)
 5197              	.LVL472:
 5198              	.LBE2145:
 5199              	.LBE2144:
 5200              	.LBE2143:
 5201              		.loc 4 1049 0
 5202 17b0 3969FFF4 		addi 11,9,-12
 5203              	.LBB2146:
 5204              	.LBB2140:
 5205              		.loc 4 205 0
 5206 17b4 7F8B0000 		cmpw 7,11,0
 5207 17b8 419EFF40 		beq+ 7,.L376
 5208              	.LBB2133:
 5209              	.LBB2134:
 5210              		.loc 4 199 0
 5211 17bc 38000000 		li 0,0
 5212              	.LBE2134:
 5213              	.LBE2133:
 5214              		.loc 4 209 0
 5215 17c0 9389FFF4 		stw 28,-12(9)
 5216              	.LVL473:
 5217              	.LBB2136:
 5218              	.LBB2135:
 5219              		.loc 4 199 0
 5220 17c4 9009FFFC 		stw 0,-4(9)
 5221              	.LBE2135:
 5222              	.LBE2136:
 5223              	.LBB2137:
 5224              	.LBB2138:
 5225              		.loc 6 245 0
 5226 17c8 7C09E1AE 		stbx 0,9,28
 5227 17cc 4BFFFF2C 		b .L376
 5228              	.LVL474:
 5229              	.L419:
 5230              	.LBE2138:
 5231              	.LBE2137:
 5232              	.LBE2140:
 5233              	.LBE2146:
 5234              	.LBE2122:
 5235              	.LBE2121:
 5236              	.LBE2120:
 5237              	.LBB2147:
 5238              	.LBB2076:
 5239              		.loc 1 334 0
 5240 17d0 897F0000 		lbz 11,0(31)
 5241 17d4 3D200000 		lis 9,.LANCHOR1@ha
 5242 17d8 39290000 		la 9,.LANCHOR1@l(9)
 5243 17dc 556B103A 		slwi 11,11,2
 5244 17e0 7D695A14 		add 11,9,11
 5245 17e4 816B0058 		lwz 11,88(11)
 5246              		.loc 1 335 0
 5247 17e8 2B8B0004 		cmplwi 7,11,4
 5248              		.loc 1 334 0
 5249 17ec 9161000C 		stw 11,12(1)
 5250              		.loc 1 335 0
 5251 17f0 7D655B78 		mr 5,11
 5252 17f4 419D00F0 		bgt- 7,.L422
 5253              	.LBB2072:
 5254              		.loc 1 342 0
 5255 17f8 2F8B0001 		cmpwi 7,11,1
 5256 17fc 41BEFF14 		beq- 7,.L381
 5257              	.LBB2066:
 5258              		.loc 1 349 0
 5259 1800 2F8B0000 		cmpwi 7,11,0
 5260 1804 419E00BC 		beq- 7,.L399
 5261              	.LVL475:
 5262              	.LBB2067:
 5263              	.LBB2068:
 5264              		.loc 1 353 0
 5265 1808 881F0000 		lbz 0,0(31)
 5266 180c 39400000 		li 10,0
 5267 1810 39200000 		li 9,0
 5268 1814 7D685B78 		mr 8,11
 5269 1818 2F800000 		cmpwi 7,0,0
 5270 181c 419E0028 		beq- 7,.L387
 5271              	.LVL476:
 5272              	.L407:
 5273              		.loc 1 354 0
 5274 1820 7D415214 		add 10,1,10
 5275              		.loc 1 353 0
 5276 1824 39290001 		addi 9,9,1
 5277              	.LVL477:
 5278              		.loc 1 354 0
 5279 1828 980A0008 		stb 0,8(10)
 5280              		.loc 1 353 0
 5281 182c 7D2A4B78 		mr 10,9
 5282 1830 7C1F48AE 		lbzx 0,31,9
 5283 1834 2F800000 		cmpwi 7,0,0
 5284 1838 419E000C 		beq- 7,.L387
 5285 183c 3508FFFF 		addic. 8,8,-1
 5286 1840 40A2FFE0 		bne- 0,.L407
 5287              	.LVL478:
 5288              	.L387:
 5289              	.LBE2068:
 5290              	.LBE2067:
 5291              	.LBE2066:
 5292              	.LBE2072:
 5293              	.LBE2076:
 5294              	.LBE2147:
 5295              	.LBB2148:
 5296              	.LBB2117:
 5297              	.LBB2114:
 5298              	.LBB2099:
 5299              	.LBB2096:
 5300              	.LBB2092:
 5301              	.LBB2090:
 5302              		.loc 6 245 0
 5303 1844 80A1000C 		lwz 5,12(1)
 5304              	.LBE2090:
 5305              	.LBE2092:
 5306              	.LBE2096:
 5307              	.LBE2099:
 5308              	.LBE2114:
 5309              	.LBE2117:
 5310              	.LBE2148:
 5311              	.LBB2149:
 5312              	.LBB2077:
 5313              	.LBB2073:
 5314              	.LBB2070:
 5315              	.LBB2069:
 5316              		.loc 1 356 0
 5317 1848 7FFF5A14 		add 31,31,11
 5318              	.LVL479:
 5319              	.LBE2069:
 5320              	.LBE2070:
 5321              	.LBE2073:
 5322              	.LBE2077:
 5323              	.LBE2149:
 5324              		.loc 2 628 0
 5325 184c 2F850001 		cmpwi 7,5,1
 5326 1850 409EFEE0 		bne+ 7,.L385
 5327              	.L421:
 5328              	.LBB2150:
 5329              	.LBB2118:
 5330              	.LBB2115:
 5331              	.LBB2100:
 5332              	.LBB2101:
 5333              	.LBB2102:
 5334              	.LBB2103:
 5335              	.LBB2104:
 5336              		.loc 4 288 0
 5337 1854 813E0000 		lwz 9,0(30)
 5338              	.LBE2104:
 5339              	.LBE2103:
 5340              	.LBE2102:
 5341              	.LBE2101:
 5342              	.LBE2100:
 5343              	.LBE2115:
 5344              	.LBE2118:
 5345              	.LBE2150:
 5346              		.loc 2 629 0
 5347 1858 8B810008 		lbz 28,8(1)
 5348              	.LVL480:
 5349              	.LBB2151:
 5350              	.LBB2119:
 5351              	.LBB2116:
 5352              	.LBB2106:
 5353              	.LBB2105:
 5354              		.loc 4 711 0
 5355 185c 8169FFF4 		lwz 11,-12(9)
 5356              	.LBE2105:
 5357              	.LBE2106:
 5358              		.loc 4 1046 0
 5359 1860 8009FFF8 		lwz 0,-8(9)
 5360              		.loc 4 1045 0
 5361 1864 3B2B0001 		addi 25,11,1
 5362              	.LVL481:
 5363              		.loc 4 1046 0
 5364 1868 7F990040 		cmplw 7,25,0
 5365 186c 419D0010 		bgt- 7,.L390
 5366              	.LVL482:
 5367 1870 8009FFFC 		lwz 0,-4(9)
 5368 1874 2F800000 		cmpwi 7,0,0
 5369 1878 409D0018 		ble- 7,.L391
 5370              	.L390:
 5371              		.loc 4 1047 0
 5372 187c 7FC3F378 		mr 3,30
 5373 1880 7F24CB78 		mr 4,25
 5374 1884 48000001 		bl _ZNSs7reserveEj
 5375 1888 813E0000 		lwz 9,0(30)
 5376 188c 8169FFF4 		lwz 11,-12(9)
 5377              	.L391:
 5378              	.LVL483:
 5379              	.LBB2107:
 5380              	.LBB2108:
 5381              		.loc 6 245 0
 5382 1890 7F8959AE 		stbx 28,9,11
 5383              	.LVL484:
 5384              	.LBE2108:
 5385              	.LBE2107:
 5386              	.LBB2109:
 5387              	.LBB2097:
 5388              		.loc 4 205 0
 5389 1894 3D400000 		lis 10,_ZNSs4_Rep20_S_empty_rep_storageE@ha
 5390 1898 380A0000 		la 0,_ZNSs4_Rep20_S_empty_rep_storageE@l(10)
 5391 189c 3B800000 		li 28,0
 5392              	.LVL485:
 5393              	.LBE2097:
 5394              	.LBE2109:
 5395              	.LBB2110:
 5396              	.LBB2111:
 5397              	.LBB2112:
 5398              		.loc 4 288 0
 5399 18a0 813E0000 		lwz 9,0(30)
 5400              	.LVL486:
 5401              	.LBE2112:
 5402              	.LBE2111:
 5403              	.LBE2110:
 5404              		.loc 4 1049 0
 5405 18a4 3969FFF4 		addi 11,9,-12
 5406              	.LBB2113:
 5407              	.LBB2098:
 5408              		.loc 4 205 0
 5409 18a8 7F8B0000 		cmpw 7,11,0
 5410 18ac 419EFE94 		beq+ 7,.L373
 5411              	.LBB2093:
 5412              	.LBB2094:
 5413              		.loc 4 199 0
 5414 18b0 9389FFFC 		stw 28,-4(9)
 5415              	.LBE2094:
 5416              	.LBE2093:
 5417              		.loc 4 209 0
 5418 18b4 9329FFF4 		stw 25,-12(9)
 5419              	.LVL487:
 5420              	.LBB2095:
 5421              	.LBB2091:
 5422              		.loc 6 245 0
 5423 18b8 7F89C9AE 		stbx 28,9,25
 5424 18bc 4BFFFE84 		b .L373
 5425              	.LVL488:
 5426              	.L399:
 5427              	.LBE2091:
 5428              	.LBE2095:
 5429              	.LBE2098:
 5430              	.LBE2113:
 5431              	.LBE2116:
 5432              	.LBE2119:
 5433              	.LBE2151:
 5434              	.LBB2152:
 5435              	.LBB2078:
 5436              	.LBB2074:
 5437              	.LBB2071:
 5438              		.loc 1 361 0
 5439 18c0 3BE00000 		li 31,0
 5440              	.LVL489:
 5441 18c4 4BFFFE6C 		b .L385
 5442              	.LVL490:
 5443              	.L420:
 5444              	.LBE2071:
 5445              		.loc 1 345 0
 5446 18c8 7FE3FB78 		mr 3,31
 5447 18cc 38810008 		addi 4,1,8
 5448              	.LVL491:
 5449 18d0 38A1000C 		addi 5,1,12
 5450              	.LVL492:
 5451 18d4 7F46D378 		mr 6,26
 5452 18d8 48000001 		bl _ZN9TiXmlBase9GetEntityEPKcPcPi13TiXmlEncoding
 5453              	.LVL493:
 5454 18dc 7C7F1B78 		mr 31,3
 5455              	.LVL494:
 5456 18e0 4BFFFE44 		b .L384
 5457              	.LVL495:
 5458              	.L422:
 5459              	.LBE2074:
 5460              	.LBE2078:
 5461              	.LBB2079:
 5462              	.LBB2080:
 5463              	.LBB2081:
 5464              		.loc 1 335 0
 5465 18e4 3C600000 		lis 3,.LC12@ha
 5466 18e8 3CC00000 		lis 6,.LC13@ha
 5467 18ec 386300CC 		la 3,.LC12@l(3)
 5468 18f0 3880014F 		li 4,335
 5469 18f4 38A90554 		addi 5,9,1364
 5470 18f8 38C60118 		la 6,.LC13@l(6)
 5471 18fc 48000001 		bl __assert_func
 5472              	.LVL496:
 5473              	.L417:
 5474              	.LBE2081:
 5475              	.LBE2080:
 5476              	.LBE2079:
 5477              	.LBE2152:
 5478              	.LBE2153:
 5479              	.LBE2154:
 5480              	.LBE2155:
 5481              	.LBE2156:
 5482              	.LBB2157:
 5483              	.LBB2054:
 5484              	.LBB2050:
 5485              	.LBB2044:
 5486              	.LBB2045:
 5487              	.LBB2046:
 5488 1900 3C600000 		lis 3,.LC12@ha
 5489 1904 3CC00000 		lis 6,.LC13@ha
 5490 1908 386300CC 		la 3,.LC12@l(3)
 5491 190c 3880014F 		li 4,335
 5492 1910 38A50554 		addi 5,5,1364
 5493 1914 38C60118 		la 6,.LC13@l(6)
 5494 1918 48000001 		bl __assert_func
 5495              	.LBE2046:
 5496              	.LBE2045:
 5497              	.LBE2044:
 5498              	.LBE2050:
 5499              	.LBE2054:
 5500              	.LBE2157:
 5501              	.LBE2161:
 5502              	.LBE2167:
 5503              		.cfi_endproc
 5504              	.LFE1231:
 5505              		.size	_ZN9TiXmlBase8ReadTextEPKcPSsbS1_b13TiXmlEncoding, .-_ZN9TiXmlBase8ReadTextEPKcPSsbS1_b13TiX
 5506              		.align 2
 5507              		.globl _ZN13TiXmlDocument8SetErrorEiPKcP16TiXmlParsingData13TiXmlEncoding
 5508              		.type	_ZN13TiXmlDocument8SetErrorEiPKcP16TiXmlParsingData13TiXmlEncoding, @function
 5509              	_ZN13TiXmlDocument8SetErrorEiPKcP16TiXmlParsingData13TiXmlEncoding:
 5510              	.LFB1234:
 5511              		.loc 2 800 0
 5512              		.cfi_startproc
 5513              	.LVL497:
 5514 191c 7C0802A6 		mflr 0
 5515 1920 9421FFE0 		stwu 1,-32(1)
 5516              	.LCFI75:
 5517              		.cfi_def_cfa_offset 32
 5518              		.cfi_register 65, 0
 5519 1924 93810010 		stw 28,16(1)
 5520 1928 7CFC3B78 		mr 28,7
 5521              		.cfi_offset 28, -16
 5522 192c 90010024 		stw 0,36(1)
 5523 1930 93A10014 		stw 29,20(1)
 5524 1934 7CDD3378 		mr 29,6
 5525              		.cfi_offset 29, -12
 5526              		.cfi_offset 65, 4
 5527              	.LBB2184:
 5528              		.loc 2 802 0
 5529 1938 8803002C 		lbz 0,44(3)
 5530              	.LBE2184:
 5531              		.loc 2 800 0
 5532 193c 93C10018 		stw 30,24(1)
 5533 1940 7CBE2B78 		mr 30,5
 5534              		.cfi_offset 30, -8
 5535              	.LBB2194:
 5536              		.loc 2 802 0
 5537 1944 2F800000 		cmpwi 7,0,0
 5538              	.LBE2194:
 5539              		.loc 2 800 0
 5540 1948 93E1001C 		stw 31,28(1)
 5541 194c 9361000C 		stw 27,12(1)
 5542              		.loc 2 800 0
 5543 1950 7C7F1B78 		mr 31,3
 5544              		.cfi_offset 27, -20
 5545              		.cfi_offset 31, -4
 5546              	.LBB2195:
 5547              		.loc 2 802 0
 5548 1954 409E0080 		bne- 7,.L423
 5549              		.loc 2 805 0
 5550 1958 3804FFFF 		addi 0,4,-1
 5551 195c 2B80000E 		cmplwi 7,0,14
 5552 1960 419D0098 		bgt- 7,.L426
 5553              		.loc 2 808 0
 5554 1964 3D200000 		lis 9,_ZN9TiXmlBase11errorStringE@ha
 5555 1968 5480103A 		slwi 0,4,2
 5556 196c 39290000 		la 9,_ZN9TiXmlBase11errorStringE@l(9)
 5557 1970 7F69002E 		lwzx 27,9,0
 5558              	.LVL498:
 5559              		.loc 2 806 0
 5560 1974 38000001 		li 0,1
 5561              	.LVL499:
 5562 1978 9803002C 		stb 0,44(3)
 5563              		.loc 2 807 0
 5564 197c 90830030 		stw 4,48(3)
 5565              	.LBB2185:
 5566              	.LBB2186:
 5567              	.LBB2187:
 5568              	.LBB2188:
 5569              	.LBB2189:
 5570              		.loc 6 261 0
 5571 1980 7F63DB78 		mr 3,27
 5572              	.LVL500:
 5573 1984 48000001 		bl strlen
 5574              	.LVL501:
 5575              	.LBE2189:
 5576              	.LBE2188:
 5577              		.loc 4 1121 0
 5578 1988 7F64DB78 		mr 4,27
 5579              	.LBB2191:
 5580              	.LBB2190:
 5581              		.loc 6 261 0
 5582 198c 7C651B78 		mr 5,3
 5583              	.LBE2190:
 5584              	.LBE2191:
 5585              		.loc 4 1121 0
 5586 1990 387F0034 		addi 3,31,52
 5587 1994 48000001 		bl _ZNSs6assignEPKcj
 5588              	.LVL502:
 5589              	.LBE2187:
 5590              	.LBE2186:
 5591              	.LBE2185:
 5592              		.loc 2 811 0
 5593 1998 2F9E0000 		cmpwi 7,30,0
 5594              	.LBB2192:
 5595              	.LBB2193:
 5596              		.loc 1 104 0
 5597 199c 3800FFFF 		li 0,-1
 5598 19a0 901F0040 		stw 0,64(31)
 5599 19a4 901F003C 		stw 0,60(31)
 5600              	.LBE2193:
 5601              	.LBE2192:
 5602              		.loc 2 811 0
 5603 19a8 419E002C 		beq- 7,.L423
 5604              		.loc 2 811 0 is_stmt 0 discriminator 1
 5605 19ac 2F9D0000 		cmpwi 7,29,0
 5606 19b0 419E0024 		beq- 7,.L423
 5607              		.loc 2 813 0 is_stmt 1
 5608 19b4 7FA3EB78 		mr 3,29
 5609 19b8 7FC4F378 		mr 4,30
 5610 19bc 7F85E378 		mr 5,28
 5611 19c0 48000001 		bl _ZN16TiXmlParsingData5StampEPKc13TiXmlEncoding
 5612              	.LVL503:
 5613              		.loc 2 814 0
 5614 19c4 815D0000 		lwz 10,0(29)
 5615 19c8 817D0004 		lwz 11,4(29)
 5616 19cc 915F003C 		stw 10,60(31)
 5617 19d0 917F0040 		stw 11,64(31)
 5618              	.LVL504:
 5619              	.L423:
 5620              	.LBE2195:
 5621              		.loc 2 816 0
 5622 19d4 80010024 		lwz 0,36(1)
 5623 19d8 8361000C 		lwz 27,12(1)
 5624 19dc 7C0803A6 		mtlr 0
 5625 19e0 83810010 		lwz 28,16(1)
 5626              	.LVL505:
 5627 19e4 83A10014 		lwz 29,20(1)
 5628              	.LVL506:
 5629 19e8 83C10018 		lwz 30,24(1)
 5630              	.LVL507:
 5631 19ec 83E1001C 		lwz 31,28(1)
 5632              	.LVL508:
 5633 19f0 38210020 		addi 1,1,32
 5634              		.cfi_remember_state
 5635              	.LCFI76:
 5636              		.cfi_def_cfa_offset 0
 5637              		.cfi_restore 31
 5638              		.cfi_restore 30
 5639              		.cfi_restore 29
 5640              		.cfi_restore 28
 5641              		.cfi_restore 27
 5642 19f4 4E800020 		blr
 5643              	.LVL509:
 5644              	.L426:
 5645              	.LCFI77:
 5646              		.cfi_restore_state
 5647              	.LBB2196:
 5648              	.LBB2197:
 5649              	.LBB2198:
 5650              		.loc 2 805 0
 5651 19f8 3CA00000 		lis 5,.LANCHOR1@ha
 5652              	.LVL510:
 5653 19fc 3C600000 		lis 3,.LC1@ha
 5654              	.LVL511:
 5655 1a00 38A50000 		la 5,.LANCHOR1@l(5)
 5656 1a04 3CC00000 		lis 6,.LC14@ha
 5657              	.LVL512:
 5658 1a08 38630000 		la 3,.LC1@l(3)
 5659 1a0c 38800325 		li 4,805
 5660              	.LVL513:
 5661 1a10 38A505A4 		addi 5,5,1444
 5662 1a14 38C60134 		la 6,.LC14@l(6)
 5663 1a18 48000001 		bl __assert_func
 5664              	.LVL514:
 5665              	.LVL515:
 5666              	.LBE2198:
 5667              	.LBE2197:
 5668              	.LBE2196:
 5669              		.cfi_endproc
 5670              	.LFE1234:
 5671              		.size	_ZN13TiXmlDocument8SetErrorEiPKcP16TiXmlParsingData13TiXmlEncoding, .-_ZN13TiXmlDocument8Set
 5672              		.align 2
 5673              		.globl _ZN14TiXmlAttribute5ParseEPKcP16TiXmlParsingData13TiXmlEncoding
 5674              		.type	_ZN14TiXmlAttribute5ParseEPKcP16TiXmlParsingData13TiXmlEncoding, @function
 5675              	_ZN14TiXmlAttribute5ParseEPKcP16TiXmlParsingData13TiXmlEncoding:
 5676              	.LFB1247:
 5677              		.loc 2 1394 0
 5678              		.cfi_startproc
 5679              	.LVL516:
 5680 1a1c 9421FFD8 		stwu 1,-40(1)
 5681              	.LCFI78:
 5682              		.cfi_def_cfa_offset 40
 5683 1a20 7C0802A6 		mflr 0
 5684 1a24 93810018 		stw 28,24(1)
 5685 1a28 7C7C1B78 		mr 28,3
 5686              		.cfi_offset 28, -16
 5687              		.cfi_register 65, 0
 5688              	.LBB2246:
 5689              		.loc 2 1395 0
 5690 1a2c 7C832378 		mr 3,4
 5691              	.LVL517:
 5692 1a30 7CC43378 		mr 4,6
 5693              	.LVL518:
 5694              	.LBE2246:
 5695              		.loc 2 1394 0
 5696 1a34 93A1001C 		stw 29,28(1)
 5697 1a38 7CBD2B78 		mr 29,5
 5698              		.cfi_offset 29, -12
 5699 1a3c 93C10020 		stw 30,32(1)
 5700 1a40 7CDE3378 		mr 30,6
 5701              		.cfi_offset 30, -8
 5702 1a44 93E10024 		stw 31,36(1)
 5703 1a48 9001002C 		stw 0,44(1)
 5704 1a4c 93010008 		stw 24,8(1)
 5705 1a50 9321000C 		stw 25,12(1)
 5706 1a54 93410010 		stw 26,16(1)
 5707 1a58 93610014 		stw 27,20(1)
 5708              	.LBB2285:
 5709              		.loc 2 1395 0
 5710              		.cfi_offset 27, -20
 5711              		.cfi_offset 26, -24
 5712              		.cfi_offset 25, -28
 5713              		.cfi_offset 24, -32
 5714              		.cfi_offset 65, 4
 5715              		.cfi_offset 31, -4
 5716 1a5c 48000001 		bl _ZN9TiXmlBase14SkipWhiteSpaceEPKc13TiXmlEncoding
 5717              	.LVL519:
 5718              		.loc 2 1396 0
 5719 1a60 7C7F1B79 		mr. 31,3
 5720 1a64 41820080 		beq- 0,.L428
 5721              		.loc 2 1396 0 is_stmt 0 discriminator 2
 5722 1a68 881F0000 		lbz 0,0(31)
 5723 1a6c 2F800000 		cmpwi 7,0,0
 5724 1a70 419E00A8 		beq- 7,.L449
 5725              		.loc 2 1398 0 is_stmt 1
 5726 1a74 2F9D0000 		cmpwi 7,29,0
 5727 1a78 419E0024 		beq- 7,.L429
 5728              		.loc 2 1400 0
 5729 1a7c 7FA3EB78 		mr 3,29
 5730              	.LVL520:
 5731 1a80 7FE4FB78 		mr 4,31
 5732 1a84 7FC5F378 		mr 5,30
 5733 1a88 48000001 		bl _ZN16TiXmlParsingData5StampEPKc13TiXmlEncoding
 5734              	.LVL521:
 5735              		.loc 2 1401 0
 5736 1a8c 815D0000 		lwz 10,0(29)
 5737 1a90 817D0004 		lwz 11,4(29)
 5738 1a94 915C0004 		stw 10,4(28)
 5739 1a98 917C0008 		stw 11,8(28)
 5740              	.LVL522:
 5741              	.L429:
 5742              		.loc 2 1405 0
 5743 1a9c 7FE3FB78 		mr 3,31
 5744 1aa0 389C0014 		addi 4,28,20
 5745 1aa4 7FC5F378 		mr 5,30
 5746 1aa8 48000001 		bl _ZN9TiXmlBase8ReadNameEPKcPSs13TiXmlEncoding
 5747              	.LVL523:
 5748              		.loc 2 1406 0
 5749 1aac 7C691B79 		mr. 9,3
 5750 1ab0 41820010 		beq- 0,.L443
 5751              		.loc 2 1406 0 is_stmt 0 discriminator 1
 5752 1ab4 88090000 		lbz 0,0(9)
 5753 1ab8 2F800000 		cmpwi 7,0,0
 5754 1abc 409E0094 		bne- 7,.L431
 5755              	.LVL524:
 5756              	.L443:
 5757              		.loc 2 1456 0 is_stmt 1
 5758 1ac0 807C0010 		lwz 3,16(28)
 5759 1ac4 2F830000 		cmpwi 7,3,0
 5760 1ac8 419E0050 		beq- 7,.L449
 5761              		.loc 2 1456 0 is_stmt 0 discriminator 1
 5762 1acc 7FE5FB78 		mr 5,31
 5763 1ad0 38800006 		li 4,6
 5764 1ad4 7FA6EB78 		mr 6,29
 5765 1ad8 7FC7F378 		mr 7,30
 5766 1adc 48000001 		bl _ZN13TiXmlDocument8SetErrorEiPKcP16TiXmlParsingData13TiXmlEncoding
 5767              		.loc 2 1457 0 is_stmt 1 discriminator 1
 5768 1ae0 3BE00000 		li 31,0
 5769              	.L428:
 5770              	.LBE2285:
 5771              		.loc 2 1464 0
 5772 1ae4 8001002C 		lwz 0,44(1)
 5773 1ae8 7FE3FB78 		mr 3,31
 5774 1aec 83010008 		lwz 24,8(1)
 5775 1af0 7C0803A6 		mtlr 0
 5776 1af4 8321000C 		lwz 25,12(1)
 5777 1af8 83410010 		lwz 26,16(1)
 5778 1afc 83610014 		lwz 27,20(1)
 5779 1b00 83810018 		lwz 28,24(1)
 5780              	.LVL525:
 5781 1b04 83A1001C 		lwz 29,28(1)
 5782              	.LVL526:
 5783 1b08 83C10020 		lwz 30,32(1)
 5784              	.LVL527:
 5785 1b0c 83E10024 		lwz 31,36(1)
 5786 1b10 38210028 		addi 1,1,40
 5787              		.cfi_remember_state
 5788              	.LCFI79:
 5789              		.cfi_def_cfa_offset 0
 5790              		.cfi_restore 31
 5791              		.cfi_restore 30
 5792              		.cfi_restore 29
 5793              		.cfi_restore 28
 5794              		.cfi_restore 27
 5795              		.cfi_restore 26
 5796              		.cfi_restore 25
 5797              		.cfi_restore 24
 5798 1b14 4E800020 		blr
 5799              	.LVL528:
 5800              	.L449:
 5801              	.LCFI80:
 5802              		.cfi_restore_state
 5803 1b18 8001002C 		lwz 0,44(1)
 5804              	.LBB2286:
 5805              		.loc 2 1457 0
 5806 1b1c 3BE00000 		li 31,0
 5807              	.LBE2286:
 5808              		.loc 2 1464 0
 5809 1b20 7FE3FB78 		mr 3,31
 5810 1b24 83010008 		lwz 24,8(1)
 5811 1b28 7C0803A6 		mtlr 0
 5812 1b2c 8321000C 		lwz 25,12(1)
 5813 1b30 83410010 		lwz 26,16(1)
 5814 1b34 83610014 		lwz 27,20(1)
 5815 1b38 83810018 		lwz 28,24(1)
 5816              	.LVL529:
 5817 1b3c 83A1001C 		lwz 29,28(1)
 5818              	.LVL530:
 5819 1b40 83C10020 		lwz 30,32(1)
 5820              	.LVL531:
 5821 1b44 83E10024 		lwz 31,36(1)
 5822 1b48 38210028 		addi 1,1,40
 5823              		.cfi_remember_state
 5824              		.cfi_restore 24
 5825              		.cfi_restore 25
 5826              		.cfi_restore 26
 5827              		.cfi_restore 27
 5828              		.cfi_restore 28
 5829              		.cfi_restore 29
 5830              		.cfi_restore 30
 5831              		.cfi_restore 31
 5832              	.LCFI81:
 5833              		.cfi_def_cfa_offset 0
 5834 1b4c 4E800020 		blr
 5835              	.LVL532:
 5836              	.L431:
 5837              	.LCFI82:
 5838              		.cfi_restore_state
 5839              	.LBB2287:
 5840              		.loc 2 1411 0
 5841 1b50 7FC4F378 		mr 4,30
 5842 1b54 48000001 		bl _ZN9TiXmlBase14SkipWhiteSpaceEPKc13TiXmlEncoding
 5843              	.LVL533:
 5844              		.loc 2 1412 0
 5845 1b58 7C651B79 		mr. 5,3
 5846 1b5c 41820010 		beq- 0,.L432
 5847              		.loc 2 1412 0 is_stmt 0 discriminator 1
 5848 1b60 88050000 		lbz 0,0(5)
 5849 1b64 2F80003D 		cmpwi 7,0,61
 5850 1b68 419E0058 		beq- 7,.L433
 5851              	.L432:
 5852              		.loc 2 1414 0 is_stmt 1
 5853 1b6c 807C0010 		lwz 3,16(28)
 5854              	.LVL534:
 5855              		.loc 2 1415 0
 5856 1b70 3BE00000 		li 31,0
 5857              	.LVL535:
 5858              		.loc 2 1414 0
 5859 1b74 2F830000 		cmpwi 7,3,0
 5860 1b78 41BEFF6C 		beq- 7,.L428
 5861              		.loc 2 1414 0 is_stmt 0 discriminator 1
 5862 1b7c 7FA6EB78 		mr 6,29
 5863 1b80 7FC7F378 		mr 7,30
 5864 1b84 38800006 		li 4,6
 5865 1b88 48000001 		bl _ZN13TiXmlDocument8SetErrorEiPKcP16TiXmlParsingData13TiXmlEncoding
 5866              	.LVL536:
 5867              	.LBE2287:
 5868              		.loc 2 1464 0 is_stmt 1 discriminator 1
 5869 1b8c 8001002C 		lwz 0,44(1)
 5870 1b90 7FE3FB78 		mr 3,31
 5871 1b94 83010008 		lwz 24,8(1)
 5872 1b98 7C0803A6 		mtlr 0
 5873 1b9c 8321000C 		lwz 25,12(1)
 5874 1ba0 83410010 		lwz 26,16(1)
 5875 1ba4 83610014 		lwz 27,20(1)
 5876 1ba8 83810018 		lwz 28,24(1)
 5877              	.LVL537:
 5878 1bac 83A1001C 		lwz 29,28(1)
 5879              	.LVL538:
 5880 1bb0 83C10020 		lwz 30,32(1)
 5881              	.LVL539:
 5882 1bb4 83E10024 		lwz 31,36(1)
 5883 1bb8 38210028 		addi 1,1,40
 5884              		.cfi_remember_state
 5885              		.cfi_restore 24
 5886              		.cfi_restore 25
 5887              		.cfi_restore 26
 5888              		.cfi_restore 27
 5889              		.cfi_restore 28
 5890              		.cfi_restore 29
 5891              		.cfi_restore 30
 5892              		.cfi_restore 31
 5893              	.LCFI83:
 5894              		.cfi_def_cfa_offset 0
 5895 1bbc 4E800020 		blr
 5896              	.LVL540:
 5897              	.L433:
 5898              	.LCFI84:
 5899              		.cfi_restore_state
 5900              	.LBB2288:
 5901              		.loc 2 1419 0
 5902 1bc0 38650001 		addi 3,5,1
 5903              	.LVL541:
 5904 1bc4 7FC4F378 		mr 4,30
 5905 1bc8 48000001 		bl _ZN9TiXmlBase14SkipWhiteSpaceEPKc13TiXmlEncoding
 5906              	.LVL542:
 5907              		.loc 2 1420 0
 5908 1bcc 7C7F1B79 		mr. 31,3
 5909              	.LVL543:
 5910 1bd0 41A2FEF0 		beq- 0,.L443
 5911              		.loc 2 1420 0 is_stmt 0 discriminator 1
 5912 1bd4 881F0000 		lbz 0,0(31)
 5913 1bd8 2F800000 		cmpwi 7,0,0
 5914 1bdc 41BEFEE4 		beq- 7,.L443
 5915              	.LVL544:
 5916              		.loc 2 1430 0 is_stmt 1
 5917 1be0 2F800027 		cmpwi 7,0,39
 5918 1be4 419E012C 		beq- 7,.L456
 5919              		.loc 2 1436 0
 5920 1be8 2F800022 		cmpwi 7,0,34
 5921 1bec 419E00DC 		beq- 7,.L457
 5922              		.loc 2 1447 0
 5923 1bf0 3B7C0018 		addi 27,28,24
 5924              	.LVL545:
 5925              	.LBB2247:
 5926              	.LBB2248:
 5927              	.LBB2249:
 5928              		.loc 4 1121 0
 5929 1bf4 3C800000 		lis 4,.LC7@ha
 5930 1bf8 7F63DB78 		mr 3,27
 5931              	.LVL546:
 5932 1bfc 3884008C 		la 4,.LC7@l(4)
 5933 1c00 38A00000 		li 5,0
 5934              	.LBE2249:
 5935              	.LBE2248:
 5936              	.LBE2247:
 5937              		.loc 2 1393 0
 5938 1c04 3B1FFFFF 		addi 24,31,-1
 5939              	.LBB2252:
 5940              	.LBB2251:
 5941              	.LBB2250:
 5942              		.loc 4 1121 0
 5943 1c08 48000001 		bl _ZNSs6assignEPKcj
 5944              	.LBE2250:
 5945              	.LBE2251:
 5946              	.LBE2252:
 5947              		.loc 2 1448 0
 5948 1c0c 8B5F0000 		lbz 26,0(31)
 5949 1c10 2F9A0000 		cmpwi 7,26,0
 5950 1c14 41BEFED0 		beq- 7,.L428
 5951              	.L438:
 5952              	.LVL547:
 5953              	.LBB2253:
 5954              	.LBB2254:
 5955              		.loc 1 294 0 discriminator 4
 5956 1c18 7F43D378 		mr 3,26
 5957 1c1c 48000001 		bl isspace
 5958 1c20 2F830000 		cmpwi 7,3,0
 5959 1c24 40BEFEC0 		bne- 7,.L428
 5960              	.LVL548:
 5961              	.LBB2255:
 5962              	.LBB2256:
 5963              		.loc 1 294 0 is_stmt 0
 5964 1c28 2F9A000A 		cmpwi 7,26,10
 5965 1c2c 41BEFEB8 		beq- 7,.L428
 5966              	.LBE2256:
 5967              	.LBE2255:
 5968              	.LBE2254:
 5969              	.LBE2253:
 5970              		.loc 2 1448 0 is_stmt 1
 5971 1c30 2F9A000D 		cmpwi 7,26,13
 5972 1c34 41BEFEB0 		beq- 7,.L428
 5973              		.loc 2 1448 0 is_stmt 0 discriminator 5
 5974 1c38 2F9A002F 		cmpwi 7,26,47
 5975 1c3c 41BEFEA8 		beq- 7,.L428
 5976              		.loc 2 1448 0 discriminator 6
 5977 1c40 2F9A003E 		cmpwi 7,26,62
 5978 1c44 41BEFEA0 		beq- 7,.L428
 5979              		.loc 2 1452 0 is_stmt 1 discriminator 8
 5980 1c48 8F380001 		lbzu 25,1(24)
 5981 1c4c 2F990027 		cmpwi 7,25,39
 5982 1c50 41BEFE70 		beq- 7,.L443
 5983              		.loc 2 1452 0 is_stmt 0 discriminator 1
 5984 1c54 2F990022 		cmpwi 7,25,34
 5985 1c58 41BEFE68 		beq- 7,.L443
 5986              	.LVL549:
 5987              	.LBB2257:
 5988              	.LBB2258:
 5989              	.LBB2259:
 5990              	.LBB2260:
 5991              	.LBB2261:
 5992              	.LBB2262:
 5993              	.LBB2263:
 5994              	.LBB2264:
 5995              		.loc 4 288 0 is_stmt 1
 5996 1c5c 813C0018 		lwz 9,24(28)
 5997              	.LBE2264:
 5998              	.LBE2263:
 5999              	.LBE2262:
 6000              		.loc 4 711 0
 6001 1c60 8169FFF4 		lwz 11,-12(9)
 6002              	.LBE2261:
 6003              	.LBE2260:
 6004              		.loc 4 1046 0
 6005 1c64 8009FFF8 		lwz 0,-8(9)
 6006              		.loc 4 1045 0
 6007 1c68 3B4B0001 		addi 26,11,1
 6008              	.LVL550:
 6009              		.loc 4 1046 0
 6010 1c6c 7F9A0040 		cmplw 7,26,0
 6011 1c70 419D0010 		bgt- 7,.L440
 6012 1c74 8009FFFC 		lwz 0,-4(9)
 6013 1c78 2F800000 		cmpwi 7,0,0
 6014 1c7c 409D0018 		ble- 7,.L441
 6015              	.L440:
 6016              		.loc 4 1047 0
 6017 1c80 7F63DB78 		mr 3,27
 6018 1c84 7F44D378 		mr 4,26
 6019 1c88 48000001 		bl _ZNSs7reserveEj
 6020 1c8c 813C0018 		lwz 9,24(28)
 6021 1c90 8169FFF4 		lwz 11,-12(9)
 6022              	.L441:
 6023              	.LVL551:
 6024              	.LBB2265:
 6025              	.LBB2266:
 6026              		.loc 6 245 0
 6027 1c94 7F2959AE 		stbx 25,9,11
 6028              	.LBE2266:
 6029              	.LBE2265:
 6030              	.LBB2267:
 6031              	.LBB2268:
 6032              		.loc 4 205 0
 6033 1c98 3D400000 		lis 10,_ZNSs4_Rep20_S_empty_rep_storageE@ha
 6034 1c9c 380A0000 		la 0,_ZNSs4_Rep20_S_empty_rep_storageE@l(10)
 6035              	.LBE2268:
 6036              	.LBE2267:
 6037              	.LBB2277:
 6038              	.LBB2278:
 6039              	.LBB2279:
 6040              		.loc 4 288 0
 6041 1ca0 813C0018 		lwz 9,24(28)
 6042              	.LVL552:
 6043              	.LBE2279:
 6044              	.LBE2278:
 6045              	.LBE2277:
 6046              		.loc 4 1049 0
 6047 1ca4 3969FFF4 		addi 11,9,-12
 6048              	.LBB2280:
 6049              	.LBB2275:
 6050              		.loc 4 205 0
 6051 1ca8 7F8B0000 		cmpw 7,11,0
 6052 1cac 409E007C 		bne- 7,.L458
 6053              	.L442:
 6054              	.LVL553:
 6055              	.LBE2275:
 6056              	.LBE2280:
 6057              	.LBE2259:
 6058              	.LBE2258:
 6059              	.LBE2257:
 6060              		.loc 2 1448 0
 6061 1cb0 37FF0001 		addic. 31,31,1
 6062              	.LVL554:
 6063 1cb4 41A2FE30 		beq- 0,.L428
 6064              		.loc 2 1448 0 is_stmt 0 discriminator 2
 6065 1cb8 8B580001 		lbz 26,1(24)
 6066              	.LVL555:
 6067 1cbc 2F9A0000 		cmpwi 7,26,0
 6068 1cc0 41BEFE24 		beq- 7,.L428
 6069 1cc4 4BFFFF54 		b .L438
 6070              	.LVL556:
 6071              	.L457:
 6072              		.loc 2 1440 0 is_stmt 1
 6073 1cc8 3CC00000 		lis 6,.LC16@ha
 6074 1ccc 387F0001 		addi 3,31,1
 6075              	.LVL557:
 6076 1cd0 389C0018 		addi 4,28,24
 6077 1cd4 38A00000 		li 5,0
 6078 1cd8 38C60164 		la 6,.LC16@l(6)
 6079              	.LVL558:
 6080              	.L453:
 6081              	.LBE2288:
 6082              		.loc 2 1464 0
 6083 1cdc 8001002C 		lwz 0,44(1)
 6084              	.LBB2289:
 6085              		.loc 2 1440 0
 6086 1ce0 7FC7F378 		mr 7,30
 6087              	.LBE2289:
 6088              		.loc 2 1464 0
 6089 1ce4 83010008 		lwz 24,8(1)
 6090 1ce8 8321000C 		lwz 25,12(1)
 6091 1cec 7C0803A6 		mtlr 0
 6092 1cf0 83410010 		lwz 26,16(1)
 6093 1cf4 83610014 		lwz 27,20(1)
 6094 1cf8 83810018 		lwz 28,24(1)
 6095              	.LVL559:
 6096 1cfc 83A1001C 		lwz 29,28(1)
 6097              	.LVL560:
 6098 1d00 83C10020 		lwz 30,32(1)
 6099              	.LVL561:
 6100 1d04 83E10024 		lwz 31,36(1)
 6101 1d08 38210028 		addi 1,1,40
 6102              		.cfi_remember_state
 6103              	.LCFI85:
 6104              		.cfi_def_cfa_offset 0
 6105              		.cfi_restore 31
 6106              		.cfi_restore 30
 6107              		.cfi_restore 29
 6108              		.cfi_restore 28
 6109              		.cfi_restore 27
 6110              		.cfi_restore 26
 6111              		.cfi_restore 25
 6112              		.cfi_restore 24
 6113              	.LBB2290:
 6114              		.loc 2 1440 0
 6115 1d0c 4BFFF21C 		b _ZN9TiXmlBase8ReadTextEPKcPSsbS1_b13TiXmlEncoding.constprop.26
 6116              	.LVL562:
 6117              	.L456:
 6118              	.LCFI86:
 6119              		.cfi_restore_state
 6120              		.loc 2 1434 0
 6121 1d10 3CC00000 		lis 6,.LC15@ha
 6122 1d14 387F0001 		addi 3,31,1
 6123              	.LVL563:
 6124 1d18 389C0018 		addi 4,28,24
 6125 1d1c 38A00000 		li 5,0
 6126 1d20 38C60160 		la 6,.LC15@l(6)
 6127 1d24 4BFFFFB8 		b .L453
 6128              	.LVL564:
 6129              	.L458:
 6130              	.LBB2284:
 6131              	.LBB2283:
 6132              	.LBB2282:
 6133              	.LBB2281:
 6134              	.LBB2276:
 6135              	.LBB2269:
 6136              	.LBB2270:
 6137              		.loc 4 199 0
 6138 1d28 38000000 		li 0,0
 6139              	.LBE2270:
 6140              	.LBE2269:
 6141              		.loc 4 209 0
 6142 1d2c 9349FFF4 		stw 26,-12(9)
 6143              	.LVL565:
 6144              	.LBB2272:
 6145              	.LBB2271:
 6146              		.loc 4 199 0
 6147 1d30 9009FFFC 		stw 0,-4(9)
 6148              	.LBE2271:
 6149              	.LBE2272:
 6150              	.LBB2273:
 6151              	.LBB2274:
 6152              		.loc 6 245 0
 6153 1d34 7C09D1AE 		stbx 0,9,26
 6154 1d38 4BFFFF78 		b .L442
 6155              	.LBE2274:
 6156              	.LBE2273:
 6157              	.LBE2276:
 6158              	.LBE2281:
 6159              	.LBE2282:
 6160              	.LBE2283:
 6161              	.LBE2284:
 6162              	.LBE2290:
 6163              		.cfi_endproc
 6164              	.LFE1247:
 6165              		.size	_ZN14TiXmlAttribute5ParseEPKcP16TiXmlParsingData13TiXmlEncoding, .-_ZN14TiXmlAttribute5Parse
 6166              		.align 2
 6167              		.globl _ZN9TiXmlNode8IdentifyEPKc13TiXmlEncoding
 6168              		.type	_ZN9TiXmlNode8IdentifyEPKc13TiXmlEncoding, @function
 6169              	_ZN9TiXmlNode8IdentifyEPKc13TiXmlEncoding:
 6170              	.LFB1235:
 6171              		.loc 2 820 0
 6172              		.cfi_startproc
 6173              		.cfi_personality 0,__gxx_personality_v0
 6174              		.cfi_lsda 0,.LLSDA1235
 6175              	.LVL566:
 6176 1d3c 9421FFE8 		stwu 1,-24(1)
 6177              	.LCFI87:
 6178              		.cfi_def_cfa_offset 24
 6179 1d40 7C0802A6 		mflr 0
 6180 1d44 93C10010 		stw 30,16(1)
 6181 1d48 7C7E1B78 		mr 30,3
 6182              		.cfi_offset 30, -8
 6183              		.cfi_register 65, 0
 6184              	.LBB2340:
 6185              		.loc 2 823 0
 6186 1d4c 7C832378 		mr 3,4
 6187              	.LVL567:
 6188 1d50 7CA42B78 		mr 4,5
 6189              	.LVL568:
 6190              	.LBE2340:
 6191              		.loc 2 820 0
 6192 1d54 93E10014 		stw 31,20(1)
 6193 1d58 7CBF2B78 		mr 31,5
 6194              		.cfi_offset 31, -4
 6195 1d5c 9001001C 		stw 0,28(1)
 6196 1d60 93A1000C 		stw 29,12(1)
 6197              	.LBB2416:
 6198              		.loc 2 823 0
 6199              		.cfi_offset 29, -12
 6200              		.cfi_offset 65, 4
 6201 1d64 48000001 		bl _ZN9TiXmlBase14SkipWhiteSpaceEPKc13TiXmlEncoding
 6202              	.LVL569:
 6203              		.loc 2 824 0
 6204 1d68 7C691B79 		mr. 9,3
 6205 1d6c 418200B0 		beq- 0,.L486
 6206              		.loc 2 824 0 is_stmt 0 discriminator 1
 6207 1d70 88090000 		lbz 0,0(9)
 6208 1d74 2F80003C 		cmpwi 7,0,60
 6209 1d78 409E00A4 		bne- 7,.L486
 6210              		.loc 2 829 0 is_stmt 1
 6211 1d7c 7FE4FB78 		mr 4,31
 6212 1d80 48000001 		bl _ZN9TiXmlBase14SkipWhiteSpaceEPKc13TiXmlEncoding
 6213              	.LVL570:
 6214              		.loc 2 831 0
 6215 1d84 7C7D1B79 		mr. 29,3
 6216 1d88 41820094 		beq- 0,.L486
 6217              		.loc 2 831 0 is_stmt 0 discriminator 1
 6218 1d8c 881D0000 		lbz 0,0(29)
 6219 1d90 2F800000 		cmpwi 7,0,0
 6220 1d94 419E0088 		beq- 7,.L486
 6221              	.LVL571:
 6222              	.LBB2341:
 6223              		.loc 2 848 0 is_stmt 1
 6224 1d98 3C800000 		lis 4,.LC17@ha
 6225 1d9c 38A00001 		li 5,1
 6226 1da0 38840168 		la 4,.LC17@l(4)
 6227 1da4 7FE6FB78 		mr 6,31
 6228              	.LEHB2:
 6229 1da8 48000001 		bl _ZN9TiXmlBase11StringEqualEPKcS1_b13TiXmlEncoding
 6230              	.LEHE2:
 6231              	.LVL572:
 6232 1dac 2F830000 		cmpwi 7,3,0
 6233 1db0 419E0090 		beq- 7,.L461
 6234              		.loc 2 853 0
 6235 1db4 3FA00000 		lis 29,_ZSt7nothrow@ha
 6236              	.LVL573:
 6237 1db8 38600038 		li 3,56
 6238 1dbc 3BBD0000 		la 29,_ZSt7nothrow@l(29)
 6239 1dc0 7FA4EB78 		mr 4,29
 6240 1dc4 48000001 		bl _ZnwjRKSt9nothrow_t
 6241 1dc8 7C7F1B79 		mr. 31,3
 6242              	.LVL574:
 6243 1dcc 41820054 		beq- 0,.L460
 6244              	.LVL575:
 6245              	.LBB2342:
 6246              	.LBB2343:
 6247              		.loc 1 1291 0
 6248 1dd0 38800005 		li 4,5
 6249              	.LEHB3:
 6250 1dd4 48000001 		bl _ZN9TiXmlNodeC2ENS_8NodeTypeE
 6251              	.LEHE3:
 6252              	.LVL576:
 6253              	.LBB2344:
 6254              	.LBB2345:
 6255              	.LBB2346:
 6256              		.loc 4 270 0
 6257 1dd8 3D200000 		lis 9,_ZNSs4_Rep20_S_empty_rep_storageE+12@ha
 6258              	.LBE2346:
 6259              	.LBE2345:
 6260              	.LBE2344:
 6261              	.LBE2343:
 6262              	.LBE2342:
 6263              	.LBE2341:
 6264              		.loc 2 897 0
 6265 1ddc 93DF0010 		stw 30,16(31)
 6266              	.LBB2410:
 6267              	.LBB2360:
 6268              	.LBB2359:
 6269              	.LBB2351:
 6270              	.LBB2349:
 6271              	.LBB2347:
 6272              		.loc 4 270 0
 6273 1de0 3809000C 		la 0,_ZNSs4_Rep20_S_empty_rep_storageE+12@l(9)
 6274              	.LBE2347:
 6275              	.LBE2349:
 6276              	.LBE2351:
 6277              		.loc 1 1291 0
 6278 1de4 3D200000 		lis 9,_ZTV16TiXmlDeclaration+8@ha
 6279 1de8 39290008 		la 9,_ZTV16TiXmlDeclaration+8@l(9)
 6280              	.LBB2352:
 6281              	.LBB2350:
 6282              	.LBB2348:
 6283              		.loc 4 270 0
 6284 1dec 901F002C 		stw 0,44(31)
 6285              	.LBE2348:
 6286              	.LBE2350:
 6287              	.LBE2352:
 6288              		.loc 1 1291 0
 6289 1df0 913F0000 		stw 9,0(31)
 6290              	.LVL577:
 6291              	.LBB2353:
 6292              	.LBB2354:
 6293              	.LBB2355:
 6294              		.loc 4 270 0
 6295 1df4 901F0030 		stw 0,48(31)
 6296              	.LVL578:
 6297              	.LBE2355:
 6298              	.LBE2354:
 6299              	.LBE2353:
 6300              	.LBB2356:
 6301              	.LBB2357:
 6302              	.LBB2358:
 6303 1df8 901F0034 		stw 0,52(31)
 6304              	.LVL579:
 6305              	.L496:
 6306              	.LBE2358:
 6307              	.LBE2357:
 6308              	.LBE2356:
 6309              	.LBE2359:
 6310              	.LBE2360:
 6311              	.LBE2410:
 6312              	.LBE2416:
 6313              		.loc 2 900 0
 6314 1dfc 8001001C 		lwz 0,28(1)
 6315 1e00 7FE3FB78 		mr 3,31
 6316 1e04 83A1000C 		lwz 29,12(1)
 6317 1e08 7C0803A6 		mtlr 0
 6318 1e0c 83C10010 		lwz 30,16(1)
 6319              	.LVL580:
 6320 1e10 83E10014 		lwz 31,20(1)
 6321 1e14 38210018 		addi 1,1,24
 6322              		.cfi_remember_state
 6323              		.cfi_restore 29
 6324              		.cfi_restore 30
 6325              		.cfi_restore 31
 6326              	.LCFI88:
 6327              		.cfi_def_cfa_offset 0
 6328 1e18 4E800020 		blr
 6329              	.LVL581:
 6330              	.L486:
 6331              	.LCFI89:
 6332              		.cfi_restore_state
 6333              	.LBB2417:
 6334              		.loc 2 833 0
 6335 1e1c 3BE00000 		li 31,0
 6336              	.LVL582:
 6337              	.L460:
 6338              	.LBE2417:
 6339              		.loc 2 900 0
 6340 1e20 8001001C 		lwz 0,28(1)
 6341 1e24 7FE3FB78 		mr 3,31
 6342 1e28 83A1000C 		lwz 29,12(1)
 6343 1e2c 7C0803A6 		mtlr 0
 6344 1e30 83C10010 		lwz 30,16(1)
 6345              	.LVL583:
 6346 1e34 83E10014 		lwz 31,20(1)
 6347 1e38 38210018 		addi 1,1,24
 6348              		.cfi_remember_state
 6349              	.LCFI90:
 6350              		.cfi_def_cfa_offset 0
 6351              		.cfi_restore 31
 6352              		.cfi_restore 30
 6353              		.cfi_restore 29
 6354 1e3c 4E800020 		blr
 6355              	.LVL584:
 6356              	.L461:
 6357              	.LCFI91:
 6358              		.cfi_restore_state
 6359              	.LBB2418:
 6360              	.LBB2411:
 6361              	.LBB2361:
 6362              		.loc 2 855 0
 6363 1e40 3C800000 		lis 4,.LC18@ha
 6364 1e44 7FA3EB78 		mr 3,29
 6365 1e48 38840170 		la 4,.LC18@l(4)
 6366 1e4c 38A00000 		li 5,0
 6367 1e50 7FE6FB78 		mr 6,31
 6368              	.LEHB4:
 6369 1e54 48000001 		bl _ZN9TiXmlBase11StringEqualEPKcS1_b13TiXmlEncoding
 6370              	.LEHE4:
 6371 1e58 2F830000 		cmpwi 7,3,0
 6372 1e5c 419E003C 		beq- 7,.L467
 6373              		.loc 2 860 0
 6374 1e60 3FA00000 		lis 29,_ZSt7nothrow@ha
 6375              	.LVL585:
 6376 1e64 3860002C 		li 3,44
 6377 1e68 3BBD0000 		la 29,_ZSt7nothrow@l(29)
 6378 1e6c 7FA4EB78 		mr 4,29
 6379 1e70 48000001 		bl _ZnwjRKSt9nothrow_t
 6380 1e74 7C7F1B79 		mr. 31,3
 6381              	.LVL586:
 6382 1e78 41A2FFA8 		beq- 0,.L460
 6383              	.LVL587:
 6384              	.LBB2362:
 6385              	.LBB2363:
 6386              		.loc 1 1168 0
 6387 1e7c 38800002 		li 4,2
 6388              	.LEHB5:
 6389 1e80 48000001 		bl _ZN9TiXmlNodeC2ENS_8NodeTypeE
 6390              	.LEHE5:
 6391              	.LVL588:
 6392 1e84 3D200000 		lis 9,_ZTV12TiXmlComment+8@ha
 6393              	.LBE2363:
 6394              	.LBE2362:
 6395              	.LBE2361:
 6396              	.LBE2411:
 6397              		.loc 2 897 0
 6398 1e88 93DF0010 		stw 30,16(31)
 6399              	.LBB2412:
 6400              	.LBB2406:
 6401              	.LBB2365:
 6402              	.LBB2364:
 6403              		.loc 1 1168 0
 6404 1e8c 38090008 		la 0,_ZTV12TiXmlComment+8@l(9)
 6405 1e90 901F0000 		stw 0,0(31)
 6406 1e94 4BFFFF68 		b .L496
 6407              	.LVL589:
 6408              	.L467:
 6409              	.LBE2364:
 6410              	.LBE2365:
 6411              	.LBB2366:
 6412              		.loc 2 862 0
 6413 1e98 3C800000 		lis 4,.LC19@ha
 6414 1e9c 7FA3EB78 		mr 3,29
 6415 1ea0 38840178 		la 4,.LC19@l(4)
 6416 1ea4 38A00000 		li 5,0
 6417 1ea8 7FE6FB78 		mr 6,31
 6418              	.LEHB6:
 6419 1eac 48000001 		bl _ZN9TiXmlBase11StringEqualEPKcS1_b13TiXmlEncoding
 6420              	.LEHE6:
 6421 1eb0 2F830000 		cmpwi 7,3,0
 6422 1eb4 419E0060 		beq- 7,.L468
 6423              	.LBB2367:
 6424              		.loc 2 867 0
 6425 1eb8 3FA00000 		lis 29,_ZSt7nothrow@ha
 6426              	.LVL590:
 6427 1ebc 38600030 		li 3,48
 6428 1ec0 3BBD0000 		la 29,_ZSt7nothrow@l(29)
 6429 1ec4 7FA4EB78 		mr 4,29
 6430 1ec8 48000001 		bl _ZnwjRKSt9nothrow_t
 6431 1ecc 7C7F1B79 		mr. 31,3
 6432              	.LVL591:
 6433 1ed0 41820034 		beq- 0,.L469
 6434              	.LVL592:
 6435              	.LBB2368:
 6436              	.LBB2369:
 6437              	.LBB2370:
 6438              		.loc 1 1222 0
 6439 1ed4 38800004 		li 4,4
 6440              	.LEHB7:
 6441 1ed8 48000001 		bl _ZN9TiXmlNodeC2ENS_8NodeTypeE
 6442              	.LEHE7:
 6443              	.LVL593:
 6444 1edc 3D200000 		lis 9,_ZTV9TiXmlText+8@ha
 6445              	.LBB2371:
 6446              	.LBB2372:
 6447              	.LBB2373:
 6448              	.LBB2374:
 6449              	.LBB2375:
 6450              		.loc 4 1121 0
 6451 1ee0 3C800000 		lis 4,.LC7@ha
 6452              	.LBE2375:
 6453              	.LBE2374:
 6454              	.LBE2373:
 6455              	.LBE2372:
 6456              	.LBE2371:
 6457              		.loc 1 1222 0
 6458 1ee4 38090008 		la 0,_ZTV9TiXmlText+8@l(9)
 6459              	.LBB2384:
 6460              	.LBB2382:
 6461              	.LBB2380:
 6462              	.LBB2378:
 6463              	.LBB2376:
 6464              		.loc 4 1121 0
 6465 1ee8 387F0020 		addi 3,31,32
 6466              	.LBE2376:
 6467              	.LBE2378:
 6468              	.LBE2380:
 6469              	.LBE2382:
 6470              	.LBE2384:
 6471              		.loc 1 1222 0
 6472 1eec 901F0000 		stw 0,0(31)
 6473              	.LVL594:
 6474              	.LBB2385:
 6475              	.LBB2383:
 6476              	.LBB2381:
 6477              	.LBB2379:
 6478              	.LBB2377:
 6479              		.loc 4 1121 0
 6480 1ef0 3884008C 		la 4,.LC7@l(4)
 6481 1ef4 38A00000 		li 5,0
 6482              	.LEHB8:
 6483 1ef8 48000001 		bl _ZNSs6assignEPKcj
 6484              	.LEHE8:
 6485              	.LVL595:
 6486              	.LBE2377:
 6487              	.LBE2379:
 6488              	.LBE2381:
 6489              	.LBE2383:
 6490              	.LBE2385:
 6491              		.loc 1 1225 0
 6492 1efc 38000000 		li 0,0
 6493 1f00 981F002C 		stb 0,44(31)
 6494              	.LVL596:
 6495              	.L469:
 6496              	.LBE2370:
 6497              	.LBE2369:
 6498              	.LBE2368:
 6499              	.LBB2388:
 6500              	.LBB2389:
 6501              		.loc 1 1247 0 discriminator 4
 6502 1f04 38000001 		li 0,1
 6503              	.LBE2389:
 6504              	.LBE2388:
 6505              	.LBE2367:
 6506              	.LBE2366:
 6507              	.LBE2406:
 6508              	.LBE2412:
 6509              		.loc 2 897 0 discriminator 4
 6510 1f08 93DF0010 		stw 30,16(31)
 6511              	.LBB2413:
 6512              	.LBB2407:
 6513              	.LBB2403:
 6514              	.LBB2393:
 6515              	.LBB2391:
 6516              	.LBB2390:
 6517              		.loc 1 1247 0 discriminator 4
 6518 1f0c 981F002C 		stb 0,44(31)
 6519              	.LVL597:
 6520 1f10 4BFFFEEC 		b .L496
 6521              	.LVL598:
 6522              	.L468:
 6523              	.LBE2390:
 6524              	.LBE2391:
 6525              	.LBE2393:
 6526              		.loc 2 871 0
 6527 1f14 3C800000 		lis 4,.LC20@ha
 6528 1f18 7FA3EB78 		mr 3,29
 6529 1f1c 38840184 		la 4,.LC20@l(4)
 6530 1f20 38A00000 		li 5,0
 6531 1f24 7FE6FB78 		mr 6,31
 6532              	.LEHB9:
 6533 1f28 48000001 		bl _ZN9TiXmlBase11StringEqualEPKcS1_b13TiXmlEncoding
 6534              	.LEHE9:
 6535 1f2c 2F830000 		cmpwi 7,3,0
 6536 1f30 409E0060 		bne- 7,.L497
 6537              		.loc 2 878 0
 6538 1f34 8BFD0001 		lbz 31,1(29)
 6539              	.LVL599:
 6540              	.LBB2394:
 6541              	.LBB2395:
 6542              		.loc 2 138 0
 6543 1f38 2B9F007E 		cmplwi 7,31,126
 6544 1f3c 419D007C 		bgt- 7,.L474
 6545              		.loc 2 139 0
 6546 1f40 7FE3FB78 		mr 3,31
 6547 1f44 48000001 		bl isalpha
 6548              	.LBE2395:
 6549              	.LBE2394:
 6550              		.loc 2 878 0
 6551 1f48 2F830000 		cmpwi 7,3,0
 6552 1f4c 409E006C 		bne- 7,.L474
 6553              		.loc 2 878 0 is_stmt 0 discriminator 2
 6554 1f50 2F9F005F 		cmpwi 7,31,95
 6555 1f54 419E0064 		beq- 7,.L474
 6556              		.loc 2 891 0 is_stmt 1
 6557 1f58 3FA00000 		lis 29,_ZSt7nothrow@ha
 6558              	.LVL600:
 6559 1f5c 3860002C 		li 3,44
 6560 1f60 3BBD0000 		la 29,_ZSt7nothrow@l(29)
 6561 1f64 7FA4EB78 		mr 4,29
 6562 1f68 48000001 		bl _ZnwjRKSt9nothrow_t
 6563 1f6c 7C7F1B79 		mr. 31,3
 6564              	.LVL601:
 6565 1f70 41A2FEB0 		beq- 0,.L460
 6566              	.LVL602:
 6567              	.LBB2396:
 6568              	.LBB2397:
 6569              		.loc 1 1359 0
 6570 1f74 38800003 		li 4,3
 6571              	.LEHB10:
 6572 1f78 48000001 		bl _ZN9TiXmlNodeC2ENS_8NodeTypeE
 6573              	.LEHE10:
 6574              	.LVL603:
 6575              	.L494:
 6576 1f7c 3D200000 		lis 9,_ZTV12TiXmlUnknown+8@ha
 6577              	.LBE2397:
 6578              	.LBE2396:
 6579              	.LBE2403:
 6580              	.LBE2407:
 6581              	.LBE2413:
 6582              		.loc 2 897 0
 6583 1f80 93DF0010 		stw 30,16(31)
 6584              	.LBB2414:
 6585              	.LBB2408:
 6586              	.LBB2404:
 6587              	.LBB2399:
 6588              	.LBB2398:
 6589              		.loc 1 1359 0
 6590 1f84 38090008 		la 0,_ZTV12TiXmlUnknown+8@l(9)
 6591 1f88 901F0000 		stw 0,0(31)
 6592 1f8c 4BFFFE70 		b .L496
 6593              	.LVL604:
 6594              	.L497:
 6595              	.LBE2398:
 6596              	.LBE2399:
 6597              		.loc 2 876 0
 6598 1f90 3FA00000 		lis 29,_ZSt7nothrow@ha
 6599              	.LVL605:
 6600 1f94 3860002C 		li 3,44
 6601 1f98 3BBD0000 		la 29,_ZSt7nothrow@l(29)
 6602 1f9c 7FA4EB78 		mr 4,29
 6603 1fa0 48000001 		bl _ZnwjRKSt9nothrow_t
 6604 1fa4 7C7F1B79 		mr. 31,3
 6605              	.LVL606:
 6606 1fa8 41A2FE78 		beq- 0,.L460
 6607              	.LVL607:
 6608              	.LBB2400:
 6609              	.LBB2401:
 6610              		.loc 1 1359 0
 6611 1fac 38800003 		li 4,3
 6612              	.LEHB11:
 6613 1fb0 48000001 		bl _ZN9TiXmlNodeC2ENS_8NodeTypeE
 6614              	.LEHE11:
 6615              	.LVL608:
 6616 1fb4 4BFFFFC8 		b .L494
 6617              	.LVL609:
 6618              	.L474:
 6619              	.LBE2401:
 6620              	.LBE2400:
 6621              		.loc 2 884 0 discriminator 4
 6622 1fb8 3FA00000 		lis 29,_ZSt7nothrow@ha
 6623              	.LVL610:
 6624 1fbc 38600050 		li 3,80
 6625 1fc0 3BBD0000 		la 29,_ZSt7nothrow@l(29)
 6626 1fc4 7FA4EB78 		mr 4,29
 6627 1fc8 48000001 		bl _ZnwjRKSt9nothrow_t
 6628 1fcc 7C7F1B79 		mr. 31,3
 6629              	.LVL611:
 6630 1fd0 41A2FE50 		beq- 0,.L460
 6631              		.loc 2 884 0 is_stmt 0 discriminator 1
 6632 1fd4 3C800000 		lis 4,.LC7@ha
 6633 1fd8 3884008C 		la 4,.LC7@l(4)
 6634              	.LEHB12:
 6635 1fdc 48000001 		bl _ZN12TiXmlElementC1EPKc
 6636              	.LEHE12:
 6637              	.LBE2404:
 6638              	.LBE2408:
 6639              	.LBE2414:
 6640              		.loc 2 897 0 is_stmt 1
 6641 1fe0 93DF0010 		stw 30,16(31)
 6642 1fe4 4BFFFE18 		b .L496
 6643              	.LVL612:
 6644              	.L487:
 6645              	.L495:
 6646 1fe8 7C7E1B78 		mr 30,3
 6647              	.LVL613:
 6648              	.LBB2415:
 6649              	.LBB2409:
 6650              		.loc 2 860 0
 6651 1fec 7FA4EB78 		mr 4,29
 6652 1ff0 7FE3FB78 		mr 3,31
 6653 1ff4 48000001 		bl _ZdlPvRKSt9nothrow_t
 6654 1ff8 7FC3F378 		mr 3,30
 6655              	.LEHB13:
 6656 1ffc 48000001 		bl _Unwind_Resume
 6657              	.LEHE13:
 6658              	.LVL614:
 6659              	.L488:
 6660 2000 4BFFFFE8 		b .L495
 6661              	.LVL615:
 6662              	.L491:
 6663 2004 4BFFFFE4 		b .L495
 6664              	.LVL616:
 6665              	.L493:
 6666 2008 7C7E1B78 		mr 30,3
 6667              	.LVL617:
 6668              	.LBB2405:
 6669              	.LBB2402:
 6670              	.LBB2392:
 6671              	.LBB2387:
 6672              	.LBB2386:
 6673              		.loc 1 1222 0
 6674 200c 7FE3FB78 		mr 3,31
 6675 2010 48000001 		bl _ZN9TiXmlNodeD2Ev
 6676              	.LVL618:
 6677              	.L471:
 6678              	.LBE2386:
 6679              	.LBE2387:
 6680              	.LBE2392:
 6681              		.loc 2 867 0
 6682 2014 7FE3FB78 		mr 3,31
 6683 2018 7FA4EB78 		mr 4,29
 6684 201c 48000001 		bl _ZdlPvRKSt9nothrow_t
 6685 2020 7FC3F378 		mr 3,30
 6686              	.LEHB14:
 6687 2024 48000001 		bl _Unwind_Resume
 6688              	.LEHE14:
 6689              	.LVL619:
 6690              	.L489:
 6691 2028 7C7E1B78 		mr 30,3
 6692              	.LVL620:
 6693 202c 4BFFFFE8 		b .L471
 6694              	.LVL621:
 6695              	.L492:
 6696 2030 4BFFFFB8 		b .L495
 6697              	.LVL622:
 6698              	.L490:
 6699 2034 4BFFFFB4 		b .L495
 6700              	.LBE2402:
 6701              	.LBE2405:
 6702              	.LBE2409:
 6703              	.LBE2415:
 6704              	.LBE2418:
 6705              		.cfi_endproc
 6706              	.LFE1235:
 6707              		.section	.gcc_except_table
 6708              	.LLSDA1235:
 6709 0010 FF       		.byte	0xff
 6710 0011 FF       		.byte	0xff
 6711 0012 01       		.byte	0x1
 6712 0013 47       		.uleb128 .LLSDACSE1235-.LLSDACSB1235
 6713              	.LLSDACSB1235:
 6714 0014 6C       		.uleb128 .LEHB2-.LFB1235
 6715 0015 04       		.uleb128 .LEHE2-.LEHB2
 6716 0016 00       		.uleb128 0
 6717 0017 00       		.uleb128 0
 6718 0018 9801     		.uleb128 .LEHB3-.LFB1235
 6719 001a 04       		.uleb128 .LEHE3-.LEHB3
 6720 001b AC05     		.uleb128 .L487-.LFB1235
 6721 001d 00       		.uleb128 0
 6722 001e 9802     		.uleb128 .LEHB4-.LFB1235
 6723 0020 04       		.uleb128 .LEHE4-.LEHB4
 6724 0021 00       		.uleb128 0
 6725 0022 00       		.uleb128 0
 6726 0023 C402     		.uleb128 .LEHB5-.LFB1235
 6727 0025 04       		.uleb128 .LEHE5-.LEHB5
 6728 0026 C405     		.uleb128 .L488-.LFB1235
 6729 0028 00       		.uleb128 0
 6730 0029 F002     		.uleb128 .LEHB6-.LFB1235
 6731 002b 04       		.uleb128 .LEHE6-.LEHB6
 6732 002c 00       		.uleb128 0
 6733 002d 00       		.uleb128 0
 6734 002e 9C03     		.uleb128 .LEHB7-.LFB1235
 6735 0030 04       		.uleb128 .LEHE7-.LEHB7
 6736 0031 EC05     		.uleb128 .L489-.LFB1235
 6737 0033 00       		.uleb128 0
 6738 0034 BC03     		.uleb128 .LEHB8-.LFB1235
 6739 0036 04       		.uleb128 .LEHE8-.LEHB8
 6740 0037 CC05     		.uleb128 .L493-.LFB1235
 6741 0039 00       		.uleb128 0
 6742 003a EC03     		.uleb128 .LEHB9-.LFB1235
 6743 003c 04       		.uleb128 .LEHE9-.LEHB9
 6744 003d 00       		.uleb128 0
 6745 003e 00       		.uleb128 0
 6746 003f BC04     		.uleb128 .LEHB10-.LFB1235
 6747 0041 04       		.uleb128 .LEHE10-.LEHB10
 6748 0042 F405     		.uleb128 .L492-.LFB1235
 6749 0044 00       		.uleb128 0
 6750 0045 F404     		.uleb128 .LEHB11-.LFB1235
 6751 0047 04       		.uleb128 .LEHE11-.LEHB11
 6752 0048 F805     		.uleb128 .L490-.LFB1235
 6753 004a 00       		.uleb128 0
 6754 004b A005     		.uleb128 .LEHB12-.LFB1235
 6755 004d 04       		.uleb128 .LEHE12-.LEHB12
 6756 004e C805     		.uleb128 .L491-.LFB1235
 6757 0050 00       		.uleb128 0
 6758 0051 C005     		.uleb128 .LEHB13-.LFB1235
 6759 0053 04       		.uleb128 .LEHE13-.LEHB13
 6760 0054 00       		.uleb128 0
 6761 0055 00       		.uleb128 0
 6762 0056 E805     		.uleb128 .LEHB14-.LFB1235
 6763 0058 04       		.uleb128 .LEHE14-.LEHB14
 6764 0059 00       		.uleb128 0
 6765 005a 00       		.uleb128 0
 6766              	.LLSDACSE1235:
 6767              		.section	".text"
 6768              		.size	_ZN9TiXmlNode8IdentifyEPKc13TiXmlEncoding, .-_ZN9TiXmlNode8IdentifyEPKc13TiXmlEncoding
 6769              		.align 2
 6770              		.globl _ZN13TiXmlDocument5ParseEPKcP16TiXmlParsingData13TiXmlEncoding
 6771              		.type	_ZN13TiXmlDocument5ParseEPKcP16TiXmlParsingData13TiXmlEncoding, @function
 6772              	_ZN13TiXmlDocument5ParseEPKcP16TiXmlParsingData13TiXmlEncoding:
 6773              	.LFB1233:
 6774              		.loc 2 706 0
 6775              		.cfi_startproc
 6776              	.LVL623:
 6777 2038 7C0802A6 		mflr 0
 6778 203c 9421FFD0 		stwu 1,-48(1)
 6779              	.LCFI92:
 6780              		.cfi_def_cfa_offset 48
 6781              		.cfi_register 65, 0
 6782 2040 93A10024 		stw 29,36(1)
 6783              	.LBB2444:
 6784              	.LBB2445:
 6785              	.LBB2446:
 6786              		.loc 1 1514 0
 6787 2044 3BA00000 		li 29,0
 6788              		.cfi_offset 29, -12
 6789              	.LBE2446:
 6790              	.LBE2445:
 6791              	.LBE2444:
 6792              		.loc 2 706 0
 6793 2048 90010034 		stw 0,52(1)
 6794              	.LBB2493:
 6795              	.LBB2464:
 6796              	.LBB2459:
 6797              		.loc 1 1513 0
 6798 204c 38000000 		li 0,0
 6799              		.cfi_offset 65, 4
 6800              	.LBE2459:
 6801              	.LBE2464:
 6802              	.LBE2493:
 6803              		.loc 2 706 0
 6804 2050 9361001C 		stw 27,28(1)
 6805 2054 7CBB2B78 		mr 27,5
 6806              		.cfi_offset 27, -20
 6807 2058 93810020 		stw 28,32(1)
 6808              	.LBB2494:
 6809              	.LBB2465:
 6810              	.LBB2460:
 6811              	.LBB2447:
 6812              	.LBB2448:
 6813              	.LBB2449:
 6814              		.loc 4 1121 0
 6815 205c 38A00000 		li 5,0
 6816              	.LVL624:
 6817              	.LBE2449:
 6818              	.LBE2448:
 6819              	.LBE2447:
 6820              	.LBE2460:
 6821              	.LBE2465:
 6822              	.LBE2494:
 6823              		.loc 2 706 0
 6824 2060 93C10028 		stw 30,40(1)
 6825 2064 7C7C1B78 		mr 28,3
 6826              		.cfi_offset 30, -8
 6827              		.cfi_offset 28, -16
 6828              	.LVL625:
 6829 2068 93E1002C 		stw 31,44(1)
 6830              		.loc 2 706 0
 6831 206c 7C9F2378 		mr 31,4
 6832              		.cfi_offset 31, -4
 6833              	.LBB2495:
 6834              	.LBB2466:
 6835              	.LBB2461:
 6836              		.loc 1 1513 0
 6837 2070 9803002C 		stb 0,44(3)
 6838              	.LBB2456:
 6839              	.LBB2453:
 6840              	.LBB2450:
 6841              		.loc 4 1121 0
 6842 2074 3C800000 		lis 4,.LC7@ha
 6843              	.LVL626:
 6844              	.LBE2450:
 6845              	.LBE2453:
 6846              	.LBE2456:
 6847              		.loc 1 1514 0
 6848 2078 93A30030 		stw 29,48(3)
 6849              	.LVL627:
 6850              	.LBB2457:
 6851              	.LBB2454:
 6852              	.LBB2451:
 6853              		.loc 4 1121 0
 6854 207c 3884008C 		la 4,.LC7@l(4)
 6855 2080 38630034 		addi 3,3,52
 6856              	.LVL628:
 6857              	.LBE2451:
 6858              	.LBE2454:
 6859              	.LBE2457:
 6860              	.LBE2461:
 6861              	.LBE2466:
 6862              	.LBE2495:
 6863              		.loc 2 706 0
 6864 2084 7CDE3378 		mr 30,6
 6865              	.LBB2496:
 6866              	.LBB2467:
 6867              	.LBB2462:
 6868              	.LBB2458:
 6869              	.LBB2455:
 6870              	.LBB2452:
 6871              		.loc 4 1121 0
 6872 2088 48000001 		bl _ZNSs6assignEPKcj
 6873              	.LVL629:
 6874              	.LBE2452:
 6875              	.LBE2455:
 6876              	.LBE2458:
 6877              	.LBE2462:
 6878              	.LBE2467:
 6879              		.loc 2 712 0
 6880 208c 2F9F0000 		cmpwi 7,31,0
 6881              	.LBB2468:
 6882              	.LBB2463:
 6883              		.loc 1 1516 0
 6884 2090 93BC0040 		stw 29,64(28)
 6885 2094 93BC003C 		stw 29,60(28)
 6886              	.LBE2463:
 6887              	.LBE2468:
 6888              		.loc 2 712 0
 6889 2098 419E01F4 		beq- 7,.L499
 6890              		.loc 2 712 0 is_stmt 0 discriminator 1
 6891 209c 881F0000 		lbz 0,0(31)
 6892 20a0 2F800000 		cmpwi 7,0,0
 6893 20a4 419E01E8 		beq- 7,.L499
 6894              	.LVL630:
 6895              		.loc 2 722 0 is_stmt 1
 6896 20a8 2F9B0000 		cmpwi 7,27,0
 6897              	.LBB2469:
 6898              	.LBB2470:
 6899              		.loc 1 104 0
 6900 20ac 3800FFFF 		li 0,-1
 6901 20b0 901C0008 		stw 0,8(28)
 6902 20b4 901C0004 		stw 0,4(28)
 6903              	.LBE2470:
 6904              	.LBE2469:
 6905              		.loc 2 722 0
 6906 20b8 419E01C0 		beq- 7,.L502
 6907              		.loc 2 724 0
 6908 20bc 813B0000 		lwz 9,0(27)
 6909              		.loc 2 725 0
 6910 20c0 801B0004 		lwz 0,4(27)
 6911              		.loc 2 724 0
 6912 20c4 913C0004 		stw 9,4(28)
 6913              		.loc 2 725 0
 6914 20c8 901C0008 		stw 0,8(28)
 6915              	.L503:
 6916              	.LBB2471:
 6917              	.LBB2472:
 6918              		.loc 2 187 0
 6919 20cc 9001000C 		stw 0,12(1)
 6920              	.LBE2472:
 6921              	.LBE2471:
 6922              	.LBB2475:
 6923              		.loc 2 735 0
 6924 20d0 2F9E0000 		cmpwi 7,30,0
 6925              	.LBE2475:
 6926              	.LBB2477:
 6927              	.LBB2473:
 6928              		.loc 2 186 0
 6929 20d4 91210008 		stw 9,8(1)
 6930              	.LBE2473:
 6931              	.LBE2477:
 6932              		.loc 2 1638 0
 6933 20d8 801C0038 		lwz 0,56(28)
 6934              	.LVL631:
 6935              		.loc 2 733 0
 6936 20dc 81410008 		lwz 10,8(1)
 6937 20e0 8161000C 		lwz 11,12(1)
 6938              	.LBB2478:
 6939              	.LBB2474:
 6940              		.loc 2 184 0
 6941 20e4 93E10010 		stw 31,16(1)
 6942              		.loc 2 185 0
 6943 20e8 90010014 		stw 0,20(1)
 6944              	.LBE2474:
 6945              	.LBE2478:
 6946              		.loc 2 733 0
 6947 20ec 915C0004 		stw 10,4(28)
 6948 20f0 917C0008 		stw 11,8(28)
 6949              	.LBB2479:
 6950              		.loc 2 735 0
 6951 20f4 419E0150 		beq- 7,.L519
 6952              	.LVL632:
 6953              	.L504:
 6954              	.LBE2479:
 6955              		.loc 2 748 0
 6956 20f8 7FE3FB78 		mr 3,31
 6957 20fc 7FC4F378 		mr 4,30
 6958 2100 48000001 		bl _ZN9TiXmlBase14SkipWhiteSpaceEPKc13TiXmlEncoding
 6959              	.LVL633:
 6960              		.loc 2 749 0
 6961 2104 7C7F1B79 		mr. 31,3
 6962              	.LVL634:
 6963 2108 418201E8 		beq- 0,.L505
 6964              	.L518:
 6965              		.loc 2 755 0 discriminator 2
 6966 210c 881F0000 		lbz 0,0(31)
 6967 2110 2F800000 		cmpwi 7,0,0
 6968 2114 409E0038 		bne- 7,.L520
 6969              	.LVL635:
 6970              	.L507:
 6971              		.loc 2 790 0
 6972 2118 801C0018 		lwz 0,24(28)
 6973 211c 2F800000 		cmpwi 7,0,0
 6974 2120 419E01B0 		beq- 7,.L521
 6975              	.LVL636:
 6976              	.L501:
 6977              	.LBE2496:
 6978              		.loc 2 797 0
 6979 2124 80010034 		lwz 0,52(1)
 6980 2128 7FE3FB78 		mr 3,31
 6981 212c 8361001C 		lwz 27,28(1)
 6982              	.LVL637:
 6983 2130 7C0803A6 		mtlr 0
 6984 2134 83810020 		lwz 28,32(1)
 6985              	.LVL638:
 6986 2138 83A10024 		lwz 29,36(1)
 6987 213c 83C10028 		lwz 30,40(1)
 6988              	.LVL639:
 6989 2140 83E1002C 		lwz 31,44(1)
 6990 2144 38210030 		addi 1,1,48
 6991              		.cfi_remember_state
 6992              	.LCFI93:
 6993              		.cfi_def_cfa_offset 0
 6994              		.cfi_restore 31
 6995              		.cfi_restore 30
 6996              		.cfi_restore 29
 6997              		.cfi_restore 28
 6998              		.cfi_restore 27
 6999 2148 4E800020 		blr
 7000              	.LVL640:
 7001              	.L520:
 7002              	.LCFI94:
 7003              		.cfi_restore_state
 7004              	.LBB2497:
 7005              	.LBB2480:
 7006              		.loc 2 757 0 discriminator 5
 7007 214c 7F83E378 		mr 3,28
 7008              	.LVL641:
 7009 2150 7FE4FB78 		mr 4,31
 7010 2154 7FC5F378 		mr 5,30
 7011 2158 48000001 		bl _ZN9TiXmlNode8IdentifyEPKc13TiXmlEncoding
 7012              	.LVL642:
 7013              		.loc 2 758 0 discriminator 5
 7014 215c 7C7D1B79 		mr. 29,3
 7015 2160 41A2FFB8 		beq- 0,.L507
 7016              		.loc 2 760 0
 7017 2164 813D0000 		lwz 9,0(29)
 7018 2168 7FE4FB78 		mr 4,31
 7019 216c 38A10008 		addi 5,1,8
 7020 2170 7FC6F378 		mr 6,30
 7021 2174 8009000C 		lwz 0,12(9)
 7022 2178 7C0903A6 		mtctr 0
 7023 217c 4E800421 		bctrl
 7024              	.LVL643:
 7025              		.loc 2 761 0
 7026 2180 7FA4EB78 		mr 4,29
 7027              		.loc 2 760 0
 7028 2184 7C7F1B78 		mr 31,3
 7029              	.LVL644:
 7030              		.loc 2 761 0
 7031 2188 7F83E378 		mr 3,28
 7032              	.LVL645:
 7033 218c 48000001 		bl _ZN9TiXmlNode12LinkEndChildEPS_
 7034              	.LBB2481:
 7035              		.loc 2 769 0
 7036 2190 2F9E0000 		cmpwi 7,30,0
 7037 2194 419E001C 		beq- 7,.L522
 7038              	.LVL646:
 7039              	.L510:
 7040              	.LBE2481:
 7041              		.loc 2 786 0
 7042 2198 7FE3FB78 		mr 3,31
 7043 219c 7FC4F378 		mr 4,30
 7044 21a0 48000001 		bl _ZN9TiXmlBase14SkipWhiteSpaceEPKc13TiXmlEncoding
 7045              	.LVL647:
 7046              	.LBE2480:
 7047              		.loc 2 755 0
 7048 21a4 7C7F1B79 		mr. 31,3
 7049 21a8 4082FF64 		bne+ 0,.L518
 7050 21ac 4BFFFF6C 		b .L507
 7051              	.LVL648:
 7052              	.L522:
 7053              	.LBB2490:
 7054              	.LBB2488:
 7055              		.loc 2 770 0 discriminator 1
 7056 21b0 813D0000 		lwz 9,0(29)
 7057 21b4 7FA3EB78 		mr 3,29
 7058 21b8 8009003C 		lwz 0,60(9)
 7059 21bc 7C0903A6 		mtctr 0
 7060 21c0 4E800421 		bctrl
 7061              		.loc 2 769 0 discriminator 1
 7062 21c4 2F830000 		cmpwi 7,3,0
 7063 21c8 41BEFFD0 		beq- 7,.L510
 7064              	.LBB2482:
 7065              		.loc 2 772 0 discriminator 4
 7066 21cc 813D0000 		lwz 9,0(29)
 7067 21d0 7FA3EB78 		mr 3,29
 7068 21d4 8009003C 		lwz 0,60(9)
 7069 21d8 7C0903A6 		mtctr 0
 7070 21dc 4E800421 		bctrl
 7071              	.LVL649:
 7072              	.LBB2483:
 7073              	.LBB2484:
 7074              	.LBB2485:
 7075              	.LBB2486:
 7076              		.loc 4 288 0 discriminator 4
 7077 21e0 83A30030 		lwz 29,48(3)
 7078              	.LVL650:
 7079              	.LBE2486:
 7080              	.LBE2485:
 7081              	.LBE2484:
 7082              	.LBE2483:
 7083              		.loc 2 774 0 discriminator 4
 7084 21e4 2F9D0000 		cmpwi 7,29,0
 7085 21e8 419E0124 		beq- 7,.L523
 7086              		.loc 2 776 0
 7087 21ec 881D0000 		lbz 0,0(29)
 7088              		.loc 2 777 0
 7089 21f0 3BC00001 		li 30,1
 7090              	.LVL651:
 7091              		.loc 2 776 0
 7092 21f4 2F800000 		cmpwi 7,0,0
 7093 21f8 419EFFA0 		beq+ 7,.L510
 7094              		.loc 2 778 0
 7095 21fc 3C800000 		lis 4,.LC22@ha
 7096 2200 7FA3EB78 		mr 3,29
 7097              	.LVL652:
 7098 2204 3884018C 		la 4,.LC22@l(4)
 7099 2208 38A00001 		li 5,1
 7100 220c 38C00000 		li 6,0
 7101 2210 48000001 		bl _ZN9TiXmlBase11StringEqualEPKcS1_b13TiXmlEncoding
 7102              	.LVL653:
 7103 2214 2F830000 		cmpwi 7,3,0
 7104 2218 409EFF80 		bne+ 7,.L510
 7105              		.loc 2 780 0
 7106 221c 3C800000 		lis 4,.LC23@ha
 7107 2220 7FA3EB78 		mr 3,29
 7108 2224 38840194 		la 4,.LC23@l(4)
 7109 2228 38A00001 		li 5,1
 7110 222c 38C00000 		li 6,0
 7111 2230 48000001 		bl _ZN9TiXmlBase11StringEqualEPKcS1_b13TiXmlEncoding
 7112              		.loc 2 781 0
 7113 2234 7C630034 		cntlzw 3,3
 7114 2238 5463D97E 		srwi 3,3,5
 7115 223c 3BC30001 		addi 30,3,1
 7116 2240 4BFFFF58 		b .L510
 7117              	.LVL654:
 7118              	.L519:
 7119              	.LBE2482:
 7120              	.LBE2488:
 7121              	.LBE2490:
 7122              	.LBB2491:
 7123              	.LBB2476:
 7124              		.loc 2 739 0
 7125 2244 881F0000 		lbz 0,0(31)
 7126              	.LVL655:
 7127 2248 2F8000EF 		cmpwi 7,0,239
 7128 224c 409EFEAC 		bne+ 7,.L504
 7129              		.loc 2 739 0 is_stmt 0 discriminator 1
 7130 2250 881F0001 		lbz 0,1(31)
 7131 2254 2F8000BB 		cmpwi 7,0,187
 7132 2258 409EFEA0 		bne+ 7,.L504
 7133              		.loc 2 739 0 discriminator 3
 7134 225c 881F0002 		lbz 0,2(31)
 7135 2260 2F8000BF 		cmpwi 7,0,191
 7136 2264 409EFE94 		bne+ 7,.L504
 7137              	.LVL656:
 7138              		.loc 2 744 0 is_stmt 1
 7139 2268 38000001 		li 0,1
 7140              		.loc 2 743 0
 7141 226c 3BC00001 		li 30,1
 7142              		.loc 2 744 0
 7143 2270 981C0044 		stb 0,68(28)
 7144 2274 4BFFFE84 		b .L504
 7145              	.LVL657:
 7146              	.L502:
 7147              	.LBE2476:
 7148              	.LBE2491:
 7149              		.loc 2 729 0
 7150 2278 937C0004 		stw 27,4(28)
 7151              		.loc 2 730 0
 7152 227c 38000000 		li 0,0
 7153 2280 937C0008 		stw 27,8(28)
 7154 2284 39200000 		li 9,0
 7155 2288 4BFFFE44 		b .L503
 7156              	.LVL658:
 7157              	.L499:
 7158              		.loc 2 714 0
 7159 228c 7F83E378 		mr 3,28
 7160 2290 3880000C 		li 4,12
 7161 2294 38A00000 		li 5,0
 7162 2298 38C00000 		li 6,0
 7163 229c 38E00000 		li 7,0
 7164              		.loc 2 715 0
 7165 22a0 3BE00000 		li 31,0
 7166              	.LVL659:
 7167              		.loc 2 714 0
 7168 22a4 48000001 		bl _ZN13TiXmlDocument8SetErrorEiPKcP16TiXmlParsingData13TiXmlEncoding
 7169              	.LBE2497:
 7170              		.loc 2 797 0
 7171 22a8 80010034 		lwz 0,52(1)
 7172 22ac 7FE3FB78 		mr 3,31
 7173 22b0 8361001C 		lwz 27,28(1)
 7174              	.LVL660:
 7175 22b4 7C0803A6 		mtlr 0
 7176 22b8 83810020 		lwz 28,32(1)
 7177              	.LVL661:
 7178 22bc 83A10024 		lwz 29,36(1)
 7179 22c0 83C10028 		lwz 30,40(1)
 7180              	.LVL662:
 7181 22c4 83E1002C 		lwz 31,44(1)
 7182 22c8 38210030 		addi 1,1,48
 7183              		.cfi_remember_state
 7184              		.cfi_restore 27
 7185              		.cfi_restore 28
 7186              		.cfi_restore 29
 7187              		.cfi_restore 30
 7188              		.cfi_restore 31
 7189              	.LCFI95:
 7190              		.cfi_def_cfa_offset 0
 7191 22cc 4E800020 		blr
 7192              	.LVL663:
 7193              	.L521:
 7194              	.LCFI96:
 7195              		.cfi_restore_state
 7196              	.LBB2498:
 7197              		.loc 2 791 0
 7198 22d0 7F83E378 		mr 3,28
 7199 22d4 3880000C 		li 4,12
 7200 22d8 38A00000 		li 5,0
 7201 22dc 38C00000 		li 6,0
 7202 22e0 7FC7F378 		mr 7,30
 7203              		.loc 2 792 0
 7204 22e4 3BE00000 		li 31,0
 7205              	.LVL664:
 7206              		.loc 2 791 0
 7207 22e8 48000001 		bl _ZN13TiXmlDocument8SetErrorEiPKcP16TiXmlParsingData13TiXmlEncoding
 7208              		.loc 2 792 0
 7209 22ec 4BFFFE38 		b .L501
 7210              	.LVL665:
 7211              	.L505:
 7212              		.loc 2 751 0
 7213 22f0 7F83E378 		mr 3,28
 7214              	.LVL666:
 7215 22f4 3880000C 		li 4,12
 7216 22f8 38A00000 		li 5,0
 7217 22fc 38C00000 		li 6,0
 7218 2300 38E00000 		li 7,0
 7219 2304 48000001 		bl _ZN13TiXmlDocument8SetErrorEiPKcP16TiXmlParsingData13TiXmlEncoding
 7220              		.loc 2 752 0
 7221 2308 4BFFFE1C 		b .L501
 7222              	.LVL667:
 7223              	.L523:
 7224              	.LBB2492:
 7225              	.LBB2489:
 7226              	.LBB2487:
 7227              		.loc 2 774 0 discriminator 1
 7228 230c 3CA00000 		lis 5,.LANCHOR1@ha
 7229 2310 3C600000 		lis 3,.LC1@ha
 7230              	.LVL668:
 7231 2314 38A50000 		la 5,.LANCHOR1@l(5)
 7232 2318 3CC00000 		lis 6,.LC21@ha
 7233 231c 38630000 		la 3,.LC1@l(3)
 7234 2320 38800306 		li 4,774
 7235 2324 38A505F8 		addi 5,5,1528
 7236 2328 38C60188 		la 6,.LC21@l(6)
 7237 232c 48000001 		bl __assert_func
 7238              	.LBE2487:
 7239              	.LBE2489:
 7240              	.LBE2492:
 7241              	.LBE2498:
 7242              		.cfi_endproc
 7243              	.LFE1233:
 7244              		.size	_ZN13TiXmlDocument5ParseEPKcP16TiXmlParsingData13TiXmlEncoding, .-_ZN13TiXmlDocument5ParseEP
 7245              		.align 2
 7246              		.globl _ZN13TiXmlDocument8StreamInEPSiPSs
 7247              		.type	_ZN13TiXmlDocument8StreamInEPSiPSs, @function
 7248              	_ZN13TiXmlDocument8StreamInEPSiPSs:
 7249              	.LFB1232:
 7250              		.loc 2 643 0
 7251              		.cfi_startproc
 7252              	.LVL669:
 7253 2330 7C0802A6 		mflr 0
 7254 2334 9421FFE0 		stwu 1,-32(1)
 7255              	.LCFI97:
 7256              		.cfi_def_cfa_offset 32
 7257              		.cfi_register 65, 0
 7258 2338 93810010 		stw 28,16(1)
 7259 233c 7C7C1B78 		mr 28,3
 7260              		.cfi_offset 28, -16
 7261 2340 93C10018 		stw 30,24(1)
 7262 2344 7CBE2B78 		mr 30,5
 7263              		.cfi_offset 30, -8
 7264 2348 93E1001C 		stw 31,28(1)
 7265 234c 7C9F2378 		mr 31,4
 7266              		.cfi_offset 31, -4
 7267              	.LVL670:
 7268 2350 90010024 		stw 0,36(1)
 7269 2354 93410008 		stw 26,8(1)
 7270 2358 9361000C 		stw 27,12(1)
 7271 235c 93A10014 		stw 29,20(1)
 7272 2360 4800007C 		b .L549
 7273              		.cfi_offset 29, -12
 7274              		.cfi_offset 27, -20
 7275              		.cfi_offset 26, -24
 7276              		.cfi_offset 65, 4
 7277              	.LVL671:
 7278              	.L531:
 7279              	.LBB2594:
 7280              	.LBB2595:
 7281              	.LBB2596:
 7282              	.LBB2597:
 7283              	.LBB2598:
 7284              		.loc 2 385 0
 7285 2364 48000001 		bl _ZNSi4peekEv
 7286              	.LVL672:
 7287 2368 7C7B1B78 		mr 27,3
 7288              	.LVL673:
 7289              		.loc 2 391 0
 7290 236c 7FE3FB78 		mr 3,31
 7291              	.LVL674:
 7292              		.loc 2 386 0
 7293 2370 2F9B003C 		cmpwi 7,27,60
 7294              		.loc 2 388 0
 7295 2374 2F1B0000 		cmpwi 6,27,0
 7296              		.loc 2 392 0
 7297 2378 577B063E 		rlwinm 27,27,0,0xff
 7298              	.LVL675:
 7299              		.loc 2 386 0
 7300 237c 419E0120 		beq- 7,.L547
 7301              		.loc 2 388 0
 7302 2380 40990078 		ble- 6,.L527
 7303              		.loc 2 391 0
 7304 2384 48000001 		bl _ZNSi3getEv
 7305              	.LVL676:
 7306              	.LBB2599:
 7307              	.LBB2600:
 7308              	.LBB2601:
 7309              	.LBB2602:
 7310              	.LBB2603:
 7311              	.LBB2604:
 7312              	.LBB2605:
 7313              	.LBB2606:
 7314              		.loc 4 288 0
 7315 2388 813E0000 		lwz 9,0(30)
 7316              	.LBE2606:
 7317              	.LBE2605:
 7318              	.LBE2604:
 7319              	.LBE2603:
 7320              	.LBE2602:
 7321              		.loc 4 1047 0
 7322 238c 7FC3F378 		mr 3,30
 7323              	.LBB2608:
 7324              	.LBB2607:
 7325              		.loc 4 711 0
 7326 2390 8169FFF4 		lwz 11,-12(9)
 7327              	.LBE2607:
 7328              	.LBE2608:
 7329              		.loc 4 1046 0
 7330 2394 8009FFF8 		lwz 0,-8(9)
