	.file	"tinyxmlparser.cpp"
	.section	".text"
.Ltext0:
	.section	.text._ZN9TiXmlBaseD2Ev,"axG",@progbits,_ZN9TiXmlBaseD5Ev,comdat
	.align 2
	.weak	_ZN9TiXmlBaseD2Ev
	.type	_ZN9TiXmlBaseD2Ev, @function
_ZN9TiXmlBaseD2Ev:
.LFB1000:
	.file 1 "d:/Projects/SaveGameManager/savegame-manager-gx/trunk/source/XML/tinyxml.h"
	.loc 1 204 0
	.cfi_startproc
.LVL0:
.LBB864:
	.loc 1 204 0
	lis 9,_ZTV9TiXmlBase+8@ha
.LBE864:
.LBB865:
	la 0,_ZTV9TiXmlBase+8@l(9)
	stw 0,0(3)
.LBE865:
	blr
	.cfi_endproc
.LFE1000:
	.size	_ZN9TiXmlBaseD2Ev, .-_ZN9TiXmlBaseD2Ev
	.section	.text._ZNK9TiXmlNode9ToElementEv,"axG",@progbits,_ZNK9TiXmlNode9ToElementEv,comdat
	.align 2
	.weak	_ZNK9TiXmlNode9ToElementEv
	.type	_ZNK9TiXmlNode9ToElementEv, @function
_ZNK9TiXmlNode9ToElementEv:
.LFB1057:
	.loc 1 700 0
	.cfi_startproc
.LVL1:
	.loc 1 700 0
	li 3,0
.LVL2:
	blr
	.cfi_endproc
.LFE1057:
	.size	_ZNK9TiXmlNode9ToElementEv, .-_ZNK9TiXmlNode9ToElementEv
	.section	.text._ZNK9TiXmlNode9ToCommentEv,"axG",@progbits,_ZNK9TiXmlNode9ToCommentEv,comdat
	.align 2
	.weak	_ZNK9TiXmlNode9ToCommentEv
	.type	_ZNK9TiXmlNode9ToCommentEv, @function
_ZNK9TiXmlNode9ToCommentEv:
.LFB1058:
	.loc 1 701 0
	.cfi_startproc
.LVL3:
	.loc 1 701 0
	li 3,0
.LVL4:
	blr
	.cfi_endproc
.LFE1058:
	.size	_ZNK9TiXmlNode9ToCommentEv, .-_ZNK9TiXmlNode9ToCommentEv
	.section	.text._ZNK9TiXmlNode9ToUnknownEv,"axG",@progbits,_ZNK9TiXmlNode9ToUnknownEv,comdat
	.align 2
	.weak	_ZNK9TiXmlNode9ToUnknownEv
	.type	_ZNK9TiXmlNode9ToUnknownEv, @function
_ZNK9TiXmlNode9ToUnknownEv:
.LFB1059:
	.loc 1 702 0
	.cfi_startproc
.LVL5:
	.loc 1 702 0
	li 3,0
.LVL6:
	blr
	.cfi_endproc
.LFE1059:
	.size	_ZNK9TiXmlNode9ToUnknownEv, .-_ZNK9TiXmlNode9ToUnknownEv
	.section	.text._ZNK9TiXmlNode6ToTextEv,"axG",@progbits,_ZNK9TiXmlNode6ToTextEv,comdat
	.align 2
	.weak	_ZNK9TiXmlNode6ToTextEv
	.type	_ZNK9TiXmlNode6ToTextEv, @function
_ZNK9TiXmlNode6ToTextEv:
.LFB1060:
	.loc 1 703 0
	.cfi_startproc
.LVL7:
	.loc 1 703 0
	li 3,0
.LVL8:
	blr
	.cfi_endproc
.LFE1060:
	.size	_ZNK9TiXmlNode6ToTextEv, .-_ZNK9TiXmlNode6ToTextEv
	.section	.text._ZNK9TiXmlNode13ToDeclarationEv,"axG",@progbits,_ZNK9TiXmlNode13ToDeclarationEv,comdat
	.align 2
	.weak	_ZNK9TiXmlNode13ToDeclarationEv
	.type	_ZNK9TiXmlNode13ToDeclarationEv, @function
_ZNK9TiXmlNode13ToDeclarationEv:
.LFB1061:
	.loc 1 704 0
	.cfi_startproc
.LVL9:
	.loc 1 704 0
	li 3,0
.LVL10:
	blr
	.cfi_endproc
.LFE1061:
	.size	_ZNK9TiXmlNode13ToDeclarationEv, .-_ZNK9TiXmlNode13ToDeclarationEv
	.section	.text._ZN9TiXmlNode9ToElementEv,"axG",@progbits,_ZN9TiXmlNode9ToElementEv,comdat
	.align 2
	.weak	_ZN9TiXmlNode9ToElementEv
	.type	_ZN9TiXmlNode9ToElementEv, @function
_ZN9TiXmlNode9ToElementEv:
.LFB1063:
	.loc 1 707 0
	.cfi_startproc
.LVL11:
	.loc 1 707 0
	li 3,0
.LVL12:
	blr
	.cfi_endproc
.LFE1063:
	.size	_ZN9TiXmlNode9ToElementEv, .-_ZN9TiXmlNode9ToElementEv
	.section	.text._ZN9TiXmlNode9ToCommentEv,"axG",@progbits,_ZN9TiXmlNode9ToCommentEv,comdat
	.align 2
	.weak	_ZN9TiXmlNode9ToCommentEv
	.type	_ZN9TiXmlNode9ToCommentEv, @function
_ZN9TiXmlNode9ToCommentEv:
.LFB1064:
	.loc 1 708 0
	.cfi_startproc
.LVL13:
	.loc 1 708 0
	li 3,0
.LVL14:
	blr
	.cfi_endproc
.LFE1064:
	.size	_ZN9TiXmlNode9ToCommentEv, .-_ZN9TiXmlNode9ToCommentEv
	.section	.text._ZN9TiXmlNode9ToUnknownEv,"axG",@progbits,_ZN9TiXmlNode9ToUnknownEv,comdat
	.align 2
	.weak	_ZN9TiXmlNode9ToUnknownEv
	.type	_ZN9TiXmlNode9ToUnknownEv, @function
_ZN9TiXmlNode9ToUnknownEv:
.LFB1065:
	.loc 1 709 0
	.cfi_startproc
.LVL15:
	.loc 1 709 0
	li 3,0
.LVL16:
	blr
	.cfi_endproc
.LFE1065:
	.size	_ZN9TiXmlNode9ToUnknownEv, .-_ZN9TiXmlNode9ToUnknownEv
	.section	.text._ZN9TiXmlNode6ToTextEv,"axG",@progbits,_ZN9TiXmlNode6ToTextEv,comdat
	.align 2
	.weak	_ZN9TiXmlNode6ToTextEv
	.type	_ZN9TiXmlNode6ToTextEv, @function
_ZN9TiXmlNode6ToTextEv:
.LFB1066:
	.loc 1 710 0
	.cfi_startproc
.LVL17:
	.loc 1 710 0
	li 3,0
.LVL18:
	blr
	.cfi_endproc
.LFE1066:
	.size	_ZN9TiXmlNode6ToTextEv, .-_ZN9TiXmlNode6ToTextEv
	.section	.text._ZN9TiXmlNode13ToDeclarationEv,"axG",@progbits,_ZN9TiXmlNode13ToDeclarationEv,comdat
	.align 2
	.weak	_ZN9TiXmlNode13ToDeclarationEv
	.type	_ZN9TiXmlNode13ToDeclarationEv, @function
_ZN9TiXmlNode13ToDeclarationEv:
.LFB1067:
	.loc 1 711 0
	.cfi_startproc
.LVL19:
	.loc 1 711 0
	li 3,0
.LVL20:
	blr
	.cfi_endproc
.LFE1067:
	.size	_ZN9TiXmlNode13ToDeclarationEv, .-_ZN9TiXmlNode13ToDeclarationEv
	.section	.text._ZNK13TiXmlDocument10ToDocumentEv,"axG",@progbits,_ZNK13TiXmlDocument10ToDocumentEv,comdat
	.align 2
	.weak	_ZNK13TiXmlDocument10ToDocumentEv
	.type	_ZNK13TiXmlDocument10ToDocumentEv, @function
_ZNK13TiXmlDocument10ToDocumentEv:
.LFB1180:
	.loc 1 1534 0
	.cfi_startproc
.LVL21:
	.loc 1 1534 0
	blr
	.cfi_endproc
.LFE1180:
	.size	_ZNK13TiXmlDocument10ToDocumentEv, .-_ZNK13TiXmlDocument10ToDocumentEv
	.section	.text._ZN13TiXmlDocument10ToDocumentEv,"axG",@progbits,_ZN13TiXmlDocument10ToDocumentEv,comdat
	.align 2
	.weak	_ZN13TiXmlDocument10ToDocumentEv
	.type	_ZN13TiXmlDocument10ToDocumentEv, @function
_ZN13TiXmlDocument10ToDocumentEv:
.LFB1181:
	.loc 1 1535 0
	.cfi_startproc
.LVL22:
	.loc 1 1535 0
	blr
	.cfi_endproc
.LFE1181:
	.size	_ZN13TiXmlDocument10ToDocumentEv, .-_ZN13TiXmlDocument10ToDocumentEv
	.section	.text._ZN9TiXmlBaseD0Ev,"axG",@progbits,_ZN9TiXmlBaseD5Ev,comdat
	.align 2
	.weak	_ZN9TiXmlBaseD0Ev
	.type	_ZN9TiXmlBaseD0Ev, @function
_ZN9TiXmlBaseD0Ev:
.LFB1002:
	.loc 1 204 0
	.cfi_startproc
.LVL23:
	mflr 0
	stwu 1,-8(1)
.LCFI0:
	.cfi_def_cfa_offset 8
	.cfi_register 65, 0
.LBB866:
.LBB867:
.LBB868:
	lis 9,_ZTV9TiXmlBase+8@ha
.LBE868:
.LBE867:
.LBE866:
	stw 0,12(1)
.LBB871:
.LBB870:
.LBB869:
	.loc 1 204 0
	la 0,_ZTV9TiXmlBase+8@l(9)
	.cfi_offset 65, 4
	stw 0,0(3)
.LBE869:
.LBE870:
.LBE871:
	bl _ZdlPv
.LVL24:
	lwz 0,12(1)
	addi 1,1,8
.LCFI1:
	.cfi_def_cfa_offset 0
	mtlr 0
	blr
	.cfi_endproc
.LFE1002:
	.size	_ZN9TiXmlBaseD0Ev, .-_ZN9TiXmlBaseD0Ev
	.section	.text._ZNK14TiXmlAttribute5PrintEP7__sFILEi,"axG",@progbits,_ZNK14TiXmlAttribute5PrintEP7__sFILEi,comdat
	.align 2
	.weak	_ZNK14TiXmlAttribute5PrintEP7__sFILEi
	.type	_ZNK14TiXmlAttribute5PrintEP7__sFILEi, @function
_ZNK14TiXmlAttribute5PrintEP7__sFILEi:
.LFB1090:
	.loc 1 872 0
	.cfi_startproc
.LVL25:
	mflr 0
	stwu 1,-8(1)
.LCFI2:
	.cfi_def_cfa_offset 8
	.cfi_register 65, 0
	.loc 1 873 0
	li 6,0
	.loc 1 872 0
	stw 0,12(1)
	.loc 1 873 0
	.cfi_offset 65, 4
	bl _ZNK14TiXmlAttribute5PrintEP7__sFILEiPSs
.LVL26:
	.loc 1 874 0
	lwz 0,12(1)
	addi 1,1,8
.LCFI3:
	.cfi_def_cfa_offset 0
	mtlr 0
	blr
	.cfi_endproc
.LFE1090:
	.size	_ZNK14TiXmlAttribute5PrintEP7__sFILEi, .-_ZNK14TiXmlAttribute5PrintEP7__sFILEi
	.section	".text"
	.align 2
	.type	_Z41__static_initialization_and_destruction_0ii.constprop.22, @function
_Z41__static_initialization_and_destruction_0ii.constprop.22:
.LFB1346:
	.file 2 "d:/Projects/SaveGameManager/savegame-manager-gx/trunk/source/XML/tinyxmlparser.cpp"
	.loc 2 1638 0
	.cfi_startproc
.LVL27:
	cmpwi 7,3,1
	mflr 0
	stwu 1,-8(1)
.LCFI4:
	.cfi_def_cfa_offset 8
	.cfi_register 65, 0
	stw 0,12(1)
	.loc 2 1638 0
	beq- 7,.L23
	.cfi_offset 65, 4
	.file 3 "d:\\devkitpro\\devkitppc\\bin\\../lib/gcc/powerpc-eabi/4.6.3/../../../../powerpc-eabi/include/c++/4.6.3/iostream"
	.loc 3 75 0
	cmpwi 7,3,0
	bne- 7,.L19
.LVL28:
.LBB874:
.LBB875:
	lis 3,.LANCHOR0@ha
.LVL29:
	la 3,.LANCHOR0@l(3)
	bl _ZNSt8ios_base4InitD1Ev
.LVL30:
.L19:
.LBE875:
.LBE874:
	.loc 2 1638 0
	lwz 0,12(1)
	addi 1,1,8
	.cfi_remember_state
.LCFI5:
	.cfi_def_cfa_offset 0
	mtlr 0
	blr
.LVL31:
.L23:
.LCFI6:
	.cfi_restore_state
	.loc 3 75 0
	lis 3,.LANCHOR0@ha
.LVL32:
	la 3,.LANCHOR0@l(3)
	bl _ZNSt8ios_base4InitC1Ev
	b .L19
	.cfi_endproc
.LFE1346:
	.size	_Z41__static_initialization_and_destruction_0ii.constprop.22, .-_Z41__static_initialization_and_destruction_0ii.constprop.22
	.section	.text._ZN13TiXmlDocumentD2Ev,"axG",@progbits,_ZN13TiXmlDocumentD5Ev,comdat
	.align 2
	.weak	_ZN13TiXmlDocumentD2Ev
	.type	_ZN13TiXmlDocumentD2Ev, @function
_ZN13TiXmlDocumentD2Ev:
.LFB1164:
	.loc 1 1411 0
	.cfi_startproc
.LVL33:
	mflr 0
	stwu 1,-32(1)
.LCFI7:
	.cfi_def_cfa_offset 32
	.cfi_register 65, 0
.LBB899:
.LBB900:
.LBB901:
.LBB902:
.LBB903:
.LBB904:
	.file 4 "d:\\devkitpro\\devkitppc\\bin\\../lib/gcc/powerpc-eabi/4.6.3/../../../../powerpc-eabi/include/c++/4.6.3/bits/basic_string.h"
	.loc 4 235 0
	lis 11,_ZNSs4_Rep20_S_empty_rep_storageE@ha
.LBE904:
.LBE903:
.LBE902:
.LBE901:
.LBE900:
.LBE899:
	.loc 1 1411 0
	stw 31,28(1)
	mr 31,3
	.cfi_offset 31, -4
	stw 0,36(1)
.LBB934:
.LBB930:
.LBB926:
.LBB922:
.LBB915:
.LBB911:
	.loc 4 235 0
	la 0,_ZNSs4_Rep20_S_empty_rep_storageE@l(11)
	.cfi_offset 65, 4
.LBE911:
.LBE915:
.LBE922:
.LBE926:
.LBE930:
	.loc 1 1411 0
	lis 11,_ZTV13TiXmlDocument+8@ha
.LBB931:
.LBB927:
.LBB923:
.LBB916:
.LBB917:
.LBB918:
	.loc 4 288 0
	lwz 9,52(3)
.LBE918:
.LBE917:
.LBE916:
	.loc 4 534 0
	addi 3,9,-12
.LVL34:
.LBB919:
.LBB912:
	.loc 4 235 0
	cmpw 7,3,0
.LBE912:
.LBE919:
.LBE923:
.LBE927:
.LBE931:
	.loc 1 1411 0
	la 0,_ZTV13TiXmlDocument+8@l(11)
	stw 0,0(31)
.LVL35:
.LBB932:
.LBB928:
.LBB924:
.LBB920:
.LBB913:
	.loc 4 235 0
	bne- 7,.L32
.LVL36:
.L30:
.LBE913:
.LBE920:
.LBE924:
.LBE928:
.LBE932:
	.loc 1 1411 0
	mr 3,31
	bl _ZN9TiXmlNodeD2Ev
.LBE934:
	lwz 0,36(1)
	lwz 31,28(1)
.LVL37:
	mtlr 0
	addi 1,1,32
	.cfi_remember_state
.LCFI8:
	.cfi_def_cfa_offset 0
	.cfi_restore 31
	blr
.LVL38:
.L32:
.LCFI9:
	.cfi_restore_state
.LBB935:
.LBB933:
.LBB929:
.LBB925:
.LBB921:
.LBB914:
.LBB905:
.LBB906:
.LBB907:
	.file 5 "d:\\devkitpro\\devkitppc\\bin\\../lib/gcc/powerpc-eabi/4.6.3/../../../../powerpc-eabi/include/c++/4.6.3/ext/atomicity.h"
	.loc 5 66 0
	lwz 11,-4(9)
.LVL39:
.LBE907:
.LBE906:
.LBE905:
	.loc 4 240 0
	cmpwi 7,11,0
.LBB910:
.LBB909:
.LBB908:
	.loc 5 67 0
	addi 11,11,-1
	stw 11,-4(9)
.LBE908:
.LBE909:
.LBE910:
	.loc 4 240 0
	bgt+ 7,.L30
	.loc 4 244 0
	addi 4,1,8
	bl _ZNSs4_Rep10_M_destroyERKSaIcE
.LVL40:
	b .L30
.LBE914:
.LBE921:
.LBE925:
.LBE929:
.LBE933:
.LBE935:
	.cfi_endproc
.LFE1164:
	.size	_ZN13TiXmlDocumentD2Ev, .-_ZN13TiXmlDocumentD2Ev
	.section	.text._ZN14TiXmlAttributeD2Ev,"axG",@progbits,_ZN14TiXmlAttributeD5Ev,comdat
	.align 2
	.weak	_ZN14TiXmlAttributeD2Ev
	.type	_ZN14TiXmlAttributeD2Ev, @function
_ZN14TiXmlAttributeD2Ev:
.LFB1239:
	.loc 1 781 0
	.cfi_startproc
.LVL41:
	mflr 0
	stwu 1,-32(1)
.LCFI10:
	.cfi_def_cfa_offset 32
	.cfi_register 65, 0
.LBB986:
	lis 11,_ZTV14TiXmlAttribute+8@ha
.LBE986:
	stw 30,24(1)
.LBB1044:
.LBB987:
.LBB988:
.LBB989:
.LBB990:
.LBB991:
	.loc 4 235 0
	lis 30,_ZNSs4_Rep20_S_empty_rep_storageE@ha
	.cfi_offset 30, -8
.LBE991:
.LBE990:
.LBE989:
.LBE988:
.LBE987:
.LBE1044:
	.loc 1 781 0
	stw 0,36(1)
.LBB1045:
.LBB1015:
.LBB1011:
.LBB1007:
.LBB1001:
.LBB998:
	.loc 4 235 0
	la 30,_ZNSs4_Rep20_S_empty_rep_storageE@l(30)
.LBE998:
.LBE1001:
.LBE1007:
.LBE1011:
.LBE1015:
.LBE1045:
	.loc 1 781 0
	stw 31,28(1)
	.loc 1 781 0
	mr 31,3
	.cfi_offset 31, -4
	.cfi_offset 65, 4
.LBB1046:
.LBB1016:
.LBB1012:
.LBB1008:
.LBB1002:
.LBB1003:
.LBB1004:
	.loc 4 288 0
	lwz 9,24(3)
.LBE1004:
.LBE1003:
.LBE1002:
.LBE1008:
.LBE1012:
.LBE1016:
	.loc 1 781 0
	la 0,_ZTV14TiXmlAttribute+8@l(11)
	stw 0,0(31)
.LVL42:
.LBB1017:
.LBB1013:
.LBB1009:
	.loc 4 534 0
	addi 3,9,-12
.LVL43:
.LBB1005:
.LBB999:
	.loc 4 235 0
	cmpw 7,3,30
	bne- 7,.L48
.LVL44:
.L39:
.LBE999:
.LBE1005:
.LBE1009:
.LBE1013:
.LBE1017:
.LBB1018:
.LBB1019:
.LBB1020:
.LBB1021:
.LBB1022:
.LBB1023:
	.loc 4 288 0
	lwz 9,20(31)
.LBE1023:
.LBE1022:
.LBE1021:
	.loc 4 534 0
	addi 3,9,-12
.LVL45:
.LBB1024:
.LBB1025:
	.loc 4 235 0
	cmpw 7,3,30
	bne- 7,.L49
.LVL46:
.L45:
.LBE1025:
.LBE1024:
.LBE1020:
.LBE1019:
.LBE1018:
.LBB1036:
.LBB1037:
.LBB1038:
	.loc 1 204 0
	lis 9,_ZTV9TiXmlBase+8@ha
.LBE1038:
.LBE1037:
.LBE1036:
.LBE1046:
	.loc 1 781 0
	lwz 30,24(1)
.LBB1047:
.LBB1041:
.LBB1040:
.LBB1039:
	.loc 1 204 0
	la 0,_ZTV9TiXmlBase+8@l(9)
	stw 0,0(31)
.LBE1039:
.LBE1040:
.LBE1041:
.LBE1047:
	.loc 1 781 0
	lwz 0,36(1)
	lwz 31,28(1)
.LVL47:
	mtlr 0
	addi 1,1,32
	.cfi_remember_state
.LCFI11:
	.cfi_def_cfa_offset 0
	.cfi_restore 31
	.cfi_restore 30
	blr
.LVL48:
.L48:
.LCFI12:
	.cfi_restore_state
.LBB1048:
.LBB1042:
.LBB1014:
.LBB1010:
.LBB1006:
.LBB1000:
.LBB992:
.LBB993:
.LBB994:
	.loc 5 66 0
	lwz 11,-4(9)
.LVL49:
.LBE994:
.LBE993:
.LBE992:
	.loc 4 240 0
	cmpwi 7,11,0
.LBB997:
.LBB996:
.LBB995:
	.loc 5 67 0
	addi 11,11,-1
	stw 11,-4(9)
.LBE995:
.LBE996:
.LBE997:
	.loc 4 240 0
	bgt+ 7,.L39
	.loc 4 244 0
	addi 4,1,9
	bl _ZNSs4_Rep10_M_destroyERKSaIcE
.LVL50:
	b .L39
.LVL51:
.L49:
.LBE1000:
.LBE1006:
.LBE1010:
.LBE1014:
.LBE1042:
.LBB1043:
.LBB1035:
.LBB1034:
.LBB1033:
.LBB1032:
.LBB1026:
.LBB1027:
.LBB1028:
	.loc 5 66 0
	lwz 11,-4(9)
.LVL52:
.LBE1028:
.LBE1027:
.LBE1026:
	.loc 4 240 0
	cmpwi 7,11,0
.LBB1031:
.LBB1030:
.LBB1029:
	.loc 5 67 0
	addi 11,11,-1
	stw 11,-4(9)
.LBE1029:
.LBE1030:
.LBE1031:
	.loc 4 240 0
	bgt+ 7,.L45
	.loc 4 244 0
	addi 4,1,8
	bl _ZNSs4_Rep10_M_destroyERKSaIcE
.LVL53:
	b .L45
.LBE1032:
.LBE1033:
.LBE1034:
.LBE1035:
.LBE1043:
.LBE1048:
	.cfi_endproc
.LFE1239:
	.size	_ZN14TiXmlAttributeD2Ev, .-_ZN14TiXmlAttributeD2Ev
	.section	.text._ZN13TiXmlDocumentD0Ev,"axG",@progbits,_ZN13TiXmlDocumentD5Ev,comdat
	.align 2
	.weak	_ZN13TiXmlDocumentD0Ev
	.type	_ZN13TiXmlDocumentD0Ev, @function
_ZN13TiXmlDocumentD0Ev:
.LFB1166:
	.loc 1 1411 0
	.cfi_startproc
.LVL54:
	mflr 0
	stwu 1,-32(1)
.LCFI13:
	.cfi_def_cfa_offset 32
	.cfi_register 65, 0
.LBB1073:
.LBB1074:
.LBB1075:
.LBB1076:
.LBB1077:
.LBB1078:
.LBB1079:
.LBB1080:
	.loc 4 235 0
	lis 11,_ZNSs4_Rep20_S_empty_rep_storageE@ha
.LBE1080:
.LBE1079:
.LBE1078:
.LBE1077:
.LBE1076:
.LBE1075:
.LBE1074:
.LBE1073:
	.loc 1 1411 0
	stw 31,28(1)
	mr 31,3
	.cfi_offset 31, -4
.LVL55:
	stw 0,36(1)
.LBB1114:
.LBB1112:
.LBB1110:
.LBB1106:
.LBB1102:
.LBB1098:
.LBB1091:
.LBB1087:
	.loc 4 235 0
	la 0,_ZNSs4_Rep20_S_empty_rep_storageE@l(11)
	.cfi_offset 65, 4
.LBE1087:
.LBE1091:
.LBE1098:
.LBE1102:
.LBE1106:
	.loc 1 1411 0
	lis 11,_ZTV13TiXmlDocument+8@ha
.LBB1107:
.LBB1103:
.LBB1099:
.LBB1092:
.LBB1093:
.LBB1094:
	.loc 4 288 0
	lwz 9,52(3)
.LBE1094:
.LBE1093:
.LBE1092:
	.loc 4 534 0
	addi 3,9,-12
.LVL56:
.LBB1095:
.LBB1088:
	.loc 4 235 0
	cmpw 7,3,0
.LBE1088:
.LBE1095:
.LBE1099:
.LBE1103:
.LBE1107:
	.loc 1 1411 0
	la 0,_ZTV13TiXmlDocument+8@l(11)
	stw 0,0(31)
.LVL57:
.LBB1108:
.LBB1104:
.LBB1100:
.LBB1096:
.LBB1089:
	.loc 4 235 0
	bne- 7,.L59
.LVL58:
.L56:
.LBE1089:
.LBE1096:
.LBE1100:
.LBE1104:
.LBE1108:
	.loc 1 1411 0
	mr 3,31
	bl _ZN9TiXmlNodeD2Ev
.LBE1110:
.LBE1112:
.LBE1114:
	mr 3,31
	bl _ZdlPv
	lwz 0,36(1)
	lwz 31,28(1)
.LVL59:
	mtlr 0
	addi 1,1,32
	.cfi_remember_state
.LCFI14:
	.cfi_def_cfa_offset 0
	.cfi_restore 31
	blr
.LVL60:
.L59:
.LCFI15:
	.cfi_restore_state
.LBB1115:
.LBB1113:
.LBB1111:
.LBB1109:
.LBB1105:
.LBB1101:
.LBB1097:
.LBB1090:
.LBB1081:
.LBB1082:
.LBB1083:
	.loc 5 66 0
	lwz 11,-4(9)
.LVL61:
.LBE1083:
.LBE1082:
.LBE1081:
	.loc 4 240 0
	cmpwi 7,11,0
.LBB1086:
.LBB1085:
.LBB1084:
	.loc 5 67 0
	addi 11,11,-1
	stw 11,-4(9)
.LBE1084:
.LBE1085:
.LBE1086:
	.loc 4 240 0
	bgt+ 7,.L56
	.loc 4 244 0
	addi 4,1,8
	bl _ZNSs4_Rep10_M_destroyERKSaIcE
.LVL62:
	b .L56
.LBE1090:
.LBE1097:
.LBE1101:
.LBE1105:
.LBE1109:
.LBE1111:
.LBE1113:
.LBE1115:
	.cfi_endproc
.LFE1166:
	.size	_ZN13TiXmlDocumentD0Ev, .-_ZN13TiXmlDocumentD0Ev
	.section	.text._ZN14TiXmlAttributeD0Ev,"axG",@progbits,_ZN14TiXmlAttributeD5Ev,comdat
	.align 2
	.weak	_ZN14TiXmlAttributeD0Ev
	.type	_ZN14TiXmlAttributeD0Ev, @function
_ZN14TiXmlAttributeD0Ev:
.LFB1241:
	.loc 1 781 0
	.cfi_startproc
.LVL63:
	mflr 0
	stwu 1,-32(1)
.LCFI16:
	.cfi_def_cfa_offset 32
	.cfi_register 65, 0
.LBB1164:
.LBB1165:
.LBB1166:
	lis 11,_ZTV14TiXmlAttribute+8@ha
.LBE1166:
.LBE1165:
.LBE1164:
	stw 30,24(1)
.LBB1234:
.LBB1229:
.LBB1224:
.LBB1167:
.LBB1168:
.LBB1169:
.LBB1170:
.LBB1171:
	.loc 4 235 0
	lis 30,_ZNSs4_Rep20_S_empty_rep_storageE@ha
	.cfi_offset 30, -8
.LBE1171:
.LBE1170:
.LBE1169:
.LBE1168:
.LBE1167:
.LBE1224:
.LBE1229:
.LBE1234:
	.loc 1 781 0
	stw 0,36(1)
.LBB1235:
.LBB1230:
.LBB1225:
.LBB1195:
.LBB1191:
.LBB1187:
.LBB1181:
.LBB1178:
	.loc 4 235 0
	la 30,_ZNSs4_Rep20_S_empty_rep_storageE@l(30)
.LBE1178:
.LBE1181:
.LBE1187:
.LBE1191:
.LBE1195:
.LBE1225:
.LBE1230:
.LBE1235:
	.loc 1 781 0
	stw 31,28(1)
	.loc 1 781 0
	mr 31,3
	.cfi_offset 31, -4
	.cfi_offset 65, 4
.LVL64:
.LBB1236:
.LBB1231:
.LBB1226:
.LBB1196:
.LBB1192:
.LBB1188:
.LBB1182:
.LBB1183:
.LBB1184:
	.loc 4 288 0
	lwz 9,24(3)
.LBE1184:
.LBE1183:
.LBE1182:
.LBE1188:
.LBE1192:
.LBE1196:
	.loc 1 781 0
	la 0,_ZTV14TiXmlAttribute+8@l(11)
	stw 0,0(31)
.LVL65:
.LBB1197:
.LBB1193:
.LBB1189:
	.loc 4 534 0
	addi 3,9,-12
.LVL66:
.LBB1185:
.LBB1179:
	.loc 4 235 0
	cmpw 7,3,30
	bne- 7,.L76
.LVL67:
.L66:
.LBE1179:
.LBE1185:
.LBE1189:
.LBE1193:
.LBE1197:
.LBB1198:
.LBB1199:
.LBB1200:
.LBB1201:
.LBB1202:
.LBB1203:
	.loc 4 288 0
	lwz 9,20(31)
.LBE1203:
.LBE1202:
.LBE1201:
	.loc 4 534 0
	addi 3,9,-12
.LVL68:
.LBB1204:
.LBB1205:
	.loc 4 235 0
	cmpw 7,3,30
	bne- 7,.L77
.LVL69:
.L72:
.LBE1205:
.LBE1204:
.LBE1200:
.LBE1199:
.LBE1198:
.LBB1216:
.LBB1217:
.LBB1218:
	.loc 1 204 0
	lis 9,_ZTV9TiXmlBase+8@ha
.LBE1218:
.LBE1217:
.LBE1216:
.LBE1226:
.LBE1231:
.LBE1236:
	.loc 1 781 0
	mr 3,31
.LBB1237:
.LBB1232:
.LBB1227:
.LBB1221:
.LBB1220:
.LBB1219:
	.loc 1 204 0
	la 0,_ZTV9TiXmlBase+8@l(9)
	stw 0,0(31)
.LBE1219:
.LBE1220:
.LBE1221:
.LBE1227:
.LBE1232:
.LBE1237:
	.loc 1 781 0
	bl _ZdlPv
	lwz 0,36(1)
	lwz 30,24(1)
	mtlr 0
	lwz 31,28(1)
.LVL70:
	addi 1,1,32
	.cfi_remember_state
.LCFI17:
	.cfi_def_cfa_offset 0
	.cfi_restore 31
	.cfi_restore 30
	blr
.LVL71:
.L76:
.LCFI18:
	.cfi_restore_state
.LBB1238:
.LBB1233:
.LBB1228:
.LBB1222:
.LBB1194:
.LBB1190:
.LBB1186:
.LBB1180:
.LBB1172:
.LBB1173:
.LBB1174:
	.loc 5 66 0
	lwz 11,-4(9)
.LVL72:
.LBE1174:
.LBE1173:
.LBE1172:
	.loc 4 240 0
	cmpwi 7,11,0
.LBB1177:
.LBB1176:
.LBB1175:
	.loc 5 67 0
	addi 11,11,-1
	stw 11,-4(9)
.LBE1175:
.LBE1176:
.LBE1177:
	.loc 4 240 0
	bgt+ 7,.L66
	.loc 4 244 0
	addi 4,1,9
	bl _ZNSs4_Rep10_M_destroyERKSaIcE
.LVL73:
	b .L66
.LVL74:
.L77:
.LBE1180:
.LBE1186:
.LBE1190:
.LBE1194:
.LBE1222:
.LBB1223:
.LBB1215:
.LBB1214:
.LBB1213:
.LBB1212:
.LBB1206:
.LBB1207:
.LBB1208:
	.loc 5 66 0
	lwz 11,-4(9)
.LVL75:
.LBE1208:
.LBE1207:
.LBE1206:
	.loc 4 240 0
	cmpwi 7,11,0
.LBB1211:
.LBB1210:
.LBB1209:
	.loc 5 67 0
	addi 11,11,-1
	stw 11,-4(9)
.LBE1209:
.LBE1210:
.LBE1211:
	.loc 4 240 0
	bgt+ 7,.L72
	.loc 4 244 0
	addi 4,1,8
	bl _ZNSs4_Rep10_M_destroyERKSaIcE
.LVL76:
	b .L72
.LBE1212:
.LBE1213:
.LBE1214:
.LBE1215:
.LBE1223:
.LBE1228:
.LBE1233:
.LBE1238:
	.cfi_endproc
.LFE1241:
	.size	_ZN14TiXmlAttributeD0Ev, .-_ZN14TiXmlAttributeD0Ev
	.section	".text"
	.align 2
	.globl _ZN9TiXmlBase18ConvertUTF32ToUTF8EmPcPi
	.type	_ZN9TiXmlBase18ConvertUTF32ToUTF8EmPcPi, @function
_ZN9TiXmlBase18ConvertUTF32ToUTF8EmPcPi:
.LFB1217:
	.loc 2 89 0
	.cfi_startproc
.LVL77:
.LBB1239:
	.loc 2 92 0
	lis 11,.LANCHOR1@ha
	.loc 2 94 0
	cmplwi 7,3,127
	.loc 2 92 0
	la 9,.LANCHOR1@l(11)
.LBE1239:
	.loc 2 89 0
	stwu 1,-40(1)
.LCFI19:
	.cfi_def_cfa_offset 40
.LBB1240:
	.loc 2 92 0
	lwz 6,4(9)
	lwz 7,8(9)
	lwz 8,12(9)
	lwz 10,16(9)
	lwz 0,24(9)
	lwz 12,.LANCHOR1@l(11)
	lwz 11,20(9)
	stw 12,8(1)
	stw 6,12(1)
	stw 7,16(1)
	stw 8,20(1)
	stw 10,24(1)
	stw 11,28(1)
	stw 0,32(1)
	.loc 2 94 0
	bgt- 7,.L79
	.loc 2 95 0
	li 0,1
	.loc 2 105 0
	addi 4,4,1
.LVL78:
	.loc 2 95 0
	stw 0,0(5)
.L80:
.LVL79:
	.loc 2 124 0
	slwi 0,0,2
	addi 9,1,8
	lwzx 0,9,0
	or 3,3,0
.LVL80:
	stb 3,-1(4)
.LVL81:
.L78:
.LBE1240:
	.loc 2 126 0
	addi 1,1,40
	.cfi_remember_state
.LCFI20:
	.cfi_def_cfa_offset 0
	blr
.LVL82:
.L79:
.LCFI21:
	.cfi_restore_state
.LBB1241:
	.loc 2 96 0
	cmplwi 7,3,2047
	bgt- 7,.L81
	.loc 2 97 0
	li 0,2
	.loc 2 105 0
	addi 4,4,2
.LVL83:
	.loc 2 97 0
	stw 0,0(5)
.L82:
	.loc 2 120 0
	rlwinm 9,3,0,26,31
	li 0,-128
	or 0,9,0
	.loc 2 121 0
	srwi 3,3,6
.LVL84:
	.loc 2 120 0
	stb 0,-1(4)
	.loc 2 119 0
	addi 4,4,-1
.LVL85:
	lwz 0,0(5)
	b .L80
.L81:
	.loc 2 98 0
	cmplwi 7,3,65535
	ble- 7,.L87
	.loc 2 100 0
	lis 0,0x1f
	ori 0,0,65535
	cmplw 7,3,0
	bgt- 7,.L85
	.loc 2 112 0
	rlwinm 9,3,0,26,31
	li 0,-128
	or 0,9,0
	.loc 2 101 0
	li 9,4
	stw 9,0(5)
.LVL86:
	.loc 2 113 0
	srwi 3,3,6
.LVL87:
	.loc 2 112 0
	stb 0,3(4)
	.loc 2 111 0
	addi 9,4,3
.LVL88:
.L84:
	.loc 2 116 0
	rlwinm 11,3,0,26,31
	li 0,-128
	or 0,11,0
	.loc 2 115 0
	addi 4,9,-1
.LVL89:
	.loc 2 116 0
	stb 0,-1(9)
	.loc 2 117 0
	srwi 3,3,6
.LVL90:
	b .L82
.L87:
	.loc 2 99 0
	li 0,3
	.loc 2 105 0
	addi 9,4,3
.LVL91:
	.loc 2 99 0
	stw 0,0(5)
	b .L84
.LVL92:
.L85:
	.loc 2 103 0
	li 0,0
	stw 0,0(5)
	b .L78
.LBE1241:
	.cfi_endproc
.LFE1217:
	.size	_ZN9TiXmlBase18ConvertUTF32ToUTF8EmPcPi, .-_ZN9TiXmlBase18ConvertUTF32ToUTF8EmPcPi
	.align 2
	.globl _ZN9TiXmlBase7IsAlphaEh13TiXmlEncoding
	.type	_ZN9TiXmlBase7IsAlphaEh13TiXmlEncoding, @function
_ZN9TiXmlBase7IsAlphaEh13TiXmlEncoding:
.LFB1218:
	.loc 2 130 0
	.cfi_startproc
.LVL93:
	.loc 2 138 0
	cmplwi 7,3,126
	.loc 2 130 0
	mflr 0
	stwu 1,-8(1)
.LCFI22:
	.cfi_def_cfa_offset 8
	.cfi_register 65, 0
	stw 0,12(1)
	.loc 2 141 0
	li 0,1
	.cfi_offset 65, 4
	.loc 2 138 0
	bgt- 7,.L89
	.loc 2 139 0
	bl isalpha
.LVL94:
	mr 0,3
.L89:
	.loc 2 147 0
	mr 3,0
	lwz 0,12(1)
	addi 1,1,8
.LCFI23:
	.cfi_def_cfa_offset 0
	mtlr 0
	blr
	.cfi_endproc
.LFE1218:
	.size	_ZN9TiXmlBase7IsAlphaEh13TiXmlEncoding, .-_ZN9TiXmlBase7IsAlphaEh13TiXmlEncoding
	.align 2
	.globl _ZN9TiXmlBase10IsAlphaNumEh13TiXmlEncoding
	.type	_ZN9TiXmlBase10IsAlphaNumEh13TiXmlEncoding, @function
_ZN9TiXmlBase10IsAlphaNumEh13TiXmlEncoding:
.LFB1219:
	.loc 2 151 0
	.cfi_startproc
.LVL95:
	.loc 2 159 0
	cmplwi 7,3,126
	.loc 2 151 0
	mflr 0
	stwu 1,-8(1)
.LCFI24:
	.cfi_def_cfa_offset 8
	.cfi_register 65, 0
	stw 0,12(1)
	.loc 2 162 0
	li 0,1
	.cfi_offset 65, 4
	.loc 2 159 0
	bgt- 7,.L92
	.loc 2 160 0
	bl isalnum
.LVL96:
	mr 0,3
.L92:
	.loc 2 168 0
	mr 3,0
	lwz 0,12(1)
	addi 1,1,8
.LCFI25:
	.cfi_def_cfa_offset 0
	mtlr 0
	blr
	.cfi_endproc
.LFE1219:
	.size	_ZN9TiXmlBase10IsAlphaNumEh13TiXmlEncoding, .-_ZN9TiXmlBase10IsAlphaNumEh13TiXmlEncoding
	.align 2
	.globl _ZN16TiXmlParsingData5StampEPKc13TiXmlEncoding
	.type	_ZN16TiXmlParsingData5StampEPKc13TiXmlEncoding, @function
_ZN16TiXmlParsingData5StampEPKc13TiXmlEncoding:
.LFB1224:
	.loc 2 197 0
	.cfi_startproc
.LVL97:
.LBB1242:
	.loc 2 198 0
	cmpwi 0,4,0
.LBE1242:
	.loc 2 197 0
	mflr 0
	stwu 1,-8(1)
.LCFI26:
	.cfi_def_cfa_offset 8
	.cfi_register 65, 0
	stw 0,12(1)
.LBB1257:
	.loc 2 198 0
	beq- 0,.L124
	.cfi_offset 65, 4
	.loc 2 201 0
	lwz 8,12(3)
	cmpwi 7,8,0
	ble- 7,.L94
	.loc 2 209 0
	lwz 9,8(3)
	.loc 2 207 0
	lwz 10,0(3)
.LVL98:
	.loc 2 210 0
	cmpwi 7,9,0
	.loc 2 208 0
	lwz 11,4(3)
.LVL99:
	.loc 2 210 0
	beq- 7,.L97
	.loc 2 212 0 discriminator 1
	cmplw 7,4,9
	ble- 7,.L99
.LBB1243:
.LBB1244:
.LBB1245:
.LBB1246:
.LBB1247:
	.loc 2 289 0
	lis 7,.LANCHOR1@ha
.LBE1247:
	.loc 2 286 0
	cmpwi 6,5,1
.LBB1248:
	.loc 2 289 0
	la 7,.LANCHOR1@l(7)
.LVL100:
.L119:
.LBE1248:
.LBE1246:
.LBE1245:
	.loc 2 218 0
	lbz 0,0(9)
	cmpwi 7,0,10
	beq- 7,.L102
	cmplwi 7,0,10
	bgt- 7,.L105
	cmpwi 7,0,0
	beq- 7,.L94
	cmpwi 7,0,9
	beq- 7,.L125
.L100:
.LBB1252:
.LBB1250:
	.loc 2 286 0
	beq- 6,.L126
.L113:
	.loc 2 299 0
	addi 9,9,1
.LVL101:
	.loc 2 300 0
	addi 11,11,1
.LVL102:
.L107:
.LBE1250:
.LBE1252:
.LBE1244:
.LBE1243:
	.loc 2 212 0 discriminator 1
	cmplw 7,4,9
	bgt+ 7,.L119
.L99:
	.loc 2 307 0
	cmpwi 7,10,-1
	.loc 2 305 0
	stw 10,0(3)
	.loc 2 306 0
	stw 11,4(3)
	.loc 2 307 0
	blt- 7,.L127
	.loc 2 308 0
	cmpwi 7,11,-1
	blt- 7,.L128
	.loc 2 310 0
	cmpwi 7,9,0
	.loc 2 309 0
	stw 9,8(3)
	.loc 2 310 0
	beq- 7,.L129
.LVL103:
.L94:
.LBE1257:
	.loc 2 311 0
	lwz 0,12(1)
	addi 1,1,8
	.cfi_remember_state
.LCFI27:
	.cfi_def_cfa_offset 0
	mtlr 0
	blr
.LVL104:
.L125:
.LCFI28:
	.cfi_restore_state
.LBB1258:
.LBB1256:
.LBB1255:
.LBB1253:
	.loc 2 258 0
	divw 11,11,8
.LVL105:
	.loc 2 255 0
	addi 9,9,1
.LVL106:
	.loc 2 258 0
	addi 11,11,1
	mullw 11,8,11
.LVL107:
	.loc 2 259 0
	b .L107
.LVL108:
.L105:
.LBE1253:
	.loc 2 218 0
	cmpwi 7,0,13
	beq- 7,.L103
	cmpwi 7,0,239
	bne+ 7,.L100
.LBB1254:
	.loc 2 262 0
	bne+ 6,.L113
	.loc 2 264 0
	lbz 0,1(9)
	cmpwi 7,0,0
	beq- 7,.L107
	.loc 2 264 0 is_stmt 0 discriminator 1
	lbz 6,2(9)
	cmpwi 7,6,0
	beq- 7,.L107
	.loc 2 268 0 is_stmt 1
	cmpwi 7,0,187
	beq- 7,.L112
	.loc 2 270 0
	cmpwi 7,0,191
	beq- 7,.L130
.L111:
	.loc 2 275 0
	addi 9,9,3
.LVL109:
	addi 11,11,1
.LVL110:
	b .L107
.LVL111:
.L103:
	.loc 2 232 0
	lbz 0,1(9)
	.loc 2 226 0
	addi 10,10,1
.LVL112:
	.loc 2 232 0
	cmpwi 7,0,10
	beq- 7,.L108
.LVL113:
.L121:
	.loc 2 243 0
	addi 9,9,1
.LVL114:
	.loc 2 240 0
	li 11,0
	b .L107
.LVL115:
.L102:
	.loc 2 248 0
	lbz 0,1(9)
	.loc 2 239 0
	addi 10,10,1
.LVL116:
	.loc 2 248 0
	cmpwi 7,0,13
	bne+ 7,.L121
.LVL117:
.L108:
	.loc 2 249 0
	addi 9,9,2
.LVL118:
	.loc 2 240 0
	li 11,0
	b .L107
.LVL119:
.L126:
.LBB1251:
.LBB1249:
	.loc 2 289 0
	slwi 0,0,2
	add 6,7,0
	.loc 2 290 0
	li 0,1
	.loc 2 289 0
	lwz 6,88(6)
.LVL120:
	.loc 2 290 0
	cmpwi 7,6,0
	beq- 7,.L114
	mr 0,6
.L114:
.LVL121:
	.loc 2 292 0
	add 9,9,0
.LVL122:
	.loc 2 295 0
	addi 11,11,1
.LVL123:
	b .L107
.LVL124:
.L130:
.LBE1249:
.LBE1251:
	.loc 2 270 0 discriminator 1
	cmpwi 7,6,190
	beq- 7,.L122
.L112:
	.loc 2 272 0 discriminator 1
	cmpwi 7,6,191
	bne+ 7,.L111
.L122:
	.loc 2 273 0
	addi 9,9,3
.LVL125:
	b .L107
.LVL126:
.L97:
.LBE1254:
.LBE1255:
.LBE1256:
	.loc 2 210 0 discriminator 1
	lis 5,.LANCHOR1@ha
.LVL127:
	lis 3,.LC1@ha
.LVL128:
	la 5,.LANCHOR1@l(5)
	lis 6,.LC3@ha
	la 3,.LC1@l(3)
	li 4,210
.LVL129:
	addi 5,5,28
	la 6,.LC3@l(6)
	bl __assert_func
.LVL130:
.L124:
	.loc 2 198 0 discriminator 1
	lis 5,.LANCHOR1@ha
.LVL131:
	lis 3,.LC1@ha
.LVL132:
	la 5,.LANCHOR1@l(5)
	lis 6,.LC2@ha
	la 3,.LC1@l(3)
	li 4,198
.LVL133:
	addi 5,5,28
	la 6,.LC2@l(6)
	bl __assert_func
.LVL134:
.L129:
	.loc 2 310 0 discriminator 1
	lis 5,.LANCHOR1@ha
.LVL135:
	lis 3,.LC1@ha
.LVL136:
	la 5,.LANCHOR1@l(5)
	lis 6,.LC6@ha
	la 3,.LC1@l(3)
	li 4,310
.LVL137:
	addi 5,5,28
	la 6,.LC6@l(6)
	bl __assert_func
.LVL138:
.L128:
	.loc 2 308 0 discriminator 1
	lis 5,.LANCHOR1@ha
.LVL139:
	lis 3,.LC1@ha
.LVL140:
	la 5,.LANCHOR1@l(5)
	lis 6,.LC5@ha
	la 3,.LC1@l(3)
	li 4,308
.LVL141:
	addi 5,5,28
	la 6,.LC5@l(6)
	bl __assert_func
.LVL142:
.L127:
	.loc 2 307 0 discriminator 1
	lis 5,.LANCHOR1@ha
.LVL143:
	lis 3,.LC1@ha
.LVL144:
	la 5,.LANCHOR1@l(5)
	lis 6,.LC4@ha
	la 3,.LC1@l(3)
	li 4,307
.LVL145:
	addi 5,5,28
	la 6,.LC4@l(6)
	bl __assert_func
.LVL146:
.LVL147:
.LVL148:
.LBE1258:
	.cfi_endproc
.LFE1224:
	.size	_ZN16TiXmlParsingData5StampEPKc13TiXmlEncoding, .-_ZN16TiXmlParsingData5StampEPKc13TiXmlEncoding
	.align 2
	.globl _ZN9TiXmlBase14SkipWhiteSpaceEPKc13TiXmlEncoding
	.type	_ZN9TiXmlBase14SkipWhiteSpaceEPKc13TiXmlEncoding, @function
_ZN9TiXmlBase14SkipWhiteSpaceEPKc13TiXmlEncoding:
.LFB1225:
	.loc 2 315 0
	.cfi_startproc
.LVL149:
	stwu 1,-24(1)
.LCFI29:
	.cfi_def_cfa_offset 24
	mflr 0
	stw 31,20(1)
.LBB1271:
	.loc 2 316 0
	mr. 31,3
	.cfi_offset 31, -4
	.cfi_register 65, 0
.LBE1271:
	.loc 2 315 0
	stw 0,28(1)
	stw 29,12(1)
	stw 30,16(1)
.LBB1296:
	.loc 2 316 0
	beq- 0,.L132
	.cfi_offset 30, -8
	.cfi_offset 29, -12
	.cfi_offset 65, 4
	.loc 2 316 0 is_stmt 0 discriminator 1
	lbz 30,0(31)
	cmpwi 7,30,0
	beq- 7,.L143
.LBB1272:
	.loc 2 320 0 is_stmt 1
	cmpwi 7,4,1
.LBB1273:
	.loc 2 322 0
	mr 29,31
.LBE1273:
	.loc 2 320 0
	beq- 7,.L144
.LVL150:
.L145:
.LBB1282:
.LBB1283:
	.loc 1 294 0 discriminator 2
	mr 3,30
	bl isspace
.LBB1284:
.LBB1285:
	cmpwi 6,30,10
.LBE1285:
.LBE1284:
	cmpwi 7,3,0
.LBE1283:
.LBE1282:
	.loc 2 357 0 discriminator 2
	cmpwi 1,30,13
.LBB1289:
.LBB1288:
	.loc 1 294 0 discriminator 2
	bne- 7,.L140
.LBB1287:
.LBB1286:
	.loc 1 294 0 is_stmt 0
	beq- 6,.L140
.LBE1286:
.LBE1287:
.LBE1288:
.LBE1289:
	.loc 2 357 0 is_stmt 1
	beq- 1,.L140
.LVL151:
.L132:
.LBE1272:
.LBE1296:
	.loc 2 362 0
	lwz 0,28(1)
	mr 3,31
	lwz 29,12(1)
	mtlr 0
	lwz 30,16(1)
	lwz 31,20(1)
	addi 1,1,24
	.cfi_remember_state
.LCFI30:
	.cfi_def_cfa_offset 0
	.cfi_restore 31
	.cfi_restore 30
	.cfi_restore 29
	blr
.LVL152:
.L138:
.LCFI31:
	.cfi_restore_state
.LBB1297:
.LBB1293:
.LBB1290:
.LBB1274:
	.loc 2 350 0
	addi 31,31,1
.LVL153:
.L136:
.LBE1274:
	.loc 2 322 0 discriminator 1
	lbz 30,0(31)
	cmpwi 7,30,0
	beq- 7,.L132
.L144:
.LVL154:
.LBB1279:
	.loc 2 327 0
	cmpwi 7,30,239
	beq- 7,.L150
.L134:
.LVL155:
.LBB1275:
.LBB1276:
	.loc 1 294 0
	mr 3,30
	bl isspace
	cmpwi 7,3,0
	bne- 7,.L138
.LVL156:
.LBB1277:
.LBB1278:
	cmpwi 7,30,10
	beq- 7,.L138
.LBE1278:
.LBE1277:
.LBE1276:
.LBE1275:
	.loc 2 349 0
	cmpwi 7,30,13
	beq+ 7,.L138
.LBE1279:
.LBE1290:
.LBE1293:
.LBE1297:
	.loc 2 362 0
	lwz 0,28(1)
	mr 3,31
	lwz 29,12(1)
	mtlr 0
	lwz 30,16(1)
.LVL157:
	lwz 31,20(1)
.LVL158:
	addi 1,1,24
	.cfi_remember_state
	.cfi_restore 29
	.cfi_restore 30
	.cfi_restore 31
.LCFI32:
	.cfi_def_cfa_offset 0
	blr
.LVL159:
.L150:
.LCFI33:
	.cfi_restore_state
.LBB1298:
.LBB1294:
.LBB1291:
.LBB1280:
	.loc 2 327 0 discriminator 1
	lbz 0,1(31)
	cmpwi 7,0,187
	beq- 7,.L151
	.loc 2 334 0 discriminator 1
	cmpwi 7,0,191
	bne+ 7,.L134
	.loc 2 334 0 is_stmt 0 discriminator 2
	lbz 0,2(31)
	cmpwi 7,0,190
	beq- 7,.L142
	.loc 2 341 0 is_stmt 1
	cmpwi 7,0,191
	bne+ 7,.L134
.L142:
	.loc 2 345 0
	addi 31,31,3
.LVL160:
	.loc 2 346 0
	b .L136
.LVL161:
.L140:
.LBE1280:
.LBE1291:
	.loc 2 357 0 discriminator 5
	lbzu 30,1(29)
.LVL162:
	.loc 2 358 0 discriminator 5
	addi 31,31,1
.LVL163:
	.loc 2 357 0 discriminator 5
	cmpwi 7,30,0
	bne- 7,.L145
.LBE1294:
.LBE1298:
	.loc 2 362 0
	lwz 0,28(1)
	mr 3,31
	lwz 29,12(1)
	mtlr 0
	lwz 30,16(1)
	lwz 31,20(1)
.LVL164:
	addi 1,1,24
	.cfi_remember_state
	.cfi_restore 29
	.cfi_restore 30
	.cfi_restore 31
.LCFI34:
	.cfi_def_cfa_offset 0
	blr
.LVL165:
.L151:
.LCFI35:
	.cfi_restore_state
.LBB1299:
.LBB1295:
.LBB1292:
.LBB1281:
	.loc 2 327 0 discriminator 2
	lbz 0,2(31)
	cmpwi 7,0,191
	bne+ 7,.L134
	.loc 2 345 0
	addi 31,31,3
.LVL166:
	b .L136
.LVL167:
.L143:
.LBE1281:
.LBE1292:
.LBE1295:
	.loc 2 318 0
	li 31,0
	b .L132
.LBE1299:
	.cfi_endproc
.LFE1225:
	.size	_ZN9TiXmlBase14SkipWhiteSpaceEPKc13TiXmlEncoding, .-_ZN9TiXmlBase14SkipWhiteSpaceEPKc13TiXmlEncoding
	.align 2
	.globl _ZN9TiXmlBase16StreamWhiteSpaceEPSiPSs
	.type	_ZN9TiXmlBase16StreamWhiteSpaceEPSiPSs, @function
_ZN9TiXmlBase16StreamWhiteSpaceEPSiPSs:
.LFB1226:
	.loc 2 366 0
	.cfi_startproc
.LVL168:
	mflr 0
	stwu 1,-24(1)
.LCFI36:
	.cfi_def_cfa_offset 24
	.cfi_register 65, 0
	stw 30,16(1)
	mr 30,4
	.cfi_offset 30, -8
	stw 31,20(1)
	mr 31,3
	.cfi_offset 31, -4
	stw 0,28(1)
	stw 28,8(1)
	stw 29,12(1)
	b .L167
	.cfi_offset 29, -12
	.cfi_offset 28, -16
	.cfi_offset 65, 4
.LVL169:
.L172:
.LBB1344:
.LBB1345:
.LBB1346:
	.loc 1 299 0
	rlwinm 28,3,0,0xff
.LVL170:
.LBB1347:
.LBB1348:
	.loc 1 294 0
	mr 3,28
.LVL171:
	bl isspace
	cmpwi 7,3,0
	bne- 7,.L154
.LVL172:
.LBB1349:
.LBB1350:
	cmpwi 7,28,10
	beq- 7,.L154
.LBE1350:
.LBE1349:
.LBE1348:
.LBE1347:
.LBE1346:
.LBE1345:
	.loc 2 373 0
	cmpwi 7,28,13
	bne- 7,.L164
.LVL173:
.L154:
	.loc 2 373 0 is_stmt 0 discriminator 2
	cmpwi 7,29,0
	ble- 7,.L164
	.loc 2 376 0 is_stmt 1
	mr 3,31
	bl _ZNSi3getEv
.LBB1353:
.LBB1354:
.LBB1355:
.LBB1356:
.LBB1357:
.LBB1358:
.LBB1359:
.LBB1360:
	.loc 4 288 0
	lwz 9,0(30)
.LBE1360:
.LBE1359:
.LBE1358:
.LBE1357:
.LBE1356:
.LBE1355:
.LBE1354:
.LBE1353:
	.loc 2 376 0
	rlwinm 29,3,0,0xff
.LVL174:
.LBB1386:
.LBB1383:
.LBB1380:
.LBB1362:
.LBB1361:
	.loc 4 711 0
	lwz 11,-12(9)
.LBE1361:
.LBE1362:
	.loc 4 1046 0
	lwz 0,-8(9)
	.loc 4 1045 0
	addi 28,11,1
.LVL175:
	.loc 4 1046 0
	cmplw 7,28,0
	ble- 7,.L170
.LVL176:
.L159:
	.loc 4 1047 0
	mr 3,30
	mr 4,28
	bl _ZNSs7reserveEj
	lwz 9,0(30)
	lwz 11,-12(9)
.L156:
.LVL177:
.LBB1363:
.LBB1364:
	.file 6 "d:\\devkitpro\\devkitppc\\bin\\../lib/gcc/powerpc-eabi/4.6.3/../../../../powerpc-eabi/include/c++/4.6.3/bits/char_traits.h"
	.loc 6 245 0
	stbx 29,9,11
.LVL178:
.LBE1364:
.LBE1363:
.LBB1365:
.LBB1366:
	.loc 4 205 0
	lis 10,_ZNSs4_Rep20_S_empty_rep_storageE@ha
	la 0,_ZNSs4_Rep20_S_empty_rep_storageE@l(10)
.LBE1366:
.LBE1365:
.LBB1375:
.LBB1376:
.LBB1377:
	.loc 4 288 0
	lwz 9,0(30)
.LVL179:
.LBE1377:
.LBE1376:
.LBE1375:
	.loc 4 1049 0
	addi 11,9,-12
.LBB1378:
.LBB1373:
	.loc 4 205 0
	cmpw 7,11,0
	bne- 7,.L171
.LVL180:
.L167:
.LBE1373:
.LBE1378:
.LBE1380:
.LBE1383:
.LBE1386:
	.loc 2 369 0
	lwz 9,0(31)
.LBB1387:
	.loc 2 1638 0
	lwz 9,-12(9)
	add 9,31,9
.LBE1387:
	.loc 2 369 0
	lwz 0,20(9)
	cmpwi 7,0,0
	bne- 7,.L161
	.loc 2 371 0
	mr 3,31
	bl _ZNSi4peekEv
.LVL181:
.LBB1388:
.LBB1351:
	.loc 1 298 0
	cmpwi 7,3,255
.LBE1351:
.LBE1388:
	.loc 2 371 0
	mr 29,3
.LVL182:
.LBB1389:
.LBB1352:
	.loc 1 298 0
	ble- 7,.L172
.LVL183:
.L164:
.LBE1352:
.LBE1389:
.LBE1344:
	.loc 2 378 0
	lwz 0,28(1)
.LBB1392:
	.loc 2 374 0
	li 3,1
.LBE1392:
	.loc 2 378 0
	lwz 28,8(1)
	mtlr 0
	lwz 29,12(1)
.LVL184:
	lwz 30,16(1)
.LVL185:
	lwz 31,20(1)
.LVL186:
	addi 1,1,24
	.cfi_remember_state
.LCFI37:
	.cfi_def_cfa_offset 0
	.cfi_restore 31
	.cfi_restore 30
	.cfi_restore 29
	.cfi_restore 28
	blr
.LVL187:
.L170:
.LCFI38:
	.cfi_restore_state
.LBB1393:
.LBB1390:
.LBB1384:
.LBB1381:
	.loc 4 1046 0
	lwz 0,-4(9)
	cmpwi 7,0,0
	bgt+ 7,.L159
	b .L156
.LVL188:
.L161:
.LBE1381:
.LBE1384:
.LBE1390:
.LBE1393:
	.loc 2 378 0
	lwz 0,28(1)
.LBB1394:
	.loc 2 369 0
	li 3,0
.LBE1394:
	.loc 2 378 0
	lwz 28,8(1)
	mtlr 0
	lwz 29,12(1)
	lwz 30,16(1)
.LVL189:
	lwz 31,20(1)
.LVL190:
	addi 1,1,24
	.cfi_remember_state
	.cfi_restore 28
	.cfi_restore 29
	.cfi_restore 30
	.cfi_restore 31
.LCFI39:
	.cfi_def_cfa_offset 0
	blr
.LVL191:
.L171:
.LCFI40:
	.cfi_restore_state
.LBB1395:
.LBB1391:
.LBB1385:
.LBB1382:
.LBB1379:
.LBB1374:
.LBB1367:
.LBB1368:
	.loc 4 199 0
	li 0,0
.LBE1368:
.LBE1367:
	.loc 4 209 0
	stw 28,-12(9)
.LVL192:
.LBB1370:
.LBB1369:
	.loc 4 199 0
	stw 0,-4(9)
.LBE1369:
.LBE1370:
.LBB1371:
.LBB1372:
	.loc 6 245 0
	stbx 0,9,28
	b .L167
.LBE1372:
.LBE1371:
.LBE1374:
.LBE1379:
.LBE1382:
.LBE1385:
.LBE1391:
.LBE1395:
	.cfi_endproc
.LFE1226:
	.size	_ZN9TiXmlBase16StreamWhiteSpaceEPSiPSs, .-_ZN9TiXmlBase16StreamWhiteSpaceEPSiPSs
	.align 2
	.globl _ZN9TiXmlBase8StreamToEPSiiPSs
	.type	_ZN9TiXmlBase8StreamToEPSiiPSs, @function
_ZN9TiXmlBase8StreamToEPSiiPSs:
.LFB1227:
	.loc 2 381 0
	.cfi_startproc
.LVL193:
	mflr 0
	stwu 1,-32(1)
.LCFI41:
	.cfi_def_cfa_offset 32
	.cfi_register 65, 0
	stw 29,20(1)
	mr 29,5
	.cfi_offset 29, -12
	stw 30,24(1)
	mr 30,4
	.cfi_offset 30, -8
	stw 31,28(1)
	mr 31,3
	.cfi_offset 31, -4
	stw 0,36(1)
	stw 27,12(1)
	stw 28,16(1)
.LBB1435:
	.loc 2 383 0
	b .L184
	.cfi_offset 28, -16
	.cfi_offset 27, -20
	.cfi_offset 65, 4
.LVL194:
.L179:
.LBB1436:
	.loc 2 385 0
	bl _ZNSi4peekEv
.LVL195:
	mr 27,3
.LVL196:
	.loc 2 391 0
	mr 3,31
.LVL197:
	.loc 2 386 0
	cmpw 7,27,30
	.loc 2 388 0
	cmpwi 6,27,0
	.loc 2 392 0
	rlwinm 27,27,0,0xff
.LVL198:
	.loc 2 386 0
	beq- 7,.L180
	.loc 2 388 0
	ble- 6,.L181
	.loc 2 391 0
	bl _ZNSi3getEv
.LVL199:
.LBB1437:
.LBB1438:
.LBB1439:
.LBB1440:
.LBB1441:
.LBB1442:
.LBB1443:
.LBB1444:
	.loc 4 288 0
	lwz 9,0(29)
.LBE1444:
.LBE1443:
.LBE1442:
.LBE1441:
.LBE1440:
	.loc 4 1047 0
	mr 3,29
.LBB1446:
.LBB1445:
	.loc 4 711 0
	lwz 11,-12(9)
.LBE1445:
.LBE1446:
	.loc 4 1046 0
	lwz 0,-8(9)
	.loc 4 1045 0
	addi 28,11,1
.LVL200:
	.loc 4 1046 0
	cmplw 7,28,0
	.loc 4 1047 0
	mr 4,28
	.loc 4 1046 0
	bgt- 7,.L176
.LVL201:
	lwz 0,-4(9)
	cmpwi 7,0,0
	ble- 7,.L177
.L176:
	.loc 4 1047 0
	bl _ZNSs7reserveEj
	lwz 9,0(29)
	lwz 11,-12(9)
.L177:
.LVL202:
.LBB1447:
.LBB1448:
	.loc 6 245 0
	stbx 27,9,11
.LVL203:
.LBE1448:
.LBE1447:
.LBB1449:
.LBB1450:
	.loc 4 205 0
	lis 10,_ZNSs4_Rep20_S_empty_rep_storageE@ha
	la 0,_ZNSs4_Rep20_S_empty_rep_storageE@l(10)
.LBE1450:
.LBE1449:
.LBB1459:
.LBB1460:
.LBB1461:
	.loc 4 288 0
	lwz 9,0(29)
.LVL204:
.LBE1461:
.LBE1460:
.LBE1459:
	.loc 4 1049 0
	addi 11,9,-12
.LBB1462:
.LBB1457:
	.loc 4 205 0
	cmpw 7,11,0
	bne- 7,.L185
.LVL205:
.L184:
.LBE1457:
.LBE1462:
.LBE1439:
.LBE1438:
.LBE1437:
.LBE1436:
	.loc 2 383 0 discriminator 1
	lwz 9,0(31)
.LBB1467:
	.loc 2 385 0 discriminator 1
	mr 3,31
.LBE1467:
.LBB1468:
	.loc 2 1638 0 discriminator 1
	lwz 9,-12(9)
	add 9,31,9
.LBE1468:
	.loc 2 383 0 discriminator 1
	lwz 0,20(9)
	cmpwi 7,0,0
	beq+ 7,.L179
.LVL206:
.L181:
.LBE1435:
	.loc 2 395 0
	lwz 0,36(1)
.LBB1472:
.LBB1469:
	.loc 2 389 0
	li 3,0
.LBE1469:
.LBE1472:
	.loc 2 395 0
	lwz 27,12(1)
	mtlr 0
	lwz 28,16(1)
	lwz 29,20(1)
.LVL207:
	lwz 30,24(1)
.LVL208:
	lwz 31,28(1)
.LVL209:
	addi 1,1,32
	.cfi_remember_state
.LCFI42:
	.cfi_def_cfa_offset 0
	.cfi_restore 31
	.cfi_restore 30
	.cfi_restore 29
	.cfi_restore 28
	.cfi_restore 27
	blr
.LVL210:
.L180:
.LCFI43:
	.cfi_restore_state
	lwz 0,36(1)
.LBB1473:
.LBB1470:
	.loc 2 387 0
	li 3,1
.LVL211:
.LBE1470:
.LBE1473:
	.loc 2 395 0
	lwz 27,12(1)
	mtlr 0
	lwz 28,16(1)
	lwz 29,20(1)
.LVL212:
	lwz 30,24(1)
.LVL213:
	lwz 31,28(1)
.LVL214:
	addi 1,1,32
	.cfi_remember_state
	.cfi_restore 27
	.cfi_restore 28
	.cfi_restore 29
	.cfi_restore 30
	.cfi_restore 31
.LCFI44:
	.cfi_def_cfa_offset 0
	blr
.LVL215:
.L185:
.LCFI45:
	.cfi_restore_state
.LBB1474:
.LBB1471:
.LBB1466:
.LBB1465:
.LBB1464:
.LBB1463:
.LBB1458:
.LBB1451:
.LBB1452:
	.loc 4 199 0
	li 0,0
.LBE1452:
.LBE1451:
	.loc 4 209 0
	stw 28,-12(9)
.LVL216:
.LBB1454:
.LBB1453:
	.loc 4 199 0
	stw 0,-4(9)
.LBE1453:
.LBE1454:
.LBB1455:
.LBB1456:
	.loc 6 245 0
	stbx 0,9,28
	b .L184
.LBE1456:
.LBE1455:
.LBE1458:
.LBE1463:
.LBE1464:
.LBE1465:
.LBE1466:
.LBE1471:
.LBE1474:
	.cfi_endproc
.LFE1227:
	.size	_ZN9TiXmlBase8StreamToEPSiiPSs, .-_ZN9TiXmlBase8StreamToEPSiiPSs
	.align 2
	.globl _ZN9TiXmlBase8ReadNameEPKcPSs13TiXmlEncoding
	.type	_ZN9TiXmlBase8ReadNameEPKcPSs13TiXmlEncoding, @function
_ZN9TiXmlBase8ReadNameEPKcPSs13TiXmlEncoding:
.LFB1228:
	.loc 2 402 0
	.cfi_startproc
.LVL217:
	stwu 1,-32(1)
.LCFI46:
	.cfi_def_cfa_offset 32
	mflr 0
.LBB1488:
.LBB1489:
.LBB1490:
.LBB1491:
	.loc 4 1121 0
	li 5,0
.LVL218:
.LBE1491:
.LBE1490:
.LBE1489:
.LBE1488:
	.loc 2 402 0
	stw 29,20(1)
	mr 29,4
	.cfi_offset 29, -12
	.cfi_register 65, 0
.LVL219:
.LBB1514:
.LBB1500:
.LBB1496:
.LBB1492:
	.loc 4 1121 0
	lis 4,.LC7@ha
.LVL220:
.LBE1492:
.LBE1496:
.LBE1500:
.LBE1514:
	.loc 2 402 0
	stw 31,28(1)
.LBB1515:
.LBB1501:
.LBB1497:
.LBB1493:
	.loc 4 1121 0
	la 4,.LC7@l(4)
.LBE1493:
.LBE1497:
.LBE1501:
.LBE1515:
	.loc 2 402 0
	mr 31,3
	.cfi_offset 31, -4
.LBB1516:
.LBB1502:
.LBB1498:
.LBB1494:
	.loc 4 1121 0
	mr 3,29
.LVL221:
.LBE1494:
.LBE1498:
.LBE1502:
.LBE1516:
	.loc 2 402 0
	stw 0,36(1)
	stw 27,12(1)
	stw 28,16(1)
	stw 30,24(1)
.LBB1517:
.LBB1503:
.LBB1499:
.LBB1495:
	.loc 4 1121 0
	.cfi_offset 30, -8
	.cfi_offset 28, -16
	.cfi_offset 27, -20
	.cfi_offset 65, 4
	bl _ZNSs6assignEPKcj
.LBE1495:
.LBE1499:
.LBE1503:
	.loc 2 407 0
	cmpwi 7,31,0
	beq- 7,.L196
.LBB1504:
	.loc 2 416 0 discriminator 1
	lbz 28,0(31)
	.loc 2 435 0 discriminator 1
	li 30,0
	.loc 2 416 0 discriminator 1
	cmpwi 7,28,0
	beq- 7,.L188
.LVL222:
.LBB1505:
.LBB1506:
	.loc 2 138 0 discriminator 3
	cmplwi 7,28,126
	bgt- 7,.L189
	.loc 2 139 0
	mr 3,28
	bl isalpha
.LBE1506:
.LBE1505:
	.loc 2 416 0
	cmpwi 7,3,0
	bne- 7,.L189
	.loc 2 416 0 is_stmt 0 discriminator 5
	cmpwi 7,28,95
	beq- 7,.L189
.LVL223:
.L188:
.LBE1504:
.LBE1517:
	.loc 2 436 0 is_stmt 1
	lwz 0,36(1)
	mr 3,30
	lwz 27,12(1)
	mtlr 0
	lwz 28,16(1)
	lwz 29,20(1)
.LVL224:
	lwz 30,24(1)
	lwz 31,28(1)
	addi 1,1,32
	.cfi_remember_state
.LCFI47:
	.cfi_def_cfa_offset 0
	.cfi_restore 31
	.cfi_restore 30
	.cfi_restore 29
	.cfi_restore 28
	.cfi_restore 27
	blr
.LVL225:
.L189:
.LCFI48:
	.cfi_restore_state
.LBB1518:
.LBB1511:
	.loc 2 416 0 discriminator 4
	mr 27,31
.LBE1511:
.LBE1518:
	.loc 2 401 0 discriminator 4
	mr 30,31
.LVL226:
.L190:
.LBB1519:
.LBB1512:
.LBB1507:
.LBB1508:
.LBB1509:
	.loc 2 159 0 discriminator 4
	cmplwi 7,28,126
	bgt- 7,.L192
	.loc 2 160 0
	mr 3,28
	bl isalnum
.LBE1509:
.LBE1508:
	.loc 2 420 0
	cmpwi 7,3,0
	bne- 7,.L192
	.loc 2 420 0 is_stmt 0 discriminator 6
	cmpwi 7,28,95
	beq- 7,.L192
	.loc 2 420 0 discriminator 7
	cmpwi 7,28,45
	beq- 7,.L192
	.loc 2 420 0 discriminator 8
	cmpwi 7,28,46
	beq- 7,.L192
	.loc 2 420 0 discriminator 9
	cmpwi 7,28,58
	beq- 7,.L192
.LVL227:
.L191:
	.loc 2 430 0 is_stmt 1
	subf. 5,31,30
	ble- 0,.L188
	.loc 2 431 0
	mr 3,29
	mr 4,31
	bl _ZNSs6assignEPKcj
.LBE1507:
.LBE1512:
.LBE1519:
	.loc 2 436 0
	lwz 0,36(1)
	mr 3,30
	lwz 27,12(1)
	mtlr 0
	lwz 28,16(1)
	lwz 29,20(1)
.LVL228:
	lwz 30,24(1)
.LVL229:
	lwz 31,28(1)
	addi 1,1,32
	.cfi_remember_state
	.cfi_restore 27
	.cfi_restore 28
	.cfi_restore 29
	.cfi_restore 30
	.cfi_restore 31
.LCFI49:
	.cfi_def_cfa_offset 0
	blr
.LVL230:
.L192:
.LCFI50:
	.cfi_restore_state
.LBB1520:
.LBB1513:
.LBB1510:
	.loc 2 420 0 discriminator 10
	addic. 30,30,1
.LVL231:
	beq- 0,.L191
	.loc 2 420 0 is_stmt 0 discriminator 2
	lbzu 28,1(27)
.LVL232:
	cmpwi 7,28,0
	beq- 7,.L191
	b .L190
.LVL233:
.L196:
.LBE1510:
.LBE1513:
	.loc 2 407 0 is_stmt 1 discriminator 1
	lis 5,.LANCHOR1@ha
	lis 3,.LC1@ha
	la 5,.LANCHOR1@l(5)
	lis 6,.LC3@ha
	la 3,.LC1@l(3)
	li 4,407
	addi 5,5,1112
	la 6,.LC3@l(6)
	bl __assert_func
.LBE1520:
	.cfi_endproc
.LFE1228:
	.size	_ZN9TiXmlBase8ReadNameEPKcPSs13TiXmlEncoding, .-_ZN9TiXmlBase8ReadNameEPKcPSs13TiXmlEncoding
	.align 2
	.globl _ZN9TiXmlBase9GetEntityEPKcPcPi13TiXmlEncoding
	.type	_ZN9TiXmlBase9GetEntityEPKcPcPi13TiXmlEncoding, @function
_ZN9TiXmlBase9GetEntityEPKcPcPi13TiXmlEncoding:
.LFB1229:
	.loc 2 439 0
	.cfi_startproc
	.cfi_personality 0,__gxx_personality_v0
	.cfi_lsda 0,.LLSDA1229
.LVL234:
	stwu 1,-64(1)
.LCFI51:
	.cfi_def_cfa_offset 64
.LVL235:
	mflr 0
	stw 27,44(1)
.LBB1555:
	.loc 2 443 0
	li 27,0
	.cfi_offset 27, -20
	.cfi_register 65, 0
.LBE1555:
	.loc 2 439 0
	stw 28,48(1)
.LBB1603:
.LBB1556:
.LBB1557:
.LBB1558:
	.loc 4 270 0
	lis 28,_ZNSs4_Rep20_S_empty_rep_storageE+12@ha
	.cfi_offset 28, -16
.LBE1558:
.LBE1557:
.LBE1556:
.LBE1603:
	.loc 2 439 0
	stw 29,52(1)
.LBB1604:
.LBB1563:
.LBB1561:
.LBB1559:
	.loc 4 270 0
	la 28,_ZNSs4_Rep20_S_empty_rep_storageE+12@l(28)
.LBE1559:
.LBE1561:
.LBE1563:
.LBE1604:
	.loc 2 439 0
	stw 30,56(1)
	mr 29,4
	.cfi_offset 30, -8
	.cfi_offset 29, -12
	stw 31,60(1)
	mr 30,5
	stw 0,68(1)
	mr 31,3
	.cfi_offset 65, 4
	.cfi_offset 31, -4
	stw 24,32(1)
	stw 25,36(1)
	stw 26,40(1)
.LBB1605:
	.loc 2 443 0
	stw 27,0(5)
.LBB1564:
.LBB1562:
.LBB1560:
	.loc 4 270 0
	stw 28,12(1)
.LBE1560:
.LBE1562:
.LBE1564:
.LBB1565:
	.loc 2 445 0
	lbz 0,1(3)
	cmpwi 7,0,35
	beq- 7,.L241
	.cfi_offset 26, -24
	.cfi_offset 25, -28
	.cfi_offset 24, -32
.L200:
.LBE1565:
	.loc 2 517 0
	lis 9,.LANCHOR2@ha
	mr 4,31
.LVL236:
	la 27,.LANCHOR2@l(9)
	lwz 25,.LANCHOR2@l(9)
	lwz 26,4(27)
	mr 3,25
.LVL237:
	mr 5,26
.LVL238:
	bl strncmp
.LVL239:
	cmpwi 7,3,0
	beq- 7,.L223
.LVL240:
	lwz 25,12(27)
	mr 4,31
	lwz 26,16(27)
	mr 3,25
	mr 5,26
	bl strncmp
	cmpwi 7,3,0
	beq- 7,.L224
.LVL241:
	lwz 25,24(27)
	mr 4,31
	lwz 26,28(27)
	mr 3,25
	mr 5,26
	bl strncmp
	cmpwi 7,3,0
	beq- 7,.L225
.LVL242:
	lwz 25,36(27)
	mr 4,31
	lwz 26,40(27)
	mr 3,25
	mr 5,26
	bl strncmp
	cmpwi 7,3,0
	beq- 7,.L226
.LVL243:
	lwz 25,48(27)
	mr 4,31
	lwz 26,52(27)
	mr 3,25
	mr 5,26
	bl strncmp
	cmpwi 7,3,0
	beq- 7,.L242
.LVL244:
	.loc 2 526 0
	lis 3,.LC9@ha
	lbz 4,0(31)
	la 3,.LC9@l(3)
.LEHB0:
	crxor 6,6,6
	bl printf
	.loc 2 528 0
	lbz 0,0(31)
	.loc 2 531 0
	addi 25,31,1
	lwz 9,12(1)
	.loc 2 528 0
	stb 0,0(29)
	.loc 2 529 0
	li 0,1
	stw 0,0(30)
.LVL245:
.L205:
.LBB1581:
.LBB1582:
.LBB1583:
.LBB1584:
.LBB1585:
	.loc 4 235 0
	lis 11,_ZNSs4_Rep20_S_empty_rep_storageE@ha
.LBE1585:
.LBE1584:
	.loc 4 534 0
	addi 3,9,-12
.LVL246:
.LBB1594:
.LBB1592:
	.loc 4 235 0
	la 0,_ZNSs4_Rep20_S_empty_rep_storageE@l(11)
	cmpw 7,3,0
	bne- 7,.L243
.LVL247:
.L221:
.LBE1592:
.LBE1594:
.LBE1583:
.LBE1582:
.LBE1581:
.LBE1605:
	.loc 2 532 0
	lwz 0,68(1)
	mr 3,25
	lwz 24,32(1)
	mtlr 0
	lwz 25,36(1)
	lwz 26,40(1)
	lwz 27,44(1)
	lwz 28,48(1)
	lwz 29,52(1)
.LVL248:
	lwz 30,56(1)
.LVL249:
	lwz 31,60(1)
.LVL250:
	addi 1,1,64
	.cfi_remember_state
.LCFI52:
	.cfi_def_cfa_offset 0
	.cfi_restore 31
	.cfi_restore 30
	.cfi_restore 29
	.cfi_restore 28
	.cfi_restore 27
	.cfi_restore 26
	.cfi_restore 25
	.cfi_restore 24
	blr
.LVL251:
.L241:
.LCFI53:
	.cfi_restore_state
.LBB1606:
.LBB1598:
	.loc 2 445 0 discriminator 1
	lbz 0,2(3)
	cmpwi 7,0,0
	beq- 7,.L200
.LVL252:
.LBB1566:
.LBB1567:
	.loc 2 451 0
	cmpwi 7,0,120
	beq- 7,.L244
.LVL253:
.LBB1568:
	.loc 2 484 0
	addi 3,3,2
.LVL254:
	li 4,59
.LVL255:
	stw 6,24(1)
	bl strchr
.LVL256:
	.loc 2 486 0
	mr. 10,3
	mr 9,28
	li 25,0
	lwz 6,24(1)
.LVL257:
	beq- 0,.L205
	.loc 2 486 0 is_stmt 0 discriminator 2
	lbz 0,0(10)
	mr 25,27
	cmpwi 7,0,0
	beq- 7,.L205
	.loc 2 491 0 is_stmt 1
	lbz 9,-1(10)
	.loc 2 488 0
	subf 26,31,10
.LVL258:
	.loc 2 491 0
	cmpwi 7,9,35
	beq- 7,.L235
	.loc 2 493 0
	addi 0,9,-48
	rlwinm 9,0,0,0xff
	cmplwi 7,9,9
	mr 9,28
	bgt- 7,.L205
	.loc 2 438 0
	addi 10,10,-1
.LBE1568:
.LBE1567:
.LBE1566:
.LBE1598:
.LBE1606:
	.loc 2 449 0
	li 11,1
	.loc 2 447 0
	li 3,0
.LVL259:
	b .L211
.LVL260:
.L212:
.LBB1607:
.LBB1599:
.LBB1578:
.LBB1574:
.LBB1569:
	.loc 2 493 0
	addi 0,9,-48
	rlwinm 9,0,0,0xff
	cmplwi 7,9,9
	bgt- 7,.L237
.LVL261:
.L211:
	.loc 2 491 0
	lbzu 9,-1(10)
	.loc 2 494 0
	mullw 0,0,11
	.loc 2 491 0
	cmpwi 7,9,35
	.loc 2 494 0
	add 3,3,0
.LVL262:
	.loc 2 497 0
	mulli 11,11,10
.LVL263:
	.loc 2 491 0
	bne+ 7,.L212
.LVL264:
.L206:
.LBE1569:
.LBE1574:
	.loc 2 501 0
	cmpwi 7,6,1
	beq- 7,.L245
	.loc 2 509 0
	li 0,1
	.loc 2 508 0
	stb 3,0(29)
	.loc 2 509 0
	stw 0,0(30)
	mr 9,28
.LVL265:
.L214:
	.loc 2 511 0
	addi 26,26,1
.LVL266:
	add 25,31,26
	b .L205
.LVL267:
.L237:
.LBB1575:
.LBB1570:
	.loc 2 493 0
	mr 9,28
	.loc 2 496 0
	li 25,0
	b .L205
.LVL268:
.L244:
.LBE1570:
.LBB1571:
	.loc 2 454 0
	lbz 0,3(3)
	mr 9,28
	li 25,0
	cmpwi 7,0,0
	beq- 7,.L205
.LVL269:
	.loc 2 457 0
	addi 3,3,3
	li 4,59
	stw 6,24(1)
	bl strchr
.LVL270:
	.loc 2 459 0
	mr. 10,3
	mr 9,28
	mr 25,27
	lwz 6,24(1)
.LVL271:
	beq- 0,.L205
	.loc 2 459 0 is_stmt 0 discriminator 2
	lbz 0,0(10)
	cmpwi 7,0,0
	beq- 7,.L205
	.loc 2 464 0 is_stmt 1
	lbz 9,-1(10)
	.loc 2 461 0
	subf 26,31,10
.LVL272:
	.loc 2 464 0
	cmpwi 7,9,120
	beq- 7,.L235
	.loc 2 438 0
	addi 10,10,-1
.LBE1571:
.LBE1575:
.LBE1578:
.LBE1599:
.LBE1607:
	.loc 2 449 0
	li 0,1
	.loc 2 447 0
	li 3,0
.LVL273:
	b .L210
.LVL274:
.L246:
.LBB1608:
.LBB1600:
.LBB1579:
.LBB1576:
.LBB1572:
	.loc 2 467 0
	mullw 11,11,0
	add 3,3,11
.LVL275:
.L208:
	.loc 2 464 0
	lbzu 9,-1(10)
	.loc 2 474 0
	slwi 0,0,4
.LVL276:
	.loc 2 464 0
	cmpwi 7,9,120
	beq- 7,.L206
.LVL277:
.L210:
	.loc 2 466 0
	addi 11,9,-48
	rlwinm 8,11,0,0xff
	cmplwi 7,8,9
	ble- 7,.L246
	.loc 2 468 0
	addi 11,9,-97
	rlwinm 11,11,0,0xff
	cmplwi 7,11,5
	bgt- 7,.L209
	.loc 2 469 0
	addi 9,9,-87
	mullw 9,9,0
	add 3,3,9
.LVL278:
	b .L208
.LVL279:
.L209:
	.loc 2 470 0
	addi 11,9,-65
	rlwinm 11,11,0,0xff
	cmplwi 7,11,5
	bgt- 7,.L237
	.loc 2 471 0
	addi 9,9,-55
	mullw 9,9,0
	add 3,3,9
.LVL280:
	b .L208
.LVL281:
.L223:
.LBE1572:
.LBE1576:
.LBE1579:
.LBE1600:
	.loc 2 517 0
	li 24,0
.L202:
	.loc 2 519 0
	mr 3,25
	bl strlen
	cmpw 7,3,26
	bne- 7,.L247
	.loc 2 520 0
	mulli 24,24,12
	.loc 2 522 0
	mr 9,28
	.loc 2 520 0
	add 27,27,24
	lbz 0,8(27)
	stb 0,0(29)
	.loc 2 521 0
	li 0,1
	stw 0,0(30)
	.loc 2 522 0
	lwz 25,4(27)
	add 25,31,25
	b .L205
.LVL282:
.L224:
	.loc 2 515 0
	li 24,1
	b .L202
.LVL283:
.L225:
	li 24,2
	b .L202
.LVL284:
.L226:
	li 24,3
	b .L202
.LVL285:
.L242:
	.loc 2 517 0
	li 24,4
	b .L202
.LVL286:
.L245:
.LBB1601:
.LBB1580:
	.loc 2 504 0
	mr 4,29
	mr 5,30
	bl _ZN9TiXmlBase18ConvertUTF32ToUTF8EmPcPi
.LVL287:
	lwz 9,12(1)
	b .L214
.LVL288:
.L235:
.LBB1577:
.LBB1573:
	.loc 2 447 0
	li 3,0
	b .L206
.LVL289:
.L243:
.LBE1573:
.LBE1577:
.LBE1580:
.LBE1601:
.LBB1602:
.LBB1597:
.LBB1596:
.LBB1595:
.LBB1593:
.LBB1586:
.LBB1587:
.LBB1588:
	.loc 5 66 0
	lwz 11,-4(9)
.LVL290:
.LBE1588:
.LBE1587:
.LBE1586:
	.loc 4 240 0
	cmpwi 7,11,0
.LBB1591:
.LBB1590:
.LBB1589:
	.loc 5 67 0
	addi 11,11,-1
	stw 11,-4(9)
.LBE1589:
.LBE1590:
.LBE1591:
	.loc 4 240 0
	bgt+ 7,.L221
	.loc 4 244 0
	addi 4,1,8
	bl _ZNSs4_Rep10_M_destroyERKSaIcE
.LVL291:
	b .L221
.LVL292:
.L247:
.LBE1593:
.LBE1595:
.LBE1596:
.LBE1597:
.LBE1602:
	.loc 2 519 0 discriminator 1
	lis 5,.LANCHOR1@ha
	lis 3,.LC1@ha
	la 5,.LANCHOR1@l(5)
	lis 6,.LC8@ha
	la 3,.LC1@l(3)
	li 4,519
	addi 5,5,1196
	la 6,.LC8@l(6)
	bl __assert_func
.LEHE0:
.L238:
	mr 31,3
.LVL293:
	.loc 2 531 0
	addi 3,1,12
	bl _ZNSsD1Ev
	mr 3,31
.LEHB1:
	bl _Unwind_Resume
.LEHE1:
.LBE1608:
	.cfi_endproc
.LFE1229:
	.globl __gxx_personality_v0
	.section	.gcc_except_table,"a",@progbits
.LLSDA1229:
	.byte	0xff
	.byte	0xff
	.byte	0x1
	.uleb128 .LLSDACSE1229-.LLSDACSB1229
.LLSDACSB1229:
	.uleb128 .LEHB0-.LFB1229
	.uleb128 .LEHE0-.LEHB0
	.uleb128 .L238-.LFB1229
	.uleb128 0
	.uleb128 .LEHB1-.LFB1229
	.uleb128 .LEHE1-.LEHB1
	.uleb128 0
	.uleb128 0
.LLSDACSE1229:
	.section	".text"
	.size	_ZN9TiXmlBase9GetEntityEPKcPcPi13TiXmlEncoding, .-_ZN9TiXmlBase9GetEntityEPKcPcPi13TiXmlEncoding
	.align 2
	.globl _ZN9TiXmlBase11StringEqualEPKcS1_b13TiXmlEncoding
	.type	_ZN9TiXmlBase11StringEqualEPKcS1_b13TiXmlEncoding, @function
_ZN9TiXmlBase11StringEqualEPKcS1_b13TiXmlEncoding:
.LFB1230:
	.loc 2 539 0
	.cfi_startproc
.LVL294:
.LBB1609:
	.loc 2 540 0
	mr. 9,3
.LBE1609:
	.loc 2 539 0
	mflr 0
	stwu 1,-40(1)
.LCFI54:
	.cfi_def_cfa_offset 40
	.cfi_register 65, 0
	stw 31,36(1)
	mr 31,4
	.cfi_offset 31, -4
	stw 0,44(1)
	stw 27,20(1)
	stw 28,24(1)
	stw 29,28(1)
	stw 30,32(1)
.LBB1630:
	.loc 2 540 0
	beq- 0,.L275
	.cfi_offset 30, -8
	.cfi_offset 29, -12
	.cfi_offset 28, -16
	.cfi_offset 27, -20
	.cfi_offset 65, 4
	.loc 2 541 0
	cmpwi 7,4,0
	beq- 7,.L276
	.loc 2 542 0 discriminator 1
	lbz 3,0(9)
.LVL295:
	cmpwi 7,3,0
	beq- 7,.L277
.LVL296:
	.loc 2 550 0
	cmpwi 7,5,0
	beq- 7,.L278
	.loc 2 552 0 discriminator 1
	lbz 30,0(4)
	.loc 2 559 0 discriminator 1
	li 0,1
	.loc 2 552 0 discriminator 1
	cmpwi 7,30,0
	beq- 7,.L254
	.loc 2 552 0 is_stmt 0
	cmpwi 7,6,1
	mr 28,4
	mr 29,9
	beq- 7,.L256
.LVL297:
.L272:
.LBB1610:
.LBB1611:
	.loc 1 393 0 is_stmt 1
	bl tolower
.LVL298:
	mr 27,3
.LVL299:
.LBE1611:
.LBE1610:
.LBB1618:
.LBB1619:
	mr 3,30
	bl tolower
.LBE1619:
.LBE1618:
	.loc 2 552 0
	cmpw 7,27,3
	beq- 7,.L279
.LVL300:
.L274:
	.loc 2 535 0
	lbz 0,0(31)
.LBE1630:
	.loc 2 573 0
	lwz 27,20(1)
.LBB1631:
	.loc 2 535 0
	cntlzw 0,0
.LBE1631:
	.loc 2 573 0
	lwz 28,24(1)
.LBB1632:
	.loc 2 535 0
	srwi 0,0,5
.LBE1632:
	.loc 2 573 0
	lwz 29,28(1)
	mr 3,0
	lwz 0,44(1)
	lwz 30,32(1)
	mtlr 0
	lwz 31,36(1)
.LVL301:
	addi 1,1,40
	.cfi_remember_state
	.cfi_restore 27
	.cfi_restore 28
	.cfi_restore 29
	.cfi_restore 30
	.cfi_restore 31
.LCFI55:
	.cfi_def_cfa_offset 0
	blr
.LVL302:
.L278:
.LCFI56:
	.cfi_restore_state
.LBB1633:
	.loc 2 563 0 discriminator 1
	lbz 0,0(4)
	cmpwi 7,0,0
	beq- 7,.L270
	.loc 2 563 0 is_stmt 0
	cmpw 7,3,0
	.loc 2 572 0 is_stmt 1
	li 0,0
	.loc 2 563 0
	beq- 7,.L280
.LVL303:
.L254:
.LBE1633:
	.loc 2 573 0
	mr 3,0
	lwz 0,44(1)
	lwz 27,20(1)
	mtlr 0
	lwz 28,24(1)
	lwz 29,28(1)
	lwz 30,32(1)
	lwz 31,36(1)
.LVL304:
	addi 1,1,40
	.cfi_remember_state
.LCFI57:
	.cfi_def_cfa_offset 0
	.cfi_restore 31
	.cfi_restore 30
	.cfi_restore 29
	.cfi_restore 28
	.cfi_restore 27
	blr
.LVL305:
.L256:
.LCFI58:
	.cfi_restore_state
.LBB1634:
.LBB1626:
.LBB1616:
.LBB1612:
.LBB1613:
	.loc 1 388 0 discriminator 4
	cmpwi 7,3,127
.LBE1613:
.LBE1612:
.LBE1616:
.LBE1626:
	.loc 2 552 0 discriminator 4
	mr 29,3
.LVL306:
.LBB1627:
.LBB1617:
.LBB1615:
.LBB1614:
	.loc 1 388 0 discriminator 4
	bgt- 7,.L260
	.loc 1 388 0 is_stmt 0
	stw 9,8(1)
	bl tolower
.LVL307:
	lwz 9,8(1)
	mr 29,3
.LVL308:
.L260:
.LBE1614:
.LBE1615:
.LBE1617:
.LBE1627:
.LBB1628:
.LBB1624:
.LBB1620:
.LBB1621:
	cmpwi 7,30,127
.LBE1621:
.LBE1620:
.LBE1624:
.LBE1628:
	.loc 2 552 0 is_stmt 1
	mr 3,30
.LVL309:
.LBB1629:
.LBB1625:
.LBB1623:
.LBB1622:
	.loc 1 388 0
	bgt- 7,.L261
	stw 9,8(1)
	bl tolower
	lwz 9,8(1)
.L261:
.LBE1622:
.LBE1623:
.LBE1625:
.LBE1629:
	.loc 2 552 0
	cmpw 7,29,3
	bne+ 7,.L274
	.loc 2 552 0 is_stmt 0 discriminator 6
	lbzu 3,1(9)
	.loc 2 555 0 is_stmt 1 discriminator 6
	addi 31,31,1
.LVL310:
	.loc 2 552 0 discriminator 6
	cmpwi 7,3,0
	beq- 7,.L274
	.loc 2 552 0 is_stmt 0 discriminator 2
	lbzu 30,1(28)
.LVL311:
	cmpwi 7,30,0
	bne- 7,.L256
.LVL312:
.L270:
	.loc 2 570 0 is_stmt 1
	li 0,1
.L281:
.LBE1634:
	.loc 2 573 0
	mr 3,0
	lwz 0,44(1)
	lwz 27,20(1)
	mtlr 0
	lwz 28,24(1)
	lwz 29,28(1)
	lwz 30,32(1)
	lwz 31,36(1)
.LVL313:
	addi 1,1,40
	.cfi_remember_state
	.cfi_restore 27
	.cfi_restore 28
	.cfi_restore 29
	.cfi_restore 30
	.cfi_restore 31
.LCFI59:
	.cfi_def_cfa_offset 0
	blr
.LVL314:
.L280:
.LCFI60:
	.cfi_restore_state
.LBB1635:
	.loc 2 563 0
	mr 11,4
.LVL315:
.L265:
	.loc 2 563 0 is_stmt 0 discriminator 6
	lbzu 0,1(9)
	.loc 2 566 0 is_stmt 1 discriminator 6
	addi 31,31,1
.LVL316:
	.loc 2 563 0 discriminator 6
	cmpwi 7,0,0
	beq- 7,.L274
	.loc 2 563 0 is_stmt 0 discriminator 2
	lbzu 10,1(11)
	cmpwi 7,10,0
	beq- 7,.L270
	.loc 2 563 0 discriminator 4
	cmpw 7,0,10
	beq- 7,.L265
	.loc 2 572 0 is_stmt 1
	li 0,0
	b .L254
.LVL317:
.L279:
	.loc 2 552 0
	lbzu 3,1(29)
	.loc 2 555 0
	addi 31,31,1
.LVL318:
	.loc 2 552 0
	cmpwi 7,3,0
	beq- 7,.L274
	lbzu 30,1(28)
.LVL319:
	cmpwi 7,30,0
	bne- 7,.L272
	.loc 2 570 0
	li 0,1
	b .L281
.LVL320:
.L275:
	.loc 2 540 0 discriminator 1
	lis 5,.LANCHOR1@ha
.LVL321:
	lis 3,.LC1@ha
.LVL322:
	la 5,.LANCHOR1@l(5)
	lis 6,.LC3@ha
.LVL323:
	la 3,.LC1@l(3)
	li 4,540
.LVL324:
	addi 5,5,1280
	la 6,.LC3@l(6)
	bl __assert_func
.LVL325:
.L277:
	.loc 2 544 0
	lis 5,.LANCHOR1@ha
.LVL326:
	lis 3,.LC1@ha
	la 5,.LANCHOR1@l(5)
	lis 6,.LC11@ha
.LVL327:
	la 3,.LC1@l(3)
	li 4,544
	addi 5,5,1280
	la 6,.LC11@l(6)
	bl __assert_func
.LVL328:
.L276:
	.loc 2 541 0 discriminator 1
	lis 5,.LANCHOR1@ha
.LVL329:
	lis 3,.LC1@ha
.LVL330:
	la 5,.LANCHOR1@l(5)
	lis 6,.LC10@ha
.LVL331:
	la 3,.LC1@l(3)
	li 4,541
	addi 5,5,1280
	la 6,.LC10@l(6)
	bl __assert_func
.LVL332:
.LBE1635:
	.cfi_endproc
.LFE1230:
	.size	_ZN9TiXmlBase11StringEqualEPKcS1_b13TiXmlEncoding, .-_ZN9TiXmlBase11StringEqualEPKcS1_b13TiXmlEncoding
	.align 2
	.type	_ZN9TiXmlBase8ReadTextEPKcPSsbS1_b13TiXmlEncoding.constprop.26, @function
_ZN9TiXmlBase8ReadTextEPKcPSsbS1_b13TiXmlEncoding.constprop.26:
.LFB1342:
	.loc 2 575 0
	.cfi_startproc
.LVL333:
	stwu 1,-56(1)
.LCFI61:
	.cfi_def_cfa_offset 56
	mflr 0
	mfcr 12
	stw 30,48(1)
	mr 30,4
	.cfi_offset 30, -8
	.cfi_register 70, 12
	.cfi_register 65, 0
.LVL334:
.LBB1754:
.LBB1755:
.LBB1756:
.LBB1757:
	.loc 4 1121 0
	lis 4,.LC7@ha
.LVL335:
.LBE1757:
.LBE1756:
.LBE1755:
.LBE1754:
	.loc 2 575 0
	stw 28,40(1)
	stw 31,52(1)
	mr 28,5
	.cfi_offset 31, -4
	.cfi_offset 28, -16
	mr 31,3
.LBB1896:
.LBB1762:
.LBB1760:
.LBB1758:
	.loc 4 1121 0
	la 4,.LC7@l(4)
	mr 3,30
.LVL336:
	li 5,0
.LVL337:
.LBE1758:
.LBE1760:
.LBE1762:
.LBE1896:
	.loc 2 575 0
	stw 27,36(1)
	mr 27,7
	.cfi_offset 27, -20
	stw 29,44(1)
	mr 29,6
	.cfi_offset 29, -12
	stw 0,60(1)
	stw 26,32(1)
	stw 12,28(1)
.LBB1897:
.LBB1763:
.LBB1761:
.LBB1759:
	.loc 4 1121 0
	.cfi_offset 70, -28
	.cfi_offset 26, -24
	.cfi_offset 65, 4
	bl _ZNSs6assignEPKcj
.LVL338:
.LBE1759:
.LBE1761:
.LBE1763:
.LBB1764:
	.loc 2 583 0
	cmpwi 7,28,0
	beq- 7,.L283
	lis 9,_ZN9TiXmlBase18condenseWhiteSpaceE@ha
	lbz 0,_ZN9TiXmlBase18condenseWhiteSpaceE@l(9)
	cmpwi 7,0,0
	bne- 7,.L284
.LVL339:
.L283:
.LBB1765:
	.loc 2 587 0
	cmpwi 4,31,0
	beq- 4,.L298
.LVL340:
.L342:
	lbz 0,0(31)
	cmpwi 7,0,0
	bne- 7,.L343
.LVL341:
.L298:
.LBE1765:
.LBE1764:
	.loc 2 635 0
	beq- 4,.L322
	lbz 0,0(31)
	cmpwi 7,0,0
	beq- 7,.L323
	.loc 2 636 0
	mr 3,29
	bl strlen
.LVL342:
	.loc 2 637 0
	add. 31,31,3
.LVL343:
	beq- 0,.L322
	lbz 0,0(31)
	cmpwi 7,0,0
	beq- 7,.L323
.L322:
.LBE1897:
	.loc 2 638 0
	lwz 0,60(1)
	mr 3,31
	lwz 12,28(1)
	mtlr 0
	lwz 26,32(1)
	lwz 27,36(1)
.LVL344:
	mtcrf 8,12
	lwz 28,40(1)
	lwz 29,44(1)
.LVL345:
	lwz 30,48(1)
.LVL346:
	lwz 31,52(1)
.LVL347:
	addi 1,1,56
	.cfi_remember_state
.LCFI62:
	.cfi_def_cfa_offset 0
	.cfi_restore 70
	.cfi_restore 31
	.cfi_restore 30
	.cfi_restore 29
	.cfi_restore 28
	.cfi_restore 27
	.cfi_restore 26
	blr
.LVL348:
.L343:
.LCFI63:
	.cfi_restore_state
.LBB1898:
.LBB1892:
.LBB1789:
	.loc 2 588 0
	mr 3,31
	mr 4,29
	li 5,0
	mr 6,27
	bl _ZN9TiXmlBase11StringEqualEPKcS1_b13TiXmlEncoding
	.loc 2 587 0
	cmpwi 0,3,0
	bne- 0,.L298
.LBB1766:
.LBB1767:
.LBB1768:
	.loc 1 332 0
	cmpwi 7,27,1
.LBE1768:
.LBE1767:
	.loc 2 592 0
	stw 3,8(1)
.LVL349:
.LBB1781:
.LBB1775:
	.loc 1 332 0
	beq- 7,.L344
	.loc 1 339 0
	li 0,1
	stw 0,12(1)
.L288:
.LBB1769:
	.loc 1 344 0
	lbz 0,0(31)
	cmpwi 7,0,38
	beq- 7,.L345
	.loc 1 346 0
	mr 28,1
	.loc 1 347 0
	addi 31,31,1
.LVL350:
	.loc 1 346 0
	stbu 0,8(28)
.LVL351:
.L291:
.LBE1769:
.LBE1775:
.LBE1781:
.LBE1766:
	.loc 2 587 0
	cmpwi 4,31,0
.LBB1785:
	.loc 2 594 0
	lwz 5,12(1)
	mr 3,30
	mr 4,28
	bl _ZNSs6appendEPKcj
.LVL352:
.LBE1785:
	.loc 2 587 0
	bne+ 4,.L342
	b .L298
.LVL353:
.L344:
.LBB1786:
.LBB1782:
.LBB1776:
	.loc 1 334 0
	lbz 9,0(31)
	lis 5,.LANCHOR1@ha
	la 5,.LANCHOR1@l(5)
	slwi 9,9,2
	add 9,5,9
	lwz 9,88(9)
	.loc 1 335 0
	cmplwi 7,9,4
	.loc 1 334 0
	stw 9,12(1)
	.loc 1 335 0
	bgt- 7,.L346
.LBB1773:
	.loc 1 342 0
	cmpwi 7,9,1
	beq- 7,.L288
.LBB1770:
	.loc 1 349 0
	cmpwi 7,9,0
	beq- 7,.L292
.LVL354:
.LBB1771:
.LBB1772:
	.loc 1 353 0
	lbz 0,0(31)
	li 10,0
	li 11,0
	mr 8,9
	cmpwi 7,0,0
	beq- 7,.L294
.LVL355:
.L337:
	.loc 1 354 0
	add 10,1,10
	.loc 1 353 0
	addi 11,11,1
.LVL356:
	.loc 1 354 0
	stb 0,8(10)
	.loc 1 353 0
	mr 10,11
	lbzx 0,31,11
	cmpwi 7,0,0
	beq- 7,.L294
	addic. 8,8,-1
	bne- 0,.L337
.LVL357:
.L294:
.LBE1772:
	.loc 1 356 0
	add 31,31,9
.LVL358:
	addi 28,1,8
	b .L291
.LVL359:
.L292:
.LBE1771:
.LBE1770:
.LBE1773:
.LBE1776:
.LBE1782:
	.loc 2 594 0
	mr 3,30
	addi 4,1,8
	li 5,0
	.loc 1 361 0
	li 31,0
.LVL360:
	.loc 2 594 0
	bl _ZNSs6appendEPKcj
.LVL361:
.LBE1786:
.LBE1789:
.LBE1892:
.LBE1898:
	.loc 2 638 0
	lwz 0,60(1)
	lwz 12,28(1)
	mr 3,31
	mtlr 0
	lwz 26,32(1)
	lwz 27,36(1)
.LVL362:
	mtcrf 8,12
	lwz 28,40(1)
	lwz 29,44(1)
.LVL363:
	lwz 30,48(1)
.LVL364:
	lwz 31,52(1)
	addi 1,1,56
	.cfi_remember_state
	.cfi_restore 26
	.cfi_restore 27
	.cfi_restore 28
	.cfi_restore 29
	.cfi_restore 30
	.cfi_restore 31
	.cfi_restore 70
.LCFI64:
	.cfi_def_cfa_offset 0
	blr
.LVL365:
.L345:
.LCFI65:
	.cfi_restore_state
.LBB1899:
.LBB1893:
.LBB1790:
.LBB1787:
.LBB1783:
.LBB1777:
.LBB1774:
	.loc 1 345 0
	addi 28,1,8
	mr 3,31
	mr 4,28
	addi 5,1,12
	mr 6,27
	bl _ZN9TiXmlBase9GetEntityEPKcPcPi13TiXmlEncoding
	mr 31,3
.LVL366:
	b .L291
.LVL367:
.L323:
.LBE1774:
.LBE1777:
.LBE1783:
.LBE1787:
.LBE1790:
.LBE1893:
.LBE1899:
	.loc 2 638 0
	lwz 0,60(1)
.LBB1900:
.LBB1894:
.LBB1791:
	.loc 2 637 0
	li 31,0
.LVL368:
.LBE1791:
.LBE1894:
.LBE1900:
	.loc 2 638 0
	lwz 12,28(1)
	mr 3,31
	mtlr 0
	lwz 26,32(1)
	lwz 27,36(1)
.LVL369:
	mtcrf 8,12
	lwz 28,40(1)
	lwz 29,44(1)
.LVL370:
	lwz 30,48(1)
.LVL371:
	lwz 31,52(1)
	addi 1,1,56
	.cfi_remember_state
	.cfi_restore 26
	.cfi_restore 27
	.cfi_restore 28
	.cfi_restore 29
	.cfi_restore 30
	.cfi_restore 31
	.cfi_restore 70
.LCFI66:
	.cfi_def_cfa_offset 0
	blr
.LVL372:
.L284:
.LCFI67:
	.cfi_restore_state
.LBB1901:
.LBB1895:
.LBB1890:
	.loc 2 602 0
	mr 3,31
	mr 4,27
	bl _ZN9TiXmlBase14SkipWhiteSpaceEPKc13TiXmlEncoding
.LVL373:
	.loc 2 603 0
	cmpwi 4,3,0
	mr 31,3
	beq- 4,.L298
	lbz 0,0(3)
	cmpwi 7,0,0
	beq+ 7,.L298
	li 28,0
.LVL374:
.L300:
	.loc 2 604 0
	mr 3,31
	mr 4,29
	li 5,0
	mr 6,27
	bl _ZN9TiXmlBase11StringEqualEPKcS1_b13TiXmlEncoding
	.loc 2 603 0
	cmpwi 7,3,0
	bne- 7,.L298
.LBB1792:
	.loc 2 606 0
	lbz 3,0(31)
	cmpwi 7,3,13
	beq- 7,.L303
	cmpwi 7,3,10
	beq- 7,.L303
.LVL375:
.LBB1793:
.LBB1794:
.LBB1795:
	.loc 1 294 0
	bl isspace
.LVL376:
	cmpwi 7,3,0
	bne- 7,.L303
.LBE1795:
.LBE1794:
.LBB1796:
	.loc 2 620 0
	cmpwi 7,28,0
	bne- 7,.L347
.L305:
.LVL377:
.LBB1797:
.LBB1798:
	.loc 1 332 0
	cmpwi 7,27,1
.LBE1798:
.LBE1797:
	.loc 2 626 0
	li 0,0
	stw 0,8(1)
.LVL378:
.LBB1816:
.LBB1809:
	.loc 1 332 0
	beq- 7,.L348
	.loc 1 339 0
	li 0,1
	stw 0,12(1)
.L310:
.LBB1799:
	.loc 1 344 0
	lbz 0,0(31)
	cmpwi 7,0,38
	beq- 7,.L349
	.loc 1 346 0
	stb 0,8(1)
	.loc 1 347 0
	addi 31,31,1
.LVL379:
.L313:
.LBE1799:
.LBE1809:
.LBE1816:
.LBB1817:
.LBB1818:
.LBB1819:
.LBB1820:
.LBB1821:
.LBB1822:
.LBB1823:
	.loc 6 245 0
	lwz 5,12(1)
.LBE1823:
.LBE1822:
.LBE1821:
.LBE1820:
.LBE1819:
.LBE1818:
.LBE1817:
	.loc 2 628 0
	cmpwi 7,5,1
	beq- 7,.L350
.L314:
	.loc 2 631 0
	mr 3,30
	addi 4,1,8
.LVL380:
	bl _ZNSs6appendEPKcj
.LVL381:
	li 28,0
.LVL382:
.L302:
.LBE1796:
.LBE1793:
.LBE1792:
	.loc 2 603 0
	cmpwi 4,31,0
	beq- 4,.L298
	lbz 0,0(31)
	cmpwi 7,0,0
	beq+ 7,.L298
	b .L300
.LVL383:
.L303:
.LBB1889:
.LBB1888:
	.loc 2 614 0
	addi 31,31,1
.LVL384:
	.loc 2 613 0
	li 28,1
	b .L302
.LVL385:
.L347:
.LBB1887:
.LBB1854:
.LBB1855:
.LBB1856:
.LBB1857:
.LBB1858:
.LBB1859:
.LBB1860:
.LBB1861:
	.loc 4 288 0
	lwz 9,0(30)
.LBE1861:
.LBE1860:
.LBE1859:
	.loc 4 711 0
	lwz 11,-12(9)
.LBE1858:
.LBE1857:
	.loc 4 1046 0
	lwz 0,-8(9)
	.loc 4 1045 0
	addi 28,11,1
.LVL386:
	.loc 4 1046 0
	cmplw 7,28,0
	bgt- 7,.L306
.LVL387:
	lwz 0,-4(9)
	cmpwi 7,0,0
	ble- 7,.L307
.L306:
	.loc 4 1047 0
	mr 3,30
	mr 4,28
	bl _ZNSs7reserveEj
	lwz 9,0(30)
	lwz 11,-12(9)
.L307:
.LVL388:
.LBB1862:
.LBB1863:
	.loc 6 245 0
	li 0,32
.LBE1863:
.LBE1862:
.LBB1865:
.LBB1866:
	.loc 4 205 0
	lis 10,_ZNSs4_Rep20_S_empty_rep_storageE@ha
.LBE1866:
.LBE1865:
.LBB1875:
.LBB1864:
	.loc 6 245 0
	stbx 0,9,11
.LVL389:
.LBE1864:
.LBE1875:
.LBB1876:
.LBB1873:
	.loc 4 205 0
	la 0,_ZNSs4_Rep20_S_empty_rep_storageE@l(10)
.LBE1873:
.LBE1876:
.LBB1877:
.LBB1878:
.LBB1879:
	.loc 4 288 0
	lwz 9,0(30)
.LVL390:
.LBE1879:
.LBE1878:
.LBE1877:
	.loc 4 1049 0
	addi 11,9,-12
.LBB1880:
.LBB1874:
	.loc 4 205 0
	cmpw 7,11,0
	beq+ 7,.L305
.LBB1867:
.LBB1868:
	.loc 4 199 0
	li 0,0
.LBE1868:
.LBE1867:
	.loc 4 209 0
	stw 28,-12(9)
.LVL391:
.LBB1870:
.LBB1869:
	.loc 4 199 0
	stw 0,-4(9)
.LBE1869:
.LBE1870:
.LBB1871:
.LBB1872:
	.loc 6 245 0
	stbx 0,9,28
	b .L305
.LVL392:
.L348:
.LBE1872:
.LBE1871:
.LBE1874:
.LBE1880:
.LBE1856:
.LBE1855:
.LBE1854:
.LBB1881:
.LBB1810:
	.loc 1 334 0
	lbz 11,0(31)
	lis 9,.LANCHOR1@ha
	la 9,.LANCHOR1@l(9)
	slwi 11,11,2
	add 11,9,11
	lwz 11,88(11)
	.loc 1 335 0
	cmplwi 7,11,4
	.loc 1 334 0
	stw 11,12(1)
	.loc 1 335 0
	mr 5,11
	bgt- 7,.L351
.LBB1806:
	.loc 1 342 0
	cmpwi 7,11,1
	beq- 7,.L310
.LBB1800:
	.loc 1 349 0
	cmpwi 7,11,0
	beq- 7,.L330
.LVL393:
.LBB1801:
.LBB1802:
	.loc 1 353 0
	lbz 0,0(31)
	li 10,0
	li 9,0
	mr 8,11
	cmpwi 7,0,0
	beq- 7,.L316
.LVL394:
.L338:
	.loc 1 354 0
	add 10,1,10
	.loc 1 353 0
	addi 9,9,1
.LVL395:
	.loc 1 354 0
	stb 0,8(10)
	.loc 1 353 0
	mr 10,9
	lbzx 0,31,9
	cmpwi 7,0,0
	beq- 7,.L316
	addic. 8,8,-1
	bne- 0,.L338
.LVL396:
.L316:
.LBE1802:
.LBE1801:
.LBE1800:
.LBE1806:
.LBE1810:
.LBE1881:
.LBB1882:
.LBB1851:
.LBB1848:
.LBB1833:
.LBB1830:
.LBB1826:
.LBB1824:
	.loc 6 245 0
	lwz 5,12(1)
.LBE1824:
.LBE1826:
.LBE1830:
.LBE1833:
.LBE1848:
.LBE1851:
.LBE1882:
.LBB1883:
.LBB1811:
.LBB1807:
.LBB1804:
.LBB1803:
	.loc 1 356 0
	add 31,31,11
.LVL397:
.LBE1803:
.LBE1804:
.LBE1807:
.LBE1811:
.LBE1883:
	.loc 2 628 0
	cmpwi 7,5,1
	bne+ 7,.L314
.L350:
.LBB1884:
.LBB1852:
.LBB1849:
.LBB1834:
.LBB1835:
.LBB1836:
.LBB1837:
.LBB1838:
	.loc 4 288 0
	lwz 9,0(30)
.LBE1838:
.LBE1837:
.LBE1836:
.LBE1835:
.LBE1834:
.LBE1849:
.LBE1852:
.LBE1884:
	.loc 2 629 0
	lbz 28,8(1)
.LVL398:
.LBB1885:
.LBB1853:
.LBB1850:
.LBB1840:
.LBB1839:
	.loc 4 711 0
	lwz 11,-12(9)
.LBE1839:
.LBE1840:
	.loc 4 1046 0
	lwz 0,-8(9)
	.loc 4 1045 0
	addi 26,11,1
.LVL399:
	.loc 4 1046 0
	cmplw 7,26,0
	bgt- 7,.L319
.LVL400:
	lwz 0,-4(9)
	cmpwi 7,0,0
	ble- 7,.L320
.L319:
	.loc 4 1047 0
	mr 3,30
	mr 4,26
	bl _ZNSs7reserveEj
	lwz 9,0(30)
	lwz 11,-12(9)
.L320:
.LVL401:
.LBB1841:
.LBB1842:
	.loc 6 245 0
	stbx 28,9,11
.LVL402:
.LBE1842:
.LBE1841:
.LBB1843:
.LBB1831:
	.loc 4 205 0
	lis 10,_ZNSs4_Rep20_S_empty_rep_storageE@ha
	la 0,_ZNSs4_Rep20_S_empty_rep_storageE@l(10)
	li 28,0
.LVL403:
.LBE1831:
.LBE1843:
.LBB1844:
.LBB1845:
.LBB1846:
	.loc 4 288 0
	lwz 9,0(30)
.LVL404:
.LBE1846:
.LBE1845:
.LBE1844:
	.loc 4 1049 0
	addi 11,9,-12
.LBB1847:
.LBB1832:
	.loc 4 205 0
	cmpw 7,11,0
	beq+ 7,.L302
.LBB1827:
.LBB1828:
	.loc 4 199 0
	stw 28,-4(9)
.LBE1828:
.LBE1827:
	.loc 4 209 0
	stw 26,-12(9)
.LVL405:
.LBB1829:
.LBB1825:
	.loc 6 245 0
	stbx 28,9,26
	b .L302
.LVL406:
.L330:
.LBE1825:
.LBE1829:
.LBE1832:
.LBE1847:
.LBE1850:
.LBE1853:
.LBE1885:
.LBB1886:
.LBB1812:
.LBB1808:
.LBB1805:
	.loc 1 361 0
	li 31,0
.LVL407:
	b .L314
.LVL408:
.L349:
.LBE1805:
	.loc 1 345 0
	mr 3,31
	addi 4,1,8
.LVL409:
	addi 5,1,12
.LVL410:
	mr 6,27
	bl _ZN9TiXmlBase9GetEntityEPKcPcPi13TiXmlEncoding
.LVL411:
	mr 31,3
.LVL412:
	b .L313
.LVL413:
.L351:
.LBE1808:
.LBE1812:
.LBB1813:
.LBB1814:
.LBB1815:
	.loc 1 335 0
	lis 3,.LC12@ha
	lis 6,.LC13@ha
	la 3,.LC12@l(3)
	li 4,335
	addi 5,9,1364
	la 6,.LC13@l(6)
	bl __assert_func
.LVL414:
.L346:
.LBE1815:
.LBE1814:
.LBE1813:
.LBE1886:
.LBE1887:
.LBE1888:
.LBE1889:
.LBE1890:
.LBB1891:
.LBB1788:
.LBB1784:
.LBB1778:
.LBB1779:
.LBB1780:
	lis 3,.LC12@ha
	lis 6,.LC13@ha
	la 3,.LC12@l(3)
	li 4,335
	addi 5,5,1364
	la 6,.LC13@l(6)
	bl __assert_func
.LBE1780:
.LBE1779:
.LBE1778:
.LBE1784:
.LBE1788:
.LBE1891:
.LBE1895:
.LBE1901:
	.cfi_endproc
.LFE1342:
	.size	_ZN9TiXmlBase8ReadTextEPKcPSsbS1_b13TiXmlEncoding.constprop.26, .-_ZN9TiXmlBase8ReadTextEPKcPSsbS1_b13TiXmlEncoding.constprop.26
	.align 2
	.globl _ZN9TiXmlBase8ReadTextEPKcPSsbS1_b13TiXmlEncoding
	.type	_ZN9TiXmlBase8ReadTextEPKcPSsbS1_b13TiXmlEncoding, @function
_ZN9TiXmlBase8ReadTextEPKcPSsbS1_b13TiXmlEncoding:
.LFB1231:
	.loc 2 581 0
	.cfi_startproc
.LVL415:
	stwu 1,-56(1)
.LCFI68:
	.cfi_def_cfa_offset 56
	mflr 0
	mfcr 12
	stw 30,48(1)
	mr 30,4
	.cfi_offset 30, -8
	.cfi_register 70, 12
	.cfi_register 65, 0
.LVL416:
.LBB2020:
.LBB2021:
.LBB2022:
.LBB2023:
	.loc 4 1121 0
	lis 4,.LC7@ha
.LVL417:
.LBE2023:
.LBE2022:
.LBE2021:
.LBE2020:
	.loc 2 581 0
	stw 28,40(1)
	stw 31,52(1)
	mr 28,5
	.cfi_offset 31, -4
	.cfi_offset 28, -16
	mr 31,3
.LBB2162:
.LBB2028:
.LBB2026:
.LBB2024:
	.loc 4 1121 0
	la 4,.LC7@l(4)
	mr 3,30
.LVL418:
	li 5,0
.LVL419:
.LBE2024:
.LBE2026:
.LBE2028:
.LBE2162:
	.loc 2 581 0
	stw 26,32(1)
	mr 26,8
	.cfi_offset 26, -24
	stw 27,36(1)
	mr 27,7
	.cfi_offset 27, -20
	stw 29,44(1)
	mr 29,6
	.cfi_offset 29, -12
	stw 0,60(1)
	stw 25,28(1)
	stw 12,24(1)
.LBB2163:
.LBB2029:
.LBB2027:
.LBB2025:
	.loc 4 1121 0
	.cfi_offset 70, -32
	.cfi_offset 25, -28
	.cfi_offset 65, 4
	bl _ZNSs6assignEPKcj
.LVL420:
.LBE2025:
.LBE2027:
.LBE2029:
.LBB2030:
	.loc 2 583 0
	cmpwi 7,28,0
	beq- 7,.L356
	.loc 2 583 0 is_stmt 0 discriminator 1
	lis 9,_ZN9TiXmlBase18condenseWhiteSpaceE@ha
	lbz 0,_ZN9TiXmlBase18condenseWhiteSpaceE@l(9)
	cmpwi 7,0,0
	bne- 7,.L413
.LVL421:
.L356:
.LBB2031:
	.loc 2 587 0 is_stmt 1 discriminator 1
	cmpwi 4,31,0
	beq- 4,.L396
.LVL422:
.L412:
	.loc 2 587 0 is_stmt 0 discriminator 2
	lbz 0,0(31)
	cmpwi 7,0,0
	bne- 7,.L414
.LVL423:
.L396:
.LBE2031:
.LBE2030:
	.loc 2 635 0 is_stmt 1
	beq- 4,.L394
	.loc 2 635 0 is_stmt 0 discriminator 1
	lbz 0,0(31)
	cmpwi 7,0,0
	beq- 7,.L395
	.loc 2 636 0 is_stmt 1
	mr 3,29
	bl strlen
.LVL424:
	.loc 2 637 0
	add. 31,31,3
.LVL425:
	beq- 0,.L394
	lbz 0,0(31)
	cmpwi 7,0,0
	beq- 7,.L395
.L394:
.LBE2163:
	.loc 2 638 0 discriminator 4
	lwz 0,60(1)
	mr 3,31
	lwz 12,24(1)
	mtlr 0
	lwz 25,28(1)
	lwz 26,32(1)
.LVL426:
	mtcrf 8,12
	lwz 27,36(1)
	lwz 28,40(1)
	lwz 29,44(1)
.LVL427:
	lwz 30,48(1)
.LVL428:
	lwz 31,52(1)
.LVL429:
	addi 1,1,56
	.cfi_remember_state
.LCFI69:
	.cfi_def_cfa_offset 0
	.cfi_restore 70
	.cfi_restore 31
	.cfi_restore 30
	.cfi_restore 29
	.cfi_restore 28
	.cfi_restore 27
	.cfi_restore 26
	.cfi_restore 25
	blr
.LVL430:
.L414:
.LCFI70:
	.cfi_restore_state
.LBB2164:
.LBB2158:
.LBB2055:
	.loc 2 588 0 discriminator 4
	mr 3,31
	mr 4,29
	mr 5,27
	mr 6,26
	bl _ZN9TiXmlBase11StringEqualEPKcS1_b13TiXmlEncoding
	.loc 2 587 0 discriminator 4
	cmpwi 0,3,0
	bne- 0,.L396
.LBB2032:
.LBB2033:
.LBB2034:
	.loc 1 332 0 discriminator 6
	cmpwi 7,26,1
.LBE2034:
.LBE2033:
	.loc 2 592 0 discriminator 6
	stw 3,8(1)
.LVL431:
.LBB2047:
.LBB2041:
	.loc 1 332 0 discriminator 6
	beq- 7,.L415
	.loc 1 339 0
	li 0,1
	stw 0,12(1)
.L359:
.LBB2035:
	.loc 1 344 0
	lbz 0,0(31)
	cmpwi 7,0,38
	beq- 7,.L416
	.loc 1 346 0
	mr 28,1
	.loc 1 347 0
	addi 31,31,1
.LVL432:
	.loc 1 346 0
	stbu 0,8(28)
.LVL433:
.L362:
.LBE2035:
.LBE2041:
.LBE2047:
.LBE2032:
	.loc 2 587 0
	cmpwi 4,31,0
.LBB2051:
	.loc 2 594 0
	lwz 5,12(1)
	mr 3,30
	mr 4,28
	bl _ZNSs6appendEPKcj
.LVL434:
.LBE2051:
	.loc 2 587 0
	bne+ 4,.L412
	b .L396
.LVL435:
.L415:
.LBB2052:
.LBB2048:
.LBB2042:
	.loc 1 334 0
	lbz 9,0(31)
	lis 5,.LANCHOR1@ha
	la 5,.LANCHOR1@l(5)
	slwi 9,9,2
	add 9,5,9
	lwz 9,88(9)
	.loc 1 335 0
	cmplwi 7,9,4
	.loc 1 334 0
	stw 9,12(1)
	.loc 1 335 0
	bgt- 7,.L417
.LBB2039:
	.loc 1 342 0
	cmpwi 7,9,1
	beq- 7,.L359
.LBB2036:
	.loc 1 349 0
	cmpwi 7,9,0
	beq- 7,.L363
.LVL436:
.LBB2037:
.LBB2038:
	.loc 1 353 0
	lbz 0,0(31)
	li 10,0
	li 11,0
	mr 8,9
	cmpwi 7,0,0
	beq- 7,.L365
.LVL437:
.L406:
	.loc 1 354 0
	add 10,1,10
	.loc 1 353 0
	addi 11,11,1
.LVL438:
	.loc 1 354 0
	stb 0,8(10)
	.loc 1 353 0
	mr 10,11
	lbzx 0,31,11
	cmpwi 7,0,0
	beq- 7,.L365
	addic. 8,8,-1
	bne- 0,.L406
.LVL439:
.L365:
.LBE2038:
	.loc 1 356 0
	add 31,31,9
.LVL440:
	addi 28,1,8
	b .L362
.LVL441:
.L363:
.LBE2037:
.LBE2036:
.LBE2039:
.LBE2042:
.LBE2048:
	.loc 2 594 0
	mr 3,30
	addi 4,1,8
	li 5,0
	.loc 1 361 0
	li 31,0
.LVL442:
	.loc 2 594 0
	bl _ZNSs6appendEPKcj
.LVL443:
.LBE2052:
.LBE2055:
.LBE2158:
.LBE2164:
	.loc 2 638 0
	lwz 0,60(1)
	lwz 12,24(1)
	mr 3,31
	mtlr 0
	lwz 25,28(1)
	lwz 26,32(1)
.LVL444:
	mtcrf 8,12
	lwz 27,36(1)
	lwz 28,40(1)
	lwz 29,44(1)
.LVL445:
	lwz 30,48(1)
.LVL446:
	lwz 31,52(1)
	addi 1,1,56
	.cfi_remember_state
	.cfi_restore 25
	.cfi_restore 26
	.cfi_restore 27
	.cfi_restore 28
	.cfi_restore 29
	.cfi_restore 30
	.cfi_restore 31
	.cfi_restore 70
.LCFI71:
	.cfi_def_cfa_offset 0
	blr
.LVL447:
.L416:
.LCFI72:
	.cfi_restore_state
.LBB2165:
.LBB2159:
.LBB2056:
.LBB2053:
.LBB2049:
.LBB2043:
.LBB2040:
	.loc 1 345 0
	addi 28,1,8
	mr 3,31
	mr 4,28
	addi 5,1,12
	mr 6,26
	bl _ZN9TiXmlBase9GetEntityEPKcPcPi13TiXmlEncoding
	mr 31,3
.LVL448:
	b .L362
.LVL449:
.L395:
.LBE2040:
.LBE2043:
.LBE2049:
.LBE2053:
.LBE2056:
.LBE2159:
.LBE2165:
	.loc 2 638 0
	lwz 0,60(1)
.LBB2166:
.LBB2160:
.LBB2057:
	.loc 2 637 0
	li 31,0
.LVL450:
.LBE2057:
.LBE2160:
.LBE2166:
	.loc 2 638 0
	lwz 12,24(1)
	mr 3,31
	mtlr 0
	lwz 25,28(1)
	lwz 26,32(1)
.LVL451:
	mtcrf 8,12
	lwz 27,36(1)
	lwz 28,40(1)
	lwz 29,44(1)
.LVL452:
	lwz 30,48(1)
.LVL453:
	lwz 31,52(1)
	addi 1,1,56
	.cfi_remember_state
	.cfi_restore 25
	.cfi_restore 26
	.cfi_restore 27
	.cfi_restore 28
	.cfi_restore 29
	.cfi_restore 30
	.cfi_restore 31
	.cfi_restore 70
.LCFI73:
	.cfi_def_cfa_offset 0
	blr
.LVL454:
.L413:
.LCFI74:
	.cfi_restore_state
.LBB2167:
.LBB2161:
.LBB2156:
	.loc 2 602 0
	mr 3,31
	mr 4,26
	bl _ZN9TiXmlBase14SkipWhiteSpaceEPKc13TiXmlEncoding
.LVL455:
	.loc 2 603 0
	cmpwi 4,3,0
	mr 31,3
	beq- 4,.L396
	lbz 0,0(3)
	cmpwi 7,0,0
	beq+ 7,.L396
	li 28,0
.LVL456:
.L371:
	.loc 2 604 0 discriminator 4
	mr 3,31
	mr 4,29
	mr 5,27
	mr 6,26
	bl _ZN9TiXmlBase11StringEqualEPKcS1_b13TiXmlEncoding
	.loc 2 603 0 discriminator 4
	cmpwi 7,3,0
	bne- 7,.L396
.LBB2058:
	.loc 2 606 0 discriminator 6
	lbz 3,0(31)
	cmpwi 7,3,13
	beq- 7,.L374
	.loc 2 606 0 is_stmt 0 discriminator 1
	cmpwi 7,3,10
	beq- 7,.L374
.LVL457:
.LBB2059:
.LBB2060:
.LBB2061:
	.loc 1 294 0 is_stmt 1
	bl isspace
.LVL458:
	cmpwi 7,3,0
	bne- 7,.L374
.LBE2061:
.LBE2060:
.LBB2062:
	.loc 2 620 0
	cmpwi 7,28,0
	bne- 7,.L418
.L376:
.LVL459:
.LBB2063:
.LBB2064:
	.loc 1 332 0
	cmpwi 7,26,1
.LBE2064:
.LBE2063:
	.loc 2 626 0
	li 0,0
	stw 0,8(1)
.LVL460:
.LBB2082:
.LBB2075:
	.loc 1 332 0
	beq- 7,.L419
	.loc 1 339 0
	li 0,1
	stw 0,12(1)
.L381:
.LBB2065:
	.loc 1 344 0
	lbz 0,0(31)
	cmpwi 7,0,38
	beq- 7,.L420
	.loc 1 346 0
	stb 0,8(1)
	.loc 1 347 0
	addi 31,31,1
.LVL461:
.L384:
.LBE2065:
.LBE2075:
.LBE2082:
.LBB2083:
.LBB2084:
.LBB2085:
.LBB2086:
.LBB2087:
.LBB2088:
.LBB2089:
	.loc 6 245 0
	lwz 5,12(1)
.LBE2089:
.LBE2088:
.LBE2087:
.LBE2086:
.LBE2085:
.LBE2084:
.LBE2083:
	.loc 2 628 0
	cmpwi 7,5,1
	beq- 7,.L421
.L385:
	.loc 2 631 0
	mr 3,30
	addi 4,1,8
.LVL462:
	bl _ZNSs6appendEPKcj
.LVL463:
	li 28,0
.LVL464:
.L373:
.LBE2062:
.LBE2059:
.LBE2058:
	.loc 2 603 0 discriminator 1
	cmpwi 4,31,0
	beq- 4,.L396
	.loc 2 603 0 is_stmt 0 discriminator 2
	lbz 0,0(31)
	cmpwi 7,0,0
	beq+ 7,.L396
	b .L371
.LVL465:
.L374:
.LBB2155:
.LBB2154:
	.loc 2 614 0 is_stmt 1
	addi 31,31,1
.LVL466:
	.loc 2 613 0
	li 28,1
	b .L373
.LVL467:
.L418:
.LBB2153:
.LBB2120:
.LBB2121:
.LBB2122:
.LBB2123:
.LBB2124:
.LBB2125:
.LBB2126:
.LBB2127:
	.loc 4 288 0
	lwz 9,0(30)
.LBE2127:
.LBE2126:
.LBE2125:
	.loc 4 711 0
	lwz 11,-12(9)
.LBE2124:
.LBE2123:
	.loc 4 1046 0
	lwz 0,-8(9)
	.loc 4 1045 0
	addi 28,11,1
.LVL468:
	.loc 4 1046 0
	cmplw 7,28,0
	bgt- 7,.L377
.LVL469:
	lwz 0,-4(9)
	cmpwi 7,0,0
	ble- 7,.L378
.L377:
	.loc 4 1047 0
	mr 3,30
	mr 4,28
	bl _ZNSs7reserveEj
	lwz 9,0(30)
	lwz 11,-12(9)
.L378:
.LVL470:
.LBB2128:
.LBB2129:
	.loc 6 245 0
	li 0,32
.LBE2129:
.LBE2128:
.LBB2131:
.LBB2132:
	.loc 4 205 0
	lis 10,_ZNSs4_Rep20_S_empty_rep_storageE@ha
.LBE2132:
.LBE2131:
.LBB2141:
.LBB2130:
	.loc 6 245 0
	stbx 0,9,11
.LVL471:
.LBE2130:
.LBE2141:
.LBB2142:
.LBB2139:
	.loc 4 205 0
	la 0,_ZNSs4_Rep20_S_empty_rep_storageE@l(10)
.LBE2139:
.LBE2142:
.LBB2143:
.LBB2144:
.LBB2145:
	.loc 4 288 0
	lwz 9,0(30)
.LVL472:
.LBE2145:
.LBE2144:
.LBE2143:
	.loc 4 1049 0
	addi 11,9,-12
.LBB2146:
.LBB2140:
	.loc 4 205 0
	cmpw 7,11,0
	beq+ 7,.L376
.LBB2133:
.LBB2134:
	.loc 4 199 0
	li 0,0
.LBE2134:
.LBE2133:
	.loc 4 209 0
	stw 28,-12(9)
.LVL473:
.LBB2136:
.LBB2135:
	.loc 4 199 0
	stw 0,-4(9)
.LBE2135:
.LBE2136:
.LBB2137:
.LBB2138:
	.loc 6 245 0
	stbx 0,9,28
	b .L376
.LVL474:
.L419:
.LBE2138:
.LBE2137:
.LBE2140:
.LBE2146:
.LBE2122:
.LBE2121:
.LBE2120:
.LBB2147:
.LBB2076:
	.loc 1 334 0
	lbz 11,0(31)
	lis 9,.LANCHOR1@ha
	la 9,.LANCHOR1@l(9)
	slwi 11,11,2
	add 11,9,11
	lwz 11,88(11)
	.loc 1 335 0
	cmplwi 7,11,4
	.loc 1 334 0
	stw 11,12(1)
	.loc 1 335 0
	mr 5,11
	bgt- 7,.L422
.LBB2072:
	.loc 1 342 0
	cmpwi 7,11,1
	beq- 7,.L381
.LBB2066:
	.loc 1 349 0
	cmpwi 7,11,0
	beq- 7,.L399
.LVL475:
.LBB2067:
.LBB2068:
	.loc 1 353 0
	lbz 0,0(31)
	li 10,0
	li 9,0
	mr 8,11
	cmpwi 7,0,0
	beq- 7,.L387
.LVL476:
.L407:
	.loc 1 354 0
	add 10,1,10
	.loc 1 353 0
	addi 9,9,1
.LVL477:
	.loc 1 354 0
	stb 0,8(10)
	.loc 1 353 0
	mr 10,9
	lbzx 0,31,9
	cmpwi 7,0,0
	beq- 7,.L387
	addic. 8,8,-1
	bne- 0,.L407
.LVL478:
.L387:
.LBE2068:
.LBE2067:
.LBE2066:
.LBE2072:
.LBE2076:
.LBE2147:
.LBB2148:
.LBB2117:
.LBB2114:
.LBB2099:
.LBB2096:
.LBB2092:
.LBB2090:
	.loc 6 245 0
	lwz 5,12(1)
.LBE2090:
.LBE2092:
.LBE2096:
.LBE2099:
.LBE2114:
.LBE2117:
.LBE2148:
.LBB2149:
.LBB2077:
.LBB2073:
.LBB2070:
.LBB2069:
	.loc 1 356 0
	add 31,31,11
.LVL479:
.LBE2069:
.LBE2070:
.LBE2073:
.LBE2077:
.LBE2149:
	.loc 2 628 0
	cmpwi 7,5,1
	bne+ 7,.L385
.L421:
.LBB2150:
.LBB2118:
.LBB2115:
.LBB2100:
.LBB2101:
.LBB2102:
.LBB2103:
.LBB2104:
	.loc 4 288 0
	lwz 9,0(30)
.LBE2104:
.LBE2103:
.LBE2102:
.LBE2101:
.LBE2100:
.LBE2115:
.LBE2118:
.LBE2150:
	.loc 2 629 0
	lbz 28,8(1)
.LVL480:
.LBB2151:
.LBB2119:
.LBB2116:
.LBB2106:
.LBB2105:
	.loc 4 711 0
	lwz 11,-12(9)
.LBE2105:
.LBE2106:
	.loc 4 1046 0
	lwz 0,-8(9)
	.loc 4 1045 0
	addi 25,11,1
.LVL481:
	.loc 4 1046 0
	cmplw 7,25,0
	bgt- 7,.L390
.LVL482:
	lwz 0,-4(9)
	cmpwi 7,0,0
	ble- 7,.L391
.L390:
	.loc 4 1047 0
	mr 3,30
	mr 4,25
	bl _ZNSs7reserveEj
	lwz 9,0(30)
	lwz 11,-12(9)
.L391:
.LVL483:
.LBB2107:
.LBB2108:
	.loc 6 245 0
	stbx 28,9,11
.LVL484:
.LBE2108:
.LBE2107:
.LBB2109:
.LBB2097:
	.loc 4 205 0
	lis 10,_ZNSs4_Rep20_S_empty_rep_storageE@ha
	la 0,_ZNSs4_Rep20_S_empty_rep_storageE@l(10)
	li 28,0
.LVL485:
.LBE2097:
.LBE2109:
.LBB2110:
.LBB2111:
.LBB2112:
	.loc 4 288 0
	lwz 9,0(30)
.LVL486:
.LBE2112:
.LBE2111:
.LBE2110:
	.loc 4 1049 0
	addi 11,9,-12
.LBB2113:
.LBB2098:
	.loc 4 205 0
	cmpw 7,11,0
	beq+ 7,.L373
.LBB2093:
.LBB2094:
	.loc 4 199 0
	stw 28,-4(9)
.LBE2094:
.LBE2093:
	.loc 4 209 0
	stw 25,-12(9)
.LVL487:
.LBB2095:
.LBB2091:
	.loc 6 245 0
	stbx 28,9,25
	b .L373
.LVL488:
.L399:
.LBE2091:
.LBE2095:
.LBE2098:
.LBE2113:
.LBE2116:
.LBE2119:
.LBE2151:
.LBB2152:
.LBB2078:
.LBB2074:
.LBB2071:
	.loc 1 361 0
	li 31,0
.LVL489:
	b .L385
.LVL490:
.L420:
.LBE2071:
	.loc 1 345 0
	mr 3,31
	addi 4,1,8
.LVL491:
	addi 5,1,12
.LVL492:
	mr 6,26
	bl _ZN9TiXmlBase9GetEntityEPKcPcPi13TiXmlEncoding
.LVL493:
	mr 31,3
.LVL494:
	b .L384
.LVL495:
.L422:
.LBE2074:
.LBE2078:
.LBB2079:
.LBB2080:
.LBB2081:
	.loc 1 335 0
	lis 3,.LC12@ha
	lis 6,.LC13@ha
	la 3,.LC12@l(3)
	li 4,335
	addi 5,9,1364
	la 6,.LC13@l(6)
	bl __assert_func
.LVL496:
.L417:
.LBE2081:
.LBE2080:
.LBE2079:
.LBE2152:
.LBE2153:
.LBE2154:
.LBE2155:
.LBE2156:
.LBB2157:
.LBB2054:
.LBB2050:
.LBB2044:
.LBB2045:
.LBB2046:
	lis 3,.LC12@ha
	lis 6,.LC13@ha
	la 3,.LC12@l(3)
	li 4,335
	addi 5,5,1364
	la 6,.LC13@l(6)
	bl __assert_func
.LBE2046:
.LBE2045:
.LBE2044:
.LBE2050:
.LBE2054:
.LBE2157:
.LBE2161:
.LBE2167:
	.cfi_endproc
.LFE1231:
	.size	_ZN9TiXmlBase8ReadTextEPKcPSsbS1_b13TiXmlEncoding, .-_ZN9TiXmlBase8ReadTextEPKcPSsbS1_b13TiXmlEncoding
	.align 2
	.globl _ZN13TiXmlDocument8SetErrorEiPKcP16TiXmlParsingData13TiXmlEncoding
	.type	_ZN13TiXmlDocument8SetErrorEiPKcP16TiXmlParsingData13TiXmlEncoding, @function
_ZN13TiXmlDocument8SetErrorEiPKcP16TiXmlParsingData13TiXmlEncoding:
.LFB1234:
	.loc 2 800 0
	.cfi_startproc
.LVL497:
	mflr 0
	stwu 1,-32(1)
.LCFI75:
	.cfi_def_cfa_offset 32
	.cfi_register 65, 0
	stw 28,16(1)
	mr 28,7
	.cfi_offset 28, -16
	stw 0,36(1)
	stw 29,20(1)
	mr 29,6
	.cfi_offset 29, -12
	.cfi_offset 65, 4
.LBB2184:
	.loc 2 802 0
	lbz 0,44(3)
.LBE2184:
	.loc 2 800 0
	stw 30,24(1)
	mr 30,5
	.cfi_offset 30, -8
.LBB2194:
	.loc 2 802 0
	cmpwi 7,0,0
.LBE2194:
	.loc 2 800 0
	stw 31,28(1)
	stw 27,12(1)
	.loc 2 800 0
	mr 31,3
	.cfi_offset 27, -20
	.cfi_offset 31, -4
.LBB2195:
	.loc 2 802 0
	bne- 7,.L423
	.loc 2 805 0
	addi 0,4,-1
	cmplwi 7,0,14
	bgt- 7,.L426
	.loc 2 808 0
	lis 9,_ZN9TiXmlBase11errorStringE@ha
	slwi 0,4,2
	la 9,_ZN9TiXmlBase11errorStringE@l(9)
	lwzx 27,9,0
.LVL498:
	.loc 2 806 0
	li 0,1
.LVL499:
	stb 0,44(3)
	.loc 2 807 0
	stw 4,48(3)
.LBB2185:
.LBB2186:
.LBB2187:
.LBB2188:
.LBB2189:
	.loc 6 261 0
	mr 3,27
.LVL500:
	bl strlen
.LVL501:
.LBE2189:
.LBE2188:
	.loc 4 1121 0
	mr 4,27
.LBB2191:
.LBB2190:
	.loc 6 261 0
	mr 5,3
.LBE2190:
.LBE2191:
	.loc 4 1121 0
	addi 3,31,52
	bl _ZNSs6assignEPKcj
.LVL502:
.LBE2187:
.LBE2186:
.LBE2185:
	.loc 2 811 0
	cmpwi 7,30,0
.LBB2192:
.LBB2193:
	.loc 1 104 0
	li 0,-1
	stw 0,64(31)
	stw 0,60(31)
.LBE2193:
.LBE2192:
	.loc 2 811 0
	beq- 7,.L423
	.loc 2 811 0 is_stmt 0 discriminator 1
	cmpwi 7,29,0
	beq- 7,.L423
	.loc 2 813 0 is_stmt 1
	mr 3,29
	mr 4,30
	mr 5,28
	bl _ZN16TiXmlParsingData5StampEPKc13TiXmlEncoding
.LVL503:
	.loc 2 814 0
	lwz 10,0(29)
	lwz 11,4(29)
	stw 10,60(31)
	stw 11,64(31)
.LVL504:
.L423:
.LBE2195:
	.loc 2 816 0
	lwz 0,36(1)
	lwz 27,12(1)
	mtlr 0
	lwz 28,16(1)
.LVL505:
	lwz 29,20(1)
.LVL506:
	lwz 30,24(1)
.LVL507:
	lwz 31,28(1)
.LVL508:
	addi 1,1,32
	.cfi_remember_state
.LCFI76:
	.cfi_def_cfa_offset 0
	.cfi_restore 31
	.cfi_restore 30
	.cfi_restore 29
	.cfi_restore 28
	.cfi_restore 27
	blr
.LVL509:
.L426:
.LCFI77:
	.cfi_restore_state
.LBB2196:
.LBB2197:
.LBB2198:
	.loc 2 805 0
	lis 5,.LANCHOR1@ha
.LVL510:
	lis 3,.LC1@ha
.LVL511:
	la 5,.LANCHOR1@l(5)
	lis 6,.LC14@ha
.LVL512:
	la 3,.LC1@l(3)
	li 4,805
.LVL513:
	addi 5,5,1444
	la 6,.LC14@l(6)
	bl __assert_func
.LVL514:
.LVL515:
.LBE2198:
.LBE2197:
.LBE2196:
	.cfi_endproc
.LFE1234:
	.size	_ZN13TiXmlDocument8SetErrorEiPKcP16TiXmlParsingData13TiXmlEncoding, .-_ZN13TiXmlDocument8SetErrorEiPKcP16TiXmlParsingData13TiXmlEncoding
	.align 2
	.globl _ZN14TiXmlAttribute5ParseEPKcP16TiXmlParsingData13TiXmlEncoding
	.type	_ZN14TiXmlAttribute5ParseEPKcP16TiXmlParsingData13TiXmlEncoding, @function
_ZN14TiXmlAttribute5ParseEPKcP16TiXmlParsingData13TiXmlEncoding:
.LFB1247:
	.loc 2 1394 0
	.cfi_startproc
.LVL516:
	stwu 1,-40(1)
.LCFI78:
	.cfi_def_cfa_offset 40
	mflr 0
	stw 28,24(1)
	mr 28,3
	.cfi_offset 28, -16
	.cfi_register 65, 0
.LBB2246:
	.loc 2 1395 0
	mr 3,4
.LVL517:
	mr 4,6
.LVL518:
.LBE2246:
	.loc 2 1394 0
	stw 29,28(1)
	mr 29,5
	.cfi_offset 29, -12
	stw 30,32(1)
	mr 30,6
	.cfi_offset 30, -8
	stw 31,36(1)
	stw 0,44(1)
	stw 24,8(1)
	stw 25,12(1)
	stw 26,16(1)
	stw 27,20(1)
.LBB2285:
	.loc 2 1395 0
	.cfi_offset 27, -20
	.cfi_offset 26, -24
	.cfi_offset 25, -28
	.cfi_offset 24, -32
	.cfi_offset 65, 4
	.cfi_offset 31, -4
	bl _ZN9TiXmlBase14SkipWhiteSpaceEPKc13TiXmlEncoding
.LVL519:
	.loc 2 1396 0
	mr. 31,3
	beq- 0,.L428
	.loc 2 1396 0 is_stmt 0 discriminator 2
	lbz 0,0(31)
	cmpwi 7,0,0
	beq- 7,.L449
	.loc 2 1398 0 is_stmt 1
	cmpwi 7,29,0
	beq- 7,.L429
	.loc 2 1400 0
	mr 3,29
.LVL520:
	mr 4,31
	mr 5,30
	bl _ZN16TiXmlParsingData5StampEPKc13TiXmlEncoding
.LVL521:
	.loc 2 1401 0
	lwz 10,0(29)
	lwz 11,4(29)
	stw 10,4(28)
	stw 11,8(28)
.LVL522:
.L429:
	.loc 2 1405 0
	mr 3,31
	addi 4,28,20
	mr 5,30
	bl _ZN9TiXmlBase8ReadNameEPKcPSs13TiXmlEncoding
.LVL523:
	.loc 2 1406 0
	mr. 9,3
	beq- 0,.L443
	.loc 2 1406 0 is_stmt 0 discriminator 1
	lbz 0,0(9)
	cmpwi 7,0,0
	bne- 7,.L431
.LVL524:
.L443:
	.loc 2 1456 0 is_stmt 1
	lwz 3,16(28)
	cmpwi 7,3,0
	beq- 7,.L449
	.loc 2 1456 0 is_stmt 0 discriminator 1
	mr 5,31
	li 4,6
	mr 6,29
	mr 7,30
	bl _ZN13TiXmlDocument8SetErrorEiPKcP16TiXmlParsingData13TiXmlEncoding
	.loc 2 1457 0 is_stmt 1 discriminator 1
	li 31,0
.L428:
.LBE2285:
	.loc 2 1464 0
	lwz 0,44(1)
	mr 3,31
	lwz 24,8(1)
	mtlr 0
	lwz 25,12(1)
	lwz 26,16(1)
	lwz 27,20(1)
	lwz 28,24(1)
.LVL525:
	lwz 29,28(1)
.LVL526:
	lwz 30,32(1)
.LVL527:
	lwz 31,36(1)
	addi 1,1,40
	.cfi_remember_state
.LCFI79:
	.cfi_def_cfa_offset 0
	.cfi_restore 31
	.cfi_restore 30
	.cfi_restore 29
	.cfi_restore 28
	.cfi_restore 27
	.cfi_restore 26
	.cfi_restore 25
	.cfi_restore 24
	blr
.LVL528:
.L449:
.LCFI80:
	.cfi_restore_state
	lwz 0,44(1)
.LBB2286:
	.loc 2 1457 0
	li 31,0
.LBE2286:
	.loc 2 1464 0
	mr 3,31
	lwz 24,8(1)
	mtlr 0
	lwz 25,12(1)
	lwz 26,16(1)
	lwz 27,20(1)
	lwz 28,24(1)
.LVL529:
	lwz 29,28(1)
.LVL530:
	lwz 30,32(1)
.LVL531:
	lwz 31,36(1)
	addi 1,1,40
	.cfi_remember_state
	.cfi_restore 24
	.cfi_restore 25
	.cfi_restore 26
	.cfi_restore 27
	.cfi_restore 28
	.cfi_restore 29
	.cfi_restore 30
	.cfi_restore 31
.LCFI81:
	.cfi_def_cfa_offset 0
	blr
.LVL532:
.L431:
.LCFI82:
	.cfi_restore_state
.LBB2287:
	.loc 2 1411 0
	mr 4,30
	bl _ZN9TiXmlBase14SkipWhiteSpaceEPKc13TiXmlEncoding
.LVL533:
	.loc 2 1412 0
	mr. 5,3
	beq- 0,.L432
	.loc 2 1412 0 is_stmt 0 discriminator 1
	lbz 0,0(5)
	cmpwi 7,0,61
	beq- 7,.L433
.L432:
	.loc 2 1414 0 is_stmt 1
	lwz 3,16(28)
.LVL534:
	.loc 2 1415 0
	li 31,0
.LVL535:
	.loc 2 1414 0
	cmpwi 7,3,0
	beq- 7,.L428
	.loc 2 1414 0 is_stmt 0 discriminator 1
	mr 6,29
	mr 7,30
	li 4,6
	bl _ZN13TiXmlDocument8SetErrorEiPKcP16TiXmlParsingData13TiXmlEncoding
.LVL536:
.LBE2287:
	.loc 2 1464 0 is_stmt 1 discriminator 1
	lwz 0,44(1)
	mr 3,31
	lwz 24,8(1)
	mtlr 0
	lwz 25,12(1)
	lwz 26,16(1)
	lwz 27,20(1)
	lwz 28,24(1)
.LVL537:
	lwz 29,28(1)
.LVL538:
	lwz 30,32(1)
.LVL539:
	lwz 31,36(1)
	addi 1,1,40
	.cfi_remember_state
	.cfi_restore 24
	.cfi_restore 25
	.cfi_restore 26
	.cfi_restore 27
	.cfi_restore 28
	.cfi_restore 29
	.cfi_restore 30
	.cfi_restore 31
.LCFI83:
	.cfi_def_cfa_offset 0
	blr
.LVL540:
.L433:
.LCFI84:
	.cfi_restore_state
.LBB2288:
	.loc 2 1419 0
	addi 3,5,1
.LVL541:
	mr 4,30
	bl _ZN9TiXmlBase14SkipWhiteSpaceEPKc13TiXmlEncoding
.LVL542:
	.loc 2 1420 0
	mr. 31,3
.LVL543:
	beq- 0,.L443
	.loc 2 1420 0 is_stmt 0 discriminator 1
	lbz 0,0(31)
	cmpwi 7,0,0
	beq- 7,.L443
.LVL544:
	.loc 2 1430 0 is_stmt 1
	cmpwi 7,0,39
	beq- 7,.L456
	.loc 2 1436 0
	cmpwi 7,0,34
	beq- 7,.L457
	.loc 2 1447 0
	addi 27,28,24
.LVL545:
.LBB2247:
.LBB2248:
.LBB2249:
	.loc 4 1121 0
	lis 4,.LC7@ha
	mr 3,27
.LVL546:
	la 4,.LC7@l(4)
	li 5,0
.LBE2249:
.LBE2248:
.LBE2247:
	.loc 2 1393 0
	addi 24,31,-1
.LBB2252:
.LBB2251:
.LBB2250:
	.loc 4 1121 0
	bl _ZNSs6assignEPKcj
.LBE2250:
.LBE2251:
.LBE2252:
	.loc 2 1448 0
	lbz 26,0(31)
	cmpwi 7,26,0
	beq- 7,.L428
.L438:
.LVL547:
.LBB2253:
.LBB2254:
	.loc 1 294 0 discriminator 4
	mr 3,26
	bl isspace
	cmpwi 7,3,0
	bne- 7,.L428
.LVL548:
.LBB2255:
.LBB2256:
	.loc 1 294 0 is_stmt 0
	cmpwi 7,26,10
	beq- 7,.L428
.LBE2256:
.LBE2255:
.LBE2254:
.LBE2253:
	.loc 2 1448 0 is_stmt 1
	cmpwi 7,26,13
	beq- 7,.L428
	.loc 2 1448 0 is_stmt 0 discriminator 5
	cmpwi 7,26,47
	beq- 7,.L428
	.loc 2 1448 0 discriminator 6
	cmpwi 7,26,62
	beq- 7,.L428
	.loc 2 1452 0 is_stmt 1 discriminator 8
	lbzu 25,1(24)
	cmpwi 7,25,39
	beq- 7,.L443
	.loc 2 1452 0 is_stmt 0 discriminator 1
	cmpwi 7,25,34
	beq- 7,.L443
.LVL549:
.LBB2257:
.LBB2258:
.LBB2259:
.LBB2260:
.LBB2261:
.LBB2262:
.LBB2263:
.LBB2264:
	.loc 4 288 0 is_stmt 1
	lwz 9,24(28)
.LBE2264:
.LBE2263:
.LBE2262:
	.loc 4 711 0
	lwz 11,-12(9)
.LBE2261:
.LBE2260:
	.loc 4 1046 0
	lwz 0,-8(9)
	.loc 4 1045 0
	addi 26,11,1
.LVL550:
	.loc 4 1046 0
	cmplw 7,26,0
	bgt- 7,.L440
	lwz 0,-4(9)
	cmpwi 7,0,0
	ble- 7,.L441
.L440:
	.loc 4 1047 0
	mr 3,27
	mr 4,26
	bl _ZNSs7reserveEj
	lwz 9,24(28)
	lwz 11,-12(9)
.L441:
.LVL551:
.LBB2265:
.LBB2266:
	.loc 6 245 0
	stbx 25,9,11
.LBE2266:
.LBE2265:
.LBB2267:
.LBB2268:
	.loc 4 205 0
	lis 10,_ZNSs4_Rep20_S_empty_rep_storageE@ha
	la 0,_ZNSs4_Rep20_S_empty_rep_storageE@l(10)
.LBE2268:
.LBE2267:
.LBB2277:
.LBB2278:
.LBB2279:
	.loc 4 288 0
	lwz 9,24(28)
.LVL552:
.LBE2279:
.LBE2278:
.LBE2277:
	.loc 4 1049 0
	addi 11,9,-12
.LBB2280:
.LBB2275:
	.loc 4 205 0
	cmpw 7,11,0
	bne- 7,.L458
.L442:
.LVL553:
.LBE2275:
.LBE2280:
.LBE2259:
.LBE2258:
.LBE2257:
	.loc 2 1448 0
	addic. 31,31,1
.LVL554:
	beq- 0,.L428
	.loc 2 1448 0 is_stmt 0 discriminator 2
	lbz 26,1(24)
.LVL555:
	cmpwi 7,26,0
	beq- 7,.L428
	b .L438
.LVL556:
.L457:
	.loc 2 1440 0 is_stmt 1
	lis 6,.LC16@ha
	addi 3,31,1
.LVL557:
	addi 4,28,24
	li 5,0
	la 6,.LC16@l(6)
.LVL558:
.L453:
.LBE2288:
	.loc 2 1464 0
	lwz 0,44(1)
.LBB2289:
	.loc 2 1440 0
	mr 7,30
.LBE2289:
	.loc 2 1464 0
	lwz 24,8(1)
	lwz 25,12(1)
	mtlr 0
	lwz 26,16(1)
	lwz 27,20(1)
	lwz 28,24(1)
.LVL559:
	lwz 29,28(1)
.LVL560:
	lwz 30,32(1)
.LVL561:
	lwz 31,36(1)
	addi 1,1,40
	.cfi_remember_state
.LCFI85:
	.cfi_def_cfa_offset 0
	.cfi_restore 31
	.cfi_restore 30
	.cfi_restore 29
	.cfi_restore 28
	.cfi_restore 27
	.cfi_restore 26
	.cfi_restore 25
	.cfi_restore 24
.LBB2290:
	.loc 2 1440 0
	b _ZN9TiXmlBase8ReadTextEPKcPSsbS1_b13TiXmlEncoding.constprop.26
.LVL562:
.L456:
.LCFI86:
	.cfi_restore_state
	.loc 2 1434 0
	lis 6,.LC15@ha
	addi 3,31,1
.LVL563:
	addi 4,28,24
	li 5,0
	la 6,.LC15@l(6)
	b .L453
.LVL564:
.L458:
.LBB2284:
.LBB2283:
.LBB2282:
.LBB2281:
.LBB2276:
.LBB2269:
.LBB2270:
	.loc 4 199 0
	li 0,0
.LBE2270:
.LBE2269:
	.loc 4 209 0
	stw 26,-12(9)
.LVL565:
.LBB2272:
.LBB2271:
	.loc 4 199 0
	stw 0,-4(9)
.LBE2271:
.LBE2272:
.LBB2273:
.LBB2274:
	.loc 6 245 0
	stbx 0,9,26
	b .L442
.LBE2274:
.LBE2273:
.LBE2276:
.LBE2281:
.LBE2282:
.LBE2283:
.LBE2284:
.LBE2290:
	.cfi_endproc
.LFE1247:
	.size	_ZN14TiXmlAttribute5ParseEPKcP16TiXmlParsingData13TiXmlEncoding, .-_ZN14TiXmlAttribute5ParseEPKcP16TiXmlParsingData13TiXmlEncoding
	.align 2
	.globl _ZN9TiXmlNode8IdentifyEPKc13TiXmlEncoding
	.type	_ZN9TiXmlNode8IdentifyEPKc13TiXmlEncoding, @function
_ZN9TiXmlNode8IdentifyEPKc13TiXmlEncoding:
.LFB1235:
	.loc 2 820 0
	.cfi_startproc
	.cfi_personality 0,__gxx_personality_v0
	.cfi_lsda 0,.LLSDA1235
.LVL566:
	stwu 1,-24(1)
.LCFI87:
	.cfi_def_cfa_offset 24
	mflr 0
	stw 30,16(1)
	mr 30,3
	.cfi_offset 30, -8
	.cfi_register 65, 0
.LBB2340:
	.loc 2 823 0
	mr 3,4
.LVL567:
	mr 4,5
.LVL568:
.LBE2340:
	.loc 2 820 0
	stw 31,20(1)
	mr 31,5
	.cfi_offset 31, -4
	stw 0,28(1)
	stw 29,12(1)
.LBB2416:
	.loc 2 823 0
	.cfi_offset 29, -12
	.cfi_offset 65, 4
	bl _ZN9TiXmlBase14SkipWhiteSpaceEPKc13TiXmlEncoding
.LVL569:
	.loc 2 824 0
	mr. 9,3
	beq- 0,.L486
	.loc 2 824 0 is_stmt 0 discriminator 1
	lbz 0,0(9)
	cmpwi 7,0,60
	bne- 7,.L486
	.loc 2 829 0 is_stmt 1
	mr 4,31
	bl _ZN9TiXmlBase14SkipWhiteSpaceEPKc13TiXmlEncoding
.LVL570:
	.loc 2 831 0
	mr. 29,3
	beq- 0,.L486
	.loc 2 831 0 is_stmt 0 discriminator 1
	lbz 0,0(29)
	cmpwi 7,0,0
	beq- 7,.L486
.LVL571:
.LBB2341:
	.loc 2 848 0 is_stmt 1
	lis 4,.LC17@ha
	li 5,1
	la 4,.LC17@l(4)
	mr 6,31
.LEHB2:
	bl _ZN9TiXmlBase11StringEqualEPKcS1_b13TiXmlEncoding
.LEHE2:
.LVL572:
	cmpwi 7,3,0
	beq- 7,.L461
	.loc 2 853 0
	lis 29,_ZSt7nothrow@ha
.LVL573:
	li 3,56
	la 29,_ZSt7nothrow@l(29)
	mr 4,29
	bl _ZnwjRKSt9nothrow_t
	mr. 31,3
.LVL574:
	beq- 0,.L460
.LVL575:
.LBB2342:
.LBB2343:
	.loc 1 1291 0
	li 4,5
.LEHB3:
	bl _ZN9TiXmlNodeC2ENS_8NodeTypeE
.LEHE3:
.LVL576:
.LBB2344:
.LBB2345:
.LBB2346:
	.loc 4 270 0
	lis 9,_ZNSs4_Rep20_S_empty_rep_storageE+12@ha
.LBE2346:
.LBE2345:
.LBE2344:
.LBE2343:
.LBE2342:
.LBE2341:
	.loc 2 897 0
	stw 30,16(31)
.LBB2410:
.LBB2360:
.LBB2359:
.LBB2351:
.LBB2349:
.LBB2347:
	.loc 4 270 0
	la 0,_ZNSs4_Rep20_S_empty_rep_storageE+12@l(9)
.LBE2347:
.LBE2349:
.LBE2351:
	.loc 1 1291 0
	lis 9,_ZTV16TiXmlDeclaration+8@ha
	la 9,_ZTV16TiXmlDeclaration+8@l(9)
.LBB2352:
.LBB2350:
.LBB2348:
	.loc 4 270 0
	stw 0,44(31)
.LBE2348:
.LBE2350:
.LBE2352:
	.loc 1 1291 0
	stw 9,0(31)
.LVL577:
.LBB2353:
.LBB2354:
.LBB2355:
	.loc 4 270 0
	stw 0,48(31)
.LVL578:
.LBE2355:
.LBE2354:
.LBE2353:
.LBB2356:
.LBB2357:
.LBB2358:
	stw 0,52(31)
.LVL579:
.L496:
.LBE2358:
.LBE2357:
.LBE2356:
.LBE2359:
.LBE2360:
.LBE2410:
.LBE2416:
	.loc 2 900 0
	lwz 0,28(1)
	mr 3,31
	lwz 29,12(1)
	mtlr 0
	lwz 30,16(1)
.LVL580:
	lwz 31,20(1)
	addi 1,1,24
	.cfi_remember_state
	.cfi_restore 29
	.cfi_restore 30
	.cfi_restore 31
.LCFI88:
	.cfi_def_cfa_offset 0
	blr
.LVL581:
.L486:
.LCFI89:
	.cfi_restore_state
.LBB2417:
	.loc 2 833 0
	li 31,0
.LVL582:
.L460:
.LBE2417:
	.loc 2 900 0
	lwz 0,28(1)
	mr 3,31
	lwz 29,12(1)
	mtlr 0
	lwz 30,16(1)
.LVL583:
	lwz 31,20(1)
	addi 1,1,24
	.cfi_remember_state
.LCFI90:
	.cfi_def_cfa_offset 0
	.cfi_restore 31
	.cfi_restore 30
	.cfi_restore 29
	blr
.LVL584:
.L461:
.LCFI91:
	.cfi_restore_state
.LBB2418:
.LBB2411:
.LBB2361:
	.loc 2 855 0
	lis 4,.LC18@ha
	mr 3,29
	la 4,.LC18@l(4)
	li 5,0
	mr 6,31
.LEHB4:
	bl _ZN9TiXmlBase11StringEqualEPKcS1_b13TiXmlEncoding
.LEHE4:
	cmpwi 7,3,0
	beq- 7,.L467
	.loc 2 860 0
	lis 29,_ZSt7nothrow@ha
.LVL585:
	li 3,44
	la 29,_ZSt7nothrow@l(29)
	mr 4,29
	bl _ZnwjRKSt9nothrow_t
	mr. 31,3
.LVL586:
	beq- 0,.L460
.LVL587:
.LBB2362:
.LBB2363:
	.loc 1 1168 0
	li 4,2
.LEHB5:
	bl _ZN9TiXmlNodeC2ENS_8NodeTypeE
.LEHE5:
.LVL588:
	lis 9,_ZTV12TiXmlComment+8@ha
.LBE2363:
.LBE2362:
.LBE2361:
.LBE2411:
	.loc 2 897 0
	stw 30,16(31)
.LBB2412:
.LBB2406:
.LBB2365:
.LBB2364:
	.loc 1 1168 0
	la 0,_ZTV12TiXmlComment+8@l(9)
	stw 0,0(31)
	b .L496
.LVL589:
.L467:
.LBE2364:
.LBE2365:
.LBB2366:
	.loc 2 862 0
	lis 4,.LC19@ha
	mr 3,29
	la 4,.LC19@l(4)
	li 5,0
	mr 6,31
.LEHB6:
	bl _ZN9TiXmlBase11StringEqualEPKcS1_b13TiXmlEncoding
.LEHE6:
	cmpwi 7,3,0
	beq- 7,.L468
.LBB2367:
	.loc 2 867 0
	lis 29,_ZSt7nothrow@ha
.LVL590:
	li 3,48
	la 29,_ZSt7nothrow@l(29)
	mr 4,29
	bl _ZnwjRKSt9nothrow_t
	mr. 31,3
.LVL591:
	beq- 0,.L469
.LVL592:
.LBB2368:
.LBB2369:
.LBB2370:
	.loc 1 1222 0
	li 4,4
.LEHB7:
	bl _ZN9TiXmlNodeC2ENS_8NodeTypeE
.LEHE7:
.LVL593:
	lis 9,_ZTV9TiXmlText+8@ha
.LBB2371:
.LBB2372:
.LBB2373:
.LBB2374:
.LBB2375:
	.loc 4 1121 0
	lis 4,.LC7@ha
.LBE2375:
.LBE2374:
.LBE2373:
.LBE2372:
.LBE2371:
	.loc 1 1222 0
	la 0,_ZTV9TiXmlText+8@l(9)
.LBB2384:
.LBB2382:
.LBB2380:
.LBB2378:
.LBB2376:
	.loc 4 1121 0
	addi 3,31,32
.LBE2376:
.LBE2378:
.LBE2380:
.LBE2382:
.LBE2384:
	.loc 1 1222 0
	stw 0,0(31)
.LVL594:
.LBB2385:
.LBB2383:
.LBB2381:
.LBB2379:
.LBB2377:
	.loc 4 1121 0
	la 4,.LC7@l(4)
	li 5,0
.LEHB8:
	bl _ZNSs6assignEPKcj
.LEHE8:
.LVL595:
.LBE2377:
.LBE2379:
.LBE2381:
.LBE2383:
.LBE2385:
	.loc 1 1225 0
	li 0,0
	stb 0,44(31)
.LVL596:
.L469:
.LBE2370:
.LBE2369:
.LBE2368:
.LBB2388:
.LBB2389:
	.loc 1 1247 0 discriminator 4
	li 0,1
.LBE2389:
.LBE2388:
.LBE2367:
.LBE2366:
.LBE2406:
.LBE2412:
	.loc 2 897 0 discriminator 4
	stw 30,16(31)
.LBB2413:
.LBB2407:
.LBB2403:
.LBB2393:
.LBB2391:
.LBB2390:
	.loc 1 1247 0 discriminator 4
	stb 0,44(31)
.LVL597:
	b .L496
.LVL598:
.L468:
.LBE2390:
.LBE2391:
.LBE2393:
	.loc 2 871 0
	lis 4,.LC20@ha
	mr 3,29
	la 4,.LC20@l(4)
	li 5,0
	mr 6,31
.LEHB9:
	bl _ZN9TiXmlBase11StringEqualEPKcS1_b13TiXmlEncoding
.LEHE9:
	cmpwi 7,3,0
	bne- 7,.L497
	.loc 2 878 0
	lbz 31,1(29)
.LVL599:
.LBB2394:
.LBB2395:
	.loc 2 138 0
	cmplwi 7,31,126
	bgt- 7,.L474
	.loc 2 139 0
	mr 3,31
	bl isalpha
.LBE2395:
.LBE2394:
	.loc 2 878 0
	cmpwi 7,3,0
	bne- 7,.L474
	.loc 2 878 0 is_stmt 0 discriminator 2
	cmpwi 7,31,95
	beq- 7,.L474
	.loc 2 891 0 is_stmt 1
	lis 29,_ZSt7nothrow@ha
.LVL600:
	li 3,44
	la 29,_ZSt7nothrow@l(29)
	mr 4,29
	bl _ZnwjRKSt9nothrow_t
	mr. 31,3
.LVL601:
	beq- 0,.L460
.LVL602:
.LBB2396:
.LBB2397:
	.loc 1 1359 0
	li 4,3
.LEHB10:
	bl _ZN9TiXmlNodeC2ENS_8NodeTypeE
.LEHE10:
.LVL603:
.L494:
	lis 9,_ZTV12TiXmlUnknown+8@ha
.LBE2397:
.LBE2396:
.LBE2403:
.LBE2407:
.LBE2413:
	.loc 2 897 0
	stw 30,16(31)
.LBB2414:
.LBB2408:
.LBB2404:
.LBB2399:
.LBB2398:
	.loc 1 1359 0
	la 0,_ZTV12TiXmlUnknown+8@l(9)
	stw 0,0(31)
	b .L496
.LVL604:
.L497:
.LBE2398:
.LBE2399:
	.loc 2 876 0
	lis 29,_ZSt7nothrow@ha
.LVL605:
	li 3,44
	la 29,_ZSt7nothrow@l(29)
	mr 4,29
	bl _ZnwjRKSt9nothrow_t
	mr. 31,3
.LVL606:
	beq- 0,.L460
.LVL607:
.LBB2400:
.LBB2401:
	.loc 1 1359 0
	li 4,3
.LEHB11:
	bl _ZN9TiXmlNodeC2ENS_8NodeTypeE
.LEHE11:
.LVL608:
	b .L494
.LVL609:
.L474:
.LBE2401:
.LBE2400:
	.loc 2 884 0 discriminator 4
	lis 29,_ZSt7nothrow@ha
.LVL610:
	li 3,80
	la 29,_ZSt7nothrow@l(29)
	mr 4,29
	bl _ZnwjRKSt9nothrow_t
	mr. 31,3
.LVL611:
	beq- 0,.L460
	.loc 2 884 0 is_stmt 0 discriminator 1
	lis 4,.LC7@ha
	la 4,.LC7@l(4)
.LEHB12:
	bl _ZN12TiXmlElementC1EPKc
.LEHE12:
.LBE2404:
.LBE2408:
.LBE2414:
	.loc 2 897 0 is_stmt 1
	stw 30,16(31)
	b .L496
.LVL612:
.L487:
.L495:
	mr 30,3
.LVL613:
.LBB2415:
.LBB2409:
	.loc 2 860 0
	mr 4,29
	mr 3,31
	bl _ZdlPvRKSt9nothrow_t
	mr 3,30
.LEHB13:
	bl _Unwind_Resume
.LEHE13:
.LVL614:
.L488:
	b .L495
.LVL615:
.L491:
	b .L495
.LVL616:
.L493:
	mr 30,3
.LVL617:
.LBB2405:
.LBB2402:
.LBB2392:
.LBB2387:
.LBB2386:
	.loc 1 1222 0
	mr 3,31
	bl _ZN9TiXmlNodeD2Ev
.LVL618:
.L471:
.LBE2386:
.LBE2387:
.LBE2392:
	.loc 2 867 0
	mr 3,31
	mr 4,29
	bl _ZdlPvRKSt9nothrow_t
	mr 3,30
.LEHB14:
	bl _Unwind_Resume
.LEHE14:
.LVL619:
.L489:
	mr 30,3
.LVL620:
	b .L471
.LVL621:
.L492:
	b .L495
.LVL622:
.L490:
	b .L495
.LBE2402:
.LBE2405:
.LBE2409:
.LBE2415:
.LBE2418:
	.cfi_endproc
.LFE1235:
	.section	.gcc_except_table
.LLSDA1235:
	.byte	0xff
	.byte	0xff
	.byte	0x1
	.uleb128 .LLSDACSE1235-.LLSDACSB1235
.LLSDACSB1235:
	.uleb128 .LEHB2-.LFB1235
	.uleb128 .LEHE2-.LEHB2
	.uleb128 0
	.uleb128 0
	.uleb128 .LEHB3-.LFB1235
	.uleb128 .LEHE3-.LEHB3
	.uleb128 .L487-.LFB1235
	.uleb128 0
	.uleb128 .LEHB4-.LFB1235
	.uleb128 .LEHE4-.LEHB4
	.uleb128 0
	.uleb128 0
	.uleb128 .LEHB5-.LFB1235
	.uleb128 .LEHE5-.LEHB5
	.uleb128 .L488-.LFB1235
	.uleb128 0
	.uleb128 .LEHB6-.LFB1235
	.uleb128 .LEHE6-.LEHB6
	.uleb128 0
	.uleb128 0
	.uleb128 .LEHB7-.LFB1235
	.uleb128 .LEHE7-.LEHB7
	.uleb128 .L489-.LFB1235
	.uleb128 0
	.uleb128 .LEHB8-.LFB1235
	.uleb128 .LEHE8-.LEHB8
	.uleb128 .L493-.LFB1235
	.uleb128 0
	.uleb128 .LEHB9-.LFB1235
	.uleb128 .LEHE9-.LEHB9
	.uleb128 0
	.uleb128 0
	.uleb128 .LEHB10-.LFB1235
	.uleb128 .LEHE10-.LEHB10
	.uleb128 .L492-.LFB1235
	.uleb128 0
	.uleb128 .LEHB11-.LFB1235
	.uleb128 .LEHE11-.LEHB11
	.uleb128 .L490-.LFB1235
	.uleb128 0
	.uleb128 .LEHB12-.LFB1235
	.uleb128 .LEHE12-.LEHB12
	.uleb128 .L491-.LFB1235
	.uleb128 0
	.uleb128 .LEHB13-.LFB1235
	.uleb128 .LEHE13-.LEHB13
	.uleb128 0
	.uleb128 0
	.uleb128 .LEHB14-.LFB1235
	.uleb128 .LEHE14-.LEHB14
	.uleb128 0
	.uleb128 0
.LLSDACSE1235:
	.section	".text"
	.size	_ZN9TiXmlNode8IdentifyEPKc13TiXmlEncoding, .-_ZN9TiXmlNode8IdentifyEPKc13TiXmlEncoding
	.align 2
	.globl _ZN13TiXmlDocument5ParseEPKcP16TiXmlParsingData13TiXmlEncoding
	.type	_ZN13TiXmlDocument5ParseEPKcP16TiXmlParsingData13TiXmlEncoding, @function
_ZN13TiXmlDocument5ParseEPKcP16TiXmlParsingData13TiXmlEncoding:
.LFB1233:
	.loc 2 706 0
	.cfi_startproc
.LVL623:
	mflr 0
	stwu 1,-48(1)
.LCFI92:
	.cfi_def_cfa_offset 48
	.cfi_register 65, 0
	stw 29,36(1)
.LBB2444:
.LBB2445:
.LBB2446:
	.loc 1 1514 0
	li 29,0
	.cfi_offset 29, -12
.LBE2446:
.LBE2445:
.LBE2444:
	.loc 2 706 0
	stw 0,52(1)
.LBB2493:
.LBB2464:
.LBB2459:
	.loc 1 1513 0
	li 0,0
	.cfi_offset 65, 4
.LBE2459:
.LBE2464:
.LBE2493:
	.loc 2 706 0
	stw 27,28(1)
	mr 27,5
	.cfi_offset 27, -20
	stw 28,32(1)
.LBB2494:
.LBB2465:
.LBB2460:
.LBB2447:
.LBB2448:
.LBB2449:
	.loc 4 1121 0
	li 5,0
.LVL624:
.LBE2449:
.LBE2448:
.LBE2447:
.LBE2460:
.LBE2465:
.LBE2494:
	.loc 2 706 0
	stw 30,40(1)
	mr 28,3
	.cfi_offset 30, -8
	.cfi_offset 28, -16
.LVL625:
	stw 31,44(1)
	.loc 2 706 0
	mr 31,4
	.cfi_offset 31, -4
.LBB2495:
.LBB2466:
.LBB2461:
	.loc 1 1513 0
	stb 0,44(3)
.LBB2456:
.LBB2453:
.LBB2450:
	.loc 4 1121 0
	lis 4,.LC7@ha
.LVL626:
.LBE2450:
.LBE2453:
.LBE2456:
	.loc 1 1514 0
	stw 29,48(3)
.LVL627:
.LBB2457:
.LBB2454:
.LBB2451:
	.loc 4 1121 0
	la 4,.LC7@l(4)
	addi 3,3,52
.LVL628:
.LBE2451:
.LBE2454:
.LBE2457:
.LBE2461:
.LBE2466:
.LBE2495:
	.loc 2 706 0
	mr 30,6
.LBB2496:
.LBB2467:
.LBB2462:
.LBB2458:
.LBB2455:
.LBB2452:
	.loc 4 1121 0
	bl _ZNSs6assignEPKcj
.LVL629:
.LBE2452:
.LBE2455:
.LBE2458:
.LBE2462:
.LBE2467:
	.loc 2 712 0
	cmpwi 7,31,0
.LBB2468:
.LBB2463:
	.loc 1 1516 0
	stw 29,64(28)
	stw 29,60(28)
.LBE2463:
.LBE2468:
	.loc 2 712 0
	beq- 7,.L499
	.loc 2 712 0 is_stmt 0 discriminator 1
	lbz 0,0(31)
	cmpwi 7,0,0
	beq- 7,.L499
.LVL630:
	.loc 2 722 0 is_stmt 1
	cmpwi 7,27,0
.LBB2469:
.LBB2470:
	.loc 1 104 0
	li 0,-1
	stw 0,8(28)
	stw 0,4(28)
.LBE2470:
.LBE2469:
	.loc 2 722 0
	beq- 7,.L502
	.loc 2 724 0
	lwz 9,0(27)
	.loc 2 725 0
	lwz 0,4(27)
	.loc 2 724 0
	stw 9,4(28)
	.loc 2 725 0
	stw 0,8(28)
.L503:
.LBB2471:
.LBB2472:
	.loc 2 187 0
	stw 0,12(1)
.LBE2472:
.LBE2471:
.LBB2475:
	.loc 2 735 0
	cmpwi 7,30,0
.LBE2475:
.LBB2477:
.LBB2473:
	.loc 2 186 0
	stw 9,8(1)
.LBE2473:
.LBE2477:
	.loc 2 1638 0
	lwz 0,56(28)
.LVL631:
	.loc 2 733 0
	lwz 10,8(1)
	lwz 11,12(1)
.LBB2478:
.LBB2474:
	.loc 2 184 0
	stw 31,16(1)
	.loc 2 185 0
	stw 0,20(1)
.LBE2474:
.LBE2478:
	.loc 2 733 0
	stw 10,4(28)
	stw 11,8(28)
.LBB2479:
	.loc 2 735 0
	beq- 7,.L519
.LVL632:
.L504:
.LBE2479:
	.loc 2 748 0
	mr 3,31
	mr 4,30
	bl _ZN9TiXmlBase14SkipWhiteSpaceEPKc13TiXmlEncoding
.LVL633:
	.loc 2 749 0
	mr. 31,3
.LVL634:
	beq- 0,.L505
.L518:
	.loc 2 755 0 discriminator 2
	lbz 0,0(31)
	cmpwi 7,0,0
	bne- 7,.L520
.LVL635:
.L507:
	.loc 2 790 0
	lwz 0,24(28)
	cmpwi 7,0,0
	beq- 7,.L521
.LVL636:
.L501:
.LBE2496:
	.loc 2 797 0
	lwz 0,52(1)
	mr 3,31
	lwz 27,28(1)
.LVL637:
	mtlr 0
	lwz 28,32(1)
.LVL638:
	lwz 29,36(1)
	lwz 30,40(1)
.LVL639:
	lwz 31,44(1)
	addi 1,1,48
	.cfi_remember_state
.LCFI93:
	.cfi_def_cfa_offset 0
	.cfi_restore 31
	.cfi_restore 30
	.cfi_restore 29
	.cfi_restore 28
	.cfi_restore 27
	blr
.LVL640:
.L520:
.LCFI94:
	.cfi_restore_state
.LBB2497:
.LBB2480:
	.loc 2 757 0 discriminator 5
	mr 3,28
.LVL641:
	mr 4,31
	mr 5,30
	bl _ZN9TiXmlNode8IdentifyEPKc13TiXmlEncoding
.LVL642:
	.loc 2 758 0 discriminator 5
	mr. 29,3
	beq- 0,.L507
	.loc 2 760 0
	lwz 9,0(29)
	mr 4,31
	addi 5,1,8
	mr 6,30
	lwz 0,12(9)
	mtctr 0
	bctrl
.LVL643:
	.loc 2 761 0
	mr 4,29
	.loc 2 760 0
	mr 31,3
.LVL644:
	.loc 2 761 0
	mr 3,28
.LVL645:
	bl _ZN9TiXmlNode12LinkEndChildEPS_
.LBB2481:
	.loc 2 769 0
	cmpwi 7,30,0
	beq- 7,.L522
.LVL646:
.L510:
.LBE2481:
	.loc 2 786 0
	mr 3,31
	mr 4,30
	bl _ZN9TiXmlBase14SkipWhiteSpaceEPKc13TiXmlEncoding
.LVL647:
.LBE2480:
	.loc 2 755 0
	mr. 31,3
	bne+ 0,.L518
	b .L507
.LVL648:
.L522:
.LBB2490:
.LBB2488:
	.loc 2 770 0 discriminator 1
	lwz 9,0(29)
	mr 3,29
	lwz 0,60(9)
	mtctr 0
	bctrl
	.loc 2 769 0 discriminator 1
	cmpwi 7,3,0
	beq- 7,.L510
.LBB2482:
	.loc 2 772 0 discriminator 4
	lwz 9,0(29)
	mr 3,29
	lwz 0,60(9)
	mtctr 0
	bctrl
.LVL649:
.LBB2483:
.LBB2484:
.LBB2485:
.LBB2486:
	.loc 4 288 0 discriminator 4
	lwz 29,48(3)
.LVL650:
.LBE2486:
.LBE2485:
.LBE2484:
.LBE2483:
	.loc 2 774 0 discriminator 4
	cmpwi 7,29,0
	beq- 7,.L523
	.loc 2 776 0
	lbz 0,0(29)
	.loc 2 777 0
	li 30,1
.LVL651:
	.loc 2 776 0
	cmpwi 7,0,0
	beq+ 7,.L510
	.loc 2 778 0
	lis 4,.LC22@ha
	mr 3,29
.LVL652:
	la 4,.LC22@l(4)
	li 5,1
	li 6,0
	bl _ZN9TiXmlBase11StringEqualEPKcS1_b13TiXmlEncoding
.LVL653:
	cmpwi 7,3,0
	bne+ 7,.L510
	.loc 2 780 0
	lis 4,.LC23@ha
	mr 3,29
	la 4,.LC23@l(4)
	li 5,1
	li 6,0
	bl _ZN9TiXmlBase11StringEqualEPKcS1_b13TiXmlEncoding
	.loc 2 781 0
	cntlzw 3,3
	srwi 3,3,5
	addi 30,3,1
	b .L510
.LVL654:
.L519:
.LBE2482:
.LBE2488:
.LBE2490:
.LBB2491:
.LBB2476:
	.loc 2 739 0
	lbz 0,0(31)
.LVL655:
	cmpwi 7,0,239
	bne+ 7,.L504
	.loc 2 739 0 is_stmt 0 discriminator 1
	lbz 0,1(31)
	cmpwi 7,0,187
	bne+ 7,.L504
	.loc 2 739 0 discriminator 3
	lbz 0,2(31)
	cmpwi 7,0,191
	bne+ 7,.L504
.LVL656:
	.loc 2 744 0 is_stmt 1
	li 0,1
	.loc 2 743 0
	li 30,1
	.loc 2 744 0
	stb 0,68(28)
	b .L504
.LVL657:
.L502:
.LBE2476:
.LBE2491:
	.loc 2 729 0
	stw 27,4(28)
	.loc 2 730 0
	li 0,0
	stw 27,8(28)
	li 9,0
	b .L503
.LVL658:
.L499:
	.loc 2 714 0
	mr 3,28
	li 4,12
	li 5,0
	li 6,0
	li 7,0
	.loc 2 715 0
	li 31,0
.LVL659:
	.loc 2 714 0
	bl _ZN13TiXmlDocument8SetErrorEiPKcP16TiXmlParsingData13TiXmlEncoding
.LBE2497:
	.loc 2 797 0
	lwz 0,52(1)
	mr 3,31
	lwz 27,28(1)
.LVL660:
	mtlr 0
	lwz 28,32(1)
.LVL661:
	lwz 29,36(1)
	lwz 30,40(1)
.LVL662:
	lwz 31,44(1)
	addi 1,1,48
	.cfi_remember_state
	.cfi_restore 27
	.cfi_restore 28
	.cfi_restore 29
	.cfi_restore 30
	.cfi_restore 31
.LCFI95:
	.cfi_def_cfa_offset 0
	blr
.LVL663:
.L521:
.LCFI96:
	.cfi_restore_state
.LBB2498:
	.loc 2 791 0
	mr 3,28
	li 4,12
	li 5,0
	li 6,0
	mr 7,30
	.loc 2 792 0
	li 31,0
.LVL664:
	.loc 2 791 0
	bl _ZN13TiXmlDocument8SetErrorEiPKcP16TiXmlParsingData13TiXmlEncoding
	.loc 2 792 0
	b .L501
.LVL665:
.L505:
	.loc 2 751 0
	mr 3,28
.LVL666:
	li 4,12
	li 5,0
	li 6,0
	li 7,0
	bl _ZN13TiXmlDocument8SetErrorEiPKcP16TiXmlParsingData13TiXmlEncoding
	.loc 2 752 0
	b .L501
.LVL667:
.L523:
.LBB2492:
.LBB2489:
.LBB2487:
	.loc 2 774 0 discriminator 1
	lis 5,.LANCHOR1@ha
	lis 3,.LC1@ha
.LVL668:
	la 5,.LANCHOR1@l(5)
	lis 6,.LC21@ha
	la 3,.LC1@l(3)
	li 4,774
	addi 5,5,1528
	la 6,.LC21@l(6)
	bl __assert_func
.LBE2487:
.LBE2489:
.LBE2492:
.LBE2498:
	.cfi_endproc
.LFE1233:
	.size	_ZN13TiXmlDocument5ParseEPKcP16TiXmlParsingData13TiXmlEncoding, .-_ZN13TiXmlDocument5ParseEPKcP16TiXmlParsingData13TiXmlEncoding
	.align 2
	.globl _ZN13TiXmlDocument8StreamInEPSiPSs
	.type	_ZN13TiXmlDocument8StreamInEPSiPSs, @function
_ZN13TiXmlDocument8StreamInEPSiPSs:
.LFB1232:
	.loc 2 643 0
	.cfi_startproc
.LVL669:
	mflr 0
	stwu 1,-32(1)
.LCFI97:
	.cfi_def_cfa_offset 32
	.cfi_register 65, 0
	stw 28,16(1)
	mr 28,3
	.cfi_offset 28, -16
	stw 30,24(1)
	mr 30,5
	.cfi_offset 30, -8
	stw 31,28(1)
	mr 31,4
	.cfi_offset 31, -4
.LVL670:
	stw 0,36(1)
	stw 26,8(1)
	stw 27,12(1)
	stw 29,20(1)
	b .L549
	.cfi_offset 29, -12
	.cfi_offset 27, -20
	.cfi_offset 26, -24
	.cfi_offset 65, 4
.LVL671:
.L531:
.LBB2594:
.LBB2595:
.LBB2596:
.LBB2597:
.LBB2598:
	.loc 2 385 0
	bl _ZNSi4peekEv
.LVL672:
	mr 27,3
.LVL673:
	.loc 2 391 0
	mr 3,31
.LVL674:
	.loc 2 386 0
	cmpwi 7,27,60
	.loc 2 388 0
	cmpwi 6,27,0
	.loc 2 392 0
	rlwinm 27,27,0,0xff
.LVL675:
	.loc 2 386 0
	beq- 7,.L547
	.loc 2 388 0
	ble- 6,.L527
	.loc 2 391 0
	bl _ZNSi3getEv
.LVL676:
.LBB2599:
.LBB2600:
.LBB2601:
.LBB2602:
.LBB2603:
.LBB2604:
.LBB2605:
.LBB2606:
	.loc 4 288 0
	lwz 9,0(30)
.LBE2606:
.LBE2605:
.LBE2604:
.LBE2603:
.LBE2602:
	.loc 4 1047 0
	mr 3,30
.LBB2608:
.LBB2607:
	.loc 4 711 0
	lwz 11,-12(9)
.LBE2607:
.LBE2608:
	.loc 4 1046 0
	lwz 0,-8(9)
	.loc 4 1045 0
	addi 29,11,1
.LVL677:
	.loc 4 1046 0
	cmplw 7,29,0
	.loc 4 1047 0
	mr 4,29
	.loc 4 1046 0
	bgt- 7,.L528
.LVL678:
	lwz 0,-4(9)
	cmpwi 7,0,0
	ble- 7,.L529
.L528:
	.loc 4 1047 0
	bl _ZNSs7reserveEj
	lwz 9,0(30)
	lwz 11,-12(9)
.L529:
.LVL679:
.LBB2609:
.LBB2610:
	.loc 6 245 0
	stbx 27,9,11
.LVL680:
.LBE2610:
.LBE2609:
.LBB2611:
.LBB2612:
	.loc 4 205 0
	lis 10,_ZNSs4_Rep20_S_empty_rep_storageE@ha
	la 0,_ZNSs4_Rep20_S_empty_rep_storageE@l(10)
.LBE2612:
.LBE2611:
.LBB2621:
.LBB2622:
.LBB2623:
	.loc 4 288 0
	lwz 9,0(30)
.LVL681:
.LBE2623:
.LBE2622:
.LBE2621:
	.loc 4 1049 0
	addi 11,9,-12
.LBB2624:
.LBB2619:
	.loc 4 205 0
	cmpw 7,11,0
	bne- 7,.L555
.LVL682:
.L549:
.LBE2619:
.LBE2624:
.LBE2601:
.LBE2600:
.LBE2599:
.LBE2598:
	.loc 2 383 0
	lwz 9,0(31)
.LBB2629:
	.loc 2 385 0
	mr 3,31
.LBE2629:
.LBB2630:
	.loc 2 1638 0
	lwz 9,-12(9)
	add 9,31,9
.LBE2630:
	.loc 2 383 0
	lwz 0,20(9)
	cmpwi 7,0,0
	beq+ 7,.L531
.LVL683:
.L527:
.LBE2597:
.LBE2596:
.LBE2595:
.LBE2594:
	.loc 2 701 0
	lwz 0,36(1)
.LBB2683:
	.loc 2 653 0
	mr 3,28
.LBE2683:
	.loc 2 701 0
	lwz 26,8(1)
.LBB2684:
	.loc 2 653 0
	li 4,7
.LBE2684:
	.loc 2 701 0
	lwz 27,12(1)
	mtlr 0
	lwz 28,16(1)
.LVL684:
.LBB2685:
	.loc 2 653 0
	li 5,0
.LBE2685:
	.loc 2 701 0
	lwz 29,20(1)
.LBB2686:
	.loc 2 653 0
	li 6,0
.LBE2686:
	.loc 2 701 0
	lwz 30,24(1)
.LVL685:
.LBB2687:
	.loc 2 653 0
	li 7,0
.LBE2687:
	.loc 2 701 0
	lwz 31,28(1)
.LVL686:
	addi 1,1,32
	.cfi_remember_state
	.cfi_restore 26
	.cfi_restore 27
	.cfi_restore 28
	.cfi_restore 29
	.cfi_restore 30
	.cfi_restore 31
.LCFI98:
	.cfi_def_cfa_offset 0
.LBB2688:
	.loc 2 653 0
	b _ZN13TiXmlDocument8SetErrorEiPKcP16TiXmlParsingData13TiXmlEncoding
.LVL687:
.L558:
.LCFI99:
	.cfi_restore_state
.LBB2634:
.LBB2635:
.LBB2636:
	.loc 2 676 0
	lwz 4,0(30)
	mr 3,28
	li 5,0
	add 4,4,29
	bl _ZN9TiXmlNode8IdentifyEPKc13TiXmlEncoding
.LVL688:
.LBB2637:
	.loc 2 678 0
	mr. 29,3
.LVL689:
	beq- 0,.L542
.LBB2638:
	.loc 2 680 0
	lwz 9,0(29)
	mr 4,31
	mr 5,30
	lwz 0,72(9)
	mtctr 0
	bctrl
.LVL690:
	.loc 2 681 0
	lwz 9,0(29)
	mr 3,29
	lwz 0,44(9)
	mtctr 0
	bctrl
	.loc 2 682 0
	lwz 9,0(29)
	.loc 2 681 0
	mr 27,3
.LVL691:
	.loc 2 682 0
	mr 3,29
.LVL692:
	lwz 0,4(9)
	mtctr 0
	bctrl
.LVL693:
	.loc 2 687 0
	cmpwi 7,27,0
	bne- 7,.L556
.LVL694:
.L547:
.LBE2638:
.LBE2637:
.LBE2636:
.LBE2635:
.LBE2634:
	.loc 2 657 0 discriminator 1
	lwz 9,0(31)
	lwz 9,-12(9)
	add 9,31,9
	lwz 0,20(9)
	cmpwi 7,0,0
	bne- 7,.L542
.LVL695:
.LBB2680:
.LBB2639:
.LBB2640:
	.loc 4 717 0
	lwz 9,0(30)
.LBE2640:
.LBE2639:
	.loc 2 660 0
	li 0,0
.LBB2642:
.LBB2641:
	.loc 4 717 0
	lwz 29,-12(9)
.LVL696:
.L550:
.LBE2641:
.LBE2642:
	.loc 2 660 0 discriminator 1
	cmpwi 7,0,0
	beq- 7,.L557
.L533:
.LBB2643:
	.loc 2 671 0
	beq- 7,.L558
.LVL697:
.L542:
.LBE2643:
.LBE2680:
.LBE2688:
	.loc 2 701 0
	lwz 0,36(1)
.LBB2689:
	.loc 2 700 0
	mr 3,28
.LBE2689:
	.loc 2 701 0
	lwz 26,8(1)
.LBB2690:
	.loc 2 700 0
	li 4,1
.LBE2690:
	.loc 2 701 0
	lwz 27,12(1)
	mtlr 0
	lwz 28,16(1)
.LVL698:
.LBB2691:
	.loc 2 653 0
	li 5,0
.LBE2691:
	.loc 2 701 0
	lwz 29,20(1)
.LBB2692:
	.loc 2 653 0
	li 6,0
.LBE2692:
	.loc 2 701 0
	lwz 30,24(1)
.LVL699:
.LBB2693:
	.loc 2 653 0
	li 7,0
.LBE2693:
	.loc 2 701 0
	lwz 31,28(1)
.LVL700:
	addi 1,1,32
	.cfi_remember_state
.LCFI100:
	.cfi_def_cfa_offset 0
	.cfi_restore 31
	.cfi_restore 30
	.cfi_restore 29
	.cfi_restore 28
	.cfi_restore 27
	.cfi_restore 26
.LBB2694:
	.loc 2 653 0
	b _ZN13TiXmlDocument8SetErrorEiPKcP16TiXmlParsingData13TiXmlEncoding
.LVL701:
.L557:
.LCFI101:
	.cfi_restore_state
.LBB2681:
	.loc 2 660 0 discriminator 2
	mr 3,31
	bl _ZNSi4peekEv
	cmpwi 7,3,62
.LBB2644:
	.loc 2 662 0 discriminator 2
	mr 3,31
.LBE2644:
	.loc 2 660 0 discriminator 2
	beq- 7,.L553
.LBB2678:
	.loc 2 662 0 discriminator 5
	bl _ZNSi3getEv
.LVL702:
	.loc 2 663 0 discriminator 5
	mr. 26,3
.LBB2645:
.LBB2646:
.LBB2647:
	.loc 4 1047 0 discriminator 5
	mr 3,30
.LVL703:
.LBE2647:
.LBE2646:
.LBE2645:
	.loc 2 668 0 discriminator 5
	rlwinm 26,26,0,0xff
.LVL704:
	.loc 2 663 0 discriminator 5
	ble- 0,.L559
.LVL705:
.LBB2676:
.LBB2674:
.LBB2672:
.LBB2648:
.LBB2649:
.LBB2650:
.LBB2651:
.LBB2652:
	.loc 4 288 0
	lwz 9,0(30)
.LBE2652:
.LBE2651:
.LBE2650:
	.loc 4 711 0
	lwz 11,-12(9)
.LBE2649:
.LBE2648:
	.loc 4 1046 0
	lwz 0,-8(9)
	.loc 4 1045 0
	addi 27,11,1
.LVL706:
	.loc 4 1046 0
	cmplw 7,27,0
	.loc 4 1047 0
	mr 4,27
	.loc 4 1046 0
	bgt- 7,.L534
.LVL707:
	lwz 0,-4(9)
	cmpwi 7,0,0
	ble- 7,.L535
.L534:
	.loc 4 1047 0
	bl _ZNSs7reserveEj
	lwz 9,0(30)
	lwz 11,-12(9)
.L535:
.LVL708:
.LBB2653:
.LBB2654:
	.loc 6 245 0
	stbx 26,9,11
.LVL709:
.LBE2654:
.LBE2653:
.LBB2655:
.LBB2656:
	.loc 4 205 0
	lis 10,_ZNSs4_Rep20_S_empty_rep_storageE@ha
	la 0,_ZNSs4_Rep20_S_empty_rep_storageE@l(10)
.LBE2656:
.LBE2655:
.LBB2667:
.LBB2668:
.LBB2669:
	.loc 4 288 0
	lwz 9,0(30)
.LVL710:
.LBE2669:
.LBE2668:
.LBE2667:
	.loc 4 1049 0
	addi 11,9,-12
.LBB2670:
.LBB2665:
	.loc 4 205 0
	cmpw 7,11,0
	bne- 7,.L536
.L552:
.LBB2657:
.LBB2658:
	.loc 6 245 0
	lwz 9,0(31)
	lwz 9,-12(9)
	add 9,31,9
	lwz 0,20(9)
	b .L550
.LVL711:
.L559:
.LBE2658:
.LBE2657:
.LBE2665:
.LBE2670:
.LBE2672:
.LBE2674:
.LBE2676:
	.loc 2 665 0
	mr 3,28
	li 4,13
	li 5,0
	li 6,0
	li 7,0
	bl _ZN13TiXmlDocument8SetErrorEiPKcP16TiXmlParsingData13TiXmlEncoding
.L553:
.LBE2678:
	.loc 2 660 0
	lwz 9,0(31)
	lwz 9,-12(9)
	add 9,31,9
	lwz 0,20(9)
	cmpwi 7,0,0
	b .L533
.LVL712:
.L536:
.LBB2679:
.LBB2677:
.LBB2675:
.LBB2673:
.LBB2671:
.LBB2666:
.LBB2660:
.LBB2661:
	.loc 4 199 0
	li 0,0
.LBE2661:
.LBE2660:
	.loc 4 209 0
	stw 27,-12(9)
.LVL713:
.LBB2663:
.LBB2662:
	.loc 4 199 0
	stw 0,-4(9)
.LBE2662:
.LBE2663:
.LBB2664:
.LBB2659:
	.loc 6 245 0
	stbx 0,9,27
	b .L552
.LVL714:
.L556:
.LBE2659:
.LBE2664:
.LBE2666:
.LBE2671:
.LBE2673:
.LBE2675:
.LBE2677:
.LBE2679:
.LBE2681:
.LBE2694:
	.loc 2 701 0
	lwz 0,36(1)
	lwz 26,8(1)
	mtlr 0
	lwz 27,12(1)
.LVL715:
	lwz 28,16(1)
.LVL716:
	lwz 29,20(1)
	lwz 30,24(1)
.LVL717:
	lwz 31,28(1)
.LVL718:
	addi 1,1,32
	.cfi_remember_state
.LCFI102:
	.cfi_def_cfa_offset 0
	.cfi_restore 31
	.cfi_restore 30
	.cfi_restore 29
	.cfi_restore 28
	.cfi_restore 27
	.cfi_restore 26
	blr
.LVL719:
.L555:
.LCFI103:
	.cfi_restore_state
.LBB2695:
.LBB2682:
.LBB2633:
.LBB2632:
.LBB2631:
.LBB2628:
.LBB2627:
.LBB2626:
.LBB2625:
.LBB2620:
.LBB2613:
.LBB2614:
	.loc 4 199 0
	li 0,0
.LBE2614:
.LBE2613:
	.loc 4 209 0
	stw 29,-12(9)
.LVL720:
.LBB2616:
.LBB2615:
	.loc 4 199 0
	stw 0,-4(9)
.LBE2615:
.LBE2616:
.LBB2617:
.LBB2618:
	.loc 6 245 0
	stbx 0,9,29
	b .L549
.LBE2618:
.LBE2617:
.LBE2620:
.LBE2625:
.LBE2626:
.LBE2627:
.LBE2628:
.LBE2631:
.LBE2632:
.LBE2633:
.LBE2682:
.LBE2695:
	.cfi_endproc
.LFE1232:
	.size	_ZN13TiXmlDocument8StreamInEPSiPSs, .-_ZN13TiXmlDocument8StreamInEPSiPSs
	.align 2
	.globl _ZN12TiXmlElement9ReadValueEPKcP16TiXmlParsingData13TiXmlEncoding
	.type	_ZN12TiXmlElement9ReadValueEPKcP16TiXmlParsingData13TiXmlEncoding, @function
_ZN12TiXmlElement9ReadValueEPKcP16TiXmlParsingData13TiXmlEncoding:
.LFB1242:
	.loc 2 1181 0
	.cfi_startproc
	.cfi_personality 0,__gxx_personality_v0
	.cfi_lsda 0,.LLSDA1242
.LVL721:
	mflr 0
	stwu 1,-48(1)
.LCFI104:
	.cfi_def_cfa_offset 48
	.cfi_register 65, 0
	stw 24,16(1)
	stw 25,20(1)
	mr 25,4
	.cfi_offset 25, -28
	.cfi_offset 24, -32
	stw 26,24(1)
	mr 26,3
	.cfi_offset 26, -24
.LVL722:
	stw 27,28(1)
	mr 27,5
	.cfi_offset 27, -20
	stw 29,36(1)
	mr 29,6
	.cfi_offset 29, -12
	stw 0,52(1)
	stw 22,8(1)
	stw 23,12(1)
	stw 28,32(1)
	stw 30,40(1)
	stw 31,44(1)
.LEHB15:
.LBB2733:
.LBB2734:
.LBB2735:
	.loc 1 693 0
	.cfi_offset 31, -4
	.cfi_offset 30, -8
	.cfi_offset 28, -16
	.cfi_offset 23, -36
	.cfi_offset 22, -40
	.cfi_offset 65, 4
	bl _ZNK9TiXmlNode11GetDocumentEv
.LEHE15:
.LVL723:
	mr 24,3
.LVL724:
.L574:
.LBE2735:
.LBE2734:
.LBB2736:
	.loc 2 1240 0
	mr 3,25
	mr 4,29
	bl _ZN9TiXmlBase14SkipWhiteSpaceEPKc13TiXmlEncoding
.LVL725:
.LBE2736:
	.loc 2 1188 0
	mr. 30,3
	beq- 0,.L561
.L595:
	.loc 2 1188 0 is_stmt 0 discriminator 2
	lbz 0,0(30)
	cmpwi 7,0,0
	bne- 7,.L592
.LVL726:
.L564:
.LBE2733:
	.loc 2 1248 0 is_stmt 1
	lwz 0,52(1)
	mr 3,30
	lwz 22,8(1)
	mtlr 0
	lwz 23,12(1)
	lwz 24,16(1)
.LVL727:
	lwz 25,20(1)
.LVL728:
	lwz 26,24(1)
.LVL729:
	lwz 27,28(1)
.LVL730:
	lwz 28,32(1)
	lwz 29,36(1)
.LVL731:
	lwz 30,40(1)
	lwz 31,44(1)
	addi 1,1,48
	.cfi_remember_state
.LCFI105:
	.cfi_def_cfa_offset 0
	.cfi_restore 31
	.cfi_restore 30
	.cfi_restore 29
	.cfi_restore 28
	.cfi_restore 27
	.cfi_restore 26
	.cfi_restore 25
	.cfi_restore 24
	.cfi_restore 23
	.cfi_restore 22
	blr
.LVL732:
.L592:
.LCFI106:
	.cfi_restore_state
.LBB2793:
.LBB2789:
.LBB2737:
	.loc 2 1190 0 discriminator 5
	cmpwi 7,0,60
	beq- 7,.L593
.LBB2738:
	.loc 2 1193 0
	lis 28,_ZSt7nothrow@ha
	li 3,48
.LVL733:
	la 28,_ZSt7nothrow@l(28)
	mr 4,28
	bl _ZnwjRKSt9nothrow_t
	mr. 31,3
	beq- 0,.L579
.LVL734:
.LBB2739:
.LBB2740:
.LBB2741:
	.loc 1 1222 0
	li 4,4
.LEHB16:
	bl _ZN9TiXmlNodeC2ENS_8NodeTypeE
.LEHE16:
.LVL735:
	lis 9,_ZTV9TiXmlText+8@ha
.LBB2742:
.LBB2743:
.LBB2744:
.LBB2745:
.LBB2746:
	.loc 4 1121 0
	lis 4,.LC7@ha
.LBE2746:
.LBE2745:
.LBE2744:
.LBE2743:
.LBE2742:
	.loc 1 1222 0
	la 0,_ZTV9TiXmlText+8@l(9)
.LBB2755:
.LBB2753:
.LBB2751:
.LBB2749:
.LBB2747:
	.loc 4 1121 0
	addi 3,31,32
.LBE2747:
.LBE2749:
.LBE2751:
.LBE2753:
.LBE2755:
	.loc 1 1222 0
	stw 0,0(31)
.LVL736:
.LBB2756:
.LBB2754:
.LBB2752:
.LBB2750:
.LBB2748:
	.loc 4 1121 0
	la 4,.LC7@l(4)
	li 5,0
.LEHB17:
	bl _ZNSs6assignEPKcj
.LEHE17:
.LVL737:
.LBE2748:
.LBE2750:
.LBE2752:
.LBE2754:
.LBE2756:
.LBE2741:
.LBE2740:
.LBE2739:
	.loc 2 1200 0
	lis 9,_ZN9TiXmlBase18condenseWhiteSpaceE@ha
	lbz 0,_ZN9TiXmlBase18condenseWhiteSpaceE@l(9)
	cmpwi 7,0,0
.LBB2761:
.LBB2759:
.LBB2757:
	.loc 1 1225 0
	li 0,0
	stb 0,44(31)
.LVL738:
.LBE2757:
.LBE2759:
.LBE2761:
	.loc 2 1200 0
	beq- 7,.L594
	.loc 2 1202 0
	lwz 9,0(31)
	mr 3,31
	mr 4,30
	lwz 0,12(9)
.L588:
	.loc 2 1208 0
	mr 5,27
	mr 6,29
	mtctr 0
.LEHB18:
	bctrl
.LBB2762:
.LBB2763:
.LBB2764:
.LBB2765:
.LBB2766:
.LBB2767:
.LBB2768:
	.loc 4 288 0
	lwz 23,32(31)
.LBE2768:
.LBE2767:
.LBE2766:
.LBE2765:
.LBE2764:
.LBE2763:
.LBE2762:
	.loc 2 1208 0
	mr 25,3
.LVL739:
.LBB2776:
.LBB2775:
.LBB2770:
.LBB2769:
	.loc 4 717 0
	lwz 22,-12(23)
.LBE2769:
.LBE2770:
	.loc 2 1634 0
	cmpwi 7,22,0
	beq- 7,.L570
	li 30,0
	b .L573
.LVL740:
.L571:
	addi 30,30,1
.LVL741:
	cmpw 7,30,22
	beq- 7,.L570
.LVL742:
.L573:
	.loc 2 1635 0
	lbzx 28,23,30
.LVL743:
.LBB2771:
.LBB2772:
	.loc 1 294 0
	mr 3,28
	bl isspace
	cmpwi 7,3,0
	bne- 7,.L571
.LVL744:
.LBB2773:
.LBB2774:
	cmpwi 7,28,10
	beq- 7,.L571
.LBE2774:
.LBE2773:
.LBE2772:
.LBE2771:
	.loc 2 1635 0
	cmpwi 7,28,13
	beq+ 7,.L571
.LBE2775:
.LBE2776:
.LBE2738:
.LBB2778:
.LBB2779:
	.loc 2 1231 0
	mr 3,26
	mr 4,31
	bl _ZN9TiXmlNode12LinkEndChildEPS_
.LVL745:
.L596:
.LBE2779:
.LBE2778:
.LBE2737:
	.loc 2 1240 0
	mr 3,25
	mr 4,29
	bl _ZN9TiXmlBase14SkipWhiteSpaceEPKc13TiXmlEncoding
.LVL746:
.LBE2789:
	.loc 2 1188 0
	mr. 30,3
	bne+ 0,.L595
.L561:
	.loc 2 1245 0
	cmpwi 7,24,0
	li 30,0
	beq- 7,.L564
	.loc 2 1245 0 is_stmt 0 discriminator 1
	mr 3,24
.LVL747:
	li 4,5
	li 5,0
	li 6,0
	mr 7,29
	bl _ZN13TiXmlDocument8SetErrorEiPKcP16TiXmlParsingData13TiXmlEncoding
	b .L564
.LVL748:
.L570:
.LBB2790:
.LBB2786:
.LBB2782:
	.loc 2 1214 0 is_stmt 1
	lwz 9,0(31)
	mr 3,31
	lwz 0,4(9)
	mtctr 0
	bctrl
	b .L574
.LVL749:
.L594:
	.loc 2 1208 0
	lwz 9,0(31)
	mr 3,31
	mr 4,25
	lwz 0,12(9)
	b .L588
.LVL750:
.L593:
.LBE2782:
.LBB2783:
	.loc 2 1221 0
	lis 4,.LC24@ha
	mr 3,30
	la 4,.LC24@l(4)
	li 5,0
	mr 6,29
	bl _ZN9TiXmlBase11StringEqualEPKcS1_b13TiXmlEncoding
	cmpwi 7,3,0
	bne- 7,.L564
.LBB2780:
	.loc 2 1227 0
	mr 3,26
	mr 4,30
	mr 5,29
	bl _ZN9TiXmlNode8IdentifyEPKc13TiXmlEncoding
.LVL751:
	.loc 2 1228 0
	mr. 31,3
	beq- 0,.L579
	.loc 2 1230 0
	lwz 9,0(31)
	mr 4,30
	mr 5,27
	mr 6,29
	lwz 0,12(9)
	mtctr 0
	bctrl
.LVL752:
	.loc 2 1231 0
	mr 4,31
	.loc 2 1230 0
	mr 25,3
.LVL753:
	.loc 2 1231 0
	mr 3,26
.LVL754:
	bl _ZN9TiXmlNode12LinkEndChildEPS_
	b .L596
.LVL755:
.L579:
.LBE2780:
.LBE2783:
.LBE2786:
.LBE2790:
.LBE2793:
	.loc 2 1248 0
	lwz 0,52(1)
.LBB2794:
.LBB2791:
.LBB2787:
.LBB2784:
.LBB2781:
	.loc 2 1235 0
	li 30,0
.LVL756:
.LBE2781:
.LBE2784:
.LBE2787:
.LBE2791:
.LBE2794:
	.loc 2 1248 0
	mr 3,30
	lwz 22,8(1)
	mtlr 0
	lwz 23,12(1)
	lwz 24,16(1)
.LVL757:
	lwz 25,20(1)
.LVL758:
	lwz 26,24(1)
.LVL759:
	lwz 27,28(1)
.LVL760:
	lwz 28,32(1)
	lwz 29,36(1)
.LVL761:
	lwz 30,40(1)
	lwz 31,44(1)
	addi 1,1,48
	.cfi_remember_state
	.cfi_restore 22
	.cfi_restore 23
	.cfi_restore 24
	.cfi_restore 25
	.cfi_restore 26
	.cfi_restore 27
	.cfi_restore 28
	.cfi_restore 29
	.cfi_restore 30
	.cfi_restore 31
.LCFI107:
	.cfi_def_cfa_offset 0
	blr
.LVL762:
.L582:
.LCFI108:
	.cfi_restore_state
	mr 30,3
.LVL763:
.L568:
.LBB2795:
.LBB2792:
.LBB2788:
.LBB2785:
	.loc 2 1193 0
	mr 3,31
	mr 4,28
	bl _ZdlPvRKSt9nothrow_t
	mr 3,30
	bl _Unwind_Resume
.LEHE18:
.LVL764:
.L583:
	mr 30,3
.LVL765:
.LBB2777:
.LBB2760:
.LBB2758:
	.loc 1 1222 0
	mr 3,31
	bl _ZN9TiXmlNodeD2Ev
	b .L568
.LBE2758:
.LBE2760:
.LBE2777:
.LBE2785:
.LBE2788:
.LBE2792:
.LBE2795:
	.cfi_endproc
.LFE1242:
	.section	.gcc_except_table
.LLSDA1242:
	.byte	0xff
	.byte	0xff
	.byte	0x1
	.uleb128 .LLSDACSE1242-.LLSDACSB1242
.LLSDACSB1242:
	.uleb128 .LEHB15-.LFB1242
	.uleb128 .LEHE15-.LEHB15
	.uleb128 0
	.uleb128 0
	.uleb128 .LEHB16-.LFB1242
	.uleb128 .LEHE16-.LEHB16
	.uleb128 .L582-.LFB1242
	.uleb128 0
	.uleb128 .LEHB17-.LFB1242
	.uleb128 .LEHE17-.LEHB17
	.uleb128 .L583-.LFB1242
	.uleb128 0
	.uleb128 .LEHB18-.LFB1242
	.uleb128 .LEHE18-.LEHB18
	.uleb128 0
	.uleb128 0
.LLSDACSE1242:
	.section	".text"
	.size	_ZN12TiXmlElement9ReadValueEPKcP16TiXmlParsingData13TiXmlEncoding, .-_ZN12TiXmlElement9ReadValueEPKcP16TiXmlParsingData13TiXmlEncoding
	.align 2
	.globl _ZN12TiXmlElement5ParseEPKcP16TiXmlParsingData13TiXmlEncoding
	.type	_ZN12TiXmlElement5ParseEPKcP16TiXmlParsingData13TiXmlEncoding, @function
_ZN12TiXmlElement5ParseEPKcP16TiXmlParsingData13TiXmlEncoding:
.LFB1237:
	.loc 2 1045 0
	.cfi_startproc
	.cfi_personality 0,__gxx_personality_v0
	.cfi_lsda 0,.LLSDA1237
.LVL766:
	stwu 1,-56(1)
.LCFI109:
	.cfi_def_cfa_offset 56
	mflr 0
	stw 29,44(1)
	mr 29,3
	.cfi_offset 29, -12
	.cfi_register 65, 0
.LBB2865:
	.loc 2 1046 0
	mr 3,4
.LVL767:
	mr 4,6
.LVL768:
.LBE2865:
	.loc 2 1045 0
	stw 0,60(1)
	stw 26,32(1)
	stw 27,36(1)
	mr 27,5
	.cfi_offset 27, -20
	.cfi_offset 26, -24
	.cfi_offset 65, 4
	stw 30,48(1)
	stw 31,52(1)
	mr 31,6
	.cfi_offset 31, -4
	.cfi_offset 30, -8
	stw 24,24(1)
	stw 25,28(1)
	stw 28,40(1)
.LBB2937:
	.loc 2 1046 0
	.cfi_offset 28, -16
	.cfi_offset 25, -28
	.cfi_offset 24, -32
	bl _ZN9TiXmlBase14SkipWhiteSpaceEPKc13TiXmlEncoding
.LVL769:
	mr 26,3
.LVL770:
.LBB2866:
.LBB2867:
	.loc 1 693 0
	mr 3,29
.LVL771:
.LEHB19:
	bl _ZNK9TiXmlNode11GetDocumentEv
.LBE2867:
.LBE2866:
	.loc 2 1049 0
	cmpwi 7,26,0
.LBB2869:
.LBB2868:
	.loc 1 693 0
	mr 30,3
.LVL772:
.LBE2868:
.LBE2869:
	.loc 2 1049 0
	beq- 7,.L598
	.loc 2 1049 0 is_stmt 0 discriminator 1
	lbz 0,0(26)
	cmpwi 7,0,0
	beq- 7,.L598
	.loc 2 1055 0 is_stmt 1
	cmpwi 7,27,0
	beq- 7,.L601
	.loc 2 1057 0
	mr 3,27
.LVL773:
	mr 4,26
	mr 5,31
	bl _ZN16TiXmlParsingData5StampEPKc13TiXmlEncoding
.LVL774:
	.loc 2 1058 0
	lwz 10,0(27)
	lwz 11,4(27)
	stw 10,4(29)
	stw 11,8(29)
	lbz 0,0(26)
.LVL775:
.L601:
	.loc 2 1061 0
	cmpwi 7,0,60
	beq- 7,.L602
	.loc 2 1063 0
	cmpwi 7,30,0
	.loc 2 1064 0
	li 28,0
	.loc 2 1063 0
	beq- 7,.L632
	.loc 2 1063 0 is_stmt 0 discriminator 1
	mr 3,30
	li 4,3
	mr 5,26
	mr 6,27
	mr 7,31
	bl _ZN13TiXmlDocument8SetErrorEiPKcP16TiXmlParsingData13TiXmlEncoding
.LVL776:
.L632:
.LBE2937:
	.loc 2 1177 0 is_stmt 1
	lwz 0,60(1)
	mr 3,28
	lwz 24,24(1)
	mtlr 0
	lwz 25,28(1)
	lwz 26,32(1)
	lwz 27,36(1)
.LVL777:
	lwz 28,40(1)
	lwz 29,44(1)
	lwz 30,48(1)
.LVL778:
	lwz 31,52(1)
.LVL779:
	addi 1,1,56
	.cfi_remember_state
.LCFI110:
	.cfi_def_cfa_offset 0
	.cfi_restore 31
	.cfi_restore 30
	.cfi_restore 29
	.cfi_restore 28
	.cfi_restore 27
	.cfi_restore 26
	.cfi_restore 25
	.cfi_restore 24
	blr
.LVL780:
.L598:
.LCFI111:
	.cfi_restore_state
.LBB2938:
	.loc 2 1051 0
	cmpwi 7,30,0
	.loc 2 1052 0
	li 28,0
	.loc 2 1051 0
	beq- 7,.L632
	.loc 2 1051 0 is_stmt 0 discriminator 1
	mr 3,30
.LVL781:
	mr 7,31
	li 4,3
	li 5,0
	li 6,0
	bl _ZN13TiXmlDocument8SetErrorEiPKcP16TiXmlParsingData13TiXmlEncoding
.LBE2938:
	.loc 2 1177 0 is_stmt 1 discriminator 1
	lwz 0,60(1)
	mr 3,28
	lwz 24,24(1)
	mtlr 0
	lwz 25,28(1)
	lwz 26,32(1)
.LVL782:
	lwz 27,36(1)
.LVL783:
	lwz 28,40(1)
	lwz 29,44(1)
.LVL784:
	lwz 30,48(1)
.LVL785:
	lwz 31,52(1)
.LVL786:
	addi 1,1,56
	.cfi_remember_state
	.cfi_restore 24
	.cfi_restore 25
	.cfi_restore 26
	.cfi_restore 27
	.cfi_restore 28
	.cfi_restore 29
	.cfi_restore 30
	.cfi_restore 31
.LCFI112:
	.cfi_def_cfa_offset 0
	blr
.LVL787:
.L602:
.LCFI113:
	.cfi_restore_state
.LBB2939:
	.loc 2 1067 0
	mr 4,31
	addi 3,26,1
	.loc 2 1072 0
	addi 26,29,32
.LVL788:
	.loc 2 1067 0
	bl _ZN9TiXmlBase14SkipWhiteSpaceEPKc13TiXmlEncoding
.LVL789:
	.loc 2 1072 0
	mr 4,26
	mr 5,31
	.loc 2 1067 0
	mr 25,3
.LVL790:
	.loc 2 1072 0
	bl _ZN9TiXmlBase8ReadNameEPKcPSs13TiXmlEncoding
.LVL791:
	.loc 2 1073 0
	mr. 28,3
	beq- 0,.L603
	.loc 2 1073 0 is_stmt 0 discriminator 1
	lbz 0,0(28)
	cmpwi 7,0,0
	bne- 7,.L604
.L603:
	.loc 2 1075 0 is_stmt 1
	cmpwi 7,30,0
	.loc 2 1076 0
	li 28,0
	.loc 2 1075 0
	beq- 7,.L632
	.loc 2 1075 0 is_stmt 0 discriminator 1
	mr 3,30
.LVL792:
	li 4,4
	mr 5,25
	mr 6,27
	mr 7,31
	bl _ZN13TiXmlDocument8SetErrorEiPKcP16TiXmlParsingData13TiXmlEncoding
	b .L632
.LVL793:
.L604:
	.loc 2 1079 0 is_stmt 1
	lis 4,.LC24@ha
	addi 3,1,12
.LVL794:
	la 4,.LC24@l(4)
	addi 5,1,9
	bl _ZNSsC1EPKcRKSaIcE
.LEHE19:
.LVL795:
.LBB2870:
.LBB2871:
	.loc 4 925 0
	addi 3,1,12
.LVL796:
	mr 4,26
.LEHB20:
	bl _ZNSs6appendERKSs
.LVL797:
	b .L652
.LVL798:
.L660:
.LBE2871:
.LBE2870:
.LBB2872:
	.loc 2 1087 0 discriminator 5
	mr 3,28
	mr 4,31
	bl _ZN9TiXmlBase14SkipWhiteSpaceEPKc13TiXmlEncoding
.LVL799:
	.loc 2 1088 0 discriminator 5
	mr. 24,3
	beq- 0,.L626
	.loc 2 1088 0 is_stmt 0 discriminator 1
	lbz 0,0(24)
	cmpwi 7,0,0
	beq- 7,.L626
.LBB2873:
	.loc 2 1093 0 is_stmt 1
	cmpwi 7,0,47
	beq- 7,.L667
.LBB2874:
	.loc 2 1104 0
	cmpwi 7,0,62
	beq- 7,.L668
.LBB2875:
	.loc 2 1143 0
	lis 4,_ZSt7nothrow@ha
	li 3,36
.LVL800:
	la 4,_ZSt7nothrow@l(4)
	bl _ZnwjRKSt9nothrow_t
	mr. 26,3
	beq- 0,.L658
.LVL801:
.LBB2876:
.LBB2877:
.LBB2878:
.LBB2879:
.LBB2880:
.LBB2881:
.LBB2882:
	.loc 1 104 0
	li 11,-1
.LBE2882:
.LBE2881:
.LBE2880:
.LBE2879:
.LBE2878:
.LBB2891:
.LBB2892:
.LBB2893:
	.loc 4 270 0
	lis 9,_ZNSs4_Rep20_S_empty_rep_storageE+12@ha
.LBE2893:
.LBE2892:
.LBE2891:
.LBB2898:
.LBB2889:
.LBB2887:
.LBB2885:
.LBB2883:
	.loc 1 104 0
	stw 11,8(26)
.LBE2883:
.LBE2885:
.LBE2887:
	.loc 1 203 0
	li 0,0
.LBB2888:
.LBB2886:
.LBB2884:
	.loc 1 104 0
	stw 11,4(26)
.LBE2884:
.LBE2886:
.LBE2888:
.LBE2889:
.LBE2898:
	.loc 1 787 0
	lis 11,_ZTV14TiXmlAttribute+8@ha
.LBB2899:
.LBB2896:
.LBB2894:
	.loc 4 270 0
	la 9,_ZNSs4_Rep20_S_empty_rep_storageE+12@l(9)
.LBE2894:
.LBE2896:
.LBE2899:
	.loc 1 787 0
	la 11,_ZTV14TiXmlAttribute+8@l(11)
.LBB2900:
.LBB2890:
	.loc 1 203 0
	stw 0,12(26)
.LBE2890:
.LBE2900:
.LBE2877:
.LBE2876:
	.loc 2 1151 0
	mr 4,24
.LBB2908:
.LBB2905:
	.loc 1 787 0
	stw 11,0(26)
.LVL802:
.LBE2905:
.LBE2908:
	.loc 2 1151 0
	mr 5,27
.LBB2909:
.LBB2906:
.LBB2901:
.LBB2897:
.LBB2895:
	.loc 4 270 0
	stw 9,20(26)
.LVL803:
.LBE2895:
.LBE2897:
.LBE2901:
.LBE2906:
.LBE2909:
	.loc 2 1151 0
	mr 6,31
.LBB2910:
.LBB2907:
.LBB2902:
.LBB2903:
.LBB2904:
	.loc 4 270 0
	stw 9,24(26)
.LBE2904:
.LBE2903:
.LBE2902:
	.loc 1 790 0
	stw 0,32(26)
	stw 0,28(26)
.LVL804:
.LBE2907:
.LBE2910:
.LBB2911:
.LBB2912:
	.loc 1 879 0
	stw 30,16(26)
.LVL805:
.LBE2912:
.LBE2911:
	.loc 2 1151 0
	bl _ZN14TiXmlAttribute5ParseEPKcP16TiXmlParsingData13TiXmlEncoding
.LVL806:
	.loc 2 1153 0
	mr. 28,3
	beq- 0,.L621
	.loc 2 1153 0 is_stmt 0 discriminator 1
	lbz 0,0(28)
	cmpwi 7,0,0
	beq- 7,.L621
	.loc 2 1162 0 is_stmt 1
	addi 25,29,44
.LVL807:
	addi 4,26,20
	mr 3,25
.LVL808:
	bl _ZNK17TiXmlAttributeSet4FindERKSs
.LVL809:
	.loc 2 1166 0
	cmpwi 7,3,0
	bne- 7,.L669
	.loc 2 1173 0
	mr 3,25
.LVL810:
	mr 4,26
	bl _ZN17TiXmlAttributeSet3AddEP14TiXmlAttribute
.LVL811:
.L652:
.LBE2875:
.LBE2874:
.LBE2873:
.LBE2872:
	.loc 2 1084 0 discriminator 1
	lbz 0,0(28)
	cmpwi 7,0,0
	bne- 7,.L660
.LVL812:
.L662:
	lwz 26,12(1)
.LVL813:
.L609:
.LBB2923:
.LBB2924:
.LBB2925:
.LBB2926:
.LBB2927:
	.loc 4 235 0
	lis 9,_ZNSs4_Rep20_S_empty_rep_storageE@ha
.LBE2927:
.LBE2926:
	.loc 4 534 0
	addi 3,26,-12
.LVL814:
.LBB2935:
.LBB2934:
	.loc 4 235 0
	la 0,_ZNSs4_Rep20_S_empty_rep_storageE@l(9)
	cmpw 7,3,0
	beq+ 7,.L632
.LVL815:
.LBB2928:
.LBB2929:
.LBB2930:
	.loc 5 66 0
	lwz 9,-4(26)
.LVL816:
.LBE2930:
.LBE2929:
.LBE2928:
	.loc 4 240 0
	cmpwi 7,9,0
.LBB2933:
.LBB2932:
.LBB2931:
	.loc 5 67 0
	addi 9,9,-1
	stw 9,-4(26)
.LBE2931:
.LBE2932:
.LBE2933:
	.loc 4 240 0
	bgt+ 7,.L632
	.loc 4 244 0
	addi 4,1,8
	bl _ZNSs4_Rep10_M_destroyERKSaIcE
.LVL817:
	b .L632
.LVL818:
.L614:
.LBE2934:
.LBE2935:
.LBE2925:
.LBE2924:
.LBE2923:
.LBB2936:
.LBB2921:
.LBB2918:
	.loc 2 1123 0
	lwz 4,12(1)
	li 5,0
	mr 6,31
	bl _ZN9TiXmlBase11StringEqualEPKcS1_b13TiXmlEncoding
.LVL819:
	cmpwi 7,3,0
	beq+ 7,.L615
.LVL820:
.LBB2913:
.LBB2914:
	.loc 4 717 0
	lwz 26,12(1)
.LBE2914:
.LBE2913:
	.loc 2 1126 0
	mr 4,31
	.loc 2 1125 0
	lwz 3,-12(26)
.LVL821:
	.loc 2 1126 0
	add 3,29,3
	bl _ZN9TiXmlBase14SkipWhiteSpaceEPKc13TiXmlEncoding
.LVL822:
	.loc 2 1127 0
	mr. 5,3
	beq- 0,.L616
	.loc 2 1127 0 is_stmt 0 discriminator 1
	lbz 0,0(5)
	.loc 2 1129 0 is_stmt 1 discriminator 1
	addi 28,5,1
.LVL823:
	.loc 2 1127 0 discriminator 1
	cmpwi 7,0,62
	beq- 7,.L609
.L616:
	.loc 2 1131 0
	cmpwi 7,30,0
	beq- 7,.L663
	.loc 2 1131 0 is_stmt 0 discriminator 1
	mr 3,30
.LVL824:
	li 4,8
	mr 6,27
	mr 7,31
	bl _ZN13TiXmlDocument8SetErrorEiPKcP16TiXmlParsingData13TiXmlEncoding
.LVL825:
.L658:
.LBB2915:
	.loc 2 1157 0 is_stmt 1
	li 28,0
	lwz 26,12(1)
	b .L609
.LVL826:
.L626:
.LBE2915:
.LBE2918:
.LBE2921:
	.loc 2 1090 0
	cmpwi 7,30,0
	beq- 7,.L658
	.loc 2 1090 0 is_stmt 0 discriminator 1
	mr 3,30
	li 4,6
	mr 5,28
	mr 6,27
	mr 7,31
	bl _ZN13TiXmlDocument8SetErrorEiPKcP16TiXmlParsingData13TiXmlEncoding
	.loc 2 1091 0 is_stmt 1
	li 28,0
.LVL827:
	b .L662
.LVL828:
.L621:
.LBB2922:
.LBB2919:
.LBB2916:
	.loc 2 1155 0
	cmpwi 7,30,0
	beq- 7,.L623
	.loc 2 1155 0 is_stmt 0 discriminator 1
	mr 3,30
.LVL829:
	li 4,3
	mr 5,24
	mr 6,27
	mr 7,31
	bl _ZN13TiXmlDocument8SetErrorEiPKcP16TiXmlParsingData13TiXmlEncoding
.L623:
	.loc 2 1156 0 is_stmt 1
	lwz 9,0(26)
	mr 3,26
	lwz 0,4(9)
	mtctr 0
	bctrl
	b .L658
.LVL830:
.L667:
.LBE2916:
.LBE2919:
	.loc 2 1097 0
	lbz 0,1(24)
	cmpwi 7,0,62
	beq- 7,.L611
	.loc 2 1099 0
	cmpwi 7,30,0
	beq- 7,.L658
	.loc 2 1099 0 is_stmt 0 discriminator 1
	mr 3,30
	li 4,7
	addi 5,24,1
	mr 6,27
	mr 7,31
	bl _ZN13TiXmlDocument8SetErrorEiPKcP16TiXmlParsingData13TiXmlEncoding
	b .L658
.LVL831:
.L668:
.LBB2920:
	.loc 2 1110 0 is_stmt 1
	mr 3,29
	addi 4,24,1
	mr 5,27
	mr 6,31
	bl _ZN12TiXmlElement9ReadValueEPKcP16TiXmlParsingData13TiXmlEncoding
.LVL832:
	.loc 2 1111 0
	mr. 29,3
.LVL833:
	beq- 0,.L615
	.loc 2 1111 0 is_stmt 0 discriminator 1
	lbz 0,0(29)
	cmpwi 7,0,0
	bne- 7,.L614
.LVL834:
.L615:
	.loc 2 1136 0 is_stmt 1
	cmpwi 7,30,0
	beq- 7,.L658
	.loc 2 1136 0 is_stmt 0 discriminator 1
	mr 3,30
	li 4,8
	mr 5,29
	mr 6,27
	mr 7,31
	bl _ZN13TiXmlDocument8SetErrorEiPKcP16TiXmlParsingData13TiXmlEncoding
	b .L658
.LVL835:
.L669:
.LBB2917:
	.loc 2 1168 0 is_stmt 1
	cmpwi 7,30,0
	beq- 7,.L625
	.loc 2 1168 0 is_stmt 0 discriminator 1
	mr 3,30
.LVL836:
	li 4,3
	mr 5,24
	mr 6,27
	mr 7,31
	bl _ZN13TiXmlDocument8SetErrorEiPKcP16TiXmlParsingData13TiXmlEncoding
.L625:
	.loc 2 1169 0 is_stmt 1
	lwz 9,0(26)
	mr 3,26
	lwz 0,4(9)
	mtctr 0
	bctrl
.LEHE20:
	lwz 26,12(1)
.LVL837:
.L663:
	.loc 2 1170 0
	li 28,0
	b .L609
.LVL838:
.L611:
.LBE2917:
.LBE2920:
	.loc 2 1102 0
	addi 28,24,2
.LVL839:
	lwz 26,12(1)
	b .L609
.LVL840:
.L650:
	mr 31,3
.LVL841:
.LBE2922:
.LBE2936:
	.loc 2 1176 0
	addi 3,1,12
.LVL842:
	bl _ZNSsD1Ev
.LVL843:
	mr 3,31
.LEHB21:
	bl _Unwind_Resume
.LEHE21:
.LBE2939:
	.cfi_endproc
.LFE1237:
	.section	.gcc_except_table
.LLSDA1237:
	.byte	0xff
	.byte	0xff
	.byte	0x1
	.uleb128 .LLSDACSE1237-.LLSDACSB1237
.LLSDACSB1237:
	.uleb128 .LEHB19-.LFB1237
	.uleb128 .LEHE19-.LEHB19
	.uleb128 0
	.uleb128 0
	.uleb128 .LEHB20-.LFB1237
	.uleb128 .LEHE20-.LEHB20
	.uleb128 .L650-.LFB1237
	.uleb128 0
	.uleb128 .LEHB21-.LFB1237
	.uleb128 .LEHE21-.LEHB21
	.uleb128 0
	.uleb128 0
.LLSDACSE1237:
	.section	".text"
	.size	_ZN12TiXmlElement5ParseEPKcP16TiXmlParsingData13TiXmlEncoding, .-_ZN12TiXmlElement5ParseEPKcP16TiXmlParsingData13TiXmlEncoding
	.align 2
	.globl _ZN12TiXmlUnknown8StreamInEPSiPSs
	.type	_ZN12TiXmlUnknown8StreamInEPSiPSs, @function
_ZN12TiXmlUnknown8StreamInEPSiPSs:
.LFB1243:
	.loc 2 1253 0
	.cfi_startproc
.LVL844:
	mflr 0
	stwu 1,-32(1)
.LCFI114:
	.cfi_def_cfa_offset 32
	.cfi_register 65, 0
	stw 26,8(1)
	stw 0,36(1)
	stw 27,12(1)
	stw 28,16(1)
	stw 29,20(1)
	mr 29,5
	.cfi_offset 29, -12
	.cfi_offset 28, -16
	.cfi_offset 27, -20
	.cfi_offset 65, 4
	.cfi_offset 26, -24
	stw 30,24(1)
	mr 30,3
	.cfi_offset 30, -8
	stw 31,28(1)
	.loc 2 1253 0
	mr 31,4
	.cfi_offset 31, -4
.LVL845:
.L671:
.LBB2983:
	.loc 2 1254 0 discriminator 1
	lwz 9,0(31)
.LBB2984:
	.loc 2 1256 0 discriminator 1
	mr 3,31
.LBE2984:
.LBB3035:
	.loc 2 1638 0 discriminator 1
	lwz 9,-12(9)
	add 9,31,9
.LBE3035:
	.loc 2 1254 0 discriminator 1
	lwz 0,20(9)
	cmpwi 7,0,0
	bne- 7,.L670
.LBB3036:
	.loc 2 1256 0
	bl _ZNSi3getEv
.LVL846:
.LBB2985:
	.loc 2 1257 0
	mr. 28,3
.LBE2985:
.LBB2994:
.LBB2995:
.LBB2996:
	.loc 4 1047 0
	mr 3,29
.LVL847:
.LBE2996:
.LBE2995:
.LBE2994:
	.loc 2 1264 0
	rlwinm 26,28,0,0xff
.LBB3025:
	.loc 2 1257 0
	ble- 0,.L678
.LVL848:
.LBE3025:
.LBB3026:
.LBB3022:
.LBB3019:
.LBB2997:
.LBB2998:
.LBB2999:
.LBB3000:
.LBB3001:
	.loc 4 288 0
	lwz 9,0(29)
.LBE3001:
.LBE3000:
.LBE2999:
	.loc 4 711 0
	lwz 11,-12(9)
.LBE2998:
.LBE2997:
	.loc 4 1046 0
	lwz 0,-8(9)
	.loc 4 1045 0
	addi 27,11,1
.LVL849:
	.loc 4 1046 0
	cmplw 7,27,0
	.loc 4 1047 0
	mr 4,27
	.loc 4 1046 0
	bgt- 7,.L674
.LVL850:
	lwz 0,-4(9)
	cmpwi 7,0,0
	ble- 7,.L675
.L674:
	.loc 4 1047 0
	bl _ZNSs7reserveEj
	lwz 9,0(29)
	lwz 11,-12(9)
.L675:
.LVL851:
.LBB3002:
.LBB3003:
	.loc 6 245 0
	stbx 26,9,11
.LVL852:
.LBE3003:
.LBE3002:
.LBB3004:
.LBB3005:
	.loc 4 205 0
	lis 10,_ZNSs4_Rep20_S_empty_rep_storageE@ha
	la 0,_ZNSs4_Rep20_S_empty_rep_storageE@l(10)
.LBE3005:
.LBE3004:
.LBE3019:
.LBE3022:
.LBE3026:
	.loc 2 1266 0
	cmpwi 7,28,62
.LBB3027:
.LBB3023:
.LBB3020:
.LBB3014:
.LBB3015:
.LBB3016:
	.loc 4 288 0
	lwz 9,0(29)
.LVL853:
.LBE3016:
.LBE3015:
.LBE3014:
	.loc 4 1049 0
	addi 11,9,-12
.LBB3017:
.LBB3012:
	.loc 4 205 0
	cmpw 6,11,0
	bne- 6,.L679
.LBE3012:
.LBE3017:
.LBE3020:
.LBE3023:
.LBE3027:
	.loc 2 1266 0
	bne+ 7,.L671
.LVL854:
.L670:
.LBE3036:
.LBE2983:
	.loc 2 1272 0
	lwz 0,36(1)
	lwz 26,8(1)
	mtlr 0
	lwz 27,12(1)
	lwz 28,16(1)
	lwz 29,20(1)
.LVL855:
	lwz 30,24(1)
.LVL856:
	lwz 31,28(1)
.LVL857:
	addi 1,1,32
	.cfi_remember_state
.LCFI115:
	.cfi_def_cfa_offset 0
	.cfi_restore 31
	.cfi_restore 30
	.cfi_restore 29
	.cfi_restore 28
	.cfi_restore 27
	.cfi_restore 26
	blr
.LVL858:
.L678:
.LCFI116:
	.cfi_restore_state
.LBB3043:
.LBB3037:
.LBB3028:
.LBB2986:
.LBB2987:
.LBB2988:
	.loc 1 693 0
	mr 3,30
.LVL859:
	bl _ZNK9TiXmlNode11GetDocumentEv
.LVL860:
.LBE2988:
.LBE2987:
	.loc 2 1260 0
	cmpwi 7,3,0
	beq- 7,.L670
.LBE2986:
.LBE3028:
.LBE3037:
.LBE3043:
	.loc 2 1272 0
	lwz 0,36(1)
.LBB3044:
.LBB3038:
.LBB3029:
.LBB2989:
	.loc 2 1261 0
	li 4,13
.LBE2989:
.LBE3029:
.LBE3038:
.LBE3044:
	.loc 2 1272 0
	lwz 26,8(1)
.LBB3045:
.LBB3039:
.LBB3030:
.LBB2990:
	.loc 2 1261 0
	li 5,0
.LBE2990:
.LBE3030:
.LBE3039:
.LBE3045:
	.loc 2 1272 0
	lwz 27,12(1)
	mtlr 0
	lwz 28,16(1)
.LVL861:
.LBB3046:
.LBB3040:
.LBB3031:
.LBB2991:
	.loc 2 1261 0
	li 6,0
.LBE2991:
.LBE3031:
.LBE3040:
.LBE3046:
	.loc 2 1272 0
	lwz 29,20(1)
.LVL862:
.LBB3047:
.LBB3041:
.LBB3032:
.LBB2992:
	.loc 2 1261 0
	li 7,0
.LBE2992:
.LBE3032:
.LBE3041:
.LBE3047:
	.loc 2 1272 0
	lwz 30,24(1)
.LVL863:
	lwz 31,28(1)
.LVL864:
	addi 1,1,32
	.cfi_remember_state
.LCFI117:
	.cfi_def_cfa_offset 0
	.cfi_restore 31
	.cfi_restore 30
	.cfi_restore 29
	.cfi_restore 28
	.cfi_restore 27
	.cfi_restore 26
.LBB3048:
.LBB3042:
.LBB3033:
.LBB2993:
	.loc 2 1261 0
	b _ZN13TiXmlDocument8SetErrorEiPKcP16TiXmlParsingData13TiXmlEncoding
.LVL865:
.L679:
.LCFI118:
	.cfi_restore_state
.LBE2993:
.LBE3033:
.LBB3034:
.LBB3024:
.LBB3021:
.LBB3018:
.LBB3013:
.LBB3006:
.LBB3007:
	.loc 4 199 0
	li 0,0
.LBE3007:
.LBE3006:
	.loc 4 209 0
	stw 27,-12(9)
.LVL866:
.LBB3009:
.LBB3008:
	.loc 4 199 0
	stw 0,-4(9)
.LBE3008:
.LBE3009:
.LBB3010:
.LBB3011:
	.loc 6 245 0
	stbx 0,9,27
.LBE3011:
.LBE3010:
.LBE3013:
.LBE3018:
.LBE3021:
.LBE3024:
.LBE3034:
	.loc 2 1266 0
	bne+ 7,.L671
	b .L670
.LBE3042:
.LBE3048:
	.cfi_endproc
.LFE1243:
	.size	_ZN12TiXmlUnknown8StreamInEPSiPSs, .-_ZN12TiXmlUnknown8StreamInEPSiPSs
	.align 2
	.globl _ZN12TiXmlUnknown5ParseEPKcP16TiXmlParsingData13TiXmlEncoding
	.type	_ZN12TiXmlUnknown5ParseEPKcP16TiXmlParsingData13TiXmlEncoding, @function
_ZN12TiXmlUnknown5ParseEPKcP16TiXmlParsingData13TiXmlEncoding:
.LFB1244:
	.loc 2 1277 0
	.cfi_startproc
.LVL867:
	mflr 0
	stwu 1,-48(1)
.LCFI119:
	.cfi_def_cfa_offset 48
	.cfi_register 65, 0
	stw 26,24(1)
	stw 0,52(1)
	stw 27,28(1)
	mr 27,3
	.cfi_offset 27, -20
	.cfi_offset 65, 4
	.cfi_offset 26, -24
.LVL868:
	stw 28,32(1)
	mr 28,5
	.cfi_offset 28, -16
	stw 29,36(1)
	stw 30,40(1)
	mr 30,6
	.cfi_offset 30, -8
	.cfi_offset 29, -12
	stw 31,44(1)
	mr 31,4
	.cfi_offset 31, -4
	stw 23,12(1)
	stw 24,16(1)
	stw 25,20(1)
.LBB3094:
.LBB3095:
.LBB3096:
	.loc 1 693 0
	.cfi_offset 25, -28
	.cfi_offset 24, -32
	.cfi_offset 23, -36
	bl _ZNK9TiXmlNode11GetDocumentEv
.LVL869:
	mr 26,3
.LVL870:
.LBE3096:
.LBE3095:
	.loc 2 1279 0
	mr 4,30
	mr 3,31
.LVL871:
	bl _ZN9TiXmlBase14SkipWhiteSpaceEPKc13TiXmlEncoding
	.loc 2 1281 0
	cmpwi 7,28,0
	.loc 2 1279 0
	mr 29,3
.LVL872:
	.loc 2 1281 0
	beq- 7,.L681
	.loc 2 1283 0
	mr 3,28
.LVL873:
	mr 4,29
	mr 5,30
	bl _ZN16TiXmlParsingData5StampEPKc13TiXmlEncoding
.LVL874:
	.loc 2 1284 0
	lwz 10,0(28)
	lwz 11,4(28)
	stw 10,4(27)
	stw 11,8(27)
.LVL875:
.L681:
	.loc 2 1286 0
	cmpwi 7,29,0
	beq- 7,.L682
	.loc 2 1286 0 is_stmt 0 discriminator 1
	lbz 0,0(29)
	cmpwi 7,0,60
	beq- 7,.L683
.L682:
	.loc 2 1288 0 is_stmt 1
	cmpwi 7,26,0
	.loc 2 1289 0
	li 31,0
	.loc 2 1288 0
	beq- 7,.L684
	.loc 2 1288 0 is_stmt 0 discriminator 1
	mr 3,26
	li 4,9
	mr 5,29
	mr 6,28
	mr 7,30
	bl _ZN13TiXmlDocument8SetErrorEiPKcP16TiXmlParsingData13TiXmlEncoding
.LVL876:
.L684:
.LBE3094:
	.loc 2 1308 0 is_stmt 1
	lwz 0,52(1)
	mr 3,31
	lwz 23,12(1)
	mtlr 0
	lwz 24,16(1)
	lwz 25,20(1)
	lwz 26,24(1)
.LVL877:
	lwz 27,28(1)
.LVL878:
	lwz 28,32(1)
	lwz 29,36(1)
	lwz 30,40(1)
.LVL879:
	lwz 31,44(1)
	addi 1,1,48
	.cfi_remember_state
.LCFI120:
	.cfi_def_cfa_offset 0
	.cfi_restore 31
	.cfi_restore 30
	.cfi_restore 29
	.cfi_restore 28
	.cfi_restore 27
	.cfi_restore 26
	.cfi_restore 25
	.cfi_restore 24
	.cfi_restore 23
	blr
.LVL880:
.L683:
.LCFI121:
	.cfi_restore_state
.LBB3137:
	.loc 2 1292 0
	addi 28,27,32
.LVL881:
.LBB3097:
.LBB3098:
.LBB3099:
	.loc 4 1121 0
	lis 4,.LC7@ha
.LBE3099:
.LBE3098:
.LBE3097:
	.loc 2 1291 0
	addi 31,29,1
.LVL882:
.LBB3102:
.LBB3101:
.LBB3100:
	.loc 4 1121 0
	mr 3,28
	la 4,.LC7@l(4)
	li 5,0
	bl _ZNSs6assignEPKcj
.LBE3100:
.LBE3101:
.LBE3102:
	.loc 2 1294 0
	cmpwi 7,31,0
	beq- 7,.L685
	lbz 0,1(29)
	cmpwi 7,0,0
	beq- 7,.L684
	cmpwi 7,0,62
	beq- 7,.L687
	lis 23,_ZNSs4_Rep20_S_empty_rep_storageE@ha
	la 23,_ZNSs4_Rep20_S_empty_rep_storageE@l(23)
.LVL883:
.L688:
.LBB3103:
.LBB3104:
.LBB3105:
.LBB3106:
.LBB3107:
.LBB3108:
.LBB3109:
.LBB3110:
	.loc 4 288 0 discriminator 6
	lwz 9,32(27)
.LBE3110:
.LBE3109:
.LBE3108:
.LBE3107:
.LBE3106:
.LBE3105:
.LBE3104:
.LBE3103:
	.loc 2 1296 0 discriminator 6
	lbzu 25,1(29)
.LVL884:
.LBB3134:
.LBB3131:
.LBB3128:
.LBB3112:
.LBB3111:
	.loc 4 711 0 discriminator 6
	lwz 11,-12(9)
.LBE3111:
.LBE3112:
	.loc 4 1046 0 discriminator 6
	lwz 0,-8(9)
	.loc 4 1045 0 discriminator 6
	addi 24,11,1
.LVL885:
	.loc 4 1046 0 discriminator 6
	cmplw 7,24,0
	ble- 7,.L696
.L691:
	.loc 4 1047 0
	mr 3,28
	mr 4,24
	bl _ZNSs7reserveEj
	lwz 9,32(27)
	lwz 11,-12(9)
.L689:
.LVL886:
.LBB3113:
.LBB3114:
	.loc 6 245 0
	stbx 25,9,11
.LBE3114:
.LBE3113:
.LBE3128:
.LBE3131:
.LBE3134:
	.loc 2 1294 0
	addic. 31,31,1
.LBB3135:
.LBB3132:
.LBB3129:
.LBB3115:
.LBB3116:
.LBB3117:
	.loc 4 288 0
	lwz 9,32(27)
.LVL887:
.LBE3117:
.LBE3116:
.LBE3115:
	.loc 4 1049 0
	addi 0,9,-12
.LBB3118:
.LBB3119:
	.loc 4 205 0
	cmpw 7,0,23
	bne- 7,.L697
.L690:
.LBE3119:
.LBE3118:
.LBE3129:
.LBE3132:
.LBE3135:
	.loc 2 1294 0
	beq- 0,.L685
	.loc 2 1294 0 is_stmt 0 discriminator 2
	lbz 0,1(29)
	cmpwi 7,0,0
	cmpwi 6,0,62
	beq- 7,.L684
	.loc 2 1294 0 discriminator 4
	bne+ 6,.L688
.LVL888:
.L687:
	.loc 2 1306 0 is_stmt 1
	addi 31,31,1
	b .L684
.L685:
	.loc 2 1302 0
	cmpwi 7,26,0
	li 31,0
	beq- 7,.L684
	.loc 2 1303 0
	mr 3,26
	li 4,9
	li 5,0
	li 6,0
	mr 7,30
	bl _ZN13TiXmlDocument8SetErrorEiPKcP16TiXmlParsingData13TiXmlEncoding
	b .L684
.LVL889:
.L697:
.LBB3136:
.LBB3133:
.LBB3130:
.LBB3127:
.LBB3126:
.LBB3120:
.LBB3121:
	.loc 4 199 0
	li 0,0
.LVL890:
.LBE3121:
.LBE3120:
	.loc 4 209 0
	stw 24,-12(9)
.LVL891:
.LBB3123:
.LBB3122:
	.loc 4 199 0
	stw 0,-4(9)
.LBE3122:
.LBE3123:
.LBB3124:
.LBB3125:
	.loc 6 245 0
	stbx 0,9,24
	b .L690
.LVL892:
.L696:
.LBE3125:
.LBE3124:
.LBE3126:
.LBE3127:
	.loc 4 1046 0
	lwz 0,-4(9)
	cmpwi 7,0,0
	bgt+ 7,.L691
	b .L689
.LBE3130:
.LBE3133:
.LBE3136:
.LBE3137:
	.cfi_endproc
.LFE1244:
	.size	_ZN12TiXmlUnknown5ParseEPKcP16TiXmlParsingData13TiXmlEncoding, .-_ZN12TiXmlUnknown5ParseEPKcP16TiXmlParsingData13TiXmlEncoding
	.align 2
	.globl _ZN12TiXmlComment8StreamInEPSiPSs
	.type	_ZN12TiXmlComment8StreamInEPSiPSs, @function
_ZN12TiXmlComment8StreamInEPSiPSs:
.LFB1245:
	.loc 2 1312 0
	.cfi_startproc
.LVL893:
	mflr 0
	stwu 1,-32(1)
.LCFI122:
	.cfi_def_cfa_offset 32
	.cfi_register 65, 0
	stw 26,8(1)
	stw 0,36(1)
	stw 27,12(1)
	stw 28,16(1)
	stw 29,20(1)
	mr 29,5
	.cfi_offset 29, -12
	.cfi_offset 28, -16
	.cfi_offset 27, -20
	.cfi_offset 65, 4
	.cfi_offset 26, -24
	stw 30,24(1)
	mr 30,3
	.cfi_offset 30, -8
	stw 31,28(1)
	.loc 2 1312 0
	mr 31,4
	.cfi_offset 31, -4
.LVL894:
.L713:
.LBB3223:
	.loc 2 1313 0 discriminator 1
	lwz 9,0(31)
.LBB3224:
	.loc 2 1638 0 discriminator 1
	lwz 9,-12(9)
	add 9,31,9
.LBE3224:
	.loc 2 1313 0 discriminator 1
	lwz 0,20(9)
	cmpwi 7,0,0
	bne- 7,.L698
.LBB3225:
	.loc 2 1315 0
	mr 3,31
	bl _ZNSi3getEv
.LVL895:
.LBB3226:
	.loc 2 1316 0
	mr. 28,3
	ble- 0,.L715
.LBE3226:
.LBB3235:
.LBB3236:
.LBB3237:
.LBB3238:
.LBB3239:
.LBB3240:
.LBB3241:
.LBB3242:
	.loc 4 288 0
	lwz 9,0(29)
.LBE3242:
.LBE3241:
.LBE3240:
.LBE3239:
.LBE3238:
.LBE3237:
.LBE3236:
.LBE3235:
	.loc 2 1324 0
	rlwinm 26,28,0,0xff
.LVL896:
.LBB3266:
.LBB3264:
.LBB3262:
.LBB3244:
.LBB3243:
	.loc 4 711 0
	lwz 11,-12(9)
.LBE3243:
.LBE3244:
	.loc 4 1046 0
	lwz 0,-8(9)
	.loc 4 1045 0
	addi 27,11,1
.LVL897:
	.loc 4 1046 0
	cmplw 7,27,0
	bgt- 7,.L702
.LVL898:
	lwz 0,-4(9)
	cmpwi 7,0,0
	ble- 7,.L703
.L702:
	.loc 4 1047 0
	mr 3,29
.LVL899:
	mr 4,27
	bl _ZNSs7reserveEj
	lwz 9,0(29)
	lwz 11,-12(9)
.L703:
.LVL900:
.LBB3245:
.LBB3246:
	.loc 6 245 0
	stbx 26,9,11
.LVL901:
.LBE3246:
.LBE3245:
.LBB3247:
.LBB3248:
	.loc 4 205 0
	lis 10,_ZNSs4_Rep20_S_empty_rep_storageE@ha
	la 0,_ZNSs4_Rep20_S_empty_rep_storageE@l(10)
.LBE3248:
.LBE3247:
.LBB3257:
.LBB3258:
.LBB3259:
	.loc 4 288 0
	lwz 9,0(29)
.LVL902:
.LBE3259:
.LBE3258:
.LBE3257:
	.loc 4 1049 0
	addi 11,9,-12
.LBB3260:
.LBB3255:
	.loc 4 205 0
	cmpw 7,11,0
	bne- 7,.L716
.L704:
.LBE3255:
.LBE3260:
.LBE3262:
.LBE3264:
.LBE3266:
	.loc 2 1326 0
	cmpwi 7,28,62
	bne+ 7,.L713
.LVL903:
.LBB3267:
.LBB3268:
.LBB3269:
.LBB3270:
.LBB3271:
	.loc 4 288 0
	lwz 9,0(29)
.LBE3271:
.LBE3270:
.LBE3269:
	.loc 4 717 0
	lwz 28,-12(9)
.LVL904:
.LBE3268:
.LBE3267:
.LBB3272:
.LBB3273:
	.loc 4 911 0
	cmplwi 7,28,1
	addi 28,28,-2
	ble- 7,.L714
.LVL905:
.LBB3274:
.LBB3275:
	.loc 4 311 0
	lwz 0,-4(9)
	cmpwi 7,0,0
	blt- 7,.L707
	.loc 4 312 0
	mr 3,29
	bl _ZNSs12_M_leak_hardEv
.LVL906:
	lwz 9,0(29)
.L707:
.LBE3275:
.LBE3274:
.LBE3273:
.LBE3272:
	.loc 2 1326 0
	lbzx 0,9,28
	cmpwi 7,0,45
	bne+ 7,.L713
.LVL907:
.LBB3276:
.LBB3277:
	.loc 4 717 0
	lwz 28,-12(9)
.LVL908:
.LBE3277:
.LBE3276:
.LBB3278:
.LBB3279:
	.loc 4 911 0
	cmplwi 7,28,2
	addi 28,28,-3
	ble- 7,.L714
.LBB3280:
.LBB3281:
	.loc 4 311 0
	lwz 0,-4(9)
	cmpwi 7,0,0
	blt- 7,.L709
	.loc 4 312 0
	mr 3,29
	bl _ZNSs12_M_leak_hardEv
.LVL909:
	lwz 9,0(29)
.L709:
.LBE3281:
.LBE3280:
.LBE3279:
.LBE3278:
	.loc 2 1326 0
	lbzx 0,9,28
	cmpwi 7,0,45
	bne+ 7,.L713
.LVL910:
.L698:
.LBE3225:
.LBE3223:
	.loc 2 1334 0
	lwz 0,36(1)
	lwz 26,8(1)
	mtlr 0
	lwz 27,12(1)
	lwz 28,16(1)
	lwz 29,20(1)
.LVL911:
	lwz 30,24(1)
.LVL912:
	lwz 31,28(1)
.LVL913:
	addi 1,1,32
	.cfi_remember_state
.LCFI123:
	.cfi_def_cfa_offset 0
	.cfi_restore 31
	.cfi_restore 30
	.cfi_restore 29
	.cfi_restore 28
	.cfi_restore 27
	.cfi_restore 26
	blr
.LVL914:
.L715:
.LCFI124:
	.cfi_restore_state
.LBB3297:
.LBB3291:
.LBB3283:
.LBB3227:
.LBB3228:
.LBB3229:
	.loc 1 693 0
	mr 3,30
.LVL915:
	bl _ZNK9TiXmlNode11GetDocumentEv
.LVL916:
.LBE3229:
.LBE3228:
	.loc 2 1319 0
	cmpwi 7,3,0
	beq- 7,.L698
.LBE3227:
.LBE3283:
.LBE3291:
.LBE3297:
	.loc 2 1334 0
	lwz 0,36(1)
.LBB3298:
.LBB3292:
.LBB3284:
.LBB3230:
	.loc 2 1320 0
	li 4,13
.LBE3230:
.LBE3284:
.LBE3292:
.LBE3298:
	.loc 2 1334 0
	lwz 26,8(1)
.LBB3299:
.LBB3293:
.LBB3285:
.LBB3231:
	.loc 2 1320 0
	li 5,0
.LBE3231:
.LBE3285:
.LBE3293:
.LBE3299:
	.loc 2 1334 0
	lwz 27,12(1)
	mtlr 0
	lwz 28,16(1)
.LVL917:
.LBB3300:
.LBB3294:
.LBB3286:
.LBB3232:
	.loc 2 1320 0
	li 6,0
.LBE3232:
.LBE3286:
.LBE3294:
.LBE3300:
	.loc 2 1334 0
	lwz 29,20(1)
.LVL918:
.LBB3301:
.LBB3295:
.LBB3287:
.LBB3233:
	.loc 2 1320 0
	li 7,0
.LBE3233:
.LBE3287:
.LBE3295:
.LBE3301:
	.loc 2 1334 0
	lwz 30,24(1)
.LVL919:
	lwz 31,28(1)
.LVL920:
	addi 1,1,32
	.cfi_remember_state
.LCFI125:
	.cfi_def_cfa_offset 0
	.cfi_restore 31
	.cfi_restore 30
	.cfi_restore 29
	.cfi_restore 28
	.cfi_restore 27
	.cfi_restore 26
.LBB3302:
.LBB3296:
.LBB3288:
.LBB3234:
	.loc 2 1320 0
	b _ZN13TiXmlDocument8SetErrorEiPKcP16TiXmlParsingData13TiXmlEncoding
.LVL921:
.L716:
.LCFI126:
	.cfi_restore_state
.LBE3234:
.LBE3288:
.LBB3289:
.LBB3265:
.LBB3263:
.LBB3261:
.LBB3256:
.LBB3249:
.LBB3250:
	.loc 4 199 0
	li 0,0
.LBE3250:
.LBE3249:
	.loc 4 209 0
	stw 27,-12(9)
.LVL922:
.LBB3252:
.LBB3251:
	.loc 4 199 0
	stw 0,-4(9)
.LBE3251:
.LBE3252:
.LBB3253:
.LBB3254:
	.loc 6 245 0
	stbx 0,9,27
	b .L704
.LVL923:
.L714:
.LBE3254:
.LBE3253:
.LBE3256:
.LBE3261:
.LBE3263:
.LBE3265:
.LBE3289:
.LBB3290:
.LBB3282:
	.loc 4 912 0
	lis 3,.LC25@ha
	la 3,.LC25@l(3)
	bl _ZSt20__throw_out_of_rangePKc
.LBE3282:
.LBE3290:
.LBE3296:
.LBE3302:
	.cfi_endproc
.LFE1245:
	.size	_ZN12TiXmlComment8StreamInEPSiPSs, .-_ZN12TiXmlComment8StreamInEPSiPSs
	.align 2
	.globl _ZN12TiXmlComment5ParseEPKcP16TiXmlParsingData13TiXmlEncoding
	.type	_ZN12TiXmlComment5ParseEPKcP16TiXmlParsingData13TiXmlEncoding, @function
_ZN12TiXmlComment5ParseEPKcP16TiXmlParsingData13TiXmlEncoding:
.LFB1246:
	.loc 2 1339 0
	.cfi_startproc
.LVL924:
	stwu 1,-40(1)
.LCFI127:
	.cfi_def_cfa_offset 40
	mflr 0
	stw 26,16(1)
.LBB3318:
.LBB3319:
.LBB3320:
.LBB3321:
	.loc 4 1121 0
	lis 26,.LC7@ha
	.cfi_offset 26, -24
	.cfi_register 65, 0
.LBE3321:
.LBE3320:
.LBE3319:
.LBE3318:
	.loc 2 1339 0
	stw 31,36(1)
	mr 31,3
	.cfi_offset 31, -4
.LVL925:
	stw 0,44(1)
.LBB3338:
.LBB3328:
.LBB3325:
.LBB3322:
	.loc 4 1121 0
	la 26,.LC7@l(26)
.LBE3322:
.LBE3325:
.LBE3328:
.LBE3338:
	.loc 2 1339 0
	stw 25,12(1)
	stw 27,20(1)
.LBB3339:
	.loc 2 1341 0
	addi 27,31,32
	.cfi_offset 27, -20
	.cfi_offset 25, -28
	.cfi_offset 65, 4
.LBE3339:
	.loc 2 1339 0
	stw 28,24(1)
	mr 28,4
	.cfi_offset 28, -16
	stw 29,28(1)
	mr 29,6
	.cfi_offset 29, -12
	stw 30,32(1)
	.loc 2 1339 0
	mr 30,5
	.cfi_offset 30, -8
.LBB3340:
.LBB3329:
.LBB3330:
	.loc 1 693 0
	bl _ZNK9TiXmlNode11GetDocumentEv
.LVL926:
.LBE3330:
.LBE3329:
.LBB3332:
.LBB3326:
.LBB3323:
	.loc 4 1121 0
	li 5,0
	mr 4,26
.LBE3323:
.LBE3326:
.LBE3332:
.LBB3333:
.LBB3331:
	.loc 1 693 0
	mr 25,3
.LVL927:
.LBE3331:
.LBE3333:
.LBB3334:
.LBB3327:
.LBB3324:
	.loc 4 1121 0
	mr 3,27
.LVL928:
	bl _ZNSs6assignEPKcj
.LBE3324:
.LBE3327:
.LBE3334:
	.loc 2 1343 0
	mr 3,28
	mr 4,29
	bl _ZN9TiXmlBase14SkipWhiteSpaceEPKc13TiXmlEncoding
	.loc 2 1345 0
	cmpwi 7,30,0
	.loc 2 1343 0
	mr 28,3
.LVL929:
	.loc 2 1345 0
	beq- 7,.L718
	.loc 2 1347 0
	mr 3,30
.LVL930:
	mr 4,28
	mr 5,29
	bl _ZN16TiXmlParsingData5StampEPKc13TiXmlEncoding
.LVL931:
	.loc 2 1348 0
	lwz 10,0(30)
	lwz 11,4(30)
	stw 10,4(31)
	stw 11,8(31)
.LVL932:
.L718:
	.loc 2 1353 0
	lis 4,.LC18@ha
	mr 3,28
	la 4,.LC18@l(4)
	li 5,0
	mr 6,29
	bl _ZN9TiXmlBase11StringEqualEPKcS1_b13TiXmlEncoding
	cmpwi 7,3,0
	bne- 7,.L719
	.loc 2 1355 0
	cmpwi 7,25,0
	.loc 2 1357 0
	li 31,0
.LVL933:
	.loc 2 1355 0
	beq- 7,.L720
	.loc 2 1356 0
	mr 3,25
	li 4,10
	mr 5,28
	mr 6,30
	mr 7,29
	bl _ZN13TiXmlDocument8SetErrorEiPKcP16TiXmlParsingData13TiXmlEncoding
.LVL934:
.L720:
.LBE3340:
	.loc 2 1390 0
	lwz 0,44(1)
	mr 3,31
	lwz 25,12(1)
.LVL935:
	mtlr 0
	lwz 26,16(1)
	lwz 27,20(1)
.LVL936:
	lwz 28,24(1)
	lwz 29,28(1)
.LVL937:
	lwz 30,32(1)
	lwz 31,36(1)
	addi 1,1,40
	.cfi_remember_state
.LCFI128:
	.cfi_def_cfa_offset 0
	.cfi_restore 31
	.cfi_restore 30
	.cfi_restore 29
	.cfi_restore 28
	.cfi_restore 27
	.cfi_restore 26
	.cfi_restore 25
	blr
.LVL938:
.L719:
.LCFI129:
	.cfi_restore_state
.LBB3341:
	.loc 2 1359 0
	addi 31,28,4
.LVL939:
.LBB3335:
.LBB3336:
.LBB3337:
	.loc 4 1121 0
	mr 3,27
	mr 4,26
	li 5,0
	bl _ZNSs6assignEPKcj
.LBE3337:
.LBE3336:
.LBE3335:
	.loc 2 1381 0
	cmpwi 7,31,0
	beq- 7,.L720
	lbz 0,4(28)
	cmpwi 7,0,0
	beq+ 7,.L720
	lis 28,.LC26@ha
	.loc 2 1338 0
	mr 30,31
.LVL940:
	la 28,.LC26@l(28)
.L722:
	.loc 2 1381 0 discriminator 4
	mr 4,28
	li 5,0
	mr 3,31
	mr 6,29
	bl _ZN9TiXmlBase11StringEqualEPKcS1_b13TiXmlEncoding
	.loc 2 1383 0 discriminator 4
	mr 4,31
	.loc 2 1381 0 discriminator 4
	cmpwi 7,3,0
	.loc 2 1383 0 discriminator 4
	li 5,1
	mr 3,27
	.loc 2 1381 0 discriminator 4
	bne- 7,.L723
.LVL941:
	.loc 2 1383 0 discriminator 6
	bl _ZNSs6appendEPKcj
.LVL942:
	.loc 2 1381 0 discriminator 6
	addic. 31,31,1
.LVL943:
	beq- 0,.L720
	.loc 2 1381 0 is_stmt 0 discriminator 2
	lbzu 0,1(30)
	cmpwi 7,0,0
	bne- 7,.L722
.LBE3341:
	.loc 2 1390 0 is_stmt 1
	lwz 0,44(1)
	mr 3,31
	lwz 25,12(1)
.LVL944:
	mtlr 0
	lwz 26,16(1)
	lwz 27,20(1)
.LVL945:
	lwz 28,24(1)
	lwz 29,28(1)
.LVL946:
	lwz 30,32(1)
	lwz 31,36(1)
.LVL947:
	addi 1,1,40
	.cfi_remember_state
	.cfi_restore 25
	.cfi_restore 26
	.cfi_restore 27
	.cfi_restore 28
	.cfi_restore 29
	.cfi_restore 30
	.cfi_restore 31
.LCFI130:
	.cfi_def_cfa_offset 0
	blr
.LVL948:
.L723:
.LCFI131:
	.cfi_restore_state
.LBB3342:
	.loc 2 1386 0
	lbz 0,0(31)
	cmpwi 7,0,0
	beq- 7,.L720
	.loc 2 1387 0
	addi 31,31,3
.LVL949:
	b .L720
.LBE3342:
	.cfi_endproc
.LFE1246:
	.size	_ZN12TiXmlComment5ParseEPKcP16TiXmlParsingData13TiXmlEncoding, .-_ZN12TiXmlComment5ParseEPKcP16TiXmlParsingData13TiXmlEncoding
	.align 2
	.globl _ZN9TiXmlText8StreamInEPSiPSs
	.type	_ZN9TiXmlText8StreamInEPSiPSs, @function
_ZN9TiXmlText8StreamInEPSiPSs:
.LFB1248:
	.loc 2 1468 0
	.cfi_startproc
.LVL950:
	mflr 0
	stwu 1,-32(1)
.LCFI132:
	.cfi_def_cfa_offset 32
	.cfi_register 65, 0
	stw 26,8(1)
	stw 0,36(1)
	stw 27,12(1)
	stw 29,20(1)
	stw 28,16(1)
	mr 28,5
	.cfi_offset 28, -16
	.cfi_offset 29, -12
	.cfi_offset 27, -20
	.cfi_offset 65, 4
	.cfi_offset 26, -24
	stw 30,24(1)
	mr 30,3
	.cfi_offset 30, -8
	stw 31,28(1)
	.loc 2 1468 0
	mr 31,4
	.cfi_offset 31, -4
.LVL951:
.L743:
.LBB3420:
	.loc 2 1469 0 discriminator 1
	lwz 9,0(31)
.LBB3421:
	.loc 2 1638 0 discriminator 1
	lwz 9,-12(9)
	add 9,31,9
.LBE3421:
	.loc 2 1469 0 discriminator 1
	lwz 0,20(9)
	cmpwi 7,0,0
	bne- 7,.L728
.LBB3422:
	.loc 2 1471 0
	mr 3,31
	bl _ZNSi4peekEv
.LVL952:
	.loc 2 1472 0
	lbz 0,44(30)
	.loc 2 1471 0
	mr 29,3
.LVL953:
	.loc 2 1472 0
	cmpwi 7,0,0
	bne- 7,.L730
	.loc 2 1472 0 is_stmt 0 discriminator 1
	cmpwi 7,3,60
	beq- 7,.L728
.L730:
.LBB3423:
	.loc 2 1476 0 is_stmt 1
	cmpwi 7,29,0
	ble- 7,.L744
.LBE3423:
.LBB3432:
.LBB3433:
.LBB3434:
.LBB3435:
.LBB3436:
.LBB3437:
.LBB3438:
.LBB3439:
	.loc 4 288 0
	lwz 9,0(28)
.LBE3439:
.LBE3438:
.LBE3437:
.LBE3436:
.LBE3435:
.LBE3434:
.LBE3433:
.LBE3432:
	.loc 2 1484 0
	rlwinm 26,29,0,0xff
.LVL954:
.LBB3463:
.LBB3461:
.LBB3459:
.LBB3441:
.LBB3440:
	.loc 4 711 0
	lwz 11,-12(9)
.LBE3440:
.LBE3441:
	.loc 4 1046 0
	lwz 0,-8(9)
	.loc 4 1045 0
	addi 27,11,1
.LVL955:
	.loc 4 1046 0
	cmplw 7,27,0
	bgt- 7,.L733
.LVL956:
	lwz 0,-4(9)
	cmpwi 7,0,0
	ble- 7,.L734
.L733:
	.loc 4 1047 0
	mr 3,28
.LVL957:
	mr 4,27
	bl _ZNSs7reserveEj
	lwz 9,0(28)
	lwz 11,-12(9)
.L734:
.LVL958:
.LBB3442:
.LBB3443:
	.loc 6 245 0
	stbx 26,9,11
.LVL959:
.LBE3443:
.LBE3442:
.LBB3444:
.LBB3445:
	.loc 4 205 0
	lis 10,_ZNSs4_Rep20_S_empty_rep_storageE@ha
	la 0,_ZNSs4_Rep20_S_empty_rep_storageE@l(10)
.LBE3445:
.LBE3444:
.LBB3454:
.LBB3455:
.LBB3456:
	.loc 4 288 0
	lwz 9,0(28)
.LVL960:
.LBE3456:
.LBE3455:
.LBE3454:
	.loc 4 1049 0
	addi 11,9,-12
.LBB3457:
.LBB3452:
	.loc 4 205 0
	cmpw 7,11,0
	bne- 7,.L745
.L735:
.LBE3452:
.LBE3457:
.LBE3459:
.LBE3461:
.LBE3463:
	.loc 2 1485 0
	mr 3,31
	bl _ZNSi3getEv
.LVL961:
.LBB3464:
	.loc 2 1487 0
	lbz 0,44(30)
	cmpwi 7,0,0
	beq- 7,.L743
	.loc 2 1487 0 is_stmt 0 discriminator 1
	cmpwi 7,29,62
	bne+ 7,.L743
.LVL962:
.LBB3465:
.LBB3466:
.LBB3467:
.LBB3468:
.LBB3469:
	.loc 4 288 0 is_stmt 1
	lwz 9,0(28)
.LBE3469:
.LBE3468:
.LBE3467:
	.loc 4 711 0
	lwz 29,-12(9)
.LVL963:
.LBE3466:
.LBE3465:
	.loc 2 1487 0
	cmplwi 7,29,2
	ble- 7,.L743
.LVL964:
.LBB3470:
.LBB3471:
.LBB3472:
.LBB3473:
.LBB3474:
	.loc 4 311 0 discriminator 5
	lwz 0,-4(9)
.LBE3474:
.LBE3473:
.LBE3472:
.LBE3471:
	.loc 2 1489 0 discriminator 5
	addi 27,29,-2
.LVL965:
.LBB3478:
.LBB3477:
.LBB3476:
.LBB3475:
	.loc 4 311 0 discriminator 5
	cmpwi 7,0,0
	blt- 7,.L737
	.loc 4 312 0
	mr 3,28
	bl _ZNSs12_M_leak_hardEv
.LVL966:
	lwz 9,0(28)
.L737:
.LBE3475:
.LBE3476:
.LBE3477:
.LBE3478:
	.loc 2 1489 0
	lbzx 0,9,27
	cmpwi 7,0,93
	bne+ 7,.L743
.LBB3479:
.LBB3480:
.LBB3481:
.LBB3482:
	.loc 4 311 0 discriminator 1
	lwz 0,-4(9)
.LBE3482:
.LBE3481:
.LBE3480:
.LBE3479:
	.loc 2 1489 0 discriminator 1
	addi 29,29,-3
.LVL967:
.LBB3486:
.LBB3485:
.LBB3484:
.LBB3483:
	.loc 4 311 0 discriminator 1
	cmpwi 7,0,0
	blt- 7,.L739
.LVL968:
	.loc 4 312 0
	mr 3,28
	bl _ZNSs12_M_leak_hardEv
	lwz 9,0(28)
.L739:
.LBE3483:
.LBE3484:
.LBE3485:
.LBE3486:
	.loc 2 1489 0 discriminator 1
	lbzx 0,9,29
	cmpwi 7,0,93
	bne+ 7,.L743
.LVL969:
.L728:
.LBE3470:
.LBE3464:
.LBE3422:
.LBE3420:
	.loc 2 1495 0
	lwz 0,36(1)
	lwz 26,8(1)
	mtlr 0
	lwz 27,12(1)
	lwz 28,16(1)
.LVL970:
	lwz 29,20(1)
	lwz 30,24(1)
.LVL971:
	lwz 31,28(1)
.LVL972:
	addi 1,1,32
	.cfi_remember_state
.LCFI133:
	.cfi_def_cfa_offset 0
	.cfi_restore 31
	.cfi_restore 30
	.cfi_restore 29
	.cfi_restore 28
	.cfi_restore 27
	.cfi_restore 26
	blr
.LVL973:
.L744:
.LCFI134:
	.cfi_restore_state
.LBB3500:
.LBB3494:
.LBB3487:
.LBB3424:
.LBB3425:
.LBB3426:
	.loc 1 693 0
	mr 3,30
.LVL974:
	bl _ZNK9TiXmlNode11GetDocumentEv
.LVL975:
.LBE3426:
.LBE3425:
	.loc 2 1479 0
	cmpwi 7,3,0
	beq- 7,.L728
.LBE3424:
.LBE3487:
.LBE3494:
.LBE3500:
	.loc 2 1495 0
	lwz 0,36(1)
.LBB3501:
.LBB3495:
.LBB3488:
.LBB3427:
	.loc 2 1480 0
	li 4,13
.LBE3427:
.LBE3488:
.LBE3495:
.LBE3501:
	.loc 2 1495 0
	lwz 26,8(1)
.LBB3502:
.LBB3496:
.LBB3489:
.LBB3428:
	.loc 2 1480 0
	li 5,0
.LBE3428:
.LBE3489:
.LBE3496:
.LBE3502:
	.loc 2 1495 0
	lwz 27,12(1)
	mtlr 0
	lwz 28,16(1)
.LVL976:
.LBB3503:
.LBB3497:
.LBB3490:
.LBB3429:
	.loc 2 1480 0
	li 6,0
.LBE3429:
.LBE3490:
.LBE3497:
.LBE3503:
	.loc 2 1495 0
	lwz 29,20(1)
.LVL977:
.LBB3504:
.LBB3498:
.LBB3491:
.LBB3430:
	.loc 2 1480 0
	li 7,0
.LBE3430:
.LBE3491:
.LBE3498:
.LBE3504:
	.loc 2 1495 0
	lwz 30,24(1)
.LVL978:
	lwz 31,28(1)
.LVL979:
	addi 1,1,32
	.cfi_remember_state
.LCFI135:
	.cfi_def_cfa_offset 0
	.cfi_restore 31
	.cfi_restore 30
	.cfi_restore 29
	.cfi_restore 28
	.cfi_restore 27
	.cfi_restore 26
.LBB3505:
.LBB3499:
.LBB3492:
.LBB3431:
	.loc 2 1480 0
	b _ZN13TiXmlDocument8SetErrorEiPKcP16TiXmlParsingData13TiXmlEncoding
.LVL980:
.L745:
.LCFI136:
	.cfi_restore_state
.LBE3431:
.LBE3492:
.LBB3493:
.LBB3462:
.LBB3460:
.LBB3458:
.LBB3453:
.LBB3446:
.LBB3447:
	.loc 4 199 0
	li 0,0
.LBE3447:
.LBE3446:
	.loc 4 209 0
	stw 27,-12(9)
.LVL981:
.LBB3449:
.LBB3448:
	.loc 4 199 0
	stw 0,-4(9)
.LBE3448:
.LBE3449:
.LBB3450:
.LBB3451:
	.loc 6 245 0
	stbx 0,9,27
	b .L735
.LBE3451:
.LBE3450:
.LBE3453:
.LBE3458:
.LBE3460:
.LBE3462:
.LBE3493:
.LBE3499:
.LBE3505:
	.cfi_endproc
.LFE1248:
	.size	_ZN9TiXmlText8StreamInEPSiPSs, .-_ZN9TiXmlText8StreamInEPSiPSs
	.align 2
	.globl _ZN12TiXmlElement8StreamInEPSiPSs
	.type	_ZN12TiXmlElement8StreamInEPSiPSs, @function
_ZN12TiXmlElement8StreamInEPSiPSs:
.LFB1236:
	.loc 2 905 0
	.cfi_startproc
	.cfi_personality 0,__gxx_personality_v0
	.cfi_lsda 0,.LLSDA1236
.LVL982:
	mflr 0
	stwu 1,-96(1)
.LCFI137:
	.cfi_def_cfa_offset 96
	.cfi_register 65, 0
	stw 23,60(1)
	stw 0,100(1)
	stw 24,64(1)
	stw 25,68(1)
	stw 26,72(1)
	stw 27,76(1)
	stw 28,80(1)
	stw 29,84(1)
	mr 29,3
	.cfi_offset 29, -12
	.cfi_offset 28, -16
	.cfi_offset 27, -20
	.cfi_offset 26, -24
	.cfi_offset 25, -28
	.cfi_offset 24, -32
	.cfi_offset 65, 4
	.cfi_offset 23, -36
	stw 30,88(1)
	mr 30,5
	.cfi_offset 30, -8
	stw 31,92(1)
	.loc 2 905 0
	mr 31,4
	.cfi_offset 31, -4
.LVL983:
.L747:
.LBB3722:
	.loc 2 908 0 discriminator 1
	lwz 9,0(31)
.LBB3723:
	.loc 2 1638 0 discriminator 1
	lwz 9,-12(9)
	add 9,31,9
.LBE3723:
	.loc 2 908 0 discriminator 1
	lwz 0,20(9)
	cmpwi 7,0,0
	bne- 7,.L753
.LBB3724:
	.loc 2 910 0
	mr 3,31
.LEHB22:
	bl _ZNSi3getEv
.LVL984:
.LBB3725:
	.loc 2 911 0
	mr. 28,3
	ble- 0,.L802
.LBE3725:
.LBB3726:
.LBB3727:
.LBB3728:
.LBB3729:
.LBB3730:
.LBB3731:
.LBB3732:
.LBB3733:
	.loc 4 288 0
	lwz 9,0(30)
.LBE3733:
.LBE3732:
.LBE3731:
.LBE3730:
.LBE3729:
.LBE3728:
.LBE3727:
.LBE3726:
	.loc 2 918 0
	rlwinm 26,28,0,0xff
.LVL985:
.LBB3757:
.LBB3755:
.LBB3753:
.LBB3735:
.LBB3734:
	.loc 4 711 0
	lwz 11,-12(9)
.LBE3734:
.LBE3735:
	.loc 4 1046 0
	lwz 0,-8(9)
	.loc 4 1045 0
	addi 27,11,1
.LVL986:
	.loc 4 1046 0
	cmplw 7,27,0
	bgt- 7,.L750
.LVL987:
	lwz 0,-4(9)
	cmpwi 7,0,0
	ble- 7,.L751
.L750:
	.loc 4 1047 0
	mr 3,30
.LVL988:
	mr 4,27
	bl _ZNSs7reserveEj
	lwz 9,0(30)
	lwz 11,-12(9)
.L751:
.LVL989:
.LBB3736:
.LBB3737:
	.loc 6 245 0
	stbx 26,9,11
.LVL990:
.LBE3737:
.LBE3736:
.LBB3738:
.LBB3739:
	.loc 4 205 0
	lis 10,_ZNSs4_Rep20_S_empty_rep_storageE@ha
	la 0,_ZNSs4_Rep20_S_empty_rep_storageE@l(10)
.LBE3739:
.LBE3738:
.LBB3748:
.LBB3749:
.LBB3750:
	.loc 4 288 0
	lwz 9,0(30)
.LVL991:
.LBE3750:
.LBE3749:
.LBE3748:
	.loc 4 1049 0
	addi 11,9,-12
.LBB3751:
.LBB3746:
	.loc 4 205 0
	cmpw 7,11,0
	bne- 7,.L804
.L752:
.LBE3746:
.LBE3751:
.LBE3753:
.LBE3755:
.LBE3757:
	.loc 2 920 0
	cmpwi 7,28,62
	bne+ 7,.L747
.LVL992:
.L753:
.LBE3724:
.LBB3759:
.LBB3760:
.LBB3761:
.LBB3762:
.LBB3763:
	.loc 4 288 0
	lwz 11,0(30)
.LBE3763:
.LBE3762:
.LBE3761:
	.loc 4 717 0
	lwz 9,-12(11)
.LBE3760:
.LBE3759:
	.loc 2 924 0
	cmplwi 7,9,2
	bgt- 7,.L805
.LVL993:
.L746:
.LBE3722:
	.loc 2 1041 0
	lwz 0,100(1)
	lwz 23,60(1)
	mtlr 0
	lwz 24,64(1)
	lwz 25,68(1)
	lwz 26,72(1)
	lwz 27,76(1)
	lwz 28,80(1)
	lwz 29,84(1)
.LVL994:
	lwz 30,88(1)
.LVL995:
	lwz 31,92(1)
.LVL996:
	addi 1,1,96
	.cfi_remember_state
.LCFI138:
	.cfi_def_cfa_offset 0
	.cfi_restore 31
	.cfi_restore 30
	.cfi_restore 29
	.cfi_restore 28
	.cfi_restore 27
	.cfi_restore 26
	.cfi_restore 25
	.cfi_restore 24
	.cfi_restore 23
	blr
.LVL997:
.L805:
.LCFI139:
	.cfi_restore_state
.LBB3899:
.LBB3764:
.LBB3765:
.LBB3766:
	.loc 4 911 0
	cmpwi 7,9,0
	addi 28,9,-1
	beq- 7,.L782
.LVL998:
.LBB3767:
.LBB3768:
	.loc 4 311 0
	lwz 0,-4(11)
	cmpwi 7,0,0
	blt- 7,.L756
	.loc 4 312 0
	mr 3,30
	bl _ZNSs12_M_leak_hardEv
.LVL999:
	lwz 11,0(30)
	lwz 9,-12(11)
.L756:
.LVL1000:
.LBE3768:
.LBE3767:
.LBE3766:
.LBE3765:
	.loc 2 929 0
	lbzx 0,11,28
	cmpwi 7,0,62
	beq- 7,.L806
.LVL1001:
.L757:
.LBB3769:
.LBB3770:
.LBB3771:
	.loc 4 911 0
	cmpwi 7,9,0
	addi 28,9,-1
	beq- 7,.L782
.LVL1002:
.LBB3772:
.LBB3773:
	.loc 4 311 0
	lwz 0,-4(11)
	cmpwi 7,0,0
	blt- 7,.L760
	.loc 4 312 0
	mr 3,30
	bl _ZNSs12_M_leak_hardEv
.LVL1003:
	lwz 11,0(30)
.L760:
.LVL1004:
.LBE3773:
.LBE3772:
.LBE3771:
.LBE3770:
	.loc 2 935 0
	lbzx 0,11,28
	cmpwi 7,0,62
	bne+ 7,.L746
.LVL1005:
.L793:
.LBB3775:
	.loc 2 944 0
	mr 3,31
	mr 4,30
	bl _ZN9TiXmlBase16StreamWhiteSpaceEPSiPSs
.LVL1006:
.LBB3776:
	.loc 2 947 0
	lwz 9,0(31)
.LBB3777:
	.loc 2 1638 0
	lwz 9,-12(9)
	add 9,31,9
.LBE3777:
	.loc 2 947 0
	lwz 0,20(9)
	cmpwi 7,0,0
	bne+ 7,.L746
	.loc 2 947 0 is_stmt 0 discriminator 1
	mr 3,31
	bl _ZNSi4peekEv
.LVL1007:
	cmpwi 7,3,60
	beq- 7,.L762
.LVL1008:
.LBB3778:
.LBB3779:
.LBB3780:
.LBB3781:
	.loc 1 1222 0 is_stmt 1 discriminator 4
	addi 3,1,8
	li 4,4
	bl _ZN9TiXmlNodeC2ENS_8NodeTypeE
.LEHE22:
	lis 28,_ZTV9TiXmlText+8@ha
.LBB3782:
.LBB3783:
.LBB3784:
.LBB3785:
	.loc 4 1121 0 discriminator 4
	lis 4,.LC7@ha
.LBE3785:
.LBE3784:
.LBE3783:
.LBE3782:
	.loc 1 1222 0 discriminator 4
	la 28,_ZTV9TiXmlText+8@l(28)
.LBB3792:
.LBB3790:
.LBB3788:
.LBB3786:
	.loc 4 1121 0 discriminator 4
	addi 3,1,40
	la 4,.LC7@l(4)
	li 5,0
.LBE3786:
.LBE3788:
.LBE3790:
.LBE3792:
	.loc 1 1222 0 discriminator 4
	stw 28,8(1)
.LVL1009:
.LEHB23:
.LBB3793:
.LBB3791:
.LBB3789:
.LBB3787:
	.loc 4 1121 0 discriminator 4
	bl _ZNSs6assignEPKcj
.LEHE23:
.LVL1010:
.LBE3787:
.LBE3789:
.LBE3791:
.LBE3793:
	.loc 1 1225 0
	li 0,0
.LBE3781:
.LBE3780:
.LBE3779:
	.loc 2 951 0
	addi 3,1,8
	mr 4,31
	mr 5,30
.LBB3798:
.LBB3796:
.LBB3794:
	.loc 1 1225 0
	stb 0,52(1)
.LEHB24:
.LBE3794:
.LBE3796:
.LBE3798:
	.loc 2 951 0
	bl _ZN9TiXmlText8StreamInEPSiPSs
.LEHE24:
.LVL1011:
.LBB3799:
.LBB3800:
	.loc 1 1227 0
	addi 3,1,8
	stw 28,8(1)
.LEHB25:
	bl _ZN9TiXmlNodeD2Ev
	b .L793
.LVL1012:
.L802:
.LBE3800:
.LBE3799:
.LBE3778:
.LBE3776:
.LBB3807:
.LBB3808:
.LBB3809:
.LBB3810:
.LBB3811:
.LBB3812:
	.loc 1 693 0
	mr 3,29
	bl _ZNK9TiXmlNode11GetDocumentEv
.LVL1013:
.LBE3812:
.LBE3811:
	.loc 2 1016 0
	cmpwi 7,3,0
	beq- 7,.L746
	.loc 2 1017 0
	li 4,13
	li 5,0
	li 6,0
	li 7,0
	bl _ZN13TiXmlDocument8SetErrorEiPKcP16TiXmlParsingData13TiXmlEncoding
.LVL1014:
.LBE3810:
.LBE3809:
.LBE3808:
.LBE3807:
.LBE3775:
.LBE3769:
.LBE3764:
.LBE3899:
	.loc 2 1041 0
	lwz 0,100(1)
	lwz 23,60(1)
	mtlr 0
	lwz 24,64(1)
	lwz 25,68(1)
	lwz 26,72(1)
	lwz 27,76(1)
	lwz 28,80(1)
	lwz 29,84(1)
.LVL1015:
	lwz 30,88(1)
.LVL1016:
	lwz 31,92(1)
.LVL1017:
	addi 1,1,96
	.cfi_remember_state
	.cfi_restore 23
	.cfi_restore 24
	.cfi_restore 25
	.cfi_restore 26
	.cfi_restore 27
	.cfi_restore 28
	.cfi_restore 29
	.cfi_restore 30
	.cfi_restore 31
.LCFI140:
	.cfi_def_cfa_offset 0
	blr
.LVL1018:
.L806:
.LCFI141:
	.cfi_restore_state
.LBB3900:
.LBB3896:
.LBB3890:
.LBB3891:
	.loc 4 911 0
	cmplwi 7,9,1
	addi 28,9,-2
.LVL1019:
	ble- 7,.L782
.LVL1020:
.LBB3892:
.LBB3893:
	.loc 4 311 0
	lwz 0,-4(11)
	cmpwi 7,0,0
	blt- 7,.L759
	.loc 4 312 0
	mr 3,30
	bl _ZNSs12_M_leak_hardEv
.LVL1021:
	lwz 11,0(30)
.L759:
.LVL1022:
.LBE3893:
.LBE3892:
.LBE3891:
.LBE3890:
	.loc 2 929 0
	lbzx 0,11,28
	cmpwi 7,0,47
	beq- 7,.L746
	lwz 9,-12(11)
	b .L757
.LVL1023:
.L762:
.LBB3894:
.LBB3886:
	.loc 2 960 0
	lwz 9,0(31)
.LBB3820:
	.loc 2 1638 0
	lwz 9,-12(9)
	add 9,31,9
.LBE3820:
	.loc 2 960 0
	lwz 0,20(9)
	cmpwi 7,0,0
	bne- 7,.L746
	.loc 2 961 0
	mr 3,31
	bl _ZNSi4peekEv
.LVL1024:
	cmpwi 7,3,60
	bne- 7,.L807
.LVL1025:
.LBB3821:
.LBB3822:
	.loc 4 717 0
	lwz 9,0(30)
	.loc 2 965 0
	li 25,0
	.loc 2 964 0
	li 23,0
	.loc 4 717 0
	lwz 24,-12(9)
.LVL1026:
.L794:
.LBE3822:
.LBE3821:
.LBB3823:
	.loc 2 969 0
	lwz 9,0(31)
.LBB3824:
	.loc 2 1638 0
	lwz 9,-12(9)
	add 9,31,9
.LBE3824:
	.loc 2 969 0
	lwz 0,20(9)
	cmpwi 7,0,0
	bne- 7,.L746
	.loc 2 972 0
	mr 3,31
	bl _ZNSi4peekEv
.LVL1027:
.LBB3825:
	.loc 2 973 0
	mr. 28,3
	ble- 0,.L802
.LBE3825:
	.loc 2 981 0
	cmpwi 7,28,62
	beq- 7,.L769
.LBB3826:
.LBB3827:
.LBB3828:
.LBB3829:
.LBB3830:
.LBB3831:
.LBB3832:
.LBB3833:
	.loc 4 288 0
	lwz 9,0(30)
.LBE3833:
.LBE3832:
.LBE3831:
.LBE3830:
.LBE3829:
.LBE3828:
.LBE3827:
.LBE3826:
	.loc 2 984 0
	rlwinm 26,28,0,0xff
.LVL1028:
.LBB3857:
.LBB3855:
.LBB3853:
.LBB3835:
.LBB3834:
	.loc 4 711 0
	lwz 11,-12(9)
.LBE3834:
.LBE3835:
	.loc 4 1046 0
	lwz 0,-8(9)
	.loc 4 1045 0
	addi 27,11,1
.LVL1029:
	.loc 4 1046 0
	cmplw 7,27,0
	bgt- 7,.L770
.LVL1030:
	lwz 0,-4(9)
	cmpwi 7,0,0
	ble- 7,.L771
.L770:
	.loc 4 1047 0
	mr 3,30
.LVL1031:
	mr 4,27
	bl _ZNSs7reserveEj
	lwz 9,0(30)
	lwz 11,-12(9)
.L771:
.LVL1032:
.LBB3836:
.LBB3837:
	.loc 6 245 0
	stbx 26,9,11
.LVL1033:
.LBE3837:
.LBE3836:
.LBB3838:
.LBB3839:
	.loc 4 205 0
	lis 10,_ZNSs4_Rep20_S_empty_rep_storageE@ha
	la 0,_ZNSs4_Rep20_S_empty_rep_storageE@l(10)
.LBE3839:
.LBE3838:
.LBB3848:
.LBB3849:
.LBB3850:
	.loc 4 288 0
	lwz 9,0(30)
.LVL1034:
.LBE3850:
.LBE3849:
.LBE3848:
	.loc 4 1049 0
	addi 11,9,-12
.LBB3851:
.LBB3846:
	.loc 4 205 0
	cmpw 7,11,0
	bne- 7,.L808
.L772:
.LBE3846:
.LBE3851:
.LBE3853:
.LBE3855:
.LBE3857:
	.loc 2 985 0
	mr 3,31
	bl _ZNSi3getEv
.LVL1035:
.LBB3858:
	.loc 2 988 0
	cmpwi 7,28,91
	beq- 7,.L809
.LVL1036:
.L773:
.LBE3858:
	.loc 2 998 0
	cmpwi 7,25,0
	bne- 7,.L794
	.loc 2 998 0 is_stmt 0 discriminator 1
	cmpwi 7,28,60
	beq- 7,.L794
.LVL1037:
.LBB3866:
.LBB3867:
	.loc 1 298 0 is_stmt 1
	cmpwi 7,28,255
	ble- 7,.L810
.LVL1038:
.L776:
.LBE3867:
.LBE3866:
	.loc 2 1000 0
	li 25,1
	b .L794
.LVL1039:
.L809:
.LBB3873:
.LBB3859:
.LBB3860:
.LBB3861:
.LBB3862:
.LBB3863:
	.loc 4 288 0
	lwz 27,0(30)
.LVL1040:
.LBE3863:
.LBE3862:
.LBE3861:
	.loc 4 711 0
	lwz 9,-12(27)
.LBE3860:
.LBE3859:
	.loc 2 988 0
	cmplwi 7,9,8
	ble- 7,.L773
.LVL1041:
.LBB3864:
	.loc 2 991 0 discriminator 4
	addi 9,9,-9
	.loc 2 992 0 discriminator 4
	lis 4,.LC19@ha
	add 3,27,9
	la 4,.LC19@l(4)
	bl strcmp
.LVL1042:
	cmpwi 7,3,0
	bne+ 7,.L773
	.loc 2 993 0
	cmpwi 7,23,0
	bne- 7,.L811
.LVL1043:
.L774:
.LBE3864:
.LBE3873:
.LBE3823:
.LBB3877:
.LBB3817:
	.loc 2 1030 0
	mr 3,29
	add 4,27,24
	li 5,0
	bl _ZN9TiXmlNode8IdentifyEPKc13TiXmlEncoding
.LVL1044:
	.loc 2 1031 0
	mr. 28,3
.LVL1045:
	beq- 0,.L746
	.loc 2 1033 0
	lwz 9,0(28)
	mr 4,31
	mr 5,30
	lwz 0,72(9)
	mtctr 0
	bctrl
.LVL1046:
	.loc 2 1034 0
	lwz 9,0(28)
	mr 3,28
	lwz 0,4(9)
	mtctr 0
	bctrl
	b .L793
.LVL1047:
.L810:
.LBE3817:
.LBE3877:
.LBB3878:
.LBB3874:
.LBB3872:
.LBB3868:
.LBB3869:
	.loc 1 294 0
	mr 3,26
	bl isspace
	cmpwi 7,3,0
	bne- 7,.L794
.LVL1048:
.LBB3870:
.LBB3871:
	cmpwi 7,26,10
	beq- 7,.L794
.LBE3871:
.LBE3870:
.LBE3869:
.LBE3868:
.LBE3872:
.LBE3874:
	.loc 2 998 0
	cmpwi 7,26,13
	beq+ 7,.L794
.LVL1049:
	.loc 2 1001 0 discriminator 5
	cmpwi 7,28,47
	bne+ 7,.L776
	.loc 2 1000 0
	li 25,1
	.loc 2 1002 0
	li 23,1
	b .L794
.LVL1050:
.L769:
.LBE3878:
.LBB3879:
	.loc 2 1007 0
	cmpwi 7,23,0
	bne- 7,.L777
	lwz 27,0(30)
	b .L774
.LVL1051:
.L804:
.LBE3879:
.LBE3886:
.LBE3894:
.LBE3896:
.LBB3897:
.LBB3758:
.LBB3756:
.LBB3754:
.LBB3752:
.LBB3747:
.LBB3740:
.LBB3741:
	.loc 4 199 0
	li 0,0
.LBE3741:
.LBE3740:
	.loc 4 209 0
	stw 27,-12(9)
.LVL1052:
.LBB3743:
.LBB3742:
	.loc 4 199 0
	stw 0,-4(9)
.LBE3742:
.LBE3743:
.LBB3744:
.LBB3745:
	.loc 6 245 0
	stbx 0,9,27
	b .L752
.LVL1053:
.L808:
.LBE3745:
.LBE3744:
.LBE3747:
.LBE3752:
.LBE3754:
.LBE3756:
.LBE3758:
.LBE3897:
.LBB3898:
.LBB3895:
.LBB3887:
.LBB3880:
.LBB3875:
.LBB3856:
.LBB3854:
.LBB3852:
.LBB3847:
.LBB3840:
.LBB3841:
	.loc 4 199 0
	li 0,0
.LBE3841:
.LBE3840:
	.loc 4 209 0
	stw 27,-12(9)
.LVL1054:
.LBB3843:
.LBB3842:
	.loc 4 199 0
	stw 0,-4(9)
.LBE3842:
.LBE3843:
.LBB3844:
.LBB3845:
	.loc 6 245 0
	stbx 0,9,27
	b .L772
.LVL1055:
.L777:
.LBE3845:
.LBE3844:
.LBE3847:
.LBE3852:
.LBE3854:
.LBE3856:
.LBE3875:
.LBE3880:
.LBB3881:
.LBB3818:
	.loc 2 1009 0
	lwz 9,0(31)
.LBB3813:
	.loc 2 1638 0
	lwz 9,-12(9)
	add 9,31,9
.LBE3813:
	.loc 2 1009 0
	lwz 0,20(9)
	cmpwi 7,0,0
	bne+ 7,.L746
	.loc 2 1012 0
	mr 3,31
	bl _ZNSi3getEv
.LVL1056:
.LBB3814:
	.loc 2 1013 0
	cmpwi 0,3,0
	ble- 0,.L802
.LBE3814:
	.loc 2 1020 0
	cmpwi 7,3,62
	bne- 7,.L812
.LVL1057:
.LBB3815:
.LBB3816:
	.loc 4 944 0
	mr 3,30
.LVL1058:
	li 4,62
	bl _ZNSs9push_backEc
.LEHE25:
	b .L746
.LVL1059:
.L786:
	mr 31,3
.LVL1060:
.LBE3816:
.LBE3815:
.LBE3818:
.LBE3881:
.LBB3882:
.LBB3805:
.LBB3801:
.LBB3802:
.LBB3803:
	.loc 1 1227 0
	addi 3,1,8
	stw 28,8(1)
	bl _ZN9TiXmlNodeD2Ev
	mr 3,31
.LEHB26:
	bl _Unwind_Resume
.LVL1061:
.L812:
.LBE3803:
.LBE3802:
.LBE3801:
.LBE3805:
.LBE3882:
.LBB3883:
.LBB3819:
	.loc 2 1020 0 discriminator 1
	lis 5,.LANCHOR1@ha
	lis 3,.LC1@ha
.LVL1062:
	la 5,.LANCHOR1@l(5)
	lis 6,.LC29@ha
	la 3,.LC1@l(3)
	li 4,1020
	addi 5,5,1616
	la 6,.LC29@l(6)
	bl __assert_func
.LVL1063:
.L807:
.LBE3819:
.LBE3883:
	.loc 2 961 0 discriminator 1
	lis 5,.LANCHOR1@ha
	lis 3,.LC1@ha
	la 5,.LANCHOR1@l(5)
	lis 6,.LC27@ha
	la 3,.LC1@l(3)
	li 4,961
	addi 5,5,1616
	la 6,.LC27@l(6)
	bl __assert_func
.LVL1064:
.L811:
.LBB3884:
.LBB3876:
.LBB3865:
	.loc 2 993 0 discriminator 1
	lis 5,.LANCHOR1@ha
	lis 3,.LC1@ha
	la 5,.LANCHOR1@l(5)
	lis 6,.LC28@ha
	la 3,.LC1@l(3)
	li 4,993
	addi 5,5,1616
	la 6,.LC28@l(6)
	bl __assert_func
.LVL1065:
.L782:
.LBE3865:
.LBE3876:
.LBE3884:
.LBE3887:
.LBB3888:
.LBB3774:
	.loc 4 912 0
	lis 3,.LC25@ha
	la 3,.LC25@l(3)
	bl _ZSt20__throw_out_of_rangePKc
.LEHE26:
.LVL1066:
.L787:
	mr 31,3
.LVL1067:
.LBE3774:
.LBE3888:
.LBB3889:
.LBB3885:
.LBB3806:
.LBB3804:
.LBB3797:
.LBB3795:
	.loc 1 1222 0
	addi 3,1,8
	bl _ZN9TiXmlNodeD2Ev
	mr 3,31
.LEHB27:
	bl _Unwind_Resume
.LEHE27:
.LBE3795:
.LBE3797:
.LBE3804:
.LBE3806:
.LBE3885:
.LBE3889:
.LBE3895:
.LBE3898:
.LBE3900:
	.cfi_endproc
.LFE1236:
	.section	.gcc_except_table
.LLSDA1236:
	.byte	0xff
	.byte	0xff
	.byte	0x1
	.uleb128 .LLSDACSE1236-.LLSDACSB1236
.LLSDACSB1236:
	.uleb128 .LEHB22-.LFB1236
	.uleb128 .LEHE22-.LEHB22
	.uleb128 0
	.uleb128 0
	.uleb128 .LEHB23-.LFB1236
	.uleb128 .LEHE23-.LEHB23
	.uleb128 .L787-.LFB1236
	.uleb128 0
	.uleb128 .LEHB24-.LFB1236
	.uleb128 .LEHE24-.LEHB24
	.uleb128 .L786-.LFB1236
	.uleb128 0
	.uleb128 .LEHB25-.LFB1236
	.uleb128 .LEHE25-.LEHB25
	.uleb128 0
	.uleb128 0
	.uleb128 .LEHB26-.LFB1236
	.uleb128 .LEHE26-.LEHB26
	.uleb128 0
	.uleb128 0
	.uleb128 .LEHB27-.LFB1236
	.uleb128 .LEHE27-.LEHB27
	.uleb128 0
	.uleb128 0
.LLSDACSE1236:
	.section	".text"
	.size	_ZN12TiXmlElement8StreamInEPSiPSs, .-_ZN12TiXmlElement8StreamInEPSiPSs
	.align 2
	.globl _ZN9TiXmlText5ParseEPKcP16TiXmlParsingData13TiXmlEncoding
	.type	_ZN9TiXmlText5ParseEPKcP16TiXmlParsingData13TiXmlEncoding, @function
_ZN9TiXmlText5ParseEPKcP16TiXmlParsingData13TiXmlEncoding:
.LFB1249:
	.loc 2 1499 0
	.cfi_startproc
	.cfi_personality 0,__gxx_personality_v0
	.cfi_lsda 0,.LLSDA1249
.LVL1068:
	stwu 1,-56(1)
.LCFI142:
	.cfi_def_cfa_offset 56
	mflr 0
	stw 27,36(1)
	mr 27,4
	.cfi_offset 27, -20
	.cfi_register 65, 0
	stw 28,40(1)
.LBB3977:
.LBB3978:
.LBB3979:
.LBB3980:
	.loc 4 1121 0
	lis 4,.LC7@ha
.LVL1069:
.LBE3980:
.LBE3979:
.LBE3978:
	.loc 2 1500 0
	addi 28,3,32
	.cfi_offset 28, -16
.LVL1070:
.LBE3977:
	.loc 2 1499 0
	stw 30,48(1)
	stw 31,52(1)
	mr 30,5
	.cfi_offset 31, -4
	.cfi_offset 30, -8
	mr 31,3
.LBB4061:
.LBB3985:
.LBB3983:
.LBB3981:
	.loc 4 1121 0
	li 5,0
.LVL1071:
	la 4,.LC7@l(4)
	mr 3,28
.LVL1072:
.LBE3981:
.LBE3983:
.LBE3985:
.LBE4061:
	.loc 2 1499 0
	stw 0,60(1)
	stw 25,28(1)
	stw 29,44(1)
	mr 29,6
	.cfi_offset 29, -12
	.cfi_offset 25, -28
	.cfi_offset 65, 4
	stw 24,24(1)
	stw 26,32(1)
.LEHB28:
.LBB4062:
.LBB3986:
.LBB3984:
.LBB3982:
	.loc 4 1121 0
	.cfi_offset 26, -24
	.cfi_offset 24, -32
	bl _ZNSs6assignEPKcj
.LVL1073:
.LBE3982:
.LBE3984:
.LBE3986:
.LBB3987:
.LBB3988:
	.loc 1 693 0
	mr 3,31
	bl _ZNK9TiXmlNode11GetDocumentEv
.LBE3988:
.LBE3987:
	.loc 2 1503 0
	cmpwi 7,30,0
.LBB3990:
.LBB3989:
	.loc 1 693 0
	mr 25,3
.LVL1074:
.LBE3989:
.LBE3990:
	.loc 2 1503 0
	beq- 7,.L814
	.loc 2 1505 0
	mr 3,30
.LVL1075:
	mr 4,27
	mr 5,29
	bl _ZN16TiXmlParsingData5StampEPKc13TiXmlEncoding
.LVL1076:
	.loc 2 1506 0
	lwz 10,0(30)
	lwz 11,4(30)
	stw 10,4(31)
	stw 11,8(31)
.LVL1077:
.L814:
.LBB3991:
	.loc 2 1512 0
	lbz 0,44(31)
	lis 26,.LC19@ha
	la 26,.LC19@l(26)
	cmpwi 7,0,0
	beq- 7,.L840
.L815:
.LBB3992:
	.loc 2 1514 0 discriminator 4
	li 0,1
	.loc 2 1516 0 discriminator 4
	mr 3,27
	.loc 2 1514 0 discriminator 4
	stb 0,44(31)
	.loc 2 1516 0 discriminator 4
	mr 4,26
	li 5,0
	mr 6,29
	bl _ZN9TiXmlBase11StringEqualEPKcS1_b13TiXmlEncoding
.LEHE28:
	cmpwi 7,3,0
	beq- 7,.L846
.LVL1078:
	.loc 2 1525 0
	addic. 30,27,9
.LVL1079:
	beq- 0,.L845
	lbz 0,9(27)
	cmpwi 7,0,0
	bne- 7,.L842
.L845:
	lis 27,.LC30@ha
.LVL1080:
	la 27,.LC30@l(27)
.LVL1081:
.L819:
.LBB3993:
.LBB3994:
.LBB3995:
	.loc 4 270 0
	lis 9,_ZNSs4_Rep20_S_empty_rep_storageE+12@ha
	mr 31,1
.LVL1082:
	la 0,_ZNSs4_Rep20_S_empty_rep_storageE+12@l(9)
.LBE3995:
.LBE3994:
.LBE3993:
	.loc 2 1534 0
	mr 3,30
.LBB3998:
.LBB3997:
.LBB3996:
	.loc 4 270 0
	stwu 0,12(31)
.LBE3996:
.LBE3997:
.LBE3998:
	.loc 2 1534 0
	li 5,0
	mr 6,27
	mr 7,29
	mr 4,31
.LEHB29:
	bl _ZN9TiXmlBase8ReadTextEPKcPSsbS1_b13TiXmlEncoding.constprop.26
.LEHE29:
.LBB3999:
.LBB4000:
.LBB4001:
.LBB4002:
.LBB4003:
.LBB4004:
	.loc 4 288 0
	lwz 9,12(1)
.LBE4004:
.LBE4003:
.LBE4002:
.LBB4005:
.LBB4006:
	.loc 4 235 0
	lis 11,_ZNSs4_Rep20_S_empty_rep_storageE@ha
	la 11,_ZNSs4_Rep20_S_empty_rep_storageE@l(11)
.LBE4006:
.LBE4005:
.LBE4001:
.LBE4000:
.LBE3999:
	.loc 2 1534 0
	mr 31,3
.LVL1083:
.LBB4021:
.LBB4019:
.LBB4017:
	.loc 4 534 0
	addi 0,9,-12
.LVL1084:
.LBB4015:
.LBB4013:
	.loc 4 235 0
	cmpw 7,0,11
	bne- 7,.L847
.LVL1085:
.L831:
.LBE4013:
.LBE4015:
.LBE4017:
.LBE4019:
.LBE4021:
.LBE3992:
.LBE3991:
.LBE4062:
	.loc 2 1547 0
	lwz 0,60(1)
	mr 3,31
	lwz 24,24(1)
	mtlr 0
	lwz 25,28(1)
	lwz 26,32(1)
	lwz 27,36(1)
	lwz 28,40(1)
.LVL1086:
	lwz 29,44(1)
.LVL1087:
	lwz 30,48(1)
	lwz 31,52(1)
	addi 1,1,56
	.cfi_remember_state
.LCFI143:
	.cfi_def_cfa_offset 0
	.cfi_restore 31
	.cfi_restore 30
	.cfi_restore 29
	.cfi_restore 28
	.cfi_restore 27
	.cfi_restore 26
	.cfi_restore 25
	.cfi_restore 24
	blr
.LVL1088:
.L846:
.LCFI144:
	.cfi_restore_state
.LBB4063:
.LBB4059:
.LBB4056:
	.loc 2 1518 0
	cmpwi 7,25,0
	.loc 2 1520 0
	li 31,0
.LVL1089:
	.loc 2 1518 0
	beq- 7,.L831
	.loc 2 1519 0
	mr 3,25
	mr 5,27
	mr 6,30
	mr 7,29
	li 4,14
.LEHB30:
	bl _ZN13TiXmlDocument8SetErrorEiPKcP16TiXmlParsingData13TiXmlEncoding
.LBE4056:
.LBE4059:
.LBE4063:
	.loc 2 1547 0
	lwz 0,60(1)
	mr 3,31
	lwz 24,24(1)
	mtlr 0
	lwz 25,28(1)
.LVL1090:
	lwz 26,32(1)
	lwz 27,36(1)
.LVL1091:
	lwz 28,40(1)
.LVL1092:
	lwz 29,44(1)
.LVL1093:
	lwz 30,48(1)
.LVL1094:
	lwz 31,52(1)
	addi 1,1,56
	.cfi_remember_state
	.cfi_restore 24
	.cfi_restore 25
	.cfi_restore 26
	.cfi_restore 27
	.cfi_restore 28
	.cfi_restore 29
	.cfi_restore 30
	.cfi_restore 31
.LCFI145:
	.cfi_def_cfa_offset 0
	blr
.LVL1095:
.L840:
.LCFI146:
	.cfi_restore_state
.LBB4064:
.LBB4060:
	.loc 2 1512 0 discriminator 2
	mr 3,27
	mr 4,26
	li 5,0
	mr 6,29
	bl _ZN9TiXmlBase11StringEqualEPKcS1_b13TiXmlEncoding
	cmpwi 7,3,0
	bne- 7,.L815
.LVL1096:
.LBB4057:
	.loc 2 1542 0
	lis 6,.LC31@ha
	mr 3,27
	mr 4,28
	li 5,1
	la 6,.LC31@l(6)
	mr 7,29
	bl _ZN9TiXmlBase8ReadTextEPKcPSsbS1_b13TiXmlEncoding.constprop.26
.LVL1097:
	.loc 2 1543 0
	mr. 31,3
.LVL1098:
	beq- 0,.L831
	.loc 2 1543 0 is_stmt 0 discriminator 1
	lbz 0,0(31)
	.loc 2 1544 0 is_stmt 1 discriminator 1
	addi 31,31,-1
	.loc 2 1543 0 discriminator 1
	cmpwi 7,0,0
	bne+ 7,.L831
	.loc 2 1545 0
	li 31,0
	b .L831
.LVL1099:
.L842:
.LBE4057:
.LBB4058:
	.loc 2 1498 0
	addi 26,27,8
	lis 27,.LC30@ha
	la 27,.LC30@l(27)
	b .L820
.LVL1100:
.L823:
.LBB4022:
.LBB4023:
.LBB4024:
	.loc 4 1047 0
	mr 3,28
	mr 4,24
	bl _ZNSs7reserveEj
	lwz 9,32(31)
	lwz 11,-12(9)
.L821:
.LVL1101:
.LBB4025:
.LBB4026:
	.loc 6 245 0
	stbx 25,9,11
.LBE4026:
.LBE4025:
.LBB4027:
.LBB4028:
	.loc 4 205 0
	lis 10,_ZNSs4_Rep20_S_empty_rep_storageE@ha
	la 0,_ZNSs4_Rep20_S_empty_rep_storageE@l(10)
.LBE4028:
.LBE4027:
.LBB4037:
.LBB4038:
.LBB4039:
	.loc 4 288 0
	lwz 9,32(31)
.LVL1102:
.LBE4039:
.LBE4038:
.LBE4037:
	.loc 4 1049 0
	addi 11,9,-12
.LBB4040:
.LBB4035:
	.loc 4 205 0
	cmpw 7,11,0
	bne- 7,.L848
.L822:
.LVL1103:
.LBE4035:
.LBE4040:
.LBE4024:
.LBE4023:
.LBE4022:
	.loc 2 1525 0
	addic. 30,30,1
.LVL1104:
	beq- 0,.L819
	.loc 2 1525 0 is_stmt 0 discriminator 2
	lbz 0,1(26)
	cmpwi 7,0,0
	beq+ 7,.L819
.LVL1105:
.L820:
	.loc 2 1526 0 is_stmt 1 discriminator 4
	mr 3,30
	mr 4,27
	li 5,0
	mr 6,29
	bl _ZN9TiXmlBase11StringEqualEPKcS1_b13TiXmlEncoding
	.loc 2 1525 0 discriminator 4
	cmpwi 7,3,0
	bne- 7,.L819
.LBB4053:
.LBB4051:
.LBB4049:
.LBB4041:
.LBB4042:
.LBB4043:
.LBB4044:
.LBB4045:
	.loc 4 288 0 discriminator 6
	lwz 9,32(31)
.LBE4045:
.LBE4044:
.LBE4043:
.LBE4042:
.LBE4041:
.LBE4049:
.LBE4051:
.LBE4053:
	.loc 2 1529 0 discriminator 6
	lbzu 25,1(26)
.LVL1106:
.LBB4054:
.LBB4052:
.LBB4050:
.LBB4047:
.LBB4046:
	.loc 4 711 0 discriminator 6
	lwz 11,-12(9)
.LBE4046:
.LBE4047:
	.loc 4 1046 0 discriminator 6
	lwz 0,-8(9)
	.loc 4 1045 0 discriminator 6
	addi 24,11,1
.LVL1107:
	.loc 4 1046 0 discriminator 6
	cmplw 7,24,0
	bgt- 7,.L823
	.loc 4 1046 0 is_stmt 0
	lwz 0,-4(9)
	cmpwi 7,0,0
	bgt+ 7,.L823
	b .L821
.LVL1108:
.L848:
.LBB4048:
.LBB4036:
.LBB4029:
.LBB4030:
	.loc 4 199 0 is_stmt 1
	li 0,0
.LBE4030:
.LBE4029:
	.loc 4 209 0
	stw 24,-12(9)
.LVL1109:
.LBB4032:
.LBB4031:
	.loc 4 199 0
	stw 0,-4(9)
.LBE4031:
.LBE4032:
.LBB4033:
.LBB4034:
	.loc 6 245 0
	stbx 0,9,24
	b .L822
.LVL1110:
.L847:
.LBE4034:
.LBE4033:
.LBE4036:
.LBE4048:
.LBE4050:
.LBE4052:
.LBE4054:
.LBB4055:
.LBB4020:
.LBB4018:
.LBB4016:
.LBB4014:
.LBB4007:
.LBB4008:
.LBB4009:
	.loc 5 66 0
	lwz 11,-4(9)
.LVL1111:
.LBE4009:
.LBE4008:
.LBE4007:
	.loc 4 240 0
	cmpwi 7,11,0
.LBB4012:
.LBB4011:
.LBB4010:
	.loc 5 67 0
	addi 11,11,-1
	stw 11,-4(9)
.LBE4010:
.LBE4011:
.LBE4012:
	.loc 4 240 0
	bgt+ 7,.L831
	.loc 4 244 0
	mr 3,0
.LVL1112:
	addi 4,1,8
	bl _ZNSs4_Rep10_M_destroyERKSaIcE
.LVL1113:
	b .L831
.LVL1114:
.L836:
	mr 30,3
.LVL1115:
.LBE4014:
.LBE4016:
.LBE4018:
.LBE4020:
.LBE4055:
	.loc 2 1535 0
	mr 3,31
	bl _ZNSsD1Ev
	mr 3,30
	bl _Unwind_Resume
.LEHE30:
.LBE4058:
.LBE4060:
.LBE4064:
	.cfi_endproc
.LFE1249:
	.section	.gcc_except_table
.LLSDA1249:
	.byte	0xff
	.byte	0xff
	.byte	0x1
	.uleb128 .LLSDACSE1249-.LLSDACSB1249
.LLSDACSB1249:
	.uleb128 .LEHB28-.LFB1249
	.uleb128 .LEHE28-.LEHB28
	.uleb128 0
	.uleb128 0
	.uleb128 .LEHB29-.LFB1249
	.uleb128 .LEHE29-.LEHB29
	.uleb128 .L836-.LFB1249
	.uleb128 0
	.uleb128 .LEHB30-.LFB1249
	.uleb128 .LEHE30-.LEHB30
	.uleb128 0
	.uleb128 0
.LLSDACSE1249:
	.section	".text"
	.size	_ZN9TiXmlText5ParseEPKcP16TiXmlParsingData13TiXmlEncoding, .-_ZN9TiXmlText5ParseEPKcP16TiXmlParsingData13TiXmlEncoding
	.align 2
	.globl _ZN16TiXmlDeclaration8StreamInEPSiPSs
	.type	_ZN16TiXmlDeclaration8StreamInEPSiPSs, @function
_ZN16TiXmlDeclaration8StreamInEPSiPSs:
.LFB1250:
	.loc 2 1551 0
	.cfi_startproc
.LVL1116:
	mflr 0
	stwu 1,-32(1)
.LCFI147:
	.cfi_def_cfa_offset 32
	.cfi_register 65, 0
	stw 26,8(1)
	stw 0,36(1)
	stw 27,12(1)
	stw 28,16(1)
	stw 29,20(1)
	mr 29,5
	.cfi_offset 29, -12
	.cfi_offset 28, -16
	.cfi_offset 27, -20
	.cfi_offset 65, 4
	.cfi_offset 26, -24
	stw 30,24(1)
	mr 30,3
	.cfi_offset 30, -8
	stw 31,28(1)
	.loc 2 1551 0
	mr 31,4
	.cfi_offset 31, -4
.LVL1117:
.L850:
.LBB4108:
	.loc 2 1552 0 discriminator 1
	lwz 9,0(31)
.LBB4109:
	.loc 2 1554 0 discriminator 1
	mr 3,31
.LBE4109:
.LBB4160:
	.loc 2 1638 0 discriminator 1
	lwz 9,-12(9)
	add 9,31,9
.LBE4160:
	.loc 2 1552 0 discriminator 1
	lwz 0,20(9)
	cmpwi 7,0,0
	bne- 7,.L849
.LBB4161:
	.loc 2 1554 0
	bl _ZNSi3getEv
.LVL1118:
.LBB4110:
	.loc 2 1555 0
	mr. 28,3
.LBE4110:
.LBB4119:
.LBB4120:
.LBB4121:
	.loc 4 1047 0
	mr 3,29
.LVL1119:
.LBE4121:
.LBE4120:
.LBE4119:
	.loc 2 1562 0
	rlwinm 26,28,0,0xff
.LBB4150:
	.loc 2 1555 0
	ble- 0,.L857
.LVL1120:
.LBE4150:
.LBB4151:
.LBB4147:
.LBB4144:
.LBB4122:
.LBB4123:
.LBB4124:
.LBB4125:
.LBB4126:
	.loc 4 288 0
	lwz 9,0(29)
.LBE4126:
.LBE4125:
.LBE4124:
	.loc 4 711 0
	lwz 11,-12(9)
.LBE4123:
.LBE4122:
	.loc 4 1046 0
	lwz 0,-8(9)
	.loc 4 1045 0
	addi 27,11,1
.LVL1121:
	.loc 4 1046 0
	cmplw 7,27,0
	.loc 4 1047 0
	mr 4,27
	.loc 4 1046 0
	bgt- 7,.L853
.LVL1122:
	lwz 0,-4(9)
	cmpwi 7,0,0
	ble- 7,.L854
.L853:
	.loc 4 1047 0
	bl _ZNSs7reserveEj
	lwz 9,0(29)
	lwz 11,-12(9)
.L854:
.LVL1123:
.LBB4127:
.LBB4128:
	.loc 6 245 0
	stbx 26,9,11
.LVL1124:
.LBE4128:
.LBE4127:
.LBB4129:
.LBB4130:
	.loc 4 205 0
	lis 10,_ZNSs4_Rep20_S_empty_rep_storageE@ha
	la 0,_ZNSs4_Rep20_S_empty_rep_storageE@l(10)
.LBE4130:
.LBE4129:
.LBE4144:
.LBE4147:
.LBE4151:
	.loc 2 1564 0
	cmpwi 7,28,62
.LBB4152:
.LBB4148:
.LBB4145:
.LBB4139:
.LBB4140:
.LBB4141:
	.loc 4 288 0
	lwz 9,0(29)
.LVL1125:
.LBE4141:
.LBE4140:
.LBE4139:
	.loc 4 1049 0
	addi 11,9,-12
.LBB4142:
.LBB4137:
	.loc 4 205 0
	cmpw 6,11,0
	bne- 6,.L858
.LBE4137:
.LBE4142:
.LBE4145:
.LBE4148:
.LBE4152:
	.loc 2 1564 0
	bne+ 7,.L850
.LVL1126:
.L849:
.LBE4161:
.LBE4108:
	.loc 2 1570 0
	lwz 0,36(1)
	lwz 26,8(1)
	mtlr 0
	lwz 27,12(1)
	lwz 28,16(1)
	lwz 29,20(1)
.LVL1127:
	lwz 30,24(1)
.LVL1128:
	lwz 31,28(1)
.LVL1129:
	addi 1,1,32
	.cfi_remember_state
.LCFI148:
	.cfi_def_cfa_offset 0
	.cfi_restore 31
	.cfi_restore 30
	.cfi_restore 29
	.cfi_restore 28
	.cfi_restore 27
	.cfi_restore 26
	blr
.LVL1130:
.L857:
.LCFI149:
	.cfi_restore_state
.LBB4168:
.LBB4162:
.LBB4153:
.LBB4111:
.LBB4112:
.LBB4113:
	.loc 1 693 0
	mr 3,30
.LVL1131:
	bl _ZNK9TiXmlNode11GetDocumentEv
.LVL1132:
.LBE4113:
.LBE4112:
	.loc 2 1558 0
	cmpwi 7,3,0
	beq- 7,.L849
.LBE4111:
.LBE4153:
.LBE4162:
.LBE4168:
	.loc 2 1570 0
	lwz 0,36(1)
.LBB4169:
.LBB4163:
.LBB4154:
.LBB4114:
	.loc 2 1559 0
	li 4,13
.LBE4114:
.LBE4154:
.LBE4163:
.LBE4169:
	.loc 2 1570 0
	lwz 26,8(1)
.LBB4170:
.LBB4164:
.LBB4155:
.LBB4115:
	.loc 2 1559 0
	li 5,0
.LBE4115:
.LBE4155:
.LBE4164:
.LBE4170:
	.loc 2 1570 0
	lwz 27,12(1)
	mtlr 0
	lwz 28,16(1)
.LVL1133:
.LBB4171:
.LBB4165:
.LBB4156:
.LBB4116:
	.loc 2 1559 0
	li 6,0
.LBE4116:
.LBE4156:
.LBE4165:
.LBE4171:
	.loc 2 1570 0
	lwz 29,20(1)
.LVL1134:
.LBB4172:
.LBB4166:
.LBB4157:
.LBB4117:
	.loc 2 1559 0
	li 7,0
.LBE4117:
.LBE4157:
.LBE4166:
.LBE4172:
	.loc 2 1570 0
	lwz 30,24(1)
.LVL1135:
	lwz 31,28(1)
.LVL1136:
	addi 1,1,32
	.cfi_remember_state
.LCFI150:
	.cfi_def_cfa_offset 0
	.cfi_restore 31
	.cfi_restore 30
	.cfi_restore 29
	.cfi_restore 28
	.cfi_restore 27
	.cfi_restore 26
.LBB4173:
.LBB4167:
.LBB4158:
.LBB4118:
	.loc 2 1559 0
	b _ZN13TiXmlDocument8SetErrorEiPKcP16TiXmlParsingData13TiXmlEncoding
.LVL1137:
.L858:
.LCFI151:
	.cfi_restore_state
.LBE4118:
.LBE4158:
.LBB4159:
.LBB4149:
.LBB4146:
.LBB4143:
.LBB4138:
.LBB4131:
.LBB4132:
	.loc 4 199 0
	li 0,0
.LBE4132:
.LBE4131:
	.loc 4 209 0
	stw 27,-12(9)
.LVL1138:
.LBB4134:
.LBB4133:
	.loc 4 199 0
	stw 0,-4(9)
.LBE4133:
.LBE4134:
.LBB4135:
.LBB4136:
	.loc 6 245 0
	stbx 0,9,27
.LBE4136:
.LBE4135:
.LBE4138:
.LBE4143:
.LBE4146:
.LBE4149:
.LBE4159:
	.loc 2 1564 0
	bne+ 7,.L850
	b .L849
.LBE4167:
.LBE4173:
	.cfi_endproc
.LFE1250:
	.size	_ZN16TiXmlDeclaration8StreamInEPSiPSs, .-_ZN16TiXmlDeclaration8StreamInEPSiPSs
	.align 2
	.globl _ZN16TiXmlDeclaration5ParseEPKcP16TiXmlParsingData13TiXmlEncoding
	.type	_ZN16TiXmlDeclaration5ParseEPKcP16TiXmlParsingData13TiXmlEncoding, @function
_ZN16TiXmlDeclaration5ParseEPKcP16TiXmlParsingData13TiXmlEncoding:
.LFB1251:
	.loc 2 1574 0
	.cfi_startproc
	.cfi_personality 0,__gxx_personality_v0
	.cfi_lsda 0,.LLSDA1251
.LVL1139:
	stwu 1,-104(1)
.LCFI152:
	.cfi_def_cfa_offset 104
	mflr 0
	mfcr 12
	stw 23,68(1)
	mr 23,3
	.cfi_offset 23, -36
	.cfi_register 70, 12
	.cfi_register 65, 0
.LBB4443:
	.loc 2 1575 0
	mr 3,4
.LVL1140:
	mr 4,6
.LVL1141:
.LBE4443:
	.loc 2 1574 0
	stw 0,108(1)
	stw 27,84(1)
	mr 27,5
	.cfi_offset 27, -20
	.cfi_offset 65, 4
	stw 28,88(1)
	stw 29,92(1)
	stw 30,96(1)
	mr 30,6
	.cfi_offset 30, -8
	.cfi_offset 29, -12
	.cfi_offset 28, -16
	stw 12,56(1)
	stw 21,60(1)
	stw 22,64(1)
	stw 24,72(1)
	stw 25,76(1)
	stw 26,80(1)
	stw 31,100(1)
.LBB4742:
	.loc 2 1575 0
	.cfi_offset 31, -4
	.cfi_offset 26, -24
	.cfi_offset 25, -28
	.cfi_offset 24, -32
	.cfi_offset 22, -40
	.cfi_offset 21, -44
	.cfi_offset 70, -48
	bl _ZN9TiXmlBase14SkipWhiteSpaceEPKc13TiXmlEncoding
.LVL1142:
	mr 29,3
.LVL1143:
.LBB4444:
.LBB4445:
	.loc 1 693 0
	mr 3,23
.LVL1144:
.LEHB31:
	bl _ZNK9TiXmlNode11GetDocumentEv
.LBE4445:
.LBE4444:
	.loc 2 1579 0
	cmpwi 7,29,0
.LBB4447:
.LBB4446:
	.loc 1 693 0
	mr 28,3
.LVL1145:
.LBE4446:
.LBE4447:
	.loc 2 1579 0
	beq- 7,.L860
	.loc 2 1579 0 is_stmt 0 discriminator 2
	lbz 0,0(29)
	cmpwi 7,0,0
	bne- 7,.L941
.LVL1146:
.L860:
	.loc 2 1581 0 is_stmt 1 discriminator 5
	cmpwi 7,28,0
	.loc 2 1582 0 discriminator 5
	li 31,0
	.loc 2 1581 0 discriminator 5
	beq- 7,.L862
	.loc 2 1581 0 is_stmt 0 discriminator 1
	mr 3,28
	li 4,11
	li 5,0
	li 6,0
	mr 7,30
	bl _ZN13TiXmlDocument8SetErrorEiPKcP16TiXmlParsingData13TiXmlEncoding
.LVL1147:
.L862:
.LBE4742:
	.loc 2 1630 0 is_stmt 1
	lwz 0,108(1)
	mr 3,31
	lwz 12,56(1)
	mtlr 0
	lwz 21,60(1)
	lwz 22,64(1)
	mtcrf 8,12
	lwz 23,68(1)
	lwz 24,72(1)
	lwz 25,76(1)
	lwz 26,80(1)
	lwz 27,84(1)
.LVL1148:
	lwz 28,88(1)
	lwz 29,92(1)
	lwz 30,96(1)
.LVL1149:
	lwz 31,100(1)
	addi 1,1,104
	.cfi_remember_state
.LCFI153:
	.cfi_def_cfa_offset 0
	.cfi_restore 70
	.cfi_restore 31
	.cfi_restore 30
	.cfi_restore 29
	.cfi_restore 28
	.cfi_restore 27
	.cfi_restore 26
	.cfi_restore 25
	.cfi_restore 24
	.cfi_restore 23
	.cfi_restore 22
	.cfi_restore 21
	blr
.LVL1150:
.L941:
.LCFI154:
	.cfi_restore_state
.LBB4743:
	.loc 2 1579 0 discriminator 3
	lis 4,.LC17@ha
	mr 3,29
.LVL1151:
	la 4,.LC17@l(4)
	li 5,1
	mr 6,30
	bl _ZN9TiXmlBase11StringEqualEPKcS1_b13TiXmlEncoding
	cmpwi 7,3,0
	beq- 7,.L860
	.loc 2 1584 0
	cmpwi 7,27,0
	beq- 7,.L926
	.loc 2 1586 0
	mr 3,27
	mr 4,29
	mr 5,30
	bl _ZN16TiXmlParsingData5StampEPKc13TiXmlEncoding
.LVL1152:
	.loc 2 1587 0
	lwz 10,0(27)
	lwz 11,4(27)
	stw 10,4(23)
	stw 11,8(23)
.LVL1153:
.L926:
.LBB4448:
.LBB4449:
.LBB4450:
	.loc 4 1121 0
	lis 28,.LC7@ha
.LVL1154:
.LBE4450:
.LBE4449:
.LBE4448:
	.loc 2 1591 0
	addi 25,23,44
.LBB4457:
.LBB4454:
.LBB4451:
	.loc 4 1121 0
	la 28,.LC7@l(28)
	li 5,0
	mr 4,28
.LBE4451:
.LBE4454:
.LBE4457:
	.loc 2 1592 0
	addi 24,23,48
.LBB4458:
.LBB4455:
.LBB4452:
	.loc 4 1121 0
	mr 3,25
.LBE4452:
.LBE4455:
.LBE4458:
	.loc 2 1593 0
	addi 23,23,52
.LVL1155:
.LBB4459:
.LBB4456:
.LBB4453:
	.loc 4 1121 0
	bl _ZNSs6assignEPKcj
.LBE4453:
.LBE4456:
.LBE4459:
.LBB4460:
.LBB4461:
.LBB4462:
	mr 4,28
	li 5,0
	mr 3,24
	bl _ZNSs6assignEPKcj
.LBE4462:
.LBE4461:
.LBE4460:
	.loc 2 1589 0
	addi 31,29,5
.LVL1156:
.LBB4463:
.LBB4464:
.LBB4465:
	.loc 4 1121 0
	mr 3,23
	mr 4,28
	li 5,0
	bl _ZNSs6assignEPKcj
.LBE4465:
.LBE4464:
.LBE4463:
	.loc 2 1595 0
	cmpwi 7,31,0
	beq- 7,.L862
	lbz 0,5(29)
	cmpwi 7,0,0
	beq- 7,.L934
.LBB4466:
	.loc 2 1597 0
	cmpwi 7,0,62
	beq- 7,.L920
	lis 26,.LC32@ha
	la 26,.LC32@l(26)
.L921:
	.loc 2 1603 0
	mr 3,31
	mr 4,30
	bl _ZN9TiXmlBase14SkipWhiteSpaceEPKc13TiXmlEncoding
.LBB4467:
	.loc 2 1604 0
	mr 4,26
	li 5,1
	mr 6,30
.LBE4467:
	.loc 2 1603 0
	mr 31,3
.LVL1157:
.LBB4737:
	.loc 2 1604 0
	bl _ZN9TiXmlBase11StringEqualEPKcS1_b13TiXmlEncoding
.LEHE31:
.LVL1158:
	mr. 22,3
	beq- 0,.L864
.LVL1159:
.LBB4468:
.LBB4469:
.LBB4470:
	.loc 1 787 0
	lis 29,_ZTV14TiXmlAttribute+8@ha
.LBE4470:
.LBE4469:
	.loc 2 1607 0
	addi 28,1,16
.LBB4495:
.LBB4493:
.LBB4471:
.LBB4472:
.LBB4473:
	.loc 4 270 0
	lis 9,_ZNSs4_Rep20_S_empty_rep_storageE+12@ha
.LBE4473:
.LBE4472:
.LBE4471:
.LBB4478:
.LBB4479:
	.loc 1 203 0
	li 0,0
.LBB4480:
.LBB4481:
.LBB4482:
	.loc 1 104 0
	li 11,-1
.LBE4482:
.LBE4481:
.LBE4480:
.LBE4479:
.LBE4478:
.LBB4487:
.LBB4476:
.LBB4474:
	.loc 4 270 0
	la 9,_ZNSs4_Rep20_S_empty_rep_storageE+12@l(9)
.LBE4474:
.LBE4476:
.LBE4487:
	.loc 1 787 0
	la 29,_ZTV14TiXmlAttribute+8@l(29)
.LBE4493:
.LBE4495:
	.loc 2 1607 0
	mr 3,28
	mr 4,31
	mr 5,27
	mr 6,30
.LBB4496:
.LBB4494:
.LBB4488:
.LBB4486:
.LBB4485:
.LBB4484:
.LBB4483:
	.loc 1 104 0
	stw 11,24(1)
	stw 11,20(1)
.LBE4483:
.LBE4484:
.LBE4485:
	.loc 1 203 0
	stw 0,28(1)
.LBE4486:
.LBE4488:
	.loc 1 787 0
	stw 29,16(1)
.LVL1160:
.LBB4489:
.LBB4477:
.LBB4475:
	.loc 4 270 0
	stw 9,36(1)
.LVL1161:
.LBE4475:
.LBE4477:
.LBE4489:
.LBB4490:
.LBB4491:
.LBB4492:
	stw 9,40(1)
.LBE4492:
.LBE4491:
.LBE4490:
	.loc 1 789 0
	stw 0,32(1)
	.loc 1 790 0
	stw 0,48(1)
	stw 0,44(1)
.LEHB32:
.LBE4494:
.LBE4496:
	.loc 2 1607 0
	bl _ZN14TiXmlAttribute5ParseEPKcP16TiXmlParsingData13TiXmlEncoding
.LBB4497:
.LBB4498:
.LBB4499:
.LBB4500:
	.loc 4 288 0
	lwz 22,40(1)
.LBE4500:
.LBE4499:
.LBE4498:
.LBE4497:
	.loc 2 1607 0
	mr 31,3
.LVL1162:
.LBB4501:
.LBB4502:
.LBB4503:
.LBB4504:
.LBB4505:
	.loc 6 261 0
	mr 3,22
.LVL1163:
	bl strlen
.LVL1164:
.LBE4505:
.LBE4504:
	.loc 4 1121 0
	mr 4,22
.LBB4507:
.LBB4506:
	.loc 6 261 0
	mr 5,3
.LBE4506:
.LBE4507:
	.loc 4 1121 0
	mr 3,25
	bl _ZNSs6assignEPKcj
.LEHE32:
.LVL1165:
.LBE4503:
.LBE4502:
.LBE4501:
.LBB4508:
.LBB4509:
.LBB4510:
.LBB4511:
.LBB4512:
.LBB4513:
.LBB4514:
.LBB4515:
	.loc 4 288 0
	lwz 9,40(1)
.LBE4515:
.LBE4514:
.LBE4513:
.LBB4516:
.LBB4517:
	.loc 4 235 0
	lis 28,_ZNSs4_Rep20_S_empty_rep_storageE@ha
	la 28,_ZNSs4_Rep20_S_empty_rep_storageE@l(28)
.LBE4517:
.LBE4516:
.LBE4512:
.LBE4511:
.LBE4510:
	.loc 1 781 0
	stw 29,16(1)
.LVL1166:
.LBB4532:
.LBB4530:
.LBB4528:
	.loc 4 534 0
	addi 3,9,-12
.LVL1167:
.LBB4526:
.LBB4524:
	.loc 4 235 0
	cmpw 7,3,28
	bne- 7,.L942
.LVL1168:
.L874:
.LBE4524:
.LBE4526:
.LBE4528:
.LBE4530:
.LBE4532:
.LBB4533:
.LBB4534:
.LBB4535:
.LBB4536:
.LBB4537:
.LBB4538:
	.loc 4 288 0
	lwz 9,36(1)
.LBE4538:
.LBE4537:
.LBE4536:
	.loc 4 534 0
	addi 3,9,-12
.LVL1169:
.LBB4539:
.LBB4540:
	.loc 4 235 0
	cmpw 7,3,28
	bne- 7,.L943
.LVL1170:
.L916:
.LBE4540:
.LBE4539:
.LBE4535:
.LBE4534:
.LBE4533:
.LBE4509:
.LBE4508:
.LBE4468:
.LBB4555:
.LBB4556:
.LBB4557:
.LBB4558:
.LBB4559:
.LBB4560:
.LBB4561:
	.loc 1 204 0
	lis 9,_ZTV9TiXmlBase+8@ha
	cmpwi 4,31,0
	la 0,_ZTV9TiXmlBase+8@l(9)
	stw 0,16(1)
.LVL1171:
.L881:
.LBE4561:
.LBE4560:
.LBE4559:
.LBE4558:
.LBE4557:
.LBE4556:
.LBE4555:
.LBE4737:
.LBE4466:
	.loc 2 1595 0 discriminator 1
	beq- 4,.L862
	.loc 2 1595 0 is_stmt 0
	lbz 0,0(31)
	cmpwi 7,0,0
	beq- 7,.L934
.LBB4740:
	.loc 2 1597 0 is_stmt 1 discriminator 5
	cmpwi 7,0,62
	bne+ 7,.L921
.L920:
.LVL1172:
	.loc 2 1600 0
	addi 31,31,1
.LVL1173:
	b .L862
.L934:
.LBE4740:
	.loc 2 1629 0
	li 31,0
.LVL1174:
	b .L862
.LVL1175:
.L864:
.LBB4741:
.LBB4738:
.LBB4734:
	.loc 2 1610 0
	lis 4,.LC33@ha
	mr 3,31
	la 4,.LC33@l(4)
	li 5,1
	mr 6,30
.LEHB33:
	bl _ZN9TiXmlBase11StringEqualEPKcS1_b13TiXmlEncoding
.LEHE33:
	mr. 21,3
	beq- 0,.L882
.LVL1176:
.LBB4649:
.LBB4650:
.LBB4651:
	.loc 1 787 0
	lis 29,_ZTV14TiXmlAttribute+8@ha
.LBE4651:
.LBE4650:
	.loc 2 1613 0
	addi 28,1,16
.LVL1177:
.LBB4676:
.LBB4674:
.LBB4652:
.LBB4653:
.LBB4654:
	.loc 4 270 0
	lis 11,_ZNSs4_Rep20_S_empty_rep_storageE+12@ha
.LBE4654:
.LBE4653:
.LBE4652:
.LBB4659:
.LBB4660:
.LBB4661:
.LBB4662:
.LBB4663:
	.loc 1 104 0
	li 9,-1
.LBE4663:
.LBE4662:
.LBE4661:
.LBE4660:
.LBE4659:
.LBB4668:
.LBB4657:
.LBB4655:
	.loc 4 270 0
	la 0,_ZNSs4_Rep20_S_empty_rep_storageE+12@l(11)
.LBE4655:
.LBE4657:
.LBE4668:
	.loc 1 787 0
	la 29,_ZTV14TiXmlAttribute+8@l(29)
.LBE4674:
.LBE4676:
	.loc 2 1613 0
	mr 3,28
	mr 4,31
	mr 5,27
	mr 6,30
.LBB4677:
.LBB4675:
.LBB4669:
.LBB4667:
.LBB4666:
.LBB4665:
.LBB4664:
	.loc 1 104 0
	stw 9,24(1)
	stw 9,20(1)
.LBE4664:
.LBE4665:
.LBE4666:
	.loc 1 203 0
	stw 22,28(1)
.LBE4667:
.LBE4669:
	.loc 1 787 0
	stw 29,16(1)
.LVL1178:
.LBB4670:
.LBB4658:
.LBB4656:
	.loc 4 270 0
	stw 0,36(1)
.LVL1179:
.LBE4656:
.LBE4658:
.LBE4670:
.LBB4671:
.LBB4672:
.LBB4673:
	stw 0,40(1)
.LBE4673:
.LBE4672:
.LBE4671:
	.loc 1 789 0
	stw 22,32(1)
	.loc 1 790 0
	stw 22,48(1)
	stw 22,44(1)
.LEHB34:
.LBE4675:
.LBE4677:
	.loc 2 1613 0
	bl _ZN14TiXmlAttribute5ParseEPKcP16TiXmlParsingData13TiXmlEncoding
.LBB4678:
.LBB4679:
.LBB4680:
.LBB4681:
	.loc 4 288 0
	lwz 22,40(1)
.LBE4681:
.LBE4680:
.LBE4679:
.LBE4678:
	.loc 2 1613 0
	mr 31,3
.LVL1180:
.LBB4682:
.LBB4683:
.LBB4684:
.LBB4685:
.LBB4686:
	.loc 6 261 0
	mr 3,22
.LVL1181:
	bl strlen
.LVL1182:
.LBE4686:
.LBE4685:
	.loc 4 1121 0
	mr 4,22
.LBB4688:
.LBB4687:
	.loc 6 261 0
	mr 5,3
.LBE4687:
.LBE4688:
	.loc 4 1121 0
	mr 3,24
	bl _ZNSs6assignEPKcj
.LEHE34:
.LVL1183:
.LBE4684:
.LBE4683:
.LBE4682:
.LBB4689:
.LBB4690:
.LBB4691:
.LBB4692:
.LBB4693:
.LBB4694:
.LBB4695:
.LBB4696:
	.loc 4 288 0
	lwz 9,40(1)
.LBE4696:
.LBE4695:
.LBE4694:
.LBB4697:
.LBB4698:
	.loc 4 235 0
	lis 28,_ZNSs4_Rep20_S_empty_rep_storageE@ha
.LVL1184:
	la 28,_ZNSs4_Rep20_S_empty_rep_storageE@l(28)
.LBE4698:
.LBE4697:
.LBE4693:
.LBE4692:
.LBE4691:
	.loc 1 781 0
	stw 29,16(1)
.LVL1185:
.LBB4713:
.LBB4711:
.LBB4709:
	.loc 4 534 0
	addi 3,9,-12
.LVL1186:
.LBB4707:
.LBB4705:
	.loc 4 235 0
	cmpw 7,3,28
	bne- 7,.L944
.LVL1187:
.L892:
.LBE4705:
.LBE4707:
.LBE4709:
.LBE4711:
.LBE4713:
.LBB4714:
.LBB4715:
.LBB4716:
.LBB4717:
.LBB4718:
.LBB4719:
	.loc 4 288 0
	lwz 9,36(1)
.LBE4719:
.LBE4718:
.LBE4717:
	.loc 4 534 0
	addi 3,9,-12
.LVL1188:
.LBB4720:
.LBB4721:
	.loc 4 235 0
	cmpw 7,3,28
	beq+ 7,.L916
.LVL1189:
.LBB4722:
.LBB4723:
.LBB4724:
	.loc 5 66 0
	lwz 11,-4(9)
.LVL1190:
.LBE4724:
.LBE4723:
.LBE4722:
	.loc 4 240 0
	cmpwi 7,11,0
.LBB4727:
.LBB4726:
.LBB4725:
	.loc 5 67 0
	addi 11,11,-1
	stw 11,-4(9)
.LBE4725:
.LBE4726:
.LBE4727:
	.loc 4 240 0
	bgt+ 7,.L916
	.loc 4 244 0
	addi 4,1,10
	bl _ZNSs4_Rep10_M_destroyERKSaIcE
.LVL1191:
	b .L916
.LVL1192:
.L882:
.LBE4721:
.LBE4720:
.LBE4716:
.LBE4715:
.LBE4714:
.LBE4690:
.LBE4689:
.LBE4649:
.LBB4731:
	.loc 2 1616 0
	lis 4,.LC34@ha
	mr 3,31
	la 4,.LC34@l(4)
	li 5,1
	mr 6,30
.LEHB35:
	bl _ZN9TiXmlBase11StringEqualEPKcS1_b13TiXmlEncoding
.LEHE35:
	cmpwi 7,3,0
	beq- 7,.L945
.LVL1193:
.LBB4643:
.LBB4602:
.LBB4603:
	.loc 1 787 0
	lis 29,_ZTV14TiXmlAttribute+8@ha
.LBE4603:
.LBE4602:
	.loc 2 1619 0
	addi 28,1,16
.LVL1194:
.LBB4628:
.LBB4626:
.LBB4604:
.LBB4605:
.LBB4606:
	.loc 4 270 0
	lis 11,_ZNSs4_Rep20_S_empty_rep_storageE+12@ha
.LBE4606:
.LBE4605:
.LBE4604:
.LBB4611:
.LBB4612:
.LBB4613:
.LBB4614:
.LBB4615:
	.loc 1 104 0
	li 9,-1
.LBE4615:
.LBE4614:
.LBE4613:
.LBE4612:
.LBE4611:
.LBB4620:
.LBB4609:
.LBB4607:
	.loc 4 270 0
	la 0,_ZNSs4_Rep20_S_empty_rep_storageE+12@l(11)
.LBE4607:
.LBE4609:
.LBE4620:
	.loc 1 787 0
	la 29,_ZTV14TiXmlAttribute+8@l(29)
.LBE4626:
.LBE4628:
	.loc 2 1619 0
	mr 3,28
	mr 4,31
	mr 5,27
	mr 6,30
.LBB4629:
.LBB4627:
.LBB4621:
.LBB4619:
.LBB4618:
.LBB4617:
.LBB4616:
	.loc 1 104 0
	stw 9,24(1)
	stw 9,20(1)
.LBE4616:
.LBE4617:
.LBE4618:
	.loc 1 203 0
	stw 21,28(1)
.LBE4619:
.LBE4621:
	.loc 1 787 0
	stw 29,16(1)
.LVL1195:
.LBB4622:
.LBB4610:
.LBB4608:
	.loc 4 270 0
	stw 0,36(1)
.LVL1196:
.LBE4608:
.LBE4610:
.LBE4622:
.LBB4623:
.LBB4624:
.LBB4625:
	stw 0,40(1)
.LBE4625:
.LBE4624:
.LBE4623:
	.loc 1 789 0
	stw 21,32(1)
	.loc 1 790 0
	stw 21,48(1)
	stw 21,44(1)
.LEHB36:
.LBE4627:
.LBE4629:
	.loc 2 1619 0
	bl _ZN14TiXmlAttribute5ParseEPKcP16TiXmlParsingData13TiXmlEncoding
.LBB4630:
.LBB4631:
.LBB4632:
.LBB4633:
	.loc 4 288 0
	lwz 22,40(1)
.LBE4633:
.LBE4632:
.LBE4631:
.LBE4630:
	.loc 2 1619 0
	mr 31,3
.LVL1197:
.LBB4634:
.LBB4635:
.LBB4636:
.LBB4637:
.LBB4638:
	.loc 6 261 0
	mr 3,22
.LVL1198:
	bl strlen
.LVL1199:
.LBE4638:
.LBE4637:
	.loc 4 1121 0
	mr 4,22
.LBB4640:
.LBB4639:
	.loc 6 261 0
	mr 5,3
.LBE4639:
.LBE4640:
	.loc 4 1121 0
	mr 3,23
	bl _ZNSs6assignEPKcj
.LEHE36:
.LVL1200:
.LBE4636:
.LBE4635:
.LBE4634:
.LBB4641:
.LBB4600:
.LBB4562:
.LBB4563:
.LBB4564:
.LBB4565:
.LBB4566:
.LBB4567:
	.loc 4 288 0
	lwz 9,40(1)
.LBE4567:
.LBE4566:
.LBE4565:
.LBB4568:
.LBB4569:
	.loc 4 235 0
	lis 28,_ZNSs4_Rep20_S_empty_rep_storageE@ha
.LVL1201:
	la 28,_ZNSs4_Rep20_S_empty_rep_storageE@l(28)
.LBE4569:
.LBE4568:
.LBE4564:
.LBE4563:
.LBE4562:
	.loc 1 781 0
	stw 29,16(1)
.LVL1202:
.LBB4584:
.LBB4582:
.LBB4580:
	.loc 4 534 0
	addi 3,9,-12
.LVL1203:
.LBB4578:
.LBB4576:
	.loc 4 235 0
	cmpw 7,3,28
	bne- 7,.L946
.LVL1204:
.L910:
.LBE4576:
.LBE4578:
.LBE4580:
.LBE4582:
.LBE4584:
.LBB4585:
.LBB4586:
.LBB4587:
.LBB4588:
.LBB4589:
.LBB4590:
	.loc 4 288 0
	lwz 9,36(1)
.LBE4590:
.LBE4589:
.LBE4588:
	.loc 4 534 0
	addi 3,9,-12
.LVL1205:
.LBB4591:
.LBB4592:
	.loc 4 235 0
	cmpw 7,3,28
	beq+ 7,.L916
.LVL1206:
.LBB4593:
.LBB4594:
.LBB4595:
	.loc 5 66 0
	lwz 11,-4(9)
.LVL1207:
.LBE4595:
.LBE4594:
.LBE4593:
	.loc 4 240 0
	cmpwi 7,11,0
.LBB4598:
.LBB4597:
.LBB4596:
	.loc 5 67 0
	addi 11,11,-1
	stw 11,-4(9)
.LBE4596:
.LBE4597:
.LBE4598:
	.loc 4 240 0
	bgt+ 7,.L916
	.loc 4 244 0
	addi 4,1,8
	bl _ZNSs4_Rep10_M_destroyERKSaIcE
.LVL1208:
	b .L916
.LVL1209:
.L945:
.LBE4592:
.LBE4591:
.LBE4587:
.LBE4586:
.LBE4585:
.LBE4600:
.LBE4641:
.LBE4643:
	.loc 2 1625 0 discriminator 1
	cmpwi 4,31,0
	beq- 4,.L862
	.loc 2 1625 0 is_stmt 0
	lbz 29,0(31)
	cmpwi 7,29,0
	beq- 7,.L934
	cmpwi 7,29,62
	beq- 7,.L920
	mr 28,31
.L918:
.LVL1210:
.LBB4644:
.LBB4645:
	.loc 1 294 0 is_stmt 1 discriminator 5
	mr 3,29
	bl isspace
	cmpwi 7,3,0
	bne- 7,.L881
.LVL1211:
.LBB4646:
.LBB4647:
	.loc 1 294 0 is_stmt 0
	cmpwi 7,29,10
	beq- 7,.L881
.LBE4647:
.LBE4646:
.LBE4645:
.LBE4644:
	.loc 2 1625 0 is_stmt 1
	cmpwi 7,29,13
	beq- 7,.L881
.LVL1212:
	.loc 2 1625 0 is_stmt 0 discriminator 7
	addi 31,31,1
.LVL1213:
	cmpwi 4,31,0
	beq- 4,.L862
	.loc 2 1625 0 discriminator 2
	lbzu 29,1(28)
.LVL1214:
	cmpwi 7,29,0
	beq- 7,.L934
	.loc 2 1625 0 discriminator 4
	cmpwi 7,29,62
	bne+ 7,.L918
.LVL1215:
.LBE4731:
.LBE4734:
.LBE4738:
	.loc 2 1600 0 is_stmt 1
	addi 31,31,1
.LVL1216:
	b .L862
.LVL1217:
.L943:
.LBB4739:
.LBB4735:
.LBB4554:
.LBB4553:
.LBB4551:
.LBB4550:
.LBB4549:
.LBB4548:
.LBB4547:
.LBB4541:
.LBB4542:
.LBB4543:
	.loc 5 66 0
	lwz 11,-4(9)
.LVL1218:
.LBE4543:
.LBE4542:
.LBE4541:
	.loc 4 240 0
	cmpwi 7,11,0
.LBB4546:
.LBB4545:
.LBB4544:
	.loc 5 67 0
	addi 11,11,-1
	stw 11,-4(9)
.LBE4544:
.LBE4545:
.LBE4546:
	.loc 4 240 0
	bgt+ 7,.L916
	.loc 4 244 0
	addi 4,1,12
	bl _ZNSs4_Rep10_M_destroyERKSaIcE
.LVL1219:
	b .L916
.LVL1220:
.L942:
.LBE4547:
.LBE4548:
.LBE4549:
.LBE4550:
.LBE4551:
.LBB4552:
.LBB4531:
.LBB4529:
.LBB4527:
.LBB4525:
.LBB4518:
.LBB4519:
.LBB4520:
	.loc 5 66 0
	lwz 11,-4(9)
.LVL1221:
.LBE4520:
.LBE4519:
.LBE4518:
	.loc 4 240 0
	cmpwi 7,11,0
.LBB4523:
.LBB4522:
.LBB4521:
	.loc 5 67 0
	addi 11,11,-1
	stw 11,-4(9)
.LBE4521:
.LBE4522:
.LBE4523:
	.loc 4 240 0
	bgt+ 7,.L874
	.loc 4 244 0
	addi 4,1,13
	bl _ZNSs4_Rep10_M_destroyERKSaIcE
.LVL1222:
	b .L874
.LVL1223:
.L944:
.LBE4525:
.LBE4527:
.LBE4529:
.LBE4531:
.LBE4552:
.LBE4553:
.LBE4554:
.LBE4735:
.LBB4736:
.LBB4732:
.LBB4730:
.LBB4729:
.LBB4728:
.LBB4712:
.LBB4710:
.LBB4708:
.LBB4706:
.LBB4699:
.LBB4700:
.LBB4701:
	.loc 5 66 0
	lwz 11,-4(9)
.LVL1224:
.LBE4701:
.LBE4700:
.LBE4699:
	.loc 4 240 0
	cmpwi 7,11,0
.LBB4704:
.LBB4703:
.LBB4702:
	.loc 5 67 0
	addi 11,11,-1
	stw 11,-4(9)
.LBE4702:
.LBE4703:
.LBE4704:
	.loc 4 240 0
	bgt+ 7,.L892
	.loc 4 244 0
	addi 4,1,11
	bl _ZNSs4_Rep10_M_destroyERKSaIcE
.LVL1225:
	b .L892
.LVL1226:
.L936:
.L939:
	mr 31,3
.LVL1227:
.LBE4706:
.LBE4708:
.LBE4710:
.LBE4712:
.LBE4728:
.LBE4729:
.LBE4730:
	.loc 2 1614 0
	mr 3,28
	bl _ZN14TiXmlAttributeD1Ev
	mr 3,31
.LEHB37:
	bl _Unwind_Resume
.LEHE37:
.LVL1228:
.L935:
	b .L939
.LVL1229:
.L946:
.LBE4732:
.LBB4733:
.LBB4648:
.LBB4642:
.LBB4601:
.LBB4599:
.LBB4583:
.LBB4581:
.LBB4579:
.LBB4577:
.LBB4570:
.LBB4571:
.LBB4572:
	.loc 5 66 0
	lwz 11,-4(9)
.LVL1230:
.LBE4572:
.LBE4571:
.LBE4570:
	.loc 4 240 0
	cmpwi 7,11,0
.LBB4575:
.LBB4574:
.LBB4573:
	.loc 5 67 0
	addi 11,11,-1
	stw 11,-4(9)
.LBE4573:
.LBE4574:
.LBE4575:
	.loc 4 240 0
	bgt+ 7,.L910
	.loc 4 244 0
	addi 4,1,9
	bl _ZNSs4_Rep10_M_destroyERKSaIcE
.LVL1231:
	b .L910
.LVL1232:
.L937:
	b .L939
.LBE4577:
.LBE4579:
.LBE4581:
.LBE4583:
.LBE4599:
.LBE4601:
.LBE4642:
.LBE4648:
.LBE4733:
.LBE4736:
.LBE4739:
.LBE4741:
.LBE4743:
	.cfi_endproc
.LFE1251:
	.section	.gcc_except_table
.LLSDA1251:
	.byte	0xff
	.byte	0xff
	.byte	0x1
	.uleb128 .LLSDACSE1251-.LLSDACSB1251
.LLSDACSB1251:
	.uleb128 .LEHB31-.LFB1251
	.uleb128 .LEHE31-.LEHB31
	.uleb128 0
	.uleb128 0
	.uleb128 .LEHB32-.LFB1251
	.uleb128 .LEHE32-.LEHB32
	.uleb128 .L935-.LFB1251
	.uleb128 0
	.uleb128 .LEHB33-.LFB1251
	.uleb128 .LEHE33-.LEHB33
	.uleb128 0
	.uleb128 0
	.uleb128 .LEHB34-.LFB1251
	.uleb128 .LEHE34-.LEHB34
	.uleb128 .L936-.LFB1251
	.uleb128 0
	.uleb128 .LEHB35-.LFB1251
	.uleb128 .LEHE35-.LEHB35
	.uleb128 0
	.uleb128 0
	.uleb128 .LEHB36-.LFB1251
	.uleb128 .LEHE36-.LEHB36
	.uleb128 .L937-.LFB1251
	.uleb128 0
	.uleb128 .LEHB37-.LFB1251
	.uleb128 .LEHE37-.LEHB37
	.uleb128 0
	.uleb128 0
.LLSDACSE1251:
	.section	".text"
	.size	_ZN16TiXmlDeclaration5ParseEPKcP16TiXmlParsingData13TiXmlEncoding, .-_ZN16TiXmlDeclaration5ParseEPKcP16TiXmlParsingData13TiXmlEncoding
	.align 2
	.globl _ZNK9TiXmlText5BlankEv
	.type	_ZNK9TiXmlText5BlankEv, @function
_ZNK9TiXmlText5BlankEv:
.LFB1252:
	.loc 2 1633 0
	.cfi_startproc
.LVL1233:
	mflr 0
	stwu 1,-24(1)
.LCFI155:
	.cfi_def_cfa_offset 24
	.cfi_register 65, 0
	stw 28,8(1)
	stw 0,28(1)
	stw 29,12(1)
.LBB4758:
.LBB4759:
.LBB4760:
.LBB4761:
.LBB4762:
.LBB4763:
	.loc 4 288 0
	lwz 28,32(3)
	.cfi_offset 29, -12
	.cfi_offset 65, 4
	.cfi_offset 28, -16
.LBE4763:
.LBE4762:
.LBE4761:
.LBE4760:
.LBE4759:
	.loc 2 1637 0
	li 3,1
.LVL1234:
.LBE4758:
	.loc 2 1633 0
	stw 30,16(1)
.LBB4776:
.LBB4765:
.LBB4764:
	.loc 4 717 0
	lwz 29,-12(28)
.LBE4764:
.LBE4765:
.LBE4776:
	.loc 2 1633 0
	stw 31,20(1)
.LBB4777:
	.loc 2 1634 0
	cmpwi 7,29,0
	beq- 7,.L948
	.cfi_offset 31, -4
	.cfi_offset 30, -8
	li 31,0
.LVL1235:
.L950:
	.loc 2 1635 0
	lbzx 30,28,31
.LVL1236:
	.loc 2 1634 0
	addi 31,31,1
.LVL1237:
.LBB4766:
.LBB4767:
	.loc 1 294 0
	mr 3,30
	bl isspace
.LBE4767:
.LBE4766:
	.loc 2 1634 0
	cmpw 6,31,29
.LBB4774:
.LBB4772:
	.loc 1 294 0
	cmpwi 7,3,0
.LBB4768:
.LBB4769:
	cmpwi 1,30,10
.LBE4769:
.LBE4768:
.LBE4772:
.LBE4774:
	.loc 2 1635 0
	cmpwi 0,30,13
.LBB4775:
.LBB4773:
	.loc 1 294 0
	bne- 7,.L949
.LBB4771:
.LBB4770:
	beq- 1,.L949
.LBE4770:
.LBE4771:
.LBE4773:
.LBE4775:
	.loc 2 1635 0
	bne- 0,.L952
.L949:
.LVL1238:
	.loc 2 1634 0
	bne+ 6,.L950
	.loc 2 1637 0
	li 3,1
.LVL1239:
.L948:
.LBE4777:
	.loc 2 1638 0
	lwz 0,28(1)
	lwz 28,8(1)
	mtlr 0
	lwz 29,12(1)
	lwz 30,16(1)
	lwz 31,20(1)
	addi 1,1,24
	.cfi_remember_state
.LCFI156:
	.cfi_def_cfa_offset 0
	.cfi_restore 31
	.cfi_restore 30
	.cfi_restore 29
	.cfi_restore 28
	blr
.LVL1240:
.L952:
.LCFI157:
	.cfi_restore_state
	lwz 0,28(1)
.LBB4778:
	.loc 2 1636 0
	li 3,0
.LBE4778:
	.loc 2 1638 0
	lwz 28,8(1)
	mtlr 0
	lwz 29,12(1)
	lwz 30,16(1)
.LVL1241:
	lwz 31,20(1)
.LVL1242:
	addi 1,1,24
	.cfi_restore 28
	.cfi_restore 29
	.cfi_restore 30
	.cfi_restore 31
.LCFI158:
	.cfi_def_cfa_offset 0
	blr
	.cfi_endproc
.LFE1252:
	.size	_ZNK9TiXmlText5BlankEv, .-_ZNK9TiXmlText5BlankEv
	.section	.text.startup,"ax",@progbits
	.align 2
	.type	_GLOBAL__sub_I__ZN9TiXmlBase6entityE, @function
_GLOBAL__sub_I__ZN9TiXmlBase6entityE:
.LFB1318:
	.loc 2 1638 0
	.cfi_startproc
	.loc 2 1638 0
	li 3,1
	b _Z41__static_initialization_and_destruction_0ii.constprop.22
	.cfi_endproc
.LFE1318:
	.size	_GLOBAL__sub_I__ZN9TiXmlBase6entityE, .-_GLOBAL__sub_I__ZN9TiXmlBase6entityE
	.section	.ctors,"aw",@progbits
	.align 2
	.long	_GLOBAL__sub_I__ZN9TiXmlBase6entityE
	.section	.text.exit,"ax",@progbits
	.align 2
	.type	_GLOBAL__sub_D__ZN9TiXmlBase6entityE, @function
_GLOBAL__sub_D__ZN9TiXmlBase6entityE:
.LFB1319:
	.loc 2 1638 0
	.cfi_startproc
	.loc 2 1638 0
	li 3,0
	b _Z41__static_initialization_and_destruction_0ii.constprop.22
	.cfi_endproc
.LFE1319:
	.size	_GLOBAL__sub_D__ZN9TiXmlBase6entityE, .-_GLOBAL__sub_D__ZN9TiXmlBase6entityE
	.section	.dtors,"aw",@progbits
	.align 2
	.long	_GLOBAL__sub_D__ZN9TiXmlBase6entityE
	.weak	_ZTS14TiXmlAttribute
	.section	.rodata._ZTS14TiXmlAttribute,"aG",@progbits,_ZTS14TiXmlAttribute,comdat
	.align 2
	.type	_ZTS14TiXmlAttribute, @object
	.size	_ZTS14TiXmlAttribute, 17
_ZTS14TiXmlAttribute:
	.string	"14TiXmlAttribute"
	.weak	_ZTI14TiXmlAttribute
	.section	.rodata._ZTI14TiXmlAttribute,"aG",@progbits,_ZTI14TiXmlAttribute,comdat
	.align 2
	.type	_ZTI14TiXmlAttribute, @object
	.size	_ZTI14TiXmlAttribute, 12
_ZTI14TiXmlAttribute:
	.long	_ZTVN10__cxxabiv120__si_class_type_infoE+8
	.long	_ZTS14TiXmlAttribute
	.long	_ZTI9TiXmlBase
	.weak	_ZTS13TiXmlDocument
	.section	.rodata._ZTS13TiXmlDocument,"aG",@progbits,_ZTS13TiXmlDocument,comdat
	.align 2
	.type	_ZTS13TiXmlDocument, @object
	.size	_ZTS13TiXmlDocument, 16
_ZTS13TiXmlDocument:
	.string	"13TiXmlDocument"
	.weak	_ZTI13TiXmlDocument
	.section	.rodata._ZTI13TiXmlDocument,"aG",@progbits,_ZTI13TiXmlDocument,comdat
	.align 2
	.type	_ZTI13TiXmlDocument, @object
	.size	_ZTI13TiXmlDocument, 12
_ZTI13TiXmlDocument:
	.long	_ZTVN10__cxxabiv120__si_class_type_infoE+8
	.long	_ZTS13TiXmlDocument
	.long	_ZTI9TiXmlNode
	.weak	_ZTV13TiXmlDocument
	.section	.rodata._ZTV13TiXmlDocument,"aG",@progbits,_ZTV13TiXmlDocument,comdat
	.align 3
	.type	_ZTV13TiXmlDocument, @object
	.size	_ZTV13TiXmlDocument, 84
_ZTV13TiXmlDocument:
	.long	0
	.long	_ZTI13TiXmlDocument
	.long	_ZN13TiXmlDocumentD1Ev
	.long	_ZN13TiXmlDocumentD0Ev
	.long	_ZNK13TiXmlDocument5PrintEP7__sFILEi
	.long	_ZN13TiXmlDocument5ParseEPKcP16TiXmlParsingData13TiXmlEncoding
	.long	_ZNK13TiXmlDocument10ToDocumentEv
	.long	_ZNK9TiXmlNode9ToElementEv
	.long	_ZNK9TiXmlNode9ToCommentEv
	.long	_ZNK9TiXmlNode9ToUnknownEv
	.long	_ZNK9TiXmlNode6ToTextEv
	.long	_ZNK9TiXmlNode13ToDeclarationEv
	.long	_ZN13TiXmlDocument10ToDocumentEv
	.long	_ZN9TiXmlNode9ToElementEv
	.long	_ZN9TiXmlNode9ToCommentEv
	.long	_ZN9TiXmlNode9ToUnknownEv
	.long	_ZN9TiXmlNode6ToTextEv
	.long	_ZN9TiXmlNode13ToDeclarationEv
	.long	_ZNK13TiXmlDocument5CloneEv
	.long	_ZNK13TiXmlDocument6AcceptEP12TiXmlVisitor
	.long	_ZN13TiXmlDocument8StreamInEPSiPSs
	.weak	_ZTV14TiXmlAttribute
	.section	.rodata._ZTV14TiXmlAttribute,"aG",@progbits,_ZTV14TiXmlAttribute,comdat
	.align 3
	.type	_ZTV14TiXmlAttribute, @object
	.size	_ZTV14TiXmlAttribute, 24
_ZTV14TiXmlAttribute:
	.long	0
	.long	_ZTI14TiXmlAttribute
	.long	_ZN14TiXmlAttributeD1Ev
	.long	_ZN14TiXmlAttributeD0Ev
	.long	_ZNK14TiXmlAttribute5PrintEP7__sFILEi
	.long	_ZN14TiXmlAttribute5ParseEPKcP16TiXmlParsingData13TiXmlEncoding
	.globl _ZN9TiXmlBase13utf8ByteTableE
	.globl _ZN9TiXmlBase6entityE
	.weak	_ZTV9TiXmlBase
	.section	.rodata._ZTV9TiXmlBase,"aG",@progbits,_ZTV9TiXmlBase,comdat
	.align 3
	.type	_ZTV9TiXmlBase, @object
	.size	_ZTV9TiXmlBase, 24
_ZTV9TiXmlBase:
	.long	0
	.long	_ZTI9TiXmlBase
	.long	_ZN9TiXmlBaseD1Ev
	.long	_ZN9TiXmlBaseD0Ev
	.long	__cxa_pure_virtual
	.long	__cxa_pure_virtual
	.weak	_ZTI9TiXmlBase
	.section	.sdata._ZTI9TiXmlBase,"awG",@progbits,_ZTI9TiXmlBase,comdat
	.align 2
	.type	_ZTI9TiXmlBase, @object
	.size	_ZTI9TiXmlBase, 8
_ZTI9TiXmlBase:
	.long	_ZTVN10__cxxabiv117__class_type_infoE+8
	.long	_ZTS9TiXmlBase
	.weak	_ZTS9TiXmlBase
	.section	.rodata._ZTS9TiXmlBase,"aG",@progbits,_ZTS9TiXmlBase,comdat
	.align 2
	.type	_ZTS9TiXmlBase, @object
	.size	_ZTS9TiXmlBase, 11
_ZTS9TiXmlBase:
	.string	"9TiXmlBase"
	.weak	_ZN9TiXmlBaseD1Ev
	.set	_ZN9TiXmlBaseD1Ev,_ZN9TiXmlBaseD2Ev
	.weak	_ZN13TiXmlDocumentD1Ev
	.set	_ZN13TiXmlDocumentD1Ev,_ZN13TiXmlDocumentD2Ev
	.weak	_ZN14TiXmlAttributeD1Ev
	.set	_ZN14TiXmlAttributeD1Ev,_ZN14TiXmlAttributeD2Ev
	.section	.rodata
	.align 2
	.set	.LANCHOR1,. + 0
.LC0:
	.long	0
	.long	0
	.long	192
	.long	224
	.long	240
	.long	248
	.long	252
	.type	_ZZN16TiXmlParsingData5StampEPKc13TiXmlEncodingE19__PRETTY_FUNCTION__, @object
	.size	_ZZN16TiXmlParsingData5StampEPKc13TiXmlEncodingE19__PRETTY_FUNCTION__, 57
_ZZN16TiXmlParsingData5StampEPKc13TiXmlEncodingE19__PRETTY_FUNCTION__:
	.string	"void TiXmlParsingData::Stamp(const char*, TiXmlEncoding)"
	.zero	3
	.type	_ZN9TiXmlBase13utf8ByteTableE, @object
	.size	_ZN9TiXmlBase13utf8ByteTableE, 1024
_ZN9TiXmlBase13utf8ByteTableE:
	.long	1
	.long	1
	.long	1
	.long	1
	.long	1
	.long	1
	.long	1
	.long	1
	.long	1
	.long	1
	.long	1
	.long	1
	.long	1
	.long	1
	.long	1
	.long	1
	.long	1
	.long	1
	.long	1
	.long	1
	.long	1
	.long	1
	.long	1
	.long	1
	.long	1
	.long	1
	.long	1
	.long	1
	.long	1
	.long	1
	.long	1
	.long	1
	.long	1
	.long	1
	.long	1
	.long	1
	.long	1
	.long	1
	.long	1
	.long	1
	.long	1
	.long	1
	.long	1
	.long	1
	.long	1
	.long	1
	.long	1
	.long	1
	.long	1
	.long	1
	.long	1
	.long	1
	.long	1
	.long	1
	.long	1
	.long	1
	.long	1
	.long	1
	.long	1
	.long	1
	.long	1
	.long	1
	.long	1
	.long	1
	.long	1
	.long	1
	.long	1
	.long	1
	.long	1
	.long	1
	.long	1
	.long	1
	.long	1
	.long	1
	.long	1
	.long	1
	.long	1
	.long	1
	.long	1
	.long	1
	.long	1
	.long	1
	.long	1
	.long	1
	.long	1
	.long	1
	.long	1
	.long	1
	.long	1
	.long	1
	.long	1
	.long	1
	.long	1
	.long	1
	.long	1
	.long	1
	.long	1
	.long	1
	.long	1
	.long	1
	.long	1
	.long	1
	.long	1
	.long	1
	.long	1
	.long	1
	.long	1
	.long	1
	.long	1
	.long	1
	.long	1
	.long	1
	.long	1
	.long	1
	.long	1
	.long	1
	.long	1
	.long	1
	.long	1
	.long	1
	.long	1
	.long	1
	.long	1
	.long	1
	.long	1
	.long	1
	.long	1
	.long	1
	.long	1
	.long	1
	.long	1
	.long	1
	.long	1
	.long	1
	.long	1
	.long	1
	.long	1
	.long	1
	.long	1
	.long	1
	.long	1
	.long	1
	.long	1
	.long	1
	.long	1
	.long	1
	.long	1
	.long	1
	.long	1
	.long	1
	.long	1
	.long	1
	.long	1
	.long	1
	.long	1
	.long	1
	.long	1
	.long	1
	.long	1
	.long	1
	.long	1
	.long	1
	.long	1
	.long	1
	.long	1
	.long	1
	.long	1
	.long	1
	.long	1
	.long	1
	.long	1
	.long	1
	.long	1
	.long	1
	.long	1
	.long	1
	.long	1
	.long	1
	.long	1
	.long	1
	.long	1
	.long	1
	.long	1
	.long	1
	.long	1
	.long	1
	.long	1
	.long	1
	.long	1
	.long	1
	.long	1
	.long	1
	.long	1
	.long	1
	.long	2
	.long	2
	.long	2
	.long	2
	.long	2
	.long	2
	.long	2
	.long	2
	.long	2
	.long	2
	.long	2
	.long	2
	.long	2
	.long	2
	.long	2
	.long	2
	.long	2
	.long	2
	.long	2
	.long	2
	.long	2
	.long	2
	.long	2
	.long	2
	.long	2
	.long	2
	.long	2
	.long	2
	.long	2
	.long	2
	.long	3
	.long	3
	.long	3
	.long	3
	.long	3
	.long	3
	.long	3
	.long	3
	.long	3
	.long	3
	.long	3
	.long	3
	.long	3
	.long	3
	.long	3
	.long	3
	.long	4
	.long	4
	.long	4
	.long	4
	.long	4
	.long	1
	.long	1
	.long	1
	.long	1
	.long	1
	.long	1
	.long	1
	.long	1
	.long	1
	.long	1
	.long	1
	.type	_ZZN9TiXmlBase8ReadNameEPKcPSs13TiXmlEncodingE19__PRETTY_FUNCTION__, @object
	.size	_ZZN9TiXmlBase8ReadNameEPKcPSs13TiXmlEncodingE19__PRETTY_FUNCTION__, 81
_ZZN9TiXmlBase8ReadNameEPKcPSs13TiXmlEncodingE19__PRETTY_FUNCTION__:
	.string	"static const char* TiXmlBase::ReadName(const char*, std::string*, TiXmlEncoding)"
	.zero	3
	.type	_ZZN9TiXmlBase9GetEntityEPKcPcPi13TiXmlEncodingE19__PRETTY_FUNCTION__, @object
	.size	_ZZN9TiXmlBase9GetEntityEPKcPcPi13TiXmlEncodingE19__PRETTY_FUNCTION__, 81
_ZZN9TiXmlBase9GetEntityEPKcPcPi13TiXmlEncodingE19__PRETTY_FUNCTION__:
	.string	"static const char* TiXmlBase::GetEntity(const char*, char*, int*, TiXmlEncoding)"
	.zero	3
	.type	_ZZN9TiXmlBase11StringEqualEPKcS1_b13TiXmlEncodingE19__PRETTY_FUNCTION__, @object
	.size	_ZZN9TiXmlBase11StringEqualEPKcS1_b13TiXmlEncodingE19__PRETTY_FUNCTION__, 82
_ZZN9TiXmlBase11StringEqualEPKcS1_b13TiXmlEncodingE19__PRETTY_FUNCTION__:
	.string	"static bool TiXmlBase::StringEqual(const char*, const char*, bool, TiXmlEncoding)"
	.zero	2
	.type	_ZZN9TiXmlBase7GetCharEPKcPcPi13TiXmlEncodingE19__PRETTY_FUNCTION__, @object
	.size	_ZZN9TiXmlBase7GetCharEPKcPcPi13TiXmlEncodingE19__PRETTY_FUNCTION__, 79
_ZZN9TiXmlBase7GetCharEPKcPcPi13TiXmlEncodingE19__PRETTY_FUNCTION__:
	.string	"static const char* TiXmlBase::GetChar(const char*, char*, int*, TiXmlEncoding)"
	.zero	1
	.type	_ZZN13TiXmlDocument8SetErrorEiPKcP16TiXmlParsingData13TiXmlEncodingE19__PRETTY_FUNCTION__, @object
	.size	_ZZN13TiXmlDocument8SetErrorEiPKcP16TiXmlParsingData13TiXmlEncodingE19__PRETTY_FUNCTION__, 81
_ZZN13TiXmlDocument8SetErrorEiPKcP16TiXmlParsingData13TiXmlEncodingE19__PRETTY_FUNCTION__:
	.string	"void TiXmlDocument::SetError(int, const char*, TiXmlParsingData*, TiXmlEncoding)"
	.zero	3
	.type	_ZZN13TiXmlDocument5ParseEPKcP16TiXmlParsingData13TiXmlEncodingE19__PRETTY_FUNCTION__, @object
	.size	_ZZN13TiXmlDocument5ParseEPKcP16TiXmlParsingData13TiXmlEncodingE19__PRETTY_FUNCTION__, 88
_ZZN13TiXmlDocument5ParseEPKcP16TiXmlParsingData13TiXmlEncodingE19__PRETTY_FUNCTION__:
	.string	"virtual const char* TiXmlDocument::Parse(const char*, TiXmlParsingData*, TiXmlEncoding)"
	.type	_ZZN12TiXmlElement8StreamInEPSiPSsE19__PRETTY_FUNCTION__, @object
	.size	_ZZN12TiXmlElement8StreamInEPSiPSsE19__PRETTY_FUNCTION__, 65
_ZZN12TiXmlElement8StreamInEPSiPSsE19__PRETTY_FUNCTION__:
	.string	"virtual void TiXmlElement::StreamIn(std::istream*, std::string*)"
	.section	".data"
	.align 2
	.set	.LANCHOR2,. + 0
	.type	_ZN9TiXmlBase6entityE, @object
	.size	_ZN9TiXmlBase6entityE, 60
_ZN9TiXmlBase6entityE:
	.long	.LC35
	.long	5
	.byte	38
	.zero	3
	.long	.LC36
	.long	4
	.byte	60
	.zero	3
	.long	.LC37
	.long	4
	.byte	62
	.zero	3
	.long	.LC38
	.long	6
	.byte	34
	.zero	3
	.long	.LC39
	.long	6
	.byte	39
	.zero	3
	.section	.rodata.str1.4,"aMS",@progbits,1
	.align 2
.LC1:
	.string	"d:/Projects/SaveGameManager/savegame-manager-gx/trunk/source/XML/tinyxmlparser.cpp"
	.zero	1
.LC2:
	.string	"now"
.LC3:
	.string	"p"
	.zero	2
.LC4:
	.string	"cursor.row >= -1"
	.zero	3
.LC5:
	.string	"cursor.col >= -1"
	.zero	3
.LC6:
	.string	"stamp"
	.zero	2
.LC7:
	.string	""
	.zero	3
.LC8:
	.string	"strlen( entity[i].str ) == entity[i].strLength"
	.zero	1
.LC9:
	.string	"%c\n"
.LC10:
	.string	"tag"
.LC11:
	.string	"0"
	.zero	2
.LC12:
	.string	"d:/Projects/SaveGameManager/savegame-manager-gx/trunk/source/XML/tinyxml.h"
	.zero	1
.LC13:
	.string	"*length >= 0 && *length < 5"
.LC14:
	.string	"err > 0 && err < TIXML_ERROR_STRING_COUNT"
	.zero	2
.LC15:
	.string	"'"
	.zero	2
.LC16:
	.string	"\""
	.zero	2
.LC17:
	.string	"<?xml"
	.zero	2
.LC18:
	.string	"<!--"
	.zero	3
.LC19:
	.string	"<![CDATA["
	.zero	2
.LC20:
	.string	"<!"
	.zero	1
.LC21:
	.string	"enc"
.LC22:
	.string	"UTF-8"
	.zero	2
.LC23:
	.string	"UTF8"
	.zero	3
.LC24:
	.string	"</"
	.zero	1
.LC25:
	.string	"basic_string::at"
	.zero	3
.LC26:
	.string	"-->"
.LC27:
	.string	"in->peek() == '<'"
	.zero	2
.LC28:
	.string	"!closingTag"
.LC29:
	.string	"c == '>'"
	.zero	3
.LC30:
	.string	"]]>"
.LC31:
	.string	"<"
	.zero	2
.LC32:
	.string	"version"
.LC33:
	.string	"encoding"
	.zero	3
.LC34:
	.string	"standalone"
	.zero	1
.LC35:
	.string	"&amp;"
	.zero	2
.LC36:
	.string	"&lt;"
	.zero	3
.LC37:
	.string	"&gt;"
	.zero	3
.LC38:
	.string	"&quot;"
	.zero	1
.LC39:
	.string	"&apos;"
	.section	".bss"
	.set	.LANCHOR0,. + 0
	.type	_ZStL8__ioinit, @object
	.size	_ZStL8__ioinit, 1
_ZStL8__ioinit:
	.zero	1
	.section	".text"
.Letext0:
	.file 7 "d:\\devkitpro\\devkitppc\\bin\\../lib/gcc/powerpc-eabi/4.6.3/include/stddef.h"
	.file 8 "<built-in>"
	.file 9 "d:\\devkitpro\\devkitppc\\bin\\../lib/gcc/powerpc-eabi/4.6.3/../../../../powerpc-eabi/include/machine/_types.h"
	.file 10 "d:\\devkitpro\\devkitppc\\bin\\../lib/gcc/powerpc-eabi/4.6.3/../../../../powerpc-eabi/include/sys/lock.h"
	.file 11 "d:\\devkitpro\\devkitppc\\bin\\../lib/gcc/powerpc-eabi/4.6.3/../../../../powerpc-eabi/include/sys/_types.h"
	.file 12 "d:\\devkitpro\\devkitppc\\bin\\../lib/gcc/powerpc-eabi/4.6.3/../../../../powerpc-eabi/include/sys/reent.h"
	.file 13 "d:\\devkitpro\\devkitppc\\bin\\../lib/gcc/powerpc-eabi/4.6.3/../../../../powerpc-eabi/include/stdio.h"
	.file 14 "d:\\devkitpro\\devkitppc\\bin\\../lib/gcc/powerpc-eabi/4.6.3/../../../../powerpc-eabi/include/c++/4.6.3/cwchar"
	.file 15 "d:\\devkitpro\\devkitppc\\bin\\../lib/gcc/powerpc-eabi/4.6.3/../../../../powerpc-eabi/include/c++/4.6.3/powerpc-eabi/bits/c++config.h"
	.file 16 "d:\\devkitpro\\devkitppc\\bin\\../lib/gcc/powerpc-eabi/4.6.3/../../../../powerpc-eabi/include/c++/4.6.3/clocale"
	.file 17 "d:\\devkitpro\\devkitppc\\bin\\../lib/gcc/powerpc-eabi/4.6.3/../../../../powerpc-eabi/include/c++/4.6.3/bits/stringfwd.h"
	.file 18 "d:\\devkitpro\\devkitppc\\bin\\../lib/gcc/powerpc-eabi/4.6.3/../../../../powerpc-eabi/include/c++/4.6.3/bits/ios_base.h"
	.file 19 "d:\\devkitpro\\devkitppc\\bin\\../lib/gcc/powerpc-eabi/4.6.3/../../../../powerpc-eabi/include/c++/4.6.3/cwctype"
	.file 20 "d:\\devkitpro\\devkitppc\\bin\\../lib/gcc/powerpc-eabi/4.6.3/../../../../powerpc-eabi/include/c++/4.6.3/iosfwd"
	.file 21 "d:\\devkitpro\\devkitppc\\bin\\../lib/gcc/powerpc-eabi/4.6.3/../../../../powerpc-eabi/include/c++/4.6.3/bits/basic_ios.h"
	.file 22 "d:\\devkitpro\\devkitppc\\bin\\../lib/gcc/powerpc-eabi/4.6.3/../../../../powerpc-eabi/include/c++/4.6.3/ext/new_allocator.h"
	.file 23 "d:\\devkitpro\\devkitppc\\bin\\../lib/gcc/powerpc-eabi/4.6.3/../../../../powerpc-eabi/include/c++/4.6.3/bits/cpp_type_traits.h"
	.file 24 "d:\\devkitpro\\devkitppc\\bin\\../lib/gcc/powerpc-eabi/4.6.3/../../../../powerpc-eabi/include/c++/4.6.3/debug/debug.h"
	.file 25 "d:\\devkitpro\\devkitppc\\bin\\../lib/gcc/powerpc-eabi/4.6.3/../../../../powerpc-eabi/include/wchar.h"
	.file 26 "d:\\devkitpro\\devkitppc\\bin\\../lib/gcc/powerpc-eabi/4.6.3/../../../../powerpc-eabi/include/c++/4.6.3/bits/allocator.h"
	.file 27 "d:\\devkitpro\\devkitppc\\bin\\../lib/gcc/powerpc-eabi/4.6.3/../../../../powerpc-eabi/include/locale.h"
	.file 28 "d:\\devkitpro\\devkitppc\\bin\\../lib/gcc/powerpc-eabi/4.6.3/../../../../powerpc-eabi/include/c++/4.6.3/powerpc-eabi/bits/atomic_word.h"
	.file 29 "d:\\devkitpro\\devkitppc\\bin\\../lib/gcc/powerpc-eabi/4.6.3/../../../../powerpc-eabi/include/c++/4.6.3/ext/numeric_traits.h"
	.file 30 "d:\\devkitpro\\devkitppc\\bin\\../lib/gcc/powerpc-eabi/4.6.3/../../../../powerpc-eabi/include/c++/4.6.3/bits/basic_string.tcc"
	.file 31 "d:\\devkitpro\\devkitppc\\bin\\../lib/gcc/powerpc-eabi/4.6.3/../../../../powerpc-eabi/include/wctype.h"
	.file 32 "d:\\devkitpro\\devkitppc\\bin\\../lib/gcc/powerpc-eabi/4.6.3/../../../../powerpc-eabi/include/c++/4.6.3/new"