   1              		.file	"tinyxml.cpp"
   2              		.section	".text"
   3              	.Ltext0:
   4              		.section	.text._ZN12TiXmlVisitorD2Ev,"axG",@progbits,_ZN12TiXmlVisitorD5Ev,comdat
   5              		.align 2
   6              		.weak	_ZN12TiXmlVisitorD2Ev
   7              		.type	_ZN12TiXmlVisitorD2Ev, @function
   8              	_ZN12TiXmlVisitorD2Ev:
   9              	.LFB985:
  10              		.file 1 "d:/Projects/SaveGameManager/savegame-manager-gx/trunk/source/XML/tinyxml.h"
  11              		.loc 1 133 0
  12              		.cfi_startproc
  13              	.LVL0:
  14              	.LBB1992:
  15              		.loc 1 133 0
  16 0000 3D200000 		lis 9,_ZTV12TiXmlVisitor+8@ha
  17              	.LBE1992:
  18              	.LBB1993:
  19 0004 38090008 		la 0,_ZTV12TiXmlVisitor+8@l(9)
  20 0008 90030000 		stw 0,0(3)
  21              	.LBE1993:
  22 000c 4E800020 		blr
  23              		.cfi_endproc
  24              	.LFE985:
  25              		.size	_ZN12TiXmlVisitorD2Ev, .-_ZN12TiXmlVisitorD2Ev
  26              		.section	.text._ZN12TiXmlVisitor10VisitEnterERK13TiXmlDocument,"axG",@progbits,_ZN12TiXmlVisitor10
  27              		.align 2
  28              		.weak	_ZN12TiXmlVisitor10VisitEnterERK13TiXmlDocument
  29              		.type	_ZN12TiXmlVisitor10VisitEnterERK13TiXmlDocument, @function
  30              	_ZN12TiXmlVisitor10VisitEnterERK13TiXmlDocument:
  31              	.LFB988:
  32              		.loc 1 136 0
  33              		.cfi_startproc
  34              	.LVL1:
  35              		.loc 1 136 0
  36 0000 38600001 		li 3,1
  37              	.LVL2:
  38 0004 4E800020 		blr
  39              		.cfi_endproc
  40              	.LFE988:
  41              		.size	_ZN12TiXmlVisitor10VisitEnterERK13TiXmlDocument, .-_ZN12TiXmlVisitor10VisitEnterERK13TiXmlDo
  42              		.section	.text._ZN12TiXmlVisitor9VisitExitERK13TiXmlDocument,"axG",@progbits,_ZN12TiXmlVisitor9Vis
  43              		.align 2
  44              		.weak	_ZN12TiXmlVisitor9VisitExitERK13TiXmlDocument
  45              		.type	_ZN12TiXmlVisitor9VisitExitERK13TiXmlDocument, @function
  46              	_ZN12TiXmlVisitor9VisitExitERK13TiXmlDocument:
  47              	.LFB989:
  48              		.loc 1 138 0
  49              		.cfi_startproc
  50              	.LVL3:
  51              		.loc 1 138 0
  52 0000 38600001 		li 3,1
  53              	.LVL4:
  54 0004 4E800020 		blr
  55              		.cfi_endproc
  56              	.LFE989:
  57              		.size	_ZN12TiXmlVisitor9VisitExitERK13TiXmlDocument, .-_ZN12TiXmlVisitor9VisitExitERK13TiXmlDocume
  58              		.section	.text._ZN12TiXmlVisitor10VisitEnterERK12TiXmlElementPK14TiXmlAttribute,"axG",@progbits,_Z
  59              		.align 2
  60              		.weak	_ZN12TiXmlVisitor10VisitEnterERK12TiXmlElementPK14TiXmlAttribute
  61              		.type	_ZN12TiXmlVisitor10VisitEnterERK12TiXmlElementPK14TiXmlAttribute, @function
  62              	_ZN12TiXmlVisitor10VisitEnterERK12TiXmlElementPK14TiXmlAttribute:
  63              	.LFB990:
  64              		.loc 1 141 0
  65              		.cfi_startproc
  66              	.LVL5:
  67              		.loc 1 141 0
  68 0000 38600001 		li 3,1
  69              	.LVL6:
  70 0004 4E800020 		blr
  71              		.cfi_endproc
  72              	.LFE990:
  73              		.size	_ZN12TiXmlVisitor10VisitEnterERK12TiXmlElementPK14TiXmlAttribute, .-_ZN12TiXmlVisitor10Visit
  74              		.section	.text._ZN12TiXmlVisitor9VisitExitERK12TiXmlElement,"axG",@progbits,_ZN12TiXmlVisitor9Visi
  75              		.align 2
  76              		.weak	_ZN12TiXmlVisitor9VisitExitERK12TiXmlElement
  77              		.type	_ZN12TiXmlVisitor9VisitExitERK12TiXmlElement, @function
  78              	_ZN12TiXmlVisitor9VisitExitERK12TiXmlElement:
  79              	.LFB991:
  80              		.loc 1 143 0
  81              		.cfi_startproc
  82              	.LVL7:
  83              		.loc 1 143 0
  84 0000 38600001 		li 3,1
  85              	.LVL8:
  86 0004 4E800020 		blr
  87              		.cfi_endproc
  88              	.LFE991:
  89              		.size	_ZN12TiXmlVisitor9VisitExitERK12TiXmlElement, .-_ZN12TiXmlVisitor9VisitExitERK12TiXmlElement
  90              		.section	.text._ZN12TiXmlVisitor5VisitERK16TiXmlDeclaration,"axG",@progbits,_ZN12TiXmlVisitor5Visi
  91              		.align 2
  92              		.weak	_ZN12TiXmlVisitor5VisitERK16TiXmlDeclaration
  93              		.type	_ZN12TiXmlVisitor5VisitERK16TiXmlDeclaration, @function
  94              	_ZN12TiXmlVisitor5VisitERK16TiXmlDeclaration:
  95              	.LFB992:
  96              		.loc 1 146 0
  97              		.cfi_startproc
  98              	.LVL9:
  99              		.loc 1 146 0
 100 0000 38600001 		li 3,1
 101              	.LVL10:
 102 0004 4E800020 		blr
 103              		.cfi_endproc
 104              	.LFE992:
 105              		.size	_ZN12TiXmlVisitor5VisitERK16TiXmlDeclaration, .-_ZN12TiXmlVisitor5VisitERK16TiXmlDeclaration
 106              		.section	.text._ZN12TiXmlVisitor5VisitERK9TiXmlText,"axG",@progbits,_ZN12TiXmlVisitor5VisitERK9TiX
 107              		.align 2
 108              		.weak	_ZN12TiXmlVisitor5VisitERK9TiXmlText
 109              		.type	_ZN12TiXmlVisitor5VisitERK9TiXmlText, @function
 110              	_ZN12TiXmlVisitor5VisitERK9TiXmlText:
 111              	.LFB993:
 112              		.loc 1 148 0
 113              		.cfi_startproc
 114              	.LVL11:
 115              		.loc 1 148 0
 116 0000 38600001 		li 3,1
 117              	.LVL12:
 118 0004 4E800020 		blr
 119              		.cfi_endproc
 120              	.LFE993:
 121              		.size	_ZN12TiXmlVisitor5VisitERK9TiXmlText, .-_ZN12TiXmlVisitor5VisitERK9TiXmlText
 122              		.section	.text._ZN12TiXmlVisitor5VisitERK12TiXmlComment,"axG",@progbits,_ZN12TiXmlVisitor5VisitERK
 123              		.align 2
 124              		.weak	_ZN12TiXmlVisitor5VisitERK12TiXmlComment
 125              		.type	_ZN12TiXmlVisitor5VisitERK12TiXmlComment, @function
 126              	_ZN12TiXmlVisitor5VisitERK12TiXmlComment:
 127              	.LFB994:
 128              		.loc 1 150 0
 129              		.cfi_startproc
 130              	.LVL13:
 131              		.loc 1 150 0
 132 0000 38600001 		li 3,1
 133              	.LVL14:
 134 0004 4E800020 		blr
 135              		.cfi_endproc
 136              	.LFE994:
 137              		.size	_ZN12TiXmlVisitor5VisitERK12TiXmlComment, .-_ZN12TiXmlVisitor5VisitERK12TiXmlComment
 138              		.section	.text._ZN12TiXmlVisitor5VisitERK12TiXmlUnknown,"axG",@progbits,_ZN12TiXmlVisitor5VisitERK
 139              		.align 2
 140              		.weak	_ZN12TiXmlVisitor5VisitERK12TiXmlUnknown
 141              		.type	_ZN12TiXmlVisitor5VisitERK12TiXmlUnknown, @function
 142              	_ZN12TiXmlVisitor5VisitERK12TiXmlUnknown:
 143              	.LFB995:
 144              		.loc 1 152 0
 145              		.cfi_startproc
 146              	.LVL15:
 147              		.loc 1 152 0
 148 0000 38600001 		li 3,1
 149              	.LVL16:
 150 0004 4E800020 		blr
 151              		.cfi_endproc
 152              	.LFE995:
 153              		.size	_ZN12TiXmlVisitor5VisitERK12TiXmlUnknown, .-_ZN12TiXmlVisitor5VisitERK12TiXmlUnknown
 154              		.section	.text._ZN9TiXmlBaseD2Ev,"axG",@progbits,_ZN9TiXmlBaseD5Ev,comdat
 155              		.align 2
 156              		.weak	_ZN9TiXmlBaseD2Ev
 157              		.type	_ZN9TiXmlBaseD2Ev, @function
 158              	_ZN9TiXmlBaseD2Ev:
 159              	.LFB1000:
 160              		.loc 1 204 0
 161              		.cfi_startproc
 162              	.LVL17:
 163              	.LBB1994:
 164              		.loc 1 204 0
 165 0000 3D200000 		lis 9,_ZTV9TiXmlBase+8@ha
 166              	.LBE1994:
 167              	.LBB1995:
 168 0004 38090008 		la 0,_ZTV9TiXmlBase+8@l(9)
 169 0008 90030000 		stw 0,0(3)
 170              	.LBE1995:
 171 000c 4E800020 		blr
 172              		.cfi_endproc
 173              	.LFE1000:
 174              		.size	_ZN9TiXmlBaseD2Ev, .-_ZN9TiXmlBaseD2Ev
 175              		.section	.text._ZNK9TiXmlNode10ToDocumentEv,"axG",@progbits,_ZNK9TiXmlNode10ToDocumentEv,comdat
 176              		.align 2
 177              		.weak	_ZNK9TiXmlNode10ToDocumentEv
 178              		.type	_ZNK9TiXmlNode10ToDocumentEv, @function
 179              	_ZNK9TiXmlNode10ToDocumentEv:
 180              	.LFB1056:
 181              		.loc 1 699 0
 182              		.cfi_startproc
 183              	.LVL18:
 184              		.loc 1 699 0
 185 0000 38600000 		li 3,0
 186              	.LVL19:
 187 0004 4E800020 		blr
 188              		.cfi_endproc
 189              	.LFE1056:
 190              		.size	_ZNK9TiXmlNode10ToDocumentEv, .-_ZNK9TiXmlNode10ToDocumentEv
 191              		.section	.text._ZNK9TiXmlNode9ToElementEv,"axG",@progbits,_ZNK9TiXmlNode9ToElementEv,comdat
 192              		.align 2
 193              		.weak	_ZNK9TiXmlNode9ToElementEv
 194              		.type	_ZNK9TiXmlNode9ToElementEv, @function
 195              	_ZNK9TiXmlNode9ToElementEv:
 196              	.LFB1057:
 197              		.loc 1 700 0
 198              		.cfi_startproc
 199              	.LVL20:
 200              		.loc 1 700 0
 201 0000 38600000 		li 3,0
 202              	.LVL21:
 203 0004 4E800020 		blr
 204              		.cfi_endproc
 205              	.LFE1057:
 206              		.size	_ZNK9TiXmlNode9ToElementEv, .-_ZNK9TiXmlNode9ToElementEv
 207              		.section	.text._ZNK9TiXmlNode9ToCommentEv,"axG",@progbits,_ZNK9TiXmlNode9ToCommentEv,comdat
 208              		.align 2
 209              		.weak	_ZNK9TiXmlNode9ToCommentEv
 210              		.type	_ZNK9TiXmlNode9ToCommentEv, @function
 211              	_ZNK9TiXmlNode9ToCommentEv:
 212              	.LFB1058:
 213              		.loc 1 701 0
 214              		.cfi_startproc
 215              	.LVL22:
 216              		.loc 1 701 0
 217 0000 38600000 		li 3,0
 218              	.LVL23:
 219 0004 4E800020 		blr
 220              		.cfi_endproc
 221              	.LFE1058:
 222              		.size	_ZNK9TiXmlNode9ToCommentEv, .-_ZNK9TiXmlNode9ToCommentEv
 223              		.section	.text._ZNK9TiXmlNode9ToUnknownEv,"axG",@progbits,_ZNK9TiXmlNode9ToUnknownEv,comdat
 224              		.align 2
 225              		.weak	_ZNK9TiXmlNode9ToUnknownEv
 226              		.type	_ZNK9TiXmlNode9ToUnknownEv, @function
 227              	_ZNK9TiXmlNode9ToUnknownEv:
 228              	.LFB1059:
 229              		.loc 1 702 0
 230              		.cfi_startproc
 231              	.LVL24:
 232              		.loc 1 702 0
 233 0000 38600000 		li 3,0
 234              	.LVL25:
 235 0004 4E800020 		blr
 236              		.cfi_endproc
 237              	.LFE1059:
 238              		.size	_ZNK9TiXmlNode9ToUnknownEv, .-_ZNK9TiXmlNode9ToUnknownEv
 239              		.section	.text._ZNK9TiXmlNode6ToTextEv,"axG",@progbits,_ZNK9TiXmlNode6ToTextEv,comdat
 240              		.align 2
 241              		.weak	_ZNK9TiXmlNode6ToTextEv
 242              		.type	_ZNK9TiXmlNode6ToTextEv, @function
 243              	_ZNK9TiXmlNode6ToTextEv:
 244              	.LFB1060:
 245              		.loc 1 703 0
 246              		.cfi_startproc
 247              	.LVL26:
 248              		.loc 1 703 0
 249 0000 38600000 		li 3,0
 250              	.LVL27:
 251 0004 4E800020 		blr
 252              		.cfi_endproc
 253              	.LFE1060:
 254              		.size	_ZNK9TiXmlNode6ToTextEv, .-_ZNK9TiXmlNode6ToTextEv
 255              		.section	.text._ZNK9TiXmlNode13ToDeclarationEv,"axG",@progbits,_ZNK9TiXmlNode13ToDeclarationEv,com
 256              		.align 2
 257              		.weak	_ZNK9TiXmlNode13ToDeclarationEv
 258              		.type	_ZNK9TiXmlNode13ToDeclarationEv, @function
 259              	_ZNK9TiXmlNode13ToDeclarationEv:
 260              	.LFB1061:
 261              		.loc 1 704 0
 262              		.cfi_startproc
 263              	.LVL28:
 264              		.loc 1 704 0
 265 0000 38600000 		li 3,0
 266              	.LVL29:
 267 0004 4E800020 		blr
 268              		.cfi_endproc
 269              	.LFE1061:
 270              		.size	_ZNK9TiXmlNode13ToDeclarationEv, .-_ZNK9TiXmlNode13ToDeclarationEv
 271              		.section	.text._ZN9TiXmlNode10ToDocumentEv,"axG",@progbits,_ZN9TiXmlNode10ToDocumentEv,comdat
 272              		.align 2
 273              		.weak	_ZN9TiXmlNode10ToDocumentEv
 274              		.type	_ZN9TiXmlNode10ToDocumentEv, @function
 275              	_ZN9TiXmlNode10ToDocumentEv:
 276              	.LFB1062:
 277              		.loc 1 706 0
 278              		.cfi_startproc
 279              	.LVL30:
 280              		.loc 1 706 0
 281 0000 38600000 		li 3,0
 282              	.LVL31:
 283 0004 4E800020 		blr
 284              		.cfi_endproc
 285              	.LFE1062:
 286              		.size	_ZN9TiXmlNode10ToDocumentEv, .-_ZN9TiXmlNode10ToDocumentEv
 287              		.section	.text._ZN9TiXmlNode9ToElementEv,"axG",@progbits,_ZN9TiXmlNode9ToElementEv,comdat
 288              		.align 2
 289              		.weak	_ZN9TiXmlNode9ToElementEv
 290              		.type	_ZN9TiXmlNode9ToElementEv, @function
 291              	_ZN9TiXmlNode9ToElementEv:
 292              	.LFB1063:
 293              		.loc 1 707 0
 294              		.cfi_startproc
 295              	.LVL32:
 296              		.loc 1 707 0
 297 0000 38600000 		li 3,0
 298              	.LVL33:
 299 0004 4E800020 		blr
 300              		.cfi_endproc
 301              	.LFE1063:
 302              		.size	_ZN9TiXmlNode9ToElementEv, .-_ZN9TiXmlNode9ToElementEv
 303              		.section	.text._ZN9TiXmlNode9ToCommentEv,"axG",@progbits,_ZN9TiXmlNode9ToCommentEv,comdat
 304              		.align 2
 305              		.weak	_ZN9TiXmlNode9ToCommentEv
 306              		.type	_ZN9TiXmlNode9ToCommentEv, @function
 307              	_ZN9TiXmlNode9ToCommentEv:
 308              	.LFB1064:
 309              		.loc 1 708 0
 310              		.cfi_startproc
 311              	.LVL34:
 312              		.loc 1 708 0
 313 0000 38600000 		li 3,0
 314              	.LVL35:
 315 0004 4E800020 		blr
 316              		.cfi_endproc
 317              	.LFE1064:
 318              		.size	_ZN9TiXmlNode9ToCommentEv, .-_ZN9TiXmlNode9ToCommentEv
 319              		.section	.text._ZN9TiXmlNode9ToUnknownEv,"axG",@progbits,_ZN9TiXmlNode9ToUnknownEv,comdat
 320              		.align 2
 321              		.weak	_ZN9TiXmlNode9ToUnknownEv
 322              		.type	_ZN9TiXmlNode9ToUnknownEv, @function
 323              	_ZN9TiXmlNode9ToUnknownEv:
 324              	.LFB1065:
 325              		.loc 1 709 0
 326              		.cfi_startproc
 327              	.LVL36:
 328              		.loc 1 709 0
 329 0000 38600000 		li 3,0
 330              	.LVL37:
 331 0004 4E800020 		blr
 332              		.cfi_endproc
 333              	.LFE1065:
 334              		.size	_ZN9TiXmlNode9ToUnknownEv, .-_ZN9TiXmlNode9ToUnknownEv
 335              		.section	.text._ZN9TiXmlNode6ToTextEv,"axG",@progbits,_ZN9TiXmlNode6ToTextEv,comdat
 336              		.align 2
 337              		.weak	_ZN9TiXmlNode6ToTextEv
 338              		.type	_ZN9TiXmlNode6ToTextEv, @function
 339              	_ZN9TiXmlNode6ToTextEv:
 340              	.LFB1066:
 341              		.loc 1 710 0
 342              		.cfi_startproc
 343              	.LVL38:
 344              		.loc 1 710 0
 345 0000 38600000 		li 3,0
 346              	.LVL39:
 347 0004 4E800020 		blr
 348              		.cfi_endproc
 349              	.LFE1066:
 350              		.size	_ZN9TiXmlNode6ToTextEv, .-_ZN9TiXmlNode6ToTextEv
 351              		.section	.text._ZN9TiXmlNode13ToDeclarationEv,"axG",@progbits,_ZN9TiXmlNode13ToDeclarationEv,comda
 352              		.align 2
 353              		.weak	_ZN9TiXmlNode13ToDeclarationEv
 354              		.type	_ZN9TiXmlNode13ToDeclarationEv, @function
 355              	_ZN9TiXmlNode13ToDeclarationEv:
 356              	.LFB1067:
 357              		.loc 1 711 0
 358              		.cfi_startproc
 359              	.LVL40:
 360              		.loc 1 711 0
 361 0000 38600000 		li 3,0
 362              	.LVL41:
 363 0004 4E800020 		blr
 364              		.cfi_endproc
 365              	.LFE1067:
 366              		.size	_ZN9TiXmlNode13ToDeclarationEv, .-_ZN9TiXmlNode13ToDeclarationEv
 367              		.section	.text._ZNK12TiXmlElement9ToElementEv,"axG",@progbits,_ZNK12TiXmlElement9ToElementEv,comda
 368              		.align 2
 369              		.weak	_ZNK12TiXmlElement9ToElementEv
 370              		.type	_ZNK12TiXmlElement9ToElementEv, @function
 371              	_ZNK12TiXmlElement9ToElementEv:
 372              	.LFB1105:
 373              		.loc 1 1135 0
 374              		.cfi_startproc
 375              	.LVL42:
 376              		.loc 1 1135 0
 377 0000 4E800020 		blr
 378              		.cfi_endproc
 379              	.LFE1105:
 380              		.size	_ZNK12TiXmlElement9ToElementEv, .-_ZNK12TiXmlElement9ToElementEv
 381              		.section	.text._ZN12TiXmlElement9ToElementEv,"axG",@progbits,_ZN12TiXmlElement9ToElementEv,comdat
 382              		.align 2
 383              		.weak	_ZN12TiXmlElement9ToElementEv
 384              		.type	_ZN12TiXmlElement9ToElementEv, @function
 385              	_ZN12TiXmlElement9ToElementEv:
 386              	.LFB1106:
 387              		.loc 1 1136 0
 388              		.cfi_startproc
 389              	.LVL43:
 390              		.loc 1 1136 0
 391 0000 4E800020 		blr
 392              		.cfi_endproc
 393              	.LFE1106:
 394              		.size	_ZN12TiXmlElement9ToElementEv, .-_ZN12TiXmlElement9ToElementEv
 395              		.section	.text._ZNK12TiXmlComment9ToCommentEv,"axG",@progbits,_ZNK12TiXmlComment9ToCommentEv,comda
 396              		.align 2
 397              		.weak	_ZNK12TiXmlComment9ToCommentEv
 398              		.type	_ZNK12TiXmlComment9ToCommentEv, @function
 399              	_ZNK12TiXmlComment9ToCommentEv:
 400              	.LFB1117:
 401              		.loc 1 1188 0
 402              		.cfi_startproc
 403              	.LVL44:
 404              		.loc 1 1188 0
 405 0000 4E800020 		blr
 406              		.cfi_endproc
 407              	.LFE1117:
 408              		.size	_ZNK12TiXmlComment9ToCommentEv, .-_ZNK12TiXmlComment9ToCommentEv
 409              		.section	.text._ZN12TiXmlComment9ToCommentEv,"axG",@progbits,_ZN12TiXmlComment9ToCommentEv,comdat
 410              		.align 2
 411              		.weak	_ZN12TiXmlComment9ToCommentEv
 412              		.type	_ZN12TiXmlComment9ToCommentEv, @function
 413              	_ZN12TiXmlComment9ToCommentEv:
 414              	.LFB1118:
 415              		.loc 1 1189 0
 416              		.cfi_startproc
 417              	.LVL45:
 418              		.loc 1 1189 0
 419 0000 4E800020 		blr
 420              		.cfi_endproc
 421              	.LFE1118:
 422              		.size	_ZN12TiXmlComment9ToCommentEv, .-_ZN12TiXmlComment9ToCommentEv
 423              		.section	.text._ZNK9TiXmlText6ToTextEv,"axG",@progbits,_ZNK9TiXmlText6ToTextEv,comdat
 424              		.align 2
 425              		.weak	_ZNK9TiXmlText6ToTextEv
 426              		.type	_ZNK9TiXmlText6ToTextEv, @function
 427              	_ZNK9TiXmlText6ToTextEv:
 428              	.LFB1135:
 429              		.loc 1 1251 0
 430              		.cfi_startproc
 431              	.LVL46:
 432              		.loc 1 1251 0
 433 0000 4E800020 		blr
 434              		.cfi_endproc
 435              	.LFE1135:
 436              		.size	_ZNK9TiXmlText6ToTextEv, .-_ZNK9TiXmlText6ToTextEv
 437              		.section	.text._ZN9TiXmlText6ToTextEv,"axG",@progbits,_ZN9TiXmlText6ToTextEv,comdat
 438              		.align 2
 439              		.weak	_ZN9TiXmlText6ToTextEv
 440              		.type	_ZN9TiXmlText6ToTextEv, @function
 441              	_ZN9TiXmlText6ToTextEv:
 442              	.LFB1136:
 443              		.loc 1 1252 0
 444              		.cfi_startproc
 445              	.LVL47:
 446              		.loc 1 1252 0
 447 0000 4E800020 		blr
 448              		.cfi_endproc
 449              	.LFE1136:
 450              		.size	_ZN9TiXmlText6ToTextEv, .-_ZN9TiXmlText6ToTextEv
 451              		.section	.text._ZNK16TiXmlDeclaration5PrintEP7__sFILEi,"axG",@progbits,_ZNK16TiXmlDeclaration5Prin
 452              		.align 2
 453              		.weak	_ZNK16TiXmlDeclaration5PrintEP7__sFILEi
 454              		.type	_ZNK16TiXmlDeclaration5PrintEP7__sFILEi, @function
 455              	_ZNK16TiXmlDeclaration5PrintEP7__sFILEi:
 456              	.LFB1147:
 457              		.loc 1 1321 0
 458              		.cfi_startproc
 459              	.LVL48:
 460 0000 7C0802A6 		mflr 0
 461 0004 9421FFF8 		stwu 1,-8(1)
 462              	.LCFI0:
 463              		.cfi_def_cfa_offset 8
 464              		.cfi_register 65, 0
 465              		.loc 1 1322 0
 466 0008 81230000 		lwz 9,0(3)
 467 000c 38C00000 		li 6,0
 468              		.loc 1 1321 0
 469 0010 9001000C 		stw 0,12(1)
 470              		.loc 1 1322 0
 471 0014 8009004C 		lwz 0,76(9)
 472              		.cfi_offset 65, 4
 473 0018 7C0903A6 		mtctr 0
 474 001c 4E800421 		bctrl
 475              	.LVL49:
 476              		.loc 1 1323 0
 477 0020 8001000C 		lwz 0,12(1)
 478 0024 38210008 		addi 1,1,8
 479              	.LCFI1:
 480              		.cfi_def_cfa_offset 0
 481 0028 7C0803A6 		mtlr 0
 482 002c 4E800020 		blr
 483              		.cfi_endproc
 484              	.LFE1147:
 485              		.size	_ZNK16TiXmlDeclaration5PrintEP7__sFILEi, .-_ZNK16TiXmlDeclaration5PrintEP7__sFILEi
 486              		.section	.text._ZNK16TiXmlDeclaration13ToDeclarationEv,"axG",@progbits,_ZNK16TiXmlDeclaration13ToD
 487              		.align 2
 488              		.weak	_ZNK16TiXmlDeclaration13ToDeclarationEv
 489              		.type	_ZNK16TiXmlDeclaration13ToDeclarationEv, @function
 490              	_ZNK16TiXmlDeclaration13ToDeclarationEv:
 491              	.LFB1148:
 492              		.loc 1 1327 0
 493              		.cfi_startproc
 494              	.LVL50:
 495              		.loc 1 1327 0
 496 0000 4E800020 		blr
 497              		.cfi_endproc
 498              	.LFE1148:
 499              		.size	_ZNK16TiXmlDeclaration13ToDeclarationEv, .-_ZNK16TiXmlDeclaration13ToDeclarationEv
 500              		.section	.text._ZN16TiXmlDeclaration13ToDeclarationEv,"axG",@progbits,_ZN16TiXmlDeclaration13ToDec
 501              		.align 2
 502              		.weak	_ZN16TiXmlDeclaration13ToDeclarationEv
 503              		.type	_ZN16TiXmlDeclaration13ToDeclarationEv, @function
 504              	_ZN16TiXmlDeclaration13ToDeclarationEv:
 505              	.LFB1149:
 506              		.loc 1 1328 0
 507              		.cfi_startproc
 508              	.LVL51:
 509              		.loc 1 1328 0
 510 0000 4E800020 		blr
 511              		.cfi_endproc
 512              	.LFE1149:
 513              		.size	_ZN16TiXmlDeclaration13ToDeclarationEv, .-_ZN16TiXmlDeclaration13ToDeclarationEv
 514              		.section	.text._ZNK12TiXmlUnknown9ToUnknownEv,"axG",@progbits,_ZNK12TiXmlUnknown9ToUnknownEv,comda
 515              		.align 2
 516              		.weak	_ZNK12TiXmlUnknown9ToUnknownEv
 517              		.type	_ZNK12TiXmlUnknown9ToUnknownEv, @function
 518              	_ZNK12TiXmlUnknown9ToUnknownEv:
 519              	.LFB1161:
 520              		.loc 1 1372 0
 521              		.cfi_startproc
 522              	.LVL52:
 523              		.loc 1 1372 0
 524 0000 4E800020 		blr
 525              		.cfi_endproc
 526              	.LFE1161:
 527              		.size	_ZNK12TiXmlUnknown9ToUnknownEv, .-_ZNK12TiXmlUnknown9ToUnknownEv
 528              		.section	.text._ZN12TiXmlUnknown9ToUnknownEv,"axG",@progbits,_ZN12TiXmlUnknown9ToUnknownEv,comdat
 529              		.align 2
 530              		.weak	_ZN12TiXmlUnknown9ToUnknownEv
 531              		.type	_ZN12TiXmlUnknown9ToUnknownEv, @function
 532              	_ZN12TiXmlUnknown9ToUnknownEv:
 533              	.LFB1162:
 534              		.loc 1 1373 0
 535              		.cfi_startproc
 536              	.LVL53:
 537              		.loc 1 1373 0
 538 0000 4E800020 		blr
 539              		.cfi_endproc
 540              	.LFE1162:
 541              		.size	_ZN12TiXmlUnknown9ToUnknownEv, .-_ZN12TiXmlUnknown9ToUnknownEv
 542              		.section	".text"
 543              		.align 2
 544              		.globl _ZNK12TiXmlElement6AcceptEP12TiXmlVisitor
 545              		.type	_ZNK12TiXmlElement6AcceptEP12TiXmlVisitor, @function
 546              	_ZNK12TiXmlElement6AcceptEP12TiXmlVisitor:
 547              	.LFB1285:
 548              		.file 2 "d:/Projects/SaveGameManager/savegame-manager-gx/trunk/source/XML/tinyxml.cpp"
 549              		.loc 2 875 0
 550              		.cfi_startproc
 551              	.LVL54:
 552 0000 7C0802A6 		mflr 0
 553 0004 9421FFE8 		stwu 1,-24(1)
 554              	.LCFI2:
 555              		.cfi_def_cfa_offset 24
 556              		.cfi_register 65, 0
 557 0008 93C10010 		stw 30,16(1)
 558 000c 7C7E1B78 		mr 30,3
 559              		.cfi_offset 30, -8
 560 0010 9001001C 		stw 0,28(1)
 561              	.LBB1996:
 562              	.LBB1997:
 563              	.LBB1998:
 564              	.LBB1999:
 565              		.loc 1 914 0
 566 0014 3803002C 		addi 0,3,44
 567              		.cfi_offset 65, 4
 568              	.LBE1999:
 569              	.LBE1998:
 570              	.LBE1997:
 571              	.LBE1996:
 572              		.loc 2 875 0
 573 0018 93E10014 		stw 31,20(1)
 574 001c 7C9F2378 		mr 31,4
 575              		.cfi_offset 31, -4
 576              	.LBB2012:
 577              	.LBB2009:
 578              	.LBB2004:
 579              	.LBB2000:
 580              		.loc 1 914 0
 581 0020 80A3004C 		lwz 5,76(3)
 582              	.LBE2000:
 583              	.LBE2004:
 584              		.loc 2 876 0
 585 0024 81240000 		lwz 9,0(4)
 586              	.LBB2005:
 587              	.LBB2001:
 588              		.loc 1 914 0
 589 0028 7F850000 		cmpw 7,5,0
 590              	.LBE2001:
 591              	.LBE2005:
 592              	.LBE2009:
 593              	.LBE2012:
 594              		.loc 2 875 0
 595 002c 93A1000C 		stw 29,12(1)
 596              	.LBB2013:
 597              	.LBB2010:
 598              		.loc 2 876 0
 599 0030 80090010 		lwz 0,16(9)
 600              	.LBB2006:
 601              	.LBB2002:
 602              		.loc 1 914 0
 603 0034 419E008C 		beq- 7,.L44
 604              		.cfi_offset 29, -12
 605              	.L37:
 606              	.LBE2002:
 607              	.LBE2006:
 608              		.loc 2 876 0
 609 0038 7FE3FB78 		mr 3,31
 610              	.LVL55:
 611 003c 7FC4F378 		mr 4,30
 612              	.LVL56:
 613 0040 7C0903A6 		mtctr 0
 614 0044 4E800421 		bctrl
 615 0048 2F830000 		cmpwi 7,3,0
 616 004c 419E0040 		beq- 7,.L38
 617              		.loc 2 1894 0
 618 0050 83BE0018 		lwz 29,24(30)
 619              	.LVL57:
 620              	.LBB2007:
 621              		.loc 2 878 0
 622 0054 2F9D0000 		cmpwi 7,29,0
 623 0058 40BE0014 		bne+ 7,.L41
 624 005c 48000030 		b .L38
 625              	.LVL58:
 626              	.L45:
 627              		.loc 2 1894 0
 628 0060 83BD0028 		lwz 29,40(29)
 629              	.LVL59:
 630              		.loc 2 878 0
 631 0064 2F9D0000 		cmpwi 7,29,0
 632 0068 419E0024 		beq- 7,.L38
 633              	.L41:
 634              		.loc 2 880 0
 635 006c 813D0000 		lwz 9,0(29)
 636 0070 7FA3EB78 		mr 3,29
 637 0074 7FE4FB78 		mr 4,31
 638 0078 80090044 		lwz 0,68(9)
 639 007c 7C0903A6 		mtctr 0
 640 0080 4E800421 		bctrl
 641 0084 2F830000 		cmpwi 7,3,0
 642 0088 409EFFD8 		bne+ 7,.L45
 643              	.LVL60:
 644              	.L38:
 645              	.LBE2007:
 646              	.LBE2010:
 647              		.loc 2 884 0
 648 008c 813F0000 		lwz 9,0(31)
 649 0090 7FE3FB78 		mr 3,31
 650 0094 7FC4F378 		mr 4,30
 651 0098 80090014 		lwz 0,20(9)
 652 009c 7C0903A6 		mtctr 0
 653 00a0 4E800421 		bctrl
 654              	.LBE2013:
 655              		.loc 2 885 0
 656 00a4 8001001C 		lwz 0,28(1)
 657 00a8 83A1000C 		lwz 29,12(1)
 658 00ac 7C0803A6 		mtlr 0
 659 00b0 83C10010 		lwz 30,16(1)
 660              	.LVL61:
 661 00b4 83E10014 		lwz 31,20(1)
 662              	.LVL62:
 663 00b8 38210018 		addi 1,1,24
 664              		.cfi_remember_state
 665              	.LCFI3:
 666              		.cfi_def_cfa_offset 0
 667              		.cfi_restore 31
 668              		.cfi_restore 30
 669              		.cfi_restore 29
 670 00bc 4E800020 		blr
 671              	.LVL63:
 672              	.L44:
 673              	.LCFI4:
 674              		.cfi_restore_state
 675              	.LBB2014:
 676              	.LBB2011:
 677              	.LBB2008:
 678              	.LBB2003:
 679              		.loc 1 914 0
 680 00c0 38A00000 		li 5,0
 681 00c4 4BFFFF74 		b .L37
 682              	.LBE2003:
 683              	.LBE2008:
 684              	.LBE2011:
 685              	.LBE2014:
 686              		.cfi_endproc
 687              	.LFE1285:
 688              		.size	_ZNK12TiXmlElement6AcceptEP12TiXmlVisitor, .-_ZNK12TiXmlElement6AcceptEP12TiXmlVisitor
 689              		.align 2
 690              		.globl _ZNK12TiXmlComment6AcceptEP12TiXmlVisitor
 691              		.type	_ZNK12TiXmlComment6AcceptEP12TiXmlVisitor, @function
 692              	_ZNK12TiXmlComment6AcceptEP12TiXmlVisitor:
 693              	.LFB1326:
 694              		.loc 2 1318 0
 695              		.cfi_startproc
 696              	.LVL64:
 697 00c8 7C0802A6 		mflr 0
 698 00cc 9421FFF8 		stwu 1,-8(1)
 699              	.LCFI5:
 700              		.cfi_def_cfa_offset 8
 701              		.cfi_register 65, 0
 702 00d0 7C892378 		mr 9,4
 703 00d4 9001000C 		stw 0,12(1)
 704              		.loc 2 1319 0
 705 00d8 81640000 		lwz 11,0(4)
 706              		.loc 2 1318 0
 707 00dc 7C641B78 		mr 4,3
 708              	.LVL65:
 709              		.loc 2 1319 0
 710 00e0 7D234B78 		mr 3,9
 711              	.LVL66:
 712 00e4 800B0020 		lwz 0,32(11)
 713              		.cfi_offset 65, 4
 714 00e8 7C0903A6 		mtctr 0
 715 00ec 4E800421 		bctrl
 716              	.LVL67:
 717              		.loc 2 1320 0
 718 00f0 8001000C 		lwz 0,12(1)
 719 00f4 38210008 		addi 1,1,8
 720              	.LCFI6:
 721              		.cfi_def_cfa_offset 0
 722 00f8 7C0803A6 		mtlr 0
 723 00fc 4E800020 		blr
 724              		.cfi_endproc
 725              	.LFE1326:
 726              		.size	_ZNK12TiXmlComment6AcceptEP12TiXmlVisitor, .-_ZNK12TiXmlComment6AcceptEP12TiXmlVisitor
 727              		.align 2
 728              		.globl _ZNK9TiXmlText6AcceptEP12TiXmlVisitor
 729              		.type	_ZNK9TiXmlText6AcceptEP12TiXmlVisitor, @function
 730              	_ZNK9TiXmlText6AcceptEP12TiXmlVisitor:
 731              	.LFB1330:
 732              		.loc 2 1364 0
 733              		.cfi_startproc
 734              	.LVL68:
 735 0100 7C0802A6 		mflr 0
 736 0104 9421FFF8 		stwu 1,-8(1)
 737              	.LCFI7:
 738              		.cfi_def_cfa_offset 8
 739              		.cfi_register 65, 0
 740 0108 7C892378 		mr 9,4
 741 010c 9001000C 		stw 0,12(1)
 742              		.loc 2 1365 0
 743 0110 81640000 		lwz 11,0(4)
 744              		.loc 2 1364 0
 745 0114 7C641B78 		mr 4,3
 746              	.LVL69:
 747              		.loc 2 1365 0
 748 0118 7D234B78 		mr 3,9
 749              	.LVL70:
 750 011c 800B001C 		lwz 0,28(11)
 751              		.cfi_offset 65, 4
 752 0120 7C0903A6 		mtctr 0
 753 0124 4E800421 		bctrl
 754              	.LVL71:
 755              		.loc 2 1366 0
 756 0128 8001000C 		lwz 0,12(1)
 757 012c 38210008 		addi 1,1,8
 758              	.LCFI8:
 759              		.cfi_def_cfa_offset 0
 760 0130 7C0803A6 		mtlr 0
 761 0134 4E800020 		blr
 762              		.cfi_endproc
 763              	.LFE1330:
 764              		.size	_ZNK9TiXmlText6AcceptEP12TiXmlVisitor, .-_ZNK9TiXmlText6AcceptEP12TiXmlVisitor
 765              		.align 2
 766              		.globl _ZNK16TiXmlDeclaration6AcceptEP12TiXmlVisitor
 767              		.type	_ZNK16TiXmlDeclaration6AcceptEP12TiXmlVisitor, @function
 768              	_ZNK16TiXmlDeclaration6AcceptEP12TiXmlVisitor:
 769              	.LFB1344:
 770              		.loc 2 1454 0
 771              		.cfi_startproc
 772              	.LVL72:
 773 0138 7C0802A6 		mflr 0
 774 013c 9421FFF8 		stwu 1,-8(1)
 775              	.LCFI9:
 776              		.cfi_def_cfa_offset 8
 777              		.cfi_register 65, 0
 778 0140 7C892378 		mr 9,4
 779 0144 9001000C 		stw 0,12(1)
 780              		.loc 2 1455 0
 781 0148 81640000 		lwz 11,0(4)
 782              		.loc 2 1454 0
 783 014c 7C641B78 		mr 4,3
 784              	.LVL73:
 785              		.loc 2 1455 0
 786 0150 7D234B78 		mr 3,9
 787              	.LVL74:
 788 0154 800B0018 		lwz 0,24(11)
 789              		.cfi_offset 65, 4
 790 0158 7C0903A6 		mtctr 0
 791 015c 4E800421 		bctrl
 792              	.LVL75:
 793              		.loc 2 1456 0
 794 0160 8001000C 		lwz 0,12(1)
 795 0164 38210008 		addi 1,1,8
 796              	.LCFI10:
 797              		.cfi_def_cfa_offset 0
 798 0168 7C0803A6 		mtlr 0
 799 016c 4E800020 		blr
 800              		.cfi_endproc
 801              	.LFE1344:
 802              		.size	_ZNK16TiXmlDeclaration6AcceptEP12TiXmlVisitor, .-_ZNK16TiXmlDeclaration6AcceptEP12TiXmlVisit
 803              		.align 2
 804              		.globl _ZNK12TiXmlUnknown6AcceptEP12TiXmlVisitor
 805              		.type	_ZNK12TiXmlUnknown6AcceptEP12TiXmlVisitor, @function
 806              	_ZNK12TiXmlUnknown6AcceptEP12TiXmlVisitor:
 807              	.LFB1348:
 808              		.loc 2 1486 0
 809              		.cfi_startproc
 810              	.LVL76:
 811 0170 7C0802A6 		mflr 0
 812 0174 9421FFF8 		stwu 1,-8(1)
 813              	.LCFI11:
 814              		.cfi_def_cfa_offset 8
 815              		.cfi_register 65, 0
 816 0178 7C892378 		mr 9,4
 817 017c 9001000C 		stw 0,12(1)
 818              		.loc 2 1487 0
 819 0180 81640000 		lwz 11,0(4)
 820              		.loc 2 1486 0
 821 0184 7C641B78 		mr 4,3
 822              	.LVL77:
 823              		.loc 2 1487 0
 824 0188 7D234B78 		mr 3,9
 825              	.LVL78:
 826 018c 800B0024 		lwz 0,36(11)
 827              		.cfi_offset 65, 4
 828 0190 7C0903A6 		mtctr 0
 829 0194 4E800421 		bctrl
 830              	.LVL79:
 831              		.loc 2 1488 0
 832 0198 8001000C 		lwz 0,12(1)
 833 019c 38210008 		addi 1,1,8
 834              	.LCFI12:
 835              		.cfi_def_cfa_offset 0
 836 01a0 7C0803A6 		mtlr 0
 837 01a4 4E800020 		blr
 838              		.cfi_endproc
 839              	.LFE1348:
 840              		.size	_ZNK12TiXmlUnknown6AcceptEP12TiXmlVisitor, .-_ZNK12TiXmlUnknown6AcceptEP12TiXmlVisitor
 841              		.align 2
 842              		.globl _ZN12TiXmlPrinter10VisitEnterERK13TiXmlDocument
 843              		.type	_ZN12TiXmlPrinter10VisitEnterERK13TiXmlDocument, @function
 844              	_ZN12TiXmlPrinter10VisitEnterERK13TiXmlDocument:
 845              	.LFB1377:
 846              		.loc 2 1766 0
 847              		.cfi_startproc
 848              	.LVL80:
 849              		.loc 2 1768 0
 850 01a8 38600001 		li 3,1
 851              	.LVL81:
 852 01ac 4E800020 		blr
 853              		.cfi_endproc
 854              	.LFE1377:
 855              		.size	_ZN12TiXmlPrinter10VisitEnterERK13TiXmlDocument, .-_ZN12TiXmlPrinter10VisitEnterERK13TiXmlDo
 856              		.align 2
 857              		.globl _ZN12TiXmlPrinter9VisitExitERK13TiXmlDocument
 858              		.type	_ZN12TiXmlPrinter9VisitExitERK13TiXmlDocument, @function
 859              	_ZN12TiXmlPrinter9VisitExitERK13TiXmlDocument:
 860              	.LFB1378:
 861              		.loc 2 1771 0
 862              		.cfi_startproc
 863              	.LVL82:
 864              		.loc 2 1773 0
 865 01b0 38600001 		li 3,1
 866              	.LVL83:
 867 01b4 4E800020 		blr
 868              		.cfi_endproc
 869              	.LFE1378:
 870              		.size	_ZN12TiXmlPrinter9VisitExitERK13TiXmlDocument, .-_ZN12TiXmlPrinter9VisitExitERK13TiXmlDocume
 871              		.section	.text._ZN9TiXmlBaseD0Ev,"axG",@progbits,_ZN9TiXmlBaseD5Ev,comdat
 872              		.align 2
 873              		.weak	_ZN9TiXmlBaseD0Ev
 874              		.type	_ZN9TiXmlBaseD0Ev, @function
 875              	_ZN9TiXmlBaseD0Ev:
 876              	.LFB1002:
 877              		.loc 1 204 0
 878              		.cfi_startproc
 879              	.LVL84:
 880 0000 7C0802A6 		mflr 0
 881 0004 9421FFF8 		stwu 1,-8(1)
 882              	.LCFI13:
 883              		.cfi_def_cfa_offset 8
 884              		.cfi_register 65, 0
 885              	.LBB2015:
 886              	.LBB2016:
 887              	.LBB2017:
 888 0008 3D200000 		lis 9,_ZTV9TiXmlBase+8@ha
 889              	.LBE2017:
 890              	.LBE2016:
 891              	.LBE2015:
 892 000c 9001000C 		stw 0,12(1)
 893              	.LBB2020:
 894              	.LBB2019:
 895              	.LBB2018:
 896              		.loc 1 204 0
 897 0010 38090008 		la 0,_ZTV9TiXmlBase+8@l(9)
 898              		.cfi_offset 65, 4
 899 0014 90030000 		stw 0,0(3)
 900              	.LBE2018:
 901              	.LBE2019:
 902              	.LBE2020:
 903 0018 48000001 		bl _ZdlPv
 904              	.LVL85:
 905 001c 8001000C 		lwz 0,12(1)
 906 0020 38210008 		addi 1,1,8
 907              	.LCFI14:
 908              		.cfi_def_cfa_offset 0
 909 0024 7C0803A6 		mtlr 0
 910 0028 4E800020 		blr
 911              		.cfi_endproc
 912              	.LFE1002:
 913              		.size	_ZN9TiXmlBaseD0Ev, .-_ZN9TiXmlBaseD0Ev
 914              		.section	.text._ZN12TiXmlVisitorD0Ev,"axG",@progbits,_ZN12TiXmlVisitorD5Ev,comdat
 915              		.align 2
 916              		.weak	_ZN12TiXmlVisitorD0Ev
 917              		.type	_ZN12TiXmlVisitorD0Ev, @function
 918              	_ZN12TiXmlVisitorD0Ev:
 919              	.LFB987:
 920              		.loc 1 133 0
 921              		.cfi_startproc
 922              	.LVL86:
 923 0000 7C0802A6 		mflr 0
 924 0004 9421FFF8 		stwu 1,-8(1)
 925              	.LCFI15:
 926              		.cfi_def_cfa_offset 8
 927              		.cfi_register 65, 0
 928              	.LBB2021:
 929              	.LBB2022:
 930              	.LBB2023:
 931 0008 3D200000 		lis 9,_ZTV12TiXmlVisitor+8@ha
 932              	.LBE2023:
 933              	.LBE2022:
 934              	.LBE2021:
 935 000c 9001000C 		stw 0,12(1)
 936              	.LBB2026:
 937              	.LBB2025:
 938              	.LBB2024:
 939              		.loc 1 133 0
 940 0010 38090008 		la 0,_ZTV12TiXmlVisitor+8@l(9)
 941              		.cfi_offset 65, 4
 942 0014 90030000 		stw 0,0(3)
 943              	.LBE2024:
 944              	.LBE2025:
 945              	.LBE2026:
 946 0018 48000001 		bl _ZdlPv
 947              	.LVL87:
 948 001c 8001000C 		lwz 0,12(1)
 949 0020 38210008 		addi 1,1,8
 950              	.LCFI16:
 951              		.cfi_def_cfa_offset 0
 952 0024 7C0803A6 		mtlr 0
 953 0028 4E800020 		blr
 954              		.cfi_endproc
 955              	.LFE987:
 956              		.size	_ZN12TiXmlVisitorD0Ev, .-_ZN12TiXmlVisitorD0Ev
 957              		.section	".text"
 958              		.align 2
 959              		.globl _ZNK12TiXmlUnknown5PrintEP7__sFILEi
 960              		.type	_ZNK12TiXmlUnknown5PrintEP7__sFILEi, @function
 961              	_ZNK12TiXmlUnknown5PrintEP7__sFILEi:
 962              	.LFB1346:
 963              		.loc 2 1472 0
 964              		.cfi_startproc
 965              	.LVL88:
 966 01b8 9421FFE8 		stwu 1,-24(1)
 967              	.LCFI17:
 968              		.cfi_def_cfa_offset 24
 969 01bc 7C0802A6 		mflr 0
 970 01c0 93A1000C 		stw 29,12(1)
 971              	.LBB2027:
 972              	.LBB2028:
 973              		.loc 2 1473 0
 974 01c4 7CBD2B79 		mr. 29,5
 975              		.cfi_offset 29, -12
 976              		.cfi_register 65, 0
 977              	.LBE2028:
 978              	.LBE2027:
 979              		.loc 2 1472 0
 980 01c8 93810008 		stw 28,8(1)
 981 01cc 7C7C1B78 		mr 28,3
 982              		.cfi_offset 28, -16
 983 01d0 93E10014 		stw 31,20(1)
 984 01d4 7C9F2378 		mr 31,4
 985              		.cfi_offset 31, -4
 986 01d8 9001001C 		stw 0,28(1)
 987 01dc 93C10010 		stw 30,16(1)
 988              	.LBB2030:
 989              	.LBB2029:
 990              		.loc 2 1473 0
 991 01e0 40810020 		ble- 0,.L59
 992              		.cfi_offset 30, -8
 993              		.cfi_offset 65, 4
 994 01e4 3BC00000 		li 30,0
 995              	.LVL89:
 996              	.L60:
 997              		.loc 2 1474 0 discriminator 2
 998 01e8 38600009 		li 3,9
 999 01ec 7FE4FB78 		mr 4,31
 1000              		.loc 2 1473 0 discriminator 2
 1001 01f0 3BDE0001 		addi 30,30,1
 1002              		.loc 2 1474 0 discriminator 2
 1003 01f4 48000001 		bl fputc
 1004              	.LVL90:
 1005              		.loc 2 1473 0 discriminator 2
 1006 01f8 7F9EE800 		cmpw 7,30,29
 1007 01fc 409EFFEC 		bne+ 7,.L60
 1008              	.LVL91:
 1009              	.L59:
 1010              	.LBE2029:
 1011              		.loc 2 1475 0
 1012 0200 80BC0020 		lwz 5,32(28)
 1013 0204 3C800000 		lis 4,.LC0@ha
 1014 0208 7FE3FB78 		mr 3,31
 1015 020c 38840000 		la 4,.LC0@l(4)
 1016 0210 4CC63182 		crxor 6,6,6
 1017 0214 48000001 		bl fprintf
 1018              	.LBE2030:
 1019              		.loc 2 1476 0
 1020 0218 8001001C 		lwz 0,28(1)
 1021 021c 83810008 		lwz 28,8(1)
 1022              	.LVL92:
 1023 0220 7C0803A6 		mtlr 0
 1024 0224 83A1000C 		lwz 29,12(1)
 1025              	.LVL93:
 1026 0228 83C10010 		lwz 30,16(1)
 1027 022c 83E10014 		lwz 31,20(1)
 1028              	.LVL94:
 1029 0230 38210018 		addi 1,1,24
 1030              	.LCFI18:
 1031              		.cfi_def_cfa_offset 0
 1032              		.cfi_restore 31
 1033              		.cfi_restore 30
 1034              		.cfi_restore 29
 1035              		.cfi_restore 28
 1036 0234 4E800020 		blr
 1037              		.cfi_endproc
 1038              	.LFE1346:
 1039              		.size	_ZNK12TiXmlUnknown5PrintEP7__sFILEi, .-_ZNK12TiXmlUnknown5PrintEP7__sFILEi
 1040              		.align 2
 1041              		.globl _ZNK12TiXmlElement5PrintEP7__sFILEi
 1042              		.type	_ZNK12TiXmlElement5PrintEP7__sFILEi, @function
 1043              	_ZNK12TiXmlElement5PrintEP7__sFILEi:
 1044              	.LFB1283:
 1045              		.loc 2 800 0
 1046              		.cfi_startproc
 1047              	.LVL95:
 1048 0238 9421FFE0 		stwu 1,-32(1)
 1049              	.LCFI19:
 1050              		.cfi_def_cfa_offset 32
 1051 023c 7D800026 		mfcr 12
 1052 0240 7C0802A6 		mflr 0
 1053 0244 93C10018 		stw 30,24(1)
 1054              	.LBB2031:
 1055              		.loc 2 802 0
 1056 0248 7C9E2379 		mr. 30,4
 1057              		.cfi_offset 30, -8
 1058              		.cfi_register 65, 0
 1059              		.cfi_register 70, 12
 1060              	.LBE2031:
 1061              		.loc 2 800 0
 1062 024c 93810010 		stw 28,16(1)
 1063 0250 7C7C1B78 		mr 28,3
 1064              		.cfi_offset 28, -16
 1065 0254 93A10014 		stw 29,20(1)
 1066 0258 7CBD2B78 		mr 29,5
 1067              		.cfi_offset 29, -12
 1068 025c 90010024 		stw 0,36(1)
 1069 0260 9361000C 		stw 27,12(1)
 1070 0264 93E1001C 		stw 31,28(1)
 1071 0268 91810008 		stw 12,8(1)
 1072              	.LBB2042:
 1073              		.loc 2 802 0
 1074 026c 418201FC 		beq- 0,.L63
 1075              		.cfi_offset 70, -24
 1076              		.cfi_offset 31, -4
 1077              		.cfi_offset 27, -20
 1078              		.cfi_offset 65, 4
 1079              	.LVL96:
 1080              		.loc 2 803 0 discriminator 1
 1081 0270 2E050000 		cmpwi 4,5,0
 1082 0274 3BE00000 		li 31,0
 1083 0278 4091001C 		ble- 4,.L65
 1084              	.LVL97:
 1085              	.L79:
 1086              		.loc 2 804 0 discriminator 2
 1087 027c 38600009 		li 3,9
 1088 0280 7FC4F378 		mr 4,30
 1089              		.loc 2 803 0 discriminator 2
 1090 0284 3BFF0001 		addi 31,31,1
 1091              		.loc 2 804 0 discriminator 2
 1092 0288 48000001 		bl fputc
 1093              	.LVL98:
 1094              		.loc 2 803 0 discriminator 2
 1095 028c 7F9FE800 		cmpw 7,31,29
 1096 0290 409EFFEC 		bne+ 7,.L79
 1097              	.LVL99:
 1098              	.L65:
 1099              		.loc 2 807 0
 1100 0294 80BC0020 		lwz 5,32(28)
 1101 0298 3C800000 		lis 4,.LC3@ha
 1102 029c 7FC3F378 		mr 3,30
 1103 02a0 38840060 		la 4,.LC3@l(4)
 1104 02a4 4CC63182 		crxor 6,6,6
 1105 02a8 48000001 		bl fprintf
 1106              	.LVL100:
 1107              	.LBB2032:
 1108              	.LBB2033:
 1109              		.loc 1 914 0
 1110 02ac 83FC004C 		lwz 31,76(28)
 1111 02b0 381C002C 		addi 0,28,44
 1112 02b4 7F9F0000 		cmpw 7,31,0
 1113 02b8 419E0058 		beq- 7,.L66
 1114              	.LVL101:
 1115              	.LBE2033:
 1116              	.LBE2032:
 1117              		.loc 2 810 0 discriminator 1
 1118 02bc 2F9F0000 		cmpwi 7,31,0
 1119 02c0 419E0050 		beq- 7,.L66
 1120              	.LVL102:
 1121              	.L84:
 1122              		.loc 2 812 0 discriminator 2
 1123 02c4 7FC4F378 		mr 4,30
 1124 02c8 38600020 		li 3,32
 1125 02cc 48000001 		bl fputc
 1126              		.loc 2 813 0 discriminator 2
 1127 02d0 813F0000 		lwz 9,0(31)
 1128 02d4 7FE3FB78 		mr 3,31
 1129 02d8 7FC4F378 		mr 4,30
 1130 02dc 80090008 		lwz 0,8(9)
 1131 02e0 7FA5EB78 		mr 5,29
 1132 02e4 7C0903A6 		mtctr 0
 1133 02e8 4E800421 		bctrl
 1134              	.LVL103:
 1135              	.LBB2034:
 1136              	.LBB2035:
 1137              		.loc 2 1177 0 discriminator 2
 1138 02ec 83FF0020 		lwz 31,32(31)
 1139              	.LVL104:
 1140              	.LBB2036:
 1141              	.LBB2037:
 1142              	.LBB2038:
 1143              		.file 3 "d:\\devkitpro\\devkitppc\\bin\\../lib/gcc/powerpc-eabi/4.6.3/../../../../powerpc-eabi/inc
 1144              		.loc 3 711 0 discriminator 2
 1145 02f0 813F0018 		lwz 9,24(31)
 1146              	.LBE2038:
 1147              	.LBE2037:
 1148              	.LBE2036:
 1149              		.loc 2 1177 0 discriminator 2
 1150 02f4 8009FFF4 		lwz 0,-12(9)
 1151 02f8 2F800000 		cmpwi 7,0,0
 1152 02fc 40BEFFC8 		bne- 7,.L84
 1153              	.LVL105:
 1154              	.LBB2039:
 1155              	.LBB2040:
 1156              	.LBB2041:
 1157              		.loc 3 711 0
 1158 0300 813F0014 		lwz 9,20(31)
 1159              	.LBE2041:
 1160              	.LBE2040:
 1161              	.LBE2039:
 1162              		.loc 2 1177 0
 1163 0304 8009FFF4 		lwz 0,-12(9)
 1164 0308 2F800000 		cmpwi 7,0,0
 1165 030c 40BEFFB8 		bne- 7,.L84
 1166              	.LVL106:
 1167              	.L66:
 1168              	.LBE2035:
 1169              	.LBE2034:
 1170              		.loc 2 821 0
 1171 0310 807C0018 		lwz 3,24(28)
 1172 0314 2F830000 		cmpwi 7,3,0
 1173 0318 419E0134 		beq- 7,.L85
 1174              		.loc 2 825 0
 1175 031c 801C001C 		lwz 0,28(28)
 1176 0320 7F830000 		cmpw 7,3,0
 1177 0324 419E00E4 		beq- 7,.L86
 1178              	.L71:
 1179              		.loc 2 833 0
 1180 0328 3860003E 		li 3,62
 1181 032c 7FC4F378 		mr 4,30
 1182 0330 48000001 		bl fputc
 1183              		.loc 2 835 0
 1184 0334 83FC0018 		lwz 31,24(28)
 1185              	.LVL107:
 1186 0338 3B7D0001 		addi 27,29,1
 1187 033c 2F9F0000 		cmpwi 7,31,0
 1188 0340 419E0048 		beq- 7,.L76
 1189              	.LVL108:
 1190              	.L73:
 1191              		.loc 2 837 0
 1192 0344 813F0000 		lwz 9,0(31)
 1193 0348 7FE3FB78 		mr 3,31
 1194 034c 80090038 		lwz 0,56(9)
 1195 0350 7C0903A6 		mtctr 0
 1196 0354 4E800421 		bctrl
 1197 0358 2F830000 		cmpwi 7,3,0
 1198 035c 419E009C 		beq- 7,.L87
 1199              	.L72:
 1200              		.loc 2 841 0
 1201 0360 813F0000 		lwz 9,0(31)
 1202 0364 7FE3FB78 		mr 3,31
 1203 0368 7FC4F378 		mr 4,30
 1204 036c 7F65DB78 		mr 5,27
 1205 0370 80090008 		lwz 0,8(9)
 1206 0374 7C0903A6 		mtctr 0
 1207 0378 4E800421 		bctrl
 1208              		.loc 2 1894 0
 1209 037c 83FF0028 		lwz 31,40(31)
 1210              	.LVL109:
 1211              		.loc 2 835 0
 1212 0380 2F9F0000 		cmpwi 7,31,0
 1213 0384 409EFFC0 		bne+ 7,.L73
 1214              	.L76:
 1215              		.loc 2 843 0
 1216 0388 3860000A 		li 3,10
 1217 038c 7FC4F378 		mr 4,30
 1218 0390 48000001 		bl fputc
 1219              	.LVL110:
 1220              		.loc 2 844 0
 1221 0394 40910020 		ble- 4,.L74
 1222 0398 3BE00000 		li 31,0
 1223              	.LVL111:
 1224              	.L75:
 1225              		.loc 2 845 0 discriminator 2
 1226 039c 38600009 		li 3,9
 1227 03a0 7FC4F378 		mr 4,30
 1228              		.loc 2 844 0 discriminator 2
 1229 03a4 3BFF0001 		addi 31,31,1
 1230              		.loc 2 845 0 discriminator 2
 1231 03a8 48000001 		bl fputc
 1232              	.LVL112:
 1233              		.loc 2 844 0 discriminator 2
 1234 03ac 7F9FE800 		cmpw 7,31,29
 1235 03b0 409EFFEC 		bne+ 7,.L75
 1236              	.LVL113:
 1237              	.L74:
 1238              		.loc 2 847 0
 1239 03b4 3C800000 		lis 4,.LC5@ha
 1240 03b8 80BC0020 		lwz 5,32(28)
 1241 03bc 7FC3F378 		mr 3,30
 1242 03c0 38840068 		la 4,.LC5@l(4)
 1243 03c4 4CC63182 		crxor 6,6,6
 1244 03c8 48000001 		bl fprintf
 1245              	.LVL114:
 1246              	.L62:
 1247              	.LBE2042:
 1248              		.loc 2 849 0
 1249 03cc 80010024 		lwz 0,36(1)
 1250 03d0 81810008 		lwz 12,8(1)
 1251 03d4 7C0803A6 		mtlr 0
 1252 03d8 8361000C 		lwz 27,12(1)
 1253 03dc 83810010 		lwz 28,16(1)
 1254              	.LVL115:
 1255 03e0 7D808120 		mtcrf 8,12
 1256 03e4 83A10014 		lwz 29,20(1)
 1257              	.LVL116:
 1258 03e8 83C10018 		lwz 30,24(1)
 1259              	.LVL117:
 1260 03ec 83E1001C 		lwz 31,28(1)
 1261 03f0 38210020 		addi 1,1,32
 1262              		.cfi_remember_state
 1263              	.LCFI20:
 1264              		.cfi_def_cfa_offset 0
 1265              		.cfi_restore 70
 1266              		.cfi_restore 31
 1267              		.cfi_restore 30
 1268              		.cfi_restore 29
 1269              		.cfi_restore 28
 1270              		.cfi_restore 27
 1271 03f4 4E800020 		blr
 1272              	.LVL118:
 1273              	.L87:
 1274              	.LCFI21:
 1275              		.cfi_restore_state
 1276              	.LBB2043:
 1277              		.loc 2 839 0
 1278 03f8 7FC4F378 		mr 4,30
 1279 03fc 3860000A 		li 3,10
 1280 0400 48000001 		bl fputc
 1281 0404 4BFFFF5C 		b .L72
 1282              	.LVL119:
 1283              	.L86:
 1284              		.loc 2 825 0 discriminator 1
 1285 0408 81230000 		lwz 9,0(3)
 1286 040c 80090038 		lwz 0,56(9)
 1287 0410 7C0903A6 		mtctr 0
 1288 0414 4E800421 		bctrl
 1289 0418 2F830000 		cmpwi 7,3,0
 1290 041c 41BEFF0C 		beq- 7,.L71
 1291              		.loc 2 827 0 discriminator 4
 1292 0420 7FC4F378 		mr 4,30
 1293 0424 3860003E 		li 3,62
 1294 0428 48000001 		bl fputc
 1295              		.loc 2 828 0 discriminator 4
 1296 042c 807C0018 		lwz 3,24(28)
 1297 0430 7FC4F378 		mr 4,30
 1298 0434 38BD0001 		addi 5,29,1
 1299 0438 81230000 		lwz 9,0(3)
 1300 043c 80090008 		lwz 0,8(9)
 1301 0440 7C0903A6 		mtctr 0
 1302 0444 4E800421 		bctrl
 1303              	.LVL120:
 1304 0448 4BFFFF6C 		b .L74
 1305              	.LVL121:
 1306              	.L85:
 1307              		.loc 2 823 0
 1308 044c 3C600000 		lis 3,.LC4@ha
 1309 0450 38800001 		li 4,1
 1310 0454 38A00003 		li 5,3
 1311 0458 7FC6F378 		mr 6,30
 1312 045c 38630064 		la 3,.LC4@l(3)
 1313 0460 48000001 		bl fwrite
 1314 0464 4BFFFF68 		b .L62
 1315              	.LVL122:
 1316              	.L63:
 1317              		.loc 2 802 0 discriminator 1
 1318 0468 3C600000 		lis 3,.LC1@ha
 1319 046c 3CA00000 		lis 5,.LANCHOR0@ha
 1320 0470 3CC00000 		lis 6,.LC2@ha
 1321 0474 38630008 		la 3,.LC1@l(3)
 1322 0478 38800322 		li 4,802
 1323 047c 38A50000 		la 5,.LANCHOR0@l(5)
 1324 0480 38C60058 		la 6,.LC2@l(6)
 1325 0484 48000001 		bl __assert_func
 1326              	.LBE2043:
 1327              		.cfi_endproc
 1328              	.LFE1283:
 1329              		.size	_ZNK12TiXmlElement5PrintEP7__sFILEi, .-_ZNK12TiXmlElement5PrintEP7__sFILEi
 1330              		.align 2
 1331              		.globl _ZNK12TiXmlComment5PrintEP7__sFILEi
 1332              		.type	_ZNK12TiXmlComment5PrintEP7__sFILEi, @function
 1333              	_ZNK12TiXmlComment5PrintEP7__sFILEi:
 1334              	.LFB1324:
 1335              		.loc 2 1301 0
 1336              		.cfi_startproc
 1337              	.LVL123:
 1338 0488 9421FFE8 		stwu 1,-24(1)
 1339              	.LCFI22:
 1340              		.cfi_def_cfa_offset 24
 1341 048c 7C0802A6 		mflr 0
 1342 0490 93E10014 		stw 31,20(1)
 1343              	.LBB2056:
 1344              		.loc 2 1302 0
 1345 0494 7C9F2379 		mr. 31,4
 1346              		.cfi_offset 31, -4
 1347              		.cfi_register 65, 0
 1348              	.LBE2056:
 1349              		.loc 2 1301 0
 1350 0498 93810008 		stw 28,8(1)
 1351 049c 7CBC2B78 		mr 28,5
 1352              		.cfi_offset 28, -16
 1353 04a0 93C10010 		stw 30,16(1)
 1354 04a4 7C7E1B78 		mr 30,3
 1355              		.cfi_offset 30, -8
 1356 04a8 9001001C 		stw 0,28(1)
 1357 04ac 93A1000C 		stw 29,12(1)
 1358              	.LBB2058:
 1359              		.loc 2 1302 0
 1360 04b0 41820060 		beq- 0,.L89
 1361              		.cfi_offset 29, -12
 1362              		.cfi_offset 65, 4
 1363              	.LVL124:
 1364              	.LBB2057:
 1365              		.loc 2 1303 0 discriminator 1
 1366 04b4 2F850000 		cmpwi 7,5,0
 1367 04b8 3BA00000 		li 29,0
 1368 04bc 409D001C 		ble- 7,.L91
 1369              	.LVL125:
 1370              	.L93:
 1371              		.loc 2 1305 0 discriminator 2
 1372 04c0 38600009 		li 3,9
 1373 04c4 7FE4FB78 		mr 4,31
 1374              		.loc 2 1303 0 discriminator 2
 1375 04c8 3BBD0001 		addi 29,29,1
 1376              		.loc 2 1305 0 discriminator 2
 1377 04cc 48000001 		bl fputc
 1378              	.LVL126:
 1379              		.loc 2 1303 0 discriminator 2
 1380 04d0 7F9DE000 		cmpw 7,29,28
 1381 04d4 409EFFEC 		bne+ 7,.L93
 1382              	.LVL127:
 1383              	.L91:
 1384              	.LBE2057:
 1385              		.loc 2 1307 0
 1386 04d8 80BE0020 		lwz 5,32(30)
 1387 04dc 3C800000 		lis 4,.LC6@ha
 1388 04e0 7FE3FB78 		mr 3,31
 1389 04e4 38840070 		la 4,.LC6@l(4)
 1390 04e8 4CC63182 		crxor 6,6,6
 1391 04ec 48000001 		bl fprintf
 1392              	.LBE2058:
 1393              		.loc 2 1308 0
 1394 04f0 8001001C 		lwz 0,28(1)
 1395 04f4 83810008 		lwz 28,8(1)
 1396              	.LVL128:
 1397 04f8 7C0803A6 		mtlr 0
 1398 04fc 83A1000C 		lwz 29,12(1)
 1399 0500 83C10010 		lwz 30,16(1)
 1400              	.LVL129:
 1401 0504 83E10014 		lwz 31,20(1)
 1402              	.LVL130:
 1403 0508 38210018 		addi 1,1,24
 1404              		.cfi_remember_state
 1405              	.LCFI23:
 1406              		.cfi_def_cfa_offset 0
 1407              		.cfi_restore 31
 1408              		.cfi_restore 30
 1409              		.cfi_restore 29
 1410              		.cfi_restore 28
 1411 050c 4E800020 		blr
 1412              	.LVL131:
 1413              	.L89:
 1414              	.LCFI24:
 1415              		.cfi_restore_state
 1416              	.LBB2059:
 1417              	.LBB2060:
 1418              	.LBB2061:
 1419              		.loc 2 1302 0
 1420 0510 3CA00000 		lis 5,.LANCHOR0@ha
 1421              	.LVL132:
 1422 0514 3C600000 		lis 3,.LC1@ha
 1423              	.LVL133:
 1424 0518 38A50000 		la 5,.LANCHOR0@l(5)
 1425 051c 3CC00000 		lis 6,.LC2@ha
 1426 0520 38630008 		la 3,.LC1@l(3)
 1427 0524 38800516 		li 4,1302
 1428              	.LVL134:
 1429 0528 38A50034 		addi 5,5,52
 1430 052c 38C60058 		la 6,.LC2@l(6)
 1431 0530 48000001 		bl __assert_func
 1432              	.LBE2061:
 1433              	.LBE2060:
 1434              	.LBE2059:
 1435              		.cfi_endproc
 1436              	.LFE1324:
 1437              		.size	_ZNK12TiXmlComment5PrintEP7__sFILEi, .-_ZNK12TiXmlComment5PrintEP7__sFILEi
 1438              		.align 2
 1439              		.type	_Z41__static_initialization_and_destruction_0ii.constprop.26, @function
 1440              	_Z41__static_initialization_and_destruction_0ii.constprop.26:
 1441              	.LFB1480:
 1442              		.loc 2 1894 0
 1443              		.cfi_startproc
 1444              	.LVL135:
 1445 0534 2F830001 		cmpwi 7,3,1
 1446 0538 7C0802A6 		mflr 0
 1447 053c 9421FFF8 		stwu 1,-8(1)
 1448              	.LCFI25:
 1449              		.cfi_def_cfa_offset 8
 1450              		.cfi_register 65, 0
 1451 0540 9001000C 		stw 0,12(1)
 1452              		.loc 2 1894 0
 1453 0544 419E0028 		beq- 7,.L98
 1454              		.cfi_offset 65, 4
 1455              		.file 4 "d:\\devkitpro\\devkitppc\\bin\\../lib/gcc/powerpc-eabi/4.6.3/../../../../powerpc-eabi/inc
 1456              		.loc 4 75 0
 1457 0548 2F830000 		cmpwi 7,3,0
 1458 054c 409E0010 		bne- 7,.L95
 1459              	.LVL136:
 1460              	.LBB2064:
 1461              	.LBB2065:
 1462 0550 3C600000 		lis 3,.LANCHOR1@ha
 1463              	.LVL137:
 1464 0554 38630000 		la 3,.LANCHOR1@l(3)
 1465 0558 48000001 		bl _ZNSt8ios_base4InitD1Ev
 1466              	.LVL138:
 1467              	.L95:
 1468              	.LBE2065:
 1469              	.LBE2064:
 1470              		.loc 2 1894 0
 1471 055c 8001000C 		lwz 0,12(1)
 1472 0560 38210008 		addi 1,1,8
 1473              		.cfi_remember_state
 1474              	.LCFI26:
 1475              		.cfi_def_cfa_offset 0
 1476 0564 7C0803A6 		mtlr 0
 1477 0568 4E800020 		blr
 1478              	.LVL139:
 1479              	.L98:
 1480              	.LCFI27:
 1481              		.cfi_restore_state
 1482              		.loc 4 75 0
 1483 056c 3C600000 		lis 3,.LANCHOR1@ha
 1484              	.LVL140:
 1485 0570 38630000 		la 3,.LANCHOR1@l(3)
 1486 0574 48000001 		bl _ZNSt8ios_base4InitC1Ev
 1487 0578 4BFFFFE4 		b .L95
 1488              		.cfi_endproc
 1489              	.LFE1480:
 1490              		.size	_Z41__static_initialization_and_destruction_0ii.constprop.26, .-_Z41__static_initialization_
 1491              		.align 2
 1492              		.type	_ZN9TiXmlBase12EncodeStringERKSsPSs.constprop.30, @function
 1493              	_ZN9TiXmlBase12EncodeStringERKSsPSs.constprop.30:
 1494              	.LFB1476:
 1495              		.loc 2 51 0
 1496              		.cfi_startproc
 1497              	.LVL141:
 1498 057c 7C0802A6 		mflr 0
 1499 0580 9421FFC0 		stwu 1,-64(1)
 1500              	.LCFI28:
 1501              		.cfi_def_cfa_offset 64
 1502              		.cfi_register 65, 0
 1503 0584 9361002C 		stw 27,44(1)
 1504 0588 90010044 		stw 0,68(1)
 1505 058c 93810030 		stw 28,48(1)
 1506              	.LBB2146:
 1507              	.LBB2147:
 1508              	.LBB2148:
 1509              	.LBB2149:
 1510              		.loc 2 53 0
 1511 0590 81230000 		lwz 9,0(3)
 1512              	.LBE2149:
 1513              	.LBE2148:
 1514              	.LBE2147:
 1515              	.LBE2146:
 1516              		.loc 2 51 0
 1517 0594 93A10034 		stw 29,52(1)
 1518 0598 7C7D1B78 		mr 29,3
 1519              		.cfi_offset 29, -12
 1520              		.cfi_offset 28, -16
 1521              		.cfi_offset 65, 4
 1522              		.cfi_offset 27, -20
 1523              	.LBB2213:
 1524              	.LBB2209:
 1525              	.LBB2205:
 1526              	.LBB2196:
 1527              		.loc 2 53 0
 1528 059c 8169FFF4 		lwz 11,-12(9)
 1529              	.LBE2196:
 1530              	.LBE2205:
 1531              	.LBE2209:
 1532              	.LBE2213:
 1533              		.loc 2 51 0
 1534 05a0 93C10038 		stw 30,56(1)
 1535 05a4 7C9E2378 		mr 30,4
 1536              		.cfi_offset 30, -8
 1537 05a8 93E1003C 		stw 31,60(1)
 1538              	.LBB2214:
 1539              	.LBB2210:
 1540              	.LBB2206:
 1541              	.LBB2197:
 1542              		.loc 2 53 0
 1543 05ac 3BE00000 		li 31,0
 1544              		.cfi_offset 31, -4
 1545              	.LVL142:
 1546              	.L117:
 1547              	.LBE2197:
 1548              	.LBE2206:
 1549              	.LBE2210:
 1550              		.loc 2 55 0
 1551 05b0 7F9F5800 		cmpw 7,31,11
 1552 05b4 409C0090 		bge- 7,.L120
 1553              	.L116:
 1554              	.LVL143:
 1555              	.LBB2211:
 1556              		.loc 2 57 0
 1557 05b8 7F89F8AE 		lbzx 28,9,31
 1558              	.LVL144:
 1559              	.LBB2207:
 1560              		.loc 2 59 0
 1561 05bc 2F9C0026 		cmpwi 7,28,38
 1562 05c0 419E00A8 		beq- 7,.L121
 1563              	.LVL145:
 1564              	.LBB2198:
 1565              	.LBB2150:
 1566              		.loc 2 87 0
 1567 05c4 2F9C003C 		cmpwi 7,28,60
 1568 05c8 419E0190 		beq- 7,.L122
 1569              	.LBB2151:
 1570              		.loc 2 92 0
 1571 05cc 2F9C003E 		cmpwi 7,28,62
 1572 05d0 419E01B0 		beq- 7,.L123
 1573              	.LBB2152:
 1574              		.loc 2 97 0
 1575 05d4 2F9C0022 		cmpwi 7,28,34
 1576 05d8 419E01BC 		beq- 7,.L124
 1577              	.LBB2153:
 1578              		.loc 2 102 0
 1579 05dc 2F9C0027 		cmpwi 7,28,39
 1580 05e0 419E01C8 		beq- 7,.L125
 1581              	.LBB2154:
 1582              		.loc 2 107 0
 1583 05e4 2B9C001F 		cmplwi 7,28,31
 1584 05e8 419D00B8 		bgt- 7,.L112
 1585 05ec 2F9C000A 		cmpwi 7,28,10
 1586 05f0 419E00B0 		beq- 7,.L112
 1587 05f4 2F9C000D 		cmpwi 7,28,13
 1588 05f8 419E00A8 		beq- 7,.L112
 1589              	.LBB2155:
 1590              		.loc 2 114 0
 1591 05fc 3CA00000 		lis 5,.LC7@ha
 1592 0600 7F86E378 		mr 6,28
 1593 0604 38800020 		li 4,32
 1594 0608 38A5007C 		la 5,.LC7@l(5)
 1595 060c 38610008 		addi 3,1,8
 1596              		.loc 2 122 0
 1597 0610 3BFF0001 		addi 31,31,1
 1598              	.LVL146:
 1599              		.loc 2 114 0
 1600 0614 4CC63182 		crxor 6,6,6
 1601 0618 48000001 		bl snprintf
 1602              		.loc 2 121 0
 1603 061c 38610008 		addi 3,1,8
 1604 0620 48000001 		bl strlen
 1605 0624 38810008 		addi 4,1,8
 1606 0628 7C651B78 		mr 5,3
 1607 062c 7FC3F378 		mr 3,30
 1608 0630 48000001 		bl _ZNSs6appendEPKcj
 1609              	.LVL147:
 1610              		.loc 2 122 0
 1611 0634 813D0000 		lwz 9,0(29)
 1612 0638 8169FFF4 		lwz 11,-12(9)
 1613              	.LBE2155:
 1614              	.LBE2154:
 1615              	.LBE2153:
 1616              	.LBE2152:
 1617              	.LBE2151:
 1618              	.LBE2150:
 1619              	.LBE2198:
 1620              	.LBE2207:
 1621              	.LBE2211:
 1622              		.loc 2 55 0
 1623 063c 7F9F5800 		cmpw 7,31,11
 1624 0640 419CFF78 		blt+ 7,.L116
 1625              	.LVL148:
 1626              	.L120:
 1627              	.LBE2214:
 1628              		.loc 2 132 0
 1629 0644 80010044 		lwz 0,68(1)
 1630 0648 8361002C 		lwz 27,44(1)
 1631 064c 7C0803A6 		mtlr 0
 1632 0650 83810030 		lwz 28,48(1)
 1633 0654 83A10034 		lwz 29,52(1)
 1634              	.LVL149:
 1635 0658 83C10038 		lwz 30,56(1)
 1636              	.LVL150:
 1637 065c 83E1003C 		lwz 31,60(1)
 1638              	.LVL151:
 1639 0660 38210040 		addi 1,1,64
 1640              		.cfi_remember_state
 1641              	.LCFI29:
 1642              		.cfi_def_cfa_offset 0
 1643              		.cfi_restore 31
 1644              		.cfi_restore 30
 1645              		.cfi_restore 29
 1646              		.cfi_restore 28
 1647              		.cfi_restore 27
 1648 0664 4E800020 		blr
 1649              	.LVL152:
 1650              	.L121:
 1651              	.LCFI30:
 1652              		.cfi_restore_state
 1653              	.LBB2215:
 1654              	.LBB2212:
 1655              	.LBB2208:
 1656              		.loc 2 59 0
 1657 0668 380BFFFE 		addi 0,11,-2
 1658              		.loc 2 74 0
 1659 066c 3B9F0001 		addi 28,31,1
 1660              	.LVL153:
 1661              		.loc 2 59 0
 1662 0670 7F9F0000 		cmpw 7,31,0
 1663 0674 419C0090 		blt- 7,.L126
 1664              	.L103:
 1665              	.LBB2199:
 1666              		.loc 2 84 0
 1667 0678 3D600000 		lis 11,_ZN9TiXmlBase6entityE@ha
 1668 067c 7FC3F378 		mr 3,30
 1669 0680 392B0000 		la 9,_ZN9TiXmlBase6entityE@l(11)
 1670 0684 808B0000 		lwz 4,_ZN9TiXmlBase6entityE@l(11)
 1671 0688 80A90004 		lwz 5,4(9)
 1672              		.loc 2 85 0
 1673 068c 7F9FE378 		mr 31,28
 1674              	.LVL154:
 1675              		.loc 2 84 0
 1676 0690 48000001 		bl _ZNSs6appendEPKcj
 1677              	.LVL155:
 1678 0694 813D0000 		lwz 9,0(29)
 1679 0698 8169FFF4 		lwz 11,-12(9)
 1680 069c 4BFFFF14 		b .L117
 1681              	.LVL156:
 1682              	.L112:
 1683              	.LBB2194:
 1684              	.LBB2192:
 1685              	.LBB2189:
 1686              	.LBB2186:
 1687              	.LBB2184:
 1688              	.LBB2156:
 1689              	.LBB2157:
 1690              	.LBB2158:
 1691              	.LBB2159:
 1692              	.LBB2160:
 1693              	.LBB2161:
 1694              	.LBB2162:
 1695              	.LBB2163:
 1696              		.loc 3 288 0
 1697 06a0 813E0000 		lwz 9,0(30)
 1698              	.LBE2163:
 1699              	.LBE2162:
 1700              	.LBE2161:
 1701              		.loc 3 711 0
 1702 06a4 8169FFF4 		lwz 11,-12(9)
 1703              	.LBE2160:
 1704              	.LBE2159:
 1705              		.loc 3 1046 0
 1706 06a8 8009FFF8 		lwz 0,-8(9)
 1707              		.loc 3 1045 0
 1708 06ac 3B6B0001 		addi 27,11,1
 1709              	.LVL157:
 1710              		.loc 3 1046 0
 1711 06b0 7F9B0040 		cmplw 7,27,0
 1712 06b4 419D0010 		bgt- 7,.L113
 1713              	.LVL158:
 1714 06b8 8009FFFC 		lwz 0,-4(9)
 1715 06bc 2F800000 		cmpwi 7,0,0
 1716 06c0 409D0018 		ble- 7,.L114
 1717              	.L113:
 1718              		.loc 3 1047 0
 1719 06c4 7FC3F378 		mr 3,30
 1720 06c8 7F64DB78 		mr 4,27
 1721 06cc 48000001 		bl _ZNSs7reserveEj
 1722 06d0 813E0000 		lwz 9,0(30)
 1723 06d4 8169FFF4 		lwz 11,-12(9)
 1724              	.L114:
 1725              	.LVL159:
 1726              	.LBB2164:
 1727              	.LBB2165:
 1728              		.file 5 "d:\\devkitpro\\devkitppc\\bin\\../lib/gcc/powerpc-eabi/4.6.3/../../../../powerpc-eabi/inc
 1729              		.loc 5 245 0
 1730 06d8 7F8959AE 		stbx 28,9,11
 1731              	.LVL160:
 1732              	.LBE2165:
 1733              	.LBE2164:
 1734              	.LBB2166:
 1735              	.LBB2167:
 1736              		.loc 3 205 0
 1737 06dc 3D400000 		lis 10,_ZNSs4_Rep20_S_empty_rep_storageE@ha
 1738 06e0 380A0000 		la 0,_ZNSs4_Rep20_S_empty_rep_storageE@l(10)
 1739              	.LBE2167:
 1740              	.LBE2166:
 1741              	.LBB2176:
 1742              	.LBB2177:
 1743              	.LBB2178:
 1744              		.loc 3 288 0
 1745 06e4 813E0000 		lwz 9,0(30)
 1746              	.LVL161:
 1747              	.LBE2178:
 1748              	.LBE2177:
 1749              	.LBE2176:
 1750              		.loc 3 1049 0
 1751 06e8 3969FFF4 		addi 11,9,-12
 1752              	.LBB2179:
 1753              	.LBB2174:
 1754              		.loc 3 205 0
 1755 06ec 7F8B0000 		cmpw 7,11,0
 1756 06f0 409E00CC 		bne- 7,.L127
 1757              	.L115:
 1758              	.LBE2174:
 1759              	.LBE2179:
 1760              	.LBE2158:
 1761              	.LBE2157:
 1762              	.LBE2156:
 1763              		.loc 2 129 0
 1764 06f4 813D0000 		lwz 9,0(29)
 1765 06f8 3BFF0001 		addi 31,31,1
 1766              	.LVL162:
 1767 06fc 8169FFF4 		lwz 11,-12(9)
 1768 0700 4BFFFEB0 		b .L117
 1769              	.LVL163:
 1770              	.L126:
 1771              	.LBE2184:
 1772              	.LBE2186:
 1773              	.LBE2189:
 1774              	.LBE2192:
 1775              	.LBE2194:
 1776              	.LBE2199:
 1777              		.loc 2 59 0
 1778 0704 7C09E0AE 		lbzx 0,9,28
 1779 0708 2F800023 		cmpwi 7,0,35
 1780 070c 409EFF6C 		bne+ 7,.L103
 1781              	.LVL164:
 1782 0710 7D49FA14 		add 10,9,31
 1783 0714 880A0002 		lbz 0,2(10)
 1784 0718 2F800078 		cmpwi 7,0,120
 1785 071c 409EFF5C 		bne+ 7,.L103
 1786              	.LVL165:
 1787              	.L118:
 1788              		.loc 2 74 0
 1789 0720 380BFFFF 		addi 0,11,-1
 1790              		.loc 2 76 0
 1791 0724 7C89FA14 		add 4,9,31
 1792              		.loc 2 74 0
 1793 0728 7F9F0000 		cmpw 7,31,0
 1794              		.loc 2 76 0
 1795 072c 7FC3F378 		mr 3,30
 1796 0730 38A00001 		li 5,1
 1797              		.loc 2 74 0
 1798 0734 40BCFE7C 		bge- 7,.L117
 1799              	.LVL166:
 1800              		.loc 2 76 0
 1801 0738 48000001 		bl _ZNSs6appendEPKcj
 1802              	.LBB2200:
 1803              	.LBB2201:
 1804              	.LBB2202:
 1805              	.LBB2203:
 1806              		.loc 3 288 0
 1807 073c 813D0000 		lwz 9,0(29)
 1808              	.LBE2203:
 1809              	.LBE2202:
 1810              	.LBE2201:
 1811              	.LBE2200:
 1812              		.loc 2 77 0
 1813 0740 3BFF0001 		addi 31,31,1
 1814              	.LVL167:
 1815              		.loc 2 78 0
 1816 0744 7C09F8AE 		lbzx 0,9,31
 1817 0748 8169FFF4 		lwz 11,-12(9)
 1818 074c 2F80003B 		cmpwi 7,0,59
 1819 0750 409EFFD0 		bne+ 7,.L118
 1820 0754 4BFFFE5C 		b .L117
 1821              	.LVL168:
 1822              	.L122:
 1823              	.LBB2204:
 1824              	.LBB2195:
 1825              		.loc 2 89 0
 1826 0758 3D200000 		lis 9,_ZN9TiXmlBase6entityE@ha
 1827 075c 39290000 		la 9,_ZN9TiXmlBase6entityE@l(9)
 1828 0760 8089000C 		lwz 4,12(9)
 1829 0764 80A90010 		lwz 5,16(9)
 1830              	.L119:
 1831              	.LBB2193:
 1832              	.LBB2190:
 1833              	.LBB2187:
 1834              		.loc 2 104 0
 1835 0768 7FC3F378 		mr 3,30
 1836              		.loc 2 105 0
 1837 076c 3BFF0001 		addi 31,31,1
 1838              	.LVL169:
 1839              		.loc 2 104 0
 1840 0770 48000001 		bl _ZNSs6appendEPKcj
 1841              	.LVL170:
 1842              		.loc 2 105 0
 1843 0774 813D0000 		lwz 9,0(29)
 1844 0778 8169FFF4 		lwz 11,-12(9)
 1845 077c 4BFFFE34 		b .L117
 1846              	.LVL171:
 1847              	.L123:
 1848              	.LBE2187:
 1849              	.LBE2190:
 1850              		.loc 2 94 0
 1851 0780 3D200000 		lis 9,_ZN9TiXmlBase6entityE@ha
 1852 0784 39290000 		la 9,_ZN9TiXmlBase6entityE@l(9)
 1853 0788 80890018 		lwz 4,24(9)
 1854 078c 80A9001C 		lwz 5,28(9)
 1855 0790 4BFFFFD8 		b .L119
 1856              	.L124:
 1857              	.LBB2191:
 1858              		.loc 2 99 0
 1859 0794 3D200000 		lis 9,_ZN9TiXmlBase6entityE@ha
 1860 0798 39290000 		la 9,_ZN9TiXmlBase6entityE@l(9)
 1861 079c 80890024 		lwz 4,36(9)
 1862 07a0 80A90028 		lwz 5,40(9)
 1863 07a4 4BFFFFC4 		b .L119
 1864              	.L125:
 1865              	.LBB2188:
 1866              		.loc 2 104 0
 1867 07a8 3D200000 		lis 9,_ZN9TiXmlBase6entityE@ha
 1868 07ac 39290000 		la 9,_ZN9TiXmlBase6entityE@l(9)
 1869 07b0 80890030 		lwz 4,48(9)
 1870 07b4 80A90034 		lwz 5,52(9)
 1871 07b8 4BFFFFB0 		b .L119
 1872              	.LVL172:
 1873              	.L127:
 1874              	.LBB2185:
 1875              	.LBB2183:
 1876              	.LBB2182:
 1877              	.LBB2181:
 1878              	.LBB2180:
 1879              	.LBB2175:
 1880              	.LBB2168:
 1881              	.LBB2169:
 1882              		.loc 3 199 0
 1883 07bc 38000000 		li 0,0
 1884              	.LBE2169:
 1885              	.LBE2168:
 1886              		.loc 3 209 0
 1887 07c0 9369FFF4 		stw 27,-12(9)
 1888              	.LVL173:
 1889              	.LBB2171:
 1890              	.LBB2170:
 1891              		.loc 3 199 0
 1892 07c4 9009FFFC 		stw 0,-4(9)
 1893              	.LBE2170:
 1894              	.LBE2171:
 1895              	.LBB2172:
 1896              	.LBB2173:
 1897              		.loc 5 245 0
 1898 07c8 7C09D9AE 		stbx 0,9,27
 1899 07cc 4BFFFF28 		b .L115
 1900              	.LBE2173:
 1901              	.LBE2172:
 1902              	.LBE2175:
 1903              	.LBE2180:
 1904              	.LBE2181:
 1905              	.LBE2182:
 1906              	.LBE2183:
 1907              	.LBE2185:
 1908              	.LBE2188:
 1909              	.LBE2191:
 1910              	.LBE2193:
 1911              	.LBE2195:
 1912              	.LBE2204:
 1913              	.LBE2208:
 1914              	.LBE2212:
 1915              	.LBE2215:
 1916              		.cfi_endproc
 1917              	.LFE1476:
 1918              		.size	_ZN9TiXmlBase12EncodeStringERKSsPSs.constprop.30, .-_ZN9TiXmlBase12EncodeStringERKSsPSs.cons
 1919              		.align 2
 1920              		.globl _ZN12TiXmlPrinter5VisitERK16TiXmlDeclaration
 1921              		.type	_ZN12TiXmlPrinter5VisitERK16TiXmlDeclaration, @function
 1922              	_ZN12TiXmlPrinter5VisitERK16TiXmlDeclaration:
 1923              	.LFB1382:
 1924              		.loc 2 1867 0
 1925              		.cfi_startproc
 1926              	.LVL174:
 1927 07d0 7C0802A6 		mflr 0
 1928 07d4 9421FFE0 		stwu 1,-32(1)
 1929              	.LCFI31:
 1930              		.cfi_def_cfa_offset 32
 1931              		.cfi_register 65, 0
 1932 07d8 93A10014 		stw 29,20(1)
 1933 07dc 7C9D2378 		mr 29,4
 1934              		.cfi_offset 29, -12
 1935 07e0 90010024 		stw 0,36(1)
 1936 07e4 93C10018 		stw 30,24(1)
 1937 07e8 3BC3000C 		addi 30,3,12
 1938              		.cfi_offset 30, -8
 1939              		.cfi_offset 65, 4
 1940              	.LBB2225:
 1941              	.LBB2226:
 1942              		.loc 1 1788 0
 1943 07ec 80030004 		lwz 0,4(3)
 1944              	.LBE2226:
 1945              	.LBE2225:
 1946              		.loc 2 1867 0
 1947 07f0 93E1001C 		stw 31,28(1)
 1948 07f4 7C7F1B78 		mr 31,3
 1949              		.cfi_offset 31, -4
 1950              	.LVL175:
 1951              	.LBB2231:
 1952              	.LBB2229:
 1953              		.loc 1 1788 0
 1954 07f8 2F800000 		cmpwi 7,0,0
 1955              	.LBE2229:
 1956              	.LBE2231:
 1957              		.loc 2 1867 0
 1958 07fc 9361000C 		stw 27,12(1)
 1959 0800 93810010 		stw 28,16(1)
 1960              	.LBB2232:
 1961              	.LBB2230:
 1962              		.loc 1 1788 0
 1963 0804 409D0028 		ble- 7,.L129
 1964              		.cfi_offset 28, -16
 1965              		.cfi_offset 27, -20
 1966 0808 3B800000 		li 28,0
 1967 080c 3B630010 		addi 27,3,16
 1968              	.LVL176:
 1969              	.L130:
 1970              	.LBB2227:
 1971              	.LBB2228:
 1972              		.loc 3 925 0
 1973 0810 7FC3F378 		mr 3,30
 1974 0814 7F64DB78 		mr 4,27
 1975 0818 48000001 		bl _ZNSs6appendERKSs
 1976              	.LBE2228:
 1977              	.LBE2227:
 1978              		.loc 1 1788 0
 1979 081c 801F0004 		lwz 0,4(31)
 1980 0820 3B9C0001 		addi 28,28,1
 1981              	.LVL177:
 1982 0824 7F9C0000 		cmpw 7,28,0
 1983 0828 419CFFE8 		blt+ 7,.L130
 1984              	.LVL178:
 1985              	.L129:
 1986              	.LBE2230:
 1987              	.LBE2232:
 1988              		.loc 2 1869 0
 1989 082c 813D0000 		lwz 9,0(29)
 1990 0830 7FC6F378 		mr 6,30
 1991 0834 7FA3EB78 		mr 3,29
 1992 0838 38800000 		li 4,0
 1993 083c 8009004C 		lwz 0,76(9)
 1994 0840 38A00000 		li 5,0
 1995 0844 7C0903A6 		mtctr 0
 1996 0848 4E800421 		bctrl
 1997              	.LVL179:
 1998              	.LBB2233:
 1999              	.LBB2234:
 2000              	.LBB2235:
 2001              	.LBB2236:
 2002              		.loc 3 925 0
 2003 084c 7FC3F378 		mr 3,30
 2004 0850 389F0014 		addi 4,31,20
 2005 0854 48000001 		bl _ZNSs6appendERKSs
 2006              	.LBE2236:
 2007              	.LBE2235:
 2008              	.LBE2234:
 2009              	.LBE2233:
 2010              		.loc 2 1872 0
 2011 0858 80010024 		lwz 0,36(1)
 2012 085c 8361000C 		lwz 27,12(1)
 2013 0860 38600001 		li 3,1
 2014 0864 7C0803A6 		mtlr 0
 2015 0868 83810010 		lwz 28,16(1)
 2016 086c 83A10014 		lwz 29,20(1)
 2017              	.LVL180:
 2018 0870 83C10018 		lwz 30,24(1)
 2019              	.LVL181:
 2020 0874 83E1001C 		lwz 31,28(1)
 2021              	.LVL182:
 2022 0878 38210020 		addi 1,1,32
 2023              	.LCFI32:
 2024              		.cfi_def_cfa_offset 0
 2025              		.cfi_restore 31
 2026              		.cfi_restore 30
 2027              		.cfi_restore 29
 2028              		.cfi_restore 28
 2029              		.cfi_restore 27
 2030 087c 4E800020 		blr
 2031              		.cfi_endproc
 2032              	.LFE1382:
 2033              		.size	_ZN12TiXmlPrinter5VisitERK16TiXmlDeclaration, .-_ZN12TiXmlPrinter5VisitERK16TiXmlDeclaration
 2034              		.align 2
 2035              		.globl _ZN12TiXmlPrinter5VisitERK12TiXmlUnknown
 2036              		.type	_ZN12TiXmlPrinter5VisitERK12TiXmlUnknown, @function
 2037              	_ZN12TiXmlPrinter5VisitERK12TiXmlUnknown:
 2038              	.LFB1384:
 2039              		.loc 2 1887 0
 2040              		.cfi_startproc
 2041              	.LVL183:
 2042 0880 7C0802A6 		mflr 0
 2043 0884 9421FFE0 		stwu 1,-32(1)
 2044              	.LCFI33:
 2045              		.cfi_def_cfa_offset 32
 2046              		.cfi_register 65, 0
 2047 0888 93A10014 		stw 29,20(1)
 2048 088c 7C9D2378 		mr 29,4
 2049              		.cfi_offset 29, -12
 2050 0890 90010024 		stw 0,36(1)
 2051 0894 93C10018 		stw 30,24(1)
 2052 0898 7C7E1B78 		mr 30,3
 2053              		.cfi_offset 30, -8
 2054              		.cfi_offset 65, 4
 2055              	.LVL184:
 2056              	.LBB2268:
 2057              	.LBB2269:
 2058              		.loc 1 1788 0
 2059 089c 80030004 		lwz 0,4(3)
 2060              	.LBE2269:
 2061              	.LBE2268:
 2062              		.loc 2 1887 0
 2063 08a0 93E1001C 		stw 31,28(1)
 2064 08a4 3BE3000C 		addi 31,3,12
 2065              		.cfi_offset 31, -4
 2066              	.LBB2274:
 2067              	.LBB2272:
 2068              		.loc 1 1788 0
 2069 08a8 2F800000 		cmpwi 7,0,0
 2070              	.LBE2272:
 2071              	.LBE2274:
 2072              		.loc 2 1887 0
 2073 08ac 9361000C 		stw 27,12(1)
 2074 08b0 93810010 		stw 28,16(1)
 2075              	.LBB2275:
 2076              	.LBB2273:
 2077              		.loc 1 1788 0
 2078 08b4 409D0028 		ble- 7,.L134
 2079              		.cfi_offset 28, -16
 2080              		.cfi_offset 27, -20
 2081 08b8 3B800000 		li 28,0
 2082 08bc 3B630010 		addi 27,3,16
 2083              	.LVL185:
 2084              	.L135:
 2085              	.LBB2270:
 2086              	.LBB2271:
 2087              		.loc 3 925 0
 2088 08c0 7FE3FB78 		mr 3,31
 2089 08c4 7F64DB78 		mr 4,27
 2090 08c8 48000001 		bl _ZNSs6appendERKSs
 2091              	.LBE2271:
 2092              	.LBE2270:
 2093              		.loc 1 1788 0
 2094 08cc 801E0004 		lwz 0,4(30)
 2095 08d0 3B9C0001 		addi 28,28,1
 2096              	.LVL186:
 2097 08d4 7F9C0000 		cmpw 7,28,0
 2098 08d8 419CFFE8 		blt+ 7,.L135
 2099              	.LVL187:
 2100              	.L134:
 2101              	.LBE2273:
 2102              	.LBE2275:
 2103              	.LBB2276:
 2104              	.LBB2277:
 2105              	.LBB2278:
 2106              		.loc 3 1000 0
 2107 08dc 3C800000 		lis 4,.LC8@ha
 2108 08e0 38A00001 		li 5,1
 2109 08e4 38840088 		la 4,.LC8@l(4)
 2110 08e8 7FE3FB78 		mr 3,31
 2111 08ec 48000001 		bl _ZNSs6appendEPKcj
 2112              	.LVL188:
 2113              	.LBE2278:
 2114              	.LBE2277:
 2115              	.LBE2276:
 2116              	.LBB2279:
 2117              	.LBB2280:
 2118              	.LBB2281:
 2119              	.LBB2282:
 2120              		.loc 3 288 0
 2121 08f0 83BD0020 		lwz 29,32(29)
 2122              	.LVL189:
 2123              	.LBE2282:
 2124              	.LBE2281:
 2125              	.LBE2280:
 2126              	.LBE2279:
 2127              	.LBB2283:
 2128              	.LBB2284:
 2129              	.LBB2285:
 2130              	.LBB2286:
 2131              	.LBB2287:
 2132              		.loc 5 261 0
 2133 08f4 7FA3EB78 		mr 3,29
 2134 08f8 48000001 		bl strlen
 2135              	.LBE2287:
 2136              	.LBE2286:
 2137              		.loc 3 1000 0
 2138 08fc 7FA4EB78 		mr 4,29
 2139              	.LBB2289:
 2140              	.LBB2288:
 2141              		.loc 5 261 0
 2142 0900 7C651B78 		mr 5,3
 2143              	.LBE2288:
 2144              	.LBE2289:
 2145              		.loc 3 1000 0
 2146 0904 7FE3FB78 		mr 3,31
 2147 0908 48000001 		bl _ZNSs6appendEPKcj
 2148              	.LVL190:
 2149              	.LBE2285:
 2150              	.LBE2284:
 2151              	.LBE2283:
 2152              	.LBB2290:
 2153              	.LBB2291:
 2154              	.LBB2292:
 2155 090c 3C800000 		lis 4,.LC9@ha
 2156 0910 3884008C 		la 4,.LC9@l(4)
 2157 0914 38A00001 		li 5,1
 2158 0918 7FE3FB78 		mr 3,31
 2159 091c 48000001 		bl _ZNSs6appendEPKcj
 2160              	.LVL191:
 2161              	.LBE2292:
 2162              	.LBE2291:
 2163              	.LBE2290:
 2164              	.LBB2293:
 2165              	.LBB2294:
 2166              	.LBB2295:
 2167              	.LBB2296:
 2168              		.loc 3 925 0
 2169 0920 7FE3FB78 		mr 3,31
 2170 0924 389E0014 		addi 4,30,20
 2171 0928 48000001 		bl _ZNSs6appendERKSs
 2172              	.LBE2296:
 2173              	.LBE2295:
 2174              	.LBE2294:
 2175              	.LBE2293:
 2176              		.loc 2 1894 0
 2177 092c 80010024 		lwz 0,36(1)
 2178 0930 8361000C 		lwz 27,12(1)
 2179 0934 38600001 		li 3,1
 2180 0938 7C0803A6 		mtlr 0
 2181 093c 83810010 		lwz 28,16(1)
 2182 0940 83A10014 		lwz 29,20(1)
 2183              	.LVL192:
 2184 0944 83C10018 		lwz 30,24(1)
 2185              	.LVL193:
 2186 0948 83E1001C 		lwz 31,28(1)
 2187              	.LVL194:
 2188 094c 38210020 		addi 1,1,32
 2189              	.LCFI34:
 2190              		.cfi_def_cfa_offset 0
 2191              		.cfi_restore 31
 2192              		.cfi_restore 30
 2193              		.cfi_restore 29
 2194              		.cfi_restore 28
 2195              		.cfi_restore 27
 2196 0950 4E800020 		blr
 2197              		.cfi_endproc
 2198              	.LFE1384:
 2199              		.size	_ZN12TiXmlPrinter5VisitERK12TiXmlUnknown, .-_ZN12TiXmlPrinter5VisitERK12TiXmlUnknown
 2200              		.align 2
 2201              		.globl _ZN12TiXmlPrinter5VisitERK12TiXmlComment
 2202              		.type	_ZN12TiXmlPrinter5VisitERK12TiXmlComment, @function
 2203              	_ZN12TiXmlPrinter5VisitERK12TiXmlComment:
 2204              	.LFB1383:
 2205              		.loc 2 1876 0
 2206              		.cfi_startproc
 2207              	.LVL195:
 2208 0954 7C0802A6 		mflr 0
 2209 0958 9421FFE0 		stwu 1,-32(1)
 2210              	.LCFI35:
 2211              		.cfi_def_cfa_offset 32
 2212              		.cfi_register 65, 0
 2213 095c 93A10014 		stw 29,20(1)
 2214 0960 7C9D2378 		mr 29,4
 2215              		.cfi_offset 29, -12
 2216 0964 90010024 		stw 0,36(1)
 2217 0968 93C10018 		stw 30,24(1)
 2218 096c 7C7E1B78 		mr 30,3
 2219              		.cfi_offset 30, -8
 2220              		.cfi_offset 65, 4
 2221              	.LVL196:
 2222              	.LBB2328:
 2223              	.LBB2329:
 2224              		.loc 1 1788 0
 2225 0970 80030004 		lwz 0,4(3)
 2226              	.LBE2329:
 2227              	.LBE2328:
 2228              		.loc 2 1876 0
 2229 0974 93E1001C 		stw 31,28(1)
 2230 0978 3BE3000C 		addi 31,3,12
 2231              		.cfi_offset 31, -4
 2232              	.LBB2334:
 2233              	.LBB2332:
 2234              		.loc 1 1788 0
 2235 097c 2F800000 		cmpwi 7,0,0
 2236              	.LBE2332:
 2237              	.LBE2334:
 2238              		.loc 2 1876 0
 2239 0980 9361000C 		stw 27,12(1)
 2240 0984 93810010 		stw 28,16(1)
 2241              	.LBB2335:
 2242              	.LBB2333:
 2243              		.loc 1 1788 0
 2244 0988 409D0028 		ble- 7,.L139
 2245              		.cfi_offset 28, -16
 2246              		.cfi_offset 27, -20
 2247              	.LVL197:
 2248 098c 3B800000 		li 28,0
 2249 0990 3B630010 		addi 27,3,16
 2250              	.LVL198:
 2251              	.L140:
 2252              	.LBB2330:
 2253              	.LBB2331:
 2254              		.loc 3 925 0
 2255 0994 7FE3FB78 		mr 3,31
 2256 0998 7F64DB78 		mr 4,27
 2257 099c 48000001 		bl _ZNSs6appendERKSs
 2258              	.LBE2331:
 2259              	.LBE2330:
 2260              		.loc 1 1788 0
 2261 09a0 801E0004 		lwz 0,4(30)
 2262 09a4 3B9C0001 		addi 28,28,1
 2263              	.LVL199:
 2264 09a8 7F9C0000 		cmpw 7,28,0
 2265 09ac 419CFFE8 		blt+ 7,.L140
 2266              	.LVL200:
 2267              	.L139:
 2268              	.LBE2333:
 2269              	.LBE2335:
 2270              	.LBB2336:
 2271              	.LBB2337:
 2272              	.LBB2338:
 2273              		.loc 3 1000 0
 2274 09b0 3C800000 		lis 4,.LC10@ha
 2275 09b4 38A00004 		li 5,4
 2276 09b8 38840090 		la 4,.LC10@l(4)
 2277 09bc 7FE3FB78 		mr 3,31
 2278 09c0 48000001 		bl _ZNSs6appendEPKcj
 2279              	.LVL201:
 2280              	.LBE2338:
 2281              	.LBE2337:
 2282              	.LBE2336:
 2283              	.LBB2339:
 2284              	.LBB2340:
 2285              	.LBB2341:
 2286              	.LBB2342:
 2287              		.loc 3 288 0
 2288 09c4 83BD0020 		lwz 29,32(29)
 2289              	.LVL202:
 2290              	.LBE2342:
 2291              	.LBE2341:
 2292              	.LBE2340:
 2293              	.LBE2339:
 2294              	.LBB2343:
 2295              	.LBB2344:
 2296              	.LBB2345:
 2297              	.LBB2346:
 2298              	.LBB2347:
 2299              		.loc 5 261 0
 2300 09c8 7FA3EB78 		mr 3,29
 2301 09cc 48000001 		bl strlen
 2302              	.LBE2347:
 2303              	.LBE2346:
 2304              		.loc 3 1000 0
 2305 09d0 7FA4EB78 		mr 4,29
 2306              	.LBB2349:
 2307              	.LBB2348:
 2308              		.loc 5 261 0
 2309 09d4 7C651B78 		mr 5,3
 2310              	.LBE2348:
 2311              	.LBE2349:
 2312              		.loc 3 1000 0
 2313 09d8 7FE3FB78 		mr 3,31
 2314 09dc 48000001 		bl _ZNSs6appendEPKcj
 2315              	.LVL203:
 2316              	.LBE2345:
 2317              	.LBE2344:
 2318              	.LBE2343:
 2319              	.LBB2350:
 2320              	.LBB2351:
 2321              	.LBB2352:
 2322 09e0 3C800000 		lis 4,.LC11@ha
 2323 09e4 38840098 		la 4,.LC11@l(4)
 2324 09e8 38A00003 		li 5,3
 2325 09ec 7FE3FB78 		mr 3,31
 2326 09f0 48000001 		bl _ZNSs6appendEPKcj
 2327              	.LVL204:
 2328              	.LBE2352:
 2329              	.LBE2351:
 2330              	.LBE2350:
 2331              	.LBB2353:
 2332              	.LBB2354:
 2333              	.LBB2355:
 2334              	.LBB2356:
 2335              		.loc 3 925 0
 2336 09f4 7FE3FB78 		mr 3,31
 2337 09f8 389E0014 		addi 4,30,20
 2338 09fc 48000001 		bl _ZNSs6appendERKSs
 2339              	.LBE2356:
 2340              	.LBE2355:
 2341              	.LBE2354:
 2342              	.LBE2353:
 2343              		.loc 2 1883 0
 2344 0a00 80010024 		lwz 0,36(1)
 2345 0a04 8361000C 		lwz 27,12(1)
 2346 0a08 38600001 		li 3,1
 2347 0a0c 7C0803A6 		mtlr 0
 2348 0a10 83810010 		lwz 28,16(1)
 2349 0a14 83A10014 		lwz 29,20(1)
 2350              	.LVL205:
 2351 0a18 83C10018 		lwz 30,24(1)
 2352              	.LVL206:
 2353 0a1c 83E1001C 		lwz 31,28(1)
 2354              	.LVL207:
 2355 0a20 38210020 		addi 1,1,32
 2356              	.LCFI36:
 2357              		.cfi_def_cfa_offset 0
 2358              		.cfi_restore 31
 2359              		.cfi_restore 30
 2360              		.cfi_restore 29
 2361              		.cfi_restore 28
 2362              		.cfi_restore 27
 2363 0a24 4E800020 		blr
 2364              		.cfi_endproc
 2365              	.LFE1383:
 2366              		.size	_ZN12TiXmlPrinter5VisitERK12TiXmlComment, .-_ZN12TiXmlPrinter5VisitERK12TiXmlComment
 2367              		.align 2
 2368              		.globl _ZNK16TiXmlDeclaration5PrintEP7__sFILEiPSs
 2369              		.type	_ZNK16TiXmlDeclaration5PrintEP7__sFILEiPSs, @function
 2370              	_ZNK16TiXmlDeclaration5PrintEP7__sFILEiPSs:
 2371              	.LFB1342:
 2372              		.loc 2 1422 0
 2373              		.cfi_startproc
 2374              	.LVL208:
 2375 0a28 7D800026 		mfcr 12
 2376              		.loc 2 1423 0
 2377 0a2c 2D840000 		cmpwi 3,4,0
 2378              		.loc 2 1422 0
 2379 0a30 7C0802A6 		mflr 0
 2380 0a34 9421FFE8 		stwu 1,-24(1)
 2381              	.LCFI37:
 2382              		.cfi_def_cfa_offset 24
 2383              		.cfi_register 65, 0
 2384              		.cfi_register 70, 12
 2385 0a38 93A1000C 		stw 29,12(1)
 2386              		.loc 2 1423 0
 2387 0a3c 7C9D2378 		mr 29,4
 2388              		.cfi_offset 29, -12
 2389              		.loc 2 1422 0
 2390 0a40 93C10010 		stw 30,16(1)
 2391 0a44 7C7E1B78 		mr 30,3
 2392              		.cfi_offset 30, -8
 2393 0a48 93E10014 		stw 31,20(1)
 2394 0a4c 7CDF3378 		mr 31,6
 2395              		.cfi_offset 31, -4
 2396 0a50 9001001C 		stw 0,28(1)
 2397 0a54 91810008 		stw 12,8(1)
 2398              		.loc 2 1423 0
 2399 0a58 418E001C 		beq- 3,.L144
 2400              		.cfi_offset 70, -16
 2401              		.cfi_offset 65, 4
 2402              		.loc 2 1423 0 is_stmt 0 discriminator 1
 2403 0a5c 3C600000 		lis 3,.LC12@ha
 2404              	.LVL209:
 2405 0a60 38800001 		li 4,1
 2406              	.LVL210:
 2407 0a64 3863009C 		la 3,.LC12@l(3)
 2408 0a68 38A00006 		li 5,6
 2409 0a6c 7FA6EB78 		mr 6,29
 2410              	.LVL211:
 2411 0a70 48000001 		bl fwrite
 2412              	.L144:
 2413              		.loc 2 1424 0 is_stmt 1
 2414 0a74 2E1F0000 		cmpwi 4,31,0
 2415 0a78 41920018 		beq- 4,.L145
 2416              	.LVL212:
 2417              	.LBB2438:
 2418              	.LBB2439:
 2419              	.LBB2440:
 2420              		.loc 3 1000 0
 2421 0a7c 3C800000 		lis 4,.LC12@ha
 2422 0a80 7FE3FB78 		mr 3,31
 2423 0a84 3884009C 		la 4,.LC12@l(4)
 2424 0a88 38A00006 		li 5,6
 2425 0a8c 48000001 		bl _ZNSs6appendEPKcj
 2426              	.LVL213:
 2427              	.L145:
 2428              	.LBE2440:
 2429              	.LBE2439:
 2430              	.LBE2438:
 2431              	.LBB2441:
 2432              	.LBB2442:
 2433              	.LBB2443:
 2434              	.LBB2444:
 2435              	.LBB2445:
 2436              	.LBB2446:
 2437              		.loc 3 288 0
 2438 0a90 80BE002C 		lwz 5,44(30)
 2439              	.LBE2446:
 2440              	.LBE2445:
 2441              	.LBE2444:
 2442              	.LBE2443:
 2443              	.LBE2442:
 2444              	.LBE2441:
 2445              		.loc 2 1426 0
 2446 0a94 8005FFF4 		lwz 0,-12(5)
 2447 0a98 2F800000 		cmpwi 7,0,0
 2448 0a9c 419E0054 		beq- 7,.L146
 2449              		.loc 2 1427 0
 2450 0aa0 418E0018 		beq- 3,.L147
 2451              	.LVL214:
 2452              		.loc 2 1427 0 is_stmt 0 discriminator 1
 2453 0aa4 3C800000 		lis 4,.LC13@ha
 2454 0aa8 7FA3EB78 		mr 3,29
 2455 0aac 388400A4 		la 4,.LC13@l(4)
 2456 0ab0 4CC63182 		crxor 6,6,6
 2457 0ab4 48000001 		bl fprintf
 2458              	.LVL215:
 2459              	.L147:
 2460              		.loc 2 1428 0 is_stmt 1
 2461 0ab8 41920038 		beq- 4,.L146
 2462              	.LVL216:
 2463              	.LBB2447:
 2464              	.LBB2448:
 2465              	.LBB2449:
 2466              		.loc 3 1000 0
 2467 0abc 3C800000 		lis 4,.LC14@ha
 2468 0ac0 38A00009 		li 5,9
 2469 0ac4 388400B4 		la 4,.LC14@l(4)
 2470 0ac8 7FE3FB78 		mr 3,31
 2471 0acc 48000001 		bl _ZNSs6appendEPKcj
 2472              	.LVL217:
 2473              	.LBE2449:
 2474              	.LBE2448:
 2475              	.LBE2447:
 2476              	.LBB2450:
 2477              	.LBB2451:
 2478              		.loc 3 925 0
 2479 0ad0 389E002C 		addi 4,30,44
 2480 0ad4 7FE3FB78 		mr 3,31
 2481 0ad8 48000001 		bl _ZNSs6appendERKSs
 2482              	.LVL218:
 2483              	.LBE2451:
 2484              	.LBE2450:
 2485              	.LBB2452:
 2486              	.LBB2453:
 2487              	.LBB2454:
 2488              		.loc 3 1000 0
 2489 0adc 3C800000 		lis 4,.LC15@ha
 2490 0ae0 7FE3FB78 		mr 3,31
 2491 0ae4 388400C0 		la 4,.LC15@l(4)
 2492 0ae8 38A00002 		li 5,2
 2493 0aec 48000001 		bl _ZNSs6appendEPKcj
 2494              	.LVL219:
 2495              	.L146:
 2496              	.LBE2454:
 2497              	.LBE2453:
 2498              	.LBE2452:
 2499              	.LBB2455:
 2500              	.LBB2456:
 2501              	.LBB2457:
 2502              	.LBB2458:
 2503              	.LBB2459:
 2504              	.LBB2460:
 2505              		.loc 3 288 0
 2506 0af0 80BE0030 		lwz 5,48(30)
 2507              	.LBE2460:
 2508              	.LBE2459:
 2509              	.LBE2458:
 2510              	.LBE2457:
 2511              	.LBE2456:
 2512              	.LBE2455:
 2513              		.loc 2 1430 0
 2514 0af4 8005FFF4 		lwz 0,-12(5)
 2515 0af8 2F800000 		cmpwi 7,0,0
 2516 0afc 419E0054 		beq- 7,.L148
 2517              		.loc 2 1431 0
 2518 0b00 418E0018 		beq- 3,.L149
 2519              	.LVL220:
 2520              		.loc 2 1431 0 is_stmt 0 discriminator 1
 2521 0b04 3C800000 		lis 4,.LC16@ha
 2522 0b08 7FA3EB78 		mr 3,29
 2523 0b0c 388400C4 		la 4,.LC16@l(4)
 2524 0b10 4CC63182 		crxor 6,6,6
 2525 0b14 48000001 		bl fprintf
 2526              	.LVL221:
 2527              	.L149:
 2528              		.loc 2 1432 0 is_stmt 1
 2529 0b18 41920038 		beq- 4,.L148
 2530              	.LVL222:
 2531              	.LBB2461:
 2532              	.LBB2462:
 2533              	.LBB2463:
 2534              		.loc 3 1000 0
 2535 0b1c 3C800000 		lis 4,.LC17@ha
 2536 0b20 38A0000A 		li 5,10
 2537 0b24 388400D4 		la 4,.LC17@l(4)
 2538 0b28 7FE3FB78 		mr 3,31
 2539 0b2c 48000001 		bl _ZNSs6appendEPKcj
 2540              	.LVL223:
 2541              	.LBE2463:
 2542              	.LBE2462:
 2543              	.LBE2461:
 2544              	.LBB2464:
 2545              	.LBB2465:
 2546              		.loc 3 925 0
 2547 0b30 389E0030 		addi 4,30,48
 2548 0b34 7FE3FB78 		mr 3,31
 2549 0b38 48000001 		bl _ZNSs6appendERKSs
 2550              	.LVL224:
 2551              	.LBE2465:
 2552              	.LBE2464:
 2553              	.LBB2466:
 2554              	.LBB2467:
 2555              	.LBB2468:
 2556              		.loc 3 1000 0
 2557 0b3c 3C800000 		lis 4,.LC15@ha
 2558 0b40 7FE3FB78 		mr 3,31
 2559 0b44 388400C0 		la 4,.LC15@l(4)
 2560 0b48 38A00002 		li 5,2
 2561 0b4c 48000001 		bl _ZNSs6appendEPKcj
 2562              	.LVL225:
 2563              	.L148:
 2564              	.LBE2468:
 2565              	.LBE2467:
 2566              	.LBE2466:
 2567              	.LBB2469:
 2568              	.LBB2470:
 2569              	.LBB2471:
 2570              	.LBB2472:
 2571              	.LBB2473:
 2572              	.LBB2474:
 2573              		.loc 3 288 0
 2574 0b50 80BE0034 		lwz 5,52(30)
 2575              	.LBE2474:
 2576              	.LBE2473:
 2577              	.LBE2472:
 2578              	.LBE2471:
 2579              	.LBE2470:
 2580              	.LBE2469:
 2581              		.loc 2 1434 0
 2582 0b54 8005FFF4 		lwz 0,-12(5)
 2583 0b58 2F800000 		cmpwi 7,0,0
 2584 0b5c 419E0054 		beq- 7,.L150
 2585              		.loc 2 1435 0
 2586 0b60 418E0018 		beq- 3,.L151
 2587              	.LVL226:
 2588              		.loc 2 1435 0 is_stmt 0 discriminator 1
 2589 0b64 3C800000 		lis 4,.LC18@ha
 2590 0b68 7FA3EB78 		mr 3,29
 2591 0b6c 388400E0 		la 4,.LC18@l(4)
 2592 0b70 4CC63182 		crxor 6,6,6
 2593 0b74 48000001 		bl fprintf
 2594              	.LVL227:
 2595              	.L151:
 2596              		.loc 2 1436 0 is_stmt 1
 2597 0b78 41920038 		beq- 4,.L150
 2598              	.LVL228:
 2599              	.LBB2475:
 2600              	.LBB2476:
 2601              	.LBB2477:
 2602              		.loc 3 1000 0
 2603 0b7c 3C800000 		lis 4,.LC19@ha
 2604 0b80 38A0000C 		li 5,12
 2605 0b84 388400F4 		la 4,.LC19@l(4)
 2606 0b88 7FE3FB78 		mr 3,31
 2607 0b8c 48000001 		bl _ZNSs6appendEPKcj
 2608              	.LVL229:
 2609              	.LBE2477:
 2610              	.LBE2476:
 2611              	.LBE2475:
 2612              	.LBB2478:
 2613              	.LBB2479:
 2614              		.loc 3 925 0
 2615 0b90 389E0034 		addi 4,30,52
 2616 0b94 7FE3FB78 		mr 3,31
 2617 0b98 48000001 		bl _ZNSs6appendERKSs
 2618              	.LVL230:
 2619              	.LBE2479:
 2620              	.LBE2478:
 2621              	.LBB2480:
 2622              	.LBB2481:
 2623              	.LBB2482:
 2624              		.loc 3 1000 0
 2625 0b9c 3C800000 		lis 4,.LC15@ha
 2626 0ba0 7FE3FB78 		mr 3,31
 2627 0ba4 388400C0 		la 4,.LC15@l(4)
 2628 0ba8 38A00002 		li 5,2
 2629 0bac 48000001 		bl _ZNSs6appendEPKcj
 2630              	.LVL231:
 2631              	.L150:
 2632              	.LBE2482:
 2633              	.LBE2481:
 2634              	.LBE2480:
 2635              		.loc 2 1438 0
 2636 0bb0 418E001C 		beq- 3,.L152
 2637              		.loc 2 1438 0 is_stmt 0 discriminator 1
 2638 0bb4 3C600000 		lis 3,.LC20@ha
 2639 0bb8 38800001 		li 4,1
 2640 0bbc 38630104 		la 3,.LC20@l(3)
 2641 0bc0 38A00002 		li 5,2
 2642 0bc4 7FA6EB78 		mr 6,29
 2643 0bc8 48000001 		bl fwrite
 2644              	.L152:
 2645              		.loc 2 1439 0 is_stmt 1
 2646 0bcc 41920018 		beq- 4,.L143
 2647              	.LVL232:
 2648              	.LBB2483:
 2649              	.LBB2484:
 2650              	.LBB2485:
 2651              		.loc 3 1000 0
 2652 0bd0 3C800000 		lis 4,.LC20@ha
 2653 0bd4 7FE3FB78 		mr 3,31
 2654 0bd8 38840104 		la 4,.LC20@l(4)
 2655 0bdc 38A00002 		li 5,2
 2656 0be0 48000001 		bl _ZNSs6appendEPKcj
 2657              	.LVL233:
 2658              	.L143:
 2659              	.LBE2485:
 2660              	.LBE2484:
 2661              	.LBE2483:
 2662              		.loc 2 1440 0
 2663 0be4 8001001C 		lwz 0,28(1)
 2664 0be8 81810008 		lwz 12,8(1)
 2665 0bec 7C0803A6 		mtlr 0
 2666 0bf0 83A1000C 		lwz 29,12(1)
 2667              	.LVL234:
 2668 0bf4 83C10010 		lwz 30,16(1)
 2669              	.LVL235:
 2670 0bf8 7D818120 		mtcrf 24,12
 2671 0bfc 83E10014 		lwz 31,20(1)
 2672              	.LVL236:
 2673 0c00 38210018 		addi 1,1,24
 2674              	.LCFI38:
 2675              		.cfi_def_cfa_offset 0
 2676              		.cfi_restore 70
 2677              		.cfi_restore 31
 2678              		.cfi_restore 30
 2679              		.cfi_restore 29
 2680 0c04 4E800020 		blr
 2681              		.cfi_endproc
 2682              	.LFE1342:
 2683              		.size	_ZNK16TiXmlDeclaration5PrintEP7__sFILEiPSs, .-_ZNK16TiXmlDeclaration5PrintEP7__sFILEiPSs
 2684              		.align 2
 2685              		.globl _ZNK12TiXmlUnknown5CloneEv
 2686              		.type	_ZNK12TiXmlUnknown5CloneEv, @function
 2687              	_ZNK12TiXmlUnknown5CloneEv:
 2688              	.LFB1349:
 2689              		.loc 2 1492 0
 2690              		.cfi_startproc
 2691              	.LVL237:
 2692 0c08 9421FFE8 		stwu 1,-24(1)
 2693              	.LCFI39:
 2694              		.cfi_def_cfa_offset 24
 2695 0c0c 7C0802A6 		mflr 0
 2696              	.LBB2518:
 2697              		.loc 2 1493 0
 2698 0c10 3C800000 		lis 4,_ZSt7nothrow@ha
 2699              	.LBE2518:
 2700              		.loc 2 1492 0
 2701 0c14 93C10010 		stw 30,16(1)
 2702              	.LBB2581:
 2703              		.loc 2 1493 0
 2704 0c18 38840000 		la 4,_ZSt7nothrow@l(4)
 2705              	.LBE2581:
 2706              		.loc 2 1492 0
 2707 0c1c 7C7E1B78 		mr 30,3
 2708              		.cfi_offset 30, -8
 2709              		.cfi_register 65, 0
 2710              	.LBB2582:
 2711              		.loc 2 1493 0
 2712 0c20 3860002C 		li 3,44
 2713              	.LVL238:
 2714              	.LBE2582:
 2715              		.loc 2 1492 0
 2716 0c24 93E10014 		stw 31,20(1)
 2717 0c28 9001001C 		stw 0,28(1)
 2718 0c2c 93A1000C 		stw 29,12(1)
 2719              	.LBB2583:
 2720              		.loc 2 1493 0
 2721              		.cfi_offset 29, -12
 2722              		.cfi_offset 65, 4
 2723              		.cfi_offset 31, -4
 2724 0c30 48000001 		bl _ZnwjRKSt9nothrow_t
 2725 0c34 7C7F1B79 		mr. 31,3
 2726 0c38 41820080 		beq- 0,.L155
 2727              	.LVL239:
 2728              	.LBB2519:
 2729              	.LBB2520:
 2730              	.LBB2521:
 2731              	.LBB2522:
 2732              	.LBB2523:
 2733              	.LBB2524:
 2734              	.LBB2525:
 2735              		.loc 3 270 0
 2736 0c3c 3D200000 		lis 9,_ZNSs4_Rep20_S_empty_rep_storageE+12@ha
 2737 0c40 3809000C 		la 0,_ZNSs4_Rep20_S_empty_rep_storageE+12@l(9)
 2738              	.LBE2525:
 2739              	.LBE2524:
 2740              	.LBE2523:
 2741              	.LBB2528:
 2742              	.LBB2529:
 2743              	.LBB2530:
 2744              	.LBB2531:
 2745              	.LBB2532:
 2746              		.loc 1 104 0
 2747 0c44 3920FFFF 		li 9,-1
 2748              	.LBE2532:
 2749              	.LBE2531:
 2750              	.LBE2530:
 2751              	.LBE2529:
 2752              	.LBE2528:
 2753              	.LBB2539:
 2754              	.LBB2527:
 2755              	.LBB2526:
 2756              		.loc 3 270 0
 2757 0c48 901F0020 		stw 0,32(31)
 2758              	.LBE2526:
 2759              	.LBE2527:
 2760              	.LBE2539:
 2761              	.LBB2540:
 2762              	.LBB2536:
 2763              		.loc 1 203 0
 2764 0c4c 38000000 		li 0,0
 2765              	.LBE2536:
 2766              	.LBE2540:
 2767              	.LBE2522:
 2768              	.LBE2521:
 2769              	.LBE2520:
 2770              	.LBE2519:
 2771              	.LBB2551:
 2772              	.LBB2552:
 2773              	.LBB2553:
 2774              	.LBB2554:
 2775              	.LBB2555:
 2776              	.LBB2556:
 2777              		.loc 3 288 0
 2778 0c50 83BE0020 		lwz 29,32(30)
 2779              	.LBE2556:
 2780              	.LBE2555:
 2781              	.LBE2554:
 2782              	.LBE2553:
 2783              	.LBE2552:
 2784              	.LBE2551:
 2785              	.LBB2577:
 2786              	.LBB2549:
 2787              	.LBB2546:
 2788              	.LBB2543:
 2789              	.LBB2541:
 2790              	.LBB2537:
 2791              	.LBB2535:
 2792              	.LBB2534:
 2793              	.LBB2533:
 2794              		.loc 1 104 0
 2795 0c54 913F0008 		stw 9,8(31)
 2796 0c58 913F0004 		stw 9,4(31)
 2797              	.LBE2533:
 2798              	.LBE2534:
 2799              	.LBE2535:
 2800              	.LBE2537:
 2801              	.LBE2541:
 2802              		.loc 2 138 0
 2803 0c5c 39200003 		li 9,3
 2804 0c60 913F0014 		stw 9,20(31)
 2805              	.LBE2543:
 2806              	.LBE2546:
 2807              		.loc 1 1359 0
 2808 0c64 3D200000 		lis 9,_ZTV12TiXmlUnknown+8@ha
 2809              	.LBB2547:
 2810              	.LBB2544:
 2811              	.LBB2542:
 2812              	.LBB2538:
 2813              		.loc 1 203 0
 2814 0c68 901F000C 		stw 0,12(31)
 2815              	.LVL240:
 2816              	.LBE2538:
 2817              	.LBE2542:
 2818              	.LBE2544:
 2819              	.LBE2547:
 2820              	.LBE2549:
 2821              	.LBE2577:
 2822              	.LBB2578:
 2823              	.LBB2575:
 2824              	.LBB2573:
 2825              	.LBB2557:
 2826              	.LBB2558:
 2827              	.LBB2559:
 2828              	.LBB2560:
 2829              	.LBB2561:
 2830              	.LBB2562:
 2831              	.LBB2563:
 2832              		.loc 5 261 0
 2833 0c6c 7FA3EB78 		mr 3,29
 2834              	.LVL241:
 2835              	.LBE2563:
 2836              	.LBE2562:
 2837              	.LBE2561:
 2838              	.LBE2560:
 2839              	.LBE2559:
 2840              	.LBE2558:
 2841              	.LBE2557:
 2842              	.LBE2573:
 2843              	.LBE2575:
 2844              	.LBE2578:
 2845              	.LBB2579:
 2846              	.LBB2550:
 2847              	.LBB2548:
 2848              	.LBB2545:
 2849              		.loc 2 137 0
 2850 0c70 901F0010 		stw 0,16(31)
 2851              		.loc 2 139 0
 2852 0c74 901F0018 		stw 0,24(31)
 2853              		.loc 2 140 0
 2854 0c78 901F001C 		stw 0,28(31)
 2855              		.loc 2 141 0
 2856 0c7c 901F0024 		stw 0,36(31)
 2857              		.loc 2 142 0
 2858 0c80 901F0028 		stw 0,40(31)
 2859              	.LBE2545:
 2860              	.LBE2548:
 2861              		.loc 1 1359 0
 2862 0c84 38090008 		la 0,_ZTV12TiXmlUnknown+8@l(9)
 2863 0c88 901F0000 		stw 0,0(31)
 2864              	.LVL242:
 2865              	.LBE2550:
 2866              	.LBE2579:
 2867              	.LBB2580:
 2868              	.LBB2576:
 2869              	.LBB2574:
 2870              	.LBB2572:
 2871              	.LBB2571:
 2872              	.LBB2570:
 2873              	.LBB2569:
 2874              	.LBB2568:
 2875              	.LBB2566:
 2876              	.LBB2564:
 2877              		.loc 5 261 0
 2878 0c8c 48000001 		bl strlen
 2879              	.LVL243:
 2880              	.LBE2564:
 2881              	.LBE2566:
 2882              		.loc 3 1121 0
 2883 0c90 7FA4EB78 		mr 4,29
 2884              	.LBB2567:
 2885              	.LBB2565:
 2886              		.loc 5 261 0
 2887 0c94 7C651B78 		mr 5,3
 2888              	.LBE2565:
 2889              	.LBE2567:
 2890              		.loc 3 1121 0
 2891 0c98 387F0020 		addi 3,31,32
 2892 0c9c 48000001 		bl _ZNSs6assignEPKcj
 2893              	.LBE2568:
 2894              	.LBE2569:
 2895              	.LBE2570:
 2896              	.LBE2571:
 2897              	.LBE2572:
 2898              		.loc 2 164 0
 2899 0ca0 815E0004 		lwz 10,4(30)
 2900 0ca4 817E0008 		lwz 11,8(30)
 2901              		.loc 2 163 0
 2902 0ca8 801E000C 		lwz 0,12(30)
 2903              		.loc 2 164 0
 2904 0cac 915F0004 		stw 10,4(31)
 2905              		.loc 2 163 0
 2906 0cb0 901F000C 		stw 0,12(31)
 2907              		.loc 2 164 0
 2908 0cb4 917F0008 		stw 11,8(31)
 2909              	.LVL244:
 2910              	.L155:
 2911              	.LBE2574:
 2912              	.LBE2576:
 2913              	.LBE2580:
 2914              	.LBE2583:
 2915              		.loc 2 1500 0
 2916 0cb8 8001001C 		lwz 0,28(1)
 2917 0cbc 7FE3FB78 		mr 3,31
 2918 0cc0 83A1000C 		lwz 29,12(1)
 2919 0cc4 7C0803A6 		mtlr 0
 2920 0cc8 83C10010 		lwz 30,16(1)
 2921              	.LVL245:
 2922 0ccc 83E10014 		lwz 31,20(1)
 2923 0cd0 38210018 		addi 1,1,24
 2924              	.LCFI40:
 2925              		.cfi_def_cfa_offset 0
 2926              		.cfi_restore 31
 2927              		.cfi_restore 30
 2928              		.cfi_restore 29
 2929 0cd4 4E800020 		blr
 2930              		.cfi_endproc
 2931              	.LFE1349:
 2932              		.size	_ZNK12TiXmlUnknown5CloneEv, .-_ZNK12TiXmlUnknown5CloneEv
 2933              		.align 2
 2934              		.globl _ZNK12TiXmlComment5CloneEv
 2935              		.type	_ZNK12TiXmlComment5CloneEv, @function
 2936              	_ZNK12TiXmlComment5CloneEv:
 2937              	.LFB1327:
 2938              		.loc 2 1324 0
 2939              		.cfi_startproc
 2940              	.LVL246:
 2941 0cd8 9421FFE8 		stwu 1,-24(1)
 2942              	.LCFI41:
 2943              		.cfi_def_cfa_offset 24
 2944 0cdc 7C0802A6 		mflr 0
 2945              	.LBB2616:
 2946              		.loc 2 1325 0
 2947 0ce0 3C800000 		lis 4,_ZSt7nothrow@ha
 2948              	.LBE2616:
 2949              		.loc 2 1324 0
 2950 0ce4 93C10010 		stw 30,16(1)
 2951              	.LBB2679:
 2952              		.loc 2 1325 0
 2953 0ce8 38840000 		la 4,_ZSt7nothrow@l(4)
 2954              	.LBE2679:
 2955              		.loc 2 1324 0
 2956 0cec 7C7E1B78 		mr 30,3
 2957              		.cfi_offset 30, -8
 2958              		.cfi_register 65, 0
 2959              	.LBB2680:
 2960              		.loc 2 1325 0
 2961 0cf0 3860002C 		li 3,44
 2962              	.LVL247:
 2963              	.LBE2680:
 2964              		.loc 2 1324 0
 2965 0cf4 93E10014 		stw 31,20(1)
 2966 0cf8 9001001C 		stw 0,28(1)
 2967 0cfc 93A1000C 		stw 29,12(1)
 2968              	.LBB2681:
 2969              		.loc 2 1325 0
 2970              		.cfi_offset 29, -12
 2971              		.cfi_offset 65, 4
 2972              		.cfi_offset 31, -4
 2973 0d00 48000001 		bl _ZnwjRKSt9nothrow_t
 2974 0d04 7C7F1B79 		mr. 31,3
 2975 0d08 41820080 		beq- 0,.L159
 2976              	.LVL248:
 2977              	.LBB2617:
 2978              	.LBB2618:
 2979              	.LBB2619:
 2980              	.LBB2620:
 2981              	.LBB2621:
 2982              	.LBB2622:
 2983              	.LBB2623:
 2984              		.loc 3 270 0
 2985 0d0c 3D200000 		lis 9,_ZNSs4_Rep20_S_empty_rep_storageE+12@ha
 2986 0d10 3809000C 		la 0,_ZNSs4_Rep20_S_empty_rep_storageE+12@l(9)
 2987              	.LBE2623:
 2988              	.LBE2622:
 2989              	.LBE2621:
 2990              	.LBB2626:
 2991              	.LBB2627:
 2992              	.LBB2628:
 2993              	.LBB2629:
 2994              	.LBB2630:
 2995              		.loc 1 104 0
 2996 0d14 3920FFFF 		li 9,-1
 2997              	.LBE2630:
 2998              	.LBE2629:
 2999              	.LBE2628:
 3000              	.LBE2627:
 3001              	.LBE2626:
 3002              	.LBB2637:
 3003              	.LBB2625:
 3004              	.LBB2624:
 3005              		.loc 3 270 0
 3006 0d18 901F0020 		stw 0,32(31)
 3007              	.LBE2624:
 3008              	.LBE2625:
 3009              	.LBE2637:
 3010              	.LBB2638:
 3011              	.LBB2634:
 3012              		.loc 1 203 0
 3013 0d1c 38000000 		li 0,0
 3014              	.LBE2634:
 3015              	.LBE2638:
 3016              	.LBE2620:
 3017              	.LBE2619:
 3018              	.LBE2618:
 3019              	.LBE2617:
 3020              	.LBB2649:
 3021              	.LBB2650:
 3022              	.LBB2651:
 3023              	.LBB2652:
 3024              	.LBB2653:
 3025              	.LBB2654:
 3026              		.loc 3 288 0
 3027 0d20 83BE0020 		lwz 29,32(30)
 3028              	.LBE2654:
 3029              	.LBE2653:
 3030              	.LBE2652:
 3031              	.LBE2651:
 3032              	.LBE2650:
 3033              	.LBE2649:
 3034              	.LBB2675:
 3035              	.LBB2647:
 3036              	.LBB2644:
 3037              	.LBB2641:
 3038              	.LBB2639:
 3039              	.LBB2635:
 3040              	.LBB2633:
 3041              	.LBB2632:
 3042              	.LBB2631:
 3043              		.loc 1 104 0
 3044 0d24 913F0008 		stw 9,8(31)
 3045 0d28 913F0004 		stw 9,4(31)
 3046              	.LBE2631:
 3047              	.LBE2632:
 3048              	.LBE2633:
 3049              	.LBE2635:
 3050              	.LBE2639:
 3051              		.loc 2 138 0
 3052 0d2c 39200002 		li 9,2
 3053 0d30 913F0014 		stw 9,20(31)
 3054              	.LBE2641:
 3055              	.LBE2644:
 3056              		.loc 1 1168 0
 3057 0d34 3D200000 		lis 9,_ZTV12TiXmlComment+8@ha
 3058              	.LBB2645:
 3059              	.LBB2642:
 3060              	.LBB2640:
 3061              	.LBB2636:
 3062              		.loc 1 203 0
 3063 0d38 901F000C 		stw 0,12(31)
 3064              	.LVL249:
 3065              	.LBE2636:
 3066              	.LBE2640:
 3067              	.LBE2642:
 3068              	.LBE2645:
 3069              	.LBE2647:
 3070              	.LBE2675:
 3071              	.LBB2676:
 3072              	.LBB2673:
 3073              	.LBB2671:
 3074              	.LBB2655:
 3075              	.LBB2656:
 3076              	.LBB2657:
 3077              	.LBB2658:
 3078              	.LBB2659:
 3079              	.LBB2660:
 3080              	.LBB2661:
 3081              		.loc 5 261 0
 3082 0d3c 7FA3EB78 		mr 3,29
 3083              	.LVL250:
 3084              	.LBE2661:
 3085              	.LBE2660:
 3086              	.LBE2659:
 3087              	.LBE2658:
 3088              	.LBE2657:
 3089              	.LBE2656:
 3090              	.LBE2655:
 3091              	.LBE2671:
 3092              	.LBE2673:
 3093              	.LBE2676:
 3094              	.LBB2677:
 3095              	.LBB2648:
 3096              	.LBB2646:
 3097              	.LBB2643:
 3098              		.loc 2 137 0
 3099 0d40 901F0010 		stw 0,16(31)
 3100              		.loc 2 139 0
 3101 0d44 901F0018 		stw 0,24(31)
 3102              		.loc 2 140 0
 3103 0d48 901F001C 		stw 0,28(31)
 3104              		.loc 2 141 0
 3105 0d4c 901F0024 		stw 0,36(31)
 3106              		.loc 2 142 0
 3107 0d50 901F0028 		stw 0,40(31)
 3108              	.LBE2643:
 3109              	.LBE2646:
 3110              		.loc 1 1168 0
 3111 0d54 38090008 		la 0,_ZTV12TiXmlComment+8@l(9)
 3112 0d58 901F0000 		stw 0,0(31)
 3113              	.LVL251:
 3114              	.LBE2648:
 3115              	.LBE2677:
 3116              	.LBB2678:
 3117              	.LBB2674:
 3118              	.LBB2672:
 3119              	.LBB2670:
 3120              	.LBB2669:
 3121              	.LBB2668:
 3122              	.LBB2667:
 3123              	.LBB2666:
 3124              	.LBB2664:
 3125              	.LBB2662:
 3126              		.loc 5 261 0
 3127 0d5c 48000001 		bl strlen
 3128              	.LVL252:
 3129              	.LBE2662:
 3130              	.LBE2664:
 3131              		.loc 3 1121 0
 3132 0d60 7FA4EB78 		mr 4,29
 3133              	.LBB2665:
 3134              	.LBB2663:
 3135              		.loc 5 261 0
 3136 0d64 7C651B78 		mr 5,3
 3137              	.LBE2663:
 3138              	.LBE2665:
 3139              		.loc 3 1121 0
 3140 0d68 387F0020 		addi 3,31,32
 3141 0d6c 48000001 		bl _ZNSs6assignEPKcj
 3142              	.LBE2666:
 3143              	.LBE2667:
 3144              	.LBE2668:
 3145              	.LBE2669:
 3146              	.LBE2670:
 3147              		.loc 2 164 0
 3148 0d70 815E0004 		lwz 10,4(30)
 3149 0d74 817E0008 		lwz 11,8(30)
 3150              		.loc 2 163 0
 3151 0d78 801E000C 		lwz 0,12(30)
 3152              		.loc 2 164 0
 3153 0d7c 915F0004 		stw 10,4(31)
 3154              		.loc 2 163 0
 3155 0d80 901F000C 		stw 0,12(31)
 3156              		.loc 2 164 0
 3157 0d84 917F0008 		stw 11,8(31)
 3158              	.LVL253:
 3159              	.L159:
 3160              	.LBE2672:
 3161              	.LBE2674:
 3162              	.LBE2678:
 3163              	.LBE2681:
 3164              		.loc 2 1332 0
 3165 0d88 8001001C 		lwz 0,28(1)
 3166 0d8c 7FE3FB78 		mr 3,31
 3167 0d90 83A1000C 		lwz 29,12(1)
 3168 0d94 7C0803A6 		mtlr 0
 3169 0d98 83C10010 		lwz 30,16(1)
 3170              	.LVL254:
 3171 0d9c 83E10014 		lwz 31,20(1)
 3172 0da0 38210018 		addi 1,1,24
 3173              	.LCFI42:
 3174              		.cfi_def_cfa_offset 0
 3175              		.cfi_restore 31
 3176              		.cfi_restore 30
 3177              		.cfi_restore 29
 3178 0da4 4E800020 		blr
 3179              		.cfi_endproc
 3180              	.LFE1327:
 3181              		.size	_ZNK12TiXmlComment5CloneEv, .-_ZNK12TiXmlComment5CloneEv
 3182              		.align 2
 3183              		.globl _ZNK16TiXmlDeclaration5CloneEv
 3184              		.type	_ZNK16TiXmlDeclaration5CloneEv, @function
 3185              	_ZNK16TiXmlDeclaration5CloneEv:
 3186              	.LFB1345:
 3187              		.loc 2 1460 0
 3188              		.cfi_startproc
 3189              	.LVL255:
 3190 0da8 9421FFE8 		stwu 1,-24(1)
 3191              	.LCFI43:
 3192              		.cfi_def_cfa_offset 24
 3193 0dac 7C0802A6 		mflr 0
 3194              	.LBB2741:
 3195              		.loc 2 1461 0
 3196 0db0 3C800000 		lis 4,_ZSt7nothrow@ha
 3197              	.LBE2741:
 3198              		.loc 2 1460 0
 3199 0db4 93C10010 		stw 30,16(1)
 3200              	.LBB2832:
 3201              		.loc 2 1461 0
 3202 0db8 38840000 		la 4,_ZSt7nothrow@l(4)
 3203              	.LBE2832:
 3204              		.loc 2 1460 0
 3205 0dbc 7C7E1B78 		mr 30,3
 3206              		.cfi_offset 30, -8
 3207              		.cfi_register 65, 0
 3208              	.LBB2833:
 3209              		.loc 2 1461 0
 3210 0dc0 38600038 		li 3,56
 3211              	.LVL256:
 3212              	.LBE2833:
 3213              		.loc 2 1460 0
 3214 0dc4 93E10014 		stw 31,20(1)
 3215 0dc8 9001001C 		stw 0,28(1)
 3216 0dcc 93A1000C 		stw 29,12(1)
 3217              	.LBB2834:
 3218              		.loc 2 1461 0
 3219              		.cfi_offset 29, -12
 3220              		.cfi_offset 65, 4
 3221              		.cfi_offset 31, -4
 3222 0dd0 48000001 		bl _ZnwjRKSt9nothrow_t
 3223 0dd4 7C7F1B79 		mr. 31,3
 3224 0dd8 418200B0 		beq- 0,.L163
 3225              	.LVL257:
 3226              	.LBB2742:
 3227              	.LBB2743:
 3228              	.LBB2744:
 3229              	.LBB2745:
 3230              	.LBB2746:
 3231              	.LBB2747:
 3232              	.LBB2748:
 3233              		.loc 3 270 0
 3234 0ddc 3D200000 		lis 9,_ZNSs4_Rep20_S_empty_rep_storageE+12@ha
 3235 0de0 3809000C 		la 0,_ZNSs4_Rep20_S_empty_rep_storageE+12@l(9)
 3236              	.LBE2748:
 3237              	.LBE2747:
 3238              	.LBE2746:
 3239              	.LBB2751:
 3240              	.LBB2752:
 3241              	.LBB2753:
 3242              	.LBB2754:
 3243              	.LBB2755:
 3244              		.loc 1 104 0
 3245 0de4 3920FFFF 		li 9,-1
 3246              	.LBE2755:
 3247              	.LBE2754:
 3248              	.LBE2753:
 3249              	.LBE2752:
 3250              	.LBE2751:
 3251              	.LBB2762:
 3252              	.LBB2750:
 3253              	.LBB2749:
 3254              		.loc 3 270 0
 3255 0de8 901F0020 		stw 0,32(31)
 3256              	.LBE2749:
 3257              	.LBE2750:
 3258              	.LBE2762:
 3259              	.LBE2745:
 3260              	.LBE2744:
 3261              	.LBB2770:
 3262              	.LBB2771:
 3263              	.LBB2772:
 3264 0dec 901F002C 		stw 0,44(31)
 3265              	.LBE2772:
 3266              	.LBE2771:
 3267              	.LBE2770:
 3268              	.LBB2773:
 3269              	.LBB2774:
 3270              	.LBB2775:
 3271 0df0 901F0030 		stw 0,48(31)
 3272              	.LBE2775:
 3273              	.LBE2774:
 3274              	.LBE2773:
 3275              	.LBB2776:
 3276              	.LBB2777:
 3277              	.LBB2778:
 3278 0df4 901F0034 		stw 0,52(31)
 3279              	.LBE2778:
 3280              	.LBE2777:
 3281              	.LBE2776:
 3282              	.LBB2779:
 3283              	.LBB2766:
 3284              	.LBB2763:
 3285              	.LBB2759:
 3286              		.loc 1 203 0
 3287 0df8 38000000 		li 0,0
 3288              	.LBE2759:
 3289              	.LBE2763:
 3290              	.LBE2766:
 3291              	.LBE2779:
 3292              	.LBE2743:
 3293              	.LBE2742:
 3294              	.LBB2785:
 3295              	.LBB2786:
 3296              	.LBB2787:
 3297              	.LBB2788:
 3298              	.LBB2789:
 3299              	.LBB2790:
 3300              	.LBB2791:
 3301              		.loc 3 288 0
 3302 0dfc 83BE0020 		lwz 29,32(30)
 3303              	.LBE2791:
 3304              	.LBE2790:
 3305              	.LBE2789:
 3306              	.LBE2788:
 3307              	.LBE2787:
 3308              	.LBE2786:
 3309              	.LBE2785:
 3310              	.LBB2828:
 3311              	.LBB2783:
 3312              	.LBB2780:
 3313              	.LBB2767:
 3314              	.LBB2764:
 3315              	.LBB2760:
 3316              	.LBB2758:
 3317              	.LBB2757:
 3318              	.LBB2756:
 3319              		.loc 1 104 0
 3320 0e00 913F0008 		stw 9,8(31)
 3321 0e04 913F0004 		stw 9,4(31)
 3322              	.LBE2756:
 3323              	.LBE2757:
 3324              	.LBE2758:
 3325              	.LBE2760:
 3326              	.LBE2764:
 3327              		.loc 2 138 0
 3328 0e08 39200005 		li 9,5
 3329 0e0c 913F0014 		stw 9,20(31)
 3330              	.LBE2767:
 3331              	.LBE2780:
 3332              		.loc 1 1291 0
 3333 0e10 3D200000 		lis 9,_ZTV16TiXmlDeclaration+8@ha
 3334              	.LBB2781:
 3335              	.LBB2768:
 3336              	.LBB2765:
 3337              	.LBB2761:
 3338              		.loc 1 203 0
 3339 0e14 901F000C 		stw 0,12(31)
 3340              	.LVL258:
 3341              	.LBE2761:
 3342              	.LBE2765:
 3343              	.LBE2768:
 3344              	.LBE2781:
 3345              	.LBE2783:
 3346              	.LBE2828:
 3347              	.LBB2829:
 3348              	.LBB2826:
 3349              	.LBB2812:
 3350              	.LBB2808:
 3351              	.LBB2792:
 3352              	.LBB2793:
 3353              	.LBB2794:
 3354              	.LBB2795:
 3355              	.LBB2796:
 3356              	.LBB2797:
 3357              	.LBB2798:
 3358              		.loc 5 261 0
 3359 0e18 7FA3EB78 		mr 3,29
 3360              	.LVL259:
 3361              	.LBE2798:
 3362              	.LBE2797:
 3363              	.LBE2796:
 3364              	.LBE2795:
 3365              	.LBE2794:
 3366              	.LBE2793:
 3367              	.LBE2792:
 3368              	.LBE2808:
 3369              	.LBE2812:
 3370              	.LBE2826:
 3371              	.LBE2829:
 3372              	.LBB2830:
 3373              	.LBB2784:
 3374              	.LBB2782:
 3375              	.LBB2769:
 3376              		.loc 2 137 0
 3377 0e1c 901F0010 		stw 0,16(31)
 3378              		.loc 2 139 0
 3379 0e20 901F0018 		stw 0,24(31)
 3380              		.loc 2 140 0
 3381 0e24 901F001C 		stw 0,28(31)
 3382              		.loc 2 141 0
 3383 0e28 901F0024 		stw 0,36(31)
 3384              		.loc 2 142 0
 3385 0e2c 901F0028 		stw 0,40(31)
 3386              	.LBE2769:
 3387              	.LBE2782:
 3388              		.loc 1 1291 0
 3389 0e30 38090008 		la 0,_ZTV16TiXmlDeclaration+8@l(9)
 3390 0e34 901F0000 		stw 0,0(31)
 3391              	.LVL260:
 3392              	.LBE2784:
 3393              	.LBE2830:
 3394              	.LBB2831:
 3395              	.LBB2827:
 3396              	.LBB2813:
 3397              	.LBB2809:
 3398              	.LBB2807:
 3399              	.LBB2806:
 3400              	.LBB2805:
 3401              	.LBB2804:
 3402              	.LBB2803:
 3403              	.LBB2801:
 3404              	.LBB2799:
 3405              		.loc 5 261 0
 3406 0e38 48000001 		bl strlen
 3407              	.LVL261:
 3408              	.LBE2799:
 3409              	.LBE2801:
 3410              		.loc 3 1121 0
 3411 0e3c 7FA4EB78 		mr 4,29
 3412              	.LBB2802:
 3413              	.LBB2800:
 3414              		.loc 5 261 0
 3415 0e40 7C651B78 		mr 5,3
 3416              	.LBE2800:
 3417              	.LBE2802:
 3418              		.loc 3 1121 0
 3419 0e44 387F0020 		addi 3,31,32
 3420 0e48 48000001 		bl _ZNSs6assignEPKcj
 3421              	.LBE2803:
 3422              	.LBE2804:
 3423              	.LBE2805:
 3424              	.LBE2806:
 3425              	.LBE2807:
 3426              		.loc 2 164 0
 3427 0e4c 815E0004 		lwz 10,4(30)
 3428 0e50 817E0008 		lwz 11,8(30)
 3429              	.LBE2809:
 3430              	.LBE2813:
 3431              	.LBB2814:
 3432              	.LBB2815:
 3433              		.loc 3 542 0
 3434 0e54 389E002C 		addi 4,30,44
 3435              	.LBE2815:
 3436              	.LBE2814:
 3437              	.LBB2818:
 3438              	.LBB2810:
 3439              		.loc 2 163 0
 3440 0e58 801E000C 		lwz 0,12(30)
 3441              	.LBE2810:
 3442              	.LBE2818:
 3443              	.LBB2819:
 3444              	.LBB2816:
 3445              		.loc 3 542 0
 3446 0e5c 387F002C 		addi 3,31,44
 3447              	.LBE2816:
 3448              	.LBE2819:
 3449              	.LBB2820:
 3450              	.LBB2811:
 3451              		.loc 2 164 0
 3452 0e60 915F0004 		stw 10,4(31)
 3453              		.loc 2 163 0
 3454 0e64 901F000C 		stw 0,12(31)
 3455              		.loc 2 164 0
 3456 0e68 917F0008 		stw 11,8(31)
 3457              	.LVL262:
 3458              	.LBE2811:
 3459              	.LBE2820:
 3460              	.LBB2821:
 3461              	.LBB2817:
 3462              		.loc 3 542 0
 3463 0e6c 48000001 		bl _ZNSs6assignERKSs
 3464              	.LVL263:
 3465              	.LBE2817:
 3466              	.LBE2821:
 3467              	.LBB2822:
 3468              	.LBB2823:
 3469 0e70 389E0030 		addi 4,30,48
 3470 0e74 387F0030 		addi 3,31,48
 3471 0e78 48000001 		bl _ZNSs6assignERKSs
 3472              	.LVL264:
 3473              	.LBE2823:
 3474              	.LBE2822:
 3475              	.LBB2824:
 3476              	.LBB2825:
 3477 0e7c 387F0034 		addi 3,31,52
 3478 0e80 389E0034 		addi 4,30,52
 3479 0e84 48000001 		bl _ZNSs6assignERKSs
 3480              	.LVL265:
 3481              	.L163:
 3482              	.LBE2825:
 3483              	.LBE2824:
 3484              	.LBE2827:
 3485              	.LBE2831:
 3486              	.LBE2834:
 3487              		.loc 2 1468 0
 3488 0e88 8001001C 		lwz 0,28(1)
 3489 0e8c 7FE3FB78 		mr 3,31
 3490 0e90 83A1000C 		lwz 29,12(1)
 3491 0e94 7C0803A6 		mtlr 0
 3492 0e98 83C10010 		lwz 30,16(1)
 3493              	.LVL266:
 3494 0e9c 83E10014 		lwz 31,20(1)
 3495 0ea0 38210018 		addi 1,1,24
 3496              	.LCFI44:
 3497              		.cfi_def_cfa_offset 0
 3498              		.cfi_restore 31
 3499              		.cfi_restore 30
 3500              		.cfi_restore 29
 3501 0ea4 4E800020 		blr
 3502              		.cfi_endproc
 3503              	.LFE1345:
 3504              		.size	_ZNK16TiXmlDeclaration5CloneEv, .-_ZNK16TiXmlDeclaration5CloneEv
 3505              		.align 2
 3506              		.globl _ZN12TiXmlPrinter9VisitExitERK12TiXmlElement
 3507              		.type	_ZN12TiXmlPrinter9VisitExitERK12TiXmlElement, @function
 3508              	_ZN12TiXmlPrinter9VisitExitERK12TiXmlElement:
 3509              	.LFB1380:
 3510              		.loc 2 1813 0
 3511              		.cfi_startproc
 3512              	.LVL267:
 3513 0ea8 7C0802A6 		mflr 0
 3514 0eac 9421FFE0 		stwu 1,-32(1)
 3515              	.LCFI45:
 3516              		.cfi_def_cfa_offset 32
 3517              		.cfi_register 65, 0
 3518 0eb0 93A10014 		stw 29,20(1)
 3519 0eb4 7C9D2378 		mr 29,4
 3520              		.cfi_offset 29, -12
 3521 0eb8 90010024 		stw 0,36(1)
 3522 0ebc 93E1001C 		stw 31,28(1)
 3523 0ec0 7C7F1B78 		mr 31,3
 3524              		.cfi_offset 31, -4
 3525              		.cfi_offset 65, 4
 3526              		.loc 2 1815 0
 3527 0ec4 80040018 		lwz 0,24(4)
 3528              		.loc 2 1814 0
 3529 0ec8 81230004 		lwz 9,4(3)
 3530              		.loc 2 1815 0
 3531 0ecc 2F800000 		cmpwi 7,0,0
 3532              		.loc 2 1813 0
 3533 0ed0 9361000C 		stw 27,12(1)
 3534              		.loc 2 1814 0
 3535 0ed4 3809FFFF 		addi 0,9,-1
 3536              		.loc 2 1813 0
 3537 0ed8 93810010 		stw 28,16(1)
 3538 0edc 93C10018 		stw 30,24(1)
 3539              		.loc 2 1814 0
 3540 0ee0 90030004 		stw 0,4(3)
 3541              		.loc 2 1815 0
 3542 0ee4 419E006C 		beq- 7,.L173
 3543              		.cfi_offset 30, -8
 3544              		.cfi_offset 28, -16
 3545              		.cfi_offset 27, -20
 3546              		.loc 2 1821 0
 3547 0ee8 89230008 		lbz 9,8(3)
 3548 0eec 2F890000 		cmpwi 7,9,0
 3549 0ef0 419E0088 		beq- 7,.L180
 3550              		.loc 2 1823 0
 3551 0ef4 38000000 		li 0,0
 3552 0ef8 98030008 		stb 0,8(3)
 3553              	.L179:
 3554 0efc 3BDF000C 		addi 30,31,12
 3555              	.LVL268:
 3556              	.L176:
 3557              	.LBB2866:
 3558              	.LBB2867:
 3559              	.LBB2868:
 3560              		.loc 3 1000 0
 3561 0f00 3C800000 		lis 4,.LC21@ha
 3562 0f04 38A00002 		li 5,2
 3563 0f08 38840108 		la 4,.LC21@l(4)
 3564 0f0c 7FC3F378 		mr 3,30
 3565 0f10 48000001 		bl _ZNSs6appendEPKcj
 3566              	.LVL269:
 3567              	.LBE2868:
 3568              	.LBE2867:
 3569              	.LBE2866:
 3570              	.LBB2869:
 3571              	.LBB2870:
 3572              	.LBB2871:
 3573              	.LBB2872:
 3574              		.loc 3 288 0
 3575 0f14 83BD0020 		lwz 29,32(29)
 3576              	.LVL270:
 3577              	.LBE2872:
 3578              	.LBE2871:
 3579              	.LBE2870:
 3580              	.LBE2869:
 3581              	.LBB2873:
 3582              	.LBB2874:
 3583              	.LBB2875:
 3584              	.LBB2876:
 3585              	.LBB2877:
 3586              		.loc 5 261 0
 3587 0f18 7FA3EB78 		mr 3,29
 3588 0f1c 48000001 		bl strlen
 3589              	.LBE2877:
 3590              	.LBE2876:
 3591              		.loc 3 1000 0
 3592 0f20 7FA4EB78 		mr 4,29
 3593              	.LBB2879:
 3594              	.LBB2878:
 3595              		.loc 5 261 0
 3596 0f24 7C651B78 		mr 5,3
 3597              	.LBE2878:
 3598              	.LBE2879:
 3599              		.loc 3 1000 0
 3600 0f28 7FC3F378 		mr 3,30
 3601 0f2c 48000001 		bl _ZNSs6appendEPKcj
 3602              	.LVL271:
 3603              	.LBE2875:
 3604              	.LBE2874:
 3605              	.LBE2873:
 3606              	.LBB2880:
 3607              	.LBB2881:
 3608              	.LBB2882:
 3609 0f30 3C800000 		lis 4,.LC9@ha
 3610 0f34 3884008C 		la 4,.LC9@l(4)
 3611 0f38 7FC3F378 		mr 3,30
 3612 0f3c 38A00001 		li 5,1
 3613 0f40 48000001 		bl _ZNSs6appendEPKcj
 3614              	.LVL272:
 3615              	.LBE2882:
 3616              	.LBE2881:
 3617              	.LBE2880:
 3618              	.LBB2883:
 3619              	.LBB2884:
 3620              	.LBB2885:
 3621              	.LBB2886:
 3622              		.loc 3 925 0
 3623 0f44 7FC3F378 		mr 3,30
 3624 0f48 389F0014 		addi 4,31,20
 3625 0f4c 48000001 		bl _ZNSs6appendERKSs
 3626              	.LVL273:
 3627              	.L173:
 3628              	.LBE2886:
 3629              	.LBE2885:
 3630              	.LBE2884:
 3631              	.LBE2883:
 3632              		.loc 2 1835 0
 3633 0f50 80010024 		lwz 0,36(1)
 3634 0f54 38600001 		li 3,1
 3635 0f58 8361000C 		lwz 27,12(1)
 3636 0f5c 7C0803A6 		mtlr 0
 3637 0f60 83810010 		lwz 28,16(1)
 3638 0f64 83A10014 		lwz 29,20(1)
 3639 0f68 83C10018 		lwz 30,24(1)
 3640 0f6c 83E1001C 		lwz 31,28(1)
 3641              	.LVL274:
 3642 0f70 38210020 		addi 1,1,32
 3643              		.cfi_remember_state
 3644              	.LCFI46:
 3645              		.cfi_def_cfa_offset 0
 3646              		.cfi_restore 31
 3647              		.cfi_restore 30
 3648              		.cfi_restore 29
 3649              		.cfi_restore 28
 3650              		.cfi_restore 27
 3651 0f74 4E800020 		blr
 3652              	.LVL275:
 3653              	.L180:
 3654              	.LCFI47:
 3655              		.cfi_restore_state
 3656              	.LBB2887:
 3657              	.LBB2888:
 3658              		.loc 1 1788 0
 3659 0f78 2F800000 		cmpwi 7,0,0
 3660 0f7c 40BDFF80 		ble- 7,.L179
 3661 0f80 3B800000 		li 28,0
 3662 0f84 3BC3000C 		addi 30,3,12
 3663 0f88 3B630010 		addi 27,3,16
 3664              	.LVL276:
 3665              	.L175:
 3666              	.LBB2889:
 3667              	.LBB2890:
 3668              		.loc 3 925 0
 3669 0f8c 7FC3F378 		mr 3,30
 3670 0f90 7F64DB78 		mr 4,27
 3671 0f94 48000001 		bl _ZNSs6appendERKSs
 3672              	.LBE2890:
 3673              	.LBE2889:
 3674              		.loc 1 1788 0
 3675 0f98 801F0004 		lwz 0,4(31)
 3676 0f9c 3B9C0001 		addi 28,28,1
 3677              	.LVL277:
 3678 0fa0 7F9C0000 		cmpw 7,28,0
 3679 0fa4 419CFFE8 		blt+ 7,.L175
 3680 0fa8 4BFFFF58 		b .L176
 3681              	.LBE2888:
 3682              	.LBE2887:
 3683              		.cfi_endproc
 3684              	.LFE1380:
 3685              		.size	_ZN12TiXmlPrinter9VisitExitERK12TiXmlElement, .-_ZN12TiXmlPrinter9VisitExitERK12TiXmlElement
 3686              		.section	.text._ZN12TiXmlPrinterD2Ev,"axG",@progbits,_ZN12TiXmlPrinterD5Ev,comdat
 3687              		.align 2
 3688              		.weak	_ZN12TiXmlPrinterD2Ev
 3689              		.type	_ZN12TiXmlPrinterD2Ev, @function
 3690              	_ZN12TiXmlPrinterD2Ev:
 3691              	.LFB1365:
 3692              		.loc 1 1739 0
 3693              		.cfi_startproc
 3694              	.LVL278:
 3695 0000 7C0802A6 		mflr 0
 3696 0004 9421FFE0 		stwu 1,-32(1)
 3697              	.LCFI48:
 3698              		.cfi_def_cfa_offset 32
 3699              		.cfi_register 65, 0
 3700              	.LBB2962:
 3701 0008 3D600000 		lis 11,_ZTV12TiXmlPrinter+8@ha
 3702              	.LBE2962:
 3703 000c 93C10018 		stw 30,24(1)
 3704              	.LBB3039:
 3705              	.LBB2963:
 3706              	.LBB2964:
 3707              	.LBB2965:
 3708              	.LBB2966:
 3709              	.LBB2967:
 3710              		.loc 3 235 0
 3711 0010 3FC00000 		lis 30,_ZNSs4_Rep20_S_empty_rep_storageE@ha
 3712              		.cfi_offset 30, -8
 3713              	.LBE2967:
 3714              	.LBE2966:
 3715              	.LBE2965:
 3716              	.LBE2964:
 3717              	.LBE2963:
 3718              	.LBE3039:
 3719              		.loc 1 1739 0
 3720 0014 90010024 		stw 0,36(1)
 3721              	.LBB3040:
 3722              	.LBB2991:
 3723              	.LBB2987:
 3724              	.LBB2983:
 3725              	.LBB2977:
 3726              	.LBB2974:
 3727              		.loc 3 235 0
 3728 0018 3BDE0000 		la 30,_ZNSs4_Rep20_S_empty_rep_storageE@l(30)
 3729              	.LBE2974:
 3730              	.LBE2977:
 3731              	.LBE2983:
 3732              	.LBE2987:
 3733              	.LBE2991:
 3734              	.LBE3040:
 3735              		.loc 1 1739 0
 3736 001c 93E1001C 		stw 31,28(1)
 3737              		.loc 1 1739 0
 3738 0020 7C7F1B78 		mr 31,3
 3739              		.cfi_offset 31, -4
 3740              		.cfi_offset 65, 4
 3741              	.LBB3041:
 3742              	.LBB2992:
 3743              	.LBB2988:
 3744              	.LBB2984:
 3745              	.LBB2978:
 3746              	.LBB2979:
 3747              	.LBB2980:
 3748              		.loc 3 288 0
 3749 0024 81230014 		lwz 9,20(3)
 3750              	.LBE2980:
 3751              	.LBE2979:
 3752              	.LBE2978:
 3753              	.LBE2984:
 3754              	.LBE2988:
 3755              	.LBE2992:
 3756              		.loc 1 1739 0
 3757 0028 380B0008 		la 0,_ZTV12TiXmlPrinter+8@l(11)
 3758 002c 901F0000 		stw 0,0(31)
 3759              	.LVL279:
 3760              	.LBB2993:
 3761              	.LBB2989:
 3762              	.LBB2985:
 3763              		.loc 3 534 0
 3764 0030 3869FFF4 		addi 3,9,-12
 3765              	.LVL280:
 3766              	.LBB2981:
 3767              	.LBB2975:
 3768              		.loc 3 235 0
 3769 0034 7F83F000 		cmpw 7,3,30
 3770 0038 409E0048 		bne- 7,.L202
 3771              	.LVL281:
 3772              	.L187:
 3773              	.LBE2975:
 3774              	.LBE2981:
 3775              	.LBE2985:
 3776              	.LBE2989:
 3777              	.LBE2993:
 3778              	.LBB2994:
 3779              	.LBB2995:
 3780              	.LBB2996:
 3781              	.LBB2997:
 3782              	.LBB2998:
 3783              	.LBB2999:
 3784              		.loc 3 288 0
 3785 003c 813F0010 		lwz 9,16(31)
 3786              	.LBE2999:
 3787              	.LBE2998:
 3788              	.LBE2997:
 3789              		.loc 3 534 0
 3790 0040 3869FFF4 		addi 3,9,-12
 3791              	.LVL282:
 3792              	.LBB3000:
 3793              	.LBB3001:
 3794              		.loc 3 235 0
 3795 0044 7F83F000 		cmpw 7,3,30
 3796 0048 409E0078 		bne- 7,.L203
 3797              	.LVL283:
 3798              	.L193:
 3799              	.LBE3001:
 3800              	.LBE3000:
 3801              	.LBE2996:
 3802              	.LBE2995:
 3803              	.LBE2994:
 3804              	.LBB3012:
 3805              	.LBB3013:
 3806              	.LBB3014:
 3807              	.LBB3015:
 3808              	.LBB3016:
 3809              	.LBB3017:
 3810              		.loc 3 288 0
 3811 004c 813F000C 		lwz 9,12(31)
 3812              	.LBE3017:
 3813              	.LBE3016:
 3814              	.LBE3015:
 3815              		.loc 3 534 0
 3816 0050 3869FFF4 		addi 3,9,-12
 3817              	.LVL284:
 3818              	.LBB3018:
 3819              	.LBB3019:
 3820              		.loc 3 235 0
 3821 0054 7F83F000 		cmpw 7,3,30
 3822 0058 409E0048 		bne- 7,.L204
 3823              	.LVL285:
 3824              	.L199:
 3825              	.LBE3019:
 3826              	.LBE3018:
 3827              	.LBE3014:
 3828              	.LBE3013:
 3829              	.LBE3012:
 3830              	.LBB3030:
 3831              	.LBB3031:
 3832              	.LBB3032:
 3833              		.loc 1 133 0
 3834 005c 3D200000 		lis 9,_ZTV12TiXmlVisitor+8@ha
 3835              	.LBE3032:
 3836              	.LBE3031:
 3837              	.LBE3030:
 3838              	.LBE3041:
 3839              		.loc 1 1739 0
 3840 0060 83C10018 		lwz 30,24(1)
 3841              	.LBB3042:
 3842              	.LBB3035:
 3843              	.LBB3034:
 3844              	.LBB3033:
 3845              		.loc 1 133 0
 3846 0064 38090008 		la 0,_ZTV12TiXmlVisitor+8@l(9)
 3847 0068 901F0000 		stw 0,0(31)
 3848              	.LBE3033:
 3849              	.LBE3034:
 3850              	.LBE3035:
 3851              	.LBE3042:
 3852              		.loc 1 1739 0
 3853 006c 80010024 		lwz 0,36(1)
 3854 0070 83E1001C 		lwz 31,28(1)
 3855              	.LVL286:
 3856 0074 7C0803A6 		mtlr 0
 3857 0078 38210020 		addi 1,1,32
 3858              		.cfi_remember_state
 3859              	.LCFI49:
 3860              		.cfi_def_cfa_offset 0
 3861              		.cfi_restore 31
 3862              		.cfi_restore 30
 3863 007c 4E800020 		blr
 3864              	.LVL287:
 3865              	.L202:
 3866              	.LCFI50:
 3867              		.cfi_restore_state
 3868              	.LBB3043:
 3869              	.LBB3036:
 3870              	.LBB2990:
 3871              	.LBB2986:
 3872              	.LBB2982:
 3873              	.LBB2976:
 3874              	.LBB2968:
 3875              	.LBB2969:
 3876              	.LBB2970:
 3877              		.file 6 "d:\\devkitpro\\devkitppc\\bin\\../lib/gcc/powerpc-eabi/4.6.3/../../../../powerpc-eabi/inc
 3878              		.loc 6 66 0
 3879 0080 8169FFFC 		lwz 11,-4(9)
 3880              	.LVL288:
 3881              	.LBE2970:
 3882              	.LBE2969:
 3883              	.LBE2968:
 3884              		.loc 3 240 0
 3885 0084 2F8B0000 		cmpwi 7,11,0
 3886              	.LBB2973:
 3887              	.LBB2972:
 3888              	.LBB2971:
 3889              		.loc 6 67 0
 3890 0088 396BFFFF 		addi 11,11,-1
 3891 008c 9169FFFC 		stw 11,-4(9)
 3892              	.LBE2971:
 3893              	.LBE2972:
 3894              	.LBE2973:
 3895              		.loc 3 240 0
 3896 0090 419DFFAC 		bgt+ 7,.L187
 3897              		.loc 3 244 0
 3898 0094 3881000A 		addi 4,1,10
 3899 0098 48000001 		bl _ZNSs4_Rep10_M_destroyERKSaIcE
 3900              	.LVL289:
 3901 009c 4BFFFFA0 		b .L187
 3902              	.LVL290:
 3903              	.L204:
 3904              	.LBE2976:
 3905              	.LBE2982:
 3906              	.LBE2986:
 3907              	.LBE2990:
 3908              	.LBE3036:
 3909              	.LBB3037:
 3910              	.LBB3029:
 3911              	.LBB3028:
 3912              	.LBB3027:
 3913              	.LBB3026:
 3914              	.LBB3020:
 3915              	.LBB3021:
 3916              	.LBB3022:
 3917              		.loc 6 66 0
 3918 00a0 8169FFFC 		lwz 11,-4(9)
 3919              	.LVL291:
 3920              	.LBE3022:
 3921              	.LBE3021:
 3922              	.LBE3020:
 3923              		.loc 3 240 0
 3924 00a4 2F8B0000 		cmpwi 7,11,0
 3925              	.LBB3025:
 3926              	.LBB3024:
 3927              	.LBB3023:
 3928              		.loc 6 67 0
 3929 00a8 396BFFFF 		addi 11,11,-1
 3930 00ac 9169FFFC 		stw 11,-4(9)
 3931              	.LBE3023:
 3932              	.LBE3024:
 3933              	.LBE3025:
 3934              		.loc 3 240 0
 3935 00b0 419DFFAC 		bgt+ 7,.L199
 3936              		.loc 3 244 0
 3937 00b4 38810008 		addi 4,1,8
 3938 00b8 48000001 		bl _ZNSs4_Rep10_M_destroyERKSaIcE
 3939              	.LVL292:
 3940 00bc 4BFFFFA0 		b .L199
 3941              	.LVL293:
 3942              	.L203:
 3943              	.LBE3026:
 3944              	.LBE3027:
 3945              	.LBE3028:
 3946              	.LBE3029:
 3947              	.LBE3037:
 3948              	.LBB3038:
 3949              	.LBB3011:
 3950              	.LBB3010:
 3951              	.LBB3009:
 3952              	.LBB3008:
 3953              	.LBB3002:
 3954              	.LBB3003:
 3955              	.LBB3004:
 3956              		.loc 6 66 0
 3957 00c0 8169FFFC 		lwz 11,-4(9)
 3958              	.LVL294:
 3959              	.LBE3004:
 3960              	.LBE3003:
 3961              	.LBE3002:
 3962              		.loc 3 240 0
 3963 00c4 2F8B0000 		cmpwi 7,11,0
 3964              	.LBB3007:
 3965              	.LBB3006:
 3966              	.LBB3005:
 3967              		.loc 6 67 0
 3968 00c8 396BFFFF 		addi 11,11,-1
 3969 00cc 9169FFFC 		stw 11,-4(9)
 3970              	.LBE3005:
 3971              	.LBE3006:
 3972              	.LBE3007:
 3973              		.loc 3 240 0
 3974 00d0 419DFF7C 		bgt+ 7,.L193
 3975              		.loc 3 244 0
 3976 00d4 38810009 		addi 4,1,9
 3977 00d8 48000001 		bl _ZNSs4_Rep10_M_destroyERKSaIcE
 3978              	.LVL295:
 3979 00dc 4BFFFF70 		b .L193
 3980              	.LBE3008:
 3981              	.LBE3009:
 3982              	.LBE3010:
 3983              	.LBE3011:
 3984              	.LBE3038:
 3985              	.LBE3043:
 3986              		.cfi_endproc
 3987              	.LFE1365:
 3988              		.size	_ZN12TiXmlPrinterD2Ev, .-_ZN12TiXmlPrinterD2Ev
 3989              		.section	".text"
 3990              		.align 2
 3991              		.globl _ZN9TiXmlNodeD2Ev
 3992              		.type	_ZN9TiXmlNodeD2Ev, @function
 3993              	_ZN9TiXmlNodeD2Ev:
 3994              	.LFB1223:
 3995              		.loc 2 146 0
 3996              		.cfi_startproc
 3997              		.cfi_personality 0,__gxx_personality_v0
 3998              		.cfi_lsda 0,.LLSDA1223
 3999              	.LVL296:
 4000 0fac 7C0802A6 		mflr 0
 4001 0fb0 9421FFE0 		stwu 1,-32(1)
 4002              	.LCFI51:
 4003              		.cfi_def_cfa_offset 32
 4004              		.cfi_register 65, 0
 4005              	.LBB3081:
 4006 0fb4 3D200000 		lis 9,_ZTV9TiXmlNode+8@ha
 4007              	.LBE3081:
 4008 0fb8 93E1001C 		stw 31,28(1)
 4009 0fbc 90010024 		stw 0,36(1)
 4010              	.LBB3114:
 4011 0fc0 38090008 		la 0,_ZTV9TiXmlNode+8@l(9)
 4012              		.cfi_offset 65, 4
 4013              		.cfi_offset 31, -4
 4014              	.LBE3114:
 4015 0fc4 93C10018 		stw 30,24(1)
 4016              		.loc 2 146 0
 4017 0fc8 7C7E1B78 		mr 30,3
 4018              		.cfi_offset 30, -8
 4019              	.LBB3115:
 4020              	.LBB3082:
 4021              		.loc 2 148 0
 4022 0fcc 83E30018 		lwz 31,24(3)
 4023              	.LVL297:
 4024              	.LBE3082:
 4025              		.loc 2 146 0
 4026 0fd0 90030000 		stw 0,0(3)
 4027              	.LBB3083:
 4028              		.loc 2 151 0
 4029 0fd4 2F9F0000 		cmpwi 7,31,0
 4030 0fd8 419E0024 		beq- 7,.L206
 4031              	.LVL298:
 4032              	.L220:
 4033              		.loc 2 155 0
 4034 0fdc 813F0000 		lwz 9,0(31)
 4035 0fe0 7FE3FB78 		mr 3,31
 4036              		.loc 2 154 0
 4037 0fe4 83FF0028 		lwz 31,40(31)
 4038              	.LVL299:
 4039              		.loc 2 155 0
 4040 0fe8 80090004 		lwz 0,4(9)
 4041 0fec 7C0903A6 		mtctr 0
 4042              	.LEHB0:
 4043 0ff0 4E800421 		bctrl
 4044              	.LEHE0:
 4045              	.LVL300:
 4046              		.loc 2 151 0 discriminator 1
 4047 0ff4 2F9F0000 		cmpwi 7,31,0
 4048 0ff8 409EFFE4 		bne+ 7,.L220
 4049              	.L206:
 4050              	.LVL301:
 4051              	.LBE3083:
 4052              	.LBB3084:
 4053              	.LBB3085:
 4054              	.LBB3086:
 4055              	.LBB3087:
 4056              	.LBB3088:
 4057              	.LBB3089:
 4058              		.loc 3 288 0
 4059 0ffc 813E0020 		lwz 9,32(30)
 4060              	.LBE3089:
 4061              	.LBE3088:
 4062              	.LBE3087:
 4063              	.LBB3090:
 4064              	.LBB3091:
 4065              		.loc 3 235 0
 4066 1000 3D600000 		lis 11,_ZNSs4_Rep20_S_empty_rep_storageE@ha
 4067 1004 380B0000 		la 0,_ZNSs4_Rep20_S_empty_rep_storageE@l(11)
 4068              	.LBE3091:
 4069              	.LBE3090:
 4070              		.loc 3 534 0
 4071 1008 3869FFF4 		addi 3,9,-12
 4072              	.LVL302:
 4073              	.LBB3100:
 4074              	.LBB3098:
 4075              		.loc 3 235 0
 4076 100c 7F830000 		cmpw 7,3,0
 4077 1010 409E0048 		bne- 7,.L221
 4078              	.LVL303:
 4079              	.L213:
 4080              	.LBE3098:
 4081              	.LBE3100:
 4082              	.LBE3086:
 4083              	.LBE3085:
 4084              	.LBE3084:
 4085              	.LBB3104:
 4086              	.LBB3105:
 4087              	.LBB3106:
 4088              		.loc 1 204 0
 4089 1014 3D200000 		lis 9,_ZTV9TiXmlBase+8@ha
 4090              	.LBE3106:
 4091              	.LBE3105:
 4092              	.LBE3104:
 4093              	.LBE3115:
 4094              		.loc 2 157 0
 4095 1018 83E1001C 		lwz 31,28(1)
 4096              	.LVL304:
 4097              	.LBB3116:
 4098              	.LBB3109:
 4099              	.LBB3108:
 4100              	.LBB3107:
 4101              		.loc 1 204 0
 4102 101c 38090008 		la 0,_ZTV9TiXmlBase+8@l(9)
 4103 1020 901E0000 		stw 0,0(30)
 4104              	.LBE3107:
 4105              	.LBE3108:
 4106              	.LBE3109:
 4107              	.LBE3116:
 4108              		.loc 2 157 0
 4109 1024 80010024 		lwz 0,36(1)
 4110 1028 83C10018 		lwz 30,24(1)
 4111              	.LVL305:
 4112 102c 7C0803A6 		mtlr 0
 4113 1030 38210020 		addi 1,1,32
 4114              		.cfi_remember_state
 4115              	.LCFI52:
 4116              		.cfi_def_cfa_offset 0
 4117              		.cfi_restore 31
 4118              		.cfi_restore 30
 4119 1034 4E800020 		blr
 4120              	.LVL306:
 4121              	.L219:
 4122              	.LCFI53:
 4123              		.cfi_restore_state
 4124 1038 7C7F1B78 		mr 31,3
 4125              	.LVL307:
 4126              	.LBB3117:
 4127              		.loc 2 146 0
 4128 103c 387E0020 		addi 3,30,32
 4129 1040 48000001 		bl _ZNSsD1Ev
 4130              	.LVL308:
 4131              	.LBB3110:
 4132              	.LBB3111:
 4133              	.LBB3112:
 4134              		.loc 1 204 0
 4135 1044 3D200000 		lis 9,_ZTV9TiXmlBase+8@ha
 4136 1048 38090008 		la 0,_ZTV9TiXmlBase+8@l(9)
 4137 104c 7FE3FB78 		mr 3,31
 4138 1050 901E0000 		stw 0,0(30)
 4139              	.LEHB1:
 4140 1054 48000001 		bl _Unwind_Resume
 4141              	.LEHE1:
 4142              	.LVL309:
 4143              	.L221:
 4144              	.LBE3112:
 4145              	.LBE3111:
 4146              	.LBE3110:
 4147              	.LBB3113:
 4148              	.LBB3103:
 4149              	.LBB3102:
 4150              	.LBB3101:
 4151              	.LBB3099:
 4152              	.LBB3092:
 4153              	.LBB3093:
 4154              	.LBB3094:
 4155              		.loc 6 66 0
 4156 1058 8169FFFC 		lwz 11,-4(9)
 4157              	.LVL310:
 4158              	.LBE3094:
 4159              	.LBE3093:
 4160              	.LBE3092:
 4161              		.loc 3 240 0
 4162 105c 2F8B0000 		cmpwi 7,11,0
 4163              	.LBB3097:
 4164              	.LBB3096:
 4165              	.LBB3095:
 4166              		.loc 6 67 0
 4167 1060 396BFFFF 		addi 11,11,-1
 4168 1064 9169FFFC 		stw 11,-4(9)
 4169              	.LBE3095:
 4170              	.LBE3096:
 4171              	.LBE3097:
 4172              		.loc 3 240 0
 4173 1068 419DFFAC 		bgt+ 7,.L213
 4174              		.loc 3 244 0
 4175 106c 38810008 		addi 4,1,8
 4176 1070 48000001 		bl _ZNSs4_Rep10_M_destroyERKSaIcE
 4177              	.LVL311:
 4178 1074 4BFFFFA0 		b .L213
 4179              	.LBE3099:
 4180              	.LBE3101:
 4181              	.LBE3102:
 4182              	.LBE3103:
 4183              	.LBE3113:
 4184              	.LBE3117:
 4185              		.cfi_endproc
 4186              	.LFE1223:
 4187              		.globl __gxx_personality_v0
 4188              		.section	.gcc_except_table,"a",@progbits
 4189              	.LLSDA1223:
 4190 0000 FF       		.byte	0xff
 4191 0001 FF       		.byte	0xff
 4192 0002 01       		.byte	0x1
 4193 0003 0A       		.uleb128 .LLSDACSE1223-.LLSDACSB1223
 4194              	.LLSDACSB1223:
 4195 0004 44       		.uleb128 .LEHB0-.LFB1223
 4196 0005 04       		.uleb128 .LEHE0-.LEHB0
 4197 0006 8C01     		.uleb128 .L219-.LFB1223
 4198 0008 00       		.uleb128 0
 4199 0009 A801     		.uleb128 .LEHB1-.LFB1223
 4200 000b 04       		.uleb128 .LEHE1-.LEHB1
 4201 000c 00       		.uleb128 0
 4202 000d 00       		.uleb128 0
 4203              	.LLSDACSE1223:
 4204              		.section	".text"
 4205              		.size	_ZN9TiXmlNodeD2Ev, .-_ZN9TiXmlNodeD2Ev
 4206              		.align 2
 4207              		.globl _ZNK9TiXmlText5CloneEv
 4208              		.type	_ZNK9TiXmlText5CloneEv, @function
 4209              	_ZNK9TiXmlText5CloneEv:
 4210              	.LFB1331:
 4211              		.loc 2 1370 0
 4212              		.cfi_startproc
 4213              		.cfi_personality 0,__gxx_personality_v0
 4214              		.cfi_lsda 0,.LLSDA1331
 4215              	.LVL312:
 4216 1078 9421FFE8 		stwu 1,-24(1)
 4217              	.LCFI54:
 4218              		.cfi_def_cfa_offset 24
 4219 107c 7C0802A6 		mflr 0
 4220 1080 93810008 		stw 28,8(1)
 4221              	.LBB3158:
 4222              		.loc 2 1372 0
 4223 1084 3F800000 		lis 28,_ZSt7nothrow@ha
 4224              		.cfi_offset 28, -16
 4225              		.cfi_register 65, 0
 4226 1088 3B9C0000 		la 28,_ZSt7nothrow@l(28)
 4227              	.LBE3158:
 4228              		.loc 2 1370 0
 4229 108c 93C10010 		stw 30,16(1)
 4230              	.LBB3248:
 4231              		.loc 2 1372 0
 4232 1090 7F84E378 		mr 4,28
 4233              	.LBE3248:
 4234              		.loc 2 1370 0
 4235 1094 7C7E1B78 		mr 30,3
 4236              		.cfi_offset 30, -8
 4237              	.LBB3249:
 4238              		.loc 2 1372 0
 4239 1098 38600030 		li 3,48
 4240              	.LVL313:
 4241              	.LBE3249:
 4242              		.loc 2 1370 0
 4243 109c 93E10014 		stw 31,20(1)
 4244 10a0 9001001C 		stw 0,28(1)
 4245 10a4 93A1000C 		stw 29,12(1)
 4246              	.LBB3250:
 4247              		.loc 2 1372 0
 4248              		.cfi_offset 29, -12
 4249              		.cfi_offset 65, 4
 4250              		.cfi_offset 31, -4
 4251 10a8 48000001 		bl _ZnwjRKSt9nothrow_t
 4252 10ac 7C7F1B79 		mr. 31,3
 4253 10b0 418200A8 		beq- 0,.L223
 4254              	.LVL314:
 4255              	.LBB3159:
 4256              	.LBB3160:
 4257              	.LBB3161:
 4258              	.LBB3162:
 4259              	.LBB3163:
 4260              	.LBB3164:
 4261              	.LBB3165:
 4262              	.LBB3166:
 4263              	.LBB3167:
 4264              		.loc 1 104 0
 4265 10b4 3920FFFF 		li 9,-1
 4266              	.LBE3167:
 4267              	.LBE3166:
 4268              	.LBE3165:
 4269              		.loc 1 203 0
 4270 10b8 38000000 		li 0,0
 4271              	.LBB3172:
 4272              	.LBB3170:
 4273              	.LBB3168:
 4274              		.loc 1 104 0
 4275 10bc 913F0008 		stw 9,8(31)
 4276              	.LBE3168:
 4277              	.LBE3170:
 4278              	.LBE3172:
 4279              	.LBE3164:
 4280              	.LBE3163:
 4281              	.LBE3162:
 4282              	.LBE3161:
 4283              	.LBB3190:
 4284              	.LBB3191:
 4285              		.loc 1 510 0
 4286 10c0 3BBF0020 		addi 29,31,32
 4287              	.LBE3191:
 4288              	.LBE3190:
 4289              	.LBB3212:
 4290              	.LBB3184:
 4291              	.LBB3176:
 4292              	.LBB3174:
 4293              	.LBB3173:
 4294              	.LBB3171:
 4295              	.LBB3169:
 4296              		.loc 1 104 0
 4297 10c4 913F0004 		stw 9,4(31)
 4298              	.LBE3169:
 4299              	.LBE3171:
 4300              	.LBE3173:
 4301              	.LBE3174:
 4302              	.LBE3176:
 4303              	.LBB3177:
 4304              	.LBB3178:
 4305              	.LBB3179:
 4306              		.loc 3 270 0
 4307 10c8 3D200000 		lis 9,_ZNSs4_Rep20_S_empty_rep_storageE+12@ha
 4308 10cc 3929000C 		la 9,_ZNSs4_Rep20_S_empty_rep_storageE+12@l(9)
 4309              	.LBE3179:
 4310              	.LBE3178:
 4311              	.LBE3177:
 4312              	.LBB3182:
 4313              	.LBB3175:
 4314              		.loc 1 203 0
 4315 10d0 901F000C 		stw 0,12(31)
 4316              	.LVL315:
 4317              	.LBE3175:
 4318              	.LBE3182:
 4319              	.LBB3183:
 4320              	.LBB3181:
 4321              	.LBB3180:
 4322              		.loc 3 270 0
 4323 10d4 913F0020 		stw 9,32(31)
 4324              	.LBE3180:
 4325              	.LBE3181:
 4326              	.LBE3183:
 4327              		.loc 2 138 0
 4328 10d8 39200004 		li 9,4
 4329 10dc 913F0014 		stw 9,20(31)
 4330              	.LBE3184:
 4331              	.LBE3212:
 4332              		.loc 1 1222 0
 4333 10e0 3D200000 		lis 9,_ZTV9TiXmlText+8@ha
 4334              	.LBB3213:
 4335              	.LBB3185:
 4336              		.loc 2 137 0
 4337 10e4 901F0010 		stw 0,16(31)
 4338              	.LBE3185:
 4339              	.LBE3213:
 4340              	.LBB3214:
 4341              	.LBB3207:
 4342              	.LBB3192:
 4343              	.LBB3193:
 4344              	.LBB3194:
 4345              		.loc 3 1121 0
 4346 10e8 3C800000 		lis 4,.LC22@ha
 4347              	.LBE3194:
 4348              	.LBE3193:
 4349              	.LBE3192:
 4350              	.LBE3207:
 4351              	.LBE3214:
 4352              	.LBB3215:
 4353              	.LBB3186:
 4354              		.loc 2 139 0
 4355 10ec 901F0018 		stw 0,24(31)
 4356              	.LBE3186:
 4357              	.LBE3215:
 4358              	.LBB3216:
 4359              	.LBB3208:
 4360              	.LBB3203:
 4361              	.LBB3199:
 4362              	.LBB3195:
 4363              		.loc 3 1121 0
 4364 10f0 7FA3EB78 		mr 3,29
 4365              	.LVL316:
 4366              	.LBE3195:
 4367              	.LBE3199:
 4368              	.LBE3203:
 4369              	.LBE3208:
 4370              	.LBE3216:
 4371              	.LBB3217:
 4372              	.LBB3187:
 4373              		.loc 2 140 0
 4374 10f4 901F001C 		stw 0,28(31)
 4375              	.LBE3187:
 4376              	.LBE3217:
 4377              	.LBB3218:
 4378              	.LBB3209:
 4379              	.LBB3204:
 4380              	.LBB3200:
 4381              	.LBB3196:
 4382              		.loc 3 1121 0
 4383 10f8 3884010C 		la 4,.LC22@l(4)
 4384              	.LBE3196:
 4385              	.LBE3200:
 4386              	.LBE3204:
 4387              	.LBE3209:
 4388              	.LBE3218:
 4389              	.LBB3219:
 4390              	.LBB3188:
 4391              		.loc 2 141 0
 4392 10fc 901F0024 		stw 0,36(31)
 4393              	.LBE3188:
 4394              	.LBE3219:
 4395              	.LBB3220:
 4396              	.LBB3210:
 4397              	.LBB3205:
 4398              	.LBB3201:
 4399              	.LBB3197:
 4400              		.loc 3 1121 0
 4401 1100 38A00000 		li 5,0
 4402              	.LBE3197:
 4403              	.LBE3201:
 4404              	.LBE3205:
 4405              	.LBE3210:
 4406              	.LBE3220:
 4407              	.LBB3221:
 4408              	.LBB3189:
 4409              		.loc 2 142 0
 4410 1104 901F0028 		stw 0,40(31)
 4411              	.LBE3189:
 4412              	.LBE3221:
 4413              		.loc 1 1222 0
 4414 1108 38090008 		la 0,_ZTV9TiXmlText+8@l(9)
 4415 110c 901F0000 		stw 0,0(31)
 4416              	.LVL317:
 4417              	.LEHB2:
 4418              	.LBB3222:
 4419              	.LBB3211:
 4420              	.LBB3206:
 4421              	.LBB3202:
 4422              	.LBB3198:
 4423              		.loc 3 1121 0
 4424 1110 48000001 		bl _ZNSs6assignEPKcj
 4425              	.LEHE2:
 4426              	.LBE3198:
 4427              	.LBE3202:
 4428              	.LBE3206:
 4429              	.LBE3211:
 4430              	.LBE3222:
 4431              	.LBE3160:
 4432              	.LBE3159:
 4433              	.LBB3225:
 4434              	.LBB3226:
 4435              	.LBB3227:
 4436              	.LBB3228:
 4437              	.LBB3229:
 4438              	.LBB3230:
 4439              	.LBB3231:
 4440              		.loc 3 288 0
 4441 1114 839E0020 		lwz 28,32(30)
 4442              	.LBE3231:
 4443              	.LBE3230:
 4444              	.LBE3229:
 4445              	.LBE3228:
 4446              	.LBE3227:
 4447              	.LBE3226:
 4448              	.LBE3225:
 4449              	.LBB3245:
 4450              	.LBB3223:
 4451              		.loc 1 1225 0
 4452 1118 38000000 		li 0,0
 4453 111c 981F002C 		stb 0,44(31)
 4454              	.LVL318:
 4455              	.LBE3223:
 4456              	.LBE3245:
 4457              	.LBB3246:
 4458              	.LBB3244:
 4459              	.LBB3242:
 4460              	.LBB3240:
 4461              	.LBB3232:
 4462              	.LBB3233:
 4463              	.LBB3234:
 4464              	.LBB3235:
 4465              	.LBB3236:
 4466              	.LBB3237:
 4467              		.loc 5 261 0
 4468 1120 7F83E378 		mr 3,28
 4469 1124 48000001 		bl strlen
 4470              	.LVL319:
 4471              	.LBE3237:
 4472              	.LBE3236:
 4473              		.loc 3 1121 0
 4474 1128 7F84E378 		mr 4,28
 4475              	.LBB3239:
 4476              	.LBB3238:
 4477              		.loc 5 261 0
 4478 112c 7C651B78 		mr 5,3
 4479              	.LBE3238:
 4480              	.LBE3239:
 4481              		.loc 3 1121 0
 4482 1130 7FA3EB78 		mr 3,29
 4483              	.LEHB3:
 4484 1134 48000001 		bl _ZNSs6assignEPKcj
 4485              	.LEHE3:
 4486              	.LBE3235:
 4487              	.LBE3234:
 4488              	.LBE3233:
 4489              	.LBE3232:
 4490              	.LBE3240:
 4491              	.LBE3242:
 4492              		.loc 2 1359 0
 4493 1138 881E002C 		lbz 0,44(30)
 4494              	.LBB3243:
 4495              	.LBB3241:
 4496              		.loc 2 164 0
 4497 113c 815E0004 		lwz 10,4(30)
 4498 1140 817E0008 		lwz 11,8(30)
 4499              		.loc 2 163 0
 4500 1144 813E000C 		lwz 9,12(30)
 4501              		.loc 2 164 0
 4502 1148 915F0004 		stw 10,4(31)
 4503              		.loc 2 163 0
 4504 114c 913F000C 		stw 9,12(31)
 4505              		.loc 2 164 0
 4506 1150 917F0008 		stw 11,8(31)
 4507              	.LBE3241:
 4508              	.LBE3243:
 4509              		.loc 2 1359 0
 4510 1154 981F002C 		stb 0,44(31)
 4511              	.LVL320:
 4512              	.L223:
 4513              	.LBE3244:
 4514              	.LBE3246:
 4515              	.LBE3250:
 4516              		.loc 2 1379 0
 4517 1158 8001001C 		lwz 0,28(1)
 4518 115c 7FE3FB78 		mr 3,31
 4519 1160 83810008 		lwz 28,8(1)
 4520 1164 7C0803A6 		mtlr 0
 4521 1168 83A1000C 		lwz 29,12(1)
 4522 116c 83C10010 		lwz 30,16(1)
 4523              	.LVL321:
 4524 1170 83E10014 		lwz 31,20(1)
 4525 1174 38210018 		addi 1,1,24
 4526              		.cfi_remember_state
 4527              	.LCFI55:
 4528              		.cfi_def_cfa_offset 0
 4529              		.cfi_restore 31
 4530              		.cfi_restore 30
 4531              		.cfi_restore 29
 4532              		.cfi_restore 28
 4533 1178 4E800020 		blr
 4534              	.LVL322:
 4535              	.L227:
 4536              	.LCFI56:
 4537              		.cfi_restore_state
 4538 117c 7C7E1B78 		mr 30,3
 4539              	.LVL323:
 4540              	.LBB3251:
 4541              	.LBB3247:
 4542              	.LBB3224:
 4543              		.loc 1 1222 0
 4544 1180 7FE3FB78 		mr 3,31
 4545 1184 48000001 		bl _ZN9TiXmlNodeD2Ev
 4546              	.LBE3224:
 4547              	.LBE3247:
 4548              		.loc 2 1372 0
 4549 1188 7FE3FB78 		mr 3,31
 4550 118c 7F84E378 		mr 4,28
 4551 1190 48000001 		bl _ZdlPvRKSt9nothrow_t
 4552 1194 7FC3F378 		mr 3,30
 4553              	.LEHB4:
 4554 1198 48000001 		bl _Unwind_Resume
 4555              	.LEHE4:
 4556              	.LBE3251:
 4557              		.cfi_endproc
 4558              	.LFE1331:
 4559              		.section	.gcc_except_table
 4560              	.LLSDA1331:
 4561 000e FF       		.byte	0xff
 4562 000f FF       		.byte	0xff
 4563 0010 01       		.byte	0x1
 4564 0011 10       		.uleb128 .LLSDACSE1331-.LLSDACSB1331
 4565              	.LLSDACSB1331:
 4566 0012 9801     		.uleb128 .LEHB2-.LFB1331
 4567 0014 04       		.uleb128 .LEHE2-.LEHB2
 4568 0015 8402     		.uleb128 .L227-.LFB1331
 4569 0017 00       		.uleb128 0
 4570 0018 BC01     		.uleb128 .LEHB3-.LFB1331
 4571 001a 04       		.uleb128 .LEHE3-.LEHB3
 4572 001b 00       		.uleb128 0
 4573 001c 00       		.uleb128 0
 4574 001d A002     		.uleb128 .LEHB4-.LFB1331
 4575 001f 04       		.uleb128 .LEHE4-.LEHB4
 4576 0020 00       		.uleb128 0
 4577 0021 00       		.uleb128 0
 4578              	.LLSDACSE1331:
 4579              		.section	".text"
 4580              		.size	_ZNK9TiXmlText5CloneEv, .-_ZNK9TiXmlText5CloneEv
 4581              		.section	.text._ZN12TiXmlPrinterD0Ev,"axG",@progbits,_ZN12TiXmlPrinterD5Ev,comdat
 4582              		.align 2
 4583              		.weak	_ZN12TiXmlPrinterD0Ev
 4584              		.type	_ZN12TiXmlPrinterD0Ev, @function
 4585              	_ZN12TiXmlPrinterD0Ev:
 4586              	.LFB1367:
 4587              		.loc 1 1739 0
 4588              		.cfi_startproc
 4589              	.LVL324:
 4590 0000 7C0802A6 		mflr 0
 4591 0004 9421FFE0 		stwu 1,-32(1)
 4592              	.LCFI57:
 4593              		.cfi_def_cfa_offset 32
 4594              		.cfi_register 65, 0
 4595              	.LBB3321:
 4596              	.LBB3322:
 4597              	.LBB3323:
 4598 0008 3D600000 		lis 11,_ZTV12TiXmlPrinter+8@ha
 4599              	.LBE3323:
 4600              	.LBE3322:
 4601              	.LBE3321:
 4602 000c 93C10018 		stw 30,24(1)
 4603              	.LBB3410:
 4604              	.LBB3405:
 4605              	.LBB3400:
 4606              	.LBB3324:
 4607              	.LBB3325:
 4608              	.LBB3326:
 4609              	.LBB3327:
 4610              	.LBB3328:
 4611              		.loc 3 235 0
 4612 0010 3FC00000 		lis 30,_ZNSs4_Rep20_S_empty_rep_storageE@ha
 4613              		.cfi_offset 30, -8
 4614              	.LBE3328:
 4615              	.LBE3327:
 4616              	.LBE3326:
 4617              	.LBE3325:
 4618              	.LBE3324:
 4619              	.LBE3400:
 4620              	.LBE3405:
 4621              	.LBE3410:
 4622              		.loc 1 1739 0
 4623 0014 90010024 		stw 0,36(1)
 4624              	.LBB3411:
 4625              	.LBB3406:
 4626              	.LBB3401:
 4627              	.LBB3352:
 4628              	.LBB3348:
 4629              	.LBB3344:
 4630              	.LBB3338:
 4631              	.LBB3335:
 4632              		.loc 3 235 0
 4633 0018 3BDE0000 		la 30,_ZNSs4_Rep20_S_empty_rep_storageE@l(30)
 4634              	.LBE3335:
 4635              	.LBE3338:
 4636              	.LBE3344:
 4637              	.LBE3348:
 4638              	.LBE3352:
 4639              	.LBE3401:
 4640              	.LBE3406:
 4641              	.LBE3411:
 4642              		.loc 1 1739 0
 4643 001c 93E1001C 		stw 31,28(1)
 4644              		.loc 1 1739 0
 4645 0020 7C7F1B78 		mr 31,3
 4646              		.cfi_offset 31, -4
 4647              		.cfi_offset 65, 4
 4648              	.LVL325:
 4649              	.LBB3412:
 4650              	.LBB3407:
 4651              	.LBB3402:
 4652              	.LBB3353:
 4653              	.LBB3349:
 4654              	.LBB3345:
 4655              	.LBB3339:
 4656              	.LBB3340:
 4657              	.LBB3341:
 4658              		.loc 3 288 0
 4659 0024 81230014 		lwz 9,20(3)
 4660              	.LBE3341:
 4661              	.LBE3340:
 4662              	.LBE3339:
 4663              	.LBE3345:
 4664              	.LBE3349:
 4665              	.LBE3353:
 4666              		.loc 1 1739 0
 4667 0028 380B0008 		la 0,_ZTV12TiXmlPrinter+8@l(11)
 4668 002c 901F0000 		stw 0,0(31)
 4669              	.LVL326:
 4670              	.LBB3354:
 4671              	.LBB3350:
 4672              	.LBB3346:
 4673              		.loc 3 534 0
 4674 0030 3869FFF4 		addi 3,9,-12
 4675              	.LVL327:
 4676              	.LBB3342:
 4677              	.LBB3336:
 4678              		.loc 3 235 0
 4679 0034 7F83F000 		cmpw 7,3,30
 4680 0038 409E0050 		bne- 7,.L250
 4681              	.LVL328:
 4682              	.L234:
 4683              	.LBE3336:
 4684              	.LBE3342:
 4685              	.LBE3346:
 4686              	.LBE3350:
 4687              	.LBE3354:
 4688              	.LBB3355:
 4689              	.LBB3356:
 4690              	.LBB3357:
 4691              	.LBB3358:
 4692              	.LBB3359:
 4693              	.LBB3360:
 4694              		.loc 3 288 0
 4695 003c 813F0010 		lwz 9,16(31)
 4696              	.LBE3360:
 4697              	.LBE3359:
 4698              	.LBE3358:
 4699              		.loc 3 534 0
 4700 0040 3869FFF4 		addi 3,9,-12
 4701              	.LVL329:
 4702              	.LBB3361:
 4703              	.LBB3362:
 4704              		.loc 3 235 0
 4705 0044 7F83F000 		cmpw 7,3,30
 4706 0048 409E0080 		bne- 7,.L251
 4707              	.LVL330:
 4708              	.L240:
 4709              	.LBE3362:
 4710              	.LBE3361:
 4711              	.LBE3357:
 4712              	.LBE3356:
 4713              	.LBE3355:
 4714              	.LBB3373:
 4715              	.LBB3374:
 4716              	.LBB3375:
 4717              	.LBB3376:
 4718              	.LBB3377:
 4719              	.LBB3378:
 4720              		.loc 3 288 0
 4721 004c 813F000C 		lwz 9,12(31)
 4722              	.LBE3378:
 4723              	.LBE3377:
 4724              	.LBE3376:
 4725              		.loc 3 534 0
 4726 0050 3869FFF4 		addi 3,9,-12
 4727              	.LVL331:
 4728              	.LBB3379:
 4729              	.LBB3380:
 4730              		.loc 3 235 0
 4731 0054 7F83F000 		cmpw 7,3,30
 4732 0058 409E0050 		bne- 7,.L252
 4733              	.LVL332:
 4734              	.L246:
 4735              	.LBE3380:
 4736              	.LBE3379:
 4737              	.LBE3375:
 4738              	.LBE3374:
 4739              	.LBE3373:
 4740              	.LBB3391:
 4741              	.LBB3392:
 4742              	.LBB3393:
 4743              		.loc 1 133 0
 4744 005c 3D200000 		lis 9,_ZTV12TiXmlVisitor+8@ha
 4745              	.LBE3393:
 4746              	.LBE3392:
 4747              	.LBE3391:
 4748              	.LBE3402:
 4749              	.LBE3407:
 4750              	.LBE3412:
 4751              		.loc 1 1739 0
 4752 0060 7FE3FB78 		mr 3,31
 4753              	.LBB3413:
 4754              	.LBB3408:
 4755              	.LBB3403:
 4756              	.LBB3396:
 4757              	.LBB3395:
 4758              	.LBB3394:
 4759              		.loc 1 133 0
 4760 0064 38090008 		la 0,_ZTV12TiXmlVisitor+8@l(9)
 4761 0068 901F0000 		stw 0,0(31)
 4762              	.LBE3394:
 4763              	.LBE3395:
 4764              	.LBE3396:
 4765              	.LBE3403:
 4766              	.LBE3408:
 4767              	.LBE3413:
 4768              		.loc 1 1739 0
 4769 006c 48000001 		bl _ZdlPv
 4770 0070 80010024 		lwz 0,36(1)
 4771 0074 83C10018 		lwz 30,24(1)
 4772 0078 7C0803A6 		mtlr 0
 4773 007c 83E1001C 		lwz 31,28(1)
 4774              	.LVL333:
 4775 0080 38210020 		addi 1,1,32
 4776              		.cfi_remember_state
 4777              	.LCFI58:
 4778              		.cfi_def_cfa_offset 0
 4779              		.cfi_restore 31
 4780              		.cfi_restore 30
 4781 0084 4E800020 		blr
 4782              	.LVL334:
 4783              	.L250:
 4784              	.LCFI59:
 4785              		.cfi_restore_state
 4786              	.LBB3414:
 4787              	.LBB3409:
 4788              	.LBB3404:
 4789              	.LBB3397:
 4790              	.LBB3351:
 4791              	.LBB3347:
 4792              	.LBB3343:
 4793              	.LBB3337:
 4794              	.LBB3329:
 4795              	.LBB3330:
 4796              	.LBB3331:
 4797              		.loc 6 66 0
 4798 0088 8169FFFC 		lwz 11,-4(9)
 4799              	.LVL335:
 4800              	.LBE3331:
 4801              	.LBE3330:
 4802              	.LBE3329:
 4803              		.loc 3 240 0
 4804 008c 2F8B0000 		cmpwi 7,11,0
 4805              	.LBB3334:
 4806              	.LBB3333:
 4807              	.LBB3332:
 4808              		.loc 6 67 0
 4809 0090 396BFFFF 		addi 11,11,-1
 4810 0094 9169FFFC 		stw 11,-4(9)
 4811              	.LBE3332:
 4812              	.LBE3333:
 4813              	.LBE3334:
 4814              		.loc 3 240 0
 4815 0098 419DFFA4 		bgt+ 7,.L234
 4816              		.loc 3 244 0
 4817 009c 3881000A 		addi 4,1,10
 4818 00a0 48000001 		bl _ZNSs4_Rep10_M_destroyERKSaIcE
 4819              	.LVL336:
 4820 00a4 4BFFFF98 		b .L234
 4821              	.LVL337:
 4822              	.L252:
 4823              	.LBE3337:
 4824              	.LBE3343:
 4825              	.LBE3347:
 4826              	.LBE3351:
 4827              	.LBE3397:
 4828              	.LBB3398:
 4829              	.LBB3390:
 4830              	.LBB3389:
 4831              	.LBB3388:
 4832              	.LBB3387:
 4833              	.LBB3381:
 4834              	.LBB3382:
 4835              	.LBB3383:
 4836              		.loc 6 66 0
 4837 00a8 8169FFFC 		lwz 11,-4(9)
 4838              	.LVL338:
 4839              	.LBE3383:
 4840              	.LBE3382:
 4841              	.LBE3381:
 4842              		.loc 3 240 0
 4843 00ac 2F8B0000 		cmpwi 7,11,0
 4844              	.LBB3386:
 4845              	.LBB3385:
 4846              	.LBB3384:
 4847              		.loc 6 67 0
 4848 00b0 396BFFFF 		addi 11,11,-1
 4849 00b4 9169FFFC 		stw 11,-4(9)
 4850              	.LBE3384:
 4851              	.LBE3385:
 4852              	.LBE3386:
 4853              		.loc 3 240 0
 4854 00b8 419DFFA4 		bgt+ 7,.L246
 4855              		.loc 3 244 0
 4856 00bc 38810008 		addi 4,1,8
 4857 00c0 48000001 		bl _ZNSs4_Rep10_M_destroyERKSaIcE
 4858              	.LVL339:
 4859 00c4 4BFFFF98 		b .L246
 4860              	.LVL340:
 4861              	.L251:
 4862              	.LBE3387:
 4863              	.LBE3388:
 4864              	.LBE3389:
 4865              	.LBE3390:
 4866              	.LBE3398:
 4867              	.LBB3399:
 4868              	.LBB3372:
 4869              	.LBB3371:
 4870              	.LBB3370:
 4871              	.LBB3369:
 4872              	.LBB3363:
 4873              	.LBB3364:
 4874              	.LBB3365:
 4875              		.loc 6 66 0
 4876 00c8 8169FFFC 		lwz 11,-4(9)
 4877              	.LVL341:
 4878              	.LBE3365:
 4879              	.LBE3364:
 4880              	.LBE3363:
 4881              		.loc 3 240 0
 4882 00cc 2F8B0000 		cmpwi 7,11,0
 4883              	.LBB3368:
 4884              	.LBB3367:
 4885              	.LBB3366:
 4886              		.loc 6 67 0
 4887 00d0 396BFFFF 		addi 11,11,-1
 4888 00d4 9169FFFC 		stw 11,-4(9)
 4889              	.LBE3366:
 4890              	.LBE3367:
 4891              	.LBE3368:
 4892              		.loc 3 240 0
 4893 00d8 419DFF74 		bgt+ 7,.L240
 4894              		.loc 3 244 0
 4895 00dc 38810009 		addi 4,1,9
 4896 00e0 48000001 		bl _ZNSs4_Rep10_M_destroyERKSaIcE
 4897              	.LVL342:
 4898 00e4 4BFFFF68 		b .L240
 4899              	.LBE3369:
 4900              	.LBE3370:
 4901              	.LBE3371:
 4902              	.LBE3372:
 4903              	.LBE3399:
 4904              	.LBE3404:
 4905              	.LBE3409:
 4906              	.LBE3414:
 4907              		.cfi_endproc
 4908              	.LFE1367:
 4909              		.size	_ZN12TiXmlPrinterD0Ev, .-_ZN12TiXmlPrinterD0Ev
 4910              		.section	".text"
 4911              		.align 2
 4912              		.type	_ZN17TiXmlAttributeSet12FindOrCreateEPKc.part.23, @function
 4913              	_ZN17TiXmlAttributeSet12FindOrCreateEPKc.part.23:
 4914              	.LFB1473:
 4915              		.loc 2 1589 0
 4916              		.cfi_startproc
 4917              		.cfi_personality 0,__gxx_personality_v0
 4918              		.cfi_lsda 0,.LLSDA1473
 4919              	.LVL343:
 4920 119c 9421FFD0 		stwu 1,-48(1)
 4921              	.LCFI60:
 4922              		.cfi_def_cfa_offset 48
 4923 11a0 7C0802A6 		mflr 0
 4924 11a4 93410018 		stw 26,24(1)
 4925 11a8 7C9A2378 		mr 26,4
 4926              		.cfi_offset 26, -24
 4927              		.cfi_register 65, 0
 4928              	.LBB3531:
 4929              		.loc 2 1593 0
 4930 11ac 3C800000 		lis 4,_ZSt7nothrow@ha
 4931              	.LVL344:
 4932              	.LBE3531:
 4933              		.loc 2 1589 0
 4934 11b0 93A10024 		stw 29,36(1)
 4935              	.LBB3620:
 4936              		.loc 2 1593 0
 4937 11b4 38840000 		la 4,_ZSt7nothrow@l(4)
 4938              	.LBE3620:
 4939              		.loc 2 1589 0
 4940 11b8 7C7D1B78 		mr 29,3
 4941              		.cfi_offset 29, -12
 4942              	.LBB3621:
 4943              		.loc 2 1593 0
 4944 11bc 38600024 		li 3,36
 4945              	.LVL345:
 4946              	.LBE3621:
 4947              		.loc 2 1589 0
 4948 11c0 93C10028 		stw 30,40(1)
 4949 11c4 90010034 		stw 0,52(1)
 4950 11c8 9361001C 		stw 27,28(1)
 4951 11cc 93810020 		stw 28,32(1)
 4952 11d0 93E1002C 		stw 31,44(1)
 4953              	.LBB3622:
 4954              		.loc 2 1593 0
 4955              		.cfi_offset 31, -4
 4956              		.cfi_offset 28, -16
 4957              		.cfi_offset 27, -20
 4958              		.cfi_offset 65, 4
 4959              		.cfi_offset 30, -8
 4960 11d4 48000001 		bl _ZnwjRKSt9nothrow_t
 4961 11d8 7C7E1B79 		mr. 30,3
 4962 11dc 418200FC 		beq- 0,.L254
 4963              	.LVL346:
 4964              	.LBB3532:
 4965              	.LBB3533:
 4966              	.LBB3534:
 4967              	.LBB3535:
 4968              	.LBB3536:
 4969              	.LBB3537:
 4970              	.LBB3538:
 4971              		.loc 1 104 0
 4972 11e0 3920FFFF 		li 9,-1
 4973              	.LBE3538:
 4974              	.LBE3537:
 4975              	.LBE3536:
 4976              	.LBE3535:
 4977              	.LBE3534:
 4978              	.LBB3547:
 4979              	.LBB3548:
 4980              	.LBB3549:
 4981              		.loc 3 270 0
 4982 11e4 3C800000 		lis 4,_ZNSs4_Rep20_S_empty_rep_storageE+12@ha
 4983              	.LBE3549:
 4984              	.LBE3548:
 4985              	.LBE3547:
 4986              	.LBB3554:
 4987              	.LBB3545:
 4988              	.LBB3543:
 4989              	.LBB3541:
 4990              	.LBB3539:
 4991              		.loc 1 104 0
 4992 11e8 913E0008 		stw 9,8(30)
 4993              	.LBE3539:
 4994              	.LBE3541:
 4995              	.LBE3543:
 4996              		.loc 1 203 0
 4997 11ec 38000000 		li 0,0
 4998              	.LBB3544:
 4999              	.LBB3542:
 5000              	.LBB3540:
 5001              		.loc 1 104 0
 5002 11f0 913E0004 		stw 9,4(30)
 5003              	.LBE3540:
 5004              	.LBE3542:
 5005              	.LBE3544:
 5006              	.LBE3545:
 5007              	.LBE3554:
 5008              		.loc 1 787 0
 5009 11f4 3D200000 		lis 9,_ZTV14TiXmlAttribute+8@ha
 5010              	.LBB3555:
 5011              	.LBB3552:
 5012              	.LBB3550:
 5013              		.loc 3 270 0
 5014 11f8 3884000C 		la 4,_ZNSs4_Rep20_S_empty_rep_storageE+12@l(4)
 5015              	.LBE3550:
 5016              	.LBE3552:
 5017              	.LBE3555:
 5018              		.loc 1 787 0
 5019 11fc 39290008 		la 9,_ZTV14TiXmlAttribute+8@l(9)
 5020              	.LBB3556:
 5021              	.LBB3546:
 5022              		.loc 1 203 0
 5023 1200 901E000C 		stw 0,12(30)
 5024              	.LBE3546:
 5025              	.LBE3556:
 5026              	.LBE3533:
 5027              	.LBE3532:
 5028              	.LBB3563:
 5029              	.LBB3564:
 5030              		.loc 2 1520 0
 5031 1204 3861000C 		addi 3,1,12
 5032              	.LVL347:
 5033              	.LBE3564:
 5034              	.LBE3563:
 5035              	.LBB3598:
 5036              	.LBB3561:
 5037              		.loc 1 787 0
 5038 1208 913E0000 		stw 9,0(30)
 5039              	.LVL348:
 5040              	.LBE3561:
 5041              	.LBE3598:
 5042              	.LBB3599:
 5043              	.LBB3594:
 5044              		.loc 2 1520 0
 5045 120c 38A10009 		addi 5,1,9
 5046              	.LBE3594:
 5047              	.LBE3599:
 5048              	.LBB3600:
 5049              	.LBB3562:
 5050              	.LBB3557:
 5051              	.LBB3553:
 5052              	.LBB3551:
 5053              		.loc 3 270 0
 5054 1210 909E0014 		stw 4,20(30)
 5055              	.LVL349:
 5056              	.LBE3551:
 5057              	.LBE3553:
 5058              	.LBE3557:
 5059              	.LBB3558:
 5060              	.LBB3559:
 5061              	.LBB3560:
 5062 1214 909E0018 		stw 4,24(30)
 5063              	.LBE3560:
 5064              	.LBE3559:
 5065              	.LBE3558:
 5066              		.loc 1 789 0
 5067 1218 901E0010 		stw 0,16(30)
 5068              		.loc 1 790 0
 5069 121c 901E0020 		stw 0,32(30)
 5070 1220 901E001C 		stw 0,28(30)
 5071              	.LVL350:
 5072              	.LEHB5:
 5073              	.LBE3562:
 5074              	.LBE3600:
 5075              	.LBB3601:
 5076              	.LBB3595:
 5077              		.loc 2 1520 0
 5078 1224 48000001 		bl _ZNSsC1EPKcRKSaIcE
 5079              	.LEHE5:
 5080              	.LVL351:
 5081              	.LBB3565:
 5082              	.LBB3566:
 5083              		.loc 2 1554 0
 5084 1228 83FD0020 		lwz 31,32(29)
 5085              	.LVL352:
 5086 122c 8361000C 		lwz 27,12(1)
 5087 1230 7F9FE800 		cmpw 7,31,29
 5088 1234 419E0060 		beq- 7,.L271
 5089 1238 839BFFF4 		lwz 28,-12(27)
 5090 123c 48000010 		b .L270
 5091              	.LVL353:
 5092              	.L260:
 5093 1240 83FF0020 		lwz 31,32(31)
 5094              	.LVL354:
 5095 1244 7F9DF800 		cmpw 7,29,31
 5096 1248 419E004C 		beq- 7,.L271
 5097              	.LVL355:
 5098              	.L270:
 5099              	.LBB3567:
 5100              	.LBB3568:
 5101              	.LBB3569:
 5102              	.LBB3570:
 5103              	.LBB3571:
 5104              	.LBB3572:
 5105              	.LBB3573:
 5106              		.loc 3 288 0
 5107 124c 807F0014 		lwz 3,20(31)
 5108              	.LVL356:
 5109              	.LBE3573:
 5110              	.LBE3572:
 5111              	.LBE3571:
 5112              	.LBE3570:
 5113              	.LBE3569:
 5114              		.loc 3 2438 0
 5115 1250 8003FFF4 		lwz 0,-12(3)
 5116 1254 7F80E000 		cmpw 7,0,28
 5117 1258 409EFFE8 		bne+ 7,.L260
 5118              	.LVL357:
 5119              	.LBB3574:
 5120              	.LBB3575:
 5121              		.loc 5 257 0
 5122 125c 7F64DB78 		mr 4,27
 5123 1260 7F85E378 		mr 5,28
 5124 1264 48000001 		bl memcmp
 5125              	.LVL358:
 5126              	.LBE3575:
 5127              	.LBE3574:
 5128              		.loc 3 2438 0
 5129 1268 2F830000 		cmpwi 7,3,0
 5130 126c 40BEFFD4 		bne- 7,.L260
 5131              	.LBE3568:
 5132              	.LBE3567:
 5133              	.LBE3566:
 5134              	.LBE3565:
 5135              		.loc 2 1520 0
 5136 1270 3CA00000 		lis 5,.LANCHOR0@ha
 5137 1274 3C600000 		lis 3,.LC1@ha
 5138 1278 38A50000 		la 5,.LANCHOR0@l(5)
 5139 127c 3CC00000 		lis 6,.LC23@ha
 5140 1280 38630008 		la 3,.LC1@l(3)
 5141 1284 388005F0 		li 4,1520
 5142 1288 38A50068 		addi 5,5,104
 5143 128c 38C60110 		la 6,.LC23@l(6)
 5144              	.LEHB6:
 5145 1290 48000001 		bl __assert_func
 5146              	.LEHE6:
 5147              	.LVL359:
 5148              	.L271:
 5149              	.LBB3576:
 5150              	.LBB3577:
 5151              	.LBB3578:
 5152              	.LBB3579:
 5153              	.LBB3580:
 5154              		.loc 3 235 0
 5155 1294 3D200000 		lis 9,_ZNSs4_Rep20_S_empty_rep_storageE@ha
 5156              	.LBE3580:
 5157              	.LBE3579:
 5158              		.loc 3 534 0
 5159 1298 387BFFF4 		addi 3,27,-12
 5160              	.LVL360:
 5161              	.LBB3589:
 5162              	.LBB3587:
 5163              		.loc 3 235 0
 5164 129c 38090000 		la 0,_ZNSs4_Rep20_S_empty_rep_storageE@l(9)
 5165 12a0 7F830000 		cmpw 7,3,0
 5166 12a4 409E0074 		bne- 7,.L274
 5167              	.LVL361:
 5168              	.L268:
 5169              	.LBE3587:
 5170              	.LBE3589:
 5171              	.LBE3578:
 5172              	.LBE3577:
 5173              	.LBE3576:
 5174              		.loc 2 1526 0
 5175 12a8 801D001C 		lwz 0,28(29)
 5176              	.LBE3595:
 5177              	.LBE3601:
 5178              	.LBB3602:
 5179              	.LBB3603:
 5180              	.LBB3604:
 5181              	.LBB3605:
 5182              	.LBB3606:
 5183              	.LBB3607:
 5184              	.LBB3608:
 5185              		.loc 5 261 0
 5186 12ac 7F43D378 		mr 3,26
 5187              	.LBE3608:
 5188              	.LBE3607:
 5189              	.LBE3606:
 5190              	.LBE3605:
 5191              	.LBE3604:
 5192              	.LBE3603:
 5193              	.LBE3602:
 5194              	.LBB3617:
 5195              	.LBB3596:
 5196              		.loc 2 1525 0
 5197 12b0 93BE0020 		stw 29,32(30)
 5198              		.loc 2 1526 0
 5199 12b4 901E001C 		stw 0,28(30)
 5200              		.loc 2 1528 0
 5201 12b8 813D001C 		lwz 9,28(29)
 5202              		.loc 2 1529 0
 5203 12bc 93DD001C 		stw 30,28(29)
 5204              	.LVL362:
 5205              		.loc 2 1528 0
 5206 12c0 93C90020 		stw 30,32(9)
 5207              	.LBE3596:
 5208              	.LBE3617:
 5209              	.LBB3618:
 5210              	.LBB3616:
 5211              	.LBB3615:
 5212              	.LBB3614:
 5213              	.LBB3613:
 5214              	.LBB3611:
 5215              	.LBB3609:
 5216              		.loc 5 261 0
 5217 12c4 48000001 		bl strlen
 5218              	.LBE3609:
 5219              	.LBE3611:
 5220              		.loc 3 1121 0
 5221 12c8 7F44D378 		mr 4,26
 5222              	.LBB3612:
 5223              	.LBB3610:
 5224              		.loc 5 261 0
 5225 12cc 7C651B78 		mr 5,3
 5226              	.LBE3610:
 5227              	.LBE3612:
 5228              		.loc 3 1121 0
 5229 12d0 387E0014 		addi 3,30,20
 5230              	.LEHB7:
 5231 12d4 48000001 		bl _ZNSs6assignEPKcj
 5232              	.LVL363:
 5233              	.L254:
 5234              	.LBE3613:
 5235              	.LBE3614:
 5236              	.LBE3615:
 5237              	.LBE3616:
 5238              	.LBE3618:
 5239              	.LBE3622:
 5240              		.loc 2 1601 0
 5241 12d8 80010034 		lwz 0,52(1)
 5242 12dc 7FC3F378 		mr 3,30
 5243 12e0 83410018 		lwz 26,24(1)
 5244              	.LVL364:
 5245 12e4 7C0803A6 		mtlr 0
 5246 12e8 8361001C 		lwz 27,28(1)
 5247 12ec 83810020 		lwz 28,32(1)
 5248 12f0 83A10024 		lwz 29,36(1)
 5249              	.LVL365:
 5250 12f4 83C10028 		lwz 30,40(1)
 5251              	.LVL366:
 5252 12f8 83E1002C 		lwz 31,44(1)
 5253 12fc 38210030 		addi 1,1,48
 5254              		.cfi_remember_state
 5255              	.LCFI61:
 5256              		.cfi_def_cfa_offset 0
 5257              		.cfi_restore 31
 5258              		.cfi_restore 30
 5259              		.cfi_restore 29
 5260              		.cfi_restore 28
 5261              		.cfi_restore 27
 5262              		.cfi_restore 26
 5263 1300 4E800020 		blr
 5264              	.LVL367:
 5265              	.L272:
 5266              	.LCFI62:
 5267              		.cfi_restore_state
 5268 1304 7C7F1B78 		mr 31,3
 5269              	.LVL368:
 5270              	.LBB3623:
 5271              	.LBB3619:
 5272              	.LBB3597:
 5273              		.loc 2 1520 0
 5274 1308 3861000C 		addi 3,1,12
 5275              	.LVL369:
 5276 130c 48000001 		bl _ZNSsD1Ev
 5277              	.LVL370:
 5278 1310 7FE3FB78 		mr 3,31
 5279 1314 48000001 		bl _Unwind_Resume
 5280              	.LEHE7:
 5281              	.LVL371:
 5282              	.L274:
 5283              	.LBB3593:
 5284              	.LBB3592:
 5285              	.LBB3591:
 5286              	.LBB3590:
 5287              	.LBB3588:
 5288              	.LBB3581:
 5289              	.LBB3582:
 5290              	.LBB3583:
 5291              		.loc 6 66 0
 5292 1318 813BFFFC 		lwz 9,-4(27)
 5293              	.LVL372:
 5294              	.LBE3583:
 5295              	.LBE3582:
 5296              	.LBE3581:
 5297              		.loc 3 240 0
 5298 131c 2F890000 		cmpwi 7,9,0
 5299              	.LBB3586:
 5300              	.LBB3585:
 5301              	.LBB3584:
 5302              		.loc 6 67 0
 5303 1320 3929FFFF 		addi 9,9,-1
 5304 1324 913BFFFC 		stw 9,-4(27)
 5305              	.LBE3584:
 5306              	.LBE3585:
 5307              	.LBE3586:
 5308              		.loc 3 240 0
 5309 1328 419DFF80 		bgt+ 7,.L268
 5310              		.loc 3 244 0
 5311 132c 38810008 		addi 4,1,8
 5312 1330 48000001 		bl _ZNSs4_Rep10_M_destroyERKSaIcE
 5313              	.LVL373:
 5314 1334 4BFFFF74 		b .L268
 5315              	.LBE3588:
 5316              	.LBE3590:
 5317              	.LBE3591:
 5318              	.LBE3592:
 5319              	.LBE3593:
 5320              	.LBE3597:
 5321              	.LBE3619:
 5322              	.LBE3623:
 5323              		.cfi_endproc
 5324              	.LFE1473:
 5325              		.section	.gcc_except_table
 5326              	.LLSDA1473:
 5327 0022 FF       		.byte	0xff
 5328 0023 FF       		.byte	0xff
 5329 0024 01       		.byte	0x1
 5330 0025 10       		.uleb128 .LLSDACSE1473-.LLSDACSB1473
 5331              	.LLSDACSB1473:
 5332 0026 8801     		.uleb128 .LEHB5-.LFB1473
 5333 0028 04       		.uleb128 .LEHE5-.LEHB5
 5334 0029 00       		.uleb128 0
 5335 002a 00       		.uleb128 0
 5336 002b F401     		.uleb128 .LEHB6-.LFB1473
 5337 002d 04       		.uleb128 .LEHE6-.LEHB6
 5338 002e E802     		.uleb128 .L272-.LFB1473
 5339 0030 00       		.uleb128 0
 5340 0031 B802     		.uleb128 .LEHB7-.LFB1473
 5341 0033 44       		.uleb128 .LEHE7-.LEHB7
 5342 0034 00       		.uleb128 0
 5343 0035 00       		.uleb128 0
 5344              	.LLSDACSE1473:
 5345              		.section	".text"
 5346              		.size	_ZN17TiXmlAttributeSet12FindOrCreateEPKc.part.23, .-_ZN17TiXmlAttributeSet12FindOrCreateEPKc
 5347              		.align 2
 5348              		.type	_ZN17TiXmlAttributeSet12FindOrCreateERKSs.part.24, @function
 5349              	_ZN17TiXmlAttributeSet12FindOrCreateERKSs.part.24:
 5350              	.LFB1474:
 5351              		.loc 2 1562 0
 5352              		.cfi_startproc
 5353              		.cfi_personality 0,__gxx_personality_v0
 5354              		.cfi_lsda 0,.LLSDA1474
 5355              	.LVL374:
 5356 1338 9421FFD0 		stwu 1,-48(1)
 5357              	.LCFI63:
 5358              		.cfi_def_cfa_offset 48
 5359 133c 7C0802A6 		mflr 0
 5360 1340 93410018 		stw 26,24(1)
 5361 1344 7C9A2378 		mr 26,4
 5362              		.cfi_offset 26, -24
 5363              		.cfi_register 65, 0
 5364              	.LBB3710:
 5365              		.loc 2 1566 0
 5366 1348 3C800000 		lis 4,_ZSt7nothrow@ha
 5367              	.LVL375:
 5368              	.LBE3710:
 5369              		.loc 2 1562 0
 5370 134c 93A10024 		stw 29,36(1)
 5371              	.LBB3797:
 5372              		.loc 2 1566 0
 5373 1350 38840000 		la 4,_ZSt7nothrow@l(4)
 5374              	.LBE3797:
 5375              		.loc 2 1562 0
 5376 1354 7C7D1B78 		mr 29,3
 5377              		.cfi_offset 29, -12
 5378              	.LBB3798:
 5379              		.loc 2 1566 0
 5380 1358 38600024 		li 3,36
 5381              	.LVL376:
 5382              	.LBE3798:
 5383              		.loc 2 1562 0
 5384 135c 93C10028 		stw 30,40(1)
 5385 1360 90010034 		stw 0,52(1)
 5386 1364 9361001C 		stw 27,28(1)
 5387 1368 93810020 		stw 28,32(1)
 5388 136c 93E1002C 		stw 31,44(1)
 5389              	.LBB3799:
 5390              		.loc 2 1566 0
 5391              		.cfi_offset 31, -4
 5392              		.cfi_offset 28, -16
 5393              		.cfi_offset 27, -20
 5394              		.cfi_offset 65, 4
 5395              		.cfi_offset 30, -8
 5396 1370 48000001 		bl _ZnwjRKSt9nothrow_t
 5397 1374 7C7E1B79 		mr. 30,3
 5398 1378 418200F0 		beq- 0,.L276
 5399              	.LVL377:
 5400              	.LBB3711:
 5401              	.LBB3712:
 5402              	.LBB3713:
 5403              	.LBB3714:
 5404              	.LBB3715:
 5405              	.LBB3716:
 5406              	.LBB3717:
 5407              		.loc 1 104 0
 5408 137c 3920FFFF 		li 9,-1
 5409              	.LBE3717:
 5410              	.LBE3716:
 5411              	.LBE3715:
 5412              	.LBE3714:
 5413              	.LBE3713:
 5414              	.LBB3726:
 5415              	.LBB3727:
 5416              	.LBB3728:
 5417              		.loc 3 270 0
 5418 1380 3C800000 		lis 4,_ZNSs4_Rep20_S_empty_rep_storageE+12@ha
 5419              	.LBE3728:
 5420              	.LBE3727:
 5421              	.LBE3726:
 5422              	.LBB3733:
 5423              	.LBB3724:
 5424              	.LBB3722:
 5425              	.LBB3720:
 5426              	.LBB3718:
 5427              		.loc 1 104 0
 5428 1384 913E0008 		stw 9,8(30)
 5429              	.LBE3718:
 5430              	.LBE3720:
 5431              	.LBE3722:
 5432              		.loc 1 203 0
 5433 1388 38000000 		li 0,0
 5434              	.LBB3723:
 5435              	.LBB3721:
 5436              	.LBB3719:
 5437              		.loc 1 104 0
 5438 138c 913E0004 		stw 9,4(30)
 5439              	.LBE3719:
 5440              	.LBE3721:
 5441              	.LBE3723:
 5442              	.LBE3724:
 5443              	.LBE3733:
 5444              		.loc 1 787 0
 5445 1390 3D200000 		lis 9,_ZTV14TiXmlAttribute+8@ha
 5446              	.LBB3734:
 5447              	.LBB3731:
 5448              	.LBB3729:
 5449              		.loc 3 270 0
 5450 1394 3884000C 		la 4,_ZNSs4_Rep20_S_empty_rep_storageE+12@l(4)
 5451              	.LBE3729:
 5452              	.LBE3731:
 5453              	.LBE3734:
 5454              		.loc 1 787 0
 5455 1398 39290008 		la 9,_ZTV14TiXmlAttribute+8@l(9)
 5456              	.LBB3735:
 5457              	.LBB3725:
 5458              		.loc 1 203 0
 5459 139c 901E000C 		stw 0,12(30)
 5460              	.LBE3725:
 5461              	.LBE3735:
 5462              	.LBE3712:
 5463              	.LBE3711:
 5464              	.LBB3742:
 5465              	.LBB3743:
 5466              		.loc 2 1520 0
 5467 13a0 3861000C 		addi 3,1,12
 5468              	.LVL378:
 5469              	.LBE3743:
 5470              	.LBE3742:
 5471              	.LBB3778:
 5472              	.LBB3740:
 5473              		.loc 1 787 0
 5474 13a4 913E0000 		stw 9,0(30)
 5475              	.LVL379:
 5476              	.LBE3740:
 5477              	.LBE3778:
 5478              	.LBB3779:
 5479              	.LBB3773:
 5480              		.loc 2 1520 0
 5481 13a8 38A10009 		addi 5,1,9
 5482              	.LBE3773:
 5483              	.LBE3779:
 5484              	.LBB3780:
 5485              	.LBB3741:
 5486              	.LBB3736:
 5487              	.LBB3732:
 5488              	.LBB3730:
 5489              		.loc 3 270 0
 5490 13ac 909E0014 		stw 4,20(30)
 5491              	.LVL380:
 5492              	.LBE3730:
 5493              	.LBE3732:
 5494              	.LBE3736:
 5495              	.LBB3737:
 5496              	.LBB3738:
 5497              	.LBB3739:
 5498 13b0 909E0018 		stw 4,24(30)
 5499              	.LBE3739:
 5500              	.LBE3738:
 5501              	.LBE3737:
 5502              		.loc 1 789 0
 5503 13b4 901E0010 		stw 0,16(30)
 5504              		.loc 1 790 0
 5505 13b8 901E0020 		stw 0,32(30)
 5506 13bc 901E001C 		stw 0,28(30)
 5507              	.LVL381:
 5508              	.LEHB8:
 5509              	.LBE3741:
 5510              	.LBE3780:
 5511              	.LBB3781:
 5512              	.LBB3774:
 5513              		.loc 2 1520 0
 5514 13c0 48000001 		bl _ZNSsC1EPKcRKSaIcE
 5515              	.LEHE8:
 5516              	.LVL382:
 5517              	.LBB3744:
 5518              	.LBB3745:
 5519              		.loc 2 1554 0
 5520 13c4 83FD0020 		lwz 31,32(29)
 5521              	.LVL383:
 5522 13c8 8361000C 		lwz 27,12(1)
 5523 13cc 7F9FE800 		cmpw 7,31,29
 5524 13d0 419E0060 		beq- 7,.L293
 5525 13d4 839BFFF4 		lwz 28,-12(27)
 5526 13d8 48000010 		b .L292
 5527              	.LVL384:
 5528              	.L282:
 5529 13dc 83FF0020 		lwz 31,32(31)
 5530              	.LVL385:
 5531 13e0 7F9DF800 		cmpw 7,29,31
 5532 13e4 419E004C 		beq- 7,.L293
 5533              	.LVL386:
 5534              	.L292:
 5535              	.LBB3746:
 5536              	.LBB3747:
 5537              	.LBB3748:
 5538              	.LBB3749:
 5539              	.LBB3750:
 5540              	.LBB3751:
 5541              	.LBB3752:
 5542              		.loc 3 288 0
 5543 13e8 807F0014 		lwz 3,20(31)
 5544              	.LVL387:
 5545              	.LBE3752:
 5546              	.LBE3751:
 5547              	.LBE3750:
 5548              	.LBE3749:
 5549              	.LBE3748:
 5550              		.loc 3 2438 0
 5551 13ec 8003FFF4 		lwz 0,-12(3)
 5552 13f0 7F80E000 		cmpw 7,0,28
 5553 13f4 409EFFE8 		bne+ 7,.L282
 5554              	.LVL388:
 5555              	.LBB3753:
 5556              	.LBB3754:
 5557              		.loc 5 257 0
 5558 13f8 7F64DB78 		mr 4,27
 5559 13fc 7F85E378 		mr 5,28
 5560 1400 48000001 		bl memcmp
 5561              	.LVL389:
 5562              	.LBE3754:
 5563              	.LBE3753:
 5564              		.loc 3 2438 0
 5565 1404 2F830000 		cmpwi 7,3,0
 5566 1408 40BEFFD4 		bne- 7,.L282
 5567              	.LBE3747:
 5568              	.LBE3746:
 5569              	.LBE3745:
 5570              	.LBE3744:
 5571              		.loc 2 1520 0
 5572 140c 3CA00000 		lis 5,.LANCHOR0@ha
 5573 1410 3C600000 		lis 3,.LC1@ha
 5574 1414 38A50000 		la 5,.LANCHOR0@l(5)
 5575 1418 3CC00000 		lis 6,.LC23@ha
 5576 141c 38630008 		la 3,.LC1@l(3)
 5577 1420 388005F0 		li 4,1520
 5578 1424 38A50068 		addi 5,5,104
 5579 1428 38C60110 		la 6,.LC23@l(6)
 5580              	.LEHB9:
 5581 142c 48000001 		bl __assert_func
 5582              	.LEHE9:
 5583              	.LVL390:
 5584              	.L293:
 5585              	.LBB3755:
 5586              	.LBB3756:
 5587              	.LBB3757:
 5588              	.LBB3758:
 5589              	.LBB3759:
 5590              		.loc 3 235 0
 5591 1430 3D200000 		lis 9,_ZNSs4_Rep20_S_empty_rep_storageE@ha
 5592              	.LBE3759:
 5593              	.LBE3758:
 5594              		.loc 3 534 0
 5595 1434 387BFFF4 		addi 3,27,-12
 5596              	.LVL391:
 5597              	.LBB3768:
 5598              	.LBB3766:
 5599              		.loc 3 235 0
 5600 1438 38090000 		la 0,_ZNSs4_Rep20_S_empty_rep_storageE@l(9)
 5601 143c 7F830000 		cmpw 7,3,0
 5602 1440 409E0068 		bne- 7,.L296
 5603              	.LVL392:
 5604              	.L290:
 5605              	.LBE3766:
 5606              	.LBE3768:
 5607              	.LBE3757:
 5608              	.LBE3756:
 5609              	.LBE3755:
 5610              		.loc 2 1526 0
 5611 1444 801D001C 		lwz 0,28(29)
 5612              	.LBE3774:
 5613              	.LBE3781:
 5614              	.LBB3782:
 5615              	.LBB3783:
 5616              	.LBB3784:
 5617              	.LBB3785:
 5618              		.loc 3 542 0
 5619 1448 387E0014 		addi 3,30,20
 5620              	.LBE3785:
 5621              	.LBE3784:
 5622              	.LBE3783:
 5623              	.LBE3782:
 5624              	.LBB3792:
 5625              	.LBB3775:
 5626              		.loc 2 1525 0
 5627 144c 93BE0020 		stw 29,32(30)
 5628              	.LBE3775:
 5629              	.LBE3792:
 5630              	.LBB3793:
 5631              	.LBB3790:
 5632              	.LBB3788:
 5633              	.LBB3786:
 5634              		.loc 3 542 0
 5635 1450 7F44D378 		mr 4,26
 5636              	.LBE3786:
 5637              	.LBE3788:
 5638              	.LBE3790:
 5639              	.LBE3793:
 5640              	.LBB3794:
 5641              	.LBB3776:
 5642              		.loc 2 1526 0
 5643 1454 901E001C 		stw 0,28(30)
 5644              		.loc 2 1528 0
 5645 1458 813D001C 		lwz 9,28(29)
 5646              		.loc 2 1529 0
 5647 145c 93DD001C 		stw 30,28(29)
 5648              	.LVL393:
 5649              		.loc 2 1528 0
 5650 1460 93C90020 		stw 30,32(9)
 5651              	.LEHB10:
 5652              	.LBE3776:
 5653              	.LBE3794:
 5654              	.LBB3795:
 5655              	.LBB3791:
 5656              	.LBB3789:
 5657              	.LBB3787:
 5658              		.loc 3 542 0
 5659 1464 48000001 		bl _ZNSs6assignERKSs
 5660              	.LVL394:
 5661              	.L276:
 5662              	.LBE3787:
 5663              	.LBE3789:
 5664              	.LBE3791:
 5665              	.LBE3795:
 5666              	.LBE3799:
 5667              		.loc 2 1574 0
 5668 1468 80010034 		lwz 0,52(1)
 5669 146c 7FC3F378 		mr 3,30
 5670 1470 83410018 		lwz 26,24(1)
 5671              	.LVL395:
 5672 1474 7C0803A6 		mtlr 0
 5673 1478 8361001C 		lwz 27,28(1)
 5674 147c 83810020 		lwz 28,32(1)
 5675 1480 83A10024 		lwz 29,36(1)
 5676              	.LVL396:
 5677 1484 83C10028 		lwz 30,40(1)
 5678              	.LVL397:
 5679 1488 83E1002C 		lwz 31,44(1)
 5680 148c 38210030 		addi 1,1,48
 5681              		.cfi_remember_state
 5682              	.LCFI64:
 5683              		.cfi_def_cfa_offset 0
 5684              		.cfi_restore 31
 5685              		.cfi_restore 30
 5686              		.cfi_restore 29
 5687              		.cfi_restore 28
 5688              		.cfi_restore 27
 5689              		.cfi_restore 26
 5690 1490 4E800020 		blr
 5691              	.LVL398:
 5692              	.L294:
 5693              	.LCFI65:
 5694              		.cfi_restore_state
 5695 1494 7C7F1B78 		mr 31,3
 5696              	.LVL399:
 5697              	.LBB3800:
 5698              	.LBB3796:
 5699              	.LBB3777:
 5700              		.loc 2 1520 0
 5701 1498 3861000C 		addi 3,1,12
 5702              	.LVL400:
 5703 149c 48000001 		bl _ZNSsD1Ev
 5704              	.LVL401:
 5705 14a0 7FE3FB78 		mr 3,31
 5706 14a4 48000001 		bl _Unwind_Resume
 5707              	.LEHE10:
 5708              	.LVL402:
 5709              	.L296:
 5710              	.LBB3772:
 5711              	.LBB3771:
 5712              	.LBB3770:
 5713              	.LBB3769:
 5714              	.LBB3767:
 5715              	.LBB3760:
 5716              	.LBB3761:
 5717              	.LBB3762:
 5718              		.loc 6 66 0
 5719 14a8 813BFFFC 		lwz 9,-4(27)
 5720              	.LVL403:
 5721              	.LBE3762:
 5722              	.LBE3761:
 5723              	.LBE3760:
 5724              		.loc 3 240 0
 5725 14ac 2F890000 		cmpwi 7,9,0
 5726              	.LBB3765:
 5727              	.LBB3764:
 5728              	.LBB3763:
 5729              		.loc 6 67 0
 5730 14b0 3929FFFF 		addi 9,9,-1
 5731 14b4 913BFFFC 		stw 9,-4(27)
 5732              	.LBE3763:
 5733              	.LBE3764:
 5734              	.LBE3765:
 5735              		.loc 3 240 0
 5736 14b8 419DFF8C 		bgt+ 7,.L290
 5737              		.loc 3 244 0
 5738 14bc 38810008 		addi 4,1,8
 5739 14c0 48000001 		bl _ZNSs4_Rep10_M_destroyERKSaIcE
 5740              	.LVL404:
 5741 14c4 4BFFFF80 		b .L290
 5742              	.LBE3767:
 5743              	.LBE3769:
 5744              	.LBE3770:
 5745              	.LBE3771:
 5746              	.LBE3772:
 5747              	.LBE3777:
 5748              	.LBE3796:
 5749              	.LBE3800:
 5750              		.cfi_endproc
 5751              	.LFE1474:
 5752              		.section	.gcc_except_table
 5753              	.LLSDA1474:
 5754 0036 FF       		.byte	0xff
 5755 0037 FF       		.byte	0xff
 5756 0038 01       		.byte	0x1
 5757 0039 10       		.uleb128 .LLSDACSE1474-.LLSDACSB1474
 5758              	.LLSDACSB1474:
 5759 003a 8801     		.uleb128 .LEHB8-.LFB1474
 5760 003c 04       		.uleb128 .LEHE8-.LEHB8
 5761 003d 00       		.uleb128 0
 5762 003e 00       		.uleb128 0
 5763 003f F401     		.uleb128 .LEHB9-.LFB1474
 5764 0041 04       		.uleb128 .LEHE9-.LEHB9
 5765 0042 DC02     		.uleb128 .L294-.LFB1474
 5766 0044 00       		.uleb128 0
 5767 0045 AC02     		.uleb128 .LEHB10-.LFB1474
 5768 0047 44       		.uleb128 .LEHE10-.LEHB10
 5769 0048 00       		.uleb128 0
 5770 0049 00       		.uleb128 0
 5771              	.LLSDACSE1474:
 5772              		.section	".text"
 5773              		.size	_ZN17TiXmlAttributeSet12FindOrCreateERKSs.part.24, .-_ZN17TiXmlAttributeSet12FindOrCreateERK
 5774              		.align 2
 5775              		.globl _ZNK9TiXmlText5PrintEP7__sFILEi
 5776              		.type	_ZNK9TiXmlText5PrintEP7__sFILEi, @function
 5777              	_ZNK9TiXmlText5PrintEP7__sFILEi:
 5778              	.LFB1328:
 5779              		.loc 2 1336 0
 5780              		.cfi_startproc
 5781              		.cfi_personality 0,__gxx_personality_v0
 5782              		.cfi_lsda 0,.LLSDA1328
 5783              	.LVL405:
 5784 14c8 9421FFD8 		stwu 1,-40(1)
 5785              	.LCFI66:
 5786              		.cfi_def_cfa_offset 40
 5787 14cc 7C0802A6 		mflr 0
 5788 14d0 93E10024 		stw 31,36(1)
 5789              	.LBB3854:
 5790              		.loc 2 1337 0
 5791 14d4 7C9F2379 		mr. 31,4
 5792              		.cfi_offset 31, -4
 5793              		.cfi_register 65, 0
 5794              	.LBE3854:
 5795              		.loc 2 1336 0
 5796 14d8 93810018 		stw 28,24(1)
 5797 14dc 7CBC2B78 		mr 28,5
 5798              		.cfi_offset 28, -16
 5799 14e0 93A1001C 		stw 29,28(1)
 5800 14e4 7C7D1B78 		mr 29,3
 5801              		.cfi_offset 29, -12
 5802 14e8 9001002C 		stw 0,44(1)
 5803 14ec 93C10020 		stw 30,32(1)
 5804              	.LBB3886:
 5805              		.loc 2 1337 0
 5806 14f0 418200D4 		beq- 0,.L313
 5807              		.cfi_offset 30, -8
 5808              		.cfi_offset 65, 4
 5809              	.LBB3855:
 5810              		.loc 2 1338 0
 5811 14f4 8803002C 		lbz 0,44(3)
 5812 14f8 2F800000 		cmpwi 7,0,0
 5813 14fc 409E0064 		bne- 7,.L314
 5814              	.LVL406:
 5815              	.LBB3856:
 5816              	.LBB3857:
 5817              	.LBB3858:
 5818              	.LBB3859:
 5819              		.loc 3 270 0
 5820 1500 3D200000 		lis 9,_ZNSs4_Rep20_S_empty_rep_storageE+12@ha
 5821 1504 7C3E0B78 		mr 30,1
 5822 1508 3809000C 		la 0,_ZNSs4_Rep20_S_empty_rep_storageE+12@l(9)
 5823              	.LBE3859:
 5824              	.LBE3858:
 5825              	.LBE3857:
 5826              		.loc 2 1350 0
 5827 150c 38630020 		addi 3,3,32
 5828              	.LVL407:
 5829              	.LBB3862:
 5830              	.LBB3861:
 5831              	.LBB3860:
 5832              		.loc 3 270 0
 5833 1510 941E000C 		stwu 0,12(30)
 5834              	.LBE3860:
 5835              	.LBE3861:
 5836              	.LBE3862:
 5837              		.loc 2 1350 0
 5838 1514 7FC4F378 		mr 4,30
 5839              	.LVL408:
 5840              	.LEHB11:
 5841 1518 4BFFF065 		bl _ZN9TiXmlBase12EncodeStringERKSsPSs.constprop.30
 5842              	.LVL409:
 5843              		.loc 2 1351 0
 5844 151c 8061000C 		lwz 3,12(1)
 5845 1520 7FE4FB78 		mr 4,31
 5846 1524 48000001 		bl fputs
 5847              	.LEHE11:
 5848              	.LVL410:
 5849              	.LBB3863:
 5850              	.LBB3864:
 5851              	.LBB3865:
 5852              	.LBB3866:
 5853              	.LBB3867:
 5854              	.LBB3868:
 5855              		.loc 3 288 0
 5856 1528 8121000C 		lwz 9,12(1)
 5857              	.LBE3868:
 5858              	.LBE3867:
 5859              	.LBE3866:
 5860              	.LBB3869:
 5861              	.LBB3870:
 5862              		.loc 3 235 0
 5863 152c 3D600000 		lis 11,_ZNSs4_Rep20_S_empty_rep_storageE@ha
 5864 1530 380B0000 		la 0,_ZNSs4_Rep20_S_empty_rep_storageE@l(11)
 5865              	.LBE3870:
 5866              	.LBE3869:
 5867              		.loc 3 534 0
 5868 1534 3869FFF4 		addi 3,9,-12
 5869              	.LVL411:
 5870              	.LBB3879:
 5871              	.LBB3877:
 5872              		.loc 3 235 0
 5873 1538 7F830000 		cmpw 7,3,0
 5874 153c 409E00AC 		bne- 7,.L315
 5875              	.LVL412:
 5876              	.L297:
 5877              	.LBE3877:
 5878              	.LBE3879:
 5879              	.LBE3865:
 5880              	.LBE3864:
 5881              	.LBE3863:
 5882              	.LBE3856:
 5883              	.LBE3855:
 5884              	.LBE3886:
 5885              		.loc 2 1353 0
 5886 1540 8001002C 		lwz 0,44(1)
 5887 1544 83810018 		lwz 28,24(1)
 5888              	.LVL413:
 5889 1548 7C0803A6 		mtlr 0
 5890 154c 83A1001C 		lwz 29,28(1)
 5891              	.LVL414:
 5892 1550 83C10020 		lwz 30,32(1)
 5893 1554 83E10024 		lwz 31,36(1)
 5894              	.LVL415:
 5895 1558 38210028 		addi 1,1,40
 5896              		.cfi_remember_state
 5897              	.LCFI67:
 5898              		.cfi_def_cfa_offset 0
 5899              		.cfi_restore 31
 5900              		.cfi_restore 30
 5901              		.cfi_restore 29
 5902              		.cfi_restore 28
 5903 155c 4E800020 		blr
 5904              	.LVL416:
 5905              	.L314:
 5906              	.LCFI68:
 5907              		.cfi_restore_state
 5908              	.LBB3887:
 5909              	.LBB3888:
 5910              	.LBB3889:
 5911              		.loc 2 1341 0
 5912 1560 3860000A 		li 3,10
 5913              	.LVL417:
 5914              	.LEHB12:
 5915 1564 48000001 		bl fputc
 5916              	.LVL418:
 5917              		.loc 2 1342 0
 5918 1568 2F9C0000 		cmpwi 7,28,0
 5919 156c 409D0020 		ble- 7,.L300
 5920 1570 3BC00000 		li 30,0
 5921              	.LVL419:
 5922              	.L301:
 5923              		.loc 2 1343 0
 5924 1574 38600009 		li 3,9
 5925 1578 7FE4FB78 		mr 4,31
 5926              		.loc 2 1342 0
 5927 157c 3BDE0001 		addi 30,30,1
 5928              		.loc 2 1343 0
 5929 1580 48000001 		bl fputc
 5930              	.LVL420:
 5931              		.loc 2 1342 0
 5932 1584 7F9EE000 		cmpw 7,30,28
 5933 1588 409EFFEC 		bne+ 7,.L301
 5934              	.LVL421:
 5935              	.L300:
 5936              		.loc 2 1345 0
 5937 158c 80BD0020 		lwz 5,32(29)
 5938 1590 3C800000 		lis 4,.LC24@ha
 5939 1594 7FE3FB78 		mr 3,31
 5940 1598 38840138 		la 4,.LC24@l(4)
 5941 159c 4CC63182 		crxor 6,6,6
 5942 15a0 48000001 		bl fprintf
 5943              	.LBE3889:
 5944              	.LBE3888:
 5945              	.LBE3887:
 5946              		.loc 2 1353 0
 5947 15a4 8001002C 		lwz 0,44(1)
 5948 15a8 83810018 		lwz 28,24(1)
 5949              	.LVL422:
 5950 15ac 7C0803A6 		mtlr 0
 5951 15b0 83A1001C 		lwz 29,28(1)
 5952              	.LVL423:
 5953 15b4 83C10020 		lwz 30,32(1)
 5954 15b8 83E10024 		lwz 31,36(1)
 5955              	.LVL424:
 5956 15bc 38210028 		addi 1,1,40
 5957              		.cfi_remember_state
 5958              		.cfi_restore 28
 5959              		.cfi_restore 29
 5960              		.cfi_restore 30
 5961              		.cfi_restore 31
 5962              	.LCFI69:
 5963              		.cfi_def_cfa_offset 0
 5964 15c0 4E800020 		blr
 5965              	.LVL425:
 5966              	.L313:
 5967              	.LCFI70:
 5968              		.cfi_restore_state
 5969              	.LBB3890:
 5970              		.loc 2 1337 0 discriminator 1
 5971 15c4 3CA00000 		lis 5,.LANCHOR0@ha
 5972              	.LVL426:
 5973 15c8 3C600000 		lis 3,.LC1@ha
 5974              	.LVL427:
 5975 15cc 38A50000 		la 5,.LANCHOR0@l(5)
 5976 15d0 3CC00000 		lis 6,.LC2@ha
 5977 15d4 38630008 		la 3,.LC1@l(3)
 5978 15d8 38800539 		li 4,1337
 5979              	.LVL428:
 5980 15dc 38A50098 		addi 5,5,152
 5981 15e0 38C60058 		la 6,.LC2@l(6)
 5982 15e4 48000001 		bl __assert_func
 5983              	.LVL429:
 5984              	.L315:
 5985              	.LBB3885:
 5986              	.LBB3884:
 5987              	.LBB3883:
 5988              	.LBB3882:
 5989              	.LBB3881:
 5990              	.LBB3880:
 5991              	.LBB3878:
 5992              	.LBB3871:
 5993              	.LBB3872:
 5994              	.LBB3873:
 5995              		.loc 6 66 0
 5996 15e8 8169FFFC 		lwz 11,-4(9)
 5997              	.LVL430:
 5998              	.LBE3873:
 5999              	.LBE3872:
 6000              	.LBE3871:
 6001              		.loc 3 240 0
 6002 15ec 2F8B0000 		cmpwi 7,11,0
 6003              	.LBB3876:
 6004              	.LBB3875:
 6005              	.LBB3874:
 6006              		.loc 6 67 0
 6007 15f0 396BFFFF 		addi 11,11,-1
 6008 15f4 9169FFFC 		stw 11,-4(9)
 6009              	.LBE3874:
 6010              	.LBE3875:
 6011              	.LBE3876:
 6012              		.loc 3 240 0
 6013 15f8 419DFF48 		bgt+ 7,.L297
 6014              		.loc 3 244 0
 6015 15fc 38810008 		addi 4,1,8
 6016 1600 48000001 		bl _ZNSs4_Rep10_M_destroyERKSaIcE
 6017              	.LVL431:
 6018 1604 4BFFFF3C 		b .L297
 6019              	.LVL432:
 6020              	.L311:
 6021 1608 7C7F1B78 		mr 31,3
 6022              	.LVL433:
 6023              	.LBE3878:
 6024              	.LBE3880:
 6025              	.LBE3881:
 6026              	.LBE3882:
 6027              	.LBE3883:
 6028              		.loc 2 1351 0
 6029 160c 7FC3F378 		mr 3,30
 6030 1610 48000001 		bl _ZNSsD1Ev
 6031 1614 7FE3FB78 		mr 3,31
 6032 1618 48000001 		bl _Unwind_Resume
 6033              	.LEHE12:
 6034              	.LBE3884:
 6035              	.LBE3885:
 6036              	.LBE3890:
 6037              		.cfi_endproc
 6038              	.LFE1328:
 6039              		.section	.gcc_except_table
 6040              	.LLSDA1328:
 6041 004a FF       		.byte	0xff
 6042 004b FF       		.byte	0xff
 6043 004c 01       		.byte	0x1
 6044 004d 0B       		.uleb128 .LLSDACSE1328-.LLSDACSB1328
 6045              	.LLSDACSB1328:
 6046 004e 50       		.uleb128 .LEHB11-.LFB1328
 6047 004f 10       		.uleb128 .LEHE11-.LEHB11
 6048 0050 C002     		.uleb128 .L311-.LFB1328
 6049 0052 00       		.uleb128 0
 6050 0053 9C01     		.uleb128 .LEHB12-.LFB1328
 6051 0055 B801     		.uleb128 .LEHE12-.LEHB12
 6052 0057 00       		.uleb128 0
 6053 0058 00       		.uleb128 0
 6054              	.LLSDACSE1328:
 6055              		.section	".text"
 6056              		.size	_ZNK9TiXmlText5PrintEP7__sFILEi, .-_ZNK9TiXmlText5PrintEP7__sFILEi
 6057              		.align 2
 6058              		.globl _ZN12TiXmlPrinter5VisitERK9TiXmlText
 6059              		.type	_ZN12TiXmlPrinter5VisitERK9TiXmlText, @function
 6060              	_ZN12TiXmlPrinter5VisitERK9TiXmlText:
 6061              	.LFB1381:
 6062              		.loc 2 1839 0
 6063              		.cfi_startproc
 6064              		.cfi_personality 0,__gxx_personality_v0
 6065              		.cfi_lsda 0,.LLSDA1381
 6066              	.LVL434:
 6067 161c 7C0802A6 		mflr 0
 6068 1620 9421FFD0 		stwu 1,-48(1)
 6069              	.LCFI71:
 6070              		.cfi_def_cfa_offset 48
 6071              		.cfi_register 65, 0
 6072 1624 93A10024 		stw 29,36(1)
 6073 1628 7C9D2378 		mr 29,4
 6074              		.cfi_offset 29, -12
 6075 162c 90010034 		stw 0,52(1)
 6076 1630 93E1002C 		stw 31,44(1)
 6077 1634 7C7F1B78 		mr 31,3
 6078              		.cfi_offset 31, -4
 6079              		.cfi_offset 65, 4
 6080              	.LBB3996:
 6081              	.LBB3997:
 6082              		.loc 2 1840 0
 6083 1638 8804002C 		lbz 0,44(4)
 6084              	.LBE3997:
 6085              	.LBE3996:
 6086              		.loc 2 1839 0
 6087 163c 9361001C 		stw 27,28(1)
 6088              	.LBB4095:
 6089              	.LBB4091:
 6090              		.loc 2 1840 0
 6091 1640 2F800000 		cmpwi 7,0,0
 6092              	.LBE4091:
 6093              	.LBE4095:
 6094              		.loc 2 1839 0
 6095 1644 93810020 		stw 28,32(1)
 6096 1648 93C10028 		stw 30,40(1)
 6097              	.LBB4096:
 6098              	.LBB4092:
 6099              		.loc 2 1840 0
 6100 164c 409E011C 		bne- 7,.L348
 6101              		.cfi_offset 30, -8
 6102              		.cfi_offset 28, -16
 6103              		.cfi_offset 27, -20
 6104              	.LBB3998:
 6105              		.loc 2 1848 0
 6106 1650 88030008 		lbz 0,8(3)
 6107 1654 2F800000 		cmpwi 7,0,0
 6108 1658 419E006C 		beq- 7,.L349
 6109              	.LVL435:
 6110              	.LBB3999:
 6111              	.LBB4000:
 6112              	.LBB4001:
 6113              	.LBB4002:
 6114              		.loc 3 270 0
 6115 165c 3D200000 		lis 9,_ZNSs4_Rep20_S_empty_rep_storageE+12@ha
 6116 1660 7C3E0B78 		mr 30,1
 6117 1664 3809000C 		la 0,_ZNSs4_Rep20_S_empty_rep_storageE+12@l(9)
 6118              	.LBE4002:
 6119              	.LBE4001:
 6120              	.LBE4000:
 6121              		.loc 2 1851 0
 6122 1668 38640020 		addi 3,4,32
 6123              	.LVL436:
 6124              	.LBB4005:
 6125              	.LBB4004:
 6126              	.LBB4003:
 6127              		.loc 3 270 0
 6128 166c 941E000C 		stwu 0,12(30)
 6129              	.LVL437:
 6130              	.LBE4003:
 6131              	.LBE4004:
 6132              	.LBE4005:
 6133              		.loc 2 1851 0
 6134 1670 7FC4F378 		mr 4,30
 6135              	.LVL438:
 6136              	.LEHB13:
 6137 1674 4BFFEF09 		bl _ZN9TiXmlBase12EncodeStringERKSsPSs.constprop.30
 6138              	.LVL439:
 6139              	.LBB4006:
 6140              	.LBB4007:
 6141              		.loc 3 925 0
 6142 1678 387F000C 		addi 3,31,12
 6143 167c 7FC4F378 		mr 4,30
 6144 1680 48000001 		bl _ZNSs6appendERKSs
 6145              	.LEHE13:
 6146              	.LVL440:
 6147              	.LBE4007:
 6148              	.LBE4006:
 6149              	.LBB4008:
 6150              	.LBB4009:
 6151              	.LBB4010:
 6152              	.LBB4011:
 6153              	.LBB4012:
 6154              	.LBB4013:
 6155              		.loc 3 288 0
 6156 1684 8121000C 		lwz 9,12(1)
 6157              	.LBE4013:
 6158              	.LBE4012:
 6159              	.LBE4011:
 6160              	.LBB4014:
 6161              	.LBB4015:
 6162              		.loc 3 235 0
 6163 1688 3D600000 		lis 11,_ZNSs4_Rep20_S_empty_rep_storageE@ha
 6164 168c 380B0000 		la 0,_ZNSs4_Rep20_S_empty_rep_storageE@l(11)
 6165              	.LBE4015:
 6166              	.LBE4014:
 6167              		.loc 3 534 0
 6168 1690 3869FFF4 		addi 3,9,-12
 6169              	.LVL441:
 6170              	.LBB4024:
 6171              	.LBB4022:
 6172              		.loc 3 235 0
 6173 1694 7F830000 		cmpw 7,3,0
 6174 1698 409E017C 		bne- 7,.L350
 6175              	.LVL442:
 6176              	.L338:
 6177              	.LBE4022:
 6178              	.LBE4024:
 6179              	.LBE4010:
 6180              	.LBE4009:
 6181              	.LBE4008:
 6182              	.LBE3999:
 6183              	.LBE3998:
 6184              	.LBE4092:
 6185              	.LBE4096:
 6186              		.loc 2 1863 0
 6187 169c 80010034 		lwz 0,52(1)
 6188 16a0 38600001 		li 3,1
 6189 16a4 8361001C 		lwz 27,28(1)
 6190 16a8 7C0803A6 		mtlr 0
 6191 16ac 83810020 		lwz 28,32(1)
 6192 16b0 83A10024 		lwz 29,36(1)
 6193 16b4 83C10028 		lwz 30,40(1)
 6194 16b8 83E1002C 		lwz 31,44(1)
 6195              	.LVL443:
 6196 16bc 38210030 		addi 1,1,48
 6197              		.cfi_remember_state
 6198              	.LCFI72:
 6199              		.cfi_def_cfa_offset 0
 6200              		.cfi_restore 31
 6201              		.cfi_restore 30
 6202              		.cfi_restore 29
 6203              		.cfi_restore 28
 6204              		.cfi_restore 27
 6205 16c0 4E800020 		blr
 6206              	.LVL444:
 6207              	.L349:
 6208              	.LCFI73:
 6209              		.cfi_restore_state
 6210              	.LBB4097:
 6211              	.LBB4093:
 6212              	.LBB4064:
 6213              	.LBB4029:
 6214              	.LBB4030:
 6215              	.LBB4031:
 6216              		.loc 1 1788 0
 6217 16c4 80030004 		lwz 0,4(3)
 6218 16c8 2F800000 		cmpwi 7,0,0
 6219 16cc 409D002C 		ble- 7,.L323
 6220 16d0 3B800000 		li 28,0
 6221 16d4 3BC3000C 		addi 30,3,12
 6222 16d8 3B630010 		addi 27,3,16
 6223              	.LVL445:
 6224              	.L322:
 6225              	.LBB4032:
 6226              	.LBB4033:
 6227              		.loc 3 925 0
 6228 16dc 7FC3F378 		mr 3,30
 6229 16e0 7F64DB78 		mr 4,27
 6230              	.LEHB14:
 6231 16e4 48000001 		bl _ZNSs6appendERKSs
 6232              	.LEHE14:
 6233              	.LBE4033:
 6234              	.LBE4032:
 6235              		.loc 1 1788 0
 6236 16e8 801F0004 		lwz 0,4(31)
 6237 16ec 3B9C0001 		addi 28,28,1
 6238              	.LVL446:
 6239 16f0 7F9C0000 		cmpw 7,28,0
 6240 16f4 419CFFE8 		blt+ 7,.L322
 6241              	.LVL447:
 6242              	.L323:
 6243              	.LBE4031:
 6244              	.LBE4030:
 6245              	.LBB4034:
 6246              	.LBB4035:
 6247              	.LBB4036:
 6248              		.loc 3 270 0
 6249 16f8 3D200000 		lis 9,_ZNSs4_Rep20_S_empty_rep_storageE+12@ha
 6250 16fc 7C3E0B78 		mr 30,1
 6251 1700 3809000C 		la 0,_ZNSs4_Rep20_S_empty_rep_storageE+12@l(9)
 6252              	.LBE4036:
 6253              	.LBE4035:
 6254              	.LBE4034:
 6255              		.loc 2 1858 0
 6256 1704 387D0020 		addi 3,29,32
 6257              	.LBB4039:
 6258              	.LBB4038:
 6259              	.LBB4037:
 6260              		.loc 3 270 0
 6261 1708 941E000C 		stwu 0,12(30)
 6262              	.LVL448:
 6263              	.LBE4037:
 6264              	.LBE4038:
 6265              	.LBE4039:
 6266              		.loc 2 1858 0
 6267 170c 7FC4F378 		mr 4,30
 6268              	.LEHB15:
 6269 1710 4BFFEE6D 		bl _ZN9TiXmlBase12EncodeStringERKSsPSs.constprop.30
 6270              		.loc 2 1859 0
 6271 1714 3BBF000C 		addi 29,31,12
 6272              	.LVL449:
 6273              	.LBB4040:
 6274              	.LBB4041:
 6275              		.loc 3 925 0
 6276 1718 7FC4F378 		mr 4,30
 6277 171c 7FA3EB78 		mr 3,29
 6278 1720 48000001 		bl _ZNSs6appendERKSs
 6279              	.LVL450:
 6280              	.LBE4041:
 6281              	.LBE4040:
 6282              	.LBB4042:
 6283              	.LBB4043:
 6284              	.LBB4044:
 6285              	.LBB4045:
 6286 1724 7FA3EB78 		mr 3,29
 6287 1728 389F0014 		addi 4,31,20
 6288 172c 48000001 		bl _ZNSs6appendERKSs
 6289              	.LEHE15:
 6290              	.LVL451:
 6291              	.LBE4045:
 6292              	.LBE4044:
 6293              	.LBE4043:
 6294              	.LBE4042:
 6295              	.LBB4046:
 6296              	.LBB4047:
 6297              	.LBB4048:
 6298              	.LBB4049:
 6299              	.LBB4050:
 6300              	.LBB4051:
 6301              		.loc 3 288 0
 6302 1730 8121000C 		lwz 9,12(1)
 6303              	.LBE4051:
 6304              	.LBE4050:
 6305              	.LBE4049:
 6306              	.LBB4052:
 6307              	.LBB4053:
 6308              		.loc 3 235 0
 6309 1734 3D600000 		lis 11,_ZNSs4_Rep20_S_empty_rep_storageE@ha
 6310 1738 380B0000 		la 0,_ZNSs4_Rep20_S_empty_rep_storageE@l(11)
 6311              	.LBE4053:
 6312              	.LBE4052:
 6313              		.loc 3 534 0
 6314 173c 3869FFF4 		addi 3,9,-12
 6315              	.LVL452:
 6316              	.LBB4061:
 6317              	.LBB4060:
 6318              		.loc 3 235 0
 6319 1740 7F830000 		cmpw 7,3,0
 6320 1744 419EFF58 		beq+ 7,.L338
 6321              	.LVL453:
 6322              	.LBB4054:
 6323              	.LBB4055:
 6324              	.LBB4056:
 6325              		.loc 6 66 0
 6326 1748 8169FFFC 		lwz 11,-4(9)
 6327              	.LVL454:
 6328              	.LBE4056:
 6329              	.LBE4055:
 6330              	.LBE4054:
 6331              		.loc 3 240 0
 6332 174c 2F8B0000 		cmpwi 7,11,0
 6333              	.LBB4059:
 6334              	.LBB4058:
 6335              	.LBB4057:
 6336              		.loc 6 67 0
 6337 1750 396BFFFF 		addi 11,11,-1
 6338 1754 9169FFFC 		stw 11,-4(9)
 6339              	.LBE4057:
 6340              	.LBE4058:
 6341              	.LBE4059:
 6342              		.loc 3 240 0
 6343 1758 419DFF44 		bgt+ 7,.L338
 6344              		.loc 3 244 0
 6345 175c 38810008 		addi 4,1,8
 6346 1760 48000001 		bl _ZNSs4_Rep10_M_destroyERKSaIcE
 6347              	.LVL455:
 6348 1764 4BFFFF38 		b .L338
 6349              	.LVL456:
 6350              	.L348:
 6351              	.LBE4060:
 6352              	.LBE4061:
 6353              	.LBE4048:
 6354              	.LBE4047:
 6355              	.LBE4046:
 6356              	.LBE4029:
 6357              	.LBE4064:
 6358              	.LBB4065:
 6359              	.LBB4066:
 6360              		.loc 1 1788 0
 6361 1768 80030004 		lwz 0,4(3)
 6362 176c 3BC3000C 		addi 30,3,12
 6363 1770 2F800000 		cmpwi 7,0,0
 6364 1774 409D0028 		ble- 7,.L318
 6365 1778 3B800000 		li 28,0
 6366 177c 3B630010 		addi 27,3,16
 6367              	.LVL457:
 6368              	.L319:
 6369              	.LBB4067:
 6370              	.LBB4068:
 6371              		.loc 3 925 0
 6372 1780 7FC3F378 		mr 3,30
 6373 1784 7F64DB78 		mr 4,27
 6374              	.LEHB16:
 6375 1788 48000001 		bl _ZNSs6appendERKSs
 6376              	.LBE4068:
 6377              	.LBE4067:
 6378              		.loc 1 1788 0
 6379 178c 801F0004 		lwz 0,4(31)
 6380 1790 3B9C0001 		addi 28,28,1
 6381              	.LVL458:
 6382 1794 7F9C0000 		cmpw 7,28,0
 6383 1798 419CFFE8 		blt+ 7,.L319
 6384              	.LVL459:
 6385              	.L318:
 6386              	.LBE4066:
 6387              	.LBE4065:
 6388              	.LBB4069:
 6389              	.LBB4070:
 6390              	.LBB4071:
 6391              		.loc 3 1000 0
 6392 179c 3C800000 		lis 4,.LC25@ha
 6393 17a0 38A00009 		li 5,9
 6394 17a4 38840148 		la 4,.LC25@l(4)
 6395 17a8 7FC3F378 		mr 3,30
 6396 17ac 48000001 		bl _ZNSs6appendEPKcj
 6397              	.LVL460:
 6398              	.LBE4071:
 6399              	.LBE4070:
 6400              	.LBE4069:
 6401              	.LBB4072:
 6402              	.LBB4073:
 6403              	.LBB4074:
 6404              	.LBB4075:
 6405              		.loc 3 288 0
 6406 17b0 83BD0020 		lwz 29,32(29)
 6407              	.LVL461:
 6408              	.LBE4075:
 6409              	.LBE4074:
 6410              	.LBE4073:
 6411              	.LBE4072:
 6412              	.LBB4076:
 6413              	.LBB4077:
 6414              	.LBB4078:
 6415              	.LBB4079:
 6416              	.LBB4080:
 6417              		.loc 5 261 0
 6418 17b4 7FA3EB78 		mr 3,29
 6419 17b8 48000001 		bl strlen
 6420              	.LBE4080:
 6421              	.LBE4079:
 6422              		.loc 3 1000 0
 6423 17bc 7FA4EB78 		mr 4,29
 6424              	.LBB4082:
 6425              	.LBB4081:
 6426              		.loc 5 261 0
 6427 17c0 7C651B78 		mr 5,3
 6428              	.LBE4081:
 6429              	.LBE4082:
 6430              		.loc 3 1000 0
 6431 17c4 7FC3F378 		mr 3,30
 6432 17c8 48000001 		bl _ZNSs6appendEPKcj
 6433              	.LVL462:
 6434              	.LBE4078:
 6435              	.LBE4077:
 6436              	.LBE4076:
 6437              	.LBB4083:
 6438              	.LBB4084:
 6439              	.LBB4085:
 6440 17cc 3C800000 		lis 4,.LC26@ha
 6441 17d0 38840154 		la 4,.LC26@l(4)
 6442 17d4 7FC3F378 		mr 3,30
 6443 17d8 38A00003 		li 5,3
 6444 17dc 48000001 		bl _ZNSs6appendEPKcj
 6445              	.LVL463:
 6446              	.LBE4085:
 6447              	.LBE4084:
 6448              	.LBE4083:
 6449              	.LBB4086:
 6450              	.LBB4087:
 6451              	.LBB4088:
 6452              	.LBB4089:
 6453              		.loc 3 925 0
 6454 17e0 7FC3F378 		mr 3,30
 6455 17e4 389F0014 		addi 4,31,20
 6456 17e8 48000001 		bl _ZNSs6appendERKSs
 6457              	.LBE4089:
 6458              	.LBE4088:
 6459              	.LBE4087:
 6460              	.LBE4086:
 6461              	.LBE4093:
 6462              	.LBE4097:
 6463              		.loc 2 1863 0
 6464 17ec 80010034 		lwz 0,52(1)
 6465 17f0 8361001C 		lwz 27,28(1)
 6466 17f4 38600001 		li 3,1
 6467 17f8 7C0803A6 		mtlr 0
 6468 17fc 83810020 		lwz 28,32(1)
 6469 1800 83A10024 		lwz 29,36(1)
 6470              	.LVL464:
 6471 1804 83C10028 		lwz 30,40(1)
 6472              	.LVL465:
 6473 1808 83E1002C 		lwz 31,44(1)
 6474              	.LVL466:
 6475 180c 38210030 		addi 1,1,48
 6476              		.cfi_remember_state
 6477              		.cfi_restore 27
 6478              		.cfi_restore 28
 6479              		.cfi_restore 29
 6480              		.cfi_restore 30
 6481              		.cfi_restore 31
 6482              	.LCFI74:
 6483              		.cfi_def_cfa_offset 0
 6484 1810 4E800020 		blr
 6485              	.LVL467:
 6486              	.L350:
 6487              	.LCFI75:
 6488              		.cfi_restore_state
 6489              	.LBB4098:
 6490              	.LBB4094:
 6491              	.LBB4090:
 6492              	.LBB4062:
 6493              	.LBB4028:
 6494              	.LBB4027:
 6495              	.LBB4026:
 6496              	.LBB4025:
 6497              	.LBB4023:
 6498              	.LBB4016:
 6499              	.LBB4017:
 6500              	.LBB4018:
 6501              		.loc 6 66 0
 6502 1814 8169FFFC 		lwz 11,-4(9)
 6503              	.LVL468:
 6504              	.LBE4018:
 6505              	.LBE4017:
 6506              	.LBE4016:
 6507              		.loc 3 240 0
 6508 1818 2F8B0000 		cmpwi 7,11,0
 6509              	.LBB4021:
 6510              	.LBB4020:
 6511              	.LBB4019:
 6512              		.loc 6 67 0
 6513 181c 396BFFFF 		addi 11,11,-1
 6514 1820 9169FFFC 		stw 11,-4(9)
 6515              	.LBE4019:
 6516              	.LBE4020:
 6517              	.LBE4021:
 6518              		.loc 3 240 0
 6519 1824 419DFE78 		bgt+ 7,.L338
 6520              		.loc 3 244 0
 6521 1828 38810009 		addi 4,1,9
 6522 182c 48000001 		bl _ZNSs4_Rep10_M_destroyERKSaIcE
 6523              	.LVL469:
 6524 1830 4BFFFE6C 		b .L338
 6525              	.LVL470:
 6526              	.L343:
 6527              	.L347:
 6528 1834 7C7F1B78 		mr 31,3
 6529              	.LVL471:
 6530              	.LBE4023:
 6531              	.LBE4025:
 6532              	.LBE4026:
 6533              	.LBE4027:
 6534              	.LBE4028:
 6535              	.LBE4062:
 6536              	.LBB4063:
 6537              		.loc 2 1860 0
 6538 1838 7FC3F378 		mr 3,30
 6539 183c 48000001 		bl _ZNSsD1Ev
 6540 1840 7FE3FB78 		mr 3,31
 6541 1844 48000001 		bl _Unwind_Resume
 6542              	.LEHE16:
 6543              	.LVL472:
 6544              	.L342:
 6545 1848 4BFFFFEC 		b .L347
 6546              	.LBE4063:
 6547              	.LBE4090:
 6548              	.LBE4094:
 6549              	.LBE4098:
 6550              		.cfi_endproc
 6551              	.LFE1381:
 6552              		.section	.gcc_except_table
 6553              	.LLSDA1381:
 6554 0059 FF       		.byte	0xff
 6555 005a FF       		.byte	0xff
 6556 005b 01       		.byte	0x1
 6557 005c 16       		.uleb128 .LLSDACSE1381-.LLSDACSB1381
 6558              	.LLSDACSB1381:
 6559 005d 58       		.uleb128 .LEHB13-.LFB1381
 6560 005e 10       		.uleb128 .LEHE13-.LEHB13
 6561 005f AC04     		.uleb128 .L342-.LFB1381
 6562 0061 00       		.uleb128 0
 6563 0062 C801     		.uleb128 .LEHB14-.LFB1381
 6564 0064 04       		.uleb128 .LEHE14-.LEHB14
 6565 0065 00       		.uleb128 0
 6566 0066 00       		.uleb128 0
 6567 0067 F401     		.uleb128 .LEHB15-.LFB1381
 6568 0069 20       		.uleb128 .LEHE15-.LEHB15
 6569 006a 9804     		.uleb128 .L343-.LFB1381
 6570 006c 00       		.uleb128 0
 6571 006d EC02     		.uleb128 .LEHB16-.LFB1381
 6572 006f C001     		.uleb128 .LEHE16-.LEHB16
 6573 0071 00       		.uleb128 0
 6574 0072 00       		.uleb128 0
 6575              	.LLSDACSE1381:
 6576              		.section	".text"
 6577              		.size	_ZN12TiXmlPrinter5VisitERK9TiXmlText, .-_ZN12TiXmlPrinter5VisitERK9TiXmlText
 6578              		.section	.text._ZN16TiXmlDeclarationD0Ev,"axG",@progbits,_ZN16TiXmlDeclarationD5Ev,comdat
 6579              		.align 2
 6580              		.weak	_ZN16TiXmlDeclarationD0Ev
 6581              		.type	_ZN16TiXmlDeclarationD0Ev, @function
 6582              	_ZN16TiXmlDeclarationD0Ev:
 6583              	.LFB1143:
 6584              		.loc 1 1308 0
 6585              		.cfi_startproc
 6586              		.cfi_personality 0,__gxx_personality_v0
 6587              		.cfi_lsda 0,.LLSDA1143
 6588              	.LVL473:
 6589 0000 7C0802A6 		mflr 0
 6590 0004 9421FFD8 		stwu 1,-40(1)
 6591              	.LCFI76:
 6592              		.cfi_def_cfa_offset 40
 6593              		.cfi_register 65, 0
 6594              	.LBB4196:
 6595              	.LBB4197:
 6596              	.LBB4198:
 6597 0008 3D600000 		lis 11,_ZTV16TiXmlDeclaration+8@ha
 6598              	.LBE4198:
 6599              	.LBE4197:
 6600              	.LBE4196:
 6601 000c 93A1001C 		stw 29,28(1)
 6602              	.LBB4324:
 6603              	.LBB4318:
 6604              	.LBB4312:
 6605              	.LBB4199:
 6606              	.LBB4200:
 6607              	.LBB4201:
 6608              	.LBB4202:
 6609              	.LBB4203:
 6610              		.loc 3 235 0
 6611 0010 3FA00000 		lis 29,_ZNSs4_Rep20_S_empty_rep_storageE@ha
 6612              		.cfi_offset 29, -12
 6613              	.LBE4203:
 6614              	.LBE4202:
 6615              	.LBE4201:
 6616              	.LBE4200:
 6617              	.LBE4199:
 6618              	.LBE4312:
 6619              	.LBE4318:
 6620              	.LBE4324:
 6621              		.loc 1 1308 0
 6622 0014 9001002C 		stw 0,44(1)
 6623              	.LBB4325:
 6624              	.LBB4319:
 6625              	.LBB4313:
 6626              	.LBB4229:
 6627              	.LBB4224:
 6628              	.LBB4219:
 6629              	.LBB4213:
 6630              	.LBB4210:
 6631              		.loc 3 235 0
 6632 0018 3BBD0000 		la 29,_ZNSs4_Rep20_S_empty_rep_storageE@l(29)
 6633              	.LBE4210:
 6634              	.LBE4213:
 6635              	.LBE4219:
 6636              	.LBE4224:
 6637              	.LBE4229:
 6638              	.LBE4313:
 6639              	.LBE4319:
 6640              	.LBE4325:
 6641              		.loc 1 1308 0
 6642 001c 93C10020 		stw 30,32(1)
 6643 0020 7C7E1B78 		mr 30,3
 6644              		.cfi_offset 30, -8
 6645              		.cfi_offset 65, 4
 6646              	.LVL474:
 6647              	.LBB4326:
 6648              	.LBB4320:
 6649              	.LBB4314:
 6650              	.LBB4230:
 6651              	.LBB4225:
 6652              	.LBB4220:
 6653              	.LBB4214:
 6654              	.LBB4215:
 6655              	.LBB4216:
 6656              		.loc 3 288 0
 6657 0024 81230034 		lwz 9,52(3)
 6658              	.LBE4216:
 6659              	.LBE4215:
 6660              	.LBE4214:
 6661              	.LBE4220:
 6662              	.LBE4225:
 6663              	.LBE4230:
 6664              		.loc 1 1308 0
 6665 0028 380B0008 		la 0,_ZTV16TiXmlDeclaration+8@l(11)
 6666              	.LBE4314:
 6667              	.LBE4320:
 6668              	.LBE4326:
 6669 002c 93E10024 		stw 31,36(1)
 6670              	.LBB4327:
 6671              	.LBB4321:
 6672              	.LBB4315:
 6673              	.LBB4231:
 6674              	.LBB4226:
 6675              	.LBB4221:
 6676              		.loc 3 534 0
 6677 0030 3869FFF4 		addi 3,9,-12
 6678              	.LVL475:
 6679              	.LBE4221:
 6680              	.LBE4226:
 6681              	.LBE4231:
 6682              		.loc 1 1308 0
 6683 0034 901E0000 		stw 0,0(30)
 6684              	.LVL476:
 6685              	.LBB4232:
 6686              	.LBB4227:
 6687              	.LBB4222:
 6688              	.LBB4217:
 6689              	.LBB4211:
 6690              		.loc 3 235 0
 6691 0038 7F83E800 		cmpw 7,3,29
 6692 003c 409E009C 		bne- 7,.L387
 6693              		.cfi_offset 31, -4
 6694              	.LVL477:
 6695              	.L357:
 6696              	.LBE4211:
 6697              	.LBE4217:
 6698              	.LBE4222:
 6699              	.LBE4227:
 6700              	.LBE4232:
 6701              	.LBB4233:
 6702              	.LBB4234:
 6703              	.LBB4235:
 6704              	.LBB4236:
 6705              	.LBB4237:
 6706              	.LBB4238:
 6707              		.loc 3 288 0
 6708 0040 813E0030 		lwz 9,48(30)
 6709              	.LBE4238:
 6710              	.LBE4237:
 6711              	.LBE4236:
 6712              		.loc 3 534 0
 6713 0044 3869FFF4 		addi 3,9,-12
 6714              	.LVL478:
 6715              	.LBB4239:
 6716              	.LBB4240:
 6717              		.loc 3 235 0
 6718 0048 7F83E800 		cmpw 7,3,29
 6719 004c 409E010C 		bne- 7,.L388
 6720              	.LVL479:
 6721              	.L363:
 6722              	.LBE4240:
 6723              	.LBE4239:
 6724              	.LBE4235:
 6725              	.LBE4234:
 6726              	.LBE4233:
 6727              	.LBB4251:
 6728              	.LBB4252:
 6729              	.LBB4253:
 6730              	.LBB4254:
 6731              	.LBB4255:
 6732              	.LBB4256:
 6733              		.loc 3 288 0
 6734 0050 813E002C 		lwz 9,44(30)
 6735              	.LBE4256:
 6736              	.LBE4255:
 6737              	.LBE4254:
 6738              		.loc 3 534 0
 6739 0054 3869FFF4 		addi 3,9,-12
 6740              	.LVL480:
 6741              	.LBB4257:
 6742              	.LBB4258:
 6743              		.loc 3 235 0
 6744 0058 7F83E800 		cmpw 7,3,29
 6745 005c 409E00DC 		bne- 7,.L389
 6746              	.LVL481:
 6747              	.L369:
 6748              	.LBE4258:
 6749              	.LBE4257:
 6750              	.LBE4253:
 6751              	.LBE4252:
 6752              	.LBE4251:
 6753              	.LBB4269:
 6754              	.LBB4270:
 6755              	.LBB4271:
 6756              	.LBB4272:
 6757              		.loc 2 148 0
 6758 0060 83FE0018 		lwz 31,24(30)
 6759              	.LVL482:
 6760              	.LBE4272:
 6761              		.loc 2 146 0
 6762 0064 3D200000 		lis 9,_ZTV9TiXmlNode+8@ha
 6763 0068 38090008 		la 0,_ZTV9TiXmlNode+8@l(9)
 6764              	.LBB4273:
 6765              		.loc 2 151 0
 6766 006c 2F9F0000 		cmpwi 7,31,0
 6767              	.LBE4273:
 6768              		.loc 2 146 0
 6769 0070 901E0000 		stw 0,0(30)
 6770              	.LBB4274:
 6771              		.loc 2 151 0
 6772 0074 419E0024 		beq- 7,.L370
 6773              	.LVL483:
 6774              	.L386:
 6775              		.loc 2 155 0
 6776 0078 813F0000 		lwz 9,0(31)
 6777 007c 7FE3FB78 		mr 3,31
 6778              		.loc 2 154 0
 6779 0080 83FF0028 		lwz 31,40(31)
 6780              	.LVL484:
 6781              		.loc 2 155 0
 6782 0084 80090004 		lwz 0,4(9)
 6783 0088 7C0903A6 		mtctr 0
 6784              	.LEHB17:
 6785 008c 4E800421 		bctrl
 6786              	.LEHE17:
 6787              	.LVL485:
 6788              		.loc 2 151 0
 6789 0090 2F9F0000 		cmpwi 7,31,0
 6790 0094 409EFFE4 		bne+ 7,.L386
 6791              	.L370:
 6792              	.LVL486:
 6793              	.LBE4274:
 6794              	.LBB4275:
 6795              	.LBB4276:
 6796              	.LBB4277:
 6797              	.LBB4278:
 6798              	.LBB4279:
 6799              	.LBB4280:
 6800              		.loc 3 288 0
 6801 0098 813E0020 		lwz 9,32(30)
 6802              	.LBE4280:
 6803              	.LBE4279:
 6804              	.LBE4278:
 6805              		.loc 3 534 0
 6806 009c 3869FFF4 		addi 3,9,-12
 6807              	.LVL487:
 6808              	.LBB4281:
 6809              	.LBB4282:
 6810              		.loc 3 235 0
 6811 00a0 7F83E800 		cmpw 7,3,29
 6812 00a4 409E0054 		bne- 7,.L390
 6813              	.LVL488:
 6814              	.L377:
 6815              	.LBE4282:
 6816              	.LBE4281:
 6817              	.LBE4277:
 6818              	.LBE4276:
 6819              	.LBE4275:
 6820              	.LBB4293:
 6821              	.LBB4294:
 6822              	.LBB4295:
 6823              		.loc 1 204 0
 6824 00a8 3D200000 		lis 9,_ZTV9TiXmlBase+8@ha
 6825              	.LBE4295:
 6826              	.LBE4294:
 6827              	.LBE4293:
 6828              	.LBE4271:
 6829              	.LBE4270:
 6830              	.LBE4269:
 6831              	.LBE4315:
 6832              	.LBE4321:
 6833              	.LBE4327:
 6834              		.loc 1 1308 0
 6835 00ac 7FC3F378 		mr 3,30
 6836              	.LBB4328:
 6837              	.LBB4322:
 6838              	.LBB4316:
 6839              	.LBB4307:
 6840              	.LBB4305:
 6841              	.LBB4303:
 6842              	.LBB4298:
 6843              	.LBB4297:
 6844              	.LBB4296:
 6845              		.loc 1 204 0
 6846 00b0 38090008 		la 0,_ZTV9TiXmlBase+8@l(9)
 6847 00b4 901E0000 		stw 0,0(30)
 6848              	.LBE4296:
 6849              	.LBE4297:
 6850              	.LBE4298:
 6851              	.LBE4303:
 6852              	.LBE4305:
 6853              	.LBE4307:
 6854              	.LBE4316:
 6855              	.LBE4322:
 6856              	.LBE4328:
 6857              		.loc 1 1308 0
 6858 00b8 48000001 		bl _ZdlPv
 6859 00bc 8001002C 		lwz 0,44(1)
 6860 00c0 83A1001C 		lwz 29,28(1)
 6861 00c4 7C0803A6 		mtlr 0
 6862 00c8 83C10020 		lwz 30,32(1)
 6863              	.LVL489:
 6864 00cc 83E10024 		lwz 31,36(1)
 6865              	.LVL490:
 6866 00d0 38210028 		addi 1,1,40
 6867              		.cfi_remember_state
 6868              	.LCFI77:
 6869              		.cfi_def_cfa_offset 0
 6870              		.cfi_restore 31
 6871              		.cfi_restore 30
 6872              		.cfi_restore 29
 6873 00d4 4E800020 		blr
 6874              	.LVL491:
 6875              	.L387:
 6876              	.LCFI78:
 6877              		.cfi_restore_state
 6878              	.LBB4329:
 6879              	.LBB4323:
 6880              	.LBB4317:
 6881              	.LBB4308:
 6882              	.LBB4228:
 6883              	.LBB4223:
 6884              	.LBB4218:
 6885              	.LBB4212:
 6886              	.LBB4204:
 6887              	.LBB4205:
 6888              	.LBB4206:
 6889              		.loc 6 66 0
 6890 00d8 8169FFFC 		lwz 11,-4(9)
 6891              	.LVL492:
 6892              	.LBE4206:
 6893              	.LBE4205:
 6894              	.LBE4204:
 6895              		.loc 3 240 0
 6896 00dc 2F8B0000 		cmpwi 7,11,0
 6897              	.LBB4209:
 6898              	.LBB4208:
 6899              	.LBB4207:
 6900              		.loc 6 67 0
 6901 00e0 396BFFFF 		addi 11,11,-1
 6902 00e4 9169FFFC 		stw 11,-4(9)
 6903              	.LBE4207:
 6904              	.LBE4208:
 6905              	.LBE4209:
 6906              		.loc 3 240 0
 6907 00e8 419DFF58 		bgt+ 7,.L357
 6908              		.loc 3 244 0
 6909 00ec 3881000B 		addi 4,1,11
 6910 00f0 48000001 		bl _ZNSs4_Rep10_M_destroyERKSaIcE
 6911              	.LVL493:
 6912 00f4 4BFFFF4C 		b .L357
 6913              	.LVL494:
 6914              	.L390:
 6915              	.LBE4212:
 6916              	.LBE4218:
 6917              	.LBE4223:
 6918              	.LBE4228:
 6919              	.LBE4308:
 6920              	.LBB4309:
 6921              	.LBB4306:
 6922              	.LBB4304:
 6923              	.LBB4299:
 6924              	.LBB4292:
 6925              	.LBB4291:
 6926              	.LBB4290:
 6927              	.LBB4289:
 6928              	.LBB4283:
 6929              	.LBB4284:
 6930              	.LBB4285:
 6931              		.loc 6 66 0
 6932 00f8 8169FFFC 		lwz 11,-4(9)
 6933              	.LVL495:
 6934              	.LBE4285:
 6935              	.LBE4284:
 6936              	.LBE4283:
 6937              		.loc 3 240 0
 6938 00fc 2F8B0000 		cmpwi 7,11,0
 6939              	.LBB4288:
 6940              	.LBB4287:
 6941              	.LBB4286:
 6942              		.loc 6 67 0
 6943 0100 396BFFFF 		addi 11,11,-1
 6944 0104 9169FFFC 		stw 11,-4(9)
 6945              	.LBE4286:
 6946              	.LBE4287:
 6947              	.LBE4288:
 6948              		.loc 3 240 0
 6949 0108 419DFFA0 		bgt+ 7,.L377
 6950              		.loc 3 244 0
 6951 010c 38810008 		addi 4,1,8
 6952 0110 48000001 		bl _ZNSs4_Rep10_M_destroyERKSaIcE
 6953              	.LVL496:
 6954 0114 4BFFFF94 		b .L377
 6955              	.LVL497:
 6956              	.L385:
 6957 0118 7C7F1B78 		mr 31,3
 6958              	.LVL498:
 6959              	.LBE4289:
 6960              	.LBE4290:
 6961              	.LBE4291:
 6962              	.LBE4292:
 6963              	.LBE4299:
 6964              		.loc 2 146 0
 6965 011c 387E0020 		addi 3,30,32
 6966 0120 48000001 		bl _ZNSsD1Ev
 6967              	.LVL499:
 6968              	.LBB4300:
 6969              	.LBB4301:
 6970              	.LBB4302:
 6971              		.loc 1 204 0
 6972 0124 3D200000 		lis 9,_ZTV9TiXmlBase+8@ha
 6973 0128 38090008 		la 0,_ZTV9TiXmlBase+8@l(9)
 6974 012c 7FE3FB78 		mr 3,31
 6975 0130 901E0000 		stw 0,0(30)
 6976              	.LEHB18:
 6977 0134 48000001 		bl _Unwind_Resume
 6978              	.LEHE18:
 6979              	.LVL500:
 6980              	.L389:
 6981              	.LBE4302:
 6982              	.LBE4301:
 6983              	.LBE4300:
 6984              	.LBE4304:
 6985              	.LBE4306:
 6986              	.LBE4309:
 6987              	.LBB4310:
 6988              	.LBB4268:
 6989              	.LBB4267:
 6990              	.LBB4266:
 6991              	.LBB4265:
 6992              	.LBB4259:
 6993              	.LBB4260:
 6994              	.LBB4261:
 6995              		.loc 6 66 0
 6996 0138 8169FFFC 		lwz 11,-4(9)
 6997              	.LVL501:
 6998              	.LBE4261:
 6999              	.LBE4260:
 7000              	.LBE4259:
 7001              		.loc 3 240 0
 7002 013c 2F8B0000 		cmpwi 7,11,0
 7003              	.LBB4264:
 7004              	.LBB4263:
 7005              	.LBB4262:
 7006              		.loc 6 67 0
 7007 0140 396BFFFF 		addi 11,11,-1
 7008 0144 9169FFFC 		stw 11,-4(9)
 7009              	.LBE4262:
 7010              	.LBE4263:
 7011              	.LBE4264:
 7012              		.loc 3 240 0
 7013 0148 419DFF18 		bgt+ 7,.L369
 7014              		.loc 3 244 0
 7015 014c 38810009 		addi 4,1,9
 7016 0150 48000001 		bl _ZNSs4_Rep10_M_destroyERKSaIcE
 7017              	.LVL502:
 7018 0154 4BFFFF0C 		b .L369
 7019              	.LVL503:
 7020              	.L388:
 7021              	.LBE4265:
 7022              	.LBE4266:
 7023              	.LBE4267:
 7024              	.LBE4268:
 7025              	.LBE4310:
 7026              	.LBB4311:
 7027              	.LBB4250:
 7028              	.LBB4249:
 7029              	.LBB4248:
 7030              	.LBB4247:
 7031              	.LBB4241:
 7032              	.LBB4242:
 7033              	.LBB4243:
 7034              		.loc 6 66 0
 7035 0158 8169FFFC 		lwz 11,-4(9)
 7036              	.LVL504:
 7037              	.LBE4243:
 7038              	.LBE4242:
 7039              	.LBE4241:
 7040              		.loc 3 240 0
 7041 015c 2F8B0000 		cmpwi 7,11,0
 7042              	.LBB4246:
 7043              	.LBB4245:
 7044              	.LBB4244:
 7045              		.loc 6 67 0
 7046 0160 396BFFFF 		addi 11,11,-1
 7047 0164 9169FFFC 		stw 11,-4(9)
 7048              	.LBE4244:
 7049              	.LBE4245:
 7050              	.LBE4246:
 7051              		.loc 3 240 0
 7052 0168 419DFEE8 		bgt+ 7,.L363
 7053              		.loc 3 244 0
 7054 016c 3881000A 		addi 4,1,10
 7055 0170 48000001 		bl _ZNSs4_Rep10_M_destroyERKSaIcE
 7056              	.LVL505:
 7057 0174 4BFFFEDC 		b .L363
 7058              	.LBE4247:
 7059              	.LBE4248:
 7060              	.LBE4249:
 7061              	.LBE4250:
 7062              	.LBE4311:
 7063              	.LBE4317:
 7064              	.LBE4323:
 7065              	.LBE4329:
 7066              		.cfi_endproc
 7067              	.LFE1143:
 7068              		.section	.gcc_except_table
 7069              	.LLSDA1143:
 7070 0073 FF       		.byte	0xff
 7071 0074 FF       		.byte	0xff
 7072 0075 01       		.byte	0x1
 7073 0076 0B       		.uleb128 .LLSDACSE1143-.LLSDACSB1143
 7074              	.LLSDACSB1143:
 7075 0077 8C01     		.uleb128 .LEHB17-.LFB1143
 7076 0079 04       		.uleb128 .LEHE17-.LEHB17
 7077 007a 9802     		.uleb128 .L385-.LFB1143
 7078 007c 00       		.uleb128 0
 7079 007d B402     		.uleb128 .LEHB18-.LFB1143
 7080 007f 04       		.uleb128 .LEHE18-.LEHB18
 7081 0080 00       		.uleb128 0
 7082 0081 00       		.uleb128 0
 7083              	.LLSDACSE1143:
 7084              		.section	.text._ZN16TiXmlDeclarationD0Ev,"axG",@progbits,_ZN16TiXmlDeclarationD5Ev,comdat
 7085              		.size	_ZN16TiXmlDeclarationD0Ev, .-_ZN16TiXmlDeclarationD0Ev
 7086              		.section	.text._ZN12TiXmlUnknownD0Ev,"axG",@progbits,_ZN12TiXmlUnknownD5Ev,comdat
 7087              		.align 2
 7088              		.weak	_ZN12TiXmlUnknownD0Ev
 7089              		.type	_ZN12TiXmlUnknownD0Ev, @function
 7090              	_ZN12TiXmlUnknownD0Ev:
 7091              	.LFB1156:
 7092              		.loc 1 1360 0
 7093              		.cfi_startproc
 7094              		.cfi_personality 0,__gxx_personality_v0
 7095              		.cfi_lsda 0,.LLSDA1156
 7096              	.LVL506:
 7097 0000 7C0802A6 		mflr 0
 7098 0004 9421FFE0 		stwu 1,-32(1)
 7099              	.LCFI79:
 7100              		.cfi_def_cfa_offset 32
 7101              		.cfi_register 65, 0
 7102              	.LBB4364:
 7103              	.LBB4365:
 7104              	.LBB4366:
 7105              	.LBB4367:
 7106              	.LBB4368:
 7107              	.LBB4369:
 7108              		.loc 2 146 0
 7109 0008 3D200000 		lis 9,_ZTV9TiXmlNode+8@ha
 7110              	.LBE4369:
 7111              	.LBE4368:
 7112              	.LBE4367:
 7113              	.LBE4366:
 7114              	.LBE4365:
 7115              	.LBE4364:
 7116              		.loc 1 1360 0
 7117 000c 93E1001C 		stw 31,28(1)
 7118 0010 90010024 		stw 0,36(1)
 7119              	.LBB4422:
 7120              	.LBB4418:
 7121              	.LBB4414:
 7122              	.LBB4410:
 7123              	.LBB4406:
 7124              	.LBB4402:
 7125              		.loc 2 146 0
 7126 0014 38090008 		la 0,_ZTV9TiXmlNode+8@l(9)
 7127              		.cfi_offset 65, 4
 7128              		.cfi_offset 31, -4
 7129              	.LBE4402:
 7130              	.LBE4406:
 7131              	.LBE4410:
 7132              	.LBE4414:
 7133              	.LBE4418:
 7134              	.LBE4422:
 7135              		.loc 1 1360 0
 7136 0018 93C10018 		stw 30,24(1)
 7137              		.loc 1 1360 0
 7138 001c 7C7E1B78 		mr 30,3
 7139              		.cfi_offset 30, -8
 7140              	.LVL507:
 7141              	.LBB4423:
 7142              	.LBB4419:
 7143              	.LBB4415:
 7144              	.LBB4411:
 7145              	.LBB4407:
 7146              	.LBB4403:
 7147              	.LBB4370:
 7148              		.loc 2 148 0
 7149 0020 83E30018 		lwz 31,24(3)
 7150              	.LVL508:
 7151              	.LBE4370:
 7152              		.loc 2 146 0
 7153 0024 90030000 		stw 0,0(3)
 7154              	.LBB4371:
 7155              		.loc 2 151 0
 7156 0028 2F9F0000 		cmpwi 7,31,0
 7157 002c 419E0024 		beq- 7,.L392
 7158              	.LVL509:
 7159              	.L408:
 7160              		.loc 2 155 0
 7161 0030 813F0000 		lwz 9,0(31)
 7162 0034 7FE3FB78 		mr 3,31
 7163              		.loc 2 154 0
 7164 0038 83FF0028 		lwz 31,40(31)
 7165              	.LVL510:
 7166              		.loc 2 155 0
 7167 003c 80090004 		lwz 0,4(9)
 7168 0040 7C0903A6 		mtctr 0
 7169              	.LEHB19:
 7170 0044 4E800421 		bctrl
 7171              	.LEHE19:
 7172              	.LVL511:
 7173              		.loc 2 151 0
 7174 0048 2F9F0000 		cmpwi 7,31,0
 7175 004c 409EFFE4 		bne+ 7,.L408
 7176              	.L392:
 7177              	.LVL512:
 7178              	.LBE4371:
 7179              	.LBB4372:
 7180              	.LBB4373:
 7181              	.LBB4374:
 7182              	.LBB4375:
 7183              	.LBB4376:
 7184              	.LBB4377:
 7185              		.loc 3 288 0
 7186 0050 813E0020 		lwz 9,32(30)
 7187              	.LBE4377:
 7188              	.LBE4376:
 7189              	.LBE4375:
 7190              	.LBB4378:
 7191              	.LBB4379:
 7192              		.loc 3 235 0
 7193 0054 3D600000 		lis 11,_ZNSs4_Rep20_S_empty_rep_storageE@ha
 7194 0058 380B0000 		la 0,_ZNSs4_Rep20_S_empty_rep_storageE@l(11)
 7195              	.LBE4379:
 7196              	.LBE4378:
 7197              		.loc 3 534 0
 7198 005c 3869FFF4 		addi 3,9,-12
 7199              	.LVL513:
 7200              	.LBB4388:
 7201              	.LBB4386:
 7202              		.loc 3 235 0
 7203 0060 7F830000 		cmpw 7,3,0
 7204 0064 409E0050 		bne- 7,.L409
 7205              	.LVL514:
 7206              	.L399:
 7207              	.LBE4386:
 7208              	.LBE4388:
 7209              	.LBE4374:
 7210              	.LBE4373:
 7211              	.LBE4372:
 7212              	.LBB4392:
 7213              	.LBB4393:
 7214              	.LBB4394:
 7215              		.loc 1 204 0
 7216 0068 3D200000 		lis 9,_ZTV9TiXmlBase+8@ha
 7217              	.LBE4394:
 7218              	.LBE4393:
 7219              	.LBE4392:
 7220              	.LBE4403:
 7221              	.LBE4407:
 7222              	.LBE4411:
 7223              	.LBE4415:
 7224              	.LBE4419:
 7225              	.LBE4423:
 7226              		.loc 1 1360 0
 7227 006c 7FC3F378 		mr 3,30
 7228              	.LBB4424:
 7229              	.LBB4420:
 7230              	.LBB4416:
 7231              	.LBB4412:
 7232              	.LBB4408:
 7233              	.LBB4404:
 7234              	.LBB4397:
 7235              	.LBB4396:
 7236              	.LBB4395:
 7237              		.loc 1 204 0
 7238 0070 38090008 		la 0,_ZTV9TiXmlBase+8@l(9)
 7239 0074 901E0000 		stw 0,0(30)
 7240              	.LBE4395:
 7241              	.LBE4396:
 7242              	.LBE4397:
 7243              	.LBE4404:
 7244              	.LBE4408:
 7245              	.LBE4412:
 7246              	.LBE4416:
 7247              	.LBE4420:
 7248              	.LBE4424:
 7249              		.loc 1 1360 0
 7250 0078 48000001 		bl _ZdlPv
 7251 007c 80010024 		lwz 0,36(1)
 7252 0080 83C10018 		lwz 30,24(1)
 7253              	.LVL515:
 7254 0084 7C0803A6 		mtlr 0
 7255 0088 83E1001C 		lwz 31,28(1)
 7256              	.LVL516:
 7257 008c 38210020 		addi 1,1,32
 7258              		.cfi_remember_state
 7259              	.LCFI80:
 7260              		.cfi_def_cfa_offset 0
 7261              		.cfi_restore 31
 7262              		.cfi_restore 30
