   1              		.file	"tools.cpp"
   2              		.section	".text"
   3              	.Ltext0:
   4              		.section	.text._ZN7sigslot15single_threadedD2Ev,"axG",@progbits,_ZN7sigslot15single_threadedD5Ev,c
   5              		.align 2
   6              		.weak	_ZN7sigslot15single_threadedD2Ev
   7              		.type	_ZN7sigslot15single_threadedD2Ev, @function
   8              	_ZN7sigslot15single_threadedD2Ev:
   9              	.LFB1148:
  10              		.file 1 "d:/Projects/SaveGameManager/savegame-manager-gx/trunk/source/Tools/../Controls/../GUI/../
  11              		.loc 1 104 0
  12              		.cfi_startproc
  13              	.LVL0:
  14              	.LBB2278:
  15              		.loc 1 105 0
  16 0000 3D200000 		lis 9,_ZTVN7sigslot15single_threadedE+8@ha
  17              	.LBE2278:
  18              		.loc 1 107 0
  19              	.LBB2279:
  20              		.loc 1 105 0
  21 0004 38090008 		la 0,_ZTVN7sigslot15single_threadedE+8@l(9)
  22 0008 90030000 		stw 0,0(3)
  23              	.LBE2279:
  24              		.loc 1 107 0
  25 000c 4E800020 		blr
  26              		.cfi_endproc
  27              	.LFE1148:
  28              		.size	_ZN7sigslot15single_threadedD2Ev, .-_ZN7sigslot15single_threadedD2Ev
  29              		.section	.text._ZN7sigslot15single_threaded4lockEv,"axG",@progbits,_ZN7sigslot15single_threaded4lo
  30              		.align 2
  31              		.weak	_ZN7sigslot15single_threaded4lockEv
  32              		.type	_ZN7sigslot15single_threaded4lockEv, @function
  33              	_ZN7sigslot15single_threaded4lockEv:
  34              	.LFB1151:
  35              		.loc 1 109 0
  36              		.cfi_startproc
  37              	.LVL1:
  38              		.loc 1 112 0
  39 0000 4E800020 		blr
  40              		.cfi_endproc
  41              	.LFE1151:
  42              		.size	_ZN7sigslot15single_threaded4lockEv, .-_ZN7sigslot15single_threaded4lockEv
  43              		.section	.text._ZN7sigslot15single_threaded6unlockEv,"axG",@progbits,_ZN7sigslot15single_threaded6
  44              		.align 2
  45              		.weak	_ZN7sigslot15single_threaded6unlockEv
  46              		.type	_ZN7sigslot15single_threaded6unlockEv, @function
  47              	_ZN7sigslot15single_threaded6unlockEv:
  48              	.LFB1152:
  49              		.loc 1 114 0
  50              		.cfi_startproc
  51              	.LVL2:
  52              		.loc 1 117 0
  53 0000 4E800020 		blr
  54              		.cfi_endproc
  55              	.LFE1152:
  56              		.size	_ZN7sigslot15single_threaded6unlockEv, .-_ZN7sigslot15single_threaded6unlockEv
  57              		.section	.text._ZN19ThrowMessageHandler15OnWindowClosingEP8GuiFrame,"axG",@progbits,_ZN19ThrowMess
  58              		.align 2
  59              		.weak	_ZN19ThrowMessageHandler15OnWindowClosingEP8GuiFrame
  60              		.type	_ZN19ThrowMessageHandler15OnWindowClosingEP8GuiFrame, @function
  61              	_ZN19ThrowMessageHandler15OnWindowClosingEP8GuiFrame:
  62              	.LFB1493:
  63              		.file 2 "d:/Projects/SaveGameManager/savegame-manager-gx/trunk/source/Tools/tools.cpp"
  64              		.loc 2 84 0
  65              		.cfi_startproc
  66              	.LVL3:
  67              		.loc 2 86 0
  68 0000 8123001C 		lwz 9,28(3)
  69 0004 3809FFFF 		addi 0,9,-1
  70 0008 2F800000 		cmpwi 7,0,0
  71 000c 9003001C 		stw 0,28(3)
  72 0010 4CBC0020 		bgelr+ 7
  73              		.loc 2 87 0
  74 0014 38000000 		li 0,0
  75 0018 9003001C 		stw 0,28(3)
  76 001c 4E800020 		blr
  77              		.cfi_endproc
  78              	.LFE1493:
  79              		.size	_ZN19ThrowMessageHandler15OnWindowClosingEP8GuiFrame, .-_ZN19ThrowMessageHandler15OnWindowCl
  80              		.section	.text._ZN7sigslot17_connection_base1IP8GuiFrameNS_15single_threadedEED2Ev,"axG",@progbits
  81              		.align 2
  82              		.weak	_ZN7sigslot17_connection_base1IP8GuiFrameNS_15single_threadedEED2Ev
  83              		.type	_ZN7sigslot17_connection_base1IP8GuiFrameNS_15single_threadedEED2Ev, @function
  84              	_ZN7sigslot17_connection_base1IP8GuiFrameNS_15single_threadedEED2Ev:
  85              	.LFB1648:
  86              		.loc 1 365 0
  87              		.cfi_startproc
  88              	.LVL4:
  89              	.LBB2280:
  90              		.loc 1 365 0
  91 0000 3D200000 		lis 9,_ZTVN7sigslot17_connection_base1IP8GuiFrameNS_15single_threadedEEE+8@ha
  92              	.LBE2280:
  93              	.LBB2281:
  94 0004 38090008 		la 0,_ZTVN7sigslot17_connection_base1IP8GuiFrameNS_15single_threadedEEE+8@l(9)
  95 0008 90030000 		stw 0,0(3)
  96              	.LBE2281:
  97 000c 4E800020 		blr
  98              		.cfi_endproc
  99              	.LFE1648:
 100              		.size	_ZN7sigslot17_connection_base1IP8GuiFrameNS_15single_threadedEED2Ev, .-_ZN7sigslot17_connect
 101              		.section	.text._ZN7sigslot12_connection1I19ThrowMessageHandlerP8GuiFrameNS_15single_threadedEED2Ev
 102              		.align 2
 103              		.weak	_ZN7sigslot12_connection1I19ThrowMessageHandlerP8GuiFrameNS_15single_threadedEED2Ev
 104              		.type	_ZN7sigslot12_connection1I19ThrowMessageHandlerP8GuiFrameNS_15single_threadedEED2Ev, @functi
 105              	_ZN7sigslot12_connection1I19ThrowMessageHandlerP8GuiFrameNS_15single_threadedEED2Ev:
 106              	.LFB1900:
 107              		.loc 1 1688 0
 108              		.cfi_startproc
 109              	.LVL5:
 110              	.LBB2282:
 111              	.LBB2283:
 112              	.LBB2284:
 113              	.LBB2285:
 114              		.loc 1 365 0
 115 0000 3D200000 		lis 9,_ZTVN7sigslot17_connection_base1IP8GuiFrameNS_15single_threadedEEE+8@ha
 116              	.LBE2285:
 117              	.LBE2284:
 118              	.LBE2283:
 119              	.LBE2282:
 120              		.loc 1 1691 0
 121              	.LBB2289:
 122              	.LBB2288:
 123              	.LBB2287:
 124              	.LBB2286:
 125              		.loc 1 365 0
 126 0004 38090008 		la 0,_ZTVN7sigslot17_connection_base1IP8GuiFrameNS_15single_threadedEEE+8@l(9)
 127 0008 90030000 		stw 0,0(3)
 128              	.LBE2286:
 129              	.LBE2287:
 130              	.LBE2288:
 131              	.LBE2289:
 132              		.loc 1 1691 0
 133 000c 4E800020 		blr
 134              		.cfi_endproc
 135              	.LFE1900:
 136              		.size	_ZN7sigslot12_connection1I19ThrowMessageHandlerP8GuiFrameNS_15single_threadedEED2Ev, .-_ZN7s
 137              		.section	.text._ZNK7sigslot12_connection1I19ThrowMessageHandlerP8GuiFrameNS_15single_threadedEE7ge
 138              		.align 2
 139              		.weak	_ZNK7sigslot12_connection1I19ThrowMessageHandlerP8GuiFrameNS_15single_threadedEE7getdestEv
 140              		.type	_ZNK7sigslot12_connection1I19ThrowMessageHandlerP8GuiFrameNS_15single_threadedEE7getdestEv, 
 141              	_ZNK7sigslot12_connection1I19ThrowMessageHandlerP8GuiFrameNS_15single_threadedEE7getdestEv:
 142              	.LFB1903:
 143              		.loc 1 1708 0
 144              		.cfi_startproc
 145              	.LVL6:
 146              		.loc 1 1711 0
 147 0000 80630004 		lwz 3,4(3)
 148              	.LVL7:
 149 0004 4E800020 		blr
 150              		.cfi_endproc
 151              	.LFE1903:
 152              		.size	_ZNK7sigslot12_connection1I19ThrowMessageHandlerP8GuiFrameNS_15single_threadedEE7getdestEv, 
 153              		.section	.text._ZN7sigslot12_connection1I19ThrowMessageHandlerP8GuiFrameNS_15single_threadedEE4emi
 154              		.align 2
 155              		.weak	_ZN7sigslot12_connection1I19ThrowMessageHandlerP8GuiFrameNS_15single_threadedEE4emitES3_
 156              		.type	_ZN7sigslot12_connection1I19ThrowMessageHandlerP8GuiFrameNS_15single_threadedEE4emitES3_, @f
 157              	_ZN7sigslot12_connection1I19ThrowMessageHandlerP8GuiFrameNS_15single_threadedEE4emitES3_:
 158              	.LFB1904:
 159              		.loc 1 1703 0
 160              		.cfi_startproc
 161              	.LVL8:
 162 0000 7C0802A6 		mflr 0
 163 0004 9421FFF8 		stwu 1,-8(1)
 164              	.LCFI0:
 165              		.cfi_def_cfa_offset 8
 166              		.cfi_register 65, 0
 167 0008 9001000C 		stw 0,12(1)
 168              		.loc 1 1705 0
 169 000c 80030008 		lwz 0,8(3)
 170              		.cfi_offset 65, 4
 171 0010 81630004 		lwz 11,4(3)
 172 0014 70090001 		andi. 9,0,1
 173 0018 8123000C 		lwz 9,12(3)
 174 001c 40820020 		bne- 0,.L15
 175 0020 7C0903A6 		mtctr 0
 176 0024 7C6B4A14 		add 3,11,9
 177              	.LVL9:
 178 0028 4E800421 		bctrl
 179              	.LVL10:
 180              		.loc 1 1706 0
 181 002c 8001000C 		lwz 0,12(1)
 182 0030 38210008 		addi 1,1,8
 183              		.cfi_remember_state
 184              	.LCFI1:
 185              		.cfi_def_cfa_offset 0
 186 0034 7C0803A6 		mtlr 0
 187 0038 4E800020 		blr
 188              	.LVL11:
 189              	.L15:
 190              	.LCFI2:
 191              		.cfi_restore_state
 192              		.loc 1 1705 0 discriminator 1
 193 003c 7D4B482E 		lwzx 10,11,9
 194 0040 7C6B4A14 		add 3,11,9
 195              	.LVL12:
 196 0044 7D2A0214 		add 9,10,0
 197 0048 8009FFFF 		lwz 0,-1(9)
 198 004c 7C0903A6 		mtctr 0
 199 0050 4E800421 		bctrl
 200              	.LVL13:
 201              		.loc 1 1706 0 discriminator 1
 202 0054 8001000C 		lwz 0,12(1)
 203 0058 38210008 		addi 1,1,8
 204              	.LCFI3:
 205              		.cfi_def_cfa_offset 0
 206 005c 7C0803A6 		mtlr 0
 207 0060 4E800020 		blr
 208              		.cfi_endproc
 209              	.LFE1904:
 210              		.size	_ZN7sigslot12_connection1I19ThrowMessageHandlerP8GuiFrameNS_15single_threadedEE4emitES3_, .-
 211              		.section	.text._ZN7sigslot12_connection1I19ThrowMessageHandlerP8GuiFrameNS_15single_threadedEED0Ev
 212              		.align 2
 213              		.weak	_ZN7sigslot12_connection1I19ThrowMessageHandlerP8GuiFrameNS_15single_threadedEED0Ev
 214              		.type	_ZN7sigslot12_connection1I19ThrowMessageHandlerP8GuiFrameNS_15single_threadedEED0Ev, @functi
 215              	_ZN7sigslot12_connection1I19ThrowMessageHandlerP8GuiFrameNS_15single_threadedEED0Ev:
 216              	.LFB1902:
 217              		.loc 1 1688 0
 218              		.cfi_startproc
 219              	.LVL14:
 220 0000 7C0802A6 		mflr 0
 221 0004 9421FFF8 		stwu 1,-8(1)
 222              	.LCFI4:
 223              		.cfi_def_cfa_offset 8
 224              		.cfi_register 65, 0
 225              	.LBB2290:
 226              	.LBB2291:
 227              	.LBB2292:
 228              	.LBB2293:
 229              	.LBB2294:
 230              	.LBB2295:
 231              		.loc 1 365 0
 232 0008 3D200000 		lis 9,_ZTVN7sigslot17_connection_base1IP8GuiFrameNS_15single_threadedEEE+8@ha
 233              	.LBE2295:
 234              	.LBE2294:
 235              	.LBE2293:
 236              	.LBE2292:
 237              	.LBE2291:
 238              	.LBE2290:
 239              		.loc 1 1688 0
 240 000c 9001000C 		stw 0,12(1)
 241              	.LBB2301:
 242              	.LBB2300:
 243              	.LBB2299:
 244              	.LBB2298:
 245              	.LBB2297:
 246              	.LBB2296:
 247              		.loc 1 365 0
 248 0010 38090008 		la 0,_ZTVN7sigslot17_connection_base1IP8GuiFrameNS_15single_threadedEEE+8@l(9)
 249              		.cfi_offset 65, 4
 250 0014 90030000 		stw 0,0(3)
 251              	.LBE2296:
 252              	.LBE2297:
 253              	.LBE2298:
 254              	.LBE2299:
 255              	.LBE2300:
 256              	.LBE2301:
 257              		.loc 1 1691 0
 258 0018 48000001 		bl _ZdlPv
 259              	.LVL15:
 260 001c 8001000C 		lwz 0,12(1)
 261 0020 38210008 		addi 1,1,8
 262              	.LCFI5:
 263              		.cfi_def_cfa_offset 0
 264 0024 7C0803A6 		mtlr 0
 265 0028 4E800020 		blr
 266              		.cfi_endproc
 267              	.LFE1902:
 268              		.size	_ZN7sigslot12_connection1I19ThrowMessageHandlerP8GuiFrameNS_15single_threadedEED0Ev, .-_ZN7s
 269              		.section	.text._ZN7sigslot17_connection_base1IP8GuiFrameNS_15single_threadedEED0Ev,"axG",@progbits
 270              		.align 2
 271              		.weak	_ZN7sigslot17_connection_base1IP8GuiFrameNS_15single_threadedEED0Ev
 272              		.type	_ZN7sigslot17_connection_base1IP8GuiFrameNS_15single_threadedEED0Ev, @function
 273              	_ZN7sigslot17_connection_base1IP8GuiFrameNS_15single_threadedEED0Ev:
 274              	.LFB1650:
 275              		.loc 1 365 0
 276              		.cfi_startproc
 277              	.LVL16:
 278 0000 7C0802A6 		mflr 0
 279 0004 9421FFF8 		stwu 1,-8(1)
 280              	.LCFI6:
 281              		.cfi_def_cfa_offset 8
 282              		.cfi_register 65, 0
 283              	.LBB2302:
 284              	.LBB2303:
 285              	.LBB2304:
 286 0008 3D200000 		lis 9,_ZTVN7sigslot17_connection_base1IP8GuiFrameNS_15single_threadedEEE+8@ha
 287              	.LBE2304:
 288              	.LBE2303:
 289              	.LBE2302:
 290 000c 9001000C 		stw 0,12(1)
 291              	.LBB2307:
 292              	.LBB2306:
 293              	.LBB2305:
 294              		.loc 1 365 0
 295 0010 38090008 		la 0,_ZTVN7sigslot17_connection_base1IP8GuiFrameNS_15single_threadedEEE+8@l(9)
 296              		.cfi_offset 65, 4
 297 0014 90030000 		stw 0,0(3)
 298              	.LBE2305:
 299              	.LBE2306:
 300              	.LBE2307:
 301 0018 48000001 		bl _ZdlPv
 302              	.LVL17:
 303 001c 8001000C 		lwz 0,12(1)
 304 0020 38210008 		addi 1,1,8
 305              	.LCFI7:
 306              		.cfi_def_cfa_offset 0
 307 0024 7C0803A6 		mtlr 0
 308 0028 4E800020 		blr
 309              		.cfi_endproc
 310              	.LFE1650:
 311              		.size	_ZN7sigslot17_connection_base1IP8GuiFrameNS_15single_threadedEED0Ev, .-_ZN7sigslot17_connect
 312              		.section	.text._ZN7sigslot15single_threadedD0Ev,"axG",@progbits,_ZN7sigslot15single_threadedD5Ev,c
 313              		.align 2
 314              		.weak	_ZN7sigslot15single_threadedD0Ev
 315              		.type	_ZN7sigslot15single_threadedD0Ev, @function
 316              	_ZN7sigslot15single_threadedD0Ev:
 317              	.LFB1150:
 318              		.loc 1 104 0
 319              		.cfi_startproc
 320              	.LVL18:
 321 0000 7C0802A6 		mflr 0
 322 0004 9421FFF8 		stwu 1,-8(1)
 323              	.LCFI8:
 324              		.cfi_def_cfa_offset 8
 325              		.cfi_register 65, 0
 326              	.LBB2308:
 327              	.LBB2309:
 328              	.LBB2310:
 329              		.loc 1 105 0
 330 0008 3D200000 		lis 9,_ZTVN7sigslot15single_threadedE+8@ha
 331              	.LBE2310:
 332              	.LBE2309:
 333              	.LBE2308:
 334              		.loc 1 104 0
 335 000c 9001000C 		stw 0,12(1)
 336              	.LBB2313:
 337              	.LBB2312:
 338              	.LBB2311:
 339              		.loc 1 105 0
 340 0010 38090008 		la 0,_ZTVN7sigslot15single_threadedE+8@l(9)
 341              		.cfi_offset 65, 4
 342 0014 90030000 		stw 0,0(3)
 343              	.LBE2311:
 344              	.LBE2312:
 345              	.LBE2313:
 346              		.loc 1 107 0
 347 0018 48000001 		bl _ZdlPv
 348              	.LVL19:
 349 001c 8001000C 		lwz 0,12(1)
 350 0020 38210008 		addi 1,1,8
 351              	.LCFI9:
 352              		.cfi_def_cfa_offset 0
 353 0024 7C0803A6 		mtlr 0
 354 0028 4E800020 		blr
 355              		.cfi_endproc
 356              	.LFE1150:
 357              		.size	_ZN7sigslot15single_threadedD0Ev, .-_ZN7sigslot15single_threadedD0Ev
 358              		.section	.text._ZN7sigslot12_connection1I19ThrowMessageHandlerP8GuiFrameNS_15single_threadedEE9dup
 359              		.align 2
 360              		.weak	_ZN7sigslot12_connection1I19ThrowMessageHandlerP8GuiFrameNS_15single_threadedEE9duplicateEPN
 361              		.type	_ZN7sigslot12_connection1I19ThrowMessageHandlerP8GuiFrameNS_15single_threadedEE9duplicateEPN
 362              	_ZN7sigslot12_connection1I19ThrowMessageHandlerP8GuiFrameNS_15single_threadedEE9duplicateEPNS_9has_
 363              	.LFB1912:
 364              		.loc 1 1698 0
 365              		.cfi_startproc
 366              	.LVL20:
 367 0000 9421FFF0 		stwu 1,-16(1)
 368              	.LCFI10:
 369              		.cfi_def_cfa_offset 16
 370 0004 7C0802A6 		mflr 0
 371 0008 93E1000C 		stw 31,12(1)
 372 000c 7C7F1B78 		mr 31,3
 373              		.cfi_offset 31, -4
 374              		.cfi_register 65, 0
 375              		.loc 1 1700 0
 376 0010 38600010 		li 3,16
 377              	.LVL21:
 378              		.loc 1 1698 0
 379 0014 90010014 		stw 0,20(1)
 380 0018 93C10008 		stw 30,8(1)
 381              		.loc 1 1698 0
 382 001c 7C9E2378 		mr 30,4
 383              		.cfi_offset 30, -8
 384              		.cfi_offset 65, 4
 385              		.loc 1 1700 0
 386 0020 48000001 		bl _Znwj
 387              	.LVL22:
 388 0024 801F000C 		lwz 0,12(31)
 389 0028 817F0008 		lwz 11,8(31)
 390              	.LVL23:
 391              	.LBB2314:
 392              	.LBB2315:
 393              		.loc 1 1683 0
 394 002c 3D400000 		lis 10,_ZTVN7sigslot12_connection1I19ThrowMessageHandlerP8GuiFrameNS_15single_threadedEEE+8@ha
 395              		.loc 1 1685 0
 396 0030 9003000C 		stw 0,12(3)
 397              		.loc 1 1683 0
 398 0034 394A0008 		la 10,_ZTVN7sigslot12_connection1I19ThrowMessageHandlerP8GuiFrameNS_15single_threadedEEE+8@l(10)
 399              		.loc 1 1685 0
 400 0038 91630008 		stw 11,8(3)
 401              		.loc 1 1684 0
 402 003c 93C30004 		stw 30,4(3)
 403              	.LBE2315:
 404              	.LBE2314:
 405              		.loc 1 1701 0
 406 0040 80010014 		lwz 0,20(1)
 407 0044 83C10008 		lwz 30,8(1)
 408              	.LVL24:
 409 0048 7C0803A6 		mtlr 0
 410 004c 83E1000C 		lwz 31,12(1)
 411              	.LVL25:
 412              	.LBB2317:
 413              	.LBB2316:
 414              		.loc 1 1683 0
 415 0050 91430000 		stw 10,0(3)
 416              	.LBE2316:
 417              	.LBE2317:
 418              		.loc 1 1701 0
 419 0054 38210010 		addi 1,1,16
 420              	.LCFI11:
 421              		.cfi_def_cfa_offset 0
 422              		.cfi_restore 31
 423              		.cfi_restore 30
 424 0058 4E800020 		blr
 425              		.cfi_endproc
 426              	.LFE1912:
 427              		.size	_ZN7sigslot12_connection1I19ThrowMessageHandlerP8GuiFrameNS_15single_threadedEE9duplicateEPN
 428              		.section	.text._ZN7sigslot12_connection1I19ThrowMessageHandlerP8GuiFrameNS_15single_threadedEE5clo
 429              		.align 2
 430              		.weak	_ZN7sigslot12_connection1I19ThrowMessageHandlerP8GuiFrameNS_15single_threadedEE5cloneEv
 431              		.type	_ZN7sigslot12_connection1I19ThrowMessageHandlerP8GuiFrameNS_15single_threadedEE5cloneEv, @fu
 432              	_ZN7sigslot12_connection1I19ThrowMessageHandlerP8GuiFrameNS_15single_threadedEE5cloneEv:
 433              	.LFB1905:
 434              		.loc 1 1693 0
 435              		.cfi_startproc
 436              	.LVL26:
 437 0000 9421FFF0 		stwu 1,-16(1)
 438              	.LCFI12:
 439              		.cfi_def_cfa_offset 16
 440 0004 7C0802A6 		mflr 0
 441 0008 93E1000C 		stw 31,12(1)
 442 000c 7C7F1B78 		mr 31,3
 443              		.cfi_offset 31, -4
 444              		.cfi_register 65, 0
 445              		.loc 1 1695 0
 446 0010 38600010 		li 3,16
 447              	.LVL27:
 448              		.loc 1 1693 0
 449 0014 90010014 		stw 0,20(1)
 450              		.loc 1 1695 0
 451              		.cfi_offset 65, 4
 452 0018 48000001 		bl _Znwj
 453              		.loc 2 121 0
 454 001c 801F0004 		lwz 0,4(31)
 455              	.LVL28:
 456              	.LBB2318:
 457              	.LBB2319:
 458              		.loc 1 1673 0
 459 0020 3D600000 		lis 11,_ZTVN7sigslot12_connection1I19ThrowMessageHandlerP8GuiFrameNS_15single_threadedEEE+8@ha
 460 0024 396B0008 		la 11,_ZTVN7sigslot12_connection1I19ThrowMessageHandlerP8GuiFrameNS_15single_threadedEEE+8@l(11)
 461 0028 90030004 		stw 0,4(3)
 462 002c 91630000 		stw 11,0(3)
 463 0030 815F0008 		lwz 10,8(31)
 464 0034 817F000C 		lwz 11,12(31)
 465 0038 91430008 		stw 10,8(3)
 466 003c 9163000C 		stw 11,12(3)
 467              	.LBE2319:
 468              	.LBE2318:
 469              		.loc 1 1696 0
 470 0040 80010014 		lwz 0,20(1)
 471 0044 83E1000C 		lwz 31,12(1)
 472              	.LVL29:
 473 0048 7C0803A6 		mtlr 0
 474 004c 38210010 		addi 1,1,16
 475              	.LCFI13:
 476              		.cfi_def_cfa_offset 0
 477              		.cfi_restore 31
 478 0050 4E800020 		blr
 479              		.cfi_endproc
 480              	.LFE1905:
 481              		.size	_ZN7sigslot12_connection1I19ThrowMessageHandlerP8GuiFrameNS_15single_threadedEE5cloneEv, .-_
 482              		.section	".text"
 483              		.align 2
 484              		.globl ShowError
 485              		.type	ShowError, @function
 486              	ShowError:
 487              	.LFB1483:
 488              		.loc 2 34 0
 489              		.cfi_startproc
 490              	.LVL30:
 491 0000 7C0802A6 		mflr 0
 492 0004 9421FF80 		stwu 1,-128(1)
 493              	.LCFI14:
 494              		.cfi_def_cfa_offset 128
 495              		.cfi_register 65, 0
 496 0008 93C10078 		stw 30,120(1)
 497 000c 90010084 		stw 0,132(1)
 498 0010 93E1007C 		stw 31,124(1)
 499 0014 9081001C 		stw 4,28(1)
 500 0018 90A10020 		stw 5,32(1)
 501 001c 90C10024 		stw 6,36(1)
 502 0020 90E10028 		stw 7,40(1)
 503 0024 9101002C 		stw 8,44(1)
 504 0028 91210030 		stw 9,48(1)
 505 002c 91410034 		stw 10,52(1)
 506 0030 40860024 		bne- 1,.L30
 507              		.cfi_offset 31, -4
 508              		.cfi_offset 65, 4
 509              		.cfi_offset 30, -8
 510              		.loc 2 34 0
 511 0034 D8210038 		stfd 1,56(1)
 512 0038 D8410040 		stfd 2,64(1)
 513 003c D8610048 		stfd 3,72(1)
 514 0040 D8810050 		stfd 4,80(1)
 515 0044 D8A10058 		stfd 5,88(1)
 516 0048 D8C10060 		stfd 6,96(1)
 517 004c D8E10068 		stfd 7,104(1)
 518 0050 D9010070 		stfd 8,112(1)
 519              	.L30:
 520              	.LBB2320:
 521              		.loc 2 35 0
 522 0054 38000000 		li 0,0
 523              	.LBE2320:
 524              		.loc 2 34 0
 525 0058 7C641B78 		mr 4,3
 526              	.LBB2321:
 527              		.loc 2 35 0
 528 005c 90010008 		stw 0,8(1)
 529              	.LVL31:
 530              		.loc 2 37 0
 531 0060 39200001 		li 9,1
 532 0064 9801000D 		stb 0,13(1)
 533 0068 38010088 		addi 0,1,136
 534 006c 90010010 		stw 0,16(1)
 535              		.loc 2 38 0
 536 0070 38610008 		addi 3,1,8
 537              	.LVL32:
 538              		.loc 2 37 0
 539 0074 38010018 		addi 0,1,24
 540              		.loc 2 38 0
 541 0078 38A1000C 		addi 5,1,12
 542              		.loc 2 37 0
 543 007c 9921000C 		stb 9,12(1)
 544 0080 90010014 		stw 0,20(1)
 545              		.loc 2 38 0
 546 0084 48000001 		bl vasprintf
 547              	.LVL33:
 548 0088 2F830000 		cmpwi 7,3,0
 549 008c 80610008 		lwz 3,8(1)
 550 0090 419C004C 		blt- 7,.L31
 551              		.loc 2 38 0 is_stmt 0 discriminator 1
 552 0094 2F830000 		cmpwi 7,3,0
 553 0098 419E0044 		beq- 7,.L31
 554              		.loc 2 40 0 is_stmt 1 discriminator 4
 555 009c 3C600000 		lis 3,.LC0@ha
 556 00a0 38630000 		la 3,.LC0@l(3)
 557 00a4 48000001 		bl gettext
 558 00a8 83E10008 		lwz 31,8(1)
 559 00ac 7C7E1B78 		mr 30,3
 560 00b0 3C600000 		lis 3,.LC1@ha
 561 00b4 38630008 		la 3,.LC1@l(3)
 562 00b8 48000001 		bl gettext
 563 00bc 7FE4FB78 		mr 4,31
 564 00c0 7C651B78 		mr 5,3
 565 00c4 38C00000 		li 6,0
 566 00c8 7FC3F378 		mr 3,30
 567 00cc 38E00000 		li 7,0
 568 00d0 39000000 		li 8,0
 569 00d4 48000001 		bl _Z12WindowPromptPKcS0_S0_S0_S0_S0_
 570 00d8 80610008 		lwz 3,8(1)
 571              	.L31:
 572              		.loc 2 44 0
 573 00dc 2F830000 		cmpwi 7,3,0
 574 00e0 419E0008 		beq- 7,.L29
 575              		.loc 2 45 0
 576 00e4 48000001 		bl free
 577              	.L29:
 578              	.LBE2321:
 579              		.loc 2 46 0
 580 00e8 80010084 		lwz 0,132(1)
 581 00ec 83C10078 		lwz 30,120(1)
 582 00f0 7C0803A6 		mtlr 0
 583 00f4 83E1007C 		lwz 31,124(1)
 584 00f8 38210080 		addi 1,1,128
 585              	.LCFI15:
 586              		.cfi_def_cfa_offset 0
 587              		.cfi_restore 31
 588              		.cfi_restore 30
 589 00fc 4E800020 		blr
 590              		.cfi_endproc
 591              	.LFE1483:
 592              		.size	ShowError, .-ShowError
 593              		.align 2
 594              		.globl ShowMsg
 595              		.type	ShowMsg, @function
 596              	ShowMsg:
 597              	.LFB1484:
 598              		.loc 2 49 0
 599              		.cfi_startproc
 600              	.LVL34:
 601 0100 7C0802A6 		mflr 0
 602 0104 9421FF88 		stwu 1,-120(1)
 603              	.LCFI16:
 604              		.cfi_def_cfa_offset 120
 605              		.cfi_register 65, 0
 606 0108 93E10074 		stw 31,116(1)
 607 010c 7C7F1B78 		mr 31,3
 608              		.cfi_offset 31, -4
 609 0110 9001007C 		stw 0,124(1)
 610 0114 93C10070 		stw 30,112(1)
 611 0118 90A10018 		stw 5,24(1)
 612 011c 90C1001C 		stw 6,28(1)
 613 0120 90E10020 		stw 7,32(1)
 614 0124 91010024 		stw 8,36(1)
 615 0128 91210028 		stw 9,40(1)
 616 012c 9141002C 		stw 10,44(1)
 617 0130 40860024 		bne- 1,.L35
 618              		.cfi_offset 30, -8
 619              		.cfi_offset 65, 4
 620              		.loc 2 49 0
 621 0134 D8210030 		stfd 1,48(1)
 622 0138 D8410038 		stfd 2,56(1)
 623 013c D8610040 		stfd 3,64(1)
 624 0140 D8810048 		stfd 4,72(1)
 625 0144 D8A10050 		stfd 5,80(1)
 626 0148 D8C10058 		stfd 6,88(1)
 627 014c D8E10060 		stfd 7,96(1)
 628 0150 D9010068 		stfd 8,104(1)
 629              	.L35:
 630              	.LBB2322:
 631              		.loc 2 52 0
 632 0154 7C290B78 		mr 9,1
 633 0158 38010080 		addi 0,1,128
 634 015c 94090010 		stwu 0,16(9)
 635 0160 39600002 		li 11,2
 636              		.loc 2 50 0
 637 0164 38000000 		li 0,0
 638              		.loc 2 53 0
 639 0168 38610008 		addi 3,1,8
 640              	.LVL35:
 641 016c 38A1000C 		addi 5,1,12
 642              		.loc 2 50 0
 643 0170 90010008 		stw 0,8(1)
 644              	.LVL36:
 645              		.loc 2 52 0
 646 0174 9961000C 		stb 11,12(1)
 647 0178 9801000D 		stb 0,13(1)
 648 017c 91210014 		stw 9,20(1)
 649              		.loc 2 53 0
 650 0180 48000001 		bl vasprintf
 651              	.LVL37:
 652 0184 2F830000 		cmpwi 7,3,0
 653 0188 83C10008 		lwz 30,8(1)
 654 018c 419C0038 		blt- 7,.L36
 655              		.loc 2 53 0 is_stmt 0 discriminator 1
 656 0190 2F9E0000 		cmpwi 7,30,0
 657 0194 419E0030 		beq- 7,.L36
 658              		.loc 2 55 0 is_stmt 1 discriminator 4
 659 0198 3C600000 		lis 3,.LC1@ha
 660 019c 38630008 		la 3,.LC1@l(3)
 661 01a0 48000001 		bl gettext
 662 01a4 7FC4F378 		mr 4,30
 663 01a8 7C651B78 		mr 5,3
 664 01ac 38C00000 		li 6,0
 665 01b0 7FE3FB78 		mr 3,31
 666 01b4 38E00000 		li 7,0
 667 01b8 39000000 		li 8,0
 668 01bc 48000001 		bl _Z12WindowPromptPKcS0_S0_S0_S0_S0_
 669 01c0 83C10008 		lwz 30,8(1)
 670              	.L36:
 671              		.loc 2 59 0
 672 01c4 2F9E0000 		cmpwi 7,30,0
 673 01c8 419E000C 		beq- 7,.L34
 674              		.loc 2 60 0
 675 01cc 7FC3F378 		mr 3,30
 676 01d0 48000001 		bl free
 677              	.L34:
 678              	.LBE2322:
 679              		.loc 2 61 0
 680 01d4 8001007C 		lwz 0,124(1)
 681 01d8 83C10070 		lwz 30,112(1)
 682 01dc 7C0803A6 		mtlr 0
 683 01e0 83E10074 		lwz 31,116(1)
 684              	.LVL38:
 685 01e4 38210078 		addi 1,1,120
 686              	.LCFI17:
 687              		.cfi_def_cfa_offset 0
 688              		.cfi_restore 31
 689              		.cfi_restore 30
 690 01e8 4E800020 		blr
 691              		.cfi_endproc
 692              	.LFE1484:
 693              		.size	ShowMsg, .-ShowMsg
 694              		.section	.text._ZNSt6vectorIP10GuiElementSaIS1_EE13_M_insert_auxEN9__gnu_cxx17__normal_iteratorIPS
 695              		.align 2
 696              		.weak	_ZNSt6vectorIP10GuiElementSaIS1_EE13_M_insert_auxEN9__gnu_cxx17__normal_iteratorIPS1_S3_EERK
 697              		.type	_ZNSt6vectorIP10GuiElementSaIS1_EE13_M_insert_auxEN9__gnu_cxx17__normal_iteratorIPS1_S3_EERK
 698              	_ZNSt6vectorIP10GuiElementSaIS1_EE13_M_insert_auxEN9__gnu_cxx17__normal_iteratorIPS1_S3_EERKS1_:
 699              	.LFB1576:
 700              		.file 3 "d:\\devkitpro\\devkitppc\\bin\\../lib/gcc/powerpc-eabi/4.6.3/../../../../powerpc-eabi/inc
 701              		.loc 3 300 0
 702              		.cfi_startproc
 703              	.LVL39:
 704 0000 7C0802A6 		mflr 0
 705 0004 9421FFD8 		stwu 1,-40(1)
 706              	.LCFI18:
 707              		.cfi_def_cfa_offset 40
 708              		.cfi_register 65, 0
 709 0008 93610014 		stw 27,20(1)
 710 000c 9001002C 		stw 0,44(1)
 711 0010 93C10020 		stw 30,32(1)
 712              	.LBB2385:
 713              		.loc 3 304 0
 714 0014 83630004 		lwz 27,4(3)
 715              		.cfi_offset 30, -8
 716              		.cfi_offset 65, 4
 717              		.cfi_offset 27, -20
 718 0018 80030008 		lwz 0,8(3)
 719              	.LBE2385:
 720              		.loc 3 300 0
 721 001c 93E10024 		stw 31,36(1)
 722 0020 7C7F1B78 		mr 31,3
 723              		.cfi_offset 31, -4
 724              	.LBB2510:
 725              		.loc 3 304 0
 726 0024 7F9B0000 		cmpw 7,27,0
 727              	.LBE2510:
 728              		.loc 3 300 0
 729 0028 93410010 		stw 26,16(1)
 730 002c 93810018 		stw 28,24(1)
 731 0030 93A1001C 		stw 29,28(1)
 732              		.loc 3 300 0
 733 0034 83C40000 		lwz 30,0(4)
 734              	.LVL40:
 735              	.LBB2511:
 736              		.loc 3 304 0
 737 0038 419E0078 		beq- 7,.L40
 738              		.cfi_offset 29, -12
 739              		.cfi_offset 28, -16
 740              		.cfi_offset 26, -24
 741              	.LVL41:
 742              	.LBB2386:
 743              	.LBB2387:
 744              	.LBB2388:
 745              		.file 4 "d:\\devkitpro\\devkitppc\\bin\\../lib/gcc/powerpc-eabi/4.6.3/../../../../powerpc-eabi/inc
 746              		.loc 4 108 0
 747 003c 2F9B0000 		cmpwi 7,27,0
 748 0040 38600000 		li 3,0
 749              	.LVL42:
 750 0044 419E0010 		beq- 7,.L41
 751 0048 801BFFFC 		lwz 0,-4(27)
 752 004c 901B0000 		stw 0,0(27)
 753 0050 807F0004 		lwz 3,4(31)
 754              	.L41:
 755              	.LBE2388:
 756              	.LBE2387:
 757              		.loc 3 313 0
 758 0054 3803FFFC 		addi 0,3,-4
 759              		.loc 3 309 0
 760 0058 39230004 		addi 9,3,4
 761              	.LBB2389:
 762              	.LBB2390:
 763              	.LBB2391:
 764              	.LBB2392:
 765              	.LBB2393:
 766              	.LBB2394:
 767              		.file 5 "d:\\devkitpro\\devkitppc\\bin\\../lib/gcc/powerpc-eabi/4.6.3/../../../../powerpc-eabi/inc
 768              		.loc 5 559 0
 769 005c 7C1E0050 		subf 0,30,0
 770              	.LBE2394:
 771              	.LBE2393:
 772              	.LBE2392:
 773              	.LBE2391:
 774              	.LBE2390:
 775              	.LBE2389:
 776              		.loc 3 309 0
 777 0060 913F0004 		stw 9,4(31)
 778              	.LBB2410:
 779              	.LBB2407:
 780              	.LBB2404:
 781              	.LBB2401:
 782              	.LBB2398:
 783              	.LBB2395:
 784              		.loc 5 560 0
 785 0064 7C001671 		srawi. 0,0,2
 786              	.LBE2395:
 787              	.LBE2398:
 788              	.LBE2401:
 789              	.LBE2404:
 790              	.LBE2407:
 791              	.LBE2410:
 792              		.loc 3 311 0
 793 0068 83E50000 		lwz 31,0(5)
 794              	.LVL43:
 795              	.LBB2411:
 796              	.LBB2408:
 797              	.LBB2405:
 798              	.LBB2402:
 799              	.LBB2399:
 800              	.LBB2396:
 801              		.loc 5 560 0
 802 006c 40820030 		bne- 0,.L56
 803              	.LVL44:
 804              	.L42:
 805              	.LBE2396:
 806              	.LBE2399:
 807              	.LBE2402:
 808              	.LBE2405:
 809              	.LBE2408:
 810              	.LBE2411:
 811              	.LBE2386:
 812              	.LBE2511:
 813              		.loc 3 373 0
 814 0070 8001002C 		lwz 0,44(1)
 815              	.LBB2512:
 816              	.LBB2413:
 817              		.loc 3 317 0
 818 0074 93FE0000 		stw 31,0(30)
 819              	.LBE2413:
 820              	.LBE2512:
 821              		.loc 3 373 0
 822 0078 7C0803A6 		mtlr 0
 823 007c 83410010 		lwz 26,16(1)
 824 0080 83610014 		lwz 27,20(1)
 825              	.LVL45:
 826 0084 83810018 		lwz 28,24(1)
 827 0088 83A1001C 		lwz 29,28(1)
 828 008c 83C10020 		lwz 30,32(1)
 829              	.LVL46:
 830 0090 83E10024 		lwz 31,36(1)
 831              	.LVL47:
 832 0094 38210028 		addi 1,1,40
 833              		.cfi_remember_state
 834              	.LCFI19:
 835              		.cfi_def_cfa_offset 0
 836              		.cfi_restore 31
 837              		.cfi_restore 30
 838              		.cfi_restore 29
 839              		.cfi_restore 28
 840              		.cfi_restore 27
 841              		.cfi_restore 26
 842 0098 4E800020 		blr
 843              	.LVL48:
 844              	.L56:
 845              	.LCFI20:
 846              		.cfi_restore_state
 847              	.LBB2513:
 848              	.LBB2414:
 849              	.LBB2412:
 850              	.LBB2409:
 851              	.LBB2406:
 852              	.LBB2403:
 853              	.LBB2400:
 854              	.LBB2397:
 855              		.loc 5 561 0
 856 009c 5405103A 		slwi 5,0,2
 857              	.LVL49:
 858 00a0 7FC4F378 		mr 4,30
 859 00a4 7C651850 		subf 3,5,3
 860              	.LVL50:
 861 00a8 48000001 		bl memmove
 862              	.LVL51:
 863 00ac 4BFFFFC4 		b .L42
 864              	.LVL52:
 865              	.L40:
 866              	.LBE2397:
 867              	.LBE2400:
 868              	.LBE2403:
 869              	.LBE2406:
 870              	.LBE2409:
 871              	.LBE2412:
 872              	.LBE2414:
 873              	.LBB2415:
 874              	.LBB2416:
 875              	.LBB2417:
 876              	.LBB2418:
 877              	.LBB2419:
 878              		.file 6 "d:\\devkitpro\\devkitppc\\bin\\../lib/gcc/powerpc-eabi/4.6.3/../../../../powerpc-eabi/inc
 879              		.loc 6 571 0
 880 00b0 83830000 		lwz 28,0(3)
 881 00b4 7F7CD850 		subf 27,28,27
 882              	.LBE2419:
 883              	.LBE2418:
 884              	.LBB2420:
 885              	.LBB2421:
 886              		.loc 5 215 0
 887 00b8 7F7B1671 		srawi. 27,27,2
 888 00bc 418200E8 		beq- 0,.L44
 889              	.LBE2421:
 890              	.LBE2420:
 891              		.loc 6 1244 0
 892 00c0 5760083C 		slwi 0,27,1
 893              	.LVL53:
 894              		.loc 6 1245 0
 895 00c4 7F9B0040 		cmplw 7,27,0
 896 00c8 409D00EC 		ble- 7,.L57
 897              	.L45:
 898              	.LVL54:
 899              	.LBE2417:
 900              	.LBE2416:
 901              	.LBB2424:
 902              	.LBB2425:
 903              		.file 7 "d:\\devkitpro\\devkitppc\\bin\\../lib/gcc/powerpc-eabi/4.6.3/../../../../powerpc-eabi/inc
 904              		.loc 7 892 0
 905 00cc 7F9CF050 		subf 28,28,30
 906              	.LBE2425:
 907              	.LBE2424:
 908              		.loc 3 326 0
 909 00d0 3B60FFFC 		li 27,-4
 910              	.LBB2431:
 911              	.LBB2426:
 912              		.loc 7 892 0
 913 00d4 7F9C1670 		srawi 28,28,2
 914              	.LVL55:
 915              	.L51:
 916              	.LBE2426:
 917              	.LBE2431:
 918              	.LBB2432:
 919              	.LBB2433:
 920              	.LBB2434:
 921              	.LBB2435:
 922              		.loc 4 92 0
 923 00d8 7F63DB78 		mr 3,27
 924              	.LVL56:
 925 00dc 90A10008 		stw 5,8(1)
 926 00e0 48000001 		bl _Znwj
 927              	.LVL57:
 928 00e4 80A10008 		lwz 5,8(1)
 929 00e8 7C7D1B78 		mr 29,3
 930              	.L46:
 931              	.LVL58:
 932              	.LBE2435:
 933              	.LBE2434:
 934              	.LBE2433:
 935              	.LBE2432:
 936              		.loc 3 335 0
 937 00ec 579C103A 		slwi 28,28,2
 938              	.LVL59:
 939 00f0 7C1DE214 		add 0,29,28
 940              	.LVL60:
 941              	.LBB2438:
 942              	.LBB2439:
 943              		.loc 4 108 0
 944 00f4 2F800000 		cmpwi 7,0,0
 945 00f8 419E000C 		beq- 7,.L47
 946 00fc 80050000 		lwz 0,0(5)
 947              	.LVL61:
 948 0100 7C1DE12E 		stwx 0,29,28
 949              	.L47:
 950              	.LVL62:
 951              	.LBE2439:
 952              	.LBE2438:
 953              		.loc 3 343 0
 954 0104 809F0000 		lwz 4,0(31)
 955              	.LVL63:
 956              	.LBB2440:
 957              	.LBB2441:
 958              	.LBB2442:
 959              	.LBB2443:
 960              	.LBB2444:
 961              	.LBB2445:
 962              	.LBB2446:
 963              	.LBB2447:
 964              	.LBB2448:
 965              	.LBB2449:
 966              	.LBB2450:
 967              		.loc 5 365 0
 968 0108 3B800000 		li 28,0
 969              		.loc 5 364 0
 970 010c 7C04F050 		subf 0,4,30
 971              	.LVL64:
 972              		.loc 5 365 0
 973 0110 7C001671 		srawi. 0,0,2
 974              	.LVL65:
 975 0114 41A20014 		beq+ 0,.L48
 976              		.loc 5 366 0
 977 0118 541C103A 		slwi 28,0,2
 978 011c 7FA3EB78 		mr 3,29
 979 0120 7F85E378 		mr 5,28
 980              	.LVL66:
 981 0124 48000001 		bl memmove
 982              	.LVL67:
 983              	.L48:
 984              	.LBE2450:
 985              	.LBE2449:
 986              	.LBE2448:
 987              	.LBE2447:
 988              	.LBE2446:
 989              	.LBE2445:
 990              	.LBE2444:
 991              	.LBE2443:
 992              	.LBE2442:
 993              	.LBE2441:
 994              	.LBE2440:
 995              	.LBB2461:
 996              	.LBB2462:
 997              	.LBB2463:
 998              	.LBB2464:
 999              	.LBB2465:
 1000              	.LBB2466:
 1001              	.LBB2467:
 1002              	.LBB2468:
 1003              	.LBB2469:
 1004              	.LBB2470:
 1005              	.LBB2471:
 1006              		.loc 5 364 0
 1007 0128 801F0004 		lwz 0,4(31)
 1008              	.LBE2471:
 1009              	.LBE2470:
 1010              	.LBE2469:
 1011              	.LBE2468:
 1012              	.LBE2467:
 1013              	.LBE2466:
 1014              	.LBE2465:
 1015              	.LBE2464:
 1016              	.LBE2463:
 1017              	.LBE2462:
 1018              	.LBE2461:
 1019              	.LBB2492:
 1020              	.LBB2460:
 1021              	.LBB2459:
 1022              	.LBB2458:
 1023              	.LBB2457:
 1024              	.LBB2456:
 1025              	.LBB2455:
 1026              	.LBB2454:
 1027              	.LBB2453:
 1028              	.LBB2452:
 1029              	.LBB2451:
 1030              		.loc 5 367 0
 1031 012c 7F9DE214 		add 28,29,28
 1032              	.LVL68:
 1033              	.LBE2451:
 1034              	.LBE2452:
 1035              	.LBE2453:
 1036              	.LBE2454:
 1037              	.LBE2455:
 1038              	.LBE2456:
 1039              	.LBE2457:
 1040              	.LBE2458:
 1041              	.LBE2459:
 1042              	.LBE2460:
 1043              	.LBE2492:
 1044              		.loc 3 347 0
 1045 0130 3B5C0004 		addi 26,28,4
 1046              	.LBB2493:
 1047              	.LBB2490:
 1048              	.LBB2488:
 1049              	.LBB2486:
 1050              	.LBB2484:
 1051              	.LBB2482:
 1052              	.LBB2480:
 1053              	.LBB2478:
 1054              	.LBB2476:
 1055              	.LBB2474:
 1056              	.LBB2472:
 1057              		.loc 5 365 0
 1058 0134 3B800000 		li 28,0
 1059              		.loc 5 364 0
 1060 0138 7C1E0050 		subf 0,30,0
 1061              	.LVL69:
 1062              		.loc 5 365 0
 1063 013c 7C001671 		srawi. 0,0,2
 1064              	.LVL70:
 1065 0140 41A20018 		beq+ 0,.L49
 1066              		.loc 5 366 0
 1067 0144 541C103A 		slwi 28,0,2
 1068 0148 7F43D378 		mr 3,26
 1069 014c 7FC4F378 		mr 4,30
 1070 0150 7F85E378 		mr 5,28
 1071 0154 48000001 		bl memmove
 1072              	.LVL71:
 1073              	.L49:
 1074              	.LBE2472:
 1075              	.LBE2474:
 1076              	.LBE2476:
 1077              	.LBE2478:
 1078              	.LBE2480:
 1079              	.LBE2482:
 1080              	.LBE2484:
 1081              	.LBE2486:
 1082              	.LBE2488:
 1083              	.LBE2490:
 1084              	.LBE2493:
 1085              		.loc 3 366 0
 1086 0158 807F0000 		lwz 3,0(31)
 1087              	.LBB2494:
 1088              	.LBB2491:
 1089              	.LBB2489:
 1090              	.LBB2487:
 1091              	.LBB2485:
 1092              	.LBB2483:
 1093              	.LBB2481:
 1094              	.LBB2479:
 1095              	.LBB2477:
 1096              	.LBB2475:
 1097              	.LBB2473:
 1098              		.loc 5 367 0
 1099 015c 7F9AE214 		add 28,26,28
 1100              	.LVL72:
 1101              	.LBE2473:
 1102              	.LBE2475:
 1103              	.LBE2477:
 1104              	.LBE2479:
 1105              	.LBE2481:
 1106              	.LBE2483:
 1107              	.LBE2485:
 1108              	.LBE2487:
 1109              	.LBE2489:
 1110              	.LBE2491:
 1111              	.LBE2494:
 1112              	.LBB2495:
 1113              	.LBB2496:
 1114              		.loc 6 155 0
 1115 0160 2F830000 		cmpwi 7,3,0
 1116 0164 419E0008 		beq- 7,.L50
 1117              	.LVL73:
 1118              	.LBB2497:
 1119              	.LBB2498:
 1120              		.loc 4 98 0
 1121 0168 48000001 		bl _ZdlPv
 1122              	.LVL74:
 1123              	.L50:
 1124              	.LBE2498:
 1125              	.LBE2497:
 1126              	.LBE2496:
 1127              	.LBE2495:
 1128              	.LBE2415:
 1129              	.LBE2513:
 1130              		.loc 3 373 0
 1131 016c 8001002C 		lwz 0,44(1)
 1132              	.LBB2514:
 1133              	.LBB2507:
 1134              		.loc 3 371 0
 1135 0170 7F7DDA14 		add 27,29,27
 1136              		.loc 3 369 0
 1137 0174 93BF0000 		stw 29,0(31)
 1138              	.LBE2507:
 1139              	.LBE2514:
 1140              		.loc 3 373 0
 1141 0178 7C0803A6 		mtlr 0
 1142              	.LBB2515:
 1143              	.LBB2508:
 1144              		.loc 3 370 0
 1145 017c 939F0004 		stw 28,4(31)
 1146              		.loc 3 371 0
 1147 0180 937F0008 		stw 27,8(31)
 1148              	.LBE2508:
 1149              	.LBE2515:
 1150              		.loc 3 373 0
 1151 0184 83410010 		lwz 26,16(1)
 1152              	.LVL75:
 1153 0188 83610014 		lwz 27,20(1)
 1154 018c 83810018 		lwz 28,24(1)
 1155 0190 83A1001C 		lwz 29,28(1)
 1156              	.LVL76:
 1157 0194 83C10020 		lwz 30,32(1)
 1158              	.LVL77:
 1159 0198 83E10024 		lwz 31,36(1)
 1160              	.LVL78:
 1161 019c 38210028 		addi 1,1,40
 1162              		.cfi_remember_state
 1163              		.cfi_restore 26
 1164              		.cfi_restore 27
 1165              		.cfi_restore 28
 1166              		.cfi_restore 29
 1167              		.cfi_restore 30
 1168              		.cfi_restore 31
 1169              	.LCFI21:
 1170              		.cfi_def_cfa_offset 0
 1171 01a0 4E800020 		blr
 1172              	.LVL79:
 1173              	.L44:
 1174              	.LCFI22:
 1175              		.cfi_restore_state
 1176              	.LBB2516:
 1177              	.LBB2509:
 1178              	.LBB2499:
 1179              	.LBB2427:
 1180              		.loc 7 892 0
 1181 01a4 7F9CF050 		subf 28,28,30
 1182              	.LBE2427:
 1183              	.LBE2499:
 1184              		.loc 3 326 0
 1185 01a8 3B600004 		li 27,4
 1186              	.LBB2500:
 1187              	.LBB2428:
 1188              		.loc 7 892 0
 1189 01ac 7F9C1670 		srawi 28,28,2
 1190              	.LVL80:
 1191 01b0 4BFFFF28 		b .L51
 1192              	.LVL81:
 1193              	.L57:
 1194              	.LBE2428:
 1195              	.LBE2500:
 1196              	.LBB2501:
 1197              	.LBB2422:
 1198              		.loc 6 1245 0
 1199 01b4 3D203FFF 		lis 9,0x3fff
 1200 01b8 6129FFFF 		ori 9,9,65535
 1201 01bc 7F804840 		cmplw 7,0,9
 1202 01c0 419DFF0C 		bgt+ 7,.L45
 1203              	.LBE2422:
 1204              	.LBE2501:
 1205              	.LBB2502:
 1206              	.LBB2436:
 1207              		.loc 6 150 0
 1208 01c4 2F800000 		cmpwi 7,0,0
 1209              	.LBE2436:
 1210              	.LBE2502:
 1211              	.LBB2503:
 1212              	.LBB2429:
 1213              		.loc 7 892 0
 1214 01c8 7F9CF050 		subf 28,28,30
 1215              	.LBE2429:
 1216              	.LBE2503:
 1217              	.LBB2504:
 1218              	.LBB2423:
 1219              		.loc 6 1245 0
 1220 01cc 577B1838 		slwi 27,27,3
 1221              	.LVL82:
 1222              	.LBE2423:
 1223              	.LBE2504:
 1224              	.LBB2505:
 1225              	.LBB2430:
 1226              		.loc 7 892 0
 1227 01d0 7F9C1670 		srawi 28,28,2
 1228              	.LVL83:
 1229              	.LBE2430:
 1230              	.LBE2505:
 1231              	.LBB2506:
 1232              	.LBB2437:
 1233              		.loc 6 150 0
 1234 01d4 3BA00000 		li 29,0
 1235 01d8 419EFF14 		beq+ 7,.L46
 1236 01dc 4BFFFEFC 		b .L51
 1237              	.LBE2437:
 1238              	.LBE2506:
 1239              	.LBE2509:
 1240              	.LBE2516:
 1241              		.cfi_endproc
 1242              	.LFE1576:
 1243              		.size	_ZNSt6vectorIP10GuiElementSaIS1_EE13_M_insert_auxEN9__gnu_cxx17__normal_iteratorIPS1_S3_EERK
 1244              		.section	.text._ZNSt8_Rb_treeIPN7sigslot12_signal_baseINS0_15single_threadedEEES4_St9_IdentityIS4_
 1245              		.align 2
 1246              		.weak	_ZNSt8_Rb_treeIPN7sigslot12_signal_baseINS0_15single_threadedEEES4_St9_IdentityIS4_ESt4lessI
 1247              		.type	_ZNSt8_Rb_treeIPN7sigslot12_signal_baseINS0_15single_threadedEEES4_St9_IdentityIS4_ESt4lessI
 1248              	_ZNSt8_Rb_treeIPN7sigslot12_signal_baseINS0_15single_threadedEEES4_St9_IdentityIS4_ESt4lessIS4_ESaI
 1249              	.LFB1639:
 1250              		.file 8 "d:\\devkitpro\\devkitppc\\bin\\../lib/gcc/powerpc-eabi/4.6.3/../../../../powerpc-eabi/inc
 1251              		.loc 8 1068 0
 1252              		.cfi_startproc
 1253              	.LVL84:
 1254 0000 9421FFC8 		stwu 1,-56(1)
 1255              	.LCFI23:
 1256              		.cfi_def_cfa_offset 56
 1257 0004 7C0802A6 		mflr 0
 1258 0008 92C10010 		stw 22,16(1)
 1259              	.LBB2633:
 1260              		.loc 8 1072 0
 1261 000c 7C962379 		mr. 22,4
 1262              		.cfi_offset 22, -40
 1263              		.cfi_register 65, 0
 1264              	.LBE2633:
 1265              		.loc 8 1068 0
 1266 0010 93C10030 		stw 30,48(1)
 1267 0014 7C7E1B78 		mr 30,3
 1268              		.cfi_offset 30, -8
 1269 0018 9001003C 		stw 0,60(1)
 1270 001c 92A1000C 		stw 21,12(1)
 1271 0020 92E10014 		stw 23,20(1)
 1272 0024 93010018 		stw 24,24(1)
 1273 0028 9321001C 		stw 25,28(1)
 1274 002c 93410020 		stw 26,32(1)
 1275 0030 93610024 		stw 27,36(1)
 1276 0034 93810028 		stw 28,40(1)
 1277 0038 93A1002C 		stw 29,44(1)
 1278 003c 93E10034 		stw 31,52(1)
 1279              	.LBB2718:
 1280              		.loc 8 1072 0
 1281 0040 41820168 		beq- 0,.L58
 1282              		.cfi_offset 31, -4
 1283              		.cfi_offset 29, -12
 1284              		.cfi_offset 28, -16
 1285              		.cfi_offset 27, -20
 1286              		.cfi_offset 26, -24
 1287              		.cfi_offset 25, -28
 1288              		.cfi_offset 24, -32
 1289              		.cfi_offset 23, -36
 1290              		.cfi_offset 21, -44
 1291              		.cfi_offset 65, 4
 1292              	.LVL85:
 1293              	.L104:
 1294              		.loc 2 121 0
 1295 0044 8376000C 		lwz 27,12(22)
 1296              	.LVL86:
 1297              	.LBB2634:
 1298              	.LBB2635:
 1299              	.LBB2636:
 1300              		.loc 8 1072 0
 1301 0048 2F9B0000 		cmpwi 7,27,0
 1302 004c 419E0140 		beq- 7,.L60
 1303              	.LVL87:
 1304              	.L105:
 1305              	.LBE2636:
 1306              		.loc 2 121 0
 1307 0050 835B000C 		lwz 26,12(27)
 1308              	.LVL88:
 1309              	.LBB2712:
 1310              	.LBB2637:
 1311              	.LBB2638:
 1312              	.LBB2639:
 1313              		.loc 8 1072 0
 1314 0054 2F9A0000 		cmpwi 7,26,0
 1315 0058 419E0118 		beq- 7,.L61
 1316              	.LVL89:
 1317              	.L106:
 1318              	.LBE2639:
 1319              		.loc 2 121 0
 1320 005c 833A000C 		lwz 25,12(26)
 1321              	.LVL90:
 1322              	.LBB2705:
 1323              	.LBB2640:
 1324              	.LBB2641:
 1325              	.LBB2642:
 1326              		.loc 8 1072 0
 1327 0060 2F990000 		cmpwi 7,25,0
 1328 0064 419E00F0 		beq- 7,.L62
 1329              	.LVL91:
 1330              	.L107:
 1331              	.LBE2642:
 1332              		.loc 2 121 0
 1333 0068 8319000C 		lwz 24,12(25)
 1334              	.LVL92:
 1335              	.LBB2698:
 1336              	.LBB2643:
 1337              	.LBB2644:
 1338              	.LBB2645:
 1339              		.loc 8 1072 0
 1340 006c 2F980000 		cmpwi 7,24,0
 1341 0070 419E00C8 		beq- 7,.L63
 1342              	.LVL93:
 1343              	.L108:
 1344              	.LBE2645:
 1345              		.loc 2 121 0
 1346 0074 82F8000C 		lwz 23,12(24)
 1347              	.LVL94:
 1348              	.LBB2691:
 1349              	.LBB2646:
 1350              	.LBB2647:
 1351              	.LBB2648:
 1352              		.loc 8 1072 0
 1353 0078 2F970000 		cmpwi 7,23,0
 1354 007c 419E00A0 		beq- 7,.L64
 1355              	.LVL95:
 1356              	.L109:
 1357              	.LBE2648:
 1358              		.loc 2 121 0
 1359 0080 8397000C 		lwz 28,12(23)
 1360              	.LVL96:
 1361              	.LBB2684:
 1362              	.LBB2649:
 1363              	.LBB2650:
 1364              	.LBB2651:
 1365              		.loc 8 1072 0
 1366 0084 2F9C0000 		cmpwi 7,28,0
 1367 0088 419E0078 		beq- 7,.L65
 1368              	.LVL97:
 1369              	.L110:
 1370              	.LBE2651:
 1371              		.loc 2 121 0
 1372 008c 83BC000C 		lwz 29,12(28)
 1373              	.LVL98:
 1374              	.LBB2677:
 1375              	.LBB2652:
 1376              	.LBB2653:
 1377              	.LBB2654:
 1378              		.loc 8 1072 0
 1379 0090 2F9D0000 		cmpwi 7,29,0
 1380 0094 419E0050 		beq- 7,.L66
 1381              	.LVL99:
 1382              	.L111:
 1383              	.LBE2654:
 1384              		.loc 2 121 0
 1385 0098 83FD000C 		lwz 31,12(29)
 1386              	.LVL100:
 1387              	.LBB2670:
 1388              	.LBB2655:
 1389              	.LBB2656:
 1390              	.LBB2657:
 1391              		.loc 8 1072 0
 1392 009c 2F9F0000 		cmpwi 7,31,0
 1393 00a0 419E0028 		beq- 7,.L67
 1394              	.LVL101:
 1395              	.L112:
 1396              	.LBB2658:
 1397              		.loc 8 1074 0
 1398 00a4 809F000C 		lwz 4,12(31)
 1399 00a8 7FC3F378 		mr 3,30
 1400 00ac 48000001 		bl _ZNSt8_Rb_treeIPN7sigslot12_signal_baseINS0_15single_threadedEEES4_St9_IdentityIS4_ESt4lessIS4_
 1401              	.LBE2658:
 1402              	.LBE2657:
 1403              		.loc 2 121 0
 1404 00b0 82BF0008 		lwz 21,8(31)
 1405              	.LVL102:
 1406              	.LBB2664:
 1407              	.LBB2663:
 1408              	.LBB2659:
 1409              	.LBB2660:
 1410              	.LBB2661:
 1411              	.LBB2662:
 1412              		.loc 4 98 0
 1413 00b4 7FE3FB78 		mr 3,31
 1414 00b8 48000001 		bl _ZdlPv
 1415              	.LVL103:
 1416              	.LBE2662:
 1417              	.LBE2661:
 1418              	.LBE2660:
 1419              	.LBE2659:
 1420              	.LBE2663:
 1421              		.loc 8 1072 0
 1422 00bc 2F950000 		cmpwi 7,21,0
 1423              		.loc 8 1077 0
 1424 00c0 7EBFAB78 		mr 31,21
 1425              	.LVL104:
 1426              		.loc 8 1072 0
 1427 00c4 409EFFE0 		bne+ 7,.L112
 1428              	.LVL105:
 1429              	.L67:
 1430              	.LBE2664:
 1431              	.LBE2656:
 1432              	.LBE2655:
 1433              	.LBE2670:
 1434              		.loc 2 121 0
 1435 00c8 83FD0008 		lwz 31,8(29)
 1436              	.LVL106:
 1437              	.LBB2671:
 1438              	.LBB2669:
 1439              	.LBB2665:
 1440              	.LBB2666:
 1441              	.LBB2667:
 1442              	.LBB2668:
 1443              		.loc 4 98 0
 1444 00cc 7FA3EB78 		mr 3,29
 1445 00d0 48000001 		bl _ZdlPv
 1446              	.LVL107:
 1447              	.LBE2668:
 1448              	.LBE2667:
 1449              	.LBE2666:
 1450              	.LBE2665:
 1451              	.LBE2669:
 1452              		.loc 8 1072 0
 1453 00d4 2F9F0000 		cmpwi 7,31,0
 1454 00d8 419E000C 		beq- 7,.L66
 1455              		.loc 8 1077 0
 1456 00dc 7FFDFB78 		mr 29,31
 1457              	.LVL108:
 1458 00e0 4BFFFFB8 		b .L111
 1459              	.LVL109:
 1460              	.L66:
 1461              	.LBE2671:
 1462              	.LBE2653:
 1463              	.LBE2652:
 1464              	.LBE2677:
 1465              		.loc 2 121 0
 1466 00e4 83FC0008 		lwz 31,8(28)
 1467              	.LVL110:
 1468              	.LBB2678:
 1469              	.LBB2676:
 1470              	.LBB2672:
 1471              	.LBB2673:
 1472              	.LBB2674:
 1473              	.LBB2675:
 1474              		.loc 4 98 0
 1475 00e8 7F83E378 		mr 3,28
 1476 00ec 48000001 		bl _ZdlPv
 1477              	.LVL111:
 1478              	.LBE2675:
 1479              	.LBE2674:
 1480              	.LBE2673:
 1481              	.LBE2672:
 1482              	.LBE2676:
 1483              		.loc 8 1072 0
 1484 00f0 2F9F0000 		cmpwi 7,31,0
 1485 00f4 419E000C 		beq- 7,.L65
 1486              		.loc 8 1077 0
 1487 00f8 7FFCFB78 		mr 28,31
 1488              	.LVL112:
 1489 00fc 4BFFFF90 		b .L110
 1490              	.LVL113:
 1491              	.L65:
 1492              	.LBE2678:
 1493              	.LBE2650:
 1494              	.LBE2649:
 1495              	.LBE2684:
 1496              		.loc 2 121 0
 1497 0100 83F70008 		lwz 31,8(23)
 1498              	.LVL114:
 1499              	.LBB2685:
 1500              	.LBB2683:
 1501              	.LBB2679:
 1502              	.LBB2680:
 1503              	.LBB2681:
 1504              	.LBB2682:
 1505              		.loc 4 98 0
 1506 0104 7EE3BB78 		mr 3,23
 1507 0108 48000001 		bl _ZdlPv
 1508              	.LVL115:
 1509              	.LBE2682:
 1510              	.LBE2681:
 1511              	.LBE2680:
 1512              	.LBE2679:
 1513              	.LBE2683:
 1514              		.loc 8 1072 0
 1515 010c 2F9F0000 		cmpwi 7,31,0
 1516 0110 419E000C 		beq- 7,.L64
 1517              		.loc 8 1077 0
 1518 0114 7FF7FB78 		mr 23,31
 1519              	.LVL116:
 1520 0118 4BFFFF68 		b .L109
 1521              	.LVL117:
 1522              	.L64:
 1523              	.LBE2685:
 1524              	.LBE2647:
 1525              	.LBE2646:
 1526              	.LBE2691:
 1527              		.loc 2 121 0
 1528 011c 83F80008 		lwz 31,8(24)
 1529              	.LVL118:
 1530              	.LBB2692:
 1531              	.LBB2690:
 1532              	.LBB2686:
 1533              	.LBB2687:
 1534              	.LBB2688:
 1535              	.LBB2689:
 1536              		.loc 4 98 0
 1537 0120 7F03C378 		mr 3,24
 1538 0124 48000001 		bl _ZdlPv
 1539              	.LVL119:
 1540              	.LBE2689:
 1541              	.LBE2688:
 1542              	.LBE2687:
 1543              	.LBE2686:
 1544              	.LBE2690:
 1545              		.loc 8 1072 0
 1546 0128 2F9F0000 		cmpwi 7,31,0
 1547 012c 419E000C 		beq- 7,.L63
 1548              		.loc 8 1077 0
 1549 0130 7FF8FB78 		mr 24,31
 1550              	.LVL120:
 1551 0134 4BFFFF40 		b .L108
 1552              	.LVL121:
 1553              	.L63:
 1554              	.LBE2692:
 1555              	.LBE2644:
 1556              	.LBE2643:
 1557              	.LBE2698:
 1558              		.loc 2 121 0
 1559 0138 83F90008 		lwz 31,8(25)
 1560              	.LVL122:
 1561              	.LBB2699:
 1562              	.LBB2697:
 1563              	.LBB2693:
 1564              	.LBB2694:
 1565              	.LBB2695:
 1566              	.LBB2696:
 1567              		.loc 4 98 0
 1568 013c 7F23CB78 		mr 3,25
 1569 0140 48000001 		bl _ZdlPv
 1570              	.LVL123:
 1571              	.LBE2696:
 1572              	.LBE2695:
 1573              	.LBE2694:
 1574              	.LBE2693:
 1575              	.LBE2697:
 1576              		.loc 8 1072 0
 1577 0144 2F9F0000 		cmpwi 7,31,0
 1578 0148 419E000C 		beq- 7,.L62
 1579              		.loc 8 1077 0
 1580 014c 7FF9FB78 		mr 25,31
 1581              	.LVL124:
 1582 0150 4BFFFF18 		b .L107
 1583              	.LVL125:
 1584              	.L62:
 1585              	.LBE2699:
 1586              	.LBE2641:
 1587              	.LBE2640:
 1588              	.LBE2705:
 1589              		.loc 2 121 0
 1590 0154 83FA0008 		lwz 31,8(26)
 1591              	.LVL126:
 1592              	.LBB2706:
 1593              	.LBB2704:
 1594              	.LBB2700:
 1595              	.LBB2701:
 1596              	.LBB2702:
 1597              	.LBB2703:
 1598              		.loc 4 98 0
 1599 0158 7F43D378 		mr 3,26
 1600 015c 48000001 		bl _ZdlPv
 1601              	.LVL127:
 1602              	.LBE2703:
 1603              	.LBE2702:
 1604              	.LBE2701:
 1605              	.LBE2700:
 1606              	.LBE2704:
 1607              		.loc 8 1072 0
 1608 0160 2F9F0000 		cmpwi 7,31,0
 1609 0164 419E000C 		beq- 7,.L61
 1610              		.loc 8 1077 0
 1611 0168 7FFAFB78 		mr 26,31
 1612              	.LVL128:
 1613 016c 4BFFFEF0 		b .L106
 1614              	.LVL129:
 1615              	.L61:
 1616              	.LBE2706:
 1617              	.LBE2638:
 1618              	.LBE2637:
 1619              	.LBE2712:
 1620              		.loc 2 121 0
 1621 0170 83FB0008 		lwz 31,8(27)
 1622              	.LVL130:
 1623              	.LBB2713:
 1624              	.LBB2711:
 1625              	.LBB2707:
 1626              	.LBB2708:
 1627              	.LBB2709:
 1628              	.LBB2710:
 1629              		.loc 4 98 0
 1630 0174 7F63DB78 		mr 3,27
 1631 0178 48000001 		bl _ZdlPv
 1632              	.LVL131:
 1633              	.LBE2710:
 1634              	.LBE2709:
 1635              	.LBE2708:
 1636              	.LBE2707:
 1637              	.LBE2711:
 1638              		.loc 8 1072 0
 1639 017c 2F9F0000 		cmpwi 7,31,0
 1640 0180 419E000C 		beq- 7,.L60
 1641              		.loc 8 1077 0
 1642 0184 7FFBFB78 		mr 27,31
 1643              	.LVL132:
 1644 0188 4BFFFEC8 		b .L105
 1645              	.LVL133:
 1646              	.L60:
 1647              		.loc 2 121 0
 1648 018c 83F60008 		lwz 31,8(22)
 1649              	.LVL134:
 1650              	.LBE2713:
 1651              	.LBE2635:
 1652              	.LBB2714:
 1653              	.LBB2715:
 1654              	.LBB2716:
 1655              	.LBB2717:
 1656              		.loc 4 98 0
 1657 0190 7EC3B378 		mr 3,22
 1658 0194 48000001 		bl _ZdlPv
 1659              	.LVL135:
 1660              	.LBE2717:
 1661              	.LBE2716:
 1662              	.LBE2715:
 1663              	.LBE2714:
 1664              	.LBE2634:
 1665              		.loc 8 1072 0
 1666 0198 2F9F0000 		cmpwi 7,31,0
 1667 019c 419E000C 		beq- 7,.L58
 1668              		.loc 8 1077 0
 1669 01a0 7FF6FB78 		mr 22,31
 1670              	.LVL136:
 1671 01a4 4BFFFEA0 		b .L104
 1672              	.LVL137:
 1673              	.L58:
 1674              	.LBE2718:
 1675              		.loc 8 1079 0
 1676 01a8 8001003C 		lwz 0,60(1)
 1677 01ac 82A1000C 		lwz 21,12(1)
 1678 01b0 7C0803A6 		mtlr 0
 1679 01b4 82C10010 		lwz 22,16(1)
 1680 01b8 82E10014 		lwz 23,20(1)
 1681 01bc 83010018 		lwz 24,24(1)
 1682 01c0 8321001C 		lwz 25,28(1)
 1683 01c4 83410020 		lwz 26,32(1)
 1684 01c8 83610024 		lwz 27,36(1)
 1685 01cc 83810028 		lwz 28,40(1)
 1686 01d0 83A1002C 		lwz 29,44(1)
 1687 01d4 83C10030 		lwz 30,48(1)
 1688              	.LVL138:
 1689 01d8 83E10034 		lwz 31,52(1)
 1690 01dc 38210038 		addi 1,1,56
 1691              	.LCFI24:
 1692              		.cfi_def_cfa_offset 0
 1693              		.cfi_restore 31
 1694              		.cfi_restore 30
 1695              		.cfi_restore 29
 1696              		.cfi_restore 28
 1697              		.cfi_restore 27
 1698              		.cfi_restore 26
 1699              		.cfi_restore 25
 1700              		.cfi_restore 24
 1701              		.cfi_restore 23
 1702              		.cfi_restore 22
 1703              		.cfi_restore 21
 1704 01e0 4E800020 		blr
 1705              		.cfi_endproc
 1706              	.LFE1639:
 1707              		.size	_ZNSt8_Rb_treeIPN7sigslot12_signal_baseINS0_15single_threadedEEES4_St9_IdentityIS4_ESt4lessI
 1708              		.section	.text._ZN7sigslot9has_slotsINS_15single_threadedEED2Ev,"axG",@progbits,_ZN7sigslot9has_sl
 1709              		.align 2
 1710              		.weak	_ZN7sigslot9has_slotsINS_15single_threadedEED2Ev
 1711              		.type	_ZN7sigslot9has_slotsINS_15single_threadedEED2Ev, @function
 1712              	_ZN7sigslot9has_slotsINS_15single_threadedEED2Ev:
 1713              	.LFB1528:
 1714              		.loc 1 513 0
 1715              		.cfi_startproc
 1716              		.cfi_personality 0,__gxx_personality_v0
 1717              		.cfi_lsda 0,.LLSDA1528
 1718              	.LVL139:
 1719 0000 7C0802A6 		mflr 0
 1720 0004 9421FFE0 		stwu 1,-32(1)
 1721              	.LCFI25:
 1722              		.cfi_def_cfa_offset 32
 1723              		.cfi_register 65, 0
 1724              	.LBB2865:
 1725              		.loc 1 516 0
 1726 0008 3D200000 		lis 9,_ZTVN7sigslot9has_slotsINS_15single_threadedEEE+8@ha
 1727              	.LBE2865:
 1728              		.loc 1 513 0
 1729 000c 93810010 		stw 28,16(1)
 1730 0010 3B830004 		addi 28,3,4
 1731              		.cfi_offset 28, -16
 1732 0014 90010024 		stw 0,36(1)
 1733              	.LBB2941:
 1734              		.loc 1 516 0
 1735 0018 38090008 		la 0,_ZTVN7sigslot9has_slotsINS_15single_threadedEEE+8@l(9)
 1736              		.cfi_offset 65, 4
 1737              	.LBE2941:
 1738              		.loc 1 513 0
 1739 001c 93A10014 		stw 29,20(1)
 1740 0020 7C7D1B78 		mr 29,3
 1741              		.cfi_offset 29, -12
 1742 0024 93410008 		stw 26,8(1)
 1743 0028 9361000C 		stw 27,12(1)
 1744 002c 93C10018 		stw 30,24(1)
 1745 0030 93E1001C 		stw 31,28(1)
 1746              	.LBB2942:
 1747              		.loc 1 516 0
 1748 0034 90030000 		stw 0,0(3)
 1749              	.LVL140:
 1750              	.LEHB0:
 1751              	.LBB2866:
 1752              	.LBB2867:
 1753              	.LBB2868:
 1754              	.LBB2869:
 1755              		.loc 1 338 0
 1756              		.cfi_offset 31, -4
 1757              		.cfi_offset 30, -8
 1758              		.cfi_offset 27, -20
 1759              		.cfi_offset 26, -24
 1760 0038 48000001 		bl _ZN7sigslot15single_threaded4lockEv
 1761              	.LEHE0:
 1762              	.LVL141:
 1763              	.LBE2869:
 1764              	.LBE2868:
 1765              	.LBB2870:
 1766              		.loc 2 121 0
 1767 003c 83FD0010 		lwz 31,16(29)
 1768              	.LVL142:
 1769              	.LBE2870:
 1770              	.LBB2871:
 1771              	.LBB2872:
 1772              	.LBB2873:
 1773              		.loc 8 671 0
 1774 0040 3BDC0004 		addi 30,28,4
 1775              	.LVL143:
 1776              	.LBE2873:
 1777              	.LBE2872:
 1778              	.LBE2871:
 1779              		.loc 1 524 0
 1780 0044 7F9FF000 		cmpw 7,31,30
 1781 0048 419E0034 		beq- 7,.L114
 1782              	.LVL144:
 1783              	.L141:
 1784              		.loc 1 526 0
 1785 004c 807F0010 		lwz 3,16(31)
 1786 0050 7FA4EB78 		mr 4,29
 1787 0054 81230000 		lwz 9,0(3)
 1788 0058 80090010 		lwz 0,16(9)
 1789 005c 7C0903A6 		mtctr 0
 1790              	.LEHB1:
 1791 0060 4E800421 		bctrl
 1792              	.LEHE1:
 1793              	.LVL145:
 1794              	.LBB2874:
 1795              	.LBB2875:
 1796              		.loc 8 269 0
 1797 0064 7FE3FB78 		mr 3,31
 1798 0068 48000001 		bl _ZSt18_Rb_tree_incrementPKSt18_Rb_tree_node_base
 1799              	.LBE2875:
 1800              	.LBE2874:
 1801              		.loc 1 524 0
 1802 006c 7F9E1800 		cmpw 7,30,3
 1803              	.LBB2877:
 1804              	.LBB2876:
 1805              		.loc 8 269 0
 1806 0070 7C7F1B78 		mr 31,3
 1807              	.LVL146:
 1808              	.LBE2876:
 1809              	.LBE2877:
 1810              		.loc 1 524 0
 1811 0074 409EFFD8 		bne+ 7,.L141
 1812 0078 83FD0010 		lwz 31,16(29)
 1813              	.LVL147:
 1814              	.L114:
 1815              	.LBB2878:
 1816              	.LBB2879:
 1817              	.LBB2880:
 1818              	.LBB2881:
 1819              	.LBB2882:
 1820              	.LBB2883:
 1821              	.LBB2884:
 1822              		.loc 8 665 0
 1823 007c 3B5C0004 		addi 26,28,4
 1824              	.LBE2884:
 1825              	.LBE2883:
 1826              		.loc 8 1500 0
 1827 0080 7F9ED000 		cmpw 7,30,26
 1828 0084 419E0098 		beq- 7,.L116
 1829              	.LVL148:
 1830              		.loc 8 1503 0
 1831 0088 7F9EF800 		cmpw 7,30,31
 1832 008c 40BE000C 		bne+ 7,.L143
 1833 0090 48000038 		b .L117
 1834              	.LVL149:
 1835              	.L138:
 1836              		.loc 8 277 0
 1837 0094 7F7FDB78 		mr 31,27
 1838              	.LVL150:
 1839              	.L143:
 1840              	.LBB2885:
 1841              	.LBB2886:
 1842 0098 7FE3FB78 		mr 3,31
 1843 009c 48000001 		bl _ZSt18_Rb_tree_incrementPKSt18_Rb_tree_node_base
 1844              	.LBE2886:
 1845              	.LBE2885:
 1846              	.LBB2888:
 1847              	.LBB2889:
 1848              	.LBB2890:
 1849              		.loc 8 1489 0
 1850 00a0 7F44D378 		mr 4,26
 1851              	.LBE2890:
 1852              	.LBE2889:
 1853              	.LBE2888:
 1854              	.LBB2899:
 1855              	.LBB2887:
 1856              		.loc 8 277 0
 1857 00a4 7C7B1B78 		mr 27,3
 1858              	.LVL151:
 1859              	.LBE2887:
 1860              	.LBE2899:
 1861              	.LBB2900:
 1862              	.LBB2897:
 1863              	.LBB2895:
 1864              		.loc 8 1489 0
 1865 00a8 7FE3FB78 		mr 3,31
 1866              	.LVL152:
 1867 00ac 48000001 		bl _ZSt28_Rb_tree_rebalance_for_erasePSt18_Rb_tree_node_baseRS_
 1868              	.LBB2891:
 1869              	.LBB2892:
 1870              	.LBB2893:
 1871              	.LBB2894:
 1872              		.loc 4 98 0
 1873 00b0 48000001 		bl _ZdlPv
 1874              	.LBE2894:
 1875              	.LBE2893:
 1876              	.LBE2892:
 1877              	.LBE2891:
 1878              	.LBE2895:
 1879              	.LBE2897:
 1880              	.LBE2900:
 1881              		.loc 8 1503 0
 1882 00b4 7F9ED800 		cmpw 7,30,27
 1883              	.LBB2901:
 1884              	.LBB2898:
 1885              	.LBB2896:
 1886              		.loc 8 1491 0
 1887 00b8 813C0014 		lwz 9,20(28)
 1888 00bc 3809FFFF 		addi 0,9,-1
 1889 00c0 901C0014 		stw 0,20(28)
 1890              	.LBE2896:
 1891              	.LBE2898:
 1892              	.LBE2901:
 1893              		.loc 8 1503 0
 1894 00c4 409EFFD0 		bne+ 7,.L138
 1895              	.LVL153:
 1896              	.L117:
 1897              	.LBE2882:
 1898              	.LBE2881:
 1899              	.LBE2880:
 1900              	.LBE2879:
 1901              	.LBE2878:
 1902              	.LBB2910:
 1903              	.LBB2911:
 1904              	.LBB2912:
 1905              		.loc 1 343 0
 1906 00c8 813D0000 		lwz 9,0(29)
 1907 00cc 7FA3EB78 		mr 3,29
 1908 00d0 8009000C 		lwz 0,12(9)
 1909 00d4 7C0903A6 		mtctr 0
 1910              	.LEHB2:
 1911 00d8 4E800421 		bctrl
 1912              	.LEHE2:
 1913              	.LVL154:
 1914              	.LBE2912:
 1915              	.LBE2911:
 1916              	.LBE2910:
 1917              	.LBE2867:
 1918              	.LBE2866:
 1919              	.LBB2919:
 1920              	.LBB2920:
 1921              	.LBB2921:
 1922              	.LBB2922:
 1923              	.LBB2923:
 1924              		.loc 8 639 0
 1925 00dc 809D000C 		lwz 4,12(29)
 1926 00e0 7F83E378 		mr 3,28
 1927 00e4 48000001 		bl _ZNSt8_Rb_treeIPN7sigslot12_signal_baseINS0_15single_threadedEEES4_St9_IdentityIS4_ESt4lessIS4_
 1928              	.LVL155:
 1929              	.LBE2923:
 1930              	.LBE2922:
 1931              	.LBE2921:
 1932              	.LBE2920:
 1933              	.LBE2919:
 1934              	.LBB2924:
 1935              	.LBB2925:
 1936              	.LBB2926:
 1937              		.loc 1 105 0
 1938 00e8 3D200000 		lis 9,_ZTVN7sigslot15single_threadedE+8@ha
 1939 00ec 38090008 		la 0,_ZTVN7sigslot15single_threadedE+8@l(9)
 1940              	.LBE2926:
 1941              	.LBE2925:
 1942              	.LBE2924:
 1943              	.LBE2942:
 1944              		.loc 1 516 0
 1945 00f0 83410008 		lwz 26,8(1)
 1946              	.LBB2943:
 1947              	.LBB2929:
 1948              	.LBB2928:
 1949              	.LBB2927:
 1950              		.loc 1 105 0
 1951 00f4 901D0000 		stw 0,0(29)
 1952              	.LBE2927:
 1953              	.LBE2928:
 1954              	.LBE2929:
 1955              	.LBE2943:
 1956              		.loc 1 516 0
 1957 00f8 80010024 		lwz 0,36(1)
 1958 00fc 8361000C 		lwz 27,12(1)
 1959 0100 7C0803A6 		mtlr 0
 1960 0104 83810010 		lwz 28,16(1)
 1961              	.LVL156:
 1962 0108 83A10014 		lwz 29,20(1)
 1963              	.LVL157:
 1964 010c 83C10018 		lwz 30,24(1)
 1965              	.LVL158:
 1966 0110 83E1001C 		lwz 31,28(1)
 1967 0114 38210020 		addi 1,1,32
 1968              		.cfi_remember_state
 1969              	.LCFI26:
 1970              		.cfi_def_cfa_offset 0
 1971              		.cfi_restore 31
 1972              		.cfi_restore 30
 1973              		.cfi_restore 29
 1974              		.cfi_restore 28
 1975              		.cfi_restore 27
 1976              		.cfi_restore 26
 1977 0118 4E800020 		blr
 1978              	.LVL159:
 1979              	.L116:
 1980              	.LCFI27:
 1981              		.cfi_restore_state
 1982              	.LBB2944:
 1983              	.LBB2930:
 1984              	.LBB2917:
 1985              	.LBB2913:
 1986              	.LBB2909:
 1987              	.LBB2908:
 1988              	.LBB2907:
 1989              	.LBB2906:
 1990              	.LBB2902:
 1991              	.LBB2903:
 1992              	.LBB2904:
 1993              	.LBB2905:
 1994              		.loc 8 809 0
 1995 011c 809D000C 		lwz 4,12(29)
 1996 0120 7F83E378 		mr 3,28
 1997 0124 48000001 		bl _ZNSt8_Rb_treeIPN7sigslot12_signal_baseINS0_15single_threadedEEES4_St9_IdentityIS4_ESt4lessIS4_
 1998              	.LVL160:
 1999              		.loc 8 811 0
 2000 0128 38000000 		li 0,0
 2001              		.loc 8 810 0
 2002 012c 93DD0010 		stw 30,16(29)
 2003              	.LVL161:
 2004              		.loc 8 811 0
 2005 0130 901D000C 		stw 0,12(29)
 2006              	.LVL162:
 2007              		.loc 8 812 0
 2008 0134 93DD0014 		stw 30,20(29)
 2009              		.loc 8 813 0
 2010 0138 901D0018 		stw 0,24(29)
 2011 013c 4BFFFF8C 		b .L117
 2012              	.LVL163:
 2013              	.L139:
 2014 0140 7C7F1B78 		mr 31,3
 2015              	.L124:
 2016              	.LVL164:
 2017              	.LBE2905:
 2018              	.LBE2904:
 2019              	.LBE2903:
 2020              	.LBE2902:
 2021              	.LBE2906:
 2022              	.LBE2907:
 2023              	.LBE2908:
 2024              	.LBE2909:
 2025              	.LBE2913:
 2026              	.LBE2917:
 2027              	.LBE2930:
 2028              	.LBB2931:
 2029              	.LBB2932:
 2030              	.LBB2933:
 2031              	.LBB2934:
 2032              	.LBB2935:
 2033              	.LBB2936:
 2034              		.loc 8 639 0
 2035 0144 809D000C 		lwz 4,12(29)
 2036 0148 7F83E378 		mr 3,28
 2037 014c 48000001 		bl _ZNSt8_Rb_treeIPN7sigslot12_signal_baseINS0_15single_threadedEEES4_St9_IdentityIS4_ESt4lessIS4_
 2038              	.LVL165:
 2039              	.LBE2936:
 2040              	.LBE2935:
 2041              	.LBE2934:
 2042              	.LBE2933:
 2043              	.LBE2932:
 2044              	.LBE2931:
 2045              	.LBB2937:
 2046              	.LBB2938:
 2047              	.LBB2939:
 2048              		.loc 1 105 0
 2049 0150 3D200000 		lis 9,_ZTVN7sigslot15single_threadedE+8@ha
 2050 0154 38090008 		la 0,_ZTVN7sigslot15single_threadedE+8@l(9)
 2051 0158 7FE3FB78 		mr 3,31
 2052 015c 901D0000 		stw 0,0(29)
 2053              	.LEHB3:
 2054 0160 48000001 		bl _Unwind_Resume
 2055              	.LEHE3:
 2056              	.LVL166:
 2057              	.L140:
 2058              	.LBE2939:
 2059              	.LBE2938:
 2060              	.LBE2937:
 2061              	.LBB2940:
 2062              	.LBB2918:
 2063              	.LBB2914:
 2064              	.LBB2915:
 2065              	.LBB2916:
 2066              		.loc 1 343 0
 2067 0164 813D0000 		lwz 9,0(29)
 2068 0168 7C7F1B78 		mr 31,3
 2069              	.LVL167:
 2070 016c 7FA3EB78 		mr 3,29
 2071 0170 8009000C 		lwz 0,12(9)
 2072 0174 7C0903A6 		mtctr 0
 2073 0178 4E800421 		bctrl
 2074 017c 4BFFFFC8 		b .L124
 2075              	.LBE2916:
 2076              	.LBE2915:
 2077              	.LBE2914:
 2078              	.LBE2918:
 2079              	.LBE2940:
 2080              	.LBE2944:
 2081              		.cfi_endproc
 2082              	.LFE1528:
 2083              		.globl __gxx_personality_v0
 2084              		.section	.gcc_except_table,"a",@progbits
 2085              	.LLSDA1528:
 2086 0000 FF       		.byte	0xff
 2087 0001 FF       		.byte	0xff
 2088 0002 01       		.byte	0x1
 2089 0003 15       		.uleb128 .LLSDACSE1528-.LLSDACSB1528
 2090              	.LLSDACSB1528:
 2091 0004 38       		.uleb128 .LEHB0-.LFB1528
 2092 0005 04       		.uleb128 .LEHE0-.LEHB0
 2093 0006 C002     		.uleb128 .L139-.LFB1528
 2094 0008 00       		.uleb128 0
 2095 0009 60       		.uleb128 .LEHB1-.LFB1528
 2096 000a 04       		.uleb128 .LEHE1-.LEHB1
 2097 000b E402     		.uleb128 .L140-.LFB1528
 2098 000d 00       		.uleb128 0
 2099 000e D801     		.uleb128 .LEHB2-.LFB1528
 2100 0010 04       		.uleb128 .LEHE2-.LEHB2
 2101 0011 C002     		.uleb128 .L139-.LFB1528
 2102 0013 00       		.uleb128 0
 2103 0014 E002     		.uleb128 .LEHB3-.LFB1528
 2104 0016 04       		.uleb128 .LEHE3-.LEHB3
 2105 0017 00       		.uleb128 0
 2106 0018 00       		.uleb128 0
 2107              	.LLSDACSE1528:
 2108              		.section	.text._ZN7sigslot9has_slotsINS_15single_threadedEED2Ev,"axG",@progbits,_ZN7sigslot9has_sl
 2109              		.size	_ZN7sigslot9has_slotsINS_15single_threadedEED2Ev, .-_ZN7sigslot9has_slotsINS_15single_thread
 2110              		.section	.text._ZN7sigslot9has_slotsINS_15single_threadedEED0Ev,"axG",@progbits,_ZN7sigslot9has_sl
 2111              		.align 2
 2112              		.weak	_ZN7sigslot9has_slotsINS_15single_threadedEED0Ev
 2113              		.type	_ZN7sigslot9has_slotsINS_15single_threadedEED0Ev, @function
 2114              	_ZN7sigslot9has_slotsINS_15single_threadedEED0Ev:
 2115              	.LFB1530:
 2116              		.loc 1 513 0
 2117              		.cfi_startproc
 2118              		.cfi_personality 0,__gxx_personality_v0
 2119              		.cfi_lsda 0,.LLSDA1530
 2120              	.LVL168:
 2121 0000 7C0802A6 		mflr 0
 2122 0004 9421FFE0 		stwu 1,-32(1)
 2123              	.LCFI28:
 2124              		.cfi_def_cfa_offset 32
 2125              		.cfi_register 65, 0
 2126              	.LBB3038:
 2127              	.LBB3039:
 2128              	.LBB3040:
 2129              		.loc 1 516 0
 2130 0008 3D200000 		lis 9,_ZTVN7sigslot9has_slotsINS_15single_threadedEEE+8@ha
 2131              	.LBE3040:
 2132              	.LBE3039:
 2133              	.LBE3038:
 2134              		.loc 1 513 0
 2135 000c 93810010 		stw 28,16(1)
 2136 0010 3B830004 		addi 28,3,4
 2137              		.cfi_offset 28, -16
 2138 0014 90010024 		stw 0,36(1)
 2139              	.LBB3124:
 2140              	.LBB3120:
 2141              	.LBB3116:
 2142              		.loc 1 516 0
 2143 0018 38090008 		la 0,_ZTVN7sigslot9has_slotsINS_15single_threadedEEE+8@l(9)
 2144              		.cfi_offset 65, 4
 2145              	.LBE3116:
 2146              	.LBE3120:
 2147              	.LBE3124:
 2148              		.loc 1 513 0
 2149 001c 93A10014 		stw 29,20(1)
 2150 0020 7C7D1B78 		mr 29,3
 2151              		.cfi_offset 29, -12
 2152              	.LVL169:
 2153 0024 93410008 		stw 26,8(1)
 2154 0028 9361000C 		stw 27,12(1)
 2155 002c 93C10018 		stw 30,24(1)
 2156 0030 93E1001C 		stw 31,28(1)
 2157              	.LBB3125:
 2158              	.LBB3121:
 2159              	.LBB3117:
 2160              		.loc 1 516 0
 2161 0034 90030000 		stw 0,0(3)
 2162              	.LVL170:
 2163              	.LEHB4:
 2164              	.LBB3041:
 2165              	.LBB3042:
 2166              	.LBB3043:
 2167              	.LBB3044:
 2168              		.loc 1 338 0
 2169              		.cfi_offset 31, -4
 2170              		.cfi_offset 30, -8
 2171              		.cfi_offset 27, -20
 2172              		.cfi_offset 26, -24
 2173 0038 48000001 		bl _ZN7sigslot15single_threaded4lockEv
 2174              	.LEHE4:
 2175              	.LVL171:
 2176              	.LBE3044:
 2177              	.LBE3043:
 2178              	.LBB3045:
 2179              		.loc 2 121 0
 2180 003c 83FD0010 		lwz 31,16(29)
 2181              	.LVL172:
 2182              	.LBE3045:
 2183              	.LBB3046:
 2184              	.LBB3047:
 2185              	.LBB3048:
 2186              		.loc 8 671 0
 2187 0040 3BDC0004 		addi 30,28,4
 2188              	.LVL173:
 2189              	.LBE3048:
 2190              	.LBE3047:
 2191              	.LBE3046:
 2192              		.loc 1 524 0
 2193 0044 7F9FF000 		cmpw 7,31,30
 2194 0048 419E0034 		beq- 7,.L146
 2195              	.LVL174:
 2196              	.L174:
 2197              		.loc 1 526 0
 2198 004c 807F0010 		lwz 3,16(31)
 2199 0050 7FA4EB78 		mr 4,29
 2200 0054 81230000 		lwz 9,0(3)
 2201 0058 80090010 		lwz 0,16(9)
 2202 005c 7C0903A6 		mtctr 0
 2203              	.LEHB5:
 2204 0060 4E800421 		bctrl
 2205              	.LEHE5:
 2206              	.LVL175:
 2207              	.LBB3049:
 2208              	.LBB3050:
 2209              		.loc 8 269 0
 2210 0064 7FE3FB78 		mr 3,31
 2211 0068 48000001 		bl _ZSt18_Rb_tree_incrementPKSt18_Rb_tree_node_base
 2212              	.LBE3050:
 2213              	.LBE3049:
 2214              		.loc 1 524 0
 2215 006c 7F9E1800 		cmpw 7,30,3
 2216              	.LBB3052:
 2217              	.LBB3051:
 2218              		.loc 8 269 0
 2219 0070 7C7F1B78 		mr 31,3
 2220              	.LVL176:
 2221              	.LBE3051:
 2222              	.LBE3052:
 2223              		.loc 1 524 0
 2224 0074 409EFFD8 		bne+ 7,.L174
 2225 0078 83FD0010 		lwz 31,16(29)
 2226              	.LVL177:
 2227              	.L146:
 2228              	.LBB3053:
 2229              	.LBB3054:
 2230              	.LBB3055:
 2231              	.LBB3056:
 2232              	.LBB3057:
 2233              	.LBB3058:
 2234              	.LBB3059:
 2235              		.loc 8 665 0
 2236 007c 3B5C0004 		addi 26,28,4
 2237              	.LBE3059:
 2238              	.LBE3058:
 2239              		.loc 8 1500 0
 2240 0080 7F9ED000 		cmpw 7,30,26
 2241 0084 419E00A0 		beq- 7,.L148
 2242              	.LVL178:
 2243              		.loc 8 1503 0
 2244 0088 7F9EF800 		cmpw 7,30,31
 2245 008c 40BE000C 		bne+ 7,.L176
 2246 0090 48000038 		b .L149
 2247              	.LVL179:
 2248              	.L171:
 2249              		.loc 8 277 0
 2250 0094 7F7FDB78 		mr 31,27
 2251              	.LVL180:
 2252              	.L176:
 2253              	.LBB3060:
 2254              	.LBB3061:
 2255 0098 7FE3FB78 		mr 3,31
 2256 009c 48000001 		bl _ZSt18_Rb_tree_incrementPKSt18_Rb_tree_node_base
 2257              	.LBE3061:
 2258              	.LBE3060:
 2259              	.LBB3063:
 2260              	.LBB3064:
 2261              	.LBB3065:
 2262              		.loc 8 1489 0
 2263 00a0 7F44D378 		mr 4,26
 2264              	.LBE3065:
 2265              	.LBE3064:
 2266              	.LBE3063:
 2267              	.LBB3074:
 2268              	.LBB3062:
 2269              		.loc 8 277 0
 2270 00a4 7C7B1B78 		mr 27,3
 2271              	.LVL181:
 2272              	.LBE3062:
 2273              	.LBE3074:
 2274              	.LBB3075:
 2275              	.LBB3072:
 2276              	.LBB3070:
 2277              		.loc 8 1489 0
 2278 00a8 7FE3FB78 		mr 3,31
 2279              	.LVL182:
 2280 00ac 48000001 		bl _ZSt28_Rb_tree_rebalance_for_erasePSt18_Rb_tree_node_baseRS_
 2281              	.LBB3066:
 2282              	.LBB3067:
 2283              	.LBB3068:
 2284              	.LBB3069:
 2285              		.loc 4 98 0
 2286 00b0 48000001 		bl _ZdlPv
 2287              	.LBE3069:
 2288              	.LBE3068:
 2289              	.LBE3067:
 2290              	.LBE3066:
 2291              	.LBE3070:
 2292              	.LBE3072:
 2293              	.LBE3075:
 2294              		.loc 8 1503 0
 2295 00b4 7F9ED800 		cmpw 7,30,27
 2296              	.LBB3076:
 2297              	.LBB3073:
 2298              	.LBB3071:
 2299              		.loc 8 1491 0
 2300 00b8 813C0014 		lwz 9,20(28)
 2301 00bc 3809FFFF 		addi 0,9,-1
 2302 00c0 901C0014 		stw 0,20(28)
 2303              	.LBE3071:
 2304              	.LBE3073:
 2305              	.LBE3076:
 2306              		.loc 8 1503 0
 2307 00c4 409EFFD0 		bne+ 7,.L171
 2308              	.LVL183:
 2309              	.L149:
 2310              	.LBE3057:
 2311              	.LBE3056:
 2312              	.LBE3055:
 2313              	.LBE3054:
 2314              	.LBE3053:
 2315              	.LBB3085:
 2316              	.LBB3086:
 2317              	.LBB3087:
 2318              		.loc 1 343 0
 2319 00c8 813D0000 		lwz 9,0(29)
 2320 00cc 7FA3EB78 		mr 3,29
 2321 00d0 8009000C 		lwz 0,12(9)
 2322 00d4 7C0903A6 		mtctr 0
 2323              	.LEHB6:
 2324 00d8 4E800421 		bctrl
 2325              	.LEHE6:
 2326              	.LVL184:
 2327              	.LBE3087:
 2328              	.LBE3086:
 2329              	.LBE3085:
 2330              	.LBE3042:
 2331              	.LBE3041:
 2332              	.LBB3094:
 2333              	.LBB3095:
 2334              	.LBB3096:
 2335              	.LBB3097:
 2336              	.LBB3098:
 2337              		.loc 8 639 0
 2338 00dc 809D000C 		lwz 4,12(29)
 2339 00e0 7F83E378 		mr 3,28
 2340 00e4 48000001 		bl _ZNSt8_Rb_treeIPN7sigslot12_signal_baseINS0_15single_threadedEEES4_St9_IdentityIS4_ESt4lessIS4_
 2341              	.LVL185:
 2342              	.LBE3098:
 2343              	.LBE3097:
 2344              	.LBE3096:
 2345              	.LBE3095:
 2346              	.LBE3094:
 2347              	.LBB3099:
 2348              	.LBB3100:
 2349              	.LBB3101:
 2350              		.loc 1 105 0
 2351 00e8 3D200000 		lis 9,_ZTVN7sigslot15single_threadedE+8@ha
 2352 00ec 38090008 		la 0,_ZTVN7sigslot15single_threadedE+8@l(9)
 2353              	.LBE3101:
 2354              	.LBE3100:
 2355              	.LBE3099:
 2356              	.LBE3117:
 2357              	.LBE3121:
 2358              	.LBE3125:
 2359              		.loc 1 516 0
 2360 00f0 7FA3EB78 		mr 3,29
 2361              	.LBB3126:
 2362              	.LBB3122:
 2363              	.LBB3118:
 2364              	.LBB3104:
 2365              	.LBB3103:
 2366              	.LBB3102:
 2367              		.loc 1 105 0
 2368 00f4 901D0000 		stw 0,0(29)
 2369              	.LBE3102:
 2370              	.LBE3103:
 2371              	.LBE3104:
 2372              	.LBE3118:
 2373              	.LBE3122:
 2374              	.LBE3126:
 2375              		.loc 1 516 0
 2376 00f8 48000001 		bl _ZdlPv
 2377 00fc 80010024 		lwz 0,36(1)
 2378 0100 83410008 		lwz 26,8(1)
 2379 0104 7C0803A6 		mtlr 0
 2380 0108 8361000C 		lwz 27,12(1)
 2381 010c 83810010 		lwz 28,16(1)
 2382              	.LVL186:
 2383 0110 83A10014 		lwz 29,20(1)
 2384              	.LVL187:
 2385 0114 83C10018 		lwz 30,24(1)
 2386              	.LVL188:
 2387 0118 83E1001C 		lwz 31,28(1)
 2388 011c 38210020 		addi 1,1,32
 2389              		.cfi_remember_state
 2390              	.LCFI29:
 2391              		.cfi_def_cfa_offset 0
 2392              		.cfi_restore 31
 2393              		.cfi_restore 30
 2394              		.cfi_restore 29
 2395              		.cfi_restore 28
 2396              		.cfi_restore 27
 2397              		.cfi_restore 26
 2398 0120 4E800020 		blr
 2399              	.LVL189:
 2400              	.L148:
 2401              	.LCFI30:
 2402              		.cfi_restore_state
 2403              	.LBB3127:
 2404              	.LBB3123:
 2405              	.LBB3119:
 2406              	.LBB3105:
 2407              	.LBB3092:
 2408              	.LBB3088:
 2409              	.LBB3084:
 2410              	.LBB3083:
 2411              	.LBB3082:
 2412              	.LBB3081:
 2413              	.LBB3077:
 2414              	.LBB3078:
 2415              	.LBB3079:
 2416              	.LBB3080:
 2417              		.loc 8 809 0
 2418 0124 809D000C 		lwz 4,12(29)
 2419 0128 7F83E378 		mr 3,28
 2420 012c 48000001 		bl _ZNSt8_Rb_treeIPN7sigslot12_signal_baseINS0_15single_threadedEEES4_St9_IdentityIS4_ESt4lessIS4_
 2421              	.LVL190:
 2422              		.loc 8 811 0
 2423 0130 38000000 		li 0,0
 2424              		.loc 8 810 0
 2425 0134 93DD0010 		stw 30,16(29)
 2426              	.LVL191:
 2427              		.loc 8 811 0
 2428 0138 901D000C 		stw 0,12(29)
 2429              	.LVL192:
 2430              		.loc 8 812 0
 2431 013c 93DD0014 		stw 30,20(29)
 2432              		.loc 8 813 0
 2433 0140 901D0018 		stw 0,24(29)
 2434 0144 4BFFFF84 		b .L149
 2435              	.LVL193:
 2436              	.L172:
 2437 0148 7C7F1B78 		mr 31,3
 2438              	.L156:
 2439              	.LVL194:
 2440              	.LBE3080:
 2441              	.LBE3079:
 2442              	.LBE3078:
 2443              	.LBE3077:
 2444              	.LBE3081:
 2445              	.LBE3082:
 2446              	.LBE3083:
 2447              	.LBE3084:
 2448              	.LBE3088:
 2449              	.LBE3092:
 2450              	.LBE3105:
 2451              	.LBB3106:
 2452              	.LBB3107:
 2453              	.LBB3108:
 2454              	.LBB3109:
 2455              	.LBB3110:
 2456              	.LBB3111:
 2457              		.loc 8 639 0
 2458 014c 809D000C 		lwz 4,12(29)
 2459 0150 7F83E378 		mr 3,28
 2460 0154 48000001 		bl _ZNSt8_Rb_treeIPN7sigslot12_signal_baseINS0_15single_threadedEEES4_St9_IdentityIS4_ESt4lessIS4_
 2461              	.LVL195:
 2462              	.LBE3111:
 2463              	.LBE3110:
 2464              	.LBE3109:
 2465              	.LBE3108:
 2466              	.LBE3107:
 2467              	.LBE3106:
 2468              	.LBB3112:
 2469              	.LBB3113:
 2470              	.LBB3114:
 2471              		.loc 1 105 0
 2472 0158 3D200000 		lis 9,_ZTVN7sigslot15single_threadedE+8@ha
 2473 015c 38090008 		la 0,_ZTVN7sigslot15single_threadedE+8@l(9)
 2474 0160 7FE3FB78 		mr 3,31
 2475 0164 901D0000 		stw 0,0(29)
 2476              	.LEHB7:
 2477 0168 48000001 		bl _Unwind_Resume
 2478              	.LEHE7:
 2479              	.LVL196:
 2480              	.L173:
 2481              	.LBE3114:
 2482              	.LBE3113:
 2483              	.LBE3112:
 2484              	.LBB3115:
 2485              	.LBB3093:
 2486              	.LBB3089:
 2487              	.LBB3090:
 2488              	.LBB3091:
 2489              		.loc 1 343 0
 2490 016c 813D0000 		lwz 9,0(29)
 2491 0170 7C7F1B78 		mr 31,3
 2492              	.LVL197:
 2493 0174 7FA3EB78 		mr 3,29
 2494 0178 8009000C 		lwz 0,12(9)
 2495 017c 7C0903A6 		mtctr 0
 2496 0180 4E800421 		bctrl
 2497 0184 4BFFFFC8 		b .L156
 2498              	.LBE3091:
 2499              	.LBE3090:
 2500              	.LBE3089:
 2501              	.LBE3093:
 2502              	.LBE3115:
 2503              	.LBE3119:
 2504              	.LBE3123:
 2505              	.LBE3127:
 2506              		.cfi_endproc
 2507              	.LFE1530:
 2508              		.section	.gcc_except_table
 2509              	.LLSDA1530:
 2510 0019 FF       		.byte	0xff
 2511 001a FF       		.byte	0xff
 2512 001b 01       		.byte	0x1
 2513 001c 15       		.uleb128 .LLSDACSE1530-.LLSDACSB1530
 2514              	.LLSDACSB1530:
 2515 001d 38       		.uleb128 .LEHB4-.LFB1530
 2516 001e 04       		.uleb128 .LEHE4-.LEHB4
 2517 001f C802     		.uleb128 .L172-.LFB1530
 2518 0021 00       		.uleb128 0
 2519 0022 60       		.uleb128 .LEHB5-.LFB1530
 2520 0023 04       		.uleb128 .LEHE5-.LEHB5
 2521 0024 EC02     		.uleb128 .L173-.LFB1530
 2522 0026 00       		.uleb128 0
 2523 0027 D801     		.uleb128 .LEHB6-.LFB1530
 2524 0029 04       		.uleb128 .LEHE6-.LEHB6
 2525 002a C802     		.uleb128 .L172-.LFB1530
 2526 002c 00       		.uleb128 0
 2527 002d E802     		.uleb128 .LEHB7-.LFB1530
 2528 002f 04       		.uleb128 .LEHE7-.LEHB7
 2529 0030 00       		.uleb128 0
 2530 0031 00       		.uleb128 0
 2531              	.LLSDACSE1530:
 2532              		.section	.text._ZN7sigslot9has_slotsINS_15single_threadedEED0Ev,"axG",@progbits,_ZN7sigslot9has_sl
 2533              		.size	_ZN7sigslot9has_slotsINS_15single_threadedEED0Ev, .-_ZN7sigslot9has_slotsINS_15single_thread
 2534              		.section	.text._ZN19ThrowMessageHandlerD2Ev,"axG",@progbits,_ZN19ThrowMessageHandlerD5Ev,comdat
 2535              		.align 2
 2536              		.weak	_ZN19ThrowMessageHandlerD2Ev
 2537              		.type	_ZN19ThrowMessageHandlerD2Ev, @function
 2538              	_ZN19ThrowMessageHandlerD2Ev:
 2539              	.LFB1489:
 2540              		.loc 2 68 0
 2541              		.cfi_startproc
 2542              		.cfi_personality 0,__gxx_personality_v0
 2543              		.cfi_lsda 0,.LLSDA1489
 2544              	.LVL198:
 2545 0000 7C0802A6 		mflr 0
 2546 0004 9421FFE0 		stwu 1,-32(1)
 2547              	.LCFI31:
 2548              		.cfi_def_cfa_offset 32
 2549              		.cfi_register 65, 0
 2550              	.LBB3223:
 2551              	.LBB3224:
 2552              	.LBB3225:
 2553              	.LBB3226:
 2554              		.loc 1 516 0
 2555 0008 3D200000 		lis 9,_ZTVN7sigslot9has_slotsINS_15single_threadedEEE+8@ha
 2556              	.LBE3226:
 2557              	.LBE3225:
 2558              	.LBE3224:
 2559              	.LBE3223:
 2560              		.loc 2 68 0
 2561 000c 93810010 		stw 28,16(1)
 2562 0010 3B830004 		addi 28,3,4
 2563              		.cfi_offset 28, -16
 2564 0014 90010024 		stw 0,36(1)
 2565              	.LBB3314:
 2566              	.LBB3310:
 2567              	.LBB3306:
 2568              	.LBB3302:
 2569              		.loc 1 516 0
 2570 0018 38090008 		la 0,_ZTVN7sigslot9has_slotsINS_15single_threadedEEE+8@l(9)
 2571              		.cfi_offset 65, 4
 2572              	.LBE3302:
 2573              	.LBE3306:
 2574              	.LBE3310:
 2575              	.LBE3314:
 2576              		.loc 2 68 0
 2577 001c 93A10014 		stw 29,20(1)
 2578 0020 7C7D1B78 		mr 29,3
 2579              		.cfi_offset 29, -12
 2580              	.LVL199:
 2581 0024 93410008 		stw 26,8(1)
 2582 0028 9361000C 		stw 27,12(1)
 2583 002c 93C10018 		stw 30,24(1)
 2584 0030 93E1001C 		stw 31,28(1)
 2585              	.LBB3315:
 2586              	.LBB3311:
 2587              	.LBB3307:
 2588              	.LBB3303:
 2589              		.loc 1 516 0
 2590 0034 90030000 		stw 0,0(3)
 2591              	.LVL200:
 2592              	.LEHB8:
 2593              	.LBB3227:
 2594              	.LBB3228:
 2595              	.LBB3229:
 2596              	.LBB3230:
 2597              		.loc 1 338 0
 2598              		.cfi_offset 31, -4
 2599              		.cfi_offset 30, -8
 2600              		.cfi_offset 27, -20
 2601              		.cfi_offset 26, -24
 2602 0038 48000001 		bl _ZN7sigslot15single_threaded4lockEv
 2603              	.LEHE8:
 2604              	.LVL201:
 2605              	.LBE3230:
 2606              	.LBE3229:
 2607              	.LBB3231:
 2608              		.loc 2 121 0
 2609 003c 83FD0010 		lwz 31,16(29)
 2610              	.LVL202:
 2611              	.LBE3231:
 2612              	.LBB3232:
 2613              	.LBB3233:
 2614              	.LBB3234:
 2615              		.loc 8 671 0
 2616 0040 3BDC0004 		addi 30,28,4
 2617              	.LVL203:
 2618              	.LBE3234:
 2619              	.LBE3233:
 2620              	.LBE3232:
 2621              		.loc 1 524 0
 2622 0044 7F9FF000 		cmpw 7,31,30
 2623 0048 419E0034 		beq- 7,.L179
 2624              	.LVL204:
 2625              	.L207:
 2626              		.loc 1 526 0
 2627 004c 807F0010 		lwz 3,16(31)
 2628 0050 7FA4EB78 		mr 4,29
 2629 0054 81230000 		lwz 9,0(3)
 2630 0058 80090010 		lwz 0,16(9)
 2631 005c 7C0903A6 		mtctr 0
 2632              	.LEHB9:
 2633 0060 4E800421 		bctrl
 2634              	.LEHE9:
 2635              	.LVL205:
 2636              	.LBB3235:
 2637              	.LBB3236:
 2638              		.loc 8 269 0
 2639 0064 7FE3FB78 		mr 3,31
 2640 0068 48000001 		bl _ZSt18_Rb_tree_incrementPKSt18_Rb_tree_node_base
 2641              	.LBE3236:
 2642              	.LBE3235:
 2643              		.loc 1 524 0
 2644 006c 7F9E1800 		cmpw 7,30,3
 2645              	.LBB3238:
 2646              	.LBB3237:
 2647              		.loc 8 269 0
 2648 0070 7C7F1B78 		mr 31,3
 2649              	.LVL206:
 2650              	.LBE3237:
 2651              	.LBE3238:
 2652              		.loc 1 524 0
 2653 0074 409EFFD8 		bne+ 7,.L207
 2654 0078 83FD0010 		lwz 31,16(29)
 2655              	.LVL207:
 2656              	.L179:
 2657              	.LBB3239:
 2658              	.LBB3240:
 2659              	.LBB3241:
 2660              	.LBB3242:
 2661              	.LBB3243:
 2662              	.LBB3244:
 2663              	.LBB3245:
 2664              		.loc 8 665 0
 2665 007c 3B5C0004 		addi 26,28,4
 2666              	.LBE3245:
 2667              	.LBE3244:
 2668              		.loc 8 1500 0
 2669 0080 7F9ED000 		cmpw 7,30,26
 2670 0084 419E0098 		beq- 7,.L181
 2671              	.LVL208:
 2672              		.loc 8 1503 0
 2673 0088 7F9EF800 		cmpw 7,30,31
 2674 008c 40BE000C 		bne+ 7,.L209
 2675 0090 48000038 		b .L182
 2676              	.LVL209:
 2677              	.L204:
 2678              		.loc 8 277 0
 2679 0094 7F7FDB78 		mr 31,27
 2680              	.LVL210:
 2681              	.L209:
 2682              	.LBB3246:
 2683              	.LBB3247:
 2684 0098 7FE3FB78 		mr 3,31
 2685 009c 48000001 		bl _ZSt18_Rb_tree_incrementPKSt18_Rb_tree_node_base
 2686              	.LBE3247:
 2687              	.LBE3246:
 2688              	.LBB3249:
 2689              	.LBB3250:
 2690              	.LBB3251:
 2691              		.loc 8 1489 0
 2692 00a0 7F44D378 		mr 4,26
 2693              	.LBE3251:
 2694              	.LBE3250:
 2695              	.LBE3249:
 2696              	.LBB3260:
 2697              	.LBB3248:
 2698              		.loc 8 277 0
 2699 00a4 7C7B1B78 		mr 27,3
 2700              	.LVL211:
 2701              	.LBE3248:
 2702              	.LBE3260:
 2703              	.LBB3261:
 2704              	.LBB3258:
 2705              	.LBB3256:
 2706              		.loc 8 1489 0
 2707 00a8 7FE3FB78 		mr 3,31
 2708              	.LVL212:
 2709 00ac 48000001 		bl _ZSt28_Rb_tree_rebalance_for_erasePSt18_Rb_tree_node_baseRS_
 2710              	.LBB3252:
 2711              	.LBB3253:
 2712              	.LBB3254:
 2713              	.LBB3255:
 2714              		.loc 4 98 0
 2715 00b0 48000001 		bl _ZdlPv
 2716              	.LBE3255:
 2717              	.LBE3254:
 2718              	.LBE3253:
 2719              	.LBE3252:
 2720              	.LBE3256:
 2721              	.LBE3258:
 2722              	.LBE3261:
 2723              		.loc 8 1503 0
 2724 00b4 7F9ED800 		cmpw 7,30,27
 2725              	.LBB3262:
 2726              	.LBB3259:
 2727              	.LBB3257:
 2728              		.loc 8 1491 0
 2729 00b8 813C0014 		lwz 9,20(28)
 2730 00bc 3809FFFF 		addi 0,9,-1
 2731 00c0 901C0014 		stw 0,20(28)
 2732              	.LBE3257:
 2733              	.LBE3259:
 2734              	.LBE3262:
 2735              		.loc 8 1503 0
 2736 00c4 409EFFD0 		bne+ 7,.L204
 2737              	.LVL213:
 2738              	.L182:
 2739              	.LBE3243:
 2740              	.LBE3242:
 2741              	.LBE3241:
 2742              	.LBE3240:
 2743              	.LBE3239:
 2744              	.LBB3271:
 2745              	.LBB3272:
 2746              	.LBB3273:
 2747              		.loc 1 343 0
 2748 00c8 813D0000 		lwz 9,0(29)
 2749 00cc 7FA3EB78 		mr 3,29
 2750 00d0 8009000C 		lwz 0,12(9)
 2751 00d4 7C0903A6 		mtctr 0
 2752              	.LEHB10:
 2753 00d8 4E800421 		bctrl
 2754              	.LEHE10:
 2755              	.LVL214:
 2756              	.LBE3273:
 2757              	.LBE3272:
 2758              	.LBE3271:
 2759              	.LBE3228:
 2760              	.LBE3227:
 2761              	.LBB3280:
 2762              	.LBB3281:
 2763              	.LBB3282:
 2764              	.LBB3283:
 2765              	.LBB3284:
 2766              		.loc 8 639 0
 2767 00dc 809D000C 		lwz 4,12(29)
 2768 00e0 7F83E378 		mr 3,28
 2769 00e4 48000001 		bl _ZNSt8_Rb_treeIPN7sigslot12_signal_baseINS0_15single_threadedEEES4_St9_IdentityIS4_ESt4lessIS4_
 2770              	.LBE3284:
 2771              	.LBE3283:
 2772              	.LBE3282:
 2773              	.LBE3281:
 2774              	.LBE3280:
 2775              	.LBB3285:
 2776              	.LBB3286:
 2777              	.LBB3287:
 2778              		.loc 1 105 0
 2779 00e8 3D200000 		lis 9,_ZTVN7sigslot15single_threadedE+8@ha
 2780 00ec 38090008 		la 0,_ZTVN7sigslot15single_threadedE+8@l(9)
 2781              	.LBE3287:
 2782              	.LBE3286:
 2783              	.LBE3285:
 2784              	.LBE3303:
 2785              	.LBE3307:
 2786              	.LBE3311:
 2787              	.LBE3315:
 2788              		.loc 2 68 0
 2789 00f0 83410008 		lwz 26,8(1)
 2790              	.LBB3316:
 2791              	.LBB3312:
 2792              	.LBB3308:
 2793              	.LBB3304:
 2794              	.LBB3290:
 2795              	.LBB3289:
 2796              	.LBB3288:
 2797              		.loc 1 105 0
 2798 00f4 901D0000 		stw 0,0(29)
 2799              	.LBE3288:
 2800              	.LBE3289:
 2801              	.LBE3290:
 2802              	.LBE3304:
 2803              	.LBE3308:
 2804              	.LBE3312:
 2805              	.LBE3316:
 2806              		.loc 2 68 0
 2807 00f8 80010024 		lwz 0,36(1)
 2808 00fc 8361000C 		lwz 27,12(1)
 2809 0100 7C0803A6 		mtlr 0
 2810 0104 83810010 		lwz 28,16(1)
 2811              	.LVL215:
 2812 0108 83A10014 		lwz 29,20(1)
 2813              	.LVL216:
 2814 010c 83C10018 		lwz 30,24(1)
 2815              	.LVL217:
 2816 0110 83E1001C 		lwz 31,28(1)
 2817 0114 38210020 		addi 1,1,32
 2818              		.cfi_remember_state
 2819              	.LCFI32:
 2820              		.cfi_def_cfa_offset 0
 2821              		.cfi_restore 31
 2822              		.cfi_restore 30
 2823              		.cfi_restore 29
 2824              		.cfi_restore 28
 2825              		.cfi_restore 27
 2826              		.cfi_restore 26
 2827 0118 4E800020 		blr
 2828              	.LVL218:
 2829              	.L181:
 2830              	.LCFI33:
 2831              		.cfi_restore_state
 2832              	.LBB3317:
 2833              	.LBB3313:
 2834              	.LBB3309:
 2835              	.LBB3305:
 2836              	.LBB3291:
 2837              	.LBB3278:
 2838              	.LBB3274:
 2839              	.LBB3270:
 2840              	.LBB3269:
 2841              	.LBB3268:
 2842              	.LBB3267:
 2843              	.LBB3263:
 2844              	.LBB3264:
 2845              	.LBB3265:
 2846              	.LBB3266:
 2847              		.loc 8 809 0
 2848 011c 809D000C 		lwz 4,12(29)
 2849 0120 7F83E378 		mr 3,28
 2850 0124 48000001 		bl _ZNSt8_Rb_treeIPN7sigslot12_signal_baseINS0_15single_threadedEEES4_St9_IdentityIS4_ESt4lessIS4_
 2851              	.LVL219:
 2852              		.loc 8 811 0
 2853 0128 38000000 		li 0,0
 2854              		.loc 8 810 0
 2855 012c 93DD0010 		stw 30,16(29)
 2856              	.LVL220:
 2857              		.loc 8 811 0
 2858 0130 901D000C 		stw 0,12(29)
 2859              	.LVL221:
 2860              		.loc 8 812 0
 2861 0134 93DD0014 		stw 30,20(29)
 2862              		.loc 8 813 0
 2863 0138 901D0018 		stw 0,24(29)
 2864 013c 4BFFFF8C 		b .L182
 2865              	.LVL222:
 2866              	.L205:
 2867 0140 7C7F1B78 		mr 31,3
 2868              	.L189:
 2869              	.LVL223:
 2870              	.LBE3266:
 2871              	.LBE3265:
 2872              	.LBE3264:
 2873              	.LBE3263:
 2874              	.LBE3267:
 2875              	.LBE3268:
 2876              	.LBE3269:
 2877              	.LBE3270:
 2878              	.LBE3274:
 2879              	.LBE3278:
 2880              	.LBE3291:
 2881              	.LBB3292:
 2882              	.LBB3293:
 2883              	.LBB3294:
 2884              	.LBB3295:
 2885              	.LBB3296:
 2886              	.LBB3297:
 2887              		.loc 8 639 0
 2888 0144 809D000C 		lwz 4,12(29)
 2889 0148 7F83E378 		mr 3,28
 2890 014c 48000001 		bl _ZNSt8_Rb_treeIPN7sigslot12_signal_baseINS0_15single_threadedEEES4_St9_IdentityIS4_ESt4lessIS4_
 2891              	.LBE3297:
 2892              	.LBE3296:
 2893              	.LBE3295:
 2894              	.LBE3294:
 2895              	.LBE3293:
 2896              	.LBE3292:
 2897              	.LBB3298:
 2898              	.LBB3299:
 2899              	.LBB3300:
 2900              		.loc 1 105 0
 2901 0150 3D200000 		lis 9,_ZTVN7sigslot15single_threadedE+8@ha
 2902 0154 38090008 		la 0,_ZTVN7sigslot15single_threadedE+8@l(9)
 2903 0158 7FE3FB78 		mr 3,31
 2904 015c 901D0000 		stw 0,0(29)
 2905              	.LEHB11:
 2906 0160 48000001 		bl _Unwind_Resume
 2907              	.LEHE11:
 2908              	.LVL224:
 2909              	.L206:
 2910              	.LBE3300:
 2911              	.LBE3299:
 2912              	.LBE3298:
 2913              	.LBB3301:
 2914              	.LBB3279:
 2915              	.LBB3275:
 2916              	.LBB3276:
 2917              	.LBB3277:
 2918              		.loc 1 343 0
 2919 0164 813D0000 		lwz 9,0(29)
 2920 0168 7C7F1B78 		mr 31,3
 2921              	.LVL225:
 2922 016c 7FA3EB78 		mr 3,29
 2923 0170 8009000C 		lwz 0,12(9)
 2924 0174 7C0903A6 		mtctr 0
 2925 0178 4E800421 		bctrl
 2926 017c 4BFFFFC8 		b .L189
 2927              	.LBE3277:
 2928              	.LBE3276:
 2929              	.LBE3275:
 2930              	.LBE3279:
 2931              	.LBE3301:
 2932              	.LBE3305:
 2933              	.LBE3309:
 2934              	.LBE3313:
 2935              	.LBE3317:
 2936              		.cfi_endproc
 2937              	.LFE1489:
 2938              		.section	.gcc_except_table
 2939              	.LLSDA1489:
 2940 0032 FF       		.byte	0xff
 2941 0033 FF       		.byte	0xff
 2942 0034 01       		.byte	0x1
 2943 0035 15       		.uleb128 .LLSDACSE1489-.LLSDACSB1489
 2944              	.LLSDACSB1489:
 2945 0036 38       		.uleb128 .LEHB8-.LFB1489
 2946 0037 04       		.uleb128 .LEHE8-.LEHB8
 2947 0038 C002     		.uleb128 .L205-.LFB1489
 2948 003a 00       		.uleb128 0
 2949 003b 60       		.uleb128 .LEHB9-.LFB1489
 2950 003c 04       		.uleb128 .LEHE9-.LEHB9
 2951 003d E402     		.uleb128 .L206-.LFB1489
 2952 003f 00       		.uleb128 0
 2953 0040 D801     		.uleb128 .LEHB10-.LFB1489
 2954 0042 04       		.uleb128 .LEHE10-.LEHB10
 2955 0043 C002     		.uleb128 .L205-.LFB1489
 2956 0045 00       		.uleb128 0
 2957 0046 E002     		.uleb128 .LEHB11-.LFB1489
 2958 0048 04       		.uleb128 .LEHE11-.LEHB11
 2959 0049 00       		.uleb128 0
 2960 004a 00       		.uleb128 0
 2961              	.LLSDACSE1489:
 2962              		.section	.text._ZN19ThrowMessageHandlerD2Ev,"axG",@progbits,_ZN19ThrowMessageHandlerD5Ev,comdat
 2963              		.size	_ZN19ThrowMessageHandlerD2Ev, .-_ZN19ThrowMessageHandlerD2Ev
 2964              		.section	".text"
 2965              		.align 2
 2966              		.type	_Z41__static_initialization_and_destruction_0ii.constprop.111, @function
 2967              	_Z41__static_initialization_and_destruction_0ii.constprop.111:
 2968              	.LFB2050:
 2969              		.loc 2 121 0
 2970              		.cfi_startproc
 2971              	.LVL226:
 2972 01ec 2F830001 		cmpwi 7,3,1
 2973 01f0 7C0802A6 		mflr 0
 2974 01f4 9421FFF8 		stwu 1,-8(1)
 2975              	.LCFI34:
 2976              		.cfi_def_cfa_offset 8
 2977              		.cfi_register 65, 0
 2978 01f8 9001000C 		stw 0,12(1)
 2979              		.loc 2 121 0
 2980 01fc 419E0028 		beq- 7,.L214
 2981              		.cfi_offset 65, 4
 2982              		.loc 2 96 0
 2983 0200 2F830000 		cmpwi 7,3,0
 2984 0204 409E0010 		bne- 7,.L211
 2985              	.LVL227:
 2986              	.LBB3344:
 2987              	.LBB3345:
 2988 0208 3C600000 		lis 3,.LANCHOR0@ha
 2989              	.LVL228:
 2990 020c 38630000 		la 3,.LANCHOR0@l(3)
 2991 0210 48000001 		bl _ZN19ThrowMessageHandlerD1Ev
 2992              	.LVL229:
 2993              	.L211:
 2994              	.LBE3345:
 2995              	.LBE3344:
 2996              		.loc 2 121 0
 2997 0214 8001000C 		lwz 0,12(1)
 2998 0218 38210008 		addi 1,1,8
 2999              		.cfi_remember_state
 3000              	.LCFI35:
 3001              		.cfi_def_cfa_offset 0
 3002 021c 7C0803A6 		mtlr 0
 3003 0220 4E800020 		blr
 3004              	.LVL230:
 3005              	.L214:
 3006              	.LCFI36:
 3007              		.cfi_restore_state
 3008              	.LBB3346:
 3009              	.LBB3347:
 3010              	.LBB3348:
 3011              	.LBB3349:
 3012              	.LBB3350:
 3013              	.LBB3351:
 3014              	.LBB3352:
 3015              		.loc 8 445 0
 3016 0224 3D600000 		lis 11,.LANCHOR0@ha
 3017 0228 38000000 		li 0,0
 3018 022c 392B0000 		la 9,.LANCHOR0@l(11)
 3019              	.LBB3353:
 3020              	.LBB3354:
 3021              		.loc 8 459 0
 3022 0230 39490008 		addi 10,9,8
 3023              	.LBE3354:
 3024              	.LBE3353:
 3025              		.loc 8 445 0
 3026 0234 90090008 		stw 0,8(9)
 3027              	.LBB3356:
 3028              	.LBB3355:
 3029              		.loc 8 459 0
 3030 0238 91490010 		stw 10,16(9)
 3031              		.loc 8 460 0
 3032 023c 91490014 		stw 10,20(9)
 3033              	.LBE3355:
 3034              	.LBE3356:
 3035              	.LBE3352:
 3036              	.LBE3351:
 3037              	.LBE3350:
 3038              	.LBE3349:
 3039              	.LBE3348:
 3040              		.loc 2 67 0
 3041 0240 3D400000 		lis 10,_ZTV19ThrowMessageHandler+8@ha
 3042 0244 394A0008 		la 10,_ZTV19ThrowMessageHandler+8@l(10)
 3043              	.LBB3361:
 3044              	.LBB3360:
 3045              	.LBB3359:
 3046              	.LBB3358:
 3047              	.LBB3357:
 3048              		.loc 8 445 0
 3049 0248 9009000C 		stw 0,12(9)
 3050 024c 90090018 		stw 0,24(9)
 3051              	.LVL231:
 3052              	.LBE3357:
 3053              	.LBE3358:
 3054              	.LBE3359:
 3055              	.LBE3360:
 3056              	.LBE3361:
 3057              		.loc 2 67 0
 3058 0250 914B0000 		stw 10,.LANCHOR0@l(11)
 3059 0254 9009001C 		stw 0,28(9)
 3060 0258 4BFFFFBC 		b .L211
 3061              	.LBE3347:
 3062              	.LBE3346:
 3063              		.cfi_endproc
 3064              	.LFE2050:
 3065              		.size	_Z41__static_initialization_and_destruction_0ii.constprop.111, .-_Z41__static_initialization
 3066              		.section	.text._ZN19ThrowMessageHandlerD0Ev,"axG",@progbits,_ZN19ThrowMessageHandlerD5Ev,comdat
 3067              		.align 2
 3068              		.weak	_ZN19ThrowMessageHandlerD0Ev
 3069              		.type	_ZN19ThrowMessageHandlerD0Ev, @function
 3070              	_ZN19ThrowMessageHandlerD0Ev:
 3071              	.LFB1491:
 3072              		.loc 2 68 0
 3073              		.cfi_startproc
 3074              		.cfi_personality 0,__gxx_personality_v0
 3075              		.cfi_lsda 0,.LLSDA1491
 3076              	.LVL232:
 3077 0000 7C0802A6 		mflr 0
 3078 0004 9421FFE0 		stwu 1,-32(1)
 3079              	.LCFI37:
 3080              		.cfi_def_cfa_offset 32
 3081              		.cfi_register 65, 0
 3082              	.LBB3458:
 3083              	.LBB3459:
 3084              	.LBB3460:
 3085              	.LBB3461:
 3086              	.LBB3462:
 3087              	.LBB3463:
 3088              		.loc 1 516 0
 3089 0008 3D200000 		lis 9,_ZTVN7sigslot9has_slotsINS_15single_threadedEEE+8@ha
 3090              	.LBE3463:
 3091              	.LBE3462:
 3092              	.LBE3461:
 3093              	.LBE3460:
 3094              	.LBE3459:
 3095              	.LBE3458:
 3096              		.loc 2 68 0
 3097 000c 93810010 		stw 28,16(1)
 3098 0010 3B830004 		addi 28,3,4
 3099              		.cfi_offset 28, -16
 3100 0014 90010024 		stw 0,36(1)
 3101              	.LBB3559:
 3102              	.LBB3555:
 3103              	.LBB3551:
 3104              	.LBB3547:
 3105              	.LBB3543:
 3106              	.LBB3539:
 3107              		.loc 1 516 0
 3108 0018 38090008 		la 0,_ZTVN7sigslot9has_slotsINS_15single_threadedEEE+8@l(9)
 3109              		.cfi_offset 65, 4
 3110              	.LBE3539:
 3111              	.LBE3543:
 3112              	.LBE3547:
 3113              	.LBE3551:
 3114              	.LBE3555:
 3115              	.LBE3559:
 3116              		.loc 2 68 0
 3117 001c 93A10014 		stw 29,20(1)
 3118 0020 7C7D1B78 		mr 29,3
 3119              		.cfi_offset 29, -12
 3120              	.LVL233:
 3121 0024 93410008 		stw 26,8(1)
 3122 0028 9361000C 		stw 27,12(1)
 3123 002c 93C10018 		stw 30,24(1)
 3124 0030 93E1001C 		stw 31,28(1)
 3125              	.LBB3560:
 3126              	.LBB3556:
 3127              	.LBB3552:
 3128              	.LBB3548:
 3129              	.LBB3544:
 3130              	.LBB3540:
 3131              		.loc 1 516 0
 3132 0034 90030000 		stw 0,0(3)
 3133              	.LVL234:
 3134              	.LEHB12:
 3135              	.LBB3464:
 3136              	.LBB3465:
 3137              	.LBB3466:
 3138              	.LBB3467:
 3139              		.loc 1 338 0
 3140              		.cfi_offset 31, -4
 3141              		.cfi_offset 30, -8
 3142              		.cfi_offset 27, -20
 3143              		.cfi_offset 26, -24
 3144 0038 48000001 		bl _ZN7sigslot15single_threaded4lockEv
 3145              	.LEHE12:
 3146              	.LVL235:
 3147              	.LBE3467:
 3148              	.LBE3466:
 3149              	.LBB3468:
 3150              		.loc 2 121 0
 3151 003c 83FD0010 		lwz 31,16(29)
 3152              	.LVL236:
 3153              	.LBE3468:
 3154              	.LBB3469:
 3155              	.LBB3470:
 3156              	.LBB3471:
 3157              		.loc 8 671 0
 3158 0040 3BDC0004 		addi 30,28,4
 3159              	.LVL237:
 3160              	.LBE3471:
 3161              	.LBE3470:
 3162              	.LBE3469:
 3163              		.loc 1 524 0
 3164 0044 7F9FF000 		cmpw 7,31,30
 3165 0048 419E0034 		beq- 7,.L216
 3166              	.LVL238:
 3167              	.L245:
 3168              		.loc 1 526 0
 3169 004c 807F0010 		lwz 3,16(31)
 3170 0050 7FA4EB78 		mr 4,29
 3171 0054 81230000 		lwz 9,0(3)
 3172 0058 80090010 		lwz 0,16(9)
 3173 005c 7C0903A6 		mtctr 0
 3174              	.LEHB13:
 3175 0060 4E800421 		bctrl
 3176              	.LEHE13:
 3177              	.LVL239:
 3178              	.LBB3472:
 3179              	.LBB3473:
 3180              		.loc 8 269 0
 3181 0064 7FE3FB78 		mr 3,31
 3182 0068 48000001 		bl _ZSt18_Rb_tree_incrementPKSt18_Rb_tree_node_base
 3183              	.LBE3473:
 3184              	.LBE3472:
 3185              		.loc 1 524 0
 3186 006c 7F9E1800 		cmpw 7,30,3
 3187              	.LBB3475:
 3188              	.LBB3474:
 3189              		.loc 8 269 0
 3190 0070 7C7F1B78 		mr 31,3
 3191              	.LVL240:
 3192              	.LBE3474:
 3193              	.LBE3475:
 3194              		.loc 1 524 0
 3195 0074 409EFFD8 		bne+ 7,.L245
 3196 0078 83FD0010 		lwz 31,16(29)
 3197              	.LVL241:
 3198              	.L216:
 3199              	.LBB3476:
 3200              	.LBB3477:
 3201              	.LBB3478:
 3202              	.LBB3479:
 3203              	.LBB3480:
 3204              	.LBB3481:
 3205              	.LBB3482:
 3206              		.loc 8 665 0
 3207 007c 3B5C0004 		addi 26,28,4
 3208              	.LBE3482:
 3209              	.LBE3481:
 3210              		.loc 8 1500 0
 3211 0080 7F9ED000 		cmpw 7,30,26
 3212 0084 419E00A0 		beq- 7,.L218
 3213              	.LVL242:
 3214              		.loc 8 1503 0
 3215 0088 7F9EF800 		cmpw 7,30,31
 3216 008c 40BE000C 		bne+ 7,.L247
 3217 0090 48000038 		b .L219
 3218              	.LVL243:
 3219              	.L242:
 3220              		.loc 8 277 0
 3221 0094 7F7FDB78 		mr 31,27
 3222              	.LVL244:
 3223              	.L247:
 3224              	.LBB3483:
 3225              	.LBB3484:
 3226 0098 7FE3FB78 		mr 3,31
 3227 009c 48000001 		bl _ZSt18_Rb_tree_incrementPKSt18_Rb_tree_node_base
 3228              	.LBE3484:
 3229              	.LBE3483:
 3230              	.LBB3486:
 3231              	.LBB3487:
 3232              	.LBB3488:
 3233              		.loc 8 1489 0
 3234 00a0 7F44D378 		mr 4,26
 3235              	.LBE3488:
 3236              	.LBE3487:
 3237              	.LBE3486:
 3238              	.LBB3497:
 3239              	.LBB3485:
 3240              		.loc 8 277 0
 3241 00a4 7C7B1B78 		mr 27,3
 3242              	.LVL245:
 3243              	.LBE3485:
 3244              	.LBE3497:
 3245              	.LBB3498:
 3246              	.LBB3495:
 3247              	.LBB3493:
 3248              		.loc 8 1489 0
 3249 00a8 7FE3FB78 		mr 3,31
 3250              	.LVL246:
 3251 00ac 48000001 		bl _ZSt28_Rb_tree_rebalance_for_erasePSt18_Rb_tree_node_baseRS_
 3252              	.LBB3489:
 3253              	.LBB3490:
 3254              	.LBB3491:
 3255              	.LBB3492:
 3256              		.loc 4 98 0
 3257 00b0 48000001 		bl _ZdlPv
 3258              	.LBE3492:
 3259              	.LBE3491:
 3260              	.LBE3490:
 3261              	.LBE3489:
 3262              	.LBE3493:
 3263              	.LBE3495:
 3264              	.LBE3498:
 3265              		.loc 8 1503 0
 3266 00b4 7F9ED800 		cmpw 7,30,27
 3267              	.LBB3499:
 3268              	.LBB3496:
 3269              	.LBB3494:
 3270              		.loc 8 1491 0
 3271 00b8 813C0014 		lwz 9,20(28)
 3272 00bc 3809FFFF 		addi 0,9,-1
 3273 00c0 901C0014 		stw 0,20(28)
 3274              	.LBE3494:
 3275              	.LBE3496:
 3276              	.LBE3499:
 3277              		.loc 8 1503 0
 3278 00c4 409EFFD0 		bne+ 7,.L242
 3279              	.LVL247:
 3280              	.L219:
 3281              	.LBE3480:
 3282              	.LBE3479:
 3283              	.LBE3478:
 3284              	.LBE3477:
 3285              	.LBE3476:
 3286              	.LBB3508:
 3287              	.LBB3509:
 3288              	.LBB3510:
 3289              		.loc 1 343 0
 3290 00c8 813D0000 		lwz 9,0(29)
 3291 00cc 7FA3EB78 		mr 3,29
 3292 00d0 8009000C 		lwz 0,12(9)
 3293 00d4 7C0903A6 		mtctr 0
 3294              	.LEHB14:
 3295 00d8 4E800421 		bctrl
 3296              	.LEHE14:
 3297              	.LVL248:
 3298              	.LBE3510:
 3299              	.LBE3509:
 3300              	.LBE3508:
 3301              	.LBE3465:
 3302              	.LBE3464:
 3303              	.LBB3517:
 3304              	.LBB3518:
 3305              	.LBB3519:
 3306              	.LBB3520:
 3307              	.LBB3521:
 3308              		.loc 8 639 0
 3309 00dc 809D000C 		lwz 4,12(29)
 3310 00e0 7F83E378 		mr 3,28
 3311 00e4 48000001 		bl _ZNSt8_Rb_treeIPN7sigslot12_signal_baseINS0_15single_threadedEEES4_St9_IdentityIS4_ESt4lessIS4_
 3312              	.LBE3521:
 3313              	.LBE3520:
 3314              	.LBE3519:
 3315              	.LBE3518:
 3316              	.LBE3517:
 3317              	.LBB3522:
 3318              	.LBB3523:
 3319              	.LBB3524:
 3320              		.loc 1 105 0
 3321 00e8 3D200000 		lis 9,_ZTVN7sigslot15single_threadedE+8@ha
 3322 00ec 38090008 		la 0,_ZTVN7sigslot15single_threadedE+8@l(9)
 3323              	.LBE3524:
 3324              	.LBE3523:
 3325              	.LBE3522:
 3326              	.LBE3540:
 3327              	.LBE3544:
 3328              	.LBE3548:
 3329              	.LBE3552:
 3330              	.LBE3556:
 3331              	.LBE3560:
 3332              		.loc 2 68 0
 3333 00f0 7FA3EB78 		mr 3,29
 3334              	.LBB3561:
 3335              	.LBB3557:
 3336              	.LBB3553:
 3337              	.LBB3549:
 3338              	.LBB3545:
 3339              	.LBB3541:
 3340              	.LBB3527:
 3341              	.LBB3526:
 3342              	.LBB3525:
 3343              		.loc 1 105 0
 3344 00f4 901D0000 		stw 0,0(29)
 3345              	.LBE3525:
 3346              	.LBE3526:
 3347              	.LBE3527:
 3348              	.LBE3541:
 3349              	.LBE3545:
 3350              	.LBE3549:
 3351              	.LBE3553:
 3352              	.LBE3557:
 3353              	.LBE3561:
 3354              		.loc 2 68 0
 3355 00f8 48000001 		bl _ZdlPv
 3356 00fc 80010024 		lwz 0,36(1)
 3357 0100 83410008 		lwz 26,8(1)
 3358 0104 7C0803A6 		mtlr 0
 3359 0108 8361000C 		lwz 27,12(1)
 3360 010c 83810010 		lwz 28,16(1)
 3361              	.LVL249:
 3362 0110 83A10014 		lwz 29,20(1)
 3363              	.LVL250:
 3364 0114 83C10018 		lwz 30,24(1)
 3365              	.LVL251:
 3366 0118 83E1001C 		lwz 31,28(1)
 3367 011c 38210020 		addi 1,1,32
 3368              		.cfi_remember_state
 3369              	.LCFI38:
 3370              		.cfi_def_cfa_offset 0
 3371              		.cfi_restore 31
 3372              		.cfi_restore 30
 3373              		.cfi_restore 29
 3374              		.cfi_restore 28
 3375              		.cfi_restore 27
 3376              		.cfi_restore 26
 3377 0120 4E800020 		blr
 3378              	.LVL252:
 3379              	.L218:
 3380              	.LCFI39:
 3381              		.cfi_restore_state
 3382              	.LBB3562:
 3383              	.LBB3558:
 3384              	.LBB3554:
 3385              	.LBB3550:
 3386              	.LBB3546:
 3387              	.LBB3542:
 3388              	.LBB3528:
 3389              	.LBB3515:
 3390              	.LBB3511:
 3391              	.LBB3507:
 3392              	.LBB3506:
 3393              	.LBB3505:
 3394              	.LBB3504:
 3395              	.LBB3500:
 3396              	.LBB3501:
 3397              	.LBB3502:
 3398              	.LBB3503:
 3399              		.loc 8 809 0
 3400 0124 809D000C 		lwz 4,12(29)
 3401 0128 7F83E378 		mr 3,28
 3402 012c 48000001 		bl _ZNSt8_Rb_treeIPN7sigslot12_signal_baseINS0_15single_threadedEEES4_St9_IdentityIS4_ESt4lessIS4_
 3403              	.LVL253:
 3404              		.loc 8 811 0
 3405 0130 38000000 		li 0,0
 3406              		.loc 8 810 0
 3407 0134 93DD0010 		stw 30,16(29)
 3408              	.LVL254:
 3409              		.loc 8 811 0
 3410 0138 901D000C 		stw 0,12(29)
 3411              	.LVL255:
 3412              		.loc 8 812 0
 3413 013c 93DD0014 		stw 30,20(29)
 3414              		.loc 8 813 0
 3415 0140 901D0018 		stw 0,24(29)
 3416 0144 4BFFFF84 		b .L219
 3417              	.LVL256:
 3418              	.L243:
 3419 0148 7C7F1B78 		mr 31,3
 3420              	.L226:
 3421              	.LVL257:
 3422              	.LBE3503:
 3423              	.LBE3502:
 3424              	.LBE3501:
 3425              	.LBE3500:
 3426              	.LBE3504:
 3427              	.LBE3505:
 3428              	.LBE3506:
 3429              	.LBE3507:
 3430              	.LBE3511:
 3431              	.LBE3515:
 3432              	.LBE3528:
 3433              	.LBB3529:
 3434              	.LBB3530:
 3435              	.LBB3531:
 3436              	.LBB3532:
 3437              	.LBB3533:
 3438              	.LBB3534:
 3439              		.loc 8 639 0
 3440 014c 809D000C 		lwz 4,12(29)
 3441 0150 7F83E378 		mr 3,28
 3442 0154 48000001 		bl _ZNSt8_Rb_treeIPN7sigslot12_signal_baseINS0_15single_threadedEEES4_St9_IdentityIS4_ESt4lessIS4_
 3443              	.LBE3534:
 3444              	.LBE3533:
 3445              	.LBE3532:
 3446              	.LBE3531:
 3447              	.LBE3530:
 3448              	.LBE3529:
 3449              	.LBB3535:
 3450              	.LBB3536:
 3451              	.LBB3537:
 3452              		.loc 1 105 0
 3453 0158 3D200000 		lis 9,_ZTVN7sigslot15single_threadedE+8@ha
 3454 015c 38090008 		la 0,_ZTVN7sigslot15single_threadedE+8@l(9)
 3455 0160 7FE3FB78 		mr 3,31
 3456 0164 901D0000 		stw 0,0(29)
 3457              	.LEHB15:
 3458 0168 48000001 		bl _Unwind_Resume
 3459              	.LEHE15:
 3460              	.LVL258:
 3461              	.L244:
 3462              	.LBE3537:
 3463              	.LBE3536:
 3464              	.LBE3535:
 3465              	.LBB3538:
 3466              	.LBB3516:
 3467              	.LBB3512:
 3468              	.LBB3513:
 3469              	.LBB3514:
 3470              		.loc 1 343 0
 3471 016c 813D0000 		lwz 9,0(29)
 3472 0170 7C7F1B78 		mr 31,3
 3473              	.LVL259:
 3474 0174 7FA3EB78 		mr 3,29
 3475 0178 8009000C 		lwz 0,12(9)
 3476 017c 7C0903A6 		mtctr 0
 3477 0180 4E800421 		bctrl
 3478 0184 4BFFFFC8 		b .L226
 3479              	.LBE3514:
 3480              	.LBE3513:
 3481              	.LBE3512:
 3482              	.LBE3516:
 3483              	.LBE3538:
 3484              	.LBE3542:
 3485              	.LBE3546:
 3486              	.LBE3550:
 3487              	.LBE3554:
 3488              	.LBE3558:
 3489              	.LBE3562:
 3490              		.cfi_endproc
 3491              	.LFE1491:
 3492              		.section	.gcc_except_table
 3493              	.LLSDA1491:
 3494 004b FF       		.byte	0xff
 3495 004c FF       		.byte	0xff
 3496 004d 01       		.byte	0x1
 3497 004e 15       		.uleb128 .LLSDACSE1491-.LLSDACSB1491
 3498              	.LLSDACSB1491:
 3499 004f 38       		.uleb128 .LEHB12-.LFB1491
 3500 0050 04       		.uleb128 .LEHE12-.LEHB12
 3501 0051 C802     		.uleb128 .L243-.LFB1491
 3502 0053 00       		.uleb128 0
 3503 0054 60       		.uleb128 .LEHB13-.LFB1491
 3504 0055 04       		.uleb128 .LEHE13-.LEHB13
 3505 0056 EC02     		.uleb128 .L244-.LFB1491
 3506 0058 00       		.uleb128 0
 3507 0059 D801     		.uleb128 .LEHB14-.LFB1491
 3508 005b 04       		.uleb128 .LEHE14-.LEHB14
 3509 005c C802     		.uleb128 .L243-.LFB1491
 3510 005e 00       		.uleb128 0
 3511 005f E802     		.uleb128 .LEHB15-.LFB1491
 3512 0061 04       		.uleb128 .LEHE15-.LEHB15
 3513 0062 00       		.uleb128 0
 3514 0063 00       		.uleb128 0
 3515              	.LLSDACSE1491:
 3516              		.section	.text._ZN19ThrowMessageHandlerD0Ev,"axG",@progbits,_ZN19ThrowMessageHandlerD5Ev,comdat
 3517              		.size	_ZN19ThrowMessageHandlerD0Ev, .-_ZN19ThrowMessageHandlerD0Ev
 3518              		.section	.text._ZNSt8_Rb_treeIPN7sigslot12_signal_baseINS0_15single_threadedEEES4_St9_IdentityIS4_
 3519              		.align 2
 3520              		.weak	_ZNSt8_Rb_treeIPN7sigslot12_signal_baseINS0_15single_threadedEEES4_St9_IdentityIS4_ESt4lessI
 3521              		.type	_ZNSt8_Rb_treeIPN7sigslot12_signal_baseINS0_15single_threadedEEES4_St9_IdentityIS4_ESt4lessI
 3522              	_ZNSt8_Rb_treeIPN7sigslot12_signal_baseINS0_15single_threadedEEES4_St9_IdentityIS4_ESt4lessIS4_ESaI
 3523              	.LFB1708:
 3524              		.loc 8 1264 0
 3525              		.cfi_startproc
 3526              	.LVL260:
 3527 0000 7C0802A6 		mflr 0
 3528 0004 9421FFE0 		stwu 1,-32(1)
 3529              	.LCFI40:
 3530              		.cfi_def_cfa_offset 32
 3531              		.cfi_register 65, 0
 3532 0008 93810010 		stw 28,16(1)
 3533 000c 90010024 		stw 0,36(1)
 3534 0010 9361000C 		stw 27,12(1)
 3535 0014 7C9B2378 		mr 27,4
 3536              		.cfi_offset 27, -20
 3537              		.cfi_offset 65, 4
 3538              		.cfi_offset 28, -16
 3539              	.LBB3602:
 3540              	.LBB3603:
 3541              	.LBB3604:
 3542              		.loc 2 121 0
 3543 0018 83830008 		lwz 28,8(3)
 3544              	.LVL261:
 3545              	.LBE3604:
 3546              	.LBE3603:
 3547              	.LBE3602:
 3548              		.loc 8 1264 0
 3549 001c 93A10014 		stw 29,20(1)
 3550              	.LBB3629:
 3551              	.LBB3621:
 3552              	.LBB3617:
 3553              		.loc 8 1272 0
 3554 0020 3BA30004 		addi 29,3,4
 3555              		.cfi_offset 29, -12
 3556              	.LVL262:
 3557              	.LBE3617:
 3558              	.LBE3621:
 3559              		.loc 8 1274 0
 3560 0024 2F9C0000 		cmpwi 7,28,0
 3561              	.LBE3629:
 3562              		.loc 8 1264 0
 3563 0028 93E1001C 		stw 31,28(1)
 3564 002c 93410008 		stw 26,8(1)
 3565 0030 7C7F1B78 		mr 31,3
 3566              		.cfi_offset 26, -24
 3567              		.cfi_offset 31, -4
 3568 0034 93C10018 		stw 30,24(1)
 3569              	.LBB3630:
 3570              		.loc 8 1274 0
 3571 0038 419E0084 		beq- 7,.L264
 3572              		.cfi_offset 30, -8
 3573              	.LVL263:
 3574 003c 81440000 		lwz 10,0(4)
 3575 0040 48000014 		b .L253
 3576              	.LVL264:
 3577              	.L272:
 3578              		.loc 2 121 0 discriminator 1
 3579 0044 801C0008 		lwz 0,8(28)
 3580              	.LVL265:
 3581              		.loc 8 1274 0 discriminator 1
 3582 0048 2F800000 		cmpwi 7,0,0
 3583 004c 419E0028 		beq- 7,.L271
 3584              	.LVL266:
 3585              	.L265:
 3586              		.loc 8 1274 0 is_stmt 0
 3587 0050 7C1C0378 		mr 28,0
 3588              	.LVL267:
 3589              	.L253:
 3590              		.loc 2 121 0 is_stmt 1
 3591 0054 813C0010 		lwz 9,16(28)
 3592 0058 39600001 		li 11,1
 3593              		.loc 8 1278 0
 3594 005c 7F895040 		cmplw 7,9,10
 3595 0060 41BDFFE4 		bgt- 7,.L272
 3596              	.LVL268:
 3597              		.loc 2 121 0 discriminator 2
 3598 0064 801C000C 		lwz 0,12(28)
 3599 0068 39600000 		li 11,0
 3600              	.LVL269:
 3601              		.loc 8 1274 0 discriminator 2
 3602 006c 2F800000 		cmpwi 7,0,0
 3603 0070 409EFFE0 		bne+ 7,.L265
 3604              	.LVL270:
 3605              	.L271:
 3606              		.loc 8 1281 0
 3607 0074 2F8B0000 		cmpwi 7,11,0
 3608 0078 7F83E378 		mr 3,28
 3609              	.LVL271:
 3610 007c 409E0044 		bne- 7,.L250
 3611              	.LVL272:
 3612              		.loc 8 1289 0
 3613 0080 7F8A4840 		cmplw 7,10,9
 3614 0084 419D0060 		bgt- 7,.L273
 3615              	.LVL273:
 3616              	.L260:
 3617              		.loc 8 1292 0
 3618 0088 38000000 		li 0,0
 3619 008c 38800000 		li 4,0
 3620 0090 5004C00E 		rlwimi 4,0,24,0,7
 3621              	.LBE3630:
 3622              		.loc 8 1293 0
 3623 0094 80010024 		lwz 0,36(1)
 3624 0098 83410008 		lwz 26,8(1)
 3625 009c 7C0803A6 		mtlr 0
 3626 00a0 8361000C 		lwz 27,12(1)
 3627              	.LVL274:
 3628 00a4 83810010 		lwz 28,16(1)
 3629 00a8 83A10014 		lwz 29,20(1)
 3630 00ac 83C10018 		lwz 30,24(1)
 3631 00b0 83E1001C 		lwz 31,28(1)
 3632              	.LVL275:
 3633 00b4 38210020 		addi 1,1,32
 3634              		.cfi_remember_state
 3635              	.LCFI41:
 3636              		.cfi_def_cfa_offset 0
 3637              		.cfi_restore 31
 3638              		.cfi_restore 30
 3639              		.cfi_restore 29
 3640              		.cfi_restore 28
 3641              		.cfi_restore 27
 3642              		.cfi_restore 26
 3643 00b8 4E800020 		blr
 3644              	.LVL276:
 3645              	.L264:
 3646              	.LCFI42:
 3647              		.cfi_restore_state
 3648              	.LBB3631:
 3649              		.loc 8 1272 0
 3650 00bc 7FBCEB78 		mr 28,29
 3651              	.LVL277:
 3652              	.L250:
 3653              		.loc 8 1283 0
 3654 00c0 801F000C 		lwz 0,12(31)
 3655 00c4 7F9C0000 		cmpw 7,28,0
 3656 00c8 419E003C 		beq- 7,.L274
 3657              	.LVL278:
 3658              	.LBB3622:
 3659              	.LBB3623:
 3660              		.loc 8 203 0
 3661 00cc 7F83E378 		mr 3,28
 3662 00d0 48000001 		bl _ZSt18_Rb_tree_decrementPSt18_Rb_tree_node_base
 3663              	.LVL279:
 3664 00d4 815B0000 		lwz 10,0(27)
 3665 00d8 81230010 		lwz 9,16(3)
 3666              	.LVL280:
 3667              	.LBE3623:
 3668              	.LBE3622:
 3669              		.loc 8 1289 0
 3670 00dc 7F8A4840 		cmplw 7,10,9
 3671 00e0 409DFFA8 		ble+ 7,.L260
 3672              	.LVL281:
 3673              	.L273:
 3674              	.LBB3624:
 3675              	.LBB3618:
 3676              		.loc 8 969 0
 3677 00e4 7F9CE800 		cmpw 7,28,29
 3678 00e8 3B400001 		li 26,1
 3679 00ec 419E0038 		beq- 7,.L261
 3680              	.LVL282:
 3681              		.loc 8 1264 0
 3682 00f0 835C0010 		lwz 26,16(28)
 3683 00f4 7F5A5010 		subfc 26,26,10
 3684 00f8 7F5AD110 		subfe 26,26,26
 3685 00fc 7F5A00D0 		neg 26,26
 3686 0100 48000024 		b .L261
 3687              	.LVL283:
 3688              	.L274:
 3689              	.LBE3618:
 3690              	.LBE3624:
 3691              	.LBB3625:
 3692              	.LBB3626:
 3693              		.loc 8 969 0
 3694 0104 7F9CE800 		cmpw 7,28,29
 3695 0108 3B400001 		li 26,1
 3696 010c 419E0018 		beq- 7,.L261
 3697              	.LVL284:
 3698              		.loc 8 1264 0
 3699 0110 835B0000 		lwz 26,0(27)
 3700 0114 801C0010 		lwz 0,16(28)
 3701              	.LVL285:
 3702 0118 7F40D010 		subfc 26,0,26
 3703 011c 7F5AD110 		subfe 26,26,26
 3704 0120 7F5A00D0 		neg 26,26
 3705              	.LVL286:
 3706              	.L261:
 3707              	.LBE3626:
 3708              	.LBE3625:
 3709              	.LBB3627:
 3710              	.LBB3619:
 3711              	.LBB3605:
 3712              	.LBB3606:
 3713              	.LBB3607:
 3714              	.LBB3608:
 3715              	.LBB3609:
 3716              		.loc 4 92 0
 3717 0124 38600014 		li 3,20
 3718 0128 48000001 		bl _Znwj
 3719              	.LBE3609:
 3720              	.LBE3608:
 3721              	.LBE3607:
 3722              	.LBB3612:
 3723              	.LBB3613:
 3724              		.loc 4 108 0
 3725 012c 2F83FFF0 		cmpwi 7,3,-16
 3726              	.LBE3613:
 3727              	.LBE3612:
 3728              	.LBB3615:
 3729              	.LBB3611:
 3730              	.LBB3610:
 3731              		.loc 4 92 0
 3732 0130 7C7E1B78 		mr 30,3
 3733              	.LVL287:
 3734              	.LBE3610:
 3735              	.LBE3611:
 3736              	.LBE3615:
 3737              	.LBB3616:
 3738              	.LBB3614:
 3739              		.loc 4 108 0
 3740 0134 419E000C 		beq- 7,.L263
 3741 0138 801B0000 		lwz 0,0(27)
 3742 013c 90030010 		stw 0,16(3)
 3743              	.L263:
 3744              	.LVL288:
 3745              	.LBE3614:
 3746              	.LBE3616:
 3747              	.LBE3606:
 3748              	.LBE3605:
 3749              		.loc 8 973 0
 3750 0140 7F43D378 		mr 3,26
 3751              	.LVL289:
 3752 0144 7FC4F378 		mr 4,30
 3753 0148 7F85E378 		mr 5,28
 3754 014c 7FA6EB78 		mr 6,29
 3755 0150 48000001 		bl _ZSt29_Rb_tree_insert_and_rebalancebPSt18_Rb_tree_node_baseS0_RS_
 3756              		.loc 8 976 0
 3757 0154 813F0014 		lwz 9,20(31)
 3758              		.loc 8 1291 0
 3759 0158 38800000 		li 4,0
 3760 015c 7FC3F378 		mr 3,30
 3761              		.loc 8 976 0
 3762 0160 38090001 		addi 0,9,1
 3763              	.LBE3619:
 3764              	.LBE3627:
 3765              	.LBE3631:
 3766              		.loc 8 1293 0
 3767 0164 83410008 		lwz 26,8(1)
 3768              	.LVL290:
 3769              	.LBB3632:
 3770              	.LBB3628:
 3771              	.LBB3620:
 3772              		.loc 8 976 0
 3773 0168 901F0014 		stw 0,20(31)
 3774              	.LVL291:
 3775              		.loc 8 1291 0
 3776 016c 38000001 		li 0,1
 3777 0170 5004C00E 		rlwimi 4,0,24,0,7
 3778              	.LBE3620:
 3779              	.LBE3628:
 3780              	.LBE3632:
 3781              		.loc 8 1293 0
 3782 0174 80010024 		lwz 0,36(1)
 3783 0178 8361000C 		lwz 27,12(1)
 3784              	.LVL292:
 3785 017c 7C0803A6 		mtlr 0
 3786 0180 83810010 		lwz 28,16(1)
 3787 0184 83A10014 		lwz 29,20(1)
 3788 0188 83C10018 		lwz 30,24(1)
 3789              	.LVL293:
 3790 018c 83E1001C 		lwz 31,28(1)
 3791              	.LVL294:
 3792 0190 38210020 		addi 1,1,32
 3793              		.cfi_restore 26
 3794              		.cfi_restore 27
 3795              		.cfi_restore 28
 3796              		.cfi_restore 29
 3797              		.cfi_restore 30
 3798              		.cfi_restore 31
 3799              	.LCFI43:
 3800              		.cfi_def_cfa_offset 0
 3801 0194 4E800020 		blr
 3802              		.cfi_endproc
 3803              	.LFE1708:
 3804              		.size	_ZNSt8_Rb_treeIPN7sigslot12_signal_baseINS0_15single_threadedEEES4_St9_IdentityIS4_ESt4lessI
 3805              		.section	".text"
 3806              		.align 2
 3807              		.globl ThrowMsg
 3808              		.type	ThrowMsg, @function
 3809              	ThrowMsg:
 3810              	.LFB1494:
 3811              		.loc 2 99 0
 3812              		.cfi_startproc
 3813              		.cfi_personality 0,__gxx_personality_v0
 3814              		.cfi_lsda 0,.LLSDA1494
 3815              	.LVL295:
 3816 025c 7C0802A6 		mflr 0
 3817 0260 9421FF60 		stwu 1,-160(1)
 3818              	.LCFI44:
 3819              		.cfi_def_cfa_offset 160
 3820              		.cfi_register 65, 0
 3821 0264 93810090 		stw 28,144(1)
 3822 0268 7C7C1B78 		mr 28,3
 3823              		.cfi_offset 28, -16
 3824 026c 900100A4 		stw 0,164(1)
 3825 0270 93410088 		stw 26,136(1)
 3826 0274 9361008C 		stw 27,140(1)
 3827 0278 93A10094 		stw 29,148(1)
 3828 027c 93C10098 		stw 30,152(1)
 3829 0280 93E1009C 		stw 31,156(1)
 3830 0284 90A10028 		stw 5,40(1)
 3831 0288 90C1002C 		stw 6,44(1)
 3832 028c 90E10030 		stw 7,48(1)
 3833 0290 91010034 		stw 8,52(1)
 3834 0294 91210038 		stw 9,56(1)
 3835 0298 9141003C 		stw 10,60(1)
 3836 029c 40860024 		bne- 1,.L276
 3837              		.cfi_offset 31, -4
 3838              		.cfi_offset 30, -8
 3839              		.cfi_offset 29, -12
 3840              		.cfi_offset 27, -20
 3841              		.cfi_offset 26, -24
 3842              		.cfi_offset 65, 4
 3843              		.loc 2 99 0
 3844 02a0 D8210040 		stfd 1,64(1)
 3845 02a4 D8410048 		stfd 2,72(1)
 3846 02a8 D8610050 		stfd 3,80(1)
 3847 02ac D8810058 		stfd 4,88(1)
 3848 02b0 D8A10060 		stfd 5,96(1)
 3849 02b4 D8C10068 		stfd 6,104(1)
 3850 02b8 D8E10070 		stfd 7,112(1)
 3851 02bc D9010078 		stfd 8,120(1)
 3852              	.L276:
 3853              	.LBB3804:
 3854              		.loc 2 100 0
 3855 02c0 2F9C0000 		cmpwi 7,28,0
 3856 02c4 419E0274 		beq- 7,.L349
 3857              		.loc 2 104 0 discriminator 1
 3858 02c8 2F840000 		cmpwi 7,4,0
 3859 02cc 419E02D0 		beq- 7,.L350
 3860              	.L279:
 3861              		.loc 2 110 0
 3862 02d0 38000000 		li 0,0
 3863              		.loc 2 112 0
 3864 02d4 39200002 		li 9,2
 3865              		.loc 2 110 0
 3866 02d8 9001000C 		stw 0,12(1)
 3867              	.LVL296:
 3868              		.loc 2 113 0
 3869 02dc 3861000C 		addi 3,1,12
 3870              	.LVL297:
 3871              		.loc 2 112 0
 3872 02e0 98010011 		stb 0,17(1)
 3873 02e4 380100A8 		addi 0,1,168
 3874 02e8 90010014 		stw 0,20(1)
 3875              		.loc 2 113 0
 3876 02ec 38A10010 		addi 5,1,16
 3877              		.loc 2 112 0
 3878 02f0 38010020 		addi 0,1,32
 3879 02f4 99210010 		stb 9,16(1)
 3880 02f8 90010018 		stw 0,24(1)
 3881              	.LEHB16:
 3882              		.loc 2 113 0
 3883 02fc 48000001 		bl vasprintf
 3884              	.LVL298:
 3885 0300 2F830000 		cmpwi 7,3,0
 3886 0304 8341000C 		lwz 26,12(1)
 3887 0308 419C0020 		blt- 7,.L301
 3888              		.loc 2 113 0 is_stmt 0 discriminator 1
 3889 030c 2F9A0000 		cmpwi 7,26,0
 3890 0310 419E0018 		beq- 7,.L301
 3891              	.LVL299:
 3892              	.LBB3805:
 3893              	.LBB3806:
 3894              	.LBB3807:
 3895              		.loc 2 72 0 is_stmt 1 discriminator 4
 3896 0314 3FA00000 		lis 29,.LANCHOR0@ha
 3897 0318 3BDD0000 		la 30,.LANCHOR0@l(29)
 3898 031c 801E001C 		lwz 0,28(30)
 3899 0320 2F800002 		cmpwi 7,0,2
 3900 0324 409D003C 		ble- 7,.L351
 3901              	.LVL300:
 3902              	.L301:
 3903              	.LBE3807:
 3904              	.LBE3806:
 3905              	.LBE3805:
 3906              		.loc 2 119 0
 3907 0328 2F9A0000 		cmpwi 7,26,0
 3908 032c 419E000C 		beq- 7,.L275
 3909              		.loc 2 120 0
 3910 0330 7F43D378 		mr 3,26
 3911 0334 48000001 		bl free
 3912              	.LVL301:
 3913              	.L275:
 3914              	.LBE3804:
 3915              		.loc 2 121 0
 3916 0338 800100A4 		lwz 0,164(1)
 3917 033c 83410088 		lwz 26,136(1)
 3918 0340 7C0803A6 		mtlr 0
 3919 0344 8361008C 		lwz 27,140(1)
 3920 0348 83810090 		lwz 28,144(1)
 3921 034c 83A10094 		lwz 29,148(1)
 3922 0350 83C10098 		lwz 30,152(1)
 3923 0354 83E1009C 		lwz 31,156(1)
 3924 0358 382100A0 		addi 1,1,160
 3925              		.cfi_remember_state
 3926              	.LCFI45:
 3927              		.cfi_def_cfa_offset 0
 3928              		.cfi_restore 31
 3929              		.cfi_restore 30
 3930              		.cfi_restore 29
 3931              		.cfi_restore 28
 3932              		.cfi_restore 27
 3933              		.cfi_restore 26
 3934 035c 4E800020 		blr
 3935              	.LVL302:
 3936              	.L351:
 3937              	.LCFI46:
 3938              		.cfi_restore_state
 3939              	.LBB4082:
 3940              	.LBB3945:
 3941              	.LBB3939:
 3942              	.LBB3933:
 3943              		.loc 2 75 0
 3944 0360 3C600000 		lis 3,.LC1@ha
 3945 0364 38630008 		la 3,.LC1@l(3)
 3946 0368 48000001 		bl gettext
 3947 036c 7C7B1B78 		mr 27,3
 3948 0370 38600134 		li 3,308
 3949 0374 48000001 		bl _Znwj
 3950              	.LEHE16:
 3951 0378 7F84E378 		mr 4,28
 3952 037c 7F45D378 		mr 5,26
 3953 0380 7F66DB78 		mr 6,27
 3954 0384 38E00000 		li 7,0
 3955 0388 39000000 		li 8,0
 3956 038c 39200000 		li 9,0
 3957 0390 7C7F1B78 		mr 31,3
 3958              	.LEHB17:
 3959 0394 48000001 		bl _ZN12PromptWindowC1EPKcS1_S1_S1_S1_S1_
 3960              	.LEHE17:
 3961              	.LVL303:
 3962              		.loc 2 76 0
 3963 0398 7FE3FB78 		mr 3,31
 3964 039c 38800001 		li 4,1
 3965              	.LEHB18:
 3966 03a0 48000001 		bl _ZN8GuiFrame13DimBackgroundEb
 3967              	.LVL304:
 3968              	.LBB3808:
 3969              	.LBB3809:
 3970              	.LBB3810:
 3971              	.LBB3811:
 3972              		.loc 1 338 0
 3973 03a4 813F0090 		lwz 9,144(31)
 3974              	.LBE3811:
 3975              	.LBE3810:
 3976              	.LBE3809:
 3977              	.LBE3808:
 3978              	.LBB3857:
 3979              	.LBB3858:
 3980              		.file 9 "d:/Projects/SaveGameManager/savegame-manager-gx/trunk/source/Tools/../Prompts/PromptWindo
 3981              		.loc 9 38 0
 3982 03a8 38000001 		li 0,1
 3983              	.LBE3858:
 3984              	.LBE3857:
 3985              	.LBB3860:
 3986              	.LBB3851:
 3987              		.loc 1 2177 0
 3988 03ac 3B7F0090 		addi 27,31,144
 3989              	.LBE3851:
 3990              	.LBE3860:
 3991              	.LBB3861:
 3992              	.LBB3859:
 3993              		.loc 9 38 0
 3994 03b0 981F00DC 		stb 0,220(31)
 3995              	.LVL305:
 3996              	.LBE3859:
 3997              	.LBE3861:
 3998              	.LBB3862:
 3999              	.LBB3852:
 4000              	.LBB3813:
 4001              	.LBB3812:
 4002              		.loc 1 338 0
 4003 03b4 7F63DB78 		mr 3,27
 4004 03b8 80090008 		lwz 0,8(9)
 4005 03bc 7C0903A6 		mtctr 0
 4006 03c0 4E800421 		bctrl
 4007              	.LEHE18:
 4008              	.LBE3812:
 4009              	.LBE3813:
 4010              		.loc 1 2179 0
 4011 03c4 38600010 		li 3,16
 4012              	.LEHB19:
 4013 03c8 48000001 		bl _Znwj
 4014              	.LBB3814:
 4015              	.LBB3815:
 4016              		.loc 1 1683 0
 4017 03cc 3D200000 		lis 9,_ZTVN7sigslot12_connection1I19ThrowMessageHandlerP8GuiFrameNS_15single_threadedEEE+8@ha
 4018              		.loc 1 1684 0
 4019 03d0 93C30004 		stw 30,4(3)
 4020              		.loc 1 1683 0
 4021 03d4 38090008 		la 0,_ZTVN7sigslot12_connection1I19ThrowMessageHandlerP8GuiFrameNS_15single_threadedEEE+8@l(9)
 4022              	.LBE3815:
 4023              	.LBE3814:
 4024              	.LBE3852:
 4025              		.loc 1 1685 0
 4026 03d8 3D200000 		lis 9,_ZN19ThrowMessageHandler15OnWindowClosingEP8GuiFrame@ha
 4027              	.LBB3853:
 4028              	.LBB3817:
 4029              	.LBB3816:
 4030              		.loc 1 1683 0
 4031 03dc 90030000 		stw 0,0(3)
 4032              	.LBE3816:
 4033              	.LBE3817:
 4034              	.LBE3853:
 4035              		.loc 1 1685 0
 4036 03e0 38090000 		la 0,_ZN19ThrowMessageHandler15OnWindowClosingEP8GuiFrame@l(9)
 4037 03e4 90030008 		stw 0,8(3)
 4038 03e8 38000000 		li 0,0
 4039 03ec 9003000C 		stw 0,12(3)
 4040              	.LBB3854:
 4041              		.loc 1 2179 0
 4042 03f0 7C7C1B78 		mr 28,3
 4043              	.LVL306:
 4044              	.LBB3818:
 4045              	.LBB3819:
 4046              	.LBB3820:
 4047              	.LBB3821:
 4048              	.LBB3822:
 4049              	.LBB3823:
 4050              	.LBB3824:
 4051              	.LBB3825:
 4052              		.loc 4 92 0
 4053 03f4 3860000C 		li 3,12
 4054              	.LVL307:
 4055 03f8 48000001 		bl _Znwj
 4056              	.LVL308:
 4057              	.LBE3825:
 4058              	.LBE3824:
 4059              	.LBE3823:
 4060              	.LBB3826:
 4061              	.LBB3827:
 4062              		.loc 4 108 0
 4063 03fc 2F83FFF8 		cmpwi 7,3,-8
 4064 0400 419E0008 		beq- 7,.L303
 4065 0404 93830008 		stw 28,8(3)
 4066              	.L303:
 4067              	.LVL309:
 4068              	.LBE3827:
 4069              	.LBE3826:
 4070              	.LBE3822:
 4071              	.LBE3821:
 4072              		.file 10 "d:\\devkitpro\\devkitppc\\bin\\../lib/gcc/powerpc-eabi/4.6.3/../../../../powerpc-eabi/in
 4073              		.loc 10 1516 0
 4074 0408 389F0094 		addi 4,31,148
 4075 040c 48000001 		bl _ZNSt8__detail15_List_node_base7_M_hookEPS0_
 4076              	.LVL310:
 4077 0410 93610008 		stw 27,8(1)
 4078              	.LVL311:
 4079              	.LBE3820:
 4080              	.LBE3819:
 4081              	.LBE3818:
 4082              	.LBB3828:
 4083              	.LBB3829:
 4084              	.LBB3830:
 4085              	.LBB3831:
 4086              		.loc 1 338 0
 4087 0414 813D0000 		lwz 9,.LANCHOR0@l(29)
 4088 0418 7FC3F378 		mr 3,30
 4089 041c 80090008 		lwz 0,8(9)
 4090 0420 7C0903A6 		mtctr 0
 4091 0424 4E800421 		bctrl
 4092              	.LEHE19:
 4093              	.LVL312:
 4094              	.LBE3831:
 4095              	.LBE3830:
 4096              	.LBB3832:
 4097              	.LBB3833:
 4098              		.file 11 "d:\\devkitpro\\devkitppc\\bin\\../lib/gcc/powerpc-eabi/4.6.3/../../../../powerpc-eabi/in
 4099              		.loc 11 410 0
 4100 0428 3B810008 		addi 28,1,8
 4101              	.LVL313:
 4102 042c 387E0004 		addi 3,30,4
 4103 0430 7F84E378 		mr 4,28
 4104              	.LEHB20:
 4105 0434 48000001 		bl _ZNSt8_Rb_treeIPN7sigslot12_signal_baseINS0_15single_threadedEEES4_St9_IdentityIS4_ESt4lessIS4_
 4106              	.LEHE20:
 4107              	.LVL314:
 4108              	.LBE3833:
 4109              	.LBE3832:
 4110              	.LBB3834:
 4111              	.LBB3835:
 4112              	.LBB3836:
 4113              		.loc 1 343 0
 4114 0438 813D0000 		lwz 9,.LANCHOR0@l(29)
 4115 043c 7FC3F378 		mr 3,30
 4116 0440 8009000C 		lwz 0,12(9)
 4117 0444 7C0903A6 		mtctr 0
 4118              	.LEHB21:
 4119 0448 4E800421 		bctrl
 4120              	.LEHE21:
 4121              	.LVL315:
 4122              	.LBE3836:
 4123              	.LBE3835:
 4124              	.LBE3834:
 4125              	.LBE3829:
 4126              	.LBE3828:
 4127              	.LBB3841:
 4128              	.LBB3842:
 4129              	.LBB3843:
 4130 044c 813F0090 		lwz 9,144(31)
 4131 0450 7F63DB78 		mr 3,27
 4132              	.LBE3843:
 4133              	.LBE3842:
 4134              	.LBE3841:
 4135              	.LBE3854:
 4136              	.LBE3862:
 4137              	.LBB3863:
 4138              	.LBB3864:
 4139              		.file 12 "d:/Projects/SaveGameManager/savegame-manager-gx/trunk/source/Tools/../Controls/Applicati
 4140              		.loc 12 27 0
 4141 0454 3F600000 		lis 27,_ZN11Application8instanceE@ha
 4142              	.LBE3864:
 4143              	.LBE3863:
 4144              	.LBB3867:
 4145              	.LBB3855:
 4146              	.LBB3846:
 4147              	.LBB3845:
 4148              	.LBB3844:
 4149              		.loc 1 343 0
 4150 0458 8009000C 		lwz 0,12(9)
 4151 045c 7C0903A6 		mtctr 0
 4152              	.LEHB22:
 4153 0460 4E800421 		bctrl
 4154              	.LBE3844:
 4155              	.LBE3845:
 4156              	.LBE3846:
 4157              	.LBE3855:
 4158              	.LBE3867:
 4159              	.LBB3868:
 4160              	.LBB3865:
 4161              		.loc 12 27 0
 4162 0464 83BB0000 		lwz 29,_ZN11Application8instanceE@l(27)
 4163 0468 2F9D0000 		cmpwi 7,29,0
 4164 046c 419E0330 		beq- 7,.L352
 4165              	.L310:
 4166              	.LVL316:
 4167              	.LBE3865:
 4168              	.LBE3868:
 4169              	.LBB3869:
 4170              	.LBB3870:
 4171              		.loc 12 51 0
 4172 0470 807D0274 		lwz 3,628(29)
 4173 0474 48000001 		bl LWP_MutexLock
 4174              		.loc 12 52 0
 4175 0478 7FA3EB78 		mr 3,29
 4176 047c 7FE4FB78 		mr 4,31
 4177 0480 48000001 		bl _ZN8GuiFrame6AppendEP10GuiElement
 4178              		.loc 12 53 0
 4179 0484 807D0274 		lwz 3,628(29)
 4180 0488 48000001 		bl LWP_MutexUnlock
 4181              	.LBE3870:
 4182              	.LBE3869:
 4183              	.LBB3871:
 4184              	.LBB3872:
 4185              		.loc 12 27 0
 4186 048c 83BB0000 		lwz 29,_ZN11Application8instanceE@l(27)
 4187 0490 2F9D0000 		cmpwi 7,29,0
 4188 0494 419E02F0 		beq- 7,.L353
 4189              	.L312:
 4190 0498 93E10008 		stw 31,8(1)
 4191              	.LVL317:
 4192              	.LBE3872:
 4193              	.LBE3871:
 4194              	.LBB3875:
 4195              	.LBB3876:
 4196              	.LBB3877:
 4197              	.LBB3878:
 4198              		.loc 12 69 0
 4199 049c 3B600000 		li 27,0
 4200              	.LBE3878:
 4201              		.loc 2 121 0
 4202 04a0 813D025C 		lwz 9,604(29)
 4203 04a4 817D0260 		lwz 11,608(29)
 4204              	.LBB3912:
 4205              		.loc 12 69 0
 4206 04a8 7D204B78 		mr 0,9
 4207              	.LBB3879:
 4208              	.LBB3880:
 4209              		.loc 6 571 0
 4210 04ac 7D495850 		subf 10,9,11
 4211              	.LBE3880:
 4212              	.LBE3879:
 4213              		.loc 12 69 0
 4214 04b0 5548F0BF 		srwi. 8,10,2
 4215 04b4 40A2000C 		bne+ 0,.L341
 4216 04b8 4800002C 		b .L315
 4217              	.LVL318:
 4218              	.L327:
 4219              		.loc 2 121 0
 4220 04bc 7C090378 		mr 9,0
 4221              	.LVL319:
 4222              	.L341:
 4223              	.LBE3912:
 4224              	.LBE3877:
 4225              	.LBE3876:
 4226              	.LBE3875:
 4227              	.LBB3926:
 4228              	.LBB3873:
 4229              		.loc 2 98 0
 4230 04c0 577A103A 		slwi 26,27,2
 4231              	.LBE3873:
 4232              	.LBE3926:
 4233              	.LBB3927:
 4234              	.LBB3923:
 4235              	.LBB3915:
 4236              	.LBB3913:
 4237              		.loc 12 70 0
 4238 04c4 7D29D02E 		lwzx 9,9,26
 4239 04c8 7F9F4800 		cmpw 7,31,9
 4240 04cc 419E0078 		beq- 7,.L354
 4241              	.L317:
 4242              	.LBB3883:
 4243              	.LBB3881:
 4244              		.loc 6 571 0
 4245 04d0 7D205850 		subf 9,0,11
 4246              	.LBE3881:
 4247              	.LBE3883:
 4248              		.loc 12 69 0
 4249 04d4 3B7B0001 		addi 27,27,1
 4250              	.LVL320:
 4251              	.LBB3884:
 4252              	.LBB3882:
 4253              		.loc 6 571 0
 4254 04d8 7D291670 		srawi 9,9,2
 4255              	.LBE3882:
 4256              	.LBE3884:
 4257              		.loc 12 69 0
 4258 04dc 7F9B4840 		cmplw 7,27,9
 4259 04e0 419CFFDC 		blt+ 7,.L327
 4260              	.LVL321:
 4261              	.L315:
 4262              	.LBE3913:
 4263              	.LBE3915:
 4264              		.loc 12 62 0
 4265 04e4 807D0274 		lwz 3,628(29)
 4266 04e8 48000001 		bl LWP_MutexLock
 4267              	.LVL322:
 4268              	.LBB3916:
 4269              	.LBB3917:
 4270              		.loc 6 828 0
 4271 04ec 813D0260 		lwz 9,608(29)
 4272 04f0 801D0264 		lwz 0,612(29)
 4273 04f4 7F890000 		cmpw 7,9,0
 4274 04f8 419E0310 		beq- 7,.L319
 4275              	.LVL323:
 4276              	.LBB3918:
 4277              	.LBB3919:
 4278              		.loc 4 108 0
 4279 04fc 2F890000 		cmpwi 7,9,0
 4280 0500 39600000 		li 11,0
 4281 0504 419E0010 		beq- 7,.L320
 4282 0508 80010008 		lwz 0,8(1)
 4283 050c 90090000 		stw 0,0(9)
 4284 0510 817D0260 		lwz 11,608(29)
 4285              	.L320:
 4286              	.LBE3919:
 4287              	.LBE3918:
 4288              		.loc 6 831 0
 4289 0514 396B0004 		addi 11,11,4
 4290 0518 917D0260 		stw 11,608(29)
 4291              	.LVL324:
 4292              	.L321:
 4293              	.LBE3917:
 4294              	.LBE3916:
 4295              		.loc 12 64 0
 4296 051c 807D0274 		lwz 3,628(29)
 4297 0520 48000001 		bl LWP_MutexUnlock
 4298              	.LBE3923:
 4299              	.LBE3927:
 4300              		.loc 2 81 0
 4301 0524 813E001C 		lwz 9,28(30)
 4302 0528 8341000C 		lwz 26,12(1)
 4303 052c 38090001 		addi 0,9,1
 4304 0530 901E001C 		stw 0,28(30)
 4305 0534 4BFFFDF4 		b .L301
 4306              	.LVL325:
 4307              	.L349:
 4308              	.LBE3933:
 4309              	.LBE3939:
 4310              	.LBE3945:
 4311              		.loc 2 100 0 discriminator 1
 4312 0538 2F840000 		cmpwi 7,4,0
 4313 053c 409EFD94 		bne+ 7,.L279
 4314 0540 4BFFFDF8 		b .L275
 4315              	.LVL326:
 4316              	.L354:
 4317              	.LBB3946:
 4318              	.LBB3940:
 4319              	.LBB3934:
 4320              	.LBB3928:
 4321              	.LBB3924:
 4322              	.LBB3921:
 4323              	.LBB3914:
 4324              		.loc 12 71 0
 4325 0544 807D0274 		lwz 3,628(29)
 4326 0548 48000001 		bl LWP_MutexLock
 4327              	.LBB3885:
 4328              	.LBB3886:
 4329              		.loc 7 773 0
 4330 054c 807D025C 		lwz 3,604(29)
 4331              	.LBE3886:
 4332              	.LBE3885:
 4333              	.LBB3888:
 4334              	.LBB3889:
 4335              	.LBB3890:
 4336              		.loc 2 121 0
 4337 0550 813D0260 		lwz 9,608(29)
 4338              	.LBE3890:
 4339              	.LBE3889:
 4340              	.LBE3888:
 4341              	.LBB3908:
 4342              	.LBB3887:
 4343              		.loc 7 773 0
 4344 0554 7C63D214 		add 3,3,26
 4345              	.LVL327:
 4346              	.LBE3887:
 4347              	.LBE3908:
 4348              	.LBB3909:
 4349              	.LBB3905:
 4350              	.LBB3891:
 4351              	.LBB3892:
 4352 0558 38830004 		addi 4,3,4
 4353              	.LBE3892:
 4354              	.LBE3891:
 4355              		.loc 3 138 0
 4356 055c 7F844800 		cmpw 7,4,9
 4357 0560 419E0010 		beq- 7,.L318
 4358              	.LVL328:
 4359              	.LBB3893:
 4360              	.LBB3894:
 4361              	.LBB3895:
 4362              	.LBB3896:
 4363              	.LBB3897:
 4364              	.LBB3898:
 4365              		.loc 5 364 0
 4366 0564 7CA44850 		subf 5,4,9
 4367              	.LVL329:
 4368              		.loc 5 365 0
 4369 0568 7CA51671 		srawi. 5,5,2
 4370              	.LVL330:
 4371 056c 40820020 		bne- 0,.L355
 4372              	.LVL331:
 4373              	.L318:
 4374              	.LBE3898:
 4375              	.LBE3897:
 4376              	.LBE3896:
 4377              	.LBE3895:
 4378              	.LBE3894:
 4379              	.LBE3893:
 4380              		.loc 3 140 0
 4381 0570 3929FFFC 		addi 9,9,-4
 4382              	.LBE3905:
 4383              	.LBE3909:
 4384              		.loc 12 73 0
 4385 0574 807D0274 		lwz 3,628(29)
 4386              	.LBB3910:
 4387              	.LBB3906:
 4388              		.loc 3 140 0
 4389 0578 913D0260 		stw 9,608(29)
 4390              	.LBE3906:
 4391              	.LBE3910:
 4392              		.loc 12 73 0
 4393 057c 48000001 		bl LWP_MutexUnlock
 4394 0580 801D025C 		lwz 0,604(29)
 4395 0584 817D0260 		lwz 11,608(29)
 4396 0588 4BFFFF48 		b .L317
 4397              	.LVL332:
 4398              	.L355:
 4399              	.LBB3911:
 4400              	.LBB3907:
 4401              	.LBB3904:
 4402              	.LBB3903:
 4403              	.LBB3902:
 4404              	.LBB3901:
 4405              	.LBB3900:
 4406              	.LBB3899:
 4407              		.loc 5 366 0
 4408 058c 54A5103A 		slwi 5,5,2
 4409              	.LVL333:
 4410 0590 48000001 		bl memmove
 4411              	.LVL334:
 4412 0594 813D0260 		lwz 9,608(29)
 4413 0598 4BFFFFD8 		b .L318
 4414              	.LVL335:
 4415              	.L350:
 4416              	.LBE3899:
 4417              	.LBE3900:
 4418              	.LBE3901:
 4419              	.LBE3902:
 4420              	.LBE3903:
 4421              	.LBE3904:
 4422              	.LBE3907:
 4423              	.LBE3911:
 4424              	.LBE3914:
 4425              	.LBE3921:
 4426              	.LBE3924:
 4427              	.LBE3928:
 4428              	.LBE3934:
 4429              	.LBE3940:
 4430              	.LBE3946:
 4431              	.LBB3947:
 4432              	.LBB3948:
 4433              	.LBB3949:
 4434              		.loc 2 72 0
 4435 059c 3FA00000 		lis 29,.LANCHOR0@ha
 4436 05a0 3BDD0000 		la 30,.LANCHOR0@l(29)
 4437 05a4 801E001C 		lwz 0,28(30)
 4438 05a8 2F800002 		cmpwi 7,0,2
 4439 05ac 419DFD8C 		bgt+ 7,.L275
 4440              		.loc 2 75 0
 4441 05b0 3C600000 		lis 3,.LC1@ha
 4442              	.LVL336:
 4443 05b4 38630008 		la 3,.LC1@l(3)
 4444 05b8 48000001 		bl gettext
 4445              	.LVL337:
 4446 05bc 7C7B1B78 		mr 27,3
 4447 05c0 38600134 		li 3,308
 4448 05c4 48000001 		bl _Znwj
 4449              	.LEHE22:
 4450 05c8 7F84E378 		mr 4,28
 4451 05cc 38A00000 		li 5,0
 4452 05d0 7F66DB78 		mr 6,27
 4453 05d4 38E00000 		li 7,0
 4454 05d8 39000000 		li 8,0
 4455 05dc 39200000 		li 9,0
 4456 05e0 7C7F1B78 		mr 31,3
 4457              	.LEHB23:
 4458 05e4 48000001 		bl _ZN12PromptWindowC1EPKcS1_S1_S1_S1_S1_
 4459              	.LEHE23:
 4460              	.LVL338:
 4461              		.loc 2 76 0
 4462 05e8 7FE3FB78 		mr 3,31
 4463 05ec 38800001 		li 4,1
 4464              	.LEHB24:
 4465 05f0 48000001 		bl _ZN8GuiFrame13DimBackgroundEb
 4466              	.LVL339:
 4467              	.LBB3950:
 4468              	.LBB3951:
 4469              	.LBB3952:
 4470              	.LBB3953:
 4471              		.loc 1 338 0
 4472 05f4 813F0090 		lwz 9,144(31)
 4473              	.LBE3953:
 4474              	.LBE3952:
 4475              	.LBE3951:
 4476              	.LBE3950:
 4477              	.LBB3999:
 4478              	.LBB4000:
 4479              		.loc 9 38 0
 4480 05f8 38000001 		li 0,1
 4481              	.LBE4000:
 4482              	.LBE3999:
 4483              	.LBB4002:
 4484              	.LBB3993:
 4485              		.loc 1 2177 0
 4486 05fc 3B7F0090 		addi 27,31,144
 4487              	.LBE3993:
 4488              	.LBE4002:
 4489              	.LBB4003:
 4490              	.LBB4001:
 4491              		.loc 9 38 0
 4492 0600 981F00DC 		stb 0,220(31)
 4493              	.LVL340:
 4494              	.LBE4001:
 4495              	.LBE4003:
 4496              	.LBB4004:
 4497              	.LBB3994:
 4498              	.LBB3955:
 4499              	.LBB3954:
 4500              		.loc 1 338 0
 4501 0604 7F63DB78 		mr 3,27
 4502 0608 80090008 		lwz 0,8(9)
 4503 060c 7C0903A6 		mtctr 0
 4504 0610 4E800421 		bctrl
 4505              	.LEHE24:
 4506              	.LBE3954:
 4507              	.LBE3955:
 4508              		.loc 1 2179 0
 4509 0614 38600010 		li 3,16
 4510              	.LEHB25:
 4511 0618 48000001 		bl _Znwj
 4512              	.LBB3956:
 4513              	.LBB3957:
 4514              		.loc 1 1683 0
 4515 061c 3D200000 		lis 9,_ZTVN7sigslot12_connection1I19ThrowMessageHandlerP8GuiFrameNS_15single_threadedEEE+8@ha
 4516              		.loc 1 1684 0
 4517 0620 93C30004 		stw 30,4(3)
 4518              		.loc 1 1683 0
 4519 0624 38090008 		la 0,_ZTVN7sigslot12_connection1I19ThrowMessageHandlerP8GuiFrameNS_15single_threadedEEE+8@l(9)
 4520              	.LBE3957:
 4521              	.LBE3956:
 4522              	.LBE3994:
 4523              		.loc 1 1685 0
 4524 0628 3D200000 		lis 9,_ZN19ThrowMessageHandler15OnWindowClosingEP8GuiFrame@ha
 4525              	.LBB3995:
 4526              	.LBB3959:
 4527              	.LBB3958:
 4528              		.loc 1 1683 0
 4529 062c 90030000 		stw 0,0(3)
 4530              	.LBE3958:
 4531              	.LBE3959:
 4532              	.LBE3995:
 4533              		.loc 1 1685 0
 4534 0630 38090000 		la 0,_ZN19ThrowMessageHandler15OnWindowClosingEP8GuiFrame@l(9)
 4535 0634 90030008 		stw 0,8(3)
 4536 0638 38000000 		li 0,0
 4537 063c 9003000C 		stw 0,12(3)
 4538              	.LBB3996:
 4539              		.loc 1 2179 0
 4540 0640 7C7C1B78 		mr 28,3
 4541              	.LVL341:
 4542              	.LBB3960:
 4543              	.LBB3961:
 4544              	.LBB3962:
 4545              	.LBB3963:
 4546              	.LBB3964:
 4547              	.LBB3965:
 4548              	.LBB3966:
 4549              	.LBB3967:
 4550              		.loc 4 92 0
 4551 0644 3860000C 		li 3,12
 4552              	.LVL342:
 4553 0648 48000001 		bl _Znwj
 4554              	.LVL343:
 4555              	.LBE3967:
 4556              	.LBE3966:
 4557              	.LBE3965:
 4558              	.LBB3968:
 4559              	.LBB3969:
 4560              		.loc 4 108 0
 4561 064c 2F83FFF8 		cmpwi 7,3,-8
 4562 0650 419E0008 		beq- 7,.L281
 4563 0654 93830008 		stw 28,8(3)
 4564              	.L281:
 4565              	.LVL344:
 4566              	.LBE3969:
 4567              	.LBE3968:
 4568              	.LBE3964:
 4569              	.LBE3963:
 4570              		.loc 10 1516 0
 4571 0658 389F0094 		addi 4,31,148
 4572 065c 48000001 		bl _ZNSt8__detail15_List_node_base7_M_hookEPS0_
 4573              	.LVL345:
 4574 0660 93610008 		stw 27,8(1)
 4575              	.LVL346:
 4576              	.LBE3962:
 4577              	.LBE3961:
 4578              	.LBE3960:
 4579              	.LBB3970:
 4580              	.LBB3971:
 4581              	.LBB3972:
 4582              	.LBB3973:
 4583              		.loc 1 338 0
 4584 0664 813D0000 		lwz 9,.LANCHOR0@l(29)
 4585 0668 7FC3F378 		mr 3,30
 4586 066c 80090008 		lwz 0,8(9)
 4587 0670 7C0903A6 		mtctr 0
 4588 0674 4E800421 		bctrl
 4589              	.LEHE25:
 4590              	.LVL347:
 4591              	.LBE3973:
 4592              	.LBE3972:
 4593              	.LBB3974:
 4594              	.LBB3975:
 4595              		.loc 11 410 0
 4596 0678 3B810008 		addi 28,1,8
 4597              	.LVL348:
 4598 067c 387E0004 		addi 3,30,4
 4599 0680 7F84E378 		mr 4,28
 4600              	.LEHB26:
 4601 0684 48000001 		bl _ZNSt8_Rb_treeIPN7sigslot12_signal_baseINS0_15single_threadedEEES4_St9_IdentityIS4_ESt4lessIS4_
 4602              	.LEHE26:
 4603              	.LVL349:
 4604              	.LBE3975:
 4605              	.LBE3974:
 4606              	.LBB3976:
 4607              	.LBB3977:
 4608              	.LBB3978:
 4609              		.loc 1 343 0
 4610 0688 813D0000 		lwz 9,.LANCHOR0@l(29)
 4611 068c 7FC3F378 		mr 3,30
 4612 0690 8009000C 		lwz 0,12(9)
 4613 0694 7C0903A6 		mtctr 0
 4614              	.LEHB27:
 4615 0698 4E800421 		bctrl
 4616              	.LEHE27:
 4617              	.LVL350:
 4618              	.LBE3978:
 4619              	.LBE3977:
 4620              	.LBE3976:
 4621              	.LBE3971:
 4622              	.LBE3970:
 4623              	.LBB3983:
 4624              	.LBB3984:
 4625              	.LBB3985:
 4626 069c 813F0090 		lwz 9,144(31)
 4627 06a0 7F63DB78 		mr 3,27
 4628              	.LBE3985:
 4629              	.LBE3984:
 4630              	.LBE3983:
 4631              	.LBE3996:
 4632              	.LBE4004:
 4633              	.LBB4005:
 4634              	.LBB4006:
 4635              		.loc 12 27 0
 4636 06a4 3F600000 		lis 27,_ZN11Application8instanceE@ha
 4637              	.LBE4006:
 4638              	.LBE4005:
 4639              	.LBB4009:
 4640              	.LBB3997:
 4641              	.LBB3988:
 4642              	.LBB3987:
 4643              	.LBB3986:
 4644              		.loc 1 343 0
 4645 06a8 8009000C 		lwz 0,12(9)
 4646 06ac 7C0903A6 		mtctr 0
 4647              	.LEHB28:
 4648 06b0 4E800421 		bctrl
 4649              	.LBE3986:
 4650              	.LBE3987:
 4651              	.LBE3988:
 4652              	.LBE3997:
 4653              	.LBE4009:
 4654              	.LBB4010:
 4655              	.LBB4007:
 4656              		.loc 12 27 0
 4657 06b4 83BB0000 		lwz 29,_ZN11Application8instanceE@l(27)
 4658 06b8 2F9D0000 		cmpwi 7,29,0
 4659 06bc 419E017C 		beq- 7,.L356
 4660              	.L288:
 4661              	.LVL351:
 4662              	.LBE4007:
 4663              	.LBE4010:
 4664              	.LBB4011:
 4665              	.LBB4012:
 4666              		.loc 12 51 0
 4667 06c0 807D0274 		lwz 3,628(29)
 4668 06c4 48000001 		bl LWP_MutexLock
 4669              		.loc 12 52 0
 4670 06c8 7FA3EB78 		mr 3,29
 4671 06cc 7FE4FB78 		mr 4,31
 4672 06d0 48000001 		bl _ZN8GuiFrame6AppendEP10GuiElement
 4673              		.loc 12 53 0
 4674 06d4 807D0274 		lwz 3,628(29)
 4675 06d8 48000001 		bl LWP_MutexUnlock
 4676              	.LBE4012:
 4677              	.LBE4011:
 4678              	.LBB4013:
 4679              	.LBB4014:
 4680              		.loc 12 27 0
 4681 06dc 83BB0000 		lwz 29,_ZN11Application8instanceE@l(27)
 4682 06e0 2F9D0000 		cmpwi 7,29,0
 4683 06e4 419E013C 		beq- 7,.L357
 4684              	.L290:
 4685 06e8 93E10008 		stw 31,8(1)
 4686              	.LVL352:
 4687              	.LBE4014:
 4688              	.LBE4013:
 4689              	.LBB4018:
 4690              	.LBB4019:
 4691              	.LBB4020:
 4692              	.LBB4021:
 4693              		.loc 12 69 0
 4694 06ec 3B600000 		li 27,0
 4695              	.LBE4021:
 4696              		.loc 2 121 0
 4697 06f0 813D025C 		lwz 9,604(29)
 4698 06f4 817D0260 		lwz 11,608(29)
 4699              	.LBB4047:
 4700              		.loc 12 69 0
 4701 06f8 7D204B78 		mr 0,9
 4702              	.LBB4022:
 4703              	.LBB4023:
 4704              		.loc 6 571 0
 4705 06fc 7D495850 		subf 10,9,11
 4706              	.LBE4023:
 4707              	.LBE4022:
 4708              		.loc 12 69 0
 4709 0700 5548F0BF 		srwi. 8,10,2
 4710 0704 40A2000C 		bne+ 0,.L340
 4711 0708 4800002C 		b .L293
 4712              	.LVL353:
 4713              	.L324:
 4714              		.loc 2 121 0
 4715 070c 7C090378 		mr 9,0
 4716              	.LVL354:
 4717              	.L340:
 4718              	.LBE4047:
 4719              	.LBE4020:
 4720              	.LBE4019:
 4721              	.LBE4018:
 4722              	.LBB4061:
 4723              	.LBB4015:
 4724              		.loc 2 98 0
 4725 0710 577A103A 		slwi 26,27,2
 4726              	.LBE4015:
 4727              	.LBE4061:
 4728              	.LBB4062:
 4729              	.LBB4058:
 4730              	.LBB4050:
 4731              	.LBB4048:
 4732              		.loc 12 70 0
 4733 0714 7D29D02E 		lwzx 9,9,26
 4734 0718 7F9F4800 		cmpw 7,31,9
 4735 071c 419E0098 		beq- 7,.L358
 4736              	.L295:
 4737              	.LBB4026:
 4738              	.LBB4024:
 4739              		.loc 6 571 0
 4740 0720 7D205850 		subf 9,0,11
 4741              	.LBE4024:
 4742              	.LBE4026:
 4743              		.loc 12 69 0
 4744 0724 3B7B0001 		addi 27,27,1
 4745              	.LVL355:
 4746              	.LBB4027:
 4747              	.LBB4025:
 4748              		.loc 6 571 0
 4749 0728 7D291670 		srawi 9,9,2
 4750              	.LBE4025:
 4751              	.LBE4027:
 4752              		.loc 12 69 0
 4753 072c 7F9B4840 		cmplw 7,27,9
 4754 0730 419CFFDC 		blt+ 7,.L324
 4755              	.LVL356:
 4756              	.L293:
 4757              	.LBE4048:
 4758              	.LBE4050:
 4759              		.loc 12 62 0
 4760 0734 807D0274 		lwz 3,628(29)
 4761 0738 48000001 		bl LWP_MutexLock
 4762              	.LVL357:
 4763              	.LBB4051:
 4764              	.LBB4052:
 4765              		.loc 6 828 0
 4766 073c 813D0260 		lwz 9,608(29)
 4767 0740 801D0264 		lwz 0,612(29)
 4768 0744 7F890000 		cmpw 7,9,0
 4769 0748 419E0108 		beq- 7,.L297
 4770              	.LVL358:
 4771              	.LBB4053:
 4772              	.LBB4054:
 4773              		.loc 4 108 0
 4774 074c 2F890000 		cmpwi 7,9,0
 4775 0750 39600000 		li 11,0
 4776 0754 419E0010 		beq- 7,.L298
 4777 0758 80010008 		lwz 0,8(1)
 4778 075c 90090000 		stw 0,0(9)
 4779 0760 817D0260 		lwz 11,608(29)
 4780              	.L298:
 4781              	.LBE4054:
 4782              	.LBE4053:
 4783              		.loc 6 831 0
 4784 0764 396B0004 		addi 11,11,4
 4785 0768 917D0260 		stw 11,608(29)
 4786              	.LVL359:
 4787              	.L299:
 4788              	.LBE4052:
 4789              	.LBE4051:
 4790              		.loc 12 64 0
 4791 076c 807D0274 		lwz 3,628(29)
 4792 0770 48000001 		bl LWP_MutexUnlock
 4793              	.LBE4058:
 4794              	.LBE4062:
 4795              		.loc 2 81 0
 4796 0774 813E001C 		lwz 9,28(30)
 4797 0778 38090001 		addi 0,9,1
 4798 077c 901E001C 		stw 0,28(30)
 4799 0780 4BFFFBB8 		b .L275
 4800              	.LVL360:
 4801              	.L353:
 4802              	.LBE3949:
 4803              	.LBE3948:
 4804              	.LBE3947:
 4805              	.LBB4075:
 4806              	.LBB3941:
 4807              	.LBB3935:
 4808              	.LBB3929:
 4809              	.LBB3874:
 4810              		.loc 12 27 0
 4811 0784 38600278 		li 3,632
 4812 0788 48000001 		bl _Znwj
 4813              	.LEHE28:
 4814 078c 7C7D1B78 		mr 29,3
 4815              	.LEHB29:
 4816 0790 48000001 		bl _ZN11ApplicationC1Ev
 4817              	.LEHE29:
 4818 0794 93BB0000 		stw 29,_ZN11Application8instanceE@l(27)
 4819 0798 4BFFFD00 		b .L312
 4820              	.LVL361:
 4821              	.L352:
 4822              	.LBE3874:
 4823              	.LBE3929:
 4824              	.LBB3930:
 4825              	.LBB3866:
 4826 079c 38600278 		li 3,632
 4827              	.LEHB30:
 4828 07a0 48000001 		bl _Znwj
 4829              	.LEHE30:
 4830 07a4 7C7D1B78 		mr 29,3
 4831              	.LEHB31:
 4832 07a8 48000001 		bl _ZN11ApplicationC1Ev
 4833              	.LEHE31:
 4834 07ac 93BB0000 		stw 29,_ZN11Application8instanceE@l(27)
 4835 07b0 4BFFFCC0 		b .L310
 4836              	.LVL362:
 4837              	.L358:
 4838              	.LBE3866:
 4839              	.LBE3930:
 4840              	.LBE3935:
 4841              	.LBE3941:
 4842              	.LBE4075:
 4843              	.LBB4076:
 4844              	.LBB4072:
 4845              	.LBB4069:
 4846              	.LBB4063:
 4847              	.LBB4059:
 4848              	.LBB4056:
 4849              	.LBB4049:
 4850              		.loc 12 71 0
 4851 07b4 807D0274 		lwz 3,628(29)
 4852              	.LEHB32:
 4853 07b8 48000001 		bl LWP_MutexLock
 4854              	.LBB4028:
 4855              	.LBB4029:
 4856              		.loc 7 773 0
 4857 07bc 807D025C 		lwz 3,604(29)
 4858              	.LBE4029:
 4859              	.LBE4028:
 4860              	.LBB4031:
 4861              	.LBB4032:
 4862              	.LBB4033:
 4863              		.loc 2 121 0
 4864 07c0 813D0260 		lwz 9,608(29)
 4865              	.LBE4033:
 4866              	.LBE4032:
 4867              	.LBE4031:
 4868              	.LBB4044:
 4869              	.LBB4030:
 4870              		.loc 7 773 0
 4871 07c4 7C63D214 		add 3,3,26
 4872              	.LVL363:
 4873              	.LBE4030:
 4874              	.LBE4044:
 4875              	.LBB4045:
 4876              	.LBB4042:
 4877              	.LBB4034:
 4878              	.LBB4035:
 4879 07c8 38830004 		addi 4,3,4
 4880              	.LBE4035:
 4881              	.LBE4034:
 4882              		.loc 3 138 0
 4883 07cc 7F844800 		cmpw 7,4,9
 4884 07d0 419E001C 		beq- 7,.L296
 4885              	.LVL364:
 4886              	.LBB4036:
 4887              	.LBB4037:
 4888              	.LBB4038:
 4889              	.LBB4039:
 4890              	.LBB4040:
 4891              	.LBB4041:
 4892              		.loc 5 364 0
 4893 07d4 7CA44850 		subf 5,4,9
 4894              	.LVL365:
 4895              		.loc 5 365 0
 4896 07d8 7CA51671 		srawi. 5,5,2
 4897              	.LVL366:
 4898 07dc 41A20010 		beq+ 0,.L296
 4899              		.loc 5 366 0
 4900 07e0 54A5103A 		slwi 5,5,2
 4901              	.LVL367:
 4902 07e4 48000001 		bl memmove
 4903              	.LVL368:
 4904 07e8 813D0260 		lwz 9,608(29)
 4905              	.LVL369:
 4906              	.L296:
 4907              	.LBE4041:
 4908              	.LBE4040:
 4909              	.LBE4039:
 4910              	.LBE4038:
 4911              	.LBE4037:
 4912              	.LBE4036:
 4913              		.loc 3 140 0
 4914 07ec 3929FFFC 		addi 9,9,-4
 4915              	.LBE4042:
 4916              	.LBE4045:
 4917              		.loc 12 73 0
 4918 07f0 807D0274 		lwz 3,628(29)
 4919              	.LBB4046:
 4920              	.LBB4043:
 4921              		.loc 3 140 0
 4922 07f4 913D0260 		stw 9,608(29)
 4923              	.LBE4043:
 4924              	.LBE4046:
 4925              		.loc 12 73 0
 4926 07f8 48000001 		bl LWP_MutexUnlock
 4927 07fc 801D025C 		lwz 0,604(29)
 4928 0800 817D0260 		lwz 11,608(29)
 4929 0804 4BFFFF1C 		b .L295
 4930              	.LVL370:
 4931              	.L319:
 4932              	.LBE4049:
 4933              	.LBE4056:
 4934              	.LBE4059:
 4935              	.LBE4063:
 4936              	.LBE4069:
 4937              	.LBE4072:
 4938              	.LBE4076:
 4939              	.LBB4077:
 4940              	.LBB3942:
 4941              	.LBB3936:
 4942              	.LBB3931:
 4943              	.LBB3925:
 4944              	.LBB3922:
 4945              	.LBB3920:
 4946              		.loc 6 834 0
 4947 0808 7C240B78 		mr 4,1
 4948 080c 387D025C 		addi 3,29,604
 4949 0810 95240080 		stwu 9,128(4)
 4950 0814 7F85E378 		mr 5,28
 4951 0818 48000001 		bl _ZNSt6vectorIP10GuiElementSaIS1_EE13_M_insert_auxEN9__gnu_cxx17__normal_iteratorIPS1_S3_EERKS1_
 4952 081c 4BFFFD00 		b .L321
 4953              	.LVL371:
 4954              	.L357:
 4955              	.LBE3920:
 4956              	.LBE3922:
 4957              	.LBE3925:
 4958              	.LBE3931:
 4959              	.LBE3936:
 4960              	.LBE3942:
 4961              	.LBE4077:
 4962              	.LBB4078:
 4963              	.LBB4073:
 4964              	.LBB4070:
 4965              	.LBB4064:
 4966              	.LBB4016:
 4967              		.loc 12 27 0
 4968 0820 38600278 		li 3,632
 4969 0824 48000001 		bl _Znwj
 4970              	.LEHE32:
 4971 0828 7C7D1B78 		mr 29,3
 4972              	.LEHB33:
 4973 082c 48000001 		bl _ZN11ApplicationC1Ev
 4974              	.LEHE33:
 4975 0830 93BB0000 		stw 29,_ZN11Application8instanceE@l(27)
 4976 0834 4BFFFEB4 		b .L290
 4977              	.LVL372:
 4978              	.L356:
 4979              	.LBE4016:
 4980              	.LBE4064:
 4981              	.LBB4065:
 4982              	.LBB4008:
 4983 0838 38600278 		li 3,632
 4984              	.LEHB34:
 4985 083c 48000001 		bl _Znwj
 4986              	.LEHE34:
 4987 0840 7C7D1B78 		mr 29,3
 4988              	.LEHB35:
 4989 0844 48000001 		bl _ZN11ApplicationC1Ev
 4990              	.LEHE35:
 4991 0848 93BB0000 		stw 29,_ZN11Application8instanceE@l(27)
 4992 084c 4BFFFE74 		b .L288
 4993              	.LVL373:
 4994              	.L297:
 4995              	.LBE4008:
 4996              	.LBE4065:
 4997              	.LBB4066:
 4998              	.LBB4060:
 4999              	.LBB4057:
 5000              	.LBB4055:
 5001              		.loc 6 834 0
 5002 0850 7C240B78 		mr 4,1
 5003 0854 387D025C 		addi 3,29,604
 5004 0858 95240080 		stwu 9,128(4)
 5005 085c 7F85E378 		mr 5,28
 5006              	.LEHB36:
 5007 0860 48000001 		bl _ZNSt6vectorIP10GuiElementSaIS1_EE13_M_insert_auxEN9__gnu_cxx17__normal_iteratorIPS1_S3_EERKS1_
 5008              	.LEHE36:
 5009 0864 4BFFFF08 		b .L299
 5010              	.LVL374:
 5011              	.L336:
 5012              	.LBE4055:
 5013              	.LBE4057:
 5014              	.LBE4060:
 5015              	.LBE4066:
 5016              	.LBE4070:
 5017              	.LBE4073:
 5018              	.LBE4078:
 5019              	.LBB4079:
 5020              	.LBB3943:
 5021              	.LBB3937:
 5022              	.LBB3932:
 5023              	.LBB3856:
 5024              	.LBB3847:
 5025              	.LBB3840:
 5026              	.LBB3837:
 5027              	.LBB3838:
 5028              	.LBB3839:
 5029              		.loc 1 343 0
 5030 0868 813D0000 		lwz 9,.LANCHOR0@l(29)
 5031 086c 7C7D1B78 		mr 29,3
 5032 0870 7FC3F378 		mr 3,30
 5033 0874 7FBEEB78 		mr 30,29
 5034 0878 8009000C 		lwz 0,12(9)
 5035 087c 7C0903A6 		mtctr 0
 5036 0880 4E800421 		bctrl
 5037              	.LVL375:
 5038              	.L307:
 5039              	.LBE3839:
 5040              	.LBE3838:
 5041              	.LBE3837:
 5042              	.LBE3840:
 5043              	.LBE3847:
 5044              	.LBB3848:
 5045              	.LBB3849:
 5046              	.LBB3850:
 5047 0884 813F0090 		lwz 9,144(31)
 5048 0888 7F63DB78 		mr 3,27
 5049 088c 8009000C 		lwz 0,12(9)
 5050 0890 7C0903A6 		mtctr 0
 5051 0894 4E800421 		bctrl
 5052 0898 7FC3F378 		mr 3,30
 5053              	.LEHB37:
 5054 089c 48000001 		bl _Unwind_Resume
 5055              	.LEHE37:
 5056              	.LVL376:
 5057              	.L335:
 5058 08a0 7C7E1B78 		mr 30,3
 5059 08a4 4BFFFFE0 		b .L307
 5060              	.LVL377:
 5061              	.L331:
 5062              	.LBE3850:
 5063              	.LBE3849:
 5064              	.LBE3848:
 5065              	.LBE3856:
 5066              	.LBE3932:
 5067              	.LBE3937:
 5068              	.LBE3943:
 5069              	.LBE4079:
 5070              	.LBB4080:
 5071              	.LBB4074:
 5072              	.LBB4071:
 5073              	.LBB4067:
 5074              	.LBB3998:
 5075              	.LBB3989:
 5076              	.LBB3982:
 5077              	.LBB3979:
 5078              	.LBB3980:
 5079              	.LBB3981:
 5080 08a8 813D0000 		lwz 9,.LANCHOR0@l(29)
 5081 08ac 7C7D1B78 		mr 29,3
 5082 08b0 7FC3F378 		mr 3,30
 5083 08b4 7FBEEB78 		mr 30,29
 5084 08b8 8009000C 		lwz 0,12(9)
 5085 08bc 7C0903A6 		mtctr 0
 5086 08c0 4E800421 		bctrl
 5087              	.LVL378:
 5088              	.L285:
 5089              	.LBE3981:
 5090              	.LBE3980:
 5091              	.LBE3979:
 5092              	.LBE3982:
 5093              	.LBE3989:
 5094              	.LBB3990:
 5095              	.LBB3991:
 5096              	.LBB3992:
 5097 08c4 813F0090 		lwz 9,144(31)
 5098 08c8 7F63DB78 		mr 3,27
 5099 08cc 8009000C 		lwz 0,12(9)
 5100 08d0 7C0903A6 		mtctr 0
 5101 08d4 4E800421 		bctrl
 5102 08d8 7FC3F378 		mr 3,30
 5103              	.LEHB38:
 5104 08dc 48000001 		bl _Unwind_Resume
 5105              	.LVL379:
 5106              	.L337:
 5107              	.L347:
 5108 08e0 7C7F1B78 		mr 31,3
 5109              	.LBE3992:
 5110              	.LBE3991:
 5111              	.LBE3990:
 5112              	.LBE3998:
 5113              	.LBE4067:
 5114              	.LBB4068:
 5115              	.LBB4017:
 5116              		.loc 12 27 0
 5117 08e4 7FA3EB78 		mr 3,29
 5118 08e8 48000001 		bl _ZdlPv
 5119 08ec 7FE3FB78 		mr 3,31
 5120 08f0 48000001 		bl _Unwind_Resume
 5121              	.LVL380:
 5122              	.L334:
 5123              	.L348:
 5124 08f4 7C7E1B78 		mr 30,3
 5125              	.LBE4017:
 5126              	.LBE4068:
 5127              	.LBE4071:
 5128              	.LBE4074:
 5129              	.LBE4080:
 5130              	.LBB4081:
 5131              	.LBB3944:
 5132              	.LBB3938:
 5133              		.loc 2 75 0
 5134 08f8 7FE3FB78 		mr 3,31
 5135 08fc 48000001 		bl _ZdlPv
 5136 0900 7FC3F378 		mr 3,30
 5137 0904 48000001 		bl _Unwind_Resume
 5138              	.LEHE38:
 5139              	.LVL381:
 5140              	.L333:
 5141 0908 4BFFFFD8 		b .L347
 5142              	.LVL382:
 5143              	.L330:
 5144 090c 7C7E1B78 		mr 30,3
 5145 0910 4BFFFFB4 		b .L285
 5146              	.LVL383:
 5147              	.L329:
 5148 0914 4BFFFFE0 		b .L348
 5149              	.LVL384:
 5150              	.L338:
 5151 0918 4BFFFFC8 		b .L347
 5152              	.LVL385:
 5153              	.L332:
 5154 091c 4BFFFFC4 		b .L347
 5155              	.LBE3938:
 5156              	.LBE3944:
 5157              	.LBE4081:
 5158              	.LBE4082:
 5159              		.cfi_endproc
 5160              	.LFE1494:
 5161              		.section	.gcc_except_table
 5162              	.LLSDA1494:
 5163 0064 FF       		.byte	0xff
 5164 0065 FF       		.byte	0xff
 5165 0066 01       		.byte	0x1
 5166 0067 8101     		.uleb128 .LLSDACSE1494-.LLSDACSB1494
 5167              	.LLSDACSB1494:
 5168 0069 A001     		.uleb128 .LEHB16-.LFB1494
 5169 006b 7C       		.uleb128 .LEHE16-.LEHB16
 5170 006c 00       		.uleb128 0
 5171 006d 00       		.uleb128 0
 5172 006e B802     		.uleb128 .LEHB17-.LFB1494
 5173 0070 04       		.uleb128 .LEHE17-.LEHB17
 5174 0071 980D     		.uleb128 .L334-.LFB1494
 5175 0073 00       		.uleb128 0
 5176 0074 C402     		.uleb128 .LEHB18-.LFB1494
 5177 0076 24       		.uleb128 .LEHE18-.LEHB18
 5178 0077 00       		.uleb128 0
 5179 0078 00       		.uleb128 0
 5180 0079 EC02     		.uleb128 .LEHB19-.LFB1494
 5181 007b 60       		.uleb128 .LEHE19-.LEHB19
 5182 007c C40C     		.uleb128 .L335-.LFB1494
 5183 007e 00       		.uleb128 0
 5184 007f D803     		.uleb128 .LEHB20-.LFB1494
 5185 0081 04       		.uleb128 .LEHE20-.LEHB20
 5186 0082 8C0C     		.uleb128 .L336-.LFB1494
 5187 0084 00       		.uleb128 0
 5188 0085 EC03     		.uleb128 .LEHB21-.LFB1494
 5189 0087 04       		.uleb128 .LEHE21-.LEHB21
 5190 0088 C40C     		.uleb128 .L335-.LFB1494
 5191 008a 00       		.uleb128 0
 5192 008b 8404     		.uleb128 .LEHB22-.LFB1494
 5193 008d E802     		.uleb128 .LEHE22-.LEHB22
 5194 008f 00       		.uleb128 0
 5195 0090 00       		.uleb128 0
 5196 0091 8807     		.uleb128 .LEHB23-.LFB1494
 5197 0093 04       		.uleb128 .LEHE23-.LEHB23
 5198 0094 B80D     		.uleb128 .L329-.LFB1494
 5199 0096 00       		.uleb128 0
 5200 0097 9407     		.uleb128 .LEHB24-.LFB1494
 5201 0099 24       		.uleb128 .LEHE24-.LEHB24
 5202 009a 00       		.uleb128 0
 5203 009b 00       		.uleb128 0
 5204 009c BC07     		.uleb128 .LEHB25-.LFB1494
 5205 009e 60       		.uleb128 .LEHE25-.LEHB25
 5206 009f B00D     		.uleb128 .L330-.LFB1494
 5207 00a1 00       		.uleb128 0
 5208 00a2 A808     		.uleb128 .LEHB26-.LFB1494
 5209 00a4 04       		.uleb128 .LEHE26-.LEHB26
 5210 00a5 CC0C     		.uleb128 .L331-.LFB1494
 5211 00a7 00       		.uleb128 0
 5212 00a8 BC08     		.uleb128 .LEHB27-.LFB1494
 5213 00aa 04       		.uleb128 .LEHE27-.LEHB27
 5214 00ab B00D     		.uleb128 .L330-.LFB1494
 5215 00ad 00       		.uleb128 0
 5216 00ae D408     		.uleb128 .LEHB28-.LFB1494
 5217 00b0 DC01     		.uleb128 .LEHE28-.LEHB28
 5218 00b2 00       		.uleb128 0
 5219 00b3 00       		.uleb128 0
 5220 00b4 B40A     		.uleb128 .LEHB29-.LFB1494
 5221 00b6 04       		.uleb128 .LEHE29-.LEHB29
 5222 00b7 BC0D     		.uleb128 .L338-.LFB1494
 5223 00b9 00       		.uleb128 0
 5224 00ba C40A     		.uleb128 .LEHB30-.LFB1494
 5225 00bc 04       		.uleb128 .LEHE30-.LEHB30
 5226 00bd 00       		.uleb128 0
 5227 00be 00       		.uleb128 0
 5228 00bf CC0A     		.uleb128 .LEHB31-.LFB1494
 5229 00c1 04       		.uleb128 .LEHE31-.LEHB31
 5230 00c2 840D     		.uleb128 .L337-.LFB1494
 5231 00c4 00       		.uleb128 0
 5232 00c5 DC0A     		.uleb128 .LEHB32-.LFB1494
 5233 00c7 70       		.uleb128 .LEHE32-.LEHB32
 5234 00c8 00       		.uleb128 0
 5235 00c9 00       		.uleb128 0
 5236 00ca D00B     		.uleb128 .LEHB33-.LFB1494
 5237 00cc 04       		.uleb128 .LEHE33-.LEHB33
 5238 00cd AC0D     		.uleb128 .L333-.LFB1494
 5239 00cf 00       		.uleb128 0
 5240 00d0 E00B     		.uleb128 .LEHB34-.LFB1494
 5241 00d2 04       		.uleb128 .LEHE34-.LEHB34
 5242 00d3 00       		.uleb128 0
 5243 00d4 00       		.uleb128 0
 5244 00d5 E80B     		.uleb128 .LEHB35-.LFB1494
 5245 00d7 04       		.uleb128 .LEHE35-.LEHB35
 5246 00d8 C00D     		.uleb128 .L332-.LFB1494
 5247 00da 00       		.uleb128 0
 5248 00db 840C     		.uleb128 .LEHB36-.LFB1494
 5249 00dd 04       		.uleb128 .LEHE36-.LEHB36
 5250 00de 00       		.uleb128 0
 5251 00df 00       		.uleb128 0
 5252 00e0 C00C     		.uleb128 .LEHB37-.LFB1494
 5253 00e2 04       		.uleb128 .LEHE37-.LEHB37
 5254 00e3 00       		.uleb128 0
 5255 00e4 00       		.uleb128 0
 5256 00e5 800D     		.uleb128 .LEHB38-.LFB1494
 5257 00e7 2C       		.uleb128 .LEHE38-.LEHB38
 5258 00e8 00       		.uleb128 0
 5259 00e9 00       		.uleb128 0
 5260              	.LLSDACSE1494:
 5261              		.section	".text"
 5262              		.size	ThrowMsg, .-ThrowMsg
 5263              		.section	.text.startup,"ax",@progbits
 5264              		.align 2
 5265              		.type	_GLOBAL__sub_I_ShowError, @function
 5266              	_GLOBAL__sub_I_ShowError:
 5267              	.LFB1935:
 5268              		.loc 2 121 0
 5269              		.cfi_startproc
 5270              		.loc 2 121 0
 5271 0000 38600001 		li 3,1
 5272 0004 480001EC 		b _Z41__static_initialization_and_destruction_0ii.constprop.111
 5273              		.cfi_endproc
 5274              	.LFE1935:
 5275              		.size	_GLOBAL__sub_I_ShowError, .-_GLOBAL__sub_I_ShowError
 5276              		.section	.ctors,"aw",@progbits
 5277              		.align 2
 5278 0000 00000000 		.long	_GLOBAL__sub_I_ShowError
 5279              		.section	.text.exit,"ax",@progbits
 5280              		.align 2
 5281              		.type	_GLOBAL__sub_D_ShowError, @function
 5282              	_GLOBAL__sub_D_ShowError:
 5283              	.LFB1936:
 5284              		.loc 2 121 0
 5285              		.cfi_startproc
 5286              		.loc 2 121 0
 5287 0000 38600000 		li 3,0
 5288 0004 480001EC 		b _Z41__static_initialization_and_destruction_0ii.constprop.111
 5289              		.cfi_endproc
 5290              	.LFE1936:
 5291              		.size	_GLOBAL__sub_D_ShowError, .-_GLOBAL__sub_D_ShowError
 5292              		.section	.dtors,"aw",@progbits
 5293              		.align 2
 5294 0000 00000000 		.long	_GLOBAL__sub_D_ShowError
 5295              		.weak	_ZTVN7sigslot17_connection_base1IP8GuiFrameNS_15single_threadedEEE
 5296              		.section	.rodata._ZTVN7sigslot17_connection_base1IP8GuiFrameNS_15single_threadedEEE,"aG",@progbits
 5297              		.align 3
 5298              		.type	_ZTVN7sigslot17_connection_base1IP8GuiFrameNS_15single_threadedEEE, @object
 5299              		.size	_ZTVN7sigslot17_connection_base1IP8GuiFrameNS_15single_threadedEEE, 32
 5300              	_ZTVN7sigslot17_connection_base1IP8GuiFrameNS_15single_threadedEEE:
 5301 0000 00000000 		.long	0
 5302 0004 00000000 		.long	_ZTIN7sigslot17_connection_base1IP8GuiFrameNS_15single_threadedEEE
 5303 0008 00000000 		.long	_ZN7sigslot17_connection_base1IP8GuiFrameNS_15single_threadedEED1Ev
 5304 000c 00000000 		.long	_ZN7sigslot17_connection_base1IP8GuiFrameNS_15single_threadedEED0Ev
 5305 0010 00000000 		.long	__cxa_pure_virtual
 5306 0014 00000000 		.long	__cxa_pure_virtual
 5307 0018 00000000 		.long	__cxa_pure_virtual
 5308 001c 00000000 		.long	__cxa_pure_virtual
 5309              		.weak	_ZTVN7sigslot12_connection1I19ThrowMessageHandlerP8GuiFrameNS_15single_threadedEEE
 5310              		.section	.rodata._ZTVN7sigslot12_connection1I19ThrowMessageHandlerP8GuiFrameNS_15single_threadedEE
 5311              		.align 3
 5312              		.type	_ZTVN7sigslot12_connection1I19ThrowMessageHandlerP8GuiFrameNS_15single_threadedEEE, @object
 5313              		.size	_ZTVN7sigslot12_connection1I19ThrowMessageHandlerP8GuiFrameNS_15single_threadedEEE, 32
 5314              	_ZTVN7sigslot12_connection1I19ThrowMessageHandlerP8GuiFrameNS_15single_threadedEEE:
 5315 0000 00000000 		.long	0
 5316 0004 00000000 		.long	_ZTIN7sigslot12_connection1I19ThrowMessageHandlerP8GuiFrameNS_15single_threadedEEE
 5317 0008 00000000 		.long	_ZN7sigslot12_connection1I19ThrowMessageHandlerP8GuiFrameNS_15single_threadedEED1Ev
 5318 000c 00000000 		.long	_ZN7sigslot12_connection1I19ThrowMessageHandlerP8GuiFrameNS_15single_threadedEED0Ev
 5319 0010 00000000 		.long	_ZNK7sigslot12_connection1I19ThrowMessageHandlerP8GuiFrameNS_15single_threadedEE7getdestEv
 5320 0014 00000000 		.long	_ZN7sigslot12_connection1I19ThrowMessageHandlerP8GuiFrameNS_15single_threadedEE4emitES3_
 5321 0018 00000000 		.long	_ZN7sigslot12_connection1I19ThrowMessageHandlerP8GuiFrameNS_15single_threadedEE5cloneEv
 5322 001c 00000000 		.long	_ZN7sigslot12_connection1I19ThrowMessageHandlerP8GuiFrameNS_15single_threadedEE9duplicateEPN
 5323              		.weak	_ZTVN7sigslot15single_threadedE
 5324              		.section	.rodata._ZTVN7sigslot15single_threadedE,"aG",@progbits,_ZTVN7sigslot15single_threadedE,co
 5325              		.align 3
 5326              		.type	_ZTVN7sigslot15single_threadedE, @object
 5327              		.size	_ZTVN7sigslot15single_threadedE, 24
 5328              	_ZTVN7sigslot15single_threadedE:
 5329 0000 00000000 		.long	0
 5330 0004 00000000 		.long	_ZTIN7sigslot15single_threadedE
 5331 0008 00000000 		.long	_ZN7sigslot15single_threadedD1Ev
 5332 000c 00000000 		.long	_ZN7sigslot15single_threadedD0Ev
 5333 0010 00000000 		.long	_ZN7sigslot15single_threaded4lockEv
 5334 0014 00000000 		.long	_ZN7sigslot15single_threaded6unlockEv
 5335              		.weak	_ZTVN7sigslot9has_slotsINS_15single_threadedEEE
 5336              		.section	.rodata._ZTVN7sigslot9has_slotsINS_15single_threadedEEE,"aG",@progbits,_ZTVN7sigslot9has_
 5337              		.align 3
 5338              		.type	_ZTVN7sigslot9has_slotsINS_15single_threadedEEE, @object
 5339              		.size	_ZTVN7sigslot9has_slotsINS_15single_threadedEEE, 24
 5340              	_ZTVN7sigslot9has_slotsINS_15single_threadedEEE:
 5341 0000 00000000 		.long	0
 5342 0004 00000000 		.long	_ZTIN7sigslot9has_slotsINS_15single_threadedEEE
 5343 0008 00000000 		.long	_ZN7sigslot9has_slotsINS_15single_threadedEED1Ev
 5344 000c 00000000 		.long	_ZN7sigslot9has_slotsINS_15single_threadedEED0Ev
 5345 0010 00000000 		.long	_ZN7sigslot15single_threaded4lockEv
 5346 0014 00000000 		.long	_ZN7sigslot15single_threaded6unlockEv
 5347              		.weak	_ZTV19ThrowMessageHandler
 5348              		.section	.rodata._ZTV19ThrowMessageHandler,"aG",@progbits,_ZTV19ThrowMessageHandler,comdat
 5349              		.align 3
 5350              		.type	_ZTV19ThrowMessageHandler, @object
 5351              		.size	_ZTV19ThrowMessageHandler, 24
 5352              	_ZTV19ThrowMessageHandler:
 5353 0000 00000000 		.long	0
 5354 0004 00000000 		.long	_ZTI19ThrowMessageHandler
 5355 0008 00000000 		.long	_ZN19ThrowMessageHandlerD1Ev
 5356 000c 00000000 		.long	_ZN19ThrowMessageHandlerD0Ev
 5357 0010 00000000 		.long	_ZN7sigslot15single_threaded4lockEv
 5358 0014 00000000 		.long	_ZN7sigslot15single_threaded6unlockEv
 5359              		.weak	_ZTIN7sigslot17_connection_base1IP8GuiFrameNS_15single_threadedEEE
 5360              		.section	.sdata._ZTIN7sigslot17_connection_base1IP8GuiFrameNS_15single_threadedEEE,"awG",@progbits
 5361              		.align 2
 5362              		.type	_ZTIN7sigslot17_connection_base1IP8GuiFrameNS_15single_threadedEEE, @object
 5363              		.size	_ZTIN7sigslot17_connection_base1IP8GuiFrameNS_15single_threadedEEE, 8
 5364              	_ZTIN7sigslot17_connection_base1IP8GuiFrameNS_15single_threadedEEE:
 5365 0000 00000008 		.long	_ZTVN10__cxxabiv117__class_type_infoE+8
 5366 0004 00000000 		.long	_ZTSN7sigslot17_connection_base1IP8GuiFrameNS_15single_threadedEEE
 5367              		.weak	_ZTIN7sigslot12_connection1I19ThrowMessageHandlerP8GuiFrameNS_15single_threadedEEE
 5368              		.section	.rodata._ZTIN7sigslot12_connection1I19ThrowMessageHandlerP8GuiFrameNS_15single_threadedEE
 5369              		.align 2
 5370              		.type	_ZTIN7sigslot12_connection1I19ThrowMessageHandlerP8GuiFrameNS_15single_threadedEEE, @object
 5371              		.size	_ZTIN7sigslot12_connection1I19ThrowMessageHandlerP8GuiFrameNS_15single_threadedEEE, 12
 5372              	_ZTIN7sigslot12_connection1I19ThrowMessageHandlerP8GuiFrameNS_15single_threadedEEE:
 5373 0000 00000008 		.long	_ZTVN10__cxxabiv120__si_class_type_infoE+8
 5374 0004 00000000 		.long	_ZTSN7sigslot12_connection1I19ThrowMessageHandlerP8GuiFrameNS_15single_threadedEEE
 5375 0008 00000000 		.long	_ZTIN7sigslot17_connection_base1IP8GuiFrameNS_15single_threadedEEE
 5376              		.weak	_ZTIN7sigslot15single_threadedE
 5377              		.section	.sdata._ZTIN7sigslot15single_threadedE,"awG",@progbits,_ZTIN7sigslot15single_threadedE,co
 5378              		.align 2
 5379              		.type	_ZTIN7sigslot15single_threadedE, @object
 5380              		.size	_ZTIN7sigslot15single_threadedE, 8
 5381              	_ZTIN7sigslot15single_threadedE:
 5382 0000 00000008 		.long	_ZTVN10__cxxabiv117__class_type_infoE+8
 5383 0004 00000000 		.long	_ZTSN7sigslot15single_threadedE
 5384              		.weak	_ZTIN7sigslot9has_slotsINS_15single_threadedEEE
 5385              		.section	.rodata._ZTIN7sigslot9has_slotsINS_15single_threadedEEE,"aG",@progbits,_ZTIN7sigslot9has_
 5386              		.align 2
 5387              		.type	_ZTIN7sigslot9has_slotsINS_15single_threadedEEE, @object
 5388              		.size	_ZTIN7sigslot9has_slotsINS_15single_threadedEEE, 12
 5389              	_ZTIN7sigslot9has_slotsINS_15single_threadedEEE:
 5390 0000 00000008 		.long	_ZTVN10__cxxabiv120__si_class_type_infoE+8
 5391 0004 00000000 		.long	_ZTSN7sigslot9has_slotsINS_15single_threadedEEE
 5392 0008 00000000 		.long	_ZTIN7sigslot15single_threadedE
 5393              		.weak	_ZTI19ThrowMessageHandler
 5394              		.section	.rodata._ZTI19ThrowMessageHandler,"aG",@progbits,_ZTI19ThrowMessageHandler,comdat
 5395              		.align 2
 5396              		.type	_ZTI19ThrowMessageHandler, @object
 5397              		.size	_ZTI19ThrowMessageHandler, 12
 5398              	_ZTI19ThrowMessageHandler:
 5399 0000 00000008 		.long	_ZTVN10__cxxabiv120__si_class_type_infoE+8
 5400 0004 00000000 		.long	_ZTS19ThrowMessageHandler
 5401 0008 00000000 		.long	_ZTIN7sigslot9has_slotsINS_15single_threadedEEE
 5402              		.weak	_ZTSN7sigslot17_connection_base1IP8GuiFrameNS_15single_threadedEEE
 5403              		.section	.rodata._ZTSN7sigslot17_connection_base1IP8GuiFrameNS_15single_threadedEEE,"aG",@progbits
 5404              		.align 2
 5405              		.type	_ZTSN7sigslot17_connection_base1IP8GuiFrameNS_15single_threadedEEE, @object
 5406              		.size	_ZTSN7sigslot17_connection_base1IP8GuiFrameNS_15single_threadedEEE, 63
 5407              	_ZTSN7sigslot17_connection_base1IP8GuiFrameNS_15single_threadedEEE:
 5408 0000 4E377369 		.string	"N7sigslot17_connection_base1IP8GuiFrameNS_15single_threadedEEE"
 5408      67736C6F 
 5408      7431375F 
 5408      636F6E6E 
 5408      65637469 
 5409              		.weak	_ZTSN7sigslot12_connection1I19ThrowMessageHandlerP8GuiFrameNS_15single_threadedEEE
 5410              		.section	.rodata._ZTSN7sigslot12_connection1I19ThrowMessageHandlerP8GuiFrameNS_15single_threadedEE
 5411              		.align 2
 5412              		.type	_ZTSN7sigslot12_connection1I19ThrowMessageHandlerP8GuiFrameNS_15single_threadedEEE, @object
 5413              		.size	_ZTSN7sigslot12_connection1I19ThrowMessageHandlerP8GuiFrameNS_15single_threadedEEE, 79
 5414              	_ZTSN7sigslot12_connection1I19ThrowMessageHandlerP8GuiFrameNS_15single_threadedEEE:
 5415 0000 4E377369 		.string	"N7sigslot12_connection1I19ThrowMessageHandlerP8GuiFrameNS_15single_threadedEEE"
 5415      67736C6F 
 5415      7431325F 
 5415      636F6E6E 
 5415      65637469 
 5416              		.weak	_ZTSN7sigslot15single_threadedE
 5417              		.section	.rodata._ZTSN7sigslot15single_threadedE,"aG",@progbits,_ZTSN7sigslot15single_threadedE,co
 5418              		.align 2
 5419              		.type	_ZTSN7sigslot15single_threadedE, @object
 5420              		.size	_ZTSN7sigslot15single_threadedE, 28
 5421              	_ZTSN7sigslot15single_threadedE:
 5422 0000 4E377369 		.string	"N7sigslot15single_threadedE"
 5422      67736C6F 
 5422      74313573 
 5422      696E676C 
 5422      655F7468 
 5423              		.weak	_ZTSN7sigslot9has_slotsINS_15single_threadedEEE
 5424              		.section	.rodata._ZTSN7sigslot9has_slotsINS_15single_threadedEEE,"aG",@progbits,_ZTSN7sigslot9has_
 5425              		.align 2
 5426              		.type	_ZTSN7sigslot9has_slotsINS_15single_threadedEEE, @object
 5427              		.size	_ZTSN7sigslot9has_slotsINS_15single_threadedEEE, 44
 5428              	_ZTSN7sigslot9has_slotsINS_15single_threadedEEE:
 5429 0000 4E377369 		.string	"N7sigslot9has_slotsINS_15single_threadedEEE"
 5429      67736C6F 
 5429      74396861 
 5429      735F736C 
 5429      6F747349 
 5430              		.weak	_ZTS19ThrowMessageHandler
 5431              		.section	.rodata._ZTS19ThrowMessageHandler,"aG",@progbits,_ZTS19ThrowMessageHandler,comdat
 5432              		.align 2
 5433              		.type	_ZTS19ThrowMessageHandler, @object
 5434              		.size	_ZTS19ThrowMessageHandler, 22
 5435              	_ZTS19ThrowMessageHandler:
 5436 0000 31395468 		.string	"19ThrowMessageHandler"
 5436      726F774D 
 5436      65737361 
 5436      67654861 
 5436      6E646C65 
 5437              		.weak	_ZN7sigslot15single_threadedD1Ev
 5438              		.set	_ZN7sigslot15single_threadedD1Ev,_ZN7sigslot15single_threadedD2Ev
 5439              		.weak	_ZN7sigslot17_connection_base1IP8GuiFrameNS_15single_threadedEED1Ev
 5440              		.set	_ZN7sigslot17_connection_base1IP8GuiFrameNS_15single_threadedEED1Ev,_ZN7sigslot17_connection_
 5441              		.weak	_ZN7sigslot12_connection1I19ThrowMessageHandlerP8GuiFrameNS_15single_threadedEED1Ev
 5442              		.set	_ZN7sigslot12_connection1I19ThrowMessageHandlerP8GuiFrameNS_15single_threadedEED1Ev,_ZN7sigsl
 5443              		.weak	_ZN7sigslot9has_slotsINS_15single_threadedEED1Ev
 5444              		.set	_ZN7sigslot9has_slotsINS_15single_threadedEED1Ev,_ZN7sigslot9has_slotsINS_15single_threadedEE
 5445              		.weak	_ZN19ThrowMessageHandlerD1Ev
 5446              		.set	_ZN19ThrowMessageHandlerD1Ev,_ZN19ThrowMessageHandlerD2Ev
 5447              		.section	.rodata.str1.4,"aMS",@progbits,1
 5448              		.align 2
 5449              	.LC0:
 5450 0000 4572726F 		.string	"Error:"
 5450      723A00
 5451 0007 00       		.zero	1
 5452              	.LC1:
 5453 0008 4F4B00   		.string	"OK"
 5454              		.section	".bss"
 5455              		.align 2
 5456              		.set	.LANCHOR0,. + 0
 5457              		.type	_ZL19throwMessageHandler, @object
 5458              		.size	_ZL19throwMessageHandler, 32
 5459              	_ZL19throwMessageHandler:
 5460 0000 00000000 		.zero	32
 5460      00000000 
 5460      00000000 
 5460      00000000 
 5460      00000000 
 5461              		.section	".text"
 5462              	.Letext0:
 5463              		.file 13 "d:\\devkitpro\\devkitppc\\bin\\../lib/gcc/powerpc-eabi/4.6.3/../../../../powerpc-eabi/in
 5464              		.file 14 "d:\\devkitpro\\devkitppc\\bin\\../lib/gcc/powerpc-eabi/4.6.3/../../../../powerpc-eabi/in
 5465              		.file 15 "d:\\devkitpro\\devkitppc\\bin\\../lib/gcc/powerpc-eabi/4.6.3/include/stddef.h"
 5466              		.file 16 "d:\\devkitpro\\devkitppc\\bin\\../lib/gcc/powerpc-eabi/4.6.3/../../../../powerpc-eabi/in
 5467              		.file 17 "d:\\devkitpro\\devkitppc\\bin\\../lib/gcc/powerpc-eabi/4.6.3/../../../../powerpc-eabi/in
 5468              		.file 18 "d:\\devkitpro\\devkitppc\\bin\\../lib/gcc/powerpc-eabi/4.6.3/include/stdarg.h"
 5469              		.file 19 "<built-in>"
 5470              		.file 20 "d:\\devkitpro\\devkitppc\\bin\\../lib/gcc/powerpc-eabi/4.6.3/../../../../powerpc-eabi/in
 5471              		.file 21 "d:/devkitPro/libogc/include/gctypes.h"
 5472              		.file 22 "d:/devkitPro/libogc/include/ogc/gx.h"
 5473              		.file 23 "d:\\devkitpro\\devkitppc\\bin\\../lib/gcc/powerpc-eabi/4.6.3/../../../../powerpc-eabi/in
 5474              		.file 24 "d:\\devkitpro\\devkitppc\\bin\\../lib/gcc/powerpc-eabi/4.6.3/../../../../powerpc-eabi/in
 5475              		.file 25 "d:\\devkitpro\\devkitppc\\bin\\../lib/gcc/powerpc-eabi/4.6.3/../../../../powerpc-eabi/in
 5476              		.file 26 "d:\\devkitpro\\devkitppc\\bin\\../lib/gcc/powerpc-eabi/4.6.3/../../../../powerpc-eabi/in
 5477              		.file 27 "d:\\devkitpro\\devkitppc\\bin\\../lib/gcc/powerpc-eabi/4.6.3/../../../../powerpc-eabi/in
 5478              		.file 28 "d:\\devkitpro\\devkitppc\\bin\\../lib/gcc/powerpc-eabi/4.6.3/../../../../powerpc-eabi/in
 5479              		.file 29 "d:\\devkitpro\\devkitppc\\bin\\../lib/gcc/powerpc-eabi/4.6.3/../../../../powerpc-eabi/in
 5480              		.file 30 "d:\\devkitpro\\devkitppc\\bin\\../lib/gcc/powerpc-eabi/4.6.3/../../../../powerpc-eabi/in
 5481              		.file 31 "d:\\devkitpro\\devkitppc\\bin\\../lib/gcc/powerpc-eabi/4.6.3/../../../../powerpc-eabi/in
 5482              		.file 32 "d:\\devkitpro\\devkitppc\\bin\\../lib/gcc/powerpc-eabi/4.6.3/../../../../powerpc-eabi/in
 5483              		.file 33 "d:\\devkitpro\\devkitppc\\bin\\../lib/gcc/powerpc-eabi/4.6.3/../../../../powerpc-eabi/in
 5484              		.file 34 "d:\\devkitpro\\devkitppc\\bin\\../lib/gcc/powerpc-eabi/4.6.3/../../../../powerpc-eabi/in
 5485              		.file 35 "d:\\devkitpro\\devkitppc\\bin\\../lib/gcc/powerpc-eabi/4.6.3/../../../../powerpc-eabi/in
 5486              		.file 36 "d:\\devkitpro\\devkitppc\\bin\\../lib/gcc/powerpc-eabi/4.6.3/../../../../powerpc-eabi/in
 5487              		.file 37 "d:\\devkitpro\\devkitppc\\bin\\../lib/gcc/powerpc-eabi/4.6.3/../../../../powerpc-eabi/in
 5488              		.file 38 "d:\\devkitpro\\devkitppc\\bin\\../lib/gcc/powerpc-eabi/4.6.3/../../../../powerpc-eabi/in
 5489              		.file 39 "d:\\devkitpro\\devkitppc\\bin\\../lib/gcc/powerpc-eabi/4.6.3/../../../../powerpc-eabi/in
 5490              		.file 40 "d:\\devkitpro\\devkitppc\\bin\\../lib/gcc/powerpc-eabi/4.6.3/../../../../powerpc-eabi/in
 5491              		.file 41 "d:/Projects/SaveGameManager/savegame-manager-gx/trunk/source/Tools/../Controls/../GUI/..
 5492              		.file 42 "d:\\devkitpro\\devkitppc\\bin\\../lib/gcc/powerpc-eabi/4.6.3/../../../../powerpc-eabi/in
 5493              		.file 43 "d:/Projects/SaveGameManager/savegame-manager-gx/trunk/source/Tools/../Controls/../GUI/gu
 5494              		.file 44 "d:\\devkitpro\\devkitppc\\bin\\../lib/gcc/powerpc-eabi/4.6.3/../../../../powerpc-eabi/in
 5495              		.file 45 "d:\\devkitpro\\devkitppc\\bin\\../lib/gcc/powerpc-eabi/4.6.3/../../../../powerpc-eabi/in
 5496              		.file 46 "d:\\devkitpro\\devkitppc\\bin\\../lib/gcc/powerpc-eabi/4.6.3/../../../../powerpc-eabi/in