	.file	"TplImage.cpp"
	.section	".text"
.Ltext0:
	.align 2
	.globl _ZN8TplImageD2Ev
	.type	_ZN8TplImageD2Ev, @function
_ZN8TplImageD2Ev:
.LFB849:
	.file 1 "d:/Projects/SaveGameManager/savegame-manager-gx/trunk/source/ImageOperations/TplImage.cpp"
	.loc 1 62 0
	.cfi_startproc
.LVL0:
	mflr 0
	stwu 1,-16(1)
.LCFI0:
	.cfi_def_cfa_offset 16
	.cfi_register 65, 0
	stw 31,12(1)
	mr 31,3
	.cfi_offset 31, -4
	stw 0,20(1)
.LBB1655:
	.loc 1 64 0
	lwz 3,0(3)
.LVL1:
	cmpwi 7,3,0
	beq- 7,.L2
	.cfi_offset 65, 4
	.loc 1 65 0
	bl free
.L2:
.LVL2:
.LBB1656:
.LBB1657:
	.file 2 "d:\\devkitpro\\devkitppc\\bin\\../lib/gcc/powerpc-eabi/4.6.3/../../../../powerpc-eabi/include/c++/4.6.3/bits/stl_vector.h"
	.loc 2 1040 0
	lwz 3,36(31)
.LBE1657:
.LBE1656:
.LBB1661:
.LBB1662:
.LBB1663:
.LBB1664:
	.loc 2 1256 0
	lwz 9,12(31)
.LBE1664:
.LBE1663:
.LBE1662:
.LBE1661:
.LBB1668:
.LBB1669:
.LBB1670:
.LBB1671:
.LBB1672:
.LBB1673:
	.loc 2 155 0
	cmpwi 7,3,0
.LBE1673:
.LBE1672:
.LBE1671:
.LBE1670:
.LBE1669:
.LBE1668:
.LBB1681:
.LBB1682:
	.loc 2 1040 0
	lwz 0,24(31)
.LBE1682:
.LBE1681:
.LBB1686:
.LBB1667:
.LBB1666:
.LBB1665:
	.loc 2 1256 0
	stw 9,16(31)
.LVL3:
.LBE1665:
.LBE1666:
.LBE1667:
.LBE1686:
.LBB1687:
.LBB1685:
.LBB1683:
.LBB1684:
	stw 0,28(31)
.LVL4:
.LBE1684:
.LBE1683:
.LBE1685:
.LBE1687:
.LBB1688:
.LBB1660:
.LBB1658:
.LBB1659:
	stw 3,40(31)
.LVL5:
.LBE1659:
.LBE1658:
.LBE1660:
.LBE1688:
.LBB1689:
.LBB1680:
.LBB1679:
.LBB1678:
.LBB1677:
.LBB1676:
	.loc 2 155 0
	beq- 7,.L7
.LVL6:
.LBB1674:
.LBB1675:
	.file 3 "d:\\devkitpro\\devkitppc\\bin\\../lib/gcc/powerpc-eabi/4.6.3/../../../../powerpc-eabi/include/c++/4.6.3/ext/new_allocator.h"
	.loc 3 98 0
	bl _ZdlPv
.LVL7:
	lwz 0,24(31)
.L7:
.LVL8:
.LBE1675:
.LBE1674:
.LBE1676:
.LBE1677:
.LBE1678:
.LBE1679:
.LBE1680:
.LBE1689:
.LBB1690:
.LBB1691:
.LBB1692:
.LBB1693:
.LBB1694:
.LBB1695:
	.loc 2 155 0
	cmpwi 7,0,0
	beq- 7,.L12
.LVL9:
.LBB1696:
.LBB1697:
	.loc 3 98 0
	mr 3,0
	bl _ZdlPv
.LVL10:
.L12:
.LBE1697:
.LBE1696:
.LBE1695:
.LBE1694:
.LBE1693:
.LBE1692:
.LBE1691:
.LBE1690:
.LBB1698:
	.loc 1 244 0
	lwz 3,12(31)
.LVL11:
.LBB1699:
.LBB1700:
.LBB1701:
.LBB1702:
.LBB1703:
	.loc 2 155 0
	cmpwi 7,3,0
	beq- 7,.L1
.LVL12:
.LBB1704:
.LBB1705:
	.loc 3 98 0
	bl _ZdlPv
.LVL13:
.L1:
.LBE1705:
.LBE1704:
.LBE1703:
.LBE1702:
.LBE1701:
.LBE1700:
.LBE1699:
.LBE1698:
.LBE1655:
	.loc 1 70 0
	lwz 0,20(1)
	lwz 31,12(1)
.LVL14:
	mtlr 0
	addi 1,1,16
.LCFI1:
	.cfi_def_cfa_offset 0
	.cfi_restore 31
	blr
	.cfi_endproc
.LFE849:
	.size	_ZN8TplImageD2Ev, .-_ZN8TplImageD2Ev
	.align 2
	.globl _ZN8TplImage8GetWidthEi
	.type	_ZN8TplImage8GetWidthEi, @function
_ZN8TplImage8GetWidthEi:
.LFB853:
	.loc 1 129 0
	.cfi_startproc
.LVL15:
	.loc 1 130 0
	cmpwi 0,4,0
	.loc 1 129 0
	mr 9,3
	.loc 1 132 0
	li 3,0
.LVL16:
	.loc 1 130 0
	bltlr- 0
.LBB1706:
.LBB1707:
	.loc 2 571 0 discriminator 2
	lwz 11,16(9)
	lwz 0,12(9)
	subf 0,0,11
	srawi 0,0,2
.LBE1707:
.LBE1706:
	.loc 1 130 0 discriminator 2
	cmpw 7,4,0
	blt- 7,.L22
	.loc 1 136 0
	blr
.L22:
.LVL17:
	.loc 1 135 0
	lwz 9,24(9)
.LVL18:
	slwi 4,4,2
.LVL19:
	lwzx 9,9,4
	lhz 3,2(9)
	blr
	.cfi_endproc
.LFE853:
	.size	_ZN8TplImage8GetWidthEi, .-_ZN8TplImage8GetWidthEi
	.align 2
	.globl _ZN8TplImage9GetHeightEi
	.type	_ZN8TplImage9GetHeightEi, @function
_ZN8TplImage9GetHeightEi:
.LFB854:
	.loc 1 139 0
	.cfi_startproc
.LVL20:
	.loc 1 140 0
	cmpwi 0,4,0
	.loc 1 139 0
	mr 9,3
	.loc 1 142 0
	li 3,0
.LVL21:
	.loc 1 140 0
	bltlr- 0
	.loc 1 244 0 discriminator 2
	lwz 11,24(9)
.LBB1708:
.LBB1709:
	.loc 2 571 0 discriminator 2
	lwz 0,28(9)
	subf 0,11,0
	srawi 0,0,2
.LBE1709:
.LBE1708:
	.loc 1 140 0 discriminator 2
	cmpw 7,4,0
	blt- 7,.L26
	.loc 1 146 0
	blr
.L26:
.LVL22:
	.loc 1 145 0
	slwi 4,4,2
.LVL23:
	lwzx 9,11,4
.LVL24:
	lhz 3,0(9)
	blr
	.cfi_endproc
.LFE854:
	.size	_ZN8TplImage9GetHeightEi, .-_ZN8TplImage9GetHeightEi
	.align 2
	.globl _ZN8TplImage9GetFormatEi
	.type	_ZN8TplImage9GetFormatEi, @function
_ZN8TplImage9GetFormatEi:
.LFB855:
	.loc 1 149 0
	.cfi_startproc
.LVL25:
	.loc 1 150 0
	cmpwi 0,4,0
	.loc 1 149 0
	mr 9,3
	.loc 1 152 0
	li 3,0
.LVL26:
	.loc 1 150 0
	bltlr- 0
	.loc 1 244 0 discriminator 2
	lwz 11,24(9)
.LBB1710:
.LBB1711:
	.loc 2 571 0 discriminator 2
	lwz 0,28(9)
	subf 0,11,0
	srawi 0,0,2
.LBE1711:
.LBE1710:
	.loc 1 150 0 discriminator 2
	cmpw 7,4,0
	blt- 7,.L30
	.loc 1 156 0
	blr
.L30:
.LVL27:
	.loc 1 155 0
	slwi 4,4,2
.LVL28:
	lwzx 9,11,4
.LVL29:
	lwz 3,4(9)
	blr
	.cfi_endproc
.LFE855:
	.size	_ZN8TplImage9GetFormatEi, .-_ZN8TplImage9GetFormatEi
	.align 2
	.globl _ZN8TplImage16GetTextureBufferEi
	.type	_ZN8TplImage16GetTextureBufferEi, @function
_ZN8TplImage16GetTextureBufferEi:
.LFB856:
	.loc 1 159 0
	.cfi_startproc
.LVL30:
	.loc 1 160 0
	cmpwi 0,4,0
	.loc 1 159 0
	mr 9,3
	.loc 1 162 0
	li 3,0
.LVL31:
	.loc 1 160 0
	bltlr- 0
	.loc 1 244 0 discriminator 2
	lwz 11,36(9)
.LBB1712:
.LBB1713:
	.loc 2 571 0 discriminator 2
	lwz 0,40(9)
	subf 0,11,0
	srawi 0,0,2
.LBE1713:
.LBE1712:
	.loc 1 160 0 discriminator 2
	cmpw 7,4,0
	blt- 7,.L34
	.loc 1 166 0
	blr
.L34:
.LVL32:
	.loc 1 165 0
	slwi 4,4,2
.LVL33:
	lwzx 3,11,4
	blr
	.cfi_endproc
.LFE856:
	.size	_ZN8TplImage16GetTextureBufferEi, .-_ZN8TplImage16GetTextureBufferEi
	.align 2
	.globl _ZN8TplImage14GetTextureSizeEi
	.type	_ZN8TplImage14GetTextureSizeEi, @function
_ZN8TplImage14GetTextureSizeEi:
.LFB857:
	.loc 1 169 0
	.cfi_startproc
.LVL34:
.LBB1714:
.LBB1715:
.LBB1716:
	.loc 1 130 0
	cmpwi 0,4,0
.LBE1716:
.LBE1715:
.LBE1714:
	.loc 1 169 0
	mr 9,3
.LVL35:
.LBB1751:
.LBB1725:
.LBB1721:
	.loc 1 130 0
	li 3,0
.LVL36:
	bltlr- 0
.LBB1717:
.LBB1718:
	.loc 2 571 0
	lwz 11,16(9)
	lwz 0,12(9)
	subf 0,0,11
.LBE1718:
.LBE1717:
	.loc 1 130 0
	lwz 11,24(9)
.LBB1720:
.LBB1719:
	.loc 2 571 0
	srawi 0,0,2
.LBE1719:
.LBE1720:
	.loc 1 130 0
	cmpw 7,4,0
	bge- 7,.L51
.LVL37:
	.loc 1 135 0
	slwi 0,4,2
.LBE1721:
.LBE1725:
.LBB1726:
.LBB1727:
	.loc 1 140 0
	li 3,0
.LBE1727:
.LBE1726:
.LBB1742:
.LBB1722:
	.loc 1 135 0
	lwzx 10,11,0
.LBE1722:
.LBE1742:
.LBB1743:
.LBB1736:
.LBB1728:
.LBB1729:
	.loc 2 571 0
	lwz 0,28(9)
.LBE1729:
.LBE1728:
.LBE1736:
.LBE1743:
.LBB1744:
.LBB1723:
	.loc 1 135 0
	lhz 10,2(10)
.LVL38:
.LBE1723:
.LBE1744:
.LBB1745:
.LBB1737:
.LBB1733:
.LBB1730:
	.loc 2 571 0
	subf 0,11,0
	srawi 0,0,2
.LBE1730:
.LBE1733:
	.loc 1 140 0
	cmpw 7,4,0
	bgelr- 7
.LVL39:
.L53:
	.loc 1 145 0
	slwi 4,4,2
.LVL40:
	lwzx 9,11,4
.LVL41:
.LBE1737:
.LBE1745:
	.loc 1 174 0
	lwz 0,4(9)
.LBB1746:
.LBB1738:
	.loc 1 145 0
	lhz 9,0(9)
.LVL42:
.LBE1738:
.LBE1746:
	.loc 1 174 0
	cmplwi 7,0,14
	ble- 7,.L52
.L45:
	.loc 1 196 0
	addi 3,10,3
	addi 9,9,3
.LVL43:
	srawi 9,9,2
.LVL44:
	srawi 3,3,2
	mullw 3,3,9
	slwi 3,3,6
.LVL45:
.LBE1751:
	.loc 1 201 0
	blr
.LVL46:
.L51:
.LBB1752:
.LBB1747:
.LBB1739:
.LBB1734:
.LBB1731:
	.loc 2 571 0
	lwz 0,28(9)
.LBE1731:
.LBE1734:
.LBE1739:
.LBE1747:
.LBB1748:
.LBB1724:
	.loc 1 132 0
	li 10,0
.LVL47:
.LBE1724:
.LBE1748:
.LBB1749:
.LBB1740:
	.loc 1 140 0
	li 3,0
.LBB1735:
.LBB1732:
	.loc 2 571 0
	subf 0,11,0
	srawi 0,0,2
.LBE1732:
.LBE1735:
	.loc 1 140 0
	cmpw 7,4,0
	bgelr- 7
	b .L53
.LVL48:
.L52:
.LBE1740:
.LBE1749:
	.loc 1 174 0
	lis 11,.L47@ha
	slwi 0,0,2
	la 11,.L47@l(11)
	lwzx 0,11,0
	add 11,0,11
	mtctr 11
	bctr
	.section	.rodata
	.align 2
	.align 2
.L47:
	.long .L40-.L47
	.long .L42-.L47
	.long .L42-.L47
	.long .L43-.L47
	.long .L43-.L47
	.long .L43-.L47
	.long .L44-.L47
	.long .L45-.L47
	.long .L40-.L47
	.long .L42-.L47
	.long .L43-.L47
	.long .L45-.L47
	.long .L45-.L47
	.long .L45-.L47
	.long .L40-.L47
	.section	".text"
.L44:
	.loc 1 193 0
	addi 3,10,3
	addi 9,9,3
.LVL49:
	srawi 3,3,2
	srawi 9,9,2
.LVL50:
	mullw 3,3,9
	slwi 3,3,6
.LVL51:
	.loc 1 194 0
	blr
.LVL52:
.L43:
	.loc 1 190 0
	addi 3,10,3
	addi 9,9,3
.LVL53:
	srawi 3,3,2
	srawi 9,9,2
.LVL54:
	mullw 3,3,9
	slwi 3,3,5
.LVL55:
	.loc 1 191 0
	blr
.LVL56:
.L42:
	.loc 1 184 0
	addi 3,10,7
	addi 9,9,7
.LVL57:
	srawi 3,3,3
	srawi 9,9,2
.LVL58:
	mullw 3,3,9
	slwi 3,3,5
.LVL59:
	.loc 1 185 0
	blr
.LVL60:
.L40:
.LBB1750:
.LBB1741:
	.loc 1 140 0
	addi 10,10,7
.LVL61:
	addi 0,9,7
	srawi 3,10,3
	srawi 0,0,3
	mullw 3,3,0
	slwi 3,3,5
	blr
.LBE1741:
.LBE1750:
.LBE1752:
	.cfi_endproc
.LFE857:
	.size	_ZN8TplImage14GetTextureSizeEi, .-_ZN8TplImage14GetTextureSizeEi
	.align 2
	.globl _ZN8TplImage11ConvertToGDEi
	.type	_ZN8TplImage11ConvertToGDEi, @function
_ZN8TplImage11ConvertToGDEi:
.LFB858:
	.loc 1 204 0
	.cfi_startproc
.LVL62:
.LBB1753:
	.loc 1 205 0
	cmpwi 0,4,0
.LBE1753:
	.loc 1 204 0
	mflr 0
	stwu 1,-24(1)
.LCFI2:
	.cfi_def_cfa_offset 24
	.cfi_register 65, 0
	stw 0,28(1)
.LBB1758:
	.loc 1 207 0
	li 0,0
	.cfi_offset 65, 4
	.loc 1 205 0
	blt- 0,.L55
.LBB1754:
.LBB1755:
	.loc 2 571 0 discriminator 2
	lwz 11,16(3)
	lwz 9,12(3)
	subf 9,9,11
	srawi 9,9,2
.LBE1755:
.LBE1754:
	.loc 1 205 0 discriminator 2
	cmpw 7,4,9
	blt- 7,.L71
.LVL63:
.L55:
.LBE1758:
	.loc 1 244 0
	mr 3,0
.LVL64:
	lwz 0,28(1)
	addi 1,1,24
	.cfi_remember_state
.LCFI3:
	.cfi_def_cfa_offset 0
	mtlr 0
	blr
.LVL65:
.L71:
.LCFI4:
	.cfi_restore_state
.LBB1759:
	.loc 1 210 0
	stw 0,8(1)
.LVL66:
.LBB1756:
.LBB1757:
	.loc 2 696 0
	slwi 0,4,2
.LBE1757:
.LBE1756:
	.loc 1 212 0
	lwz 9,24(3)
	lwzx 9,9,0
	lwz 11,4(9)
	cmplwi 7,11,14
	ble- 7,.L72
.L69:
	li 0,0
	.loc 1 243 0
	b .L55
.L72:
	.loc 1 212 0
	lis 10,.L66@ha
	slwi 11,11,2
	la 10,.L66@l(10)
	lwzx 11,10,11
	add 10,11,10
	mtctr 10
	bctr
	.section	.rodata
	.align 2
	.align 2
.L66:
	.long .L61-.L66
	.long .L62-.L66
	.long .L63-.L66
	.long .L64-.L66
	.long .L57-.L66
	.long .L59-.L66
	.long .L60-.L66
	.long .L69-.L66
	.long .L69-.L66
	.long .L69-.L66
	.long .L69-.L66
	.long .L69-.L66
	.long .L69-.L66
	.long .L69-.L66
	.long .L65-.L66
	.section	".text"
.L65:
	.loc 1 236 0
	lwz 11,36(3)
	addi 6,1,8
	lhz 4,2(9)
.LVL67:
	lwzx 3,11,0
.LVL68:
	lhz 5,0(9)
	bl CMPToGD
	lwz 0,8(1)
.LBE1759:
	.loc 1 244 0
	mr 3,0
	lwz 0,28(1)
	addi 1,1,24
	.cfi_remember_state
.LCFI5:
	.cfi_def_cfa_offset 0
	mtlr 0
	blr
.LVL69:
.L60:
.LCFI6:
	.cfi_restore_state
.LBB1760:
	.loc 1 221 0
	lwz 11,36(3)
	addi 6,1,8
	lhz 4,2(9)
.LVL70:
	lwzx 3,11,0
.LVL71:
	lhz 5,0(9)
	bl RGBA8ToGD
	lwz 0,8(1)
.LBE1760:
	.loc 1 244 0
	mr 3,0
	lwz 0,28(1)
	addi 1,1,24
	.cfi_remember_state
.LCFI7:
	.cfi_def_cfa_offset 0
	mtlr 0
	blr
.LVL72:
.L59:
.LCFI8:
	.cfi_restore_state
.LBB1761:
	.loc 1 218 0
	lwz 11,36(3)
	addi 6,1,8
	lhz 4,2(9)
.LVL73:
	lwzx 3,11,0
.LVL74:
	lhz 5,0(9)
	bl RGB565A3ToGD
	lwz 0,8(1)
.LBE1761:
	.loc 1 244 0
	mr 3,0
	lwz 0,28(1)
	addi 1,1,24
	.cfi_remember_state
.LCFI9:
	.cfi_def_cfa_offset 0
	mtlr 0
	blr
.LVL75:
.L57:
.LCFI10:
	.cfi_restore_state
.LBB1762:
	.loc 1 215 0
	lwz 11,36(3)
	addi 6,1,8
	lhz 4,2(9)
.LVL76:
	lwzx 3,11,0
.LVL77:
	lhz 5,0(9)
	bl RGB565ToGD
	lwz 0,8(1)
.LBE1762:
	.loc 1 244 0
	mr 3,0
	lwz 0,28(1)
	addi 1,1,24
	.cfi_remember_state
.LCFI11:
	.cfi_def_cfa_offset 0
	mtlr 0
	blr
.LVL78:
.L64:
.LCFI12:
	.cfi_restore_state
.LBB1763:
	.loc 1 233 0
	lwz 11,36(3)
	addi 6,1,8
	lhz 4,2(9)
.LVL79:
	lwzx 3,11,0
.LVL80:
	lhz 5,0(9)
	bl IA8ToGD
	lwz 0,8(1)
.LBE1763:
	.loc 1 244 0
	mr 3,0
	lwz 0,28(1)
	addi 1,1,24
	.cfi_remember_state
.LCFI13:
	.cfi_def_cfa_offset 0
	mtlr 0
	blr
.LVL81:
.L63:
.LCFI14:
	.cfi_restore_state
.LBB1764:
	.loc 1 230 0
	lwz 11,36(3)
	addi 6,1,8
	lhz 4,2(9)
.LVL82:
	lwzx 3,11,0
.LVL83:
	lhz 5,0(9)
	bl IA4ToGD
	lwz 0,8(1)
.LBE1764:
	.loc 1 244 0
	mr 3,0
	lwz 0,28(1)
	addi 1,1,24
	.cfi_remember_state
.LCFI15:
	.cfi_def_cfa_offset 0
	mtlr 0
	blr
.LVL84:
.L62:
.LCFI16:
	.cfi_restore_state
.LBB1765:
	.loc 1 227 0
	lwz 11,36(3)
	addi 6,1,8
	lhz 4,2(9)
.LVL85:
	lwzx 3,11,0
.LVL86:
	lhz 5,0(9)
	bl I8ToGD
	lwz 0,8(1)
.LBE1765:
	.loc 1 244 0
	mr 3,0
	lwz 0,28(1)
	addi 1,1,24
	.cfi_remember_state
.LCFI17:
	.cfi_def_cfa_offset 0
	mtlr 0
	blr
.LVL87:
.L61:
.LCFI18:
	.cfi_restore_state
.LBB1766:
	.loc 1 224 0
	lwz 11,36(3)
	addi 6,1,8
	lhz 4,2(9)
.LVL88:
	lwzx 3,11,0
.LVL89:
	lhz 5,0(9)
	bl I4ToGD
	lwz 0,8(1)
.LBE1766:
	.loc 1 244 0
	mr 3,0
	lwz 0,28(1)
	addi 1,1,24
.LCFI19:
	.cfi_def_cfa_offset 0
	mtlr 0
	blr
	.cfi_endproc
.LFE858:
	.size	_ZN8TplImage11ConvertToGDEi, .-_ZN8TplImage11ConvertToGDEi
	.section	.text._ZNSt6vectorIPK11TPL_TextureSaIS2_EE14_M_fill_insertEN9__gnu_cxx17__normal_iteratorIPS2_S4_EEjRKS2_,"axG",@progbits,_ZNSt6vectorIPK11TPL_TextureSaIS2_EE14_M_fill_insertEN9__gnu_cxx17__normal_iteratorIPS2_S4_EEjRKS2_,comdat
	.align 2
	.weak	_ZNSt6vectorIPK11TPL_TextureSaIS2_EE14_M_fill_insertEN9__gnu_cxx17__normal_iteratorIPS2_S4_EEjRKS2_
	.type	_ZNSt6vectorIPK11TPL_TextureSaIS2_EE14_M_fill_insertEN9__gnu_cxx17__normal_iteratorIPS2_S4_EEjRKS2_, @function
_ZNSt6vectorIPK11TPL_TextureSaIS2_EE14_M_fill_insertEN9__gnu_cxx17__normal_iteratorIPS2_S4_EEjRKS2_:
.LFB988:
	.file 4 "d:\\devkitpro\\devkitppc\\bin\\../lib/gcc/powerpc-eabi/4.6.3/../../../../powerpc-eabi/include/c++/4.6.3/bits/vector.tcc"
	.loc 4 377 0
	.cfi_startproc
.LVL90:
	stwu 1,-40(1)
.LCFI20:
	.cfi_def_cfa_offset 40
	mflr 0
	stw 30,32(1)
.LBB1873:
	.loc 4 380 0
	mr. 30,5
	.cfi_offset 30, -8
	.cfi_register 65, 0
.LBE1873:
	.loc 4 377 0
	stw 0,44(1)
	stw 29,28(1)
	stw 31,36(1)
	mr 31,3
	.cfi_offset 31, -4
	.cfi_offset 29, -12
	.cfi_offset 65, 4
	stw 26,16(1)
	stw 27,20(1)
	stw 28,24(1)
	.loc 4 377 0
	lwz 29,0(4)
.LBB2170:
	.loc 4 380 0
	beq- 0,.L73
	.cfi_offset 28, -16
	.cfi_offset 27, -20
	.cfi_offset 26, -24
.LBB1874:
	.loc 4 382 0
	lwz 27,4(3)
	lwz 0,8(3)
	subf 0,27,0
	srawi 0,0,2
	cmplw 7,30,0
	bgt- 7,.L75
.LBB1875:
.LBB1876:
.LBB1877:
	.file 5 "d:\\devkitpro\\devkitppc\\bin\\../lib/gcc/powerpc-eabi/4.6.3/../../../../powerpc-eabi/include/c++/4.6.3/bits/stl_iterator.h"
	.loc 5 892 0
	subf 0,29,27
.LBE1877:
.LBE1876:
	.loc 4 385 0
	lwz 28,0(6)
.LVL91:
.LBB1879:
.LBB1878:
	.loc 5 892 0
	srawi 0,0,2
.LVL92:
.LBE1878:
.LBE1879:
	.loc 4 388 0
	cmplw 7,30,0
	blt- 7,.L103
.LVL93:
.LBB1880:
.LBB1881:
.LBB1882:
.LBB1883:
.LBB1884:
.LBB1885:
.LBB1886:
.LBB1887:
	.file 6 "d:\\devkitpro\\devkitppc\\bin\\../lib/gcc/powerpc-eabi/4.6.3/../../../../powerpc-eabi/include/c++/4.6.3/bits/stl_algobase.h"
	.loc 6 743 0
	subf. 30,0,30
	.loc 4 382 0
	mr 9,27
	.loc 6 743 0
	beq- 0,.L80
.LBE1887:
.LBE1886:
.LBE1885:
.LBE1884:
.LBE1883:
.LBE1882:
.LBE1881:
.LBE1880:
.LBB1895:
.LBB1896:
.LBB1897:
.LBB1898:
.LBB1899:
.LBB1900:
.LBB1901:
.LBB1902:
.LBB1903:
.LBB1904:
.LBB1905:
	.loc 4 377 0
	mtctr 30
.LBE1905:
.LBE1904:
.LBE1903:
.LBE1902:
.LBE1901:
.LBE1900:
.LBE1899:
.LBE1898:
.LBE1897:
.LBE1896:
.LBE1895:
.LBB1916:
.LBB1894:
.LBB1893:
.LBB1892:
.LBB1891:
.LBB1890:
.LBB1889:
.LBB1888:
	addi 9,27,-4
.LVL94:
.L81:
	.loc 6 745 0
	stwu 28,4(9)
	.loc 6 743 0
	bdnz .L81
	lwz 9,4(31)
.L80:
.LBE1888:
.LBE1889:
.LBE1890:
.LBE1891:
.LBE1892:
.LBE1893:
.LBE1894:
.LBE1916:
.LBB1917:
.LBB1918:
.LBB1919:
.LBB1920:
.LBB1921:
.LBB1922:
.LBB1923:
.LBB1924:
.LBB1925:
.LBB1926:
.LBB1927:
	.loc 6 365 0
	cmpwi 7,0,0
.LBE1927:
.LBE1926:
.LBE1925:
.LBE1924:
.LBE1923:
.LBE1922:
.LBE1921:
.LBE1920:
.LBE1919:
.LBE1918:
.LBE1917:
	.loc 4 406 0
	slwi 30,30,2
	add 3,9,30
.LVL95:
	stw 3,4(31)
.LVL96:
.LBB1948:
.LBB1946:
.LBB1944:
.LBB1942:
.LBB1940:
.LBB1938:
.LBB1936:
.LBB1934:
.LBB1932:
.LBB1930:
.LBB1928:
	.loc 6 365 0
	bne- 7,.L82
	li 30,0
.LVL97:
.L83:
.LBE1928:
.LBE1930:
.LBE1932:
.LBE1934:
.LBE1936:
.LBE1938:
.LBE1940:
.LBE1942:
.LBE1944:
.LBE1946:
.LBE1948:
.LBB1949:
.LBB1950:
.LBB1951:
	.loc 6 686 0
	cmpw 7,27,29
.LBE1951:
.LBE1950:
.LBE1949:
	.loc 4 410 0
	add 3,3,30
	stw 3,4(31)
.LVL98:
.LBB1954:
.LBB1953:
.LBB1952:
	.loc 6 686 0
	beq- 7,.L73
.LVL99:
.L84:
	.loc 6 687 0
	stw 28,0(29)
	addi 29,29,4
	.loc 6 686 0
	cmpw 7,27,29
	bne+ 7,.L84
.LVL100:
.L73:
.LBE1952:
.LBE1953:
.LBE1954:
.LBE1875:
.LBE1874:
.LBE2170:
	.loc 4 464 0
	lwz 0,44(1)
	lwz 26,16(1)
	mtlr 0
	lwz 27,20(1)
	lwz 28,24(1)
	lwz 29,28(1)
	lwz 30,32(1)
	lwz 31,36(1)
.LVL101:
	addi 1,1,40
	.cfi_remember_state
.LCFI21:
	.cfi_def_cfa_offset 0
	.cfi_restore 31
	.cfi_restore 30
	.cfi_restore 29
	.cfi_restore 28
	.cfi_restore 27
	.cfi_restore 26
	blr
.LVL102:
.L75:
.LCFI22:
	.cfi_restore_state
.LBB2171:
.LBB2166:
.LBB1984:
.LBB1985:
.LBB1986:
.LBB1987:
.LBB1988:
	.loc 2 571 0
	lwz 9,0(3)
.LBE1988:
.LBE1987:
	.loc 2 1241 0
	lis 11,0x3fff
	ori 11,11,65535
.LBB1990:
.LBB1989:
	.loc 2 571 0
	subf 27,9,27
	srawi 0,27,2
.LBE1989:
.LBE1990:
	.loc 2 1241 0
	subf 11,0,11
	cmplw 7,30,11
	bgt- 7,.L104
.LVL103:
	.loc 2 1244 0
	cmplw 7,0,30
	mr 11,0
	blt- 7,.L105
	add 11,11,0
.LVL104:
	.loc 2 1245 0
	cmplw 7,0,11
	ble- 7,.L106
.L87:
.LVL105:
.LBE1986:
.LBE1985:
.LBB1993:
.LBB1994:
	.loc 5 892 0
	subf 27,9,29
.LBE1994:
.LBE1993:
	.loc 4 418 0
	li 26,-4
.LBB1997:
.LBB1995:
	.loc 5 892 0
	srawi 27,27,2
.LVL106:
.L93:
.LBE1995:
.LBE1997:
.LBB1998:
.LBB1999:
.LBB2000:
.LBB2001:
	.loc 3 92 0
	mr 3,26
.LVL107:
	stw 6,8(1)
	bl _Znwj
.LVL108:
	lwz 6,8(1)
	mr 28,3
.L88:
.LVL109:
.LBE2001:
.LBE2000:
.LBE1999:
.LBE1998:
	.loc 4 424 0
	slwi 27,27,2
.LVL110:
.LBB2010:
.LBB2006:
.LBB2004:
.LBB2002:
	.loc 1 244 0
	lwz 0,0(6)
.LVL111:
.LBE2002:
.LBE2004:
.LBE2006:
.LBE2010:
	.loc 4 424 0
	add 27,28,27
.LBB2011:
.LBB2007:
	.loc 4 377 0
	mtctr 30
.LBB2005:
.LBB2003:
	addi 27,27,-4
.LVL112:
.L89:
.LBE2003:
.LBE2005:
.LBE2007:
.LBE2011:
.LBB2012:
.LBB2013:
.LBB2014:
.LBB2015:
.LBB2016:
.LBB2017:
.LBB2018:
.LBB2019:
	.loc 6 745 0
	stwu 0,4(27)
	.loc 6 743 0
	bdnz .L89
.LVL113:
.LBE2019:
.LBE2018:
.LBE2017:
.LBE2016:
.LBE2015:
.LBE2014:
.LBE2013:
.LBE2012:
	.loc 4 429 0
	lwz 4,0(31)
.LVL114:
.LBB2020:
.LBB2021:
.LBB2022:
.LBB2023:
.LBB2024:
.LBB2025:
.LBB2026:
.LBB2027:
.LBB2028:
.LBB2029:
.LBB2030:
	.loc 6 365 0
	li 27,0
	.loc 6 364 0
	subf 0,4,29
.LVL115:
	.loc 6 365 0
	srawi. 0,0,2
.LVL116:
	bne- 0,.L107
.LBE2030:
.LBE2029:
.LBE2028:
.LBE2027:
.LBE2026:
.LBE2025:
.LBE2024:
.LBE2023:
.LBE2022:
.LBE2021:
.LBE2020:
.LBB2071:
.LBB2072:
.LBB2073:
.LBB2074:
.LBB2075:
.LBB2076:
.LBB2077:
.LBB2078:
.LBB2079:
.LBB2080:
.LBB2081:
	.loc 6 364 0
	lwz 0,4(31)
.LVL117:
.LBE2081:
.LBE2080:
.LBE2079:
.LBE2078:
.LBE2077:
.LBE2076:
.LBE2075:
.LBE2074:
.LBE2073:
.LBE2072:
.LBE2071:
.LBB2142:
.LBB2067:
.LBB2063:
.LBB2059:
.LBB2055:
.LBB2051:
.LBB2047:
.LBB2043:
.LBB2039:
.LBB2035:
.LBB2031:
	.loc 6 367 0
	add 27,28,27
.LVL118:
.LBE2031:
.LBE2035:
.LBE2039:
.LBE2043:
.LBE2047:
.LBE2051:
.LBE2055:
.LBE2059:
.LBE2063:
.LBE2067:
.LBE2142:
	.loc 4 434 0
	slwi 30,30,2
.LVL119:
.LBB2143:
.LBB2136:
.LBB2130:
.LBB2124:
.LBB2118:
.LBB2112:
.LBB2106:
.LBB2100:
.LBB2094:
.LBB2088:
.LBB2082:
	.loc 6 364 0
	subf 0,29,0
.LBE2082:
.LBE2088:
.LBE2094:
.LBE2100:
.LBE2106:
.LBE2112:
.LBE2118:
.LBE2124:
.LBE2130:
.LBE2136:
.LBE2143:
	.loc 4 434 0
	add 30,27,30
.LVL120:
.LBB2144:
.LBB2137:
.LBB2131:
.LBB2125:
.LBB2119:
.LBB2113:
.LBB2107:
.LBB2101:
.LBB2095:
.LBB2089:
.LBB2083:
	.loc 6 365 0
	srawi. 0,0,2
.LVL121:
	li 27,0
	bne- 0,.L108
.LVL122:
.L91:
.LBE2083:
.LBE2089:
.LBE2095:
.LBE2101:
.LBE2107:
.LBE2113:
.LBE2119:
.LBE2125:
.LBE2131:
.LBE2137:
.LBE2144:
	.loc 4 456 0
	lwz 3,0(31)
.LBB2145:
.LBB2138:
.LBB2132:
.LBB2126:
.LBB2120:
.LBB2114:
.LBB2108:
.LBB2102:
.LBB2096:
.LBB2090:
.LBB2084:
	.loc 6 367 0
	add 27,30,27
.LVL123:
.LBE2084:
.LBE2090:
.LBE2096:
.LBE2102:
.LBE2108:
.LBE2114:
.LBE2120:
.LBE2126:
.LBE2132:
.LBE2138:
.LBE2145:
.LBB2146:
.LBB2147:
	.loc 2 155 0
	cmpwi 7,3,0
	beq- 7,.L92
.LVL124:
.LBB2148:
.LBB2149:
	.loc 3 98 0
	bl _ZdlPv
.LVL125:
.L92:
.LBE2149:
.LBE2148:
.LBE2147:
.LBE2146:
.LBE1984:
.LBE2166:
.LBE2171:
	.loc 4 464 0
	lwz 0,44(1)
.LBB2172:
.LBB2167:
.LBB2161:
	.loc 4 461 0
	add 26,28,26
	.loc 4 459 0
	stw 28,0(31)
.LBE2161:
.LBE2167:
.LBE2172:
	.loc 4 464 0
	mtlr 0
.LBB2173:
.LBB2168:
.LBB2162:
	.loc 4 460 0
	stw 27,4(31)
	.loc 4 461 0
	stw 26,8(31)
.LBE2162:
.LBE2168:
.LBE2173:
	.loc 4 464 0
	lwz 27,20(1)
	lwz 26,16(1)
	lwz 28,24(1)
.LVL126:
	lwz 29,28(1)
.LVL127:
	lwz 30,32(1)
.LVL128:
	lwz 31,36(1)
.LVL129:
	addi 1,1,40
	.cfi_remember_state
	.cfi_restore 26
	.cfi_restore 27
	.cfi_restore 28
	.cfi_restore 29
	.cfi_restore 30
	.cfi_restore 31
.LCFI23:
	.cfi_def_cfa_offset 0
	blr
.LVL130:
.L105:
.LCFI24:
	.cfi_restore_state
.LBB2174:
.LBB2169:
.LBB2163:
.LBB2150:
.LBB1991:
	.loc 2 1244 0
	mr 11,30
	add 11,11,0
.LVL131:
	.loc 2 1245 0
	cmplw 7,0,11
	bgt- 7,.L87
.L106:
.LVL132:
	lis 0,0x3fff
	ori 0,0,65535
	cmplw 7,11,0
	bgt- 7,.L87
.LVL133:
.LBE1991:
.LBE2150:
.LBB2151:
.LBB2008:
	.loc 2 150 0
	cmpwi 7,11,0
.LBE2008:
.LBE2151:
.LBB2152:
.LBB1996:
	.loc 5 892 0
	subf 9,9,29
	srawi 27,9,2
.LVL134:
.LBE1996:
.LBE2152:
.LBB2153:
.LBB2009:
	.loc 2 150 0
	li 26,0
	li 28,0
	beq+ 7,.L88
	slwi 26,11,2
	b .L93
.LVL135:
.L107:
.LBE2009:
.LBE2153:
.LBB2154:
.LBB2068:
.LBB2064:
.LBB2060:
.LBB2056:
.LBB2052:
.LBB2048:
.LBB2044:
.LBB2040:
.LBB2036:
.LBB2032:
	.loc 6 366 0
	slwi 27,0,2
	mr 3,28
	mr 5,27
.LBE2032:
.LBE2036:
.LBE2040:
.LBE2044:
.LBE2048:
.LBE2052:
.LBE2056:
.LBE2060:
.LBE2064:
.LBE2068:
.LBE2154:
	.loc 4 434 0
	slwi 30,30,2
.LVL136:
.LBB2155:
.LBB2069:
.LBB2065:
.LBB2061:
.LBB2057:
.LBB2053:
.LBB2049:
.LBB2045:
.LBB2041:
.LBB2037:
.LBB2033:
	.loc 6 366 0
	bl memmove
.LVL137:
.LBE2033:
.LBE2037:
.LBE2041:
.LBE2045:
.LBE2049:
.LBE2053:
.LBE2057:
.LBE2061:
.LBE2065:
.LBE2069:
.LBE2155:
.LBB2156:
.LBB2139:
.LBB2133:
.LBB2127:
.LBB2121:
.LBB2115:
.LBB2109:
.LBB2103:
.LBB2097:
.LBB2091:
.LBB2085:
	.loc 6 364 0
	lwz 0,4(31)
.LBE2085:
.LBE2091:
.LBE2097:
.LBE2103:
.LBE2109:
.LBE2115:
.LBE2121:
.LBE2127:
.LBE2133:
.LBE2139:
.LBE2156:
.LBB2157:
.LBB2070:
.LBB2066:
.LBB2062:
.LBB2058:
.LBB2054:
.LBB2050:
.LBB2046:
.LBB2042:
.LBB2038:
.LBB2034:
	.loc 6 367 0
	add 27,28,27
.LVL138:
.LBE2034:
.LBE2038:
.LBE2042:
.LBE2046:
.LBE2050:
.LBE2054:
.LBE2058:
.LBE2062:
.LBE2066:
.LBE2070:
.LBE2157:
.LBB2158:
.LBB2140:
.LBB2134:
.LBB2128:
.LBB2122:
.LBB2116:
.LBB2110:
.LBB2104:
.LBB2098:
.LBB2092:
.LBB2086:
	.loc 6 364 0
	subf 0,29,0
.LBE2086:
.LBE2092:
.LBE2098:
.LBE2104:
.LBE2110:
.LBE2116:
.LBE2122:
.LBE2128:
.LBE2134:
.LBE2140:
.LBE2158:
	.loc 4 434 0
	add 30,27,30
.LVL139:
.LBB2159:
.LBB2141:
.LBB2135:
.LBB2129:
.LBB2123:
.LBB2117:
.LBB2111:
.LBB2105:
.LBB2099:
.LBB2093:
.LBB2087:
	.loc 6 365 0
	srawi. 0,0,2
.LVL140:
	li 27,0
	beq+ 0,.L91
.LVL141:
.L108:
	.loc 6 366 0
	slwi 27,0,2
	mr 3,30
	mr 4,29
	mr 5,27
	bl memmove
	b .L91
.LVL142:
.L82:
.LBE2087:
.LBE2093:
.LBE2099:
.LBE2105:
.LBE2111:
.LBE2117:
.LBE2123:
.LBE2129:
.LBE2135:
.LBE2141:
.LBE2159:
.LBE2163:
.LBB2164:
.LBB1955:
.LBB1947:
.LBB1945:
.LBB1943:
.LBB1941:
.LBB1939:
.LBB1937:
.LBB1935:
.LBB1933:
.LBB1931:
.LBB1929:
	slwi 30,0,2
	mr 4,29
	mr 5,30
.LVL143:
	bl memmove
.LVL144:
	lwz 3,4(31)
	b .L83
.LVL145:
.L103:
.LBE1929:
.LBE1931:
.LBE1933:
.LBE1935:
.LBE1937:
.LBE1939:
.LBE1941:
.LBE1943:
.LBE1945:
.LBE1947:
.LBE1955:
	.loc 4 390 0
	slwi 30,30,2
.LVL146:
.LBB1956:
.LBB1915:
.LBB1914:
.LBB1913:
.LBB1912:
.LBB1911:
.LBB1910:
.LBB1909:
.LBB1908:
.LBB1907:
.LBB1906:
	.loc 4 382 0
	mr 0,27
.LVL147:
	.loc 6 365 0
	srawi. 5,30,2
.LVL148:
	.loc 6 364 0
	subf 26,30,27
	.loc 6 365 0
	beq+ 0,.L77
	.loc 6 366 0
	mr 3,27
	mr 4,26
	slwi 5,5,2
	bl memmove
.LVL149:
	lwz 0,4(31)
.L77:
.LBE1906:
.LBE1907:
.LBE1908:
.LBE1909:
.LBE1910:
.LBE1911:
.LBE1912:
.LBE1913:
.LBE1914:
.LBE1915:
.LBE1956:
.LBB1957:
.LBB1958:
.LBB1959:
.LBB1960:
.LBB1961:
.LBB1962:
	.loc 6 559 0
	subf 26,29,26
.LBE1962:
.LBE1961:
.LBE1960:
.LBE1959:
.LBE1958:
.LBE1957:
	.loc 4 394 0
	add 0,0,30
.LBB1978:
.LBB1975:
.LBB1972:
.LBB1969:
.LBB1966:
.LBB1963:
	.loc 6 560 0
	srawi. 26,26,2
.LBE1963:
.LBE1966:
.LBE1969:
.LBE1972:
.LBE1975:
.LBE1978:
	.loc 4 394 0
	stw 0,4(31)
.LVL150:
.LBB1979:
.LBB1976:
.LBB1973:
.LBB1970:
.LBB1967:
.LBB1964:
	.loc 6 560 0
	bne- 0,.L109
.L78:
.LVL151:
.LBE1964:
.LBE1967:
.LBE1970:
.LBE1973:
.LBE1976:
.LBE1979:
	.loc 4 397 0
	add 30,29,30
.LVL152:
.LBB1980:
.LBB1981:
.LBB1982:
	.loc 6 686 0
	cmpw 7,30,29
	beq- 7,.L73
.LVL153:
.L79:
	.loc 6 687 0
	stw 28,0(29)
	addi 29,29,4
	.loc 6 686 0
	cmpw 7,30,29
	bne+ 7,.L79
	b .L73
.LVL154:
.L109:
.LBE1982:
.LBE1981:
.LBE1980:
.LBB1983:
.LBB1977:
.LBB1974:
.LBB1971:
.LBB1968:
.LBB1965:
	.loc 6 561 0
	slwi 5,26,2
	mr 4,29
	subf 3,5,27
	bl memmove
	b .L78
.LVL155:
.L104:
.LBE1965:
.LBE1968:
.LBE1971:
.LBE1974:
.LBE1977:
.LBE1983:
.LBE2164:
.LBB2165:
.LBB2160:
.LBB1992:
	.loc 2 1242 0
	lis 3,.LC0@ha
	la 3,.LC0@l(3)
	bl _ZSt20__throw_length_errorPKc
.LVL156:
.LVL157:
.LVL158:
.LBE1992:
.LBE2160:
.LBE2165:
.LBE2169:
.LBE2174:
	.cfi_endproc
.LFE988:
	.size	_ZNSt6vectorIPK11TPL_TextureSaIS2_EE14_M_fill_insertEN9__gnu_cxx17__normal_iteratorIPS2_S4_EEjRKS2_, .-_ZNSt6vectorIPK11TPL_TextureSaIS2_EE14_M_fill_insertEN9__gnu_cxx17__normal_iteratorIPS2_S4_EEjRKS2_
	.section	.text._ZNSt6vectorIPK18TPL_Texture_HeaderSaIS2_EE14_M_fill_insertEN9__gnu_cxx17__normal_iteratorIPS2_S4_EEjRKS2_,"axG",@progbits,_ZNSt6vectorIPK18TPL_Texture_HeaderSaIS2_EE14_M_fill_insertEN9__gnu_cxx17__normal_iteratorIPS2_S4_EEjRKS2_,comdat
	.align 2
	.weak	_ZNSt6vectorIPK18TPL_Texture_HeaderSaIS2_EE14_M_fill_insertEN9__gnu_cxx17__normal_iteratorIPS2_S4_EEjRKS2_
	.type	_ZNSt6vectorIPK18TPL_Texture_HeaderSaIS2_EE14_M_fill_insertEN9__gnu_cxx17__normal_iteratorIPS2_S4_EEjRKS2_, @function
_ZNSt6vectorIPK18TPL_Texture_HeaderSaIS2_EE14_M_fill_insertEN9__gnu_cxx17__normal_iteratorIPS2_S4_EEjRKS2_:
.LFB992:
	.loc 4 377 0
	.cfi_startproc
.LVL159:
	stwu 1,-40(1)
.LCFI25:
	.cfi_def_cfa_offset 40
	mflr 0
	stw 30,32(1)
.LBB2281:
	.loc 4 380 0
	mr. 30,5
	.cfi_offset 30, -8
	.cfi_register 65, 0
.LBE2281:
	.loc 4 377 0
	stw 0,44(1)
	stw 29,28(1)
	stw 31,36(1)
	mr 31,3
	.cfi_offset 31, -4
	.cfi_offset 29, -12
	.cfi_offset 65, 4
	stw 26,16(1)
	stw 27,20(1)
	stw 28,24(1)
	.loc 4 377 0
	lwz 29,0(4)
.LBB2578:
	.loc 4 380 0
	beq- 0,.L110
	.cfi_offset 28, -16
	.cfi_offset 27, -20
	.cfi_offset 26, -24
.LBB2282:
	.loc 4 382 0
	lwz 27,4(3)
	lwz 0,8(3)
	subf 0,27,0
	srawi 0,0,2
	cmplw 7,30,0
	bgt- 7,.L112
.LBB2283:
.LBB2284:
.LBB2285:
	.loc 5 892 0
	subf 0,29,27
.LBE2285:
.LBE2284:
	.loc 4 385 0
	lwz 28,0(6)
.LVL160:
.LBB2287:
.LBB2286:
	.loc 5 892 0
	srawi 0,0,2
.LVL161:
.LBE2286:
.LBE2287:
	.loc 4 388 0
	cmplw 7,30,0
	blt- 7,.L140
.LVL162:
.LBB2288:
.LBB2289:
.LBB2290:
.LBB2291:
.LBB2292:
.LBB2293:
.LBB2294:
.LBB2295:
	.loc 6 743 0
	subf. 30,0,30
	.loc 4 382 0
	mr 9,27
	.loc 6 743 0
	beq- 0,.L117
.LBE2295:
.LBE2294:
.LBE2293:
.LBE2292:
.LBE2291:
.LBE2290:
.LBE2289:
.LBE2288:
.LBB2303:
.LBB2304:
.LBB2305:
.LBB2306:
.LBB2307:
.LBB2308:
.LBB2309:
.LBB2310:
.LBB2311:
.LBB2312:
.LBB2313:
	.loc 4 377 0
	mtctr 30
.LBE2313:
.LBE2312:
.LBE2311:
.LBE2310:
.LBE2309:
.LBE2308:
.LBE2307:
.LBE2306:
.LBE2305:
.LBE2304:
.LBE2303:
.LBB2324:
.LBB2302:
.LBB2301:
.LBB2300:
.LBB2299:
.LBB2298:
.LBB2297:
.LBB2296:
	addi 9,27,-4
.LVL163:
.L118:
	.loc 6 745 0
	stwu 28,4(9)
	.loc 6 743 0
	bdnz .L118
	lwz 9,4(31)
.L117:
.LBE2296:
.LBE2297:
.LBE2298:
.LBE2299:
.LBE2300:
.LBE2301:
.LBE2302:
.LBE2324:
.LBB2325:
.LBB2326:
.LBB2327:
.LBB2328:
.LBB2329:
.LBB2330:
.LBB2331:
.LBB2332:
.LBB2333:
.LBB2334:
.LBB2335:
	.loc 6 365 0
	cmpwi 7,0,0
.LBE2335:
.LBE2334:
.LBE2333:
.LBE2332:
.LBE2331:
.LBE2330:
.LBE2329:
.LBE2328:
.LBE2327:
.LBE2326:
.LBE2325:
	.loc 4 406 0
	slwi 30,30,2
	add 3,9,30
.LVL164:
	stw 3,4(31)
.LVL165:
.LBB2356:
.LBB2354:
.LBB2352:
.LBB2350:
.LBB2348:
.LBB2346:
.LBB2344:
.LBB2342:
.LBB2340:
.LBB2338:
.LBB2336:
	.loc 6 365 0
	bne- 7,.L119
	li 30,0
.LVL166:
.L120:
.LBE2336:
.LBE2338:
.LBE2340:
.LBE2342:
.LBE2344:
.LBE2346:
.LBE2348:
.LBE2350:
.LBE2352:
.LBE2354:
.LBE2356:
.LBB2357:
.LBB2358:
.LBB2359:
	.loc 6 686 0
	cmpw 7,27,29
.LBE2359:
.LBE2358:
.LBE2357:
	.loc 4 410 0
	add 3,3,30
	stw 3,4(31)
.LVL167:
.LBB2362:
.LBB2361:
.LBB2360:
	.loc 6 686 0
	beq- 7,.L110
.LVL168:
.L121:
	.loc 6 687 0
	stw 28,0(29)
	addi 29,29,4
	.loc 6 686 0
	cmpw 7,27,29
	bne+ 7,.L121
.LVL169:
.L110:
.LBE2360:
.LBE2361:
.LBE2362:
.LBE2283:
.LBE2282:
.LBE2578:
	.loc 4 464 0
	lwz 0,44(1)
	lwz 26,16(1)
	mtlr 0
	lwz 27,20(1)
	lwz 28,24(1)
	lwz 29,28(1)
	lwz 30,32(1)
	lwz 31,36(1)
.LVL170:
	addi 1,1,40
	.cfi_remember_state
.LCFI26:
	.cfi_def_cfa_offset 0
	.cfi_restore 31
	.cfi_restore 30
	.cfi_restore 29
	.cfi_restore 28
	.cfi_restore 27
	.cfi_restore 26
	blr
.LVL171:
.L112:
.LCFI27:
	.cfi_restore_state
.LBB2579:
.LBB2574:
.LBB2392:
.LBB2393:
.LBB2394:
.LBB2395:
.LBB2396:
	.loc 2 571 0
	lwz 9,0(3)
.LBE2396:
.LBE2395:
	.loc 2 1241 0
	lis 11,0x3fff
	ori 11,11,65535
.LBB2398:
.LBB2397:
	.loc 2 571 0
	subf 27,9,27
	srawi 0,27,2
.LBE2397:
.LBE2398:
	.loc 2 1241 0
	subf 11,0,11
	cmplw 7,30,11
	bgt- 7,.L141
.LVL172:
	.loc 2 1244 0
	cmplw 7,0,30
	mr 11,0
	blt- 7,.L142
	add 11,11,0
.LVL173:
	.loc 2 1245 0
	cmplw 7,0,11
	ble- 7,.L143
.L124:
.LVL174:
.LBE2394:
.LBE2393:
.LBB2401:
.LBB2402:
	.loc 5 892 0
	subf 27,9,29
.LBE2402:
.LBE2401:
	.loc 4 418 0
	li 26,-4
.LBB2405:
.LBB2403:
	.loc 5 892 0
	srawi 27,27,2
.LVL175:
.L130:
.LBE2403:
.LBE2405:
.LBB2406:
.LBB2407:
.LBB2408:
.LBB2409:
	.loc 3 92 0
	mr 3,26
.LVL176:
	stw 6,8(1)
	bl _Znwj
.LVL177:
	lwz 6,8(1)
	mr 28,3
.L125:
.LVL178:
.LBE2409:
.LBE2408:
.LBE2407:
.LBE2406:
	.loc 4 424 0
	slwi 27,27,2
.LVL179:
.LBB2418:
.LBB2414:
.LBB2412:
.LBB2410:
	.loc 1 244 0
	lwz 0,0(6)
.LVL180:
.LBE2410:
.LBE2412:
.LBE2414:
.LBE2418:
	.loc 4 424 0
	add 27,28,27
.LBB2419:
.LBB2415:
	.loc 4 377 0
	mtctr 30
.LBB2413:
.LBB2411:
	addi 27,27,-4
.LVL181:
.L126:
.LBE2411:
.LBE2413:
.LBE2415:
.LBE2419:
.LBB2420:
.LBB2421:
.LBB2422:
.LBB2423:
.LBB2424:
.LBB2425:
.LBB2426:
.LBB2427:
	.loc 6 745 0
	stwu 0,4(27)
	.loc 6 743 0
	bdnz .L126
.LVL182:
.LBE2427:
.LBE2426:
.LBE2425:
.LBE2424:
.LBE2423:
.LBE2422:
.LBE2421:
.LBE2420:
	.loc 4 429 0
	lwz 4,0(31)
.LVL183:
.LBB2428:
.LBB2429:
.LBB2430:
.LBB2431:
.LBB2432:
.LBB2433:
.LBB2434:
.LBB2435:
.LBB2436:
.LBB2437:
.LBB2438:
	.loc 6 365 0
	li 27,0
	.loc 6 364 0
	subf 0,4,29
.LVL184:
	.loc 6 365 0
	srawi. 0,0,2
.LVL185:
	bne- 0,.L144
.LBE2438:
.LBE2437:
.LBE2436:
.LBE2435:
.LBE2434:
.LBE2433:
.LBE2432:
.LBE2431:
.LBE2430:
.LBE2429:
.LBE2428:
.LBB2479:
.LBB2480:
.LBB2481:
.LBB2482:
.LBB2483:
.LBB2484:
.LBB2485:
.LBB2486:
.LBB2487:
.LBB2488:
.LBB2489:
	.loc 6 364 0
	lwz 0,4(31)
.LVL186:
.LBE2489:
.LBE2488:
.LBE2487:
.LBE2486:
.LBE2485:
.LBE2484:
.LBE2483:
.LBE2482:
.LBE2481:
.LBE2480:
.LBE2479:
.LBB2550:
.LBB2475:
.LBB2471:
.LBB2467:
.LBB2463:
.LBB2459:
.LBB2455:
.LBB2451:
.LBB2447:
.LBB2443:
.LBB2439:
	.loc 6 367 0
	add 27,28,27
.LVL187:
.LBE2439:
.LBE2443:
.LBE2447:
.LBE2451:
.LBE2455:
.LBE2459:
.LBE2463:
.LBE2467:
.LBE2471:
.LBE2475:
.LBE2550:
	.loc 4 434 0
	slwi 30,30,2
.LVL188:
.LBB2551:
.LBB2544:
.LBB2538:
.LBB2532:
.LBB2526:
.LBB2520:
.LBB2514:
.LBB2508:
.LBB2502:
.LBB2496:
.LBB2490:
	.loc 6 364 0
	subf 0,29,0
.LBE2490:
.LBE2496:
.LBE2502:
.LBE2508:
.LBE2514:
.LBE2520:
.LBE2526:
.LBE2532:
.LBE2538:
.LBE2544:
.LBE2551:
	.loc 4 434 0
	add 30,27,30
.LVL189:
.LBB2552:
.LBB2545:
.LBB2539:
.LBB2533:
.LBB2527:
.LBB2521:
.LBB2515:
.LBB2509:
.LBB2503:
.LBB2497:
.LBB2491:
	.loc 6 365 0
	srawi. 0,0,2
.LVL190:
	li 27,0
	bne- 0,.L145
.LVL191:
.L128:
.LBE2491:
.LBE2497:
.LBE2503:
.LBE2509:
.LBE2515:
.LBE2521:
.LBE2527:
.LBE2533:
.LBE2539:
.LBE2545:
.LBE2552:
	.loc 4 456 0
	lwz 3,0(31)
.LBB2553:
.LBB2546:
.LBB2540:
.LBB2534:
.LBB2528:
.LBB2522:
.LBB2516:
.LBB2510:
.LBB2504:
.LBB2498:
.LBB2492:
	.loc 6 367 0
	add 27,30,27
.LVL192:
.LBE2492:
.LBE2498:
.LBE2504:
.LBE2510:
.LBE2516:
.LBE2522:
.LBE2528:
.LBE2534:
.LBE2540:
.LBE2546:
.LBE2553:
.LBB2554:
.LBB2555:
	.loc 2 155 0
	cmpwi 7,3,0
	beq- 7,.L129
.LVL193:
.LBB2556:
.LBB2557:
	.loc 3 98 0
	bl _ZdlPv
.LVL194:
.L129:
.LBE2557:
.LBE2556:
.LBE2555:
.LBE2554:
.LBE2392:
.LBE2574:
.LBE2579:
	.loc 4 464 0
	lwz 0,44(1)
.LBB2580:
.LBB2575:
.LBB2569:
	.loc 4 461 0
	add 26,28,26
	.loc 4 459 0
	stw 28,0(31)
.LBE2569:
.LBE2575:
.LBE2580:
	.loc 4 464 0
	mtlr 0
.LBB2581:
.LBB2576:
.LBB2570:
	.loc 4 460 0
	stw 27,4(31)
	.loc 4 461 0
	stw 26,8(31)
.LBE2570:
.LBE2576:
.LBE2581:
	.loc 4 464 0
	lwz 27,20(1)
	lwz 26,16(1)
	lwz 28,24(1)
.LVL195:
	lwz 29,28(1)
.LVL196:
	lwz 30,32(1)
.LVL197:
	lwz 31,36(1)
.LVL198:
	addi 1,1,40
	.cfi_remember_state
	.cfi_restore 26
	.cfi_restore 27
	.cfi_restore 28
	.cfi_restore 29
	.cfi_restore 30
	.cfi_restore 31
.LCFI28:
	.cfi_def_cfa_offset 0
	blr
.LVL199:
.L142:
.LCFI29:
	.cfi_restore_state
.LBB2582:
.LBB2577:
.LBB2571:
.LBB2558:
.LBB2399:
	.loc 2 1244 0
	mr 11,30
	add 11,11,0
.LVL200:
	.loc 2 1245 0
	cmplw 7,0,11
	bgt- 7,.L124
.L143:
.LVL201:
	lis 0,0x3fff
	ori 0,0,65535
	cmplw 7,11,0
	bgt- 7,.L124
.LVL202:
.LBE2399:
.LBE2558:
.LBB2559:
.LBB2416:
	.loc 2 150 0
	cmpwi 7,11,0
.LBE2416:
.LBE2559:
.LBB2560:
.LBB2404:
	.loc 5 892 0
	subf 9,9,29
	srawi 27,9,2
.LVL203:
.LBE2404:
.LBE2560:
.LBB2561:
.LBB2417:
	.loc 2 150 0
	li 26,0
	li 28,0
	beq+ 7,.L125
	slwi 26,11,2
	b .L130
.LVL204:
.L144:
.LBE2417:
.LBE2561:
.LBB2562:
.LBB2476:
.LBB2472:
.LBB2468:
.LBB2464:
.LBB2460:
.LBB2456:
.LBB2452:
.LBB2448:
.LBB2444:
.LBB2440:
	.loc 6 366 0
	slwi 27,0,2
	mr 3,28
	mr 5,27
.LBE2440:
.LBE2444:
.LBE2448:
.LBE2452:
.LBE2456:
.LBE2460:
.LBE2464:
.LBE2468:
.LBE2472:
.LBE2476:
.LBE2562:
	.loc 4 434 0
	slwi 30,30,2
.LVL205:
.LBB2563:
.LBB2477:
.LBB2473:
.LBB2469:
.LBB2465:
.LBB2461:
.LBB2457:
.LBB2453:
.LBB2449:
.LBB2445:
.LBB2441:
	.loc 6 366 0
	bl memmove
.LVL206:
.LBE2441:
.LBE2445:
.LBE2449:
.LBE2453:
.LBE2457:
.LBE2461:
.LBE2465:
.LBE2469:
.LBE2473:
.LBE2477:
.LBE2563:
.LBB2564:
.LBB2547:
.LBB2541:
.LBB2535:
.LBB2529:
.LBB2523:
.LBB2517:
.LBB2511:
.LBB2505:
.LBB2499:
.LBB2493:
	.loc 6 364 0
	lwz 0,4(31)
.LBE2493:
.LBE2499:
.LBE2505:
.LBE2511:
.LBE2517:
.LBE2523:
.LBE2529:
.LBE2535:
.LBE2541:
.LBE2547:
.LBE2564:
.LBB2565:
.LBB2478:
.LBB2474:
.LBB2470:
.LBB2466:
.LBB2462:
.LBB2458:
.LBB2454:
.LBB2450:
.LBB2446:
.LBB2442:
	.loc 6 367 0
	add 27,28,27
.LVL207:
.LBE2442:
.LBE2446:
.LBE2450:
.LBE2454:
.LBE2458:
.LBE2462:
.LBE2466:
.LBE2470:
.LBE2474:
.LBE2478:
.LBE2565:
.LBB2566:
.LBB2548:
.LBB2542:
.LBB2536:
.LBB2530:
.LBB2524:
.LBB2518:
.LBB2512:
.LBB2506:
.LBB2500:
.LBB2494:
	.loc 6 364 0
	subf 0,29,0
.LBE2494:
.LBE2500:
.LBE2506:
.LBE2512:
.LBE2518:
.LBE2524:
.LBE2530:
.LBE2536:
.LBE2542:
.LBE2548:
.LBE2566:
	.loc 4 434 0
	add 30,27,30
.LVL208:
.LBB2567:
.LBB2549:
.LBB2543:
.LBB2537:
.LBB2531:
.LBB2525:
.LBB2519:
.LBB2513:
.LBB2507:
.LBB2501:
.LBB2495:
	.loc 6 365 0
	srawi. 0,0,2
.LVL209:
	li 27,0
	beq+ 0,.L128
.LVL210:
.L145:
	.loc 6 366 0
	slwi 27,0,2
	mr 3,30
	mr 4,29
	mr 5,27
	bl memmove
	b .L128
.LVL211:
.L119:
.LBE2495:
.LBE2501:
.LBE2507:
.LBE2513:
.LBE2519:
.LBE2525:
.LBE2531:
.LBE2537:
.LBE2543:
.LBE2549:
.LBE2567:
.LBE2571:
.LBB2572:
.LBB2363:
.LBB2355:
.LBB2353:
.LBB2351:
.LBB2349:
.LBB2347:
.LBB2345:
.LBB2343:
.LBB2341:
.LBB2339:
.LBB2337:
	slwi 30,0,2
	mr 4,29
	mr 5,30
.LVL212:
	bl memmove
.LVL213:
	lwz 3,4(31)
	b .L120
.LVL214:
.L140:
.LBE2337:
.LBE2339:
.LBE2341:
.LBE2343:
.LBE2345:
.LBE2347:
.LBE2349:
.LBE2351:
.LBE2353:
.LBE2355:
.LBE2363:
	.loc 4 390 0
	slwi 30,30,2
.LVL215:
.LBB2364:
.LBB2323:
.LBB2322:
.LBB2321:
.LBB2320:
.LBB2319:
.LBB2318:
.LBB2317:
.LBB2316:
.LBB2315:
.LBB2314:
	.loc 4 382 0
	mr 0,27
.LVL216:
	.loc 6 365 0
	srawi. 5,30,2
.LVL217:
	.loc 6 364 0
	subf 26,30,27
	.loc 6 365 0
	beq+ 0,.L114
	.loc 6 366 0
	mr 3,27
	mr 4,26
	slwi 5,5,2
	bl memmove
.LVL218:
	lwz 0,4(31)
.L114:
.LBE2314:
.LBE2315:
.LBE2316:
.LBE2317:
.LBE2318:
.LBE2319:
.LBE2320:
.LBE2321:
.LBE2322:
.LBE2323:
.LBE2364:
.LBB2365:
.LBB2366:
.LBB2367:
.LBB2368:
.LBB2369:
.LBB2370:
	.loc 6 559 0
	subf 26,29,26
.LBE2370:
.LBE2369:
.LBE2368:
.LBE2367:
.LBE2366:
.LBE2365:
	.loc 4 394 0
	add 0,0,30
.LBB2386:
.LBB2383:
.LBB2380:
.LBB2377:
.LBB2374:
.LBB2371:
	.loc 6 560 0
	srawi. 26,26,2
.LBE2371:
.LBE2374:
.LBE2377:
.LBE2380:
.LBE2383:
.LBE2386:
	.loc 4 394 0
	stw 0,4(31)
.LVL219:
.LBB2387:
.LBB2384:
.LBB2381:
.LBB2378:
.LBB2375:
.LBB2372:
	.loc 6 560 0
	bne- 0,.L146
.L115:
.LVL220:
.LBE2372:
.LBE2375:
.LBE2378:
.LBE2381:
.LBE2384:
.LBE2387:
	.loc 4 397 0
	add 30,29,30
.LVL221:
.LBB2388:
.LBB2389:
.LBB2390:
	.loc 6 686 0
	cmpw 7,30,29
	beq- 7,.L110
.LVL222:
.L116:
	.loc 6 687 0
	stw 28,0(29)
	addi 29,29,4
	.loc 6 686 0
	cmpw 7,30,29
	bne+ 7,.L116
	b .L110
.LVL223:
.L146:
.LBE2390:
.LBE2389:
.LBE2388:
.LBB2391:
.LBB2385:
.LBB2382:
.LBB2379:
.LBB2376:
.LBB2373:
	.loc 6 561 0
	slwi 5,26,2
	mr 4,29
	subf 3,5,27
	bl memmove
	b .L115
.LVL224:
.L141:
.LBE2373:
.LBE2376:
.LBE2379:
.LBE2382:
.LBE2385:
.LBE2391:
.LBE2572:
.LBB2573:
.LBB2568:
.LBB2400:
	.loc 2 1242 0
	lis 3,.LC0@ha
	la 3,.LC0@l(3)
	bl _ZSt20__throw_length_errorPKc
.LVL225:
.LVL226:
.LVL227:
.LBE2400:
.LBE2568:
.LBE2573:
.LBE2577:
.LBE2582:
	.cfi_endproc
.LFE992:
	.size	_ZNSt6vectorIPK18TPL_Texture_HeaderSaIS2_EE14_M_fill_insertEN9__gnu_cxx17__normal_iteratorIPS2_S4_EEjRKS2_, .-_ZNSt6vectorIPK18TPL_Texture_HeaderSaIS2_EE14_M_fill_insertEN9__gnu_cxx17__normal_iteratorIPS2_S4_EEjRKS2_
	.section	.text._ZNSt6vectorIPKhSaIS1_EE14_M_fill_insertEN9__gnu_cxx17__normal_iteratorIPS1_S3_EEjRKS1_,"axG",@progbits,_ZNSt6vectorIPKhSaIS1_EE14_M_fill_insertEN9__gnu_cxx17__normal_iteratorIPS1_S3_EEjRKS1_,comdat
	.align 2
	.weak	_ZNSt6vectorIPKhSaIS1_EE14_M_fill_insertEN9__gnu_cxx17__normal_iteratorIPS1_S3_EEjRKS1_
	.type	_ZNSt6vectorIPKhSaIS1_EE14_M_fill_insertEN9__gnu_cxx17__normal_iteratorIPS1_S3_EEjRKS1_, @function
_ZNSt6vectorIPKhSaIS1_EE14_M_fill_insertEN9__gnu_cxx17__normal_iteratorIPS1_S3_EEjRKS1_:
.LFB996:
	.loc 4 377 0
	.cfi_startproc
.LVL228:
	stwu 1,-40(1)
.LCFI30:
	.cfi_def_cfa_offset 40
	mflr 0
	stw 30,32(1)
.LBB2689:
	.loc 4 380 0
	mr. 30,5
	.cfi_offset 30, -8
	.cfi_register 65, 0
.LBE2689:
	.loc 4 377 0
	stw 0,44(1)
	stw 29,28(1)
	stw 31,36(1)
	mr 31,3
	.cfi_offset 31, -4
	.cfi_offset 29, -12
	.cfi_offset 65, 4
	stw 26,16(1)
	stw 27,20(1)
	stw 28,24(1)
	.loc 4 377 0
	lwz 29,0(4)
.LBB2986:
	.loc 4 380 0
	beq- 0,.L147
	.cfi_offset 28, -16
	.cfi_offset 27, -20
	.cfi_offset 26, -24
.LBB2690:
	.loc 4 382 0
	lwz 27,4(3)
	lwz 0,8(3)
	subf 0,27,0
	srawi 0,0,2
	cmplw 7,30,0
	bgt- 7,.L149
.LBB2691:
.LBB2692:
.LBB2693:
	.loc 5 892 0
	subf 0,29,27
.LBE2693:
.LBE2692:
	.loc 4 385 0
	lwz 28,0(6)
.LVL229:
.LBB2695:
.LBB2694:
	.loc 5 892 0
	srawi 0,0,2
.LVL230:
.LBE2694:
.LBE2695:
	.loc 4 388 0
	cmplw 7,30,0
	blt- 7,.L177
.LVL231:
.LBB2696:
.LBB2697:
.LBB2698:
.LBB2699:
.LBB2700:
.LBB2701:
.LBB2702:
.LBB2703:
	.loc 6 743 0
	subf. 30,0,30
	.loc 4 382 0
	mr 9,27
	.loc 6 743 0
	beq- 0,.L154
.LBE2703:
.LBE2702:
.LBE2701:
.LBE2700:
.LBE2699:
.LBE2698:
.LBE2697:
.LBE2696:
.LBB2711:
.LBB2712:
.LBB2713:
.LBB2714:
.LBB2715:
.LBB2716:
.LBB2717:
.LBB2718:
.LBB2719:
.LBB2720:
.LBB2721:
	.loc 4 377 0
	mtctr 30
.LBE2721:
.LBE2720:
.LBE2719:
.LBE2718:
.LBE2717:
.LBE2716:
.LBE2715:
.LBE2714:
.LBE2713:
.LBE2712:
.LBE2711:
.LBB2732:
.LBB2710:
.LBB2709:
.LBB2708:
.LBB2707:
.LBB2706:
.LBB2705:
.LBB2704:
	addi 9,27,-4
.LVL232:
.L155:
	.loc 6 745 0
	stwu 28,4(9)
	.loc 6 743 0
	bdnz .L155
	lwz 9,4(31)
.L154:
.LBE2704:
.LBE2705:
.LBE2706:
.LBE2707:
.LBE2708:
.LBE2709:
.LBE2710:
.LBE2732:
.LBB2733:
.LBB2734:
.LBB2735:
.LBB2736:
.LBB2737:
.LBB2738:
.LBB2739:
.LBB2740:
.LBB2741:
.LBB2742:
.LBB2743:
	.loc 6 365 0
	cmpwi 7,0,0
.LBE2743:
.LBE2742:
.LBE2741:
.LBE2740:
.LBE2739:
.LBE2738:
.LBE2737:
.LBE2736:
.LBE2735:
.LBE2734:
.LBE2733:
	.loc 4 406 0
	slwi 30,30,2
	add 3,9,30
.LVL233:
	stw 3,4(31)
.LVL234:
.LBB2764:
.LBB2762:
.LBB2760:
.LBB2758:
.LBB2756:
.LBB2754:
.LBB2752:
.LBB2750:
.LBB2748:
.LBB2746:
.LBB2744:
	.loc 6 365 0
	bne- 7,.L156
	li 30,0
.LVL235:
.L157:
.LBE2744:
.LBE2746:
.LBE2748:
.LBE2750:
.LBE2752:
.LBE2754:
.LBE2756:
.LBE2758:
.LBE2760:
.LBE2762:
.LBE2764:
.LBB2765:
.LBB2766:
.LBB2767:
	.loc 6 686 0
	cmpw 7,27,29
.LBE2767:
.LBE2766:
.LBE2765:
	.loc 4 410 0
	add 3,3,30
	stw 3,4(31)
.LVL236:
.LBB2770:
.LBB2769:
.LBB2768:
	.loc 6 686 0
	beq- 7,.L147
.LVL237:
.L158:
	.loc 6 687 0
	stw 28,0(29)
	addi 29,29,4
	.loc 6 686 0
	cmpw 7,27,29
	bne+ 7,.L158
.LVL238:
.L147:
.LBE2768:
.LBE2769:
.LBE2770:
.LBE2691:
.LBE2690:
.LBE2986:
	.loc 4 464 0
	lwz 0,44(1)
	lwz 26,16(1)
	mtlr 0
	lwz 27,20(1)
	lwz 28,24(1)
	lwz 29,28(1)
	lwz 30,32(1)
	lwz 31,36(1)
.LVL239:
	addi 1,1,40
	.cfi_remember_state
.LCFI31:
	.cfi_def_cfa_offset 0
	.cfi_restore 31
	.cfi_restore 30
	.cfi_restore 29
	.cfi_restore 28
	.cfi_restore 27
	.cfi_restore 26
	blr
.LVL240:
.L149:
.LCFI32:
	.cfi_restore_state
.LBB2987:
.LBB2982:
.LBB2800:
.LBB2801:
.LBB2802:
.LBB2803:
.LBB2804:
	.loc 2 571 0
	lwz 9,0(3)
.LBE2804:
.LBE2803:
	.loc 2 1241 0
	lis 11,0x3fff
	ori 11,11,65535
.LBB2806:
.LBB2805:
	.loc 2 571 0
	subf 27,9,27
	srawi 0,27,2
.LBE2805:
.LBE2806:
	.loc 2 1241 0
	subf 11,0,11
	cmplw 7,30,11
	bgt- 7,.L178
.LVL241:
	.loc 2 1244 0
	cmplw 7,0,30
	mr 11,0
	blt- 7,.L179
	add 11,11,0
.LVL242:
	.loc 2 1245 0
	cmplw 7,0,11
	ble- 7,.L180
.L161:
.LVL243:
.LBE2802:
.LBE2801:
.LBB2809:
.LBB2810:
	.loc 5 892 0
	subf 27,9,29
.LBE2810:
.LBE2809:
	.loc 4 418 0
	li 26,-4
.LBB2813:
.LBB2811:
	.loc 5 892 0
	srawi 27,27,2
.LVL244:
.L167:
.LBE2811:
.LBE2813:
.LBB2814:
.LBB2815:
.LBB2816:
.LBB2817:
	.loc 3 92 0
	mr 3,26
.LVL245:
	stw 6,8(1)
	bl _Znwj
.LVL246:
	lwz 6,8(1)
	mr 28,3
.L162:
.LVL247:
.LBE2817:
.LBE2816:
.LBE2815:
.LBE2814:
	.loc 4 424 0
	slwi 27,27,2
.LVL248:
.LBB2826:
.LBB2822:
.LBB2820:
.LBB2818:
	.loc 1 244 0
	lwz 0,0(6)
.LVL249:
.LBE2818:
.LBE2820:
.LBE2822:
.LBE2826:
	.loc 4 424 0
	add 27,28,27
.LBB2827:
.LBB2823:
	.loc 4 377 0
	mtctr 30
.LBB2821:
.LBB2819:
	addi 27,27,-4
.LVL250:
.L163:
.LBE2819:
.LBE2821:
.LBE2823:
.LBE2827:
.LBB2828:
.LBB2829:
.LBB2830:
.LBB2831:
.LBB2832:
.LBB2833:
.LBB2834:
.LBB2835:
	.loc 6 745 0
	stwu 0,4(27)
	.loc 6 743 0
	bdnz .L163
.LVL251:
.LBE2835:
.LBE2834:
.LBE2833:
.LBE2832:
.LBE2831:
.LBE2830:
.LBE2829:
.LBE2828:
	.loc 4 429 0
	lwz 4,0(31)
.LVL252:
.LBB2836:
.LBB2837:
.LBB2838:
.LBB2839:
.LBB2840:
.LBB2841:
.LBB2842:
.LBB2843:
.LBB2844:
.LBB2845:
.LBB2846:
	.loc 6 365 0
	li 27,0
	.loc 6 364 0
	subf 0,4,29
.LVL253:
	.loc 6 365 0
	srawi. 0,0,2
.LVL254:
	bne- 0,.L181
.LBE2846:
.LBE2845:
.LBE2844:
.LBE2843:
.LBE2842:
.LBE2841:
.LBE2840:
.LBE2839:
.LBE2838:
.LBE2837:
.LBE2836:
.LBB2887:
.LBB2888:
.LBB2889:
.LBB2890:
.LBB2891:
.LBB2892:
.LBB2893:
.LBB2894:
.LBB2895:
.LBB2896:
.LBB2897:
	.loc 6 364 0
	lwz 0,4(31)
.LVL255:
.LBE2897:
.LBE2896:
.LBE2895:
.LBE2894:
.LBE2893:
.LBE2892:
.LBE2891:
.LBE2890:
.LBE2889:
.LBE2888:
.LBE2887:
.LBB2958:
.LBB2883:
.LBB2879:
.LBB2875:
.LBB2871:
.LBB2867:
.LBB2863:
.LBB2859:
.LBB2855:
.LBB2851:
.LBB2847:
	.loc 6 367 0
	add 27,28,27
.LVL256:
.LBE2847:
.LBE2851:
.LBE2855:
.LBE2859:
.LBE2863:
.LBE2867:
.LBE2871:
.LBE2875:
.LBE2879:
.LBE2883:
.LBE2958:
	.loc 4 434 0
	slwi 30,30,2
.LVL257:
.LBB2959:
.LBB2952:
.LBB2946:
.LBB2940:
.LBB2934:
.LBB2928:
.LBB2922:
.LBB2916:
.LBB2910:
.LBB2904:
.LBB2898:
	.loc 6 364 0
	subf 0,29,0
.LBE2898:
.LBE2904:
.LBE2910:
.LBE2916:
.LBE2922:
.LBE2928:
.LBE2934:
.LBE2940:
.LBE2946:
.LBE2952:
.LBE2959:
	.loc 4 434 0
	add 30,27,30
.LVL258:
.LBB2960:
.LBB2953:
.LBB2947:
.LBB2941:
.LBB2935:
.LBB2929:
.LBB2923:
.LBB2917:
.LBB2911:
.LBB2905:
.LBB2899:
	.loc 6 365 0
	srawi. 0,0,2
.LVL259:
	li 27,0
	bne- 0,.L182
.LVL260:
.L165:
.LBE2899:
.LBE2905:
.LBE2911:
.LBE2917:
.LBE2923:
.LBE2929:
.LBE2935:
.LBE2941:
.LBE2947:
.LBE2953:
.LBE2960:
	.loc 4 456 0
	lwz 3,0(31)
.LBB2961:
.LBB2954:
.LBB2948:
.LBB2942:
.LBB2936:
.LBB2930:
.LBB2924:
.LBB2918:
.LBB2912:
.LBB2906:
.LBB2900:
	.loc 6 367 0
	add 27,30,27
.LVL261:
.LBE2900:
.LBE2906:
.LBE2912:
.LBE2918:
.LBE2924:
.LBE2930:
.LBE2936:
.LBE2942:
.LBE2948:
.LBE2954:
.LBE2961:
.LBB2962:
.LBB2963:
	.loc 2 155 0
	cmpwi 7,3,0
	beq- 7,.L166
.LVL262:
.LBB2964:
.LBB2965:
	.loc 3 98 0
	bl _ZdlPv
.LVL263:
.L166:
.LBE2965:
.LBE2964:
.LBE2963:
.LBE2962:
.LBE2800:
.LBE2982:
.LBE2987:
	.loc 4 464 0
	lwz 0,44(1)
.LBB2988:
.LBB2983:
.LBB2977:
	.loc 4 461 0
	add 26,28,26
	.loc 4 459 0
	stw 28,0(31)
.LBE2977:
.LBE2983:
.LBE2988:
	.loc 4 464 0
	mtlr 0
.LBB2989:
.LBB2984:
.LBB2978:
	.loc 4 460 0
	stw 27,4(31)
	.loc 4 461 0
	stw 26,8(31)
.LBE2978:
.LBE2984:
.LBE2989:
	.loc 4 464 0
	lwz 27,20(1)
	lwz 26,16(1)
	lwz 28,24(1)
.LVL264:
	lwz 29,28(1)
.LVL265:
	lwz 30,32(1)
.LVL266:
	lwz 31,36(1)
.LVL267:
	addi 1,1,40
	.cfi_remember_state
	.cfi_restore 26
	.cfi_restore 27
	.cfi_restore 28
	.cfi_restore 29
	.cfi_restore 30
	.cfi_restore 31
.LCFI33:
	.cfi_def_cfa_offset 0
	blr
.LVL268:
.L179:
.LCFI34:
	.cfi_restore_state
.LBB2990:
.LBB2985:
.LBB2979:
.LBB2966:
.LBB2807:
	.loc 2 1244 0
	mr 11,30
	add 11,11,0
.LVL269:
	.loc 2 1245 0
	cmplw 7,0,11
	bgt- 7,.L161
.L180:
.LVL270:
	lis 0,0x3fff
	ori 0,0,65535
	cmplw 7,11,0
	bgt- 7,.L161
.LVL271:
.LBE2807:
.LBE2966:
.LBB2967:
.LBB2824:
	.loc 2 150 0
	cmpwi 7,11,0
.LBE2824:
.LBE2967:
.LBB2968:
.LBB2812:
	.loc 5 892 0
	subf 9,9,29
	srawi 27,9,2
.LVL272:
.LBE2812:
.LBE2968:
.LBB2969:
.LBB2825:
	.loc 2 150 0
	li 26,0
	li 28,0
	beq+ 7,.L162
	slwi 26,11,2
	b .L167
.LVL273:
.L181:
.LBE2825:
.LBE2969:
.LBB2970:
.LBB2884:
.LBB2880:
.LBB2876:
.LBB2872:
.LBB2868:
.LBB2864:
.LBB2860:
.LBB2856:
.LBB2852:
.LBB2848:
	.loc 6 366 0
	slwi 27,0,2
	mr 3,28
	mr 5,27
.LBE2848:
.LBE2852:
.LBE2856:
.LBE2860:
.LBE2864:
.LBE2868:
.LBE2872:
.LBE2876:
.LBE2880:
.LBE2884:
.LBE2970:
	.loc 4 434 0
	slwi 30,30,2
.LVL274:
.LBB2971:
.LBB2885:
.LBB2881:
.LBB2877:
.LBB2873:
.LBB2869:
.LBB2865:
.LBB2861:
.LBB2857:
.LBB2853:
.LBB2849:
	.loc 6 366 0
	bl memmove
.LVL275:
.LBE2849:
.LBE2853:
.LBE2857:
.LBE2861:
.LBE2865:
.LBE2869:
.LBE2873:
.LBE2877:
.LBE2881:
.LBE2885:
.LBE2971:
.LBB2972:
.LBB2955:
.LBB2949:
.LBB2943:
.LBB2937:
.LBB2931:
.LBB2925:
.LBB2919:
.LBB2913:
.LBB2907:
.LBB2901:
	.loc 6 364 0
	lwz 0,4(31)
.LBE2901:
.LBE2907:
.LBE2913:
.LBE2919:
.LBE2925:
.LBE2931:
.LBE2937:
.LBE2943:
.LBE2949:
.LBE2955:
.LBE2972:
.LBB2973:
.LBB2886:
.LBB2882:
.LBB2878:
.LBB2874:
.LBB2870:
.LBB2866:
.LBB2862:
.LBB2858:
.LBB2854:
.LBB2850:
	.loc 6 367 0
	add 27,28,27
.LVL276:
.LBE2850:
.LBE2854:
.LBE2858:
.LBE2862:
.LBE2866:
.LBE2870:
.LBE2874:
.LBE2878:
.LBE2882:
.LBE2886:
.LBE2973:
.LBB2974:
.LBB2956:
.LBB2950:
.LBB2944:
.LBB2938:
.LBB2932:
.LBB2926:
.LBB2920:
.LBB2914:
.LBB2908:
.LBB2902:
	.loc 6 364 0
	subf 0,29,0
.LBE2902:
.LBE2908:
.LBE2914:
.LBE2920:
.LBE2926:
.LBE2932:
.LBE2938:
.LBE2944:
.LBE2950:
.LBE2956:
.LBE2974:
	.loc 4 434 0
	add 30,27,30
.LVL277:
.LBB2975:
.LBB2957:
.LBB2951:
.LBB2945:
.LBB2939:
.LBB2933:
.LBB2927:
.LBB2921:
.LBB2915:
.LBB2909:
.LBB2903:
	.loc 6 365 0
	srawi. 0,0,2
.LVL278:
	li 27,0
	beq+ 0,.L165
.LVL279:
.L182:
	.loc 6 366 0
	slwi 27,0,2
	mr 3,30
	mr 4,29
	mr 5,27
	bl memmove
	b .L165
.LVL280:
.L156:
.LBE2903:
.LBE2909:
.LBE2915:
.LBE2921:
.LBE2927:
.LBE2933:
.LBE2939:
.LBE2945:
.LBE2951:
.LBE2957:
.LBE2975:
.LBE2979:
.LBB2980:
.LBB2771:
.LBB2763:
.LBB2761:
.LBB2759:
.LBB2757:
.LBB2755:
.LBB2753:
.LBB2751:
.LBB2749:
.LBB2747:
.LBB2745:
	slwi 30,0,2
	mr 4,29
	mr 5,30
.LVL281:
	bl memmove
.LVL282:
	lwz 3,4(31)
	b .L157
.LVL283:
.L177:
.LBE2745:
.LBE2747:
.LBE2749:
.LBE2751:
.LBE2753:
.LBE2755:
.LBE2757:
.LBE2759:
.LBE2761:
.LBE2763:
.LBE2771:
	.loc 4 390 0
	slwi 30,30,2
.LVL284:
.LBB2772:
.LBB2731:
.LBB2730:
.LBB2729:
.LBB2728:
.LBB2727:
.LBB2726:
.LBB2725:
.LBB2724:
.LBB2723:
.LBB2722:
	.loc 4 382 0
	mr 0,27
.LVL285:
	.loc 6 365 0
	srawi. 5,30,2
.LVL286:
	.loc 6 364 0
	subf 26,30,27
	.loc 6 365 0
	beq+ 0,.L151
	.loc 6 366 0
	mr 3,27
	mr 4,26
	slwi 5,5,2
	bl memmove
.LVL287:
	lwz 0,4(31)
.L151:
.LBE2722:
.LBE2723:
.LBE2724:
.LBE2725:
.LBE2726:
.LBE2727:
.LBE2728:
.LBE2729:
.LBE2730:
.LBE2731:
.LBE2772:
.LBB2773:
.LBB2774:
.LBB2775:
.LBB2776:
.LBB2777:
.LBB2778:
	.loc 6 559 0
	subf 26,29,26
.LBE2778:
.LBE2777:
.LBE2776:
.LBE2775:
.LBE2774:
.LBE2773:
	.loc 4 394 0
	add 0,0,30
.LBB2794:
.LBB2791:
.LBB2788:
.LBB2785:
.LBB2782:
.LBB2779:
	.loc 6 560 0
	srawi. 26,26,2
.LBE2779:
.LBE2782:
.LBE2785:
.LBE2788:
.LBE2791:
.LBE2794:
	.loc 4 394 0
	stw 0,4(31)
.LVL288:
.LBB2795:
.LBB2792:
.LBB2789:
.LBB2786:
.LBB2783:
.LBB2780:
	.loc 6 560 0
	bne- 0,.L183
.L152:
.LVL289:
.LBE2780:
.LBE2783:
.LBE2786:
.LBE2789:
.LBE2792:
.LBE2795:
	.loc 4 397 0
	add 30,29,30
.LVL290:
.LBB2796:
.LBB2797:
.LBB2798:
	.loc 6 686 0
	cmpw 7,30,29
	beq- 7,.L147
.LVL291:
.L153:
	.loc 6 687 0
	stw 28,0(29)
	addi 29,29,4
	.loc 6 686 0
	cmpw 7,30,29
	bne+ 7,.L153
	b .L147
.LVL292:
.L183:
.LBE2798:
.LBE2797:
.LBE2796:
.LBB2799:
.LBB2793:
.LBB2790:
.LBB2787:
.LBB2784:
.LBB2781:
	.loc 6 561 0
	slwi 5,26,2
	mr 4,29
	subf 3,5,27
	bl memmove
	b .L152
.LVL293:
.L178:
.LBE2781:
.LBE2784:
.LBE2787:
.LBE2790:
.LBE2793:
.LBE2799:
.LBE2980:
.LBB2981:
.LBB2976:
.LBB2808:
	.loc 2 1242 0
	lis 3,.LC0@ha
	la 3,.LC0@l(3)
	bl _ZSt20__throw_length_errorPKc
.LVL294:
.LVL295:
.LVL296:
.LBE2808:
.LBE2976:
.LBE2981:
.LBE2985:
.LBE2990:
	.cfi_endproc
.LFE996:
	.size	_ZNSt6vectorIPKhSaIS1_EE14_M_fill_insertEN9__gnu_cxx17__normal_iteratorIPS1_S3_EEjRKS1_, .-_ZNSt6vectorIPKhSaIS1_EE14_M_fill_insertEN9__gnu_cxx17__normal_iteratorIPS1_S3_EEjRKS1_
	.section	".text"
	.align 2
	.globl _ZN8TplImage12ParseTplFileEv
	.type	_ZN8TplImage12ParseTplFileEv, @function
_ZN8TplImage12ParseTplFileEv:
.LFB852:
	.loc 1 95 0
	.cfi_startproc
.LVL297:
	mflr 0
	stwu 1,-56(1)
.LCFI35:
	.cfi_def_cfa_offset 56
	.cfi_register 65, 0
	stw 28,40(1)
	stw 0,60(1)
	stw 31,52(1)
	mr 31,3
	.cfi_offset 31, -4
	.cfi_offset 65, 4
	.cfi_offset 28, -16
.LBB2991:
	.loc 1 96 0
	lwz 28,0(3)
	.loc 1 97 0
	li 3,0
.LVL298:
.LBE2991:
	.loc 1 95 0
	stw 29,44(1)
.LBB3065:
	.loc 1 96 0
	cmpwi 7,28,0
.LBE3065:
	.loc 1 95 0
	stw 30,48(1)
.LBB3066:
	.loc 1 96 0
	beq- 7,.L185
	.cfi_offset 30, -8
	.cfi_offset 29, -12
	.loc 1 101 0
	lwz 9,0(28)
	lis 0,0x20
	ori 0,0,44848
	.loc 1 99 0
	stw 28,8(31)
	.loc 1 101 0
	cmpw 7,9,0
	beq- 7,.L198
.L185:
.LBE3066:
	.loc 1 126 0
	lwz 0,60(1)
	lwz 28,40(1)
	mtlr 0
	lwz 29,44(1)
	lwz 30,48(1)
	lwz 31,52(1)
.LVL299:
	addi 1,1,56
	.cfi_remember_state
.LCFI36:
	.cfi_def_cfa_offset 0
	.cfi_restore 31
	.cfi_restore 30
	.cfi_restore 29
	.cfi_restore 28
	blr
.LVL300:
.L198:
.LCFI37:
	.cfi_restore_state
.LBB3067:
	.loc 1 104 0
	lwz 0,8(28)
	cmpwi 7,0,12
	bne+ 7,.L185
.LVL301:
.LBB2992:
	.loc 1 109 0
	lwz 0,4(28)
	.loc 1 124 0
	li 3,1
	.loc 1 109 0
	cmpwi 7,0,0
	beq- 7,.L185
.LBE2992:
	.loc 1 107 0
	addi 28,28,12
.LVL302:
	li 29,4
	.loc 1 109 0
	li 30,0
	b .L192
.LVL303:
.L186:
.LBB3063:
.LBB2993:
.LBB2994:
	.loc 2 633 0
	bge- 7,.L187
.LVL304:
	.loc 2 634 0
	add 0,0,29
.LVL305:
.LBB2995:
.LBB2996:
	.loc 2 1256 0
	stw 0,16(31)
.LVL306:
.L187:
.LBE2996:
.LBE2995:
.LBE2994:
.LBE2993:
.LBB3011:
	.loc 1 244 0 discriminator 2
	lwz 0,24(31)
.LBE3011:
.LBB3031:
.LBB3007:
.LBB3000:
.LBB2997:
	.loc 2 1256 0 discriminator 2
	li 11,0
.LBE2997:
.LBE3000:
.LBE3007:
.LBE3031:
.LBB3032:
	.loc 1 244 0 discriminator 2
	lwz 9,28(31)
.LBE3032:
.LBB3033:
.LBB3008:
.LBB3001:
.LBB2998:
	.loc 2 1256 0 discriminator 2
	stw 11,8(1)
.LBE2998:
.LBE3001:
.LBE3008:
.LBE3033:
.LBB3034:
.LBB3012:
.LBB3013:
.LBB3014:
	.loc 2 571 0 discriminator 2
	subf 5,0,9
	srawi 5,5,2
.LBE3014:
.LBE3013:
	.loc 2 631 0 discriminator 2
	cmplw 7,30,5
	bgt- 7,.L199
.LVL307:
.L188:
	.loc 2 633 0
	bge- 7,.L189
.LVL308:
	.loc 2 634 0
	add 0,0,29
.LVL309:
.LBB3016:
.LBB3017:
	.loc 2 1256 0
	stw 0,28(31)
.LVL310:
.L189:
.LBE3017:
.LBE3016:
.LBE3012:
.LBE3034:
.LBB3035:
	.loc 1 244 0 discriminator 2
	lwz 0,36(31)
.LBE3035:
.LBB3049:
.LBB3027:
.LBB3021:
.LBB3018:
	.loc 2 1256 0 discriminator 2
	li 11,0
.LBE3018:
.LBE3021:
.LBE3027:
.LBE3049:
.LBB3050:
	.loc 1 244 0 discriminator 2
	lwz 9,40(31)
.LBE3050:
.LBB3051:
.LBB3028:
.LBB3022:
.LBB3019:
	.loc 2 1256 0 discriminator 2
	stw 11,8(1)
.LBE3019:
.LBE3022:
.LBE3028:
.LBE3051:
.LBB3052:
.LBB3036:
.LBB3037:
.LBB3038:
	.loc 2 571 0 discriminator 2
	subf 5,0,9
	srawi 5,5,2
.LBE3038:
.LBE3037:
	.loc 2 631 0 discriminator 2
	cmplw 7,30,5
	bgt- 7,.L200
.LVL311:
.L190:
	.loc 2 633 0
	bge- 7,.L191
.LVL312:
	.loc 2 634 0
	add 0,0,29
.LVL313:
.LBB3040:
.LBB3041:
	.loc 2 1256 0
	stw 0,40(31)
.LVL314:
.L191:
.LBE3041:
.LBE3040:
.LBE3036:
.LBE3052:
	.loc 1 115 0 discriminator 2
	lwz 9,12(31)
.LBB3053:
.LBB3047:
.LBB3043:
.LBB3042:
	.loc 1 94 0 discriminator 2
	addi 0,29,-4
.LBE3042:
.LBE3043:
.LBE3047:
.LBE3053:
	.loc 1 121 0 discriminator 2
	addi 29,29,4
	.loc 1 115 0 discriminator 2
	stwx 28,9,0
.LVL315:
	.loc 1 121 0 discriminator 2
	addi 28,28,8
	.loc 1 117 0 discriminator 2
	lwz 9,12(31)
	lwz 10,0(31)
	lwzx 11,9,0
	lwz 9,24(31)
	lwz 11,0(11)
	add 11,10,11
	stwx 11,9,0
.LVL316:
	.loc 1 119 0 discriminator 2
	lwz 9,24(31)
	lwz 10,0(31)
	lwzx 11,9,0
	lwz 9,36(31)
	lwz 11,8(11)
	add 11,10,11
	stwx 11,9,0
	.loc 1 109 0 discriminator 2
	lwz 9,8(31)
	lwz 0,4(9)
	cmplw 7,0,30
	ble- 7,.L201
.LVL317:
.L192:
.LBB3054:
	.loc 1 244 0 discriminator 2
	lwz 0,12(31)
.LBE3054:
	.loc 1 111 0 discriminator 2
	addi 30,30,1
.LVL318:
.LBB3055:
	.loc 1 244 0 discriminator 2
	lwz 9,16(31)
.LBE3055:
	.loc 1 111 0 discriminator 2
	li 11,0
	stw 11,8(1)
.LBB3056:
.LBB3009:
.LBB3002:
.LBB3003:
	.loc 2 571 0 discriminator 2
	subf 5,0,9
	srawi 5,5,2
.LBE3003:
.LBE3002:
	.loc 2 631 0 discriminator 2
	cmplw 7,30,5
	ble+ 7,.L186
.LVL319:
.LBB3004:
.LBB3005:
	.loc 2 944 0
	mr 4,1
	subf 5,5,30
.LVL320:
	stwu 9,24(4)
	addi 3,31,12
	addi 6,1,8
	bl _ZNSt6vectorIPK11TPL_TextureSaIS2_EE14_M_fill_insertEN9__gnu_cxx17__normal_iteratorIPS2_S4_EEjRKS2_
.LVL321:
.LBE3005:
.LBE3004:
.LBE3009:
.LBE3056:
.LBB3057:
	.loc 1 244 0
	lwz 0,24(31)
	lwz 9,28(31)
.LBE3057:
.LBB3058:
.LBB3010:
.LBB3006:
.LBB2999:
	.loc 2 1256 0
	li 11,0
	stw 11,8(1)
.LBE2999:
.LBE3006:
.LBE3010:
.LBE3058:
.LBB3059:
.LBB3029:
.LBB3023:
.LBB3015:
	.loc 2 571 0
	subf 5,0,9
	srawi 5,5,2
.LBE3015:
.LBE3023:
	.loc 2 631 0
	cmplw 7,30,5
	ble+ 7,.L188
.LVL322:
.L199:
.LBB3024:
.LBB3025:
	.loc 2 944 0
	mr 4,1
	subf 5,5,30
.LVL323:
	stwu 9,28(4)
	addi 3,31,24
	addi 6,1,8
.LVL324:
	bl _ZNSt6vectorIPK18TPL_Texture_HeaderSaIS2_EE14_M_fill_insertEN9__gnu_cxx17__normal_iteratorIPS2_S4_EEjRKS2_
.LVL325:
.LBE3025:
.LBE3024:
.LBE3029:
.LBE3059:
.LBB3060:
	.loc 1 244 0
	lwz 0,36(31)
	lwz 9,40(31)
.LBE3060:
.LBB3061:
.LBB3030:
.LBB3026:
.LBB3020:
	.loc 2 1256 0
	li 11,0
	stw 11,8(1)
.LBE3020:
.LBE3026:
.LBE3030:
.LBE3061:
.LBB3062:
.LBB3048:
.LBB3044:
.LBB3039:
	.loc 2 571 0
	subf 5,0,9
	srawi 5,5,2
.LBE3039:
.LBE3044:
	.loc 2 631 0
	cmplw 7,30,5
	ble+ 7,.L190
.LVL326:
.L200:
.LBB3045:
.LBB3046:
	.loc 2 944 0
	mr 4,1
	addi 3,31,36
	stwu 9,32(4)
	subf 5,5,30
.LVL327:
	addi 6,1,8
.LVL328:
	bl _ZNSt6vectorIPKhSaIS1_EE14_M_fill_insertEN9__gnu_cxx17__normal_iteratorIPS1_S3_EEjRKS1_
.LVL329:
	b .L191
.LVL330:
.L201:
.LBE3046:
.LBE3045:
.LBE3048:
.LBE3062:
.LBE3063:
.LBE3067:
	.loc 1 126 0
	lwz 0,60(1)
.LBB3068:
.LBB3064:
	.loc 1 124 0
	li 3,1
.LBE3064:
.LBE3068:
	.loc 1 126 0
	lwz 28,40(1)
.LVL331:
	mtlr 0
	lwz 29,44(1)
	lwz 30,48(1)
.LVL332:
	lwz 31,52(1)
.LVL333:
	addi 1,1,56
	.cfi_restore 28
	.cfi_restore 29
	.cfi_restore 30
	.cfi_restore 31
.LCFI38:
	.cfi_def_cfa_offset 0
	blr
	.cfi_endproc
.LFE852:
	.size	_ZN8TplImage12ParseTplFileEv, .-_ZN8TplImage12ParseTplFileEv
	.align 2
	.globl _ZN8TplImage9LoadImageEPKhj
	.type	_ZN8TplImage9LoadImageEPKhj, @function
_ZN8TplImage9LoadImageEPKhj:
.LFB851:
	.loc 1 73 0
	.cfi_startproc
.LVL334:
	mflr 0
	stwu 1,-24(1)
.LCFI39:
	.cfi_def_cfa_offset 24
	.cfi_register 65, 0
	stw 31,20(1)
	mr 31,3
	.cfi_offset 31, -4
	stw 0,28(1)
	stw 29,12(1)
	mr 29,4
	.cfi_offset 29, -12
	.cfi_offset 65, 4
	.loc 1 74 0
	lwz 3,0(3)
.LVL335:
	.loc 1 73 0
	stw 30,16(1)
	.loc 1 73 0
	mr 30,5
	.cfi_offset 30, -8
	.loc 1 74 0
	cmpwi 7,3,0
	beq- 7,.L203
	.loc 1 75 0
	bl free
.LVL336:
.L203:
	.loc 1 80 0
	cmpwi 7,29,0
	.loc 1 77 0
	li 0,0
	stw 0,0(31)
	.loc 1 78 0
	stw 0,4(31)
	.loc 1 80 0
	beq- 7,.L204
	.loc 1 83 0
	mr 3,30
	bl malloc
	.loc 1 84 0
	cmpwi 7,3,0
	.loc 1 83 0
	stw 3,0(31)
	.loc 1 84 0
	beq- 7,.L204
.LVL337:
.LBB3071:
.LBB3072:
	.loc 1 87 0
	stw 30,4(31)
	.loc 1 89 0
	mr 4,29
	mr 5,30
	bl memcpy
.LBE3072:
.LBE3071:
	.loc 1 92 0
	lwz 0,28(1)
	lwz 29,12(1)
.LVL338:
.LBB3075:
.LBB3073:
	.loc 1 91 0
	mr 3,31
.LBE3073:
.LBE3075:
	.loc 1 92 0
	lwz 30,16(1)
.LVL339:
	mtlr 0
	lwz 31,20(1)
.LVL340:
	addi 1,1,24
	.cfi_remember_state
.LCFI40:
	.cfi_def_cfa_offset 0
	.cfi_restore 31
	.cfi_restore 30
	.cfi_restore 29
.LBB3076:
.LBB3074:
	.loc 1 91 0
	b _ZN8TplImage12ParseTplFileEv
.LVL341:
.L204:
.LCFI41:
	.cfi_restore_state
.LBE3074:
.LBE3076:
	.loc 1 92 0
	lwz 0,28(1)
	li 3,0
	lwz 29,12(1)
.LVL342:
	mtlr 0
	lwz 30,16(1)
.LVL343:
	lwz 31,20(1)
.LVL344:
	addi 1,1,24
.LCFI42:
	.cfi_def_cfa_offset 0
	.cfi_restore 31
	.cfi_restore 30
	.cfi_restore 29
	blr
	.cfi_endproc
.LFE851:
	.size	_ZN8TplImage9LoadImageEPKhj, .-_ZN8TplImage9LoadImageEPKhj
	.align 2
	.globl _ZN8TplImageC2EPKhj
	.type	_ZN8TplImageC2EPKhj, @function
_ZN8TplImageC2EPKhj:
.LFB846:
	.loc 1 51 0
	.cfi_startproc
	.cfi_personality 0,__gxx_personality_v0
	.cfi_lsda 0,.LLSDA846
.LVL345:
	stwu 1,-24(1)
.LCFI43:
	.cfi_def_cfa_offset 24
	mflr 0
	stw 29,12(1)
.LBB3136:
	.loc 1 56 0
	mr. 29,4
	.cfi_offset 29, -12
	.cfi_register 65, 0
.LBE3136:
	.loc 1 51 0
	stw 0,28(1)
.LBB3181:
.LBB3137:
.LBB3138:
.LBB3139:
.LBB3140:
	.loc 2 83 0
	li 0,0
	.cfi_offset 65, 4
.LBE3140:
.LBE3139:
.LBE3138:
.LBE3137:
.LBE3181:
	.loc 1 51 0
	stw 30,16(1)
	mr 30,5
	.cfi_offset 30, -8
	stw 31,20(1)
	.loc 1 51 0
	mr 31,3
	.cfi_offset 31, -4
.LVL346:
.LBB3182:
.LBB3144:
.LBB3143:
.LBB3142:
.LBB3141:
	.loc 2 83 0
	stw 0,12(3)
	stw 0,16(3)
	stw 0,20(3)
.LVL347:
.LBE3141:
.LBE3142:
.LBE3143:
.LBE3144:
.LBB3145:
.LBB3146:
.LBB3147:
.LBB3148:
	stw 0,24(3)
	stw 0,28(3)
	stw 0,32(3)
.LVL348:
.LBE3148:
.LBE3147:
.LBE3146:
.LBE3145:
.LBB3149:
.LBB3150:
.LBB3151:
.LBB3152:
	stw 0,36(3)
	stw 0,40(3)
	stw 0,44(3)
.LBE3152:
.LBE3151:
.LBE3150:
.LBE3149:
	.loc 1 53 0
	stw 0,0(3)
	.loc 1 54 0
	stw 0,4(3)
	.loc 1 56 0
	beq- 0,.L207
.LVL349:
.LBB3153:
.LBB3154:
	.loc 1 83 0
	mr 3,5
.LVL350:
	bl malloc
.LVL351:
	.loc 1 84 0
	cmpwi 7,3,0
	.loc 1 83 0
	stw 3,0(31)
	.loc 1 84 0
	beq- 7,.L207
.LVL352:
.LBB3155:
.LBB3156:
	.loc 1 87 0
	stw 30,4(31)
	.loc 1 89 0
	mr 4,29
	mr 5,30
	bl memcpy
	.loc 1 91 0
	mr 3,31
.LEHB0:
	bl _ZN8TplImage12ParseTplFileEv
.LEHE0:
.LVL353:
.L207:
.LBE3156:
.LBE3155:
.LBE3154:
.LBE3153:
.LBE3182:
	.loc 1 60 0
	lwz 0,28(1)
	lwz 29,12(1)
.LVL354:
	mtlr 0
	lwz 30,16(1)
.LVL355:
	lwz 31,20(1)
.LVL356:
	addi 1,1,24
	.cfi_remember_state
.LCFI44:
	.cfi_def_cfa_offset 0
	.cfi_restore 31
	.cfi_restore 30
	.cfi_restore 29
	blr
.LVL357:
.L225:
.LCFI45:
	.cfi_restore_state
.LBB3183:
.LBB3157:
	.loc 1 244 0
	lwz 0,36(31)
	mr 30,3
.LVL358:
.LBB3158:
.LBB3159:
.LBB3160:
.LBB3161:
.LBB3162:
	.loc 2 155 0
	cmpwi 7,0,0
	beq- 7,.L214
.LVL359:
.LBB3163:
.LBB3164:
	.loc 3 98 0
	mr 3,0
	bl _ZdlPv
.LVL360:
.L214:
.LBE3164:
.LBE3163:
.LBE3162:
.LBE3161:
.LBE3160:
.LBE3159:
.LBE3158:
.LBE3157:
.LBB3165:
	.loc 1 244 0
	lwz 3,24(31)
.LVL361:
.LBB3166:
.LBB3167:
.LBB3168:
.LBB3169:
.LBB3170:
	.loc 2 155 0
	cmpwi 7,3,0
	beq- 7,.L219
.LVL362:
.LBB3171:
.LBB3172:
	.loc 3 98 0
	bl _ZdlPv
.LVL363:
.L219:
.LBE3172:
.LBE3171:
.LBE3170:
.LBE3169:
.LBE3168:
.LBE3167:
.LBE3166:
.LBE3165:
.LBB3173:
	.loc 1 244 0
	lwz 3,12(31)
.LVL364:
.LBB3174:
.LBB3175:
.LBB3176:
.LBB3177:
.LBB3178:
	.loc 2 155 0
	cmpwi 7,3,0
	beq- 7,.L224
.LVL365:
.LBB3179:
.LBB3180:
	.loc 3 98 0
	bl _ZdlPv
.LVL366:
.L224:
	mr 3,30
.LEHB1:
	bl _Unwind_Resume
.LEHE1:
.LBE3180:
.LBE3179:
.LBE3178:
.LBE3177:
.LBE3176:
.LBE3175:
.LBE3174:
.LBE3173:
.LBE3183:
	.cfi_endproc
.LFE846:
	.globl __gxx_personality_v0
	.section	.gcc_except_table,"a",@progbits
.LLSDA846:
	.byte	0xff
	.byte	0xff
	.byte	0x1
	.uleb128 .LLSDACSE846-.LLSDACSB846
.LLSDACSB846:
	.uleb128 .LEHB0-.LFB846
	.uleb128 .LEHE0-.LEHB0
	.uleb128 .L225-.LFB846
	.uleb128 0
	.uleb128 .LEHB1-.LFB846
	.uleb128 .LEHE1-.LEHB1
	.uleb128 0
	.uleb128 0
.LLSDACSE846:
	.section	".text"
	.size	_ZN8TplImageC2EPKhj, .-_ZN8TplImageC2EPKhj
	.align 2
	.globl _ZN8TplImageC2EPKc
	.type	_ZN8TplImageC2EPKc, @function
_ZN8TplImageC2EPKc:
.LFB843:
	.loc 1 35 0
	.cfi_startproc
	.cfi_personality 0,__gxx_personality_v0
	.cfi_lsda 0,.LLSDA843
.LVL367:
	mflr 0
	stwu 1,-56(1)
.LCFI46:
	.cfi_def_cfa_offset 56
	.cfi_register 65, 0
.LBB3273:
	.loc 1 41 0
	li 10,0
	li 11,0
.LBE3273:
	.loc 1 35 0
	stw 31,52(1)
.LBB3301:
	.loc 1 42 0
	addi 5,1,9
.LBE3301:
	.loc 1 35 0
	stw 0,60(1)
.LBB3302:
.LBB3303:
.LBB3304:
.LBB3305:
	.loc 2 83 0
	li 0,0
	.cfi_offset 65, 4
	.cfi_offset 31, -4
.LBE3305:
.LBE3304:
.LBE3303:
.LBE3302:
	.loc 1 35 0
	stw 29,44(1)
	mr 31,3
.LVL368:
	stw 30,48(1)
.LBB3309:
.LBB3308:
.LBB3307:
.LBB3306:
	.loc 2 83 0
	stw 0,12(3)
	stw 0,16(3)
	stw 0,20(3)
.LVL369:
.LBE3306:
.LBE3307:
.LBE3308:
.LBE3309:
.LBB3310:
.LBB3311:
.LBB3312:
.LBB3313:
	stw 0,24(3)
	stw 0,28(3)
	stw 0,32(3)
.LVL370:
.LBE3313:
.LBE3312:
.LBE3311:
.LBE3310:
.LBB3314:
.LBB3315:
.LBB3316:
.LBB3317:
	stw 0,36(3)
	stw 0,40(3)
	stw 0,44(3)
.LBE3317:
.LBE3316:
.LBE3315:
.LBE3314:
.LBB3318:
	.loc 1 37 0
	stw 0,0(3)
	.loc 1 38 0
	stw 0,4(3)
	.loc 1 42 0
	addi 3,1,12
.LVL371:
	.loc 1 40 0
	stw 0,16(1)
.LVL372:
	.loc 1 41 0
	stw 10,24(1)
.LVL373:
	stw 11,28(1)
.LVL374:
.LEHB2:
	.loc 1 42 0
	.cfi_offset 30, -8
	.cfi_offset 29, -12
	bl _ZNSsC1EPKcRKSaIcE
.LEHE2:
.LVL375:
	.loc 1 42 0 is_stmt 0 discriminator 1
	addi 3,1,12
	addi 4,1,16
	addi 5,1,24
.LEHB3:
	bl _Z13LoadFileToMemSsPPhPy
.LEHE3:
.LVL376:
.LBB3274:
.LBB3275:
.LBB3276:
.LBB3277:
.LBB3278:
.LBB3279:
	.file 7 "d:\\devkitpro\\devkitppc\\bin\\../lib/gcc/powerpc-eabi/4.6.3/../../../../powerpc-eabi/include/c++/4.6.3/bits/basic_string.h"
	.loc 7 288 0 is_stmt 1
	lwz 9,12(1)
.LBE3279:
.LBE3278:
.LBE3277:
.LBB3280:
.LBB3281:
	.loc 7 235 0
	lis 11,_ZNSs4_Rep20_S_empty_rep_storageE@ha
	la 0,_ZNSs4_Rep20_S_empty_rep_storageE@l(11)
.LBE3281:
.LBE3280:
	.loc 7 534 0
	addi 3,9,-12
.LVL377:
.LBB3290:
.LBB3288:
	.loc 7 235 0
	cmpw 7,3,0
	bne- 7,.L262
.LVL378:
.L234:
.LBE3288:
.LBE3290:
.LBE3276:
.LBE3275:
.LBE3274:
	.loc 1 44 0 discriminator 1
	lwz 29,16(1)
	cmpwi 7,29,0
	beq- 7,.L226
.LBB3294:
.LBB3295:
	.loc 1 74 0
	lwz 3,0(31)
.LBE3295:
.LBE3294:
	.loc 1 46 0
	lwz 30,28(1)
.LVL379:
.LBB3299:
.LBB3298:
	.loc 1 74 0
	cmpwi 7,3,0
	beq- 7,.L236
	.loc 1 75 0
	bl free
.LVL380:
.L236:
	.loc 1 78 0
	li 0,0
	.loc 1 83 0
	mr 3,30
	.loc 1 78 0
	stw 0,4(31)
	.loc 1 83 0
	bl malloc
	.loc 1 84 0
	cmpwi 7,3,0
	.loc 1 83 0
	stw 3,0(31)
	.loc 1 84 0
	beq- 7,.L237
.LVL381:
.LBB3296:
.LBB3297:
	.loc 1 87 0
	stw 30,4(31)
	.loc 1 89 0
	mr 4,29
	mr 5,30
	bl memcpy
	.loc 1 91 0
	mr 3,31
.LEHB4:
	bl _ZN8TplImage12ParseTplFileEv
.LEHE4:
.LVL382:
.L237:
.LBE3297:
.LBE3296:
.LBE3298:
.LBE3299:
	.loc 1 47 0
	lwz 3,16(1)
	bl free
.LVL383:
.L226:
.LBE3318:
	.loc 1 49 0
	lwz 0,60(1)
	lwz 29,44(1)
	mtlr 0
	lwz 30,48(1)
	lwz 31,52(1)
.LVL384:
	addi 1,1,56
	.cfi_remember_state
.LCFI47:
	.cfi_def_cfa_offset 0
	.cfi_restore 31
	.cfi_restore 30
	.cfi_restore 29
	blr
.LVL385:
.L262:
.LCFI48:
	.cfi_restore_state
.LBB3319:
.LBB3300:
.LBB3293:
.LBB3292:
.LBB3291:
.LBB3289:
.LBB3282:
.LBB3283:
.LBB3284:
	.file 8 "d:\\devkitpro\\devkitppc\\bin\\../lib/gcc/powerpc-eabi/4.6.3/../../../../powerpc-eabi/include/c++/4.6.3/ext/atomicity.h"
	.loc 8 66 0
	lwz 11,-4(9)
.LVL386:
.LBE3284:
.LBE3283:
.LBE3282:
	.loc 7 240 0
	cmpwi 7,11,0
.LBB3287:
.LBB3286:
.LBB3285:
	.loc 8 67 0
	addi 11,11,-1
	stw 11,-4(9)
.LBE3285:
.LBE3286:
.LBE3287:
	.loc 7 240 0
	bgt+ 7,.L234
	.loc 7 244 0
	addi 4,1,8
	bl _ZNSs4_Rep10_M_destroyERKSaIcE
.LVL387:
	b .L234
.LVL388:
.L259:
	mr 30,3
.LBE3289:
.LBE3291:
.LBE3292:
.LBE3293:
.LBE3300:
	.loc 1 42 0
	addi 3,1,12
	bl _ZNSsD1Ev
	mr 3,30
.L261:
	mr 30,3
.LVL389:
.LBE3319:
.LBB3320:
	.loc 1 244 0
	lwz 3,36(31)
.LVL390:
.LBB3321:
.LBB3322:
.LBB3323:
.LBB3324:
.LBB3325:
	.loc 2 155 0
	cmpwi 7,3,0
	beq- 7,.L247
.LVL391:
.LBB3326:
.LBB3327:
	.loc 3 98 0
	bl _ZdlPv
.LVL392:
.L247:
.LBE3327:
.LBE3326:
.LBE3325:
.LBE3324:
.LBE3323:
.LBE3322:
.LBE3321:
.LBE3320:
.LBB3328:
	.loc 1 244 0
	lwz 3,24(31)
.LVL393:
.LBB3329:
.LBB3330:
.LBB3331:
.LBB3332:
.LBB3333:
	.loc 2 155 0
	cmpwi 7,3,0
	beq- 7,.L252
.LVL394:
.LBB3334:
.LBB3335:
	.loc 3 98 0
	bl _ZdlPv
.LVL395:
.L252:
.LBE3335:
.LBE3334:
.LBE3333:
.LBE3332:
.LBE3331:
.LBE3330:
.LBE3329:
.LBE3328:
.LBB3336:
	.loc 1 244 0
	lwz 3,12(31)
.LVL396:
.LBB3337:
.LBB3338:
.LBB3339:
.LBB3340:
.LBB3341:
	.loc 2 155 0
	cmpwi 7,3,0
	beq- 7,.L257
.LVL397:
.LBB3342:
.LBB3343:
	.loc 3 98 0
	bl _ZdlPv
.LVL398:
.L257:
	mr 3,30
.LEHB5:
	bl _Unwind_Resume
.LEHE5:
.LVL399:
.L258:
	b .L261
.LVL400:
.L260:
	b .L261
.LBE3343:
.LBE3342:
.LBE3341:
.LBE3340:
.LBE3339:
.LBE3338:
.LBE3337:
.LBE3336:
	.cfi_endproc
.LFE843:
	.section	.gcc_except_table
.LLSDA843:
	.byte	0xff
	.byte	0xff
	.byte	0x1
	.uleb128 .LLSDACSE843-.LLSDACSB843
.LLSDACSB843:
	.uleb128 .LEHB2-.LFB843
	.uleb128 .LEHE2-.LEHB2
	.uleb128 .L258-.LFB843
	.uleb128 0
	.uleb128 .LEHB3-.LFB843
	.uleb128 .LEHE3-.LEHB3
	.uleb128 .L259-.LFB843
	.uleb128 0
	.uleb128 .LEHB4-.LFB843
	.uleb128 .LEHE4-.LEHB4
	.uleb128 .L260-.LFB843
	.uleb128 0
	.uleb128 .LEHB5-.LFB843
	.uleb128 .LEHE5-.LEHB5
	.uleb128 0
	.uleb128 0
.LLSDACSE843:
	.section	".text"
	.size	_ZN8TplImageC2EPKc, .-_ZN8TplImageC2EPKc
	.globl _ZN8TplImageD1Ev
	.set	_ZN8TplImageD1Ev,_ZN8TplImageD2Ev
	.globl _ZN8TplImageC1EPKhj
	.set	_ZN8TplImageC1EPKhj,_ZN8TplImageC2EPKhj
	.globl _ZN8TplImageC1EPKc
	.set	_ZN8TplImageC1EPKc,_ZN8TplImageC2EPKc
	.section	.rodata.str1.4,"aMS",@progbits,1
	.align 2
.LC0:
	.string	"vector::_M_fill_insert"
	.section	".text"
.Letext0:
	.file 9 "d:\\devkitpro\\devkitppc\\bin\\../lib/gcc/powerpc-eabi/4.6.3/../../../../powerpc-eabi/include/stdint.h"
	.file 10 "d:/devkitPro/libogc/include/gctypes.h"
	.file 11 "d:/devkitPro/libogc/include/ogc/gx.h"
	.file 12 "d:\\devkitpro\\devkitppc\\bin\\../lib/gcc/powerpc-eabi/4.6.3/../../../../powerpc-eabi/include/machine/_types.h"
	.file 13 "d:\\devkitpro\\devkitppc\\bin\\../lib/gcc/powerpc-eabi/4.6.3/../../../../powerpc-eabi/include/sys/lock.h"
	.file 14 "d:\\devkitpro\\devkitppc\\bin\\../lib/gcc/powerpc-eabi/4.6.3/include/stddef.h"
	.file 15 "d:\\devkitpro\\devkitppc\\bin\\../lib/gcc/powerpc-eabi/4.6.3/../../../../powerpc-eabi/include/sys/_types.h"
	.file 16 "d:\\devkitpro\\devkitppc\\bin\\../lib/gcc/powerpc-eabi/4.6.3/../../../../powerpc-eabi/include/sys/reent.h"
	.file 17 "d:\\devkitpro\\devkitppc\\bin\\../lib/gcc/powerpc-eabi/4.6.3/../../../../powerpc-eabi/include/time.h"
	.file 18 "d:\\devkitpro\\devkitppc\\bin\\../lib/gcc/powerpc-eabi/4.6.3/../../../../powerpc-eabi/include/c++/4.6.3/cwchar"
	.file 19 "d:\\devkitpro\\devkitppc\\bin\\../lib/gcc/powerpc-eabi/4.6.3/../../../../powerpc-eabi/include/c++/4.6.3/powerpc-eabi/bits/c++config.h"
	.file 20 "d:\\devkitpro\\devkitppc\\bin\\../lib/gcc/powerpc-eabi/4.6.3/../../../../powerpc-eabi/include/c++/4.6.3/clocale"
	.file 21 "d:\\devkitpro\\devkitppc\\bin\\../lib/gcc/powerpc-eabi/4.6.3/../../../../powerpc-eabi/include/c++/4.6.3/bits/stl_construct.h"
	.file 22 "d:\\devkitpro\\devkitppc\\bin\\../lib/gcc/powerpc-eabi/4.6.3/../../../../powerpc-eabi/include/c++/4.6.3/bits/stl_uninitialized.h"
	.file 23 "d:\\devkitpro\\devkitppc\\bin\\../lib/gcc/powerpc-eabi/4.6.3/../../../../powerpc-eabi/include/c++/4.6.3/bits/cpp_type_traits.h"
	.file 24 "d:\\devkitpro\\devkitppc\\bin\\../lib/gcc/powerpc-eabi/4.6.3/../../../../powerpc-eabi/include/c++/4.6.3/debug/debug.h"
	.file 25 "<built-in>"
	.file 26 "d:\\devkitpro\\devkitppc\\bin\\../lib/gcc/powerpc-eabi/4.6.3/../../../../powerpc-eabi/include/wchar.h"
	.file 27 "d:\\devkitpro\\devkitppc\\bin\\../lib/gcc/powerpc-eabi/4.6.3/../../../../powerpc-eabi/include/c++/4.6.3/bits/char_traits.h"
	.file 28 "d:\\devkitpro\\devkitppc\\bin\\../lib/gcc/powerpc-eabi/4.6.3/../../../../powerpc-eabi/include/c++/4.6.3/bits/allocator.h"
	.file 29 "d:\\devkitpro\\devkitppc\\bin\\../lib/gcc/powerpc-eabi/4.6.3/../../../../powerpc-eabi/include/locale.h"
	.file 30 "d:\\devkitpro\\devkitppc\\bin\\../lib/gcc/powerpc-eabi/4.6.3/../../../../powerpc-eabi/include/c++/4.6.3/powerpc-eabi/bits/atomic_word.h"
	.file 31 "d:\\devkitpro\\devkitppc\\bin\\../lib/gcc/powerpc-eabi/4.6.3/../../../../powerpc-eabi/include/c++/4.6.3/ext/numeric_traits.h"
	.file 32 "d:\\devkitpro\\devkitppc\\bin\\../lib/gcc/powerpc-eabi/4.6.3/../../../../powerpc-eabi/include/c++/4.6.3/bits/basic_string.tcc"
	.file 33 "d:/devkitPro/libogc/include/gd.h"
	.file 34 "d:/Projects/SaveGameManager/savegame-manager-gx/trunk/source/ImageOperations/TplImage.h"
	.file 35 "d:\\devkitpro\\devkitppc\\bin\\../lib/gcc/powerpc-eabi/4.6.3/../../../../powerpc-eabi/include/c++/4.6.3/bits/stl_iterator_base_types.h"
	.file 36 "d:\\devkitpro\\devkitppc\\bin\\../lib/gcc/powerpc-eabi/4.6.3/../../../../powerpc-eabi/include/c++/4.6.3/ext/type_traits.h"