	.file	"update.cpp"
	.section	".text"
.Ltext0:
	.align 2
	.globl _Z11DownloadDolPKc
	.type	_Z11DownloadDolPKc, @function
_Z11DownloadDolPKc:
.LFB1503:
	.file 1 "d:/Projects/SaveGameManager/savegame-manager-gx/trunk/source/Network/update.cpp"
	.loc 1 175 0
	.cfi_startproc
	.cfi_personality 0,__gxx_personality_v0
	.cfi_lsda 0,.LLSDA1503
.LVL0:
	stwu 1,-72(1)
.LCFI0:
	.cfi_def_cfa_offset 72
	mflr 0
	stw 31,68(1)
	mr 31,1
	.cfi_offset 31, -4
	.cfi_register 65, 0
.LCFI1:
	.cfi_def_cfa_register 31
	stw 0,76(1)
	stw 25,44(1)
	stw 26,48(1)
	stw 27,52(1)
	stw 28,56(1)
	stw 29,60(1)
	stw 30,64(1)
.LEHB0:
.LBB2341:
	.loc 1 176 0
	.cfi_offset 30, -8
	.cfi_offset 29, -12
	.cfi_offset 28, -16
	.cfi_offset 27, -20
	.cfi_offset 26, -24
	.cfi_offset 25, -28
	.cfi_offset 65, 4
	bl downloadfile
.LEHE0:
.LVL1:
	.loc 1 177 0
	mr. 25,4
	.loc 1 176 0
	mr 27,3
.LVL2:
	.loc 1 177 0
	beq- 0,.L41
	.loc 1 180 0
	lis 30,Settings+494@ha
	addi 3,31,24
	la 30,Settings+494@l(30)
	addi 5,31,13
	mr 4,30
.LEHB1:
	bl _ZNSsC1EPKcRKSaIcE
.LEHE1:
	.loc 1 180 0 is_stmt 0 discriminator 1
	addi 3,31,24
.LEHB2:
	bl _Z15CreateSubfolderSs
.LEHE2:
.LVL3:
.LBB2342:
.LBB2343:
.LBB2344:
.LBB2345:
.LBB2346:
.LBB2347:
	.file 2 "d:\\devkitpro\\devkitppc\\bin\\../lib/gcc/powerpc-eabi/4.6.3/../../../../powerpc-eabi/include/c++/4.6.3/bits/basic_string.h"
	.loc 2 288 0 is_stmt 1
	lwz 9,24(31)
.LBE2347:
.LBE2346:
.LBE2345:
.LBB2348:
.LBB2349:
	.loc 2 235 0
	lis 28,_ZNSs4_Rep20_S_empty_rep_storageE@ha
	la 28,_ZNSs4_Rep20_S_empty_rep_storageE@l(28)
.LBE2349:
.LBE2348:
	.loc 2 534 0
	addi 3,9,-12
.LVL4:
.LBB2358:
.LBB2356:
	.loc 2 235 0
	cmpw 7,3,28
	bne- 7,.L52
.LVL5:
.L10:
.LBE2356:
.LBE2358:
.LBE2344:
.LBE2343:
.LBE2342:
	.loc 1 182 0 discriminator 1
	mr 3,30
	bl strlen
	lwz 9,0(1)
	addi 0,3,40
	mr 4,3
.LVL6:
	rlwinm 0,0,0,0,27
	.loc 1 183 0 discriminator 1
	lis 5,.LC0@ha
	.loc 1 182 0 discriminator 1
	neg 0,0
	.loc 1 183 0 discriminator 1
	addi 4,4,10
	.loc 1 182 0 discriminator 1
	stwux 9,1,0
	.loc 1 183 0 discriminator 1
	la 5,.LC0@l(5)
	mr 6,30
	.loc 1 182 0 discriminator 1
	addi 29,1,23
	rlwinm 29,29,0,0,27
.LVL7:
	.loc 1 183 0 discriminator 1
	mr 3,29
.LVL8:
.LEHB3:
	crxor 6,6,6
	bl snprintf
.LVL9:
	.loc 1 185 0
	lis 4,.LC1@ha
	mr 3,29
	la 4,.LC1@l(4)
	bl fopen
.LVL10:
	.loc 1 186 0
	mr. 26,3
	beq- 0,.L41
	.loc 1 189 0
	mr 3,25
.LVL11:
	li 4,1
	mr 5,27
	mr 6,26
	bl fwrite
	cmpw 7,27,3
	.loc 1 191 0
	mr 3,26
	.loc 1 189 0
	beq- 7,.L11
	.loc 1 191 0
	bl fclose
.LEHE3:
	.loc 1 192 0
	addi 3,31,20
	mr 4,29
	addi 5,31,12
.LEHB4:
	bl _ZNSsC1EPKcRKSaIcE
.LEHE4:
	.loc 1 192 0 is_stmt 0 discriminator 1
	addi 3,31,20
.LEHB5:
	bl _Z10RemoveFileSs
.LEHE5:
.LVL12:
.LBB2362:
.LBB2363:
.LBB2364:
.LBB2365:
.LBB2366:
.LBB2367:
	.loc 2 288 0 is_stmt 1
	lwz 9,20(31)
.LBE2367:
.LBE2366:
.LBE2365:
.LBB2368:
.LBB2369:
	.loc 1 193 0
	li 30,0
.LBE2369:
.LBE2368:
	.loc 2 534 0
	addi 3,9,-12
.LVL13:
.LBB2378:
.LBB2376:
	.loc 2 235 0
	cmpw 7,3,28
	bne- 7,.L53
.LVL14:
.L26:
.LBE2376:
.LBE2378:
.LBE2364:
.LBE2363:
.LBE2362:
.LBE2341:
	.loc 1 203 0
	addi 11,31,72
	mr 3,30
	lwz 0,4(11)
	lwz 25,-28(11)
	mtlr 0
	lwz 26,-24(11)
.LVL15:
	lwz 27,-20(11)
	lwz 28,-16(11)
	lwz 29,-12(11)
.LVL16:
	lwz 30,-8(11)
	lwz 31,-4(11)
	.cfi_remember_state
.LCFI2:
	.cfi_def_cfa 11, 0
	mr 1,11
.LCFI3:
	.cfi_def_cfa_register 1
	.cfi_restore 31
	.cfi_restore 30
	.cfi_restore 29
	.cfi_restore 28
	.cfi_restore 27
	.cfi_restore 26
	.cfi_restore 25
	blr
.LVL17:
.L41:
.LCFI4:
	.cfi_restore_state
	addi 11,31,72
.LBB2403:
	.loc 1 187 0
	li 30,0
.LBE2403:
	.loc 1 203 0
	lwz 0,4(11)
	mr 3,30
	lwz 25,-28(11)
	mtlr 0
	lwz 26,-24(11)
	lwz 27,-20(11)
	lwz 28,-16(11)
	lwz 29,-12(11)
	lwz 30,-8(11)
	lwz 31,-4(11)
	.cfi_remember_state
.LCFI5:
	.cfi_def_cfa 11, 0
	mr 1,11
	.cfi_restore 25
	.cfi_restore 26
	.cfi_restore 27
	.cfi_restore 28
	.cfi_restore 29
	.cfi_restore 30
	.cfi_restore 31
.LCFI6:
	.cfi_def_cfa_register 1
	blr
.LVL18:
.L11:
.LCFI7:
	.cfi_restore_state
.LEHB6:
.LBB2404:
	.loc 1 195 0
	bl fclose
.LVL19:
	.loc 1 197 0
	mr 3,29
	bl strlen
	lwz 9,0(1)
	addi 0,3,31
	mr 4,3
.LVL20:
	rlwinm 0,0,0,0,27
	.loc 1 198 0
	lis 5,.LC2@ha
	.loc 1 197 0
	neg 0,0
	.loc 1 198 0
	addi 4,4,1
	.loc 1 197 0
	stwux 9,1,0
	.loc 1 198 0
	la 5,.LC2@l(5)
	mr 6,30
	.loc 1 197 0
	addi 27,1,23
	rlwinm 27,27,0,0,27
.LVL21:
	.loc 1 198 0
	mr 3,27
.LVL22:
	crxor 6,6,6
	bl snprintf
.LEHE6:
.LVL23:
	.loc 1 199 0
	addi 3,31,16
	mr 4,27
	addi 5,31,11
.LEHB7:
	bl _ZNSsC1EPKcRKSaIcE
.LEHE7:
	.loc 1 199 0 is_stmt 0 discriminator 1
	addi 3,31,16
.LEHB8:
	bl _Z10RemoveFileSs
.LEHE8:
.LVL24:
.LBB2382:
.LBB2383:
.LBB2384:
.LBB2385:
.LBB2386:
.LBB2387:
	.loc 2 288 0 is_stmt 1
	lwz 9,16(31)
.LBE2387:
.LBE2386:
.LBE2385:
	.loc 2 534 0
	addi 3,9,-12
.LVL25:
.LBB2388:
.LBB2389:
	.loc 2 235 0
	cmpw 7,3,28
	bne- 7,.L54
.LVL26:
.L19:
.LBE2389:
.LBE2388:
.LBE2384:
.LBE2383:
.LBE2382:
	.loc 1 200 0 discriminator 1
	mr 3,29
	mr 4,27
.LEHB9:
	bl rename
.LEHE9:
.LBE2404:
	.loc 1 203 0
	addi 11,31,72
.LBB2405:
	.loc 1 202 0
	li 30,1
.LBE2405:
	.loc 1 203 0
	lwz 0,4(11)
	mr 3,30
	lwz 25,-28(11)
	mtlr 0
	lwz 26,-24(11)
.LVL27:
	lwz 27,-20(11)
.LVL28:
	lwz 28,-16(11)
	lwz 29,-12(11)
.LVL29:
	lwz 30,-8(11)
	lwz 31,-4(11)
	.cfi_remember_state
.LCFI8:
	.cfi_def_cfa 11, 0
	mr 1,11
	.cfi_restore 25
	.cfi_restore 26
	.cfi_restore 27
	.cfi_restore 28
	.cfi_restore 29
	.cfi_restore 30
	.cfi_restore 31
.LCFI9:
	.cfi_def_cfa_register 1
	blr
.LVL30:
.L52:
.LCFI10:
	.cfi_restore_state
.LBB2406:
.LBB2400:
.LBB2361:
.LBB2360:
.LBB2359:
.LBB2357:
.LBB2350:
.LBB2351:
.LBB2352:
	.file 3 "d:\\devkitpro\\devkitppc\\bin\\../lib/gcc/powerpc-eabi/4.6.3/../../../../powerpc-eabi/include/c++/4.6.3/ext/atomicity.h"
	.loc 3 66 0
	lwz 11,-4(9)
.LVL31:
.LBE2352:
.LBE2351:
.LBE2350:
	.loc 2 240 0
	cmpwi 7,11,0
.LBB2355:
.LBB2354:
.LBB2353:
	.loc 3 67 0
	addi 11,11,-1
	stw 11,-4(9)
.LBE2353:
.LBE2354:
.LBE2355:
	.loc 2 240 0
	bgt+ 7,.L10
	.loc 2 244 0
	addi 4,31,10
	bl _ZNSs4_Rep10_M_destroyERKSaIcE
.LVL32:
	b .L10
.LVL33:
.L53:
.LBE2357:
.LBE2359:
.LBE2360:
.LBE2361:
.LBE2400:
.LBB2401:
.LBB2381:
.LBB2380:
.LBB2379:
.LBB2377:
.LBB2370:
.LBB2371:
.LBB2372:
	.loc 3 66 0
	lwz 11,-4(9)
.LVL34:
.LBE2372:
.LBE2371:
.LBE2370:
	.loc 2 240 0
	cmpwi 7,11,0
.LBB2375:
.LBB2374:
.LBB2373:
	.loc 3 67 0
	addi 11,11,-1
	stw 11,-4(9)
.LBE2373:
.LBE2374:
.LBE2375:
	.loc 2 240 0
	bgt+ 7,.L26
	.loc 2 244 0
	addi 4,31,9
	bl _ZNSs4_Rep10_M_destroyERKSaIcE
.LVL35:
	b .L26
.LVL36:
.L54:
.LBE2377:
.LBE2379:
.LBE2380:
.LBE2381:
.LBE2401:
.LBB2402:
.LBB2399:
.LBB2398:
.LBB2397:
.LBB2396:
.LBB2390:
.LBB2391:
.LBB2392:
	.loc 3 66 0
	lwz 11,-4(9)
.LVL37:
.LBE2392:
.LBE2391:
.LBE2390:
	.loc 2 240 0
	cmpwi 7,11,0
.LBB2395:
.LBB2394:
.LBB2393:
	.loc 3 67 0
	addi 11,11,-1
	stw 11,-4(9)
.LBE2393:
.LBE2394:
.LBE2395:
	.loc 2 240 0
	bgt+ 7,.L19
	.loc 2 244 0
	addi 4,31,8
	bl _ZNSs4_Rep10_M_destroyERKSaIcE
.LVL38:
	b .L19
.LVL39:
.L47:
.L31:
.LEHB10:
.LBE2396:
.LBE2397:
.LBE2398:
.LBE2399:
.LBE2402:
	.loc 1 199 0
	bl _Unwind_Resume
.LEHE10:
.L45:
	b .L31
.LVL40:
.L48:
	mr 30,3
	.loc 1 192 0
	addi 3,31,20
	bl _ZNSsD1Ev
	mr 3,30
	b .L31
.LVL41:
.L50:
	mr 30,3
	.loc 1 199 0
	addi 3,31,16
	bl _ZNSsD1Ev
	mr 3,30
	b .L31
.L49:
	b .L31
.LVL42:
.L44:
	b .L31
.L46:
	mr 30,3
	.loc 1 180 0
	addi 3,31,24
	bl _ZNSsD1Ev
	mr 3,30
	b .L31
.LBE2406:
	.cfi_endproc
.LFE1503:
	.globl __gxx_personality_v0
	.section	.gcc_except_table,"a",@progbits
.LLSDA1503:
	.byte	0xff
	.byte	0xff
	.byte	0x1
	.uleb128 .LLSDACSE1503-.LLSDACSB1503
.LLSDACSB1503:
	.uleb128 .LEHB0-.LFB1503
	.uleb128 .LEHE0-.LEHB0
	.uleb128 .L44-.LFB1503
	.uleb128 0
	.uleb128 .LEHB1-.LFB1503
	.uleb128 .LEHE1-.LEHB1
	.uleb128 .L45-.LFB1503
	.uleb128 0
	.uleb128 .LEHB2-.LFB1503
	.uleb128 .LEHE2-.LEHB2
	.uleb128 .L46-.LFB1503
	.uleb128 0
	.uleb128 .LEHB3-.LFB1503
	.uleb128 .LEHE3-.LEHB3
	.uleb128 .L44-.LFB1503
	.uleb128 0
	.uleb128 .LEHB4-.LFB1503
	.uleb128 .LEHE4-.LEHB4
	.uleb128 .L47-.LFB1503
	.uleb128 0
	.uleb128 .LEHB5-.LFB1503
	.uleb128 .LEHE5-.LEHB5
	.uleb128 .L48-.LFB1503
	.uleb128 0
	.uleb128 .LEHB6-.LFB1503
	.uleb128 .LEHE6-.LEHB6
	.uleb128 .L44-.LFB1503
	.uleb128 0
	.uleb128 .LEHB7-.LFB1503
	.uleb128 .LEHE7-.LEHB7
	.uleb128 .L49-.LFB1503
	.uleb128 0
	.uleb128 .LEHB8-.LFB1503
	.uleb128 .LEHE8-.LEHB8
	.uleb128 .L50-.LFB1503
	.uleb128 0
	.uleb128 .LEHB9-.LFB1503
	.uleb128 .LEHE9-.LEHB9
	.uleb128 .L44-.LFB1503
	.uleb128 0
	.uleb128 .LEHB10-.LFB1503
	.uleb128 .LEHE10-.LEHB10
	.uleb128 0
	.uleb128 0
.LLSDACSE1503:
	.section	".text"
	.size	_Z11DownloadDolPKc, .-_Z11DownloadDolPKc
	.align 2
	.globl _Z13UpdateMetaXmlv
	.type	_Z13UpdateMetaXmlv, @function
_Z13UpdateMetaXmlv:
.LFB1505:
	.loc 1 282 0
	.cfi_startproc
	.cfi_personality 0,__gxx_personality_v0
	.cfi_lsda 0,.LLSDA1505
	mflr 0
	stwu 1,-1064(1)
.LCFI11:
	.cfi_def_cfa_offset 1064
	.cfi_register 65, 0
.LBB2433:
	.loc 1 283 0
	lis 3,.LANCHOR0@ha
	la 3,.LANCHOR0@l(3)
.LBE2433:
	.loc 1 282 0
	stw 29,1052(1)
	stw 30,1056(1)
	stw 0,1068(1)
	stw 31,1060(1)
.LEHB11:
.LBB2455:
	.loc 1 283 0
	.cfi_offset 31, -4
	.cfi_offset 65, 4
	.cfi_offset 30, -8
	.cfi_offset 29, -12
	bl downloadfile
.LVL43:
	.loc 1 284 0
	mr. 30,4
	.loc 1 283 0
	mr 29,3
.LVL44:
	.loc 1 284 0
	beq- 0,.L66
	.loc 1 287 0
	lis 31,Settings+494@ha
	addi 3,1,12
	la 31,Settings+494@l(31)
	addi 5,1,9
	mr 4,31
.LVL45:
	bl _ZNSsC1EPKcRKSaIcE
.LEHE11:
	addi 3,1,12
.LEHB12:
	bl _Z15CreateSubfolderSs
.LEHE12:
.LVL46:
.LBB2434:
.LBB2435:
.LBB2436:
.LBB2437:
.LBB2438:
.LBB2439:
	.loc 2 288 0
	lwz 9,12(1)
.LBE2439:
.LBE2438:
.LBE2437:
.LBB2440:
.LBB2441:
	.loc 2 235 0
	lis 11,_ZNSs4_Rep20_S_empty_rep_storageE@ha
	la 0,_ZNSs4_Rep20_S_empty_rep_storageE@l(11)
.LBE2441:
.LBE2440:
	.loc 2 534 0
	addi 3,9,-12
.LVL47:
.LBB2450:
.LBB2448:
	.loc 2 235 0
	cmpw 7,3,0
	bne- 7,.L69
.LVL48:
.L64:
.LBE2448:
.LBE2450:
.LBE2436:
.LBE2435:
.LBE2434:
	.loc 1 290 0 discriminator 1
	lis 5,.LC3@ha
	mr 6,31
	li 4,1024
	la 5,.LC3@l(5)
	addi 3,1,16
.LEHB13:
	crxor 6,6,6
	bl snprintf
	.loc 1 291 0 discriminator 1
	lis 4,.LC1@ha
	addi 3,1,16
	la 4,.LC1@l(4)
	bl fopen
.LVL49:
	.loc 1 292 0 discriminator 1
	mr. 31,3
	.loc 1 293 0 discriminator 1
	li 3,0
.LVL50:
	.loc 1 292 0 discriminator 1
	beq- 0,.L56
	.loc 1 295 0
	li 4,1
.LVL51:
	mr 5,29
	mr 6,31
	mr 3,30
	bl fwrite
	.loc 1 296 0
	mr 3,31
	bl fclose
	.loc 1 298 0
	li 3,1
.L56:
.LBE2455:
	.loc 1 299 0
	lwz 0,1068(1)
	lwz 29,1052(1)
	mtlr 0
	lwz 30,1056(1)
.LVL52:
	lwz 31,1060(1)
.LVL53:
	addi 1,1,1064
	.cfi_remember_state
.LCFI12:
	.cfi_def_cfa_offset 0
	.cfi_restore 31
	.cfi_restore 30
	.cfi_restore 29
	blr
.LVL54:
.L66:
.LCFI13:
	.cfi_restore_state
	lwz 0,1068(1)
.LBB2456:
	.loc 1 285 0
	li 3,0
.LBE2456:
	.loc 1 299 0
	lwz 29,1052(1)
	mtlr 0
	lwz 30,1056(1)
	lwz 31,1060(1)
	addi 1,1,1064
	.cfi_remember_state
	.cfi_restore 29
	.cfi_restore 30
	.cfi_restore 31
.LCFI14:
	.cfi_def_cfa_offset 0
	blr
.LVL55:
.L69:
.LCFI15:
	.cfi_restore_state
.LBB2457:
.LBB2454:
.LBB2453:
.LBB2452:
.LBB2451:
.LBB2449:
.LBB2442:
.LBB2443:
.LBB2444:
	.loc 3 66 0
	lwz 11,-4(9)
.LVL56:
.LBE2444:
.LBE2443:
.LBE2442:
	.loc 2 240 0
	cmpwi 7,11,0
.LBB2447:
.LBB2446:
.LBB2445:
	.loc 3 67 0
	addi 11,11,-1
	stw 11,-4(9)
.LBE2445:
.LBE2446:
.LBE2447:
	.loc 2 240 0
	bgt+ 7,.L64
	.loc 2 244 0
	addi 4,1,8
	bl _ZNSs4_Rep10_M_destroyERKSaIcE
.LVL57:
	b .L64
.LVL58:
.L68:
	mr 31,3
.LBE2449:
.LBE2451:
.LBE2452:
.LBE2453:
.LBE2454:
	.loc 1 287 0
	addi 3,1,12
	bl _ZNSsD1Ev
	mr 3,31
	bl _Unwind_Resume
.LEHE13:
.LBE2457:
	.cfi_endproc
.LFE1505:
	.section	.gcc_except_table
.LLSDA1505:
	.byte	0xff
	.byte	0xff
	.byte	0x1
	.uleb128 .LLSDACSE1505-.LLSDACSB1505
.LLSDACSB1505:
	.uleb128 .LEHB11-.LFB1505
	.uleb128 .LEHE11-.LEHB11
	.uleb128 0
	.uleb128 0
	.uleb128 .LEHB12-.LFB1505
	.uleb128 .LEHE12-.LEHB12
	.uleb128 .L68-.LFB1505
	.uleb128 0
	.uleb128 .LEHB13-.LFB1505
	.uleb128 .LEHE13-.LEHB13
	.uleb128 0
	.uleb128 0
.LLSDACSE1505:
	.section	".text"
	.size	_Z13UpdateMetaXmlv, .-_Z13UpdateMetaXmlv
	.align 2
	.globl _Z13UpdateIconPNGv
	.type	_Z13UpdateIconPNGv, @function
_Z13UpdateIconPNGv:
.LFB1506:
	.loc 1 305 0
	.cfi_startproc
	.cfi_personality 0,__gxx_personality_v0
	.cfi_lsda 0,.LLSDA1506
	mflr 0
	stwu 1,-2088(1)
.LCFI16:
	.cfi_def_cfa_offset 2088
	.cfi_register 65, 0
.LBB2484:
	.loc 1 307 0
	lis 4,.LC4@ha
.LBE2484:
	.loc 1 305 0
	stw 31,2084(1)
.LBB2506:
	.loc 1 307 0
	lis 31,Settings@ha
	.cfi_offset 31, -4
.LBE2506:
	.loc 1 305 0
	stw 0,2092(1)
.LBB2507:
	.loc 1 307 0
	la 31,Settings@l(31)
	la 4,.LC4@l(4)
	addi 3,1,1040
	lha 5,1310(31)
.LBE2507:
	.loc 1 305 0
	stw 29,2076(1)
	stw 30,2080(1)
.LBB2508:
	.loc 1 307 0
	.cfi_offset 30, -8
	.cfi_offset 29, -12
	.cfi_offset 65, 4
	crxor 6,6,6
	bl sprintf
	.loc 1 309 0
	addi 3,1,1040
.LEHB14:
	bl downloadfile
.LVL59:
	.loc 1 310 0
	mr. 30,4
	.loc 1 309 0
	mr 29,3
.LVL60:
	.loc 1 310 0
	beq- 0,.L81
	.loc 1 313 0
	addi 31,31,494
	addi 3,1,12
	mr 4,31
.LVL61:
	addi 5,1,9
	bl _ZNSsC1EPKcRKSaIcE
.LEHE14:
	addi 3,1,12
.LEHB15:
	bl _Z15CreateSubfolderSs
.LEHE15:
.LVL62:
.LBB2485:
.LBB2486:
.LBB2487:
.LBB2488:
.LBB2489:
.LBB2490:
	.loc 2 288 0
	lwz 9,12(1)
.LBE2490:
.LBE2489:
.LBE2488:
.LBB2491:
.LBB2492:
	.loc 2 235 0
	lis 11,_ZNSs4_Rep20_S_empty_rep_storageE@ha
	la 0,_ZNSs4_Rep20_S_empty_rep_storageE@l(11)
.LBE2492:
.LBE2491:
	.loc 2 534 0
	addi 3,9,-12
.LVL63:
.LBB2501:
.LBB2499:
	.loc 2 235 0
	cmpw 7,3,0
	bne- 7,.L84
.LVL64:
.L79:
.LBE2499:
.LBE2501:
.LBE2487:
.LBE2486:
.LBE2485:
	.loc 1 316 0 discriminator 1
	lis 5,.LC5@ha
	mr 6,31
	li 4,1024
	la 5,.LC5@l(5)
	addi 3,1,16
.LEHB16:
	crxor 6,6,6
	bl snprintf
	.loc 1 317 0 discriminator 1
	lis 4,.LC1@ha
	addi 3,1,16
	la 4,.LC1@l(4)
	bl fopen
.LVL65:
	.loc 1 318 0 discriminator 1
	mr. 31,3
	.loc 1 319 0 discriminator 1
	li 3,0
.LVL66:
	.loc 1 318 0 discriminator 1
	beq- 0,.L71
	.loc 1 321 0
	li 4,1
.LVL67:
	mr 5,29
	mr 6,31
	mr 3,30
	bl fwrite
	.loc 1 322 0
	mr 3,31
	bl fclose
	.loc 1 324 0
	li 3,1
.L71:
.LBE2508:
	.loc 1 325 0
	lwz 0,2092(1)
	lwz 29,2076(1)
	mtlr 0
	lwz 30,2080(1)
.LVL68:
	lwz 31,2084(1)
.LVL69:
	addi 1,1,2088
	.cfi_remember_state
.LCFI17:
	.cfi_def_cfa_offset 0
	.cfi_restore 31
	.cfi_restore 30
	.cfi_restore 29
	blr
.LVL70:
.L81:
.LCFI18:
	.cfi_restore_state
	lwz 0,2092(1)
.LBB2509:
	.loc 1 311 0
	li 3,0
.LBE2509:
	.loc 1 325 0
	lwz 29,2076(1)
	mtlr 0
	lwz 30,2080(1)
	lwz 31,2084(1)
	addi 1,1,2088
	.cfi_remember_state
	.cfi_restore 29
	.cfi_restore 30
	.cfi_restore 31
.LCFI19:
	.cfi_def_cfa_offset 0
	blr
.LVL71:
.L84:
.LCFI20:
	.cfi_restore_state
.LBB2510:
.LBB2505:
.LBB2504:
.LBB2503:
.LBB2502:
.LBB2500:
.LBB2493:
.LBB2494:
.LBB2495:
	.loc 3 66 0
	lwz 11,-4(9)
.LVL72:
.LBE2495:
.LBE2494:
.LBE2493:
	.loc 2 240 0
	cmpwi 7,11,0
.LBB2498:
.LBB2497:
.LBB2496:
	.loc 3 67 0
	addi 11,11,-1
	stw 11,-4(9)
.LBE2496:
.LBE2497:
.LBE2498:
	.loc 2 240 0
	bgt+ 7,.L79
	.loc 2 244 0
	addi 4,1,8
	bl _ZNSs4_Rep10_M_destroyERKSaIcE
.LVL73:
	b .L79
.LVL74:
.L83:
	mr 31,3
.LBE2500:
.LBE2502:
.LBE2503:
.LBE2504:
.LBE2505:
	.loc 1 313 0
	addi 3,1,12
	bl _ZNSsD1Ev
	mr 3,31
	bl _Unwind_Resume
.LEHE16:
.LBE2510:
	.cfi_endproc
.LFE1506:
	.section	.gcc_except_table
.LLSDA1506:
	.byte	0xff
	.byte	0xff
	.byte	0x1
	.uleb128 .LLSDACSE1506-.LLSDACSB1506
.LLSDACSB1506:
	.uleb128 .LEHB14-.LFB1506
	.uleb128 .LEHE14-.LEHB14
	.uleb128 0
	.uleb128 0
	.uleb128 .LEHB15-.LFB1506
	.uleb128 .LEHE15-.LEHB15
	.uleb128 .L83-.LFB1506
	.uleb128 0
	.uleb128 .LEHB16-.LFB1506
	.uleb128 .LEHE16-.LEHB16
	.uleb128 0
	.uleb128 0
.LLSDACSE1506:
	.section	".text"
	.size	_Z13UpdateIconPNGv, .-_Z13UpdateIconPNGv
	.align 2
	.globl _Z13UpdateGameTDBP12UpdateWindow
	.type	_Z13UpdateGameTDBP12UpdateWindow, @function
_Z13UpdateGameTDBP12UpdateWindow:
.LFB1507:
	.loc 1 331 0
	.cfi_startproc
	.cfi_personality 0,__gxx_personality_v0
	.cfi_lsda 0,.LLSDA1507
.LVL75:
	stwu 1,-1088(1)
.LCFI21:
	.cfi_def_cfa_offset 1088
	mflr 0
	stw 29,1076(1)
	mr 29,3
	.cfi_offset 29, -12
	.cfi_register 65, 0
.LBB2616:
	.loc 1 332 0
	lis 3,.LANCHOR0@ha
.LVL76:
.LBE2616:
	.loc 1 331 0
	stw 27,1068(1)
.LBB2692:
	.loc 1 332 0
	la 3,.LANCHOR0@l(3)
.LBE2692:
	.loc 1 331 0
	stw 28,1072(1)
.LBB2693:
	.loc 1 332 0
	addi 3,3,1024
.LBE2693:
	.loc 1 331 0
	stw 0,1092(1)
	stw 26,1064(1)
	stw 30,1080(1)
	stw 31,1084(1)
.LEHB17:
.LBB2694:
	.loc 1 332 0
	.cfi_offset 31, -4
	.cfi_offset 30, -8
	.cfi_offset 26, -24
	.cfi_offset 65, 4
	.cfi_offset 28, -16
	.cfi_offset 27, -20
	bl downloadfile
.LVL77:
	.loc 1 333 0
	mr. 28,4
	.loc 1 332 0
	mr 27,3
.LVL78:
	.loc 1 333 0
	beq- 0,.L128
	.loc 1 336 0
	lis 30,Settings+2068@ha
	addi 3,1,28
	la 30,Settings+2068@l(30)
	addi 5,1,15
	mr 4,30
.LVL79:
	bl _ZNSsC1EPKcRKSaIcE
.LEHE17:
	addi 3,1,28
.LEHB18:
	bl _Z15CreateSubfolderSs
.LEHE18:
.LVL80:
.LBB2617:
.LBB2618:
.LBB2619:
.LBB2620:
.LBB2621:
.LBB2622:
	.loc 2 288 0
	lwz 9,28(1)
.LBE2622:
.LBE2621:
.LBE2620:
.LBB2623:
.LBB2624:
	.loc 2 235 0
	lis 31,_ZNSs4_Rep20_S_empty_rep_storageE@ha
	la 31,_ZNSs4_Rep20_S_empty_rep_storageE@l(31)
.LBE2624:
.LBE2623:
	.loc 2 534 0
	addi 3,9,-12
.LVL81:
.LBB2633:
.LBB2631:
	.loc 2 235 0
	cmpw 7,3,31
	bne- 7,.L136
.LVL82:
.L94:
.LBE2631:
.LBE2633:
.LBE2619:
.LBE2618:
.LBE2617:
	.loc 1 339 0 discriminator 1
	lis 5,.LC6@ha
	li 4,1024
	la 5,.LC6@l(5)
	mr 6,30
	addi 3,1,32
.LEHB19:
	crxor 6,6,6
	bl snprintf
	.loc 1 341 0 discriminator 1
	lis 4,.LC1@ha
	addi 3,1,32
	la 4,.LC1@l(4)
	bl fopen
.LVL83:
	.loc 1 342 0 discriminator 1
	mr. 26,3
	beq- 0,.L128
	.loc 1 345 0
	li 4,1
.LVL84:
	mr 5,27
	mr 6,26
	mr 3,28
.LVL85:
	bl fwrite
.LVL86:
	.loc 1 346 0
	mr 3,26
	bl fclose
	.loc 1 349 0
	lis 3,.LC7@ha
	la 3,.LC7@l(3)
	bl gettext
	addi 5,1,14
	mr 4,3
	addi 3,1,24
	bl _ZNSsC1EPKcRKSaIcE
.LEHE19:
	lis 4,.LC8@ha
	addi 3,1,20
	la 4,.LC8@l(4)
	addi 5,1,13
.LEHB20:
	bl _ZNSsC1EPKcRKSaIcE
.LEHE20:
	.loc 1 349 0 is_stmt 0 discriminator 2
	mr 3,29
	addi 4,1,24
	addi 5,1,20
.LEHB21:
	bl _ZN12UpdateWindow12ShowThrobberESsSs
.LEHE21:
.LVL87:
.LBB2637:
.LBB2638:
.LBB2639:
.LBB2640:
.LBB2641:
.LBB2642:
	.loc 2 288 0 is_stmt 1
	lwz 9,20(1)
.LBE2642:
.LBE2641:
.LBE2640:
	.loc 2 534 0
	addi 3,9,-12
.LVL88:
.LBB2643:
.LBB2644:
	.loc 2 235 0
	cmpw 7,3,31
	bne- 7,.L137
.LVL89:
.L102:
.LBE2644:
.LBE2643:
.LBE2639:
.LBE2638:
.LBE2637:
.LBB2655:
.LBB2656:
.LBB2657:
.LBB2658:
.LBB2659:
.LBB2660:
	.loc 2 288 0
	lwz 9,24(1)
.LBE2660:
.LBE2659:
.LBE2658:
	.loc 2 534 0
	addi 3,9,-12
.LVL90:
.LBB2661:
.LBB2662:
	.loc 2 235 0
	cmpw 7,3,31
	bne- 7,.L138
.LVL91:
.L110:
.LBE2662:
.LBE2661:
.LBE2657:
.LBE2656:
.LBE2655:
	.loc 1 350 0 discriminator 1
	li 3,32
.LEHB22:
	bl _Znwj
.LEHE22:
	addi 4,1,32
	li 5,1
	mr 29,3
.LVL92:
.LEHB23:
	bl _ZN7ZipFileC1EPKcs
.LEHE23:
.LVL93:
	.loc 1 352 0 discriminator 1
	mr 3,29
	mr 4,30
	li 5,0
.LEHB24:
	bl _ZN7ZipFile10ExtractAllEPKcb
	cmpwi 7,3,0
	blt- 7,.L128
	.loc 1 355 0
	cmpwi 7,29,0
	beq- 7,.L111
	.loc 1 355 0 is_stmt 0 discriminator 1
	mr 3,29
	bl _ZN7ZipFileD1Ev
	mr 3,29
	bl _ZdlPv
.L111:
	.loc 1 357 0 is_stmt 1
	addi 3,1,16
	addi 4,1,32
	addi 5,1,12
	bl _ZNSsC1EPKcRKSaIcE
.LEHE24:
	addi 3,1,16
.LEHB25:
	bl _Z10RemoveFileSs
.LEHE25:
.LVL94:
.LBB2673:
.LBB2674:
.LBB2675:
.LBB2676:
.LBB2677:
.LBB2678:
	.loc 2 288 0
	lwz 9,16(1)
.LBE2678:
.LBE2677:
.LBE2676:
.LBB2679:
.LBB2680:
	.loc 1 359 0
	li 30,1
.LBE2680:
.LBE2679:
	.loc 2 534 0
	addi 3,9,-12
.LVL95:
.LBB2688:
.LBB2687:
	.loc 2 235 0
	cmpw 7,3,31
	beq+ 7,.L118
.LVL96:
.LBB2681:
.LBB2682:
.LBB2683:
	.loc 3 66 0
	lwz 11,-4(9)
.LVL97:
.LBE2683:
.LBE2682:
.LBE2681:
	.loc 2 240 0
	cmpwi 7,11,0
.LBB2686:
.LBB2685:
.LBB2684:
	.loc 3 67 0
	addi 11,11,-1
	stw 11,-4(9)
.LBE2684:
.LBE2685:
.LBE2686:
	.loc 2 240 0
	bgt+ 7,.L118
	.loc 2 244 0
	addi 4,1,8
	bl _ZNSs4_Rep10_M_destroyERKSaIcE
.LVL98:
	b .L118
.LVL99:
.L128:
.LBE2687:
.LBE2688:
.LBE2675:
.LBE2674:
.LBE2673:
	.loc 1 353 0
	li 30,0
.L118:
.LBE2694:
	.loc 1 360 0
	lwz 0,1092(1)
	mr 3,30
	lwz 26,1064(1)
	mtlr 0
	lwz 27,1068(1)
	lwz 28,1072(1)
.LVL100:
	lwz 29,1076(1)
	lwz 30,1080(1)
	lwz 31,1084(1)
	addi 1,1,1088
	.cfi_remember_state
.LCFI22:
	.cfi_def_cfa_offset 0
	.cfi_restore 31
	.cfi_restore 30
	.cfi_restore 29
	.cfi_restore 28
	.cfi_restore 27
	.cfi_restore 26
	blr
.LVL101:
.L136:
.LCFI23:
	.cfi_restore_state
.LBB2695:
.LBB2689:
.LBB2636:
.LBB2635:
.LBB2634:
.LBB2632:
.LBB2625:
.LBB2626:
.LBB2627:
	.loc 3 66 0
	lwz 11,-4(9)
.LVL102:
.LBE2627:
.LBE2626:
.LBE2625:
	.loc 2 240 0
	cmpwi 7,11,0
.LBB2630:
.LBB2629:
.LBB2628:
	.loc 3 67 0
	addi 11,11,-1
	stw 11,-4(9)
.LBE2628:
.LBE2629:
.LBE2630:
	.loc 2 240 0
	bgt+ 7,.L94
	.loc 2 244 0
	addi 4,1,11
	bl _ZNSs4_Rep10_M_destroyERKSaIcE
.LVL103:
	b .L94
.LVL104:
.L138:
.LBE2632:
.LBE2634:
.LBE2635:
.LBE2636:
.LBE2689:
.LBB2690:
.LBB2672:
.LBB2671:
.LBB2670:
.LBB2669:
.LBB2663:
.LBB2664:
.LBB2665:
	.loc 3 66 0
	lwz 11,-4(9)
.LVL105:
.LBE2665:
.LBE2664:
.LBE2663:
	.loc 2 240 0
	cmpwi 7,11,0
.LBB2668:
.LBB2667:
.LBB2666:
	.loc 3 67 0
	addi 11,11,-1
	stw 11,-4(9)
.LBE2666:
.LBE2667:
.LBE2668:
	.loc 2 240 0
	bgt+ 7,.L110
	.loc 2 244 0
	addi 4,1,9
	bl _ZNSs4_Rep10_M_destroyERKSaIcE
.LVL106:
	b .L110
.LVL107:
.L137:
.LBE2669:
.LBE2670:
.LBE2671:
.LBE2672:
.LBE2690:
.LBB2691:
.LBB2654:
.LBB2653:
.LBB2652:
.LBB2651:
.LBB2645:
.LBB2646:
.LBB2647:
	.loc 3 66 0
	lwz 11,-4(9)
.LVL108:
.LBE2647:
.LBE2646:
.LBE2645:
	.loc 2 240 0
	cmpwi 7,11,0
.LBB2650:
.LBB2649:
.LBB2648:
	.loc 3 67 0
	addi 11,11,-1
	stw 11,-4(9)
.LBE2648:
.LBE2649:
.LBE2650:
	.loc 2 240 0
	bgt+ 7,.L102
	.loc 2 244 0
	addi 4,1,10
	bl _ZNSs4_Rep10_M_destroyERKSaIcE
.LVL109:
	b .L102
.LVL110:
.L134:
	mr 31,3
.LBE2651:
.LBE2652:
.LBE2653:
.LBE2654:
.LBE2691:
	.loc 1 350 0
	mr 3,29
	bl _ZdlPv
	mr 3,31
.LEHB26:
	bl _Unwind_Resume
.LVL111:
.L131:
	mr 31,3
	.loc 1 336 0
	addi 3,1,28
	bl _ZNSsD1Ev
	mr 3,31
	bl _Unwind_Resume
.LVL112:
.L133:
	mr 31,3
	.loc 1 349 0
	addi 3,1,20
	bl _ZNSsD1Ev
.L123:
	addi 3,1,24
	bl _ZNSsD1Ev
	mr 3,31
	bl _Unwind_Resume
.L132:
	mr 31,3
	b .L123
.LVL113:
.L135:
	mr 31,3
	.loc 1 357 0
	addi 3,1,16
	bl _ZNSsD1Ev
	mr 3,31
	bl _Unwind_Resume
.LEHE26:
.LBE2695:
	.cfi_endproc
.LFE1507:
	.section	.gcc_except_table
.LLSDA1507:
	.byte	0xff
	.byte	0xff
	.byte	0x1
	.uleb128 .LLSDACSE1507-.LLSDACSB1507
.LLSDACSB1507:
	.uleb128 .LEHB17-.LFB1507
	.uleb128 .LEHE17-.LEHB17
	.uleb128 0
	.uleb128 0
	.uleb128 .LEHB18-.LFB1507
	.uleb128 .LEHE18-.LEHB18
	.uleb128 .L131-.LFB1507
	.uleb128 0
	.uleb128 .LEHB19-.LFB1507
	.uleb128 .LEHE19-.LEHB19
	.uleb128 0
	.uleb128 0
	.uleb128 .LEHB20-.LFB1507
	.uleb128 .LEHE20-.LEHB20
	.uleb128 .L132-.LFB1507
	.uleb128 0
	.uleb128 .LEHB21-.LFB1507
	.uleb128 .LEHE21-.LEHB21
	.uleb128 .L133-.LFB1507
	.uleb128 0
	.uleb128 .LEHB22-.LFB1507
	.uleb128 .LEHE22-.LEHB22
	.uleb128 0
	.uleb128 0
	.uleb128 .LEHB23-.LFB1507
	.uleb128 .LEHE23-.LEHB23
	.uleb128 .L134-.LFB1507
	.uleb128 0
	.uleb128 .LEHB24-.LFB1507
	.uleb128 .LEHE24-.LEHB24
	.uleb128 0
	.uleb128 0
	.uleb128 .LEHB25-.LFB1507
	.uleb128 .LEHE25-.LEHB25
	.uleb128 .L135-.LFB1507
	.uleb128 0
	.uleb128 .LEHB26-.LFB1507
	.uleb128 .LEHE26-.LEHB26
	.uleb128 0
	.uleb128 0
.LLSDACSE1507:
	.section	".text"
	.size	_Z13UpdateGameTDBP12UpdateWindow, .-_Z13UpdateGameTDBP12UpdateWindow
	.align 2
	.globl _Z20DownloadAllLanguagesP12UpdateWindow
	.type	_Z20DownloadAllLanguagesP12UpdateWindow, @function
_Z20DownloadAllLanguagesP12UpdateWindow:
.LFB1508:
	.loc 1 366 0
	.cfi_startproc
	.cfi_personality 0,__gxx_personality_v0
	.cfi_lsda 0,.LLSDA1508
.LVL114:
	mfcr 12
.LBB2838:
	.loc 1 367 0
	cmpwi 4,3,0
.LBE2838:
	.loc 1 366 0
	mflr 0
	stwu 1,-688(1)
.LCFI24:
	.cfi_def_cfa_offset 688
	.cfi_register 65, 0
	.cfi_register 70, 12
	stw 25,660(1)
.LBB2953:
	.loc 1 367 0
	mr 25,3
	.cfi_offset 25, -28
.LBE2953:
	.loc 1 366 0
	stw 0,692(1)
	stw 23,652(1)
	stw 24,656(1)
	stw 26,664(1)
	stw 27,668(1)
	stw 28,672(1)
	stw 29,676(1)
	stw 30,680(1)
	stw 31,684(1)
	stw 12,648(1)
.LBB2954:
	.loc 1 367 0
	beq- 4,.L155
	.cfi_offset 70, -40
	.cfi_offset 31, -4
	.cfi_offset 30, -8
	.cfi_offset 29, -12
	.cfi_offset 28, -16
	.cfi_offset 27, -20
	.cfi_offset 26, -24
	.cfi_offset 24, -32
	.cfi_offset 23, -36
	.cfi_offset 65, 4
	.loc 1 368 0
	lis 3,.LC9@ha
.LVL115:
	la 3,.LC9@l(3)
.LEHB27:
	bl gettext
	addi 5,1,17
	mr 4,3
	addi 3,1,36
	bl _ZNSsC1EPKcRKSaIcE
.LEHE27:
	lis 3,.LC10@ha
	la 3,.LC10@l(3)
.LEHB28:
	bl gettext
.LEHE28:
	mr 4,3
	addi 5,1,16
	addi 3,1,32
.LEHB29:
	bl _ZNSsC1EPKcRKSaIcE
.LEHE29:
	.loc 1 368 0 is_stmt 0 discriminator 3
	mr 3,25
	addi 4,1,36
	addi 5,1,32
	li 6,0
	li 7,1
.LEHB30:
	bl _ZN12UpdateWindow12ShowProgressESsSsii
.LEHE30:
.LVL116:
.LBB2839:
.LBB2840:
.LBB2841:
.LBB2842:
.LBB2843:
.LBB2844:
	.loc 2 288 0 is_stmt 1
	lwz 9,32(1)
.LBE2844:
.LBE2843:
.LBE2842:
.LBB2845:
.LBB2846:
	.loc 2 235 0
	lis 28,_ZNSs4_Rep20_S_empty_rep_storageE@ha
	la 28,_ZNSs4_Rep20_S_empty_rep_storageE@l(28)
.LBE2846:
.LBE2845:
	.loc 2 534 0
	addi 3,9,-12
.LVL117:
.LBB2855:
.LBB2853:
	.loc 2 235 0
	cmpw 7,3,28
	bne- 7,.L213
.LVL118:
.L148:
.LBE2853:
.LBE2855:
.LBE2841:
.LBE2840:
.LBE2839:
.LBB2859:
.LBB2860:
.LBB2861:
.LBB2862:
.LBB2863:
.LBB2864:
	.loc 2 288 0
	lwz 9,36(1)
.LBE2864:
.LBE2863:
.LBE2862:
	.loc 2 534 0
	addi 3,9,-12
.LVL119:
.LBB2865:
.LBB2866:
	.loc 2 235 0
	cmpw 7,3,28
	bne- 7,.L214
.LVL120:
.L155:
.LBE2866:
.LBE2865:
.LBE2861:
.LBE2860:
.LBE2859:
	.loc 1 370 0
	lis 23,Settings+1568@ha
	addi 3,1,28
	la 23,Settings+1568@l(23)
	addi 5,1,15
	mr 4,23
.LEHB31:
	bl _ZNSsC1EPKcRKSaIcE
.LEHE31:
	addi 3,1,28
.LEHB32:
	bl _Z15CreateSubfolderSs
.LEHE32:
.LBB2877:
.LBB2878:
.LBB2879:
.LBB2880:
.LBB2881:
.LBB2882:
	.loc 2 288 0
	lwz 9,28(1)
.LBE2882:
.LBE2881:
.LBE2880:
.LBB2883:
.LBB2884:
	.loc 2 235 0
	lis 28,_ZNSs4_Rep20_S_empty_rep_storageE@ha
.LBE2884:
.LBE2883:
.LBE2879:
.LBE2878:
.LBE2877:
	.loc 1 370 0
	mr 31,3
.LVL121:
.LBB2901:
.LBB2899:
.LBB2897:
.LBB2894:
.LBB2891:
	.loc 2 235 0
	la 28,_ZNSs4_Rep20_S_empty_rep_storageE@l(28)
.LBE2891:
.LBE2894:
	.loc 2 534 0
	addi 3,9,-12
.LVL122:
.LBB2895:
.LBB2892:
	.loc 2 235 0
	cmpw 7,3,28
	bne- 7,.L215
.LVL123:
.L163:
.LBE2892:
.LBE2895:
.LBE2897:
.LBE2899:
.LBE2901:
	.loc 1 370 0 discriminator 2
	cmpwi 7,31,0
	.loc 1 371 0 discriminator 2
	li 3,0
	.loc 1 370 0 discriminator 2
	bne- 7,.L216
.LBE2954:
	.loc 1 413 0
	lwz 0,692(1)
	lwz 12,648(1)
	mtlr 0
	lwz 23,652(1)
	lwz 24,656(1)
	mtcrf 8,12
	lwz 25,660(1)
.LVL124:
	lwz 26,664(1)
	lwz 27,668(1)
	lwz 28,672(1)
	lwz 29,676(1)
	lwz 30,680(1)
	lwz 31,684(1)
	addi 1,1,688
	.cfi_remember_state
.LCFI25:
	.cfi_def_cfa_offset 0
	.cfi_restore 70
	.cfi_restore 31
	.cfi_restore 30
	.cfi_restore 29
	.cfi_restore 28
	.cfi_restore 27
	.cfi_restore 26
	.cfi_restore 25
	.cfi_restore 24
	.cfi_restore 23
	blr
.LVL125:
.L216:
.LCFI26:
	.cfi_restore_state
.LBB2955:
	.loc 1 375 0
	lis 24,.LANCHOR0@ha
	addi 3,1,40
	la 24,.LANCHOR0@l(24)
	addi 24,24,2048
	mr 4,24
.LEHB33:
	bl _ZN8URL_ListC1EPKc
.LEHE33:
	.loc 1 376 0
	addi 3,1,40
.LEHB34:
	bl _ZN8URL_List11GetURLCountEv
.LVL126:
.LBB2902:
	.loc 1 379 0
	mr. 29,3
	ble- 0,.L165
	li 31,0
	b .L186
.LVL127:
.L219:
.LBB2903:
	.loc 1 382 0 discriminator 1
	addi 30,3,1
.LVL128:
.L167:
	.loc 1 385 0
	cmpwi 7,30,0
	beq- 7,.L168
	.loc 1 388 0
	mr 3,30
	li 4,46
	bl strrchr
.LVL129:
	.loc 1 389 0
	cmpwi 7,3,0
	beq- 7,.L168
	.loc 1 389 0 is_stmt 0 discriminator 1
	lis 4,.LC11@ha
	la 4,.LC11@l(4)
	bl strcasecmp
.LVL130:
	cmpwi 7,3,0
	bne- 7,.L168
	.loc 1 392 0 is_stmt 1
	beq- 4,.L184
	.loc 1 393 0
	lis 3,.LC9@ha
	la 3,.LC9@l(3)
	bl gettext
.LEHE34:
	mr 4,3
	addi 5,1,14
	addi 3,1,24
.LEHB35:
	bl _ZNSsC1EPKcRKSaIcE
.LEHE35:
	.loc 1 393 0 is_stmt 0 discriminator 2
	addi 3,1,20
	mr 4,30
	addi 5,1,13
.LEHB36:
	bl _ZNSsC1EPKcRKSaIcE
.LEHE36:
	.loc 1 393 0 discriminator 3
	mr 3,25
	addi 4,1,24
	addi 5,1,20
	mr 6,31
	mr 7,29
.LEHB37:
	bl _ZN12UpdateWindow12ShowProgressESsSsii
.LEHE37:
.LVL131:
.LBB2904:
.LBB2905:
.LBB2906:
.LBB2907:
.LBB2908:
.LBB2909:
	.loc 2 288 0 is_stmt 1
	lwz 9,20(1)
.LBE2909:
.LBE2908:
.LBE2907:
	.loc 2 534 0
	addi 3,9,-12
.LVL132:
.LBB2910:
.LBB2911:
	.loc 2 235 0
	cmpw 7,3,28
	bne- 7,.L217
.LVL133:
.L177:
.LBE2911:
.LBE2910:
.LBE2906:
.LBE2905:
.LBE2904:
.LBB2922:
.LBB2923:
.LBB2924:
.LBB2925:
.LBB2926:
.LBB2927:
	.loc 2 288 0
	lwz 9,24(1)
.LBE2927:
.LBE2926:
.LBE2925:
	.loc 2 534 0
	addi 3,9,-12
.LVL134:
.LBB2928:
.LBB2929:
	.loc 2 235 0
	cmpw 7,3,28
	bne- 7,.L218
.LVL135:
.L184:
.LBE2929:
.LBE2928:
.LBE2924:
.LBE2923:
.LBE2922:
	.loc 1 395 0
	lis 5,.LC12@ha
	addi 3,1,348
	li 4,300
	la 5,.LC12@l(5)
	mr 6,24
	mr 7,30
.LEHB38:
	crxor 6,6,6
	bl snprintf
	.loc 1 397 0
	addi 3,1,348
	bl downloadfile
.LBB2940:
	.loc 1 398 0
	mr. 27,4
.LBE2940:
	.loc 1 397 0
	mr 26,3
.LBB2942:
	.loc 1 398 0
	beq- 0,.L168
.LBB2941:
	.loc 1 401 0
	lis 5,.LC13@ha
	addi 3,1,48
	li 4,300
	la 5,.LC13@l(5)
	mr 6,23
	mr 7,30
	crxor 6,6,6
	bl snprintf
	.loc 1 402 0
	lis 4,.LC1@ha
	addi 3,1,48
	la 4,.LC1@l(4)
	bl fopen
.LVL136:
	.loc 1 403 0
	mr. 30,3
.LVL137:
	beq- 0,.L185
	.loc 1 405 0
	mr 3,27
.LVL138:
	li 4,1
	mr 5,26
	mr 6,30
	bl fwrite
	.loc 1 406 0
	mr 3,30
	bl fclose
.L185:
	.loc 1 408 0
	mr 3,27
	bl free
.LVL139:
.L168:
.LBE2941:
.LBE2942:
.LBE2903:
	.loc 1 379 0
	addi 31,31,1
.LVL140:
	cmpw 7,31,29
	beq- 7,.L165
.LVL141:
.L186:
.LBB2945:
	.loc 1 381 0
	addi 3,1,40
	mr 4,31
	bl _ZN8URL_List6GetURLEi
	li 4,47
	bl strrchr
.LVL142:
	.loc 1 382 0
	cmpwi 0,3,0
	bne+ 0,.L219
	.loc 1 383 0
	addi 3,1,40
.LVL143:
	mr 4,31
	bl _ZN8URL_List6GetURLEi
.LEHE38:
	mr 30,3
	b .L167
.L165:
.LBE2945:
.LBE2902:
	.loc 1 412 0
	addi 3,1,40
.LEHB39:
	bl _ZN8URL_ListD1Ev
.LBE2955:
	.loc 1 413 0
	lwz 0,692(1)
	lwz 12,648(1)
.LBB2956:
	.loc 1 412 0
	li 3,1
.LBE2956:
	.loc 1 413 0
	mtlr 0
	lwz 23,652(1)
	lwz 24,656(1)
	mtcrf 8,12
	lwz 25,660(1)
.LVL144:
	lwz 26,664(1)
	lwz 27,668(1)
	lwz 28,672(1)
	lwz 29,676(1)
	lwz 30,680(1)
	lwz 31,684(1)
	addi 1,1,688
	.cfi_remember_state
	.cfi_restore 23
	.cfi_restore 24
	.cfi_restore 25
	.cfi_restore 26
	.cfi_restore 27
	.cfi_restore 28
	.cfi_restore 29
	.cfi_restore 30
	.cfi_restore 31
	.cfi_restore 70
.LCFI27:
	.cfi_def_cfa_offset 0
	blr
.LVL145:
.L217:
.LCFI28:
	.cfi_restore_state
.LBB2957:
.LBB2948:
.LBB2946:
.LBB2943:
.LBB2921:
.LBB2920:
.LBB2919:
.LBB2918:
.LBB2912:
.LBB2913:
.LBB2914:
	.loc 3 66 0
	lwz 11,-4(9)
.LVL146:
.LBE2914:
.LBE2913:
.LBE2912:
	.loc 2 240 0
	cmpwi 7,11,0
.LBB2917:
.LBB2916:
.LBB2915:
	.loc 3 67 0
	addi 11,11,-1
	stw 11,-4(9)
.LBE2915:
.LBE2916:
.LBE2917:
	.loc 2 240 0
	bgt+ 7,.L177
	.loc 2 244 0
	addi 4,1,9
	bl _ZNSs4_Rep10_M_destroyERKSaIcE
.LVL147:
	b .L177
.LVL148:
.L218:
.LBE2918:
.LBE2919:
.LBE2920:
.LBE2921:
.LBE2943:
.LBB2944:
.LBB2939:
.LBB2938:
.LBB2937:
.LBB2936:
.LBB2930:
.LBB2931:
.LBB2932:
	.loc 3 66 0
	lwz 11,-4(9)
.LVL149:
.LBE2932:
.LBE2931:
.LBE2930:
	.loc 2 240 0
	cmpwi 7,11,0
.LBB2935:
.LBB2934:
.LBB2933:
	.loc 3 67 0
	addi 11,11,-1
	stw 11,-4(9)
.LBE2933:
.LBE2934:
.LBE2935:
	.loc 2 240 0
	bgt+ 7,.L184
	.loc 2 244 0
	addi 4,1,8
	bl _ZNSs4_Rep10_M_destroyERKSaIcE
.LVL150:
	b .L184
.LVL151:
.L215:
.LBE2936:
.LBE2937:
.LBE2938:
.LBE2939:
.LBE2944:
.LBE2946:
.LBE2948:
.LBB2949:
.LBB2900:
.LBB2898:
.LBB2896:
.LBB2893:
.LBB2885:
.LBB2886:
.LBB2887:
	.loc 3 66 0
	lwz 11,-4(9)
.LVL152:
.LBE2887:
.LBE2886:
.LBE2885:
	.loc 2 240 0
	cmpwi 7,11,0
.LBB2890:
.LBB2889:
.LBB2888:
	.loc 3 67 0
	addi 11,11,-1
	stw 11,-4(9)
.LBE2888:
.LBE2889:
.LBE2890:
	.loc 2 240 0
	bgt+ 7,.L163
	.loc 2 244 0
	addi 4,1,10
	bl _ZNSs4_Rep10_M_destroyERKSaIcE
.LVL153:
	b .L163
.LVL154:
.L205:
	mr 31,3
.LBE2893:
.LBE2896:
.LBE2898:
.LBE2900:
.LBE2949:
	.loc 1 370 0
	addi 3,1,28
	bl _ZNSsD1Ev
	mr 3,31
	bl _Unwind_Resume
.LVL155:
.L214:
.LBB2950:
.LBB2876:
.LBB2875:
.LBB2874:
.LBB2873:
.LBB2867:
.LBB2868:
.LBB2869:
	.loc 3 66 0
	lwz 11,-4(9)
.LVL156:
.LBE2869:
.LBE2868:
.LBE2867:
	.loc 2 240 0
	cmpwi 7,11,0
.LBB2872:
.LBB2871:
.LBB2870:
	.loc 3 67 0
	addi 11,11,-1
	stw 11,-4(9)
.LBE2870:
.LBE2871:
.LBE2872:
	.loc 2 240 0
	bgt+ 7,.L155
	.loc 2 244 0
	addi 4,1,11
	bl _ZNSs4_Rep10_M_destroyERKSaIcE
.LVL157:
	b .L155
.LVL158:
.L213:
.LBE2873:
.LBE2874:
.LBE2875:
.LBE2876:
.LBE2950:
.LBB2951:
.LBB2858:
.LBB2857:
.LBB2856:
.LBB2854:
.LBB2847:
.LBB2848:
.LBB2849:
	.loc 3 66 0
	lwz 11,-4(9)
.LVL159:
.LBE2849:
.LBE2848:
.LBE2847:
	.loc 2 240 0
	cmpwi 7,11,0
.LBB2852:
.LBB2851:
.LBB2850:
	.loc 3 67 0
	addi 11,11,-1
	stw 11,-4(9)
.LBE2850:
.LBE2851:
.LBE2852:
	.loc 2 240 0
	bgt+ 7,.L148
	.loc 2 244 0
	addi 4,1,12
	bl _ZNSs4_Rep10_M_destroyERKSaIcE
.LVL160:
	b .L148
.LVL161:
.L204:
	mr 31,3
.LBE2854:
.LBE2856:
.LBE2857:
.LBE2858:
.LBE2951:
	.loc 1 368 0
	addi 3,1,32
	bl _ZNSsD1Ev
	mr 3,31
.L211:
	mr 31,3
	addi 3,1,36
	bl _ZNSsD1Ev
	mr 3,31
	bl _Unwind_Resume
.LEHE39:
.L203:
	b .L211
.L202:
	b .L211
.LVL162:
.L206:
.L212:
	mr 31,3
	.loc 1 412 0
	addi 3,1,40
	bl _ZN8URL_ListD1Ev
	mr 3,31
.LEHB40:
	bl _Unwind_Resume
.LEHE40:
.LVL163:
.L207:
	b .L212
.L208:
	mr 31,3
.L196:
.LBB2952:
.LBB2947:
	.loc 1 393 0
	addi 3,1,24
	bl _ZNSsD1Ev
	mr 3,31
	b .L212
.L209:
	mr 31,3
	addi 3,1,20
	bl _ZNSsD1Ev
	b .L196
.LBE2947:
.LBE2952:
.LBE2957:
	.cfi_endproc
.LFE1508:
	.section	.gcc_except_table
.LLSDA1508:
	.byte	0xff
	.byte	0xff
	.byte	0x1
	.uleb128 .LLSDACSE1508-.LLSDACSB1508
.LLSDACSB1508:
	.uleb128 .LEHB27-.LFB1508
	.uleb128 .LEHE27-.LEHB27
	.uleb128 0
	.uleb128 0
	.uleb128 .LEHB28-.LFB1508
	.uleb128 .LEHE28-.LEHB28
	.uleb128 .L202-.LFB1508
	.uleb128 0
	.uleb128 .LEHB29-.LFB1508
	.uleb128 .LEHE29-.LEHB29
	.uleb128 .L203-.LFB1508
	.uleb128 0
	.uleb128 .LEHB30-.LFB1508
	.uleb128 .LEHE30-.LEHB30
	.uleb128 .L204-.LFB1508
	.uleb128 0
	.uleb128 .LEHB31-.LFB1508
	.uleb128 .LEHE31-.LEHB31
	.uleb128 0
	.uleb128 0
	.uleb128 .LEHB32-.LFB1508
	.uleb128 .LEHE32-.LEHB32
	.uleb128 .L205-.LFB1508
	.uleb128 0
	.uleb128 .LEHB33-.LFB1508
	.uleb128 .LEHE33-.LEHB33
	.uleb128 0
	.uleb128 0
	.uleb128 .LEHB34-.LFB1508
	.uleb128 .LEHE34-.LEHB34
	.uleb128 .L206-.LFB1508
	.uleb128 0
	.uleb128 .LEHB35-.LFB1508
	.uleb128 .LEHE35-.LEHB35
	.uleb128 .L207-.LFB1508
	.uleb128 0
	.uleb128 .LEHB36-.LFB1508
	.uleb128 .LEHE36-.LEHB36
	.uleb128 .L208-.LFB1508
	.uleb128 0
	.uleb128 .LEHB37-.LFB1508
	.uleb128 .LEHE37-.LEHB37
	.uleb128 .L209-.LFB1508
	.uleb128 0
	.uleb128 .LEHB38-.LFB1508
	.uleb128 .LEHE38-.LEHB38
	.uleb128 .L206-.LFB1508
	.uleb128 0
	.uleb128 .LEHB39-.LFB1508
	.uleb128 .LEHE39-.LEHB39
	.uleb128 0
	.uleb128 0
	.uleb128 .LEHB40-.LFB1508
	.uleb128 .LEHE40-.LEHB40
	.uleb128 0
	.uleb128 0
.LLSDACSE1508:
	.section	".text"
	.size	_Z20DownloadAllLanguagesP12UpdateWindow, .-_Z20DownloadAllLanguagesP12UpdateWindow
	.align 2
	.globl _Z15UpdateLanguagesP12UpdateWindow
	.type	_Z15UpdateLanguagesP12UpdateWindow, @function
_Z15UpdateLanguagesP12UpdateWindow:
.LFB1509:
	.loc 1 419 0
	.cfi_startproc
	.cfi_personality 0,__gxx_personality_v0
	.cfi_lsda 0,.LLSDA1509
.LVL164:
	mfcr 12
.LBB3155:
	.loc 1 420 0
	cmpwi 4,3,0
.LBE3155:
	.loc 1 419 0
	mflr 0
	stwu 1,-464(1)
.LCFI29:
	.cfi_def_cfa_offset 464
	.cfi_register 65, 0
	.cfi_register 70, 12
	stw 24,432(1)
.LBB3308:
	.loc 1 420 0
	mr 24,3
	.cfi_offset 24, -32
.LBE3308:
	.loc 1 419 0
	stw 0,468(1)
	stw 25,436(1)
	stw 26,440(1)
	stw 27,444(1)
	stw 28,448(1)
	stw 29,452(1)
	stw 30,456(1)
	stw 31,460(1)
	stw 12,428(1)
.LBB3309:
	.loc 1 420 0
	beq- 4,.L236
	.cfi_offset 70, -36
	.cfi_offset 31, -4
	.cfi_offset 30, -8
	.cfi_offset 29, -12
	.cfi_offset 28, -16
	.cfi_offset 27, -20
	.cfi_offset 26, -24
	.cfi_offset 25, -28
	.cfi_offset 65, 4
	.loc 1 421 0
	lis 3,.LC9@ha
.LVL165:
	la 3,.LC9@l(3)
.LEHB41:
	bl gettext
	addi 5,1,20
	mr 4,3
	addi 3,1,48
	bl _ZNSsC1EPKcRKSaIcE
.LEHE41:
	lis 3,.LC14@ha
	la 3,.LC14@l(3)
.LEHB42:
	bl gettext
.LEHE42:
	mr 4,3
	addi 5,1,19
	addi 3,1,44
.LEHB43:
	bl _ZNSsC1EPKcRKSaIcE
.LEHE43:
	.loc 1 421 0 is_stmt 0 discriminator 3
	mr 3,24
	addi 4,1,48
	addi 5,1,44
	li 6,0
	li 7,1
.LEHB44:
	bl _ZN12UpdateWindow12ShowProgressESsSsii
.LEHE44:
.LVL166:
.LBB3156:
.LBB3157:
.LBB3158:
.LBB3159:
.LBB3160:
.LBB3161:
	.loc 2 288 0 is_stmt 1
	lwz 9,44(1)
.LBE3161:
.LBE3160:
.LBE3159:
.LBB3162:
.LBB3163:
	.loc 2 235 0
	lis 30,_ZNSs4_Rep20_S_empty_rep_storageE@ha
	la 30,_ZNSs4_Rep20_S_empty_rep_storageE@l(30)
.LBE3163:
.LBE3162:
	.loc 2 534 0
	addi 3,9,-12
.LVL167:
.LBB3172:
.LBB3170:
	.loc 2 235 0
	cmpw 7,3,30
	bne- 7,.L310
.LVL168:
.L229:
.LBE3170:
.LBE3172:
.LBE3158:
.LBE3157:
.LBE3156:
.LBB3176:
.LBB3177:
.LBB3178:
.LBB3179:
.LBB3180:
.LBB3181:
	.loc 2 288 0
	lwz 9,48(1)
.LBE3181:
.LBE3180:
.LBE3179:
	.loc 2 534 0
	addi 3,9,-12
.LVL169:
.LBB3182:
.LBB3183:
	.loc 2 235 0
	cmpw 7,3,30
	bne- 7,.L311
.LVL170:
.L236:
.LBE3183:
.LBE3182:
.LBE3178:
.LBE3177:
.LBE3176:
	.loc 1 423 0
	lis 25,Settings+1568@ha
	addi 3,1,40
	la 25,Settings+1568@l(25)
	addi 5,1,18
	mr 4,25
.LEHB45:
	bl _ZNSsC1EPKcRKSaIcE
.LEHE45:
	addi 3,1,40
.LEHB46:
	bl _Z15CreateSubfolderSs
.LEHE46:
.LBB3194:
.LBB3195:
.LBB3196:
.LBB3197:
.LBB3198:
.LBB3199:
	.loc 2 288 0
	lwz 9,40(1)
.LBE3199:
.LBE3198:
.LBE3197:
.LBB3200:
.LBB3201:
	.loc 2 235 0
	lis 30,_ZNSs4_Rep20_S_empty_rep_storageE@ha
.LBE3201:
.LBE3200:
.LBE3196:
.LBE3195:
.LBE3194:
	.loc 1 423 0
	mr 31,3
.LVL171:
.LBB3218:
.LBB3216:
.LBB3214:
.LBB3211:
.LBB3208:
	.loc 2 235 0
	la 30,_ZNSs4_Rep20_S_empty_rep_storageE@l(30)
.LBE3208:
.LBE3211:
	.loc 2 534 0
	addi 3,9,-12
.LVL172:
.LBB3212:
.LBB3209:
	.loc 2 235 0
	cmpw 7,3,30
	bne- 7,.L312
.LVL173:
.L244:
.LBE3209:
.LBE3212:
.LBE3214:
.LBE3216:
.LBE3218:
	.loc 1 423 0 discriminator 2
	cmpwi 7,31,0
	.loc 1 424 0 discriminator 2
	li 31,0
	.loc 1 423 0 discriminator 2
	bne- 7,.L313
.LBE3309:
	.loc 1 460 0
	lwz 0,468(1)
	mr 3,31
	lwz 12,428(1)
	mtlr 0
	lwz 24,432(1)
.LVL174:
	lwz 25,436(1)
	mtcrf 8,12
	lwz 26,440(1)
	lwz 27,444(1)
	lwz 28,448(1)
	lwz 29,452(1)
	lwz 30,456(1)
	lwz 31,460(1)
	addi 1,1,464
	.cfi_remember_state
.LCFI30:
	.cfi_def_cfa_offset 0
	.cfi_restore 70
	.cfi_restore 31
	.cfi_restore 30
	.cfi_restore 29
	.cfi_restore 28
	.cfi_restore 27
	.cfi_restore 26
	.cfi_restore 25
	.cfi_restore 24
	blr
.LVL175:
.L313:
.LCFI31:
	.cfi_restore_state
.LBB3310:
	.loc 1 426 0
	addi 3,1,36
	mr 4,25
	addi 5,1,17
.LEHB47:
	bl _ZNSsC1EPKcRKSaIcE
.LEHE47:
	lis 5,.LC11@ha
	addi 3,1,52
	addi 4,1,36
	la 5,.LC11@l(5)
	li 6,3
.LEHB48:
	bl _ZN7DirListC1ESsPKcj
.LEHE48:
.LVL176:
.LBB3219:
.LBB3220:
.LBB3221:
.LBB3222:
.LBB3223:
.LBB3224:
	.loc 2 288 0
	lwz 9,36(1)
.LBE3224:
.LBE3223:
.LBE3222:
	.loc 2 534 0
	addi 3,9,-12
.LVL177:
.LBB3225:
.LBB3226:
	.loc 2 235 0
	cmpw 7,3,30
	bne- 7,.L314
.LVL178:
.L253:
.LBE3226:
.LBE3225:
.LBE3221:
.LBE3220:
.LBE3219:
.LBB3237:
.LBB3238:
.LBB3239:
	.file 4 "d:\\devkitpro\\devkitppc\\bin\\../lib/gcc/powerpc-eabi/4.6.3/../../../../powerpc-eabi/include/c++/4.6.3/bits/stl_vector.h"
	.loc 4 571 0
	lwz 0,52(1)
	lwz 27,56(1)
	subf 27,0,27
	lis 0,0xaaaa
	srawi 27,27,3
	ori 0,0,43691
.LBE3239:
.LBE3238:
.LBE3237:
	.loc 1 428 0
	mullw. 27,27,0
	beq- 0,.L295
.LVL179:
.LBB3240:
	.loc 1 434 0 discriminator 1
	ble- 0,.L296
	.loc 1 434 0 is_stmt 0
	li 31,0
.LVL180:
.L279:
.LBB3241:
	.loc 1 436 0 is_stmt 1
	addi 3,1,52
.LVL181:
	mr 4,31
.LEHB49:
	bl _ZN7DirList11GetFilenameEi
.LVL182:
	mr 4,3
	addi 5,1,16
	addi 3,1,32
	bl _ZNSsC1EPKcRKSaIcE
.LEHE49:
	.loc 1 438 0 discriminator 2
	beq- 4,.L270
	.loc 1 439 0
	lis 3,.LC9@ha
	la 3,.LC9@l(3)
.LEHB50:
	bl gettext
.LEHE50:
	mr 4,3
	addi 5,1,15
	addi 3,1,28
.LEHB51:
	bl _ZNSsC1EPKcRKSaIcE
.LEHE51:
	.loc 1 439 0 is_stmt 0 discriminator 2
	addi 3,1,24
	addi 4,1,32
.LEHB52:
	bl _ZNSsC1ERKSs
.LEHE52:
	.loc 1 439 0 discriminator 3
	mr 3,24
	addi 4,1,28
	addi 5,1,24
	mr 6,31
	mr 7,27
.LEHB53:
	bl _ZN12UpdateWindow12ShowProgressESsSsii
.LEHE53:
.LVL183:
.LBB3242:
.LBB3243:
.LBB3244:
.LBB3245:
.LBB3246:
.LBB3247:
	.loc 2 288 0 is_stmt 1
	lwz 9,24(1)
.LBE3247:
.LBE3246:
.LBE3245:
	.loc 2 534 0
	addi 3,9,-12
.LVL184:
.LBB3248:
.LBB3249:
	.loc 2 235 0
	cmpw 7,3,30
	bne- 7,.L315
.LVL185:
.L263:
.LBE3249:
.LBE3248:
.LBE3244:
.LBE3243:
.LBE3242:
.LBB3260:
.LBB3261:
.LBB3262:
.LBB3263:
.LBB3264:
.LBB3265:
	.loc 2 288 0
	lwz 9,28(1)
.LBE3265:
.LBE3264:
.LBE3263:
	.loc 2 534 0
	addi 3,9,-12
.LVL186:
.LBB3266:
.LBB3267:
	.loc 2 235 0
	cmpw 7,3,30
	bne- 7,.L316
.LVL187:
.L270:
.LBE3267:
.LBE3266:
.LBE3262:
.LBE3261:
.LBE3260:
	.loc 1 441 0
	lis 6,.LANCHOR0@ha
	lis 5,.LC12@ha
	la 6,.LANCHOR0@l(6)
	lwz 7,32(1)
	addi 3,1,216
	li 4,200
	la 5,.LC12@l(5)
	addi 6,6,2048
.LEHB54:
	crxor 6,6,6
	bl snprintf
.LVL188:
	.loc 1 442 0
	lis 5,.LC13@ha
	lwz 7,32(1)
	addi 3,1,64
	li 4,150
	la 5,.LC13@l(5)
	mr 6,25
	crxor 6,6,6
	bl snprintf
	.loc 1 444 0
	addi 3,1,216
	bl downloadfile
.LBB3278:
	.loc 1 446 0
	mr. 29,4
.LBE3278:
	.loc 1 444 0
	mr 26,3
.LBB3280:
	.loc 1 446 0
	beq- 0,.L271
.LBB3279:
	.loc 1 449 0
	lis 4,.LC1@ha
	addi 3,1,64
	la 4,.LC1@l(4)
	bl fopen
.LVL189:
	.loc 1 450 0
	mr. 28,3
	beq- 0,.L272
	.loc 1 452 0
	mr 3,29
.LVL190:
	li 4,1
	mr 5,26
	mr 6,28
	bl fwrite
	.loc 1 453 0
	mr 3,28
	bl fclose
.LEHE54:
.L272:
	.loc 1 455 0
	mr 3,29
	bl free
.LVL191:
.L271:
.LBE3279:
.LBE3280:
.LBB3281:
.LBB3282:
.LBB3283:
.LBB3284:
.LBB3285:
.LBB3286:
	.loc 2 288 0
	lwz 9,32(1)
.LBE3286:
.LBE3285:
.LBE3284:
	.loc 2 534 0
	addi 3,9,-12
.LVL192:
.LBB3287:
.LBB3288:
	.loc 2 235 0
	cmpw 7,3,30
	bne- 7,.L317
.LVL193:
.L278:
.LBE3288:
.LBE3287:
.LBE3283:
.LBE3282:
.LBE3281:
.LBE3241:
	.loc 1 434 0
	addi 31,31,1
.LVL194:
	cmpw 7,31,27
	bne+ 7,.L279
.LVL195:
.L296:
	.loc 1 459 0
	li 31,1
.L254:
.LBE3240:
	addi 3,1,52
.LVL196:
.LEHB55:
	bl _ZN7DirListD1Ev
.LEHE55:
.LVL197:
.LBE3310:
	.loc 1 460 0
	lwz 0,468(1)
	lwz 12,428(1)
	mr 3,31
	mtlr 0
	lwz 24,432(1)
.LVL198:
	lwz 25,436(1)
	mtcrf 8,12
	lwz 26,440(1)
	lwz 27,444(1)
	lwz 28,448(1)
	lwz 29,452(1)
	lwz 30,456(1)
	lwz 31,460(1)
	addi 1,1,464
	.cfi_remember_state
	.cfi_restore 24
	.cfi_restore 25
	.cfi_restore 26
	.cfi_restore 27
	.cfi_restore 28
	.cfi_restore 29
	.cfi_restore 30
	.cfi_restore 31
	.cfi_restore 70
.LCFI32:
	.cfi_def_cfa_offset 0
	blr
.LVL199:
.L295:
.LCFI33:
	.cfi_restore_state
.LBB3311:
	.loc 1 428 0
	li 31,0
	b .L254
.LVL200:
.L317:
.LBB3303:
.LBB3302:
.LBB3299:
.LBB3298:
.LBB3297:
.LBB3296:
.LBB3295:
.LBB3289:
.LBB3290:
.LBB3291:
	.loc 3 66 0
	lwz 11,-4(9)
.LVL201:
.LBE3291:
.LBE3290:
.LBE3289:
	.loc 2 240 0
	cmpwi 7,11,0
.LBB3294:
.LBB3293:
.LBB3292:
	.loc 3 67 0
	addi 11,11,-1
	stw 11,-4(9)
.LBE3292:
.LBE3293:
.LBE3294:
	.loc 2 240 0
	bgt+ 7,.L278
	.loc 2 244 0
	addi 4,1,8
	bl _ZNSs4_Rep10_M_destroyERKSaIcE
.LVL202:
	b .L278
.LVL203:
.L315:
.LBE3295:
.LBE3296:
.LBE3297:
.LBE3298:
.LBE3299:
.LBB3300:
.LBB3259:
.LBB3258:
.LBB3257:
.LBB3256:
.LBB3250:
.LBB3251:
.LBB3252:
	.loc 3 66 0
	lwz 11,-4(9)
.LVL204:
.LBE3252:
.LBE3251:
.LBE3250:
	.loc 2 240 0
	cmpwi 7,11,0
.LBB3255:
.LBB3254:
.LBB3253:
	.loc 3 67 0
	addi 11,11,-1
	stw 11,-4(9)
.LBE3253:
.LBE3254:
.LBE3255:
	.loc 2 240 0
	bgt+ 7,.L263
	.loc 2 244 0
	addi 4,1,10
	bl _ZNSs4_Rep10_M_destroyERKSaIcE
.LVL205:
	b .L263
.LVL206:
.L316:
.LBE3256:
.LBE3257:
.LBE3258:
.LBE3259:
.LBE3300:
.LBB3301:
.LBB3277:
.LBB3276:
.LBB3275:
.LBB3274:
.LBB3268:
.LBB3269:
.LBB3270:
	.loc 3 66 0
	lwz 11,-4(9)
.LVL207:
.LBE3270:
.LBE3269:
.LBE3268:
	.loc 2 240 0
	cmpwi 7,11,0
.LBB3273:
.LBB3272:
.LBB3271:
	.loc 3 67 0
	addi 11,11,-1
	stw 11,-4(9)
.LBE3271:
.LBE3272:
.LBE3273:
	.loc 2 240 0
	bgt+ 7,.L270
	.loc 2 244 0
	addi 4,1,9
	bl _ZNSs4_Rep10_M_destroyERKSaIcE
.LVL208:
	b .L270
.LVL209:
.L306:
	mr 31,3
.LBE3274:
.LBE3275:
.LBE3276:
.LBE3277:
.LBE3301:
	.loc 1 439 0
	addi 3,1,24
	bl _ZNSsD1Ev
.L288:
	addi 3,1,28
	bl _ZNSsD1Ev
	mr 3,31
.L309:
	mr 31,3
	.loc 1 457 0
	addi 3,1,32
	bl _ZNSsD1Ev
.L293:
.LBE3302:
.LBE3303:
	.loc 1 459 0
	addi 3,1,52
.LVL210:
	bl _ZN7DirListD1Ev
.LVL211:
	mr 3,31
.LEHB56:
	bl _Unwind_Resume
.LVL212:
.L314:
.LBB3304:
.LBB3236:
.LBB3235:
.LBB3234:
.LBB3233:
.LBB3227:
.LBB3228:
.LBB3229:
	.loc 3 66 0
	lwz 11,-4(9)
.LVL213:
.LBE3229:
.LBE3228:
.LBE3227:
	.loc 2 240 0
	cmpwi 7,11,0
.LBB3232:
.LBB3231:
.LBB3230:
	.loc 3 67 0
	addi 11,11,-1
	stw 11,-4(9)
.LBE3230:
.LBE3231:
.LBE3232:
	.loc 2 240 0
	bgt+ 7,.L253
	.loc 2 244 0
	addi 4,1,11
	bl _ZNSs4_Rep10_M_destroyERKSaIcE
.LVL214:
	b .L253
.LVL215:
.L302:
	mr 31,3
	b .L293
.L303:
	b .L309
.L304:
	b .L309
.L305:
	mr 31,3
	b .L288
.LVL216:
.L312:
.LBE3233:
.LBE3234:
.LBE3235:
.LBE3236:
.LBE3304:
.LBB3305:
.LBB3217:
.LBB3215:
.LBB3213:
.LBB3210:
.LBB3202:
.LBB3203:
.LBB3204:
	.loc 3 66 0
	lwz 11,-4(9)
.LVL217:
.LBE3204:
.LBE3203:
.LBE3202:
	.loc 2 240 0
	cmpwi 7,11,0
.LBB3207:
.LBB3206:
.LBB3205:
	.loc 3 67 0
	addi 11,11,-1
	stw 11,-4(9)
.LBE3205:
.LBE3206:
.LBE3207:
	.loc 2 240 0
	bgt+ 7,.L244
	.loc 2 244 0
	addi 4,1,12
	bl _ZNSs4_Rep10_M_destroyERKSaIcE
.LVL218:
	b .L244
.LVL219:
.L300:
	mr 31,3
.LBE3210:
.LBE3213:
.LBE3215:
.LBE3217:
.LBE3305:
	.loc 1 423 0
	addi 3,1,40
	bl _ZNSsD1Ev
	mr 3,31
	bl _Unwind_Resume
.LVL220:
.L311:
.LBB3306:
.LBB3193:
.LBB3192:
.LBB3191:
.LBB3190:
.LBB3184:
.LBB3185:
.LBB3186:
	.loc 3 66 0
	lwz 11,-4(9)
.LVL221:
.LBE3186:
.LBE3185:
.LBE3184:
	.loc 2 240 0
	cmpwi 7,11,0
.LBB3189:
.LBB3188:
.LBB3187:
	.loc 3 67 0
	addi 11,11,-1
	stw 11,-4(9)
.LBE3187:
.LBE3188:
.LBE3189:
	.loc 2 240 0
	bgt+ 7,.L236
	.loc 2 244 0
	addi 4,1,13
	bl _ZNSs4_Rep10_M_destroyERKSaIcE
.LVL222:
	b .L236
.LVL223:
.L310:
.LBE3190:
.LBE3191:
.LBE3192:
.LBE3193:
.LBE3306:
.LBB3307:
.LBB3175:
.LBB3174:
.LBB3173:
.LBB3171:
.LBB3164:
.LBB3165:
.LBB3166:
	.loc 3 66 0
	lwz 11,-4(9)
.LVL224:
.LBE3166:
.LBE3165:
.LBE3164:
	.loc 2 240 0
	cmpwi 7,11,0
.LBB3169:
.LBB3168:
.LBB3167:
	.loc 3 67 0
	addi 11,11,-1
	stw 11,-4(9)
.LBE3167:
.LBE3168:
.LBE3169:
	.loc 2 240 0
	bgt+ 7,.L229
	.loc 2 244 0
	addi 4,1,14
	bl _ZNSs4_Rep10_M_destroyERKSaIcE
.LVL225:
	b .L229
.LVL226:
.L299:
	mr 31,3
.LBE3171:
.LBE3173:
.LBE3174:
.LBE3175:
.LBE3307:
	.loc 1 421 0
	addi 3,1,44
	bl _ZNSsD1Ev
	mr 3,31
.L308:
	mr 31,3
	addi 3,1,48
	bl _ZNSsD1Ev
	mr 3,31
	bl _Unwind_Resume
.L298:
	b .L308
.L297:
	b .L308
.LVL227:
.L301:
	mr 31,3
	.loc 1 426 0
	addi 3,1,36
	bl _ZNSsD1Ev
	mr 3,31
	bl _Unwind_Resume
.LEHE56:
.LBE3311:
	.cfi_endproc
.LFE1509:
	.section	.gcc_except_table
.LLSDA1509:
	.byte	0xff
	.byte	0xff
	.byte	0x1
	.uleb128 .LLSDACSE1509-.LLSDACSB1509
.LLSDACSB1509:
	.uleb128 .LEHB41-.LFB1509
	.uleb128 .LEHE41-.LEHB41
	.uleb128 0
	.uleb128 0
	.uleb128 .LEHB42-.LFB1509
	.uleb128 .LEHE42-.LEHB42
	.uleb128 .L297-.LFB1509
	.uleb128 0
	.uleb128 .LEHB43-.LFB1509
	.uleb128 .LEHE43-.LEHB43
	.uleb128 .L298-.LFB1509
	.uleb128 0
	.uleb128 .LEHB44-.LFB1509
	.uleb128 .LEHE44-.LEHB44
	.uleb128 .L299-.LFB1509
	.uleb128 0
	.uleb128 .LEHB45-.LFB1509
	.uleb128 .LEHE45-.LEHB45
	.uleb128 0
	.uleb128 0
	.uleb128 .LEHB46-.LFB1509
	.uleb128 .LEHE46-.LEHB46
	.uleb128 .L300-.LFB1509
	.uleb128 0
	.uleb128 .LEHB47-.LFB1509
	.uleb128 .LEHE47-.LEHB47
	.uleb128 0
	.uleb128 0
	.uleb128 .LEHB48-.LFB1509
	.uleb128 .LEHE48-.LEHB48
	.uleb128 .L301-.LFB1509
	.uleb128 0
	.uleb128 .LEHB49-.LFB1509
	.uleb128 .LEHE49-.LEHB49
	.uleb128 .L302-.LFB1509
	.uleb128 0
	.uleb128 .LEHB50-.LFB1509
	.uleb128 .LEHE50-.LEHB50
	.uleb128 .L303-.LFB1509
	.uleb128 0
	.uleb128 .LEHB51-.LFB1509
	.uleb128 .LEHE51-.LEHB51
	.uleb128 .L304-.LFB1509
	.uleb128 0
	.uleb128 .LEHB52-.LFB1509
	.uleb128 .LEHE52-.LEHB52
	.uleb128 .L305-.LFB1509
	.uleb128 0
	.uleb128 .LEHB53-.LFB1509
	.uleb128 .LEHE53-.LEHB53
	.uleb128 .L306-.LFB1509
	.uleb128 0
	.uleb128 .LEHB54-.LFB1509
	.uleb128 .LEHE54-.LEHB54
	.uleb128 .L303-.LFB1509
	.uleb128 0
	.uleb128 .LEHB55-.LFB1509
	.uleb128 .LEHE55-.LEHB55
	.uleb128 0
	.uleb128 0
	.uleb128 .LEHB56-.LFB1509
	.uleb128 .LEHE56-.LEHB56
	.uleb128 0
	.uleb128 0
.LLSDACSE1509:
	.section	".text"
	.size	_Z15UpdateLanguagesP12UpdateWindow, .-_Z15UpdateLanguagesP12UpdateWindow
	.align 2
	.globl _Z11UpdateFilesbP12UpdateWindow
	.type	_Z11UpdateFilesbP12UpdateWindow, @function
_Z11UpdateFilesbP12UpdateWindow:
.LFB1504:
	.loc 1 209 0
	.cfi_startproc
	.cfi_personality 0,__gxx_personality_v0
	.cfi_lsda 0,.LLSDA1504
.LVL228:
	stwu 1,-184(1)
.LCFI34:
	.cfi_def_cfa_offset 184
	mflr 0
	stw 28,168(1)
.LBB4145:
	.loc 1 214 0
	mr. 28,4
	.cfi_offset 28, -16
	.cfi_register 65, 0
.LBE4145:
	.loc 1 209 0
	stw 26,160(1)
	mr 26,3
	.cfi_offset 26, -24
	stw 27,164(1)
.LBB4846:
	.loc 1 212 0
	li 27,0
	.cfi_offset 27, -20
.LBE4846:
	.loc 1 209 0
	stw 0,188(1)
	stw 25,156(1)
	stw 29,172(1)
	stw 30,176(1)
	stw 31,180(1)
.LBB4847:
	.loc 1 214 0
	beq- 0,.L708
	.cfi_offset 31, -4
	.cfi_offset 30, -8
	.cfi_offset 29, -12
	.cfi_offset 25, -28
	.cfi_offset 65, 4
.LVL229:
.L319:
.LBB4146:
.LBB4147:
	.file 5 "d:/Projects/SaveGameManager/savegame-manager-gx/trunk/source/Network/../Tools/ErrorLog.h"
	.loc 5 40 0
	lis 30,_ZN8ErrorLog8instanceE@ha
	lwz 29,_ZN8ErrorLog8instanceE@l(30)
	cmpwi 7,29,0
	beq- 7,.L320
.LVL230:
.LBB4148:
.LBB4149:
.LBB4150:
	.loc 5 48 0
	mr 3,29
.LEHB57:
	bl _ZN8ErrorLog5ResetEv
.LEHE57:
.LVL231:
.LBB4151:
.LBB4152:
.LBB4153:
.LBB4154:
.LBB4155:
.LBB4156:
	.loc 2 288 0
	lwz 9,4(29)
.LBE4156:
.LBE4155:
.LBE4154:
.LBB4157:
.LBB4158:
	.loc 2 235 0
	lis 31,_ZNSs4_Rep20_S_empty_rep_storageE@ha
	la 31,_ZNSs4_Rep20_S_empty_rep_storageE@l(31)
.LBE4158:
.LBE4157:
	.loc 2 534 0
	addi 3,9,-12
.LVL232:
.LBB4167:
.LBB4165:
	.loc 2 235 0
	cmpw 7,3,31
	bne- 7,.L709
.LVL233:
.L326:
.LBE4165:
.LBE4167:
.LBE4153:
.LBE4152:
.LBE4151:
.LBB4171:
.LBB4172:
.LBB4173:
.LBB4174:
.LBB4175:
.LBB4176:
	.loc 2 288 0
	lwz 9,0(29)
.LBE4176:
.LBE4175:
.LBE4174:
	.loc 2 534 0
	addi 3,9,-12
.LVL234:
.LBB4177:
.LBB4178:
	.loc 2 235 0
	cmpw 7,3,31
	bne- 7,.L710
.LVL235:
.L334:
.LBE4178:
.LBE4177:
.LBE4173:
.LBE4172:
.LBE4171:
.LBE4150:
.LBE4149:
.LBE4148:
	.loc 5 40 0
	mr 3,29
	bl _ZdlPv
.LVL236:
.L320:
.LBE4147:
.LBE4146:
	.loc 1 222 0
	cmpwi 7,26,0
.LBB4200:
.LBB4197:
	.loc 5 40 0
	li 0,0
	stw 0,_ZN8ErrorLog8instanceE@l(30)
.LBE4197:
.LBE4200:
	.loc 1 222 0
	bne- 7,.L711
.L335:
	.loc 1 230 0
	lis 29,Settings@ha
	la 29,Settings@l(29)
	lha 0,1310(29)
	cmpwi 7,0,0
	ble- 7,.L375
	.loc 1 232 0
	lis 3,.LC9@ha
	lis 26,.LC17@ha
	la 3,.LC9@l(3)
	la 26,.LC17@l(26)
.LEHB58:
	bl gettext
	addi 5,1,50
	mr 4,3
	addi 3,1,128
	bl _ZNSsC1EPKcRKSaIcE
.LEHE58:
	addi 3,1,124
	mr 4,26
	addi 5,1,49
.LEHB59:
	bl _ZNSsC1EPKcRKSaIcE
.LEHE59:
	.loc 1 232 0 is_stmt 0 discriminator 2
	mr 3,28
	addi 4,1,128
	addi 5,1,124
.LEHB60:
	bl _ZN12UpdateWindow12ShowThrobberESsSs
.LEHE60:
.LVL237:
.LBB4201:
.LBB4202:
.LBB4203:
.LBB4204:
.LBB4205:
.LBB4206:
	.loc 2 288 0 is_stmt 1
	lwz 9,124(1)
.LBE4206:
.LBE4205:
.LBE4204:
.LBB4207:
.LBB4208:
	.loc 2 235 0
	lis 31,_ZNSs4_Rep20_S_empty_rep_storageE@ha
	la 31,_ZNSs4_Rep20_S_empty_rep_storageE@l(31)
.LBE4208:
.LBE4207:
	.loc 2 534 0
	addi 3,9,-12
.LVL238:
.LBB4217:
.LBB4215:
	.loc 2 235 0
	cmpw 7,3,31
	bne- 7,.L712
.LVL239:
.L383:
.LBE4215:
.LBE4217:
.LBE4203:
.LBE4202:
.LBE4201:
.LBB4221:
.LBB4222:
.LBB4223:
.LBB4224:
.LBB4225:
.LBB4226:
	.loc 2 288 0
	lwz 9,128(1)
.LBE4226:
.LBE4225:
.LBE4224:
	.loc 2 534 0
	addi 3,9,-12
.LVL240:
.LBB4227:
.LBB4228:
	.loc 2 235 0
	cmpw 7,3,31
	bne- 7,.L713
.LVL241:
.L391:
.LEHB61:
.LBE4228:
.LBE4227:
.LBE4223:
.LBE4222:
.LBE4221:
	.loc 1 233 0 discriminator 1
	bl _Z13UpdateIconPNGv
	cmpwi 7,3,0
	beq- 7,.L714
.LVL242:
.L414:
	.loc 1 235 0
	lis 3,0xf
	ori 3,3,16960
	bl usleep
.LVL243:
.L375:
	.loc 1 238 0
	lha 0,1312(29)
	cmpwi 7,0,0
	ble- 7,.L461
	.loc 1 240 0
	cmpwi 7,0,1
	beq- 7,.L715
	.loc 1 246 0
	cmpwi 7,0,2
	beq- 7,.L716
.L461:
.LBB4239:
	.loc 1 253 0
	lha 0,1314(29)
	cmpwi 7,0,0
	beq- 7,.L507
.LBB4240:
	.loc 1 255 0
	lis 3,.LC19@ha
	la 3,.LC19@l(3)
	bl gettext
	addi 5,1,42
	mr 4,3
	addi 3,1,96
	bl _ZNSsC1EPKcRKSaIcE
.LEHE61:
.LVL244:
.LBB4241:
.LBB4242:
.LBB4243:
	.loc 2 1000 0
	lis 4,.LC20@ha
	addi 3,1,96
.LVL245:
	la 4,.LC20@l(4)
	li 5,12
.LEHB62:
	bl _ZNSs6appendEPKcj
.LVL246:
.LBE4243:
.LBE4242:
.LBE4241:
	.loc 1 257 0
	addi 3,1,92
	addi 4,1,96
.LVL247:
	bl _ZNSsC1ERKSs
.LEHE62:
.LVL248:
	.loc 1 257 0 is_stmt 0 discriminator 1
	lis 29,.LC8@ha
	addi 3,1,88
	la 29,.LC8@l(29)
	addi 5,1,41
	mr 4,29
.LEHB63:
	bl _ZNSsC1EPKcRKSaIcE
.LEHE63:
	.loc 1 257 0 discriminator 2
	mr 3,28
	addi 4,1,92
	addi 5,1,88
.LEHB64:
	bl _ZN12UpdateWindow12ShowThrobberESsSs
.LEHE64:
.LVL249:
.LBB4244:
.LBB4245:
.LBB4246:
.LBB4247:
.LBB4248:
.LBB4249:
	.loc 2 288 0 is_stmt 1
	lwz 9,88(1)
.LBE4249:
.LBE4248:
.LBE4247:
.LBB4250:
.LBB4251:
	.loc 2 235 0
	lis 31,_ZNSs4_Rep20_S_empty_rep_storageE@ha
	la 31,_ZNSs4_Rep20_S_empty_rep_storageE@l(31)
.LBE4251:
.LBE4250:
	.loc 2 534 0
	addi 3,9,-12
.LVL250:
.LBB4260:
.LBB4258:
	.loc 2 235 0
	cmpw 7,3,31
	bne- 7,.L717
.LVL251:
.L472:
.LBE4258:
.LBE4260:
.LBE4246:
.LBE4245:
.LBE4244:
.LBB4264:
.LBB4265:
.LBB4266:
.LBB4267:
.LBB4268:
.LBB4269:
	.loc 2 288 0
	lwz 9,92(1)
.LBE4269:
.LBE4268:
.LBE4267:
	.loc 2 534 0
	addi 3,9,-12
.LVL252:
.LBB4270:
.LBB4271:
	.loc 2 235 0
	cmpw 7,3,31
	bne- 7,.L718
.LVL253:
.L478:
.LBE4271:
.LBE4270:
.LBE4266:
.LBE4265:
.LBE4264:
	.loc 1 258 0 discriminator 1
	mr 3,28
.LEHB65:
	bl _Z13UpdateGameTDBP12UpdateWindow
.LEHE65:
	cmpwi 7,3,0
	bne- 7,.L502
.LBB4282:
.LBB4283:
	.loc 5 39 0
	lwz 26,_ZN8ErrorLog8instanceE@l(30)
	cmpwi 7,26,0
	beq- 7,.L719
.L480:
.LBE4283:
.LBE4282:
	.loc 1 259 0
	addi 3,1,84
	mr 4,29
	addi 5,1,40
.LEHB66:
	bl _ZNSsC1EPKcRKSaIcE
.LEHE66:
	.loc 1 259 0 is_stmt 0 discriminator 2
	lis 3,.LC16@ha
	la 3,.LC16@l(3)
.LEHB67:
	bl gettext
.LEHE67:
	mr 4,3
	addi 5,1,39
	addi 3,1,80
.LEHB68:
	bl _ZNSsC1EPKcRKSaIcE
.LEHE68:
	.loc 1 259 0 discriminator 4
	mr 3,26
	addi 4,1,84
	addi 5,1,80
.LEHB69:
	bl _ZN8ErrorLog8AddEntryESsSs
.LEHE69:
.LVL254:
.LBB4301:
.LBB4302:
.LBB4303:
.LBB4304:
.LBB4305:
.LBB4306:
	.loc 2 288 0 is_stmt 1
	lwz 9,80(1)
.LBE4306:
.LBE4305:
.LBE4304:
	.loc 2 534 0
	addi 3,9,-12
.LVL255:
.LBB4307:
.LBB4308:
	.loc 2 235 0
	cmpw 7,3,31
	bne- 7,.L720
.LVL256:
.L495:
.LBE4308:
.LBE4307:
.LBE4303:
.LBE4302:
.LBE4301:
.LBB4319:
.LBB4320:
.LBB4321:
.LBB4322:
.LBB4323:
.LBB4324:
	.loc 2 288 0
	lwz 9,84(1)
.LBE4324:
.LBE4323:
.LBE4322:
	.loc 2 534 0
	addi 3,9,-12
.LVL257:
.LBB4325:
.LBB4326:
	.loc 2 235 0
	cmpw 7,3,31
	bne- 7,.L721
.LVL258:
.L502:
.LBE4326:
.LBE4325:
.LBE4321:
.LBE4320:
.LBE4319:
.LBB4337:
.LBB4338:
.LBB4339:
.LBB4340:
.LBB4341:
.LBB4342:
	.loc 2 288 0
	lwz 9,96(1)
.LBE4342:
.LBE4341:
.LBE4340:
	.loc 2 534 0
	addi 3,9,-12
.LVL259:
.LBB4343:
.LBB4344:
	.loc 2 235 0
	cmpw 7,3,31
	bne- 7,.L722
.LVL260:
.L507:
.LBE4344:
.LBE4343:
.LBE4339:
.LBE4338:
.LBE4337:
.LBE4240:
.LBE4239:
.LBB4370:
.LBB4371:
.LBB4372:
	.loc 5 39 0
	lwz 31,_ZN8ErrorLog8instanceE@l(30)
	cmpwi 7,31,0
	beq- 7,.L723
.L508:
.LBE4372:
.LBE4371:
	.loc 1 262 0
	lwz 0,8(31)
	cmpwi 7,0,0
	ble- 7,.L515
.LBB4387:
	.loc 1 264 0
	lis 3,.LC21@ha
	la 3,.LC21@l(3)
.LEHB70:
	bl gettext
	addi 5,1,38
	mr 4,3
	addi 3,1,76
	bl _ZNSsC1EPKcRKSaIcE
.LEHE70:
	lis 3,.LC22@ha
	la 3,.LC22@l(3)
.LEHB71:
	bl gettext
.LEHE71:
	mr 4,3
	addi 5,1,37
	addi 3,1,72
.LEHB72:
	bl _ZNSsC1EPKcRKSaIcE
.LEHE72:
	.loc 1 264 0 is_stmt 0 discriminator 3
	lis 3,.LC23@ha
	la 3,.LC23@l(3)
.LEHB73:
	bl gettext
.LEHE73:
	mr 4,3
	addi 5,1,36
	addi 3,1,68
.LEHB74:
	bl _ZNSsC1EPKcRKSaIcE
.LEHE74:
	.loc 1 264 0 discriminator 5
	lis 3,.LC24@ha
	la 3,.LC24@l(3)
.LEHB75:
	bl gettext
.LEHE75:
	mr 4,3
	addi 5,1,35
	addi 3,1,64
.LEHB76:
	bl _ZNSsC1EPKcRKSaIcE
.LEHE76:
	.loc 1 264 0 discriminator 7
	lis 31,.LC25@ha
	addi 3,1,60
	la 31,.LC25@l(31)
	addi 5,1,34
	mr 4,31
.LEHB77:
	bl _ZNSsC1EPKcRKSaIcE
.LEHE77:
	.loc 1 264 0 discriminator 8
	addi 3,1,56
	mr 4,31
	addi 5,1,33
.LEHB78:
	bl _ZNSsC1EPKcRKSaIcE
.LEHE78:
	.loc 1 264 0 discriminator 9
	mr 3,28
	addi 4,1,76
	addi 5,1,72
	addi 6,1,68
	addi 7,1,64
	addi 8,1,60
	addi 9,1,56
.LEHB79:
	bl _ZN12UpdateWindow6ChooseESsSsSsSsSsSs
.LEHE79:
.LBB4388:
.LBB4389:
.LBB4390:
.LBB4391:
.LBB4392:
.LBB4393:
	.loc 2 288 0 is_stmt 1 discriminator 9
	lwz 9,56(1)
.LBE4393:
.LBE4392:
.LBE4391:
.LBB4394:
.LBB4395:
	.loc 2 235 0 discriminator 9
	lis 31,_ZNSs4_Rep20_S_empty_rep_storageE@ha
.LBE4395:
.LBE4394:
.LBE4390:
.LBE4389:
.LBE4388:
	.loc 1 264 0 discriminator 9
	mr 29,3
.LVL261:
.LBB4412:
.LBB4410:
.LBB4408:
.LBB4405:
.LBB4402:
	.loc 2 235 0 discriminator 9
	la 31,_ZNSs4_Rep20_S_empty_rep_storageE@l(31)
.LBE4402:
.LBE4405:
	.loc 2 534 0 discriminator 9
	addi 3,9,-12
.LVL262:
.LBB4406:
.LBB4403:
	.loc 2 235 0 discriminator 9
	cmpw 7,3,31
	bne- 7,.L724
.LVL263:
.L523:
.LBE4403:
.LBE4406:
.LBE4408:
.LBE4410:
.LBE4412:
.LBB4413:
.LBB4414:
.LBB4415:
.LBB4416:
.LBB4417:
.LBB4418:
	.loc 2 288 0
	lwz 9,60(1)
.LBE4418:
.LBE4417:
.LBE4416:
	.loc 2 534 0
	addi 3,9,-12
.LVL264:
.LBB4419:
.LBB4420:
	.loc 2 235 0
	cmpw 7,3,31
	bne- 7,.L725
.LVL265:
.L531:
.LBE4420:
.LBE4419:
.LBE4415:
.LBE4414:
.LBE4413:
.LBB4431:
.LBB4432:
.LBB4433:
.LBB4434:
.LBB4435:
.LBB4436:
	.loc 2 288 0
	lwz 9,64(1)
.LBE4436:
.LBE4435:
.LBE4434:
	.loc 2 534 0
	addi 3,9,-12
.LVL266:
.LBB4437:
.LBB4438:
	.loc 2 235 0
	cmpw 7,3,31
	bne- 7,.L726
.LVL267:
.L539:
.LBE4438:
.LBE4437:
.LBE4433:
.LBE4432:
.LBE4431:
.LBB4449:
.LBB4450:
.LBB4451:
.LBB4452:
.LBB4453:
.LBB4454:
	.loc 2 288 0
	lwz 9,68(1)
.LBE4454:
.LBE4453:
.LBE4452:
	.loc 2 534 0
	addi 3,9,-12
.LVL268:
.LBB4455:
.LBB4456:
	.loc 2 235 0
	cmpw 7,3,31
	bne- 7,.L727
.LVL269:
.L547:
.LBE4456:
.LBE4455:
.LBE4451:
.LBE4450:
.LBE4449:
.LBB4467:
.LBB4468:
.LBB4469:
.LBB4470:
.LBB4471:
.LBB4472:
	.loc 2 288 0
	lwz 9,72(1)
.LBE4472:
.LBE4471:
.LBE4470:
	.loc 2 534 0
	addi 3,9,-12
.LVL270:
.LBB4473:
.LBB4474:
	.loc 2 235 0
	cmpw 7,3,31
	bne- 7,.L728
.LVL271:
.L555:
.LBE4474:
.LBE4473:
.LBE4469:
.LBE4468:
.LBE4467:
.LBB4485:
.LBB4486:
.LBB4487:
.LBB4488:
.LBB4489:
.LBB4490:
	.loc 2 288 0
	lwz 9,76(1)
.LBE4490:
.LBE4489:
.LBE4488:
	.loc 2 534 0
	addi 3,9,-12
.LVL272:
.LBB4491:
.LBB4492:
	.loc 2 235 0
	cmpw 7,3,31
	bne- 7,.L729
.LVL273:
.L563:
.LBE4492:
.LBE4491:
.LBE4487:
.LBE4486:
.LBE4485:
	.loc 1 265 0 discriminator 10
	cmpwi 7,29,1
	beq- 7,.L730
.LVL274:
.L515:
.LBE4387:
.LBE4370:
	.loc 1 269 0
	cmpwi 7,27,0
	bne- 7,.L731
.LBB4535:
.LBB4536:
	.loc 5 39 0
	lwz 31,_ZN8ErrorLog8instanceE@l(30)
	cmpwi 7,31,0
	beq- 7,.L732
.L577:
.LBE4536:
.LBE4535:
	.loc 1 275 0
	lwz 9,8(31)
.LBE4847:
	.loc 1 276 0
	lwz 25,156(1)
.LBB4848:
	.loc 1 275 0
	addi 0,9,-1
.LBE4848:
	.loc 1 276 0
	lwz 26,160(1)
.LBB4849:
	.loc 1 275 0
	or 9,0,9
.LBE4849:
	.loc 1 276 0
	lwz 0,188(1)
	lwz 27,164(1)
.LVL275:
	srwi 3,9,31
	mtlr 0
	lwz 28,168(1)
.LVL276:
	lwz 29,172(1)
	lwz 30,176(1)
	lwz 31,180(1)
	addi 1,1,184
	.cfi_remember_state
.LCFI35:
	.cfi_def_cfa_offset 0
	.cfi_restore 31
	.cfi_restore 30
	.cfi_restore 29
	.cfi_restore 28
	.cfi_restore 27
	.cfi_restore 26
	.cfi_restore 25
	blr
.LVL277:
.L714:
.LCFI36:
	.cfi_restore_state
.LBB4850:
.LBB4552:
.LBB4553:
	.loc 5 39 0
	lwz 25,_ZN8ErrorLog8instanceE@l(30)
	cmpwi 7,25,0
	beq- 7,.L733
.L393:
.LBE4553:
.LBE4552:
	.loc 1 234 0
	addi 3,1,120
	mr 4,26
	addi 5,1,48
.LEHB80:
	bl _ZNSsC1EPKcRKSaIcE
.LEHE80:
	lis 3,.LC16@ha
	la 3,.LC16@l(3)
.LEHB81:
	bl gettext
.LEHE81:
	mr 4,3
	addi 5,1,47
	addi 3,1,116
.LEHB82:
	bl _ZNSsC1EPKcRKSaIcE
.LEHE82:
	.loc 1 234 0 is_stmt 0 discriminator 3
	mr 3,25
	addi 4,1,120
	addi 5,1,116
.LEHB83:
	bl _ZN8ErrorLog8AddEntryESsSs
.LEHE83:
.LVL278:
.LBB4571:
.LBB4572:
.LBB4573:
.LBB4574:
.LBB4575:
.LBB4576:
	.loc 2 288 0 is_stmt 1
	lwz 9,116(1)
.LBE4576:
.LBE4575:
.LBE4574:
	.loc 2 534 0
	addi 3,9,-12
.LVL279:
.LBB4577:
.LBB4578:
	.loc 2 235 0
	cmpw 7,3,31
	bne- 7,.L734
.LVL280:
.L407:
.LBE4578:
.LBE4577:
.LBE4573:
.LBE4572:
.LBE4571:
.LBB4589:
.LBB4590:
.LBB4591:
.LBB4592:
.LBB4593:
.LBB4594:
	.loc 2 288 0
	lwz 9,120(1)
.LBE4594:
.LBE4593:
.LBE4592:
	.loc 2 534 0
	addi 3,9,-12
.LVL281:
.LBB4595:
.LBB4596:
	.loc 2 235 0
	cmpw 7,3,31
	beq+ 7,.L414
.LVL282:
.LBB4597:
.LBB4598:
.LBB4599:
	.loc 3 66 0
	lwz 11,-4(9)
.LVL283:
.LBE4599:
.LBE4598:
.LBE4597:
	.loc 2 240 0
	cmpwi 7,11,0
.LBB4602:
.LBB4601:
.LBB4600:
	.loc 3 67 0
	addi 11,11,-1
	stw 11,-4(9)
.LBE4600:
.LBE4601:
.LBE4602:
	.loc 2 240 0
	bgt+ 7,.L414
	.loc 2 244 0
	addi 4,1,23
	bl _ZNSs4_Rep10_M_destroyERKSaIcE
.LVL284:
	b .L414
.LVL285:
.L731:
.LBE4596:
.LBE4595:
.LBE4591:
.LBE4590:
.LBE4589:
.LBB4603:
.LBB4604:
	.file 6 "d:/Projects/SaveGameManager/savegame-manager-gx/trunk/source/Network/../Controls/Application.h"
	.loc 6 27 0
	lis 29,_ZN11Application8instanceE@ha
	lwz 31,_ZN11Application8instanceE@l(29)
	cmpwi 7,31,0
	beq- 7,.L735
.L572:
.LBE4604:
.LBE4603:
	.loc 1 271 0
	mr 3,31
	mr 4,28
.LEHB84:
	bl _ZN11Application13PushForDeleteEP10GuiElement
.LBB4606:
.LBB4607:
	.loc 6 27 0
	lwz 31,_ZN11Application8instanceE@l(29)
	cmpwi 7,31,0
	beq- 7,.L736
.L574:
.LBE4607:
.LBE4606:
	.loc 1 272 0
	lwz 9,0(31)
	mr 3,31
	lwz 0,216(9)
	mtctr 0
	bctrl
.LBB4610:
.LBB4550:
	.loc 5 39 0
	lwz 31,_ZN8ErrorLog8instanceE@l(30)
	cmpwi 7,31,0
	bne+ 7,.L577
.L732:
	li 3,12
	bl _Znwj
.LEHE84:
.LBB4537:
.LBB4538:
.LBB4539:
.LBB4540:
.LBB4541:
	.loc 2 270 0
	lis 9,_ZNSs4_Rep20_S_empty_rep_storageE+12@ha
	la 0,_ZNSs4_Rep20_S_empty_rep_storageE+12@l(9)
.LBE4541:
.LBE4540:
.LBE4539:
.LBE4538:
.LBE4537:
	.loc 5 39 0
	mr 31,3
.LVL286:
.LBB4549:
.LBB4548:
.LBB4544:
.LBB4543:
.LBB4542:
	.loc 2 270 0
	stw 0,0(3)
.LVL287:
.LBE4542:
.LBE4543:
.LBE4544:
.LBB4545:
.LBB4546:
.LBB4547:
	stw 0,4(3)
.LEHB85:
.LBE4547:
.LBE4546:
.LBE4545:
	.loc 5 47 0
	bl _ZN8ErrorLog5ResetEv
.LEHE85:
.LVL288:
.LBE4548:
.LBE4549:
.LBE4550:
.LBE4610:
	.loc 1 275 0
	lwz 9,8(31)
.LBB4611:
.LBB4551:
	.loc 5 39 0
	stw 31,_ZN8ErrorLog8instanceE@l(30)
.LBE4551:
.LBE4611:
	.loc 1 275 0
	addi 0,9,-1
.LBE4850:
	.loc 1 276 0
	lwz 25,156(1)
.LBB4851:
	.loc 1 275 0
	or 9,0,9
.LBE4851:
	.loc 1 276 0
	lwz 0,188(1)
	lwz 26,160(1)
	srwi 3,9,31
	mtlr 0
	lwz 27,164(1)
.LVL289:
	lwz 28,168(1)
.LVL290:
	lwz 29,172(1)
	lwz 30,176(1)
	lwz 31,180(1)
.LVL291:
	addi 1,1,184
	.cfi_remember_state
	.cfi_restore 25
	.cfi_restore 26
	.cfi_restore 27
	.cfi_restore 28
	.cfi_restore 29
	.cfi_restore 30
	.cfi_restore 31
.LCFI37:
	.cfi_def_cfa_offset 0
	blr
.LVL292:
.L711:
.LCFI38:
	.cfi_restore_state
.LBB4852:
	.loc 1 224 0
	lis 3,.LC9@ha
	lis 29,.LC15@ha
	la 3,.LC9@l(3)
	la 29,.LC15@l(29)
.LEHB86:
	bl gettext
	addi 5,1,54
	mr 4,3
	addi 3,1,144
	bl _ZNSsC1EPKcRKSaIcE
.LEHE86:
	addi 3,1,140
	mr 4,29
	addi 5,1,53
.LEHB87:
	bl _ZNSsC1EPKcRKSaIcE
.LEHE87:
	.loc 1 224 0 is_stmt 0 discriminator 2
	mr 3,28
	addi 4,1,144
	addi 5,1,140
.LEHB88:
	bl _ZN12UpdateWindow12ShowThrobberESsSs
.LEHE88:
.LVL293:
.LBB4612:
.LBB4613:
.LBB4614:
.LBB4615:
.LBB4616:
.LBB4617:
	.loc 2 288 0 is_stmt 1
	lwz 9,140(1)
.LBE4617:
.LBE4616:
.LBE4615:
.LBB4618:
.LBB4619:
	.loc 2 235 0
	lis 31,_ZNSs4_Rep20_S_empty_rep_storageE@ha
	la 31,_ZNSs4_Rep20_S_empty_rep_storageE@l(31)
.LBE4619:
.LBE4618:
	.loc 2 534 0
	addi 3,9,-12
.LVL294:
.LBB4628:
.LBB4626:
	.loc 2 235 0
	cmpw 7,3,31
	bne- 7,.L737
.LVL295:
.L343:
.LBE4626:
.LBE4628:
.LBE4614:
.LBE4613:
.LBE4612:
.LBB4632:
.LBB4633:
.LBB4634:
.LBB4635:
.LBB4636:
.LBB4637:
	.loc 2 288 0
	lwz 9,144(1)
.LBE4637:
.LBE4636:
.LBE4635:
	.loc 2 534 0
	addi 3,9,-12
.LVL296:
.LBB4638:
.LBB4639:
	.loc 2 235 0
	cmpw 7,3,31
	bne- 7,.L738
.LVL297:
.L351:
.LEHB89:
.LBE4639:
.LBE4638:
.LBE4634:
.LBE4633:
.LBE4632:
	.loc 1 225 0 discriminator 1
	bl _Z13UpdateMetaXmlv
	cmpwi 7,3,0
	bne- 7,.L374
.LBB4650:
.LBB4651:
	.loc 5 39 0
	lwz 26,_ZN8ErrorLog8instanceE@l(30)
	cmpwi 7,26,0
	beq- 7,.L739
.L353:
.LBE4651:
.LBE4650:
	.loc 1 226 0
	addi 3,1,136
	mr 4,29
	addi 5,1,52
	bl _ZNSsC1EPKcRKSaIcE
.LEHE89:
	lis 3,.LC16@ha
	la 3,.LC16@l(3)
.LEHB90:
	bl gettext
.LEHE90:
	mr 4,3
	addi 5,1,51
	addi 3,1,132
.LEHB91:
	bl _ZNSsC1EPKcRKSaIcE
.LEHE91:
	.loc 1 226 0 is_stmt 0 discriminator 3
	mr 3,26
	addi 4,1,136
	addi 5,1,132
.LEHB92:
	bl _ZN8ErrorLog8AddEntryESsSs
.LEHE92:
.LVL298:
.LBB4669:
.LBB4670:
.LBB4671:
.LBB4672:
.LBB4673:
.LBB4674:
	.loc 2 288 0 is_stmt 1
	lwz 9,132(1)
.LBE4674:
.LBE4673:
.LBE4672:
	.loc 2 534 0
	addi 3,9,-12
.LVL299:
.LBB4675:
.LBB4676:
	.loc 2 235 0
	cmpw 7,3,31
	bne- 7,.L740
.LVL300:
.L367:
.LBE4676:
.LBE4675:
.LBE4671:
.LBE4670:
.LBE4669:
.LBB4687:
.LBB4688:
.LBB4689:
.LBB4690:
.LBB4691:
.LBB4692:
	.loc 2 288 0
	lwz 9,136(1)
.LBE4692:
.LBE4691:
.LBE4690:
	.loc 2 534 0
	addi 3,9,-12
.LVL301:
.LBB4693:
.LBB4694:
	.loc 2 235 0
	cmpw 7,3,31
	bne- 7,.L741
.LVL302:
.L374:
.LBE4694:
.LBE4693:
.LBE4689:
.LBE4688:
.LBE4687:
	.loc 1 227 0
	lis 3,0x13
	ori 3,3,54816
.LEHB93:
	bl usleep
	b .L335
.LVL303:
.L730:
.LBB4705:
.LBB4526:
.LBB4503:
.LBB4504:
	.loc 5 39 0
	lwz 31,_ZN8ErrorLog8instanceE@l(30)
	cmpwi 7,31,0
	beq- 7,.L742
.L564:
.LBE4504:
.LBE4503:
	.loc 1 266 0
	mr 3,31
	bl _ZN8ErrorLog4ShowEv
	b .L515
.LVL304:
.L708:
.LBE4526:
.LBE4705:
	.loc 1 216 0
	li 3,332
.LVL305:
	bl _Znwj
.LEHE93:
.LVL306:
	mr 28,3
.LVL307:
.LEHB94:
	bl _ZN12UpdateWindowC1Ev
.LEHE94:
	.loc 1 217 0
	li 27,1
	b .L319
.LVL308:
.L723:
.LBB4706:
.LBB4527:
.LBB4386:
	.loc 5 39 0
	li 3,12
.LEHB95:
	bl _Znwj
.LEHE95:
.LBB4373:
.LBB4374:
.LBB4375:
.LBB4376:
.LBB4377:
	.loc 2 270 0
	lis 9,_ZNSs4_Rep20_S_empty_rep_storageE+12@ha
	la 0,_ZNSs4_Rep20_S_empty_rep_storageE+12@l(9)
.LBE4377:
.LBE4376:
.LBE4375:
.LBE4374:
.LBE4373:
	.loc 5 39 0
	mr 31,3
.LVL309:
.LBB4385:
.LBB4384:
.LBB4380:
.LBB4379:
.LBB4378:
	.loc 2 270 0
	stw 0,0(3)
.LVL310:
.LBE4378:
.LBE4379:
.LBE4380:
.LBB4381:
.LBB4382:
.LBB4383:
	stw 0,4(3)
.LEHB96:
.LBE4383:
.LBE4382:
.LBE4381:
	.loc 5 47 0
	bl _ZN8ErrorLog5ResetEv
.LEHE96:
.LVL311:
.LBE4384:
.LBE4385:
	.loc 5 39 0
	stw 31,_ZN8ErrorLog8instanceE@l(30)
	b .L508
.LVL312:
.L715:
.LBE4386:
.LBE4527:
.LBE4706:
	.loc 1 242 0
	mr 3,28
.LEHB97:
	bl _Z20DownloadAllLanguagesP12UpdateWindow
	cmpwi 7,3,0
	bne+ 7,.L461
.LBB4707:
.LBB4708:
	.loc 5 39 0
	lwz 31,_ZN8ErrorLog8instanceE@l(30)
	cmpwi 7,31,0
	beq- 7,.L743
.L417:
.LBE4708:
.LBE4707:
	.loc 1 243 0
	lis 3,.LC18@ha
	la 3,.LC18@l(3)
	bl gettext
	addi 5,1,46
	mr 4,3
	addi 3,1,112
	bl _ZNSsC1EPKcRKSaIcE
.LEHE97:
	lis 3,.LC16@ha
	la 3,.LC16@l(3)
.LEHB98:
	bl gettext
.LEHE98:
	mr 4,3
	addi 5,1,45
	addi 3,1,108
.LEHB99:
	bl _ZNSsC1EPKcRKSaIcE
.LEHE99:
	.loc 1 243 0 is_stmt 0 discriminator 3
	mr 3,31
	addi 4,1,112
	addi 5,1,108
.LEHB100:
	bl _ZN8ErrorLog8AddEntryESsSs
.LEHE100:
.LVL313:
.LBB4723:
.LBB4724:
.LBB4725:
.LBB4726:
.LBB4727:
.LBB4728:
	.loc 2 288 0 is_stmt 1
	lwz 9,108(1)
.LBE4728:
.LBE4727:
.LBE4726:
.LBB4729:
.LBB4730:
	.loc 2 235 0
	lis 31,_ZNSs4_Rep20_S_empty_rep_storageE@ha
	la 31,_ZNSs4_Rep20_S_empty_rep_storageE@l(31)
.LBE4730:
.LBE4729:
	.loc 2 534 0
	addi 3,9,-12
.LVL314:
.LBB4739:
.LBB4737:
	.loc 2 235 0
	cmpw 7,3,31
	bne- 7,.L744
.LVL315:
.L431:
.LBE4737:
.LBE4739:
.LBE4725:
.LBE4724:
.LBE4723:
.LBB4743:
.LBB4744:
.LBB4745:
.LBB4746:
.LBB4747:
.LBB4748:
	.loc 2 288 0
	lwz 9,112(1)
.LBE4748:
.LBE4747:
.LBE4746:
	.loc 2 534 0
	addi 3,9,-12
.LVL316:
.LBB4749:
.LBB4750:
	.loc 2 235 0
	cmpw 7,3,31
	beq+ 7,.L461
.LVL317:
.LBB4751:
.LBB4752:
.LBB4753:
	.loc 3 66 0
	lwz 11,-4(9)
.LVL318:
.LBE4753:
.LBE4752:
.LBE4751:
	.loc 2 240 0
	cmpwi 7,11,0
.LBB4756:
.LBB4755:
.LBB4754:
	.loc 3 67 0
	addi 11,11,-1
	stw 11,-4(9)
.LBE4754:
.LBE4755:
.LBE4756:
	.loc 2 240 0
	bgt+ 7,.L461
	.loc 2 244 0
	addi 4,1,21
	bl _ZNSs4_Rep10_M_destroyERKSaIcE
.LVL319:
	b .L461
.LVL320:
.L716:
.LBE4750:
.LBE4749:
.LBE4745:
.LBE4744:
.LBE4743:
	.loc 1 248 0
	mr 3,28
.LEHB101:
	bl _Z15UpdateLanguagesP12UpdateWindow
	cmpwi 7,3,0
	bne+ 7,.L461
.LBB4757:
.LBB4758:
	.loc 5 39 0
	lwz 31,_ZN8ErrorLog8instanceE@l(30)
	cmpwi 7,31,0
	beq- 7,.L745
.L432:
.LBE4758:
.LBE4757:
	.loc 1 249 0
	lis 3,.LC14@ha
	la 3,.LC14@l(3)
	bl gettext
	addi 5,1,44
	mr 4,3
	addi 3,1,104
	bl _ZNSsC1EPKcRKSaIcE
.LEHE101:
	lis 3,.LC16@ha
	la 3,.LC16@l(3)
.LEHB102:
	bl gettext
.LEHE102:
	mr 4,3
	addi 5,1,43
	addi 3,1,100
.LEHB103:
	bl _ZNSsC1EPKcRKSaIcE
.LEHE103:
	.loc 1 249 0 is_stmt 0 discriminator 3
	mr 3,31
	addi 4,1,104
	addi 5,1,100
.LEHB104:
	bl _ZN8ErrorLog8AddEntryESsSs
.LEHE104:
.LVL321:
.LBB4776:
.LBB4777:
.LBB4778:
.LBB4779:
.LBB4780:
.LBB4781:
	.loc 2 288 0 is_stmt 1
	lwz 9,100(1)
.LBE4781:
.LBE4780:
.LBE4779:
.LBB4782:
.LBB4783:
	.loc 2 235 0
	lis 31,_ZNSs4_Rep20_S_empty_rep_storageE@ha
	la 31,_ZNSs4_Rep20_S_empty_rep_storageE@l(31)
.LBE4783:
.LBE4782:
	.loc 2 534 0
	addi 3,9,-12
.LVL322:
.LBB4792:
.LBB4790:
	.loc 2 235 0
	cmpw 7,3,31
	bne- 7,.L746
.LVL323:
.L446:
.LBE4790:
.LBE4792:
.LBE4778:
.LBE4777:
.LBE4776:
.LBB4796:
.LBB4797:
.LBB4798:
.LBB4799:
.LBB4800:
.LBB4801:
	.loc 2 288 0
	lwz 9,104(1)
.LBE4801:
.LBE4800:
.LBE4799:
	.loc 2 534 0
	addi 3,9,-12
.LVL324:
.LBB4802:
.LBB4803:
	.loc 2 235 0
	cmpw 7,3,31
	beq+ 7,.L461
.LVL325:
.LBB4804:
.LBB4805:
.LBB4806:
	.loc 3 66 0
	lwz 11,-4(9)
.LVL326:
.LBE4806:
.LBE4805:
.LBE4804:
	.loc 2 240 0
	cmpwi 7,11,0
.LBB4809:
.LBB4808:
.LBB4807:
	.loc 3 67 0
	addi 11,11,-1
	stw 11,-4(9)
.LBE4807:
.LBE4808:
.LBE4809:
	.loc 2 240 0
	bgt+ 7,.L461
	.loc 2 244 0
	addi 4,1,19
	bl _ZNSs4_Rep10_M_destroyERKSaIcE
.LVL327:
	b .L461
.LVL328:
.L718:
.LBE4803:
.LBE4802:
.LBE4798:
.LBE4797:
.LBE4796:
.LBB4810:
.LBB4362:
.LBB4355:
.LBB4281:
.LBB4280:
.LBB4279:
.LBB4278:
.LBB4272:
.LBB4273:
.LBB4274:
	.loc 3 66 0
	lwz 11,-4(9)
.LVL329:
.LBE4274:
.LBE4273:
.LBE4272:
	.loc 2 240 0
	cmpwi 7,11,0
.LBB4277:
.LBB4276:
.LBB4275:
	.loc 3 67 0
	addi 11,11,-1
	stw 11,-4(9)
.LBE4275:
.LBE4276:
.LBE4277:
	.loc 2 240 0
	bgt+ 7,.L478
	.loc 2 244 0
	addi 4,1,17
	bl _ZNSs4_Rep10_M_destroyERKSaIcE
.LVL330:
	b .L478
.LVL331:
.L717:
.LBE4278:
.LBE4279:
.LBE4280:
.LBE4281:
.LBE4355:
.LBB4356:
.LBB4263:
.LBB4262:
.LBB4261:
.LBB4259:
.LBB4252:
.LBB4253:
.LBB4254:
	.loc 3 66 0
	lwz 11,-4(9)
.LVL332:
.LBE4254:
.LBE4253:
.LBE4252:
	.loc 2 240 0
	cmpwi 7,11,0
.LBB4257:
.LBB4256:
.LBB4255:
	.loc 3 67 0
	addi 11,11,-1
	stw 11,-4(9)
.LBE4255:
.LBE4256:
.LBE4257:
	.loc 2 240 0
	bgt+ 7,.L472
	.loc 2 244 0
	addi 4,1,18
	bl _ZNSs4_Rep10_M_destroyERKSaIcE
.LVL333:
	b .L472
.LVL334:
.L722:
.LBE4259:
.LBE4261:
.LBE4262:
.LBE4263:
.LBE4356:
.LBB4357:
.LBB4354:
.LBB4353:
.LBB4352:
.LBB4351:
.LBB4345:
.LBB4346:
.LBB4347:
	.loc 3 66 0
	lwz 11,-4(9)
.LVL335:
.LBE4347:
.LBE4346:
.LBE4345:
	.loc 2 240 0
	cmpwi 7,11,0
.LBB4350:
.LBB4349:
.LBB4348:
	.loc 3 67 0
	addi 11,11,-1
	stw 11,-4(9)
.LBE4348:
.LBE4349:
.LBE4350:
	.loc 2 240 0
	bgt+ 7,.L507
	.loc 2 244 0
	addi 4,1,14
	bl _ZNSs4_Rep10_M_destroyERKSaIcE
.LVL336:
	b .L507
.LVL337:
.L741:
.LBE4351:
.LBE4352:
.LBE4353:
.LBE4354:
.LBE4357:
.LBE4362:
.LBE4810:
.LBB4811:
.LBB4704:
.LBB4703:
.LBB4702:
.LBB4701:
.LBB4695:
.LBB4696:
.LBB4697:
	.loc 3 66 0
	lwz 11,-4(9)
.LVL338:
.LBE4697:
.LBE4696:
.LBE4695:
	.loc 2 240 0
	cmpwi 7,11,0
.LBB4700:
.LBB4699:
.LBB4698:
	.loc 3 67 0
	addi 11,11,-1
	stw 11,-4(9)
.LBE4698:
.LBE4699:
.LBE4700:
	.loc 2 240 0
	bgt+ 7,.L374
	.loc 2 244 0
	addi 4,1,27
	bl _ZNSs4_Rep10_M_destroyERKSaIcE
.LVL339:
	b .L374
.LVL340:
.L721:
.LBE4701:
.LBE4702:
.LBE4703:
.LBE4704:
.LBE4811:
.LBB4812:
.LBB4363:
.LBB4358:
.LBB4336:
.LBB4335:
.LBB4334:
.LBB4333:
.LBB4327:
.LBB4328:
.LBB4329:
	.loc 3 66 0
	lwz 11,-4(9)
.LVL341:
.LBE4329:
.LBE4328:
.LBE4327:
	.loc 2 240 0
	cmpwi 7,11,0
.LBB4332:
.LBB4331:
.LBB4330:
	.loc 3 67 0
	addi 11,11,-1
	stw 11,-4(9)
.LBE4330:
.LBE4331:
.LBE4332:
	.loc 2 240 0
	bgt+ 7,.L502
	.loc 2 244 0
	addi 4,1,15
	bl _ZNSs4_Rep10_M_destroyERKSaIcE
.LVL342:
	b .L502
.LVL343:
.L736:
.LBE4333:
.LBE4334:
.LBE4335:
.LBE4336:
.LBE4358:
.LBE4363:
.LBE4812:
.LBB4813:
.LBB4608:
	.loc 6 27 0
	li 3,632
.LEHB105:
	bl _Znwj
.LEHE105:
	mr 31,3
.LEHB106:
	bl _ZN11ApplicationC1Ev
.LEHE106:
	stw 31,_ZN11Application8instanceE@l(29)
	b .L574
.L735:
.LBE4608:
.LBE4813:
.LBB4814:
.LBB4605:
	li 3,632
.LEHB107:
	bl _Znwj
.LEHE107:
	mr 31,3
.LEHB108:
	bl _ZN11ApplicationC1Ev
.LEHE108:
	stw 31,_ZN11Application8instanceE@l(29)
	b .L572
.LVL344:
.L733:
.LBE4605:
.LBE4814:
.LBB4815:
.LBB4569:
	.loc 5 39 0
	li 3,12
.LEHB109:
	bl _Znwj
.LEHE109:
.LBB4554:
.LBB4555:
.LBB4556:
.LBB4557:
.LBB4558:
	.loc 2 270 0
	lis 9,_ZNSs4_Rep20_S_empty_rep_storageE+12@ha
	la 0,_ZNSs4_Rep20_S_empty_rep_storageE+12@l(9)
.LBE4558:
.LBE4557:
.LBE4556:
.LBE4555:
.LBE4554:
	.loc 5 39 0
	mr 25,3
.LVL345:
.LBB4567:
.LBB4565:
.LBB4561:
.LBB4560:
.LBB4559:
	.loc 2 270 0
	stw 0,0(3)
.LVL346:
.LBE4559:
.LBE4560:
.LBE4561:
.LBB4562:
.LBB4563:
.LBB4564:
	stw 0,4(3)
.LEHB110:
.LBE4564:
.LBE4563:
.LBE4562:
	.loc 5 47 0
	bl _ZN8ErrorLog5ResetEv
.LEHE110:
.LVL347:
.LBE4565:
.LBE4567:
	.loc 5 39 0
	stw 25,_ZN8ErrorLog8instanceE@l(30)
	b .L393
.LVL348:
.L719:
.LBE4569:
.LBE4815:
.LBB4816:
.LBB4364:
.LBB4359:
.LBB4299:
	li 3,12
.LEHB111:
	bl _Znwj
.LEHE111:
.LBB4284:
.LBB4285:
.LBB4286:
.LBB4287:
.LBB4288:
	.loc 2 270 0
	lis 9,_ZNSs4_Rep20_S_empty_rep_storageE+12@ha
.LBE4288:
.LBE4287:
.LBE4286:
.LBE4285:
.LBE4284:
	.loc 5 39 0
	mr 26,3
.LVL349:
.LBB4297:
.LBB4295:
.LBB4291:
.LBB4290:
.LBB4289:
	.loc 2 270 0
	la 0,_ZNSs4_Rep20_S_empty_rep_storageE+12@l(9)
	stw 0,0(3)
.LVL350:
.LBE4289:
.LBE4290:
.LBE4291:
.LBB4292:
.LBB4293:
.LBB4294:
	stw 0,4(3)
.LEHB112:
.LBE4294:
.LBE4293:
.LBE4292:
	.loc 5 47 0
	bl _ZN8ErrorLog5ResetEv
.LEHE112:
.LVL351:
.LBE4295:
.LBE4297:
	.loc 5 39 0
	stw 26,_ZN8ErrorLog8instanceE@l(30)
	b .L480
.LVL352:
.L739:
.LBE4299:
.LBE4359:
.LBE4364:
.LBE4816:
.LBB4817:
.LBB4667:
	li 3,12
.LEHB113:
	bl _Znwj
.LEHE113:
.LBB4652:
.LBB4653:
.LBB4654:
.LBB4655:
.LBB4656:
	.loc 2 270 0
	lis 9,_ZNSs4_Rep20_S_empty_rep_storageE+12@ha
	la 0,_ZNSs4_Rep20_S_empty_rep_storageE+12@l(9)
.LBE4656:
.LBE4655:
.LBE4654:
.LBE4653:
.LBE4652:
	.loc 5 39 0
	mr 26,3
.LVL353:
.LBB4665:
.LBB4663:
.LBB4659:
.LBB4658:
.LBB4657:
	.loc 2 270 0
	stw 0,0(3)
.LVL354:
.LBE4657:
.LBE4658:
.LBE4659:
.LBB4660:
.LBB4661:
.LBB4662:
	stw 0,4(3)
.LEHB114:
.LBE4662:
.LBE4661:
.LBE4660:
	.loc 5 47 0
	bl _ZN8ErrorLog5ResetEv
.LEHE114:
.LVL355:
.LBE4663:
.LBE4665:
	.loc 5 39 0
	stw 26,_ZN8ErrorLog8instanceE@l(30)
	b .L353
.LVL356:
.L742:
.LBE4667:
.LBE4817:
.LBB4818:
.LBB4528:
.LBB4519:
.LBB4518:
	li 3,12
.LEHB115:
	bl _Znwj
.LEHE115:
.LBB4505:
.LBB4506:
.LBB4507:
.LBB4508:
.LBB4509:
	.loc 2 270 0
	lis 9,_ZNSs4_Rep20_S_empty_rep_storageE+12@ha
	la 0,_ZNSs4_Rep20_S_empty_rep_storageE+12@l(9)
.LBE4509:
.LBE4508:
.LBE4507:
.LBE4506:
.LBE4505:
	.loc 5 39 0
	mr 31,3
.LVL357:
.LBB4517:
.LBB4516:
.LBB4512:
.LBB4511:
.LBB4510:
	.loc 2 270 0
	stw 0,0(3)
.LVL358:
.LBE4510:
.LBE4511:
.LBE4512:
.LBB4513:
.LBB4514:
.LBB4515:
	stw 0,4(3)
.LEHB116:
.LBE4515:
.LBE4514:
.LBE4513:
	.loc 5 47 0
	bl _ZN8ErrorLog5ResetEv
.LEHE116:
.LVL359:
.LBE4516:
.LBE4517:
	.loc 5 39 0
	stw 31,_ZN8ErrorLog8instanceE@l(30)
	b .L564
.LVL360:
.L743:
.LBE4518:
.LBE4519:
.LBE4528:
.LBE4818:
.LBB4819:
.LBB4722:
	li 3,12
.LEHB117:
	bl _Znwj
.LEHE117:
.LBB4709:
.LBB4710:
.LBB4711:
.LBB4712:
.LBB4713:
	.loc 2 270 0
	lis 9,_ZNSs4_Rep20_S_empty_rep_storageE+12@ha
	la 0,_ZNSs4_Rep20_S_empty_rep_storageE+12@l(9)
.LBE4713:
.LBE4712:
.LBE4711:
.LBE4710:
.LBE4709:
	.loc 5 39 0
	mr 31,3
.LVL361:
.LBB4721:
.LBB4720:
.LBB4716:
.LBB4715:
.LBB4714:
	.loc 2 270 0
	stw 0,0(3)
.LVL362:
.LBE4714:
.LBE4715:
.LBE4716:
.LBB4717:
.LBB4718:
.LBB4719:
	stw 0,4(3)
.LEHB118:
.LBE4719:
.LBE4718:
.LBE4717:
	.loc 5 47 0
	bl _ZN8ErrorLog5ResetEv
.LEHE118:
.LVL363:
.LBE4720:
.LBE4721:
	.loc 5 39 0
	stw 31,_ZN8ErrorLog8instanceE@l(30)
	b .L417
.LVL364:
.L745:
.LBE4722:
.LBE4819:
.LBB4820:
.LBB4774:
	li 3,12
.LEHB119:
	bl _Znwj
.LEHE119:
.LBB4759:
.LBB4760:
.LBB4761:
.LBB4762:
.LBB4763:
	.loc 2 270 0
	lis 9,_ZNSs4_Rep20_S_empty_rep_storageE+12@ha
	la 0,_ZNSs4_Rep20_S_empty_rep_storageE+12@l(9)
.LBE4763:
.LBE4762:
.LBE4761:
.LBE4760:
.LBE4759:
	.loc 5 39 0
	mr 31,3
.LVL365:
.LBB4772:
.LBB4770:
.LBB4766:
.LBB4765:
.LBB4764:
	.loc 2 270 0
	stw 0,0(3)
.LVL366:
.LBE4764:
.LBE4765:
.LBE4766:
.LBB4767:
.LBB4768:
.LBB4769:
	stw 0,4(3)
.LEHB120:
.LBE4769:
.LBE4768:
.LBE4767:
	.loc 5 47 0
	bl _ZN8ErrorLog5ResetEv
.LEHE120:
.LVL367:
.LBE4770:
.LBE4772:
	.loc 5 39 0
	stw 31,_ZN8ErrorLog8instanceE@l(30)
	b .L432
.LVL368:
.L709:
.LBE4774:
.LBE4820:
.LBB4821:
.LBB4198:
.LBB4195:
.LBB4193:
.LBB4191:
.LBB4189:
.LBB4170:
.LBB4169:
.LBB4168:
.LBB4166:
.LBB4159:
.LBB4160:
.LBB4161:
	.loc 3 66 0
	lwz 11,-4(9)
.LVL369:
.LBE4161:
.LBE4160:
.LBE4159:
	.loc 2 240 0
	cmpwi 7,11,0
.LBB4164:
.LBB4163:
.LBB4162:
	.loc 3 67 0
	addi 11,11,-1
	stw 11,-4(9)
.LBE4162:
.LBE4163:
.LBE4164:
	.loc 2 240 0
	bgt+ 7,.L326
	.loc 2 244 0
	addi 4,1,32
	bl _ZNSs4_Rep10_M_destroyERKSaIcE
.LVL370:
	b .L326
.LVL371:
.L710:
.LBE4166:
.LBE4168:
.LBE4169:
.LBE4170:
.LBE4189:
.LBB4190:
.LBB4188:
.LBB4187:
.LBB4186:
.LBB4185:
.LBB4179:
.LBB4180:
.LBB4181:
	.loc 3 66 0
	lwz 11,-4(9)
.LVL372:
.LBE4181:
.LBE4180:
.LBE4179:
	.loc 2 240 0
	cmpwi 7,11,0
.LBB4184:
.LBB4183:
.LBB4182:
	.loc 3 67 0
	addi 11,11,-1
	stw 11,-4(9)
.LBE4182:
.LBE4183:
.LBE4184:
	.loc 2 240 0
	bgt+ 7,.L334
	.loc 2 244 0
	addi 4,1,31
	bl _ZNSs4_Rep10_M_destroyERKSaIcE
.LVL373:
	b .L334
.LVL374:
.L729:
.LBE4185:
.LBE4186:
.LBE4187:
.LBE4188:
.LBE4190:
.LBE4191:
.LBE4193:
.LBE4195:
.LBE4198:
.LBE4821:
.LBB4822:
.LBB4529:
.LBB4520:
.LBB4502:
.LBB4501:
.LBB4500:
.LBB4499:
.LBB4493:
.LBB4494:
.LBB4495:
	.loc 3 66 0
	lwz 11,-4(9)
.LVL375:
.LBE4495:
.LBE4494:
.LBE4493:
	.loc 2 240 0
	cmpwi 7,11,0
.LBB4498:
.LBB4497:
.LBB4496:
	.loc 3 67 0
	addi 11,11,-1
	stw 11,-4(9)
.LBE4496:
.LBE4497:
.LBE4498:
	.loc 2 240 0
	bgt+ 7,.L563
	.loc 2 244 0
	addi 4,1,8
	bl _ZNSs4_Rep10_M_destroyERKSaIcE
.LVL376:
	b .L563
.LVL377:
.L713:
.LBE4499:
.LBE4500:
.LBE4501:
.LBE4502:
.LBE4520:
.LBE4529:
.LBE4822:
.LBB4823:
.LBB4238:
.LBB4237:
.LBB4236:
.LBB4235:
.LBB4229:
.LBB4230:
.LBB4231:
	.loc 3 66 0
	lwz 11,-4(9)
.LVL378:
.LBE4231:
.LBE4230:
.LBE4229:
	.loc 2 240 0
	cmpwi 7,11,0
.LBB4234:
.LBB4233:
.LBB4232:
	.loc 3 67 0
	addi 11,11,-1
	stw 11,-4(9)
.LBE4232:
.LBE4233:
.LBE4234:
	.loc 2 240 0
	bgt+ 7,.L391
	.loc 2 244 0
	addi 4,1,25
	bl _ZNSs4_Rep10_M_destroyERKSaIcE
.LVL379:
	b .L391
.LVL380:
.L712:
.LBE4235:
.LBE4236:
.LBE4237:
.LBE4238:
.LBE4823:
.LBB4824:
.LBB4220:
.LBB4219:
.LBB4218:
.LBB4216:
.LBB4209:
.LBB4210:
.LBB4211:
	.loc 3 66 0
	lwz 11,-4(9)
.LVL381:
.LBE4211:
.LBE4210:
.LBE4209:
	.loc 2 240 0
	cmpwi 7,11,0
.LBB4214:
.LBB4213:
.LBB4212:
	.loc 3 67 0
	addi 11,11,-1
	stw 11,-4(9)
.LBE4212:
.LBE4213:
.LBE4214:
	.loc 2 240 0
	bgt+ 7,.L383
	.loc 2 244 0
	addi 4,1,26
	bl _ZNSs4_Rep10_M_destroyERKSaIcE
.LVL382:
	b .L383
.LVL383:
.L728:
.LBE4216:
.LBE4218:
.LBE4219:
.LBE4220:
.LBE4824:
.LBB4825:
.LBB4530:
.LBB4521:
.LBB4484:
.LBB4483:
.LBB4482:
.LBB4481:
.LBB4475:
.LBB4476:
.LBB4477:
	.loc 3 66 0
	lwz 11,-4(9)
.LVL384:
.LBE4477:
.LBE4476:
.LBE4475:
	.loc 2 240 0
	cmpwi 7,11,0
.LBB4480:
.LBB4479:
.LBB4478:
	.loc 3 67 0
	addi 11,11,-1
	stw 11,-4(9)
.LBE4478:
.LBE4479:
.LBE4480:
	.loc 2 240 0
	bgt+ 7,.L555
	.loc 2 244 0
	addi 4,1,9
	bl _ZNSs4_Rep10_M_destroyERKSaIcE
.LVL385:
	b .L555
.LVL386:
.L727:
.LBE4481:
.LBE4482:
.LBE4483:
.LBE4484:
.LBE4521:
.LBB4522:
.LBB4466:
.LBB4465:
.LBB4464:
.LBB4463:
.LBB4457:
.LBB4458:
.LBB4459:
	.loc 3 66 0
	lwz 11,-4(9)
.LVL387:
.LBE4459:
.LBE4458:
.LBE4457:
	.loc 2 240 0
	cmpwi 7,11,0
.LBB4462:
.LBB4461:
.LBB4460:
	.loc 3 67 0
	addi 11,11,-1
	stw 11,-4(9)
.LBE4460:
.LBE4461:
.LBE4462:
	.loc 2 240 0
	bgt+ 7,.L547
	.loc 2 244 0
	addi 4,1,10
	bl _ZNSs4_Rep10_M_destroyERKSaIcE
.LVL388:
	b .L547
.LVL389:
.L726:
.LBE4463:
.LBE4464:
.LBE4465:
.LBE4466:
.LBE4522:
.LBB4523:
.LBB4448:
.LBB4447:
.LBB4446:
.LBB4445:
.LBB4439:
.LBB4440:
.LBB4441:
	.loc 3 66 0
	lwz 11,-4(9)
.LVL390:
.LBE4441:
.LBE4440:
.LBE4439:
	.loc 2 240 0
	cmpwi 7,11,0
.LBB4444:
.LBB4443:
.LBB4442:
	.loc 3 67 0
	addi 11,11,-1
	stw 11,-4(9)
.LBE4442:
.LBE4443:
.LBE4444:
	.loc 2 240 0
	bgt+ 7,.L539
	.loc 2 244 0
	addi 4,1,11
	bl _ZNSs4_Rep10_M_destroyERKSaIcE
.LVL391:
	b .L539
.LVL392:
.L725:
.LBE4445:
.LBE4446:
.LBE4447:
.LBE4448:
.LBE4523:
.LBB4524:
.LBB4430:
.LBB4429:
.LBB4428:
.LBB4427:
.LBB4421:
.LBB4422:
.LBB4423:
	.loc 3 66 0
	lwz 11,-4(9)
.LVL393:
.LBE4423:
.LBE4422:
.LBE4421:
	.loc 2 240 0
	cmpwi 7,11,0
.LBB4426:
.LBB4425:
.LBB4424:
	.loc 3 67 0
	addi 11,11,-1
	stw 11,-4(9)
.LBE4424:
.LBE4425:
.LBE4426:
	.loc 2 240 0
	bgt+ 7,.L531
	.loc 2 244 0
	addi 4,1,12
	bl _ZNSs4_Rep10_M_destroyERKSaIcE
.LVL394:
	b .L531
.LVL395:
.L724:
.LBE4427:
.LBE4428:
.LBE4429:
.LBE4430:
.LBE4524:
.LBB4525:
.LBB4411:
.LBB4409:
.LBB4407:
.LBB4404:
.LBB4396:
.LBB4397:
.LBB4398:
	.loc 3 66 0
	lwz 11,-4(9)
.LVL396:
.LBE4398:
.LBE4397:
.LBE4396:
	.loc 2 240 0
	cmpwi 7,11,0
.LBB4401:
.LBB4400:
.LBB4399:
	.loc 3 67 0
	addi 11,11,-1
	stw 11,-4(9)
.LBE4399:
.LBE4400:
.LBE4401:
	.loc 2 240 0
	bgt+ 7,.L523
	.loc 2 244 0
	addi 4,1,13
	bl _ZNSs4_Rep10_M_destroyERKSaIcE
.LVL397:
	b .L523
.LVL398:
.L734:
.LBE4404:
.LBE4407:
.LBE4409:
.LBE4411:
.LBE4525:
.LBE4530:
.LBE4825:
.LBB4826:
.LBB4588:
.LBB4587:
.LBB4586:
.LBB4585:
.LBB4579:
.LBB4580:
.LBB4581:
	.loc 3 66 0
	lwz 11,-4(9)
.LVL399:
.LBE4581:
.LBE4580:
.LBE4579:
	.loc 2 240 0
	cmpwi 7,11,0
.LBB4584:
.LBB4583:
.LBB4582:
	.loc 3 67 0
	addi 11,11,-1
	stw 11,-4(9)
.LBE4582:
.LBE4583:
.LBE4584:
	.loc 2 240 0
	bgt+ 7,.L407
	.loc 2 244 0
	addi 4,1,24
	bl _ZNSs4_Rep10_M_destroyERKSaIcE
.LVL400:
	b .L407
.LVL401:
.L740:
.LBE4585:
.LBE4586:
.LBE4587:
.LBE4588:
.LBE4826:
.LBB4827:
.LBB4686:
.LBB4685:
.LBB4684:
.LBB4683:
.LBB4677:
.LBB4678:
.LBB4679:
	.loc 3 66 0
	lwz 11,-4(9)
.LVL402:
.LBE4679:
.LBE4678:
.LBE4677:
	.loc 2 240 0
	cmpwi 7,11,0
.LBB4682:
.LBB4681:
.LBB4680:
	.loc 3 67 0
	addi 11,11,-1
	stw 11,-4(9)
.LBE4680:
.LBE4681:
.LBE4682:
	.loc 2 240 0
	bgt+ 7,.L367
	.loc 2 244 0
	addi 4,1,28
	bl _ZNSs4_Rep10_M_destroyERKSaIcE
.LVL403:
	b .L367
.LVL404:
.L720:
.LBE4683:
.LBE4684:
.LBE4685:
.LBE4686:
.LBE4827:
.LBB4828:
.LBB4365:
.LBB4360:
.LBB4318:
.LBB4317:
.LBB4316:
.LBB4315:
.LBB4309:
.LBB4310:
.LBB4311:
	.loc 3 66 0
	lwz 11,-4(9)
.LVL405:
.LBE4311:
.LBE4310:
.LBE4309:
	.loc 2 240 0
	cmpwi 7,11,0
.LBB4314:
.LBB4313:
.LBB4312:
	.loc 3 67 0
	addi 11,11,-1
	stw 11,-4(9)
.LBE4312:
.LBE4313:
.LBE4314:
	.loc 2 240 0
	bgt+ 7,.L495
	.loc 2 244 0
	addi 4,1,16
	bl _ZNSs4_Rep10_M_destroyERKSaIcE
.LVL406:
	b .L495
.LVL407:
.L737:
.LBE4315:
.LBE4316:
.LBE4317:
.LBE4318:
.LBE4360:
.LBE4365:
.LBE4828:
.LBB4829:
.LBB4631:
.LBB4630:
.LBB4629:
.LBB4627:
.LBB4620:
.LBB4621:
.LBB4622:
	.loc 3 66 0
	lwz 11,-4(9)
.LVL408:
.LBE4622:
.LBE4621:
.LBE4620:
	.loc 2 240 0
	cmpwi 7,11,0
.LBB4625:
.LBB4624:
.LBB4623:
	.loc 3 67 0
	addi 11,11,-1
	stw 11,-4(9)
.LBE4623:
.LBE4624:
.LBE4625:
	.loc 2 240 0
	bgt+ 7,.L343
	.loc 2 244 0
	addi 4,1,30
	bl _ZNSs4_Rep10_M_destroyERKSaIcE
.LVL409:
	b .L343
.LVL410:
.L738:
.LBE4627:
.LBE4629:
.LBE4630:
.LBE4631:
.LBE4829:
.LBB4830:
.LBB4649:
.LBB4648:
.LBB4647:
.LBB4646:
.LBB4640:
.LBB4641:
.LBB4642:
	.loc 3 66 0
	lwz 11,-4(9)
.LVL411:
.LBE4642:
.LBE4641:
.LBE4640:
	.loc 2 240 0
	cmpwi 7,11,0
.LBB4645:
.LBB4644:
.LBB4643:
	.loc 3 67 0
	addi 11,11,-1
	stw 11,-4(9)
.LBE4643:
.LBE4644:
.LBE4645:
	.loc 2 240 0
	bgt+ 7,.L351
	.loc 2 244 0
	addi 4,1,29
	bl _ZNSs4_Rep10_M_destroyERKSaIcE
.LVL412:
	b .L351
.LVL413:
.L650:
	mr 31,3
.LBE4646:
.LBE4647:
.LBE4648:
.LBE4649:
.LBE4830:
	.loc 1 226 0
	addi 3,1,132
	bl _ZNSsD1Ev
	mr 3,31
.L697:
	mr 31,3
	addi 3,1,136
	bl _ZNSsD1Ev
	mr 3,31
.LEHB121:
	bl _Unwind_Resume
.LVL414:
.L673:
.L703:
	mr 31,3
.LBB4831:
.LBB4531:
	.loc 1 264 0
	addi 3,1,68
	bl _ZNSsD1Ev
	mr 3,31
.L704:
	mr 31,3
	addi 3,1,72
	bl _ZNSsD1Ev
	mr 3,31
.L705:
	mr 31,3
	addi 3,1,76
	bl _ZNSsD1Ev
	mr 3,31
	bl _Unwind_Resume
.LVL415:
.L653:
.L698:
	mr 31,3
.LBE4531:
.LBE4831:
	.loc 1 234 0
	addi 3,1,120
	bl _ZNSsD1Ev
	mr 3,31
	bl _Unwind_Resume
.LVL416:
.L670:
	b .L705
.L669:
	b .L705
.L674:
	b .L703
.L671:
	b .L704
.LVL417:
.L654:
	b .L698
.L655:
	mr 31,3
	addi 3,1,116
	bl _ZNSsD1Ev
	mr 3,31
	b .L698
.LVL418:
.L668:
	mr 31,3
.LBB4832:
.LBB4366:
	.loc 1 259 0
	addi 3,1,80
	bl _ZNSsD1Ev
	mr 3,31
.L701:
	mr 31,3
	addi 3,1,84
	bl _ZNSsD1Ev
	mr 3,31
.LVL419:
.L702:
	mr 31,3
.L487:
	addi 3,1,96
.LVL420:
	bl _ZNSsD1Ev
.LVL421:
	mr 3,31
	bl _Unwind_Resume
.LVL422:
.L647:
	mr 31,3
.LBE4366:
.LBE4832:
	.loc 1 224 0
	addi 3,1,140
	bl _ZNSsD1Ev
.L588:
	addi 3,1,144
	bl _ZNSsD1Ev
	mr 3,31
	bl _Unwind_Resume
.LVL423:
.L666:
	b .L701
.L667:
	b .L701
.L665:
	b .L702
.LVL424:
.L680:
	mr 31,3
.LBB4833:
.LBB4570:
.LBB4568:
.LBB4566:
	.loc 5 47 0
	addi 3,25,4
	bl _ZNSsD1Ev
	mr 3,25
	bl _ZNSsD1Ev
.LBE4566:
.LBE4568:
	.loc 5 39 0
	mr 3,25
	bl _ZdlPv
	mr 3,31
	bl _Unwind_Resume
.LVL425:
.L682:
.L706:
	mr 30,3
.LBE4570:
.LBE4833:
.LBB4834:
.LBB4775:
.LBB4773:
.LBB4771:
	.loc 5 47 0
	addi 3,31,4
	bl _ZNSsD1Ev
	mr 3,31
	bl _ZNSsD1Ev
.LBE4771:
.LBE4773:
	.loc 5 39 0
	mr 3,31
	bl _ZdlPv
	mr 3,30
	bl _Unwind_Resume
.LVL426:
.L649:
	b .L697
.L648:
	b .L697
.LVL427:
.L675:
	mr 31,3
.L631:
.LBE4775:
.LBE4834:
.LBB4835:
.LBB4532:
	.loc 1 264 0
	addi 3,1,64
	bl _ZNSsD1Ev
	mr 3,31
	b .L703
.L651:
	mr 31,3
.L597:
.LBE4532:
.LBE4835:
	.loc 1 232 0
	addi 3,1,128
	bl _ZNSsD1Ev
	mr 3,31
	bl _Unwind_Resume
.L676:
	mr 31,3
.L628:
.LBB4836:
.LBB4533:
	.loc 1 264 0
	addi 3,1,60
	bl _ZNSsD1Ev
	b .L631
.LVL428:
.L683:
	mr 31,3
.LBE4533:
.LBE4836:
.LBB4837:
.LBB4367:
.LBB4361:
.LBB4300:
.LBB4298:
.LBB4296:
	.loc 5 47 0
	addi 3,26,4
	bl _ZNSsD1Ev
	mr 3,26
	bl _ZNSsD1Ev
.LBE4296:
.LBE4298:
	.loc 5 39 0
	mr 3,26
	bl _ZdlPv
	b .L487
.LVL429:
.L652:
	mr 31,3
.LBE4300:
.LBE4361:
.LBE4367:
.LBE4837:
	.loc 1 232 0
	addi 3,1,124
	bl _ZNSsD1Ev
	b .L597
.LVL430:
.L663:
	mr 31,3
.L616:
.LBB4838:
.LBB4368:
	.loc 1 257 0
	addi 3,1,92
	bl _ZNSsD1Ev
	b .L487
.L662:
	b .L702
.LVL431:
.L678:
	mr 31,3
.LBE4368:
.LBE4838:
.LBB4839:
.LBB4199:
.LBB4196:
.LBB4194:
.LBB4192:
	.loc 5 48 0
	addi 3,29,4
	bl _ZNSsD1Ev
	mr 3,29
	bl _ZNSsD1Ev
	mr 3,31
	bl _Unwind_Resume
.LVL432:
.L664:
	mr 31,3
.LBE4192:
.LBE4194:
.LBE4196:
.LBE4199:
.LBE4839:
.LBB4840:
.LBB4369:
	.loc 1 257 0
	addi 3,1,88
	bl _ZNSsD1Ev
	b .L616
.LVL433:
.L646:
	mr 31,3
	b .L588
.L677:
	mr 31,3
.LBE4369:
.LBE4840:
.LBB4841:
.LBB4534:
	.loc 1 264 0
	addi 3,1,56
	bl _ZNSsD1Ev
	b .L628
.L672:
	b .L704
.LVL434:
.L688:
	b .L706
.LVL435:
.L684:
	b .L706
.LVL436:
.L645:
	mr 31,3
.LBE4534:
.LBE4841:
	.loc 1 216 0
	mr 3,28
	bl _ZdlPv
	mr 3,31
	bl _Unwind_Resume
.LVL437:
.L679:
	mr 31,3
.LBB4842:
.LBB4668:
.LBB4666:
.LBB4664:
	.loc 5 47 0
	addi 3,26,4
	bl _ZNSsD1Ev
	mr 3,26
	bl _ZNSsD1Ev
.LBE4664:
.LBE4666:
	.loc 5 39 0
	mr 3,26
	bl _ZdlPv
	mr 3,31
	bl _Unwind_Resume
.LVL438:
.L661:
	mr 31,3
.LBE4668:
.LBE4842:
	.loc 1 249 0
	addi 3,1,100
	bl _ZNSsD1Ev
	mr 3,31
.L700:
	mr 31,3
	addi 3,1,104
	bl _ZNSsD1Ev
	mr 3,31
	bl _Unwind_Resume
.L660:
	b .L700
.L659:
	b .L700
.LVL439:
.L681:
	b .L706
.LVL440:
.L744:
.LBB4843:
.LBB4742:
.LBB4741:
.LBB4740:
.LBB4738:
.LBB4731:
.LBB4732:
.LBB4733:
	.loc 3 66 0
	lwz 11,-4(9)
.LVL441:
.LBE4733:
.LBE4732:
.LBE4731:
	.loc 2 240 0
	cmpwi 7,11,0
.LBB4736:
.LBB4735:
.LBB4734:
	.loc 3 67 0
	addi 11,11,-1
	stw 11,-4(9)
.LBE4734:
.LBE4735:
.LBE4736:
	.loc 2 240 0
	bgt+ 7,.L431
	.loc 2 244 0
	addi 4,1,22
	bl _ZNSs4_Rep10_M_destroyERKSaIcE
.LVL442:
	b .L431
.LVL443:
.L687:
.L707:
	mr 30,3
.LBE4738:
.LBE4740:
.LBE4741:
.LBE4742:
.LBE4843:
.LBB4844:
.LBB4609:
	.loc 6 27 0
	mr 3,31
	bl _ZdlPv
	mr 3,30
	bl _Unwind_Resume
.LVL444:
.L746:
.LBE4609:
.LBE4844:
.LBB4845:
.LBB4795:
.LBB4794:
.LBB4793:
.LBB4791:
.LBB4784:
.LBB4785:
.LBB4786:
	.loc 3 66 0
	lwz 11,-4(9)
.LVL445:
.LBE4786:
.LBE4785:
.LBE4784:
	.loc 2 240 0
	cmpwi 7,11,0
.LBB4789:
.LBB4788:
.LBB4787:
	.loc 3 67 0
	addi 11,11,-1
	stw 11,-4(9)
.LBE4787:
.LBE4788:
.LBE4789:
	.loc 2 240 0
	bgt+ 7,.L446
	.loc 2 244 0
	addi 4,1,20
	bl _ZNSs4_Rep10_M_destroyERKSaIcE
.LVL446:
	b .L446
.LVL447:
.L686:
	b .L707
.L658:
	mr 31,3
.LBE4791:
.LBE4793:
.LBE4794:
.LBE4795:
.LBE4845:
	.loc 1 243 0
	addi 3,1,108
	bl _ZNSsD1Ev
	mr 3,31
.L699:
	mr 31,3
	addi 3,1,112
	bl _ZNSsD1Ev
	mr 3,31
	bl _Unwind_Resume
.LEHE121:
.L657:
	b .L699
.L656:
	b .L699
.LVL448:
.L685:
	b .L706
.LBE4852:
	.cfi_endproc
.LFE1504:
	.section	.gcc_except_table
.LLSDA1504:
	.byte	0xff
	.byte	0xff
	.byte	0x1
	.uleb128 .LLSDACSE1504-.LLSDACSB1504
.LLSDACSB1504:
	.uleb128 .LEHB57-.LFB1504
	.uleb128 .LEHE57-.LEHB57
	.uleb128 .L678-.LFB1504
	.uleb128 0
	.uleb128 .LEHB58-.LFB1504
	.uleb128 .LEHE58-.LEHB58
	.uleb128 0
	.uleb128 0
	.uleb128 .LEHB59-.LFB1504
	.uleb128 .LEHE59-.LEHB59
	.uleb128 .L651-.LFB1504
	.uleb128 0
	.uleb128 .LEHB60-.LFB1504
	.uleb128 .LEHE60-.LEHB60
	.uleb128 .L652-.LFB1504
	.uleb128 0
	.uleb128 .LEHB61-.LFB1504
	.uleb128 .LEHE61-.LEHB61
	.uleb128 0
	.uleb128 0
	.uleb128 .LEHB62-.LFB1504
	.uleb128 .LEHE62-.LEHB62
	.uleb128 .L662-.LFB1504
	.uleb128 0
	.uleb128 .LEHB63-.LFB1504
	.uleb128 .LEHE63-.LEHB63
	.uleb128 .L663-.LFB1504
	.uleb128 0
	.uleb128 .LEHB64-.LFB1504
	.uleb128 .LEHE64-.LEHB64
	.uleb128 .L664-.LFB1504
	.uleb128 0
	.uleb128 .LEHB65-.LFB1504
	.uleb128 .LEHE65-.LEHB65
	.uleb128 .L662-.LFB1504
	.uleb128 0
	.uleb128 .LEHB66-.LFB1504
	.uleb128 .LEHE66-.LEHB66
	.uleb128 .L665-.LFB1504
	.uleb128 0
	.uleb128 .LEHB67-.LFB1504
	.uleb128 .LEHE67-.LEHB67
	.uleb128 .L666-.LFB1504
	.uleb128 0
	.uleb128 .LEHB68-.LFB1504
	.uleb128 .LEHE68-.LEHB68
	.uleb128 .L667-.LFB1504
	.uleb128 0
	.uleb128 .LEHB69-.LFB1504
	.uleb128 .LEHE69-.LEHB69
	.uleb128 .L668-.LFB1504
	.uleb128 0
	.uleb128 .LEHB70-.LFB1504
	.uleb128 .LEHE70-.LEHB70
	.uleb128 0
	.uleb128 0
	.uleb128 .LEHB71-.LFB1504
	.uleb128 .LEHE71-.LEHB71
	.uleb128 .L669-.LFB1504
	.uleb128 0
	.uleb128 .LEHB72-.LFB1504
	.uleb128 .LEHE72-.LEHB72
	.uleb128 .L670-.LFB1504
	.uleb128 0
	.uleb128 .LEHB73-.LFB1504
	.uleb128 .LEHE73-.LEHB73
	.uleb128 .L671-.LFB1504
	.uleb128 0
	.uleb128 .LEHB74-.LFB1504
	.uleb128 .LEHE74-.LEHB74
	.uleb128 .L672-.LFB1504
	.uleb128 0
	.uleb128 .LEHB75-.LFB1504
	.uleb128 .LEHE75-.LEHB75
	.uleb128 .L673-.LFB1504
	.uleb128 0
	.uleb128 .LEHB76-.LFB1504
	.uleb128 .LEHE76-.LEHB76
	.uleb128 .L674-.LFB1504
	.uleb128 0
	.uleb128 .LEHB77-.LFB1504
	.uleb128 .LEHE77-.LEHB77
	.uleb128 .L675-.LFB1504
	.uleb128 0
	.uleb128 .LEHB78-.LFB1504
	.uleb128 .LEHE78-.LEHB78
	.uleb128 .L676-.LFB1504
	.uleb128 0
	.uleb128 .LEHB79-.LFB1504
	.uleb128 .LEHE79-.LEHB79
	.uleb128 .L677-.LFB1504
	.uleb128 0
	.uleb128 .LEHB80-.LFB1504
	.uleb128 .LEHE80-.LEHB80
	.uleb128 0
	.uleb128 0
	.uleb128 .LEHB81-.LFB1504
	.uleb128 .LEHE81-.LEHB81
	.uleb128 .L653-.LFB1504
	.uleb128 0
	.uleb128 .LEHB82-.LFB1504
	.uleb128 .LEHE82-.LEHB82
	.uleb128 .L654-.LFB1504
	.uleb128 0
	.uleb128 .LEHB83-.LFB1504
	.uleb128 .LEHE83-.LEHB83
	.uleb128 .L655-.LFB1504
	.uleb128 0
	.uleb128 .LEHB84-.LFB1504
	.uleb128 .LEHE84-.LEHB84
	.uleb128 0
	.uleb128 0
	.uleb128 .LEHB85-.LFB1504
	.uleb128 .LEHE85-.LEHB85
	.uleb128 .L688-.LFB1504
	.uleb128 0
	.uleb128 .LEHB86-.LFB1504
	.uleb128 .LEHE86-.LEHB86
	.uleb128 0
	.uleb128 0
	.uleb128 .LEHB87-.LFB1504
	.uleb128 .LEHE87-.LEHB87
	.uleb128 .L646-.LFB1504
	.uleb128 0
	.uleb128 .LEHB88-.LFB1504
	.uleb128 .LEHE88-.LEHB88
	.uleb128 .L647-.LFB1504
	.uleb128 0
	.uleb128 .LEHB89-.LFB1504
	.uleb128 .LEHE89-.LEHB89
	.uleb128 0
	.uleb128 0
	.uleb128 .LEHB90-.LFB1504
	.uleb128 .LEHE90-.LEHB90
	.uleb128 .L648-.LFB1504
	.uleb128 0
	.uleb128 .LEHB91-.LFB1504
	.uleb128 .LEHE91-.LEHB91
	.uleb128 .L649-.LFB1504
	.uleb128 0
	.uleb128 .LEHB92-.LFB1504
	.uleb128 .LEHE92-.LEHB92
	.uleb128 .L650-.LFB1504
	.uleb128 0
	.uleb128 .LEHB93-.LFB1504
	.uleb128 .LEHE93-.LEHB93
	.uleb128 0
	.uleb128 0
	.uleb128 .LEHB94-.LFB1504
	.uleb128 .LEHE94-.LEHB94
	.uleb128 .L645-.LFB1504
	.uleb128 0
	.uleb128 .LEHB95-.LFB1504
	.uleb128 .LEHE95-.LEHB95
	.uleb128 0
	.uleb128 0
	.uleb128 .LEHB96-.LFB1504
	.uleb128 .LEHE96-.LEHB96
	.uleb128 .L684-.LFB1504
	.uleb128 0
	.uleb128 .LEHB97-.LFB1504
	.uleb128 .LEHE97-.LEHB97
	.uleb128 0
	.uleb128 0
	.uleb128 .LEHB98-.LFB1504
	.uleb128 .LEHE98-.LEHB98
	.uleb128 .L656-.LFB1504
	.uleb128 0
	.uleb128 .LEHB99-.LFB1504
	.uleb128 .LEHE99-.LEHB99
	.uleb128 .L657-.LFB1504
	.uleb128 0
	.uleb128 .LEHB100-.LFB1504
	.uleb128 .LEHE100-.LEHB100
	.uleb128 .L658-.LFB1504
	.uleb128 0
	.uleb128 .LEHB101-.LFB1504
	.uleb128 .LEHE101-.LEHB101
	.uleb128 0
	.uleb128 0
	.uleb128 .LEHB102-.LFB1504
	.uleb128 .LEHE102-.LEHB102
	.uleb128 .L659-.LFB1504
	.uleb128 0
	.uleb128 .LEHB103-.LFB1504
	.uleb128 .LEHE103-.LEHB103
	.uleb128 .L660-.LFB1504
	.uleb128 0
	.uleb128 .LEHB104-.LFB1504
	.uleb128 .LEHE104-.LEHB104
	.uleb128 .L661-.LFB1504
	.uleb128 0
	.uleb128 .LEHB105-.LFB1504
	.uleb128 .LEHE105-.LEHB105
	.uleb128 0
	.uleb128 0
	.uleb128 .LEHB106-.LFB1504
	.uleb128 .LEHE106-.LEHB106
	.uleb128 .L687-.LFB1504
	.uleb128 0
	.uleb128 .LEHB107-.LFB1504
	.uleb128 .LEHE107-.LEHB107
	.uleb128 0
	.uleb128 0
	.uleb128 .LEHB108-.LFB1504
	.uleb128 .LEHE108-.LEHB108
	.uleb128 .L686-.LFB1504
	.uleb128 0
	.uleb128 .LEHB109-.LFB1504
	.uleb128 .LEHE109-.LEHB109
	.uleb128 0
	.uleb128 0
	.uleb128 .LEHB110-.LFB1504
	.uleb128 .LEHE110-.LEHB110
	.uleb128 .L680-.LFB1504
	.uleb128 0
	.uleb128 .LEHB111-.LFB1504
	.uleb128 .LEHE111-.LEHB111
	.uleb128 .L662-.LFB1504
	.uleb128 0
	.uleb128 .LEHB112-.LFB1504
	.uleb128 .LEHE112-.LEHB112
	.uleb128 .L683-.LFB1504
	.uleb128 0
	.uleb128 .LEHB113-.LFB1504
	.uleb128 .LEHE113-.LEHB113
	.uleb128 0
	.uleb128 0
	.uleb128 .LEHB114-.LFB1504
	.uleb128 .LEHE114-.LEHB114
	.uleb128 .L679-.LFB1504
	.uleb128 0
	.uleb128 .LEHB115-.LFB1504
	.uleb128 .LEHE115-.LEHB115
	.uleb128 0
	.uleb128 0
	.uleb128 .LEHB116-.LFB1504
	.uleb128 .LEHE116-.LEHB116
	.uleb128 .L685-.LFB1504
	.uleb128 0
	.uleb128 .LEHB117-.LFB1504
	.uleb128 .LEHE117-.LEHB117
	.uleb128 0
	.uleb128 0
	.uleb128 .LEHB118-.LFB1504
	.uleb128 .LEHE118-.LEHB118
	.uleb128 .L681-.LFB1504
	.uleb128 0
	.uleb128 .LEHB119-.LFB1504
	.uleb128 .LEHE119-.LEHB119
	.uleb128 0
	.uleb128 0
	.uleb128 .LEHB120-.LFB1504
	.uleb128 .LEHE120-.LEHB120
	.uleb128 .L682-.LFB1504
	.uleb128 0
	.uleb128 .LEHB121-.LFB1504
	.uleb128 .LEHE121-.LEHB121
	.uleb128 0
	.uleb128 0
.LLSDACSE1504:
	.section	".text"
	.size	_Z11UpdateFilesbP12UpdateWindow, .-_Z11UpdateFilesbP12UpdateWindow
	.align 2
	.globl _Z9UpdateAppPKcP12UpdateWindow
	.type	_Z9UpdateAppPKcP12UpdateWindow, @function
_Z9UpdateAppPKcP12UpdateWindow:
.LFB1502:
	.loc 1 132 0
	.cfi_startproc
	.cfi_personality 0,__gxx_personality_v0
	.cfi_lsda 0,.LLSDA1502
.LVL449:
	stwu 1,-224(1)
.LCFI39:
	.cfi_def_cfa_offset 224
	mflr 0
	stw 27,204(1)
.LBB5826:
	.loc 1 137 0
	mr. 27,4
	.cfi_offset 27, -20
	.cfi_register 65, 0
.LBE5826:
	.loc 1 132 0
	stw 25,196(1)
.LBB6638:
	.loc 1 134 0
	li 25,0
	.cfi_offset 25, -28
.LBE6638:
	.loc 1 132 0
	stw 30,216(1)
	mr 30,3
	.cfi_offset 30, -8
	stw 0,228(1)
	stw 23,188(1)
	stw 24,192(1)
	stw 26,200(1)
	stw 28,208(1)
	stw 29,212(1)
	stw 31,220(1)
.LBB6639:
	.loc 1 137 0
	beq- 0,.L1215
	.cfi_offset 31, -4
	.cfi_offset 29, -12
	.cfi_offset 28, -16
	.cfi_offset 26, -24
	.cfi_offset 24, -32
	.cfi_offset 23, -36
	.cfi_offset 65, 4
.LVL450:
.L748:
	.loc 1 142 0
	lis 26,.LC9@ha
	la 26,.LC9@l(26)
	mr 3,26
.LEHB122:
	bl gettext
	addi 5,1,64
	mr 4,3
	addi 3,1,176
	bl _ZNSsC1EPKcRKSaIcE
.LEHE122:
	lis 4,.LC26@ha
	addi 3,1,172
	la 4,.LC26@l(4)
	addi 5,1,63
.LEHB123:
	bl _ZNSsC1EPKcRKSaIcE
.LEHE123:
	.loc 1 142 0 is_stmt 0 discriminator 2
	mr 3,27
	addi 4,1,176
	addi 5,1,172
.LEHB124:
	bl _ZN12UpdateWindow12ShowThrobberESsSs
.LEHE124:
.LVL451:
.LBB5827:
.LBB5828:
.LBB5829:
.LBB5830:
.LBB5831:
.LBB5832:
	.loc 2 288 0 is_stmt 1
	lwz 9,172(1)
.LBE5832:
.LBE5831:
.LBE5830:
.LBB5833:
.LBB5834:
	.loc 2 235 0
	lis 31,_ZNSs4_Rep20_S_empty_rep_storageE@ha
	la 31,_ZNSs4_Rep20_S_empty_rep_storageE@l(31)
.LBE5834:
.LBE5833:
	.loc 2 534 0
	addi 3,9,-12
.LVL452:
.LBB5843:
.LBB5841:
	.loc 2 235 0
	cmpw 7,3,31
	bne- 7,.L1216
.LVL453:
.L756:
.LBE5841:
.LBE5843:
.LBE5829:
.LBE5828:
.LBE5827:
.LBB5847:
.LBB5848:
.LBB5849:
.LBB5850:
.LBB5851:
.LBB5852:
	.loc 2 288 0
	lwz 9,176(1)
.LBE5852:
.LBE5851:
.LBE5850:
	.loc 2 534 0
	addi 3,9,-12
.LVL454:
.LBB5853:
.LBB5854:
	.loc 2 235 0
	cmpw 7,3,31
	bne- 7,.L1217
.LVL455:
.L764:
.LBE5854:
.LBE5853:
.LBE5849:
.LBE5848:
.LBE5847:
	.loc 1 144 0 discriminator 1
	cmpwi 7,30,0
	beq- 7,.L1218
	.loc 1 150 0
	mr 3,30
.LEHB125:
	bl _Z11DownloadDolPKc
.LEHE125:
	cmpwi 7,3,0
	beq- 7,.L1219
.LVL456:
.LBB5865:
.LBB5866:
.LBB5867:
	.loc 1 214 0
	cmpwi 7,27,0
	mr 28,27
	.loc 1 212 0
	li 24,0
	.loc 1 214 0
	beq- 7,.L1220
.L776:
.LVL457:
.LBB5868:
.LBB5869:
	.loc 5 40 0
	lis 30,_ZN8ErrorLog8instanceE@ha
.LVL458:
	lwz 29,_ZN8ErrorLog8instanceE@l(30)
	cmpwi 7,29,0
	beq- 7,.L777
.LVL459:
.LBB5870:
.LBB5871:
.LBB5872:
	.loc 5 48 0
	mr 3,29
.LEHB126:
	bl _ZN8ErrorLog5ResetEv
.LEHE126:
.LVL460:
.LBB5873:
.LBB5874:
.LBB5875:
.LBB5876:
.LBB5877:
.LBB5878:
	.loc 2 288 0
	lwz 9,4(29)
.LBE5878:
.LBE5877:
.LBE5876:
	.loc 2 534 0
	addi 3,9,-12
.LVL461:
.LBB5879:
.LBB5880:
	.loc 2 235 0
	cmpw 7,3,31
	bne- 7,.L1221
.LVL462:
.L783:
.LBE5880:
.LBE5879:
.LBE5875:
.LBE5874:
.LBE5873:
.LBB5891:
.LBB5892:
.LBB5893:
.LBB5894:
.LBB5895:
.LBB5896:
	.loc 2 288 0
	lwz 9,0(29)
.LBE5896:
.LBE5895:
.LBE5894:
	.loc 2 534 0
	addi 3,9,-12
.LVL463:
.LBB5897:
.LBB5898:
	.loc 2 235 0
	cmpw 7,3,31
	bne- 7,.L1222
.LVL464:
.L791:
.LBE5898:
.LBE5897:
.LBE5893:
.LBE5892:
.LBE5891:
.LBE5872:
.LBE5871:
.LBE5870:
	.loc 5 40 0
	mr 3,29
	bl _ZdlPv
.LVL465:
.L777:
	li 0,0
.LBE5869:
.LBE5868:
	.loc 1 224 0
	mr 3,26
.LBB5920:
.LBB5917:
	.loc 5 40 0
	stw 0,_ZN8ErrorLog8instanceE@l(30)
.LBE5917:
.LBE5920:
	.loc 1 224 0
	lis 29,.LC15@ha
.LEHB127:
	bl gettext
	la 29,.LC15@l(29)
	mr 4,3
	addi 5,1,54
	addi 3,1,152
	bl _ZNSsC1EPKcRKSaIcE
.LEHE127:
	addi 3,1,148
	mr 4,29
	addi 5,1,53
.LEHB128:
	bl _ZNSsC1EPKcRKSaIcE
.LEHE128:
	mr 3,28
	addi 4,1,152
	addi 5,1,148
.LEHB129:
	bl _ZN12UpdateWindow12ShowThrobberESsSs
.LEHE129:
.LVL466:
.LBB5921:
.LBB5922:
.LBB5923:
.LBB5924:
.LBB5925:
.LBB5926:
	.loc 2 288 0
	lwz 9,148(1)
.LBE5926:
.LBE5925:
.LBE5924:
	.loc 2 534 0
	addi 3,9,-12
.LVL467:
.LBB5927:
.LBB5928:
	.loc 2 235 0
	cmpw 7,3,31
	bne- 7,.L1223
.LVL468:
.L799:
.LBE5928:
.LBE5927:
.LBE5923:
.LBE5922:
.LBE5921:
.LBB5939:
.LBB5940:
.LBB5941:
.LBB5942:
.LBB5943:
.LBB5944:
	.loc 2 288 0
	lwz 9,152(1)
.LBE5944:
.LBE5943:
.LBE5942:
	.loc 2 534 0
	addi 3,9,-12
.LVL469:
.LBB5945:
.LBB5946:
	.loc 2 235 0
	cmpw 7,3,31
	bne- 7,.L1224
.LVL470:
.L807:
.LEHB130:
.LBE5946:
.LBE5945:
.LBE5941:
.LBE5940:
.LBE5939:
	.loc 1 225 0
	bl _Z13UpdateMetaXmlv
	cmpwi 7,3,0
	bne- 7,.L830
.LBB5957:
.LBB5958:
	.loc 5 39 0
	lwz 23,_ZN8ErrorLog8instanceE@l(30)
	cmpwi 7,23,0
	beq- 7,.L1225
.L809:
.LBE5958:
.LBE5957:
	.loc 1 226 0
	addi 3,1,144
	mr 4,29
	addi 5,1,52
	bl _ZNSsC1EPKcRKSaIcE
.LEHE130:
	lis 3,.LC16@ha
	la 3,.LC16@l(3)
.LEHB131:
	bl gettext
.LEHE131:
	mr 4,3
	addi 5,1,51
	addi 3,1,140
.LEHB132:
	bl _ZNSsC1EPKcRKSaIcE
.LEHE132:
	mr 3,23
	addi 4,1,144
	addi 5,1,140
.LEHB133:
	bl _ZN8ErrorLog8AddEntryESsSs
.LEHE133:
.LVL471:
.LBB5973:
.LBB5974:
.LBB5975:
.LBB5976:
.LBB5977:
.LBB5978:
	.loc 2 288 0
	lwz 9,140(1)
.LBE5978:
.LBE5977:
.LBE5976:
	.loc 2 534 0
	addi 3,9,-12
.LVL472:
.LBB5979:
.LBB5980:
	.loc 2 235 0
	cmpw 7,3,31
	bne- 7,.L1226
.LVL473:
.L823:
.LBE5980:
.LBE5979:
.LBE5975:
.LBE5974:
.LBE5973:
.LBB5991:
.LBB5992:
.LBB5993:
.LBB5994:
.LBB5995:
.LBB5996:
	.loc 2 288 0
	lwz 9,144(1)
.LBE5996:
.LBE5995:
.LBE5994:
	.loc 2 534 0
	addi 3,9,-12
.LVL474:
.LBB5997:
.LBB5998:
	.loc 2 235 0
	cmpw 7,3,31
	bne- 7,.L1227
.LVL475:
.L830:
.LBE5998:
.LBE5997:
.LBE5993:
.LBE5992:
.LBE5991:
	.loc 1 227 0
	lis 3,0x13
	.loc 1 230 0
	lis 29,Settings@ha
	.loc 1 227 0
	ori 3,3,54816
	.loc 1 230 0
	la 29,Settings@l(29)
.LEHB134:
	.loc 1 227 0
	bl usleep
	.loc 1 230 0
	lha 0,1310(29)
	cmpwi 7,0,0
	ble- 7,.L831
	.loc 1 232 0
	mr 3,26
	lis 26,.LC17@ha
	bl gettext
	la 26,.LC17@l(26)
	mr 4,3
	addi 5,1,50
	addi 3,1,136
	bl _ZNSsC1EPKcRKSaIcE
.LEHE134:
	addi 3,1,132
	mr 4,26
	addi 5,1,49
.LEHB135:
	bl _ZNSsC1EPKcRKSaIcE
.LEHE135:
	mr 3,28
	addi 4,1,136
	addi 5,1,132
.LEHB136:
	bl _ZN12UpdateWindow12ShowThrobberESsSs
.LEHE136:
.LVL476:
.LBB6009:
.LBB6010:
.LBB6011:
.LBB6012:
.LBB6013:
.LBB6014:
	.loc 2 288 0
	lwz 9,132(1)
.LBE6014:
.LBE6013:
.LBE6012:
	.loc 2 534 0
	addi 3,9,-12
.LVL477:
.LBB6015:
.LBB6016:
	.loc 2 235 0
	cmpw 7,3,31
	bne- 7,.L1228
.LVL478:
.L839:
.LBE6016:
.LBE6015:
.LBE6011:
.LBE6010:
.LBE6009:
.LBB6027:
.LBB6028:
.LBB6029:
.LBB6030:
.LBB6031:
.LBB6032:
	.loc 2 288 0
	lwz 9,136(1)
.LBE6032:
.LBE6031:
.LBE6030:
	.loc 2 534 0
	addi 3,9,-12
.LVL479:
.LBB6033:
.LBB6034:
	.loc 2 235 0
	cmpw 7,3,31
	bne- 7,.L1229
.LVL480:
.L847:
.LEHB137:
.LBE6034:
.LBE6033:
.LBE6029:
.LBE6028:
.LBE6027:
	.loc 1 233 0
	bl _Z13UpdateIconPNGv
	cmpwi 7,3,0
	bne- 7,.L870
.LBB6045:
.LBB6046:
	.loc 5 39 0
	lwz 23,_ZN8ErrorLog8instanceE@l(30)
	cmpwi 7,23,0
	beq- 7,.L1230
.L849:
.LBE6046:
.LBE6045:
	.loc 1 234 0
	addi 3,1,128
	mr 4,26
	addi 5,1,48
	bl _ZNSsC1EPKcRKSaIcE
.LEHE137:
	lis 3,.LC16@ha
	la 3,.LC16@l(3)
.LEHB138:
	bl gettext
.LEHE138:
	mr 4,3
	addi 5,1,47
	addi 3,1,124
.LEHB139:
	bl _ZNSsC1EPKcRKSaIcE
.LEHE139:
	mr 3,23
	addi 4,1,128
	addi 5,1,124
.LEHB140:
	bl _ZN8ErrorLog8AddEntryESsSs
.LEHE140:
.LVL481:
.LBB6064:
.LBB6065:
.LBB6066:
.LBB6067:
.LBB6068:
.LBB6069:
	.loc 2 288 0
	lwz 9,124(1)
.LBE6069:
.LBE6068:
.LBE6067:
	.loc 2 534 0
	addi 3,9,-12
.LVL482:
.LBB6070:
.LBB6071:
	.loc 2 235 0
	cmpw 7,3,31
	bne- 7,.L1231
.LVL483:
.L863:
.LBE6071:
.LBE6070:
.LBE6066:
.LBE6065:
.LBE6064:
.LBB6082:
.LBB6083:
.LBB6084:
.LBB6085:
.LBB6086:
.LBB6087:
	.loc 2 288 0
	lwz 9,128(1)
.LBE6087:
.LBE6086:
.LBE6085:
	.loc 2 534 0
	addi 3,9,-12
.LVL484:
.LBB6088:
.LBB6089:
	.loc 2 235 0
	cmpw 7,3,31
	bne- 7,.L1232
.LVL485:
.L870:
.LBE6089:
.LBE6088:
.LBE6084:
.LBE6083:
.LBE6082:
	.loc 1 235 0
	lis 3,0xf
	ori 3,3,16960
.LEHB141:
	bl usleep
.LVL486:
.L831:
	.loc 1 238 0
	lha 0,1312(29)
	cmpwi 7,0,0
	ble- 7,.L917
	.loc 1 240 0
	cmpwi 7,0,1
	beq- 7,.L1233
	.loc 1 246 0
	cmpwi 7,0,2
	beq- 7,.L1234
.L917:
.LBB6100:
	.loc 1 253 0
	lha 0,1314(29)
	cmpwi 7,0,0
	beq- 7,.L963
.LBB6101:
	.loc 1 255 0
	lis 3,.LC19@ha
	la 3,.LC19@l(3)
	bl gettext
	addi 5,1,42
	mr 4,3
	addi 3,1,156
	bl _ZNSsC1EPKcRKSaIcE
.LEHE141:
.LVL487:
.LBB6102:
.LBB6103:
.LBB6104:
	.loc 2 1000 0
	lis 4,.LC20@ha
	addi 3,1,156
.LVL488:
	la 4,.LC20@l(4)
	li 5,12
.LEHB142:
	bl _ZNSs6appendEPKcj
.LVL489:
.LBE6104:
.LBE6103:
.LBE6102:
	.loc 1 257 0
	addi 3,1,104
	addi 4,1,156
.LVL490:
	bl _ZNSsC1ERKSs
.LEHE142:
.LVL491:
	lis 29,.LC8@ha
	addi 3,1,100
	la 29,.LC8@l(29)
	addi 5,1,41
	mr 4,29
.LEHB143:
	bl _ZNSsC1EPKcRKSaIcE
.LEHE143:
	mr 3,28
	addi 4,1,104
	addi 5,1,100
.LEHB144:
	bl _ZN12UpdateWindow12ShowThrobberESsSs
.LEHE144:
.LVL492:
.LBB6105:
.LBB6106:
.LBB6107:
.LBB6108:
.LBB6109:
.LBB6110:
	.loc 2 288 0
	lwz 9,100(1)
.LBE6110:
.LBE6109:
.LBE6108:
	.loc 2 534 0
	addi 3,9,-12
.LVL493:
.LBB6111:
.LBB6112:
	.loc 2 235 0
	cmpw 7,3,31
	bne- 7,.L1235
.LVL494:
.L928:
.LBE6112:
.LBE6111:
.LBE6107:
.LBE6106:
.LBE6105:
.LBB6123:
.LBB6124:
.LBB6125:
.LBB6126:
.LBB6127:
.LBB6128:
	.loc 2 288 0
	lwz 9,104(1)
.LBE6128:
.LBE6127:
.LBE6126:
	.loc 2 534 0
	addi 3,9,-12
.LVL495:
.LBB6129:
.LBB6130:
	.loc 2 235 0
	cmpw 7,3,31
	bne- 7,.L1236
.LVL496:
.L934:
.LBE6130:
.LBE6129:
.LBE6125:
.LBE6124:
.LBE6123:
	.loc 1 258 0
	mr 3,28
.LEHB145:
	bl _Z13UpdateGameTDBP12UpdateWindow
.LEHE145:
	cmpwi 7,3,0
	bne- 7,.L958
.LBB6141:
.LBB6142:
	.loc 5 39 0
	lwz 26,_ZN8ErrorLog8instanceE@l(30)
	cmpwi 7,26,0
	beq- 7,.L1237
.L936:
.LBE6142:
.LBE6141:
	.loc 1 259 0
	addi 3,1,96
	mr 4,29
	addi 5,1,40
.LEHB146:
	bl _ZNSsC1EPKcRKSaIcE
.LEHE146:
	lis 3,.LC16@ha
	la 3,.LC16@l(3)
.LEHB147:
	bl gettext
.LEHE147:
	mr 4,3
	addi 5,1,39
	addi 3,1,92
.LEHB148:
	bl _ZNSsC1EPKcRKSaIcE
.LEHE148:
	mr 3,26
	addi 4,1,96
	addi 5,1,92
.LEHB149:
	bl _ZN8ErrorLog8AddEntryESsSs
.LEHE149:
.LVL497:
.LBB6160:
.LBB6161:
.LBB6162:
.LBB6163:
.LBB6164:
.LBB6165:
	.loc 2 288 0
	lwz 9,92(1)
.LBE6165:
.LBE6164:
.LBE6163:
	.loc 2 534 0
	addi 3,9,-12
.LVL498:
.LBB6166:
.LBB6167:
	.loc 2 235 0
	cmpw 7,3,31
	bne- 7,.L1238
.LVL499:
.L951:
.LBE6167:
.LBE6166:
.LBE6162:
.LBE6161:
.LBE6160:
.LBB6178:
.LBB6179:
.LBB6180:
.LBB6181:
.LBB6182:
.LBB6183:
	.loc 2 288 0
	lwz 9,96(1)
.LBE6183:
.LBE6182:
.LBE6181:
	.loc 2 534 0
	addi 3,9,-12
.LVL500:
.LBB6184:
.LBB6185:
	.loc 2 235 0
	cmpw 7,3,31
	bne- 7,.L1239
.LVL501:
.L958:
.LBE6185:
.LBE6184:
.LBE6180:
.LBE6179:
.LBE6178:
.LBB6196:
.LBB6197:
.LBB6198:
.LBB6199:
.LBB6200:
.LBB6201:
	.loc 2 288 0
	lwz 9,156(1)
.LBE6201:
.LBE6200:
.LBE6199:
	.loc 2 534 0
	addi 3,9,-12
.LVL502:
.LBB6202:
.LBB6203:
	.loc 2 235 0
	cmpw 7,3,31
	bne- 7,.L1240
.LVL503:
.L963:
.LBE6203:
.LBE6202:
.LBE6198:
.LBE6197:
.LBE6196:
.LBE6101:
.LBE6100:
.LBB6228:
.LBB6229:
.LBB6230:
	.loc 5 39 0
	lwz 29,_ZN8ErrorLog8instanceE@l(30)
	cmpwi 7,29,0
	beq- 7,.L1241
.L964:
.LBE6230:
.LBE6229:
	.loc 1 262 0
	lwz 0,8(29)
	cmpwi 7,0,0
	ble- 7,.L971
.LBB6248:
	.loc 1 264 0
	lis 3,.LC21@ha
	la 3,.LC21@l(3)
.LEHB150:
	bl gettext
	addi 5,1,38
	mr 4,3
	addi 3,1,88
	bl _ZNSsC1EPKcRKSaIcE
.LEHE150:
	lis 3,.LC22@ha
	la 3,.LC22@l(3)
.LEHB151:
	bl gettext
.LEHE151:
	mr 4,3
	addi 5,1,37
	addi 3,1,84
.LEHB152:
	bl _ZNSsC1EPKcRKSaIcE
.LEHE152:
	lis 3,.LC23@ha
	la 3,.LC23@l(3)
.LEHB153:
	bl gettext
.LEHE153:
	mr 4,3
	addi 5,1,36
	addi 3,1,80
.LEHB154:
	bl _ZNSsC1EPKcRKSaIcE
.LEHE154:
	lis 3,.LC24@ha
	la 3,.LC24@l(3)
.LEHB155:
	bl gettext
.LEHE155:
	mr 4,3
	addi 5,1,35
	addi 3,1,76
.LEHB156:
	bl _ZNSsC1EPKcRKSaIcE
.LEHE156:
	lis 29,.LC25@ha
	addi 3,1,72
	la 29,.LC25@l(29)
	addi 5,1,34
	mr 4,29
.LEHB157:
	bl _ZNSsC1EPKcRKSaIcE
.LEHE157:
	addi 3,1,68
	mr 4,29
	addi 5,1,33
.LEHB158:
	bl _ZNSsC1EPKcRKSaIcE
.LEHE158:
	mr 3,28
	addi 4,1,88
	addi 5,1,84
	addi 6,1,80
	addi 7,1,76
	addi 8,1,72
	addi 9,1,68
.LEHB159:
	bl _ZN12UpdateWindow6ChooseESsSsSsSsSsSs
.LEHE159:
.LBB6249:
.LBB6250:
.LBB6251:
.LBB6252:
.LBB6253:
.LBB6254:
	.loc 2 288 0
	lwz 9,68(1)
.LBE6254:
.LBE6253:
.LBE6252:
.LBE6251:
.LBE6250:
.LBE6249:
	.loc 1 264 0
	mr 29,3
.LVL504:
.LBB6269:
.LBB6267:
.LBB6265:
	.loc 2 534 0
	addi 3,9,-12
.LVL505:
.LBB6255:
.LBB6256:
	.loc 2 235 0
	cmpw 7,3,31
	bne- 7,.L1242
.LVL506:
.L979:
.LBE6256:
.LBE6255:
.LBE6265:
.LBE6267:
.LBE6269:
.LBB6270:
.LBB6271:
.LBB6272:
.LBB6273:
.LBB6274:
.LBB6275:
	.loc 2 288 0
	lwz 9,72(1)
.LBE6275:
.LBE6274:
.LBE6273:
	.loc 2 534 0
	addi 3,9,-12
.LVL507:
.LBB6276:
.LBB6277:
	.loc 2 235 0
	cmpw 7,3,31
	bne- 7,.L1243
.LVL508:
.L987:
.LBE6277:
.LBE6276:
.LBE6272:
.LBE6271:
.LBE6270:
.LBB6288:
.LBB6289:
.LBB6290:
.LBB6291:
.LBB6292:
.LBB6293:
	.loc 2 288 0
	lwz 9,76(1)
.LBE6293:
.LBE6292:
.LBE6291:
	.loc 2 534 0
	addi 3,9,-12
.LVL509:
.LBB6294:
.LBB6295:
	.loc 2 235 0
	cmpw 7,3,31
	bne- 7,.L1244
.LVL510:
.L995:
.LBE6295:
.LBE6294:
.LBE6290:
.LBE6289:
.LBE6288:
.LBB6306:
.LBB6307:
.LBB6308:
.LBB6309:
.LBB6310:
.LBB6311:
	.loc 2 288 0
	lwz 9,80(1)
.LBE6311:
.LBE6310:
.LBE6309:
	.loc 2 534 0
	addi 3,9,-12
.LVL511:
.LBB6312:
.LBB6313:
	.loc 2 235 0
	cmpw 7,3,31
	bne- 7,.L1245
.LVL512:
.L1003:
.LBE6313:
.LBE6312:
.LBE6308:
.LBE6307:
.LBE6306:
.LBB6324:
.LBB6325:
.LBB6326:
.LBB6327:
.LBB6328:
.LBB6329:
	.loc 2 288 0
	lwz 9,84(1)
.LBE6329:
.LBE6328:
.LBE6327:
	.loc 2 534 0
	addi 3,9,-12
.LVL513:
.LBB6330:
.LBB6331:
	.loc 2 235 0
	cmpw 7,3,31
	bne- 7,.L1246
.LVL514:
.L1011:
.LBE6331:
.LBE6330:
.LBE6326:
.LBE6325:
.LBE6324:
.LBB6342:
.LBB6343:
.LBB6344:
.LBB6345:
.LBB6346:
.LBB6347:
	.loc 2 288 0
	lwz 9,88(1)
.LBE6347:
.LBE6346:
.LBE6345:
	.loc 2 534 0
	addi 3,9,-12
.LVL515:
.LBB6348:
.LBB6349:
	.loc 2 235 0
	cmpw 7,3,31
	bne- 7,.L1247
.LVL516:
.L1019:
.LBE6349:
.LBE6348:
.LBE6344:
.LBE6343:
.LBE6342:
	.loc 1 265 0
	cmpwi 7,29,1
	beq- 7,.L1248
.LVL517:
.L971:
.LBE6248:
.LBE6228:
	.loc 1 269 0
	cmpwi 7,24,0
	bne- 7,.L1249
.L1027:
.LBB6391:
.LBB6392:
	.loc 5 39 0
	lwz 31,_ZN8ErrorLog8instanceE@l(30)
	cmpwi 7,31,0
	beq- 7,.L1250
.L1033:
.LBE6392:
.LBE6391:
.LBE5867:
.LBE5866:
.LBE5865:
	.loc 1 156 0
	lwz 0,8(31)
	.loc 1 159 0
	li 30,1
	.loc 1 156 0
	cmpwi 7,0,0
	bgt- 7,.L1251
.LVL518:
.L1115:
	.loc 1 162 0
	cmpwi 7,25,0
	bne- 7,.L1252
.LBE6639:
	.loc 1 169 0
	lwz 0,228(1)
	mr 3,30
	lwz 23,188(1)
	mtlr 0
	lwz 24,192(1)
	lwz 25,196(1)
.LVL519:
	lwz 26,200(1)
	lwz 27,204(1)
.LVL520:
	lwz 28,208(1)
	lwz 29,212(1)
	lwz 30,216(1)
.LVL521:
	lwz 31,220(1)
	addi 1,1,224
	.cfi_remember_state
.LCFI40:
	.cfi_def_cfa_offset 0
	.cfi_restore 31
	.cfi_restore 30
	.cfi_restore 29
	.cfi_restore 28
	.cfi_restore 27
	.cfi_restore 26
	.cfi_restore 25
	.cfi_restore 24
	.cfi_restore 23
	blr
.LVL522:
.L1252:
.LCFI41:
	.cfi_restore_state
.LBB6640:
.LBB6569:
.LBB6570:
	.loc 6 27 0
	lis 31,_ZN11Application8instanceE@ha
	lwz 29,_ZN11Application8instanceE@l(31)
	cmpwi 7,29,0
	beq- 7,.L1253
.L1117:
.LBE6570:
.LBE6569:
	.loc 1 164 0
	mr 3,29
	mr 4,27
.LEHB160:
	bl _ZN11Application13PushForDeleteEP10GuiElement
.LBB6572:
.LBB6573:
	.loc 6 27 0
	lwz 29,_ZN11Application8instanceE@l(31)
	cmpwi 7,29,0
	beq- 7,.L1254
.L1119:
.LBE6573:
.LBE6572:
	.loc 1 165 0
	lwz 9,0(29)
	mr 3,29
	lwz 0,216(9)
	mtctr 0
	bctrl
.LBE6640:
	.loc 1 169 0
	lwz 0,228(1)
	mr 3,30
	lwz 23,188(1)
	mtlr 0
	lwz 24,192(1)
	lwz 25,196(1)
.LVL523:
	lwz 26,200(1)
	lwz 27,204(1)
.LVL524:
	lwz 28,208(1)
	lwz 29,212(1)
	lwz 30,216(1)
.LVL525:
	lwz 31,220(1)
	addi 1,1,224
	.cfi_remember_state
	.cfi_restore 23
	.cfi_restore 24
	.cfi_restore 25
	.cfi_restore 26
	.cfi_restore 27
	.cfi_restore 28
	.cfi_restore 29
	.cfi_restore 30
	.cfi_restore 31
.LCFI42:
	.cfi_def_cfa_offset 0
	blr
.LVL526:
.L1249:
.LCFI43:
	.cfi_restore_state
.LBB6641:
.LBB6575:
.LBB6561:
.LBB6553:
.LBB6410:
.LBB6411:
	.loc 6 27 0
	lis 31,_ZN11Application8instanceE@ha
	lwz 29,_ZN11Application8instanceE@l(31)
	cmpwi 7,29,0
	beq- 7,.L1255
.L1028:
.LBE6411:
.LBE6410:
	.loc 1 271 0
	mr 3,29
	mr 4,28
	bl _ZN11Application13PushForDeleteEP10GuiElement
.LBB6413:
.LBB6414:
	.loc 6 27 0
	lwz 29,_ZN11Application8instanceE@l(31)
	cmpwi 7,29,0
	beq- 7,.L1256
.L1030:
.LBE6414:
.LBE6413:
	.loc 1 272 0
	lwz 9,0(29)
	mr 3,29
	lwz 0,216(9)
	mtctr 0
	bctrl
	b .L1027
.LVL527:
.L1248:
.LBB6417:
.LBB6383:
.LBB6360:
.LBB6361:
	.loc 5 39 0
	lwz 31,_ZN8ErrorLog8instanceE@l(30)
	cmpwi 7,31,0
	beq- 7,.L1257
.L1020:
.LBE6361:
.LBE6360:
	.loc 1 266 0
	mr 3,31
	bl _ZN8ErrorLog4ShowEv
	b .L971
.LVL528:
.L1215:
.LBE6383:
.LBE6417:
.LBE6553:
.LBE6561:
.LBE6575:
	.loc 1 139 0
	li 3,332
.LVL529:
	bl _Znwj
.LEHE160:
.LVL530:
	mr 27,3
.LVL531:
.LEHB161:
	bl _ZN12UpdateWindowC1Ev
.LEHE161:
	.loc 1 140 0
	li 25,1
	b .L748
.LVL532:
.L1220:
.LBB6576:
.LBB6562:
.LBB6554:
	.loc 1 216 0
	li 3,332
.LEHB162:
	bl _Znwj
.LEHE162:
	mr 28,3
.LEHB163:
	bl _ZN12UpdateWindowC1Ev
.LEHE163:
	.loc 1 217 0
	li 24,1
	b .L776
.LVL533:
.L1241:
.LBB6418:
.LBB6384:
.LBB6246:
	.loc 5 39 0
	li 3,12
.LEHB164:
	bl _Znwj
.LEHE164:
.LBB6231:
.LBB6232:
.LBB6233:
.LBB6234:
.LBB6235:
	.loc 2 270 0
	lis 9,_ZNSs4_Rep20_S_empty_rep_storageE+12@ha
	la 0,_ZNSs4_Rep20_S_empty_rep_storageE+12@l(9)
.LBE6235:
.LBE6234:
.LBE6233:
.LBE6232:
.LBE6231:
	.loc 5 39 0
	mr 29,3
.LVL534:
.LBB6244:
.LBB6242:
.LBB6238:
.LBB6237:
.LBB6236:
	.loc 2 270 0
	stw 0,0(3)
.LVL535:
.LBE6236:
.LBE6237:
.LBE6238:
.LBB6239:
.LBB6240:
.LBB6241:
	stw 0,4(3)
.LEHB165:
.LBE6241:
.LBE6240:
.LBE6239:
	.loc 5 47 0
	bl _ZN8ErrorLog5ResetEv
.LEHE165:
.LVL536:
.LBE6242:
.LBE6244:
	.loc 5 39 0
	stw 29,_ZN8ErrorLog8instanceE@l(30)
	b .L964
.LVL537:
.L1250:
.LBE6246:
.LBE6384:
.LBE6418:
.LBB6419:
.LBB6408:
	li 3,12
.LEHB166:
	bl _Znwj
.LEHE166:
.LBB6393:
.LBB6394:
.LBB6395:
.LBB6396:
.LBB6397:
	.loc 2 270 0
	lis 9,_ZNSs4_Rep20_S_empty_rep_storageE+12@ha
	la 0,_ZNSs4_Rep20_S_empty_rep_storageE+12@l(9)
.LBE6397:
.LBE6396:
.LBE6395:
.LBE6394:
.LBE6393:
	.loc 5 39 0
	mr 31,3
.LVL538:
.LBB6406:
.LBB6404:
.LBB6400:
.LBB6399:
.LBB6398:
	.loc 2 270 0
	stw 0,0(3)
.LVL539:
.LBE6398:
.LBE6399:
.LBE6400:
.LBB6401:
.LBB6402:
.LBB6403:
	stw 0,4(3)
.LEHB167:
.LBE6403:
.LBE6402:
.LBE6401:
	.loc 5 47 0
	bl _ZN8ErrorLog5ResetEv
.LEHE167:
.LVL540:
.LBE6404:
.LBE6406:
	.loc 5 39 0
	stw 31,_ZN8ErrorLog8instanceE@l(30)
	b .L1033
.LVL541:
.L1233:
.LBE6408:
.LBE6419:
	.loc 1 242 0
	mr 3,28
.LEHB168:
	bl _Z20DownloadAllLanguagesP12UpdateWindow
	cmpwi 7,3,0
	bne+ 7,.L917
.LBB6420:
.LBB6421:
	.loc 5 39 0
	lwz 26,_ZN8ErrorLog8instanceE@l(30)
	cmpwi 7,26,0
	beq- 7,.L1258
.L873:
.LBE6421:
.LBE6420:
	.loc 1 243 0
	lis 3,.LC18@ha
	la 3,.LC18@l(3)
	bl gettext
	addi 5,1,46
	mr 4,3
	addi 3,1,120
	bl _ZNSsC1EPKcRKSaIcE
.LEHE168:
	lis 3,.LC16@ha
	la 3,.LC16@l(3)
.LEHB169:
	bl gettext
.LEHE169:
	mr 4,3
	addi 5,1,45
	addi 3,1,116
.LEHB170:
	bl _ZNSsC1EPKcRKSaIcE
.LEHE170:
	mr 3,26
	addi 4,1,120
	addi 5,1,116
.LEHB171:
	bl _ZN8ErrorLog8AddEntryESsSs
.LEHE171:
.LVL542:
.LBB6436:
.LBB6437:
.LBB6438:
.LBB6439:
.LBB6440:
.LBB6441:
	.loc 2 288 0
	lwz 9,116(1)
.LBE6441:
.LBE6440:
.LBE6439:
	.loc 2 534 0
	addi 3,9,-12
.LVL543:
.LBB6442:
.LBB6443:
	.loc 2 235 0
	cmpw 7,3,31
	bne- 7,.L1259
.LVL544:
.L887:
.LBE6443:
.LBE6442:
.LBE6438:
.LBE6437:
.LBE6436:
.LBB6454:
.LBB6455:
.LBB6456:
.LBB6457:
.LBB6458:
.LBB6459:
	.loc 2 288 0
	lwz 9,120(1)
.LBE6459:
.LBE6458:
.LBE6457:
	.loc 2 534 0
	addi 3,9,-12
.LVL545:
.LBB6460:
.LBB6461:
	.loc 2 235 0
	cmpw 7,3,31
	beq+ 7,.L917
.LVL546:
.LBB6462:
.LBB6463:
.LBB6464:
	.loc 3 66 0
	lwz 11,-4(9)
.LVL547:
.LBE6464:
.LBE6463:
.LBE6462:
	.loc 2 240 0
	cmpwi 7,11,0
.LBB6467:
.LBB6466:
.LBB6465:
	.loc 3 67 0
	addi 11,11,-1
	stw 11,-4(9)
.LBE6465:
.LBE6466:
.LBE6467:
	.loc 2 240 0
	bgt+ 7,.L917
	.loc 2 244 0
	addi 4,1,21
	bl _ZNSs4_Rep10_M_destroyERKSaIcE
.LVL548:
	b .L917
.LVL549:
.L1234:
.LBE6461:
.LBE6460:
.LBE6456:
.LBE6455:
.LBE6454:
	.loc 1 248 0
	mr 3,28
.LEHB172:
	bl _Z15UpdateLanguagesP12UpdateWindow
	cmpwi 7,3,0
	bne+ 7,.L917
.LBB6468:
.LBB6469:
	.loc 5 39 0
	lwz 26,_ZN8ErrorLog8instanceE@l(30)
	cmpwi 7,26,0
	beq- 7,.L1260
.L888:
.LBE6469:
.LBE6468:
	.loc 1 249 0
	lis 3,.LC14@ha
	la 3,.LC14@l(3)
	bl gettext
	addi 5,1,44
	mr 4,3
	addi 3,1,112
	bl _ZNSsC1EPKcRKSaIcE
.LEHE172:
	lis 3,.LC16@ha
	la 3,.LC16@l(3)
.LEHB173:
	bl gettext
.LEHE173:
	mr 4,3
	addi 5,1,43
	addi 3,1,108
.LEHB174:
	bl _ZNSsC1EPKcRKSaIcE
.LEHE174:
	mr 3,26
	addi 4,1,112
	addi 5,1,108
.LEHB175:
	bl _ZN8ErrorLog8AddEntryESsSs
.LEHE175:
.LVL550:
.LBB6487:
.LBB6488:
.LBB6489:
.LBB6490:
.LBB6491:
.LBB6492:
	.loc 2 288 0
	lwz 9,108(1)
.LBE6492:
.LBE6491:
.LBE6490:
	.loc 2 534 0
	addi 3,9,-12
.LVL551:
.LBB6493:
.LBB6494:
	.loc 2 235 0
	cmpw 7,3,31
	bne- 7,.L1261
.LVL552:
.L902:
.LBE6494:
.LBE6493:
.LBE6489:
.LBE6488:
.LBE6487:
.LBB6505:
.LBB6506:
.LBB6507:
.LBB6508:
.LBB6509:
.LBB6510:
	.loc 2 288 0
	lwz 9,112(1)
.LBE6510:
.LBE6509:
.LBE6508:
	.loc 2 534 0
	addi 3,9,-12
.LVL553:
.LBB6511:
.LBB6512:
	.loc 2 235 0
	cmpw 7,3,31
	beq+ 7,.L917
.LVL554:
.LBB6513:
.LBB6514:
.LBB6515:
	.loc 3 66 0
	lwz 11,-4(9)
.LVL555:
.LBE6515:
.LBE6514:
.LBE6513:
	.loc 2 240 0
	cmpwi 7,11,0
.LBB6518:
.LBB6517:
.LBB6516:
	.loc 3 67 0
	addi 11,11,-1
	stw 11,-4(9)
.LBE6516:
.LBE6517:
.LBE6518:
	.loc 2 240 0
	bgt+ 7,.L917
	.loc 2 244 0
	addi 4,1,19
	bl _ZNSs4_Rep10_M_destroyERKSaIcE
.LVL556:
	b .L917
.LVL557:
.L1229:
.LBE6512:
.LBE6511:
.LBE6507:
.LBE6506:
.LBE6505:
.LBB6519:
.LBB6044:
.LBB6043:
.LBB6042:
.LBB6041:
.LBB6035:
.LBB6036:
.LBB6037:
	.loc 3 66 0
	lwz 11,-4(9)
.LVL558:
.LBE6037:
.LBE6036:
.LBE6035:
	.loc 2 240 0
	cmpwi 7,11,0
.LBB6040:
.LBB6039:
.LBB6038:
	.loc 3 67 0
	addi 11,11,-1
	stw 11,-4(9)
.LBE6038:
.LBE6039:
.LBE6040:
	.loc 2 240 0
	bgt+ 7,.L847
	.loc 2 244 0
	addi 4,1,25
	bl _ZNSs4_Rep10_M_destroyERKSaIcE
.LVL559:
	b .L847
.LVL560:
.L1246:
.LBE6041:
.LBE6042:
.LBE6043:
.LBE6044:
.LBE6519:
.LBB6520:
.LBB6385:
.LBB6376:
.LBB6341:
.LBB6340:
.LBB6339:
.LBB6338:
.LBB6332:
.LBB6333:
.LBB6334:
	.loc 3 66 0
	lwz 11,-4(9)
.LVL561:
.LBE6334:
.LBE6333:
.LBE6332:
	.loc 2 240 0
	cmpwi 7,11,0
.LBB6337:
.LBB6336:
.LBB6335:
	.loc 3 67 0
	addi 11,11,-1
	stw 11,-4(9)
.LBE6335:
.LBE6336:
.LBE6337:
	.loc 2 240 0
	bgt+ 7,.L1011
	.loc 2 244 0
	addi 4,1,9
	bl _ZNSs4_Rep10_M_destroyERKSaIcE
.LVL562:
	b .L1011
.LVL563:
.L1245:
.LBE6338:
.LBE6339:
.LBE6340:
.LBE6341:
.LBE6376:
.LBB6377:
.LBB6323:
.LBB6322:
.LBB6321:
.LBB6320:
.LBB6314:
.LBB6315:
.LBB6316:
	.loc 3 66 0
	lwz 11,-4(9)
.LVL564:
.LBE6316:
.LBE6315:
.LBE6314:
	.loc 2 240 0
	cmpwi 7,11,0
.LBB6319:
.LBB6318:
.LBB6317:
	.loc 3 67 0
	addi 11,11,-1
	stw 11,-4(9)
.LBE6317:
.LBE6318:
.LBE6319:
	.loc 2 240 0
	bgt+ 7,.L1003
	.loc 2 244 0
	addi 4,1,10
	bl _ZNSs4_Rep10_M_destroyERKSaIcE
.LVL565:
	b .L1003
.LVL566:
.L1244:
.LBE6320:
.LBE6321:
.LBE6322:
.LBE6323:
.LBE6377:
.LBB6378:
.LBB6305:
.LBB6304:
.LBB6303:
.LBB6302:
.LBB6296:
.LBB6297:
.LBB6298:
	.loc 3 66 0
	lwz 11,-4(9)
.LVL567:
.LBE6298:
.LBE6297:
.LBE6296:
	.loc 2 240 0
	cmpwi 7,11,0
.LBB6301:
.LBB6300:
.LBB6299:
	.loc 3 67 0
	addi 11,11,-1
	stw 11,-4(9)
.LBE6299:
.LBE6300:
.LBE6301:
	.loc 2 240 0
	bgt+ 7,.L995
	.loc 2 244 0
	addi 4,1,11
	bl _ZNSs4_Rep10_M_destroyERKSaIcE
.LVL568:
	b .L995
.LVL569:
.L1243:
.LBE6302:
.LBE6303:
.LBE6304:
.LBE6305:
.LBE6378:
.LBB6379:
.LBB6287:
.LBB6286:
.LBB6285:
.LBB6284:
.LBB6278:
.LBB6279:
.LBB6280:
	.loc 3 66 0
	lwz 11,-4(9)
.LVL570:
.LBE6280:
.LBE6279:
.LBE6278:
	.loc 2 240 0
	cmpwi 7,11,0
.LBB6283:
.LBB6282:
.LBB6281:
	.loc 3 67 0
	addi 11,11,-1
	stw 11,-4(9)
.LBE6281:
.LBE6282:
.LBE6283:
	.loc 2 240 0
	bgt+ 7,.L987
	.loc 2 244 0
	addi 4,1,12
	bl _ZNSs4_Rep10_M_destroyERKSaIcE
.LVL571:
	b .L987
.LVL572:
.L1242:
.LBE6284:
.LBE6285:
.LBE6286:
.LBE6287:
.LBE6379:
.LBB6380:
.LBB6268:
.LBB6266:
.LBB6264:
.LBB6263:
.LBB6257:
.LBB6258:
.LBB6259:
	.loc 3 66 0
	lwz 11,-4(9)
.LVL573:
.LBE6259:
.LBE6258:
.LBE6257:
	.loc 2 240 0
	cmpwi 7,11,0
.LBB6262:
.LBB6261:
.LBB6260:
	.loc 3 67 0
	addi 11,11,-1
	stw 11,-4(9)
.LBE6260:
.LBE6261:
.LBE6262:
	.loc 2 240 0
	bgt+ 7,.L979
	.loc 2 244 0
	addi 4,1,13
	bl _ZNSs4_Rep10_M_destroyERKSaIcE
.LVL574:
	b .L979
.LVL575:
.L1240:
.LBE6263:
.LBE6264:
.LBE6266:
.LBE6268:
.LBE6380:
.LBE6385:
.LBE6520:
.LBB6521:
.LBB6221:
.LBB6214:
.LBB6213:
.LBB6212:
.LBB6211:
.LBB6210:
.LBB6204:
.LBB6205:
.LBB6206:
	.loc 3 66 0
	lwz 11,-4(9)
.LVL576:
.LBE6206:
.LBE6205:
.LBE6204:
	.loc 2 240 0
	cmpwi 7,11,0
.LBB6209:
.LBB6208:
.LBB6207:
	.loc 3 67 0
	addi 11,11,-1
	stw 11,-4(9)
.LBE6207:
.LBE6208:
.LBE6209:
	.loc 2 240 0
	bgt+ 7,.L963
	.loc 2 244 0
	addi 4,1,14
	bl _ZNSs4_Rep10_M_destroyERKSaIcE
.LVL577:
	b .L963
.LVL578:
.L1227:
.LBE6210:
.LBE6211:
.LBE6212:
.LBE6213:
.LBE6214:
.LBE6221:
.LBE6521:
.LBB6522:
.LBB6008:
.LBB6007:
.LBB6006:
.LBB6005:
.LBB5999:
.LBB6000:
.LBB6001:
	.loc 3 66 0
	lwz 11,-4(9)
.LVL579:
.LBE6001:
.LBE6000:
.LBE5999:
	.loc 2 240 0
	cmpwi 7,11,0
.LBB6004:
.LBB6003:
.LBB6002:
	.loc 3 67 0
	addi 11,11,-1
	stw 11,-4(9)
.LBE6002:
.LBE6003:
.LBE6004:
	.loc 2 240 0
	bgt+ 7,.L830
	.loc 2 244 0
	addi 4,1,27
	bl _ZNSs4_Rep10_M_destroyERKSaIcE
.LVL580:
	b .L830
.LVL581:
.L1228:
.LBE6005:
.LBE6006:
.LBE6007:
.LBE6008:
.LBE6522:
.LBB6523:
.LBB6026:
.LBB6025:
.LBB6024:
.LBB6023:
.LBB6017:
.LBB6018:
.LBB6019:
	.loc 3 66 0
	lwz 11,-4(9)
.LVL582:
.LBE6019:
.LBE6018:
.LBE6017:
	.loc 2 240 0
	cmpwi 7,11,0
.LBB6022:
.LBB6021:
.LBB6020:
	.loc 3 67 0
	addi 11,11,-1
	stw 11,-4(9)
.LBE6020:
.LBE6021:
.LBE6022:
	.loc 2 240 0
	bgt+ 7,.L839
	.loc 2 244 0
	addi 4,1,26
	bl _ZNSs4_Rep10_M_destroyERKSaIcE
.LVL583:
	b .L839
.LVL584:
.L1247:
.LBE6023:
.LBE6024:
.LBE6025:
.LBE6026:
.LBE6523:
.LBB6524:
.LBB6386:
.LBB6381:
.LBB6359:
.LBB6358:
.LBB6357:
.LBB6356:
.LBB6350:
.LBB6351:
.LBB6352:
	.loc 3 66 0
	lwz 11,-4(9)
.LVL585:
.LBE6352:
.LBE6351:
.LBE6350:
	.loc 2 240 0
	cmpwi 7,11,0
.LBB6355:
.LBB6354:
.LBB6353:
	.loc 3 67 0
	addi 11,11,-1
	stw 11,-4(9)
.LBE6353:
.LBE6354:
.LBE6355:
	.loc 2 240 0
	bgt+ 7,.L1019
	.loc 2 244 0
	addi 4,1,8
	bl _ZNSs4_Rep10_M_destroyERKSaIcE
.LVL586:
	b .L1019
.LVL587:
.L1232:
.LBE6356:
.LBE6357:
.LBE6358:
.LBE6359:
.LBE6381:
.LBE6386:
.LBE6524:
.LBB6525:
.LBB6099:
.LBB6098:
.LBB6097:
.LBB6096:
.LBB6090:
.LBB6091:
.LBB6092:
	.loc 3 66 0
	lwz 11,-4(9)
.LVL588:
.LBE6092:
.LBE6091:
.LBE6090:
	.loc 2 240 0
	cmpwi 7,11,0
.LBB6095:
.LBB6094:
.LBB6093:
	.loc 3 67 0
	addi 11,11,-1
	stw 11,-4(9)
.LBE6093:
.LBE6094:
.LBE6095:
	.loc 2 240 0
	bgt+ 7,.L870
	.loc 2 244 0
	addi 4,1,23
	bl _ZNSs4_Rep10_M_destroyERKSaIcE
.LVL589:
	b .L870
.LVL590:
.L1225:
.LBE6096:
.LBE6097:
.LBE6098:
.LBE6099:
.LBE6525:
.LBB6526:
.LBB5972:
	.loc 5 39 0
	li 3,12
.LEHB176:
	bl _Znwj
.LEHE176:
.LBB5959:
.LBB5960:
.LBB5961:
.LBB5962:
.LBB5963:
	.loc 2 270 0
	lis 9,_ZNSs4_Rep20_S_empty_rep_storageE+12@ha
	la 0,_ZNSs4_Rep20_S_empty_rep_storageE+12@l(9)
.LBE5963:
.LBE5962:
.LBE5961:
.LBE5960:
.LBE5959:
	.loc 5 39 0
	mr 23,3
.LVL591:
.LBB5971:
.LBB5970:
.LBB5966:
.LBB5965:
.LBB5964:
	.loc 2 270 0
	stw 0,0(3)
.LVL592:
.LBE5964:
.LBE5965:
.LBE5966:
.LBB5967:
.LBB5968:
.LBB5969:
	stw 0,4(3)
.LEHB177:
.LBE5969:
.LBE5968:
.LBE5967:
	.loc 5 47 0
	bl _ZN8ErrorLog5ResetEv
.LEHE177:
.LVL593:
.LBE5970:
.LBE5971:
	.loc 5 39 0
	stw 23,_ZN8ErrorLog8instanceE@l(30)
	b .L809
.LVL594:
.L1219:
.LBE5972:
.LBE6526:
.LBE6554:
.LBE6562:
.LBE6576:
	.loc 1 152 0
	lis 3,.LC16@ha
	la 3,.LC16@l(3)
.LEHB178:
	bl gettext
	addi 5,1,61
	mr 4,3
	addi 3,1,164
	bl _ZNSsC1EPKcRKSaIcE
.LEHE178:
	lis 3,.LC28@ha
	la 3,.LC28@l(3)
.LEHB179:
	bl gettext
.LEHE179:
	mr 4,3
	addi 5,1,60
	addi 3,1,160
.LEHB180:
	bl _ZNSsC1EPKcRKSaIcE
.LEHE180:
	.loc 1 152 0 is_stmt 0 discriminator 3
	mr 3,27
	addi 4,1,164
	addi 5,1,160
.LEHB181:
	bl _ZN12UpdateWindow11ShowMessageESsSs
.LEHE181:
.LVL595:
.LBB6577:
.LBB6578:
.LBB6579:
.LBB6580:
.LBB6581:
.LBB6582:
	.loc 2 288 0 is_stmt 1
	lwz 9,160(1)
.LBE6582:
.LBE6581:
.LBE6580:
	.loc 2 534 0
	addi 3,9,-12
.LVL596:
.LBB6583:
.LBB6584:
	.loc 2 235 0
	cmpw 7,3,31
	bne- 7,.L1262
.LVL597:
.L775:
.LBE6584:
.LBE6583:
.LBE6579:
.LBE6578:
.LBE6577:
.LBB6595:
.LBB6596:
.LBB6597:
.LBB6598:
.LBB6599:
.LBB6600:
	.loc 2 288 0
	lwz 9,164(1)
.LBE6600:
.LBE6599:
.LBE6598:
.LBB6601:
.LBB6602:
	.loc 1 135 0
	li 30,-1
.LVL598:
.LBE6602:
.LBE6601:
	.loc 2 534 0
	addi 3,9,-12
.LVL599:
.LBB6610:
.LBB6609:
	.loc 2 235 0
	cmpw 7,3,31
	beq+ 7,.L1115
.LVL600:
.LBB6603:
.LBB6604:
.LBB6605:
	.loc 3 66 0
	lwz 11,-4(9)
.LVL601:
.LBE6605:
.LBE6604:
.LBE6603:
	.loc 2 240 0
	cmpwi 7,11,0
.LBB6608:
.LBB6607:
.LBB6606:
	.loc 3 67 0
	addi 11,11,-1
	stw 11,-4(9)
.LBE6606:
.LBE6607:
.LBE6608:
	.loc 2 240 0
	bgt+ 7,.L1115
	.loc 2 244 0
	addi 4,1,55
	bl _ZNSs4_Rep10_M_destroyERKSaIcE
.LVL602:
	b .L1115
.LVL603:
.L1253:
.LBE6609:
.LBE6610:
.LBE6597:
.LBE6596:
.LBE6595:
.LBB6611:
.LBB6571:
	.loc 6 27 0
	li 3,632
.LEHB182:
	bl _Znwj
.LEHE182:
	mr 29,3
.LEHB183:
	bl _ZN11ApplicationC1Ev
.LEHE183:
	stw 29,_ZN11Application8instanceE@l(31)
	b .L1117
.L1254:
.LBE6571:
.LBE6611:
.LBB6612:
.LBB6574:
	li 3,632
.LEHB184:
	bl _Znwj
.LEHE184:
	mr 29,3
.LEHB185:
	bl _ZN11ApplicationC1Ev
.LEHE185:
	stw 29,_ZN11Application8instanceE@l(31)
	b .L1119
.LVL604:
.L1251:
.LBE6574:
.LBE6612:
	.loc 1 135 0
	li 30,-1
	b .L1115
.L1255:
.LBB6613:
.LBB6563:
.LBB6555:
.LBB6527:
.LBB6412:
	.loc 6 27 0
	li 3,632
.LEHB186:
	bl _Znwj
.LEHE186:
	mr 29,3
.LEHB187:
	bl _ZN11ApplicationC1Ev
.LEHE187:
	stw 29,_ZN11Application8instanceE@l(31)
	b .L1028
.L1256:
.LBE6412:
.LBE6527:
.LBB6528:
.LBB6415:
	li 3,632
.LEHB188:
	bl _Znwj
.LEHE188:
	mr 29,3
.LEHB189:
	bl _ZN11ApplicationC1Ev
.LEHE189:
	stw 29,_ZN11Application8instanceE@l(31)
	b .L1030
.LVL605:
.L1230:
.LBE6415:
.LBE6528:
.LBB6529:
.LBB6062:
	.loc 5 39 0
	li 3,12
.LEHB190:
	bl _Znwj
.LEHE190:
.LBB6047:
.LBB6048:
.LBB6049:
.LBB6050:
.LBB6051:
	.loc 2 270 0
	lis 9,_ZNSs4_Rep20_S_empty_rep_storageE+12@ha
	la 0,_ZNSs4_Rep20_S_empty_rep_storageE+12@l(9)
.LBE6051:
.LBE6050:
.LBE6049:
.LBE6048:
.LBE6047:
	.loc 5 39 0
	mr 23,3
.LVL606:
.LBB6060:
.LBB6058:
.LBB6054:
.LBB6053:
.LBB6052:
	.loc 2 270 0
	stw 0,0(3)
.LVL607:
.LBE6052:
.LBE6053:
.LBE6054:
.LBB6055:
.LBB6056:
.LBB6057:
	stw 0,4(3)
.LEHB191:
.LBE6057:
.LBE6056:
.LBE6055:
	.loc 5 47 0
	bl _ZN8ErrorLog5ResetEv
.LEHE191:
.LVL608:
.LBE6058:
.LBE6060:
	.loc 5 39 0
	stw 23,_ZN8ErrorLog8instanceE@l(30)
	b .L849
.LVL609:
.L1237:
.LBE6062:
.LBE6529:
.LBB6530:
.LBB6222:
.LBB6215:
.LBB6158:
	li 3,12
.LEHB192:
	bl _Znwj
.LEHE192:
.LBB6143:
.LBB6144:
.LBB6145:
.LBB6146:
.LBB6147:
	.loc 2 270 0
	lis 9,_ZNSs4_Rep20_S_empty_rep_storageE+12@ha
.LBE6147:
.LBE6146:
.LBE6145:
.LBE6144:
.LBE6143:
	.loc 5 39 0
	mr 26,3
.LVL610:
.LBB6156:
.LBB6154:
.LBB6150:
.LBB6149:
.LBB6148:
	.loc 2 270 0
	la 0,_ZNSs4_Rep20_S_empty_rep_storageE+12@l(9)
	stw 0,0(3)
.LVL611:
.LBE6148:
.LBE6149:
.LBE6150:
.LBB6151:
.LBB6152:
.LBB6153:
	stw 0,4(3)
.LEHB193:
.LBE6153:
.LBE6152:
.LBE6151:
	.loc 5 47 0
	bl _ZN8ErrorLog5ResetEv
.LEHE193:
.LVL612:
.LBE6154:
.LBE6156:
	.loc 5 39 0
	stw 26,_ZN8ErrorLog8instanceE@l(30)
	b .L936
.LVL613:
.L1218:
.LBE6158:
.LBE6215:
.LBE6222:
.LBE6530:
.LBE6555:
.LBE6563:
.LBE6613:
	.loc 1 146 0
	lis 3,.LC27@ha
	la 3,.LC27@l(3)
.LEHB194:
	bl gettext
	addi 5,1,62
	mr 4,3
	addi 3,1,168
	bl _ZNSsC1EPKcRKSaIcE
.LEHE194:
	mr 3,27
	addi 4,1,168
.LEHB195:
	bl _ZN12UpdateWindow9ShowErrorESs
.LEHE195:
.LVL614:
.LBB6614:
.LBB6615:
.LBB6616:
.LBB6617:
.LBB6618:
.LBB6619:
	.loc 2 288 0
	lwz 9,168(1)
.LBE6619:
.LBE6618:
.LBE6617:
.LBB6620:
.LBB6621:
	.loc 1 135 0
	li 30,-1
.LVL615:
.LBE6621:
.LBE6620:
	.loc 2 534 0
	addi 3,9,-12
.LVL616:
.LBB6629:
.LBB6628:
	.loc 2 235 0
	cmpw 7,3,31
	beq+ 7,.L1115
.LVL617:
.LBB6622:
.LBB6623:
.LBB6624:
	.loc 3 66 0
	lwz 11,-4(9)
.LVL618:
.LBE6624:
.LBE6623:
.LBE6622:
	.loc 2 240 0
	cmpwi 7,11,0
.LBB6627:
.LBB6626:
.LBB6625:
	.loc 3 67 0
	addi 11,11,-1
	stw 11,-4(9)
.LBE6625:
.LBE6626:
.LBE6627:
	.loc 2 240 0
	bgt+ 7,.L1115
	.loc 2 244 0
	addi 4,1,57
	bl _ZNSs4_Rep10_M_destroyERKSaIcE
.LVL619:
	b .L1115
.LVL620:
.L1257:
.LBE6628:
.LBE6629:
.LBE6616:
.LBE6615:
.LBE6614:
.LBB6630:
.LBB6564:
.LBB6556:
.LBB6531:
.LBB6387:
.LBB6382:
.LBB6375:
	.loc 5 39 0
	li 3,12
.LEHB196:
	bl _Znwj
.LEHE196:
.LBB6362:
.LBB6363:
.LBB6364:
.LBB6365:
.LBB6366:
	.loc 2 270 0
	lis 9,_ZNSs4_Rep20_S_empty_rep_storageE+12@ha
	la 0,_ZNSs4_Rep20_S_empty_rep_storageE+12@l(9)
.LBE6366:
.LBE6365:
.LBE6364:
.LBE6363:
.LBE6362:
	.loc 5 39 0
	mr 31,3
.LVL621:
.LBB6374:
.LBB6373:
.LBB6369:
.LBB6368:
.LBB6367:
	.loc 2 270 0
	stw 0,0(3)
.LVL622:
.LBE6367:
.LBE6368:
.LBE6369:
.LBB6370:
.LBB6371:
.LBB6372:
	stw 0,4(3)
.LEHB197:
.LBE6372:
.LBE6371:
.LBE6370:
	.loc 5 47 0
	bl _ZN8ErrorLog5ResetEv
.LEHE197:
.LVL623:
.LBE6373:
.LBE6374:
	.loc 5 39 0
	stw 31,_ZN8ErrorLog8instanceE@l(30)
	b .L1020
.LVL624:
.L1258:
.LBE6375:
.LBE6382:
.LBE6387:
.LBE6531:
.LBB6532:
.LBB6435:
	li 3,12
.LEHB198:
	bl _Znwj
.LEHE198:
.LBB6422:
.LBB6423:
.LBB6424:
.LBB6425:
.LBB6426:
	.loc 2 270 0
	lis 9,_ZNSs4_Rep20_S_empty_rep_storageE+12@ha
	la 0,_ZNSs4_Rep20_S_empty_rep_storageE+12@l(9)
.LBE6426:
.LBE6425:
.LBE6424:
.LBE6423:
.LBE6422:
	.loc 5 39 0
	mr 26,3
.LVL625:
.LBB6434:
.LBB6433:
.LBB6429:
.LBB6428:
.LBB6427:
	.loc 2 270 0
	stw 0,0(3)
.LVL626:
.LBE6427:
.LBE6428:
.LBE6429:
.LBB6430:
.LBB6431:
.LBB6432:
	stw 0,4(3)
.LEHB199:
.LBE6432:
.LBE6431:
.LBE6430:
	.loc 5 47 0
	bl _ZN8ErrorLog5ResetEv
.LEHE199:
.LVL627:
.LBE6433:
.LBE6434:
	.loc 5 39 0
	stw 26,_ZN8ErrorLog8instanceE@l(30)
	b .L873
.LVL628:
.L1260:
.LBE6435:
.LBE6532:
.LBB6533:
.LBB6485:
	li 3,12
.LEHB200:
	bl _Znwj
.LEHE200:
.LBB6470:
.LBB6471:
.LBB6472:
.LBB6473:
.LBB6474:
	.loc 2 270 0
	lis 9,_ZNSs4_Rep20_S_empty_rep_storageE+12@ha
	la 0,_ZNSs4_Rep20_S_empty_rep_storageE+12@l(9)
.LBE6474:
.LBE6473:
.LBE6472:
.LBE6471:
.LBE6470:
	.loc 5 39 0
	mr 26,3
.LVL629:
.LBB6483:
.LBB6481:
.LBB6477:
.LBB6476:
.LBB6475:
	.loc 2 270 0
	stw 0,0(3)
.LVL630:
.LBE6475:
.LBE6476:
.LBE6477:
.LBB6478:
.LBB6479:
.LBB6480:
	stw 0,4(3)
.LEHB201:
.LBE6480:
.LBE6479:
.LBE6478:
	.loc 5 47 0
	bl _ZN8ErrorLog5ResetEv
.LEHE201:
.LVL631:
.LBE6481:
.LBE6483:
	.loc 5 39 0
	stw 26,_ZN8ErrorLog8instanceE@l(30)
	b .L888
.LVL632:
.L1216:
.LBE6485:
.LBE6533:
.LBE6556:
.LBE6564:
.LBE6630:
.LBB6631:
.LBB5846:
.LBB5845:
.LBB5844:
.LBB5842:
.LBB5835:
.LBB5836:
.LBB5837:
	.loc 3 66 0
	lwz 11,-4(9)
.LVL633:
.LBE5837:
.LBE5836:
.LBE5835:
	.loc 2 240 0
	cmpwi 7,11,0
.LBB5840:
.LBB5839:
.LBB5838:
	.loc 3 67 0
	addi 11,11,-1
	stw 11,-4(9)
.LBE5838:
.LBE5839:
.LBE5840:
	.loc 2 240 0
	bgt+ 7,.L756
	.loc 2 244 0
	addi 4,1,59
	bl _ZNSs4_Rep10_M_destroyERKSaIcE
.LVL634:
	b .L756
.LVL635:
.L1217:
.LBE5842:
.LBE5844:
.LBE5845:
.LBE5846:
.LBE6631:
.LBB6632:
.LBB5864:
.LBB5863:
.LBB5862:
.LBB5861:
.LBB5855:
.LBB5856:
.LBB5857:
	.loc 3 66 0
	lwz 11,-4(9)
.LVL636:
.LBE5857:
.LBE5856:
.LBE5855:
	.loc 2 240 0
	cmpwi 7,11,0
.LBB5860:
.LBB5859:
.LBB5858:
	.loc 3 67 0
	addi 11,11,-1
	stw 11,-4(9)
.LBE5858:
.LBE5859:
.LBE5860:
	.loc 2 240 0
	bgt+ 7,.L764
	.loc 2 244 0
	addi 4,1,58
	bl _ZNSs4_Rep10_M_destroyERKSaIcE
.LVL637:
	b .L764
.LVL638:
.L1224:
.LBE5861:
.LBE5862:
.LBE5863:
.LBE5864:
.LBE6632:
.LBB6633:
.LBB6565:
.LBB6557:
.LBB6534:
.LBB5956:
.LBB5955:
.LBB5954:
.LBB5953:
.LBB5947:
.LBB5948:
.LBB5949:
	.loc 3 66 0
	lwz 11,-4(9)
.LVL639:
.LBE5949:
.LBE5948:
.LBE5947:
	.loc 2 240 0
	cmpwi 7,11,0
.LBB5952:
.LBB5951:
.LBB5950:
	.loc 3 67 0
	addi 11,11,-1
	stw 11,-4(9)
.LBE5950:
.LBE5951:
.LBE5952:
	.loc 2 240 0
	bgt+ 7,.L807
	.loc 2 244 0
	addi 4,1,29
	bl _ZNSs4_Rep10_M_destroyERKSaIcE
.LVL640:
	b .L807
.LVL641:
.L1223:
.LBE5953:
.LBE5954:
.LBE5955:
.LBE5956:
.LBE6534:
.LBB6535:
.LBB5938:
.LBB5937:
.LBB5936:
.LBB5935:
.LBB5929:
.LBB5930:
.LBB5931:
	.loc 3 66 0
	lwz 11,-4(9)
.LVL642:
.LBE5931:
.LBE5930:
.LBE5929:
	.loc 2 240 0
	cmpwi 7,11,0
.LBB5934:
.LBB5933:
.LBB5932:
	.loc 3 67 0
	addi 11,11,-1
	stw 11,-4(9)
.LBE5932:
.LBE5933:
.LBE5934:
	.loc 2 240 0
	bgt+ 7,.L799
	.loc 2 244 0
	addi 4,1,30
	bl _ZNSs4_Rep10_M_destroyERKSaIcE
.LVL643:
	b .L799
.LVL644:
.L1222:
.LBE5935:
.LBE5936:
.LBE5937:
.LBE5938:
.LBE6535:
.LBB6536:
.LBB5918:
.LBB5915:
.LBB5913:
.LBB5911:
.LBB5909:
.LBB5908:
.LBB5907:
.LBB5906:
.LBB5905:
.LBB5899:
.LBB5900:
.LBB5901:
	.loc 3 66 0
	lwz 11,-4(9)
.LVL645:
.LBE5901:
.LBE5900:
.LBE5899:
	.loc 2 240 0
	cmpwi 7,11,0
.LBB5904:
.LBB5903:
.LBB5902:
	.loc 3 67 0
	addi 11,11,-1
	stw 11,-4(9)
.LBE5902:
.LBE5903:
.LBE5904:
	.loc 2 240 0
	bgt+ 7,.L791
	.loc 2 244 0
	addi 4,1,31
	bl _ZNSs4_Rep10_M_destroyERKSaIcE
.LVL646:
	b .L791
.LVL647:
.L1221:
.LBE5905:
.LBE5906:
.LBE5907:
.LBE5908:
.LBE5909:
.LBB5910:
.LBB5890:
.LBB5889:
.LBB5888:
.LBB5887:
.LBB5881:
.LBB5882:
.LBB5883:
	.loc 3 66 0
	lwz 11,-4(9)
.LVL648:
.LBE5883:
.LBE5882:
.LBE5881:
	.loc 2 240 0
	cmpwi 7,11,0
.LBB5886:
.LBB5885:
.LBB5884:
	.loc 3 67 0
	addi 11,11,-1
	stw 11,-4(9)
.LBE5884:
.LBE5885:
.LBE5886:
	.loc 2 240 0
	bgt+ 7,.L783
	.loc 2 244 0
	addi 4,1,32
	bl _ZNSs4_Rep10_M_destroyERKSaIcE
.LVL649:
	b .L783
.LVL650:
.L1226:
.LBE5887:
.LBE5888:
.LBE5889:
.LBE5890:
.LBE5910:
.LBE5911:
.LBE5913:
.LBE5915:
.LBE5918:
.LBE6536:
.LBB6537:
.LBB5990:
.LBB5989:
.LBB5988:
.LBB5987:
.LBB5981:
.LBB5982:
.LBB5983:
	.loc 3 66 0
	lwz 11,-4(9)
.LVL651:
.LBE5983:
.LBE5982:
.LBE5981:
	.loc 2 240 0
	cmpwi 7,11,0
.LBB5986:
.LBB5985:
.LBB5984:
	.loc 3 67 0
	addi 11,11,-1
	stw 11,-4(9)
.LBE5984:
.LBE5985:
.LBE5986:
	.loc 2 240 0
	bgt+ 7,.L823
	.loc 2 244 0
	addi 4,1,28
	bl _ZNSs4_Rep10_M_destroyERKSaIcE
.LVL652:
	b .L823
.LVL653:
.L1235:
.LBE5987:
.LBE5988:
.LBE5989:
.LBE5990:
.LBE6537:
.LBB6538:
.LBB6223:
.LBB6216:
.LBB6122:
.LBB6121:
.LBB6120:
.LBB6119:
.LBB6113:
.LBB6114:
.LBB6115:
	.loc 3 66 0
	lwz 11,-4(9)
.LVL654:
.LBE6115:
.LBE6114:
.LBE6113:
	.loc 2 240 0
	cmpwi 7,11,0
.LBB6118:
.LBB6117:
.LBB6116:
	.loc 3 67 0
	addi 11,11,-1
	stw 11,-4(9)
.LBE6116:
.LBE6117:
.LBE6118:
	.loc 2 240 0
	bgt+ 7,.L928
	.loc 2 244 0
	addi 4,1,18
	bl _ZNSs4_Rep10_M_destroyERKSaIcE
.LVL655:
	b .L928
.LVL656:
.L1236:
.LBE6119:
.LBE6120:
.LBE6121:
.LBE6122:
.LBE6216:
.LBB6217:
.LBB6140:
.LBB6139:
.LBB6138:
.LBB6137:
.LBB6131:
.LBB6132:
.LBB6133:
	.loc 3 66 0
	lwz 11,-4(9)
.LVL657:
.LBE6133:
.LBE6132:
.LBE6131:
	.loc 2 240 0
	cmpwi 7,11,0
.LBB6136:
.LBB6135:
.LBB6134:
	.loc 3 67 0
	addi 11,11,-1
	stw 11,-4(9)
.LBE6134:
.LBE6135:
.LBE6136:
	.loc 2 240 0
	bgt+ 7,.L934
	.loc 2 244 0
	addi 4,1,17
	bl _ZNSs4_Rep10_M_destroyERKSaIcE
.LVL658:
	b .L934
.LVL659:
.L1231:
.LBE6137:
.LBE6138:
.LBE6139:
.LBE6140:
.LBE6217:
.LBE6223:
.LBE6538:
.LBB6539:
.LBB6081:
.LBB6080:
.LBB6079:
.LBB6078:
.LBB6072:
.LBB6073:
.LBB6074:
	.loc 3 66 0
	lwz 11,-4(9)
.LVL660:
.LBE6074:
.LBE6073:
.LBE6072:
	.loc 2 240 0
	cmpwi 7,11,0
.LBB6077:
.LBB6076:
.LBB6075:
	.loc 3 67 0
	addi 11,11,-1
	stw 11,-4(9)
.LBE6075:
.LBE6076:
.LBE6077:
	.loc 2 240 0
	bgt+ 7,.L863
	.loc 2 244 0
	addi 4,1,24
	bl _ZNSs4_Rep10_M_destroyERKSaIcE
.LVL661:
	b .L863
.LVL662:
.L1238:
.LBE6078:
.LBE6079:
.LBE6080:
.LBE6081:
.LBE6539:
.LBB6540:
.LBB6224:
.LBB6218:
.LBB6177:
.LBB6176:
.LBB6175:
.LBB6174:
.LBB6168:
.LBB6169:
.LBB6170:
	.loc 3 66 0
	lwz 11,-4(9)
.LVL663:
.LBE6170:
.LBE6169:
.LBE6168:
	.loc 2 240 0
	cmpwi 7,11,0
.LBB6173:
.LBB6172:
.LBB6171:
	.loc 3 67 0
	addi 11,11,-1
	stw 11,-4(9)
.LBE6171:
.LBE6172:
.LBE6173:
	.loc 2 240 0
	bgt+ 7,.L951
	.loc 2 244 0
	addi 4,1,16
	bl _ZNSs4_Rep10_M_destroyERKSaIcE
.LVL664:
	b .L951
.LVL665:
.L1239:
.LBE6174:
.LBE6175:
.LBE6176:
.LBE6177:
.LBE6218:
.LBB6219:
.LBB6195:
.LBB6194:
.LBB6193:
.LBB6192:
.LBB6186:
.LBB6187:
.LBB6188:
	.loc 3 66 0
	lwz 11,-4(9)
.LVL666:
.LBE6188:
.LBE6187:
.LBE6186:
	.loc 2 240 0
	cmpwi 7,11,0
.LBB6191:
.LBB6190:
.LBB6189:
	.loc 3 67 0
	addi 11,11,-1
	stw 11,-4(9)
.LBE6189:
.LBE6190:
.LBE6191:
	.loc 2 240 0
	bgt+ 7,.L958
	.loc 2 244 0
	addi 4,1,15
	bl _ZNSs4_Rep10_M_destroyERKSaIcE
.LVL667:
	b .L958
.LVL668:
.L1181:
.L1211:
	mr 31,3
.LBE6192:
.LBE6193:
.LBE6194:
.LBE6195:
.LBE6219:
.LBE6224:
.LBE6540:
.LBB6541:
.LBB6063:
.LBB6061:
.LBB6059:
	.loc 5 47 0
	addi 3,23,4
	bl _ZNSsD1Ev
	mr 3,23
	bl _ZNSsD1Ev
.LBE6059:
.LBE6061:
	.loc 5 39 0
	mr 3,23
	bl _ZdlPv
	mr 3,31
.LEHB202:
	bl _Unwind_Resume
.LVL669:
.L1191:
.L1214:
	mr 31,3
.LBE6063:
.LBE6541:
.LBB6542:
.LBB6416:
	.loc 6 27 0
	mr 3,29
	bl _ZdlPv
	mr 3,31
	bl _Unwind_Resume
.LVL670:
.L1261:
.LBE6416:
.LBE6542:
.LBB6543:
.LBB6504:
.LBB6503:
.LBB6502:
.LBB6501:
.LBB6495:
.LBB6496:
.LBB6497:
	.loc 3 66 0
	lwz 11,-4(9)
.LVL671:
.LBE6497:
.LBE6496:
.LBE6495:
	.loc 2 240 0
	cmpwi 7,11,0
.LBB6500:
.LBB6499:
.LBB6498:
	.loc 3 67 0
	addi 11,11,-1
	stw 11,-4(9)
.LBE6498:
.LBE6499:
.LBE6500:
	.loc 2 240 0
	bgt+ 7,.L902
	.loc 2 244 0
	addi 4,1,20
	bl _ZNSs4_Rep10_M_destroyERKSaIcE
.LVL672:
	b .L902
.LVL673:
.L1143:
	mr 31,3
.LBE6501:
.LBE6502:
.LBE6503:
.LBE6504:
.LBE6543:
.LBE6557:
.LBE6565:
.LBE6633:
	.loc 1 146 0
	addi 3,1,168
	bl _ZNSsD1Ev
	mr 3,31
	bl _Unwind_Resume
.LVL674:
.L1160:
	mr 31,3
.LBB6634:
.LBB6566:
.LBB6558:
	.loc 1 243 0
	addi 3,1,116
	bl _ZNSsD1Ev
	mr 3,31
.L1203:
	mr 31,3
	addi 3,1,120
	bl _ZNSsD1Ev
	mr 3,31
	bl _Unwind_Resume
.L1159:
	b .L1203
.L1158:
	b .L1203
.LVL675:
.L1187:
.L1213:
	mr 30,3
.LBB6544:
.LBB6409:
.LBB6407:
.LBB6405:
	.loc 5 47 0
	addi 3,31,4
	bl _ZNSsD1Ev
	mr 3,31
	bl _ZNSsD1Ev
.LBE6405:
.LBE6407:
	.loc 5 39 0
	mr 3,31
	bl _ZdlPv
	mr 3,30
	bl _Unwind_Resume
.LVL676:
.L1259:
.LBE6409:
.LBE6544:
.LBB6545:
.LBB6453:
.LBB6452:
.LBB6451:
.LBB6450:
.LBB6444:
.LBB6445:
.LBB6446:
	.loc 3 66 0
	lwz 11,-4(9)
.LVL677:
.LBE6446:
.LBE6445:
.LBE6444:
	.loc 2 240 0
	cmpwi 7,11,0
.LBB6449:
.LBB6448:
.LBB6447:
	.loc 3 67 0
	addi 11,11,-1
	stw 11,-4(9)
.LBE6447:
.LBE6448:
.LBE6449:
	.loc 2 240 0
	bgt+ 7,.L887
	.loc 2 244 0
	addi 4,1,22
	bl _ZNSs4_Rep10_M_destroyERKSaIcE
.LVL678:
	b .L887
.LVL679:
.L1192:
	b .L1214
.LVL680:
.L1184:
.L1212:
	mr 31,3
.LBE6450:
.LBE6451:
.LBE6452:
.LBE6453:
.LBE6545:
.LBB6546:
.LBB6486:
.LBB6484:
.LBB6482:
	.loc 5 47 0
	addi 3,26,4
	bl _ZNSsD1Ev
	mr 3,26
	bl _ZNSsD1Ev
.LBE6482:
.LBE6484:
	.loc 5 39 0
	mr 3,26
	bl _ZdlPv
	mr 3,31
	bl _Unwind_Resume
.LVL681:
.L1150:
.L1201:
	mr 31,3
.LBE6486:
.LBE6546:
	.loc 1 226 0
	addi 3,1,144
	bl _ZNSsD1Ev
	mr 3,31
	bl _Unwind_Resume
.LVL682:
.L1188:
	b .L1214
.LVL683:
.L1185:
	mr 31,3
.LBB6547:
.LBB6225:
.LBB6220:
.LBB6159:
.LBB6157:
.LBB6155:
	.loc 5 47 0
	addi 3,26,4
	bl _ZNSsD1Ev
	mr 3,26
	bl _ZNSsD1Ev
.LBE6155:
.LBE6157:
	.loc 5 39 0
	mr 3,26
	bl _ZdlPv
.LVL684:
.L943:
.LBE6159:
.LBE6220:
	.loc 1 259 0
	addi 3,1,156
.LVL685:
	bl _ZNSsD1Ev
.LVL686:
	mr 3,31
	bl _Unwind_Resume
.LVL687:
.L1189:
	b .L1214
.LVL688:
.L1182:
	b .L1211
.LVL689:
.L1151:
	b .L1201
.L1152:
	mr 31,3
.LBE6225:
.LBE6547:
	.loc 1 226 0
	addi 3,1,140
	bl _ZNSsD1Ev
	mr 3,31
	b .L1201
.LVL690:
.L1170:
	mr 31,3
.LBB6548:
.LBB6226:
	.loc 1 259 0
	addi 3,1,92
	bl _ZNSsD1Ev
	mr 3,31
.L1205:
	mr 31,3
	addi 3,1,96
	bl _ZNSsD1Ev
	mr 3,31
.LVL691:
.L1206:
	mr 31,3
	b .L943
.LVL692:
.L1149:
	mr 31,3
.LBE6226:
.LBE6548:
	.loc 1 224 0
	addi 3,1,148
	bl _ZNSsD1Ev
.L1044:
	addi 3,1,152
	bl _ZNSsD1Ev
	mr 3,31
	bl _Unwind_Resume
.LVL693:
.L1168:
	b .L1205
.L1169:
	b .L1205
.L1167:
	b .L1206
.LVL694:
.L1155:
.L1202:
	mr 31,3
	.loc 1 234 0
	addi 3,1,128
	bl _ZNSsD1Ev
	mr 3,31
	bl _Unwind_Resume
.LVL695:
.L1154:
	mr 31,3
	.loc 1 232 0
	addi 3,1,132
	bl _ZNSsD1Ev
.L1053:
	addi 3,1,136
	bl _ZNSsD1Ev
	mr 3,31
	bl _Unwind_Resume
.LVL696:
.L1142:
	mr 31,3
.LBE6558:
.LBE6566:
.LBE6634:
	.loc 1 142 0
	addi 3,1,172
	bl _ZNSsD1Ev
.L1126:
	addi 3,1,176
	bl _ZNSsD1Ev
	mr 3,31
	bl _Unwind_Resume
.L1141:
	mr 31,3
	b .L1126
.LVL697:
.L1177:
	mr 31,3
.L1087:
.LBB6635:
.LBB6567:
.LBB6559:
.LBB6549:
.LBB6388:
	.loc 1 264 0
	addi 3,1,76
	bl _ZNSsD1Ev
	mr 3,31
.L1207:
	mr 31,3
	addi 3,1,80
	bl _ZNSsD1Ev
	mr 3,31
.L1208:
	mr 31,3
	addi 3,1,84
	bl _ZNSsD1Ev
	mr 3,31
.L1209:
	mr 31,3
	addi 3,1,88
	bl _ZNSsD1Ev
	mr 3,31
	bl _Unwind_Resume
.L1176:
	b .L1207
.L1175:
	b .L1207
.L1174:
	b .L1208
.LVL698:
.L1164:
	b .L1206
.L1165:
	mr 31,3
.L1072:
.LBE6388:
.LBE6549:
.LBB6550:
.LBB6227:
	.loc 1 257 0
	addi 3,1,104
	bl _ZNSsD1Ev
	b .L943
.L1166:
	mr 31,3
	addi 3,1,100
	bl _ZNSsD1Ev
	b .L1072
.LVL699:
.L1156:
	b .L1202
.L1157:
	mr 31,3
.LBE6227:
.LBE6550:
	.loc 1 234 0
	addi 3,1,124
	bl _ZNSsD1Ev
	mr 3,31
	b .L1202
.LVL700:
.L1148:
	mr 31,3
	b .L1044
.LVL701:
.L1173:
	b .L1208
.L1172:
	b .L1209
.L1179:
	mr 31,3
.LBB6551:
.LBB6389:
	.loc 1 264 0
	addi 3,1,68
	bl _ZNSsD1Ev
.L1084:
	addi 3,1,72
	bl _ZNSsD1Ev
	b .L1087
.LVL702:
.L1190:
	b .L1213
.LVL703:
.L1186:
	mr 31,3
.LBE6389:
.LBB6390:
.LBB6247:
.LBB6245:
.LBB6243:
	.loc 5 47 0
	addi 3,29,4
	bl _ZNSsD1Ev
	mr 3,29
	bl _ZNSsD1Ev
.LBE6243:
.LBE6245:
	.loc 5 39 0
	mr 3,29
	bl _ZdlPv
	mr 3,31
	bl _Unwind_Resume
.LVL704:
.L1147:
	mr 31,3
.LBE6247:
.LBE6390:
.LBE6551:
	.loc 1 216 0
	mr 3,28
	bl _ZdlPv
	mr 3,31
	bl _Unwind_Resume
.LVL705:
.L1140:
	mr 31,3
.LBE6559:
.LBE6567:
.LBE6635:
	.loc 1 139 0
	mr 3,27
	bl _ZdlPv
	mr 3,31
	bl _Unwind_Resume
.LVL706:
.L1262:
.LBB6636:
.LBB6594:
.LBB6593:
.LBB6592:
.LBB6591:
.LBB6585:
.LBB6586:
.LBB6587:
	.loc 3 66 0
	lwz 11,-4(9)
.LVL707:
.LBE6587:
.LBE6586:
.LBE6585:
	.loc 2 240 0
	cmpwi 7,11,0
.LBB6590:
.LBB6589:
.LBB6588:
	.loc 3 67 0
	addi 11,11,-1
	stw 11,-4(9)
.LBE6588:
.LBE6589:
.LBE6590:
	.loc 2 240 0
	bgt+ 7,.L775
	.loc 2 244 0
	addi 4,1,56
	bl _ZNSs4_Rep10_M_destroyERKSaIcE
.LVL708:
	b .L775
.LVL709:
.L1146:
	mr 31,3
.LBE6591:
.LBE6592:
.LBE6593:
.LBE6594:
.LBE6636:
	.loc 1 152 0
	addi 3,1,160
	bl _ZNSsD1Ev
	mr 3,31
.L1210:
	mr 31,3
	addi 3,1,164
	bl _ZNSsD1Ev
	mr 3,31
	bl _Unwind_Resume
.L1145:
	b .L1210
.L1144:
	b .L1210
.LVL710:
.L1178:
	mr 31,3
	b .L1084
.LVL711:
.L1180:
	mr 31,3
.LBB6637:
.LBB6568:
.LBB6560:
.LBB6552:
.LBB5919:
.LBB5916:
.LBB5914:
.LBB5912:
	.loc 5 48 0
	addi 3,29,4
	bl _ZNSsD1Ev
	mr 3,29
	bl _ZNSsD1Ev
	mr 3,31
	bl _Unwind_Resume
.LVL712:
.L1171:
	b .L1209
.L1153:
	mr 31,3
	b .L1053
.L1163:
	mr 31,3
.LBE5912:
.LBE5914:
.LBE5916:
.LBE5919:
.LBE6552:
	.loc 1 249 0
	addi 3,1,108
	bl _ZNSsD1Ev
	mr 3,31
.L1204:
	mr 31,3
	addi 3,1,112
	bl _ZNSsD1Ev
	mr 3,31
	bl _Unwind_Resume
.LEHE202:
.L1162:
	b .L1204
.L1161:
	b .L1204
.LVL713:
.L1183:
	b .L1212
.LBE6560:
.LBE6568:
.LBE6637:
.LBE6641:
	.cfi_endproc
.LFE1502:
	.section	.gcc_except_table
.LLSDA1502:
	.byte	0xff
	.byte	0xff
	.byte	0x1
	.uleb128 .LLSDACSE1502-.LLSDACSB1502
.LLSDACSB1502:
	.uleb128 .LEHB122-.LFB1502
	.uleb128 .LEHE122-.LEHB122
	.uleb128 0
	.uleb128 0
	.uleb128 .LEHB123-.LFB1502
	.uleb128 .LEHE123-.LEHB123
	.uleb128 .L1141-.LFB1502
	.uleb128 0
	.uleb128 .LEHB124-.LFB1502
	.uleb128 .LEHE124-.LEHB124
	.uleb128 .L1142-.LFB1502
	.uleb128 0
	.uleb128 .LEHB125-.LFB1502
	.uleb128 .LEHE125-.LEHB125
	.uleb128 0
	.uleb128 0
	.uleb128 .LEHB126-.LFB1502
	.uleb128 .LEHE126-.LEHB126
	.uleb128 .L1180-.LFB1502
	.uleb128 0
	.uleb128 .LEHB127-.LFB1502
	.uleb128 .LEHE127-.LEHB127
	.uleb128 0
	.uleb128 0
	.uleb128 .LEHB128-.LFB1502
	.uleb128 .LEHE128-.LEHB128
	.uleb128 .L1148-.LFB1502
	.uleb128 0
	.uleb128 .LEHB129-.LFB1502
	.uleb128 .LEHE129-.LEHB129
	.uleb128 .L1149-.LFB1502
	.uleb128 0
	.uleb128 .LEHB130-.LFB1502
	.uleb128 .LEHE130-.LEHB130
	.uleb128 0
	.uleb128 0
	.uleb128 .LEHB131-.LFB1502
	.uleb128 .LEHE131-.LEHB131
	.uleb128 .L1150-.LFB1502
	.uleb128 0
	.uleb128 .LEHB132-.LFB1502
	.uleb128 .LEHE132-.LEHB132
	.uleb128 .L1151-.LFB1502
	.uleb128 0
	.uleb128 .LEHB133-.LFB1502
	.uleb128 .LEHE133-.LEHB133
	.uleb128 .L1152-.LFB1502
	.uleb128 0
	.uleb128 .LEHB134-.LFB1502
	.uleb128 .LEHE134-.LEHB134
	.uleb128 0
	.uleb128 0
	.uleb128 .LEHB135-.LFB1502
	.uleb128 .LEHE135-.LEHB135
	.uleb128 .L1153-.LFB1502
	.uleb128 0
	.uleb128 .LEHB136-.LFB1502
	.uleb128 .LEHE136-.LEHB136
	.uleb128 .L1154-.LFB1502
	.uleb128 0
	.uleb128 .LEHB137-.LFB1502
	.uleb128 .LEHE137-.LEHB137
	.uleb128 0
	.uleb128 0
	.uleb128 .LEHB138-.LFB1502
	.uleb128 .LEHE138-.LEHB138
	.uleb128 .L1155-.LFB1502
	.uleb128 0
	.uleb128 .LEHB139-.LFB1502
	.uleb128 .LEHE139-.LEHB139
	.uleb128 .L1156-.LFB1502
	.uleb128 0
	.uleb128 .LEHB140-.LFB1502
	.uleb128 .LEHE140-.LEHB140
	.uleb128 .L1157-.LFB1502
	.uleb128 0
	.uleb128 .LEHB141-.LFB1502
	.uleb128 .LEHE141-.LEHB141
	.uleb128 0
	.uleb128 0
	.uleb128 .LEHB142-.LFB1502
	.uleb128 .LEHE142-.LEHB142
	.uleb128 .L1164-.LFB1502
	.uleb128 0
	.uleb128 .LEHB143-.LFB1502
	.uleb128 .LEHE143-.LEHB143
	.uleb128 .L1165-.LFB1502
	.uleb128 0
	.uleb128 .LEHB144-.LFB1502
	.uleb128 .LEHE144-.LEHB144
	.uleb128 .L1166-.LFB1502
	.uleb128 0
	.uleb128 .LEHB145-.LFB1502
	.uleb128 .LEHE145-.LEHB145
	.uleb128 .L1164-.LFB1502
	.uleb128 0
	.uleb128 .LEHB146-.LFB1502
	.uleb128 .LEHE146-.LEHB146
	.uleb128 .L1167-.LFB1502
	.uleb128 0
	.uleb128 .LEHB147-.LFB1502
	.uleb128 .LEHE147-.LEHB147
	.uleb128 .L1168-.LFB1502
	.uleb128 0
	.uleb128 .LEHB148-.LFB1502
	.uleb128 .LEHE148-.LEHB148
	.uleb128 .L1169-.LFB1502
	.uleb128 0
	.uleb128 .LEHB149-.LFB1502
	.uleb128 .LEHE149-.LEHB149
	.uleb128 .L1170-.LFB1502
	.uleb128 0
	.uleb128 .LEHB150-.LFB1502
	.uleb128 .LEHE150-.LEHB150
	.uleb128 0
	.uleb128 0
	.uleb128 .LEHB151-.LFB1502
	.uleb128 .LEHE151-.LEHB151
	.uleb128 .L1171-.LFB1502
	.uleb128 0
	.uleb128 .LEHB152-.LFB1502
	.uleb128 .LEHE152-.LEHB152
	.uleb128 .L1172-.LFB1502
	.uleb128 0
	.uleb128 .LEHB153-.LFB1502
	.uleb128 .LEHE153-.LEHB153
	.uleb128 .L1173-.LFB1502
	.uleb128 0
	.uleb128 .LEHB154-.LFB1502
	.uleb128 .LEHE154-.LEHB154
	.uleb128 .L1174-.LFB1502
	.uleb128 0
	.uleb128 .LEHB155-.LFB1502
	.uleb128 .LEHE155-.LEHB155
	.uleb128 .L1175-.LFB1502
	.uleb128 0
	.uleb128 .LEHB156-.LFB1502
	.uleb128 .LEHE156-.LEHB156
	.uleb128 .L1176-.LFB1502
	.uleb128 0
	.uleb128 .LEHB157-.LFB1502
	.uleb128 .LEHE157-.LEHB157
	.uleb128 .L1177-.LFB1502
	.uleb128 0
	.uleb128 .LEHB158-.LFB1502
	.uleb128 .LEHE158-.LEHB158
	.uleb128 .L1178-.LFB1502
	.uleb128 0
	.uleb128 .LEHB159-.LFB1502
	.uleb128 .LEHE159-.LEHB159
	.uleb128 .L1179-.LFB1502
	.uleb128 0
	.uleb128 .LEHB160-.LFB1502
	.uleb128 .LEHE160-.LEHB160
	.uleb128 0
	.uleb128 0
	.uleb128 .LEHB161-.LFB1502
	.uleb128 .LEHE161-.LEHB161
	.uleb128 .L1140-.LFB1502
	.uleb128 0
	.uleb128 .LEHB162-.LFB1502
	.uleb128 .LEHE162-.LEHB162
	.uleb128 0
	.uleb128 0
	.uleb128 .LEHB163-.LFB1502
	.uleb128 .LEHE163-.LEHB163
	.uleb128 .L1147-.LFB1502
	.uleb128 0
	.uleb128 .LEHB164-.LFB1502
	.uleb128 .LEHE164-.LEHB164
	.uleb128 0
	.uleb128 0
	.uleb128 .LEHB165-.LFB1502
	.uleb128 .LEHE165-.LEHB165
	.uleb128 .L1186-.LFB1502
	.uleb128 0
	.uleb128 .LEHB166-.LFB1502
	.uleb128 .LEHE166-.LEHB166
	.uleb128 0
	.uleb128 0
	.uleb128 .LEHB167-.LFB1502
	.uleb128 .LEHE167-.LEHB167
	.uleb128 .L1190-.LFB1502
	.uleb128 0
	.uleb128 .LEHB168-.LFB1502
	.uleb128 .LEHE168-.LEHB168
	.uleb128 0
	.uleb128 0
	.uleb128 .LEHB169-.LFB1502
	.uleb128 .LEHE169-.LEHB169
	.uleb128 .L1158-.LFB1502
	.uleb128 0
	.uleb128 .LEHB170-.LFB1502
	.uleb128 .LEHE170-.LEHB170
	.uleb128 .L1159-.LFB1502
	.uleb128 0
	.uleb128 .LEHB171-.LFB1502
	.uleb128 .LEHE171-.LEHB171
	.uleb128 .L1160-.LFB1502
	.uleb128 0
	.uleb128 .LEHB172-.LFB1502
	.uleb128 .LEHE172-.LEHB172
	.uleb128 0
	.uleb128 0
	.uleb128 .LEHB173-.LFB1502
	.uleb128 .LEHE173-.LEHB173
	.uleb128 .L1161-.LFB1502
	.uleb128 0
	.uleb128 .LEHB174-.LFB1502
	.uleb128 .LEHE174-.LEHB174
	.uleb128 .L1162-.LFB1502
	.uleb128 0
	.uleb128 .LEHB175-.LFB1502
	.uleb128 .LEHE175-.LEHB175
	.uleb128 .L1163-.LFB1502
	.uleb128 0
	.uleb128 .LEHB176-.LFB1502
	.uleb128 .LEHE176-.LEHB176
	.uleb128 0
	.uleb128 0
	.uleb128 .LEHB177-.LFB1502
	.uleb128 .LEHE177-.LEHB177
	.uleb128 .L1181-.LFB1502
	.uleb128 0
	.uleb128 .LEHB178-.LFB1502
	.uleb128 .LEHE178-.LEHB178
	.uleb128 0
	.uleb128 0
	.uleb128 .LEHB179-.LFB1502
	.uleb128 .LEHE179-.LEHB179
	.uleb128 .L1144-.LFB1502
	.uleb128 0
	.uleb128 .LEHB180-.LFB1502
	.uleb128 .LEHE180-.LEHB180
	.uleb128 .L1145-.LFB1502
	.uleb128 0
	.uleb128 .LEHB181-.LFB1502
	.uleb128 .LEHE181-.LEHB181
	.uleb128 .L1146-.LFB1502
	.uleb128 0
	.uleb128 .LEHB182-.LFB1502
	.uleb128 .LEHE182-.LEHB182
	.uleb128 0
	.uleb128 0
	.uleb128 .LEHB183-.LFB1502
	.uleb128 .LEHE183-.LEHB183
	.uleb128 .L1191-.LFB1502
	.uleb128 0
	.uleb128 .LEHB184-.LFB1502
	.uleb128 .LEHE184-.LEHB184
	.uleb128 0
	.uleb128 0
	.uleb128 .LEHB185-.LFB1502
	.uleb128 .LEHE185-.LEHB185
	.uleb128 .L1192-.LFB1502
	.uleb128 0
	.uleb128 .LEHB186-.LFB1502
	.uleb128 .LEHE186-.LEHB186
	.uleb128 0
	.uleb128 0
	.uleb128 .LEHB187-.LFB1502
	.uleb128 .LEHE187-.LEHB187
	.uleb128 .L1188-.LFB1502
	.uleb128 0
	.uleb128 .LEHB188-.LFB1502
	.uleb128 .LEHE188-.LEHB188
	.uleb128 0
	.uleb128 0
	.uleb128 .LEHB189-.LFB1502
	.uleb128 .LEHE189-.LEHB189
	.uleb128 .L1189-.LFB1502
	.uleb128 0
	.uleb128 .LEHB190-.LFB1502
	.uleb128 .LEHE190-.LEHB190
	.uleb128 0
	.uleb128 0
	.uleb128 .LEHB191-.LFB1502
	.uleb128 .LEHE191-.LEHB191
	.uleb128 .L1182-.LFB1502
	.uleb128 0
	.uleb128 .LEHB192-.LFB1502
	.uleb128 .LEHE192-.LEHB192
	.uleb128 .L1164-.LFB1502
	.uleb128 0
	.uleb128 .LEHB193-.LFB1502
	.uleb128 .LEHE193-.LEHB193
	.uleb128 .L1185-.LFB1502
	.uleb128 0
	.uleb128 .LEHB194-.LFB1502
	.uleb128 .LEHE194-.LEHB194
	.uleb128 0
	.uleb128 0
	.uleb128 .LEHB195-.LFB1502
	.uleb128 .LEHE195-.LEHB195
	.uleb128 .L1143-.LFB1502
	.uleb128 0
	.uleb128 .LEHB196-.LFB1502
	.uleb128 .LEHE196-.LEHB196
	.uleb128 0
	.uleb128 0
	.uleb128 .LEHB197-.LFB1502
	.uleb128 .LEHE197-.LEHB197
	.uleb128 .L1187-.LFB1502
	.uleb128 0
	.uleb128 .LEHB198-.LFB1502
	.uleb128 .LEHE198-.LEHB198
	.uleb128 0
	.uleb128 0
	.uleb128 .LEHB199-.LFB1502
	.uleb128 .LEHE199-.LEHB199
	.uleb128 .L1183-.LFB1502
	.uleb128 0
	.uleb128 .LEHB200-.LFB1502
	.uleb128 .LEHE200-.LEHB200
	.uleb128 0
	.uleb128 0
	.uleb128 .LEHB201-.LFB1502
	.uleb128 .LEHE201-.LEHB201
	.uleb128 .L1184-.LFB1502
	.uleb128 0
	.uleb128 .LEHB202-.LFB1502
	.uleb128 .LEHE202-.LEHB202
	.uleb128 0
	.uleb128 0
.LLSDACSE1502:
	.section	".text"
	.size	_Z9UpdateAppPKcP12UpdateWindow, .-_Z9UpdateAppPKcP12UpdateWindow
	.align 2
	.globl _Z14CheckForUpdateP12UpdateWindow
	.type	_Z14CheckForUpdateP12UpdateWindow, @function
_Z14CheckForUpdateP12UpdateWindow:
.LFB1501:
	.loc 1 47 0
	.cfi_startproc
	.cfi_personality 0,__gxx_personality_v0
	.cfi_lsda 0,.LLSDA1501
.LVL714:
	mfcr 12
.LBB7151:
	.loc 1 51 0
	cmpwi 4,3,0
.LBE7151:
	.loc 1 47 0
	mflr 0
	stwu 1,-256(1)
.LCFI44:
	.cfi_def_cfa_offset 256
	.cfi_register 65, 0
	.cfi_register 70, 12
	stw 25,228(1)
.LBB7553:
	.loc 1 51 0
	mr 25,3
	.cfi_offset 25, -28
.LBE7553:
	.loc 1 47 0
	stw 0,260(1)
	stw 24,224(1)
	stw 26,232(1)
	stw 27,236(1)
	stw 28,240(1)
	stw 29,244(1)
	stw 30,248(1)
	stw 31,252(1)
	stw 12,220(1)
.LBB7554:
	.loc 1 51 0
	beq- 4,.L1280
	.cfi_offset 70, -36
	.cfi_offset 31, -4
	.cfi_offset 30, -8
	.cfi_offset 29, -12
	.cfi_offset 28, -16
	.cfi_offset 27, -20
	.cfi_offset 26, -24
	.cfi_offset 24, -32
	.cfi_offset 65, 4
.LEHB203:
	.loc 1 53 0
	bl _ZN12UpdateWindow13NetInitPromptEv
.LVL715:
	cmpwi 7,3,0
	beq- 7,.L1473
	.loc 1 56 0
	lis 3,.LC29@ha
	la 3,.LC29@l(3)
	bl gettext
	addi 5,1,38
	mr 4,3
	addi 3,1,100
	bl _ZNSsC1EPKcRKSaIcE
.LEHE203:
	lis 3,.LC30@ha
	la 3,.LC30@l(3)
.LEHB204:
	bl gettext
.LEHE204:
	mr 4,3
	addi 5,1,37
	addi 3,1,96
.LEHB205:
	bl _ZNSsC1EPKcRKSaIcE
.LEHE205:
	.loc 1 56 0 is_stmt 0 discriminator 3
	mr 3,25
	addi 4,1,100
	addi 5,1,96
.LEHB206:
	bl _ZN12UpdateWindow12ShowThrobberESsSs
.LEHE206:
.LVL716:
.LBB7152:
.LBB7153:
.LBB7154:
.LBB7155:
.LBB7156:
.LBB7157:
	.loc 2 288 0 is_stmt 1
	lwz 9,96(1)
.LBE7157:
.LBE7156:
.LBE7155:
.LBB7158:
.LBB7159:
	.loc 2 235 0
	lis 31,_ZNSs4_Rep20_S_empty_rep_storageE@ha
	la 31,_ZNSs4_Rep20_S_empty_rep_storageE@l(31)
.LBE7159:
.LBE7158:
	.loc 2 534 0
	addi 3,9,-12
.LVL717:
.LBB7168:
.LBB7166:
	.loc 2 235 0
	cmpw 7,3,31
	bne- 7,.L1525
.LVL718:
.L1273:
.LBE7166:
.LBE7168:
.LBE7154:
.LBE7153:
.LBE7152:
.LBB7172:
.LBB7173:
.LBB7174:
.LBB7175:
.LBB7176:
.LBB7177:
	.loc 2 288 0
	lwz 9,100(1)
.LBE7177:
.LBE7176:
.LBE7175:
	.loc 2 534 0
	addi 3,9,-12
.LVL719:
.LBB7178:
.LBB7179:
	.loc 2 235 0
	cmpw 7,3,31
	bne- 7,.L1526
.LVL720:
.L1280:
.LBE7179:
.LBE7178:
.LBE7174:
.LBE7173:
.LBE7172:
.LBB7190:
.LBB7191:
.LBB7192:
	.loc 2 270 0
	lis 9,_ZNSs4_Rep20_S_empty_rep_storageE+12@ha
	mr 29,1
	la 0,_ZNSs4_Rep20_S_empty_rep_storageE+12@l(9)
	stwu 0,92(29)
.LVL721:
.LEHB207:
.LBE7192:
.LBE7191:
.LBE7190:
	.loc 1 61 0
	bl GetIntRev
	mr 24,3
.LVL722:
	.loc 1 63 0
	lis 3,.LC31@ha
.LVL723:
	la 3,.LC31@l(3)
	addi 29,1,92
	bl downloadfile
.LBB7193:
	.loc 1 65 0 discriminator 1
	mr. 28,4
	beq- 0,.L1474
.LBB7194:
	.loc 1 68 0
	mr 3,28
	bl atoi
	.loc 1 71 0
	li 4,10
	.loc 1 68 0
	mr 26,3
.LVL724:
	.loc 1 71 0
	mr 3,28
.LVL725:
	bl strchr
.LVL726:
	.loc 1 72 0
	cmpwi 6,3,0
	mr 30,3
	beq- 6,.L1284
	neg 9,3
.LVL727:
.L1510:
	.loc 1 72 0 is_stmt 0 discriminator 2
	lbz 0,0(30)
	cmpwi 7,0,13
	beq- 7,.L1285
	.loc 1 72 0 discriminator 5
	cmpwi 7,0,10
	beq- 7,.L1285
	.loc 1 72 0 discriminator 6
	cmpwi 7,0,32
	beq- 7,.L1285
	.loc 1 74 0 is_stmt 1
	beq- 6,.L1284
	cmpwi 7,0,0
	bne- 7,.L1288
.LVL728:
.L1284:
	.loc 1 80 0
	mr 3,28
	bl free
.LVL729:
.L1283:
.LBE7194:
.LBE7193:
.LBB7229:
	.loc 1 83 0
	cmpw 7,26,24
	ble- 7,.L1475
.LBB7230:
	.loc 1 85 0
	beq- 4,.L1527
	.loc 1 49 0
	li 27,0
.LVL730:
.L1294:
	.loc 1 92 0
	lis 3,.LC32@ha
	addi 29,1,92
	la 3,.LC32@l(3)
	bl gettext
.LEHE207:
	mr 4,3
	mr 5,26
	addi 3,1,112
	crxor 6,6,6
	bl sprintf
.LVL731:
.L1513:
.LBB7231:
	.loc 1 97 0
	addi 3,1,88
	addi 4,1,112
	addi 5,1,36
.LEHB208:
	bl _ZNSsC1EPKcRKSaIcE
.LEHE208:
	.loc 1 97 0 is_stmt 0 discriminator 1
	lis 3,.LC33@ha
	la 3,.LC33@l(3)
.LEHB209:
	bl gettext
.LEHE209:
	mr 4,3
	addi 5,1,35
	addi 3,1,84
.LEHB210:
	bl _ZNSsC1EPKcRKSaIcE
.LEHE210:
	.loc 1 97 0 discriminator 3
	lis 30,Settings@ha
	la 30,Settings@l(30)
	lha 0,1258(30)
	cmpwi 7,0,0
	bne- 7,.L1296
	.loc 1 97 0 discriminator 5
	lwz 0,1284(30)
	andi. 9,0,256
	beq- 0,.L1296
	.loc 1 97 0
	lis 4,.LC25@ha
	la 4,.LC25@l(4)
.L1297:
	.loc 1 97 0 discriminator 8
	addi 3,1,80
	addi 5,1,34
.LEHB211:
	bl _ZNSsC1EPKcRKSaIcE
.LEHE211:
	.loc 1 97 0 discriminator 9
	lis 3,.LC35@ha
	la 3,.LC35@l(3)
.LEHB212:
	bl gettext
.LEHE212:
	mr 4,3
	addi 5,1,33
	addi 3,1,76
.LEHB213:
	bl _ZNSsC1EPKcRKSaIcE
.LEHE213:
	.loc 1 97 0 discriminator 11
	lis 3,.LC24@ha
	la 3,.LC24@l(3)
.LEHB214:
	bl gettext
.LEHE214:
	mr 4,3
	addi 5,1,32
	addi 3,1,72
.LEHB215:
	bl _ZNSsC1EPKcRKSaIcE
.LEHE215:
	.loc 1 97 0 discriminator 13
	lis 28,.LC25@ha
	addi 3,1,68
	la 28,.LC25@l(28)
	addi 5,1,31
	mr 4,28
.LEHB216:
	bl _ZNSsC1EPKcRKSaIcE
.LEHE216:
	.loc 1 97 0 discriminator 14
	mr 3,25
	addi 4,1,88
	addi 5,1,84
	addi 6,1,80
	addi 7,1,76
	addi 8,1,72
	addi 9,1,68
.LEHB217:
	bl _ZN12UpdateWindow6ChooseESsSsSsSsSsSs
.LEHE217:
.LBB7232:
.LBB7233:
.LBB7234:
.LBB7235:
.LBB7236:
.LBB7237:
	.loc 2 288 0 is_stmt 1 discriminator 14
	lwz 9,68(1)
.LBE7237:
.LBE7236:
.LBE7235:
.LBB7238:
.LBB7239:
	.loc 2 235 0 discriminator 14
	lis 31,_ZNSs4_Rep20_S_empty_rep_storageE@ha
.LBE7239:
.LBE7238:
.LBE7234:
.LBE7233:
.LBE7232:
	.loc 1 97 0 discriminator 14
	mr 29,3
.LVL732:
.LBB7256:
.LBB7254:
.LBB7252:
.LBB7249:
.LBB7246:
	.loc 2 235 0 discriminator 14
	la 31,_ZNSs4_Rep20_S_empty_rep_storageE@l(31)
.LBE7246:
.LBE7249:
	.loc 2 534 0 discriminator 14
	addi 3,9,-12
.LVL733:
.LBB7250:
.LBB7247:
	.loc 2 235 0 discriminator 14
	cmpw 7,3,31
	bne- 7,.L1528
.LVL734:
.L1305:
.LBE7247:
.LBE7250:
.LBE7252:
.LBE7254:
.LBE7256:
.LBB7257:
.LBB7258:
.LBB7259:
.LBB7260:
.LBB7261:
.LBB7262:
	.loc 2 288 0
	lwz 9,72(1)
.LBE7262:
.LBE7261:
.LBE7260:
	.loc 2 534 0
	addi 3,9,-12
.LVL735:
.LBB7263:
.LBB7264:
	.loc 2 235 0
	cmpw 7,3,31
	bne- 7,.L1529
.LVL736:
.L1313:
.LBE7264:
.LBE7263:
.LBE7259:
.LBE7258:
.LBE7257:
.LBB7275:
.LBB7276:
.LBB7277:
.LBB7278:
.LBB7279:
.LBB7280:
	.loc 2 288 0
	lwz 9,76(1)
.LBE7280:
.LBE7279:
.LBE7278:
	.loc 2 534 0
	addi 3,9,-12
.LVL737:
.LBB7281:
.LBB7282:
	.loc 2 235 0
	cmpw 7,3,31
	bne- 7,.L1530
.LVL738:
.L1321:
.LBE7282:
.LBE7281:
.LBE7277:
.LBE7276:
.LBE7275:
.LBB7293:
.LBB7294:
.LBB7295:
.LBB7296:
.LBB7297:
.LBB7298:
	.loc 2 288 0
	lwz 9,80(1)
.LBE7298:
.LBE7297:
.LBE7296:
	.loc 2 534 0
	addi 3,9,-12
.LVL739:
.LBB7299:
.LBB7300:
	.loc 2 235 0
	cmpw 7,3,31
	bne- 7,.L1531
.LVL740:
.L1329:
.LBE7300:
.LBE7299:
.LBE7295:
.LBE7294:
.LBE7293:
.LBB7311:
.LBB7312:
.LBB7313:
.LBB7314:
.LBB7315:
.LBB7316:
	.loc 2 288 0
	lwz 9,84(1)
.LBE7316:
.LBE7315:
.LBE7314:
	.loc 2 534 0
	addi 3,9,-12
.LVL741:
.LBB7317:
.LBB7318:
	.loc 2 235 0
	cmpw 7,3,31
	bne- 7,.L1532
.LVL742:
.L1337:
.LBE7318:
.LBE7317:
.LBE7313:
.LBE7312:
.LBE7311:
.LBB7329:
.LBB7330:
.LBB7331:
.LBB7332:
.LBB7333:
.LBB7334:
	.loc 2 288 0
	lwz 9,88(1)
.LBE7334:
.LBE7333:
.LBE7332:
	.loc 2 534 0
	addi 3,9,-12
.LVL743:
.LBB7335:
.LBB7336:
	.loc 2 235 0
	cmpw 7,3,31
	bne- 7,.L1533
.LVL744:
.L1345:
.LBE7336:
.LBE7335:
.LBE7331:
.LBE7330:
.LBE7329:
.LBB7347:
	.loc 1 98 0 discriminator 1
	cmpwi 7,29,1
	beq- 7,.L1534
.LBB7348:
	.loc 1 107 0
	cmpwi 7,29,2
	beq- 7,.L1535
.LBE7348:
.LBE7347:
.LBE7231:
	.loc 1 95 0
	cmpwi 7,29,3
	bne+ 7,.L1513
.LVL745:
.L1347:
.LBE7230:
.LBE7229:
	.loc 1 118 0
	cmpwi 7,27,0
	beq- 7,.L1293
.LBB7509:
.LBB7510:
	.loc 6 27 0
	lis 28,_ZN11Application8instanceE@ha
	lwz 29,_ZN11Application8instanceE@l(28)
	cmpwi 7,29,0
	beq- 7,.L1536
.L1405:
.LBE7510:
.LBE7509:
	.loc 1 120 0
	mr 3,29
	mr 4,25
	addi 29,1,92
.LEHB218:
	bl _ZN11Application13PushForDeleteEP10GuiElement
.LBB7512:
.LBB7513:
	.loc 6 27 0
	lwz 29,_ZN11Application8instanceE@l(28)
	cmpwi 7,29,0
	beq- 7,.L1537
.L1409:
.LBE7513:
.LBE7512:
	.loc 1 121 0
	lwz 9,0(29)
	mr 3,29
	addi 29,1,92
	lwz 0,216(9)
	mtctr 0
	bctrl
	b .L1293
.LVL746:
.L1548:
.LBB7516:
.LBB7227:
	.loc 1 74 0 discriminator 4
	cmpwi 7,0,13
	beq- 7,.L1284
	.loc 1 74 0 is_stmt 0 discriminator 5
	cmpwi 7,0,10
	addi 30,30,1
	beq- 7,.L1284
.LVL747:
.L1288:
.LBB7195:
.LBB7196:
.LBB7197:
.LBB7198:
.LBB7199:
.LBB7200:
.LBB7201:
	.loc 2 288 0 is_stmt 1 discriminator 7
	lwz 9,92(1)
.LBE7201:
.LBE7200:
.LBE7199:
.LBE7198:
.LBE7197:
.LBE7196:
.LBE7195:
	.loc 1 76 0 discriminator 7
	lbz 31,0(30)
.LVL748:
.LBB7224:
.LBB7221:
.LBB7203:
.LBB7202:
	.loc 2 711 0 discriminator 7
	lwz 11,-12(9)
.LBE7202:
.LBE7203:
	.loc 2 1046 0 discriminator 7
	lwz 0,-8(9)
	.loc 2 1045 0 discriminator 7
	addi 27,11,1
.LVL749:
	.loc 2 1046 0 discriminator 7
	cmplw 7,27,0
	ble- 7,.L1538
.L1291:
	.loc 1 76 0
	addi 29,1,92
	.loc 2 1047 0
	mr 4,27
	mr 3,29
	bl _ZNSs7reserveEj
.LEHE218:
	lwz 9,92(1)
	lwz 11,-12(9)
.L1289:
.LVL750:
.LBB7204:
.LBB7205:
	.file 7 "d:\\devkitpro\\devkitppc\\bin\\../lib/gcc/powerpc-eabi/4.6.3/../../../../powerpc-eabi/include/c++/4.6.3/bits/char_traits.h"
	.loc 7 245 0
	stbx 31,9,11
.LVL751:
.LBE7205:
.LBE7204:
.LBB7206:
.LBB7207:
	.loc 2 205 0
	lis 31,_ZNSs4_Rep20_S_empty_rep_storageE@ha
.LVL752:
	la 31,_ZNSs4_Rep20_S_empty_rep_storageE@l(31)
.LBE7207:
.LBE7206:
.LBB7216:
.LBB7217:
.LBB7218:
	.loc 2 288 0
	lwz 9,92(1)
.LVL753:
.LBE7218:
.LBE7217:
.LBE7216:
	.loc 2 1049 0
	addi 0,9,-12
.LBB7219:
.LBB7214:
	.loc 2 205 0
	cmpw 7,0,31
	bne- 7,.L1539
.L1290:
.LBE7214:
.LBE7219:
.LBE7221:
.LBE7224:
	.loc 1 74 0
	cmpwi 7,30,-1
	beq- 7,.L1284
	.loc 1 74 0 is_stmt 0 discriminator 2
	lbz 0,1(30)
	cmpwi 7,0,0
	beq- 7,.L1284
	b .L1548
.LVL754:
.L1538:
.LBB7225:
.LBB7222:
	.loc 2 1046 0 is_stmt 1
	lwz 0,-4(9)
	cmpwi 7,0,0
	bgt+ 7,.L1291
	b .L1289
.LVL755:
.L1285:
.LBE7222:
.LBE7225:
	.loc 1 72 0 discriminator 7
	addic. 9,9,-1
	addi 30,30,1
.LVL756:
	cmpwi 6,30,0
	bne+ 0,.L1510
	b .L1284
.LVL757:
.L1475:
	lis 31,_ZNSs4_Rep20_S_empty_rep_storageE@ha
	lis 30,Settings@ha
.LBE7227:
.LBE7516:
.LBB7517:
	.loc 1 116 0
	li 26,0
.LVL758:
	la 31,_ZNSs4_Rep20_S_empty_rep_storageE@l(31)
	la 30,Settings@l(30)
.LVL759:
.L1293:
.LBE7517:
.LBB7518:
.LBB7519:
.LBB7520:
.LBB7521:
.LBB7522:
.LBB7523:
	.loc 2 288 0
	lwz 9,92(1)
.LBE7523:
.LBE7522:
.LBE7521:
.LBE7520:
.LBE7519:
.LBE7518:
	.loc 1 124 0
	li 0,1
	stb 0,94(30)
.LVL760:
.LBB7538:
.LBB7536:
.LBB7534:
	.loc 2 534 0
	addi 3,9,-12
.LVL761:
.LBB7524:
.LBB7525:
	.loc 2 235 0
	cmpw 7,3,31
	bne- 7,.L1541
.LVL762:
.L1415:
.LBE7525:
.LBE7524:
.LBE7534:
.LBE7536:
.LBE7538:
.LBE7554:
	.loc 1 126 0
	lwz 0,260(1)
	mr 3,26
	lwz 12,220(1)
	mtlr 0
	lwz 24,224(1)
	lwz 25,228(1)
.LVL763:
	mtcrf 8,12
	lwz 26,232(1)
	lwz 27,236(1)
	lwz 28,240(1)
	lwz 29,244(1)
	lwz 30,248(1)
	lwz 31,252(1)
	addi 1,1,256
	.cfi_remember_state
.LCFI45:
	.cfi_def_cfa_offset 0
	.cfi_restore 70
	.cfi_restore 31
	.cfi_restore 30
	.cfi_restore 29
	.cfi_restore 28
	.cfi_restore 27
	.cfi_restore 26
	.cfi_restore 25
	.cfi_restore 24
	blr
.LVL764:
.L1296:
.LCFI46:
	.cfi_restore_state
.LBB7555:
.LBB7539:
.LBB7503:
.LBB7497:
	.loc 1 97 0 discriminator 4
	lis 3,.LC34@ha
	la 3,.LC34@l(3)
.LEHB219:
	bl gettext
.LEHE219:
	mr 4,3
	b .L1297
.LVL765:
.L1535:
.LBB7486:
.LBB7366:
.LBB7349:
	.loc 1 109 0
	addi 3,1,104
	mr 4,25
	addi 29,1,92
.LVL766:
.LEHB220:
	bl _ZN9ChangeLogC1EP12UpdateWindow
.LEHE220:
	.loc 1 110 0
	addi 3,1,104
.LEHB221:
	bl _ZN9ChangeLog4ShowEv
	cmpwi 7,3,0
	bne+ 7,.L1513
	.loc 1 111 0
	lis 3,.LC39@ha
	la 3,.LC39@l(3)
	bl gettext
.LEHE221:
	mr 4,3
	addi 5,1,24
	addi 3,1,40
.LEHB222:
	bl _ZNSsC1EPKcRKSaIcE
.LEHE222:
	.loc 1 111 0 is_stmt 0 discriminator 2
	mr 3,25
	addi 4,1,40
.LEHB223:
	bl _ZN12UpdateWindow9ShowErrorESs
.LEHE223:
.LVL767:
.LBB7350:
.LBB7351:
.LBB7352:
.LBB7353:
.LBB7354:
.LBB7355:
	.loc 2 288 0 is_stmt 1
	lwz 9,40(1)
.LBE7355:
.LBE7354:
.LBE7353:
	.loc 2 534 0
	addi 3,9,-12
.LVL768:
.LBB7356:
.LBB7357:
	.loc 2 235 0
	cmpw 7,3,31
	beq+ 7,.L1513
.LVL769:
.LBB7358:
.LBB7359:
.LBB7360:
	.loc 3 66 0
	lwz 11,-4(9)
.LVL770:
.LBE7360:
.LBE7359:
.LBE7358:
	.loc 2 240 0
	cmpwi 7,11,0
.LBB7363:
.LBB7362:
.LBB7361:
	.loc 3 67 0
	addi 11,11,-1
	stw 11,-4(9)
.LBE7361:
.LBE7362:
.LBE7363:
	.loc 2 240 0
	bgt+ 7,.L1513
	.loc 2 244 0
	addi 4,1,9
	bl _ZNSs4_Rep10_M_destroyERKSaIcE
.LVL771:
	b .L1513
.LVL772:
.L1474:
.LBE7357:
.LBE7356:
.LBE7352:
.LBE7351:
.LBE7350:
.LBE7349:
.LBE7366:
.LBE7486:
.LBE7497:
.LBE7503:
.LBE7539:
.LBB7540:
	.loc 1 60 0
	li 26,0
	b .L1283
.LVL773:
.L1527:
.LBE7540:
.LBB7541:
.LBB7504:
	.loc 1 87 0
	li 3,332
	addi 29,1,92
.LEHB224:
	bl _Znwj
.LEHE224:
	mr 25,3
.LVL774:
.LEHB225:
	bl _ZN12UpdateWindowC1Ev
.LEHE225:
	.loc 1 88 0
	li 27,1
	b .L1294
.LVL775:
.L1473:
.LBE7504:
.LBE7541:
	.loc 1 54 0
	li 26,-1
	b .L1415
.LVL776:
.L1534:
.LBB7542:
.LBB7505:
.LBB7498:
.LBB7487:
	.loc 1 100 0
	mr 29,1
.LVL777:
	mr 4,25
	lwzu 3,92(29)
.LEHB226:
	bl _Z9UpdateAppPKcP12UpdateWindow
	cmpwi 7,3,0
	blt- 7,.L1347
	.loc 1 102 0
	lis 3,.LC36@ha
	addi 29,1,92
	la 3,.LC36@l(3)
	bl gettext
.LEHE226:
	mr 4,3
	addi 5,1,30
	addi 3,1,64
.LEHB227:
	bl _ZNSsC1EPKcRKSaIcE
.LEHE227:
	.loc 1 102 0 is_stmt 0 discriminator 2
	lis 3,.LC37@ha
	la 3,.LC37@l(3)
.LEHB228:
	bl gettext
.LEHE228:
	mr 4,3
	addi 5,1,29
	addi 3,1,60
.LEHB229:
	bl _ZNSsC1EPKcRKSaIcE
.LEHE229:
	.loc 1 102 0 discriminator 4
	lis 3,.LC34@ha
	la 3,.LC34@l(3)
.LEHB230:
	bl gettext
.LEHE230:
	mr 4,3
	addi 5,1,28
	addi 3,1,56
.LEHB231:
	bl _ZNSsC1EPKcRKSaIcE
.LEHE231:
	.loc 1 102 0 discriminator 6
	lis 3,.LC38@ha
	la 3,.LC38@l(3)
.LEHB232:
	bl gettext
.LEHE232:
	mr 4,3
	addi 5,1,27
	addi 3,1,52
.LEHB233:
	bl _ZNSsC1EPKcRKSaIcE
.LEHE233:
	.loc 1 102 0 discriminator 8
	addi 3,1,48
	mr 4,28
	addi 5,1,26
.LEHB234:
	bl _ZNSsC1EPKcRKSaIcE
.LEHE234:
	.loc 1 102 0 discriminator 9
	addi 3,1,44
	mr 4,28
	addi 5,1,25
.LEHB235:
	bl _ZNSsC1EPKcRKSaIcE
.LEHE235:
	.loc 1 102 0 discriminator 10
	mr 3,25
	addi 4,1,64
	addi 5,1,60
	addi 6,1,56
	addi 7,1,52
	addi 8,1,48
	addi 9,1,44
.LEHB236:
	bl _ZN12UpdateWindow6ChooseESsSsSsSsSsSs
.LEHE236:
.LBB7367:
.LBB7368:
.LBB7369:
.LBB7370:
.LBB7371:
.LBB7372:
	.loc 2 288 0 is_stmt 1 discriminator 10
	lwz 9,44(1)
.LBE7372:
.LBE7371:
.LBE7370:
.LBE7369:
.LBE7368:
.LBE7367:
	.loc 1 102 0 discriminator 10
	mr 29,3
.LVL778:
.LBB7387:
.LBB7385:
.LBB7383:
	.loc 2 534 0 discriminator 10
	addi 3,9,-12
.LVL779:
.LBB7373:
.LBB7374:
	.loc 2 235 0 discriminator 10
	cmpw 7,3,31
	bne- 7,.L1542
.LVL780:
.L1355:
.LBE7374:
.LBE7373:
.LBE7383:
.LBE7385:
.LBE7387:
.LBB7388:
.LBB7389:
.LBB7390:
.LBB7391:
.LBB7392:
.LBB7393:
	.loc 2 288 0
	lwz 9,48(1)
.LBE7393:
.LBE7392:
.LBE7391:
	.loc 2 534 0
	addi 3,9,-12
.LVL781:
.LBB7394:
.LBB7395:
	.loc 2 235 0
	cmpw 7,3,31
	bne- 7,.L1543
.LVL782:
.L1363:
.LBE7395:
.LBE7394:
.LBE7390:
.LBE7389:
.LBE7388:
.LBB7406:
.LBB7407:
.LBB7408:
.LBB7409:
.LBB7410:
.LBB7411:
	.loc 2 288 0
	lwz 9,52(1)
.LBE7411:
.LBE7410:
.LBE7409:
	.loc 2 534 0
	addi 3,9,-12
.LVL783:
.LBB7412:
.LBB7413:
	.loc 2 235 0
	cmpw 7,3,31
	bne- 7,.L1544
.LVL784:
.L1371:
.LBE7413:
.LBE7412:
.LBE7408:
.LBE7407:
.LBE7406:
.LBB7424:
.LBB7425:
.LBB7426:
.LBB7427:
.LBB7428:
.LBB7429:
	.loc 2 288 0
	lwz 9,56(1)
.LBE7429:
.LBE7428:
.LBE7427:
	.loc 2 534 0
	addi 3,9,-12
.LVL785:
.LBB7430:
.LBB7431:
	.loc 2 235 0
	cmpw 7,3,31
	bne- 7,.L1545
.LVL786:
.L1379:
.LBE7431:
.LBE7430:
.LBE7426:
.LBE7425:
.LBE7424:
.LBB7442:
.LBB7443:
.LBB7444:
.LBB7445:
.LBB7446:
.LBB7447:
	.loc 2 288 0
	lwz 9,60(1)
.LBE7447:
.LBE7446:
.LBE7445:
	.loc 2 534 0
	addi 3,9,-12
.LVL787:
.LBB7448:
.LBB7449:
	.loc 2 235 0
	cmpw 7,3,31
	bne- 7,.L1546
.LVL788:
.L1387:
.LBE7449:
.LBE7448:
.LBE7444:
.LBE7443:
.LBE7442:
.LBB7460:
.LBB7461:
.LBB7462:
.LBB7463:
.LBB7464:
.LBB7465:
	.loc 2 288 0
	lwz 9,64(1)
.LBE7465:
.LBE7464:
.LBE7463:
	.loc 2 534 0
	addi 3,9,-12
.LVL789:
.LBB7466:
.LBB7467:
	.loc 2 235 0
	cmpw 7,3,31
	bne- 7,.L1547
.LVL790:
.L1395:
.LBE7467:
.LBE7466:
.LBE7462:
.LBE7461:
.LBE7460:
	.loc 1 102 0 discriminator 11
	cmpwi 7,29,1
	bne+ 7,.L1347
	addi 29,1,92
.LEHB237:
	.loc 1 103 0
	bl RebootApp
	b .L1347
.LVL791:
.L1537:
.LBE7487:
.LBE7498:
.LBE7505:
.LBE7542:
.LBB7543:
.LBB7514:
	.loc 6 27 0
	li 3,632
	addi 29,1,92
	bl _Znwj
.LEHE237:
	mr 29,3
.LEHB238:
	bl _ZN11ApplicationC1Ev
.LEHE238:
	stw 29,_ZN11Application8instanceE@l(28)
	b .L1409
.L1536:
.LBE7514:
.LBE7543:
.LBB7544:
.LBB7511:
	li 3,632
	addi 29,1,92
.LEHB239:
	bl _Znwj
.LEHE239:
	mr 29,3
.LEHB240:
	bl _ZN11ApplicationC1Ev
.LEHE240:
	stw 29,_ZN11Application8instanceE@l(28)
	b .L1405
.LVL792:
.L1539:
.LBE7511:
.LBE7544:
.LBB7545:
.LBB7228:
.LBB7226:
.LBB7223:
.LBB7220:
.LBB7215:
.LBB7208:
.LBB7209:
	.loc 2 199 0
	li 0,0
.LVL793:
.LBE7209:
.LBE7208:
	.loc 2 209 0
	stw 27,-12(9)
.LVL794:
.LBB7211:
.LBB7210:
	.loc 2 199 0
	stw 0,-4(9)
.LBE7210:
.LBE7211:
.LBB7212:
.LBB7213:
	.loc 7 245 0
	stbx 0,9,27
	b .L1290
.LVL795:
.L1531:
.LBE7213:
.LBE7212:
.LBE7215:
.LBE7220:
.LBE7223:
.LBE7226:
.LBE7228:
.LBE7545:
.LBB7546:
.LBB7506:
.LBB7499:
.LBB7488:
.LBB7310:
.LBB7309:
.LBB7308:
.LBB7307:
.LBB7301:
.LBB7302:
.LBB7303:
	.loc 3 66 0
	lwz 11,-4(9)
.LVL796:
.LBE7303:
.LBE7302:
.LBE7301:
	.loc 2 240 0
	cmpwi 7,11,0
.LBB7306:
.LBB7305:
.LBB7304:
	.loc 3 67 0
	addi 11,11,-1
	stw 11,-4(9)
.LBE7304:
.LBE7305:
.LBE7306:
	.loc 2 240 0
	bgt+ 7,.L1329
	.loc 2 244 0
	addi 4,1,18
	bl _ZNSs4_Rep10_M_destroyERKSaIcE
.LVL797:
	b .L1329
.LVL798:
.L1533:
.LBE7307:
.LBE7308:
.LBE7309:
.LBE7310:
.LBE7488:
.LBB7489:
.LBB7346:
.LBB7345:
.LBB7344:
.LBB7343:
.LBB7337:
.LBB7338:
.LBB7339:
	.loc 3 66 0
	lwz 11,-4(9)
.LVL799:
.LBE7339:
.LBE7338:
.LBE7337:
	.loc 2 240 0
	cmpwi 7,11,0
.LBB7342:
.LBB7341:
.LBB7340:
	.loc 3 67 0
	addi 11,11,-1
	stw 11,-4(9)
.LBE7340:
.LBE7341:
.LBE7342:
	.loc 2 240 0
	bgt+ 7,.L1345
	.loc 2 244 0
	addi 4,1,16
	bl _ZNSs4_Rep10_M_destroyERKSaIcE
.LVL800:
	b .L1345
.LVL801:
.L1528:
.LBE7343:
.LBE7344:
.LBE7345:
.LBE7346:
.LBE7489:
.LBB7490:
.LBB7255:
.LBB7253:
.LBB7251:
.LBB7248:
.LBB7240:
.LBB7241:
.LBB7242:
	.loc 3 66 0
	lwz 11,-4(9)
.LVL802:
.LBE7242:
.LBE7241:
.LBE7240:
	.loc 2 240 0
	cmpwi 7,11,0
.LBB7245:
.LBB7244:
.LBB7243:
	.loc 3 67 0
	addi 11,11,-1
	stw 11,-4(9)
.LBE7243:
.LBE7244:
.LBE7245:
	.loc 2 240 0
	bgt+ 7,.L1305
	.loc 2 244 0
	addi 4,1,21
	bl _ZNSs4_Rep10_M_destroyERKSaIcE
.LVL803:
	b .L1305
.LVL804:
.L1529:
.LBE7248:
.LBE7251:
.LBE7253:
.LBE7255:
.LBE7490:
.LBB7491:
.LBB7274:
.LBB7273:
.LBB7272:
.LBB7271:
.LBB7265:
.LBB7266:
.LBB7267:
	.loc 3 66 0
	lwz 11,-4(9)
.LVL805:
.LBE7267:
.LBE7266:
.LBE7265:
	.loc 2 240 0
	cmpwi 7,11,0
.LBB7270:
.LBB7269:
.LBB7268:
	.loc 3 67 0
	addi 11,11,-1
	stw 11,-4(9)
.LBE7268:
.LBE7269:
.LBE7270:
	.loc 2 240 0
	bgt+ 7,.L1313
	.loc 2 244 0
	addi 4,1,20
	bl _ZNSs4_Rep10_M_destroyERKSaIcE
.LVL806:
	b .L1313
.LVL807:
.L1530:
.LBE7271:
.LBE7272:
.LBE7273:
.LBE7274:
.LBE7491:
.LBB7492:
.LBB7292:
.LBB7291:
.LBB7290:
.LBB7289:
.LBB7283:
.LBB7284:
.LBB7285:
	.loc 3 66 0
	lwz 11,-4(9)
.LVL808:
.LBE7285:
.LBE7284:
.LBE7283:
	.loc 2 240 0
	cmpwi 7,11,0
.LBB7288:
.LBB7287:
.LBB7286:
	.loc 3 67 0
	addi 11,11,-1
	stw 11,-4(9)
.LBE7286:
.LBE7287:
.LBE7288:
	.loc 2 240 0
	bgt+ 7,.L1321
	.loc 2 244 0
	addi 4,1,19
	bl _ZNSs4_Rep10_M_destroyERKSaIcE
.LVL809:
	b .L1321
.LVL810:
.L1532:
.LBE7289:
.LBE7290:
.LBE7291:
.LBE7292:
.LBE7492:
.LBB7493:
.LBB7328:
.LBB7327:
.LBB7326:
.LBB7325:
.LBB7319:
.LBB7320:
.LBB7321:
	.loc 3 66 0
	lwz 11,-4(9)
.LVL811:
.LBE7321:
.LBE7320:
.LBE7319:
	.loc 2 240 0
	cmpwi 7,11,0
.LBB7324:
.LBB7323:
.LBB7322:
	.loc 3 67 0
	addi 11,11,-1
	stw 11,-4(9)
.LBE7322:
.LBE7323:
.LBE7324:
	.loc 2 240 0
	bgt+ 7,.L1337
	.loc 2 244 0
	addi 4,1,17
	bl _ZNSs4_Rep10_M_destroyERKSaIcE
.LVL812:
	b .L1337
.LVL813:
.L1486:
.L1519:
	mr 31,3
.LBE7325:
.LBE7326:
.LBE7327:
.LBE7328:
.LBE7493:
	.loc 1 97 0
	addi 3,1,84
	bl _ZNSsD1Ev
	mr 3,31
.L1520:
	mr 31,3
	addi 3,1,88
	bl _ZNSsD1Ev
	mr 3,31
.L1472:
.LBB7494:
.LBB7478:
.LBB7364:
	.loc 1 111 0
	mr 31,3
	addi 29,1,92
.LVL814:
.L1408:
.LBE7364:
.LBE7478:
.LBE7494:
.LBE7499:
.LBE7506:
.LBE7546:
	.loc 1 125 0
	mr 3,29
	bl _ZNSsD1Ev
	mr 3,31
.LEHB241:
	bl _Unwind_Resume
.LVL815:
.L1508:
.L1524:
	mr 31,3
.LBB7547:
.LBB7515:
	.loc 6 27 0
	mr 3,29
	bl _ZdlPv
	addi 29,1,92
	b .L1408
.L1507:
	b .L1524
.LVL816:
.L1480:
	mr 31,3
.LBE7515:
.LBE7547:
	.loc 1 56 0
	addi 3,1,96
	bl _ZNSsD1Ev
	mr 3,31
.L1516:
	mr 31,3
	addi 3,1,100
	bl _ZNSsD1Ev
	mr 3,31
	bl _Unwind_Resume
.LEHE241:
.L1479:
	b .L1516
.LVL817:
.L1490:
.L1517:
	mr 31,3
.LBB7548:
.LBB7507:
.LBB7500:
	.loc 1 97 0
	addi 3,1,76
	bl _ZNSsD1Ev
	mr 3,31
.L1518:
	mr 31,3
	addi 3,1,80
	bl _ZNSsD1Ev
	mr 3,31
	b .L1519
.L1491:
	b .L1517
.L1492:
	mr 31,3
.L1425:
	addi 3,1,72
	bl _ZNSsD1Ev
	mr 3,31
	b .L1517
.L1493:
	mr 31,3
	addi 3,1,68
	bl _ZNSsD1Ev
	b .L1425
.LVL818:
.L1482:
	mr 31,3
.LBE7500:
	.loc 1 87 0
	mr 3,25
	bl _ZdlPv
	addi 29,1,92
	b .L1408
.LVL819:
.L1506:
	mr 31,3
.LBB7501:
.LBB7495:
.LBB7479:
.LBB7365:
	.loc 1 111 0
	addi 3,1,40
	bl _ZNSsD1Ev
	mr 3,31
	b .L1472
.L1505:
	b .L1472
.LVL820:
.L1485:
	b .L1520
.L1487:
	b .L1519
.L1488:
	b .L1518
.L1489:
	b .L1518
.L1483:
	b .L1472
.L1484:
	b .L1520
.LVL821:
.L1541:
.LBE7365:
.LBE7479:
.LBE7495:
.LBE7501:
.LBE7507:
.LBE7548:
.LBB7549:
.LBB7537:
.LBB7535:
.LBB7533:
.LBB7532:
.LBB7526:
.LBB7527:
.LBB7528:
	.loc 3 66 0
	lwz 11,-4(9)
.LVL822:
.LBE7528:
.LBE7527:
.LBE7526:
	.loc 2 240 0
	cmpwi 7,11,0
.LBB7531:
.LBB7530:
.LBB7529:
	.loc 3 67 0
	addi 11,11,-1
	stw 11,-4(9)
.LBE7529:
.LBE7530:
.LBE7531:
	.loc 2 240 0
	bgt+ 7,.L1415
	.loc 2 244 0
	addi 4,1,8
	bl _ZNSs4_Rep10_M_destroyERKSaIcE
.LVL823:
	b .L1415
.LVL824:
.L1504:
	b .L1472
.LVL825:
.L1478:
	b .L1516
.LVL826:
.L1481:
	mr 31,3
	b .L1408
.LVL827:
.L1526:
.LBE7532:
.LBE7533:
.LBE7535:
.LBE7537:
.LBE7549:
.LBB7550:
.LBB7189:
.LBB7188:
.LBB7187:
.LBB7186:
.LBB7180:
.LBB7181:
.LBB7182:
	.loc 3 66 0
	lwz 11,-4(9)
.LVL828:
.LBE7182:
.LBE7181:
.LBE7180:
	.loc 2 240 0
	cmpwi 7,11,0
.LBB7185:
.LBB7184:
.LBB7183:
	.loc 3 67 0
	addi 11,11,-1
	stw 11,-4(9)
.LBE7183:
.LBE7184:
.LBE7185:
	.loc 2 240 0
	bgt+ 7,.L1280
	.loc 2 244 0
	addi 4,1,22
	bl _ZNSs4_Rep10_M_destroyERKSaIcE
.LVL829:
	b .L1280
.LVL830:
.L1525:
.LBE7186:
.LBE7187:
.LBE7188:
.LBE7189:
.LBE7550:
.LBB7551:
.LBB7171:
.LBB7170:
.LBB7169:
.LBB7167:
.LBB7160:
.LBB7161:
.LBB7162:
	.loc 3 66 0
	lwz 11,-4(9)
.LVL831:
.LBE7162:
.LBE7161:
.LBE7160:
	.loc 2 240 0
	cmpwi 7,11,0
.LBB7165:
.LBB7164:
.LBB7163:
	.loc 3 67 0
	addi 11,11,-1
	stw 11,-4(9)
.LBE7163:
.LBE7164:
.LBE7165:
	.loc 2 240 0
	bgt+ 7,.L1273
	.loc 2 244 0
	addi 4,1,23
	bl _ZNSs4_Rep10_M_destroyERKSaIcE
.LVL832:
	b .L1273
.LVL833:
.L1547:
.LBE7167:
.LBE7169:
.LBE7170:
.LBE7171:
.LBE7551:
.LBB7552:
.LBB7508:
.LBB7502:
.LBB7496:
.LBB7480:
.LBB7477:
.LBB7476:
.LBB7475:
.LBB7474:
.LBB7468:
.LBB7469:
.LBB7470:
	.loc 3 66 0
	lwz 11,-4(9)
.LVL834:
.LBE7470:
.LBE7469:
.LBE7468:
	.loc 2 240 0
	cmpwi 7,11,0
.LBB7473:
.LBB7472:
.LBB7471:
	.loc 3 67 0
	addi 11,11,-1
	stw 11,-4(9)
.LBE7471:
.LBE7472:
.LBE7473:
	.loc 2 240 0
	bgt+ 7,.L1395
	.loc 2 244 0
	addi 4,1,10
	bl _ZNSs4_Rep10_M_destroyERKSaIcE
.LVL835:
	b .L1395
.LVL836:
.L1546:
.LBE7474:
.LBE7475:
.LBE7476:
.LBE7477:
.LBE7480:
.LBB7481:
.LBB7459:
.LBB7458:
.LBB7457:
.LBB7456:
.LBB7450:
.LBB7451:
.LBB7452:
	.loc 3 66 0
	lwz 11,-4(9)
.LVL837:
.LBE7452:
.LBE7451:
.LBE7450:
	.loc 2 240 0
	cmpwi 7,11,0
.LBB7455:
.LBB7454:
.LBB7453:
	.loc 3 67 0
	addi 11,11,-1
	stw 11,-4(9)
.LBE7453:
.LBE7454:
.LBE7455:
	.loc 2 240 0
	bgt+ 7,.L1387
	.loc 2 244 0
	addi 4,1,11
	bl _ZNSs4_Rep10_M_destroyERKSaIcE
.LVL838:
	b .L1387
.LVL839:
.L1545:
.LBE7456:
.LBE7457:
.LBE7458:
.LBE7459:
.LBE7481:
.LBB7482:
.LBB7441:
.LBB7440:
.LBB7439:
.LBB7438:
.LBB7432:
.LBB7433:
.LBB7434:
	.loc 3 66 0
	lwz 11,-4(9)
.LVL840:
.LBE7434:
.LBE7433:
.LBE7432:
	.loc 2 240 0
	cmpwi 7,11,0
.LBB7437:
.LBB7436:
.LBB7435:
	.loc 3 67 0
	addi 11,11,-1
	stw 11,-4(9)
.LBE7435:
.LBE7436:
.LBE7437:
	.loc 2 240 0
	bgt+ 7,.L1379
	.loc 2 244 0
	addi 4,1,12
	bl _ZNSs4_Rep10_M_destroyERKSaIcE
.LVL841:
	b .L1379
.LVL842:
.L1544:
.LBE7438:
.LBE7439:
.LBE7440:
.LBE7441:
.LBE7482:
.LBB7483:
.LBB7423:
.LBB7422:
.LBB7421:
.LBB7420:
.LBB7414:
.LBB7415:
.LBB7416:
	.loc 3 66 0
	lwz 11,-4(9)
.LVL843:
.LBE7416:
.LBE7415:
.LBE7414:
	.loc 2 240 0
	cmpwi 7,11,0
.LBB7419:
.LBB7418:
.LBB7417:
	.loc 3 67 0
	addi 11,11,-1
	stw 11,-4(9)
.LBE7417:
.LBE7418:
.LBE7419:
	.loc 2 240 0
	bgt+ 7,.L1371
	.loc 2 244 0
	addi 4,1,13
	bl _ZNSs4_Rep10_M_destroyERKSaIcE
.LVL844:
	b .L1371
.LVL845:
.L1543:
.LBE7420:
.LBE7421:
.LBE7422:
.LBE7423:
.LBE7483:
.LBB7484:
.LBB7405:
.LBB7404:
.LBB7403:
.LBB7402:
.LBB7396:
.LBB7397:
.LBB7398:
	.loc 3 66 0
	lwz 11,-4(9)
.LVL846:
.LBE7398:
.LBE7397:
.LBE7396:
	.loc 2 240 0
	cmpwi 7,11,0
.LBB7401:
.LBB7400:
.LBB7399:
	.loc 3 67 0
	addi 11,11,-1
	stw 11,-4(9)
.LBE7399:
.LBE7400:
.LBE7401:
	.loc 2 240 0
	bgt+ 7,.L1363
	.loc 2 244 0
	addi 4,1,14
	bl _ZNSs4_Rep10_M_destroyERKSaIcE
.LVL847:
	b .L1363
.LVL848:
.L1542:
.LBE7402:
.LBE7403:
.LBE7404:
.LBE7405:
.LBE7484:
.LBB7485:
.LBB7386:
.LBB7384:
.LBB7382:
.LBB7381:
.LBB7375:
.LBB7376:
.LBB7377:
	.loc 3 66 0
	lwz 11,-4(9)
.LVL849:
.LBE7377:
.LBE7376:
.LBE7375:
	.loc 2 240 0
	cmpwi 7,11,0
.LBB7380:
.LBB7379:
.LBB7378:
	.loc 3 67 0
	addi 11,11,-1
	stw 11,-4(9)
.LBE7378:
.LBE7379:
.LBE7380:
	.loc 2 240 0
	bgt+ 7,.L1355
	.loc 2 244 0
	addi 4,1,15
	bl _ZNSs4_Rep10_M_destroyERKSaIcE
.LVL850:
	b .L1355
.LVL851:
.L1503:
	mr 31,3
.LBE7381:
.LBE7382:
.LBE7384:
.LBE7386:
.LBE7485:
	.loc 1 102 0
	addi 3,1,44
	bl _ZNSsD1Ev
.L1448:
	addi 3,1,48
	bl _ZNSsD1Ev
.L1451:
	addi 3,1,52
	bl _ZNSsD1Ev
	mr 3,31
.L1521:
	mr 31,3
	addi 3,1,56
	bl _ZNSsD1Ev
	mr 3,31
.L1522:
	mr 31,3
	addi 3,1,60
	bl _ZNSsD1Ev
	mr 3,31
.L1523:
	mr 31,3
	addi 3,1,64
	bl _ZNSsD1Ev
	mr 3,31
	b .L1472
.L1502:
	mr 31,3
	b .L1448
.L1501:
	mr 31,3
	b .L1451
.L1500:
	b .L1521
.L1499:
	b .L1521
.L1498:
	b .L1522
.L1497:
	b .L1522
.L1496:
	b .L1523
.L1495:
	b .L1523
.L1494:
	b .L1472
.LBE7496:
.LBE7502:
.LBE7508:
.LBE7552:
.LBE7555:
	.cfi_endproc
.LFE1501:
	.section	.gcc_except_table
.LLSDA1501:
	.byte	0xff
	.byte	0xff
	.byte	0x1
	.uleb128 .LLSDACSE1501-.LLSDACSB1501
.LLSDACSB1501:
	.uleb128 .LEHB203-.LFB1501
	.uleb128 .LEHE203-.LEHB203
	.uleb128 0
	.uleb128 0
	.uleb128 .LEHB204-.LFB1501
	.uleb128 .LEHE204-.LEHB204
	.uleb128 .L1478-.LFB1501
	.uleb128 0
	.uleb128 .LEHB205-.LFB1501
	.uleb128 .LEHE205-.LEHB205
	.uleb128 .L1479-.LFB1501
	.uleb128 0
	.uleb128 .LEHB206-.LFB1501
	.uleb128 .LEHE206-.LEHB206
	.uleb128 .L1480-.LFB1501
	.uleb128 0
	.uleb128 .LEHB207-.LFB1501
	.uleb128 .LEHE207-.LEHB207
	.uleb128 .L1481-.LFB1501
	.uleb128 0
	.uleb128 .LEHB208-.LFB1501
	.uleb128 .LEHE208-.LEHB208
	.uleb128 .L1483-.LFB1501
	.uleb128 0
	.uleb128 .LEHB209-.LFB1501
	.uleb128 .LEHE209-.LEHB209
	.uleb128 .L1484-.LFB1501
	.uleb128 0
	.uleb128 .LEHB210-.LFB1501
	.uleb128 .LEHE210-.LEHB210
	.uleb128 .L1485-.LFB1501
	.uleb128 0
	.uleb128 .LEHB211-.LFB1501
	.uleb128 .LEHE211-.LEHB211
	.uleb128 .L1487-.LFB1501
	.uleb128 0
	.uleb128 .LEHB212-.LFB1501
	.uleb128 .LEHE212-.LEHB212
	.uleb128 .L1488-.LFB1501
	.uleb128 0
	.uleb128 .LEHB213-.LFB1501
	.uleb128 .LEHE213-.LEHB213
	.uleb128 .L1489-.LFB1501
	.uleb128 0
	.uleb128 .LEHB214-.LFB1501
	.uleb128 .LEHE214-.LEHB214
	.uleb128 .L1490-.LFB1501
	.uleb128 0
	.uleb128 .LEHB215-.LFB1501
	.uleb128 .LEHE215-.LEHB215
	.uleb128 .L1491-.LFB1501
	.uleb128 0
	.uleb128 .LEHB216-.LFB1501
	.uleb128 .LEHE216-.LEHB216
	.uleb128 .L1492-.LFB1501
	.uleb128 0
	.uleb128 .LEHB217-.LFB1501
	.uleb128 .LEHE217-.LEHB217
	.uleb128 .L1493-.LFB1501
	.uleb128 0
	.uleb128 .LEHB218-.LFB1501
	.uleb128 .LEHE218-.LEHB218
	.uleb128 .L1481-.LFB1501
	.uleb128 0
	.uleb128 .LEHB219-.LFB1501
	.uleb128 .LEHE219-.LEHB219
	.uleb128 .L1486-.LFB1501
	.uleb128 0
	.uleb128 .LEHB220-.LFB1501
	.uleb128 .LEHE220-.LEHB220
	.uleb128 .L1481-.LFB1501
	.uleb128 0
	.uleb128 .LEHB221-.LFB1501
	.uleb128 .LEHE221-.LEHB221
	.uleb128 .L1504-.LFB1501
	.uleb128 0
	.uleb128 .LEHB222-.LFB1501
	.uleb128 .LEHE222-.LEHB222
	.uleb128 .L1505-.LFB1501
	.uleb128 0
	.uleb128 .LEHB223-.LFB1501
	.uleb128 .LEHE223-.LEHB223
	.uleb128 .L1506-.LFB1501
	.uleb128 0
	.uleb128 .LEHB224-.LFB1501
	.uleb128 .LEHE224-.LEHB224
	.uleb128 .L1481-.LFB1501
	.uleb128 0
	.uleb128 .LEHB225-.LFB1501
	.uleb128 .LEHE225-.LEHB225
	.uleb128 .L1482-.LFB1501
	.uleb128 0
	.uleb128 .LEHB226-.LFB1501
	.uleb128 .LEHE226-.LEHB226
	.uleb128 .L1481-.LFB1501
	.uleb128 0
	.uleb128 .LEHB227-.LFB1501
	.uleb128 .LEHE227-.LEHB227
	.uleb128 .L1494-.LFB1501
	.uleb128 0
	.uleb128 .LEHB228-.LFB1501
	.uleb128 .LEHE228-.LEHB228
	.uleb128 .L1495-.LFB1501
	.uleb128 0
	.uleb128 .LEHB229-.LFB1501
	.uleb128 .LEHE229-.LEHB229
	.uleb128 .L1496-.LFB1501
	.uleb128 0
	.uleb128 .LEHB230-.LFB1501
	.uleb128 .LEHE230-.LEHB230
	.uleb128 .L1497-.LFB1501
	.uleb128 0
	.uleb128 .LEHB231-.LFB1501
	.uleb128 .LEHE231-.LEHB231
	.uleb128 .L1498-.LFB1501
	.uleb128 0
	.uleb128 .LEHB232-.LFB1501
	.uleb128 .LEHE232-.LEHB232
	.uleb128 .L1499-.LFB1501
	.uleb128 0
	.uleb128 .LEHB233-.LFB1501
	.uleb128 .LEHE233-.LEHB233
	.uleb128 .L1500-.LFB1501
	.uleb128 0
	.uleb128 .LEHB234-.LFB1501
	.uleb128 .LEHE234-.LEHB234
	.uleb128 .L1501-.LFB1501
	.uleb128 0
	.uleb128 .LEHB235-.LFB1501
	.uleb128 .LEHE235-.LEHB235
	.uleb128 .L1502-.LFB1501
	.uleb128 0
	.uleb128 .LEHB236-.LFB1501
	.uleb128 .LEHE236-.LEHB236
	.uleb128 .L1503-.LFB1501
	.uleb128 0
	.uleb128 .LEHB237-.LFB1501
	.uleb128 .LEHE237-.LEHB237
	.uleb128 .L1481-.LFB1501
	.uleb128 0
	.uleb128 .LEHB238-.LFB1501
	.uleb128 .LEHE238-.LEHB238
	.uleb128 .L1508-.LFB1501
	.uleb128 0
	.uleb128 .LEHB239-.LFB1501
	.uleb128 .LEHE239-.LEHB239
	.uleb128 .L1481-.LFB1501
	.uleb128 0
	.uleb128 .LEHB240-.LFB1501
	.uleb128 .LEHE240-.LEHB240
	.uleb128 .L1507-.LFB1501
	.uleb128 0
	.uleb128 .LEHB241-.LFB1501
	.uleb128 .LEHE241-.LEHB241
	.uleb128 0
	.uleb128 0
.LLSDACSE1501:
	.section	".text"
	.size	_Z14CheckForUpdateP12UpdateWindow, .-_Z14CheckForUpdateP12UpdateWindow
	.section	.rodata
	.align 2
	.set	.LANCHOR0,. + 0
	.type	_ZL8Meta_Url, @object
	.size	_ZL8Meta_Url, 1024
_ZL8Meta_Url:
	.string	"http://savegame-manager-gx.googlecode.com/svn/branches/Updates/meta.xml"
	.zero	952
	.type	_ZL11GameTDB_Url, @object
	.size	_ZL11GameTDB_Url, 1024
_ZL11GameTDB_Url:
	.string	"http://www.gametdb.com/wiitdb.zip?LANG=TITLESONLY&WIIWARE=TRUE"
	.zero	961
	.type	_ZL16LanguageFilesURL, @object
	.size	_ZL16LanguageFilesURL, 1024
_ZL16LanguageFilesURL:
	.string	"http://savegame-manager-gx.googlecode.com/svn/trunk/Languages/"
	.zero	961
	.section	.rodata.str1.4,"aMS",@progbits,1
	.align 2
.LC0:
	.string	"%s/boot.tmp"
.LC1:
	.string	"wb"
	.zero	1
.LC2:
	.string	"%s/boot.dol"
.LC3:
	.string	"%s/meta.xml"
.LC4:
	.string	"http://savegame-manager-gx.googlecode.com/svn/trunk/HBC/icon%d.png"
	.zero	1
.LC5:
	.string	"%s/icon.png"
.LC6:
	.string	"%s/wiitdb.zip"
	.zero	2
.LC7:
	.string	"Extracting files..."
.LC8:
	.string	"wiitdb.zip"
	.zero	1
.LC9:
	.string	"Downloading..."
	.zero	1
.LC10:
	.string	"All Languages File"
	.zero	1
.LC11:
	.string	".lang"
	.zero	2
.LC12:
	.string	"%s%s"
	.zero	3
.LC13:
	.string	"%s/%s"
	.zero	2
.LC14:
	.string	"Installed Languages Files"
	.zero	2
.LC15:
	.string	"meta.xml"
	.zero	3
.LC16:
	.string	"Update failed"
	.zero	2
.LC17:
	.string	"icon.png"
	.zero	3
.LC18:
	.string	"All Languages Files"
.LC19:
	.string	"Downloading from"
	.zero	3
.LC20:
	.string	" gametdb.com"
	.zero	3
.LC21:
	.string	"Error"
	.zero	2
.LC22:
	.string	"Show error log?"
.LC23:
	.string	"OK"
	.zero	1
.LC24:
	.string	"Cancel"
	.zero	1
.LC25:
	.string	""
	.zero	3
.LC26:
	.string	"boot.dol"
	.zero	3
.LC27:
	.string	"URL is empty."
	.zero	2
.LC28:
	.string	"Could not download file."
	.zero	3
.LC29:
	.string	"Checking for new update"
.LC30:
	.string	"Please wait..."
	.zero	1
.LC31:
	.string	"http://savegame-manager-gx.googlecode.com/svn/branches/Updates/update.txt"
	.zero	2
.LC32:
	.string	"Update to Rev%i available"
	.zero	2
.LC33:
	.string	"Do you want to update now ?"
.LC34:
	.string	"Yes"
.LC35:
	.string	"Show Changelog"
	.zero	1
.LC36:
	.string	"Update successfully finished"
	.zero	3
.LC37:
	.string	"Do you want to reboot now ?"
.LC38:
	.string	"No"
	.zero	1
.LC39:
	.string	"Failed to get the Changelog."
	.section	".text"
.Letext0:
	.file 8 "d:\\devkitpro\\devkitppc\\bin\\../lib/gcc/powerpc-eabi/4.6.3/../../../../powerpc-eabi/include/stdint.h"
	.file 9 "d:/devkitPro/libogc/include/gctypes.h"
	.file 10 "d:/devkitPro/libogc/include/ogc/gx.h"
	.file 11 "d:\\devkitpro\\devkitppc\\bin\\../lib/gcc/powerpc-eabi/4.6.3/../../../../powerpc-eabi/include/machine/_types.h"
	.file 12 "d:\\devkitpro\\devkitppc\\bin\\../lib/gcc/powerpc-eabi/4.6.3/../../../../powerpc-eabi/include/sys/lock.h"
	.file 13 "d:\\devkitpro\\devkitppc\\bin\\../lib/gcc/powerpc-eabi/4.6.3/include/stddef.h"
	.file 14 "d:\\devkitpro\\devkitppc\\bin\\../lib/gcc/powerpc-eabi/4.6.3/../../../../powerpc-eabi/include/sys/_types.h"
	.file 15 "d:\\devkitpro\\devkitppc\\bin\\../lib/gcc/powerpc-eabi/4.6.3/../../../../powerpc-eabi/include/sys/reent.h"
	.file 16 "d:\\devkitpro\\devkitppc\\bin\\../lib/gcc/powerpc-eabi/4.6.3/../../../../powerpc-eabi/include/time.h"
	.file 17 "<built-in>"
	.file 18 "d:\\devkitpro\\devkitppc\\bin\\../lib/gcc/powerpc-eabi/4.6.3/../../../../powerpc-eabi/include/stdio.h"
	.file 19 "d:\\devkitpro\\devkitppc\\bin\\../lib/gcc/powerpc-eabi/4.6.3/../../../../powerpc-eabi/include/wchar.h"
	.file 20 "d:\\devkitpro\\devkitppc\\bin\\../lib/gcc/powerpc-eabi/4.6.3/../../../../powerpc-eabi/include/c++/4.6.3/cwchar"
	.file 21 "d:\\devkitpro\\devkitppc\\bin\\../lib/gcc/powerpc-eabi/4.6.3/../../../../powerpc-eabi/include/c++/4.6.3/powerpc-eabi/bits/c++config.h"
	.file 22 "d:\\devkitpro\\devkitppc\\bin\\../lib/gcc/powerpc-eabi/4.6.3/../../../../powerpc-eabi/include/c++/4.6.3/clocale"
	.file 23 "d:\\devkitpro\\devkitppc\\bin\\../lib/gcc/powerpc-eabi/4.6.3/../../../../powerpc-eabi/include/c++/4.6.3/bits/stringfwd.h"
	.file 24 "d:\\devkitpro\\devkitppc\\bin\\../lib/gcc/powerpc-eabi/4.6.3/../../../../powerpc-eabi/include/c++/4.6.3/bits/stl_list.h"
	.file 25 "d:\\devkitpro\\devkitppc\\bin\\../lib/gcc/powerpc-eabi/4.6.3/../../../../powerpc-eabi/include/c++/4.6.3/bits/stl_tree.h"
	.file 26 "d:\\devkitpro\\devkitppc\\bin\\../lib/gcc/powerpc-eabi/4.6.3/../../../../powerpc-eabi/include/c++/4.6.3/bits/move.h"
	.file 27 "d:\\devkitpro\\devkitppc\\bin\\../lib/gcc/powerpc-eabi/4.6.3/../../../../powerpc-eabi/include/c++/4.6.3/bits/cpp_type_traits.h"
	.file 28 "d:\\devkitpro\\devkitppc\\bin\\../lib/gcc/powerpc-eabi/4.6.3/../../../../powerpc-eabi/include/c++/4.6.3/ext/new_allocator.h"
	.file 29 "d:\\devkitpro\\devkitppc\\bin\\../lib/gcc/powerpc-eabi/4.6.3/../../../../powerpc-eabi/include/c++/4.6.3/debug/debug.h"
	.file 30 "d:\\devkitpro\\devkitppc\\bin\\../lib/gcc/powerpc-eabi/4.6.3/../../../../powerpc-eabi/include/c++/4.6.3/bits/allocator.h"
	.file 31 "d:\\devkitpro\\devkitppc\\bin\\../lib/gcc/powerpc-eabi/4.6.3/../../../../powerpc-eabi/include/locale.h"
	.file 32 "d:\\devkitpro\\devkitppc\\bin\\../lib/gcc/powerpc-eabi/4.6.3/../../../../powerpc-eabi/include/c++/4.6.3/powerpc-eabi/bits/atomic_word.h"
	.file 33 "d:\\devkitpro\\devkitppc\\bin\\../lib/gcc/powerpc-eabi/4.6.3/../../../../powerpc-eabi/include/c++/4.6.3/ext/numeric_traits.h"
	.file 34 "d:\\devkitpro\\devkitppc\\bin\\../lib/gcc/powerpc-eabi/4.6.3/../../../../powerpc-eabi/include/c++/4.6.3/bits/basic_string.tcc"
	.file 35 "d:\\devkitpro\\devkitppc\\bin\\../lib/gcc/powerpc-eabi/4.6.3/../../../../powerpc-eabi/include/c++/4.6.3/bits/stl_iterator_base_types.h"
	.file 36 "d:\\devkitpro\\devkitppc\\bin\\../lib/gcc/powerpc-eabi/4.6.3/../../../../powerpc-eabi/include/c++/4.6.3/bits/stl_iterator.h"
	.file 37 "d:/Projects/SaveGameManager/savegame-manager-gx/trunk/source/Network/../Controls/../GUI/../Settings/SettingsEnums.h"
	.file 38 "d:/Projects/SaveGameManager/savegame-manager-gx/trunk/source/Network/../Controls/../GUI/../Settings/../FileOperations/FileExtensions.h"
	.file 39 "d:/Projects/SaveGameManager/savegame-manager-gx/trunk/source/Network/../Controls/../GUI/../Settings/../Controls/AppControls.hpp"
	.file 40 "d:/Projects/SaveGameManager/savegame-manager-gx/trunk/source/Network/../Controls/../GUI/../Settings/CSettings.h"
	.file 41 "d:/Projects/SaveGameManager/savegame-manager-gx/trunk/source/Network/../Controls/../GUI/../Tools/Rect.h"
	.file 42 "d:/Projects/SaveGameManager/savegame-manager-gx/trunk/source/Network/../Controls/../GUI/../sigslot.h"
	.file 43 "d:\\devkitpro\\devkitppc\\bin\\../lib/gcc/powerpc-eabi/4.6.3/../../../../powerpc-eabi/include/c++/4.6.3/bits/list.tcc"
	.file 44 "d:/Projects/SaveGameManager/savegame-manager-gx/trunk/source/Network/../Controls/../GUI/gui_element.h"
	.file 45 "d:\\devkitpro\\devkitppc\\bin\\../lib/gcc/powerpc-eabi/4.6.3/../../../../powerpc-eabi/include/c++/4.6.3/bits/stl_function.h"
	.file 46 "d:\\devkitpro\\devkitppc\\bin\\../lib/gcc/powerpc-eabi/4.6.3/../../../../powerpc-eabi/include/c++/4.6.3/bits/stl_set.h"
	.file 47 "d:/devkitPro/libogc/include/zconf.h"
	.file 48 "d:/devkitPro/libogc/include/zip/zip.h"
	.file 49 "d:/devkitPro/libogc/include/zip/unzip.h"
	.file 50 "d:/Projects/SaveGameManager/savegame-manager-gx/trunk/source/Network/../ArchiveOperations/ArchiveStruct.h"
	.file 51 "d:/Projects/SaveGameManager/savegame-manager-gx/trunk/source/Network/../ArchiveOperations/ZipFile.h"
	.file 52 "d:\\devkitpro\\devkitppc\\bin\\../lib/gcc/powerpc-eabi/4.6.3/../../../../powerpc-eabi/include/c++/4.6.3/bits/vector.tcc"
	.file 53 "d:/Projects/SaveGameManager/savegame-manager-gx/trunk/source/Network/../FileOperations/DirList.h"
	.file 54 "d:/Projects/SaveGameManager/savegame-manager-gx/trunk/source/Network/../Prompts/UpdateWindow.h"
	.file 55 "d:/Projects/SaveGameManager/savegame-manager-gx/trunk/source/Network/ChangeLog.h"
	.file 56 "d:/Projects/SaveGameManager/savegame-manager-gx/trunk/source/Network/http.h"
	.file 57 "d:/Projects/SaveGameManager/savegame-manager-gx/trunk/source/Network/URL_List.h"
	.file 58 "d:\\devkitpro\\devkitppc\\bin\\../lib/gcc/powerpc-eabi/4.6.3/../../../../powerpc-eabi/include/c++/4.6.3/bits/stl_pair.h"
	.file 59 "d:\\devkitpro\\devkitppc\\bin\\../lib/gcc/powerpc-eabi/4.6.3/../../../../powerpc-eabi/include/c++/4.6.3/new"