   1              		.file	"UpdateSettingsMenu.cpp"
   2              		.section	".text"
   3              	.Ltext0:
   4              		.section	.text._ZN7sigslot15single_threaded4lockEv,"axG",@progbits,_ZN7sigslot15single_threaded4lo
   5              		.align 2
   6              		.weak	_ZN7sigslot15single_threaded4lockEv
   7              		.type	_ZN7sigslot15single_threaded4lockEv, @function
   8              	_ZN7sigslot15single_threaded4lockEv:
   9              	.LFB1151:
  10              		.file 1 "d:/Projects/SaveGameManager/savegame-manager-gx/trunk/source/Settings/menus/../../GUI/../
  11              		.loc 1 109 0
  12              		.cfi_startproc
  13              	.LVL0:
  14              		.loc 1 112 0
  15 0000 4E800020 		blr
  16              		.cfi_endproc
  17              	.LFE1151:
  18              		.size	_ZN7sigslot15single_threaded4lockEv, .-_ZN7sigslot15single_threaded4lockEv
  19              		.section	.text._ZN7sigslot15single_threaded6unlockEv,"axG",@progbits,_ZN7sigslot15single_threaded6
  20              		.align 2
  21              		.weak	_ZN7sigslot15single_threaded6unlockEv
  22              		.type	_ZN7sigslot15single_threaded6unlockEv, @function
  23              	_ZN7sigslot15single_threaded6unlockEv:
  24              	.LFB1152:
  25              		.loc 1 114 0
  26              		.cfi_startproc
  27              	.LVL1:
  28              		.loc 1 117 0
  29 0000 4E800020 		blr
  30              		.cfi_endproc
  31              	.LFE1152:
  32              		.size	_ZN7sigslot15single_threaded6unlockEv, .-_ZN7sigslot15single_threaded6unlockEv
  33              		.section	.text._ZN10GuiElement9SetParentEPS_,"axG",@progbits,_ZN10GuiElement9SetParentEPS_,comdat
  34              		.align 2
  35              		.weak	_ZN10GuiElement9SetParentEPS_
  36              		.type	_ZN10GuiElement9SetParentEPS_, @function
  37              	_ZN10GuiElement9SetParentEPS_:
  38              	.LFB1384:
  39              		.file 2 "d:/Projects/SaveGameManager/savegame-manager-gx/trunk/source/Settings/menus/../../GUI/gui
  40              		.loc 2 92 0
  41              		.cfi_startproc
  42              	.LVL2:
  43              		.loc 2 92 0
  44 0000 90830060 		stw 4,96(3)
  45 0004 4E800020 		blr
  46              		.cfi_endproc
  47              	.LFE1384:
  48              		.size	_ZN10GuiElement9SetParentEPS_, .-_ZN10GuiElement9SetParentEPS_
  49              		.section	.text._ZN10GuiElement9GetParentEv,"axG",@progbits,_ZN10GuiElement9GetParentEv,comdat
  50              		.align 2
  51              		.weak	_ZN10GuiElement9GetParentEv
  52              		.type	_ZN10GuiElement9GetParentEv, @function
  53              	_ZN10GuiElement9GetParentEv:
  54              	.LFB1385:
  55              		.loc 2 95 0
  56              		.cfi_startproc
  57              	.LVL3:
  58              		.loc 2 95 0
  59 0000 80630060 		lwz 3,96(3)
  60              	.LVL4:
  61 0004 4E800020 		blr
  62              		.cfi_endproc
  63              	.LFE1385:
  64              		.size	_ZN10GuiElement9GetParentEv, .-_ZN10GuiElement9GetParentEv
  65              		.section	.text._ZN10GuiElement12GetZPositionEv,"axG",@progbits,_ZN10GuiElement12GetZPositionEv,com
  66              		.align 2
  67              		.weak	_ZN10GuiElement12GetZPositionEv
  68              		.type	_ZN10GuiElement12GetZPositionEv, @function
  69              	_ZN10GuiElement12GetZPositionEv:
  70              	.LFB1386:
  71              		.loc 2 106 0
  72              		.cfi_startproc
  73              	.LVL5:
  74 0000 7C0802A6 		mflr 0
  75 0004 9421FFF0 		stwu 1,-16(1)
  76              	.LCFI0:
  77              		.cfi_def_cfa_offset 16
  78              		.cfi_register 65, 0
  79 0008 93E1000C 		stw 31,12(1)
  80 000c 7C7F1B78 		mr 31,3
  81              		.cfi_offset 31, -4
  82 0010 90010014 		stw 0,20(1)
  83              	.LBB1536:
  84              		.loc 2 110 0
  85 0014 81630060 		lwz 11,96(3)
  86              		.loc 2 108 0
  87 0018 38600000 		li 3,0
  88              	.LVL6:
  89              		.loc 2 110 0
  90 001c 2F8B0000 		cmpwi 7,11,0
  91 0020 419E0018 		beq- 7,.L6
  92              		.cfi_offset 65, 4
  93              		.loc 2 111 0
  94 0024 812B0000 		lwz 9,0(11)
  95 0028 7D635B78 		mr 3,11
  96 002c 80090018 		lwz 0,24(9)
  97 0030 7C0903A6 		mtctr 0
  98 0034 4E800421 		bctrl
  99              	.LVL7:
 100              	.L6:
 101              		.loc 2 113 0
 102 0038 801F0034 		lwz 0,52(31)
 103              	.LBE1536:
 104              		.loc 2 114 0
 105 003c 83E1000C 		lwz 31,12(1)
 106              	.LVL8:
 107 0040 7C630214 		add 3,3,0
 108              	.LVL9:
 109 0044 80010014 		lwz 0,20(1)
 110 0048 38210010 		addi 1,1,16
 111              	.LCFI1:
 112              		.cfi_def_cfa_offset 0
 113              		.cfi_restore 31
 114 004c 7C0803A6 		mtlr 0
 115 0050 4E800020 		blr
 116              		.cfi_endproc
 117              	.LFE1386:
 118              		.size	_ZN10GuiElement12GetZPositionEv, .-_ZN10GuiElement12GetZPositionEv
 119              		.section	.text._ZN10GuiElement10GetLeftPosEv,"axG",@progbits,_ZN10GuiElement10GetLeftPosEv,comdat
 120              		.align 2
 121              		.weak	_ZN10GuiElement10GetLeftPosEv
 122              		.type	_ZN10GuiElement10GetLeftPosEv, @function
 123              	_ZN10GuiElement10GetLeftPosEv:
 124              	.LFB1387:
 125              		.loc 2 116 0
 126              		.cfi_startproc
 127              	.LVL10:
 128              		.loc 2 116 0
 129 0000 8063002C 		lwz 3,44(3)
 130              	.LVL11:
 131 0004 4E800020 		blr
 132              		.cfi_endproc
 133              	.LFE1387:
 134              		.size	_ZN10GuiElement10GetLeftPosEv, .-_ZN10GuiElement10GetLeftPosEv
 135              		.section	.text._ZN10GuiElement9GetTopPosEv,"axG",@progbits,_ZN10GuiElement9GetTopPosEv,comdat
 136              		.align 2
 137              		.weak	_ZN10GuiElement9GetTopPosEv
 138              		.type	_ZN10GuiElement9GetTopPosEv, @function
 139              	_ZN10GuiElement9GetTopPosEv:
 140              	.LFB1388:
 141              		.loc 2 118 0
 142              		.cfi_startproc
 143              	.LVL12:
 144              		.loc 2 118 0
 145 0000 80630030 		lwz 3,48(3)
 146              	.LVL13:
 147 0004 4E800020 		blr
 148              		.cfi_endproc
 149              	.LFE1388:
 150              		.size	_ZN10GuiElement9GetTopPosEv, .-_ZN10GuiElement9GetTopPosEv
 151              		.section	.text._ZN10GuiElement8GetWidthEv,"axG",@progbits,_ZN10GuiElement8GetWidthEv,comdat
 152              		.align 2
 153              		.weak	_ZN10GuiElement8GetWidthEv
 154              		.type	_ZN10GuiElement8GetWidthEv, @function
 155              	_ZN10GuiElement8GetWidthEv:
 156              	.LFB1389:
 157              		.loc 2 121 0
 158              		.cfi_startproc
 159              	.LVL14:
 160              		.loc 2 121 0
 161 0000 80630024 		lwz 3,36(3)
 162              	.LVL15:
 163 0004 4E800020 		blr
 164              		.cfi_endproc
 165              	.LFE1389:
 166              		.size	_ZN10GuiElement8GetWidthEv, .-_ZN10GuiElement8GetWidthEv
 167              		.section	.text._ZN10GuiElement9GetHeightEv,"axG",@progbits,_ZN10GuiElement9GetHeightEv,comdat
 168              		.align 2
 169              		.weak	_ZN10GuiElement9GetHeightEv
 170              		.type	_ZN10GuiElement9GetHeightEv, @function
 171              	_ZN10GuiElement9GetHeightEv:
 172              	.LFB1390:
 173              		.loc 2 124 0
 174              		.cfi_startproc
 175              	.LVL16:
 176              		.loc 2 124 0
 177 0000 80630028 		lwz 3,40(3)
 178              	.LVL17:
 179 0004 4E800020 		blr
 180              		.cfi_endproc
 181              	.LFE1390:
 182              		.size	_ZN10GuiElement9GetHeightEv, .-_ZN10GuiElement9GetHeightEv
 183              		.section	.text._ZN10GuiElement7SetSizeEii,"axG",@progbits,_ZN10GuiElement7SetSizeEii,comdat
 184              		.align 2
 185              		.weak	_ZN10GuiElement7SetSizeEii
 186              		.type	_ZN10GuiElement7SetSizeEii, @function
 187              	_ZN10GuiElement7SetSizeEii:
 188              	.LFB1391:
 189              		.loc 2 128 0
 190              		.cfi_startproc
 191              	.LVL18:
 192              		.loc 2 130 0
 193 0000 90830024 		stw 4,36(3)
 194              		.loc 2 132 0
 195              		.loc 2 131 0
 196 0004 90A30028 		stw 5,40(3)
 197              		.loc 2 132 0
 198 0008 4E800020 		blr
 199              		.cfi_endproc
 200              	.LFE1391:
 201              		.size	_ZN10GuiElement7SetSizeEii, .-_ZN10GuiElement7SetSizeEii
 202              		.section	.text._ZN10GuiElement9IsVisibleEv,"axG",@progbits,_ZN10GuiElement9IsVisibleEv,comdat
 203              		.align 2
 204              		.weak	_ZN10GuiElement9IsVisibleEv
 205              		.type	_ZN10GuiElement9IsVisibleEv, @function
 206              	_ZN10GuiElement9IsVisibleEv:
 207              	.LFB1393:
 208              		.loc 2 142 0
 209              		.cfi_startproc
 210              	.LVL19:
 211              		.loc 2 142 0
 212 0000 8863001D 		lbz 3,29(3)
 213              	.LVL20:
 214 0004 4E800020 		blr
 215              		.cfi_endproc
 216              	.LFE1393:
 217              		.size	_ZN10GuiElement9IsVisibleEv, .-_ZN10GuiElement9IsVisibleEv
 218              		.section	.text._ZN10GuiElement12IsSelectableEv,"axG",@progbits,_ZN10GuiElement12IsSelectableEv,com
 219              		.align 2
 220              		.weak	_ZN10GuiElement12IsSelectableEv
 221              		.type	_ZN10GuiElement12IsSelectableEv, @function
 222              	_ZN10GuiElement12IsSelectableEv:
 223              	.LFB1394:
 224              		.loc 2 145 0
 225              		.cfi_startproc
 226              	.LVL21:
 227              		.loc 2 149 0
 228 0000 80030048 		lwz 0,72(3)
 229 0004 39200000 		li 9,0
 230 0008 2F800004 		cmpwi 7,0,4
 231 000c 419E0010 		beq- 7,.L16
 232              		.loc 2 149 0 is_stmt 0 discriminator 1
 233 0010 2F800002 		cmpwi 7,0,2
 234 0014 419E0008 		beq- 7,.L16
 235              		.loc 2 149 0 discriminator 3
 236 0018 8923001E 		lbz 9,30(3)
 237              	.L16:
 238              		.loc 2 150 0 is_stmt 1 discriminator 5
 239 001c 7D234B78 		mr 3,9
 240              	.LVL22:
 241 0020 4E800020 		blr
 242              		.cfi_endproc
 243              	.LFE1394:
 244              		.size	_ZN10GuiElement12IsSelectableEv, .-_ZN10GuiElement12IsSelectableEv
 245              		.section	.text._ZN10GuiElement11IsClickableEv,"axG",@progbits,_ZN10GuiElement11IsClickableEv,comda
 246              		.align 2
 247              		.weak	_ZN10GuiElement11IsClickableEv
 248              		.type	_ZN10GuiElement11IsClickableEv, @function
 249              	_ZN10GuiElement11IsClickableEv:
 250              	.LFB1395:
 251              		.loc 2 153 0
 252              		.cfi_startproc
 253              	.LVL23:
 254              		.loc 2 158 0
 255 0000 80030048 		lwz 0,72(3)
 256 0004 39200000 		li 9,0
 257 0008 2F800004 		cmpwi 7,0,4
 258 000c 419E0018 		beq- 7,.L20
 259              		.loc 2 158 0 is_stmt 0 discriminator 1
 260 0010 2F800002 		cmpwi 7,0,2
 261 0014 419E0010 		beq- 7,.L20
 262              		.loc 2 158 0 discriminator 3
 263 0018 2F800003 		cmpwi 7,0,3
 264 001c 419E0008 		beq- 7,.L20
 265              		.loc 2 158 0 discriminator 4
 266 0020 8923001F 		lbz 9,31(3)
 267              	.L20:
 268              		.loc 2 159 0 is_stmt 1 discriminator 6
 269 0024 7D234B78 		mr 3,9
 270              	.LVL24:
 271 0028 4E800020 		blr
 272              		.cfi_endproc
 273              	.LFE1395:
 274              		.size	_ZN10GuiElement11IsClickableEv, .-_ZN10GuiElement11IsClickableEv
 275              		.section	.text._ZN10GuiElement10IsHoldableEv,"axG",@progbits,_ZN10GuiElement10IsHoldableEv,comdat
 276              		.align 2
 277              		.weak	_ZN10GuiElement10IsHoldableEv
 278              		.type	_ZN10GuiElement10IsHoldableEv, @function
 279              	_ZN10GuiElement10IsHoldableEv:
 280              	.LFB1396:
 281              		.loc 2 162 0
 282              		.cfi_startproc
 283              	.LVL25:
 284              		.loc 2 162 0
 285 0000 81230048 		lwz 9,72(3)
 286 0004 38000000 		li 0,0
 287 0008 2F890004 		cmpwi 7,9,4
 288 000c 419E0008 		beq- 7,.L25
 289              		.loc 2 162 0 is_stmt 0 discriminator 1
 290 0010 88030020 		lbz 0,32(3)
 291              	.L25:
 292              		.loc 2 162 0 discriminator 4
 293 0014 7C030378 		mr 3,0
 294              	.LVL26:
 295 0018 4E800020 		blr
 296              		.cfi_endproc
 297              	.LFE1396:
 298              		.size	_ZN10GuiElement10IsHoldableEv, .-_ZN10GuiElement10IsHoldableEv
 299              		.section	.text._ZN10GuiElement13SetSelectableEb,"axG",@progbits,_ZN10GuiElement13SetSelectableEb,c
 300              		.align 2
 301              		.weak	_ZN10GuiElement13SetSelectableEb
 302              		.type	_ZN10GuiElement13SetSelectableEb, @function
 303              	_ZN10GuiElement13SetSelectableEb:
 304              	.LFB1397:
 305              		.loc 2 165 0 is_stmt 1
 306              		.cfi_startproc
 307              	.LVL27:
 308              		.loc 2 165 0
 309 0000 9883001E 		stb 4,30(3)
 310 0004 4E800020 		blr
 311              		.cfi_endproc
 312              	.LFE1397:
 313              		.size	_ZN10GuiElement13SetSelectableEb, .-_ZN10GuiElement13SetSelectableEb
 314              		.section	.text._ZN10GuiElement12SetClickableEb,"axG",@progbits,_ZN10GuiElement12SetClickableEb,com
 315              		.align 2
 316              		.weak	_ZN10GuiElement12SetClickableEb
 317              		.type	_ZN10GuiElement12SetClickableEb, @function
 318              	_ZN10GuiElement12SetClickableEb:
 319              	.LFB1398:
 320              		.loc 2 168 0
 321              		.cfi_startproc
 322              	.LVL28:
 323              		.loc 2 168 0
 324 0000 9883001F 		stb 4,31(3)
 325 0004 4E800020 		blr
 326              		.cfi_endproc
 327              	.LFE1398:
 328              		.size	_ZN10GuiElement12SetClickableEb, .-_ZN10GuiElement12SetClickableEb
 329              		.section	.text._ZN10GuiElement11SetHoldableEb,"axG",@progbits,_ZN10GuiElement11SetHoldableEb,comda
 330              		.align 2
 331              		.weak	_ZN10GuiElement11SetHoldableEb
 332              		.type	_ZN10GuiElement11SetHoldableEb, @function
 333              	_ZN10GuiElement11SetHoldableEb:
 334              	.LFB1399:
 335              		.loc 2 171 0
 336              		.cfi_startproc
 337              	.LVL29:
 338              		.loc 2 171 0
 339 0000 98830020 		stb 4,32(3)
 340 0004 4E800020 		blr
 341              		.cfi_endproc
 342              	.LFE1399:
 343              		.size	_ZN10GuiElement11SetHoldableEb, .-_ZN10GuiElement11SetHoldableEb
 344              		.section	.text._ZN10GuiElement8GetStateEv,"axG",@progbits,_ZN10GuiElement8GetStateEv,comdat
 345              		.align 2
 346              		.weak	_ZN10GuiElement8GetStateEv
 347              		.type	_ZN10GuiElement8GetStateEv, @function
 348              	_ZN10GuiElement8GetStateEv:
 349              	.LFB1400:
 350              		.loc 2 178 0
 351              		.cfi_startproc
 352              	.LVL30:
 353              		.loc 2 178 0
 354 0000 80630048 		lwz 3,72(3)
 355              	.LVL31:
 356 0004 4E800020 		blr
 357              		.cfi_endproc
 358              	.LFE1400:
 359              		.size	_ZN10GuiElement8GetStateEv, .-_ZN10GuiElement8GetStateEv
 360              		.section	.text._ZN10GuiElement12GetStateChanEv,"axG",@progbits,_ZN10GuiElement12GetStateChanEv,com
 361              		.align 2
 362              		.weak	_ZN10GuiElement12GetStateChanEv
 363              		.type	_ZN10GuiElement12GetStateChanEv, @function
 364              	_ZN10GuiElement12GetStateChanEv:
 365              	.LFB1401:
 366              		.loc 2 181 0
 367              		.cfi_startproc
 368              	.LVL32:
 369              		.loc 2 181 0
 370 0000 8063004C 		lwz 3,76(3)
 371              	.LVL33:
 372 0004 4E800020 		blr
 373              		.cfi_endproc
 374              	.LFE1401:
 375              		.size	_ZN10GuiElement12GetStateChanEv, .-_ZN10GuiElement12GetStateChanEv
 376              		.section	.text._ZN10GuiElement8SetAlphaEi,"axG",@progbits,_ZN10GuiElement8SetAlphaEi,comdat
 377              		.align 2
 378              		.weak	_ZN10GuiElement8SetAlphaEi
 379              		.type	_ZN10GuiElement8SetAlphaEi, @function
 380              	_ZN10GuiElement8SetAlphaEi:
 381              	.LFB1403:
 382              		.loc 2 190 0
 383              		.cfi_startproc
 384              	.LVL34:
 385              		.loc 2 190 0
 386 0000 90830038 		stw 4,56(3)
 387 0004 4E800020 		blr
 388              		.cfi_endproc
 389              	.LFE1403:
 390              		.size	_ZN10GuiElement8SetAlphaEi, .-_ZN10GuiElement8SetAlphaEi
 391              		.section	.text._ZN10GuiElement8GetAlphaEv,"axG",@progbits,_ZN10GuiElement8GetAlphaEv,comdat
 392              		.align 2
 393              		.weak	_ZN10GuiElement8GetAlphaEv
 394              		.type	_ZN10GuiElement8GetAlphaEv, @function
 395              	_ZN10GuiElement8GetAlphaEv:
 396              	.LFB1404:
 397              		.loc 2 194 0
 398              		.cfi_startproc
 399              	.LVL35:
 400 0000 7C0802A6 		mflr 0
 401 0004 9421FFD8 		stwu 1,-40(1)
 402              	.LCFI2:
 403              		.cfi_def_cfa_offset 40
 404              		.cfi_register 65, 0
 405 0008 93E10024 		stw 31,36(1)
 406 000c 9001002C 		stw 0,44(1)
 407              	.LBB1537:
 408              		.loc 2 198 0
 409 0010 83E3006C 		lwz 31,108(3)
 410              		.cfi_offset 65, 4
 411              		.cfi_offset 31, -4
 412 0014 2F9F0000 		cmpwi 7,31,0
 413 0018 419C0094 		blt- 7,.L36
 414              	.L34:
 415              	.LVL36:
 416              		.loc 2 203 0
 417 001c 80630060 		lwz 3,96(3)
 418              	.LVL37:
 419 0020 2F830000 		cmpwi 7,3,0
 420 0024 419E0070 		beq- 7,.L35
 421              		.loc 2 204 0
 422 0028 81230000 		lwz 9,0(3)
 423 002c 6FFF8000 		xoris 31,31,0x8000
 424              	.LVL38:
 425 0030 80090064 		lwz 0,100(9)
 426 0034 7C0903A6 		mtctr 0
 427 0038 4E800421 		bctrl
 428 003c 3C004330 		lis 0,0x4330
 429 0040 6C638000 		xoris 3,3,0x8000
 430 0044 90010010 		stw 0,16(1)
 431 0048 90610014 		stw 3,20(1)
 432 004c 3D200000 		lis 9,.LC1@ha
 433 0050 C0090000 		lfs 0,.LC1@l(9)
 434 0054 3D200000 		lis 9,.LC2@ha
 435 0058 C9A10010 		lfd 13,16(1)
 436 005c C1890004 		lfs 12,.LC2@l(9)
 437 0060 39210018 		addi 9,1,24
 438 0064 FDAD0028 		fsub 13,13,0
 439 0068 93E1000C 		stw 31,12(1)
 440 006c 90010008 		stw 0,8(1)
 441 0070 FDA06818 		frsp 13,13
 442 0074 EDAD6024 		fdivs 13,13,12
 443 0078 C9810008 		lfd 12,8(1)
 444 007c FC0C0028 		fsub 0,12,0
 445 0080 FC000018 		frsp 0,0
 446 0084 EC000372 		fmuls 0,0,13
 447 0088 FC00001E 		fctiwz 0,0
 448 008c 7C004FAE 		stfiwx 0,0,9
 449 0090 83E10018 		lwz 31,24(1)
 450              	.LVL39:
 451              	.L35:
 452              	.LBE1537:
 453              		.loc 2 207 0
 454 0094 8001002C 		lwz 0,44(1)
 455 0098 7FE3FB78 		mr 3,31
 456 009c 83E10024 		lwz 31,36(1)
 457              	.LVL40:
 458 00a0 7C0803A6 		mtlr 0
 459 00a4 38210028 		addi 1,1,40
 460              		.cfi_remember_state
 461              	.LCFI3:
 462              		.cfi_def_cfa_offset 0
 463              		.cfi_restore 31
 464 00a8 4E800020 		blr
 465              	.LVL41:
 466              	.L36:
 467              	.LCFI4:
 468              		.cfi_restore_state
 469              	.LBB1538:
 470              		.loc 2 201 0
 471 00ac 83E30038 		lwz 31,56(3)
 472              	.LVL42:
 473 00b0 4BFFFF6C 		b .L34
 474              	.LBE1538:
 475              		.cfi_endproc
 476              	.LFE1404:
 477              		.size	_ZN10GuiElement8GetAlphaEv, .-_ZN10GuiElement8GetAlphaEv
 478              		.section	.text._ZN10GuiElement8SetScaleEf,"axG",@progbits,_ZN10GuiElement8SetScaleEf,comdat
 479              		.align 2
 480              		.weak	_ZN10GuiElement8SetScaleEf
 481              		.type	_ZN10GuiElement8SetScaleEf, @function
 482              	_ZN10GuiElement8SetScaleEf:
 483              	.LFB1405:
 484              		.loc 2 210 0
 485              		.cfi_startproc
 486              	.LVL43:
 487              		.loc 2 212 0
 488 0000 D023003C 		stfs 1,60(3)
 489              		.loc 2 214 0
 490              		.loc 2 213 0
 491 0004 D0230040 		stfs 1,64(3)
 492              		.loc 2 214 0
 493 0008 4E800020 		blr
 494              		.cfi_endproc
 495              	.LFE1405:
 496              		.size	_ZN10GuiElement8SetScaleEf, .-_ZN10GuiElement8SetScaleEf
 497              		.section	.text._ZN10GuiElement9SetScaleXEf,"axG",@progbits,_ZN10GuiElement9SetScaleXEf,comdat
 498              		.align 2
 499              		.weak	_ZN10GuiElement9SetScaleXEf
 500              		.type	_ZN10GuiElement9SetScaleXEf, @function
 501              	_ZN10GuiElement9SetScaleXEf:
 502              	.LFB1406:
 503              		.loc 2 217 0
 504              		.cfi_startproc
 505              	.LVL44:
 506              		.loc 2 217 0
 507 0000 D023003C 		stfs 1,60(3)
 508 0004 4E800020 		blr
 509              		.cfi_endproc
 510              	.LFE1406:
 511              		.size	_ZN10GuiElement9SetScaleXEf, .-_ZN10GuiElement9SetScaleXEf
 512              		.section	.text._ZN10GuiElement9SetScaleYEf,"axG",@progbits,_ZN10GuiElement9SetScaleYEf,comdat
 513              		.align 2
 514              		.weak	_ZN10GuiElement9SetScaleYEf
 515              		.type	_ZN10GuiElement9SetScaleYEf, @function
 516              	_ZN10GuiElement9SetScaleYEf:
 517              	.LFB1407:
 518              		.loc 2 220 0
 519              		.cfi_startproc
 520              	.LVL45:
 521              		.loc 2 220 0
 522 0000 D0230040 		stfs 1,64(3)
 523 0004 4E800020 		blr
 524              		.cfi_endproc
 525              	.LFE1407:
 526              		.size	_ZN10GuiElement9SetScaleYEf, .-_ZN10GuiElement9SetScaleYEf
 527              		.section	.text._ZN10GuiElement8GetScaleEv,"axG",@progbits,_ZN10GuiElement8GetScaleEv,comdat
 528              		.align 2
 529              		.weak	_ZN10GuiElement8GetScaleEv
 530              		.type	_ZN10GuiElement8GetScaleEv, @function
 531              	_ZN10GuiElement8GetScaleEv:
 532              	.LFB1408:
 533              		.loc 2 223 0
 534              		.cfi_startproc
 535              	.LVL46:
 536 0000 7C0802A6 		mflr 0
 537 0004 9421FFF0 		stwu 1,-16(1)
 538              	.LCFI5:
 539              		.cfi_def_cfa_offset 16
 540              		.cfi_register 65, 0
 541              	.LBB1539:
 542              		.loc 2 225 0
 543 0008 3D200000 		lis 9,.LC3@ha
 544              	.LBE1539:
 545              		.loc 2 223 0
 546 000c DBE10008 		stfd 31,8(1)
 547 0010 90010014 		stw 0,20(1)
 548              	.LBB1540:
 549              		.loc 2 225 0
 550 0014 C0030040 		lfs 0,64(3)
 551 0018 C3E3003C 		lfs 31,60(3)
 552              		.cfi_offset 65, 4
 553              		.cfi_offset 63, -8
 554              		.loc 2 227 0
 555 001c 81630060 		lwz 11,96(3)
 556              		.loc 2 225 0
 557 0020 EFFF002A 		fadds 31,31,0
 558 0024 C0090008 		lfs 0,.LC3@l(9)
 559              		.loc 2 227 0
 560 0028 2F8B0000 		cmpwi 7,11,0
 561              		.loc 2 225 0
 562 002c EFFF0032 		fmuls 31,31,0
 563 0030 C0030070 		lfs 0,112(3)
 564 0034 EFFF0032 		fmuls 31,31,0
 565              	.LVL47:
 566              		.loc 2 227 0
 567 0038 419E001C 		beq- 7,.L41
 568              		.loc 2 228 0
 569 003c 812B0000 		lwz 9,0(11)
 570 0040 7D635B78 		mr 3,11
 571              	.LVL48:
 572 0044 80090074 		lwz 0,116(9)
 573 0048 7C0903A6 		mtctr 0
 574 004c 4E800421 		bctrl
 575 0050 EFFF0072 		fmuls 31,31,1
 576              	.LVL49:
 577              	.L41:
 578              	.LBE1540:
 579              		.loc 2 231 0
 580 0054 80010014 		lwz 0,20(1)
 581 0058 FC20F890 		fmr 1,31
 582 005c CBE10008 		lfd 31,8(1)
 583              	.LVL50:
 584 0060 7C0803A6 		mtlr 0
 585 0064 38210010 		addi 1,1,16
 586              	.LCFI6:
 587              		.cfi_def_cfa_offset 0
 588              		.cfi_restore 63
 589 0068 4E800020 		blr
 590              		.cfi_endproc
 591              	.LFE1408:
 592              		.size	_ZN10GuiElement8GetScaleEv, .-_ZN10GuiElement8GetScaleEv
 593              		.section	.text._ZN10GuiElement9GetScaleXEv,"axG",@progbits,_ZN10GuiElement9GetScaleXEv,comdat
 594              		.align 2
 595              		.weak	_ZN10GuiElement9GetScaleXEv
 596              		.type	_ZN10GuiElement9GetScaleXEv, @function
 597              	_ZN10GuiElement9GetScaleXEv:
 598              	.LFB1409:
 599              		.loc 2 234 0
 600              		.cfi_startproc
 601              	.LVL51:
 602 0000 7C0802A6 		mflr 0
 603 0004 9421FFF0 		stwu 1,-16(1)
 604              	.LCFI7:
 605              		.cfi_def_cfa_offset 16
 606              		.cfi_register 65, 0
 607 0008 DBE10008 		stfd 31,8(1)
 608 000c 90010014 		stw 0,20(1)
 609              	.LBB1541:
 610              		.loc 2 238 0
 611 0010 81630060 		lwz 11,96(3)
 612              		.loc 2 236 0
 613 0014 C3E3003C 		lfs 31,60(3)
 614              		.cfi_offset 65, 4
 615              		.cfi_offset 63, -8
 616              		.loc 2 238 0
 617 0018 2F8B0000 		cmpwi 7,11,0
 618              		.loc 2 236 0
 619 001c C0030070 		lfs 0,112(3)
 620 0020 EFFF0032 		fmuls 31,31,0
 621              	.LVL52:
 622              		.loc 2 238 0
 623 0024 419E001C 		beq- 7,.L43
 624              		.loc 2 239 0
 625 0028 812B0000 		lwz 9,0(11)
 626 002c 7D635B78 		mr 3,11
 627              	.LVL53:
 628 0030 80090078 		lwz 0,120(9)
 629 0034 7C0903A6 		mtctr 0
 630 0038 4E800421 		bctrl
 631 003c EFFF0072 		fmuls 31,31,1
 632              	.LVL54:
 633              	.L43:
 634              	.LBE1541:
 635              		.loc 2 242 0
 636 0040 80010014 		lwz 0,20(1)
 637 0044 FC20F890 		fmr 1,31
 638 0048 CBE10008 		lfd 31,8(1)
 639              	.LVL55:
 640 004c 7C0803A6 		mtlr 0
 641 0050 38210010 		addi 1,1,16
 642              	.LCFI8:
 643              		.cfi_def_cfa_offset 0
 644              		.cfi_restore 63
 645 0054 4E800020 		blr
 646              		.cfi_endproc
 647              	.LFE1409:
 648              		.size	_ZN10GuiElement9GetScaleXEv, .-_ZN10GuiElement9GetScaleXEv
 649              		.section	.text._ZN10GuiElement9GetScaleYEv,"axG",@progbits,_ZN10GuiElement9GetScaleYEv,comdat
 650              		.align 2
 651              		.weak	_ZN10GuiElement9GetScaleYEv
 652              		.type	_ZN10GuiElement9GetScaleYEv, @function
 653              	_ZN10GuiElement9GetScaleYEv:
 654              	.LFB1410:
 655              		.loc 2 245 0
 656              		.cfi_startproc
 657              	.LVL56:
 658 0000 7C0802A6 		mflr 0
 659 0004 9421FFF0 		stwu 1,-16(1)
 660              	.LCFI9:
 661              		.cfi_def_cfa_offset 16
 662              		.cfi_register 65, 0
 663 0008 DBE10008 		stfd 31,8(1)
 664 000c 90010014 		stw 0,20(1)
 665              	.LBB1542:
 666              		.loc 2 249 0
 667 0010 81630060 		lwz 11,96(3)
 668              		.loc 2 247 0
 669 0014 C3E30040 		lfs 31,64(3)
 670              		.cfi_offset 65, 4
 671              		.cfi_offset 63, -8
 672              		.loc 2 249 0
 673 0018 2F8B0000 		cmpwi 7,11,0
 674              		.loc 2 247 0
 675 001c C0030070 		lfs 0,112(3)
 676 0020 EFFF0032 		fmuls 31,31,0
 677              	.LVL57:
 678              		.loc 2 249 0
 679 0024 419E001C 		beq- 7,.L45
 680              		.loc 2 250 0
 681 0028 812B0000 		lwz 9,0(11)
 682 002c 7D635B78 		mr 3,11
 683              	.LVL58:
 684 0030 8009007C 		lwz 0,124(9)
 685 0034 7C0903A6 		mtctr 0
 686 0038 4E800421 		bctrl
 687 003c EFFF0072 		fmuls 31,31,1
 688              	.LVL59:
 689              	.L45:
 690              	.LBE1542:
 691              		.loc 2 253 0
 692 0040 80010014 		lwz 0,20(1)
 693 0044 FC20F890 		fmr 1,31
 694 0048 CBE10008 		lfd 31,8(1)
 695              	.LVL60:
 696 004c 7C0803A6 		mtlr 0
 697 0050 38210010 		addi 1,1,16
 698              	.LCFI10:
 699              		.cfi_def_cfa_offset 0
 700              		.cfi_restore 63
 701 0054 4E800020 		blr
 702              		.cfi_endproc
 703              	.LFE1410:
 704              		.size	_ZN10GuiElement9GetScaleYEv, .-_ZN10GuiElement9GetScaleYEv
 705              		.section	.text._ZN10GuiElement6RumbleEv,"axG",@progbits,_ZN10GuiElement6RumbleEv,comdat
 706              		.align 2
 707              		.weak	_ZN10GuiElement6RumbleEv
 708              		.type	_ZN10GuiElement6RumbleEv, @function
 709              	_ZN10GuiElement6RumbleEv:
 710              	.LFB1411:
 711              		.loc 2 256 0
 712              		.cfi_startproc
 713              	.LVL61:
 714              		.loc 2 256 0
 715 0000 8863001C 		lbz 3,28(3)
 716              	.LVL62:
 717 0004 4E800020 		blr
 718              		.cfi_endproc
 719              	.LFE1411:
 720              		.size	_ZN10GuiElement6RumbleEv, .-_ZN10GuiElement6RumbleEv
 721              		.section	.text._ZN10GuiElement9SetRumbleEb,"axG",@progbits,_ZN10GuiElement9SetRumbleEb,comdat
 722              		.align 2
 723              		.weak	_ZN10GuiElement9SetRumbleEb
 724              		.type	_ZN10GuiElement9SetRumbleEb, @function
 725              	_ZN10GuiElement9SetRumbleEb:
 726              	.LFB1412:
 727              		.loc 2 259 0
 728              		.cfi_startproc
 729              	.LVL63:
 730              		.loc 2 259 0
 731 0000 9883001C 		stb 4,28(3)
 732 0004 4E800020 		blr
 733              		.cfi_endproc
 734              	.LFE1412:
 735              		.size	_ZN10GuiElement9SetRumbleEb, .-_ZN10GuiElement9SetRumbleEb
 736              		.section	.text._ZN10GuiElement13SetEffectGrowEv,"axG",@progbits,_ZN10GuiElement13SetEffectGrowEv,c
 737              		.align 2
 738              		.weak	_ZN10GuiElement13SetEffectGrowEv
 739              		.type	_ZN10GuiElement13SetEffectGrowEv, @function
 740              	_ZN10GuiElement13SetEffectGrowEv:
 741              	.LFB1413:
 742              		.loc 2 271 0
 743              		.cfi_startproc
 744              	.LVL64:
 745 0000 7C0802A6 		mflr 0
 746 0004 9421FFF8 		stwu 1,-8(1)
 747              	.LCFI11:
 748              		.cfi_def_cfa_offset 8
 749              		.cfi_register 65, 0
 750 0008 81230000 		lwz 9,0(3)
 751 000c 38800100 		li 4,256
 752 0010 38A00004 		li 5,4
 753 0014 38C0006E 		li 6,110
 754 0018 9001000C 		stw 0,12(1)
 755              		.loc 2 271 0
 756 001c 8009008C 		lwz 0,140(9)
 757              		.cfi_offset 65, 4
 758 0020 7C0903A6 		mtctr 0
 759 0024 4E800421 		bctrl
 760              	.LVL65:
 761 0028 8001000C 		lwz 0,12(1)
 762 002c 38210008 		addi 1,1,8
 763              	.LCFI12:
 764              		.cfi_def_cfa_offset 0
 765 0030 7C0803A6 		mtlr 0
 766 0034 4E800020 		blr
 767              		.cfi_endproc
 768              	.LFE1413:
 769              		.size	_ZN10GuiElement13SetEffectGrowEv, .-_ZN10GuiElement13SetEffectGrowEv
 770              		.section	.text._ZNK10GuiElement9GetEffectEv,"axG",@progbits,_ZNK10GuiElement9GetEffectEv,comdat
 771              		.align 2
 772              		.weak	_ZNK10GuiElement9GetEffectEv
 773              		.type	_ZNK10GuiElement9GetEffectEv, @function
 774              	_ZNK10GuiElement9GetEffectEv:
 775              	.LFB1414:
 776              		.loc 2 276 0
 777              		.cfi_startproc
 778              	.LVL66:
 779              		.loc 2 276 0
 780 0000 80630078 		lwz 3,120(3)
 781              	.LVL67:
 782 0004 4E800020 		blr
 783              		.cfi_endproc
 784              	.LFE1414:
 785              		.size	_ZNK10GuiElement9GetEffectEv, .-_ZNK10GuiElement9GetEffectEv
 786              		.section	.text._ZNK10GuiElement10IsAnimatedEv,"axG",@progbits,_ZNK10GuiElement10IsAnimatedEv,comda
 787              		.align 2
 788              		.weak	_ZNK10GuiElement10IsAnimatedEv
 789              		.type	_ZNK10GuiElement10IsAnimatedEv, @function
 790              	_ZNK10GuiElement10IsAnimatedEv:
 791              	.LFB1415:
 792              		.loc 2 278 0
 793              		.cfi_startproc
 794              	.LVL68:
 795 0000 7C0802A6 		mflr 0
 796 0004 9421FFF8 		stwu 1,-8(1)
 797              	.LCFI13:
 798              		.cfi_def_cfa_offset 8
 799              		.cfi_register 65, 0
 800 0008 9001000C 		stw 0,12(1)
 801              		.loc 2 278 0
 802 000c 81230000 		lwz 9,0(3)
 803 0010 80090098 		lwz 0,152(9)
 804              		.cfi_offset 65, 4
 805 0014 7C0903A6 		mtctr 0
 806 0018 4E800421 		bctrl
 807              	.LVL69:
 808 001c 7C60FE70 		srawi 0,3,31
 809 0020 7C630050 		subf 3,3,0
 810 0024 8001000C 		lwz 0,12(1)
 811 0028 54630FFE 		srwi 3,3,31
 812 002c 7C0803A6 		mtlr 0
 813 0030 38210008 		addi 1,1,8
 814              	.LCFI14:
 815              		.cfi_def_cfa_offset 0
 816 0034 4E800020 		blr
 817              		.cfi_endproc
 818              	.LFE1415:
 819              		.size	_ZNK10GuiElement10IsAnimatedEv, .-_ZNK10GuiElement10IsAnimatedEv
 820              		.section	.text._ZN10GuiElement8IsInsideEii,"axG",@progbits,_ZN10GuiElement8IsInsideEii,comdat
 821              		.align 2
 822              		.weak	_ZN10GuiElement8IsInsideEii
 823              		.type	_ZN10GuiElement8IsInsideEii, @function
 824              	_ZN10GuiElement8IsInsideEii:
 825              	.LFB1417:
 826              		.loc 2 285 0
 827              		.cfi_startproc
 828              	.LVL70:
 829 0000 7C0802A6 		mflr 0
 830 0004 9421FFE8 		stwu 1,-24(1)
 831              	.LCFI15:
 832              		.cfi_def_cfa_offset 24
 833              		.cfi_register 65, 0
 834 0008 93810008 		stw 28,8(1)
 835 000c 7CBC2B78 		mr 28,5
 836              		.cfi_offset 28, -16
 837 0010 9001001C 		stw 0,28(1)
 838 0014 93A1000C 		stw 29,12(1)
 839              		.loc 2 290 0
 840 0018 3BA00000 		li 29,0
 841              		.cfi_offset 29, -12
 842              		.cfi_offset 65, 4
 843              		.loc 2 287 0
 844 001c 81230000 		lwz 9,0(3)
 845              		.loc 2 285 0
 846 0020 93C10010 		stw 30,16(1)
 847 0024 7C9E2378 		mr 30,4
 848              		.cfi_offset 30, -8
 849              		.loc 2 287 0
 850 0028 80090010 		lwz 0,16(9)
 851              		.loc 2 285 0
 852 002c 93E10014 		stw 31,20(1)
 853              		.loc 2 285 0
 854 0030 7C7F1B78 		mr 31,3
 855              		.cfi_offset 31, -4
 856              		.loc 2 287 0
 857 0034 7C0903A6 		mtctr 0
 858 0038 4E800421 		bctrl
 859              	.LVL71:
 860              		.loc 2 290 0
 861 003c 7F83F000 		cmpw 7,3,30
 862 0040 419C0028 		blt- 7,.L56
 863              	.L52:
 864              		.loc 2 291 0 discriminator 6
 865 0044 8001001C 		lwz 0,28(1)
 866 0048 7FA3EB78 		mr 3,29
 867 004c 83810008 		lwz 28,8(1)
 868              	.LVL72:
 869 0050 7C0803A6 		mtlr 0
 870 0054 83A1000C 		lwz 29,12(1)
 871 0058 83C10010 		lwz 30,16(1)
 872              	.LVL73:
 873 005c 83E10014 		lwz 31,20(1)
 874              	.LVL74:
 875 0060 38210018 		addi 1,1,24
 876              		.cfi_remember_state
 877              	.LCFI16:
 878              		.cfi_def_cfa_offset 0
 879              		.cfi_restore 31
 880              		.cfi_restore 30
 881              		.cfi_restore 29
 882              		.cfi_restore 28
 883 0064 4E800020 		blr
 884              	.LVL75:
 885              	.L56:
 886              	.LCFI17:
 887              		.cfi_restore_state
 888              		.loc 2 288 0 discriminator 1
 889 0068 813F0000 		lwz 9,0(31)
 890 006c 7FE3FB78 		mr 3,31
 891 0070 80090010 		lwz 0,16(9)
 892 0074 7C0903A6 		mtctr 0
 893 0078 4E800421 		bctrl
 894              		.loc 2 290 0 discriminator 1
 895 007c 801F0024 		lwz 0,36(31)
 896 0080 7C030214 		add 0,3,0
 897 0084 7F9E0000 		cmpw 7,30,0
 898 0088 409CFFBC 		bge+ 7,.L52
 899              		.loc 2 289 0 discriminator 3
 900 008c 813F0000 		lwz 9,0(31)
 901 0090 7FE3FB78 		mr 3,31
 902 0094 80090014 		lwz 0,20(9)
 903 0098 7C0903A6 		mtctr 0
 904 009c 4E800421 		bctrl
 905              		.loc 2 290 0 discriminator 3
 906 00a0 7F83E000 		cmpw 7,3,28
 907 00a4 409CFFA0 		bge+ 7,.L52
 908              		.loc 2 290 0 is_stmt 0 discriminator 4
 909 00a8 813F0000 		lwz 9,0(31)
 910 00ac 7FE3FB78 		mr 3,31
 911 00b0 80090014 		lwz 0,20(9)
 912 00b4 7C0903A6 		mtctr 0
 913 00b8 4E800421 		bctrl
 914 00bc 801F0028 		lwz 0,40(31)
 915 00c0 7C030214 		add 0,3,0
 916              		.loc 2 285 0 is_stmt 1 discriminator 4
 917 00c4 7F9C0000 		cmpw 7,28,0
 918 00c8 7FA00026 		mfcr 29
 919 00cc 57BDEFFE 		rlwinm 29,29,29,1
 920 00d0 4BFFFF74 		b .L52
 921              		.cfi_endproc
 922              	.LFE1417:
 923              		.size	_ZN10GuiElement8IsInsideEii, .-_ZN10GuiElement8IsInsideEii
 924              		.section	.text._ZN10GuiElement11SetPositionEii,"axG",@progbits,_ZN10GuiElement11SetPositionEii,com
 925              		.align 2
 926              		.weak	_ZN10GuiElement11SetPositionEii
 927              		.type	_ZN10GuiElement11SetPositionEii, @function
 928              	_ZN10GuiElement11SetPositionEii:
 929              	.LFB1418:
 930              		.loc 2 295 0
 931              		.cfi_startproc
 932              	.LVL76:
 933              		.loc 2 297 0
 934 0000 9083002C 		stw 4,44(3)
 935              		.loc 2 299 0
 936              		.loc 2 298 0
 937 0004 90A30030 		stw 5,48(3)
 938              		.loc 2 299 0
 939 0008 4E800020 		blr
 940              		.cfi_endproc
 941              	.LFE1418:
 942              		.size	_ZN10GuiElement11SetPositionEii, .-_ZN10GuiElement11SetPositionEii
 943              		.section	.text._ZN10GuiElement11SetPositionEiii,"axG",@progbits,_ZN10GuiElement11SetPositionEiii,c
 944              		.align 2
 945              		.weak	_ZN10GuiElement11SetPositionEiii
 946              		.type	_ZN10GuiElement11SetPositionEiii, @function
 947              	_ZN10GuiElement11SetPositionEiii:
 948              	.LFB1419:
 949              		.loc 2 304 0
 950              		.cfi_startproc
 951              	.LVL77:
 952              		.loc 2 306 0
 953 0000 9083002C 		stw 4,44(3)
 954              		.loc 2 309 0
 955              		.loc 2 307 0
 956 0004 90A30030 		stw 5,48(3)
 957              		.loc 2 308 0
 958 0008 90C30034 		stw 6,52(3)
 959              		.loc 2 309 0
 960 000c 4E800020 		blr
 961              		.cfi_endproc
 962              	.LFE1419:
 963              		.size	_ZN10GuiElement11SetPositionEiii, .-_ZN10GuiElement11SetPositionEiii
 964              		.section	.text._ZN10GuiElement12SetAlignmentEi,"axG",@progbits,_ZN10GuiElement12SetAlignmentEi,com
 965              		.align 2
 966              		.weak	_ZN10GuiElement12SetAlignmentEi
 967              		.type	_ZN10GuiElement12SetAlignmentEi, @function
 968              	_ZN10GuiElement12SetAlignmentEi:
 969              	.LFB1421:
 970              		.loc 2 316 0
 971              		.cfi_startproc
 972              	.LVL78:
 973              		.loc 2 316 0
 974 0000 90830044 		stw 4,68(3)
 975 0004 4E800020 		blr
 976              		.cfi_endproc
 977              	.LFE1421:
 978              		.size	_ZN10GuiElement12SetAlignmentEi, .-_ZN10GuiElement12SetAlignmentEi
 979              		.section	.text._ZNK10GuiElement12GetAlignmentEv,"axG",@progbits,_ZNK10GuiElement12GetAlignmentEv,c
 980              		.align 2
 981              		.weak	_ZNK10GuiElement12GetAlignmentEv
 982              		.type	_ZNK10GuiElement12GetAlignmentEv, @function
 983              	_ZNK10GuiElement12GetAlignmentEv:
 984              	.LFB1422:
 985              		.loc 2 318 0
 986              		.cfi_startproc
 987              	.LVL79:
 988              		.loc 2 318 0
 989 0000 80630044 		lwz 3,68(3)
 990              	.LVL80:
 991 0004 4E800020 		blr
 992              		.cfi_endproc
 993              	.LFE1422:
 994              		.size	_ZNK10GuiElement12GetAlignmentEv, .-_ZNK10GuiElement12GetAlignmentEv
 995              		.section	.text._ZN8GuiFrame4hideEv,"axG",@progbits,_ZN8GuiFrame4hideEv,comdat
 996              		.align 2
 997              		.weak	_ZN8GuiFrame4hideEv
 998              		.type	_ZN8GuiFrame4hideEv, @function
 999              	_ZN8GuiFrame4hideEv:
 1000              	.LFB1432:
 1001              		.file 3 "d:/Projects/SaveGameManager/savegame-manager-gx/trunk/source/Settings/menus/../../GUI/gui
 1002              		.loc 3 81 0
 1003              		.cfi_startproc
 1004              	.LVL81:
 1005              		.loc 3 81 0
 1006 0000 4E800020 		blr
 1007              		.cfi_endproc
 1008              	.LFE1432:
 1009              		.size	_ZN8GuiFrame4hideEv, .-_ZN8GuiFrame4hideEv
 1010              		.section	.text._ZN8GuiFrame4execEv,"axG",@progbits,_ZN8GuiFrame4execEv,comdat
 1011              		.align 2
 1012              		.weak	_ZN8GuiFrame4execEv
 1013              		.type	_ZN8GuiFrame4execEv, @function
 1014              	_ZN8GuiFrame4execEv:
 1015              	.LFB1433:
 1016              		.loc 3 83 0
 1017              		.cfi_startproc
 1018              	.LVL82:
 1019              		.loc 3 83 0
 1020 0000 4E800020 		blr
 1021              		.cfi_endproc
 1022              	.LFE1433:
 1023              		.size	_ZN8GuiFrame4execEv, .-_ZN8GuiFrame4execEv
 1024              		.section	.text._ZN8GuiFrame12updateEventsEv,"axG",@progbits,_ZN8GuiFrame12updateEventsEv,comdat
 1025              		.align 2
 1026              		.weak	_ZN8GuiFrame12updateEventsEv
 1027              		.type	_ZN8GuiFrame12updateEventsEv, @function
 1028              	_ZN8GuiFrame12updateEventsEv:
 1029              	.LFB1434:
 1030              		.loc 3 85 0
 1031              		.cfi_startproc
 1032              	.LVL83:
 1033              		.loc 3 85 0
 1034 0000 4E800020 		blr
 1035              		.cfi_endproc
 1036              	.LFE1434:
 1037              		.size	_ZN8GuiFrame12updateEventsEv, .-_ZN8GuiFrame12updateEventsEv
 1038              		.section	.text._ZN18UpdateSettingsMenuD1Ev,"axG",@progbits,_ZN18UpdateSettingsMenuD1Ev,comdat
 1039              		.align 2
 1040              		.weak	_ZThn176_N18UpdateSettingsMenuD1Ev
 1041              		.type	_ZThn176_N18UpdateSettingsMenuD1Ev, @function
 1042              	_ZThn176_N18UpdateSettingsMenuD1Ev:
 1043              	.LFB2019:
 1044              		.cfi_startproc
 1045 0000 3863FF50 		addi 3,3,-176
 1046 0004 48000000 		b .LTHUNK0
 1047              		.cfi_endproc
 1048              	.LFE2019:
 1049              		.size	_ZThn176_N18UpdateSettingsMenuD1Ev, .-_ZThn176_N18UpdateSettingsMenuD1Ev
 1050              		.section	.text._ZN18UpdateSettingsMenuD2Ev,"axG",@progbits,_ZN18UpdateSettingsMenuD5Ev,comdat
 1051              		.align 2
 1052              		.weak	_ZN18UpdateSettingsMenuD2Ev
 1053              		.type	_ZN18UpdateSettingsMenuD2Ev, @function
 1054              	_ZN18UpdateSettingsMenuD2Ev:
 1055              	.LFB1917:
 1056              		.file 4 "d:/Projects/SaveGameManager/savegame-manager-gx/trunk/source/Settings/menus/UpdateSetting
 1057              		.loc 4 31 0
 1058              		.cfi_startproc
 1059              	.LVL84:
 1060 0000 7C0802A6 		mflr 0
 1061 0004 9421FFF8 		stwu 1,-8(1)
 1062              	.LCFI18:
 1063              		.cfi_def_cfa_offset 8
 1064              		.cfi_register 65, 0
 1065              	.LBB1544:
 1066 0008 3D600000 		lis 11,_ZTV18UpdateSettingsMenu+8@ha
 1067 000c 396B0008 		la 11,_ZTV18UpdateSettingsMenu+8@l(11)
 1068              	.LBE1544:
 1069 0010 9001000C 		stw 0,12(1)
 1070              	.LBB1545:
 1071              		.loc 4 31 0
 1072 0014 380B00F0 		addi 0,11,240
 1073              		.cfi_offset 65, 4
 1074 0018 900300B0 		stw 0,176(3)
 1075 001c 91630000 		stw 11,0(3)
 1076 0020 48000001 		bl _ZN15SettingsBrowserD2Ev
 1077              	.LVL85:
 1078              	.LBE1545:
 1079 0024 8001000C 		lwz 0,12(1)
 1080 0028 38210008 		addi 1,1,8
 1081              	.LCFI19:
 1082              		.cfi_def_cfa_offset 0
 1083 002c 7C0803A6 		mtlr 0
 1084 0030 4E800020 		blr
 1085              		.cfi_endproc
 1086              	.LFE1917:
 1087              		.size	_ZN18UpdateSettingsMenuD2Ev, .-_ZN18UpdateSettingsMenuD2Ev
 1088              		.section	".text"
 1089              		.align 2
 1090              		.globl _ZN18UpdateSettingsMenu15SetOptionValuesEv
 1091              		.type	_ZN18UpdateSettingsMenu15SetOptionValuesEv, @function
 1092              	_ZN18UpdateSettingsMenu15SetOptionValuesEv:
 1093              	.LFB1600:
 1094              		.file 5 "d:/Projects/SaveGameManager/savegame-manager-gx/trunk/source/Settings/menus/UpdateSetting
 1095              		.loc 5 70 0
 1096              		.cfi_startproc
 1097              	.LVL86:
 1098 0000 7C0802A6 		mflr 0
 1099 0004 9421FFE8 		stwu 1,-24(1)
 1100              	.LCFI20:
 1101              		.cfi_def_cfa_offset 24
 1102              		.cfi_register 65, 0
 1103 0008 93C10010 		stw 30,16(1)
 1104              	.LBB1546:
 1105              		.loc 5 74 0
 1106 000c 3FC00000 		lis 30,Settings@ha
 1107              		.cfi_offset 30, -8
 1108              	.LBE1546:
 1109              		.loc 5 70 0
 1110 0010 9001001C 		stw 0,28(1)
 1111              	.LBB1547:
 1112              		.loc 5 74 0
 1113 0014 3BDE0000 		la 30,Settings@l(30)
 1114              	.LBE1547:
 1115              		.loc 5 70 0
 1116 0018 93A1000C 		stw 29,12(1)
 1117              	.LBB1548:
 1118              		.loc 5 74 0
 1119 001c 3FA00000 		lis 29,.LANCHOR0@ha
 1120              		.cfi_offset 29, -12
 1121              		.cfi_offset 65, 4
 1122 0020 A81E051C 		lha 0,1308(30)
 1123 0024 3BBD0018 		la 29,.LANCHOR0@l(29)
 1124              	.LBE1548:
 1125              		.loc 5 70 0
 1126 0028 93810008 		stw 28,8(1)
 1127              	.LBB1549:
 1128              		.loc 5 74 0
 1129 002c 5400103A 		slwi 0,0,2
 1130 0030 838300CC 		lwz 28,204(3)
 1131              		.cfi_offset 28, -16
 1132              	.LVL87:
 1133              	.LBE1549:
 1134              		.loc 5 70 0
 1135 0034 93E10014 		stw 31,20(1)
 1136              		.loc 5 70 0
 1137 0038 7C7F1B78 		mr 31,3
 1138              		.cfi_offset 31, -4
 1139              	.LBB1550:
 1140              		.loc 5 74 0
 1141 003c 7C7D002E 		lwzx 3,29,0
 1142              	.LVL88:
 1143 0040 48000001 		bl gettext
 1144 0044 38800000 		li 4,0
 1145 0048 7C651B78 		mr 5,3
 1146 004c 7F83E378 		mr 3,28
 1147 0050 4CC63182 		crxor 6,6,6
 1148 0054 48000001 		bl _ZN10OptionList8SetValueEiPKcz
 1149              		.loc 5 77 0
 1150 0058 A81E051E 		lha 0,1310(30)
 1151 005c 2F800000 		cmpwi 7,0,0
 1152 0060 419E00D8 		beq- 7,.L71
 1153              		.loc 5 79 0
 1154 0064 2F800001 		cmpwi 7,0,1
 1155 0068 419E00F8 		beq- 7,.L72
 1156              	.LVL89:
 1157              		.loc 5 82 0
 1158 006c 3CA00000 		lis 5,.LC6@ha
 1159 0070 807F00CC 		lwz 3,204(31)
 1160 0074 38800001 		li 4,1
 1161 0078 38A50010 		la 5,.LC6@l(5)
 1162 007c 4CC63182 		crxor 6,6,6
 1163 0080 48000001 		bl _ZN10OptionList8SetValueEiPKcz
 1164              	.L68:
 1165              		.loc 5 85 0
 1166 0084 A93E0520 		lha 9,1312(30)
 1167 0088 839F00CC 		lwz 28,204(31)
 1168              	.LVL90:
 1169 008c 5529103A 		slwi 9,9,2
 1170 0090 7D3D4A14 		add 9,29,9
 1171 0094 80690008 		lwz 3,8(9)
 1172 0098 48000001 		bl gettext
 1173 009c 38800002 		li 4,2
 1174 00a0 7C651B78 		mr 5,3
 1175 00a4 7F83E378 		mr 3,28
 1176 00a8 4CC63182 		crxor 6,6,6
 1177 00ac 48000001 		bl _ZN10OptionList8SetValueEiPKcz
 1178              		.loc 5 88 0
 1179 00b0 A81E0522 		lha 0,1314(30)
 1180 00b4 839F00CC 		lwz 28,204(31)
 1181              	.LVL91:
 1182 00b8 5400103A 		slwi 0,0,2
 1183 00bc 7C7D002E 		lwzx 3,29,0
 1184 00c0 48000001 		bl gettext
 1185 00c4 38800003 		li 4,3
 1186 00c8 7C651B78 		mr 5,3
 1187 00cc 7F83E378 		mr 3,28
 1188 00d0 4CC63182 		crxor 6,6,6
 1189 00d4 48000001 		bl _ZN10OptionList8SetValueEiPKcz
 1190              		.loc 5 91 0
 1191 00d8 A81E0524 		lha 0,1316(30)
 1192 00dc 83DF00CC 		lwz 30,204(31)
 1193              	.LVL92:
 1194 00e0 5400103A 		slwi 0,0,2
 1195 00e4 7C7D002E 		lwzx 3,29,0
 1196 00e8 48000001 		bl gettext
 1197 00ec 38800004 		li 4,4
 1198 00f0 7C651B78 		mr 5,3
 1199 00f4 7FC3F378 		mr 3,30
 1200 00f8 4CC63182 		crxor 6,6,6
 1201 00fc 48000001 		bl _ZN10OptionList8SetValueEiPKcz
 1202              	.LVL93:
 1203              		.loc 5 94 0
 1204 0100 807F00CC 		lwz 3,204(31)
 1205 0104 3CA00000 		lis 5,.LC7@ha
 1206 0108 38800005 		li 4,5
 1207 010c 38A5001C 		la 5,.LC7@l(5)
 1208 0110 4CC63182 		crxor 6,6,6
 1209 0114 48000001 		bl _ZN10OptionList8SetValueEiPKcz
 1210              	.LBE1550:
 1211              		.loc 5 95 0
 1212 0118 8001001C 		lwz 0,28(1)
 1213 011c 83810008 		lwz 28,8(1)
 1214 0120 7C0803A6 		mtlr 0
 1215 0124 83A1000C 		lwz 29,12(1)
 1216 0128 83C10010 		lwz 30,16(1)
 1217 012c 83E10014 		lwz 31,20(1)
 1218              	.LVL94:
 1219 0130 38210018 		addi 1,1,24
 1220              		.cfi_remember_state
 1221              	.LCFI21:
 1222              		.cfi_def_cfa_offset 0
 1223              		.cfi_restore 31
 1224              		.cfi_restore 30
 1225              		.cfi_restore 29
 1226              		.cfi_restore 28
 1227 0134 4E800020 		blr
 1228              	.LVL95:
 1229              	.L71:
 1230              	.LCFI22:
 1231              		.cfi_restore_state
 1232              	.LBB1551:
 1233              		.loc 5 78 0
 1234 0138 3C600000 		lis 3,.LC4@ha
 1235 013c 839F00CC 		lwz 28,204(31)
 1236              	.LVL96:
 1237 0140 38630000 		la 3,.LC4@l(3)
 1238              	.L70:
 1239              		.loc 5 80 0
 1240 0144 48000001 		bl gettext
 1241 0148 38800001 		li 4,1
 1242 014c 7C651B78 		mr 5,3
 1243 0150 7F83E378 		mr 3,28
 1244 0154 4CC63182 		crxor 6,6,6
 1245 0158 48000001 		bl _ZN10OptionList8SetValueEiPKcz
 1246 015c 4BFFFF28 		b .L68
 1247              	.LVL97:
 1248              	.L72:
 1249 0160 3C600000 		lis 3,.LC5@ha
 1250 0164 839F00CC 		lwz 28,204(31)
 1251              	.LVL98:
 1252 0168 38630004 		la 3,.LC5@l(3)
 1253 016c 4BFFFFD8 		b .L70
 1254              	.LBE1551:
 1255              		.cfi_endproc
 1256              	.LFE1600:
 1257              		.size	_ZN18UpdateSettingsMenu15SetOptionValuesEv, .-_ZN18UpdateSettingsMenu15SetOptionValuesEv
 1258              		.align 2
 1259              		.globl _ZN18UpdateSettingsMenu15SetupOptionNameEv
 1260              		.type	_ZN18UpdateSettingsMenu15SetupOptionNameEv, @function
 1261              	_ZN18UpdateSettingsMenu15SetupOptionNameEv:
 1262              	.LFB1599:
 1263              		.loc 5 57 0
 1264              		.cfi_startproc
 1265              	.LVL99:
 1266 0170 7C0802A6 		mflr 0
 1267 0174 9421FFF0 		stwu 1,-16(1)
 1268              	.LCFI23:
 1269              		.cfi_def_cfa_offset 16
 1270              		.cfi_register 65, 0
 1271 0178 93C10008 		stw 30,8(1)
 1272 017c 90010014 		stw 0,20(1)
 1273 0180 93E1000C 		stw 31,12(1)
 1274              		.loc 5 57 0
 1275 0184 7C7F1B78 		mr 31,3
 1276              		.cfi_offset 31, -4
 1277              		.cfi_offset 65, 4
 1278              		.cfi_offset 30, -8
 1279              	.LBB1552:
 1280              		.loc 5 59 0
 1281 0188 83C300CC 		lwz 30,204(3)
 1282              	.LVL100:
 1283 018c 3C600000 		lis 3,.LC8@ha
 1284              	.LVL101:
 1285 0190 38630020 		la 3,.LC8@l(3)
 1286 0194 48000001 		bl gettext
 1287 0198 38800000 		li 4,0
 1288 019c 7C651B78 		mr 5,3
 1289 01a0 7FC3F378 		mr 3,30
 1290 01a4 4CC63182 		crxor 6,6,6
 1291 01a8 48000001 		bl _ZN10OptionList7SetNameEiPKcz
 1292              		.loc 5 60 0
 1293 01ac 3C600000 		lis 3,.LC9@ha
 1294 01b0 83DF00CC 		lwz 30,204(31)
 1295              	.LVL102:
 1296 01b4 38630030 		la 3,.LC9@l(3)
 1297 01b8 48000001 		bl gettext
 1298 01bc 38800001 		li 4,1
 1299 01c0 7C651B78 		mr 5,3
 1300 01c4 7FC3F378 		mr 3,30
 1301 01c8 4CC63182 		crxor 6,6,6
 1302 01cc 48000001 		bl _ZN10OptionList7SetNameEiPKcz
 1303              		.loc 5 61 0
 1304 01d0 3C600000 		lis 3,.LC10@ha
 1305 01d4 83DF00CC 		lwz 30,204(31)
 1306              	.LVL103:
 1307 01d8 3863003C 		la 3,.LC10@l(3)
 1308 01dc 48000001 		bl gettext
 1309 01e0 38800002 		li 4,2
 1310 01e4 7C651B78 		mr 5,3
 1311 01e8 7FC3F378 		mr 3,30
 1312 01ec 4CC63182 		crxor 6,6,6
 1313 01f0 48000001 		bl _ZN10OptionList7SetNameEiPKcz
 1314              		.loc 5 62 0
 1315 01f4 3C600000 		lis 3,.LC11@ha
 1316 01f8 83DF00CC 		lwz 30,204(31)
 1317              	.LVL104:
 1318 01fc 3863004C 		la 3,.LC11@l(3)
 1319 0200 48000001 		bl gettext
 1320 0204 38800003 		li 4,3
 1321 0208 7C651B78 		mr 5,3
 1322 020c 7FC3F378 		mr 3,30
 1323 0210 4CC63182 		crxor 6,6,6
 1324 0214 48000001 		bl _ZN10OptionList7SetNameEiPKcz
 1325              		.loc 5 63 0
 1326 0218 3C600000 		lis 3,.LC12@ha
 1327 021c 83DF00CC 		lwz 30,204(31)
 1328              	.LVL105:
 1329 0220 3863005C 		la 3,.LC12@l(3)
 1330 0224 48000001 		bl gettext
 1331 0228 38800004 		li 4,4
 1332 022c 7C651B78 		mr 5,3
 1333 0230 7FC3F378 		mr 3,30
 1334 0234 4CC63182 		crxor 6,6,6
 1335 0238 48000001 		bl _ZN10OptionList7SetNameEiPKcz
 1336              		.loc 5 64 0
 1337 023c 3C600000 		lis 3,.LC13@ha
 1338 0240 83DF00CC 		lwz 30,204(31)
 1339              	.LVL106:
 1340 0244 3863006C 		la 3,.LC13@l(3)
 1341 0248 48000001 		bl gettext
 1342 024c 38800005 		li 4,5
 1343 0250 7C651B78 		mr 5,3
 1344 0254 7FC3F378 		mr 3,30
 1345 0258 4CC63182 		crxor 6,6,6
 1346 025c 48000001 		bl _ZN10OptionList7SetNameEiPKcz
 1347              		.loc 5 66 0
 1348 0260 813F0000 		lwz 9,0(31)
 1349 0264 7FE3FB78 		mr 3,31
 1350 0268 800900E0 		lwz 0,224(9)
 1351 026c 7C0903A6 		mtctr 0
 1352 0270 4E800421 		bctrl
 1353              	.LBE1552:
 1354              		.loc 5 67 0
 1355 0274 80010014 		lwz 0,20(1)
 1356 0278 83C10008 		lwz 30,8(1)
 1357 027c 7C0803A6 		mtlr 0
 1358 0280 83E1000C 		lwz 31,12(1)
 1359              	.LVL107:
 1360 0284 38210010 		addi 1,1,16
 1361              	.LCFI24:
 1362              		.cfi_def_cfa_offset 0
 1363              		.cfi_restore 31
 1364              		.cfi_restore 30
 1365 0288 4E800020 		blr
 1366              		.cfi_endproc
 1367              	.LFE1599:
 1368              		.size	_ZN18UpdateSettingsMenu15SetupOptionNameEv, .-_ZN18UpdateSettingsMenu15SetupOptionNameEv
 1369              		.section	.text._ZN18UpdateSettingsMenuD0Ev,"axG",@progbits,_ZN18UpdateSettingsMenuD0Ev,comdat
 1370              		.align 2
 1371              		.weak	_ZThn176_N18UpdateSettingsMenuD0Ev
 1372              		.type	_ZThn176_N18UpdateSettingsMenuD0Ev, @function
 1373              	_ZThn176_N18UpdateSettingsMenuD0Ev:
 1374              	.LFB2021:
 1375              		.cfi_startproc
 1376 0000 3863FF50 		addi 3,3,-176
 1377 0004 48000004 		b .LTHUNK1
 1378              		.cfi_endproc
 1379              	.LFE2021:
 1380              		.size	_ZThn176_N18UpdateSettingsMenuD0Ev, .-_ZThn176_N18UpdateSettingsMenuD0Ev
 1381              		.align 2
 1382              		.weak	_ZN18UpdateSettingsMenuD0Ev
 1383              		.type	_ZN18UpdateSettingsMenuD0Ev, @function
 1384              	_ZN18UpdateSettingsMenuD0Ev:
 1385              	.LFB1919:
 1386              		.loc 4 31 0
 1387              		.cfi_startproc
 1388              	.LVL108:
 1389 0008 7C0802A6 		mflr 0
 1390 000c 9421FFF0 		stwu 1,-16(1)
 1391              	.LCFI25:
 1392              		.cfi_def_cfa_offset 16
 1393              		.cfi_register 65, 0
 1394              	.LBB1556:
 1395              	.LBB1557:
 1396              	.LBB1558:
 1397 0010 3D200000 		lis 9,_ZTV18UpdateSettingsMenu+8@ha
 1398 0014 39290008 		la 9,_ZTV18UpdateSettingsMenu+8@l(9)
 1399              	.LBE1558:
 1400              	.LBE1557:
 1401              	.LBE1556:
 1402 0018 93E1000C 		stw 31,12(1)
 1403 001c 90010014 		stw 0,20(1)
 1404              	.LBB1563:
 1405              	.LBB1561:
 1406              	.LBB1559:
 1407              		.loc 4 31 0
 1408 0020 380900F0 		addi 0,9,240
 1409              		.cfi_offset 65, 4
 1410              		.cfi_offset 31, -4
 1411 0024 900300B0 		stw 0,176(3)
 1412              	.LBE1559:
 1413              	.LBE1561:
 1414              	.LBE1563:
 1415 0028 7C7F1B78 		mr 31,3
 1416              	.LVL109:
 1417              	.LBB1564:
 1418              	.LBB1562:
 1419              	.LBB1560:
 1420 002c 91230000 		stw 9,0(3)
 1421 0030 48000001 		bl _ZN15SettingsBrowserD2Ev
 1422              	.LVL110:
 1423              	.LBE1560:
 1424              	.LBE1562:
 1425              	.LBE1564:
 1426 0034 7FE3FB78 		mr 3,31
 1427 0038 48000001 		bl _ZdlPv
 1428 003c 80010014 		lwz 0,20(1)
 1429 0040 83E1000C 		lwz 31,12(1)
 1430              	.LVL111:
 1431 0044 7C0803A6 		mtlr 0
 1432 0048 38210010 		addi 1,1,16
 1433              	.LCFI26:
 1434              		.cfi_def_cfa_offset 0
 1435              		.cfi_restore 31
 1436 004c 4E800020 		blr
 1437              		.cfi_endproc
 1438              	.LFE1919:
 1439              		.size	_ZN18UpdateSettingsMenuD0Ev, .-_ZN18UpdateSettingsMenuD0Ev
 1440              		.section	".text"
 1441              		.align 2
 1442              		.globl _ZN18UpdateSettingsMenu14OnBrowserClickEP16GuiOptionBrowseri
 1443              		.type	_ZN18UpdateSettingsMenu14OnBrowserClickEP16GuiOptionBrowseri, @function
 1444              	_ZN18UpdateSettingsMenu14OnBrowserClickEP16GuiOptionBrowseri:
 1445              	.LFB1601:
 1446              		.loc 5 98 0
 1447              		.cfi_startproc
 1448              		.cfi_personality 0,__gxx_personality_v0
 1449              		.cfi_lsda 0,.LLSDA1601
 1450              	.LVL112:
 1451              	.LBB2140:
 1452              	.LBB2141:
 1453              		.loc 5 101 0
 1454 028c 2B850005 		cmplwi 7,5,5
 1455              	.LBE2141:
 1456              	.LBE2140:
 1457              		.loc 5 98 0
 1458 0290 7C0802A6 		mflr 0
 1459 0294 9421FF00 		stwu 1,-256(1)
 1460              	.LCFI27:
 1461              		.cfi_def_cfa_offset 256
 1462              		.cfi_register 65, 0
 1463 0298 93C100F8 		stw 30,248(1)
 1464 029c 7C7E1B78 		mr 30,3
 1465              		.cfi_offset 30, -8
 1466 02a0 90010104 		stw 0,260(1)
 1467 02a4 934100E8 		stw 26,232(1)
 1468 02a8 936100EC 		stw 27,236(1)
 1469 02ac 938100F0 		stw 28,240(1)
 1470 02b0 93A100F4 		stw 29,244(1)
 1471 02b4 93E100FC 		stw 31,252(1)
 1472              	.LBB2624:
 1473              	.LBB2616:
 1474              		.loc 5 101 0
 1475 02b8 419D00E8 		bgt- 7,.L78
 1476              		.cfi_offset 31, -4
 1477              		.cfi_offset 29, -12
 1478              		.cfi_offset 28, -16
 1479              		.cfi_offset 27, -20
 1480              		.cfi_offset 26, -24
 1481              		.cfi_offset 65, 4
 1482 02bc 3D200000 		lis 9,.L85@ha
 1483 02c0 54A5103A 		slwi 5,5,2
 1484              	.LVL113:
 1485 02c4 39290000 		la 9,.L85@l(9)
 1486 02c8 7C09282E 		lwzx 0,9,5
 1487 02cc 7D204A14 		add 9,0,9
 1488 02d0 7D2903A6 		mtctr 9
 1489 02d4 4E800420 		bctr
 1490              		.section	.rodata
 1491              		.align 2
 1492              		.align 2
 1493              	.L85:
 1494 0000 000005D0 		.long .L79-.L85
 1495 0004 000006C8 		.long .L80-.L85
 1496 0008 0000063C 		.long .L81-.L85
 1497 000c 0000066C 		.long .L82-.L85
 1498 0010 000003EC 		.long .L83-.L85
 1499 0014 00000454 		.long .L84-.L85
 1500              		.section	".text"
 1501              	.LVL114:
 1502              	.L375:
 1503              	.LBB2142:
 1504              	.LBB2143:
 1505              	.LBB2144:
 1506              	.LBB2145:
 1507              	.LBB2146:
 1508              	.LBB2147:
 1509              	.LBB2148:
 1510              		.loc 5 164 0
 1511 02d8 38600000 		li 3,0
 1512 02dc 7F84E378 		mr 4,28
 1513              	.LEHB0:
 1514 02e0 48000001 		bl _Z11UpdateFilesbP12UpdateWindow
 1515 02e4 2F830000 		cmpwi 7,3,0
 1516 02e8 41BE007C 		beq+ 7,.L260
 1517              		.loc 5 165 0
 1518 02ec 3C600000 		lis 3,.LC26@ha
 1519 02f0 38630148 		la 3,.LC26@l(3)
 1520 02f4 48000001 		bl gettext
 1521 02f8 38A1001E 		addi 5,1,30
 1522 02fc 7C641B78 		mr 4,3
 1523 0300 38610038 		addi 3,1,56
 1524 0304 48000001 		bl _ZNSsC1EPKcRKSaIcE
 1525              	.LEHE0:
 1526 0308 38610034 		addi 3,1,52
 1527 030c 7FA4EB78 		mr 4,29
 1528 0310 38A1001D 		addi 5,1,29
 1529              	.LEHB1:
 1530 0314 48000001 		bl _ZNSsC1EPKcRKSaIcE
 1531              	.LEHE1:
 1532              		.loc 5 165 0 is_stmt 0 discriminator 2
 1533 0318 7F83E378 		mr 3,28
 1534 031c 38810038 		addi 4,1,56
 1535 0320 38A10034 		addi 5,1,52
 1536              	.LEHB2:
 1537 0324 48000001 		bl _ZN12UpdateWindow11ShowMessageESsSs
 1538              	.LEHE2:
 1539              	.LVL115:
 1540              	.LBB2149:
 1541              	.LBB2150:
 1542              	.LBB2151:
 1543              	.LBB2152:
 1544              	.LBB2153:
 1545              	.LBB2154:
 1546              		.file 6 "d:\\devkitpro\\devkitppc\\bin\\../lib/gcc/powerpc-eabi/4.6.3/../../../../powerpc-eabi/inc
 1547              		.loc 6 288 0 is_stmt 1
 1548 0328 81210034 		lwz 9,52(1)
 1549              	.LBE2154:
 1550              	.LBE2153:
 1551              	.LBE2152:
 1552              		.loc 6 534 0
 1553 032c 3869FFF4 		addi 3,9,-12
 1554              	.LVL116:
 1555              	.LBB2155:
 1556              	.LBB2156:
 1557              		.loc 6 235 0
 1558 0330 7F83F800 		cmpw 7,3,31
 1559 0334 409E0B08 		bne- 7,.L366
 1560              	.LVL117:
 1561              	.L244:
 1562              	.LBE2156:
 1563              	.LBE2155:
 1564              	.LBE2151:
 1565              	.LBE2150:
 1566              	.LBE2149:
 1567              	.LBB2167:
 1568              	.LBB2168:
 1569              	.LBB2169:
 1570              	.LBB2170:
 1571              	.LBB2171:
 1572              	.LBB2172:
 1573              		.loc 6 288 0
 1574 0338 81210038 		lwz 9,56(1)
 1575              	.LBE2172:
 1576              	.LBE2171:
 1577              	.LBE2170:
 1578              		.loc 6 534 0
 1579 033c 3869FFF4 		addi 3,9,-12
 1580              	.LVL118:
 1581              	.LBB2173:
 1582              	.LBB2174:
 1583              		.loc 6 235 0
 1584 0340 7F83F800 		cmpw 7,3,31
 1585 0344 41BE0020 		beq+ 7,.L260
 1586              	.LVL119:
 1587              	.LBB2175:
 1588              	.LBB2176:
 1589              	.LBB2177:
 1590              		.file 7 "d:\\devkitpro\\devkitppc\\bin\\../lib/gcc/powerpc-eabi/4.6.3/../../../../powerpc-eabi/inc
 1591              		.loc 7 66 0
 1592 0348 8169FFFC 		lwz 11,-4(9)
 1593              	.LVL120:
 1594              	.LBE2177:
 1595              	.LBE2176:
 1596              	.LBE2175:
 1597              		.loc 6 240 0
 1598 034c 2F8B0000 		cmpwi 7,11,0
 1599              	.LBB2180:
 1600              	.LBB2179:
 1601              	.LBB2178:
 1602              		.loc 7 67 0
 1603 0350 396BFFFF 		addi 11,11,-1
 1604 0354 9169FFFC 		stw 11,-4(9)
 1605              	.LBE2178:
 1606              	.LBE2179:
 1607              	.LBE2180:
 1608              		.loc 6 240 0
 1609 0358 41BD000C 		bgt+ 7,.L260
 1610              		.loc 6 244 0
 1611 035c 38810009 		addi 4,1,9
 1612 0360 48000001 		bl _ZNSs4_Rep10_M_destroyERKSaIcE
 1613              	.LVL121:
 1614              	.L260:
 1615              	.LBE2174:
 1616              	.LBE2173:
 1617              	.LBE2169:
 1618              	.LBE2168:
 1619              	.LBE2167:
 1620              	.LBE2148:
 1621              	.LBE2147:
 1622              	.LBE2146:
 1623              	.LBE2145:
 1624              	.LBB2335:
 1625              	.LBB2336:
 1626              		.file 8 "d:/Projects/SaveGameManager/savegame-manager-gx/trunk/source/Settings/menus/../../Control
 1627              		.loc 8 27 0
 1628 0364 3FE00000 		lis 31,_ZN11Application8instanceE@ha
 1629 0368 83BF0000 		lwz 29,_ZN11Application8instanceE@l(31)
 1630 036c 2F9D0000 		cmpwi 7,29,0
 1631 0370 419E06A8 		beq- 7,.L367
 1632              	.L261:
 1633              	.LBE2336:
 1634              	.LBE2335:
 1635              		.loc 5 179 0
 1636 0374 7FA3EB78 		mr 3,29
 1637 0378 7F84E378 		mr 4,28
 1638              	.LEHB3:
 1639 037c 48000001 		bl _ZN11Application13PushForDeleteEP10GuiElement
 1640              	.LBB2338:
 1641              	.LBB2339:
 1642              		.loc 8 27 0
 1643 0380 83BF0000 		lwz 29,_ZN11Application8instanceE@l(31)
 1644 0384 2F9D0000 		cmpwi 7,29,0
 1645 0388 419E0678 		beq- 7,.L368
 1646              	.L263:
 1647              	.LBE2339:
 1648              	.LBE2338:
 1649              		.loc 5 180 0
 1650 038c 813D0000 		lwz 9,0(29)
 1651 0390 7FA3EB78 		mr 3,29
 1652 0394 800900D8 		lwz 0,216(9)
 1653 0398 7C0903A6 		mtctr 0
 1654 039c 4E800421 		bctrl
 1655              	.LVL122:
 1656              	.L78:
 1657              	.LBE2144:
 1658              	.LBE2143:
 1659              	.LBE2142:
 1660              	.LBE2616:
 1661              		.loc 5 187 0
 1662 03a0 813E0000 		lwz 9,0(30)
 1663 03a4 7FC3F378 		mr 3,30
 1664 03a8 800900E0 		lwz 0,224(9)
 1665 03ac 7C0903A6 		mtctr 0
 1666 03b0 4E800421 		bctrl
 1667              	.LBE2624:
 1668              		.loc 5 188 0
 1669 03b4 80010104 		lwz 0,260(1)
 1670 03b8 834100E8 		lwz 26,232(1)
 1671 03bc 7C0803A6 		mtlr 0
 1672 03c0 836100EC 		lwz 27,236(1)
 1673 03c4 838100F0 		lwz 28,240(1)
 1674 03c8 83A100F4 		lwz 29,244(1)
 1675 03cc 83C100F8 		lwz 30,248(1)
 1676              	.LVL123:
 1677 03d0 83E100FC 		lwz 31,252(1)
 1678 03d4 38210100 		addi 1,1,256
 1679              		.cfi_remember_state
 1680              	.LCFI28:
 1681              		.cfi_def_cfa_offset 0
 1682              		.cfi_restore 31
 1683              		.cfi_restore 30
 1684              		.cfi_restore 29
 1685              		.cfi_restore 28
 1686              		.cfi_restore 27
 1687              		.cfi_restore 26
 1688 03d8 4E800020 		blr
 1689              	.LVL124:
 1690              	.L83:
 1691              	.LCFI29:
 1692              		.cfi_restore_state
 1693              	.LBB2625:
 1694              	.LBB2617:
 1695              	.LBB2609:
 1696              		.loc 5 150 0
 1697 03dc 3D200000 		lis 9,Settings@ha
 1698 03e0 39290000 		la 9,Settings@l(9)
 1699 03e4 A1690524 		lhz 11,1316(9)
 1700 03e8 380B0001 		addi 0,11,1
 1701 03ec 7C000734 		extsh 0,0
 1702 03f0 2F800001 		cmpwi 7,0,1
 1703 03f4 B0090524 		sth 0,1316(9)
 1704 03f8 40BDFFA8 		ble- 7,.L78
 1705              		.loc 5 150 0 is_stmt 0 discriminator 1
 1706 03fc 38000000 		li 0,0
 1707              	.LBE2609:
 1708              	.LBE2617:
 1709              		.loc 5 187 0 is_stmt 1 discriminator 1
 1710 0400 7FC3F378 		mr 3,30
 1711              	.LVL125:
 1712              	.LBB2618:
 1713              	.LBB2610:
 1714              		.loc 5 150 0 discriminator 1
 1715 0404 B0090524 		sth 0,1316(9)
 1716              	.LBE2610:
 1717              	.LBE2618:
 1718              		.loc 5 187 0 discriminator 1
 1719 0408 813E0000 		lwz 9,0(30)
 1720 040c 800900E0 		lwz 0,224(9)
 1721 0410 7C0903A6 		mtctr 0
 1722 0414 4E800421 		bctrl
 1723              	.LVL126:
 1724              	.LBE2625:
 1725              		.loc 5 188 0 discriminator 1
 1726 0418 80010104 		lwz 0,260(1)
 1727 041c 834100E8 		lwz 26,232(1)
 1728 0420 7C0803A6 		mtlr 0
 1729 0424 836100EC 		lwz 27,236(1)
 1730 0428 838100F0 		lwz 28,240(1)
 1731 042c 83A100F4 		lwz 29,244(1)
 1732 0430 83C100F8 		lwz 30,248(1)
 1733              	.LVL127:
 1734 0434 83E100FC 		lwz 31,252(1)
 1735 0438 38210100 		addi 1,1,256
 1736              		.cfi_remember_state
 1737              		.cfi_restore 26
 1738              		.cfi_restore 27
 1739              		.cfi_restore 28
 1740              		.cfi_restore 29
 1741              		.cfi_restore 30
 1742              		.cfi_restore 31
 1743              	.LCFI30:
 1744              		.cfi_def_cfa_offset 0
 1745 043c 4E800020 		blr
 1746              	.LVL128:
 1747              	.L84:
 1748              	.LCFI31:
 1749              		.cfi_restore_state
 1750              	.LBB2626:
 1751              	.LBB2619:
 1752              	.LBB2611:
 1753              		.loc 5 153 0
 1754 0440 3860014C 		li 3,332
 1755              	.LVL129:
 1756 0444 48000001 		bl _Znwj
 1757              	.LEHE3:
 1758              	.LVL130:
 1759 0448 7C7C1B78 		mr 28,3
 1760              	.LEHB4:
 1761 044c 48000001 		bl _ZN12UpdateWindowC1Ev
 1762              	.LEHE4:
 1763              	.LVL131:
 1764              	.LBB2356:
 1765              		.loc 5 154 0 discriminator 1
 1766 0450 2F9C0000 		cmpwi 7,28,0
 1767 0454 41BEFF4C 		beq- 7,.L78
 1768              	.LBB2350:
 1769              	.LBB2342:
 1770              		.loc 5 156 0
 1771 0458 7F83E378 		mr 3,28
 1772              	.LEHB5:
 1773 045c 48000001 		bl _Z14CheckForUpdateP12UpdateWindow
 1774 0460 2F830000 		cmpwi 7,3,0
 1775 0464 40BEFF00 		bne- 7,.L260
 1776 0468 3FA00000 		lis 29,.LC14@ha
 1777 046c 3F600000 		lis 27,.LC23@ha
 1778 0470 3BBD0074 		la 29,.LC14@l(29)
 1779 0474 3B7B010C 		la 27,.LC23@l(27)
 1780              	.L356:
 1781              	.LBB2330:
 1782              	.LBB2325:
 1783              		.loc 5 161 0
 1784 0478 7F63DB78 		mr 3,27
 1785 047c 48000001 		bl gettext
 1786 0480 38A10024 		addi 5,1,36
 1787 0484 7C641B78 		mr 4,3
 1788 0488 38610050 		addi 3,1,80
 1789 048c 48000001 		bl _ZNSsC1EPKcRKSaIcE
 1790              	.LEHE5:
 1791 0490 3861004C 		addi 3,1,76
 1792 0494 7FA4EB78 		mr 4,29
 1793 0498 38A10023 		addi 5,1,35
 1794              	.LEHB6:
 1795 049c 48000001 		bl _ZNSsC1EPKcRKSaIcE
 1796              	.LEHE6:
 1797              		.loc 5 161 0 is_stmt 0 discriminator 2
 1798 04a0 3D200000 		lis 9,Settings@ha
 1799 04a4 39290000 		la 9,Settings@l(9)
 1800 04a8 A80904EA 		lha 0,1258(9)
 1801 04ac 2F800000 		cmpwi 7,0,0
 1802 04b0 409E0014 		bne- 7,.L186
 1803              		.loc 5 161 0 discriminator 4
 1804 04b4 80090504 		lwz 0,1284(9)
 1805 04b8 7FA4EB78 		mr 4,29
 1806 04bc 70090100 		andi. 9,0,256
 1807 04c0 40820014 		bne- 0,.L187
 1808              	.L186:
 1809              		.loc 5 161 0 discriminator 3
 1810 04c4 3C600000 		lis 3,.LC24@ha
 1811 04c8 38630128 		la 3,.LC24@l(3)
 1812              	.LEHB7:
 1813 04cc 48000001 		bl gettext
 1814              	.LEHE7:
 1815 04d0 7C641B78 		mr 4,3
 1816              	.L187:
 1817              		.loc 5 161 0 discriminator 7
 1818 04d4 38610048 		addi 3,1,72
 1819 04d8 38A10022 		addi 5,1,34
 1820              	.LEHB8:
 1821 04dc 48000001 		bl _ZNSsC1EPKcRKSaIcE
 1822              	.LEHE8:
 1823              		.loc 5 161 0 discriminator 8
 1824 04e0 3C600000 		lis 3,.LC25@ha
 1825 04e4 38630138 		la 3,.LC25@l(3)
 1826              	.LEHB9:
 1827 04e8 48000001 		bl gettext
 1828              	.LEHE9:
 1829 04ec 7C641B78 		mr 4,3
 1830 04f0 38A10021 		addi 5,1,33
 1831 04f4 38610044 		addi 3,1,68
 1832              	.LEHB10:
 1833 04f8 48000001 		bl _ZNSsC1EPKcRKSaIcE
 1834              	.LEHE10:
 1835              		.loc 5 161 0 discriminator 10
 1836 04fc 3C600000 		lis 3,.LC19@ha
 1837 0500 386300C0 		la 3,.LC19@l(3)
 1838              	.LEHB11:
 1839 0504 48000001 		bl gettext
 1840              	.LEHE11:
 1841 0508 7C641B78 		mr 4,3
 1842 050c 38A10020 		addi 5,1,32
 1843 0510 38610040 		addi 3,1,64
 1844              	.LEHB12:
 1845 0514 48000001 		bl _ZNSsC1EPKcRKSaIcE
 1846              	.LEHE12:
 1847              		.loc 5 161 0 discriminator 12
 1848 0518 3861003C 		addi 3,1,60
 1849 051c 7FA4EB78 		mr 4,29
 1850 0520 38A1001F 		addi 5,1,31
 1851              	.LEHB13:
 1852 0524 48000001 		bl _ZNSsC1EPKcRKSaIcE
 1853              	.LEHE13:
 1854              		.loc 5 161 0 discriminator 13
 1855 0528 7F83E378 		mr 3,28
 1856 052c 38810050 		addi 4,1,80
 1857 0530 38A1004C 		addi 5,1,76
 1858 0534 38C10048 		addi 6,1,72
 1859 0538 38E10044 		addi 7,1,68
 1860 053c 39010040 		addi 8,1,64
 1861 0540 3921003C 		addi 9,1,60
 1862              	.LEHB14:
 1863 0544 48000001 		bl _ZN12UpdateWindow6ChooseESsSsSsSsSsSs
 1864              	.LEHE14:
 1865              	.LBB2201:
 1866              	.LBB2202:
 1867              	.LBB2203:
 1868              	.LBB2204:
 1869              	.LBB2205:
 1870              	.LBB2206:
 1871              		.loc 6 288 0 is_stmt 1 discriminator 13
 1872 0548 8121003C 		lwz 9,60(1)
 1873              	.LBE2206:
 1874              	.LBE2205:
 1875              	.LBE2204:
 1876              	.LBB2207:
 1877              	.LBB2208:
 1878              		.loc 6 235 0 discriminator 13
 1879 054c 3FE00000 		lis 31,_ZNSs4_Rep20_S_empty_rep_storageE@ha
 1880              	.LBE2208:
 1881              	.LBE2207:
 1882              	.LBE2203:
 1883              	.LBE2202:
 1884              	.LBE2201:
 1885              		.loc 5 161 0 discriminator 13
 1886 0550 7C7A1B78 		mr 26,3
 1887              	.LVL132:
 1888              	.LBB2225:
 1889              	.LBB2223:
 1890              	.LBB2221:
 1891              	.LBB2218:
 1892              	.LBB2215:
 1893              		.loc 6 235 0 discriminator 13
 1894 0554 3BFF0000 		la 31,_ZNSs4_Rep20_S_empty_rep_storageE@l(31)
 1895              	.LBE2215:
 1896              	.LBE2218:
 1897              		.loc 6 534 0 discriminator 13
 1898 0558 3869FFF4 		addi 3,9,-12
 1899              	.LVL133:
 1900              	.LBB2219:
 1901              	.LBB2216:
 1902              		.loc 6 235 0 discriminator 13
 1903 055c 7F83F800 		cmpw 7,3,31
 1904 0560 409E05FC 		bne- 7,.L369
 1905              	.LVL134:
 1906              	.L195:
 1907              	.LBE2216:
 1908              	.LBE2219:
 1909              	.LBE2221:
 1910              	.LBE2223:
 1911              	.LBE2225:
 1912              	.LBB2226:
 1913              	.LBB2227:
 1914              	.LBB2228:
 1915              	.LBB2229:
 1916              	.LBB2230:
 1917              	.LBB2231:
 1918              		.loc 6 288 0
 1919 0564 81210040 		lwz 9,64(1)
 1920              	.LBE2231:
 1921              	.LBE2230:
 1922              	.LBE2229:
 1923              		.loc 6 534 0
 1924 0568 3869FFF4 		addi 3,9,-12
 1925              	.LVL135:
 1926              	.LBB2232:
 1927              	.LBB2233:
 1928              		.loc 6 235 0
 1929 056c 7F83F800 		cmpw 7,3,31
 1930 0570 409E05CC 		bne- 7,.L370
 1931              	.LVL136:
 1932              	.L203:
 1933              	.LBE2233:
 1934              	.LBE2232:
 1935              	.LBE2228:
 1936              	.LBE2227:
 1937              	.LBE2226:
 1938              	.LBB2244:
 1939              	.LBB2245:
 1940              	.LBB2246:
 1941              	.LBB2247:
 1942              	.LBB2248:
 1943              	.LBB2249:
 1944              		.loc 6 288 0
 1945 0574 81210044 		lwz 9,68(1)
 1946              	.LBE2249:
 1947              	.LBE2248:
 1948              	.LBE2247:
 1949              		.loc 6 534 0
 1950 0578 3869FFF4 		addi 3,9,-12
 1951              	.LVL137:
 1952              	.LBB2250:
 1953              	.LBB2251:
 1954              		.loc 6 235 0
 1955 057c 7F83F800 		cmpw 7,3,31
 1956 0580 409E059C 		bne- 7,.L371
 1957              	.LVL138:
 1958              	.L211:
 1959              	.LBE2251:
 1960              	.LBE2250:
 1961              	.LBE2246:
 1962              	.LBE2245:
 1963              	.LBE2244:
 1964              	.LBB2262:
 1965              	.LBB2263:
 1966              	.LBB2264:
 1967              	.LBB2265:
 1968              	.LBB2266:
 1969              	.LBB2267:
 1970              		.loc 6 288 0
 1971 0584 81210048 		lwz 9,72(1)
 1972              	.LBE2267:
 1973              	.LBE2266:
 1974              	.LBE2265:
 1975              		.loc 6 534 0
 1976 0588 3869FFF4 		addi 3,9,-12
 1977              	.LVL139:
 1978              	.LBB2268:
 1979              	.LBB2269:
 1980              		.loc 6 235 0
 1981 058c 7F83F800 		cmpw 7,3,31
 1982 0590 409E056C 		bne- 7,.L372
 1983              	.LVL140:
 1984              	.L219:
 1985              	.LBE2269:
 1986              	.LBE2268:
 1987              	.LBE2264:
 1988              	.LBE2263:
 1989              	.LBE2262:
 1990              	.LBB2280:
 1991              	.LBB2281:
 1992              	.LBB2282:
 1993              	.LBB2283:
 1994              	.LBB2284:
 1995              	.LBB2285:
 1996              		.loc 6 288 0
 1997 0594 8121004C 		lwz 9,76(1)
 1998              	.LBE2285:
 1999              	.LBE2284:
 2000              	.LBE2283:
 2001              		.loc 6 534 0
 2002 0598 3869FFF4 		addi 3,9,-12
 2003              	.LVL141:
 2004              	.LBB2286:
 2005              	.LBB2287:
 2006              		.loc 6 235 0
 2007 059c 7F83F800 		cmpw 7,3,31
 2008 05a0 409E053C 		bne- 7,.L373
 2009              	.LVL142:
 2010              	.L227:
 2011              	.LBE2287:
 2012              	.LBE2286:
 2013              	.LBE2282:
 2014              	.LBE2281:
 2015              	.LBE2280:
 2016              	.LBB2298:
 2017              	.LBB2299:
 2018              	.LBB2300:
 2019              	.LBB2301:
 2020              	.LBB2302:
 2021              	.LBB2303:
 2022              		.loc 6 288 0
 2023 05a4 81210050 		lwz 9,80(1)
 2024              	.LBE2303:
 2025              	.LBE2302:
 2026              	.LBE2301:
 2027              		.loc 6 534 0
 2028 05a8 3869FFF4 		addi 3,9,-12
 2029              	.LVL143:
 2030              	.LBB2304:
 2031              	.LBB2305:
 2032              		.loc 6 235 0
 2033 05ac 7F83F800 		cmpw 7,3,31
 2034 05b0 409E050C 		bne- 7,.L374
 2035              	.LVL144:
 2036              	.L235:
 2037              	.LBE2305:
 2038              	.LBE2304:
 2039              	.LBE2300:
 2040              	.LBE2299:
 2041              	.LBE2298:
 2042              	.LBB2316:
 2043              		.loc 5 162 0 discriminator 1
 2044 05b4 2F9A0001 		cmpwi 7,26,1
 2045 05b8 41BEFD20 		beq- 7,.L375
 2046              	.LBB2181:
 2047              		.loc 5 169 0
 2048 05bc 2F9A0002 		cmpwi 7,26,2
 2049 05c0 419E02BC 		beq- 7,.L376
 2050              	.LBE2181:
 2051              	.LBE2316:
 2052              	.LBE2325:
 2053              		.loc 5 159 0
 2054 05c4 2F9A0003 		cmpwi 7,26,3
 2055 05c8 409EFEB0 		bne+ 7,.L356
 2056 05cc 4BFFFD98 		b .L260
 2057              	.LVL145:
 2058              	.L79:
 2059              	.LBE2330:
 2060              	.LBE2342:
 2061              	.LBE2350:
 2062              	.LBE2356:
 2063              		.loc 5 104 0
 2064 05d0 3D200000 		lis 9,Settings@ha
 2065 05d4 39290000 		la 9,Settings@l(9)
 2066 05d8 A169051C 		lhz 11,1308(9)
 2067 05dc 380B0001 		addi 0,11,1
 2068 05e0 7C000734 		extsh 0,0
 2069 05e4 2F800001 		cmpwi 7,0,1
 2070 05e8 B009051C 		sth 0,1308(9)
 2071 05ec 40BDFDB4 		ble- 7,.L78
 2072              		.loc 5 104 0 is_stmt 0 discriminator 1
 2073 05f0 38000000 		li 0,0
 2074              	.LBE2611:
 2075              	.LBE2619:
 2076              		.loc 5 187 0 is_stmt 1 discriminator 1
 2077 05f4 7FC3F378 		mr 3,30
 2078              	.LBB2620:
 2079              	.LBB2612:
 2080              		.loc 5 104 0 discriminator 1
 2081 05f8 B009051C 		sth 0,1308(9)
 2082              	.LBE2612:
 2083              	.LBE2620:
 2084              		.loc 5 187 0 discriminator 1
 2085 05fc 813E0000 		lwz 9,0(30)
 2086 0600 800900E0 		lwz 0,224(9)
 2087 0604 7C0903A6 		mtctr 0
 2088              	.LEHB15:
 2089 0608 4E800421 		bctrl
 2090              	.LVL146:
 2091              	.LBE2626:
 2092              		.loc 5 188 0 discriminator 1
 2093 060c 80010104 		lwz 0,260(1)
 2094 0610 834100E8 		lwz 26,232(1)
 2095 0614 7C0803A6 		mtlr 0
 2096 0618 836100EC 		lwz 27,236(1)
 2097 061c 838100F0 		lwz 28,240(1)
 2098 0620 83A100F4 		lwz 29,244(1)
 2099 0624 83C100F8 		lwz 30,248(1)
 2100              	.LVL147:
 2101 0628 83E100FC 		lwz 31,252(1)
 2102 062c 38210100 		addi 1,1,256
 2103              		.cfi_remember_state
 2104              		.cfi_restore 26
 2105              		.cfi_restore 27
 2106              		.cfi_restore 28
 2107              		.cfi_restore 29
 2108              		.cfi_restore 30
 2109              		.cfi_restore 31
 2110              	.LCFI32:
 2111              		.cfi_def_cfa_offset 0
 2112 0630 4E800020 		blr
 2113              	.LVL148:
 2114              	.L81:
 2115              	.LCFI33:
 2116              		.cfi_restore_state
 2117              	.LBB2627:
 2118              	.LBB2621:
 2119              	.LBB2613:
 2120              		.loc 5 143 0
 2121 0634 3D200000 		lis 9,Settings@ha
 2122 0638 39290000 		la 9,Settings@l(9)
 2123 063c A1690520 		lhz 11,1312(9)
 2124 0640 380B0001 		addi 0,11,1
 2125 0644 7C000734 		extsh 0,0
 2126 0648 2F800002 		cmpwi 7,0,2
 2127 064c B0090520 		sth 0,1312(9)
 2128 0650 40BDFD50 		ble- 7,.L78
 2129              		.loc 5 144 0
 2130 0654 38000000 		li 0,0
 2131 0658 B0090520 		sth 0,1312(9)
 2132 065c 4BFFFD44 		b .L78
 2133              	.L82:
 2134              		.loc 5 147 0
 2135 0660 3D200000 		lis 9,Settings@ha
 2136 0664 39290000 		la 9,Settings@l(9)
 2137 0668 A1690522 		lhz 11,1314(9)
 2138 066c 380B0001 		addi 0,11,1
 2139 0670 7C000734 		extsh 0,0
 2140 0674 2F800001 		cmpwi 7,0,1
 2141 0678 B0090522 		sth 0,1314(9)
 2142 067c 40BDFD24 		ble- 7,.L78
 2143              		.loc 5 147 0 is_stmt 0 discriminator 1
 2144 0680 38000000 		li 0,0
 2145              	.LBE2613:
 2146              	.LBE2621:
 2147              		.loc 5 187 0 is_stmt 1 discriminator 1
 2148 0684 7FC3F378 		mr 3,30
 2149              	.LVL149:
 2150              	.LBB2622:
 2151              	.LBB2614:
 2152              		.loc 5 147 0 discriminator 1
 2153 0688 B0090522 		sth 0,1314(9)
 2154              	.LBE2614:
 2155              	.LBE2622:
 2156              		.loc 5 187 0 discriminator 1
 2157 068c 813E0000 		lwz 9,0(30)
 2158 0690 800900E0 		lwz 0,224(9)
 2159 0694 7C0903A6 		mtctr 0
 2160 0698 4E800421 		bctrl
 2161              	.LVL150:
 2162              	.LBE2627:
 2163              		.loc 5 188 0 discriminator 1
 2164 069c 80010104 		lwz 0,260(1)
 2165 06a0 834100E8 		lwz 26,232(1)
 2166 06a4 7C0803A6 		mtlr 0
 2167 06a8 836100EC 		lwz 27,236(1)
 2168 06ac 838100F0 		lwz 28,240(1)
 2169 06b0 83A100F4 		lwz 29,244(1)
 2170 06b4 83C100F8 		lwz 30,248(1)
 2171              	.LVL151:
 2172 06b8 83E100FC 		lwz 31,252(1)
 2173 06bc 38210100 		addi 1,1,256
 2174              		.cfi_remember_state
 2175              		.cfi_restore 26
 2176              		.cfi_restore 27
 2177              		.cfi_restore 28
 2178              		.cfi_restore 29
 2179              		.cfi_restore 30
 2180              		.cfi_restore 31
 2181              	.LCFI34:
 2182              		.cfi_def_cfa_offset 0
 2183 06c0 4E800020 		blr
 2184              	.LVL152:
 2185              	.L80:
 2186              	.LCFI35:
 2187              		.cfi_restore_state
 2188              	.LBB2628:
 2189              	.LBB2623:
 2190              	.LBB2615:
 2191              		.loc 5 107 0
 2192 06c4 3D200000 		lis 9,Settings@ha
 2193 06c8 39290000 		la 9,Settings@l(9)
 2194 06cc A169051E 		lhz 11,1310(9)
 2195 06d0 380B0001 		addi 0,11,1
 2196 06d4 7C000734 		extsh 0,0
 2197 06d8 2F800002 		cmpwi 7,0,2
 2198 06dc B009051E 		sth 0,1310(9)
 2199 06e0 409D0010 		ble- 7,.L86
 2200              		.loc 5 107 0 is_stmt 0 discriminator 1
 2201 06e4 38000000 		li 0,0
 2202 06e8 B009051E 		sth 0,1310(9)
 2203 06ec 4BFFFCB4 		b .L78
 2204              	.L86:
 2205              	.LBB2357:
 2206              		.loc 5 110 0 is_stmt 1
 2207 06f0 2F000000 		cmpwi 6,0,0
 2208 06f4 41BAFCAC 		beq- 6,.L78
 2209              	.LBB2358:
 2210              		.loc 5 113 0
 2211 06f8 2F000001 		cmpwi 6,0,1
 2212 06fc 419A02E8 		beq- 6,.L377
 2213              		.loc 5 115 0
 2214 0700 419E0330 		beq- 7,.L378
 2215              	.LVL153:
 2216              	.L88:
 2217              		.loc 5 118 0
 2218 0704 3860014C 		li 3,332
 2219 0708 48000001 		bl _Znwj
 2220              	.LEHE15:
 2221 070c 7C7C1B78 		mr 28,3
 2222              	.LEHB16:
 2223 0710 48000001 		bl _ZN12UpdateWindowC1Ev
 2224              	.LEHE16:
 2225              	.LVL154:
 2226              	.LBB2359:
 2227              		.loc 5 119 0 discriminator 1
 2228 0714 2F9C0000 		cmpwi 7,28,0
 2229 0718 41BEFC88 		beq- 7,.L78
 2230              	.LBB2360:
 2231              		.loc 5 121 0
 2232 071c 3861007C 		addi 3,1,124
 2233 0720 38810080 		addi 4,1,128
 2234 0724 38A1002F 		addi 5,1,47
 2235              	.LEHB17:
 2236 0728 48000001 		bl _ZNSsC1EPKcRKSaIcE
 2237              	.LEHE17:
 2238 072c 3C600000 		lis 3,.LC17@ha
 2239 0730 3863009C 		la 3,.LC17@l(3)
 2240              	.LEHB18:
 2241 0734 48000001 		bl gettext
 2242              	.LEHE18:
 2243 0738 7C641B78 		mr 4,3
 2244 073c 38A1002E 		addi 5,1,46
 2245 0740 38610078 		addi 3,1,120
 2246              	.LEHB19:
 2247 0744 48000001 		bl _ZNSsC1EPKcRKSaIcE
 2248              	.LEHE19:
 2249              		.loc 5 121 0 is_stmt 0 discriminator 3
 2250 0748 3C600000 		lis 3,.LC18@ha
 2251 074c 386300BC 		la 3,.LC18@l(3)
 2252              	.LEHB20:
 2253 0750 48000001 		bl gettext
 2254              	.LEHE20:
 2255 0754 7C641B78 		mr 4,3
 2256 0758 38A1002D 		addi 5,1,45
 2257 075c 38610074 		addi 3,1,116
 2258              	.LEHB21:
 2259 0760 48000001 		bl _ZNSsC1EPKcRKSaIcE
 2260              	.LEHE21:
 2261              		.loc 5 121 0 discriminator 5
 2262 0764 3C600000 		lis 3,.LC19@ha
 2263 0768 386300C0 		la 3,.LC19@l(3)
 2264              	.LEHB22:
 2265 076c 48000001 		bl gettext
 2266              	.LEHE22:
 2267 0770 7C641B78 		mr 4,3
 2268 0774 38A1002C 		addi 5,1,44
 2269 0778 38610070 		addi 3,1,112
 2270              	.LEHB23:
 2271 077c 48000001 		bl _ZNSsC1EPKcRKSaIcE
 2272              	.LEHE23:
 2273              		.loc 5 121 0 discriminator 7
 2274 0780 3FA00000 		lis 29,.LC14@ha
 2275 0784 3861006C 		addi 3,1,108
 2276 0788 3BBD0074 		la 29,.LC14@l(29)
 2277 078c 38A1002B 		addi 5,1,43
 2278 0790 7FA4EB78 		mr 4,29
 2279              	.LEHB24:
 2280 0794 48000001 		bl _ZNSsC1EPKcRKSaIcE
 2281              	.LEHE24:
 2282              		.loc 5 121 0 discriminator 8
 2283 0798 38610068 		addi 3,1,104
 2284 079c 7FA4EB78 		mr 4,29
 2285 07a0 38A1002A 		addi 5,1,42
 2286              	.LEHB25:
 2287 07a4 48000001 		bl _ZNSsC1EPKcRKSaIcE
 2288              	.LEHE25:
 2289              		.loc 5 121 0 discriminator 9
 2290 07a8 7F83E378 		mr 3,28
 2291 07ac 3881007C 		addi 4,1,124
 2292 07b0 38A10078 		addi 5,1,120
 2293 07b4 38C10074 		addi 6,1,116
 2294 07b8 38E10070 		addi 7,1,112
 2295 07bc 3901006C 		addi 8,1,108
 2296 07c0 39210068 		addi 9,1,104
 2297              	.LEHB26:
 2298 07c4 48000001 		bl _ZN12UpdateWindow6ChooseESsSsSsSsSsSs
 2299              	.LEHE26:
 2300              	.LBB2361:
 2301              	.LBB2362:
 2302              	.LBB2363:
 2303              	.LBB2364:
 2304              	.LBB2365:
 2305              	.LBB2366:
 2306              		.loc 6 288 0 is_stmt 1 discriminator 9
 2307 07c8 81210068 		lwz 9,104(1)
 2308              	.LBE2366:
 2309              	.LBE2365:
 2310              	.LBE2364:
 2311              	.LBB2367:
 2312              	.LBB2368:
 2313              		.loc 6 235 0 discriminator 9
 2314 07cc 3FE00000 		lis 31,_ZNSs4_Rep20_S_empty_rep_storageE@ha
 2315              	.LBE2368:
 2316              	.LBE2367:
 2317              	.LBE2363:
 2318              	.LBE2362:
 2319              	.LBE2361:
 2320              		.loc 5 121 0 discriminator 9
 2321 07d0 7C7B1B78 		mr 27,3
 2322              	.LVL155:
 2323              	.LBB2385:
 2324              	.LBB2383:
 2325              	.LBB2381:
 2326              	.LBB2378:
 2327              	.LBB2375:
 2328              		.loc 6 235 0 discriminator 9
 2329 07d4 3BFF0000 		la 31,_ZNSs4_Rep20_S_empty_rep_storageE@l(31)
 2330              	.LBE2375:
 2331              	.LBE2378:
 2332              		.loc 6 534 0 discriminator 9
 2333 07d8 3869FFF4 		addi 3,9,-12
 2334              	.LVL156:
 2335              	.LBB2379:
 2336              	.LBB2376:
 2337              		.loc 6 235 0 discriminator 9
 2338 07dc 7F83F800 		cmpw 7,3,31
 2339 07e0 409E05F4 		bne- 7,.L379
 2340              	.LVL157:
 2341              	.L96:
 2342              	.LBE2376:
 2343              	.LBE2379:
 2344              	.LBE2381:
 2345              	.LBE2383:
 2346              	.LBE2385:
 2347              	.LBB2386:
 2348              	.LBB2387:
 2349              	.LBB2388:
 2350              	.LBB2389:
 2351              	.LBB2390:
 2352              	.LBB2391:
 2353              		.loc 6 288 0
 2354 07e4 8121006C 		lwz 9,108(1)
 2355              	.LBE2391:
 2356              	.LBE2390:
 2357              	.LBE2389:
 2358              		.loc 6 534 0
 2359 07e8 3869FFF4 		addi 3,9,-12
 2360              	.LVL158:
 2361              	.LBB2392:
 2362              	.LBB2393:
 2363              		.loc 6 235 0
 2364 07ec 7F83F800 		cmpw 7,3,31
 2365 07f0 409E05C4 		bne- 7,.L380
 2366              	.LVL159:
 2367              	.L104:
 2368              	.LBE2393:
 2369              	.LBE2392:
 2370              	.LBE2388:
 2371              	.LBE2387:
 2372              	.LBE2386:
 2373              	.LBB2404:
 2374              	.LBB2405:
 2375              	.LBB2406:
 2376              	.LBB2407:
 2377              	.LBB2408:
 2378              	.LBB2409:
 2379              		.loc 6 288 0
 2380 07f4 81210070 		lwz 9,112(1)
 2381              	.LBE2409:
 2382              	.LBE2408:
 2383              	.LBE2407:
 2384              		.loc 6 534 0
 2385 07f8 3869FFF4 		addi 3,9,-12
 2386              	.LVL160:
 2387              	.LBB2410:
 2388              	.LBB2411:
 2389              		.loc 6 235 0
 2390 07fc 7F83F800 		cmpw 7,3,31
 2391 0800 409E0594 		bne- 7,.L381
 2392              	.LVL161:
 2393              	.L112:
 2394              	.LBE2411:
 2395              	.LBE2410:
 2396              	.LBE2406:
 2397              	.LBE2405:
 2398              	.LBE2404:
 2399              	.LBB2422:
 2400              	.LBB2423:
 2401              	.LBB2424:
 2402              	.LBB2425:
 2403              	.LBB2426:
 2404              	.LBB2427:
 2405              		.loc 6 288 0
 2406 0804 81210074 		lwz 9,116(1)
 2407              	.LBE2427:
 2408              	.LBE2426:
 2409              	.LBE2425:
 2410              		.loc 6 534 0
 2411 0808 3869FFF4 		addi 3,9,-12
 2412              	.LVL162:
 2413              	.LBB2428:
 2414              	.LBB2429:
 2415              		.loc 6 235 0
 2416 080c 7F83F800 		cmpw 7,3,31
 2417 0810 409E0564 		bne- 7,.L382
 2418              	.LVL163:
 2419              	.L120:
 2420              	.LBE2429:
 2421              	.LBE2428:
 2422              	.LBE2424:
 2423              	.LBE2423:
 2424              	.LBE2422:
 2425              	.LBB2440:
 2426              	.LBB2441:
 2427              	.LBB2442:
 2428              	.LBB2443:
 2429              	.LBB2444:
 2430              	.LBB2445:
 2431              		.loc 6 288 0
 2432 0814 81210078 		lwz 9,120(1)
 2433              	.LBE2445:
 2434              	.LBE2444:
 2435              	.LBE2443:
 2436              		.loc 6 534 0
 2437 0818 3869FFF4 		addi 3,9,-12
 2438              	.LVL164:
 2439              	.LBB2446:
 2440              	.LBB2447:
 2441              		.loc 6 235 0
 2442 081c 7F83F800 		cmpw 7,3,31
 2443 0820 409E0534 		bne- 7,.L383
 2444              	.LVL165:
 2445              	.L128:
 2446              	.LBE2447:
 2447              	.LBE2446:
 2448              	.LBE2442:
 2449              	.LBE2441:
 2450              	.LBE2440:
 2451              	.LBB2458:
 2452              	.LBB2459:
 2453              	.LBB2460:
 2454              	.LBB2461:
 2455              	.LBB2462:
 2456              	.LBB2463:
 2457              		.loc 6 288 0
 2458 0824 8121007C 		lwz 9,124(1)
 2459              	.LBE2463:
 2460              	.LBE2462:
 2461              	.LBE2461:
 2462              		.loc 6 534 0
 2463 0828 3869FFF4 		addi 3,9,-12
 2464              	.LVL166:
 2465              	.LBB2464:
 2466              	.LBB2465:
 2467              		.loc 6 235 0
 2468 082c 7F83F800 		cmpw 7,3,31
 2469 0830 409E0504 		bne- 7,.L384
 2470              	.LVL167:
 2471              	.L136:
 2472              	.LBE2465:
 2473              	.LBE2464:
 2474              	.LBE2460:
 2475              	.LBE2459:
 2476              	.LBE2458:
 2477              	.LBB2476:
 2478              		.loc 5 122 0 discriminator 10
 2479 0834 2F9B0001 		cmpwi 7,27,1
 2480 0838 419E00B8 		beq- 7,.L385
 2481              	.LVL168:
 2482              	.L178:
 2483              	.LBE2476:
 2484              	.LBB2566:
 2485              	.LBB2567:
 2486              		.loc 8 27 0
 2487 083c 3FE00000 		lis 31,_ZN11Application8instanceE@ha
 2488 0840 83BF0000 		lwz 29,_ZN11Application8instanceE@l(31)
 2489 0844 2F9D0000 		cmpwi 7,29,0
 2490 0848 419E0204 		beq- 7,.L386
 2491              	.L179:
 2492              	.LBE2567:
 2493              	.LBE2566:
 2494              		.loc 5 137 0
 2495 084c 7FA3EB78 		mr 3,29
 2496 0850 7F84E378 		mr 4,28
 2497              	.LEHB27:
 2498 0854 48000001 		bl _ZN11Application13PushForDeleteEP10GuiElement
 2499              	.LBB2569:
 2500              	.LBB2570:
 2501              		.loc 8 27 0
 2502 0858 83BF0000 		lwz 29,_ZN11Application8instanceE@l(31)
 2503 085c 2F9D0000 		cmpwi 7,29,0
 2504 0860 409EFB2C 		bne+ 7,.L263
 2505 0864 38600278 		li 3,632
 2506 0868 48000001 		bl _Znwj
 2507              	.LEHE27:
 2508 086c 7C7D1B78 		mr 29,3
 2509              	.LEHB28:
 2510 0870 48000001 		bl _ZN11ApplicationC1Ev
 2511              	.LEHE28:
 2512              	.LBE2570:
 2513              	.LBE2569:
 2514              	.LBE2360:
 2515              	.LBE2359:
 2516              	.LBE2358:
 2517              	.LBE2357:
 2518              	.LBB2599:
 2519              	.LBB2351:
 2520              	.LBB2343:
 2521              	.LBB2340:
 2522 0874 93BF0000 		stw 29,_ZN11Application8instanceE@l(31)
 2523 0878 4BFFFB14 		b .L263
 2524              	.LVL169:
 2525              	.L376:
 2526              	.LBE2340:
 2527              	.LBE2343:
 2528              	.LBB2344:
 2529              	.LBB2331:
 2530              	.LBB2326:
 2531              	.LBB2317:
 2532              	.LBB2198:
 2533              	.LBB2182:
 2534              		.loc 5 171 0
 2535 087c 7F84E378 		mr 4,28
 2536 0880 38610080 		addi 3,1,128
 2537              	.LEHB29:
 2538 0884 48000001 		bl _ZN9ChangeLogC1EP12UpdateWindow
 2539              		.loc 5 172 0
 2540 0888 38610080 		addi 3,1,128
 2541 088c 48000001 		bl _ZN9ChangeLog4ShowEv
 2542 0890 2F830000 		cmpwi 7,3,0
 2543 0894 409EFBE4 		bne+ 7,.L356
 2544              		.loc 5 173 0
 2545 0898 3C600000 		lis 3,.LC27@ha
 2546 089c 38630168 		la 3,.LC27@l(3)
 2547 08a0 48000001 		bl gettext
 2548 08a4 38A1001C 		addi 5,1,28
 2549 08a8 7C641B78 		mr 4,3
 2550 08ac 38610030 		addi 3,1,48
 2551 08b0 48000001 		bl _ZNSsC1EPKcRKSaIcE
 2552              	.LEHE29:
 2553 08b4 7F83E378 		mr 3,28
 2554 08b8 38810030 		addi 4,1,48
 2555              	.LEHB30:
 2556 08bc 48000001 		bl _ZN12UpdateWindow9ShowErrorESs
 2557              	.LEHE30:
 2558              	.LVL170:
 2559              	.LBB2183:
 2560              	.LBB2184:
 2561              	.LBB2185:
 2562              	.LBB2186:
 2563              	.LBB2187:
 2564              	.LBB2188:
 2565              		.loc 6 288 0
 2566 08c0 81210030 		lwz 9,48(1)
 2567              	.LBE2188:
 2568              	.LBE2187:
 2569              	.LBE2186:
 2570              		.loc 6 534 0
 2571 08c4 3869FFF4 		addi 3,9,-12
 2572              	.LVL171:
 2573              	.LBB2189:
 2574              	.LBB2190:
 2575              		.loc 6 235 0
 2576 08c8 7F83F800 		cmpw 7,3,31
 2577 08cc 419EFBAC 		beq+ 7,.L356
 2578              	.LVL172:
 2579              	.LBB2191:
 2580              	.LBB2192:
 2581              	.LBB2193:
 2582              		.loc 7 66 0
 2583 08d0 8169FFFC 		lwz 11,-4(9)
 2584              	.LVL173:
 2585              	.LBE2193:
 2586              	.LBE2192:
 2587              	.LBE2191:
 2588              		.loc 6 240 0
 2589 08d4 2F8B0000 		cmpwi 7,11,0
 2590              	.LBB2196:
 2591              	.LBB2195:
 2592              	.LBB2194:
 2593              		.loc 7 67 0
 2594 08d8 396BFFFF 		addi 11,11,-1
 2595 08dc 9169FFFC 		stw 11,-4(9)
 2596              	.LBE2194:
 2597              	.LBE2195:
 2598              	.LBE2196:
 2599              		.loc 6 240 0
 2600 08e0 419DFB98 		bgt+ 7,.L356
 2601              		.loc 6 244 0
 2602 08e4 38810008 		addi 4,1,8
 2603 08e8 48000001 		bl _ZNSs4_Rep10_M_destroyERKSaIcE
 2604              	.LVL174:
 2605 08ec 4BFFFB8C 		b .L356
 2606              	.LVL175:
 2607              	.L385:
 2608              	.LBE2190:
 2609              	.LBE2189:
 2610              	.LBE2185:
 2611              	.LBE2184:
 2612              	.LBE2183:
 2613              	.LBE2182:
 2614              	.LBE2198:
 2615              	.LBE2317:
 2616              	.LBE2326:
 2617              	.LBE2331:
 2618              	.LBE2344:
 2619              	.LBE2351:
 2620              	.LBE2599:
 2621              	.LBB2600:
 2622              	.LBB2594:
 2623              	.LBB2589:
 2624              	.LBB2584:
 2625              	.LBB2572:
 2626              	.LBB2477:
 2627              		.loc 5 124 0
 2628 08f0 7F83E378 		mr 3,28
 2629              	.LEHB31:
 2630 08f4 48000001 		bl _ZN12UpdateWindow13NetInitPromptEv
 2631 08f8 2F830000 		cmpwi 7,3,0
 2632 08fc 419EFF40 		beq+ 7,.L178
 2633              		.loc 5 127 0
 2634 0900 3C600000 		lis 3,.LC20@ha
 2635 0904 386300C8 		la 3,.LC20@l(3)
 2636 0908 48000001 		bl gettext
 2637 090c 38A10029 		addi 5,1,41
 2638 0910 7C641B78 		mr 4,3
 2639 0914 38610064 		addi 3,1,100
 2640 0918 48000001 		bl _ZNSsC1EPKcRKSaIcE
 2641              	.LEHE31:
 2642 091c 38610060 		addi 3,1,96
 2643 0920 38810080 		addi 4,1,128
 2644 0924 38A10028 		addi 5,1,40
 2645              	.LEHB32:
 2646 0928 48000001 		bl _ZNSsC1EPKcRKSaIcE
 2647              	.LEHE32:
 2648              		.loc 5 127 0 is_stmt 0 discriminator 2
 2649 092c 7F83E378 		mr 3,28
 2650 0930 38810064 		addi 4,1,100
 2651 0934 38A10060 		addi 5,1,96
 2652              	.LEHB33:
 2653 0938 48000001 		bl _ZN12UpdateWindow12ShowThrobberESsSs
 2654              	.LEHE33:
 2655              	.LVL176:
 2656              	.LBB2478:
 2657              	.LBB2479:
 2658              	.LBB2480:
 2659              	.LBB2481:
 2660              	.LBB2482:
 2661              	.LBB2483:
 2662              		.loc 6 288 0 is_stmt 1
 2663 093c 81210060 		lwz 9,96(1)
 2664              	.LBE2483:
 2665              	.LBE2482:
 2666              	.LBE2481:
 2667              		.loc 6 534 0
 2668 0940 3869FFF4 		addi 3,9,-12
 2669              	.LVL177:
 2670              	.LBB2484:
 2671              	.LBB2485:
 2672              		.loc 6 235 0
 2673 0944 7F83F800 		cmpw 7,3,31
 2674 0948 409E0360 		bne- 7,.L387
 2675              	.LVL178:
 2676              	.L145:
 2677              	.LBE2485:
 2678              	.LBE2484:
 2679              	.LBE2480:
 2680              	.LBE2479:
 2681              	.LBE2478:
 2682              	.LBB2496:
 2683              	.LBB2497:
 2684              	.LBB2498:
 2685              	.LBB2499:
 2686              	.LBB2500:
 2687              	.LBB2501:
 2688              		.loc 6 288 0
 2689 094c 81210064 		lwz 9,100(1)
 2690              	.LBE2501:
 2691              	.LBE2500:
 2692              	.LBE2499:
 2693              		.loc 6 534 0
 2694 0950 3869FFF4 		addi 3,9,-12
 2695              	.LVL179:
 2696              	.LBB2502:
 2697              	.LBB2503:
 2698              		.loc 6 235 0
 2699 0954 7F83F800 		cmpw 7,3,31
 2700 0958 409E0330 		bne- 7,.L388
 2701              	.LVL180:
 2702              	.L153:
 2703              	.LEHB34:
 2704              	.LBE2503:
 2705              	.LBE2502:
 2706              	.LBE2498:
 2707              	.LBE2497:
 2708              	.LBE2496:
 2709              		.loc 5 129 0 discriminator 1
 2710 095c 48000001 		bl _Z13UpdateIconPNGv
 2711              	.LVL181:
 2712              		.loc 5 130 0 discriminator 1
 2713 0960 2F830000 		cmpwi 7,3,0
 2714 0964 419E0100 		beq- 7,.L154
 2715              		.loc 5 131 0
 2716 0968 3C600000 		lis 3,.LC21@ha
 2717              	.LVL182:
 2718 096c 386300D8 		la 3,.LC21@l(3)
 2719 0970 48000001 		bl gettext
 2720 0974 38A10027 		addi 5,1,39
 2721 0978 7C641B78 		mr 4,3
 2722 097c 3861005C 		addi 3,1,92
 2723 0980 48000001 		bl _ZNSsC1EPKcRKSaIcE
 2724              	.LEHE34:
 2725 0984 38610058 		addi 3,1,88
 2726 0988 7FA4EB78 		mr 4,29
 2727 098c 38A10026 		addi 5,1,38
 2728              	.LEHB35:
 2729 0990 48000001 		bl _ZNSsC1EPKcRKSaIcE
 2730              	.LEHE35:
 2731              		.loc 5 131 0 is_stmt 0 discriminator 2
 2732 0994 7F83E378 		mr 3,28
 2733 0998 3881005C 		addi 4,1,92
 2734 099c 38A10058 		addi 5,1,88
 2735              	.LEHB36:
 2736 09a0 48000001 		bl _ZN12UpdateWindow11ShowMessageESsSs
 2737              	.LEHE36:
 2738              	.LVL183:
 2739              	.LBB2514:
 2740              	.LBB2515:
 2741              	.LBB2516:
 2742              	.LBB2517:
 2743              	.LBB2518:
 2744              	.LBB2519:
 2745              		.loc 6 288 0 is_stmt 1
 2746 09a4 81210058 		lwz 9,88(1)
 2747              	.LBE2519:
 2748              	.LBE2518:
 2749              	.LBE2517:
 2750              		.loc 6 534 0
 2751 09a8 3869FFF4 		addi 3,9,-12
 2752              	.LVL184:
 2753              	.LBB2520:
 2754              	.LBB2521:
 2755              		.loc 6 235 0
 2756 09ac 7F83F800 		cmpw 7,3,31
 2757 09b0 409E033C 		bne- 7,.L389
 2758              	.LVL185:
 2759              	.L162:
 2760              	.LBE2521:
 2761              	.LBE2520:
 2762              	.LBE2516:
 2763              	.LBE2515:
 2764              	.LBE2514:
 2765              	.LBB2532:
 2766              	.LBB2533:
 2767              	.LBB2534:
 2768              	.LBB2535:
 2769              	.LBB2536:
 2770              	.LBB2537:
 2771              		.loc 6 288 0
 2772 09b4 8121005C 		lwz 9,92(1)
 2773              	.LBE2537:
 2774              	.LBE2536:
 2775              	.LBE2535:
 2776              		.loc 6 534 0
 2777 09b8 3869FFF4 		addi 3,9,-12
 2778              	.LVL186:
 2779              	.LBB2538:
 2780              	.LBB2539:
 2781              		.loc 6 235 0
 2782 09bc 7F83F800 		cmpw 7,3,31
 2783 09c0 419EFE7C 		beq+ 7,.L178
 2784              	.LVL187:
 2785              	.LBB2540:
 2786              	.LBB2541:
 2787              	.LBB2542:
 2788              		.loc 7 66 0
 2789 09c4 8169FFFC 		lwz 11,-4(9)
 2790              	.LVL188:
 2791              	.LBE2542:
 2792              	.LBE2541:
 2793              	.LBE2540:
 2794              		.loc 6 240 0
 2795 09c8 2F8B0000 		cmpwi 7,11,0
 2796              	.LBB2545:
 2797              	.LBB2544:
 2798              	.LBB2543:
 2799              		.loc 7 67 0
 2800 09cc 396BFFFF 		addi 11,11,-1
 2801 09d0 9169FFFC 		stw 11,-4(9)
 2802              	.LBE2543:
 2803              	.LBE2544:
 2804              	.LBE2545:
 2805              		.loc 6 240 0
 2806 09d4 419DFE68 		bgt+ 7,.L178
 2807              		.loc 6 244 0
 2808 09d8 38810012 		addi 4,1,18
 2809 09dc 48000001 		bl _ZNSs4_Rep10_M_destroyERKSaIcE
 2810              	.LVL189:
 2811 09e0 4BFFFE5C 		b .L178
 2812              	.LVL190:
 2813              	.L377:
 2814              	.LBE2539:
 2815              	.LBE2538:
 2816              	.LBE2534:
 2817              	.LBE2533:
 2818              	.LBE2532:
 2819              	.LBE2477:
 2820              	.LBE2572:
 2821              	.LBE2584:
 2822              	.LBE2589:
 2823              		.loc 5 114 0
 2824 09e4 3C600000 		lis 3,.LC15@ha
 2825 09e8 38630078 		la 3,.LC15@l(3)
 2826              	.LEHB37:
 2827 09ec 48000001 		bl gettext
 2828              	.LVL191:
 2829 09f0 7C641B78 		mr 4,3
 2830 09f4 38610080 		addi 3,1,128
 2831 09f8 48000001 		bl strcpy
 2832 09fc 4BFFFD08 		b .L88
 2833              	.LVL192:
 2834              	.L368:
 2835              	.LBE2594:
 2836              	.LBE2600:
 2837              	.LBB2601:
 2838              	.LBB2352:
 2839              	.LBB2345:
 2840              	.LBB2341:
 2841              		.loc 8 27 0
 2842 0a00 38600278 		li 3,632
 2843 0a04 48000001 		bl _Znwj
 2844              	.LEHE37:
 2845 0a08 7C7D1B78 		mr 29,3
 2846              	.LEHB38:
 2847 0a0c 48000001 		bl _ZN11ApplicationC1Ev
 2848              	.LEHE38:
 2849 0a10 93BF0000 		stw 29,_ZN11Application8instanceE@l(31)
 2850 0a14 4BFFF978 		b .L263
 2851              	.L367:
 2852              	.LBE2341:
 2853              	.LBE2345:
 2854              	.LBB2346:
 2855              	.LBB2337:
 2856 0a18 38600278 		li 3,632
 2857              	.LEHB39:
 2858 0a1c 48000001 		bl _Znwj
 2859              	.LEHE39:
 2860 0a20 7C7D1B78 		mr 29,3
 2861              	.LEHB40:
 2862 0a24 48000001 		bl _ZN11ApplicationC1Ev
 2863              	.LEHE40:
 2864 0a28 93BF0000 		stw 29,_ZN11Application8instanceE@l(31)
 2865 0a2c 4BFFF948 		b .L261
 2866              	.LVL193:
 2867              	.L378:
 2868              	.LBE2337:
 2869              	.LBE2346:
 2870              	.LBE2352:
 2871              	.LBE2601:
 2872              	.LBB2602:
 2873              	.LBB2595:
 2874              		.loc 5 116 0
 2875 0a30 3C600000 		lis 3,.LC16@ha
 2876 0a34 38630088 		la 3,.LC16@l(3)
 2877              	.LEHB41:
 2878 0a38 48000001 		bl gettext
 2879              	.LVL194:
 2880 0a3c 7C641B78 		mr 4,3
 2881 0a40 38610080 		addi 3,1,128
 2882 0a44 48000001 		bl strcpy
 2883 0a48 4BFFFCBC 		b .L88
 2884              	.LVL195:
 2885              	.L386:
 2886              	.LBB2590:
 2887              	.LBB2585:
 2888              	.LBB2573:
 2889              	.LBB2568:
 2890              		.loc 8 27 0
 2891 0a4c 38600278 		li 3,632
 2892 0a50 48000001 		bl _Znwj
 2893              	.LEHE41:
 2894 0a54 7C7D1B78 		mr 29,3
 2895              	.LEHB42:
 2896 0a58 48000001 		bl _ZN11ApplicationC1Ev
 2897              	.LEHE42:
 2898 0a5c 93BF0000 		stw 29,_ZN11Application8instanceE@l(31)
 2899 0a60 4BFFFDEC 		b .L179
 2900              	.LVL196:
 2901              	.L154:
 2902              	.LBE2568:
 2903              	.LBE2573:
 2904              	.LBB2574:
 2905              	.LBB2563:
 2906              		.loc 5 133 0
 2907 0a64 3C600000 		lis 3,.LC22@ha
 2908              	.LVL197:
 2909 0a68 386300F8 		la 3,.LC22@l(3)
 2910              	.LEHB43:
 2911 0a6c 48000001 		bl gettext
 2912 0a70 38A10025 		addi 5,1,37
 2913 0a74 7C641B78 		mr 4,3
 2914 0a78 38610054 		addi 3,1,84
 2915 0a7c 48000001 		bl _ZNSsC1EPKcRKSaIcE
 2916              	.LEHE43:
 2917 0a80 7F83E378 		mr 3,28
 2918 0a84 38810054 		addi 4,1,84
 2919              	.LEHB44:
 2920 0a88 48000001 		bl _ZN12UpdateWindow9ShowErrorESs
 2921              	.LEHE44:
 2922              	.LVL198:
 2923              	.LBB2546:
 2924              	.LBB2547:
 2925              	.LBB2548:
 2926              	.LBB2549:
 2927              	.LBB2550:
 2928              	.LBB2551:
 2929              		.loc 6 288 0
 2930 0a8c 81210054 		lwz 9,84(1)
 2931              	.LBE2551:
 2932              	.LBE2550:
 2933              	.LBE2549:
 2934              		.loc 6 534 0
 2935 0a90 3869FFF4 		addi 3,9,-12
 2936              	.LVL199:
 2937              	.LBB2552:
 2938              	.LBB2553:
 2939              		.loc 6 235 0
 2940 0a94 7F83F800 		cmpw 7,3,31
 2941 0a98 419EFDA4 		beq+ 7,.L178
 2942              	.LVL200:
 2943              	.LBB2554:
 2944              	.LBB2555:
 2945              	.LBB2556:
 2946              		.loc 7 66 0
 2947 0a9c 8169FFFC 		lwz 11,-4(9)
 2948              	.LVL201:
 2949              	.LBE2556:
 2950              	.LBE2555:
 2951              	.LBE2554:
 2952              		.loc 6 240 0
 2953 0aa0 2F8B0000 		cmpwi 7,11,0
 2954              	.LBB2559:
 2955              	.LBB2558:
 2956              	.LBB2557:
 2957              		.loc 7 67 0
 2958 0aa4 396BFFFF 		addi 11,11,-1
 2959 0aa8 9169FFFC 		stw 11,-4(9)
 2960              	.LBE2557:
 2961              	.LBE2558:
 2962              	.LBE2559:
 2963              		.loc 6 240 0
 2964 0aac 419DFD90 		bgt+ 7,.L178
 2965              		.loc 6 244 0
 2966 0ab0 38810011 		addi 4,1,17
 2967 0ab4 48000001 		bl _ZNSs4_Rep10_M_destroyERKSaIcE
 2968              	.LVL202:
 2969 0ab8 4BFFFD84 		b .L178
 2970              	.LVL203:
 2971              	.L374:
 2972              	.LBE2553:
 2973              	.LBE2552:
 2974              	.LBE2548:
 2975              	.LBE2547:
 2976              	.LBE2546:
 2977              	.LBE2563:
 2978              	.LBE2574:
 2979              	.LBE2585:
 2980              	.LBE2590:
 2981              	.LBE2595:
 2982              	.LBE2602:
 2983              	.LBB2603:
 2984              	.LBB2353:
 2985              	.LBB2347:
 2986              	.LBB2332:
 2987              	.LBB2327:
 2988              	.LBB2318:
 2989              	.LBB2315:
 2990              	.LBB2314:
 2991              	.LBB2313:
 2992              	.LBB2312:
 2993              	.LBB2306:
 2994              	.LBB2307:
 2995              	.LBB2308:
 2996              		.loc 7 66 0
 2997 0abc 8169FFFC 		lwz 11,-4(9)
 2998              	.LVL204:
 2999              	.LBE2308:
 3000              	.LBE2307:
 3001              	.LBE2306:
 3002              		.loc 6 240 0
 3003 0ac0 2F8B0000 		cmpwi 7,11,0
 3004              	.LBB2311:
 3005              	.LBB2310:
 3006              	.LBB2309:
 3007              		.loc 7 67 0
 3008 0ac4 396BFFFF 		addi 11,11,-1
 3009 0ac8 9169FFFC 		stw 11,-4(9)
 3010              	.LBE2309:
 3011              	.LBE2310:
 3012              	.LBE2311:
 3013              		.loc 6 240 0
 3014 0acc 419DFAE8 		bgt+ 7,.L235
 3015              		.loc 6 244 0
 3016 0ad0 3881000B 		addi 4,1,11
 3017 0ad4 48000001 		bl _ZNSs4_Rep10_M_destroyERKSaIcE
 3018              	.LVL205:
 3019 0ad8 4BFFFADC 		b .L235
 3020              	.LVL206:
 3021              	.L373:
 3022              	.LBE2312:
 3023              	.LBE2313:
 3024              	.LBE2314:
 3025              	.LBE2315:
 3026              	.LBE2318:
 3027              	.LBB2319:
 3028              	.LBB2297:
 3029              	.LBB2296:
 3030              	.LBB2295:
 3031              	.LBB2294:
 3032              	.LBB2288:
 3033              	.LBB2289:
 3034              	.LBB2290:
 3035              		.loc 7 66 0
 3036 0adc 8169FFFC 		lwz 11,-4(9)
 3037              	.LVL207:
 3038              	.LBE2290:
 3039              	.LBE2289:
 3040              	.LBE2288:
 3041              		.loc 6 240 0
 3042 0ae0 2F8B0000 		cmpwi 7,11,0
 3043              	.LBB2293:
 3044              	.LBB2292:
 3045              	.LBB2291:
 3046              		.loc 7 67 0
 3047 0ae4 396BFFFF 		addi 11,11,-1
 3048 0ae8 9169FFFC 		stw 11,-4(9)
 3049              	.LBE2291:
 3050              	.LBE2292:
 3051              	.LBE2293:
 3052              		.loc 6 240 0
 3053 0aec 419DFAB8 		bgt+ 7,.L227
 3054              		.loc 6 244 0
 3055 0af0 3881000C 		addi 4,1,12
 3056 0af4 48000001 		bl _ZNSs4_Rep10_M_destroyERKSaIcE
 3057              	.LVL208:
 3058 0af8 4BFFFAAC 		b .L227
 3059              	.LVL209:
 3060              	.L372:
 3061              	.LBE2294:
 3062              	.LBE2295:
 3063              	.LBE2296:
 3064              	.LBE2297:
 3065              	.LBE2319:
 3066              	.LBB2320:
 3067              	.LBB2279:
 3068              	.LBB2278:
 3069              	.LBB2277:
 3070              	.LBB2276:
 3071              	.LBB2270:
 3072              	.LBB2271:
 3073              	.LBB2272:
 3074              		.loc 7 66 0
 3075 0afc 8169FFFC 		lwz 11,-4(9)
 3076              	.LVL210:
 3077              	.LBE2272:
 3078              	.LBE2271:
 3079              	.LBE2270:
 3080              		.loc 6 240 0
 3081 0b00 2F8B0000 		cmpwi 7,11,0
 3082              	.LBB2275:
 3083              	.LBB2274:
 3084              	.LBB2273:
 3085              		.loc 7 67 0
 3086 0b04 396BFFFF 		addi 11,11,-1
 3087 0b08 9169FFFC 		stw 11,-4(9)
 3088              	.LBE2273:
 3089              	.LBE2274:
 3090              	.LBE2275:
 3091              		.loc 6 240 0
 3092 0b0c 419DFA88 		bgt+ 7,.L219
 3093              		.loc 6 244 0
 3094 0b10 3881000D 		addi 4,1,13
 3095 0b14 48000001 		bl _ZNSs4_Rep10_M_destroyERKSaIcE
 3096              	.LVL211:
 3097 0b18 4BFFFA7C 		b .L219
 3098              	.LVL212:
 3099              	.L371:
 3100              	.LBE2276:
 3101              	.LBE2277:
 3102              	.LBE2278:
 3103              	.LBE2279:
 3104              	.LBE2320:
 3105              	.LBB2321:
 3106              	.LBB2261:
 3107              	.LBB2260:
 3108              	.LBB2259:
 3109              	.LBB2258:
 3110              	.LBB2252:
 3111              	.LBB2253:
 3112              	.LBB2254:
 3113              		.loc 7 66 0
 3114 0b1c 8169FFFC 		lwz 11,-4(9)
 3115              	.LVL213:
 3116              	.LBE2254:
 3117              	.LBE2253:
 3118              	.LBE2252:
 3119              		.loc 6 240 0
 3120 0b20 2F8B0000 		cmpwi 7,11,0
 3121              	.LBB2257:
 3122              	.LBB2256:
 3123              	.LBB2255:
 3124              		.loc 7 67 0
 3125 0b24 396BFFFF 		addi 11,11,-1
 3126 0b28 9169FFFC 		stw 11,-4(9)
 3127              	.LBE2255:
 3128              	.LBE2256:
 3129              	.LBE2257:
 3130              		.loc 6 240 0
 3131 0b2c 419DFA58 		bgt+ 7,.L211
 3132              		.loc 6 244 0
 3133 0b30 3881000E 		addi 4,1,14
 3134 0b34 48000001 		bl _ZNSs4_Rep10_M_destroyERKSaIcE
 3135              	.LVL214:
 3136 0b38 4BFFFA4C 		b .L211
 3137              	.LVL215:
 3138              	.L370:
 3139              	.LBE2258:
 3140              	.LBE2259:
 3141              	.LBE2260:
 3142              	.LBE2261:
 3143              	.LBE2321:
 3144              	.LBB2322:
 3145              	.LBB2243:
 3146              	.LBB2242:
 3147              	.LBB2241:
 3148              	.LBB2240:
 3149              	.LBB2234:
 3150              	.LBB2235:
 3151              	.LBB2236:
 3152              		.loc 7 66 0
 3153 0b3c 8169FFFC 		lwz 11,-4(9)
 3154              	.LVL216:
 3155              	.LBE2236:
 3156              	.LBE2235:
 3157              	.LBE2234:
 3158              		.loc 6 240 0
 3159 0b40 2F8B0000 		cmpwi 7,11,0
 3160              	.LBB2239:
 3161              	.LBB2238:
 3162              	.LBB2237:
 3163              		.loc 7 67 0
 3164 0b44 396BFFFF 		addi 11,11,-1
 3165 0b48 9169FFFC 		stw 11,-4(9)
 3166              	.LBE2237:
 3167              	.LBE2238:
 3168              	.LBE2239:
 3169              		.loc 6 240 0
 3170 0b4c 419DFA28 		bgt+ 7,.L203
 3171              		.loc 6 244 0
 3172 0b50 3881000F 		addi 4,1,15
 3173 0b54 48000001 		bl _ZNSs4_Rep10_M_destroyERKSaIcE
 3174              	.LVL217:
 3175 0b58 4BFFFA1C 		b .L203
 3176              	.LVL218:
 3177              	.L369:
 3178              	.LBE2240:
 3179              	.LBE2241:
 3180              	.LBE2242:
 3181              	.LBE2243:
 3182              	.LBE2322:
 3183              	.LBB2323:
 3184              	.LBB2224:
 3185              	.LBB2222:
 3186              	.LBB2220:
 3187              	.LBB2217:
 3188              	.LBB2209:
 3189              	.LBB2210:
 3190              	.LBB2211:
 3191              		.loc 7 66 0
 3192 0b5c 8169FFFC 		lwz 11,-4(9)
 3193              	.LVL219:
 3194              	.LBE2211:
 3195              	.LBE2210:
 3196              	.LBE2209:
 3197              		.loc 6 240 0
 3198 0b60 2F8B0000 		cmpwi 7,11,0
 3199              	.LBB2214:
 3200              	.LBB2213:
 3201              	.LBB2212:
 3202              		.loc 7 67 0
 3203 0b64 396BFFFF 		addi 11,11,-1
 3204 0b68 9169FFFC 		stw 11,-4(9)
 3205              	.LBE2212:
 3206              	.LBE2213:
 3207              	.LBE2214:
 3208              		.loc 6 240 0
 3209 0b6c 419DF9F8 		bgt+ 7,.L195
 3210              		.loc 6 244 0
 3211 0b70 38810010 		addi 4,1,16
 3212 0b74 48000001 		bl _ZNSs4_Rep10_M_destroyERKSaIcE
 3213              	.LVL220:
 3214 0b78 4BFFF9EC 		b .L195
 3215              	.LVL221:
 3216              	.L335:
 3217 0b7c 7C7F1B78 		mr 31,3
 3218              	.LBE2217:
 3219              	.LBE2220:
 3220              	.LBE2222:
 3221              	.LBE2224:
 3222              	.LBE2323:
 3223              	.LBE2327:
 3224              	.LBE2332:
 3225              	.LBE2347:
 3226              	.LBE2353:
 3227              	.LBE2603:
 3228              	.LBB2604:
 3229              	.LBB2596:
 3230              	.LBB2591:
 3231              	.LBB2586:
 3232              	.LBB2575:
 3233              	.LBB2564:
 3234              		.loc 5 133 0
 3235 0b80 38610054 		addi 3,1,84
 3236 0b84 48000001 		bl _ZNSsD1Ev
 3237 0b88 7FE3FB78 		mr 3,31
 3238              	.LEHB45:
 3239 0b8c 48000001 		bl _Unwind_Resume
 3240              	.LVL222:
 3241              	.L345:
 3242 0b90 7C7F1B78 		mr 31,3
 3243              	.LBE2564:
 3244              	.LBE2575:
 3245              	.LBE2586:
 3246              	.LBE2591:
 3247              	.LBE2596:
 3248              	.LBE2604:
 3249              	.LBB2605:
 3250              	.LBB2354:
 3251              	.LBB2348:
 3252              	.LBB2333:
 3253              	.LBB2328:
 3254              		.loc 5 161 0
 3255 0b94 3861003C 		addi 3,1,60
 3256 0b98 48000001 		bl _ZNSsD1Ev
 3257              	.L299:
 3258 0b9c 38610040 		addi 3,1,64
 3259 0ba0 48000001 		bl _ZNSsD1Ev
 3260 0ba4 7FE3FB78 		mr 3,31
 3261              	.L360:
 3262 0ba8 7C7F1B78 		mr 31,3
 3263 0bac 38610044 		addi 3,1,68
 3264 0bb0 48000001 		bl _ZNSsD1Ev
 3265 0bb4 7FE3FB78 		mr 3,31
 3266              	.L361:
 3267 0bb8 7C7F1B78 		mr 31,3
 3268 0bbc 38610048 		addi 3,1,72
 3269 0bc0 48000001 		bl _ZNSsD1Ev
 3270 0bc4 7FE3FB78 		mr 3,31
 3271              	.L362:
 3272 0bc8 7C7F1B78 		mr 31,3
 3273 0bcc 3861004C 		addi 3,1,76
 3274 0bd0 48000001 		bl _ZNSsD1Ev
 3275              	.L314:
 3276 0bd4 38610050 		addi 3,1,80
 3277 0bd8 48000001 		bl _ZNSsD1Ev
 3278 0bdc 7FE3FB78 		mr 3,31
 3279 0be0 48000001 		bl _Unwind_Resume
 3280              	.L328:
 3281 0be4 7C7F1B78 		mr 31,3
 3282              	.L273:
 3283              	.LBE2328:
 3284              	.LBE2333:
 3285              	.LBE2348:
 3286              	.LBE2354:
 3287              	.LBE2605:
 3288              	.LBB2606:
 3289              	.LBB2597:
 3290              	.LBB2592:
 3291              	.LBB2587:
 3292              		.loc 5 121 0
 3293 0be8 38610070 		addi 3,1,112
 3294 0bec 48000001 		bl _ZNSsD1Ev
 3295 0bf0 7FE3FB78 		mr 3,31
 3296              	.L357:
 3297 0bf4 7C7F1B78 		mr 31,3
 3298 0bf8 38610074 		addi 3,1,116
 3299 0bfc 48000001 		bl _ZNSsD1Ev
 3300 0c00 7FE3FB78 		mr 3,31
 3301              	.L358:
 3302 0c04 7C7F1B78 		mr 31,3
 3303 0c08 38610078 		addi 3,1,120
 3304 0c0c 48000001 		bl _ZNSsD1Ev
 3305 0c10 7FE3FB78 		mr 3,31
 3306              	.L359:
 3307 0c14 7C7F1B78 		mr 31,3
 3308 0c18 3861007C 		addi 3,1,124
 3309 0c1c 48000001 		bl _ZNSsD1Ev
 3310 0c20 7FE3FB78 		mr 3,31
 3311 0c24 48000001 		bl _Unwind_Resume
 3312              	.L327:
 3313 0c28 4BFFFFCC 		b .L357
 3314              	.L326:
 3315 0c2c 4BFFFFC8 		b .L357
 3316              	.L325:
 3317 0c30 4BFFFFD4 		b .L358
 3318              	.L324:
 3319 0c34 4BFFFFD0 		b .L358
 3320              	.L323:
 3321 0c38 4BFFFFDC 		b .L359
 3322              	.L322:
 3323 0c3c 4BFFFFD8 		b .L359
 3324              	.LVL223:
 3325              	.L321:
 3326              	.L364:
 3327 0c40 7C7F1B78 		mr 31,3
 3328              	.LBE2587:
 3329              	.LBE2592:
 3330              	.LBE2597:
 3331              	.LBE2606:
 3332              		.loc 5 153 0
 3333 0c44 7F83E378 		mr 3,28
 3334 0c48 48000001 		bl _ZdlPv
 3335 0c4c 7FE3FB78 		mr 3,31
 3336 0c50 48000001 		bl _Unwind_Resume
 3337              	.L336:
 3338 0c54 4BFFFFEC 		b .L364
 3339              	.LVL224:
 3340              	.L350:
 3341              	.L363:
 3342 0c58 7C7F1B78 		mr 31,3
 3343              	.LBB2607:
 3344              	.LBB2598:
 3345              	.LBB2593:
 3346              	.LBB2588:
 3347              	.LBB2576:
 3348              	.LBB2571:
 3349              		.loc 8 27 0
 3350 0c5c 7FA3EB78 		mr 3,29
 3351 0c60 48000001 		bl _ZdlPv
 3352 0c64 7FE3FB78 		mr 3,31
 3353 0c68 48000001 		bl _Unwind_Resume
 3354              	.L352:
 3355 0c6c 4BFFFFEC 		b .L363
 3356              	.L351:
 3357 0c70 4BFFFFE8 		b .L363
 3358              	.L344:
 3359 0c74 7C7F1B78 		mr 31,3
 3360 0c78 4BFFFF24 		b .L299
 3361              	.L343:
 3362 0c7c 4BFFFF2C 		b .L360
 3363              	.L342:
 3364 0c80 4BFFFF28 		b .L360
 3365              	.L341:
 3366 0c84 4BFFFF34 		b .L361
 3367              	.LVL225:
 3368              	.L388:
 3369              	.LBE2571:
 3370              	.LBE2576:
 3371              	.LBB2577:
 3372              	.LBB2565:
 3373              	.LBB2560:
 3374              	.LBB2513:
 3375              	.LBB2512:
 3376              	.LBB2511:
 3377              	.LBB2510:
 3378              	.LBB2504:
 3379              	.LBB2505:
 3380              	.LBB2506:
 3381              		.loc 7 66 0
 3382 0c88 8169FFFC 		lwz 11,-4(9)
 3383              	.LVL226:
 3384              	.LBE2506:
 3385              	.LBE2505:
 3386              	.LBE2504:
 3387              		.loc 6 240 0
 3388 0c8c 2F8B0000 		cmpwi 7,11,0
 3389              	.LBB2509:
 3390              	.LBB2508:
 3391              	.LBB2507:
 3392              		.loc 7 67 0
 3393 0c90 396BFFFF 		addi 11,11,-1
 3394 0c94 9169FFFC 		stw 11,-4(9)
 3395              	.LBE2507:
 3396              	.LBE2508:
 3397              	.LBE2509:
 3398              		.loc 6 240 0
 3399 0c98 419DFCC4 		bgt+ 7,.L153
 3400              		.loc 6 244 0
 3401 0c9c 38810014 		addi 4,1,20
 3402 0ca0 48000001 		bl _ZNSs4_Rep10_M_destroyERKSaIcE
 3403              	.LVL227:
 3404 0ca4 4BFFFCB8 		b .L153
 3405              	.LVL228:
 3406              	.L387:
 3407              	.LBE2510:
 3408              	.LBE2511:
 3409              	.LBE2512:
 3410              	.LBE2513:
 3411              	.LBE2560:
 3412              	.LBB2561:
 3413              	.LBB2495:
 3414              	.LBB2494:
 3415              	.LBB2493:
 3416              	.LBB2492:
 3417              	.LBB2486:
 3418              	.LBB2487:
 3419              	.LBB2488:
 3420              		.loc 7 66 0
 3421 0ca8 8169FFFC 		lwz 11,-4(9)
 3422              	.LVL229:
 3423              	.LBE2488:
 3424              	.LBE2487:
 3425              	.LBE2486:
 3426              		.loc 6 240 0
 3427 0cac 2F8B0000 		cmpwi 7,11,0
 3428              	.LBB2491:
 3429              	.LBB2490:
 3430              	.LBB2489:
 3431              		.loc 7 67 0
 3432 0cb0 396BFFFF 		addi 11,11,-1
 3433 0cb4 9169FFFC 		stw 11,-4(9)
 3434              	.LBE2489:
 3435              	.LBE2490:
 3436              	.LBE2491:
 3437              		.loc 6 240 0
 3438 0cb8 419DFC94 		bgt+ 7,.L145
 3439              		.loc 6 244 0
 3440 0cbc 38810015 		addi 4,1,21
 3441 0cc0 48000001 		bl _ZNSs4_Rep10_M_destroyERKSaIcE
 3442              	.LVL230:
 3443 0cc4 4BFFFC88 		b .L145
 3444              	.LVL231:
 3445              	.L332:
 3446 0cc8 7C7F1B78 		mr 31,3
 3447              	.LBE2492:
 3448              	.LBE2493:
 3449              	.LBE2494:
 3450              	.LBE2495:
 3451              	.LBE2561:
 3452              		.loc 5 127 0
 3453 0ccc 38610060 		addi 3,1,96
 3454 0cd0 48000001 		bl _ZNSsD1Ev
 3455              	.L289:
 3456 0cd4 38610064 		addi 3,1,100
 3457 0cd8 48000001 		bl _ZNSsD1Ev
 3458 0cdc 7FE3FB78 		mr 3,31
 3459 0ce0 48000001 		bl _Unwind_Resume
 3460              	.L331:
 3461 0ce4 7C7F1B78 		mr 31,3
 3462 0ce8 4BFFFFEC 		b .L289
 3463              	.LVL232:
 3464              	.L389:
 3465              	.LBB2562:
 3466              	.LBB2531:
 3467              	.LBB2530:
 3468              	.LBB2529:
 3469              	.LBB2528:
 3470              	.LBB2522:
 3471              	.LBB2523:
 3472              	.LBB2524:
 3473              		.loc 7 66 0
 3474 0cec 8169FFFC 		lwz 11,-4(9)
 3475              	.LVL233:
 3476              	.LBE2524:
 3477              	.LBE2523:
 3478              	.LBE2522:
 3479              		.loc 6 240 0
 3480 0cf0 2F8B0000 		cmpwi 7,11,0
 3481              	.LBB2527:
 3482              	.LBB2526:
 3483              	.LBB2525:
 3484              		.loc 7 67 0
 3485 0cf4 396BFFFF 		addi 11,11,-1
 3486 0cf8 9169FFFC 		stw 11,-4(9)
 3487              	.LBE2525:
 3488              	.LBE2526:
 3489              	.LBE2527:
 3490              		.loc 6 240 0
 3491 0cfc 419DFCB8 		bgt+ 7,.L162
 3492              		.loc 6 244 0
 3493 0d00 38810013 		addi 4,1,19
 3494 0d04 48000001 		bl _ZNSs4_Rep10_M_destroyERKSaIcE
 3495              	.LVL234:
 3496 0d08 4BFFFCAC 		b .L162
 3497              	.LVL235:
 3498              	.L334:
 3499 0d0c 7C7F1B78 		mr 31,3
 3500              	.LBE2528:
 3501              	.LBE2529:
 3502              	.LBE2530:
 3503              	.LBE2531:
 3504              	.LBE2562:
 3505              		.loc 5 131 0
 3506 0d10 38610058 		addi 3,1,88
 3507 0d14 48000001 		bl _ZNSsD1Ev
 3508              	.L293:
 3509 0d18 3861005C 		addi 3,1,92
 3510 0d1c 48000001 		bl _ZNSsD1Ev
 3511 0d20 7FE3FB78 		mr 3,31
 3512 0d24 48000001 		bl _Unwind_Resume
 3513              	.L333:
 3514 0d28 7C7F1B78 		mr 31,3
 3515 0d2c 4BFFFFEC 		b .L293
 3516              	.LVL236:
 3517              	.L349:
 3518 0d30 4BFFFF28 		b .L363
 3519              	.LVL237:
 3520              	.L384:
 3521              	.LBE2565:
 3522              	.LBE2577:
 3523              	.LBB2578:
 3524              	.LBB2475:
 3525              	.LBB2474:
 3526              	.LBB2473:
 3527              	.LBB2472:
 3528              	.LBB2466:
 3529              	.LBB2467:
 3530              	.LBB2468:
 3531              		.loc 7 66 0
 3532 0d34 8169FFFC 		lwz 11,-4(9)
 3533              	.LVL238:
 3534              	.LBE2468:
 3535              	.LBE2467:
 3536              	.LBE2466:
 3537              		.loc 6 240 0
 3538 0d38 2F8B0000 		cmpwi 7,11,0
 3539              	.LBB2471:
 3540              	.LBB2470:
 3541              	.LBB2469:
 3542              		.loc 7 67 0
 3543 0d3c 396BFFFF 		addi 11,11,-1
 3544 0d40 9169FFFC 		stw 11,-4(9)
 3545              	.LBE2469:
 3546              	.LBE2470:
 3547              	.LBE2471:
 3548              		.loc 6 240 0
 3549 0d44 419DFAF0 		bgt+ 7,.L136
 3550              		.loc 6 244 0
 3551 0d48 38810016 		addi 4,1,22
 3552 0d4c 48000001 		bl _ZNSs4_Rep10_M_destroyERKSaIcE
 3553              	.LVL239:
 3554 0d50 4BFFFAE4 		b .L136
 3555              	.LVL240:
 3556              	.L383:
 3557              	.LBE2472:
 3558              	.LBE2473:
 3559              	.LBE2474:
 3560              	.LBE2475:
 3561              	.LBE2578:
 3562              	.LBB2579:
 3563              	.LBB2457:
 3564              	.LBB2456:
 3565              	.LBB2455:
 3566              	.LBB2454:
 3567              	.LBB2448:
 3568              	.LBB2449:
 3569              	.LBB2450:
 3570              		.loc 7 66 0
 3571 0d54 8169FFFC 		lwz 11,-4(9)
 3572              	.LVL241:
 3573              	.LBE2450:
 3574              	.LBE2449:
 3575              	.LBE2448:
 3576              		.loc 6 240 0
 3577 0d58 2F8B0000 		cmpwi 7,11,0
 3578              	.LBB2453:
 3579              	.LBB2452:
 3580              	.LBB2451:
 3581              		.loc 7 67 0
 3582 0d5c 396BFFFF 		addi 11,11,-1
 3583 0d60 9169FFFC 		stw 11,-4(9)
 3584              	.LBE2451:
 3585              	.LBE2452:
 3586              	.LBE2453:
 3587              		.loc 6 240 0
 3588 0d64 419DFAC0 		bgt+ 7,.L128
 3589              		.loc 6 244 0
 3590 0d68 38810017 		addi 4,1,23
 3591 0d6c 48000001 		bl _ZNSs4_Rep10_M_destroyERKSaIcE
 3592              	.LVL242:
 3593 0d70 4BFFFAB4 		b .L128
 3594              	.LVL243:
 3595              	.L382:
 3596              	.LBE2454:
 3597              	.LBE2455:
 3598              	.LBE2456:
 3599              	.LBE2457:
 3600              	.LBE2579:
 3601              	.LBB2580:
 3602              	.LBB2439:
 3603              	.LBB2438:
 3604              	.LBB2437:
 3605              	.LBB2436:
 3606              	.LBB2430:
 3607              	.LBB2431:
 3608              	.LBB2432:
 3609              		.loc 7 66 0
 3610 0d74 8169FFFC 		lwz 11,-4(9)
 3611              	.LVL244:
 3612              	.LBE2432:
 3613              	.LBE2431:
 3614              	.LBE2430:
 3615              		.loc 6 240 0
 3616 0d78 2F8B0000 		cmpwi 7,11,0
 3617              	.LBB2435:
 3618              	.LBB2434:
 3619              	.LBB2433:
 3620              		.loc 7 67 0
 3621 0d7c 396BFFFF 		addi 11,11,-1
 3622 0d80 9169FFFC 		stw 11,-4(9)
 3623              	.LBE2433:
 3624              	.LBE2434:
 3625              	.LBE2435:
 3626              		.loc 6 240 0
 3627 0d84 419DFA90 		bgt+ 7,.L120
 3628              		.loc 6 244 0
 3629 0d88 38810018 		addi 4,1,24
 3630 0d8c 48000001 		bl _ZNSs4_Rep10_M_destroyERKSaIcE
 3631              	.LVL245:
 3632 0d90 4BFFFA84 		b .L120
 3633              	.LVL246:
 3634              	.L381:
 3635              	.LBE2436:
 3636              	.LBE2437:
 3637              	.LBE2438:
 3638              	.LBE2439:
 3639              	.LBE2580:
 3640              	.LBB2581:
 3641              	.LBB2421:
 3642              	.LBB2420:
 3643              	.LBB2419:
 3644              	.LBB2418:
 3645              	.LBB2412:
 3646              	.LBB2413:
 3647              	.LBB2414:
 3648              		.loc 7 66 0
 3649 0d94 8169FFFC 		lwz 11,-4(9)
 3650              	.LVL247:
 3651              	.LBE2414:
 3652              	.LBE2413:
 3653              	.LBE2412:
 3654              		.loc 6 240 0
 3655 0d98 2F8B0000 		cmpwi 7,11,0
 3656              	.LBB2417:
 3657              	.LBB2416:
 3658              	.LBB2415:
 3659              		.loc 7 67 0
 3660 0d9c 396BFFFF 		addi 11,11,-1
 3661 0da0 9169FFFC 		stw 11,-4(9)
 3662              	.LBE2415:
 3663              	.LBE2416:
 3664              	.LBE2417:
 3665              		.loc 6 240 0
 3666 0da4 419DFA60 		bgt+ 7,.L112
 3667              		.loc 6 244 0
 3668 0da8 38810019 		addi 4,1,25
 3669 0dac 48000001 		bl _ZNSs4_Rep10_M_destroyERKSaIcE
 3670              	.LVL248:
 3671 0db0 4BFFFA54 		b .L112
 3672              	.LVL249:
 3673              	.L380:
 3674              	.LBE2418:
 3675              	.LBE2419:
 3676              	.LBE2420:
 3677              	.LBE2421:
 3678              	.LBE2581:
 3679              	.LBB2582:
 3680              	.LBB2403:
 3681              	.LBB2402:
 3682              	.LBB2401:
 3683              	.LBB2400:
 3684              	.LBB2394:
 3685              	.LBB2395:
 3686              	.LBB2396:
 3687              		.loc 7 66 0
 3688 0db4 8169FFFC 		lwz 11,-4(9)
 3689              	.LVL250:
 3690              	.LBE2396:
 3691              	.LBE2395:
 3692              	.LBE2394:
 3693              		.loc 6 240 0
 3694 0db8 2F8B0000 		cmpwi 7,11,0
 3695              	.LBB2399:
 3696              	.LBB2398:
 3697              	.LBB2397:
 3698              		.loc 7 67 0
 3699 0dbc 396BFFFF 		addi 11,11,-1
 3700 0dc0 9169FFFC 		stw 11,-4(9)
 3701              	.LBE2397:
 3702              	.LBE2398:
 3703              	.LBE2399:
 3704              		.loc 6 240 0
 3705 0dc4 419DFA30 		bgt+ 7,.L104
 3706              		.loc 6 244 0
 3707 0dc8 3881001A 		addi 4,1,26
 3708 0dcc 48000001 		bl _ZNSs4_Rep10_M_destroyERKSaIcE
 3709              	.LVL251:
 3710 0dd0 4BFFFA24 		b .L104
 3711              	.LVL252:
 3712              	.L379:
 3713              	.LBE2400:
 3714              	.LBE2401:
 3715              	.LBE2402:
 3716              	.LBE2403:
 3717              	.LBE2582:
 3718              	.LBB2583:
 3719              	.LBB2384:
 3720              	.LBB2382:
 3721              	.LBB2380:
 3722              	.LBB2377:
 3723              	.LBB2369:
 3724              	.LBB2370:
 3725              	.LBB2371:
 3726              		.loc 7 66 0
 3727 0dd4 8169FFFC 		lwz 11,-4(9)
 3728              	.LVL253:
 3729              	.LBE2371:
 3730              	.LBE2370:
 3731              	.LBE2369:
 3732              		.loc 6 240 0
 3733 0dd8 2F8B0000 		cmpwi 7,11,0
 3734              	.LBB2374:
 3735              	.LBB2373:
 3736              	.LBB2372:
 3737              		.loc 7 67 0
 3738 0ddc 396BFFFF 		addi 11,11,-1
 3739 0de0 9169FFFC 		stw 11,-4(9)
 3740              	.LBE2372:
 3741              	.LBE2373:
 3742              	.LBE2374:
 3743              		.loc 6 240 0
 3744 0de4 419DFA00 		bgt+ 7,.L96
 3745              		.loc 6 244 0
 3746 0de8 3881001B 		addi 4,1,27
 3747 0dec 48000001 		bl _ZNSs4_Rep10_M_destroyERKSaIcE
 3748              	.LVL254:
 3749 0df0 4BFFF9F4 		b .L96
 3750              	.LVL255:
 3751              	.L330:
 3752 0df4 7C7F1B78 		mr 31,3
 3753              	.LBE2377:
 3754              	.LBE2380:
 3755              	.LBE2382:
 3756              	.LBE2384:
 3757              	.LBE2583:
 3758              		.loc 5 121 0
 3759 0df8 38610068 		addi 3,1,104
 3760 0dfc 48000001 		bl _ZNSsD1Ev
 3761              	.L270:
 3762 0e00 3861006C 		addi 3,1,108
 3763 0e04 48000001 		bl _ZNSsD1Ev
 3764 0e08 4BFFFDE0 		b .L273
 3765              	.L329:
 3766 0e0c 7C7F1B78 		mr 31,3
 3767 0e10 4BFFFFF0 		b .L270
 3768              	.L340:
 3769 0e14 4BFFFDA4 		b .L361
 3770              	.L339:
 3771 0e18 4BFFFDB0 		b .L362
 3772              	.L338:
 3773 0e1c 4BFFFDAC 		b .L362
 3774              	.L337:
 3775 0e20 7C7F1B78 		mr 31,3
 3776 0e24 4BFFFDB0 		b .L314
 3777              	.LVL256:
 3778              	.L348:
 3779 0e28 7C7F1B78 		mr 31,3
 3780              	.LBE2588:
 3781              	.LBE2593:
 3782              	.LBE2598:
 3783              	.LBE2607:
 3784              	.LBB2608:
 3785              	.LBB2355:
 3786              	.LBB2349:
 3787              	.LBB2334:
 3788              	.LBB2329:
 3789              	.LBB2324:
 3790              	.LBB2199:
 3791              	.LBB2197:
 3792              		.loc 5 173 0
 3793 0e2c 38610030 		addi 3,1,48
 3794 0e30 48000001 		bl _ZNSsD1Ev
 3795 0e34 7FE3FB78 		mr 3,31
 3796 0e38 48000001 		bl _Unwind_Resume
 3797              	.LVL257:
 3798              	.L366:
 3799              	.LBE2197:
 3800              	.LBE2199:
 3801              	.LBB2200:
 3802              	.LBB2166:
 3803              	.LBB2165:
 3804              	.LBB2164:
 3805              	.LBB2163:
 3806              	.LBB2157:
 3807              	.LBB2158:
 3808              	.LBB2159:
 3809              		.loc 7 66 0
 3810 0e3c 8169FFFC 		lwz 11,-4(9)
 3811              	.LVL258:
 3812              	.LBE2159:
 3813              	.LBE2158:
 3814              	.LBE2157:
 3815              		.loc 6 240 0
 3816 0e40 2F8B0000 		cmpwi 7,11,0
 3817              	.LBB2162:
 3818              	.LBB2161:
 3819              	.LBB2160:
 3820              		.loc 7 67 0
 3821 0e44 396BFFFF 		addi 11,11,-1
 3822 0e48 9169FFFC 		stw 11,-4(9)
 3823              	.LBE2160:
 3824              	.LBE2161:
 3825              	.LBE2162:
 3826              		.loc 6 240 0
 3827 0e4c 419DF4EC 		bgt+ 7,.L244
 3828              		.loc 6 244 0
 3829 0e50 3881000A 		addi 4,1,10
 3830 0e54 48000001 		bl _ZNSs4_Rep10_M_destroyERKSaIcE
 3831              	.LVL259:
 3832 0e58 4BFFF4E0 		b .L244
 3833              	.LVL260:
 3834              	.L347:
 3835 0e5c 7C7F1B78 		mr 31,3
 3836              	.LBE2163:
 3837              	.LBE2164:
 3838              	.LBE2165:
 3839              	.LBE2166:
 3840              	.LBE2200:
 3841              		.loc 5 165 0
 3842 0e60 38610034 		addi 3,1,52
 3843 0e64 48000001 		bl _ZNSsD1Ev
 3844              	.L318:
 3845 0e68 38610038 		addi 3,1,56
 3846 0e6c 48000001 		bl _ZNSsD1Ev
 3847 0e70 7FE3FB78 		mr 3,31
 3848 0e74 48000001 		bl _Unwind_Resume
 3849              	.LEHE45:
 3850              	.L346:
 3851 0e78 7C7F1B78 		mr 31,3
 3852 0e7c 4BFFFFEC 		b .L318
 3853              	.LBE2324:
 3854              	.LBE2329:
 3855              	.LBE2334:
 3856              	.LBE2349:
 3857              	.LBE2355:
 3858              	.LBE2608:
 3859              	.LBE2615:
 3860              	.LBE2623:
 3861              	.LBE2628:
 3862              		.cfi_endproc
 3863              	.LFE1601:
 3864              		.globl __gxx_personality_v0
 3865              		.section	.gcc_except_table,"a",@progbits
 3866              	.LLSDA1601:
 3867 0000 FF       		.byte	0xff
 3868 0001 FF       		.byte	0xff
 3869 0002 01       		.byte	0x1
 3870 0003 8802     		.uleb128 .LLSDACSE1601-.LLSDACSB1601
 3871              	.LLSDACSB1601:
 3872 0005 54       		.uleb128 .LEHB0-.LFB1601
 3873 0006 28       		.uleb128 .LEHE0-.LEHB0
 3874 0007 00       		.uleb128 0
 3875 0008 00       		.uleb128 0
 3876 0009 8801     		.uleb128 .LEHB1-.LFB1601
 3877 000b 04       		.uleb128 .LEHE1-.LEHB1
 3878 000c EC17     		.uleb128 .L346-.LFB1601
 3879 000e 00       		.uleb128 0
 3880 000f 9801     		.uleb128 .LEHB2-.LFB1601
 3881 0011 04       		.uleb128 .LEHE2-.LEHB2
 3882 0012 D017     		.uleb128 .L347-.LFB1601
 3883 0014 00       		.uleb128 0
 3884 0015 F001     		.uleb128 .LEHB3-.LFB1601
 3885 0017 CC01     		.uleb128 .LEHE3-.LEHB3
 3886 0019 00       		.uleb128 0
 3887 001a 00       		.uleb128 0
 3888 001b C003     		.uleb128 .LEHB4-.LFB1601
 3889 001d 04       		.uleb128 .LEHE4-.LEHB4
 3890 001e C813     		.uleb128 .L336-.LFB1601
 3891 0020 00       		.uleb128 0
 3892 0021 D003     		.uleb128 .LEHB5-.LFB1601
 3893 0023 34       		.uleb128 .LEHE5-.LEHB5
 3894 0024 00       		.uleb128 0
 3895 0025 00       		.uleb128 0
 3896 0026 9004     		.uleb128 .LEHB6-.LFB1601
 3897 0028 04       		.uleb128 .LEHE6-.LEHB6
 3898 0029 9417     		.uleb128 .L337-.LFB1601
 3899 002b 00       		.uleb128 0
 3900 002c C004     		.uleb128 .LEHB7-.LFB1601
 3901 002e 04       		.uleb128 .LEHE7-.LEHB7
 3902 002f 9017     		.uleb128 .L338-.LFB1601
 3903 0031 00       		.uleb128 0
 3904 0032 D004     		.uleb128 .LEHB8-.LFB1601
 3905 0034 04       		.uleb128 .LEHE8-.LEHB8
 3906 0035 8C17     		.uleb128 .L339-.LFB1601
 3907 0037 00       		.uleb128 0
 3908 0038 DC04     		.uleb128 .LEHB9-.LFB1601
 3909 003a 04       		.uleb128 .LEHE9-.LEHB9
 3910 003b 8817     		.uleb128 .L340-.LFB1601
 3911 003d 00       		.uleb128 0
 3912 003e EC04     		.uleb128 .LEHB10-.LFB1601
 3913 0040 04       		.uleb128 .LEHE10-.LEHB10
 3914 0041 F813     		.uleb128 .L341-.LFB1601
 3915 0043 00       		.uleb128 0
 3916 0044 F804     		.uleb128 .LEHB11-.LFB1601
 3917 0046 04       		.uleb128 .LEHE11-.LEHB11
 3918 0047 F413     		.uleb128 .L342-.LFB1601
 3919 0049 00       		.uleb128 0
 3920 004a 8805     		.uleb128 .LEHB12-.LFB1601
 3921 004c 04       		.uleb128 .LEHE12-.LEHB12
 3922 004d F013     		.uleb128 .L343-.LFB1601
 3923 004f 00       		.uleb128 0
 3924 0050 9805     		.uleb128 .LEHB13-.LFB1601
 3925 0052 04       		.uleb128 .LEHE13-.LEHB13
 3926 0053 E813     		.uleb128 .L344-.LFB1601
 3927 0055 00       		.uleb128 0
 3928 0056 B805     		.uleb128 .LEHB14-.LFB1601
 3929 0058 04       		.uleb128 .LEHE14-.LEHB14
 3930 0059 8412     		.uleb128 .L345-.LFB1601
 3931 005b 00       		.uleb128 0
 3932 005c FC06     		.uleb128 .LEHB15-.LFB1601
 3933 005e 8402     		.uleb128 .LEHE15-.LEHB15
 3934 0060 00       		.uleb128 0
 3935 0061 00       		.uleb128 0
 3936 0062 8409     		.uleb128 .LEHB16-.LFB1601
 3937 0064 04       		.uleb128 .LEHE16-.LEHB16
 3938 0065 B413     		.uleb128 .L321-.LFB1601
 3939 0067 00       		.uleb128 0
 3940 0068 9C09     		.uleb128 .LEHB17-.LFB1601
 3941 006a 04       		.uleb128 .LEHE17-.LEHB17
 3942 006b 00       		.uleb128 0
 3943 006c 00       		.uleb128 0
 3944 006d A809     		.uleb128 .LEHB18-.LFB1601
 3945 006f 04       		.uleb128 .LEHE18-.LEHB18
 3946 0070 B013     		.uleb128 .L322-.LFB1601
 3947 0072 00       		.uleb128 0
 3948 0073 B809     		.uleb128 .LEHB19-.LFB1601
 3949 0075 04       		.uleb128 .LEHE19-.LEHB19
 3950 0076 AC13     		.uleb128 .L323-.LFB1601
 3951 0078 00       		.uleb128 0
 3952 0079 C409     		.uleb128 .LEHB20-.LFB1601
 3953 007b 04       		.uleb128 .LEHE20-.LEHB20
 3954 007c A813     		.uleb128 .L324-.LFB1601
 3955 007e 00       		.uleb128 0
 3956 007f D409     		.uleb128 .LEHB21-.LFB1601
 3957 0081 04       		.uleb128 .LEHE21-.LEHB21
 3958 0082 A413     		.uleb128 .L325-.LFB1601
 3959 0084 00       		.uleb128 0
 3960 0085 E009     		.uleb128 .LEHB22-.LFB1601
 3961 0087 04       		.uleb128 .LEHE22-.LEHB22
 3962 0088 A013     		.uleb128 .L326-.LFB1601
 3963 008a 00       		.uleb128 0
 3964 008b F009     		.uleb128 .LEHB23-.LFB1601
 3965 008d 04       		.uleb128 .LEHE23-.LEHB23
 3966 008e 9C13     		.uleb128 .L327-.LFB1601
 3967 0090 00       		.uleb128 0
 3968 0091 880A     		.uleb128 .LEHB24-.LFB1601
 3969 0093 04       		.uleb128 .LEHE24-.LEHB24
 3970 0094 D812     		.uleb128 .L328-.LFB1601
 3971 0096 00       		.uleb128 0
 3972 0097 980A     		.uleb128 .LEHB25-.LFB1601
 3973 0099 04       		.uleb128 .LEHE25-.LEHB25
 3974 009a 8017     		.uleb128 .L329-.LFB1601
 3975 009c 00       		.uleb128 0
 3976 009d B80A     		.uleb128 .LEHB26-.LFB1601
 3977 009f 04       		.uleb128 .LEHE26-.LEHB26
 3978 00a0 E816     		.uleb128 .L330-.LFB1601
 3979 00a2 00       		.uleb128 0
 3980 00a3 C80B     		.uleb128 .LEHB27-.LFB1601
 3981 00a5 18       		.uleb128 .LEHE27-.LEHB27
 3982 00a6 00       		.uleb128 0
 3983 00a7 00       		.uleb128 0
 3984 00a8 E40B     		.uleb128 .LEHB28-.LFB1601
 3985 00aa 04       		.uleb128 .LEHE28-.LEHB28
 3986 00ab CC13     		.uleb128 .L350-.LFB1601
 3987 00ad 00       		.uleb128 0
 3988 00ae F80B     		.uleb128 .LEHB29-.LFB1601
 3989 00b0 30       		.uleb128 .LEHE29-.LEHB29
 3990 00b1 00       		.uleb128 0
 3991 00b2 00       		.uleb128 0
 3992 00b3 B00C     		.uleb128 .LEHB30-.LFB1601
 3993 00b5 04       		.uleb128 .LEHE30-.LEHB30
 3994 00b6 9C17     		.uleb128 .L348-.LFB1601
 3995 00b8 00       		.uleb128 0
 3996 00b9 E80C     		.uleb128 .LEHB31-.LFB1601
 3997 00bb 28       		.uleb128 .LEHE31-.LEHB31
 3998 00bc 00       		.uleb128 0
 3999 00bd 00       		.uleb128 0
 4000 00be 9C0D     		.uleb128 .LEHB32-.LFB1601
 4001 00c0 04       		.uleb128 .LEHE32-.LEHB32
 4002 00c1 D814     		.uleb128 .L331-.LFB1601
 4003 00c3 00       		.uleb128 0
 4004 00c4 AC0D     		.uleb128 .LEHB33-.LFB1601
 4005 00c6 04       		.uleb128 .LEHE33-.LEHB33
 4006 00c7 BC14     		.uleb128 .L332-.LFB1601
 4007 00c9 00       		.uleb128 0
 4008 00ca D00D     		.uleb128 .LEHB34-.LFB1601
 4009 00cc 28       		.uleb128 .LEHE34-.LEHB34
 4010 00cd 00       		.uleb128 0
 4011 00ce 00       		.uleb128 0
 4012 00cf 840E     		.uleb128 .LEHB35-.LFB1601
 4013 00d1 04       		.uleb128 .LEHE35-.LEHB35
 4014 00d2 9C15     		.uleb128 .L333-.LFB1601
 4015 00d4 00       		.uleb128 0
 4016 00d5 940E     		.uleb128 .LEHB36-.LFB1601
 4017 00d7 04       		.uleb128 .LEHE36-.LEHB36
 4018 00d8 8015     		.uleb128 .L334-.LFB1601
 4019 00da 00       		.uleb128 0
 4020 00db E00E     		.uleb128 .LEHB37-.LFB1601
 4021 00dd 1C       		.uleb128 .LEHE37-.LEHB37
 4022 00de 00       		.uleb128 0
 4023 00df 00       		.uleb128 0
 4024 00e0 800F     		.uleb128 .LEHB38-.LFB1601
 4025 00e2 04       		.uleb128 .LEHE38-.LEHB38
 4026 00e3 E013     		.uleb128 .L352-.LFB1601
 4027 00e5 00       		.uleb128 0
 4028 00e6 900F     		.uleb128 .LEHB39-.LFB1601
 4029 00e8 04       		.uleb128 .LEHE39-.LEHB39
 4030 00e9 00       		.uleb128 0
 4031 00ea 00       		.uleb128 0
 4032 00eb 980F     		.uleb128 .LEHB40-.LFB1601
 4033 00ed 04       		.uleb128 .LEHE40-.LEHB40
 4034 00ee E413     		.uleb128 .L351-.LFB1601
 4035 00f0 00       		.uleb128 0
 4036 00f1 AC0F     		.uleb128 .LEHB41-.LFB1601
 4037 00f3 1C       		.uleb128 .LEHE41-.LEHB41
 4038 00f4 00       		.uleb128 0
 4039 00f5 00       		.uleb128 0
 4040 00f6 CC0F     		.uleb128 .LEHB42-.LFB1601
 4041 00f8 04       		.uleb128 .LEHE42-.LEHB42
 4042 00f9 A415     		.uleb128 .L349-.LFB1601
 4043 00fb 00       		.uleb128 0
 4044 00fc E00F     		.uleb128 .LEHB43-.LFB1601
 4045 00fe 14       		.uleb128 .LEHE43-.LEHB43
 4046 00ff 00       		.uleb128 0
 4047 0100 00       		.uleb128 0
 4048 0101 FC0F     		.uleb128 .LEHB44-.LFB1601
 4049 0103 04       		.uleb128 .LEHE44-.LEHB44
 4050 0104 F011     		.uleb128 .L335-.LFB1601
 4051 0106 00       		.uleb128 0
 4052 0107 8012     		.uleb128 .LEHB45-.LFB1601
 4053 0109 EC05     		.uleb128 .LEHE45-.LEHB45
 4054 010b 00       		.uleb128 0
 4055 010c 00       		.uleb128 0
 4056              	.LLSDACSE1601:
 4057              		.section	".text"
 4058              		.size	_ZN18UpdateSettingsMenu14OnBrowserClickEP16GuiOptionBrowseri, .-_ZN18UpdateSettingsMenu14OnB
 4059              		.align 2
 4060              		.globl _ZN18UpdateSettingsMenuC2Ev
 4061              		.type	_ZN18UpdateSettingsMenuC2Ev, @function
 4062              	_ZN18UpdateSettingsMenuC2Ev:
 4063              	.LFB1597:
 4064              		.loc 5 47 0
 4065              		.cfi_startproc
 4066              		.cfi_personality 0,__gxx_personality_v0
 4067              		.cfi_lsda 0,.LLSDA1597
 4068              	.LVL261:
 4069 0e80 9421FFD8 		stwu 1,-40(1)
 4070              	.LCFI36:
 4071              		.cfi_def_cfa_offset 40
 4072 0e84 7C0802A6 		mflr 0
 4073 0e88 93A1001C 		stw 29,28(1)
 4074              	.LBB2684:
 4075              	.LBB2685:
 4076              	.LBB2686:
 4077              		.file 9 "d:/Projects/SaveGameManager/savegame-manager-gx/trunk/source/Settings/menus/SettingsMenu.
 4078              		.loc 9 46 0
 4079 0e8c 3FA00000 		lis 29,_ZN12SettingsMenu8instanceE@ha
 4080              		.cfi_offset 29, -12
 4081              		.cfi_register 65, 0
 4082              	.LBE2686:
 4083              	.LBE2685:
 4084              	.LBE2684:
 4085              		.loc 5 47 0
 4086 0e90 9001002C 		stw 0,44(1)
 4087 0e94 93C10020 		stw 30,32(1)
 4088 0e98 93E10024 		stw 31,36(1)
 4089              		.loc 5 47 0
 4090 0e9c 7C7F1B78 		mr 31,3
 4091              		.cfi_offset 31, -4
 4092              		.cfi_offset 30, -8
 4093              		.cfi_offset 65, 4
 4094              	.LEHB46:
 4095              	.LBB2743:
 4096              		.loc 5 48 0
 4097 0ea0 48000001 		bl _ZN15SettingsBrowserC2Ev
 4098              	.LEHE46:
 4099              	.LVL262:
 4100              	.LBB2692:
 4101              	.LBB2687:
 4102              		.loc 9 46 0
 4103 0ea4 83DD0000 		lwz 30,_ZN12SettingsMenu8instanceE@l(29)
 4104              	.LBE2687:
 4105              	.LBE2692:
 4106              		.loc 5 48 0
 4107 0ea8 3D200000 		lis 9,_ZTV18UpdateSettingsMenu+8@ha
 4108              	.LBB2693:
 4109              	.LBB2688:
 4110              		.loc 9 46 0
 4111 0eac 2F9E0000 		cmpwi 7,30,0
 4112              	.LBE2688:
 4113              	.LBE2693:
 4114              		.loc 5 48 0
 4115 0eb0 39290008 		la 9,_ZTV18UpdateSettingsMenu+8@l(9)
 4116 0eb4 380900F0 		addi 0,9,240
 4117 0eb8 913F0000 		stw 9,0(31)
 4118 0ebc 901F00B0 		stw 0,176(31)
 4119              	.LBB2694:
 4120              	.LBB2689:
 4121              		.loc 9 46 0
 4122 0ec0 419E00A4 		beq- 7,.L424
 4123              	.L391:
 4124              	.LBE2689:
 4125              	.LBE2694:
 4126              		.loc 5 50 0
 4127 0ec4 3C600000 		lis 3,.LC28@ha
 4128 0ec8 38630188 		la 3,.LC28@l(3)
 4129              	.LEHB47:
 4130 0ecc 48000001 		bl gettext
 4131              	.LEHE47:
 4132 0ed0 7C641B78 		mr 4,3
 4133 0ed4 38A1000A 		addi 5,1,10
 4134 0ed8 38610010 		addi 3,1,16
 4135              	.LEHB48:
 4136 0edc 48000001 		bl _ZNSsC1EPKcRKSaIcE
 4137              	.LEHE48:
 4138              		.loc 5 188 0 discriminator 3
 4139 0ee0 83DE00D8 		lwz 30,216(30)
 4140              	.LVL263:
 4141              	.LBB2695:
 4142              	.LBB2696:
 4143              		.loc 9 52 0 discriminator 3
 4144 0ee4 2F9E0000 		cmpwi 7,30,0
 4145 0ee8 419E0094 		beq- 7,.L425
 4146              		.loc 9 52 0 is_stmt 0
 4147 0eec 813E0000 		lwz 9,0(30)
 4148 0ef0 3861000C 		addi 3,1,12
 4149 0ef4 38810010 		addi 4,1,16
 4150              	.LVL264:
 4151 0ef8 83A900CC 		lwz 29,204(9)
 4152              	.LEHB49:
 4153 0efc 48000001 		bl _ZNSsC1ERKSs
 4154              	.LEHE49:
 4155              	.LVL265:
 4156 0f00 7FC3F378 		mr 3,30
 4157 0f04 3881000C 		addi 4,1,12
 4158 0f08 7FA903A6 		mtctr 29
 4159              	.LEHB50:
 4160 0f0c 4E800421 		bctrl
 4161              	.LEHE50:
 4162              	.LVL266:
 4163              	.LBB2697:
 4164              	.LBB2698:
 4165              	.LBB2699:
 4166              	.LBB2700:
 4167              	.LBB2701:
 4168              	.LBB2702:
 4169              		.loc 6 288 0 is_stmt 1
 4170 0f10 8121000C 		lwz 9,12(1)
 4171              	.LBE2702:
 4172              	.LBE2701:
 4173              	.LBE2700:
 4174              	.LBB2703:
 4175              	.LBB2704:
 4176              		.loc 6 235 0
 4177 0f14 3FC00000 		lis 30,_ZNSs4_Rep20_S_empty_rep_storageE@ha
 4178 0f18 3BDE0000 		la 30,_ZNSs4_Rep20_S_empty_rep_storageE@l(30)
 4179              	.LBE2704:
 4180              	.LBE2703:
 4181              		.loc 6 534 0
 4182 0f1c 3869FFF4 		addi 3,9,-12
 4183              	.LVL267:
 4184              	.LBB2713:
 4185              	.LBB2711:
 4186              		.loc 6 235 0
 4187 0f20 7F83F000 		cmpw 7,3,30
 4188 0f24 409E0084 		bne- 7,.L426
 4189              	.LVL268:
 4190              	.L402:
 4191              	.LBE2711:
 4192              	.LBE2713:
 4193              	.LBE2699:
 4194              	.LBE2698:
 4195              	.LBE2697:
 4196              	.LBE2696:
 4197              	.LBE2695:
 4198              	.LBB2720:
 4199              	.LBB2721:
 4200              	.LBB2722:
 4201              	.LBB2723:
 4202              	.LBB2724:
 4203              	.LBB2725:
 4204              		.loc 6 288 0 discriminator 1
 4205 0f28 81210010 		lwz 9,16(1)
 4206              	.LBE2725:
 4207              	.LBE2724:
 4208              	.LBE2723:
 4209              		.loc 6 534 0 discriminator 1
 4210 0f2c 3869FFF4 		addi 3,9,-12
 4211              	.LVL269:
 4212              	.LBB2726:
 4213              	.LBB2727:
 4214              		.loc 6 235 0 discriminator 1
 4215 0f30 7F83F000 		cmpw 7,3,30
 4216 0f34 409E0054 		bne- 7,.L427
 4217              	.LVL270:
 4218              	.L410:
 4219              	.LBE2727:
 4220              	.LBE2726:
 4221              	.LBE2722:
 4222              	.LBE2721:
 4223              	.LBE2720:
 4224              		.loc 5 52 0 discriminator 1
 4225 0f38 7FE3FB78 		mr 3,31
 4226              	.LEHB51:
 4227 0f3c 48000001 		bl _ZN18UpdateSettingsMenu15SetupOptionNameEv
 4228              		.loc 5 53 0
 4229 0f40 7FE3FB78 		mr 3,31
 4230 0f44 48000001 		bl _ZN15SettingsBrowser4showEv
 4231              	.LBE2743:
 4232              		.loc 5 54 0
 4233 0f48 8001002C 		lwz 0,44(1)
 4234 0f4c 83A1001C 		lwz 29,28(1)
 4235 0f50 7C0803A6 		mtlr 0
 4236 0f54 83C10020 		lwz 30,32(1)
 4237 0f58 83E10024 		lwz 31,36(1)
 4238              	.LVL271:
 4239 0f5c 38210028 		addi 1,1,40
 4240              		.cfi_remember_state
 4241              	.LCFI37:
 4242              		.cfi_def_cfa_offset 0
 4243              		.cfi_restore 31
 4244              		.cfi_restore 30
 4245              		.cfi_restore 29
 4246 0f60 4E800020 		blr
 4247              	.LVL272:
 4248              	.L424:
 4249              	.LCFI38:
 4250              		.cfi_restore_state
 4251              	.LBB2744:
 4252              	.LBB2738:
 4253              	.LBB2690:
 4254              		.loc 9 46 0
 4255 0f64 386003D4 		li 3,980
 4256 0f68 48000001 		bl _Znwj
 4257              	.LEHE51:
 4258 0f6c 7C7E1B78 		mr 30,3
 4259              	.LEHB52:
 4260 0f70 48000001 		bl _ZN12SettingsMenuC1Ev
 4261              	.LEHE52:
 4262 0f74 93DD0000 		stw 30,_ZN12SettingsMenu8instanceE@l(29)
 4263 0f78 4BFFFF4C 		b .L391
 4264              	.LVL273:
 4265              	.L425:
 4266 0f7c 3FC00000 		lis 30,_ZNSs4_Rep20_S_empty_rep_storageE@ha
 4267 0f80 3BDE0000 		la 30,_ZNSs4_Rep20_S_empty_rep_storageE@l(30)
 4268 0f84 4BFFFFA4 		b .L402
 4269              	.LVL274:
 4270              	.L427:
 4271              	.LBE2690:
 4272              	.LBE2738:
 4273              	.LBB2739:
 4274              	.LBB2737:
 4275              	.LBB2736:
 4276              	.LBB2735:
 4277              	.LBB2734:
 4278              	.LBB2728:
 4279              	.LBB2729:
 4280              	.LBB2730:
 4281              		.loc 7 66 0
 4282 0f88 8169FFFC 		lwz 11,-4(9)
 4283              	.LVL275:
 4284              	.LBE2730:
 4285              	.LBE2729:
 4286              	.LBE2728:
 4287              		.loc 6 240 0
 4288 0f8c 2F8B0000 		cmpwi 7,11,0
 4289              	.LBB2733:
 4290              	.LBB2732:
 4291              	.LBB2731:
 4292              		.loc 7 67 0
 4293 0f90 396BFFFF 		addi 11,11,-1
 4294 0f94 9169FFFC 		stw 11,-4(9)
 4295              	.LBE2731:
 4296              	.LBE2732:
 4297              	.LBE2733:
 4298              		.loc 6 240 0
 4299 0f98 419DFFA0 		bgt+ 7,.L410
 4300              		.loc 6 244 0
 4301 0f9c 38810008 		addi 4,1,8
 4302 0fa0 48000001 		bl _ZNSs4_Rep10_M_destroyERKSaIcE
 4303              	.LVL276:
 4304 0fa4 4BFFFF94 		b .L410
 4305              	.LVL277:
 4306              	.L426:
 4307              	.LBE2734:
 4308              	.LBE2735:
 4309              	.LBE2736:
 4310              	.LBE2737:
 4311              	.LBE2739:
 4312              	.LBB2740:
 4313              	.LBB2718:
 4314              	.LBB2717:
 4315              	.LBB2716:
 4316              	.LBB2715:
 4317              	.LBB2714:
 4318              	.LBB2712:
 4319              	.LBB2705:
 4320              	.LBB2706:
 4321              	.LBB2707:
 4322              		.loc 7 66 0
 4323 0fa8 8169FFFC 		lwz 11,-4(9)
 4324              	.LVL278:
 4325              	.LBE2707:
 4326              	.LBE2706:
 4327              	.LBE2705:
 4328              		.loc 6 240 0
 4329 0fac 2F8B0000 		cmpwi 7,11,0
 4330              	.LBB2710:
 4331              	.LBB2709:
 4332              	.LBB2708:
 4333              		.loc 7 67 0
 4334 0fb0 396BFFFF 		addi 11,11,-1
 4335 0fb4 9169FFFC 		stw 11,-4(9)
 4336              	.LBE2708:
 4337              	.LBE2709:
 4338              	.LBE2710:
 4339              		.loc 6 240 0
 4340 0fb8 419DFF70 		bgt+ 7,.L402
 4341              		.loc 6 244 0
 4342 0fbc 38810009 		addi 4,1,9
 4343 0fc0 48000001 		bl _ZNSs4_Rep10_M_destroyERKSaIcE
 4344              	.LVL279:
 4345 0fc4 4BFFFF64 		b .L402
 4346              	.LVL280:
 4347              	.L414:
 4348              	.L423:
 4349 0fc8 7C7E1B78 		mr 30,3
 4350              	.L394:
 4351              	.LBE2712:
 4352              	.LBE2714:
 4353              	.LBE2715:
 4354              	.LBE2716:
 4355              	.LBE2717:
 4356              	.LBE2718:
 4357              	.LBE2740:
 4358              		.loc 5 48 0
 4359 0fcc 7FE3FB78 		mr 3,31
 4360 0fd0 48000001 		bl _ZN15SettingsBrowserD2Ev
 4361 0fd4 7FC3F378 		mr 3,30
 4362              	.LEHB53:
 4363 0fd8 48000001 		bl _Unwind_Resume
 4364              	.LEHE53:
 4365              	.L417:
 4366 0fdc 7C7D1B78 		mr 29,3
 4367              	.LBB2741:
 4368              	.LBB2691:
 4369              		.loc 9 46 0
 4370 0fe0 7FC3F378 		mr 3,30
 4371 0fe4 48000001 		bl _ZdlPv
 4372 0fe8 7FBEEB78 		mr 30,29
 4373 0fec 4BFFFFE0 		b .L394
 4374              	.LVL281:
 4375              	.L418:
 4376 0ff0 7C7E1B78 		mr 30,3
 4377              	.LBE2691:
 4378              	.LBE2741:
 4379              	.LBB2742:
 4380              	.LBB2719:
 4381              		.loc 9 52 0
 4382 0ff4 3861000C 		addi 3,1,12
 4383 0ff8 48000001 		bl _ZNSsD1Ev
 4384              	.L397:
 4385              	.LBE2719:
 4386              	.LBE2742:
 4387              		.loc 5 50 0
 4388 0ffc 38610010 		addi 3,1,16
 4389              	.LVL282:
 4390 1000 48000001 		bl _ZNSsD1Ev
 4391              	.LVL283:
 4392 1004 7FC3F378 		mr 3,30
 4393 1008 4BFFFFC0 		b .L423
 4394              	.LVL284:
 4395              	.L415:
 4396 100c 4BFFFFBC 		b .L423
 4397              	.LVL285:
 4398              	.L416:
 4399 1010 7C7E1B78 		mr 30,3
 4400 1014 4BFFFFE8 		b .L397
 4401              	.LBE2744:
 4402              		.cfi_endproc
 4403              	.LFE1597:
 4404              		.section	.gcc_except_table
 4405              	.LLSDA1597:
 4406 010d FF       		.byte	0xff
 4407 010e FF       		.byte	0xff
 4408 010f 01       		.byte	0x1
 4409 0110 2A       		.uleb128 .LLSDACSE1597-.LLSDACSB1597
 4410              	.LLSDACSB1597:
 4411 0111 20       		.uleb128 .LEHB46-.LFB1597
 4412 0112 04       		.uleb128 .LEHE46-.LEHB46
 4413 0113 00       		.uleb128 0
 4414 0114 00       		.uleb128 0
 4415 0115 4C       		.uleb128 .LEHB47-.LFB1597
 4416 0116 04       		.uleb128 .LEHE47-.LEHB47
 4417 0117 C802     		.uleb128 .L414-.LFB1597
 4418 0119 00       		.uleb128 0
 4419 011a 5C       		.uleb128 .LEHB48-.LFB1597
 4420 011b 04       		.uleb128 .LEHE48-.LEHB48
 4421 011c 8C03     		.uleb128 .L415-.LFB1597
 4422 011e 00       		.uleb128 0
 4423 011f 7C       		.uleb128 .LEHB49-.LFB1597
 4424 0120 04       		.uleb128 .LEHE49-.LEHB49
 4425 0121 9003     		.uleb128 .L416-.LFB1597
 4426 0123 00       		.uleb128 0
 4427 0124 8C01     		.uleb128 .LEHB50-.LFB1597
 4428 0126 04       		.uleb128 .LEHE50-.LEHB50
 4429 0127 F002     		.uleb128 .L418-.LFB1597
 4430 0129 00       		.uleb128 0
 4431 012a BC01     		.uleb128 .LEHB51-.LFB1597
 4432 012c 30       		.uleb128 .LEHE51-.LEHB51
 4433 012d C802     		.uleb128 .L414-.LFB1597
 4434 012f 00       		.uleb128 0
 4435 0130 F001     		.uleb128 .LEHB52-.LFB1597
 4436 0132 04       		.uleb128 .LEHE52-.LEHB52
 4437 0133 DC02     		.uleb128 .L417-.LFB1597
 4438 0135 00       		.uleb128 0
 4439 0136 D802     		.uleb128 .LEHB53-.LFB1597
 4440 0138 04       		.uleb128 .LEHE53-.LEHB53
 4441 0139 00       		.uleb128 0
 4442 013a 00       		.uleb128 0
 4443              	.LLSDACSE1597:
 4444              		.section	".text"
 4445              		.size	_ZN18UpdateSettingsMenuC2Ev, .-_ZN18UpdateSettingsMenuC2Ev
 4446              		.weak	_ZTS18UpdateSettingsMenu
 4447              		.section	.rodata._ZTS18UpdateSettingsMenu,"aG",@progbits,_ZTS18UpdateSettingsMenu,comdat
 4448              		.align 2
 4449              		.type	_ZTS18UpdateSettingsMenu, @object
 4450              		.size	_ZTS18UpdateSettingsMenu, 21
 4451              	_ZTS18UpdateSettingsMenu:
 4452 0000 31385570 		.string	"18UpdateSettingsMenu"
 4452      64617465 
 4452      53657474 
 4452      696E6773 
 4452      4D656E75 
 4453              		.weak	_ZTI18UpdateSettingsMenu
 4454              		.section	.rodata._ZTI18UpdateSettingsMenu,"aG",@progbits,_ZTI18UpdateSettingsMenu,comdat
 4455              		.align 2
 4456              		.type	_ZTI18UpdateSettingsMenu, @object
 4457              		.size	_ZTI18UpdateSettingsMenu, 12
 4458              	_ZTI18UpdateSettingsMenu:
 4459 0000 00000008 		.long	_ZTVN10__cxxabiv120__si_class_type_infoE+8
 4460 0004 00000000 		.long	_ZTS18UpdateSettingsMenu
 4461 0008 00000000 		.long	_ZTI15SettingsBrowser
 4462              		.weak	_ZTV18UpdateSettingsMenu
 4463              		.section	.rodata._ZTV18UpdateSettingsMenu,"aG",@progbits,_ZTV18UpdateSettingsMenu,comdat
 4464              		.align 3
 4465              		.type	_ZTV18UpdateSettingsMenu, @object
 4466              		.size	_ZTV18UpdateSettingsMenu, 264
 4467              	_ZTV18UpdateSettingsMenu:
 4468 0000 00000000 		.long	0
 4469 0004 00000000 		.long	_ZTI18UpdateSettingsMenu
 4470 0008 00000000 		.long	_ZN18UpdateSettingsMenuD1Ev
 4471 000c 00000000 		.long	_ZN18UpdateSettingsMenuD0Ev
 4472 0010 00000000 		.long	_ZN10GuiElement9SetParentEPS_
 4473 0014 00000000 		.long	_ZN10GuiElement9GetParentEv
 4474 0018 00000000 		.long	_ZN10GuiElement7GetLeftEv
 4475 001c 00000000 		.long	_ZN10GuiElement6GetTopEv
 4476 0020 00000000 		.long	_ZN10GuiElement12GetZPositionEv
 4477 0024 00000000 		.long	_ZN10GuiElement10GetLeftPosEv
 4478 0028 00000000 		.long	_ZN10GuiElement9GetTopPosEv
 4479 002c 00000000 		.long	_ZN10GuiElement8GetWidthEv
 4480 0030 00000000 		.long	_ZN10GuiElement9GetHeightEv
 4481 0034 00000000 		.long	_ZN10GuiElement7SetSizeEii
 4482 0038 00000000 		.long	_ZN8GuiFrame10SetVisibleEb
 4483 003c 00000000 		.long	_ZN10GuiElement9IsVisibleEv
 4484 0040 00000000 		.long	_ZN10GuiElement12IsSelectableEv
 4485 0044 00000000 		.long	_ZN10GuiElement11IsClickableEv
 4486 0048 00000000 		.long	_ZN10GuiElement10IsHoldableEv
 4487 004c 00000000 		.long	_ZN10GuiElement13SetSelectableEb
 4488 0050 00000000 		.long	_ZN10GuiElement12SetClickableEb
 4489 0054 00000000 		.long	_ZN10GuiElement11SetHoldableEb
 4490 0058 00000000 		.long	_ZN10GuiElement8SetStateEii
 4491 005c 00000000 		.long	_ZN10GuiElement8GetStateEv
 4492 0060 00000000 		.long	_ZN10GuiElement12GetStateChanEv
 4493 0064 00000000 		.long	_ZN8GuiFrame10ResetStateEv
 4494 0068 00000000 		.long	_ZN10GuiElement8SetAlphaEi
 4495 006c 00000000 		.long	_ZN10GuiElement8GetAlphaEv
 4496 0070 00000000 		.long	_ZN10GuiElement8SetScaleEf
 4497 0074 00000000 		.long	_ZN10GuiElement9SetScaleXEf
 4498 0078 00000000 		.long	_ZN10GuiElement9SetScaleYEf
 4499 007c 00000000 		.long	_ZN10GuiElement8GetScaleEv
 4500 0080 00000000 		.long	_ZN10GuiElement9GetScaleXEv
 4501 0084 00000000 		.long	_ZN10GuiElement9GetScaleYEv
 4502 0088 00000000 		.long	_ZN10GuiElement6RumbleEv
 4503 008c 00000000 		.long	_ZN10GuiElement9SetRumbleEb
 4504 0090 00000000 		.long	_ZN10GuiElement9SetEffectEiii
 4505 0094 00000000 		.long	_ZN10GuiElement15SetEffectOnOverEiii
 4506 0098 00000000 		.long	_ZN10GuiElement13SetEffectGrowEv
 4507 009c 00000000 		.long	_ZN10GuiElement12ResetEffectsEv
 4508 00a0 00000000 		.long	_ZNK10GuiElement9GetEffectEv
 4509 00a4 00000000 		.long	_ZNK10GuiElement10IsAnimatedEv
 4510 00a8 00000000 		.long	_ZN8GuiFrame9SetBoundsE4RectIiE
 4511 00ac 00000000 		.long	_ZN10GuiElement8IsInsideEii
 4512 00b0 00000000 		.long	_ZN10GuiElement11SetPositionEii
 4513 00b4 00000000 		.long	_ZN10GuiElement11SetPositionEiii
 4514 00b8 00000000 		.long	_ZN8GuiFrame11GetSelectedEv
 4515 00bc 00000000 		.long	_ZN10GuiElement12SetAlignmentEi
 4516 00c0 00000000 		.long	_ZNK10GuiElement12GetAlignmentEv
 4517 00c4 00000000 		.long	_ZN8GuiFrame6UpdateEP10GuiTrigger
 4518 00c8 00000000 		.long	_ZN8GuiFrame4DrawEv
 4519 00cc 00000000 		.long	_ZN10GuiElement13UpdateEffectsEv
 4520 00d0 00000000 		.long	_ZN8GuiFrame5CloseEv
 4521 00d4 00000000 		.long	_ZN15SettingsBrowser4showEv
 4522 00d8 00000000 		.long	_ZN8GuiFrame4hideEv
 4523 00dc 00000000 		.long	_ZN8GuiFrame4execEv
 4524 00e0 00000000 		.long	_ZN8GuiFrame12updateEventsEv
 4525 00e4 00000000 		.long	_ZN18UpdateSettingsMenu15SetupOptionNameEv
 4526 00e8 00000000 		.long	_ZN18UpdateSettingsMenu15SetOptionValuesEv
 4527 00ec 00000000 		.long	_ZN18UpdateSettingsMenu14OnBrowserClickEP16GuiOptionBrowseri
 4528 00f0 FFFFFF50 		.long	-176
 4529 00f4 00000000 		.long	_ZTI18UpdateSettingsMenu
 4530 00f8 00000000 		.long	_ZThn176_N18UpdateSettingsMenuD1Ev
 4531 00fc 00000000 		.long	_ZThn176_N18UpdateSettingsMenuD0Ev
 4532 0100 00000000 		.long	_ZN7sigslot15single_threaded4lockEv
 4533 0104 00000000 		.long	_ZN7sigslot15single_threaded6unlockEv
 4534              		.weak	_ZN18UpdateSettingsMenuD1Ev
 4535              		.set	_ZN18UpdateSettingsMenuD1Ev,_ZN18UpdateSettingsMenuD2Ev
 4536              		.set	.LTHUNK0,_ZN18UpdateSettingsMenuD1Ev
 4537              		.set	.LTHUNK1,_ZN18UpdateSettingsMenuD0Ev
 4538              		.globl _ZN18UpdateSettingsMenuC1Ev
 4539              		.set	_ZN18UpdateSettingsMenuC1Ev,_ZN18UpdateSettingsMenuC2Ev
 4540              		.section	.rodata
 4541              		.align 2
 4542              		.set	.LANCHOR0,. + 0
 4543              		.type	_ZL9OnOffText, @object
 4544              		.size	_ZL9OnOffText, 8
 4545              	_ZL9OnOffText:
 4546 0018 00000000 		.long	.LC4
 4547 001c 00000198 		.long	.LC29
 4548              		.type	_ZL12LanguageText, @object
 4549              		.size	_ZL12LanguageText, 12
 4550              	_ZL12LanguageText:
 4551 0020 00000000 		.long	.LC4
 4552 0024 0000019C 		.long	.LC30
 4553 0028 000001A0 		.long	.LC31
 4554              		.section	.rodata.cst4,"aM",@progbits,4
 4555              		.align 2
 4556              	.LC1:
 4557 0000 59800004 		.4byte	1501560836
 4558              	.LC2:
 4559 0004 437F0000 		.4byte	1132396544
 4560              	.LC3:
 4561 0008 3F000000 		.4byte	1056964608
 4562              		.section	.rodata.str1.4,"aMS",@progbits,1
 4563              		.align 2
 4564              	.LC4:
 4565 0000 4F464600 		.string	"OFF"
 4566              	.LC5:
 4567 0004 5374616E 		.string	"Standard"
 4567      64617264 
 4567      00
 4568 000d 000000   		.zero	3
 4569              	.LC6:
 4570 0010 426C6163 		.string	"Black.Pearl"
 4570      6B2E5065 
 4570      61726C00 
 4571              	.LC7:
 4572 001c 2000     		.string	" "
 4573 001e 0000     		.zero	2
 4574              	.LC8:
 4575 0020 4175746F 		.string	"Auto Connect"
 4575      20436F6E 
 4575      6E656374 
 4575      00
 4576 002d 000000   		.zero	3
 4577              	.LC9:
 4578 0030 49636F6E 		.string	"Icon Update"
 4578      20557064 
 4578      61746500 
 4579              	.LC10:
 4580 003c 4C616E67 		.string	"Language Update"
 4580      75616765 
 4580      20557064 
 4580      61746500 
 4581              	.LC11:
 4582 004c 47616D65 		.string	"GameTDB Update"
 4582      54444220 
 4582      55706461 
 4582      746500
 4583 005b 00       		.zero	1
 4584              	.LC12:
 4585 005c 5769696C 		.string	"Wiiload Receive"
 4585      6F616420 
 4585      52656365 
 4585      69766500 
 4586              	.LC13:
 4587 006c 55706461 		.string	"Update"
 4587      746500
 4588 0073 00       		.zero	1
 4589              	.LC14:
 4590 0074 00       		.string	""
 4591 0075 000000   		.zero	3
 4592              	.LC15:
 4593 0078 5374616E 		.string	"Standard Icon"
 4593      64617264 
 4593      2049636F 
 4593      6E00
 4594 0086 0000     		.zero	2
 4595              	.LC16:
 4596 0088 426C6163 		.string	"Black.Pearl Icon"
 4596      6B2E5065 
 4596      61726C20 
 4596      49636F6E 
 4596      00
 4597 0099 000000   		.zero	3
 4598              	.LC17:
 4599 009c 446F2079 		.string	"Do you want to download now?"
 4599      6F752077 
 4599      616E7420 
 4599      746F2064 
 4599      6F776E6C 
 4600 00b9 000000   		.zero	3
 4601              	.LC18:
 4602 00bc 59657300 		.string	"Yes"
 4603              	.LC19:
 4604 00c0 43616E63 		.string	"Cancel"
 4604      656C00
 4605 00c7 00       		.zero	1
 4606              	.LC20:
 4607 00c8 446F776E 		.string	"Downloading..."
 4607      6C6F6164 
 4607      696E672E 
 4607      2E2E00
 4608 00d7 00       		.zero	1
 4609              	.LC21:
 4610 00d8 49636F6E 		.string	"Icon successfully downloaded."
 4610      20737563 
 4610      63657373 
 4610      66756C6C 
 4610      7920646F 
 4611 00f6 0000     		.zero	2
 4612              	.LC22:
 4613 00f8 446F776E 		.string	"Download failed."
 4613      6C6F6164 
 4613      20666169 
 4613      6C65642E 
 4613      00
 4614 0109 000000   		.zero	3
 4615              	.LC23:
 4616 010c 4E6F206E 		.string	"No new updates available"
 4616      65772075 
 4616      70646174 
 4616      65732061 
 4616      7661696C 
 4617 0125 000000   		.zero	3
 4618              	.LC24:
 4619 0128 55706461 		.string	"Update files"
 4619      74652066 
 4619      696C6573 
 4619      00
 4620 0135 000000   		.zero	3
 4621              	.LC25:
 4622 0138 53686F77 		.string	"Show Changelog"
 4622      20436861 
 4622      6E67656C 
 4622      6F6700
 4623 0147 00       		.zero	1
 4624              	.LC26:
 4625 0148 55706461 		.string	"Update successfully finished"
 4625      74652073 
 4625      75636365 
 4625      73736675 
 4625      6C6C7920 
 4626 0165 000000   		.zero	3
 4627              	.LC27:
 4628 0168 4661696C 		.string	"Failed to get the Changelog."
 4628      65642074 
 4628      6F206765 
 4628      74207468 
 4628      65204368 
 4629 0185 000000   		.zero	3
 4630              	.LC28:
 4631 0188 55706461 		.string	"Update Settings"
 4631      74652053 
 4631      65747469 
 4631      6E677300 
 4632              	.LC29:
 4633 0198 4F4E00   		.string	"ON"
 4634 019b 00       		.zero	1
 4635              	.LC30:
 4636 019c 416C6C00 		.string	"All"
 4637              	.LC31:
 4638 01a0 496E7374 		.string	"Installed"
 4638      616C6C65 
 4638      6400
 4639              		.section	".text"
 4640              	.Letext0:
 4641              		.file 10 "d:\\devkitpro\\devkitppc\\bin\\../lib/gcc/powerpc-eabi/4.6.3/../../../../powerpc-eabi/in
 4642              		.file 11 "d:/devkitPro/libogc/include/gctypes.h"
 4643              		.file 12 "d:/devkitPro/libogc/include/ogc/gx.h"
 4644              		.file 13 "d:\\devkitpro\\devkitppc\\bin\\../lib/gcc/powerpc-eabi/4.6.3/../../../../powerpc-eabi/in
 4645              		.file 14 "d:\\devkitpro\\devkitppc\\bin\\../lib/gcc/powerpc-eabi/4.6.3/../../../../powerpc-eabi/in
 4646              		.file 15 "d:\\devkitpro\\devkitppc\\bin\\../lib/gcc/powerpc-eabi/4.6.3/include/stddef.h"
 4647              		.file 16 "d:\\devkitpro\\devkitppc\\bin\\../lib/gcc/powerpc-eabi/4.6.3/../../../../powerpc-eabi/in
 4648              		.file 17 "d:\\devkitpro\\devkitppc\\bin\\../lib/gcc/powerpc-eabi/4.6.3/../../../../powerpc-eabi/in
 4649              		.file 18 "d:\\devkitpro\\devkitppc\\bin\\../lib/gcc/powerpc-eabi/4.6.3/../../../../powerpc-eabi/in
 4650              		.file 19 "<built-in>"
 4651              		.file 20 "d:\\devkitpro\\devkitppc\\bin\\../lib/gcc/powerpc-eabi/4.6.3/../../../../powerpc-eabi/in
 4652              		.file 21 "d:\\devkitpro\\devkitppc\\bin\\../lib/gcc/powerpc-eabi/4.6.3/../../../../powerpc-eabi/in
 4653              		.file 22 "d:\\devkitpro\\devkitppc\\bin\\../lib/gcc/powerpc-eabi/4.6.3/../../../../powerpc-eabi/in
 4654              		.file 23 "d:\\devkitpro\\devkitppc\\bin\\../lib/gcc/powerpc-eabi/4.6.3/../../../../powerpc-eabi/in
 4655              		.file 24 "d:\\devkitpro\\devkitppc\\bin\\../lib/gcc/powerpc-eabi/4.6.3/../../../../powerpc-eabi/in
 4656              		.file 25 "d:\\devkitpro\\devkitppc\\bin\\../lib/gcc/powerpc-eabi/4.6.3/../../../../powerpc-eabi/in
 4657              		.file 26 "d:\\devkitpro\\devkitppc\\bin\\../lib/gcc/powerpc-eabi/4.6.3/../../../../powerpc-eabi/in
 4658              		.file 27 "d:\\devkitpro\\devkitppc\\bin\\../lib/gcc/powerpc-eabi/4.6.3/../../../../powerpc-eabi/in
 4659              		.file 28 "d:\\devkitpro\\devkitppc\\bin\\../lib/gcc/powerpc-eabi/4.6.3/../../../../powerpc-eabi/in
 4660              		.file 29 "d:\\devkitpro\\devkitppc\\bin\\../lib/gcc/powerpc-eabi/4.6.3/../../../../powerpc-eabi/in
 4661              		.file 30 "d:\\devkitpro\\devkitppc\\bin\\../lib/gcc/powerpc-eabi/4.6.3/../../../../powerpc-eabi/in
 4662              		.file 31 "d:\\devkitpro\\devkitppc\\bin\\../lib/gcc/powerpc-eabi/4.6.3/../../../../powerpc-eabi/in
 4663              		.file 32 "d:\\devkitpro\\devkitppc\\bin\\../lib/gcc/powerpc-eabi/4.6.3/../../../../powerpc-eabi/in
 4664              		.file 33 "d:\\devkitpro\\devkitppc\\bin\\../lib/gcc/powerpc-eabi/4.6.3/../../../../powerpc-eabi/in
 4665              		.file 34 "d:\\devkitpro\\devkitppc\\bin\\../lib/gcc/powerpc-eabi/4.6.3/../../../../powerpc-eabi/in
 4666              		.file 35 "d:\\devkitpro\\devkitppc\\bin\\../lib/gcc/powerpc-eabi/4.6.3/../../../../powerpc-eabi/in
 4667              		.file 36 "d:\\devkitpro\\devkitppc\\bin\\../lib/gcc/powerpc-eabi/4.6.3/../../../../powerpc-eabi/in
 4668              		.file 37 "d:\\devkitpro\\devkitppc\\bin\\../lib/gcc/powerpc-eabi/4.6.3/../../../../powerpc-eabi/in
 4669              		.file 38 "d:\\devkitpro\\devkitppc\\bin\\../lib/gcc/powerpc-eabi/4.6.3/../../../../powerpc-eabi/in
 4670              		.file 39 "d:\\devkitpro\\devkitppc\\bin\\../lib/gcc/powerpc-eabi/4.6.3/../../../../powerpc-eabi/in
 4671              		.file 40 "d:/Projects/SaveGameManager/savegame-manager-gx/trunk/source/Settings/menus/../../GUI/..
 4672              		.file 41 "d:/Projects/SaveGameManager/savegame-manager-gx/trunk/source/Settings/menus/../../GUI/..
 4673              		.file 42 "d:/Projects/SaveGameManager/savegame-manager-gx/trunk/source/Settings/menus/../../GUI/..
 4674              		.file 43 "d:/Projects/SaveGameManager/savegame-manager-gx/trunk/source/Settings/menus/../../GUI/..
 4675              		.file 44 "d:/Projects/SaveGameManager/savegame-manager-gx/trunk/source/Settings/menus/../../GUI/..
 4676              		.file 45 "d:\\devkitpro\\devkitppc\\bin\\../lib/gcc/powerpc-eabi/4.6.3/../../../../powerpc-eabi/in
 4677              		.file 46 "d:\\devkitpro\\devkitppc\\bin\\../lib/gcc/powerpc-eabi/4.6.3/../../../../powerpc-eabi/in
 4678              		.file 47 "d:\\devkitpro\\devkitppc\\bin\\../lib/gcc/powerpc-eabi/4.6.3/../../../../powerpc-eabi/in
 4679              		.file 48 "d:/Projects/SaveGameManager/savegame-manager-gx/trunk/source/Settings/menus/../../Prompt
 4680              		.file 49 "d:/Projects/SaveGameManager/savegame-manager-gx/trunk/source/Settings/menus/../../Networ
 4681              		.file 50 "d:\\devkitpro\\devkitppc\\bin\\../lib/gcc/powerpc-eabi/4.6.3/../../../../powerpc-eabi/in
 4682              		.file 51 "d:\\devkitpro\\devkitppc\\bin\\../lib/gcc/powerpc-eabi/4.6.3/../../../../powerpc-eabi/in