	.file	"UpdateWindow.cpp"
	.section	".text"
.Ltext0:
	.section	.text._ZN7sigslot15single_threadedD2Ev,"axG",@progbits,_ZN7sigslot15single_threadedD5Ev,comdat
	.align 2
	.weak	_ZN7sigslot15single_threadedD2Ev
	.type	_ZN7sigslot15single_threadedD2Ev, @function
_ZN7sigslot15single_threadedD2Ev:
.LFB1148:
	.file 1 "d:/Projects/SaveGameManager/savegame-manager-gx/trunk/source/Prompts/../GUI/../sigslot.h"
	.loc 1 104 0
	.cfi_startproc
.LVL0:
.LBB3132:
	.loc 1 105 0
	lis 9,_ZTVN7sigslot15single_threadedE+8@ha
.LBE3132:
	.loc 1 107 0
.LBB3133:
	.loc 1 105 0
	la 0,_ZTVN7sigslot15single_threadedE+8@l(9)
	stw 0,0(3)
.LBE3133:
	.loc 1 107 0
	blr
	.cfi_endproc
.LFE1148:
	.size	_ZN7sigslot15single_threadedD2Ev, .-_ZN7sigslot15single_threadedD2Ev
	.section	.text._ZN7sigslot15single_threaded4lockEv,"axG",@progbits,_ZN7sigslot15single_threaded4lockEv,comdat
	.align 2
	.weak	_ZN7sigslot15single_threaded4lockEv
	.type	_ZN7sigslot15single_threaded4lockEv, @function
_ZN7sigslot15single_threaded4lockEv:
.LFB1151:
	.loc 1 109 0
	.cfi_startproc
.LVL1:
	.loc 1 112 0
	blr
	.cfi_endproc
.LFE1151:
	.size	_ZN7sigslot15single_threaded4lockEv, .-_ZN7sigslot15single_threaded4lockEv
	.section	.text._ZN7sigslot15single_threaded6unlockEv,"axG",@progbits,_ZN7sigslot15single_threaded6unlockEv,comdat
	.align 2
	.weak	_ZN7sigslot15single_threaded6unlockEv
	.type	_ZN7sigslot15single_threaded6unlockEv, @function
_ZN7sigslot15single_threaded6unlockEv:
.LFB1152:
	.loc 1 114 0
	.cfi_startproc
.LVL2:
	.loc 1 117 0
	blr
	.cfi_endproc
.LFE1152:
	.size	_ZN7sigslot15single_threaded6unlockEv, .-_ZN7sigslot15single_threaded6unlockEv
	.section	.text._ZN10GuiElement9SetParentEPS_,"axG",@progbits,_ZN10GuiElement9SetParentEPS_,comdat
	.align 2
	.weak	_ZN10GuiElement9SetParentEPS_
	.type	_ZN10GuiElement9SetParentEPS_, @function
_ZN10GuiElement9SetParentEPS_:
.LFB1384:
	.file 2 "d:/Projects/SaveGameManager/savegame-manager-gx/trunk/source/Prompts/../GUI/gui_element.h"
	.loc 2 92 0
	.cfi_startproc
.LVL3:
	.loc 2 92 0
	stw 4,96(3)
	blr
	.cfi_endproc
.LFE1384:
	.size	_ZN10GuiElement9SetParentEPS_, .-_ZN10GuiElement9SetParentEPS_
	.section	.text._ZN10GuiElement9GetParentEv,"axG",@progbits,_ZN10GuiElement9GetParentEv,comdat
	.align 2
	.weak	_ZN10GuiElement9GetParentEv
	.type	_ZN10GuiElement9GetParentEv, @function
_ZN10GuiElement9GetParentEv:
.LFB1385:
	.loc 2 95 0
	.cfi_startproc
.LVL4:
	.loc 2 95 0
	lwz 3,96(3)
.LVL5:
	blr
	.cfi_endproc
.LFE1385:
	.size	_ZN10GuiElement9GetParentEv, .-_ZN10GuiElement9GetParentEv
	.section	.text._ZN10GuiElement12GetZPositionEv,"axG",@progbits,_ZN10GuiElement12GetZPositionEv,comdat
	.align 2
	.weak	_ZN10GuiElement12GetZPositionEv
	.type	_ZN10GuiElement12GetZPositionEv, @function
_ZN10GuiElement12GetZPositionEv:
.LFB1386:
	.loc 2 106 0
	.cfi_startproc
.LVL6:
	mflr 0
	stwu 1,-16(1)
.LCFI0:
	.cfi_def_cfa_offset 16
	.cfi_register 65, 0
	stw 31,12(1)
	mr 31,3
	.cfi_offset 31, -4
	stw 0,20(1)
.LBB3134:
	.loc 2 110 0
	lwz 11,96(3)
	.loc 2 108 0
	li 3,0
.LVL7:
	.loc 2 110 0
	cmpwi 7,11,0
	beq- 7,.L8
	.cfi_offset 65, 4
	.loc 2 111 0
	lwz 9,0(11)
	mr 3,11
	lwz 0,24(9)
	mtctr 0
	bctrl
.LVL8:
.L8:
	.loc 2 113 0
	lwz 0,52(31)
.LBE3134:
	.loc 2 114 0
	lwz 31,12(1)
.LVL9:
	add 3,3,0
.LVL10:
	lwz 0,20(1)
	addi 1,1,16
.LCFI1:
	.cfi_def_cfa_offset 0
	.cfi_restore 31
	mtlr 0
	blr
	.cfi_endproc
.LFE1386:
	.size	_ZN10GuiElement12GetZPositionEv, .-_ZN10GuiElement12GetZPositionEv
	.section	.text._ZN10GuiElement10GetLeftPosEv,"axG",@progbits,_ZN10GuiElement10GetLeftPosEv,comdat
	.align 2
	.weak	_ZN10GuiElement10GetLeftPosEv
	.type	_ZN10GuiElement10GetLeftPosEv, @function
_ZN10GuiElement10GetLeftPosEv:
.LFB1387:
	.loc 2 116 0
	.cfi_startproc
.LVL11:
	.loc 2 116 0
	lwz 3,44(3)
.LVL12:
	blr
	.cfi_endproc
.LFE1387:
	.size	_ZN10GuiElement10GetLeftPosEv, .-_ZN10GuiElement10GetLeftPosEv
	.section	.text._ZN10GuiElement9GetTopPosEv,"axG",@progbits,_ZN10GuiElement9GetTopPosEv,comdat
	.align 2
	.weak	_ZN10GuiElement9GetTopPosEv
	.type	_ZN10GuiElement9GetTopPosEv, @function
_ZN10GuiElement9GetTopPosEv:
.LFB1388:
	.loc 2 118 0
	.cfi_startproc
.LVL13:
	.loc 2 118 0
	lwz 3,48(3)
.LVL14:
	blr
	.cfi_endproc
.LFE1388:
	.size	_ZN10GuiElement9GetTopPosEv, .-_ZN10GuiElement9GetTopPosEv
	.section	.text._ZN10GuiElement8GetWidthEv,"axG",@progbits,_ZN10GuiElement8GetWidthEv,comdat
	.align 2
	.weak	_ZN10GuiElement8GetWidthEv
	.type	_ZN10GuiElement8GetWidthEv, @function
_ZN10GuiElement8GetWidthEv:
.LFB1389:
	.loc 2 121 0
	.cfi_startproc
.LVL15:
	.loc 2 121 0
	lwz 3,36(3)
.LVL16:
	blr
	.cfi_endproc
.LFE1389:
	.size	_ZN10GuiElement8GetWidthEv, .-_ZN10GuiElement8GetWidthEv
	.section	.text._ZN10GuiElement9GetHeightEv,"axG",@progbits,_ZN10GuiElement9GetHeightEv,comdat
	.align 2
	.weak	_ZN10GuiElement9GetHeightEv
	.type	_ZN10GuiElement9GetHeightEv, @function
_ZN10GuiElement9GetHeightEv:
.LFB1390:
	.loc 2 124 0
	.cfi_startproc
.LVL17:
	.loc 2 124 0
	lwz 3,40(3)
.LVL18:
	blr
	.cfi_endproc
.LFE1390:
	.size	_ZN10GuiElement9GetHeightEv, .-_ZN10GuiElement9GetHeightEv
	.section	.text._ZN10GuiElement7SetSizeEii,"axG",@progbits,_ZN10GuiElement7SetSizeEii,comdat
	.align 2
	.weak	_ZN10GuiElement7SetSizeEii
	.type	_ZN10GuiElement7SetSizeEii, @function
_ZN10GuiElement7SetSizeEii:
.LFB1391:
	.loc 2 128 0
	.cfi_startproc
.LVL19:
	.loc 2 130 0
	stw 4,36(3)
	.loc 2 132 0
	.loc 2 131 0
	stw 5,40(3)
	.loc 2 132 0
	blr
	.cfi_endproc
.LFE1391:
	.size	_ZN10GuiElement7SetSizeEii, .-_ZN10GuiElement7SetSizeEii
	.section	.text._ZN10GuiElement9IsVisibleEv,"axG",@progbits,_ZN10GuiElement9IsVisibleEv,comdat
	.align 2
	.weak	_ZN10GuiElement9IsVisibleEv
	.type	_ZN10GuiElement9IsVisibleEv, @function
_ZN10GuiElement9IsVisibleEv:
.LFB1393:
	.loc 2 142 0
	.cfi_startproc
.LVL20:
	.loc 2 142 0
	lbz 3,29(3)
.LVL21:
	blr
	.cfi_endproc
.LFE1393:
	.size	_ZN10GuiElement9IsVisibleEv, .-_ZN10GuiElement9IsVisibleEv
	.section	.text._ZN10GuiElement12IsSelectableEv,"axG",@progbits,_ZN10GuiElement12IsSelectableEv,comdat
	.align 2
	.weak	_ZN10GuiElement12IsSelectableEv
	.type	_ZN10GuiElement12IsSelectableEv, @function
_ZN10GuiElement12IsSelectableEv:
.LFB1394:
	.loc 2 145 0
	.cfi_startproc
.LVL22:
	.loc 2 149 0
	lwz 0,72(3)
	li 9,0
	cmpwi 7,0,4
	beq- 7,.L18
	.loc 2 149 0 is_stmt 0 discriminator 1
	cmpwi 7,0,2
	beq- 7,.L18
	.loc 2 149 0 discriminator 3
	lbz 9,30(3)
.L18:
	.loc 2 150 0 is_stmt 1 discriminator 5
	mr 3,9
.LVL23:
	blr
	.cfi_endproc
.LFE1394:
	.size	_ZN10GuiElement12IsSelectableEv, .-_ZN10GuiElement12IsSelectableEv
	.section	.text._ZN10GuiElement11IsClickableEv,"axG",@progbits,_ZN10GuiElement11IsClickableEv,comdat
	.align 2
	.weak	_ZN10GuiElement11IsClickableEv
	.type	_ZN10GuiElement11IsClickableEv, @function
_ZN10GuiElement11IsClickableEv:
.LFB1395:
	.loc 2 153 0
	.cfi_startproc
.LVL24:
	.loc 2 158 0
	lwz 0,72(3)
	li 9,0
	cmpwi 7,0,4
	beq- 7,.L22
	.loc 2 158 0 is_stmt 0 discriminator 1
	cmpwi 7,0,2
	beq- 7,.L22
	.loc 2 158 0 discriminator 3
	cmpwi 7,0,3
	beq- 7,.L22
	.loc 2 158 0 discriminator 4
	lbz 9,31(3)
.L22:
	.loc 2 159 0 is_stmt 1 discriminator 6
	mr 3,9
.LVL25:
	blr
	.cfi_endproc
.LFE1395:
	.size	_ZN10GuiElement11IsClickableEv, .-_ZN10GuiElement11IsClickableEv
	.section	.text._ZN10GuiElement10IsHoldableEv,"axG",@progbits,_ZN10GuiElement10IsHoldableEv,comdat
	.align 2
	.weak	_ZN10GuiElement10IsHoldableEv
	.type	_ZN10GuiElement10IsHoldableEv, @function
_ZN10GuiElement10IsHoldableEv:
.LFB1396:
	.loc 2 162 0
	.cfi_startproc
.LVL26:
	.loc 2 162 0
	lwz 9,72(3)
	li 0,0
	cmpwi 7,9,4
	beq- 7,.L27
	.loc 2 162 0 is_stmt 0 discriminator 1
	lbz 0,32(3)
.L27:
	.loc 2 162 0 discriminator 4
	mr 3,0
.LVL27:
	blr
	.cfi_endproc
.LFE1396:
	.size	_ZN10GuiElement10IsHoldableEv, .-_ZN10GuiElement10IsHoldableEv
	.section	.text._ZN10GuiElement13SetSelectableEb,"axG",@progbits,_ZN10GuiElement13SetSelectableEb,comdat
	.align 2
	.weak	_ZN10GuiElement13SetSelectableEb
	.type	_ZN10GuiElement13SetSelectableEb, @function
_ZN10GuiElement13SetSelectableEb:
.LFB1397:
	.loc 2 165 0 is_stmt 1
	.cfi_startproc
.LVL28:
	.loc 2 165 0
	stb 4,30(3)
	blr
	.cfi_endproc
.LFE1397:
	.size	_ZN10GuiElement13SetSelectableEb, .-_ZN10GuiElement13SetSelectableEb
	.section	.text._ZN10GuiElement12SetClickableEb,"axG",@progbits,_ZN10GuiElement12SetClickableEb,comdat
	.align 2
	.weak	_ZN10GuiElement12SetClickableEb
	.type	_ZN10GuiElement12SetClickableEb, @function
_ZN10GuiElement12SetClickableEb:
.LFB1398:
	.loc 2 168 0
	.cfi_startproc
.LVL29:
	.loc 2 168 0
	stb 4,31(3)
	blr
	.cfi_endproc
.LFE1398:
	.size	_ZN10GuiElement12SetClickableEb, .-_ZN10GuiElement12SetClickableEb
	.section	.text._ZN10GuiElement11SetHoldableEb,"axG",@progbits,_ZN10GuiElement11SetHoldableEb,comdat
	.align 2
	.weak	_ZN10GuiElement11SetHoldableEb
	.type	_ZN10GuiElement11SetHoldableEb, @function
_ZN10GuiElement11SetHoldableEb:
.LFB1399:
	.loc 2 171 0
	.cfi_startproc
.LVL30:
	.loc 2 171 0
	stb 4,32(3)
	blr
	.cfi_endproc
.LFE1399:
	.size	_ZN10GuiElement11SetHoldableEb, .-_ZN10GuiElement11SetHoldableEb
	.section	.text._ZN10GuiElement8GetStateEv,"axG",@progbits,_ZN10GuiElement8GetStateEv,comdat
	.align 2
	.weak	_ZN10GuiElement8GetStateEv
	.type	_ZN10GuiElement8GetStateEv, @function
_ZN10GuiElement8GetStateEv:
.LFB1400:
	.loc 2 178 0
	.cfi_startproc
.LVL31:
	.loc 2 178 0
	lwz 3,72(3)
.LVL32:
	blr
	.cfi_endproc
.LFE1400:
	.size	_ZN10GuiElement8GetStateEv, .-_ZN10GuiElement8GetStateEv
	.section	.text._ZN10GuiElement12GetStateChanEv,"axG",@progbits,_ZN10GuiElement12GetStateChanEv,comdat
	.align 2
	.weak	_ZN10GuiElement12GetStateChanEv
	.type	_ZN10GuiElement12GetStateChanEv, @function
_ZN10GuiElement12GetStateChanEv:
.LFB1401:
	.loc 2 181 0
	.cfi_startproc
.LVL33:
	.loc 2 181 0
	lwz 3,76(3)
.LVL34:
	blr
	.cfi_endproc
.LFE1401:
	.size	_ZN10GuiElement12GetStateChanEv, .-_ZN10GuiElement12GetStateChanEv
	.section	.text._ZN10GuiElement8SetAlphaEi,"axG",@progbits,_ZN10GuiElement8SetAlphaEi,comdat
	.align 2
	.weak	_ZN10GuiElement8SetAlphaEi
	.type	_ZN10GuiElement8SetAlphaEi, @function
_ZN10GuiElement8SetAlphaEi:
.LFB1403:
	.loc 2 190 0
	.cfi_startproc
.LVL35:
	.loc 2 190 0
	stw 4,56(3)
	blr
	.cfi_endproc
.LFE1403:
	.size	_ZN10GuiElement8SetAlphaEi, .-_ZN10GuiElement8SetAlphaEi
	.section	.text._ZN10GuiElement8GetAlphaEv,"axG",@progbits,_ZN10GuiElement8GetAlphaEv,comdat
	.align 2
	.weak	_ZN10GuiElement8GetAlphaEv
	.type	_ZN10GuiElement8GetAlphaEv, @function
_ZN10GuiElement8GetAlphaEv:
.LFB1404:
	.loc 2 194 0
	.cfi_startproc
.LVL36:
	mflr 0
	stwu 1,-40(1)
.LCFI2:
	.cfi_def_cfa_offset 40
	.cfi_register 65, 0
	stw 31,36(1)
	stw 0,44(1)
.LBB3135:
	.loc 2 198 0
	lwz 31,108(3)
	.cfi_offset 65, 4
	.cfi_offset 31, -4
	cmpwi 7,31,0
	blt- 7,.L38
.L36:
.LVL37:
	.loc 2 203 0
	lwz 3,96(3)
.LVL38:
	cmpwi 7,3,0
	beq- 7,.L37
	.loc 2 204 0
	lwz 9,0(3)
	xoris 31,31,0x8000
.LVL39:
	lwz 0,100(9)
	mtctr 0
	bctrl
	lis 0,0x4330
	xoris 3,3,0x8000
	stw 0,16(1)
	stw 3,20(1)
	lis 9,.LC1@ha
	lfs 0,.LC1@l(9)
	lis 9,.LC2@ha
	lfd 13,16(1)
	lfs 12,.LC2@l(9)
	addi 9,1,24
	fsub 13,13,0
	stw 31,12(1)
	stw 0,8(1)
	frsp 13,13
	fdivs 13,13,12
	lfd 12,8(1)
	fsub 0,12,0
	frsp 0,0
	fmuls 0,0,13
	fctiwz 0,0
	stfiwx 0,0,9
	lwz 31,24(1)
.LVL40:
.L37:
.LBE3135:
	.loc 2 207 0
	lwz 0,44(1)
	mr 3,31
	lwz 31,36(1)
.LVL41:
	mtlr 0
	addi 1,1,40
	.cfi_remember_state
.LCFI3:
	.cfi_def_cfa_offset 0
	.cfi_restore 31
	blr
.LVL42:
.L38:
.LCFI4:
	.cfi_restore_state
.LBB3136:
	.loc 2 201 0
	lwz 31,56(3)
.LVL43:
	b .L36
.LBE3136:
	.cfi_endproc
.LFE1404:
	.size	_ZN10GuiElement8GetAlphaEv, .-_ZN10GuiElement8GetAlphaEv
	.section	.text._ZN10GuiElement8SetScaleEf,"axG",@progbits,_ZN10GuiElement8SetScaleEf,comdat
	.align 2
	.weak	_ZN10GuiElement8SetScaleEf
	.type	_ZN10GuiElement8SetScaleEf, @function
_ZN10GuiElement8SetScaleEf:
.LFB1405:
	.loc 2 210 0
	.cfi_startproc
.LVL44:
	.loc 2 212 0
	stfs 1,60(3)
	.loc 2 214 0
	.loc 2 213 0
	stfs 1,64(3)
	.loc 2 214 0
	blr
	.cfi_endproc
.LFE1405:
	.size	_ZN10GuiElement8SetScaleEf, .-_ZN10GuiElement8SetScaleEf
	.section	.text._ZN10GuiElement9SetScaleXEf,"axG",@progbits,_ZN10GuiElement9SetScaleXEf,comdat
	.align 2
	.weak	_ZN10GuiElement9SetScaleXEf
	.type	_ZN10GuiElement9SetScaleXEf, @function
_ZN10GuiElement9SetScaleXEf:
.LFB1406:
	.loc 2 217 0
	.cfi_startproc
.LVL45:
	.loc 2 217 0
	stfs 1,60(3)
	blr
	.cfi_endproc
.LFE1406:
	.size	_ZN10GuiElement9SetScaleXEf, .-_ZN10GuiElement9SetScaleXEf
	.section	.text._ZN10GuiElement9SetScaleYEf,"axG",@progbits,_ZN10GuiElement9SetScaleYEf,comdat
	.align 2
	.weak	_ZN10GuiElement9SetScaleYEf
	.type	_ZN10GuiElement9SetScaleYEf, @function
_ZN10GuiElement9SetScaleYEf:
.LFB1407:
	.loc 2 220 0
	.cfi_startproc
.LVL46:
	.loc 2 220 0
	stfs 1,64(3)
	blr
	.cfi_endproc
.LFE1407:
	.size	_ZN10GuiElement9SetScaleYEf, .-_ZN10GuiElement9SetScaleYEf
	.section	.text._ZN10GuiElement8GetScaleEv,"axG",@progbits,_ZN10GuiElement8GetScaleEv,comdat
	.align 2
	.weak	_ZN10GuiElement8GetScaleEv
	.type	_ZN10GuiElement8GetScaleEv, @function
_ZN10GuiElement8GetScaleEv:
.LFB1408:
	.loc 2 223 0
	.cfi_startproc
.LVL47:
	mflr 0
	stwu 1,-16(1)
.LCFI5:
	.cfi_def_cfa_offset 16
	.cfi_register 65, 0
.LBB3137:
	.loc 2 225 0
	lis 9,.LC3@ha
.LBE3137:
	.loc 2 223 0
	stfd 31,8(1)
	stw 0,20(1)
.LBB3138:
	.loc 2 225 0
	lfs 0,64(3)
	lfs 31,60(3)
	.cfi_offset 65, 4
	.cfi_offset 63, -8
	.loc 2 227 0
	lwz 11,96(3)
	.loc 2 225 0
	fadds 31,31,0
	lfs 0,.LC3@l(9)
	.loc 2 227 0
	cmpwi 7,11,0
	.loc 2 225 0
	fmuls 31,31,0
	lfs 0,112(3)
	fmuls 31,31,0
.LVL48:
	.loc 2 227 0
	beq- 7,.L43
	.loc 2 228 0
	lwz 9,0(11)
	mr 3,11
.LVL49:
	lwz 0,116(9)
	mtctr 0
	bctrl
	fmuls 31,31,1
.LVL50:
.L43:
.LBE3138:
	.loc 2 231 0
	lwz 0,20(1)
	fmr 1,31
	lfd 31,8(1)
.LVL51:
	mtlr 0
	addi 1,1,16
.LCFI6:
	.cfi_def_cfa_offset 0
	.cfi_restore 63
	blr
	.cfi_endproc
.LFE1408:
	.size	_ZN10GuiElement8GetScaleEv, .-_ZN10GuiElement8GetScaleEv
	.section	.text._ZN10GuiElement9GetScaleXEv,"axG",@progbits,_ZN10GuiElement9GetScaleXEv,comdat
	.align 2
	.weak	_ZN10GuiElement9GetScaleXEv
	.type	_ZN10GuiElement9GetScaleXEv, @function
_ZN10GuiElement9GetScaleXEv:
.LFB1409:
	.loc 2 234 0
	.cfi_startproc
.LVL52:
	mflr 0
	stwu 1,-16(1)
.LCFI7:
	.cfi_def_cfa_offset 16
	.cfi_register 65, 0
	stfd 31,8(1)
	stw 0,20(1)
.LBB3139:
	.loc 2 238 0
	lwz 11,96(3)
	.loc 2 236 0
	lfs 31,60(3)
	.cfi_offset 65, 4
	.cfi_offset 63, -8
	.loc 2 238 0
	cmpwi 7,11,0
	.loc 2 236 0
	lfs 0,112(3)
	fmuls 31,31,0
.LVL53:
	.loc 2 238 0
	beq- 7,.L45
	.loc 2 239 0
	lwz 9,0(11)
	mr 3,11
.LVL54:
	lwz 0,120(9)
	mtctr 0
	bctrl
	fmuls 31,31,1
.LVL55:
.L45:
.LBE3139:
	.loc 2 242 0
	lwz 0,20(1)
	fmr 1,31
	lfd 31,8(1)
.LVL56:
	mtlr 0
	addi 1,1,16
.LCFI8:
	.cfi_def_cfa_offset 0
	.cfi_restore 63
	blr
	.cfi_endproc
.LFE1409:
	.size	_ZN10GuiElement9GetScaleXEv, .-_ZN10GuiElement9GetScaleXEv
	.section	.text._ZN10GuiElement9GetScaleYEv,"axG",@progbits,_ZN10GuiElement9GetScaleYEv,comdat
	.align 2
	.weak	_ZN10GuiElement9GetScaleYEv
	.type	_ZN10GuiElement9GetScaleYEv, @function
_ZN10GuiElement9GetScaleYEv:
.LFB1410:
	.loc 2 245 0
	.cfi_startproc
.LVL57:
	mflr 0
	stwu 1,-16(1)
.LCFI9:
	.cfi_def_cfa_offset 16
	.cfi_register 65, 0
	stfd 31,8(1)
	stw 0,20(1)
.LBB3140:
	.loc 2 249 0
	lwz 11,96(3)
	.loc 2 247 0
	lfs 31,64(3)
	.cfi_offset 65, 4
	.cfi_offset 63, -8
	.loc 2 249 0
	cmpwi 7,11,0
	.loc 2 247 0
	lfs 0,112(3)
	fmuls 31,31,0
.LVL58:
	.loc 2 249 0
	beq- 7,.L47
	.loc 2 250 0
	lwz 9,0(11)
	mr 3,11
.LVL59:
	lwz 0,124(9)
	mtctr 0
	bctrl
	fmuls 31,31,1
.LVL60:
.L47:
.LBE3140:
	.loc 2 253 0
	lwz 0,20(1)
	fmr 1,31
	lfd 31,8(1)
.LVL61:
	mtlr 0
	addi 1,1,16
.LCFI10:
	.cfi_def_cfa_offset 0
	.cfi_restore 63
	blr
	.cfi_endproc
.LFE1410:
	.size	_ZN10GuiElement9GetScaleYEv, .-_ZN10GuiElement9GetScaleYEv
	.section	.text._ZN10GuiElement6RumbleEv,"axG",@progbits,_ZN10GuiElement6RumbleEv,comdat
	.align 2
	.weak	_ZN10GuiElement6RumbleEv
	.type	_ZN10GuiElement6RumbleEv, @function
_ZN10GuiElement6RumbleEv:
.LFB1411:
	.loc 2 256 0
	.cfi_startproc
.LVL62:
	.loc 2 256 0
	lbz 3,28(3)
.LVL63:
	blr
	.cfi_endproc
.LFE1411:
	.size	_ZN10GuiElement6RumbleEv, .-_ZN10GuiElement6RumbleEv
	.section	.text._ZN10GuiElement9SetRumbleEb,"axG",@progbits,_ZN10GuiElement9SetRumbleEb,comdat
	.align 2
	.weak	_ZN10GuiElement9SetRumbleEb
	.type	_ZN10GuiElement9SetRumbleEb, @function
_ZN10GuiElement9SetRumbleEb:
.LFB1412:
	.loc 2 259 0
	.cfi_startproc
.LVL64:
	.loc 2 259 0
	stb 4,28(3)
	blr
	.cfi_endproc
.LFE1412:
	.size	_ZN10GuiElement9SetRumbleEb, .-_ZN10GuiElement9SetRumbleEb
	.section	.text._ZN10GuiElement13SetEffectGrowEv,"axG",@progbits,_ZN10GuiElement13SetEffectGrowEv,comdat
	.align 2
	.weak	_ZN10GuiElement13SetEffectGrowEv
	.type	_ZN10GuiElement13SetEffectGrowEv, @function
_ZN10GuiElement13SetEffectGrowEv:
.LFB1413:
	.loc 2 271 0
	.cfi_startproc
.LVL65:
	mflr 0
	stwu 1,-8(1)
.LCFI11:
	.cfi_def_cfa_offset 8
	.cfi_register 65, 0
	lwz 9,0(3)
	li 4,256
	li 5,4
	li 6,110
	stw 0,12(1)
	.loc 2 271 0
	lwz 0,140(9)
	.cfi_offset 65, 4
	mtctr 0
	bctrl
.LVL66:
	lwz 0,12(1)
	addi 1,1,8
.LCFI12:
	.cfi_def_cfa_offset 0
	mtlr 0
	blr
	.cfi_endproc
.LFE1413:
	.size	_ZN10GuiElement13SetEffectGrowEv, .-_ZN10GuiElement13SetEffectGrowEv
	.section	.text._ZNK10GuiElement9GetEffectEv,"axG",@progbits,_ZNK10GuiElement9GetEffectEv,comdat
	.align 2
	.weak	_ZNK10GuiElement9GetEffectEv
	.type	_ZNK10GuiElement9GetEffectEv, @function
_ZNK10GuiElement9GetEffectEv:
.LFB1414:
	.loc 2 276 0
	.cfi_startproc
.LVL67:
	.loc 2 276 0
	lwz 3,120(3)
.LVL68:
	blr
	.cfi_endproc
.LFE1414:
	.size	_ZNK10GuiElement9GetEffectEv, .-_ZNK10GuiElement9GetEffectEv
	.section	.text._ZNK10GuiElement10IsAnimatedEv,"axG",@progbits,_ZNK10GuiElement10IsAnimatedEv,comdat
	.align 2
	.weak	_ZNK10GuiElement10IsAnimatedEv
	.type	_ZNK10GuiElement10IsAnimatedEv, @function
_ZNK10GuiElement10IsAnimatedEv:
.LFB1415:
	.loc 2 278 0
	.cfi_startproc
.LVL69:
	mflr 0
	stwu 1,-8(1)
.LCFI13:
	.cfi_def_cfa_offset 8
	.cfi_register 65, 0
	stw 0,12(1)
	.loc 2 278 0
	lwz 9,0(3)
	lwz 0,152(9)
	.cfi_offset 65, 4
	mtctr 0
	bctrl
.LVL70:
	srawi 0,3,31
	subf 3,3,0
	lwz 0,12(1)
	srwi 3,3,31
	mtlr 0
	addi 1,1,8
.LCFI14:
	.cfi_def_cfa_offset 0
	blr
	.cfi_endproc
.LFE1415:
	.size	_ZNK10GuiElement10IsAnimatedEv, .-_ZNK10GuiElement10IsAnimatedEv
	.section	.text._ZN10GuiElement8IsInsideEii,"axG",@progbits,_ZN10GuiElement8IsInsideEii,comdat
	.align 2
	.weak	_ZN10GuiElement8IsInsideEii
	.type	_ZN10GuiElement8IsInsideEii, @function
_ZN10GuiElement8IsInsideEii:
.LFB1417:
	.loc 2 285 0
	.cfi_startproc
.LVL71:
	mflr 0
	stwu 1,-24(1)
.LCFI15:
	.cfi_def_cfa_offset 24
	.cfi_register 65, 0
	stw 28,8(1)
	mr 28,5
	.cfi_offset 28, -16
	stw 0,28(1)
	stw 29,12(1)
	.loc 2 290 0
	li 29,0
	.cfi_offset 29, -12
	.cfi_offset 65, 4
	.loc 2 287 0
	lwz 9,0(3)
	.loc 2 285 0
	stw 30,16(1)
	mr 30,4
	.cfi_offset 30, -8
	.loc 2 287 0
	lwz 0,16(9)
	.loc 2 285 0
	stw 31,20(1)
	.loc 2 285 0
	mr 31,3
	.cfi_offset 31, -4
	.loc 2 287 0
	mtctr 0
	bctrl
.LVL72:
	.loc 2 290 0
	cmpw 7,3,30
	blt- 7,.L58
.L54:
	.loc 2 291 0 discriminator 6
	lwz 0,28(1)
	mr 3,29
	lwz 28,8(1)
.LVL73:
	mtlr 0
	lwz 29,12(1)
	lwz 30,16(1)
.LVL74:
	lwz 31,20(1)
.LVL75:
	addi 1,1,24
	.cfi_remember_state
.LCFI16:
	.cfi_def_cfa_offset 0
	.cfi_restore 31
	.cfi_restore 30
	.cfi_restore 29
	.cfi_restore 28
	blr
.LVL76:
.L58:
.LCFI17:
	.cfi_restore_state
	.loc 2 288 0 discriminator 1
	lwz 9,0(31)
	mr 3,31
	lwz 0,16(9)
	mtctr 0
	bctrl
	.loc 2 290 0 discriminator 1
	lwz 0,36(31)
	add 0,3,0
	cmpw 7,30,0
	bge+ 7,.L54
	.loc 2 289 0 discriminator 3
	lwz 9,0(31)
	mr 3,31
	lwz 0,20(9)
	mtctr 0
	bctrl
	.loc 2 290 0 discriminator 3
	cmpw 7,3,28
	bge+ 7,.L54
	.loc 2 290 0 is_stmt 0 discriminator 4
	lwz 9,0(31)
	mr 3,31
	lwz 0,20(9)
	mtctr 0
	bctrl
	lwz 0,40(31)
	add 0,3,0
	.loc 2 285 0 is_stmt 1 discriminator 4
	cmpw 7,28,0
	mfcr 29
	rlwinm 29,29,29,1
	b .L54
	.cfi_endproc
.LFE1417:
	.size	_ZN10GuiElement8IsInsideEii, .-_ZN10GuiElement8IsInsideEii
	.section	.text._ZN10GuiElement11SetPositionEii,"axG",@progbits,_ZN10GuiElement11SetPositionEii,comdat
	.align 2
	.weak	_ZN10GuiElement11SetPositionEii
	.type	_ZN10GuiElement11SetPositionEii, @function
_ZN10GuiElement11SetPositionEii:
.LFB1418:
	.loc 2 295 0
	.cfi_startproc
.LVL77:
	.loc 2 297 0
	stw 4,44(3)
	.loc 2 299 0
	.loc 2 298 0
	stw 5,48(3)
	.loc 2 299 0
	blr
	.cfi_endproc
.LFE1418:
	.size	_ZN10GuiElement11SetPositionEii, .-_ZN10GuiElement11SetPositionEii
	.section	.text._ZN10GuiElement11SetPositionEiii,"axG",@progbits,_ZN10GuiElement11SetPositionEiii,comdat
	.align 2
	.weak	_ZN10GuiElement11SetPositionEiii
	.type	_ZN10GuiElement11SetPositionEiii, @function
_ZN10GuiElement11SetPositionEiii:
.LFB1419:
	.loc 2 304 0
	.cfi_startproc
.LVL78:
	.loc 2 306 0
	stw 4,44(3)
	.loc 2 309 0
	.loc 2 307 0
	stw 5,48(3)
	.loc 2 308 0
	stw 6,52(3)
	.loc 2 309 0
	blr
	.cfi_endproc
.LFE1419:
	.size	_ZN10GuiElement11SetPositionEiii, .-_ZN10GuiElement11SetPositionEiii
	.section	.text._ZN10GuiElement12SetAlignmentEi,"axG",@progbits,_ZN10GuiElement12SetAlignmentEi,comdat
	.align 2
	.weak	_ZN10GuiElement12SetAlignmentEi
	.type	_ZN10GuiElement12SetAlignmentEi, @function
_ZN10GuiElement12SetAlignmentEi:
.LFB1421:
	.loc 2 316 0
	.cfi_startproc
.LVL79:
	.loc 2 316 0
	stw 4,68(3)
	blr
	.cfi_endproc
.LFE1421:
	.size	_ZN10GuiElement12SetAlignmentEi, .-_ZN10GuiElement12SetAlignmentEi
	.section	.text._ZNK10GuiElement12GetAlignmentEv,"axG",@progbits,_ZNK10GuiElement12GetAlignmentEv,comdat
	.align 2
	.weak	_ZNK10GuiElement12GetAlignmentEv
	.type	_ZNK10GuiElement12GetAlignmentEv, @function
_ZNK10GuiElement12GetAlignmentEv:
.LFB1422:
	.loc 2 318 0
	.cfi_startproc
.LVL80:
	.loc 2 318 0
	lwz 3,68(3)
.LVL81:
	blr
	.cfi_endproc
.LFE1422:
	.size	_ZNK10GuiElement12GetAlignmentEv, .-_ZNK10GuiElement12GetAlignmentEv
	.section	.text._ZN8GuiFrame4showEv,"axG",@progbits,_ZN8GuiFrame4showEv,comdat
	.align 2
	.weak	_ZN8GuiFrame4showEv
	.type	_ZN8GuiFrame4showEv, @function
_ZN8GuiFrame4showEv:
.LFB1431:
	.file 3 "d:/Projects/SaveGameManager/savegame-manager-gx/trunk/source/Prompts/../GUI/gui_frame.h"
	.loc 3 79 0
	.cfi_startproc
.LVL82:
	.loc 3 79 0
	blr
	.cfi_endproc
.LFE1431:
	.size	_ZN8GuiFrame4showEv, .-_ZN8GuiFrame4showEv
	.section	.text._ZN8GuiFrame4hideEv,"axG",@progbits,_ZN8GuiFrame4hideEv,comdat
	.align 2
	.weak	_ZN8GuiFrame4hideEv
	.type	_ZN8GuiFrame4hideEv, @function
_ZN8GuiFrame4hideEv:
.LFB1432:
	.loc 3 81 0
	.cfi_startproc
.LVL83:
	.loc 3 81 0
	blr
	.cfi_endproc
.LFE1432:
	.size	_ZN8GuiFrame4hideEv, .-_ZN8GuiFrame4hideEv
	.section	.text._ZN8GuiFrame4execEv,"axG",@progbits,_ZN8GuiFrame4execEv,comdat
	.align 2
	.weak	_ZN8GuiFrame4execEv
	.type	_ZN8GuiFrame4execEv, @function
_ZN8GuiFrame4execEv:
.LFB1433:
	.loc 3 83 0
	.cfi_startproc
.LVL84:
	.loc 3 83 0
	blr
	.cfi_endproc
.LFE1433:
	.size	_ZN8GuiFrame4execEv, .-_ZN8GuiFrame4execEv
	.section	.text._ZN8GuiFrame12updateEventsEv,"axG",@progbits,_ZN8GuiFrame12updateEventsEv,comdat
	.align 2
	.weak	_ZN8GuiFrame12updateEventsEv
	.type	_ZN8GuiFrame12updateEventsEv, @function
_ZN8GuiFrame12updateEventsEv:
.LFB1434:
	.loc 3 85 0
	.cfi_startproc
.LVL85:
	.loc 3 85 0
	blr
	.cfi_endproc
.LFE1434:
	.size	_ZN8GuiFrame12updateEventsEv, .-_ZN8GuiFrame12updateEventsEv
	.section	".text"
	.align 2
	.globl _ZN12UpdateWindow13OnButtonClickEP9GuiButtoniRK6_POINT
	.type	_ZN12UpdateWindow13OnButtonClickEP9GuiButtoniRK6_POINT, @function
_ZN12UpdateWindow13OnButtonClickEP9GuiButtoniRK6_POINT:
.LFB1608:
	.file 4 "d:/Projects/SaveGameManager/savegame-manager-gx/trunk/source/Prompts/UpdateWindow.cpp"
	.loc 4 396 0
	.cfi_startproc
	.cfi_personality 0,__gxx_personality_v0
	.cfi_lsda 0,.LLSDA1608
.LVL86:
	mflr 0
	stwu 1,-32(1)
.LCFI18:
	.cfi_def_cfa_offset 32
	.cfi_register 65, 0
	stw 30,24(1)
	mr 30,3
	.cfi_offset 30, -8
	stw 0,36(1)
	stw 27,12(1)
.LBB3141:
	.loc 4 397 0
	lwz 0,224(3)
	.cfi_offset 27, -20
	.cfi_offset 65, 4
.LBE3141:
	.loc 4 396 0
	stw 28,16(1)
.LBB3143:
	.loc 4 397 0
	cmpwi 7,0,0
.LBE3143:
	.loc 4 396 0
	stw 29,20(1)
	stw 31,28(1)
.LBB3144:
	.loc 4 397 0
	beq- 7,.L68
	.cfi_offset 31, -4
	.cfi_offset 29, -12
	.cfi_offset 28, -16
	.loc 4 399 0
	li 0,-12345
	li 28,-12345
	stw 0,216(3)
.L69:
.LVL87:
.LBE3144:
.LBB3145:
.LBB3146:
.LBB3147:
.LBB3148:
	.loc 1 338 0
	lwz 9,204(30)
.LBE3148:
.LBE3147:
	.loc 1 2270 0
	addi 27,30,204
.LVL88:
.LBB3151:
.LBB3149:
	.loc 1 338 0
	mr 3,27
.LVL89:
.LBE3149:
.LBE3151:
.LBE3146:
	.loc 4 471 0
	mr 29,30
.LBB3161:
.LBB3152:
.LBB3150:
	.loc 1 338 0
	lwz 0,8(9)
	mtctr 0
.LEHB0:
	bctrl
.LEHE0:
.LVL90:
.LBE3150:
.LBE3152:
.LBE3161:
	.loc 4 471 0
	lwzu 31,208(29)
.LVL91:
.LBB3162:
	.loc 1 2274 0
	cmpw 7,31,29
	beq- 7,.L72
.LVL92:
.L82:
	.loc 1 2279 0
	lwz 3,8(31)
	mr 4,30
	mr 5,28
.LBB3153:
.LBB3154:
	.file 5 "d:\\devkitpro\\devkitppc\\bin\\../lib/gcc/powerpc-eabi/4.6.3/../../../../powerpc-eabi/include/c++/4.6.3/bits/stl_list.h"
	.loc 5 234 0
	lwz 31,0(31)
.LVL93:
.LBE3154:
.LBE3153:
	.loc 1 2279 0
	lwz 9,0(3)
	lwz 0,12(9)
	mtctr 0
.LEHB1:
	bctrl
.LEHE1:
.LVL94:
	.loc 1 2274 0
	cmpw 7,29,31
	bne+ 7,.L82
.LVL95:
.L72:
.LBB3155:
.LBB3156:
.LBB3157:
	.loc 1 343 0
	lwz 9,204(30)
	mr 3,27
	lwz 0,12(9)
	mtctr 0
.LEHB2:
	bctrl
.LEHE2:
.LBE3157:
.LBE3156:
.LBE3155:
.LBE3162:
.LBE3145:
	.loc 4 414 0
	lwz 0,36(1)
	lwz 27,12(1)
	mtlr 0
	lwz 28,16(1)
.LVL96:
	lwz 29,20(1)
	lwz 30,24(1)
.LVL97:
	lwz 31,28(1)
.LVL98:
	addi 1,1,32
	.cfi_remember_state
.LCFI19:
	.cfi_def_cfa_offset 0
	.cfi_restore 31
	.cfi_restore 30
	.cfi_restore 29
	.cfi_restore 28
	.cfi_restore 27
	blr
.LVL99:
.L68:
.LCFI20:
	.cfi_restore_state
.LBB3164:
.LBB3142:
	.loc 4 405 0
	lwz 0,300(3)
	cmpw 7,0,4
	beq- 7,.L77
.LVL100:
	lwz 0,304(3)
	cmpw 7,0,4
	beq- 7,.L78
.LVL101:
	lwz 0,308(3)
	cmpw 7,0,4
	beq- 7,.L79
.LVL102:
	lwz 0,312(3)
	li 28,3
	cmpw 7,0,4
	beq- 7,.L70
.LVL103:
	.loc 4 408 0
	lwz 28,216(3)
	b .L69
.LVL104:
.L79:
	.loc 4 403 0
	li 28,2
.LVL105:
.L70:
	.loc 4 407 0
	addi 28,28,1
	stw 28,216(30)
	.loc 4 408 0
	b .L69
.L77:
	.loc 4 405 0
	li 28,0
	b .L70
.LVL106:
.L78:
	.loc 4 403 0
	li 28,1
	b .L70
.LVL107:
.L81:
.LBE3142:
.LBE3164:
.LBB3165:
.LBB3163:
.LBB3158:
.LBB3159:
.LBB3160:
	.loc 1 343 0
	lwz 9,204(30)
	mr 31,3
.LVL108:
	mr 3,27
	lwz 0,12(9)
	mtctr 0
	bctrl
	mr 3,31
.LEHB3:
	bl _Unwind_Resume
.LEHE3:
.LBE3160:
.LBE3159:
.LBE3158:
.LBE3163:
.LBE3165:
	.cfi_endproc
.LFE1608:
	.globl __gxx_personality_v0
	.section	.gcc_except_table,"a",@progbits
.LLSDA1608:
	.byte	0xff
	.byte	0xff
	.byte	0x1
	.uleb128 .LLSDACSE1608-.LLSDACSB1608
.LLSDACSB1608:
	.uleb128 .LEHB0-.LFB1608
	.uleb128 .LEHE0-.LEHB0
	.uleb128 0
	.uleb128 0
	.uleb128 .LEHB1-.LFB1608
	.uleb128 .LEHE1-.LEHB1
	.uleb128 .L81-.LFB1608
	.uleb128 0
	.uleb128 .LEHB2-.LFB1608
	.uleb128 .LEHE2-.LEHB2
	.uleb128 0
	.uleb128 0
	.uleb128 .LEHB3-.LFB1608
	.uleb128 .LEHE3-.LEHB3
	.uleb128 0
	.uleb128 0
.LLSDACSE1608:
	.section	".text"
	.size	_ZN12UpdateWindow13OnButtonClickEP9GuiButtoniRK6_POINT, .-_ZN12UpdateWindow13OnButtonClickEP9GuiButtoniRK6_POINT
	.section	.text._ZN7sigslot12_signal_baseINS_15single_threadedEED2Ev,"axG",@progbits,_ZN7sigslot12_signal_baseINS_15single_threadedEED5Ev,comdat
	.align 2
	.weak	_ZN7sigslot12_signal_baseINS_15single_threadedEED2Ev
	.type	_ZN7sigslot12_signal_baseINS_15single_threadedEED2Ev, @function
_ZN7sigslot12_signal_baseINS_15single_threadedEED2Ev:
.LFB1680:
	.loc 1 466 0
	.cfi_startproc
.LVL109:
.LBB3166:
.LBB3167:
.LBB3168:
.LBB3169:
	.loc 1 105 0
	lis 9,_ZTVN7sigslot15single_threadedE+8@ha
.LBE3169:
.LBE3168:
.LBE3167:
.LBE3166:
	.loc 1 466 0
.LBB3173:
.LBB3172:
.LBB3171:
.LBB3170:
	.loc 1 105 0
	la 0,_ZTVN7sigslot15single_threadedE+8@l(9)
	stw 0,0(3)
.LBE3170:
.LBE3171:
.LBE3172:
.LBE3173:
	.loc 1 466 0
	blr
	.cfi_endproc
.LFE1680:
	.size	_ZN7sigslot12_signal_baseINS_15single_threadedEED2Ev, .-_ZN7sigslot12_signal_baseINS_15single_threadedEED2Ev
	.section	.text._ZN7sigslot17_connection_base3IP9GuiButtoniRK6_POINTNS_15single_threadedEED2Ev,"axG",@progbits,_ZN7sigslot17_connection_base3IP9GuiButtoniRK6_POINTNS_15single_threadedEED5Ev,comdat
	.align 2
	.weak	_ZN7sigslot17_connection_base3IP9GuiButtoniRK6_POINTNS_15single_threadedEED2Ev
	.type	_ZN7sigslot17_connection_base3IP9GuiButtoniRK6_POINTNS_15single_threadedEED2Ev, @function
_ZN7sigslot17_connection_base3IP9GuiButtoniRK6_POINTNS_15single_threadedEED2Ev:
.LFB1833:
	.loc 1 387 0
	.cfi_startproc
.LVL110:
.LBB3174:
	.loc 1 387 0
	lis 9,_ZTVN7sigslot17_connection_base3IP9GuiButtoniRK6_POINTNS_15single_threadedEEE+8@ha
.LBE3174:
.LBB3175:
	la 0,_ZTVN7sigslot17_connection_base3IP9GuiButtoniRK6_POINTNS_15single_threadedEEE+8@l(9)
	stw 0,0(3)
.LBE3175:
	blr
	.cfi_endproc
.LFE1833:
	.size	_ZN7sigslot17_connection_base3IP9GuiButtoniRK6_POINTNS_15single_threadedEED2Ev, .-_ZN7sigslot17_connection_base3IP9GuiButtoniRK6_POINTNS_15single_threadedEED2Ev
	.section	.text._ZN7sigslot12_connection3I12UpdateWindowP9GuiButtoniRK6_POINTNS_15single_threadedEED2Ev,"axG",@progbits,_ZN7sigslot12_connection3I12UpdateWindowP9GuiButtoniRK6_POINTNS_15single_threadedEED5Ev,comdat
	.align 2
	.weak	_ZN7sigslot12_connection3I12UpdateWindowP9GuiButtoniRK6_POINTNS_15single_threadedEED2Ev
	.type	_ZN7sigslot12_connection3I12UpdateWindowP9GuiButtoniRK6_POINTNS_15single_threadedEED2Ev, @function
_ZN7sigslot12_connection3I12UpdateWindowP9GuiButtoniRK6_POINTNS_15single_threadedEED2Ev:
.LFB2142:
	.loc 1 1783 0
	.cfi_startproc
.LVL111:
.LBB3176:
.LBB3177:
.LBB3178:
.LBB3179:
	.loc 1 387 0
	lis 9,_ZTVN7sigslot17_connection_base3IP9GuiButtoniRK6_POINTNS_15single_threadedEEE+8@ha
.LBE3179:
.LBE3178:
.LBE3177:
.LBE3176:
	.loc 1 1786 0
.LBB3183:
.LBB3182:
.LBB3181:
.LBB3180:
	.loc 1 387 0
	la 0,_ZTVN7sigslot17_connection_base3IP9GuiButtoniRK6_POINTNS_15single_threadedEEE+8@l(9)
	stw 0,0(3)
.LBE3180:
.LBE3181:
.LBE3182:
.LBE3183:
	.loc 1 1786 0
	blr
	.cfi_endproc
.LFE2142:
	.size	_ZN7sigslot12_connection3I12UpdateWindowP9GuiButtoniRK6_POINTNS_15single_threadedEED2Ev, .-_ZN7sigslot12_connection3I12UpdateWindowP9GuiButtoniRK6_POINTNS_15single_threadedEED2Ev
	.section	.text._ZNK7sigslot12_connection3I12UpdateWindowP9GuiButtoniRK6_POINTNS_15single_threadedEE7getdestEv,"axG",@progbits,_ZNK7sigslot12_connection3I12UpdateWindowP9GuiButtoniRK6_POINTNS_15single_threadedEE7getdestEv,comdat
	.align 2
	.weak	_ZNK7sigslot12_connection3I12UpdateWindowP9GuiButtoniRK6_POINTNS_15single_threadedEE7getdestEv
	.type	_ZNK7sigslot12_connection3I12UpdateWindowP9GuiButtoniRK6_POINTNS_15single_threadedEE7getdestEv, @function
_ZNK7sigslot12_connection3I12UpdateWindowP9GuiButtoniRK6_POINTNS_15single_threadedEE7getdestEv:
.LFB2145:
	.loc 1 1804 0
	.cfi_startproc
.LVL112:
	.loc 1 1806 0
	lwz 9,4(3)
	li 3,0
.LVL113:
	cmpwi 7,9,0
	beqlr- 7
	.loc 1 1806 0 is_stmt 0 discriminator 1
	addi 3,9,176
	.loc 1 1807 0 is_stmt 1 discriminator 1
	blr
	.cfi_endproc
.LFE2145:
	.size	_ZNK7sigslot12_connection3I12UpdateWindowP9GuiButtoniRK6_POINTNS_15single_threadedEE7getdestEv, .-_ZNK7sigslot12_connection3I12UpdateWindowP9GuiButtoniRK6_POINTNS_15single_threadedEE7getdestEv
	.section	.text._ZN7sigslot12_connection3I12UpdateWindowP9GuiButtoniRK6_POINTNS_15single_threadedEE4emitES3_iS6_,"axG",@progbits,_ZN7sigslot12_connection3I12UpdateWindowP9GuiButtoniRK6_POINTNS_15single_threadedEE4emitES3_iS6_,comdat
	.align 2
	.weak	_ZN7sigslot12_connection3I12UpdateWindowP9GuiButtoniRK6_POINTNS_15single_threadedEE4emitES3_iS6_
	.type	_ZN7sigslot12_connection3I12UpdateWindowP9GuiButtoniRK6_POINTNS_15single_threadedEE4emitES3_iS6_, @function
_ZN7sigslot12_connection3I12UpdateWindowP9GuiButtoniRK6_POINTNS_15single_threadedEE4emitES3_iS6_:
.LFB2146:
	.loc 1 1799 0
	.cfi_startproc
.LVL114:
	mflr 0
	stwu 1,-8(1)
.LCFI21:
	.cfi_def_cfa_offset 8
	.cfi_register 65, 0
	stw 0,12(1)
	.loc 1 1801 0
	lwz 0,8(3)
	.cfi_offset 65, 4
	lwz 11,4(3)
	andi. 9,0,1
	lwz 9,12(3)
	bne- 0,.L95
	mtctr 0
	add 3,11,9
.LVL115:
	bctrl
.LVL116:
	.loc 1 1802 0
	lwz 0,12(1)
	addi 1,1,8
	.cfi_remember_state
.LCFI22:
	.cfi_def_cfa_offset 0
	mtlr 0
	blr
.LVL117:
.L95:
.LCFI23:
	.cfi_restore_state
	.loc 1 1801 0 discriminator 1
	lwzx 10,11,9
	add 3,11,9
.LVL118:
	add 9,10,0
	lwz 0,-1(9)
	mtctr 0
	bctrl
.LVL119:
	.loc 1 1802 0 discriminator 1
	lwz 0,12(1)
	addi 1,1,8
.LCFI24:
	.cfi_def_cfa_offset 0
	mtlr 0
	blr
	.cfi_endproc
.LFE2146:
	.size	_ZN7sigslot12_connection3I12UpdateWindowP9GuiButtoniRK6_POINTNS_15single_threadedEE4emitES3_iS6_, .-_ZN7sigslot12_connection3I12UpdateWindowP9GuiButtoniRK6_POINTNS_15single_threadedEE4emitES3_iS6_
	.section	.text._ZN7sigslot12_connection3I12UpdateWindowP9GuiButtoniRK6_POINTNS_15single_threadedEE9duplicateEPNS_9has_slotsIS7_EE,"axG",@progbits,_ZN7sigslot12_connection3I12UpdateWindowP9GuiButtoniRK6_POINTNS_15single_threadedEE9duplicateEPNS_9has_slotsIS7_EE,comdat
	.align 2
	.weak	_ZN7sigslot12_connection3I12UpdateWindowP9GuiButtoniRK6_POINTNS_15single_threadedEE9duplicateEPNS_9has_slotsIS7_EE
	.type	_ZN7sigslot12_connection3I12UpdateWindowP9GuiButtoniRK6_POINTNS_15single_threadedEE9duplicateEPNS_9has_slotsIS7_EE, @function
_ZN7sigslot12_connection3I12UpdateWindowP9GuiButtoniRK6_POINTNS_15single_threadedEE9duplicateEPNS_9has_slotsIS7_EE:
.LFB2154:
	.loc 1 1794 0
	.cfi_startproc
.LVL120:
	stwu 1,-16(1)
.LCFI25:
	.cfi_def_cfa_offset 16
	mflr 0
	stw 30,8(1)
	mr 30,4
	.cfi_offset 30, -8
	.cfi_register 65, 0
	stw 31,12(1)
	mr 31,3
	.cfi_offset 31, -4
	.loc 1 1796 0
	li 3,16
.LVL121:
	.loc 1 1794 0
	stw 0,20(1)
	.loc 1 1796 0
	.cfi_offset 65, 4
	bl _Znwj
.LVL122:
	cmpwi 7,30,0
	li 0,0
	beq- 7,.L98
	.loc 1 1796 0 is_stmt 0 discriminator 1
	addi 0,30,-176
.L98:
.LVL123:
	.loc 1 1796 0 discriminator 3
	lwz 11,8(31)
.LVL124:
.LBB3184:
.LBB3185:
	.loc 1 1778 0 is_stmt 1 discriminator 3
	lis 10,_ZTVN7sigslot12_connection3I12UpdateWindowP9GuiButtoniRK6_POINTNS_15single_threadedEEE+8@ha
.LBE3185:
.LBE3184:
	.loc 1 1796 0 discriminator 3
	lwz 9,12(31)
.LVL125:
.LBB3188:
.LBB3186:
	.loc 1 1778 0 discriminator 3
	la 10,_ZTVN7sigslot12_connection3I12UpdateWindowP9GuiButtoniRK6_POINTNS_15single_threadedEEE+8@l(10)
	.loc 1 1780 0 discriminator 3
	stw 11,8(3)
	stw 9,12(3)
	.loc 1 1779 0 discriminator 3
	stw 0,4(3)
.LBE3186:
.LBE3188:
	.loc 1 1797 0 discriminator 3
	lwz 0,20(1)
.LVL126:
	lwz 30,8(1)
.LVL127:
	mtlr 0
	lwz 31,12(1)
.LVL128:
.LBB3189:
.LBB3187:
	.loc 1 1778 0 discriminator 3
	stw 10,0(3)
.LBE3187:
.LBE3189:
	.loc 1 1797 0 discriminator 3
	addi 1,1,16
.LCFI26:
	.cfi_def_cfa_offset 0
	.cfi_restore 31
	.cfi_restore 30
	blr
	.cfi_endproc
.LFE2154:
	.size	_ZN7sigslot12_connection3I12UpdateWindowP9GuiButtoniRK6_POINTNS_15single_threadedEE9duplicateEPNS_9has_slotsIS7_EE, .-_ZN7sigslot12_connection3I12UpdateWindowP9GuiButtoniRK6_POINTNS_15single_threadedEE9duplicateEPNS_9has_slotsIS7_EE
	.section	.text._ZN7sigslot12_connection3I12UpdateWindowP9GuiButtoniRK6_POINTNS_15single_threadedEE5cloneEv,"axG",@progbits,_ZN7sigslot12_connection3I12UpdateWindowP9GuiButtoniRK6_POINTNS_15single_threadedEE5cloneEv,comdat
	.align 2
	.weak	_ZN7sigslot12_connection3I12UpdateWindowP9GuiButtoniRK6_POINTNS_15single_threadedEE5cloneEv
	.type	_ZN7sigslot12_connection3I12UpdateWindowP9GuiButtoniRK6_POINTNS_15single_threadedEE5cloneEv, @function
_ZN7sigslot12_connection3I12UpdateWindowP9GuiButtoniRK6_POINTNS_15single_threadedEE5cloneEv:
.LFB2147:
	.loc 1 1789 0
	.cfi_startproc
.LVL129:
	stwu 1,-16(1)
.LCFI27:
	.cfi_def_cfa_offset 16
	mflr 0
	stw 31,12(1)
	mr 31,3
	.cfi_offset 31, -4
	.cfi_register 65, 0
	.loc 1 1791 0
	li 3,16
.LVL130:
	.loc 1 1789 0
	stw 0,20(1)
	.loc 1 1791 0
	.cfi_offset 65, 4
	bl _Znwj
	.loc 4 471 0
	lwz 0,4(31)
.LVL131:
.LBB3190:
.LBB3191:
	.loc 1 1767 0
	lis 11,_ZTVN7sigslot12_connection3I12UpdateWindowP9GuiButtoniRK6_POINTNS_15single_threadedEEE+8@ha
	la 11,_ZTVN7sigslot12_connection3I12UpdateWindowP9GuiButtoniRK6_POINTNS_15single_threadedEEE+8@l(11)
	stw 0,4(3)
	stw 11,0(3)
	lwz 10,8(31)
	lwz 11,12(31)
	stw 10,8(3)
	stw 11,12(3)
.LBE3191:
.LBE3190:
	.loc 1 1792 0
	lwz 0,20(1)
	lwz 31,12(1)
.LVL132:
	mtlr 0
	addi 1,1,16
.LCFI28:
	.cfi_def_cfa_offset 0
	.cfi_restore 31
	blr
	.cfi_endproc
.LFE2147:
	.size	_ZN7sigslot12_connection3I12UpdateWindowP9GuiButtoniRK6_POINTNS_15single_threadedEE5cloneEv, .-_ZN7sigslot12_connection3I12UpdateWindowP9GuiButtoniRK6_POINTNS_15single_threadedEE5cloneEv
	.section	.text._ZN7sigslot13_signal_base2IP12UpdateWindowiNS_15single_threadedEE14slot_duplicateEPKNS_9has_slotsIS3_EEPS6_,"axG",@progbits,_ZN7sigslot13_signal_base2IP12UpdateWindowiNS_15single_threadedEE14slot_duplicateEPKNS_9has_slotsIS3_EEPS6_,comdat
	.align 2
	.weak	_ZN7sigslot13_signal_base2IP12UpdateWindowiNS_15single_threadedEE14slot_duplicateEPKNS_9has_slotsIS3_EEPS6_
	.type	_ZN7sigslot13_signal_base2IP12UpdateWindowiNS_15single_threadedEE14slot_duplicateEPKNS_9has_slotsIS3_EEPS6_, @function
_ZN7sigslot13_signal_base2IP12UpdateWindowiNS_15single_threadedEE14slot_duplicateEPKNS_9has_slotsIS3_EEPS6_:
.LFB2156:
	.loc 1 806 0
	.cfi_startproc
	.cfi_personality 0,__gxx_personality_v0
	.cfi_lsda 0,.LLSDA2156
.LVL133:
	mflr 0
	stwu 1,-32(1)
.LCFI29:
	.cfi_def_cfa_offset 32
	.cfi_register 65, 0
	stw 26,8(1)
	mr 26,5
	.cfi_offset 26, -24
	stw 0,36(1)
	stw 27,12(1)
	mr 27,3
	.cfi_offset 27, -20
	.cfi_offset 65, 4
.LVL134:
.LBB3192:
.LBB3193:
.LBB3194:
	.loc 1 338 0
	lwz 9,0(3)
.LBE3194:
.LBE3193:
.LBE3192:
	.loc 1 806 0
	stw 29,20(1)
	mr 29,4
	.cfi_offset 29, -12
.LBB3223:
.LBB3199:
.LBB3195:
	.loc 1 338 0
	lwz 0,8(9)
.LBE3195:
.LBE3199:
.LBE3223:
	.loc 1 806 0
	stw 30,24(1)
.LBB3224:
.LBB3200:
.LBB3196:
	.loc 4 471 0
	mr 30,27
	.cfi_offset 30, -8
.LBE3196:
.LBE3200:
.LBE3224:
	.loc 1 806 0
	stw 31,28(1)
.LBB3225:
.LBB3201:
.LBB3197:
	.loc 1 338 0
	mtctr 0
.LBE3197:
.LBE3201:
.LBE3225:
	.loc 1 806 0
	stw 28,16(1)
.LEHB4:
.LBB3226:
.LBB3202:
.LBB3198:
	.loc 1 338 0
	.cfi_offset 28, -16
	.cfi_offset 31, -4
	bctrl
.LEHE4:
.LVL135:
	.loc 4 471 0
	lwzu 31,4(30)
.LVL136:
.LBE3198:
.LBE3202:
	.loc 1 812 0
	cmpw 7,31,30
	bne+ 7,.L111
	b .L102
.LVL137:
.L103:
.LBB3203:
.LBB3204:
	.loc 5 154 0
	lwz 31,0(31)
.LVL138:
.LBE3204:
.LBE3203:
	.loc 1 812 0
	cmpw 7,30,31
	beq- 7,.L102
.LVL139:
.L111:
	.loc 1 814 0
	lwz 3,8(31)
	lwz 9,0(3)
	lwz 0,8(9)
	mtctr 0
.LEHB5:
	bctrl
	cmpw 7,29,3
	bne+ 7,.L103
.LVL140:
	.loc 1 816 0
	lwz 3,8(31)
	mr 4,26
	lwz 9,0(3)
	lwz 0,20(9)
	mtctr 0
	bctrl
	mr 28,3
.LVL141:
.LBB3206:
.LBB3207:
.LBB3208:
.LBB3209:
.LBB3210:
.LBB3211:
.LBB3212:
.LBB3213:
	.file 6 "d:\\devkitpro\\devkitppc\\bin\\../lib/gcc/powerpc-eabi/4.6.3/../../../../powerpc-eabi/include/c++/4.6.3/ext/new_allocator.h"
	.loc 6 92 0
	li 3,12
	bl _Znwj
.LEHE5:
.LVL142:
.LBE3213:
.LBE3212:
.LBE3211:
.LBB3214:
.LBB3215:
	.loc 6 108 0 discriminator 1
	cmpwi 7,3,-8
	beq- 7,.L105
	.loc 6 108 0 is_stmt 0
	stw 28,8(3)
.L105:
.LVL143:
.LBE3215:
.LBE3214:
.LBE3210:
.LBE3209:
	.loc 5 1516 0 is_stmt 1
	mr 4,30
	bl _ZNSt8__detail15_List_node_base7_M_hookEPS0_
.LVL144:
.LBE3208:
.LBE3207:
.LBE3206:
.LBB3216:
.LBB3205:
	.loc 5 154 0
	lwz 31,0(31)
.LVL145:
.LBE3205:
.LBE3216:
	.loc 1 812 0
	cmpw 7,30,31
	bne+ 7,.L111
.LVL146:
.L102:
.LBB3217:
.LBB3218:
.LBB3219:
	.loc 1 343 0
	lwz 9,0(27)
	mr 3,27
	lwz 0,12(9)
	mtctr 0
.LEHB6:
	bctrl
.LEHE6:
.LBE3219:
.LBE3218:
.LBE3217:
.LBE3226:
	.loc 1 821 0
	lwz 0,36(1)
	lwz 26,8(1)
.LVL147:
	mtlr 0
	lwz 27,12(1)
.LVL148:
	lwz 28,16(1)
	lwz 29,20(1)
.LVL149:
	lwz 30,24(1)
.LVL150:
	lwz 31,28(1)
.LVL151:
	addi 1,1,32
	.cfi_remember_state
.LCFI30:
	.cfi_def_cfa_offset 0
	.cfi_restore 31
	.cfi_restore 30
	.cfi_restore 29
	.cfi_restore 28
	.cfi_restore 27
	.cfi_restore 26
	blr
.LVL152:
.L110:
.LCFI31:
	.cfi_restore_state
.LBB3227:
.LBB3220:
.LBB3221:
.LBB3222:
	.loc 1 343 0
	lwz 9,0(27)
	mr 31,3
.LVL153:
	mr 3,27
	lwz 0,12(9)
	mtctr 0
	bctrl
	mr 3,31
.LEHB7:
	bl _Unwind_Resume
.LEHE7:
.LBE3222:
.LBE3221:
.LBE3220:
.LBE3227:
	.cfi_endproc
.LFE2156:
	.section	.gcc_except_table
.LLSDA2156:
	.byte	0xff
	.byte	0xff
	.byte	0x1
	.uleb128 .LLSDACSE2156-.LLSDACSB2156
.LLSDACSB2156:
	.uleb128 .LEHB4-.LFB2156
	.uleb128 .LEHE4-.LEHB4
	.uleb128 0
	.uleb128 0
	.uleb128 .LEHB5-.LFB2156
	.uleb128 .LEHE5-.LEHB5
	.uleb128 .L110-.LFB2156
	.uleb128 0
	.uleb128 .LEHB6-.LFB2156
	.uleb128 .LEHE6-.LEHB6
	.uleb128 0
	.uleb128 0
	.uleb128 .LEHB7-.LFB2156
	.uleb128 .LEHE7-.LEHB7
	.uleb128 0
	.uleb128 0
.LLSDACSE2156:
	.section	.text._ZN7sigslot13_signal_base2IP12UpdateWindowiNS_15single_threadedEE14slot_duplicateEPKNS_9has_slotsIS3_EEPS6_,"axG",@progbits,_ZN7sigslot13_signal_base2IP12UpdateWindowiNS_15single_threadedEE14slot_duplicateEPKNS_9has_slotsIS3_EEPS6_,comdat
	.size	_ZN7sigslot13_signal_base2IP12UpdateWindowiNS_15single_threadedEE14slot_duplicateEPKNS_9has_slotsIS3_EEPS6_, .-_ZN7sigslot13_signal_base2IP12UpdateWindowiNS_15single_threadedEE14slot_duplicateEPKNS_9has_slotsIS3_EEPS6_
	.section	.text._ZN7sigslot12_connection3I12UpdateWindowP9GuiButtoniRK6_POINTNS_15single_threadedEED0Ev,"axG",@progbits,_ZN7sigslot12_connection3I12UpdateWindowP9GuiButtoniRK6_POINTNS_15single_threadedEED5Ev,comdat
	.align 2
	.weak	_ZN7sigslot12_connection3I12UpdateWindowP9GuiButtoniRK6_POINTNS_15single_threadedEED0Ev
	.type	_ZN7sigslot12_connection3I12UpdateWindowP9GuiButtoniRK6_POINTNS_15single_threadedEED0Ev, @function
_ZN7sigslot12_connection3I12UpdateWindowP9GuiButtoniRK6_POINTNS_15single_threadedEED0Ev:
.LFB2144:
	.loc 1 1783 0
	.cfi_startproc
.LVL154:
	mflr 0
	stwu 1,-8(1)
.LCFI32:
	.cfi_def_cfa_offset 8
	.cfi_register 65, 0
.LBB3228:
.LBB3229:
.LBB3230:
.LBB3231:
.LBB3232:
.LBB3233:
	.loc 1 387 0
	lis 9,_ZTVN7sigslot17_connection_base3IP9GuiButtoniRK6_POINTNS_15single_threadedEEE+8@ha
.LBE3233:
.LBE3232:
.LBE3231:
.LBE3230:
.LBE3229:
.LBE3228:
	.loc 1 1783 0
	stw 0,12(1)
.LBB3239:
.LBB3238:
.LBB3237:
.LBB3236:
.LBB3235:
.LBB3234:
	.loc 1 387 0
	la 0,_ZTVN7sigslot17_connection_base3IP9GuiButtoniRK6_POINTNS_15single_threadedEEE+8@l(9)
	.cfi_offset 65, 4
	stw 0,0(3)
.LBE3234:
.LBE3235:
.LBE3236:
.LBE3237:
.LBE3238:
.LBE3239:
	.loc 1 1786 0
	bl _ZdlPv
.LVL155:
	lwz 0,12(1)
	addi 1,1,8
.LCFI33:
	.cfi_def_cfa_offset 0
	mtlr 0
	blr
	.cfi_endproc
.LFE2144:
	.size	_ZN7sigslot12_connection3I12UpdateWindowP9GuiButtoniRK6_POINTNS_15single_threadedEED0Ev, .-_ZN7sigslot12_connection3I12UpdateWindowP9GuiButtoniRK6_POINTNS_15single_threadedEED0Ev
	.section	.text._ZN7sigslot17_connection_base3IP9GuiButtoniRK6_POINTNS_15single_threadedEED0Ev,"axG",@progbits,_ZN7sigslot17_connection_base3IP9GuiButtoniRK6_POINTNS_15single_threadedEED5Ev,comdat
	.align 2
	.weak	_ZN7sigslot17_connection_base3IP9GuiButtoniRK6_POINTNS_15single_threadedEED0Ev
	.type	_ZN7sigslot17_connection_base3IP9GuiButtoniRK6_POINTNS_15single_threadedEED0Ev, @function
_ZN7sigslot17_connection_base3IP9GuiButtoniRK6_POINTNS_15single_threadedEED0Ev:
.LFB1835:
	.loc 1 387 0
	.cfi_startproc
.LVL156:
	mflr 0
	stwu 1,-8(1)
.LCFI34:
	.cfi_def_cfa_offset 8
	.cfi_register 65, 0
.LBB3240:
.LBB3241:
.LBB3242:
	lis 9,_ZTVN7sigslot17_connection_base3IP9GuiButtoniRK6_POINTNS_15single_threadedEEE+8@ha
.LBE3242:
.LBE3241:
.LBE3240:
	stw 0,12(1)
.LBB3245:
.LBB3244:
.LBB3243:
	.loc 1 387 0
	la 0,_ZTVN7sigslot17_connection_base3IP9GuiButtoniRK6_POINTNS_15single_threadedEEE+8@l(9)
	.cfi_offset 65, 4
	stw 0,0(3)
.LBE3243:
.LBE3244:
.LBE3245:
	bl _ZdlPv
.LVL157:
	lwz 0,12(1)
	addi 1,1,8
.LCFI35:
	.cfi_def_cfa_offset 0
	mtlr 0
	blr
	.cfi_endproc
.LFE1835:
	.size	_ZN7sigslot17_connection_base3IP9GuiButtoniRK6_POINTNS_15single_threadedEED0Ev, .-_ZN7sigslot17_connection_base3IP9GuiButtoniRK6_POINTNS_15single_threadedEED0Ev
	.section	.text._ZN7sigslot12_signal_baseINS_15single_threadedEED0Ev,"axG",@progbits,_ZN7sigslot12_signal_baseINS_15single_threadedEED5Ev,comdat
	.align 2
	.weak	_ZN7sigslot12_signal_baseINS_15single_threadedEED0Ev
	.type	_ZN7sigslot12_signal_baseINS_15single_threadedEED0Ev, @function
_ZN7sigslot12_signal_baseINS_15single_threadedEED0Ev:
.LFB1682:
	.loc 1 466 0
	.cfi_startproc
.LVL158:
	mflr 0
	stwu 1,-8(1)
.LCFI36:
	.cfi_def_cfa_offset 8
	.cfi_register 65, 0
.LBB3246:
.LBB3247:
.LBB3248:
.LBB3249:
.LBB3250:
.LBB3251:
	.loc 1 105 0
	lis 9,_ZTVN7sigslot15single_threadedE+8@ha
.LBE3251:
.LBE3250:
.LBE3249:
.LBE3248:
.LBE3247:
.LBE3246:
	.loc 1 466 0
	stw 0,12(1)
.LBB3257:
.LBB3256:
.LBB3255:
.LBB3254:
.LBB3253:
.LBB3252:
	.loc 1 105 0
	la 0,_ZTVN7sigslot15single_threadedE+8@l(9)
	.cfi_offset 65, 4
	stw 0,0(3)
.LBE3252:
.LBE3253:
.LBE3254:
.LBE3255:
.LBE3256:
.LBE3257:
	.loc 1 466 0
	bl _ZdlPv
.LVL159:
	lwz 0,12(1)
	addi 1,1,8
.LCFI37:
	.cfi_def_cfa_offset 0
	mtlr 0
	blr
	.cfi_endproc
.LFE1682:
	.size	_ZN7sigslot12_signal_baseINS_15single_threadedEED0Ev, .-_ZN7sigslot12_signal_baseINS_15single_threadedEED0Ev
	.section	.text._ZN7sigslot15single_threadedD0Ev,"axG",@progbits,_ZN7sigslot15single_threadedD5Ev,comdat
	.align 2
	.weak	_ZN7sigslot15single_threadedD0Ev
	.type	_ZN7sigslot15single_threadedD0Ev, @function
_ZN7sigslot15single_threadedD0Ev:
.LFB1150:
	.loc 1 104 0
	.cfi_startproc
.LVL160:
	mflr 0
	stwu 1,-8(1)
.LCFI38:
	.cfi_def_cfa_offset 8
	.cfi_register 65, 0
.LBB3258:
.LBB3259:
.LBB3260:
	.loc 1 105 0
	lis 9,_ZTVN7sigslot15single_threadedE+8@ha
.LBE3260:
.LBE3259:
.LBE3258:
	.loc 1 104 0
	stw 0,12(1)
.LBB3263:
.LBB3262:
.LBB3261:
	.loc 1 105 0
	la 0,_ZTVN7sigslot15single_threadedE+8@l(9)
	.cfi_offset 65, 4
	stw 0,0(3)
.LBE3261:
.LBE3262:
.LBE3263:
	.loc 1 107 0
	bl _ZdlPv
.LVL161:
	lwz 0,12(1)
	addi 1,1,8
.LCFI39:
	.cfi_def_cfa_offset 0
	mtlr 0
	blr
	.cfi_endproc
.LFE1150:
	.size	_ZN7sigslot15single_threadedD0Ev, .-_ZN7sigslot15single_threadedD0Ev
	.section	.text._ZN7sigslot13_signal_base2IP12UpdateWindowiNS_15single_threadedEE15slot_disconnectEPNS_9has_slotsIS3_EE,"axG",@progbits,_ZN7sigslot13_signal_base2IP12UpdateWindowiNS_15single_threadedEE15slot_disconnectEPNS_9has_slotsIS3_EE,comdat
	.align 2
	.weak	_ZN7sigslot13_signal_base2IP12UpdateWindowiNS_15single_threadedEE15slot_disconnectEPNS_9has_slotsIS3_EE
	.type	_ZN7sigslot13_signal_base2IP12UpdateWindowiNS_15single_threadedEE15slot_disconnectEPNS_9has_slotsIS3_EE, @function
_ZN7sigslot13_signal_base2IP12UpdateWindowiNS_15single_threadedEE15slot_disconnectEPNS_9has_slotsIS3_EE:
.LFB2155:
	.loc 1 870 0
	.cfi_startproc
	.cfi_personality 0,__gxx_personality_v0
	.cfi_lsda 0,.LLSDA2155
.LVL162:
	mflr 0
	stwu 1,-32(1)
.LCFI40:
	.cfi_def_cfa_offset 32
	.cfi_register 65, 0
	stw 27,12(1)
	mr 27,3
	.cfi_offset 27, -20
.LVL163:
	stw 0,36(1)
	stw 28,16(1)
	mr 28,4
	.cfi_offset 28, -16
	.cfi_offset 65, 4
.LBB3264:
.LBB3265:
.LBB3266:
	.loc 1 338 0
	lwz 9,0(3)
.LBE3266:
.LBE3265:
.LBE3264:
	.loc 1 870 0
	stw 29,20(1)
.LBB3287:
.LBB3269:
.LBB3267:
	.loc 4 471 0
	mr 29,27
	.cfi_offset 29, -12
	.loc 1 338 0
	lwz 0,8(9)
.LBE3267:
.LBE3269:
.LBE3287:
	.loc 1 870 0
	stw 31,28(1)
	stw 30,24(1)
.LBB3288:
.LBB3270:
.LBB3268:
	.loc 1 338 0
	mtctr 0
.LEHB8:
	.cfi_offset 30, -8
	.cfi_offset 31, -4
	bctrl
.LEHE8:
.LVL164:
	.loc 4 471 0
	lwzu 31,4(29)
.LVL165:
.LBE3268:
.LBE3270:
	.loc 1 876 0
	cmpw 7,31,29
	bne+ 7,.L139
	b .L128
.LVL166:
.L129:
	.loc 1 876 0 is_stmt 0 discriminator 1
	cmpw 7,29,30
	beq- 7,.L128
.L137:
	.loc 1 876 0
	mr 31,30
.LVL167:
.L139:
.LBB3271:
	.loc 1 881 0 is_stmt 1
	lwz 3,8(31)
.LBB3272:
.LBB3273:
	.loc 5 154 0
	lwz 30,0(31)
.LVL168:
.LBE3273:
.LBE3272:
	.loc 1 881 0
	lwz 9,0(3)
	lwz 0,8(9)
	mtctr 0
.LEHB9:
	bctrl
.LVL169:
	cmpw 7,28,3
	bne+ 7,.L129
.LVL170:
	.loc 1 883 0
	lwz 3,8(31)
	cmpwi 7,3,0
	beq- 7,.L130
	.loc 1 883 0 is_stmt 0 discriminator 1
	lwz 9,0(3)
	lwz 0,4(9)
	mtctr 0
	bctrl
.LEHE9:
.L130:
.LVL171:
.LBB3274:
.LBB3275:
.LBB3276:
.LBB3277:
	.loc 5 1532 0 is_stmt 1
	mr 3,31
	bl _ZNSt8__detail15_List_node_base9_M_unhookEv
.LVL172:
.LBB3278:
.LBB3279:
.LBB3280:
	.loc 6 98 0
	mr 3,31
	bl _ZdlPv
.LVL173:
.LBE3280:
.LBE3279:
.LBE3278:
.LBE3277:
.LBE3276:
.LBE3275:
.LBE3274:
.LBE3271:
	.loc 1 876 0
	cmpw 7,29,30
	bne+ 7,.L137
.LVL174:
.L128:
.LBB3281:
.LBB3282:
.LBB3283:
	.loc 1 343 0
	lwz 9,0(27)
	mr 3,27
	lwz 0,12(9)
	mtctr 0
.LEHB10:
	bctrl
.LEHE10:
.LBE3283:
.LBE3282:
.LBE3281:
.LBE3288:
	.loc 1 890 0
	lwz 0,36(1)
	lwz 27,12(1)
.LVL175:
	mtlr 0
	lwz 28,16(1)
.LVL176:
	lwz 29,20(1)
.LVL177:
	lwz 30,24(1)
	lwz 31,28(1)
	addi 1,1,32
	.cfi_remember_state
.LCFI41:
	.cfi_def_cfa_offset 0
	.cfi_restore 31
	.cfi_restore 30
	.cfi_restore 29
	.cfi_restore 28
	.cfi_restore 27
	blr
.LVL178:
.L138:
.LCFI42:
	.cfi_restore_state
.LBB3289:
.LBB3284:
.LBB3285:
.LBB3286:
	.loc 1 343 0
	lwz 9,0(27)
	mr 31,3
.LVL179:
	mr 3,27
	lwz 0,12(9)
	mtctr 0
	bctrl
	mr 3,31
.LEHB11:
	bl _Unwind_Resume
.LEHE11:
.LBE3286:
.LBE3285:
.LBE3284:
.LBE3289:
	.cfi_endproc
.LFE2155:
	.section	.gcc_except_table
.LLSDA2155:
	.byte	0xff
	.byte	0xff
	.byte	0x1
	.uleb128 .LLSDACSE2155-.LLSDACSB2155
.LLSDACSB2155:
	.uleb128 .LEHB8-.LFB2155
	.uleb128 .LEHE8-.LEHB8
	.uleb128 0
	.uleb128 0
	.uleb128 .LEHB9-.LFB2155
	.uleb128 .LEHE9-.LEHB9
	.uleb128 .L138-.LFB2155
	.uleb128 0
	.uleb128 .LEHB10-.LFB2155
	.uleb128 .LEHE10-.LEHB10
	.uleb128 0
	.uleb128 0
	.uleb128 .LEHB11-.LFB2155
	.uleb128 .LEHE11-.LEHB11
	.uleb128 0
	.uleb128 0
.LLSDACSE2155:
	.section	.text._ZN7sigslot13_signal_base2IP12UpdateWindowiNS_15single_threadedEE15slot_disconnectEPNS_9has_slotsIS3_EE,"axG",@progbits,_ZN7sigslot13_signal_base2IP12UpdateWindowiNS_15single_threadedEE15slot_disconnectEPNS_9has_slotsIS3_EE,comdat
	.size	_ZN7sigslot13_signal_base2IP12UpdateWindowiNS_15single_threadedEE15slot_disconnectEPNS_9has_slotsIS3_EE, .-_ZN7sigslot13_signal_base2IP12UpdateWindowiNS_15single_threadedEE15slot_disconnectEPNS_9has_slotsIS3_EE
	.section	.text._ZN16SimpleGuiTriggerD2Ev,"axG",@progbits,_ZN16SimpleGuiTriggerD5Ev,comdat
	.align 2
	.weak	_ZN16SimpleGuiTriggerD2Ev
	.type	_ZN16SimpleGuiTriggerD2Ev, @function
_ZN16SimpleGuiTriggerD2Ev:
.LFB2138:
	.file 7 "d:/Projects/SaveGameManager/savegame-manager-gx/trunk/source/Prompts/../GUI/gui_trigger.h"
	.loc 7 91 0
	.cfi_startproc
.LVL180:
	mflr 0
	stwu 1,-8(1)
.LCFI43:
	.cfi_def_cfa_offset 8
	.cfi_register 65, 0
.LBB3291:
	lis 9,_ZTV16SimpleGuiTrigger+8@ha
.LBE3291:
	stw 0,12(1)
.LBB3292:
	.loc 7 91 0
	la 0,_ZTV16SimpleGuiTrigger+8@l(9)
	.cfi_offset 65, 4
	stw 0,0(3)
	bl _ZN10GuiTriggerD2Ev
.LVL181:
.LBE3292:
	lwz 0,12(1)
	addi 1,1,8
.LCFI44:
	.cfi_def_cfa_offset 0
	mtlr 0
	blr
	.cfi_endproc
.LFE2138:
	.size	_ZN16SimpleGuiTriggerD2Ev, .-_ZN16SimpleGuiTriggerD2Ev
	.section	".text"
	.align 2
	.globl _ZN12UpdateWindow6UpdateEP10GuiTrigger
	.type	_ZN12UpdateWindow6UpdateEP10GuiTrigger, @function
_ZN12UpdateWindow6UpdateEP10GuiTrigger:
.LFB1612:
	.loc 4 460 0
	.cfi_startproc
.LVL182:
	stwu 1,-24(1)
.LCFI45:
	.cfi_def_cfa_offset 24
	mflr 0
	stw 30,16(1)
	.loc 4 461 0
	mr. 30,4
	.cfi_offset 30, -8
	.cfi_register 65, 0
	.loc 4 460 0
	stw 31,20(1)
	mr 31,3
	.cfi_offset 31, -4
	stw 0,28(1)
	.loc 4 461 0
	beq- 0,.L142
	.cfi_offset 65, 4
	.loc 4 461 0 is_stmt 0 discriminator 1
	lwz 0,72(3)
	cmpwi 7,0,4
	beq- 7,.L142
	.loc 4 464 0 is_stmt 1
	lwz 3,240(3)
.LVL183:
	cmpwi 7,3,0
	beq- 7,.L144
	.loc 4 466 0
	lwz 9,220(31)
	cmpwi 7,9,360
	addi 0,9,1
	stw 0,220(31)
	bgt- 7,.L146
.L145:
	.loc 4 467 0
	xoris 0,0,0x8000
	lis 9,.LC1@ha
	stw 0,12(1)
	lis 0,0x4330
	stw 0,8(1)
	lfs 0,.LC1@l(9)
	lfd 1,8(1)
	fsub 1,1,0
	frsp 1,1
	bl _ZN8GuiImage8SetAngleEf
.LVL184:
.L144:
	.loc 4 470 0
	mr 3,31
	mr 4,30
	bl _ZN8GuiFrame6UpdateEP10GuiTrigger
.L142:
	.loc 4 471 0
	lwz 0,28(1)
	lwz 30,16(1)
.LVL185:
	mtlr 0
	lwz 31,20(1)
.LVL186:
	addi 1,1,24
	.cfi_remember_state
.LCFI46:
	.cfi_def_cfa_offset 0
	.cfi_restore 31
	.cfi_restore 30
	blr
.LVL187:
.L146:
.LCFI47:
	.cfi_restore_state
	.loc 4 466 0 discriminator 1
	li 0,0
	stw 0,220(31)
	b .L145
	.cfi_endproc
.LFE1612:
	.size	_ZN12UpdateWindow6UpdateEP10GuiTrigger, .-_ZN12UpdateWindow6UpdateEP10GuiTrigger
	.section	.text._ZN16SimpleGuiTriggerD0Ev,"axG",@progbits,_ZN16SimpleGuiTriggerD5Ev,comdat
	.align 2
	.weak	_ZN16SimpleGuiTriggerD0Ev
	.type	_ZN16SimpleGuiTriggerD0Ev, @function
_ZN16SimpleGuiTriggerD0Ev:
.LFB2140:
	.loc 7 91 0
	.cfi_startproc
.LVL188:
	mflr 0
	stwu 1,-16(1)
.LCFI48:
	.cfi_def_cfa_offset 16
	.cfi_register 65, 0
.LBB3296:
.LBB3297:
.LBB3298:
	lis 9,_ZTV16SimpleGuiTrigger+8@ha
.LBE3298:
.LBE3297:
.LBE3296:
	stw 31,12(1)
	mr 31,3
	.cfi_offset 31, -4
.LVL189:
	stw 0,20(1)
.LBB3301:
.LBB3300:
.LBB3299:
	.loc 7 91 0
	la 0,_ZTV16SimpleGuiTrigger+8@l(9)
	.cfi_offset 65, 4
	stw 0,0(3)
	bl _ZN10GuiTriggerD2Ev
.LVL190:
.LBE3299:
.LBE3300:
.LBE3301:
	mr 3,31
	bl _ZdlPv
	lwz 0,20(1)
	lwz 31,12(1)
.LVL191:
	mtlr 0
	addi 1,1,16
.LCFI49:
	.cfi_def_cfa_offset 0
	.cfi_restore 31
	blr
	.cfi_endproc
.LFE2140:
	.size	_ZN16SimpleGuiTriggerD0Ev, .-_ZN16SimpleGuiTriggerD0Ev
	.section	".text"
	.align 2
	.globl _ZN12UpdateWindow11RemoveItemsEv
	.type	_ZN12UpdateWindow11RemoveItemsEv, @function
_ZN12UpdateWindow11RemoveItemsEv:
.LFB1599:
	.loc 4 130 0
	.cfi_startproc
.LVL192:
	mflr 0
	stwu 1,-16(1)
.LCFI50:
	.cfi_def_cfa_offset 16
	.cfi_register 65, 0
	stw 31,12(1)
	mr 31,3
	.cfi_offset 31, -4
	stw 0,20(1)
	stw 30,8(1)
.LBB3302:
.LBB3303:
	.loc 4 134 0
	lwz 3,284(3)
.LVL193:
	cmpwi 7,3,0
	beq- 7,.L151
	.cfi_offset 30, -8
	.cfi_offset 65, 4
	.loc 4 135 0
	lwz 9,0(3)
	lwz 0,4(9)
	mtctr 0
	bctrl
.L151:
	.loc 4 138 0
	lwz 4,300(31)
	.loc 4 136 0
	li 0,0
	stw 0,284(31)
	.loc 4 138 0
	cmpwi 7,4,0
	beq- 7,.L152
	.loc 4 140 0
	mr 3,31
	bl _ZN8GuiFrame6RemoveEP10GuiElement
	.loc 4 141 0
	lwz 3,300(31)
	cmpwi 7,3,0
	beq- 7,.L152
	lwz 9,0(3)
	lwz 0,4(9)
	mtctr 0
	bctrl
.L152:
	.loc 4 134 0
	lwz 3,288(31)
	.loc 4 143 0
	li 0,0
	stw 0,300(31)
.LVL194:
	.loc 4 134 0
	cmpwi 7,3,0
	beq- 7,.L153
	.loc 4 135 0
	lwz 9,0(3)
	lwz 0,4(9)
	mtctr 0
	bctrl
.L153:
	.loc 4 138 0
	lwz 4,304(31)
	.loc 4 136 0
	li 0,0
	stw 0,288(31)
	.loc 4 138 0
	cmpwi 7,4,0
	beq- 7,.L154
	.loc 4 140 0
	mr 3,31
	bl _ZN8GuiFrame6RemoveEP10GuiElement
	.loc 4 141 0
	lwz 3,304(31)
	cmpwi 7,3,0
	beq- 7,.L154
	lwz 9,0(3)
	lwz 0,4(9)
	mtctr 0
	bctrl
.L154:
	.loc 4 134 0
	lwz 3,292(31)
	.loc 4 143 0
	li 0,0
	stw 0,304(31)
.LVL195:
	.loc 4 134 0
	cmpwi 7,3,0
	beq- 7,.L155
	.loc 4 135 0
	lwz 9,0(3)
	lwz 0,4(9)
	mtctr 0
	bctrl
.L155:
	.loc 4 138 0
	lwz 4,308(31)
	.loc 4 136 0
	li 0,0
	stw 0,292(31)
	.loc 4 138 0
	cmpwi 7,4,0
	beq- 7,.L156
	.loc 4 140 0
	mr 3,31
	bl _ZN8GuiFrame6RemoveEP10GuiElement
	.loc 4 141 0
	lwz 3,308(31)
	cmpwi 7,3,0
	beq- 7,.L156
	lwz 9,0(3)
	lwz 0,4(9)
	mtctr 0
	bctrl
.L156:
	.loc 4 134 0
	lwz 3,296(31)
	.loc 4 143 0
	li 0,0
	stw 0,308(31)
.LVL196:
	.loc 4 134 0
	cmpwi 7,3,0
	beq- 7,.L157
	.loc 4 135 0 discriminator 1
	lwz 9,0(3)
	lwz 0,4(9)
	mtctr 0
	bctrl
.L157:
	.loc 4 138 0
	lwz 4,312(31)
	.loc 4 136 0
	li 0,0
	stw 0,296(31)
	.loc 4 138 0
	cmpwi 7,4,0
	beq- 7,.L158
	.loc 4 140 0
	mr 3,31
	bl _ZN8GuiFrame6RemoveEP10GuiElement
	.loc 4 141 0
	lwz 3,312(31)
	cmpwi 7,3,0
	beq- 7,.L158
	.loc 4 141 0 is_stmt 0 discriminator 1
	lwz 9,0(3)
	lwz 0,4(9)
	mtctr 0
	bctrl
.L158:
.LBE3303:
.LBB3304:
.LBB3305:
	.file 8 "d:/Projects/SaveGameManager/savegame-manager-gx/trunk/source/Prompts/ProgressTask.h"
	.loc 8 26 0 is_stmt 1
	lis 30,_ZN12ProgressTask8instanceE@ha
.LBE3305:
.LBE3304:
.LBB3309:
	.loc 4 143 0
	li 0,0
.LBE3309:
.LBB3310:
.LBB3306:
	.loc 8 26 0
	lwz 3,_ZN12ProgressTask8instanceE@l(30)
.LBE3306:
.LBE3310:
.LBB3311:
	.loc 4 143 0
	stw 0,312(31)
.LVL197:
.LBE3311:
.LBB3312:
.LBB3307:
	.loc 8 26 0
	cmpwi 7,3,0
	beq- 7,.L159
	lwz 9,0(3)
	lwz 0,4(9)
	mtctr 0
	bctrl
.L159:
.LBE3307:
.LBE3312:
	.loc 4 149 0
	lwz 4,264(31)
.LBB3313:
.LBB3308:
	.loc 8 26 0
	li 0,0
	stw 0,_ZN12ProgressTask8instanceE@l(30)
.LBE3308:
.LBE3313:
	.loc 4 149 0
	cmpwi 7,4,0
	beq- 7,.L160
	.loc 4 151 0
	mr 3,31
	bl _ZN8GuiFrame6RemoveEP10GuiElement
	.loc 4 152 0
	lwz 3,264(31)
	cmpwi 7,3,0
	beq- 7,.L161
	.loc 4 152 0 is_stmt 0 discriminator 1
	lwz 9,0(3)
	lwz 0,4(9)
	mtctr 0
	bctrl
.L161:
	.loc 4 153 0 is_stmt 1
	li 0,0
	.loc 4 155 0
	lwz 4,260(31)
	.loc 4 153 0
	stw 0,264(31)
	.loc 4 155 0
	mr 3,31
	bl _ZN8GuiFrame6RemoveEP10GuiElement
	.loc 4 156 0
	lwz 3,260(31)
	cmpwi 7,3,0
	beq- 7,.L162
	.loc 4 156 0 is_stmt 0 discriminator 1
	lwz 9,0(3)
	lwz 0,4(9)
	mtctr 0
	bctrl
.L162:
	.loc 4 157 0 is_stmt 1
	li 0,0
	.loc 4 159 0
	lwz 4,256(31)
	.loc 4 157 0
	stw 0,260(31)
	.loc 4 159 0
	mr 3,31
	bl _ZN8GuiFrame6RemoveEP10GuiElement
	.loc 4 160 0
	lwz 3,256(31)
	cmpwi 7,3,0
	beq- 7,.L163
	.loc 4 160 0 is_stmt 0 discriminator 1
	lwz 9,0(3)
	lwz 0,4(9)
	mtctr 0
	bctrl
.L163:
	.loc 4 161 0 is_stmt 1
	li 0,0
	.loc 4 163 0
	lwz 4,268(31)
	.loc 4 161 0
	stw 0,256(31)
	.loc 4 163 0
	mr 3,31
	bl _ZN8GuiFrame6RemoveEP10GuiElement
	.loc 4 164 0
	lwz 3,268(31)
	cmpwi 7,3,0
	beq- 7,.L164
	.loc 4 164 0 is_stmt 0 discriminator 1
	lwz 9,0(3)
	lwz 0,4(9)
	mtctr 0
	bctrl
.L164:
	.loc 4 165 0 is_stmt 1
	li 0,0
	.loc 4 167 0
	lwz 4,272(31)
	.loc 4 165 0
	stw 0,268(31)
	.loc 4 167 0
	mr 3,31
	bl _ZN8GuiFrame6RemoveEP10GuiElement
	.loc 4 168 0
	lwz 3,272(31)
	cmpwi 7,3,0
	beq- 7,.L165
	.loc 4 168 0 is_stmt 0 discriminator 1
	lwz 9,0(3)
	lwz 0,4(9)
	mtctr 0
	bctrl
.L165:
	.loc 4 169 0 is_stmt 1
	li 0,0
	stw 0,272(31)
.L160:
	.loc 4 173 0
	lwz 4,240(31)
	cmpwi 7,4,0
	beq- 7,.L150
	.loc 4 175 0
	mr 3,31
	bl _ZN8GuiFrame6RemoveEP10GuiElement
	.loc 4 176 0
	lwz 3,240(31)
	cmpwi 7,3,0
	beq- 7,.L167
	.loc 4 176 0 is_stmt 0 discriminator 1
	lwz 9,0(3)
	lwz 0,4(9)
	mtctr 0
	bctrl
.L167:
	.loc 4 177 0 is_stmt 1
	li 0,0
.LBB3314:
.LBB3315:
	.file 9 "d:/Projects/SaveGameManager/savegame-manager-gx/trunk/source/Prompts/../GUI/gui_text.h"
	.loc 9 89 0
	lwz 9,280(31)
.LBE3315:
.LBE3314:
	.loc 4 177 0
	stw 0,240(31)
.LVL198:
.LBB3317:
.LBB3316:
	.loc 9 89 0
	li 0,2
	stw 0,200(9)
.LVL199:
.L150:
.LBE3316:
.LBE3317:
.LBE3302:
	.loc 4 181 0
	lwz 0,20(1)
	lwz 30,8(1)
	mtlr 0
	lwz 31,12(1)
.LVL200:
	addi 1,1,16
.LCFI51:
	.cfi_def_cfa_offset 0
	.cfi_restore 31
	.cfi_restore 30
	blr
	.cfi_endproc
.LFE1599:
	.size	_ZN12UpdateWindow11RemoveItemsEv, .-_ZN12UpdateWindow11RemoveItemsEv
	.align 2
	.globl _ZN12UpdateWindow11SetProgressEii
	.type	_ZN12UpdateWindow11SetProgressEii, @function
_ZN12UpdateWindow11SetProgressEii:
.LFB1607:
	.loc 4 357 0
	.cfi_startproc
	.cfi_personality 0,__gxx_personality_v0
	.cfi_lsda 0,.LLSDA1607
.LVL201:
	stwu 1,-64(1)
.LCFI52:
	.cfi_def_cfa_offset 64
	mflr 0
	stw 31,60(1)
	mr 31,3
	.cfi_offset 31, -4
	.cfi_register 65, 0
.LBB3318:
	.loc 4 360 0
	li 3,196
.LVL202:
.LBE3318:
	.loc 4 357 0
	stw 28,48(1)
	stw 29,52(1)
	mr 28,4
	.cfi_offset 29, -12
	.cfi_offset 28, -16
	stw 30,56(1)
	mr 29,5
	stw 0,68(1)
	stw 24,32(1)
	stw 25,36(1)
	stw 26,40(1)
	stw 27,44(1)
.LEHB12:
.LBB3324:
	.loc 4 360 0
	.cfi_offset 27, -20
	.cfi_offset 26, -24
	.cfi_offset 25, -28
	.cfi_offset 24, -32
	.cfi_offset 65, 4
	.cfi_offset 30, -8
	bl _Znwj
.LEHE12:
.LVL203:
	lwz 4,244(31)
	mr 30,3
.LEHB13:
	bl _ZN8GuiImageC1EP12GuiImageData
.LEHE13:
	.loc 4 361 0 discriminator 1
	lwz 9,0(30)
	mr 3,30
	.loc 4 360 0 discriminator 1
	stw 30,256(31)
	.loc 4 361 0 discriminator 1
	li 4,34
	lwz 0,180(9)
	mtctr 0
.LEHB14:
	bctrl
	.loc 4 362 0 discriminator 1
	lwz 3,256(31)
	li 4,0
	li 5,20
	lwz 9,0(3)
	lwz 0,168(9)
	mtctr 0
	bctrl
	.loc 4 364 0 discriminator 1
	li 3,196
	bl _Znwj
.LEHE14:
	lwz 4,248(31)
	mr 30,3
.LEHB15:
	bl _ZN8GuiImageC1EP12GuiImageData
.LEHE15:
	.loc 4 365 0 discriminator 1
	lwz 9,0(30)
	li 4,34
	.loc 4 364 0 discriminator 1
	stw 30,260(31)
	.loc 4 365 0 discriminator 1
	mr 3,30
	lwz 0,180(9)
	mtctr 0
.LEHB16:
	bctrl
	.loc 4 366 0 discriminator 1
	lwz 3,256(31)
	lwz 27,260(31)
	lwz 9,0(3)
	lwz 0,36(9)
	lwz 9,0(27)
	mtctr 0
	lwz 30,168(9)
	bctrl
	mtctr 30
	srawi 4,3,1
	addze 4,4
	li 5,20
	mr 3,27
	subfic 4,4,2
	bctrl
	.loc 4 367 0 discriminator 1
	lwz 3,260(31)
	li 4,100
	bl _ZN8GuiImage17SetTileHorizontalEi
	.loc 4 369 0 discriminator 1
	li 3,196
	bl _Znwj
.LEHE16:
	lwz 4,252(31)
	mr 30,3
.LEHB17:
	bl _ZN8GuiImageC1EP12GuiImageData
.LEHE17:
	.loc 4 370 0 discriminator 1
	lwz 9,0(30)
	li 4,34
	.loc 4 369 0 discriminator 1
	stw 30,264(31)
	.loc 4 370 0 discriminator 1
	mr 3,30
	lwz 0,180(9)
	mtctr 0
.LEHB18:
	bctrl
	.loc 4 371 0 discriminator 1
	lwz 3,256(31)
	lwz 27,264(31)
	lwz 9,0(3)
	lwz 0,36(9)
	lwz 9,0(27)
	mtctr 0
	lwz 30,168(9)
	bctrl
	li 5,20
	srawi 4,3,1
	addze 4,4
	mtctr 30
	subfic 4,4,2
	mr 3,27
	bctrl
	.loc 4 372 0 discriminator 1
	mulli 4,28,100
	lwz 3,264(31)
	divw 4,4,29
.LBB3319:
	.loc 4 375 0 discriminator 1
	xoris 29,29,0x8000
.LVL204:
.LBE3319:
	.loc 4 372 0 discriminator 1
	bl _ZN8GuiImage17SetTileHorizontalEi
.LBB3322:
	.loc 4 375 0 discriminator 1
	lis 0,0x4330
	stw 29,12(1)
	lis 9,.LC1@ha
	stw 0,8(1)
	lfs 13,.LC1@l(9)
	lis 9,.LC9@ha
	lfd 0,8(1)
	lfs 1,.LC9@l(9)
	fsub 0,0,13
	frsp 0,0
	fcmpu 7,0,1
	bng- 7,.L169
.LBB3320:
	.loc 4 376 0
	xoris 28,28,0x8000
.LVL205:
	stw 0,16(1)
	stw 28,20(1)
	lis 9,.LC4@ha
	lfs 12,.LC4@l(9)
	lfd 11,16(1)
	fsub 13,11,13
	frsp 13,13
	fmuls 13,13,12
	fdivs 0,13,0
.LVL206:
	fcmpu 7,0,1
	bnl- 7,.L191
.LVL207:
.L169:
.LBE3320:
.LBE3322:
	.loc 4 380 0
	lis 3,.LC5@ha
	lis 27,.LC6@ha
	la 3,.LC5@l(3)
	la 27,.LC6@l(27)
	creqv 6,6,6
	bl _Z3fmtPKcz
.LVL208:
	lis 28,.LC7@ha
	mr 25,3
	mr 3,27
	bl getThemeInt
	la 28,.LC7@l(28)
	mr 26,3
	mr 3,28
	bl getThemeColor
	mr 30,1
	mr 24,3
	li 3,208
	bl _Znwj
.LEHE18:
	stwu 24,24(30)
	mr 4,25
	mr 5,26
	mr 6,30
	mr 29,3
.LVL209:
.LEHB19:
	bl _ZN7GuiTextC1EPKci9_gx_color
.LEHE19:
	.loc 4 381 0 discriminator 1
	lwz 9,0(29)
	mr 3,29
	.loc 4 380 0 discriminator 1
	stw 29,268(31)
	.loc 4 381 0 discriminator 1
	li 4,33
	lwz 0,180(9)
	mtctr 0
.LEHB20:
	bctrl
	.loc 4 382 0 discriminator 1
	lwz 3,268(31)
	li 4,210
	li 5,20
	lwz 9,0(3)
	lwz 0,168(9)
	mtctr 0
	bctrl
	.loc 4 384 0 discriminator 1
	mr 3,27
	bl getThemeInt
	mr 27,3
	mr 3,28
	bl getThemeColor
	mr 28,3
	li 3,208
	bl _Znwj
.LEHE20:
	lis 4,.LC8@ha
	la 4,.LC8@l(4)
	mr 5,27
	mr 6,30
	mr 29,3
	stw 28,24(1)
.LEHB21:
	bl _ZN7GuiTextC1EPKci9_gx_color
.LEHE21:
	.loc 4 385 0 discriminator 1
	lwz 9,0(29)
	li 4,33
	.loc 4 384 0 discriminator 1
	stw 29,272(31)
	.loc 4 385 0 discriminator 1
	mr 3,29
	lwz 0,180(9)
	mtctr 0
.LEHB22:
	bctrl
	.loc 4 386 0 discriminator 1
	lwz 3,268(31)
	lwz 30,272(31)
	lwz 9,0(3)
	lwz 0,16(9)
	lwz 9,0(30)
	mtctr 0
	lwz 29,168(9)
	bctrl
	mr 28,3
	lwz 3,268(31)
	bl _ZN7GuiText12GetTextWidthEv
	mtctr 29
	add 3,28,3
	li 5,20
	addi 4,3,5
	mr 3,30
	bctrl
	.loc 4 388 0 discriminator 1
	lwz 4,260(31)
	mr 3,31
	bl _ZN8GuiFrame6AppendEP10GuiElement
	.loc 4 389 0 discriminator 1
	lwz 4,264(31)
	mr 3,31
	bl _ZN8GuiFrame6AppendEP10GuiElement
	.loc 4 390 0 discriminator 1
	lwz 4,256(31)
	mr 3,31
	bl _ZN8GuiFrame6AppendEP10GuiElement
	.loc 4 391 0 discriminator 1
	lwz 4,268(31)
	mr 3,31
	bl _ZN8GuiFrame6AppendEP10GuiElement
	.loc 4 392 0 discriminator 1
	lwz 4,272(31)
	mr 3,31
	bl _ZN8GuiFrame6AppendEP10GuiElement
.LBE3324:
	.loc 4 393 0 discriminator 1
	lwz 0,68(1)
	lwz 24,32(1)
	mtlr 0
	lwz 25,36(1)
	lwz 26,40(1)
	lwz 27,44(1)
	lwz 28,48(1)
	lwz 29,52(1)
	lwz 30,56(1)
	lwz 31,60(1)
.LVL210:
	addi 1,1,64
	.cfi_remember_state
.LCFI53:
	.cfi_def_cfa_offset 0
	.cfi_restore 31
	.cfi_restore 30
	.cfi_restore 29
	.cfi_restore 28
	.cfi_restore 27
	.cfi_restore 26
	.cfi_restore 25
	.cfi_restore 24
	blr
.LVL211:
.L191:
.LCFI54:
	.cfi_restore_state
.LBB3325:
.LBB3323:
.LBB3321:
	.loc 4 376 0 discriminator 2
	fcmpu 7,0,12
	fmr 1,12
	bgt- 7,.L169
	.loc 4 376 0 is_stmt 0
	fmr 1,0
	b .L169
.LVL212:
.L183:
.L190:
	mr 31,3
.LVL213:
.LBE3321:
.LBE3323:
	.loc 4 384 0 is_stmt 1
	mr 3,29
	bl _ZdlPv
	mr 3,31
	bl _Unwind_Resume
.LVL214:
.L182:
.L189:
	mr 31,3
.LVL215:
	.loc 4 364 0
	mr 3,30
	bl _ZdlPv
	mr 3,31
	bl _Unwind_Resume
.LEHE22:
.LVL216:
.L181:
	b .L189
.L180:
	b .L189
.LVL217:
.L184:
	b .L190
.LBE3325:
	.cfi_endproc
.LFE1607:
	.section	.gcc_except_table
.LLSDA1607:
	.byte	0xff
	.byte	0xff
	.byte	0x1
	.uleb128 .LLSDACSE1607-.LLSDACSB1607
.LLSDACSB1607:
	.uleb128 .LEHB12-.LFB1607
	.uleb128 .LEHE12-.LEHB12
	.uleb128 0
	.uleb128 0
	.uleb128 .LEHB13-.LFB1607
	.uleb128 .LEHE13-.LEHB13
	.uleb128 .L180-.LFB1607
	.uleb128 0
	.uleb128 .LEHB14-.LFB1607
	.uleb128 .LEHE14-.LEHB14
	.uleb128 0
	.uleb128 0
	.uleb128 .LEHB15-.LFB1607
	.uleb128 .LEHE15-.LEHB15
	.uleb128 .L181-.LFB1607
	.uleb128 0
	.uleb128 .LEHB16-.LFB1607
	.uleb128 .LEHE16-.LEHB16
	.uleb128 0
	.uleb128 0
	.uleb128 .LEHB17-.LFB1607
	.uleb128 .LEHE17-.LEHB17
	.uleb128 .L182-.LFB1607
	.uleb128 0
	.uleb128 .LEHB18-.LFB1607
	.uleb128 .LEHE18-.LEHB18
	.uleb128 0
	.uleb128 0
	.uleb128 .LEHB19-.LFB1607
	.uleb128 .LEHE19-.LEHB19
	.uleb128 .L183-.LFB1607
	.uleb128 0
	.uleb128 .LEHB20-.LFB1607
	.uleb128 .LEHE20-.LEHB20
	.uleb128 0
	.uleb128 0
	.uleb128 .LEHB21-.LFB1607
	.uleb128 .LEHE21-.LEHB21
	.uleb128 .L184-.LFB1607
	.uleb128 0
	.uleb128 .LEHB22-.LFB1607
	.uleb128 .LEHE22-.LEHB22
	.uleb128 0
	.uleb128 0
.LLSDACSE1607:
	.section	".text"
	.size	_ZN12UpdateWindow11SetProgressEii, .-_ZN12UpdateWindow11SetProgressEii
	.align 2
	.globl _ZN12UpdateWindow9GetChoiceEv
	.type	_ZN12UpdateWindow9GetChoiceEv, @function
_ZN12UpdateWindow9GetChoiceEv:
.LFB1609:
	.loc 4 417 0
	.cfi_startproc
.LVL218:
	.loc 4 417 0
	mr 9,3
.LBB3326:
	.loc 4 419 0
	li 0,0
	.loc 4 418 0
	lwz 3,216(3)
.LVL219:
	.loc 4 419 0
	stw 0,216(9)
.LBE3326:
	.loc 4 421 0
	blr
	.cfi_endproc
.LFE1609:
	.size	_ZN12UpdateWindow9GetChoiceEv, .-_ZN12UpdateWindow9GetChoiceEv
	.align 2
	.globl _ZN12UpdateWindow16ProgressCanceledEv
	.type	_ZN12UpdateWindow16ProgressCanceledEv, @function
_ZN12UpdateWindow16ProgressCanceledEv:
.LFB1610:
	.loc 4 424 0
	.cfi_startproc
.LVL220:
	.loc 4 424 0
	mr 9,3
.LBB3327:
	.loc 4 425 0
	lwz 3,216(3)
.LVL221:
	.loc 4 426 0
	li 0,0
.LBE3327:
	.loc 4 428 0
	addi 3,3,12345
.LBB3328:
	.loc 4 426 0
	stw 0,216(9)
.LBE3328:
	.loc 4 428 0
	cntlzw 3,3
	srwi 3,3,5
	blr
	.cfi_endproc
.LFE1610:
	.size	_ZN12UpdateWindow16ProgressCanceledEv, .-_ZN12UpdateWindow16ProgressCanceledEv
	.section	.text._ZNSt6vectorIP10GuiElementSaIS1_EE13_M_insert_auxEN9__gnu_cxx17__normal_iteratorIPS1_S3_EERKS1_,"axG",@progbits,_ZNSt6vectorIP10GuiElementSaIS1_EE13_M_insert_auxEN9__gnu_cxx17__normal_iteratorIPS1_S3_EERKS1_,comdat
	.align 2
	.weak	_ZNSt6vectorIP10GuiElementSaIS1_EE13_M_insert_auxEN9__gnu_cxx17__normal_iteratorIPS1_S3_EERKS1_
	.type	_ZNSt6vectorIP10GuiElementSaIS1_EE13_M_insert_auxEN9__gnu_cxx17__normal_iteratorIPS1_S3_EERKS1_, @function
_ZNSt6vectorIP10GuiElementSaIS1_EE13_M_insert_auxEN9__gnu_cxx17__normal_iteratorIPS1_S3_EERKS1_:
.LFB1715:
	.file 10 "d:\\devkitpro\\devkitppc\\bin\\../lib/gcc/powerpc-eabi/4.6.3/../../../../powerpc-eabi/include/c++/4.6.3/bits/vector.tcc"
	.loc 10 300 0
	.cfi_startproc
.LVL222:
	mflr 0
	stwu 1,-40(1)
.LCFI55:
	.cfi_def_cfa_offset 40
	.cfi_register 65, 0
	stw 27,20(1)
	stw 0,44(1)
	stw 30,32(1)
.LBB3391:
	.loc 10 304 0
	lwz 27,4(3)
	.cfi_offset 30, -8
	.cfi_offset 65, 4
	.cfi_offset 27, -20
	lwz 0,8(3)
.LBE3391:
	.loc 10 300 0
	stw 31,36(1)
	mr 31,3
	.cfi_offset 31, -4
.LBB3516:
	.loc 10 304 0
	cmpw 7,27,0
.LBE3516:
	.loc 10 300 0
	stw 26,16(1)
	stw 28,24(1)
	stw 29,28(1)
	.loc 10 300 0
	lwz 30,0(4)
.LVL223:
.LBB3517:
	.loc 10 304 0
	beq- 7,.L195
	.cfi_offset 29, -12
	.cfi_offset 28, -16
	.cfi_offset 26, -24
.LVL224:
.LBB3392:
.LBB3393:
.LBB3394:
	.loc 6 108 0
	cmpwi 7,27,0
	li 3,0
.LVL225:
	beq- 7,.L196
	lwz 0,-4(27)
	stw 0,0(27)
	lwz 3,4(31)
.L196:
.LBE3394:
.LBE3393:
	.loc 10 313 0
	addi 0,3,-4
	.loc 10 309 0
	addi 9,3,4
.LBB3395:
.LBB3396:
.LBB3397:
.LBB3398:
.LBB3399:
.LBB3400:
	.file 11 "d:\\devkitpro\\devkitppc\\bin\\../lib/gcc/powerpc-eabi/4.6.3/../../../../powerpc-eabi/include/c++/4.6.3/bits/stl_algobase.h"
	.loc 11 559 0
	subf 0,30,0
.LBE3400:
.LBE3399:
.LBE3398:
.LBE3397:
.LBE3396:
.LBE3395:
	.loc 10 309 0
	stw 9,4(31)
.LBB3416:
.LBB3413:
.LBB3410:
.LBB3407:
.LBB3404:
.LBB3401:
	.loc 11 560 0
	srawi. 0,0,2
.LBE3401:
.LBE3404:
.LBE3407:
.LBE3410:
.LBE3413:
.LBE3416:
	.loc 10 311 0
	lwz 31,0(5)
.LVL226:
.LBB3417:
.LBB3414:
.LBB3411:
.LBB3408:
.LBB3405:
.LBB3402:
	.loc 11 560 0
	bne- 0,.L211
.LVL227:
.L197:
.LBE3402:
.LBE3405:
.LBE3408:
.LBE3411:
.LBE3414:
.LBE3417:
.LBE3392:
.LBE3517:
	.loc 10 373 0
	lwz 0,44(1)
.LBB3518:
.LBB3419:
	.loc 10 317 0
	stw 31,0(30)
.LBE3419:
.LBE3518:
	.loc 10 373 0
	mtlr 0
	lwz 26,16(1)
	lwz 27,20(1)
.LVL228:
	lwz 28,24(1)
	lwz 29,28(1)
	lwz 30,32(1)
.LVL229:
	lwz 31,36(1)
.LVL230:
	addi 1,1,40
	.cfi_remember_state
.LCFI56:
	.cfi_def_cfa_offset 0
	.cfi_restore 31
	.cfi_restore 30
	.cfi_restore 29
	.cfi_restore 28
	.cfi_restore 27
	.cfi_restore 26
	blr
.LVL231:
.L211:
.LCFI57:
	.cfi_restore_state
.LBB3519:
.LBB3420:
.LBB3418:
.LBB3415:
.LBB3412:
.LBB3409:
.LBB3406:
.LBB3403:
	.loc 11 561 0
	slwi 5,0,2
.LVL232:
	mr 4,30
	subf 3,5,3
.LVL233:
	bl memmove
.LVL234:
	b .L197
.LVL235:
.L195:
.LBE3403:
.LBE3406:
.LBE3409:
.LBE3412:
.LBE3415:
.LBE3418:
.LBE3420:
.LBB3421:
.LBB3422:
.LBB3423:
.LBB3424:
.LBB3425:
	.file 12 "d:\\devkitpro\\devkitppc\\bin\\../lib/gcc/powerpc-eabi/4.6.3/../../../../powerpc-eabi/include/c++/4.6.3/bits/stl_vector.h"
	.loc 12 571 0
	lwz 28,0(3)
	subf 27,28,27
.LBE3425:
.LBE3424:
.LBB3426:
.LBB3427:
	.loc 11 215 0
	srawi. 27,27,2
	beq- 0,.L199
.LBE3427:
.LBE3426:
	.loc 12 1244 0
	slwi 0,27,1
.LVL236:
	.loc 12 1245 0
	cmplw 7,27,0
	ble- 7,.L212
.L200:
.LVL237:
.LBE3423:
.LBE3422:
.LBB3430:
.LBB3431:
	.file 13 "d:\\devkitpro\\devkitppc\\bin\\../lib/gcc/powerpc-eabi/4.6.3/../../../../powerpc-eabi/include/c++/4.6.3/bits/stl_iterator.h"
	.loc 13 892 0
	subf 28,28,30
.LBE3431:
.LBE3430:
	.loc 10 326 0
	li 27,-4
.LBB3437:
.LBB3432:
	.loc 13 892 0
	srawi 28,28,2
.LVL238:
.L206:
.LBE3432:
.LBE3437:
.LBB3438:
.LBB3439:
.LBB3440:
.LBB3441:
	.loc 6 92 0
	mr 3,27
.LVL239:
	stw 5,8(1)
	bl _Znwj
.LVL240:
	lwz 5,8(1)
	mr 29,3
.L201:
.LVL241:
.LBE3441:
.LBE3440:
.LBE3439:
.LBE3438:
	.loc 10 335 0
	slwi 28,28,2
.LVL242:
	add 0,29,28
.LVL243:
.LBB3444:
.LBB3445:
	.loc 6 108 0
	cmpwi 7,0,0
	beq- 7,.L202
	lwz 0,0(5)
.LVL244:
	stwx 0,29,28
.L202:
.LVL245:
.LBE3445:
.LBE3444:
	.loc 10 343 0
	lwz 4,0(31)
.LVL246:
.LBB3446:
.LBB3447:
.LBB3448:
.LBB3449:
.LBB3450:
.LBB3451:
.LBB3452:
.LBB3453:
.LBB3454:
.LBB3455:
.LBB3456:
	.loc 11 365 0
	li 28,0
	.loc 11 364 0
	subf 0,4,30
.LVL247:
	.loc 11 365 0
	srawi. 0,0,2
.LVL248:
	beq+ 0,.L203
	.loc 11 366 0
	slwi 28,0,2
	mr 3,29
	mr 5,28
.LVL249:
	bl memmove
.LVL250:
.L203:
.LBE3456:
.LBE3455:
.LBE3454:
.LBE3453:
.LBE3452:
.LBE3451:
.LBE3450:
.LBE3449:
.LBE3448:
.LBE3447:
.LBE3446:
.LBB3467:
.LBB3468:
.LBB3469:
.LBB3470:
.LBB3471:
.LBB3472:
.LBB3473:
.LBB3474:
.LBB3475:
.LBB3476:
.LBB3477:
	.loc 11 364 0
	lwz 0,4(31)
.LBE3477:
.LBE3476:
.LBE3475:
.LBE3474:
.LBE3473:
.LBE3472:
.LBE3471:
.LBE3470:
.LBE3469:
.LBE3468:
.LBE3467:
.LBB3498:
.LBB3466:
.LBB3465:
.LBB3464:
.LBB3463:
.LBB3462:
.LBB3461:
.LBB3460:
.LBB3459:
.LBB3458:
.LBB3457:
	.loc 11 367 0
	add 28,29,28
.LVL251:
.LBE3457:
.LBE3458:
.LBE3459:
.LBE3460:
.LBE3461:
.LBE3462:
.LBE3463:
.LBE3464:
.LBE3465:
.LBE3466:
.LBE3498:
	.loc 10 347 0
	addi 26,28,4
.LBB3499:
.LBB3496:
.LBB3494:
.LBB3492:
.LBB3490:
.LBB3488:
.LBB3486:
.LBB3484:
.LBB3482:
.LBB3480:
.LBB3478:
	.loc 11 365 0
	li 28,0
	.loc 11 364 0
	subf 0,30,0
.LVL252:
	.loc 11 365 0
	srawi. 0,0,2
.LVL253:
	beq+ 0,.L204
	.loc 11 366 0
	slwi 28,0,2
	mr 3,26
	mr 4,30
	mr 5,28
	bl memmove
.LVL254:
.L204:
.LBE3478:
.LBE3480:
.LBE3482:
.LBE3484:
.LBE3486:
.LBE3488:
.LBE3490:
.LBE3492:
.LBE3494:
.LBE3496:
.LBE3499:
	.loc 10 366 0
	lwz 3,0(31)
.LBB3500:
.LBB3497:
.LBB3495:
.LBB3493:
.LBB3491:
.LBB3489:
.LBB3487:
.LBB3485:
.LBB3483:
.LBB3481:
.LBB3479:
	.loc 11 367 0
	add 28,26,28
.LVL255:
.LBE3479:
.LBE3481:
.LBE3483:
.LBE3485:
.LBE3487:
.LBE3489:
.LBE3491:
.LBE3493:
.LBE3495:
.LBE3497:
.LBE3500:
.LBB3501:
.LBB3502:
	.loc 12 155 0
	cmpwi 7,3,0
	beq- 7,.L205
.LVL256:
.LBB3503:
.LBB3504:
	.loc 6 98 0
	bl _ZdlPv
.LVL257:
.L205:
.LBE3504:
.LBE3503:
.LBE3502:
.LBE3501:
.LBE3421:
.LBE3519:
	.loc 10 373 0
	lwz 0,44(1)
.LBB3520:
.LBB3513:
	.loc 10 371 0
	add 27,29,27
	.loc 10 369 0
	stw 29,0(31)
.LBE3513:
.LBE3520:
	.loc 10 373 0
	mtlr 0
.LBB3521:
.LBB3514:
	.loc 10 370 0
	stw 28,4(31)
	.loc 10 371 0
	stw 27,8(31)
.LBE3514:
.LBE3521:
	.loc 10 373 0
	lwz 26,16(1)
.LVL258:
	lwz 27,20(1)
	lwz 28,24(1)
	lwz 29,28(1)
.LVL259:
	lwz 30,32(1)
.LVL260:
	lwz 31,36(1)
.LVL261:
	addi 1,1,40
	.cfi_remember_state
	.cfi_restore 26
	.cfi_restore 27
	.cfi_restore 28
	.cfi_restore 29
	.cfi_restore 30
	.cfi_restore 31
.LCFI58:
	.cfi_def_cfa_offset 0
	blr
.LVL262:
.L199:
.LCFI59:
	.cfi_restore_state
.LBB3522:
.LBB3515:
.LBB3505:
.LBB3433:
	.loc 13 892 0
	subf 28,28,30
.LBE3433:
.LBE3505:
	.loc 10 326 0
	li 27,4
.LBB3506:
.LBB3434:
	.loc 13 892 0
	srawi 28,28,2
.LVL263:
	b .L206
.LVL264:
.L212:
.LBE3434:
.LBE3506:
.LBB3507:
.LBB3428:
	.loc 12 1245 0
	lis 9,0x3fff
	ori 9,9,65535
	cmplw 7,0,9
	bgt+ 7,.L200
.LBE3428:
.LBE3507:
.LBB3508:
.LBB3442:
	.loc 12 150 0
	cmpwi 7,0,0
.LBE3442:
.LBE3508:
.LBB3509:
.LBB3435:
	.loc 13 892 0
	subf 28,28,30
.LBE3435:
.LBE3509:
.LBB3510:
.LBB3429:
	.loc 12 1245 0
	slwi 27,27,3
.LVL265:
.LBE3429:
.LBE3510:
.LBB3511:
.LBB3436:
	.loc 13 892 0
	srawi 28,28,2
.LVL266:
.LBE3436:
.LBE3511:
.LBB3512:
.LBB3443:
	.loc 12 150 0
	li 29,0
	beq+ 7,.L201
	b .L206
.LBE3443:
.LBE3512:
.LBE3515:
.LBE3522:
	.cfi_endproc
.LFE1715:
	.size	_ZNSt6vectorIP10GuiElementSaIS1_EE13_M_insert_auxEN9__gnu_cxx17__normal_iteratorIPS1_S3_EERKS1_, .-_ZNSt6vectorIP10GuiElementSaIS1_EE13_M_insert_auxEN9__gnu_cxx17__normal_iteratorIPS1_S3_EERKS1_
	.section	.text._ZNSt8_Rb_treeIPN7sigslot12_signal_baseINS0_15single_threadedEEES4_St9_IdentityIS4_ESt4lessIS4_ESaIS4_EE8_M_eraseEPSt13_Rb_tree_nodeIS4_E,"axG",@progbits,_ZNSt8_Rb_treeIPN7sigslot12_signal_baseINS0_15single_threadedEEES4_St9_IdentityIS4_ESt4lessIS4_ESaIS4_EE8_M_eraseEPSt13_Rb_tree_nodeIS4_E,comdat
	.align 2
	.weak	_ZNSt8_Rb_treeIPN7sigslot12_signal_baseINS0_15single_threadedEEES4_St9_IdentityIS4_ESt4lessIS4_ESaIS4_EE8_M_eraseEPSt13_Rb_tree_nodeIS4_E
	.type	_ZNSt8_Rb_treeIPN7sigslot12_signal_baseINS0_15single_threadedEEES4_St9_IdentityIS4_ESt4lessIS4_ESaIS4_EE8_M_eraseEPSt13_Rb_tree_nodeIS4_E, @function
_ZNSt8_Rb_treeIPN7sigslot12_signal_baseINS0_15single_threadedEEES4_St9_IdentityIS4_ESt4lessIS4_ESaIS4_EE8_M_eraseEPSt13_Rb_tree_nodeIS4_E:
.LFB1810:
	.file 14 "d:\\devkitpro\\devkitppc\\bin\\../lib/gcc/powerpc-eabi/4.6.3/../../../../powerpc-eabi/include/c++/4.6.3/bits/stl_tree.h"
	.loc 14 1068 0
	.cfi_startproc
.LVL267:
	stwu 1,-56(1)
.LCFI60:
	.cfi_def_cfa_offset 56
	mflr 0
	stw 22,16(1)
.LBB3639:
	.loc 14 1072 0
	mr. 22,4
	.cfi_offset 22, -40
	.cfi_register 65, 0
.LBE3639:
	.loc 14 1068 0
	stw 30,48(1)
	mr 30,3
	.cfi_offset 30, -8
	stw 0,60(1)
	stw 21,12(1)
	stw 23,20(1)
	stw 24,24(1)
	stw 25,28(1)
	stw 26,32(1)
	stw 27,36(1)
	stw 28,40(1)
	stw 29,44(1)
	stw 31,52(1)
.LBB3724:
	.loc 14 1072 0
	beq- 0,.L213
	.cfi_offset 31, -4
	.cfi_offset 29, -12
	.cfi_offset 28, -16
	.cfi_offset 27, -20
	.cfi_offset 26, -24
	.cfi_offset 25, -28
	.cfi_offset 24, -32
	.cfi_offset 23, -36
	.cfi_offset 21, -44
	.cfi_offset 65, 4
.LVL268:
.L259:
	.loc 4 471 0
	lwz 27,12(22)
.LVL269:
.LBB3640:
.LBB3641:
.LBB3642:
	.loc 14 1072 0
	cmpwi 7,27,0
	beq- 7,.L215
.LVL270:
.L260:
.LBE3642:
	.loc 4 471 0
	lwz 26,12(27)
.LVL271:
.LBB3718:
.LBB3643:
.LBB3644:
.LBB3645:
	.loc 14 1072 0
	cmpwi 7,26,0
	beq- 7,.L216
.LVL272:
.L261:
.LBE3645:
	.loc 4 471 0
	lwz 25,12(26)
.LVL273:
.LBB3711:
.LBB3646:
.LBB3647:
.LBB3648:
	.loc 14 1072 0
	cmpwi 7,25,0
	beq- 7,.L217
.LVL274:
.L262:
.LBE3648:
	.loc 4 471 0
	lwz 24,12(25)
.LVL275:
.LBB3704:
.LBB3649:
.LBB3650:
.LBB3651:
	.loc 14 1072 0
	cmpwi 7,24,0
	beq- 7,.L218
.LVL276:
.L263:
.LBE3651:
	.loc 4 471 0
	lwz 23,12(24)
.LVL277:
.LBB3697:
.LBB3652:
.LBB3653:
.LBB3654:
	.loc 14 1072 0
	cmpwi 7,23,0
	beq- 7,.L219
.LVL278:
.L264:
.LBE3654:
	.loc 4 471 0
	lwz 28,12(23)
.LVL279:
.LBB3690:
.LBB3655:
.LBB3656:
.LBB3657:
	.loc 14 1072 0
	cmpwi 7,28,0
	beq- 7,.L220
.LVL280:
.L265:
.LBE3657:
	.loc 4 471 0
	lwz 29,12(28)
.LVL281:
.LBB3683:
.LBB3658:
.LBB3659:
.LBB3660:
	.loc 14 1072 0
	cmpwi 7,29,0
	beq- 7,.L221
.LVL282:
.L266:
.LBE3660:
	.loc 4 471 0
	lwz 31,12(29)
.LVL283:
.LBB3676:
.LBB3661:
.LBB3662:
.LBB3663:
	.loc 14 1072 0
	cmpwi 7,31,0
	beq- 7,.L222
.LVL284:
.L267:
.LBB3664:
	.loc 14 1074 0
	lwz 4,12(31)
	mr 3,30
	bl _ZNSt8_Rb_treeIPN7sigslot12_signal_baseINS0_15single_threadedEEES4_St9_IdentityIS4_ESt4lessIS4_ESaIS4_EE8_M_eraseEPSt13_Rb_tree_nodeIS4_E
.LBE3664:
.LBE3663:
	.loc 4 471 0
	lwz 21,8(31)
.LVL285:
.LBB3670:
.LBB3669:
.LBB3665:
.LBB3666:
.LBB3667:
.LBB3668:
	.loc 6 98 0
	mr 3,31
	bl _ZdlPv
.LVL286:
.LBE3668:
.LBE3667:
.LBE3666:
.LBE3665:
.LBE3669:
	.loc 14 1072 0
	cmpwi 7,21,0
	.loc 14 1077 0
	mr 31,21
.LVL287:
	.loc 14 1072 0
	bne+ 7,.L267
.LVL288:
.L222:
.LBE3670:
.LBE3662:
.LBE3661:
.LBE3676:
	.loc 4 471 0
	lwz 31,8(29)
.LVL289:
.LBB3677:
.LBB3675:
.LBB3671:
.LBB3672:
.LBB3673:
.LBB3674:
	.loc 6 98 0
	mr 3,29
	bl _ZdlPv
.LVL290:
.LBE3674:
.LBE3673:
.LBE3672:
.LBE3671:
.LBE3675:
	.loc 14 1072 0
	cmpwi 7,31,0
	beq- 7,.L221
	.loc 14 1077 0
	mr 29,31
.LVL291:
	b .L266
.LVL292:
.L221:
.LBE3677:
.LBE3659:
.LBE3658:
.LBE3683:
	.loc 4 471 0
	lwz 31,8(28)
.LVL293:
.LBB3684:
.LBB3682:
.LBB3678:
.LBB3679:
.LBB3680:
.LBB3681:
	.loc 6 98 0
	mr 3,28
	bl _ZdlPv
.LVL294:
.LBE3681:
.LBE3680:
.LBE3679:
.LBE3678:
.LBE3682:
	.loc 14 1072 0
	cmpwi 7,31,0
	beq- 7,.L220
	.loc 14 1077 0
	mr 28,31
.LVL295:
	b .L265
.LVL296:
.L220:
.LBE3684:
.LBE3656:
.LBE3655:
.LBE3690:
	.loc 4 471 0
	lwz 31,8(23)
.LVL297:
.LBB3691:
.LBB3689:
.LBB3685:
.LBB3686:
.LBB3687:
.LBB3688:
	.loc 6 98 0
	mr 3,23
	bl _ZdlPv
.LVL298:
.LBE3688:
.LBE3687:
.LBE3686:
.LBE3685:
.LBE3689:
	.loc 14 1072 0
	cmpwi 7,31,0
	beq- 7,.L219
	.loc 14 1077 0
	mr 23,31
.LVL299:
	b .L264
.LVL300:
.L219:
.LBE3691:
.LBE3653:
.LBE3652:
.LBE3697:
	.loc 4 471 0
	lwz 31,8(24)
.LVL301:
.LBB3698:
.LBB3696:
.LBB3692:
.LBB3693:
.LBB3694:
.LBB3695:
	.loc 6 98 0
	mr 3,24
	bl _ZdlPv
.LVL302:
.LBE3695:
.LBE3694:
.LBE3693:
.LBE3692:
.LBE3696:
	.loc 14 1072 0
	cmpwi 7,31,0
	beq- 7,.L218
	.loc 14 1077 0
	mr 24,31
.LVL303:
	b .L263
.LVL304:
.L218:
.LBE3698:
.LBE3650:
.LBE3649:
.LBE3704:
	.loc 4 471 0
	lwz 31,8(25)
.LVL305:
.LBB3705:
.LBB3703:
.LBB3699:
.LBB3700:
.LBB3701:
.LBB3702:
	.loc 6 98 0
	mr 3,25
	bl _ZdlPv
.LVL306:
.LBE3702:
.LBE3701:
.LBE3700:
.LBE3699:
.LBE3703:
	.loc 14 1072 0
	cmpwi 7,31,0
	beq- 7,.L217
	.loc 14 1077 0
	mr 25,31
.LVL307:
	b .L262
.LVL308:
.L217:
.LBE3705:
.LBE3647:
.LBE3646:
.LBE3711:
	.loc 4 471 0
	lwz 31,8(26)
.LVL309:
.LBB3712:
.LBB3710:
.LBB3706:
.LBB3707:
.LBB3708:
.LBB3709:
	.loc 6 98 0
	mr 3,26
	bl _ZdlPv
.LVL310:
.LBE3709:
.LBE3708:
.LBE3707:
.LBE3706:
.LBE3710:
	.loc 14 1072 0
	cmpwi 7,31,0
	beq- 7,.L216
	.loc 14 1077 0
	mr 26,31
.LVL311:
	b .L261
.LVL312:
.L216:
.LBE3712:
.LBE3644:
.LBE3643:
.LBE3718:
	.loc 4 471 0
	lwz 31,8(27)
.LVL313:
.LBB3719:
.LBB3717:
.LBB3713:
.LBB3714:
.LBB3715:
.LBB3716:
	.loc 6 98 0
	mr 3,27
	bl _ZdlPv
.LVL314:
.LBE3716:
.LBE3715:
.LBE3714:
.LBE3713:
.LBE3717:
	.loc 14 1072 0
	cmpwi 7,31,0
	beq- 7,.L215
	.loc 14 1077 0
	mr 27,31
.LVL315:
	b .L260
.LVL316:
.L215:
	.loc 4 471 0
	lwz 31,8(22)
.LVL317:
.LBE3719:
.LBE3641:
.LBB3720:
.LBB3721:
.LBB3722:
.LBB3723:
	.loc 6 98 0
	mr 3,22
	bl _ZdlPv
.LVL318:
.LBE3723:
.LBE3722:
.LBE3721:
.LBE3720:
.LBE3640:
	.loc 14 1072 0
	cmpwi 7,31,0
	beq- 7,.L213
	.loc 14 1077 0
	mr 22,31
.LVL319:
	b .L259
.LVL320:
.L213:
.LBE3724:
	.loc 14 1079 0
	lwz 0,60(1)
	lwz 21,12(1)
	mtlr 0
	lwz 22,16(1)
	lwz 23,20(1)
	lwz 24,24(1)
	lwz 25,28(1)
	lwz 26,32(1)
	lwz 27,36(1)
	lwz 28,40(1)
	lwz 29,44(1)
	lwz 30,48(1)
.LVL321:
	lwz 31,52(1)
	addi 1,1,56
.LCFI61:
	.cfi_def_cfa_offset 0
	.cfi_restore 31
	.cfi_restore 30
	.cfi_restore 29
	.cfi_restore 28
	.cfi_restore 27
	.cfi_restore 26
	.cfi_restore 25
	.cfi_restore 24
	.cfi_restore 23
	.cfi_restore 22
	.cfi_restore 21
	blr
	.cfi_endproc
.LFE1810:
	.size	_ZNSt8_Rb_treeIPN7sigslot12_signal_baseINS0_15single_threadedEEES4_St9_IdentityIS4_ESt4lessIS4_ESaIS4_EE8_M_eraseEPSt13_Rb_tree_nodeIS4_E, .-_ZNSt8_Rb_treeIPN7sigslot12_signal_baseINS0_15single_threadedEEES4_St9_IdentityIS4_ESt4lessIS4_ESaIS4_EE8_M_eraseEPSt13_Rb_tree_nodeIS4_E
	.section	.text._ZN7sigslot9has_slotsINS_15single_threadedEED2Ev,"axG",@progbits,_ZN7sigslot9has_slotsINS_15single_threadedEED5Ev,comdat
	.align 2
	.weak	_ZN7sigslot9has_slotsINS_15single_threadedEED2Ev
	.type	_ZN7sigslot9has_slotsINS_15single_threadedEED2Ev, @function
_ZN7sigslot9has_slotsINS_15single_threadedEED2Ev:
.LFB1646:
	.loc 1 513 0
	.cfi_startproc
	.cfi_personality 0,__gxx_personality_v0
	.cfi_lsda 0,.LLSDA1646
.LVL322:
	mflr 0
	stwu 1,-32(1)
.LCFI62:
	.cfi_def_cfa_offset 32
	.cfi_register 65, 0
.LBB3871:
	.loc 1 516 0
	lis 9,_ZTVN7sigslot9has_slotsINS_15single_threadedEEE+8@ha
.LBE3871:
	.loc 1 513 0
	stw 28,16(1)
	addi 28,3,4
	.cfi_offset 28, -16
	stw 0,36(1)
.LBB3947:
	.loc 1 516 0
	la 0,_ZTVN7sigslot9has_slotsINS_15single_threadedEEE+8@l(9)
	.cfi_offset 65, 4
.LBE3947:
	.loc 1 513 0
	stw 29,20(1)
	mr 29,3
	.cfi_offset 29, -12
	stw 26,8(1)
	stw 27,12(1)
	stw 30,24(1)
	stw 31,28(1)
.LBB3948:
	.loc 1 516 0
	stw 0,0(3)
.LVL323:
.LEHB23:
.LBB3872:
.LBB3873:
.LBB3874:
.LBB3875:
	.loc 1 338 0
	.cfi_offset 31, -4
	.cfi_offset 30, -8
	.cfi_offset 27, -20
	.cfi_offset 26, -24
	bl _ZN7sigslot15single_threaded4lockEv
.LEHE23:
.LVL324:
.LBE3875:
.LBE3874:
.LBB3876:
	.loc 4 471 0
	lwz 31,16(29)
.LVL325:
.LBE3876:
.LBB3877:
.LBB3878:
.LBB3879:
	.loc 14 671 0
	addi 30,28,4
.LVL326:
.LBE3879:
.LBE3878:
.LBE3877:
	.loc 1 524 0
	cmpw 7,31,30
	beq- 7,.L269
.LVL327:
.L296:
	.loc 1 526 0
	lwz 3,16(31)
	mr 4,29
	lwz 9,0(3)
	lwz 0,16(9)
	mtctr 0
.LEHB24:
	bctrl
.LEHE24:
.LVL328:
.LBB3880:
.LBB3881:
	.loc 14 269 0
	mr 3,31
	bl _ZSt18_Rb_tree_incrementPKSt18_Rb_tree_node_base
.LBE3881:
.LBE3880:
	.loc 1 524 0
	cmpw 7,30,3
.LBB3883:
.LBB3882:
	.loc 14 269 0
	mr 31,3
.LVL329:
.LBE3882:
.LBE3883:
	.loc 1 524 0
	bne+ 7,.L296
	lwz 31,16(29)
.LVL330:
.L269:
.LBB3884:
.LBB3885:
.LBB3886:
.LBB3887:
.LBB3888:
.LBB3889:
.LBB3890:
	.loc 14 665 0
	addi 26,28,4
.LBE3890:
.LBE3889:
	.loc 14 1500 0
	cmpw 7,30,26
	beq- 7,.L271
.LVL331:
	.loc 14 1503 0
	cmpw 7,30,31
	bne+ 7,.L298
	b .L272
.LVL332:
.L293:
	.loc 14 277 0
	mr 31,27
.LVL333:
.L298:
.LBB3891:
.LBB3892:
	mr 3,31
	bl _ZSt18_Rb_tree_incrementPKSt18_Rb_tree_node_base
.LBE3892:
.LBE3891:
.LBB3894:
.LBB3895:
.LBB3896:
	.loc 14 1489 0
	mr 4,26
.LBE3896:
.LBE3895:
.LBE3894:
.LBB3905:
.LBB3893:
	.loc 14 277 0
	mr 27,3
.LVL334:
.LBE3893:
.LBE3905:
.LBB3906:
.LBB3903:
.LBB3901:
	.loc 14 1489 0
	mr 3,31
.LVL335:
	bl _ZSt28_Rb_tree_rebalance_for_erasePSt18_Rb_tree_node_baseRS_
.LBB3897:
.LBB3898:
.LBB3899:
.LBB3900:
	.loc 6 98 0
	bl _ZdlPv
.LBE3900:
.LBE3899:
.LBE3898:
.LBE3897:
.LBE3901:
.LBE3903:
.LBE3906:
	.loc 14 1503 0
	cmpw 7,30,27
.LBB3907:
.LBB3904:
.LBB3902:
	.loc 14 1491 0
	lwz 9,20(28)
	addi 0,9,-1
	stw 0,20(28)
.LBE3902:
.LBE3904:
.LBE3907:
	.loc 14 1503 0
	bne+ 7,.L293
.LVL336:
.L272:
.LBE3888:
.LBE3887:
.LBE3886:
.LBE3885:
.LBE3884:
.LBB3916:
.LBB3917:
.LBB3918:
	.loc 1 343 0
	lwz 9,0(29)
	mr 3,29
	lwz 0,12(9)
	mtctr 0
.LEHB25:
	bctrl
.LEHE25:
.LVL337:
.LBE3918:
.LBE3917:
.LBE3916:
.LBE3873:
.LBE3872:
.LBB3925:
.LBB3926:
.LBB3927:
.LBB3928:
.LBB3929:
	.loc 14 639 0
	lwz 4,12(29)
	mr 3,28
	bl _ZNSt8_Rb_treeIPN7sigslot12_signal_baseINS0_15single_threadedEEES4_St9_IdentityIS4_ESt4lessIS4_ESaIS4_EE8_M_eraseEPSt13_Rb_tree_nodeIS4_E
.LVL338:
.LBE3929:
.LBE3928:
.LBE3927:
.LBE3926:
.LBE3925:
.LBB3930:
.LBB3931:
.LBB3932:
	.loc 1 105 0
	lis 9,_ZTVN7sigslot15single_threadedE+8@ha
	la 0,_ZTVN7sigslot15single_threadedE+8@l(9)
.LBE3932:
.LBE3931:
.LBE3930:
.LBE3948:
	.loc 1 516 0
	lwz 26,8(1)
.LBB3949:
.LBB3935:
.LBB3934:
.LBB3933:
	.loc 1 105 0
	stw 0,0(29)
.LBE3933:
.LBE3934:
.LBE3935:
.LBE3949:
	.loc 1 516 0
	lwz 0,36(1)
	lwz 27,12(1)
	mtlr 0
	lwz 28,16(1)
.LVL339:
	lwz 29,20(1)
.LVL340:
	lwz 30,24(1)
.LVL341:
	lwz 31,28(1)
	addi 1,1,32
	.cfi_remember_state
.LCFI63:
	.cfi_def_cfa_offset 0
	.cfi_restore 31
	.cfi_restore 30
	.cfi_restore 29
	.cfi_restore 28
	.cfi_restore 27
	.cfi_restore 26
	blr
.LVL342:
.L271:
.LCFI64:
	.cfi_restore_state
.LBB3950:
.LBB3936:
.LBB3923:
.LBB3919:
.LBB3915:
.LBB3914:
.LBB3913:
.LBB3912:
.LBB3908:
.LBB3909:
.LBB3910:
.LBB3911:
	.loc 14 809 0
	lwz 4,12(29)
	mr 3,28
	bl _ZNSt8_Rb_treeIPN7sigslot12_signal_baseINS0_15single_threadedEEES4_St9_IdentityIS4_ESt4lessIS4_ESaIS4_EE8_M_eraseEPSt13_Rb_tree_nodeIS4_E
.LVL343:
	.loc 14 811 0
	li 0,0
	.loc 14 810 0
	stw 30,16(29)
.LVL344:
	.loc 14 811 0
	stw 0,12(29)
.LVL345:
	.loc 14 812 0
	stw 30,20(29)
	.loc 14 813 0
	stw 0,24(29)
	b .L272
.LVL346:
.L294:
	mr 31,3
.L279:
.LVL347:
.LBE3911:
.LBE3910:
.LBE3909:
.LBE3908:
.LBE3912:
.LBE3913:
.LBE3914:
.LBE3915:
.LBE3919:
.LBE3923:
.LBE3936:
.LBB3937:
.LBB3938:
.LBB3939:
.LBB3940:
.LBB3941:
.LBB3942:
	.loc 14 639 0
	lwz 4,12(29)
	mr 3,28
	bl _ZNSt8_Rb_treeIPN7sigslot12_signal_baseINS0_15single_threadedEEES4_St9_IdentityIS4_ESt4lessIS4_ESaIS4_EE8_M_eraseEPSt13_Rb_tree_nodeIS4_E
.LVL348:
.LBE3942:
.LBE3941:
.LBE3940:
.LBE3939:
.LBE3938:
.LBE3937:
.LBB3943:
.LBB3944:
.LBB3945:
	.loc 1 105 0
	lis 9,_ZTVN7sigslot15single_threadedE+8@ha
	la 0,_ZTVN7sigslot15single_threadedE+8@l(9)
	mr 3,31
	stw 0,0(29)
.LEHB26:
	bl _Unwind_Resume
.LEHE26:
.LVL349:
.L295:
.LBE3945:
.LBE3944:
.LBE3943:
.LBB3946:
.LBB3924:
.LBB3920:
.LBB3921:
.LBB3922:
	.loc 1 343 0
	lwz 9,0(29)
	mr 31,3
.LVL350:
	mr 3,29
	lwz 0,12(9)
	mtctr 0
	bctrl
	b .L279
.LBE3922:
.LBE3921:
.LBE3920:
.LBE3924:
.LBE3946:
.LBE3950:
	.cfi_endproc
.LFE1646:
	.section	.gcc_except_table
.LLSDA1646:
	.byte	0xff
	.byte	0xff
	.byte	0x1
	.uleb128 .LLSDACSE1646-.LLSDACSB1646
.LLSDACSB1646:
	.uleb128 .LEHB23-.LFB1646
	.uleb128 .LEHE23-.LEHB23
	.uleb128 .L294-.LFB1646
	.uleb128 0
	.uleb128 .LEHB24-.LFB1646
	.uleb128 .LEHE24-.LEHB24
	.uleb128 .L295-.LFB1646
	.uleb128 0
	.uleb128 .LEHB25-.LFB1646
	.uleb128 .LEHE25-.LEHB25
	.uleb128 .L294-.LFB1646
	.uleb128 0
	.uleb128 .LEHB26-.LFB1646
	.uleb128 .LEHE26-.LEHB26
	.uleb128 0
	.uleb128 0
.LLSDACSE1646:
	.section	.text._ZN7sigslot9has_slotsINS_15single_threadedEED2Ev,"axG",@progbits,_ZN7sigslot9has_slotsINS_15single_threadedEED5Ev,comdat
	.size	_ZN7sigslot9has_slotsINS_15single_threadedEED2Ev, .-_ZN7sigslot9has_slotsINS_15single_threadedEED2Ev
	.section	.text._ZN7sigslot9has_slotsINS_15single_threadedEED0Ev,"axG",@progbits,_ZN7sigslot9has_slotsINS_15single_threadedEED5Ev,comdat
	.align 2
	.weak	_ZN7sigslot9has_slotsINS_15single_threadedEED0Ev
	.type	_ZN7sigslot9has_slotsINS_15single_threadedEED0Ev, @function
_ZN7sigslot9has_slotsINS_15single_threadedEED0Ev:
.LFB1648:
	.loc 1 513 0
	.cfi_startproc
	.cfi_personality 0,__gxx_personality_v0
	.cfi_lsda 0,.LLSDA1648
.LVL351:
	mflr 0
	stwu 1,-32(1)
.LCFI65:
	.cfi_def_cfa_offset 32
	.cfi_register 65, 0
.LBB4044:
.LBB4045:
.LBB4046:
	.loc 1 516 0
	lis 9,_ZTVN7sigslot9has_slotsINS_15single_threadedEEE+8@ha
.LBE4046:
.LBE4045:
.LBE4044:
	.loc 1 513 0
	stw 28,16(1)
	addi 28,3,4
	.cfi_offset 28, -16
	stw 0,36(1)
.LBB4130:
.LBB4126:
.LBB4122:
	.loc 1 516 0
	la 0,_ZTVN7sigslot9has_slotsINS_15single_threadedEEE+8@l(9)
	.cfi_offset 65, 4
.LBE4122:
.LBE4126:
.LBE4130:
	.loc 1 513 0
	stw 29,20(1)
	mr 29,3
	.cfi_offset 29, -12
.LVL352:
	stw 26,8(1)
	stw 27,12(1)
	stw 30,24(1)
	stw 31,28(1)
.LBB4131:
.LBB4127:
.LBB4123:
	.loc 1 516 0
	stw 0,0(3)
.LVL353:
.LEHB27:
.LBB4047:
.LBB4048:
.LBB4049:
.LBB4050:
	.loc 1 338 0
	.cfi_offset 31, -4
	.cfi_offset 30, -8
	.cfi_offset 27, -20
	.cfi_offset 26, -24
	bl _ZN7sigslot15single_threaded4lockEv
.LEHE27:
.LVL354:
.LBE4050:
.LBE4049:
.LBB4051:
	.loc 4 471 0
	lwz 31,16(29)
.LVL355:
.LBE4051:
.LBB4052:
.LBB4053:
.LBB4054:
	.loc 14 671 0
	addi 30,28,4
.LVL356:
.LBE4054:
.LBE4053:
.LBE4052:
	.loc 1 524 0
	cmpw 7,31,30
	beq- 7,.L301
.LVL357:
.L329:
	.loc 1 526 0
	lwz 3,16(31)
	mr 4,29
	lwz 9,0(3)
	lwz 0,16(9)
	mtctr 0
.LEHB28:
	bctrl
.LEHE28:
.LVL358:
.LBB4055:
.LBB4056:
	.loc 14 269 0
	mr 3,31
	bl _ZSt18_Rb_tree_incrementPKSt18_Rb_tree_node_base
.LBE4056:
.LBE4055:
	.loc 1 524 0
	cmpw 7,30,3
.LBB4058:
.LBB4057:
	.loc 14 269 0
	mr 31,3
.LVL359:
.LBE4057:
.LBE4058:
	.loc 1 524 0
	bne+ 7,.L329
	lwz 31,16(29)
.LVL360:
.L301:
.LBB4059:
.LBB4060:
.LBB4061:
.LBB4062:
.LBB4063:
.LBB4064:
.LBB4065:
	.loc 14 665 0
	addi 26,28,4
.LBE4065:
.LBE4064:
	.loc 14 1500 0
	cmpw 7,30,26
	beq- 7,.L303
.LVL361:
	.loc 14 1503 0
	cmpw 7,30,31
	bne+ 7,.L331
	b .L304
.LVL362:
.L326:
	.loc 14 277 0
	mr 31,27
.LVL363:
.L331:
.LBB4066:
.LBB4067:
	mr 3,31
	bl _ZSt18_Rb_tree_incrementPKSt18_Rb_tree_node_base
.LBE4067:
.LBE4066:
.LBB4069:
.LBB4070:
.LBB4071:
	.loc 14 1489 0
	mr 4,26
.LBE4071:
.LBE4070:
.LBE4069:
.LBB4080:
.LBB4068:
	.loc 14 277 0
	mr 27,3
.LVL364:
.LBE4068:
.LBE4080:
.LBB4081:
.LBB4078:
.LBB4076:
	.loc 14 1489 0
	mr 3,31
.LVL365:
	bl _ZSt28_Rb_tree_rebalance_for_erasePSt18_Rb_tree_node_baseRS_
.LBB4072:
.LBB4073:
.LBB4074:
.LBB4075:
	.loc 6 98 0
	bl _ZdlPv
.LBE4075:
.LBE4074:
.LBE4073:
.LBE4072:
.LBE4076:
.LBE4078:
.LBE4081:
	.loc 14 1503 0
	cmpw 7,30,27
.LBB4082:
.LBB4079:
.LBB4077:
	.loc 14 1491 0
	lwz 9,20(28)
	addi 0,9,-1
	stw 0,20(28)
.LBE4077:
.LBE4079:
.LBE4082:
	.loc 14 1503 0
	bne+ 7,.L326
.LVL366:
.L304:
.LBE4063:
.LBE4062:
.LBE4061:
.LBE4060:
.LBE4059:
.LBB4091:
.LBB4092:
.LBB4093:
	.loc 1 343 0
	lwz 9,0(29)
	mr 3,29
	lwz 0,12(9)
	mtctr 0
.LEHB29:
	bctrl
.LEHE29:
.LVL367:
.LBE4093:
.LBE4092:
.LBE4091:
.LBE4048:
.LBE4047:
.LBB4100:
.LBB4101:
.LBB4102:
.LBB4103:
.LBB4104:
	.loc 14 639 0
	lwz 4,12(29)
	mr 3,28
	bl _ZNSt8_Rb_treeIPN7sigslot12_signal_baseINS0_15single_threadedEEES4_St9_IdentityIS4_ESt4lessIS4_ESaIS4_EE8_M_eraseEPSt13_Rb_tree_nodeIS4_E
.LVL368:
.LBE4104:
.LBE4103:
.LBE4102:
.LBE4101:
.LBE4100:
.LBB4105:
.LBB4106:
.LBB4107:
	.loc 1 105 0
	lis 9,_ZTVN7sigslot15single_threadedE+8@ha
	la 0,_ZTVN7sigslot15single_threadedE+8@l(9)
.LBE4107:
.LBE4106:
.LBE4105:
.LBE4123:
.LBE4127:
.LBE4131:
	.loc 1 516 0
	mr 3,29
.LBB4132:
.LBB4128:
.LBB4124:
.LBB4110:
.LBB4109:
.LBB4108:
	.loc 1 105 0
	stw 0,0(29)
.LBE4108:
.LBE4109:
.LBE4110:
.LBE4124:
.LBE4128:
.LBE4132:
	.loc 1 516 0
	bl _ZdlPv
	lwz 0,36(1)
	lwz 26,8(1)
	mtlr 0
	lwz 27,12(1)
	lwz 28,16(1)
.LVL369:
	lwz 29,20(1)
.LVL370:
	lwz 30,24(1)
.LVL371:
	lwz 31,28(1)
	addi 1,1,32
	.cfi_remember_state
.LCFI66:
	.cfi_def_cfa_offset 0
	.cfi_restore 31
	.cfi_restore 30
	.cfi_restore 29
	.cfi_restore 28
	.cfi_restore 27
	.cfi_restore 26
	blr
.LVL372:
.L303:
.LCFI67:
	.cfi_restore_state
.LBB4133:
.LBB4129:
.LBB4125:
.LBB4111:
.LBB4098:
.LBB4094:
.LBB4090:
.LBB4089:
.LBB4088:
.LBB4087:
.LBB4083:
.LBB4084:
.LBB4085:
.LBB4086:
	.loc 14 809 0
	lwz 4,12(29)
	mr 3,28
	bl _ZNSt8_Rb_treeIPN7sigslot12_signal_baseINS0_15single_threadedEEES4_St9_IdentityIS4_ESt4lessIS4_ESaIS4_EE8_M_eraseEPSt13_Rb_tree_nodeIS4_E
.LVL373:
	.loc 14 811 0
	li 0,0
	.loc 14 810 0
	stw 30,16(29)
.LVL374:
	.loc 14 811 0
	stw 0,12(29)
.LVL375:
	.loc 14 812 0
	stw 30,20(29)
	.loc 14 813 0
	stw 0,24(29)
	b .L304
.LVL376:
.L327:
	mr 31,3
.L311:
.LVL377:
.LBE4086:
.LBE4085:
.LBE4084:
.LBE4083:
.LBE4087:
.LBE4088:
.LBE4089:
.LBE4090:
.LBE4094:
.LBE4098:
.LBE4111:
.LBB4112:
.LBB4113:
.LBB4114:
.LBB4115:
.LBB4116:
.LBB4117:
	.loc 14 639 0
	lwz 4,12(29)
	mr 3,28
	bl _ZNSt8_Rb_treeIPN7sigslot12_signal_baseINS0_15single_threadedEEES4_St9_IdentityIS4_ESt4lessIS4_ESaIS4_EE8_M_eraseEPSt13_Rb_tree_nodeIS4_E
.LVL378:
.LBE4117:
.LBE4116:
.LBE4115:
.LBE4114:
.LBE4113:
.LBE4112:
.LBB4118:
.LBB4119:
.LBB4120:
	.loc 1 105 0
	lis 9,_ZTVN7sigslot15single_threadedE+8@ha
	la 0,_ZTVN7sigslot15single_threadedE+8@l(9)
	mr 3,31
	stw 0,0(29)
.LEHB30:
	bl _Unwind_Resume
.LEHE30:
.LVL379:
.L328:
.LBE4120:
.LBE4119:
.LBE4118:
.LBB4121:
.LBB4099:
.LBB4095:
.LBB4096:
.LBB4097:
	.loc 1 343 0
	lwz 9,0(29)
	mr 31,3
.LVL380:
	mr 3,29
	lwz 0,12(9)
	mtctr 0
	bctrl
	b .L311
.LBE4097:
.LBE4096:
.LBE4095:
.LBE4099:
.LBE4121:
.LBE4125:
.LBE4129:
.LBE4133:
	.cfi_endproc
.LFE1648:
	.section	.gcc_except_table
.LLSDA1648:
	.byte	0xff
	.byte	0xff
	.byte	0x1
	.uleb128 .LLSDACSE1648-.LLSDACSB1648
.LLSDACSB1648:
	.uleb128 .LEHB27-.LFB1648
	.uleb128 .LEHE27-.LEHB27
	.uleb128 .L327-.LFB1648
	.uleb128 0
	.uleb128 .LEHB28-.LFB1648
	.uleb128 .LEHE28-.LEHB28
	.uleb128 .L328-.LFB1648
	.uleb128 0
	.uleb128 .LEHB29-.LFB1648
	.uleb128 .LEHE29-.LEHB29
	.uleb128 .L327-.LFB1648
	.uleb128 0
	.uleb128 .LEHB30-.LFB1648
	.uleb128 .LEHE30-.LEHB30
	.uleb128 0
	.uleb128 0
.LLSDACSE1648:
	.section	.text._ZN7sigslot9has_slotsINS_15single_threadedEED0Ev,"axG",@progbits,_ZN7sigslot9has_slotsINS_15single_threadedEED5Ev,comdat
	.size	_ZN7sigslot9has_slotsINS_15single_threadedEED0Ev, .-_ZN7sigslot9has_slotsINS_15single_threadedEED0Ev
	.section	.text._ZNSt8_Rb_treeIPN7sigslot12_signal_baseINS0_15single_threadedEEES4_St9_IdentityIS4_ESt4lessIS4_ESaIS4_EE16_M_insert_uniqueERKS4_,"axG",@progbits,_ZNSt8_Rb_treeIPN7sigslot12_signal_baseINS0_15single_threadedEEES4_St9_IdentityIS4_ESt4lessIS4_ESaIS4_EE16_M_insert_uniqueERKS4_,comdat
	.align 2
	.weak	_ZNSt8_Rb_treeIPN7sigslot12_signal_baseINS0_15single_threadedEEES4_St9_IdentityIS4_ESt4lessIS4_ESaIS4_EE16_M_insert_uniqueERKS4_
	.type	_ZNSt8_Rb_treeIPN7sigslot12_signal_baseINS0_15single_threadedEEES4_St9_IdentityIS4_ESt4lessIS4_ESaIS4_EE16_M_insert_uniqueERKS4_, @function
_ZNSt8_Rb_treeIPN7sigslot12_signal_baseINS0_15single_threadedEEES4_St9_IdentityIS4_ESt4lessIS4_ESaIS4_EE16_M_insert_uniqueERKS4_:
.LFB1911:
	.loc 14 1264 0
	.cfi_startproc
.LVL381:
	mflr 0
	stwu 1,-32(1)
.LCFI68:
	.cfi_def_cfa_offset 32
	.cfi_register 65, 0
	stw 28,16(1)
	stw 0,36(1)
	stw 27,12(1)
	mr 27,4
	.cfi_offset 27, -20
	.cfi_offset 65, 4
	.cfi_offset 28, -16
.LBB4173:
.LBB4174:
.LBB4175:
	.loc 4 471 0
	lwz 28,8(3)
.LVL382:
.LBE4175:
.LBE4174:
.LBE4173:
	.loc 14 1264 0
	stw 29,20(1)
.LBB4200:
.LBB4192:
.LBB4188:
	.loc 14 1272 0
	addi 29,3,4
	.cfi_offset 29, -12
.LVL383:
.LBE4188:
.LBE4192:
	.loc 14 1274 0
	cmpwi 7,28,0
.LBE4200:
	.loc 14 1264 0
	stw 31,28(1)
	stw 26,8(1)
	mr 31,3
	.cfi_offset 26, -24
	.cfi_offset 31, -4
	stw 30,24(1)
.LBB4201:
	.loc 14 1274 0
	beq- 7,.L348
	.cfi_offset 30, -8
.LVL384:
	lwz 10,0(4)
	b .L337
.LVL385:
.L356:
	.loc 4 471 0 discriminator 1
	lwz 0,8(28)
.LVL386:
	.loc 14 1274 0 discriminator 1
	cmpwi 7,0,0
	beq- 7,.L355
.LVL387:
.L349:
	.loc 14 1274 0 is_stmt 0
	mr 28,0
.LVL388:
.L337:
	.loc 4 471 0 is_stmt 1
	lwz 9,16(28)
	li 11,1
	.loc 14 1278 0
	cmplw 7,9,10
	bgt- 7,.L356
.LVL389:
	.loc 4 471 0 discriminator 2
	lwz 0,12(28)
	li 11,0
.LVL390:
	.loc 14 1274 0 discriminator 2
	cmpwi 7,0,0
	bne+ 7,.L349
.LVL391:
.L355:
	.loc 14 1281 0
	cmpwi 7,11,0
	mr 3,28
.LVL392:
	bne- 7,.L334
.LVL393:
	.loc 14 1289 0
	cmplw 7,10,9
	bgt- 7,.L357
.LVL394:
.L344:
	.loc 14 1292 0
	li 0,0
	li 4,0
	rlwimi 4,0,24,0,7
.LBE4201:
	.loc 14 1293 0
	lwz 0,36(1)
	lwz 26,8(1)
	mtlr 0
	lwz 27,12(1)
.LVL395:
	lwz 28,16(1)
	lwz 29,20(1)
	lwz 30,24(1)
	lwz 31,28(1)
.LVL396:
	addi 1,1,32
	.cfi_remember_state
.LCFI69:
	.cfi_def_cfa_offset 0
	.cfi_restore 31
	.cfi_restore 30
	.cfi_restore 29
	.cfi_restore 28
	.cfi_restore 27
	.cfi_restore 26
	blr
.LVL397:
.L348:
.LCFI70:
	.cfi_restore_state
.LBB4202:
	.loc 14 1272 0
	mr 28,29
.LVL398:
.L334:
	.loc 14 1283 0
	lwz 0,12(31)
	cmpw 7,28,0
	beq- 7,.L358
.LVL399:
.LBB4193:
.LBB4194:
	.loc 14 203 0
	mr 3,28
	bl _ZSt18_Rb_tree_decrementPSt18_Rb_tree_node_base
.LVL400:
	lwz 10,0(27)
	lwz 9,16(3)
.LVL401:
.LBE4194:
.LBE4193:
	.loc 14 1289 0
	cmplw 7,10,9
	ble+ 7,.L344
.LVL402:
.L357:
.LBB4195:
.LBB4189:
	.loc 14 969 0
	cmpw 7,28,29
	li 26,1
	beq- 7,.L345
.LVL403:
	.loc 14 1264 0
	lwz 26,16(28)
	subfc 26,26,10
	subfe 26,26,26
	neg 26,26
	b .L345
.LVL404:
.L358:
.LBE4189:
.LBE4195:
.LBB4196:
.LBB4197:
	.loc 14 969 0
	cmpw 7,28,29
	li 26,1
	beq- 7,.L345
.LVL405:
	.loc 14 1264 0
	lwz 26,0(27)
	lwz 0,16(28)
.LVL406:
	subfc 26,0,26
	subfe 26,26,26
	neg 26,26
.LVL407:
.L345:
.LBE4197:
.LBE4196:
.LBB4198:
.LBB4190:
.LBB4176:
.LBB4177:
.LBB4178:
.LBB4179:
.LBB4180:
	.loc 6 92 0
	li 3,20
	bl _Znwj
.LBE4180:
.LBE4179:
.LBE4178:
.LBB4183:
.LBB4184:
	.loc 6 108 0
	cmpwi 7,3,-16
.LBE4184:
.LBE4183:
.LBB4186:
.LBB4182:
.LBB4181:
	.loc 6 92 0
	mr 30,3
.LVL408:
.LBE4181:
.LBE4182:
.LBE4186:
.LBB4187:
.LBB4185:
	.loc 6 108 0
	beq- 7,.L347
	lwz 0,0(27)
	stw 0,16(3)
.L347:
.LVL409:
.LBE4185:
.LBE4187:
.LBE4177:
.LBE4176:
	.loc 14 973 0
	mr 3,26
.LVL410:
	mr 4,30
	mr 5,28
	mr 6,29
	bl _ZSt29_Rb_tree_insert_and_rebalancebPSt18_Rb_tree_node_baseS0_RS_
	.loc 14 976 0
	lwz 9,20(31)
	.loc 14 1291 0
	li 4,0
	mr 3,30
	.loc 14 976 0
	addi 0,9,1
.LBE4190:
.LBE4198:
.LBE4202:
	.loc 14 1293 0
	lwz 26,8(1)
.LVL411:
.LBB4203:
.LBB4199:
.LBB4191:
	.loc 14 976 0
	stw 0,20(31)
.LVL412:
	.loc 14 1291 0
	li 0,1
	rlwimi 4,0,24,0,7
.LBE4191:
.LBE4199:
.LBE4203:
	.loc 14 1293 0
	lwz 0,36(1)
	lwz 27,12(1)
.LVL413:
	mtlr 0
	lwz 28,16(1)
	lwz 29,20(1)
	lwz 30,24(1)
.LVL414:
	lwz 31,28(1)
.LVL415:
	addi 1,1,32
	.cfi_restore 26
	.cfi_restore 27
	.cfi_restore 28
	.cfi_restore 29
	.cfi_restore 30
	.cfi_restore 31
.LCFI71:
	.cfi_def_cfa_offset 0
	blr
	.cfi_endproc
.LFE1911:
	.size	_ZNSt8_Rb_treeIPN7sigslot12_signal_baseINS0_15single_threadedEEES4_St9_IdentityIS4_ESt4lessIS4_ESaIS4_EE16_M_insert_uniqueERKS4_, .-_ZNSt8_Rb_treeIPN7sigslot12_signal_baseINS0_15single_threadedEEES4_St9_IdentityIS4_ESt4lessIS4_ESaIS4_EE16_M_insert_uniqueERKS4_
	.section	.text._ZN7sigslot7signal3IP9GuiButtoniRK6_POINTNS_15single_threadedEE7connectI12UpdateWindowEEvPT_MSA_FvS2_iS5_E,"axG",@progbits,_ZN7sigslot7signal3IP9GuiButtoniRK6_POINTNS_15single_threadedEE7connectI12UpdateWindowEEvPT_MSA_FvS2_iS5_E,comdat
	.align 2
	.weak	_ZN7sigslot7signal3IP9GuiButtoniRK6_POINTNS_15single_threadedEE7connectI12UpdateWindowEEvPT_MSA_FvS2_iS5_E
	.type	_ZN7sigslot7signal3IP9GuiButtoniRK6_POINTNS_15single_threadedEE7connectI12UpdateWindowEEvPT_MSA_FvS2_iS5_E, @function
_ZN7sigslot7signal3IP9GuiButtoniRK6_POINTNS_15single_threadedEE7connectI12UpdateWindowEEvPT_MSA_FvS2_iS5_E:
.LFB1669:
	.loc 1 2308 0
	.cfi_startproc
	.cfi_personality 0,__gxx_personality_v0
	.cfi_lsda 0,.LLSDA1669
.LVL416:
	mflr 0
	stwu 1,-48(1)
.LCFI72:
	.cfi_def_cfa_offset 48
	.cfi_register 65, 0
	stw 27,28(1)
	stw 0,52(1)
	stw 30,40(1)
	mr 30,4
	.cfi_offset 30, -8
	.cfi_offset 65, 4
	.cfi_offset 27, -20
.LBB4204:
.LBB4205:
.LBB4206:
	.loc 1 338 0
	lwz 9,0(3)
.LBE4206:
.LBE4205:
.LBE4204:
	.loc 1 2308 0
	stw 31,44(1)
	mr 31,3
	.cfi_offset 31, -4
.LVL417:
.LBB4259:
.LBB4210:
.LBB4207:
	.loc 1 338 0
	lwz 0,8(9)
.LBE4207:
.LBE4210:
.LBE4259:
	.loc 1 2308 0
	stw 28,32(1)
	stw 29,36(1)
.LBB4260:
.LBB4211:
.LBB4208:
	.loc 1 338 0
	mtctr 0
.LBE4208:
.LBE4211:
.LBE4260:
	.loc 1 2308 0
	lwz 27,0(5)
	lwz 28,4(5)
	.cfi_offset 29, -12
	.cfi_offset 28, -16
.LEHB31:
.LBB4261:
.LBB4212:
.LBB4209:
	.loc 1 338 0
	bctrl
.LEHE31:
.LVL418:
.LBE4209:
.LBE4212:
	.loc 1 2314 0
	li 3,16
.LEHB32:
	bl _Znwj
.LBB4213:
.LBB4214:
	.loc 1 1778 0
	lis 9,_ZTVN7sigslot12_connection3I12UpdateWindowP9GuiButtoniRK6_POINTNS_15single_threadedEEE+8@ha
	.loc 1 1779 0
	stw 30,4(3)
	.loc 1 1778 0
	la 0,_ZTVN7sigslot12_connection3I12UpdateWindowP9GuiButtoniRK6_POINTNS_15single_threadedEEE+8@l(9)
	.loc 1 1780 0
	stw 27,8(3)
	.loc 1 1778 0
	stw 0,0(3)
.LBE4214:
.LBE4213:
	.loc 1 2314 0
	mr 29,3
.LVL419:
.LBB4216:
.LBB4215:
	.loc 1 1780 0
	stw 28,12(3)
.LVL420:
.LBE4215:
.LBE4216:
.LBB4217:
.LBB4218:
.LBB4219:
.LBB4220:
.LBB4221:
.LBB4222:
.LBB4223:
.LBB4224:
	.loc 6 92 0
	li 3,12
.LVL421:
	bl _Znwj
.LVL422:
.LBE4224:
.LBE4223:
.LBE4222:
.LBB4225:
.LBB4226:
	.loc 6 108 0 discriminator 1
	cmpwi 7,3,-8
	beq- 7,.L361
	.loc 6 108 0 is_stmt 0
	stw 29,8(3)
.L361:
.LVL423:
.LBE4226:
.LBE4225:
.LBE4221:
.LBE4220:
	.loc 5 1516 0 is_stmt 1
	addi 4,31,4
.LBE4219:
.LBE4218:
.LBE4217:
.LBB4231:
.LBB4232:
	.loc 1 503 0
	addi 29,30,176
.LVL424:
.LBE4232:
.LBE4231:
.LBB4248:
.LBB4229:
.LBB4227:
	.loc 5 1516 0
	bl _ZNSt8__detail15_List_node_base7_M_hookEPS0_
.LVL425:
.LBE4227:
.LBE4229:
.LBE4248:
.LBB4249:
.LBB4245:
.LBB4233:
.LBB4234:
	.loc 1 338 0
	lwz 9,176(30)
.LBE4234:
.LBE4233:
.LBE4245:
.LBE4249:
.LBB4250:
.LBB4230:
.LBB4228:
	.loc 5 1516 0
	stw 31,8(1)
.LVL426:
.LBE4228:
.LBE4230:
.LBE4250:
.LBB4251:
.LBB4246:
.LBB4236:
.LBB4235:
	.loc 1 338 0
	mr 3,29
	lwz 0,8(9)
	mtctr 0
	bctrl
.LEHE32:
.LVL427:
.LBE4235:
.LBE4236:
.LBB4237:
.LBB4238:
	.file 15 "d:\\devkitpro\\devkitppc\\bin\\../lib/gcc/powerpc-eabi/4.6.3/../../../../powerpc-eabi/include/c++/4.6.3/bits/stl_set.h"
	.loc 15 410 0
	addi 3,30,180
	addi 4,1,8
.LEHB33:
	bl _ZNSt8_Rb_treeIPN7sigslot12_signal_baseINS0_15single_threadedEEES4_St9_IdentityIS4_ESt4lessIS4_ESaIS4_EE16_M_insert_uniqueERKS4_
.LEHE33:
.LVL428:
.LBE4238:
.LBE4237:
.LBB4239:
.LBB4240:
.LBB4241:
	.loc 1 343 0
	lwz 9,176(30)
	mr 3,29
	lwz 0,12(9)
	mtctr 0
.LEHB34:
	bctrl
.LEHE34:
.LVL429:
.LBE4241:
.LBE4240:
.LBE4239:
.LBE4246:
.LBE4251:
.LBB4252:
.LBB4253:
.LBB4254:
	lwz 9,0(31)
	mr 3,31
	lwz 0,12(9)
	mtctr 0
.LEHB35:
	bctrl
.LEHE35:
.LBE4254:
.LBE4253:
.LBE4252:
.LBE4261:
	.loc 1 2317 0
	lwz 0,52(1)
	lwz 27,28(1)
.LVL430:
	mtlr 0
	lwz 28,32(1)
.LVL431:
	lwz 29,36(1)
.LVL432:
	lwz 30,40(1)
.LVL433:
	lwz 31,44(1)
.LVL434:
	addi 1,1,48
	.cfi_remember_state
.LCFI73:
	.cfi_def_cfa_offset 0
	.cfi_restore 31
	.cfi_restore 30
	.cfi_restore 29
	.cfi_restore 28
	.cfi_restore 27
	blr
.LVL435:
.L368:
.LCFI74:
	.cfi_restore_state
	mr 30,3
.LVL436:
.L365:
.LBB4262:
.LBB4255:
.LBB4256:
.LBB4257:
	.loc 1 343 0
	lwz 9,0(31)
	mr 3,31
	lwz 0,12(9)
	mtctr 0
	bctrl
	mr 3,30
.LEHB36:
	bl _Unwind_Resume
.LEHE36:
.LVL437:
.L369:
.LBE4257:
.LBE4256:
.LBE4255:
.LBB4258:
.LBB4247:
.LBB4242:
.LBB4243:
.LBB4244:
	lwz 9,176(30)
	mr 30,3
.LVL438:
	mr 3,29
	lwz 0,12(9)
	mtctr 0
	bctrl
	b .L365
.LBE4244:
.LBE4243:
.LBE4242:
.LBE4247:
.LBE4258:
.LBE4262:
	.cfi_endproc
.LFE1669:
	.section	.gcc_except_table
.LLSDA1669:
	.byte	0xff
	.byte	0xff
	.byte	0x1
	.uleb128 .LLSDACSE1669-.LLSDACSB1669
.LLSDACSB1669:
	.uleb128 .LEHB31-.LFB1669
	.uleb128 .LEHE31-.LEHB31
	.uleb128 0
	.uleb128 0
	.uleb128 .LEHB32-.LFB1669
	.uleb128 .LEHE32-.LEHB32
	.uleb128 .L368-.LFB1669
	.uleb128 0
	.uleb128 .LEHB33-.LFB1669
	.uleb128 .LEHE33-.LEHB33
	.uleb128 .L369-.LFB1669
	.uleb128 0
	.uleb128 .LEHB34-.LFB1669
	.uleb128 .LEHE34-.LEHB34
	.uleb128 .L368-.LFB1669
	.uleb128 0
	.uleb128 .LEHB35-.LFB1669
	.uleb128 .LEHE35-.LEHB35
	.uleb128 0
	.uleb128 0
	.uleb128 .LEHB36-.LFB1669
	.uleb128 .LEHE36-.LEHB36
	.uleb128 0
	.uleb128 0
.LLSDACSE1669:
	.section	.text._ZN7sigslot7signal3IP9GuiButtoniRK6_POINTNS_15single_threadedEE7connectI12UpdateWindowEEvPT_MSA_FvS2_iS5_E,"axG",@progbits,_ZN7sigslot7signal3IP9GuiButtoniRK6_POINTNS_15single_threadedEE7connectI12UpdateWindowEEvPT_MSA_FvS2_iS5_E,comdat
	.size	_ZN7sigslot7signal3IP9GuiButtoniRK6_POINTNS_15single_threadedEE7connectI12UpdateWindowEEvPT_MSA_FvS2_iS5_E, .-_ZN7sigslot7signal3IP9GuiButtoniRK6_POINTNS_15single_threadedEE7connectI12UpdateWindowEEvPT_MSA_FvS2_iS5_E
	.section	".text"
	.align 2
	.globl _ZN12UpdateWindow10SetButtonsESsSsSsSs
	.type	_ZN12UpdateWindow10SetButtonsESsSsSsSs, @function
_ZN12UpdateWindow10SetButtonsESsSsSsSs:
.LFB1606:
	.loc 4 257 0
	.cfi_startproc
	.cfi_personality 0,__gxx_personality_v0
	.cfi_lsda 0,.LLSDA1606
.LVL439:
	mflr 0
	stwu 1,-56(1)
.LCFI75:
	.cfi_def_cfa_offset 56
	.cfi_register 65, 0
	stw 26,32(1)
	stw 0,60(1)
	stw 28,40(1)
	mr 28,5
	.cfi_offset 28, -16
	.cfi_offset 65, 4
	.cfi_offset 26, -24
.LBB4263:
.LBB4264:
.LBB4265:
.LBB4266:
.LBB4267:
.LBB4268:
.LBB4269:
	.file 16 "d:\\devkitpro\\devkitppc\\bin\\../lib/gcc/powerpc-eabi/4.6.3/../../../../powerpc-eabi/include/c++/4.6.3/bits/basic_string.h"
	.loc 16 288 0
	lwz 26,0(4)
.LBE4269:
.LBE4268:
.LBE4267:
.LBE4266:
.LBE4265:
.LBE4264:
.LBE4263:
	.loc 4 257 0
	stw 29,44(1)
	mr 29,6
	.cfi_offset 29, -12
.LBB4298:
	.loc 4 258 0
	lwz 0,-12(26)
.LBE4298:
	.loc 4 257 0
	stw 30,48(1)
	mr 30,7
	.cfi_offset 30, -8
.LBB4299:
	.loc 4 258 0
	cmpwi 7,0,0
.LBE4299:
	.loc 4 257 0
	stw 31,52(1)
	stw 24,24(1)
	mr 31,3
	.cfi_offset 24, -32
	.cfi_offset 31, -4
	stw 25,28(1)
	stw 27,36(1)
.LBB4300:
	.loc 4 258 0
	bne- 7,.L414
	.cfi_offset 27, -20
	.cfi_offset 25, -28
.LVL440:
.L372:
.LBB4270:
.LBB4271:
.LBB4272:
.LBB4273:
.LBB4274:
.LBB4275:
	.loc 16 288 0
	lwz 26,0(28)
.LBE4275:
.LBE4274:
.LBE4273:
.LBE4272:
.LBE4271:
.LBE4270:
	.loc 4 268 0
	lwz 0,-12(26)
	cmpwi 7,0,0
	bne- 7,.L415
.LVL441:
.L373:
.LBB4276:
.LBB4277:
.LBB4278:
.LBB4279:
.LBB4280:
.LBB4281:
	.loc 16 288 0
	lwz 27,0(29)
.LBE4281:
.LBE4280:
.LBE4279:
.LBE4278:
.LBE4277:
.LBE4276:
	.loc 4 279 0
	lwz 0,-12(27)
	cmpwi 7,0,0
	bne- 7,.L416
.LVL442:
.L375:
.LBB4282:
.LBB4283:
.LBB4284:
.LBB4285:
.LBB4286:
.LBB4287:
	.loc 16 288 0
	lwz 28,0(30)
.LBE4287:
.LBE4286:
.LBE4285:
.LBE4284:
.LBE4283:
.LBE4282:
	.loc 4 290 0
	lwz 0,-12(28)
	cmpwi 7,0,0
	bne- 7,.L417
.LVL443:
.L377:
	.loc 4 300 0
	lwz 3,300(31)
	cmpwi 7,3,0
	beq- 7,.L378
	.loc 4 300 0 is_stmt 0 discriminator 1
	lwz 0,304(31)
	cmpwi 7,0,0
	lwz 0,308(31)
	beq- 7,.L379
	.loc 4 300 0 discriminator 2
	cmpwi 7,0,0
	beq- 7,.L418
	.loc 4 307 0 is_stmt 1 discriminator 3
	lwz 9,312(31)
	cmpwi 7,9,0
	beq- 7,.L419
	.loc 4 316 0 discriminator 2
	cmpwi 7,0,0
	beq- 7,.L388
	.loc 4 316 0 is_stmt 0 discriminator 3
	lwz 0,312(31)
	cmpwi 7,0,0
	beq- 7,.L388
	.loc 4 318 0 is_stmt 1
	lwz 9,0(3)
	li 4,65
	lwz 0,180(9)
	mtctr 0
.LEHB37:
	bctrl
	.loc 4 319 0
	lwz 3,300(31)
	li 5,-120
	li 4,50
	lwz 9,0(3)
	lwz 0,168(9)
	mtctr 0
	bctrl
	.loc 4 320 0
	lwz 3,304(31)
	li 4,68
	lwz 9,0(3)
	lwz 0,180(9)
	mtctr 0
	bctrl
	.loc 4 321 0
	lwz 3,304(31)
	li 5,-120
	li 4,-50
	lwz 9,0(3)
	lwz 0,168(9)
.L409:
	mtctr 0
	bctrl
	.loc 4 322 0
	lwz 3,308(31)
	li 4,65
	lwz 9,0(3)
	lwz 0,180(9)
	mtctr 0
	bctrl
	.loc 4 323 0
	lwz 3,308(31)
	li 5,-65
	li 4,50
	lwz 9,0(3)
	lwz 0,168(9)
	mtctr 0
	bctrl
	.loc 4 324 0
	lwz 3,312(31)
	li 4,68
	lwz 9,0(3)
	lwz 0,180(9)
	mtctr 0
	bctrl
	.loc 4 325 0
	lwz 3,312(31)
	li 4,-50
.L407:
	lwz 9,0(3)
	li 5,-65
	lwz 0,168(9)
	mtctr 0
	bctrl
.L387:
.LVL444:
.LBB4288:
	.loc 4 351 0 discriminator 1
	lwz 4,300(31)
	cmpwi 7,4,0
	beq- 7,.L381
	.loc 4 352 0
	mr 3,31
	bl _ZN8GuiFrame6AppendEP10GuiElement
.L381:
.LVL445:
	.loc 4 351 0
	lwz 4,304(31)
	cmpwi 7,4,0
	beq- 7,.L382
	.loc 4 352 0
	mr 3,31
	bl _ZN8GuiFrame6AppendEP10GuiElement
.L382:
.LVL446:
	.loc 4 351 0
	lwz 4,308(31)
	cmpwi 7,4,0
	beq- 7,.L383
	.loc 4 352 0
	mr 3,31
	bl _ZN8GuiFrame6AppendEP10GuiElement
.L383:
.LVL447:
	.loc 4 351 0
	lwz 4,312(31)
	cmpwi 7,4,0
	beq- 7,.L371
	.loc 4 352 0
	mr 3,31
	bl _ZN8GuiFrame6AppendEP10GuiElement
.LVL448:
.L371:
.LBE4288:
.LBE4300:
	.loc 4 354 0
	lwz 0,60(1)
	lwz 24,24(1)
	mtlr 0
	lwz 25,28(1)
	lwz 26,32(1)
	lwz 27,36(1)
	lwz 28,40(1)
	lwz 29,44(1)
	lwz 30,48(1)
	lwz 31,52(1)
.LVL449:
	addi 1,1,56
	.cfi_remember_state
.LCFI76:
	.cfi_def_cfa_offset 0
	.cfi_restore 31
	.cfi_restore 30
	.cfi_restore 29
	.cfi_restore 28
	.cfi_restore 27
	.cfi_restore 26
	.cfi_restore 25
	.cfi_restore 24
	blr
.LVL450:
.L378:
.LCFI77:
	.cfi_restore_state
.LBB4301:
	.loc 4 336 0 discriminator 1
	lwz 11,304(31)
	cmpwi 7,11,0
	beq- 7,.L388
	.loc 4 336 0 is_stmt 0 discriminator 2
	lwz 0,308(31)
	cmpwi 7,0,0
	beq- 7,.L388
	.loc 4 336 0 discriminator 3
	lwz 0,312(31)
	cmpwi 7,0,0
	beq- 7,.L420
.L388:
	.loc 4 345 0 is_stmt 1
	lwz 9,0(3)
	li 4,66
	lwz 0,180(9)
	mtctr 0
	bctrl
	.loc 4 346 0
	lwz 3,300(31)
	li 4,0
.L408:
	.loc 4 305 0
	lwz 9,0(3)
	li 5,-50
	lwz 0,168(9)
	mtctr 0
	bctrl
	b .L387
.LVL451:
.L417:
	.loc 4 292 0
	lis 3,.LC10@ha
	la 3,.LC10@l(3)
	bl getThemeInt
	mr 29,3
	lis 3,.LC7@ha
	la 3,.LC7@l(3)
	bl getThemeColor
	mr 27,3
	li 3,208
	bl _Znwj
.LEHE37:
	mr 6,1
	stwu 27,8(6)
	mr 4,28
	mr 5,29
	mr 30,3
.LVL452:
.LEHB38:
	bl _ZN7GuiTextC1EPKci9_gx_color
.LEHE38:
	.loc 4 292 0 is_stmt 0 discriminator 1
	stw 30,296(31)
	.loc 4 293 0 is_stmt 1 discriminator 1
	li 3,320
.LEHB39:
	bl _Znwj
.LEHE39:
	lis 4,.LC11@ha
	la 4,.LC11@l(4)
	lwz 6,316(31)
	lwz 7,320(31)
	mr 5,4
	mr 30,3
.LEHB40:
	bl _ZN13PictureButtonC1EPKcS1_P8GuiSoundS3_
.LEHE40:
	.loc 4 294 0 discriminator 1
	lwz 4,296(31)
	li 5,0
	.loc 4 293 0 discriminator 1
	stw 30,312(31)
	.loc 4 294 0 discriminator 1
	mr 3,30
.LEHB41:
	bl _ZN9GuiButton8SetLabelEP7GuiTexti
	.loc 4 295 0 discriminator 1
	lwz 3,312(31)
	lwz 4,328(31)
	bl _ZN9GuiButton10SetTriggerEP10GuiTrigger
	.loc 4 296 0 discriminator 1
	lwz 3,312(31)
	lwz 4,324(31)
	bl _ZN9GuiButton10SetTriggerEP10GuiTrigger
	.loc 4 297 0 discriminator 1
	lwz 3,312(31)
	lis 9,_ZN12UpdateWindow13OnButtonClickEP9GuiButtoniRK6_POINT@ha
	mr 4,31
	la 0,_ZN12UpdateWindow13OnButtonClickEP9GuiButtoniRK6_POINT@l(9)
	addi 3,3,144
	stw 0,16(1)
	addi 5,1,16
	li 0,0
	stw 0,20(1)
	bl _ZN7sigslot7signal3IP9GuiButtoniRK6_POINTNS_15single_threadedEE7connectI12UpdateWindowEEvPT_MSA_FvS2_iS5_E
	b .L377
.LVL453:
.L416:
	.loc 4 281 0
	lis 3,.LC10@ha
	la 3,.LC10@l(3)
	bl getThemeInt
	mr 28,3
	lis 3,.LC7@ha
	la 3,.LC7@l(3)
	bl getThemeColor
	mr 26,3
	li 3,208
	bl _Znwj
.LEHE41:
	mr 6,1
	stwu 26,8(6)
	mr 4,27
	mr 5,28
	mr 29,3
.LVL454:
.LEHB42:
	bl _ZN7GuiTextC1EPKci9_gx_color
.LEHE42:
	.loc 4 281 0 is_stmt 0 discriminator 1
	stw 29,292(31)
	.loc 4 282 0 is_stmt 1 discriminator 1
	li 3,320
.LEHB43:
	bl _Znwj
.LEHE43:
	lis 4,.LC11@ha
	la 4,.LC11@l(4)
	lwz 6,316(31)
	lwz 7,320(31)
	mr 5,4
	mr 29,3
.LEHB44:
	bl _ZN13PictureButtonC1EPKcS1_P8GuiSoundS3_
.LEHE44:
	stw 29,308(31)
	.loc 4 283 0 discriminator 1
	mr 3,29
	lwz 4,292(31)
	li 5,0
.LEHB45:
	bl _ZN9GuiButton8SetLabelEP7GuiTexti
.LVL455:
.LBB4289:
.LBB4290:
.LBB4291:
	.loc 16 711 0 discriminator 1
	lwz 9,0(30)
.LBE4291:
.LBE4290:
.LBE4289:
	.loc 4 284 0 discriminator 1
	lwz 0,-12(9)
	cmpwi 7,0,0
	beq- 7,.L421
.L376:
	.loc 4 286 0
	lwz 3,308(31)
	lwz 4,324(31)
	bl _ZN9GuiButton10SetTriggerEP10GuiTrigger
	.loc 4 287 0
	lwz 3,308(31)
	lis 9,_ZN12UpdateWindow13OnButtonClickEP9GuiButtoniRK6_POINT@ha
	mr 4,31
	la 0,_ZN12UpdateWindow13OnButtonClickEP9GuiButtoniRK6_POINT@l(9)
	addi 3,3,144
	stw 0,16(1)
	addi 5,1,16
	li 0,0
	stw 0,20(1)
	bl _ZN7sigslot7signal3IP9GuiButtoniRK6_POINTNS_15single_threadedEE7connectI12UpdateWindowEEvPT_MSA_FvS2_iS5_E
	b .L375
.LVL456:
.L415:
	.loc 4 270 0
	lis 3,.LC10@ha
	la 3,.LC10@l(3)
	bl getThemeInt
	mr 27,3
	lis 3,.LC7@ha
	la 3,.LC7@l(3)
	bl getThemeColor
	mr 25,3
	li 3,208
	bl _Znwj
.LEHE45:
	mr 6,1
	stwu 25,8(6)
	mr 4,26
	mr 5,27
	mr 28,3
.LVL457:
.LEHB46:
	bl _ZN7GuiTextC1EPKci9_gx_color
.LEHE46:
	.loc 4 270 0 is_stmt 0 discriminator 1
	stw 28,288(31)
	.loc 4 271 0 is_stmt 1 discriminator 1
	li 3,320
.LEHB47:
	bl _Znwj
.LEHE47:
	lis 4,.LC11@ha
	la 4,.LC11@l(4)
	lwz 6,316(31)
	lwz 7,320(31)
	mr 5,4
	mr 28,3
.LEHB48:
	bl _ZN13PictureButtonC1EPKcS1_P8GuiSoundS3_
.LEHE48:
	stw 28,304(31)
	.loc 4 272 0 discriminator 1
	mr 3,28
	lwz 4,288(31)
	li 5,0
.LEHB49:
	bl _ZN9GuiButton8SetLabelEP7GuiTexti
.LVL458:
.LBB4292:
.LBB4293:
.LBB4294:
	.loc 16 711 0 discriminator 1
	lwz 9,0(29)
.LBE4294:
.LBE4293:
.LBE4292:
	.loc 4 273 0 discriminator 1
	lwz 0,-12(9)
	cmpwi 7,0,0
	bne- 7,.L374
.LVL459:
.LBB4295:
.LBB4296:
.LBB4297:
	.loc 16 711 0
	lwz 9,0(30)
.LBE4297:
.LBE4296:
.LBE4295:
	.loc 4 273 0
	lwz 0,-12(9)
	cmpwi 7,0,0
	bne- 7,.L374
	.loc 4 274 0 discriminator 4
	lwz 3,304(31)
	lwz 4,328(31)
	bl _ZN9GuiButton10SetTriggerEP10GuiTrigger
.LVL460:
.L374:
	.loc 4 275 0
	lwz 3,304(31)
	lwz 4,324(31)
	bl _ZN9GuiButton10SetTriggerEP10GuiTrigger
	.loc 4 276 0
	lwz 3,304(31)
	lis 9,_ZN12UpdateWindow13OnButtonClickEP9GuiButtoniRK6_POINT@ha
	mr 4,31
	la 0,_ZN12UpdateWindow13OnButtonClickEP9GuiButtoniRK6_POINT@l(9)
	addi 3,3,144
	stw 0,16(1)
	addi 5,1,16
	li 0,0
	stw 0,20(1)
	bl _ZN7sigslot7signal3IP9GuiButtoniRK6_POINTNS_15single_threadedEE7connectI12UpdateWindowEEvPT_MSA_FvS2_iS5_E
	b .L373
.LVL461:
.L414:
	.loc 4 260 0
	lis 3,.LC10@ha
	la 3,.LC10@l(3)
	bl getThemeInt
.LVL462:
	mr 25,3
	lis 3,.LC7@ha
	la 3,.LC7@l(3)
	bl getThemeColor
	mr 24,3
	li 3,208
	bl _Znwj
.LEHE49:
	mr 6,1
	stwu 24,8(6)
	mr 4,26
	mr 5,25
	mr 27,3
.LEHB50:
	bl _ZN7GuiTextC1EPKci9_gx_color
.LEHE50:
	.loc 4 260 0 is_stmt 0 discriminator 1
	stw 27,284(31)
	.loc 4 261 0 is_stmt 1 discriminator 1
	li 3,320
.LEHB51:
	bl _Znwj
.LEHE51:
	lis 4,.LC11@ha
	la 4,.LC11@l(4)
	lwz 6,316(31)
	lwz 7,320(31)
	mr 5,4
	mr 27,3
.LEHB52:
	bl _ZN13PictureButtonC1EPKcS1_P8GuiSoundS3_
.LEHE52:
	.loc 4 262 0 discriminator 1
	lwz 4,284(31)
	li 5,0
	.loc 4 261 0 discriminator 1
	stw 27,300(31)
	.loc 4 262 0 discriminator 1
	mr 3,27
.LEHB53:
	bl _ZN9GuiButton8SetLabelEP7GuiTexti
	.loc 4 263 0 discriminator 1
	lwz 3,300(31)
	lwz 4,324(31)
	bl _ZN9GuiButton10SetTriggerEP10GuiTrigger
	.loc 4 264 0 discriminator 1
	lwz 3,300(31)
	li 4,1
	li 5,-1
	lwz 9,0(3)
	lwz 0,80(9)
	mtctr 0
	bctrl
	.loc 4 265 0 discriminator 1
	lwz 3,300(31)
	lis 9,_ZN12UpdateWindow13OnButtonClickEP9GuiButtoniRK6_POINT@ha
	mr 4,31
	la 0,_ZN12UpdateWindow13OnButtonClickEP9GuiButtoniRK6_POINT@l(9)
	addi 3,3,144
	stw 0,16(1)
	addi 5,1,16
	li 0,0
	stw 0,20(1)
	bl _ZN7sigslot7signal3IP9GuiButtoniRK6_POINTNS_15single_threadedEE7connectI12UpdateWindowEEvPT_MSA_FvS2_iS5_E
	b .L372
.LVL463:
.L418:
	.loc 4 300 0 discriminator 3
	lwz 0,312(31)
	cmpwi 7,0,0
	bne+ 7,.L388
	.loc 4 302 0
	lwz 9,0(3)
	li 4,65
	lwz 0,180(9)
	mtctr 0
	bctrl
	.loc 4 303 0
	lwz 3,300(31)
	li 5,-50
	li 4,40
	lwz 9,0(3)
	lwz 0,168(9)
	mtctr 0
	bctrl
	.loc 4 304 0
	lwz 3,304(31)
	li 4,68
	lwz 9,0(3)
	lwz 0,180(9)
	mtctr 0
	bctrl
	.loc 4 305 0
	lwz 3,304(31)
	li 4,-40
	b .L408
.LVL464:
.L421:
	.loc 4 285 0
	lwz 3,308(31)
	lwz 4,328(31)
	bl _ZN9GuiButton10SetTriggerEP10GuiTrigger
	b .L376
.LVL465:
.L379:
	.loc 4 327 0 discriminator 2
	cmpwi 7,0,0
	beq- 7,.L388
	.loc 4 327 0 is_stmt 0 discriminator 3
	lwz 0,312(31)
	cmpwi 7,0,0
	beq- 7,.L388
	.loc 4 329 0 is_stmt 1
	lwz 9,0(3)
	li 4,66
	lwz 0,180(9)
	mtctr 0
	bctrl
	.loc 4 330 0
	lwz 3,300(31)
	li 5,-120
	li 4,0
	lwz 9,0(3)
	lwz 0,168(9)
	b .L409
.L420:
	.loc 4 338 0
	lwz 9,0(11)
	mr 3,11
	li 4,65
	lwz 0,180(9)
	mtctr 0
	bctrl
	.loc 4 339 0
	lwz 3,304(31)
	li 5,-50
	li 4,40
	lwz 9,0(3)
	lwz 0,168(9)
	mtctr 0
	bctrl
	.loc 4 340 0
	lwz 3,308(31)
	li 4,68
	lwz 9,0(3)
	lwz 0,180(9)
	mtctr 0
	bctrl
	.loc 4 341 0
	lwz 3,308(31)
	li 4,-40
	b .L408
.L419:
	.loc 4 309 0
	lwz 9,0(3)
	li 4,65
	lwz 0,180(9)
	mtctr 0
	bctrl
	.loc 4 310 0
	lwz 3,300(31)
	li 5,-120
	li 4,50
	lwz 9,0(3)
	lwz 0,168(9)
	mtctr 0
	bctrl
	.loc 4 311 0
	lwz 3,304(31)
	li 4,68
	lwz 9,0(3)
	lwz 0,180(9)
	mtctr 0
	bctrl
	.loc 4 312 0
	lwz 3,304(31)
	li 5,-120
	li 4,-50
	lwz 9,0(3)
	lwz 0,168(9)
	mtctr 0
	bctrl
	.loc 4 313 0
	lwz 3,308(31)
	li 4,66
	lwz 9,0(3)
	lwz 0,180(9)
	mtctr 0
	bctrl
	.loc 4 314 0
	lwz 3,308(31)
	li 4,0
	b .L407
.LVL466:
.L401:
.L413:
	mr 31,3
.LVL467:
	.loc 4 282 0
	mr 3,29
	bl _ZdlPv
	mr 3,31
	bl _Unwind_Resume
.LVL468:
.L398:
.L410:
	mr 31,3
.LVL469:
	.loc 4 261 0
	mr 3,27
	bl _ZdlPv
	mr 3,31
	bl _Unwind_Resume
.LVL470:
.L404:
.L412:
	mr 31,3
.LVL471:
	.loc 4 293 0
	mr 3,30
	bl _ZdlPv
	mr 3,31
	bl _Unwind_Resume
.LVL472:
.L397:
	b .L410
.LVL473:
.L402:
	b .L413
.LVL474:
.L399:
.L411:
	mr 31,3
.LVL475:
	.loc 4 271 0
	mr 3,28
	bl _ZdlPv
	mr 3,31
	bl _Unwind_Resume
.LEHE53:
.LVL476:
.L400:
	b .L411
.LVL477:
.L403:
	b .L412
.LBE4301:
	.cfi_endproc
.LFE1606:
	.section	.gcc_except_table
.LLSDA1606:
	.byte	0xff
	.byte	0xff
	.byte	0x1
	.uleb128 .LLSDACSE1606-.LLSDACSB1606
.LLSDACSB1606:
	.uleb128 .LEHB37-.LFB1606
	.uleb128 .LEHE37-.LEHB37
	.uleb128 0
	.uleb128 0
	.uleb128 .LEHB38-.LFB1606
	.uleb128 .LEHE38-.LEHB38
	.uleb128 .L403-.LFB1606
	.uleb128 0
	.uleb128 .LEHB39-.LFB1606
	.uleb128 .LEHE39-.LEHB39
	.uleb128 0
	.uleb128 0
	.uleb128 .LEHB40-.LFB1606
	.uleb128 .LEHE40-.LEHB40
	.uleb128 .L404-.LFB1606
	.uleb128 0
	.uleb128 .LEHB41-.LFB1606
	.uleb128 .LEHE41-.LEHB41
	.uleb128 0
	.uleb128 0
	.uleb128 .LEHB42-.LFB1606
	.uleb128 .LEHE42-.LEHB42
	.uleb128 .L401-.LFB1606
	.uleb128 0
	.uleb128 .LEHB43-.LFB1606
	.uleb128 .LEHE43-.LEHB43
	.uleb128 0
	.uleb128 0
	.uleb128 .LEHB44-.LFB1606
	.uleb128 .LEHE44-.LEHB44
	.uleb128 .L402-.LFB1606
	.uleb128 0
	.uleb128 .LEHB45-.LFB1606
	.uleb128 .LEHE45-.LEHB45
	.uleb128 0
	.uleb128 0
	.uleb128 .LEHB46-.LFB1606
	.uleb128 .LEHE46-.LEHB46
	.uleb128 .L399-.LFB1606
	.uleb128 0
	.uleb128 .LEHB47-.LFB1606
	.uleb128 .LEHE47-.LEHB47
	.uleb128 0
	.uleb128 0
	.uleb128 .LEHB48-.LFB1606
	.uleb128 .LEHE48-.LEHB48
	.uleb128 .L400-.LFB1606
	.uleb128 0
	.uleb128 .LEHB49-.LFB1606
	.uleb128 .LEHE49-.LEHB49
	.uleb128 0
	.uleb128 0
	.uleb128 .LEHB50-.LFB1606
	.uleb128 .LEHE50-.LEHB50
	.uleb128 .L397-.LFB1606
	.uleb128 0
	.uleb128 .LEHB51-.LFB1606
	.uleb128 .LEHE51-.LEHB51
	.uleb128 0
	.uleb128 0
	.uleb128 .LEHB52-.LFB1606
	.uleb128 .LEHE52-.LEHB52
	.uleb128 .L398-.LFB1606
	.uleb128 0
	.uleb128 .LEHB53-.LFB1606
	.uleb128 .LEHE53-.LEHB53
	.uleb128 0
	.uleb128 0
.LLSDACSE1606:
	.section	".text"
	.size	_ZN12UpdateWindow10SetButtonsESsSsSsSs, .-_ZN12UpdateWindow10SetButtonsESsSsSsSs
	.align 2
	.type	_ZN12UpdateWindow10SetButtonsESsSsSsSs.constprop.149, @function
_ZN12UpdateWindow10SetButtonsESsSsSsSs.constprop.149:
.LFB2335:
	.loc 4 256 0
	.cfi_startproc
	.cfi_personality 0,__gxx_personality_v0
	.cfi_lsda 0,.LLSDA2335
.LVL478:
	mflr 0
	stwu 1,-56(1)
.LCFI78:
	.cfi_def_cfa_offset 56
	.cfi_register 65, 0
	stw 26,32(1)
	stw 0,60(1)
	stw 28,40(1)
	mr 28,5
	.cfi_offset 28, -16
	.cfi_offset 65, 4
	.cfi_offset 26, -24
.LBB4302:
.LBB4303:
.LBB4304:
.LBB4305:
.LBB4306:
.LBB4307:
.LBB4308:
	.loc 16 288 0
	lwz 26,0(4)
.LBE4308:
.LBE4307:
.LBE4306:
.LBE4305:
.LBE4304:
.LBE4303:
.LBE4302:
	.loc 4 256 0
	stw 29,44(1)
	mr 29,6
	.cfi_offset 29, -12
.LBB4337:
	.loc 4 258 0
	lwz 0,-12(26)
.LBE4337:
	.loc 4 256 0
	stw 30,48(1)
	mr 30,7
	.cfi_offset 30, -8
.LBB4338:
	.loc 4 258 0
	cmpwi 7,0,0
.LBE4338:
	.loc 4 256 0
	stw 31,52(1)
	stw 24,24(1)
	mr 31,3
	.cfi_offset 24, -32
	.cfi_offset 31, -4
	stw 25,28(1)
	stw 27,36(1)
.LBB4339:
	.loc 4 258 0
	bne- 7,.L466
	.cfi_offset 27, -20
	.cfi_offset 25, -28
.LVL479:
.L423:
.LBB4309:
.LBB4310:
.LBB4311:
.LBB4312:
.LBB4313:
.LBB4314:
	.loc 16 288 0
	lwz 26,0(28)
.LBE4314:
.LBE4313:
.LBE4312:
.LBE4311:
.LBE4310:
.LBE4309:
	.loc 4 268 0
	lwz 0,-12(26)
	cmpwi 7,0,0
	bne- 7,.L467
.LVL480:
.L424:
.LBB4315:
.LBB4316:
.LBB4317:
.LBB4318:
.LBB4319:
.LBB4320:
	.loc 16 288 0
	lwz 27,0(29)
.LBE4320:
.LBE4319:
.LBE4318:
.LBE4317:
.LBE4316:
.LBE4315:
	.loc 4 279 0
	lwz 0,-12(27)
	cmpwi 7,0,0
	bne- 7,.L468
.LVL481:
.L426:
.LBB4321:
.LBB4322:
.LBB4323:
.LBB4324:
.LBB4325:
.LBB4326:
	.loc 16 288 0
	lwz 28,0(30)
.LBE4326:
.LBE4325:
.LBE4324:
.LBE4323:
.LBE4322:
.LBE4321:
	.loc 4 290 0
	lwz 0,-12(28)
	cmpwi 7,0,0
	bne- 7,.L469
.LVL482:
.L428:
	.loc 4 300 0
	lwz 3,300(31)
	cmpwi 7,3,0
	beq- 7,.L429
	lwz 0,304(31)
	cmpwi 7,0,0
	lwz 0,308(31)
	beq- 7,.L430
	cmpwi 7,0,0
	beq- 7,.L470
	.loc 4 307 0
	lwz 9,312(31)
	cmpwi 7,9,0
	beq- 7,.L471
	.loc 4 316 0
	cmpwi 7,0,0
	beq- 7,.L434
	lwz 0,312(31)
	cmpwi 7,0,0
	beq- 7,.L434
	.loc 4 318 0
	lwz 9,0(3)
	li 4,65
	lwz 0,180(9)
	mtctr 0
.LEHB54:
	bctrl
	.loc 4 319 0
	lwz 3,300(31)
	li 5,-120
	li 4,50
	lwz 9,0(3)
	lwz 0,168(9)
	mtctr 0
	bctrl
	.loc 4 320 0
	lwz 3,304(31)
	li 4,68
	lwz 9,0(3)
	lwz 0,180(9)
	mtctr 0
	bctrl
	.loc 4 321 0
	lwz 3,304(31)
	li 5,-120
	li 4,-50
	lwz 9,0(3)
	lwz 0,168(9)
.L460:
	mtctr 0
	bctrl
	.loc 4 322 0
	lwz 3,308(31)
	li 4,65
	lwz 9,0(3)
	lwz 0,180(9)
	mtctr 0
	bctrl
	.loc 4 323 0
	lwz 3,308(31)
	li 5,-65
	li 4,50
	lwz 9,0(3)
	lwz 0,168(9)
	mtctr 0
	bctrl
	.loc 4 324 0
	lwz 3,312(31)
	li 4,68
	lwz 9,0(3)
	lwz 0,180(9)
	mtctr 0
	bctrl
	.loc 4 325 0
	lwz 3,312(31)
	li 4,-50
.L461:
	lwz 9,0(3)
	li 5,-65
	lwz 0,168(9)
	mtctr 0
	bctrl
.L432:
.LVL483:
.LBB4327:
	.loc 4 351 0
	lwz 4,300(31)
	cmpwi 7,4,0
	beq- 7,.L435
	.loc 4 352 0
	mr 3,31
	bl _ZN8GuiFrame6AppendEP10GuiElement
.L435:
.LVL484:
	.loc 4 351 0
	lwz 4,304(31)
	cmpwi 7,4,0
	beq- 7,.L436
	.loc 4 352 0
	mr 3,31
	bl _ZN8GuiFrame6AppendEP10GuiElement
.L436:
.LVL485:
	.loc 4 351 0
	lwz 4,308(31)
	cmpwi 7,4,0
	beq- 7,.L437
	.loc 4 352 0
	mr 3,31
	bl _ZN8GuiFrame6AppendEP10GuiElement
.L437:
.LVL486:
	.loc 4 351 0
	lwz 4,312(31)
	cmpwi 7,4,0
	beq- 7,.L422
	.loc 4 352 0
	mr 3,31
	bl _ZN8GuiFrame6AppendEP10GuiElement
.LVL487:
.L422:
.LBE4327:
.LBE4339:
	.loc 4 354 0
	lwz 0,60(1)
	lwz 24,24(1)
	mtlr 0
	lwz 25,28(1)
	lwz 26,32(1)
	lwz 27,36(1)
	lwz 28,40(1)
	lwz 29,44(1)
	lwz 30,48(1)
	lwz 31,52(1)
.LVL488:
	addi 1,1,56
	.cfi_remember_state
.LCFI79:
	.cfi_def_cfa_offset 0
	.cfi_restore 31
	.cfi_restore 30
	.cfi_restore 29
	.cfi_restore 28
	.cfi_restore 27
	.cfi_restore 26
	.cfi_restore 25
	.cfi_restore 24
	blr
.LVL489:
.L429:
.LCFI80:
	.cfi_restore_state
.LBB4340:
	.loc 4 336 0
	lwz 11,304(31)
	cmpwi 7,11,0
	beq- 7,.L434
	lwz 0,308(31)
	cmpwi 7,0,0
	beq- 7,.L434
	lwz 0,312(31)
	cmpwi 7,0,0
	beq- 7,.L472
.L434:
	.loc 4 345 0
	lwz 9,0(3)
	li 4,66
	lwz 0,180(9)
	mtctr 0
	bctrl
	.loc 4 346 0
	lwz 3,300(31)
	li 4,0
.L459:
	.loc 4 341 0
	lwz 9,0(3)
	li 5,-50
	lwz 0,168(9)
	mtctr 0
	bctrl
	b .L432
.LVL490:
.L469:
	.loc 4 292 0
	lis 3,.LC10@ha
	la 3,.LC10@l(3)
	bl getThemeInt
	mr 29,3
	lis 3,.LC7@ha
	la 3,.LC7@l(3)
	bl getThemeColor
	mr 27,3
	li 3,208
	bl _Znwj
.LEHE54:
	mr 6,1
	stwu 27,8(6)
	mr 4,28
	mr 5,29
	mr 30,3
.LVL491:
.LEHB55:
	bl _ZN7GuiTextC1EPKci9_gx_color
.LEHE55:
	stw 30,296(31)
	.loc 4 293 0
	li 3,320
.LEHB56:
	bl _Znwj
.LEHE56:
	lis 4,.LC11@ha
	la 4,.LC11@l(4)
	lwz 6,316(31)
	lwz 7,320(31)
	mr 5,4
	mr 30,3
.LEHB57:
	bl _ZN13PictureButtonC1EPKcS1_P8GuiSoundS3_
.LEHE57:
	.loc 4 294 0
	lwz 4,296(31)
	li 5,0
	.loc 4 293 0
	stw 30,312(31)
	.loc 4 294 0
	mr 3,30
.LEHB58:
	bl _ZN9GuiButton8SetLabelEP7GuiTexti
	.loc 4 295 0
	lwz 3,312(31)
	lwz 4,328(31)
	bl _ZN9GuiButton10SetTriggerEP10GuiTrigger
	.loc 4 296 0
	lwz 3,312(31)
	lwz 4,324(31)
	bl _ZN9GuiButton10SetTriggerEP10GuiTrigger
	.loc 4 297 0
	lwz 3,312(31)
	lis 9,_ZN12UpdateWindow13OnButtonClickEP9GuiButtoniRK6_POINT@ha
	mr 4,31
	la 0,_ZN12UpdateWindow13OnButtonClickEP9GuiButtoniRK6_POINT@l(9)
	addi 3,3,144
	stw 0,16(1)
	addi 5,1,16
	li 0,0
	stw 0,20(1)
	bl _ZN7sigslot7signal3IP9GuiButtoniRK6_POINTNS_15single_threadedEE7connectI12UpdateWindowEEvPT_MSA_FvS2_iS5_E
	b .L428
.LVL492:
.L468:
	.loc 4 281 0
	lis 3,.LC10@ha
	la 3,.LC10@l(3)
	bl getThemeInt
	mr 28,3
	lis 3,.LC7@ha
	la 3,.LC7@l(3)
	bl getThemeColor
	mr 26,3
	li 3,208
	bl _Znwj
.LEHE58:
	mr 6,1
	stwu 26,8(6)
	mr 4,27
	mr 5,28
	mr 29,3
.LVL493:
.LEHB59:
	bl _ZN7GuiTextC1EPKci9_gx_color
.LEHE59:
	stw 29,292(31)
	.loc 4 282 0
	li 3,320
.LEHB60:
	bl _Znwj
.LEHE60:
	lis 4,.LC11@ha
	la 4,.LC11@l(4)
	lwz 6,316(31)
	lwz 7,320(31)
	mr 5,4
	mr 29,3
.LEHB61:
	bl _ZN13PictureButtonC1EPKcS1_P8GuiSoundS3_
.LEHE61:
	stw 29,308(31)
	.loc 4 283 0
	mr 3,29
	lwz 4,292(31)
	li 5,0
.LEHB62:
	bl _ZN9GuiButton8SetLabelEP7GuiTexti
.LVL494:
.LBB4328:
.LBB4329:
.LBB4330:
	.loc 16 711 0
	lwz 9,0(30)
.LBE4330:
.LBE4329:
.LBE4328:
	.loc 4 284 0
	lwz 0,-12(9)
	cmpwi 7,0,0
	beq- 7,.L473
.L427:
	.loc 4 286 0
	lwz 3,308(31)
	lwz 4,324(31)
	bl _ZN9GuiButton10SetTriggerEP10GuiTrigger
	.loc 4 287 0
	lwz 3,308(31)
	lis 9,_ZN12UpdateWindow13OnButtonClickEP9GuiButtoniRK6_POINT@ha
	mr 4,31
	la 0,_ZN12UpdateWindow13OnButtonClickEP9GuiButtoniRK6_POINT@l(9)
	addi 3,3,144
	stw 0,16(1)
	addi 5,1,16
	li 0,0
	stw 0,20(1)
	bl _ZN7sigslot7signal3IP9GuiButtoniRK6_POINTNS_15single_threadedEE7connectI12UpdateWindowEEvPT_MSA_FvS2_iS5_E
	b .L426
.LVL495:
.L467:
	.loc 4 270 0
	lis 3,.LC10@ha
	la 3,.LC10@l(3)
	bl getThemeInt
	mr 27,3
	lis 3,.LC7@ha
	la 3,.LC7@l(3)
	bl getThemeColor
	mr 25,3
	li 3,208
	bl _Znwj
.LEHE62:
	mr 6,1
	stwu 25,8(6)
	mr 4,26
	mr 5,27
	mr 28,3
.LVL496:
.LEHB63:
	bl _ZN7GuiTextC1EPKci9_gx_color
.LEHE63:
	stw 28,288(31)
	.loc 4 271 0
	li 3,320
.LEHB64:
	bl _Znwj
.LEHE64:
	lis 4,.LC11@ha
	la 4,.LC11@l(4)
	lwz 6,316(31)
	lwz 7,320(31)
	mr 5,4
	mr 28,3
.LEHB65:
	bl _ZN13PictureButtonC1EPKcS1_P8GuiSoundS3_
.LEHE65:
	stw 28,304(31)
	.loc 4 272 0
	mr 3,28
	lwz 4,288(31)
	li 5,0
.LEHB66:
	bl _ZN9GuiButton8SetLabelEP7GuiTexti
.LVL497:
.LBB4331:
.LBB4332:
.LBB4333:
	.loc 16 711 0
	lwz 9,0(29)
.LBE4333:
.LBE4332:
.LBE4331:
	.loc 4 273 0
	lwz 0,-12(9)
	cmpwi 7,0,0
	bne- 7,.L425
.LVL498:
.LBB4334:
.LBB4335:
.LBB4336:
	.loc 16 711 0
	lwz 9,0(30)
.LBE4336:
.LBE4335:
.LBE4334:
	.loc 4 273 0
	lwz 0,-12(9)
	cmpwi 7,0,0
	bne- 7,.L425
	.loc 4 274 0
	lwz 3,304(31)
	lwz 4,328(31)
	bl _ZN9GuiButton10SetTriggerEP10GuiTrigger
.LVL499:
.L425:
	.loc 4 275 0
	lwz 3,304(31)
	lwz 4,324(31)
	bl _ZN9GuiButton10SetTriggerEP10GuiTrigger
	.loc 4 276 0
	lwz 3,304(31)
	lis 9,_ZN12UpdateWindow13OnButtonClickEP9GuiButtoniRK6_POINT@ha
	mr 4,31
	la 0,_ZN12UpdateWindow13OnButtonClickEP9GuiButtoniRK6_POINT@l(9)
	addi 3,3,144
	stw 0,16(1)
	addi 5,1,16
	li 0,0
	stw 0,20(1)
	bl _ZN7sigslot7signal3IP9GuiButtoniRK6_POINTNS_15single_threadedEE7connectI12UpdateWindowEEvPT_MSA_FvS2_iS5_E
	b .L424
.LVL500:
.L466:
	.loc 4 260 0
	lis 3,.LC10@ha
	la 3,.LC10@l(3)
	bl getThemeInt
.LVL501:
	mr 25,3
	lis 3,.LC7@ha
	la 3,.LC7@l(3)
	bl getThemeColor
	mr 24,3
	li 3,208
	bl _Znwj
.LEHE66:
	mr 6,1
	stwu 24,8(6)
	mr 4,26
	mr 5,25
	mr 27,3
.LEHB67:
	bl _ZN7GuiTextC1EPKci9_gx_color
.LEHE67:
	stw 27,284(31)
	.loc 4 261 0
	li 3,320
.LEHB68:
	bl _Znwj
.LEHE68:
	lis 4,.LC11@ha
	la 4,.LC11@l(4)
	lwz 6,316(31)
	lwz 7,320(31)
	mr 5,4
	mr 27,3
.LEHB69:
	bl _ZN13PictureButtonC1EPKcS1_P8GuiSoundS3_
.LEHE69:
	.loc 4 262 0
	lwz 4,284(31)
	li 5,0
	.loc 4 261 0
	stw 27,300(31)
	.loc 4 262 0
	mr 3,27
.LEHB70:
	bl _ZN9GuiButton8SetLabelEP7GuiTexti
	.loc 4 263 0
	lwz 3,300(31)
	lwz 4,324(31)
	bl _ZN9GuiButton10SetTriggerEP10GuiTrigger
	.loc 4 264 0
	lwz 3,300(31)
	li 4,1
	li 5,-1
	lwz 9,0(3)
	lwz 0,80(9)
	mtctr 0
	bctrl
	.loc 4 265 0
	lwz 3,300(31)
	lis 9,_ZN12UpdateWindow13OnButtonClickEP9GuiButtoniRK6_POINT@ha
	mr 4,31
	la 0,_ZN12UpdateWindow13OnButtonClickEP9GuiButtoniRK6_POINT@l(9)
	addi 3,3,144
	stw 0,16(1)
	addi 5,1,16
	li 0,0
	stw 0,20(1)
	bl _ZN7sigslot7signal3IP9GuiButtoniRK6_POINTNS_15single_threadedEE7connectI12UpdateWindowEEvPT_MSA_FvS2_iS5_E
	b .L423
.LVL502:
.L470:
	.loc 4 300 0
	lwz 0,312(31)
	cmpwi 7,0,0
	bne+ 7,.L434
	.loc 4 302 0
	lwz 9,0(3)
	li 4,65
	lwz 0,180(9)
	mtctr 0
	bctrl
	.loc 4 303 0
	lwz 3,300(31)
	li 5,-50
	li 4,40
	lwz 9,0(3)
	lwz 0,168(9)
	mtctr 0
	bctrl
	.loc 4 304 0
	lwz 3,304(31)
	li 4,68
	lwz 9,0(3)
	lwz 0,180(9)
	mtctr 0
	bctrl
	.loc 4 305 0
	lwz 3,304(31)
	.loc 4 341 0
	li 4,-40
	b .L459
.LVL503:
.L473:
	.loc 4 285 0
	lwz 3,308(31)
	lwz 4,328(31)
	bl _ZN9GuiButton10SetTriggerEP10GuiTrigger
	b .L427
.LVL504:
.L430:
	.loc 4 327 0
	cmpwi 7,0,0
	beq- 7,.L434
	lwz 0,312(31)
	cmpwi 7,0,0
	beq- 7,.L434
	.loc 4 329 0
	lwz 9,0(3)
	li 4,66
	lwz 0,180(9)
	mtctr 0
	bctrl
	.loc 4 330 0
	lwz 3,300(31)
	li 5,-120
	li 4,0
	lwz 9,0(3)
	lwz 0,168(9)
	b .L460
.L472:
	.loc 4 338 0
	lwz 9,0(11)
	mr 3,11
	li 4,65
	lwz 0,180(9)
	mtctr 0
	bctrl
	.loc 4 339 0
	lwz 3,304(31)
	li 5,-50
	li 4,40
	lwz 9,0(3)
	lwz 0,168(9)
	mtctr 0
	bctrl
	.loc 4 340 0
	lwz 3,308(31)
	li 4,68
	lwz 9,0(3)
	lwz 0,180(9)
	mtctr 0
	bctrl
	.loc 4 341 0
	lwz 3,308(31)
	li 4,-40
	b .L459
.L471:
	.loc 4 309 0
	lwz 9,0(3)
	li 4,65
	lwz 0,180(9)
	mtctr 0
	bctrl
	.loc 4 310 0
	lwz 3,300(31)
	li 5,-120
	li 4,50
	lwz 9,0(3)
	lwz 0,168(9)
	mtctr 0
	bctrl
	.loc 4 311 0
	lwz 3,304(31)
	li 4,68
	lwz 9,0(3)
	lwz 0,180(9)
	mtctr 0
	bctrl
	.loc 4 312 0
	lwz 3,304(31)
	li 5,-120
	li 4,-50
	lwz 9,0(3)
	lwz 0,168(9)
	mtctr 0
	bctrl
	.loc 4 313 0
	lwz 3,308(31)
	li 4,66
	lwz 9,0(3)
	lwz 0,180(9)
	mtctr 0
	bctrl
	.loc 4 314 0
	lwz 3,308(31)
	li 4,0
	b .L461
.LVL505:
.L451:
.L465:
	mr 31,3
.LVL506:
	.loc 4 282 0
	mr 3,29
	bl _ZdlPv
	mr 3,31
	bl _Unwind_Resume
.LVL507:
.L454:
.L462:
	mr 31,3
.LVL508:
	.loc 4 261 0
	mr 3,27
	bl _ZdlPv
	mr 3,31
	bl _Unwind_Resume
.LVL509:
.L448:
.L464:
	mr 31,3
.LVL510:
	.loc 4 293 0
	mr 3,30
	bl _ZdlPv
	mr 3,31
	bl _Unwind_Resume
.LVL511:
.L455:
	b .L462
.LVL512:
.L450:
	b .L465
.LVL513:
.L453:
.L463:
	mr 31,3
.LVL514:
	.loc 4 271 0
	mr 3,28
	bl _ZdlPv
	mr 3,31
	bl _Unwind_Resume
.LEHE70:
.LVL515:
.L452:
	b .L463
.LVL516:
.L449:
	b .L464
.LBE4340:
	.cfi_endproc
.LFE2335:
	.section	.gcc_except_table
.LLSDA2335:
	.byte	0xff
	.byte	0xff
	.byte	0x1
	.uleb128 .LLSDACSE2335-.LLSDACSB2335
.LLSDACSB2335:
	.uleb128 .LEHB54-.LFB2335
	.uleb128 .LEHE54-.LEHB54
	.uleb128 0
	.uleb128 0
	.uleb128 .LEHB55-.LFB2335
	.uleb128 .LEHE55-.LEHB55
	.uleb128 .L449-.LFB2335
	.uleb128 0
	.uleb128 .LEHB56-.LFB2335
	.uleb128 .LEHE56-.LEHB56
	.uleb128 0
	.uleb128 0
	.uleb128 .LEHB57-.LFB2335
	.uleb128 .LEHE57-.LEHB57
	.uleb128 .L448-.LFB2335
	.uleb128 0
	.uleb128 .LEHB58-.LFB2335
	.uleb128 .LEHE58-.LEHB58
	.uleb128 0
	.uleb128 0
	.uleb128 .LEHB59-.LFB2335
	.uleb128 .LEHE59-.LEHB59
	.uleb128 .L451-.LFB2335
	.uleb128 0
	.uleb128 .LEHB60-.LFB2335
	.uleb128 .LEHE60-.LEHB60
	.uleb128 0
	.uleb128 0
	.uleb128 .LEHB61-.LFB2335
	.uleb128 .LEHE61-.LEHB61
	.uleb128 .L450-.LFB2335
	.uleb128 0
	.uleb128 .LEHB62-.LFB2335
	.uleb128 .LEHE62-.LEHB62
	.uleb128 0
	.uleb128 0
	.uleb128 .LEHB63-.LFB2335
	.uleb128 .LEHE63-.LEHB63
	.uleb128 .L453-.LFB2335
	.uleb128 0
	.uleb128 .LEHB64-.LFB2335
	.uleb128 .LEHE64-.LEHB64
	.uleb128 0
	.uleb128 0
	.uleb128 .LEHB65-.LFB2335
	.uleb128 .LEHE65-.LEHB65
	.uleb128 .L452-.LFB2335
	.uleb128 0
	.uleb128 .LEHB66-.LFB2335
	.uleb128 .LEHE66-.LEHB66
	.uleb128 0
	.uleb128 0
	.uleb128 .LEHB67-.LFB2335
	.uleb128 .LEHE67-.LEHB67
	.uleb128 .L455-.LFB2335
	.uleb128 0
	.uleb128 .LEHB68-.LFB2335
	.uleb128 .LEHE68-.LEHB68
	.uleb128 0
	.uleb128 0
	.uleb128 .LEHB69-.LFB2335
	.uleb128 .LEHE69-.LEHB69
	.uleb128 .L454-.LFB2335
	.uleb128 0
	.uleb128 .LEHB70-.LFB2335
	.uleb128 .LEHE70-.LEHB70
	.uleb128 0
	.uleb128 0
.LLSDACSE2335:
	.section	".text"
	.size	_ZN12UpdateWindow10SetButtonsESsSsSsSs.constprop.149, .-_ZN12UpdateWindow10SetButtonsESsSsSsSs.constprop.149
	.align 2
	.type	_ZN12UpdateWindow11ShowButtonsESsSsSsSsSsSs.constprop.148, @function
_ZN12UpdateWindow11ShowButtonsESsSsSsSsSsSs.constprop.148:
.LFB2336:
	.loc 4 183 0
	.cfi_startproc
	.cfi_personality 0,__gxx_personality_v0
	.cfi_lsda 0,.LLSDA2336
.LVL517:
	stwu 1,-80(1)
.LCFI81:
	.cfi_def_cfa_offset 80
	mflr 0
	stw 30,72(1)
	mr 30,3
	.cfi_offset 30, -8
	.cfi_register 65, 0
	stw 0,84(1)
	stw 24,48(1)
	stw 25,52(1)
	mr 25,5
	.cfi_offset 25, -28
	.cfi_offset 24, -32
	.cfi_offset 65, 4
	stw 26,56(1)
	mr 26,6
	.cfi_offset 26, -24
	stw 27,60(1)
	mr 27,7
	.cfi_offset 27, -20
	stw 28,64(1)
	mr 28,8
	.cfi_offset 28, -16
	stw 29,68(1)
	mr 29,9
	.cfi_offset 29, -12
	stw 31,76(1)
	.loc 4 185 0
	stw 4,40(1)
.LEHB71:
	.cfi_offset 31, -4
	bl _ZN12UpdateWindow11RemoveItemsEv
.LVL518:
	.loc 4 187 0
	lwz 31,276(30)
	addi 3,1,16
	lwz 4,40(1)
	lwz 9,0(31)
	lwz 24,204(9)
	bl _ZNSsC1ERKSs
.LEHE71:
	mr 3,31
	addi 4,1,16
	mtctr 24
.LEHB72:
	bctrl
.LEHE72:
.LVL519:
.LBB4467:
.LBB4468:
.LBB4469:
.LBB4470:
.LBB4471:
.LBB4472:
	.loc 16 288 0
	lwz 9,16(1)
.LBE4472:
.LBE4471:
.LBE4470:
.LBB4473:
.LBB4474:
	.loc 16 235 0
	lis 31,_ZNSs4_Rep20_S_empty_rep_storageE@ha
	la 31,_ZNSs4_Rep20_S_empty_rep_storageE@l(31)
.LBE4474:
.LBE4473:
	.loc 16 534 0
	addi 3,9,-12
.LVL520:
.LBB4483:
.LBB4481:
	.loc 16 235 0
	cmpw 7,3,31
	bne- 7,.L523
.LVL521:
.L480:
.LBE4481:
.LBE4483:
.LBE4469:
.LBE4468:
.LBE4467:
	.loc 4 188 0
	lwz 24,280(30)
	mr 4,25
	addi 3,1,20
	lwz 9,0(24)
	lwz 25,204(9)
.LVL522:
.LEHB73:
	bl _ZNSsC1ERKSs
.LEHE73:
.LVL523:
	mr 3,24
	addi 4,1,20
	mtctr 25
.LEHB74:
	bctrl
.LEHE74:
.LVL524:
.LBB4487:
.LBB4488:
.LBB4489:
.LBB4490:
.LBB4491:
.LBB4492:
	.loc 16 288 0
	lwz 9,20(1)
.LBE4492:
.LBE4491:
.LBE4490:
	.loc 16 534 0
	addi 3,9,-12
.LVL525:
.LBB4493:
.LBB4494:
	.loc 16 235 0
	cmpw 7,3,31
	bne- 7,.L524
.LVL526:
.L486:
.LBE4494:
.LBE4493:
.LBE4489:
.LBE4488:
.LBE4487:
	.loc 4 190 0
	addi 3,1,24
	mr 4,26
.LEHB75:
	bl _ZNSsC1ERKSs
.LEHE75:
	addi 3,1,28
	mr 4,27
.LEHB76:
	bl _ZNSsC1ERKSs
.LEHE76:
	addi 3,1,32
	mr 4,28
.LEHB77:
	bl _ZNSsC1ERKSs
.LEHE77:
	addi 3,1,36
	mr 4,29
.LEHB78:
	bl _ZNSsC1ERKSs
.LEHE78:
	mr 3,30
	addi 4,1,24
	addi 5,1,28
	addi 6,1,32
	addi 7,1,36
.LEHB79:
	bl _ZN12UpdateWindow10SetButtonsESsSsSsSs.constprop.149
.LEHE79:
.LVL527:
.LBB4505:
.LBB4506:
.LBB4507:
.LBB4508:
.LBB4509:
.LBB4510:
	.loc 16 288 0
	lwz 9,36(1)
.LBE4510:
.LBE4509:
.LBE4508:
	.loc 16 534 0
	addi 3,9,-12
.LVL528:
.LBB4511:
.LBB4512:
	.loc 16 235 0
	cmpw 7,3,31
	bne- 7,.L525
.LVL529:
.L492:
.LBE4512:
.LBE4511:
.LBE4507:
.LBE4506:
.LBE4505:
.LBB4523:
.LBB4524:
.LBB4525:
.LBB4526:
.LBB4527:
.LBB4528:
	.loc 16 288 0
	lwz 9,32(1)
.LBE4528:
.LBE4527:
.LBE4526:
	.loc 16 534 0
	addi 3,9,-12
.LVL530:
.LBB4529:
.LBB4530:
	.loc 16 235 0
	cmpw 7,3,31
	bne- 7,.L526
.LVL531:
.L498:
.LBE4530:
.LBE4529:
.LBE4525:
.LBE4524:
.LBE4523:
.LBB4541:
.LBB4542:
.LBB4543:
.LBB4544:
.LBB4545:
.LBB4546:
	.loc 16 288 0
	lwz 9,28(1)
.LBE4546:
.LBE4545:
.LBE4544:
	.loc 16 534 0
	addi 3,9,-12
.LVL532:
.LBB4547:
.LBB4548:
	.loc 16 235 0
	cmpw 7,3,31
	bne- 7,.L527
.LVL533:
.L504:
.LBE4548:
.LBE4547:
.LBE4543:
.LBE4542:
.LBE4541:
.LBB4559:
.LBB4560:
.LBB4561:
.LBB4562:
.LBB4563:
.LBB4564:
	.loc 16 288 0
	lwz 9,24(1)
.LBE4564:
.LBE4563:
.LBE4562:
	.loc 16 534 0
	addi 3,9,-12
.LVL534:
.LBB4565:
.LBB4566:
	.loc 16 235 0
	cmpw 7,3,31
	bne- 7,.L528
.LVL535:
.L510:
.LBE4566:
.LBE4565:
.LBE4561:
.LBE4560:
.LBE4559:
	.loc 4 192 0
	li 0,0
	.loc 4 193 0
	lwz 24,48(1)
	.loc 4 192 0
	stw 0,224(30)
	.loc 4 193 0
	lwz 0,84(1)
	lwz 25,52(1)
	mtlr 0
	lwz 26,56(1)
.LVL536:
	lwz 27,60(1)
.LVL537:
	lwz 28,64(1)
.LVL538:
	lwz 29,68(1)
.LVL539:
	lwz 30,72(1)
.LVL540:
	lwz 31,76(1)
	addi 1,1,80
	.cfi_remember_state
.LCFI82:
	.cfi_def_cfa_offset 0
	.cfi_restore 31
	.cfi_restore 30
	.cfi_restore 29
	.cfi_restore 28
	.cfi_restore 27
	.cfi_restore 26
	.cfi_restore 25
	.cfi_restore 24
	blr
.LVL541:
.L523:
.LCFI83:
	.cfi_restore_state
.LBB4577:
.LBB4486:
.LBB4485:
.LBB4484:
.LBB4482:
.LBB4475:
.LBB4476:
.LBB4477:
	.file 17 "d:\\devkitpro\\devkitppc\\bin\\../lib/gcc/powerpc-eabi/4.6.3/../../../../powerpc-eabi/include/c++/4.6.3/ext/atomicity.h"
	.loc 17 66 0
	lwz 11,-4(9)
.LVL542:
.LBE4477:
.LBE4476:
.LBE4475:
	.loc 16 240 0
	cmpwi 7,11,0
.LBB4480:
.LBB4479:
.LBB4478:
	.loc 17 67 0
	addi 11,11,-1
	stw 11,-4(9)
.LBE4478:
.LBE4479:
.LBE4480:
	.loc 16 240 0
	bgt+ 7,.L480
	.loc 16 244 0
	addi 4,1,13
	bl _ZNSs4_Rep10_M_destroyERKSaIcE
.LVL543:
	b .L480
.LVL544:
.L528:
.LBE4482:
.LBE4484:
.LBE4485:
.LBE4486:
.LBE4577:
.LBB4578:
.LBB4576:
.LBB4575:
.LBB4574:
.LBB4573:
.LBB4567:
.LBB4568:
.LBB4569:
	.loc 17 66 0
	lwz 11,-4(9)
.LVL545:
.LBE4569:
.LBE4568:
.LBE4567:
	.loc 16 240 0
	cmpwi 7,11,0
.LBB4572:
.LBB4571:
.LBB4570:
	.loc 17 67 0
	addi 11,11,-1
	stw 11,-4(9)
.LBE4570:
.LBE4571:
.LBE4572:
	.loc 16 240 0
	bgt+ 7,.L510
	.loc 16 244 0
	addi 4,1,8
	bl _ZNSs4_Rep10_M_destroyERKSaIcE
.LVL546:
	b .L510
.LVL547:
.L527:
.LBE4573:
.LBE4574:
.LBE4575:
.LBE4576:
.LBE4578:
.LBB4579:
.LBB4558:
.LBB4557:
.LBB4556:
.LBB4555:
.LBB4549:
.LBB4550:
.LBB4551:
	.loc 17 66 0
	lwz 11,-4(9)
.LVL548:
.LBE4551:
.LBE4550:
.LBE4549:
	.loc 16 240 0
	cmpwi 7,11,0
.LBB4554:
.LBB4553:
.LBB4552:
	.loc 17 67 0
	addi 11,11,-1
	stw 11,-4(9)
.LBE4552:
.LBE4553:
.LBE4554:
	.loc 16 240 0
	bgt+ 7,.L504
	.loc 16 244 0
	addi 4,1,9
	bl _ZNSs4_Rep10_M_destroyERKSaIcE
.LVL549:
	b .L504
.LVL550:
.L526:
.LBE4555:
.LBE4556:
.LBE4557:
.LBE4558:
.LBE4579:
.LBB4580:
.LBB4540:
.LBB4539:
.LBB4538:
.LBB4537:
.LBB4531:
.LBB4532:
.LBB4533:
	.loc 17 66 0
	lwz 11,-4(9)
.LVL551:
.LBE4533:
.LBE4532:
.LBE4531:
	.loc 16 240 0
	cmpwi 7,11,0
.LBB4536:
.LBB4535:
.LBB4534:
	.loc 17 67 0
	addi 11,11,-1
	stw 11,-4(9)
.LBE4534:
.LBE4535:
.LBE4536:
	.loc 16 240 0
	bgt+ 7,.L498
	.loc 16 244 0
	addi 4,1,10
	bl _ZNSs4_Rep10_M_destroyERKSaIcE
.LVL552:
	b .L498
.LVL553:
.L525:
.LBE4537:
.LBE4538:
.LBE4539:
.LBE4540:
.LBE4580:
.LBB4581:
.LBB4522:
.LBB4521:
.LBB4520:
.LBB4519:
.LBB4513:
.LBB4514:
.LBB4515:
	.loc 17 66 0
	lwz 11,-4(9)
.LVL554:
.LBE4515:
.LBE4514:
.LBE4513:
	.loc 16 240 0
	cmpwi 7,11,0
.LBB4518:
.LBB4517:
.LBB4516:
	.loc 17 67 0
	addi 11,11,-1
	stw 11,-4(9)
.LBE4516:
.LBE4517:
.LBE4518:
	.loc 16 240 0
	bgt+ 7,.L492
	.loc 16 244 0
	addi 4,1,11
	bl _ZNSs4_Rep10_M_destroyERKSaIcE
.LVL555:
	b .L492
.LVL556:
.L524:
.LBE4519:
.LBE4520:
.LBE4521:
.LBE4522:
.LBE4581:
.LBB4582:
.LBB4504:
.LBB4503:
.LBB4502:
.LBB4501:
.LBB4495:
.LBB4496:
.LBB4497:
	.loc 17 66 0
	lwz 11,-4(9)
.LVL557:
.LBE4497:
.LBE4496:
.LBE4495:
	.loc 16 240 0
	cmpwi 7,11,0
.LBB4500:
.LBB4499:
.LBB4498:
	.loc 17 67 0
	addi 11,11,-1
	stw 11,-4(9)
.LBE4498:
.LBE4499:
.LBE4500:
	.loc 16 240 0
	bgt+ 7,.L486
	.loc 16 244 0
	addi 4,1,12
	bl _ZNSs4_Rep10_M_destroyERKSaIcE
.LVL558:
	b .L486
.LVL559:
.L522:
	mr 31,3
.LBE4501:
.LBE4502:
.LBE4503:
.LBE4504:
.LBE4582:
	.loc 4 187 0
	addi 3,1,16
	bl _ZNSsD1Ev
	mr 3,31
.LEHB80:
	bl _Unwind_Resume
.LVL560:
.L520:
	mr 31,3
	.loc 4 190 0
	addi 3,1,36
	bl _ZNSsD1Ev
.L514:
	addi 3,1,32
	bl _ZNSsD1Ev
.L515:
	addi 3,1,28
	bl _ZNSsD1Ev
.L516:
	addi 3,1,24
	bl _ZNSsD1Ev
	mr 3,31
	bl _Unwind_Resume
.L519:
	mr 31,3
	b .L514
.L518:
	mr 31,3
	b .L515
.L517:
	mr 31,3
	b .L516
.LVL561:
.L521:
	mr 31,3
	.loc 4 188 0
	addi 3,1,20
	bl _ZNSsD1Ev
	mr 3,31
	bl _Unwind_Resume
.LEHE80:
	.cfi_endproc
.LFE2336:
	.section	.gcc_except_table
.LLSDA2336:
	.byte	0xff
	.byte	0xff
	.byte	0x1
	.uleb128 .LLSDACSE2336-.LLSDACSB2336
.LLSDACSB2336:
	.uleb128 .LEHB71-.LFB2336
	.uleb128 .LEHE71-.LEHB71
	.uleb128 0
	.uleb128 0
	.uleb128 .LEHB72-.LFB2336
	.uleb128 .LEHE72-.LEHB72
	.uleb128 .L522-.LFB2336
	.uleb128 0
	.uleb128 .LEHB73-.LFB2336
	.uleb128 .LEHE73-.LEHB73
	.uleb128 0
	.uleb128 0
	.uleb128 .LEHB74-.LFB2336
	.uleb128 .LEHE74-.LEHB74
	.uleb128 .L521-.LFB2336
	.uleb128 0
	.uleb128 .LEHB75-.LFB2336
	.uleb128 .LEHE75-.LEHB75
	.uleb128 0
	.uleb128 0
	.uleb128 .LEHB76-.LFB2336
	.uleb128 .LEHE76-.LEHB76
	.uleb128 .L517-.LFB2336
	.uleb128 0
	.uleb128 .LEHB77-.LFB2336
	.uleb128 .LEHE77-.LEHB77
	.uleb128 .L518-.LFB2336
	.uleb128 0
	.uleb128 .LEHB78-.LFB2336
	.uleb128 .LEHE78-.LEHB78
	.uleb128 .L519-.LFB2336
	.uleb128 0
	.uleb128 .LEHB79-.LFB2336
	.uleb128 .LEHE79-.LEHB79
	.uleb128 .L520-.LFB2336
	.uleb128 0
	.uleb128 .LEHB80-.LFB2336
	.uleb128 .LEHE80-.LEHB80
	.uleb128 0
	.uleb128 0
.LLSDACSE2336:
	.section	".text"
	.size	_ZN12UpdateWindow11ShowButtonsESsSsSsSsSsSs.constprop.148, .-_ZN12UpdateWindow11ShowButtonsESsSsSsSsSsSs.constprop.148
	.align 2
	.type	_ZN12UpdateWindow6ChooseESsSsSsSsSsSs.constprop.147, @function
_ZN12UpdateWindow6ChooseESsSsSsSsSsSs.constprop.147:
.LFB2337:
	.loc 4 195 0
	.cfi_startproc
	.cfi_personality 0,__gxx_personality_v0
	.cfi_lsda 0,.LLSDA2337
.LVL562:
	stwu 1,-64(1)
.LCFI84:
	.cfi_def_cfa_offset 64
	mflr 0
	stw 26,40(1)
	mr 26,5
	.cfi_offset 26, -24
	.cfi_register 65, 0
	stw 30,56(1)
	mr 30,3
	.cfi_offset 30, -8
.LBB4714:
	.loc 4 197 0
	addi 3,1,16
.LVL563:
.LBE4714:
	.loc 4 195 0
	stw 27,44(1)
	stw 28,48(1)
	mr 27,6
	.cfi_offset 28, -16
	.cfi_offset 27, -20
	stw 29,52(1)
	mr 28,7
	stw 31,60(1)
	mr 29,8
	.cfi_offset 31, -4
	.cfi_offset 29, -12
	stw 0,68(1)
	.loc 4 195 0
	mr 31,9
.LEHB81:
.LBB4845:
	.loc 4 197 0
	.cfi_offset 65, 4
	bl _ZNSsC1ERKSs
.LEHE81:
.LVL564:
	addi 3,1,20
	mr 4,26
.LEHB82:
	bl _ZNSsC1ERKSs
.LEHE82:
	addi 3,1,24
	mr 4,27
.LEHB83:
	bl _ZNSsC1ERKSs
.LEHE83:
	addi 3,1,28
	mr 4,28
.LEHB84:
	bl _ZNSsC1ERKSs
.LEHE84:
	addi 3,1,32
	mr 4,29
.LEHB85:
	bl _ZNSsC1ERKSs
.LEHE85:
	addi 3,1,36
	mr 4,31
.LEHB86:
	bl _ZNSsC1ERKSs
.LEHE86:
	mr 3,30
	addi 4,1,16
	addi 5,1,20
	addi 6,1,24
	addi 7,1,28
	addi 8,1,32
	addi 9,1,36
.LEHB87:
	bl _ZN12UpdateWindow11ShowButtonsESsSsSsSsSsSs.constprop.148
.LEHE87:
.LVL565:
.LBB4715:
.LBB4716:
.LBB4717:
.LBB4718:
.LBB4719:
.LBB4720:
	.loc 16 288 0
	lwz 9,36(1)
.LBE4720:
.LBE4719:
.LBE4718:
.LBB4721:
.LBB4722:
	.loc 16 235 0
	lis 31,_ZNSs4_Rep20_S_empty_rep_storageE@ha
.LVL566:
	la 31,_ZNSs4_Rep20_S_empty_rep_storageE@l(31)
.LBE4722:
.LBE4721:
	.loc 16 534 0
	addi 3,9,-12
.LVL567:
.LBB4731:
.LBB4729:
	.loc 16 235 0
	cmpw 7,3,31
	bne- 7,.L579
.LVL568:
.L535:
.LBE4729:
.LBE4731:
.LBE4717:
.LBE4716:
.LBE4715:
.LBB4735:
.LBB4736:
.LBB4737:
.LBB4738:
.LBB4739:
.LBB4740:
	.loc 16 288 0
	lwz 9,32(1)
.LBE4740:
.LBE4739:
.LBE4738:
	.loc 16 534 0
	addi 3,9,-12
.LVL569:
.LBB4741:
.LBB4742:
	.loc 16 235 0
	cmpw 7,3,31
	bne- 7,.L580
.LVL570:
.L541:
.LBE4742:
.LBE4741:
.LBE4737:
.LBE4736:
.LBE4735:
.LBB4753:
.LBB4754:
.LBB4755:
.LBB4756:
.LBB4757:
.LBB4758:
	.loc 16 288 0
	lwz 9,28(1)
.LBE4758:
.LBE4757:
.LBE4756:
	.loc 16 534 0
	addi 3,9,-12
.LVL571:
.LBB4759:
.LBB4760:
	.loc 16 235 0
	cmpw 7,3,31
	bne- 7,.L581
.LVL572:
.L547:
.LBE4760:
.LBE4759:
.LBE4755:
.LBE4754:
.LBE4753:
.LBB4771:
.LBB4772:
.LBB4773:
.LBB4774:
.LBB4775:
.LBB4776:
	.loc 16 288 0
	lwz 9,24(1)
.LBE4776:
.LBE4775:
.LBE4774:
	.loc 16 534 0
	addi 3,9,-12
.LVL573:
.LBB4777:
.LBB4778:
	.loc 16 235 0
	cmpw 7,3,31
	bne- 7,.L582
.LVL574:
.L553:
.LBE4778:
.LBE4777:
.LBE4773:
.LBE4772:
.LBE4771:
.LBB4789:
.LBB4790:
.LBB4791:
.LBB4792:
.LBB4793:
.LBB4794:
	.loc 16 288 0
	lwz 9,20(1)
.LBE4794:
.LBE4793:
.LBE4792:
	.loc 16 534 0
	addi 3,9,-12
.LVL575:
.LBB4795:
.LBB4796:
	.loc 16 235 0
	cmpw 7,3,31
	bne- 7,.L583
.LVL576:
.L559:
.LBE4796:
.LBE4795:
.LBE4791:
.LBE4790:
.LBE4789:
.LBB4807:
.LBB4808:
.LBB4809:
.LBB4810:
.LBB4811:
	.loc 16 288 0
	lwz 9,16(1)
.LBE4811:
.LBE4810:
.LBE4809:
	.loc 16 534 0
	addi 3,9,-12
.LVL577:
.LBB4812:
.LBB4813:
	.loc 16 235 0
	cmpw 7,3,31
	bne- 7,.L584
.LVL578:
.L560:
.LBE4813:
.LBE4812:
.LBE4808:
.LBE4807:
.LBB4823:
.LBB4824:
	.loc 4 418 0
	lwz 3,216(30)
.LVL579:
	.loc 4 419 0
	li 0,0
	stw 0,216(30)
.LBE4824:
.LBE4823:
	.loc 4 200 0
	cmpwi 7,3,0
	bne- 7,.L561
	lis 29,_ZN11Application8instanceE@ha
.LVL580:
	la 29,_ZN11Application8instanceE@l(29)
	b .L563
.LVL581:
.L562:
	.loc 4 201 0
	lwz 9,0(31)
	mr 3,31
.LVL582:
	lwz 0,216(9)
	mtctr 0
.LEHB88:
	bctrl
.LBB4829:
.LBB4825:
	.loc 4 418 0
	lwz 3,216(30)
.LVL583:
	.loc 4 419 0
	li 0,0
.LBE4825:
.LBE4829:
	.loc 4 200 0
	cmpwi 7,3,0
.LBB4830:
.LBB4826:
	.loc 4 419 0
	stw 0,216(30)
.LBE4826:
.LBE4830:
	.loc 4 200 0
	bne- 7,.L561
.LVL584:
.L563:
.LBB4831:
.LBB4832:
	.file 18 "d:/Projects/SaveGameManager/savegame-manager-gx/trunk/source/Prompts/../Controls/Application.h"
	.loc 18 27 0
	lwz 31,0(29)
	cmpwi 7,31,0
	bne+ 7,.L562
	li 3,632
.LVL585:
	bl _Znwj
.LEHE88:
	mr 31,3
.LEHB89:
	bl _ZN11ApplicationC1Ev
.LEHE89:
.LBE4832:
.LBE4831:
	.loc 4 201 0
	lwz 9,0(31)
	mr 3,31
.LBB4835:
.LBB4833:
	.loc 18 27 0
	stw 31,0(29)
.LBE4833:
.LBE4835:
	.loc 4 201 0
	lwz 0,216(9)
	mtctr 0
.LEHB90:
	bctrl
.LBB4836:
.LBB4827:
	.loc 4 418 0
	lwz 3,216(30)
.LVL586:
	.loc 4 419 0
	li 0,0
.LBE4827:
.LBE4836:
	.loc 4 200 0
	cmpwi 7,3,0
.LBB4837:
.LBB4828:
	.loc 4 419 0
	stw 0,216(30)
.LBE4828:
.LBE4837:
	.loc 4 200 0
	beq+ 7,.L563
.LVL587:
.L561:
.LBE4845:
	.loc 4 204 0
	lwz 0,68(1)
	lwz 26,40(1)
.LVL588:
	mtlr 0
	lwz 27,44(1)
.LVL589:
	lwz 28,48(1)
.LVL590:
	lwz 29,52(1)
	lwz 30,56(1)
.LVL591:
	lwz 31,60(1)
	addi 1,1,64
	.cfi_remember_state
.LCFI85:
	.cfi_def_cfa_offset 0
	.cfi_restore 31
	.cfi_restore 30
	.cfi_restore 29
	.cfi_restore 28
	.cfi_restore 27
	.cfi_restore 26
	blr
.LVL592:
.L571:
.LCFI86:
	.cfi_restore_state
	mr 31,3
.LVL593:
.L570:
.LBB4846:
	.loc 4 197 0
	addi 3,1,16
	bl _ZNSsD1Ev
	mr 3,31
	bl _Unwind_Resume
.LVL594:
.L577:
	mr 30,3
.LVL595:
.LBB4838:
.LBB4834:
	.loc 18 27 0
	mr 3,31
	bl _ZdlPv
	mr 3,30
	bl _Unwind_Resume
.LEHE90:
.LVL596:
.L584:
.LBE4834:
.LBE4838:
.LBB4839:
.LBB4822:
.LBB4821:
.LBB4820:
.LBB4814:
.LBB4815:
.LBB4816:
	.loc 17 66 0
	lwz 11,-4(9)
.LVL597:
.LBE4816:
.LBE4815:
.LBE4814:
	.loc 16 240 0
	cmpwi 7,11,0
.LBB4819:
.LBB4818:
.LBB4817:
	.loc 17 67 0
	addi 11,11,-1
	stw 11,-4(9)
.LBE4817:
.LBE4818:
.LBE4819:
	.loc 16 240 0
	bgt+ 7,.L560
	.loc 16 244 0
	addi 4,1,8
	bl _ZNSs4_Rep10_M_destroyERKSaIcE
.LVL598:
	b .L560
.LVL599:
.L583:
.LBE4820:
.LBE4821:
.LBE4822:
.LBE4839:
.LBB4840:
.LBB4806:
.LBB4805:
.LBB4804:
.LBB4803:
.LBB4797:
.LBB4798:
.LBB4799:
	.loc 17 66 0
	lwz 11,-4(9)
.LVL600:
.LBE4799:
.LBE4798:
.LBE4797:
	.loc 16 240 0
	cmpwi 7,11,0
.LBB4802:
.LBB4801:
.LBB4800:
	.loc 17 67 0
	addi 11,11,-1
	stw 11,-4(9)
.LBE4800:
.LBE4801:
.LBE4802:
	.loc 16 240 0
	bgt+ 7,.L559
	.loc 16 244 0
	addi 4,1,9
	bl _ZNSs4_Rep10_M_destroyERKSaIcE
.LVL601:
	b .L559
.LVL602:
.L582:
.LBE4803:
.LBE4804:
.LBE4805:
.LBE4806:
.LBE4840:
.LBB4841:
.LBB4788:
.LBB4787:
.LBB4786:
.LBB4785:
.LBB4779:
.LBB4780:
.LBB4781:
	.loc 17 66 0
	lwz 11,-4(9)
.LVL603:
.LBE4781:
.LBE4780:
.LBE4779:
	.loc 16 240 0
	cmpwi 7,11,0
.LBB4784:
.LBB4783:
.LBB4782:
	.loc 17 67 0
	addi 11,11,-1
	stw 11,-4(9)
.LBE4782:
.LBE4783:
.LBE4784:
	.loc 16 240 0
	bgt+ 7,.L553
	.loc 16 244 0
	addi 4,1,10
	bl _ZNSs4_Rep10_M_destroyERKSaIcE
.LVL604:
	b .L553
.LVL605:
.L581:
.LBE4785:
.LBE4786:
.LBE4787:
.LBE4788:
.LBE4841:
.LBB4842:
.LBB4770:
.LBB4769:
.LBB4768:
.LBB4767:
.LBB4761:
.LBB4762:
.LBB4763:
	.loc 17 66 0
	lwz 11,-4(9)
.LVL606:
.LBE4763:
.LBE4762:
.LBE4761:
	.loc 16 240 0
	cmpwi 7,11,0
.LBB4766:
.LBB4765:
.LBB4764:
	.loc 17 67 0
	addi 11,11,-1
	stw 11,-4(9)
.LBE4764:
.LBE4765:
.LBE4766:
	.loc 16 240 0
	bgt+ 7,.L547
	.loc 16 244 0
	addi 4,1,11
	bl _ZNSs4_Rep10_M_destroyERKSaIcE
.LVL607:
	b .L547
.LVL608:
.L580:
.LBE4767:
.LBE4768:
.LBE4769:
.LBE4770:
.LBE4842:
.LBB4843:
.LBB4752:
.LBB4751:
.LBB4750:
.LBB4749:
.LBB4743:
.LBB4744:
.LBB4745:
	.loc 17 66 0
	lwz 11,-4(9)
.LVL609:
.LBE4745:
.LBE4744:
.LBE4743:
	.loc 16 240 0
	cmpwi 7,11,0
.LBB4748:
.LBB4747:
.LBB4746:
	.loc 17 67 0
	addi 11,11,-1
	stw 11,-4(9)
.LBE4746:
.LBE4747:
.LBE4748:
	.loc 16 240 0
	bgt+ 7,.L541
	.loc 16 244 0
	addi 4,1,12
	bl _ZNSs4_Rep10_M_destroyERKSaIcE
.LVL610:
	b .L541
.LVL611:
.L579:
.LBE4749:
.LBE4750:
.LBE4751:
.LBE4752:
.LBE4843:
.LBB4844:
.LBB4734:
.LBB4733:
.LBB4732:
.LBB4730:
.LBB4723:
.LBB4724:
.LBB4725:
	.loc 17 66 0
	lwz 11,-4(9)
.LVL612:
.LBE4725:
.LBE4724:
.LBE4723:
	.loc 16 240 0
	cmpwi 7,11,0
.LBB4728:
.LBB4727:
.LBB4726:
	.loc 17 67 0
	addi 11,11,-1
	stw 11,-4(9)
.LBE4726:
.LBE4727:
.LBE4728:
	.loc 16 240 0
	bgt+ 7,.L535
	.loc 16 244 0
	addi 4,1,13
	bl _ZNSs4_Rep10_M_destroyERKSaIcE
.LVL613:
	b .L535
.LVL614:
.L576:
	mr 31,3
.LVL615:
.LBE4730:
.LBE4732:
.LBE4733:
.LBE4734:
.LBE4844:
	.loc 4 197 0
	addi 3,1,36
	bl _ZNSsD1Ev
.L566:
	addi 3,1,32
	bl _ZNSsD1Ev
.L567:
	addi 3,1,28
	bl _ZNSsD1Ev
.L568:
	addi 3,1,24
	bl _ZNSsD1Ev
.L569:
	addi 3,1,20
	bl _ZNSsD1Ev
	b .L570
.LVL616:
.L575:
	mr 31,3
.LVL617:
	b .L566
.LVL618:
.L574:
	mr 31,3
.LVL619:
	b .L567
.LVL620:
.L573:
	mr 31,3
.LVL621:
	b .L568
.LVL622:
.L572:
	mr 31,3
.LVL623:
	b .L569
.LBE4846:
	.cfi_endproc
.LFE2337:
	.section	.gcc_except_table
.LLSDA2337:
	.byte	0xff
	.byte	0xff
	.byte	0x1
	.uleb128 .LLSDACSE2337-.LLSDACSB2337
.LLSDACSB2337:
	.uleb128 .LEHB81-.LFB2337
	.uleb128 .LEHE81-.LEHB81
	.uleb128 0
	.uleb128 0
	.uleb128 .LEHB82-.LFB2337
	.uleb128 .LEHE82-.LEHB82
	.uleb128 .L571-.LFB2337
	.uleb128 0
	.uleb128 .LEHB83-.LFB2337
	.uleb128 .LEHE83-.LEHB83
	.uleb128 .L572-.LFB2337
	.uleb128 0
	.uleb128 .LEHB84-.LFB2337
	.uleb128 .LEHE84-.LEHB84
	.uleb128 .L573-.LFB2337
	.uleb128 0
	.uleb128 .LEHB85-.LFB2337
	.uleb128 .LEHE85-.LEHB85
	.uleb128 .L574-.LFB2337
	.uleb128 0
	.uleb128 .LEHB86-.LFB2337
	.uleb128 .LEHE86-.LEHB86
	.uleb128 .L575-.LFB2337
	.uleb128 0
	.uleb128 .LEHB87-.LFB2337
	.uleb128 .LEHE87-.LEHB87
	.uleb128 .L576-.LFB2337
	.uleb128 0
	.uleb128 .LEHB88-.LFB2337
	.uleb128 .LEHE88-.LEHB88
	.uleb128 0
	.uleb128 0
	.uleb128 .LEHB89-.LFB2337
	.uleb128 .LEHE89-.LEHB89
	.uleb128 .L577-.LFB2337
	.uleb128 0
	.uleb128 .LEHB90-.LFB2337
	.uleb128 .LEHE90-.LEHB90
	.uleb128 0
	.uleb128 0
.LLSDACSE2337:
	.section	".text"
	.size	_ZN12UpdateWindow6ChooseESsSsSsSsSsSs.constprop.147, .-_ZN12UpdateWindow6ChooseESsSsSsSsSsSs.constprop.147
	.align 2
	.type	_ZN12UpdateWindow11ShowMessageESsSs.constprop.146, @function
_ZN12UpdateWindow11ShowMessageESsSs.constprop.146:
.LFB2338:
	.loc 4 206 0
	.cfi_startproc
	.cfi_personality 0,__gxx_personality_v0
	.cfi_lsda 0,.LLSDA2338
.LVL624:
	stwu 1,-64(1)
.LCFI87:
	.cfi_def_cfa_offset 64
	mflr 0
	stw 30,56(1)
	mr 30,3
	.cfi_offset 30, -8
	.cfi_register 65, 0
	stw 31,60(1)
	.loc 4 208 0
	addi 3,1,20
.LVL625:
	.loc 4 206 0
	mr 31,5
	.cfi_offset 31, -4
	stw 0,68(1)
.LEHB91:
	.loc 4 208 0
	.cfi_offset 65, 4
	bl _ZNSsC1ERKSs
.LEHE91:
.LVL626:
	addi 3,1,24
	mr 4,31
.LEHB92:
	bl _ZNSsC1ERKSs
.LEHE92:
	lis 3,.LC12@ha
	la 3,.LC12@l(3)
.LEHB93:
	bl gettext
.LEHE93:
	mr 4,3
	addi 5,1,14
	addi 3,1,28
.LEHB94:
	bl _ZNSsC1EPKcRKSaIcE
.LEHE94:
	lis 31,.LC13@ha
.LVL627:
	addi 3,1,32
	la 31,.LC13@l(31)
	addi 5,1,15
	mr 4,31
.LEHB95:
	bl _ZNSsC1EPKcRKSaIcE
.LEHE95:
	addi 3,1,36
	mr 4,31
	addi 5,1,16
.LEHB96:
	bl _ZNSsC1EPKcRKSaIcE
.LEHE96:
	addi 3,1,40
	mr 4,31
	addi 5,1,17
.LEHB97:
	bl _ZNSsC1EPKcRKSaIcE
.LEHE97:
	mr 3,30
	addi 4,1,20
	addi 5,1,24
	addi 6,1,28
	addi 7,1,32
	addi 8,1,36
	addi 9,1,40
.LEHB98:
	bl _ZN12UpdateWindow6ChooseESsSsSsSsSsSs.constprop.147
.LEHE98:
.LVL628:
.LBB5005:
.LBB5006:
.LBB5007:
.LBB5008:
.LBB5009:
.LBB5010:
	.loc 16 288 0
	lwz 9,40(1)
.LBE5010:
.LBE5009:
.LBE5008:
.LBB5011:
.LBB5012:
	.loc 16 235 0
	lis 31,_ZNSs4_Rep20_S_empty_rep_storageE@ha
	la 31,_ZNSs4_Rep20_S_empty_rep_storageE@l(31)
.LBE5012:
.LBE5011:
	.loc 16 534 0
	addi 3,9,-12
.LVL629:
.LBB5021:
.LBB5019:
	.loc 16 235 0
	cmpw 7,3,31
	bne- 7,.L653
.LVL630:
.L593:
.LBE5019:
.LBE5021:
.LBE5007:
.LBE5006:
.LBE5005:
.LBB5025:
.LBB5026:
.LBB5027:
.LBB5028:
.LBB5029:
.LBB5030:
	.loc 16 288 0
	lwz 9,36(1)
.LBE5030:
.LBE5029:
.LBE5028:
	.loc 16 534 0
	addi 3,9,-12
.LVL631:
.LBB5031:
.LBB5032:
	.loc 16 235 0
	cmpw 7,3,31
	bne- 7,.L654
.LVL632:
.L601:
.LBE5032:
.LBE5031:
.LBE5027:
.LBE5026:
.LBE5025:
.LBB5043:
.LBB5044:
.LBB5045:
.LBB5046:
.LBB5047:
.LBB5048:
	.loc 16 288 0
	lwz 9,32(1)
.LBE5048:
.LBE5047:
.LBE5046:
	.loc 16 534 0
	addi 3,9,-12
.LVL633:
.LBB5049:
.LBB5050:
	.loc 16 235 0
	cmpw 7,3,31
	bne- 7,.L655
.LVL634:
.L609:
.LBE5050:
.LBE5049:
.LBE5045:
.LBE5044:
.LBE5043:
.LBB5061:
.LBB5062:
.LBB5063:
.LBB5064:
.LBB5065:
.LBB5066:
	.loc 16 288 0
	lwz 9,28(1)
.LBE5066:
.LBE5065:
.LBE5064:
	.loc 16 534 0
	addi 3,9,-12
.LVL635:
.LBB5067:
.LBB5068:
	.loc 16 235 0
	cmpw 7,3,31
	bne- 7,.L656
.LVL636:
.L617:
.LBE5068:
.LBE5067:
.LBE5063:
.LBE5062:
.LBE5061:
.LBB5079:
.LBB5080:
.LBB5081:
.LBB5082:
.LBB5083:
.LBB5084:
	.loc 16 288 0
	lwz 9,24(1)
.LBE5084:
.LBE5083:
.LBE5082:
	.loc 16 534 0
	addi 3,9,-12
.LVL637:
.LBB5085:
.LBB5086:
	.loc 16 235 0
	cmpw 7,3,31
	bne- 7,.L657
.LVL638:
.L623:
.LBE5086:
.LBE5085:
.LBE5081:
.LBE5080:
.LBE5079:
.LBB5097:
.LBB5098:
.LBB5099:
.LBB5100:
.LBB5101:
.LBB5102:
	.loc 16 288 0
	lwz 9,20(1)
.LBE5102:
.LBE5101:
.LBE5100:
	.loc 16 534 0
	addi 3,9,-12
.LVL639:
.LBB5103:
.LBB5104:
	.loc 16 235 0
	cmpw 7,3,31
	bne- 7,.L658
.LVL640:
.L585:
.LBE5104:
.LBE5103:
.LBE5099:
.LBE5098:
.LBE5097:
	.loc 4 209 0
	lwz 0,68(1)
	lwz 30,56(1)
.LVL641:
	mtlr 0
	lwz 31,60(1)
	addi 1,1,64
	.cfi_remember_state
.LCFI88:
	.cfi_def_cfa_offset 0
	.cfi_restore 31
	.cfi_restore 30
	blr
.LVL642:
.L653:
.LCFI89:
	.cfi_restore_state
.LBB5115:
.LBB5024:
.LBB5023:
.LBB5022:
.LBB5020:
.LBB5013:
.LBB5014:
.LBB5015:
	.loc 17 66 0
	lwz 11,-4(9)
.LVL643:
.LBE5015:
.LBE5014:
.LBE5013:
	.loc 16 240 0
	cmpwi 7,11,0
.LBB5018:
.LBB5017:
.LBB5016:
	.loc 17 67 0
	addi 11,11,-1
	stw 11,-4(9)
.LBE5016:
.LBE5017:
.LBE5018:
	.loc 16 240 0
	bgt+ 7,.L593
	.loc 16 244 0
	addi 4,1,13
	bl _ZNSs4_Rep10_M_destroyERKSaIcE
.LVL644:
	b .L593
.LVL645:
.L658:
.LBE5020:
.LBE5022:
.LBE5023:
.LBE5024:
.LBE5115:
.LBB5116:
.LBB5114:
.LBB5113:
.LBB5112:
.LBB5111:
.LBB5105:
.LBB5106:
.LBB5107:
	.loc 17 66 0
	lwz 11,-4(9)
.LVL646:
.LBE5107:
.LBE5106:
.LBE5105:
	.loc 16 240 0
	cmpwi 7,11,0
.LBB5110:
.LBB5109:
.LBB5108:
	.loc 17 67 0
	addi 11,11,-1
	stw 11,-4(9)
.LBE5108:
.LBE5109:
.LBE5110:
	.loc 16 240 0
	bgt+ 7,.L585
	.loc 16 244 0
	addi 4,1,8
	bl _ZNSs4_Rep10_M_destroyERKSaIcE
.LVL647:
	b .L585
.LVL648:
.L657:
.LBE5111:
.LBE5112:
.LBE5113:
.LBE5114:
.LBE5116:
.LBB5117:
.LBB5096:
.LBB5095:
.LBB5094:
.LBB5093:
.LBB5087:
.LBB5088:
.LBB5089:
	.loc 17 66 0
	lwz 11,-4(9)
.LVL649:
.LBE5089:
.LBE5088:
.LBE5087:
	.loc 16 240 0
	cmpwi 7,11,0
.LBB5092:
.LBB5091:
.LBB5090:
	.loc 17 67 0
	addi 11,11,-1
	stw 11,-4(9)
.LBE5090:
.LBE5091:
.LBE5092:
	.loc 16 240 0
	bgt+ 7,.L623
	.loc 16 244 0
	addi 4,1,9
	bl _ZNSs4_Rep10_M_destroyERKSaIcE
.LVL650:
	b .L623
.LVL651:
.L656:
.LBE5093:
.LBE5094:
.LBE5095:
.LBE5096:
.LBE5117:
.LBB5118:
.LBB5078:
.LBB5077:
.LBB5076:
.LBB5075:
.LBB5069:
.LBB5070:
.LBB5071:
	.loc 17 66 0
	lwz 11,-4(9)
.LVL652:
.LBE5071:
.LBE5070:
.LBE5069:
	.loc 16 240 0
	cmpwi 7,11,0
.LBB5074:
.LBB5073:
.LBB5072:
	.loc 17 67 0
	addi 11,11,-1
	stw 11,-4(9)
.LBE5072:
.LBE5073:
.LBE5074:
	.loc 16 240 0
	bgt+ 7,.L617
	.loc 16 244 0
	addi 4,1,10
	bl _ZNSs4_Rep10_M_destroyERKSaIcE
.LVL653:
	b .L617
.LVL654:
.L655:
.LBE5075:
.LBE5076:
.LBE5077:
.LBE5078:
.LBE5118:
.LBB5119:
.LBB5060:
.LBB5059:
.LBB5058:
.LBB5057:
.LBB5051:
.LBB5052:
.LBB5053:
	.loc 17 66 0
	lwz 11,-4(9)
.LVL655:
.LBE5053:
.LBE5052:
.LBE5051:
	.loc 16 240 0
	cmpwi 7,11,0
.LBB5056:
.LBB5055:
.LBB5054:
	.loc 17 67 0
	addi 11,11,-1
	stw 11,-4(9)
.LBE5054:
.LBE5055:
.LBE5056:
	.loc 16 240 0
	bgt+ 7,.L609
	.loc 16 244 0
	addi 4,1,11
	bl _ZNSs4_Rep10_M_destroyERKSaIcE
.LVL656:
	b .L609
.LVL657:
.L654:
.LBE5057:
.LBE5058:
.LBE5059:
.LBE5060:
.LBE5119:
.LBB5120:
.LBB5042:
.LBB5041:
.LBB5040:
.LBB5039:
.LBB5033:
.LBB5034:
.LBB5035:
	.loc 17 66 0
	lwz 11,-4(9)
.LVL658:
.LBE5035:
.LBE5034:
.LBE5033:
	.loc 16 240 0
	cmpwi 7,11,0
.LBB5038:
.LBB5037:
.LBB5036:
	.loc 17 67 0
	addi 11,11,-1
	stw 11,-4(9)
.LBE5036:
.LBE5037:
.LBE5038:
	.loc 16 240 0
	bgt+ 7,.L601
	.loc 16 244 0
	addi 4,1,12
	bl _ZNSs4_Rep10_M_destroyERKSaIcE
.LVL659:
	b .L601
.LVL660:
.L645:
	mr 31,3
.LVL661:
.L644:
.LBE5039:
.LBE5040:
.LBE5041:
.LBE5042:
.LBE5120:
	.loc 4 208 0
	addi 3,1,20
	bl _ZNSsD1Ev
	mr 3,31
.LEHB99:
	bl _Unwind_Resume
.LEHE99:
.LVL662:
.L647:
.L652:
	mr 31,3
	addi 3,1,24
	bl _ZNSsD1Ev
	b .L644
.LVL663:
.L646:
	b .L652
.LVL664:
.L651:
	mr 31,3
	addi 3,1,40
	bl _ZNSsD1Ev
.L633:
	addi 3,1,36
	bl _ZNSsD1Ev
.L636:
	addi 3,1,32
	bl _ZNSsD1Ev
.L639:
	addi 3,1,28
	bl _ZNSsD1Ev
	mr 3,31
	b .L652
.L650:
	mr 31,3
	b .L633
.L649:
	mr 31,3
	b .L636
.L648:
	mr 31,3
	b .L639
	.cfi_endproc
.LFE2338:
	.section	.gcc_except_table
.LLSDA2338:
	.byte	0xff
	.byte	0xff
	.byte	0x1
	.uleb128 .LLSDACSE2338-.LLSDACSB2338
.LLSDACSB2338:
	.uleb128 .LEHB91-.LFB2338
	.uleb128 .LEHE91-.LEHB91
	.uleb128 0
	.uleb128 0
	.uleb128 .LEHB92-.LFB2338
	.uleb128 .LEHE92-.LEHB92
	.uleb128 .L645-.LFB2338
	.uleb128 0
	.uleb128 .LEHB93-.LFB2338
	.uleb128 .LEHE93-.LEHB93
	.uleb128 .L646-.LFB2338
	.uleb128 0
	.uleb128 .LEHB94-.LFB2338
	.uleb128 .LEHE94-.LEHB94
	.uleb128 .L647-.LFB2338
	.uleb128 0
	.uleb128 .LEHB95-.LFB2338
	.uleb128 .LEHE95-.LEHB95
	.uleb128 .L648-.LFB2338
	.uleb128 0
	.uleb128 .LEHB96-.LFB2338
	.uleb128 .LEHE96-.LEHB96
	.uleb128 .L649-.LFB2338
	.uleb128 0
	.uleb128 .LEHB97-.LFB2338
	.uleb128 .LEHE97-.LEHB97
	.uleb128 .L650-.LFB2338
	.uleb128 0
	.uleb128 .LEHB98-.LFB2338
	.uleb128 .LEHE98-.LEHB98
	.uleb128 .L651-.LFB2338
	.uleb128 0
	.uleb128 .LEHB99-.LFB2338
	.uleb128 .LEHE99-.LEHB99
	.uleb128 0
	.uleb128 0
.LLSDACSE2338:
	.section	".text"
	.size	_ZN12UpdateWindow11ShowMessageESsSs.constprop.146, .-_ZN12UpdateWindow11ShowMessageESsSs.constprop.146
	.align 2
	.globl _ZN12UpdateWindow9ShowErrorESs
	.type	_ZN12UpdateWindow9ShowErrorESs, @function
_ZN12UpdateWindow9ShowErrorESs:
.LFB1603:
	.loc 4 212 0
	.cfi_startproc
	.cfi_personality 0,__gxx_personality_v0
	.cfi_lsda 0,.LLSDA1603
.LVL665:
	stwu 1,-32(1)
.LCFI90:
	.cfi_def_cfa_offset 32
	mflr 0
	stw 31,28(1)
	mr 31,3
	.cfi_offset 31, -4
	.cfi_register 65, 0
	.loc 4 213 0
	lis 3,.LC14@ha
.LVL666:
	.loc 4 212 0
	stw 0,36(1)
	.loc 4 213 0
	la 3,.LC14@l(3)
	.loc 4 212 0
	stw 30,24(1)
	.loc 4 212 0
	mr 30,4
	.cfi_offset 30, -8
	.cfi_offset 65, 4
.LEHB100:
	.loc 4 213 0
	bl gettext
.LVL667:
	mr 4,3
	addi 5,1,10
	addi 3,1,16
	bl _ZNSsC1EPKcRKSaIcE
.LEHE100:
	addi 3,1,12
	mr 4,30
.LEHB101:
	bl _ZNSsC1ERKSs
.LEHE101:
	.loc 4 213 0 is_stmt 0 discriminator 2
	mr 3,31
	addi 4,1,16
	addi 5,1,12
.LEHB102:
	bl _ZN12UpdateWindow11ShowMessageESsSs.constprop.146
.LEHE102:
.LVL668:
.LBB5167:
.LBB5168:
.LBB5169:
.LBB5170:
.LBB5171:
.LBB5172:
	.loc 16 288 0 is_stmt 1
	lwz 9,12(1)
.LBE5172:
.LBE5171:
.LBE5170:
.LBB5173:
.LBB5174:
	.loc 16 235 0
	lis 31,_ZNSs4_Rep20_S_empty_rep_storageE@ha
.LVL669:
	la 31,_ZNSs4_Rep20_S_empty_rep_storageE@l(31)
.LBE5174:
.LBE5173:
	.loc 16 534 0
	addi 3,9,-12
.LVL670:
.LBB5183:
.LBB5181:
	.loc 16 235 0
	cmpw 7,3,31
	bne- 7,.L678
.LVL671:
.L665:
.LBE5181:
.LBE5183:
.LBE5169:
.LBE5168:
.LBE5167:
.LBB5187:
.LBB5188:
.LBB5189:
.LBB5190:
.LBB5191:
.LBB5192:
	.loc 16 288 0
	lwz 9,16(1)
.LBE5192:
.LBE5191:
.LBE5190:
	.loc 16 534 0
	addi 3,9,-12
.LVL672:
.LBB5193:
.LBB5194:
	.loc 16 235 0
	cmpw 7,3,31
	bne- 7,.L679
.LVL673:
.L659:
.LBE5194:
.LBE5193:
.LBE5189:
.LBE5188:
.LBE5187:
	.loc 4 214 0
	lwz 0,36(1)
	lwz 30,24(1)
.LVL674:
	mtlr 0
	lwz 31,28(1)
	addi 1,1,32
	.cfi_remember_state
.LCFI91:
	.cfi_def_cfa_offset 0
	.cfi_restore 31
	.cfi_restore 30
	blr
.LVL675:
.L678:
.LCFI92:
	.cfi_restore_state
.LBB5205:
.LBB5186:
.LBB5185:
.LBB5184:
.LBB5182:
.LBB5175:
.LBB5176:
.LBB5177:
	.loc 17 66 0
	lwz 11,-4(9)
.LVL676:
.LBE5177:
.LBE5176:
.LBE5175:
	.loc 16 240 0
	cmpwi 7,11,0
.LBB5180:
.LBB5179:
.LBB5178:
	.loc 17 67 0
	addi 11,11,-1
	stw 11,-4(9)
.LBE5178:
.LBE5179:
.LBE5180:
	.loc 16 240 0
	bgt+ 7,.L665
	.loc 16 244 0
	addi 4,1,9
	bl _ZNSs4_Rep10_M_destroyERKSaIcE
.LVL677:
	b .L665
.LVL678:
.L679:
.LBE5182:
.LBE5184:
.LBE5185:
.LBE5186:
.LBE5205:
.LBB5206:
.LBB5204:
.LBB5203:
.LBB5202:
.LBB5201:
.LBB5195:
.LBB5196:
.LBB5197:
	.loc 17 66 0
	lwz 11,-4(9)
.LVL679:
.LBE5197:
.LBE5196:
.LBE5195:
	.loc 16 240 0
	cmpwi 7,11,0
.LBB5200:
.LBB5199:
.LBB5198:
	.loc 17 67 0
	addi 11,11,-1
	stw 11,-4(9)
.LBE5198:
.LBE5199:
.LBE5200:
	.loc 16 240 0
	bgt+ 7,.L659
	.loc 16 244 0
	addi 4,1,8
	bl _ZNSs4_Rep10_M_destroyERKSaIcE
.LVL680:
	b .L659
.LVL681:
.L677:
	mr 31,3
.LVL682:
.LBE5201:
.LBE5202:
.LBE5203:
.LBE5204:
.LBE5206:
	.loc 4 213 0
	addi 3,1,12
	bl _ZNSsD1Ev
.L675:
	addi 3,1,16
	bl _ZNSsD1Ev
	mr 3,31
.LEHB103:
	bl _Unwind_Resume
.LEHE103:
.LVL683:
.L676:
	mr 31,3
.LVL684:
	b .L675
	.cfi_endproc
.LFE1603:
	.section	.gcc_except_table
.LLSDA1603:
	.byte	0xff
	.byte	0xff
	.byte	0x1
	.uleb128 .LLSDACSE1603-.LLSDACSB1603
.LLSDACSB1603:
	.uleb128 .LEHB100-.LFB1603
	.uleb128 .LEHE100-.LEHB100
	.uleb128 0
	.uleb128 0
	.uleb128 .LEHB101-.LFB1603
	.uleb128 .LEHE101-.LEHB101
	.uleb128 .L676-.LFB1603
	.uleb128 0
	.uleb128 .LEHB102-.LFB1603
	.uleb128 .LEHE102-.LEHB102
	.uleb128 .L677-.LFB1603
	.uleb128 0
	.uleb128 .LEHB103-.LFB1603
	.uleb128 .LEHE103-.LEHB103
	.uleb128 0
	.uleb128 0
.LLSDACSE1603:
	.section	".text"
	.size	_ZN12UpdateWindow9ShowErrorESs, .-_ZN12UpdateWindow9ShowErrorESs
	.align 2
	.globl _ZN12UpdateWindow11ShowMessageESsSs
	.type	_ZN12UpdateWindow11ShowMessageESsSs, @function
_ZN12UpdateWindow11ShowMessageESsSs:
.LFB1602:
	.loc 4 207 0
	.cfi_startproc
	.cfi_personality 0,__gxx_personality_v0
	.cfi_lsda 0,.LLSDA1602
.LVL685:
	stwu 1,-64(1)
.LCFI93:
	.cfi_def_cfa_offset 64
	mflr 0
	stw 30,56(1)
	mr 30,3
	.cfi_offset 30, -8
	.cfi_register 65, 0
	stw 31,60(1)
	.loc 4 208 0
	addi 3,1,40
.LVL686:
	.loc 4 207 0
	mr 31,5
	.cfi_offset 31, -4
	stw 0,68(1)
.LEHB104:
	.loc 4 208 0
	.cfi_offset 65, 4
	bl _ZNSsC1ERKSs
.LEHE104:
.LVL687:
	addi 3,1,36
	mr 4,31
.LEHB105:
	bl _ZNSsC1ERKSs
.LEHE105:
	.loc 4 208 0 is_stmt 0 discriminator 1
	lis 3,.LC12@ha
	la 3,.LC12@l(3)
.LEHB106:
	bl gettext
.LEHE106:
	mr 4,3
	addi 5,1,17
	addi 3,1,32
.LEHB107:
	bl _ZNSsC1EPKcRKSaIcE
.LEHE107:
	.loc 4 208 0 discriminator 3
	lis 31,.LC13@ha
.LVL688:
	addi 3,1,28
	la 31,.LC13@l(31)
	addi 5,1,16
	mr 4,31
.LEHB108:
	bl _ZNSsC1EPKcRKSaIcE
.LEHE108:
	.loc 4 208 0 discriminator 4
	addi 3,1,24
	mr 4,31
	addi 5,1,15
.LEHB109:
	bl _ZNSsC1EPKcRKSaIcE
.LEHE109:
	.loc 4 208 0 discriminator 5
	addi 3,1,20
	mr 4,31
	addi 5,1,14
.LEHB110:
	bl _ZNSsC1EPKcRKSaIcE
.LEHE110:
	.loc 4 208 0 discriminator 6
	mr 3,30
	addi 4,1,40
	addi 5,1,36
	addi 6,1,32
	addi 7,1,28
	addi 8,1,24
	addi 9,1,20
.LEHB111:
	bl _ZN12UpdateWindow6ChooseESsSsSsSsSsSs.constprop.147
.LEHE111:
.LVL689:
.LBB5365:
.LBB5366:
.LBB5367:
.LBB5368:
.LBB5369:
.LBB5370:
	.loc 16 288 0 is_stmt 1
	lwz 9,20(1)
.LBE5370:
.LBE5369:
.LBE5368:
.LBB5371:
.LBB5372:
	.loc 16 235 0
	lis 31,_ZNSs4_Rep20_S_empty_rep_storageE@ha
	la 31,_ZNSs4_Rep20_S_empty_rep_storageE@l(31)
.LBE5372:
.LBE5371:
	.loc 16 534 0
	addi 3,9,-12
.LVL690:
.LBB5381:
.LBB5379:
	.loc 16 235 0
	cmpw 7,3,31
	bne- 7,.L748
.LVL691:
.L688:
.LBE5379:
.LBE5381:
.LBE5367:
.LBE5366:
.LBE5365:
.LBB5385:
.LBB5386:
.LBB5387:
.LBB5388:
.LBB5389:
.LBB5390:
	.loc 16 288 0
	lwz 9,24(1)
.LBE5390:
.LBE5389:
.LBE5388:
	.loc 16 534 0
	addi 3,9,-12
.LVL692:
.LBB5391:
.LBB5392:
	.loc 16 235 0
	cmpw 7,3,31
	bne- 7,.L749
.LVL693:
.L696:
.LBE5392:
.LBE5391:
.LBE5387:
.LBE5386:
.LBE5385:
.LBB5403:
.LBB5404:
.LBB5405:
.LBB5406:
.LBB5407:
.LBB5408:
	.loc 16 288 0
	lwz 9,28(1)
.LBE5408:
.LBE5407:
.LBE5406:
	.loc 16 534 0
	addi 3,9,-12
.LVL694:
.LBB5409:
.LBB5410:
	.loc 16 235 0
	cmpw 7,3,31
	bne- 7,.L750
.LVL695:
.L704:
.LBE5410:
.LBE5409:
.LBE5405:
.LBE5404:
.LBE5403:
.LBB5421:
.LBB5422:
.LBB5423:
.LBB5424:
.LBB5425:
.LBB5426:
	.loc 16 288 0
	lwz 9,32(1)
.LBE5426:
.LBE5425:
.LBE5424:
	.loc 16 534 0
	addi 3,9,-12
.LVL696:
.LBB5427:
.LBB5428:
	.loc 16 235 0
	cmpw 7,3,31
	bne- 7,.L751
.LVL697:
.L712:
.LBE5428:
.LBE5427:
.LBE5423:
.LBE5422:
.LBE5421:
.LBB5439:
.LBB5440:
.LBB5441:
.LBB5442:
.LBB5443:
.LBB5444:
	.loc 16 288 0
	lwz 9,36(1)
.LBE5444:
.LBE5443:
.LBE5442:
	.loc 16 534 0
	addi 3,9,-12
.LVL698:
.LBB5445:
.LBB5446:
	.loc 16 235 0
	cmpw 7,3,31
	bne- 7,.L752
.LVL699:
.L718:
.LBE5446:
.LBE5445:
.LBE5441:
.LBE5440:
.LBE5439:
.LBB5457:
.LBB5458:
.LBB5459:
.LBB5460:
.LBB5461:
.LBB5462:
	.loc 16 288 0
	lwz 9,40(1)
.LBE5462:
.LBE5461:
.LBE5460:
	.loc 16 534 0
	addi 3,9,-12
.LVL700:
.LBB5463:
.LBB5464:
	.loc 16 235 0
	cmpw 7,3,31
	bne- 7,.L753
.LVL701:
.L680:
.LBE5464:
.LBE5463:
.LBE5459:
.LBE5458:
.LBE5457:
	.loc 4 209 0
	lwz 0,68(1)
	lwz 30,56(1)
.LVL702:
	mtlr 0
	lwz 31,60(1)
	addi 1,1,64
	.cfi_remember_state
.LCFI94:
	.cfi_def_cfa_offset 0
	.cfi_restore 31
	.cfi_restore 30
	blr
.LVL703:
.L748:
.LCFI95:
	.cfi_restore_state
.LBB5475:
.LBB5384:
.LBB5383:
.LBB5382:
.LBB5380:
.LBB5373:
.LBB5374:
.LBB5375:
	.loc 17 66 0
	lwz 11,-4(9)
.LVL704:
.LBE5375:
.LBE5374:
.LBE5373:
	.loc 16 240 0
	cmpwi 7,11,0
.LBB5378:
.LBB5377:
.LBB5376:
	.loc 17 67 0
	addi 11,11,-1
	stw 11,-4(9)
.LBE5376:
.LBE5377:
.LBE5378:
	.loc 16 240 0
	bgt+ 7,.L688
	.loc 16 244 0
	addi 4,1,13
	bl _ZNSs4_Rep10_M_destroyERKSaIcE
.LVL705:
	b .L688
.LVL706:
.L753:
.LBE5380:
.LBE5382:
.LBE5383:
.LBE5384:
.LBE5475:
.LBB5476:
.LBB5474:
.LBB5473:
.LBB5472:
.LBB5471:
.LBB5465:
.LBB5466:
.LBB5467:
	.loc 17 66 0
	lwz 11,-4(9)
.LVL707:
.LBE5467:
.LBE5466:
.LBE5465:
	.loc 16 240 0
	cmpwi 7,11,0
.LBB5470:
.LBB5469:
.LBB5468:
	.loc 17 67 0
	addi 11,11,-1
	stw 11,-4(9)
.LBE5468:
.LBE5469:
.LBE5470:
	.loc 16 240 0
	bgt+ 7,.L680
	.loc 16 244 0
	addi 4,1,8
	bl _ZNSs4_Rep10_M_destroyERKSaIcE
.LVL708:
	b .L680
.LVL709:
.L752:
.LBE5471:
.LBE5472:
.LBE5473:
.LBE5474:
.LBE5476:
.LBB5477:
.LBB5456:
.LBB5455:
.LBB5454:
.LBB5453:
.LBB5447:
.LBB5448:
.LBB5449:
	.loc 17 66 0
	lwz 11,-4(9)
.LVL710:
.LBE5449:
.LBE5448:
.LBE5447:
	.loc 16 240 0
	cmpwi 7,11,0
.LBB5452:
.LBB5451:
.LBB5450:
	.loc 17 67 0
	addi 11,11,-1
	stw 11,-4(9)
.LBE5450:
.LBE5451:
.LBE5452:
	.loc 16 240 0
	bgt+ 7,.L718
	.loc 16 244 0
	addi 4,1,9
	bl _ZNSs4_Rep10_M_destroyERKSaIcE
.LVL711:
	b .L718
.LVL712:
.L751:
.LBE5453:
.LBE5454:
.LBE5455:
.LBE5456:
.LBE5477:
.LBB5478:
.LBB5438:
.LBB5437:
.LBB5436:
.LBB5435:
.LBB5429:
.LBB5430:
.LBB5431:
	.loc 17 66 0
	lwz 11,-4(9)
.LVL713:
.LBE5431:
.LBE5430:
.LBE5429:
	.loc 16 240 0
	cmpwi 7,11,0
.LBB5434:
.LBB5433:
.LBB5432:
	.loc 17 67 0
	addi 11,11,-1
	stw 11,-4(9)
.LBE5432:
.LBE5433:
.LBE5434:
	.loc 16 240 0
	bgt+ 7,.L712
	.loc 16 244 0
	addi 4,1,10
	bl _ZNSs4_Rep10_M_destroyERKSaIcE
.LVL714:
	b .L712
.LVL715:
.L750:
.LBE5435:
.LBE5436:
.LBE5437:
.LBE5438:
.LBE5478:
.LBB5479:
.LBB5420:
.LBB5419:
.LBB5418:
.LBB5417:
.LBB5411:
.LBB5412:
.LBB5413:
	.loc 17 66 0
	lwz 11,-4(9)
.LVL716:
.LBE5413:
.LBE5412:
.LBE5411:
	.loc 16 240 0
	cmpwi 7,11,0
.LBB5416:
.LBB5415:
.LBB5414:
	.loc 17 67 0
	addi 11,11,-1
	stw 11,-4(9)
.LBE5414:
.LBE5415:
.LBE5416:
	.loc 16 240 0
	bgt+ 7,.L704
	.loc 16 244 0
	addi 4,1,11
	bl _ZNSs4_Rep10_M_destroyERKSaIcE
.LVL717:
	b .L704
.LVL718:
.L749:
.LBE5417:
.LBE5418:
.LBE5419:
.LBE5420:
.LBE5479:
.LBB5480:
.LBB5402:
.LBB5401:
.LBB5400:
.LBB5399:
.LBB5393:
.LBB5394:
.LBB5395:
	.loc 17 66 0
	lwz 11,-4(9)
.LVL719:
.LBE5395:
.LBE5394:
.LBE5393:
	.loc 16 240 0
	cmpwi 7,11,0
.LBB5398:
.LBB5397:
.LBB5396:
	.loc 17 67 0
	addi 11,11,-1
	stw 11,-4(9)
.LBE5396:
.LBE5397:
.LBE5398:
	.loc 16 240 0
	bgt+ 7,.L696
	.loc 16 244 0
	addi 4,1,12
	bl _ZNSs4_Rep10_M_destroyERKSaIcE
.LVL720:
	b .L696
.LVL721:
.L740:
	mr 31,3
.LVL722:
.L739:
.LBE5399:
.LBE5400:
.LBE5401:
.LBE5402:
.LBE5480:
	.loc 4 208 0
	addi 3,1,40
	bl _ZNSsD1Ev
	mr 3,31
.LEHB112:
	bl _Unwind_Resume
.LEHE112:
.LVL723:
.L742:
.L747:
	mr 31,3
	addi 3,1,36
	bl _ZNSsD1Ev
	b .L739
.LVL724:
.L741:
	b .L747
.LVL725:
.L746:
	mr 31,3
	addi 3,1,20
	bl _ZNSsD1Ev
.L728:
	addi 3,1,24
	bl _ZNSsD1Ev
.L731:
	addi 3,1,28
	bl _ZNSsD1Ev
.L734:
	addi 3,1,32
	bl _ZNSsD1Ev
	mr 3,31
	b .L747
.L745:
	mr 31,3
	b .L728
.L744:
	mr 31,3
	b .L731
.L743:
	mr 31,3
	b .L734
	.cfi_endproc
.LFE1602:
	.section	.gcc_except_table
.LLSDA1602:
	.byte	0xff
	.byte	0xff
	.byte	0x1
	.uleb128 .LLSDACSE1602-.LLSDACSB1602
.LLSDACSB1602:
	.uleb128 .LEHB104-.LFB1602
	.uleb128 .LEHE104-.LEHB104
	.uleb128 0
	.uleb128 0
	.uleb128 .LEHB105-.LFB1602
	.uleb128 .LEHE105-.LEHB105
	.uleb128 .L740-.LFB1602
	.uleb128 0
	.uleb128 .LEHB106-.LFB1602
	.uleb128 .LEHE106-.LEHB106
	.uleb128 .L741-.LFB1602
	.uleb128 0
	.uleb128 .LEHB107-.LFB1602
	.uleb128 .LEHE107-.LEHB107
	.uleb128 .L742-.LFB1602
	.uleb128 0
	.uleb128 .LEHB108-.LFB1602
	.uleb128 .LEHE108-.LEHB108
	.uleb128 .L743-.LFB1602
	.uleb128 0
	.uleb128 .LEHB109-.LFB1602
	.uleb128 .LEHE109-.LEHB109
	.uleb128 .L744-.LFB1602
	.uleb128 0
	.uleb128 .LEHB110-.LFB1602
	.uleb128 .LEHE110-.LEHB110
	.uleb128 .L745-.LFB1602
	.uleb128 0
	.uleb128 .LEHB111-.LFB1602
	.uleb128 .LEHE111-.LEHB111
	.uleb128 .L746-.LFB1602
	.uleb128 0
	.uleb128 .LEHB112-.LFB1602
	.uleb128 .LEHE112-.LEHB112
	.uleb128 0
	.uleb128 0
.LLSDACSE1602:
	.section	".text"
	.size	_ZN12UpdateWindow11ShowMessageESsSs, .-_ZN12UpdateWindow11ShowMessageESsSs
	.align 2
	.globl _ZN12UpdateWindow6ChooseESsSsSsSsSsSs
	.type	_ZN12UpdateWindow6ChooseESsSsSsSsSsSs, @function
_ZN12UpdateWindow6ChooseESsSsSsSsSsSs:
.LFB1601:
	.loc 4 196 0
	.cfi_startproc
	.cfi_personality 0,__gxx_personality_v0
	.cfi_lsda 0,.LLSDA1601
.LVL726:
	stwu 1,-64(1)
.LCFI96:
	.cfi_def_cfa_offset 64
	mflr 0
	stw 26,40(1)
	mr 26,5
	.cfi_offset 26, -24
	.cfi_register 65, 0
	stw 30,56(1)
	mr 30,3
	.cfi_offset 30, -8
.LBB5612:
	.loc 4 197 0
	addi 3,1,36
.LVL727:
.LBE5612:
	.loc 4 196 0
	stw 27,44(1)
	stw 28,48(1)
	mr 27,6
	.cfi_offset 28, -16
	.cfi_offset 27, -20
	stw 29,52(1)
	mr 28,7
	stw 31,60(1)
	mr 29,8
	.cfi_offset 31, -4
	.cfi_offset 29, -12
	stw 0,68(1)
	.loc 4 196 0
	mr 31,9
.LEHB113:
.LBB5743:
	.loc 4 197 0
	.cfi_offset 65, 4
	bl _ZNSsC1ERKSs
.LEHE113:
.LVL728:
	addi 3,1,32
	mr 4,26
.LEHB114:
	bl _ZNSsC1ERKSs
.LEHE114:
	.loc 4 197 0 is_stmt 0 discriminator 1
	addi 3,1,28
	mr 4,27
.LEHB115:
	bl _ZNSsC1ERKSs
.LEHE115:
	.loc 4 197 0 discriminator 2
	addi 3,1,24
	mr 4,28
.LEHB116:
	bl _ZNSsC1ERKSs
.LEHE116:
	.loc 4 197 0 discriminator 3
	addi 3,1,20
	mr 4,29
.LEHB117:
	bl _ZNSsC1ERKSs
.LEHE117:
	.loc 4 197 0 discriminator 4
	addi 3,1,16
	mr 4,31
.LEHB118:
	bl _ZNSsC1ERKSs
.LEHE118:
	.loc 4 197 0 discriminator 5
	mr 3,30
	addi 4,1,36
	addi 5,1,32
	addi 6,1,28
	addi 7,1,24
	addi 8,1,20
	addi 9,1,16
.LEHB119:
	bl _ZN12UpdateWindow11ShowButtonsESsSsSsSsSsSs.constprop.148
.LEHE119:
.LVL729:
.LBB5613:
.LBB5614:
.LBB5615:
.LBB5616:
.LBB5617:
.LBB5618:
	.loc 16 288 0 is_stmt 1
	lwz 9,16(1)
.LBE5618:
.LBE5617:
.LBE5616:
.LBB5619:
.LBB5620:
	.loc 16 235 0
	lis 31,_ZNSs4_Rep20_S_empty_rep_storageE@ha
.LVL730:
	la 31,_ZNSs4_Rep20_S_empty_rep_storageE@l(31)
.LBE5620:
.LBE5619:
	.loc 16 534 0
	addi 3,9,-12
.LVL731:
.LBB5629:
.LBB5627:
	.loc 16 235 0
	cmpw 7,3,31
	bne- 7,.L804
.LVL732:
.L760:
.LBE5627:
.LBE5629:
.LBE5615:
.LBE5614:
.LBE5613:
.LBB5633:
.LBB5634:
.LBB5635:
.LBB5636:
.LBB5637:
.LBB5638:
	.loc 16 288 0
	lwz 9,20(1)
.LBE5638:
.LBE5637:
.LBE5636:
	.loc 16 534 0
	addi 3,9,-12
.LVL733:
.LBB5639:
.LBB5640:
	.loc 16 235 0
	cmpw 7,3,31
	bne- 7,.L805
.LVL734:
.L766:
.LBE5640:
.LBE5639:
.LBE5635:
.LBE5634:
.LBE5633:
.LBB5651:
.LBB5652:
.LBB5653:
.LBB5654:
.LBB5655:
.LBB5656:
	.loc 16 288 0
	lwz 9,24(1)
.LBE5656:
.LBE5655:
.LBE5654:
	.loc 16 534 0
	addi 3,9,-12
.LVL735:
.LBB5657:
.LBB5658:
	.loc 16 235 0
	cmpw 7,3,31
	bne- 7,.L806
.LVL736:
.L772:
.LBE5658:
.LBE5657:
.LBE5653:
.LBE5652:
.LBE5651:
.LBB5669:
.LBB5670:
.LBB5671:
.LBB5672:
.LBB5673:
.LBB5674:
	.loc 16 288 0
	lwz 9,28(1)
.LBE5674:
.LBE5673:
.LBE5672:
	.loc 16 534 0
	addi 3,9,-12
.LVL737:
.LBB5675:
.LBB5676:
	.loc 16 235 0
	cmpw 7,3,31
	bne- 7,.L807
.LVL738:
.L778:
.LBE5676:
.LBE5675:
.LBE5671:
.LBE5670:
.LBE5669:
.LBB5687:
.LBB5688:
.LBB5689:
.LBB5690:
.LBB5691:
.LBB5692:
	.loc 16 288 0
	lwz 9,32(1)
.LBE5692:
.LBE5691:
.LBE5690:
	.loc 16 534 0
	addi 3,9,-12
.LVL739:
.LBB5693:
.LBB5694:
	.loc 16 235 0
	cmpw 7,3,31
	bne- 7,.L808
.LVL740:
.L784:
.LBE5694:
.LBE5693:
.LBE5689:
.LBE5688:
.LBE5687:
.LBB5705:
.LBB5706:
.LBB5707:
.LBB5708:
.LBB5709:
	.loc 16 288 0
	lwz 9,36(1)
.LBE5709:
.LBE5708:
.LBE5707:
	.loc 16 534 0
	addi 3,9,-12
.LVL741:
.LBB5710:
.LBB5711:
	.loc 16 235 0
	cmpw 7,3,31
	bne- 7,.L809
.LVL742:
.L785:
.LBE5711:
.LBE5710:
.LBE5706:
.LBE5705:
.LBB5721:
.LBB5722:
	.loc 4 418 0 discriminator 1
	lwz 3,216(30)
.LVL743:
	.loc 4 419 0 discriminator 1
	li 0,0
	stw 0,216(30)
.LBE5722:
.LBE5721:
	.loc 4 200 0 discriminator 1
	cmpwi 7,3,0
	bne- 7,.L786
	lis 29,_ZN11Application8instanceE@ha
.LVL744:
	la 29,_ZN11Application8instanceE@l(29)
	b .L788
.LVL745:
.L787:
	.loc 4 201 0
	lwz 9,0(31)
	mr 3,31
.LVL746:
	lwz 0,216(9)
	mtctr 0
.LEHB120:
	bctrl
.LBB5727:
.LBB5723:
	.loc 4 418 0
	lwz 3,216(30)
.LVL747:
	.loc 4 419 0
	li 0,0
.LBE5723:
.LBE5727:
	.loc 4 200 0
	cmpwi 7,3,0
.LBB5728:
.LBB5724:
	.loc 4 419 0
	stw 0,216(30)
.LBE5724:
.LBE5728:
	.loc 4 200 0
	bne- 7,.L786
.LVL748:
.L788:
.LBB5729:
.LBB5730:
	.loc 18 27 0
	lwz 31,0(29)
	cmpwi 7,31,0
	bne+ 7,.L787
	li 3,632
.LVL749:
	bl _Znwj
.LEHE120:
	mr 31,3
.LEHB121:
	bl _ZN11ApplicationC1Ev
.LEHE121:
.LBE5730:
.LBE5729:
	.loc 4 201 0
	lwz 9,0(31)
	mr 3,31
.LBB5733:
.LBB5731:
	.loc 18 27 0
	stw 31,0(29)
.LBE5731:
.LBE5733:
	.loc 4 201 0
	lwz 0,216(9)
	mtctr 0
.LEHB122:
	bctrl
.LBB5734:
.LBB5725:
	.loc 4 418 0
	lwz 3,216(30)
.LVL750:
	.loc 4 419 0
	li 0,0
.LBE5725:
.LBE5734:
	.loc 4 200 0
	cmpwi 7,3,0
.LBB5735:
.LBB5726:
	.loc 4 419 0
	stw 0,216(30)
.LBE5726:
.LBE5735:
	.loc 4 200 0
	beq+ 7,.L788
.LVL751:
.L786:
.LBE5743:
	.loc 4 204 0
	lwz 0,68(1)
	lwz 26,40(1)
.LVL752:
	mtlr 0
	lwz 27,44(1)
.LVL753:
	lwz 28,48(1)
.LVL754:
	lwz 29,52(1)
	lwz 30,56(1)
.LVL755:
	lwz 31,60(1)
	addi 1,1,64
	.cfi_remember_state
.LCFI97:
	.cfi_def_cfa_offset 0
	.cfi_restore 31
	.cfi_restore 30
	.cfi_restore 29
	.cfi_restore 28
	.cfi_restore 27
	.cfi_restore 26
	blr
.LVL756:
.L796:
.LCFI98:
	.cfi_restore_state
	mr 31,3
.LVL757:
.L795:
.LBB5744:
	.loc 4 197 0
	addi 3,1,36
	bl _ZNSsD1Ev
	mr 3,31
	bl _Unwind_Resume
.LVL758:
.L802:
	mr 30,3
.LVL759:
.LBB5736:
.LBB5732:
	.loc 18 27 0
	mr 3,31
	bl _ZdlPv
	mr 3,30
	bl _Unwind_Resume
.LEHE122:
.LVL760:
.L809:
.LBE5732:
.LBE5736:
.LBB5737:
.LBB5720:
.LBB5719:
.LBB5718:
.LBB5712:
.LBB5713:
.LBB5714:
	.loc 17 66 0
	lwz 11,-4(9)
.LVL761:
.LBE5714:
.LBE5713:
.LBE5712:
	.loc 16 240 0
	cmpwi 7,11,0
.LBB5717:
.LBB5716:
.LBB5715:
	.loc 17 67 0
	addi 11,11,-1
	stw 11,-4(9)
.LBE5715:
.LBE5716:
.LBE5717:
	.loc 16 240 0
	bgt+ 7,.L785
	.loc 16 244 0
	addi 4,1,8
	bl _ZNSs4_Rep10_M_destroyERKSaIcE
.LVL762:
	b .L785
.LVL763:
.L808:
.LBE5718:
.LBE5719:
.LBE5720:
.LBE5737:
.LBB5738:
.LBB5704:
.LBB5703:
.LBB5702:
.LBB5701:
.LBB5695:
.LBB5696:
.LBB5697:
	.loc 17 66 0
	lwz 11,-4(9)
.LVL764:
.LBE5697:
.LBE5696:
.LBE5695:
	.loc 16 240 0
	cmpwi 7,11,0
.LBB5700:
.LBB5699:
.LBB5698:
	.loc 17 67 0
	addi 11,11,-1
	stw 11,-4(9)
.LBE5698:
.LBE5699:
.LBE5700:
	.loc 16 240 0
	bgt+ 7,.L784
	.loc 16 244 0
	addi 4,1,9
	bl _ZNSs4_Rep10_M_destroyERKSaIcE
.LVL765:
	b .L784
.LVL766:
.L807:
.LBE5701:
.LBE5702:
.LBE5703:
.LBE5704:
.LBE5738:
.LBB5739:
.LBB5686:
.LBB5685:
.LBB5684:
.LBB5683:
.LBB5677:
.LBB5678:
.LBB5679:
	.loc 17 66 0
	lwz 11,-4(9)
.LVL767:
.LBE5679:
.LBE5678:
.LBE5677:
	.loc 16 240 0
	cmpwi 7,11,0
.LBB5682:
.LBB5681:
.LBB5680:
	.loc 17 67 0
	addi 11,11,-1
	stw 11,-4(9)
.LBE5680:
.LBE5681:
.LBE5682:
	.loc 16 240 0
	bgt+ 7,.L778
	.loc 16 244 0
	addi 4,1,10
	bl _ZNSs4_Rep10_M_destroyERKSaIcE
.LVL768:
	b .L778
.LVL769:
.L806:
.LBE5683:
.LBE5684:
.LBE5685:
.LBE5686:
.LBE5739:
.LBB5740:
.LBB5668:
.LBB5667:
.LBB5666:
.LBB5665:
.LBB5659:
.LBB5660:
.LBB5661:
	.loc 17 66 0
	lwz 11,-4(9)
.LVL770:
.LBE5661:
.LBE5660:
.LBE5659:
	.loc 16 240 0
	cmpwi 7,11,0
.LBB5664:
.LBB5663:
.LBB5662:
	.loc 17 67 0
	addi 11,11,-1
	stw 11,-4(9)
.LBE5662:
.LBE5663:
.LBE5664:
	.loc 16 240 0
	bgt+ 7,.L772
	.loc 16 244 0
	addi 4,1,11
	bl _ZNSs4_Rep10_M_destroyERKSaIcE
.LVL771:
	b .L772
.LVL772:
.L805:
.LBE5665:
.LBE5666:
.LBE5667:
.LBE5668:
.LBE5740:
.LBB5741:
.LBB5650:
.LBB5649:
.LBB5648:
.LBB5647:
.LBB5641:
.LBB5642:
.LBB5643:
	.loc 17 66 0
	lwz 11,-4(9)
.LVL773:
.LBE5643:
.LBE5642:
.LBE5641:
	.loc 16 240 0
	cmpwi 7,11,0
.LBB5646:
.LBB5645:
.LBB5644:
	.loc 17 67 0
	addi 11,11,-1
	stw 11,-4(9)
.LBE5644:
.LBE5645:
.LBE5646:
	.loc 16 240 0
	bgt+ 7,.L766
	.loc 16 244 0
	addi 4,1,12
	bl _ZNSs4_Rep10_M_destroyERKSaIcE
.LVL774:
	b .L766
.LVL775:
.L804:
.LBE5647:
.LBE5648:
.LBE5649:
.LBE5650:
.LBE5741:
.LBB5742:
.LBB5632:
.LBB5631:
.LBB5630:
.LBB5628:
.LBB5621:
.LBB5622:
.LBB5623:
	.loc 17 66 0
	lwz 11,-4(9)
.LVL776:
.LBE5623:
.LBE5622:
.LBE5621:
	.loc 16 240 0
	cmpwi 7,11,0
.LBB5626:
.LBB5625:
.LBB5624:
	.loc 17 67 0
	addi 11,11,-1
	stw 11,-4(9)
.LBE5624:
.LBE5625:
.LBE5626:
	.loc 16 240 0
	bgt+ 7,.L760
	.loc 16 244 0
	addi 4,1,13
	bl _ZNSs4_Rep10_M_destroyERKSaIcE
.LVL777:
	b .L760
.LVL778:
.L801:
	mr 31,3
.LVL779:
.LBE5628:
.LBE5630:
.LBE5631:
.LBE5632:
.LBE5742:
	.loc 4 197 0
	addi 3,1,16
	bl _ZNSsD1Ev
.L791:
	addi 3,1,20
	bl _ZNSsD1Ev
.L792:
	addi 3,1,24
	bl _ZNSsD1Ev
.L793:
	addi 3,1,28
	bl _ZNSsD1Ev
.L794:
	addi 3,1,32
	bl _ZNSsD1Ev
	b .L795
.LVL780:
.L800:
	mr 31,3
.LVL781:
	b .L791
.LVL782:
.L799:
	mr 31,3
.LVL783:
	b .L792
.LVL784:
.L798:
	mr 31,3
.LVL785:
	b .L793
.LVL786:
.L797:
	mr 31,3
.LVL787:
	b .L794
.LBE5744:
	.cfi_endproc
.LFE1601:
	.section	.gcc_except_table
.LLSDA1601:
	.byte	0xff
	.byte	0xff
	.byte	0x1
	.uleb128 .LLSDACSE1601-.LLSDACSB1601
.LLSDACSB1601:
	.uleb128 .LEHB113-.LFB1601
	.uleb128 .LEHE113-.LEHB113
	.uleb128 0
	.uleb128 0
	.uleb128 .LEHB114-.LFB1601
	.uleb128 .LEHE114-.LEHB114
	.uleb128 .L796-.LFB1601
	.uleb128 0
	.uleb128 .LEHB115-.LFB1601
	.uleb128 .LEHE115-.LEHB115
	.uleb128 .L797-.LFB1601
	.uleb128 0
	.uleb128 .LEHB116-.LFB1601
	.uleb128 .LEHE116-.LEHB116
	.uleb128 .L798-.LFB1601
	.uleb128 0
	.uleb128 .LEHB117-.LFB1601
	.uleb128 .LEHE117-.LEHB117
	.uleb128 .L799-.LFB1601
	.uleb128 0
	.uleb128 .LEHB118-.LFB1601
	.uleb128 .LEHE118-.LEHB118
	.uleb128 .L800-.LFB1601
	.uleb128 0
	.uleb128 .LEHB119-.LFB1601
	.uleb128 .LEHE119-.LEHB119
	.uleb128 .L801-.LFB1601
	.uleb128 0
	.uleb128 .LEHB120-.LFB1601
	.uleb128 .LEHE120-.LEHB120
	.uleb128 0
	.uleb128 0
	.uleb128 .LEHB121-.LFB1601
	.uleb128 .LEHE121-.LEHB121
	.uleb128 .L802-.LFB1601
	.uleb128 0
	.uleb128 .LEHB122-.LFB1601
	.uleb128 .LEHE122-.LEHB122
	.uleb128 0
	.uleb128 0
.LLSDACSE1601:
	.section	".text"
	.size	_ZN12UpdateWindow6ChooseESsSsSsSsSsSs, .-_ZN12UpdateWindow6ChooseESsSsSsSsSsSs
	.align 2
	.globl _ZN12UpdateWindow11ShowButtonsESsSsSsSsSsSs
	.type	_ZN12UpdateWindow11ShowButtonsESsSsSsSsSsSs, @function
_ZN12UpdateWindow11ShowButtonsESsSsSsSsSsSs:
.LFB1600:
	.loc 4 184 0
	.cfi_startproc
	.cfi_personality 0,__gxx_personality_v0
	.cfi_lsda 0,.LLSDA1600
.LVL788:
	stwu 1,-80(1)
.LCFI99:
	.cfi_def_cfa_offset 80
	mflr 0
	stw 30,72(1)
	mr 30,3
	.cfi_offset 30, -8
	.cfi_register 65, 0
	stw 0,84(1)
	stw 24,48(1)
	stw 25,52(1)
	mr 25,5
	.cfi_offset 25, -28
	.cfi_offset 24, -32
	.cfi_offset 65, 4
	stw 26,56(1)
	mr 26,6
	.cfi_offset 26, -24
	stw 27,60(1)
	mr 27,7
	.cfi_offset 27, -20
	stw 28,64(1)
	mr 28,8
	.cfi_offset 28, -16
	stw 29,68(1)
	mr 29,9
	.cfi_offset 29, -12
	stw 31,76(1)
	.loc 4 185 0
	stw 4,40(1)
.LEHB123:
	.cfi_offset 31, -4
	bl _ZN12UpdateWindow11RemoveItemsEv
.LVL789:
	.loc 4 187 0
	lwz 31,276(30)
	addi 3,1,36
	lwz 4,40(1)
	lwz 9,0(31)
	lwz 24,204(9)
	bl _ZNSsC1ERKSs
.LEHE123:
	mr 3,31
	addi 4,1,36
	mtctr 24
.LEHB124:
	bctrl
.LEHE124:
.LVL790:
.LBB5871:
.LBB5872:
.LBB5873:
.LBB5874:
.LBB5875:
.LBB5876:
	.loc 16 288 0
	lwz 9,36(1)
.LBE5876:
.LBE5875:
.LBE5874:
.LBB5877:
.LBB5878:
	.loc 16 235 0
	lis 31,_ZNSs4_Rep20_S_empty_rep_storageE@ha
	la 31,_ZNSs4_Rep20_S_empty_rep_storageE@l(31)
.LBE5878:
.LBE5877:
	.loc 16 534 0
	addi 3,9,-12
.LVL791:
.LBB5887:
.LBB5885:
	.loc 16 235 0
	cmpw 7,3,31
	bne- 7,.L859
.LVL792:
.L816:
.LBE5885:
.LBE5887:
.LBE5873:
.LBE5872:
.LBE5871:
	.loc 4 188 0 discriminator 1
	lwz 24,280(30)
	mr 4,25
	addi 3,1,32
	lwz 9,0(24)
	lwz 25,204(9)
.LVL793:
.LEHB125:
	bl _ZNSsC1ERKSs
.LEHE125:
.LVL794:
	mr 3,24
	addi 4,1,32
	mtctr 25
.LEHB126:
	bctrl
.LEHE126:
.LVL795:
.LBB5891:
.LBB5892:
.LBB5893:
.LBB5894:
.LBB5895:
.LBB5896:
	.loc 16 288 0
	lwz 9,32(1)
.LBE5896:
.LBE5895:
.LBE5894:
	.loc 16 534 0
	addi 3,9,-12
.LVL796:
.LBB5897:
.LBB5898:
	.loc 16 235 0
	cmpw 7,3,31
	bne- 7,.L860
.LVL797:
.L822:
.LBE5898:
.LBE5897:
.LBE5893:
.LBE5892:
.LBE5891:
	.loc 4 190 0 discriminator 1
	addi 3,1,28
	mr 4,26
.LEHB127:
	bl _ZNSsC1ERKSs
.LEHE127:
	addi 3,1,24
	mr 4,27
.LEHB128:
	bl _ZNSsC1ERKSs
.LEHE128:
	addi 3,1,20
	mr 4,28
.LEHB129:
	bl _ZNSsC1ERKSs
.LEHE129:
	.loc 4 190 0 is_stmt 0 discriminator 2
	addi 3,1,16
	mr 4,29
.LEHB130:
	bl _ZNSsC1ERKSs
.LEHE130:
	.loc 4 190 0 discriminator 3
	mr 3,30
	addi 4,1,28
	addi 5,1,24
	addi 6,1,20
	addi 7,1,16
.LEHB131:
	bl _ZN12UpdateWindow10SetButtonsESsSsSsSs.constprop.149
.LEHE131:
.LVL798:
.LBB5909:
.LBB5910:
.LBB5911:
.LBB5912:
.LBB5913:
.LBB5914:
	.loc 16 288 0 is_stmt 1
	lwz 9,16(1)
.LBE5914:
.LBE5913:
.LBE5912:
	.loc 16 534 0
	addi 3,9,-12
.LVL799:
.LBB5915:
.LBB5916:
	.loc 16 235 0
	cmpw 7,3,31
	bne- 7,.L861
.LVL800:
.L828:
.LBE5916:
.LBE5915:
.LBE5911:
.LBE5910:
.LBE5909:
.LBB5927:
.LBB5928:
.LBB5929:
.LBB5930:
.LBB5931:
.LBB5932:
	.loc 16 288 0
	lwz 9,20(1)
.LBE5932:
.LBE5931:
.LBE5930:
	.loc 16 534 0
	addi 3,9,-12
.LVL801:
.LBB5933:
.LBB5934:
	.loc 16 235 0
	cmpw 7,3,31
	bne- 7,.L862
.LVL802:
.L834:
.LBE5934:
.LBE5933:
.LBE5929:
.LBE5928:
.LBE5927:
.LBB5945:
.LBB5946:
.LBB5947:
.LBB5948:
.LBB5949:
.LBB5950:
	.loc 16 288 0
	lwz 9,24(1)
.LBE5950:
.LBE5949:
.LBE5948:
	.loc 16 534 0
	addi 3,9,-12
.LVL803:
.LBB5951:
.LBB5952:
	.loc 16 235 0
	cmpw 7,3,31
	bne- 7,.L863
.LVL804:
.L840:
.LBE5952:
.LBE5951:
.LBE5947:
.LBE5946:
.LBE5945:
.LBB5963:
.LBB5964:
.LBB5965:
.LBB5966:
.LBB5967:
.LBB5968:
	.loc 16 288 0
	lwz 9,28(1)
.LBE5968:
.LBE5967:
.LBE5966:
	.loc 16 534 0
	addi 3,9,-12
.LVL805:
.LBB5969:
.LBB5970:
	.loc 16 235 0
	cmpw 7,3,31
	bne- 7,.L864
.LVL806:
.L846:
.LBE5970:
.LBE5969:
.LBE5965:
.LBE5964:
.LBE5963:
	.loc 4 192 0 discriminator 1
	li 0,0
	.loc 4 193 0 discriminator 1
	lwz 24,48(1)
	.loc 4 192 0 discriminator 1
	stw 0,224(30)
	.loc 4 193 0 discriminator 1
	lwz 0,84(1)
	lwz 25,52(1)
	mtlr 0
	lwz 26,56(1)
.LVL807:
	lwz 27,60(1)
.LVL808:
	lwz 28,64(1)
.LVL809:
	lwz 29,68(1)
.LVL810:
	lwz 30,72(1)
.LVL811:
	lwz 31,76(1)
	addi 1,1,80
	.cfi_remember_state
.LCFI100:
	.cfi_def_cfa_offset 0
	.cfi_restore 31
	.cfi_restore 30
	.cfi_restore 29
	.cfi_restore 28
	.cfi_restore 27
	.cfi_restore 26
	.cfi_restore 25
	.cfi_restore 24
	blr
.LVL812:
.L859:
.LCFI101:
	.cfi_restore_state
.LBB5981:
.LBB5890:
.LBB5889:
.LBB5888:
.LBB5886:
.LBB5879:
.LBB5880:
.LBB5881:
	.loc 17 66 0
	lwz 11,-4(9)
.LVL813:
.LBE5881:
.LBE5880:
.LBE5879:
	.loc 16 240 0
	cmpwi 7,11,0
.LBB5884:
.LBB5883:
.LBB5882:
	.loc 17 67 0
	addi 11,11,-1
	stw 11,-4(9)
.LBE5882:
.LBE5883:
.LBE5884:
	.loc 16 240 0
	bgt+ 7,.L816
	.loc 16 244 0
	addi 4,1,13
	bl _ZNSs4_Rep10_M_destroyERKSaIcE
.LVL814:
	b .L816
.LVL815:
.L864:
.LBE5886:
.LBE5888:
.LBE5889:
.LBE5890:
.LBE5981:
.LBB5982:
.LBB5980:
.LBB5979:
.LBB5978:
.LBB5977:
.LBB5971:
.LBB5972:
.LBB5973:
	.loc 17 66 0
	lwz 11,-4(9)
.LVL816:
.LBE5973:
.LBE5972:
.LBE5971:
	.loc 16 240 0
	cmpwi 7,11,0
.LBB5976:
.LBB5975:
.LBB5974:
	.loc 17 67 0
	addi 11,11,-1
	stw 11,-4(9)
.LBE5974:
.LBE5975:
.LBE5976:
	.loc 16 240 0
	bgt+ 7,.L846
	.loc 16 244 0
	addi 4,1,8
	bl _ZNSs4_Rep10_M_destroyERKSaIcE
.LVL817:
	b .L846
.LVL818:
.L863:
.LBE5977:
.LBE5978:
.LBE5979:
.LBE5980:
.LBE5982:
.LBB5983:
.LBB5962:
.LBB5961:
.LBB5960:
.LBB5959:
.LBB5953:
.LBB5954:
.LBB5955:
	.loc 17 66 0
	lwz 11,-4(9)
.LVL819:
.LBE5955:
.LBE5954:
.LBE5953:
	.loc 16 240 0
	cmpwi 7,11,0
.LBB5958:
.LBB5957:
.LBB5956:
	.loc 17 67 0
	addi 11,11,-1
	stw 11,-4(9)
.LBE5956:
.LBE5957:
.LBE5958:
	.loc 16 240 0
	bgt+ 7,.L840
	.loc 16 244 0
	addi 4,1,9
	bl _ZNSs4_Rep10_M_destroyERKSaIcE
.LVL820:
	b .L840
.LVL821:
.L862:
.LBE5959:
.LBE5960:
.LBE5961:
.LBE5962:
.LBE5983:
.LBB5984:
.LBB5944:
.LBB5943:
.LBB5942:
.LBB5941:
.LBB5935:
.LBB5936:
.LBB5937:
	.loc 17 66 0
	lwz 11,-4(9)
.LVL822:
.LBE5937:
.LBE5936:
.LBE5935:
	.loc 16 240 0
	cmpwi 7,11,0
.LBB5940:
.LBB5939:
.LBB5938:
	.loc 17 67 0
	addi 11,11,-1
	stw 11,-4(9)
.LBE5938:
.LBE5939:
.LBE5940:
	.loc 16 240 0
	bgt+ 7,.L834
	.loc 16 244 0
	addi 4,1,10
	bl _ZNSs4_Rep10_M_destroyERKSaIcE
.LVL823:
	b .L834
.LVL824:
.L861:
.LBE5941:
.LBE5942:
.LBE5943:
.LBE5944:
.LBE5984:
.LBB5985:
.LBB5926:
.LBB5925:
.LBB5924:
.LBB5923:
.LBB5917:
.LBB5918:
.LBB5919:
	.loc 17 66 0
	lwz 11,-4(9)
.LVL825:
.LBE5919:
.LBE5918:
.LBE5917:
	.loc 16 240 0
	cmpwi 7,11,0
.LBB5922:
.LBB5921:
.LBB5920:
	.loc 17 67 0
	addi 11,11,-1
	stw 11,-4(9)
.LBE5920:
.LBE5921:
.LBE5922:
	.loc 16 240 0
	bgt+ 7,.L828
	.loc 16 244 0
	addi 4,1,11
	bl _ZNSs4_Rep10_M_destroyERKSaIcE
.LVL826:
	b .L828
.LVL827:
.L860:
.LBE5923:
.LBE5924:
.LBE5925:
.LBE5926:
.LBE5985:
.LBB5986:
.LBB5908:
.LBB5907:
.LBB5906:
.LBB5905:
.LBB5899:
.LBB5900:
.LBB5901:
	.loc 17 66 0
	lwz 11,-4(9)
.LVL828:
.LBE5901:
.LBE5900:
.LBE5899:
	.loc 16 240 0
	cmpwi 7,11,0
.LBB5904:
.LBB5903:
.LBB5902:
	.loc 17 67 0
	addi 11,11,-1
	stw 11,-4(9)
.LBE5902:
.LBE5903:
.LBE5904:
	.loc 16 240 0
	bgt+ 7,.L822
	.loc 16 244 0
	addi 4,1,12
	bl _ZNSs4_Rep10_M_destroyERKSaIcE
.LVL829:
	b .L822
.LVL830:
.L853:
	mr 31,3
.LBE5905:
.LBE5906:
.LBE5907:
.LBE5908:
.LBE5986:
	.loc 4 187 0
	addi 3,1,36
	bl _ZNSsD1Ev
	mr 3,31
.LEHB132:
	bl _Unwind_Resume
.LVL831:
.L858:
	mr 31,3
	.loc 4 190 0
	addi 3,1,16
	bl _ZNSsD1Ev
.L850:
	addi 3,1,20
	bl _ZNSsD1Ev
.L851:
	addi 3,1,24
	bl _ZNSsD1Ev
.L852:
	addi 3,1,28
	bl _ZNSsD1Ev
	mr 3,31
	bl _Unwind_Resume
.L857:
	mr 31,3
	b .L850
.L856:
	mr 31,3
	b .L851
.L855:
	mr 31,3
	b .L852
.LVL832:
.L854:
	mr 31,3
	.loc 4 188 0
	addi 3,1,32
	bl _ZNSsD1Ev
	mr 3,31
	bl _Unwind_Resume
.LEHE132:
	.cfi_endproc
.LFE1600:
	.section	.gcc_except_table
.LLSDA1600:
	.byte	0xff
	.byte	0xff
	.byte	0x1
	.uleb128 .LLSDACSE1600-.LLSDACSB1600
.LLSDACSB1600:
	.uleb128 .LEHB123-.LFB1600
	.uleb128 .LEHE123-.LEHB123
	.uleb128 0
	.uleb128 0
	.uleb128 .LEHB124-.LFB1600
	.uleb128 .LEHE124-.LEHB124
	.uleb128 .L853-.LFB1600
	.uleb128 0
	.uleb128 .LEHB125-.LFB1600
	.uleb128 .LEHE125-.LEHB125
	.uleb128 0
	.uleb128 0
	.uleb128 .LEHB126-.LFB1600
	.uleb128 .LEHE126-.LEHB126
	.uleb128 .L854-.LFB1600
	.uleb128 0
	.uleb128 .LEHB127-.LFB1600
	.uleb128 .LEHE127-.LEHB127
	.uleb128 0
	.uleb128 0
	.uleb128 .LEHB128-.LFB1600
	.uleb128 .LEHE128-.LEHB128
	.uleb128 .L855-.LFB1600
	.uleb128 0
	.uleb128 .LEHB129-.LFB1600
	.uleb128 .LEHE129-.LEHB129
	.uleb128 .L856-.LFB1600
	.uleb128 0
	.uleb128 .LEHB130-.LFB1600
	.uleb128 .LEHE130-.LEHB130
	.uleb128 .L857-.LFB1600
	.uleb128 0
	.uleb128 .LEHB131-.LFB1600
	.uleb128 .LEHE131-.LEHB131
	.uleb128 .L858-.LFB1600
	.uleb128 0
	.uleb128 .LEHB132-.LFB1600
	.uleb128 .LEHE132-.LEHB132
	.uleb128 0
	.uleb128 0
.LLSDACSE1600:
	.section	".text"
	.size	_ZN12UpdateWindow11ShowButtonsESsSsSsSsSsSs, .-_ZN12UpdateWindow11ShowButtonsESsSsSsSsSsSs
	.align 2
	.globl _ZN12UpdateWindow12ShowProgressESsSsii
	.type	_ZN12UpdateWindow12ShowProgressESsSsii, @function
_ZN12UpdateWindow12ShowProgressESsSsii:
.LFB1604:
	.loc 4 217 0
	.cfi_startproc
	.cfi_personality 0,__gxx_personality_v0
	.cfi_lsda 0,.LLSDA1604
.LVL833:
	stwu 1,-88(1)
.LCFI102:
	.cfi_def_cfa_offset 88
	mflr 0
	stw 31,84(1)
	mr 31,3
	.cfi_offset 31, -4
	.cfi_register 65, 0
	stw 0,92(1)
	stw 26,64(1)
	stw 27,68(1)
	mr 27,6
	.cfi_offset 27, -20
	.cfi_offset 26, -24
	.cfi_offset 65, 4
	stw 28,72(1)
	mr 28,7
	.cfi_offset 28, -16
	stw 29,76(1)
	mr 29,5
	.cfi_offset 29, -12
	stw 30,80(1)
	.loc 4 218 0
	stw 4,56(1)
.LEHB133:
	.cfi_offset 30, -8
	bl _ZN12UpdateWindow11RemoveItemsEv
.LVL834:
	.loc 4 220 0
	lwz 30,276(31)
	addi 3,1,40
	lwz 4,56(1)
	lwz 9,0(30)
	lwz 26,204(9)
	bl _ZNSsC1ERKSs
.LEHE133:
	mr 3,30
	addi 4,1,40
	mtctr 26
.LEHB134:
	bctrl
.LEHE134:
.LVL835:
.LBB6143:
.LBB6144:
.LBB6145:
.LBB6146:
.LBB6147:
.LBB6148:
	.loc 16 288 0
	lwz 9,40(1)
.LBE6148:
.LBE6147:
.LBE6146:
.LBB6149:
.LBB6150:
	.loc 16 235 0
	lis 30,_ZNSs4_Rep20_S_empty_rep_storageE@ha
	la 30,_ZNSs4_Rep20_S_empty_rep_storageE@l(30)
.LBE6150:
.LBE6149:
	.loc 16 534 0
	addi 3,9,-12
.LVL836:
.LBB6159:
.LBB6157:
	.loc 16 235 0
	cmpw 7,3,30
	bne- 7,.L931
.LVL837:
.L871:
.LBE6157:
.LBE6159:
.LBE6145:
.LBE6144:
.LBE6143:
	.loc 4 221 0 discriminator 1
	lwz 26,280(31)
	mr 4,29
	addi 3,1,36
	lwz 9,0(26)
	lwz 29,204(9)
.LVL838:
.LEHB135:
	bl _ZNSsC1ERKSs
.LEHE135:
.LVL839:
	mr 3,26
	addi 4,1,36
	mtctr 29
.LEHB136:
	bctrl
.LEHE136:
.LVL840:
.LBB6163:
.LBB6164:
.LBB6165:
.LBB6166:
.LBB6167:
.LBB6168:
	.loc 16 288 0
	lwz 9,36(1)
.LBE6168:
.LBE6167:
.LBE6166:
	.loc 16 534 0
	addi 3,9,-12
.LVL841:
.LBB6169:
.LBB6170:
	.loc 16 235 0
	cmpw 7,3,30
	bne- 7,.L932
.LVL842:
.L877:
.LBE6170:
.LBE6169:
.LBE6165:
.LBE6164:
.LBE6163:
	.loc 4 223 0 discriminator 1
	lis 29,_ZN12UpdateWindow13cancelEnabledE@ha
	lbz 0,_ZN12UpdateWindow13cancelEnabledE@l(29)
	cmpwi 7,0,0
	beq- 7,.L909
	.loc 4 224 0
	lis 3,.LC15@ha
	lis 26,.LC13@ha
	la 3,.LC15@l(3)
	la 26,.LC13@l(26)
.LEHB137:
	bl gettext
	addi 5,1,17
	mr 4,3
	addi 3,1,32
	bl _ZNSsC1EPKcRKSaIcE
.LEHE137:
	addi 3,1,28
	mr 4,26
	addi 5,1,16
.LEHB138:
	bl _ZNSsC1EPKcRKSaIcE
.LEHE138:
	.loc 4 224 0 is_stmt 0 discriminator 2
	addi 3,1,24
	mr 4,26
	addi 5,1,15
.LEHB139:
	bl _ZNSsC1EPKcRKSaIcE
.LEHE139:
	.loc 4 224 0 discriminator 3
	addi 3,1,20
	mr 4,26
	addi 5,1,14
.LEHB140:
	bl _ZNSsC1EPKcRKSaIcE
.LEHE140:
	.loc 4 224 0 discriminator 4
	mr 3,31
	addi 4,1,32
	addi 5,1,28
	addi 6,1,24
	addi 7,1,20
.LEHB141:
	bl _ZN12UpdateWindow10SetButtonsESsSsSsSs.constprop.149
.LEHE141:
.LVL843:
.LBB6181:
.LBB6182:
.LBB6183:
.LBB6184:
.LBB6185:
.LBB6186:
	.loc 16 288 0 is_stmt 1
	lwz 9,20(1)
.LBE6186:
.LBE6185:
.LBE6184:
	.loc 16 534 0
	addi 3,9,-12
.LVL844:
.LBB6187:
.LBB6188:
	.loc 16 235 0
	cmpw 7,3,30
	bne- 7,.L933
.LVL845:
.L886:
.LBE6188:
.LBE6187:
.LBE6183:
.LBE6182:
.LBE6181:
.LBB6199:
.LBB6200:
.LBB6201:
.LBB6202:
.LBB6203:
.LBB6204:
	.loc 16 288 0
	lwz 9,24(1)
.LBE6204:
.LBE6203:
.LBE6202:
	.loc 16 534 0
	addi 3,9,-12
.LVL846:
.LBB6205:
.LBB6206:
	.loc 16 235 0
	cmpw 7,3,30
	bne- 7,.L934
.LVL847:
.L894:
.LBE6206:
.LBE6205:
.LBE6201:
.LBE6200:
.LBE6199:
.LBB6217:
.LBB6218:
.LBB6219:
.LBB6220:
.LBB6221:
.LBB6222:
	.loc 16 288 0
	lwz 9,28(1)
.LBE6222:
.LBE6221:
.LBE6220:
	.loc 16 534 0
	addi 3,9,-12
.LVL848:
.LBB6223:
.LBB6224:
	.loc 16 235 0
	cmpw 7,3,30
	bne- 7,.L935
.LVL849:
.L902:
.LBE6224:
.LBE6223:
.LBE6219:
.LBE6218:
.LBE6217:
.LBB6235:
.LBB6236:
.LBB6237:
.LBB6238:
.LBB6239:
.LBB6240:
	.loc 16 288 0
	lwz 9,32(1)
.LBE6240:
.LBE6239:
.LBE6238:
	.loc 16 534 0
	addi 3,9,-12
.LVL850:
.LBB6241:
.LBB6242:
	.loc 16 235 0
	cmpw 7,3,30
	bne- 7,.L936
.LVL851:
.L909:
.LBE6242:
.LBE6241:
.LBE6237:
.LBE6236:
.LBE6235:
	.loc 4 226 0
	mr 3,31
	mr 4,27
	mr 5,28
.LEHB142:
	bl _ZN12UpdateWindow11SetProgressEii
	.loc 4 230 0
	lbz 0,_ZN12UpdateWindow13cancelEnabledE@l(29)
	cmpwi 7,0,0
	.loc 4 228 0
	li 0,1
	stw 0,224(31)
	.loc 4 230 0
	beq- 7,.L937
.LVL852:
.L865:
	.loc 4 232 0
	lwz 0,92(1)
	lwz 26,64(1)
	mtlr 0
	lwz 27,68(1)
.LVL853:
	lwz 28,72(1)
.LVL854:
	lwz 29,76(1)
	lwz 30,80(1)
	lwz 31,84(1)
	addi 1,1,88
	.cfi_remember_state
.LCFI103:
	.cfi_def_cfa_offset 0
	.cfi_restore 31
	.cfi_restore 30
	.cfi_restore 29
	.cfi_restore 28
	.cfi_restore 27
	.cfi_restore 26
	blr
.LVL855:
.L937:
.LCFI104:
	.cfi_restore_state
.LBB6253:
.LBB6254:
	.loc 8 25 0
	lis 31,_ZN12ProgressTask8instanceE@ha
.LVL856:
	lwz 0,_ZN12ProgressTask8instanceE@l(31)
	cmpwi 7,0,0
	bne+ 7,.L865
	li 3,16
	bl _Znwj
.LEHE142:
	mr 30,3
.LEHB143:
	bl _ZN12ProgressTaskC1Ev
.LEHE143:
	stw 30,_ZN12ProgressTask8instanceE@l(31)
	b .L865
.LVL857:
.L936:
.LBE6254:
.LBE6253:
.LBB6256:
.LBB6252:
.LBB6251:
.LBB6250:
.LBB6249:
.LBB6243:
.LBB6244:
.LBB6245:
	.loc 17 66 0
	lwz 11,-4(9)
.LVL858:
.LBE6245:
.LBE6244:
.LBE6243:
	.loc 16 240 0
	cmpwi 7,11,0
.LBB6248:
.LBB6247:
.LBB6246:
	.loc 17 67 0
	addi 11,11,-1
	stw 11,-4(9)
.LBE6246:
.LBE6247:
.LBE6248:
	.loc 16 240 0
	bgt+ 7,.L909
	.loc 16 244 0
	addi 4,1,8
	bl _ZNSs4_Rep10_M_destroyERKSaIcE
.LVL859:
	b .L909
.LVL860:
.L934:
.LBE6249:
.LBE6250:
.LBE6251:
.LBE6252:
.LBE6256:
.LBB6257:
.LBB6216:
.LBB6215:
.LBB6214:
.LBB6213:
.LBB6207:
.LBB6208:
.LBB6209:
	.loc 17 66 0
	lwz 11,-4(9)
.LVL861:
.LBE6209:
.LBE6208:
.LBE6207:
	.loc 16 240 0
	cmpwi 7,11,0
.LBB6212:
.LBB6211:
.LBB6210:
	.loc 17 67 0
	addi 11,11,-1
	stw 11,-4(9)
.LBE6210:
.LBE6211:
.LBE6212:
	.loc 16 240 0
	bgt+ 7,.L894
	.loc 16 244 0
	addi 4,1,10
	bl _ZNSs4_Rep10_M_destroyERKSaIcE
.LVL862:
	b .L894
.LVL863:
.L933:
.LBE6213:
.LBE6214:
.LBE6215:
.LBE6216:
.LBE6257:
.LBB6258:
.LBB6198:
.LBB6197:
.LBB6196:
.LBB6195:
.LBB6189:
.LBB6190:
.LBB6191:
	.loc 17 66 0
	lwz 11,-4(9)
.LVL864:
.LBE6191:
.LBE6190:
.LBE6189:
	.loc 16 240 0
	cmpwi 7,11,0
.LBB6194:
.LBB6193:
.LBB6192:
	.loc 17 67 0
	addi 11,11,-1
	stw 11,-4(9)
.LBE6192:
.LBE6193:
.LBE6194:
	.loc 16 240 0
	bgt+ 7,.L886
	.loc 16 244 0
	addi 4,1,11
	bl _ZNSs4_Rep10_M_destroyERKSaIcE
.LVL865:
	b .L886
.LVL866:
.L935:
.LBE6195:
.LBE6196:
.LBE6197:
.LBE6198:
.LBE6258:
.LBB6259:
.LBB6234:
.LBB6233:
.LBB6232:
.LBB6231:
.LBB6225:
.LBB6226:
.LBB6227:
	.loc 17 66 0
	lwz 11,-4(9)
.LVL867:
.LBE6227:
.LBE6226:
.LBE6225:
	.loc 16 240 0
	cmpwi 7,11,0
.LBB6230:
.LBB6229:
.LBB6228:
	.loc 17 67 0
	addi 11,11,-1
	stw 11,-4(9)
.LBE6228:
.LBE6229:
.LBE6230:
	.loc 16 240 0
	bgt+ 7,.L902
	.loc 16 244 0
	addi 4,1,9
	bl _ZNSs4_Rep10_M_destroyERKSaIcE
.LVL868:
	b .L902
.LVL869:
.L931:
.LBE6231:
.LBE6232:
.LBE6233:
.LBE6234:
.LBE6259:
.LBB6260:
.LBB6162:
.LBB6161:
.LBB6160:
.LBB6158:
.LBB6151:
.LBB6152:
.LBB6153:
	.loc 17 66 0
	lwz 11,-4(9)
.LVL870:
.LBE6153:
.LBE6152:
.LBE6151:
	.loc 16 240 0
	cmpwi 7,11,0
.LBB6156:
.LBB6155:
.LBB6154:
	.loc 17 67 0
	addi 11,11,-1
	stw 11,-4(9)
.LBE6154:
.LBE6155:
.LBE6156:
	.loc 16 240 0
	bgt+ 7,.L871
	.loc 16 244 0
	addi 4,1,13
	bl _ZNSs4_Rep10_M_destroyERKSaIcE
.LVL871:
	b .L871
.LVL872:
.L932:
.LBE6158:
.LBE6160:
.LBE6161:
.LBE6162:
.LBE6260:
.LBB6261:
.LBB6180:
.LBB6179:
.LBB6178:
.LBB6177:
.LBB6171:
.LBB6172:
.LBB6173:
	.loc 17 66 0
	lwz 11,-4(9)
.LVL873:
.LBE6173:
.LBE6172:
.LBE6171:
	.loc 16 240 0
	cmpwi 7,11,0
.LBB6176:
.LBB6175:
.LBB6174:
	.loc 17 67 0
	addi 11,11,-1
	stw 11,-4(9)
.LBE6174:
.LBE6175:
.LBE6176:
	.loc 16 240 0
	bgt+ 7,.L877
	.loc 16 244 0
	addi 4,1,12
	bl _ZNSs4_Rep10_M_destroyERKSaIcE
.LVL874:
	b .L877
.LVL875:
.L930:
	mr 31,3
.LBE6177:
.LBE6178:
.LBE6179:
.LBE6180:
.LBE6261:
.LBB6262:
.LBB6255:
	.loc 8 25 0
	mr 3,30
	bl _ZdlPv
	mr 3,31
.LEHB144:
	bl _Unwind_Resume
.LVL876:
.L929:
	mr 31,3
.LVL877:
.LBE6255:
.LBE6262:
	.loc 4 224 0
	addi 3,1,20
	bl _ZNSsD1Ev
.L917:
	addi 3,1,24
	bl _ZNSsD1Ev
.L920:
	addi 3,1,28
	bl _ZNSsD1Ev
.L923:
	addi 3,1,32
	bl _ZNSsD1Ev
	mr 3,31
	bl _Unwind_Resume
.LVL878:
.L924:
	mr 31,3
.LVL879:
	.loc 4 220 0
	addi 3,1,40
	bl _ZNSsD1Ev
	mr 3,31
	bl _Unwind_Resume
.LVL880:
.L925:
	mr 31,3
.LVL881:
	.loc 4 221 0
	addi 3,1,36
	bl _ZNSsD1Ev
	mr 3,31
	bl _Unwind_Resume
.LEHE144:
.LVL882:
.L926:
	mr 31,3
.LVL883:
	b .L923
.LVL884:
.L928:
	mr 31,3
.LVL885:
	b .L917
.LVL886:
.L927:
	mr 31,3
.LVL887:
	b .L920
	.cfi_endproc
.LFE1604:
	.section	.gcc_except_table
.LLSDA1604:
	.byte	0xff
	.byte	0xff
	.byte	0x1
	.uleb128 .LLSDACSE1604-.LLSDACSB1604
.LLSDACSB1604:
	.uleb128 .LEHB133-.LFB1604
	.uleb128 .LEHE133-.LEHB133
	.uleb128 0
	.uleb128 0
	.uleb128 .LEHB134-.LFB1604
	.uleb128 .LEHE134-.LEHB134
	.uleb128 .L924-.LFB1604
	.uleb128 0
	.uleb128 .LEHB135-.LFB1604
	.uleb128 .LEHE135-.LEHB135
	.uleb128 0
	.uleb128 0
	.uleb128 .LEHB136-.LFB1604
	.uleb128 .LEHE136-.LEHB136
	.uleb128 .L925-.LFB1604
	.uleb128 0
	.uleb128 .LEHB137-.LFB1604
	.uleb128 .LEHE137-.LEHB137
	.uleb128 0
	.uleb128 0
	.uleb128 .LEHB138-.LFB1604
	.uleb128 .LEHE138-.LEHB138
	.uleb128 .L926-.LFB1604
	.uleb128 0
	.uleb128 .LEHB139-.LFB1604
	.uleb128 .LEHE139-.LEHB139
	.uleb128 .L927-.LFB1604
	.uleb128 0
	.uleb128 .LEHB140-.LFB1604
	.uleb128 .LEHE140-.LEHB140
	.uleb128 .L928-.LFB1604
	.uleb128 0
	.uleb128 .LEHB141-.LFB1604
	.uleb128 .LEHE141-.LEHB141
	.uleb128 .L929-.LFB1604
	.uleb128 0
	.uleb128 .LEHB142-.LFB1604
	.uleb128 .LEHE142-.LEHB142
	.uleb128 0
	.uleb128 0
	.uleb128 .LEHB143-.LFB1604
	.uleb128 .LEHE143-.LEHB143
	.uleb128 .L930-.LFB1604
	.uleb128 0
	.uleb128 .LEHB144-.LFB1604
	.uleb128 .LEHE144-.LEHB144
	.uleb128 0
	.uleb128 0
.LLSDACSE1604:
	.section	".text"
	.size	_ZN12UpdateWindow12ShowProgressESsSsii, .-_ZN12UpdateWindow12ShowProgressESsSsii
	.align 2
	.globl _ZN12UpdateWindow12ShowThrobberESsSs
	.type	_ZN12UpdateWindow12ShowThrobberESsSs, @function
_ZN12UpdateWindow12ShowThrobberESsSs:
.LFB1605:
	.loc 4 235 0
	.cfi_startproc
	.cfi_personality 0,__gxx_personality_v0
	.cfi_lsda 0,.LLSDA1605
.LVL888:
	stwu 1,-80(1)
.LCFI105:
	.cfi_def_cfa_offset 80
	mflr 0
	stw 31,76(1)
	mr 31,3
	.cfi_offset 31, -4
	.cfi_register 65, 0
	stw 0,84(1)
	stw 28,64(1)
	stw 29,68(1)
	mr 29,5
	.cfi_offset 29, -12
	.cfi_offset 28, -16
	.cfi_offset 65, 4
	stw 30,72(1)
	.loc 4 236 0
	stw 4,56(1)
.LEHB145:
	.cfi_offset 30, -8
	bl _ZN12UpdateWindow11RemoveItemsEv
.LVL889:
	.loc 4 238 0
	lwz 30,276(31)
	addi 3,1,40
	lwz 4,56(1)
	lwz 9,0(30)
	lwz 28,204(9)
	bl _ZNSsC1ERKSs
.LEHE145:
	mr 3,30
	addi 4,1,40
	mtctr 28
.LEHB146:
	bctrl
.LEHE146:
.LVL890:
.LBB6421:
.LBB6422:
.LBB6423:
.LBB6424:
.LBB6425:
.LBB6426:
	.loc 16 288 0
	lwz 9,40(1)
.LBE6426:
.LBE6425:
.LBE6424:
.LBB6427:
.LBB6428:
	.loc 16 235 0
	lis 30,_ZNSs4_Rep20_S_empty_rep_storageE@ha
	la 30,_ZNSs4_Rep20_S_empty_rep_storageE@l(30)
.LBE6428:
.LBE6427:
	.loc 16 534 0
	addi 3,9,-12
.LVL891:
.LBB6437:
.LBB6435:
	.loc 16 235 0
	cmpw 7,3,30
	bne- 7,.L1007
.LVL892:
.L944:
.LBE6435:
.LBE6437:
.LBE6423:
.LBE6422:
.LBE6421:
	.loc 4 239 0 discriminator 1
	lwz 28,280(31)
.LVL893:
.LBB6441:
.LBB6442:
	.loc 9 89 0 discriminator 1
	li 0,1
.LBE6442:
.LBE6441:
	.loc 4 240 0 discriminator 1
	mr 4,29
	addi 3,1,36
	lwz 9,0(28)
.LBB6444:
.LBB6443:
	.loc 9 89 0 discriminator 1
	stw 0,200(28)
.LBE6443:
.LBE6444:
	.loc 4 240 0 discriminator 1
	lwz 29,204(9)
.LVL894:
.LEHB147:
	bl _ZNSsC1ERKSs
.LEHE147:
.LVL895:
	mr 3,28
	addi 4,1,36
	mtctr 29
.LEHB148:
	bctrl
.LEHE148:
.LVL896:
.LBB6445:
.LBB6446:
.LBB6447:
.LBB6448:
.LBB6449:
.LBB6450:
	.loc 16 288 0
	lwz 9,36(1)
.LBE6450:
.LBE6449:
.LBE6448:
	.loc 16 534 0
	addi 3,9,-12
.LVL897:
.LBB6451:
.LBB6452:
	.loc 16 235 0
	cmpw 7,3,30
	bne- 7,.L1008
.LVL898:
.L950:
.LBE6452:
.LBE6451:
.LBE6447:
.LBE6446:
.LBE6445:
	.loc 4 242 0 discriminator 1
	lis 29,_ZN12UpdateWindow13cancelEnabledE@ha
	lbz 0,_ZN12UpdateWindow13cancelEnabledE@l(29)
	cmpwi 7,0,0
	beq- 7,.L982
	.loc 4 243 0
	lis 3,.LC15@ha
	lis 28,.LC13@ha
	la 3,.LC15@l(3)
	la 28,.LC13@l(28)
.LEHB149:
	bl gettext
	addi 5,1,17
	mr 4,3
	addi 3,1,32
	bl _ZNSsC1EPKcRKSaIcE
.LEHE149:
	addi 3,1,28
	mr 4,28
	addi 5,1,16
.LEHB150:
	bl _ZNSsC1EPKcRKSaIcE
.LEHE150:
	.loc 4 243 0 is_stmt 0 discriminator 2
	addi 3,1,24
	mr 4,28
	addi 5,1,15
.LEHB151:
	bl _ZNSsC1EPKcRKSaIcE
.LEHE151:
	.loc 4 243 0 discriminator 3
	addi 3,1,20
	mr 4,28
	addi 5,1,14
.LEHB152:
	bl _ZNSsC1EPKcRKSaIcE
.LEHE152:
	.loc 4 243 0 discriminator 4
	mr 3,31
	addi 4,1,32
	addi 5,1,28
	addi 6,1,24
	addi 7,1,20
.LEHB153:
	bl _ZN12UpdateWindow10SetButtonsESsSsSsSs.constprop.149
.LEHE153:
.LVL899:
.LBB6463:
.LBB6464:
.LBB6465:
.LBB6466:
.LBB6467:
.LBB6468:
	.loc 16 288 0 is_stmt 1
	lwz 9,20(1)
.LBE6468:
.LBE6467:
.LBE6466:
	.loc 16 534 0
	addi 3,9,-12
.LVL900:
.LBB6469:
.LBB6470:
	.loc 16 235 0
	cmpw 7,3,30
	bne- 7,.L1009
.LVL901:
.L959:
.LBE6470:
.LBE6469:
.LBE6465:
.LBE6464:
.LBE6463:
.LBB6481:
.LBB6482:
.LBB6483:
.LBB6484:
.LBB6485:
.LBB6486:
	.loc 16 288 0
	lwz 9,24(1)
.LBE6486:
.LBE6485:
.LBE6484:
	.loc 16 534 0
	addi 3,9,-12
.LVL902:
.LBB6487:
.LBB6488:
	.loc 16 235 0
	cmpw 7,3,30
	bne- 7,.L1010
.LVL903:
.L967:
.LBE6488:
.LBE6487:
.LBE6483:
.LBE6482:
.LBE6481:
.LBB6499:
.LBB6500:
.LBB6501:
.LBB6502:
.LBB6503:
.LBB6504:
	.loc 16 288 0
	lwz 9,28(1)
.LBE6504:
.LBE6503:
.LBE6502:
	.loc 16 534 0
	addi 3,9,-12
.LVL904:
.LBB6505:
.LBB6506:
	.loc 16 235 0
	cmpw 7,3,30
	bne- 7,.L1011
.LVL905:
.L975:
.LBE6506:
.LBE6505:
.LBE6501:
.LBE6500:
.LBE6499:
.LBB6517:
.LBB6518:
.LBB6519:
.LBB6520:
.LBB6521:
.LBB6522:
	.loc 16 288 0
	lwz 9,32(1)
.LBE6522:
.LBE6521:
.LBE6520:
	.loc 16 534 0
	addi 3,9,-12
.LVL906:
.LBB6523:
.LBB6524:
	.loc 16 235 0
	cmpw 7,3,30
	bne- 7,.L1012
.LVL907:
.L982:
.LBE6524:
.LBE6523:
.LBE6519:
.LBE6518:
.LBE6517:
	.loc 4 245 0
	li 3,196
.LEHB154:
	bl _Znwj
.LEHE154:
	lwz 4,236(31)
	mr 30,3
.LEHB155:
	bl _ZN8GuiImageC1EP12GuiImageData
.LEHE155:
	.loc 4 246 0 discriminator 1
	lwz 9,0(30)
	mr 3,30
	.loc 4 245 0 discriminator 1
	stw 30,240(31)
	.loc 4 246 0 discriminator 1
	li 4,34
	lwz 0,180(9)
	mtctr 0
.LEHB156:
	bctrl
	.loc 4 247 0 discriminator 1
	lwz 3,240(31)
	li 4,0
	li 5,20
	lwz 9,0(3)
	lwz 0,168(9)
	mtctr 0
	bctrl
	.loc 4 248 0 discriminator 1
	lwz 4,240(31)
	mr 3,31
	bl _ZN8GuiFrame6AppendEP10GuiElement
	.loc 4 252 0 discriminator 1
	lbz 0,_ZN12UpdateWindow13cancelEnabledE@l(29)
	cmpwi 7,0,0
	.loc 4 250 0 discriminator 1
	li 0,2
	stw 0,224(31)
	.loc 4 252 0 discriminator 1
	beq- 7,.L1013
.LVL908:
.L938:
	.loc 4 254 0
	lwz 0,84(1)
	lwz 28,64(1)
	mtlr 0
	lwz 29,68(1)
	lwz 30,72(1)
	lwz 31,76(1)
	addi 1,1,80
	.cfi_remember_state
.LCFI106:
	.cfi_def_cfa_offset 0
	.cfi_restore 31
	.cfi_restore 30
	.cfi_restore 29
	.cfi_restore 28
	blr
.LVL909:
.L1013:
.LCFI107:
	.cfi_restore_state
.LBB6535:
.LBB6536:
	.loc 8 25 0
	lis 31,_ZN12ProgressTask8instanceE@ha
.LVL910:
	lwz 0,_ZN12ProgressTask8instanceE@l(31)
	cmpwi 7,0,0
	bne+ 7,.L938
	li 3,16
	bl _Znwj
.LEHE156:
	mr 30,3
.LEHB157:
	bl _ZN12ProgressTaskC1Ev
.LEHE157:
	stw 30,_ZN12ProgressTask8instanceE@l(31)
	b .L938
.LVL911:
.L1012:
.LBE6536:
.LBE6535:
.LBB6537:
.LBB6534:
.LBB6533:
.LBB6532:
.LBB6531:
.LBB6525:
.LBB6526:
.LBB6527:
	.loc 17 66 0
	lwz 11,-4(9)
.LVL912:
.LBE6527:
.LBE6526:
.LBE6525:
	.loc 16 240 0
	cmpwi 7,11,0
.LBB6530:
.LBB6529:
.LBB6528:
	.loc 17 67 0
	addi 11,11,-1
	stw 11,-4(9)
.LBE6528:
.LBE6529:
.LBE6530:
	.loc 16 240 0
	bgt+ 7,.L982
	.loc 16 244 0
	addi 4,1,8
	bl _ZNSs4_Rep10_M_destroyERKSaIcE
.LVL913:
	b .L982
.LVL914:
.L1010:
.LBE6531:
.LBE6532:
.LBE6533:
.LBE6534:
.LBE6537:
.LBB6538:
.LBB6498:
.LBB6497:
.LBB6496:
.LBB6495:
.LBB6489:
.LBB6490:
.LBB6491:
	.loc 17 66 0
	lwz 11,-4(9)
.LVL915:
.LBE6491:
.LBE6490:
.LBE6489:
	.loc 16 240 0
	cmpwi 7,11,0
.LBB6494:
.LBB6493:
.LBB6492:
	.loc 17 67 0
	addi 11,11,-1
	stw 11,-4(9)
.LBE6492:
.LBE6493:
.LBE6494:
	.loc 16 240 0
	bgt+ 7,.L967
	.loc 16 244 0
	addi 4,1,10
	bl _ZNSs4_Rep10_M_destroyERKSaIcE
.LVL916:
	b .L967
.LVL917:
.L1009:
.LBE6495:
.LBE6496:
.LBE6497:
.LBE6498:
.LBE6538:
.LBB6539:
.LBB6480:
.LBB6479:
.LBB6478:
.LBB6477:
.LBB6471:
.LBB6472:
.LBB6473:
	.loc 17 66 0
	lwz 11,-4(9)
.LVL918:
.LBE6473:
.LBE6472:
.LBE6471:
	.loc 16 240 0
	cmpwi 7,11,0
.LBB6476:
.LBB6475:
.LBB6474:
	.loc 17 67 0
	addi 11,11,-1
	stw 11,-4(9)
.LBE6474:
.LBE6475:
.LBE6476:
	.loc 16 240 0
	bgt+ 7,.L959
	.loc 16 244 0
	addi 4,1,11
	bl _ZNSs4_Rep10_M_destroyERKSaIcE
.LVL919:
	b .L959
.LVL920:
.L1011:
.LBE6477:
.LBE6478:
.LBE6479:
.LBE6480:
.LBE6539:
.LBB6540:
.LBB6516:
.LBB6515:
.LBB6514:
.LBB6513:
.LBB6507:
.LBB6508:
.LBB6509:
	.loc 17 66 0
	lwz 11,-4(9)
.LVL921:
.LBE6509:
.LBE6508:
.LBE6507:
	.loc 16 240 0
	cmpwi 7,11,0
.LBB6512:
.LBB6511:
.LBB6510:
	.loc 17 67 0
	addi 11,11,-1
	stw 11,-4(9)
.LBE6510:
.LBE6511:
.LBE6512:
	.loc 16 240 0
	bgt+ 7,.L975
	.loc 16 244 0
	addi 4,1,9
	bl _ZNSs4_Rep10_M_destroyERKSaIcE
.LVL922:
	b .L975
.LVL923:
.L1007:
.LBE6513:
.LBE6514:
.LBE6515:
.LBE6516:
.LBE6540:
.LBB6541:
.LBB6440:
.LBB6439:
.LBB6438:
.LBB6436:
.LBB6429:
.LBB6430:
.LBB6431:
	.loc 17 66 0
	lwz 11,-4(9)
.LVL924:
.LBE6431:
.LBE6430:
.LBE6429:
	.loc 16 240 0
	cmpwi 7,11,0
.LBB6434:
.LBB6433:
.LBB6432:
	.loc 17 67 0
	addi 11,11,-1
	stw 11,-4(9)
.LBE6432:
.LBE6433:
.LBE6434:
	.loc 16 240 0
	bgt+ 7,.L944
	.loc 16 244 0
	addi 4,1,13
	bl _ZNSs4_Rep10_M_destroyERKSaIcE
.LVL925:
	b .L944
.LVL926:
.L1008:
.LBE6436:
.LBE6438:
.LBE6439:
.LBE6440:
.LBE6541:
.LBB6542:
.LBB6462:
.LBB6461:
.LBB6460:
.LBB6459:
.LBB6453:
.LBB6454:
.LBB6455:
	.loc 17 66 0
	lwz 11,-4(9)
.LVL927:
.LBE6455:
.LBE6454:
.LBE6453:
	.loc 16 240 0
	cmpwi 7,11,0
.LBB6458:
.LBB6457:
.LBB6456:
	.loc 17 67 0
	addi 11,11,-1
	stw 11,-4(9)
.LBE6456:
.LBE6457:
.LBE6458:
	.loc 16 240 0
	bgt+ 7,.L950
	.loc 16 244 0
	addi 4,1,12
	bl _ZNSs4_Rep10_M_destroyERKSaIcE
.LVL928:
	b .L950
.LVL929:
.L1000:
	mr 31,3
.LVL930:
.L996:
.LBE6459:
.LBE6460:
.LBE6461:
.LBE6462:
.LBE6542:
	.loc 4 243 0
	addi 3,1,32
	bl _ZNSsD1Ev
	mr 3,31
.LEHB158:
	bl _Unwind_Resume
.LVL931:
.L1005:
.L1006:
	mr 31,3
	.loc 4 245 0
	mr 3,30
	bl _ZdlPv
	mr 3,31
	bl _Unwind_Resume
.LVL932:
.L1001:
	mr 31,3
.LVL933:
.L993:
	.loc 4 243 0
	addi 3,1,28
	bl _ZNSsD1Ev
	b .L996
.LVL934:
.L1002:
	mr 31,3
.LVL935:
.L990:
	addi 3,1,24
	bl _ZNSsD1Ev
	b .L993
.LVL936:
.L1004:
	b .L1006
.LVL937:
.L998:
	mr 31,3
.LVL938:
	.loc 4 238 0
	addi 3,1,40
	bl _ZNSsD1Ev
	mr 3,31
	bl _Unwind_Resume
.LVL939:
.L1003:
	mr 31,3
.LVL940:
	.loc 4 243 0
	addi 3,1,20
	bl _ZNSsD1Ev
	b .L990
.LVL941:
.L999:
	mr 31,3
.LVL942:
	.loc 4 240 0
	addi 3,1,36
	bl _ZNSsD1Ev
	mr 3,31
	bl _Unwind_Resume
.LEHE158:
	.cfi_endproc
.LFE1605:
	.section	.gcc_except_table
.LLSDA1605:
	.byte	0xff
	.byte	0xff
	.byte	0x1
	.uleb128 .LLSDACSE1605-.LLSDACSB1605
.LLSDACSB1605:
	.uleb128 .LEHB145-.LFB1605
	.uleb128 .LEHE145-.LEHB145
	.uleb128 0
	.uleb128 0
	.uleb128 .LEHB146-.LFB1605
	.uleb128 .LEHE146-.LEHB146
	.uleb128 .L998-.LFB1605
	.uleb128 0
	.uleb128 .LEHB147-.LFB1605
	.uleb128 .LEHE147-.LEHB147
	.uleb128 0
	.uleb128 0
	.uleb128 .LEHB148-.LFB1605
	.uleb128 .LEHE148-.LEHB148
	.uleb128 .L999-.LFB1605
	.uleb128 0
	.uleb128 .LEHB149-.LFB1605
	.uleb128 .LEHE149-.LEHB149
	.uleb128 0
	.uleb128 0
	.uleb128 .LEHB150-.LFB1605
	.uleb128 .LEHE150-.LEHB150
	.uleb128 .L1000-.LFB1605
	.uleb128 0
	.uleb128 .LEHB151-.LFB1605
	.uleb128 .LEHE151-.LEHB151
	.uleb128 .L1001-.LFB1605
	.uleb128 0
	.uleb128 .LEHB152-.LFB1605
	.uleb128 .LEHE152-.LEHB152
	.uleb128 .L1002-.LFB1605
	.uleb128 0
	.uleb128 .LEHB153-.LFB1605
	.uleb128 .LEHE153-.LEHB153
	.uleb128 .L1003-.LFB1605
	.uleb128 0
	.uleb128 .LEHB154-.LFB1605
	.uleb128 .LEHE154-.LEHB154
	.uleb128 0
	.uleb128 0
	.uleb128 .LEHB155-.LFB1605
	.uleb128 .LEHE155-.LEHB155
	.uleb128 .L1004-.LFB1605
	.uleb128 0
	.uleb128 .LEHB156-.LFB1605
	.uleb128 .LEHE156-.LEHB156
	.uleb128 0
	.uleb128 0
	.uleb128 .LEHB157-.LFB1605
	.uleb128 .LEHE157-.LEHB157
	.uleb128 .L1005-.LFB1605
	.uleb128 0
	.uleb128 .LEHB158-.LFB1605
	.uleb128 .LEHE158-.LEHB158
	.uleb128 0
	.uleb128 0
.LLSDACSE1605:
	.section	".text"
	.size	_ZN12UpdateWindow12ShowThrobberESsSs, .-_ZN12UpdateWindow12ShowThrobberESsSs
	.align 2
	.globl _ZN12UpdateWindow13NetInitPromptEv
	.type	_ZN12UpdateWindow13NetInitPromptEv, @function
_ZN12UpdateWindow13NetInitPromptEv:
.LFB1611:
	.loc 4 431 0
	.cfi_startproc
	.cfi_personality 0,__gxx_personality_v0
	.cfi_lsda 0,.LLSDA1611
.LVL943:
	mflr 0
	stwu 1,-96(1)
.LCFI108:
	.cfi_def_cfa_offset 96
	.cfi_register 65, 0
	stw 30,88(1)
.LBB6820:
	.loc 4 433 0
	li 30,1
	.cfi_offset 30, -8
.LBE6820:
	.loc 4 431 0
	stw 31,92(1)
	mr 31,3
	.cfi_offset 31, -4
	stw 0,100(1)
	stw 27,76(1)
	stw 28,80(1)
	stw 29,84(1)
.LEHB159:
.LBB7045:
	.loc 4 432 0
	.cfi_offset 29, -12
	.cfi_offset 28, -16
	.cfi_offset 27, -20
	.cfi_offset 65, 4
	bl _Z13IsNetworkInitv
.LVL944:
	cmpwi 7,3,0
	beq- 7,.L1146
.L1113:
.LBE7045:
	.loc 4 457 0
	lwz 0,100(1)
	mr 3,30
	lwz 27,76(1)
	mtlr 0
	lwz 28,80(1)
	lwz 29,84(1)
	lwz 30,88(1)
	lwz 31,92(1)
.LVL945:
	addi 1,1,96
	.cfi_remember_state
.LCFI109:
	.cfi_def_cfa_offset 0
	.cfi_restore 31
	.cfi_restore 30
	.cfi_restore 29
	.cfi_restore 28
	.cfi_restore 27
	blr
.LVL946:
.L1146:
.LCFI110:
	.cfi_restore_state
.LBB7046:
	.loc 4 437 0
	lis 3,.LC16@ha
.LBB6821:
.LBB6822:
	.file 19 "d:/Projects/SaveGameManager/savegame-manager-gx/trunk/source/Prompts/UpdateWindow.h"
	.loc 19 34 0
	lis 29,_ZN12UpdateWindow13cancelEnabledE@ha
.LBE6822:
.LBE6821:
	.loc 4 437 0
	la 3,.LC16@l(3)
.LBB6824:
.LBB6823:
	.loc 19 34 0
	stb 30,_ZN12UpdateWindow13cancelEnabledE@l(29)
.LBE6823:
.LBE6824:
	.loc 4 437 0
	bl gettext
	addi 5,1,25
	mr 4,3
	addi 3,1,64
	bl _ZNSsC1EPKcRKSaIcE
.LEHE159:
	lis 3,.LC17@ha
	la 3,.LC17@l(3)
.LEHB160:
	bl gettext
.LEHE160:
	mr 4,3
	addi 5,1,24
	addi 3,1,60
.LEHB161:
	bl _ZNSsC1EPKcRKSaIcE
.LEHE161:
.LVL947:
.LBB6825:
.LBB6826:
	.loc 4 236 0 discriminator 3
	mr 3,31
.LEHB162:
	bl _ZN12UpdateWindow11RemoveItemsEv
	.loc 4 238 0
	lwz 30,276(31)
	addi 3,1,48
	addi 4,1,64
.LVL948:
	lwz 9,0(30)
	lwz 28,204(9)
	bl _ZNSsC1ERKSs
.LEHE162:
.LVL949:
	mr 3,30
	addi 4,1,48
	mtctr 28
.LEHB163:
	bctrl
.LEHE163:
.LVL950:
.LBB6827:
.LBB6828:
.LBB6829:
.LBB6830:
.LBB6831:
.LBB6832:
	.loc 16 288 0
	lwz 9,48(1)
.LBE6832:
.LBE6831:
.LBE6830:
.LBB6833:
.LBB6834:
	.loc 16 235 0
	lis 28,_ZNSs4_Rep20_S_empty_rep_storageE@ha
	la 28,_ZNSs4_Rep20_S_empty_rep_storageE@l(28)
.LBE6834:
.LBE6833:
	.loc 16 534 0
	addi 3,9,-12
.LVL951:
.LBB6843:
.LBB6841:
	.loc 16 235 0
	cmpw 7,3,28
	bne- 7,.L1147
.LVL952:
.L1021:
.LBE6841:
.LBE6843:
.LBE6829:
.LBE6828:
.LBE6827:
	.loc 4 239 0
	lwz 30,280(31)
.LVL953:
.LBB6847:
.LBB6848:
	.loc 9 89 0
	li 0,1
.LBE6848:
.LBE6847:
	.loc 4 240 0
	addi 3,1,44
	addi 4,1,60
.LVL954:
	lwz 9,0(30)
.LBB6850:
.LBB6849:
	.loc 9 89 0
	stw 0,200(30)
.LBE6849:
.LBE6850:
	.loc 4 240 0
	lwz 27,204(9)
.LEHB164:
	bl _ZNSsC1ERKSs
.LEHE164:
.LVL955:
	mr 3,30
	addi 4,1,44
	mtctr 27
.LEHB165:
	bctrl
.LEHE165:
.LVL956:
.LBB6851:
.LBB6852:
.LBB6853:
.LBB6854:
.LBB6855:
.LBB6856:
	.loc 16 288 0
	lwz 9,44(1)
.LBE6856:
.LBE6855:
.LBE6854:
	.loc 16 534 0
	addi 3,9,-12
.LVL957:
.LBB6857:
.LBB6858:
	.loc 16 235 0
	cmpw 7,3,28
	bne- 7,.L1148
.LVL958:
.L1027:
.LBE6858:
.LBE6857:
.LBE6853:
.LBE6852:
.LBE6851:
	.loc 4 242 0
	lbz 0,_ZN12UpdateWindow13cancelEnabledE@l(29)
	cmpwi 7,0,0
	bne- 7,.L1149
.LVL959:
.L1059:
	.loc 4 245 0
	li 3,196
.LEHB166:
	bl _Znwj
.LEHE166:
	lwz 4,236(31)
	mr 30,3
.LEHB167:
	bl _ZN8GuiImageC1EP12GuiImageData
.LEHE167:
	stw 30,240(31)
	.loc 4 246 0
	mr 3,30
	lwz 9,0(30)
	li 4,34
	lwz 0,180(9)
	mtctr 0
.LEHB168:
	bctrl
	.loc 4 247 0
	lwz 3,240(31)
	li 4,0
	li 5,20
	lwz 9,0(3)
	lwz 0,168(9)
	mtctr 0
	bctrl
	.loc 4 248 0
	lwz 4,240(31)
	mr 3,31
	bl _ZN8GuiFrame6AppendEP10GuiElement
.LEHE168:
	.loc 4 252 0
	lbz 0,_ZN12UpdateWindow13cancelEnabledE@l(29)
	cmpwi 7,0,0
	.loc 4 250 0
	li 0,2
	stw 0,224(31)
	.loc 4 252 0
	beq- 7,.L1150
.L1060:
.LVL960:
.LBE6826:
.LBE6825:
.LBB6951:
.LBB6952:
.LBB6953:
.LBB6954:
.LBB6955:
.LBB6956:
	.loc 16 288 0
	lwz 9,60(1)
.LBE6956:
.LBE6955:
.LBE6954:
	.loc 16 534 0
	addi 3,9,-12
.LVL961:
.LBB6957:
.LBB6958:
	.loc 16 235 0
	cmpw 7,3,28
	bne- 7,.L1151
.LVL962:
.L1083:
.LBE6958:
.LBE6957:
.LBE6953:
.LBE6952:
.LBE6951:
.LBB6969:
.LBB6970:
.LBB6971:
.LBB6972:
.LBB6973:
.LBB6974:
	.loc 16 288 0
	lwz 9,64(1)
.LBE6974:
.LBE6973:
.LBE6972:
	.loc 16 534 0
	addi 3,9,-12
.LVL963:
.LBB6975:
.LBB6976:
	.loc 16 235 0
	cmpw 7,3,28
	bne- 7,.L1152
.LVL964:
.L1091:
.LBE6976:
.LBE6975:
.LBE6971:
.LBE6970:
.LBE6969:
	.loc 4 439 0 discriminator 1
	lis 9,Settings+1308@ha
	lha 0,Settings+1308@l(9)
	cmpwi 7,0,0
	beq- 7,.L1153
.LVL965:
.L1143:
.LBB6987:
.LBB6988:
	.loc 4 425 0
	lwz 0,216(31)
.LVL966:
.LBE6988:
.LBE6987:
	.loc 4 445 0
	cmpwi 7,0,-12345
.LBB6990:
.LBB6989:
	.loc 4 426 0
	li 0,0
	stw 0,216(31)
.LBE6989:
.LBE6990:
	.loc 4 445 0
	bne- 7,.L1154
.LVL967:
.LBB6991:
.LBB6992:
	.loc 19 34 0
	li 0,0
	stb 0,_ZN12UpdateWindow13cancelEnabledE@l(29)
.LVL968:
.L1122:
.LBE6992:
.LBE6991:
	.loc 4 452 0 discriminator 4
	lis 3,.LC18@ha
	la 3,.LC18@l(3)
.LEHB169:
	bl gettext
	addi 5,1,23
	mr 4,3
	addi 3,1,56
	bl _ZNSsC1EPKcRKSaIcE
.LEHE169:
	lis 4,.LC13@ha
	addi 3,1,52
	la 4,.LC13@l(4)
	addi 5,1,22
.LEHB170:
	bl _ZNSsC1EPKcRKSaIcE
.LEHE170:
	.loc 4 452 0 is_stmt 0 discriminator 2
	mr 3,31
	addi 4,1,56
	addi 5,1,52
.LEHB171:
	bl _ZN12UpdateWindow11ShowMessageESsSs.constprop.146
.LEHE171:
.LVL969:
.LBB6995:
.LBB6996:
.LBB6997:
.LBB6998:
.LBB6999:
.LBB7000:
	.loc 16 288 0 is_stmt 1
	lwz 9,52(1)
.LBE7000:
.LBE6999:
.LBE6998:
	.loc 16 534 0
	addi 3,9,-12
.LVL970:
.LBB7001:
.LBB7002:
	.loc 16 235 0
	cmpw 7,3,28
	bne- 7,.L1155
.LVL971:
.L1106:
.LBE7002:
.LBE7001:
.LBE6997:
.LBE6996:
.LBE6995:
.LBB7013:
.LBB7014:
.LBB7015:
.LBB7016:
.LBB7017:
.LBB7018:
	.loc 16 288 0
	lwz 9,56(1)
.LBE7018:
.LBE7017:
.LBE7016:
.LBB7019:
.LBB7020:
	.loc 4 453 0
	li 30,0
.LBE7020:
.LBE7019:
	.loc 16 534 0
	addi 3,9,-12
.LVL972:
.LBB7028:
.LBB7027:
	.loc 16 235 0
	cmpw 7,3,28
	beq+ 7,.L1113
.LVL973:
.LBB7021:
.LBB7022:
.LBB7023:
	.loc 17 66 0
	lwz 11,-4(9)
.LVL974:
.LBE7023:
.LBE7022:
.LBE7021:
	.loc 16 240 0
	cmpwi 7,11,0
.LBB7026:
.LBB7025:
.LBB7024:
	.loc 17 67 0
	addi 11,11,-1
	stw 11,-4(9)
.LBE7024:
.LBE7025:
.LBE7026:
	.loc 16 240 0
	bgt+ 7,.L1113
	.loc 16 244 0
	addi 4,1,8
	bl _ZNSs4_Rep10_M_destroyERKSaIcE
.LVL975:
	b .L1113
.LVL976:
.L1154:
.LEHB172:
.LBE7027:
.LBE7028:
.LBE7015:
.LBE7014:
.LBE7013:
	.loc 4 445 0 discriminator 2
	bl _Z13IsNetworkInitv
.LVL977:
	cmpwi 7,3,0
	bne- 7,.L1096
.LBB7029:
.LBB7030:
	.loc 18 27 0 discriminator 5
	lis 27,_ZN11Application8instanceE@ha
	lwz 30,_ZN11Application8instanceE@l(27)
	cmpwi 7,30,0
	beq- 7,.L1156
.L1098:
.LBE7030:
.LBE7029:
	.loc 4 446 0
	lwz 9,0(30)
	mr 3,30
	lwz 0,216(9)
	mtctr 0
	bctrl
	b .L1143
.L1096:
.LVL978:
.LBB7033:
.LBB6993:
	.loc 19 34 0
	li 0,0
.LBE6993:
.LBE7033:
	.loc 4 456 0
	li 30,1
.LBB7034:
.LBB6994:
	.loc 19 34 0
	stb 0,_ZN12UpdateWindow13cancelEnabledE@l(29)
.LBE6994:
.LBE7034:
	.loc 4 450 0
	bl _Z13IsNetworkInitv
	cmpwi 7,3,0
	beq- 7,.L1122
.LBE7046:
	.loc 4 457 0
	lwz 0,100(1)
	mr 3,30
	lwz 27,76(1)
	mtlr 0
	lwz 28,80(1)
	lwz 29,84(1)
	lwz 30,88(1)
	lwz 31,92(1)
.LVL979:
	addi 1,1,96
	.cfi_remember_state
	.cfi_restore 27
	.cfi_restore 28
	.cfi_restore 29
	.cfi_restore 30
	.cfi_restore 31
.LCFI111:
	.cfi_def_cfa_offset 0
	blr
.LVL980:
.L1156:
.LCFI112:
	.cfi_restore_state
.LBB7047:
.LBB7035:
.LBB7031:
	.loc 18 27 0
	li 3,632
	bl _Znwj
.LEHE172:
	mr 30,3
.LEHB173:
	bl _ZN11ApplicationC1Ev
.LEHE173:
	stw 30,_ZN11Application8instanceE@l(27)
	b .L1098
.LVL981:
.L1149:
.LBE7031:
.LBE7035:
.LBB7036:
.LBB6946:
	.loc 4 243 0
	lis 3,.LC15@ha
	la 3,.LC15@l(3)
.LEHB174:
	bl gettext
	mr 4,3
	addi 5,1,21
	addi 3,1,40
	bl _ZNSsC1EPKcRKSaIcE
.LEHE174:
	lis 30,.LC13@ha
	addi 3,1,36
	la 30,.LC13@l(30)
	addi 5,1,20
	mr 4,30
.LEHB175:
	bl _ZNSsC1EPKcRKSaIcE
.LEHE175:
	addi 3,1,32
	mr 4,30
	addi 5,1,19
.LEHB176:
	bl _ZNSsC1EPKcRKSaIcE
.LEHE176:
	addi 3,1,28
	mr 4,30
	addi 5,1,18
.LEHB177:
	bl _ZNSsC1EPKcRKSaIcE
.LEHE177:
	mr 3,31
	addi 4,1,40
	addi 5,1,36
	addi 6,1,32
	addi 7,1,28
.LEHB178:
	bl _ZN12UpdateWindow10SetButtonsESsSsSsSs.constprop.149
.LEHE178:
.LVL982:
.LBB6869:
.LBB6870:
.LBB6871:
.LBB6872:
.LBB6873:
.LBB6874:
	.loc 16 288 0
	lwz 9,28(1)
.LBE6874:
.LBE6873:
.LBE6872:
	.loc 16 534 0
	addi 3,9,-12
.LVL983:
.LBB6875:
.LBB6876:
	.loc 16 235 0
	cmpw 7,3,28
	bne- 7,.L1157
.LVL984:
.L1036:
.LBE6876:
.LBE6875:
.LBE6871:
.LBE6870:
.LBE6869:
.LBB6887:
.LBB6888:
.LBB6889:
.LBB6890:
.LBB6891:
.LBB6892:
	.loc 16 288 0
	lwz 9,32(1)
.LBE6892:
.LBE6891:
.LBE6890:
	.loc 16 534 0
	addi 3,9,-12
.LVL985:
.LBB6893:
.LBB6894:
	.loc 16 235 0
	cmpw 7,3,28
	bne- 7,.L1158
.LVL986:
.L1044:
.LBE6894:
.LBE6893:
.LBE6889:
.LBE6888:
.LBE6887:
.LBB6905:
.LBB6906:
.LBB6907:
.LBB6908:
.LBB6909:
.LBB6910:
	.loc 16 288 0
	lwz 9,36(1)
.LBE6910:
.LBE6909:
.LBE6908:
	.loc 16 534 0
	addi 3,9,-12
.LVL987:
.LBB6911:
.LBB6912:
	.loc 16 235 0
	cmpw 7,3,28
	bne- 7,.L1159
.LVL988:
.L1052:
.LBE6912:
.LBE6911:
.LBE6907:
.LBE6906:
.LBE6905:
.LBB6923:
.LBB6924:
.LBB6925:
.LBB6926:
.LBB6927:
.LBB6928:
	.loc 16 288 0
	lwz 9,40(1)
.LBE6928:
.LBE6927:
.LBE6926:
	.loc 16 534 0
	addi 3,9,-12
.LVL989:
.LBB6929:
.LBB6930:
	.loc 16 235 0
	cmpw 7,3,28
	beq+ 7,.L1059
.LVL990:
.LBB6931:
.LBB6932:
.LBB6933:
	.loc 17 66 0
	lwz 11,-4(9)
.LVL991:
.LBE6933:
.LBE6932:
.LBE6931:
	.loc 16 240 0
	cmpwi 7,11,0
.LBB6936:
.LBB6935:
.LBB6934:
	.loc 17 67 0
	addi 11,11,-1
	stw 11,-4(9)
.LBE6934:
.LBE6935:
.LBE6936:
	.loc 16 240 0
	bgt+ 7,.L1059
	.loc 16 244 0
	addi 4,1,12
	bl _ZNSs4_Rep10_M_destroyERKSaIcE
.LVL992:
	b .L1059
.LVL993:
.L1150:
.LBE6930:
.LBE6929:
.LBE6925:
.LBE6924:
.LBE6923:
.LBB6937:
.LBB6938:
	.loc 8 25 0
	lis 30,_ZN12ProgressTask8instanceE@ha
	lwz 0,_ZN12ProgressTask8instanceE@l(30)
	cmpwi 7,0,0
	bne+ 7,.L1060
	li 3,16
.LEHB179:
	bl _Znwj
.LEHE179:
	mr 27,3
.LEHB180:
	bl _ZN12ProgressTaskC1Ev
.LEHE180:
	stw 27,_ZN12ProgressTask8instanceE@l(30)
	b .L1060
.LVL994:
.L1153:
.LEHB181:
.LBE6938:
.LBE6937:
.LBE6946:
.LBE7036:
	.loc 4 441 0
	bl _Z17InitNetworkThreadv
	.loc 4 442 0
	bl _Z19ResumeNetworkThreadv
.LVL995:
	b .L1143
.LVL996:
.L1138:
	mr 31,3
.LVL997:
.LBB7037:
.LBB6947:
.LBB6940:
.LBB6939:
	.loc 8 25 0
	mr 3,27
	bl _ZdlPv
.LVL998:
.L1062:
.LBE6939:
.LBE6940:
.LBE6947:
.LBE7037:
	.loc 4 437 0
	addi 3,1,60
.LVL999:
	bl _ZNSsD1Ev
.LVL1000:
	mr 3,31
.LVL1001:
.L1144:
	mr 31,3
	addi 3,1,64
	bl _ZNSsD1Ev
	mr 3,31
	bl _Unwind_Resume
.LVL1002:
.L1159:
.LBB7038:
.LBB6948:
.LBB6941:
.LBB6922:
.LBB6921:
.LBB6920:
.LBB6919:
.LBB6913:
.LBB6914:
.LBB6915:
	.loc 17 66 0
	lwz 11,-4(9)
.LVL1003:
.LBE6915:
.LBE6914:
.LBE6913:
	.loc 16 240 0
	cmpwi 7,11,0
.LBB6918:
.LBB6917:
.LBB6916:
	.loc 17 67 0
	addi 11,11,-1
	stw 11,-4(9)
.LBE6916:
.LBE6917:
.LBE6918:
	.loc 16 240 0
	bgt+ 7,.L1052
	.loc 16 244 0
	addi 4,1,13
	bl _ZNSs4_Rep10_M_destroyERKSaIcE
.LVL1004:
	b .L1052
.LVL1005:
.L1158:
.LBE6919:
.LBE6920:
.LBE6921:
.LBE6922:
.LBE6941:
.LBB6942:
.LBB6904:
.LBB6903:
.LBB6902:
.LBB6901:
.LBB6895:
.LBB6896:
.LBB6897:
	.loc 17 66 0
	lwz 11,-4(9)
.LVL1006:
.LBE6897:
.LBE6896:
.LBE6895:
	.loc 16 240 0
	cmpwi 7,11,0
.LBB6900:
.LBB6899:
.LBB6898:
	.loc 17 67 0
	addi 11,11,-1
	stw 11,-4(9)
.LBE6898:
.LBE6899:
.LBE6900:
	.loc 16 240 0
	bgt+ 7,.L1044
	.loc 16 244 0
	addi 4,1,14
	bl _ZNSs4_Rep10_M_destroyERKSaIcE
.LVL1007:
	b .L1044
.LVL1008:
.L1157:
.LBE6901:
.LBE6902:
.LBE6903:
.LBE6904:
.LBE6942:
.LBB6943:
.LBB6886:
.LBB6885:
.LBB6884:
.LBB6883:
.LBB6877:
.LBB6878:
.LBB6879:
	.loc 17 66 0
	lwz 11,-4(9)
.LVL1009:
.LBE6879:
.LBE6878:
.LBE6877:
	.loc 16 240 0
	cmpwi 7,11,0
.LBB6882:
.LBB6881:
.LBB6880:
	.loc 17 67 0
	addi 11,11,-1
	stw 11,-4(9)
.LBE6880:
.LBE6881:
.LBE6882:
	.loc 16 240 0
	bgt+ 7,.L1036
	.loc 16 244 0
	addi 4,1,15
	bl _ZNSs4_Rep10_M_destroyERKSaIcE
.LVL1010:
	b .L1036
.LVL1011:
.L1136:
	mr 31,3
.LVL1012:
.LBE6883:
.LBE6884:
.LBE6885:
.LBE6886:
.LBE6943:
	.loc 4 243 0
	addi 3,1,28
	bl _ZNSsD1Ev
.L1068:
	addi 3,1,32
	bl _ZNSsD1Ev
.L1071:
	addi 3,1,36
	bl _ZNSsD1Ev
.L1074:
	addi 3,1,40
	bl _ZNSsD1Ev
	b .L1062
.LVL1013:
.L1135:
	mr 31,3
.LVL1014:
	b .L1068
.LVL1015:
.L1134:
	mr 31,3
.LVL1016:
	b .L1071
.LVL1017:
.L1133:
	mr 31,3
.LVL1018:
	b .L1074
.LVL1019:
.L1128:
	mr 31,3
.LVL1020:
	b .L1062
.LVL1021:
.L1131:
	mr 31,3
.LVL1022:
	.loc 4 238 0
	addi 3,1,48
	bl _ZNSsD1Ev
	b .L1062
.LVL1023:
.L1147:
.LBB6944:
.LBB6846:
.LBB6845:
.LBB6844:
.LBB6842:
.LBB6835:
.LBB6836:
.LBB6837:
	.loc 17 66 0
	lwz 11,-4(9)
.LVL1024:
.LBE6837:
.LBE6836:
.LBE6835:
	.loc 16 240 0
	cmpwi 7,11,0
.LBB6840:
.LBB6839:
.LBB6838:
	.loc 17 67 0
	addi 11,11,-1
	stw 11,-4(9)
.LBE6838:
.LBE6839:
.LBE6840:
	.loc 16 240 0
	bgt+ 7,.L1021
	.loc 16 244 0
	addi 4,1,17
	bl _ZNSs4_Rep10_M_destroyERKSaIcE
.LVL1025:
	b .L1021
.LVL1026:
.L1132:
	mr 31,3
.LVL1027:
.LBE6842:
.LBE6844:
.LBE6845:
.LBE6846:
.LBE6944:
	.loc 4 240 0
	addi 3,1,44
	bl _ZNSsD1Ev
	b .L1062
.LVL1028:
.L1126:
	b .L1144
.L1127:
	b .L1144
.LVL1029:
.L1139:
	mr 31,3
.LVL1030:
.LBE6948:
.LBE7038:
.LBB7039:
.LBB7032:
	.loc 18 27 0
	mr 3,30
	bl _ZdlPv
	mr 3,31
	bl _Unwind_Resume
.LVL1031:
.L1148:
.LBE7032:
.LBE7039:
.LBB7040:
.LBB6949:
.LBB6945:
.LBB6868:
.LBB6867:
.LBB6866:
.LBB6865:
.LBB6859:
.LBB6860:
.LBB6861:
	.loc 17 66 0
	lwz 11,-4(9)
.LVL1032:
.LBE6861:
.LBE6860:
.LBE6859:
	.loc 16 240 0
	cmpwi 7,11,0
.LBB6864:
.LBB6863:
.LBB6862:
	.loc 17 67 0
	addi 11,11,-1
	stw 11,-4(9)
.LBE6862:
.LBE6863:
.LBE6864:
	.loc 16 240 0
	bgt+ 7,.L1027
	.loc 16 244 0
	addi 4,1,16
	bl _ZNSs4_Rep10_M_destroyERKSaIcE
.LVL1033:
	b .L1027
.LVL1034:
.L1130:
	mr 31,3
.LVL1035:
.LBE6865:
.LBE6866:
.LBE6867:
.LBE6868:
.LBE6945:
.LBE6949:
.LBE7040:
	.loc 4 452 0
	addi 3,1,52
	bl _ZNSsD1Ev
.L1121:
	addi 3,1,56
	bl _ZNSsD1Ev
	mr 3,31
	bl _Unwind_Resume
.LEHE181:
.LVL1036:
.L1155:
.LBB7041:
.LBB7012:
.LBB7011:
.LBB7010:
.LBB7009:
.LBB7003:
.LBB7004:
.LBB7005:
	.loc 17 66 0
	lwz 11,-4(9)
.LVL1037:
.LBE7005:
.LBE7004:
.LBE7003:
	.loc 16 240 0
	cmpwi 7,11,0
.LBB7008:
.LBB7007:
.LBB7006:
	.loc 17 67 0
	addi 11,11,-1
	stw 11,-4(9)
.LBE7006:
.LBE7007:
.LBE7008:
	.loc 16 240 0
	bgt+ 7,.L1106
	.loc 16 244 0
	addi 4,1,9
	bl _ZNSs4_Rep10_M_destroyERKSaIcE
.LVL1038:
	b .L1106
.LVL1039:
.L1129:
	mr 31,3
.LVL1040:
	b .L1121
.LVL1041:
.L1137:
	mr 31,3
.LVL1042:
.LBE7009:
.LBE7010:
.LBE7011:
.LBE7012:
.LBE7041:
.LBB7042:
.LBB6950:
	.loc 4 245 0
	mr 3,30
	bl _ZdlPv
	b .L1062
.LVL1043:
.L1151:
.LBE6950:
.LBE7042:
.LBB7043:
.LBB6968:
.LBB6967:
.LBB6966:
.LBB6965:
.LBB6959:
.LBB6960:
.LBB6961:
	.loc 17 66 0
	lwz 11,-4(9)
.LVL1044:
.LBE6961:
.LBE6960:
.LBE6959:
	.loc 16 240 0
	cmpwi 7,11,0
.LBB6964:
.LBB6963:
.LBB6962:
	.loc 17 67 0
	addi 11,11,-1
	stw 11,-4(9)
.LBE6962:
.LBE6963:
.LBE6964:
	.loc 16 240 0
	bgt+ 7,.L1083
	.loc 16 244 0
	addi 4,1,11
	bl _ZNSs4_Rep10_M_destroyERKSaIcE
.LVL1045:
	b .L1083
.LVL1046:
.L1152:
.LBE6965:
.LBE6966:
.LBE6967:
.LBE6968:
.LBE7043:
.LBB7044:
.LBB6986:
.LBB6985:
.LBB6984:
.LBB6983:
.LBB6977:
.LBB6978:
.LBB6979:
	.loc 17 66 0
	lwz 11,-4(9)
.LVL1047:
.LBE6979:
.LBE6978:
.LBE6977:
	.loc 16 240 0
	cmpwi 7,11,0
.LBB6982:
.LBB6981:
.LBB6980:
	.loc 17 67 0
	addi 11,11,-1
	stw 11,-4(9)
.LBE6980:
.LBE6981:
.LBE6982:
	.loc 16 240 0
	bgt+ 7,.L1091
	.loc 16 244 0
	addi 4,1,10
	bl _ZNSs4_Rep10_M_destroyERKSaIcE
.LVL1048:
	b .L1091
.LBE6983:
.LBE6984:
.LBE6985:
.LBE6986:
.LBE7044:
.LBE7047:
	.cfi_endproc
.LFE1611:
	.section	.gcc_except_table
.LLSDA1611:
	.byte	0xff
	.byte	0xff
	.byte	0x1
	.uleb128 .LLSDACSE1611-.LLSDACSB1611
.LLSDACSB1611:
	.uleb128 .LEHB159-.LFB1611
	.uleb128 .LEHE159-.LEHB159
	.uleb128 0
	.uleb128 0
	.uleb128 .LEHB160-.LFB1611
	.uleb128 .LEHE160-.LEHB160
	.uleb128 .L1126-.LFB1611
	.uleb128 0
	.uleb128 .LEHB161-.LFB1611
	.uleb128 .LEHE161-.LEHB161
	.uleb128 .L1127-.LFB1611
	.uleb128 0
	.uleb128 .LEHB162-.LFB1611
	.uleb128 .LEHE162-.LEHB162
	.uleb128 .L1128-.LFB1611
	.uleb128 0
	.uleb128 .LEHB163-.LFB1611
	.uleb128 .LEHE163-.LEHB163
	.uleb128 .L1131-.LFB1611
	.uleb128 0
	.uleb128 .LEHB164-.LFB1611
	.uleb128 .LEHE164-.LEHB164
	.uleb128 .L1128-.LFB1611
	.uleb128 0
	.uleb128 .LEHB165-.LFB1611
	.uleb128 .LEHE165-.LEHB165
	.uleb128 .L1132-.LFB1611
	.uleb128 0
	.uleb128 .LEHB166-.LFB1611
	.uleb128 .LEHE166-.LEHB166
	.uleb128 .L1128-.LFB1611
	.uleb128 0
	.uleb128 .LEHB167-.LFB1611
	.uleb128 .LEHE167-.LEHB167
	.uleb128 .L1137-.LFB1611
	.uleb128 0
	.uleb128 .LEHB168-.LFB1611
	.uleb128 .LEHE168-.LEHB168
	.uleb128 .L1128-.LFB1611
	.uleb128 0
	.uleb128 .LEHB169-.LFB1611
	.uleb128 .LEHE169-.LEHB169
	.uleb128 0
	.uleb128 0
	.uleb128 .LEHB170-.LFB1611
	.uleb128 .LEHE170-.LEHB170
	.uleb128 .L1129-.LFB1611
	.uleb128 0
	.uleb128 .LEHB171-.LFB1611
	.uleb128 .LEHE171-.LEHB171
	.uleb128 .L1130-.LFB1611
	.uleb128 0
	.uleb128 .LEHB172-.LFB1611
	.uleb128 .LEHE172-.LEHB172
	.uleb128 0
	.uleb128 0
	.uleb128 .LEHB173-.LFB1611
	.uleb128 .LEHE173-.LEHB173
	.uleb128 .L1139-.LFB1611
	.uleb128 0
	.uleb128 .LEHB174-.LFB1611
	.uleb128 .LEHE174-.LEHB174
	.uleb128 .L1128-.LFB1611
	.uleb128 0
	.uleb128 .LEHB175-.LFB1611
	.uleb128 .LEHE175-.LEHB175
	.uleb128 .L1133-.LFB1611
	.uleb128 0
	.uleb128 .LEHB176-.LFB1611
	.uleb128 .LEHE176-.LEHB176
	.uleb128 .L1134-.LFB1611
	.uleb128 0
	.uleb128 .LEHB177-.LFB1611
	.uleb128 .LEHE177-.LEHB177
	.uleb128 .L1135-.LFB1611
	.uleb128 0
	.uleb128 .LEHB178-.LFB1611
	.uleb128 .LEHE178-.LEHB178
	.uleb128 .L1136-.LFB1611
	.uleb128 0
	.uleb128 .LEHB179-.LFB1611
	.uleb128 .LEHE179-.LEHB179
	.uleb128 .L1128-.LFB1611
	.uleb128 0
	.uleb128 .LEHB180-.LFB1611
	.uleb128 .LEHE180-.LEHB180
	.uleb128 .L1138-.LFB1611
	.uleb128 0
	.uleb128 .LEHB181-.LFB1611
	.uleb128 .LEHE181-.LEHB181
	.uleb128 0
	.uleb128 0
.LLSDACSE1611:
	.section	".text"
	.size	_ZN12UpdateWindow13NetInitPromptEv, .-_ZN12UpdateWindow13NetInitPromptEv
	.section	.text._ZNSt8_Rb_treeIPN7sigslot12_signal_baseINS0_15single_threadedEEES4_St9_IdentityIS4_ESt4lessIS4_ESaIS4_EE5eraseERKS4_,"axG",@progbits,_ZNSt8_Rb_treeIPN7sigslot12_signal_baseINS0_15single_threadedEEES4_St9_IdentityIS4_ESt4lessIS4_ESaIS4_EE5eraseERKS4_,comdat
	.align 2
	.weak	_ZNSt8_Rb_treeIPN7sigslot12_signal_baseINS0_15single_threadedEEES4_St9_IdentityIS4_ESt4lessIS4_ESaIS4_EE5eraseERKS4_
	.type	_ZNSt8_Rb_treeIPN7sigslot12_signal_baseINS0_15single_threadedEEES4_St9_IdentityIS4_ESt4lessIS4_ESaIS4_EE5eraseERKS4_, @function
_ZNSt8_Rb_treeIPN7sigslot12_signal_baseINS0_15single_threadedEEES4_St9_IdentityIS4_ESt4lessIS4_ESaIS4_EE5eraseERKS4_:
.LFB2020:
	.loc 14 1510 0
	.cfi_startproc
.LVL1049:
	mflr 0
	stwu 1,-32(1)
.LCFI113:
	.cfi_def_cfa_offset 32
	.cfi_register 65, 0
	stw 28,16(1)
.LBB7100:
.LBB7101:
	.loc 14 1155 0
	addi 28,3,4
	.cfi_offset 28, -16
.LBE7101:
.LBE7100:
	.loc 14 1510 0
	stw 0,36(1)
	stw 26,8(1)
.LBB7160:
.LBB7122:
.LBB7102:
	.loc 14 1155 0
	mr 26,28
	.cfi_offset 26, -24
	.cfi_offset 65, 4
.LBE7102:
	.loc 4 471 0
	lwz 0,8(3)
.LBE7122:
.LBE7160:
	.loc 14 1510 0
	stw 29,20(1)
.LBB7161:
.LBB7123:
.LBB7115:
	.loc 14 1155 0
	mr 29,28
	.cfi_offset 29, -12
	.loc 14 1156 0
	cmpwi 7,0,0
.LBE7115:
.LBE7123:
.LBE7161:
	.loc 14 1510 0
	stw 30,24(1)
	stw 27,12(1)
	mr 30,3
	.cfi_offset 27, -20
	.cfi_offset 30, -8
.LVL1050:
	stw 31,28(1)
.LBB7162:
.LBB7124:
.LBB7116:
	.loc 14 1156 0
	beq- 7,.L1161
	.cfi_offset 31, -4
.LVL1051:
	lwz 11,0(4)
	mr 26,0
	b .L1172
.LVL1052:
.L1190:
.LBE7116:
	.loc 4 471 0
	lwz 26,12(26)
.LVL1053:
.LBB7117:
	.loc 14 1156 0
	cmpwi 7,26,0
	beq- 7,.L1189
.L1172:
.LVL1054:
.LBE7117:
	.loc 4 471 0
	lwz 9,16(26)
.LBB7118:
.LBB7103:
	.loc 14 1158 0
	cmplw 7,9,11
	blt- 7,.L1190
.LVL1055:
.LBB7104:
	.loc 14 1160 0
	ble- 7,.L1164
.LVL1056:
.LBE7104:
.LBE7103:
.LBE7118:
	.loc 4 471 0
	mr 29,26
	.loc 14 1161 0
	lwz 26,8(26)
.LVL1057:
.LBB7119:
	.loc 14 1156 0
	cmpwi 7,26,0
	bne+ 7,.L1172
.LVL1058:
.L1189:
	mr 26,29
.LVL1059:
.L1161:
.LBE7119:
.LBE7124:
.LBB7125:
.LBB7126:
.LBB7127:
	.loc 14 1500 0
	lwz 9,12(30)
.LBE7127:
.LBE7126:
.LBE7125:
.LBB7156:
.LBB7120:
	.loc 4 471 0
	lwz 27,20(30)
.LVL1060:
.LBE7120:
.LBE7156:
.LBB7157:
.LBB7154:
.LBB7152:
	.loc 14 1500 0
	cmpw 7,26,9
	beq- 7,.L1191
.L1173:
.LVL1061:
	.loc 14 1503 0
	cmpw 7,29,26
	beq- 7,.L1180
.LVL1062:
.L1187:
.LBB7128:
.LBB7129:
	.loc 14 277 0
	mr 3,26
	bl _ZSt18_Rb_tree_incrementPKSt18_Rb_tree_node_base
.LBE7129:
.LBE7128:
.LBB7131:
.LBB7132:
.LBB7133:
	.loc 14 1489 0
	mr 4,28
.LBE7133:
.LBE7132:
.LBE7131:
.LBB7144:
.LBB7130:
	.loc 14 277 0
	mr 31,3
.LVL1063:
.LBE7130:
.LBE7144:
.LBB7145:
.LBB7141:
.LBB7138:
	.loc 14 1489 0
	mr 3,26
.LVL1064:
	bl _ZSt28_Rb_tree_rebalance_for_erasePSt18_Rb_tree_node_baseRS_
.LBE7138:
.LBE7141:
.LBE7145:
	.loc 14 277 0
	mr 26,31
.LVL1065:
.LBB7146:
.LBB7142:
.LBB7139:
.LBB7134:
.LBB7135:
.LBB7136:
.LBB7137:
	.loc 6 98 0
	bl _ZdlPv
.LBE7137:
.LBE7136:
.LBE7135:
.LBE7134:
.LBE7139:
.LBE7142:
.LBE7146:
	.loc 14 1503 0
	cmpw 7,29,31
.LBB7147:
.LBB7143:
.LBB7140:
	.loc 14 1491 0
	lwz 9,20(30)
	addi 0,9,-1
	stw 0,20(30)
.LBE7140:
.LBE7143:
.LBE7147:
	.loc 14 1503 0
	bne+ 7,.L1187
	subf 27,0,27
.LVL1066:
.L1175:
.LBE7152:
.LBE7154:
.LBE7157:
.LBE7162:
	.loc 14 1517 0
	lwz 0,36(1)
	mr 3,27
	lwz 26,8(1)
	mtlr 0
	lwz 27,12(1)
	lwz 28,16(1)
	lwz 29,20(1)
.LVL1067:
	lwz 30,24(1)
.LVL1068:
	lwz 31,28(1)
	addi 1,1,32
	.cfi_remember_state
.LCFI114:
	.cfi_def_cfa_offset 0
	.cfi_restore 31
	.cfi_restore 30
	.cfi_restore 29
	.cfi_restore 28
	.cfi_restore 27
	.cfi_restore 26
	blr
.LVL1069:
.L1164:
.LCFI115:
	.cfi_restore_state
.LBB7163:
.LBB7158:
	.loc 4 471 0
	lwz 10,8(26)
.LVL1070:
	lwz 9,12(26)
.LVL1071:
.L1188:
.LBB7121:
.LBB7114:
.LBB7113:
.LBB7105:
.LBB7106:
.LBB7107:
	.loc 14 1089 0
	cmpwi 7,10,0
	beq- 7,.L1165
.L1192:
.LVL1072:
	.loc 14 1090 0
	lwz 8,16(10)
	cmplw 7,8,11
	blt- 7,.L1166
.LVL1073:
.LBE7107:
	.loc 4 471 0
	mr 26,10
	.loc 14 1091 0
	lwz 10,8(10)
.LVL1074:
.LBB7108:
	.loc 14 1089 0
	cmpwi 7,10,0
	bne+ 7,.L1192
.LVL1075:
.L1165:
.LBE7108:
.LBE7106:
.LBB7109:
.LBB7110:
	.loc 14 1121 0
	cmpwi 7,9,0
	beq- 7,.L1161
.LVL1076:
	.loc 14 1122 0
	lwz 10,16(9)
	cmplw 7,10,11
	ble- 7,.L1169
.LVL1077:
.L1193:
.LBE7110:
	.loc 4 471 0
	mr 29,9
	.loc 14 1123 0
	lwz 9,8(9)
.LVL1078:
.LBB7111:
	.loc 14 1121 0
	cmpwi 7,9,0
	beq- 7,.L1161
.LVL1079:
	.loc 14 1122 0
	lwz 10,16(9)
	cmplw 7,10,11
	bgt- 7,.L1193
.LVL1080:
.L1169:
.LBE7111:
	.loc 4 471 0
	lwz 9,12(9)
.LVL1081:
	b .L1165
.LVL1082:
.L1166:
.LBE7109:
.LBB7112:
	lwz 10,12(10)
.LVL1083:
	b .L1188
.LVL1084:
.L1191:
.LBE7112:
.LBE7105:
.LBE7113:
.LBE7114:
.LBE7121:
.LBE7158:
.LBB7159:
.LBB7155:
.LBB7153:
	.loc 14 1500 0
	cmpw 7,28,29
	bne+ 7,.L1173
.LVL1085:
.LBB7148:
.LBB7149:
.LBB7150:
.LBB7151:
	.loc 14 809 0
	mr 4,0
.LVL1086:
	mr 3,30
.LVL1087:
	bl _ZNSt8_Rb_treeIPN7sigslot12_signal_baseINS0_15single_threadedEEES4_St9_IdentityIS4_ESt4lessIS4_ESaIS4_EE8_M_eraseEPSt13_Rb_tree_nodeIS4_E
.LVL1088:
	.loc 14 811 0
	li 0,0
	.loc 14 810 0
	stw 28,12(30)
.LVL1089:
	.loc 14 811 0
	stw 0,8(30)
.LVL1090:
	.loc 14 812 0
	stw 28,16(30)
	.loc 14 813 0
	stw 0,20(30)
	b .L1175
.LVL1091:
.L1180:
.LBE7151:
.LBE7150:
.LBE7149:
.LBE7148:
	.loc 14 1503 0
	li 27,0
	b .L1175
.LBE7153:
.LBE7155:
.LBE7159:
.LBE7163:
	.cfi_endproc
.LFE2020:
	.size	_ZNSt8_Rb_treeIPN7sigslot12_signal_baseINS0_15single_threadedEEES4_St9_IdentityIS4_ESt4lessIS4_ESaIS4_EE5eraseERKS4_, .-_ZNSt8_Rb_treeIPN7sigslot12_signal_baseINS0_15single_threadedEEES4_St9_IdentityIS4_ESt4lessIS4_ESaIS4_EE5eraseERKS4_
	.section	.text._ZN7sigslot13_signal_base2IP12UpdateWindowiNS_15single_threadedEED0Ev,"axG",@progbits,_ZN7sigslot13_signal_base2IP12UpdateWindowiNS_15single_threadedEED5Ev,comdat
	.align 2
	.weak	_ZN7sigslot13_signal_base2IP12UpdateWindowiNS_15single_threadedEED0Ev
	.type	_ZN7sigslot13_signal_base2IP12UpdateWindowiNS_15single_threadedEED0Ev, @function
_ZN7sigslot13_signal_base2IP12UpdateWindowiNS_15single_threadedEED0Ev:
.LFB1745:
	.loc 1 823 0
	.cfi_startproc
	.cfi_personality 0,__gxx_personality_v0
	.cfi_lsda 0,.LLSDA1745
.LVL1092:
	mflr 0
	stwu 1,-40(1)
.LCFI116:
	.cfi_def_cfa_offset 40
	.cfi_register 65, 0
.LBB7259:
.LBB7260:
.LBB7261:
	.loc 1 826 0
	lis 9,_ZTVN7sigslot13_signal_base2IP12UpdateWindowiNS_15single_threadedEEE+8@ha
.LBE7261:
.LBE7260:
.LBE7259:
	.loc 1 823 0
	stw 28,24(1)
	mr 28,3
	.cfi_offset 28, -16
.LVL1093:
	stw 0,44(1)
.LBB7346:
.LBB7342:
.LBB7338:
	.loc 1 826 0
	la 0,_ZTVN7sigslot13_signal_base2IP12UpdateWindowiNS_15single_threadedEEE+8@l(9)
	.cfi_offset 65, 4
.LBE7338:
.LBE7342:
.LBE7346:
	.loc 1 823 0
	stw 29,28(1)
	addi 29,3,4
	.cfi_offset 29, -12
	stw 30,32(1)
	stw 31,36(1)
.LBB7347:
.LBB7343:
.LBB7339:
	.loc 1 826 0
	stw 0,0(3)
.LVL1094:
.LEHB182:
.LBB7262:
.LBB7263:
.LBB7264:
.LBB7265:
	.loc 1 338 0
	.cfi_offset 31, -4
	.cfi_offset 30, -8
	bl _ZN7sigslot15single_threaded4lockEv
.LEHE182:
.LVL1095:
.LBE7265:
.LBE7264:
.LBE7263:
	.loc 4 471 0
	mr 29,28
	lwzu 31,4(29)
.LVL1096:
.LBB7296:
	.loc 1 834 0
	cmpw 7,31,29
	beq- 7,.L1195
.LVL1097:
.L1233:
	.loc 1 836 0
	lwz 3,8(31)
	lwz 9,0(3)
	lwz 0,8(9)
	mtctr 0
.LEHB183:
	bctrl
.LBB7266:
.LBB7267:
.LBB7268:
.LBB7269:
	.loc 1 338 0
	lwz 9,0(3)
.LBE7269:
.LBE7268:
.LBE7267:
.LBE7266:
	.loc 1 836 0
	mr 30,3
.LVL1098:
	stw 28,8(1)
.LVL1099:
.LBB7278:
.LBB7277:
.LBB7271:
.LBB7270:
	.loc 1 338 0
	lwz 0,8(9)
	mtctr 0
	bctrl
.LVL1100:
.LBE7270:
.LBE7271:
.LBB7272:
.LBB7273:
	.loc 15 528 0
	addi 3,30,4
	addi 4,1,8
	bl _ZNSt8_Rb_treeIPN7sigslot12_signal_baseINS0_15single_threadedEEES4_St9_IdentityIS4_ESt4lessIS4_ESaIS4_EE5eraseERKS4_
.LVL1101:
.LBE7273:
.LBE7272:
.LBB7274:
.LBB7275:
.LBB7276:
	.loc 1 343 0
	lwz 9,0(30)
	mr 3,30
	lwz 0,12(9)
	mtctr 0
	bctrl
.LVL1102:
.LBE7276:
.LBE7275:
.LBE7274:
.LBE7277:
.LBE7278:
	.loc 1 837 0
	lwz 3,8(31)
	cmpwi 7,3,0
	beq- 7,.L1197
	lwz 9,0(3)
	lwz 0,4(9)
	mtctr 0
	bctrl
.LEHE183:
.L1197:
.LVL1103:
.LBB7279:
.LBB7280:
	.loc 5 234 0
	lwz 31,0(31)
.LVL1104:
.LBE7280:
.LBE7279:
	.loc 1 834 0
	cmpw 7,29,31
	bne+ 7,.L1233
.LBE7296:
	.loc 4 471 0
	lwz 31,4(28)
.LVL1105:
.LBB7297:
.LBB7281:
.LBB7282:
	.loc 5 1162 0
	cmpw 7,29,31
	bne+ 7,.L1235
	b .L1195
.LVL1106:
.L1228:
	.loc 5 1163 0
	mr 31,30
.LVL1107:
.L1235:
.LBB7283:
.LBB7284:
	.file 20 "d:\\devkitpro\\devkitppc\\bin\\../lib/gcc/powerpc-eabi/4.6.3/../../../../powerpc-eabi/include/c++/4.6.3/bits/list.tcc"
	.loc 20 112 0
	lwz 30,0(31)
.LVL1108:
.LBB7285:
.LBB7286:
	.loc 5 1532 0
	mr 3,31
	bl _ZNSt8__detail15_List_node_base9_M_unhookEv
.LVL1109:
.LBB7287:
.LBB7288:
.LBB7289:
	.loc 6 98 0
	mr 3,31
	bl _ZdlPv
.LVL1110:
.LBE7289:
.LBE7288:
.LBE7287:
.LBE7286:
.LBE7285:
.LBE7284:
.LBE7283:
	.loc 5 1162 0
	cmpw 7,29,30
	bne+ 7,.L1228
.LVL1111:
.L1195:
.LBE7282:
.LBE7281:
.LBB7290:
.LBB7291:
.LBB7292:
	.loc 1 343 0
	lwz 9,0(28)
	mr 3,28
	lwz 0,12(9)
	mtctr 0
.LEHB184:
	bctrl
.LEHE184:
.LVL1112:
.LBE7292:
.LBE7291:
.LBE7290:
.LBE7297:
.LBE7262:
.LBB7299:
.LBB7300:
.LBB7301:
.LBB7302:
.LBB7303:
.LBB7304:
	.loc 20 70 0
	lwz 3,4(28)
.LVL1113:
	.loc 20 71 0
	cmpw 7,3,29
	bne+ 7,.L1237
	b .L1213
.LVL1114:
.L1229:
	.loc 20 74 0
	mr 3,31
.LVL1115:
.L1237:
.LBB7305:
	lwz 31,0(3)
.LVL1116:
.LBB7306:
.LBB7307:
.LBB7308:
	.loc 6 98 0
	bl _ZdlPv
.LVL1117:
.LBE7308:
.LBE7307:
.LBE7306:
.LBE7305:
	.loc 20 71 0
	cmpw 7,31,29
	bne+ 7,.L1229
.LVL1118:
.L1213:
.LBE7304:
.LBE7303:
.LBE7302:
.LBE7301:
.LBE7300:
.LBE7299:
.LBB7309:
.LBB7310:
.LBB7311:
.LBB7312:
.LBB7313:
.LBB7314:
	.loc 1 105 0
	lis 9,_ZTVN7sigslot15single_threadedE+8@ha
.LBE7314:
.LBE7313:
.LBE7312:
.LBE7311:
.LBE7310:
.LBE7309:
.LBE7339:
.LBE7343:
.LBE7347:
	.loc 1 826 0
	mr 3,28
.LBB7348:
.LBB7344:
.LBB7340:
.LBB7320:
.LBB7319:
.LBB7318:
.LBB7317:
.LBB7316:
.LBB7315:
	.loc 1 105 0
	la 0,_ZTVN7sigslot15single_threadedE+8@l(9)
	stw 0,0(28)
.LBE7315:
.LBE7316:
.LBE7317:
.LBE7318:
.LBE7319:
.LBE7320:
.LBE7340:
.LBE7344:
.LBE7348:
	.loc 1 826 0
	bl _ZdlPv
	lwz 0,44(1)
	lwz 28,24(1)
.LVL1119:
	mtlr 0
	lwz 29,28(1)
.LVL1120:
	lwz 30,32(1)
	lwz 31,36(1)
	addi 1,1,40
	.cfi_remember_state
.LCFI117:
	.cfi_def_cfa_offset 0
	.cfi_restore 31
	.cfi_restore 30
	.cfi_restore 29
	.cfi_restore 28
	blr
.LVL1121:
.L1231:
.LCFI118:
	.cfi_restore_state
	mr 31,3
.L1205:
.LVL1122:
.LBB7349:
.LBB7345:
.LBB7341:
.LBB7321:
.LBB7322:
.LBB7323:
.LBB7324:
.LBB7325:
.LBB7326:
	.loc 20 70 0
	lwz 3,4(28)
.LVL1123:
	.loc 20 71 0
	cmpw 7,3,29
	beq- 7,.L1222
.LVL1124:
.L1238:
.LBB7327:
	.loc 20 74 0
	lwz 30,0(3)
.LVL1125:
.LBB7328:
.LBB7329:
.LBB7330:
	.loc 6 98 0
	bl _ZdlPv
.LVL1126:
.LBE7330:
.LBE7329:
.LBE7328:
.LBE7327:
	.loc 20 71 0
	cmpw 7,30,29
	beq- 7,.L1222
	.loc 20 74 0
	mr 3,30
	b .L1238
.LVL1127:
.L1232:
.LBE7326:
.LBE7325:
.LBE7324:
.LBE7323:
.LBE7322:
.LBE7321:
.LBB7331:
.LBB7298:
.LBB7293:
.LBB7294:
.LBB7295:
	.loc 1 343 0
	lwz 9,0(28)
	mr 31,3
.LVL1128:
	mr 3,28
	lwz 0,12(9)
	mtctr 0
	bctrl
	b .L1205
.LVL1129:
.L1222:
.LBE7295:
.LBE7294:
.LBE7293:
.LBE7298:
.LBE7331:
.LBB7332:
.LBB7333:
.LBB7334:
.LBB7335:
.LBB7336:
.LBB7337:
	.loc 1 105 0
	lis 9,_ZTVN7sigslot15single_threadedE+8@ha
	mr 3,31
	la 0,_ZTVN7sigslot15single_threadedE+8@l(9)
	stw 0,0(28)
.LEHB185:
	bl _Unwind_Resume
.LEHE185:
.LBE7337:
.LBE7336:
.LBE7335:
.LBE7334:
.LBE7333:
.LBE7332:
.LBE7341:
.LBE7345:
.LBE7349:
	.cfi_endproc
.LFE1745:
	.section	.gcc_except_table
.LLSDA1745:
	.byte	0xff
	.byte	0xff
	.byte	0x1
	.uleb128 .LLSDACSE1745-.LLSDACSB1745
.LLSDACSB1745:
	.uleb128 .LEHB182-.LFB1745
	.uleb128 .LEHE182-.LEHB182
	.uleb128 .L1231-.LFB1745
	.uleb128 0
	.uleb128 .LEHB183-.LFB1745
	.uleb128 .LEHE183-.LEHB183
	.uleb128 .L1232-.LFB1745
	.uleb128 0
	.uleb128 .LEHB184-.LFB1745
	.uleb128 .LEHE184-.LEHB184
	.uleb128 .L1231-.LFB1745
	.uleb128 0
	.uleb128 .LEHB185-.LFB1745
	.uleb128 .LEHE185-.LEHB185
	.uleb128 0
	.uleb128 0
.LLSDACSE1745:
	.section	.text._ZN7sigslot13_signal_base2IP12UpdateWindowiNS_15single_threadedEED0Ev,"axG",@progbits,_ZN7sigslot13_signal_base2IP12UpdateWindowiNS_15single_threadedEED5Ev,comdat
	.size	_ZN7sigslot13_signal_base2IP12UpdateWindowiNS_15single_threadedEED0Ev, .-_ZN7sigslot13_signal_base2IP12UpdateWindowiNS_15single_threadedEED0Ev
	.section	.text._ZN7sigslot7signal2IP12UpdateWindowiNS_15single_threadedEED2Ev,"axG",@progbits,_ZN7sigslot7signal2IP12UpdateWindowiNS_15single_threadedEED5Ev,comdat
	.align 2
	.weak	_ZN7sigslot7signal2IP12UpdateWindowiNS_15single_threadedEED2Ev
	.type	_ZN7sigslot7signal2IP12UpdateWindowiNS_15single_threadedEED2Ev, @function
_ZN7sigslot7signal2IP12UpdateWindowiNS_15single_threadedEED2Ev:
.LFB1653:
	.loc 1 2235 0
	.cfi_startproc
	.cfi_personality 0,__gxx_personality_v0
	.cfi_lsda 0,.LLSDA1653
.LVL1130:
	mflr 0
	stwu 1,-40(1)
.LCFI119:
	.cfi_def_cfa_offset 40
	.cfi_register 65, 0
.LBB7447:
.LBB7448:
.LBB7449:
.LBB7450:
	.loc 1 826 0
	lis 9,_ZTVN7sigslot13_signal_base2IP12UpdateWindowiNS_15single_threadedEEE+8@ha
.LBE7450:
.LBE7449:
.LBE7448:
.LBE7447:
	.loc 1 2235 0
	stw 28,24(1)
	mr 28,3
	.cfi_offset 28, -16
.LVL1131:
	stw 0,44(1)
.LBB7548:
.LBB7543:
.LBB7538:
.LBB7533:
	.loc 1 826 0
	la 0,_ZTVN7sigslot13_signal_base2IP12UpdateWindowiNS_15single_threadedEEE+8@l(9)
	.cfi_offset 65, 4
.LBE7533:
.LBE7538:
.LBE7543:
.LBE7548:
	.loc 1 2235 0
	stw 29,28(1)
	addi 29,3,4
	.cfi_offset 29, -12
	stw 30,32(1)
	stw 31,36(1)
.LBB7549:
.LBB7544:
.LBB7539:
.LBB7534:
	.loc 1 826 0
	stw 0,0(3)
.LVL1132:
.LEHB186:
.LBB7451:
.LBB7452:
.LBB7453:
.LBB7454:
	.loc 1 338 0
	.cfi_offset 31, -4
	.cfi_offset 30, -8
	bl _ZN7sigslot15single_threaded4lockEv
.LEHE186:
.LVL1133:
.LBE7454:
.LBE7453:
.LBE7452:
	.loc 4 471 0
	mr 29,28
.LVL1134:
	lwzu 31,4(29)
.LVL1135:
.LBB7485:
	.loc 1 834 0
	cmpw 7,31,29
	beq- 7,.L1240
.LVL1136:
.L1278:
	.loc 1 836 0
	lwz 3,8(31)
	lwz 9,0(3)
	lwz 0,8(9)
	mtctr 0
.LEHB187:
	bctrl
.LBB7455:
.LBB7456:
.LBB7457:
.LBB7458:
	.loc 1 338 0
	lwz 9,0(3)
.LBE7458:
.LBE7457:
.LBE7456:
.LBE7455:
	.loc 1 836 0
	mr 30,3
.LVL1137:
	stw 28,8(1)
.LVL1138:
.LBB7467:
.LBB7466:
.LBB7460:
.LBB7459:
	.loc 1 338 0
	lwz 0,8(9)
	mtctr 0
	bctrl
.LVL1139:
.LBE7459:
.LBE7460:
.LBB7461:
.LBB7462:
	.loc 15 528 0
	addi 3,30,4
	addi 4,1,8
	bl _ZNSt8_Rb_treeIPN7sigslot12_signal_baseINS0_15single_threadedEEES4_St9_IdentityIS4_ESt4lessIS4_ESaIS4_EE5eraseERKS4_
.LVL1140:
.LBE7462:
.LBE7461:
.LBB7463:
.LBB7464:
.LBB7465:
	.loc 1 343 0
	lwz 9,0(30)
	mr 3,30
	lwz 0,12(9)
	mtctr 0
	bctrl
.LVL1141:
.LBE7465:
.LBE7464:
.LBE7463:
.LBE7466:
.LBE7467:
	.loc 1 837 0
	lwz 3,8(31)
	cmpwi 7,3,0
	beq- 7,.L1242
	lwz 9,0(3)
	lwz 0,4(9)
	mtctr 0
	bctrl
.LEHE187:
.L1242:
.LVL1142:
.LBB7468:
.LBB7469:
	.loc 5 234 0
	lwz 31,0(31)
.LVL1143:
.LBE7469:
.LBE7468:
	.loc 1 834 0
	cmpw 7,29,31
	bne+ 7,.L1278
.LBE7485:
	.loc 4 471 0
	lwz 31,4(28)
.LVL1144:
.LBB7486:
.LBB7470:
.LBB7471:
	.loc 5 1162 0
	cmpw 7,29,31
	bne+ 7,.L1280
	b .L1240
.LVL1145:
.L1273:
	.loc 5 1163 0
	mr 31,30
.LVL1146:
.L1280:
.LBB7472:
.LBB7473:
	.loc 20 112 0
	lwz 30,0(31)
.LVL1147:
.LBB7474:
.LBB7475:
	.loc 5 1532 0
	mr 3,31
	bl _ZNSt8__detail15_List_node_base9_M_unhookEv
.LVL1148:
.LBB7476:
.LBB7477:
.LBB7478:
	.loc 6 98 0
	mr 3,31
	bl _ZdlPv
.LVL1149:
.LBE7478:
.LBE7477:
.LBE7476:
.LBE7475:
.LBE7474:
.LBE7473:
.LBE7472:
	.loc 5 1162 0
	cmpw 7,29,30
	bne+ 7,.L1273
.LVL1150:
.L1240:
.LBE7471:
.LBE7470:
.LBB7479:
.LBB7480:
.LBB7481:
	.loc 1 343 0
	lwz 9,0(28)
	mr 3,28
	lwz 0,12(9)
	mtctr 0
.LEHB188:
	bctrl
.LEHE188:
.LBE7481:
.LBE7480:
.LBE7479:
.LBE7486:
.LBE7451:
.LBB7488:
.LBB7489:
.LBB7490:
.LBB7491:
.LBB7492:
.LBB7493:
	.loc 20 70 0
	lwz 3,4(28)
.LVL1151:
	.loc 20 71 0
	cmpw 7,3,29
	bne+ 7,.L1282
	b .L1258
.LVL1152:
.L1274:
	.loc 20 74 0
	mr 3,31
.LVL1153:
.L1282:
.LBB7494:
	lwz 31,0(3)
.LVL1154:
.LBB7495:
.LBB7496:
.LBB7497:
	.loc 6 98 0
	bl _ZdlPv
.LVL1155:
.LBE7497:
.LBE7496:
.LBE7495:
.LBE7494:
	.loc 20 71 0
	cmpw 7,31,29
	bne+ 7,.L1274
.LVL1156:
.L1258:
.LBE7493:
.LBE7492:
.LBE7491:
.LBE7490:
.LBE7489:
.LBE7488:
.LBB7498:
.LBB7499:
.LBB7500:
.LBB7501:
.LBB7502:
.LBB7503:
	.loc 1 105 0
	lis 9,_ZTVN7sigslot15single_threadedE+8@ha
.LBE7503:
.LBE7502:
.LBE7501:
.LBE7500:
.LBE7499:
.LBE7498:
.LBE7534:
.LBE7539:
.LBE7544:
.LBE7549:
	.loc 1 2238 0
	lwz 29,28(1)
.LVL1157:
.LBB7550:
.LBB7545:
.LBB7540:
.LBB7535:
.LBB7514:
.LBB7512:
.LBB7510:
.LBB7508:
.LBB7506:
.LBB7504:
	.loc 1 105 0
	la 0,_ZTVN7sigslot15single_threadedE+8@l(9)
.LBE7504:
.LBE7506:
.LBE7508:
.LBE7510:
.LBE7512:
.LBE7514:
.LBE7535:
.LBE7540:
.LBE7545:
.LBE7550:
	.loc 1 2238 0
	lwz 30,32(1)
.LBB7551:
.LBB7546:
.LBB7541:
.LBB7536:
.LBB7515:
.LBB7513:
.LBB7511:
.LBB7509:
.LBB7507:
.LBB7505:
	.loc 1 105 0
	stw 0,0(28)
.LBE7505:
.LBE7507:
.LBE7509:
.LBE7511:
.LBE7513:
.LBE7515:
.LBE7536:
.LBE7541:
.LBE7546:
.LBE7551:
	.loc 1 2238 0
	lwz 0,44(1)
	lwz 28,24(1)
.LVL1158:
	mtlr 0
	lwz 31,36(1)
	addi 1,1,40
	.cfi_remember_state
.LCFI120:
	.cfi_def_cfa_offset 0
	.cfi_restore 31
	.cfi_restore 30
	.cfi_restore 29
	.cfi_restore 28
	blr
.LVL1159:
.L1276:
.LCFI121:
	.cfi_restore_state
	mr 31,3
.L1250:
.LBB7552:
.LBB7547:
.LBB7542:
.LBB7537:
.LBB7516:
.LBB7517:
.LBB7518:
.LBB7519:
.LBB7520:
.LBB7521:
	.loc 20 70 0
	lwz 3,4(28)
.LVL1160:
	.loc 20 71 0
	cmpw 7,3,29
	beq- 7,.L1267
.LVL1161:
.L1283:
.LBB7522:
	.loc 20 74 0
	lwz 30,0(3)
.LVL1162:
.LBB7523:
.LBB7524:
.LBB7525:
	.loc 6 98 0
	bl _ZdlPv
.LVL1163:
.LBE7525:
.LBE7524:
.LBE7523:
.LBE7522:
	.loc 20 71 0
	cmpw 7,30,29
	beq- 7,.L1267
	.loc 20 74 0
	mr 3,30
	b .L1283
.LVL1164:
.L1277:
.LBE7521:
.LBE7520:
.LBE7519:
.LBE7518:
.LBE7517:
.LBE7516:
.LBB7526:
.LBB7487:
.LBB7482:
.LBB7483:
.LBB7484:
	.loc 1 343 0
	lwz 9,0(28)
	mr 31,3
.LVL1165:
	mr 3,28
	lwz 0,12(9)
	mtctr 0
	bctrl
	b .L1250
.LVL1166:
.L1267:
.LBE7484:
.LBE7483:
.LBE7482:
.LBE7487:
.LBE7526:
.LBB7527:
.LBB7528:
.LBB7529:
.LBB7530:
.LBB7531:
.LBB7532:
	.loc 1 105 0
	lis 9,_ZTVN7sigslot15single_threadedE+8@ha
	mr 3,31
	la 0,_ZTVN7sigslot15single_threadedE+8@l(9)
	stw 0,0(28)
.LEHB189:
	bl _Unwind_Resume
.LEHE189:
.LBE7532:
.LBE7531:
.LBE7530:
.LBE7529:
.LBE7528:
.LBE7527:
.LBE7537:
.LBE7542:
.LBE7547:
.LBE7552:
	.cfi_endproc
.LFE1653:
	.section	.gcc_except_table
.LLSDA1653:
	.byte	0xff
	.byte	0xff
	.byte	0x1
	.uleb128 .LLSDACSE1653-.LLSDACSB1653
.LLSDACSB1653:
	.uleb128 .LEHB186-.LFB1653
	.uleb128 .LEHE186-.LEHB186
	.uleb128 .L1276-.LFB1653
	.uleb128 0
	.uleb128 .LEHB187-.LFB1653
	.uleb128 .LEHE187-.LEHB187
	.uleb128 .L1277-.LFB1653
	.uleb128 0
	.uleb128 .LEHB188-.LFB1653
	.uleb128 .LEHE188-.LEHB188
	.uleb128 .L1276-.LFB1653
	.uleb128 0
	.uleb128 .LEHB189-.LFB1653
	.uleb128 .LEHE189-.LEHB189
	.uleb128 0
	.uleb128 0
.LLSDACSE1653:
	.section	.text._ZN7sigslot7signal2IP12UpdateWindowiNS_15single_threadedEED2Ev,"axG",@progbits,_ZN7sigslot7signal2IP12UpdateWindowiNS_15single_threadedEED5Ev,comdat
	.size	_ZN7sigslot7signal2IP12UpdateWindowiNS_15single_threadedEED2Ev, .-_ZN7sigslot7signal2IP12UpdateWindowiNS_15single_threadedEED2Ev
	.section	".text"
	.align 2
	.globl _ZN12UpdateWindowC2Ev
	.type	_ZN12UpdateWindowC2Ev, @function
_ZN12UpdateWindowC2Ev:
.LFB1593:
	.loc 4 25 0
	.cfi_startproc
	.cfi_personality 0,__gxx_personality_v0
	.cfi_lsda 0,.LLSDA1593
.LVL1167:
	stwu 1,-56(1)
.LCFI122:
	.cfi_def_cfa_offset 56
	mflr 0
.LBB7628:
	.loc 4 29 0
	li 4,0
	li 5,0
.LBE7628:
	.loc 4 25 0
	stw 30,48(1)
.LBB7756:
	.loc 4 29 0
	li 6,0
.LBE7756:
	.loc 4 25 0
	mr 30,3
	.cfi_offset 30, -8
	.cfi_register 65, 0
	stw 0,60(1)
	stw 26,32(1)
	stw 27,36(1)
	stw 28,40(1)
	stw 29,44(1)
	stw 31,52(1)
.LEHB190:
.LBB7757:
	.loc 4 29 0
	.cfi_offset 31, -4
	.cfi_offset 29, -12
	.cfi_offset 28, -16
	.cfi_offset 27, -20
	.cfi_offset 26, -24
	.cfi_offset 65, 4
	bl _ZN8GuiFrameC2EiiPS_
.LEHE190:
.LVL1168:
.LBB7629:
.LBB7630:
.LBB7631:
.LBB7632:
.LBB7633:
.LBB7634:
.LBB7635:
.LBB7636:
	.loc 5 380 0
	addi 9,30,208
.LBE7636:
.LBE7635:
.LBE7634:
.LBE7633:
.LBE7632:
.LBE7631:
.LBE7630:
.LBE7629:
	.loc 4 29 0
	lis 11,_ZTV12UpdateWindow+8@ha
	la 11,_ZTV12UpdateWindow+8@l(11)
.LBB7646:
.LBB7643:
.LBB7642:
.LBB7641:
.LBB7640:
.LBB7639:
.LBB7638:
.LBB7637:
	.loc 5 380 0
	stw 9,208(30)
	.loc 5 381 0
	stw 9,212(30)
.LBE7637:
.LBE7638:
.LBE7639:
.LBE7640:
.LBE7641:
.LBE7642:
	.loc 1 2225 0
	lis 9,_ZTVN7sigslot7signal2IP12UpdateWindowiNS_15single_threadedEEE+8@ha
.LBE7643:
.LBE7646:
.LBB7647:
.LBB7648:
.LBB7649:
.LBB7650:
.LBB7651:
.LBB7652:
	.loc 14 445 0
	li 0,0
.LBB7653:
.LBB7654:
	.loc 14 459 0
	addi 10,30,184
.LBE7654:
.LBE7653:
.LBE7652:
.LBE7651:
.LBE7650:
.LBE7649:
.LBE7648:
.LBE7647:
	.loc 4 29 0
	addi 8,11,228
.LBB7667:
.LBB7644:
	.loc 1 2225 0
	la 9,_ZTVN7sigslot7signal2IP12UpdateWindowiNS_15single_threadedEEE+8@l(9)
.LBE7644:
.LBE7667:
.LBB7668:
	.loc 4 31 0
	lis 3,.LC19@ha
.LBE7668:
.LBB7749:
.LBB7665:
.LBB7663:
.LBB7661:
.LBB7659:
.LBB7657:
	.loc 14 445 0
	stw 0,184(30)
	stw 0,188(30)
.LBE7657:
.LBE7659:
.LBE7661:
.LBE7663:
.LBE7665:
.LBE7749:
.LBB7750:
	.loc 4 31 0
	la 3,.LC19@l(3)
.LBE7750:
.LBB7751:
.LBB7666:
.LBB7664:
.LBB7662:
.LBB7660:
.LBB7658:
	.loc 14 445 0
	stw 0,200(30)
.LVL1169:
.LBB7656:
.LBB7655:
	.loc 14 459 0
	stw 10,192(30)
	.loc 14 460 0
	stw 10,196(30)
.LBE7655:
.LBE7656:
.LBE7658:
.LBE7660:
.LBE7662:
.LBE7664:
.LBE7666:
.LBE7751:
	.loc 4 29 0
	stw 11,0(30)
	stw 8,176(30)
.LVL1170:
.LBB7752:
.LBB7645:
	.loc 1 2225 0
	stw 9,204(30)
.LBE7645:
.LBE7752:
	.loc 4 29 0
	stw 0,216(30)
	stw 0,220(30)
	stw 0,224(30)
.LEHB191:
.LBB7753:
	.loc 4 31 0
	bl _ZN9Resources8GetSoundEPKc
	stw 3,316(30)
	.loc 4 32 0
	lis 3,.LC20@ha
	la 3,.LC20@l(3)
	bl _ZN9Resources8GetSoundEPKc
	.loc 4 32 0 is_stmt 0 discriminator 1
	stw 3,320(30)
	.loc 4 34 0 is_stmt 1 discriminator 1
	li 3,368
	bl _Znwj
.LEHE191:
	lis 31,Settings@ha
	mr 29,3
	la 31,Settings@l(31)
	lhz 27,2616(31)
	lhz 26,2644(31)
	lhz 28,2672(31)
.LVL1171:
.LEHB192:
.LBB7669:
.LBB7670:
	.loc 7 95 0 discriminator 1
	bl _ZN10GuiTriggerC2Ev
.LEHE192:
.LVL1172:
	.loc 7 95 0 is_stmt 0
	lis 9,_ZTV16SimpleGuiTrigger+8@ha
.LBE7670:
.LBE7669:
	.loc 4 34 0 is_stmt 1
	slwi 5,26,16
.LBB7673:
.LBB7671:
	.loc 7 95 0
	la 0,_ZTV16SimpleGuiTrigger+8@l(9)
	.loc 7 96 0
	mr 3,29
	.loc 7 95 0
	stw 0,0(29)
	.loc 7 96 0
	li 4,-1
	or 5,5,27
	mr 6,28
.LEHB193:
	bl _ZN10GuiTrigger16SetSimpleTriggerEijt
.LEHE193:
.LBE7671:
.LBE7673:
	.loc 4 34 0 discriminator 1
	stw 29,324(30)
	.loc 4 35 0 discriminator 1
	li 3,368
.LEHB194:
	bl _Znwj
.LEHE194:
	mr 29,3
.LVL1173:
.LEHB195:
	bl _ZN10GuiTriggerC1Ev
.LEHE195:
	.loc 4 36 0 discriminator 2
	lhz 5,2646(31)
	mr 3,29
	lhz 0,2618(31)
	li 4,-1
	slwi 5,5,16
	.loc 4 35 0 discriminator 2
	stw 29,328(30)
	.loc 4 36 0 discriminator 2
	lhz 6,2674(31)
	or 5,5,0
.LEHB196:
	bl _ZN10GuiTrigger20SetButtonOnlyTriggerEijt
	.loc 4 38 0
	lis 3,.LC21@ha
	la 3,.LC21@l(3)
	bl _ZN9Resources12GetImageDataEPKc
	stw 3,228(30)
	.loc 4 39 0
	li 3,196
	bl _Znwj
.LEHE196:
	.loc 4 39 0 is_stmt 0 discriminator 1
	lwz 4,228(30)
	mr 31,3
.LEHB197:
	bl _ZN8GuiImageC1EP12GuiImageData
.LEHE197:
	stw 31,232(30)
	.loc 4 43 0 is_stmt 1 discriminator 1
	lis 3,.LC22@ha
	.loc 4 40 0 discriminator 1
	lwz 9,228(30)
	.loc 4 43 0 discriminator 1
	la 3,.LC22@l(3)
	.loc 4 471 0 discriminator 1
	lwz 0,12(9)
	.loc 4 40 0 discriminator 1
	stw 0,36(30)
	.loc 4 471 0 discriminator 1
	lwz 0,8(9)
	.loc 4 41 0 discriminator 1
	stw 0,40(30)
.LEHB198:
	.loc 4 43 0 discriminator 1
	bl getThemeInt
	lis 28,.LC7@ha
.LVL1174:
	mr 27,3
.LVL1175:
	la 28,.LC7@l(28)
	mr 3,28
	bl getThemeColor
	mr 26,3
	li 3,208
	bl _Znwj
.LEHE198:
	.loc 4 43 0 is_stmt 0 discriminator 2
	mr 31,1
	li 4,0
	stwu 26,24(31)
	mr 5,27
	mr 29,3
	mr 6,31
.LEHB199:
	bl _ZN7GuiTextC1EPKci9_gx_color
.LEHE199:
	.loc 4 43 0 discriminator 1
	stw 29,276(30)
	.loc 4 44 0 is_stmt 1 discriminator 1
	mr 3,29
	lwz 9,0(29)
	li 4,18
	lwz 0,180(9)
	mtctr 0
.LEHB200:
	bctrl
	.loc 4 45 0
	lwz 3,276(30)
	li 4,0
	li 5,55
	lwz 9,0(3)
	lwz 0,168(9)
	mtctr 0
	bctrl
.LVL1176:
	.loc 4 46 0
	lwz 4,36(30)
	li 5,1
	lwz 3,276(30)
	addi 4,4,-68
	bl _ZN7GuiText11SetMaxWidthEii
	.loc 4 48 0
	lis 3,.LC6@ha
	la 3,.LC6@l(3)
	bl getThemeInt
	mr 27,3
	mr 3,28
	bl getThemeColor
	.loc 4 48 0 is_stmt 0 discriminator 1
	mr 28,3
	li 3,208
	bl _Znwj
.LEHE200:
	.loc 4 48 0 discriminator 2
	li 4,0
	mr 5,27
	mr 6,31
	mr 29,3
	stw 28,24(1)
.LEHB201:
	bl _ZN7GuiTextC1EPKci9_gx_color
.LEHE201:
	.loc 4 48 0 discriminator 1
	stw 29,280(30)
	.loc 4 49 0 is_stmt 1 discriminator 1
	mr 3,29
	lwz 9,0(29)
	li 4,34
	lwz 0,180(9)
	mtctr 0
.LEHB202:
	bctrl
	.loc 4 50 0
	lwz 3,280(30)
	li 4,0
	li 5,-40
	lwz 9,0(3)
	lwz 0,168(9)
	mtctr 0
	bctrl
	.loc 4 51 0
	lwz 3,280(30)
.LVL1177:
.LBB7674:
.LBB7675:
	.loc 9 89 0
	li 0,2
.LBE7675:
.LBE7674:
	.loc 4 52 0
	li 5,0
.LBB7677:
.LBB7676:
	.loc 9 89 0
	stw 0,200(3)
.LVL1178:
.LBE7676:
.LBE7677:
	.loc 4 52 0
	lwz 4,36(30)
	addi 4,4,-68
	bl _ZN7GuiText11SetMaxWidthEii
.LVL1179:
.LBB7678:
	.loc 4 56 0 discriminator 1
	li 0,0
.LBE7678:
	.loc 4 60 0 discriminator 1
	lis 3,.LC23@ha
.LBB7679:
	.loc 4 56 0 discriminator 1
	stw 0,284(30)
.LBE7679:
	.loc 4 60 0 discriminator 1
	la 3,.LC23@l(3)
.LBB7680:
	.loc 4 57 0 discriminator 1
	stw 0,300(30)
.LVL1180:
	.loc 4 56 0 discriminator 1
	stw 0,288(30)
	.loc 4 57 0 discriminator 1
	stw 0,304(30)
.LVL1181:
	.loc 4 56 0 discriminator 1
	stw 0,292(30)
	.loc 4 57 0 discriminator 1
	stw 0,308(30)
.LVL1182:
	.loc 4 56 0 discriminator 1
	stw 0,296(30)
	.loc 4 57 0 discriminator 1
	stw 0,312(30)
.LVL1183:
.LBE7680:
	.loc 4 60 0 discriminator 1
	bl _ZN9Resources12GetImageDataEPKc
	stw 3,244(30)
	.loc 4 61 0 discriminator 1
	lis 3,.LC24@ha
	la 3,.LC24@l(3)
	bl _ZN9Resources12GetImageDataEPKc
	stw 3,248(30)
	.loc 4 62 0 discriminator 1
	lis 3,.LC25@ha
	la 3,.LC25@l(3)
	bl _ZN9Resources12GetImageDataEPKc
	.loc 4 63 0 discriminator 1
	li 0,0
	.loc 4 62 0 discriminator 1
	stw 3,252(30)
	.loc 4 63 0 discriminator 1
	stw 0,256(30)
	.loc 4 69 0 discriminator 1
	lis 3,.LC26@ha
	.loc 4 64 0 discriminator 1
	stw 0,260(30)
	.loc 4 69 0 discriminator 1
	la 3,.LC26@l(3)
	.loc 4 65 0 discriminator 1
	stw 0,264(30)
	.loc 4 66 0 discriminator 1
	stw 0,268(30)
	.loc 4 67 0 discriminator 1
	stw 0,272(30)
	.loc 4 69 0 discriminator 1
	bl _ZN9Resources12GetImageDataEPKc
	.loc 4 70 0 discriminator 1
	li 0,0
	.loc 4 69 0 discriminator 1
	stw 3,236(30)
	.loc 4 70 0 discriminator 1
	stw 0,240(30)
	.loc 4 72 0 discriminator 1
	mr 3,30
	lwz 4,232(30)
	bl _ZN8GuiFrame6AppendEP10GuiElement
	.loc 4 73 0
	lwz 4,276(30)
	mr 3,30
	bl _ZN8GuiFrame6AppendEP10GuiElement
	.loc 4 74 0
	lwz 4,280(30)
	mr 3,30
	bl _ZN8GuiFrame6AppendEP10GuiElement
	.loc 4 76 0
	mr 3,30
	li 4,128
	li 5,40
	li 6,0
	bl _ZN10GuiElement9SetEffectEiii
.LVL1184:
.LBB7681:
.LBB7682:
	.loc 2 316 0
	li 0,34
.LBE7682:
.LBE7681:
	.loc 4 78 0
	mr 3,30
.LBB7684:
.LBB7683:
	.loc 2 316 0
	stw 0,68(30)
.LBE7683:
.LBE7684:
	.loc 4 78 0
	li 4,1
	bl _ZN8GuiFrame13DimBackgroundEb
.LBB7685:
.LBB7686:
	.loc 18 27 0
	lis 27,_ZN11Application8instanceE@ha
	lwz 28,_ZN11Application8instanceE@l(27)
	cmpwi 7,28,0
	beq- 7,.L1324
.L1288:
.LBE7686:
.LBE7685:
.LBB7691:
.LBB7692:
.LBB7693:
	.loc 4 471 0
	lwz 9,604(28)
.LBB7694:
	.loc 18 69 0
	li 31,0
.LBE7694:
	.loc 4 471 0
	lwz 11,608(28)
.LBE7693:
.LBE7692:
.LBE7691:
.LBB7735:
.LBB7687:
	.loc 18 27 0
	stw 30,8(1)
.LVL1185:
.LBE7687:
.LBE7735:
.LBB7736:
.LBB7732:
.LBB7724:
.LBB7722:
.LBB7695:
.LBB7696:
	.loc 12 571 0
	subf 0,9,11
.LBE7696:
.LBE7695:
	.loc 18 69 0
	srwi. 10,0,2
	mr 0,9
	bne+ 0,.L1317
	b .L1290
.LVL1186:
.L1293:
.LBB7700:
.LBB7697:
	.loc 12 571 0
	subf 9,0,11
.LBE7697:
.LBE7700:
	.loc 18 69 0
	addi 31,31,1
.LVL1187:
.LBB7701:
.LBB7698:
	.loc 12 571 0
	srawi 9,9,2
.LBE7698:
.LBE7701:
	.loc 18 69 0
	cmplw 7,31,9
	bge- 7,.L1290
.LVL1188:
.L1306:
	.loc 4 471 0
	mr 9,0
.LVL1189:
.L1317:
.LBE7722:
.LBE7724:
.LBE7732:
.LBE7736:
.LBB7737:
.LBB7688:
	.loc 4 25 0
	slwi 29,31,2
.LBE7688:
.LBE7737:
.LBB7738:
.LBB7733:
.LBB7725:
.LBB7723:
	.loc 18 70 0
	lwzx 9,9,29
	cmpw 7,30,9
	bne+ 7,.L1293
	.loc 18 71 0
	lwz 3,628(28)
	bl LWP_MutexLock
.LBB7702:
.LBB7703:
	.loc 13 773 0
	lwz 3,604(28)
.LBE7703:
.LBE7702:
.LBB7705:
.LBB7706:
.LBB7707:
	.loc 4 471 0
	lwz 9,608(28)
.LBE7707:
.LBE7706:
.LBE7705:
.LBB7718:
.LBB7704:
	.loc 13 773 0
	add 3,3,29
.LVL1190:
.LBE7704:
.LBE7718:
.LBB7719:
.LBB7716:
.LBB7708:
.LBB7709:
	addi 4,3,4
.LBE7709:
.LBE7708:
	.loc 10 138 0
	cmpw 7,4,9
	beq- 7,.L1294
.LVL1191:
.LBB7710:
.LBB7711:
.LBB7712:
.LBB7713:
.LBB7714:
.LBB7715:
	.loc 11 364 0
	subf 5,4,9
.LVL1192:
	.loc 11 365 0
	srawi. 5,5,2
.LVL1193:
	beq+ 0,.L1294
	.loc 11 366 0
	slwi 5,5,2
.LVL1194:
	bl memmove
.LVL1195:
	lwz 9,608(28)
.LVL1196:
.L1294:
.LBE7715:
.LBE7714:
.LBE7713:
.LBE7712:
.LBE7711:
.LBE7710:
	.loc 10 140 0
	addi 9,9,-4
.LBE7716:
.LBE7719:
	.loc 18 73 0
	lwz 3,628(28)
.LBB7720:
.LBB7717:
	.loc 10 140 0
	stw 9,608(28)
.LBE7717:
.LBE7720:
	.loc 18 73 0
	bl LWP_MutexUnlock
	lwz 0,604(28)
	.loc 18 69 0
	addi 31,31,1
.LVL1197:
	.loc 18 73 0
	lwz 11,608(28)
.LBB7721:
.LBB7699:
	.loc 12 571 0
	subf 9,0,11
	srawi 9,9,2
.LBE7699:
.LBE7721:
	.loc 18 69 0
	cmplw 7,31,9
	blt+ 7,.L1306
.LVL1198:
.L1290:
.LBE7723:
.LBE7725:
	.loc 18 62 0
	lwz 3,628(28)
	bl LWP_MutexLock
.LVL1199:
.LBB7726:
.LBB7727:
	.loc 12 828 0
	lwz 9,608(28)
	lwz 0,612(28)
	cmpw 7,9,0
	beq- 7,.L1295
.LVL1200:
.LBB7728:
.LBB7729:
	.loc 6 108 0
	cmpwi 7,9,0
	li 11,0
	beq- 7,.L1296
	lwz 0,8(1)
	stw 0,0(9)
	lwz 11,608(28)
.L1296:
.LBE7729:
.LBE7728:
	.loc 12 831 0
	addi 11,11,4
	stw 11,608(28)
.LVL1201:
.L1297:
.LBE7727:
.LBE7726:
	.loc 18 64 0
	lwz 3,628(28)
	bl LWP_MutexUnlock
.LBE7733:
.LBE7738:
.LBB7739:
.LBB7740:
	.loc 18 27 0
	lwz 31,_ZN11Application8instanceE@l(27)
	cmpwi 7,31,0
	beq- 7,.L1325
.L1298:
.LVL1202:
.LBE7740:
.LBE7739:
.LBB7742:
.LBB7743:
	.loc 18 51 0
	lwz 3,628(31)
	bl LWP_MutexLock
	.loc 18 52 0
	mr 3,31
	mr 4,30
	bl _ZN8GuiFrame6AppendEP10GuiElement
	.loc 18 53 0
	lwz 3,628(31)
	bl LWP_MutexUnlock
.LBE7743:
.LBE7742:
.LBE7753:
.LBE7757:
	.loc 4 81 0
	lwz 0,60(1)
	lwz 26,32(1)
	mtlr 0
	lwz 27,36(1)
	lwz 28,40(1)
.LVL1203:
	lwz 29,44(1)
	lwz 30,48(1)
.LVL1204:
	lwz 31,52(1)
	addi 1,1,56
	.cfi_remember_state
.LCFI123:
	.cfi_def_cfa_offset 0
	.cfi_restore 31
	.cfi_restore 30
	.cfi_restore 29
	.cfi_restore 28
	.cfi_restore 27
	.cfi_restore 26
	blr
.LVL1205:
.L1324:
.LCFI124:
	.cfi_restore_state
.LBB7758:
.LBB7754:
.LBB7744:
.LBB7689:
	.loc 18 27 0
	li 3,632
	bl _Znwj
.LEHE202:
	mr 28,3
.LEHB203:
	bl _ZN11ApplicationC1Ev
.LEHE203:
	stw 28,_ZN11Application8instanceE@l(27)
	b .L1288
.LVL1206:
.L1325:
.LBE7689:
.LBE7744:
.LBB7745:
.LBB7741:
	li 3,632
.LEHB204:
	bl _Znwj
.LEHE204:
	mr 31,3
.LEHB205:
	bl _ZN11ApplicationC1Ev
.LEHE205:
	stw 31,_ZN11Application8instanceE@l(27)
	b .L1298
.L1295:
.LVL1207:
.LBE7741:
.LBE7745:
.LBB7746:
.LBB7734:
.LBB7731:
.LBB7730:
	.loc 12 834 0
	mr 4,1
	addi 3,28,604
	stwu 9,28(4)
	addi 5,1,8
.LEHB206:
	bl _ZNSt6vectorIP10GuiElementSaIS1_EE13_M_insert_auxEN9__gnu_cxx17__normal_iteratorIPS1_S3_EERKS1_
.LEHE206:
	b .L1297
.LVL1208:
.L1315:
	mr 31,3
.LBE7730:
.LBE7731:
.LBE7734:
.LBE7746:
.LBB7747:
.LBB7690:
	.loc 18 27 0
	mr 3,28
	bl _ZdlPv
.LVL1209:
.L1292:
.LBE7690:
.LBE7747:
.LBE7754:
	.loc 4 29 0
	addi 3,30,204
	bl _ZN7sigslot7signal2IP12UpdateWindowiNS_15single_threadedEED1Ev
	addi 3,30,176
	bl _ZN7sigslot9has_slotsINS_15single_threadedEED2Ev
	mr 3,30
	bl _ZN8GuiFrameD2Ev
	mr 3,31
.LEHB207:
	bl _Unwind_Resume
.LEHE207:
.L1308:
	mr 31,3
	b .L1292
.LVL1210:
.L1312:
.L1321:
	mr 31,3
.L1322:
.LBB7755:
	.loc 4 48 0
	mr 3,29
