	.file	"UpdateLanguage.cpp"
	.section	".text"
.Ltext0:
	.align 2
	.globl _Z24DownloadAllLanguageFilesSs
	.type	_Z24DownloadAllLanguageFilesSs, @function
_Z24DownloadAllLanguageFilesSs:
.LFB1632:
	.file 1 "d:/Projects/SaveGameManager/savegame-manager-gx/trunk/source/Language/UpdateLanguage.cpp"
	.loc 1 20 0
	.cfi_startproc
	.cfi_personality 0,__gxx_personality_v0
	.cfi_lsda 0,.LLSDA1632
.LVL0:
	stwu 1,-688(1)
.LCFI0:
	.cfi_def_cfa_offset 688
	mflr 0
	stw 22,648(1)
	mr 22,3
	.cfi_offset 22, -40
	.cfi_register 65, 0
.LBB1402:
	.loc 1 21 0
	mr 4,22
	addi 3,1,12
.LVL1:
.LBE1402:
	.loc 1 20 0
	stw 0,692(1)
	stw 23,652(1)
	stw 24,656(1)
	stw 25,660(1)
	stw 26,664(1)
	stw 27,668(1)
	stw 28,672(1)
	stw 29,676(1)
	stw 30,680(1)
	stw 31,684(1)
.LEHB0:
.LBB1464:
	.loc 1 21 0
	.cfi_offset 31, -4
	.cfi_offset 30, -8
	.cfi_offset 29, -12
	.cfi_offset 28, -16
	.cfi_offset 27, -20
	.cfi_offset 26, -24
	.cfi_offset 25, -28
	.cfi_offset 24, -32
	.cfi_offset 23, -36
	.cfi_offset 65, 4
	bl _ZNSsC1ERKSs
.LEHE0:
.LVL2:
	addi 3,1,12
.LEHB1:
	bl _Z15CreateSubfolderSs
.LEHE1:
.LBB1403:
.LBB1404:
.LBB1405:
.LBB1406:
.LBB1407:
.LBB1408:
	.file 2 "d:\\devkitpro\\devkitppc\\bin\\../lib/gcc/powerpc-eabi/4.6.3/../../../../powerpc-eabi/include/c++/4.6.3/bits/basic_string.h"
	.loc 2 288 0
	lwz 9,12(1)
.LBE1408:
.LBE1407:
.LBE1406:
.LBB1409:
.LBB1410:
	.loc 2 235 0
	lis 11,_ZNSs4_Rep20_S_empty_rep_storageE@ha
.LBE1410:
.LBE1409:
.LBE1405:
.LBE1404:
.LBE1403:
	.loc 1 21 0
	mr 30,3
.LVL3:
.LBB1427:
.LBB1425:
.LBB1423:
.LBB1420:
.LBB1417:
	.loc 2 235 0
	la 0,_ZNSs4_Rep20_S_empty_rep_storageE@l(11)
.LBE1417:
.LBE1420:
	.loc 2 534 0
	addi 3,9,-12
.LVL4:
.LBB1421:
.LBB1418:
	.loc 2 235 0
	cmpw 7,3,0
	bne- 7,.L45
.LVL5:
.L7:
.LBE1418:
.LBE1421:
.LBE1423:
.LBE1425:
.LBE1427:
	.loc 1 21 0 discriminator 1
	cmpwi 7,30,0
	beq- 7,.L46
.LEHB2:
	.loc 1 27 0
	bl _Z17NetworkInitPromptv
	cmpwi 7,3,0
	beq- 7,.L47
	.loc 1 35 0
	lis 23,.LC2@ha
	addi 3,1,16
	la 23,.LC2@l(23)
	mr 4,23
	bl _ZN8URL_ListC1EPKc
.LEHE2:
	.loc 1 36 0
	addi 3,1,16
.LEHB3:
	bl _ZN8URL_List11GetURLCountEv
.LBB1428:
.LBB1429:
	.file 3 "d:/Projects/SaveGameManager/savegame-manager-gx/trunk/source/Language/../Prompts/ProgressWindow.h"
	.loc 3 26 0
	lis 25,_ZN14ProgressWindow8instanceE@ha
.LBE1429:
.LBE1428:
	.loc 1 36 0
	mr 28,3
.LVL6:
.LBB1432:
.LBB1430:
	.loc 3 26 0
	lwz 30,_ZN14ProgressWindow8instanceE@l(25)
	cmpwi 7,30,0
	beq- 7,.L48
.LVL7:
.L11:
.LBE1430:
.LBE1432:
	.loc 1 39 0
	lis 3,.LC3@ha
	la 3,.LC3@l(3)
	bl gettext
	mr 4,3
	li 5,0
	mr 3,30
	bl _ZN14ProgressWindow13StartProgressEPKcS1_
.LVL8:
.LBB1433:
	.loc 1 41 0 discriminator 1
	cmpwi 7,28,0
	ble- 7,.L31
	.loc 1 41 0 is_stmt 0
	li 30,0
	li 31,0
	li 24,0
	b .L23
.LVL9:
.L18:
.LBB1434:
.LBB1435:
.LBB1436:
	.loc 1 70 0 is_stmt 1
	addic 31,31,1
	addze 30,30
.LBE1436:
.LBE1435:
.LBE1434:
	.loc 1 41 0
	cmpw 7,28,31
	ble- 7,.L15
.LVL10:
.L23:
.LBB1446:
	.loc 1 43 0
	addi 3,1,16
	mr 4,31
	bl _ZN8URL_List6GetURLEi
	li 4,47
	bl strrchr
.LVL11:
	.loc 1 44 0
	cmpwi 0,3,0
	beq- 0,.L16
	.loc 1 44 0 is_stmt 0 discriminator 1
	addi 29,3,1
.LVL12:
.L17:
	.loc 1 47 0 is_stmt 1
	cmpwi 7,29,0
	beq- 7,.L18
	.loc 1 50 0
	mr 3,29
	li 4,46
	bl strrchr
.LVL13:
	.loc 1 51 0
	cmpwi 7,3,0
	beq- 7,.L18
	.loc 1 51 0 is_stmt 0 discriminator 1
	lis 4,.LC4@ha
	la 4,.LC4@l(4)
	bl strcasecmp
.LVL14:
	cmpwi 7,3,0
	bne+ 7,.L18
.LBB1438:
.LBB1439:
	.loc 3 26 0 is_stmt 1
	lwz 27,_ZN14ProgressWindow8instanceE@l(25)
	cmpwi 7,27,0
	beq- 7,.L49
.L19:
.LBE1439:
.LBE1438:
	.loc 1 54 0
	srawi 0,28,31
	mr 3,27
	addi 4,1,32
	addi 5,1,24
	mr 6,29
	stw 30,32(1)
	stw 31,36(1)
	stw 28,28(1)
	stw 0,24(1)
	bl _ZN14ProgressWindow12ShowProgressERKyS1_PKc
	.loc 1 56 0
	lis 5,.LC5@ha
	addi 3,1,340
	li 4,300
	la 5,.LC5@l(5)
	mr 6,23
	mr 7,29
	crxor 6,6,6
	bl snprintf
	.loc 1 58 0
	addi 3,1,340
	bl downloadfile
.LBB1442:
	.loc 1 59 0
	mr. 27,4
.LBE1442:
	.loc 1 58 0
	mr 26,3
.LBB1443:
	.loc 1 59 0
	beq- 0,.L18
.LVL15:
.LBB1437:
	.loc 1 62 0
	lis 5,.LC6@ha
	lwz 6,0(22)
	addi 3,1,40
	li 4,300
	la 5,.LC6@l(5)
	mr 7,29
	crxor 6,6,6
	bl snprintf
	.loc 1 63 0
	lis 4,.LC7@ha
	addi 3,1,40
	la 4,.LC7@l(4)
	bl fopen
.LVL16:
	.loc 1 64 0
	mr. 29,3
.LVL17:
	beq- 0,.L22
	.loc 1 66 0
	mr 3,27
.LVL18:
	li 4,1
	mr 5,26
	mr 6,29
	bl fwrite
	.loc 1 67 0
	mr 3,29
	bl fclose
	.loc 1 68 0
	addi 24,24,1
.LVL19:
.L22:
	.loc 1 70 0
	mr 3,27
	addic 31,31,1
	addze 30,30
	bl free
.LBE1437:
.LBE1443:
.LBE1446:
	.loc 1 41 0
	cmpw 7,28,31
	bgt+ 7,.L23
.LVL20:
.L15:
.LBE1433:
.LBB1449:
.LBB1450:
	.loc 3 26 0
	lwz 30,_ZN14ProgressWindow8instanceE@l(25)
	cmpwi 7,30,0
	beq- 7,.L50
.L24:
.LBE1450:
.LBE1449:
	.loc 1 74 0
	mr 3,30
	bl _ZN14ProgressWindow14FinishProgressEv
.LBB1452:
.LBB1453:
	.loc 3 26 0
	lwz 30,_ZN14ProgressWindow8instanceE@l(25)
	cmpwi 7,30,0
	beq- 7,.L51
.L27:
.LBE1453:
.LBE1452:
	.loc 1 75 0
	mr 3,30
	bl _ZN14ProgressWindow12StopProgressEv
.LEHE3:
	.loc 1 77 0
	addi 3,1,16
.LEHB4:
	bl _ZN8URL_ListD1Ev
.LEHE4:
.LVL21:
.L9:
.LBE1464:
	.loc 1 78 0
	lwz 0,692(1)
	mr 3,24
	lwz 22,648(1)
.LVL22:
	mtlr 0
	lwz 23,652(1)
	lwz 24,656(1)
	lwz 25,660(1)
	lwz 26,664(1)
	lwz 27,668(1)
	lwz 28,672(1)
	lwz 29,676(1)
	lwz 30,680(1)
	lwz 31,684(1)
	addi 1,1,688
	.cfi_remember_state
.LCFI1:
	.cfi_def_cfa_offset 0
	.cfi_restore 31
	.cfi_restore 30
	.cfi_restore 29
	.cfi_restore 28
	.cfi_restore 27
	.cfi_restore 26
	.cfi_restore 25
	.cfi_restore 24
	.cfi_restore 23
	.cfi_restore 22
	blr
.LVL23:
.L16:
.LCFI2:
	.cfi_restore_state
.LBB1465:
.LBB1456:
.LBB1447:
	.loc 1 45 0
	addi 3,1,16
.LVL24:
	mr 4,31
.LEHB5:
	bl _ZN8URL_List6GetURLEi
	mr 29,3
	b .L17
.LVL25:
.L49:
.LBB1444:
.LBB1440:
	.loc 3 26 0
	li 3,440
	bl _Znwj
.LEHE5:
	mr 27,3
.LEHB6:
	bl _ZN14ProgressWindowC1Ev
.LEHE6:
	stw 27,_ZN14ProgressWindow8instanceE@l(25)
	b .L19
.LVL26:
.L48:
.LBE1440:
.LBE1444:
.LBE1447:
.LBE1456:
.LBB1457:
.LBB1431:
	li 3,440
.LEHB7:
	bl _Znwj
.LEHE7:
	mr 30,3
.LEHB8:
	bl _ZN14ProgressWindowC1Ev
.LEHE8:
	stw 30,_ZN14ProgressWindow8instanceE@l(25)
	b .L11
.LVL27:
.L50:
.LBE1431:
.LBE1457:
.LBB1458:
.LBB1451:
	li 3,440
.LEHB9:
	bl _Znwj
.LEHE9:
	mr 30,3
.LEHB10:
	bl _ZN14ProgressWindowC1Ev
.LEHE10:
	stw 30,_ZN14ProgressWindow8instanceE@l(25)
	b .L24
.L51:
.LBE1451:
.LBE1458:
.LBB1459:
.LBB1454:
	li 3,440
.LEHB11:
	bl _Znwj
.LEHE11:
	mr 30,3
.LEHB12:
	bl _ZN14ProgressWindowC1Ev
.LEHE12:
	stw 30,_ZN14ProgressWindow8instanceE@l(25)
	b .L27
.LVL28:
.L46:
.LBE1454:
.LBE1459:
	.loc 1 23 0
	lis 3,.LC0@ha
	.loc 1 24 0
	li 24,-1
	.loc 1 23 0
	la 3,.LC0@l(3)
.LEHB13:
	bl gettext
.LVL29:
	lwz 4,0(22)
	crxor 6,6,6
	bl ShowError
	.loc 1 24 0
	b .L9
.LVL30:
.L47:
	.loc 1 29 0
	lis 3,.LC1@ha
	.loc 1 30 0
	li 24,-2
	.loc 1 29 0
	la 3,.LC1@l(3)
	bl gettext
	crxor 6,6,6
	bl ShowError
.LEHE13:
	.loc 1 30 0
	b .L9
.LVL31:
.L31:
.LBB1460:
	.loc 1 41 0
	li 24,0
	b .L15
.LVL32:
.L37:
.L43:
	mr 29,3
.LBE1460:
.LBB1461:
.LBB1455:
	.loc 3 26 0
	mr 3,30
	bl _ZdlPv
	mr 30,29
.LVL33:
.L14:
.LBE1455:
.LBE1461:
	.loc 1 77 0
	addi 3,1,16
	bl _ZN8URL_ListD1Ev
	mr 3,30
.LEHB14:
	bl _Unwind_Resume
.L33:
	mr 30,3
	b .L14
.LVL34:
.L32:
	mr 30,3
	.loc 1 21 0
	addi 3,1,12
	bl _ZNSsD1Ev
	mr 3,30
	bl _Unwind_Resume
.LEHE14:
.LVL35:
.L36:
	b .L43
.LVL36:
.L34:
	b .L43
.LVL37:
.L35:
	mr 30,3
.LBB1462:
.LBB1448:
.LBB1445:
.LBB1441:
	.loc 3 26 0
	mr 3,27
	bl _ZdlPv
	b .L14
.LVL38:
.L45:
.LBE1441:
.LBE1445:
.LBE1448:
.LBE1462:
.LBB1463:
.LBB1426:
.LBB1424:
.LBB1422:
.LBB1419:
.LBB1411:
.LBB1412:
.LBB1413:
	.file 4 "d:\\devkitpro\\devkitppc\\bin\\../lib/gcc/powerpc-eabi/4.6.3/../../../../powerpc-eabi/include/c++/4.6.3/ext/atomicity.h"
	.loc 4 66 0
	lwz 11,-4(9)
.LVL39:
.LBE1413:
.LBE1412:
.LBE1411:
	.loc 2 240 0
	cmpwi 7,11,0
.LBB1416:
.LBB1415:
.LBB1414:
	.loc 4 67 0
	addi 11,11,-1
	stw 11,-4(9)
.LBE1414:
.LBE1415:
.LBE1416:
	.loc 2 240 0
	bgt+ 7,.L7
	.loc 2 244 0
	addi 4,1,8
	bl _ZNSs4_Rep10_M_destroyERKSaIcE
.LVL40:
	b .L7
.LBE1419:
.LBE1422:
.LBE1424:
.LBE1426:
.LBE1463:
.LBE1465:
	.cfi_endproc
.LFE1632:
	.globl __gxx_personality_v0
	.section	.gcc_except_table,"a",@progbits
.LLSDA1632:
	.byte	0xff
	.byte	0xff
	.byte	0x1
	.uleb128 .LLSDACSE1632-.LLSDACSB1632
.LLSDACSB1632:
	.uleb128 .LEHB0-.LFB1632
	.uleb128 .LEHE0-.LEHB0
	.uleb128 0
	.uleb128 0
	.uleb128 .LEHB1-.LFB1632
	.uleb128 .LEHE1-.LEHB1
	.uleb128 .L32-.LFB1632
	.uleb128 0
	.uleb128 .LEHB2-.LFB1632
	.uleb128 .LEHE2-.LEHB2
	.uleb128 0
	.uleb128 0
	.uleb128 .LEHB3-.LFB1632
	.uleb128 .LEHE3-.LEHB3
	.uleb128 .L33-.LFB1632
	.uleb128 0
	.uleb128 .LEHB4-.LFB1632
	.uleb128 .LEHE4-.LEHB4
	.uleb128 0
	.uleb128 0
	.uleb128 .LEHB5-.LFB1632
	.uleb128 .LEHE5-.LEHB5
	.uleb128 .L33-.LFB1632
	.uleb128 0
	.uleb128 .LEHB6-.LFB1632
	.uleb128 .LEHE6-.LEHB6
	.uleb128 .L35-.LFB1632
	.uleb128 0
	.uleb128 .LEHB7-.LFB1632
	.uleb128 .LEHE7-.LEHB7
	.uleb128 .L33-.LFB1632
	.uleb128 0
	.uleb128 .LEHB8-.LFB1632
	.uleb128 .LEHE8-.LEHB8
	.uleb128 .L34-.LFB1632
	.uleb128 0
	.uleb128 .LEHB9-.LFB1632
	.uleb128 .LEHE9-.LEHB9
	.uleb128 .L33-.LFB1632
	.uleb128 0
	.uleb128 .LEHB10-.LFB1632
	.uleb128 .LEHE10-.LEHB10
	.uleb128 .L36-.LFB1632
	.uleb128 0
	.uleb128 .LEHB11-.LFB1632
	.uleb128 .LEHE11-.LEHB11
	.uleb128 .L33-.LFB1632
	.uleb128 0
	.uleb128 .LEHB12-.LFB1632
	.uleb128 .LEHE12-.LEHB12
	.uleb128 .L37-.LFB1632
	.uleb128 0
	.uleb128 .LEHB13-.LFB1632
	.uleb128 .LEHE13-.LEHB13
	.uleb128 0
	.uleb128 0
	.uleb128 .LEHB14-.LFB1632
	.uleb128 .LEHE14-.LEHB14
	.uleb128 0
	.uleb128 0
.LLSDACSE1632:
	.section	".text"
	.size	_Z24DownloadAllLanguageFilesSs, .-_Z24DownloadAllLanguageFilesSs
	.align 2
	.globl _Z19UpdateLanguageFilesSs
	.type	_Z19UpdateLanguageFilesSs, @function
_Z19UpdateLanguageFilesSs:
.LFB1633:
	.loc 1 81 0
	.cfi_startproc
	.cfi_personality 0,__gxx_personality_v0
	.cfi_lsda 0,.LLSDA1633
.LVL41:
	stwu 1,-448(1)
.LCFI3:
	.cfi_def_cfa_offset 448
	mflr 0
	stw 25,420(1)
	mr 25,3
	.cfi_offset 25, -28
	.cfi_register 65, 0
.LBB1538:
	.loc 1 82 0
	mr 4,25
	addi 3,1,16
.LVL42:
.LBE1538:
	.loc 1 81 0
	stw 0,452(1)
	stw 23,412(1)
	stw 24,416(1)
	stw 26,424(1)
	stw 27,428(1)
	stw 28,432(1)
	stw 29,436(1)
	stw 30,440(1)
	stw 31,444(1)
.LEHB15:
.LBB1640:
	.loc 1 82 0
	.cfi_offset 31, -4
	.cfi_offset 30, -8
	.cfi_offset 29, -12
	.cfi_offset 28, -16
	.cfi_offset 27, -20
	.cfi_offset 26, -24
	.cfi_offset 24, -32
	.cfi_offset 23, -36
	.cfi_offset 65, 4
	bl _ZNSsC1ERKSs
.LEHE15:
.LVL43:
	addi 3,1,16
.LEHB16:
	bl _Z15CreateSubfolderSs
.LEHE16:
.LBB1539:
.LBB1540:
.LBB1541:
.LBB1542:
.LBB1543:
.LBB1544:
	.loc 2 288 0
	lwz 9,16(1)
.LBE1544:
.LBE1543:
.LBE1542:
.LBB1545:
.LBB1546:
	.loc 2 235 0
	lis 30,_ZNSs4_Rep20_S_empty_rep_storageE@ha
.LBE1546:
.LBE1545:
.LBE1541:
.LBE1540:
.LBE1539:
	.loc 1 82 0
	mr 29,3
.LVL44:
.LBB1563:
.LBB1561:
.LBB1559:
.LBB1556:
.LBB1553:
	.loc 2 235 0
	la 30,_ZNSs4_Rep20_S_empty_rep_storageE@l(30)
.LBE1553:
.LBE1556:
	.loc 2 534 0
	addi 3,9,-12
.LVL45:
.LBB1557:
.LBB1554:
	.loc 2 235 0
	cmpw 7,3,30
	bne- 7,.L101
.LVL46:
.L58:
.LBE1554:
.LBE1557:
.LBE1559:
.LBE1561:
.LBE1563:
	.loc 1 82 0 discriminator 1
	cmpwi 7,29,0
	beq- 7,.L102
.LEHB17:
	.loc 1 88 0
	bl _Z17NetworkInitPromptv
	cmpwi 7,3,0
	beq- 7,.L103
	.loc 1 94 0
	addi 3,1,12
	mr 4,25
	bl _ZNSsC1ERKSs
.LEHE17:
	lis 5,.LC4@ha
	addi 3,1,40
	addi 4,1,12
	la 5,.LC4@l(5)
	li 6,3
.LEHB18:
	bl _ZN7DirListC1ESsPKcj
.LEHE18:
.LVL47:
.LBB1564:
.LBB1565:
.LBB1566:
.LBB1567:
.LBB1568:
.LBB1569:
	.loc 2 288 0
	lwz 9,12(1)
.LBE1569:
.LBE1568:
.LBE1567:
	.loc 2 534 0
	addi 3,9,-12
.LVL48:
.LBB1570:
.LBB1571:
	.loc 2 235 0
	cmpw 7,3,30
	bne- 7,.L104
.LVL49:
.L67:
.LBE1571:
.LBE1570:
.LBE1566:
.LBE1565:
.LBE1564:
.LBB1582:
.LBB1583:
.LBB1584:
	.file 5 "d:\\devkitpro\\devkitppc\\bin\\../lib/gcc/powerpc-eabi/4.6.3/../../../../powerpc-eabi/include/c++/4.6.3/bits/stl_vector.h"
	.loc 5 571 0 discriminator 1
	lwz 0,40(1)
.LBE1584:
.LBE1583:
.LBE1582:
	.loc 1 97 0 discriminator 1
	li 26,0
.LBB1587:
.LBB1586:
.LBB1585:
	.loc 5 571 0 discriminator 1
	lwz 9,44(1)
	subf 9,0,9
	lis 0,0xaaaa
	srawi 9,9,3
	ori 0,0,43691
.LBE1585:
.LBE1586:
.LBE1587:
	.loc 1 96 0 discriminator 1
	mullw. 11,9,0
	beq- 0,.L68
.LVL50:
.LBB1588:
.LBB1589:
	.loc 3 26 0
	lis 23,_ZN14ProgressWindow8instanceE@ha
	lwz 30,_ZN14ProgressWindow8instanceE@l(23)
	cmpwi 7,30,0
	beq- 7,.L105
.L69:
.LBE1589:
.LBE1588:
	.loc 1 104 0
	lis 3,.LC8@ha
	la 3,.LC8@l(3)
.LEHB19:
	bl gettext
	mr 4,3
	li 5,0
	mr 3,30
	bl _ZN14ProgressWindow13StartProgressEPKcS1_
.LVL51:
.LBB1591:
.LBB1592:
	.loc 1 202 0 discriminator 1
	lwz 0,40(1)
	lwz 9,44(1)
.LBB1593:
.LBB1594:
	.loc 5 571 0 discriminator 1
	subf 0,0,9
.LBE1594:
.LBE1593:
.LBE1592:
	.loc 1 106 0 discriminator 1
	cmpwi 7,0,23
	ble- 7,.L88
	lis 24,_ZN14ProgressWindow8instanceE@ha
	.loc 1 106 0 is_stmt 0
	li 30,0
	li 31,0
	li 26,0
	la 24,_ZN14ProgressWindow8instanceE@l(24)
	b .L79
.LVL52:
.L74:
.LBB1599:
.LBB1600:
.LBB1601:
.LBB1602:
	.loc 5 571 0 is_stmt 1
	lis 9,0xaaaa
	srawi 0,0,3
	ori 9,9,43691
.LBE1602:
.LBE1601:
.LBE1600:
	.loc 1 108 0
	addi 3,1,40
.LVL53:
.LBB1605:
.LBB1604:
.LBB1603:
	.loc 5 571 0
	mullw 0,0,9
.LBE1603:
.LBE1604:
.LBE1605:
	.loc 1 108 0
	mr 4,29
	stw 30,32(1)
	stw 31,36(1)
.LVL54:
	srawi 9,0,31
	stw 0,28(1)
	stw 9,24(1)
	bl _ZN7DirList11GetFilenameEi
.LVL55:
	mr 6,3
	addi 4,1,32
	mr 3,28
	addi 5,1,24
	bl _ZN14ProgressWindow12ShowProgressERKyS1_PKc
	.loc 1 110 0
	addi 3,1,40
.LVL56:
	mr 4,29
	bl _ZN7DirList11GetFilenameEi
.LVL57:
	lis 5,.LC5@ha
	lis 6,.LC2@ha
	mr 7,3
	li 4,200
	addi 3,1,204
	la 5,.LC5@l(5)
	la 6,.LC2@l(6)
	crxor 6,6,6
	bl snprintf
.LVL58:
	.loc 1 111 0
	mr 4,29
	addi 3,1,40
.LVL59:
.LBB1606:
.LBB1607:
.LBB1608:
	.loc 2 288 0
	lwz 29,0(25)
.LBE1608:
.LBE1607:
.LBE1606:
	.loc 1 111 0
	bl _ZN7DirList11GetFilenameEi
.LVL60:
	lis 5,.LC6@ha
	mr 7,3
	li 4,150
	addi 3,1,52
	la 5,.LC6@l(5)
	mr 6,29
	crxor 6,6,6
	bl snprintf
	.loc 1 113 0
	addi 3,1,204
	bl downloadfile
.LBB1609:
	.loc 1 115 0
	mr. 29,4
.LBE1609:
	.loc 1 113 0
	mr 27,3
.LBB1612:
	.loc 1 115 0
	beq- 0,.L77
.LBB1610:
	.loc 1 118 0
	lis 4,.LC7@ha
	addi 3,1,52
	la 4,.LC7@l(4)
	bl fopen
.LVL61:
	.loc 1 119 0
	mr. 28,3
	beq- 0,.L78
	.loc 1 121 0
	mr 3,29
.LVL62:
	li 4,1
	mr 5,27
	mr 6,28
	bl fwrite
	.loc 1 122 0
	mr 3,28
	bl fclose
	.loc 1 123 0
	addi 26,26,1
.LVL63:
.L78:
	.loc 1 125 0
	mr 3,29
	bl free
.LVL64:
.L77:
.LBE1610:
.LBE1612:
.LBE1599:
.LBB1620:
	.loc 1 202 0
	lwz 9,44(1)
.LBB1597:
.LBB1595:
	.loc 5 571 0
	lis 11,0xaaaa
.LBE1595:
.LBE1597:
	.loc 1 202 0
	lwz 0,40(1)
.LBB1598:
.LBB1596:
	.loc 5 571 0
	ori 11,11,43691
	subf 0,0,9
	srawi 9,0,3
	mullw 11,9,11
.LBE1596:
.LBE1598:
.LBE1620:
.LBB1621:
.LBB1613:
.LBB1611:
	.loc 1 80 0
	addi 9,31,1
.LVL65:
.LBE1611:
.LBE1613:
.LBE1621:
.LBB1622:
	.loc 1 202 0
	addic 31,31,1
	addze 30,30
.LBE1622:
	.loc 1 106 0
	cmpw 7,11,9
	ble- 7,.L73
.LVL66:
.L79:
.LBB1623:
.LBB1614:
.LBB1615:
	.loc 3 26 0
	lwz 28,0(24)
.LBE1615:
.LBE1614:
.LBE1623:
	.loc 1 106 0
	mr 29,31
.LBB1624:
.LBB1618:
.LBB1616:
	.loc 3 26 0
	cmpwi 7,28,0
	bne+ 7,.L74
	li 3,440
	bl _Znwj
.LEHE19:
	mr 28,3
.LEHB20:
	bl _ZN14ProgressWindowC1Ev
.LEHE20:
	lwz 0,40(1)
	lwz 9,44(1)
	stw 28,0(24)
	subf 0,0,9
	b .L74
.LVL67:
.L88:
.LBE1616:
.LBE1618:
.LBE1624:
	.loc 1 106 0
	li 26,0
.LVL68:
.L73:
.LBE1591:
.LBB1626:
.LBB1627:
	.loc 3 26 0
	lwz 30,_ZN14ProgressWindow8instanceE@l(23)
	cmpwi 7,30,0
	beq- 7,.L106
.L80:
.LBE1627:
.LBE1626:
	.loc 1 129 0
	mr 3,30
.LEHB21:
	bl _ZN14ProgressWindow14FinishProgressEv
.LBB1629:
.LBB1630:
	.loc 3 26 0
	lwz 30,_ZN14ProgressWindow8instanceE@l(23)
	cmpwi 7,30,0
	beq- 7,.L107
.L83:
.LBE1630:
.LBE1629:
	.loc 1 130 0
	mr 3,30
	bl _ZN14ProgressWindow12StopProgressEv
.LEHE21:
.LVL69:
.L68:
	.loc 1 132 0
	addi 3,1,40
.LVL70:
.LEHB22:
	bl _ZN7DirListD1Ev
.LEHE22:
.LVL71:
.L60:
.LBE1640:
	.loc 1 133 0
	lwz 0,452(1)
	mr 3,26
	lwz 23,412(1)
	mtlr 0
	lwz 24,416(1)
	lwz 25,420(1)
.LVL72:
	lwz 26,424(1)
	lwz 27,428(1)
	lwz 28,432(1)
	lwz 29,436(1)
	lwz 30,440(1)
	lwz 31,444(1)
	addi 1,1,448
	.cfi_remember_state
.LCFI4:
	.cfi_def_cfa_offset 0
	.cfi_restore 31
	.cfi_restore 30
	.cfi_restore 29
	.cfi_restore 28
	.cfi_restore 27
	.cfi_restore 26
	.cfi_restore 25
	.cfi_restore 24
	.cfi_restore 23
	blr
.LVL73:
.L105:
.LCFI5:
	.cfi_restore_state
.LBB1641:
.LBB1633:
.LBB1590:
	.loc 3 26 0
	li 3,440
.LEHB23:
	bl _Znwj
.LEHE23:
	mr 30,3
.LEHB24:
	bl _ZN14ProgressWindowC1Ev
.LEHE24:
	stw 30,_ZN14ProgressWindow8instanceE@l(23)
	b .L69
.LVL74:
.L106:
.LBE1590:
.LBE1633:
.LBB1634:
.LBB1628:
	li 3,440
.LEHB25:
	bl _Znwj
.LEHE25:
	mr 30,3
.LEHB26:
	bl _ZN14ProgressWindowC1Ev
.LEHE26:
	stw 30,_ZN14ProgressWindow8instanceE@l(23)
	b .L80
.L107:
.LBE1628:
.LBE1634:
.LBB1635:
.LBB1631:
	li 3,440
.LEHB27:
	bl _Znwj
.LEHE27:
	mr 30,3
.LEHB28:
	bl _ZN14ProgressWindowC1Ev
.LEHE28:
	stw 30,_ZN14ProgressWindow8instanceE@l(23)
	b .L83
.LVL75:
.L102:
.LBE1631:
.LBE1635:
	.loc 1 84 0
	lis 3,.LC0@ha
	.loc 1 85 0
	li 26,-1
	.loc 1 84 0
	la 3,.LC0@l(3)
.LEHB29:
	bl gettext
.LVL76:
	lwz 4,0(25)
	crxor 6,6,6
	bl ShowError
	.loc 1 85 0
	b .L60
.LVL77:
.L103:
	.loc 1 90 0
	lis 3,.LC1@ha
	.loc 1 91 0
	li 26,-2
	.loc 1 90 0
	la 3,.LC1@l(3)
	bl gettext
	crxor 6,6,6
	bl ShowError
.LEHE29:
	.loc 1 91 0
	b .L60
.LVL78:
.L93:
	mr 30,3
.LBB1636:
.LBB1625:
.LBB1619:
.LBB1617:
	.loc 3 26 0
	mr 3,28
	bl _ZdlPv
.LVL79:
.L72:
.LBE1617:
.LBE1619:
.LBE1625:
.LBE1636:
	.loc 1 132 0
	addi 3,1,40
.LVL80:
	bl _ZN7DirListD1Ev
.LVL81:
	mr 3,30
.LEHB30:
	bl _Unwind_Resume
.LVL82:
.L101:
.LBB1637:
.LBB1562:
.LBB1560:
.LBB1558:
.LBB1555:
.LBB1547:
.LBB1548:
.LBB1549:
	.loc 4 66 0
	lwz 11,-4(9)
.LVL83:
.LBE1549:
.LBE1548:
.LBE1547:
	.loc 2 240 0
	cmpwi 7,11,0
.LBB1552:
.LBB1551:
.LBB1550:
	.loc 4 67 0
	addi 11,11,-1
	stw 11,-4(9)
.LBE1550:
.LBE1551:
.LBE1552:
	.loc 2 240 0
	bgt+ 7,.L58
	.loc 2 244 0
	addi 4,1,9
	bl _ZNSs4_Rep10_M_destroyERKSaIcE
.LVL84:
	b .L58
.LVL85:
.L91:
	mr 30,3
	b .L72
.LVL86:
.L104:
.LBE1555:
.LBE1558:
.LBE1560:
.LBE1562:
.LBE1637:
.LBB1638:
.LBB1581:
.LBB1580:
.LBB1579:
.LBB1578:
.LBB1572:
.LBB1573:
.LBB1574:
	.loc 4 66 0
	lwz 11,-4(9)
.LVL87:
.LBE1574:
.LBE1573:
.LBE1572:
	.loc 2 240 0
	cmpwi 7,11,0
.LBB1577:
.LBB1576:
.LBB1575:
	.loc 4 67 0
	addi 11,11,-1
	stw 11,-4(9)
.LBE1575:
.LBE1576:
.LBE1577:
	.loc 2 240 0
	bgt+ 7,.L67
	.loc 2 244 0
	addi 4,1,8
	bl _ZNSs4_Rep10_M_destroyERKSaIcE
.LVL88:
	b .L67
.LVL89:
.L89:
	mr 30,3
.LBE1578:
.LBE1579:
.LBE1580:
.LBE1581:
.LBE1638:
	.loc 1 82 0
	addi 3,1,16
	bl _ZNSsD1Ev
	mr 3,30
	bl _Unwind_Resume
.LVL90:
.L90:
	mr 30,3
	.loc 1 94 0
	addi 3,1,12
	bl _ZNSsD1Ev
	mr 3,30
	bl _Unwind_Resume
.LEHE30:
.LVL91:
.L95:
.L100:
	mr 29,3
.LBB1639:
.LBB1632:
	.loc 3 26 0
	mr 3,30
	bl _ZdlPv
	mr 30,29
	b .L72
.LVL92:
.L92:
	b .L100
.LVL93:
.L94:
	b .L100
.LBE1632:
.LBE1639:
.LBE1641:
	.cfi_endproc
.LFE1633:
	.section	.gcc_except_table
.LLSDA1633:
	.byte	0xff
	.byte	0xff
	.byte	0x1
	.uleb128 .LLSDACSE1633-.LLSDACSB1633
.LLSDACSB1633:
	.uleb128 .LEHB15-.LFB1633
	.uleb128 .LEHE15-.LEHB15
	.uleb128 0
	.uleb128 0
	.uleb128 .LEHB16-.LFB1633
	.uleb128 .LEHE16-.LEHB16
	.uleb128 .L89-.LFB1633
	.uleb128 0
	.uleb128 .LEHB17-.LFB1633
	.uleb128 .LEHE17-.LEHB17
	.uleb128 0
	.uleb128 0
	.uleb128 .LEHB18-.LFB1633
	.uleb128 .LEHE18-.LEHB18
	.uleb128 .L90-.LFB1633
	.uleb128 0
	.uleb128 .LEHB19-.LFB1633
	.uleb128 .LEHE19-.LEHB19
	.uleb128 .L91-.LFB1633
	.uleb128 0
	.uleb128 .LEHB20-.LFB1633
	.uleb128 .LEHE20-.LEHB20
	.uleb128 .L93-.LFB1633
	.uleb128 0
	.uleb128 .LEHB21-.LFB1633
	.uleb128 .LEHE21-.LEHB21
	.uleb128 .L91-.LFB1633
	.uleb128 0
	.uleb128 .LEHB22-.LFB1633
	.uleb128 .LEHE22-.LEHB22
	.uleb128 0
	.uleb128 0
	.uleb128 .LEHB23-.LFB1633
	.uleb128 .LEHE23-.LEHB23
	.uleb128 .L91-.LFB1633
	.uleb128 0
	.uleb128 .LEHB24-.LFB1633
	.uleb128 .LEHE24-.LEHB24
	.uleb128 .L92-.LFB1633
	.uleb128 0
	.uleb128 .LEHB25-.LFB1633
	.uleb128 .LEHE25-.LEHB25
	.uleb128 .L91-.LFB1633
	.uleb128 0
	.uleb128 .LEHB26-.LFB1633
	.uleb128 .LEHE26-.LEHB26
	.uleb128 .L94-.LFB1633
	.uleb128 0
	.uleb128 .LEHB27-.LFB1633
	.uleb128 .LEHE27-.LEHB27
	.uleb128 .L91-.LFB1633
	.uleb128 0
	.uleb128 .LEHB28-.LFB1633
	.uleb128 .LEHE28-.LEHB28
	.uleb128 .L95-.LFB1633
	.uleb128 0
	.uleb128 .LEHB29-.LFB1633
	.uleb128 .LEHE29-.LEHB29
	.uleb128 0
	.uleb128 0
	.uleb128 .LEHB30-.LFB1633
	.uleb128 .LEHE30-.LEHB30
	.uleb128 0
	.uleb128 0
.LLSDACSE1633:
	.section	".text"
	.size	_Z19UpdateLanguageFilesSs, .-_Z19UpdateLanguageFilesSs
	.align 2
	.globl _Z19SelectLanguageFilesSs
	.type	_Z19SelectLanguageFilesSs, @function
_Z19SelectLanguageFilesSs:
.LFB1634:
	.loc 1 136 0
	.cfi_startproc
	.cfi_personality 0,__gxx_personality_v0
	.cfi_lsda 0,.LLSDA1634
.LVL94:
	stwu 1,-440(1)
.LCFI6:
	.cfi_def_cfa_offset 440
	mflr 0
	stw 28,424(1)
	mr 28,3
	.cfi_offset 28, -16
	.cfi_register 65, 0
.LBB1691:
	.loc 1 137 0
	mr 4,28
	addi 3,1,12
.LVL95:
.LBE1691:
	.loc 1 136 0
	stw 0,444(1)
	stw 20,392(1)
	stw 21,396(1)
	stw 22,400(1)
	stw 23,404(1)
	stw 24,408(1)
	stw 25,412(1)
	stw 26,416(1)
	stw 27,420(1)
	stw 29,428(1)
	stw 30,432(1)
	stw 31,436(1)
.LEHB31:
.LBB1768:
	.loc 1 137 0
	.cfi_offset 31, -4
	.cfi_offset 30, -8
	.cfi_offset 29, -12
	.cfi_offset 27, -20
	.cfi_offset 26, -24
	.cfi_offset 25, -28
	.cfi_offset 24, -32
	.cfi_offset 23, -36
	.cfi_offset 22, -40
	.cfi_offset 21, -44
	.cfi_offset 20, -48
	.cfi_offset 65, 4
	bl _ZNSsC1ERKSs
.LEHE31:
.LVL96:
	addi 3,1,12
.LEHB32:
	bl _Z15CreateSubfolderSs
.LEHE32:
.LBB1692:
.LBB1693:
.LBB1694:
.LBB1695:
.LBB1696:
.LBB1697:
	.loc 2 288 0
	lwz 9,12(1)
.LBE1697:
.LBE1696:
.LBE1695:
.LBB1698:
.LBB1699:
	.loc 2 235 0
	lis 11,_ZNSs4_Rep20_S_empty_rep_storageE@ha
.LBE1699:
.LBE1698:
.LBE1694:
.LBE1693:
.LBE1692:
	.loc 1 137 0
	mr 31,3
.LVL97:
.LBB1716:
.LBB1714:
.LBB1712:
.LBB1709:
.LBB1706:
	.loc 2 235 0
	la 0,_ZNSs4_Rep20_S_empty_rep_storageE@l(11)
.LBE1706:
.LBE1709:
	.loc 2 534 0
	addi 3,9,-12
.LVL98:
.LBB1710:
.LBB1707:
	.loc 2 235 0
	cmpw 7,3,0
	bne- 7,.L148
.LVL99:
.L114:
.LBE1707:
.LBE1710:
.LBE1712:
.LBE1714:
.LBE1716:
	.loc 1 137 0 discriminator 1
	cmpwi 7,31,0
	beq- 7,.L149
.LEHB33:
	.loc 1 143 0
	bl _Z17NetworkInitPromptv
	cmpwi 7,3,0
	beq- 7,.L150
	.loc 1 149 0
	lis 27,.LC2@ha
	li 3,8
	la 27,.LC2@l(27)
	bl _Znwj
.LEHE33:
	mr 4,27
	mr 26,3
.LEHB34:
	bl _ZN8URL_ListC1EPKc
.LEHE34:
.LVL100:
	.loc 1 150 0 discriminator 1
	mr 3,26
	.loc 1 151 0 discriminator 1
	li 29,0
.LEHB35:
	.loc 1 150 0 discriminator 1
	bl _ZN8URL_List11GetURLCountEv
	cmpwi 7,3,0
	bne- 7,.L151
.LVL101:
.L116:
.LBE1768:
	.loc 1 202 0
	lwz 0,444(1)
	mr 3,29
	lwz 20,392(1)
	mtlr 0
	lwz 21,396(1)
	lwz 22,400(1)
	lwz 23,404(1)
	lwz 24,408(1)
	lwz 25,412(1)
	lwz 26,416(1)
	lwz 27,420(1)
	lwz 28,424(1)
.LVL102:
	lwz 29,428(1)
	lwz 30,432(1)
	lwz 31,436(1)
	addi 1,1,440
	.cfi_remember_state
.LCFI7:
	.cfi_def_cfa_offset 0
	.cfi_restore 31
	.cfi_restore 30
	.cfi_restore 29
	.cfi_restore 28
	.cfi_restore 27
	.cfi_restore 26
	.cfi_restore 25
	.cfi_restore 24
	.cfi_restore 23
	.cfi_restore 22
	.cfi_restore 21
	.cfi_restore 20
	blr
.LVL103:
.L151:
.LCFI8:
	.cfi_restore_state
.LBB1769:
	.loc 1 153 0
	lis 30,LangList@ha
	mr 4,26
	la 31,LangList@l(30)
	mr 3,31
	bl _ZN9CLangList3GetEP8URL_List
	.loc 1 155 0
	cmpwi 7,26,0
	beq- 7,.L118
	.loc 1 155 0 is_stmt 0 discriminator 1
	mr 3,26
	bl _ZN8URL_ListD1Ev
	mr 3,26
	bl _ZdlPv
.L118:
.LVL104:
.LBB1717:
.LBB1718:
.LBB1719:
	.loc 5 571 0 is_stmt 1
	lwz 9,4(31)
.LBE1719:
.LBE1718:
.LBE1717:
	.loc 1 159 0
	li 29,0
.LBB1722:
.LBB1721:
.LBB1720:
	.loc 5 571 0
	lwz 0,LangList@l(30)
	subf 0,0,9
.LBE1720:
.LBE1721:
.LBE1722:
	.loc 1 158 0
	srwi. 9,0,2
	beq+ 0,.L116
	.loc 1 161 0
	bl _Z22languagesSelectBrowserv
.LVL105:
	.loc 1 162 0
	mr. 25,3
	beq+ 0,.L116
.LVL106:
.LBB1723:
.LBB1724:
	.loc 3 26 0
	lis 23,_ZN14ProgressWindow8instanceE@ha
	lwz 29,_ZN14ProgressWindow8instanceE@l(23)
	cmpwi 7,29,0
	beq- 7,.L152
.LVL107:
.L119:
.LBE1724:
.LBE1723:
	.loc 1 170 0
	lis 3,.LC9@ha
	la 3,.LC9@l(3)
	bl gettext
	li 5,0
	mr 4,3
	mr 3,29
	bl _ZN14ProgressWindow13StartProgressEPKcS1_
.LVL108:
.LBB1727:
.LBB1728:
.LBB1729:
.LBB1730:
	.loc 5 571 0
	lwz 9,4(31)
	lwz 0,LangList@l(30)
.LBE1730:
.LBE1729:
.LBE1728:
	.loc 1 168 0
	li 29,0
.LBB1737:
.LBB1734:
.LBB1731:
	.loc 5 571 0
	subf 0,0,9
.LBE1731:
.LBE1734:
.LBE1737:
	.loc 1 172 0
	cmpwi 7,0,3
	ble- 7,.L121
	lis 24,_ZN14ProgressWindow8instanceE@ha
	li 30,0
	li 29,0
	la 24,_ZN14ProgressWindow8instanceE@l(24)
	b .L120
.LVL109:
.L125:
.LBB1738:
.LBB1735:
.LBB1732:
	.loc 5 571 0
	lwz 9,4(31)
.LBE1732:
.LBE1735:
.LBE1738:
	.loc 1 172 0
	addi 30,30,1
.LVL110:
.LBB1739:
.LBB1736:
.LBB1733:
	.loc 5 571 0
	lwz 0,0(31)
	subf 0,0,9
	srawi 0,0,2
.LBE1733:
.LBE1736:
.LBE1739:
	.loc 1 172 0
	cmpw 7,30,0
	bge- 7,.L121
.LVL111:
.L120:
.LBB1740:
.LBB1741:
.LBB1742:
	.loc 3 26 0
	lwz 26,0(24)
	cmpwi 7,26,0
	beq- 7,.L153
.L123:
.LBE1742:
.LBE1741:
	.loc 1 174 0
	addi 22,29,1
	srawi 0,25,31
	srawi 9,22,31
	mr 4,30
	mr 3,31
	stw 9,24(1)
	stw 0,16(1)
	stw 22,28(1)
	stw 25,20(1)
	bl _ZN9CLangList11GetFilenameEi
	mr 6,3
	addi 5,1,16
	mr 3,26
	addi 4,1,24
	bl _ZN14ProgressWindow12ShowProgressERKyS1_PKc
.LBB1744:
	.loc 1 176 0
	mr 3,31
	mr 4,30
	bl _ZN9CLangList6NeededEi
	cmpwi 7,3,0
	beq+ 7,.L125
.LBB1745:
	.loc 1 178 0
	mr 4,30
	mr 3,31
	bl _ZN9CLangList11GetFilenameEi
	lis 5,.LC5@ha
	mr 7,3
	la 5,.LC5@l(5)
	mr 6,27
	li 4,200
	addi 3,1,184
	crxor 6,6,6
	bl snprintf
.LVL112:
.LBB1746:
.LBB1747:
.LBB1748:
	.loc 2 288 0
	lwz 26,0(28)
.LBE1748:
.LBE1747:
.LBE1746:
	.loc 1 179 0
	mr 4,30
	mr 3,31
	bl _ZN9CLangList11GetFilenameEi
	lis 5,.LC6@ha
	mr 7,3
	mr 6,26
	li 4,150
	la 5,.LC6@l(5)
	addi 3,1,32
	crxor 6,6,6
	bl snprintf
	.loc 1 181 0
	addi 3,1,184
	bl downloadfile
.LVL113:
.LBB1749:
	.loc 1 183 0
	mr. 26,4
.LBE1749:
	.loc 1 181 0
	mr 20,3
.LVL114:
.LBB1751:
	.loc 1 183 0
	beq- 0,.L125
.LBB1750:
	.loc 1 186 0
	lis 4,.LC7@ha
.LVL115:
	addi 3,1,32
	la 4,.LC7@l(4)
	bl fopen
.LVL116:
	.loc 1 187 0
	mr. 21,3
	beq- 0,.L127
	.loc 1 189 0
	li 4,1
	mr 5,20
.LVL117:
	mr 6,21
	mr 3,26
.LVL118:
	bl fwrite
.LVL119:
	.loc 1 190 0
	mr 3,21
	bl fclose
.LVL120:
	.loc 1 191 0
	mr 29,22
.LVL121:
.L127:
	.loc 1 193 0
	mr 3,26
	bl free
	b .L125
.LVL122:
.L121:
.LBE1750:
.LBE1751:
.LBE1745:
.LBE1744:
.LBE1740:
.LBE1727:
.LBB1754:
.LBB1755:
	.loc 3 26 0
	lwz 31,_ZN14ProgressWindow8instanceE@l(23)
	cmpwi 7,31,0
	beq- 7,.L154
.L128:
.LBE1755:
.LBE1754:
	.loc 1 198 0
	mr 3,31
	bl _ZN14ProgressWindow14FinishProgressEv
.LBB1757:
.LBB1758:
	.loc 3 26 0
	lwz 31,_ZN14ProgressWindow8instanceE@l(23)
	cmpwi 7,31,0
	beq- 7,.L155
.L130:
.LBE1758:
.LBE1757:
	.loc 1 199 0
	mr 3,31
	bl _ZN14ProgressWindow12StopProgressEv
	.loc 1 201 0
	b .L116
.LVL123:
.L152:
.LBB1761:
.LBB1725:
	.loc 3 26 0
	li 3,440
	bl _Znwj
.LEHE35:
	mr 29,3
.LEHB36:
	bl _ZN14ProgressWindowC1Ev
.LEHE36:
	stw 29,_ZN14ProgressWindow8instanceE@l(23)
	b .L119
.LVL124:
.L155:
.LBE1725:
.LBE1761:
.LBB1762:
.LBB1759:
	li 3,440
.LEHB37:
	bl _Znwj
.LEHE37:
	mr 31,3
.LEHB38:
	bl _ZN14ProgressWindowC1Ev
.LEHE38:
	stw 31,_ZN14ProgressWindow8instanceE@l(23)
	b .L130
.L154:
.LBE1759:
.LBE1762:
.LBB1763:
.LBB1756:
	li 3,440
.LEHB39:
	bl _Znwj
.LEHE39:
	mr 31,3
.LEHB40:
	bl _ZN14ProgressWindowC1Ev
.LEHE40:
	stw 31,_ZN14ProgressWindow8instanceE@l(23)
	b .L128
.L153:
.LBE1756:
.LBE1763:
.LBB1764:
.LBB1753:
.LBB1752:
.LBB1743:
	li 3,440
.LEHB41:
	bl _Znwj
.LEHE41:
	mr 26,3
.LEHB42:
	bl _ZN14ProgressWindowC1Ev
.LEHE42:
	stw 26,0(24)
	b .L123
.LVL125:
.L149:
.LBE1743:
.LBE1752:
.LBE1753:
.LBE1764:
	.loc 1 139 0
	lis 3,.LC0@ha
	.loc 1 140 0
	li 29,-1
	.loc 1 139 0
	la 3,.LC0@l(3)
.LEHB43:
	bl gettext
.LVL126:
	lwz 4,0(28)
	crxor 6,6,6
	bl ShowError
	.loc 1 140 0
	b .L116
.LVL127:
.L150:
	.loc 1 145 0
	lis 3,.LC1@ha
	.loc 1 146 0
	li 29,-2
	.loc 1 145 0
	la 3,.LC1@l(3)
	bl gettext
	crxor 6,6,6
	bl ShowError
	.loc 1 146 0
	b .L116
.LVL128:
.L148:
.LBB1765:
.LBB1715:
.LBB1713:
.LBB1711:
.LBB1708:
.LBB1700:
.LBB1701:
.LBB1702:
	.loc 4 66 0
	lwz 11,-4(9)
.LVL129:
.LBE1702:
.LBE1701:
.LBE1700:
	.loc 2 240 0
	cmpwi 7,11,0
.LBB1705:
.LBB1704:
.LBB1703:
	.loc 4 67 0
	addi 11,11,-1
	stw 11,-4(9)
.LBE1703:
.LBE1704:
.LBE1705:
	.loc 2 240 0
	bgt+ 7,.L114
	.loc 2 244 0
	addi 4,1,8
	bl _ZNSs4_Rep10_M_destroyERKSaIcE
.LVL130:
	b .L114
.LVL131:
.L141:
	mr 31,3
.LBE1708:
.LBE1711:
.LBE1713:
.LBE1715:
.LBE1765:
.LBB1766:
.LBB1726:
	.loc 3 26 0
	mr 3,29
	bl _ZdlPv
	mr 3,31
	bl _Unwind_Resume
.LVL132:
.L144:
.L147:
	mr 30,3
.LBE1726:
.LBE1766:
.LBB1767:
.LBB1760:
	mr 3,31
	bl _ZdlPv
	mr 3,30
	bl _Unwind_Resume
.L142:
.LVL133:
.L146:
	mr 31,3
.LBE1760:
.LBE1767:
	.loc 1 149 0
	mr 3,26
	bl _ZdlPv
	mr 3,31
	bl _Unwind_Resume
.LVL134:
.L139:
	mr 31,3
	.loc 1 137 0
	addi 3,1,12
	bl _ZNSsD1Ev
	mr 3,31
	bl _Unwind_Resume
.LEHE43:
.LVL135:
.L140:
	b .L146
.LVL136:
.L143:
	b .L147
.LBE1769:
	.cfi_endproc
.LFE1634:
	.section	.gcc_except_table
.LLSDA1634:
	.byte	0xff
	.byte	0xff
	.byte	0x1
	.uleb128 .LLSDACSE1634-.LLSDACSB1634
.LLSDACSB1634:
	.uleb128 .LEHB31-.LFB1634
	.uleb128 .LEHE31-.LEHB31
	.uleb128 0
	.uleb128 0
	.uleb128 .LEHB32-.LFB1634
	.uleb128 .LEHE32-.LEHB32
	.uleb128 .L139-.LFB1634
	.uleb128 0
	.uleb128 .LEHB33-.LFB1634
	.uleb128 .LEHE33-.LEHB33
	.uleb128 0
	.uleb128 0
	.uleb128 .LEHB34-.LFB1634
	.uleb128 .LEHE34-.LEHB34
	.uleb128 .L140-.LFB1634
	.uleb128 0
	.uleb128 .LEHB35-.LFB1634
	.uleb128 .LEHE35-.LEHB35
	.uleb128 0
	.uleb128 0
	.uleb128 .LEHB36-.LFB1634
	.uleb128 .LEHE36-.LEHB36
	.uleb128 .L141-.LFB1634
	.uleb128 0
	.uleb128 .LEHB37-.LFB1634
	.uleb128 .LEHE37-.LEHB37
	.uleb128 0
	.uleb128 0
	.uleb128 .LEHB38-.LFB1634
	.uleb128 .LEHE38-.LEHB38
	.uleb128 .L144-.LFB1634
	.uleb128 0
	.uleb128 .LEHB39-.LFB1634
	.uleb128 .LEHE39-.LEHB39
	.uleb128 0
	.uleb128 0
	.uleb128 .LEHB40-.LFB1634
	.uleb128 .LEHE40-.LEHB40
	.uleb128 .L143-.LFB1634
	.uleb128 0
	.uleb128 .LEHB41-.LFB1634
	.uleb128 .LEHE41-.LEHB41
	.uleb128 0
	.uleb128 0
	.uleb128 .LEHB42-.LFB1634
	.uleb128 .LEHE42-.LEHB42
	.uleb128 .L142-.LFB1634
	.uleb128 0
	.uleb128 .LEHB43-.LFB1634
	.uleb128 .LEHE43-.LEHB43
	.uleb128 0
	.uleb128 0
.LLSDACSE1634:
	.section	".text"
	.size	_Z19SelectLanguageFilesSs, .-_Z19SelectLanguageFilesSs
	.section	.rodata.str1.4,"aMS",@progbits,1
	.align 2
.LC0:
	.string	"Could not create path: %s"
	.zero	2
.LC1:
	.string	"Network is not initiated."
	.zero	2
.LC2:
	.string	"http://savegame-manager-gx.googlecode.com/svn/trunk/Languages/"
	.zero	1
.LC3:
	.string	"Downloading all Language Files:"
.LC4:
	.string	".lang"
	.zero	2
.LC5:
	.string	"%s%s"
	.zero	3
.LC6:
	.string	"%s/%s"
	.zero	2
.LC7:
	.string	"wb"
	.zero	1
.LC8:
	.string	"Updating Language Files:"
	.zero	3
.LC9:
	.string	"Downloading Language Files:"
	.section	".text"
.Letext0:
	.file 6 "d:\\devkitpro\\devkitppc\\bin\\../lib/gcc/powerpc-eabi/4.6.3/../../../../powerpc-eabi/include/c++/4.6.3/cwchar"
	.file 7 "d:\\devkitpro\\devkitppc\\bin\\../lib/gcc/powerpc-eabi/4.6.3/../../../../powerpc-eabi/include/c++/4.6.3/powerpc-eabi/bits/c++config.h"
	.file 8 "d:\\devkitpro\\devkitppc\\bin\\../lib/gcc/powerpc-eabi/4.6.3/../../../../powerpc-eabi/include/c++/4.6.3/clocale"
	.file 9 "d:\\devkitpro\\devkitppc\\bin\\../lib/gcc/powerpc-eabi/4.6.3/../../../../powerpc-eabi/include/c++/4.6.3/bits/stringfwd.h"
	.file 10 "d:\\devkitpro\\devkitppc\\bin\\../lib/gcc/powerpc-eabi/4.6.3/../../../../powerpc-eabi/include/c++/4.6.3/bits/stl_list.h"
	.file 11 "d:\\devkitpro\\devkitppc\\bin\\../lib/gcc/powerpc-eabi/4.6.3/../../../../powerpc-eabi/include/c++/4.6.3/bits/stl_tree.h"
	.file 12 "d:\\devkitpro\\devkitppc\\bin\\../lib/gcc/powerpc-eabi/4.6.3/../../../../powerpc-eabi/include/c++/4.6.3/bits/move.h"
	.file 13 "d:\\devkitpro\\devkitppc\\bin\\../lib/gcc/powerpc-eabi/4.6.3/../../../../powerpc-eabi/include/c++/4.6.3/bits/cpp_type_traits.h"
	.file 14 "d:\\devkitpro\\devkitppc\\bin\\../lib/gcc/powerpc-eabi/4.6.3/../../../../powerpc-eabi/include/c++/4.6.3/ext/new_allocator.h"
	.file 15 "d:\\devkitpro\\devkitppc\\bin\\../lib/gcc/powerpc-eabi/4.6.3/../../../../powerpc-eabi/include/c++/4.6.3/debug/debug.h"
	.file 16 "d:\\devkitpro\\devkitppc\\bin\\../lib/gcc/powerpc-eabi/4.6.3/../../../../powerpc-eabi/include/machine/_types.h"
	.file 17 "d:\\devkitpro\\devkitppc\\bin\\../lib/gcc/powerpc-eabi/4.6.3/../../../../powerpc-eabi/include/sys/lock.h"
	.file 18 "d:\\devkitpro\\devkitppc\\bin\\../lib/gcc/powerpc-eabi/4.6.3/include/stddef.h"
	.file 19 "d:\\devkitpro\\devkitppc\\bin\\../lib/gcc/powerpc-eabi/4.6.3/../../../../powerpc-eabi/include/sys/_types.h"
	.file 20 "d:\\devkitpro\\devkitppc\\bin\\../lib/gcc/powerpc-eabi/4.6.3/../../../../powerpc-eabi/include/sys/reent.h"
	.file 21 "<built-in>"
	.file 22 "d:\\devkitpro\\devkitppc\\bin\\../lib/gcc/powerpc-eabi/4.6.3/../../../../powerpc-eabi/include/wchar.h"
	.file 23 "d:\\devkitpro\\devkitppc\\bin\\../lib/gcc/powerpc-eabi/4.6.3/../../../../powerpc-eabi/include/time.h"
	.file 24 "d:\\devkitpro\\devkitppc\\bin\\../lib/gcc/powerpc-eabi/4.6.3/../../../../powerpc-eabi/include/c++/4.6.3/bits/char_traits.h"
	.file 25 "d:\\devkitpro\\devkitppc\\bin\\../lib/gcc/powerpc-eabi/4.6.3/../../../../powerpc-eabi/include/c++/4.6.3/bits/allocator.h"
	.file 26 "d:\\devkitpro\\devkitppc\\bin\\../lib/gcc/powerpc-eabi/4.6.3/../../../../powerpc-eabi/include/locale.h"
	.file 27 "d:\\devkitpro\\devkitppc\\bin\\../lib/gcc/powerpc-eabi/4.6.3/../../../../powerpc-eabi/include/c++/4.6.3/powerpc-eabi/bits/atomic_word.h"
	.file 28 "d:\\devkitpro\\devkitppc\\bin\\../lib/gcc/powerpc-eabi/4.6.3/../../../../powerpc-eabi/include/c++/4.6.3/ext/numeric_traits.h"
	.file 29 "d:\\devkitpro\\devkitppc\\bin\\../lib/gcc/powerpc-eabi/4.6.3/../../../../powerpc-eabi/include/c++/4.6.3/bits/basic_string.tcc"
	.file 30 "d:\\devkitpro\\devkitppc\\bin\\../lib/gcc/powerpc-eabi/4.6.3/../../../../powerpc-eabi/include/stdint.h"
	.file 31 "d:/devkitPro/libogc/include/gctypes.h"
	.file 32 "d:/devkitPro/libogc/include/ogc/gx.h"
	.file 33 "d:\\devkitpro\\devkitppc\\bin\\../lib/gcc/powerpc-eabi/4.6.3/../../../../powerpc-eabi/include/stdio.h"
	.file 34 "d:\\devkitpro\\devkitppc\\bin\\../lib/gcc/powerpc-eabi/4.6.3/../../../../powerpc-eabi/include/c++/4.6.3/bits/stl_iterator_base_types.h"
	.file 35 "d:\\devkitpro\\devkitppc\\bin\\../lib/gcc/powerpc-eabi/4.6.3/../../../../powerpc-eabi/include/c++/4.6.3/bits/stl_iterator.h"
	.file 36 "d:/Projects/SaveGameManager/savegame-manager-gx/trunk/source/Language/../Gui/../Tools/Rect.h"
	.file 37 "d:/Projects/SaveGameManager/savegame-manager-gx/trunk/source/Language/../Gui/../sigslot.h"
	.file 38 "d:\\devkitpro\\devkitppc\\bin\\../lib/gcc/powerpc-eabi/4.6.3/../../../../powerpc-eabi/include/c++/4.6.3/bits/list.tcc"
	.file 39 "d:/Projects/SaveGameManager/savegame-manager-gx/trunk/source/Language/../Gui/gui_element.h"
	.file 40 "d:\\devkitpro\\devkitppc\\bin\\../lib/gcc/powerpc-eabi/4.6.3/../../../../powerpc-eabi/include/c++/4.6.3/bits/stl_function.h"
	.file 41 "d:\\devkitpro\\devkitppc\\bin\\../lib/gcc/powerpc-eabi/4.6.3/../../../../powerpc-eabi/include/c++/4.6.3/bits/stl_set.h"
	.file 42 "d:/Projects/SaveGameManager/savegame-manager-gx/trunk/source/Language/../Network/http.h"
	.file 43 "d:/Projects/SaveGameManager/savegame-manager-gx/trunk/source/Language/../Network/URL_List.h"
	.file 44 "d:/Projects/SaveGameManager/savegame-manager-gx/trunk/source/Language/CLangList.hpp"
	.file 45 "d:\\devkitpro\\devkitppc\\bin\\../lib/gcc/powerpc-eabi/4.6.3/../../../../powerpc-eabi/include/c++/4.6.3/bits/vector.tcc"
	.file 46 "d:/Projects/SaveGameManager/savegame-manager-gx/trunk/source/Language/../FileOperations/DirList.h"
	.file 47 "d:\\devkitpro\\devkitppc\\bin\\../lib/gcc/powerpc-eabi/4.6.3/../../../../powerpc-eabi/include/c++/4.6.3/bits/stl_pair.h"
	.file 48 "d:\\devkitpro\\devkitppc\\bin\\../lib/gcc/powerpc-eabi/4.6.3/../../../../powerpc-eabi/include/c++/4.6.3/new"